; Listing generated by Microsoft (R) Optimizing Compiler Version 19.29.30145.0 

	TITLE	D:\git\src\IBK\IBK_DRFN\#DRfn-CS\_Obj\ChartEnvSetupDlgAddIn\OrgViewData.obj
	.686P
	.XMM
	include listing.inc
	.model	flat

INCLUDELIB MSVCRT
INCLUDELIB OLDNAMES

PUBLIC	?__empty_global_delete@@YAXPAX@Z		; __empty_global_delete
PUBLIC	?__empty_global_delete@@YAXPAXI@Z		; __empty_global_delete
PUBLIC	??1CObject@@UAE@XZ				; CObject::~CObject
PUBLIC	?Serialize@CObject@@UAEXAAVCArchive@@@Z		; CObject::Serialize
PUBLIC	?AssertValid@CObject@@UBEXXZ			; CObject::AssertValid
PUBLIC	?Dump@CObject@@UBEXAAVCDumpContext@@@Z		; CObject::Dump
PUBLIC	??1ILPCSTR135914@@QAE@XZ			; ILPCSTR135914::~ILPCSTR135914
PUBLIC	?Make@CIndiInfoData@@SAPAV1@PAUIGraphInfo135914@@_N@Z ; CIndiInfoData::Make
PUBLIC	?Delete@CIndiInfoData@@SAXPAV1@@Z		; CIndiInfoData::Delete
PUBLIC	??0CIndiInfoData@@QAE@PAUIGraphInfo135914@@_N@Z	; CIndiInfoData::CIndiInfoData
PUBLIC	??1CIndiInfoData@@UAE@XZ			; CIndiInfoData::~CIndiInfoData
PUBLIC	?SetTheBeginning@CIndiInfoData@@QAEX_N@Z	; CIndiInfoData::SetTheBeginning
PUBLIC	?SetIndicatorInfo@CIndiInfoData@@QAEXPAUIGraphInfo135914@@@Z ; CIndiInfoData::SetIndicatorInfo
PUBLIC	?IsTheBeginning@CIndiInfoData@@QBE_NXZ		; CIndiInfoData::IsTheBeginning
PUBLIC	?GetIGraphInfo@CIndiInfoData@@QAEPAUIGraphInfo135914@@XZ ; CIndiInfoData::GetIGraphInfo
PUBLIC	?GetGraphName@CIndiInfoData@@QBE?AV?$CStringT@DV?$StrTraitMFC_DLL@DV?$ChTraitsCRT@D@ATL@@@@@ATL@@XZ ; CIndiInfoData::GetGraphName
PUBLIC	?GetIndicatorName@CIndiInfoData@@QBE?AV?$CStringT@DV?$StrTraitMFC_DLL@DV?$ChTraitsCRT@D@ATL@@@@@ATL@@XZ ; CIndiInfoData::GetIndicatorName
PUBLIC	??_GCIndiInfoData@@UAEPAXI@Z			; CIndiInfoData::`scalar deleting destructor'
PUBLIC	??0CIndiInfoDataList@@QAE@XZ			; CIndiInfoDataList::CIndiInfoDataList
PUBLIC	??1CIndiInfoDataList@@UAE@XZ			; CIndiInfoDataList::~CIndiInfoDataList
PUBLIC	?AddTail@CIndiInfoDataList@@QAE_NPAUIGraphInfo135914@@_N@Z ; CIndiInfoDataList::AddTail
PUBLIC	?DeleteAll@CIndiInfoDataList@@QAEXXZ		; CIndiInfoDataList::DeleteAll
PUBLIC	?ChangeAllIndicatorList@CIndiInfoDataList@@QAE_NPAUIGraphInfoManager135914@@@Z ; CIndiInfoDataList::ChangeAllIndicatorList
PUBLIC	?GetHeadPosition@CIndiInfoDataList@@QBEPAU__POSITION@@XZ ; CIndiInfoDataList::GetHeadPosition
PUBLIC	?GetHeadPosition@CIndiInfoDataList@@QAEPAU__POSITION@@XZ ; CIndiInfoDataList::GetHeadPosition
PUBLIC	?GetTailPosition@CIndiInfoDataList@@QBEPAU__POSITION@@XZ ; CIndiInfoDataList::GetTailPosition
PUBLIC	?GetTailPosition@CIndiInfoDataList@@QAEPAU__POSITION@@XZ ; CIndiInfoDataList::GetTailPosition
PUBLIC	?GetPrev@CIndiInfoDataList@@QBEPAVCIndiInfoData@@AAPAU__POSITION@@@Z ; CIndiInfoDataList::GetPrev
PUBLIC	?GetPrev@CIndiInfoDataList@@QAEPAVCIndiInfoData@@AAPAU__POSITION@@@Z ; CIndiInfoDataList::GetPrev
PUBLIC	?GetNext@CIndiInfoDataList@@QBEPAVCIndiInfoData@@AAPAU__POSITION@@@Z ; CIndiInfoDataList::GetNext
PUBLIC	?GetNext@CIndiInfoDataList@@QAEPAVCIndiInfoData@@AAPAU__POSITION@@@Z ; CIndiInfoDataList::GetNext
PUBLIC	?GetIndiInfoData@CIndiInfoDataList@@QAEPAVCIndiInfoData@@ABV?$CStringT@DV?$StrTraitMFC_DLL@DV?$ChTraitsCRT@D@ATL@@@@@ATL@@@Z ; CIndiInfoDataList::GetIndiInfoData
PUBLIC	?GetIndiInfoInTheBeginning@CIndiInfoDataList@@QBE_NAAV?$CList@PAUIGraphInfo135914@@PAU1@@@@Z ; CIndiInfoDataList::GetIndiInfoInTheBeginning
PUBLIC	?GetIndiInfoIntheSave@CIndiInfoDataList@@QBE_NAAV?$CList@PAUIGraphInfo135914@@PAU1@@@@Z ; CIndiInfoDataList::GetIndiInfoIntheSave
PUBLIC	?IsIndiInfoData@CIndiInfoDataList@@QBE_NPBD@Z	; CIndiInfoDataList::IsIndiInfoData
PUBLIC	??0?$CList@PAVCIndiInfoData@@PAV1@@@QAE@H@Z	; CList<CIndiInfoData *,CIndiInfoData *>::CList<CIndiInfoData *,CIndiInfoData *>
PUBLIC	?AddTail@?$CList@PAVCIndiInfoData@@PAV1@@@QAEPAU__POSITION@@PAVCIndiInfoData@@@Z ; CList<CIndiInfoData *,CIndiInfoData *>::AddTail
PUBLIC	?RemoveAll@?$CList@PAVCIndiInfoData@@PAV1@@@QAEXXZ ; CList<CIndiInfoData *,CIndiInfoData *>::RemoveAll
PUBLIC	?NewNode@?$CList@PAVCIndiInfoData@@PAV1@@@IAEPAUCNode@1@PAU21@0@Z ; CList<CIndiInfoData *,CIndiInfoData *>::NewNode
PUBLIC	??1?$CList@PAVCIndiInfoData@@PAV1@@@UAE@XZ	; CList<CIndiInfoData *,CIndiInfoData *>::~CList<CIndiInfoData *,CIndiInfoData *>
PUBLIC	?Serialize@?$CList@PAVCIndiInfoData@@PAV1@@@UAEXAAVCArchive@@@Z ; CList<CIndiInfoData *,CIndiInfoData *>::Serialize
PUBLIC	??_G?$CList@PAVCIndiInfoData@@PAV1@@@UAEPAXI@Z	; CList<CIndiInfoData *,CIndiInfoData *>::`scalar deleting destructor'
PUBLIC	??_GCIndiInfoDataList@@UAEPAXI@Z		; CIndiInfoDataList::`scalar deleting destructor'
PUBLIC	??0CGraphEtcData@@QAE@XZ			; CGraphEtcData::CGraphEtcData
PUBLIC	??0CGraphEtcData@@QAE@ABV?$CStringT@DV?$StrTraitMFC_DLL@DV?$ChTraitsCRT@D@ATL@@@@@ATL@@_N1@Z ; CGraphEtcData::CGraphEtcData
PUBLIC	?SetFunctionName@CGraphEtcData@@QAEXABV?$CStringT@DV?$StrTraitMFC_DLL@DV?$ChTraitsCRT@D@ATL@@@@@ATL@@@Z ; CGraphEtcData::SetFunctionName
PUBLIC	?SetVertScaleLogType@CGraphEtcData@@QAEX_N@Z	; CGraphEtcData::SetVertScaleLogType
PUBLIC	?SetVertScaleInvertType@CGraphEtcData@@QAEX_N@Z	; CGraphEtcData::SetVertScaleInvertType
PUBLIC	?GetFunctionName@CGraphEtcData@@QBE?AV?$CStringT@DV?$StrTraitMFC_DLL@DV?$ChTraitsCRT@D@ATL@@@@@ATL@@XZ ; CGraphEtcData::GetFunctionName
PUBLIC	?IsVertScaleLogType@CGraphEtcData@@QBE_NXZ	; CGraphEtcData::IsVertScaleLogType
PUBLIC	?IsVertScaleInvertType@CGraphEtcData@@QBE_NXZ	; CGraphEtcData::IsVertScaleInvertType
PUBLIC	??0COrgViewData@@QAE@XZ				; COrgViewData::COrgViewData
PUBLIC	??1COrgViewData@@UAE@XZ				; COrgViewData::~COrgViewData
PUBLIC	?ChangeAllIndicatorList@COrgViewData@@QAE_NPAUIGraphInfoManager135914@@@Z ; COrgViewData::ChangeAllIndicatorList
PUBLIC	?GetIndiInfoInTheBeginning@COrgViewData@@QBE_NAAV?$CList@PAUIGraphInfo135914@@PAU1@@@@Z ; COrgViewData::GetIndiInfoInTheBeginning
PUBLIC	?GetIndiInfoIntheSave@COrgViewData@@QBE_NAAV?$CList@PAUIGraphInfo135914@@PAU1@@@@Z ; COrgViewData::GetIndiInfoIntheSave
PUBLIC	?IsIndicatorInfo@COrgViewData@@QAE_NPAUIGraphInfo135914@@@Z ; COrgViewData::IsIndicatorInfo
PUBLIC	?GetGraphEtcData@COrgViewData@@QAEAAVCGraphEtcData@@XZ ; COrgViewData::GetGraphEtcData
PUBLIC	?GetIndiInfoDataList@COrgViewData@@QAEAAVCIndiInfoDataList@@XZ ; COrgViewData::GetIndiInfoDataList
PUBLIC	?AddTail@COrgViewData@@QAE_NPAUIGraphInfo135914@@_N@Z ; COrgViewData::AddTail
PUBLIC	?Initialize@COrgViewData@@QAEXXZ		; COrgViewData::Initialize
PUBLIC	??_GCOrgViewData@@UAEPAXI@Z			; COrgViewData::`scalar deleting destructor'
PUBLIC	?AddTail@?$CList@PAUIGraphInfo135914@@PAU1@@@QAEPAU__POSITION@@PAUIGraphInfo135914@@@Z ; CList<IGraphInfo135914 *,IGraphInfo135914 *>::AddTail
PUBLIC	?RemoveAll@?$CList@PAUIGraphInfo135914@@PAU1@@@QAEXXZ ; CList<IGraphInfo135914 *,IGraphInfo135914 *>::RemoveAll
PUBLIC	?NewNode@?$CList@PAUIGraphInfo135914@@PAU1@@@IAEPAUCNode@1@PAU21@0@Z ; CList<IGraphInfo135914 *,IGraphInfo135914 *>::NewNode
PUBLIC	??$SerializeElements@PAVCIndiInfoData@@@@YGXAAVCArchive@@PAPAVCIndiInfoData@@H@Z ; SerializeElements<CIndiInfoData *>
PUBLIC	??_C@_00CNPNBAHC@@				; `string'
PUBLIC	??_R0?AVCObject@@@8				; CObject `RTTI Type Descriptor'
PUBLIC	??_R3CObject@@8					; CObject::`RTTI Class Hierarchy Descriptor'
PUBLIC	??_R2CObject@@8					; CObject::`RTTI Base Class Array'
PUBLIC	??_R1A@?0A@EA@CObject@@8			; CObject::`RTTI Base Class Descriptor at (0,-1,0,64)'
PUBLIC	??_7CIndiInfoData@@6B@				; CIndiInfoData::`vftable'
PUBLIC	??_7?$CList@PAVCIndiInfoData@@PAV1@@@6B@	; CList<CIndiInfoData *,CIndiInfoData *>::`vftable'
PUBLIC	??_7CIndiInfoDataList@@6B@			; CIndiInfoDataList::`vftable'
PUBLIC	??_7COrgViewData@@6B@				; COrgViewData::`vftable'
PUBLIC	??_R4CIndiInfoData@@6B@				; CIndiInfoData::`RTTI Complete Object Locator'
PUBLIC	??_R0?AVCIndiInfoData@@@8			; CIndiInfoData `RTTI Type Descriptor'
PUBLIC	??_R3CIndiInfoData@@8				; CIndiInfoData::`RTTI Class Hierarchy Descriptor'
PUBLIC	??_R2CIndiInfoData@@8				; CIndiInfoData::`RTTI Base Class Array'
PUBLIC	??_R1A@?0A@EA@CIndiInfoData@@8			; CIndiInfoData::`RTTI Base Class Descriptor at (0,-1,0,64)'
PUBLIC	??_R4CIndiInfoDataList@@6B@			; CIndiInfoDataList::`RTTI Complete Object Locator'
PUBLIC	??_R0?AVCIndiInfoDataList@@@8			; CIndiInfoDataList `RTTI Type Descriptor'
PUBLIC	??_R3CIndiInfoDataList@@8			; CIndiInfoDataList::`RTTI Class Hierarchy Descriptor'
PUBLIC	??_R2CIndiInfoDataList@@8			; CIndiInfoDataList::`RTTI Base Class Array'
PUBLIC	??_R1A@?0A@EA@CIndiInfoDataList@@8		; CIndiInfoDataList::`RTTI Base Class Descriptor at (0,-1,0,64)'
PUBLIC	??_R4?$CList@PAVCIndiInfoData@@PAV1@@@6B@	; CList<CIndiInfoData *,CIndiInfoData *>::`RTTI Complete Object Locator'
PUBLIC	??_R0?AV?$CList@PAVCIndiInfoData@@PAV1@@@@8	; CList<CIndiInfoData *,CIndiInfoData *> `RTTI Type Descriptor'
PUBLIC	??_R3?$CList@PAVCIndiInfoData@@PAV1@@@8		; CList<CIndiInfoData *,CIndiInfoData *>::`RTTI Class Hierarchy Descriptor'
PUBLIC	??_R2?$CList@PAVCIndiInfoData@@PAV1@@@8		; CList<CIndiInfoData *,CIndiInfoData *>::`RTTI Base Class Array'
PUBLIC	??_R1A@?0A@EA@?$CList@PAVCIndiInfoData@@PAV1@@@8 ; CList<CIndiInfoData *,CIndiInfoData *>::`RTTI Base Class Descriptor at (0,-1,0,64)'
PUBLIC	??_R4COrgViewData@@6B@				; COrgViewData::`RTTI Complete Object Locator'
PUBLIC	??_R0?AVCOrgViewData@@@8			; COrgViewData `RTTI Type Descriptor'
PUBLIC	??_R3COrgViewData@@8				; COrgViewData::`RTTI Class Hierarchy Descriptor'
PUBLIC	??_R2COrgViewData@@8				; COrgViewData::`RTTI Base Class Array'
PUBLIC	??_R1A@?0A@EA@COrgViewData@@8			; COrgViewData::`RTTI Base Class Descriptor at (0,-1,0,64)'
EXTRN	??2@YAPAXI@Z:PROC				; operator new
EXTRN	??3@YAXPAX@Z:PROC				; operator delete
EXTRN	??3@YAXPAXI@Z:PROC				; operator delete
EXTRN	?__global_delete@@YAXPAXI@Z:PROC		; __global_delete
EXTRN	___std_terminate:PROC
EXTRN	?AfxThrowInvalidArgException@@YGXXZ:PROC	; AfxThrowInvalidArgException
EXTRN	?AfxThrowArchiveException@@YGXHPBD@Z:PROC	; AfxThrowArchiveException
EXTRN	?GetRuntimeClass@CObject@@UBEPAUCRuntimeClass@@XZ:PROC ; CObject::GetRuntimeClass
EXTRN	__imp_??0?$CStringT@DV?$StrTraitMFC_DLL@DV?$ChTraitsCRT@D@ATL@@@@@ATL@@QAE@XZ:PROC
EXTRN	__imp_??0?$CStringT@DV?$StrTraitMFC_DLL@DV?$ChTraitsCRT@D@ATL@@@@@ATL@@QAE@ABV01@@Z:PROC
EXTRN	__imp_??0?$CStringT@DV?$StrTraitMFC_DLL@DV?$ChTraitsCRT@D@ATL@@@@@ATL@@QAE@PBD@Z:PROC
EXTRN	__imp_??1?$CStringT@DV?$StrTraitMFC_DLL@DV?$ChTraitsCRT@D@ATL@@@@@ATL@@QAE@XZ:PROC
EXTRN	__imp_??4?$CStringT@DV?$StrTraitMFC_DLL@DV?$ChTraitsCRT@D@ATL@@@@@ATL@@QAEAAV01@ABV01@@Z:PROC
EXTRN	__imp_?Compare@?$CStringT@DV?$StrTraitMFC_DLL@DV?$ChTraitsCRT@D@ATL@@@@@ATL@@QBEHPBD@Z:PROC
EXTRN	?Read@CArchive@@QAEIPAXI@Z:PROC			; CArchive::Read
EXTRN	?Write@CArchive@@QAEXPBXI@Z:PROC		; CArchive::Write
EXTRN	?ReadCount@CArchive@@QAEKXZ:PROC		; CArchive::ReadCount
EXTRN	?WriteCount@CArchive@@QAEXK@Z:PROC		; CArchive::WriteCount
EXTRN	?Create@CPlex@@SGPAU1@AAPAU1@II@Z:PROC		; CPlex::Create
EXTRN	?FreeDataChain@CPlex@@QAEXXZ:PROC		; CPlex::FreeDataChain
EXTRN	??_ECIndiInfoData@@UAEPAXI@Z:PROC		; CIndiInfoData::`vector deleting destructor'
EXTRN	??_E?$CList@PAVCIndiInfoData@@PAV1@@@UAEPAXI@Z:PROC ; CList<CIndiInfoData *,CIndiInfoData *>::`vector deleting destructor'
EXTRN	??_ECIndiInfoDataList@@UAEPAXI@Z:PROC		; CIndiInfoDataList::`vector deleting destructor'
EXTRN	??_ECOrgViewData@@UAEPAXI@Z:PROC		; COrgViewData::`vector deleting destructor'
EXTRN	@__security_check_cookie@4:PROC
EXTRN	___CxxFrameHandler3:PROC
EXTRN	??_7type_info@@6B@:QWORD			; type_info::`vftable'
EXTRN	___security_cookie:DWORD
;	COMDAT ??_R1A@?0A@EA@COrgViewData@@8
rdata$r	SEGMENT
??_R1A@?0A@EA@COrgViewData@@8 DD FLAT:??_R0?AVCOrgViewData@@@8 ; COrgViewData::`RTTI Base Class Descriptor at (0,-1,0,64)'
	DD	00H
	DD	00H
	DD	0ffffffffH
	DD	00H
	DD	040H
	DD	FLAT:??_R3COrgViewData@@8
rdata$r	ENDS
;	COMDAT ??_R2COrgViewData@@8
rdata$r	SEGMENT
??_R2COrgViewData@@8 DD FLAT:??_R1A@?0A@EA@COrgViewData@@8 ; COrgViewData::`RTTI Base Class Array'
rdata$r	ENDS
;	COMDAT ??_R3COrgViewData@@8
rdata$r	SEGMENT
??_R3COrgViewData@@8 DD 00H				; COrgViewData::`RTTI Class Hierarchy Descriptor'
	DD	00H
	DD	01H
	DD	FLAT:??_R2COrgViewData@@8
rdata$r	ENDS
;	COMDAT ??_R0?AVCOrgViewData@@@8
data$rs	SEGMENT
??_R0?AVCOrgViewData@@@8 DD FLAT:??_7type_info@@6B@	; COrgViewData `RTTI Type Descriptor'
	DD	00H
	DB	'.?AVCOrgViewData@@', 00H
data$rs	ENDS
;	COMDAT ??_R4COrgViewData@@6B@
rdata$r	SEGMENT
??_R4COrgViewData@@6B@ DD 00H				; COrgViewData::`RTTI Complete Object Locator'
	DD	00H
	DD	00H
	DD	FLAT:??_R0?AVCOrgViewData@@@8
	DD	FLAT:??_R3COrgViewData@@8
rdata$r	ENDS
;	COMDAT ??_R1A@?0A@EA@?$CList@PAVCIndiInfoData@@PAV1@@@8
rdata$r	SEGMENT
??_R1A@?0A@EA@?$CList@PAVCIndiInfoData@@PAV1@@@8 DD FLAT:??_R0?AV?$CList@PAVCIndiInfoData@@PAV1@@@@8 ; CList<CIndiInfoData *,CIndiInfoData *>::`RTTI Base Class Descriptor at (0,-1,0,64)'
	DD	01H
	DD	00H
	DD	0ffffffffH
	DD	00H
	DD	040H
	DD	FLAT:??_R3?$CList@PAVCIndiInfoData@@PAV1@@@8
rdata$r	ENDS
;	COMDAT ??_R2?$CList@PAVCIndiInfoData@@PAV1@@@8
rdata$r	SEGMENT
??_R2?$CList@PAVCIndiInfoData@@PAV1@@@8 DD FLAT:??_R1A@?0A@EA@?$CList@PAVCIndiInfoData@@PAV1@@@8 ; CList<CIndiInfoData *,CIndiInfoData *>::`RTTI Base Class Array'
	DD	FLAT:??_R1A@?0A@EA@CObject@@8
rdata$r	ENDS
;	COMDAT ??_R3?$CList@PAVCIndiInfoData@@PAV1@@@8
rdata$r	SEGMENT
??_R3?$CList@PAVCIndiInfoData@@PAV1@@@8 DD 00H		; CList<CIndiInfoData *,CIndiInfoData *>::`RTTI Class Hierarchy Descriptor'
	DD	00H
	DD	02H
	DD	FLAT:??_R2?$CList@PAVCIndiInfoData@@PAV1@@@8
rdata$r	ENDS
;	COMDAT ??_R0?AV?$CList@PAVCIndiInfoData@@PAV1@@@@8
data$rs	SEGMENT
??_R0?AV?$CList@PAVCIndiInfoData@@PAV1@@@@8 DD FLAT:??_7type_info@@6B@ ; CList<CIndiInfoData *,CIndiInfoData *> `RTTI Type Descriptor'
	DD	00H
	DB	'.?AV?$CList@PAVCIndiInfoData@@PAV1@@@', 00H
data$rs	ENDS
;	COMDAT ??_R4?$CList@PAVCIndiInfoData@@PAV1@@@6B@
rdata$r	SEGMENT
??_R4?$CList@PAVCIndiInfoData@@PAV1@@@6B@ DD 00H	; CList<CIndiInfoData *,CIndiInfoData *>::`RTTI Complete Object Locator'
	DD	00H
	DD	00H
	DD	FLAT:??_R0?AV?$CList@PAVCIndiInfoData@@PAV1@@@@8
	DD	FLAT:??_R3?$CList@PAVCIndiInfoData@@PAV1@@@8
rdata$r	ENDS
;	COMDAT ??_R1A@?0A@EA@CIndiInfoDataList@@8
rdata$r	SEGMENT
??_R1A@?0A@EA@CIndiInfoDataList@@8 DD FLAT:??_R0?AVCIndiInfoDataList@@@8 ; CIndiInfoDataList::`RTTI Base Class Descriptor at (0,-1,0,64)'
	DD	00H
	DD	00H
	DD	0ffffffffH
	DD	00H
	DD	040H
	DD	FLAT:??_R3CIndiInfoDataList@@8
rdata$r	ENDS
;	COMDAT ??_R2CIndiInfoDataList@@8
rdata$r	SEGMENT
??_R2CIndiInfoDataList@@8 DD FLAT:??_R1A@?0A@EA@CIndiInfoDataList@@8 ; CIndiInfoDataList::`RTTI Base Class Array'
rdata$r	ENDS
;	COMDAT ??_R3CIndiInfoDataList@@8
rdata$r	SEGMENT
??_R3CIndiInfoDataList@@8 DD 00H			; CIndiInfoDataList::`RTTI Class Hierarchy Descriptor'
	DD	00H
	DD	01H
	DD	FLAT:??_R2CIndiInfoDataList@@8
rdata$r	ENDS
;	COMDAT ??_R0?AVCIndiInfoDataList@@@8
data$rs	SEGMENT
??_R0?AVCIndiInfoDataList@@@8 DD FLAT:??_7type_info@@6B@ ; CIndiInfoDataList `RTTI Type Descriptor'
	DD	00H
	DB	'.?AVCIndiInfoDataList@@', 00H
data$rs	ENDS
;	COMDAT ??_R4CIndiInfoDataList@@6B@
rdata$r	SEGMENT
??_R4CIndiInfoDataList@@6B@ DD 00H			; CIndiInfoDataList::`RTTI Complete Object Locator'
	DD	00H
	DD	00H
	DD	FLAT:??_R0?AVCIndiInfoDataList@@@8
	DD	FLAT:??_R3CIndiInfoDataList@@8
rdata$r	ENDS
;	COMDAT ??_R1A@?0A@EA@CIndiInfoData@@8
rdata$r	SEGMENT
??_R1A@?0A@EA@CIndiInfoData@@8 DD FLAT:??_R0?AVCIndiInfoData@@@8 ; CIndiInfoData::`RTTI Base Class Descriptor at (0,-1,0,64)'
	DD	00H
	DD	00H
	DD	0ffffffffH
	DD	00H
	DD	040H
	DD	FLAT:??_R3CIndiInfoData@@8
rdata$r	ENDS
;	COMDAT ??_R2CIndiInfoData@@8
rdata$r	SEGMENT
??_R2CIndiInfoData@@8 DD FLAT:??_R1A@?0A@EA@CIndiInfoData@@8 ; CIndiInfoData::`RTTI Base Class Array'
rdata$r	ENDS
;	COMDAT ??_R3CIndiInfoData@@8
rdata$r	SEGMENT
??_R3CIndiInfoData@@8 DD 00H				; CIndiInfoData::`RTTI Class Hierarchy Descriptor'
	DD	00H
	DD	01H
	DD	FLAT:??_R2CIndiInfoData@@8
rdata$r	ENDS
;	COMDAT ??_R0?AVCIndiInfoData@@@8
data$rs	SEGMENT
??_R0?AVCIndiInfoData@@@8 DD FLAT:??_7type_info@@6B@	; CIndiInfoData `RTTI Type Descriptor'
	DD	00H
	DB	'.?AVCIndiInfoData@@', 00H
data$rs	ENDS
;	COMDAT ??_R4CIndiInfoData@@6B@
rdata$r	SEGMENT
??_R4CIndiInfoData@@6B@ DD 00H				; CIndiInfoData::`RTTI Complete Object Locator'
	DD	00H
	DD	00H
	DD	FLAT:??_R0?AVCIndiInfoData@@@8
	DD	FLAT:??_R3CIndiInfoData@@8
rdata$r	ENDS
;	COMDAT ??_7COrgViewData@@6B@
CONST	SEGMENT
??_7COrgViewData@@6B@ DD FLAT:??_R4COrgViewData@@6B@	; COrgViewData::`vftable'
	DD	FLAT:??_ECOrgViewData@@UAEPAXI@Z
CONST	ENDS
;	COMDAT ??_7CIndiInfoDataList@@6B@
CONST	SEGMENT
??_7CIndiInfoDataList@@6B@ DD FLAT:??_R4CIndiInfoDataList@@6B@ ; CIndiInfoDataList::`vftable'
	DD	FLAT:??_ECIndiInfoDataList@@UAEPAXI@Z
CONST	ENDS
;	COMDAT ??_7?$CList@PAVCIndiInfoData@@PAV1@@@6B@
CONST	SEGMENT
??_7?$CList@PAVCIndiInfoData@@PAV1@@@6B@ DD FLAT:??_R4?$CList@PAVCIndiInfoData@@PAV1@@@6B@ ; CList<CIndiInfoData *,CIndiInfoData *>::`vftable'
	DD	FLAT:?GetRuntimeClass@CObject@@UBEPAUCRuntimeClass@@XZ
	DD	FLAT:??_E?$CList@PAVCIndiInfoData@@PAV1@@@UAEPAXI@Z
	DD	FLAT:?Serialize@?$CList@PAVCIndiInfoData@@PAV1@@@UAEXAAVCArchive@@@Z
	DD	FLAT:?AssertValid@CObject@@UBEXXZ
	DD	FLAT:?Dump@CObject@@UBEXAAVCDumpContext@@@Z
CONST	ENDS
;	COMDAT ??_7CIndiInfoData@@6B@
CONST	SEGMENT
??_7CIndiInfoData@@6B@ DD FLAT:??_R4CIndiInfoData@@6B@	; CIndiInfoData::`vftable'
	DD	FLAT:??_ECIndiInfoData@@UAEPAXI@Z
CONST	ENDS
;	COMDAT ??_R1A@?0A@EA@CObject@@8
rdata$r	SEGMENT
??_R1A@?0A@EA@CObject@@8 DD FLAT:??_R0?AVCObject@@@8	; CObject::`RTTI Base Class Descriptor at (0,-1,0,64)'
	DD	00H
	DD	00H
	DD	0ffffffffH
	DD	00H
	DD	040H
	DD	FLAT:??_R3CObject@@8
rdata$r	ENDS
;	COMDAT ??_R2CObject@@8
rdata$r	SEGMENT
??_R2CObject@@8 DD FLAT:??_R1A@?0A@EA@CObject@@8	; CObject::`RTTI Base Class Array'
rdata$r	ENDS
;	COMDAT ??_R3CObject@@8
rdata$r	SEGMENT
??_R3CObject@@8 DD 00H					; CObject::`RTTI Class Hierarchy Descriptor'
	DD	00H
	DD	01H
	DD	FLAT:??_R2CObject@@8
rdata$r	ENDS
;	COMDAT ??_R0?AVCObject@@@8
data$rs	SEGMENT
??_R0?AVCObject@@@8 DD FLAT:??_7type_info@@6B@		; CObject `RTTI Type Descriptor'
	DD	00H
	DB	'.?AVCObject@@', 00H
data$rs	ENDS
;	COMDAT ??_C@_00CNPNBAHC@@
CONST	SEGMENT
??_C@_00CNPNBAHC@@ DB 00H				; `string'
CONST	ENDS
;	COMDAT xdata$x
xdata$x	SEGMENT
__ehfuncinfo$?AddTail@COrgViewData@@QAE_NPAUIGraphInfo135914@@_N@Z DD 019930522H
	DD	05H
	DD	FLAT:__unwindtable$?AddTail@COrgViewData@@QAE_NPAUIGraphInfo135914@@_N@Z
	DD	2 DUP(00H)
	DD	2 DUP(00H)
	DD	00H
	DD	01H
__unwindtable$?AddTail@COrgViewData@@QAE_NPAUIGraphInfo135914@@_N@Z DD 0ffffffffH
	DD	FLAT:__unwindfunclet$?AddTail@COrgViewData@@QAE_NPAUIGraphInfo135914@@_N@Z$0
	DD	00H
	DD	FLAT:__unwindfunclet$?AddTail@COrgViewData@@QAE_NPAUIGraphInfo135914@@_N@Z$1
	DD	0ffffffffH
	DD	FLAT:___std_terminate
	DD	00H
	DD	FLAT:__unwindfunclet$?AddTail@COrgViewData@@QAE_NPAUIGraphInfo135914@@_N@Z$6
	DD	0ffffffffH
	DD	FLAT:___std_terminate
xdata$x	ENDS
;	COMDAT xdata$x
xdata$x	SEGMENT
__unwindtable$?IsIndicatorInfo@COrgViewData@@QAE_NPAUIGraphInfo135914@@@Z DD 0ffffffffH
	DD	FLAT:__unwindfunclet$?IsIndicatorInfo@COrgViewData@@QAE_NPAUIGraphInfo135914@@@Z$0
	DD	00H
	DD	FLAT:__unwindfunclet$?IsIndicatorInfo@COrgViewData@@QAE_NPAUIGraphInfo135914@@@Z$1
	DD	0ffffffffH
	DD	FLAT:___std_terminate
	DD	0ffffffffH
	DD	FLAT:___std_terminate
__ehfuncinfo$?IsIndicatorInfo@COrgViewData@@QAE_NPAUIGraphInfo135914@@@Z DD 019930522H
	DD	04H
	DD	FLAT:__unwindtable$?IsIndicatorInfo@COrgViewData@@QAE_NPAUIGraphInfo135914@@@Z
	DD	2 DUP(00H)
	DD	2 DUP(00H)
	DD	00H
	DD	01H
xdata$x	ENDS
;	COMDAT xdata$x
xdata$x	SEGMENT
__unwindtable$?ChangeAllIndicatorList@COrgViewData@@QAE_NPAUIGraphInfoManager135914@@@Z DD 0ffffffffH
	DD	FLAT:__unwindfunclet$?ChangeAllIndicatorList@COrgViewData@@QAE_NPAUIGraphInfoManager135914@@@Z$0
	DD	0ffffffffH
	DD	FLAT:___std_terminate
	DD	0ffffffffH
	DD	FLAT:___std_terminate
__ehfuncinfo$?ChangeAllIndicatorList@COrgViewData@@QAE_NPAUIGraphInfoManager135914@@@Z DD 019930522H
	DD	03H
	DD	FLAT:__unwindtable$?ChangeAllIndicatorList@COrgViewData@@QAE_NPAUIGraphInfoManager135914@@@Z
	DD	2 DUP(00H)
	DD	2 DUP(00H)
	DD	00H
	DD	01H
xdata$x	ENDS
;	COMDAT xdata$x
xdata$x	SEGMENT
__unwindtable$??_G?$CList@PAVCIndiInfoData@@PAV1@@@UAEPAXI@Z DD 0ffffffffH
	DD	FLAT:___std_terminate
__ehfuncinfo$??_G?$CList@PAVCIndiInfoData@@PAV1@@@UAEPAXI@Z DD 019930522H
	DD	01H
	DD	FLAT:__unwindtable$??_G?$CList@PAVCIndiInfoData@@PAV1@@@UAEPAXI@Z
	DD	2 DUP(00H)
	DD	2 DUP(00H)
	DD	00H
	DD	05H
xdata$x	ENDS
;	COMDAT xdata$x
xdata$x	SEGMENT
__ehfuncinfo$??1?$CList@PAVCIndiInfoData@@PAV1@@@UAE@XZ DD 019930522H
	DD	00H
	DD	00H
	DD	2 DUP(00H)
	DD	2 DUP(00H)
	DD	00H
	DD	05H
xdata$x	ENDS
;	COMDAT xdata$x
xdata$x	SEGMENT
__unwindtable$?IsIndiInfoData@CIndiInfoDataList@@QBE_NPBD@Z DD 0ffffffffH
	DD	FLAT:__unwindfunclet$?IsIndiInfoData@CIndiInfoDataList@@QBE_NPBD@Z$0
__ehfuncinfo$?IsIndiInfoData@CIndiInfoDataList@@QBE_NPBD@Z DD 019930522H
	DD	01H
	DD	FLAT:__unwindtable$?IsIndiInfoData@CIndiInfoDataList@@QBE_NPBD@Z
	DD	2 DUP(00H)
	DD	2 DUP(00H)
	DD	00H
	DD	01H
xdata$x	ENDS
;	COMDAT xdata$x
xdata$x	SEGMENT
__unwindtable$?GetIndiInfoData@CIndiInfoDataList@@QAEPAVCIndiInfoData@@ABV?$CStringT@DV?$StrTraitMFC_DLL@DV?$ChTraitsCRT@D@ATL@@@@@ATL@@@Z DD 0ffffffffH
	DD	FLAT:__unwindfunclet$?GetIndiInfoData@CIndiInfoDataList@@QAEPAVCIndiInfoData@@ABV?$CStringT@DV?$StrTraitMFC_DLL@DV?$ChTraitsCRT@D@ATL@@@@@ATL@@@Z$0
__ehfuncinfo$?GetIndiInfoData@CIndiInfoDataList@@QAEPAVCIndiInfoData@@ABV?$CStringT@DV?$StrTraitMFC_DLL@DV?$ChTraitsCRT@D@ATL@@@@@ATL@@@Z DD 019930522H
	DD	01H
	DD	FLAT:__unwindtable$?GetIndiInfoData@CIndiInfoDataList@@QAEPAVCIndiInfoData@@ABV?$CStringT@DV?$StrTraitMFC_DLL@DV?$ChTraitsCRT@D@ATL@@@@@ATL@@@Z
	DD	2 DUP(00H)
	DD	2 DUP(00H)
	DD	00H
	DD	01H
xdata$x	ENDS
;	COMDAT xdata$x
xdata$x	SEGMENT
__unwindtable$?ChangeAllIndicatorList@CIndiInfoDataList@@QAE_NPAUIGraphInfoManager135914@@@Z DD 0ffffffffH
	DD	FLAT:__unwindfunclet$?ChangeAllIndicatorList@CIndiInfoDataList@@QAE_NPAUIGraphInfoManager135914@@@Z$0
	DD	0ffffffffH
	DD	FLAT:___std_terminate
	DD	0ffffffffH
	DD	FLAT:___std_terminate
__ehfuncinfo$?ChangeAllIndicatorList@CIndiInfoDataList@@QAE_NPAUIGraphInfoManager135914@@@Z DD 019930522H
	DD	03H
	DD	FLAT:__unwindtable$?ChangeAllIndicatorList@CIndiInfoDataList@@QAE_NPAUIGraphInfoManager135914@@@Z
	DD	2 DUP(00H)
	DD	2 DUP(00H)
	DD	00H
	DD	01H
xdata$x	ENDS
;	COMDAT xdata$x
xdata$x	SEGMENT
__unwindtable$?AddTail@CIndiInfoDataList@@QAE_NPAUIGraphInfo135914@@_N@Z DD 0ffffffffH
	DD	FLAT:__unwindfunclet$?AddTail@CIndiInfoDataList@@QAE_NPAUIGraphInfo135914@@_N@Z$0
	DD	00H
	DD	FLAT:__unwindfunclet$?AddTail@CIndiInfoDataList@@QAE_NPAUIGraphInfo135914@@_N@Z$1
	DD	00H
	DD	FLAT:__unwindfunclet$?AddTail@CIndiInfoDataList@@QAE_NPAUIGraphInfo135914@@_N@Z$5
	DD	0ffffffffH
	DD	FLAT:___std_terminate
__ehfuncinfo$?AddTail@CIndiInfoDataList@@QAE_NPAUIGraphInfo135914@@_N@Z DD 019930522H
	DD	04H
	DD	FLAT:__unwindtable$?AddTail@CIndiInfoDataList@@QAE_NPAUIGraphInfo135914@@_N@Z
	DD	2 DUP(00H)
	DD	2 DUP(00H)
	DD	00H
	DD	01H
xdata$x	ENDS
;	COMDAT xdata$x
xdata$x	SEGMENT
__unwindtable$??1CIndiInfoDataList@@UAE@XZ DD 0ffffffffH
	DD	FLAT:___std_terminate
__ehfuncinfo$??1CIndiInfoDataList@@UAE@XZ DD 019930522H
	DD	01H
	DD	FLAT:__unwindtable$??1CIndiInfoDataList@@UAE@XZ
	DD	2 DUP(00H)
	DD	2 DUP(00H)
	DD	00H
	DD	05H
xdata$x	ENDS
;	COMDAT xdata$x
xdata$x	SEGMENT
__unwindtable$??_GCIndiInfoData@@UAEPAXI@Z DD 0ffffffffH
	DD	FLAT:___std_terminate
__ehfuncinfo$??_GCIndiInfoData@@UAEPAXI@Z DD 019930522H
	DD	01H
	DD	FLAT:__unwindtable$??_GCIndiInfoData@@UAEPAXI@Z
	DD	2 DUP(00H)
	DD	2 DUP(00H)
	DD	00H
	DD	05H
xdata$x	ENDS
;	COMDAT xdata$x
xdata$x	SEGMENT
__unwindtable$?GetIndicatorName@CIndiInfoData@@QBE?AV?$CStringT@DV?$StrTraitMFC_DLL@DV?$ChTraitsCRT@D@ATL@@@@@ATL@@XZ DD 0ffffffffH
	DD	FLAT:__unwindfunclet$?GetIndicatorName@CIndiInfoData@@QBE?AV?$CStringT@DV?$StrTraitMFC_DLL@DV?$ChTraitsCRT@D@ATL@@@@@ATL@@XZ$1
	DD	0ffffffffH
	DD	FLAT:___std_terminate
__ehfuncinfo$?GetIndicatorName@CIndiInfoData@@QBE?AV?$CStringT@DV?$StrTraitMFC_DLL@DV?$ChTraitsCRT@D@ATL@@@@@ATL@@XZ DD 019930522H
	DD	02H
	DD	FLAT:__unwindtable$?GetIndicatorName@CIndiInfoData@@QBE?AV?$CStringT@DV?$StrTraitMFC_DLL@DV?$ChTraitsCRT@D@ATL@@@@@ATL@@XZ
	DD	2 DUP(00H)
	DD	2 DUP(00H)
	DD	00H
	DD	01H
xdata$x	ENDS
;	COMDAT xdata$x
xdata$x	SEGMENT
__unwindtable$?GetGraphName@CIndiInfoData@@QBE?AV?$CStringT@DV?$StrTraitMFC_DLL@DV?$ChTraitsCRT@D@ATL@@@@@ATL@@XZ DD 0ffffffffH
	DD	FLAT:__unwindfunclet$?GetGraphName@CIndiInfoData@@QBE?AV?$CStringT@DV?$StrTraitMFC_DLL@DV?$ChTraitsCRT@D@ATL@@@@@ATL@@XZ$1
	DD	0ffffffffH
	DD	FLAT:___std_terminate
__ehfuncinfo$?GetGraphName@CIndiInfoData@@QBE?AV?$CStringT@DV?$StrTraitMFC_DLL@DV?$ChTraitsCRT@D@ATL@@@@@ATL@@XZ DD 019930522H
	DD	02H
	DD	FLAT:__unwindtable$?GetGraphName@CIndiInfoData@@QBE?AV?$CStringT@DV?$StrTraitMFC_DLL@DV?$ChTraitsCRT@D@ATL@@@@@ATL@@XZ
	DD	2 DUP(00H)
	DD	2 DUP(00H)
	DD	00H
	DD	01H
xdata$x	ENDS
;	COMDAT xdata$x
xdata$x	SEGMENT
__ehfuncinfo$??1CIndiInfoData@@UAE@XZ DD 019930522H
	DD	00H
	DD	00H
	DD	2 DUP(00H)
	DD	2 DUP(00H)
	DD	00H
	DD	05H
xdata$x	ENDS
;	COMDAT xdata$x
xdata$x	SEGMENT
__unwindtable$?Make@CIndiInfoData@@SAPAV1@PAUIGraphInfo135914@@_N@Z DD 0ffffffffH
	DD	FLAT:__unwindfunclet$?Make@CIndiInfoData@@SAPAV1@PAUIGraphInfo135914@@_N@Z$0
__ehfuncinfo$?Make@CIndiInfoData@@SAPAV1@PAUIGraphInfo135914@@_N@Z DD 019930522H
	DD	01H
	DD	FLAT:__unwindtable$?Make@CIndiInfoData@@SAPAV1@PAUIGraphInfo135914@@_N@Z
	DD	2 DUP(00H)
	DD	2 DUP(00H)
	DD	00H
	DD	01H
xdata$x	ENDS
;	COMDAT xdata$x
xdata$x	SEGMENT
__ehfuncinfo$??1ILPCSTR135914@@QAE@XZ DD 019930522H
	DD	00H
	DD	00H
	DD	2 DUP(00H)
	DD	2 DUP(00H)
	DD	00H
	DD	05H
xdata$x	ENDS
; Function compile flags: /Ogtp
; File C:\Program Files (x86)\Microsoft Visual Studio\2019\Community\VC\Tools\MSVC\14.29.30133\atlmfc\include\afxtempl.h
; File C:\Program Files (x86)\Microsoft Visual Studio\2019\Community\VC\Tools\MSVC\14.29.30133\atlmfc\include\afx.inl
; File C:\Program Files (x86)\Microsoft Visual Studio\2019\Community\VC\Tools\MSVC\14.29.30133\atlmfc\include\afxtempl.h
; File C:\Program Files (x86)\Microsoft Visual Studio\2019\Community\VC\Tools\MSVC\14.29.30133\atlmfc\include\afx.inl
; File C:\Program Files (x86)\Microsoft Visual Studio\2019\Community\VC\Tools\MSVC\14.29.30133\atlmfc\include\afxtempl.h
; File C:\Program Files (x86)\Microsoft Visual Studio\2019\Community\VC\Tools\MSVC\14.29.30133\atlmfc\include\afx.inl
; File C:\Program Files (x86)\Microsoft Visual Studio\2019\Community\VC\Tools\MSVC\14.29.30133\atlmfc\include\afxtempl.h
;	COMDAT ??$SerializeElements@PAVCIndiInfoData@@@@YGXAAVCArchive@@PAPAVCIndiInfoData@@H@Z
_TEXT	SEGMENT
_ar$ = 8						; size = 4
_pElements$ = 12					; size = 4
_nCount$ = 16						; size = 4
??$SerializeElements@PAVCIndiInfoData@@@@YGXAAVCArchive@@PAPAVCIndiInfoData@@H@Z PROC ; SerializeElements<CIndiInfoData *>, COMDAT

; 67   : {

  00000	55		 push	 ebp
  00001	8b ec		 mov	 ebp, esp

; 68   : 	ENSURE(nCount == 0 || pElements != NULL);

  00003	8b 4d 0c	 mov	 ecx, DWORD PTR _pElements$[ebp]
  00006	53		 push	 ebx
  00007	56		 push	 esi
  00008	8b 75 10	 mov	 esi, DWORD PTR _nCount$[ebp]
  0000b	57		 push	 edi
  0000c	85 f6		 test	 esi, esi
  0000e	74 08		 je	 SHORT $LN2@SerializeE
  00010	85 c9		 test	 ecx, ecx
  00012	0f 84 89 00 00
	00		 je	 $LN34@SerializeE
$LN2@SerializeE:
; File C:\Program Files (x86)\Microsoft Visual Studio\2019\Community\VC\Tools\MSVC\14.29.30133\atlmfc\include\afx.inl

; 212  : 	{ return (m_nMode & CArchive::load) == 0; }

  00018	8b 55 08	 mov	 edx, DWORD PTR _ar$[ebp]
  0001b	8b 42 18	 mov	 eax, DWORD PTR [edx+24]
  0001e	f7 d0		 not	 eax
  00020	a8 01		 test	 al, 1
; File C:\Program Files (x86)\Microsoft Visual Studio\2019\Community\VC\Tools\MSVC\14.29.30133\atlmfc\include\afxtempl.h

; 73   : 	if (ar.IsStoring())

  00022	74 3c		 je	 SHORT $LN10@SerializeE

; 74   : 	{
; 75   : 		TYPE* pData;
; 76   : 		UINT_PTR nElementsLeft;
; 77   : 
; 78   : 		nElementsLeft = nCount;
; 79   : 		pData = pElements;
; 80   : 		while( nElementsLeft > 0 )

  00024	85 f6		 test	 esi, esi
  00026	74 31		 je	 SHORT $LN8@SerializeE
  00028	0f 1f 84 00 00
	00 00 00	 npad	 8
$LL5@SerializeE:

; 81   : 		{
; 82   : 			UINT nElementsToWrite;
; 83   : 
; 84   : 			nElementsToWrite = UINT(__min(nElementsLeft, INT_MAX/sizeof(TYPE)));

  00030	bb ff ff ff 1f	 mov	 ebx, 536870911		; 1fffffffH
  00035	3b f3		 cmp	 esi, ebx
  00037	0f 42 de	 cmovb	 ebx, esi

; 85   : 			ar.Write(pData, nElementsToWrite*sizeof(TYPE));

  0003a	8d 3c 9d 00 00
	00 00		 lea	 edi, DWORD PTR [ebx*4]
  00041	57		 push	 edi
  00042	51		 push	 ecx
  00043	8b ca		 mov	 ecx, edx
  00045	e8 00 00 00 00	 call	 ?Write@CArchive@@QAEXPBXI@Z ; CArchive::Write

; 86   : 			nElementsLeft -= nElementsToWrite;
; 87   : 			pData += nElementsToWrite;

  0004a	8b 4d 0c	 mov	 ecx, DWORD PTR _pElements$[ebp]
  0004d	8b 55 08	 mov	 edx, DWORD PTR _ar$[ebp]
  00050	03 cf		 add	 ecx, edi
  00052	89 4d 0c	 mov	 DWORD PTR _pElements$[ebp], ecx
  00055	2b f3		 sub	 esi, ebx
  00057	75 d7		 jne	 SHORT $LL5@SerializeE
$LN8@SerializeE:
  00059	5f		 pop	 edi

; 105  : 		}
; 106  : 	}
; 107  : }

  0005a	5e		 pop	 esi
  0005b	5b		 pop	 ebx
  0005c	5d		 pop	 ebp
  0005d	c2 0c 00	 ret	 12			; 0000000cH
$LN10@SerializeE:

; 97   : 		while( nElementsLeft > 0 )

  00060	85 f6		 test	 esi, esi
  00062	74 f5		 je	 SHORT $LN8@SerializeE
$LL7@SerializeE:

; 98   : 		{
; 99   : 			UINT nElementsToRead;
; 100  : 
; 101  : 			nElementsToRead = UINT(__min(nElementsLeft, INT_MAX/sizeof(TYPE)));

  00064	bf ff ff ff 1f	 mov	 edi, 536870911		; 1fffffffH
  00069	3b f7		 cmp	 esi, edi
  0006b	0f 42 fe	 cmovb	 edi, esi

; 102  : 			ar.EnsureRead(pData, nElementsToRead*sizeof(TYPE));

  0006e	8d 1c bd 00 00
	00 00		 lea	 ebx, DWORD PTR [edi*4]
; File C:\Program Files (x86)\Microsoft Visual Studio\2019\Community\VC\Tools\MSVC\14.29.30133\atlmfc\include\afx.inl

; 399  : 	UINT nRead=Read(lpBuf, nCount);

  00075	53		 push	 ebx
  00076	51		 push	 ecx
  00077	8b ca		 mov	 ecx, edx
  00079	e8 00 00 00 00	 call	 ?Read@CArchive@@QAEIPAXI@Z ; CArchive::Read

; 400  : 	if(nRead!=nCount)

  0007e	3b c3		 cmp	 eax, ebx
  00080	75 16		 jne	 SHORT $LN23@SerializeE
; File C:\Program Files (x86)\Microsoft Visual Studio\2019\Community\VC\Tools\MSVC\14.29.30133\atlmfc\include\afxtempl.h

; 97   : 		while( nElementsLeft > 0 )

  00082	8b 4d 0c	 mov	 ecx, DWORD PTR _pElements$[ebp]
  00085	8b 55 08	 mov	 edx, DWORD PTR _ar$[ebp]

; 103  : 			nElementsLeft -= nElementsToRead;
; 104  : 			pData += nElementsToRead;

  00088	03 cb		 add	 ecx, ebx
  0008a	89 4d 0c	 mov	 DWORD PTR _pElements$[ebp], ecx
  0008d	2b f7		 sub	 esi, edi
  0008f	75 d3		 jne	 SHORT $LL7@SerializeE

; 105  : 		}
; 106  : 	}
; 107  : }

  00091	5f		 pop	 edi
  00092	5e		 pop	 esi
  00093	5b		 pop	 ebx
  00094	5d		 pop	 ebp
  00095	c2 0c 00	 ret	 12			; 0000000cH
$LN23@SerializeE:
; File C:\Program Files (x86)\Microsoft Visual Studio\2019\Community\VC\Tools\MSVC\14.29.30133\atlmfc\include\afx.inl

; 402  : 		AfxThrowArchiveException(CArchiveException::endOfFile);

  00098	6a 00		 push	 0
  0009a	6a 03		 push	 3
  0009c	e8 00 00 00 00	 call	 ?AfxThrowArchiveException@@YGXHPBD@Z ; AfxThrowArchiveException
$LN34@SerializeE:
; File C:\Program Files (x86)\Microsoft Visual Studio\2019\Community\VC\Tools\MSVC\14.29.30133\atlmfc\include\afxtempl.h

; 68   : 	ENSURE(nCount == 0 || pElements != NULL);

  000a1	e8 00 00 00 00	 call	 ?AfxThrowInvalidArgException@@YGXXZ ; AfxThrowInvalidArgException
$LN32@SerializeE:
  000a6	cc		 int	 3
??$SerializeElements@PAVCIndiInfoData@@@@YGXAAVCArchive@@PAPAVCIndiInfoData@@H@Z ENDP ; SerializeElements<CIndiInfoData *>
_TEXT	ENDS
; Function compile flags: /Ogtp
; File C:\Program Files (x86)\Microsoft Visual Studio\2019\Community\VC\Tools\MSVC\14.29.30133\atlmfc\include\afxtempl.h
;	COMDAT ?NewNode@?$CList@PAUIGraphInfo135914@@PAU1@@@IAEPAUCNode@1@PAU21@0@Z
_TEXT	SEGMENT
_pPrev$ = 8						; size = 4
_pNext$ = 12						; size = 4
?NewNode@?$CList@PAUIGraphInfo135914@@PAU1@@@IAEPAUCNode@1@PAU21@0@Z PROC ; CList<IGraphInfo135914 *,IGraphInfo135914 *>::NewNode, COMDAT
; _this$ = ecx

; 901  : {

  00000	55		 push	 ebp
  00001	8b ec		 mov	 ebp, esp
  00003	56		 push	 esi
  00004	8b f1		 mov	 esi, ecx

; 902  : 	if (m_pNodeFree == NULL)

  00006	83 7e 10 00	 cmp	 DWORD PTR [esi+16], 0
  0000a	75 34		 jne	 SHORT $LN7@NewNode

; 903  : 	{
; 904  : 		// add another block
; 905  : 		CPlex* pNewBlock = CPlex::Create(m_pBlocks, m_nBlockSize,

  0000c	6a 0c		 push	 12			; 0000000cH
  0000e	ff 76 18	 push	 DWORD PTR [esi+24]
  00011	8d 46 14	 lea	 eax, DWORD PTR [esi+20]
  00014	50		 push	 eax
  00015	e8 00 00 00 00	 call	 ?Create@CPlex@@SGPAU1@AAPAU1@II@Z ; CPlex::Create

; 906  : 				 sizeof(CNode));
; 907  : 
; 908  : 		// chain them into free list
; 909  : 		CNode* pNode = (CNode*) pNewBlock->data();
; 910  : 		// free in reverse order to make it easier to debug
; 911  : 		pNode += m_nBlockSize - 1;

  0001a	8b 56 18	 mov	 edx, DWORD PTR [esi+24]
  0001d	83 c0 08	 add	 eax, 8
  00020	8d 0c 52	 lea	 ecx, DWORD PTR [edx+edx*2]
  00023	8d 04 88	 lea	 eax, DWORD PTR [eax+ecx*4]
  00026	83 c0 f4	 add	 eax, -12		; fffffff4H

; 912  : 		for (INT_PTR i = m_nBlockSize-1; i >= 0; i--, pNode--)

  00029	83 c2 ff	 add	 edx, -1
  0002c	78 12		 js	 SHORT $LN7@NewNode
  0002e	66 90		 npad	 2
$LL4@NewNode:

; 913  : 		{
; 914  : 			pNode->pNext = m_pNodeFree;

  00030	8b 4e 10	 mov	 ecx, DWORD PTR [esi+16]
  00033	89 08		 mov	 DWORD PTR [eax], ecx

; 915  : 			m_pNodeFree = pNode;

  00035	89 46 10	 mov	 DWORD PTR [esi+16], eax
  00038	83 e8 0c	 sub	 eax, 12			; 0000000cH
  0003b	83 ea 01	 sub	 edx, 1
  0003e	79 f0		 jns	 SHORT $LL4@NewNode
$LN7@NewNode:

; 916  : 		}
; 917  : 	}
; 918  : 	ENSURE(m_pNodeFree != NULL);  // we must have something

  00040	8b 46 10	 mov	 eax, DWORD PTR [esi+16]
  00043	85 c0		 test	 eax, eax
  00045	74 18		 je	 SHORT $LN17@NewNode

; 919  : 
; 920  : 	CList::CNode* pNode = m_pNodeFree;
; 921  : 	m_pNodeFree = m_pNodeFree->pNext;

  00047	8b 08		 mov	 ecx, DWORD PTR [eax]
  00049	89 4e 10	 mov	 DWORD PTR [esi+16], ecx

; 922  : 	pNode->pPrev = pPrev;

  0004c	8b 4d 08	 mov	 ecx, DWORD PTR _pPrev$[ebp]
  0004f	89 48 04	 mov	 DWORD PTR [eax+4], ecx

; 923  : 	pNode->pNext = pNext;

  00052	8b 4d 0c	 mov	 ecx, DWORD PTR _pNext$[ebp]
  00055	89 08		 mov	 DWORD PTR [eax], ecx

; 924  : 	m_nCount++;

  00057	ff 46 0c	 inc	 DWORD PTR [esi+12]

; 925  : 	ASSERT(m_nCount > 0);  // make sure we don't overflow
; 926  : 
; 927  : #pragma push_macro("new")
; 928  : #undef new
; 929  : 	::new( (void*)( &pNode->data ) ) TYPE;
; 930  : #pragma pop_macro("new")
; 931  : 	return pNode;

  0005a	5e		 pop	 esi

; 932  : }

  0005b	5d		 pop	 ebp
  0005c	c2 08 00	 ret	 8
$LN17@NewNode:

; 916  : 		}
; 917  : 	}
; 918  : 	ENSURE(m_pNodeFree != NULL);  // we must have something

  0005f	e8 00 00 00 00	 call	 ?AfxThrowInvalidArgException@@YGXXZ ; AfxThrowInvalidArgException
$LN15@NewNode:
  00064	cc		 int	 3
?NewNode@?$CList@PAUIGraphInfo135914@@PAU1@@@IAEPAUCNode@1@PAU21@0@Z ENDP ; CList<IGraphInfo135914 *,IGraphInfo135914 *>::NewNode
_TEXT	ENDS
; Function compile flags: /Ogtp
; File C:\Program Files (x86)\Microsoft Visual Studio\2019\Community\VC\Tools\MSVC\14.29.30133\atlmfc\include\afxtempl.h
;	COMDAT ?RemoveAll@?$CList@PAUIGraphInfo135914@@PAU1@@@QAEXXZ
_TEXT	SEGMENT
?RemoveAll@?$CList@PAUIGraphInfo135914@@PAU1@@@QAEXXZ PROC ; CList<IGraphInfo135914 *,IGraphInfo135914 *>::RemoveAll, COMDAT
; _this$ = ecx

; 862  : {

  00000	56		 push	 esi
  00001	8b f1		 mov	 esi, ecx

; 863  : 	ASSERT_VALID(this);
; 864  : 
; 865  : 	// destroy elements
; 866  : 	CNode* pNode;
; 867  : 	for (pNode = m_pNodeHead; pNode != NULL; pNode = pNode->pNext)
; 868  : 		pNode->data.~TYPE();
; 869  : 
; 870  : 	m_nCount = 0;
; 871  : 	m_pNodeHead = m_pNodeTail = m_pNodeFree = NULL;
; 872  : 	m_pBlocks->FreeDataChain();

  00003	8b 4e 14	 mov	 ecx, DWORD PTR [esi+20]
  00006	c7 46 0c 00 00
	00 00		 mov	 DWORD PTR [esi+12], 0
  0000d	c7 46 10 00 00
	00 00		 mov	 DWORD PTR [esi+16], 0
  00014	c7 46 08 00 00
	00 00		 mov	 DWORD PTR [esi+8], 0
  0001b	c7 46 04 00 00
	00 00		 mov	 DWORD PTR [esi+4], 0
  00022	e8 00 00 00 00	 call	 ?FreeDataChain@CPlex@@QAEXXZ ; CPlex::FreeDataChain

; 873  : 	m_pBlocks = NULL;

  00027	c7 46 14 00 00
	00 00		 mov	 DWORD PTR [esi+20], 0
  0002e	5e		 pop	 esi

; 874  : }

  0002f	c3		 ret	 0
?RemoveAll@?$CList@PAUIGraphInfo135914@@PAU1@@@QAEXXZ ENDP ; CList<IGraphInfo135914 *,IGraphInfo135914 *>::RemoveAll
_TEXT	ENDS
; Function compile flags: /Ogtp
; File C:\Program Files (x86)\Microsoft Visual Studio\2019\Community\VC\Tools\MSVC\14.29.30133\atlmfc\include\afxtempl.h
;	COMDAT ?AddTail@?$CList@PAUIGraphInfo135914@@PAU1@@@QAEPAU__POSITION@@PAUIGraphInfo135914@@@Z
_TEXT	SEGMENT
_newElement$ = 8					; size = 4
?AddTail@?$CList@PAUIGraphInfo135914@@PAU1@@@QAEPAU__POSITION@@PAUIGraphInfo135914@@@Z PROC ; CList<IGraphInfo135914 *,IGraphInfo135914 *>::AddTail, COMDAT
; _this$ = ecx

; 965  : {

  00000	55		 push	 ebp
  00001	8b ec		 mov	 ebp, esp
  00003	56		 push	 esi
  00004	8b f1		 mov	 esi, ecx
  00006	57		 push	 edi

; 902  : 	if (m_pNodeFree == NULL)

  00007	83 7e 10 00	 cmp	 DWORD PTR [esi+16], 0

; 966  : 	ASSERT_VALID(this);
; 967  : 
; 968  : 	CNode* pNewNode = NewNode(m_pNodeTail, NULL);

  0000b	8b 7e 08	 mov	 edi, DWORD PTR [esi+8]

; 902  : 	if (m_pNodeFree == NULL)

  0000e	75 32		 jne	 SHORT $LN11@AddTail

; 903  : 	{
; 904  : 		// add another block
; 905  : 		CPlex* pNewBlock = CPlex::Create(m_pBlocks, m_nBlockSize,

  00010	6a 0c		 push	 12			; 0000000cH
  00012	ff 76 18	 push	 DWORD PTR [esi+24]
  00015	8d 46 14	 lea	 eax, DWORD PTR [esi+20]
  00018	50		 push	 eax
  00019	e8 00 00 00 00	 call	 ?Create@CPlex@@SGPAU1@AAPAU1@II@Z ; CPlex::Create

; 906  : 				 sizeof(CNode));
; 907  : 
; 908  : 		// chain them into free list
; 909  : 		CNode* pNode = (CNode*) pNewBlock->data();
; 910  : 		// free in reverse order to make it easier to debug
; 911  : 		pNode += m_nBlockSize - 1;

  0001e	8b 56 18	 mov	 edx, DWORD PTR [esi+24]
  00021	83 c0 08	 add	 eax, 8
  00024	8d 4a ff	 lea	 ecx, DWORD PTR [edx-1]

; 912  : 		for (INT_PTR i = m_nBlockSize-1; i >= 0; i--, pNode--)

  00027	83 c2 ff	 add	 edx, -1
  0002a	8d 0c 49	 lea	 ecx, DWORD PTR [ecx+ecx*2]
  0002d	8d 0c 88	 lea	 ecx, DWORD PTR [eax+ecx*4]
  00030	78 10		 js	 SHORT $LN11@AddTail
$LL8@AddTail:

; 913  : 		{
; 914  : 			pNode->pNext = m_pNodeFree;

  00032	8b 46 10	 mov	 eax, DWORD PTR [esi+16]
  00035	89 01		 mov	 DWORD PTR [ecx], eax

; 915  : 			m_pNodeFree = pNode;

  00037	89 4e 10	 mov	 DWORD PTR [esi+16], ecx
  0003a	83 e9 0c	 sub	 ecx, 12			; 0000000cH
  0003d	83 ea 01	 sub	 edx, 1
  00040	79 f0		 jns	 SHORT $LL8@AddTail
$LN11@AddTail:

; 916  : 		}
; 917  : 	}
; 918  : 	ENSURE(m_pNodeFree != NULL);  // we must have something

  00042	8b 4e 10	 mov	 ecx, DWORD PTR [esi+16]
  00045	85 c9		 test	 ecx, ecx
  00047	74 39		 je	 SHORT $LN22@AddTail

; 919  : 
; 920  : 	CList::CNode* pNode = m_pNodeFree;
; 921  : 	m_pNodeFree = m_pNodeFree->pNext;

  00049	8b 01		 mov	 eax, DWORD PTR [ecx]
  0004b	89 46 10	 mov	 DWORD PTR [esi+16], eax

; 969  : 	pNewNode->data = newElement;

  0004e	8b 45 08	 mov	 eax, DWORD PTR _newElement$[ebp]

; 922  : 	pNode->pPrev = pPrev;

  00051	89 79 04	 mov	 DWORD PTR [ecx+4], edi

; 923  : 	pNode->pNext = pNext;

  00054	c7 01 00 00 00
	00		 mov	 DWORD PTR [ecx], 0

; 924  : 	m_nCount++;

  0005a	ff 46 0c	 inc	 DWORD PTR [esi+12]

; 969  : 	pNewNode->data = newElement;

  0005d	89 41 08	 mov	 DWORD PTR [ecx+8], eax

; 970  : 	if (m_pNodeTail != NULL)

  00060	8b 46 08	 mov	 eax, DWORD PTR [esi+8]
  00063	85 c0		 test	 eax, eax
  00065	74 0d		 je	 SHORT $LN2@AddTail

; 971  : 		m_pNodeTail->pNext = pNewNode;

  00067	89 08		 mov	 DWORD PTR [eax], ecx

; 972  : 	else
; 973  : 		m_pNodeHead = pNewNode;
; 974  : 	m_pNodeTail = pNewNode;
; 975  : 	return (POSITION) pNewNode;

  00069	8b c1		 mov	 eax, ecx
  0006b	5f		 pop	 edi
  0006c	89 4e 08	 mov	 DWORD PTR [esi+8], ecx
  0006f	5e		 pop	 esi

; 976  : }

  00070	5d		 pop	 ebp
  00071	c2 04 00	 ret	 4
$LN2@AddTail:

; 972  : 	else
; 973  : 		m_pNodeHead = pNewNode;
; 974  : 	m_pNodeTail = pNewNode;
; 975  : 	return (POSITION) pNewNode;

  00074	5f		 pop	 edi
  00075	89 4e 04	 mov	 DWORD PTR [esi+4], ecx
  00078	8b c1		 mov	 eax, ecx
  0007a	89 4e 08	 mov	 DWORD PTR [esi+8], ecx
  0007d	5e		 pop	 esi

; 976  : }

  0007e	5d		 pop	 ebp
  0007f	c2 04 00	 ret	 4
$LN22@AddTail:

; 918  : 	ENSURE(m_pNodeFree != NULL);  // we must have something

  00082	e8 00 00 00 00	 call	 ?AfxThrowInvalidArgException@@YGXXZ ; AfxThrowInvalidArgException
$LN20@AddTail:
  00087	cc		 int	 3
?AddTail@?$CList@PAUIGraphInfo135914@@PAU1@@@QAEPAU__POSITION@@PAUIGraphInfo135914@@@Z ENDP ; CList<IGraphInfo135914 *,IGraphInfo135914 *>::AddTail
_TEXT	ENDS
; Function compile flags: /Ogtp
; File D:\git\src\IBK\IBK_DRFN\ProjSrc\SrcChartEx\ChartAddIn\ChartEnvSetupDlgAddIn\ChartEnvSetupDlgAddIn\OrgViewData.cpp
;	COMDAT ??_GCOrgViewData@@UAEPAXI@Z
_TEXT	SEGMENT
___flags$ = 8						; size = 4
??_GCOrgViewData@@UAEPAXI@Z PROC			; COrgViewData::`scalar deleting destructor', COMDAT
; _this$ = ecx
  00000	55		 push	 ebp
  00001	8b ec		 mov	 ebp, esp

; 347  : {

  00003	56		 push	 esi
  00004	8b f1		 mov	 esi, ecx
  00006	8d 4e 24	 lea	 ecx, DWORD PTR [esi+36]
  00009	c7 06 00 00 00
	00		 mov	 DWORD PTR [esi], OFFSET ??_7COrgViewData@@6B@
  0000f	ff 15 00 00 00
	00		 call	 DWORD PTR __imp_??1?$CStringT@DV?$StrTraitMFC_DLL@DV?$ChTraitsCRT@D@ATL@@@@@ATL@@QAE@XZ

; 348  : 
; 349  : }

  00015	8d 4e 04	 lea	 ecx, DWORD PTR [esi+4]
  00018	e8 00 00 00 00	 call	 ??1CIndiInfoDataList@@UAE@XZ ; CIndiInfoDataList::~CIndiInfoDataList
  0001d	f6 45 08 01	 test	 BYTE PTR ___flags$[ebp], 1
  00021	74 0b		 je	 SHORT $LN10@scalar
  00023	6a 2c		 push	 44			; 0000002cH
  00025	56		 push	 esi
  00026	e8 00 00 00 00	 call	 ??3@YAXPAXI@Z		; operator delete
  0002b	83 c4 08	 add	 esp, 8
$LN10@scalar:
  0002e	8b c6		 mov	 eax, esi
  00030	5e		 pop	 esi
  00031	5d		 pop	 ebp
  00032	c2 04 00	 ret	 4
??_GCOrgViewData@@UAEPAXI@Z ENDP			; COrgViewData::`scalar deleting destructor'
_TEXT	ENDS
; Function compile flags: /Ogtp
; File D:\git\src\IBK\IBK_DRFN\ProjSrc\SrcChartEx\ChartAddIn\ChartEnvSetupDlgAddIn\ChartEnvSetupDlgAddIn\OrgViewData.cpp
; File C:\Program Files (x86)\Microsoft Visual Studio\2019\Community\VC\Tools\MSVC\14.29.30133\atlmfc\include\afxtempl.h
; File D:\git\src\IBK\IBK_DRFN\ProjSrc\SrcChartEx\ChartAddIn\ChartEnvSetupDlgAddIn\ChartEnvSetupDlgAddIn\OrgViewData.cpp
;	COMDAT ?Initialize@COrgViewData@@QAEXXZ
_TEXT	SEGMENT
?Initialize@COrgViewData@@QAEXXZ PROC			; COrgViewData::Initialize, COMDAT
; _this$ = ecx

; 367  : {

  00000	56		 push	 esi

; 114  : 	POSITION pos = m_indiInfoDataList.GetHeadPosition();

  00001	8b 71 0c	 mov	 esi, DWORD PTR [ecx+12]

; 115  : 
; 116  : 	while(pos != NULL)

  00004	85 f6		 test	 esi, esi
  00006	74 13		 je	 SHORT $LN5@Initialize
$LL4@Initialize:

; 23   : 	delete pIndiInfoData;

  00008	8b 4e 08	 mov	 ecx, DWORD PTR [esi+8]
; File C:\Program Files (x86)\Microsoft Visual Studio\2019\Community\VC\Tools\MSVC\14.29.30133\atlmfc\include\afxtempl.h

; 813  : 		rPosition = (POSITION) pNode->pNext;

  0000b	8b 36		 mov	 esi, DWORD PTR [esi]
; File D:\git\src\IBK\IBK_DRFN\ProjSrc\SrcChartEx\ChartAddIn\ChartEnvSetupDlgAddIn\ChartEnvSetupDlgAddIn\OrgViewData.cpp

; 23   : 	delete pIndiInfoData;

  0000d	85 c9		 test	 ecx, ecx
  0000f	74 06		 je	 SHORT $LN11@Initialize
  00011	8b 01		 mov	 eax, DWORD PTR [ecx]
  00013	6a 01		 push	 1
  00015	ff 10		 call	 DWORD PTR [eax]
$LN11@Initialize:

; 116  : 	while(pos != NULL)

  00017	85 f6		 test	 esi, esi
  00019	75 ed		 jne	 SHORT $LL4@Initialize
$LN5@Initialize:
  0001b	5e		 pop	 esi

; 368  : 	m_indiInfoDataList.DeleteAll();
; 369  : }

  0001c	c3		 ret	 0
?Initialize@COrgViewData@@QAEXXZ ENDP			; COrgViewData::Initialize
_TEXT	ENDS
; Function compile flags: /Ogtp
; File D:\git\src\IBK\IBK_DRFN\ProjSrc\SrcChartEx\ChartAddIn\ChartEnvSetupDlgAddIn\ChartEnvSetupDlgAddIn\OrgViewData.cpp
; File D:\git\src\IBK\IBK_DRFN\ProjSrc\SrcChartEx\ChartAddIn\ChartEnvSetupDlgAddIn\Include_AddIn_135914\I135914\_IString.h
; File D:\git\src\IBK\IBK_DRFN\ProjSrc\SrcChartEx\ChartAddIn\ChartEnvSetupDlgAddIn\ChartEnvSetupDlgAddIn\OrgViewData.cpp
; File C:\Program Files (x86)\Microsoft Visual Studio\2019\Community\VC\Tools\MSVC\14.29.30133\atlmfc\include\afxtempl.h
; File D:\git\src\IBK\IBK_DRFN\ProjSrc\SrcChartEx\ChartAddIn\ChartEnvSetupDlgAddIn\ChartEnvSetupDlgAddIn\OrgViewData.cpp
; File C:\Program Files (x86)\Microsoft Visual Studio\2019\Community\VC\Tools\MSVC\14.29.30133\atlmfc\include\cstringt.h
; File D:\git\src\IBK\IBK_DRFN\ProjSrc\SrcChartEx\ChartAddIn\ChartEnvSetupDlgAddIn\ChartEnvSetupDlgAddIn\OrgViewData.cpp
; File C:\Program Files (x86)\Microsoft Visual Studio\2019\Community\VC\Tools\MSVC\14.29.30133\atlmfc\include\cstringt.h
; File D:\git\src\IBK\IBK_DRFN\ProjSrc\SrcChartEx\ChartAddIn\ChartEnvSetupDlgAddIn\ChartEnvSetupDlgAddIn\OrgViewData.cpp
; File C:\Program Files (x86)\Microsoft Visual Studio\2019\Community\VC\Tools\MSVC\14.29.30133\atlmfc\include\cstringt.h
; File D:\git\src\IBK\IBK_DRFN\ProjSrc\SrcChartEx\ChartAddIn\ChartEnvSetupDlgAddIn\ChartEnvSetupDlgAddIn\OrgViewData.cpp
; File D:\git\src\IBK\IBK_DRFN\ProjSrc\SrcChartEx\ChartAddIn\ChartEnvSetupDlgAddIn\Include_AddIn_135914\I135914\_IString.h
; File D:\git\src\IBK\IBK_DRFN\ProjSrc\SrcChartEx\ChartAddIn\ChartEnvSetupDlgAddIn\ChartEnvSetupDlgAddIn\OrgViewData.cpp
; File D:\git\src\IBK\IBK_DRFN\ProjSrc\SrcChartEx\ChartAddIn\ChartEnvSetupDlgAddIn\Include_AddIn_135914\I135914\_IString.h
; File D:\git\src\IBK\IBK_DRFN\ProjSrc\SrcChartEx\ChartAddIn\ChartEnvSetupDlgAddIn\ChartEnvSetupDlgAddIn\OrgViewData.cpp
;	COMDAT ?AddTail@COrgViewData@@QAE_NPAUIGraphInfo135914@@_N@Z
_TEXT	SEGMENT
_szGraphName$2 = -28					; size = 8
$T3 = -20						; size = 4
_this$1$ = -16						; size = 4
__$EHRec$ = -12						; size = 12
$T4 = 8							; size = 4
_p_pIGraphInfo$ = 8					; size = 4
_bTheBeginning$ = 12					; size = 1
?AddTail@COrgViewData@@QAE_NPAUIGraphInfo135914@@_N@Z PROC ; COrgViewData::AddTail, COMDAT
; _this$ = ecx

; 360  : {

  00000	55		 push	 ebp
  00001	8b ec		 mov	 ebp, esp
  00003	6a ff		 push	 -1
  00005	68 00 00 00 00	 push	 __ehhandler$?AddTail@COrgViewData@@QAE_NPAUIGraphInfo135914@@_N@Z
  0000a	64 a1 00 00 00
	00		 mov	 eax, DWORD PTR fs:0
  00010	50		 push	 eax
  00011	83 ec 10	 sub	 esp, 16			; 00000010H
  00014	53		 push	 ebx
  00015	56		 push	 esi
  00016	57		 push	 edi
  00017	a1 00 00 00 00	 mov	 eax, DWORD PTR ___security_cookie
  0001c	33 c5		 xor	 eax, ebp
  0001e	50		 push	 eax
  0001f	8d 45 f4	 lea	 eax, DWORD PTR __$EHRec$[ebp]
  00022	64 a3 00 00 00
	00		 mov	 DWORD PTR fs:0, eax
  00028	89 4d f0	 mov	 DWORD PTR _this$1$[ebp], ecx

; 101  : 	if(p_pIGraphInfo == NULL)

  0002b	8b 7d 08	 mov	 edi, DWORD PTR _p_pIGraphInfo$[ebp]
  0002e	85 ff		 test	 edi, edi
  00030	0f 84 bc 00 00
	00		 je	 $LN40@AddTail

; 105  : 	ILPCSTR szGraphName = p_pIGraphInfo->GetGraphNameString();

  00036	8b 07		 mov	 eax, DWORD PTR [edi]
  00038	8b cf		 mov	 ecx, edi
  0003a	ff 90 a0 00 00
	00		 call	 DWORD PTR [eax+160]
; File D:\git\src\IBK\IBK_DRFN\ProjSrc\SrcChartEx\ChartAddIn\ChartEnvSetupDlgAddIn\Include_AddIn_135914\I135914\_IString.h

; 39   : 		m_pIStrData = p_pIString;	// Do not AddRef(). Because It must be Return Value.

  00040	8b d8		 mov	 ebx, eax
  00042	89 5d e8	 mov	 DWORD PTR _szGraphName$2[ebp+4], ebx

; 40   : 		if( m_pIStrData) m_szData = m_pIStrData->GetData();

  00045	85 db		 test	 ebx, ebx
  00047	74 0b		 je	 SHORT $LN9@AddTail
  00049	8b 13		 mov	 edx, DWORD PTR [ebx]
  0004b	8b cb		 mov	 ecx, ebx
  0004d	ff 52 10	 call	 DWORD PTR [edx+16]
  00050	8b f0		 mov	 esi, eax
  00052	eb 02		 jmp	 SHORT $LN64@AddTail
$LN9@AddTail:

; 41   : 		else m_szData = NULL;

  00054	33 f6		 xor	 esi, esi
$LN64@AddTail:
; File D:\git\src\IBK\IBK_DRFN\ProjSrc\SrcChartEx\ChartAddIn\ChartEnvSetupDlgAddIn\ChartEnvSetupDlgAddIn\OrgViewData.cpp

; 105  : 	ILPCSTR szGraphName = p_pIGraphInfo->GetGraphNameString();

  00056	89 75 e4	 mov	 DWORD PTR _szGraphName$2[ebp], esi
  00059	c7 45 fc 00 00
	00 00		 mov	 DWORD PTR __$EHRec$[ebp+8], 0

; 262  : 	if( !p_szGraphName) return false;

  00060	85 f6		 test	 esi, esi
  00062	74 4b		 je	 SHORT $LN60@AddTail

; 263  : 	if( !*p_szGraphName) return false;

  00064	80 3e 00	 cmp	 BYTE PTR [esi], 0
  00067	74 46		 je	 SHORT $LN60@AddTail

; 264  : 
; 265  : 	POSITION pos = m_indiInfoDataList.GetHeadPosition();

  00069	8b 7d f0	 mov	 edi, DWORD PTR _this$1$[ebp]
  0006c	8b 7f 0c	 mov	 edi, DWORD PTR [edi+12]

; 266  : 	while(pos != NULL)

  0006f	85 ff		 test	 edi, edi
  00071	74 39		 je	 SHORT $LN62@AddTail
$LL13@AddTail:

; 267  : 	{
; 268  : 		CIndiInfoData* pIndiInfoData = m_indiInfoDataList.GetNext(pos);

  00073	8b 4f 08	 mov	 ecx, DWORD PTR [edi+8]
; File C:\Program Files (x86)\Microsoft Visual Studio\2019\Community\VC\Tools\MSVC\14.29.30133\atlmfc\include\afxtempl.h

; 819  : 		rPosition = (POSITION) pNode->pNext;

  00076	8b 3f		 mov	 edi, DWORD PTR [edi]
; File D:\git\src\IBK\IBK_DRFN\ProjSrc\SrcChartEx\ChartAddIn\ChartEnvSetupDlgAddIn\ChartEnvSetupDlgAddIn\OrgViewData.cpp

; 269  : 		if(pIndiInfoData == NULL)

  00078	85 c9		 test	 ecx, ecx
  0007a	74 2c		 je	 SHORT $LN18@AddTail

; 272  : 		if( pIndiInfoData->GetGraphName() == p_szGraphName)

  0007c	8d 45 ec	 lea	 eax, DWORD PTR $T3[ebp]
  0007f	50		 push	 eax
  00080	e8 00 00 00 00	 call	 ?GetGraphName@CIndiInfoData@@QBE?AV?$CStringT@DV?$StrTraitMFC_DLL@DV?$ChTraitsCRT@D@ATL@@@@@ATL@@XZ ; CIndiInfoData::GetGraphName
; File C:\Program Files (x86)\Microsoft Visual Studio\2019\Community\VC\Tools\MSVC\14.29.30133\atlmfc\include\cstringt.h

; 2486 : 		return(str1.Compare(psz2) == 0);

  00085	56		 push	 esi
  00086	8b c8		 mov	 ecx, eax
; File D:\git\src\IBK\IBK_DRFN\ProjSrc\SrcChartEx\ChartAddIn\ChartEnvSetupDlgAddIn\ChartEnvSetupDlgAddIn\OrgViewData.cpp

; 272  : 		if( pIndiInfoData->GetGraphName() == p_szGraphName)

  00088	c6 45 fc 01	 mov	 BYTE PTR __$EHRec$[ebp+8], 1
; File C:\Program Files (x86)\Microsoft Visual Studio\2019\Community\VC\Tools\MSVC\14.29.30133\atlmfc\include\cstringt.h

; 2486 : 		return(str1.Compare(psz2) == 0);

  0008c	ff 15 00 00 00
	00		 call	 DWORD PTR __imp_?Compare@?$CStringT@DV?$StrTraitMFC_DLL@DV?$ChTraitsCRT@D@ATL@@@@@ATL@@QBEHPBD@Z
; File D:\git\src\IBK\IBK_DRFN\ProjSrc\SrcChartEx\ChartAddIn\ChartEnvSetupDlgAddIn\ChartEnvSetupDlgAddIn\OrgViewData.cpp

; 272  : 		if( pIndiInfoData->GetGraphName() == p_szGraphName)

  00092	8d 4d ec	 lea	 ecx, DWORD PTR $T3[ebp]
  00095	c6 45 fc 00	 mov	 BYTE PTR __$EHRec$[ebp+8], 0
; File C:\Program Files (x86)\Microsoft Visual Studio\2019\Community\VC\Tools\MSVC\14.29.30133\atlmfc\include\cstringt.h

; 2486 : 		return(str1.Compare(psz2) == 0);

  00099	8b f0		 mov	 esi, eax
; File D:\git\src\IBK\IBK_DRFN\ProjSrc\SrcChartEx\ChartAddIn\ChartEnvSetupDlgAddIn\ChartEnvSetupDlgAddIn\OrgViewData.cpp

; 272  : 		if( pIndiInfoData->GetGraphName() == p_szGraphName)

  0009b	ff 15 00 00 00
	00		 call	 DWORD PTR __imp_??1?$CStringT@DV?$StrTraitMFC_DLL@DV?$ChTraitsCRT@D@ATL@@@@@ATL@@QAE@XZ
  000a1	85 f6		 test	 esi, esi
  000a3	74 3c		 je	 SHORT $LN59@AddTail
  000a5	8b 75 e4	 mov	 esi, DWORD PTR _szGraphName$2[ebp]
$LN18@AddTail:

; 266  : 	while(pos != NULL)

  000a8	85 ff		 test	 edi, edi
  000aa	75 c7		 jne	 SHORT $LL13@AddTail
$LN62@AddTail:

; 18   : 	return new CIndiInfoData(p_pIGraphInfo, bTheBeginning);

  000ac	8b 7d 08	 mov	 edi, DWORD PTR _p_pIGraphInfo$[ebp]
$LN60@AddTail:
  000af	6a 0c		 push	 12			; 0000000cH
  000b1	e8 00 00 00 00	 call	 ??2@YAPAXI@Z		; operator new
  000b6	8b f0		 mov	 esi, eax
  000b8	83 c4 04	 add	 esp, 4
  000bb	89 75 08	 mov	 DWORD PTR $T4[ebp], esi
  000be	c6 45 fc 03	 mov	 BYTE PTR __$EHRec$[ebp+8], 3
  000c2	85 f6		 test	 esi, esi
  000c4	74 42		 je	 SHORT $LN45@AddTail

; 28   : 	m_bTheBeginning(bTheBeginning)

  000c6	8a 55 0c	 mov	 dl, BYTE PTR _bTheBeginning$[ebp]

; 29   : {
; 30   : 	m_pIGraphInfo = p_pIGraphInfo->CreateCopyObject();

  000c9	8b cf		 mov	 ecx, edi
  000cb	c7 06 00 00 00
	00		 mov	 DWORD PTR [esi], OFFSET ??_7CIndiInfoData@@6B@
  000d1	88 56 04	 mov	 BYTE PTR [esi+4], dl
  000d4	8b 07		 mov	 eax, DWORD PTR [edi]
  000d6	ff 90 bc 00 00
	00		 call	 DWORD PTR [eax+188]
  000dc	89 46 08	 mov	 DWORD PTR [esi+8], eax

; 18   : 	return new CIndiInfoData(p_pIGraphInfo, bTheBeginning);

  000df	eb 29		 jmp	 SHORT $LN46@AddTail
$LN59@AddTail:
; File D:\git\src\IBK\IBK_DRFN\ProjSrc\SrcChartEx\ChartAddIn\ChartEnvSetupDlgAddIn\Include_AddIn_135914\I135914\_IString.h

; 44   : 	{

  000e1	c7 45 fc 02 00
	00 00		 mov	 DWORD PTR __$EHRec$[ebp+8], 2

; 45   : 		if( m_pIStrData)

  000e8	85 db		 test	 ebx, ebx
  000ea	74 06		 je	 SHORT $LN40@AddTail

; 46   : 		{
; 47   : 			m_pIStrData->Release();

  000ec	8b 03		 mov	 eax, DWORD PTR [ebx]
  000ee	53		 push	 ebx
  000ef	ff 50 08	 call	 DWORD PTR [eax+8]
$LN40@AddTail:
; File D:\git\src\IBK\IBK_DRFN\ProjSrc\SrcChartEx\ChartAddIn\ChartEnvSetupDlgAddIn\ChartEnvSetupDlgAddIn\OrgViewData.cpp

; 363  : }

  000f2	32 c0		 xor	 al, al
  000f4	8b 4d f4	 mov	 ecx, DWORD PTR __$EHRec$[ebp]
  000f7	64 89 0d 00 00
	00 00		 mov	 DWORD PTR fs:0, ecx
  000fe	59		 pop	 ecx
  000ff	5f		 pop	 edi
  00100	5e		 pop	 esi
  00101	5b		 pop	 ebx
  00102	8b e5		 mov	 esp, ebp
  00104	5d		 pop	 ebp
  00105	c2 08 00	 ret	 8
$LN45@AddTail:

; 18   : 	return new CIndiInfoData(p_pIGraphInfo, bTheBeginning);

  00108	33 f6		 xor	 esi, esi
$LN46@AddTail:

; 108  : 	m_indiInfoDataList.AddTail( CIndiInfoData::Make(p_pIGraphInfo, bTheBeginning));

  0010a	8b 4d f0	 mov	 ecx, DWORD PTR _this$1$[ebp]
  0010d	56		 push	 esi

; 18   : 	return new CIndiInfoData(p_pIGraphInfo, bTheBeginning);

  0010e	c6 45 fc 00	 mov	 BYTE PTR __$EHRec$[ebp+8], 0

; 108  : 	m_indiInfoDataList.AddTail( CIndiInfoData::Make(p_pIGraphInfo, bTheBeginning));

  00112	8d 49 08	 lea	 ecx, DWORD PTR [ecx+8]
  00115	e8 00 00 00 00	 call	 ?AddTail@?$CList@PAVCIndiInfoData@@PAV1@@@QAEPAU__POSITION@@PAVCIndiInfoData@@@Z ; CList<CIndiInfoData *,CIndiInfoData *>::AddTail
; File D:\git\src\IBK\IBK_DRFN\ProjSrc\SrcChartEx\ChartAddIn\ChartEnvSetupDlgAddIn\Include_AddIn_135914\I135914\_IString.h

; 44   : 	{

  0011a	c7 45 fc 04 00
	00 00		 mov	 DWORD PTR __$EHRec$[ebp+8], 4

; 45   : 		if( m_pIStrData)

  00121	85 db		 test	 ebx, ebx
  00123	74 06		 je	 SHORT $LN51@AddTail

; 46   : 		{
; 47   : 			m_pIStrData->Release();

  00125	8b 03		 mov	 eax, DWORD PTR [ebx]
  00127	53		 push	 ebx
  00128	ff 50 08	 call	 DWORD PTR [eax+8]
$LN51@AddTail:
; File D:\git\src\IBK\IBK_DRFN\ProjSrc\SrcChartEx\ChartAddIn\ChartEnvSetupDlgAddIn\ChartEnvSetupDlgAddIn\OrgViewData.cpp

; 109  : 	return true;

  0012b	b0 01		 mov	 al, 1

; 363  : }

  0012d	8b 4d f4	 mov	 ecx, DWORD PTR __$EHRec$[ebp]
  00130	64 89 0d 00 00
	00 00		 mov	 DWORD PTR fs:0, ecx
  00137	59		 pop	 ecx
  00138	5f		 pop	 edi
  00139	5e		 pop	 esi
  0013a	5b		 pop	 ebx
  0013b	8b e5		 mov	 esp, ebp
  0013d	5d		 pop	 ebp
  0013e	c2 08 00	 ret	 8
_TEXT	ENDS
;	COMDAT text$x
text$x	SEGMENT
__unwindfunclet$?AddTail@COrgViewData@@QAE_NPAUIGraphInfo135914@@_N@Z$0:
  00000	8d 4d e4	 lea	 ecx, DWORD PTR _szGraphName$2[ebp]
  00003	e9 00 00 00 00	 jmp	 ??1ILPCSTR135914@@QAE@XZ ; ILPCSTR135914::~ILPCSTR135914
__unwindfunclet$?AddTail@COrgViewData@@QAE_NPAUIGraphInfo135914@@_N@Z$1:
  00008	8d 4d ec	 lea	 ecx, DWORD PTR $T3[ebp]
  0000b	ff 25 00 00 00
	00		 jmp	 DWORD PTR __imp_??1?$CStringT@DV?$StrTraitMFC_DLL@DV?$ChTraitsCRT@D@ATL@@@@@ATL@@QAE@XZ
__unwindfunclet$?AddTail@COrgViewData@@QAE_NPAUIGraphInfo135914@@_N@Z$6:
  00011	6a 0c		 push	 12			; 0000000cH
  00013	8b 45 08	 mov	 eax, DWORD PTR $T4[ebp]
  00016	50		 push	 eax
  00017	e8 00 00 00 00	 call	 ??3@YAXPAXI@Z		; operator delete
  0001c	83 c4 08	 add	 esp, 8
  0001f	c3		 ret	 0
  00020	cc		 int	 3
  00021	cc		 int	 3
  00022	cc		 int	 3
  00023	cc		 int	 3
  00024	cc		 int	 3
__ehhandler$?AddTail@COrgViewData@@QAE_NPAUIGraphInfo135914@@_N@Z:
  00025	90		 npad	 1
  00026	90		 npad	 1
  00027	8b 54 24 08	 mov	 edx, DWORD PTR [esp+8]
  0002b	8d 42 0c	 lea	 eax, DWORD PTR [edx+12]
  0002e	8b 4a e0	 mov	 ecx, DWORD PTR [edx-32]
  00031	33 c8		 xor	 ecx, eax
  00033	e8 00 00 00 00	 call	 @__security_check_cookie@4
  00038	b8 00 00 00 00	 mov	 eax, OFFSET __ehfuncinfo$?AddTail@COrgViewData@@QAE_NPAUIGraphInfo135914@@_N@Z
  0003d	e9 00 00 00 00	 jmp	 ___CxxFrameHandler3
text$x	ENDS
?AddTail@COrgViewData@@QAE_NPAUIGraphInfo135914@@_N@Z ENDP ; COrgViewData::AddTail
; Function compile flags: /Ogtp
; File D:\git\src\IBK\IBK_DRFN\ProjSrc\SrcChartEx\ChartAddIn\ChartEnvSetupDlgAddIn\ChartEnvSetupDlgAddIn\OrgViewData.cpp
;	COMDAT ?GetIndiInfoDataList@COrgViewData@@QAEAAVCIndiInfoDataList@@XZ
_TEXT	SEGMENT
?GetIndiInfoDataList@COrgViewData@@QAEAAVCIndiInfoDataList@@XZ PROC ; COrgViewData::GetIndiInfoDataList, COMDAT
; _this$ = ecx

; 445  : 	return m_indiInfoDataList;

  00000	8d 41 04	 lea	 eax, DWORD PTR [ecx+4]

; 446  : }

  00003	c3		 ret	 0
?GetIndiInfoDataList@COrgViewData@@QAEAAVCIndiInfoDataList@@XZ ENDP ; COrgViewData::GetIndiInfoDataList
_TEXT	ENDS
; Function compile flags: /Ogtp
; File D:\git\src\IBK\IBK_DRFN\ProjSrc\SrcChartEx\ChartAddIn\ChartEnvSetupDlgAddIn\ChartEnvSetupDlgAddIn\OrgViewData.cpp
;	COMDAT ?GetGraphEtcData@COrgViewData@@QAEAAVCGraphEtcData@@XZ
_TEXT	SEGMENT
?GetGraphEtcData@COrgViewData@@QAEAAVCGraphEtcData@@XZ PROC ; COrgViewData::GetGraphEtcData, COMDAT
; _this$ = ecx

; 433  : 	return m_graphEtcData;

  00000	8d 41 24	 lea	 eax, DWORD PTR [ecx+36]

; 434  : }

  00003	c3		 ret	 0
?GetGraphEtcData@COrgViewData@@QAEAAVCGraphEtcData@@XZ ENDP ; COrgViewData::GetGraphEtcData
_TEXT	ENDS
; Function compile flags: /Ogtp
; File D:\git\src\IBK\IBK_DRFN\ProjSrc\SrcChartEx\ChartAddIn\ChartEnvSetupDlgAddIn\ChartEnvSetupDlgAddIn\OrgViewData.cpp
; File C:\Program Files (x86)\Microsoft Visual Studio\2019\Community\VC\Tools\MSVC\14.29.30133\atlmfc\include\afxtempl.h
; File D:\git\src\IBK\IBK_DRFN\ProjSrc\SrcChartEx\ChartAddIn\ChartEnvSetupDlgAddIn\ChartEnvSetupDlgAddIn\OrgViewData.cpp
; File D:\git\src\IBK\IBK_DRFN\ProjSrc\SrcChartEx\ChartAddIn\ChartEnvSetupDlgAddIn\Include_AddIn_135914\I135914\_IString.h
; File D:\git\src\IBK\IBK_DRFN\ProjSrc\SrcChartEx\ChartAddIn\ChartEnvSetupDlgAddIn\ChartEnvSetupDlgAddIn\OrgViewData.cpp
; File C:\Program Files (x86)\Microsoft Visual Studio\2019\Community\VC\Tools\MSVC\14.29.30133\atlmfc\include\cstringt.h
; File D:\git\src\IBK\IBK_DRFN\ProjSrc\SrcChartEx\ChartAddIn\ChartEnvSetupDlgAddIn\ChartEnvSetupDlgAddIn\OrgViewData.cpp
; File C:\Program Files (x86)\Microsoft Visual Studio\2019\Community\VC\Tools\MSVC\14.29.30133\atlmfc\include\cstringt.h
; File D:\git\src\IBK\IBK_DRFN\ProjSrc\SrcChartEx\ChartAddIn\ChartEnvSetupDlgAddIn\ChartEnvSetupDlgAddIn\OrgViewData.cpp
; File C:\Program Files (x86)\Microsoft Visual Studio\2019\Community\VC\Tools\MSVC\14.29.30133\atlmfc\include\cstringt.h
; File D:\git\src\IBK\IBK_DRFN\ProjSrc\SrcChartEx\ChartAddIn\ChartEnvSetupDlgAddIn\ChartEnvSetupDlgAddIn\OrgViewData.cpp
; File D:\git\src\IBK\IBK_DRFN\ProjSrc\SrcChartEx\ChartAddIn\ChartEnvSetupDlgAddIn\Include_AddIn_135914\I135914\_IString.h
; File D:\git\src\IBK\IBK_DRFN\ProjSrc\SrcChartEx\ChartAddIn\ChartEnvSetupDlgAddIn\ChartEnvSetupDlgAddIn\OrgViewData.cpp
; File D:\git\src\IBK\IBK_DRFN\ProjSrc\SrcChartEx\ChartAddIn\ChartEnvSetupDlgAddIn\Include_AddIn_135914\I135914\_IString.h
; File D:\git\src\IBK\IBK_DRFN\ProjSrc\SrcChartEx\ChartAddIn\ChartEnvSetupDlgAddIn\ChartEnvSetupDlgAddIn\OrgViewData.cpp
;	COMDAT ?IsIndicatorInfo@COrgViewData@@QAE_NPAUIGraphInfo135914@@@Z
_TEXT	SEGMENT
_szGraphName$2 = -28					; size = 8
$T3 = -20						; size = 4
tv253 = -16						; size = 4
__$EHRec$ = -12						; size = 12
_p_pIGraphInfo$ = 8					; size = 4
?IsIndicatorInfo@COrgViewData@@QAE_NPAUIGraphInfo135914@@@Z PROC ; COrgViewData::IsIndicatorInfo, COMDAT
; _this$ = ecx

; 410  : {

  00000	55		 push	 ebp
  00001	8b ec		 mov	 ebp, esp
  00003	6a ff		 push	 -1
  00005	68 00 00 00 00	 push	 __ehhandler$?IsIndicatorInfo@COrgViewData@@QAE_NPAUIGraphInfo135914@@@Z
  0000a	64 a1 00 00 00
	00		 mov	 eax, DWORD PTR fs:0
  00010	50		 push	 eax
  00011	83 ec 10	 sub	 esp, 16			; 00000010H
  00014	53		 push	 ebx
  00015	56		 push	 esi
  00016	57		 push	 edi
  00017	a1 00 00 00 00	 mov	 eax, DWORD PTR ___security_cookie
  0001c	33 c5		 xor	 eax, ebp
  0001e	50		 push	 eax
  0001f	8d 45 f4	 lea	 eax, DWORD PTR __$EHRec$[ebp]
  00022	64 a3 00 00 00
	00		 mov	 DWORD PTR fs:0, eax

; 411  : 	POSITION pos = m_indiInfoDataList.GetHeadPosition();

  00028	8b 59 0c	 mov	 ebx, DWORD PTR [ecx+12]

; 413  : 	while(pos)

  0002b	85 db		 test	 ebx, ebx
  0002d	0f 84 89 00 00
	00		 je	 $LN3@IsIndicato
$LL2@IsIndicato:

; 417  : 		ILPCSTR szGraphName = p_pIGraphInfo->GetGraphNameString();

  00033	8b 4d 08	 mov	 ecx, DWORD PTR _p_pIGraphInfo$[ebp]

; 206  : 	return m_indiInfoDataList.GetNext(pos);

  00036	8b 43 08	 mov	 eax, DWORD PTR [ebx+8]
; File C:\Program Files (x86)\Microsoft Visual Studio\2019\Community\VC\Tools\MSVC\14.29.30133\atlmfc\include\afxtempl.h

; 813  : 		rPosition = (POSITION) pNode->pNext;

  00039	8b 1b		 mov	 ebx, DWORD PTR [ebx]
; File D:\git\src\IBK\IBK_DRFN\ProjSrc\SrcChartEx\ChartAddIn\ChartEnvSetupDlgAddIn\ChartEnvSetupDlgAddIn\OrgViewData.cpp

; 206  : 	return m_indiInfoDataList.GetNext(pos);

  0003b	89 45 f0	 mov	 DWORD PTR tv253[ebp], eax

; 417  : 		ILPCSTR szGraphName = p_pIGraphInfo->GetGraphNameString();

  0003e	8b 01		 mov	 eax, DWORD PTR [ecx]
  00040	ff 90 a0 00 00
	00		 call	 DWORD PTR [eax+160]
; File D:\git\src\IBK\IBK_DRFN\ProjSrc\SrcChartEx\ChartAddIn\ChartEnvSetupDlgAddIn\Include_AddIn_135914\I135914\_IString.h

; 39   : 		m_pIStrData = p_pIString;	// Do not AddRef(). Because It must be Return Value.

  00046	8b f8		 mov	 edi, eax
  00048	89 7d e8	 mov	 DWORD PTR _szGraphName$2[ebp+4], edi

; 40   : 		if( m_pIStrData) m_szData = m_pIStrData->GetData();

  0004b	85 ff		 test	 edi, edi
  0004d	74 0b		 je	 SHORT $LN14@IsIndicato
  0004f	8b 17		 mov	 edx, DWORD PTR [edi]
  00051	8b cf		 mov	 ecx, edi
  00053	ff 52 10	 call	 DWORD PTR [edx+16]
  00056	8b f0		 mov	 esi, eax
  00058	eb 02		 jmp	 SHORT $LN47@IsIndicato
$LN14@IsIndicato:

; 41   : 		else m_szData = NULL;

  0005a	33 f6		 xor	 esi, esi
$LN47@IsIndicato:
; File D:\git\src\IBK\IBK_DRFN\ProjSrc\SrcChartEx\ChartAddIn\ChartEnvSetupDlgAddIn\ChartEnvSetupDlgAddIn\OrgViewData.cpp

; 417  : 		ILPCSTR szGraphName = p_pIGraphInfo->GetGraphNameString();

  0005c	89 75 e4	 mov	 DWORD PTR _szGraphName$2[ebp], esi

; 418  : 		if( pIndiInfoData->GetIndicatorName() == szGraphName) return true;

  0005f	8b 4d f0	 mov	 ecx, DWORD PTR tv253[ebp]
  00062	8d 45 ec	 lea	 eax, DWORD PTR $T3[ebp]
  00065	50		 push	 eax
  00066	c7 45 fc 00 00
	00 00		 mov	 DWORD PTR __$EHRec$[ebp+8], 0
  0006d	e8 00 00 00 00	 call	 ?GetIndicatorName@CIndiInfoData@@QBE?AV?$CStringT@DV?$StrTraitMFC_DLL@DV?$ChTraitsCRT@D@ATL@@@@@ATL@@XZ ; CIndiInfoData::GetIndicatorName
; File C:\Program Files (x86)\Microsoft Visual Studio\2019\Community\VC\Tools\MSVC\14.29.30133\atlmfc\include\cstringt.h

; 2486 : 		return(str1.Compare(psz2) == 0);

  00072	56		 push	 esi
  00073	8b c8		 mov	 ecx, eax
; File D:\git\src\IBK\IBK_DRFN\ProjSrc\SrcChartEx\ChartAddIn\ChartEnvSetupDlgAddIn\ChartEnvSetupDlgAddIn\OrgViewData.cpp

; 418  : 		if( pIndiInfoData->GetIndicatorName() == szGraphName) return true;

  00075	c6 45 fc 01	 mov	 BYTE PTR __$EHRec$[ebp+8], 1
; File C:\Program Files (x86)\Microsoft Visual Studio\2019\Community\VC\Tools\MSVC\14.29.30133\atlmfc\include\cstringt.h

; 2486 : 		return(str1.Compare(psz2) == 0);

  00079	ff 15 00 00 00
	00		 call	 DWORD PTR __imp_?Compare@?$CStringT@DV?$StrTraitMFC_DLL@DV?$ChTraitsCRT@D@ATL@@@@@ATL@@QBEHPBD@Z
; File D:\git\src\IBK\IBK_DRFN\ProjSrc\SrcChartEx\ChartAddIn\ChartEnvSetupDlgAddIn\ChartEnvSetupDlgAddIn\OrgViewData.cpp

; 418  : 		if( pIndiInfoData->GetIndicatorName() == szGraphName) return true;

  0007f	8d 4d ec	 lea	 ecx, DWORD PTR $T3[ebp]
; File C:\Program Files (x86)\Microsoft Visual Studio\2019\Community\VC\Tools\MSVC\14.29.30133\atlmfc\include\cstringt.h

; 2486 : 		return(str1.Compare(psz2) == 0);

  00082	8b f0		 mov	 esi, eax
; File D:\git\src\IBK\IBK_DRFN\ProjSrc\SrcChartEx\ChartAddIn\ChartEnvSetupDlgAddIn\ChartEnvSetupDlgAddIn\OrgViewData.cpp

; 418  : 		if( pIndiInfoData->GetIndicatorName() == szGraphName) return true;

  00084	ff 15 00 00 00
	00		 call	 DWORD PTR __imp_??1?$CStringT@DV?$StrTraitMFC_DLL@DV?$ChTraitsCRT@D@ATL@@@@@ATL@@QAE@XZ
  0008a	85 f6		 test	 esi, esi
  0008c	74 44		 je	 SHORT $LN42@IsIndicato
; File D:\git\src\IBK\IBK_DRFN\ProjSrc\SrcChartEx\ChartAddIn\ChartEnvSetupDlgAddIn\Include_AddIn_135914\I135914\_IString.h

; 44   : 	{

  0008e	c7 45 fc 03 00
	00 00		 mov	 DWORD PTR __$EHRec$[ebp+8], 3

; 45   : 		if( m_pIStrData)

  00095	85 ff		 test	 edi, edi
  00097	74 14		 je	 SHORT $LN38@IsIndicato

; 46   : 		{
; 47   : 			m_pIStrData->Release();

  00099	8b 07		 mov	 eax, DWORD PTR [edi]
  0009b	57		 push	 edi
  0009c	ff 50 08	 call	 DWORD PTR [eax+8]

; 48   : 			m_pIStrData = NULL;

  0009f	c7 45 e8 00 00
	00 00		 mov	 DWORD PTR _szGraphName$2[ebp+4], 0

; 49   : 			m_szData = NULL;

  000a6	c7 45 e4 00 00
	00 00		 mov	 DWORD PTR _szGraphName$2[ebp], 0
$LN38@IsIndicato:

; 50   : 		}
; 51   : 	}

  000ad	c7 45 fc ff ff
	ff ff		 mov	 DWORD PTR __$EHRec$[ebp+8], -1
; File D:\git\src\IBK\IBK_DRFN\ProjSrc\SrcChartEx\ChartAddIn\ChartEnvSetupDlgAddIn\ChartEnvSetupDlgAddIn\OrgViewData.cpp

; 413  : 	while(pos)

  000b4	85 db		 test	 ebx, ebx
  000b6	0f 85 77 ff ff
	ff		 jne	 $LL2@IsIndicato
$LN3@IsIndicato:

; 419  : 	}
; 420  : 
; 421  : 	return false;

  000bc	32 c0		 xor	 al, al

; 422  : }

  000be	8b 4d f4	 mov	 ecx, DWORD PTR __$EHRec$[ebp]
  000c1	64 89 0d 00 00
	00 00		 mov	 DWORD PTR fs:0, ecx
  000c8	59		 pop	 ecx
  000c9	5f		 pop	 edi
  000ca	5e		 pop	 esi
  000cb	5b		 pop	 ebx
  000cc	8b e5		 mov	 esp, ebp
  000ce	5d		 pop	 ebp
  000cf	c2 04 00	 ret	 4
$LN42@IsIndicato:
; File D:\git\src\IBK\IBK_DRFN\ProjSrc\SrcChartEx\ChartAddIn\ChartEnvSetupDlgAddIn\Include_AddIn_135914\I135914\_IString.h

; 44   : 	{

  000d2	c7 45 fc 02 00
	00 00		 mov	 DWORD PTR __$EHRec$[ebp+8], 2

; 45   : 		if( m_pIStrData)

  000d9	85 ff		 test	 edi, edi
  000db	74 06		 je	 SHORT $LN34@IsIndicato

; 46   : 		{
; 47   : 			m_pIStrData->Release();

  000dd	8b 07		 mov	 eax, DWORD PTR [edi]
  000df	57		 push	 edi
  000e0	ff 50 08	 call	 DWORD PTR [eax+8]
$LN34@IsIndicato:
; File D:\git\src\IBK\IBK_DRFN\ProjSrc\SrcChartEx\ChartAddIn\ChartEnvSetupDlgAddIn\ChartEnvSetupDlgAddIn\OrgViewData.cpp

; 418  : 		if( pIndiInfoData->GetIndicatorName() == szGraphName) return true;

  000e3	b0 01		 mov	 al, 1

; 422  : }

  000e5	8b 4d f4	 mov	 ecx, DWORD PTR __$EHRec$[ebp]
  000e8	64 89 0d 00 00
	00 00		 mov	 DWORD PTR fs:0, ecx
  000ef	59		 pop	 ecx
  000f0	5f		 pop	 edi
  000f1	5e		 pop	 esi
  000f2	5b		 pop	 ebx
  000f3	8b e5		 mov	 esp, ebp
  000f5	5d		 pop	 ebp
  000f6	c2 04 00	 ret	 4
_TEXT	ENDS
;	COMDAT text$x
text$x	SEGMENT
__unwindfunclet$?IsIndicatorInfo@COrgViewData@@QAE_NPAUIGraphInfo135914@@@Z$0:
  00000	8d 4d e4	 lea	 ecx, DWORD PTR _szGraphName$2[ebp]
  00003	e9 00 00 00 00	 jmp	 ??1ILPCSTR135914@@QAE@XZ ; ILPCSTR135914::~ILPCSTR135914
__unwindfunclet$?IsIndicatorInfo@COrgViewData@@QAE_NPAUIGraphInfo135914@@@Z$1:
  00008	8d 4d ec	 lea	 ecx, DWORD PTR $T3[ebp]
  0000b	ff 25 00 00 00
	00		 jmp	 DWORD PTR __imp_??1?$CStringT@DV?$StrTraitMFC_DLL@DV?$ChTraitsCRT@D@ATL@@@@@ATL@@QAE@XZ
  00011	cc		 int	 3
  00012	cc		 int	 3
  00013	cc		 int	 3
  00014	cc		 int	 3
  00015	cc		 int	 3
__ehhandler$?IsIndicatorInfo@COrgViewData@@QAE_NPAUIGraphInfo135914@@@Z:
  00016	90		 npad	 1
  00017	90		 npad	 1
  00018	8b 54 24 08	 mov	 edx, DWORD PTR [esp+8]
  0001c	8d 42 0c	 lea	 eax, DWORD PTR [edx+12]
  0001f	8b 4a e0	 mov	 ecx, DWORD PTR [edx-32]
  00022	33 c8		 xor	 ecx, eax
  00024	e8 00 00 00 00	 call	 @__security_check_cookie@4
  00029	b8 00 00 00 00	 mov	 eax, OFFSET __ehfuncinfo$?IsIndicatorInfo@COrgViewData@@QAE_NPAUIGraphInfo135914@@@Z
  0002e	e9 00 00 00 00	 jmp	 ___CxxFrameHandler3
text$x	ENDS
?IsIndicatorInfo@COrgViewData@@QAE_NPAUIGraphInfo135914@@@Z ENDP ; COrgViewData::IsIndicatorInfo
; Function compile flags: /Ogtp
; File D:\git\src\IBK\IBK_DRFN\ProjSrc\SrcChartEx\ChartAddIn\ChartEnvSetupDlgAddIn\ChartEnvSetupDlgAddIn\OrgViewData.cpp
; File C:\Program Files (x86)\Microsoft Visual Studio\2019\Community\VC\Tools\MSVC\14.29.30133\atlmfc\include\afxtempl.h
; File D:\git\src\IBK\IBK_DRFN\ProjSrc\SrcChartEx\ChartAddIn\ChartEnvSetupDlgAddIn\ChartEnvSetupDlgAddIn\OrgViewData.cpp
; File C:\Program Files (x86)\Microsoft Visual Studio\2019\Community\VC\Tools\MSVC\14.29.30133\atlmfc\include\afxtempl.h
; File D:\git\src\IBK\IBK_DRFN\ProjSrc\SrcChartEx\ChartAddIn\ChartEnvSetupDlgAddIn\ChartEnvSetupDlgAddIn\OrgViewData.cpp
; File C:\Program Files (x86)\Microsoft Visual Studio\2019\Community\VC\Tools\MSVC\14.29.30133\atlmfc\include\afxtempl.h
; File D:\git\src\IBK\IBK_DRFN\ProjSrc\SrcChartEx\ChartAddIn\ChartEnvSetupDlgAddIn\ChartEnvSetupDlgAddIn\OrgViewData.cpp
;	COMDAT ?GetIndiInfoIntheSave@COrgViewData@@QBE_NAAV?$CList@PAUIGraphInfo135914@@PAU1@@@@Z
_TEXT	SEGMENT
_indiInfoList$ = 8					; size = 4
?GetIndiInfoIntheSave@COrgViewData@@QBE_NAAV?$CList@PAUIGraphInfo135914@@PAU1@@@@Z PROC ; COrgViewData::GetIndiInfoIntheSave, COMDAT
; _this$ = ecx

; 397  : {

  00000	55		 push	 ebp
  00001	8b ec		 mov	 ebp, esp
  00003	53		 push	 ebx
; File C:\Program Files (x86)\Microsoft Visual Studio\2019\Community\VC\Tools\MSVC\14.29.30133\atlmfc\include\afxtempl.h

; 870  : 	m_nCount = 0;

  00004	8b 5d 08	 mov	 ebx, DWORD PTR _indiInfoList$[ebp]
; File D:\git\src\IBK\IBK_DRFN\ProjSrc\SrcChartEx\ChartAddIn\ChartEnvSetupDlgAddIn\ChartEnvSetupDlgAddIn\OrgViewData.cpp

; 397  : {

  00007	56		 push	 esi
  00008	8b f1		 mov	 esi, ecx
; File C:\Program Files (x86)\Microsoft Visual Studio\2019\Community\VC\Tools\MSVC\14.29.30133\atlmfc\include\afxtempl.h

; 872  : 	m_pBlocks->FreeDataChain();

  0000a	8b 4b 14	 mov	 ecx, DWORD PTR [ebx+20]
  0000d	c7 43 0c 00 00
	00 00		 mov	 DWORD PTR [ebx+12], 0
  00014	c7 43 10 00 00
	00 00		 mov	 DWORD PTR [ebx+16], 0
  0001b	c7 43 08 00 00
	00 00		 mov	 DWORD PTR [ebx+8], 0
  00022	c7 43 04 00 00
	00 00		 mov	 DWORD PTR [ebx+4], 0
  00029	e8 00 00 00 00	 call	 ?FreeDataChain@CPlex@@QAEXXZ ; CPlex::FreeDataChain

; 873  : 	m_pBlocks = NULL;

  0002e	c7 43 14 00 00
	00 00		 mov	 DWORD PTR [ebx+20], 0
; File D:\git\src\IBK\IBK_DRFN\ProjSrc\SrcChartEx\ChartAddIn\ChartEnvSetupDlgAddIn\ChartEnvSetupDlgAddIn\OrgViewData.cpp

; 248  : 	POSITION pos = m_indiInfoDataList.GetHeadPosition();

  00035	8b 76 0c	 mov	 esi, DWORD PTR [esi+12]

; 249  : 	while(pos != NULL)

  00038	85 f6		 test	 esi, esi
  0003a	74 2a		 je	 SHORT $LN5@GetIndiInf
  0003c	57		 push	 edi
  0003d	0f 1f 00	 npad	 3
$LL4@GetIndiInf:

; 250  : 	{
; 251  : 		CIndiInfoData* pIndiInfoData = m_indiInfoDataList.GetNext(pos);

  00040	8b 7e 08	 mov	 edi, DWORD PTR [esi+8]
; File C:\Program Files (x86)\Microsoft Visual Studio\2019\Community\VC\Tools\MSVC\14.29.30133\atlmfc\include\afxtempl.h

; 819  : 		rPosition = (POSITION) pNode->pNext;

  00043	8b 36		 mov	 esi, DWORD PTR [esi]
; File D:\git\src\IBK\IBK_DRFN\ProjSrc\SrcChartEx\ChartAddIn\ChartEnvSetupDlgAddIn\ChartEnvSetupDlgAddIn\OrgViewData.cpp

; 252  : 		if( pIndiInfoData != NULL )

  00045	85 ff		 test	 edi, edi
  00047	74 18		 je	 SHORT $LN6@GetIndiInf

; 65   : 	if( m_pIGraphInfo) m_pIGraphInfo->AddRef();

  00049	8b 4f 08	 mov	 ecx, DWORD PTR [edi+8]
  0004c	85 c9		 test	 ecx, ecx
  0004e	74 09		 je	 SHORT $LN16@GetIndiInf
  00050	8b 01		 mov	 eax, DWORD PTR [ecx]
  00052	51		 push	 ecx
  00053	ff 50 04	 call	 DWORD PTR [eax+4]
  00056	8b 4f 08	 mov	 ecx, DWORD PTR [edi+8]
$LN16@GetIndiInf:

; 253  : 			indiInfoList.AddTail(pIndiInfoData->GetIGraphInfo());

  00059	51		 push	 ecx
  0005a	8b cb		 mov	 ecx, ebx
  0005c	e8 00 00 00 00	 call	 ?AddTail@?$CList@PAUIGraphInfo135914@@PAU1@@@QAEPAU__POSITION@@PAUIGraphInfo135914@@@Z ; CList<IGraphInfo135914 *,IGraphInfo135914 *>::AddTail
$LN6@GetIndiInf:

; 249  : 	while(pos != NULL)

  00061	85 f6		 test	 esi, esi
  00063	75 db		 jne	 SHORT $LL4@GetIndiInf
  00065	5f		 pop	 edi
$LN5@GetIndiInf:

; 254  : 	}
; 255  : 
; 256  : 	return (indiInfoList.GetCount() > 0);

  00066	83 7b 0c 00	 cmp	 DWORD PTR [ebx+12], 0

; 398  : 	return m_indiInfoDataList.GetIndiInfoIntheSave(indiInfoList);

  0006a	5e		 pop	 esi

; 256  : 	return (indiInfoList.GetCount() > 0);

  0006b	0f 9f c0	 setg	 al

; 398  : 	return m_indiInfoDataList.GetIndiInfoIntheSave(indiInfoList);

  0006e	5b		 pop	 ebx

; 399  : }

  0006f	5d		 pop	 ebp
  00070	c2 04 00	 ret	 4
?GetIndiInfoIntheSave@COrgViewData@@QBE_NAAV?$CList@PAUIGraphInfo135914@@PAU1@@@@Z ENDP ; COrgViewData::GetIndiInfoIntheSave
_TEXT	ENDS
; Function compile flags: /Ogtp
; File D:\git\src\IBK\IBK_DRFN\ProjSrc\SrcChartEx\ChartAddIn\ChartEnvSetupDlgAddIn\ChartEnvSetupDlgAddIn\OrgViewData.cpp
; File C:\Program Files (x86)\Microsoft Visual Studio\2019\Community\VC\Tools\MSVC\14.29.30133\atlmfc\include\afxtempl.h
; File D:\git\src\IBK\IBK_DRFN\ProjSrc\SrcChartEx\ChartAddIn\ChartEnvSetupDlgAddIn\ChartEnvSetupDlgAddIn\OrgViewData.cpp
; File C:\Program Files (x86)\Microsoft Visual Studio\2019\Community\VC\Tools\MSVC\14.29.30133\atlmfc\include\afxtempl.h
; File D:\git\src\IBK\IBK_DRFN\ProjSrc\SrcChartEx\ChartAddIn\ChartEnvSetupDlgAddIn\ChartEnvSetupDlgAddIn\OrgViewData.cpp
; File C:\Program Files (x86)\Microsoft Visual Studio\2019\Community\VC\Tools\MSVC\14.29.30133\atlmfc\include\afxtempl.h
; File D:\git\src\IBK\IBK_DRFN\ProjSrc\SrcChartEx\ChartAddIn\ChartEnvSetupDlgAddIn\ChartEnvSetupDlgAddIn\OrgViewData.cpp
;	COMDAT ?GetIndiInfoInTheBeginning@COrgViewData@@QBE_NAAV?$CList@PAUIGraphInfo135914@@PAU1@@@@Z
_TEXT	SEGMENT
_indiInfoList$ = 8					; size = 4
?GetIndiInfoInTheBeginning@COrgViewData@@QBE_NAAV?$CList@PAUIGraphInfo135914@@PAU1@@@@Z PROC ; COrgViewData::GetIndiInfoInTheBeginning, COMDAT
; _this$ = ecx

; 391  : {

  00000	55		 push	 ebp
  00001	8b ec		 mov	 ebp, esp
  00003	53		 push	 ebx
; File C:\Program Files (x86)\Microsoft Visual Studio\2019\Community\VC\Tools\MSVC\14.29.30133\atlmfc\include\afxtempl.h

; 870  : 	m_nCount = 0;

  00004	8b 5d 08	 mov	 ebx, DWORD PTR _indiInfoList$[ebp]
; File D:\git\src\IBK\IBK_DRFN\ProjSrc\SrcChartEx\ChartAddIn\ChartEnvSetupDlgAddIn\ChartEnvSetupDlgAddIn\OrgViewData.cpp

; 391  : {

  00007	56		 push	 esi
  00008	8b f1		 mov	 esi, ecx
; File C:\Program Files (x86)\Microsoft Visual Studio\2019\Community\VC\Tools\MSVC\14.29.30133\atlmfc\include\afxtempl.h

; 872  : 	m_pBlocks->FreeDataChain();

  0000a	8b 4b 14	 mov	 ecx, DWORD PTR [ebx+20]
  0000d	c7 43 0c 00 00
	00 00		 mov	 DWORD PTR [ebx+12], 0
  00014	c7 43 10 00 00
	00 00		 mov	 DWORD PTR [ebx+16], 0
  0001b	c7 43 08 00 00
	00 00		 mov	 DWORD PTR [ebx+8], 0
  00022	c7 43 04 00 00
	00 00		 mov	 DWORD PTR [ebx+4], 0
  00029	e8 00 00 00 00	 call	 ?FreeDataChain@CPlex@@QAEXXZ ; CPlex::FreeDataChain

; 873  : 	m_pBlocks = NULL;

  0002e	c7 43 14 00 00
	00 00		 mov	 DWORD PTR [ebx+20], 0
; File D:\git\src\IBK\IBK_DRFN\ProjSrc\SrcChartEx\ChartAddIn\ChartEnvSetupDlgAddIn\ChartEnvSetupDlgAddIn\OrgViewData.cpp

; 230  : 	POSITION pos = m_indiInfoDataList.GetHeadPosition();

  00035	8b 76 0c	 mov	 esi, DWORD PTR [esi+12]

; 231  : 	while(pos != NULL)

  00038	85 f6		 test	 esi, esi
  0003a	74 2c		 je	 SHORT $LN5@GetIndiInf
  0003c	57		 push	 edi
  0003d	0f 1f 00	 npad	 3
$LL4@GetIndiInf:

; 232  : 	{
; 233  : 		CIndiInfoData* pIndiInfoData = m_indiInfoDataList.GetNext(pos);

  00040	8b 7e 08	 mov	 edi, DWORD PTR [esi+8]
; File C:\Program Files (x86)\Microsoft Visual Studio\2019\Community\VC\Tools\MSVC\14.29.30133\atlmfc\include\afxtempl.h

; 819  : 		rPosition = (POSITION) pNode->pNext;

  00043	8b 36		 mov	 esi, DWORD PTR [esi]
; File D:\git\src\IBK\IBK_DRFN\ProjSrc\SrcChartEx\ChartAddIn\ChartEnvSetupDlgAddIn\ChartEnvSetupDlgAddIn\OrgViewData.cpp

; 235  : 		if(pIndiInfoData->IsTheBeginning())

  00045	80 7f 04 00	 cmp	 BYTE PTR [edi+4], 0
  00049	74 18		 je	 SHORT $LN6@GetIndiInf

; 65   : 	if( m_pIGraphInfo) m_pIGraphInfo->AddRef();

  0004b	8b 4f 08	 mov	 ecx, DWORD PTR [edi+8]
  0004e	85 c9		 test	 ecx, ecx
  00050	74 09		 je	 SHORT $LN16@GetIndiInf
  00052	8b 01		 mov	 eax, DWORD PTR [ecx]
  00054	51		 push	 ecx
  00055	ff 50 04	 call	 DWORD PTR [eax+4]
  00058	8b 4f 08	 mov	 ecx, DWORD PTR [edi+8]
$LN16@GetIndiInf:

; 236  : 			indiInfoList.AddTail(pIndiInfoData->GetIGraphInfo());

  0005b	51		 push	 ecx
  0005c	8b cb		 mov	 ecx, ebx
  0005e	e8 00 00 00 00	 call	 ?AddTail@?$CList@PAUIGraphInfo135914@@PAU1@@@QAEPAU__POSITION@@PAUIGraphInfo135914@@@Z ; CList<IGraphInfo135914 *,IGraphInfo135914 *>::AddTail
$LN6@GetIndiInf:

; 231  : 	while(pos != NULL)

  00063	85 f6		 test	 esi, esi
  00065	75 d9		 jne	 SHORT $LL4@GetIndiInf
  00067	5f		 pop	 edi
$LN5@GetIndiInf:

; 237  : 	}
; 238  : 
; 239  : 	return (indiInfoList.GetCount() > 0);

  00068	83 7b 0c 00	 cmp	 DWORD PTR [ebx+12], 0

; 392  : 	return m_indiInfoDataList.GetIndiInfoInTheBeginning(indiInfoList);

  0006c	5e		 pop	 esi

; 239  : 	return (indiInfoList.GetCount() > 0);

  0006d	0f 9f c0	 setg	 al

; 392  : 	return m_indiInfoDataList.GetIndiInfoInTheBeginning(indiInfoList);

  00070	5b		 pop	 ebx

; 393  : }

  00071	5d		 pop	 ebp
  00072	c2 04 00	 ret	 4
?GetIndiInfoInTheBeginning@COrgViewData@@QBE_NAAV?$CList@PAUIGraphInfo135914@@PAU1@@@@Z ENDP ; COrgViewData::GetIndiInfoInTheBeginning
_TEXT	ENDS
; Function compile flags: /Ogtp
; File D:\git\src\IBK\IBK_DRFN\ProjSrc\SrcChartEx\ChartAddIn\ChartEnvSetupDlgAddIn\ChartEnvSetupDlgAddIn\OrgViewData.cpp
; File C:\Program Files (x86)\Microsoft Visual Studio\2019\Community\VC\Tools\MSVC\14.29.30133\atlmfc\include\afxtempl.h
; File D:\git\src\IBK\IBK_DRFN\ProjSrc\SrcChartEx\ChartAddIn\ChartEnvSetupDlgAddIn\ChartEnvSetupDlgAddIn\OrgViewData.cpp
; File D:\git\src\IBK\IBK_DRFN\ProjSrc\SrcChartEx\ChartAddIn\ChartEnvSetupDlgAddIn\Include_AddIn_135914\I135914\_IString.h
; File D:\git\src\IBK\IBK_DRFN\ProjSrc\SrcChartEx\ChartAddIn\ChartEnvSetupDlgAddIn\ChartEnvSetupDlgAddIn\OrgViewData.cpp
; File D:\git\src\IBK\IBK_DRFN\ProjSrc\SrcChartEx\ChartAddIn\ChartEnvSetupDlgAddIn\Include_AddIn_135914\I135914\_IString.h
; File D:\git\src\IBK\IBK_DRFN\ProjSrc\SrcChartEx\ChartAddIn\ChartEnvSetupDlgAddIn\ChartEnvSetupDlgAddIn\OrgViewData.cpp
; File D:\git\src\IBK\IBK_DRFN\ProjSrc\SrcChartEx\ChartAddIn\ChartEnvSetupDlgAddIn\Include_AddIn_135914\I135914\_IString.h
; File D:\git\src\IBK\IBK_DRFN\ProjSrc\SrcChartEx\ChartAddIn\ChartEnvSetupDlgAddIn\ChartEnvSetupDlgAddIn\OrgViewData.cpp
;	COMDAT ?ChangeAllIndicatorList@COrgViewData@@QAE_NPAUIGraphInfoManager135914@@@Z
_TEXT	SEGMENT
_szGraphName$2 = -28					; size = 8
_pTargetIndicatorInfo$1$ = -20				; size = 4
tv322 = -16						; size = 4
__$EHRec$ = -12						; size = 12
_p_pIGraphInfoManager$ = 8				; size = 4
?ChangeAllIndicatorList@COrgViewData@@QAE_NPAUIGraphInfoManager135914@@@Z PROC ; COrgViewData::ChangeAllIndicatorList, COMDAT
; _this$ = ecx

; 379  : {

  00000	55		 push	 ebp
  00001	8b ec		 mov	 ebp, esp
  00003	6a ff		 push	 -1
  00005	68 00 00 00 00	 push	 __ehhandler$?ChangeAllIndicatorList@COrgViewData@@QAE_NPAUIGraphInfoManager135914@@@Z
  0000a	64 a1 00 00 00
	00		 mov	 eax, DWORD PTR fs:0
  00010	50		 push	 eax
  00011	83 ec 10	 sub	 esp, 16			; 00000010H
  00014	53		 push	 ebx
  00015	56		 push	 esi
  00016	57		 push	 edi
  00017	a1 00 00 00 00	 mov	 eax, DWORD PTR ___security_cookie
  0001c	33 c5		 xor	 eax, ebp
  0001e	50		 push	 eax
  0001f	8d 45 f4	 lea	 eax, DWORD PTR __$EHRec$[ebp]
  00022	64 a3 00 00 00
	00		 mov	 DWORD PTR fs:0, eax

; 125  : 	if(p_pIGraphInfoManager == NULL)

  00028	32 c0		 xor	 al, al
  0002a	83 7d 08 00	 cmp	 DWORD PTR _p_pIGraphInfoManager$[ebp], 0
  0002e	0f 84 d9 00 00
	00		 je	 $LN3@ChangeAllI

; 126  : 		return false;
; 127  : 
; 128  : 	bool bResult = false;
; 129  : 	IGraphInfo* pSourceIndicatorInfo = NULL;
; 130  : 	IGraphInfo* pTargetIndicatorInfo = NULL;
; 131  : 	POSITION pos = m_indiInfoDataList.GetHeadPosition();

  00034	8b 59 0c	 mov	 ebx, DWORD PTR [ecx+12]
  00037	89 45 f0	 mov	 DWORD PTR tv322[ebp], eax

; 132  : 	while(pos != NULL)

  0003a	85 db		 test	 ebx, ebx
  0003c	0f 84 cb 00 00
	00		 je	 $LN3@ChangeAllI
$LL4@ChangeAllI:

; 65   : 	if( m_pIGraphInfo) m_pIGraphInfo->AddRef();

  00042	8b 7b 08	 mov	 edi, DWORD PTR [ebx+8]
; File C:\Program Files (x86)\Microsoft Visual Studio\2019\Community\VC\Tools\MSVC\14.29.30133\atlmfc\include\afxtempl.h

; 813  : 		rPosition = (POSITION) pNode->pNext;

  00045	8b 1b		 mov	 ebx, DWORD PTR [ebx]
; File D:\git\src\IBK\IBK_DRFN\ProjSrc\SrcChartEx\ChartAddIn\ChartEnvSetupDlgAddIn\ChartEnvSetupDlgAddIn\OrgViewData.cpp

; 65   : 	if( m_pIGraphInfo) m_pIGraphInfo->AddRef();

  00047	8b 77 08	 mov	 esi, DWORD PTR [edi+8]
  0004a	85 f6		 test	 esi, esi
  0004c	0f 84 b0 00 00
	00		 je	 $LN32@ChangeAllI
  00052	8b 06		 mov	 eax, DWORD PTR [esi]
  00054	56		 push	 esi
  00055	ff 50 04	 call	 DWORD PTR [eax+4]
  00058	8b 77 08	 mov	 esi, DWORD PTR [edi+8]

; 138  : 		if( !pSourceIndicatorInfo) continue;

  0005b	85 f6		 test	 esi, esi
  0005d	0f 84 9f 00 00
	00		 je	 $LN32@ChangeAllI

; 140  : 		ILPCSTR szGraphName = pSourceIndicatorInfo->GetGraphNameString();

  00063	8b 06		 mov	 eax, DWORD PTR [esi]
  00065	8b ce		 mov	 ecx, esi
  00067	ff 90 a0 00 00
	00		 call	 DWORD PTR [eax+160]
; File D:\git\src\IBK\IBK_DRFN\ProjSrc\SrcChartEx\ChartAddIn\ChartEnvSetupDlgAddIn\Include_AddIn_135914\I135914\_IString.h

; 39   : 		m_pIStrData = p_pIString;	// Do not AddRef(). Because It must be Return Value.

  0006d	8b f8		 mov	 edi, eax
  0006f	89 7d e8	 mov	 DWORD PTR _szGraphName$2[ebp+4], edi

; 40   : 		if( m_pIStrData) m_szData = m_pIStrData->GetData();

  00072	85 ff		 test	 edi, edi
  00074	74 0b		 je	 SHORT $LN18@ChangeAllI
  00076	8b 17		 mov	 edx, DWORD PTR [edi]
  00078	8b cf		 mov	 ecx, edi
  0007a	ff 52 10	 call	 DWORD PTR [edx+16]
  0007d	8b c8		 mov	 ecx, eax
  0007f	eb 02		 jmp	 SHORT $LN38@ChangeAllI
$LN18@ChangeAllI:

; 41   : 		else m_szData = NULL;

  00081	33 c9		 xor	 ecx, ecx
$LN38@ChangeAllI:
; File D:\git\src\IBK\IBK_DRFN\ProjSrc\SrcChartEx\ChartAddIn\ChartEnvSetupDlgAddIn\ChartEnvSetupDlgAddIn\OrgViewData.cpp

; 140  : 		ILPCSTR szGraphName = pSourceIndicatorInfo->GetGraphNameString();

  00083	89 4d e4	 mov	 DWORD PTR _szGraphName$2[ebp], ecx

; 141  : 		pTargetIndicatorInfo = p_pIGraphInfoManager->GetGraphInfo( IGraphInfoManager::IEILT_USER, szGraphName);

  00086	8b 55 08	 mov	 edx, DWORD PTR _p_pIGraphInfoManager$[ebp]
  00089	51		 push	 ecx
  0008a	6a 03		 push	 3
  0008c	8b ca		 mov	 ecx, edx
  0008e	c7 45 fc 00 00
	00 00		 mov	 DWORD PTR __$EHRec$[ebp+8], 0
  00095	8b 02		 mov	 eax, DWORD PTR [edx]
  00097	ff 50 14	 call	 DWORD PTR [eax+20]
  0009a	8b c8		 mov	 ecx, eax
  0009c	89 4d ec	 mov	 DWORD PTR _pTargetIndicatorInfo$1$[ebp], ecx

; 142  : 		if( !pTargetIndicatorInfo) 

  0009f	56		 push	 esi
  000a0	85 c9		 test	 ecx, ecx
  000a2	75 0e		 jne	 SHORT $LN8@ChangeAllI

; 143  : 		{
; 144  : 			pSourceIndicatorInfo->Release();

  000a4	8b 06		 mov	 eax, DWORD PTR [esi]
  000a6	ff 50 08	 call	 DWORD PTR [eax+8]
; File D:\git\src\IBK\IBK_DRFN\ProjSrc\SrcChartEx\ChartAddIn\ChartEnvSetupDlgAddIn\Include_AddIn_135914\I135914\_IString.h

; 44   : 	{

  000a9	c7 45 fc 01 00
	00 00		 mov	 DWORD PTR __$EHRec$[ebp+8], 1
; File D:\git\src\IBK\IBK_DRFN\ProjSrc\SrcChartEx\ChartAddIn\ChartEnvSetupDlgAddIn\ChartEnvSetupDlgAddIn\OrgViewData.cpp

; 145  : 			continue;

  000b0	eb 31		 jmp	 SHORT $LN41@ChangeAllI
$LN8@ChangeAllI:

; 146  : 		}
; 147  : 
; 148  : 		if( pTargetIndicatorInfo->GetCopyDataFrom( pSourceIndicatorInfo)) bResult = true;

  000b2	8b 01		 mov	 eax, DWORD PTR [ecx]
  000b4	ff 90 c0 00 00
	00		 call	 DWORD PTR [eax+192]
  000ba	8b 4d f0	 mov	 ecx, DWORD PTR tv322[ebp]
  000bd	85 c0		 test	 eax, eax
  000bf	0f b6 c9	 movzx	 ecx, cl
  000c2	b8 01 00 00 00	 mov	 eax, 1
  000c7	0f 45 c8	 cmovne	 ecx, eax
  000ca	89 4d f0	 mov	 DWORD PTR tv322[ebp], ecx

; 149  : 		pTargetIndicatorInfo->Release();

  000cd	8b 4d ec	 mov	 ecx, DWORD PTR _pTargetIndicatorInfo$1$[ebp]
  000d0	51		 push	 ecx
  000d1	8b 01		 mov	 eax, DWORD PTR [ecx]
  000d3	ff 50 08	 call	 DWORD PTR [eax+8]

; 150  : 		pSourceIndicatorInfo->Release();

  000d6	8b 06		 mov	 eax, DWORD PTR [esi]
  000d8	56		 push	 esi
  000d9	ff 50 08	 call	 DWORD PTR [eax+8]
; File D:\git\src\IBK\IBK_DRFN\ProjSrc\SrcChartEx\ChartAddIn\ChartEnvSetupDlgAddIn\Include_AddIn_135914\I135914\_IString.h

; 44   : 	{

  000dc	c7 45 fc 02 00
	00 00		 mov	 DWORD PTR __$EHRec$[ebp+8], 2
$LN41@ChangeAllI:
; File D:\git\src\IBK\IBK_DRFN\ProjSrc\SrcChartEx\ChartAddIn\ChartEnvSetupDlgAddIn\ChartEnvSetupDlgAddIn\OrgViewData.cpp

; 132  : 	while(pos != NULL)

  000e3	85 ff		 test	 edi, edi
  000e5	74 14		 je	 SHORT $LN26@ChangeAllI
  000e7	8b 07		 mov	 eax, DWORD PTR [edi]
  000e9	57		 push	 edi
  000ea	ff 50 08	 call	 DWORD PTR [eax+8]
  000ed	c7 45 e8 00 00
	00 00		 mov	 DWORD PTR _szGraphName$2[ebp+4], 0
  000f4	c7 45 e4 00 00
	00 00		 mov	 DWORD PTR _szGraphName$2[ebp], 0
$LN26@ChangeAllI:
  000fb	c7 45 fc ff ff
	ff ff		 mov	 DWORD PTR __$EHRec$[ebp+8], -1
$LN32@ChangeAllI:
  00102	85 db		 test	 ebx, ebx
  00104	0f 85 38 ff ff
	ff		 jne	 $LL4@ChangeAllI
  0010a	8b 45 f0	 mov	 eax, DWORD PTR tv322[ebp]
$LN3@ChangeAllI:

; 380  : 	return m_indiInfoDataList.ChangeAllIndicatorList(p_pIGraphInfoManager);
; 381  : }

  0010d	8b 4d f4	 mov	 ecx, DWORD PTR __$EHRec$[ebp]
  00110	64 89 0d 00 00
	00 00		 mov	 DWORD PTR fs:0, ecx
  00117	59		 pop	 ecx
  00118	5f		 pop	 edi
  00119	5e		 pop	 esi
  0011a	5b		 pop	 ebx
  0011b	8b e5		 mov	 esp, ebp
  0011d	5d		 pop	 ebp
  0011e	c2 04 00	 ret	 4
_TEXT	ENDS
;	COMDAT text$x
text$x	SEGMENT
__unwindfunclet$?ChangeAllIndicatorList@COrgViewData@@QAE_NPAUIGraphInfoManager135914@@@Z$0:
  00000	8d 4d e4	 lea	 ecx, DWORD PTR _szGraphName$2[ebp]
  00003	e9 00 00 00 00	 jmp	 ??1ILPCSTR135914@@QAE@XZ ; ILPCSTR135914::~ILPCSTR135914
  00008	cc		 int	 3
  00009	cc		 int	 3
  0000a	cc		 int	 3
  0000b	cc		 int	 3
  0000c	cc		 int	 3
__ehhandler$?ChangeAllIndicatorList@COrgViewData@@QAE_NPAUIGraphInfoManager135914@@@Z:
  0000d	90		 npad	 1
  0000e	90		 npad	 1
  0000f	8b 54 24 08	 mov	 edx, DWORD PTR [esp+8]
  00013	8d 42 0c	 lea	 eax, DWORD PTR [edx+12]
  00016	8b 4a e0	 mov	 ecx, DWORD PTR [edx-32]
  00019	33 c8		 xor	 ecx, eax
  0001b	e8 00 00 00 00	 call	 @__security_check_cookie@4
  00020	b8 00 00 00 00	 mov	 eax, OFFSET __ehfuncinfo$?ChangeAllIndicatorList@COrgViewData@@QAE_NPAUIGraphInfoManager135914@@@Z
  00025	e9 00 00 00 00	 jmp	 ___CxxFrameHandler3
text$x	ENDS
?ChangeAllIndicatorList@COrgViewData@@QAE_NPAUIGraphInfoManager135914@@@Z ENDP ; COrgViewData::ChangeAllIndicatorList
; Function compile flags: /Ogtp
; File D:\git\src\IBK\IBK_DRFN\ProjSrc\SrcChartEx\ChartAddIn\ChartEnvSetupDlgAddIn\ChartEnvSetupDlgAddIn\OrgViewData.cpp
;	COMDAT ??1COrgViewData@@UAE@XZ
_TEXT	SEGMENT
??1COrgViewData@@UAE@XZ PROC				; COrgViewData::~COrgViewData, COMDAT
; _this$ = ecx

; 347  : {

  00000	56		 push	 esi
  00001	8b f1		 mov	 esi, ecx
  00003	8d 4e 24	 lea	 ecx, DWORD PTR [esi+36]
  00006	c7 06 00 00 00
	00		 mov	 DWORD PTR [esi], OFFSET ??_7COrgViewData@@6B@
  0000c	ff 15 00 00 00
	00		 call	 DWORD PTR __imp_??1?$CStringT@DV?$StrTraitMFC_DLL@DV?$ChTraitsCRT@D@ATL@@@@@ATL@@QAE@XZ

; 348  : 
; 349  : }

  00012	8d 4e 04	 lea	 ecx, DWORD PTR [esi+4]
  00015	5e		 pop	 esi
  00016	e9 00 00 00 00	 jmp	 ??1CIndiInfoDataList@@UAE@XZ ; CIndiInfoDataList::~CIndiInfoDataList
??1COrgViewData@@UAE@XZ ENDP				; COrgViewData::~COrgViewData
_TEXT	ENDS
; Function compile flags: /Ogtp
; File D:\git\src\IBK\IBK_DRFN\ProjSrc\SrcChartEx\ChartAddIn\ChartEnvSetupDlgAddIn\ChartEnvSetupDlgAddIn\OrgViewData.cpp
; File C:\Program Files (x86)\Microsoft Visual Studio\2019\Community\VC\Tools\MSVC\14.29.30133\atlmfc\include\afxtempl.h
; File D:\git\src\IBK\IBK_DRFN\ProjSrc\SrcChartEx\ChartAddIn\ChartEnvSetupDlgAddIn\ChartEnvSetupDlgAddIn\OrgViewData.cpp
;	COMDAT ??0COrgViewData@@QAE@XZ
_TEXT	SEGMENT
_this$ = -4						; size = 4
??0COrgViewData@@QAE@XZ PROC				; COrgViewData::COrgViewData, COMDAT
; _this$ = ecx

; 337  : {

  00000	55		 push	 ebp
  00001	8b ec		 mov	 ebp, esp
  00003	51		 push	 ecx
  00004	56		 push	 esi
  00005	57		 push	 edi
  00006	8b f9		 mov	 edi, ecx
  00008	89 7d fc	 mov	 DWORD PTR _this$[ebp], edi
  0000b	c7 07 00 00 00
	00		 mov	 DWORD PTR [edi], OFFSET ??_7COrgViewData@@6B@

; 286  : {

  00011	8d 4f 24	 lea	 ecx, DWORD PTR [edi+36]

; 89   : {

  00014	c7 47 04 00 00
	00 00		 mov	 DWORD PTR [edi+4], OFFSET ??_7CIndiInfoDataList@@6B@
; File C:\Program Files (x86)\Microsoft Visual Studio\2019\Community\VC\Tools\MSVC\14.29.30133\atlmfc\include\afxtempl.h

; 851  : {

  0001b	c7 47 08 00 00
	00 00		 mov	 DWORD PTR [edi+8], OFFSET ??_7?$CList@PAVCIndiInfoData@@PAV1@@@6B@

; 852  : 	ASSERT(nBlockSize > 0);
; 853  : 
; 854  : 	m_nCount = 0;

  00022	c7 47 14 00 00
	00 00		 mov	 DWORD PTR [edi+20], 0

; 855  : 	m_pNodeHead = m_pNodeTail = m_pNodeFree = NULL;

  00029	c7 47 18 00 00
	00 00		 mov	 DWORD PTR [edi+24], 0
  00030	c7 47 10 00 00
	00 00		 mov	 DWORD PTR [edi+16], 0
  00037	c7 47 0c 00 00
	00 00		 mov	 DWORD PTR [edi+12], 0

; 856  : 	m_pBlocks = NULL;

  0003e	c7 47 1c 00 00
	00 00		 mov	 DWORD PTR [edi+28], 0

; 857  : 	m_nBlockSize = nBlockSize;

  00045	c7 47 20 0a 00
	00 00		 mov	 DWORD PTR [edi+32], 10	; 0000000aH
; File D:\git\src\IBK\IBK_DRFN\ProjSrc\SrcChartEx\ChartAddIn\ChartEnvSetupDlgAddIn\ChartEnvSetupDlgAddIn\OrgViewData.cpp

; 286  : {

  0004c	ff 15 00 00 00
	00		 call	 DWORD PTR __imp_??0?$CStringT@DV?$StrTraitMFC_DLL@DV?$ChTraitsCRT@D@ATL@@@@@ATL@@QAE@XZ

; 90   : }
; 91   : 
; 92   : CIndiInfoDataList::~CIndiInfoDataList()
; 93   : {
; 94   : 	DeleteAll();
; 95   : }
; 96   : 
; 97   : 
; 98   : // public =====================================================================
; 99   : bool CIndiInfoDataList::AddTail(IGraphInfo* p_pIGraphInfo, const bool bTheBeginning)
; 100  : {
; 101  : 	if(p_pIGraphInfo == NULL)
; 102  : 		return false;
; 103  : 
; 104  : 	//sy 2006.04.24.
; 105  : 	ILPCSTR szGraphName = p_pIGraphInfo->GetGraphNameString();
; 106  : 	if( IsIndiInfoData(szGraphName)) return false;
; 107  : 
; 108  : 	m_indiInfoDataList.AddTail( CIndiInfoData::Make(p_pIGraphInfo, bTheBeginning));
; 109  : 	return true;
; 110  : }
; 111  : 
; 112  : void CIndiInfoDataList::DeleteAll()
; 113  : {
; 114  : 	POSITION pos = m_indiInfoDataList.GetHeadPosition();
; 115  : 
; 116  : 	while(pos != NULL)
; 117  : 	{
; 118  : 		CIndiInfoData::Delete(m_indiInfoDataList.GetNext(pos));
; 119  : 	}
; 120  : }
; 121  : 
; 122  : // ----------------------------------------------------------------------------
; 123  : bool CIndiInfoDataList::ChangeAllIndicatorList( IGraphInfoManager* p_pIGraphInfoManager)
; 124  : {
; 125  : 	if(p_pIGraphInfoManager == NULL)
; 126  : 		return false;
; 127  : 
; 128  : 	bool bResult = false;
; 129  : 	IGraphInfo* pSourceIndicatorInfo = NULL;
; 130  : 	IGraphInfo* pTargetIndicatorInfo = NULL;
; 131  : 	POSITION pos = m_indiInfoDataList.GetHeadPosition();
; 132  : 	while(pos != NULL)
; 133  : 	{
; 134  : 		CIndiInfoData* pSourceIndiInfo = m_indiInfoDataList.GetNext(pos);
; 135  : 		assert(pSourceIndiInfo != NULL);
; 136  : 
; 137  : 		pSourceIndicatorInfo = pSourceIndiInfo->GetIGraphInfo();
; 138  : 		if( !pSourceIndicatorInfo) continue;
; 139  : 
; 140  : 		ILPCSTR szGraphName = pSourceIndicatorInfo->GetGraphNameString();
; 141  : 		pTargetIndicatorInfo = p_pIGraphInfoManager->GetGraphInfo( IGraphInfoManager::IEILT_USER, szGraphName);
; 142  : 		if( !pTargetIndicatorInfo) 
; 143  : 		{
; 144  : 			pSourceIndicatorInfo->Release();
; 145  : 			continue;
; 146  : 		}
; 147  : 
; 148  : 		if( pTargetIndicatorInfo->GetCopyDataFrom( pSourceIndicatorInfo)) bResult = true;
; 149  : 		pTargetIndicatorInfo->Release();
; 150  : 		pSourceIndicatorInfo->Release();
; 151  : 	}
; 152  : 
; 153  : 	return bResult;
; 154  : }
; 155  : 
; 156  : // ----------------------------------------------------------------------------
; 157  : POSITION CIndiInfoDataList::GetHeadPosition() const
; 158  : {
; 159  : 	return m_indiInfoDataList.GetHeadPosition();
; 160  : }
; 161  : 
; 162  : POSITION CIndiInfoDataList::GetHeadPosition()
; 163  : {
; 164  : 	return m_indiInfoDataList.GetHeadPosition();
; 165  : }
; 166  : 
; 167  : POSITION CIndiInfoDataList::GetTailPosition() const
; 168  : {
; 169  : 	return m_indiInfoDataList.GetTailPosition();
; 170  : }
; 171  : 
; 172  : POSITION CIndiInfoDataList::GetTailPosition()
; 173  : {
; 174  : 	return m_indiInfoDataList.GetTailPosition();
; 175  : }
; 176  : 
; 177  : CIndiInfoData* CIndiInfoDataList::GetPrev(POSITION& pos) const
; 178  : {
; 179  : 	if(pos == NULL)
; 180  : 		return NULL;
; 181  : 
; 182  : 	return m_indiInfoDataList.GetPrev(pos);
; 183  : }
; 184  : 
; 185  : CIndiInfoData* CIndiInfoDataList::GetPrev(POSITION& pos)
; 186  : {
; 187  : 	if(pos == NULL)
; 188  : 		return NULL;
; 189  : 
; 190  : 	return m_indiInfoDataList.GetPrev(pos);
; 191  : }
; 192  : 
; 193  : CIndiInfoData* CIndiInfoDataList::GetNext(POSITION& pos) const
; 194  : {
; 195  : 	if(pos == NULL)
; 196  : 		return NULL;
; 197  : 
; 198  : 	return m_indiInfoDataList.GetNext(pos);
; 199  : }
; 200  : 
; 201  : CIndiInfoData* CIndiInfoDataList::GetNext(POSITION& pos)
; 202  : {
; 203  : 	if(pos == NULL)
; 204  : 		return NULL;
; 205  : 
; 206  : 	return m_indiInfoDataList.GetNext(pos);
; 207  : }
; 208  : 
; 209  : CIndiInfoData* CIndiInfoDataList::GetIndiInfoData(const CString& strIndicatorName)
; 210  : {
; 211  : 	if(strIndicatorName.IsEmpty())
; 212  : 		return NULL;
; 213  : 
; 214  : 	POSITION pos = m_indiInfoDataList.GetHeadPosition();
; 215  : 	while(pos != NULL)
; 216  : 	{
; 217  : 		CIndiInfoData* pIndiInfoData = m_indiInfoDataList.GetNext(pos);
; 218  : 		assert(pIndiInfoData != NULL);
; 219  : 		if(strIndicatorName == pIndiInfoData->GetIndicatorName())
; 220  : 			return pIndiInfoData;
; 221  : 	}
; 222  : 
; 223  : 	return NULL;
; 224  : }
; 225  : 
; 226  : bool CIndiInfoDataList::GetIndiInfoInTheBeginning(CList<IGraphInfo*, IGraphInfo*>& indiInfoList) const
; 227  : {
; 228  : 	indiInfoList.RemoveAll();
; 229  : 
; 230  : 	POSITION pos = m_indiInfoDataList.GetHeadPosition();
; 231  : 	while(pos != NULL)
; 232  : 	{
; 233  : 		CIndiInfoData* pIndiInfoData = m_indiInfoDataList.GetNext(pos);
; 234  : 		assert(pIndiInfoData != NULL);
; 235  : 		if(pIndiInfoData->IsTheBeginning())
; 236  : 			indiInfoList.AddTail(pIndiInfoData->GetIGraphInfo());
; 237  : 	}
; 238  : 
; 239  : 	return (indiInfoList.GetCount() > 0);
; 240  : }
; 241  : 
; 242  : 
; 243  : 
; 244  : bool CIndiInfoDataList::GetIndiInfoIntheSave(CList<IGraphInfo*, IGraphInfo*>& indiInfoList) const
; 245  : {
; 246  : 	indiInfoList.RemoveAll();
; 247  : 
; 248  : 	POSITION pos = m_indiInfoDataList.GetHeadPosition();
; 249  : 	while(pos != NULL)
; 250  : 	{
; 251  : 		CIndiInfoData* pIndiInfoData = m_indiInfoDataList.GetNext(pos);
; 252  : 		if( pIndiInfoData != NULL )
; 253  : 			indiInfoList.AddTail(pIndiInfoData->GetIGraphInfo());
; 254  : 	}
; 255  : 
; 256  : 	return (indiInfoList.GetCount() > 0);
; 257  : }
; 258  : 
; 259  : //sy 2006.04.24.
; 260  : bool CIndiInfoDataList::IsIndiInfoData( const char *p_szGraphName) const
; 261  : {
; 262  : 	if( !p_szGraphName) return false;
; 263  : 	if( !*p_szGraphName) return false;
; 264  : 
; 265  : 	POSITION pos = m_indiInfoDataList.GetHeadPosition();
; 266  : 	while(pos != NULL)
; 267  : 	{
; 268  : 		CIndiInfoData* pIndiInfoData = m_indiInfoDataList.GetNext(pos);
; 269  : 		if(pIndiInfoData == NULL)
; 270  : 			continue;
; 271  : 
; 272  : 		if( pIndiInfoData->GetGraphName() == p_szGraphName)
; 273  : 			return true;
; 274  : 	}
; 275  : 
; 276  : 	return false;
; 277  : }
; 278  : 
; 279  : 
; 280  : ///////////////////////////////////////////////////////////////////////////////
; 281  : // class CGraphEtcData
; 282  : 
; 283  : CGraphEtcData::CGraphEtcData():
; 284  : 	m_bIsVertScaleLogType(false), 

  00052	66 c7 47 28 00
	00		 mov	 WORD PTR [edi+40], 0

; 338  : 
; 339  : }

  00058	8b c7		 mov	 eax, edi
  0005a	5f		 pop	 edi
  0005b	5e		 pop	 esi
  0005c	8b e5		 mov	 esp, ebp
  0005e	5d		 pop	 ebp
  0005f	c3		 ret	 0
??0COrgViewData@@QAE@XZ ENDP				; COrgViewData::COrgViewData
_TEXT	ENDS
; Function compile flags: /Ogtp
; File D:\git\src\IBK\IBK_DRFN\ProjSrc\SrcChartEx\ChartAddIn\ChartEnvSetupDlgAddIn\ChartEnvSetupDlgAddIn\OrgViewData.cpp
;	COMDAT ?IsVertScaleInvertType@CGraphEtcData@@QBE_NXZ
_TEXT	SEGMENT
?IsVertScaleInvertType@CGraphEtcData@@QBE_NXZ PROC	; CGraphEtcData::IsVertScaleInvertType, COMDAT
; _this$ = ecx

; 325  : 	return m_bIsVertScaleInvertType;

  00000	8a 41 05	 mov	 al, BYTE PTR [ecx+5]

; 326  : }

  00003	c3		 ret	 0
?IsVertScaleInvertType@CGraphEtcData@@QBE_NXZ ENDP	; CGraphEtcData::IsVertScaleInvertType
_TEXT	ENDS
; Function compile flags: /Ogtp
; File D:\git\src\IBK\IBK_DRFN\ProjSrc\SrcChartEx\ChartAddIn\ChartEnvSetupDlgAddIn\ChartEnvSetupDlgAddIn\OrgViewData.cpp
;	COMDAT ?IsVertScaleLogType@CGraphEtcData@@QBE_NXZ
_TEXT	SEGMENT
?IsVertScaleLogType@CGraphEtcData@@QBE_NXZ PROC		; CGraphEtcData::IsVertScaleLogType, COMDAT
; _this$ = ecx

; 320  : 	return m_bIsVertScaleLogType;

  00000	8a 41 04	 mov	 al, BYTE PTR [ecx+4]

; 321  : }

  00003	c3		 ret	 0
?IsVertScaleLogType@CGraphEtcData@@QBE_NXZ ENDP		; CGraphEtcData::IsVertScaleLogType
_TEXT	ENDS
; Function compile flags: /Ogtp
; File D:\git\src\IBK\IBK_DRFN\ProjSrc\SrcChartEx\ChartAddIn\ChartEnvSetupDlgAddIn\ChartEnvSetupDlgAddIn\OrgViewData.cpp
;	COMDAT ?GetFunctionName@CGraphEtcData@@QBE?AV?$CStringT@DV?$StrTraitMFC_DLL@DV?$ChTraitsCRT@D@ATL@@@@@ATL@@XZ
_TEXT	SEGMENT
___$ReturnUdt$ = 8					; size = 4
?GetFunctionName@CGraphEtcData@@QBE?AV?$CStringT@DV?$StrTraitMFC_DLL@DV?$ChTraitsCRT@D@ATL@@@@@ATL@@XZ PROC ; CGraphEtcData::GetFunctionName, COMDAT
; _this$ = ecx

; 314  : {

  00000	55		 push	 ebp
  00001	8b ec		 mov	 ebp, esp

; 315  : 	return m_strFunctionName;

  00003	51		 push	 ecx
  00004	8b 4d 08	 mov	 ecx, DWORD PTR ___$ReturnUdt$[ebp]
  00007	ff 15 00 00 00
	00		 call	 DWORD PTR __imp_??0?$CStringT@DV?$StrTraitMFC_DLL@DV?$ChTraitsCRT@D@ATL@@@@@ATL@@QAE@ABV01@@Z
  0000d	8b 45 08	 mov	 eax, DWORD PTR ___$ReturnUdt$[ebp]

; 316  : }

  00010	5d		 pop	 ebp
  00011	c2 04 00	 ret	 4
?GetFunctionName@CGraphEtcData@@QBE?AV?$CStringT@DV?$StrTraitMFC_DLL@DV?$ChTraitsCRT@D@ATL@@@@@ATL@@XZ ENDP ; CGraphEtcData::GetFunctionName
_TEXT	ENDS
; Function compile flags: /Ogtp
; File D:\git\src\IBK\IBK_DRFN\ProjSrc\SrcChartEx\ChartAddIn\ChartEnvSetupDlgAddIn\ChartEnvSetupDlgAddIn\OrgViewData.cpp
;	COMDAT ?SetVertScaleInvertType@CGraphEtcData@@QAEX_N@Z
_TEXT	SEGMENT
_bIsVertScaleInvertType$ = 8				; size = 1
?SetVertScaleInvertType@CGraphEtcData@@QAEX_N@Z PROC	; CGraphEtcData::SetVertScaleInvertType, COMDAT
; _this$ = ecx

; 308  : {

  00000	55		 push	 ebp
  00001	8b ec		 mov	 ebp, esp

; 309  : 	m_bIsVertScaleInvertType = bIsVertScaleInvertType;

  00003	8a 45 08	 mov	 al, BYTE PTR _bIsVertScaleInvertType$[ebp]
  00006	88 41 05	 mov	 BYTE PTR [ecx+5], al

; 310  : }

  00009	5d		 pop	 ebp
  0000a	c2 04 00	 ret	 4
?SetVertScaleInvertType@CGraphEtcData@@QAEX_N@Z ENDP	; CGraphEtcData::SetVertScaleInvertType
_TEXT	ENDS
; Function compile flags: /Ogtp
; File D:\git\src\IBK\IBK_DRFN\ProjSrc\SrcChartEx\ChartAddIn\ChartEnvSetupDlgAddIn\ChartEnvSetupDlgAddIn\OrgViewData.cpp
;	COMDAT ?SetVertScaleLogType@CGraphEtcData@@QAEX_N@Z
_TEXT	SEGMENT
_bIsVertScaleLogType$ = 8				; size = 1
?SetVertScaleLogType@CGraphEtcData@@QAEX_N@Z PROC	; CGraphEtcData::SetVertScaleLogType, COMDAT
; _this$ = ecx

; 303  : {

  00000	55		 push	 ebp
  00001	8b ec		 mov	 ebp, esp

; 304  : 	m_bIsVertScaleLogType = bIsVertScaleLogType;

  00003	8a 45 08	 mov	 al, BYTE PTR _bIsVertScaleLogType$[ebp]
  00006	88 41 04	 mov	 BYTE PTR [ecx+4], al

; 305  : }

  00009	5d		 pop	 ebp
  0000a	c2 04 00	 ret	 4
?SetVertScaleLogType@CGraphEtcData@@QAEX_N@Z ENDP	; CGraphEtcData::SetVertScaleLogType
_TEXT	ENDS
; Function compile flags: /Ogtp
; File D:\git\src\IBK\IBK_DRFN\ProjSrc\SrcChartEx\ChartAddIn\ChartEnvSetupDlgAddIn\ChartEnvSetupDlgAddIn\OrgViewData.cpp
;	COMDAT ?SetFunctionName@CGraphEtcData@@QAEXABV?$CStringT@DV?$StrTraitMFC_DLL@DV?$ChTraitsCRT@D@ATL@@@@@ATL@@@Z
_TEXT	SEGMENT
_strFunctionName$ = 8					; size = 4
?SetFunctionName@CGraphEtcData@@QAEXABV?$CStringT@DV?$StrTraitMFC_DLL@DV?$ChTraitsCRT@D@ATL@@@@@ATL@@@Z PROC ; CGraphEtcData::SetFunctionName, COMDAT
; _this$ = ecx

; 298  : {

  00000	55		 push	 ebp
  00001	8b ec		 mov	 ebp, esp

; 300  : }

  00003	5d		 pop	 ebp

; 299  : 	m_strFunctionName = strFunctionName;

  00004	ff 25 00 00 00
	00		 jmp	 DWORD PTR __imp_??4?$CStringT@DV?$StrTraitMFC_DLL@DV?$ChTraitsCRT@D@ATL@@@@@ATL@@QAEAAV01@ABV01@@Z
?SetFunctionName@CGraphEtcData@@QAEXABV?$CStringT@DV?$StrTraitMFC_DLL@DV?$ChTraitsCRT@D@ATL@@@@@ATL@@@Z ENDP ; CGraphEtcData::SetFunctionName
_TEXT	ENDS
; Function compile flags: /Ogtp
; File D:\git\src\IBK\IBK_DRFN\ProjSrc\SrcChartEx\ChartAddIn\ChartEnvSetupDlgAddIn\ChartEnvSetupDlgAddIn\OrgViewData.cpp
;	COMDAT ??0CGraphEtcData@@QAE@ABV?$CStringT@DV?$StrTraitMFC_DLL@DV?$ChTraitsCRT@D@ATL@@@@@ATL@@_N1@Z
_TEXT	SEGMENT
_this$ = -4						; size = 4
_strFunctionName$ = 8					; size = 4
_bIsVertScaleLogType$ = 12				; size = 1
_bIsVertScaleInvertType$ = 16				; size = 1
??0CGraphEtcData@@QAE@ABV?$CStringT@DV?$StrTraitMFC_DLL@DV?$ChTraitsCRT@D@ATL@@@@@ATL@@_N1@Z PROC ; CGraphEtcData::CGraphEtcData, COMDAT
; _this$ = ecx

; 293  : {

  00000	55		 push	 ebp
  00001	8b ec		 mov	 ebp, esp
  00003	51		 push	 ecx
  00004	56		 push	 esi
  00005	ff 75 08	 push	 DWORD PTR _strFunctionName$[ebp]
  00008	8b f1		 mov	 esi, ecx
  0000a	89 75 fc	 mov	 DWORD PTR _this$[ebp], esi
  0000d	ff 15 00 00 00
	00		 call	 DWORD PTR __imp_??0?$CStringT@DV?$StrTraitMFC_DLL@DV?$ChTraitsCRT@D@ATL@@@@@ATL@@QAE@ABV01@@Z

; 291  : 	m_bIsVertScaleLogType(bIsVertScaleLogType), 

  00013	8a 45 0c	 mov	 al, BYTE PTR _bIsVertScaleLogType$[ebp]
  00016	88 46 04	 mov	 BYTE PTR [esi+4], al

; 292  : 	m_bIsVertScaleInvertType(bIsVertScaleInvertType)

  00019	8a 45 10	 mov	 al, BYTE PTR _bIsVertScaleInvertType$[ebp]
  0001c	88 46 05	 mov	 BYTE PTR [esi+5], al

; 294  : }

  0001f	8b c6		 mov	 eax, esi
  00021	5e		 pop	 esi
  00022	8b e5		 mov	 esp, ebp
  00024	5d		 pop	 ebp
  00025	c2 0c 00	 ret	 12			; 0000000cH
??0CGraphEtcData@@QAE@ABV?$CStringT@DV?$StrTraitMFC_DLL@DV?$ChTraitsCRT@D@ATL@@@@@ATL@@_N1@Z ENDP ; CGraphEtcData::CGraphEtcData
_TEXT	ENDS
; Function compile flags: /Ogtp
; File D:\git\src\IBK\IBK_DRFN\ProjSrc\SrcChartEx\ChartAddIn\ChartEnvSetupDlgAddIn\ChartEnvSetupDlgAddIn\OrgViewData.cpp
;	COMDAT ??0CGraphEtcData@@QAE@XZ
_TEXT	SEGMENT
_this$ = -4						; size = 4
??0CGraphEtcData@@QAE@XZ PROC				; CGraphEtcData::CGraphEtcData, COMDAT
; _this$ = ecx

; 286  : {

  00000	55		 push	 ebp
  00001	8b ec		 mov	 ebp, esp
  00003	51		 push	 ecx
  00004	56		 push	 esi
  00005	8b f1		 mov	 esi, ecx
  00007	89 75 fc	 mov	 DWORD PTR _this$[ebp], esi
  0000a	ff 15 00 00 00
	00		 call	 DWORD PTR __imp_??0?$CStringT@DV?$StrTraitMFC_DLL@DV?$ChTraitsCRT@D@ATL@@@@@ATL@@QAE@XZ

; 284  : 	m_bIsVertScaleLogType(false), 

  00010	66 c7 46 04 00
	00		 mov	 WORD PTR [esi+4], 0

; 287  : }

  00016	8b c6		 mov	 eax, esi
  00018	5e		 pop	 esi
  00019	8b e5		 mov	 esp, ebp
  0001b	5d		 pop	 ebp
  0001c	c3		 ret	 0
??0CGraphEtcData@@QAE@XZ ENDP				; CGraphEtcData::CGraphEtcData
_TEXT	ENDS
; Function compile flags: /Ogtp
;	COMDAT ??_GCIndiInfoDataList@@UAEPAXI@Z
_TEXT	SEGMENT
___flags$ = 8						; size = 4
??_GCIndiInfoDataList@@UAEPAXI@Z PROC			; CIndiInfoDataList::`scalar deleting destructor', COMDAT
; _this$ = ecx
  00000	55		 push	 ebp
  00001	8b ec		 mov	 ebp, esp
  00003	56		 push	 esi
  00004	8b f1		 mov	 esi, ecx
  00006	e8 00 00 00 00	 call	 ??1CIndiInfoDataList@@UAE@XZ ; CIndiInfoDataList::~CIndiInfoDataList
  0000b	f6 45 08 01	 test	 BYTE PTR ___flags$[ebp], 1
  0000f	74 0b		 je	 SHORT $LN4@scalar
  00011	6a 20		 push	 32			; 00000020H
  00013	56		 push	 esi
  00014	e8 00 00 00 00	 call	 ??3@YAXPAXI@Z		; operator delete
  00019	83 c4 08	 add	 esp, 8
$LN4@scalar:
  0001c	8b c6		 mov	 eax, esi
  0001e	5e		 pop	 esi
  0001f	5d		 pop	 ebp
  00020	c2 04 00	 ret	 4
??_GCIndiInfoDataList@@UAEPAXI@Z ENDP			; CIndiInfoDataList::`scalar deleting destructor'
_TEXT	ENDS
; Function compile flags: /Ogtp
; File C:\Program Files (x86)\Microsoft Visual Studio\2019\Community\VC\Tools\MSVC\14.29.30133\atlmfc\include\afxtempl.h
; File C:\Program Files (x86)\Microsoft Visual Studio\2019\Community\VC\Tools\MSVC\14.29.30133\atlmfc\include\afx.inl
;	COMDAT ??_G?$CList@PAVCIndiInfoData@@PAV1@@@UAEPAXI@Z
_TEXT	SEGMENT
__$EHRec$ = -12						; size = 12
___flags$ = 8						; size = 4
??_G?$CList@PAVCIndiInfoData@@PAV1@@@UAEPAXI@Z PROC	; CList<CIndiInfoData *,CIndiInfoData *>::`scalar deleting destructor', COMDAT
; _this$ = ecx
  00000	55		 push	 ebp
  00001	8b ec		 mov	 ebp, esp
  00003	6a ff		 push	 -1
  00005	68 00 00 00 00	 push	 __ehhandler$??_G?$CList@PAVCIndiInfoData@@PAV1@@@UAEPAXI@Z
  0000a	64 a1 00 00 00
	00		 mov	 eax, DWORD PTR fs:0
  00010	50		 push	 eax
  00011	56		 push	 esi
  00012	a1 00 00 00 00	 mov	 eax, DWORD PTR ___security_cookie
  00017	33 c5		 xor	 eax, ebp
  00019	50		 push	 eax
  0001a	8d 45 f4	 lea	 eax, DWORD PTR __$EHRec$[ebp]
  0001d	64 a3 00 00 00
	00		 mov	 DWORD PTR fs:0, eax
  00023	8b f1		 mov	 esi, ecx
; File C:\Program Files (x86)\Microsoft Visual Studio\2019\Community\VC\Tools\MSVC\14.29.30133\atlmfc\include\afxtempl.h

; 872  : 	m_pBlocks->FreeDataChain();

  00025	8b 4e 14	 mov	 ecx, DWORD PTR [esi+20]

; 878  : {

  00028	c7 45 fc 00 00
	00 00		 mov	 DWORD PTR __$EHRec$[ebp+8], 0
  0002f	c7 06 00 00 00
	00		 mov	 DWORD PTR [esi], OFFSET ??_7?$CList@PAVCIndiInfoData@@PAV1@@@6B@

; 870  : 	m_nCount = 0;

  00035	c7 46 0c 00 00
	00 00		 mov	 DWORD PTR [esi+12], 0

; 871  : 	m_pNodeHead = m_pNodeTail = m_pNodeFree = NULL;

  0003c	c7 46 10 00 00
	00 00		 mov	 DWORD PTR [esi+16], 0
  00043	c7 46 08 00 00
	00 00		 mov	 DWORD PTR [esi+8], 0
  0004a	c7 46 04 00 00
	00 00		 mov	 DWORD PTR [esi+4], 0

; 872  : 	m_pBlocks->FreeDataChain();

  00051	e8 00 00 00 00	 call	 ?FreeDataChain@CPlex@@QAEXXZ ; CPlex::FreeDataChain

; 873  : 	m_pBlocks = NULL;

  00056	8b 45 08	 mov	 eax, DWORD PTR ___flags$[ebp]
  00059	c7 46 14 00 00
	00 00		 mov	 DWORD PTR [esi+20], 0
  00060	a8 01		 test	 al, 1
  00062	74 2c		 je	 SHORT $LN22@scalar
  00064	a8 04		 test	 al, 4
  00066	75 1d		 jne	 SHORT $LN3@scalar
; File C:\Program Files (x86)\Microsoft Visual Studio\2019\Community\VC\Tools\MSVC\14.29.30133\atlmfc\include\afx.inl

; 112  : 	{ ::operator delete(p); }

  00068	56		 push	 esi
  00069	e8 00 00 00 00	 call	 ??3@YAXPAX@Z		; operator delete
  0006e	83 c4 04	 add	 esp, 4
  00071	8b c6		 mov	 eax, esi
  00073	8b 4d f4	 mov	 ecx, DWORD PTR __$EHRec$[ebp]
  00076	64 89 0d 00 00
	00 00		 mov	 DWORD PTR fs:0, ecx
  0007d	59		 pop	 ecx
  0007e	5e		 pop	 esi
  0007f	8b e5		 mov	 esp, ebp
  00081	5d		 pop	 ebp
  00082	c2 04 00	 ret	 4
$LN3@scalar:
  00085	6a 1c		 push	 28			; 0000001cH
  00087	56		 push	 esi
  00088	e8 00 00 00 00	 call	 ?__global_delete@@YAXPAXI@Z ; __global_delete
  0008d	83 c4 08	 add	 esp, 8
$LN22@scalar:
  00090	8b c6		 mov	 eax, esi
  00092	8b 4d f4	 mov	 ecx, DWORD PTR __$EHRec$[ebp]
  00095	64 89 0d 00 00
	00 00		 mov	 DWORD PTR fs:0, ecx
  0009c	59		 pop	 ecx
  0009d	5e		 pop	 esi
  0009e	8b e5		 mov	 esp, ebp
  000a0	5d		 pop	 ebp
  000a1	c2 04 00	 ret	 4
  000a4	cc		 int	 3
  000a5	cc		 int	 3
  000a6	cc		 int	 3
  000a7	cc		 int	 3
  000a8	cc		 int	 3
_TEXT	ENDS
;	COMDAT text$x
text$x	SEGMENT
__ehhandler$??_G?$CList@PAVCIndiInfoData@@PAV1@@@UAEPAXI@Z:
  00000	90		 npad	 1
  00001	90		 npad	 1
  00002	8b 54 24 08	 mov	 edx, DWORD PTR [esp+8]
  00006	8d 42 0c	 lea	 eax, DWORD PTR [edx+12]
  00009	8b 4a f8	 mov	 ecx, DWORD PTR [edx-8]
  0000c	33 c8		 xor	 ecx, eax
  0000e	e8 00 00 00 00	 call	 @__security_check_cookie@4
  00013	b8 00 00 00 00	 mov	 eax, OFFSET __ehfuncinfo$??_G?$CList@PAVCIndiInfoData@@PAV1@@@UAEPAXI@Z
  00018	e9 00 00 00 00	 jmp	 ___CxxFrameHandler3
text$x	ENDS
??_G?$CList@PAVCIndiInfoData@@PAV1@@@UAEPAXI@Z ENDP	; CList<CIndiInfoData *,CIndiInfoData *>::`scalar deleting destructor'
; Function compile flags: /Ogtp
; File C:\Program Files (x86)\Microsoft Visual Studio\2019\Community\VC\Tools\MSVC\14.29.30133\atlmfc\include\afxtempl.h
; File C:\Program Files (x86)\Microsoft Visual Studio\2019\Community\VC\Tools\MSVC\14.29.30133\atlmfc\include\afx.inl
; File C:\Program Files (x86)\Microsoft Visual Studio\2019\Community\VC\Tools\MSVC\14.29.30133\atlmfc\include\afxtempl.h
; File C:\Program Files (x86)\Microsoft Visual Studio\2019\Community\VC\Tools\MSVC\14.29.30133\atlmfc\include\afx.inl
; File C:\Program Files (x86)\Microsoft Visual Studio\2019\Community\VC\Tools\MSVC\14.29.30133\atlmfc\include\afxtempl.h
; File C:\Program Files (x86)\Microsoft Visual Studio\2019\Community\VC\Tools\MSVC\14.29.30133\atlmfc\include\afx.inl
; File C:\Program Files (x86)\Microsoft Visual Studio\2019\Community\VC\Tools\MSVC\14.29.30133\atlmfc\include\afxtempl.h
; File C:\Program Files (x86)\Microsoft Visual Studio\2019\Community\VC\Tools\MSVC\14.29.30133\atlmfc\include\afx.inl
; File C:\Program Files (x86)\Microsoft Visual Studio\2019\Community\VC\Tools\MSVC\14.29.30133\atlmfc\include\afxtempl.h
; File C:\Program Files (x86)\Microsoft Visual Studio\2019\Community\VC\Tools\MSVC\14.29.30133\atlmfc\include\afx.inl
; File C:\Program Files (x86)\Microsoft Visual Studio\2019\Community\VC\Tools\MSVC\14.29.30133\atlmfc\include\afxtempl.h
; File C:\Program Files (x86)\Microsoft Visual Studio\2019\Community\VC\Tools\MSVC\14.29.30133\atlmfc\include\afx.inl
; File C:\Program Files (x86)\Microsoft Visual Studio\2019\Community\VC\Tools\MSVC\14.29.30133\atlmfc\include\afxtempl.h
;	COMDAT ?Serialize@?$CList@PAVCIndiInfoData@@PAV1@@@UAEXAAVCArchive@@@Z
_TEXT	SEGMENT
_nNewCount$1$ = -16					; size = 4
_newData$1 = -12					; size = 4
_pData$1$ = -8						; size = 4
_pNode$1$ = -8						; size = 4
_nElementsLeft$1$ = -4					; size = 4
_this$1$ = -4						; size = 4
_ar$ = 8						; size = 4
?Serialize@?$CList@PAVCIndiInfoData@@PAV1@@@UAEXAAVCArchive@@@Z PROC ; CList<CIndiInfoData *,CIndiInfoData *>::Serialize, COMDAT
; _this$ = ecx

; 1169 : {

  00000	55		 push	 ebp
  00001	8b ec		 mov	 ebp, esp
  00003	83 ec 10	 sub	 esp, 16			; 00000010H
  00006	53		 push	 ebx
  00007	8b d9		 mov	 ebx, ecx
; File C:\Program Files (x86)\Microsoft Visual Studio\2019\Community\VC\Tools\MSVC\14.29.30133\atlmfc\include\afx.inl

; 212  : 	{ return (m_nMode & CArchive::load) == 0; }

  00009	8b 4d 08	 mov	 ecx, DWORD PTR _ar$[ebp]
; File C:\Program Files (x86)\Microsoft Visual Studio\2019\Community\VC\Tools\MSVC\14.29.30133\atlmfc\include\afxtempl.h

; 1169 : {

  0000c	56		 push	 esi
  0000d	57		 push	 edi
  0000e	89 5d fc	 mov	 DWORD PTR _this$1$[ebp], ebx
; File C:\Program Files (x86)\Microsoft Visual Studio\2019\Community\VC\Tools\MSVC\14.29.30133\atlmfc\include\afx.inl

; 212  : 	{ return (m_nMode & CArchive::load) == 0; }

  00011	8b 41 18	 mov	 eax, DWORD PTR [ecx+24]
  00014	f7 d0		 not	 eax
  00016	a8 01		 test	 al, 1
; File C:\Program Files (x86)\Microsoft Visual Studio\2019\Community\VC\Tools\MSVC\14.29.30133\atlmfc\include\afxtempl.h

; 1174 : 	if (ar.IsStoring())

  00018	0f 84 ae 00 00
	00		 je	 $LN7@Serialize

; 1175 : 	{
; 1176 : 		ar.WriteCount(m_nCount);

  0001e	ff 73 0c	 push	 DWORD PTR [ebx+12]
  00021	e8 00 00 00 00	 call	 ?WriteCount@CArchive@@QAEXK@Z ; CArchive::WriteCount

; 1177 : 		for (CNode* pNode = m_pNodeHead; pNode != NULL; pNode = pNode->pNext)

  00026	8b 43 04	 mov	 eax, DWORD PTR [ebx+4]
  00029	89 45 f8	 mov	 DWORD PTR _pNode$1$[ebp], eax
  0002c	85 c0		 test	 eax, eax
  0002e	0f 84 43 01 00
	00		 je	 $LN68@Serialize
$LL4@Serialize:

; 1178 : 		{
; 1179 : 			ASSERT(AfxIsValidAddress(pNode, sizeof(CNode)));
; 1180 : 			TYPE* pData;
; 1181 : 			/*
; 1182 : 			 * in some cases the & operator might be overloaded, and we cannot use it to obtain
; 1183 : 			 * the address of a given object.  We then use the following trick to get the address
; 1184 : 			 */
; 1185 : 			pData = reinterpret_cast< TYPE* >( &reinterpret_cast< int& >( static_cast< TYPE& >( pNode->data ) ) );

  00034	8d 70 08	 lea	 esi, DWORD PTR [eax+8]

; 68   : 	ENSURE(nCount == 0 || pElements != NULL);

  00037	85 f6		 test	 esi, esi
  00039	0f 84 4a 01 00
	00		 je	 $LN60@Serialize
; File C:\Program Files (x86)\Microsoft Visual Studio\2019\Community\VC\Tools\MSVC\14.29.30133\atlmfc\include\afx.inl

; 212  : 	{ return (m_nMode & CArchive::load) == 0; }

  0003f	8b 4d 08	 mov	 ecx, DWORD PTR _ar$[ebp]
  00042	8b 41 18	 mov	 eax, DWORD PTR [ecx+24]
  00045	f7 d0		 not	 eax
  00047	a8 01		 test	 al, 1
; File C:\Program Files (x86)\Microsoft Visual Studio\2019\Community\VC\Tools\MSVC\14.29.30133\atlmfc\include\afxtempl.h

; 73   : 	if (ar.IsStoring())

  00049	74 33		 je	 SHORT $LN21@Serialize

; 74   : 	{
; 75   : 		TYPE* pData;
; 76   : 		UINT_PTR nElementsLeft;
; 77   : 
; 78   : 		nElementsLeft = nCount;

  0004b	b8 01 00 00 00	 mov	 eax, 1
  00050	89 45 fc	 mov	 DWORD PTR _nElementsLeft$1$[ebp], eax
$LL16@Serialize:

; 80   : 		while( nElementsLeft > 0 )
; 81   : 		{
; 82   : 			UINT nElementsToWrite;
; 83   : 
; 84   : 			nElementsToWrite = UINT(__min(nElementsLeft, INT_MAX/sizeof(TYPE)));

  00053	bb ff ff ff 1f	 mov	 ebx, 536870911		; 1fffffffH
  00058	3b c3		 cmp	 eax, ebx
  0005a	0f 42 d8	 cmovb	 ebx, eax

; 85   : 			ar.Write(pData, nElementsToWrite*sizeof(TYPE));

  0005d	8d 3c 9d 00 00
	00 00		 lea	 edi, DWORD PTR [ebx*4]
  00064	57		 push	 edi
  00065	56		 push	 esi
  00066	e8 00 00 00 00	 call	 ?Write@CArchive@@QAEXPBXI@Z ; CArchive::Write

; 86   : 			nElementsLeft -= nElementsToWrite;

  0006b	8b 45 fc	 mov	 eax, DWORD PTR _nElementsLeft$1$[ebp]

; 87   : 			pData += nElementsToWrite;

  0006e	03 f7		 add	 esi, edi
  00070	8b 4d 08	 mov	 ecx, DWORD PTR _ar$[ebp]
  00073	2b c3		 sub	 eax, ebx
  00075	89 45 fc	 mov	 DWORD PTR _nElementsLeft$1$[ebp], eax
  00078	85 c0		 test	 eax, eax
  0007a	75 d7		 jne	 SHORT $LL16@Serialize

; 88   : 		}
; 89   : 	}

  0007c	eb 35		 jmp	 SHORT $LN2@Serialize
$LN21@Serialize:

; 90   : 	else
; 91   : 	{
; 92   : 		TYPE* pData;
; 93   : 		UINT_PTR nElementsLeft;
; 94   : 
; 95   : 		nElementsLeft = nCount;

  0007e	bf 01 00 00 00	 mov	 edi, 1
$LL18@Serialize:

; 98   : 		{
; 99   : 			UINT nElementsToRead;
; 100  : 
; 101  : 			nElementsToRead = UINT(__min(nElementsLeft, INT_MAX/sizeof(TYPE)));

  00083	bb ff ff ff 1f	 mov	 ebx, 536870911		; 1fffffffH
  00088	3b fb		 cmp	 edi, ebx
  0008a	0f 42 df	 cmovb	 ebx, edi

; 102  : 			ar.EnsureRead(pData, nElementsToRead*sizeof(TYPE));

  0008d	8d 04 9d 00 00
	00 00		 lea	 eax, DWORD PTR [ebx*4]
; File C:\Program Files (x86)\Microsoft Visual Studio\2019\Community\VC\Tools\MSVC\14.29.30133\atlmfc\include\afx.inl

; 399  : 	UINT nRead=Read(lpBuf, nCount);

  00094	50		 push	 eax
  00095	56		 push	 esi
  00096	e8 00 00 00 00	 call	 ?Read@CArchive@@QAEIPAXI@Z ; CArchive::Read

; 400  : 	if(nRead!=nCount)

  0009b	8d 0c 9d 00 00
	00 00		 lea	 ecx, DWORD PTR [ebx*4]
  000a2	3b c1		 cmp	 eax, ecx
  000a4	0f 85 d6 00 00
	00		 jne	 $LN59@Serialize
; File C:\Program Files (x86)\Microsoft Visual Studio\2019\Community\VC\Tools\MSVC\14.29.30133\atlmfc\include\afxtempl.h

; 97   : 		while( nElementsLeft > 0 )

  000aa	03 f1		 add	 esi, ecx
  000ac	8b 4d 08	 mov	 ecx, DWORD PTR _ar$[ebp]

; 103  : 			nElementsLeft -= nElementsToRead;

  000af	2b fb		 sub	 edi, ebx
  000b1	75 d0		 jne	 SHORT $LL18@Serialize
$LN2@Serialize:

; 1177 : 		for (CNode* pNode = m_pNodeHead; pNode != NULL; pNode = pNode->pNext)

  000b3	8b 45 f8	 mov	 eax, DWORD PTR _pNode$1$[ebp]
  000b6	8b 00		 mov	 eax, DWORD PTR [eax]
  000b8	89 45 f8	 mov	 DWORD PTR _pNode$1$[ebp], eax
  000bb	85 c0		 test	 eax, eax
  000bd	0f 85 71 ff ff
	ff		 jne	 $LL4@Serialize

; 1197 : 		}
; 1198 : 	}
; 1199 : }

  000c3	5f		 pop	 edi
  000c4	5e		 pop	 esi
  000c5	5b		 pop	 ebx
  000c6	8b e5		 mov	 esp, ebp
  000c8	5d		 pop	 ebp
  000c9	c2 04 00	 ret	 4
$LN7@Serialize:

; 1186 : 			SerializeElements<TYPE>(ar, pData, 1);
; 1187 : 		}
; 1188 : 	}
; 1189 : 	else
; 1190 : 	{
; 1191 : 		DWORD_PTR nNewCount = ar.ReadCount();

  000cc	e8 00 00 00 00	 call	 ?ReadCount@CArchive@@QAEKXZ ; CArchive::ReadCount

; 1192 : 		while (nNewCount--)

  000d1	85 c0		 test	 eax, eax
  000d3	0f 84 9e 00 00
	00		 je	 $LN68@Serialize
  000d9	0f 1f 80 00 00
	00 00		 npad	 7
$LL5@Serialize:
  000e0	48		 dec	 eax
  000e1	89 45 f0	 mov	 DWORD PTR _nNewCount$1$[ebp], eax
; File C:\Program Files (x86)\Microsoft Visual Studio\2019\Community\VC\Tools\MSVC\14.29.30133\atlmfc\include\afx.inl

; 212  : 	{ return (m_nMode & CArchive::load) == 0; }

  000e4	8b 45 08	 mov	 eax, DWORD PTR _ar$[ebp]
  000e7	8b 48 18	 mov	 ecx, DWORD PTR [eax+24]
  000ea	f7 d1		 not	 ecx
  000ec	f6 c1 01	 test	 cl, 1
; File C:\Program Files (x86)\Microsoft Visual Studio\2019\Community\VC\Tools\MSVC\14.29.30133\atlmfc\include\afxtempl.h

; 73   : 	if (ar.IsStoring())

  000ef	74 3a		 je	 SHORT $LN42@Serialize

; 79   : 		pData = pElements;

  000f1	8d 4d f4	 lea	 ecx, DWORD PTR _newData$1[ebp]
  000f4	bb 01 00 00 00	 mov	 ebx, 1
  000f9	89 4d f8	 mov	 DWORD PTR _pData$1$[ebp], ecx
  000fc	0f 1f 40 00	 npad	 4
$LL37@Serialize:

; 80   : 		while( nElementsLeft > 0 )
; 81   : 		{
; 82   : 			UINT nElementsToWrite;
; 83   : 
; 84   : 			nElementsToWrite = UINT(__min(nElementsLeft, INT_MAX/sizeof(TYPE)));

  00100	bf ff ff ff 1f	 mov	 edi, 536870911		; 1fffffffH
  00105	3b df		 cmp	 ebx, edi
  00107	0f 42 fb	 cmovb	 edi, ebx

; 85   : 			ar.Write(pData, nElementsToWrite*sizeof(TYPE));

  0010a	8d 34 bd 00 00
	00 00		 lea	 esi, DWORD PTR [edi*4]
  00111	56		 push	 esi
  00112	51		 push	 ecx
  00113	8b c8		 mov	 ecx, eax
  00115	e8 00 00 00 00	 call	 ?Write@CArchive@@QAEXPBXI@Z ; CArchive::Write

; 87   : 			pData += nElementsToWrite;

  0011a	8b 4d f8	 mov	 ecx, DWORD PTR _pData$1$[ebp]
  0011d	8b 45 08	 mov	 eax, DWORD PTR _ar$[ebp]
  00120	03 ce		 add	 ecx, esi
  00122	89 4d f8	 mov	 DWORD PTR _pData$1$[ebp], ecx
  00125	2b df		 sub	 ebx, edi
  00127	75 d7		 jne	 SHORT $LL37@Serialize

; 88   : 		}
; 89   : 	}

  00129	eb 36		 jmp	 SHORT $LN40@Serialize
$LN42@Serialize:

; 90   : 	else
; 91   : 	{
; 92   : 		TYPE* pData;
; 93   : 		UINT_PTR nElementsLeft;
; 94   : 
; 95   : 		nElementsLeft = nCount;

  0012b	be 01 00 00 00	 mov	 esi, 1

; 96   : 		pData = pElements;

  00130	8d 5d f4	 lea	 ebx, DWORD PTR _newData$1[ebp]
$LL39@Serialize:

; 98   : 		{
; 99   : 			UINT nElementsToRead;
; 100  : 
; 101  : 			nElementsToRead = UINT(__min(nElementsLeft, INT_MAX/sizeof(TYPE)));

  00133	bf ff ff ff 1f	 mov	 edi, 536870911		; 1fffffffH
  00138	3b f7		 cmp	 esi, edi
  0013a	0f 42 fe	 cmovb	 edi, esi

; 102  : 			ar.EnsureRead(pData, nElementsToRead*sizeof(TYPE));

  0013d	8d 0c bd 00 00
	00 00		 lea	 ecx, DWORD PTR [edi*4]
; File C:\Program Files (x86)\Microsoft Visual Studio\2019\Community\VC\Tools\MSVC\14.29.30133\atlmfc\include\afx.inl

; 399  : 	UINT nRead=Read(lpBuf, nCount);

  00144	51		 push	 ecx
  00145	53		 push	 ebx
  00146	8b c8		 mov	 ecx, eax
  00148	e8 00 00 00 00	 call	 ?Read@CArchive@@QAEIPAXI@Z ; CArchive::Read

; 400  : 	if(nRead!=nCount)

  0014d	8d 0c bd 00 00
	00 00		 lea	 ecx, DWORD PTR [edi*4]
  00154	3b c1		 cmp	 eax, ecx
  00156	75 28		 jne	 SHORT $LN59@Serialize
; File C:\Program Files (x86)\Microsoft Visual Studio\2019\Community\VC\Tools\MSVC\14.29.30133\atlmfc\include\afxtempl.h

; 104  : 			pData += nElementsToRead;

  00158	8b 45 08	 mov	 eax, DWORD PTR _ar$[ebp]
  0015b	03 d9		 add	 ebx, ecx
  0015d	2b f7		 sub	 esi, edi
  0015f	75 d2		 jne	 SHORT $LL39@Serialize
$LN40@Serialize:

; 1193 : 		{
; 1194 : 			TYPE newData[1];
; 1195 : 			SerializeElements<TYPE>(ar, newData, 1);
; 1196 : 			AddTail(newData[0]);

  00161	ff 75 f4	 push	 DWORD PTR _newData$1[ebp]
  00164	8b 4d fc	 mov	 ecx, DWORD PTR _this$1$[ebp]
  00167	e8 00 00 00 00	 call	 ?AddTail@?$CList@PAVCIndiInfoData@@PAV1@@@QAEPAU__POSITION@@PAVCIndiInfoData@@@Z ; CList<CIndiInfoData *,CIndiInfoData *>::AddTail
  0016c	8b 45 f0	 mov	 eax, DWORD PTR _nNewCount$1$[ebp]
  0016f	85 c0		 test	 eax, eax
  00171	0f 85 69 ff ff
	ff		 jne	 $LL5@Serialize
$LN68@Serialize:
  00177	5f		 pop	 edi

; 1197 : 		}
; 1198 : 	}
; 1199 : }

  00178	5e		 pop	 esi
  00179	5b		 pop	 ebx
  0017a	8b e5		 mov	 esp, ebp
  0017c	5d		 pop	 ebp
  0017d	c2 04 00	 ret	 4
$LN59@Serialize:
  00180	6a 00		 push	 0
  00182	6a 03		 push	 3
  00184	e8 00 00 00 00	 call	 ?AfxThrowArchiveException@@YGXHPBD@Z ; AfxThrowArchiveException
$LN60@Serialize:

; 68   : 	ENSURE(nCount == 0 || pElements != NULL);

  00189	e8 00 00 00 00	 call	 ?AfxThrowInvalidArgException@@YGXXZ ; AfxThrowInvalidArgException
$LN85@Serialize:
  0018e	cc		 int	 3
?Serialize@?$CList@PAVCIndiInfoData@@PAV1@@@UAEXAAVCArchive@@@Z ENDP ; CList<CIndiInfoData *,CIndiInfoData *>::Serialize
_TEXT	ENDS
; Function compile flags: /Ogtp
; File C:\Program Files (x86)\Microsoft Visual Studio\2019\Community\VC\Tools\MSVC\14.29.30133\atlmfc\include\afxtempl.h
;	COMDAT ??1?$CList@PAVCIndiInfoData@@PAV1@@@UAE@XZ
_TEXT	SEGMENT
__$EHRec$ = -12						; size = 12
??1?$CList@PAVCIndiInfoData@@PAV1@@@UAE@XZ PROC		; CList<CIndiInfoData *,CIndiInfoData *>::~CList<CIndiInfoData *,CIndiInfoData *>, COMDAT
; _this$ = ecx

; 878  : {

  00000	55		 push	 ebp
  00001	8b ec		 mov	 ebp, esp
  00003	6a ff		 push	 -1
  00005	68 00 00 00 00	 push	 __ehhandler$??1?$CList@PAVCIndiInfoData@@PAV1@@@UAE@XZ
  0000a	64 a1 00 00 00
	00		 mov	 eax, DWORD PTR fs:0
  00010	50		 push	 eax
  00011	56		 push	 esi
  00012	a1 00 00 00 00	 mov	 eax, DWORD PTR ___security_cookie
  00017	33 c5		 xor	 eax, ebp
  00019	50		 push	 eax
  0001a	8d 45 f4	 lea	 eax, DWORD PTR __$EHRec$[ebp]
  0001d	64 a3 00 00 00
	00		 mov	 DWORD PTR fs:0, eax
  00023	8b f1		 mov	 esi, ecx

; 872  : 	m_pBlocks->FreeDataChain();

  00025	8b 4e 14	 mov	 ecx, DWORD PTR [esi+20]

; 878  : {

  00028	c7 06 00 00 00
	00		 mov	 DWORD PTR [esi], OFFSET ??_7?$CList@PAVCIndiInfoData@@PAV1@@@6B@

; 870  : 	m_nCount = 0;

  0002e	c7 46 0c 00 00
	00 00		 mov	 DWORD PTR [esi+12], 0

; 871  : 	m_pNodeHead = m_pNodeTail = m_pNodeFree = NULL;

  00035	c7 46 10 00 00
	00 00		 mov	 DWORD PTR [esi+16], 0
  0003c	c7 46 08 00 00
	00 00		 mov	 DWORD PTR [esi+8], 0
  00043	c7 46 04 00 00
	00 00		 mov	 DWORD PTR [esi+4], 0

; 872  : 	m_pBlocks->FreeDataChain();

  0004a	e8 00 00 00 00	 call	 ?FreeDataChain@CPlex@@QAEXXZ ; CPlex::FreeDataChain

; 873  : 	m_pBlocks = NULL;

  0004f	c7 46 14 00 00
	00 00		 mov	 DWORD PTR [esi+20], 0

; 879  : 	RemoveAll();
; 880  : 	ASSERT(m_nCount == 0);
; 881  : }

  00056	8b 4d f4	 mov	 ecx, DWORD PTR __$EHRec$[ebp]
  00059	64 89 0d 00 00
	00 00		 mov	 DWORD PTR fs:0, ecx
  00060	59		 pop	 ecx
  00061	5e		 pop	 esi
  00062	8b e5		 mov	 esp, ebp
  00064	5d		 pop	 ebp
  00065	c3		 ret	 0
  00066	cc		 int	 3
  00067	cc		 int	 3
  00068	cc		 int	 3
  00069	cc		 int	 3
  0006a	cc		 int	 3
_TEXT	ENDS
;	COMDAT text$x
text$x	SEGMENT
__ehhandler$??1?$CList@PAVCIndiInfoData@@PAV1@@@UAE@XZ:
  00000	90		 npad	 1
  00001	90		 npad	 1
  00002	8b 54 24 08	 mov	 edx, DWORD PTR [esp+8]
  00006	8d 42 0c	 lea	 eax, DWORD PTR [edx+12]
  00009	8b 4a f8	 mov	 ecx, DWORD PTR [edx-8]
  0000c	33 c8		 xor	 ecx, eax
  0000e	e8 00 00 00 00	 call	 @__security_check_cookie@4
  00013	b8 00 00 00 00	 mov	 eax, OFFSET __ehfuncinfo$??1?$CList@PAVCIndiInfoData@@PAV1@@@UAE@XZ
  00018	e9 00 00 00 00	 jmp	 ___CxxFrameHandler3
text$x	ENDS
??1?$CList@PAVCIndiInfoData@@PAV1@@@UAE@XZ ENDP		; CList<CIndiInfoData *,CIndiInfoData *>::~CList<CIndiInfoData *,CIndiInfoData *>
; Function compile flags: /Ogtp
; File C:\Program Files (x86)\Microsoft Visual Studio\2019\Community\VC\Tools\MSVC\14.29.30133\atlmfc\include\afxtempl.h
;	COMDAT ?NewNode@?$CList@PAVCIndiInfoData@@PAV1@@@IAEPAUCNode@1@PAU21@0@Z
_TEXT	SEGMENT
_pPrev$ = 8						; size = 4
_pNext$ = 12						; size = 4
?NewNode@?$CList@PAVCIndiInfoData@@PAV1@@@IAEPAUCNode@1@PAU21@0@Z PROC ; CList<CIndiInfoData *,CIndiInfoData *>::NewNode, COMDAT
; _this$ = ecx

; 901  : {

  00000	55		 push	 ebp
  00001	8b ec		 mov	 ebp, esp
  00003	56		 push	 esi
  00004	8b f1		 mov	 esi, ecx

; 902  : 	if (m_pNodeFree == NULL)

  00006	83 7e 10 00	 cmp	 DWORD PTR [esi+16], 0
  0000a	75 34		 jne	 SHORT $LN7@NewNode

; 903  : 	{
; 904  : 		// add another block
; 905  : 		CPlex* pNewBlock = CPlex::Create(m_pBlocks, m_nBlockSize,

  0000c	6a 0c		 push	 12			; 0000000cH
  0000e	ff 76 18	 push	 DWORD PTR [esi+24]
  00011	8d 46 14	 lea	 eax, DWORD PTR [esi+20]
  00014	50		 push	 eax
  00015	e8 00 00 00 00	 call	 ?Create@CPlex@@SGPAU1@AAPAU1@II@Z ; CPlex::Create

; 906  : 				 sizeof(CNode));
; 907  : 
; 908  : 		// chain them into free list
; 909  : 		CNode* pNode = (CNode*) pNewBlock->data();
; 910  : 		// free in reverse order to make it easier to debug
; 911  : 		pNode += m_nBlockSize - 1;

  0001a	8b 56 18	 mov	 edx, DWORD PTR [esi+24]
  0001d	83 c0 08	 add	 eax, 8
  00020	8d 0c 52	 lea	 ecx, DWORD PTR [edx+edx*2]
  00023	8d 04 88	 lea	 eax, DWORD PTR [eax+ecx*4]
  00026	83 c0 f4	 add	 eax, -12		; fffffff4H

; 912  : 		for (INT_PTR i = m_nBlockSize-1; i >= 0; i--, pNode--)

  00029	83 c2 ff	 add	 edx, -1
  0002c	78 12		 js	 SHORT $LN7@NewNode
  0002e	66 90		 npad	 2
$LL4@NewNode:

; 913  : 		{
; 914  : 			pNode->pNext = m_pNodeFree;

  00030	8b 4e 10	 mov	 ecx, DWORD PTR [esi+16]
  00033	89 08		 mov	 DWORD PTR [eax], ecx

; 915  : 			m_pNodeFree = pNode;

  00035	89 46 10	 mov	 DWORD PTR [esi+16], eax
  00038	83 e8 0c	 sub	 eax, 12			; 0000000cH
  0003b	83 ea 01	 sub	 edx, 1
  0003e	79 f0		 jns	 SHORT $LL4@NewNode
$LN7@NewNode:

; 916  : 		}
; 917  : 	}
; 918  : 	ENSURE(m_pNodeFree != NULL);  // we must have something

  00040	8b 46 10	 mov	 eax, DWORD PTR [esi+16]
  00043	85 c0		 test	 eax, eax
  00045	74 18		 je	 SHORT $LN17@NewNode

; 919  : 
; 920  : 	CList::CNode* pNode = m_pNodeFree;
; 921  : 	m_pNodeFree = m_pNodeFree->pNext;

  00047	8b 08		 mov	 ecx, DWORD PTR [eax]
  00049	89 4e 10	 mov	 DWORD PTR [esi+16], ecx

; 922  : 	pNode->pPrev = pPrev;

  0004c	8b 4d 08	 mov	 ecx, DWORD PTR _pPrev$[ebp]
  0004f	89 48 04	 mov	 DWORD PTR [eax+4], ecx

; 923  : 	pNode->pNext = pNext;

  00052	8b 4d 0c	 mov	 ecx, DWORD PTR _pNext$[ebp]
  00055	89 08		 mov	 DWORD PTR [eax], ecx

; 924  : 	m_nCount++;

  00057	ff 46 0c	 inc	 DWORD PTR [esi+12]

; 925  : 	ASSERT(m_nCount > 0);  // make sure we don't overflow
; 926  : 
; 927  : #pragma push_macro("new")
; 928  : #undef new
; 929  : 	::new( (void*)( &pNode->data ) ) TYPE;
; 930  : #pragma pop_macro("new")
; 931  : 	return pNode;

  0005a	5e		 pop	 esi

; 932  : }

  0005b	5d		 pop	 ebp
  0005c	c2 08 00	 ret	 8
$LN17@NewNode:

; 916  : 		}
; 917  : 	}
; 918  : 	ENSURE(m_pNodeFree != NULL);  // we must have something

  0005f	e8 00 00 00 00	 call	 ?AfxThrowInvalidArgException@@YGXXZ ; AfxThrowInvalidArgException
$LN15@NewNode:
  00064	cc		 int	 3
?NewNode@?$CList@PAVCIndiInfoData@@PAV1@@@IAEPAUCNode@1@PAU21@0@Z ENDP ; CList<CIndiInfoData *,CIndiInfoData *>::NewNode
_TEXT	ENDS
; Function compile flags: /Ogtp
; File C:\Program Files (x86)\Microsoft Visual Studio\2019\Community\VC\Tools\MSVC\14.29.30133\atlmfc\include\afxtempl.h
;	COMDAT ?RemoveAll@?$CList@PAVCIndiInfoData@@PAV1@@@QAEXXZ
_TEXT	SEGMENT
?RemoveAll@?$CList@PAVCIndiInfoData@@PAV1@@@QAEXXZ PROC	; CList<CIndiInfoData *,CIndiInfoData *>::RemoveAll, COMDAT
; _this$ = ecx

; 862  : {

  00000	56		 push	 esi
  00001	8b f1		 mov	 esi, ecx

; 863  : 	ASSERT_VALID(this);
; 864  : 
; 865  : 	// destroy elements
; 866  : 	CNode* pNode;
; 867  : 	for (pNode = m_pNodeHead; pNode != NULL; pNode = pNode->pNext)
; 868  : 		pNode->data.~TYPE();
; 869  : 
; 870  : 	m_nCount = 0;
; 871  : 	m_pNodeHead = m_pNodeTail = m_pNodeFree = NULL;
; 872  : 	m_pBlocks->FreeDataChain();

  00003	8b 4e 14	 mov	 ecx, DWORD PTR [esi+20]
  00006	c7 46 0c 00 00
	00 00		 mov	 DWORD PTR [esi+12], 0
  0000d	c7 46 10 00 00
	00 00		 mov	 DWORD PTR [esi+16], 0
  00014	c7 46 08 00 00
	00 00		 mov	 DWORD PTR [esi+8], 0
  0001b	c7 46 04 00 00
	00 00		 mov	 DWORD PTR [esi+4], 0
  00022	e8 00 00 00 00	 call	 ?FreeDataChain@CPlex@@QAEXXZ ; CPlex::FreeDataChain

; 873  : 	m_pBlocks = NULL;

  00027	c7 46 14 00 00
	00 00		 mov	 DWORD PTR [esi+20], 0
  0002e	5e		 pop	 esi

; 874  : }

  0002f	c3		 ret	 0
?RemoveAll@?$CList@PAVCIndiInfoData@@PAV1@@@QAEXXZ ENDP	; CList<CIndiInfoData *,CIndiInfoData *>::RemoveAll
_TEXT	ENDS
; Function compile flags: /Ogtp
; File C:\Program Files (x86)\Microsoft Visual Studio\2019\Community\VC\Tools\MSVC\14.29.30133\atlmfc\include\afxtempl.h
;	COMDAT ?AddTail@?$CList@PAVCIndiInfoData@@PAV1@@@QAEPAU__POSITION@@PAVCIndiInfoData@@@Z
_TEXT	SEGMENT
_newElement$ = 8					; size = 4
?AddTail@?$CList@PAVCIndiInfoData@@PAV1@@@QAEPAU__POSITION@@PAVCIndiInfoData@@@Z PROC ; CList<CIndiInfoData *,CIndiInfoData *>::AddTail, COMDAT
; _this$ = ecx

; 965  : {

  00000	55		 push	 ebp
  00001	8b ec		 mov	 ebp, esp
  00003	56		 push	 esi
  00004	8b f1		 mov	 esi, ecx
  00006	57		 push	 edi

; 902  : 	if (m_pNodeFree == NULL)

  00007	83 7e 10 00	 cmp	 DWORD PTR [esi+16], 0

; 966  : 	ASSERT_VALID(this);
; 967  : 
; 968  : 	CNode* pNewNode = NewNode(m_pNodeTail, NULL);

  0000b	8b 7e 08	 mov	 edi, DWORD PTR [esi+8]

; 902  : 	if (m_pNodeFree == NULL)

  0000e	75 32		 jne	 SHORT $LN11@AddTail

; 903  : 	{
; 904  : 		// add another block
; 905  : 		CPlex* pNewBlock = CPlex::Create(m_pBlocks, m_nBlockSize,

  00010	6a 0c		 push	 12			; 0000000cH
  00012	ff 76 18	 push	 DWORD PTR [esi+24]
  00015	8d 46 14	 lea	 eax, DWORD PTR [esi+20]
  00018	50		 push	 eax
  00019	e8 00 00 00 00	 call	 ?Create@CPlex@@SGPAU1@AAPAU1@II@Z ; CPlex::Create

; 906  : 				 sizeof(CNode));
; 907  : 
; 908  : 		// chain them into free list
; 909  : 		CNode* pNode = (CNode*) pNewBlock->data();
; 910  : 		// free in reverse order to make it easier to debug
; 911  : 		pNode += m_nBlockSize - 1;

  0001e	8b 56 18	 mov	 edx, DWORD PTR [esi+24]
  00021	83 c0 08	 add	 eax, 8
  00024	8d 4a ff	 lea	 ecx, DWORD PTR [edx-1]

; 912  : 		for (INT_PTR i = m_nBlockSize-1; i >= 0; i--, pNode--)

  00027	83 c2 ff	 add	 edx, -1
  0002a	8d 0c 49	 lea	 ecx, DWORD PTR [ecx+ecx*2]
  0002d	8d 0c 88	 lea	 ecx, DWORD PTR [eax+ecx*4]
  00030	78 10		 js	 SHORT $LN11@AddTail
$LL8@AddTail:

; 913  : 		{
; 914  : 			pNode->pNext = m_pNodeFree;

  00032	8b 46 10	 mov	 eax, DWORD PTR [esi+16]
  00035	89 01		 mov	 DWORD PTR [ecx], eax

; 915  : 			m_pNodeFree = pNode;

  00037	89 4e 10	 mov	 DWORD PTR [esi+16], ecx
  0003a	83 e9 0c	 sub	 ecx, 12			; 0000000cH
  0003d	83 ea 01	 sub	 edx, 1
  00040	79 f0		 jns	 SHORT $LL8@AddTail
$LN11@AddTail:

; 916  : 		}
; 917  : 	}
; 918  : 	ENSURE(m_pNodeFree != NULL);  // we must have something

  00042	8b 4e 10	 mov	 ecx, DWORD PTR [esi+16]
  00045	85 c9		 test	 ecx, ecx
  00047	74 39		 je	 SHORT $LN22@AddTail

; 919  : 
; 920  : 	CList::CNode* pNode = m_pNodeFree;
; 921  : 	m_pNodeFree = m_pNodeFree->pNext;

  00049	8b 01		 mov	 eax, DWORD PTR [ecx]
  0004b	89 46 10	 mov	 DWORD PTR [esi+16], eax

; 969  : 	pNewNode->data = newElement;

  0004e	8b 45 08	 mov	 eax, DWORD PTR _newElement$[ebp]

; 922  : 	pNode->pPrev = pPrev;

  00051	89 79 04	 mov	 DWORD PTR [ecx+4], edi

; 923  : 	pNode->pNext = pNext;

  00054	c7 01 00 00 00
	00		 mov	 DWORD PTR [ecx], 0

; 924  : 	m_nCount++;

  0005a	ff 46 0c	 inc	 DWORD PTR [esi+12]

; 969  : 	pNewNode->data = newElement;

  0005d	89 41 08	 mov	 DWORD PTR [ecx+8], eax

; 970  : 	if (m_pNodeTail != NULL)

  00060	8b 46 08	 mov	 eax, DWORD PTR [esi+8]
  00063	85 c0		 test	 eax, eax
  00065	74 0d		 je	 SHORT $LN2@AddTail

; 971  : 		m_pNodeTail->pNext = pNewNode;

  00067	89 08		 mov	 DWORD PTR [eax], ecx

; 972  : 	else
; 973  : 		m_pNodeHead = pNewNode;
; 974  : 	m_pNodeTail = pNewNode;
; 975  : 	return (POSITION) pNewNode;

  00069	8b c1		 mov	 eax, ecx
  0006b	5f		 pop	 edi
  0006c	89 4e 08	 mov	 DWORD PTR [esi+8], ecx
  0006f	5e		 pop	 esi

; 976  : }

  00070	5d		 pop	 ebp
  00071	c2 04 00	 ret	 4
$LN2@AddTail:

; 972  : 	else
; 973  : 		m_pNodeHead = pNewNode;
; 974  : 	m_pNodeTail = pNewNode;
; 975  : 	return (POSITION) pNewNode;

  00074	5f		 pop	 edi
  00075	89 4e 04	 mov	 DWORD PTR [esi+4], ecx
  00078	8b c1		 mov	 eax, ecx
  0007a	89 4e 08	 mov	 DWORD PTR [esi+8], ecx
  0007d	5e		 pop	 esi

; 976  : }

  0007e	5d		 pop	 ebp
  0007f	c2 04 00	 ret	 4
$LN22@AddTail:

; 918  : 	ENSURE(m_pNodeFree != NULL);  // we must have something

  00082	e8 00 00 00 00	 call	 ?AfxThrowInvalidArgException@@YGXXZ ; AfxThrowInvalidArgException
$LN20@AddTail:
  00087	cc		 int	 3
?AddTail@?$CList@PAVCIndiInfoData@@PAV1@@@QAEPAU__POSITION@@PAVCIndiInfoData@@@Z ENDP ; CList<CIndiInfoData *,CIndiInfoData *>::AddTail
_TEXT	ENDS
; Function compile flags: /Ogtp
; File C:\Program Files (x86)\Microsoft Visual Studio\2019\Community\VC\Tools\MSVC\14.29.30133\atlmfc\include\afxtempl.h
;	COMDAT ??0?$CList@PAVCIndiInfoData@@PAV1@@@QAE@H@Z
_TEXT	SEGMENT
_nBlockSize$ = 8					; size = 4
??0?$CList@PAVCIndiInfoData@@PAV1@@@QAE@H@Z PROC	; CList<CIndiInfoData *,CIndiInfoData *>::CList<CIndiInfoData *,CIndiInfoData *>, COMDAT
; _this$ = ecx

; 851  : {

  00000	55		 push	 ebp
  00001	8b ec		 mov	 ebp, esp

; 852  : 	ASSERT(nBlockSize > 0);
; 853  : 
; 854  : 	m_nCount = 0;
; 855  : 	m_pNodeHead = m_pNodeTail = m_pNodeFree = NULL;
; 856  : 	m_pBlocks = NULL;
; 857  : 	m_nBlockSize = nBlockSize;

  00003	8b 45 08	 mov	 eax, DWORD PTR _nBlockSize$[ebp]
  00006	89 41 18	 mov	 DWORD PTR [ecx+24], eax

; 858  : }

  00009	8b c1		 mov	 eax, ecx
  0000b	c7 01 00 00 00
	00		 mov	 DWORD PTR [ecx], OFFSET ??_7?$CList@PAVCIndiInfoData@@PAV1@@@6B@
  00011	c7 41 0c 00 00
	00 00		 mov	 DWORD PTR [ecx+12], 0
  00018	c7 41 10 00 00
	00 00		 mov	 DWORD PTR [ecx+16], 0
  0001f	c7 41 08 00 00
	00 00		 mov	 DWORD PTR [ecx+8], 0
  00026	c7 41 04 00 00
	00 00		 mov	 DWORD PTR [ecx+4], 0
  0002d	c7 41 14 00 00
	00 00		 mov	 DWORD PTR [ecx+20], 0
  00034	5d		 pop	 ebp
  00035	c2 04 00	 ret	 4
??0?$CList@PAVCIndiInfoData@@PAV1@@@QAE@H@Z ENDP	; CList<CIndiInfoData *,CIndiInfoData *>::CList<CIndiInfoData *,CIndiInfoData *>
_TEXT	ENDS
; Function compile flags: /Ogtp
; File D:\git\src\IBK\IBK_DRFN\ProjSrc\SrcChartEx\ChartAddIn\ChartEnvSetupDlgAddIn\ChartEnvSetupDlgAddIn\OrgViewData.cpp
; File C:\Program Files (x86)\Microsoft Visual Studio\2019\Community\VC\Tools\MSVC\14.29.30133\atlmfc\include\afxtempl.h
; File D:\git\src\IBK\IBK_DRFN\ProjSrc\SrcChartEx\ChartAddIn\ChartEnvSetupDlgAddIn\ChartEnvSetupDlgAddIn\OrgViewData.cpp
; File C:\Program Files (x86)\Microsoft Visual Studio\2019\Community\VC\Tools\MSVC\14.29.30133\atlmfc\include\cstringt.h
; File D:\git\src\IBK\IBK_DRFN\ProjSrc\SrcChartEx\ChartAddIn\ChartEnvSetupDlgAddIn\ChartEnvSetupDlgAddIn\OrgViewData.cpp
; File C:\Program Files (x86)\Microsoft Visual Studio\2019\Community\VC\Tools\MSVC\14.29.30133\atlmfc\include\cstringt.h
; File D:\git\src\IBK\IBK_DRFN\ProjSrc\SrcChartEx\ChartAddIn\ChartEnvSetupDlgAddIn\ChartEnvSetupDlgAddIn\OrgViewData.cpp
; File C:\Program Files (x86)\Microsoft Visual Studio\2019\Community\VC\Tools\MSVC\14.29.30133\atlmfc\include\cstringt.h
; File D:\git\src\IBK\IBK_DRFN\ProjSrc\SrcChartEx\ChartAddIn\ChartEnvSetupDlgAddIn\ChartEnvSetupDlgAddIn\OrgViewData.cpp
;	COMDAT ?IsIndiInfoData@CIndiInfoDataList@@QBE_NPBD@Z
_TEXT	SEGMENT
__$EHRec$ = -12						; size = 12
$T2 = 8							; size = 4
_p_szGraphName$ = 8					; size = 4
?IsIndiInfoData@CIndiInfoDataList@@QBE_NPBD@Z PROC	; CIndiInfoDataList::IsIndiInfoData, COMDAT
; _this$ = ecx

; 261  : {

  00000	55		 push	 ebp
  00001	8b ec		 mov	 ebp, esp
  00003	6a ff		 push	 -1
  00005	68 00 00 00 00	 push	 __ehhandler$?IsIndiInfoData@CIndiInfoDataList@@QBE_NPBD@Z
  0000a	64 a1 00 00 00
	00		 mov	 eax, DWORD PTR fs:0
  00010	50		 push	 eax
  00011	53		 push	 ebx
  00012	56		 push	 esi
  00013	57		 push	 edi
  00014	a1 00 00 00 00	 mov	 eax, DWORD PTR ___security_cookie
  00019	33 c5		 xor	 eax, ebp
  0001b	50		 push	 eax
  0001c	8d 45 f4	 lea	 eax, DWORD PTR __$EHRec$[ebp]
  0001f	64 a3 00 00 00
	00		 mov	 DWORD PTR fs:0, eax

; 262  : 	if( !p_szGraphName) return false;

  00025	8b 5d 08	 mov	 ebx, DWORD PTR _p_szGraphName$[ebp]
  00028	85 db		 test	 ebx, ebx
  0002a	74 4a		 je	 SHORT $LN33@IsIndiInfo

; 263  : 	if( !*p_szGraphName) return false;

  0002c	80 3b 00	 cmp	 BYTE PTR [ebx], 0
  0002f	74 45		 je	 SHORT $LN33@IsIndiInfo

; 264  : 
; 265  : 	POSITION pos = m_indiInfoDataList.GetHeadPosition();

  00031	8b 71 08	 mov	 esi, DWORD PTR [ecx+8]

; 266  : 	while(pos != NULL)

  00034	85 f6		 test	 esi, esi
  00036	74 3e		 je	 SHORT $LN33@IsIndiInfo
$LL2@IsIndiInfo:
; File C:\Program Files (x86)\Microsoft Visual Studio\2019\Community\VC\Tools\MSVC\14.29.30133\atlmfc\include\afxtempl.h

; 817  : 	{ CNode* pNode = (CNode*) rPosition;

  00038	8b c6		 mov	 eax, esi

; 818  : 		ASSERT(AfxIsValidAddress(pNode, sizeof(CNode)));
; 819  : 		rPosition = (POSITION) pNode->pNext;

  0003a	8b 36		 mov	 esi, DWORD PTR [esi]
; File D:\git\src\IBK\IBK_DRFN\ProjSrc\SrcChartEx\ChartAddIn\ChartEnvSetupDlgAddIn\ChartEnvSetupDlgAddIn\OrgViewData.cpp

; 268  : 		CIndiInfoData* pIndiInfoData = m_indiInfoDataList.GetNext(pos);

  0003c	8b 48 08	 mov	 ecx, DWORD PTR [eax+8]

; 269  : 		if(pIndiInfoData == NULL)

  0003f	85 c9		 test	 ecx, ecx
  00041	74 2f		 je	 SHORT $LN7@IsIndiInfo

; 272  : 		if( pIndiInfoData->GetGraphName() == p_szGraphName)

  00043	8d 45 08	 lea	 eax, DWORD PTR $T2[ebp]
  00046	50		 push	 eax
  00047	e8 00 00 00 00	 call	 ?GetGraphName@CIndiInfoData@@QBE?AV?$CStringT@DV?$StrTraitMFC_DLL@DV?$ChTraitsCRT@D@ATL@@@@@ATL@@XZ ; CIndiInfoData::GetGraphName
; File C:\Program Files (x86)\Microsoft Visual Studio\2019\Community\VC\Tools\MSVC\14.29.30133\atlmfc\include\cstringt.h

; 2486 : 		return(str1.Compare(psz2) == 0);

  0004c	53		 push	 ebx
  0004d	8b c8		 mov	 ecx, eax
; File D:\git\src\IBK\IBK_DRFN\ProjSrc\SrcChartEx\ChartAddIn\ChartEnvSetupDlgAddIn\ChartEnvSetupDlgAddIn\OrgViewData.cpp

; 272  : 		if( pIndiInfoData->GetGraphName() == p_szGraphName)

  0004f	c7 45 fc 00 00
	00 00		 mov	 DWORD PTR __$EHRec$[ebp+8], 0
; File C:\Program Files (x86)\Microsoft Visual Studio\2019\Community\VC\Tools\MSVC\14.29.30133\atlmfc\include\cstringt.h

; 2486 : 		return(str1.Compare(psz2) == 0);

  00056	ff 15 00 00 00
	00		 call	 DWORD PTR __imp_?Compare@?$CStringT@DV?$StrTraitMFC_DLL@DV?$ChTraitsCRT@D@ATL@@@@@ATL@@QBEHPBD@Z
; File D:\git\src\IBK\IBK_DRFN\ProjSrc\SrcChartEx\ChartAddIn\ChartEnvSetupDlgAddIn\ChartEnvSetupDlgAddIn\OrgViewData.cpp

; 272  : 		if( pIndiInfoData->GetGraphName() == p_szGraphName)

  0005c	8d 4d 08	 lea	 ecx, DWORD PTR $T2[ebp]
  0005f	c7 45 fc ff ff
	ff ff		 mov	 DWORD PTR __$EHRec$[ebp+8], -1
; File C:\Program Files (x86)\Microsoft Visual Studio\2019\Community\VC\Tools\MSVC\14.29.30133\atlmfc\include\cstringt.h

; 2486 : 		return(str1.Compare(psz2) == 0);

  00066	8b f8		 mov	 edi, eax
; File D:\git\src\IBK\IBK_DRFN\ProjSrc\SrcChartEx\ChartAddIn\ChartEnvSetupDlgAddIn\ChartEnvSetupDlgAddIn\OrgViewData.cpp

; 272  : 		if( pIndiInfoData->GetGraphName() == p_szGraphName)

  00068	ff 15 00 00 00
	00		 call	 DWORD PTR __imp_??1?$CStringT@DV?$StrTraitMFC_DLL@DV?$ChTraitsCRT@D@ATL@@@@@ATL@@QAE@XZ
  0006e	85 ff		 test	 edi, edi
  00070	74 1a		 je	 SHORT $LN30@IsIndiInfo
$LN7@IsIndiInfo:

; 266  : 	while(pos != NULL)

  00072	85 f6		 test	 esi, esi
  00074	75 c2		 jne	 SHORT $LL2@IsIndiInfo
$LN33@IsIndiInfo:

; 274  : 	}
; 275  : 
; 276  : 	return false;

  00076	32 c0		 xor	 al, al

; 277  : }

  00078	8b 4d f4	 mov	 ecx, DWORD PTR __$EHRec$[ebp]
  0007b	64 89 0d 00 00
	00 00		 mov	 DWORD PTR fs:0, ecx
  00082	59		 pop	 ecx
  00083	5f		 pop	 edi
  00084	5e		 pop	 esi
  00085	5b		 pop	 ebx
  00086	8b e5		 mov	 esp, ebp
  00088	5d		 pop	 ebp
  00089	c2 04 00	 ret	 4
$LN30@IsIndiInfo:

; 273  : 			return true;

  0008c	b0 01		 mov	 al, 1

; 277  : }

  0008e	8b 4d f4	 mov	 ecx, DWORD PTR __$EHRec$[ebp]
  00091	64 89 0d 00 00
	00 00		 mov	 DWORD PTR fs:0, ecx
  00098	59		 pop	 ecx
  00099	5f		 pop	 edi
  0009a	5e		 pop	 esi
  0009b	5b		 pop	 ebx
  0009c	8b e5		 mov	 esp, ebp
  0009e	5d		 pop	 ebp
  0009f	c2 04 00	 ret	 4
_TEXT	ENDS
;	COMDAT text$x
text$x	SEGMENT
__unwindfunclet$?IsIndiInfoData@CIndiInfoDataList@@QBE_NPBD@Z$0:
  00000	8d 4d 08	 lea	 ecx, DWORD PTR $T2[ebp]
  00003	ff 25 00 00 00
	00		 jmp	 DWORD PTR __imp_??1?$CStringT@DV?$StrTraitMFC_DLL@DV?$ChTraitsCRT@D@ATL@@@@@ATL@@QAE@XZ
  00009	cc		 int	 3
  0000a	cc		 int	 3
  0000b	cc		 int	 3
  0000c	cc		 int	 3
  0000d	cc		 int	 3
__ehhandler$?IsIndiInfoData@CIndiInfoDataList@@QBE_NPBD@Z:
  0000e	90		 npad	 1
  0000f	90		 npad	 1
  00010	8b 54 24 08	 mov	 edx, DWORD PTR [esp+8]
  00014	8d 42 0c	 lea	 eax, DWORD PTR [edx+12]
  00017	8b 4a f0	 mov	 ecx, DWORD PTR [edx-16]
  0001a	33 c8		 xor	 ecx, eax
  0001c	e8 00 00 00 00	 call	 @__security_check_cookie@4
  00021	b8 00 00 00 00	 mov	 eax, OFFSET __ehfuncinfo$?IsIndiInfoData@CIndiInfoDataList@@QBE_NPBD@Z
  00026	e9 00 00 00 00	 jmp	 ___CxxFrameHandler3
text$x	ENDS
?IsIndiInfoData@CIndiInfoDataList@@QBE_NPBD@Z ENDP	; CIndiInfoDataList::IsIndiInfoData
; Function compile flags: /Ogtp
; File D:\git\src\IBK\IBK_DRFN\ProjSrc\SrcChartEx\ChartAddIn\ChartEnvSetupDlgAddIn\ChartEnvSetupDlgAddIn\OrgViewData.cpp
; File C:\Program Files (x86)\Microsoft Visual Studio\2019\Community\VC\Tools\MSVC\14.29.30133\atlmfc\include\afxtempl.h
; File D:\git\src\IBK\IBK_DRFN\ProjSrc\SrcChartEx\ChartAddIn\ChartEnvSetupDlgAddIn\ChartEnvSetupDlgAddIn\OrgViewData.cpp
; File C:\Program Files (x86)\Microsoft Visual Studio\2019\Community\VC\Tools\MSVC\14.29.30133\atlmfc\include\afxtempl.h
; File D:\git\src\IBK\IBK_DRFN\ProjSrc\SrcChartEx\ChartAddIn\ChartEnvSetupDlgAddIn\ChartEnvSetupDlgAddIn\OrgViewData.cpp
; File C:\Program Files (x86)\Microsoft Visual Studio\2019\Community\VC\Tools\MSVC\14.29.30133\atlmfc\include\afxtempl.h
; File D:\git\src\IBK\IBK_DRFN\ProjSrc\SrcChartEx\ChartAddIn\ChartEnvSetupDlgAddIn\ChartEnvSetupDlgAddIn\OrgViewData.cpp
;	COMDAT ?GetIndiInfoIntheSave@CIndiInfoDataList@@QBE_NAAV?$CList@PAUIGraphInfo135914@@PAU1@@@@Z
_TEXT	SEGMENT
_indiInfoList$ = 8					; size = 4
?GetIndiInfoIntheSave@CIndiInfoDataList@@QBE_NAAV?$CList@PAUIGraphInfo135914@@PAU1@@@@Z PROC ; CIndiInfoDataList::GetIndiInfoIntheSave, COMDAT
; _this$ = ecx

; 245  : {

  00000	55		 push	 ebp
  00001	8b ec		 mov	 ebp, esp
  00003	53		 push	 ebx
; File C:\Program Files (x86)\Microsoft Visual Studio\2019\Community\VC\Tools\MSVC\14.29.30133\atlmfc\include\afxtempl.h

; 870  : 	m_nCount = 0;

  00004	8b 5d 08	 mov	 ebx, DWORD PTR _indiInfoList$[ebp]
; File D:\git\src\IBK\IBK_DRFN\ProjSrc\SrcChartEx\ChartAddIn\ChartEnvSetupDlgAddIn\ChartEnvSetupDlgAddIn\OrgViewData.cpp

; 245  : {

  00007	56		 push	 esi
  00008	8b f1		 mov	 esi, ecx
; File C:\Program Files (x86)\Microsoft Visual Studio\2019\Community\VC\Tools\MSVC\14.29.30133\atlmfc\include\afxtempl.h

; 872  : 	m_pBlocks->FreeDataChain();

  0000a	8b 4b 14	 mov	 ecx, DWORD PTR [ebx+20]
  0000d	c7 43 0c 00 00
	00 00		 mov	 DWORD PTR [ebx+12], 0
  00014	c7 43 10 00 00
	00 00		 mov	 DWORD PTR [ebx+16], 0
  0001b	c7 43 08 00 00
	00 00		 mov	 DWORD PTR [ebx+8], 0
  00022	c7 43 04 00 00
	00 00		 mov	 DWORD PTR [ebx+4], 0
  00029	e8 00 00 00 00	 call	 ?FreeDataChain@CPlex@@QAEXXZ ; CPlex::FreeDataChain

; 873  : 	m_pBlocks = NULL;

  0002e	c7 43 14 00 00
	00 00		 mov	 DWORD PTR [ebx+20], 0
; File D:\git\src\IBK\IBK_DRFN\ProjSrc\SrcChartEx\ChartAddIn\ChartEnvSetupDlgAddIn\ChartEnvSetupDlgAddIn\OrgViewData.cpp

; 248  : 	POSITION pos = m_indiInfoDataList.GetHeadPosition();

  00035	8b 76 08	 mov	 esi, DWORD PTR [esi+8]

; 249  : 	while(pos != NULL)

  00038	85 f6		 test	 esi, esi
  0003a	74 2a		 je	 SHORT $LN3@GetIndiInf
  0003c	57		 push	 edi
  0003d	0f 1f 00	 npad	 3
$LL2@GetIndiInf:

; 250  : 	{
; 251  : 		CIndiInfoData* pIndiInfoData = m_indiInfoDataList.GetNext(pos);

  00040	8b 7e 08	 mov	 edi, DWORD PTR [esi+8]
; File C:\Program Files (x86)\Microsoft Visual Studio\2019\Community\VC\Tools\MSVC\14.29.30133\atlmfc\include\afxtempl.h

; 819  : 		rPosition = (POSITION) pNode->pNext;

  00043	8b 36		 mov	 esi, DWORD PTR [esi]
; File D:\git\src\IBK\IBK_DRFN\ProjSrc\SrcChartEx\ChartAddIn\ChartEnvSetupDlgAddIn\ChartEnvSetupDlgAddIn\OrgViewData.cpp

; 252  : 		if( pIndiInfoData != NULL )

  00045	85 ff		 test	 edi, edi
  00047	74 18		 je	 SHORT $LN4@GetIndiInf

; 65   : 	if( m_pIGraphInfo) m_pIGraphInfo->AddRef();

  00049	8b 4f 08	 mov	 ecx, DWORD PTR [edi+8]
  0004c	85 c9		 test	 ecx, ecx
  0004e	74 09		 je	 SHORT $LN14@GetIndiInf
  00050	8b 01		 mov	 eax, DWORD PTR [ecx]
  00052	51		 push	 ecx
  00053	ff 50 04	 call	 DWORD PTR [eax+4]
  00056	8b 4f 08	 mov	 ecx, DWORD PTR [edi+8]
$LN14@GetIndiInf:

; 253  : 			indiInfoList.AddTail(pIndiInfoData->GetIGraphInfo());

  00059	51		 push	 ecx
  0005a	8b cb		 mov	 ecx, ebx
  0005c	e8 00 00 00 00	 call	 ?AddTail@?$CList@PAUIGraphInfo135914@@PAU1@@@QAEPAU__POSITION@@PAUIGraphInfo135914@@@Z ; CList<IGraphInfo135914 *,IGraphInfo135914 *>::AddTail
$LN4@GetIndiInf:

; 249  : 	while(pos != NULL)

  00061	85 f6		 test	 esi, esi
  00063	75 db		 jne	 SHORT $LL2@GetIndiInf
  00065	5f		 pop	 edi
$LN3@GetIndiInf:

; 254  : 	}
; 255  : 
; 256  : 	return (indiInfoList.GetCount() > 0);

  00066	83 7b 0c 00	 cmp	 DWORD PTR [ebx+12], 0
  0006a	5e		 pop	 esi
  0006b	0f 9f c0	 setg	 al
  0006e	5b		 pop	 ebx

; 257  : }

  0006f	5d		 pop	 ebp
  00070	c2 04 00	 ret	 4
?GetIndiInfoIntheSave@CIndiInfoDataList@@QBE_NAAV?$CList@PAUIGraphInfo135914@@PAU1@@@@Z ENDP ; CIndiInfoDataList::GetIndiInfoIntheSave
_TEXT	ENDS
; Function compile flags: /Ogtp
; File D:\git\src\IBK\IBK_DRFN\ProjSrc\SrcChartEx\ChartAddIn\ChartEnvSetupDlgAddIn\ChartEnvSetupDlgAddIn\OrgViewData.cpp
; File C:\Program Files (x86)\Microsoft Visual Studio\2019\Community\VC\Tools\MSVC\14.29.30133\atlmfc\include\afxtempl.h
; File D:\git\src\IBK\IBK_DRFN\ProjSrc\SrcChartEx\ChartAddIn\ChartEnvSetupDlgAddIn\ChartEnvSetupDlgAddIn\OrgViewData.cpp
; File C:\Program Files (x86)\Microsoft Visual Studio\2019\Community\VC\Tools\MSVC\14.29.30133\atlmfc\include\afxtempl.h
; File D:\git\src\IBK\IBK_DRFN\ProjSrc\SrcChartEx\ChartAddIn\ChartEnvSetupDlgAddIn\ChartEnvSetupDlgAddIn\OrgViewData.cpp
; File C:\Program Files (x86)\Microsoft Visual Studio\2019\Community\VC\Tools\MSVC\14.29.30133\atlmfc\include\afxtempl.h
; File D:\git\src\IBK\IBK_DRFN\ProjSrc\SrcChartEx\ChartAddIn\ChartEnvSetupDlgAddIn\ChartEnvSetupDlgAddIn\OrgViewData.cpp
;	COMDAT ?GetIndiInfoInTheBeginning@CIndiInfoDataList@@QBE_NAAV?$CList@PAUIGraphInfo135914@@PAU1@@@@Z
_TEXT	SEGMENT
_indiInfoList$ = 8					; size = 4
?GetIndiInfoInTheBeginning@CIndiInfoDataList@@QBE_NAAV?$CList@PAUIGraphInfo135914@@PAU1@@@@Z PROC ; CIndiInfoDataList::GetIndiInfoInTheBeginning, COMDAT
; _this$ = ecx

; 227  : {

  00000	55		 push	 ebp
  00001	8b ec		 mov	 ebp, esp
  00003	53		 push	 ebx
; File C:\Program Files (x86)\Microsoft Visual Studio\2019\Community\VC\Tools\MSVC\14.29.30133\atlmfc\include\afxtempl.h

; 870  : 	m_nCount = 0;

  00004	8b 5d 08	 mov	 ebx, DWORD PTR _indiInfoList$[ebp]
; File D:\git\src\IBK\IBK_DRFN\ProjSrc\SrcChartEx\ChartAddIn\ChartEnvSetupDlgAddIn\ChartEnvSetupDlgAddIn\OrgViewData.cpp

; 227  : {

  00007	56		 push	 esi
  00008	8b f1		 mov	 esi, ecx
; File C:\Program Files (x86)\Microsoft Visual Studio\2019\Community\VC\Tools\MSVC\14.29.30133\atlmfc\include\afxtempl.h

; 872  : 	m_pBlocks->FreeDataChain();

  0000a	8b 4b 14	 mov	 ecx, DWORD PTR [ebx+20]
  0000d	c7 43 0c 00 00
	00 00		 mov	 DWORD PTR [ebx+12], 0
  00014	c7 43 10 00 00
	00 00		 mov	 DWORD PTR [ebx+16], 0
  0001b	c7 43 08 00 00
	00 00		 mov	 DWORD PTR [ebx+8], 0
  00022	c7 43 04 00 00
	00 00		 mov	 DWORD PTR [ebx+4], 0
  00029	e8 00 00 00 00	 call	 ?FreeDataChain@CPlex@@QAEXXZ ; CPlex::FreeDataChain

; 873  : 	m_pBlocks = NULL;

  0002e	c7 43 14 00 00
	00 00		 mov	 DWORD PTR [ebx+20], 0
; File D:\git\src\IBK\IBK_DRFN\ProjSrc\SrcChartEx\ChartAddIn\ChartEnvSetupDlgAddIn\ChartEnvSetupDlgAddIn\OrgViewData.cpp

; 230  : 	POSITION pos = m_indiInfoDataList.GetHeadPosition();

  00035	8b 76 08	 mov	 esi, DWORD PTR [esi+8]

; 231  : 	while(pos != NULL)

  00038	85 f6		 test	 esi, esi
  0003a	74 2c		 je	 SHORT $LN3@GetIndiInf
  0003c	57		 push	 edi
  0003d	0f 1f 00	 npad	 3
$LL2@GetIndiInf:

; 232  : 	{
; 233  : 		CIndiInfoData* pIndiInfoData = m_indiInfoDataList.GetNext(pos);

  00040	8b 7e 08	 mov	 edi, DWORD PTR [esi+8]
; File C:\Program Files (x86)\Microsoft Visual Studio\2019\Community\VC\Tools\MSVC\14.29.30133\atlmfc\include\afxtempl.h

; 819  : 		rPosition = (POSITION) pNode->pNext;

  00043	8b 36		 mov	 esi, DWORD PTR [esi]
; File D:\git\src\IBK\IBK_DRFN\ProjSrc\SrcChartEx\ChartAddIn\ChartEnvSetupDlgAddIn\ChartEnvSetupDlgAddIn\OrgViewData.cpp

; 235  : 		if(pIndiInfoData->IsTheBeginning())

  00045	80 7f 04 00	 cmp	 BYTE PTR [edi+4], 0
  00049	74 18		 je	 SHORT $LN4@GetIndiInf

; 65   : 	if( m_pIGraphInfo) m_pIGraphInfo->AddRef();

  0004b	8b 4f 08	 mov	 ecx, DWORD PTR [edi+8]
  0004e	85 c9		 test	 ecx, ecx
  00050	74 09		 je	 SHORT $LN14@GetIndiInf
  00052	8b 01		 mov	 eax, DWORD PTR [ecx]
  00054	51		 push	 ecx
  00055	ff 50 04	 call	 DWORD PTR [eax+4]
  00058	8b 4f 08	 mov	 ecx, DWORD PTR [edi+8]
$LN14@GetIndiInf:

; 236  : 			indiInfoList.AddTail(pIndiInfoData->GetIGraphInfo());

  0005b	51		 push	 ecx
  0005c	8b cb		 mov	 ecx, ebx
  0005e	e8 00 00 00 00	 call	 ?AddTail@?$CList@PAUIGraphInfo135914@@PAU1@@@QAEPAU__POSITION@@PAUIGraphInfo135914@@@Z ; CList<IGraphInfo135914 *,IGraphInfo135914 *>::AddTail
$LN4@GetIndiInf:

; 231  : 	while(pos != NULL)

  00063	85 f6		 test	 esi, esi
  00065	75 d9		 jne	 SHORT $LL2@GetIndiInf
  00067	5f		 pop	 edi
$LN3@GetIndiInf:

; 237  : 	}
; 238  : 
; 239  : 	return (indiInfoList.GetCount() > 0);

  00068	83 7b 0c 00	 cmp	 DWORD PTR [ebx+12], 0
  0006c	5e		 pop	 esi
  0006d	0f 9f c0	 setg	 al
  00070	5b		 pop	 ebx

; 240  : }

  00071	5d		 pop	 ebp
  00072	c2 04 00	 ret	 4
?GetIndiInfoInTheBeginning@CIndiInfoDataList@@QBE_NAAV?$CList@PAUIGraphInfo135914@@PAU1@@@@Z ENDP ; CIndiInfoDataList::GetIndiInfoInTheBeginning
_TEXT	ENDS
; Function compile flags: /Ogtp
; File D:\git\src\IBK\IBK_DRFN\ProjSrc\SrcChartEx\ChartAddIn\ChartEnvSetupDlgAddIn\ChartEnvSetupDlgAddIn\OrgViewData.cpp
; File C:\Program Files (x86)\Microsoft Visual Studio\2019\Community\VC\Tools\MSVC\14.29.30133\atlmfc\include\atlsimpstr.h
; File D:\git\src\IBK\IBK_DRFN\ProjSrc\SrcChartEx\ChartAddIn\ChartEnvSetupDlgAddIn\ChartEnvSetupDlgAddIn\OrgViewData.cpp
; File C:\Program Files (x86)\Microsoft Visual Studio\2019\Community\VC\Tools\MSVC\14.29.30133\atlmfc\include\afxtempl.h
; File D:\git\src\IBK\IBK_DRFN\ProjSrc\SrcChartEx\ChartAddIn\ChartEnvSetupDlgAddIn\ChartEnvSetupDlgAddIn\OrgViewData.cpp
; File C:\Program Files (x86)\Microsoft Visual Studio\2019\Community\VC\Tools\MSVC\14.29.30133\atlmfc\include\cstringt.h
; File D:\git\src\IBK\IBK_DRFN\ProjSrc\SrcChartEx\ChartAddIn\ChartEnvSetupDlgAddIn\ChartEnvSetupDlgAddIn\OrgViewData.cpp
; File C:\Program Files (x86)\Microsoft Visual Studio\2019\Community\VC\Tools\MSVC\14.29.30133\atlmfc\include\cstringt.h
; File D:\git\src\IBK\IBK_DRFN\ProjSrc\SrcChartEx\ChartAddIn\ChartEnvSetupDlgAddIn\ChartEnvSetupDlgAddIn\OrgViewData.cpp
; File C:\Program Files (x86)\Microsoft Visual Studio\2019\Community\VC\Tools\MSVC\14.29.30133\atlmfc\include\cstringt.h
; File D:\git\src\IBK\IBK_DRFN\ProjSrc\SrcChartEx\ChartAddIn\ChartEnvSetupDlgAddIn\ChartEnvSetupDlgAddIn\OrgViewData.cpp
;	COMDAT ?GetIndiInfoData@CIndiInfoDataList@@QAEPAVCIndiInfoData@@ABV?$CStringT@DV?$StrTraitMFC_DLL@DV?$ChTraitsCRT@D@ATL@@@@@ATL@@@Z
_TEXT	SEGMENT
$T2 = -16						; size = 4
__$EHRec$ = -12						; size = 12
_strIndicatorName$ = 8					; size = 4
?GetIndiInfoData@CIndiInfoDataList@@QAEPAVCIndiInfoData@@ABV?$CStringT@DV?$StrTraitMFC_DLL@DV?$ChTraitsCRT@D@ATL@@@@@ATL@@@Z PROC ; CIndiInfoDataList::GetIndiInfoData, COMDAT
; _this$ = ecx

; 210  : {

  00000	55		 push	 ebp
  00001	8b ec		 mov	 ebp, esp
  00003	6a ff		 push	 -1
  00005	68 00 00 00 00	 push	 __ehhandler$?GetIndiInfoData@CIndiInfoDataList@@QAEPAVCIndiInfoData@@ABV?$CStringT@DV?$StrTraitMFC_DLL@DV?$ChTraitsCRT@D@ATL@@@@@ATL@@@Z
  0000a	64 a1 00 00 00
	00		 mov	 eax, DWORD PTR fs:0
  00010	50		 push	 eax
  00011	51		 push	 ecx
  00012	53		 push	 ebx
  00013	56		 push	 esi
  00014	57		 push	 edi
  00015	a1 00 00 00 00	 mov	 eax, DWORD PTR ___security_cookie
  0001a	33 c5		 xor	 eax, ebp
  0001c	50		 push	 eax
  0001d	8d 45 f4	 lea	 eax, DWORD PTR __$EHRec$[ebp]
  00020	64 a3 00 00 00
	00		 mov	 DWORD PTR fs:0, eax
; File C:\Program Files (x86)\Microsoft Visual Studio\2019\Community\VC\Tools\MSVC\14.29.30133\atlmfc\include\atlsimpstr.h

; 519  : 		return( GetData()->nDataLength );

  00026	8b 7d 08	 mov	 edi, DWORD PTR _strIndicatorName$[ebp]
  00029	8b 07		 mov	 eax, DWORD PTR [edi]

; 533  : 		return( GetLength() == 0 );

  0002b	83 78 f4 00	 cmp	 DWORD PTR [eax-12], 0
; File D:\git\src\IBK\IBK_DRFN\ProjSrc\SrcChartEx\ChartAddIn\ChartEnvSetupDlgAddIn\ChartEnvSetupDlgAddIn\OrgViewData.cpp

; 211  : 	if(strIndicatorName.IsEmpty())

  0002f	74 45		 je	 SHORT $LN3@GetIndiInf

; 212  : 		return NULL;
; 213  : 
; 214  : 	POSITION pos = m_indiInfoDataList.GetHeadPosition();

  00031	8b 71 08	 mov	 esi, DWORD PTR [ecx+8]

; 215  : 	while(pos != NULL)

  00034	85 f6		 test	 esi, esi
  00036	74 3e		 je	 SHORT $LN3@GetIndiInf
$LL2@GetIndiInf:

; 216  : 	{
; 217  : 		CIndiInfoData* pIndiInfoData = m_indiInfoDataList.GetNext(pos);

  00038	8b 5e 08	 mov	 ebx, DWORD PTR [esi+8]

; 219  : 		if(strIndicatorName == pIndiInfoData->GetIndicatorName())

  0003b	8d 45 f0	 lea	 eax, DWORD PTR $T2[ebp]
; File C:\Program Files (x86)\Microsoft Visual Studio\2019\Community\VC\Tools\MSVC\14.29.30133\atlmfc\include\afxtempl.h

; 813  : 		rPosition = (POSITION) pNode->pNext;

  0003e	8b 36		 mov	 esi, DWORD PTR [esi]
; File D:\git\src\IBK\IBK_DRFN\ProjSrc\SrcChartEx\ChartAddIn\ChartEnvSetupDlgAddIn\ChartEnvSetupDlgAddIn\OrgViewData.cpp

; 219  : 		if(strIndicatorName == pIndiInfoData->GetIndicatorName())

  00040	8b cb		 mov	 ecx, ebx
  00042	50		 push	 eax
  00043	e8 00 00 00 00	 call	 ?GetIndicatorName@CIndiInfoData@@QBE?AV?$CStringT@DV?$StrTraitMFC_DLL@DV?$ChTraitsCRT@D@ATL@@@@@ATL@@XZ ; CIndiInfoData::GetIndicatorName
; File C:\Program Files (x86)\Microsoft Visual Studio\2019\Community\VC\Tools\MSVC\14.29.30133\atlmfc\include\cstringt.h

; 2479 : 		return(str1.Compare(str2) == 0);

  00048	ff 30		 push	 DWORD PTR [eax]
  0004a	8b cf		 mov	 ecx, edi
; File D:\git\src\IBK\IBK_DRFN\ProjSrc\SrcChartEx\ChartAddIn\ChartEnvSetupDlgAddIn\ChartEnvSetupDlgAddIn\OrgViewData.cpp

; 219  : 		if(strIndicatorName == pIndiInfoData->GetIndicatorName())

  0004c	c7 45 fc 00 00
	00 00		 mov	 DWORD PTR __$EHRec$[ebp+8], 0
; File C:\Program Files (x86)\Microsoft Visual Studio\2019\Community\VC\Tools\MSVC\14.29.30133\atlmfc\include\cstringt.h

; 2479 : 		return(str1.Compare(str2) == 0);

  00053	ff 15 00 00 00
	00		 call	 DWORD PTR __imp_?Compare@?$CStringT@DV?$StrTraitMFC_DLL@DV?$ChTraitsCRT@D@ATL@@@@@ATL@@QBEHPBD@Z
; File D:\git\src\IBK\IBK_DRFN\ProjSrc\SrcChartEx\ChartAddIn\ChartEnvSetupDlgAddIn\ChartEnvSetupDlgAddIn\OrgViewData.cpp

; 219  : 		if(strIndicatorName == pIndiInfoData->GetIndicatorName())

  00059	8d 4d f0	 lea	 ecx, DWORD PTR $T2[ebp]
  0005c	c7 45 fc ff ff
	ff ff		 mov	 DWORD PTR __$EHRec$[ebp+8], -1
; File C:\Program Files (x86)\Microsoft Visual Studio\2019\Community\VC\Tools\MSVC\14.29.30133\atlmfc\include\cstringt.h

; 2479 : 		return(str1.Compare(str2) == 0);

  00063	8b f8		 mov	 edi, eax
; File D:\git\src\IBK\IBK_DRFN\ProjSrc\SrcChartEx\ChartAddIn\ChartEnvSetupDlgAddIn\ChartEnvSetupDlgAddIn\OrgViewData.cpp

; 219  : 		if(strIndicatorName == pIndiInfoData->GetIndicatorName())

  00065	ff 15 00 00 00
	00		 call	 DWORD PTR __imp_??1?$CStringT@DV?$StrTraitMFC_DLL@DV?$ChTraitsCRT@D@ATL@@@@@ATL@@QAE@XZ
  0006b	85 ff		 test	 edi, edi
  0006d	74 1d		 je	 SHORT $LN35@GetIndiInf

; 215  : 	while(pos != NULL)

  0006f	8b 7d 08	 mov	 edi, DWORD PTR _strIndicatorName$[ebp]
  00072	85 f6		 test	 esi, esi
  00074	75 c2		 jne	 SHORT $LL2@GetIndiInf
$LN3@GetIndiInf:

; 221  : 	}
; 222  : 
; 223  : 	return NULL;

  00076	33 c0		 xor	 eax, eax

; 224  : }

  00078	8b 4d f4	 mov	 ecx, DWORD PTR __$EHRec$[ebp]
  0007b	64 89 0d 00 00
	00 00		 mov	 DWORD PTR fs:0, ecx
  00082	59		 pop	 ecx
  00083	5f		 pop	 edi
  00084	5e		 pop	 esi
  00085	5b		 pop	 ebx
  00086	8b e5		 mov	 esp, ebp
  00088	5d		 pop	 ebp
  00089	c2 04 00	 ret	 4
$LN35@GetIndiInf:

; 220  : 			return pIndiInfoData;

  0008c	8b c3		 mov	 eax, ebx

; 224  : }

  0008e	8b 4d f4	 mov	 ecx, DWORD PTR __$EHRec$[ebp]
  00091	64 89 0d 00 00
	00 00		 mov	 DWORD PTR fs:0, ecx
  00098	59		 pop	 ecx
  00099	5f		 pop	 edi
  0009a	5e		 pop	 esi
  0009b	5b		 pop	 ebx
  0009c	8b e5		 mov	 esp, ebp
  0009e	5d		 pop	 ebp
  0009f	c2 04 00	 ret	 4
_TEXT	ENDS
;	COMDAT text$x
text$x	SEGMENT
__unwindfunclet$?GetIndiInfoData@CIndiInfoDataList@@QAEPAVCIndiInfoData@@ABV?$CStringT@DV?$StrTraitMFC_DLL@DV?$ChTraitsCRT@D@ATL@@@@@ATL@@@Z$0:
  00000	8d 4d f0	 lea	 ecx, DWORD PTR $T2[ebp]
  00003	ff 25 00 00 00
	00		 jmp	 DWORD PTR __imp_??1?$CStringT@DV?$StrTraitMFC_DLL@DV?$ChTraitsCRT@D@ATL@@@@@ATL@@QAE@XZ
  00009	cc		 int	 3
  0000a	cc		 int	 3
  0000b	cc		 int	 3
  0000c	cc		 int	 3
  0000d	cc		 int	 3
__ehhandler$?GetIndiInfoData@CIndiInfoDataList@@QAEPAVCIndiInfoData@@ABV?$CStringT@DV?$StrTraitMFC_DLL@DV?$ChTraitsCRT@D@ATL@@@@@ATL@@@Z:
  0000e	90		 npad	 1
  0000f	90		 npad	 1
  00010	8b 54 24 08	 mov	 edx, DWORD PTR [esp+8]
  00014	8d 42 0c	 lea	 eax, DWORD PTR [edx+12]
  00017	8b 4a ec	 mov	 ecx, DWORD PTR [edx-20]
  0001a	33 c8		 xor	 ecx, eax
  0001c	e8 00 00 00 00	 call	 @__security_check_cookie@4
  00021	b8 00 00 00 00	 mov	 eax, OFFSET __ehfuncinfo$?GetIndiInfoData@CIndiInfoDataList@@QAEPAVCIndiInfoData@@ABV?$CStringT@DV?$StrTraitMFC_DLL@DV?$ChTraitsCRT@D@ATL@@@@@ATL@@@Z
  00026	e9 00 00 00 00	 jmp	 ___CxxFrameHandler3
text$x	ENDS
?GetIndiInfoData@CIndiInfoDataList@@QAEPAVCIndiInfoData@@ABV?$CStringT@DV?$StrTraitMFC_DLL@DV?$ChTraitsCRT@D@ATL@@@@@ATL@@@Z ENDP ; CIndiInfoDataList::GetIndiInfoData
; Function compile flags: /Ogtp
; File D:\git\src\IBK\IBK_DRFN\ProjSrc\SrcChartEx\ChartAddIn\ChartEnvSetupDlgAddIn\ChartEnvSetupDlgAddIn\OrgViewData.cpp
; File C:\Program Files (x86)\Microsoft Visual Studio\2019\Community\VC\Tools\MSVC\14.29.30133\atlmfc\include\afxtempl.h
; File D:\git\src\IBK\IBK_DRFN\ProjSrc\SrcChartEx\ChartAddIn\ChartEnvSetupDlgAddIn\ChartEnvSetupDlgAddIn\OrgViewData.cpp
;	COMDAT ?GetNext@CIndiInfoDataList@@QAEPAVCIndiInfoData@@AAPAU__POSITION@@@Z
_TEXT	SEGMENT
_pos$ = 8						; size = 4
?GetNext@CIndiInfoDataList@@QAEPAVCIndiInfoData@@AAPAU__POSITION@@@Z PROC ; CIndiInfoDataList::GetNext, COMDAT
; _this$ = ecx

; 202  : {

  00000	55		 push	 ebp
  00001	8b ec		 mov	 ebp, esp

; 203  : 	if(pos == NULL)

  00003	8b 55 08	 mov	 edx, DWORD PTR _pos$[ebp]
  00006	8b 02		 mov	 eax, DWORD PTR [edx]
  00008	85 c0		 test	 eax, eax
  0000a	75 04		 jne	 SHORT $LN2@GetNext

; 207  : }

  0000c	5d		 pop	 ebp
  0000d	c2 04 00	 ret	 4
$LN2@GetNext:
; File C:\Program Files (x86)\Microsoft Visual Studio\2019\Community\VC\Tools\MSVC\14.29.30133\atlmfc\include\afxtempl.h

; 813  : 		rPosition = (POSITION) pNode->pNext;

  00010	8b 08		 mov	 ecx, DWORD PTR [eax]
  00012	89 0a		 mov	 DWORD PTR [edx], ecx
; File D:\git\src\IBK\IBK_DRFN\ProjSrc\SrcChartEx\ChartAddIn\ChartEnvSetupDlgAddIn\ChartEnvSetupDlgAddIn\OrgViewData.cpp

; 206  : 	return m_indiInfoDataList.GetNext(pos);

  00014	8b 40 08	 mov	 eax, DWORD PTR [eax+8]

; 207  : }

  00017	5d		 pop	 ebp
  00018	c2 04 00	 ret	 4
?GetNext@CIndiInfoDataList@@QAEPAVCIndiInfoData@@AAPAU__POSITION@@@Z ENDP ; CIndiInfoDataList::GetNext
_TEXT	ENDS
; Function compile flags: /Ogtp
; File D:\git\src\IBK\IBK_DRFN\ProjSrc\SrcChartEx\ChartAddIn\ChartEnvSetupDlgAddIn\ChartEnvSetupDlgAddIn\OrgViewData.cpp
; File C:\Program Files (x86)\Microsoft Visual Studio\2019\Community\VC\Tools\MSVC\14.29.30133\atlmfc\include\afxtempl.h
; File D:\git\src\IBK\IBK_DRFN\ProjSrc\SrcChartEx\ChartAddIn\ChartEnvSetupDlgAddIn\ChartEnvSetupDlgAddIn\OrgViewData.cpp
;	COMDAT ?GetNext@CIndiInfoDataList@@QBEPAVCIndiInfoData@@AAPAU__POSITION@@@Z
_TEXT	SEGMENT
_pos$ = 8						; size = 4
?GetNext@CIndiInfoDataList@@QBEPAVCIndiInfoData@@AAPAU__POSITION@@@Z PROC ; CIndiInfoDataList::GetNext, COMDAT
; _this$ = ecx

; 194  : {

  00000	55		 push	 ebp
  00001	8b ec		 mov	 ebp, esp

; 195  : 	if(pos == NULL)

  00003	8b 55 08	 mov	 edx, DWORD PTR _pos$[ebp]
  00006	8b 02		 mov	 eax, DWORD PTR [edx]
  00008	85 c0		 test	 eax, eax
  0000a	75 04		 jne	 SHORT $LN2@GetNext

; 199  : }

  0000c	5d		 pop	 ebp
  0000d	c2 04 00	 ret	 4
$LN2@GetNext:
; File C:\Program Files (x86)\Microsoft Visual Studio\2019\Community\VC\Tools\MSVC\14.29.30133\atlmfc\include\afxtempl.h

; 819  : 		rPosition = (POSITION) pNode->pNext;

  00010	8b 08		 mov	 ecx, DWORD PTR [eax]
  00012	89 0a		 mov	 DWORD PTR [edx], ecx
; File D:\git\src\IBK\IBK_DRFN\ProjSrc\SrcChartEx\ChartAddIn\ChartEnvSetupDlgAddIn\ChartEnvSetupDlgAddIn\OrgViewData.cpp

; 198  : 	return m_indiInfoDataList.GetNext(pos);

  00014	8b 40 08	 mov	 eax, DWORD PTR [eax+8]

; 199  : }

  00017	5d		 pop	 ebp
  00018	c2 04 00	 ret	 4
?GetNext@CIndiInfoDataList@@QBEPAVCIndiInfoData@@AAPAU__POSITION@@@Z ENDP ; CIndiInfoDataList::GetNext
_TEXT	ENDS
; Function compile flags: /Ogtp
; File D:\git\src\IBK\IBK_DRFN\ProjSrc\SrcChartEx\ChartAddIn\ChartEnvSetupDlgAddIn\ChartEnvSetupDlgAddIn\OrgViewData.cpp
; File C:\Program Files (x86)\Microsoft Visual Studio\2019\Community\VC\Tools\MSVC\14.29.30133\atlmfc\include\afxtempl.h
; File D:\git\src\IBK\IBK_DRFN\ProjSrc\SrcChartEx\ChartAddIn\ChartEnvSetupDlgAddIn\ChartEnvSetupDlgAddIn\OrgViewData.cpp
;	COMDAT ?GetPrev@CIndiInfoDataList@@QAEPAVCIndiInfoData@@AAPAU__POSITION@@@Z
_TEXT	SEGMENT
_pos$ = 8						; size = 4
?GetPrev@CIndiInfoDataList@@QAEPAVCIndiInfoData@@AAPAU__POSITION@@@Z PROC ; CIndiInfoDataList::GetPrev, COMDAT
; _this$ = ecx

; 186  : {

  00000	55		 push	 ebp
  00001	8b ec		 mov	 ebp, esp

; 187  : 	if(pos == NULL)

  00003	8b 55 08	 mov	 edx, DWORD PTR _pos$[ebp]
  00006	8b 02		 mov	 eax, DWORD PTR [edx]
  00008	85 c0		 test	 eax, eax
  0000a	75 04		 jne	 SHORT $LN2@GetPrev

; 191  : }

  0000c	5d		 pop	 ebp
  0000d	c2 04 00	 ret	 4
$LN2@GetPrev:
; File C:\Program Files (x86)\Microsoft Visual Studio\2019\Community\VC\Tools\MSVC\14.29.30133\atlmfc\include\afxtempl.h

; 825  : 		rPosition = (POSITION) pNode->pPrev;

  00010	8b 48 04	 mov	 ecx, DWORD PTR [eax+4]
  00013	89 0a		 mov	 DWORD PTR [edx], ecx
; File D:\git\src\IBK\IBK_DRFN\ProjSrc\SrcChartEx\ChartAddIn\ChartEnvSetupDlgAddIn\ChartEnvSetupDlgAddIn\OrgViewData.cpp

; 190  : 	return m_indiInfoDataList.GetPrev(pos);

  00015	8b 40 08	 mov	 eax, DWORD PTR [eax+8]

; 191  : }

  00018	5d		 pop	 ebp
  00019	c2 04 00	 ret	 4
?GetPrev@CIndiInfoDataList@@QAEPAVCIndiInfoData@@AAPAU__POSITION@@@Z ENDP ; CIndiInfoDataList::GetPrev
_TEXT	ENDS
; Function compile flags: /Ogtp
; File D:\git\src\IBK\IBK_DRFN\ProjSrc\SrcChartEx\ChartAddIn\ChartEnvSetupDlgAddIn\ChartEnvSetupDlgAddIn\OrgViewData.cpp
; File C:\Program Files (x86)\Microsoft Visual Studio\2019\Community\VC\Tools\MSVC\14.29.30133\atlmfc\include\afxtempl.h
; File D:\git\src\IBK\IBK_DRFN\ProjSrc\SrcChartEx\ChartAddIn\ChartEnvSetupDlgAddIn\ChartEnvSetupDlgAddIn\OrgViewData.cpp
;	COMDAT ?GetPrev@CIndiInfoDataList@@QBEPAVCIndiInfoData@@AAPAU__POSITION@@@Z
_TEXT	SEGMENT
_pos$ = 8						; size = 4
?GetPrev@CIndiInfoDataList@@QBEPAVCIndiInfoData@@AAPAU__POSITION@@@Z PROC ; CIndiInfoDataList::GetPrev, COMDAT
; _this$ = ecx

; 178  : {

  00000	55		 push	 ebp
  00001	8b ec		 mov	 ebp, esp

; 179  : 	if(pos == NULL)

  00003	8b 55 08	 mov	 edx, DWORD PTR _pos$[ebp]
  00006	8b 02		 mov	 eax, DWORD PTR [edx]
  00008	85 c0		 test	 eax, eax
  0000a	75 04		 jne	 SHORT $LN2@GetPrev

; 183  : }

  0000c	5d		 pop	 ebp
  0000d	c2 04 00	 ret	 4
$LN2@GetPrev:
; File C:\Program Files (x86)\Microsoft Visual Studio\2019\Community\VC\Tools\MSVC\14.29.30133\atlmfc\include\afxtempl.h

; 831  : 		rPosition = (POSITION) pNode->pPrev;

  00010	8b 48 04	 mov	 ecx, DWORD PTR [eax+4]
  00013	89 0a		 mov	 DWORD PTR [edx], ecx
; File D:\git\src\IBK\IBK_DRFN\ProjSrc\SrcChartEx\ChartAddIn\ChartEnvSetupDlgAddIn\ChartEnvSetupDlgAddIn\OrgViewData.cpp

; 182  : 	return m_indiInfoDataList.GetPrev(pos);

  00015	8b 40 08	 mov	 eax, DWORD PTR [eax+8]

; 183  : }

  00018	5d		 pop	 ebp
  00019	c2 04 00	 ret	 4
?GetPrev@CIndiInfoDataList@@QBEPAVCIndiInfoData@@AAPAU__POSITION@@@Z ENDP ; CIndiInfoDataList::GetPrev
_TEXT	ENDS
; Function compile flags: /Ogtp
; File D:\git\src\IBK\IBK_DRFN\ProjSrc\SrcChartEx\ChartAddIn\ChartEnvSetupDlgAddIn\ChartEnvSetupDlgAddIn\OrgViewData.cpp
;	COMDAT ?GetTailPosition@CIndiInfoDataList@@QAEPAU__POSITION@@XZ
_TEXT	SEGMENT
?GetTailPosition@CIndiInfoDataList@@QAEPAU__POSITION@@XZ PROC ; CIndiInfoDataList::GetTailPosition, COMDAT
; _this$ = ecx

; 174  : 	return m_indiInfoDataList.GetTailPosition();

  00000	8b 41 0c	 mov	 eax, DWORD PTR [ecx+12]

; 175  : }

  00003	c3		 ret	 0
?GetTailPosition@CIndiInfoDataList@@QAEPAU__POSITION@@XZ ENDP ; CIndiInfoDataList::GetTailPosition
_TEXT	ENDS
; Function compile flags: /Ogtp
; File D:\git\src\IBK\IBK_DRFN\ProjSrc\SrcChartEx\ChartAddIn\ChartEnvSetupDlgAddIn\ChartEnvSetupDlgAddIn\OrgViewData.cpp
;	COMDAT ?GetTailPosition@CIndiInfoDataList@@QBEPAU__POSITION@@XZ
_TEXT	SEGMENT
?GetTailPosition@CIndiInfoDataList@@QBEPAU__POSITION@@XZ PROC ; CIndiInfoDataList::GetTailPosition, COMDAT
; _this$ = ecx

; 169  : 	return m_indiInfoDataList.GetTailPosition();

  00000	8b 41 0c	 mov	 eax, DWORD PTR [ecx+12]

; 170  : }

  00003	c3		 ret	 0
?GetTailPosition@CIndiInfoDataList@@QBEPAU__POSITION@@XZ ENDP ; CIndiInfoDataList::GetTailPosition
_TEXT	ENDS
; Function compile flags: /Ogtp
; File D:\git\src\IBK\IBK_DRFN\ProjSrc\SrcChartEx\ChartAddIn\ChartEnvSetupDlgAddIn\ChartEnvSetupDlgAddIn\OrgViewData.cpp
;	COMDAT ?GetHeadPosition@CIndiInfoDataList@@QAEPAU__POSITION@@XZ
_TEXT	SEGMENT
?GetHeadPosition@CIndiInfoDataList@@QAEPAU__POSITION@@XZ PROC ; CIndiInfoDataList::GetHeadPosition, COMDAT
; _this$ = ecx

; 164  : 	return m_indiInfoDataList.GetHeadPosition();

  00000	8b 41 08	 mov	 eax, DWORD PTR [ecx+8]

; 165  : }

  00003	c3		 ret	 0
?GetHeadPosition@CIndiInfoDataList@@QAEPAU__POSITION@@XZ ENDP ; CIndiInfoDataList::GetHeadPosition
_TEXT	ENDS
; Function compile flags: /Ogtp
; File D:\git\src\IBK\IBK_DRFN\ProjSrc\SrcChartEx\ChartAddIn\ChartEnvSetupDlgAddIn\ChartEnvSetupDlgAddIn\OrgViewData.cpp
;	COMDAT ?GetHeadPosition@CIndiInfoDataList@@QBEPAU__POSITION@@XZ
_TEXT	SEGMENT
?GetHeadPosition@CIndiInfoDataList@@QBEPAU__POSITION@@XZ PROC ; CIndiInfoDataList::GetHeadPosition, COMDAT
; _this$ = ecx

; 159  : 	return m_indiInfoDataList.GetHeadPosition();

  00000	8b 41 08	 mov	 eax, DWORD PTR [ecx+8]

; 160  : }

  00003	c3		 ret	 0
?GetHeadPosition@CIndiInfoDataList@@QBEPAU__POSITION@@XZ ENDP ; CIndiInfoDataList::GetHeadPosition
_TEXT	ENDS
; Function compile flags: /Ogtp
; File D:\git\src\IBK\IBK_DRFN\ProjSrc\SrcChartEx\ChartAddIn\ChartEnvSetupDlgAddIn\ChartEnvSetupDlgAddIn\OrgViewData.cpp
; File C:\Program Files (x86)\Microsoft Visual Studio\2019\Community\VC\Tools\MSVC\14.29.30133\atlmfc\include\afxtempl.h
; File D:\git\src\IBK\IBK_DRFN\ProjSrc\SrcChartEx\ChartAddIn\ChartEnvSetupDlgAddIn\ChartEnvSetupDlgAddIn\OrgViewData.cpp
; File D:\git\src\IBK\IBK_DRFN\ProjSrc\SrcChartEx\ChartAddIn\ChartEnvSetupDlgAddIn\Include_AddIn_135914\I135914\_IString.h
; File D:\git\src\IBK\IBK_DRFN\ProjSrc\SrcChartEx\ChartAddIn\ChartEnvSetupDlgAddIn\ChartEnvSetupDlgAddIn\OrgViewData.cpp
; File D:\git\src\IBK\IBK_DRFN\ProjSrc\SrcChartEx\ChartAddIn\ChartEnvSetupDlgAddIn\Include_AddIn_135914\I135914\_IString.h
; File D:\git\src\IBK\IBK_DRFN\ProjSrc\SrcChartEx\ChartAddIn\ChartEnvSetupDlgAddIn\ChartEnvSetupDlgAddIn\OrgViewData.cpp
; File D:\git\src\IBK\IBK_DRFN\ProjSrc\SrcChartEx\ChartAddIn\ChartEnvSetupDlgAddIn\Include_AddIn_135914\I135914\_IString.h
; File D:\git\src\IBK\IBK_DRFN\ProjSrc\SrcChartEx\ChartAddIn\ChartEnvSetupDlgAddIn\ChartEnvSetupDlgAddIn\OrgViewData.cpp
;	COMDAT ?ChangeAllIndicatorList@CIndiInfoDataList@@QAE_NPAUIGraphInfoManager135914@@@Z
_TEXT	SEGMENT
_szGraphName$2 = -28					; size = 8
_pTargetIndicatorInfo$1$ = -20				; size = 4
tv320 = -16						; size = 4
__$EHRec$ = -12						; size = 12
_p_pIGraphInfoManager$ = 8				; size = 4
?ChangeAllIndicatorList@CIndiInfoDataList@@QAE_NPAUIGraphInfoManager135914@@@Z PROC ; CIndiInfoDataList::ChangeAllIndicatorList, COMDAT
; _this$ = ecx

; 124  : {

  00000	55		 push	 ebp
  00001	8b ec		 mov	 ebp, esp
  00003	6a ff		 push	 -1
  00005	68 00 00 00 00	 push	 __ehhandler$?ChangeAllIndicatorList@CIndiInfoDataList@@QAE_NPAUIGraphInfoManager135914@@@Z
  0000a	64 a1 00 00 00
	00		 mov	 eax, DWORD PTR fs:0
  00010	50		 push	 eax
  00011	83 ec 10	 sub	 esp, 16			; 00000010H
  00014	53		 push	 ebx
  00015	56		 push	 esi
  00016	57		 push	 edi
  00017	a1 00 00 00 00	 mov	 eax, DWORD PTR ___security_cookie
  0001c	33 c5		 xor	 eax, ebp
  0001e	50		 push	 eax
  0001f	8d 45 f4	 lea	 eax, DWORD PTR __$EHRec$[ebp]
  00022	64 a3 00 00 00
	00		 mov	 DWORD PTR fs:0, eax

; 125  : 	if(p_pIGraphInfoManager == NULL)

  00028	32 c0		 xor	 al, al
  0002a	83 7d 08 00	 cmp	 DWORD PTR _p_pIGraphInfoManager$[ebp], 0
  0002e	0f 84 d9 00 00
	00		 je	 $LN1@ChangeAllI

; 126  : 		return false;
; 127  : 
; 128  : 	bool bResult = false;
; 129  : 	IGraphInfo* pSourceIndicatorInfo = NULL;
; 130  : 	IGraphInfo* pTargetIndicatorInfo = NULL;
; 131  : 	POSITION pos = m_indiInfoDataList.GetHeadPosition();

  00034	8b 59 08	 mov	 ebx, DWORD PTR [ecx+8]
  00037	89 45 f0	 mov	 DWORD PTR tv320[ebp], eax

; 132  : 	while(pos != NULL)

  0003a	85 db		 test	 ebx, ebx
  0003c	0f 84 cb 00 00
	00		 je	 $LN1@ChangeAllI
$LL2@ChangeAllI:

; 65   : 	if( m_pIGraphInfo) m_pIGraphInfo->AddRef();

  00042	8b 7b 08	 mov	 edi, DWORD PTR [ebx+8]
; File C:\Program Files (x86)\Microsoft Visual Studio\2019\Community\VC\Tools\MSVC\14.29.30133\atlmfc\include\afxtempl.h

; 813  : 		rPosition = (POSITION) pNode->pNext;

  00045	8b 1b		 mov	 ebx, DWORD PTR [ebx]
; File D:\git\src\IBK\IBK_DRFN\ProjSrc\SrcChartEx\ChartAddIn\ChartEnvSetupDlgAddIn\ChartEnvSetupDlgAddIn\OrgViewData.cpp

; 65   : 	if( m_pIGraphInfo) m_pIGraphInfo->AddRef();

  00047	8b 77 08	 mov	 esi, DWORD PTR [edi+8]
  0004a	85 f6		 test	 esi, esi
  0004c	0f 84 b0 00 00
	00		 je	 $LN30@ChangeAllI
  00052	8b 06		 mov	 eax, DWORD PTR [esi]
  00054	56		 push	 esi
  00055	ff 50 04	 call	 DWORD PTR [eax+4]
  00058	8b 77 08	 mov	 esi, DWORD PTR [edi+8]

; 133  : 	{
; 134  : 		CIndiInfoData* pSourceIndiInfo = m_indiInfoDataList.GetNext(pos);
; 135  : 		assert(pSourceIndiInfo != NULL);
; 136  : 
; 137  : 		pSourceIndicatorInfo = pSourceIndiInfo->GetIGraphInfo();
; 138  : 		if( !pSourceIndicatorInfo) continue;

  0005b	85 f6		 test	 esi, esi
  0005d	0f 84 9f 00 00
	00		 je	 $LN30@ChangeAllI

; 140  : 		ILPCSTR szGraphName = pSourceIndicatorInfo->GetGraphNameString();

  00063	8b 06		 mov	 eax, DWORD PTR [esi]
  00065	8b ce		 mov	 ecx, esi
  00067	ff 90 a0 00 00
	00		 call	 DWORD PTR [eax+160]
; File D:\git\src\IBK\IBK_DRFN\ProjSrc\SrcChartEx\ChartAddIn\ChartEnvSetupDlgAddIn\Include_AddIn_135914\I135914\_IString.h

; 39   : 		m_pIStrData = p_pIString;	// Do not AddRef(). Because It must be Return Value.

  0006d	8b f8		 mov	 edi, eax
  0006f	89 7d e8	 mov	 DWORD PTR _szGraphName$2[ebp+4], edi

; 40   : 		if( m_pIStrData) m_szData = m_pIStrData->GetData();

  00072	85 ff		 test	 edi, edi
  00074	74 0b		 je	 SHORT $LN16@ChangeAllI
  00076	8b 17		 mov	 edx, DWORD PTR [edi]
  00078	8b cf		 mov	 ecx, edi
  0007a	ff 52 10	 call	 DWORD PTR [edx+16]
  0007d	8b c8		 mov	 ecx, eax
  0007f	eb 02		 jmp	 SHORT $LN36@ChangeAllI
$LN16@ChangeAllI:

; 41   : 		else m_szData = NULL;

  00081	33 c9		 xor	 ecx, ecx
$LN36@ChangeAllI:
; File D:\git\src\IBK\IBK_DRFN\ProjSrc\SrcChartEx\ChartAddIn\ChartEnvSetupDlgAddIn\ChartEnvSetupDlgAddIn\OrgViewData.cpp

; 140  : 		ILPCSTR szGraphName = pSourceIndicatorInfo->GetGraphNameString();

  00083	89 4d e4	 mov	 DWORD PTR _szGraphName$2[ebp], ecx

; 141  : 		pTargetIndicatorInfo = p_pIGraphInfoManager->GetGraphInfo( IGraphInfoManager::IEILT_USER, szGraphName);

  00086	8b 55 08	 mov	 edx, DWORD PTR _p_pIGraphInfoManager$[ebp]
  00089	51		 push	 ecx
  0008a	6a 03		 push	 3
  0008c	8b ca		 mov	 ecx, edx
  0008e	c7 45 fc 00 00
	00 00		 mov	 DWORD PTR __$EHRec$[ebp+8], 0
  00095	8b 02		 mov	 eax, DWORD PTR [edx]
  00097	ff 50 14	 call	 DWORD PTR [eax+20]
  0009a	8b c8		 mov	 ecx, eax
  0009c	89 4d ec	 mov	 DWORD PTR _pTargetIndicatorInfo$1$[ebp], ecx

; 142  : 		if( !pTargetIndicatorInfo) 

  0009f	56		 push	 esi
  000a0	85 c9		 test	 ecx, ecx
  000a2	75 0e		 jne	 SHORT $LN6@ChangeAllI

; 143  : 		{
; 144  : 			pSourceIndicatorInfo->Release();

  000a4	8b 06		 mov	 eax, DWORD PTR [esi]
  000a6	ff 50 08	 call	 DWORD PTR [eax+8]
; File D:\git\src\IBK\IBK_DRFN\ProjSrc\SrcChartEx\ChartAddIn\ChartEnvSetupDlgAddIn\Include_AddIn_135914\I135914\_IString.h

; 44   : 	{

  000a9	c7 45 fc 01 00
	00 00		 mov	 DWORD PTR __$EHRec$[ebp+8], 1
; File D:\git\src\IBK\IBK_DRFN\ProjSrc\SrcChartEx\ChartAddIn\ChartEnvSetupDlgAddIn\ChartEnvSetupDlgAddIn\OrgViewData.cpp

; 145  : 			continue;

  000b0	eb 31		 jmp	 SHORT $LN39@ChangeAllI
$LN6@ChangeAllI:

; 146  : 		}
; 147  : 
; 148  : 		if( pTargetIndicatorInfo->GetCopyDataFrom( pSourceIndicatorInfo)) bResult = true;

  000b2	8b 01		 mov	 eax, DWORD PTR [ecx]
  000b4	ff 90 c0 00 00
	00		 call	 DWORD PTR [eax+192]
  000ba	8b 4d f0	 mov	 ecx, DWORD PTR tv320[ebp]
  000bd	85 c0		 test	 eax, eax
  000bf	0f b6 c9	 movzx	 ecx, cl
  000c2	b8 01 00 00 00	 mov	 eax, 1
  000c7	0f 45 c8	 cmovne	 ecx, eax
  000ca	89 4d f0	 mov	 DWORD PTR tv320[ebp], ecx

; 149  : 		pTargetIndicatorInfo->Release();

  000cd	8b 4d ec	 mov	 ecx, DWORD PTR _pTargetIndicatorInfo$1$[ebp]
  000d0	51		 push	 ecx
  000d1	8b 01		 mov	 eax, DWORD PTR [ecx]
  000d3	ff 50 08	 call	 DWORD PTR [eax+8]

; 150  : 		pSourceIndicatorInfo->Release();

  000d6	8b 06		 mov	 eax, DWORD PTR [esi]
  000d8	56		 push	 esi
  000d9	ff 50 08	 call	 DWORD PTR [eax+8]
; File D:\git\src\IBK\IBK_DRFN\ProjSrc\SrcChartEx\ChartAddIn\ChartEnvSetupDlgAddIn\Include_AddIn_135914\I135914\_IString.h

; 44   : 	{

  000dc	c7 45 fc 02 00
	00 00		 mov	 DWORD PTR __$EHRec$[ebp+8], 2
$LN39@ChangeAllI:
; File D:\git\src\IBK\IBK_DRFN\ProjSrc\SrcChartEx\ChartAddIn\ChartEnvSetupDlgAddIn\ChartEnvSetupDlgAddIn\OrgViewData.cpp

; 132  : 	while(pos != NULL)

  000e3	85 ff		 test	 edi, edi
  000e5	74 14		 je	 SHORT $LN24@ChangeAllI
  000e7	8b 07		 mov	 eax, DWORD PTR [edi]
  000e9	57		 push	 edi
  000ea	ff 50 08	 call	 DWORD PTR [eax+8]
  000ed	c7 45 e8 00 00
	00 00		 mov	 DWORD PTR _szGraphName$2[ebp+4], 0
  000f4	c7 45 e4 00 00
	00 00		 mov	 DWORD PTR _szGraphName$2[ebp], 0
$LN24@ChangeAllI:
  000fb	c7 45 fc ff ff
	ff ff		 mov	 DWORD PTR __$EHRec$[ebp+8], -1
$LN30@ChangeAllI:
  00102	85 db		 test	 ebx, ebx
  00104	0f 85 38 ff ff
	ff		 jne	 $LL2@ChangeAllI
  0010a	8b 45 f0	 mov	 eax, DWORD PTR tv320[ebp]
$LN1@ChangeAllI:

; 151  : 	}
; 152  : 
; 153  : 	return bResult;
; 154  : }

  0010d	8b 4d f4	 mov	 ecx, DWORD PTR __$EHRec$[ebp]
  00110	64 89 0d 00 00
	00 00		 mov	 DWORD PTR fs:0, ecx
  00117	59		 pop	 ecx
  00118	5f		 pop	 edi
  00119	5e		 pop	 esi
  0011a	5b		 pop	 ebx
  0011b	8b e5		 mov	 esp, ebp
  0011d	5d		 pop	 ebp
  0011e	c2 04 00	 ret	 4
_TEXT	ENDS
;	COMDAT text$x
text$x	SEGMENT
__unwindfunclet$?ChangeAllIndicatorList@CIndiInfoDataList@@QAE_NPAUIGraphInfoManager135914@@@Z$0:
  00000	8d 4d e4	 lea	 ecx, DWORD PTR _szGraphName$2[ebp]
  00003	e9 00 00 00 00	 jmp	 ??1ILPCSTR135914@@QAE@XZ ; ILPCSTR135914::~ILPCSTR135914
  00008	cc		 int	 3
  00009	cc		 int	 3
  0000a	cc		 int	 3
  0000b	cc		 int	 3
  0000c	cc		 int	 3
__ehhandler$?ChangeAllIndicatorList@CIndiInfoDataList@@QAE_NPAUIGraphInfoManager135914@@@Z:
  0000d	90		 npad	 1
  0000e	90		 npad	 1
  0000f	8b 54 24 08	 mov	 edx, DWORD PTR [esp+8]
  00013	8d 42 0c	 lea	 eax, DWORD PTR [edx+12]
  00016	8b 4a e0	 mov	 ecx, DWORD PTR [edx-32]
  00019	33 c8		 xor	 ecx, eax
  0001b	e8 00 00 00 00	 call	 @__security_check_cookie@4
  00020	b8 00 00 00 00	 mov	 eax, OFFSET __ehfuncinfo$?ChangeAllIndicatorList@CIndiInfoDataList@@QAE_NPAUIGraphInfoManager135914@@@Z
  00025	e9 00 00 00 00	 jmp	 ___CxxFrameHandler3
text$x	ENDS
?ChangeAllIndicatorList@CIndiInfoDataList@@QAE_NPAUIGraphInfoManager135914@@@Z ENDP ; CIndiInfoDataList::ChangeAllIndicatorList
; Function compile flags: /Ogtp
; File D:\git\src\IBK\IBK_DRFN\ProjSrc\SrcChartEx\ChartAddIn\ChartEnvSetupDlgAddIn\ChartEnvSetupDlgAddIn\OrgViewData.cpp
; File C:\Program Files (x86)\Microsoft Visual Studio\2019\Community\VC\Tools\MSVC\14.29.30133\atlmfc\include\afxtempl.h
; File D:\git\src\IBK\IBK_DRFN\ProjSrc\SrcChartEx\ChartAddIn\ChartEnvSetupDlgAddIn\ChartEnvSetupDlgAddIn\OrgViewData.cpp
;	COMDAT ?DeleteAll@CIndiInfoDataList@@QAEXXZ
_TEXT	SEGMENT
?DeleteAll@CIndiInfoDataList@@QAEXXZ PROC		; CIndiInfoDataList::DeleteAll, COMDAT
; _this$ = ecx

; 113  : {

  00000	56		 push	 esi

; 114  : 	POSITION pos = m_indiInfoDataList.GetHeadPosition();

  00001	8b 71 08	 mov	 esi, DWORD PTR [ecx+8]

; 115  : 
; 116  : 	while(pos != NULL)

  00004	85 f6		 test	 esi, esi
  00006	74 13		 je	 SHORT $LN3@DeleteAll
$LL2@DeleteAll:

; 23   : 	delete pIndiInfoData;

  00008	8b 4e 08	 mov	 ecx, DWORD PTR [esi+8]
; File C:\Program Files (x86)\Microsoft Visual Studio\2019\Community\VC\Tools\MSVC\14.29.30133\atlmfc\include\afxtempl.h

; 813  : 		rPosition = (POSITION) pNode->pNext;

  0000b	8b 36		 mov	 esi, DWORD PTR [esi]
; File D:\git\src\IBK\IBK_DRFN\ProjSrc\SrcChartEx\ChartAddIn\ChartEnvSetupDlgAddIn\ChartEnvSetupDlgAddIn\OrgViewData.cpp

; 23   : 	delete pIndiInfoData;

  0000d	85 c9		 test	 ecx, ecx
  0000f	74 06		 je	 SHORT $LN9@DeleteAll
  00011	8b 01		 mov	 eax, DWORD PTR [ecx]
  00013	6a 01		 push	 1
  00015	ff 10		 call	 DWORD PTR [eax]
$LN9@DeleteAll:

; 115  : 
; 116  : 	while(pos != NULL)

  00017	85 f6		 test	 esi, esi
  00019	75 ed		 jne	 SHORT $LL2@DeleteAll
$LN3@DeleteAll:
  0001b	5e		 pop	 esi

; 117  : 	{
; 118  : 		CIndiInfoData::Delete(m_indiInfoDataList.GetNext(pos));
; 119  : 	}
; 120  : }

  0001c	c3		 ret	 0
?DeleteAll@CIndiInfoDataList@@QAEXXZ ENDP		; CIndiInfoDataList::DeleteAll
_TEXT	ENDS
; Function compile flags: /Ogtp
; File D:\git\src\IBK\IBK_DRFN\ProjSrc\SrcChartEx\ChartAddIn\ChartEnvSetupDlgAddIn\ChartEnvSetupDlgAddIn\OrgViewData.cpp
; File D:\git\src\IBK\IBK_DRFN\ProjSrc\SrcChartEx\ChartAddIn\ChartEnvSetupDlgAddIn\Include_AddIn_135914\I135914\_IString.h
; File D:\git\src\IBK\IBK_DRFN\ProjSrc\SrcChartEx\ChartAddIn\ChartEnvSetupDlgAddIn\ChartEnvSetupDlgAddIn\OrgViewData.cpp
; File C:\Program Files (x86)\Microsoft Visual Studio\2019\Community\VC\Tools\MSVC\14.29.30133\atlmfc\include\afxtempl.h
; File D:\git\src\IBK\IBK_DRFN\ProjSrc\SrcChartEx\ChartAddIn\ChartEnvSetupDlgAddIn\ChartEnvSetupDlgAddIn\OrgViewData.cpp
; File C:\Program Files (x86)\Microsoft Visual Studio\2019\Community\VC\Tools\MSVC\14.29.30133\atlmfc\include\cstringt.h
; File D:\git\src\IBK\IBK_DRFN\ProjSrc\SrcChartEx\ChartAddIn\ChartEnvSetupDlgAddIn\ChartEnvSetupDlgAddIn\OrgViewData.cpp
; File C:\Program Files (x86)\Microsoft Visual Studio\2019\Community\VC\Tools\MSVC\14.29.30133\atlmfc\include\cstringt.h
; File D:\git\src\IBK\IBK_DRFN\ProjSrc\SrcChartEx\ChartAddIn\ChartEnvSetupDlgAddIn\ChartEnvSetupDlgAddIn\OrgViewData.cpp
; File C:\Program Files (x86)\Microsoft Visual Studio\2019\Community\VC\Tools\MSVC\14.29.30133\atlmfc\include\cstringt.h
; File D:\git\src\IBK\IBK_DRFN\ProjSrc\SrcChartEx\ChartAddIn\ChartEnvSetupDlgAddIn\ChartEnvSetupDlgAddIn\OrgViewData.cpp
; File D:\git\src\IBK\IBK_DRFN\ProjSrc\SrcChartEx\ChartAddIn\ChartEnvSetupDlgAddIn\Include_AddIn_135914\I135914\_IString.h
; File D:\git\src\IBK\IBK_DRFN\ProjSrc\SrcChartEx\ChartAddIn\ChartEnvSetupDlgAddIn\ChartEnvSetupDlgAddIn\OrgViewData.cpp
;	COMDAT ?AddTail@CIndiInfoDataList@@QAE_NPAUIGraphInfo135914@@_N@Z
_TEXT	SEGMENT
_szGraphName$ = -28					; size = 8
_this$1$ = -20						; size = 4
$T2 = -16						; size = 4
__$EHRec$ = -12						; size = 12
$T3 = 8							; size = 4
_p_pIGraphInfo$ = 8					; size = 4
_bTheBeginning$ = 12					; size = 1
?AddTail@CIndiInfoDataList@@QAE_NPAUIGraphInfo135914@@_N@Z PROC ; CIndiInfoDataList::AddTail, COMDAT
; _this$ = ecx

; 100  : {

  00000	55		 push	 ebp
  00001	8b ec		 mov	 ebp, esp
  00003	6a ff		 push	 -1
  00005	68 00 00 00 00	 push	 __ehhandler$?AddTail@CIndiInfoDataList@@QAE_NPAUIGraphInfo135914@@_N@Z
  0000a	64 a1 00 00 00
	00		 mov	 eax, DWORD PTR fs:0
  00010	50		 push	 eax
  00011	83 ec 10	 sub	 esp, 16			; 00000010H
  00014	53		 push	 ebx
  00015	56		 push	 esi
  00016	57		 push	 edi
  00017	a1 00 00 00 00	 mov	 eax, DWORD PTR ___security_cookie
  0001c	33 c5		 xor	 eax, ebp
  0001e	50		 push	 eax
  0001f	8d 45 f4	 lea	 eax, DWORD PTR __$EHRec$[ebp]
  00022	64 a3 00 00 00
	00		 mov	 DWORD PTR fs:0, eax
  00028	8b f1		 mov	 esi, ecx
  0002a	89 75 ec	 mov	 DWORD PTR _this$1$[ebp], esi

; 101  : 	if(p_pIGraphInfo == NULL)

  0002d	8b 7d 08	 mov	 edi, DWORD PTR _p_pIGraphInfo$[ebp]
  00030	85 ff		 test	 edi, edi
  00032	75 16		 jne	 SHORT $LN2@AddTail

; 102  : 		return false;

  00034	32 c0		 xor	 al, al

; 110  : }

  00036	8b 4d f4	 mov	 ecx, DWORD PTR __$EHRec$[ebp]
  00039	64 89 0d 00 00
	00 00		 mov	 DWORD PTR fs:0, ecx
  00040	59		 pop	 ecx
  00041	5f		 pop	 edi
  00042	5e		 pop	 esi
  00043	5b		 pop	 ebx
  00044	8b e5		 mov	 esp, ebp
  00046	5d		 pop	 ebp
  00047	c2 08 00	 ret	 8
$LN2@AddTail:

; 105  : 	ILPCSTR szGraphName = p_pIGraphInfo->GetGraphNameString();

  0004a	8b 07		 mov	 eax, DWORD PTR [edi]
  0004c	8b cf		 mov	 ecx, edi
  0004e	ff 90 a0 00 00
	00		 call	 DWORD PTR [eax+160]
; File D:\git\src\IBK\IBK_DRFN\ProjSrc\SrcChartEx\ChartAddIn\ChartEnvSetupDlgAddIn\Include_AddIn_135914\I135914\_IString.h

; 39   : 		m_pIStrData = p_pIString;	// Do not AddRef(). Because It must be Return Value.

  00054	89 45 e8	 mov	 DWORD PTR _szGraphName$[ebp+4], eax

; 40   : 		if( m_pIStrData) m_szData = m_pIStrData->GetData();

  00057	85 c0		 test	 eax, eax
  00059	74 0b		 je	 SHORT $LN8@AddTail
  0005b	8b 10		 mov	 edx, DWORD PTR [eax]
  0005d	8b c8		 mov	 ecx, eax
  0005f	ff 52 10	 call	 DWORD PTR [edx+16]
  00062	8b d8		 mov	 ebx, eax
  00064	eb 02		 jmp	 SHORT $LN59@AddTail
$LN8@AddTail:

; 41   : 		else m_szData = NULL;

  00066	33 db		 xor	 ebx, ebx
$LN59@AddTail:
; File D:\git\src\IBK\IBK_DRFN\ProjSrc\SrcChartEx\ChartAddIn\ChartEnvSetupDlgAddIn\ChartEnvSetupDlgAddIn\OrgViewData.cpp

; 105  : 	ILPCSTR szGraphName = p_pIGraphInfo->GetGraphNameString();

  00068	89 5d e4	 mov	 DWORD PTR _szGraphName$[ebp], ebx
  0006b	c7 45 fc 00 00
	00 00		 mov	 DWORD PTR __$EHRec$[ebp+8], 0

; 262  : 	if( !p_szGraphName) return false;

  00072	85 db		 test	 ebx, ebx
  00074	74 45		 je	 SHORT $LN55@AddTail

; 263  : 	if( !*p_szGraphName) return false;

  00076	80 3b 00	 cmp	 BYTE PTR [ebx], 0
  00079	74 40		 je	 SHORT $LN55@AddTail

; 264  : 
; 265  : 	POSITION pos = m_indiInfoDataList.GetHeadPosition();

  0007b	8b 7e 08	 mov	 edi, DWORD PTR [esi+8]

; 266  : 	while(pos != NULL)

  0007e	85 ff		 test	 edi, edi
  00080	74 36		 je	 SHORT $LN57@AddTail
$LL12@AddTail:

; 267  : 	{
; 268  : 		CIndiInfoData* pIndiInfoData = m_indiInfoDataList.GetNext(pos);

  00082	8b 4f 08	 mov	 ecx, DWORD PTR [edi+8]
; File C:\Program Files (x86)\Microsoft Visual Studio\2019\Community\VC\Tools\MSVC\14.29.30133\atlmfc\include\afxtempl.h

; 819  : 		rPosition = (POSITION) pNode->pNext;

  00085	8b 3f		 mov	 edi, DWORD PTR [edi]
; File D:\git\src\IBK\IBK_DRFN\ProjSrc\SrcChartEx\ChartAddIn\ChartEnvSetupDlgAddIn\ChartEnvSetupDlgAddIn\OrgViewData.cpp

; 269  : 		if(pIndiInfoData == NULL)

  00087	85 c9		 test	 ecx, ecx
  00089	74 29		 je	 SHORT $LN17@AddTail

; 272  : 		if( pIndiInfoData->GetGraphName() == p_szGraphName)

  0008b	8d 45 f0	 lea	 eax, DWORD PTR $T2[ebp]
  0008e	50		 push	 eax
  0008f	e8 00 00 00 00	 call	 ?GetGraphName@CIndiInfoData@@QBE?AV?$CStringT@DV?$StrTraitMFC_DLL@DV?$ChTraitsCRT@D@ATL@@@@@ATL@@XZ ; CIndiInfoData::GetGraphName
; File C:\Program Files (x86)\Microsoft Visual Studio\2019\Community\VC\Tools\MSVC\14.29.30133\atlmfc\include\cstringt.h

; 2486 : 		return(str1.Compare(psz2) == 0);

  00094	53		 push	 ebx
  00095	8b c8		 mov	 ecx, eax
; File D:\git\src\IBK\IBK_DRFN\ProjSrc\SrcChartEx\ChartAddIn\ChartEnvSetupDlgAddIn\ChartEnvSetupDlgAddIn\OrgViewData.cpp

; 272  : 		if( pIndiInfoData->GetGraphName() == p_szGraphName)

  00097	c6 45 fc 01	 mov	 BYTE PTR __$EHRec$[ebp+8], 1
; File C:\Program Files (x86)\Microsoft Visual Studio\2019\Community\VC\Tools\MSVC\14.29.30133\atlmfc\include\cstringt.h

; 2486 : 		return(str1.Compare(psz2) == 0);

  0009b	ff 15 00 00 00
	00		 call	 DWORD PTR __imp_?Compare@?$CStringT@DV?$StrTraitMFC_DLL@DV?$ChTraitsCRT@D@ATL@@@@@ATL@@QBEHPBD@Z
; File D:\git\src\IBK\IBK_DRFN\ProjSrc\SrcChartEx\ChartAddIn\ChartEnvSetupDlgAddIn\ChartEnvSetupDlgAddIn\OrgViewData.cpp

; 272  : 		if( pIndiInfoData->GetGraphName() == p_szGraphName)

  000a1	8d 4d f0	 lea	 ecx, DWORD PTR $T2[ebp]
  000a4	c6 45 fc 00	 mov	 BYTE PTR __$EHRec$[ebp+8], 0
; File C:\Program Files (x86)\Microsoft Visual Studio\2019\Community\VC\Tools\MSVC\14.29.30133\atlmfc\include\cstringt.h

; 2486 : 		return(str1.Compare(psz2) == 0);

  000a8	8b f0		 mov	 esi, eax
; File D:\git\src\IBK\IBK_DRFN\ProjSrc\SrcChartEx\ChartAddIn\ChartEnvSetupDlgAddIn\ChartEnvSetupDlgAddIn\OrgViewData.cpp

; 272  : 		if( pIndiInfoData->GetGraphName() == p_szGraphName)

  000aa	ff 15 00 00 00
	00		 call	 DWORD PTR __imp_??1?$CStringT@DV?$StrTraitMFC_DLL@DV?$ChTraitsCRT@D@ATL@@@@@ATL@@QAE@XZ
  000b0	85 f6		 test	 esi, esi
  000b2	74 39		 je	 SHORT $LN54@AddTail
$LN17@AddTail:

; 266  : 	while(pos != NULL)

  000b4	85 ff		 test	 edi, edi
  000b6	75 ca		 jne	 SHORT $LL12@AddTail
$LN57@AddTail:

; 18   : 	return new CIndiInfoData(p_pIGraphInfo, bTheBeginning);

  000b8	8b 7d 08	 mov	 edi, DWORD PTR _p_pIGraphInfo$[ebp]
$LN55@AddTail:
  000bb	6a 0c		 push	 12			; 0000000cH
  000bd	e8 00 00 00 00	 call	 ??2@YAPAXI@Z		; operator new
  000c2	8b f0		 mov	 esi, eax
  000c4	83 c4 04	 add	 esp, 4
  000c7	89 75 08	 mov	 DWORD PTR $T3[ebp], esi
  000ca	c6 45 fc 02	 mov	 BYTE PTR __$EHRec$[ebp+8], 2
  000ce	85 f6		 test	 esi, esi
  000d0	74 1f		 je	 SHORT $LN40@AddTail

; 28   : 	m_bTheBeginning(bTheBeginning)

  000d2	8a 55 0c	 mov	 dl, BYTE PTR _bTheBeginning$[ebp]

; 29   : {
; 30   : 	m_pIGraphInfo = p_pIGraphInfo->CreateCopyObject();

  000d5	8b cf		 mov	 ecx, edi
  000d7	c7 06 00 00 00
	00		 mov	 DWORD PTR [esi], OFFSET ??_7CIndiInfoData@@6B@
  000dd	88 56 04	 mov	 BYTE PTR [esi+4], dl
  000e0	8b 07		 mov	 eax, DWORD PTR [edi]
  000e2	ff 90 bc 00 00
	00		 call	 DWORD PTR [eax+188]
  000e8	89 46 08	 mov	 DWORD PTR [esi+8], eax

; 18   : 	return new CIndiInfoData(p_pIGraphInfo, bTheBeginning);

  000eb	eb 06		 jmp	 SHORT $LN41@AddTail
$LN54@AddTail:
  000ed	32 db		 xor	 bl, bl
  000ef	eb 14		 jmp	 SHORT $LN6@AddTail
$LN40@AddTail:
  000f1	33 f6		 xor	 esi, esi
$LN41@AddTail:

; 106  : 	if( IsIndiInfoData(szGraphName)) return false;
; 107  : 
; 108  : 	m_indiInfoDataList.AddTail( CIndiInfoData::Make(p_pIGraphInfo, bTheBeginning));

  000f3	8b 4d ec	 mov	 ecx, DWORD PTR _this$1$[ebp]
  000f6	56		 push	 esi
  000f7	83 c1 04	 add	 ecx, 4

; 18   : 	return new CIndiInfoData(p_pIGraphInfo, bTheBeginning);

  000fa	c6 45 fc 00	 mov	 BYTE PTR __$EHRec$[ebp+8], 0

; 106  : 	if( IsIndiInfoData(szGraphName)) return false;
; 107  : 
; 108  : 	m_indiInfoDataList.AddTail( CIndiInfoData::Make(p_pIGraphInfo, bTheBeginning));

  000fe	e8 00 00 00 00	 call	 ?AddTail@?$CList@PAVCIndiInfoData@@PAV1@@@QAEPAU__POSITION@@PAVCIndiInfoData@@@Z ; CList<CIndiInfoData *,CIndiInfoData *>::AddTail

; 109  : 	return true;

  00103	b3 01		 mov	 bl, 1
$LN6@AddTail:
; File D:\git\src\IBK\IBK_DRFN\ProjSrc\SrcChartEx\ChartAddIn\ChartEnvSetupDlgAddIn\Include_AddIn_135914\I135914\_IString.h

; 45   : 		if( m_pIStrData)

  00105	8b 45 e8	 mov	 eax, DWORD PTR _szGraphName$[ebp+4]
  00108	c7 45 fc 03 00
	00 00		 mov	 DWORD PTR __$EHRec$[ebp+8], 3
  0010f	85 c0		 test	 eax, eax
  00111	74 06		 je	 SHORT $LN46@AddTail

; 46   : 		{
; 47   : 			m_pIStrData->Release();

  00113	8b 08		 mov	 ecx, DWORD PTR [eax]
  00115	50		 push	 eax
  00116	ff 51 08	 call	 DWORD PTR [ecx+8]
$LN46@AddTail:
; File D:\git\src\IBK\IBK_DRFN\ProjSrc\SrcChartEx\ChartAddIn\ChartEnvSetupDlgAddIn\ChartEnvSetupDlgAddIn\OrgViewData.cpp

; 109  : 	return true;

  00119	8a c3		 mov	 al, bl

; 110  : }

  0011b	8b 4d f4	 mov	 ecx, DWORD PTR __$EHRec$[ebp]
  0011e	64 89 0d 00 00
	00 00		 mov	 DWORD PTR fs:0, ecx
  00125	59		 pop	 ecx
  00126	5f		 pop	 edi
  00127	5e		 pop	 esi
  00128	5b		 pop	 ebx
  00129	8b e5		 mov	 esp, ebp
  0012b	5d		 pop	 ebp
  0012c	c2 08 00	 ret	 8
_TEXT	ENDS
;	COMDAT text$x
text$x	SEGMENT
__unwindfunclet$?AddTail@CIndiInfoDataList@@QAE_NPAUIGraphInfo135914@@_N@Z$0:
  00000	8d 4d e4	 lea	 ecx, DWORD PTR _szGraphName$[ebp]
  00003	e9 00 00 00 00	 jmp	 ??1ILPCSTR135914@@QAE@XZ ; ILPCSTR135914::~ILPCSTR135914
__unwindfunclet$?AddTail@CIndiInfoDataList@@QAE_NPAUIGraphInfo135914@@_N@Z$1:
  00008	8d 4d f0	 lea	 ecx, DWORD PTR $T2[ebp]
  0000b	ff 25 00 00 00
	00		 jmp	 DWORD PTR __imp_??1?$CStringT@DV?$StrTraitMFC_DLL@DV?$ChTraitsCRT@D@ATL@@@@@ATL@@QAE@XZ
__unwindfunclet$?AddTail@CIndiInfoDataList@@QAE_NPAUIGraphInfo135914@@_N@Z$5:
  00011	6a 0c		 push	 12			; 0000000cH
  00013	8b 45 08	 mov	 eax, DWORD PTR $T3[ebp]
  00016	50		 push	 eax
  00017	e8 00 00 00 00	 call	 ??3@YAXPAXI@Z		; operator delete
  0001c	83 c4 08	 add	 esp, 8
  0001f	c3		 ret	 0
  00020	cc		 int	 3
  00021	cc		 int	 3
  00022	cc		 int	 3
  00023	cc		 int	 3
  00024	cc		 int	 3
__ehhandler$?AddTail@CIndiInfoDataList@@QAE_NPAUIGraphInfo135914@@_N@Z:
  00025	90		 npad	 1
  00026	90		 npad	 1
  00027	8b 54 24 08	 mov	 edx, DWORD PTR [esp+8]
  0002b	8d 42 0c	 lea	 eax, DWORD PTR [edx+12]
  0002e	8b 4a e0	 mov	 ecx, DWORD PTR [edx-32]
  00031	33 c8		 xor	 ecx, eax
  00033	e8 00 00 00 00	 call	 @__security_check_cookie@4
  00038	b8 00 00 00 00	 mov	 eax, OFFSET __ehfuncinfo$?AddTail@CIndiInfoDataList@@QAE_NPAUIGraphInfo135914@@_N@Z
  0003d	e9 00 00 00 00	 jmp	 ___CxxFrameHandler3
text$x	ENDS
?AddTail@CIndiInfoDataList@@QAE_NPAUIGraphInfo135914@@_N@Z ENDP ; CIndiInfoDataList::AddTail
; Function compile flags: /Ogtp
; File D:\git\src\IBK\IBK_DRFN\ProjSrc\SrcChartEx\ChartAddIn\ChartEnvSetupDlgAddIn\ChartEnvSetupDlgAddIn\OrgViewData.cpp
; File C:\Program Files (x86)\Microsoft Visual Studio\2019\Community\VC\Tools\MSVC\14.29.30133\atlmfc\include\afxtempl.h
; File D:\git\src\IBK\IBK_DRFN\ProjSrc\SrcChartEx\ChartAddIn\ChartEnvSetupDlgAddIn\ChartEnvSetupDlgAddIn\OrgViewData.cpp
; File C:\Program Files (x86)\Microsoft Visual Studio\2019\Community\VC\Tools\MSVC\14.29.30133\atlmfc\include\afxtempl.h
; File D:\git\src\IBK\IBK_DRFN\ProjSrc\SrcChartEx\ChartAddIn\ChartEnvSetupDlgAddIn\ChartEnvSetupDlgAddIn\OrgViewData.cpp
;	COMDAT ??1CIndiInfoDataList@@UAE@XZ
_TEXT	SEGMENT
__$EHRec$ = -12						; size = 12
??1CIndiInfoDataList@@UAE@XZ PROC			; CIndiInfoDataList::~CIndiInfoDataList, COMDAT
; _this$ = ecx

; 93   : {

  00000	55		 push	 ebp
  00001	8b ec		 mov	 ebp, esp
  00003	6a ff		 push	 -1
  00005	68 00 00 00 00	 push	 __ehhandler$??1CIndiInfoDataList@@UAE@XZ
  0000a	64 a1 00 00 00
	00		 mov	 eax, DWORD PTR fs:0
  00010	50		 push	 eax
  00011	56		 push	 esi
  00012	57		 push	 edi
  00013	a1 00 00 00 00	 mov	 eax, DWORD PTR ___security_cookie
  00018	33 c5		 xor	 eax, ebp
  0001a	50		 push	 eax
  0001b	8d 45 f4	 lea	 eax, DWORD PTR __$EHRec$[ebp]
  0001e	64 a3 00 00 00
	00		 mov	 DWORD PTR fs:0, eax
  00024	8b f9		 mov	 edi, ecx

; 114  : 	POSITION pos = m_indiInfoDataList.GetHeadPosition();

  00026	8b 77 08	 mov	 esi, DWORD PTR [edi+8]

; 93   : {

  00029	c7 07 00 00 00
	00		 mov	 DWORD PTR [edi], OFFSET ??_7CIndiInfoDataList@@6B@

; 116  : 	while(pos != NULL)

  0002f	85 f6		 test	 esi, esi
  00031	74 13		 je	 SHORT $LN5@CIndiInfoD
$LL4@CIndiInfoD:

; 23   : 	delete pIndiInfoData;

  00033	8b 4e 08	 mov	 ecx, DWORD PTR [esi+8]
; File C:\Program Files (x86)\Microsoft Visual Studio\2019\Community\VC\Tools\MSVC\14.29.30133\atlmfc\include\afxtempl.h

; 813  : 		rPosition = (POSITION) pNode->pNext;

  00036	8b 36		 mov	 esi, DWORD PTR [esi]
; File D:\git\src\IBK\IBK_DRFN\ProjSrc\SrcChartEx\ChartAddIn\ChartEnvSetupDlgAddIn\ChartEnvSetupDlgAddIn\OrgViewData.cpp

; 23   : 	delete pIndiInfoData;

  00038	85 c9		 test	 ecx, ecx
  0003a	74 06		 je	 SHORT $LN11@CIndiInfoD
  0003c	8b 01		 mov	 eax, DWORD PTR [ecx]
  0003e	6a 01		 push	 1
  00040	ff 10		 call	 DWORD PTR [eax]
$LN11@CIndiInfoD:

; 116  : 	while(pos != NULL)

  00042	85 f6		 test	 esi, esi
  00044	75 ed		 jne	 SHORT $LL4@CIndiInfoD
$LN5@CIndiInfoD:
; File C:\Program Files (x86)\Microsoft Visual Studio\2019\Community\VC\Tools\MSVC\14.29.30133\atlmfc\include\afxtempl.h

; 872  : 	m_pBlocks->FreeDataChain();

  00046	8b 4f 18	 mov	 ecx, DWORD PTR [edi+24]

; 878  : {

  00049	c7 45 fc 00 00
	00 00		 mov	 DWORD PTR __$EHRec$[ebp+8], 0
  00050	c7 47 04 00 00
	00 00		 mov	 DWORD PTR [edi+4], OFFSET ??_7?$CList@PAVCIndiInfoData@@PAV1@@@6B@

; 870  : 	m_nCount = 0;

  00057	c7 47 10 00 00
	00 00		 mov	 DWORD PTR [edi+16], 0

; 871  : 	m_pNodeHead = m_pNodeTail = m_pNodeFree = NULL;

  0005e	c7 47 14 00 00
	00 00		 mov	 DWORD PTR [edi+20], 0
  00065	c7 47 0c 00 00
	00 00		 mov	 DWORD PTR [edi+12], 0
  0006c	c7 47 08 00 00
	00 00		 mov	 DWORD PTR [edi+8], 0

; 872  : 	m_pBlocks->FreeDataChain();

  00073	e8 00 00 00 00	 call	 ?FreeDataChain@CPlex@@QAEXXZ ; CPlex::FreeDataChain

; 873  : 	m_pBlocks = NULL;

  00078	c7 47 18 00 00
	00 00		 mov	 DWORD PTR [edi+24], 0
; File D:\git\src\IBK\IBK_DRFN\ProjSrc\SrcChartEx\ChartAddIn\ChartEnvSetupDlgAddIn\ChartEnvSetupDlgAddIn\OrgViewData.cpp

; 95   : }

  0007f	8b 4d f4	 mov	 ecx, DWORD PTR __$EHRec$[ebp]
  00082	64 89 0d 00 00
	00 00		 mov	 DWORD PTR fs:0, ecx
  00089	59		 pop	 ecx
  0008a	5f		 pop	 edi
  0008b	5e		 pop	 esi
  0008c	8b e5		 mov	 esp, ebp
  0008e	5d		 pop	 ebp
  0008f	c3		 ret	 0
  00090	cc		 int	 3
  00091	cc		 int	 3
  00092	cc		 int	 3
  00093	cc		 int	 3
  00094	cc		 int	 3
_TEXT	ENDS
;	COMDAT text$x
text$x	SEGMENT
__ehhandler$??1CIndiInfoDataList@@UAE@XZ:
  00000	90		 npad	 1
  00001	90		 npad	 1
  00002	8b 54 24 08	 mov	 edx, DWORD PTR [esp+8]
  00006	8d 42 0c	 lea	 eax, DWORD PTR [edx+12]
  00009	8b 4a f4	 mov	 ecx, DWORD PTR [edx-12]
  0000c	33 c8		 xor	 ecx, eax
  0000e	e8 00 00 00 00	 call	 @__security_check_cookie@4
  00013	b8 00 00 00 00	 mov	 eax, OFFSET __ehfuncinfo$??1CIndiInfoDataList@@UAE@XZ
  00018	e9 00 00 00 00	 jmp	 ___CxxFrameHandler3
text$x	ENDS
??1CIndiInfoDataList@@UAE@XZ ENDP			; CIndiInfoDataList::~CIndiInfoDataList
; Function compile flags: /Ogtp
; File D:\git\src\IBK\IBK_DRFN\ProjSrc\SrcChartEx\ChartAddIn\ChartEnvSetupDlgAddIn\ChartEnvSetupDlgAddIn\OrgViewData.cpp
; File C:\Program Files (x86)\Microsoft Visual Studio\2019\Community\VC\Tools\MSVC\14.29.30133\atlmfc\include\afxtempl.h
; File D:\git\src\IBK\IBK_DRFN\ProjSrc\SrcChartEx\ChartAddIn\ChartEnvSetupDlgAddIn\ChartEnvSetupDlgAddIn\OrgViewData.cpp
;	COMDAT ??0CIndiInfoDataList@@QAE@XZ
_TEXT	SEGMENT
_this$ = -4						; size = 4
??0CIndiInfoDataList@@QAE@XZ PROC			; CIndiInfoDataList::CIndiInfoDataList, COMDAT
; _this$ = ecx

; 89   : {

  00000	55		 push	 ebp
  00001	8b ec		 mov	 ebp, esp
  00003	51		 push	 ecx
  00004	c7 01 00 00 00
	00		 mov	 DWORD PTR [ecx], OFFSET ??_7CIndiInfoDataList@@6B@

; 90   : }

  0000a	8b c1		 mov	 eax, ecx
  0000c	89 4d fc	 mov	 DWORD PTR _this$[ebp], ecx
; File C:\Program Files (x86)\Microsoft Visual Studio\2019\Community\VC\Tools\MSVC\14.29.30133\atlmfc\include\afxtempl.h

; 851  : {

  0000f	c7 41 04 00 00
	00 00		 mov	 DWORD PTR [ecx+4], OFFSET ??_7?$CList@PAVCIndiInfoData@@PAV1@@@6B@

; 852  : 	ASSERT(nBlockSize > 0);
; 853  : 
; 854  : 	m_nCount = 0;

  00016	c7 41 10 00 00
	00 00		 mov	 DWORD PTR [ecx+16], 0

; 855  : 	m_pNodeHead = m_pNodeTail = m_pNodeFree = NULL;

  0001d	c7 41 14 00 00
	00 00		 mov	 DWORD PTR [ecx+20], 0
  00024	c7 41 0c 00 00
	00 00		 mov	 DWORD PTR [ecx+12], 0
  0002b	c7 41 08 00 00
	00 00		 mov	 DWORD PTR [ecx+8], 0

; 856  : 	m_pBlocks = NULL;

  00032	c7 41 18 00 00
	00 00		 mov	 DWORD PTR [ecx+24], 0

; 857  : 	m_nBlockSize = nBlockSize;

  00039	c7 41 1c 0a 00
	00 00		 mov	 DWORD PTR [ecx+28], 10	; 0000000aH
; File D:\git\src\IBK\IBK_DRFN\ProjSrc\SrcChartEx\ChartAddIn\ChartEnvSetupDlgAddIn\ChartEnvSetupDlgAddIn\OrgViewData.cpp

; 90   : }

  00040	8b e5		 mov	 esp, ebp
  00042	5d		 pop	 ebp
  00043	c3		 ret	 0
??0CIndiInfoDataList@@QAE@XZ ENDP			; CIndiInfoDataList::CIndiInfoDataList
_TEXT	ENDS
; Function compile flags: /Ogtp
; File D:\git\src\IBK\IBK_DRFN\ProjSrc\SrcChartEx\ChartAddIn\ChartEnvSetupDlgAddIn\ChartEnvSetupDlgAddIn\OrgViewData.cpp
;	COMDAT ??_GCIndiInfoData@@UAEPAXI@Z
_TEXT	SEGMENT
__$EHRec$ = -12						; size = 12
___flags$ = 8						; size = 4
??_GCIndiInfoData@@UAEPAXI@Z PROC			; CIndiInfoData::`scalar deleting destructor', COMDAT
; _this$ = ecx
  00000	55		 push	 ebp
  00001	8b ec		 mov	 ebp, esp
  00003	6a ff		 push	 -1
  00005	68 00 00 00 00	 push	 __ehhandler$??_GCIndiInfoData@@UAEPAXI@Z
  0000a	64 a1 00 00 00
	00		 mov	 eax, DWORD PTR fs:0
  00010	50		 push	 eax
  00011	56		 push	 esi
  00012	a1 00 00 00 00	 mov	 eax, DWORD PTR ___security_cookie
  00017	33 c5		 xor	 eax, ebp
  00019	50		 push	 eax
  0001a	8d 45 f4	 lea	 eax, DWORD PTR __$EHRec$[ebp]
  0001d	64 a3 00 00 00
	00		 mov	 DWORD PTR fs:0, eax
  00023	8b f1		 mov	 esi, ecx

; 35   : 	if( m_pIGraphInfo)

  00025	8b 4e 08	 mov	 ecx, DWORD PTR [esi+8]
  00028	c7 45 fc 00 00
	00 00		 mov	 DWORD PTR __$EHRec$[ebp+8], 0
  0002f	c7 06 00 00 00
	00		 mov	 DWORD PTR [esi], OFFSET ??_7CIndiInfoData@@6B@
  00035	85 c9		 test	 ecx, ecx
  00037	74 0d		 je	 SHORT $LN5@scalar

; 36   : 	{
; 37   : 		m_pIGraphInfo->Release();

  00039	8b 01		 mov	 eax, DWORD PTR [ecx]
  0003b	51		 push	 ecx
  0003c	ff 50 08	 call	 DWORD PTR [eax+8]

; 38   : 		m_pIGraphInfo = NULL;

  0003f	c7 46 08 00 00
	00 00		 mov	 DWORD PTR [esi+8], 0
$LN5@scalar:
  00046	f6 45 08 01	 test	 BYTE PTR ___flags$[ebp], 1
  0004a	74 0b		 je	 SHORT $LN8@scalar
  0004c	6a 0c		 push	 12			; 0000000cH
  0004e	56		 push	 esi
  0004f	e8 00 00 00 00	 call	 ??3@YAXPAXI@Z		; operator delete
  00054	83 c4 08	 add	 esp, 8
$LN8@scalar:
  00057	8b c6		 mov	 eax, esi
  00059	8b 4d f4	 mov	 ecx, DWORD PTR __$EHRec$[ebp]
  0005c	64 89 0d 00 00
	00 00		 mov	 DWORD PTR fs:0, ecx
  00063	59		 pop	 ecx
  00064	5e		 pop	 esi
  00065	8b e5		 mov	 esp, ebp
  00067	5d		 pop	 ebp
  00068	c2 04 00	 ret	 4
  0006b	cc		 int	 3
  0006c	cc		 int	 3
  0006d	cc		 int	 3
  0006e	cc		 int	 3
  0006f	cc		 int	 3
_TEXT	ENDS
;	COMDAT text$x
text$x	SEGMENT
__ehhandler$??_GCIndiInfoData@@UAEPAXI@Z:
  00000	90		 npad	 1
  00001	90		 npad	 1
  00002	8b 54 24 08	 mov	 edx, DWORD PTR [esp+8]
  00006	8d 42 0c	 lea	 eax, DWORD PTR [edx+12]
  00009	8b 4a f8	 mov	 ecx, DWORD PTR [edx-8]
  0000c	33 c8		 xor	 ecx, eax
  0000e	e8 00 00 00 00	 call	 @__security_check_cookie@4
  00013	b8 00 00 00 00	 mov	 eax, OFFSET __ehfuncinfo$??_GCIndiInfoData@@UAEPAXI@Z
  00018	e9 00 00 00 00	 jmp	 ___CxxFrameHandler3
text$x	ENDS
??_GCIndiInfoData@@UAEPAXI@Z ENDP			; CIndiInfoData::`scalar deleting destructor'
; Function compile flags: /Ogtp
; File D:\git\src\IBK\IBK_DRFN\ProjSrc\SrcChartEx\ChartAddIn\ChartEnvSetupDlgAddIn\ChartEnvSetupDlgAddIn\OrgViewData.cpp
; File D:\git\src\IBK\IBK_DRFN\ProjSrc\SrcChartEx\ChartAddIn\ChartEnvSetupDlgAddIn\Include_AddIn_135914\I135914\_IString.h
; File D:\git\src\IBK\IBK_DRFN\ProjSrc\SrcChartEx\ChartAddIn\ChartEnvSetupDlgAddIn\ChartEnvSetupDlgAddIn\OrgViewData.cpp
; File D:\git\src\IBK\IBK_DRFN\ProjSrc\SrcChartEx\ChartAddIn\ChartEnvSetupDlgAddIn\Include_AddIn_135914\I135914\_IString.h
; File D:\git\src\IBK\IBK_DRFN\ProjSrc\SrcChartEx\ChartAddIn\ChartEnvSetupDlgAddIn\ChartEnvSetupDlgAddIn\OrgViewData.cpp
;	COMDAT ?GetIndicatorName@CIndiInfoData@@QBE?AV?$CStringT@DV?$StrTraitMFC_DLL@DV?$ChTraitsCRT@D@ATL@@@@@ATL@@XZ
_TEXT	SEGMENT
_szIndicatorName$ = -20					; size = 8
__$EHRec$ = -12						; size = 12
___$ReturnUdt$ = 8					; size = 4
?GetIndicatorName@CIndiInfoData@@QBE?AV?$CStringT@DV?$StrTraitMFC_DLL@DV?$ChTraitsCRT@D@ATL@@@@@ATL@@XZ PROC ; CIndiInfoData::GetIndicatorName, COMDAT
; _this$ = ecx

; 78   : {

  00000	55		 push	 ebp
  00001	8b ec		 mov	 ebp, esp
  00003	6a ff		 push	 -1
  00005	68 00 00 00 00	 push	 __ehhandler$?GetIndicatorName@CIndiInfoData@@QBE?AV?$CStringT@DV?$StrTraitMFC_DLL@DV?$ChTraitsCRT@D@ATL@@@@@ATL@@XZ
  0000a	64 a1 00 00 00
	00		 mov	 eax, DWORD PTR fs:0
  00010	50		 push	 eax
  00011	83 ec 08	 sub	 esp, 8
  00014	56		 push	 esi
  00015	a1 00 00 00 00	 mov	 eax, DWORD PTR ___security_cookie
  0001a	33 c5		 xor	 eax, ebp
  0001c	50		 push	 eax
  0001d	8d 45 f4	 lea	 eax, DWORD PTR __$EHRec$[ebp]
  00020	64 a3 00 00 00
	00		 mov	 DWORD PTR fs:0, eax

; 79   : 	if( !m_pIGraphInfo) return "";

  00026	8b 49 08	 mov	 ecx, DWORD PTR [ecx+8]
  00029	85 c9		 test	 ecx, ecx
  0002b	75 10		 jne	 SHORT $LN2@GetIndicat
  0002d	8b 4d 08	 mov	 ecx, DWORD PTR ___$ReturnUdt$[ebp]
  00030	68 00 00 00 00	 push	 OFFSET ??_C@_00CNPNBAHC@@
  00035	ff 15 00 00 00
	00		 call	 DWORD PTR __imp_??0?$CStringT@DV?$StrTraitMFC_DLL@DV?$ChTraitsCRT@D@ATL@@@@@ATL@@QAE@PBD@Z
  0003b	eb 41		 jmp	 SHORT $LN12@GetIndicat
$LN2@GetIndicat:

; 80   : 	ILPCSTR szIndicatorName = m_pIGraphInfo->GetIndicatorNameString();

  0003d	8b 01		 mov	 eax, DWORD PTR [ecx]
  0003f	ff 90 a4 00 00
	00		 call	 DWORD PTR [eax+164]
; File D:\git\src\IBK\IBK_DRFN\ProjSrc\SrcChartEx\ChartAddIn\ChartEnvSetupDlgAddIn\Include_AddIn_135914\I135914\_IString.h

; 39   : 		m_pIStrData = p_pIString;	// Do not AddRef(). Because It must be Return Value.

  00045	8b f0		 mov	 esi, eax
  00047	89 75 f0	 mov	 DWORD PTR _szIndicatorName$[ebp+4], esi

; 40   : 		if( m_pIStrData) m_szData = m_pIStrData->GetData();

  0004a	85 f6		 test	 esi, esi
  0004c	74 09		 je	 SHORT $LN8@GetIndicat
  0004e	8b 16		 mov	 edx, DWORD PTR [esi]
  00050	8b ce		 mov	 ecx, esi
  00052	ff 52 10	 call	 DWORD PTR [edx+16]
  00055	eb 02		 jmp	 SHORT $LN16@GetIndicat
$LN8@GetIndicat:

; 41   : 		else m_szData = NULL;

  00057	33 c0		 xor	 eax, eax
$LN16@GetIndicat:
; File D:\git\src\IBK\IBK_DRFN\ProjSrc\SrcChartEx\ChartAddIn\ChartEnvSetupDlgAddIn\ChartEnvSetupDlgAddIn\OrgViewData.cpp

; 80   : 	ILPCSTR szIndicatorName = m_pIGraphInfo->GetIndicatorNameString();

  00059	89 45 ec	 mov	 DWORD PTR _szIndicatorName$[ebp], eax

; 81   : 	return szIndicatorName;

  0005c	8b 4d 08	 mov	 ecx, DWORD PTR ___$ReturnUdt$[ebp]
  0005f	50		 push	 eax
  00060	c7 45 fc 00 00
	00 00		 mov	 DWORD PTR __$EHRec$[ebp+8], 0
  00067	ff 15 00 00 00
	00		 call	 DWORD PTR __imp_??0?$CStringT@DV?$StrTraitMFC_DLL@DV?$ChTraitsCRT@D@ATL@@@@@ATL@@QAE@PBD@Z
; File D:\git\src\IBK\IBK_DRFN\ProjSrc\SrcChartEx\ChartAddIn\ChartEnvSetupDlgAddIn\Include_AddIn_135914\I135914\_IString.h

; 44   : 	{

  0006d	c7 45 fc 01 00
	00 00		 mov	 DWORD PTR __$EHRec$[ebp+8], 1

; 45   : 		if( m_pIStrData)

  00074	85 f6		 test	 esi, esi
  00076	74 06		 je	 SHORT $LN12@GetIndicat

; 46   : 		{
; 47   : 			m_pIStrData->Release();

  00078	8b 0e		 mov	 ecx, DWORD PTR [esi]
  0007a	56		 push	 esi
  0007b	ff 51 08	 call	 DWORD PTR [ecx+8]
$LN12@GetIndicat:
; File D:\git\src\IBK\IBK_DRFN\ProjSrc\SrcChartEx\ChartAddIn\ChartEnvSetupDlgAddIn\ChartEnvSetupDlgAddIn\OrgViewData.cpp

; 82   : }

  0007e	8b 45 08	 mov	 eax, DWORD PTR ___$ReturnUdt$[ebp]
  00081	8b 4d f4	 mov	 ecx, DWORD PTR __$EHRec$[ebp]
  00084	64 89 0d 00 00
	00 00		 mov	 DWORD PTR fs:0, ecx
  0008b	59		 pop	 ecx
  0008c	5e		 pop	 esi
  0008d	8b e5		 mov	 esp, ebp
  0008f	5d		 pop	 ebp
  00090	c2 04 00	 ret	 4
_TEXT	ENDS
;	COMDAT text$x
text$x	SEGMENT
__unwindfunclet$?GetIndicatorName@CIndiInfoData@@QBE?AV?$CStringT@DV?$StrTraitMFC_DLL@DV?$ChTraitsCRT@D@ATL@@@@@ATL@@XZ$1:
  00000	8d 4d ec	 lea	 ecx, DWORD PTR _szIndicatorName$[ebp]
  00003	e9 00 00 00 00	 jmp	 ??1ILPCSTR135914@@QAE@XZ ; ILPCSTR135914::~ILPCSTR135914
  00008	cc		 int	 3
  00009	cc		 int	 3
  0000a	cc		 int	 3
  0000b	cc		 int	 3
  0000c	cc		 int	 3
__ehhandler$?GetIndicatorName@CIndiInfoData@@QBE?AV?$CStringT@DV?$StrTraitMFC_DLL@DV?$ChTraitsCRT@D@ATL@@@@@ATL@@XZ:
  0000d	90		 npad	 1
  0000e	90		 npad	 1
  0000f	8b 54 24 08	 mov	 edx, DWORD PTR [esp+8]
  00013	8d 42 0c	 lea	 eax, DWORD PTR [edx+12]
  00016	8b 4a f0	 mov	 ecx, DWORD PTR [edx-16]
  00019	33 c8		 xor	 ecx, eax
  0001b	e8 00 00 00 00	 call	 @__security_check_cookie@4
  00020	b8 00 00 00 00	 mov	 eax, OFFSET __ehfuncinfo$?GetIndicatorName@CIndiInfoData@@QBE?AV?$CStringT@DV?$StrTraitMFC_DLL@DV?$ChTraitsCRT@D@ATL@@@@@ATL@@XZ
  00025	e9 00 00 00 00	 jmp	 ___CxxFrameHandler3
text$x	ENDS
?GetIndicatorName@CIndiInfoData@@QBE?AV?$CStringT@DV?$StrTraitMFC_DLL@DV?$ChTraitsCRT@D@ATL@@@@@ATL@@XZ ENDP ; CIndiInfoData::GetIndicatorName
; Function compile flags: /Ogtp
; File D:\git\src\IBK\IBK_DRFN\ProjSrc\SrcChartEx\ChartAddIn\ChartEnvSetupDlgAddIn\ChartEnvSetupDlgAddIn\OrgViewData.cpp
; File D:\git\src\IBK\IBK_DRFN\ProjSrc\SrcChartEx\ChartAddIn\ChartEnvSetupDlgAddIn\Include_AddIn_135914\I135914\_IString.h
; File D:\git\src\IBK\IBK_DRFN\ProjSrc\SrcChartEx\ChartAddIn\ChartEnvSetupDlgAddIn\ChartEnvSetupDlgAddIn\OrgViewData.cpp
; File D:\git\src\IBK\IBK_DRFN\ProjSrc\SrcChartEx\ChartAddIn\ChartEnvSetupDlgAddIn\Include_AddIn_135914\I135914\_IString.h
; File D:\git\src\IBK\IBK_DRFN\ProjSrc\SrcChartEx\ChartAddIn\ChartEnvSetupDlgAddIn\ChartEnvSetupDlgAddIn\OrgViewData.cpp
;	COMDAT ?GetGraphName@CIndiInfoData@@QBE?AV?$CStringT@DV?$StrTraitMFC_DLL@DV?$ChTraitsCRT@D@ATL@@@@@ATL@@XZ
_TEXT	SEGMENT
_szGraphName$ = -20					; size = 8
__$EHRec$ = -12						; size = 12
___$ReturnUdt$ = 8					; size = 4
?GetGraphName@CIndiInfoData@@QBE?AV?$CStringT@DV?$StrTraitMFC_DLL@DV?$ChTraitsCRT@D@ATL@@@@@ATL@@XZ PROC ; CIndiInfoData::GetGraphName, COMDAT
; _this$ = ecx

; 71   : {

  00000	55		 push	 ebp
  00001	8b ec		 mov	 ebp, esp
  00003	6a ff		 push	 -1
  00005	68 00 00 00 00	 push	 __ehhandler$?GetGraphName@CIndiInfoData@@QBE?AV?$CStringT@DV?$StrTraitMFC_DLL@DV?$ChTraitsCRT@D@ATL@@@@@ATL@@XZ
  0000a	64 a1 00 00 00
	00		 mov	 eax, DWORD PTR fs:0
  00010	50		 push	 eax
  00011	83 ec 08	 sub	 esp, 8
  00014	56		 push	 esi
  00015	a1 00 00 00 00	 mov	 eax, DWORD PTR ___security_cookie
  0001a	33 c5		 xor	 eax, ebp
  0001c	50		 push	 eax
  0001d	8d 45 f4	 lea	 eax, DWORD PTR __$EHRec$[ebp]
  00020	64 a3 00 00 00
	00		 mov	 DWORD PTR fs:0, eax

; 72   : 	if( !m_pIGraphInfo) return "";

  00026	8b 49 08	 mov	 ecx, DWORD PTR [ecx+8]
  00029	85 c9		 test	 ecx, ecx
  0002b	75 10		 jne	 SHORT $LN2@GetGraphNa
  0002d	8b 4d 08	 mov	 ecx, DWORD PTR ___$ReturnUdt$[ebp]
  00030	68 00 00 00 00	 push	 OFFSET ??_C@_00CNPNBAHC@@
  00035	ff 15 00 00 00
	00		 call	 DWORD PTR __imp_??0?$CStringT@DV?$StrTraitMFC_DLL@DV?$ChTraitsCRT@D@ATL@@@@@ATL@@QAE@PBD@Z
  0003b	eb 41		 jmp	 SHORT $LN12@GetGraphNa
$LN2@GetGraphNa:

; 73   : 	ILPCSTR szGraphName = m_pIGraphInfo->GetGraphNameString();

  0003d	8b 01		 mov	 eax, DWORD PTR [ecx]
  0003f	ff 90 a0 00 00
	00		 call	 DWORD PTR [eax+160]
; File D:\git\src\IBK\IBK_DRFN\ProjSrc\SrcChartEx\ChartAddIn\ChartEnvSetupDlgAddIn\Include_AddIn_135914\I135914\_IString.h

; 39   : 		m_pIStrData = p_pIString;	// Do not AddRef(). Because It must be Return Value.

  00045	8b f0		 mov	 esi, eax
  00047	89 75 f0	 mov	 DWORD PTR _szGraphName$[ebp+4], esi

; 40   : 		if( m_pIStrData) m_szData = m_pIStrData->GetData();

  0004a	85 f6		 test	 esi, esi
  0004c	74 09		 je	 SHORT $LN8@GetGraphNa
  0004e	8b 16		 mov	 edx, DWORD PTR [esi]
  00050	8b ce		 mov	 ecx, esi
  00052	ff 52 10	 call	 DWORD PTR [edx+16]
  00055	eb 02		 jmp	 SHORT $LN16@GetGraphNa
$LN8@GetGraphNa:

; 41   : 		else m_szData = NULL;

  00057	33 c0		 xor	 eax, eax
$LN16@GetGraphNa:
; File D:\git\src\IBK\IBK_DRFN\ProjSrc\SrcChartEx\ChartAddIn\ChartEnvSetupDlgAddIn\ChartEnvSetupDlgAddIn\OrgViewData.cpp

; 73   : 	ILPCSTR szGraphName = m_pIGraphInfo->GetGraphNameString();

  00059	89 45 ec	 mov	 DWORD PTR _szGraphName$[ebp], eax

; 74   : 	return szGraphName;

  0005c	8b 4d 08	 mov	 ecx, DWORD PTR ___$ReturnUdt$[ebp]
  0005f	50		 push	 eax
  00060	c7 45 fc 00 00
	00 00		 mov	 DWORD PTR __$EHRec$[ebp+8], 0
  00067	ff 15 00 00 00
	00		 call	 DWORD PTR __imp_??0?$CStringT@DV?$StrTraitMFC_DLL@DV?$ChTraitsCRT@D@ATL@@@@@ATL@@QAE@PBD@Z
; File D:\git\src\IBK\IBK_DRFN\ProjSrc\SrcChartEx\ChartAddIn\ChartEnvSetupDlgAddIn\Include_AddIn_135914\I135914\_IString.h

; 44   : 	{

  0006d	c7 45 fc 01 00
	00 00		 mov	 DWORD PTR __$EHRec$[ebp+8], 1

; 45   : 		if( m_pIStrData)

  00074	85 f6		 test	 esi, esi
  00076	74 06		 je	 SHORT $LN12@GetGraphNa

; 46   : 		{
; 47   : 			m_pIStrData->Release();

  00078	8b 0e		 mov	 ecx, DWORD PTR [esi]
  0007a	56		 push	 esi
  0007b	ff 51 08	 call	 DWORD PTR [ecx+8]
$LN12@GetGraphNa:
; File D:\git\src\IBK\IBK_DRFN\ProjSrc\SrcChartEx\ChartAddIn\ChartEnvSetupDlgAddIn\ChartEnvSetupDlgAddIn\OrgViewData.cpp

; 75   : }

  0007e	8b 45 08	 mov	 eax, DWORD PTR ___$ReturnUdt$[ebp]
  00081	8b 4d f4	 mov	 ecx, DWORD PTR __$EHRec$[ebp]
  00084	64 89 0d 00 00
	00 00		 mov	 DWORD PTR fs:0, ecx
  0008b	59		 pop	 ecx
  0008c	5e		 pop	 esi
  0008d	8b e5		 mov	 esp, ebp
  0008f	5d		 pop	 ebp
  00090	c2 04 00	 ret	 4
_TEXT	ENDS
;	COMDAT text$x
text$x	SEGMENT
__unwindfunclet$?GetGraphName@CIndiInfoData@@QBE?AV?$CStringT@DV?$StrTraitMFC_DLL@DV?$ChTraitsCRT@D@ATL@@@@@ATL@@XZ$1:
  00000	8d 4d ec	 lea	 ecx, DWORD PTR _szGraphName$[ebp]
  00003	e9 00 00 00 00	 jmp	 ??1ILPCSTR135914@@QAE@XZ ; ILPCSTR135914::~ILPCSTR135914
  00008	cc		 int	 3
  00009	cc		 int	 3
  0000a	cc		 int	 3
  0000b	cc		 int	 3
  0000c	cc		 int	 3
__ehhandler$?GetGraphName@CIndiInfoData@@QBE?AV?$CStringT@DV?$StrTraitMFC_DLL@DV?$ChTraitsCRT@D@ATL@@@@@ATL@@XZ:
  0000d	90		 npad	 1
  0000e	90		 npad	 1
  0000f	8b 54 24 08	 mov	 edx, DWORD PTR [esp+8]
  00013	8d 42 0c	 lea	 eax, DWORD PTR [edx+12]
  00016	8b 4a f0	 mov	 ecx, DWORD PTR [edx-16]
  00019	33 c8		 xor	 ecx, eax
  0001b	e8 00 00 00 00	 call	 @__security_check_cookie@4
  00020	b8 00 00 00 00	 mov	 eax, OFFSET __ehfuncinfo$?GetGraphName@CIndiInfoData@@QBE?AV?$CStringT@DV?$StrTraitMFC_DLL@DV?$ChTraitsCRT@D@ATL@@@@@ATL@@XZ
  00025	e9 00 00 00 00	 jmp	 ___CxxFrameHandler3
text$x	ENDS
?GetGraphName@CIndiInfoData@@QBE?AV?$CStringT@DV?$StrTraitMFC_DLL@DV?$ChTraitsCRT@D@ATL@@@@@ATL@@XZ ENDP ; CIndiInfoData::GetGraphName
; Function compile flags: /Ogtp
; File D:\git\src\IBK\IBK_DRFN\ProjSrc\SrcChartEx\ChartAddIn\ChartEnvSetupDlgAddIn\ChartEnvSetupDlgAddIn\OrgViewData.cpp
;	COMDAT ?GetIGraphInfo@CIndiInfoData@@QAEPAUIGraphInfo135914@@XZ
_TEXT	SEGMENT
?GetIGraphInfo@CIndiInfoData@@QAEPAUIGraphInfo135914@@XZ PROC ; CIndiInfoData::GetIGraphInfo, COMDAT
; _this$ = ecx

; 64   : {

  00000	56		 push	 esi
  00001	8b f1		 mov	 esi, ecx

; 65   : 	if( m_pIGraphInfo) m_pIGraphInfo->AddRef();

  00003	8b 56 08	 mov	 edx, DWORD PTR [esi+8]
  00006	85 d2		 test	 edx, edx
  00008	74 0b		 je	 SHORT $LN4@GetIGraphI
  0000a	8b 02		 mov	 eax, DWORD PTR [edx]
  0000c	52		 push	 edx
  0000d	ff 50 04	 call	 DWORD PTR [eax+4]

; 66   : 	return m_pIGraphInfo;

  00010	8b 46 08	 mov	 eax, DWORD PTR [esi+8]
  00013	5e		 pop	 esi

; 67   : }

  00014	c3		 ret	 0
$LN4@GetIGraphI:

; 66   : 	return m_pIGraphInfo;

  00015	8b c2		 mov	 eax, edx
  00017	5e		 pop	 esi

; 67   : }

  00018	c3		 ret	 0
?GetIGraphInfo@CIndiInfoData@@QAEPAUIGraphInfo135914@@XZ ENDP ; CIndiInfoData::GetIGraphInfo
_TEXT	ENDS
; Function compile flags: /Ogtp
; File D:\git\src\IBK\IBK_DRFN\ProjSrc\SrcChartEx\ChartAddIn\ChartEnvSetupDlgAddIn\ChartEnvSetupDlgAddIn\OrgViewData.cpp
;	COMDAT ?IsTheBeginning@CIndiInfoData@@QBE_NXZ
_TEXT	SEGMENT
?IsTheBeginning@CIndiInfoData@@QBE_NXZ PROC		; CIndiInfoData::IsTheBeginning, COMDAT
; _this$ = ecx

; 60   : 	return m_bTheBeginning;

  00000	8a 41 04	 mov	 al, BYTE PTR [ecx+4]

; 61   : }

  00003	c3		 ret	 0
?IsTheBeginning@CIndiInfoData@@QBE_NXZ ENDP		; CIndiInfoData::IsTheBeginning
_TEXT	ENDS
; Function compile flags: /Ogtp
; File D:\git\src\IBK\IBK_DRFN\ProjSrc\SrcChartEx\ChartAddIn\ChartEnvSetupDlgAddIn\ChartEnvSetupDlgAddIn\OrgViewData.cpp
;	COMDAT ?SetIndicatorInfo@CIndiInfoData@@QAEXPAUIGraphInfo135914@@@Z
_TEXT	SEGMENT
_p_pIGraphInfo$ = 8					; size = 4
?SetIndicatorInfo@CIndiInfoData@@QAEXPAUIGraphInfo135914@@@Z PROC ; CIndiInfoData::SetIndicatorInfo, COMDAT
; _this$ = ecx

; 49   : {

  00000	55		 push	 ebp
  00001	8b ec		 mov	 ebp, esp
  00003	56		 push	 esi

; 50   : 	if(p_pIGraphInfo == NULL)

  00004	8b 75 08	 mov	 esi, DWORD PTR _p_pIGraphInfo$[ebp]
  00007	57		 push	 edi
  00008	8b f9		 mov	 edi, ecx
  0000a	85 f6		 test	 esi, esi
  0000c	74 1a		 je	 SHORT $LN1@SetIndicat

; 51   : 		return;
; 52   : 
; 53   : 	if( m_pIGraphInfo) m_pIGraphInfo->Release();

  0000e	8b 57 08	 mov	 edx, DWORD PTR [edi+8]
  00011	85 d2		 test	 edx, edx
  00013	74 06		 je	 SHORT $LN3@SetIndicat
  00015	8b 02		 mov	 eax, DWORD PTR [edx]
  00017	52		 push	 edx
  00018	ff 50 08	 call	 DWORD PTR [eax+8]
$LN3@SetIndicat:

; 54   : 	m_pIGraphInfo = p_pIGraphInfo->CreateCopyObject();

  0001b	8b 06		 mov	 eax, DWORD PTR [esi]
  0001d	8b ce		 mov	 ecx, esi
  0001f	ff 90 bc 00 00
	00		 call	 DWORD PTR [eax+188]
  00025	89 47 08	 mov	 DWORD PTR [edi+8], eax
$LN1@SetIndicat:

; 55   : }

  00028	5f		 pop	 edi
  00029	5e		 pop	 esi
  0002a	5d		 pop	 ebp
  0002b	c2 04 00	 ret	 4
?SetIndicatorInfo@CIndiInfoData@@QAEXPAUIGraphInfo135914@@@Z ENDP ; CIndiInfoData::SetIndicatorInfo
_TEXT	ENDS
; Function compile flags: /Ogtp
; File D:\git\src\IBK\IBK_DRFN\ProjSrc\SrcChartEx\ChartAddIn\ChartEnvSetupDlgAddIn\ChartEnvSetupDlgAddIn\OrgViewData.cpp
;	COMDAT ?SetTheBeginning@CIndiInfoData@@QAEX_N@Z
_TEXT	SEGMENT
_bTheBeginning$ = 8					; size = 1
?SetTheBeginning@CIndiInfoData@@QAEX_N@Z PROC		; CIndiInfoData::SetTheBeginning, COMDAT
; _this$ = ecx

; 44   : {

  00000	55		 push	 ebp
  00001	8b ec		 mov	 ebp, esp

; 45   : 	m_bTheBeginning = bTheBeginning;

  00003	8a 45 08	 mov	 al, BYTE PTR _bTheBeginning$[ebp]
  00006	88 41 04	 mov	 BYTE PTR [ecx+4], al

; 46   : }

  00009	5d		 pop	 ebp
  0000a	c2 04 00	 ret	 4
?SetTheBeginning@CIndiInfoData@@QAEX_N@Z ENDP		; CIndiInfoData::SetTheBeginning
_TEXT	ENDS
; Function compile flags: /Ogtp
; File D:\git\src\IBK\IBK_DRFN\ProjSrc\SrcChartEx\ChartAddIn\ChartEnvSetupDlgAddIn\ChartEnvSetupDlgAddIn\OrgViewData.cpp
;	COMDAT ??1CIndiInfoData@@UAE@XZ
_TEXT	SEGMENT
__$EHRec$ = -12						; size = 12
??1CIndiInfoData@@UAE@XZ PROC				; CIndiInfoData::~CIndiInfoData, COMDAT
; _this$ = ecx

; 34   : {

  00000	55		 push	 ebp
  00001	8b ec		 mov	 ebp, esp
  00003	6a ff		 push	 -1
  00005	68 00 00 00 00	 push	 __ehhandler$??1CIndiInfoData@@UAE@XZ
  0000a	64 a1 00 00 00
	00		 mov	 eax, DWORD PTR fs:0
  00010	50		 push	 eax
  00011	56		 push	 esi
  00012	a1 00 00 00 00	 mov	 eax, DWORD PTR ___security_cookie
  00017	33 c5		 xor	 eax, ebp
  00019	50		 push	 eax
  0001a	8d 45 f4	 lea	 eax, DWORD PTR __$EHRec$[ebp]
  0001d	64 a3 00 00 00
	00		 mov	 DWORD PTR fs:0, eax
  00023	8b f1		 mov	 esi, ecx

; 35   : 	if( m_pIGraphInfo)

  00025	8b 4e 08	 mov	 ecx, DWORD PTR [esi+8]
  00028	c7 06 00 00 00
	00		 mov	 DWORD PTR [esi], OFFSET ??_7CIndiInfoData@@6B@
  0002e	85 c9		 test	 ecx, ecx
  00030	74 0d		 je	 SHORT $LN2@CIndiInfoD

; 36   : 	{
; 37   : 		m_pIGraphInfo->Release();

  00032	8b 01		 mov	 eax, DWORD PTR [ecx]
  00034	51		 push	 ecx
  00035	ff 50 08	 call	 DWORD PTR [eax+8]

; 38   : 		m_pIGraphInfo = NULL;

  00038	c7 46 08 00 00
	00 00		 mov	 DWORD PTR [esi+8], 0
$LN2@CIndiInfoD:

; 39   : 	}
; 40   : }

  0003f	8b 4d f4	 mov	 ecx, DWORD PTR __$EHRec$[ebp]
  00042	64 89 0d 00 00
	00 00		 mov	 DWORD PTR fs:0, ecx
  00049	59		 pop	 ecx
  0004a	5e		 pop	 esi
  0004b	8b e5		 mov	 esp, ebp
  0004d	5d		 pop	 ebp
  0004e	c3		 ret	 0
  0004f	cc		 int	 3
  00050	cc		 int	 3
  00051	cc		 int	 3
  00052	cc		 int	 3
  00053	cc		 int	 3
_TEXT	ENDS
;	COMDAT text$x
text$x	SEGMENT
__ehhandler$??1CIndiInfoData@@UAE@XZ:
  00000	90		 npad	 1
  00001	90		 npad	 1
  00002	8b 54 24 08	 mov	 edx, DWORD PTR [esp+8]
  00006	8d 42 0c	 lea	 eax, DWORD PTR [edx+12]
  00009	8b 4a f8	 mov	 ecx, DWORD PTR [edx-8]
  0000c	33 c8		 xor	 ecx, eax
  0000e	e8 00 00 00 00	 call	 @__security_check_cookie@4
  00013	b8 00 00 00 00	 mov	 eax, OFFSET __ehfuncinfo$??1CIndiInfoData@@UAE@XZ
  00018	e9 00 00 00 00	 jmp	 ___CxxFrameHandler3
text$x	ENDS
??1CIndiInfoData@@UAE@XZ ENDP				; CIndiInfoData::~CIndiInfoData
; Function compile flags: /Ogtp
; File D:\git\src\IBK\IBK_DRFN\ProjSrc\SrcChartEx\ChartAddIn\ChartEnvSetupDlgAddIn\ChartEnvSetupDlgAddIn\OrgViewData.cpp
;	COMDAT ??0CIndiInfoData@@QAE@PAUIGraphInfo135914@@_N@Z
_TEXT	SEGMENT
_p_pIGraphInfo$ = 8					; size = 4
_bTheBeginning$ = 12					; size = 1
??0CIndiInfoData@@QAE@PAUIGraphInfo135914@@_N@Z PROC	; CIndiInfoData::CIndiInfoData, COMDAT
; _this$ = ecx

; 29   : {

  00000	55		 push	 ebp
  00001	8b ec		 mov	 ebp, esp

; 28   : 	m_bTheBeginning(bTheBeginning)

  00003	8a 45 0c	 mov	 al, BYTE PTR _bTheBeginning$[ebp]
  00006	56		 push	 esi
  00007	8b f1		 mov	 esi, ecx

; 30   : 	m_pIGraphInfo = p_pIGraphInfo->CreateCopyObject();

  00009	8b 4d 08	 mov	 ecx, DWORD PTR _p_pIGraphInfo$[ebp]
  0000c	c7 06 00 00 00
	00		 mov	 DWORD PTR [esi], OFFSET ??_7CIndiInfoData@@6B@
  00012	88 46 04	 mov	 BYTE PTR [esi+4], al
  00015	8b 01		 mov	 eax, DWORD PTR [ecx]
  00017	ff 90 bc 00 00
	00		 call	 DWORD PTR [eax+188]
  0001d	89 46 08	 mov	 DWORD PTR [esi+8], eax

; 31   : }

  00020	8b c6		 mov	 eax, esi
  00022	5e		 pop	 esi
  00023	5d		 pop	 ebp
  00024	c2 08 00	 ret	 8
??0CIndiInfoData@@QAE@PAUIGraphInfo135914@@_N@Z ENDP	; CIndiInfoData::CIndiInfoData
_TEXT	ENDS
; Function compile flags: /Ogtp
; File D:\git\src\IBK\IBK_DRFN\ProjSrc\SrcChartEx\ChartAddIn\ChartEnvSetupDlgAddIn\ChartEnvSetupDlgAddIn\OrgViewData.cpp
;	COMDAT ?Delete@CIndiInfoData@@SAXPAV1@@Z
_TEXT	SEGMENT
_pIndiInfoData$ = 8					; size = 4
?Delete@CIndiInfoData@@SAXPAV1@@Z PROC			; CIndiInfoData::Delete, COMDAT

; 22   : {

  00000	55		 push	 ebp
  00001	8b ec		 mov	 ebp, esp

; 23   : 	delete pIndiInfoData;

  00003	8b 4d 08	 mov	 ecx, DWORD PTR _pIndiInfoData$[ebp]
  00006	85 c9		 test	 ecx, ecx
  00008	74 06		 je	 SHORT $LN3@Delete
  0000a	8b 01		 mov	 eax, DWORD PTR [ecx]
  0000c	6a 01		 push	 1
  0000e	ff 10		 call	 DWORD PTR [eax]
$LN3@Delete:

; 24   : }

  00010	5d		 pop	 ebp
  00011	c3		 ret	 0
?Delete@CIndiInfoData@@SAXPAV1@@Z ENDP			; CIndiInfoData::Delete
_TEXT	ENDS
; Function compile flags: /Ogtp
; File D:\git\src\IBK\IBK_DRFN\ProjSrc\SrcChartEx\ChartAddIn\ChartEnvSetupDlgAddIn\ChartEnvSetupDlgAddIn\OrgViewData.cpp
;	COMDAT ?Make@CIndiInfoData@@SAPAV1@PAUIGraphInfo135914@@_N@Z
_TEXT	SEGMENT
$T2 = -16						; size = 4
__$EHRec$ = -12						; size = 12
_p_pIGraphInfo$ = 8					; size = 4
_bTheBeginning$ = 12					; size = 1
?Make@CIndiInfoData@@SAPAV1@PAUIGraphInfo135914@@_N@Z PROC ; CIndiInfoData::Make, COMDAT

; 17   : {

  00000	55		 push	 ebp
  00001	8b ec		 mov	 ebp, esp
  00003	6a ff		 push	 -1
  00005	68 00 00 00 00	 push	 __ehhandler$?Make@CIndiInfoData@@SAPAV1@PAUIGraphInfo135914@@_N@Z
  0000a	64 a1 00 00 00
	00		 mov	 eax, DWORD PTR fs:0
  00010	50		 push	 eax
  00011	51		 push	 ecx
  00012	56		 push	 esi
  00013	a1 00 00 00 00	 mov	 eax, DWORD PTR ___security_cookie
  00018	33 c5		 xor	 eax, ebp
  0001a	50		 push	 eax
  0001b	8d 45 f4	 lea	 eax, DWORD PTR __$EHRec$[ebp]
  0001e	64 a3 00 00 00
	00		 mov	 DWORD PTR fs:0, eax

; 18   : 	return new CIndiInfoData(p_pIGraphInfo, bTheBeginning);

  00024	6a 0c		 push	 12			; 0000000cH
  00026	e8 00 00 00 00	 call	 ??2@YAPAXI@Z		; operator new
  0002b	8b f0		 mov	 esi, eax
  0002d	83 c4 04	 add	 esp, 4
  00030	89 75 f0	 mov	 DWORD PTR $T2[ebp], esi
  00033	c7 45 fc 00 00
	00 00		 mov	 DWORD PTR __$EHRec$[ebp+8], 0
  0003a	85 f6		 test	 esi, esi
  0003c	74 2c		 je	 SHORT $LN3@Make

; 28   : 	m_bTheBeginning(bTheBeginning)

  0003e	8a 4d 0c	 mov	 cl, BYTE PTR _bTheBeginning$[ebp]
  00041	88 4e 04	 mov	 BYTE PTR [esi+4], cl

; 29   : {
; 30   : 	m_pIGraphInfo = p_pIGraphInfo->CreateCopyObject();

  00044	8b 4d 08	 mov	 ecx, DWORD PTR _p_pIGraphInfo$[ebp]
  00047	c7 06 00 00 00
	00		 mov	 DWORD PTR [esi], OFFSET ??_7CIndiInfoData@@6B@
  0004d	8b 11		 mov	 edx, DWORD PTR [ecx]
  0004f	ff 92 bc 00 00
	00		 call	 DWORD PTR [edx+188]
  00055	89 46 08	 mov	 DWORD PTR [esi+8], eax

; 18   : 	return new CIndiInfoData(p_pIGraphInfo, bTheBeginning);

  00058	8b c6		 mov	 eax, esi

; 19   : }

  0005a	8b 4d f4	 mov	 ecx, DWORD PTR __$EHRec$[ebp]
  0005d	64 89 0d 00 00
	00 00		 mov	 DWORD PTR fs:0, ecx
  00064	59		 pop	 ecx
  00065	5e		 pop	 esi
  00066	8b e5		 mov	 esp, ebp
  00068	5d		 pop	 ebp
  00069	c3		 ret	 0
$LN3@Make:

; 18   : 	return new CIndiInfoData(p_pIGraphInfo, bTheBeginning);

  0006a	33 c0		 xor	 eax, eax

; 19   : }

  0006c	8b 4d f4	 mov	 ecx, DWORD PTR __$EHRec$[ebp]
  0006f	64 89 0d 00 00
	00 00		 mov	 DWORD PTR fs:0, ecx
  00076	59		 pop	 ecx
  00077	5e		 pop	 esi
  00078	8b e5		 mov	 esp, ebp
  0007a	5d		 pop	 ebp
  0007b	c3		 ret	 0
_TEXT	ENDS
;	COMDAT text$x
text$x	SEGMENT
__unwindfunclet$?Make@CIndiInfoData@@SAPAV1@PAUIGraphInfo135914@@_N@Z$0:
  00000	6a 0c		 push	 12			; 0000000cH
  00002	8b 45 f0	 mov	 eax, DWORD PTR $T2[ebp]
  00005	50		 push	 eax
  00006	e8 00 00 00 00	 call	 ??3@YAXPAXI@Z		; operator delete
  0000b	83 c4 08	 add	 esp, 8
  0000e	c3		 ret	 0
  0000f	cc		 int	 3
  00010	cc		 int	 3
  00011	cc		 int	 3
  00012	cc		 int	 3
  00013	cc		 int	 3
__ehhandler$?Make@CIndiInfoData@@SAPAV1@PAUIGraphInfo135914@@_N@Z:
  00014	90		 npad	 1
  00015	90		 npad	 1
  00016	8b 54 24 08	 mov	 edx, DWORD PTR [esp+8]
  0001a	8d 42 0c	 lea	 eax, DWORD PTR [edx+12]
  0001d	8b 4a f4	 mov	 ecx, DWORD PTR [edx-12]
  00020	33 c8		 xor	 ecx, eax
  00022	e8 00 00 00 00	 call	 @__security_check_cookie@4
  00027	b8 00 00 00 00	 mov	 eax, OFFSET __ehfuncinfo$?Make@CIndiInfoData@@SAPAV1@PAUIGraphInfo135914@@_N@Z
  0002c	e9 00 00 00 00	 jmp	 ___CxxFrameHandler3
text$x	ENDS
?Make@CIndiInfoData@@SAPAV1@PAUIGraphInfo135914@@_N@Z ENDP ; CIndiInfoData::Make
; Function compile flags: /Ogtp
; File D:\git\src\IBK\IBK_DRFN\ProjSrc\SrcChartEx\ChartAddIn\ChartEnvSetupDlgAddIn\Include_AddIn_135914\I135914\_IString.h
;	COMDAT ??1ILPCSTR135914@@QAE@XZ
_TEXT	SEGMENT
__$EHRec$ = -12						; size = 12
??1ILPCSTR135914@@QAE@XZ PROC				; ILPCSTR135914::~ILPCSTR135914, COMDAT
; _this$ = ecx

; 44   : 	{

  00000	55		 push	 ebp
  00001	8b ec		 mov	 ebp, esp
  00003	6a ff		 push	 -1
  00005	68 00 00 00 00	 push	 __ehhandler$??1ILPCSTR135914@@QAE@XZ
  0000a	64 a1 00 00 00
	00		 mov	 eax, DWORD PTR fs:0
  00010	50		 push	 eax
  00011	56		 push	 esi
  00012	a1 00 00 00 00	 mov	 eax, DWORD PTR ___security_cookie
  00017	33 c5		 xor	 eax, ebp
  00019	50		 push	 eax
  0001a	8d 45 f4	 lea	 eax, DWORD PTR __$EHRec$[ebp]
  0001d	64 a3 00 00 00
	00		 mov	 DWORD PTR fs:0, eax
  00023	8b f1		 mov	 esi, ecx

; 45   : 		if( m_pIStrData)

  00025	8b 4e 04	 mov	 ecx, DWORD PTR [esi+4]
  00028	85 c9		 test	 ecx, ecx
  0002a	74 13		 je	 SHORT $LN2@ILPCSTR135

; 46   : 		{
; 47   : 			m_pIStrData->Release();

  0002c	8b 01		 mov	 eax, DWORD PTR [ecx]
  0002e	51		 push	 ecx
  0002f	ff 50 08	 call	 DWORD PTR [eax+8]

; 48   : 			m_pIStrData = NULL;

  00032	c7 46 04 00 00
	00 00		 mov	 DWORD PTR [esi+4], 0

; 49   : 			m_szData = NULL;

  00039	c7 06 00 00 00
	00		 mov	 DWORD PTR [esi], 0
$LN2@ILPCSTR135:

; 50   : 		}
; 51   : 	}

  0003f	8b 4d f4	 mov	 ecx, DWORD PTR __$EHRec$[ebp]
  00042	64 89 0d 00 00
	00 00		 mov	 DWORD PTR fs:0, ecx
  00049	59		 pop	 ecx
  0004a	5e		 pop	 esi
  0004b	8b e5		 mov	 esp, ebp
  0004d	5d		 pop	 ebp
  0004e	c3		 ret	 0
  0004f	cc		 int	 3
  00050	cc		 int	 3
  00051	cc		 int	 3
  00052	cc		 int	 3
  00053	cc		 int	 3
_TEXT	ENDS
;	COMDAT text$x
text$x	SEGMENT
__ehhandler$??1ILPCSTR135914@@QAE@XZ:
  00000	90		 npad	 1
  00001	90		 npad	 1
  00002	8b 54 24 08	 mov	 edx, DWORD PTR [esp+8]
  00006	8d 42 0c	 lea	 eax, DWORD PTR [edx+12]
  00009	8b 4a f8	 mov	 ecx, DWORD PTR [edx-8]
  0000c	33 c8		 xor	 ecx, eax
  0000e	e8 00 00 00 00	 call	 @__security_check_cookie@4
  00013	b8 00 00 00 00	 mov	 eax, OFFSET __ehfuncinfo$??1ILPCSTR135914@@QAE@XZ
  00018	e9 00 00 00 00	 jmp	 ___CxxFrameHandler3
text$x	ENDS
??1ILPCSTR135914@@QAE@XZ ENDP				; ILPCSTR135914::~ILPCSTR135914
; Function compile flags: /Ogtp
; File C:\Program Files (x86)\Microsoft Visual Studio\2019\Community\VC\Tools\MSVC\14.29.30133\atlmfc\include\afx.inl
;	COMDAT ?Dump@CObject@@UBEXAAVCDumpContext@@@Z
_TEXT	SEGMENT
___formal$ = 8						; size = 4
?Dump@CObject@@UBEXAAVCDumpContext@@@Z PROC		; CObject::Dump, COMDAT
; _this$ = ecx

; 122  : 	{ /* no dumping in release builds */ }

  00000	c2 04 00	 ret	 4
?Dump@CObject@@UBEXAAVCDumpContext@@@Z ENDP		; CObject::Dump
_TEXT	ENDS
; Function compile flags: /Ogtp
; File C:\Program Files (x86)\Microsoft Visual Studio\2019\Community\VC\Tools\MSVC\14.29.30133\atlmfc\include\afx.inl
;	COMDAT ?AssertValid@CObject@@UBEXXZ
_TEXT	SEGMENT
?AssertValid@CObject@@UBEXXZ PROC			; CObject::AssertValid, COMDAT
; _this$ = ecx

; 120  : 	{ /* no asserts in release builds */ }

  00000	c2 00 00	 ret	 0
?AssertValid@CObject@@UBEXXZ ENDP			; CObject::AssertValid
_TEXT	ENDS
; Function compile flags: /Ogtp
; File C:\Program Files (x86)\Microsoft Visual Studio\2019\Community\VC\Tools\MSVC\14.29.30133\atlmfc\include\afx.inl
;	COMDAT ?Serialize@CObject@@UAEXAAVCArchive@@@Z
_TEXT	SEGMENT
___formal$ = 8						; size = 4
?Serialize@CObject@@UAEXAAVCArchive@@@Z PROC		; CObject::Serialize, COMDAT
; _this$ = ecx

; 106  : 	{ /* CObject does not serialize anything by default */ }

  00000	c2 04 00	 ret	 4
?Serialize@CObject@@UAEXAAVCArchive@@@Z ENDP		; CObject::Serialize
_TEXT	ENDS
; Function compile flags: /Ogtp
; File C:\Program Files (x86)\Microsoft Visual Studio\2019\Community\VC\Tools\MSVC\14.29.30133\atlmfc\include\afx.inl
;	COMDAT ??1CObject@@UAE@XZ
_TEXT	SEGMENT
??1CObject@@UAE@XZ PROC					; CObject::~CObject, COMDAT
; _this$ = ecx

; 104  : 	{ }

  00000	c2 00 00	 ret	 0
??1CObject@@UAE@XZ ENDP					; CObject::~CObject
_TEXT	ENDS
; Function compile flags: /Ogtp
; File D:\git\src\IBK\IBK_DRFN\ProjSrc\SrcChartEx\ChartAddIn\ChartEnvSetupDlgAddIn\ChartEnvSetupDlgAddIn\OrgViewData.cpp
;	COMDAT ?__empty_global_delete@@YAXPAXI@Z
_TEXT	SEGMENT
___formal$ = 8						; size = 4
___formal$ = 12						; size = 4
?__empty_global_delete@@YAXPAXI@Z PROC			; __empty_global_delete, COMDAT

  00000	c2 00 00	 ret	 0
?__empty_global_delete@@YAXPAXI@Z ENDP			; __empty_global_delete
_TEXT	ENDS
; Function compile flags: /Ogtp
; File D:\git\src\IBK\IBK_DRFN\ProjSrc\SrcChartEx\ChartAddIn\ChartEnvSetupDlgAddIn\ChartEnvSetupDlgAddIn\OrgViewData.cpp
;	COMDAT ?__empty_global_delete@@YAXPAX@Z
_TEXT	SEGMENT
___formal$ = 8						; size = 4
?__empty_global_delete@@YAXPAX@Z PROC			; __empty_global_delete, COMDAT

  00000	c2 00 00	 ret	 0
?__empty_global_delete@@YAXPAX@Z ENDP			; __empty_global_delete
_TEXT	ENDS
END
