; Listing generated by Microsoft (R) Optimizing Compiler Version 19.29.30145.0 

	TITLE	D:\git\src\IBK\IBK_DRFN\#DRfn-CS\_Obj\ChartEnvSetupDlgAddIn\SetItemOfColorListBox.obj
	.686P
	.XMM
	include listing.inc
	.model	flat

INCLUDELIB MSVCRT
INCLUDELIB OLDNAMES

PUBLIC	?__empty_global_delete@@YAXPAX@Z		; __empty_global_delete
PUBLIC	?__empty_global_delete@@YAXPAXI@Z		; __empty_global_delete
PUBLIC	??1ILPCSTR135914@@QAE@XZ			; ILPCSTR135914::~ILPCSTR135914
PUBLIC	?SetItem@CSetItemOfColorListBox@@QAEXPAUIGraphInfo135914@@HPAVCListBoxColorPickerST@@@Z ; CSetItemOfColorListBox::SetItem
PUBLIC	?OnApply@CSetItemOfColorListBox@@QAEXPAVCListBoxColorPickerST@@PAUIGraphInfo135914@@H@Z ; CSetItemOfColorListBox::OnApply
PUBLIC	?SetItemInCaseOfStylsIsLine@CSetItemOfColorListBox@@AAEXHPAVCListBoxColorPickerST@@PAUIGraphInfo135914@@@Z ; CSetItemOfColorListBox::SetItemInCaseOfStylsIsLine
PUBLIC	?SetItemInCaseOfStylsIsBar@CSetItemOfColorListBox@@AAEXPAUIGraphInfo135914@@HPAVCListBoxColorPickerST@@@Z ; CSetItemOfColorListBox::SetItemInCaseOfStylsIsBar
PUBLIC	?OnApplyInCaseOfStylsIsBar@CSetItemOfColorListBox@@AAEXPAUIGraphInfo135914@@HPAVCListBoxColorPickerST@@@Z ; CSetItemOfColorListBox::OnApplyInCaseOfStylsIsBar
PUBLIC	?OnApplyInCaseOfStylsIsLine@CSetItemOfColorListBox@@AAEXHPAVCListBoxColorPickerST@@PAUIGraphInfo135914@@@Z ; CSetItemOfColorListBox::OnApplyInCaseOfStylsIsLine
PUBLIC	?InCaseOfTypeIsCandlestickandHighLowCloseBong@CSetItemOfColorListBox@@AAEXPAUIGraphInfo135914@@_NHPAVCListBoxColorPickerST@@@Z ; CSetItemOfColorListBox::InCaseOfTypeIsCandlestickandHighLowCloseBong
PUBLIC	?InCaseOfTypeIsLineBong@CSetItemOfColorListBox@@AAEXPAUIGraphInfo135914@@_NHPAVCListBoxColorPickerST@@@Z ; CSetItemOfColorListBox::InCaseOfTypeIsLineBong
PUBLIC	?InCaseOfStylsIsBong@CSetItemOfColorListBox@@AAEXPAUIGraphInfo135914@@_NHPAVCListBoxColorPickerST@@@Z ; CSetItemOfColorListBox::InCaseOfStylsIsBong
PUBLIC	?InCaseOfStylsIsLine@CSetItemOfColorListBox@@AAEX_NHPAVCListBoxColorPickerST@@PAUIGraphInfo135914@@@Z ; CSetItemOfColorListBox::InCaseOfStylsIsLine
PUBLIC	?InCaseOfStylsIsBar@CSetItemOfColorListBox@@AAEX_NPAUIGraphInfo135914@@HPAVCListBoxColorPickerST@@@Z ; CSetItemOfColorListBox::InCaseOfStylsIsBar
PUBLIC	?SetItembyStyleandType@CSetItemOfColorListBox@@AAEX_NPAUIGraphInfo135914@@HPAVCListBoxColorPickerST@@@Z ; CSetItemOfColorListBox::SetItembyStyleandType
PUBLIC	?SetItem_INVERSELINE@CSetItemOfColorListBox@@AAEXPAUIGraphInfo135914@@HPAVCListBoxColorPickerST@@@Z ; CSetItemOfColorListBox::SetItem_INVERSELINE
PUBLIC	?SetItem_MACD@CSetItemOfColorListBox@@AAEXPAUIGraphInfo135914@@HPAVCListBoxColorPickerST@@@Z ; CSetItemOfColorListBox::SetItem_MACD
PUBLIC	?SetItem_PIVOT@CSetItemOfColorListBox@@AAEXPAUIGraphInfo135914@@HPAVCListBoxColorPickerST@@@Z ; CSetItemOfColorListBox::SetItem_PIVOT
PUBLIC	?SetItem_GLANCEBLANCE@CSetItemOfColorListBox@@AAEXPAUIGraphInfo135914@@HPAVCListBoxColorPickerST@@@Z ; CSetItemOfColorListBox::SetItem_GLANCEBLANCE
PUBLIC	?SetItem_SUB_UPFILL_DOWNFILL@CSetItemOfColorListBox@@AAEXPAUIGraphInfo135914@@HPAVCListBoxColorPickerST@@@Z ; CSetItemOfColorListBox::SetItem_SUB_UPFILL_DOWNFILL
PUBLIC	?SetItem_RAINBOW@CSetItemOfColorListBox@@AAEXPAUIGraphInfo135914@@HPAVCListBoxColorPickerST@@@Z ; CSetItemOfColorListBox::SetItem_RAINBOW
PUBLIC	?SetItem_SUBGRAPHNAME@CSetItemOfColorListBox@@AAEXPAUIGraphInfo135914@@HPAVCListBoxColorPickerST@@@Z ; CSetItemOfColorListBox::SetItem_SUBGRAPHNAME
PUBLIC	?SetItem_DAEGIMEMUL@CSetItemOfColorListBox@@AAEXPAUIGraphInfo135914@@HPAVCListBoxColorPickerST@@@Z ; CSetItemOfColorListBox::SetItem_DAEGIMEMUL
PUBLIC	?SetItem_VOLUME@CSetItemOfColorListBox@@AAEXPAUIGraphInfo135914@@HPAVCListBoxColorPickerST@@@Z ; CSetItemOfColorListBox::SetItem_VOLUME
PUBLIC	?SetItem_PRICE@CSetItemOfColorListBox@@AAEXPAUIGraphInfo135914@@HPAVCListBoxColorPickerST@@@Z ; CSetItemOfColorListBox::SetItem_PRICE
PUBLIC	?SetItem_SUB_UPFILL_DOWNFILL2@CSetItemOfColorListBox@@AAEXPAUIGraphInfo135914@@HPAVCListBoxColorPickerST@@@Z ; CSetItemOfColorListBox::SetItem_SUB_UPFILL_DOWNFILL2
PUBLIC	?SetItem_COLOR@CSetItemOfColorListBox@@AAEXPAUIGraphInfo135914@@HPAVCListBoxColorPickerST@@@Z ; CSetItemOfColorListBox::SetItem_COLOR
PUBLIC	?SetItem_UPDOWN@CSetItemOfColorListBox@@AAEXPAUIGraphInfo135914@@HPAVCListBoxColorPickerST@@@Z ; CSetItemOfColorListBox::SetItem_UPDOWN
PUBLIC	?SetItem_EQUAL@CSetItemOfColorListBox@@AAEXPAUIGraphInfo135914@@HPAVCListBoxColorPickerST@@@Z ; CSetItemOfColorListBox::SetItem_EQUAL
PUBLIC	?OnApply_INVERSELINE@CSetItemOfColorListBox@@AAEXPAVCListBoxColorPickerST@@PAUIGraphInfo135914@@H@Z ; CSetItemOfColorListBox::OnApply_INVERSELINE
PUBLIC	?OnApply_MACD@CSetItemOfColorListBox@@AAEXPAVCListBoxColorPickerST@@PAUIGraphInfo135914@@H@Z ; CSetItemOfColorListBox::OnApply_MACD
PUBLIC	?OnApply_DAEGIMEMUL@CSetItemOfColorListBox@@AAEXPAVCListBoxColorPickerST@@PAUIGraphInfo135914@@H@Z ; CSetItemOfColorListBox::OnApply_DAEGIMEMUL
PUBLIC	?OnApply_GLANCEBLANCE@CSetItemOfColorListBox@@AAEXPAVCListBoxColorPickerST@@PAUIGraphInfo135914@@H@Z ; CSetItemOfColorListBox::OnApply_GLANCEBLANCE
PUBLIC	?OnApply_SUB_UPFILL_DOWNFILL@CSetItemOfColorListBox@@AAEXPAUIGraphInfo135914@@PAVCListBoxColorPickerST@@H@Z ; CSetItemOfColorListBox::OnApply_SUB_UPFILL_DOWNFILL
PUBLIC	?OnApply_RAINBOW@CSetItemOfColorListBox@@AAEXPAVCListBoxColorPickerST@@PAUIGraphInfo135914@@H@Z ; CSetItemOfColorListBox::OnApply_RAINBOW
PUBLIC	?OnApply_COLOR@CSetItemOfColorListBox@@AAEXPAUIGraphInfo135914@@PAVCListBoxColorPickerST@@H@Z ; CSetItemOfColorListBox::OnApply_COLOR
PUBLIC	?OnApply_SUBGRAPHNAME@CSetItemOfColorListBox@@AAEXPAVCListBoxColorPickerST@@PAUIGraphInfo135914@@H@Z ; CSetItemOfColorListBox::OnApply_SUBGRAPHNAME
PUBLIC	?OnApply_UPDOWN@CSetItemOfColorListBox@@AAEXPAUIGraphInfo135914@@PAVCListBoxColorPickerST@@H@Z ; CSetItemOfColorListBox::OnApply_UPDOWN
PUBLIC	?OnApply_VOLUME@CSetItemOfColorListBox@@AAEXPAVCListBoxColorPickerST@@PAUIGraphInfo135914@@H@Z ; CSetItemOfColorListBox::OnApply_VOLUME
PUBLIC	?OnApply_PRICE@CSetItemOfColorListBox@@AAEXPAVCListBoxColorPickerST@@PAUIGraphInfo135914@@H@Z ; CSetItemOfColorListBox::OnApply_PRICE
PUBLIC	?OnApply_SUB_UPFILL_DOWNFILL2@CSetItemOfColorListBox@@AAEXPAUIGraphInfo135914@@PAVCListBoxColorPickerST@@H@Z ; CSetItemOfColorListBox::OnApply_SUB_UPFILL_DOWNFILL2
PUBLIC	?OnApply_downcolor@CSetItemOfColorListBox@@AAEXPAUIGraphInfo135914@@HABK@Z ; CSetItemOfColorListBox::OnApply_downcolor
PUBLIC	?OnApply_upcolor@CSetItemOfColorListBox@@AAEXPAUIGraphInfo135914@@HABK@Z ; CSetItemOfColorListBox::OnApply_upcolor
PUBLIC	?OnApply_equalcolor@CSetItemOfColorListBox@@AAEXPAUIGraphInfo135914@@HABK@Z ; CSetItemOfColorListBox::OnApply_equalcolor
PUBLIC	?IsLineChart@CSetItemOfColorListBox@@AAE_NPAUIGraphInfo135914@@H@Z ; CSetItemOfColorListBox::IsLineChart
PUBLIC	?GetVolumeType@CSetItemOfColorListBox@@AAEHPAUIGraphInfo135914@@@Z ; CSetItemOfColorListBox::GetVolumeType
PUBLIC	??_C@_08DMHKNIAN@?$LB?b?$LK?$LL?$LI?E?$LJ?$LA@	; `string'
PUBLIC	??_C@_0N@FLJFLKIO@?$LB?b?$LK?$LL?$LI?E?$LJ?$LAText@ ; `string'
PUBLIC	??_C@_08HEGGBKGK@?G?v?$MA?g?$LI?E?$LJ?$LA@	; `string'
PUBLIC	??_C@_0N@PBDPKDOF@?G?v?$MA?g?$LI?E?$LJ?$LAText@	; `string'
PUBLIC	??_C@_08LPBJBNHD@?C?V?$LE?k?$LI?E?$LJ?$LA@	; `string'
PUBLIC	??_C@_0N@HNHANDHE@?C?V?$LE?k?$LI?E?$LJ?$LAText@	; `string'
PUBLIC	??_C@_08NCJACMNJ@?$LN?C?$MA?$NL?$LL?v?$LL?s@	; `string'
PUBLIC	??_C@_08HPHMFCDH@?A?$LO?$LH?a?$LL?v?$LL?s@	; `string'
PUBLIC	??_C@_08DLJFBBCM@?$LL?s?$LN?B?C?$KE?$LP?r@	; `string'
PUBLIC	??_C@_08CPEENHJF@?G?O?$LG?t?C?$KE?$LP?r@	; `string'
PUBLIC	??_C@_08OLAJLFC@?$LM?$LB?G?$OA?$LN?$LK?F?R@	; `string'
PUBLIC	??_C@_0L@CBIJGOOJ@?$LL?s?$LN?B?$LB?$LI?$LI?$KH?$LG?l@ ; `string'
PUBLIC	??_C@_0L@GGIJAIEM@?G?O?$LG?t?$LB?$LI?$LI?$KH?$LG?l@ ; `string'
PUBLIC	??_C@_07COPDCCN@?$LP?$KK?$LN?C?$LA?h1@		; `string'
PUBLIC	??_C@_07CJMCGBOO@?$LP?$KK?$LN?C?$LA?h2@		; `string'
PUBLIC	??_C@_07DANJFAKP@?$LP?$KK?$LN?C?$LA?h3@		; `string'
PUBLIC	??_C@_07HPJIMGGI@?$LP?$KK?$LN?C?$LA?h4@		; `string'
PUBLIC	??_C@_07GGIDPHCJ@?$LP?$KK?$LN?C?$LA?h5@		; `string'
PUBLIC	??_C@_07ENKOKEOK@?$LP?$KK?$LN?C?$LA?h6@		; `string'
PUBLIC	??_C@_0L@ELFBIMLP@Oscillator@			; `string'
PUBLIC	??_C@_02KJNLNLIB@R1@				; `string'
PUBLIC	??_C@_0L@OFHELGPA@1?B?w?5?A?v?A?v?$LM?$LB@	; `string'
PUBLIC	??_C@_02ICPGIIEC@R2@				; `string'
PUBLIC	??_C@_0L@HMJGNAPB@2?B?w?5?A?v?A?v?$LM?$LB@	; `string'
PUBLIC	??_C@_02KIBJLBLG@S1@				; `string'
PUBLIC	??_C@_0L@KDAPEAME@1?B?w?5?$MA?z?G?W?$LM?$LB@	; `string'
PUBLIC	??_C@_02IDDEOCHF@S2@				; `string'
PUBLIC	??_C@_0L@DKONCGMF@2?B?w?5?$MA?z?G?W?$LM?$LB@	; `string'
PUBLIC	??_C@_05FMCHGOEA@PIVOT@				; `string'
PUBLIC	??_C@_04CCOGCDCH@?G?G?$LK?$LP@			; `string'
PUBLIC	__real@bff0000000000000
EXTRN	___std_terminate:PROC
EXTRN	__imp_??0?$CStringT@DV?$StrTraitMFC_DLL@DV?$ChTraitsCRT@D@ATL@@@@@ATL@@QAE@XZ:PROC
EXTRN	__imp_??1?$CStringT@DV?$StrTraitMFC_DLL@DV?$ChTraitsCRT@D@ATL@@@@@ATL@@QAE@XZ:PROC
EXTRN	__imp_?LoadStringA@?$CStringT@DV?$StrTraitMFC_DLL@DV?$ChTraitsCRT@D@ATL@@@@@ATL@@QAEHI@Z:PROC
EXTRN	?FindColorItemText@CFindType@@SA?AW4COLORLISTITEMTYPE@CBaseData@@PBD@Z:PROC ; CFindType::FindColorItemText
EXTRN	?AddString@CListBoxColorPickerST@@QAEHPBDK@Z:PROC ; CListBoxColorPickerST::AddString
EXTRN	?GetColor@CListBoxColorPickerST@@QAEKH@Z:PROC	; CListBoxColorPickerST::GetColor
EXTRN	@__security_check_cookie@4:PROC
EXTRN	___CxxFrameHandler3:PROC
EXTRN	?g_iMetaTable@@3VIMetaTable@@A:BYTE		; g_iMetaTable
EXTRN	___security_cookie:DWORD
EXTRN	__fltused:DWORD
;	COMDAT __real@bff0000000000000
CONST	SEGMENT
__real@bff0000000000000 DQ 0bff0000000000000r	; -1
CONST	ENDS
;	COMDAT ??_C@_04CCOGCDCH@?G?G?$LK?$LP@
CONST	SEGMENT
??_C@_04CCOGCDCH@?G?G?$LK?$LP@ DB 0c7H, 0c7H, 0baH, 0bfH, 00H ; `string'
CONST	ENDS
;	COMDAT ??_C@_05FMCHGOEA@PIVOT@
CONST	SEGMENT
??_C@_05FMCHGOEA@PIVOT@ DB 'PIVOT', 00H			; `string'
CONST	ENDS
;	COMDAT ??_C@_0L@DKONCGMF@2?B?w?5?$MA?z?G?W?$LM?$LB@
CONST	SEGMENT
??_C@_0L@DKONCGMF@2?B?w?5?$MA?z?G?W?$LM?$LB@ DB '2', 0c2H, 0f7H, ' ', 0c0H
	DB	0faH, 0c7H, 0d7H, 0bcH, 0b1H, 00H		; `string'
CONST	ENDS
;	COMDAT ??_C@_02IDDEOCHF@S2@
CONST	SEGMENT
??_C@_02IDDEOCHF@S2@ DB 'S2', 00H			; `string'
CONST	ENDS
;	COMDAT ??_C@_0L@KDAPEAME@1?B?w?5?$MA?z?G?W?$LM?$LB@
CONST	SEGMENT
??_C@_0L@KDAPEAME@1?B?w?5?$MA?z?G?W?$LM?$LB@ DB '1', 0c2H, 0f7H, ' ', 0c0H
	DB	0faH, 0c7H, 0d7H, 0bcH, 0b1H, 00H		; `string'
CONST	ENDS
;	COMDAT ??_C@_02KIBJLBLG@S1@
CONST	SEGMENT
??_C@_02KIBJLBLG@S1@ DB 'S1', 00H			; `string'
CONST	ENDS
;	COMDAT ??_C@_0L@HMJGNAPB@2?B?w?5?A?v?A?v?$LM?$LB@
CONST	SEGMENT
??_C@_0L@HMJGNAPB@2?B?w?5?A?v?A?v?$LM?$LB@ DB '2', 0c2H, 0f7H, ' ', 0c1H, 0f6H
	DB	0c1H, 0f6H, 0bcH, 0b1H, 00H			; `string'
CONST	ENDS
;	COMDAT ??_C@_02ICPGIIEC@R2@
CONST	SEGMENT
??_C@_02ICPGIIEC@R2@ DB 'R2', 00H			; `string'
CONST	ENDS
;	COMDAT ??_C@_0L@OFHELGPA@1?B?w?5?A?v?A?v?$LM?$LB@
CONST	SEGMENT
??_C@_0L@OFHELGPA@1?B?w?5?A?v?A?v?$LM?$LB@ DB '1', 0c2H, 0f7H, ' ', 0c1H, 0f6H
	DB	0c1H, 0f6H, 0bcH, 0b1H, 00H			; `string'
CONST	ENDS
;	COMDAT ??_C@_02KJNLNLIB@R1@
CONST	SEGMENT
??_C@_02KJNLNLIB@R1@ DB 'R1', 00H			; `string'
CONST	ENDS
;	COMDAT ??_C@_0L@ELFBIMLP@Oscillator@
CONST	SEGMENT
??_C@_0L@ELFBIMLP@Oscillator@ DB 'Oscillator', 00H	; `string'
CONST	ENDS
;	COMDAT ??_C@_07ENKOKEOK@?$LP?$KK?$LN?C?$LA?h6@
CONST	SEGMENT
??_C@_07ENKOKEOK@?$LP?$KK?$LN?C?$LA?h6@ DB 0bfH, 0aaH, 0bdH, 0c3H, 0b0H, 0e8H
	DB	'6', 00H					; `string'
CONST	ENDS
;	COMDAT ??_C@_07GGIDPHCJ@?$LP?$KK?$LN?C?$LA?h5@
CONST	SEGMENT
??_C@_07GGIDPHCJ@?$LP?$KK?$LN?C?$LA?h5@ DB 0bfH, 0aaH, 0bdH, 0c3H, 0b0H, 0e8H
	DB	'5', 00H					; `string'
CONST	ENDS
;	COMDAT ??_C@_07HPJIMGGI@?$LP?$KK?$LN?C?$LA?h4@
CONST	SEGMENT
??_C@_07HPJIMGGI@?$LP?$KK?$LN?C?$LA?h4@ DB 0bfH, 0aaH, 0bdH, 0c3H, 0b0H, 0e8H
	DB	'4', 00H					; `string'
CONST	ENDS
;	COMDAT ??_C@_07DANJFAKP@?$LP?$KK?$LN?C?$LA?h3@
CONST	SEGMENT
??_C@_07DANJFAKP@?$LP?$KK?$LN?C?$LA?h3@ DB 0bfH, 0aaH, 0bdH, 0c3H, 0b0H, 0e8H
	DB	'3', 00H					; `string'
CONST	ENDS
;	COMDAT ??_C@_07CJMCGBOO@?$LP?$KK?$LN?C?$LA?h2@
CONST	SEGMENT
??_C@_07CJMCGBOO@?$LP?$KK?$LN?C?$LA?h2@ DB 0bfH, 0aaH, 0bdH, 0c3H, 0b0H, 0e8H
	DB	'2', 00H					; `string'
CONST	ENDS
;	COMDAT ??_C@_07COPDCCN@?$LP?$KK?$LN?C?$LA?h1@
CONST	SEGMENT
??_C@_07COPDCCN@?$LP?$KK?$LN?C?$LA?h1@ DB 0bfH, 0aaH, 0bdH, 0c3H, 0b0H, 0e8H
	DB	'1', 00H					; `string'
CONST	ENDS
;	COMDAT ??_C@_0L@GGIJAIEM@?G?O?$LG?t?$LB?$LI?$LI?$KH?$LG?l@
CONST	SEGMENT
??_C@_0L@GGIJAIEM@?G?O?$LG?t?$LB?$LI?$LI?$KH?$LG?l@ DB 0c7H, 0cfH, 0b6H, 0f4H
	DB	0b1H, 0b8H, 0b8H, 0a7H, 0b6H, 0ecH, 00H	; `string'
CONST	ENDS
;	COMDAT ??_C@_0L@CBIJGOOJ@?$LL?s?$LN?B?$LB?$LI?$LI?$KH?$LG?l@
CONST	SEGMENT
??_C@_0L@CBIJGOOJ@?$LL?s?$LN?B?$LB?$LI?$LI?$KH?$LG?l@ DB 0bbH, 0f3H, 0bdH
	DB	0c2H, 0b1H, 0b8H, 0b8H, 0a7H, 0b6H, 0ecH, 00H ; `string'
CONST	ENDS
;	COMDAT ??_C@_08OLAJLFC@?$LM?$LB?G?$OA?$LN?$LK?F?R@
CONST	SEGMENT
??_C@_08OLAJLFC@?$LM?$LB?G?$OA?$LN?$LK?F?R@ DB 0bcH, 0b1H, 0c7H, 0e0H, 0bdH
	DB	0baH, 0c6H, 0d2H, 00H			; `string'
CONST	ENDS
;	COMDAT ??_C@_08CPEENHJF@?G?O?$LG?t?C?$KE?$LP?r@
CONST	SEGMENT
??_C@_08CPEENHJF@?G?O?$LG?t?C?$KE?$LP?r@ DB 0c7H, 0cfH, 0b6H, 0f4H, 0c3H, 0a4H
	DB	0bfH, 0f2H, 00H				; `string'
CONST	ENDS
;	COMDAT ??_C@_08DLJFBBCM@?$LL?s?$LN?B?C?$KE?$LP?r@
CONST	SEGMENT
??_C@_08DLJFBBCM@?$LL?s?$LN?B?C?$KE?$LP?r@ DB 0bbH, 0f3H, 0bdH, 0c2H, 0c3H
	DB	0a4H, 0bfH, 0f2H, 00H			; `string'
CONST	ENDS
;	COMDAT ??_C@_08HPHMFCDH@?A?$LO?$LH?a?$LL?v?$LL?s@
CONST	SEGMENT
??_C@_08HPHMFCDH@?A?$LO?$LH?a?$LL?v?$LL?s@ DB 0c1H, 0beH, 0b7H, 0e1H, 0bbH
	DB	0f6H, 0bbH, 0f3H, 00H			; `string'
CONST	ENDS
;	COMDAT ??_C@_08NCJACMNJ@?$LN?C?$MA?$NL?$LL?v?$LL?s@
CONST	SEGMENT
??_C@_08NCJACMNJ@?$LN?C?$MA?$NL?$LL?v?$LL?s@ DB 0bdH, 0c3H, 0c0H, 0dbH, 0bbH
	DB	0f6H, 0bbH, 0f3H, 00H			; `string'
CONST	ENDS
;	COMDAT ??_C@_0N@HNHANDHE@?C?V?$LE?k?$LI?E?$LJ?$LAText@
CONST	SEGMENT
??_C@_0N@HNHANDHE@?C?V?$LE?k?$LI?E?$LJ?$LAText@ DB 0c3H, 0d6H, 0b4H, 0ebH
	DB	0b8H, 0c5H, 0b9H, 0b0H, 'Text', 00H		; `string'
CONST	ENDS
;	COMDAT ??_C@_08LPBJBNHD@?C?V?$LE?k?$LI?E?$LJ?$LA@
CONST	SEGMENT
??_C@_08LPBJBNHD@?C?V?$LE?k?$LI?E?$LJ?$LA@ DB 0c3H, 0d6H, 0b4H, 0ebH, 0b8H
	DB	0c5H, 0b9H, 0b0H, 00H			; `string'
CONST	ENDS
;	COMDAT ??_C@_0N@PBDPKDOF@?G?v?$MA?g?$LI?E?$LJ?$LAText@
CONST	SEGMENT
??_C@_0N@PBDPKDOF@?G?v?$MA?g?$LI?E?$LJ?$LAText@ DB 0c7H, 0f6H, 0c0H, 0e7H
	DB	0b8H, 0c5H, 0b9H, 0b0H, 'Text', 00H		; `string'
CONST	ENDS
;	COMDAT ??_C@_08HEGGBKGK@?G?v?$MA?g?$LI?E?$LJ?$LA@
CONST	SEGMENT
??_C@_08HEGGBKGK@?G?v?$MA?g?$LI?E?$LJ?$LA@ DB 0c7H, 0f6H, 0c0H, 0e7H, 0b8H
	DB	0c5H, 0b9H, 0b0H, 00H			; `string'
CONST	ENDS
;	COMDAT ??_C@_0N@FLJFLKIO@?$LB?b?$LK?$LL?$LI?E?$LJ?$LAText@
CONST	SEGMENT
??_C@_0N@FLJFLKIO@?$LB?b?$LK?$LL?$LI?E?$LJ?$LAText@ DB 0b1H, 0e2H, 0baH, 0bbH
	DB	0b8H, 0c5H, 0b9H, 0b0H, 'Text', 00H		; `string'
CONST	ENDS
;	COMDAT ??_C@_08DMHKNIAN@?$LB?b?$LK?$LL?$LI?E?$LJ?$LA@
CONST	SEGMENT
??_C@_08DMHKNIAN@?$LB?b?$LK?$LL?$LI?E?$LJ?$LA@ DB 0b1H, 0e2H, 0baH, 0bbH, 0b8H
	DB	0c5H, 0b9H, 0b0H, 00H			; `string'
CONST	ENDS
;	COMDAT xdata$x
xdata$x	SEGMENT
__unwindtable$?OnApply_GLANCEBLANCE@CSetItemOfColorListBox@@AAEXPAVCListBoxColorPickerST@@PAUIGraphInfo135914@@H@Z DD 0ffffffffH
	DD	FLAT:__unwindfunclet$?OnApply_GLANCEBLANCE@CSetItemOfColorListBox@@AAEXPAVCListBoxColorPickerST@@PAUIGraphInfo135914@@H@Z$0
	DD	0ffffffffH
	DD	FLAT:___std_terminate
__ehfuncinfo$?OnApply_GLANCEBLANCE@CSetItemOfColorListBox@@AAEXPAVCListBoxColorPickerST@@PAUIGraphInfo135914@@H@Z DD 019930522H
	DD	02H
	DD	FLAT:__unwindtable$?OnApply_GLANCEBLANCE@CSetItemOfColorListBox@@AAEXPAVCListBoxColorPickerST@@PAUIGraphInfo135914@@H@Z
	DD	2 DUP(00H)
	DD	2 DUP(00H)
	DD	00H
	DD	01H
xdata$x	ENDS
;	COMDAT xdata$x
xdata$x	SEGMENT
__unwindtable$?OnApply_DAEGIMEMUL@CSetItemOfColorListBox@@AAEXPAVCListBoxColorPickerST@@PAUIGraphInfo135914@@H@Z DD 0ffffffffH
	DD	FLAT:__unwindfunclet$?OnApply_DAEGIMEMUL@CSetItemOfColorListBox@@AAEXPAVCListBoxColorPickerST@@PAUIGraphInfo135914@@H@Z$0
	DD	0ffffffffH
	DD	FLAT:___std_terminate
__ehfuncinfo$?OnApply_DAEGIMEMUL@CSetItemOfColorListBox@@AAEXPAVCListBoxColorPickerST@@PAUIGraphInfo135914@@H@Z DD 019930522H
	DD	02H
	DD	FLAT:__unwindtable$?OnApply_DAEGIMEMUL@CSetItemOfColorListBox@@AAEXPAVCListBoxColorPickerST@@PAUIGraphInfo135914@@H@Z
	DD	2 DUP(00H)
	DD	2 DUP(00H)
	DD	00H
	DD	01H
xdata$x	ENDS
;	COMDAT xdata$x
xdata$x	SEGMENT
__unwindtable$?OnApply_MACD@CSetItemOfColorListBox@@AAEXPAVCListBoxColorPickerST@@PAUIGraphInfo135914@@H@Z DD 0ffffffffH
	DD	FLAT:__unwindfunclet$?OnApply_MACD@CSetItemOfColorListBox@@AAEXPAVCListBoxColorPickerST@@PAUIGraphInfo135914@@H@Z$0
	DD	0ffffffffH
	DD	FLAT:___std_terminate
__ehfuncinfo$?OnApply_MACD@CSetItemOfColorListBox@@AAEXPAVCListBoxColorPickerST@@PAUIGraphInfo135914@@H@Z DD 019930522H
	DD	02H
	DD	FLAT:__unwindtable$?OnApply_MACD@CSetItemOfColorListBox@@AAEXPAVCListBoxColorPickerST@@PAUIGraphInfo135914@@H@Z
	DD	2 DUP(00H)
	DD	2 DUP(00H)
	DD	00H
	DD	01H
xdata$x	ENDS
;	COMDAT xdata$x
xdata$x	SEGMENT
__unwindtable$?SetItem_EQUAL@CSetItemOfColorListBox@@AAEXPAUIGraphInfo135914@@HPAVCListBoxColorPickerST@@@Z DD 0ffffffffH
	DD	FLAT:__unwindfunclet$?SetItem_EQUAL@CSetItemOfColorListBox@@AAEXPAUIGraphInfo135914@@HPAVCListBoxColorPickerST@@@Z$0
__ehfuncinfo$?SetItem_EQUAL@CSetItemOfColorListBox@@AAEXPAUIGraphInfo135914@@HPAVCListBoxColorPickerST@@@Z DD 019930522H
	DD	01H
	DD	FLAT:__unwindtable$?SetItem_EQUAL@CSetItemOfColorListBox@@AAEXPAUIGraphInfo135914@@HPAVCListBoxColorPickerST@@@Z
	DD	2 DUP(00H)
	DD	2 DUP(00H)
	DD	00H
	DD	01H
xdata$x	ENDS
;	COMDAT xdata$x
xdata$x	SEGMENT
__unwindtable$?SetItem_UPDOWN@CSetItemOfColorListBox@@AAEXPAUIGraphInfo135914@@HPAVCListBoxColorPickerST@@@Z DD 0ffffffffH
	DD	FLAT:__unwindfunclet$?SetItem_UPDOWN@CSetItemOfColorListBox@@AAEXPAUIGraphInfo135914@@HPAVCListBoxColorPickerST@@@Z$0
	DD	00H
	DD	FLAT:__unwindfunclet$?SetItem_UPDOWN@CSetItemOfColorListBox@@AAEXPAUIGraphInfo135914@@HPAVCListBoxColorPickerST@@@Z$1
__ehfuncinfo$?SetItem_UPDOWN@CSetItemOfColorListBox@@AAEXPAUIGraphInfo135914@@HPAVCListBoxColorPickerST@@@Z DD 019930522H
	DD	02H
	DD	FLAT:__unwindtable$?SetItem_UPDOWN@CSetItemOfColorListBox@@AAEXPAUIGraphInfo135914@@HPAVCListBoxColorPickerST@@@Z
	DD	2 DUP(00H)
	DD	2 DUP(00H)
	DD	00H
	DD	01H
xdata$x	ENDS
;	COMDAT xdata$x
xdata$x	SEGMENT
__unwindtable$?SetItem_COLOR@CSetItemOfColorListBox@@AAEXPAUIGraphInfo135914@@HPAVCListBoxColorPickerST@@@Z DD 0ffffffffH
	DD	FLAT:__unwindfunclet$?SetItem_COLOR@CSetItemOfColorListBox@@AAEXPAUIGraphInfo135914@@HPAVCListBoxColorPickerST@@@Z$0
__ehfuncinfo$?SetItem_COLOR@CSetItemOfColorListBox@@AAEXPAUIGraphInfo135914@@HPAVCListBoxColorPickerST@@@Z DD 019930522H
	DD	01H
	DD	FLAT:__unwindtable$?SetItem_COLOR@CSetItemOfColorListBox@@AAEXPAUIGraphInfo135914@@HPAVCListBoxColorPickerST@@@Z
	DD	2 DUP(00H)
	DD	2 DUP(00H)
	DD	00H
	DD	01H
xdata$x	ENDS
;	COMDAT xdata$x
xdata$x	SEGMENT
__unwindtable$?SetItem_PRICE@CSetItemOfColorListBox@@AAEXPAUIGraphInfo135914@@HPAVCListBoxColorPickerST@@@Z DD 0ffffffffH
	DD	FLAT:__unwindfunclet$?SetItem_PRICE@CSetItemOfColorListBox@@AAEXPAUIGraphInfo135914@@HPAVCListBoxColorPickerST@@@Z$0
__ehfuncinfo$?SetItem_PRICE@CSetItemOfColorListBox@@AAEXPAUIGraphInfo135914@@HPAVCListBoxColorPickerST@@@Z DD 019930522H
	DD	01H
	DD	FLAT:__unwindtable$?SetItem_PRICE@CSetItemOfColorListBox@@AAEXPAUIGraphInfo135914@@HPAVCListBoxColorPickerST@@@Z
	DD	2 DUP(00H)
	DD	2 DUP(00H)
	DD	00H
	DD	01H
xdata$x	ENDS
;	COMDAT xdata$x
xdata$x	SEGMENT
__unwindtable$?SetItem_VOLUME@CSetItemOfColorListBox@@AAEXPAUIGraphInfo135914@@HPAVCListBoxColorPickerST@@@Z DD 0ffffffffH
	DD	FLAT:__unwindfunclet$?SetItem_VOLUME@CSetItemOfColorListBox@@AAEXPAUIGraphInfo135914@@HPAVCListBoxColorPickerST@@@Z$0
__ehfuncinfo$?SetItem_VOLUME@CSetItemOfColorListBox@@AAEXPAUIGraphInfo135914@@HPAVCListBoxColorPickerST@@@Z DD 019930522H
	DD	01H
	DD	FLAT:__unwindtable$?SetItem_VOLUME@CSetItemOfColorListBox@@AAEXPAUIGraphInfo135914@@HPAVCListBoxColorPickerST@@@Z
	DD	2 DUP(00H)
	DD	2 DUP(00H)
	DD	00H
	DD	01H
xdata$x	ENDS
;	COMDAT xdata$x
xdata$x	SEGMENT
__unwindtable$?SetItem_DAEGIMEMUL@CSetItemOfColorListBox@@AAEXPAUIGraphInfo135914@@HPAVCListBoxColorPickerST@@@Z DD 0ffffffffH
	DD	FLAT:__unwindfunclet$?SetItem_DAEGIMEMUL@CSetItemOfColorListBox@@AAEXPAUIGraphInfo135914@@HPAVCListBoxColorPickerST@@@Z$0
	DD	0ffffffffH
	DD	FLAT:___std_terminate
__ehfuncinfo$?SetItem_DAEGIMEMUL@CSetItemOfColorListBox@@AAEXPAUIGraphInfo135914@@HPAVCListBoxColorPickerST@@@Z DD 019930522H
	DD	02H
	DD	FLAT:__unwindtable$?SetItem_DAEGIMEMUL@CSetItemOfColorListBox@@AAEXPAUIGraphInfo135914@@HPAVCListBoxColorPickerST@@@Z
	DD	2 DUP(00H)
	DD	2 DUP(00H)
	DD	00H
	DD	01H
xdata$x	ENDS
;	COMDAT xdata$x
xdata$x	SEGMENT
__unwindtable$?SetItem_SUBGRAPHNAME@CSetItemOfColorListBox@@AAEXPAUIGraphInfo135914@@HPAVCListBoxColorPickerST@@@Z DD 0ffffffffH
	DD	FLAT:__unwindfunclet$?SetItem_SUBGRAPHNAME@CSetItemOfColorListBox@@AAEXPAUIGraphInfo135914@@HPAVCListBoxColorPickerST@@@Z$0
	DD	0ffffffffH
	DD	FLAT:___std_terminate
__ehfuncinfo$?SetItem_SUBGRAPHNAME@CSetItemOfColorListBox@@AAEXPAUIGraphInfo135914@@HPAVCListBoxColorPickerST@@@Z DD 019930522H
	DD	02H
	DD	FLAT:__unwindtable$?SetItem_SUBGRAPHNAME@CSetItemOfColorListBox@@AAEXPAUIGraphInfo135914@@HPAVCListBoxColorPickerST@@@Z
	DD	2 DUP(00H)
	DD	2 DUP(00H)
	DD	00H
	DD	01H
xdata$x	ENDS
;	COMDAT xdata$x
xdata$x	SEGMENT
__unwindtable$?SetItem_SUB_UPFILL_DOWNFILL@CSetItemOfColorListBox@@AAEXPAUIGraphInfo135914@@HPAVCListBoxColorPickerST@@@Z DD 0ffffffffH
	DD	FLAT:__unwindfunclet$?SetItem_SUB_UPFILL_DOWNFILL@CSetItemOfColorListBox@@AAEXPAUIGraphInfo135914@@HPAVCListBoxColorPickerST@@@Z$0
	DD	0ffffffffH
	DD	FLAT:___std_terminate
__ehfuncinfo$?SetItem_SUB_UPFILL_DOWNFILL@CSetItemOfColorListBox@@AAEXPAUIGraphInfo135914@@HPAVCListBoxColorPickerST@@@Z DD 019930522H
	DD	02H
	DD	FLAT:__unwindtable$?SetItem_SUB_UPFILL_DOWNFILL@CSetItemOfColorListBox@@AAEXPAUIGraphInfo135914@@HPAVCListBoxColorPickerST@@@Z
	DD	2 DUP(00H)
	DD	2 DUP(00H)
	DD	00H
	DD	01H
xdata$x	ENDS
;	COMDAT xdata$x
xdata$x	SEGMENT
__unwindtable$?SetItem_GLANCEBLANCE@CSetItemOfColorListBox@@AAEXPAUIGraphInfo135914@@HPAVCListBoxColorPickerST@@@Z DD 0ffffffffH
	DD	FLAT:__unwindfunclet$?SetItem_GLANCEBLANCE@CSetItemOfColorListBox@@AAEXPAUIGraphInfo135914@@HPAVCListBoxColorPickerST@@@Z$0
	DD	0ffffffffH
	DD	FLAT:___std_terminate
__ehfuncinfo$?SetItem_GLANCEBLANCE@CSetItemOfColorListBox@@AAEXPAUIGraphInfo135914@@HPAVCListBoxColorPickerST@@@Z DD 019930522H
	DD	02H
	DD	FLAT:__unwindtable$?SetItem_GLANCEBLANCE@CSetItemOfColorListBox@@AAEXPAUIGraphInfo135914@@HPAVCListBoxColorPickerST@@@Z
	DD	2 DUP(00H)
	DD	2 DUP(00H)
	DD	00H
	DD	01H
xdata$x	ENDS
;	COMDAT xdata$x
xdata$x	SEGMENT
__unwindtable$?SetItem_PIVOT@CSetItemOfColorListBox@@AAEXPAUIGraphInfo135914@@HPAVCListBoxColorPickerST@@@Z DD 0ffffffffH
	DD	FLAT:__unwindfunclet$?SetItem_PIVOT@CSetItemOfColorListBox@@AAEXPAUIGraphInfo135914@@HPAVCListBoxColorPickerST@@@Z$0
	DD	0ffffffffH
	DD	FLAT:___std_terminate
__ehfuncinfo$?SetItem_PIVOT@CSetItemOfColorListBox@@AAEXPAUIGraphInfo135914@@HPAVCListBoxColorPickerST@@@Z DD 019930522H
	DD	02H
	DD	FLAT:__unwindtable$?SetItem_PIVOT@CSetItemOfColorListBox@@AAEXPAUIGraphInfo135914@@HPAVCListBoxColorPickerST@@@Z
	DD	2 DUP(00H)
	DD	2 DUP(00H)
	DD	00H
	DD	01H
xdata$x	ENDS
;	COMDAT xdata$x
xdata$x	SEGMENT
__unwindtable$?SetItem_MACD@CSetItemOfColorListBox@@AAEXPAUIGraphInfo135914@@HPAVCListBoxColorPickerST@@@Z DD 0ffffffffH
	DD	FLAT:__unwindfunclet$?SetItem_MACD@CSetItemOfColorListBox@@AAEXPAUIGraphInfo135914@@HPAVCListBoxColorPickerST@@@Z$0
	DD	0ffffffffH
	DD	FLAT:___std_terminate
__ehfuncinfo$?SetItem_MACD@CSetItemOfColorListBox@@AAEXPAUIGraphInfo135914@@HPAVCListBoxColorPickerST@@@Z DD 019930522H
	DD	02H
	DD	FLAT:__unwindtable$?SetItem_MACD@CSetItemOfColorListBox@@AAEXPAUIGraphInfo135914@@HPAVCListBoxColorPickerST@@@Z
	DD	2 DUP(00H)
	DD	2 DUP(00H)
	DD	00H
	DD	01H
xdata$x	ENDS
;	COMDAT xdata$x
xdata$x	SEGMENT
__unwindtable$?SetItembyStyleandType@CSetItemOfColorListBox@@AAEX_NPAUIGraphInfo135914@@HPAVCListBoxColorPickerST@@@Z DD 0ffffffffH
	DD	FLAT:__unwindfunclet$?SetItembyStyleandType@CSetItemOfColorListBox@@AAEX_NPAUIGraphInfo135914@@HPAVCListBoxColorPickerST@@@Z$0
__ehfuncinfo$?SetItembyStyleandType@CSetItemOfColorListBox@@AAEX_NPAUIGraphInfo135914@@HPAVCListBoxColorPickerST@@@Z DD 019930522H
	DD	01H
	DD	FLAT:__unwindtable$?SetItembyStyleandType@CSetItemOfColorListBox@@AAEX_NPAUIGraphInfo135914@@HPAVCListBoxColorPickerST@@@Z
	DD	2 DUP(00H)
	DD	2 DUP(00H)
	DD	00H
	DD	01H
xdata$x	ENDS
;	COMDAT xdata$x
xdata$x	SEGMENT
__unwindtable$?InCaseOfStylsIsBar@CSetItemOfColorListBox@@AAEX_NPAUIGraphInfo135914@@HPAVCListBoxColorPickerST@@@Z DD 0ffffffffH
	DD	FLAT:__unwindfunclet$?InCaseOfStylsIsBar@CSetItemOfColorListBox@@AAEX_NPAUIGraphInfo135914@@HPAVCListBoxColorPickerST@@@Z$0
__ehfuncinfo$?InCaseOfStylsIsBar@CSetItemOfColorListBox@@AAEX_NPAUIGraphInfo135914@@HPAVCListBoxColorPickerST@@@Z DD 019930522H
	DD	01H
	DD	FLAT:__unwindtable$?InCaseOfStylsIsBar@CSetItemOfColorListBox@@AAEX_NPAUIGraphInfo135914@@HPAVCListBoxColorPickerST@@@Z
	DD	2 DUP(00H)
	DD	2 DUP(00H)
	DD	00H
	DD	01H
xdata$x	ENDS
;	COMDAT xdata$x
xdata$x	SEGMENT
__unwindtable$?InCaseOfStylsIsLine@CSetItemOfColorListBox@@AAEX_NHPAVCListBoxColorPickerST@@PAUIGraphInfo135914@@@Z DD 0ffffffffH
	DD	FLAT:__unwindfunclet$?InCaseOfStylsIsLine@CSetItemOfColorListBox@@AAEX_NHPAVCListBoxColorPickerST@@PAUIGraphInfo135914@@@Z$0
__ehfuncinfo$?InCaseOfStylsIsLine@CSetItemOfColorListBox@@AAEX_NHPAVCListBoxColorPickerST@@PAUIGraphInfo135914@@@Z DD 019930522H
	DD	01H
	DD	FLAT:__unwindtable$?InCaseOfStylsIsLine@CSetItemOfColorListBox@@AAEX_NHPAVCListBoxColorPickerST@@PAUIGraphInfo135914@@@Z
	DD	2 DUP(00H)
	DD	2 DUP(00H)
	DD	00H
	DD	01H
xdata$x	ENDS
;	COMDAT xdata$x
xdata$x	SEGMENT
__unwindtable$?InCaseOfStylsIsBong@CSetItemOfColorListBox@@AAEXPAUIGraphInfo135914@@_NHPAVCListBoxColorPickerST@@@Z DD 0ffffffffH
	DD	FLAT:__unwindfunclet$?InCaseOfStylsIsBong@CSetItemOfColorListBox@@AAEXPAUIGraphInfo135914@@_NHPAVCListBoxColorPickerST@@@Z$0
__ehfuncinfo$?InCaseOfStylsIsBong@CSetItemOfColorListBox@@AAEXPAUIGraphInfo135914@@_NHPAVCListBoxColorPickerST@@@Z DD 019930522H
	DD	01H
	DD	FLAT:__unwindtable$?InCaseOfStylsIsBong@CSetItemOfColorListBox@@AAEXPAUIGraphInfo135914@@_NHPAVCListBoxColorPickerST@@@Z
	DD	2 DUP(00H)
	DD	2 DUP(00H)
	DD	00H
	DD	01H
xdata$x	ENDS
;	COMDAT xdata$x
xdata$x	SEGMENT
__unwindtable$?InCaseOfTypeIsLineBong@CSetItemOfColorListBox@@AAEXPAUIGraphInfo135914@@_NHPAVCListBoxColorPickerST@@@Z DD 0ffffffffH
	DD	FLAT:__unwindfunclet$?InCaseOfTypeIsLineBong@CSetItemOfColorListBox@@AAEXPAUIGraphInfo135914@@_NHPAVCListBoxColorPickerST@@@Z$0
__ehfuncinfo$?InCaseOfTypeIsLineBong@CSetItemOfColorListBox@@AAEXPAUIGraphInfo135914@@_NHPAVCListBoxColorPickerST@@@Z DD 019930522H
	DD	01H
	DD	FLAT:__unwindtable$?InCaseOfTypeIsLineBong@CSetItemOfColorListBox@@AAEXPAUIGraphInfo135914@@_NHPAVCListBoxColorPickerST@@@Z
	DD	2 DUP(00H)
	DD	2 DUP(00H)
	DD	00H
	DD	01H
xdata$x	ENDS
;	COMDAT xdata$x
xdata$x	SEGMENT
__unwindtable$?SetItemInCaseOfStylsIsBar@CSetItemOfColorListBox@@AAEXPAUIGraphInfo135914@@HPAVCListBoxColorPickerST@@@Z DD 0ffffffffH
	DD	FLAT:__unwindfunclet$?SetItemInCaseOfStylsIsBar@CSetItemOfColorListBox@@AAEXPAUIGraphInfo135914@@HPAVCListBoxColorPickerST@@@Z$0
__ehfuncinfo$?SetItemInCaseOfStylsIsBar@CSetItemOfColorListBox@@AAEXPAUIGraphInfo135914@@HPAVCListBoxColorPickerST@@@Z DD 019930522H
	DD	01H
	DD	FLAT:__unwindtable$?SetItemInCaseOfStylsIsBar@CSetItemOfColorListBox@@AAEXPAUIGraphInfo135914@@HPAVCListBoxColorPickerST@@@Z
	DD	2 DUP(00H)
	DD	2 DUP(00H)
	DD	00H
	DD	01H
xdata$x	ENDS
;	COMDAT xdata$x
xdata$x	SEGMENT
__unwindtable$?SetItemInCaseOfStylsIsLine@CSetItemOfColorListBox@@AAEXHPAVCListBoxColorPickerST@@PAUIGraphInfo135914@@@Z DD 0ffffffffH
	DD	FLAT:__unwindfunclet$?SetItemInCaseOfStylsIsLine@CSetItemOfColorListBox@@AAEXHPAVCListBoxColorPickerST@@PAUIGraphInfo135914@@@Z$0
__ehfuncinfo$?SetItemInCaseOfStylsIsLine@CSetItemOfColorListBox@@AAEXHPAVCListBoxColorPickerST@@PAUIGraphInfo135914@@@Z DD 019930522H
	DD	01H
	DD	FLAT:__unwindtable$?SetItemInCaseOfStylsIsLine@CSetItemOfColorListBox@@AAEXHPAVCListBoxColorPickerST@@PAUIGraphInfo135914@@@Z
	DD	2 DUP(00H)
	DD	2 DUP(00H)
	DD	00H
	DD	01H
xdata$x	ENDS
;	COMDAT xdata$x
xdata$x	SEGMENT
__ehfuncinfo$?OnApply@CSetItemOfColorListBox@@QAEXPAVCListBoxColorPickerST@@PAUIGraphInfo135914@@H@Z DD 019930522H
	DD	06H
	DD	FLAT:__unwindtable$?OnApply@CSetItemOfColorListBox@@QAEXPAVCListBoxColorPickerST@@PAUIGraphInfo135914@@H@Z
	DD	2 DUP(00H)
	DD	2 DUP(00H)
	DD	00H
	DD	01H
__unwindtable$?OnApply@CSetItemOfColorListBox@@QAEXPAVCListBoxColorPickerST@@PAUIGraphInfo135914@@H@Z DD 0ffffffffH
	DD	FLAT:__unwindfunclet$?OnApply@CSetItemOfColorListBox@@QAEXPAVCListBoxColorPickerST@@PAUIGraphInfo135914@@H@Z$0
	DD	00H
	DD	FLAT:__unwindfunclet$?OnApply@CSetItemOfColorListBox@@QAEXPAVCListBoxColorPickerST@@PAUIGraphInfo135914@@H@Z$1
	DD	00H
	DD	FLAT:___std_terminate
	DD	00H
	DD	FLAT:__unwindfunclet$?OnApply@CSetItemOfColorListBox@@QAEXPAVCListBoxColorPickerST@@PAUIGraphInfo135914@@H@Z$3
	DD	00H
	DD	FLAT:___std_terminate
	DD	0ffffffffH
	DD	FLAT:___std_terminate
xdata$x	ENDS
;	COMDAT xdata$x
xdata$x	SEGMENT
__ehfuncinfo$?SetItem@CSetItemOfColorListBox@@QAEXPAUIGraphInfo135914@@HPAVCListBoxColorPickerST@@@Z DD 019930522H
	DD	0cH
	DD	FLAT:__unwindtable$?SetItem@CSetItemOfColorListBox@@QAEXPAUIGraphInfo135914@@HPAVCListBoxColorPickerST@@@Z
	DD	2 DUP(00H)
	DD	2 DUP(00H)
	DD	00H
	DD	01H
__unwindtable$?SetItem@CSetItemOfColorListBox@@QAEXPAUIGraphInfo135914@@HPAVCListBoxColorPickerST@@@Z DD 0ffffffffH
	DD	FLAT:__unwindfunclet$?SetItem@CSetItemOfColorListBox@@QAEXPAUIGraphInfo135914@@HPAVCListBoxColorPickerST@@@Z$0
	DD	00H
	DD	FLAT:__unwindfunclet$?SetItem@CSetItemOfColorListBox@@QAEXPAUIGraphInfo135914@@HPAVCListBoxColorPickerST@@@Z$1
	DD	00H
	DD	FLAT:__unwindfunclet$?SetItem@CSetItemOfColorListBox@@QAEXPAUIGraphInfo135914@@HPAVCListBoxColorPickerST@@@Z$2
	DD	00H
	DD	FLAT:__unwindfunclet$?SetItem@CSetItemOfColorListBox@@QAEXPAUIGraphInfo135914@@HPAVCListBoxColorPickerST@@@Z$3
	DD	00H
	DD	FLAT:___std_terminate
	DD	00H
	DD	FLAT:__unwindfunclet$?SetItem@CSetItemOfColorListBox@@QAEXPAUIGraphInfo135914@@HPAVCListBoxColorPickerST@@@Z$5
	DD	00H
	DD	FLAT:___std_terminate
	DD	00H
	DD	FLAT:__unwindfunclet$?SetItem@CSetItemOfColorListBox@@QAEXPAUIGraphInfo135914@@HPAVCListBoxColorPickerST@@@Z$7
	DD	00H
	DD	FLAT:___std_terminate
	DD	00H
	DD	FLAT:__unwindfunclet$?SetItem@CSetItemOfColorListBox@@QAEXPAUIGraphInfo135914@@HPAVCListBoxColorPickerST@@@Z$9
	DD	00H
	DD	FLAT:___std_terminate
	DD	0ffffffffH
	DD	FLAT:___std_terminate
xdata$x	ENDS
;	COMDAT xdata$x
xdata$x	SEGMENT
__ehfuncinfo$??1ILPCSTR135914@@QAE@XZ DD 019930522H
	DD	00H
	DD	00H
	DD	2 DUP(00H)
	DD	2 DUP(00H)
	DD	00H
	DD	05H
xdata$x	ENDS
; Function compile flags: /Ogtp
; File D:\git\src\IBK\IBK_DRFN\ProjSrc\SrcChartEx\ChartAddIn\ChartEnvSetupDlgAddIn\ChartEnvSetupDlgAddIn\SetItemOfColorListBox.cpp
;	COMDAT ?GetVolumeType@CSetItemOfColorListBox@@AAEHPAUIGraphInfo135914@@@Z
_TEXT	SEGMENT
_dType$ = -8						; size = 8
_p_pIGraphInfo$ = 8					; size = 4
?GetVolumeType@CSetItemOfColorListBox@@AAEHPAUIGraphInfo135914@@@Z PROC ; CSetItemOfColorListBox::GetVolumeType, COMDAT
; _this$ = ecx

; 82   : {

  00000	55		 push	 ebp
  00001	8b ec		 mov	 ebp, esp

; 83   : 	//test -
; 84   : 	IDoubleList *pIConditionList = p_pIGraphInfo->GetDrawConditionList();

  00003	8b 4d 08	 mov	 ecx, DWORD PTR _p_pIGraphInfo$[ebp]
  00006	83 ec 08	 sub	 esp, 8
  00009	8b 01		 mov	 eax, DWORD PTR [ecx]
  0000b	56		 push	 esi
  0000c	ff 50 14	 call	 DWORD PTR [eax+20]
  0000f	8b f0		 mov	 esi, eax

; 85   : 	if( !pIConditionList) return -1;

  00011	85 f6		 test	 esi, esi
  00013	75 0a		 jne	 SHORT $LN2@GetVolumeT
  00015	83 c8 ff	 or	 eax, -1
  00018	5e		 pop	 esi

; 90   : }

  00019	8b e5		 mov	 esp, ebp
  0001b	5d		 pop	 ebp
  0001c	c2 04 00	 ret	 4
$LN2@GetVolumeT:

; 86   : 	double dType = -1;

  0001f	f2 0f 10 05 00
	00 00 00	 movsd	 xmm0, QWORD PTR __real@bff0000000000000

; 87   : 	pIConditionList->GetHead( dType);

  00027	8d 4d f8	 lea	 ecx, DWORD PTR _dType$[ebp]
  0002a	f2 0f 11 45 f8	 movsd	 QWORD PTR _dType$[ebp], xmm0
  0002f	8b 06		 mov	 eax, DWORD PTR [esi]
  00031	51		 push	 ecx
  00032	8b ce		 mov	 ecx, esi
  00034	ff 50 18	 call	 DWORD PTR [eax+24]

; 88   : 	pIConditionList->Release();

  00037	8b 06		 mov	 eax, DWORD PTR [esi]
  00039	56		 push	 esi
  0003a	ff 50 08	 call	 DWORD PTR [eax+8]

; 89   : 	return ( int)dType;

  0003d	f2 0f 2c 45 f8	 cvttsd2si eax, QWORD PTR _dType$[ebp]
  00042	5e		 pop	 esi

; 90   : }

  00043	8b e5		 mov	 esp, ebp
  00045	5d		 pop	 ebp
  00046	c2 04 00	 ret	 4
?GetVolumeType@CSetItemOfColorListBox@@AAEHPAUIGraphInfo135914@@@Z ENDP ; CSetItemOfColorListBox::GetVolumeType
_TEXT	ENDS
; Function compile flags: /Ogtp
; File D:\git\src\IBK\IBK_DRFN\ProjSrc\SrcChartEx\ChartAddIn\ChartEnvSetupDlgAddIn\ChartEnvSetupDlgAddIn\SetItemOfColorListBox.cpp
;	COMDAT ?IsLineChart@CSetItemOfColorListBox@@AAE_NPAUIGraphInfo135914@@H@Z
_TEXT	SEGMENT
_p_pIGraphInfo$ = 8					; size = 4
_p_nSubGraphIndex$ = 12					; size = 4
?IsLineChart@CSetItemOfColorListBox@@AAE_NPAUIGraphInfo135914@@H@Z PROC ; CSetItemOfColorListBox::IsLineChart, COMDAT
; _this$ = ecx

; 93   : {

  00000	55		 push	 ebp
  00001	8b ec		 mov	 ebp, esp

; 94   : 	if( p_nSubGraphIndex < 0) return false;

  00003	8b 55 0c	 mov	 edx, DWORD PTR _p_nSubGraphIndex$[ebp]
  00006	85 d2		 test	 edx, edx
  00008	78 17		 js	 SHORT $LN5@IsLineChar

; 95   : 	if( !p_pIGraphInfo) return false;

  0000a	8b 4d 08	 mov	 ecx, DWORD PTR _p_pIGraphInfo$[ebp]
  0000d	85 c9		 test	 ecx, ecx
  0000f	74 10		 je	 SHORT $LN5@IsLineChar

; 96   : 
; 97   : 	return ( p_pIGraphInfo->GetSubGraphStyle( p_nSubGraphIndex) == 2); //라인식

  00011	8b 01		 mov	 eax, DWORD PTR [ecx]
  00013	52		 push	 edx
  00014	ff 50 54	 call	 DWORD PTR [eax+84]
  00017	83 f8 02	 cmp	 eax, 2
  0001a	0f 94 c0	 sete	 al

; 98   : }

  0001d	5d		 pop	 ebp
  0001e	c2 08 00	 ret	 8
$LN5@IsLineChar:

; 95   : 	if( !p_pIGraphInfo) return false;

  00021	32 c0		 xor	 al, al

; 98   : }

  00023	5d		 pop	 ebp
  00024	c2 08 00	 ret	 8
?IsLineChart@CSetItemOfColorListBox@@AAE_NPAUIGraphInfo135914@@H@Z ENDP ; CSetItemOfColorListBox::IsLineChart
_TEXT	ENDS
; Function compile flags: /Ogtp
; File D:\git\src\IBK\IBK_DRFN\ProjSrc\SrcChartEx\ChartAddIn\ChartEnvSetupDlgAddIn\ChartEnvSetupDlgAddIn\SetItemOfColorListBox.cpp
;	COMDAT ?OnApply_equalcolor@CSetItemOfColorListBox@@AAEXPAUIGraphInfo135914@@HABK@Z
_TEXT	SEGMENT
_p_pIGraphInfo$ = 8					; size = 4
_p_nSubGraphIndex$ = 12					; size = 4
_color$ = 16						; size = 4
?OnApply_equalcolor@CSetItemOfColorListBox@@AAEXPAUIGraphInfo135914@@HABK@Z PROC ; CSetItemOfColorListBox::OnApply_equalcolor, COMDAT
; _this$ = ecx

; 529  : {

  00000	55		 push	 ebp
  00001	8b ec		 mov	 ebp, esp
  00003	53		 push	 ebx

; 530  : 	p_pIGraphInfo->SetSubGraphColor( p_nSubGraphIndex, 5, color);

  00004	8b 5d 08	 mov	 ebx, DWORD PTR _p_pIGraphInfo$[ebp]
  00007	8b cb		 mov	 ecx, ebx
  00009	57		 push	 edi
  0000a	8b 7d 10	 mov	 edi, DWORD PTR _color$[ebp]
  0000d	8b 03		 mov	 eax, DWORD PTR [ebx]
  0000f	ff 37		 push	 DWORD PTR [edi]
  00011	6a 05		 push	 5
  00013	ff 75 0c	 push	 DWORD PTR _p_nSubGraphIndex$[ebp]
  00016	ff 50 6c	 call	 DWORD PTR [eax+108]

; 531  : 	p_pIGraphInfo->SetSubGraphColor( p_nSubGraphIndex, 6, color);

  00019	ff 37		 push	 DWORD PTR [edi]
  0001b	8b 03		 mov	 eax, DWORD PTR [ebx]
  0001d	8b cb		 mov	 ecx, ebx
  0001f	6a 06		 push	 6
  00021	ff 75 0c	 push	 DWORD PTR _p_nSubGraphIndex$[ebp]
  00024	ff 50 6c	 call	 DWORD PTR [eax+108]
  00027	5f		 pop	 edi
  00028	5b		 pop	 ebx

; 532  : }

  00029	5d		 pop	 ebp
  0002a	c2 0c 00	 ret	 12			; 0000000cH
?OnApply_equalcolor@CSetItemOfColorListBox@@AAEXPAUIGraphInfo135914@@HABK@Z ENDP ; CSetItemOfColorListBox::OnApply_equalcolor
_TEXT	ENDS
; Function compile flags: /Ogtp
; File D:\git\src\IBK\IBK_DRFN\ProjSrc\SrcChartEx\ChartAddIn\ChartEnvSetupDlgAddIn\ChartEnvSetupDlgAddIn\SetItemOfColorListBox.cpp
;	COMDAT ?OnApply_upcolor@CSetItemOfColorListBox@@AAEXPAUIGraphInfo135914@@HABK@Z
_TEXT	SEGMENT
_p_pIGraphInfo$ = 8					; size = 4
_p_nSubGraphIndex$ = 12					; size = 4
_color$ = 16						; size = 4
?OnApply_upcolor@CSetItemOfColorListBox@@AAEXPAUIGraphInfo135914@@HABK@Z PROC ; CSetItemOfColorListBox::OnApply_upcolor, COMDAT
; _this$ = ecx

; 517  : {

  00000	55		 push	 ebp
  00001	8b ec		 mov	 ebp, esp
  00003	53		 push	 ebx

; 518  : 	p_pIGraphInfo->SetSubGraphColor( p_nSubGraphIndex, 1, color);

  00004	8b 5d 08	 mov	 ebx, DWORD PTR _p_pIGraphInfo$[ebp]
  00007	8b cb		 mov	 ecx, ebx
  00009	57		 push	 edi
  0000a	8b 7d 10	 mov	 edi, DWORD PTR _color$[ebp]
  0000d	8b 03		 mov	 eax, DWORD PTR [ebx]
  0000f	ff 37		 push	 DWORD PTR [edi]
  00011	6a 01		 push	 1
  00013	ff 75 0c	 push	 DWORD PTR _p_nSubGraphIndex$[ebp]
  00016	ff 50 6c	 call	 DWORD PTR [eax+108]

; 519  : 	p_pIGraphInfo->SetSubGraphColor( p_nSubGraphIndex, 2, color);

  00019	ff 37		 push	 DWORD PTR [edi]
  0001b	8b 03		 mov	 eax, DWORD PTR [ebx]
  0001d	8b cb		 mov	 ecx, ebx
  0001f	6a 02		 push	 2
  00021	ff 75 0c	 push	 DWORD PTR _p_nSubGraphIndex$[ebp]
  00024	ff 50 6c	 call	 DWORD PTR [eax+108]
  00027	5f		 pop	 edi
  00028	5b		 pop	 ebx

; 520  : }

  00029	5d		 pop	 ebp
  0002a	c2 0c 00	 ret	 12			; 0000000cH
?OnApply_upcolor@CSetItemOfColorListBox@@AAEXPAUIGraphInfo135914@@HABK@Z ENDP ; CSetItemOfColorListBox::OnApply_upcolor
_TEXT	ENDS
; Function compile flags: /Ogtp
; File D:\git\src\IBK\IBK_DRFN\ProjSrc\SrcChartEx\ChartAddIn\ChartEnvSetupDlgAddIn\ChartEnvSetupDlgAddIn\SetItemOfColorListBox.cpp
;	COMDAT ?OnApply_downcolor@CSetItemOfColorListBox@@AAEXPAUIGraphInfo135914@@HABK@Z
_TEXT	SEGMENT
_p_pIGraphInfo$ = 8					; size = 4
_p_nSubGraphIndex$ = 12					; size = 4
_color$ = 16						; size = 4
?OnApply_downcolor@CSetItemOfColorListBox@@AAEXPAUIGraphInfo135914@@HABK@Z PROC ; CSetItemOfColorListBox::OnApply_downcolor, COMDAT
; _this$ = ecx

; 523  : {

  00000	55		 push	 ebp
  00001	8b ec		 mov	 ebp, esp
  00003	53		 push	 ebx

; 524  : 	p_pIGraphInfo->SetSubGraphColor( p_nSubGraphIndex, 3, color);

  00004	8b 5d 08	 mov	 ebx, DWORD PTR _p_pIGraphInfo$[ebp]
  00007	8b cb		 mov	 ecx, ebx
  00009	57		 push	 edi
  0000a	8b 7d 10	 mov	 edi, DWORD PTR _color$[ebp]
  0000d	8b 03		 mov	 eax, DWORD PTR [ebx]
  0000f	ff 37		 push	 DWORD PTR [edi]
  00011	6a 03		 push	 3
  00013	ff 75 0c	 push	 DWORD PTR _p_nSubGraphIndex$[ebp]
  00016	ff 50 6c	 call	 DWORD PTR [eax+108]

; 525  : 	p_pIGraphInfo->SetSubGraphColor( p_nSubGraphIndex, 4, color);

  00019	ff 37		 push	 DWORD PTR [edi]
  0001b	8b 03		 mov	 eax, DWORD PTR [ebx]
  0001d	8b cb		 mov	 ecx, ebx
  0001f	6a 04		 push	 4
  00021	ff 75 0c	 push	 DWORD PTR _p_nSubGraphIndex$[ebp]
  00024	ff 50 6c	 call	 DWORD PTR [eax+108]
  00027	5f		 pop	 edi
  00028	5b		 pop	 ebx

; 526  : }

  00029	5d		 pop	 ebp
  0002a	c2 0c 00	 ret	 12			; 0000000cH
?OnApply_downcolor@CSetItemOfColorListBox@@AAEXPAUIGraphInfo135914@@HABK@Z ENDP ; CSetItemOfColorListBox::OnApply_downcolor
_TEXT	ENDS
; Function compile flags: /Ogtp
; File D:\git\src\IBK\IBK_DRFN\ProjSrc\SrcChartEx\ChartAddIn\ChartEnvSetupDlgAddIn\ChartEnvSetupDlgAddIn\SetItemOfColorListBox.cpp
;	COMDAT ?OnApply_SUB_UPFILL_DOWNFILL2@CSetItemOfColorListBox@@AAEXPAUIGraphInfo135914@@PAVCListBoxColorPickerST@@H@Z
_TEXT	SEGMENT
_p_pIGraphInfo$ = 8					; size = 4
_pListBox$ = 12						; size = 4
_p_nSubGraphIndex$ = 16					; size = 4
?OnApply_SUB_UPFILL_DOWNFILL2@CSetItemOfColorListBox@@AAEXPAUIGraphInfo135914@@PAVCListBoxColorPickerST@@H@Z PROC ; CSetItemOfColorListBox::OnApply_SUB_UPFILL_DOWNFILL2, COMDAT
; _this$ = ecx

; 450  : #ifdef _DEBUG
; 451  : 	AfxMessageBox( "What is it?");
; 452  : #endif
; 453  : /*
; 454  : 	for(int i = 0; i < p_pIGraphInfo->GetSubGraphCount(); i++)
; 455  : 	{
; 456  : 		int pTmp_nSubGraphIndex = p_pIGraphInfo->GetSubGraphData(i);
; 457  : 
; 458  : 		if(pTmp_nSubGraphIndex->GetName() == p_nSubGraphIndex->GetName())
; 459  : 		{
; 460  : 			p_nSubGraphIndex->GetColor().SetColor5(pListBox->GetColor(0));
; 461  : 			OnApply_upcolor(p_nSubGraphIndex, pListBox->GetColor(1));
; 462  : 			OnApply_downcolor(p_nSubGraphIndex, pListBox->GetColor(2));
; 463  : 		}
; 464  : 		else
; 465  : 			OnApply_upcolor(p_pIGraphInfo->GetSubGraphData(i), pListBox->GetColor(i+2));
; 466  : 	}
; 467  : */
; 468  : }

  00000	c2 0c 00	 ret	 12			; 0000000cH
?OnApply_SUB_UPFILL_DOWNFILL2@CSetItemOfColorListBox@@AAEXPAUIGraphInfo135914@@PAVCListBoxColorPickerST@@H@Z ENDP ; CSetItemOfColorListBox::OnApply_SUB_UPFILL_DOWNFILL2
_TEXT	ENDS
; Function compile flags: /Ogtp
; File D:\git\src\IBK\IBK_DRFN\ProjSrc\SrcChartEx\ChartAddIn\ChartEnvSetupDlgAddIn\ChartEnvSetupDlgAddIn\SetItemOfColorListBox.cpp
;	COMDAT ?OnApply_PRICE@CSetItemOfColorListBox@@AAEXPAVCListBoxColorPickerST@@PAUIGraphInfo135914@@H@Z
_TEXT	SEGMENT
_dType$1 = -8						; size = 8
_pListBox$ = 8						; size = 4
_p_pIGraphInfo$ = 12					; size = 4
_p_nSubGraphIndex$ = 16					; size = 4
?OnApply_PRICE@CSetItemOfColorListBox@@AAEXPAVCListBoxColorPickerST@@PAUIGraphInfo135914@@H@Z PROC ; CSetItemOfColorListBox::OnApply_PRICE, COMDAT
; _this$ = ecx

; 376  : {

  00000	55		 push	 ebp
  00001	8b ec		 mov	 ebp, esp

; 377  : 	OnApply_upcolor( p_pIGraphInfo, p_nSubGraphIndex, pListBox->GetColor(0));

  00003	8b 4d 08	 mov	 ecx, DWORD PTR _pListBox$[ebp]
  00006	83 ec 08	 sub	 esp, 8
  00009	53		 push	 ebx
  0000a	56		 push	 esi
  0000b	57		 push	 edi
  0000c	6a 00		 push	 0
  0000e	e8 00 00 00 00	 call	 ?GetColor@CListBoxColorPickerST@@QAEKH@Z ; CListBoxColorPickerST::GetColor

; 518  : 	p_pIGraphInfo->SetSubGraphColor( p_nSubGraphIndex, 1, color);

  00013	8b 7d 0c	 mov	 edi, DWORD PTR _p_pIGraphInfo$[ebp]

; 377  : 	OnApply_upcolor( p_pIGraphInfo, p_nSubGraphIndex, pListBox->GetColor(0));

  00016	8b f0		 mov	 esi, eax

; 518  : 	p_pIGraphInfo->SetSubGraphColor( p_nSubGraphIndex, 1, color);

  00018	8b 5d 10	 mov	 ebx, DWORD PTR _p_nSubGraphIndex$[ebp]
  0001b	8b cf		 mov	 ecx, edi
  0001d	56		 push	 esi
  0001e	6a 01		 push	 1
  00020	8b 17		 mov	 edx, DWORD PTR [edi]
  00022	53		 push	 ebx
  00023	ff 52 6c	 call	 DWORD PTR [edx+108]

; 519  : 	p_pIGraphInfo->SetSubGraphColor( p_nSubGraphIndex, 2, color);

  00026	8b 07		 mov	 eax, DWORD PTR [edi]
  00028	8b cf		 mov	 ecx, edi
  0002a	56		 push	 esi
  0002b	6a 02		 push	 2
  0002d	53		 push	 ebx
  0002e	ff 50 6c	 call	 DWORD PTR [eax+108]

; 94   : 	if( p_nSubGraphIndex < 0) return false;

  00031	85 db		 test	 ebx, ebx
  00033	78 0d		 js	 SHORT $LN16@OnApply_PR

; 95   : 	if( !p_pIGraphInfo) return false;
; 96   : 
; 97   : 	return ( p_pIGraphInfo->GetSubGraphStyle( p_nSubGraphIndex) == 2); //라인식

  00035	8b 07		 mov	 eax, DWORD PTR [edi]
  00037	8b cf		 mov	 ecx, edi
  00039	53		 push	 ebx
  0003a	ff 50 54	 call	 DWORD PTR [eax+84]

; 378  : 	if(!IsLineChart( p_pIGraphInfo, p_nSubGraphIndex)) { 

  0003d	83 f8 02	 cmp	 eax, 2
  00040	74 79		 je	 SHORT $LN4@OnApply_PR
$LN16@OnApply_PR:

; 379  : 		OnApply_downcolor( p_pIGraphInfo, p_nSubGraphIndex, pListBox->GetColor(1));

  00042	8b 4d 08	 mov	 ecx, DWORD PTR _pListBox$[ebp]
  00045	6a 01		 push	 1
  00047	e8 00 00 00 00	 call	 ?GetColor@CListBoxColorPickerST@@QAEKH@Z ; CListBoxColorPickerST::GetColor

; 524  : 	p_pIGraphInfo->SetSubGraphColor( p_nSubGraphIndex, 3, color);

  0004c	8b 17		 mov	 edx, DWORD PTR [edi]

; 379  : 		OnApply_downcolor( p_pIGraphInfo, p_nSubGraphIndex, pListBox->GetColor(1));

  0004e	8b f0		 mov	 esi, eax

; 524  : 	p_pIGraphInfo->SetSubGraphColor( p_nSubGraphIndex, 3, color);

  00050	56		 push	 esi
  00051	6a 03		 push	 3
  00053	53		 push	 ebx
  00054	8b cf		 mov	 ecx, edi
  00056	ff 52 6c	 call	 DWORD PTR [edx+108]

; 525  : 	p_pIGraphInfo->SetSubGraphColor( p_nSubGraphIndex, 4, color);

  00059	8b 17		 mov	 edx, DWORD PTR [edi]
  0005b	8b cf		 mov	 ecx, edi
  0005d	56		 push	 esi
  0005e	6a 04		 push	 4
  00060	53		 push	 ebx
  00061	ff 52 6c	 call	 DWORD PTR [edx+108]

; 380  : 
; 381  : 		IDoubleList *pIConditionList = p_pIGraphInfo->GetDrawConditionList();

  00064	8b 07		 mov	 eax, DWORD PTR [edi]
  00066	8b cf		 mov	 ecx, edi
  00068	ff 50 14	 call	 DWORD PTR [eax+20]
  0006b	8b f0		 mov	 esi, eax

; 382  : 		if( pIConditionList)

  0006d	85 f6		 test	 esi, esi
  0006f	74 4a		 je	 SHORT $LN4@OnApply_PR

; 383  : 		{
; 384  : 			double dType = -1;
; 385  : 			pIConditionList->GetHead( dType);

  00071	8b 16		 mov	 edx, DWORD PTR [esi]
  00073	8d 45 f8	 lea	 eax, DWORD PTR _dType$1[ebp]
  00076	f2 0f 10 05 00
	00 00 00	 movsd	 xmm0, QWORD PTR __real@bff0000000000000
  0007e	8b ce		 mov	 ecx, esi
  00080	50		 push	 eax
  00081	f2 0f 11 45 f8	 movsd	 QWORD PTR _dType$1[ebp], xmm0
  00086	ff 52 18	 call	 DWORD PTR [edx+24]

; 386  : 			pIConditionList->Release();

  00089	8b 06		 mov	 eax, DWORD PTR [esi]
  0008b	56		 push	 esi
  0008c	ff 50 08	 call	 DWORD PTR [eax+8]

; 387  : 			if( ( int)dType == 1) OnApply_equalcolor( p_pIGraphInfo, p_nSubGraphIndex, pListBox->GetColor( 2));

  0008f	f2 0f 2c 45 f8	 cvttsd2si eax, QWORD PTR _dType$1[ebp]
  00094	83 f8 01	 cmp	 eax, 1
  00097	75 22		 jne	 SHORT $LN4@OnApply_PR
  00099	8b 4d 08	 mov	 ecx, DWORD PTR _pListBox$[ebp]
  0009c	6a 02		 push	 2
  0009e	e8 00 00 00 00	 call	 ?GetColor@CListBoxColorPickerST@@QAEKH@Z ; CListBoxColorPickerST::GetColor

; 530  : 	p_pIGraphInfo->SetSubGraphColor( p_nSubGraphIndex, 5, color);

  000a3	8b 17		 mov	 edx, DWORD PTR [edi]

; 387  : 			if( ( int)dType == 1) OnApply_equalcolor( p_pIGraphInfo, p_nSubGraphIndex, pListBox->GetColor( 2));

  000a5	8b f0		 mov	 esi, eax

; 530  : 	p_pIGraphInfo->SetSubGraphColor( p_nSubGraphIndex, 5, color);

  000a7	56		 push	 esi
  000a8	6a 05		 push	 5
  000aa	53		 push	 ebx
  000ab	8b cf		 mov	 ecx, edi
  000ad	ff 52 6c	 call	 DWORD PTR [edx+108]

; 531  : 	p_pIGraphInfo->SetSubGraphColor( p_nSubGraphIndex, 6, color);

  000b0	8b 17		 mov	 edx, DWORD PTR [edi]
  000b2	8b cf		 mov	 ecx, edi
  000b4	56		 push	 esi
  000b5	6a 06		 push	 6
  000b7	53		 push	 ebx
  000b8	ff 52 6c	 call	 DWORD PTR [edx+108]
$LN4@OnApply_PR:
  000bb	5f		 pop	 edi

; 388  : 		}
; 389  : 	}
; 390  : }

  000bc	5e		 pop	 esi
  000bd	5b		 pop	 ebx
  000be	8b e5		 mov	 esp, ebp
  000c0	5d		 pop	 ebp
  000c1	c2 0c 00	 ret	 12			; 0000000cH
?OnApply_PRICE@CSetItemOfColorListBox@@AAEXPAVCListBoxColorPickerST@@PAUIGraphInfo135914@@H@Z ENDP ; CSetItemOfColorListBox::OnApply_PRICE
_TEXT	ENDS
; Function compile flags: /Ogtp
; File D:\git\src\IBK\IBK_DRFN\ProjSrc\SrcChartEx\ChartAddIn\ChartEnvSetupDlgAddIn\ChartEnvSetupDlgAddIn\SetItemOfColorListBox.cpp
;	COMDAT ?OnApply_VOLUME@CSetItemOfColorListBox@@AAEXPAVCListBoxColorPickerST@@PAUIGraphInfo135914@@H@Z
_TEXT	SEGMENT
_dType$1 = -8						; size = 8
_dType$2 = -8						; size = 8
_dType$3 = -8						; size = 8
_pListBox$ = 8						; size = 4
_p_pIGraphInfo$ = 12					; size = 4
_p_nSubGraphIndex$ = 16					; size = 4
?OnApply_VOLUME@CSetItemOfColorListBox@@AAEXPAVCListBoxColorPickerST@@PAUIGraphInfo135914@@H@Z PROC ; CSetItemOfColorListBox::OnApply_VOLUME, COMDAT
; _this$ = ecx

; 393  : {

  00000	55		 push	 ebp
  00001	8b ec		 mov	 ebp, esp
  00003	83 ec 08	 sub	 esp, 8
  00006	53		 push	 ebx

; 84   : 	IDoubleList *pIConditionList = p_pIGraphInfo->GetDrawConditionList();

  00007	8b 5d 0c	 mov	 ebx, DWORD PTR _p_pIGraphInfo$[ebp]
  0000a	8b cb		 mov	 ecx, ebx

; 393  : {

  0000c	56		 push	 esi
  0000d	57		 push	 edi

; 84   : 	IDoubleList *pIConditionList = p_pIGraphInfo->GetDrawConditionList();

  0000e	8b 03		 mov	 eax, DWORD PTR [ebx]
  00010	ff 50 14	 call	 DWORD PTR [eax+20]
  00013	8b f0		 mov	 esi, eax

; 85   : 	if( !pIConditionList) return -1;

  00015	85 f6		 test	 esi, esi
  00017	74 56		 je	 SHORT $LN2@OnApply_VO

; 86   : 	double dType = -1;

  00019	f2 0f 10 05 00
	00 00 00	 movsd	 xmm0, QWORD PTR __real@bff0000000000000

; 87   : 	pIConditionList->GetHead( dType);

  00021	8d 45 f8	 lea	 eax, DWORD PTR _dType$2[ebp]
  00024	f2 0f 11 45 f8	 movsd	 QWORD PTR _dType$2[ebp], xmm0
  00029	8b ce		 mov	 ecx, esi
  0002b	8b 16		 mov	 edx, DWORD PTR [esi]
  0002d	50		 push	 eax
  0002e	ff 52 18	 call	 DWORD PTR [edx+24]

; 88   : 	pIConditionList->Release();

  00031	8b 06		 mov	 eax, DWORD PTR [esi]
  00033	56		 push	 esi
  00034	ff 50 08	 call	 DWORD PTR [eax+8]

; 89   : 	return ( int)dType;

  00037	f2 0f 2c 45 f8	 cvttsd2si eax, QWORD PTR _dType$2[ebp]

; 394  : 	//일반거래량
; 395  : 	if(GetVolumeType(p_pIGraphInfo) == 1) { 

  0003c	83 f8 01	 cmp	 eax, 1
  0003f	75 2e		 jne	 SHORT $LN2@OnApply_VO

; 396  : 		//sy 2004.05.11. -> 일반거래량 색은 1번째로 한다.
; 397  : 		OnApply_upcolor( p_pIGraphInfo, p_nSubGraphIndex, pListBox->GetColor(0));

  00041	8b 4d 08	 mov	 ecx, DWORD PTR _pListBox$[ebp]
  00044	6a 00		 push	 0
  00046	e8 00 00 00 00	 call	 ?GetColor@CListBoxColorPickerST@@QAEKH@Z ; CListBoxColorPickerST::GetColor

; 518  : 	p_pIGraphInfo->SetSubGraphColor( p_nSubGraphIndex, 1, color);

  0004b	8b 13		 mov	 edx, DWORD PTR [ebx]

; 396  : 		//sy 2004.05.11. -> 일반거래량 색은 1번째로 한다.
; 397  : 		OnApply_upcolor( p_pIGraphInfo, p_nSubGraphIndex, pListBox->GetColor(0));

  0004d	8b f8		 mov	 edi, eax

; 518  : 	p_pIGraphInfo->SetSubGraphColor( p_nSubGraphIndex, 1, color);

  0004f	8b 75 10	 mov	 esi, DWORD PTR _p_nSubGraphIndex$[ebp]
  00052	8b cb		 mov	 ecx, ebx
  00054	57		 push	 edi
  00055	6a 01		 push	 1
  00057	56		 push	 esi
  00058	ff 52 6c	 call	 DWORD PTR [edx+108]

; 519  : 	p_pIGraphInfo->SetSubGraphColor( p_nSubGraphIndex, 2, color);

  0005b	8b 13		 mov	 edx, DWORD PTR [ebx]
  0005d	8b cb		 mov	 ecx, ebx
  0005f	57		 push	 edi
  00060	6a 02		 push	 2
  00062	56		 push	 esi

; 410  : 	}
; 411  : }

  00063	ff 52 6c	 call	 DWORD PTR [edx+108]
  00066	5f		 pop	 edi
  00067	5e		 pop	 esi
  00068	5b		 pop	 ebx
  00069	8b e5		 mov	 esp, ebp
  0006b	5d		 pop	 ebp
  0006c	c2 0c 00	 ret	 12			; 0000000cH
$LN2@OnApply_VO:

; 84   : 	IDoubleList *pIConditionList = p_pIGraphInfo->GetDrawConditionList();

  0006f	8b 03		 mov	 eax, DWORD PTR [ebx]
  00071	8b cb		 mov	 ecx, ebx
  00073	ff 50 14	 call	 DWORD PTR [eax+20]
  00076	8b f0		 mov	 esi, eax

; 85   : 	if( !pIConditionList) return -1;

  00078	85 f6		 test	 esi, esi
  0007a	74 7f		 je	 SHORT $LN4@OnApply_VO

; 86   : 	double dType = -1;

  0007c	f2 0f 10 05 00
	00 00 00	 movsd	 xmm0, QWORD PTR __real@bff0000000000000

; 87   : 	pIConditionList->GetHead( dType);

  00084	8d 45 f8	 lea	 eax, DWORD PTR _dType$3[ebp]
  00087	f2 0f 11 45 f8	 movsd	 QWORD PTR _dType$3[ebp], xmm0
  0008c	8b ce		 mov	 ecx, esi
  0008e	8b 16		 mov	 edx, DWORD PTR [esi]
  00090	50		 push	 eax
  00091	ff 52 18	 call	 DWORD PTR [edx+24]

; 88   : 	pIConditionList->Release();

  00094	8b 06		 mov	 eax, DWORD PTR [esi]
  00096	56		 push	 esi
  00097	ff 50 08	 call	 DWORD PTR [eax+8]

; 89   : 	return ( int)dType;

  0009a	f2 0f 2c 45 f8	 cvttsd2si eax, QWORD PTR _dType$3[ebp]

; 398  : 		//p_nSubGraphIndex->GetColor().SetColor5(pListBox->GetColor(0));
; 399  : 		//p_nSubGraphIndex->GetColor().SetColor6(pListBox->GetColor(0));
; 400  : 		//sy end
; 401  : 	}
; 402  : 	else if(GetVolumeType(p_pIGraphInfo) == 2) { //상승, 하락

  0009f	83 f8 02	 cmp	 eax, 2
  000a2	75 57		 jne	 SHORT $LN4@OnApply_VO

; 403  : 		OnApply_upcolor( p_pIGraphInfo, p_nSubGraphIndex, pListBox->GetColor(0));

  000a4	8b 4d 08	 mov	 ecx, DWORD PTR _pListBox$[ebp]
  000a7	6a 00		 push	 0
  000a9	e8 00 00 00 00	 call	 ?GetColor@CListBoxColorPickerST@@QAEKH@Z ; CListBoxColorPickerST::GetColor

; 518  : 	p_pIGraphInfo->SetSubGraphColor( p_nSubGraphIndex, 1, color);

  000ae	8b 13		 mov	 edx, DWORD PTR [ebx]

; 403  : 		OnApply_upcolor( p_pIGraphInfo, p_nSubGraphIndex, pListBox->GetColor(0));

  000b0	8b f0		 mov	 esi, eax

; 518  : 	p_pIGraphInfo->SetSubGraphColor( p_nSubGraphIndex, 1, color);

  000b2	8b 5d 10	 mov	 ebx, DWORD PTR _p_nSubGraphIndex$[ebp]
  000b5	8b 4d 0c	 mov	 ecx, DWORD PTR _p_pIGraphInfo$[ebp]
  000b8	56		 push	 esi
  000b9	6a 01		 push	 1
  000bb	53		 push	 ebx
  000bc	ff 52 6c	 call	 DWORD PTR [edx+108]

; 519  : 	p_pIGraphInfo->SetSubGraphColor( p_nSubGraphIndex, 2, color);

  000bf	8b 45 0c	 mov	 eax, DWORD PTR _p_pIGraphInfo$[ebp]
  000c2	8b c8		 mov	 ecx, eax
  000c4	56		 push	 esi
  000c5	6a 02		 push	 2
  000c7	53		 push	 ebx
  000c8	8b 10		 mov	 edx, DWORD PTR [eax]
  000ca	ff 52 6c	 call	 DWORD PTR [edx+108]

; 404  : 		OnApply_downcolor( p_pIGraphInfo, p_nSubGraphIndex, pListBox->GetColor(1));

  000cd	8b 4d 08	 mov	 ecx, DWORD PTR _pListBox$[ebp]
  000d0	6a 01		 push	 1
  000d2	e8 00 00 00 00	 call	 ?GetColor@CListBoxColorPickerST@@QAEKH@Z ; CListBoxColorPickerST::GetColor

; 524  : 	p_pIGraphInfo->SetSubGraphColor( p_nSubGraphIndex, 3, color);

  000d7	8b 7d 0c	 mov	 edi, DWORD PTR _p_pIGraphInfo$[ebp]

; 404  : 		OnApply_downcolor( p_pIGraphInfo, p_nSubGraphIndex, pListBox->GetColor(1));

  000da	8b f0		 mov	 esi, eax

; 524  : 	p_pIGraphInfo->SetSubGraphColor( p_nSubGraphIndex, 3, color);

  000dc	56		 push	 esi
  000dd	6a 03		 push	 3
  000df	53		 push	 ebx
  000e0	8b 17		 mov	 edx, DWORD PTR [edi]
  000e2	8b cf		 mov	 ecx, edi
  000e4	ff 52 6c	 call	 DWORD PTR [edx+108]

; 410  : 	}
; 411  : }

  000e7	8b 17		 mov	 edx, DWORD PTR [edi]
  000e9	8b cf		 mov	 ecx, edi

; 525  : 	p_pIGraphInfo->SetSubGraphColor( p_nSubGraphIndex, 4, color);

  000eb	56		 push	 esi
  000ec	6a 04		 push	 4

; 410  : 	}
; 411  : }

  000ee	53		 push	 ebx
  000ef	ff 52 6c	 call	 DWORD PTR [edx+108]
  000f2	5f		 pop	 edi
  000f3	5e		 pop	 esi
  000f4	5b		 pop	 ebx
  000f5	8b e5		 mov	 esp, ebp
  000f7	5d		 pop	 ebp
  000f8	c2 0c 00	 ret	 12			; 0000000cH
$LN4@OnApply_VO:

; 84   : 	IDoubleList *pIConditionList = p_pIGraphInfo->GetDrawConditionList();

  000fb	8b 03		 mov	 eax, DWORD PTR [ebx]
  000fd	8b cb		 mov	 ecx, ebx
  000ff	ff 50 14	 call	 DWORD PTR [eax+20]
  00102	8b f0		 mov	 esi, eax

; 85   : 	if( !pIConditionList) return -1;

  00104	85 f6		 test	 esi, esi
  00106	0f 84 9e 00 00
	00		 je	 $LN6@OnApply_VO

; 86   : 	double dType = -1;

  0010c	f2 0f 10 05 00
	00 00 00	 movsd	 xmm0, QWORD PTR __real@bff0000000000000

; 87   : 	pIConditionList->GetHead( dType);

  00114	8d 45 f8	 lea	 eax, DWORD PTR _dType$1[ebp]
  00117	f2 0f 11 45 f8	 movsd	 QWORD PTR _dType$1[ebp], xmm0
  0011c	8b ce		 mov	 ecx, esi
  0011e	8b 16		 mov	 edx, DWORD PTR [esi]
  00120	50		 push	 eax
  00121	ff 52 18	 call	 DWORD PTR [edx+24]

; 88   : 	pIConditionList->Release();

  00124	8b 06		 mov	 eax, DWORD PTR [esi]
  00126	56		 push	 esi
  00127	ff 50 08	 call	 DWORD PTR [eax+8]

; 89   : 	return ( int)dType;

  0012a	f2 0f 2c 45 f8	 cvttsd2si eax, QWORD PTR _dType$1[ebp]

; 405  : 	}
; 406  : 	else if(GetVolumeType(p_pIGraphInfo) == 3) { //캔들색과 같이

  0012f	83 f8 03	 cmp	 eax, 3
  00132	75 76		 jne	 SHORT $LN6@OnApply_VO

; 407  : 		OnApply_upcolor( p_pIGraphInfo, p_nSubGraphIndex, pListBox->GetColor(0));

  00134	8b 7d 08	 mov	 edi, DWORD PTR _pListBox$[ebp]
  00137	8b cf		 mov	 ecx, edi
  00139	6a 00		 push	 0
  0013b	e8 00 00 00 00	 call	 ?GetColor@CListBoxColorPickerST@@QAEKH@Z ; CListBoxColorPickerST::GetColor

; 518  : 	p_pIGraphInfo->SetSubGraphColor( p_nSubGraphIndex, 1, color);

  00140	8b 13		 mov	 edx, DWORD PTR [ebx]

; 407  : 		OnApply_upcolor( p_pIGraphInfo, p_nSubGraphIndex, pListBox->GetColor(0));

  00142	8b f0		 mov	 esi, eax

; 518  : 	p_pIGraphInfo->SetSubGraphColor( p_nSubGraphIndex, 1, color);

  00144	8b 5d 10	 mov	 ebx, DWORD PTR _p_nSubGraphIndex$[ebp]
  00147	8b 4d 0c	 mov	 ecx, DWORD PTR _p_pIGraphInfo$[ebp]
  0014a	56		 push	 esi
  0014b	6a 01		 push	 1
  0014d	53		 push	 ebx
  0014e	ff 52 6c	 call	 DWORD PTR [edx+108]

; 519  : 	p_pIGraphInfo->SetSubGraphColor( p_nSubGraphIndex, 2, color);

  00151	8b 45 0c	 mov	 eax, DWORD PTR _p_pIGraphInfo$[ebp]
  00154	8b c8		 mov	 ecx, eax
  00156	56		 push	 esi
  00157	6a 02		 push	 2
  00159	53		 push	 ebx
  0015a	8b 10		 mov	 edx, DWORD PTR [eax]
  0015c	ff 52 6c	 call	 DWORD PTR [edx+108]

; 408  : 		OnApply_downcolor( p_pIGraphInfo, p_nSubGraphIndex, pListBox->GetColor(1));

  0015f	6a 01		 push	 1
  00161	8b cf		 mov	 ecx, edi
  00163	e8 00 00 00 00	 call	 ?GetColor@CListBoxColorPickerST@@QAEKH@Z ; CListBoxColorPickerST::GetColor
  00168	8b f0		 mov	 esi, eax

; 524  : 	p_pIGraphInfo->SetSubGraphColor( p_nSubGraphIndex, 3, color);

  0016a	8b 45 0c	 mov	 eax, DWORD PTR _p_pIGraphInfo$[ebp]
  0016d	56		 push	 esi
  0016e	6a 03		 push	 3
  00170	53		 push	 ebx
  00171	8b 10		 mov	 edx, DWORD PTR [eax]
  00173	8b c8		 mov	 ecx, eax
  00175	ff 52 6c	 call	 DWORD PTR [edx+108]

; 525  : 	p_pIGraphInfo->SetSubGraphColor( p_nSubGraphIndex, 4, color);

  00178	8b 45 0c	 mov	 eax, DWORD PTR _p_pIGraphInfo$[ebp]
  0017b	8b c8		 mov	 ecx, eax
  0017d	56		 push	 esi
  0017e	6a 04		 push	 4
  00180	53		 push	 ebx
  00181	8b 10		 mov	 edx, DWORD PTR [eax]
  00183	ff 52 6c	 call	 DWORD PTR [edx+108]

; 409  : 		OnApply_equalcolor( p_pIGraphInfo, p_nSubGraphIndex, pListBox->GetColor(2));

  00186	6a 02		 push	 2
  00188	8b cf		 mov	 ecx, edi
  0018a	e8 00 00 00 00	 call	 ?GetColor@CListBoxColorPickerST@@QAEKH@Z ; CListBoxColorPickerST::GetColor

; 530  : 	p_pIGraphInfo->SetSubGraphColor( p_nSubGraphIndex, 5, color);

  0018f	8b 7d 0c	 mov	 edi, DWORD PTR _p_pIGraphInfo$[ebp]

; 409  : 		OnApply_equalcolor( p_pIGraphInfo, p_nSubGraphIndex, pListBox->GetColor(2));

  00192	8b f0		 mov	 esi, eax

; 530  : 	p_pIGraphInfo->SetSubGraphColor( p_nSubGraphIndex, 5, color);

  00194	56		 push	 esi
  00195	6a 05		 push	 5
  00197	53		 push	 ebx
  00198	8b 17		 mov	 edx, DWORD PTR [edi]
  0019a	8b cf		 mov	 ecx, edi
  0019c	ff 52 6c	 call	 DWORD PTR [edx+108]

; 410  : 	}
; 411  : }

  0019f	8b 17		 mov	 edx, DWORD PTR [edi]
  001a1	8b cf		 mov	 ecx, edi

; 531  : 	p_pIGraphInfo->SetSubGraphColor( p_nSubGraphIndex, 6, color);

  001a3	56		 push	 esi
  001a4	6a 06		 push	 6

; 410  : 	}
; 411  : }

  001a6	53		 push	 ebx
  001a7	ff 52 6c	 call	 DWORD PTR [edx+108]
$LN6@OnApply_VO:
  001aa	5f		 pop	 edi
  001ab	5e		 pop	 esi
  001ac	5b		 pop	 ebx
  001ad	8b e5		 mov	 esp, ebp
  001af	5d		 pop	 ebp
  001b0	c2 0c 00	 ret	 12			; 0000000cH
?OnApply_VOLUME@CSetItemOfColorListBox@@AAEXPAVCListBoxColorPickerST@@PAUIGraphInfo135914@@H@Z ENDP ; CSetItemOfColorListBox::OnApply_VOLUME
_TEXT	ENDS
; Function compile flags: /Ogtp
; File D:\git\src\IBK\IBK_DRFN\ProjSrc\SrcChartEx\ChartAddIn\ChartEnvSetupDlgAddIn\ChartEnvSetupDlgAddIn\SetItemOfColorListBox.cpp
;	COMDAT ?OnApply_UPDOWN@CSetItemOfColorListBox@@AAEXPAUIGraphInfo135914@@PAVCListBoxColorPickerST@@H@Z
_TEXT	SEGMENT
_p_pIGraphInfo$ = 8					; size = 4
_pListBox$ = 12						; size = 4
_p_nSubGraphIndex$ = 16					; size = 4
?OnApply_UPDOWN@CSetItemOfColorListBox@@AAEXPAUIGraphInfo135914@@PAVCListBoxColorPickerST@@H@Z PROC ; CSetItemOfColorListBox::OnApply_UPDOWN, COMDAT
; _this$ = ecx

; 414  : {

  00000	55		 push	 ebp
  00001	8b ec		 mov	 ebp, esp

; 415  : 	OnApply_upcolor( p_pIGraphInfo, p_nSubGraphIndex, pListBox->GetColor(0));

  00003	8b 4d 0c	 mov	 ecx, DWORD PTR _pListBox$[ebp]
  00006	53		 push	 ebx
  00007	56		 push	 esi
  00008	57		 push	 edi
  00009	6a 00		 push	 0
  0000b	e8 00 00 00 00	 call	 ?GetColor@CListBoxColorPickerST@@QAEKH@Z ; CListBoxColorPickerST::GetColor

; 518  : 	p_pIGraphInfo->SetSubGraphColor( p_nSubGraphIndex, 1, color);

  00010	8b 5d 10	 mov	 ebx, DWORD PTR _p_nSubGraphIndex$[ebp]

; 415  : 	OnApply_upcolor( p_pIGraphInfo, p_nSubGraphIndex, pListBox->GetColor(0));

  00013	8b f0		 mov	 esi, eax

; 518  : 	p_pIGraphInfo->SetSubGraphColor( p_nSubGraphIndex, 1, color);

  00015	8b 45 08	 mov	 eax, DWORD PTR _p_pIGraphInfo$[ebp]
  00018	8b c8		 mov	 ecx, eax
  0001a	56		 push	 esi
  0001b	6a 01		 push	 1
  0001d	53		 push	 ebx
  0001e	8b 10		 mov	 edx, DWORD PTR [eax]
  00020	ff 52 6c	 call	 DWORD PTR [edx+108]

; 519  : 	p_pIGraphInfo->SetSubGraphColor( p_nSubGraphIndex, 2, color);

  00023	8b 4d 08	 mov	 ecx, DWORD PTR _p_pIGraphInfo$[ebp]
  00026	56		 push	 esi
  00027	6a 02		 push	 2
  00029	53		 push	 ebx
  0002a	8b 01		 mov	 eax, DWORD PTR [ecx]
  0002c	ff 50 6c	 call	 DWORD PTR [eax+108]

; 416  : 	OnApply_downcolor( p_pIGraphInfo, p_nSubGraphIndex, pListBox->GetColor(1));

  0002f	8b 4d 0c	 mov	 ecx, DWORD PTR _pListBox$[ebp]
  00032	6a 01		 push	 1
  00034	e8 00 00 00 00	 call	 ?GetColor@CListBoxColorPickerST@@QAEKH@Z ; CListBoxColorPickerST::GetColor

; 524  : 	p_pIGraphInfo->SetSubGraphColor( p_nSubGraphIndex, 3, color);

  00039	8b 7d 08	 mov	 edi, DWORD PTR _p_pIGraphInfo$[ebp]

; 416  : 	OnApply_downcolor( p_pIGraphInfo, p_nSubGraphIndex, pListBox->GetColor(1));

  0003c	8b f0		 mov	 esi, eax

; 524  : 	p_pIGraphInfo->SetSubGraphColor( p_nSubGraphIndex, 3, color);

  0003e	56		 push	 esi
  0003f	6a 03		 push	 3
  00041	53		 push	 ebx
  00042	8b 17		 mov	 edx, DWORD PTR [edi]
  00044	8b cf		 mov	 ecx, edi
  00046	ff 52 6c	 call	 DWORD PTR [edx+108]

; 525  : 	p_pIGraphInfo->SetSubGraphColor( p_nSubGraphIndex, 4, color);

  00049	8b 17		 mov	 edx, DWORD PTR [edi]
  0004b	8b cf		 mov	 ecx, edi
  0004d	56		 push	 esi
  0004e	6a 04		 push	 4
  00050	53		 push	 ebx
  00051	ff 52 6c	 call	 DWORD PTR [edx+108]
  00054	5f		 pop	 edi
  00055	5e		 pop	 esi
  00056	5b		 pop	 ebx

; 417  : }

  00057	5d		 pop	 ebp
  00058	c2 0c 00	 ret	 12			; 0000000cH
?OnApply_UPDOWN@CSetItemOfColorListBox@@AAEXPAUIGraphInfo135914@@PAVCListBoxColorPickerST@@H@Z ENDP ; CSetItemOfColorListBox::OnApply_UPDOWN
_TEXT	ENDS
; Function compile flags: /Ogtp
; File D:\git\src\IBK\IBK_DRFN\ProjSrc\SrcChartEx\ChartAddIn\ChartEnvSetupDlgAddIn\ChartEnvSetupDlgAddIn\SetItemOfColorListBox.cpp
;	COMDAT ?OnApply_SUBGRAPHNAME@CSetItemOfColorListBox@@AAEXPAVCListBoxColorPickerST@@PAUIGraphInfo135914@@H@Z
_TEXT	SEGMENT
_pListBox$ = 8						; size = 4
_p_pIGraphInfo$ = 12					; size = 4
_p_nSubGraphIndex$ = 16					; size = 4
?OnApply_SUBGRAPHNAME@CSetItemOfColorListBox@@AAEXPAVCListBoxColorPickerST@@PAUIGraphInfo135914@@H@Z PROC ; CSetItemOfColorListBox::OnApply_SUBGRAPHNAME, COMDAT
; _this$ = ecx

; 420  : {

  00000	55		 push	 ebp
  00001	8b ec		 mov	 ebp, esp
  00003	53		 push	 ebx
  00004	56		 push	 esi

; 421  : 	for(int i = 0 ; i< p_pIGraphInfo->GetSubGraphCount(); i++) OnApply_upcolor( p_pIGraphInfo, i, pListBox->GetColor(i));

  00005	8b 75 0c	 mov	 esi, DWORD PTR _p_pIGraphInfo$[ebp]
  00008	33 db		 xor	 ebx, ebx
  0000a	8b ce		 mov	 ecx, esi
  0000c	8b 06		 mov	 eax, DWORD PTR [esi]
  0000e	ff 50 2c	 call	 DWORD PTR [eax+44]
  00011	85 c0		 test	 eax, eax
  00013	7e 2f		 jle	 SHORT $LN3@OnApply_SU
  00015	57		 push	 edi
$LL4@OnApply_SU:
  00016	8b 4d 08	 mov	 ecx, DWORD PTR _pListBox$[ebp]
  00019	53		 push	 ebx
  0001a	e8 00 00 00 00	 call	 ?GetColor@CListBoxColorPickerST@@QAEKH@Z ; CListBoxColorPickerST::GetColor

; 518  : 	p_pIGraphInfo->SetSubGraphColor( p_nSubGraphIndex, 1, color);

  0001f	8b 16		 mov	 edx, DWORD PTR [esi]

; 421  : 	for(int i = 0 ; i< p_pIGraphInfo->GetSubGraphCount(); i++) OnApply_upcolor( p_pIGraphInfo, i, pListBox->GetColor(i));

  00021	8b f8		 mov	 edi, eax

; 518  : 	p_pIGraphInfo->SetSubGraphColor( p_nSubGraphIndex, 1, color);

  00023	57		 push	 edi
  00024	6a 01		 push	 1
  00026	53		 push	 ebx
  00027	8b ce		 mov	 ecx, esi
  00029	ff 52 6c	 call	 DWORD PTR [edx+108]

; 519  : 	p_pIGraphInfo->SetSubGraphColor( p_nSubGraphIndex, 2, color);

  0002c	8b 16		 mov	 edx, DWORD PTR [esi]
  0002e	8b ce		 mov	 ecx, esi
  00030	57		 push	 edi
  00031	6a 02		 push	 2
  00033	53		 push	 ebx
  00034	ff 52 6c	 call	 DWORD PTR [edx+108]

; 421  : 	for(int i = 0 ; i< p_pIGraphInfo->GetSubGraphCount(); i++) OnApply_upcolor( p_pIGraphInfo, i, pListBox->GetColor(i));

  00037	8b 06		 mov	 eax, DWORD PTR [esi]
  00039	8b ce		 mov	 ecx, esi
  0003b	43		 inc	 ebx
  0003c	ff 50 2c	 call	 DWORD PTR [eax+44]
  0003f	3b d8		 cmp	 ebx, eax
  00041	7c d3		 jl	 SHORT $LL4@OnApply_SU
  00043	5f		 pop	 edi
$LN3@OnApply_SU:
  00044	5e		 pop	 esi

; 422  : }

  00045	5b		 pop	 ebx
  00046	5d		 pop	 ebp
  00047	c2 0c 00	 ret	 12			; 0000000cH
?OnApply_SUBGRAPHNAME@CSetItemOfColorListBox@@AAEXPAVCListBoxColorPickerST@@PAUIGraphInfo135914@@H@Z ENDP ; CSetItemOfColorListBox::OnApply_SUBGRAPHNAME
_TEXT	ENDS
; Function compile flags: /Ogtp
; File D:\git\src\IBK\IBK_DRFN\ProjSrc\SrcChartEx\ChartAddIn\ChartEnvSetupDlgAddIn\ChartEnvSetupDlgAddIn\SetItemOfColorListBox.cpp
;	COMDAT ?OnApply_COLOR@CSetItemOfColorListBox@@AAEXPAUIGraphInfo135914@@PAVCListBoxColorPickerST@@H@Z
_TEXT	SEGMENT
_p_pIGraphInfo$ = 8					; size = 4
_pListBox$ = 12						; size = 4
_p_nSubGraphIndex$ = 16					; size = 4
?OnApply_COLOR@CSetItemOfColorListBox@@AAEXPAUIGraphInfo135914@@PAVCListBoxColorPickerST@@H@Z PROC ; CSetItemOfColorListBox::OnApply_COLOR, COMDAT
; _this$ = ecx

; 425  : {

  00000	55		 push	 ebp
  00001	8b ec		 mov	 ebp, esp

; 426  : 	OnApply_upcolor( p_pIGraphInfo, p_nSubGraphIndex, pListBox->GetColor(0));

  00003	8b 4d 0c	 mov	 ecx, DWORD PTR _pListBox$[ebp]
  00006	53		 push	 ebx
  00007	57		 push	 edi
  00008	6a 00		 push	 0
  0000a	e8 00 00 00 00	 call	 ?GetColor@CListBoxColorPickerST@@QAEKH@Z ; CListBoxColorPickerST::GetColor

; 518  : 	p_pIGraphInfo->SetSubGraphColor( p_nSubGraphIndex, 1, color);

  0000f	8b 5d 08	 mov	 ebx, DWORD PTR _p_pIGraphInfo$[ebp]

; 426  : 	OnApply_upcolor( p_pIGraphInfo, p_nSubGraphIndex, pListBox->GetColor(0));

  00012	8b f8		 mov	 edi, eax

; 518  : 	p_pIGraphInfo->SetSubGraphColor( p_nSubGraphIndex, 1, color);

  00014	57		 push	 edi
  00015	6a 01		 push	 1
  00017	ff 75 10	 push	 DWORD PTR _p_nSubGraphIndex$[ebp]
  0001a	8b 13		 mov	 edx, DWORD PTR [ebx]
  0001c	8b cb		 mov	 ecx, ebx
  0001e	ff 52 6c	 call	 DWORD PTR [edx+108]

; 519  : 	p_pIGraphInfo->SetSubGraphColor( p_nSubGraphIndex, 2, color);

  00021	8b 03		 mov	 eax, DWORD PTR [ebx]
  00023	8b cb		 mov	 ecx, ebx
  00025	57		 push	 edi
  00026	6a 02		 push	 2
  00028	ff 75 10	 push	 DWORD PTR _p_nSubGraphIndex$[ebp]
  0002b	ff 50 6c	 call	 DWORD PTR [eax+108]
  0002e	5f		 pop	 edi
  0002f	5b		 pop	 ebx

; 427  : }

  00030	5d		 pop	 ebp
  00031	c2 0c 00	 ret	 12			; 0000000cH
?OnApply_COLOR@CSetItemOfColorListBox@@AAEXPAUIGraphInfo135914@@PAVCListBoxColorPickerST@@H@Z ENDP ; CSetItemOfColorListBox::OnApply_COLOR
_TEXT	ENDS
; Function compile flags: /Ogtp
; File D:\git\src\IBK\IBK_DRFN\ProjSrc\SrcChartEx\ChartAddIn\ChartEnvSetupDlgAddIn\ChartEnvSetupDlgAddIn\SetItemOfColorListBox.cpp
;	COMDAT ?OnApply_RAINBOW@CSetItemOfColorListBox@@AAEXPAVCListBoxColorPickerST@@PAUIGraphInfo135914@@H@Z
_TEXT	SEGMENT
_pListBox$ = 8						; size = 4
_p_pIGraphInfo$ = 12					; size = 4
_p_nSubGraphIndex$ = 16					; size = 4
?OnApply_RAINBOW@CSetItemOfColorListBox@@AAEXPAVCListBoxColorPickerST@@PAUIGraphInfo135914@@H@Z PROC ; CSetItemOfColorListBox::OnApply_RAINBOW, COMDAT
; _this$ = ecx

; 430  : {

  00000	55		 push	 ebp
  00001	8b ec		 mov	 ebp, esp

; 431  : 	p_pIGraphInfo->SetSubGraphColor( p_nSubGraphIndex, 1, pListBox->GetColor( 0));

  00003	8b 4d 08	 mov	 ecx, DWORD PTR _pListBox$[ebp]
  00006	56		 push	 esi
  00007	8b 75 0c	 mov	 esi, DWORD PTR _p_pIGraphInfo$[ebp]
  0000a	6a 00		 push	 0
  0000c	8b 36		 mov	 esi, DWORD PTR [esi]
  0000e	e8 00 00 00 00	 call	 ?GetColor@CListBoxColorPickerST@@QAEKH@Z ; CListBoxColorPickerST::GetColor
  00013	8b 4d 0c	 mov	 ecx, DWORD PTR _p_pIGraphInfo$[ebp]
  00016	50		 push	 eax
  00017	6a 01		 push	 1
  00019	ff 75 10	 push	 DWORD PTR _p_nSubGraphIndex$[ebp]
  0001c	ff 56 6c	 call	 DWORD PTR [esi+108]

; 432  : 	p_pIGraphInfo->SetSubGraphColor( p_nSubGraphIndex, 2, pListBox->GetColor( 1));

  0001f	8b 45 0c	 mov	 eax, DWORD PTR _p_pIGraphInfo$[ebp]
  00022	8b 4d 08	 mov	 ecx, DWORD PTR _pListBox$[ebp]
  00025	6a 01		 push	 1
  00027	8b 30		 mov	 esi, DWORD PTR [eax]
  00029	e8 00 00 00 00	 call	 ?GetColor@CListBoxColorPickerST@@QAEKH@Z ; CListBoxColorPickerST::GetColor
  0002e	8b 4d 0c	 mov	 ecx, DWORD PTR _p_pIGraphInfo$[ebp]
  00031	50		 push	 eax
  00032	6a 02		 push	 2
  00034	ff 75 10	 push	 DWORD PTR _p_nSubGraphIndex$[ebp]
  00037	ff 56 6c	 call	 DWORD PTR [esi+108]
  0003a	5e		 pop	 esi

; 433  : }

  0003b	5d		 pop	 ebp
  0003c	c2 0c 00	 ret	 12			; 0000000cH
?OnApply_RAINBOW@CSetItemOfColorListBox@@AAEXPAVCListBoxColorPickerST@@PAUIGraphInfo135914@@H@Z ENDP ; CSetItemOfColorListBox::OnApply_RAINBOW
_TEXT	ENDS
; Function compile flags: /Ogtp
; File D:\git\src\IBK\IBK_DRFN\ProjSrc\SrcChartEx\ChartAddIn\ChartEnvSetupDlgAddIn\ChartEnvSetupDlgAddIn\SetItemOfColorListBox.cpp
;	COMDAT ?OnApply_SUB_UPFILL_DOWNFILL@CSetItemOfColorListBox@@AAEXPAUIGraphInfo135914@@PAVCListBoxColorPickerST@@H@Z
_TEXT	SEGMENT
_p_pIGraphInfo$ = 8					; size = 4
_pListBox$ = 12						; size = 4
_p_nSubGraphIndex$ = 16					; size = 4
?OnApply_SUB_UPFILL_DOWNFILL@CSetItemOfColorListBox@@AAEXPAUIGraphInfo135914@@PAVCListBoxColorPickerST@@H@Z PROC ; CSetItemOfColorListBox::OnApply_SUB_UPFILL_DOWNFILL, COMDAT
; _this$ = ecx

; 436  : {

  00000	55		 push	 ebp
  00001	8b ec		 mov	 ebp, esp
  00003	53		 push	 ebx
  00004	56		 push	 esi

; 437  : 	p_pIGraphInfo->SetSubGraphColor( p_nSubGraphIndex, 5, pListBox->GetColor( 0));

  00005	8b 75 08	 mov	 esi, DWORD PTR _p_pIGraphInfo$[ebp]
  00008	57		 push	 edi
  00009	8b 7d 0c	 mov	 edi, DWORD PTR _pListBox$[ebp]
  0000c	8b cf		 mov	 ecx, edi
  0000e	6a 00		 push	 0
  00010	8b 36		 mov	 esi, DWORD PTR [esi]
  00012	e8 00 00 00 00	 call	 ?GetColor@CListBoxColorPickerST@@QAEKH@Z ; CListBoxColorPickerST::GetColor
  00017	8b 5d 10	 mov	 ebx, DWORD PTR _p_nSubGraphIndex$[ebp]
  0001a	8b 4d 08	 mov	 ecx, DWORD PTR _p_pIGraphInfo$[ebp]
  0001d	50		 push	 eax
  0001e	6a 05		 push	 5
  00020	53		 push	 ebx
  00021	ff 56 6c	 call	 DWORD PTR [esi+108]

; 438  : 	OnApply_upcolor(	p_pIGraphInfo, p_nSubGraphIndex, pListBox->GetColor( 1));

  00024	6a 01		 push	 1
  00026	8b cf		 mov	 ecx, edi
  00028	e8 00 00 00 00	 call	 ?GetColor@CListBoxColorPickerST@@QAEKH@Z ; CListBoxColorPickerST::GetColor
  0002d	8b f0		 mov	 esi, eax

; 518  : 	p_pIGraphInfo->SetSubGraphColor( p_nSubGraphIndex, 1, color);

  0002f	8b 45 08	 mov	 eax, DWORD PTR _p_pIGraphInfo$[ebp]
  00032	56		 push	 esi
  00033	6a 01		 push	 1
  00035	53		 push	 ebx
  00036	8b 10		 mov	 edx, DWORD PTR [eax]
  00038	8b c8		 mov	 ecx, eax
  0003a	ff 52 6c	 call	 DWORD PTR [edx+108]

; 519  : 	p_pIGraphInfo->SetSubGraphColor( p_nSubGraphIndex, 2, color);

  0003d	8b 45 08	 mov	 eax, DWORD PTR _p_pIGraphInfo$[ebp]
  00040	8b c8		 mov	 ecx, eax
  00042	56		 push	 esi
  00043	6a 02		 push	 2
  00045	53		 push	 ebx
  00046	8b 10		 mov	 edx, DWORD PTR [eax]
  00048	ff 52 6c	 call	 DWORD PTR [edx+108]

; 439  : 	OnApply_downcolor(	p_pIGraphInfo, p_nSubGraphIndex, pListBox->GetColor( 2));

  0004b	6a 02		 push	 2
  0004d	8b cf		 mov	 ecx, edi
  0004f	e8 00 00 00 00	 call	 ?GetColor@CListBoxColorPickerST@@QAEKH@Z ; CListBoxColorPickerST::GetColor

; 524  : 	p_pIGraphInfo->SetSubGraphColor( p_nSubGraphIndex, 3, color);

  00054	8b 7d 08	 mov	 edi, DWORD PTR _p_pIGraphInfo$[ebp]

; 439  : 	OnApply_downcolor(	p_pIGraphInfo, p_nSubGraphIndex, pListBox->GetColor( 2));

  00057	8b f0		 mov	 esi, eax

; 524  : 	p_pIGraphInfo->SetSubGraphColor( p_nSubGraphIndex, 3, color);

  00059	56		 push	 esi
  0005a	6a 03		 push	 3
  0005c	53		 push	 ebx
  0005d	8b 17		 mov	 edx, DWORD PTR [edi]
  0005f	8b cf		 mov	 ecx, edi
  00061	ff 52 6c	 call	 DWORD PTR [edx+108]

; 525  : 	p_pIGraphInfo->SetSubGraphColor( p_nSubGraphIndex, 4, color);

  00064	8b 17		 mov	 edx, DWORD PTR [edi]
  00066	8b cf		 mov	 ecx, edi
  00068	56		 push	 esi
  00069	6a 04		 push	 4
  0006b	53		 push	 ebx
  0006c	ff 52 6c	 call	 DWORD PTR [edx+108]
  0006f	5f		 pop	 edi
  00070	5e		 pop	 esi
  00071	5b		 pop	 ebx

; 440  : }

  00072	5d		 pop	 ebp
  00073	c2 0c 00	 ret	 12			; 0000000cH
?OnApply_SUB_UPFILL_DOWNFILL@CSetItemOfColorListBox@@AAEXPAUIGraphInfo135914@@PAVCListBoxColorPickerST@@H@Z ENDP ; CSetItemOfColorListBox::OnApply_SUB_UPFILL_DOWNFILL
_TEXT	ENDS
; Function compile flags: /Ogtp
; File D:\git\src\IBK\IBK_DRFN\ProjSrc\SrcChartEx\ChartAddIn\ChartEnvSetupDlgAddIn\ChartEnvSetupDlgAddIn\SetItemOfColorListBox.cpp
; File D:\git\src\IBK\IBK_DRFN\ProjSrc\SrcChartEx\ChartAddIn\ChartEnvSetupDlgAddIn\Include_AddIn_135914\I135914\_IString.h
; File D:\git\src\IBK\IBK_DRFN\ProjSrc\SrcChartEx\ChartAddIn\ChartEnvSetupDlgAddIn\ChartEnvSetupDlgAddIn\SetItemOfColorListBox.cpp
; File D:\git\src\IBK\IBK_DRFN\ProjSrc\SrcChartEx\ChartAddIn\ChartEnvSetupDlgAddIn\Include_AddIn_135914\I135914\_IString.h
; File D:\git\src\IBK\IBK_DRFN\ProjSrc\SrcChartEx\ChartAddIn\ChartEnvSetupDlgAddIn\ChartEnvSetupDlgAddIn\SetItemOfColorListBox.cpp
; File D:\git\src\IBK\IBK_DRFN\ProjSrc\SrcChartEx\ChartAddIn\ChartEnvSetupDlgAddIn\Include_AddIn_135914\I135914\_IString.h
; File D:\git\src\IBK\IBK_DRFN\ProjSrc\SrcChartEx\ChartAddIn\ChartEnvSetupDlgAddIn\ChartEnvSetupDlgAddIn\SetItemOfColorListBox.cpp
;	COMDAT ?OnApply_GLANCEBLANCE@CSetItemOfColorListBox@@AAEXPAVCListBoxColorPickerST@@PAUIGraphInfo135914@@H@Z
_TEXT	SEGMENT
_szSubGraphName$ = -24					; size = 8
_i$1$ = -16						; size = 4
__$EHRec$ = -12						; size = 12
_pListBox$ = 8						; size = 4
_p_pIGraphInfo$ = 12					; size = 4
_p_nSubGraphIndex$ = 16					; size = 4
?OnApply_GLANCEBLANCE@CSetItemOfColorListBox@@AAEXPAVCListBoxColorPickerST@@PAUIGraphInfo135914@@H@Z PROC ; CSetItemOfColorListBox::OnApply_GLANCEBLANCE, COMDAT
; _this$ = ecx

; 471  : {

  00000	55		 push	 ebp
  00001	8b ec		 mov	 ebp, esp
  00003	6a ff		 push	 -1
  00005	68 00 00 00 00	 push	 __ehhandler$?OnApply_GLANCEBLANCE@CSetItemOfColorListBox@@AAEXPAVCListBoxColorPickerST@@PAUIGraphInfo135914@@H@Z
  0000a	64 a1 00 00 00
	00		 mov	 eax, DWORD PTR fs:0
  00010	50		 push	 eax
  00011	83 ec 0c	 sub	 esp, 12			; 0000000cH
  00014	53		 push	 ebx
  00015	56		 push	 esi
  00016	57		 push	 edi
  00017	a1 00 00 00 00	 mov	 eax, DWORD PTR ___security_cookie
  0001c	33 c5		 xor	 eax, ebp
  0001e	50		 push	 eax
  0001f	8d 45 f4	 lea	 eax, DWORD PTR __$EHRec$[ebp]
  00022	64 a3 00 00 00
	00		 mov	 DWORD PTR fs:0, eax
; File D:\git\src\IBK\IBK_DRFN\ProjSrc\SrcChartEx\ChartAddIn\ChartEnvSetupDlgAddIn\Include_AddIn_135914\I135914\_IString.h

; 39   : 		m_pIStrData = p_pIString;	// Do not AddRef(). Because It must be Return Value.

  00028	33 f6		 xor	 esi, esi
  0002a	89 75 ec	 mov	 DWORD PTR _szSubGraphName$[ebp+4], esi

; 40   : 		if( m_pIStrData) m_szData = m_pIStrData->GetData();
; 41   : 		else m_szData = NULL;

  0002d	89 75 e8	 mov	 DWORD PTR _szSubGraphName$[ebp], esi
; File D:\git\src\IBK\IBK_DRFN\ProjSrc\SrcChartEx\ChartAddIn\ChartEnvSetupDlgAddIn\ChartEnvSetupDlgAddIn\SetItemOfColorListBox.cpp

; 473  : 	for(int i = 0 ; i< p_pIGraphInfo->GetSubGraphCount() ; i++)

  00030	8b 5d 0c	 mov	 ebx, DWORD PTR _p_pIGraphInfo$[ebp]
  00033	33 ff		 xor	 edi, edi
  00035	8b cb		 mov	 ecx, ebx
  00037	89 75 fc	 mov	 DWORD PTR __$EHRec$[ebp+8], esi
  0003a	89 7d f0	 mov	 DWORD PTR _i$1$[ebp], edi
  0003d	8b 03		 mov	 eax, DWORD PTR [ebx]
  0003f	ff 50 2c	 call	 DWORD PTR [eax+44]
  00042	85 c0		 test	 eax, eax
  00044	0f 8e c3 00 00
	00		 jle	 $LN3@OnApply_GL
  0004a	66 0f 1f 44 00
	00		 npad	 6
$LL4@OnApply_GL:

; 474  : 	{
; 475  : 		szSubGraphName = p_pIGraphInfo->GetSubGraphNameString( i);

  00050	8b 03		 mov	 eax, DWORD PTR [ebx]
  00052	8b cb		 mov	 ecx, ebx
  00054	57		 push	 edi
  00055	ff 50 3c	 call	 DWORD PTR [eax+60]
  00058	8b f8		 mov	 edi, eax
; File D:\git\src\IBK\IBK_DRFN\ProjSrc\SrcChartEx\ChartAddIn\ChartEnvSetupDlgAddIn\Include_AddIn_135914\I135914\_IString.h

; 67   : 		if( m_pIStrData) m_pIStrData->Release();

  0005a	85 f6		 test	 esi, esi
  0005c	74 06		 je	 SHORT $LN13@OnApply_GL
  0005e	8b 0e		 mov	 ecx, DWORD PTR [esi]
  00060	56		 push	 esi
  00061	ff 51 08	 call	 DWORD PTR [ecx+8]
$LN13@OnApply_GL:

; 68   : 		m_pIStrData = stringSrc;	// Do not AddRef(). Because It must be Return Value.

  00064	89 7d ec	 mov	 DWORD PTR _szSubGraphName$[ebp+4], edi
  00067	85 ff		 test	 edi, edi

; 69   : 		if( m_pIStrData) m_szData = m_pIStrData->GetData();

  00069	74 0b		 je	 SHORT $LN14@OnApply_GL
  0006b	8b 07		 mov	 eax, DWORD PTR [edi]
  0006d	8b cf		 mov	 ecx, edi
  0006f	ff 50 10	 call	 DWORD PTR [eax+16]
  00072	8b f8		 mov	 edi, eax
  00074	eb 02		 jmp	 SHORT $LN35@OnApply_GL
$LN14@OnApply_GL:

; 70   : 		else m_szData = NULL;

  00076	33 ff		 xor	 edi, edi
$LN35@OnApply_GL:
; File D:\git\src\IBK\IBK_DRFN\ProjSrc\SrcChartEx\ChartAddIn\ChartEnvSetupDlgAddIn\ChartEnvSetupDlgAddIn\SetItemOfColorListBox.cpp

; 476  : 		OnApply_upcolor( p_pIGraphInfo, i, pListBox->GetColor(i));

  00078	ff 75 f0	 push	 DWORD PTR _i$1$[ebp]
  0007b	8b 4d 08	 mov	 ecx, DWORD PTR _pListBox$[ebp]
  0007e	89 7d e8	 mov	 DWORD PTR _szSubGraphName$[ebp], edi
  00081	e8 00 00 00 00	 call	 ?GetColor@CListBoxColorPickerST@@QAEKH@Z ; CListBoxColorPickerST::GetColor

; 518  : 	p_pIGraphInfo->SetSubGraphColor( p_nSubGraphIndex, 1, color);

  00086	8b 13		 mov	 edx, DWORD PTR [ebx]

; 476  : 		OnApply_upcolor( p_pIGraphInfo, i, pListBox->GetColor(i));

  00088	8b f0		 mov	 esi, eax

; 518  : 	p_pIGraphInfo->SetSubGraphColor( p_nSubGraphIndex, 1, color);

  0008a	56		 push	 esi
  0008b	6a 01		 push	 1
  0008d	ff 75 f0	 push	 DWORD PTR _i$1$[ebp]
  00090	8b cb		 mov	 ecx, ebx
  00092	ff 52 6c	 call	 DWORD PTR [edx+108]

; 519  : 	p_pIGraphInfo->SetSubGraphColor( p_nSubGraphIndex, 2, color);

  00095	8b 13		 mov	 edx, DWORD PTR [ebx]
  00097	8b cb		 mov	 ecx, ebx
  00099	56		 push	 esi
  0009a	6a 02		 push	 2
  0009c	ff 75 f0	 push	 DWORD PTR _i$1$[ebp]
  0009f	ff 52 6c	 call	 DWORD PTR [edx+108]

; 477  : 		if( !strcmp( szSubGraphName, "선행스팬")) OnApply_downcolor( p_pIGraphInfo, i, pListBox->GetColor(i+1));

  000a2	b8 00 00 00 00	 mov	 eax, OFFSET ??_C@_08OLAJLFC@?$LM?$LB?G?$OA?$LN?$LK?F?R@
$LL29@OnApply_GL:
  000a7	8a 0f		 mov	 cl, BYTE PTR [edi]
  000a9	3a 08		 cmp	 cl, BYTE PTR [eax]
  000ab	75 1a		 jne	 SHORT $LN30@OnApply_GL
  000ad	84 c9		 test	 cl, cl
  000af	74 12		 je	 SHORT $LN31@OnApply_GL
  000b1	8a 4f 01	 mov	 cl, BYTE PTR [edi+1]
  000b4	3a 48 01	 cmp	 cl, BYTE PTR [eax+1]
  000b7	75 0e		 jne	 SHORT $LN30@OnApply_GL
  000b9	83 c7 02	 add	 edi, 2
  000bc	83 c0 02	 add	 eax, 2
  000bf	84 c9		 test	 cl, cl
  000c1	75 e4		 jne	 SHORT $LL29@OnApply_GL
$LN31@OnApply_GL:
  000c3	33 c0		 xor	 eax, eax
  000c5	eb 05		 jmp	 SHORT $LN32@OnApply_GL
$LN30@OnApply_GL:
  000c7	1b c0		 sbb	 eax, eax
  000c9	83 c8 01	 or	 eax, 1
$LN32@OnApply_GL:
  000cc	8b 7d f0	 mov	 edi, DWORD PTR _i$1$[ebp]
  000cf	85 c0		 test	 eax, eax
  000d1	75 24		 jne	 SHORT $LN2@OnApply_GL
  000d3	8b 4d 08	 mov	 ecx, DWORD PTR _pListBox$[ebp]
  000d6	8d 47 01	 lea	 eax, DWORD PTR [edi+1]
  000d9	50		 push	 eax
  000da	e8 00 00 00 00	 call	 ?GetColor@CListBoxColorPickerST@@QAEKH@Z ; CListBoxColorPickerST::GetColor

; 524  : 	p_pIGraphInfo->SetSubGraphColor( p_nSubGraphIndex, 3, color);

  000df	8b 13		 mov	 edx, DWORD PTR [ebx]

; 477  : 		if( !strcmp( szSubGraphName, "선행스팬")) OnApply_downcolor( p_pIGraphInfo, i, pListBox->GetColor(i+1));

  000e1	8b f0		 mov	 esi, eax

; 524  : 	p_pIGraphInfo->SetSubGraphColor( p_nSubGraphIndex, 3, color);

  000e3	56		 push	 esi
  000e4	6a 03		 push	 3
  000e6	57		 push	 edi
  000e7	8b cb		 mov	 ecx, ebx
  000e9	ff 52 6c	 call	 DWORD PTR [edx+108]

; 525  : 	p_pIGraphInfo->SetSubGraphColor( p_nSubGraphIndex, 4, color);

  000ec	8b 13		 mov	 edx, DWORD PTR [ebx]
  000ee	8b cb		 mov	 ecx, ebx
  000f0	56		 push	 esi
  000f1	6a 04		 push	 4
  000f3	57		 push	 edi
  000f4	ff 52 6c	 call	 DWORD PTR [edx+108]
$LN2@OnApply_GL:

; 473  : 	for(int i = 0 ; i< p_pIGraphInfo->GetSubGraphCount() ; i++)

  000f7	8b 03		 mov	 eax, DWORD PTR [ebx]
  000f9	47		 inc	 edi
  000fa	8b cb		 mov	 ecx, ebx
  000fc	89 7d f0	 mov	 DWORD PTR _i$1$[ebp], edi
  000ff	ff 50 2c	 call	 DWORD PTR [eax+44]
  00102	8b 75 ec	 mov	 esi, DWORD PTR _szSubGraphName$[ebp+4]
  00105	3b f8		 cmp	 edi, eax
  00107	0f 8c 43 ff ff
	ff		 jl	 $LL4@OnApply_GL
$LN3@OnApply_GL:
; File D:\git\src\IBK\IBK_DRFN\ProjSrc\SrcChartEx\ChartAddIn\ChartEnvSetupDlgAddIn\Include_AddIn_135914\I135914\_IString.h

; 44   : 	{

  0010d	c7 45 fc 01 00
	00 00		 mov	 DWORD PTR __$EHRec$[ebp+8], 1

; 45   : 		if( m_pIStrData)

  00114	85 f6		 test	 esi, esi
  00116	74 06		 je	 SHORT $LN22@OnApply_GL

; 46   : 		{
; 47   : 			m_pIStrData->Release();

  00118	8b 06		 mov	 eax, DWORD PTR [esi]
  0011a	56		 push	 esi
  0011b	ff 50 08	 call	 DWORD PTR [eax+8]
$LN22@OnApply_GL:
; File D:\git\src\IBK\IBK_DRFN\ProjSrc\SrcChartEx\ChartAddIn\ChartEnvSetupDlgAddIn\ChartEnvSetupDlgAddIn\SetItemOfColorListBox.cpp

; 498  : }

  0011e	8b 4d f4	 mov	 ecx, DWORD PTR __$EHRec$[ebp]
  00121	64 89 0d 00 00
	00 00		 mov	 DWORD PTR fs:0, ecx
  00128	59		 pop	 ecx
  00129	5f		 pop	 edi
  0012a	5e		 pop	 esi
  0012b	5b		 pop	 ebx
  0012c	8b e5		 mov	 esp, ebp
  0012e	5d		 pop	 ebp
  0012f	c2 0c 00	 ret	 12			; 0000000cH
_TEXT	ENDS
;	COMDAT text$x
text$x	SEGMENT
__unwindfunclet$?OnApply_GLANCEBLANCE@CSetItemOfColorListBox@@AAEXPAVCListBoxColorPickerST@@PAUIGraphInfo135914@@H@Z$0:
  00000	8d 4d e8	 lea	 ecx, DWORD PTR _szSubGraphName$[ebp]
  00003	e9 00 00 00 00	 jmp	 ??1ILPCSTR135914@@QAE@XZ ; ILPCSTR135914::~ILPCSTR135914
  00008	cc		 int	 3
  00009	cc		 int	 3
  0000a	cc		 int	 3
  0000b	cc		 int	 3
  0000c	cc		 int	 3
__ehhandler$?OnApply_GLANCEBLANCE@CSetItemOfColorListBox@@AAEXPAVCListBoxColorPickerST@@PAUIGraphInfo135914@@H@Z:
  0000d	90		 npad	 1
  0000e	90		 npad	 1
  0000f	8b 54 24 08	 mov	 edx, DWORD PTR [esp+8]
  00013	8d 42 0c	 lea	 eax, DWORD PTR [edx+12]
  00016	8b 4a e4	 mov	 ecx, DWORD PTR [edx-28]
  00019	33 c8		 xor	 ecx, eax
  0001b	e8 00 00 00 00	 call	 @__security_check_cookie@4
  00020	b8 00 00 00 00	 mov	 eax, OFFSET __ehfuncinfo$?OnApply_GLANCEBLANCE@CSetItemOfColorListBox@@AAEXPAVCListBoxColorPickerST@@PAUIGraphInfo135914@@H@Z
  00025	e9 00 00 00 00	 jmp	 ___CxxFrameHandler3
text$x	ENDS
?OnApply_GLANCEBLANCE@CSetItemOfColorListBox@@AAEXPAVCListBoxColorPickerST@@PAUIGraphInfo135914@@H@Z ENDP ; CSetItemOfColorListBox::OnApply_GLANCEBLANCE
; Function compile flags: /Ogtp
; File D:\git\src\IBK\IBK_DRFN\ProjSrc\SrcChartEx\ChartAddIn\ChartEnvSetupDlgAddIn\ChartEnvSetupDlgAddIn\SetItemOfColorListBox.cpp
; File D:\git\src\IBK\IBK_DRFN\ProjSrc\SrcChartEx\ChartAddIn\ChartEnvSetupDlgAddIn\Include_AddIn_135914\I135914\_IString.h
; File D:\git\src\IBK\IBK_DRFN\ProjSrc\SrcChartEx\ChartAddIn\ChartEnvSetupDlgAddIn\ChartEnvSetupDlgAddIn\SetItemOfColorListBox.cpp
; File D:\git\src\IBK\IBK_DRFN\ProjSrc\SrcChartEx\ChartAddIn\ChartEnvSetupDlgAddIn\Include_AddIn_135914\I135914\_IString.h
; File D:\git\src\IBK\IBK_DRFN\ProjSrc\SrcChartEx\ChartAddIn\ChartEnvSetupDlgAddIn\ChartEnvSetupDlgAddIn\SetItemOfColorListBox.cpp
;	COMDAT ?OnApply_DAEGIMEMUL@CSetItemOfColorListBox@@AAEXPAVCListBoxColorPickerST@@PAUIGraphInfo135914@@H@Z
_TEXT	SEGMENT
_szSubGraphName$ = -20					; size = 8
__$EHRec$ = -12						; size = 12
_pListBox$ = 8						; size = 4
_p_pIGraphInfo$ = 12					; size = 4
_p_nSubGraphIndex$ = 16					; size = 4
?OnApply_DAEGIMEMUL@CSetItemOfColorListBox@@AAEXPAVCListBoxColorPickerST@@PAUIGraphInfo135914@@H@Z PROC ; CSetItemOfColorListBox::OnApply_DAEGIMEMUL, COMDAT
; _this$ = ecx

; 535  : {

  00000	55		 push	 ebp
  00001	8b ec		 mov	 ebp, esp
  00003	6a ff		 push	 -1
  00005	68 00 00 00 00	 push	 __ehhandler$?OnApply_DAEGIMEMUL@CSetItemOfColorListBox@@AAEXPAVCListBoxColorPickerST@@PAUIGraphInfo135914@@H@Z
  0000a	64 a1 00 00 00
	00		 mov	 eax, DWORD PTR fs:0
  00010	50		 push	 eax
  00011	83 ec 08	 sub	 esp, 8
  00014	53		 push	 ebx
  00015	56		 push	 esi
  00016	57		 push	 edi
  00017	a1 00 00 00 00	 mov	 eax, DWORD PTR ___security_cookie
  0001c	33 c5		 xor	 eax, ebp
  0001e	50		 push	 eax
  0001f	8d 45 f4	 lea	 eax, DWORD PTR __$EHRec$[ebp]
  00022	64 a3 00 00 00
	00		 mov	 DWORD PTR fs:0, eax

; 536  : 	ILPCSTR szSubGraphName = p_pIGraphInfo->GetSubGraphNameString( p_nSubGraphIndex);

  00028	8b 75 0c	 mov	 esi, DWORD PTR _p_pIGraphInfo$[ebp]
  0002b	8b ce		 mov	 ecx, esi
  0002d	ff 75 10	 push	 DWORD PTR _p_nSubGraphIndex$[ebp]
  00030	8b 06		 mov	 eax, DWORD PTR [esi]
  00032	ff 50 3c	 call	 DWORD PTR [eax+60]
; File D:\git\src\IBK\IBK_DRFN\ProjSrc\SrcChartEx\ChartAddIn\ChartEnvSetupDlgAddIn\Include_AddIn_135914\I135914\_IString.h

; 39   : 		m_pIStrData = p_pIString;	// Do not AddRef(). Because It must be Return Value.

  00035	8b d8		 mov	 ebx, eax
  00037	89 5d f0	 mov	 DWORD PTR _szSubGraphName$[ebp+4], ebx

; 40   : 		if( m_pIStrData) m_szData = m_pIStrData->GetData();

  0003a	85 db		 test	 ebx, ebx
  0003c	74 0b		 je	 SHORT $LN6@OnApply_DA
  0003e	8b 13		 mov	 edx, DWORD PTR [ebx]
  00040	8b cb		 mov	 ecx, ebx
  00042	ff 52 10	 call	 DWORD PTR [edx+16]
  00045	8b c8		 mov	 ecx, eax
  00047	eb 02		 jmp	 SHORT $LN18@OnApply_DA
$LN6@OnApply_DA:

; 41   : 		else m_szData = NULL;

  00049	33 c9		 xor	 ecx, ecx
$LN18@OnApply_DA:
; File D:\git\src\IBK\IBK_DRFN\ProjSrc\SrcChartEx\ChartAddIn\ChartEnvSetupDlgAddIn\ChartEnvSetupDlgAddIn\SetItemOfColorListBox.cpp

; 536  : 	ILPCSTR szSubGraphName = p_pIGraphInfo->GetSubGraphNameString( p_nSubGraphIndex);

  0004b	89 4d ec	 mov	 DWORD PTR _szSubGraphName$[ebp], ecx

; 537  : 	if( !strcmp( szSubGraphName, _MTEXT( C3_OVERHANGING_SUPPLY)))

  0004e	a1 54 00 00 00	 mov	 eax, DWORD PTR ?g_iMetaTable@@3VIMetaTable@@A+84
  00053	c7 45 fc 00 00
	00 00		 mov	 DWORD PTR __$EHRec$[ebp+8], 0
  0005a	8b 80 bc 04 00
	00		 mov	 eax, DWORD PTR [eax+1212]
$LL13@OnApply_DA:
  00060	8a 11		 mov	 dl, BYTE PTR [ecx]
  00062	3a 10		 cmp	 dl, BYTE PTR [eax]
  00064	75 1a		 jne	 SHORT $LN14@OnApply_DA
  00066	84 d2		 test	 dl, dl
  00068	74 12		 je	 SHORT $LN15@OnApply_DA
  0006a	8a 51 01	 mov	 dl, BYTE PTR [ecx+1]
  0006d	3a 50 01	 cmp	 dl, BYTE PTR [eax+1]
  00070	75 0e		 jne	 SHORT $LN14@OnApply_DA
  00072	83 c1 02	 add	 ecx, 2
  00075	83 c0 02	 add	 eax, 2
  00078	84 d2		 test	 dl, dl
  0007a	75 e4		 jne	 SHORT $LL13@OnApply_DA
$LN15@OnApply_DA:
  0007c	33 c0		 xor	 eax, eax
  0007e	eb 05		 jmp	 SHORT $LN16@OnApply_DA
$LN14@OnApply_DA:
  00080	1b c0		 sbb	 eax, eax
  00082	83 c8 01	 or	 eax, 1
$LN16@OnApply_DA:
  00085	85 c0		 test	 eax, eax
  00087	75 4a		 jne	 SHORT $LN2@OnApply_DA

; 538  : 		p_pIGraphInfo->SetSubGraphColor( p_nSubGraphIndex, pListBox->GetColor(0), pListBox->GetColor(1), pListBox->GetColor(2), pListBox->GetColor(3),

  00089	8b 3e		 mov	 edi, DWORD PTR [esi]
  0008b	8b 75 08	 mov	 esi, DWORD PTR _pListBox$[ebp]
  0008e	8b ce		 mov	 ecx, esi
  00090	6a 05		 push	 5
  00092	e8 00 00 00 00	 call	 ?GetColor@CListBoxColorPickerST@@QAEKH@Z ; CListBoxColorPickerST::GetColor
  00097	50		 push	 eax
  00098	6a 04		 push	 4
  0009a	8b ce		 mov	 ecx, esi
  0009c	e8 00 00 00 00	 call	 ?GetColor@CListBoxColorPickerST@@QAEKH@Z ; CListBoxColorPickerST::GetColor
  000a1	50		 push	 eax
  000a2	6a 03		 push	 3
  000a4	8b ce		 mov	 ecx, esi
  000a6	e8 00 00 00 00	 call	 ?GetColor@CListBoxColorPickerST@@QAEKH@Z ; CListBoxColorPickerST::GetColor
  000ab	50		 push	 eax
  000ac	6a 02		 push	 2
  000ae	8b ce		 mov	 ecx, esi
  000b0	e8 00 00 00 00	 call	 ?GetColor@CListBoxColorPickerST@@QAEKH@Z ; CListBoxColorPickerST::GetColor
  000b5	50		 push	 eax
  000b6	6a 01		 push	 1
  000b8	8b ce		 mov	 ecx, esi
  000ba	e8 00 00 00 00	 call	 ?GetColor@CListBoxColorPickerST@@QAEKH@Z ; CListBoxColorPickerST::GetColor
  000bf	50		 push	 eax
  000c0	6a 00		 push	 0
  000c2	8b ce		 mov	 ecx, esi
  000c4	e8 00 00 00 00	 call	 ?GetColor@CListBoxColorPickerST@@QAEKH@Z ; CListBoxColorPickerST::GetColor
  000c9	8b 4d 0c	 mov	 ecx, DWORD PTR _p_pIGraphInfo$[ebp]
  000cc	50		 push	 eax
  000cd	ff 75 10	 push	 DWORD PTR _p_nSubGraphIndex$[ebp]
  000d0	ff 57 68	 call	 DWORD PTR [edi+104]
$LN2@OnApply_DA:
; File D:\git\src\IBK\IBK_DRFN\ProjSrc\SrcChartEx\ChartAddIn\ChartEnvSetupDlgAddIn\Include_AddIn_135914\I135914\_IString.h

; 44   : 	{

  000d3	c7 45 fc 01 00
	00 00		 mov	 DWORD PTR __$EHRec$[ebp+8], 1

; 45   : 		if( m_pIStrData)

  000da	85 db		 test	 ebx, ebx
  000dc	74 06		 je	 SHORT $LN10@OnApply_DA

; 46   : 		{
; 47   : 			m_pIStrData->Release();

  000de	8b 03		 mov	 eax, DWORD PTR [ebx]
  000e0	53		 push	 ebx
  000e1	ff 50 08	 call	 DWORD PTR [eax+8]
$LN10@OnApply_DA:
; File D:\git\src\IBK\IBK_DRFN\ProjSrc\SrcChartEx\ChartAddIn\ChartEnvSetupDlgAddIn\ChartEnvSetupDlgAddIn\SetItemOfColorListBox.cpp

; 540  : }

  000e4	8b 4d f4	 mov	 ecx, DWORD PTR __$EHRec$[ebp]
  000e7	64 89 0d 00 00
	00 00		 mov	 DWORD PTR fs:0, ecx
  000ee	59		 pop	 ecx
  000ef	5f		 pop	 edi
  000f0	5e		 pop	 esi
  000f1	5b		 pop	 ebx
  000f2	8b e5		 mov	 esp, ebp
  000f4	5d		 pop	 ebp
  000f5	c2 0c 00	 ret	 12			; 0000000cH
_TEXT	ENDS
;	COMDAT text$x
text$x	SEGMENT
__unwindfunclet$?OnApply_DAEGIMEMUL@CSetItemOfColorListBox@@AAEXPAVCListBoxColorPickerST@@PAUIGraphInfo135914@@H@Z$0:
  00000	8d 4d ec	 lea	 ecx, DWORD PTR _szSubGraphName$[ebp]
  00003	e9 00 00 00 00	 jmp	 ??1ILPCSTR135914@@QAE@XZ ; ILPCSTR135914::~ILPCSTR135914
  00008	cc		 int	 3
  00009	cc		 int	 3
  0000a	cc		 int	 3
  0000b	cc		 int	 3
  0000c	cc		 int	 3
__ehhandler$?OnApply_DAEGIMEMUL@CSetItemOfColorListBox@@AAEXPAVCListBoxColorPickerST@@PAUIGraphInfo135914@@H@Z:
  0000d	90		 npad	 1
  0000e	90		 npad	 1
  0000f	8b 54 24 08	 mov	 edx, DWORD PTR [esp+8]
  00013	8d 42 0c	 lea	 eax, DWORD PTR [edx+12]
  00016	8b 4a e8	 mov	 ecx, DWORD PTR [edx-24]
  00019	33 c8		 xor	 ecx, eax
  0001b	e8 00 00 00 00	 call	 @__security_check_cookie@4
  00020	b8 00 00 00 00	 mov	 eax, OFFSET __ehfuncinfo$?OnApply_DAEGIMEMUL@CSetItemOfColorListBox@@AAEXPAVCListBoxColorPickerST@@PAUIGraphInfo135914@@H@Z
  00025	e9 00 00 00 00	 jmp	 ___CxxFrameHandler3
text$x	ENDS
?OnApply_DAEGIMEMUL@CSetItemOfColorListBox@@AAEXPAVCListBoxColorPickerST@@PAUIGraphInfo135914@@H@Z ENDP ; CSetItemOfColorListBox::OnApply_DAEGIMEMUL
; Function compile flags: /Ogtp
; File D:\git\src\IBK\IBK_DRFN\ProjSrc\SrcChartEx\ChartAddIn\ChartEnvSetupDlgAddIn\ChartEnvSetupDlgAddIn\SetItemOfColorListBox.cpp
; File D:\git\src\IBK\IBK_DRFN\ProjSrc\SrcChartEx\ChartAddIn\ChartEnvSetupDlgAddIn\Include_AddIn_135914\I135914\_IString.h
; File D:\git\src\IBK\IBK_DRFN\ProjSrc\SrcChartEx\ChartAddIn\ChartEnvSetupDlgAddIn\ChartEnvSetupDlgAddIn\SetItemOfColorListBox.cpp
; File D:\git\src\IBK\IBK_DRFN\ProjSrc\SrcChartEx\ChartAddIn\ChartEnvSetupDlgAddIn\Include_AddIn_135914\I135914\_IString.h
; File D:\git\src\IBK\IBK_DRFN\ProjSrc\SrcChartEx\ChartAddIn\ChartEnvSetupDlgAddIn\ChartEnvSetupDlgAddIn\SetItemOfColorListBox.cpp
; File D:\git\src\IBK\IBK_DRFN\ProjSrc\SrcChartEx\ChartAddIn\ChartEnvSetupDlgAddIn\Include_AddIn_135914\I135914\_IString.h
; File D:\git\src\IBK\IBK_DRFN\ProjSrc\SrcChartEx\ChartAddIn\ChartEnvSetupDlgAddIn\ChartEnvSetupDlgAddIn\SetItemOfColorListBox.cpp
;	COMDAT ?OnApply_MACD@CSetItemOfColorListBox@@AAEXPAVCListBoxColorPickerST@@PAUIGraphInfo135914@@H@Z
_TEXT	SEGMENT
_szSubGraphName$ = -24					; size = 8
_i$1$ = -16						; size = 4
__$EHRec$ = -12						; size = 12
_pListBox$ = 8						; size = 4
_p_pIGraphInfo$ = 12					; size = 4
_p_nSubGraphIndex$ = 16					; size = 4
?OnApply_MACD@CSetItemOfColorListBox@@AAEXPAVCListBoxColorPickerST@@PAUIGraphInfo135914@@H@Z PROC ; CSetItemOfColorListBox::OnApply_MACD, COMDAT
; _this$ = ecx

; 501  : {

  00000	55		 push	 ebp
  00001	8b ec		 mov	 ebp, esp
  00003	6a ff		 push	 -1
  00005	68 00 00 00 00	 push	 __ehhandler$?OnApply_MACD@CSetItemOfColorListBox@@AAEXPAVCListBoxColorPickerST@@PAUIGraphInfo135914@@H@Z
  0000a	64 a1 00 00 00
	00		 mov	 eax, DWORD PTR fs:0
  00010	50		 push	 eax
  00011	83 ec 0c	 sub	 esp, 12			; 0000000cH
  00014	53		 push	 ebx
  00015	56		 push	 esi
  00016	57		 push	 edi
  00017	a1 00 00 00 00	 mov	 eax, DWORD PTR ___security_cookie
  0001c	33 c5		 xor	 eax, ebp
  0001e	50		 push	 eax
  0001f	8d 45 f4	 lea	 eax, DWORD PTR __$EHRec$[ebp]
  00022	64 a3 00 00 00
	00		 mov	 DWORD PTR fs:0, eax
; File D:\git\src\IBK\IBK_DRFN\ProjSrc\SrcChartEx\ChartAddIn\ChartEnvSetupDlgAddIn\Include_AddIn_135914\I135914\_IString.h

; 39   : 		m_pIStrData = p_pIString;	// Do not AddRef(). Because It must be Return Value.

  00028	33 ff		 xor	 edi, edi
  0002a	89 7d ec	 mov	 DWORD PTR _szSubGraphName$[ebp+4], edi

; 40   : 		if( m_pIStrData) m_szData = m_pIStrData->GetData();
; 41   : 		else m_szData = NULL;

  0002d	89 7d e8	 mov	 DWORD PTR _szSubGraphName$[ebp], edi
; File D:\git\src\IBK\IBK_DRFN\ProjSrc\SrcChartEx\ChartAddIn\ChartEnvSetupDlgAddIn\ChartEnvSetupDlgAddIn\SetItemOfColorListBox.cpp

; 503  : 	for(int i = 0 ; i< p_pIGraphInfo->GetSubGraphCount(); i++)

  00030	8b 5d 0c	 mov	 ebx, DWORD PTR _p_pIGraphInfo$[ebp]
  00033	33 f6		 xor	 esi, esi
  00035	8b cb		 mov	 ecx, ebx
  00037	89 7d fc	 mov	 DWORD PTR __$EHRec$[ebp+8], edi
  0003a	89 75 f0	 mov	 DWORD PTR _i$1$[ebp], esi
  0003d	8b 03		 mov	 eax, DWORD PTR [ebx]
  0003f	ff 50 2c	 call	 DWORD PTR [eax+44]
  00042	85 c0		 test	 eax, eax
  00044	0f 8e 08 01 00
	00		 jle	 $LN3@OnApply_MA
  0004a	66 0f 1f 44 00
	00		 npad	 6
$LL4@OnApply_MA:

; 504  : 	{
; 505  : 		szSubGraphName = p_pIGraphInfo->GetSubGraphNameString( i);

  00050	8b 03		 mov	 eax, DWORD PTR [ebx]
  00052	8b cb		 mov	 ecx, ebx
  00054	56		 push	 esi
  00055	ff 50 3c	 call	 DWORD PTR [eax+60]
  00058	8b f0		 mov	 esi, eax
; File D:\git\src\IBK\IBK_DRFN\ProjSrc\SrcChartEx\ChartAddIn\ChartEnvSetupDlgAddIn\Include_AddIn_135914\I135914\_IString.h

; 67   : 		if( m_pIStrData) m_pIStrData->Release();

  0005a	85 ff		 test	 edi, edi
  0005c	74 06		 je	 SHORT $LN14@OnApply_MA
  0005e	8b 0f		 mov	 ecx, DWORD PTR [edi]
  00060	57		 push	 edi
  00061	ff 51 08	 call	 DWORD PTR [ecx+8]
$LN14@OnApply_MA:

; 68   : 		m_pIStrData = stringSrc;	// Do not AddRef(). Because It must be Return Value.

  00064	8b fe		 mov	 edi, esi
  00066	89 7d ec	 mov	 DWORD PTR _szSubGraphName$[ebp+4], edi
  00069	85 f6		 test	 esi, esi

; 69   : 		if( m_pIStrData) m_szData = m_pIStrData->GetData();

  0006b	74 0b		 je	 SHORT $LN15@OnApply_MA
  0006d	8b 06		 mov	 eax, DWORD PTR [esi]
  0006f	8b ce		 mov	 ecx, esi
  00071	ff 50 10	 call	 DWORD PTR [eax+16]
  00074	8b c8		 mov	 ecx, eax
  00076	eb 02		 jmp	 SHORT $LN37@OnApply_MA
$LN15@OnApply_MA:

; 70   : 		else m_szData = NULL;

  00078	33 c9		 xor	 ecx, ecx
$LN37@OnApply_MA:
; File D:\git\src\IBK\IBK_DRFN\ProjSrc\SrcChartEx\ChartAddIn\ChartEnvSetupDlgAddIn\ChartEnvSetupDlgAddIn\SetItemOfColorListBox.cpp

; 506  : 		if( !strcmp( szSubGraphName, "Oscillator"))

  0007a	89 4d e8	 mov	 DWORD PTR _szSubGraphName$[ebp], ecx
  0007d	b8 00 00 00 00	 mov	 eax, OFFSET ??_C@_0L@ELFBIMLP@Oscillator@
$LL32@OnApply_MA:
  00082	8a 11		 mov	 dl, BYTE PTR [ecx]
  00084	3a 10		 cmp	 dl, BYTE PTR [eax]
  00086	75 1a		 jne	 SHORT $LN33@OnApply_MA
  00088	84 d2		 test	 dl, dl
  0008a	74 12		 je	 SHORT $LN34@OnApply_MA
  0008c	8a 51 01	 mov	 dl, BYTE PTR [ecx+1]
  0008f	3a 50 01	 cmp	 dl, BYTE PTR [eax+1]
  00092	75 0e		 jne	 SHORT $LN33@OnApply_MA
  00094	83 c1 02	 add	 ecx, 2
  00097	83 c0 02	 add	 eax, 2
  0009a	84 d2		 test	 dl, dl
  0009c	75 e4		 jne	 SHORT $LL32@OnApply_MA
$LN34@OnApply_MA:
  0009e	33 c0		 xor	 eax, eax
  000a0	eb 05		 jmp	 SHORT $LN35@OnApply_MA
$LN33@OnApply_MA:
  000a2	1b c0		 sbb	 eax, eax
  000a4	83 c8 01	 or	 eax, 1
$LN35@OnApply_MA:
  000a7	8b 4d 08	 mov	 ecx, DWORD PTR _pListBox$[ebp]
  000aa	85 c0		 test	 eax, eax
  000ac	75 6a		 jne	 SHORT $LN5@OnApply_MA

; 507  : 		{
; 508  : 			p_pIGraphInfo->SetSubGraphColor( p_nSubGraphIndex, 5, pListBox->GetColor( i));

  000ae	8b 7d f0	 mov	 edi, DWORD PTR _i$1$[ebp]
  000b1	8b 33		 mov	 esi, DWORD PTR [ebx]
  000b3	57		 push	 edi
  000b4	e8 00 00 00 00	 call	 ?GetColor@CListBoxColorPickerST@@QAEKH@Z ; CListBoxColorPickerST::GetColor
  000b9	50		 push	 eax
  000ba	6a 05		 push	 5
  000bc	ff 75 10	 push	 DWORD PTR _p_nSubGraphIndex$[ebp]
  000bf	8b cb		 mov	 ecx, ebx
  000c1	ff 56 6c	 call	 DWORD PTR [esi+108]

; 509  : 			OnApply_upcolor(	p_pIGraphInfo, p_nSubGraphIndex, pListBox->GetColor(i + 1));

  000c4	8b 4d 08	 mov	 ecx, DWORD PTR _pListBox$[ebp]
  000c7	83 c7 02	 add	 edi, 2
  000ca	8d 47 ff	 lea	 eax, DWORD PTR [edi-1]
  000cd	50		 push	 eax
  000ce	e8 00 00 00 00	 call	 ?GetColor@CListBoxColorPickerST@@QAEKH@Z ; CListBoxColorPickerST::GetColor

; 518  : 	p_pIGraphInfo->SetSubGraphColor( p_nSubGraphIndex, 1, color);

  000d3	8b 13		 mov	 edx, DWORD PTR [ebx]

; 509  : 			OnApply_upcolor(	p_pIGraphInfo, p_nSubGraphIndex, pListBox->GetColor(i + 1));

  000d5	8b f0		 mov	 esi, eax

; 518  : 	p_pIGraphInfo->SetSubGraphColor( p_nSubGraphIndex, 1, color);

  000d7	56		 push	 esi
  000d8	6a 01		 push	 1
  000da	ff 75 10	 push	 DWORD PTR _p_nSubGraphIndex$[ebp]
  000dd	8b cb		 mov	 ecx, ebx
  000df	ff 52 6c	 call	 DWORD PTR [edx+108]

; 519  : 	p_pIGraphInfo->SetSubGraphColor( p_nSubGraphIndex, 2, color);

  000e2	8b 13		 mov	 edx, DWORD PTR [ebx]
  000e4	8b cb		 mov	 ecx, ebx
  000e6	56		 push	 esi
  000e7	6a 02		 push	 2
  000e9	ff 75 10	 push	 DWORD PTR _p_nSubGraphIndex$[ebp]
  000ec	ff 52 6c	 call	 DWORD PTR [edx+108]

; 510  : 			OnApply_downcolor(	p_pIGraphInfo, p_nSubGraphIndex, pListBox->GetColor(i + 2));

  000ef	8b 4d 08	 mov	 ecx, DWORD PTR _pListBox$[ebp]
  000f2	57		 push	 edi
  000f3	e8 00 00 00 00	 call	 ?GetColor@CListBoxColorPickerST@@QAEKH@Z ; CListBoxColorPickerST::GetColor

; 524  : 	p_pIGraphInfo->SetSubGraphColor( p_nSubGraphIndex, 3, color);

  000f8	8b 13		 mov	 edx, DWORD PTR [ebx]

; 510  : 			OnApply_downcolor(	p_pIGraphInfo, p_nSubGraphIndex, pListBox->GetColor(i + 2));

  000fa	8b f0		 mov	 esi, eax

; 524  : 	p_pIGraphInfo->SetSubGraphColor( p_nSubGraphIndex, 3, color);

  000fc	8b 7d 10	 mov	 edi, DWORD PTR _p_nSubGraphIndex$[ebp]
  000ff	8b cb		 mov	 ecx, ebx
  00101	56		 push	 esi
  00102	6a 03		 push	 3
  00104	57		 push	 edi
  00105	ff 52 6c	 call	 DWORD PTR [edx+108]

; 525  : 	p_pIGraphInfo->SetSubGraphColor( p_nSubGraphIndex, 4, color);

  00108	8b 13		 mov	 edx, DWORD PTR [ebx]
  0010a	8b cb		 mov	 ecx, ebx
  0010c	56		 push	 esi
  0010d	6a 04		 push	 4
  0010f	57		 push	 edi
  00110	ff 52 6c	 call	 DWORD PTR [edx+108]

; 511  : 		}

  00113	8b 7d ec	 mov	 edi, DWORD PTR _szSubGraphName$[ebp+4]
  00116	eb 24		 jmp	 SHORT $LN2@OnApply_MA
$LN5@OnApply_MA:

; 512  : 		else OnApply_upcolor(	p_pIGraphInfo, p_nSubGraphIndex, pListBox->GetColor(i));

  00118	ff 75 f0	 push	 DWORD PTR _i$1$[ebp]
  0011b	e8 00 00 00 00	 call	 ?GetColor@CListBoxColorPickerST@@QAEKH@Z ; CListBoxColorPickerST::GetColor

; 518  : 	p_pIGraphInfo->SetSubGraphColor( p_nSubGraphIndex, 1, color);

  00120	8b 13		 mov	 edx, DWORD PTR [ebx]

; 512  : 		else OnApply_upcolor(	p_pIGraphInfo, p_nSubGraphIndex, pListBox->GetColor(i));

  00122	8b f0		 mov	 esi, eax

; 518  : 	p_pIGraphInfo->SetSubGraphColor( p_nSubGraphIndex, 1, color);

  00124	56		 push	 esi
  00125	6a 01		 push	 1
  00127	ff 75 10	 push	 DWORD PTR _p_nSubGraphIndex$[ebp]
  0012a	8b cb		 mov	 ecx, ebx
  0012c	ff 52 6c	 call	 DWORD PTR [edx+108]

; 519  : 	p_pIGraphInfo->SetSubGraphColor( p_nSubGraphIndex, 2, color);

  0012f	8b 13		 mov	 edx, DWORD PTR [ebx]
  00131	8b cb		 mov	 ecx, ebx
  00133	56		 push	 esi
  00134	6a 02		 push	 2
  00136	ff 75 10	 push	 DWORD PTR _p_nSubGraphIndex$[ebp]
  00139	ff 52 6c	 call	 DWORD PTR [edx+108]
$LN2@OnApply_MA:

; 503  : 	for(int i = 0 ; i< p_pIGraphInfo->GetSubGraphCount(); i++)

  0013c	8b 75 f0	 mov	 esi, DWORD PTR _i$1$[ebp]
  0013f	8b cb		 mov	 ecx, ebx
  00141	8b 03		 mov	 eax, DWORD PTR [ebx]
  00143	46		 inc	 esi
  00144	89 75 f0	 mov	 DWORD PTR _i$1$[ebp], esi
  00147	ff 50 2c	 call	 DWORD PTR [eax+44]
  0014a	3b f0		 cmp	 esi, eax
  0014c	0f 8c fe fe ff
	ff		 jl	 $LL4@OnApply_MA
$LN3@OnApply_MA:
; File D:\git\src\IBK\IBK_DRFN\ProjSrc\SrcChartEx\ChartAddIn\ChartEnvSetupDlgAddIn\Include_AddIn_135914\I135914\_IString.h

; 44   : 	{

  00152	c7 45 fc 01 00
	00 00		 mov	 DWORD PTR __$EHRec$[ebp+8], 1

; 45   : 		if( m_pIStrData)

  00159	85 ff		 test	 edi, edi
  0015b	74 06		 je	 SHORT $LN25@OnApply_MA

; 46   : 		{
; 47   : 			m_pIStrData->Release();

  0015d	8b 07		 mov	 eax, DWORD PTR [edi]
  0015f	57		 push	 edi
  00160	ff 50 08	 call	 DWORD PTR [eax+8]
$LN25@OnApply_MA:
; File D:\git\src\IBK\IBK_DRFN\ProjSrc\SrcChartEx\ChartAddIn\ChartEnvSetupDlgAddIn\ChartEnvSetupDlgAddIn\SetItemOfColorListBox.cpp

; 514  : }

  00163	8b 4d f4	 mov	 ecx, DWORD PTR __$EHRec$[ebp]
  00166	64 89 0d 00 00
	00 00		 mov	 DWORD PTR fs:0, ecx
  0016d	59		 pop	 ecx
  0016e	5f		 pop	 edi
  0016f	5e		 pop	 esi
  00170	5b		 pop	 ebx
  00171	8b e5		 mov	 esp, ebp
  00173	5d		 pop	 ebp
  00174	c2 0c 00	 ret	 12			; 0000000cH
_TEXT	ENDS
;	COMDAT text$x
text$x	SEGMENT
__unwindfunclet$?OnApply_MACD@CSetItemOfColorListBox@@AAEXPAVCListBoxColorPickerST@@PAUIGraphInfo135914@@H@Z$0:
  00000	8d 4d e8	 lea	 ecx, DWORD PTR _szSubGraphName$[ebp]
  00003	e9 00 00 00 00	 jmp	 ??1ILPCSTR135914@@QAE@XZ ; ILPCSTR135914::~ILPCSTR135914
  00008	cc		 int	 3
  00009	cc		 int	 3
  0000a	cc		 int	 3
  0000b	cc		 int	 3
  0000c	cc		 int	 3
__ehhandler$?OnApply_MACD@CSetItemOfColorListBox@@AAEXPAVCListBoxColorPickerST@@PAUIGraphInfo135914@@H@Z:
  0000d	90		 npad	 1
  0000e	90		 npad	 1
  0000f	8b 54 24 08	 mov	 edx, DWORD PTR [esp+8]
  00013	8d 42 0c	 lea	 eax, DWORD PTR [edx+12]
  00016	8b 4a e4	 mov	 ecx, DWORD PTR [edx-28]
  00019	33 c8		 xor	 ecx, eax
  0001b	e8 00 00 00 00	 call	 @__security_check_cookie@4
  00020	b8 00 00 00 00	 mov	 eax, OFFSET __ehfuncinfo$?OnApply_MACD@CSetItemOfColorListBox@@AAEXPAVCListBoxColorPickerST@@PAUIGraphInfo135914@@H@Z
  00025	e9 00 00 00 00	 jmp	 ___CxxFrameHandler3
text$x	ENDS
?OnApply_MACD@CSetItemOfColorListBox@@AAEXPAVCListBoxColorPickerST@@PAUIGraphInfo135914@@H@Z ENDP ; CSetItemOfColorListBox::OnApply_MACD
; Function compile flags: /Ogtp
; File D:\git\src\IBK\IBK_DRFN\ProjSrc\SrcChartEx\ChartAddIn\ChartEnvSetupDlgAddIn\ChartEnvSetupDlgAddIn\SetItemOfColorListBox.cpp
;	COMDAT ?OnApply_INVERSELINE@CSetItemOfColorListBox@@AAEXPAVCListBoxColorPickerST@@PAUIGraphInfo135914@@H@Z
_TEXT	SEGMENT
_pListBox$ = 8						; size = 4
_p_pIGraphInfo$ = 12					; size = 4
_p_nSubGraphIndex$ = 16					; size = 4
?OnApply_INVERSELINE@CSetItemOfColorListBox@@AAEXPAVCListBoxColorPickerST@@PAUIGraphInfo135914@@H@Z PROC ; CSetItemOfColorListBox::OnApply_INVERSELINE, COMDAT
; _this$ = ecx

; 543  : {

  00000	55		 push	 ebp
  00001	8b ec		 mov	 ebp, esp

; 544  : 	if( p_nSubGraphIndex < 0) return;

  00003	83 7d 10 00	 cmp	 DWORD PTR _p_nSubGraphIndex$[ebp], 0
  00007	7c 56		 jl	 SHORT $LN1@OnApply_IN

; 545  : 	if( pListBox == NULL) return;

  00009	53		 push	 ebx
  0000a	8b 5d 08	 mov	 ebx, DWORD PTR _pListBox$[ebp]
  0000d	85 db		 test	 ebx, ebx
  0000f	74 4d		 je	 SHORT $LN5@OnApply_IN

; 546  : 
; 547  : 	p_pIGraphInfo->SetSubGraphColor( p_nSubGraphIndex, pListBox->GetColor(0), pListBox->GetColor(1), pListBox->GetColor(2), pListBox->GetColor(3), 

  00011	56		 push	 esi
  00012	8b 75 0c	 mov	 esi, DWORD PTR _p_pIGraphInfo$[ebp]
  00015	8b cb		 mov	 ecx, ebx
  00017	57		 push	 edi
  00018	6a 05		 push	 5
  0001a	8b 3e		 mov	 edi, DWORD PTR [esi]
  0001c	e8 00 00 00 00	 call	 ?GetColor@CListBoxColorPickerST@@QAEKH@Z ; CListBoxColorPickerST::GetColor
  00021	50		 push	 eax
  00022	6a 04		 push	 4
  00024	8b cb		 mov	 ecx, ebx
  00026	e8 00 00 00 00	 call	 ?GetColor@CListBoxColorPickerST@@QAEKH@Z ; CListBoxColorPickerST::GetColor
  0002b	50		 push	 eax
  0002c	6a 03		 push	 3
  0002e	8b cb		 mov	 ecx, ebx
  00030	e8 00 00 00 00	 call	 ?GetColor@CListBoxColorPickerST@@QAEKH@Z ; CListBoxColorPickerST::GetColor
  00035	50		 push	 eax
  00036	6a 02		 push	 2
  00038	8b cb		 mov	 ecx, ebx
  0003a	e8 00 00 00 00	 call	 ?GetColor@CListBoxColorPickerST@@QAEKH@Z ; CListBoxColorPickerST::GetColor
  0003f	50		 push	 eax
  00040	6a 01		 push	 1
  00042	8b cb		 mov	 ecx, ebx
  00044	e8 00 00 00 00	 call	 ?GetColor@CListBoxColorPickerST@@QAEKH@Z ; CListBoxColorPickerST::GetColor
  00049	50		 push	 eax
  0004a	6a 00		 push	 0
  0004c	8b cb		 mov	 ecx, ebx
  0004e	e8 00 00 00 00	 call	 ?GetColor@CListBoxColorPickerST@@QAEKH@Z ; CListBoxColorPickerST::GetColor
  00053	50		 push	 eax
  00054	ff 75 10	 push	 DWORD PTR _p_nSubGraphIndex$[ebp]
  00057	8b ce		 mov	 ecx, esi
  00059	ff 57 68	 call	 DWORD PTR [edi+104]
  0005c	5f		 pop	 edi
  0005d	5e		 pop	 esi
$LN5@OnApply_IN:
  0005e	5b		 pop	 ebx
$LN1@OnApply_IN:

; 548  : 		pListBox->GetColor(4), pListBox->GetColor(5));
; 549  : }

  0005f	5d		 pop	 ebp
  00060	c2 0c 00	 ret	 12			; 0000000cH
?OnApply_INVERSELINE@CSetItemOfColorListBox@@AAEXPAVCListBoxColorPickerST@@PAUIGraphInfo135914@@H@Z ENDP ; CSetItemOfColorListBox::OnApply_INVERSELINE
_TEXT	ENDS
; Function compile flags: /Ogtp
; File D:\git\src\IBK\IBK_DRFN\ProjSrc\SrcChartEx\ChartAddIn\ChartEnvSetupDlgAddIn\ChartEnvSetupDlgAddIn\SetItemOfColorListBox.cpp
; File C:\Program Files (x86)\Microsoft Visual Studio\2019\Community\VC\Tools\MSVC\14.29.30133\atlmfc\include\atlsimpstr.h
; File D:\git\src\IBK\IBK_DRFN\ProjSrc\SrcChartEx\ChartAddIn\ChartEnvSetupDlgAddIn\ChartEnvSetupDlgAddIn\SetItemOfColorListBox.cpp
;	COMDAT ?SetItem_EQUAL@CSetItemOfColorListBox@@AAEXPAUIGraphInfo135914@@HPAVCListBoxColorPickerST@@@Z
_TEXT	SEGMENT
_strSteady$ = -16					; size = 4
__$EHRec$ = -12						; size = 12
_p_pIGraphInfo$ = 8					; size = 4
_p_nSubGraphIndex$ = 12					; size = 4
_pListBox$ = 16						; size = 4
?SetItem_EQUAL@CSetItemOfColorListBox@@AAEXPAUIGraphInfo135914@@HPAVCListBoxColorPickerST@@@Z PROC ; CSetItemOfColorListBox::SetItem_EQUAL, COMDAT
; _this$ = ecx

; 161  : {

  00000	55		 push	 ebp
  00001	8b ec		 mov	 ebp, esp
  00003	6a ff		 push	 -1
  00005	68 00 00 00 00	 push	 __ehhandler$?SetItem_EQUAL@CSetItemOfColorListBox@@AAEXPAUIGraphInfo135914@@HPAVCListBoxColorPickerST@@@Z
  0000a	64 a1 00 00 00
	00		 mov	 eax, DWORD PTR fs:0
  00010	50		 push	 eax
  00011	51		 push	 ecx
  00012	56		 push	 esi
  00013	a1 00 00 00 00	 mov	 eax, DWORD PTR ___security_cookie
  00018	33 c5		 xor	 eax, ebp
  0001a	50		 push	 eax
  0001b	8d 45 f4	 lea	 eax, DWORD PTR __$EHRec$[ebp]
  0001e	64 a3 00 00 00
	00		 mov	 DWORD PTR fs:0, eax

; 162  : // 2008.01.25 by LYH >>
; 163  : 	//pListBox->AddString(_T("보합"), p_pIGraphInfo->GetSubGraphColor( p_nSubGraphIndex, 5));
; 164  : 	CString strSteady;

  00024	8d 4d f0	 lea	 ecx, DWORD PTR _strSteady$[ebp]
  00027	ff 15 00 00 00
	00		 call	 DWORD PTR __imp_??0?$CStringT@DV?$StrTraitMFC_DLL@DV?$ChTraitsCRT@D@ATL@@@@@ATL@@QAE@XZ

; 165  : 	strSteady.LoadString(IDS_STRING_STEADY);

  0002d	6a 18		 push	 24			; 00000018H
  0002f	8d 4d f0	 lea	 ecx, DWORD PTR _strSteady$[ebp]
  00032	c7 45 fc 00 00
	00 00		 mov	 DWORD PTR __$EHRec$[ebp+8], 0
  00039	ff 15 00 00 00
	00		 call	 DWORD PTR __imp_?LoadStringA@?$CStringT@DV?$StrTraitMFC_DLL@DV?$ChTraitsCRT@D@ATL@@@@@ATL@@QAEHI@Z

; 166  : 	pListBox->AddString(strSteady, p_pIGraphInfo->GetSubGraphColor( p_nSubGraphIndex, 5));

  0003f	8b 4d 08	 mov	 ecx, DWORD PTR _p_pIGraphInfo$[ebp]
; File C:\Program Files (x86)\Microsoft Visual Studio\2019\Community\VC\Tools\MSVC\14.29.30133\atlmfc\include\atlsimpstr.h

; 377  : 		return( m_pszData );

  00042	8b 75 f0	 mov	 esi, DWORD PTR _strSteady$[ebp]
; File D:\git\src\IBK\IBK_DRFN\ProjSrc\SrcChartEx\ChartAddIn\ChartEnvSetupDlgAddIn\ChartEnvSetupDlgAddIn\SetItemOfColorListBox.cpp

; 166  : 	pListBox->AddString(strSteady, p_pIGraphInfo->GetSubGraphColor( p_nSubGraphIndex, 5));

  00045	6a 05		 push	 5
  00047	ff 75 0c	 push	 DWORD PTR _p_nSubGraphIndex$[ebp]
  0004a	8b 01		 mov	 eax, DWORD PTR [ecx]
  0004c	ff 50 64	 call	 DWORD PTR [eax+100]
  0004f	8b 4d 10	 mov	 ecx, DWORD PTR _pListBox$[ebp]
  00052	50		 push	 eax
  00053	56		 push	 esi
  00054	e8 00 00 00 00	 call	 ?AddString@CListBoxColorPickerST@@QAEHPBDK@Z ; CListBoxColorPickerST::AddString

; 167  : // 2008.01.25 by LYH <<
; 168  : }

  00059	8d 4d f0	 lea	 ecx, DWORD PTR _strSteady$[ebp]
  0005c	ff 15 00 00 00
	00		 call	 DWORD PTR __imp_??1?$CStringT@DV?$StrTraitMFC_DLL@DV?$ChTraitsCRT@D@ATL@@@@@ATL@@QAE@XZ
  00062	8b 4d f4	 mov	 ecx, DWORD PTR __$EHRec$[ebp]
  00065	64 89 0d 00 00
	00 00		 mov	 DWORD PTR fs:0, ecx
  0006c	59		 pop	 ecx
  0006d	5e		 pop	 esi
  0006e	8b e5		 mov	 esp, ebp
  00070	5d		 pop	 ebp
  00071	c2 0c 00	 ret	 12			; 0000000cH
_TEXT	ENDS
;	COMDAT text$x
text$x	SEGMENT
__unwindfunclet$?SetItem_EQUAL@CSetItemOfColorListBox@@AAEXPAUIGraphInfo135914@@HPAVCListBoxColorPickerST@@@Z$0:
  00000	8d 4d f0	 lea	 ecx, DWORD PTR _strSteady$[ebp]
  00003	ff 25 00 00 00
	00		 jmp	 DWORD PTR __imp_??1?$CStringT@DV?$StrTraitMFC_DLL@DV?$ChTraitsCRT@D@ATL@@@@@ATL@@QAE@XZ
  00009	cc		 int	 3
  0000a	cc		 int	 3
  0000b	cc		 int	 3
  0000c	cc		 int	 3
  0000d	cc		 int	 3
__ehhandler$?SetItem_EQUAL@CSetItemOfColorListBox@@AAEXPAUIGraphInfo135914@@HPAVCListBoxColorPickerST@@@Z:
  0000e	90		 npad	 1
  0000f	90		 npad	 1
  00010	8b 54 24 08	 mov	 edx, DWORD PTR [esp+8]
  00014	8d 42 0c	 lea	 eax, DWORD PTR [edx+12]
  00017	8b 4a f4	 mov	 ecx, DWORD PTR [edx-12]
  0001a	33 c8		 xor	 ecx, eax
  0001c	e8 00 00 00 00	 call	 @__security_check_cookie@4
  00021	b8 00 00 00 00	 mov	 eax, OFFSET __ehfuncinfo$?SetItem_EQUAL@CSetItemOfColorListBox@@AAEXPAUIGraphInfo135914@@HPAVCListBoxColorPickerST@@@Z
  00026	e9 00 00 00 00	 jmp	 ___CxxFrameHandler3
text$x	ENDS
?SetItem_EQUAL@CSetItemOfColorListBox@@AAEXPAUIGraphInfo135914@@HPAVCListBoxColorPickerST@@@Z ENDP ; CSetItemOfColorListBox::SetItem_EQUAL
; Function compile flags: /Ogtp
; File D:\git\src\IBK\IBK_DRFN\ProjSrc\SrcChartEx\ChartAddIn\ChartEnvSetupDlgAddIn\ChartEnvSetupDlgAddIn\SetItemOfColorListBox.cpp
; File C:\Program Files (x86)\Microsoft Visual Studio\2019\Community\VC\Tools\MSVC\14.29.30133\atlmfc\include\atlsimpstr.h
; File D:\git\src\IBK\IBK_DRFN\ProjSrc\SrcChartEx\ChartAddIn\ChartEnvSetupDlgAddIn\ChartEnvSetupDlgAddIn\SetItemOfColorListBox.cpp
; File C:\Program Files (x86)\Microsoft Visual Studio\2019\Community\VC\Tools\MSVC\14.29.30133\atlmfc\include\atlsimpstr.h
; File D:\git\src\IBK\IBK_DRFN\ProjSrc\SrcChartEx\ChartAddIn\ChartEnvSetupDlgAddIn\ChartEnvSetupDlgAddIn\SetItemOfColorListBox.cpp
;	COMDAT ?SetItem_UPDOWN@CSetItemOfColorListBox@@AAEXPAUIGraphInfo135914@@HPAVCListBoxColorPickerST@@@Z
_TEXT	SEGMENT
_strDown$ = -20						; size = 4
_strUp$ = -16						; size = 4
__$EHRec$ = -12						; size = 12
_p_pIGraphInfo$ = 8					; size = 4
_p_nSubGraphIndex$ = 12					; size = 4
_pListBox$ = 16						; size = 4
?SetItem_UPDOWN@CSetItemOfColorListBox@@AAEXPAUIGraphInfo135914@@HPAVCListBoxColorPickerST@@@Z PROC ; CSetItemOfColorListBox::SetItem_UPDOWN, COMDAT
; _this$ = ecx

; 147  : {

  00000	55		 push	 ebp
  00001	8b ec		 mov	 ebp, esp
  00003	6a ff		 push	 -1
  00005	68 00 00 00 00	 push	 __ehhandler$?SetItem_UPDOWN@CSetItemOfColorListBox@@AAEXPAUIGraphInfo135914@@HPAVCListBoxColorPickerST@@@Z
  0000a	64 a1 00 00 00
	00		 mov	 eax, DWORD PTR fs:0
  00010	50		 push	 eax
  00011	83 ec 08	 sub	 esp, 8
  00014	56		 push	 esi
  00015	a1 00 00 00 00	 mov	 eax, DWORD PTR ___security_cookie
  0001a	33 c5		 xor	 eax, ebp
  0001c	50		 push	 eax
  0001d	8d 45 f4	 lea	 eax, DWORD PTR __$EHRec$[ebp]
  00020	64 a3 00 00 00
	00		 mov	 DWORD PTR fs:0, eax

; 148  : // 2008.01.25 by LYH >>
; 149  : 	//pListBox->AddString(_T("상승"), p_pIGraphInfo->GetSubGraphColor( p_nSubGraphIndex, 1));
; 150  : 	//pListBox->AddString(_T("하락"), p_pIGraphInfo->GetSubGraphColor( p_nSubGraphIndex, 3));
; 151  : 	CString strUp, strDown;

  00026	8d 4d f0	 lea	 ecx, DWORD PTR _strUp$[ebp]
  00029	ff 15 00 00 00
	00		 call	 DWORD PTR __imp_??0?$CStringT@DV?$StrTraitMFC_DLL@DV?$ChTraitsCRT@D@ATL@@@@@ATL@@QAE@XZ
  0002f	8d 4d ec	 lea	 ecx, DWORD PTR _strDown$[ebp]
  00032	c7 45 fc 00 00
	00 00		 mov	 DWORD PTR __$EHRec$[ebp+8], 0
  00039	ff 15 00 00 00
	00		 call	 DWORD PTR __imp_??0?$CStringT@DV?$StrTraitMFC_DLL@DV?$ChTraitsCRT@D@ATL@@@@@ATL@@QAE@XZ

; 152  : 	strUp.LoadString(IDS_STRING_UP);

  0003f	6a 16		 push	 22			; 00000016H
  00041	8d 4d f0	 lea	 ecx, DWORD PTR _strUp$[ebp]
  00044	c6 45 fc 01	 mov	 BYTE PTR __$EHRec$[ebp+8], 1
  00048	ff 15 00 00 00
	00		 call	 DWORD PTR __imp_?LoadStringA@?$CStringT@DV?$StrTraitMFC_DLL@DV?$ChTraitsCRT@D@ATL@@@@@ATL@@QAEHI@Z

; 153  : 	strUp.LoadString(IDS_STRING_DOWN);

  0004e	6a 17		 push	 23			; 00000017H
  00050	8d 4d f0	 lea	 ecx, DWORD PTR _strUp$[ebp]
  00053	ff 15 00 00 00
	00		 call	 DWORD PTR __imp_?LoadStringA@?$CStringT@DV?$StrTraitMFC_DLL@DV?$ChTraitsCRT@D@ATL@@@@@ATL@@QAEHI@Z

; 154  : 	pListBox->AddString(strUp, p_pIGraphInfo->GetSubGraphColor( p_nSubGraphIndex, 1));

  00059	8b 4d 08	 mov	 ecx, DWORD PTR _p_pIGraphInfo$[ebp]
; File C:\Program Files (x86)\Microsoft Visual Studio\2019\Community\VC\Tools\MSVC\14.29.30133\atlmfc\include\atlsimpstr.h

; 377  : 		return( m_pszData );

  0005c	8b 75 f0	 mov	 esi, DWORD PTR _strUp$[ebp]
; File D:\git\src\IBK\IBK_DRFN\ProjSrc\SrcChartEx\ChartAddIn\ChartEnvSetupDlgAddIn\ChartEnvSetupDlgAddIn\SetItemOfColorListBox.cpp

; 154  : 	pListBox->AddString(strUp, p_pIGraphInfo->GetSubGraphColor( p_nSubGraphIndex, 1));

  0005f	6a 01		 push	 1
  00061	ff 75 0c	 push	 DWORD PTR _p_nSubGraphIndex$[ebp]
  00064	8b 01		 mov	 eax, DWORD PTR [ecx]
  00066	ff 50 64	 call	 DWORD PTR [eax+100]
  00069	8b 4d 10	 mov	 ecx, DWORD PTR _pListBox$[ebp]
  0006c	50		 push	 eax
  0006d	56		 push	 esi
  0006e	e8 00 00 00 00	 call	 ?AddString@CListBoxColorPickerST@@QAEHPBDK@Z ; CListBoxColorPickerST::AddString

; 155  : 	pListBox->AddString(strDown, p_pIGraphInfo->GetSubGraphColor( p_nSubGraphIndex, 3));

  00073	8b 4d 08	 mov	 ecx, DWORD PTR _p_pIGraphInfo$[ebp]
; File C:\Program Files (x86)\Microsoft Visual Studio\2019\Community\VC\Tools\MSVC\14.29.30133\atlmfc\include\atlsimpstr.h

; 377  : 		return( m_pszData );

  00076	8b 75 ec	 mov	 esi, DWORD PTR _strDown$[ebp]
; File D:\git\src\IBK\IBK_DRFN\ProjSrc\SrcChartEx\ChartAddIn\ChartEnvSetupDlgAddIn\ChartEnvSetupDlgAddIn\SetItemOfColorListBox.cpp

; 155  : 	pListBox->AddString(strDown, p_pIGraphInfo->GetSubGraphColor( p_nSubGraphIndex, 3));

  00079	6a 03		 push	 3
  0007b	ff 75 0c	 push	 DWORD PTR _p_nSubGraphIndex$[ebp]
  0007e	8b 01		 mov	 eax, DWORD PTR [ecx]
  00080	ff 50 64	 call	 DWORD PTR [eax+100]
  00083	8b 4d 10	 mov	 ecx, DWORD PTR _pListBox$[ebp]
  00086	50		 push	 eax
  00087	56		 push	 esi
  00088	e8 00 00 00 00	 call	 ?AddString@CListBoxColorPickerST@@QAEHPBDK@Z ; CListBoxColorPickerST::AddString

; 156  : // 2008.01.25 by LYH <<
; 157  : }

  0008d	8d 4d ec	 lea	 ecx, DWORD PTR _strDown$[ebp]
  00090	ff 15 00 00 00
	00		 call	 DWORD PTR __imp_??1?$CStringT@DV?$StrTraitMFC_DLL@DV?$ChTraitsCRT@D@ATL@@@@@ATL@@QAE@XZ
  00096	8d 4d f0	 lea	 ecx, DWORD PTR _strUp$[ebp]
  00099	ff 15 00 00 00
	00		 call	 DWORD PTR __imp_??1?$CStringT@DV?$StrTraitMFC_DLL@DV?$ChTraitsCRT@D@ATL@@@@@ATL@@QAE@XZ
  0009f	8b 4d f4	 mov	 ecx, DWORD PTR __$EHRec$[ebp]
  000a2	64 89 0d 00 00
	00 00		 mov	 DWORD PTR fs:0, ecx
  000a9	59		 pop	 ecx
  000aa	5e		 pop	 esi
  000ab	8b e5		 mov	 esp, ebp
  000ad	5d		 pop	 ebp
  000ae	c2 0c 00	 ret	 12			; 0000000cH
_TEXT	ENDS
;	COMDAT text$x
text$x	SEGMENT
__unwindfunclet$?SetItem_UPDOWN@CSetItemOfColorListBox@@AAEXPAUIGraphInfo135914@@HPAVCListBoxColorPickerST@@@Z$0:
  00000	8d 4d f0	 lea	 ecx, DWORD PTR _strUp$[ebp]
  00003	ff 25 00 00 00
	00		 jmp	 DWORD PTR __imp_??1?$CStringT@DV?$StrTraitMFC_DLL@DV?$ChTraitsCRT@D@ATL@@@@@ATL@@QAE@XZ
__unwindfunclet$?SetItem_UPDOWN@CSetItemOfColorListBox@@AAEXPAUIGraphInfo135914@@HPAVCListBoxColorPickerST@@@Z$1:
  00009	8d 4d ec	 lea	 ecx, DWORD PTR _strDown$[ebp]
  0000c	ff 25 00 00 00
	00		 jmp	 DWORD PTR __imp_??1?$CStringT@DV?$StrTraitMFC_DLL@DV?$ChTraitsCRT@D@ATL@@@@@ATL@@QAE@XZ
  00012	cc		 int	 3
  00013	cc		 int	 3
  00014	cc		 int	 3
  00015	cc		 int	 3
  00016	cc		 int	 3
__ehhandler$?SetItem_UPDOWN@CSetItemOfColorListBox@@AAEXPAUIGraphInfo135914@@HPAVCListBoxColorPickerST@@@Z:
  00017	90		 npad	 1
  00018	90		 npad	 1
  00019	8b 54 24 08	 mov	 edx, DWORD PTR [esp+8]
  0001d	8d 42 0c	 lea	 eax, DWORD PTR [edx+12]
  00020	8b 4a f0	 mov	 ecx, DWORD PTR [edx-16]
  00023	33 c8		 xor	 ecx, eax
  00025	e8 00 00 00 00	 call	 @__security_check_cookie@4
  0002a	b8 00 00 00 00	 mov	 eax, OFFSET __ehfuncinfo$?SetItem_UPDOWN@CSetItemOfColorListBox@@AAEXPAUIGraphInfo135914@@HPAVCListBoxColorPickerST@@@Z
  0002f	e9 00 00 00 00	 jmp	 ___CxxFrameHandler3
text$x	ENDS
?SetItem_UPDOWN@CSetItemOfColorListBox@@AAEXPAUIGraphInfo135914@@HPAVCListBoxColorPickerST@@@Z ENDP ; CSetItemOfColorListBox::SetItem_UPDOWN
; Function compile flags: /Ogtp
; File D:\git\src\IBK\IBK_DRFN\ProjSrc\SrcChartEx\ChartAddIn\ChartEnvSetupDlgAddIn\ChartEnvSetupDlgAddIn\SetItemOfColorListBox.cpp
; File C:\Program Files (x86)\Microsoft Visual Studio\2019\Community\VC\Tools\MSVC\14.29.30133\atlmfc\include\atlsimpstr.h
; File D:\git\src\IBK\IBK_DRFN\ProjSrc\SrcChartEx\ChartAddIn\ChartEnvSetupDlgAddIn\ChartEnvSetupDlgAddIn\SetItemOfColorListBox.cpp
;	COMDAT ?SetItem_COLOR@CSetItemOfColorListBox@@AAEXPAUIGraphInfo135914@@HPAVCListBoxColorPickerST@@@Z
_TEXT	SEGMENT
_strColor$ = -16					; size = 4
__$EHRec$ = -12						; size = 12
_p_pIGraphInfo$ = 8					; size = 4
_p_nSubGraphIndex$ = 12					; size = 4
_pListBox$ = 16						; size = 4
?SetItem_COLOR@CSetItemOfColorListBox@@AAEXPAUIGraphInfo135914@@HPAVCListBoxColorPickerST@@@Z PROC ; CSetItemOfColorListBox::SetItem_COLOR, COMDAT
; _this$ = ecx

; 205  : {

  00000	55		 push	 ebp
  00001	8b ec		 mov	 ebp, esp
  00003	6a ff		 push	 -1
  00005	68 00 00 00 00	 push	 __ehhandler$?SetItem_COLOR@CSetItemOfColorListBox@@AAEXPAUIGraphInfo135914@@HPAVCListBoxColorPickerST@@@Z
  0000a	64 a1 00 00 00
	00		 mov	 eax, DWORD PTR fs:0
  00010	50		 push	 eax
  00011	51		 push	 ecx
  00012	56		 push	 esi
  00013	a1 00 00 00 00	 mov	 eax, DWORD PTR ___security_cookie
  00018	33 c5		 xor	 eax, ebp
  0001a	50		 push	 eax
  0001b	8d 45 f4	 lea	 eax, DWORD PTR __$EHRec$[ebp]
  0001e	64 a3 00 00 00
	00		 mov	 DWORD PTR fs:0, eax

; 206  : // 2008.01.25 by LYH >>
; 207  : 	CString strColor;

  00024	8d 4d f0	 lea	 ecx, DWORD PTR _strColor$[ebp]
  00027	ff 15 00 00 00
	00		 call	 DWORD PTR __imp_??0?$CStringT@DV?$StrTraitMFC_DLL@DV?$ChTraitsCRT@D@ATL@@@@@ATL@@QAE@XZ

; 208  : 	strColor.LoadString(IDS_STRING_COLOR);

  0002d	6a 10		 push	 16			; 00000010H
  0002f	8d 4d f0	 lea	 ecx, DWORD PTR _strColor$[ebp]
  00032	c7 45 fc 00 00
	00 00		 mov	 DWORD PTR __$EHRec$[ebp+8], 0
  00039	ff 15 00 00 00
	00		 call	 DWORD PTR __imp_?LoadStringA@?$CStringT@DV?$StrTraitMFC_DLL@DV?$ChTraitsCRT@D@ATL@@@@@ATL@@QAEHI@Z

; 210  : 	pListBox->AddString(strColor, p_pIGraphInfo->GetSubGraphColor( p_nSubGraphIndex, 1));

  0003f	8b 4d 08	 mov	 ecx, DWORD PTR _p_pIGraphInfo$[ebp]
; File C:\Program Files (x86)\Microsoft Visual Studio\2019\Community\VC\Tools\MSVC\14.29.30133\atlmfc\include\atlsimpstr.h

; 377  : 		return( m_pszData );

  00042	8b 75 f0	 mov	 esi, DWORD PTR _strColor$[ebp]
; File D:\git\src\IBK\IBK_DRFN\ProjSrc\SrcChartEx\ChartAddIn\ChartEnvSetupDlgAddIn\ChartEnvSetupDlgAddIn\SetItemOfColorListBox.cpp

; 210  : 	pListBox->AddString(strColor, p_pIGraphInfo->GetSubGraphColor( p_nSubGraphIndex, 1));

  00045	6a 01		 push	 1
  00047	ff 75 0c	 push	 DWORD PTR _p_nSubGraphIndex$[ebp]
  0004a	8b 01		 mov	 eax, DWORD PTR [ecx]
  0004c	ff 50 64	 call	 DWORD PTR [eax+100]
  0004f	8b 4d 10	 mov	 ecx, DWORD PTR _pListBox$[ebp]
  00052	50		 push	 eax
  00053	56		 push	 esi
  00054	e8 00 00 00 00	 call	 ?AddString@CListBoxColorPickerST@@QAEHPBDK@Z ; CListBoxColorPickerST::AddString

; 211  : // 2008.01.25 by LYH <<
; 212  : }

  00059	8d 4d f0	 lea	 ecx, DWORD PTR _strColor$[ebp]
  0005c	ff 15 00 00 00
	00		 call	 DWORD PTR __imp_??1?$CStringT@DV?$StrTraitMFC_DLL@DV?$ChTraitsCRT@D@ATL@@@@@ATL@@QAE@XZ
  00062	8b 4d f4	 mov	 ecx, DWORD PTR __$EHRec$[ebp]
  00065	64 89 0d 00 00
	00 00		 mov	 DWORD PTR fs:0, ecx
  0006c	59		 pop	 ecx
  0006d	5e		 pop	 esi
  0006e	8b e5		 mov	 esp, ebp
  00070	5d		 pop	 ebp
  00071	c2 0c 00	 ret	 12			; 0000000cH
_TEXT	ENDS
;	COMDAT text$x
text$x	SEGMENT
__unwindfunclet$?SetItem_COLOR@CSetItemOfColorListBox@@AAEXPAUIGraphInfo135914@@HPAVCListBoxColorPickerST@@@Z$0:
  00000	8d 4d f0	 lea	 ecx, DWORD PTR _strColor$[ebp]
  00003	ff 25 00 00 00
	00		 jmp	 DWORD PTR __imp_??1?$CStringT@DV?$StrTraitMFC_DLL@DV?$ChTraitsCRT@D@ATL@@@@@ATL@@QAE@XZ
  00009	cc		 int	 3
  0000a	cc		 int	 3
  0000b	cc		 int	 3
  0000c	cc		 int	 3
  0000d	cc		 int	 3
__ehhandler$?SetItem_COLOR@CSetItemOfColorListBox@@AAEXPAUIGraphInfo135914@@HPAVCListBoxColorPickerST@@@Z:
  0000e	90		 npad	 1
  0000f	90		 npad	 1
  00010	8b 54 24 08	 mov	 edx, DWORD PTR [esp+8]
  00014	8d 42 0c	 lea	 eax, DWORD PTR [edx+12]
  00017	8b 4a f4	 mov	 ecx, DWORD PTR [edx-12]
  0001a	33 c8		 xor	 ecx, eax
  0001c	e8 00 00 00 00	 call	 @__security_check_cookie@4
  00021	b8 00 00 00 00	 mov	 eax, OFFSET __ehfuncinfo$?SetItem_COLOR@CSetItemOfColorListBox@@AAEXPAUIGraphInfo135914@@HPAVCListBoxColorPickerST@@@Z
  00026	e9 00 00 00 00	 jmp	 ___CxxFrameHandler3
text$x	ENDS
?SetItem_COLOR@CSetItemOfColorListBox@@AAEXPAUIGraphInfo135914@@HPAVCListBoxColorPickerST@@@Z ENDP ; CSetItemOfColorListBox::SetItem_COLOR
; Function compile flags: /Ogtp
; File D:\git\src\IBK\IBK_DRFN\ProjSrc\SrcChartEx\ChartAddIn\ChartEnvSetupDlgAddIn\ChartEnvSetupDlgAddIn\SetItemOfColorListBox.cpp
;	COMDAT ?SetItem_SUB_UPFILL_DOWNFILL2@CSetItemOfColorListBox@@AAEXPAUIGraphInfo135914@@HPAVCListBoxColorPickerST@@@Z
_TEXT	SEGMENT
_p_pIGraphInfo$ = 8					; size = 4
_p_nSubGraphIndex$ = 12					; size = 4
_pListBox$ = 16						; size = 4
?SetItem_SUB_UPFILL_DOWNFILL2@CSetItemOfColorListBox@@AAEXPAUIGraphInfo135914@@HPAVCListBoxColorPickerST@@@Z PROC ; CSetItemOfColorListBox::SetItem_SUB_UPFILL_DOWNFILL2, COMDAT
; _this$ = ecx

; 248  : #ifdef _DEBUG
; 249  : 	AfxMessageBox( "What is this?");
; 250  : #endif
; 251  : /*
; 252  : 	for(int i = 0; i < p_pIGraphInfo->GetSubGraphCount(); i++)
; 253  : 	{
; 254  : 		// 함수파라미터로 들어온 SubGraphData와 같은 넘이면 서브그래프, 상승채움, 하락채움을
; 255  : 		// ListBox에 넣는다.
; 256  : 		if(pTmp_nSubGraphIndex->GetName() == p_nSubGraphIndex->GetName())
; 257  : 		{	
; 258  : 			pListBox->AddString(p_nSubGraphIndex->GetName(), p_nSubGraphIndex->GetColor().GetColor5());
; 259  : 			pListBox->AddString(_T("상승채움"), p_nSubGraphIndex->GetColor().GetColor2());
; 260  : 			pListBox->AddString(_T("하락채움"), p_nSubGraphIndex->GetColor().GetColor4());
; 261  : 		}
; 262  : 		else
; 263  : 		{
; 264  : 			pListBox->AddString((p_pIGraphInfo->GetSubGraphData(i))->GetName(), (p_pIGraphInfo->GetSubGraphData(i))->GetColor().GetColor1());
; 265  : 		}
; 266  : 	}
; 267  : */
; 268  : }

  00000	c2 0c 00	 ret	 12			; 0000000cH
?SetItem_SUB_UPFILL_DOWNFILL2@CSetItemOfColorListBox@@AAEXPAUIGraphInfo135914@@HPAVCListBoxColorPickerST@@@Z ENDP ; CSetItemOfColorListBox::SetItem_SUB_UPFILL_DOWNFILL2
_TEXT	ENDS
; Function compile flags: /Ogtp
; File D:\git\src\IBK\IBK_DRFN\ProjSrc\SrcChartEx\ChartAddIn\ChartEnvSetupDlgAddIn\ChartEnvSetupDlgAddIn\SetItemOfColorListBox.cpp
; File C:\Program Files (x86)\Microsoft Visual Studio\2019\Community\VC\Tools\MSVC\14.29.30133\atlmfc\include\atlsimpstr.h
; File D:\git\src\IBK\IBK_DRFN\ProjSrc\SrcChartEx\ChartAddIn\ChartEnvSetupDlgAddIn\ChartEnvSetupDlgAddIn\SetItemOfColorListBox.cpp
;	COMDAT ?SetItem_PRICE@CSetItemOfColorListBox@@AAEXPAUIGraphInfo135914@@HPAVCListBoxColorPickerST@@@Z
_TEXT	SEGMENT
_dType$2 = -24						; size = 8
_this$1$ = -16						; size = 4
__$EHRec$ = -12						; size = 12
_p_pIGraphInfo$ = 8					; size = 4
_strColor$3 = 12					; size = 4
_p_nSubGraphIndex$ = 12					; size = 4
_pListBox$ = 16						; size = 4
?SetItem_PRICE@CSetItemOfColorListBox@@AAEXPAUIGraphInfo135914@@HPAVCListBoxColorPickerST@@@Z PROC ; CSetItemOfColorListBox::SetItem_PRICE, COMDAT
; _this$ = ecx

; 102  : {

  00000	55		 push	 ebp
  00001	8b ec		 mov	 ebp, esp
  00003	6a ff		 push	 -1
  00005	68 00 00 00 00	 push	 __ehhandler$?SetItem_PRICE@CSetItemOfColorListBox@@AAEXPAUIGraphInfo135914@@HPAVCListBoxColorPickerST@@@Z
  0000a	64 a1 00 00 00
	00		 mov	 eax, DWORD PTR fs:0
  00010	50		 push	 eax
  00011	83 ec 0c	 sub	 esp, 12			; 0000000cH
  00014	53		 push	 ebx
  00015	56		 push	 esi
  00016	57		 push	 edi
  00017	a1 00 00 00 00	 mov	 eax, DWORD PTR ___security_cookie
  0001c	33 c5		 xor	 eax, ebp
  0001e	50		 push	 eax
  0001f	8d 45 f4	 lea	 eax, DWORD PTR __$EHRec$[ebp]
  00022	64 a3 00 00 00
	00		 mov	 DWORD PTR fs:0, eax
  00028	8b f1		 mov	 esi, ecx
  0002a	89 75 f0	 mov	 DWORD PTR _this$1$[ebp], esi

; 94   : 	if( p_nSubGraphIndex < 0) return false;

  0002d	8b 5d 0c	 mov	 ebx, DWORD PTR _p_nSubGraphIndex$[ebp]
  00030	8b 7d 08	 mov	 edi, DWORD PTR _p_pIGraphInfo$[ebp]
  00033	85 db		 test	 ebx, ebx
  00035	78 60		 js	 SHORT $LN2@SetItem_PR

; 95   : 	if( !p_pIGraphInfo) return false;

  00037	85 ff		 test	 edi, edi
  00039	74 5c		 je	 SHORT $LN2@SetItem_PR

; 96   : 
; 97   : 	return ( p_pIGraphInfo->GetSubGraphStyle( p_nSubGraphIndex) == 2); //라인식

  0003b	8b 07		 mov	 eax, DWORD PTR [edi]
  0003d	8b cf		 mov	 ecx, edi
  0003f	53		 push	 ebx
  00040	ff 50 54	 call	 DWORD PTR [eax+84]

; 103  : 	//test -
; 104  : 	if(IsLineChart( p_pIGraphInfo, p_nSubGraphIndex))

  00043	83 f8 02	 cmp	 eax, 2
  00046	75 4f		 jne	 SHORT $LN2@SetItem_PR

; 207  : 	CString strColor;

  00048	8d 4d 0c	 lea	 ecx, DWORD PTR _strColor$3[ebp]
  0004b	ff 15 00 00 00
	00		 call	 DWORD PTR __imp_??0?$CStringT@DV?$StrTraitMFC_DLL@DV?$ChTraitsCRT@D@ATL@@@@@ATL@@QAE@XZ

; 208  : 	strColor.LoadString(IDS_STRING_COLOR);

  00051	6a 10		 push	 16			; 00000010H
  00053	8d 4d 0c	 lea	 ecx, DWORD PTR _strColor$3[ebp]
  00056	c7 45 fc 00 00
	00 00		 mov	 DWORD PTR __$EHRec$[ebp+8], 0
  0005d	ff 15 00 00 00
	00		 call	 DWORD PTR __imp_?LoadStringA@?$CStringT@DV?$StrTraitMFC_DLL@DV?$ChTraitsCRT@D@ATL@@@@@ATL@@QAEHI@Z

; 210  : 	pListBox->AddString(strColor, p_pIGraphInfo->GetSubGraphColor( p_nSubGraphIndex, 1));

  00063	8b 07		 mov	 eax, DWORD PTR [edi]
  00065	8b cf		 mov	 ecx, edi
; File C:\Program Files (x86)\Microsoft Visual Studio\2019\Community\VC\Tools\MSVC\14.29.30133\atlmfc\include\atlsimpstr.h

; 377  : 		return( m_pszData );

  00067	8b 75 0c	 mov	 esi, DWORD PTR _strColor$3[ebp]
; File D:\git\src\IBK\IBK_DRFN\ProjSrc\SrcChartEx\ChartAddIn\ChartEnvSetupDlgAddIn\ChartEnvSetupDlgAddIn\SetItemOfColorListBox.cpp

; 210  : 	pListBox->AddString(strColor, p_pIGraphInfo->GetSubGraphColor( p_nSubGraphIndex, 1));

  0006a	6a 01		 push	 1
  0006c	53		 push	 ebx
  0006d	ff 50 64	 call	 DWORD PTR [eax+100]
  00070	8b 4d 10	 mov	 ecx, DWORD PTR _pListBox$[ebp]
  00073	50		 push	 eax
  00074	56		 push	 esi
  00075	e8 00 00 00 00	 call	 ?AddString@CListBoxColorPickerST@@QAEHPBDK@Z ; CListBoxColorPickerST::AddString

; 211  : // 2008.01.25 by LYH <<
; 212  : }

  0007a	8d 4d 0c	 lea	 ecx, DWORD PTR _strColor$3[ebp]
  0007d	ff 15 00 00 00
	00		 call	 DWORD PTR __imp_??1?$CStringT@DV?$StrTraitMFC_DLL@DV?$ChTraitsCRT@D@ATL@@@@@ATL@@QAE@XZ

; 116  : 		}
; 117  : 	}
; 118  : }

  00083	8b 4d f4	 mov	 ecx, DWORD PTR __$EHRec$[ebp]
  00086	64 89 0d 00 00
	00 00		 mov	 DWORD PTR fs:0, ecx
  0008d	59		 pop	 ecx
  0008e	5f		 pop	 edi
  0008f	5e		 pop	 esi
  00090	5b		 pop	 ebx
  00091	8b e5		 mov	 esp, ebp
  00093	5d		 pop	 ebp
  00094	c2 0c 00	 ret	 12			; 0000000cH
$LN2@SetItem_PR:

; 105  : 		SetItem_COLOR( p_pIGraphInfo, p_nSubGraphIndex, pListBox);
; 106  : 	else { 
; 107  : 		SetItem_UPDOWN( p_pIGraphInfo, p_nSubGraphIndex, pListBox);

  00097	ff 75 10	 push	 DWORD PTR _pListBox$[ebp]
  0009a	8b ce		 mov	 ecx, esi
  0009c	53		 push	 ebx
  0009d	57		 push	 edi
  0009e	e8 00 00 00 00	 call	 ?SetItem_UPDOWN@CSetItemOfColorListBox@@AAEXPAUIGraphInfo135914@@HPAVCListBoxColorPickerST@@@Z ; CSetItemOfColorListBox::SetItem_UPDOWN

; 108  : 
; 109  : 		IDoubleList *pIConditionList = p_pIGraphInfo->GetCommonCalculateConditionList();

  000a3	8b 07		 mov	 eax, DWORD PTR [edi]
  000a5	8b cf		 mov	 ecx, edi
  000a7	ff 50 10	 call	 DWORD PTR [eax+16]
  000aa	8b f0		 mov	 esi, eax

; 110  : 		if( pIConditionList)

  000ac	85 f6		 test	 esi, esi
  000ae	74 35		 je	 SHORT $LN5@SetItem_PR

; 111  : 		{
; 112  : 			double dType = -1;
; 113  : 			pIConditionList->GetHead( dType);

  000b0	8b 16		 mov	 edx, DWORD PTR [esi]
  000b2	8d 45 e8	 lea	 eax, DWORD PTR _dType$2[ebp]
  000b5	f2 0f 10 05 00
	00 00 00	 movsd	 xmm0, QWORD PTR __real@bff0000000000000
  000bd	8b ce		 mov	 ecx, esi
  000bf	50		 push	 eax
  000c0	f2 0f 11 45 e8	 movsd	 QWORD PTR _dType$2[ebp], xmm0
  000c5	ff 52 18	 call	 DWORD PTR [edx+24]

; 114  : 			pIConditionList->Release();

  000c8	8b 06		 mov	 eax, DWORD PTR [esi]
  000ca	56		 push	 esi
  000cb	ff 50 08	 call	 DWORD PTR [eax+8]

; 115  : 			if( ( int)dType != 2) SetItem_EQUAL( p_pIGraphInfo, p_nSubGraphIndex, pListBox);

  000ce	f2 0f 2c 45 e8	 cvttsd2si eax, QWORD PTR _dType$2[ebp]
  000d3	83 f8 02	 cmp	 eax, 2
  000d6	74 0d		 je	 SHORT $LN5@SetItem_PR
  000d8	ff 75 10	 push	 DWORD PTR _pListBox$[ebp]
  000db	8b 4d f0	 mov	 ecx, DWORD PTR _this$1$[ebp]
  000de	53		 push	 ebx
  000df	57		 push	 edi
  000e0	e8 00 00 00 00	 call	 ?SetItem_EQUAL@CSetItemOfColorListBox@@AAEXPAUIGraphInfo135914@@HPAVCListBoxColorPickerST@@@Z ; CSetItemOfColorListBox::SetItem_EQUAL
$LN5@SetItem_PR:

; 116  : 		}
; 117  : 	}
; 118  : }

  000e5	8b 4d f4	 mov	 ecx, DWORD PTR __$EHRec$[ebp]
  000e8	64 89 0d 00 00
	00 00		 mov	 DWORD PTR fs:0, ecx
  000ef	59		 pop	 ecx
  000f0	5f		 pop	 edi
  000f1	5e		 pop	 esi
  000f2	5b		 pop	 ebx
  000f3	8b e5		 mov	 esp, ebp
  000f5	5d		 pop	 ebp
  000f6	c2 0c 00	 ret	 12			; 0000000cH
_TEXT	ENDS
;	COMDAT text$x
text$x	SEGMENT
__unwindfunclet$?SetItem_PRICE@CSetItemOfColorListBox@@AAEXPAUIGraphInfo135914@@HPAVCListBoxColorPickerST@@@Z$0:
  00000	8d 4d 0c	 lea	 ecx, DWORD PTR _strColor$3[ebp]
  00003	ff 25 00 00 00
	00		 jmp	 DWORD PTR __imp_??1?$CStringT@DV?$StrTraitMFC_DLL@DV?$ChTraitsCRT@D@ATL@@@@@ATL@@QAE@XZ
  00009	cc		 int	 3
  0000a	cc		 int	 3
  0000b	cc		 int	 3
  0000c	cc		 int	 3
  0000d	cc		 int	 3
__ehhandler$?SetItem_PRICE@CSetItemOfColorListBox@@AAEXPAUIGraphInfo135914@@HPAVCListBoxColorPickerST@@@Z:
  0000e	90		 npad	 1
  0000f	90		 npad	 1
  00010	8b 54 24 08	 mov	 edx, DWORD PTR [esp+8]
  00014	8d 42 0c	 lea	 eax, DWORD PTR [edx+12]
  00017	8b 4a e4	 mov	 ecx, DWORD PTR [edx-28]
  0001a	33 c8		 xor	 ecx, eax
  0001c	e8 00 00 00 00	 call	 @__security_check_cookie@4
  00021	b8 00 00 00 00	 mov	 eax, OFFSET __ehfuncinfo$?SetItem_PRICE@CSetItemOfColorListBox@@AAEXPAUIGraphInfo135914@@HPAVCListBoxColorPickerST@@@Z
  00026	e9 00 00 00 00	 jmp	 ___CxxFrameHandler3
text$x	ENDS
?SetItem_PRICE@CSetItemOfColorListBox@@AAEXPAUIGraphInfo135914@@HPAVCListBoxColorPickerST@@@Z ENDP ; CSetItemOfColorListBox::SetItem_PRICE
; Function compile flags: /Ogtp
; File D:\git\src\IBK\IBK_DRFN\ProjSrc\SrcChartEx\ChartAddIn\ChartEnvSetupDlgAddIn\ChartEnvSetupDlgAddIn\SetItemOfColorListBox.cpp
; File C:\Program Files (x86)\Microsoft Visual Studio\2019\Community\VC\Tools\MSVC\14.29.30133\atlmfc\include\atlsimpstr.h
; File D:\git\src\IBK\IBK_DRFN\ProjSrc\SrcChartEx\ChartAddIn\ChartEnvSetupDlgAddIn\ChartEnvSetupDlgAddIn\SetItemOfColorListBox.cpp
;	COMDAT ?SetItem_VOLUME@CSetItemOfColorListBox@@AAEXPAUIGraphInfo135914@@HPAVCListBoxColorPickerST@@@Z
_TEXT	SEGMENT
_dType$2 = -24						; size = 8
_pIConditionList$1$ = -16				; size = 4
__$EHRec$ = -12						; size = 12
_strColor$ = 8						; size = 4
_p_pIGraphInfo$ = 8					; size = 4
_p_nSubGraphIndex$ = 12					; size = 4
_pListBox$ = 16						; size = 4
?SetItem_VOLUME@CSetItemOfColorListBox@@AAEXPAUIGraphInfo135914@@HPAVCListBoxColorPickerST@@@Z PROC ; CSetItemOfColorListBox::SetItem_VOLUME, COMDAT
; _this$ = ecx

; 121  : {

  00000	55		 push	 ebp
  00001	8b ec		 mov	 ebp, esp
  00003	6a ff		 push	 -1
  00005	68 00 00 00 00	 push	 __ehhandler$?SetItem_VOLUME@CSetItemOfColorListBox@@AAEXPAUIGraphInfo135914@@HPAVCListBoxColorPickerST@@@Z
  0000a	64 a1 00 00 00
	00		 mov	 eax, DWORD PTR fs:0
  00010	50		 push	 eax
  00011	83 ec 0c	 sub	 esp, 12			; 0000000cH
  00014	53		 push	 ebx
  00015	56		 push	 esi
  00016	57		 push	 edi
  00017	a1 00 00 00 00	 mov	 eax, DWORD PTR ___security_cookie
  0001c	33 c5		 xor	 eax, ebp
  0001e	50		 push	 eax
  0001f	8d 45 f4	 lea	 eax, DWORD PTR __$EHRec$[ebp]
  00022	64 a3 00 00 00
	00		 mov	 DWORD PTR fs:0, eax
  00028	8b d9		 mov	 ebx, ecx

; 122  : 	//test -
; 123  : 	if( p_nSubGraphIndex < 0) return;

  0002a	8b 75 0c	 mov	 esi, DWORD PTR _p_nSubGraphIndex$[ebp]
  0002d	85 f6		 test	 esi, esi
  0002f	0f 88 c3 00 00
	00		 js	 $LN1@SetItem_VO

; 124  : 	if( p_pIGraphInfo == NULL) return;

  00035	8b 7d 08	 mov	 edi, DWORD PTR _p_pIGraphInfo$[ebp]
  00038	85 ff		 test	 edi, edi
  0003a	0f 84 b8 00 00
	00		 je	 $LN1@SetItem_VO

; 125  : 
; 126  : // 2008.01.25 by LYH >>
; 127  : 	CString strColor;

  00040	8d 4d 08	 lea	 ecx, DWORD PTR _strColor$[ebp]
  00043	ff 15 00 00 00
	00		 call	 DWORD PTR __imp_??0?$CStringT@DV?$StrTraitMFC_DLL@DV?$ChTraitsCRT@D@ATL@@@@@ATL@@QAE@XZ

; 128  : 	strColor.LoadString(IDS_STRING_COLOR);

  00049	6a 10		 push	 16			; 00000010H
  0004b	8d 4d 08	 lea	 ecx, DWORD PTR _strColor$[ebp]
  0004e	c7 45 fc 00 00
	00 00		 mov	 DWORD PTR __$EHRec$[ebp+8], 0
  00055	ff 15 00 00 00
	00		 call	 DWORD PTR __imp_?LoadStringA@?$CStringT@DV?$StrTraitMFC_DLL@DV?$ChTraitsCRT@D@ATL@@@@@ATL@@QAEHI@Z

; 84   : 	IDoubleList *pIConditionList = p_pIGraphInfo->GetDrawConditionList();

  0005b	8b 07		 mov	 eax, DWORD PTR [edi]
  0005d	8b cf		 mov	 ecx, edi
  0005f	ff 50 14	 call	 DWORD PTR [eax+20]
  00062	89 45 f0	 mov	 DWORD PTR _pIConditionList$1$[ebp], eax

; 85   : 	if( !pIConditionList) return -1;

  00065	85 c0		 test	 eax, eax
  00067	74 45		 je	 SHORT $LN4@SetItem_VO

; 86   : 	double dType = -1;

  00069	f2 0f 10 05 00
	00 00 00	 movsd	 xmm0, QWORD PTR __real@bff0000000000000

; 87   : 	pIConditionList->GetHead( dType);

  00071	8d 4d e8	 lea	 ecx, DWORD PTR _dType$2[ebp]
  00074	f2 0f 11 45 e8	 movsd	 QWORD PTR _dType$2[ebp], xmm0
  00079	8b 10		 mov	 edx, DWORD PTR [eax]
  0007b	51		 push	 ecx
  0007c	8b c8		 mov	 ecx, eax
  0007e	ff 52 18	 call	 DWORD PTR [edx+24]

; 88   : 	pIConditionList->Release();

  00081	8b 4d f0	 mov	 ecx, DWORD PTR _pIConditionList$1$[ebp]
  00084	51		 push	 ecx
  00085	8b 01		 mov	 eax, DWORD PTR [ecx]
  00087	ff 50 08	 call	 DWORD PTR [eax+8]

; 89   : 	return ( int)dType;

  0008a	f2 0f 2c 45 e8	 cvttsd2si eax, QWORD PTR _dType$2[ebp]

; 129  : // 2008.01.25 by LYH <<
; 130  : 	//일반
; 131  : 	if(GetVolumeType(p_pIGraphInfo) == 1)

  0008f	83 f8 01	 cmp	 eax, 1
  00092	75 1a		 jne	 SHORT $LN4@SetItem_VO

; 135  : 		pListBox->AddString( strColor, p_pIGraphInfo->GetSubGraphColor( 0, 1));

  00094	8b 07		 mov	 eax, DWORD PTR [edi]
  00096	8b cf		 mov	 ecx, edi
; File C:\Program Files (x86)\Microsoft Visual Studio\2019\Community\VC\Tools\MSVC\14.29.30133\atlmfc\include\atlsimpstr.h

; 377  : 		return( m_pszData );

  00098	8b 75 08	 mov	 esi, DWORD PTR _strColor$[ebp]
; File D:\git\src\IBK\IBK_DRFN\ProjSrc\SrcChartEx\ChartAddIn\ChartEnvSetupDlgAddIn\ChartEnvSetupDlgAddIn\SetItemOfColorListBox.cpp

; 135  : 		pListBox->AddString( strColor, p_pIGraphInfo->GetSubGraphColor( 0, 1));

  0009b	6a 01		 push	 1
  0009d	6a 00		 push	 0
  0009f	ff 50 64	 call	 DWORD PTR [eax+100]
  000a2	8b 4d 10	 mov	 ecx, DWORD PTR _pListBox$[ebp]
  000a5	50		 push	 eax
  000a6	56		 push	 esi
  000a7	e8 00 00 00 00	 call	 ?AddString@CListBoxColorPickerST@@QAEHPBDK@Z ; CListBoxColorPickerST::AddString
  000ac	eb 41		 jmp	 SHORT $LN8@SetItem_VO
$LN4@SetItem_VO:

; 136  : // 2008.01.25 by LYH <<
; 137  : 	else if(GetVolumeType(p_pIGraphInfo) == 2) //상승, 하락

  000ae	57		 push	 edi
  000af	8b cb		 mov	 ecx, ebx
  000b1	e8 00 00 00 00	 call	 ?GetVolumeType@CSetItemOfColorListBox@@AAEHPAUIGraphInfo135914@@@Z ; CSetItemOfColorListBox::GetVolumeType
  000b6	8b cb		 mov	 ecx, ebx
  000b8	83 f8 02	 cmp	 eax, 2
  000bb	75 0c		 jne	 SHORT $LN6@SetItem_VO

; 138  : 		SetItem_UPDOWN(	p_pIGraphInfo, p_nSubGraphIndex, pListBox);

  000bd	ff 75 10	 push	 DWORD PTR _pListBox$[ebp]
  000c0	56		 push	 esi
  000c1	57		 push	 edi
  000c2	e8 00 00 00 00	 call	 ?SetItem_UPDOWN@CSetItemOfColorListBox@@AAEXPAUIGraphInfo135914@@HPAVCListBoxColorPickerST@@@Z ; CSetItemOfColorListBox::SetItem_UPDOWN
  000c7	eb 26		 jmp	 SHORT $LN8@SetItem_VO
$LN6@SetItem_VO:

; 139  : 	else if(GetVolumeType(p_pIGraphInfo) == 3) { //캔들색과 같이

  000c9	57		 push	 edi
  000ca	e8 00 00 00 00	 call	 ?GetVolumeType@CSetItemOfColorListBox@@AAEHPAUIGraphInfo135914@@@Z ; CSetItemOfColorListBox::GetVolumeType
  000cf	83 f8 03	 cmp	 eax, 3
  000d2	75 1b		 jne	 SHORT $LN8@SetItem_VO

; 140  : 		SetItem_UPDOWN(	p_pIGraphInfo, p_nSubGraphIndex, pListBox);

  000d4	8b 75 10	 mov	 esi, DWORD PTR _pListBox$[ebp]
  000d7	8b cb		 mov	 ecx, ebx
  000d9	56		 push	 esi
  000da	ff 75 0c	 push	 DWORD PTR _p_nSubGraphIndex$[ebp]
  000dd	57		 push	 edi
  000de	e8 00 00 00 00	 call	 ?SetItem_UPDOWN@CSetItemOfColorListBox@@AAEXPAUIGraphInfo135914@@HPAVCListBoxColorPickerST@@@Z ; CSetItemOfColorListBox::SetItem_UPDOWN

; 141  : 		SetItem_EQUAL(	p_pIGraphInfo, p_nSubGraphIndex, pListBox);

  000e3	56		 push	 esi
  000e4	ff 75 0c	 push	 DWORD PTR _p_nSubGraphIndex$[ebp]
  000e7	8b cb		 mov	 ecx, ebx
  000e9	57		 push	 edi
  000ea	e8 00 00 00 00	 call	 ?SetItem_EQUAL@CSetItemOfColorListBox@@AAEXPAUIGraphInfo135914@@HPAVCListBoxColorPickerST@@@Z ; CSetItemOfColorListBox::SetItem_EQUAL
$LN8@SetItem_VO:

; 142  : 	}
; 143  : }

  000ef	8d 4d 08	 lea	 ecx, DWORD PTR _strColor$[ebp]
  000f2	ff 15 00 00 00
	00		 call	 DWORD PTR __imp_??1?$CStringT@DV?$StrTraitMFC_DLL@DV?$ChTraitsCRT@D@ATL@@@@@ATL@@QAE@XZ
$LN1@SetItem_VO:
  000f8	8b 4d f4	 mov	 ecx, DWORD PTR __$EHRec$[ebp]
  000fb	64 89 0d 00 00
	00 00		 mov	 DWORD PTR fs:0, ecx
  00102	59		 pop	 ecx
  00103	5f		 pop	 edi
  00104	5e		 pop	 esi
  00105	5b		 pop	 ebx
  00106	8b e5		 mov	 esp, ebp
  00108	5d		 pop	 ebp
  00109	c2 0c 00	 ret	 12			; 0000000cH
_TEXT	ENDS
;	COMDAT text$x
text$x	SEGMENT
__unwindfunclet$?SetItem_VOLUME@CSetItemOfColorListBox@@AAEXPAUIGraphInfo135914@@HPAVCListBoxColorPickerST@@@Z$0:
  00000	8d 4d 08	 lea	 ecx, DWORD PTR _strColor$[ebp]
  00003	ff 25 00 00 00
	00		 jmp	 DWORD PTR __imp_??1?$CStringT@DV?$StrTraitMFC_DLL@DV?$ChTraitsCRT@D@ATL@@@@@ATL@@QAE@XZ
  00009	cc		 int	 3
  0000a	cc		 int	 3
  0000b	cc		 int	 3
  0000c	cc		 int	 3
  0000d	cc		 int	 3
__ehhandler$?SetItem_VOLUME@CSetItemOfColorListBox@@AAEXPAUIGraphInfo135914@@HPAVCListBoxColorPickerST@@@Z:
  0000e	90		 npad	 1
  0000f	90		 npad	 1
  00010	8b 54 24 08	 mov	 edx, DWORD PTR [esp+8]
  00014	8d 42 0c	 lea	 eax, DWORD PTR [edx+12]
  00017	8b 4a e4	 mov	 ecx, DWORD PTR [edx-28]
  0001a	33 c8		 xor	 ecx, eax
  0001c	e8 00 00 00 00	 call	 @__security_check_cookie@4
  00021	b8 00 00 00 00	 mov	 eax, OFFSET __ehfuncinfo$?SetItem_VOLUME@CSetItemOfColorListBox@@AAEXPAUIGraphInfo135914@@HPAVCListBoxColorPickerST@@@Z
  00026	e9 00 00 00 00	 jmp	 ___CxxFrameHandler3
text$x	ENDS
?SetItem_VOLUME@CSetItemOfColorListBox@@AAEXPAUIGraphInfo135914@@HPAVCListBoxColorPickerST@@@Z ENDP ; CSetItemOfColorListBox::SetItem_VOLUME
; Function compile flags: /Ogtp
; File D:\git\src\IBK\IBK_DRFN\ProjSrc\SrcChartEx\ChartAddIn\ChartEnvSetupDlgAddIn\ChartEnvSetupDlgAddIn\SetItemOfColorListBox.cpp
; File D:\git\src\IBK\IBK_DRFN\ProjSrc\SrcChartEx\ChartAddIn\ChartEnvSetupDlgAddIn\Include_AddIn_135914\I135914\_IString.h
; File D:\git\src\IBK\IBK_DRFN\ProjSrc\SrcChartEx\ChartAddIn\ChartEnvSetupDlgAddIn\ChartEnvSetupDlgAddIn\SetItemOfColorListBox.cpp
; File D:\git\src\IBK\IBK_DRFN\ProjSrc\SrcChartEx\ChartAddIn\ChartEnvSetupDlgAddIn\Include_AddIn_135914\I135914\_IString.h
; File D:\git\src\IBK\IBK_DRFN\ProjSrc\SrcChartEx\ChartAddIn\ChartEnvSetupDlgAddIn\ChartEnvSetupDlgAddIn\SetItemOfColorListBox.cpp
;	COMDAT ?SetItem_DAEGIMEMUL@CSetItemOfColorListBox@@AAEXPAUIGraphInfo135914@@HPAVCListBoxColorPickerST@@@Z
_TEXT	SEGMENT
_szGraphName$ = -20					; size = 8
__$EHRec$ = -12						; size = 12
_p_pIGraphInfo$ = 8					; size = 4
_p_nSubGraphIndex$ = 12					; size = 4
_pListBox$ = 16						; size = 4
?SetItem_DAEGIMEMUL@CSetItemOfColorListBox@@AAEXPAUIGraphInfo135914@@HPAVCListBoxColorPickerST@@@Z PROC ; CSetItemOfColorListBox::SetItem_DAEGIMEMUL, COMDAT
; _this$ = ecx

; 172  : {

  00000	55		 push	 ebp
  00001	8b ec		 mov	 ebp, esp
  00003	6a ff		 push	 -1
  00005	68 00 00 00 00	 push	 __ehhandler$?SetItem_DAEGIMEMUL@CSetItemOfColorListBox@@AAEXPAUIGraphInfo135914@@HPAVCListBoxColorPickerST@@@Z
  0000a	64 a1 00 00 00
	00		 mov	 eax, DWORD PTR fs:0
  00010	50		 push	 eax
  00011	83 ec 08	 sub	 esp, 8
  00014	53		 push	 ebx
  00015	56		 push	 esi
  00016	57		 push	 edi
  00017	a1 00 00 00 00	 mov	 eax, DWORD PTR ___security_cookie
  0001c	33 c5		 xor	 eax, ebp
  0001e	50		 push	 eax
  0001f	8d 45 f4	 lea	 eax, DWORD PTR __$EHRec$[ebp]
  00022	64 a3 00 00 00
	00		 mov	 DWORD PTR fs:0, eax

; 173  : 	if( p_nSubGraphIndex < 0 || p_pIGraphInfo->GetSubGraphCount() <= p_nSubGraphIndex) return;

  00028	8b 75 0c	 mov	 esi, DWORD PTR _p_nSubGraphIndex$[ebp]
  0002b	85 f6		 test	 esi, esi
  0002d	0f 88 1a 01 00
	00		 js	 $LN12@SetItem_DA
  00033	8b 5d 08	 mov	 ebx, DWORD PTR _p_pIGraphInfo$[ebp]
  00036	8b cb		 mov	 ecx, ebx
  00038	8b 03		 mov	 eax, DWORD PTR [ebx]
  0003a	ff 50 2c	 call	 DWORD PTR [eax+44]
  0003d	3b c6		 cmp	 eax, esi
  0003f	0f 8e 08 01 00
	00		 jle	 $LN12@SetItem_DA

; 175  : 	ILPCSTR szGraphName = p_pIGraphInfo->GetSubGraphNameString( p_nSubGraphIndex);

  00045	8b 03		 mov	 eax, DWORD PTR [ebx]
  00047	8b cb		 mov	 ecx, ebx
  00049	56		 push	 esi
  0004a	ff 50 3c	 call	 DWORD PTR [eax+60]
; File D:\git\src\IBK\IBK_DRFN\ProjSrc\SrcChartEx\ChartAddIn\ChartEnvSetupDlgAddIn\Include_AddIn_135914\I135914\_IString.h

; 39   : 		m_pIStrData = p_pIString;	// Do not AddRef(). Because It must be Return Value.

  0004d	8b f8		 mov	 edi, eax
  0004f	89 7d f0	 mov	 DWORD PTR _szGraphName$[ebp+4], edi

; 40   : 		if( m_pIStrData) m_szData = m_pIStrData->GetData();

  00052	85 ff		 test	 edi, edi
  00054	74 0b		 je	 SHORT $LN8@SetItem_DA
  00056	8b 17		 mov	 edx, DWORD PTR [edi]
  00058	8b cf		 mov	 ecx, edi
  0005a	ff 52 10	 call	 DWORD PTR [edx+16]
  0005d	8b c8		 mov	 ecx, eax
  0005f	eb 02		 jmp	 SHORT $LN20@SetItem_DA
$LN8@SetItem_DA:

; 41   : 		else m_szData = NULL;

  00061	33 c9		 xor	 ecx, ecx
$LN20@SetItem_DA:
; File D:\git\src\IBK\IBK_DRFN\ProjSrc\SrcChartEx\ChartAddIn\ChartEnvSetupDlgAddIn\ChartEnvSetupDlgAddIn\SetItemOfColorListBox.cpp

; 175  : 	ILPCSTR szGraphName = p_pIGraphInfo->GetSubGraphNameString( p_nSubGraphIndex);

  00063	89 4d ec	 mov	 DWORD PTR _szGraphName$[ebp], ecx

; 176  : 	if( !strcmp( szGraphName, _MTEXT( C3_OVERHANGING_SUPPLY))) 

  00066	a1 54 00 00 00	 mov	 eax, DWORD PTR ?g_iMetaTable@@3VIMetaTable@@A+84
  0006b	c7 45 fc 00 00
	00 00		 mov	 DWORD PTR __$EHRec$[ebp+8], 0
  00072	8b 80 bc 04 00
	00		 mov	 eax, DWORD PTR [eax+1212]
$LL15@SetItem_DA:
  00078	8a 11		 mov	 dl, BYTE PTR [ecx]
  0007a	3a 10		 cmp	 dl, BYTE PTR [eax]
  0007c	75 1a		 jne	 SHORT $LN16@SetItem_DA
  0007e	84 d2		 test	 dl, dl
  00080	74 12		 je	 SHORT $LN17@SetItem_DA
  00082	8a 51 01	 mov	 dl, BYTE PTR [ecx+1]
  00085	3a 50 01	 cmp	 dl, BYTE PTR [eax+1]
  00088	75 0e		 jne	 SHORT $LN16@SetItem_DA
  0008a	83 c1 02	 add	 ecx, 2
  0008d	83 c0 02	 add	 eax, 2
  00090	84 d2		 test	 dl, dl
  00092	75 e4		 jne	 SHORT $LL15@SetItem_DA
$LN17@SetItem_DA:
  00094	33 c0		 xor	 eax, eax
  00096	eb 05		 jmp	 SHORT $LN18@SetItem_DA
$LN16@SetItem_DA:
  00098	1b c0		 sbb	 eax, eax
  0009a	83 c8 01	 or	 eax, 1
$LN18@SetItem_DA:
  0009d	85 c0		 test	 eax, eax
  0009f	0f 85 97 00 00
	00		 jne	 $LN4@SetItem_DA

; 177  : 	{
; 178  : 		//sy 2004.05.13. -> 대기매물의 색에 Text색 변경 가능하게 처리함.
; 179  : 		// 기존 : 기본테두리, 기본바, 최고거래 테두리, 현재가 테두리, 현재가 바
; 180  : 		//2008.01.31 by LYH 사용 안함
; 181  : 		pListBox->AddString("기본매물",		p_pIGraphInfo->GetSubGraphColor( p_nSubGraphIndex, 1));

  000a5	8b 03		 mov	 eax, DWORD PTR [ebx]
  000a7	8b cb		 mov	 ecx, ebx
  000a9	6a 01		 push	 1
  000ab	56		 push	 esi
  000ac	ff 50 64	 call	 DWORD PTR [eax+100]
  000af	8b 75 10	 mov	 esi, DWORD PTR _pListBox$[ebp]
  000b2	8b ce		 mov	 ecx, esi
  000b4	50		 push	 eax
  000b5	68 00 00 00 00	 push	 OFFSET ??_C@_08DMHKNIAN@?$LB?b?$LK?$LL?$LI?E?$LJ?$LA@
  000ba	e8 00 00 00 00	 call	 ?AddString@CListBoxColorPickerST@@QAEHPBDK@Z ; CListBoxColorPickerST::AddString

; 182  : 		pListBox->AddString("기본매물Text",	p_pIGraphInfo->GetSubGraphColor( p_nSubGraphIndex, 2));

  000bf	8b 03		 mov	 eax, DWORD PTR [ebx]
  000c1	8b cb		 mov	 ecx, ebx
  000c3	6a 02		 push	 2
  000c5	ff 75 0c	 push	 DWORD PTR _p_nSubGraphIndex$[ebp]
  000c8	ff 50 64	 call	 DWORD PTR [eax+100]
  000cb	50		 push	 eax
  000cc	68 00 00 00 00	 push	 OFFSET ??_C@_0N@FLJFLKIO@?$LB?b?$LK?$LL?$LI?E?$LJ?$LAText@
  000d1	8b ce		 mov	 ecx, esi
  000d3	e8 00 00 00 00	 call	 ?AddString@CListBoxColorPickerST@@QAEHPBDK@Z ; CListBoxColorPickerST::AddString

; 183  : 		pListBox->AddString("현재매물",		p_pIGraphInfo->GetSubGraphColor( p_nSubGraphIndex, 3));

  000d8	8b 03		 mov	 eax, DWORD PTR [ebx]
  000da	8b cb		 mov	 ecx, ebx
  000dc	6a 03		 push	 3
  000de	ff 75 0c	 push	 DWORD PTR _p_nSubGraphIndex$[ebp]
  000e1	ff 50 64	 call	 DWORD PTR [eax+100]
  000e4	50		 push	 eax
  000e5	68 00 00 00 00	 push	 OFFSET ??_C@_08HEGGBKGK@?G?v?$MA?g?$LI?E?$LJ?$LA@
  000ea	8b ce		 mov	 ecx, esi
  000ec	e8 00 00 00 00	 call	 ?AddString@CListBoxColorPickerST@@QAEHPBDK@Z ; CListBoxColorPickerST::AddString

; 184  : 		pListBox->AddString("현재매물Text", p_pIGraphInfo->GetSubGraphColor( p_nSubGraphIndex, 4));

  000f1	8b 03		 mov	 eax, DWORD PTR [ebx]
  000f3	8b cb		 mov	 ecx, ebx
  000f5	6a 04		 push	 4
  000f7	ff 75 0c	 push	 DWORD PTR _p_nSubGraphIndex$[ebp]
  000fa	ff 50 64	 call	 DWORD PTR [eax+100]
  000fd	50		 push	 eax
  000fe	68 00 00 00 00	 push	 OFFSET ??_C@_0N@PBDPKDOF@?G?v?$MA?g?$LI?E?$LJ?$LAText@
  00103	8b ce		 mov	 ecx, esi
  00105	e8 00 00 00 00	 call	 ?AddString@CListBoxColorPickerST@@QAEHPBDK@Z ; CListBoxColorPickerST::AddString

; 185  : 		pListBox->AddString("최대매물",		p_pIGraphInfo->GetSubGraphColor( p_nSubGraphIndex, 5));

  0010a	8b 03		 mov	 eax, DWORD PTR [ebx]
  0010c	8b cb		 mov	 ecx, ebx
  0010e	6a 05		 push	 5
  00110	ff 75 0c	 push	 DWORD PTR _p_nSubGraphIndex$[ebp]
  00113	ff 50 64	 call	 DWORD PTR [eax+100]
  00116	50		 push	 eax
  00117	68 00 00 00 00	 push	 OFFSET ??_C@_08LPBJBNHD@?C?V?$LE?k?$LI?E?$LJ?$LA@
  0011c	8b ce		 mov	 ecx, esi
  0011e	e8 00 00 00 00	 call	 ?AddString@CListBoxColorPickerST@@QAEHPBDK@Z ; CListBoxColorPickerST::AddString

; 186  : 		pListBox->AddString("최대매물Text", p_pIGraphInfo->GetSubGraphColor( p_nSubGraphIndex, 6));

  00123	8b 03		 mov	 eax, DWORD PTR [ebx]
  00125	8b cb		 mov	 ecx, ebx
  00127	6a 06		 push	 6
  00129	ff 75 0c	 push	 DWORD PTR _p_nSubGraphIndex$[ebp]
  0012c	ff 50 64	 call	 DWORD PTR [eax+100]
  0012f	50		 push	 eax
  00130	68 00 00 00 00	 push	 OFFSET ??_C@_0N@HNHANDHE@?C?V?$LE?k?$LI?E?$LJ?$LAText@
  00135	8b ce		 mov	 ecx, esi
  00137	e8 00 00 00 00	 call	 ?AddString@CListBoxColorPickerST@@QAEHPBDK@Z ; CListBoxColorPickerST::AddString
$LN4@SetItem_DA:
; File D:\git\src\IBK\IBK_DRFN\ProjSrc\SrcChartEx\ChartAddIn\ChartEnvSetupDlgAddIn\Include_AddIn_135914\I135914\_IString.h

; 44   : 	{

  0013c	c7 45 fc 01 00
	00 00		 mov	 DWORD PTR __$EHRec$[ebp+8], 1

; 45   : 		if( m_pIStrData)

  00143	85 ff		 test	 edi, edi
  00145	74 06		 je	 SHORT $LN12@SetItem_DA

; 46   : 		{
; 47   : 			m_pIStrData->Release();

  00147	8b 07		 mov	 eax, DWORD PTR [edi]
  00149	57		 push	 edi
  0014a	ff 50 08	 call	 DWORD PTR [eax+8]
$LN12@SetItem_DA:
; File D:\git\src\IBK\IBK_DRFN\ProjSrc\SrcChartEx\ChartAddIn\ChartEnvSetupDlgAddIn\ChartEnvSetupDlgAddIn\SetItemOfColorListBox.cpp

; 202  : }

  0014d	8b 4d f4	 mov	 ecx, DWORD PTR __$EHRec$[ebp]
  00150	64 89 0d 00 00
	00 00		 mov	 DWORD PTR fs:0, ecx
  00157	59		 pop	 ecx
  00158	5f		 pop	 edi
  00159	5e		 pop	 esi
  0015a	5b		 pop	 ebx
  0015b	8b e5		 mov	 esp, ebp
  0015d	5d		 pop	 ebp
  0015e	c2 0c 00	 ret	 12			; 0000000cH
_TEXT	ENDS
;	COMDAT text$x
text$x	SEGMENT
__unwindfunclet$?SetItem_DAEGIMEMUL@CSetItemOfColorListBox@@AAEXPAUIGraphInfo135914@@HPAVCListBoxColorPickerST@@@Z$0:
  00000	8d 4d ec	 lea	 ecx, DWORD PTR _szGraphName$[ebp]
  00003	e9 00 00 00 00	 jmp	 ??1ILPCSTR135914@@QAE@XZ ; ILPCSTR135914::~ILPCSTR135914
  00008	cc		 int	 3
  00009	cc		 int	 3
  0000a	cc		 int	 3
  0000b	cc		 int	 3
  0000c	cc		 int	 3
__ehhandler$?SetItem_DAEGIMEMUL@CSetItemOfColorListBox@@AAEXPAUIGraphInfo135914@@HPAVCListBoxColorPickerST@@@Z:
  0000d	90		 npad	 1
  0000e	90		 npad	 1
  0000f	8b 54 24 08	 mov	 edx, DWORD PTR [esp+8]
  00013	8d 42 0c	 lea	 eax, DWORD PTR [edx+12]
  00016	8b 4a e8	 mov	 ecx, DWORD PTR [edx-24]
  00019	33 c8		 xor	 ecx, eax
  0001b	e8 00 00 00 00	 call	 @__security_check_cookie@4
  00020	b8 00 00 00 00	 mov	 eax, OFFSET __ehfuncinfo$?SetItem_DAEGIMEMUL@CSetItemOfColorListBox@@AAEXPAUIGraphInfo135914@@HPAVCListBoxColorPickerST@@@Z
  00025	e9 00 00 00 00	 jmp	 ___CxxFrameHandler3
text$x	ENDS
?SetItem_DAEGIMEMUL@CSetItemOfColorListBox@@AAEXPAUIGraphInfo135914@@HPAVCListBoxColorPickerST@@@Z ENDP ; CSetItemOfColorListBox::SetItem_DAEGIMEMUL
; Function compile flags: /Ogtp
; File D:\git\src\IBK\IBK_DRFN\ProjSrc\SrcChartEx\ChartAddIn\ChartEnvSetupDlgAddIn\ChartEnvSetupDlgAddIn\SetItemOfColorListBox.cpp
; File D:\git\src\IBK\IBK_DRFN\ProjSrc\SrcChartEx\ChartAddIn\ChartEnvSetupDlgAddIn\Include_AddIn_135914\I135914\_IString.h
; File D:\git\src\IBK\IBK_DRFN\ProjSrc\SrcChartEx\ChartAddIn\ChartEnvSetupDlgAddIn\ChartEnvSetupDlgAddIn\SetItemOfColorListBox.cpp
; File D:\git\src\IBK\IBK_DRFN\ProjSrc\SrcChartEx\ChartAddIn\ChartEnvSetupDlgAddIn\Include_AddIn_135914\I135914\_IString.h
; File D:\git\src\IBK\IBK_DRFN\ProjSrc\SrcChartEx\ChartAddIn\ChartEnvSetupDlgAddIn\ChartEnvSetupDlgAddIn\SetItemOfColorListBox.cpp
; File D:\git\src\IBK\IBK_DRFN\ProjSrc\SrcChartEx\ChartAddIn\ChartEnvSetupDlgAddIn\Include_AddIn_135914\I135914\_IString.h
; File D:\git\src\IBK\IBK_DRFN\ProjSrc\SrcChartEx\ChartAddIn\ChartEnvSetupDlgAddIn\ChartEnvSetupDlgAddIn\SetItemOfColorListBox.cpp
;	COMDAT ?SetItem_SUBGRAPHNAME@CSetItemOfColorListBox@@AAEXPAUIGraphInfo135914@@HPAVCListBoxColorPickerST@@@Z
_TEXT	SEGMENT
_szGraphName$ = -24					; size = 8
_i$1$ = -16						; size = 4
__$EHRec$ = -12						; size = 12
_p_pIGraphInfo$ = 8					; size = 4
_p_nSubGraphIndex$ = 12					; size = 4
_pListBox$ = 16						; size = 4
?SetItem_SUBGRAPHNAME@CSetItemOfColorListBox@@AAEXPAUIGraphInfo135914@@HPAVCListBoxColorPickerST@@@Z PROC ; CSetItemOfColorListBox::SetItem_SUBGRAPHNAME, COMDAT
; _this$ = ecx

; 216  : {

  00000	55		 push	 ebp
  00001	8b ec		 mov	 ebp, esp
  00003	6a ff		 push	 -1
  00005	68 00 00 00 00	 push	 __ehhandler$?SetItem_SUBGRAPHNAME@CSetItemOfColorListBox@@AAEXPAUIGraphInfo135914@@HPAVCListBoxColorPickerST@@@Z
  0000a	64 a1 00 00 00
	00		 mov	 eax, DWORD PTR fs:0
  00010	50		 push	 eax
  00011	83 ec 0c	 sub	 esp, 12			; 0000000cH
  00014	53		 push	 ebx
  00015	56		 push	 esi
  00016	57		 push	 edi
  00017	a1 00 00 00 00	 mov	 eax, DWORD PTR ___security_cookie
  0001c	33 c5		 xor	 eax, ebp
  0001e	50		 push	 eax
  0001f	8d 45 f4	 lea	 eax, DWORD PTR __$EHRec$[ebp]
  00022	64 a3 00 00 00
	00		 mov	 DWORD PTR fs:0, eax
; File D:\git\src\IBK\IBK_DRFN\ProjSrc\SrcChartEx\ChartAddIn\ChartEnvSetupDlgAddIn\Include_AddIn_135914\I135914\_IString.h

; 39   : 		m_pIStrData = p_pIString;	// Do not AddRef(). Because It must be Return Value.

  00028	33 ff		 xor	 edi, edi
  0002a	89 7d ec	 mov	 DWORD PTR _szGraphName$[ebp+4], edi

; 40   : 		if( m_pIStrData) m_szData = m_pIStrData->GetData();
; 41   : 		else m_szData = NULL;

  0002d	89 7d e8	 mov	 DWORD PTR _szGraphName$[ebp], edi
; File D:\git\src\IBK\IBK_DRFN\ProjSrc\SrcChartEx\ChartAddIn\ChartEnvSetupDlgAddIn\ChartEnvSetupDlgAddIn\SetItemOfColorListBox.cpp

; 218  : 	for(int i = 0 ; i< p_pIGraphInfo->GetSubGraphCount() ; i++)

  00030	8b 5d 08	 mov	 ebx, DWORD PTR _p_pIGraphInfo$[ebp]
  00033	33 f6		 xor	 esi, esi
  00035	8b cb		 mov	 ecx, ebx
  00037	89 7d fc	 mov	 DWORD PTR __$EHRec$[ebp+8], edi
  0003a	89 75 f0	 mov	 DWORD PTR _i$1$[ebp], esi
  0003d	8b 03		 mov	 eax, DWORD PTR [ebx]
  0003f	ff 50 2c	 call	 DWORD PTR [eax+44]
  00042	85 c0		 test	 eax, eax
  00044	7e 55		 jle	 SHORT $LN3@SetItem_SU
$LL4@SetItem_SU:

; 219  : 	{
; 220  : 		szGraphName = p_pIGraphInfo->GetSubGraphNameString( i);

  00046	8b 03		 mov	 eax, DWORD PTR [ebx]
  00048	8b cb		 mov	 ecx, ebx
  0004a	56		 push	 esi
  0004b	ff 50 3c	 call	 DWORD PTR [eax+60]
  0004e	8b f0		 mov	 esi, eax
; File D:\git\src\IBK\IBK_DRFN\ProjSrc\SrcChartEx\ChartAddIn\ChartEnvSetupDlgAddIn\Include_AddIn_135914\I135914\_IString.h

; 67   : 		if( m_pIStrData) m_pIStrData->Release();

  00050	85 ff		 test	 edi, edi
  00052	74 06		 je	 SHORT $LN12@SetItem_SU
  00054	8b 07		 mov	 eax, DWORD PTR [edi]
  00056	57		 push	 edi
  00057	ff 50 08	 call	 DWORD PTR [eax+8]
$LN12@SetItem_SU:

; 68   : 		m_pIStrData = stringSrc;	// Do not AddRef(). Because It must be Return Value.

  0005a	8b fe		 mov	 edi, esi
  0005c	89 7d ec	 mov	 DWORD PTR _szGraphName$[ebp+4], edi
  0005f	85 f6		 test	 esi, esi

; 69   : 		if( m_pIStrData) m_szData = m_pIStrData->GetData();

  00061	74 0b		 je	 SHORT $LN13@SetItem_SU
  00063	8b 06		 mov	 eax, DWORD PTR [esi]
  00065	8b ce		 mov	 ecx, esi
  00067	ff 50 10	 call	 DWORD PTR [eax+16]
  0006a	8b f0		 mov	 esi, eax
  0006c	eb 02		 jmp	 SHORT $LN25@SetItem_SU
$LN13@SetItem_SU:

; 70   : 		else m_szData = NULL;

  0006e	33 f6		 xor	 esi, esi
$LN25@SetItem_SU:
; File D:\git\src\IBK\IBK_DRFN\ProjSrc\SrcChartEx\ChartAddIn\ChartEnvSetupDlgAddIn\ChartEnvSetupDlgAddIn\SetItemOfColorListBox.cpp

; 221  : 		pListBox->AddString( szGraphName, p_pIGraphInfo->GetSubGraphColor( i, 1));

  00070	8b 03		 mov	 eax, DWORD PTR [ebx]
  00072	8b cb		 mov	 ecx, ebx
  00074	6a 01		 push	 1
  00076	ff 75 f0	 push	 DWORD PTR _i$1$[ebp]
  00079	89 75 e8	 mov	 DWORD PTR _szGraphName$[ebp], esi
  0007c	ff 50 64	 call	 DWORD PTR [eax+100]
  0007f	8b 4d 10	 mov	 ecx, DWORD PTR _pListBox$[ebp]
  00082	50		 push	 eax
  00083	56		 push	 esi
  00084	e8 00 00 00 00	 call	 ?AddString@CListBoxColorPickerST@@QAEHPBDK@Z ; CListBoxColorPickerST::AddString
  00089	8b 75 f0	 mov	 esi, DWORD PTR _i$1$[ebp]
  0008c	8b cb		 mov	 ecx, ebx
  0008e	8b 03		 mov	 eax, DWORD PTR [ebx]
  00090	46		 inc	 esi
  00091	89 75 f0	 mov	 DWORD PTR _i$1$[ebp], esi
  00094	ff 50 2c	 call	 DWORD PTR [eax+44]
  00097	3b f0		 cmp	 esi, eax
  00099	7c ab		 jl	 SHORT $LL4@SetItem_SU
$LN3@SetItem_SU:
; File D:\git\src\IBK\IBK_DRFN\ProjSrc\SrcChartEx\ChartAddIn\ChartEnvSetupDlgAddIn\Include_AddIn_135914\I135914\_IString.h

; 44   : 	{

  0009b	c7 45 fc 01 00
	00 00		 mov	 DWORD PTR __$EHRec$[ebp+8], 1

; 45   : 		if( m_pIStrData)

  000a2	85 ff		 test	 edi, edi
  000a4	74 06		 je	 SHORT $LN17@SetItem_SU

; 46   : 		{
; 47   : 			m_pIStrData->Release();

  000a6	8b 07		 mov	 eax, DWORD PTR [edi]
  000a8	57		 push	 edi
  000a9	ff 50 08	 call	 DWORD PTR [eax+8]
$LN17@SetItem_SU:
; File D:\git\src\IBK\IBK_DRFN\ProjSrc\SrcChartEx\ChartAddIn\ChartEnvSetupDlgAddIn\ChartEnvSetupDlgAddIn\SetItemOfColorListBox.cpp

; 223  : }

  000ac	8b 4d f4	 mov	 ecx, DWORD PTR __$EHRec$[ebp]
  000af	64 89 0d 00 00
	00 00		 mov	 DWORD PTR fs:0, ecx
  000b6	59		 pop	 ecx
  000b7	5f		 pop	 edi
  000b8	5e		 pop	 esi
  000b9	5b		 pop	 ebx
  000ba	8b e5		 mov	 esp, ebp
  000bc	5d		 pop	 ebp
  000bd	c2 0c 00	 ret	 12			; 0000000cH
_TEXT	ENDS
;	COMDAT text$x
text$x	SEGMENT
__unwindfunclet$?SetItem_SUBGRAPHNAME@CSetItemOfColorListBox@@AAEXPAUIGraphInfo135914@@HPAVCListBoxColorPickerST@@@Z$0:
  00000	8d 4d e8	 lea	 ecx, DWORD PTR _szGraphName$[ebp]
  00003	e9 00 00 00 00	 jmp	 ??1ILPCSTR135914@@QAE@XZ ; ILPCSTR135914::~ILPCSTR135914
  00008	cc		 int	 3
  00009	cc		 int	 3
  0000a	cc		 int	 3
  0000b	cc		 int	 3
  0000c	cc		 int	 3
__ehhandler$?SetItem_SUBGRAPHNAME@CSetItemOfColorListBox@@AAEXPAUIGraphInfo135914@@HPAVCListBoxColorPickerST@@@Z:
  0000d	90		 npad	 1
  0000e	90		 npad	 1
  0000f	8b 54 24 08	 mov	 edx, DWORD PTR [esp+8]
  00013	8d 42 0c	 lea	 eax, DWORD PTR [edx+12]
  00016	8b 4a e4	 mov	 ecx, DWORD PTR [edx-28]
  00019	33 c8		 xor	 ecx, eax
  0001b	e8 00 00 00 00	 call	 @__security_check_cookie@4
  00020	b8 00 00 00 00	 mov	 eax, OFFSET __ehfuncinfo$?SetItem_SUBGRAPHNAME@CSetItemOfColorListBox@@AAEXPAUIGraphInfo135914@@HPAVCListBoxColorPickerST@@@Z
  00025	e9 00 00 00 00	 jmp	 ___CxxFrameHandler3
text$x	ENDS
?SetItem_SUBGRAPHNAME@CSetItemOfColorListBox@@AAEXPAUIGraphInfo135914@@HPAVCListBoxColorPickerST@@@Z ENDP ; CSetItemOfColorListBox::SetItem_SUBGRAPHNAME
; Function compile flags: /Ogtp
; File D:\git\src\IBK\IBK_DRFN\ProjSrc\SrcChartEx\ChartAddIn\ChartEnvSetupDlgAddIn\ChartEnvSetupDlgAddIn\SetItemOfColorListBox.cpp
;	COMDAT ?SetItem_RAINBOW@CSetItemOfColorListBox@@AAEXPAUIGraphInfo135914@@HPAVCListBoxColorPickerST@@@Z
_TEXT	SEGMENT
_p_pIGraphInfo$ = 8					; size = 4
_p_nSubGraphIndex$ = 12					; size = 4
_pListBox$ = 16						; size = 4
?SetItem_RAINBOW@CSetItemOfColorListBox@@AAEXPAUIGraphInfo135914@@HPAVCListBoxColorPickerST@@@Z PROC ; CSetItemOfColorListBox::SetItem_RAINBOW, COMDAT
; _this$ = ecx

; 227  : {

  00000	55		 push	 ebp
  00001	8b ec		 mov	 ebp, esp
  00003	57		 push	 edi

; 228  : 	pListBox->AddString("시작색상", p_pIGraphInfo->GetSubGraphColor( 0, 1));

  00004	8b 7d 08	 mov	 edi, DWORD PTR _p_pIGraphInfo$[ebp]
  00007	8b cf		 mov	 ecx, edi
  00009	6a 01		 push	 1
  0000b	6a 00		 push	 0
  0000d	8b 07		 mov	 eax, DWORD PTR [edi]
  0000f	ff 50 64	 call	 DWORD PTR [eax+100]
  00012	8b 4d 10	 mov	 ecx, DWORD PTR _pListBox$[ebp]
  00015	50		 push	 eax
  00016	68 00 00 00 00	 push	 OFFSET ??_C@_08NCJACMNJ@?$LN?C?$MA?$NL?$LL?v?$LL?s@
  0001b	e8 00 00 00 00	 call	 ?AddString@CListBoxColorPickerST@@QAEHPBDK@Z ; CListBoxColorPickerST::AddString

; 229  : 	pListBox->AddString("종료색상", p_pIGraphInfo->GetSubGraphColor( 0, 2));

  00020	8b 07		 mov	 eax, DWORD PTR [edi]
  00022	8b cf		 mov	 ecx, edi
  00024	6a 02		 push	 2
  00026	6a 00		 push	 0
  00028	ff 50 64	 call	 DWORD PTR [eax+100]
  0002b	8b 4d 10	 mov	 ecx, DWORD PTR _pListBox$[ebp]
  0002e	50		 push	 eax
  0002f	68 00 00 00 00	 push	 OFFSET ??_C@_08HPHMFCDH@?A?$LO?$LH?a?$LL?v?$LL?s@
  00034	e8 00 00 00 00	 call	 ?AddString@CListBoxColorPickerST@@QAEHPBDK@Z ; CListBoxColorPickerST::AddString
  00039	5f		 pop	 edi

; 230  : }

  0003a	5d		 pop	 ebp
  0003b	c2 0c 00	 ret	 12			; 0000000cH
?SetItem_RAINBOW@CSetItemOfColorListBox@@AAEXPAUIGraphInfo135914@@HPAVCListBoxColorPickerST@@@Z ENDP ; CSetItemOfColorListBox::SetItem_RAINBOW
_TEXT	ENDS
; Function compile flags: /Ogtp
; File D:\git\src\IBK\IBK_DRFN\ProjSrc\SrcChartEx\ChartAddIn\ChartEnvSetupDlgAddIn\ChartEnvSetupDlgAddIn\SetItemOfColorListBox.cpp
; File D:\git\src\IBK\IBK_DRFN\ProjSrc\SrcChartEx\ChartAddIn\ChartEnvSetupDlgAddIn\Include_AddIn_135914\I135914\_IString.h
; File D:\git\src\IBK\IBK_DRFN\ProjSrc\SrcChartEx\ChartAddIn\ChartEnvSetupDlgAddIn\ChartEnvSetupDlgAddIn\SetItemOfColorListBox.cpp
; File D:\git\src\IBK\IBK_DRFN\ProjSrc\SrcChartEx\ChartAddIn\ChartEnvSetupDlgAddIn\Include_AddIn_135914\I135914\_IString.h
; File D:\git\src\IBK\IBK_DRFN\ProjSrc\SrcChartEx\ChartAddIn\ChartEnvSetupDlgAddIn\ChartEnvSetupDlgAddIn\SetItemOfColorListBox.cpp
;	COMDAT ?SetItem_SUB_UPFILL_DOWNFILL@CSetItemOfColorListBox@@AAEXPAUIGraphInfo135914@@HPAVCListBoxColorPickerST@@@Z
_TEXT	SEGMENT
_szGraphName$ = -20					; size = 8
__$EHRec$ = -12						; size = 12
_p_pIGraphInfo$ = 8					; size = 4
_p_nSubGraphIndex$ = 12					; size = 4
_pListBox$ = 16						; size = 4
?SetItem_SUB_UPFILL_DOWNFILL@CSetItemOfColorListBox@@AAEXPAUIGraphInfo135914@@HPAVCListBoxColorPickerST@@@Z PROC ; CSetItemOfColorListBox::SetItem_SUB_UPFILL_DOWNFILL, COMDAT
; _this$ = ecx

; 233  : {

  00000	55		 push	 ebp
  00001	8b ec		 mov	 ebp, esp
  00003	6a ff		 push	 -1
  00005	68 00 00 00 00	 push	 __ehhandler$?SetItem_SUB_UPFILL_DOWNFILL@CSetItemOfColorListBox@@AAEXPAUIGraphInfo135914@@HPAVCListBoxColorPickerST@@@Z
  0000a	64 a1 00 00 00
	00		 mov	 eax, DWORD PTR fs:0
  00010	50		 push	 eax
  00011	83 ec 08	 sub	 esp, 8
  00014	53		 push	 ebx
  00015	56		 push	 esi
  00016	57		 push	 edi
  00017	a1 00 00 00 00	 mov	 eax, DWORD PTR ___security_cookie
  0001c	33 c5		 xor	 eax, ebp
  0001e	50		 push	 eax
  0001f	8d 45 f4	 lea	 eax, DWORD PTR __$EHRec$[ebp]
  00022	64 a3 00 00 00
	00		 mov	 DWORD PTR fs:0, eax

; 234  : 	ILPCSTR szGraphName = p_pIGraphInfo->GetSubGraphNameString( p_nSubGraphIndex);

  00028	8b 5d 08	 mov	 ebx, DWORD PTR _p_pIGraphInfo$[ebp]
  0002b	8b cb		 mov	 ecx, ebx
  0002d	ff 75 0c	 push	 DWORD PTR _p_nSubGraphIndex$[ebp]
  00030	8b 03		 mov	 eax, DWORD PTR [ebx]
  00032	ff 50 3c	 call	 DWORD PTR [eax+60]
; File D:\git\src\IBK\IBK_DRFN\ProjSrc\SrcChartEx\ChartAddIn\ChartEnvSetupDlgAddIn\Include_AddIn_135914\I135914\_IString.h

; 39   : 		m_pIStrData = p_pIString;	// Do not AddRef(). Because It must be Return Value.

  00035	8b f8		 mov	 edi, eax
  00037	89 7d f0	 mov	 DWORD PTR _szGraphName$[ebp+4], edi

; 40   : 		if( m_pIStrData) m_szData = m_pIStrData->GetData();

  0003a	85 ff		 test	 edi, edi
  0003c	74 0b		 je	 SHORT $LN5@SetItem_SU
  0003e	8b 17		 mov	 edx, DWORD PTR [edi]
  00040	8b cf		 mov	 ecx, edi
  00042	ff 52 10	 call	 DWORD PTR [edx+16]
  00045	8b f0		 mov	 esi, eax
  00047	eb 02		 jmp	 SHORT $LN13@SetItem_SU
$LN5@SetItem_SU:

; 41   : 		else m_szData = NULL;

  00049	33 f6		 xor	 esi, esi
$LN13@SetItem_SU:
; File D:\git\src\IBK\IBK_DRFN\ProjSrc\SrcChartEx\ChartAddIn\ChartEnvSetupDlgAddIn\ChartEnvSetupDlgAddIn\SetItemOfColorListBox.cpp

; 234  : 	ILPCSTR szGraphName = p_pIGraphInfo->GetSubGraphNameString( p_nSubGraphIndex);

  0004b	89 75 ec	 mov	 DWORD PTR _szGraphName$[ebp], esi

; 235  : 	pListBox->AddString( szGraphName,	p_pIGraphInfo->GetSubGraphColor( p_nSubGraphIndex, 5));

  0004e	8b 03		 mov	 eax, DWORD PTR [ebx]
  00050	8b cb		 mov	 ecx, ebx
  00052	6a 05		 push	 5
  00054	ff 75 0c	 push	 DWORD PTR _p_nSubGraphIndex$[ebp]
  00057	c7 45 fc 00 00
	00 00		 mov	 DWORD PTR __$EHRec$[ebp+8], 0
  0005e	ff 50 64	 call	 DWORD PTR [eax+100]
  00061	50		 push	 eax
  00062	56		 push	 esi
  00063	8b 75 10	 mov	 esi, DWORD PTR _pListBox$[ebp]
  00066	8b ce		 mov	 ecx, esi
  00068	e8 00 00 00 00	 call	 ?AddString@CListBoxColorPickerST@@QAEHPBDK@Z ; CListBoxColorPickerST::AddString

; 236  : 	pListBox->AddString( "상승채움",	p_pIGraphInfo->GetSubGraphColor( p_nSubGraphIndex, 2));

  0006d	8b 03		 mov	 eax, DWORD PTR [ebx]
  0006f	8b cb		 mov	 ecx, ebx
  00071	6a 02		 push	 2
  00073	ff 75 0c	 push	 DWORD PTR _p_nSubGraphIndex$[ebp]
  00076	ff 50 64	 call	 DWORD PTR [eax+100]
  00079	50		 push	 eax
  0007a	68 00 00 00 00	 push	 OFFSET ??_C@_08DLJFBBCM@?$LL?s?$LN?B?C?$KE?$LP?r@
  0007f	8b ce		 mov	 ecx, esi
  00081	e8 00 00 00 00	 call	 ?AddString@CListBoxColorPickerST@@QAEHPBDK@Z ; CListBoxColorPickerST::AddString

; 237  : 	pListBox->AddString( "하락채움",	p_pIGraphInfo->GetSubGraphColor( p_nSubGraphIndex, 4));

  00086	8b 03		 mov	 eax, DWORD PTR [ebx]
  00088	8b cb		 mov	 ecx, ebx
  0008a	6a 04		 push	 4
  0008c	ff 75 0c	 push	 DWORD PTR _p_nSubGraphIndex$[ebp]
  0008f	ff 50 64	 call	 DWORD PTR [eax+100]
  00092	50		 push	 eax
  00093	68 00 00 00 00	 push	 OFFSET ??_C@_08CPEENHJF@?G?O?$LG?t?C?$KE?$LP?r@
  00098	8b ce		 mov	 ecx, esi
  0009a	e8 00 00 00 00	 call	 ?AddString@CListBoxColorPickerST@@QAEHPBDK@Z ; CListBoxColorPickerST::AddString
; File D:\git\src\IBK\IBK_DRFN\ProjSrc\SrcChartEx\ChartAddIn\ChartEnvSetupDlgAddIn\Include_AddIn_135914\I135914\_IString.h

; 44   : 	{

  0009f	c7 45 fc 01 00
	00 00		 mov	 DWORD PTR __$EHRec$[ebp+8], 1

; 45   : 		if( m_pIStrData)

  000a6	85 ff		 test	 edi, edi
  000a8	74 06		 je	 SHORT $LN9@SetItem_SU

; 46   : 		{
; 47   : 			m_pIStrData->Release();

  000aa	8b 07		 mov	 eax, DWORD PTR [edi]
  000ac	57		 push	 edi
  000ad	ff 50 08	 call	 DWORD PTR [eax+8]
$LN9@SetItem_SU:
; File D:\git\src\IBK\IBK_DRFN\ProjSrc\SrcChartEx\ChartAddIn\ChartEnvSetupDlgAddIn\ChartEnvSetupDlgAddIn\SetItemOfColorListBox.cpp

; 238  : }

  000b0	8b 4d f4	 mov	 ecx, DWORD PTR __$EHRec$[ebp]
  000b3	64 89 0d 00 00
	00 00		 mov	 DWORD PTR fs:0, ecx
  000ba	59		 pop	 ecx
  000bb	5f		 pop	 edi
  000bc	5e		 pop	 esi
  000bd	5b		 pop	 ebx
  000be	8b e5		 mov	 esp, ebp
  000c0	5d		 pop	 ebp
  000c1	c2 0c 00	 ret	 12			; 0000000cH
_TEXT	ENDS
;	COMDAT text$x
text$x	SEGMENT
__unwindfunclet$?SetItem_SUB_UPFILL_DOWNFILL@CSetItemOfColorListBox@@AAEXPAUIGraphInfo135914@@HPAVCListBoxColorPickerST@@@Z$0:
  00000	8d 4d ec	 lea	 ecx, DWORD PTR _szGraphName$[ebp]
  00003	e9 00 00 00 00	 jmp	 ??1ILPCSTR135914@@QAE@XZ ; ILPCSTR135914::~ILPCSTR135914
  00008	cc		 int	 3
  00009	cc		 int	 3
  0000a	cc		 int	 3
  0000b	cc		 int	 3
  0000c	cc		 int	 3
__ehhandler$?SetItem_SUB_UPFILL_DOWNFILL@CSetItemOfColorListBox@@AAEXPAUIGraphInfo135914@@HPAVCListBoxColorPickerST@@@Z:
  0000d	90		 npad	 1
  0000e	90		 npad	 1
  0000f	8b 54 24 08	 mov	 edx, DWORD PTR [esp+8]
  00013	8d 42 0c	 lea	 eax, DWORD PTR [edx+12]
  00016	8b 4a e8	 mov	 ecx, DWORD PTR [edx-24]
  00019	33 c8		 xor	 ecx, eax
  0001b	e8 00 00 00 00	 call	 @__security_check_cookie@4
  00020	b8 00 00 00 00	 mov	 eax, OFFSET __ehfuncinfo$?SetItem_SUB_UPFILL_DOWNFILL@CSetItemOfColorListBox@@AAEXPAUIGraphInfo135914@@HPAVCListBoxColorPickerST@@@Z
  00025	e9 00 00 00 00	 jmp	 ___CxxFrameHandler3
text$x	ENDS
?SetItem_SUB_UPFILL_DOWNFILL@CSetItemOfColorListBox@@AAEXPAUIGraphInfo135914@@HPAVCListBoxColorPickerST@@@Z ENDP ; CSetItemOfColorListBox::SetItem_SUB_UPFILL_DOWNFILL
; Function compile flags: /Ogtp
; File D:\git\src\IBK\IBK_DRFN\ProjSrc\SrcChartEx\ChartAddIn\ChartEnvSetupDlgAddIn\ChartEnvSetupDlgAddIn\SetItemOfColorListBox.cpp
; File D:\git\src\IBK\IBK_DRFN\ProjSrc\SrcChartEx\ChartAddIn\ChartEnvSetupDlgAddIn\Include_AddIn_135914\I135914\_IString.h
; File D:\git\src\IBK\IBK_DRFN\ProjSrc\SrcChartEx\ChartAddIn\ChartEnvSetupDlgAddIn\ChartEnvSetupDlgAddIn\SetItemOfColorListBox.cpp
; File D:\git\src\IBK\IBK_DRFN\ProjSrc\SrcChartEx\ChartAddIn\ChartEnvSetupDlgAddIn\Include_AddIn_135914\I135914\_IString.h
; File D:\git\src\IBK\IBK_DRFN\ProjSrc\SrcChartEx\ChartAddIn\ChartEnvSetupDlgAddIn\ChartEnvSetupDlgAddIn\SetItemOfColorListBox.cpp
; File D:\git\src\IBK\IBK_DRFN\ProjSrc\SrcChartEx\ChartAddIn\ChartEnvSetupDlgAddIn\Include_AddIn_135914\I135914\_IString.h
; File D:\git\src\IBK\IBK_DRFN\ProjSrc\SrcChartEx\ChartAddIn\ChartEnvSetupDlgAddIn\ChartEnvSetupDlgAddIn\SetItemOfColorListBox.cpp
;	COMDAT ?SetItem_GLANCEBLANCE@CSetItemOfColorListBox@@AAEXPAUIGraphInfo135914@@HPAVCListBoxColorPickerST@@@Z
_TEXT	SEGMENT
_szSubGraphName$ = -24					; size = 8
_i$1$ = -16						; size = 4
__$EHRec$ = -12						; size = 12
_p_pIGraphInfo$ = 8					; size = 4
_p_nSubGraphIndex$ = 12					; size = 4
_pListBox$ = 16						; size = 4
?SetItem_GLANCEBLANCE@CSetItemOfColorListBox@@AAEXPAUIGraphInfo135914@@HPAVCListBoxColorPickerST@@@Z PROC ; CSetItemOfColorListBox::SetItem_GLANCEBLANCE, COMDAT
; _this$ = ecx

; 273  : {

  00000	55		 push	 ebp
  00001	8b ec		 mov	 ebp, esp
  00003	6a ff		 push	 -1
  00005	68 00 00 00 00	 push	 __ehhandler$?SetItem_GLANCEBLANCE@CSetItemOfColorListBox@@AAEXPAUIGraphInfo135914@@HPAVCListBoxColorPickerST@@@Z
  0000a	64 a1 00 00 00
	00		 mov	 eax, DWORD PTR fs:0
  00010	50		 push	 eax
  00011	83 ec 0c	 sub	 esp, 12			; 0000000cH
  00014	53		 push	 ebx
  00015	56		 push	 esi
  00016	57		 push	 edi
  00017	a1 00 00 00 00	 mov	 eax, DWORD PTR ___security_cookie
  0001c	33 c5		 xor	 eax, ebp
  0001e	50		 push	 eax
  0001f	8d 45 f4	 lea	 eax, DWORD PTR __$EHRec$[ebp]
  00022	64 a3 00 00 00
	00		 mov	 DWORD PTR fs:0, eax
; File D:\git\src\IBK\IBK_DRFN\ProjSrc\SrcChartEx\ChartAddIn\ChartEnvSetupDlgAddIn\Include_AddIn_135914\I135914\_IString.h

; 39   : 		m_pIStrData = p_pIString;	// Do not AddRef(). Because It must be Return Value.

  00028	33 db		 xor	 ebx, ebx
  0002a	89 5d ec	 mov	 DWORD PTR _szSubGraphName$[ebp+4], ebx

; 40   : 		if( m_pIStrData) m_szData = m_pIStrData->GetData();
; 41   : 		else m_szData = NULL;

  0002d	89 5d e8	 mov	 DWORD PTR _szSubGraphName$[ebp], ebx
; File D:\git\src\IBK\IBK_DRFN\ProjSrc\SrcChartEx\ChartAddIn\ChartEnvSetupDlgAddIn\ChartEnvSetupDlgAddIn\SetItemOfColorListBox.cpp

; 275  : 	for( int i = 0 ; i <  p_pIGraphInfo->GetSubGraphCount() ; i++)

  00030	8b 75 08	 mov	 esi, DWORD PTR _p_pIGraphInfo$[ebp]
  00033	33 ff		 xor	 edi, edi
  00035	8b ce		 mov	 ecx, esi
  00037	89 5d fc	 mov	 DWORD PTR __$EHRec$[ebp+8], ebx
  0003a	89 7d f0	 mov	 DWORD PTR _i$1$[ebp], edi
  0003d	8b 06		 mov	 eax, DWORD PTR [esi]
  0003f	ff 50 2c	 call	 DWORD PTR [eax+44]
  00042	85 c0		 test	 eax, eax
  00044	0f 8e c0 00 00
	00		 jle	 $LN3@SetItem_GL
  0004a	66 0f 1f 44 00
	00		 npad	 6
$LL4@SetItem_GL:

; 276  : 	{
; 277  : 		szSubGraphName = p_pIGraphInfo->GetSubGraphNameString( i);

  00050	8b 06		 mov	 eax, DWORD PTR [esi]
  00052	8b ce		 mov	 ecx, esi
  00054	57		 push	 edi
  00055	ff 50 3c	 call	 DWORD PTR [eax+60]
  00058	8b f8		 mov	 edi, eax
; File D:\git\src\IBK\IBK_DRFN\ProjSrc\SrcChartEx\ChartAddIn\ChartEnvSetupDlgAddIn\Include_AddIn_135914\I135914\_IString.h

; 67   : 		if( m_pIStrData) m_pIStrData->Release();

  0005a	85 db		 test	 ebx, ebx
  0005c	74 06		 je	 SHORT $LN14@SetItem_GL
  0005e	8b 0b		 mov	 ecx, DWORD PTR [ebx]
  00060	53		 push	 ebx
  00061	ff 51 08	 call	 DWORD PTR [ecx+8]
$LN14@SetItem_GL:

; 68   : 		m_pIStrData = stringSrc;	// Do not AddRef(). Because It must be Return Value.

  00064	8b df		 mov	 ebx, edi
  00066	89 5d ec	 mov	 DWORD PTR _szSubGraphName$[ebp+4], ebx
  00069	85 ff		 test	 edi, edi

; 69   : 		if( m_pIStrData) m_szData = m_pIStrData->GetData();

  0006b	74 0b		 je	 SHORT $LN15@SetItem_GL
  0006d	8b 07		 mov	 eax, DWORD PTR [edi]
  0006f	8b cf		 mov	 ecx, edi
  00071	ff 50 10	 call	 DWORD PTR [eax+16]
  00074	8b f8		 mov	 edi, eax
  00076	eb 02		 jmp	 SHORT $LN31@SetItem_GL
$LN15@SetItem_GL:

; 70   : 		else m_szData = NULL;

  00078	33 ff		 xor	 edi, edi
$LN31@SetItem_GL:
; File D:\git\src\IBK\IBK_DRFN\ProjSrc\SrcChartEx\ChartAddIn\ChartEnvSetupDlgAddIn\ChartEnvSetupDlgAddIn\SetItemOfColorListBox.cpp

; 278  : 		if( !strcmp( szSubGraphName, "선행스팬"))

  0007a	89 7d e8	 mov	 DWORD PTR _szSubGraphName$[ebp], edi
  0007d	b8 00 00 00 00	 mov	 eax, OFFSET ??_C@_08OLAJLFC@?$LM?$LB?G?$OA?$LN?$LK?F?R@
  00082	8b cf		 mov	 ecx, edi
$LL26@SetItem_GL:
  00084	8a 11		 mov	 dl, BYTE PTR [ecx]
  00086	3a 10		 cmp	 dl, BYTE PTR [eax]
  00088	75 1a		 jne	 SHORT $LN27@SetItem_GL
  0008a	84 d2		 test	 dl, dl
  0008c	74 12		 je	 SHORT $LN28@SetItem_GL
  0008e	8a 51 01	 mov	 dl, BYTE PTR [ecx+1]
  00091	3a 50 01	 cmp	 dl, BYTE PTR [eax+1]
  00094	75 0e		 jne	 SHORT $LN27@SetItem_GL
  00096	83 c1 02	 add	 ecx, 2
  00099	83 c0 02	 add	 eax, 2
  0009c	84 d2		 test	 dl, dl
  0009e	75 e4		 jne	 SHORT $LL26@SetItem_GL
$LN28@SetItem_GL:
  000a0	33 c0		 xor	 eax, eax
  000a2	eb 05		 jmp	 SHORT $LN29@SetItem_GL
$LN27@SetItem_GL:
  000a4	1b c0		 sbb	 eax, eax
  000a6	83 c8 01	 or	 eax, 1
$LN29@SetItem_GL:
  000a9	8b 16		 mov	 edx, DWORD PTR [esi]
  000ab	8b ce		 mov	 ecx, esi
  000ad	85 c0		 test	 eax, eax
  000af	75 31		 jne	 SHORT $LN5@SetItem_GL

; 279  : 		{
; 280  : 			pListBox->AddString( "상승구름띠", p_pIGraphInfo->GetSubGraphColor( i, 2));

  000b1	8b 7d f0	 mov	 edi, DWORD PTR _i$1$[ebp]
  000b4	6a 02		 push	 2
  000b6	57		 push	 edi
  000b7	ff 52 64	 call	 DWORD PTR [edx+100]
  000ba	8b 4d 10	 mov	 ecx, DWORD PTR _pListBox$[ebp]
  000bd	50		 push	 eax
  000be	68 00 00 00 00	 push	 OFFSET ??_C@_0L@CBIJGOOJ@?$LL?s?$LN?B?$LB?$LI?$LI?$KH?$LG?l@
  000c3	e8 00 00 00 00	 call	 ?AddString@CListBoxColorPickerST@@QAEHPBDK@Z ; CListBoxColorPickerST::AddString

; 281  : 			pListBox->AddString( "하락구름띠", p_pIGraphInfo->GetSubGraphColor( i, 4));

  000c8	8b 06		 mov	 eax, DWORD PTR [esi]
  000ca	8b ce		 mov	 ecx, esi
  000cc	6a 04		 push	 4
  000ce	57		 push	 edi
  000cf	ff 50 64	 call	 DWORD PTR [eax+100]
  000d2	8b 4d 10	 mov	 ecx, DWORD PTR _pListBox$[ebp]
  000d5	50		 push	 eax
  000d6	68 00 00 00 00	 push	 OFFSET ??_C@_0L@GGIJAIEM@?G?O?$LG?t?$LB?$LI?$LI?$KH?$LG?l@
  000db	e8 00 00 00 00	 call	 ?AddString@CListBoxColorPickerST@@QAEHPBDK@Z ; CListBoxColorPickerST::AddString

; 282  : 		}

  000e0	eb 15		 jmp	 SHORT $LN2@SetItem_GL
$LN5@SetItem_GL:

; 283  : 		else pListBox->AddString( szSubGraphName, p_pIGraphInfo->GetSubGraphColor( i, 1));

  000e2	6a 01		 push	 1
  000e4	ff 75 f0	 push	 DWORD PTR _i$1$[ebp]
  000e7	ff 52 64	 call	 DWORD PTR [edx+100]
  000ea	8b 4d 10	 mov	 ecx, DWORD PTR _pListBox$[ebp]
  000ed	50		 push	 eax
  000ee	57		 push	 edi
  000ef	e8 00 00 00 00	 call	 ?AddString@CListBoxColorPickerST@@QAEHPBDK@Z ; CListBoxColorPickerST::AddString
  000f4	8b 7d f0	 mov	 edi, DWORD PTR _i$1$[ebp]
$LN2@SetItem_GL:

; 275  : 	for( int i = 0 ; i <  p_pIGraphInfo->GetSubGraphCount() ; i++)

  000f7	8b 06		 mov	 eax, DWORD PTR [esi]
  000f9	47		 inc	 edi
  000fa	8b ce		 mov	 ecx, esi
  000fc	89 7d f0	 mov	 DWORD PTR _i$1$[ebp], edi
  000ff	ff 50 2c	 call	 DWORD PTR [eax+44]
  00102	3b f8		 cmp	 edi, eax
  00104	0f 8c 46 ff ff
	ff		 jl	 $LL4@SetItem_GL
$LN3@SetItem_GL:
; File D:\git\src\IBK\IBK_DRFN\ProjSrc\SrcChartEx\ChartAddIn\ChartEnvSetupDlgAddIn\Include_AddIn_135914\I135914\_IString.h

; 44   : 	{

  0010a	c7 45 fc 01 00
	00 00		 mov	 DWORD PTR __$EHRec$[ebp+8], 1

; 45   : 		if( m_pIStrData)

  00111	85 db		 test	 ebx, ebx
  00113	74 06		 je	 SHORT $LN19@SetItem_GL

; 46   : 		{
; 47   : 			m_pIStrData->Release();

  00115	8b 03		 mov	 eax, DWORD PTR [ebx]
  00117	53		 push	 ebx
  00118	ff 50 08	 call	 DWORD PTR [eax+8]
$LN19@SetItem_GL:
; File D:\git\src\IBK\IBK_DRFN\ProjSrc\SrcChartEx\ChartAddIn\ChartEnvSetupDlgAddIn\ChartEnvSetupDlgAddIn\SetItemOfColorListBox.cpp

; 313  : }

  0011b	8b 4d f4	 mov	 ecx, DWORD PTR __$EHRec$[ebp]
  0011e	64 89 0d 00 00
	00 00		 mov	 DWORD PTR fs:0, ecx
  00125	59		 pop	 ecx
  00126	5f		 pop	 edi
  00127	5e		 pop	 esi
  00128	5b		 pop	 ebx
  00129	8b e5		 mov	 esp, ebp
  0012b	5d		 pop	 ebp
  0012c	c2 0c 00	 ret	 12			; 0000000cH
_TEXT	ENDS
;	COMDAT text$x
text$x	SEGMENT
__unwindfunclet$?SetItem_GLANCEBLANCE@CSetItemOfColorListBox@@AAEXPAUIGraphInfo135914@@HPAVCListBoxColorPickerST@@@Z$0:
  00000	8d 4d e8	 lea	 ecx, DWORD PTR _szSubGraphName$[ebp]
  00003	e9 00 00 00 00	 jmp	 ??1ILPCSTR135914@@QAE@XZ ; ILPCSTR135914::~ILPCSTR135914
  00008	cc		 int	 3
  00009	cc		 int	 3
  0000a	cc		 int	 3
  0000b	cc		 int	 3
  0000c	cc		 int	 3
__ehhandler$?SetItem_GLANCEBLANCE@CSetItemOfColorListBox@@AAEXPAUIGraphInfo135914@@HPAVCListBoxColorPickerST@@@Z:
  0000d	90		 npad	 1
  0000e	90		 npad	 1
  0000f	8b 54 24 08	 mov	 edx, DWORD PTR [esp+8]
  00013	8d 42 0c	 lea	 eax, DWORD PTR [edx+12]
  00016	8b 4a e4	 mov	 ecx, DWORD PTR [edx-28]
  00019	33 c8		 xor	 ecx, eax
  0001b	e8 00 00 00 00	 call	 @__security_check_cookie@4
  00020	b8 00 00 00 00	 mov	 eax, OFFSET __ehfuncinfo$?SetItem_GLANCEBLANCE@CSetItemOfColorListBox@@AAEXPAUIGraphInfo135914@@HPAVCListBoxColorPickerST@@@Z
  00025	e9 00 00 00 00	 jmp	 ___CxxFrameHandler3
text$x	ENDS
?SetItem_GLANCEBLANCE@CSetItemOfColorListBox@@AAEXPAUIGraphInfo135914@@HPAVCListBoxColorPickerST@@@Z ENDP ; CSetItemOfColorListBox::SetItem_GLANCEBLANCE
; Function compile flags: /Ogtp
; File D:\git\src\IBK\IBK_DRFN\ProjSrc\SrcChartEx\ChartAddIn\ChartEnvSetupDlgAddIn\ChartEnvSetupDlgAddIn\SetItemOfColorListBox.cpp
; File D:\git\src\IBK\IBK_DRFN\ProjSrc\SrcChartEx\ChartAddIn\ChartEnvSetupDlgAddIn\Include_AddIn_135914\I135914\_IString.h
; File D:\git\src\IBK\IBK_DRFN\ProjSrc\SrcChartEx\ChartAddIn\ChartEnvSetupDlgAddIn\ChartEnvSetupDlgAddIn\SetItemOfColorListBox.cpp
; File D:\git\src\IBK\IBK_DRFN\ProjSrc\SrcChartEx\ChartAddIn\ChartEnvSetupDlgAddIn\Include_AddIn_135914\I135914\_IString.h
; File D:\git\src\IBK\IBK_DRFN\ProjSrc\SrcChartEx\ChartAddIn\ChartEnvSetupDlgAddIn\ChartEnvSetupDlgAddIn\SetItemOfColorListBox.cpp
; File D:\git\src\IBK\IBK_DRFN\ProjSrc\SrcChartEx\ChartAddIn\ChartEnvSetupDlgAddIn\Include_AddIn_135914\I135914\_IString.h
; File D:\git\src\IBK\IBK_DRFN\ProjSrc\SrcChartEx\ChartAddIn\ChartEnvSetupDlgAddIn\ChartEnvSetupDlgAddIn\SetItemOfColorListBox.cpp
;	COMDAT ?SetItem_PIVOT@CSetItemOfColorListBox@@AAEXPAUIGraphInfo135914@@HPAVCListBoxColorPickerST@@@Z
_TEXT	SEGMENT
_szSubGraphName$ = -24					; size = 8
_i$1$ = -16						; size = 4
__$EHRec$ = -12						; size = 12
_p_pIGraphInfo$ = 8					; size = 4
_p_nSubGraphIndex$ = 12					; size = 4
_pListBox$ = 16						; size = 4
?SetItem_PIVOT@CSetItemOfColorListBox@@AAEXPAUIGraphInfo135914@@HPAVCListBoxColorPickerST@@@Z PROC ; CSetItemOfColorListBox::SetItem_PIVOT, COMDAT
; _this$ = ecx

; 552  : {

  00000	55		 push	 ebp
  00001	8b ec		 mov	 ebp, esp
  00003	6a ff		 push	 -1
  00005	68 00 00 00 00	 push	 __ehhandler$?SetItem_PIVOT@CSetItemOfColorListBox@@AAEXPAUIGraphInfo135914@@HPAVCListBoxColorPickerST@@@Z
  0000a	64 a1 00 00 00
	00		 mov	 eax, DWORD PTR fs:0
  00010	50		 push	 eax
  00011	83 ec 0c	 sub	 esp, 12			; 0000000cH
  00014	53		 push	 ebx
  00015	56		 push	 esi
  00016	57		 push	 edi
  00017	a1 00 00 00 00	 mov	 eax, DWORD PTR ___security_cookie
  0001c	33 c5		 xor	 eax, ebp
  0001e	50		 push	 eax
  0001f	8d 45 f4	 lea	 eax, DWORD PTR __$EHRec$[ebp]
  00022	64 a3 00 00 00
	00		 mov	 DWORD PTR fs:0, eax
; File D:\git\src\IBK\IBK_DRFN\ProjSrc\SrcChartEx\ChartAddIn\ChartEnvSetupDlgAddIn\Include_AddIn_135914\I135914\_IString.h

; 39   : 		m_pIStrData = p_pIString;	// Do not AddRef(). Because It must be Return Value.

  00028	33 f6		 xor	 esi, esi
  0002a	89 75 ec	 mov	 DWORD PTR _szSubGraphName$[ebp+4], esi

; 40   : 		if( m_pIStrData) m_szData = m_pIStrData->GetData();
; 41   : 		else m_szData = NULL;

  0002d	89 75 e8	 mov	 DWORD PTR _szSubGraphName$[ebp], esi
; File D:\git\src\IBK\IBK_DRFN\ProjSrc\SrcChartEx\ChartAddIn\ChartEnvSetupDlgAddIn\ChartEnvSetupDlgAddIn\SetItemOfColorListBox.cpp

; 554  : 	for(int i = 0 ; i< p_pIGraphInfo->GetSubGraphCount() ; i++)

  00030	8b 7d 08	 mov	 edi, DWORD PTR _p_pIGraphInfo$[ebp]
  00033	33 db		 xor	 ebx, ebx
  00035	8b cf		 mov	 ecx, edi
  00037	89 75 fc	 mov	 DWORD PTR __$EHRec$[ebp+8], esi
  0003a	89 5d f0	 mov	 DWORD PTR _i$1$[ebp], ebx
  0003d	8b 07		 mov	 eax, DWORD PTR [edi]
  0003f	ff 50 2c	 call	 DWORD PTR [eax+44]
  00042	85 c0		 test	 eax, eax
  00044	0f 8e b3 01 00
	00		 jle	 $LN3@SetItem_PI
  0004a	66 0f 1f 44 00
	00		 npad	 6
$LL4@SetItem_PI:

; 555  : 	{
; 556  : 		szSubGraphName = p_pIGraphInfo->GetSubGraphNameString( i);

  00050	8b 07		 mov	 eax, DWORD PTR [edi]
  00052	8b cf		 mov	 ecx, edi
  00054	53		 push	 ebx
  00055	ff 50 3c	 call	 DWORD PTR [eax+60]
  00058	8b f0		 mov	 esi, eax
; File D:\git\src\IBK\IBK_DRFN\ProjSrc\SrcChartEx\ChartAddIn\ChartEnvSetupDlgAddIn\Include_AddIn_135914\I135914\_IString.h

; 67   : 		if( m_pIStrData) m_pIStrData->Release();

  0005a	8b 45 ec	 mov	 eax, DWORD PTR _szSubGraphName$[ebp+4]
  0005d	85 c0		 test	 eax, eax
  0005f	74 06		 je	 SHORT $LN21@SetItem_PI
  00061	8b 08		 mov	 ecx, DWORD PTR [eax]
  00063	50		 push	 eax
  00064	ff 51 08	 call	 DWORD PTR [ecx+8]
$LN21@SetItem_PI:

; 68   : 		m_pIStrData = stringSrc;	// Do not AddRef(). Because It must be Return Value.

  00067	89 75 ec	 mov	 DWORD PTR _szSubGraphName$[ebp+4], esi
  0006a	85 f6		 test	 esi, esi

; 69   : 		if( m_pIStrData) m_szData = m_pIStrData->GetData();

  0006c	74 0b		 je	 SHORT $LN22@SetItem_PI
  0006e	8b 06		 mov	 eax, DWORD PTR [esi]
  00070	8b ce		 mov	 ecx, esi
  00072	ff 50 10	 call	 DWORD PTR [eax+16]
  00075	8b d0		 mov	 edx, eax
  00077	eb 02		 jmp	 SHORT $LN54@SetItem_PI
$LN22@SetItem_PI:

; 70   : 		else m_szData = NULL;

  00079	33 d2		 xor	 edx, edx
$LN54@SetItem_PI:
; File D:\git\src\IBK\IBK_DRFN\ProjSrc\SrcChartEx\ChartAddIn\ChartEnvSetupDlgAddIn\ChartEnvSetupDlgAddIn\SetItemOfColorListBox.cpp

; 557  : 		if( !strcmp( szSubGraphName, "R1"))			pListBox->AddString("1차 지지선",	p_pIGraphInfo->GetSubGraphColor( i, 1));

  0007b	89 55 e8	 mov	 DWORD PTR _szSubGraphName$[ebp], edx
  0007e	b9 00 00 00 00	 mov	 ecx, OFFSET ??_C@_02KJNLNLIB@R1@
  00083	8b c2		 mov	 eax, edx
$LL33@SetItem_PI:
  00085	8a 18		 mov	 bl, BYTE PTR [eax]
  00087	3a 19		 cmp	 bl, BYTE PTR [ecx]
  00089	75 1a		 jne	 SHORT $LN34@SetItem_PI
  0008b	84 db		 test	 bl, bl
  0008d	74 12		 je	 SHORT $LN35@SetItem_PI
  0008f	8a 58 01	 mov	 bl, BYTE PTR [eax+1]
  00092	3a 59 01	 cmp	 bl, BYTE PTR [ecx+1]
  00095	75 0e		 jne	 SHORT $LN34@SetItem_PI
  00097	83 c0 02	 add	 eax, 2
  0009a	83 c1 02	 add	 ecx, 2
  0009d	84 db		 test	 bl, bl
  0009f	75 e4		 jne	 SHORT $LL33@SetItem_PI
$LN35@SetItem_PI:
  000a1	33 c0		 xor	 eax, eax
  000a3	eb 05		 jmp	 SHORT $LN36@SetItem_PI
$LN34@SetItem_PI:
  000a5	1b c0		 sbb	 eax, eax
  000a7	83 c8 01	 or	 eax, 1
$LN36@SetItem_PI:
  000aa	85 c0		 test	 eax, eax
  000ac	75 17		 jne	 SHORT $LN5@SetItem_PI
  000ae	8b 07		 mov	 eax, DWORD PTR [edi]
  000b0	8b cf		 mov	 ecx, edi
  000b2	6a 01		 push	 1
  000b4	ff 75 f0	 push	 DWORD PTR _i$1$[ebp]
  000b7	ff 50 64	 call	 DWORD PTR [eax+100]
  000ba	50		 push	 eax
  000bb	68 00 00 00 00	 push	 OFFSET ??_C@_0L@OFHELGPA@1?B?w?5?A?v?A?v?$LM?$LB@
  000c0	e9 18 01 00 00	 jmp	 $LN55@SetItem_PI
$LN5@SetItem_PI:

; 558  : 		else if( !strcmp( szSubGraphName, "R2"))	pListBox->AddString("2차 지지선",	p_pIGraphInfo->GetSubGraphColor( i, 1));

  000c5	b9 00 00 00 00	 mov	 ecx, OFFSET ??_C@_02ICPGIIEC@R2@
  000ca	8b c2		 mov	 eax, edx
  000cc	0f 1f 40 00	 npad	 4
$LL37@SetItem_PI:
  000d0	8a 18		 mov	 bl, BYTE PTR [eax]
  000d2	3a 19		 cmp	 bl, BYTE PTR [ecx]
  000d4	75 1a		 jne	 SHORT $LN38@SetItem_PI
  000d6	84 db		 test	 bl, bl
  000d8	74 12		 je	 SHORT $LN39@SetItem_PI
  000da	8a 58 01	 mov	 bl, BYTE PTR [eax+1]
  000dd	3a 59 01	 cmp	 bl, BYTE PTR [ecx+1]
  000e0	75 0e		 jne	 SHORT $LN38@SetItem_PI
  000e2	83 c0 02	 add	 eax, 2
  000e5	83 c1 02	 add	 ecx, 2
  000e8	84 db		 test	 bl, bl
  000ea	75 e4		 jne	 SHORT $LL37@SetItem_PI
$LN39@SetItem_PI:
  000ec	33 c0		 xor	 eax, eax
  000ee	eb 05		 jmp	 SHORT $LN40@SetItem_PI
$LN38@SetItem_PI:
  000f0	1b c0		 sbb	 eax, eax
  000f2	83 c8 01	 or	 eax, 1
$LN40@SetItem_PI:
  000f5	85 c0		 test	 eax, eax
  000f7	75 17		 jne	 SHORT $LN7@SetItem_PI
  000f9	8b 07		 mov	 eax, DWORD PTR [edi]
  000fb	8b cf		 mov	 ecx, edi
  000fd	6a 01		 push	 1
  000ff	ff 75 f0	 push	 DWORD PTR _i$1$[ebp]
  00102	ff 50 64	 call	 DWORD PTR [eax+100]
  00105	50		 push	 eax
  00106	68 00 00 00 00	 push	 OFFSET ??_C@_0L@HMJGNAPB@2?B?w?5?A?v?A?v?$LM?$LB@
  0010b	e9 cd 00 00 00	 jmp	 $LN55@SetItem_PI
$LN7@SetItem_PI:

; 559  : 		else if( !strcmp( szSubGraphName, "S1"))		pListBox->AddString("1차 저항선",	p_pIGraphInfo->GetSubGraphColor( i, 1));

  00110	b9 00 00 00 00	 mov	 ecx, OFFSET ??_C@_02KIBJLBLG@S1@
  00115	8b c2		 mov	 eax, edx
$LL41@SetItem_PI:
  00117	8a 18		 mov	 bl, BYTE PTR [eax]
  00119	3a 19		 cmp	 bl, BYTE PTR [ecx]
  0011b	75 1a		 jne	 SHORT $LN42@SetItem_PI
  0011d	84 db		 test	 bl, bl
  0011f	74 12		 je	 SHORT $LN43@SetItem_PI
  00121	8a 58 01	 mov	 bl, BYTE PTR [eax+1]
  00124	3a 59 01	 cmp	 bl, BYTE PTR [ecx+1]
  00127	75 0e		 jne	 SHORT $LN42@SetItem_PI
  00129	83 c0 02	 add	 eax, 2
  0012c	83 c1 02	 add	 ecx, 2
  0012f	84 db		 test	 bl, bl
  00131	75 e4		 jne	 SHORT $LL41@SetItem_PI
$LN43@SetItem_PI:
  00133	33 c0		 xor	 eax, eax
  00135	eb 05		 jmp	 SHORT $LN44@SetItem_PI
$LN42@SetItem_PI:
  00137	1b c0		 sbb	 eax, eax
  00139	83 c8 01	 or	 eax, 1
$LN44@SetItem_PI:
  0013c	85 c0		 test	 eax, eax
  0013e	75 17		 jne	 SHORT $LN9@SetItem_PI
  00140	8b 07		 mov	 eax, DWORD PTR [edi]
  00142	8b cf		 mov	 ecx, edi
  00144	6a 01		 push	 1
  00146	ff 75 f0	 push	 DWORD PTR _i$1$[ebp]
  00149	ff 50 64	 call	 DWORD PTR [eax+100]
  0014c	50		 push	 eax
  0014d	68 00 00 00 00	 push	 OFFSET ??_C@_0L@KDAPEAME@1?B?w?5?$MA?z?G?W?$LM?$LB@
  00152	e9 86 00 00 00	 jmp	 $LN55@SetItem_PI
$LN9@SetItem_PI:

; 560  : 		else if( !strcmp( szSubGraphName, "S2"))	pListBox->AddString("2차 저항선",	p_pIGraphInfo->GetSubGraphColor( i, 1));

  00157	b9 00 00 00 00	 mov	 ecx, OFFSET ??_C@_02IDDEOCHF@S2@
  0015c	8b c2		 mov	 eax, edx
  0015e	66 90		 npad	 2
$LL45@SetItem_PI:
  00160	8a 18		 mov	 bl, BYTE PTR [eax]
  00162	3a 19		 cmp	 bl, BYTE PTR [ecx]
  00164	75 1a		 jne	 SHORT $LN46@SetItem_PI
  00166	84 db		 test	 bl, bl
  00168	74 12		 je	 SHORT $LN47@SetItem_PI
  0016a	8a 58 01	 mov	 bl, BYTE PTR [eax+1]
  0016d	3a 59 01	 cmp	 bl, BYTE PTR [ecx+1]
  00170	75 0e		 jne	 SHORT $LN46@SetItem_PI
  00172	83 c0 02	 add	 eax, 2
  00175	83 c1 02	 add	 ecx, 2
  00178	84 db		 test	 bl, bl
  0017a	75 e4		 jne	 SHORT $LL45@SetItem_PI
$LN47@SetItem_PI:
  0017c	33 c0		 xor	 eax, eax
  0017e	eb 05		 jmp	 SHORT $LN48@SetItem_PI
$LN46@SetItem_PI:
  00180	1b c0		 sbb	 eax, eax
  00182	83 c8 01	 or	 eax, 1
$LN48@SetItem_PI:
  00185	85 c0		 test	 eax, eax
  00187	75 14		 jne	 SHORT $LN11@SetItem_PI
  00189	8b 07		 mov	 eax, DWORD PTR [edi]
  0018b	8b cf		 mov	 ecx, edi
  0018d	6a 01		 push	 1
  0018f	ff 75 f0	 push	 DWORD PTR _i$1$[ebp]
  00192	ff 50 64	 call	 DWORD PTR [eax+100]
  00195	50		 push	 eax
  00196	68 00 00 00 00	 push	 OFFSET ??_C@_0L@DKONCGMF@2?B?w?5?$MA?z?G?W?$LM?$LB@
  0019b	eb 40		 jmp	 SHORT $LN55@SetItem_PI
$LN11@SetItem_PI:

; 561  : 		else if( !strcmp( szSubGraphName, "PIVOT"))	pListBox->AddString("피봇",			p_pIGraphInfo->GetSubGraphColor( i, 1));

  0019d	b8 00 00 00 00	 mov	 eax, OFFSET ??_C@_05FMCHGOEA@PIVOT@
$LL49@SetItem_PI:
  001a2	8a 0a		 mov	 cl, BYTE PTR [edx]
  001a4	3a 08		 cmp	 cl, BYTE PTR [eax]
  001a6	75 1a		 jne	 SHORT $LN50@SetItem_PI
  001a8	84 c9		 test	 cl, cl
  001aa	74 12		 je	 SHORT $LN51@SetItem_PI
  001ac	8a 4a 01	 mov	 cl, BYTE PTR [edx+1]
  001af	3a 48 01	 cmp	 cl, BYTE PTR [eax+1]
  001b2	75 0e		 jne	 SHORT $LN50@SetItem_PI
  001b4	83 c2 02	 add	 edx, 2
  001b7	83 c0 02	 add	 eax, 2
  001ba	84 c9		 test	 cl, cl
  001bc	75 e4		 jne	 SHORT $LL49@SetItem_PI
$LN51@SetItem_PI:
  001be	33 c0		 xor	 eax, eax
  001c0	eb 05		 jmp	 SHORT $LN52@SetItem_PI
$LN50@SetItem_PI:
  001c2	1b c0		 sbb	 eax, eax
  001c4	83 c8 01	 or	 eax, 1
$LN52@SetItem_PI:
  001c7	85 c0		 test	 eax, eax
  001c9	75 1a		 jne	 SHORT $LN2@SetItem_PI
  001cb	8b 07		 mov	 eax, DWORD PTR [edi]
  001cd	8b cf		 mov	 ecx, edi
  001cf	6a 01		 push	 1
  001d1	ff 75 f0	 push	 DWORD PTR _i$1$[ebp]
  001d4	ff 50 64	 call	 DWORD PTR [eax+100]
  001d7	50		 push	 eax
  001d8	68 00 00 00 00	 push	 OFFSET ??_C@_04CCOGCDCH@?G?G?$LK?$LP@
$LN55@SetItem_PI:

; 554  : 	for(int i = 0 ; i< p_pIGraphInfo->GetSubGraphCount() ; i++)

  001dd	8b 4d 10	 mov	 ecx, DWORD PTR _pListBox$[ebp]
  001e0	e8 00 00 00 00	 call	 ?AddString@CListBoxColorPickerST@@QAEHPBDK@Z ; CListBoxColorPickerST::AddString
$LN2@SetItem_PI:
  001e5	8b 07		 mov	 eax, DWORD PTR [edi]
  001e7	8b cf		 mov	 ecx, edi
  001e9	ff 45 f0	 inc	 DWORD PTR _i$1$[ebp]
  001ec	ff 50 2c	 call	 DWORD PTR [eax+44]
  001ef	8b 5d f0	 mov	 ebx, DWORD PTR _i$1$[ebp]
  001f2	3b d8		 cmp	 ebx, eax
  001f4	0f 8c 56 fe ff
	ff		 jl	 $LL4@SetItem_PI
  001fa	8b 75 ec	 mov	 esi, DWORD PTR _szSubGraphName$[ebp+4]
$LN3@SetItem_PI:
; File D:\git\src\IBK\IBK_DRFN\ProjSrc\SrcChartEx\ChartAddIn\ChartEnvSetupDlgAddIn\Include_AddIn_135914\I135914\_IString.h

; 44   : 	{

  001fd	c7 45 fc 01 00
	00 00		 mov	 DWORD PTR __$EHRec$[ebp+8], 1

; 45   : 		if( m_pIStrData)

  00204	85 f6		 test	 esi, esi
  00206	74 06		 je	 SHORT $LN26@SetItem_PI

; 46   : 		{
; 47   : 			m_pIStrData->Release();

  00208	8b 06		 mov	 eax, DWORD PTR [esi]
  0020a	56		 push	 esi
  0020b	ff 50 08	 call	 DWORD PTR [eax+8]
$LN26@SetItem_PI:
; File D:\git\src\IBK\IBK_DRFN\ProjSrc\SrcChartEx\ChartAddIn\ChartEnvSetupDlgAddIn\ChartEnvSetupDlgAddIn\SetItemOfColorListBox.cpp

; 563  : }

  0020e	8b 4d f4	 mov	 ecx, DWORD PTR __$EHRec$[ebp]
  00211	64 89 0d 00 00
	00 00		 mov	 DWORD PTR fs:0, ecx
  00218	59		 pop	 ecx
  00219	5f		 pop	 edi
  0021a	5e		 pop	 esi
  0021b	5b		 pop	 ebx
  0021c	8b e5		 mov	 esp, ebp
  0021e	5d		 pop	 ebp
  0021f	c2 0c 00	 ret	 12			; 0000000cH
_TEXT	ENDS
;	COMDAT text$x
text$x	SEGMENT
__unwindfunclet$?SetItem_PIVOT@CSetItemOfColorListBox@@AAEXPAUIGraphInfo135914@@HPAVCListBoxColorPickerST@@@Z$0:
  00000	8d 4d e8	 lea	 ecx, DWORD PTR _szSubGraphName$[ebp]
  00003	e9 00 00 00 00	 jmp	 ??1ILPCSTR135914@@QAE@XZ ; ILPCSTR135914::~ILPCSTR135914
  00008	cc		 int	 3
  00009	cc		 int	 3
  0000a	cc		 int	 3
  0000b	cc		 int	 3
  0000c	cc		 int	 3
__ehhandler$?SetItem_PIVOT@CSetItemOfColorListBox@@AAEXPAUIGraphInfo135914@@HPAVCListBoxColorPickerST@@@Z:
  0000d	90		 npad	 1
  0000e	90		 npad	 1
  0000f	8b 54 24 08	 mov	 edx, DWORD PTR [esp+8]
  00013	8d 42 0c	 lea	 eax, DWORD PTR [edx+12]
  00016	8b 4a e4	 mov	 ecx, DWORD PTR [edx-28]
  00019	33 c8		 xor	 ecx, eax
  0001b	e8 00 00 00 00	 call	 @__security_check_cookie@4
  00020	b8 00 00 00 00	 mov	 eax, OFFSET __ehfuncinfo$?SetItem_PIVOT@CSetItemOfColorListBox@@AAEXPAUIGraphInfo135914@@HPAVCListBoxColorPickerST@@@Z
  00025	e9 00 00 00 00	 jmp	 ___CxxFrameHandler3
text$x	ENDS
?SetItem_PIVOT@CSetItemOfColorListBox@@AAEXPAUIGraphInfo135914@@HPAVCListBoxColorPickerST@@@Z ENDP ; CSetItemOfColorListBox::SetItem_PIVOT
; Function compile flags: /Ogtp
; File D:\git\src\IBK\IBK_DRFN\ProjSrc\SrcChartEx\ChartAddIn\ChartEnvSetupDlgAddIn\ChartEnvSetupDlgAddIn\SetItemOfColorListBox.cpp
; File D:\git\src\IBK\IBK_DRFN\ProjSrc\SrcChartEx\ChartAddIn\ChartEnvSetupDlgAddIn\Include_AddIn_135914\I135914\_IString.h
; File D:\git\src\IBK\IBK_DRFN\ProjSrc\SrcChartEx\ChartAddIn\ChartEnvSetupDlgAddIn\ChartEnvSetupDlgAddIn\SetItemOfColorListBox.cpp
; File D:\git\src\IBK\IBK_DRFN\ProjSrc\SrcChartEx\ChartAddIn\ChartEnvSetupDlgAddIn\Include_AddIn_135914\I135914\_IString.h
; File D:\git\src\IBK\IBK_DRFN\ProjSrc\SrcChartEx\ChartAddIn\ChartEnvSetupDlgAddIn\ChartEnvSetupDlgAddIn\SetItemOfColorListBox.cpp
; File D:\git\src\IBK\IBK_DRFN\ProjSrc\SrcChartEx\ChartAddIn\ChartEnvSetupDlgAddIn\Include_AddIn_135914\I135914\_IString.h
; File D:\git\src\IBK\IBK_DRFN\ProjSrc\SrcChartEx\ChartAddIn\ChartEnvSetupDlgAddIn\ChartEnvSetupDlgAddIn\SetItemOfColorListBox.cpp
;	COMDAT ?SetItem_MACD@CSetItemOfColorListBox@@AAEXPAUIGraphInfo135914@@HPAVCListBoxColorPickerST@@@Z
_TEXT	SEGMENT
_szSubGraphName$ = -28					; size = 8
_this$1$ = -20						; size = 4
_i$1$ = -16						; size = 4
__$EHRec$ = -12						; size = 12
_p_pIGraphInfo$ = 8					; size = 4
_p_nSubGraphIndex$ = 12					; size = 4
_pListBox$ = 16						; size = 4
?SetItem_MACD@CSetItemOfColorListBox@@AAEXPAUIGraphInfo135914@@HPAVCListBoxColorPickerST@@@Z PROC ; CSetItemOfColorListBox::SetItem_MACD, COMDAT
; _this$ = ecx

; 566  : {

  00000	55		 push	 ebp
  00001	8b ec		 mov	 ebp, esp
  00003	6a ff		 push	 -1
  00005	68 00 00 00 00	 push	 __ehhandler$?SetItem_MACD@CSetItemOfColorListBox@@AAEXPAUIGraphInfo135914@@HPAVCListBoxColorPickerST@@@Z
  0000a	64 a1 00 00 00
	00		 mov	 eax, DWORD PTR fs:0
  00010	50		 push	 eax
  00011	83 ec 10	 sub	 esp, 16			; 00000010H
  00014	53		 push	 ebx
  00015	56		 push	 esi
  00016	57		 push	 edi
  00017	a1 00 00 00 00	 mov	 eax, DWORD PTR ___security_cookie
  0001c	33 c5		 xor	 eax, ebp
  0001e	50		 push	 eax
  0001f	8d 45 f4	 lea	 eax, DWORD PTR __$EHRec$[ebp]
  00022	64 a3 00 00 00
	00		 mov	 DWORD PTR fs:0, eax
  00028	89 4d ec	 mov	 DWORD PTR _this$1$[ebp], ecx
; File D:\git\src\IBK\IBK_DRFN\ProjSrc\SrcChartEx\ChartAddIn\ChartEnvSetupDlgAddIn\Include_AddIn_135914\I135914\_IString.h

; 39   : 		m_pIStrData = p_pIString;	// Do not AddRef(). Because It must be Return Value.

  0002b	33 ff		 xor	 edi, edi
  0002d	89 7d e8	 mov	 DWORD PTR _szSubGraphName$[ebp+4], edi

; 40   : 		if( m_pIStrData) m_szData = m_pIStrData->GetData();
; 41   : 		else m_szData = NULL;

  00030	89 7d e4	 mov	 DWORD PTR _szSubGraphName$[ebp], edi
; File D:\git\src\IBK\IBK_DRFN\ProjSrc\SrcChartEx\ChartAddIn\ChartEnvSetupDlgAddIn\ChartEnvSetupDlgAddIn\SetItemOfColorListBox.cpp

; 568  : 	for(int i = 0 ; i< p_pIGraphInfo->GetSubGraphCount(); i++)

  00033	8b 5d 08	 mov	 ebx, DWORD PTR _p_pIGraphInfo$[ebp]
  00036	33 f6		 xor	 esi, esi
  00038	8b cb		 mov	 ecx, ebx
  0003a	89 7d fc	 mov	 DWORD PTR __$EHRec$[ebp+8], edi
  0003d	89 75 f0	 mov	 DWORD PTR _i$1$[ebp], esi
  00040	8b 03		 mov	 eax, DWORD PTR [ebx]
  00042	ff 50 2c	 call	 DWORD PTR [eax+44]
  00045	85 c0		 test	 eax, eax
  00047	0f 8e 9e 00 00
	00		 jle	 $LN3@SetItem_MA
  0004d	0f 1f 00	 npad	 3
$LL4@SetItem_MA:

; 569  : 	{
; 570  : 		szSubGraphName = p_pIGraphInfo->GetSubGraphNameString( i);

  00050	8b 03		 mov	 eax, DWORD PTR [ebx]
  00052	8b cb		 mov	 ecx, ebx
  00054	56		 push	 esi
  00055	ff 50 3c	 call	 DWORD PTR [eax+60]
  00058	8b f0		 mov	 esi, eax
; File D:\git\src\IBK\IBK_DRFN\ProjSrc\SrcChartEx\ChartAddIn\ChartEnvSetupDlgAddIn\Include_AddIn_135914\I135914\_IString.h

; 67   : 		if( m_pIStrData) m_pIStrData->Release();

  0005a	85 ff		 test	 edi, edi
  0005c	74 06		 je	 SHORT $LN14@SetItem_MA
  0005e	8b 0f		 mov	 ecx, DWORD PTR [edi]
  00060	57		 push	 edi
  00061	ff 51 08	 call	 DWORD PTR [ecx+8]
$LN14@SetItem_MA:

; 68   : 		m_pIStrData = stringSrc;	// Do not AddRef(). Because It must be Return Value.

  00064	8b fe		 mov	 edi, esi
  00066	89 7d e8	 mov	 DWORD PTR _szSubGraphName$[ebp+4], edi
  00069	85 f6		 test	 esi, esi

; 69   : 		if( m_pIStrData) m_szData = m_pIStrData->GetData();

  0006b	74 0b		 je	 SHORT $LN15@SetItem_MA
  0006d	8b 06		 mov	 eax, DWORD PTR [esi]
  0006f	8b ce		 mov	 ecx, esi
  00071	ff 50 10	 call	 DWORD PTR [eax+16]
  00074	8b f0		 mov	 esi, eax
  00076	eb 02		 jmp	 SHORT $LN31@SetItem_MA
$LN15@SetItem_MA:

; 70   : 		else m_szData = NULL;

  00078	33 f6		 xor	 esi, esi
$LN31@SetItem_MA:
; File D:\git\src\IBK\IBK_DRFN\ProjSrc\SrcChartEx\ChartAddIn\ChartEnvSetupDlgAddIn\ChartEnvSetupDlgAddIn\SetItemOfColorListBox.cpp

; 571  : 		if( strcmp( szSubGraphName, "Oscillator")) pListBox->AddString( szSubGraphName, p_pIGraphInfo->GetSubGraphColor( i, 1));

  0007a	89 75 e4	 mov	 DWORD PTR _szSubGraphName$[ebp], esi
  0007d	b8 00 00 00 00	 mov	 eax, OFFSET ??_C@_0L@ELFBIMLP@Oscillator@
  00082	8b ce		 mov	 ecx, esi
$LL26@SetItem_MA:
  00084	8a 11		 mov	 dl, BYTE PTR [ecx]
  00086	3a 10		 cmp	 dl, BYTE PTR [eax]
  00088	75 1a		 jne	 SHORT $LN27@SetItem_MA
  0008a	84 d2		 test	 dl, dl
  0008c	74 12		 je	 SHORT $LN28@SetItem_MA
  0008e	8a 51 01	 mov	 dl, BYTE PTR [ecx+1]
  00091	3a 50 01	 cmp	 dl, BYTE PTR [eax+1]
  00094	75 0e		 jne	 SHORT $LN27@SetItem_MA
  00096	83 c1 02	 add	 ecx, 2
  00099	83 c0 02	 add	 eax, 2
  0009c	84 d2		 test	 dl, dl
  0009e	75 e4		 jne	 SHORT $LL26@SetItem_MA
$LN28@SetItem_MA:
  000a0	33 c0		 xor	 eax, eax
  000a2	eb 05		 jmp	 SHORT $LN29@SetItem_MA
$LN27@SetItem_MA:
  000a4	1b c0		 sbb	 eax, eax
  000a6	83 c8 01	 or	 eax, 1
$LN29@SetItem_MA:
  000a9	85 c0		 test	 eax, eax
  000ab	74 1b		 je	 SHORT $LN5@SetItem_MA
  000ad	8b 03		 mov	 eax, DWORD PTR [ebx]
  000af	8b cb		 mov	 ecx, ebx
  000b1	6a 01		 push	 1
  000b3	ff 75 f0	 push	 DWORD PTR _i$1$[ebp]
  000b6	ff 50 64	 call	 DWORD PTR [eax+100]
  000b9	8b 4d 10	 mov	 ecx, DWORD PTR _pListBox$[ebp]
  000bc	50		 push	 eax
  000bd	56		 push	 esi
  000be	e8 00 00 00 00	 call	 ?AddString@CListBoxColorPickerST@@QAEHPBDK@Z ; CListBoxColorPickerST::AddString
  000c3	8b 75 f0	 mov	 esi, DWORD PTR _i$1$[ebp]
  000c6	eb 10		 jmp	 SHORT $LN2@SetItem_MA
$LN5@SetItem_MA:

; 572  : 		else SetItem_SUB_UPFILL_DOWNFILL( p_pIGraphInfo, i, pListBox);

  000c8	ff 75 10	 push	 DWORD PTR _pListBox$[ebp]
  000cb	8b 75 f0	 mov	 esi, DWORD PTR _i$1$[ebp]
  000ce	8b 4d ec	 mov	 ecx, DWORD PTR _this$1$[ebp]
  000d1	56		 push	 esi
  000d2	53		 push	 ebx
  000d3	e8 00 00 00 00	 call	 ?SetItem_SUB_UPFILL_DOWNFILL@CSetItemOfColorListBox@@AAEXPAUIGraphInfo135914@@HPAVCListBoxColorPickerST@@@Z ; CSetItemOfColorListBox::SetItem_SUB_UPFILL_DOWNFILL
$LN2@SetItem_MA:

; 568  : 	for(int i = 0 ; i< p_pIGraphInfo->GetSubGraphCount(); i++)

  000d8	8b 03		 mov	 eax, DWORD PTR [ebx]
  000da	46		 inc	 esi
  000db	8b cb		 mov	 ecx, ebx
  000dd	89 75 f0	 mov	 DWORD PTR _i$1$[ebp], esi
  000e0	ff 50 2c	 call	 DWORD PTR [eax+44]
  000e3	3b f0		 cmp	 esi, eax
  000e5	0f 8c 65 ff ff
	ff		 jl	 $LL4@SetItem_MA
$LN3@SetItem_MA:
; File D:\git\src\IBK\IBK_DRFN\ProjSrc\SrcChartEx\ChartAddIn\ChartEnvSetupDlgAddIn\Include_AddIn_135914\I135914\_IString.h

; 44   : 	{

  000eb	c7 45 fc 01 00
	00 00		 mov	 DWORD PTR __$EHRec$[ebp+8], 1

; 45   : 		if( m_pIStrData)

  000f2	85 ff		 test	 edi, edi
  000f4	74 06		 je	 SHORT $LN19@SetItem_MA

; 46   : 		{
; 47   : 			m_pIStrData->Release();

  000f6	8b 07		 mov	 eax, DWORD PTR [edi]
  000f8	57		 push	 edi
  000f9	ff 50 08	 call	 DWORD PTR [eax+8]
$LN19@SetItem_MA:
; File D:\git\src\IBK\IBK_DRFN\ProjSrc\SrcChartEx\ChartAddIn\ChartEnvSetupDlgAddIn\ChartEnvSetupDlgAddIn\SetItemOfColorListBox.cpp

; 574  : }

  000fc	8b 4d f4	 mov	 ecx, DWORD PTR __$EHRec$[ebp]
  000ff	64 89 0d 00 00
	00 00		 mov	 DWORD PTR fs:0, ecx
  00106	59		 pop	 ecx
  00107	5f		 pop	 edi
  00108	5e		 pop	 esi
  00109	5b		 pop	 ebx
  0010a	8b e5		 mov	 esp, ebp
  0010c	5d		 pop	 ebp
  0010d	c2 0c 00	 ret	 12			; 0000000cH
_TEXT	ENDS
;	COMDAT text$x
text$x	SEGMENT
__unwindfunclet$?SetItem_MACD@CSetItemOfColorListBox@@AAEXPAUIGraphInfo135914@@HPAVCListBoxColorPickerST@@@Z$0:
  00000	8d 4d e4	 lea	 ecx, DWORD PTR _szSubGraphName$[ebp]
  00003	e9 00 00 00 00	 jmp	 ??1ILPCSTR135914@@QAE@XZ ; ILPCSTR135914::~ILPCSTR135914
  00008	cc		 int	 3
  00009	cc		 int	 3
  0000a	cc		 int	 3
  0000b	cc		 int	 3
  0000c	cc		 int	 3
__ehhandler$?SetItem_MACD@CSetItemOfColorListBox@@AAEXPAUIGraphInfo135914@@HPAVCListBoxColorPickerST@@@Z:
  0000d	90		 npad	 1
  0000e	90		 npad	 1
  0000f	8b 54 24 08	 mov	 edx, DWORD PTR [esp+8]
  00013	8d 42 0c	 lea	 eax, DWORD PTR [edx+12]
  00016	8b 4a e0	 mov	 ecx, DWORD PTR [edx-32]
  00019	33 c8		 xor	 ecx, eax
  0001b	e8 00 00 00 00	 call	 @__security_check_cookie@4
  00020	b8 00 00 00 00	 mov	 eax, OFFSET __ehfuncinfo$?SetItem_MACD@CSetItemOfColorListBox@@AAEXPAUIGraphInfo135914@@HPAVCListBoxColorPickerST@@@Z
  00025	e9 00 00 00 00	 jmp	 ___CxxFrameHandler3
text$x	ENDS
?SetItem_MACD@CSetItemOfColorListBox@@AAEXPAUIGraphInfo135914@@HPAVCListBoxColorPickerST@@@Z ENDP ; CSetItemOfColorListBox::SetItem_MACD
; Function compile flags: /Ogtp
; File D:\git\src\IBK\IBK_DRFN\ProjSrc\SrcChartEx\ChartAddIn\ChartEnvSetupDlgAddIn\ChartEnvSetupDlgAddIn\SetItemOfColorListBox.cpp
;	COMDAT ?SetItem_INVERSELINE@CSetItemOfColorListBox@@AAEXPAUIGraphInfo135914@@HPAVCListBoxColorPickerST@@@Z
_TEXT	SEGMENT
_p_pIGraphInfo$ = 8					; size = 4
_p_nSubGraphIndex$ = 12					; size = 4
_pListBox$ = 16						; size = 4
?SetItem_INVERSELINE@CSetItemOfColorListBox@@AAEXPAUIGraphInfo135914@@HPAVCListBoxColorPickerST@@@Z PROC ; CSetItemOfColorListBox::SetItem_INVERSELINE, COMDAT
; _this$ = ecx

; 317  : {

  00000	55		 push	 ebp
  00001	8b ec		 mov	 ebp, esp
  00003	53		 push	 ebx

; 318  : 	pListBox->AddString("역시계1", p_pIGraphInfo->GetSubGraphColor( p_nSubGraphIndex, 1));

  00004	8b 5d 08	 mov	 ebx, DWORD PTR _p_pIGraphInfo$[ebp]
  00007	8b cb		 mov	 ecx, ebx
  00009	56		 push	 esi
  0000a	57		 push	 edi
  0000b	8b 7d 0c	 mov	 edi, DWORD PTR _p_nSubGraphIndex$[ebp]
  0000e	8b 03		 mov	 eax, DWORD PTR [ebx]
  00010	6a 01		 push	 1
  00012	57		 push	 edi
  00013	ff 50 64	 call	 DWORD PTR [eax+100]
  00016	8b 75 10	 mov	 esi, DWORD PTR _pListBox$[ebp]
  00019	8b ce		 mov	 ecx, esi
  0001b	50		 push	 eax
  0001c	68 00 00 00 00	 push	 OFFSET ??_C@_07COPDCCN@?$LP?$KK?$LN?C?$LA?h1@
  00021	e8 00 00 00 00	 call	 ?AddString@CListBoxColorPickerST@@QAEHPBDK@Z ; CListBoxColorPickerST::AddString

; 319  : 	pListBox->AddString("역시계2", p_pIGraphInfo->GetSubGraphColor( p_nSubGraphIndex, 2));

  00026	8b 03		 mov	 eax, DWORD PTR [ebx]
  00028	8b cb		 mov	 ecx, ebx
  0002a	6a 02		 push	 2
  0002c	57		 push	 edi
  0002d	ff 50 64	 call	 DWORD PTR [eax+100]
  00030	50		 push	 eax
  00031	68 00 00 00 00	 push	 OFFSET ??_C@_07CJMCGBOO@?$LP?$KK?$LN?C?$LA?h2@
  00036	8b ce		 mov	 ecx, esi
  00038	e8 00 00 00 00	 call	 ?AddString@CListBoxColorPickerST@@QAEHPBDK@Z ; CListBoxColorPickerST::AddString

; 320  : 	pListBox->AddString("역시계3", p_pIGraphInfo->GetSubGraphColor( p_nSubGraphIndex, 3));

  0003d	8b 03		 mov	 eax, DWORD PTR [ebx]
  0003f	8b cb		 mov	 ecx, ebx
  00041	6a 03		 push	 3
  00043	57		 push	 edi
  00044	ff 50 64	 call	 DWORD PTR [eax+100]
  00047	50		 push	 eax
  00048	68 00 00 00 00	 push	 OFFSET ??_C@_07DANJFAKP@?$LP?$KK?$LN?C?$LA?h3@
  0004d	8b ce		 mov	 ecx, esi
  0004f	e8 00 00 00 00	 call	 ?AddString@CListBoxColorPickerST@@QAEHPBDK@Z ; CListBoxColorPickerST::AddString

; 321  : 	pListBox->AddString("역시계4", p_pIGraphInfo->GetSubGraphColor( p_nSubGraphIndex, 4));

  00054	8b 03		 mov	 eax, DWORD PTR [ebx]
  00056	8b cb		 mov	 ecx, ebx
  00058	6a 04		 push	 4
  0005a	57		 push	 edi
  0005b	ff 50 64	 call	 DWORD PTR [eax+100]
  0005e	50		 push	 eax
  0005f	68 00 00 00 00	 push	 OFFSET ??_C@_07HPJIMGGI@?$LP?$KK?$LN?C?$LA?h4@
  00064	8b ce		 mov	 ecx, esi
  00066	e8 00 00 00 00	 call	 ?AddString@CListBoxColorPickerST@@QAEHPBDK@Z ; CListBoxColorPickerST::AddString

; 322  : 	pListBox->AddString("역시계5", p_pIGraphInfo->GetSubGraphColor( p_nSubGraphIndex, 5));

  0006b	8b 03		 mov	 eax, DWORD PTR [ebx]
  0006d	8b cb		 mov	 ecx, ebx
  0006f	6a 05		 push	 5
  00071	57		 push	 edi
  00072	ff 50 64	 call	 DWORD PTR [eax+100]
  00075	50		 push	 eax
  00076	68 00 00 00 00	 push	 OFFSET ??_C@_07GGIDPHCJ@?$LP?$KK?$LN?C?$LA?h5@
  0007b	8b ce		 mov	 ecx, esi
  0007d	e8 00 00 00 00	 call	 ?AddString@CListBoxColorPickerST@@QAEHPBDK@Z ; CListBoxColorPickerST::AddString

; 323  : 	pListBox->AddString("역시계6", p_pIGraphInfo->GetSubGraphColor( p_nSubGraphIndex, 6));

  00082	8b 03		 mov	 eax, DWORD PTR [ebx]
  00084	8b cb		 mov	 ecx, ebx
  00086	6a 06		 push	 6
  00088	57		 push	 edi
  00089	ff 50 64	 call	 DWORD PTR [eax+100]
  0008c	50		 push	 eax
  0008d	68 00 00 00 00	 push	 OFFSET ??_C@_07ENKOKEOK@?$LP?$KK?$LN?C?$LA?h6@
  00092	8b ce		 mov	 ecx, esi
  00094	e8 00 00 00 00	 call	 ?AddString@CListBoxColorPickerST@@QAEHPBDK@Z ; CListBoxColorPickerST::AddString
  00099	5f		 pop	 edi
  0009a	5e		 pop	 esi
  0009b	5b		 pop	 ebx

; 324  : }

  0009c	5d		 pop	 ebp
  0009d	c2 0c 00	 ret	 12			; 0000000cH
?SetItem_INVERSELINE@CSetItemOfColorListBox@@AAEXPAUIGraphInfo135914@@HPAVCListBoxColorPickerST@@@Z ENDP ; CSetItemOfColorListBox::SetItem_INVERSELINE
_TEXT	ENDS
; Function compile flags: /Ogtp
; File D:\git\src\IBK\IBK_DRFN\ProjSrc\SrcChartEx\ChartAddIn\ChartEnvSetupDlgAddIn\ChartEnvSetupDlgAddIn\SetItemOfColorListBox.cpp
; File C:\Program Files (x86)\Microsoft Visual Studio\2019\Community\VC\Tools\MSVC\14.29.30133\atlmfc\include\atlsimpstr.h
; File D:\git\src\IBK\IBK_DRFN\ProjSrc\SrcChartEx\ChartAddIn\ChartEnvSetupDlgAddIn\ChartEnvSetupDlgAddIn\SetItemOfColorListBox.cpp
;	COMDAT ?SetItembyStyleandType@CSetItemOfColorListBox@@AAEX_NPAUIGraphInfo135914@@HPAVCListBoxColorPickerST@@@Z
_TEXT	SEGMENT
__$EHRec$ = -12						; size = 12
_strColor$2 = 8						; size = 4
_bSetUp$ = 8						; size = 1
_p_pIGraphInfo$ = 12					; size = 4
_p_nSubGraphIndex$ = 16					; size = 4
_pListBox$ = 20						; size = 4
?SetItembyStyleandType@CSetItemOfColorListBox@@AAEX_NPAUIGraphInfo135914@@HPAVCListBoxColorPickerST@@@Z PROC ; CSetItemOfColorListBox::SetItembyStyleandType, COMDAT
; _this$ = ecx

; 580  : {

  00000	55		 push	 ebp
  00001	8b ec		 mov	 ebp, esp
  00003	6a ff		 push	 -1
  00005	68 00 00 00 00	 push	 __ehhandler$?SetItembyStyleandType@CSetItemOfColorListBox@@AAEX_NPAUIGraphInfo135914@@HPAVCListBoxColorPickerST@@@Z
  0000a	64 a1 00 00 00
	00		 mov	 eax, DWORD PTR fs:0
  00010	50		 push	 eax
  00011	53		 push	 ebx
  00012	56		 push	 esi
  00013	57		 push	 edi
  00014	a1 00 00 00 00	 mov	 eax, DWORD PTR ___security_cookie
  00019	33 c5		 xor	 eax, ebp
  0001b	50		 push	 eax
  0001c	8d 45 f4	 lea	 eax, DWORD PTR __$EHRec$[ebp]
  0001f	64 a3 00 00 00
	00		 mov	 DWORD PTR fs:0, eax
  00025	8b f1		 mov	 esi, ecx

; 581  : 	if( p_nSubGraphIndex < 0) return;

  00027	8b 7d 10	 mov	 edi, DWORD PTR _p_nSubGraphIndex$[ebp]
  0002a	85 ff		 test	 edi, edi
  0002c	0f 88 53 01 00
	00		 js	 $LN20@SetItembyS

; 582  : 	
; 583  : 	switch( p_pIGraphInfo->GetSubGraphType( p_nSubGraphIndex))

  00032	8b 5d 0c	 mov	 ebx, DWORD PTR _p_pIGraphInfo$[ebp]
  00035	8b cb		 mov	 ecx, ebx
  00037	57		 push	 edi
  00038	8b 03		 mov	 eax, DWORD PTR [ebx]
  0003a	ff 50 50	 call	 DWORD PTR [eax+80]
  0003d	83 e8 00	 sub	 eax, 0
  00040	74 4e		 je	 SHORT $LN5@SetItembyS
  00042	8b ce		 mov	 ecx, esi
  00044	83 e8 01	 sub	 eax, 1
  00047	74 05		 je	 SHORT $LN6@SetItembyS
  00049	83 e8 01	 sub	 eax, 1
  0004c	74 21		 je	 SHORT $LN7@SetItembyS
$LN6@SetItembyS:

; 594  : 			break;
; 595  : 		default:
; 596  : 			InCaseOfStylsIsLine(bSetUp, p_nSubGraphIndex, pListBox, p_pIGraphInfo);
; 597  : 			break;
; 598  : 	}
; 599  : }

  0004e	53		 push	 ebx
  0004f	ff 75 14	 push	 DWORD PTR _pListBox$[ebp]
  00052	57		 push	 edi
  00053	ff 75 08	 push	 DWORD PTR _bSetUp$[ebp]
  00056	e8 00 00 00 00	 call	 ?InCaseOfStylsIsLine@CSetItemOfColorListBox@@AAEX_NHPAVCListBoxColorPickerST@@PAUIGraphInfo135914@@@Z ; CSetItemOfColorListBox::InCaseOfStylsIsLine
  0005b	8b 4d f4	 mov	 ecx, DWORD PTR __$EHRec$[ebp]
  0005e	64 89 0d 00 00
	00 00		 mov	 DWORD PTR fs:0, ecx
  00065	59		 pop	 ecx
  00066	5f		 pop	 edi
  00067	5e		 pop	 esi
  00068	5b		 pop	 ebx
  00069	8b e5		 mov	 esp, ebp
  0006b	5d		 pop	 ebp
  0006c	c2 10 00	 ret	 16			; 00000010H
$LN7@SetItembyS:

; 584  : 	{
; 585  : 		case CGraphBaseData::Bong_Type:
; 586  : 			InCaseOfStylsIsBong( p_pIGraphInfo, bSetUp, p_nSubGraphIndex, pListBox);
; 587  : 			break;
; 588  : 		case CGraphBaseData::Line_Type:
; 589  : 			// 종찬(04/10/04) 선형;채움형; 수정
; 590  : 			InCaseOfStylsIsLine(bSetUp, p_nSubGraphIndex, pListBox, p_pIGraphInfo);
; 591  : 			break;
; 592  : 		case CGraphBaseData::Bar_Type:
; 593  : 			InCaseOfStylsIsBar(bSetUp, p_pIGraphInfo, p_nSubGraphIndex, pListBox);

  0006f	ff 75 14	 push	 DWORD PTR _pListBox$[ebp]
  00072	57		 push	 edi
  00073	53		 push	 ebx
  00074	ff 75 08	 push	 DWORD PTR _bSetUp$[ebp]
  00077	e8 00 00 00 00	 call	 ?InCaseOfStylsIsBar@CSetItemOfColorListBox@@AAEX_NPAUIGraphInfo135914@@HPAVCListBoxColorPickerST@@@Z ; CSetItemOfColorListBox::InCaseOfStylsIsBar

; 594  : 			break;
; 595  : 		default:
; 596  : 			InCaseOfStylsIsLine(bSetUp, p_nSubGraphIndex, pListBox, p_pIGraphInfo);
; 597  : 			break;
; 598  : 	}
; 599  : }

  0007c	8b 4d f4	 mov	 ecx, DWORD PTR __$EHRec$[ebp]
  0007f	64 89 0d 00 00
	00 00		 mov	 DWORD PTR fs:0, ecx
  00086	59		 pop	 ecx
  00087	5f		 pop	 edi
  00088	5e		 pop	 esi
  00089	5b		 pop	 ebx
  0008a	8b e5		 mov	 esp, ebp
  0008c	5d		 pop	 ebp
  0008d	c2 10 00	 ret	 16			; 00000010H
$LN5@SetItembyS:

; 606  : 	switch( p_pIGraphInfo->GetSubGraphStyle( p_nSubGraphIndex))

  00090	8b 03		 mov	 eax, DWORD PTR [ebx]
  00092	8b cb		 mov	 ecx, ebx
  00094	57		 push	 edi
  00095	ff 50 54	 call	 DWORD PTR [eax+84]
  00098	83 e8 00	 sub	 eax, 0
  0009b	74 7e		 je	 SHORT $LN14@SetItembyS
  0009d	83 e8 01	 sub	 eax, 1
  000a0	74 79		 je	 SHORT $LN14@SetItembyS
  000a2	83 e8 01	 sub	 eax, 1
  000a5	0f 85 da 00 00
	00		 jne	 $LN20@SetItembyS

; 631  : 	if(bSetUp)

  000ab	38 45 08	 cmp	 BYTE PTR _bSetUp$[ebp], al
  000ae	74 4f		 je	 SHORT $LN27@SetItembyS

; 207  : 	CString strColor;

  000b0	8d 4d 08	 lea	 ecx, DWORD PTR _strColor$2[ebp]
  000b3	ff 15 00 00 00
	00		 call	 DWORD PTR __imp_??0?$CStringT@DV?$StrTraitMFC_DLL@DV?$ChTraitsCRT@D@ATL@@@@@ATL@@QAE@XZ

; 208  : 	strColor.LoadString(IDS_STRING_COLOR);

  000b9	6a 10		 push	 16			; 00000010H
  000bb	8d 4d 08	 lea	 ecx, DWORD PTR _strColor$2[ebp]
  000be	c7 45 fc 00 00
	00 00		 mov	 DWORD PTR __$EHRec$[ebp+8], 0
  000c5	ff 15 00 00 00
	00		 call	 DWORD PTR __imp_?LoadStringA@?$CStringT@DV?$StrTraitMFC_DLL@DV?$ChTraitsCRT@D@ATL@@@@@ATL@@QAEHI@Z

; 210  : 	pListBox->AddString(strColor, p_pIGraphInfo->GetSubGraphColor( p_nSubGraphIndex, 1));

  000cb	8b 03		 mov	 eax, DWORD PTR [ebx]
  000cd	8b cb		 mov	 ecx, ebx
; File C:\Program Files (x86)\Microsoft Visual Studio\2019\Community\VC\Tools\MSVC\14.29.30133\atlmfc\include\atlsimpstr.h

; 377  : 		return( m_pszData );

  000cf	8b 75 08	 mov	 esi, DWORD PTR _strColor$2[ebp]
; File D:\git\src\IBK\IBK_DRFN\ProjSrc\SrcChartEx\ChartAddIn\ChartEnvSetupDlgAddIn\ChartEnvSetupDlgAddIn\SetItemOfColorListBox.cpp

; 210  : 	pListBox->AddString(strColor, p_pIGraphInfo->GetSubGraphColor( p_nSubGraphIndex, 1));

  000d2	6a 01		 push	 1
  000d4	57		 push	 edi
  000d5	ff 50 64	 call	 DWORD PTR [eax+100]
  000d8	8b 4d 14	 mov	 ecx, DWORD PTR _pListBox$[ebp]
  000db	50		 push	 eax
  000dc	56		 push	 esi
  000dd	e8 00 00 00 00	 call	 ?AddString@CListBoxColorPickerST@@QAEHPBDK@Z ; CListBoxColorPickerST::AddString

; 211  : // 2008.01.25 by LYH <<
; 212  : }

  000e2	8d 4d 08	 lea	 ecx, DWORD PTR _strColor$2[ebp]
  000e5	ff 15 00 00 00
	00		 call	 DWORD PTR __imp_??1?$CStringT@DV?$StrTraitMFC_DLL@DV?$ChTraitsCRT@D@ATL@@@@@ATL@@QAE@XZ

; 594  : 			break;
; 595  : 		default:
; 596  : 			InCaseOfStylsIsLine(bSetUp, p_nSubGraphIndex, pListBox, p_pIGraphInfo);
; 597  : 			break;
; 598  : 	}
; 599  : }

  000eb	8b 4d f4	 mov	 ecx, DWORD PTR __$EHRec$[ebp]
  000ee	64 89 0d 00 00
	00 00		 mov	 DWORD PTR fs:0, ecx
  000f5	59		 pop	 ecx
  000f6	5f		 pop	 edi
  000f7	5e		 pop	 esi
  000f8	5b		 pop	 ebx
  000f9	8b e5		 mov	 esp, ebp
  000fb	5d		 pop	 ebp
  000fc	c2 10 00	 ret	 16			; 00000010H
$LN27@SetItembyS:

; 634  : 		OnApply_upcolor( p_pIGraphInfo, p_nSubGraphIndex, pListBox->GetColor(0));

  000ff	8b 4d 14	 mov	 ecx, DWORD PTR _pListBox$[ebp]
  00102	6a 00		 push	 0
  00104	e8 00 00 00 00	 call	 ?GetColor@CListBoxColorPickerST@@QAEKH@Z ; CListBoxColorPickerST::GetColor

; 518  : 	p_pIGraphInfo->SetSubGraphColor( p_nSubGraphIndex, 1, color);

  00109	8b 13		 mov	 edx, DWORD PTR [ebx]

; 634  : 		OnApply_upcolor( p_pIGraphInfo, p_nSubGraphIndex, pListBox->GetColor(0));

  0010b	8b f0		 mov	 esi, eax

; 518  : 	p_pIGraphInfo->SetSubGraphColor( p_nSubGraphIndex, 1, color);

  0010d	56		 push	 esi
  0010e	6a 01		 push	 1
  00110	57		 push	 edi
  00111	8b cb		 mov	 ecx, ebx
  00113	ff 52 6c	 call	 DWORD PTR [edx+108]

; 519  : 	p_pIGraphInfo->SetSubGraphColor( p_nSubGraphIndex, 2, color);

  00116	56		 push	 esi
  00117	6a 02		 push	 2
  00119	eb 62		 jmp	 SHORT $LN38@SetItembyS
$LN14@SetItembyS:

; 621  : 	if( bSetUp) SetItem_UPDOWN( p_pIGraphInfo, p_nSubGraphIndex, pListBox);

  0011b	80 7d 08 00	 cmp	 BYTE PTR _bSetUp$[ebp], 0
  0011f	74 20		 je	 SHORT $LN19@SetItembyS
  00121	ff 75 14	 push	 DWORD PTR _pListBox$[ebp]
  00124	8b ce		 mov	 ecx, esi
  00126	57		 push	 edi
  00127	53		 push	 ebx
  00128	e8 00 00 00 00	 call	 ?SetItem_UPDOWN@CSetItemOfColorListBox@@AAEXPAUIGraphInfo135914@@HPAVCListBoxColorPickerST@@@Z ; CSetItemOfColorListBox::SetItem_UPDOWN

; 594  : 			break;
; 595  : 		default:
; 596  : 			InCaseOfStylsIsLine(bSetUp, p_nSubGraphIndex, pListBox, p_pIGraphInfo);
; 597  : 			break;
; 598  : 	}
; 599  : }

  0012d	8b 4d f4	 mov	 ecx, DWORD PTR __$EHRec$[ebp]
  00130	64 89 0d 00 00
	00 00		 mov	 DWORD PTR fs:0, ecx
  00137	59		 pop	 ecx
  00138	5f		 pop	 edi
  00139	5e		 pop	 esi
  0013a	5b		 pop	 ebx
  0013b	8b e5		 mov	 esp, ebp
  0013d	5d		 pop	 ebp
  0013e	c2 10 00	 ret	 16			; 00000010H
$LN19@SetItembyS:

; 624  : 		OnApply_upcolor( p_pIGraphInfo, p_nSubGraphIndex, pListBox->GetColor(0));

  00141	8b 4d 14	 mov	 ecx, DWORD PTR _pListBox$[ebp]
  00144	6a 00		 push	 0
  00146	e8 00 00 00 00	 call	 ?GetColor@CListBoxColorPickerST@@QAEKH@Z ; CListBoxColorPickerST::GetColor

; 518  : 	p_pIGraphInfo->SetSubGraphColor( p_nSubGraphIndex, 1, color);

  0014b	8b 13		 mov	 edx, DWORD PTR [ebx]

; 624  : 		OnApply_upcolor( p_pIGraphInfo, p_nSubGraphIndex, pListBox->GetColor(0));

  0014d	8b f0		 mov	 esi, eax

; 518  : 	p_pIGraphInfo->SetSubGraphColor( p_nSubGraphIndex, 1, color);

  0014f	56		 push	 esi
  00150	6a 01		 push	 1
  00152	57		 push	 edi
  00153	8b cb		 mov	 ecx, ebx
  00155	ff 52 6c	 call	 DWORD PTR [edx+108]

; 519  : 	p_pIGraphInfo->SetSubGraphColor( p_nSubGraphIndex, 2, color);

  00158	8b 13		 mov	 edx, DWORD PTR [ebx]
  0015a	8b cb		 mov	 ecx, ebx
  0015c	56		 push	 esi
  0015d	6a 02		 push	 2
  0015f	57		 push	 edi
  00160	ff 52 6c	 call	 DWORD PTR [edx+108]

; 625  : 		OnApply_downcolor( p_pIGraphInfo, p_nSubGraphIndex, pListBox->GetColor(1));

  00163	8b 4d 14	 mov	 ecx, DWORD PTR _pListBox$[ebp]
  00166	6a 01		 push	 1
  00168	e8 00 00 00 00	 call	 ?GetColor@CListBoxColorPickerST@@QAEKH@Z ; CListBoxColorPickerST::GetColor

; 524  : 	p_pIGraphInfo->SetSubGraphColor( p_nSubGraphIndex, 3, color);

  0016d	8b 13		 mov	 edx, DWORD PTR [ebx]

; 625  : 		OnApply_downcolor( p_pIGraphInfo, p_nSubGraphIndex, pListBox->GetColor(1));

  0016f	8b f0		 mov	 esi, eax

; 524  : 	p_pIGraphInfo->SetSubGraphColor( p_nSubGraphIndex, 3, color);

  00171	56		 push	 esi
  00172	6a 03		 push	 3
  00174	57		 push	 edi
  00175	8b cb		 mov	 ecx, ebx
  00177	ff 52 6c	 call	 DWORD PTR [edx+108]

; 525  : 	p_pIGraphInfo->SetSubGraphColor( p_nSubGraphIndex, 4, color);

  0017a	56		 push	 esi
  0017b	6a 04		 push	 4
$LN38@SetItembyS:

; 594  : 			break;
; 595  : 		default:
; 596  : 			InCaseOfStylsIsLine(bSetUp, p_nSubGraphIndex, pListBox, p_pIGraphInfo);
; 597  : 			break;
; 598  : 	}
; 599  : }

  0017d	8b 13		 mov	 edx, DWORD PTR [ebx]
  0017f	8b cb		 mov	 ecx, ebx
  00181	57		 push	 edi
  00182	ff 52 6c	 call	 DWORD PTR [edx+108]
$LN20@SetItembyS:
  00185	8b 4d f4	 mov	 ecx, DWORD PTR __$EHRec$[ebp]
  00188	64 89 0d 00 00
	00 00		 mov	 DWORD PTR fs:0, ecx
  0018f	59		 pop	 ecx
  00190	5f		 pop	 edi
  00191	5e		 pop	 esi
  00192	5b		 pop	 ebx
  00193	8b e5		 mov	 esp, ebp
  00195	5d		 pop	 ebp
  00196	c2 10 00	 ret	 16			; 00000010H
_TEXT	ENDS
;	COMDAT text$x
text$x	SEGMENT
__unwindfunclet$?SetItembyStyleandType@CSetItemOfColorListBox@@AAEX_NPAUIGraphInfo135914@@HPAVCListBoxColorPickerST@@@Z$0:
  00000	8d 4d 08	 lea	 ecx, DWORD PTR _strColor$2[ebp]
  00003	ff 25 00 00 00
	00		 jmp	 DWORD PTR __imp_??1?$CStringT@DV?$StrTraitMFC_DLL@DV?$ChTraitsCRT@D@ATL@@@@@ATL@@QAE@XZ
  00009	cc		 int	 3
  0000a	cc		 int	 3
  0000b	cc		 int	 3
  0000c	cc		 int	 3
  0000d	cc		 int	 3
__ehhandler$?SetItembyStyleandType@CSetItemOfColorListBox@@AAEX_NPAUIGraphInfo135914@@HPAVCListBoxColorPickerST@@@Z:
  0000e	90		 npad	 1
  0000f	90		 npad	 1
  00010	8b 54 24 08	 mov	 edx, DWORD PTR [esp+8]
  00014	8d 42 0c	 lea	 eax, DWORD PTR [edx+12]
  00017	8b 4a f0	 mov	 ecx, DWORD PTR [edx-16]
  0001a	33 c8		 xor	 ecx, eax
  0001c	e8 00 00 00 00	 call	 @__security_check_cookie@4
  00021	b8 00 00 00 00	 mov	 eax, OFFSET __ehfuncinfo$?SetItembyStyleandType@CSetItemOfColorListBox@@AAEX_NPAUIGraphInfo135914@@HPAVCListBoxColorPickerST@@@Z
  00026	e9 00 00 00 00	 jmp	 ___CxxFrameHandler3
text$x	ENDS
?SetItembyStyleandType@CSetItemOfColorListBox@@AAEX_NPAUIGraphInfo135914@@HPAVCListBoxColorPickerST@@@Z ENDP ; CSetItemOfColorListBox::SetItembyStyleandType
; Function compile flags: /Ogtp
; File D:\git\src\IBK\IBK_DRFN\ProjSrc\SrcChartEx\ChartAddIn\ChartEnvSetupDlgAddIn\ChartEnvSetupDlgAddIn\SetItemOfColorListBox.cpp
; File C:\Program Files (x86)\Microsoft Visual Studio\2019\Community\VC\Tools\MSVC\14.29.30133\atlmfc\include\atlsimpstr.h
; File D:\git\src\IBK\IBK_DRFN\ProjSrc\SrcChartEx\ChartAddIn\ChartEnvSetupDlgAddIn\ChartEnvSetupDlgAddIn\SetItemOfColorListBox.cpp
;	COMDAT ?InCaseOfStylsIsBar@CSetItemOfColorListBox@@AAEX_NPAUIGraphInfo135914@@HPAVCListBoxColorPickerST@@@Z
_TEXT	SEGMENT
__$EHRec$ = -12						; size = 12
_pIConditionList$1$ = 8					; size = 4
_strColor$2 = 8						; size = 4
_pIConditionList$1$ = 8					; size = 4
_bSetUp$ = 8						; size = 1
_p_pIGraphInfo$ = 12					; size = 4
_p_nSubGraphIndex$ = 16					; size = 4
_pListBox$ = 20						; size = 4
?InCaseOfStylsIsBar@CSetItemOfColorListBox@@AAEX_NPAUIGraphInfo135914@@HPAVCListBoxColorPickerST@@@Z PROC ; CSetItemOfColorListBox::InCaseOfStylsIsBar, COMDAT
; _this$ = ecx

; 709  : {

  00000	55		 push	 ebp
  00001	8b ec		 mov	 ebp, esp
  00003	6a ff		 push	 -1
  00005	68 00 00 00 00	 push	 __ehhandler$?InCaseOfStylsIsBar@CSetItemOfColorListBox@@AAEX_NPAUIGraphInfo135914@@HPAVCListBoxColorPickerST@@@Z
  0000a	64 a1 00 00 00
	00		 mov	 eax, DWORD PTR fs:0
  00010	50		 push	 eax
  00011	53		 push	 ebx
  00012	56		 push	 esi
  00013	57		 push	 edi
  00014	a1 00 00 00 00	 mov	 eax, DWORD PTR ___security_cookie
  00019	33 c5		 xor	 eax, ebp
  0001b	50		 push	 eax
  0001c	8d 45 f4	 lea	 eax, DWORD PTR __$EHRec$[ebp]
  0001f	64 a3 00 00 00
	00		 mov	 DWORD PTR fs:0, eax
  00025	8b f1		 mov	 esi, ecx

; 764  : 	if( p_nSubGraphIndex < 0) return;

  00027	8b 7d 10	 mov	 edi, DWORD PTR _p_nSubGraphIndex$[ebp]

; 709  : {

  0002a	8a 45 08	 mov	 al, BYTE PTR _bSetUp$[ebp]

; 764  : 	if( p_nSubGraphIndex < 0) return;

  0002d	85 ff		 test	 edi, edi
  0002f	0f 88 0b 02 00
	00		 js	 $LN24@InCaseOfSt

; 710  : 	if(bSetUp)

  00035	8b 5d 0c	 mov	 ebx, DWORD PTR _p_pIGraphInfo$[ebp]
  00038	84 c0		 test	 al, al
  0003a	57		 push	 edi
  0003b	8b cb		 mov	 ecx, ebx
  0003d	8b 03		 mov	 eax, DWORD PTR [ebx]
  0003f	0f 84 14 01 00
	00		 je	 $LN2@InCaseOfSt

; 766  : 	switch( p_pIGraphInfo->GetSubGraphStyle( p_nSubGraphIndex))

  00045	ff 50 54	 call	 DWORD PTR [eax+84]
  00048	83 f8 0c	 cmp	 eax, 12			; 0000000cH
  0004b	0f 87 b9 00 00
	00		 ja	 $LN16@InCaseOfSt
  00051	0f b6 80 00 00
	00 00		 movzx	 eax, BYTE PTR $LN42@InCaseOfSt[eax]
  00058	ff 24 85 00 00
	00 00		 jmp	 DWORD PTR $LN43@InCaseOfSt[eax*4]
$LN9@InCaseOfSt:

; 767  : 	{
; 768  : 		case CGraphBaseData::VerticalBar:// 수직식
; 769  : 		{
; 770  : 			//상승하락 표현
; 771  : 			BOOL bSetted = FALSE;
; 772  : 			IDoubleList *pIConditionList = p_pIGraphInfo->GetCommonCalculateConditionList();

  0005f	8b 03		 mov	 eax, DWORD PTR [ebx]
  00061	8b cb		 mov	 ecx, ebx
  00063	ff 50 10	 call	 DWORD PTR [eax+16]
  00066	89 45 08	 mov	 DWORD PTR _pIConditionList$1$[ebp], eax

; 773  : 			if( pIConditionList)

  00069	85 c0		 test	 eax, eax
  0006b	74 3d		 je	 SHORT $LN40@InCaseOfSt

; 774  : 			{
; 775  : 				if( pIConditionList->GetCount())

  0006d	8b 10		 mov	 edx, DWORD PTR [eax]
  0006f	8b c8		 mov	 ecx, eax
  00071	ff 52 10	 call	 DWORD PTR [edx+16]
  00074	85 c0		 test	 eax, eax
  00076	74 29		 je	 SHORT $LN11@InCaseOfSt

; 776  : 				{
; 777  : 					SetItem_UPDOWN( p_pIGraphInfo, p_nSubGraphIndex, pListBox);						

  00078	ff 75 14	 push	 DWORD PTR _pListBox$[ebp]
  0007b	8b ce		 mov	 ecx, esi
  0007d	57		 push	 edi
  0007e	53		 push	 ebx
  0007f	e8 00 00 00 00	 call	 ?SetItem_UPDOWN@CSetItemOfColorListBox@@AAEXPAUIGraphInfo135914@@HPAVCListBoxColorPickerST@@@Z ; CSetItemOfColorListBox::SetItem_UPDOWN

; 778  : 					bSetted = TRUE;

  00084	8b 4d 08	 mov	 ecx, DWORD PTR _pIConditionList$1$[ebp]
  00087	51		 push	 ecx
  00088	8b 01		 mov	 eax, DWORD PTR [ecx]
  0008a	ff 50 08	 call	 DWORD PTR [eax+8]

; 711  : 		SetItemInCaseOfStylsIsBar(p_pIGraphInfo, p_nSubGraphIndex, pListBox);
; 712  : 	else 
; 713  : 		OnApplyInCaseOfStylsIsBar(p_pIGraphInfo, p_nSubGraphIndex, pListBox);
; 714  : //      case CGraphBaseData::HorizontalBar:	// 수평식
; 715  : //      case CGraphBaseData::UpDownBar:	// 상하식
; 716  : //      case CGraphBaseData::CombBar:	// 빗형식
; 717  : //      case CGraphBaseData::LeftRightBar:	// 좌우식
; 718  : //      case CGraphBaseData::LeftRightCombBar:	// 좌우빗형식
; 719  : //      case CGraphBaseData::GroupBar:	// 그룹바식
; 720  : //      case CGraphBaseData::RatioBar:	// 비율식 (ex- 매수/매도 거래량 표현시)
; 721  : //      case CGraphBaseData::TextHorizontalBar:	// Text가 있는 수평식
; 722  : //      case CGraphBaseData::TextGroupBar:	// Text가 있는 그룹 바식
; 723  : //      case CGraphBaseData::FixedRateLeftRightBar:	// 고정비율좌우식
; 724  : }

  0008d	8b 4d f4	 mov	 ecx, DWORD PTR __$EHRec$[ebp]
  00090	64 89 0d 00 00
	00 00		 mov	 DWORD PTR fs:0, ecx
  00097	59		 pop	 ecx
  00098	5f		 pop	 edi
  00099	5e		 pop	 esi
  0009a	5b		 pop	 ebx
  0009b	8b e5		 mov	 esp, ebp
  0009d	5d		 pop	 ebp
  0009e	c2 10 00	 ret	 16			; 00000010H
$LN11@InCaseOfSt:

; 780  : 				pIConditionList->Release();

  000a1	8b 4d 08	 mov	 ecx, DWORD PTR _pIConditionList$1$[ebp]
  000a4	51		 push	 ecx
  000a5	8b 01		 mov	 eax, DWORD PTR [ecx]
  000a7	ff 50 08	 call	 DWORD PTR [eax+8]
$LN40@InCaseOfSt:

; 781  : 			}
; 782  : 			if( !bSetted) SetItem_COLOR( p_pIGraphInfo, p_nSubGraphIndex, pListBox);

  000aa	ff 75 14	 push	 DWORD PTR _pListBox$[ebp]
  000ad	8b ce		 mov	 ecx, esi
  000af	57		 push	 edi
  000b0	53		 push	 ebx
  000b1	e8 00 00 00 00	 call	 ?SetItem_COLOR@CSetItemOfColorListBox@@AAEXPAUIGraphInfo135914@@HPAVCListBoxColorPickerST@@@Z ; CSetItemOfColorListBox::SetItem_COLOR

; 711  : 		SetItemInCaseOfStylsIsBar(p_pIGraphInfo, p_nSubGraphIndex, pListBox);
; 712  : 	else 
; 713  : 		OnApplyInCaseOfStylsIsBar(p_pIGraphInfo, p_nSubGraphIndex, pListBox);
; 714  : //      case CGraphBaseData::HorizontalBar:	// 수평식
; 715  : //      case CGraphBaseData::UpDownBar:	// 상하식
; 716  : //      case CGraphBaseData::CombBar:	// 빗형식
; 717  : //      case CGraphBaseData::LeftRightBar:	// 좌우식
; 718  : //      case CGraphBaseData::LeftRightCombBar:	// 좌우빗형식
; 719  : //      case CGraphBaseData::GroupBar:	// 그룹바식
; 720  : //      case CGraphBaseData::RatioBar:	// 비율식 (ex- 매수/매도 거래량 표현시)
; 721  : //      case CGraphBaseData::TextHorizontalBar:	// Text가 있는 수평식
; 722  : //      case CGraphBaseData::TextGroupBar:	// Text가 있는 그룹 바식
; 723  : //      case CGraphBaseData::FixedRateLeftRightBar:	// 고정비율좌우식
; 724  : }

  000b6	8b 4d f4	 mov	 ecx, DWORD PTR __$EHRec$[ebp]
  000b9	64 89 0d 00 00
	00 00		 mov	 DWORD PTR fs:0, ecx
  000c0	59		 pop	 ecx
  000c1	5f		 pop	 edi
  000c2	5e		 pop	 esi
  000c3	5b		 pop	 ebx
  000c4	8b e5		 mov	 esp, ebp
  000c6	5d		 pop	 ebp
  000c7	c2 10 00	 ret	 16			; 00000010H
$LN13@InCaseOfSt:

; 787  : 			SetItem_UPDOWN( p_pIGraphInfo, p_nSubGraphIndex, pListBox);

  000ca	ff 75 14	 push	 DWORD PTR _pListBox$[ebp]
  000cd	8b ce		 mov	 ecx, esi
  000cf	57		 push	 edi
  000d0	53		 push	 ebx
  000d1	e8 00 00 00 00	 call	 ?SetItem_UPDOWN@CSetItemOfColorListBox@@AAEXPAUIGraphInfo135914@@HPAVCListBoxColorPickerST@@@Z ; CSetItemOfColorListBox::SetItem_UPDOWN

; 711  : 		SetItemInCaseOfStylsIsBar(p_pIGraphInfo, p_nSubGraphIndex, pListBox);
; 712  : 	else 
; 713  : 		OnApplyInCaseOfStylsIsBar(p_pIGraphInfo, p_nSubGraphIndex, pListBox);
; 714  : //      case CGraphBaseData::HorizontalBar:	// 수평식
; 715  : //      case CGraphBaseData::UpDownBar:	// 상하식
; 716  : //      case CGraphBaseData::CombBar:	// 빗형식
; 717  : //      case CGraphBaseData::LeftRightBar:	// 좌우식
; 718  : //      case CGraphBaseData::LeftRightCombBar:	// 좌우빗형식
; 719  : //      case CGraphBaseData::GroupBar:	// 그룹바식
; 720  : //      case CGraphBaseData::RatioBar:	// 비율식 (ex- 매수/매도 거래량 표현시)
; 721  : //      case CGraphBaseData::TextHorizontalBar:	// Text가 있는 수평식
; 722  : //      case CGraphBaseData::TextGroupBar:	// Text가 있는 그룹 바식
; 723  : //      case CGraphBaseData::FixedRateLeftRightBar:	// 고정비율좌우식
; 724  : }

  000d6	8b 4d f4	 mov	 ecx, DWORD PTR __$EHRec$[ebp]
  000d9	64 89 0d 00 00
	00 00		 mov	 DWORD PTR fs:0, ecx
  000e0	59		 pop	 ecx
  000e1	5f		 pop	 edi
  000e2	5e		 pop	 esi
  000e3	5b		 pop	 ebx
  000e4	8b e5		 mov	 esp, ebp
  000e6	5d		 pop	 ebp
  000e7	c2 10 00	 ret	 16			; 00000010H
$LN15@InCaseOfSt:

; 790  : 			SetItem_SUB_UPFILL_DOWNFILL( p_pIGraphInfo, p_nSubGraphIndex, pListBox);

  000ea	ff 75 14	 push	 DWORD PTR _pListBox$[ebp]
  000ed	8b ce		 mov	 ecx, esi
  000ef	57		 push	 edi
  000f0	53		 push	 ebx
  000f1	e8 00 00 00 00	 call	 ?SetItem_SUB_UPFILL_DOWNFILL@CSetItemOfColorListBox@@AAEXPAUIGraphInfo135914@@HPAVCListBoxColorPickerST@@@Z ; CSetItemOfColorListBox::SetItem_SUB_UPFILL_DOWNFILL

; 711  : 		SetItemInCaseOfStylsIsBar(p_pIGraphInfo, p_nSubGraphIndex, pListBox);
; 712  : 	else 
; 713  : 		OnApplyInCaseOfStylsIsBar(p_pIGraphInfo, p_nSubGraphIndex, pListBox);
; 714  : //      case CGraphBaseData::HorizontalBar:	// 수평식
; 715  : //      case CGraphBaseData::UpDownBar:	// 상하식
; 716  : //      case CGraphBaseData::CombBar:	// 빗형식
; 717  : //      case CGraphBaseData::LeftRightBar:	// 좌우식
; 718  : //      case CGraphBaseData::LeftRightCombBar:	// 좌우빗형식
; 719  : //      case CGraphBaseData::GroupBar:	// 그룹바식
; 720  : //      case CGraphBaseData::RatioBar:	// 비율식 (ex- 매수/매도 거래량 표현시)
; 721  : //      case CGraphBaseData::TextHorizontalBar:	// Text가 있는 수평식
; 722  : //      case CGraphBaseData::TextGroupBar:	// Text가 있는 그룹 바식
; 723  : //      case CGraphBaseData::FixedRateLeftRightBar:	// 고정비율좌우식
; 724  : }

  000f6	8b 4d f4	 mov	 ecx, DWORD PTR __$EHRec$[ebp]
  000f9	64 89 0d 00 00
	00 00		 mov	 DWORD PTR fs:0, ecx
  00100	59		 pop	 ecx
  00101	5f		 pop	 edi
  00102	5e		 pop	 esi
  00103	5b		 pop	 ebx
  00104	8b e5		 mov	 esp, ebp
  00106	5d		 pop	 ebp
  00107	c2 10 00	 ret	 16			; 00000010H
$LN16@InCaseOfSt:

; 207  : 	CString strColor;

  0010a	8d 4d 08	 lea	 ecx, DWORD PTR _strColor$2[ebp]
  0010d	ff 15 00 00 00
	00		 call	 DWORD PTR __imp_??0?$CStringT@DV?$StrTraitMFC_DLL@DV?$ChTraitsCRT@D@ATL@@@@@ATL@@QAE@XZ

; 208  : 	strColor.LoadString(IDS_STRING_COLOR);

  00113	6a 10		 push	 16			; 00000010H
  00115	8d 4d 08	 lea	 ecx, DWORD PTR _strColor$2[ebp]
  00118	c7 45 fc 00 00
	00 00		 mov	 DWORD PTR __$EHRec$[ebp+8], 0
  0011f	ff 15 00 00 00
	00		 call	 DWORD PTR __imp_?LoadStringA@?$CStringT@DV?$StrTraitMFC_DLL@DV?$ChTraitsCRT@D@ATL@@@@@ATL@@QAEHI@Z

; 210  : 	pListBox->AddString(strColor, p_pIGraphInfo->GetSubGraphColor( p_nSubGraphIndex, 1));

  00125	8b 03		 mov	 eax, DWORD PTR [ebx]
  00127	8b cb		 mov	 ecx, ebx
; File C:\Program Files (x86)\Microsoft Visual Studio\2019\Community\VC\Tools\MSVC\14.29.30133\atlmfc\include\atlsimpstr.h

; 377  : 		return( m_pszData );

  00129	8b 75 08	 mov	 esi, DWORD PTR _strColor$2[ebp]
; File D:\git\src\IBK\IBK_DRFN\ProjSrc\SrcChartEx\ChartAddIn\ChartEnvSetupDlgAddIn\ChartEnvSetupDlgAddIn\SetItemOfColorListBox.cpp

; 210  : 	pListBox->AddString(strColor, p_pIGraphInfo->GetSubGraphColor( p_nSubGraphIndex, 1));

  0012c	6a 01		 push	 1
  0012e	57		 push	 edi
  0012f	ff 50 64	 call	 DWORD PTR [eax+100]
  00132	8b 4d 14	 mov	 ecx, DWORD PTR _pListBox$[ebp]
  00135	50		 push	 eax
  00136	56		 push	 esi
  00137	e8 00 00 00 00	 call	 ?AddString@CListBoxColorPickerST@@QAEHPBDK@Z ; CListBoxColorPickerST::AddString

; 211  : // 2008.01.25 by LYH <<
; 212  : }

  0013c	8d 4d 08	 lea	 ecx, DWORD PTR _strColor$2[ebp]
  0013f	ff 15 00 00 00
	00		 call	 DWORD PTR __imp_??1?$CStringT@DV?$StrTraitMFC_DLL@DV?$ChTraitsCRT@D@ATL@@@@@ATL@@QAE@XZ

; 711  : 		SetItemInCaseOfStylsIsBar(p_pIGraphInfo, p_nSubGraphIndex, pListBox);
; 712  : 	else 
; 713  : 		OnApplyInCaseOfStylsIsBar(p_pIGraphInfo, p_nSubGraphIndex, pListBox);
; 714  : //      case CGraphBaseData::HorizontalBar:	// 수평식
; 715  : //      case CGraphBaseData::UpDownBar:	// 상하식
; 716  : //      case CGraphBaseData::CombBar:	// 빗형식
; 717  : //      case CGraphBaseData::LeftRightBar:	// 좌우식
; 718  : //      case CGraphBaseData::LeftRightCombBar:	// 좌우빗형식
; 719  : //      case CGraphBaseData::GroupBar:	// 그룹바식
; 720  : //      case CGraphBaseData::RatioBar:	// 비율식 (ex- 매수/매도 거래량 표현시)
; 721  : //      case CGraphBaseData::TextHorizontalBar:	// Text가 있는 수평식
; 722  : //      case CGraphBaseData::TextGroupBar:	// Text가 있는 그룹 바식
; 723  : //      case CGraphBaseData::FixedRateLeftRightBar:	// 고정비율좌우식
; 724  : }

  00145	8b 4d f4	 mov	 ecx, DWORD PTR __$EHRec$[ebp]
  00148	64 89 0d 00 00
	00 00		 mov	 DWORD PTR fs:0, ecx
  0014f	59		 pop	 ecx
  00150	5f		 pop	 edi
  00151	5e		 pop	 esi
  00152	5b		 pop	 ebx
  00153	8b e5		 mov	 esp, ebp
  00155	5d		 pop	 ebp
  00156	c2 10 00	 ret	 16			; 00000010H
$LN2@InCaseOfSt:

; 730  : 	switch( p_pIGraphInfo->GetSubGraphStyle( p_nSubGraphIndex))

  00159	ff 50 54	 call	 DWORD PTR [eax+84]
  0015c	83 f8 0c	 cmp	 eax, 12			; 0000000cH
  0015f	0f 87 b9 00 00
	00		 ja	 $LN34@InCaseOfSt
  00165	0f b6 80 00 00
	00 00		 movzx	 eax, BYTE PTR $LN44@InCaseOfSt[eax]
  0016c	ff 24 85 00 00
	00 00		 jmp	 DWORD PTR $LN45@InCaseOfSt[eax*4]
$LN27@InCaseOfSt:

; 731  : 	{
; 732  : 		case CGraphBaseData::VerticalBar:// 수직식
; 733  : 			{
; 734  : 				BOOL bApplyed = FALSE;
; 735  : 				IDoubleList *pIConditionList = p_pIGraphInfo->GetCommonCalculateConditionList();

  00173	8b 03		 mov	 eax, DWORD PTR [ebx]
  00175	8b cb		 mov	 ecx, ebx
  00177	ff 50 10	 call	 DWORD PTR [eax+16]
  0017a	89 45 08	 mov	 DWORD PTR _pIConditionList$1$[ebp], eax

; 736  : 				if( pIConditionList)

  0017d	85 c0		 test	 eax, eax
  0017f	74 3d		 je	 SHORT $LN41@InCaseOfSt

; 737  : 				{
; 738  : 					if( pIConditionList->GetCount())

  00181	8b 10		 mov	 edx, DWORD PTR [eax]
  00183	8b c8		 mov	 ecx, eax
  00185	ff 52 10	 call	 DWORD PTR [edx+16]
  00188	85 c0		 test	 eax, eax
  0018a	74 29		 je	 SHORT $LN29@InCaseOfSt

; 739  : 					{
; 740  : 						OnApply_UPDOWN( p_pIGraphInfo, pListBox, p_nSubGraphIndex);

  0018c	57		 push	 edi
  0018d	ff 75 14	 push	 DWORD PTR _pListBox$[ebp]
  00190	8b ce		 mov	 ecx, esi
  00192	53		 push	 ebx
  00193	e8 00 00 00 00	 call	 ?OnApply_UPDOWN@CSetItemOfColorListBox@@AAEXPAUIGraphInfo135914@@PAVCListBoxColorPickerST@@H@Z ; CSetItemOfColorListBox::OnApply_UPDOWN

; 741  : 						bApplyed = TRUE;

  00198	8b 4d 08	 mov	 ecx, DWORD PTR _pIConditionList$1$[ebp]
  0019b	51		 push	 ecx
  0019c	8b 01		 mov	 eax, DWORD PTR [ecx]
  0019e	ff 50 08	 call	 DWORD PTR [eax+8]

; 711  : 		SetItemInCaseOfStylsIsBar(p_pIGraphInfo, p_nSubGraphIndex, pListBox);
; 712  : 	else 
; 713  : 		OnApplyInCaseOfStylsIsBar(p_pIGraphInfo, p_nSubGraphIndex, pListBox);
; 714  : //      case CGraphBaseData::HorizontalBar:	// 수평식
; 715  : //      case CGraphBaseData::UpDownBar:	// 상하식
; 716  : //      case CGraphBaseData::CombBar:	// 빗형식
; 717  : //      case CGraphBaseData::LeftRightBar:	// 좌우식
; 718  : //      case CGraphBaseData::LeftRightCombBar:	// 좌우빗형식
; 719  : //      case CGraphBaseData::GroupBar:	// 그룹바식
; 720  : //      case CGraphBaseData::RatioBar:	// 비율식 (ex- 매수/매도 거래량 표현시)
; 721  : //      case CGraphBaseData::TextHorizontalBar:	// Text가 있는 수평식
; 722  : //      case CGraphBaseData::TextGroupBar:	// Text가 있는 그룹 바식
; 723  : //      case CGraphBaseData::FixedRateLeftRightBar:	// 고정비율좌우식
; 724  : }

  001a1	8b 4d f4	 mov	 ecx, DWORD PTR __$EHRec$[ebp]
  001a4	64 89 0d 00 00
	00 00		 mov	 DWORD PTR fs:0, ecx
  001ab	59		 pop	 ecx
  001ac	5f		 pop	 edi
  001ad	5e		 pop	 esi
  001ae	5b		 pop	 ebx
  001af	8b e5		 mov	 esp, ebp
  001b1	5d		 pop	 ebp
  001b2	c2 10 00	 ret	 16			; 00000010H
$LN29@InCaseOfSt:

; 743  : 					pIConditionList->Release();

  001b5	8b 4d 08	 mov	 ecx, DWORD PTR _pIConditionList$1$[ebp]
  001b8	51		 push	 ecx
  001b9	8b 01		 mov	 eax, DWORD PTR [ecx]
  001bb	ff 50 08	 call	 DWORD PTR [eax+8]
$LN41@InCaseOfSt:

; 744  : 				}
; 745  : 				if( !bApplyed) OnApply_COLOR( p_pIGraphInfo, pListBox, p_nSubGraphIndex);

  001be	57		 push	 edi
  001bf	ff 75 14	 push	 DWORD PTR _pListBox$[ebp]
  001c2	8b ce		 mov	 ecx, esi
  001c4	53		 push	 ebx
  001c5	e8 00 00 00 00	 call	 ?OnApply_COLOR@CSetItemOfColorListBox@@AAEXPAUIGraphInfo135914@@PAVCListBoxColorPickerST@@H@Z ; CSetItemOfColorListBox::OnApply_COLOR

; 711  : 		SetItemInCaseOfStylsIsBar(p_pIGraphInfo, p_nSubGraphIndex, pListBox);
; 712  : 	else 
; 713  : 		OnApplyInCaseOfStylsIsBar(p_pIGraphInfo, p_nSubGraphIndex, pListBox);
; 714  : //      case CGraphBaseData::HorizontalBar:	// 수평식
; 715  : //      case CGraphBaseData::UpDownBar:	// 상하식
; 716  : //      case CGraphBaseData::CombBar:	// 빗형식
; 717  : //      case CGraphBaseData::LeftRightBar:	// 좌우식
; 718  : //      case CGraphBaseData::LeftRightCombBar:	// 좌우빗형식
; 719  : //      case CGraphBaseData::GroupBar:	// 그룹바식
; 720  : //      case CGraphBaseData::RatioBar:	// 비율식 (ex- 매수/매도 거래량 표현시)
; 721  : //      case CGraphBaseData::TextHorizontalBar:	// Text가 있는 수평식
; 722  : //      case CGraphBaseData::TextGroupBar:	// Text가 있는 그룹 바식
; 723  : //      case CGraphBaseData::FixedRateLeftRightBar:	// 고정비율좌우식
; 724  : }

  001ca	8b 4d f4	 mov	 ecx, DWORD PTR __$EHRec$[ebp]
  001cd	64 89 0d 00 00
	00 00		 mov	 DWORD PTR fs:0, ecx
  001d4	59		 pop	 ecx
  001d5	5f		 pop	 edi
  001d6	5e		 pop	 esi
  001d7	5b		 pop	 ebx
  001d8	8b e5		 mov	 esp, ebp
  001da	5d		 pop	 ebp
  001db	c2 10 00	 ret	 16			; 00000010H
$LN31@InCaseOfSt:

; 750  : 			OnApply_UPDOWN( p_pIGraphInfo, pListBox, p_nSubGraphIndex);

  001de	57		 push	 edi
  001df	ff 75 14	 push	 DWORD PTR _pListBox$[ebp]
  001e2	8b ce		 mov	 ecx, esi
  001e4	53		 push	 ebx
  001e5	e8 00 00 00 00	 call	 ?OnApply_UPDOWN@CSetItemOfColorListBox@@AAEXPAUIGraphInfo135914@@PAVCListBoxColorPickerST@@H@Z ; CSetItemOfColorListBox::OnApply_UPDOWN

; 711  : 		SetItemInCaseOfStylsIsBar(p_pIGraphInfo, p_nSubGraphIndex, pListBox);
; 712  : 	else 
; 713  : 		OnApplyInCaseOfStylsIsBar(p_pIGraphInfo, p_nSubGraphIndex, pListBox);
; 714  : //      case CGraphBaseData::HorizontalBar:	// 수평식
; 715  : //      case CGraphBaseData::UpDownBar:	// 상하식
; 716  : //      case CGraphBaseData::CombBar:	// 빗형식
; 717  : //      case CGraphBaseData::LeftRightBar:	// 좌우식
; 718  : //      case CGraphBaseData::LeftRightCombBar:	// 좌우빗형식
; 719  : //      case CGraphBaseData::GroupBar:	// 그룹바식
; 720  : //      case CGraphBaseData::RatioBar:	// 비율식 (ex- 매수/매도 거래량 표현시)
; 721  : //      case CGraphBaseData::TextHorizontalBar:	// Text가 있는 수평식
; 722  : //      case CGraphBaseData::TextGroupBar:	// Text가 있는 그룹 바식
; 723  : //      case CGraphBaseData::FixedRateLeftRightBar:	// 고정비율좌우식
; 724  : }

  001ea	8b 4d f4	 mov	 ecx, DWORD PTR __$EHRec$[ebp]
  001ed	64 89 0d 00 00
	00 00		 mov	 DWORD PTR fs:0, ecx
  001f4	59		 pop	 ecx
  001f5	5f		 pop	 edi
  001f6	5e		 pop	 esi
  001f7	5b		 pop	 ebx
  001f8	8b e5		 mov	 esp, ebp
  001fa	5d		 pop	 ebp
  001fb	c2 10 00	 ret	 16			; 00000010H
$LN33@InCaseOfSt:

; 753  : 			OnApply_SUB_UPFILL_DOWNFILL( p_pIGraphInfo, pListBox, p_nSubGraphIndex);

  001fe	57		 push	 edi
  001ff	ff 75 14	 push	 DWORD PTR _pListBox$[ebp]
  00202	8b ce		 mov	 ecx, esi
  00204	53		 push	 ebx
  00205	e8 00 00 00 00	 call	 ?OnApply_SUB_UPFILL_DOWNFILL@CSetItemOfColorListBox@@AAEXPAUIGraphInfo135914@@PAVCListBoxColorPickerST@@H@Z ; CSetItemOfColorListBox::OnApply_SUB_UPFILL_DOWNFILL

; 711  : 		SetItemInCaseOfStylsIsBar(p_pIGraphInfo, p_nSubGraphIndex, pListBox);
; 712  : 	else 
; 713  : 		OnApplyInCaseOfStylsIsBar(p_pIGraphInfo, p_nSubGraphIndex, pListBox);
; 714  : //      case CGraphBaseData::HorizontalBar:	// 수평식
; 715  : //      case CGraphBaseData::UpDownBar:	// 상하식
; 716  : //      case CGraphBaseData::CombBar:	// 빗형식
; 717  : //      case CGraphBaseData::LeftRightBar:	// 좌우식
; 718  : //      case CGraphBaseData::LeftRightCombBar:	// 좌우빗형식
; 719  : //      case CGraphBaseData::GroupBar:	// 그룹바식
; 720  : //      case CGraphBaseData::RatioBar:	// 비율식 (ex- 매수/매도 거래량 표현시)
; 721  : //      case CGraphBaseData::TextHorizontalBar:	// Text가 있는 수평식
; 722  : //      case CGraphBaseData::TextGroupBar:	// Text가 있는 그룹 바식
; 723  : //      case CGraphBaseData::FixedRateLeftRightBar:	// 고정비율좌우식
; 724  : }

  0020a	8b 4d f4	 mov	 ecx, DWORD PTR __$EHRec$[ebp]
  0020d	64 89 0d 00 00
	00 00		 mov	 DWORD PTR fs:0, ecx
  00214	59		 pop	 ecx
  00215	5f		 pop	 edi
  00216	5e		 pop	 esi
  00217	5b		 pop	 ebx
  00218	8b e5		 mov	 esp, ebp
  0021a	5d		 pop	 ebp
  0021b	c2 10 00	 ret	 16			; 00000010H
$LN34@InCaseOfSt:

; 426  : 	OnApply_upcolor( p_pIGraphInfo, p_nSubGraphIndex, pListBox->GetColor(0));

  0021e	8b 4d 14	 mov	 ecx, DWORD PTR _pListBox$[ebp]
  00221	6a 00		 push	 0
  00223	e8 00 00 00 00	 call	 ?GetColor@CListBoxColorPickerST@@QAEKH@Z ; CListBoxColorPickerST::GetColor

; 518  : 	p_pIGraphInfo->SetSubGraphColor( p_nSubGraphIndex, 1, color);

  00228	8b 13		 mov	 edx, DWORD PTR [ebx]

; 426  : 	OnApply_upcolor( p_pIGraphInfo, p_nSubGraphIndex, pListBox->GetColor(0));

  0022a	8b f0		 mov	 esi, eax

; 518  : 	p_pIGraphInfo->SetSubGraphColor( p_nSubGraphIndex, 1, color);

  0022c	56		 push	 esi
  0022d	6a 01		 push	 1
  0022f	57		 push	 edi
  00230	8b cb		 mov	 ecx, ebx
  00232	ff 52 6c	 call	 DWORD PTR [edx+108]

; 519  : 	p_pIGraphInfo->SetSubGraphColor( p_nSubGraphIndex, 2, color);

  00235	8b 13		 mov	 edx, DWORD PTR [ebx]
  00237	8b cb		 mov	 ecx, ebx
  00239	56		 push	 esi
  0023a	6a 02		 push	 2
  0023c	57		 push	 edi
  0023d	ff 52 6c	 call	 DWORD PTR [edx+108]
$LN24@InCaseOfSt:

; 711  : 		SetItemInCaseOfStylsIsBar(p_pIGraphInfo, p_nSubGraphIndex, pListBox);
; 712  : 	else 
; 713  : 		OnApplyInCaseOfStylsIsBar(p_pIGraphInfo, p_nSubGraphIndex, pListBox);
; 714  : //      case CGraphBaseData::HorizontalBar:	// 수평식
; 715  : //      case CGraphBaseData::UpDownBar:	// 상하식
; 716  : //      case CGraphBaseData::CombBar:	// 빗형식
; 717  : //      case CGraphBaseData::LeftRightBar:	// 좌우식
; 718  : //      case CGraphBaseData::LeftRightCombBar:	// 좌우빗형식
; 719  : //      case CGraphBaseData::GroupBar:	// 그룹바식
; 720  : //      case CGraphBaseData::RatioBar:	// 비율식 (ex- 매수/매도 거래량 표현시)
; 721  : //      case CGraphBaseData::TextHorizontalBar:	// Text가 있는 수평식
; 722  : //      case CGraphBaseData::TextGroupBar:	// Text가 있는 그룹 바식
; 723  : //      case CGraphBaseData::FixedRateLeftRightBar:	// 고정비율좌우식
; 724  : }

  00240	8b 4d f4	 mov	 ecx, DWORD PTR __$EHRec$[ebp]
  00243	64 89 0d 00 00
	00 00		 mov	 DWORD PTR fs:0, ecx
  0024a	59		 pop	 ecx
  0024b	5f		 pop	 edi
  0024c	5e		 pop	 esi
  0024d	5b		 pop	 ebx
  0024e	8b e5		 mov	 esp, ebp
  00250	5d		 pop	 ebp
  00251	c2 10 00	 ret	 16			; 00000010H
$LN43@InCaseOfSt:
  00254	00 00 00 00	 DD	 $LN9@InCaseOfSt
  00258	00 00 00 00	 DD	 $LN13@InCaseOfSt
  0025c	00 00 00 00	 DD	 $LN15@InCaseOfSt
  00260	00 00 00 00	 DD	 $LN16@InCaseOfSt
$LN42@InCaseOfSt:
  00264	00		 DB	 0
  00265	03		 DB	 3
  00266	03		 DB	 3
  00267	03		 DB	 3
  00268	01		 DB	 1
  00269	01		 DB	 1
  0026a	03		 DB	 3
  0026b	03		 DB	 3
  0026c	03		 DB	 3
  0026d	03		 DB	 3
  0026e	03		 DB	 3
  0026f	03		 DB	 3
  00270	02		 DB	 2
  00271	0f 1f 00	 npad	 3
$LN45@InCaseOfSt:
  00274	00 00 00 00	 DD	 $LN27@InCaseOfSt
  00278	00 00 00 00	 DD	 $LN31@InCaseOfSt
  0027c	00 00 00 00	 DD	 $LN33@InCaseOfSt
  00280	00 00 00 00	 DD	 $LN34@InCaseOfSt
$LN44@InCaseOfSt:
  00284	00		 DB	 0
  00285	03		 DB	 3
  00286	03		 DB	 3
  00287	03		 DB	 3
  00288	01		 DB	 1
  00289	01		 DB	 1
  0028a	03		 DB	 3
  0028b	03		 DB	 3
  0028c	03		 DB	 3
  0028d	03		 DB	 3
  0028e	03		 DB	 3
  0028f	03		 DB	 3
  00290	02		 DB	 2
_TEXT	ENDS
;	COMDAT text$x
text$x	SEGMENT
__unwindfunclet$?InCaseOfStylsIsBar@CSetItemOfColorListBox@@AAEX_NPAUIGraphInfo135914@@HPAVCListBoxColorPickerST@@@Z$0:
  00000	8d 4d 08	 lea	 ecx, DWORD PTR _strColor$2[ebp]
  00003	ff 25 00 00 00
	00		 jmp	 DWORD PTR __imp_??1?$CStringT@DV?$StrTraitMFC_DLL@DV?$ChTraitsCRT@D@ATL@@@@@ATL@@QAE@XZ
  00009	cc		 int	 3
  0000a	cc		 int	 3
  0000b	cc		 int	 3
  0000c	cc		 int	 3
  0000d	cc		 int	 3
__ehhandler$?InCaseOfStylsIsBar@CSetItemOfColorListBox@@AAEX_NPAUIGraphInfo135914@@HPAVCListBoxColorPickerST@@@Z:
  0000e	90		 npad	 1
  0000f	90		 npad	 1
  00010	8b 54 24 08	 mov	 edx, DWORD PTR [esp+8]
  00014	8d 42 0c	 lea	 eax, DWORD PTR [edx+12]
  00017	8b 4a f0	 mov	 ecx, DWORD PTR [edx-16]
  0001a	33 c8		 xor	 ecx, eax
  0001c	e8 00 00 00 00	 call	 @__security_check_cookie@4
  00021	b8 00 00 00 00	 mov	 eax, OFFSET __ehfuncinfo$?InCaseOfStylsIsBar@CSetItemOfColorListBox@@AAEX_NPAUIGraphInfo135914@@HPAVCListBoxColorPickerST@@@Z
  00026	e9 00 00 00 00	 jmp	 ___CxxFrameHandler3
text$x	ENDS
?InCaseOfStylsIsBar@CSetItemOfColorListBox@@AAEX_NPAUIGraphInfo135914@@HPAVCListBoxColorPickerST@@@Z ENDP ; CSetItemOfColorListBox::InCaseOfStylsIsBar
; Function compile flags: /Ogtp
; File D:\git\src\IBK\IBK_DRFN\ProjSrc\SrcChartEx\ChartAddIn\ChartEnvSetupDlgAddIn\ChartEnvSetupDlgAddIn\SetItemOfColorListBox.cpp
; File C:\Program Files (x86)\Microsoft Visual Studio\2019\Community\VC\Tools\MSVC\14.29.30133\atlmfc\include\atlsimpstr.h
; File D:\git\src\IBK\IBK_DRFN\ProjSrc\SrcChartEx\ChartAddIn\ChartEnvSetupDlgAddIn\ChartEnvSetupDlgAddIn\SetItemOfColorListBox.cpp
;	COMDAT ?InCaseOfStylsIsLine@CSetItemOfColorListBox@@AAEX_NHPAVCListBoxColorPickerST@@PAUIGraphInfo135914@@@Z
_TEXT	SEGMENT
__$EHRec$ = -12						; size = 12
_strColor$2 = 8						; size = 4
_bSetUp$ = 8						; size = 1
_p_nSubGraphIndex$ = 12					; size = 4
_pListBox$ = 16						; size = 4
_p_pIGraphInfo$ = 20					; size = 4
?InCaseOfStylsIsLine@CSetItemOfColorListBox@@AAEX_NHPAVCListBoxColorPickerST@@PAUIGraphInfo135914@@@Z PROC ; CSetItemOfColorListBox::InCaseOfStylsIsLine, COMDAT
; _this$ = ecx

; 640  : {

  00000	55		 push	 ebp
  00001	8b ec		 mov	 ebp, esp
  00003	6a ff		 push	 -1
  00005	68 00 00 00 00	 push	 __ehhandler$?InCaseOfStylsIsLine@CSetItemOfColorListBox@@AAEX_NHPAVCListBoxColorPickerST@@PAUIGraphInfo135914@@@Z
  0000a	64 a1 00 00 00
	00		 mov	 eax, DWORD PTR fs:0
  00010	50		 push	 eax
  00011	53		 push	 ebx
  00012	56		 push	 esi
  00013	57		 push	 edi
  00014	a1 00 00 00 00	 mov	 eax, DWORD PTR ___security_cookie
  00019	33 c5		 xor	 eax, ebp
  0001b	50		 push	 eax
  0001c	8d 45 f4	 lea	 eax, DWORD PTR __$EHRec$[ebp]
  0001f	64 a3 00 00 00
	00		 mov	 DWORD PTR fs:0, eax
  00025	8b f1		 mov	 esi, ecx

; 681  : 	if( p_nSubGraphIndex < 0) return;

  00027	8b 7d 0c	 mov	 edi, DWORD PTR _p_nSubGraphIndex$[ebp]

; 640  : {

  0002a	8a 45 08	 mov	 al, BYTE PTR _bSetUp$[ebp]

; 681  : 	if( p_nSubGraphIndex < 0) return;

  0002d	85 ff		 test	 edi, edi
  0002f	0f 88 0d 01 00
	00		 js	 $LN23@InCaseOfSt

; 641  : 	if(bSetUp)

  00035	8b 5d 14	 mov	 ebx, DWORD PTR _p_pIGraphInfo$[ebp]
  00038	84 c0		 test	 al, al
  0003a	57		 push	 edi
  0003b	8b cb		 mov	 ecx, ebx
  0003d	8b 03		 mov	 eax, DWORD PTR [ebx]
  0003f	0f 84 a5 00 00
	00		 je	 $LN2@InCaseOfSt

; 683  : 	switch( p_pIGraphInfo->GetSubGraphStyle( p_nSubGraphIndex))

  00045	ff 50 54	 call	 DWORD PTR [eax+84]
  00048	83 f8 09	 cmp	 eax, 9
  0004b	77 4e		 ja	 SHORT $LN15@InCaseOfSt
  0004d	0f b6 80 00 00
	00 00		 movzx	 eax, BYTE PTR $LN42@InCaseOfSt[eax]
  00054	ff 24 85 00 00
	00 00		 jmp	 DWORD PTR $LN43@InCaseOfSt[eax*4]
$LN9@InCaseOfSt:

; 684  : 	{
; 685  : 		case CGraphBaseData::SimpleLine:// 일반식
; 686  : 		case CGraphBaseData::ZigZagLine:	// 지그재그식
; 687  : 		case CGraphBaseData::NonZeroLine:// 0선비연속식 (값이 "0"일 경우는 그리지 않음)
; 688  : 			SetItem_COLOR( p_pIGraphInfo, p_nSubGraphIndex, pListBox);

  0005b	ff 75 10	 push	 DWORD PTR _pListBox$[ebp]
  0005e	8b ce		 mov	 ecx, esi
  00060	57		 push	 edi
  00061	53		 push	 ebx
  00062	e8 00 00 00 00	 call	 ?SetItem_COLOR@CSetItemOfColorListBox@@AAEXPAUIGraphInfo135914@@HPAVCListBoxColorPickerST@@@Z ; CSetItemOfColorListBox::SetItem_COLOR

; 642  : 		SetItemInCaseOfStylsIsLine(p_nSubGraphIndex, pListBox, p_pIGraphInfo);
; 643  : 	else 
; 644  : 		OnApplyInCaseOfStylsIsLine(p_nSubGraphIndex, pListBox, p_pIGraphInfo);
; 645  : //		case CGraphBaseData::HorizontalLine:// 수평식
; 646  : //		case CGraphBaseData::StairLine:// 계단식
; 647  : //		case CGraphBaseData::ComparisonLine:	// 대비식
; 648  : //		case CGraphBaseData::CloudLine:// 구름식
; 649  : //		case CGraphBaseData::DataDotSimpleLine:	// 좌표점일반
; 650  : //      case CGraphBaseData::RainbowLine:	// 레인보우식
; 651  : }

  00067	8b 4d f4	 mov	 ecx, DWORD PTR __$EHRec$[ebp]
  0006a	64 89 0d 00 00
	00 00		 mov	 DWORD PTR fs:0, ecx
  00071	59		 pop	 ecx
  00072	5f		 pop	 edi
  00073	5e		 pop	 esi
  00074	5b		 pop	 ebx
  00075	8b e5		 mov	 esp, ebp
  00077	5d		 pop	 ebp
  00078	c2 10 00	 ret	 16			; 00000010H
$LN13@InCaseOfSt:

; 696  : 			SetItem_UPDOWN( p_pIGraphInfo, p_nSubGraphIndex, pListBox);

  0007b	ff 75 10	 push	 DWORD PTR _pListBox$[ebp]
  0007e	8b ce		 mov	 ecx, esi
  00080	57		 push	 edi
  00081	53		 push	 ebx
  00082	e8 00 00 00 00	 call	 ?SetItem_UPDOWN@CSetItemOfColorListBox@@AAEXPAUIGraphInfo135914@@HPAVCListBoxColorPickerST@@@Z ; CSetItemOfColorListBox::SetItem_UPDOWN

; 642  : 		SetItemInCaseOfStylsIsLine(p_nSubGraphIndex, pListBox, p_pIGraphInfo);
; 643  : 	else 
; 644  : 		OnApplyInCaseOfStylsIsLine(p_nSubGraphIndex, pListBox, p_pIGraphInfo);
; 645  : //		case CGraphBaseData::HorizontalLine:// 수평식
; 646  : //		case CGraphBaseData::StairLine:// 계단식
; 647  : //		case CGraphBaseData::ComparisonLine:	// 대비식
; 648  : //		case CGraphBaseData::CloudLine:// 구름식
; 649  : //		case CGraphBaseData::DataDotSimpleLine:	// 좌표점일반
; 650  : //      case CGraphBaseData::RainbowLine:	// 레인보우식
; 651  : }

  00087	8b 4d f4	 mov	 ecx, DWORD PTR __$EHRec$[ebp]
  0008a	64 89 0d 00 00
	00 00		 mov	 DWORD PTR fs:0, ecx
  00091	59		 pop	 ecx
  00092	5f		 pop	 edi
  00093	5e		 pop	 esi
  00094	5b		 pop	 ebx
  00095	8b e5		 mov	 esp, ebp
  00097	5d		 pop	 ebp
  00098	c2 10 00	 ret	 16			; 00000010H
$LN15@InCaseOfSt:

; 207  : 	CString strColor;

  0009b	8d 4d 08	 lea	 ecx, DWORD PTR _strColor$2[ebp]
  0009e	ff 15 00 00 00
	00		 call	 DWORD PTR __imp_??0?$CStringT@DV?$StrTraitMFC_DLL@DV?$ChTraitsCRT@D@ATL@@@@@ATL@@QAE@XZ

; 208  : 	strColor.LoadString(IDS_STRING_COLOR);

  000a4	6a 10		 push	 16			; 00000010H
  000a6	8d 4d 08	 lea	 ecx, DWORD PTR _strColor$2[ebp]
  000a9	c7 45 fc 00 00
	00 00		 mov	 DWORD PTR __$EHRec$[ebp+8], 0
  000b0	ff 15 00 00 00
	00		 call	 DWORD PTR __imp_?LoadStringA@?$CStringT@DV?$StrTraitMFC_DLL@DV?$ChTraitsCRT@D@ATL@@@@@ATL@@QAEHI@Z

; 210  : 	pListBox->AddString(strColor, p_pIGraphInfo->GetSubGraphColor( p_nSubGraphIndex, 1));

  000b6	8b 03		 mov	 eax, DWORD PTR [ebx]
  000b8	8b cb		 mov	 ecx, ebx
; File C:\Program Files (x86)\Microsoft Visual Studio\2019\Community\VC\Tools\MSVC\14.29.30133\atlmfc\include\atlsimpstr.h

; 377  : 		return( m_pszData );

  000ba	8b 75 08	 mov	 esi, DWORD PTR _strColor$2[ebp]
; File D:\git\src\IBK\IBK_DRFN\ProjSrc\SrcChartEx\ChartAddIn\ChartEnvSetupDlgAddIn\ChartEnvSetupDlgAddIn\SetItemOfColorListBox.cpp

; 210  : 	pListBox->AddString(strColor, p_pIGraphInfo->GetSubGraphColor( p_nSubGraphIndex, 1));

  000bd	6a 01		 push	 1
  000bf	57		 push	 edi
  000c0	ff 50 64	 call	 DWORD PTR [eax+100]
  000c3	8b 4d 10	 mov	 ecx, DWORD PTR _pListBox$[ebp]
  000c6	50		 push	 eax
  000c7	56		 push	 esi
  000c8	e8 00 00 00 00	 call	 ?AddString@CListBoxColorPickerST@@QAEHPBDK@Z ; CListBoxColorPickerST::AddString

; 211  : // 2008.01.25 by LYH <<
; 212  : }

  000cd	8d 4d 08	 lea	 ecx, DWORD PTR _strColor$2[ebp]
  000d0	ff 15 00 00 00
	00		 call	 DWORD PTR __imp_??1?$CStringT@DV?$StrTraitMFC_DLL@DV?$ChTraitsCRT@D@ATL@@@@@ATL@@QAE@XZ

; 642  : 		SetItemInCaseOfStylsIsLine(p_nSubGraphIndex, pListBox, p_pIGraphInfo);
; 643  : 	else 
; 644  : 		OnApplyInCaseOfStylsIsLine(p_nSubGraphIndex, pListBox, p_pIGraphInfo);
; 645  : //		case CGraphBaseData::HorizontalLine:// 수평식
; 646  : //		case CGraphBaseData::StairLine:// 계단식
; 647  : //		case CGraphBaseData::ComparisonLine:	// 대비식
; 648  : //		case CGraphBaseData::CloudLine:// 구름식
; 649  : //		case CGraphBaseData::DataDotSimpleLine:	// 좌표점일반
; 650  : //      case CGraphBaseData::RainbowLine:	// 레인보우식
; 651  : }

  000d6	8b 4d f4	 mov	 ecx, DWORD PTR __$EHRec$[ebp]
  000d9	64 89 0d 00 00
	00 00		 mov	 DWORD PTR fs:0, ecx
  000e0	59		 pop	 ecx
  000e1	5f		 pop	 edi
  000e2	5e		 pop	 esi
  000e3	5b		 pop	 ebx
  000e4	8b e5		 mov	 esp, ebp
  000e6	5d		 pop	 ebp
  000e7	c2 10 00	 ret	 16			; 00000010H
$LN2@InCaseOfSt:

; 658  : 	switch( p_pIGraphInfo->GetSubGraphStyle( p_nSubGraphIndex))

  000ea	ff 50 54	 call	 DWORD PTR [eax+84]
  000ed	83 f8 09	 cmp	 eax, 9
  000f0	77 2e		 ja	 SHORT $LN32@InCaseOfSt
  000f2	0f b6 80 00 00
	00 00		 movzx	 eax, BYTE PTR $LN44@InCaseOfSt[eax]
  000f9	ff 24 85 00 00
	00 00		 jmp	 DWORD PTR $LN45@InCaseOfSt[eax*4]
$LN30@InCaseOfSt:

; 659  : 	{
; 660  : 		case CGraphBaseData::SimpleLine:// 일반식
; 661  : 		case CGraphBaseData::ZigZagLine:	// 지그재그식
; 662  : 		case CGraphBaseData::NonZeroLine:// 0선비연속식 (값이 "0"일 경우는 그리지 않음)
; 663  : 			OnApply_COLOR( p_pIGraphInfo, pListBox, p_nSubGraphIndex);
; 664  : 			break;
; 665  : 		case CGraphBaseData::FillLine:// 채움식
; 666  : 			// 종찬(04/10/04) 선형;채움식일경우는 서브그래프가 더 있을수 있다.
; 667  : 			OnApply_SUB_UPFILL_DOWNFILL2( p_pIGraphInfo, pListBox, p_nSubGraphIndex);
; 668  : 			break;
; 669  : 		case CGraphBaseData::LineCloudLine:	//선형 구름식
; 670  : 		case CGraphBaseData::CloudLine:		//구름식
; 671  : 			OnApply_UPDOWN( p_pIGraphInfo, pListBox, p_nSubGraphIndex);

  00100	57		 push	 edi
  00101	ff 75 10	 push	 DWORD PTR _pListBox$[ebp]
  00104	8b ce		 mov	 ecx, esi
  00106	53		 push	 ebx
  00107	e8 00 00 00 00	 call	 ?OnApply_UPDOWN@CSetItemOfColorListBox@@AAEXPAUIGraphInfo135914@@PAVCListBoxColorPickerST@@H@Z ; CSetItemOfColorListBox::OnApply_UPDOWN

; 642  : 		SetItemInCaseOfStylsIsLine(p_nSubGraphIndex, pListBox, p_pIGraphInfo);
; 643  : 	else 
; 644  : 		OnApplyInCaseOfStylsIsLine(p_nSubGraphIndex, pListBox, p_pIGraphInfo);
; 645  : //		case CGraphBaseData::HorizontalLine:// 수평식
; 646  : //		case CGraphBaseData::StairLine:// 계단식
; 647  : //		case CGraphBaseData::ComparisonLine:	// 대비식
; 648  : //		case CGraphBaseData::CloudLine:// 구름식
; 649  : //		case CGraphBaseData::DataDotSimpleLine:	// 좌표점일반
; 650  : //      case CGraphBaseData::RainbowLine:	// 레인보우식
; 651  : }

  0010c	8b 4d f4	 mov	 ecx, DWORD PTR __$EHRec$[ebp]
  0010f	64 89 0d 00 00
	00 00		 mov	 DWORD PTR fs:0, ecx
  00116	59		 pop	 ecx
  00117	5f		 pop	 edi
  00118	5e		 pop	 esi
  00119	5b		 pop	 ebx
  0011a	8b e5		 mov	 esp, ebp
  0011c	5d		 pop	 ebp
  0011d	c2 10 00	 ret	 16			; 00000010H
$LN32@InCaseOfSt:
  00120	8b 4d 10	 mov	 ecx, DWORD PTR _pListBox$[ebp]
  00123	6a 00		 push	 0
  00125	e8 00 00 00 00	 call	 ?GetColor@CListBoxColorPickerST@@QAEKH@Z ; CListBoxColorPickerST::GetColor
  0012a	8b 13		 mov	 edx, DWORD PTR [ebx]
  0012c	8b f0		 mov	 esi, eax
  0012e	56		 push	 esi
  0012f	6a 01		 push	 1
  00131	57		 push	 edi
  00132	8b cb		 mov	 ecx, ebx
  00134	ff 52 6c	 call	 DWORD PTR [edx+108]
  00137	8b 13		 mov	 edx, DWORD PTR [ebx]
  00139	8b cb		 mov	 ecx, ebx
  0013b	56		 push	 esi
  0013c	6a 02		 push	 2
  0013e	57		 push	 edi
  0013f	ff 52 6c	 call	 DWORD PTR [edx+108]
$LN23@InCaseOfSt:
  00142	8b 4d f4	 mov	 ecx, DWORD PTR __$EHRec$[ebp]
  00145	64 89 0d 00 00
	00 00		 mov	 DWORD PTR fs:0, ecx
  0014c	59		 pop	 ecx
  0014d	5f		 pop	 edi
  0014e	5e		 pop	 esi
  0014f	5b		 pop	 ebx
  00150	8b e5		 mov	 esp, ebp
  00152	5d		 pop	 ebp
  00153	c2 10 00	 ret	 16			; 00000010H
  00156	66 90		 npad	 2
$LN43@InCaseOfSt:
  00158	00 00 00 00	 DD	 $LN9@InCaseOfSt
  0015c	00 00 00 00	 DD	 $LN23@InCaseOfSt
  00160	00 00 00 00	 DD	 $LN13@InCaseOfSt
  00164	00 00 00 00	 DD	 $LN15@InCaseOfSt
$LN42@InCaseOfSt:
  00168	00		 DB	 0
  00169	01		 DB	 1
  0016a	02		 DB	 2
  0016b	03		 DB	 3
  0016c	03		 DB	 3
  0016d	00		 DB	 0
  0016e	03		 DB	 3
  0016f	03		 DB	 3
  00170	00		 DB	 0
  00171	02		 DB	 2
  00172	66 90		 npad	 2
$LN45@InCaseOfSt:
  00174	00 00 00 00	 DD	 $LN32@InCaseOfSt
  00178	00 00 00 00	 DD	 $LN23@InCaseOfSt
  0017c	00 00 00 00	 DD	 $LN30@InCaseOfSt
  00180	00 00 00 00	 DD	 $LN32@InCaseOfSt
$LN44@InCaseOfSt:
  00184	00		 DB	 0
  00185	01		 DB	 1
  00186	02		 DB	 2
