; Listing generated by Microsoft (R) Optimizing Compiler Version 19.29.30145.0 

	TITLE	D:\git\src\IBK\IBK_DRFN\#DRfn-CS\_Obj\ChartEnvSetupDlgAddIn\Setting_Special_Type_B.obj
	.686P
	.XMM
	include listing.inc
	.model	flat

INCLUDELIB MSVCRT
INCLUDELIB OLDNAMES

PUBLIC	??_C@_01GBGANLPD@0@				; `string'
PUBLIC	??_C@_01HIHLOKLC@1@				; `string'
PUBLIC	??_C@_01FDFGLJHB@2@				; `string'
PUBLIC	??_C@_01EKENIIDA@3@				; `string'
PUBLIC	??_C@_01FAMBOPH@4@				; `string'
PUBLIC	??_C@_01BMBHCPLG@5@				; `string'
PUBLIC	??_C@_01DHDKHMHF@6@				; `string'
PUBLIC	??_C@_01COCBENDE@7@				; `string'
PUBLIC	??_C@_01KJLJFBPL@8@				; `string'
PUBLIC	??_C@_01LAKCGALK@9@				; `string'
PUBLIC	??_C@_02PKFBJPLJ@10@				; `string'
PUBLIC	??_C@_02ODEKKOPI@11@				; `string'
PUBLIC	??_C@_02MIGHPNDL@12@				; `string'
PUBLIC	??_C@_02NBHMMMHK@13@				; `string'
PUBLIC	??_C@_02JODNFKLN@14@				; `string'
PUBLIC	??_C@_02IHCGGLPM@15@				; `string'
PUBLIC	??_C@_02KMALDIDP@16@				; `string'
PUBLIC	??_C@_02LFBAAJHO@17@				; `string'
PUBLIC	??_C@_02DCIIBFLB@18@				; `string'
PUBLIC	??_C@_02CLJDCEPA@19@				; `string'
PUBLIC	??_C@_02PIBHCBOA@20@				; `string'
PUBLIC	??_C@_02OBAMBAKB@21@				; `string'
PUBLIC	??_C@_02MKCBEDGC@22@				; `string'
PUBLIC	??_C@_02NDDKHCCD@23@				; `string'
PUBLIC	??_C@_02JMHLOEOE@24@				; `string'
;	COMDAT ??_C@_02JMHLOEOE@24@
CONST	SEGMENT
??_C@_02JMHLOEOE@24@ DB '24', 00H			; `string'
CONST	ENDS
;	COMDAT ??_C@_02NDDKHCCD@23@
CONST	SEGMENT
??_C@_02NDDKHCCD@23@ DB '23', 00H			; `string'
CONST	ENDS
;	COMDAT ??_C@_02MKCBEDGC@22@
CONST	SEGMENT
??_C@_02MKCBEDGC@22@ DB '22', 00H			; `string'
CONST	ENDS
;	COMDAT ??_C@_02OBAMBAKB@21@
CONST	SEGMENT
??_C@_02OBAMBAKB@21@ DB '21', 00H			; `string'
CONST	ENDS
;	COMDAT ??_C@_02PIBHCBOA@20@
CONST	SEGMENT
??_C@_02PIBHCBOA@20@ DB '20', 00H			; `string'
CONST	ENDS
;	COMDAT ??_C@_02CLJDCEPA@19@
CONST	SEGMENT
??_C@_02CLJDCEPA@19@ DB '19', 00H			; `string'
CONST	ENDS
;	COMDAT ??_C@_02DCIIBFLB@18@
CONST	SEGMENT
??_C@_02DCIIBFLB@18@ DB '18', 00H			; `string'
CONST	ENDS
;	COMDAT ??_C@_02LFBAAJHO@17@
CONST	SEGMENT
??_C@_02LFBAAJHO@17@ DB '17', 00H			; `string'
CONST	ENDS
;	COMDAT ??_C@_02KMALDIDP@16@
CONST	SEGMENT
??_C@_02KMALDIDP@16@ DB '16', 00H			; `string'
CONST	ENDS
;	COMDAT ??_C@_02IHCGGLPM@15@
CONST	SEGMENT
??_C@_02IHCGGLPM@15@ DB '15', 00H			; `string'
CONST	ENDS
;	COMDAT ??_C@_02JODNFKLN@14@
CONST	SEGMENT
??_C@_02JODNFKLN@14@ DB '14', 00H			; `string'
CONST	ENDS
;	COMDAT ??_C@_02NBHMMMHK@13@
CONST	SEGMENT
??_C@_02NBHMMMHK@13@ DB '13', 00H			; `string'
CONST	ENDS
;	COMDAT ??_C@_02MIGHPNDL@12@
CONST	SEGMENT
??_C@_02MIGHPNDL@12@ DB '12', 00H			; `string'
CONST	ENDS
;	COMDAT ??_C@_02ODEKKOPI@11@
CONST	SEGMENT
??_C@_02ODEKKOPI@11@ DB '11', 00H			; `string'
CONST	ENDS
;	COMDAT ??_C@_02PKFBJPLJ@10@
CONST	SEGMENT
??_C@_02PKFBJPLJ@10@ DB '10', 00H			; `string'
CONST	ENDS
;	COMDAT ??_C@_01LAKCGALK@9@
CONST	SEGMENT
??_C@_01LAKCGALK@9@ DB '9', 00H				; `string'
CONST	ENDS
;	COMDAT ??_C@_01KJLJFBPL@8@
CONST	SEGMENT
??_C@_01KJLJFBPL@8@ DB '8', 00H				; `string'
CONST	ENDS
;	COMDAT ??_C@_01COCBENDE@7@
CONST	SEGMENT
??_C@_01COCBENDE@7@ DB '7', 00H				; `string'
CONST	ENDS
;	COMDAT ??_C@_01DHDKHMHF@6@
CONST	SEGMENT
??_C@_01DHDKHMHF@6@ DB '6', 00H				; `string'
CONST	ENDS
;	COMDAT ??_C@_01BMBHCPLG@5@
CONST	SEGMENT
??_C@_01BMBHCPLG@5@ DB '5', 00H				; `string'
CONST	ENDS
;	COMDAT ??_C@_01FAMBOPH@4@
CONST	SEGMENT
??_C@_01FAMBOPH@4@ DB '4', 00H				; `string'
CONST	ENDS
;	COMDAT ??_C@_01EKENIIDA@3@
CONST	SEGMENT
??_C@_01EKENIIDA@3@ DB '3', 00H				; `string'
CONST	ENDS
;	COMDAT ??_C@_01FDFGLJHB@2@
CONST	SEGMENT
??_C@_01FDFGLJHB@2@ DB '2', 00H				; `string'
CONST	ENDS
;	COMDAT ??_C@_01HIHLOKLC@1@
CONST	SEGMENT
??_C@_01HIHLOKLC@1@ DB '1', 00H				; `string'
CONST	ENDS
;	COMDAT ??_C@_01GBGANLPD@0@
CONST	SEGMENT
??_C@_01GBGANLPD@0@ DB '0', 00H				; `string'
CONST	ENDS
PUBLIC	?__empty_global_delete@@YAXPAX@Z		; __empty_global_delete
PUBLIC	?__empty_global_delete@@YAXPAXI@Z		; __empty_global_delete
PUBLIC	?Serialize@CObject@@UAEXAAVCArchive@@@Z		; CObject::Serialize
PUBLIC	?AssertValid@CObject@@UBEXXZ			; CObject::AssertValid
PUBLIC	?Dump@CObject@@UBEXAAVCDumpContext@@@Z		; CObject::Dump
PUBLIC	?DoDataExchange@CWnd@@MAEXPAVCDataExchange@@@Z	; CWnd::DoDataExchange
PUBLIC	?BeginModalState@CWnd@@UAEXXZ			; CWnd::BeginModalState
PUBLIC	?EndModalState@CWnd@@UAEXXZ			; CWnd::EndModalState
PUBLIC	?Create@CDialog@@UAEHIPAVCWnd@@@Z		; CDialog::Create
PUBLIC	??1CCommonDialog@@UAE@XZ			; CCommonDialog::~CCommonDialog
PUBLIC	??_GCCommonDialog@@UAEPAXI@Z			; CCommonDialog::`scalar deleting destructor'
PUBLIC	??1CColorDialog@@UAE@XZ				; CColorDialog::~CColorDialog
PUBLIC	??1ILPCSTR135914@@QAE@XZ			; ILPCSTR135914::~ILPCSTR135914
PUBLIC	??0CSetting_Special_Type_B@@QAE@PAUIChartOCX135914@@PAVCWnd@@1@Z ; CSetting_Special_Type_B::CSetting_Special_Type_B
PUBLIC	??1CSetting_Special_Type_B@@UAE@XZ		; CSetting_Special_Type_B::~CSetting_Special_Type_B
PUBLIC	?Initial@CSetting_Special_Type_B@@UAEXPAUIGraphInfo135914@@@Z ; CSetting_Special_Type_B::Initial
PUBLIC	?OnApply@CSetting_Special_Type_B@@UAEHPAUIGraphInfo135914@@@Z ; CSetting_Special_Type_B::OnApply
PUBLIC	?PreTranslateMessage@CSetting_Special_Type_B@@UAEHPAUtagMSG@@@Z ; CSetting_Special_Type_B::PreTranslateMessage
PUBLIC	?DoDataExchange@CSetting_Special_Type_B@@MAEXPAVCDataExchange@@@Z ; CSetting_Special_Type_B::DoDataExchange
PUBLIC	?OnInitDialog@CSetting_Special_Type_B@@MAEHXZ	; CSetting_Special_Type_B::OnInitDialog
PUBLIC	?OnBtnColor@CSetting_Special_Type_B@@IAEXXZ	; CSetting_Special_Type_B::OnBtnColor
PUBLIC	?GetThisMessageMap@CSetting_Special_Type_B@@KGPBUAFX_MSGMAP@@XZ ; CSetting_Special_Type_B::GetThisMessageMap
PUBLIC	?GetMessageMap@CSetting_Special_Type_B@@MBEPBUAFX_MSGMAP@@XZ ; CSetting_Special_Type_B::GetMessageMap
PUBLIC	??_GCSetting_Special_Type_B@@UAEPAXI@Z		; CSetting_Special_Type_B::`scalar deleting destructor'
PUBLIC	??_C@_00CNPNBAHC@@				; `string'
PUBLIC	??_7CCommonDialog@@6B@				; CCommonDialog::`vftable'
PUBLIC	??_R0?AVCObject@@@8				; CObject `RTTI Type Descriptor'
PUBLIC	??_R3CObject@@8					; CObject::`RTTI Class Hierarchy Descriptor'
PUBLIC	??_R2CObject@@8					; CObject::`RTTI Base Class Array'
PUBLIC	??_R1A@?0A@EA@CObject@@8			; CObject::`RTTI Base Class Descriptor at (0,-1,0,64)'
PUBLIC	??_R1A@?0A@EA@CWnd@@8				; CWnd::`RTTI Base Class Descriptor at (0,-1,0,64)'
PUBLIC	??_R0?AVCWnd@@@8				; CWnd `RTTI Type Descriptor'
PUBLIC	??_R3CWnd@@8					; CWnd::`RTTI Class Hierarchy Descriptor'
PUBLIC	??_R2CWnd@@8					; CWnd::`RTTI Base Class Array'
PUBLIC	??_R1A@?0A@EA@CCmdTarget@@8			; CCmdTarget::`RTTI Base Class Descriptor at (0,-1,0,64)'
PUBLIC	??_R0?AVCCmdTarget@@@8				; CCmdTarget `RTTI Type Descriptor'
PUBLIC	??_R3CCmdTarget@@8				; CCmdTarget::`RTTI Class Hierarchy Descriptor'
PUBLIC	??_R2CCmdTarget@@8				; CCmdTarget::`RTTI Base Class Array'
PUBLIC	??_R4CCommonDialog@@6B@				; CCommonDialog::`RTTI Complete Object Locator'
PUBLIC	??_R0?AVCCommonDialog@@@8			; CCommonDialog `RTTI Type Descriptor'
PUBLIC	??_R3CCommonDialog@@8				; CCommonDialog::`RTTI Class Hierarchy Descriptor'
PUBLIC	??_R2CCommonDialog@@8				; CCommonDialog::`RTTI Base Class Array'
PUBLIC	??_R1A@?0A@EA@CCommonDialog@@8			; CCommonDialog::`RTTI Base Class Descriptor at (0,-1,0,64)'
PUBLIC	??_R1A@?0A@EA@CDialog@@8			; CDialog::`RTTI Base Class Descriptor at (0,-1,0,64)'
PUBLIC	??_R0?AVCDialog@@@8				; CDialog `RTTI Type Descriptor'
PUBLIC	??_R3CDialog@@8					; CDialog::`RTTI Class Hierarchy Descriptor'
PUBLIC	??_R2CDialog@@8					; CDialog::`RTTI Base Class Array'
PUBLIC	??_7CSetting_Special_Type_B@@6B@		; CSetting_Special_Type_B::`vftable'
PUBLIC	??_C@_04GHNNFJCK@?$CF?40f@			; `string'
PUBLIC	??_R4CSetting_Special_Type_B@@6B@		; CSetting_Special_Type_B::`RTTI Complete Object Locator'
PUBLIC	??_R0?AVCSetting_Special_Type_B@@@8		; CSetting_Special_Type_B `RTTI Type Descriptor'
PUBLIC	??_R3CSetting_Special_Type_B@@8			; CSetting_Special_Type_B::`RTTI Class Hierarchy Descriptor'
PUBLIC	??_R2CSetting_Special_Type_B@@8			; CSetting_Special_Type_B::`RTTI Base Class Array'
PUBLIC	??_R1A@?0A@EA@CSetting_Special_Type_B@@8	; CSetting_Special_Type_B::`RTTI Base Class Descriptor at (0,-1,0,64)'
PUBLIC	??_R1A@?0A@EA@CBaseDialog@@8			; CBaseDialog::`RTTI Base Class Descriptor at (0,-1,0,64)'
PUBLIC	??_R0?AVCBaseDialog@@@8				; CBaseDialog `RTTI Type Descriptor'
PUBLIC	??_R3CBaseDialog@@8				; CBaseDialog::`RTTI Class Hierarchy Descriptor'
PUBLIC	??_R2CBaseDialog@@8				; CBaseDialog::`RTTI Base Class Array'
EXTRN	??3@YAXPAX@Z:PROC				; operator delete
EXTRN	?__global_delete@@YAXPAXI@Z:PROC		; __global_delete
EXTRN	___std_terminate:PROC
EXTRN	__imp__EnableWindow@8:PROC
EXTRN	__imp__InvalidateRect@12:PROC
EXTRN	__imp__GetWindowRect@8:PROC
EXTRN	__imp__OffsetRect@12:PROC
EXTRN	__imp__atof:PROC
EXTRN	__imp_??0?$CStringT@DV?$StrTraitMFC_DLL@DV?$ChTraitsCRT@D@ATL@@@@@ATL@@QAE@XZ:PROC
EXTRN	__imp_??1?$CStringT@DV?$StrTraitMFC_DLL@DV?$ChTraitsCRT@D@ATL@@@@@ATL@@QAE@XZ:PROC
EXTRN	__imp_??4?$CStringT@DV?$StrTraitMFC_DLL@DV?$ChTraitsCRT@D@ATL@@@@@ATL@@QAEAAV01@PBD@Z:PROC
EXTRN	__imp_?Format@?$CStringT@DV?$StrTraitMFC_DLL@DV?$ChTraitsCRT@D@ATL@@@@@ATL@@QAAXPBDZZ:PROC
EXTRN	__imp_?LoadStringA@?$CStringT@DV?$StrTraitMFC_DLL@DV?$ChTraitsCRT@D@ATL@@@@@ATL@@QAEHI@Z:PROC
EXTRN	?DDX_Text@@YGXPAVCDataExchange@@HAAV?$CStringT@DV?$StrTraitMFC_DLL@DV?$ChTraitsCRT@D@ATL@@@@@ATL@@@Z:PROC ; DDX_Text
EXTRN	?DDX_Control@@YGXPAVCDataExchange@@HAAVCWnd@@@Z:PROC ; DDX_Control
EXTRN	?IsInvokeAllowed@CCmdTarget@@UAEHJ@Z:PROC	; CCmdTarget::IsInvokeAllowed
EXTRN	?GetDispatchIID@CCmdTarget@@UAEHPAU_GUID@@@Z:PROC ; CCmdTarget::GetDispatchIID
EXTRN	?GetTypeInfoCount@CCmdTarget@@UAEIXZ:PROC	; CCmdTarget::GetTypeInfoCount
EXTRN	?GetTypeLibCache@CCmdTarget@@UAEPAVCTypeLibCache@@XZ:PROC ; CCmdTarget::GetTypeLibCache
EXTRN	?GetTypeLib@CCmdTarget@@UAEJKPAPAUITypeLib@@@Z:PROC ; CCmdTarget::GetTypeLib
EXTRN	?GetCommandMap@CCmdTarget@@MBEPBUAFX_OLECMDMAP@@XZ:PROC ; CCmdTarget::GetCommandMap
EXTRN	?GetDispatchMap@CCmdTarget@@MBEPBUAFX_DISPMAP@@XZ:PROC ; CCmdTarget::GetDispatchMap
EXTRN	?GetConnectionMap@CCmdTarget@@MBEPBUAFX_CONNECTIONMAP@@XZ:PROC ; CCmdTarget::GetConnectionMap
EXTRN	?GetEventSinkMap@CCmdTarget@@MBEPBUAFX_EVENTSINKMAP@@XZ:PROC ; CCmdTarget::GetEventSinkMap
EXTRN	?OnCreateAggregates@CCmdTarget@@UAEHXZ:PROC	; CCmdTarget::OnCreateAggregates
EXTRN	?GetInterfaceHook@CCmdTarget@@UAEPAUIUnknown@@PBX@Z:PROC ; CCmdTarget::GetInterfaceHook
EXTRN	?GetExtraConnectionPoints@CCmdTarget@@MAEHPAVCPtrArray@@@Z:PROC ; CCmdTarget::GetExtraConnectionPoints
EXTRN	?GetConnectionHook@CCmdTarget@@MAEPAUIConnectionPoint@@ABU_GUID@@@Z:PROC ; CCmdTarget::GetConnectionHook
EXTRN	?PreSubclassWindow@CWnd@@UAEXXZ:PROC		; CWnd::PreSubclassWindow
EXTRN	?Create@CWnd@@UAEHPBD0KABUtagRECT@@PAV1@IPAUCCreateContext@@@Z:PROC ; CWnd::Create
EXTRN	?CreateEx@CWnd@@UAEHKPBD0KHHHHPAUHWND__@@PAUHMENU__@@PAX@Z:PROC ; CWnd::CreateEx
EXTRN	?CreateEx@CWnd@@UAEHKPBD0KABUtagRECT@@PAV1@IPAX@Z:PROC ; CWnd::CreateEx
EXTRN	?DestroyWindow@CWnd@@UAEHXZ:PROC		; CWnd::DestroyWindow
EXTRN	?PreCreateWindow@CWnd@@UAEHAAUtagCREATESTRUCTA@@@Z:PROC ; CWnd::PreCreateWindow
EXTRN	?CalcWindowRect@CWnd@@UAEXPAUtagRECT@@I@Z:PROC	; CWnd::CalcWindowRect
EXTRN	?GetDlgItem@CWnd@@QBEPAV1@H@Z:PROC		; CWnd::GetDlgItem
EXTRN	?SetWindowTextA@CWnd@@QAEXPBD@Z:PROC		; CWnd::SetWindowTextA
EXTRN	?GetMenu@CWnd@@UBEPAVCMenu@@XZ:PROC		; CWnd::GetMenu
EXTRN	?SetMenu@CWnd@@UAEHPAVCMenu@@@Z:PROC		; CWnd::SetMenu
EXTRN	?MoveWindow@CWnd@@QAEXHHHHH@Z:PROC		; CWnd::MoveWindow
EXTRN	?ScreenToClient@CWnd@@QBEXPAUtagRECT@@@Z:PROC	; CWnd::ScreenToClient
EXTRN	?ShowWindow@CWnd@@QAEHH@Z:PROC			; CWnd::ShowWindow
EXTRN	?OnToolHitTest@CWnd@@UBEHVCPoint@@PAUtagTOOLINFOA@@@Z:PROC ; CWnd::OnToolHitTest
EXTRN	?GetScrollBarCtrl@CWnd@@UBEPAVCScrollBar@@H@Z:PROC ; CWnd::GetScrollBarCtrl
EXTRN	?UpdateData@CWnd@@QAEHH@Z:PROC			; CWnd::UpdateData
EXTRN	?WinHelpA@CWnd@@UAEXKI@Z:PROC			; CWnd::WinHelpA
EXTRN	?HtmlHelpA@CWnd@@UAEXKI@Z:PROC			; CWnd::HtmlHelpA
EXTRN	?WinHelpInternal@CWnd@@UAEXKI@Z:PROC		; CWnd::WinHelpInternal
EXTRN	?ContinueModal@CWnd@@UAEHXZ:PROC		; CWnd::ContinueModal
EXTRN	?EndModalLoop@CWnd@@UAEXH@Z:PROC		; CWnd::EndModalLoop
EXTRN	?OnDrawIconicThumbnailOrLivePreview@CWnd@@UAEXAAVCDC@@VCRect@@VCSize@@HAAH@Z:PROC ; CWnd::OnDrawIconicThumbnailOrLivePreview
EXTRN	?GetInterfaceMap@CWnd@@MBEPBUAFX_INTERFACEMAP@@XZ:PROC ; CWnd::GetInterfaceMap
EXTRN	?EnsureStdObj@CWnd@@UAEJXZ:PROC			; CWnd::EnsureStdObj
EXTRN	?get_accParent@CWnd@@UAEJPAPAUIDispatch@@@Z:PROC ; CWnd::get_accParent
EXTRN	?get_accChildCount@CWnd@@UAEJPAJ@Z:PROC		; CWnd::get_accChildCount
EXTRN	?get_accChild@CWnd@@UAEJUtagVARIANT@@PAPAUIDispatch@@@Z:PROC ; CWnd::get_accChild
EXTRN	?get_accName@CWnd@@UAEJUtagVARIANT@@PAPA_W@Z:PROC ; CWnd::get_accName
EXTRN	?get_accValue@CWnd@@UAEJUtagVARIANT@@PAPA_W@Z:PROC ; CWnd::get_accValue
EXTRN	?get_accDescription@CWnd@@UAEJUtagVARIANT@@PAPA_W@Z:PROC ; CWnd::get_accDescription
EXTRN	?get_accRole@CWnd@@UAEJUtagVARIANT@@PAU2@@Z:PROC ; CWnd::get_accRole
EXTRN	?get_accState@CWnd@@UAEJUtagVARIANT@@PAU2@@Z:PROC ; CWnd::get_accState
EXTRN	?get_accHelp@CWnd@@UAEJUtagVARIANT@@PAPA_W@Z:PROC ; CWnd::get_accHelp
EXTRN	?get_accHelpTopic@CWnd@@UAEJPAPA_WUtagVARIANT@@PAJ@Z:PROC ; CWnd::get_accHelpTopic
EXTRN	?get_accKeyboardShortcut@CWnd@@UAEJUtagVARIANT@@PAPA_W@Z:PROC ; CWnd::get_accKeyboardShortcut
EXTRN	?get_accFocus@CWnd@@UAEJPAUtagVARIANT@@@Z:PROC	; CWnd::get_accFocus
EXTRN	?get_accSelection@CWnd@@UAEJPAUtagVARIANT@@@Z:PROC ; CWnd::get_accSelection
EXTRN	?get_accDefaultAction@CWnd@@UAEJUtagVARIANT@@PAPA_W@Z:PROC ; CWnd::get_accDefaultAction
EXTRN	?accSelect@CWnd@@UAEJJUtagVARIANT@@@Z:PROC	; CWnd::accSelect
EXTRN	?accLocation@CWnd@@UAEJPAJ000UtagVARIANT@@@Z:PROC ; CWnd::accLocation
EXTRN	?accNavigate@CWnd@@UAEJJUtagVARIANT@@PAU2@@Z:PROC ; CWnd::accNavigate
EXTRN	?accHitTest@CWnd@@UAEJJJPAUtagVARIANT@@@Z:PROC	; CWnd::accHitTest
EXTRN	?accDoDefaultAction@CWnd@@UAEJUtagVARIANT@@@Z:PROC ; CWnd::accDoDefaultAction
EXTRN	?put_accName@CWnd@@UAEJUtagVARIANT@@PA_W@Z:PROC	; CWnd::put_accName
EXTRN	?put_accValue@CWnd@@UAEJUtagVARIANT@@PA_W@Z:PROC ; CWnd::put_accValue
EXTRN	?SetProxy@CWnd@@UAEJPAUIAccessibleProxy@@@Z:PROC ; CWnd::SetProxy
EXTRN	?CreateAccessibleProxy@CWnd@@UAEJIJPAJ@Z:PROC	; CWnd::CreateAccessibleProxy
EXTRN	?OnCommand@CWnd@@MAEHIJ@Z:PROC			; CWnd::OnCommand
EXTRN	?OnNotify@CWnd@@MAEHIJPAJ@Z:PROC		; CWnd::OnNotify
EXTRN	?GetSuperWndProcAddr@CWnd@@MAEPAP6GJPAUHWND__@@IIJ@ZXZ:PROC ; CWnd::GetSuperWndProcAddr
EXTRN	?OnAmbientProperty@CWnd@@UAEHPAVCOleControlSite@@JPAUtagVARIANT@@@Z:PROC ; CWnd::OnAmbientProperty
EXTRN	?WindowProc@CWnd@@MAEJIIJ@Z:PROC		; CWnd::WindowProc
EXTRN	?OnWndMsg@CWnd@@MAEHIIJPAJ@Z:PROC		; CWnd::OnWndMsg
EXTRN	?DefWindowProcA@CWnd@@MAEJIIJ@Z:PROC		; CWnd::DefWindowProcA
EXTRN	?PostNcDestroy@CWnd@@MAEXXZ:PROC		; CWnd::PostNcDestroy
EXTRN	?OnChildNotify@CWnd@@MAEHIIJPAJ@Z:PROC		; CWnd::OnChildNotify
EXTRN	?OnTouchInputs@CWnd@@MAEHIPAUtagTOUCHINPUT@@@Z:PROC ; CWnd::OnTouchInputs
EXTRN	?OnTouchInput@CWnd@@MAEHVCPoint@@HHPAUtagTOUCHINPUT@@@Z:PROC ; CWnd::OnTouchInput
EXTRN	?GetGestureStatus@CWnd@@MAEKVCPoint@@@Z:PROC	; CWnd::GetGestureStatus
EXTRN	?OnGestureZoom@CWnd@@MAEHVCPoint@@J@Z:PROC	; CWnd::OnGestureZoom
EXTRN	?OnGesturePan@CWnd@@MAEHVCPoint@@0@Z:PROC	; CWnd::OnGesturePan
EXTRN	?OnGestureRotate@CWnd@@MAEHVCPoint@@N@Z:PROC	; CWnd::OnGestureRotate
EXTRN	?OnGestureTwoFingerTap@CWnd@@MAEHVCPoint@@@Z:PROC ; CWnd::OnGestureTwoFingerTap
EXTRN	?OnGesturePressAndTap@CWnd@@MAEHVCPoint@@J@Z:PROC ; CWnd::OnGesturePressAndTap
EXTRN	?ResizeDynamicLayout@CWnd@@MAEXXZ:PROC		; CWnd::ResizeDynamicLayout
EXTRN	?IsFrameWnd@CWnd@@UBEHXZ:PROC			; CWnd::IsFrameWnd
EXTRN	?OnFinalRelease@CWnd@@UAEXXZ:PROC		; CWnd::OnFinalRelease
EXTRN	?CreateControlContainer@CWnd@@MAEHPAPAVCOleControlContainer@@@Z:PROC ; CWnd::CreateControlContainer
EXTRN	?CreateControlSite@CWnd@@MAEHPAVCOleControlContainer@@PAPAVCOleControlSite@@IABU_GUID@@@Z:PROC ; CWnd::CreateControlSite
EXTRN	?GetRuntimeClass@CDialog@@UBEPAUCRuntimeClass@@XZ:PROC ; CDialog::GetRuntimeClass
EXTRN	?Create@CDialog@@UAEHPBDPAVCWnd@@@Z:PROC	; CDialog::Create
EXTRN	?CreateIndirect@CDialog@@UAEHPBUDLGTEMPLATE@@PAVCWnd@@PAX@Z:PROC ; CDialog::CreateIndirect
EXTRN	?CreateIndirect@CDialog@@UAEHPAXPAVCWnd@@@Z:PROC ; CDialog::CreateIndirect
EXTRN	?DoModal@CDialog@@UAEHXZ:PROC			; CDialog::DoModal
EXTRN	?OnInitDialog@CDialog@@UAEHXZ:PROC		; CDialog::OnInitDialog
EXTRN	?OnSetFont@CDialog@@UAEXPAVCFont@@@Z:PROC	; CDialog::OnSetFont
EXTRN	?OnOK@CDialog@@MAEXXZ:PROC			; CDialog::OnOK
EXTRN	?OnCancel@CDialog@@MAEXXZ:PROC			; CDialog::OnCancel
EXTRN	??1CDialog@@UAE@XZ:PROC				; CDialog::~CDialog
EXTRN	?PreTranslateMessage@CDialog@@UAEHPAUtagMSG@@@Z:PROC ; CDialog::PreTranslateMessage
EXTRN	?OnCmdMsg@CDialog@@UAEHIHPAXPAUAFX_CMDHANDLERINFO@@@Z:PROC ; CDialog::OnCmdMsg
EXTRN	?CheckAutoCenter@CDialog@@UAEHXZ:PROC		; CDialog::CheckAutoCenter
EXTRN	?SetOccDialogInfo@CDialog@@MAEHPAU_AFX_OCC_DIALOG_INFO@@@Z:PROC ; CDialog::SetOccDialogInfo
EXTRN	?GetOccDialogInfo@CDialog@@MAEPAU_AFX_OCC_DIALOG_INFO@@XZ:PROC ; CDialog::GetOccDialogInfo
EXTRN	?PreInitDialog@CDialog@@MAEXXZ:PROC		; CDialog::PreInitDialog
EXTRN	?GetThisMessageMap@CDialog@@KGPBUAFX_MSGMAP@@XZ:PROC ; CDialog::GetThisMessageMap
EXTRN	?GetRuntimeClass@CCommonDialog@@UBEPAUCRuntimeClass@@XZ:PROC ; CCommonDialog::GetRuntimeClass
EXTRN	?OnOK@CCommonDialog@@MAEXXZ:PROC		; CCommonDialog::OnOK
EXTRN	?OnCancel@CCommonDialog@@MAEXXZ:PROC		; CCommonDialog::OnCancel
EXTRN	?GetMessageMap@CCommonDialog@@MBEPBUAFX_MSGMAP@@XZ:PROC ; CCommonDialog::GetMessageMap
EXTRN	??_ECCommonDialog@@UAEPAXI@Z:PROC		; CCommonDialog::`vector deleting destructor'
EXTRN	??0CColorDialog@@QAE@KKPAVCWnd@@@Z:PROC		; CColorDialog::CColorDialog
EXTRN	?DoModal@CColorDialog@@UAEHXZ:PROC		; CColorDialog::DoModal
EXTRN	??0CBitmapItemComboBox@@QAE@XZ:PROC		; CBitmapItemComboBox::CBitmapItemComboBox
EXTRN	??1CBitmapItemComboBox@@UAE@XZ:PROC		; CBitmapItemComboBox::~CBitmapItemComboBox
EXTRN	??0CBaseDialog@@QAE@IPAVCWnd@@PAUIChartOCX135914@@0@Z:PROC ; CBaseDialog::CBaseDialog
EXTRN	??1CBaseDialog@@UAE@XZ:PROC			; CBaseDialog::~CBaseDialog
EXTRN	?SetTitle@CBaseDialog@@UAEXHABV?$CStringT@DV?$StrTraitMFC_DLL@DV?$ChTraitsCRT@D@ATL@@@@@ATL@@@Z:PROC ; CBaseDialog::SetTitle
EXTRN	?DoCalculate@CBaseDialog@@UAE_NXZ:PROC		; CBaseDialog::DoCalculate
EXTRN	?Initial_ThicknessComboBox@CBaseDialog@@IAEXHHAAVCBitmapItemComboBox@@@Z:PROC ; CBaseDialog::Initial_ThicknessComboBox
EXTRN	?OnApply_Thickness@CBaseDialog@@IAEXHAAVCBitmapItemComboBox@@@Z:PROC ; CBaseDialog::OnApply_Thickness
EXTRN	?DoesEqualDoubleList@CBaseDialog@@IBEHPAUIDoubleList135914@@0@Z:PROC ; CBaseDialog::DoesEqualDoubleList
EXTRN	??0CColorButton@@QAE@XZ:PROC			; CColorButton::CColorButton
EXTRN	??1CColorButton@@UAE@XZ:PROC			; CColorButton::~CColorButton
EXTRN	?GetColor@CColorButton@@QAEKXZ:PROC		; CColorButton::GetColor
EXTRN	?SetColor@CColorButton@@QAEXABK@Z:PROC		; CColorButton::SetColor
EXTRN	??_ECSetting_Special_Type_B@@UAEPAXI@Z:PROC	; CSetting_Special_Type_B::`vector deleting destructor'
EXTRN	@__security_check_cookie@4:PROC
EXTRN	___CxxFrameHandler3:PROC
EXTRN	??_7type_info@@6B@:QWORD			; type_info::`vftable'
EXTRN	?g_iMetaTable@@3VIMetaTable@@A:BYTE		; g_iMetaTable
EXTRN	___security_cookie:DWORD
EXTRN	__fltused:DWORD
;	COMDAT ??_R2CBaseDialog@@8
rdata$r	SEGMENT
??_R2CBaseDialog@@8 DD FLAT:??_R1A@?0A@EA@CBaseDialog@@8 ; CBaseDialog::`RTTI Base Class Array'
	DD	FLAT:??_R1A@?0A@EA@CDialog@@8
	DD	FLAT:??_R1A@?0A@EA@CWnd@@8
	DD	FLAT:??_R1A@?0A@EA@CCmdTarget@@8
	DD	FLAT:??_R1A@?0A@EA@CObject@@8
rdata$r	ENDS
;	COMDAT ??_R3CBaseDialog@@8
rdata$r	SEGMENT
??_R3CBaseDialog@@8 DD 00H				; CBaseDialog::`RTTI Class Hierarchy Descriptor'
	DD	00H
	DD	05H
	DD	FLAT:??_R2CBaseDialog@@8
rdata$r	ENDS
;	COMDAT ??_R0?AVCBaseDialog@@@8
data$rs	SEGMENT
??_R0?AVCBaseDialog@@@8 DD FLAT:??_7type_info@@6B@	; CBaseDialog `RTTI Type Descriptor'
	DD	00H
	DB	'.?AVCBaseDialog@@', 00H
data$rs	ENDS
;	COMDAT ??_R1A@?0A@EA@CBaseDialog@@8
rdata$r	SEGMENT
??_R1A@?0A@EA@CBaseDialog@@8 DD FLAT:??_R0?AVCBaseDialog@@@8 ; CBaseDialog::`RTTI Base Class Descriptor at (0,-1,0,64)'
	DD	04H
	DD	00H
	DD	0ffffffffH
	DD	00H
	DD	040H
	DD	FLAT:??_R3CBaseDialog@@8
rdata$r	ENDS
;	COMDAT ??_R1A@?0A@EA@CSetting_Special_Type_B@@8
rdata$r	SEGMENT
??_R1A@?0A@EA@CSetting_Special_Type_B@@8 DD FLAT:??_R0?AVCSetting_Special_Type_B@@@8 ; CSetting_Special_Type_B::`RTTI Base Class Descriptor at (0,-1,0,64)'
	DD	05H
	DD	00H
	DD	0ffffffffH
	DD	00H
	DD	040H
	DD	FLAT:??_R3CSetting_Special_Type_B@@8
rdata$r	ENDS
;	COMDAT ??_R2CSetting_Special_Type_B@@8
rdata$r	SEGMENT
??_R2CSetting_Special_Type_B@@8 DD FLAT:??_R1A@?0A@EA@CSetting_Special_Type_B@@8 ; CSetting_Special_Type_B::`RTTI Base Class Array'
	DD	FLAT:??_R1A@?0A@EA@CBaseDialog@@8
	DD	FLAT:??_R1A@?0A@EA@CDialog@@8
	DD	FLAT:??_R1A@?0A@EA@CWnd@@8
	DD	FLAT:??_R1A@?0A@EA@CCmdTarget@@8
	DD	FLAT:??_R1A@?0A@EA@CObject@@8
rdata$r	ENDS
;	COMDAT ??_R3CSetting_Special_Type_B@@8
rdata$r	SEGMENT
??_R3CSetting_Special_Type_B@@8 DD 00H			; CSetting_Special_Type_B::`RTTI Class Hierarchy Descriptor'
	DD	00H
	DD	06H
	DD	FLAT:??_R2CSetting_Special_Type_B@@8
rdata$r	ENDS
;	COMDAT ??_R0?AVCSetting_Special_Type_B@@@8
data$rs	SEGMENT
??_R0?AVCSetting_Special_Type_B@@@8 DD FLAT:??_7type_info@@6B@ ; CSetting_Special_Type_B `RTTI Type Descriptor'
	DD	00H
	DB	'.?AVCSetting_Special_Type_B@@', 00H
data$rs	ENDS
;	COMDAT ??_R4CSetting_Special_Type_B@@6B@
rdata$r	SEGMENT
??_R4CSetting_Special_Type_B@@6B@ DD 00H		; CSetting_Special_Type_B::`RTTI Complete Object Locator'
	DD	00H
	DD	00H
	DD	FLAT:??_R0?AVCSetting_Special_Type_B@@@8
	DD	FLAT:??_R3CSetting_Special_Type_B@@8
rdata$r	ENDS
;	COMDAT ??_C@_04GHNNFJCK@?$CF?40f@
CONST	SEGMENT
??_C@_04GHNNFJCK@?$CF?40f@ DB '%.0f', 00H		; `string'
CONST	ENDS
;	COMDAT ?messageMap@?1??GetThisMessageMap@CSetting_Special_Type_B@@KGPBUAFX_MSGMAP@@XZ@4U3@B
CONST	SEGMENT
?messageMap@?1??GetThisMessageMap@CSetting_Special_Type_B@@KGPBUAFX_MSGMAP@@XZ@4U3@B DD FLAT:?GetThisMessageMap@CDialog@@KGPBUAFX_MSGMAP@@XZ ; `CSetting_Special_Type_B::GetThisMessageMap'::`2'::messageMap
	DD	FLAT:?_messageEntries@?1??GetThisMessageMap@CSetting_Special_Type_B@@KGPBUAFX_MSGMAP@@XZ@4QBUAFX_MSGMAP_ENTRY@@B
CONST	ENDS
;	COMDAT ?_messageEntries@?1??GetThisMessageMap@CSetting_Special_Type_B@@KGPBUAFX_MSGMAP@@XZ@4QBUAFX_MSGMAP_ENTRY@@B
CONST	SEGMENT
?_messageEntries@?1??GetThisMessageMap@CSetting_Special_Type_B@@KGPBUAFX_MSGMAP@@XZ@4QBUAFX_MSGMAP_ENTRY@@B DD 0111H ; `CSetting_Special_Type_B::GetThisMessageMap'::`2'::_messageEntries
	DD	00H
	DD	0180cH
	DD	0180cH
	DD	03aH
	DD	FLAT:?OnBtnColor@CSetting_Special_Type_B@@IAEXXZ
	DD	00H
	DD	00H
	DD	00H
	DD	00H
	DD	00H
	DD	00H
CONST	ENDS
;	COMDAT ??_7CSetting_Special_Type_B@@6B@
CONST	SEGMENT
??_7CSetting_Special_Type_B@@6B@ DD FLAT:??_R4CSetting_Special_Type_B@@6B@ ; CSetting_Special_Type_B::`vftable'
	DD	FLAT:?GetRuntimeClass@CDialog@@UBEPAUCRuntimeClass@@XZ
	DD	FLAT:??_ECSetting_Special_Type_B@@UAEPAXI@Z
	DD	FLAT:?Serialize@CObject@@UAEXAAVCArchive@@@Z
	DD	FLAT:?AssertValid@CObject@@UBEXXZ
	DD	FLAT:?Dump@CObject@@UBEXAAVCDumpContext@@@Z
	DD	FLAT:?OnCmdMsg@CDialog@@UAEHIHPAXPAUAFX_CMDHANDLERINFO@@@Z
	DD	FLAT:?OnFinalRelease@CWnd@@UAEXXZ
	DD	FLAT:?IsInvokeAllowed@CCmdTarget@@UAEHJ@Z
	DD	FLAT:?GetDispatchIID@CCmdTarget@@UAEHPAU_GUID@@@Z
	DD	FLAT:?GetTypeInfoCount@CCmdTarget@@UAEIXZ
	DD	FLAT:?GetTypeLibCache@CCmdTarget@@UAEPAVCTypeLibCache@@XZ
	DD	FLAT:?GetTypeLib@CCmdTarget@@UAEJKPAPAUITypeLib@@@Z
	DD	FLAT:?GetMessageMap@CSetting_Special_Type_B@@MBEPBUAFX_MSGMAP@@XZ
	DD	FLAT:?GetCommandMap@CCmdTarget@@MBEPBUAFX_OLECMDMAP@@XZ
	DD	FLAT:?GetDispatchMap@CCmdTarget@@MBEPBUAFX_DISPMAP@@XZ
	DD	FLAT:?GetConnectionMap@CCmdTarget@@MBEPBUAFX_CONNECTIONMAP@@XZ
	DD	FLAT:?GetInterfaceMap@CWnd@@MBEPBUAFX_INTERFACEMAP@@XZ
	DD	FLAT:?GetEventSinkMap@CCmdTarget@@MBEPBUAFX_EVENTSINKMAP@@XZ
	DD	FLAT:?OnCreateAggregates@CCmdTarget@@UAEHXZ
	DD	FLAT:?GetInterfaceHook@CCmdTarget@@UAEPAUIUnknown@@PBX@Z
	DD	FLAT:?GetExtraConnectionPoints@CCmdTarget@@MAEHPAVCPtrArray@@@Z
	DD	FLAT:?GetConnectionHook@CCmdTarget@@MAEPAUIConnectionPoint@@ABU_GUID@@@Z
	DD	FLAT:?PreSubclassWindow@CWnd@@UAEXXZ
	DD	FLAT:?Create@CWnd@@UAEHPBD0KABUtagRECT@@PAV1@IPAUCCreateContext@@@Z
	DD	FLAT:?CreateEx@CWnd@@UAEHKPBD0KABUtagRECT@@PAV1@IPAX@Z
	DD	FLAT:?CreateEx@CWnd@@UAEHKPBD0KHHHHPAUHWND__@@PAUHMENU__@@PAX@Z
	DD	FLAT:?DestroyWindow@CWnd@@UAEHXZ
	DD	FLAT:?PreCreateWindow@CWnd@@UAEHAAUtagCREATESTRUCTA@@@Z
	DD	FLAT:?CalcWindowRect@CWnd@@UAEXPAUtagRECT@@I@Z
	DD	FLAT:?GetMenu@CWnd@@UBEPAVCMenu@@XZ
	DD	FLAT:?SetMenu@CWnd@@UAEHPAVCMenu@@@Z
	DD	FLAT:?OnToolHitTest@CWnd@@UBEHVCPoint@@PAUtagTOOLINFOA@@@Z
	DD	FLAT:?GetScrollBarCtrl@CWnd@@UBEPAVCScrollBar@@H@Z
	DD	FLAT:?WinHelpA@CWnd@@UAEXKI@Z
	DD	FLAT:?HtmlHelpA@CWnd@@UAEXKI@Z
	DD	FLAT:?WinHelpInternal@CWnd@@UAEXKI@Z
	DD	FLAT:?ContinueModal@CWnd@@UAEHXZ
	DD	FLAT:?EndModalLoop@CWnd@@UAEXH@Z
	DD	FLAT:?OnDrawIconicThumbnailOrLivePreview@CWnd@@UAEXAAVCDC@@VCRect@@VCSize@@HAAH@Z
	DD	FLAT:?EnsureStdObj@CWnd@@UAEJXZ
	DD	FLAT:?get_accParent@CWnd@@UAEJPAPAUIDispatch@@@Z
	DD	FLAT:?get_accChildCount@CWnd@@UAEJPAJ@Z
	DD	FLAT:?get_accChild@CWnd@@UAEJUtagVARIANT@@PAPAUIDispatch@@@Z
	DD	FLAT:?get_accName@CWnd@@UAEJUtagVARIANT@@PAPA_W@Z
	DD	FLAT:?get_accValue@CWnd@@UAEJUtagVARIANT@@PAPA_W@Z
	DD	FLAT:?get_accDescription@CWnd@@UAEJUtagVARIANT@@PAPA_W@Z
	DD	FLAT:?get_accRole@CWnd@@UAEJUtagVARIANT@@PAU2@@Z
	DD	FLAT:?get_accState@CWnd@@UAEJUtagVARIANT@@PAU2@@Z
	DD	FLAT:?get_accHelp@CWnd@@UAEJUtagVARIANT@@PAPA_W@Z
	DD	FLAT:?get_accHelpTopic@CWnd@@UAEJPAPA_WUtagVARIANT@@PAJ@Z
	DD	FLAT:?get_accKeyboardShortcut@CWnd@@UAEJUtagVARIANT@@PAPA_W@Z
	DD	FLAT:?get_accFocus@CWnd@@UAEJPAUtagVARIANT@@@Z
	DD	FLAT:?get_accSelection@CWnd@@UAEJPAUtagVARIANT@@@Z
	DD	FLAT:?get_accDefaultAction@CWnd@@UAEJUtagVARIANT@@PAPA_W@Z
	DD	FLAT:?accSelect@CWnd@@UAEJJUtagVARIANT@@@Z
	DD	FLAT:?accLocation@CWnd@@UAEJPAJ000UtagVARIANT@@@Z
	DD	FLAT:?accNavigate@CWnd@@UAEJJUtagVARIANT@@PAU2@@Z
	DD	FLAT:?accHitTest@CWnd@@UAEJJJPAUtagVARIANT@@@Z
	DD	FLAT:?accDoDefaultAction@CWnd@@UAEJUtagVARIANT@@@Z
	DD	FLAT:?put_accName@CWnd@@UAEJUtagVARIANT@@PA_W@Z
	DD	FLAT:?put_accValue@CWnd@@UAEJUtagVARIANT@@PA_W@Z
	DD	FLAT:?SetProxy@CWnd@@UAEJPAUIAccessibleProxy@@@Z
	DD	FLAT:?CreateAccessibleProxy@CWnd@@UAEJIJPAJ@Z
	DD	FLAT:?OnCommand@CWnd@@MAEHIJ@Z
	DD	FLAT:?OnNotify@CWnd@@MAEHIJPAJ@Z
	DD	FLAT:?GetSuperWndProcAddr@CWnd@@MAEPAP6GJPAUHWND__@@IIJ@ZXZ
	DD	FLAT:?DoDataExchange@CSetting_Special_Type_B@@MAEXPAVCDataExchange@@@Z
	DD	FLAT:?BeginModalState@CWnd@@UAEXXZ
	DD	FLAT:?EndModalState@CWnd@@UAEXXZ
	DD	FLAT:?PreTranslateMessage@CSetting_Special_Type_B@@UAEHPAUtagMSG@@@Z
	DD	FLAT:?OnAmbientProperty@CWnd@@UAEHPAVCOleControlSite@@JPAUtagVARIANT@@@Z
	DD	FLAT:?WindowProc@CWnd@@MAEJIIJ@Z
	DD	FLAT:?OnWndMsg@CWnd@@MAEHIIJPAJ@Z
	DD	FLAT:?DefWindowProcA@CWnd@@MAEJIIJ@Z
	DD	FLAT:?PostNcDestroy@CWnd@@MAEXXZ
	DD	FLAT:?OnChildNotify@CWnd@@MAEHIIJPAJ@Z
	DD	FLAT:?OnTouchInputs@CWnd@@MAEHIPAUtagTOUCHINPUT@@@Z
	DD	FLAT:?OnTouchInput@CWnd@@MAEHVCPoint@@HHPAUtagTOUCHINPUT@@@Z
	DD	FLAT:?GetGestureStatus@CWnd@@MAEKVCPoint@@@Z
	DD	FLAT:?OnGestureZoom@CWnd@@MAEHVCPoint@@J@Z
	DD	FLAT:?OnGesturePan@CWnd@@MAEHVCPoint@@0@Z
	DD	FLAT:?OnGestureRotate@CWnd@@MAEHVCPoint@@N@Z
	DD	FLAT:?OnGestureTwoFingerTap@CWnd@@MAEHVCPoint@@@Z
	DD	FLAT:?OnGesturePressAndTap@CWnd@@MAEHVCPoint@@J@Z
	DD	FLAT:?ResizeDynamicLayout@CWnd@@MAEXXZ
	DD	FLAT:?CheckAutoCenter@CDialog@@UAEHXZ
	DD	FLAT:?IsFrameWnd@CWnd@@UBEHXZ
	DD	FLAT:?CreateControlContainer@CWnd@@MAEHPAPAVCOleControlContainer@@@Z
	DD	FLAT:?CreateControlSite@CWnd@@MAEHPAVCOleControlContainer@@PAPAVCOleControlSite@@IABU_GUID@@@Z
	DD	FLAT:?SetOccDialogInfo@CDialog@@MAEHPAU_AFX_OCC_DIALOG_INFO@@@Z
	DD	FLAT:?GetOccDialogInfo@CDialog@@MAEPAU_AFX_OCC_DIALOG_INFO@@XZ
	DD	FLAT:?Create@CDialog@@UAEHIPAVCWnd@@@Z
	DD	FLAT:?Create@CDialog@@UAEHPBDPAVCWnd@@@Z
	DD	FLAT:?CreateIndirect@CDialog@@UAEHPAXPAVCWnd@@@Z
	DD	FLAT:?CreateIndirect@CDialog@@UAEHPBUDLGTEMPLATE@@PAVCWnd@@PAX@Z
	DD	FLAT:?DoModal@CDialog@@UAEHXZ
	DD	FLAT:?OnInitDialog@CSetting_Special_Type_B@@MAEHXZ
	DD	FLAT:?OnSetFont@CDialog@@UAEXPAVCFont@@@Z
	DD	FLAT:?OnOK@CDialog@@MAEXXZ
	DD	FLAT:?OnCancel@CDialog@@MAEXXZ
	DD	FLAT:?PreInitDialog@CDialog@@MAEXXZ
	DD	FLAT:?Initial@CSetting_Special_Type_B@@UAEXPAUIGraphInfo135914@@@Z
	DD	FLAT:?OnApply@CSetting_Special_Type_B@@UAEHPAUIGraphInfo135914@@@Z
	DD	FLAT:?SetTitle@CBaseDialog@@UAEXHABV?$CStringT@DV?$StrTraitMFC_DLL@DV?$ChTraitsCRT@D@ATL@@@@@ATL@@@Z
	DD	FLAT:?DoCalculate@CBaseDialog@@UAE_NXZ
CONST	ENDS
;	COMDAT ??_R2CDialog@@8
rdata$r	SEGMENT
??_R2CDialog@@8 DD FLAT:??_R1A@?0A@EA@CDialog@@8	; CDialog::`RTTI Base Class Array'
	DD	FLAT:??_R1A@?0A@EA@CWnd@@8
	DD	FLAT:??_R1A@?0A@EA@CCmdTarget@@8
	DD	FLAT:??_R1A@?0A@EA@CObject@@8
rdata$r	ENDS
;	COMDAT ??_R3CDialog@@8
rdata$r	SEGMENT
??_R3CDialog@@8 DD 00H					; CDialog::`RTTI Class Hierarchy Descriptor'
	DD	00H
	DD	04H
	DD	FLAT:??_R2CDialog@@8
rdata$r	ENDS
;	COMDAT ??_R0?AVCDialog@@@8
data$rs	SEGMENT
??_R0?AVCDialog@@@8 DD FLAT:??_7type_info@@6B@		; CDialog `RTTI Type Descriptor'
	DD	00H
	DB	'.?AVCDialog@@', 00H
data$rs	ENDS
;	COMDAT ??_R1A@?0A@EA@CDialog@@8
rdata$r	SEGMENT
??_R1A@?0A@EA@CDialog@@8 DD FLAT:??_R0?AVCDialog@@@8	; CDialog::`RTTI Base Class Descriptor at (0,-1,0,64)'
	DD	03H
	DD	00H
	DD	0ffffffffH
	DD	00H
	DD	040H
	DD	FLAT:??_R3CDialog@@8
rdata$r	ENDS
;	COMDAT ??_R1A@?0A@EA@CCommonDialog@@8
rdata$r	SEGMENT
??_R1A@?0A@EA@CCommonDialog@@8 DD FLAT:??_R0?AVCCommonDialog@@@8 ; CCommonDialog::`RTTI Base Class Descriptor at (0,-1,0,64)'
	DD	04H
	DD	00H
	DD	0ffffffffH
	DD	00H
	DD	040H
	DD	FLAT:??_R3CCommonDialog@@8
rdata$r	ENDS
;	COMDAT ??_R2CCommonDialog@@8
rdata$r	SEGMENT
??_R2CCommonDialog@@8 DD FLAT:??_R1A@?0A@EA@CCommonDialog@@8 ; CCommonDialog::`RTTI Base Class Array'
	DD	FLAT:??_R1A@?0A@EA@CDialog@@8
	DD	FLAT:??_R1A@?0A@EA@CWnd@@8
	DD	FLAT:??_R1A@?0A@EA@CCmdTarget@@8
	DD	FLAT:??_R1A@?0A@EA@CObject@@8
rdata$r	ENDS
;	COMDAT ??_R3CCommonDialog@@8
rdata$r	SEGMENT
??_R3CCommonDialog@@8 DD 00H				; CCommonDialog::`RTTI Class Hierarchy Descriptor'
	DD	00H
	DD	05H
	DD	FLAT:??_R2CCommonDialog@@8
rdata$r	ENDS
;	COMDAT ??_R0?AVCCommonDialog@@@8
data$rs	SEGMENT
??_R0?AVCCommonDialog@@@8 DD FLAT:??_7type_info@@6B@	; CCommonDialog `RTTI Type Descriptor'
	DD	00H
	DB	'.?AVCCommonDialog@@', 00H
data$rs	ENDS
;	COMDAT ??_R4CCommonDialog@@6B@
rdata$r	SEGMENT
??_R4CCommonDialog@@6B@ DD 00H				; CCommonDialog::`RTTI Complete Object Locator'
	DD	00H
	DD	00H
	DD	FLAT:??_R0?AVCCommonDialog@@@8
	DD	FLAT:??_R3CCommonDialog@@8
rdata$r	ENDS
;	COMDAT ??_R2CCmdTarget@@8
rdata$r	SEGMENT
??_R2CCmdTarget@@8 DD FLAT:??_R1A@?0A@EA@CCmdTarget@@8	; CCmdTarget::`RTTI Base Class Array'
	DD	FLAT:??_R1A@?0A@EA@CObject@@8
rdata$r	ENDS
;	COMDAT ??_R3CCmdTarget@@8
rdata$r	SEGMENT
??_R3CCmdTarget@@8 DD 00H				; CCmdTarget::`RTTI Class Hierarchy Descriptor'
	DD	00H
	DD	02H
	DD	FLAT:??_R2CCmdTarget@@8
rdata$r	ENDS
;	COMDAT ??_R0?AVCCmdTarget@@@8
data$rs	SEGMENT
??_R0?AVCCmdTarget@@@8 DD FLAT:??_7type_info@@6B@	; CCmdTarget `RTTI Type Descriptor'
	DD	00H
	DB	'.?AVCCmdTarget@@', 00H
data$rs	ENDS
;	COMDAT ??_R1A@?0A@EA@CCmdTarget@@8
rdata$r	SEGMENT
??_R1A@?0A@EA@CCmdTarget@@8 DD FLAT:??_R0?AVCCmdTarget@@@8 ; CCmdTarget::`RTTI Base Class Descriptor at (0,-1,0,64)'
	DD	01H
	DD	00H
	DD	0ffffffffH
	DD	00H
	DD	040H
	DD	FLAT:??_R3CCmdTarget@@8
rdata$r	ENDS
;	COMDAT ??_R2CWnd@@8
rdata$r	SEGMENT
??_R2CWnd@@8 DD	FLAT:??_R1A@?0A@EA@CWnd@@8		; CWnd::`RTTI Base Class Array'
	DD	FLAT:??_R1A@?0A@EA@CCmdTarget@@8
	DD	FLAT:??_R1A@?0A@EA@CObject@@8
rdata$r	ENDS
;	COMDAT ??_R3CWnd@@8
rdata$r	SEGMENT
??_R3CWnd@@8 DD	00H					; CWnd::`RTTI Class Hierarchy Descriptor'
	DD	00H
	DD	03H
	DD	FLAT:??_R2CWnd@@8
rdata$r	ENDS
;	COMDAT ??_R0?AVCWnd@@@8
data$rs	SEGMENT
??_R0?AVCWnd@@@8 DD FLAT:??_7type_info@@6B@		; CWnd `RTTI Type Descriptor'
	DD	00H
	DB	'.?AVCWnd@@', 00H
data$rs	ENDS
;	COMDAT ??_R1A@?0A@EA@CWnd@@8
rdata$r	SEGMENT
??_R1A@?0A@EA@CWnd@@8 DD FLAT:??_R0?AVCWnd@@@8		; CWnd::`RTTI Base Class Descriptor at (0,-1,0,64)'
	DD	02H
	DD	00H
	DD	0ffffffffH
	DD	00H
	DD	040H
	DD	FLAT:??_R3CWnd@@8
rdata$r	ENDS
;	COMDAT ??_R1A@?0A@EA@CObject@@8
rdata$r	SEGMENT
??_R1A@?0A@EA@CObject@@8 DD FLAT:??_R0?AVCObject@@@8	; CObject::`RTTI Base Class Descriptor at (0,-1,0,64)'
	DD	00H
	DD	00H
	DD	0ffffffffH
	DD	00H
	DD	040H
	DD	FLAT:??_R3CObject@@8
rdata$r	ENDS
;	COMDAT ??_R2CObject@@8
rdata$r	SEGMENT
??_R2CObject@@8 DD FLAT:??_R1A@?0A@EA@CObject@@8	; CObject::`RTTI Base Class Array'
rdata$r	ENDS
;	COMDAT ??_R3CObject@@8
rdata$r	SEGMENT
??_R3CObject@@8 DD 00H					; CObject::`RTTI Class Hierarchy Descriptor'
	DD	00H
	DD	01H
	DD	FLAT:??_R2CObject@@8
rdata$r	ENDS
;	COMDAT ??_R0?AVCObject@@@8
data$rs	SEGMENT
??_R0?AVCObject@@@8 DD FLAT:??_7type_info@@6B@		; CObject `RTTI Type Descriptor'
	DD	00H
	DB	'.?AVCObject@@', 00H
data$rs	ENDS
;	COMDAT ??_7CCommonDialog@@6B@
CONST	SEGMENT
??_7CCommonDialog@@6B@ DD FLAT:??_R4CCommonDialog@@6B@	; CCommonDialog::`vftable'
	DD	FLAT:?GetRuntimeClass@CCommonDialog@@UBEPAUCRuntimeClass@@XZ
	DD	FLAT:??_ECCommonDialog@@UAEPAXI@Z
	DD	FLAT:?Serialize@CObject@@UAEXAAVCArchive@@@Z
	DD	FLAT:?AssertValid@CObject@@UBEXXZ
	DD	FLAT:?Dump@CObject@@UBEXAAVCDumpContext@@@Z
	DD	FLAT:?OnCmdMsg@CDialog@@UAEHIHPAXPAUAFX_CMDHANDLERINFO@@@Z
	DD	FLAT:?OnFinalRelease@CWnd@@UAEXXZ
	DD	FLAT:?IsInvokeAllowed@CCmdTarget@@UAEHJ@Z
	DD	FLAT:?GetDispatchIID@CCmdTarget@@UAEHPAU_GUID@@@Z
	DD	FLAT:?GetTypeInfoCount@CCmdTarget@@UAEIXZ
	DD	FLAT:?GetTypeLibCache@CCmdTarget@@UAEPAVCTypeLibCache@@XZ
	DD	FLAT:?GetTypeLib@CCmdTarget@@UAEJKPAPAUITypeLib@@@Z
	DD	FLAT:?GetMessageMap@CCommonDialog@@MBEPBUAFX_MSGMAP@@XZ
	DD	FLAT:?GetCommandMap@CCmdTarget@@MBEPBUAFX_OLECMDMAP@@XZ
	DD	FLAT:?GetDispatchMap@CCmdTarget@@MBEPBUAFX_DISPMAP@@XZ
	DD	FLAT:?GetConnectionMap@CCmdTarget@@MBEPBUAFX_CONNECTIONMAP@@XZ
	DD	FLAT:?GetInterfaceMap@CWnd@@MBEPBUAFX_INTERFACEMAP@@XZ
	DD	FLAT:?GetEventSinkMap@CCmdTarget@@MBEPBUAFX_EVENTSINKMAP@@XZ
	DD	FLAT:?OnCreateAggregates@CCmdTarget@@UAEHXZ
	DD	FLAT:?GetInterfaceHook@CCmdTarget@@UAEPAUIUnknown@@PBX@Z
	DD	FLAT:?GetExtraConnectionPoints@CCmdTarget@@MAEHPAVCPtrArray@@@Z
	DD	FLAT:?GetConnectionHook@CCmdTarget@@MAEPAUIConnectionPoint@@ABU_GUID@@@Z
	DD	FLAT:?PreSubclassWindow@CWnd@@UAEXXZ
	DD	FLAT:?Create@CWnd@@UAEHPBD0KABUtagRECT@@PAV1@IPAUCCreateContext@@@Z
	DD	FLAT:?CreateEx@CWnd@@UAEHKPBD0KABUtagRECT@@PAV1@IPAX@Z
	DD	FLAT:?CreateEx@CWnd@@UAEHKPBD0KHHHHPAUHWND__@@PAUHMENU__@@PAX@Z
	DD	FLAT:?DestroyWindow@CWnd@@UAEHXZ
	DD	FLAT:?PreCreateWindow@CWnd@@UAEHAAUtagCREATESTRUCTA@@@Z
	DD	FLAT:?CalcWindowRect@CWnd@@UAEXPAUtagRECT@@I@Z
	DD	FLAT:?GetMenu@CWnd@@UBEPAVCMenu@@XZ
	DD	FLAT:?SetMenu@CWnd@@UAEHPAVCMenu@@@Z
	DD	FLAT:?OnToolHitTest@CWnd@@UBEHVCPoint@@PAUtagTOOLINFOA@@@Z
	DD	FLAT:?GetScrollBarCtrl@CWnd@@UBEPAVCScrollBar@@H@Z
	DD	FLAT:?WinHelpA@CWnd@@UAEXKI@Z
	DD	FLAT:?HtmlHelpA@CWnd@@UAEXKI@Z
	DD	FLAT:?WinHelpInternal@CWnd@@UAEXKI@Z
	DD	FLAT:?ContinueModal@CWnd@@UAEHXZ
	DD	FLAT:?EndModalLoop@CWnd@@UAEXH@Z
	DD	FLAT:?OnDrawIconicThumbnailOrLivePreview@CWnd@@UAEXAAVCDC@@VCRect@@VCSize@@HAAH@Z
	DD	FLAT:?EnsureStdObj@CWnd@@UAEJXZ
	DD	FLAT:?get_accParent@CWnd@@UAEJPAPAUIDispatch@@@Z
	DD	FLAT:?get_accChildCount@CWnd@@UAEJPAJ@Z
	DD	FLAT:?get_accChild@CWnd@@UAEJUtagVARIANT@@PAPAUIDispatch@@@Z
	DD	FLAT:?get_accName@CWnd@@UAEJUtagVARIANT@@PAPA_W@Z
	DD	FLAT:?get_accValue@CWnd@@UAEJUtagVARIANT@@PAPA_W@Z
	DD	FLAT:?get_accDescription@CWnd@@UAEJUtagVARIANT@@PAPA_W@Z
	DD	FLAT:?get_accRole@CWnd@@UAEJUtagVARIANT@@PAU2@@Z
	DD	FLAT:?get_accState@CWnd@@UAEJUtagVARIANT@@PAU2@@Z
	DD	FLAT:?get_accHelp@CWnd@@UAEJUtagVARIANT@@PAPA_W@Z
	DD	FLAT:?get_accHelpTopic@CWnd@@UAEJPAPA_WUtagVARIANT@@PAJ@Z
	DD	FLAT:?get_accKeyboardShortcut@CWnd@@UAEJUtagVARIANT@@PAPA_W@Z
	DD	FLAT:?get_accFocus@CWnd@@UAEJPAUtagVARIANT@@@Z
	DD	FLAT:?get_accSelection@CWnd@@UAEJPAUtagVARIANT@@@Z
	DD	FLAT:?get_accDefaultAction@CWnd@@UAEJUtagVARIANT@@PAPA_W@Z
	DD	FLAT:?accSelect@CWnd@@UAEJJUtagVARIANT@@@Z
	DD	FLAT:?accLocation@CWnd@@UAEJPAJ000UtagVARIANT@@@Z
	DD	FLAT:?accNavigate@CWnd@@UAEJJUtagVARIANT@@PAU2@@Z
	DD	FLAT:?accHitTest@CWnd@@UAEJJJPAUtagVARIANT@@@Z
	DD	FLAT:?accDoDefaultAction@CWnd@@UAEJUtagVARIANT@@@Z
	DD	FLAT:?put_accName@CWnd@@UAEJUtagVARIANT@@PA_W@Z
	DD	FLAT:?put_accValue@CWnd@@UAEJUtagVARIANT@@PA_W@Z
	DD	FLAT:?SetProxy@CWnd@@UAEJPAUIAccessibleProxy@@@Z
	DD	FLAT:?CreateAccessibleProxy@CWnd@@UAEJIJPAJ@Z
	DD	FLAT:?OnCommand@CWnd@@MAEHIJ@Z
	DD	FLAT:?OnNotify@CWnd@@MAEHIJPAJ@Z
	DD	FLAT:?GetSuperWndProcAddr@CWnd@@MAEPAP6GJPAUHWND__@@IIJ@ZXZ
	DD	FLAT:?DoDataExchange@CWnd@@MAEXPAVCDataExchange@@@Z
	DD	FLAT:?BeginModalState@CWnd@@UAEXXZ
	DD	FLAT:?EndModalState@CWnd@@UAEXXZ
	DD	FLAT:?PreTranslateMessage@CDialog@@UAEHPAUtagMSG@@@Z
	DD	FLAT:?OnAmbientProperty@CWnd@@UAEHPAVCOleControlSite@@JPAUtagVARIANT@@@Z
	DD	FLAT:?WindowProc@CWnd@@MAEJIIJ@Z
	DD	FLAT:?OnWndMsg@CWnd@@MAEHIIJPAJ@Z
	DD	FLAT:?DefWindowProcA@CWnd@@MAEJIIJ@Z
	DD	FLAT:?PostNcDestroy@CWnd@@MAEXXZ
	DD	FLAT:?OnChildNotify@CWnd@@MAEHIIJPAJ@Z
	DD	FLAT:?OnTouchInputs@CWnd@@MAEHIPAUtagTOUCHINPUT@@@Z
	DD	FLAT:?OnTouchInput@CWnd@@MAEHVCPoint@@HHPAUtagTOUCHINPUT@@@Z
	DD	FLAT:?GetGestureStatus@CWnd@@MAEKVCPoint@@@Z
	DD	FLAT:?OnGestureZoom@CWnd@@MAEHVCPoint@@J@Z
	DD	FLAT:?OnGesturePan@CWnd@@MAEHVCPoint@@0@Z
	DD	FLAT:?OnGestureRotate@CWnd@@MAEHVCPoint@@N@Z
	DD	FLAT:?OnGestureTwoFingerTap@CWnd@@MAEHVCPoint@@@Z
	DD	FLAT:?OnGesturePressAndTap@CWnd@@MAEHVCPoint@@J@Z
	DD	FLAT:?ResizeDynamicLayout@CWnd@@MAEXXZ
	DD	FLAT:?CheckAutoCenter@CDialog@@UAEHXZ
	DD	FLAT:?IsFrameWnd@CWnd@@UBEHXZ
	DD	FLAT:?CreateControlContainer@CWnd@@MAEHPAPAVCOleControlContainer@@@Z
	DD	FLAT:?CreateControlSite@CWnd@@MAEHPAVCOleControlContainer@@PAPAVCOleControlSite@@IABU_GUID@@@Z
	DD	FLAT:?SetOccDialogInfo@CDialog@@MAEHPAU_AFX_OCC_DIALOG_INFO@@@Z
	DD	FLAT:?GetOccDialogInfo@CDialog@@MAEPAU_AFX_OCC_DIALOG_INFO@@XZ
	DD	FLAT:?Create@CDialog@@UAEHIPAVCWnd@@@Z
	DD	FLAT:?Create@CDialog@@UAEHPBDPAVCWnd@@@Z
	DD	FLAT:?CreateIndirect@CDialog@@UAEHPAXPAVCWnd@@@Z
	DD	FLAT:?CreateIndirect@CDialog@@UAEHPBUDLGTEMPLATE@@PAVCWnd@@PAX@Z
	DD	FLAT:?DoModal@CDialog@@UAEHXZ
	DD	FLAT:?OnInitDialog@CDialog@@UAEHXZ
	DD	FLAT:?OnSetFont@CDialog@@UAEXPAVCFont@@@Z
	DD	FLAT:?OnOK@CCommonDialog@@MAEXXZ
	DD	FLAT:?OnCancel@CCommonDialog@@MAEXXZ
	DD	FLAT:?PreInitDialog@CDialog@@MAEXXZ
CONST	ENDS
;	COMDAT ??_C@_00CNPNBAHC@@
CONST	SEGMENT
??_C@_00CNPNBAHC@@ DB 00H				; `string'
CONST	ENDS
;	COMDAT xdata$x
xdata$x	SEGMENT
__unwindtable$?OnBtnColor@CSetting_Special_Type_B@@IAEXXZ DD 0ffffffffH
	DD	FLAT:__unwindfunclet$?OnBtnColor@CSetting_Special_Type_B@@IAEXXZ$0
__ehfuncinfo$?OnBtnColor@CSetting_Special_Type_B@@IAEXXZ DD 019930522H
	DD	01H
	DD	FLAT:__unwindtable$?OnBtnColor@CSetting_Special_Type_B@@IAEXXZ
	DD	2 DUP(00H)
	DD	2 DUP(00H)
	DD	00H
	DD	01H
xdata$x	ENDS
;	COMDAT xdata$x
xdata$x	SEGMENT
__unwindtable$?Initial@CSetting_Special_Type_B@@UAEXPAUIGraphInfo135914@@@Z DD 0ffffffffH
	DD	FLAT:__unwindfunclet$?Initial@CSetting_Special_Type_B@@UAEXPAUIGraphInfo135914@@@Z$0
	DD	00H
	DD	FLAT:__unwindfunclet$?Initial@CSetting_Special_Type_B@@UAEXPAUIGraphInfo135914@@@Z$1
	DD	00H
	DD	FLAT:__unwindfunclet$?Initial@CSetting_Special_Type_B@@UAEXPAUIGraphInfo135914@@@Z$2
	DD	0ffffffffH
	DD	FLAT:___std_terminate
__ehfuncinfo$?Initial@CSetting_Special_Type_B@@UAEXPAUIGraphInfo135914@@@Z DD 019930522H
	DD	04H
	DD	FLAT:__unwindtable$?Initial@CSetting_Special_Type_B@@UAEXPAUIGraphInfo135914@@@Z
	DD	2 DUP(00H)
	DD	2 DUP(00H)
	DD	00H
	DD	01H
xdata$x	ENDS
;	COMDAT xdata$x
xdata$x	SEGMENT
__unwindtable$??0CSetting_Special_Type_B@@QAE@PAUIChartOCX135914@@PAVCWnd@@1@Z DD 0ffffffffH
	DD	FLAT:__unwindfunclet$??0CSetting_Special_Type_B@@QAE@PAUIChartOCX135914@@PAVCWnd@@1@Z$0
	DD	00H
	DD	FLAT:__unwindfunclet$??0CSetting_Special_Type_B@@QAE@PAUIChartOCX135914@@PAVCWnd@@1@Z$1
	DD	01H
	DD	FLAT:__unwindfunclet$??0CSetting_Special_Type_B@@QAE@PAUIChartOCX135914@@PAVCWnd@@1@Z$2
	DD	02H
	DD	FLAT:__unwindfunclet$??0CSetting_Special_Type_B@@QAE@PAUIChartOCX135914@@PAVCWnd@@1@Z$3
__ehfuncinfo$??0CSetting_Special_Type_B@@QAE@PAUIChartOCX135914@@PAVCWnd@@1@Z DD 019930522H
	DD	04H
	DD	FLAT:__unwindtable$??0CSetting_Special_Type_B@@QAE@PAUIChartOCX135914@@PAVCWnd@@1@Z
	DD	2 DUP(00H)
	DD	2 DUP(00H)
	DD	00H
	DD	01H
xdata$x	ENDS
;	COMDAT xdata$x
xdata$x	SEGMENT
__ehfuncinfo$??1ILPCSTR135914@@QAE@XZ DD 019930522H
	DD	00H
	DD	00H
	DD	2 DUP(00H)
	DD	2 DUP(00H)
	DD	00H
	DD	05H
xdata$x	ENDS
; Function compile flags: /Ogtp
; File D:\git\src\IBK\IBK_DRFN\ProjSrc\SrcChartEx\ChartAddIn\ChartEnvSetupDlgAddIn\ChartEnvSetupDlgAddIn\Setting_Special_Type_B.cpp
; File C:\Program Files (x86)\Microsoft Visual Studio\2019\Community\VC\Tools\MSVC\14.29.30133\atlmfc\include\afx.inl
;	COMDAT ??_GCSetting_Special_Type_B@@UAEPAXI@Z
_TEXT	SEGMENT
___flags$ = 8						; size = 4
??_GCSetting_Special_Type_B@@UAEPAXI@Z PROC		; CSetting_Special_Type_B::`scalar deleting destructor', COMDAT
; _this$ = ecx
  00000	55		 push	 ebp
  00001	8b ec		 mov	 ebp, esp
; File D:\git\src\IBK\IBK_DRFN\ProjSrc\SrcChartEx\ChartAddIn\ChartEnvSetupDlgAddIn\ChartEnvSetupDlgAddIn\Setting_Special_Type_B.cpp

; 48   : {

  00003	56		 push	 esi
  00004	8b f1		 mov	 esi, ecx

; 49   : }

  00006	8d 8e 08 02 00
	00		 lea	 ecx, DWORD PTR [esi+520]
  0000c	c7 06 00 00 00
	00		 mov	 DWORD PTR [esi], OFFSET ??_7CSetting_Special_Type_B@@6B@
  00012	ff 15 00 00 00
	00		 call	 DWORD PTR __imp_??1?$CStringT@DV?$StrTraitMFC_DLL@DV?$ChTraitsCRT@D@ATL@@@@@ATL@@QAE@XZ
  00018	8d 8e 80 01 00
	00		 lea	 ecx, DWORD PTR [esi+384]
  0001e	e8 00 00 00 00	 call	 ??1CColorButton@@UAE@XZ	; CColorButton::~CColorButton
  00023	8d 8e f8 00 00
	00		 lea	 ecx, DWORD PTR [esi+248]
  00029	e8 00 00 00 00	 call	 ??1CBitmapItemComboBox@@UAE@XZ ; CBitmapItemComboBox::~CBitmapItemComboBox
  0002e	8b ce		 mov	 ecx, esi
  00030	e8 00 00 00 00	 call	 ??1CBaseDialog@@UAE@XZ	; CBaseDialog::~CBaseDialog
  00035	8b 45 08	 mov	 eax, DWORD PTR ___flags$[ebp]
  00038	a8 01		 test	 al, 1
  0003a	74 22		 je	 SHORT $LN12@scalar
  0003c	a8 04		 test	 al, 4
  0003e	75 10		 jne	 SHORT $LN3@scalar
; File C:\Program Files (x86)\Microsoft Visual Studio\2019\Community\VC\Tools\MSVC\14.29.30133\atlmfc\include\afx.inl

; 112  : 	{ ::operator delete(p); }

  00040	56		 push	 esi
  00041	e8 00 00 00 00	 call	 ??3@YAXPAX@Z		; operator delete
  00046	83 c4 04	 add	 esp, 4
  00049	8b c6		 mov	 eax, esi
  0004b	5e		 pop	 esi
  0004c	5d		 pop	 ebp
  0004d	c2 04 00	 ret	 4
$LN3@scalar:
  00050	68 10 02 00 00	 push	 528			; 00000210H
  00055	56		 push	 esi
  00056	e8 00 00 00 00	 call	 ?__global_delete@@YAXPAXI@Z ; __global_delete
  0005b	83 c4 08	 add	 esp, 8
$LN12@scalar:
  0005e	8b c6		 mov	 eax, esi
  00060	5e		 pop	 esi
  00061	5d		 pop	 ebp
  00062	c2 04 00	 ret	 4
??_GCSetting_Special_Type_B@@UAEPAXI@Z ENDP		; CSetting_Special_Type_B::`scalar deleting destructor'
_TEXT	ENDS
; Function compile flags: /Ogtp
; File D:\git\src\IBK\IBK_DRFN\ProjSrc\SrcChartEx\ChartAddIn\ChartEnvSetupDlgAddIn\ChartEnvSetupDlgAddIn\Setting_Special_Type_B.cpp
;	COMDAT ?GetMessageMap@CSetting_Special_Type_B@@MBEPBUAFX_MSGMAP@@XZ
_TEXT	SEGMENT
?GetMessageMap@CSetting_Special_Type_B@@MBEPBUAFX_MSGMAP@@XZ PROC ; CSetting_Special_Type_B::GetMessageMap, COMDAT
; _this$ = ecx

; 64   : BEGIN_MESSAGE_MAP(CSetting_Special_Type_B, CBaseDialog)

  00000	b8 00 00 00 00	 mov	 eax, OFFSET ?messageMap@?1??GetThisMessageMap@CSetting_Special_Type_B@@KGPBUAFX_MSGMAP@@XZ@4U3@B
  00005	c3		 ret	 0
?GetMessageMap@CSetting_Special_Type_B@@MBEPBUAFX_MSGMAP@@XZ ENDP ; CSetting_Special_Type_B::GetMessageMap
_TEXT	ENDS
; Function compile flags: /Ogtp
; File D:\git\src\IBK\IBK_DRFN\ProjSrc\SrcChartEx\ChartAddIn\ChartEnvSetupDlgAddIn\ChartEnvSetupDlgAddIn\Setting_Special_Type_B.cpp
;	COMDAT ?GetThisMessageMap@CSetting_Special_Type_B@@KGPBUAFX_MSGMAP@@XZ
_TEXT	SEGMENT
?GetThisMessageMap@CSetting_Special_Type_B@@KGPBUAFX_MSGMAP@@XZ PROC ; CSetting_Special_Type_B::GetThisMessageMap, COMDAT

; 65   : 	//{{AFX_MSG_MAP(CSetting_Special_Type_B)
; 66   : 	ON_BN_CLICKED(IDC_BTN_COLOR, OnBtnColor)
; 67   : 	//}}AFX_MSG_MAP
; 68   : END_MESSAGE_MAP()

  00000	b8 00 00 00 00	 mov	 eax, OFFSET ?messageMap@?1??GetThisMessageMap@CSetting_Special_Type_B@@KGPBUAFX_MSGMAP@@XZ@4U3@B
  00005	c3		 ret	 0
?GetThisMessageMap@CSetting_Special_Type_B@@KGPBUAFX_MSGMAP@@XZ ENDP ; CSetting_Special_Type_B::GetThisMessageMap
_TEXT	ENDS
; Function compile flags: /Ogtp
; File D:\git\src\IBK\IBK_DRFN\ProjSrc\SrcChartEx\ChartAddIn\ChartEnvSetupDlgAddIn\ChartEnvSetupDlgAddIn\Setting_Special_Type_B.cpp
; File C:\Program Files (x86)\Microsoft Visual Studio\2019\Community\VC\Tools\MSVC\14.29.30133\atlmfc\include\afxwin2.inl
; File C:\Program Files (x86)\Microsoft Visual Studio\2019\Community\VC\Tools\MSVC\14.29.30133\atlmfc\include\afxdlgs.h
; File D:\git\src\IBK\IBK_DRFN\ProjSrc\SrcChartEx\ChartAddIn\ChartEnvSetupDlgAddIn\ChartEnvSetupDlgAddIn\Setting_Special_Type_B.cpp
;	COMDAT ?OnBtnColor@CSetting_Special_Type_B@@IAEXXZ
_TEXT	SEGMENT
_color$ = -224						; size = 208
$T2 = -16						; size = 4
__$EHRec$ = -12						; size = 12
?OnBtnColor@CSetting_Special_Type_B@@IAEXXZ PROC	; CSetting_Special_Type_B::OnBtnColor, COMDAT
; _this$ = ecx

; 226  : {

  00000	55		 push	 ebp
  00001	8b ec		 mov	 ebp, esp
  00003	6a ff		 push	 -1
  00005	68 00 00 00 00	 push	 __ehhandler$?OnBtnColor@CSetting_Special_Type_B@@IAEXXZ
  0000a	64 a1 00 00 00
	00		 mov	 eax, DWORD PTR fs:0
  00010	50		 push	 eax
  00011	81 ec d4 00 00
	00		 sub	 esp, 212		; 000000d4H
  00017	56		 push	 esi
  00018	57		 push	 edi
  00019	a1 00 00 00 00	 mov	 eax, DWORD PTR ___security_cookie
  0001e	33 c5		 xor	 eax, ebp
  00020	50		 push	 eax
  00021	8d 45 f4	 lea	 eax, DWORD PTR __$EHRec$[ebp]
  00024	64 a3 00 00 00
	00		 mov	 DWORD PTR fs:0, eax
  0002a	8b f1		 mov	 esi, ecx

; 227  : 	// TODO: Add your control notification handler code here
; 228  : 	if(m_nSubGraphIndex < 0) return;

  0002c	83 be 0c 02 00
	00 00		 cmp	 DWORD PTR [esi+524], 0
  00033	0f 8c a8 00 00
	00		 jl	 $LN12@OnBtnColor

; 229  : 	
; 230  : 	COLORREF crColor = m_btnColorBtn.GetColor();

  00039	8d 8e 80 01 00
	00		 lea	 ecx, DWORD PTR [esi+384]
  0003f	e8 00 00 00 00	 call	 ?GetColor@CColorButton@@QAEKXZ ; CColorButton::GetColor

; 231  : 	CColorDialog color(crColor, CC_FULLOPEN);

  00044	6a 00		 push	 0
  00046	6a 02		 push	 2
  00048	50		 push	 eax
  00049	8d 8d 20 ff ff
	ff		 lea	 ecx, DWORD PTR _color$[ebp]
  0004f	e8 00 00 00 00	 call	 ??0CColorDialog@@QAE@KKPAVCWnd@@@Z ; CColorDialog::CColorDialog

; 232  : 	if(color.DoModal() == IDOK) 

  00054	8d 8d 20 ff ff
	ff		 lea	 ecx, DWORD PTR _color$[ebp]
  0005a	c7 45 fc 00 00
	00 00		 mov	 DWORD PTR __$EHRec$[ebp+8], 0
  00061	e8 00 00 00 00	 call	 ?DoModal@CColorDialog@@UAEHXZ ; CColorDialog::DoModal
  00066	83 f8 01	 cmp	 eax, 1
  00069	75 61		 jne	 SHORT $LN3@OnBtnColor

; 233  : 	{
; 234  : 		m_pIGraphInfo->SetSubGraphColor( m_nSubGraphIndex, 1, color.GetColor());

  0006b	8b 8e c4 00 00
	00		 mov	 ecx, DWORD PTR [esi+196]
  00071	ff 75 d4	 push	 DWORD PTR _color$[ebp+180]
  00074	6a 01		 push	 1
  00076	8b 01		 mov	 eax, DWORD PTR [ecx]
  00078	ff b6 0c 02 00
	00		 push	 DWORD PTR [esi+524]
  0007e	ff 50 6c	 call	 DWORD PTR [eax+108]

; 235  : 		m_pIGraphInfo->SetSubGraphColor( m_nSubGraphIndex, 2, color.GetColor());

  00081	8b 8e c4 00 00
	00		 mov	 ecx, DWORD PTR [esi+196]
  00087	ff 75 d4	 push	 DWORD PTR _color$[ebp+180]
  0008a	6a 02		 push	 2
  0008c	8b 01		 mov	 eax, DWORD PTR [ecx]
  0008e	ff b6 0c 02 00
	00		 push	 DWORD PTR [esi+524]
  00094	ff 50 6c	 call	 DWORD PTR [eax+108]

; 236  : 		m_btnColorBtn.SetColor( m_pIGraphInfo->GetSubGraphColor( m_nSubGraphIndex, 1));

  00097	8b 8e c4 00 00
	00		 mov	 ecx, DWORD PTR [esi+196]
  0009d	6a 01		 push	 1
  0009f	ff b6 0c 02 00
	00		 push	 DWORD PTR [esi+524]
  000a5	8b 01		 mov	 eax, DWORD PTR [ecx]
  000a7	ff 50 64	 call	 DWORD PTR [eax+100]
  000aa	89 45 f0	 mov	 DWORD PTR $T2[ebp], eax
  000ad	8d 8e 80 01 00
	00		 lea	 ecx, DWORD PTR [esi+384]
  000b3	8d 45 f0	 lea	 eax, DWORD PTR $T2[ebp]
  000b6	50		 push	 eax
  000b7	e8 00 00 00 00	 call	 ?SetColor@CColorButton@@QAEXABK@Z ; CColorButton::SetColor
; File C:\Program Files (x86)\Microsoft Visual Studio\2019\Community\VC\Tools\MSVC\14.29.30133\atlmfc\include\afxwin2.inl

; 114  : 	{ ASSERT(::IsWindow(m_hWnd)); ::InvalidateRect(m_hWnd, NULL, bErase); }

  000bc	6a 01		 push	 1
  000be	6a 00		 push	 0
  000c0	ff b6 a0 01 00
	00		 push	 DWORD PTR [esi+416]
  000c6	ff 15 00 00 00
	00		 call	 DWORD PTR __imp__InvalidateRect@12
$LN3@OnBtnColor:
; File C:\Program Files (x86)\Microsoft Visual Studio\2019\Community\VC\Tools\MSVC\14.29.30133\atlmfc\include\afxdlgs.h

; 110  :     virtual ~CCommonDialog() {};

  000cc	8d 8d 20 ff ff
	ff		 lea	 ecx, DWORD PTR _color$[ebp]
  000d2	c7 85 20 ff ff
	ff 00 00 00 00	 mov	 DWORD PTR _color$[ebp], OFFSET ??_7CCommonDialog@@6B@
  000dc	e8 00 00 00 00	 call	 ??1CDialog@@UAE@XZ	; CDialog::~CDialog
$LN12@OnBtnColor:
; File D:\git\src\IBK\IBK_DRFN\ProjSrc\SrcChartEx\ChartAddIn\ChartEnvSetupDlgAddIn\ChartEnvSetupDlgAddIn\Setting_Special_Type_B.cpp

; 239  : }

  000e1	8b 4d f4	 mov	 ecx, DWORD PTR __$EHRec$[ebp]
  000e4	64 89 0d 00 00
	00 00		 mov	 DWORD PTR fs:0, ecx
  000eb	59		 pop	 ecx
  000ec	5f		 pop	 edi
  000ed	5e		 pop	 esi
  000ee	8b e5		 mov	 esp, ebp
  000f0	5d		 pop	 ebp
  000f1	c3		 ret	 0
_TEXT	ENDS
;	COMDAT text$x
text$x	SEGMENT
__unwindfunclet$?OnBtnColor@CSetting_Special_Type_B@@IAEXXZ$0:
  00000	8d 8d 20 ff ff
	ff		 lea	 ecx, DWORD PTR _color$[ebp]
  00006	e9 00 00 00 00	 jmp	 ??1CColorDialog@@UAE@XZ
  0000b	cc		 int	 3
  0000c	cc		 int	 3
  0000d	cc		 int	 3
  0000e	cc		 int	 3
  0000f	cc		 int	 3
__ehhandler$?OnBtnColor@CSetting_Special_Type_B@@IAEXXZ:
  00010	90		 npad	 1
  00011	90		 npad	 1
  00012	8b 54 24 08	 mov	 edx, DWORD PTR [esp+8]
  00016	8d 42 0c	 lea	 eax, DWORD PTR [edx+12]
  00019	8b 8a 20 ff ff
	ff		 mov	 ecx, DWORD PTR [edx-224]
  0001f	33 c8		 xor	 ecx, eax
  00021	e8 00 00 00 00	 call	 @__security_check_cookie@4
  00026	b8 00 00 00 00	 mov	 eax, OFFSET __ehfuncinfo$?OnBtnColor@CSetting_Special_Type_B@@IAEXXZ
  0002b	e9 00 00 00 00	 jmp	 ___CxxFrameHandler3
text$x	ENDS
?OnBtnColor@CSetting_Special_Type_B@@IAEXXZ ENDP	; CSetting_Special_Type_B::OnBtnColor
; Function compile flags: /Ogtp
; File D:\git\src\IBK\IBK_DRFN\ProjSrc\SrcChartEx\ChartAddIn\ChartEnvSetupDlgAddIn\ChartEnvSetupDlgAddIn\Setting_Special_Type_B.cpp
;	COMDAT ?OnInitDialog@CSetting_Special_Type_B@@MAEHXZ
_TEXT	SEGMENT
?OnInitDialog@CSetting_Special_Type_B@@MAEHXZ PROC	; CSetting_Special_Type_B::OnInitDialog, COMDAT
; _this$ = ecx

; 79   : {

  00000	56		 push	 esi
  00001	8b f1		 mov	 esi, ecx

; 80   : 	CDialog::OnInitDialog();

  00003	e8 00 00 00 00	 call	 ?OnInitDialog@CDialog@@UAEHXZ ; CDialog::OnInitDialog

; 81   : 	
; 82   : 	// TODO: Add extra initialization here
; 83   : 	if( !m_pIGraphInfo) return TRUE;

  00008	83 be c4 00 00
	00 00		 cmp	 DWORD PTR [esi+196], 0
  0000f	74 0c		 je	 SHORT $LN4@OnInitDial

; 84   : 	Initial( NULL);

  00011	8b 06		 mov	 eax, DWORD PTR [esi]
  00013	8b ce		 mov	 ecx, esi
  00015	6a 00		 push	 0
  00017	ff 90 94 01 00
	00		 call	 DWORD PTR [eax+404]
$LN4@OnInitDial:

; 85   : 
; 86   : 	return TRUE;  // return TRUE unless you set the focus to a control
; 87   : 	              // EXCEPTION: OCX Property Pages should return FALSE
; 88   : }

  0001d	b8 01 00 00 00	 mov	 eax, 1
  00022	5e		 pop	 esi
  00023	c3		 ret	 0
?OnInitDialog@CSetting_Special_Type_B@@MAEHXZ ENDP	; CSetting_Special_Type_B::OnInitDialog
_TEXT	ENDS
; Function compile flags: /Ogtp
; File D:\git\src\IBK\IBK_DRFN\ProjSrc\SrcChartEx\ChartAddIn\ChartEnvSetupDlgAddIn\ChartEnvSetupDlgAddIn\Setting_Special_Type_B.cpp
;	COMDAT ?DoDataExchange@CSetting_Special_Type_B@@MAEXPAVCDataExchange@@@Z
_TEXT	SEGMENT
_pDX$ = 8						; size = 4
?DoDataExchange@CSetting_Special_Type_B@@MAEXPAVCDataExchange@@@Z PROC ; CSetting_Special_Type_B::DoDataExchange, COMDAT
; _this$ = ecx

; 54   : {

  00000	55		 push	 ebp
  00001	8b ec		 mov	 ebp, esp
  00003	56		 push	 esi

; 55   : 	CDialog::DoDataExchange(pDX);
; 56   : 	//{{AFX_DATA_MAP(CSetting_Special_Type_B)
; 57   : 	DDX_Control(pDX, IDC_THICKNESS, m_cmbThickness);

  00004	8b 75 08	 mov	 esi, DWORD PTR _pDX$[ebp]
  00007	57		 push	 edi
  00008	8b f9		 mov	 edi, ecx
  0000a	8d 87 f8 00 00
	00		 lea	 eax, DWORD PTR [edi+248]
  00010	50		 push	 eax
  00011	68 fe 03 00 00	 push	 1022			; 000003feH
  00016	56		 push	 esi
  00017	e8 00 00 00 00	 call	 ?DDX_Control@@YGXPAVCDataExchange@@HAAVCWnd@@@Z ; DDX_Control

; 58   : 	DDX_Control(pDX, IDC_BTN_COLOR, m_btnColorBtn);

  0001c	8d 87 80 01 00
	00		 lea	 eax, DWORD PTR [edi+384]
  00022	50		 push	 eax
  00023	68 0c 18 00 00	 push	 6156			; 0000180cH
  00028	56		 push	 esi
  00029	e8 00 00 00 00	 call	 ?DDX_Control@@YGXPAVCDataExchange@@HAAVCWnd@@@Z ; DDX_Control

; 59   : 	DDX_Text(pDX, IDC_EDIT_BLOCKCHANGE, m_strBlockChange);

  0002e	8d 87 08 02 00
	00		 lea	 eax, DWORD PTR [edi+520]
  00034	50		 push	 eax
  00035	68 19 18 00 00	 push	 6169			; 00001819H
  0003a	56		 push	 esi
  0003b	e8 00 00 00 00	 call	 ?DDX_Text@@YGXPAVCDataExchange@@HAAV?$CStringT@DV?$StrTraitMFC_DLL@DV?$ChTraitsCRT@D@ATL@@@@@ATL@@@Z ; DDX_Text
  00040	5f		 pop	 edi
  00041	5e		 pop	 esi

; 60   : 	//}}AFX_DATA_MAP
; 61   : }

  00042	5d		 pop	 ebp
  00043	c2 04 00	 ret	 4
?DoDataExchange@CSetting_Special_Type_B@@MAEXPAVCDataExchange@@@Z ENDP ; CSetting_Special_Type_B::DoDataExchange
_TEXT	ENDS
; Function compile flags: /Ogtp
; File D:\git\src\IBK\IBK_DRFN\ProjSrc\SrcChartEx\ChartAddIn\ChartEnvSetupDlgAddIn\ChartEnvSetupDlgAddIn\Setting_Special_Type_B.cpp
; File D:\git\src\IBK\IBK_DRFN\ProjSrc\SrcChartEx\ChartAddIn\ChartEnvSetupDlgAddIn\ChartEnvSetupDlgAddIn\DlgEnvSetUpAll.h
; File D:\git\src\IBK\IBK_DRFN\ProjSrc\SrcChartEx\ChartAddIn\ChartEnvSetupDlgAddIn\ChartEnvSetupDlgAddIn\Setting_Special_Type_B.cpp
; File D:\git\src\IBK\IBK_DRFN\ProjSrc\SrcChartEx\ChartAddIn\ChartEnvSetupDlgAddIn\ChartEnvSetupDlgAddIn\GraphSetting.h
; File D:\git\src\IBK\IBK_DRFN\ProjSrc\SrcChartEx\ChartAddIn\ChartEnvSetupDlgAddIn\ChartEnvSetupDlgAddIn\Setting_Special_Type_B.cpp
; File D:\git\src\IBK\IBK_DRFN\ProjSrc\SrcChartEx\ChartAddIn\ChartEnvSetupDlgAddIn\ChartEnvSetupDlgAddIn\DlgEnvSetUpAll.h
; File D:\git\src\IBK\IBK_DRFN\ProjSrc\SrcChartEx\ChartAddIn\ChartEnvSetupDlgAddIn\ChartEnvSetupDlgAddIn\Setting_Special_Type_B.cpp
; File D:\git\src\IBK\IBK_DRFN\ProjSrc\SrcChartEx\ChartAddIn\ChartEnvSetupDlgAddIn\ChartEnvSetupDlgAddIn\GraphSetting.h
; File D:\git\src\IBK\IBK_DRFN\ProjSrc\SrcChartEx\ChartAddIn\ChartEnvSetupDlgAddIn\ChartEnvSetupDlgAddIn\Setting_Special_Type_B.cpp
;	COMDAT ?PreTranslateMessage@CSetting_Special_Type_B@@UAEHPAUtagMSG@@@Z
_TEXT	SEGMENT
_pMsg$ = 8						; size = 4
?PreTranslateMessage@CSetting_Special_Type_B@@UAEHPAUtagMSG@@@Z PROC ; CSetting_Special_Type_B::PreTranslateMessage, COMDAT
; _this$ = ecx

; 242  : {

  00000	55		 push	 ebp
  00001	8b ec		 mov	 ebp, esp
  00003	56		 push	 esi
  00004	57		 push	 edi

; 243  : 	// TODO: Add your specialized code here and/or call the base class
; 244  : 	if(pMsg->message == WM_KEYDOWN)

  00005	8b 7d 08	 mov	 edi, DWORD PTR _pMsg$[ebp]
  00008	8b f1		 mov	 esi, ecx
  0000a	81 7f 04 00 01
	00 00		 cmp	 DWORD PTR [edi+4], 256	; 00000100H
  00011	75 62		 jne	 SHORT $LN10@PreTransla

; 245  : 	{
; 246  : 		if(pMsg->wParam == VK_RETURN)

  00013	83 7f 08 0d	 cmp	 DWORD PTR [edi+8], 13	; 0000000dH
  00017	75 22		 jne	 SHORT $LN6@PreTransla

; 247  : 		{
; 248  : 			if( m_pParentWnd != NULL )

  00019	8b 8e 94 00 00
	00		 mov	 ecx, DWORD PTR [esi+148]
  0001f	85 c9		 test	 ecx, ecx
  00021	74 18		 je	 SHORT $LN6@PreTransla

; 249  : 			{
; 250  : 				if( m_pTopWnd != NULL )

  00023	8b 96 d0 00 00
	00		 mov	 edx, DWORD PTR [esi+208]
  00029	85 d2		 test	 edx, edx
  0002b	74 06		 je	 SHORT $LN5@PreTransla
; File D:\git\src\IBK\IBK_DRFN\ProjSrc\SrcChartEx\ChartAddIn\ChartEnvSetupDlgAddIn\ChartEnvSetupDlgAddIn\DlgEnvSetUpAll.h

; 60   : 	void OK( void )			{ OnOK(); };

  0002d	8b 02		 mov	 eax, DWORD PTR [edx]
  0002f	8b ca		 mov	 ecx, edx
; File D:\git\src\IBK\IBK_DRFN\ProjSrc\SrcChartEx\ChartAddIn\ChartEnvSetupDlgAddIn\ChartEnvSetupDlgAddIn\Setting_Special_Type_B.cpp

; 251  : 					( (CDlgEnvSetUpAll *)m_pTopWnd)->OK();

  00031	eb 02		 jmp	 SHORT $LN20@PreTransla
$LN5@PreTransla:
; File D:\git\src\IBK\IBK_DRFN\ProjSrc\SrcChartEx\ChartAddIn\ChartEnvSetupDlgAddIn\ChartEnvSetupDlgAddIn\GraphSetting.h

; 36   : 	void OK( void )			{ OnOK(); };

  00033	8b 01		 mov	 eax, DWORD PTR [ecx]
$LN20@PreTransla:
; File D:\git\src\IBK\IBK_DRFN\ProjSrc\SrcChartEx\ChartAddIn\ChartEnvSetupDlgAddIn\ChartEnvSetupDlgAddIn\Setting_Special_Type_B.cpp

; 259  : 		if( pMsg->wParam == VK_ESCAPE )

  00035	ff 90 88 01 00
	00		 call	 DWORD PTR [eax+392]
$LN6@PreTransla:
  0003b	83 7f 08 1b	 cmp	 DWORD PTR [edi+8], 27	; 0000001bH
  0003f	75 34		 jne	 SHORT $LN10@PreTransla

; 260  : 		{
; 261  : 			if( m_pParentWnd != NULL )

  00041	8b 8e 94 00 00
	00		 mov	 ecx, DWORD PTR [esi+148]
  00047	85 c9		 test	 ecx, ecx
  00049	74 2a		 je	 SHORT $LN10@PreTransla

; 262  : 			{
; 263  : 				if( m_pTopWnd != NULL )

  0004b	8b 96 d0 00 00
	00		 mov	 edx, DWORD PTR [esi+208]
  00051	85 d2		 test	 edx, edx
  00053	74 18		 je	 SHORT $LN9@PreTransla
; File D:\git\src\IBK\IBK_DRFN\ProjSrc\SrcChartEx\ChartAddIn\ChartEnvSetupDlgAddIn\ChartEnvSetupDlgAddIn\DlgEnvSetUpAll.h

; 61   : 	void Cancel( void )		{ OnCancel(); };

  00055	8b 02		 mov	 eax, DWORD PTR [edx]
  00057	8b ca		 mov	 ecx, edx
; File D:\git\src\IBK\IBK_DRFN\ProjSrc\SrcChartEx\ChartAddIn\ChartEnvSetupDlgAddIn\ChartEnvSetupDlgAddIn\Setting_Special_Type_B.cpp

; 272  : 	return CBaseDialog::PreTranslateMessage(pMsg);

  00059	ff 90 8c 01 00
	00		 call	 DWORD PTR [eax+396]
  0005f	57		 push	 edi
  00060	8b ce		 mov	 ecx, esi
  00062	e8 00 00 00 00	 call	 ?PreTranslateMessage@CDialog@@UAEHPAUtagMSG@@@Z ; CDialog::PreTranslateMessage
  00067	5f		 pop	 edi
  00068	5e		 pop	 esi

; 273  : }

  00069	5d		 pop	 ebp
  0006a	c2 04 00	 ret	 4
$LN9@PreTransla:
; File D:\git\src\IBK\IBK_DRFN\ProjSrc\SrcChartEx\ChartAddIn\ChartEnvSetupDlgAddIn\ChartEnvSetupDlgAddIn\GraphSetting.h

; 37   : 	void Cancel( void )		{ OnCancel(); };

  0006d	8b 01		 mov	 eax, DWORD PTR [ecx]
; File D:\git\src\IBK\IBK_DRFN\ProjSrc\SrcChartEx\ChartAddIn\ChartEnvSetupDlgAddIn\ChartEnvSetupDlgAddIn\Setting_Special_Type_B.cpp

; 272  : 	return CBaseDialog::PreTranslateMessage(pMsg);

  0006f	ff 90 8c 01 00
	00		 call	 DWORD PTR [eax+396]
$LN10@PreTransla:
  00075	57		 push	 edi
  00076	8b ce		 mov	 ecx, esi
  00078	e8 00 00 00 00	 call	 ?PreTranslateMessage@CDialog@@UAEHPAUtagMSG@@@Z ; CDialog::PreTranslateMessage
  0007d	5f		 pop	 edi
  0007e	5e		 pop	 esi

; 273  : }

  0007f	5d		 pop	 ebp
  00080	c2 04 00	 ret	 4
?PreTranslateMessage@CSetting_Special_Type_B@@UAEHPAUtagMSG@@@Z ENDP ; CSetting_Special_Type_B::PreTranslateMessage
_TEXT	ENDS
; Function compile flags: /Ogtp
; File D:\git\src\IBK\IBK_DRFN\ProjSrc\SrcChartEx\ChartAddIn\ChartEnvSetupDlgAddIn\ChartEnvSetupDlgAddIn\Setting_Special_Type_B.cpp
;	COMDAT ?OnApply@CSetting_Special_Type_B@@UAEHPAUIGraphInfo135914@@@Z
_TEXT	SEGMENT
_psnCnd$1$ = -4						; size = 4
_pICalCndOrg$1$ = 8					; size = 4
_p_pIGraphInfo$ = 8					; size = 4
?OnApply@CSetting_Special_Type_B@@UAEHPAUIGraphInfo135914@@@Z PROC ; CSetting_Special_Type_B::OnApply, COMDAT
; _this$ = ecx

; 183  : {

  00000	55		 push	 ebp
  00001	8b ec		 mov	 ebp, esp
  00003	51		 push	 ecx
  00004	56		 push	 esi

; 184  : 	if(p_pIGraphInfo == NULL)

  00005	8b 75 08	 mov	 esi, DWORD PTR _p_pIGraphInfo$[ebp]
  00008	57		 push	 edi
  00009	8b f9		 mov	 edi, ecx
  0000b	85 f6		 test	 esi, esi
  0000d	75 0a		 jne	 SHORT $LN2@OnApply

; 185  : 		return FALSE;

  0000f	5f		 pop	 edi
  00010	33 c0		 xor	 eax, eax

; 218  : }

  00012	5e		 pop	 esi
  00013	8b e5		 mov	 esp, ebp
  00015	5d		 pop	 ebp
  00016	c2 04 00	 ret	 4
$LN2@OnApply:
  00019	53		 push	 ebx

; 186  : 	
; 187  : 	OnApply_Thickness( m_nSubGraphIndex, m_cmbThickness);

  0001a	8d 87 f8 00 00
	00		 lea	 eax, DWORD PTR [edi+248]
  00020	50		 push	 eax
  00021	ff b7 0c 02 00
	00		 push	 DWORD PTR [edi+524]
  00027	e8 00 00 00 00	 call	 ?OnApply_Thickness@CBaseDialog@@IAEXHAAVCBitmapItemComboBox@@@Z ; CBaseDialog::OnApply_Thickness

; 188  : 
; 189  : 	//     - ojtaso (20070913)
; 190  : 	IDoubleList *pICalCnd = m_pIGraphInfo->GetCommonCalculateConditionList();

  0002c	8b 8f c4 00 00
	00		 mov	 ecx, DWORD PTR [edi+196]
  00032	8b 01		 mov	 eax, DWORD PTR [ecx]
  00034	ff 50 10	 call	 DWORD PTR [eax+16]
  00037	8b d8		 mov	 ebx, eax

; 191  : 	if( pICalCnd)

  00039	85 db		 test	 ebx, ebx
  0003b	74 34		 je	 SHORT $LN4@OnApply

; 192  : 	{
; 193  : 		POSITION psnCnd = pICalCnd->GetHeadPosition();

  0003d	8b 13		 mov	 edx, DWORD PTR [ebx]
  0003f	8b cb		 mov	 ecx, ebx
  00041	ff 52 34	 call	 DWORD PTR [edx+52]
  00044	89 45 fc	 mov	 DWORD PTR _psnCnd$1$[ebp], eax

; 194  : 		if( psnCnd)

  00047	85 c0		 test	 eax, eax
  00049	74 26		 je	 SHORT $LN4@OnApply

; 195  : 		{
; 196  : 			UpdateData();

  0004b	6a 01		 push	 1
  0004d	8b cf		 mov	 ecx, edi
  0004f	e8 00 00 00 00	 call	 ?UpdateData@CWnd@@QAEHH@Z ; CWnd::UpdateData

; 197  : 			pICalCnd->SetAt( psnCnd, atof( m_strBlockChange));

  00054	ff b7 08 02 00
	00		 push	 DWORD PTR [edi+520]
  0005a	8b 33		 mov	 esi, DWORD PTR [ebx]
  0005c	ff 15 00 00 00
	00		 call	 DWORD PTR __imp__atof
  00062	51		 push	 ecx
  00063	dd 1c 24	 fstp	 QWORD PTR [esp]
  00066	ff 75 fc	 push	 DWORD PTR _psnCnd$1$[ebp]
  00069	8b cb		 mov	 ecx, ebx
  0006b	ff 56 48	 call	 DWORD PTR [esi+72]
  0006e	8b 75 08	 mov	 esi, DWORD PTR _p_pIGraphInfo$[ebp]
$LN4@OnApply:

; 198  : 		}
; 199  : 	}
; 200  : 
; 201  : 	if( !CBaseDialog::m_bDoCalculate)

  00071	80 bf c9 00 00
	00 00		 cmp	 BYTE PTR [edi+201], 0
  00078	75 2b		 jne	 SHORT $LN6@OnApply

; 202  : 	{
; 203  : 		IDoubleList *pICalCndOrg = p_pIGraphInfo->GetCommonCalculateConditionList();

  0007a	8b 06		 mov	 eax, DWORD PTR [esi]
  0007c	8b ce		 mov	 ecx, esi
  0007e	ff 50 10	 call	 DWORD PTR [eax+16]
  00081	89 45 08	 mov	 DWORD PTR _pICalCndOrg$1$[ebp], eax

; 204  : 		if( pICalCndOrg)

  00084	85 c0		 test	 eax, eax
  00086	74 1d		 je	 SHORT $LN6@OnApply

; 205  : 		{
; 206  : 			CBaseDialog::m_bDoCalculate = !DoesEqualDoubleList( pICalCndOrg, pICalCnd);

  00088	53		 push	 ebx
  00089	50		 push	 eax
  0008a	8b cf		 mov	 ecx, edi
  0008c	e8 00 00 00 00	 call	 ?DoesEqualDoubleList@CBaseDialog@@IBEHPAUIDoubleList135914@@0@Z ; CBaseDialog::DoesEqualDoubleList
  00091	85 c0		 test	 eax, eax
  00093	0f 94 c1	 sete	 cl
  00096	88 8f c9 00 00
	00		 mov	 BYTE PTR [edi+201], cl

; 207  : 			pICalCndOrg->Release();

  0009c	8b 4d 08	 mov	 ecx, DWORD PTR _pICalCndOrg$1$[ebp]
  0009f	51		 push	 ecx
  000a0	8b 01		 mov	 eax, DWORD PTR [ecx]
  000a2	ff 50 08	 call	 DWORD PTR [eax+8]
$LN6@OnApply:

; 208  : 		}
; 209  : 	}
; 210  : 	
; 211  : 	pICalCnd->Release();		

  000a5	8b 03		 mov	 eax, DWORD PTR [ebx]
  000a7	53		 push	 ebx
  000a8	ff 50 08	 call	 DWORD PTR [eax+8]

; 212  : 
; 213  : 	p_pIGraphInfo->GetCopyDataFrom(m_pIGraphInfo);

  000ab	8b 06		 mov	 eax, DWORD PTR [esi]
  000ad	8b ce		 mov	 ecx, esi
  000af	ff b7 c4 00 00
	00		 push	 DWORD PTR [edi+196]
  000b5	ff 90 c0 00 00
	00		 call	 DWORD PTR [eax+192]

; 214  : 
; 215  : 	m_pIChartOCX->ReCalculateIndicator();

  000bb	8b 8f b0 00 00
	00		 mov	 ecx, DWORD PTR [edi+176]
  000c1	8b 01		 mov	 eax, DWORD PTR [ecx]
  000c3	ff 90 10 02 00
	00		 call	 DWORD PTR [eax+528]

; 216  : 
; 217  : 	return TRUE;

  000c9	5b		 pop	 ebx
  000ca	5f		 pop	 edi
  000cb	b8 01 00 00 00	 mov	 eax, 1

; 218  : }

  000d0	5e		 pop	 esi
  000d1	8b e5		 mov	 esp, ebp
  000d3	5d		 pop	 ebp
  000d4	c2 04 00	 ret	 4
?OnApply@CSetting_Special_Type_B@@UAEHPAUIGraphInfo135914@@@Z ENDP ; CSetting_Special_Type_B::OnApply
_TEXT	ENDS
; Function compile flags: /Ogtp
; File D:\git\src\IBK\IBK_DRFN\ProjSrc\SrcChartEx\ChartAddIn\ChartEnvSetupDlgAddIn\ChartEnvSetupDlgAddIn\Setting_Special_Type_B.cpp
; File C:\Program Files (x86)\Microsoft Visual Studio\2019\Community\VC\Tools\MSVC\14.29.30133\atlmfc\include\afxwin2.inl
; File D:\git\src\IBK\IBK_DRFN\ProjSrc\SrcChartEx\ChartAddIn\ChartEnvSetupDlgAddIn\ChartEnvSetupDlgAddIn\Setting_Special_Type_B.cpp
; File D:\git\src\IBK\IBK_DRFN\ProjSrc\SrcChartEx\ChartAddIn\ChartEnvSetupDlgAddIn\Include_AddIn_135914\I135914\_IString.h
; File D:\git\src\IBK\IBK_DRFN\ProjSrc\SrcChartEx\ChartAddIn\ChartEnvSetupDlgAddIn\ChartEnvSetupDlgAddIn\Setting_Special_Type_B.cpp
; File C:\Program Files (x86)\Microsoft Visual Studio\2019\Community\VC\Tools\MSVC\14.29.30133\atlmfc\include\atltypes.h
; File D:\git\src\IBK\IBK_DRFN\ProjSrc\SrcChartEx\ChartAddIn\ChartEnvSetupDlgAddIn\ChartEnvSetupDlgAddIn\Setting_Special_Type_B.cpp
; File C:\Program Files (x86)\Microsoft Visual Studio\2019\Community\VC\Tools\MSVC\14.29.30133\atlmfc\include\afxwin2.inl
; File D:\git\src\IBK\IBK_DRFN\ProjSrc\SrcChartEx\ChartAddIn\ChartEnvSetupDlgAddIn\ChartEnvSetupDlgAddIn\Setting_Special_Type_B.cpp
; File C:\Program Files (x86)\Microsoft Visual Studio\2019\Community\VC\Tools\MSVC\14.29.30133\atlmfc\include\afxwin2.inl
; File D:\git\src\IBK\IBK_DRFN\ProjSrc\SrcChartEx\ChartAddIn\ChartEnvSetupDlgAddIn\ChartEnvSetupDlgAddIn\Setting_Special_Type_B.cpp
; File C:\Program Files (x86)\Microsoft Visual Studio\2019\Community\VC\Tools\MSVC\14.29.30133\atlmfc\include\atltypes.h
; File C:\Program Files (x86)\Microsoft Visual Studio\2019\Community\VC\Tools\MSVC\14.29.30133\atlmfc\include\afxwin2.inl
; File D:\git\src\IBK\IBK_DRFN\ProjSrc\SrcChartEx\ChartAddIn\ChartEnvSetupDlgAddIn\ChartEnvSetupDlgAddIn\Setting_Special_Type_B.cpp
; File C:\Program Files (x86)\Microsoft Visual Studio\2019\Community\VC\Tools\MSVC\14.29.30133\atlmfc\include\afxwin2.inl
; File D:\git\src\IBK\IBK_DRFN\ProjSrc\SrcChartEx\ChartAddIn\ChartEnvSetupDlgAddIn\ChartEnvSetupDlgAddIn\Setting_Special_Type_B.cpp
; File C:\Program Files (x86)\Microsoft Visual Studio\2019\Community\VC\Tools\MSVC\14.29.30133\atlmfc\include\atltypes.h
; File C:\Program Files (x86)\Microsoft Visual Studio\2019\Community\VC\Tools\MSVC\14.29.30133\atlmfc\include\afxwin2.inl
; File D:\git\src\IBK\IBK_DRFN\ProjSrc\SrcChartEx\ChartAddIn\ChartEnvSetupDlgAddIn\ChartEnvSetupDlgAddIn\Setting_Special_Type_B.cpp
; File D:\git\src\IBK\IBK_DRFN\ProjSrc\SrcChartEx\ChartAddIn\ChartEnvSetupDlgAddIn\Include_AddIn_135914\I135914\_IString.h
; File D:\git\src\IBK\IBK_DRFN\ProjSrc\SrcChartEx\ChartAddIn\ChartEnvSetupDlgAddIn\ChartEnvSetupDlgAddIn\Setting_Special_Type_B.cpp
;	COMDAT ?Initial@CSetting_Special_Type_B@@UAEXPAUIGraphInfo135914@@@Z
_TEXT	SEGMENT
_dData$2 = -56						; size = 8
_szGraphName$ = -48					; size = 8
_psnCnd$3 = -44						; size = 4
$T4 = -44						; size = 4
_this$GSCopy$1$ = -40					; size = 4
_strKagi$5 = -36					; size = 4
_strSwing$6 = -36					; size = 4
_rcItem$7 = -32						; size = 16
__$ArrayPad$ = -16					; size = 4
__$EHRec$ = -12						; size = 12
_p_pIGraphInfo$ = 8					; size = 4
?Initial@CSetting_Special_Type_B@@UAEXPAUIGraphInfo135914@@@Z PROC ; CSetting_Special_Type_B::Initial, COMDAT
; _this$ = ecx

; 98   : {

  00000	55		 push	 ebp
  00001	8b ec		 mov	 ebp, esp
  00003	6a ff		 push	 -1
  00005	68 00 00 00 00	 push	 __ehhandler$?Initial@CSetting_Special_Type_B@@UAEXPAUIGraphInfo135914@@@Z
  0000a	64 a1 00 00 00
	00		 mov	 eax, DWORD PTR fs:0
  00010	50		 push	 eax
  00011	83 ec 2c	 sub	 esp, 44			; 0000002cH
  00014	a1 00 00 00 00	 mov	 eax, DWORD PTR ___security_cookie
  00019	33 c5		 xor	 eax, ebp
  0001b	89 45 f0	 mov	 DWORD PTR __$ArrayPad$[ebp], eax
  0001e	53		 push	 ebx
  0001f	56		 push	 esi
  00020	57		 push	 edi
  00021	50		 push	 eax
  00022	8d 45 f4	 lea	 eax, DWORD PTR __$EHRec$[ebp]
  00025	64 a3 00 00 00
	00		 mov	 DWORD PTR fs:0, eax
  0002b	8b f9		 mov	 edi, ecx
  0002d	89 7d d8	 mov	 DWORD PTR _this$GSCopy$1$[ebp], edi

; 99   : 	if( m_pIGraphInfo)

  00030	8b 8f c4 00 00
	00		 mov	 ecx, DWORD PTR [edi+196]
  00036	85 c9		 test	 ecx, ecx
  00038	74 17		 je	 SHORT $LN2@Initial

; 100  : 	{
; 101  : 		OnApply( m_pIGraphInfo);

  0003a	8b 07		 mov	 eax, DWORD PTR [edi]
  0003c	51		 push	 ecx
  0003d	8b cf		 mov	 ecx, edi
  0003f	ff 90 98 01 00
	00		 call	 DWORD PTR [eax+408]

; 102  : 		m_pIGraphInfo->Release();

  00045	8b 87 c4 00 00
	00		 mov	 eax, DWORD PTR [edi+196]
  0004b	50		 push	 eax
  0004c	8b 08		 mov	 ecx, DWORD PTR [eax]
  0004e	ff 51 08	 call	 DWORD PTR [ecx+8]
$LN2@Initial:

; 103  : 	}
; 104  : 	m_pIGraphInfo = p_pIGraphInfo;

  00051	8b 4d 08	 mov	 ecx, DWORD PTR _p_pIGraphInfo$[ebp]
  00054	89 8f c4 00 00
	00		 mov	 DWORD PTR [edi+196], ecx

; 105  : 	if( m_pIGraphInfo) m_pIGraphInfo->AddRef();

  0005a	85 c9		 test	 ecx, ecx
  0005c	0f 84 9c 02 00
	00		 je	 $LN38@Initial
  00062	8b 01		 mov	 eax, DWORD PTR [ecx]
  00064	51		 push	 ecx
  00065	ff 50 04	 call	 DWORD PTR [eax+4]

; 106  : 	else return;
; 107  : 
; 108  : 	m_nSubGraphIndex = 0;
; 109  : 
; 110  : 	m_btnColorBtn.SetColor( m_pIGraphInfo->GetSubGraphColor( m_nSubGraphIndex, 1) );

  00068	8b 8f c4 00 00
	00		 mov	 ecx, DWORD PTR [edi+196]
  0006e	c7 87 0c 02 00
	00 00 00 00 00	 mov	 DWORD PTR [edi+524], 0
  00078	6a 01		 push	 1
  0007a	6a 00		 push	 0
  0007c	8b 01		 mov	 eax, DWORD PTR [ecx]
  0007e	ff 50 64	 call	 DWORD PTR [eax+100]
  00081	89 45 d4	 mov	 DWORD PTR $T4[ebp], eax
  00084	8d 8f 80 01 00
	00		 lea	 ecx, DWORD PTR [edi+384]
  0008a	8d 45 d4	 lea	 eax, DWORD PTR $T4[ebp]
  0008d	50		 push	 eax
  0008e	e8 00 00 00 00	 call	 ?SetColor@CColorButton@@QAEXABK@Z ; CColorButton::SetColor
; File C:\Program Files (x86)\Microsoft Visual Studio\2019\Community\VC\Tools\MSVC\14.29.30133\atlmfc\include\afxwin2.inl

; 114  : 	{ ASSERT(::IsWindow(m_hWnd)); ::InvalidateRect(m_hWnd, NULL, bErase); }

  00093	6a 01		 push	 1
  00095	6a 00		 push	 0
  00097	ff b7 a0 01 00
	00		 push	 DWORD PTR [edi+416]
  0009d	ff 15 00 00 00
	00		 call	 DWORD PTR __imp__InvalidateRect@12
; File D:\git\src\IBK\IBK_DRFN\ProjSrc\SrcChartEx\ChartAddIn\ChartEnvSetupDlgAddIn\ChartEnvSetupDlgAddIn\Setting_Special_Type_B.cpp

; 114  : 	IDoubleList *pICalCnd = m_pIGraphInfo->GetCommonCalculateConditionList();

  000a3	8b 8f c4 00 00
	00		 mov	 ecx, DWORD PTR [edi+196]
  000a9	8b 01		 mov	 eax, DWORD PTR [ecx]
  000ab	ff 50 10	 call	 DWORD PTR [eax+16]
  000ae	8b f0		 mov	 esi, eax

; 115  : 	if(pICalCnd)

  000b0	85 f6		 test	 esi, esi
  000b2	74 47		 je	 SHORT $LN6@Initial

; 116  : 	{
; 117  : 		POSITION psnCnd = pICalCnd->GetHeadPosition();

  000b4	8b 16		 mov	 edx, DWORD PTR [esi]
  000b6	8b ce		 mov	 ecx, esi
  000b8	ff 52 34	 call	 DWORD PTR [edx+52]
  000bb	89 45 d4	 mov	 DWORD PTR _psnCnd$3[ebp], eax

; 118  : 		if( psnCnd)

  000be	85 c0		 test	 eax, eax
  000c0	74 39		 je	 SHORT $LN6@Initial

; 119  : 		{
; 120  : 			double dData = 0;
; 121  : 			pICalCnd->GetNext( psnCnd, dData);

  000c2	8b 06		 mov	 eax, DWORD PTR [esi]
  000c4	8d 4d c8	 lea	 ecx, DWORD PTR _dData$2[ebp]
  000c7	51		 push	 ecx
  000c8	8d 4d d4	 lea	 ecx, DWORD PTR _psnCnd$3[ebp]
  000cb	0f 57 c0	 xorps	 xmm0, xmm0
  000ce	51		 push	 ecx
  000cf	8b ce		 mov	 ecx, esi
  000d1	f2 0f 11 45 c8	 movsd	 QWORD PTR _dData$2[ebp], xmm0
  000d6	ff 50 3c	 call	 DWORD PTR [eax+60]

; 122  : 			m_strBlockChange.Format("%.0f",dData);

  000d9	f2 0f 10 45 c8	 movsd	 xmm0, QWORD PTR _dData$2[ebp]
  000de	8d 87 08 02 00
	00		 lea	 eax, DWORD PTR [edi+520]
  000e4	83 ec 08	 sub	 esp, 8
  000e7	f2 0f 11 04 24	 movsd	 QWORD PTR [esp], xmm0
  000ec	68 00 00 00 00	 push	 OFFSET ??_C@_04GHNNFJCK@?$CF?40f@
  000f1	50		 push	 eax
  000f2	ff 15 00 00 00
	00		 call	 DWORD PTR __imp_?Format@?$CStringT@DV?$StrTraitMFC_DLL@DV?$ChTraitsCRT@D@ATL@@@@@ATL@@QAAXPBDZZ
  000f8	83 c4 10	 add	 esp, 16			; 00000010H
$LN6@Initial:

; 123  : 		}
; 124  : 	}
; 125  : 	pICalCnd->Release();

  000fb	8b 06		 mov	 eax, DWORD PTR [esi]
  000fd	56		 push	 esi
  000fe	ff 50 08	 call	 DWORD PTR [eax+8]

; 127  : 	ILPCSTR szGraphName = m_pIGraphInfo->GetIndicatorNameString();

  00101	8b 8f c4 00 00
	00		 mov	 ecx, DWORD PTR [edi+196]
  00107	8b 01		 mov	 eax, DWORD PTR [ecx]
  00109	ff 90 a4 00 00
	00		 call	 DWORD PTR [eax+164]
; File D:\git\src\IBK\IBK_DRFN\ProjSrc\SrcChartEx\ChartAddIn\ChartEnvSetupDlgAddIn\Include_AddIn_135914\I135914\_IString.h

; 39   : 		m_pIStrData = p_pIString;	// Do not AddRef(). Because It must be Return Value.

  0010f	8b d8		 mov	 ebx, eax
  00111	89 5d d4	 mov	 DWORD PTR _szGraphName$[ebp+4], ebx

; 40   : 		if( m_pIStrData) m_szData = m_pIStrData->GetData();

  00114	85 db		 test	 ebx, ebx
  00116	74 0b		 je	 SHORT $LN16@Initial
  00118	8b 13		 mov	 edx, DWORD PTR [ebx]
  0011a	8b cb		 mov	 ecx, ebx
  0011c	ff 52 10	 call	 DWORD PTR [edx+16]
  0011f	8b c8		 mov	 ecx, eax
  00121	eb 02		 jmp	 SHORT $LN46@Initial
$LN16@Initial:

; 41   : 		else m_szData = NULL;

  00123	33 c9		 xor	 ecx, ecx
$LN46@Initial:
; File D:\git\src\IBK\IBK_DRFN\ProjSrc\SrcChartEx\ChartAddIn\ChartEnvSetupDlgAddIn\ChartEnvSetupDlgAddIn\Setting_Special_Type_B.cpp

; 127  : 	ILPCSTR szGraphName = m_pIGraphInfo->GetIndicatorNameString();

  00125	89 4d d0	 mov	 DWORD PTR _szGraphName$[ebp], ecx

; 128  : 	// for Swing Chart
; 129  : 	if( !strcmp( szGraphName, _MTEXT( C2_SWING_CHART )))

  00128	a1 54 00 00 00	 mov	 eax, DWORD PTR ?g_iMetaTable@@3VIMetaTable@@A+84
  0012d	c7 45 fc 00 00
	00 00		 mov	 DWORD PTR __$EHRec$[ebp+8], 0
  00134	8b 80 94 04 00
	00		 mov	 eax, DWORD PTR [eax+1172]
  0013a	66 0f 1f 44 00
	00		 npad	 6
$LL41@Initial:
  00140	8a 11		 mov	 dl, BYTE PTR [ecx]
  00142	3a 10		 cmp	 dl, BYTE PTR [eax]
  00144	75 1a		 jne	 SHORT $LN42@Initial
  00146	84 d2		 test	 dl, dl
  00148	74 12		 je	 SHORT $LN43@Initial
  0014a	8a 51 01	 mov	 dl, BYTE PTR [ecx+1]
  0014d	3a 50 01	 cmp	 dl, BYTE PTR [eax+1]
  00150	75 0e		 jne	 SHORT $LN42@Initial
  00152	83 c1 02	 add	 ecx, 2
  00155	83 c0 02	 add	 eax, 2
  00158	84 d2		 test	 dl, dl
  0015a	75 e4		 jne	 SHORT $LL41@Initial
$LN43@Initial:
  0015c	33 c0		 xor	 eax, eax
  0015e	eb 05		 jmp	 SHORT $LN44@Initial
$LN42@Initial:
  00160	1b c0		 sbb	 eax, eax
  00162	83 c8 01	 or	 eax, 1
$LN44@Initial:
  00165	8d 4d dc	 lea	 ecx, DWORD PTR _strSwing$6[ebp]
  00168	85 c0		 test	 eax, eax
  0016a	75 71		 jne	 SHORT $LN7@Initial

; 130  : 	{
; 131  : 		CString strSwing;

  0016c	ff 15 00 00 00
	00		 call	 DWORD PTR __imp_??0?$CStringT@DV?$StrTraitMFC_DLL@DV?$ChTraitsCRT@D@ATL@@@@@ATL@@QAE@XZ

; 132  : 		strSwing.LoadString(IDS_STRING_SWING_LINE);

  00172	6a 21		 push	 33			; 00000021H
  00174	8d 4d dc	 lea	 ecx, DWORD PTR _strSwing$6[ebp]
  00177	c6 45 fc 01	 mov	 BYTE PTR __$EHRec$[ebp+8], 1
  0017b	ff 15 00 00 00
	00		 call	 DWORD PTR __imp_?LoadStringA@?$CStringT@DV?$StrTraitMFC_DLL@DV?$ChTraitsCRT@D@ATL@@@@@ATL@@QAEHI@Z

; 133  : 		GetDlgItem( IDC_STC_COLOR)->SetWindowText( strSwing);

  00181	ff 75 dc	 push	 DWORD PTR _strSwing$6[ebp]
  00184	8b cf		 mov	 ecx, edi
  00186	68 41 1f 00 00	 push	 8001			; 00001f41H
  0018b	e8 00 00 00 00	 call	 ?GetDlgItem@CWnd@@QBEPAV1@H@Z ; CWnd::GetDlgItem
  00190	8b c8		 mov	 ecx, eax
  00192	e8 00 00 00 00	 call	 ?SetWindowTextA@CWnd@@QAEXPBD@Z ; CWnd::SetWindowTextA

; 134  : 		GetDlgItem( IDC_STC_THICKNESS)->ShowWindow( SW_SHOW);

  00197	6a 05		 push	 5
  00199	68 40 1f 00 00	 push	 8000			; 00001f40H
  0019e	8b cf		 mov	 ecx, edi
  001a0	e8 00 00 00 00	 call	 ?GetDlgItem@CWnd@@QBEPAV1@H@Z ; CWnd::GetDlgItem
  001a5	8b c8		 mov	 ecx, eax
  001a7	e8 00 00 00 00	 call	 ?ShowWindow@CWnd@@QAEHH@Z ; CWnd::ShowWindow

; 135  : 		m_cmbThickness.ShowWindow( SW_SHOW);

  001ac	8d b7 f8 00 00
	00		 lea	 esi, DWORD PTR [edi+248]
  001b2	6a 05		 push	 5
  001b4	8b ce		 mov	 ecx, esi
  001b6	e8 00 00 00 00	 call	 ?ShowWindow@CWnd@@QAEHH@Z ; CWnd::ShowWindow

; 136  : 		// Line Thickness .
; 137  : 		Initial_ThicknessComboBox(m_nSubGraphIndex, 0, m_cmbThickness);

  001bb	56		 push	 esi
  001bc	6a 00		 push	 0
  001be	ff b7 0c 02 00
	00		 push	 DWORD PTR [edi+524]
  001c4	8b cf		 mov	 ecx, edi
  001c6	e8 00 00 00 00	 call	 ?Initial_ThicknessComboBox@CBaseDialog@@IAEXHHAAVCBitmapItemComboBox@@@Z ; CBaseDialog::Initial_ThicknessComboBox

; 138  : 	}

  001cb	8d 4d dc	 lea	 ecx, DWORD PTR _strSwing$6[ebp]
  001ce	c6 45 fc 00	 mov	 BYTE PTR __$EHRec$[ebp+8], 0
  001d2	ff 15 00 00 00
	00		 call	 DWORD PTR __imp_??1?$CStringT@DV?$StrTraitMFC_DLL@DV?$ChTraitsCRT@D@ATL@@@@@ATL@@QAE@XZ
  001d8	e9 07 01 00 00	 jmp	 $LN8@Initial
$LN7@Initial:

; 139  : 	// for Kagi Chart
; 140  : 	else
; 141  : 	{
; 142  : // 2008.01.25 by LYH >>
; 143  : 		//GetDlgItem( IDC_STC_COLOR)->SetWindowText( "");
; 144  : 		CString strKagi;

  001dd	ff 15 00 00 00
	00		 call	 DWORD PTR __imp_??0?$CStringT@DV?$StrTraitMFC_DLL@DV?$ChTraitsCRT@D@ATL@@@@@ATL@@QAE@XZ

; 145  : 		strKagi.LoadString(IDS_STRING_KAGI_LINE);

  001e3	6a 22		 push	 34			; 00000022H
  001e5	8d 4d dc	 lea	 ecx, DWORD PTR _strKagi$5[ebp]
  001e8	c6 45 fc 02	 mov	 BYTE PTR __$EHRec$[ebp+8], 2
  001ec	ff 15 00 00 00
	00		 call	 DWORD PTR __imp_?LoadStringA@?$CStringT@DV?$StrTraitMFC_DLL@DV?$ChTraitsCRT@D@ATL@@@@@ATL@@QAEHI@Z

; 146  : 		GetDlgItem( IDC_STC_COLOR)->SetWindowText( strKagi);

  001f2	ff 75 dc	 push	 DWORD PTR _strKagi$5[ebp]
  001f5	8b cf		 mov	 ecx, edi
  001f7	68 41 1f 00 00	 push	 8001			; 00001f41H
  001fc	e8 00 00 00 00	 call	 ?GetDlgItem@CWnd@@QBEPAV1@H@Z ; CWnd::GetDlgItem
  00201	8b c8		 mov	 ecx, eax
  00203	e8 00 00 00 00	 call	 ?SetWindowTextA@CWnd@@QAEXPBD@Z ; CWnd::SetWindowTextA

; 147  : // 2008.01.25 by LYH <<
; 148  : 		GetDlgItem( IDC_STC_THICKNESS)->ShowWindow( SW_HIDE);

  00208	6a 00		 push	 0
  0020a	68 40 1f 00 00	 push	 8000			; 00001f40H
  0020f	8b cf		 mov	 ecx, edi
  00211	e8 00 00 00 00	 call	 ?GetDlgItem@CWnd@@QBEPAV1@H@Z ; CWnd::GetDlgItem
  00216	8b c8		 mov	 ecx, eax
  00218	e8 00 00 00 00	 call	 ?ShowWindow@CWnd@@QAEHH@Z ; CWnd::ShowWindow

; 149  : 		m_cmbThickness.ShowWindow( SW_HIDE);

  0021d	6a 00		 push	 0
  0021f	8d 8f f8 00 00
	00		 lea	 ecx, DWORD PTR [edi+248]
  00225	e8 00 00 00 00	 call	 ?ShowWindow@CWnd@@QAEHH@Z ; CWnd::ShowWindow
  0022a	0f 57 c0	 xorps	 xmm0, xmm0

; 154  : 		CWnd* pItem = GetDlgItem( IDC_STATIC_BLOCKCHANGE);

  0022d	8b cf		 mov	 ecx, edi
  0022f	68 1a 18 00 00	 push	 6170			; 0000181aH
; File C:\Program Files (x86)\Microsoft Visual Studio\2019\Community\VC\Tools\MSVC\14.29.30133\atlmfc\include\atltypes.h

; 528  : 	left = 0;

  00234	0f 11 45 e0	 movups	 XMMWORD PTR _rcItem$7[ebp], xmm0
; File D:\git\src\IBK\IBK_DRFN\ProjSrc\SrcChartEx\ChartAddIn\ChartEnvSetupDlgAddIn\ChartEnvSetupDlgAddIn\Setting_Special_Type_B.cpp

; 154  : 		CWnd* pItem = GetDlgItem( IDC_STATIC_BLOCKCHANGE);

  00238	e8 00 00 00 00	 call	 ?GetDlgItem@CWnd@@QBEPAV1@H@Z ; CWnd::GetDlgItem
; File C:\Program Files (x86)\Microsoft Visual Studio\2019\Community\VC\Tools\MSVC\14.29.30133\atlmfc\include\afxwin2.inl

; 84   : 	{ ASSERT(::IsWindow(m_hWnd)); ::GetWindowRect(m_hWnd, lpRect); }

  0023d	8b 1d 00 00 00
	00		 mov	 ebx, DWORD PTR __imp__GetWindowRect@8
; File D:\git\src\IBK\IBK_DRFN\ProjSrc\SrcChartEx\ChartAddIn\ChartEnvSetupDlgAddIn\ChartEnvSetupDlgAddIn\Setting_Special_Type_B.cpp

; 154  : 		CWnd* pItem = GetDlgItem( IDC_STATIC_BLOCKCHANGE);

  00243	8b f0		 mov	 esi, eax
; File C:\Program Files (x86)\Microsoft Visual Studio\2019\Community\VC\Tools\MSVC\14.29.30133\atlmfc\include\afxwin2.inl

; 84   : 	{ ASSERT(::IsWindow(m_hWnd)); ::GetWindowRect(m_hWnd, lpRect); }

  00245	8d 45 e0	 lea	 eax, DWORD PTR _rcItem$7[ebp]
  00248	50		 push	 eax
  00249	ff 76 20	 push	 DWORD PTR [esi+32]
  0024c	ff d3		 call	 ebx
; File D:\git\src\IBK\IBK_DRFN\ProjSrc\SrcChartEx\ChartAddIn\ChartEnvSetupDlgAddIn\ChartEnvSetupDlgAddIn\Setting_Special_Type_B.cpp

; 156  : 		ScreenToClient(rcItem);

  0024e	8d 45 e0	 lea	 eax, DWORD PTR _rcItem$7[ebp]
  00251	8b cf		 mov	 ecx, edi
  00253	50		 push	 eax
  00254	e8 00 00 00 00	 call	 ?ScreenToClient@CWnd@@QBEXPAUtagRECT@@@Z ; CWnd::ScreenToClient
; File C:\Program Files (x86)\Microsoft Visual Studio\2019\Community\VC\Tools\MSVC\14.29.30133\atlmfc\include\atltypes.h

; 710  : 	::OffsetRect(this, x, y);

  00259	8b 3d 00 00 00
	00		 mov	 edi, DWORD PTR __imp__OffsetRect@12
  0025f	8d 45 e0	 lea	 eax, DWORD PTR _rcItem$7[ebp]
  00262	6a e8		 push	 -24			; ffffffe8H
  00264	6a 00		 push	 0
  00266	50		 push	 eax
  00267	ff d7		 call	 edi
; File C:\Program Files (x86)\Microsoft Visual Studio\2019\Community\VC\Tools\MSVC\14.29.30133\atlmfc\include\afxwin2.inl

; 73   : 	{ MoveWindow(lpRect->left, lpRect->top, lpRect->right - lpRect->left,

  00269	8b 45 ec	 mov	 eax, DWORD PTR _rcItem$7[ebp+12]
  0026c	8b 55 e4	 mov	 edx, DWORD PTR _rcItem$7[ebp+4]
  0026f	2b c2		 sub	 eax, edx
  00271	8b 4d e0	 mov	 ecx, DWORD PTR _rcItem$7[ebp]
  00274	6a 01		 push	 1
  00276	50		 push	 eax
  00277	8b 45 e8	 mov	 eax, DWORD PTR _rcItem$7[ebp+8]
  0027a	2b c1		 sub	 eax, ecx
  0027c	50		 push	 eax
  0027d	52		 push	 edx
  0027e	51		 push	 ecx
  0027f	8b ce		 mov	 ecx, esi
  00281	e8 00 00 00 00	 call	 ?MoveWindow@CWnd@@QAEXHHHHH@Z ; CWnd::MoveWindow
; File D:\git\src\IBK\IBK_DRFN\ProjSrc\SrcChartEx\ChartAddIn\ChartEnvSetupDlgAddIn\ChartEnvSetupDlgAddIn\Setting_Special_Type_B.cpp

; 161  : 		pItem = GetDlgItem( IDC_EDIT_BLOCKCHANGE);

  00286	8b 4d d8	 mov	 ecx, DWORD PTR _this$GSCopy$1$[ebp]
  00289	68 19 18 00 00	 push	 6169			; 00001819H
  0028e	e8 00 00 00 00	 call	 ?GetDlgItem@CWnd@@QBEPAV1@H@Z ; CWnd::GetDlgItem
  00293	8b f0		 mov	 esi, eax
; File C:\Program Files (x86)\Microsoft Visual Studio\2019\Community\VC\Tools\MSVC\14.29.30133\atlmfc\include\afxwin2.inl

; 84   : 	{ ASSERT(::IsWindow(m_hWnd)); ::GetWindowRect(m_hWnd, lpRect); }

  00295	8d 45 e0	 lea	 eax, DWORD PTR _rcItem$7[ebp]
  00298	50		 push	 eax
  00299	ff 76 20	 push	 DWORD PTR [esi+32]
  0029c	ff d3		 call	 ebx
; File D:\git\src\IBK\IBK_DRFN\ProjSrc\SrcChartEx\ChartAddIn\ChartEnvSetupDlgAddIn\ChartEnvSetupDlgAddIn\Setting_Special_Type_B.cpp

; 163  : 		ScreenToClient(rcItem);

  0029e	8b 4d d8	 mov	 ecx, DWORD PTR _this$GSCopy$1$[ebp]
  002a1	8d 45 e0	 lea	 eax, DWORD PTR _rcItem$7[ebp]
  002a4	50		 push	 eax
  002a5	e8 00 00 00 00	 call	 ?ScreenToClient@CWnd@@QBEXPAUtagRECT@@@Z ; CWnd::ScreenToClient
; File C:\Program Files (x86)\Microsoft Visual Studio\2019\Community\VC\Tools\MSVC\14.29.30133\atlmfc\include\atltypes.h

; 710  : 	::OffsetRect(this, x, y);

  002aa	6a e8		 push	 -24			; ffffffe8H
  002ac	6a 00		 push	 0
  002ae	8d 45 e0	 lea	 eax, DWORD PTR _rcItem$7[ebp]
  002b1	50		 push	 eax
  002b2	ff d7		 call	 edi
; File C:\Program Files (x86)\Microsoft Visual Studio\2019\Community\VC\Tools\MSVC\14.29.30133\atlmfc\include\afxwin2.inl

; 73   : 	{ MoveWindow(lpRect->left, lpRect->top, lpRect->right - lpRect->left,

  002b4	8b 45 ec	 mov	 eax, DWORD PTR _rcItem$7[ebp+12]
  002b7	8b 4d e4	 mov	 ecx, DWORD PTR _rcItem$7[ebp+4]
  002ba	2b c1		 sub	 eax, ecx
  002bc	8b 55 e0	 mov	 edx, DWORD PTR _rcItem$7[ebp]
  002bf	6a 01		 push	 1
  002c1	50		 push	 eax
  002c2	8b 45 e8	 mov	 eax, DWORD PTR _rcItem$7[ebp+8]
  002c5	2b c2		 sub	 eax, edx
  002c7	50		 push	 eax
  002c8	51		 push	 ecx
  002c9	52		 push	 edx
  002ca	8b ce		 mov	 ecx, esi
  002cc	e8 00 00 00 00	 call	 ?MoveWindow@CWnd@@QAEXHHHHH@Z ; CWnd::MoveWindow
; File D:\git\src\IBK\IBK_DRFN\ProjSrc\SrcChartEx\ChartAddIn\ChartEnvSetupDlgAddIn\ChartEnvSetupDlgAddIn\Setting_Special_Type_B.cpp

; 167  : 	}

  002d1	8d 4d dc	 lea	 ecx, DWORD PTR _strKagi$5[ebp]
  002d4	c6 45 fc 00	 mov	 BYTE PTR __$EHRec$[ebp+8], 0
  002d8	ff 15 00 00 00
	00		 call	 DWORD PTR __imp_??1?$CStringT@DV?$StrTraitMFC_DLL@DV?$ChTraitsCRT@D@ATL@@@@@ATL@@QAE@XZ
  002de	8b 7d d8	 mov	 edi, DWORD PTR _this$GSCopy$1$[ebp]
  002e1	8b 5d d4	 mov	 ebx, DWORD PTR _szGraphName$[ebp+4]
$LN8@Initial:

; 168  : 
; 169  : 	UpdateData(FALSE);

  002e4	6a 00		 push	 0
  002e6	8b cf		 mov	 ecx, edi
  002e8	e8 00 00 00 00	 call	 ?UpdateData@CWnd@@QAEHH@Z ; CWnd::UpdateData
; File D:\git\src\IBK\IBK_DRFN\ProjSrc\SrcChartEx\ChartAddIn\ChartEnvSetupDlgAddIn\Include_AddIn_135914\I135914\_IString.h

; 44   : 	{

  002ed	c7 45 fc 03 00
	00 00		 mov	 DWORD PTR __$EHRec$[ebp+8], 3

; 45   : 		if( m_pIStrData)

  002f4	85 db		 test	 ebx, ebx
  002f6	74 06		 je	 SHORT $LN38@Initial

; 46   : 		{
; 47   : 			m_pIStrData->Release();

  002f8	8b 03		 mov	 eax, DWORD PTR [ebx]
  002fa	53		 push	 ebx
  002fb	ff 50 08	 call	 DWORD PTR [eax+8]
$LN38@Initial:
; File D:\git\src\IBK\IBK_DRFN\ProjSrc\SrcChartEx\ChartAddIn\ChartEnvSetupDlgAddIn\ChartEnvSetupDlgAddIn\Setting_Special_Type_B.cpp

; 170  : }

  002fe	8b 4d f4	 mov	 ecx, DWORD PTR __$EHRec$[ebp]
  00301	64 89 0d 00 00
	00 00		 mov	 DWORD PTR fs:0, ecx
  00308	59		 pop	 ecx
  00309	5f		 pop	 edi
  0030a	5e		 pop	 esi
  0030b	5b		 pop	 ebx
  0030c	8b 4d f0	 mov	 ecx, DWORD PTR __$ArrayPad$[ebp]
  0030f	33 cd		 xor	 ecx, ebp
  00311	e8 00 00 00 00	 call	 @__security_check_cookie@4
  00316	8b e5		 mov	 esp, ebp
  00318	5d		 pop	 ebp
  00319	c2 04 00	 ret	 4
_TEXT	ENDS
;	COMDAT text$x
text$x	SEGMENT
__unwindfunclet$?Initial@CSetting_Special_Type_B@@UAEXPAUIGraphInfo135914@@@Z$0:
  00000	8d 4d d0	 lea	 ecx, DWORD PTR _szGraphName$[ebp]
  00003	e9 00 00 00 00	 jmp	 ??1ILPCSTR135914@@QAE@XZ ; ILPCSTR135914::~ILPCSTR135914
__unwindfunclet$?Initial@CSetting_Special_Type_B@@UAEXPAUIGraphInfo135914@@@Z$1:
  00008	8d 4d dc	 lea	 ecx, DWORD PTR _strSwing$6[ebp]
  0000b	ff 25 00 00 00
	00		 jmp	 DWORD PTR __imp_??1?$CStringT@DV?$StrTraitMFC_DLL@DV?$ChTraitsCRT@D@ATL@@@@@ATL@@QAE@XZ
__unwindfunclet$?Initial@CSetting_Special_Type_B@@UAEXPAUIGraphInfo135914@@@Z$2:
  00011	8d 4d dc	 lea	 ecx, DWORD PTR _strKagi$5[ebp]
  00014	ff 25 00 00 00
	00		 jmp	 DWORD PTR __imp_??1?$CStringT@DV?$StrTraitMFC_DLL@DV?$ChTraitsCRT@D@ATL@@@@@ATL@@QAE@XZ
  0001a	cc		 int	 3
  0001b	cc		 int	 3
  0001c	cc		 int	 3
  0001d	cc		 int	 3
  0001e	cc		 int	 3
__ehhandler$?Initial@CSetting_Special_Type_B@@UAEXPAUIGraphInfo135914@@@Z:
  0001f	90		 npad	 1
  00020	90		 npad	 1
  00021	8b 54 24 08	 mov	 edx, DWORD PTR [esp+8]
  00025	8d 42 0c	 lea	 eax, DWORD PTR [edx+12]
  00028	8b 4a c4	 mov	 ecx, DWORD PTR [edx-60]
  0002b	33 c8		 xor	 ecx, eax
  0002d	e8 00 00 00 00	 call	 @__security_check_cookie@4
  00032	8b 4a fc	 mov	 ecx, DWORD PTR [edx-4]
  00035	33 c8		 xor	 ecx, eax
  00037	e8 00 00 00 00	 call	 @__security_check_cookie@4
  0003c	b8 00 00 00 00	 mov	 eax, OFFSET __ehfuncinfo$?Initial@CSetting_Special_Type_B@@UAEXPAUIGraphInfo135914@@@Z
  00041	e9 00 00 00 00	 jmp	 ___CxxFrameHandler3
text$x	ENDS
?Initial@CSetting_Special_Type_B@@UAEXPAUIGraphInfo135914@@@Z ENDP ; CSetting_Special_Type_B::Initial
; Function compile flags: /Ogtp
; File D:\git\src\IBK\IBK_DRFN\ProjSrc\SrcChartEx\ChartAddIn\ChartEnvSetupDlgAddIn\ChartEnvSetupDlgAddIn\Setting_Special_Type_B.cpp
;	COMDAT ??1CSetting_Special_Type_B@@UAE@XZ
_TEXT	SEGMENT
??1CSetting_Special_Type_B@@UAE@XZ PROC			; CSetting_Special_Type_B::~CSetting_Special_Type_B, COMDAT
; _this$ = ecx

; 48   : {

  00000	56		 push	 esi
  00001	8b f1		 mov	 esi, ecx

; 49   : }

  00003	8d 8e 08 02 00
	00		 lea	 ecx, DWORD PTR [esi+520]
  00009	c7 06 00 00 00
	00		 mov	 DWORD PTR [esi], OFFSET ??_7CSetting_Special_Type_B@@6B@
  0000f	ff 15 00 00 00
	00		 call	 DWORD PTR __imp_??1?$CStringT@DV?$StrTraitMFC_DLL@DV?$ChTraitsCRT@D@ATL@@@@@ATL@@QAE@XZ
  00015	8d 8e 80 01 00
	00		 lea	 ecx, DWORD PTR [esi+384]
  0001b	e8 00 00 00 00	 call	 ??1CColorButton@@UAE@XZ	; CColorButton::~CColorButton
  00020	8d 8e f8 00 00
	00		 lea	 ecx, DWORD PTR [esi+248]
  00026	e8 00 00 00 00	 call	 ??1CBitmapItemComboBox@@UAE@XZ ; CBitmapItemComboBox::~CBitmapItemComboBox
  0002b	8b ce		 mov	 ecx, esi
  0002d	5e		 pop	 esi
  0002e	e9 00 00 00 00	 jmp	 ??1CBaseDialog@@UAE@XZ	; CBaseDialog::~CBaseDialog
??1CSetting_Special_Type_B@@UAE@XZ ENDP			; CSetting_Special_Type_B::~CSetting_Special_Type_B
_TEXT	ENDS
; Function compile flags: /Ogtp
; File D:\git\src\IBK\IBK_DRFN\ProjSrc\SrcChartEx\ChartAddIn\ChartEnvSetupDlgAddIn\ChartEnvSetupDlgAddIn\Setting_Special_Type_B.cpp
;	COMDAT ??0CSetting_Special_Type_B@@QAE@PAUIChartOCX135914@@PAVCWnd@@1@Z
_TEXT	SEGMENT
_this$ = -16						; size = 4
__$EHRec$ = -12						; size = 12
_p_pIChartOCX$ = 8					; size = 4
_pParent$ = 12						; size = 4
_pTopWnd$ = 16						; size = 4
??0CSetting_Special_Type_B@@QAE@PAUIChartOCX135914@@PAVCWnd@@1@Z PROC ; CSetting_Special_Type_B::CSetting_Special_Type_B, COMDAT
; _this$ = ecx

; 34   : {

  00000	55		 push	 ebp
  00001	8b ec		 mov	 ebp, esp
  00003	6a ff		 push	 -1
  00005	68 00 00 00 00	 push	 __ehhandler$??0CSetting_Special_Type_B@@QAE@PAUIChartOCX135914@@PAVCWnd@@1@Z
  0000a	64 a1 00 00 00
	00		 mov	 eax, DWORD PTR fs:0
  00010	50		 push	 eax
  00011	51		 push	 ecx
  00012	56		 push	 esi
  00013	57		 push	 edi
  00014	a1 00 00 00 00	 mov	 eax, DWORD PTR ___security_cookie
  00019	33 c5		 xor	 eax, ebp
  0001b	50		 push	 eax
  0001c	8d 45 f4	 lea	 eax, DWORD PTR __$EHRec$[ebp]
  0001f	64 a3 00 00 00
	00		 mov	 DWORD PTR fs:0, eax
  00025	8b f9		 mov	 edi, ecx
  00027	89 7d f0	 mov	 DWORD PTR _this$[ebp], edi

; 33   : 	: CBaseDialog(CSetting_Special_Type_B::IDD, pParent, p_pIChartOCX, pTopWnd)

  0002a	ff 75 10	 push	 DWORD PTR _pTopWnd$[ebp]
  0002d	ff 75 08	 push	 DWORD PTR _p_pIChartOCX$[ebp]
  00030	ff 75 0c	 push	 DWORD PTR _pParent$[ebp]
  00033	68 7c 17 00 00	 push	 6012			; 0000177cH
  00038	e8 00 00 00 00	 call	 ??0CBaseDialog@@QAE@IPAVCWnd@@PAUIChartOCX135914@@0@Z ; CBaseDialog::CBaseDialog

; 34   : {

  0003d	8d 8f f8 00 00
	00		 lea	 ecx, DWORD PTR [edi+248]
  00043	c7 45 fc 00 00
	00 00		 mov	 DWORD PTR __$EHRec$[ebp+8], 0
  0004a	c7 07 00 00 00
	00		 mov	 DWORD PTR [edi], OFFSET ??_7CSetting_Special_Type_B@@6B@
  00050	e8 00 00 00 00	 call	 ??0CBitmapItemComboBox@@QAE@XZ ; CBitmapItemComboBox::CBitmapItemComboBox
  00055	8d 8f 80 01 00
	00		 lea	 ecx, DWORD PTR [edi+384]
  0005b	c6 45 fc 01	 mov	 BYTE PTR __$EHRec$[ebp+8], 1
  0005f	e8 00 00 00 00	 call	 ??0CColorButton@@QAE@XZ	; CColorButton::CColorButton
  00064	8d 8f 08 02 00
	00		 lea	 ecx, DWORD PTR [edi+520]
  0006a	ff 15 00 00 00
	00		 call	 DWORD PTR __imp_??0?$CStringT@DV?$StrTraitMFC_DLL@DV?$ChTraitsCRT@D@ATL@@@@@ATL@@QAE@XZ

; 35   : 	//{{AFX_DATA_INIT(CSetting_Special_Type_B)
; 36   : 	m_strBlockChange = _T("");

  00070	68 00 00 00 00	 push	 OFFSET ??_C@_00CNPNBAHC@@
  00075	8d 8f 08 02 00
	00		 lea	 ecx, DWORD PTR [edi+520]
  0007b	c6 45 fc 03	 mov	 BYTE PTR __$EHRec$[ebp+8], 3
  0007f	ff 15 00 00 00
	00		 call	 DWORD PTR __imp_??4?$CStringT@DV?$StrTraitMFC_DLL@DV?$ChTraitsCRT@D@ATL@@@@@ATL@@QAEAAV01@PBD@Z

; 37   : 	//}}AFX_DATA_INIT
; 38   : 	m_nSubGraphIndex = -1;

  00085	c7 87 0c 02 00
	00 ff ff ff ff	 mov	 DWORD PTR [edi+524], -1

; 39   : }

  0008f	8b c7		 mov	 eax, edi
  00091	8b 4d f4	 mov	 ecx, DWORD PTR __$EHRec$[ebp]
  00094	64 89 0d 00 00
	00 00		 mov	 DWORD PTR fs:0, ecx
  0009b	59		 pop	 ecx
  0009c	5f		 pop	 edi
  0009d	5e		 pop	 esi
  0009e	8b e5		 mov	 esp, ebp
  000a0	5d		 pop	 ebp
  000a1	c2 0c 00	 ret	 12			; 0000000cH
_TEXT	ENDS
;	COMDAT text$x
text$x	SEGMENT
__unwindfunclet$??0CSetting_Special_Type_B@@QAE@PAUIChartOCX135914@@PAVCWnd@@1@Z$0:
  00000	8b 4d f0	 mov	 ecx, DWORD PTR _this$[ebp]
  00003	e9 00 00 00 00	 jmp	 ??1CBaseDialog@@UAE@XZ	; CBaseDialog::~CBaseDialog
__unwindfunclet$??0CSetting_Special_Type_B@@QAE@PAUIChartOCX135914@@PAVCWnd@@1@Z$1:
  00008	8b 4d f0	 mov	 ecx, DWORD PTR _this$[ebp]
  0000b	81 c1 f8 00 00
	00		 add	 ecx, 248		; 000000f8H
  00011	e9 00 00 00 00	 jmp	 ??1CBitmapItemComboBox@@UAE@XZ ; CBitmapItemComboBox::~CBitmapItemComboBox
__unwindfunclet$??0CSetting_Special_Type_B@@QAE@PAUIChartOCX135914@@PAVCWnd@@1@Z$2:
  00016	8b 4d f0	 mov	 ecx, DWORD PTR _this$[ebp]
  00019	81 c1 80 01 00
	00		 add	 ecx, 384		; 00000180H
  0001f	e9 00 00 00 00	 jmp	 ??1CColorButton@@UAE@XZ	; CColorButton::~CColorButton
__unwindfunclet$??0CSetting_Special_Type_B@@QAE@PAUIChartOCX135914@@PAVCWnd@@1@Z$3:
  00024	8b 4d f0	 mov	 ecx, DWORD PTR _this$[ebp]
  00027	81 c1 08 02 00
	00		 add	 ecx, 520		; 00000208H
  0002d	ff 25 00 00 00
	00		 jmp	 DWORD PTR __imp_??1?$CStringT@DV?$StrTraitMFC_DLL@DV?$ChTraitsCRT@D@ATL@@@@@ATL@@QAE@XZ
  00033	cc		 int	 3
  00034	cc		 int	 3
  00035	cc		 int	 3
  00036	cc		 int	 3
  00037	cc		 int	 3
__ehhandler$??0CSetting_Special_Type_B@@QAE@PAUIChartOCX135914@@PAVCWnd@@1@Z:
  00038	90		 npad	 1
  00039	90		 npad	 1
  0003a	8b 54 24 08	 mov	 edx, DWORD PTR [esp+8]
  0003e	8d 42 0c	 lea	 eax, DWORD PTR [edx+12]
  00041	8b 4a f0	 mov	 ecx, DWORD PTR [edx-16]
  00044	33 c8		 xor	 ecx, eax
  00046	e8 00 00 00 00	 call	 @__security_check_cookie@4
  0004b	b8 00 00 00 00	 mov	 eax, OFFSET __ehfuncinfo$??0CSetting_Special_Type_B@@QAE@PAUIChartOCX135914@@PAVCWnd@@1@Z
  00050	e9 00 00 00 00	 jmp	 ___CxxFrameHandler3
text$x	ENDS
??0CSetting_Special_Type_B@@QAE@PAUIChartOCX135914@@PAVCWnd@@1@Z ENDP ; CSetting_Special_Type_B::CSetting_Special_Type_B
; Function compile flags: /Ogtp
; File D:\git\src\IBK\IBK_DRFN\ProjSrc\SrcChartEx\ChartAddIn\ChartEnvSetupDlgAddIn\Include_AddIn_135914\I135914\_IString.h
;	COMDAT ??1ILPCSTR135914@@QAE@XZ
_TEXT	SEGMENT
__$EHRec$ = -12						; size = 12
??1ILPCSTR135914@@QAE@XZ PROC				; ILPCSTR135914::~ILPCSTR135914, COMDAT
; _this$ = ecx

; 44   : 	{

  00000	55		 push	 ebp
  00001	8b ec		 mov	 ebp, esp
  00003	6a ff		 push	 -1
  00005	68 00 00 00 00	 push	 __ehhandler$??1ILPCSTR135914@@QAE@XZ
  0000a	64 a1 00 00 00
	00		 mov	 eax, DWORD PTR fs:0
  00010	50		 push	 eax
  00011	56		 push	 esi
  00012	a1 00 00 00 00	 mov	 eax, DWORD PTR ___security_cookie
  00017	33 c5		 xor	 eax, ebp
  00019	50		 push	 eax
  0001a	8d 45 f4	 lea	 eax, DWORD PTR __$EHRec$[ebp]
  0001d	64 a3 00 00 00
	00		 mov	 DWORD PTR fs:0, eax
  00023	8b f1		 mov	 esi, ecx

; 45   : 		if( m_pIStrData)

  00025	8b 4e 04	 mov	 ecx, DWORD PTR [esi+4]
  00028	85 c9		 test	 ecx, ecx
  0002a	74 13		 je	 SHORT $LN2@ILPCSTR135

; 46   : 		{
; 47   : 			m_pIStrData->Release();

  0002c	8b 01		 mov	 eax, DWORD PTR [ecx]
  0002e	51		 push	 ecx
  0002f	ff 50 08	 call	 DWORD PTR [eax+8]

; 48   : 			m_pIStrData = NULL;

  00032	c7 46 04 00 00
	00 00		 mov	 DWORD PTR [esi+4], 0

; 49   : 			m_szData = NULL;

  00039	c7 06 00 00 00
	00		 mov	 DWORD PTR [esi], 0
$LN2@ILPCSTR135:

; 50   : 		}
; 51   : 	}

  0003f	8b 4d f4	 mov	 ecx, DWORD PTR __$EHRec$[ebp]
  00042	64 89 0d 00 00
	00 00		 mov	 DWORD PTR fs:0, ecx
  00049	59		 pop	 ecx
  0004a	5e		 pop	 esi
  0004b	8b e5		 mov	 esp, ebp
  0004d	5d		 pop	 ebp
  0004e	c3		 ret	 0
  0004f	cc		 int	 3
  00050	cc		 int	 3
  00051	cc		 int	 3
  00052	cc		 int	 3
  00053	cc		 int	 3
_TEXT	ENDS
;	COMDAT text$x
text$x	SEGMENT
__ehhandler$??1ILPCSTR135914@@QAE@XZ:
  00000	90		 npad	 1
  00001	90		 npad	 1
  00002	8b 54 24 08	 mov	 edx, DWORD PTR [esp+8]
  00006	8d 42 0c	 lea	 eax, DWORD PTR [edx+12]
  00009	8b 4a f8	 mov	 ecx, DWORD PTR [edx-8]
  0000c	33 c8		 xor	 ecx, eax
  0000e	e8 00 00 00 00	 call	 @__security_check_cookie@4
  00013	b8 00 00 00 00	 mov	 eax, OFFSET __ehfuncinfo$??1ILPCSTR135914@@QAE@XZ
  00018	e9 00 00 00 00	 jmp	 ___CxxFrameHandler3
text$x	ENDS
??1ILPCSTR135914@@QAE@XZ ENDP				; ILPCSTR135914::~ILPCSTR135914
; Function compile flags: /Ogtp
; File C:\Program Files (x86)\Microsoft Visual Studio\2019\Community\VC\Tools\MSVC\14.29.30133\atlmfc\include\afxdlgs.h
;	COMDAT ??1CColorDialog@@UAE@XZ
_TEXT	SEGMENT
??1CColorDialog@@UAE@XZ PROC				; CColorDialog::~CColorDialog, COMDAT
; _this$ = ecx

; 110  :     virtual ~CCommonDialog() {};

  00000	c7 01 00 00 00
	00		 mov	 DWORD PTR [ecx], OFFSET ??_7CCommonDialog@@6B@
  00006	e9 00 00 00 00	 jmp	 ??1CDialog@@UAE@XZ	; CDialog::~CDialog
??1CColorDialog@@UAE@XZ ENDP				; CColorDialog::~CColorDialog
_TEXT	ENDS
; Function compile flags: /Ogtp
; File C:\Program Files (x86)\Microsoft Visual Studio\2019\Community\VC\Tools\MSVC\14.29.30133\atlmfc\include\afxdlgs.h
; File C:\Program Files (x86)\Microsoft Visual Studio\2019\Community\VC\Tools\MSVC\14.29.30133\atlmfc\include\afx.inl
;	COMDAT ??_GCCommonDialog@@UAEPAXI@Z
_TEXT	SEGMENT
___flags$ = 8						; size = 4
??_GCCommonDialog@@UAEPAXI@Z PROC			; CCommonDialog::`scalar deleting destructor', COMDAT
; _this$ = ecx
  00000	55		 push	 ebp
  00001	8b ec		 mov	 ebp, esp
; File C:\Program Files (x86)\Microsoft Visual Studio\2019\Community\VC\Tools\MSVC\14.29.30133\atlmfc\include\afxdlgs.h

; 110  :     virtual ~CCommonDialog() {};

  00003	56		 push	 esi
  00004	8b f1		 mov	 esi, ecx
  00006	c7 06 00 00 00
	00		 mov	 DWORD PTR [esi], OFFSET ??_7CCommonDialog@@6B@
  0000c	e8 00 00 00 00	 call	 ??1CDialog@@UAE@XZ	; CDialog::~CDialog
  00011	8b 45 08	 mov	 eax, DWORD PTR ___flags$[ebp]
  00014	a8 01		 test	 al, 1
  00016	74 22		 je	 SHORT $LN12@scalar
  00018	a8 04		 test	 al, 4
  0001a	75 10		 jne	 SHORT $LN3@scalar
; File C:\Program Files (x86)\Microsoft Visual Studio\2019\Community\VC\Tools\MSVC\14.29.30133\atlmfc\include\afx.inl

; 112  : 	{ ::operator delete(p); }

  0001c	56		 push	 esi
  0001d	e8 00 00 00 00	 call	 ??3@YAXPAX@Z		; operator delete
  00022	83 c4 04	 add	 esp, 4
  00025	8b c6		 mov	 eax, esi
  00027	5e		 pop	 esi
  00028	5d		 pop	 ebp
  00029	c2 04 00	 ret	 4
$LN3@scalar:
  0002c	68 a8 00 00 00	 push	 168			; 000000a8H
  00031	56		 push	 esi
  00032	e8 00 00 00 00	 call	 ?__global_delete@@YAXPAXI@Z ; __global_delete
  00037	83 c4 08	 add	 esp, 8
$LN12@scalar:
  0003a	8b c6		 mov	 eax, esi
  0003c	5e		 pop	 esi
  0003d	5d		 pop	 ebp
  0003e	c2 04 00	 ret	 4
??_GCCommonDialog@@UAEPAXI@Z ENDP			; CCommonDialog::`scalar deleting destructor'
_TEXT	ENDS
; Function compile flags: /Ogtp
; File C:\Program Files (x86)\Microsoft Visual Studio\2019\Community\VC\Tools\MSVC\14.29.30133\atlmfc\include\afxdlgs.h
;	COMDAT ??1CCommonDialog@@UAE@XZ
_TEXT	SEGMENT
??1CCommonDialog@@UAE@XZ PROC				; CCommonDialog::~CCommonDialog, COMDAT
; _this$ = ecx

; 110  :     virtual ~CCommonDialog() {};

  00000	c7 01 00 00 00
	00		 mov	 DWORD PTR [ecx], OFFSET ??_7CCommonDialog@@6B@
  00006	e9 00 00 00 00	 jmp	 ??1CDialog@@UAE@XZ	; CDialog::~CDialog
??1CCommonDialog@@UAE@XZ ENDP				; CCommonDialog::~CCommonDialog
_TEXT	ENDS
; Function compile flags: /Ogtp
; File C:\Program Files (x86)\Microsoft Visual Studio\2019\Community\VC\Tools\MSVC\14.29.30133\atlmfc\include\afxwin2.inl
;	COMDAT ?Create@CDialog@@UAEHIPAVCWnd@@@Z
_TEXT	SEGMENT
_nIDTemplate$ = 8					; size = 4
_pParentWnd$ = 12					; size = 4
?Create@CDialog@@UAEHIPAVCWnd@@@Z PROC			; CDialog::Create, COMDAT
; _this$ = ecx

; 585  : 	{ return CDialog::Create(ATL_MAKEINTRESOURCE(nIDTemplate), pParentWnd); }

  00000	55		 push	 ebp
  00001	8b ec		 mov	 ebp, esp
  00003	0f b7 45 08	 movzx	 eax, WORD PTR _nIDTemplate$[ebp]
  00007	89 45 08	 mov	 DWORD PTR _nIDTemplate$[ebp], eax
  0000a	5d		 pop	 ebp
  0000b	e9 00 00 00 00	 jmp	 ?Create@CDialog@@UAEHPBDPAVCWnd@@@Z ; CDialog::Create
?Create@CDialog@@UAEHIPAVCWnd@@@Z ENDP			; CDialog::Create
_TEXT	ENDS
; Function compile flags: /Ogtp
; File C:\Program Files (x86)\Microsoft Visual Studio\2019\Community\VC\Tools\MSVC\14.29.30133\atlmfc\include\afxwin2.inl
;	COMDAT ?EndModalState@CWnd@@UAEXXZ
_TEXT	SEGMENT
?EndModalState@CWnd@@UAEXXZ PROC			; CWnd::EndModalState, COMDAT
; _this$ = ecx

; 567  : 	{ ::EnableWindow(m_hWnd, TRUE); }

  00000	6a 01		 push	 1
  00002	ff 71 20	 push	 DWORD PTR [ecx+32]
  00005	ff 15 00 00 00
	00		 call	 DWORD PTR __imp__EnableWindow@8
  0000b	c3		 ret	 0
?EndModalState@CWnd@@UAEXXZ ENDP			; CWnd::EndModalState
_TEXT	ENDS
; Function compile flags: /Ogtp
; File C:\Program Files (x86)\Microsoft Visual Studio\2019\Community\VC\Tools\MSVC\14.29.30133\atlmfc\include\afxwin2.inl
;	COMDAT ?BeginModalState@CWnd@@UAEXXZ
_TEXT	SEGMENT
?BeginModalState@CWnd@@UAEXXZ PROC			; CWnd::BeginModalState, COMDAT
; _this$ = ecx

; 565  : 	{ ::EnableWindow(m_hWnd, FALSE); }

  00000	6a 00		 push	 0
  00002	ff 71 20	 push	 DWORD PTR [ecx+32]
  00005	ff 15 00 00 00
	00		 call	 DWORD PTR __imp__EnableWindow@8
  0000b	c3		 ret	 0
?BeginModalState@CWnd@@UAEXXZ ENDP			; CWnd::BeginModalState
_TEXT	ENDS
; Function compile flags: /Ogtp
; File C:\Program Files (x86)\Microsoft Visual Studio\2019\Community\VC\Tools\MSVC\14.29.30133\atlmfc\include\afxwin2.inl
;	COMDAT ?DoDataExchange@CWnd@@MAEXPAVCDataExchange@@@Z
_TEXT	SEGMENT
___formal$ = 8						; size = 4
?DoDataExchange@CWnd@@MAEXPAVCDataExchange@@@Z PROC	; CWnd::DoDataExchange, COMDAT
; _this$ = ecx

; 561  : 	{ } // default does nothing

  00000	c2 04 00	 ret	 4
?DoDataExchange@CWnd@@MAEXPAVCDataExchange@@@Z ENDP	; CWnd::DoDataExchange
_TEXT	ENDS
; Function compile flags: /Ogtp
; File C:\Program Files (x86)\Microsoft Visual Studio\2019\Community\VC\Tools\MSVC\14.29.30133\atlmfc\include\afx.inl
;	COMDAT ?Dump@CObject@@UBEXAAVCDumpContext@@@Z
_TEXT	SEGMENT
___formal$ = 8						; size = 4
?Dump@CObject@@UBEXAAVCDumpContext@@@Z PROC		; CObject::Dump, COMDAT
; _this$ = ecx

; 122  : 	{ /* no dumping in release builds */ }

  00000	c2 04 00	 ret	 4
?Dump@CObject@@UBEXAAVCDumpContext@@@Z ENDP		; CObject::Dump
_TEXT	ENDS
; Function compile flags: /Ogtp
; File C:\Program Files (x86)\Microsoft Visual Studio\2019\Community\VC\Tools\MSVC\14.29.30133\atlmfc\include\afx.inl
;	COMDAT ?AssertValid@CObject@@UBEXXZ
_TEXT	SEGMENT
?AssertValid@CObject@@UBEXXZ PROC			; CObject::AssertValid, COMDAT
; _this$ = ecx

; 120  : 	{ /* no asserts in release builds */ }

  00000	c2 00 00	 ret	 0
?AssertValid@CObject@@UBEXXZ ENDP			; CObject::AssertValid
_TEXT	ENDS
; Function compile flags: /Ogtp
; File C:\Program Files (x86)\Microsoft Visual Studio\2019\Community\VC\Tools\MSVC\14.29.30133\atlmfc\include\afx.inl
;	COMDAT ?Serialize@CObject@@UAEXAAVCArchive@@@Z
_TEXT	SEGMENT
___formal$ = 8						; size = 4
?Serialize@CObject@@UAEXAAVCArchive@@@Z PROC		; CObject::Serialize, COMDAT
; _this$ = ecx

; 106  : 	{ /* CObject does not serialize anything by default */ }

  00000	c2 04 00	 ret	 4
?Serialize@CObject@@UAEXAAVCArchive@@@Z ENDP		; CObject::Serialize
_TEXT	ENDS
; Function compile flags: /Ogtp
; File D:\git\src\IBK\IBK_DRFN\ProjSrc\SrcChartEx\ChartAddIn\ChartEnvSetupDlgAddIn\ChartEnvSetupDlgAddIn\Setting_Special_Type_B.cpp
;	COMDAT ?__empty_global_delete@@YAXPAXI@Z
_TEXT	SEGMENT
___formal$ = 8						; size = 4
___formal$ = 12						; size = 4
?__empty_global_delete@@YAXPAXI@Z PROC			; __empty_global_delete, COMDAT

  00000	c2 00 00	 ret	 0
?__empty_global_delete@@YAXPAXI@Z ENDP			; __empty_global_delete
_TEXT	ENDS
; Function compile flags: /Ogtp
; File D:\git\src\IBK\IBK_DRFN\ProjSrc\SrcChartEx\ChartAddIn\ChartEnvSetupDlgAddIn\ChartEnvSetupDlgAddIn\Setting_Special_Type_B.cpp
;	COMDAT ?__empty_global_delete@@YAXPAX@Z
_TEXT	SEGMENT
___formal$ = 8						; size = 4
?__empty_global_delete@@YAXPAX@Z PROC			; __empty_global_delete, COMDAT

  00000	c2 00 00	 ret	 0
?__empty_global_delete@@YAXPAX@Z ENDP			; __empty_global_delete
_TEXT	ENDS
END
