; Listing generated by Microsoft (R) Optimizing Compiler Version 19.29.30145.0 

	TITLE	D:\git\src\IBK\IBK_DRFN\#DRfn-CS\_Obj\ChartEnvSetupDlgAddIn\Setting_Price.obj
	.686P
	.XMM
	include listing.inc
	.model	flat

INCLUDELIB MSVCRT
INCLUDELIB OLDNAMES

PUBLIC	??_C@_01GBGANLPD@0@				; `string'
PUBLIC	??_C@_01HIHLOKLC@1@				; `string'
PUBLIC	??_C@_01FDFGLJHB@2@				; `string'
PUBLIC	??_C@_01EKENIIDA@3@				; `string'
PUBLIC	??_C@_01FAMBOPH@4@				; `string'
PUBLIC	??_C@_01BMBHCPLG@5@				; `string'
PUBLIC	??_C@_01DHDKHMHF@6@				; `string'
PUBLIC	??_C@_01COCBENDE@7@				; `string'
PUBLIC	??_C@_01KJLJFBPL@8@				; `string'
PUBLIC	??_C@_01LAKCGALK@9@				; `string'
PUBLIC	??_C@_02PKFBJPLJ@10@				; `string'
PUBLIC	??_C@_02ODEKKOPI@11@				; `string'
PUBLIC	??_C@_02MIGHPNDL@12@				; `string'
PUBLIC	??_C@_02NBHMMMHK@13@				; `string'
PUBLIC	??_C@_02JODNFKLN@14@				; `string'
PUBLIC	??_C@_02IHCGGLPM@15@				; `string'
PUBLIC	??_C@_02KMALDIDP@16@				; `string'
PUBLIC	??_C@_02LFBAAJHO@17@				; `string'
PUBLIC	??_C@_02DCIIBFLB@18@				; `string'
PUBLIC	??_C@_02CLJDCEPA@19@				; `string'
PUBLIC	??_C@_02PIBHCBOA@20@				; `string'
PUBLIC	??_C@_02OBAMBAKB@21@				; `string'
PUBLIC	??_C@_02MKCBEDGC@22@				; `string'
PUBLIC	??_C@_02NDDKHCCD@23@				; `string'
PUBLIC	??_C@_02JMHLOEOE@24@				; `string'
;	COMDAT ??_C@_02JMHLOEOE@24@
CONST	SEGMENT
??_C@_02JMHLOEOE@24@ DB '24', 00H			; `string'
CONST	ENDS
;	COMDAT ??_C@_02NDDKHCCD@23@
CONST	SEGMENT
??_C@_02NDDKHCCD@23@ DB '23', 00H			; `string'
CONST	ENDS
;	COMDAT ??_C@_02MKCBEDGC@22@
CONST	SEGMENT
??_C@_02MKCBEDGC@22@ DB '22', 00H			; `string'
CONST	ENDS
;	COMDAT ??_C@_02OBAMBAKB@21@
CONST	SEGMENT
??_C@_02OBAMBAKB@21@ DB '21', 00H			; `string'
CONST	ENDS
;	COMDAT ??_C@_02PIBHCBOA@20@
CONST	SEGMENT
??_C@_02PIBHCBOA@20@ DB '20', 00H			; `string'
CONST	ENDS
;	COMDAT ??_C@_02CLJDCEPA@19@
CONST	SEGMENT
??_C@_02CLJDCEPA@19@ DB '19', 00H			; `string'
CONST	ENDS
;	COMDAT ??_C@_02DCIIBFLB@18@
CONST	SEGMENT
??_C@_02DCIIBFLB@18@ DB '18', 00H			; `string'
CONST	ENDS
;	COMDAT ??_C@_02LFBAAJHO@17@
CONST	SEGMENT
??_C@_02LFBAAJHO@17@ DB '17', 00H			; `string'
CONST	ENDS
;	COMDAT ??_C@_02KMALDIDP@16@
CONST	SEGMENT
??_C@_02KMALDIDP@16@ DB '16', 00H			; `string'
CONST	ENDS
;	COMDAT ??_C@_02IHCGGLPM@15@
CONST	SEGMENT
??_C@_02IHCGGLPM@15@ DB '15', 00H			; `string'
CONST	ENDS
;	COMDAT ??_C@_02JODNFKLN@14@
CONST	SEGMENT
??_C@_02JODNFKLN@14@ DB '14', 00H			; `string'
CONST	ENDS
;	COMDAT ??_C@_02NBHMMMHK@13@
CONST	SEGMENT
??_C@_02NBHMMMHK@13@ DB '13', 00H			; `string'
CONST	ENDS
;	COMDAT ??_C@_02MIGHPNDL@12@
CONST	SEGMENT
??_C@_02MIGHPNDL@12@ DB '12', 00H			; `string'
CONST	ENDS
;	COMDAT ??_C@_02ODEKKOPI@11@
CONST	SEGMENT
??_C@_02ODEKKOPI@11@ DB '11', 00H			; `string'
CONST	ENDS
;	COMDAT ??_C@_02PKFBJPLJ@10@
CONST	SEGMENT
??_C@_02PKFBJPLJ@10@ DB '10', 00H			; `string'
CONST	ENDS
;	COMDAT ??_C@_01LAKCGALK@9@
CONST	SEGMENT
??_C@_01LAKCGALK@9@ DB '9', 00H				; `string'
CONST	ENDS
;	COMDAT ??_C@_01KJLJFBPL@8@
CONST	SEGMENT
??_C@_01KJLJFBPL@8@ DB '8', 00H				; `string'
CONST	ENDS
;	COMDAT ??_C@_01COCBENDE@7@
CONST	SEGMENT
??_C@_01COCBENDE@7@ DB '7', 00H				; `string'
CONST	ENDS
;	COMDAT ??_C@_01DHDKHMHF@6@
CONST	SEGMENT
??_C@_01DHDKHMHF@6@ DB '6', 00H				; `string'
CONST	ENDS
;	COMDAT ??_C@_01BMBHCPLG@5@
CONST	SEGMENT
??_C@_01BMBHCPLG@5@ DB '5', 00H				; `string'
CONST	ENDS
;	COMDAT ??_C@_01FAMBOPH@4@
CONST	SEGMENT
??_C@_01FAMBOPH@4@ DB '4', 00H				; `string'
CONST	ENDS
;	COMDAT ??_C@_01EKENIIDA@3@
CONST	SEGMENT
??_C@_01EKENIIDA@3@ DB '3', 00H				; `string'
CONST	ENDS
;	COMDAT ??_C@_01FDFGLJHB@2@
CONST	SEGMENT
??_C@_01FDFGLJHB@2@ DB '2', 00H				; `string'
CONST	ENDS
;	COMDAT ??_C@_01HIHLOKLC@1@
CONST	SEGMENT
??_C@_01HIHLOKLC@1@ DB '1', 00H				; `string'
CONST	ENDS
;	COMDAT ??_C@_01GBGANLPD@0@
CONST	SEGMENT
??_C@_01GBGANLPD@0@ DB '0', 00H				; `string'
CONST	ENDS
PUBLIC	?__empty_global_delete@@YAXPAX@Z		; __empty_global_delete
PUBLIC	?__empty_global_delete@@YAXPAXI@Z		; __empty_global_delete
PUBLIC	?Serialize@CObject@@UAEXAAVCArchive@@@Z		; CObject::Serialize
PUBLIC	?AssertValid@CObject@@UBEXXZ			; CObject::AssertValid
PUBLIC	?Dump@CObject@@UBEXAAVCDumpContext@@@Z		; CObject::Dump
PUBLIC	?DoDataExchange@CWnd@@MAEXPAVCDataExchange@@@Z	; CWnd::DoDataExchange
PUBLIC	?BeginModalState@CWnd@@UAEXXZ			; CWnd::BeginModalState
PUBLIC	?EndModalState@CWnd@@UAEXXZ			; CWnd::EndModalState
PUBLIC	?Create@CDialog@@UAEHIPAVCWnd@@@Z		; CDialog::Create
PUBLIC	??_GCStatic@@UAEPAXI@Z				; CStatic::`scalar deleting destructor'
PUBLIC	??_GCButton@@UAEPAXI@Z				; CButton::`scalar deleting destructor'
PUBLIC	??1CCommonDialog@@UAE@XZ			; CCommonDialog::~CCommonDialog
PUBLIC	??_GCCommonDialog@@UAEPAXI@Z			; CCommonDialog::`scalar deleting destructor'
PUBLIC	??1CColorDialog@@UAE@XZ				; CColorDialog::~CColorDialog
PUBLIC	??1ILPCSTR135914@@QAE@XZ			; ILPCSTR135914::~ILPCSTR135914
PUBLIC	??0CSetting_Price@@QAE@PAUIChartOCX135914@@PAVCWnd@@1@Z ; CSetting_Price::CSetting_Price
PUBLIC	??1CSetting_Price@@UAE@XZ			; CSetting_Price::~CSetting_Price
PUBLIC	?PreTranslateMessage@CSetting_Price@@UAEHPAUtagMSG@@@Z ; CSetting_Price::PreTranslateMessage
PUBLIC	?DoDataExchange@CSetting_Price@@MAEXPAVCDataExchange@@@Z ; CSetting_Price::DoDataExchange
PUBLIC	?OnInitDialog@CSetting_Price@@MAEHXZ		; CSetting_Price::OnInitDialog
PUBLIC	?OnEquiVolumeChart@CSetting_Price@@IAEXXZ	; CSetting_Price::OnEquiVolumeChart
PUBLIC	?OnCandleVolumeChart@CSetting_Price@@IAEXXZ	; CSetting_Price::OnCandleVolumeChart
PUBLIC	?OnFlowChart@CSetting_Price@@IAEXXZ		; CSetting_Price::OnFlowChart
PUBLIC	?OnNewBarChart@CSetting_Price@@IAEXXZ		; CSetting_Price::OnNewBarChart
PUBLIC	?OnBarChart@CSetting_Price@@IAEXXZ		; CSetting_Price::OnBarChart
PUBLIC	?OnBongChart@CSetting_Price@@IAEXXZ		; CSetting_Price::OnBongChart
PUBLIC	?OnLineChart@CSetting_Price@@IAEXXZ		; CSetting_Price::OnLineChart
PUBLIC	?OnSteadyNormal@CSetting_Price@@IAEXXZ		; CSetting_Price::OnSteadyNormal
PUBLIC	?OnSteadyBeforeclose@CSetting_Price@@IAEXXZ	; CSetting_Price::OnSteadyBeforeclose
PUBLIC	?OnSteadySameclose@CSetting_Price@@IAEXXZ	; CSetting_Price::OnSteadySameclose
PUBLIC	?OnBtnUp@CSetting_Price@@IAEXXZ			; CSetting_Price::OnBtnUp
PUBLIC	?OnBtnDown@CSetting_Price@@IAEXXZ		; CSetting_Price::OnBtnDown
PUBLIC	?OnBtnSteady@CSetting_Price@@IAEXXZ		; CSetting_Price::OnBtnSteady
PUBLIC	?OnSelchangeThickness@CSetting_Price@@IAEXXZ	; CSetting_Price::OnSelchangeThickness
PUBLIC	?OnSelchangeDrawstyle@CSetting_Price@@IAEXXZ	; CSetting_Price::OnSelchangeDrawstyle
PUBLIC	?GetThisMessageMap@CSetting_Price@@KGPBUAFX_MSGMAP@@XZ ; CSetting_Price::GetThisMessageMap
PUBLIC	?GetMessageMap@CSetting_Price@@MBEPBUAFX_MSGMAP@@XZ ; CSetting_Price::GetMessageMap
PUBLIC	?Initial@CSetting_Price@@MAEXPAUIGraphInfo135914@@@Z ; CSetting_Price::Initial
PUBLIC	?OnApply@CSetting_Price@@MAEHPAUIGraphInfo135914@@@Z ; CSetting_Price::OnApply
PUBLIC	?OnApply_ColorButton@CSetting_Price@@IAEXXZ	; CSetting_Price::OnApply_ColorButton
PUBLIC	?ShowHide_FillUpDownNCombo@CSetting_Price@@IAEXH@Z ; CSetting_Price::ShowHide_FillUpDownNCombo
PUBLIC	?ShowHide_SteadyRadio@CSetting_Price@@IAEXH@Z	; CSetting_Price::ShowHide_SteadyRadio
PUBLIC	?Initial_ColorButton@CSetting_Price@@IAEXXZ	; CSetting_Price::Initial_ColorButton
PUBLIC	?Initial_ColorBtn@CSetting_Price@@IAEXH@Z	; CSetting_Price::Initial_ColorBtn
PUBLIC	?Set_DrawStyle@CSetting_Price@@IAEXXZ		; CSetting_Price::Set_DrawStyle
PUBLIC	??_GCSetting_Price@@UAEPAXI@Z			; CSetting_Price::`scalar deleting destructor'
PUBLIC	??1CMultiLanguageResourceSetter@@QAE@XZ		; CMultiLanguageResourceSetter::~CMultiLanguageResourceSetter
PUBLIC	??_C@_02DPKJAMEF@?$CFd@				; `string'
PUBLIC	??_7CStatic@@6B@				; CStatic::`vftable'
PUBLIC	??_7CButton@@6B@				; CButton::`vftable'
PUBLIC	??_7CCommonDialog@@6B@				; CCommonDialog::`vftable'
PUBLIC	??_R0?AVCObject@@@8				; CObject `RTTI Type Descriptor'
PUBLIC	??_R3CObject@@8					; CObject::`RTTI Class Hierarchy Descriptor'
PUBLIC	??_R2CObject@@8					; CObject::`RTTI Base Class Array'
PUBLIC	??_R1A@?0A@EA@CObject@@8			; CObject::`RTTI Base Class Descriptor at (0,-1,0,64)'
PUBLIC	??_R4CStatic@@6B@				; CStatic::`RTTI Complete Object Locator'
PUBLIC	??_R0?AVCStatic@@@8				; CStatic `RTTI Type Descriptor'
PUBLIC	??_R3CStatic@@8					; CStatic::`RTTI Class Hierarchy Descriptor'
PUBLIC	??_R2CStatic@@8					; CStatic::`RTTI Base Class Array'
PUBLIC	??_R1A@?0A@EA@CStatic@@8			; CStatic::`RTTI Base Class Descriptor at (0,-1,0,64)'
PUBLIC	??_R1A@?0A@EA@CWnd@@8				; CWnd::`RTTI Base Class Descriptor at (0,-1,0,64)'
PUBLIC	??_R0?AVCWnd@@@8				; CWnd `RTTI Type Descriptor'
PUBLIC	??_R3CWnd@@8					; CWnd::`RTTI Class Hierarchy Descriptor'
PUBLIC	??_R2CWnd@@8					; CWnd::`RTTI Base Class Array'
PUBLIC	??_R1A@?0A@EA@CCmdTarget@@8			; CCmdTarget::`RTTI Base Class Descriptor at (0,-1,0,64)'
PUBLIC	??_R0?AVCCmdTarget@@@8				; CCmdTarget `RTTI Type Descriptor'
PUBLIC	??_R3CCmdTarget@@8				; CCmdTarget::`RTTI Class Hierarchy Descriptor'
PUBLIC	??_R2CCmdTarget@@8				; CCmdTarget::`RTTI Base Class Array'
PUBLIC	??_R4CButton@@6B@				; CButton::`RTTI Complete Object Locator'
PUBLIC	??_R0?AVCButton@@@8				; CButton `RTTI Type Descriptor'
PUBLIC	??_R3CButton@@8					; CButton::`RTTI Class Hierarchy Descriptor'
PUBLIC	??_R2CButton@@8					; CButton::`RTTI Base Class Array'
PUBLIC	??_R1A@?0A@EA@CButton@@8			; CButton::`RTTI Base Class Descriptor at (0,-1,0,64)'
PUBLIC	??_R4CCommonDialog@@6B@				; CCommonDialog::`RTTI Complete Object Locator'
PUBLIC	??_R0?AVCCommonDialog@@@8			; CCommonDialog `RTTI Type Descriptor'
PUBLIC	??_R3CCommonDialog@@8				; CCommonDialog::`RTTI Class Hierarchy Descriptor'
PUBLIC	??_R2CCommonDialog@@8				; CCommonDialog::`RTTI Base Class Array'
PUBLIC	??_R1A@?0A@EA@CCommonDialog@@8			; CCommonDialog::`RTTI Base Class Descriptor at (0,-1,0,64)'
PUBLIC	??_R1A@?0A@EA@CDialog@@8			; CDialog::`RTTI Base Class Descriptor at (0,-1,0,64)'
PUBLIC	??_R0?AVCDialog@@@8				; CDialog `RTTI Type Descriptor'
PUBLIC	??_R3CDialog@@8					; CDialog::`RTTI Class Hierarchy Descriptor'
PUBLIC	??_R2CDialog@@8					; CDialog::`RTTI Base Class Array'
PUBLIC	??_7CSetting_Price@@6B@				; CSetting_Price::`vftable'
PUBLIC	??_C@_0BA@ENJOCHIO@LoadResourceDLL@		; `string'
PUBLIC	??_C@_0O@CLKGAOCK@CGraphSetting@		; `string'
PUBLIC	??_R4CSetting_Price@@6B@			; CSetting_Price::`RTTI Complete Object Locator'
PUBLIC	??_R0?AVCSetting_Price@@@8			; CSetting_Price `RTTI Type Descriptor'
PUBLIC	??_R3CSetting_Price@@8				; CSetting_Price::`RTTI Class Hierarchy Descriptor'
PUBLIC	??_R2CSetting_Price@@8				; CSetting_Price::`RTTI Base Class Array'
PUBLIC	??_R1A@?0A@EA@CSetting_Price@@8			; CSetting_Price::`RTTI Base Class Descriptor at (0,-1,0,64)'
PUBLIC	??_R1A@?0A@EA@CBaseDialog@@8			; CBaseDialog::`RTTI Base Class Descriptor at (0,-1,0,64)'
PUBLIC	??_R0?AVCBaseDialog@@@8				; CBaseDialog `RTTI Type Descriptor'
PUBLIC	??_R3CBaseDialog@@8				; CBaseDialog::`RTTI Class Hierarchy Descriptor'
PUBLIC	??_R2CBaseDialog@@8				; CBaseDialog::`RTTI Base Class Array'
PUBLIC	__real@3ff0000000000000
PUBLIC	__real@bff0000000000000
EXTRN	??3@YAXPAX@Z:PROC				; operator delete
EXTRN	?__global_delete@@YAXPAXI@Z:PROC		; __global_delete
EXTRN	___std_terminate:PROC
EXTRN	__imp__GetProcAddress@8:PROC
EXTRN	__imp__SendMessageA@16:PROC
EXTRN	__imp__IsWindowVisible@4:PROC
EXTRN	__imp__EnableWindow@8:PROC
EXTRN	__imp__InvalidateRect@12:PROC
EXTRN	__imp__GetParent@4:PROC
EXTRN	__imp_??0?$CStringT@DV?$StrTraitMFC_DLL@DV?$ChTraitsCRT@D@ATL@@@@@ATL@@QAE@XZ:PROC
EXTRN	__imp_??0?$CStringT@DV?$StrTraitMFC_DLL@DV?$ChTraitsCRT@D@ATL@@@@@ATL@@QAE@PBD@Z:PROC
EXTRN	__imp_??1?$CStringT@DV?$StrTraitMFC_DLL@DV?$ChTraitsCRT@D@ATL@@@@@ATL@@QAE@XZ:PROC
EXTRN	__imp_??4?$CStringT@DV?$StrTraitMFC_DLL@DV?$ChTraitsCRT@D@ATL@@@@@ATL@@QAEAAV01@ABV01@@Z:PROC
EXTRN	__imp_?Replace@?$CStringT@DV?$StrTraitMFC_DLL@DV?$ChTraitsCRT@D@ATL@@@@@ATL@@QAEHDD@Z:PROC
EXTRN	__imp_?ReverseFind@?$CStringT@DV?$StrTraitMFC_DLL@DV?$ChTraitsCRT@D@ATL@@@@@ATL@@QBEHD@Z:PROC
EXTRN	__imp_?TrimRight@?$CStringT@DV?$StrTraitMFC_DLL@DV?$ChTraitsCRT@D@ATL@@@@@ATL@@QAEAAV12@D@Z:PROC
EXTRN	__imp_?Mid@?$CStringT@DV?$StrTraitMFC_DLL@DV?$ChTraitsCRT@D@ATL@@@@@ATL@@QBE?AV12@H@Z:PROC
EXTRN	__imp_?Format@?$CStringT@DV?$StrTraitMFC_DLL@DV?$ChTraitsCRT@D@ATL@@@@@ATL@@QAAXPBDZZ:PROC
EXTRN	__imp_?LoadStringA@?$CStringT@DV?$StrTraitMFC_DLL@DV?$ChTraitsCRT@D@ATL@@@@@ATL@@QAEHI@Z:PROC
EXTRN	?AfxGetModuleState@@YGPAVAFX_MODULE_STATE@@XZ:PROC ; AfxGetModuleState
EXTRN	?AfxGetStaticModuleState@@YGPAVAFX_MODULE_STATE@@XZ:PROC ; AfxGetStaticModuleState
EXTRN	?DDX_Radio@@YGXPAVCDataExchange@@HAAH@Z:PROC	; DDX_Radio
EXTRN	?DDX_Control@@YGXPAVCDataExchange@@HAAVCWnd@@@Z:PROC ; DDX_Control
EXTRN	?OnCmdMsg@CCmdTarget@@UAEHIHPAXPAUAFX_CMDHANDLERINFO@@@Z:PROC ; CCmdTarget::OnCmdMsg
EXTRN	?IsInvokeAllowed@CCmdTarget@@UAEHJ@Z:PROC	; CCmdTarget::IsInvokeAllowed
EXTRN	?GetDispatchIID@CCmdTarget@@UAEHPAU_GUID@@@Z:PROC ; CCmdTarget::GetDispatchIID
EXTRN	?GetTypeInfoCount@CCmdTarget@@UAEIXZ:PROC	; CCmdTarget::GetTypeInfoCount
EXTRN	?GetTypeLibCache@CCmdTarget@@UAEPAVCTypeLibCache@@XZ:PROC ; CCmdTarget::GetTypeLibCache
EXTRN	?GetTypeLib@CCmdTarget@@UAEJKPAPAUITypeLib@@@Z:PROC ; CCmdTarget::GetTypeLib
EXTRN	?GetCommandMap@CCmdTarget@@MBEPBUAFX_OLECMDMAP@@XZ:PROC ; CCmdTarget::GetCommandMap
EXTRN	?GetDispatchMap@CCmdTarget@@MBEPBUAFX_DISPMAP@@XZ:PROC ; CCmdTarget::GetDispatchMap
EXTRN	?GetConnectionMap@CCmdTarget@@MBEPBUAFX_CONNECTIONMAP@@XZ:PROC ; CCmdTarget::GetConnectionMap
EXTRN	?GetEventSinkMap@CCmdTarget@@MBEPBUAFX_EVENTSINKMAP@@XZ:PROC ; CCmdTarget::GetEventSinkMap
EXTRN	?OnCreateAggregates@CCmdTarget@@UAEHXZ:PROC	; CCmdTarget::OnCreateAggregates
EXTRN	?GetInterfaceHook@CCmdTarget@@UAEPAUIUnknown@@PBX@Z:PROC ; CCmdTarget::GetInterfaceHook
EXTRN	?GetExtraConnectionPoints@CCmdTarget@@MAEHPAVCPtrArray@@@Z:PROC ; CCmdTarget::GetExtraConnectionPoints
EXTRN	?GetConnectionHook@CCmdTarget@@MAEPAUIConnectionPoint@@ABU_GUID@@@Z:PROC ; CCmdTarget::GetConnectionHook
EXTRN	??0CWnd@@QAE@XZ:PROC				; CWnd::CWnd
EXTRN	?FromHandle@CWnd@@SGPAV1@PAUHWND__@@@Z:PROC	; CWnd::FromHandle
EXTRN	?PreSubclassWindow@CWnd@@UAEXXZ:PROC		; CWnd::PreSubclassWindow
EXTRN	?Create@CWnd@@UAEHPBD0KABUtagRECT@@PAV1@IPAUCCreateContext@@@Z:PROC ; CWnd::Create
EXTRN	?CreateEx@CWnd@@UAEHKPBD0KHHHHPAUHWND__@@PAUHMENU__@@PAX@Z:PROC ; CWnd::CreateEx
EXTRN	?CreateEx@CWnd@@UAEHKPBD0KABUtagRECT@@PAV1@IPAX@Z:PROC ; CWnd::CreateEx
EXTRN	?DestroyWindow@CWnd@@UAEHXZ:PROC		; CWnd::DestroyWindow
EXTRN	?PreCreateWindow@CWnd@@UAEHAAUtagCREATESTRUCTA@@@Z:PROC ; CWnd::PreCreateWindow
EXTRN	?CalcWindowRect@CWnd@@UAEXPAUtagRECT@@I@Z:PROC	; CWnd::CalcWindowRect
EXTRN	?GetDlgItem@CWnd@@QBEPAV1@H@Z:PROC		; CWnd::GetDlgItem
EXTRN	?SetWindowTextA@CWnd@@QAEXPBD@Z:PROC		; CWnd::SetWindowTextA
EXTRN	?GetMenu@CWnd@@UBEPAVCMenu@@XZ:PROC		; CWnd::GetMenu
EXTRN	?SetMenu@CWnd@@UAEHPAVCMenu@@@Z:PROC		; CWnd::SetMenu
EXTRN	?ShowWindow@CWnd@@QAEHH@Z:PROC			; CWnd::ShowWindow
EXTRN	?OnToolHitTest@CWnd@@UBEHVCPoint@@PAUtagTOOLINFOA@@@Z:PROC ; CWnd::OnToolHitTest
EXTRN	?EnableWindow@CWnd@@QAEHH@Z:PROC		; CWnd::EnableWindow
EXTRN	?GetScrollBarCtrl@CWnd@@UBEPAVCScrollBar@@H@Z:PROC ; CWnd::GetScrollBarCtrl
EXTRN	?UpdateData@CWnd@@QAEHH@Z:PROC			; CWnd::UpdateData
EXTRN	?WinHelpA@CWnd@@UAEXKI@Z:PROC			; CWnd::WinHelpA
EXTRN	?HtmlHelpA@CWnd@@UAEXKI@Z:PROC			; CWnd::HtmlHelpA
EXTRN	?WinHelpInternal@CWnd@@UAEXKI@Z:PROC		; CWnd::WinHelpInternal
EXTRN	?ContinueModal@CWnd@@UAEHXZ:PROC		; CWnd::ContinueModal
EXTRN	?EndModalLoop@CWnd@@UAEXH@Z:PROC		; CWnd::EndModalLoop
EXTRN	?OnDrawIconicThumbnailOrLivePreview@CWnd@@UAEXAAVCDC@@VCRect@@VCSize@@HAAH@Z:PROC ; CWnd::OnDrawIconicThumbnailOrLivePreview
EXTRN	?GetInterfaceMap@CWnd@@MBEPBUAFX_INTERFACEMAP@@XZ:PROC ; CWnd::GetInterfaceMap
EXTRN	?EnsureStdObj@CWnd@@UAEJXZ:PROC			; CWnd::EnsureStdObj
EXTRN	?get_accParent@CWnd@@UAEJPAPAUIDispatch@@@Z:PROC ; CWnd::get_accParent
EXTRN	?get_accChildCount@CWnd@@UAEJPAJ@Z:PROC		; CWnd::get_accChildCount
EXTRN	?get_accChild@CWnd@@UAEJUtagVARIANT@@PAPAUIDispatch@@@Z:PROC ; CWnd::get_accChild
EXTRN	?get_accName@CWnd@@UAEJUtagVARIANT@@PAPA_W@Z:PROC ; CWnd::get_accName
EXTRN	?get_accValue@CWnd@@UAEJUtagVARIANT@@PAPA_W@Z:PROC ; CWnd::get_accValue
EXTRN	?get_accDescription@CWnd@@UAEJUtagVARIANT@@PAPA_W@Z:PROC ; CWnd::get_accDescription
EXTRN	?get_accRole@CWnd@@UAEJUtagVARIANT@@PAU2@@Z:PROC ; CWnd::get_accRole
EXTRN	?get_accState@CWnd@@UAEJUtagVARIANT@@PAU2@@Z:PROC ; CWnd::get_accState
EXTRN	?get_accHelp@CWnd@@UAEJUtagVARIANT@@PAPA_W@Z:PROC ; CWnd::get_accHelp
EXTRN	?get_accHelpTopic@CWnd@@UAEJPAPA_WUtagVARIANT@@PAJ@Z:PROC ; CWnd::get_accHelpTopic
EXTRN	?get_accKeyboardShortcut@CWnd@@UAEJUtagVARIANT@@PAPA_W@Z:PROC ; CWnd::get_accKeyboardShortcut
EXTRN	?get_accFocus@CWnd@@UAEJPAUtagVARIANT@@@Z:PROC	; CWnd::get_accFocus
EXTRN	?get_accSelection@CWnd@@UAEJPAUtagVARIANT@@@Z:PROC ; CWnd::get_accSelection
EXTRN	?get_accDefaultAction@CWnd@@UAEJUtagVARIANT@@PAPA_W@Z:PROC ; CWnd::get_accDefaultAction
EXTRN	?accSelect@CWnd@@UAEJJUtagVARIANT@@@Z:PROC	; CWnd::accSelect
EXTRN	?accLocation@CWnd@@UAEJPAJ000UtagVARIANT@@@Z:PROC ; CWnd::accLocation
EXTRN	?accNavigate@CWnd@@UAEJJUtagVARIANT@@PAU2@@Z:PROC ; CWnd::accNavigate
EXTRN	?accHitTest@CWnd@@UAEJJJPAUtagVARIANT@@@Z:PROC	; CWnd::accHitTest
EXTRN	?accDoDefaultAction@CWnd@@UAEJUtagVARIANT@@@Z:PROC ; CWnd::accDoDefaultAction
EXTRN	?put_accName@CWnd@@UAEJUtagVARIANT@@PA_W@Z:PROC	; CWnd::put_accName
EXTRN	?put_accValue@CWnd@@UAEJUtagVARIANT@@PA_W@Z:PROC ; CWnd::put_accValue
EXTRN	?SetProxy@CWnd@@UAEJPAUIAccessibleProxy@@@Z:PROC ; CWnd::SetProxy
EXTRN	?CreateAccessibleProxy@CWnd@@UAEJIJPAJ@Z:PROC	; CWnd::CreateAccessibleProxy
EXTRN	?OnCommand@CWnd@@MAEHIJ@Z:PROC			; CWnd::OnCommand
EXTRN	?OnNotify@CWnd@@MAEHIJPAJ@Z:PROC		; CWnd::OnNotify
EXTRN	?GetSuperWndProcAddr@CWnd@@MAEPAP6GJPAUHWND__@@IIJ@ZXZ:PROC ; CWnd::GetSuperWndProcAddr
EXTRN	?PreTranslateMessage@CWnd@@UAEHPAUtagMSG@@@Z:PROC ; CWnd::PreTranslateMessage
EXTRN	?OnAmbientProperty@CWnd@@UAEHPAVCOleControlSite@@JPAUtagVARIANT@@@Z:PROC ; CWnd::OnAmbientProperty
EXTRN	?WindowProc@CWnd@@MAEJIIJ@Z:PROC		; CWnd::WindowProc
EXTRN	?OnWndMsg@CWnd@@MAEHIIJPAJ@Z:PROC		; CWnd::OnWndMsg
EXTRN	?DefWindowProcA@CWnd@@MAEJIIJ@Z:PROC		; CWnd::DefWindowProcA
EXTRN	?PostNcDestroy@CWnd@@MAEXXZ:PROC		; CWnd::PostNcDestroy
EXTRN	?OnChildNotify@CWnd@@MAEHIIJPAJ@Z:PROC		; CWnd::OnChildNotify
EXTRN	?OnTouchInputs@CWnd@@MAEHIPAUtagTOUCHINPUT@@@Z:PROC ; CWnd::OnTouchInputs
EXTRN	?OnTouchInput@CWnd@@MAEHVCPoint@@HHPAUtagTOUCHINPUT@@@Z:PROC ; CWnd::OnTouchInput
EXTRN	?GetGestureStatus@CWnd@@MAEKVCPoint@@@Z:PROC	; CWnd::GetGestureStatus
EXTRN	?OnGestureZoom@CWnd@@MAEHVCPoint@@J@Z:PROC	; CWnd::OnGestureZoom
EXTRN	?OnGesturePan@CWnd@@MAEHVCPoint@@0@Z:PROC	; CWnd::OnGesturePan
EXTRN	?OnGestureRotate@CWnd@@MAEHVCPoint@@N@Z:PROC	; CWnd::OnGestureRotate
EXTRN	?OnGestureTwoFingerTap@CWnd@@MAEHVCPoint@@@Z:PROC ; CWnd::OnGestureTwoFingerTap
EXTRN	?OnGesturePressAndTap@CWnd@@MAEHVCPoint@@J@Z:PROC ; CWnd::OnGesturePressAndTap
EXTRN	?ResizeDynamicLayout@CWnd@@MAEXXZ:PROC		; CWnd::ResizeDynamicLayout
EXTRN	?CheckAutoCenter@CWnd@@UAEHXZ:PROC		; CWnd::CheckAutoCenter
EXTRN	?IsFrameWnd@CWnd@@UBEHXZ:PROC			; CWnd::IsFrameWnd
EXTRN	?OnFinalRelease@CWnd@@UAEXXZ:PROC		; CWnd::OnFinalRelease
EXTRN	?CreateControlContainer@CWnd@@MAEHPAPAVCOleControlContainer@@@Z:PROC ; CWnd::CreateControlContainer
EXTRN	?CreateControlSite@CWnd@@MAEHPAVCOleControlContainer@@PAPAVCOleControlSite@@IABU_GUID@@@Z:PROC ; CWnd::CreateControlSite
EXTRN	?SetOccDialogInfo@CWnd@@MAEHPAU_AFX_OCC_DIALOG_INFO@@@Z:PROC ; CWnd::SetOccDialogInfo
EXTRN	?GetOccDialogInfo@CWnd@@MAEPAU_AFX_OCC_DIALOG_INFO@@XZ:PROC ; CWnd::GetOccDialogInfo
EXTRN	?GetMessageMap@CWnd@@MBEPBUAFX_MSGMAP@@XZ:PROC	; CWnd::GetMessageMap
EXTRN	?GetRuntimeClass@CDialog@@UBEPAUCRuntimeClass@@XZ:PROC ; CDialog::GetRuntimeClass
EXTRN	?Create@CDialog@@UAEHPBDPAVCWnd@@@Z:PROC	; CDialog::Create
EXTRN	?CreateIndirect@CDialog@@UAEHPBUDLGTEMPLATE@@PAVCWnd@@PAX@Z:PROC ; CDialog::CreateIndirect
EXTRN	?CreateIndirect@CDialog@@UAEHPAXPAVCWnd@@@Z:PROC ; CDialog::CreateIndirect
EXTRN	?DoModal@CDialog@@UAEHXZ:PROC			; CDialog::DoModal
EXTRN	?OnInitDialog@CDialog@@UAEHXZ:PROC		; CDialog::OnInitDialog
EXTRN	?OnSetFont@CDialog@@UAEXPAVCFont@@@Z:PROC	; CDialog::OnSetFont
EXTRN	?OnOK@CDialog@@MAEXXZ:PROC			; CDialog::OnOK
EXTRN	?OnCancel@CDialog@@MAEXXZ:PROC			; CDialog::OnCancel
EXTRN	??1CDialog@@UAE@XZ:PROC				; CDialog::~CDialog
EXTRN	?PreTranslateMessage@CDialog@@UAEHPAUtagMSG@@@Z:PROC ; CDialog::PreTranslateMessage
EXTRN	?OnCmdMsg@CDialog@@UAEHIHPAXPAUAFX_CMDHANDLERINFO@@@Z:PROC ; CDialog::OnCmdMsg
EXTRN	?CheckAutoCenter@CDialog@@UAEHXZ:PROC		; CDialog::CheckAutoCenter
EXTRN	?SetOccDialogInfo@CDialog@@MAEHPAU_AFX_OCC_DIALOG_INFO@@@Z:PROC ; CDialog::SetOccDialogInfo
EXTRN	?GetOccDialogInfo@CDialog@@MAEPAU_AFX_OCC_DIALOG_INFO@@XZ:PROC ; CDialog::GetOccDialogInfo
EXTRN	?PreInitDialog@CDialog@@MAEXXZ:PROC		; CDialog::PreInitDialog
EXTRN	?GetThisMessageMap@CDialog@@KGPBUAFX_MSGMAP@@XZ:PROC ; CDialog::GetThisMessageMap
EXTRN	?GetRuntimeClass@CStatic@@UBEPAUCRuntimeClass@@XZ:PROC ; CStatic::GetRuntimeClass
EXTRN	?Create@CStatic@@UAEHPBDKABUtagRECT@@PAVCWnd@@I@Z:PROC ; CStatic::Create
EXTRN	?DrawItem@CStatic@@UAEXPAUtagDRAWITEMSTRUCT@@@Z:PROC ; CStatic::DrawItem
EXTRN	??1CStatic@@UAE@XZ:PROC				; CStatic::~CStatic
EXTRN	?OnChildNotify@CStatic@@MAEHIIJPAJ@Z:PROC	; CStatic::OnChildNotify
EXTRN	??_ECStatic@@UAEPAXI@Z:PROC			; CStatic::`vector deleting destructor'
EXTRN	?GetRuntimeClass@CButton@@UBEPAUCRuntimeClass@@XZ:PROC ; CButton::GetRuntimeClass
EXTRN	?Create@CButton@@UAEHPBDKABUtagRECT@@PAVCWnd@@I@Z:PROC ; CButton::Create
EXTRN	?DrawItem@CButton@@UAEXPAUtagDRAWITEMSTRUCT@@@Z:PROC ; CButton::DrawItem
EXTRN	??1CButton@@UAE@XZ:PROC				; CButton::~CButton
EXTRN	?OnChildNotify@CButton@@MAEHIIJPAJ@Z:PROC	; CButton::OnChildNotify
EXTRN	??_ECButton@@UAEPAXI@Z:PROC			; CButton::`vector deleting destructor'
EXTRN	?AfxMessageBox@@YGHPBDII@Z:PROC			; AfxMessageBox
EXTRN	?GetRuntimeClass@CCommonDialog@@UBEPAUCRuntimeClass@@XZ:PROC ; CCommonDialog::GetRuntimeClass
EXTRN	?OnOK@CCommonDialog@@MAEXXZ:PROC		; CCommonDialog::OnOK
EXTRN	?OnCancel@CCommonDialog@@MAEXXZ:PROC		; CCommonDialog::OnCancel
EXTRN	?GetMessageMap@CCommonDialog@@MBEPBUAFX_MSGMAP@@XZ:PROC ; CCommonDialog::GetMessageMap
EXTRN	??_ECCommonDialog@@UAEPAXI@Z:PROC		; CCommonDialog::`vector deleting destructor'
EXTRN	??0CColorDialog@@QAE@KKPAVCWnd@@@Z:PROC		; CColorDialog::CColorDialog
EXTRN	?DoModal@CColorDialog@@UAEHXZ:PROC		; CColorDialog::DoModal
EXTRN	??0CBitmapItemComboBox@@QAE@XZ:PROC		; CBitmapItemComboBox::CBitmapItemComboBox
EXTRN	??1CBitmapItemComboBox@@UAE@XZ:PROC		; CBitmapItemComboBox::~CBitmapItemComboBox
EXTRN	??0CBaseDialog@@QAE@IPAVCWnd@@PAUIChartOCX135914@@0@Z:PROC ; CBaseDialog::CBaseDialog
EXTRN	??1CBaseDialog@@UAE@XZ:PROC			; CBaseDialog::~CBaseDialog
EXTRN	?SetTitle@CBaseDialog@@UAEXHABV?$CStringT@DV?$StrTraitMFC_DLL@DV?$ChTraitsCRT@D@ATL@@@@@ATL@@@Z:PROC ; CBaseDialog::SetTitle
EXTRN	?DoCalculate@CBaseDialog@@UAE_NXZ:PROC		; CBaseDialog::DoCalculate
EXTRN	?Initial_FillUp@CBaseDialog@@IAEXHAAVCButton@@@Z:PROC ; CBaseDialog::Initial_FillUp
EXTRN	?Initial_FillDown@CBaseDialog@@IAEXHAAVCButton@@@Z:PROC ; CBaseDialog::Initial_FillDown
EXTRN	?Initial_DrawStyleComboBox@CBaseDialog@@IAEXHAAVCBitmapItemComboBox@@@Z:PROC ; CBaseDialog::Initial_DrawStyleComboBox
EXTRN	?Initial_ThicknessComboBox@CBaseDialog@@IAEXHHAAVCBitmapItemComboBox@@@Z:PROC ; CBaseDialog::Initial_ThicknessComboBox
EXTRN	?OnApply_FillUp@CBaseDialog@@IAEXHAAVCButton@@@Z:PROC ; CBaseDialog::OnApply_FillUp
EXTRN	?OnApply_FillDown@CBaseDialog@@IAEXHAAVCButton@@@Z:PROC ; CBaseDialog::OnApply_FillDown
EXTRN	?OnApply_DrawStyle@CBaseDialog@@IAEXHAAVCBitmapItemComboBox@@@Z:PROC ; CBaseDialog::OnApply_DrawStyle
EXTRN	?OnApply_Thickness@CBaseDialog@@IAEXHAAVCBitmapItemComboBox@@@Z:PROC ; CBaseDialog::OnApply_Thickness
EXTRN	?itob@CBaseDialog@@IAE_NH@Z:PROC		; CBaseDialog::itob
EXTRN	??0CColorButton@@QAE@XZ:PROC			; CColorButton::CColorButton
EXTRN	??1CColorButton@@UAE@XZ:PROC			; CColorButton::~CColorButton
EXTRN	?GetColor@CColorButton@@QAEKXZ:PROC		; CColorButton::GetColor
EXTRN	?SetColor@CColorButton@@QAEXABK@Z:PROC		; CColorButton::SetColor
EXTRN	??_ECSetting_Price@@UAEPAXI@Z:PROC		; CSetting_Price::`vector deleting destructor'
EXTRN	?SetLogState@CGraphSetting@@QAEXH@Z:PROC	; CGraphSetting::SetLogState
EXTRN	?SetInvertScaleType@CGraphSetting@@QAEXH@Z:PROC	; CGraphSetting::SetInvertScaleType
EXTRN	@__security_check_cookie@4:PROC
EXTRN	___CxxFrameHandler3:PROC
EXTRN	??_7type_info@@6B@:QWORD			; type_info::`vftable'
EXTRN	?g_iMetaTable@@3VIMetaTable@@A:BYTE		; g_iMetaTable
EXTRN	___security_cookie:DWORD
EXTRN	__fltused:DWORD
;	COMDAT __real@bff0000000000000
CONST	SEGMENT
__real@bff0000000000000 DQ 0bff0000000000000r	; -1
CONST	ENDS
;	COMDAT __real@3ff0000000000000
CONST	SEGMENT
__real@3ff0000000000000 DQ 03ff0000000000000r	; 1
CONST	ENDS
;	COMDAT ??_R2CBaseDialog@@8
rdata$r	SEGMENT
??_R2CBaseDialog@@8 DD FLAT:??_R1A@?0A@EA@CBaseDialog@@8 ; CBaseDialog::`RTTI Base Class Array'
	DD	FLAT:??_R1A@?0A@EA@CDialog@@8
	DD	FLAT:??_R1A@?0A@EA@CWnd@@8
	DD	FLAT:??_R1A@?0A@EA@CCmdTarget@@8
	DD	FLAT:??_R1A@?0A@EA@CObject@@8
rdata$r	ENDS
;	COMDAT ??_R3CBaseDialog@@8
rdata$r	SEGMENT
??_R3CBaseDialog@@8 DD 00H				; CBaseDialog::`RTTI Class Hierarchy Descriptor'
	DD	00H
	DD	05H
	DD	FLAT:??_R2CBaseDialog@@8
rdata$r	ENDS
;	COMDAT ??_R0?AVCBaseDialog@@@8
data$rs	SEGMENT
??_R0?AVCBaseDialog@@@8 DD FLAT:??_7type_info@@6B@	; CBaseDialog `RTTI Type Descriptor'
	DD	00H
	DB	'.?AVCBaseDialog@@', 00H
data$rs	ENDS
;	COMDAT ??_R1A@?0A@EA@CBaseDialog@@8
rdata$r	SEGMENT
??_R1A@?0A@EA@CBaseDialog@@8 DD FLAT:??_R0?AVCBaseDialog@@@8 ; CBaseDialog::`RTTI Base Class Descriptor at (0,-1,0,64)'
	DD	04H
	DD	00H
	DD	0ffffffffH
	DD	00H
	DD	040H
	DD	FLAT:??_R3CBaseDialog@@8
rdata$r	ENDS
;	COMDAT ??_R1A@?0A@EA@CSetting_Price@@8
rdata$r	SEGMENT
??_R1A@?0A@EA@CSetting_Price@@8 DD FLAT:??_R0?AVCSetting_Price@@@8 ; CSetting_Price::`RTTI Base Class Descriptor at (0,-1,0,64)'
	DD	05H
	DD	00H
	DD	0ffffffffH
	DD	00H
	DD	040H
	DD	FLAT:??_R3CSetting_Price@@8
rdata$r	ENDS
;	COMDAT ??_R2CSetting_Price@@8
rdata$r	SEGMENT
??_R2CSetting_Price@@8 DD FLAT:??_R1A@?0A@EA@CSetting_Price@@8 ; CSetting_Price::`RTTI Base Class Array'
	DD	FLAT:??_R1A@?0A@EA@CBaseDialog@@8
	DD	FLAT:??_R1A@?0A@EA@CDialog@@8
	DD	FLAT:??_R1A@?0A@EA@CWnd@@8
	DD	FLAT:??_R1A@?0A@EA@CCmdTarget@@8
	DD	FLAT:??_R1A@?0A@EA@CObject@@8
rdata$r	ENDS
;	COMDAT ??_R3CSetting_Price@@8
rdata$r	SEGMENT
??_R3CSetting_Price@@8 DD 00H				; CSetting_Price::`RTTI Class Hierarchy Descriptor'
	DD	00H
	DD	06H
	DD	FLAT:??_R2CSetting_Price@@8
rdata$r	ENDS
;	COMDAT ??_R0?AVCSetting_Price@@@8
data$rs	SEGMENT
??_R0?AVCSetting_Price@@@8 DD FLAT:??_7type_info@@6B@	; CSetting_Price `RTTI Type Descriptor'
	DD	00H
	DB	'.?AVCSetting_Price@@', 00H
data$rs	ENDS
;	COMDAT ??_R4CSetting_Price@@6B@
rdata$r	SEGMENT
??_R4CSetting_Price@@6B@ DD 00H				; CSetting_Price::`RTTI Complete Object Locator'
	DD	00H
	DD	00H
	DD	FLAT:??_R0?AVCSetting_Price@@@8
	DD	FLAT:??_R3CSetting_Price@@8
rdata$r	ENDS
;	COMDAT ??_C@_0O@CLKGAOCK@CGraphSetting@
CONST	SEGMENT
??_C@_0O@CLKGAOCK@CGraphSetting@ DB 'CGraphSetting', 00H ; `string'
CONST	ENDS
;	COMDAT ?messageMap@?1??GetThisMessageMap@CSetting_Price@@KGPBUAFX_MSGMAP@@XZ@4U3@B
CONST	SEGMENT
?messageMap@?1??GetThisMessageMap@CSetting_Price@@KGPBUAFX_MSGMAP@@XZ@4U3@B DD FLAT:?GetThisMessageMap@CDialog@@KGPBUAFX_MSGMAP@@XZ ; `CSetting_Price::GetThisMessageMap'::`2'::messageMap
	DD	FLAT:?_messageEntries@?1??GetThisMessageMap@CSetting_Price@@KGPBUAFX_MSGMAP@@XZ@4QBUAFX_MSGMAP_ENTRY@@B
CONST	ENDS
;	COMDAT ?_messageEntries@?1??GetThisMessageMap@CSetting_Price@@KGPBUAFX_MSGMAP@@XZ@4QBUAFX_MSGMAP_ENTRY@@B
CONST	SEGMENT
?_messageEntries@?1??GetThisMessageMap@CSetting_Price@@KGPBUAFX_MSGMAP@@XZ@4QBUAFX_MSGMAP_ENTRY@@B DD 0111H ; `CSetting_Price::GetThisMessageMap'::`2'::_messageEntries
	DD	00H
	DD	041dH
	DD	041dH
	DD	03aH
	DD	FLAT:?OnEquiVolumeChart@CSetting_Price@@IAEXXZ
	DD	0111H
	DD	00H
	DD	041aH
	DD	041aH
	DD	03aH
	DD	FLAT:?OnCandleVolumeChart@CSetting_Price@@IAEXXZ
	DD	0111H
	DD	00H
	DD	0418H
	DD	0418H
	DD	03aH
	DD	FLAT:?OnFlowChart@CSetting_Price@@IAEXXZ
	DD	0111H
	DD	00H
	DD	0419H
	DD	0419H
	DD	03aH
	DD	FLAT:?OnNewBarChart@CSetting_Price@@IAEXXZ
	DD	0111H
	DD	00H
	DD	0416H
	DD	0416H
	DD	03aH
	DD	FLAT:?OnBarChart@CSetting_Price@@IAEXXZ
	DD	0111H
	DD	00H
	DD	0415H
	DD	0415H
	DD	03aH
	DD	FLAT:?OnBongChart@CSetting_Price@@IAEXXZ
	DD	0111H
	DD	00H
	DD	0417H
	DD	0417H
	DD	03aH
	DD	FLAT:?OnLineChart@CSetting_Price@@IAEXXZ
	DD	0111H
	DD	00H
	DD	0433H
	DD	0433H
	DD	03aH
	DD	FLAT:?OnSteadyNormal@CSetting_Price@@IAEXXZ
	DD	0111H
	DD	00H
	DD	0434H
	DD	0434H
	DD	03aH
	DD	FLAT:?OnSteadyBeforeclose@CSetting_Price@@IAEXXZ
	DD	0111H
	DD	00H
	DD	0435H
	DD	0435H
	DD	03aH
	DD	FLAT:?OnSteadySameclose@CSetting_Price@@IAEXXZ
	DD	0111H
	DD	00H
	DD	01794H
	DD	01794H
	DD	03aH
	DD	FLAT:?OnBtnUp@CSetting_Price@@IAEXXZ
	DD	0111H
	DD	00H
	DD	01795H
	DD	01795H
	DD	03aH
	DD	FLAT:?OnBtnDown@CSetting_Price@@IAEXXZ
	DD	0111H
	DD	00H
	DD	017faH
	DD	017faH
	DD	03aH
	DD	FLAT:?OnBtnSteady@CSetting_Price@@IAEXXZ
	DD	0111H
	DD	01H
	DD	03feH
	DD	03feH
	DD	03aH
	DD	FLAT:?OnSelchangeThickness@CSetting_Price@@IAEXXZ
	DD	0111H
	DD	01H
	DD	03fdH
	DD	03fdH
	DD	03aH
	DD	FLAT:?OnSelchangeDrawstyle@CSetting_Price@@IAEXXZ
	DD	00H
	DD	00H
	DD	00H
	DD	00H
	DD	00H
	DD	00H
CONST	ENDS
;	COMDAT ??_C@_0BA@ENJOCHIO@LoadResourceDLL@
CONST	SEGMENT
??_C@_0BA@ENJOCHIO@LoadResourceDLL@ DB 'LoadResourceDLL', 00H ; `string'
CONST	ENDS
;	COMDAT ??_7CSetting_Price@@6B@
CONST	SEGMENT
??_7CSetting_Price@@6B@ DD FLAT:??_R4CSetting_Price@@6B@ ; CSetting_Price::`vftable'
	DD	FLAT:?GetRuntimeClass@CDialog@@UBEPAUCRuntimeClass@@XZ
	DD	FLAT:??_ECSetting_Price@@UAEPAXI@Z
	DD	FLAT:?Serialize@CObject@@UAEXAAVCArchive@@@Z
	DD	FLAT:?AssertValid@CObject@@UBEXXZ
	DD	FLAT:?Dump@CObject@@UBEXAAVCDumpContext@@@Z
	DD	FLAT:?OnCmdMsg@CDialog@@UAEHIHPAXPAUAFX_CMDHANDLERINFO@@@Z
	DD	FLAT:?OnFinalRelease@CWnd@@UAEXXZ
	DD	FLAT:?IsInvokeAllowed@CCmdTarget@@UAEHJ@Z
	DD	FLAT:?GetDispatchIID@CCmdTarget@@UAEHPAU_GUID@@@Z
	DD	FLAT:?GetTypeInfoCount@CCmdTarget@@UAEIXZ
	DD	FLAT:?GetTypeLibCache@CCmdTarget@@UAEPAVCTypeLibCache@@XZ
	DD	FLAT:?GetTypeLib@CCmdTarget@@UAEJKPAPAUITypeLib@@@Z
	DD	FLAT:?GetMessageMap@CSetting_Price@@MBEPBUAFX_MSGMAP@@XZ
	DD	FLAT:?GetCommandMap@CCmdTarget@@MBEPBUAFX_OLECMDMAP@@XZ
	DD	FLAT:?GetDispatchMap@CCmdTarget@@MBEPBUAFX_DISPMAP@@XZ
	DD	FLAT:?GetConnectionMap@CCmdTarget@@MBEPBUAFX_CONNECTIONMAP@@XZ
	DD	FLAT:?GetInterfaceMap@CWnd@@MBEPBUAFX_INTERFACEMAP@@XZ
	DD	FLAT:?GetEventSinkMap@CCmdTarget@@MBEPBUAFX_EVENTSINKMAP@@XZ
	DD	FLAT:?OnCreateAggregates@CCmdTarget@@UAEHXZ
	DD	FLAT:?GetInterfaceHook@CCmdTarget@@UAEPAUIUnknown@@PBX@Z
	DD	FLAT:?GetExtraConnectionPoints@CCmdTarget@@MAEHPAVCPtrArray@@@Z
	DD	FLAT:?GetConnectionHook@CCmdTarget@@MAEPAUIConnectionPoint@@ABU_GUID@@@Z
	DD	FLAT:?PreSubclassWindow@CWnd@@UAEXXZ
	DD	FLAT:?Create@CWnd@@UAEHPBD0KABUtagRECT@@PAV1@IPAUCCreateContext@@@Z
	DD	FLAT:?CreateEx@CWnd@@UAEHKPBD0KABUtagRECT@@PAV1@IPAX@Z
	DD	FLAT:?CreateEx@CWnd@@UAEHKPBD0KHHHHPAUHWND__@@PAUHMENU__@@PAX@Z
	DD	FLAT:?DestroyWindow@CWnd@@UAEHXZ
	DD	FLAT:?PreCreateWindow@CWnd@@UAEHAAUtagCREATESTRUCTA@@@Z
	DD	FLAT:?CalcWindowRect@CWnd@@UAEXPAUtagRECT@@I@Z
	DD	FLAT:?GetMenu@CWnd@@UBEPAVCMenu@@XZ
	DD	FLAT:?SetMenu@CWnd@@UAEHPAVCMenu@@@Z
	DD	FLAT:?OnToolHitTest@CWnd@@UBEHVCPoint@@PAUtagTOOLINFOA@@@Z
	DD	FLAT:?GetScrollBarCtrl@CWnd@@UBEPAVCScrollBar@@H@Z
	DD	FLAT:?WinHelpA@CWnd@@UAEXKI@Z
	DD	FLAT:?HtmlHelpA@CWnd@@UAEXKI@Z
	DD	FLAT:?WinHelpInternal@CWnd@@UAEXKI@Z
	DD	FLAT:?ContinueModal@CWnd@@UAEHXZ
	DD	FLAT:?EndModalLoop@CWnd@@UAEXH@Z
	DD	FLAT:?OnDrawIconicThumbnailOrLivePreview@CWnd@@UAEXAAVCDC@@VCRect@@VCSize@@HAAH@Z
	DD	FLAT:?EnsureStdObj@CWnd@@UAEJXZ
	DD	FLAT:?get_accParent@CWnd@@UAEJPAPAUIDispatch@@@Z
	DD	FLAT:?get_accChildCount@CWnd@@UAEJPAJ@Z
	DD	FLAT:?get_accChild@CWnd@@UAEJUtagVARIANT@@PAPAUIDispatch@@@Z
	DD	FLAT:?get_accName@CWnd@@UAEJUtagVARIANT@@PAPA_W@Z
	DD	FLAT:?get_accValue@CWnd@@UAEJUtagVARIANT@@PAPA_W@Z
	DD	FLAT:?get_accDescription@CWnd@@UAEJUtagVARIANT@@PAPA_W@Z
	DD	FLAT:?get_accRole@CWnd@@UAEJUtagVARIANT@@PAU2@@Z
	DD	FLAT:?get_accState@CWnd@@UAEJUtagVARIANT@@PAU2@@Z
	DD	FLAT:?get_accHelp@CWnd@@UAEJUtagVARIANT@@PAPA_W@Z
	DD	FLAT:?get_accHelpTopic@CWnd@@UAEJPAPA_WUtagVARIANT@@PAJ@Z
	DD	FLAT:?get_accKeyboardShortcut@CWnd@@UAEJUtagVARIANT@@PAPA_W@Z
	DD	FLAT:?get_accFocus@CWnd@@UAEJPAUtagVARIANT@@@Z
	DD	FLAT:?get_accSelection@CWnd@@UAEJPAUtagVARIANT@@@Z
	DD	FLAT:?get_accDefaultAction@CWnd@@UAEJUtagVARIANT@@PAPA_W@Z
	DD	FLAT:?accSelect@CWnd@@UAEJJUtagVARIANT@@@Z
	DD	FLAT:?accLocation@CWnd@@UAEJPAJ000UtagVARIANT@@@Z
	DD	FLAT:?accNavigate@CWnd@@UAEJJUtagVARIANT@@PAU2@@Z
	DD	FLAT:?accHitTest@CWnd@@UAEJJJPAUtagVARIANT@@@Z
	DD	FLAT:?accDoDefaultAction@CWnd@@UAEJUtagVARIANT@@@Z
	DD	FLAT:?put_accName@CWnd@@UAEJUtagVARIANT@@PA_W@Z
	DD	FLAT:?put_accValue@CWnd@@UAEJUtagVARIANT@@PA_W@Z
	DD	FLAT:?SetProxy@CWnd@@UAEJPAUIAccessibleProxy@@@Z
	DD	FLAT:?CreateAccessibleProxy@CWnd@@UAEJIJPAJ@Z
	DD	FLAT:?OnCommand@CWnd@@MAEHIJ@Z
	DD	FLAT:?OnNotify@CWnd@@MAEHIJPAJ@Z
	DD	FLAT:?GetSuperWndProcAddr@CWnd@@MAEPAP6GJPAUHWND__@@IIJ@ZXZ
	DD	FLAT:?DoDataExchange@CSetting_Price@@MAEXPAVCDataExchange@@@Z
	DD	FLAT:?BeginModalState@CWnd@@UAEXXZ
	DD	FLAT:?EndModalState@CWnd@@UAEXXZ
	DD	FLAT:?PreTranslateMessage@CSetting_Price@@UAEHPAUtagMSG@@@Z
	DD	FLAT:?OnAmbientProperty@CWnd@@UAEHPAVCOleControlSite@@JPAUtagVARIANT@@@Z
	DD	FLAT:?WindowProc@CWnd@@MAEJIIJ@Z
	DD	FLAT:?OnWndMsg@CWnd@@MAEHIIJPAJ@Z
	DD	FLAT:?DefWindowProcA@CWnd@@MAEJIIJ@Z
	DD	FLAT:?PostNcDestroy@CWnd@@MAEXXZ
	DD	FLAT:?OnChildNotify@CWnd@@MAEHIIJPAJ@Z
	DD	FLAT:?OnTouchInputs@CWnd@@MAEHIPAUtagTOUCHINPUT@@@Z
	DD	FLAT:?OnTouchInput@CWnd@@MAEHVCPoint@@HHPAUtagTOUCHINPUT@@@Z
	DD	FLAT:?GetGestureStatus@CWnd@@MAEKVCPoint@@@Z
	DD	FLAT:?OnGestureZoom@CWnd@@MAEHVCPoint@@J@Z
	DD	FLAT:?OnGesturePan@CWnd@@MAEHVCPoint@@0@Z
	DD	FLAT:?OnGestureRotate@CWnd@@MAEHVCPoint@@N@Z
	DD	FLAT:?OnGestureTwoFingerTap@CWnd@@MAEHVCPoint@@@Z
	DD	FLAT:?OnGesturePressAndTap@CWnd@@MAEHVCPoint@@J@Z
	DD	FLAT:?ResizeDynamicLayout@CWnd@@MAEXXZ
	DD	FLAT:?CheckAutoCenter@CDialog@@UAEHXZ
	DD	FLAT:?IsFrameWnd@CWnd@@UBEHXZ
	DD	FLAT:?CreateControlContainer@CWnd@@MAEHPAPAVCOleControlContainer@@@Z
	DD	FLAT:?CreateControlSite@CWnd@@MAEHPAVCOleControlContainer@@PAPAVCOleControlSite@@IABU_GUID@@@Z
	DD	FLAT:?SetOccDialogInfo@CDialog@@MAEHPAU_AFX_OCC_DIALOG_INFO@@@Z
	DD	FLAT:?GetOccDialogInfo@CDialog@@MAEPAU_AFX_OCC_DIALOG_INFO@@XZ
	DD	FLAT:?Create@CDialog@@UAEHIPAVCWnd@@@Z
	DD	FLAT:?Create@CDialog@@UAEHPBDPAVCWnd@@@Z
	DD	FLAT:?CreateIndirect@CDialog@@UAEHPAXPAVCWnd@@@Z
	DD	FLAT:?CreateIndirect@CDialog@@UAEHPBUDLGTEMPLATE@@PAVCWnd@@PAX@Z
	DD	FLAT:?DoModal@CDialog@@UAEHXZ
	DD	FLAT:?OnInitDialog@CSetting_Price@@MAEHXZ
	DD	FLAT:?OnSetFont@CDialog@@UAEXPAVCFont@@@Z
	DD	FLAT:?OnOK@CDialog@@MAEXXZ
	DD	FLAT:?OnCancel@CDialog@@MAEXXZ
	DD	FLAT:?PreInitDialog@CDialog@@MAEXXZ
	DD	FLAT:?Initial@CSetting_Price@@MAEXPAUIGraphInfo135914@@@Z
	DD	FLAT:?OnApply@CSetting_Price@@MAEHPAUIGraphInfo135914@@@Z
	DD	FLAT:?SetTitle@CBaseDialog@@UAEXHABV?$CStringT@DV?$StrTraitMFC_DLL@DV?$ChTraitsCRT@D@ATL@@@@@ATL@@@Z
	DD	FLAT:?DoCalculate@CBaseDialog@@UAE_NXZ
CONST	ENDS
;	COMDAT ??_R2CDialog@@8
rdata$r	SEGMENT
??_R2CDialog@@8 DD FLAT:??_R1A@?0A@EA@CDialog@@8	; CDialog::`RTTI Base Class Array'
	DD	FLAT:??_R1A@?0A@EA@CWnd@@8
	DD	FLAT:??_R1A@?0A@EA@CCmdTarget@@8
	DD	FLAT:??_R1A@?0A@EA@CObject@@8
rdata$r	ENDS
;	COMDAT ??_R3CDialog@@8
rdata$r	SEGMENT
??_R3CDialog@@8 DD 00H					; CDialog::`RTTI Class Hierarchy Descriptor'
	DD	00H
	DD	04H
	DD	FLAT:??_R2CDialog@@8
rdata$r	ENDS
;	COMDAT ??_R0?AVCDialog@@@8
data$rs	SEGMENT
??_R0?AVCDialog@@@8 DD FLAT:??_7type_info@@6B@		; CDialog `RTTI Type Descriptor'
	DD	00H
	DB	'.?AVCDialog@@', 00H
data$rs	ENDS
;	COMDAT ??_R1A@?0A@EA@CDialog@@8
rdata$r	SEGMENT
??_R1A@?0A@EA@CDialog@@8 DD FLAT:??_R0?AVCDialog@@@8	; CDialog::`RTTI Base Class Descriptor at (0,-1,0,64)'
	DD	03H
	DD	00H
	DD	0ffffffffH
	DD	00H
	DD	040H
	DD	FLAT:??_R3CDialog@@8
rdata$r	ENDS
;	COMDAT ??_R1A@?0A@EA@CCommonDialog@@8
rdata$r	SEGMENT
??_R1A@?0A@EA@CCommonDialog@@8 DD FLAT:??_R0?AVCCommonDialog@@@8 ; CCommonDialog::`RTTI Base Class Descriptor at (0,-1,0,64)'
	DD	04H
	DD	00H
	DD	0ffffffffH
	DD	00H
	DD	040H
	DD	FLAT:??_R3CCommonDialog@@8
rdata$r	ENDS
;	COMDAT ??_R2CCommonDialog@@8
rdata$r	SEGMENT
??_R2CCommonDialog@@8 DD FLAT:??_R1A@?0A@EA@CCommonDialog@@8 ; CCommonDialog::`RTTI Base Class Array'
	DD	FLAT:??_R1A@?0A@EA@CDialog@@8
	DD	FLAT:??_R1A@?0A@EA@CWnd@@8
	DD	FLAT:??_R1A@?0A@EA@CCmdTarget@@8
	DD	FLAT:??_R1A@?0A@EA@CObject@@8
rdata$r	ENDS
;	COMDAT ??_R3CCommonDialog@@8
rdata$r	SEGMENT
??_R3CCommonDialog@@8 DD 00H				; CCommonDialog::`RTTI Class Hierarchy Descriptor'
	DD	00H
	DD	05H
	DD	FLAT:??_R2CCommonDialog@@8
rdata$r	ENDS
;	COMDAT ??_R0?AVCCommonDialog@@@8
data$rs	SEGMENT
??_R0?AVCCommonDialog@@@8 DD FLAT:??_7type_info@@6B@	; CCommonDialog `RTTI Type Descriptor'
	DD	00H
	DB	'.?AVCCommonDialog@@', 00H
data$rs	ENDS
;	COMDAT ??_R4CCommonDialog@@6B@
rdata$r	SEGMENT
??_R4CCommonDialog@@6B@ DD 00H				; CCommonDialog::`RTTI Complete Object Locator'
	DD	00H
	DD	00H
	DD	FLAT:??_R0?AVCCommonDialog@@@8
	DD	FLAT:??_R3CCommonDialog@@8
rdata$r	ENDS
;	COMDAT ??_R1A@?0A@EA@CButton@@8
rdata$r	SEGMENT
??_R1A@?0A@EA@CButton@@8 DD FLAT:??_R0?AVCButton@@@8	; CButton::`RTTI Base Class Descriptor at (0,-1,0,64)'
	DD	03H
	DD	00H
	DD	0ffffffffH
	DD	00H
	DD	040H
	DD	FLAT:??_R3CButton@@8
rdata$r	ENDS
;	COMDAT ??_R2CButton@@8
rdata$r	SEGMENT
??_R2CButton@@8 DD FLAT:??_R1A@?0A@EA@CButton@@8	; CButton::`RTTI Base Class Array'
	DD	FLAT:??_R1A@?0A@EA@CWnd@@8
	DD	FLAT:??_R1A@?0A@EA@CCmdTarget@@8
	DD	FLAT:??_R1A@?0A@EA@CObject@@8
rdata$r	ENDS
;	COMDAT ??_R3CButton@@8
rdata$r	SEGMENT
??_R3CButton@@8 DD 00H					; CButton::`RTTI Class Hierarchy Descriptor'
	DD	00H
	DD	04H
	DD	FLAT:??_R2CButton@@8
rdata$r	ENDS
;	COMDAT ??_R0?AVCButton@@@8
data$rs	SEGMENT
??_R0?AVCButton@@@8 DD FLAT:??_7type_info@@6B@		; CButton `RTTI Type Descriptor'
	DD	00H
	DB	'.?AVCButton@@', 00H
data$rs	ENDS
;	COMDAT ??_R4CButton@@6B@
rdata$r	SEGMENT
??_R4CButton@@6B@ DD 00H				; CButton::`RTTI Complete Object Locator'
	DD	00H
	DD	00H
	DD	FLAT:??_R0?AVCButton@@@8
	DD	FLAT:??_R3CButton@@8
rdata$r	ENDS
;	COMDAT ??_R2CCmdTarget@@8
rdata$r	SEGMENT
??_R2CCmdTarget@@8 DD FLAT:??_R1A@?0A@EA@CCmdTarget@@8	; CCmdTarget::`RTTI Base Class Array'
	DD	FLAT:??_R1A@?0A@EA@CObject@@8
rdata$r	ENDS
;	COMDAT ??_R3CCmdTarget@@8
rdata$r	SEGMENT
??_R3CCmdTarget@@8 DD 00H				; CCmdTarget::`RTTI Class Hierarchy Descriptor'
	DD	00H
	DD	02H
	DD	FLAT:??_R2CCmdTarget@@8
rdata$r	ENDS
;	COMDAT ??_R0?AVCCmdTarget@@@8
data$rs	SEGMENT
??_R0?AVCCmdTarget@@@8 DD FLAT:??_7type_info@@6B@	; CCmdTarget `RTTI Type Descriptor'
	DD	00H
	DB	'.?AVCCmdTarget@@', 00H
data$rs	ENDS
;	COMDAT ??_R1A@?0A@EA@CCmdTarget@@8
rdata$r	SEGMENT
??_R1A@?0A@EA@CCmdTarget@@8 DD FLAT:??_R0?AVCCmdTarget@@@8 ; CCmdTarget::`RTTI Base Class Descriptor at (0,-1,0,64)'
	DD	01H
	DD	00H
	DD	0ffffffffH
	DD	00H
	DD	040H
	DD	FLAT:??_R3CCmdTarget@@8
rdata$r	ENDS
;	COMDAT ??_R2CWnd@@8
rdata$r	SEGMENT
??_R2CWnd@@8 DD	FLAT:??_R1A@?0A@EA@CWnd@@8		; CWnd::`RTTI Base Class Array'
	DD	FLAT:??_R1A@?0A@EA@CCmdTarget@@8
	DD	FLAT:??_R1A@?0A@EA@CObject@@8
rdata$r	ENDS
;	COMDAT ??_R3CWnd@@8
rdata$r	SEGMENT
??_R3CWnd@@8 DD	00H					; CWnd::`RTTI Class Hierarchy Descriptor'
	DD	00H
	DD	03H
	DD	FLAT:??_R2CWnd@@8
rdata$r	ENDS
;	COMDAT ??_R0?AVCWnd@@@8
data$rs	SEGMENT
??_R0?AVCWnd@@@8 DD FLAT:??_7type_info@@6B@		; CWnd `RTTI Type Descriptor'
	DD	00H
	DB	'.?AVCWnd@@', 00H
data$rs	ENDS
;	COMDAT ??_R1A@?0A@EA@CWnd@@8
rdata$r	SEGMENT
??_R1A@?0A@EA@CWnd@@8 DD FLAT:??_R0?AVCWnd@@@8		; CWnd::`RTTI Base Class Descriptor at (0,-1,0,64)'
	DD	02H
	DD	00H
	DD	0ffffffffH
	DD	00H
	DD	040H
	DD	FLAT:??_R3CWnd@@8
rdata$r	ENDS
;	COMDAT ??_R1A@?0A@EA@CStatic@@8
rdata$r	SEGMENT
??_R1A@?0A@EA@CStatic@@8 DD FLAT:??_R0?AVCStatic@@@8	; CStatic::`RTTI Base Class Descriptor at (0,-1,0,64)'
	DD	03H
	DD	00H
	DD	0ffffffffH
	DD	00H
	DD	040H
	DD	FLAT:??_R3CStatic@@8
rdata$r	ENDS
;	COMDAT ??_R2CStatic@@8
rdata$r	SEGMENT
??_R2CStatic@@8 DD FLAT:??_R1A@?0A@EA@CStatic@@8	; CStatic::`RTTI Base Class Array'
	DD	FLAT:??_R1A@?0A@EA@CWnd@@8
	DD	FLAT:??_R1A@?0A@EA@CCmdTarget@@8
	DD	FLAT:??_R1A@?0A@EA@CObject@@8
rdata$r	ENDS
;	COMDAT ??_R3CStatic@@8
rdata$r	SEGMENT
??_R3CStatic@@8 DD 00H					; CStatic::`RTTI Class Hierarchy Descriptor'
	DD	00H
	DD	04H
	DD	FLAT:??_R2CStatic@@8
rdata$r	ENDS
;	COMDAT ??_R0?AVCStatic@@@8
data$rs	SEGMENT
??_R0?AVCStatic@@@8 DD FLAT:??_7type_info@@6B@		; CStatic `RTTI Type Descriptor'
	DD	00H
	DB	'.?AVCStatic@@', 00H
data$rs	ENDS
;	COMDAT ??_R4CStatic@@6B@
rdata$r	SEGMENT
??_R4CStatic@@6B@ DD 00H				; CStatic::`RTTI Complete Object Locator'
	DD	00H
	DD	00H
	DD	FLAT:??_R0?AVCStatic@@@8
	DD	FLAT:??_R3CStatic@@8
rdata$r	ENDS
;	COMDAT ??_R1A@?0A@EA@CObject@@8
rdata$r	SEGMENT
??_R1A@?0A@EA@CObject@@8 DD FLAT:??_R0?AVCObject@@@8	; CObject::`RTTI Base Class Descriptor at (0,-1,0,64)'
	DD	00H
	DD	00H
	DD	0ffffffffH
	DD	00H
	DD	040H
	DD	FLAT:??_R3CObject@@8
rdata$r	ENDS
;	COMDAT ??_R2CObject@@8
rdata$r	SEGMENT
??_R2CObject@@8 DD FLAT:??_R1A@?0A@EA@CObject@@8	; CObject::`RTTI Base Class Array'
rdata$r	ENDS
;	COMDAT ??_R3CObject@@8
rdata$r	SEGMENT
??_R3CObject@@8 DD 00H					; CObject::`RTTI Class Hierarchy Descriptor'
	DD	00H
	DD	01H
	DD	FLAT:??_R2CObject@@8
rdata$r	ENDS
;	COMDAT ??_R0?AVCObject@@@8
data$rs	SEGMENT
??_R0?AVCObject@@@8 DD FLAT:??_7type_info@@6B@		; CObject `RTTI Type Descriptor'
	DD	00H
	DB	'.?AVCObject@@', 00H
data$rs	ENDS
;	COMDAT ??_7CCommonDialog@@6B@
CONST	SEGMENT
??_7CCommonDialog@@6B@ DD FLAT:??_R4CCommonDialog@@6B@	; CCommonDialog::`vftable'
	DD	FLAT:?GetRuntimeClass@CCommonDialog@@UBEPAUCRuntimeClass@@XZ
	DD	FLAT:??_ECCommonDialog@@UAEPAXI@Z
	DD	FLAT:?Serialize@CObject@@UAEXAAVCArchive@@@Z
	DD	FLAT:?AssertValid@CObject@@UBEXXZ
	DD	FLAT:?Dump@CObject@@UBEXAAVCDumpContext@@@Z
	DD	FLAT:?OnCmdMsg@CDialog@@UAEHIHPAXPAUAFX_CMDHANDLERINFO@@@Z
	DD	FLAT:?OnFinalRelease@CWnd@@UAEXXZ
	DD	FLAT:?IsInvokeAllowed@CCmdTarget@@UAEHJ@Z
	DD	FLAT:?GetDispatchIID@CCmdTarget@@UAEHPAU_GUID@@@Z
	DD	FLAT:?GetTypeInfoCount@CCmdTarget@@UAEIXZ
	DD	FLAT:?GetTypeLibCache@CCmdTarget@@UAEPAVCTypeLibCache@@XZ
	DD	FLAT:?GetTypeLib@CCmdTarget@@UAEJKPAPAUITypeLib@@@Z
	DD	FLAT:?GetMessageMap@CCommonDialog@@MBEPBUAFX_MSGMAP@@XZ
	DD	FLAT:?GetCommandMap@CCmdTarget@@MBEPBUAFX_OLECMDMAP@@XZ
	DD	FLAT:?GetDispatchMap@CCmdTarget@@MBEPBUAFX_DISPMAP@@XZ
	DD	FLAT:?GetConnectionMap@CCmdTarget@@MBEPBUAFX_CONNECTIONMAP@@XZ
	DD	FLAT:?GetInterfaceMap@CWnd@@MBEPBUAFX_INTERFACEMAP@@XZ
	DD	FLAT:?GetEventSinkMap@CCmdTarget@@MBEPBUAFX_EVENTSINKMAP@@XZ
	DD	FLAT:?OnCreateAggregates@CCmdTarget@@UAEHXZ
	DD	FLAT:?GetInterfaceHook@CCmdTarget@@UAEPAUIUnknown@@PBX@Z
	DD	FLAT:?GetExtraConnectionPoints@CCmdTarget@@MAEHPAVCPtrArray@@@Z
	DD	FLAT:?GetConnectionHook@CCmdTarget@@MAEPAUIConnectionPoint@@ABU_GUID@@@Z
	DD	FLAT:?PreSubclassWindow@CWnd@@UAEXXZ
	DD	FLAT:?Create@CWnd@@UAEHPBD0KABUtagRECT@@PAV1@IPAUCCreateContext@@@Z
	DD	FLAT:?CreateEx@CWnd@@UAEHKPBD0KABUtagRECT@@PAV1@IPAX@Z
	DD	FLAT:?CreateEx@CWnd@@UAEHKPBD0KHHHHPAUHWND__@@PAUHMENU__@@PAX@Z
	DD	FLAT:?DestroyWindow@CWnd@@UAEHXZ
	DD	FLAT:?PreCreateWindow@CWnd@@UAEHAAUtagCREATESTRUCTA@@@Z
	DD	FLAT:?CalcWindowRect@CWnd@@UAEXPAUtagRECT@@I@Z
	DD	FLAT:?GetMenu@CWnd@@UBEPAVCMenu@@XZ
	DD	FLAT:?SetMenu@CWnd@@UAEHPAVCMenu@@@Z
	DD	FLAT:?OnToolHitTest@CWnd@@UBEHVCPoint@@PAUtagTOOLINFOA@@@Z
	DD	FLAT:?GetScrollBarCtrl@CWnd@@UBEPAVCScrollBar@@H@Z
	DD	FLAT:?WinHelpA@CWnd@@UAEXKI@Z
	DD	FLAT:?HtmlHelpA@CWnd@@UAEXKI@Z
	DD	FLAT:?WinHelpInternal@CWnd@@UAEXKI@Z
	DD	FLAT:?ContinueModal@CWnd@@UAEHXZ
	DD	FLAT:?EndModalLoop@CWnd@@UAEXH@Z
	DD	FLAT:?OnDrawIconicThumbnailOrLivePreview@CWnd@@UAEXAAVCDC@@VCRect@@VCSize@@HAAH@Z
	DD	FLAT:?EnsureStdObj@CWnd@@UAEJXZ
	DD	FLAT:?get_accParent@CWnd@@UAEJPAPAUIDispatch@@@Z
	DD	FLAT:?get_accChildCount@CWnd@@UAEJPAJ@Z
	DD	FLAT:?get_accChild@CWnd@@UAEJUtagVARIANT@@PAPAUIDispatch@@@Z
	DD	FLAT:?get_accName@CWnd@@UAEJUtagVARIANT@@PAPA_W@Z
	DD	FLAT:?get_accValue@CWnd@@UAEJUtagVARIANT@@PAPA_W@Z
	DD	FLAT:?get_accDescription@CWnd@@UAEJUtagVARIANT@@PAPA_W@Z
	DD	FLAT:?get_accRole@CWnd@@UAEJUtagVARIANT@@PAU2@@Z
	DD	FLAT:?get_accState@CWnd@@UAEJUtagVARIANT@@PAU2@@Z
	DD	FLAT:?get_accHelp@CWnd@@UAEJUtagVARIANT@@PAPA_W@Z
	DD	FLAT:?get_accHelpTopic@CWnd@@UAEJPAPA_WUtagVARIANT@@PAJ@Z
	DD	FLAT:?get_accKeyboardShortcut@CWnd@@UAEJUtagVARIANT@@PAPA_W@Z
	DD	FLAT:?get_accFocus@CWnd@@UAEJPAUtagVARIANT@@@Z
	DD	FLAT:?get_accSelection@CWnd@@UAEJPAUtagVARIANT@@@Z
	DD	FLAT:?get_accDefaultAction@CWnd@@UAEJUtagVARIANT@@PAPA_W@Z
	DD	FLAT:?accSelect@CWnd@@UAEJJUtagVARIANT@@@Z
	DD	FLAT:?accLocation@CWnd@@UAEJPAJ000UtagVARIANT@@@Z
	DD	FLAT:?accNavigate@CWnd@@UAEJJUtagVARIANT@@PAU2@@Z
	DD	FLAT:?accHitTest@CWnd@@UAEJJJPAUtagVARIANT@@@Z
	DD	FLAT:?accDoDefaultAction@CWnd@@UAEJUtagVARIANT@@@Z
	DD	FLAT:?put_accName@CWnd@@UAEJUtagVARIANT@@PA_W@Z
	DD	FLAT:?put_accValue@CWnd@@UAEJUtagVARIANT@@PA_W@Z
	DD	FLAT:?SetProxy@CWnd@@UAEJPAUIAccessibleProxy@@@Z
	DD	FLAT:?CreateAccessibleProxy@CWnd@@UAEJIJPAJ@Z
	DD	FLAT:?OnCommand@CWnd@@MAEHIJ@Z
	DD	FLAT:?OnNotify@CWnd@@MAEHIJPAJ@Z
	DD	FLAT:?GetSuperWndProcAddr@CWnd@@MAEPAP6GJPAUHWND__@@IIJ@ZXZ
	DD	FLAT:?DoDataExchange@CWnd@@MAEXPAVCDataExchange@@@Z
	DD	FLAT:?BeginModalState@CWnd@@UAEXXZ
	DD	FLAT:?EndModalState@CWnd@@UAEXXZ
	DD	FLAT:?PreTranslateMessage@CDialog@@UAEHPAUtagMSG@@@Z
	DD	FLAT:?OnAmbientProperty@CWnd@@UAEHPAVCOleControlSite@@JPAUtagVARIANT@@@Z
	DD	FLAT:?WindowProc@CWnd@@MAEJIIJ@Z
	DD	FLAT:?OnWndMsg@CWnd@@MAEHIIJPAJ@Z
	DD	FLAT:?DefWindowProcA@CWnd@@MAEJIIJ@Z
	DD	FLAT:?PostNcDestroy@CWnd@@MAEXXZ
	DD	FLAT:?OnChildNotify@CWnd@@MAEHIIJPAJ@Z
	DD	FLAT:?OnTouchInputs@CWnd@@MAEHIPAUtagTOUCHINPUT@@@Z
	DD	FLAT:?OnTouchInput@CWnd@@MAEHVCPoint@@HHPAUtagTOUCHINPUT@@@Z
	DD	FLAT:?GetGestureStatus@CWnd@@MAEKVCPoint@@@Z
	DD	FLAT:?OnGestureZoom@CWnd@@MAEHVCPoint@@J@Z
	DD	FLAT:?OnGesturePan@CWnd@@MAEHVCPoint@@0@Z
	DD	FLAT:?OnGestureRotate@CWnd@@MAEHVCPoint@@N@Z
	DD	FLAT:?OnGestureTwoFingerTap@CWnd@@MAEHVCPoint@@@Z
	DD	FLAT:?OnGesturePressAndTap@CWnd@@MAEHVCPoint@@J@Z
	DD	FLAT:?ResizeDynamicLayout@CWnd@@MAEXXZ
	DD	FLAT:?CheckAutoCenter@CDialog@@UAEHXZ
	DD	FLAT:?IsFrameWnd@CWnd@@UBEHXZ
	DD	FLAT:?CreateControlContainer@CWnd@@MAEHPAPAVCOleControlContainer@@@Z
	DD	FLAT:?CreateControlSite@CWnd@@MAEHPAVCOleControlContainer@@PAPAVCOleControlSite@@IABU_GUID@@@Z
	DD	FLAT:?SetOccDialogInfo@CDialog@@MAEHPAU_AFX_OCC_DIALOG_INFO@@@Z
	DD	FLAT:?GetOccDialogInfo@CDialog@@MAEPAU_AFX_OCC_DIALOG_INFO@@XZ
	DD	FLAT:?Create@CDialog@@UAEHIPAVCWnd@@@Z
	DD	FLAT:?Create@CDialog@@UAEHPBDPAVCWnd@@@Z
	DD	FLAT:?CreateIndirect@CDialog@@UAEHPAXPAVCWnd@@@Z
	DD	FLAT:?CreateIndirect@CDialog@@UAEHPBUDLGTEMPLATE@@PAVCWnd@@PAX@Z
	DD	FLAT:?DoModal@CDialog@@UAEHXZ
	DD	FLAT:?OnInitDialog@CDialog@@UAEHXZ
	DD	FLAT:?OnSetFont@CDialog@@UAEXPAVCFont@@@Z
	DD	FLAT:?OnOK@CCommonDialog@@MAEXXZ
	DD	FLAT:?OnCancel@CCommonDialog@@MAEXXZ
	DD	FLAT:?PreInitDialog@CDialog@@MAEXXZ
CONST	ENDS
;	COMDAT ??_7CButton@@6B@
CONST	SEGMENT
??_7CButton@@6B@ DD FLAT:??_R4CButton@@6B@		; CButton::`vftable'
	DD	FLAT:?GetRuntimeClass@CButton@@UBEPAUCRuntimeClass@@XZ
	DD	FLAT:??_ECButton@@UAEPAXI@Z
	DD	FLAT:?Serialize@CObject@@UAEXAAVCArchive@@@Z
	DD	FLAT:?AssertValid@CObject@@UBEXXZ
	DD	FLAT:?Dump@CObject@@UBEXAAVCDumpContext@@@Z
	DD	FLAT:?OnCmdMsg@CCmdTarget@@UAEHIHPAXPAUAFX_CMDHANDLERINFO@@@Z
	DD	FLAT:?OnFinalRelease@CWnd@@UAEXXZ
	DD	FLAT:?IsInvokeAllowed@CCmdTarget@@UAEHJ@Z
	DD	FLAT:?GetDispatchIID@CCmdTarget@@UAEHPAU_GUID@@@Z
	DD	FLAT:?GetTypeInfoCount@CCmdTarget@@UAEIXZ
	DD	FLAT:?GetTypeLibCache@CCmdTarget@@UAEPAVCTypeLibCache@@XZ
	DD	FLAT:?GetTypeLib@CCmdTarget@@UAEJKPAPAUITypeLib@@@Z
	DD	FLAT:?GetMessageMap@CWnd@@MBEPBUAFX_MSGMAP@@XZ
	DD	FLAT:?GetCommandMap@CCmdTarget@@MBEPBUAFX_OLECMDMAP@@XZ
	DD	FLAT:?GetDispatchMap@CCmdTarget@@MBEPBUAFX_DISPMAP@@XZ
	DD	FLAT:?GetConnectionMap@CCmdTarget@@MBEPBUAFX_CONNECTIONMAP@@XZ
	DD	FLAT:?GetInterfaceMap@CWnd@@MBEPBUAFX_INTERFACEMAP@@XZ
	DD	FLAT:?GetEventSinkMap@CCmdTarget@@MBEPBUAFX_EVENTSINKMAP@@XZ
	DD	FLAT:?OnCreateAggregates@CCmdTarget@@UAEHXZ
	DD	FLAT:?GetInterfaceHook@CCmdTarget@@UAEPAUIUnknown@@PBX@Z
	DD	FLAT:?GetExtraConnectionPoints@CCmdTarget@@MAEHPAVCPtrArray@@@Z
	DD	FLAT:?GetConnectionHook@CCmdTarget@@MAEPAUIConnectionPoint@@ABU_GUID@@@Z
	DD	FLAT:?PreSubclassWindow@CWnd@@UAEXXZ
	DD	FLAT:?Create@CWnd@@UAEHPBD0KABUtagRECT@@PAV1@IPAUCCreateContext@@@Z
	DD	FLAT:?CreateEx@CWnd@@UAEHKPBD0KABUtagRECT@@PAV1@IPAX@Z
	DD	FLAT:?CreateEx@CWnd@@UAEHKPBD0KHHHHPAUHWND__@@PAUHMENU__@@PAX@Z
	DD	FLAT:?DestroyWindow@CWnd@@UAEHXZ
	DD	FLAT:?PreCreateWindow@CWnd@@UAEHAAUtagCREATESTRUCTA@@@Z
	DD	FLAT:?CalcWindowRect@CWnd@@UAEXPAUtagRECT@@I@Z
	DD	FLAT:?GetMenu@CWnd@@UBEPAVCMenu@@XZ
	DD	FLAT:?SetMenu@CWnd@@UAEHPAVCMenu@@@Z
	DD	FLAT:?OnToolHitTest@CWnd@@UBEHVCPoint@@PAUtagTOOLINFOA@@@Z
	DD	FLAT:?GetScrollBarCtrl@CWnd@@UBEPAVCScrollBar@@H@Z
	DD	FLAT:?WinHelpA@CWnd@@UAEXKI@Z
	DD	FLAT:?HtmlHelpA@CWnd@@UAEXKI@Z
	DD	FLAT:?WinHelpInternal@CWnd@@UAEXKI@Z
	DD	FLAT:?ContinueModal@CWnd@@UAEHXZ
	DD	FLAT:?EndModalLoop@CWnd@@UAEXH@Z
	DD	FLAT:?OnDrawIconicThumbnailOrLivePreview@CWnd@@UAEXAAVCDC@@VCRect@@VCSize@@HAAH@Z
	DD	FLAT:?EnsureStdObj@CWnd@@UAEJXZ
	DD	FLAT:?get_accParent@CWnd@@UAEJPAPAUIDispatch@@@Z
	DD	FLAT:?get_accChildCount@CWnd@@UAEJPAJ@Z
	DD	FLAT:?get_accChild@CWnd@@UAEJUtagVARIANT@@PAPAUIDispatch@@@Z
	DD	FLAT:?get_accName@CWnd@@UAEJUtagVARIANT@@PAPA_W@Z
	DD	FLAT:?get_accValue@CWnd@@UAEJUtagVARIANT@@PAPA_W@Z
	DD	FLAT:?get_accDescription@CWnd@@UAEJUtagVARIANT@@PAPA_W@Z
	DD	FLAT:?get_accRole@CWnd@@UAEJUtagVARIANT@@PAU2@@Z
	DD	FLAT:?get_accState@CWnd@@UAEJUtagVARIANT@@PAU2@@Z
	DD	FLAT:?get_accHelp@CWnd@@UAEJUtagVARIANT@@PAPA_W@Z
	DD	FLAT:?get_accHelpTopic@CWnd@@UAEJPAPA_WUtagVARIANT@@PAJ@Z
	DD	FLAT:?get_accKeyboardShortcut@CWnd@@UAEJUtagVARIANT@@PAPA_W@Z
	DD	FLAT:?get_accFocus@CWnd@@UAEJPAUtagVARIANT@@@Z
	DD	FLAT:?get_accSelection@CWnd@@UAEJPAUtagVARIANT@@@Z
	DD	FLAT:?get_accDefaultAction@CWnd@@UAEJUtagVARIANT@@PAPA_W@Z
	DD	FLAT:?accSelect@CWnd@@UAEJJUtagVARIANT@@@Z
	DD	FLAT:?accLocation@CWnd@@UAEJPAJ000UtagVARIANT@@@Z
	DD	FLAT:?accNavigate@CWnd@@UAEJJUtagVARIANT@@PAU2@@Z
	DD	FLAT:?accHitTest@CWnd@@UAEJJJPAUtagVARIANT@@@Z
	DD	FLAT:?accDoDefaultAction@CWnd@@UAEJUtagVARIANT@@@Z
	DD	FLAT:?put_accName@CWnd@@UAEJUtagVARIANT@@PA_W@Z
	DD	FLAT:?put_accValue@CWnd@@UAEJUtagVARIANT@@PA_W@Z
	DD	FLAT:?SetProxy@CWnd@@UAEJPAUIAccessibleProxy@@@Z
	DD	FLAT:?CreateAccessibleProxy@CWnd@@UAEJIJPAJ@Z
	DD	FLAT:?OnCommand@CWnd@@MAEHIJ@Z
	DD	FLAT:?OnNotify@CWnd@@MAEHIJPAJ@Z
	DD	FLAT:?GetSuperWndProcAddr@CWnd@@MAEPAP6GJPAUHWND__@@IIJ@ZXZ
	DD	FLAT:?DoDataExchange@CWnd@@MAEXPAVCDataExchange@@@Z
	DD	FLAT:?BeginModalState@CWnd@@UAEXXZ
	DD	FLAT:?EndModalState@CWnd@@UAEXXZ
	DD	FLAT:?PreTranslateMessage@CWnd@@UAEHPAUtagMSG@@@Z
	DD	FLAT:?OnAmbientProperty@CWnd@@UAEHPAVCOleControlSite@@JPAUtagVARIANT@@@Z
	DD	FLAT:?WindowProc@CWnd@@MAEJIIJ@Z
	DD	FLAT:?OnWndMsg@CWnd@@MAEHIIJPAJ@Z
	DD	FLAT:?DefWindowProcA@CWnd@@MAEJIIJ@Z
	DD	FLAT:?PostNcDestroy@CWnd@@MAEXXZ
	DD	FLAT:?OnChildNotify@CButton@@MAEHIIJPAJ@Z
	DD	FLAT:?OnTouchInputs@CWnd@@MAEHIPAUtagTOUCHINPUT@@@Z
	DD	FLAT:?OnTouchInput@CWnd@@MAEHVCPoint@@HHPAUtagTOUCHINPUT@@@Z
	DD	FLAT:?GetGestureStatus@CWnd@@MAEKVCPoint@@@Z
	DD	FLAT:?OnGestureZoom@CWnd@@MAEHVCPoint@@J@Z
	DD	FLAT:?OnGesturePan@CWnd@@MAEHVCPoint@@0@Z
	DD	FLAT:?OnGestureRotate@CWnd@@MAEHVCPoint@@N@Z
	DD	FLAT:?OnGestureTwoFingerTap@CWnd@@MAEHVCPoint@@@Z
	DD	FLAT:?OnGesturePressAndTap@CWnd@@MAEHVCPoint@@J@Z
	DD	FLAT:?ResizeDynamicLayout@CWnd@@MAEXXZ
	DD	FLAT:?CheckAutoCenter@CWnd@@UAEHXZ
	DD	FLAT:?IsFrameWnd@CWnd@@UBEHXZ
	DD	FLAT:?CreateControlContainer@CWnd@@MAEHPAPAVCOleControlContainer@@@Z
	DD	FLAT:?CreateControlSite@CWnd@@MAEHPAVCOleControlContainer@@PAPAVCOleControlSite@@IABU_GUID@@@Z
	DD	FLAT:?SetOccDialogInfo@CWnd@@MAEHPAU_AFX_OCC_DIALOG_INFO@@@Z
	DD	FLAT:?GetOccDialogInfo@CWnd@@MAEPAU_AFX_OCC_DIALOG_INFO@@XZ
	DD	FLAT:?Create@CButton@@UAEHPBDKABUtagRECT@@PAVCWnd@@I@Z
	DD	FLAT:?DrawItem@CButton@@UAEXPAUtagDRAWITEMSTRUCT@@@Z
CONST	ENDS
;	COMDAT ??_7CStatic@@6B@
CONST	SEGMENT
??_7CStatic@@6B@ DD FLAT:??_R4CStatic@@6B@		; CStatic::`vftable'
	DD	FLAT:?GetRuntimeClass@CStatic@@UBEPAUCRuntimeClass@@XZ
	DD	FLAT:??_ECStatic@@UAEPAXI@Z
	DD	FLAT:?Serialize@CObject@@UAEXAAVCArchive@@@Z
	DD	FLAT:?AssertValid@CObject@@UBEXXZ
	DD	FLAT:?Dump@CObject@@UBEXAAVCDumpContext@@@Z
	DD	FLAT:?OnCmdMsg@CCmdTarget@@UAEHIHPAXPAUAFX_CMDHANDLERINFO@@@Z
	DD	FLAT:?OnFinalRelease@CWnd@@UAEXXZ
	DD	FLAT:?IsInvokeAllowed@CCmdTarget@@UAEHJ@Z
	DD	FLAT:?GetDispatchIID@CCmdTarget@@UAEHPAU_GUID@@@Z
	DD	FLAT:?GetTypeInfoCount@CCmdTarget@@UAEIXZ
	DD	FLAT:?GetTypeLibCache@CCmdTarget@@UAEPAVCTypeLibCache@@XZ
	DD	FLAT:?GetTypeLib@CCmdTarget@@UAEJKPAPAUITypeLib@@@Z
	DD	FLAT:?GetMessageMap@CWnd@@MBEPBUAFX_MSGMAP@@XZ
	DD	FLAT:?GetCommandMap@CCmdTarget@@MBEPBUAFX_OLECMDMAP@@XZ
	DD	FLAT:?GetDispatchMap@CCmdTarget@@MBEPBUAFX_DISPMAP@@XZ
	DD	FLAT:?GetConnectionMap@CCmdTarget@@MBEPBUAFX_CONNECTIONMAP@@XZ
	DD	FLAT:?GetInterfaceMap@CWnd@@MBEPBUAFX_INTERFACEMAP@@XZ
	DD	FLAT:?GetEventSinkMap@CCmdTarget@@MBEPBUAFX_EVENTSINKMAP@@XZ
	DD	FLAT:?OnCreateAggregates@CCmdTarget@@UAEHXZ
	DD	FLAT:?GetInterfaceHook@CCmdTarget@@UAEPAUIUnknown@@PBX@Z
	DD	FLAT:?GetExtraConnectionPoints@CCmdTarget@@MAEHPAVCPtrArray@@@Z
	DD	FLAT:?GetConnectionHook@CCmdTarget@@MAEPAUIConnectionPoint@@ABU_GUID@@@Z
	DD	FLAT:?PreSubclassWindow@CWnd@@UAEXXZ
	DD	FLAT:?Create@CWnd@@UAEHPBD0KABUtagRECT@@PAV1@IPAUCCreateContext@@@Z
	DD	FLAT:?CreateEx@CWnd@@UAEHKPBD0KABUtagRECT@@PAV1@IPAX@Z
	DD	FLAT:?CreateEx@CWnd@@UAEHKPBD0KHHHHPAUHWND__@@PAUHMENU__@@PAX@Z
	DD	FLAT:?DestroyWindow@CWnd@@UAEHXZ
	DD	FLAT:?PreCreateWindow@CWnd@@UAEHAAUtagCREATESTRUCTA@@@Z
	DD	FLAT:?CalcWindowRect@CWnd@@UAEXPAUtagRECT@@I@Z
	DD	FLAT:?GetMenu@CWnd@@UBEPAVCMenu@@XZ
	DD	FLAT:?SetMenu@CWnd@@UAEHPAVCMenu@@@Z
	DD	FLAT:?OnToolHitTest@CWnd@@UBEHVCPoint@@PAUtagTOOLINFOA@@@Z
	DD	FLAT:?GetScrollBarCtrl@CWnd@@UBEPAVCScrollBar@@H@Z
	DD	FLAT:?WinHelpA@CWnd@@UAEXKI@Z
	DD	FLAT:?HtmlHelpA@CWnd@@UAEXKI@Z
	DD	FLAT:?WinHelpInternal@CWnd@@UAEXKI@Z
	DD	FLAT:?ContinueModal@CWnd@@UAEHXZ
	DD	FLAT:?EndModalLoop@CWnd@@UAEXH@Z
	DD	FLAT:?OnDrawIconicThumbnailOrLivePreview@CWnd@@UAEXAAVCDC@@VCRect@@VCSize@@HAAH@Z
	DD	FLAT:?EnsureStdObj@CWnd@@UAEJXZ
	DD	FLAT:?get_accParent@CWnd@@UAEJPAPAUIDispatch@@@Z
	DD	FLAT:?get_accChildCount@CWnd@@UAEJPAJ@Z
	DD	FLAT:?get_accChild@CWnd@@UAEJUtagVARIANT@@PAPAUIDispatch@@@Z
	DD	FLAT:?get_accName@CWnd@@UAEJUtagVARIANT@@PAPA_W@Z
	DD	FLAT:?get_accValue@CWnd@@UAEJUtagVARIANT@@PAPA_W@Z
	DD	FLAT:?get_accDescription@CWnd@@UAEJUtagVARIANT@@PAPA_W@Z
	DD	FLAT:?get_accRole@CWnd@@UAEJUtagVARIANT@@PAU2@@Z
	DD	FLAT:?get_accState@CWnd@@UAEJUtagVARIANT@@PAU2@@Z
	DD	FLAT:?get_accHelp@CWnd@@UAEJUtagVARIANT@@PAPA_W@Z
	DD	FLAT:?get_accHelpTopic@CWnd@@UAEJPAPA_WUtagVARIANT@@PAJ@Z
	DD	FLAT:?get_accKeyboardShortcut@CWnd@@UAEJUtagVARIANT@@PAPA_W@Z
	DD	FLAT:?get_accFocus@CWnd@@UAEJPAUtagVARIANT@@@Z
	DD	FLAT:?get_accSelection@CWnd@@UAEJPAUtagVARIANT@@@Z
	DD	FLAT:?get_accDefaultAction@CWnd@@UAEJUtagVARIANT@@PAPA_W@Z
	DD	FLAT:?accSelect@CWnd@@UAEJJUtagVARIANT@@@Z
	DD	FLAT:?accLocation@CWnd@@UAEJPAJ000UtagVARIANT@@@Z
	DD	FLAT:?accNavigate@CWnd@@UAEJJUtagVARIANT@@PAU2@@Z
	DD	FLAT:?accHitTest@CWnd@@UAEJJJPAUtagVARIANT@@@Z
	DD	FLAT:?accDoDefaultAction@CWnd@@UAEJUtagVARIANT@@@Z
	DD	FLAT:?put_accName@CWnd@@UAEJUtagVARIANT@@PA_W@Z
	DD	FLAT:?put_accValue@CWnd@@UAEJUtagVARIANT@@PA_W@Z
	DD	FLAT:?SetProxy@CWnd@@UAEJPAUIAccessibleProxy@@@Z
	DD	FLAT:?CreateAccessibleProxy@CWnd@@UAEJIJPAJ@Z
	DD	FLAT:?OnCommand@CWnd@@MAEHIJ@Z
	DD	FLAT:?OnNotify@CWnd@@MAEHIJPAJ@Z
	DD	FLAT:?GetSuperWndProcAddr@CWnd@@MAEPAP6GJPAUHWND__@@IIJ@ZXZ
	DD	FLAT:?DoDataExchange@CWnd@@MAEXPAVCDataExchange@@@Z
	DD	FLAT:?BeginModalState@CWnd@@UAEXXZ
	DD	FLAT:?EndModalState@CWnd@@UAEXXZ
	DD	FLAT:?PreTranslateMessage@CWnd@@UAEHPAUtagMSG@@@Z
	DD	FLAT:?OnAmbientProperty@CWnd@@UAEHPAVCOleControlSite@@JPAUtagVARIANT@@@Z
	DD	FLAT:?WindowProc@CWnd@@MAEJIIJ@Z
	DD	FLAT:?OnWndMsg@CWnd@@MAEHIIJPAJ@Z
	DD	FLAT:?DefWindowProcA@CWnd@@MAEJIIJ@Z
	DD	FLAT:?PostNcDestroy@CWnd@@MAEXXZ
	DD	FLAT:?OnChildNotify@CStatic@@MAEHIIJPAJ@Z
	DD	FLAT:?OnTouchInputs@CWnd@@MAEHIPAUtagTOUCHINPUT@@@Z
	DD	FLAT:?OnTouchInput@CWnd@@MAEHVCPoint@@HHPAUtagTOUCHINPUT@@@Z
	DD	FLAT:?GetGestureStatus@CWnd@@MAEKVCPoint@@@Z
	DD	FLAT:?OnGestureZoom@CWnd@@MAEHVCPoint@@J@Z
	DD	FLAT:?OnGesturePan@CWnd@@MAEHVCPoint@@0@Z
	DD	FLAT:?OnGestureRotate@CWnd@@MAEHVCPoint@@N@Z
	DD	FLAT:?OnGestureTwoFingerTap@CWnd@@MAEHVCPoint@@@Z
	DD	FLAT:?OnGesturePressAndTap@CWnd@@MAEHVCPoint@@J@Z
	DD	FLAT:?ResizeDynamicLayout@CWnd@@MAEXXZ
	DD	FLAT:?CheckAutoCenter@CWnd@@UAEHXZ
	DD	FLAT:?IsFrameWnd@CWnd@@UBEHXZ
	DD	FLAT:?CreateControlContainer@CWnd@@MAEHPAPAVCOleControlContainer@@@Z
	DD	FLAT:?CreateControlSite@CWnd@@MAEHPAVCOleControlContainer@@PAPAVCOleControlSite@@IABU_GUID@@@Z
	DD	FLAT:?SetOccDialogInfo@CWnd@@MAEHPAU_AFX_OCC_DIALOG_INFO@@@Z
	DD	FLAT:?GetOccDialogInfo@CWnd@@MAEPAU_AFX_OCC_DIALOG_INFO@@XZ
	DD	FLAT:?Create@CStatic@@UAEHPBDKABUtagRECT@@PAVCWnd@@I@Z
	DD	FLAT:?DrawItem@CStatic@@UAEXPAUtagDRAWITEMSTRUCT@@@Z
CONST	ENDS
;	COMDAT ??_C@_02DPKJAMEF@?$CFd@
CONST	SEGMENT
??_C@_02DPKJAMEF@?$CFd@ DB '%d', 00H			; `string'
CONST	ENDS
;	COMDAT xdata$x
xdata$x	SEGMENT
__ehfuncinfo$??1CMultiLanguageResourceSetter@@QAE@XZ DD 019930522H
	DD	00H
	DD	00H
	DD	2 DUP(00H)
	DD	2 DUP(00H)
	DD	00H
	DD	05H
xdata$x	ENDS
;	COMDAT xdata$x
xdata$x	SEGMENT
__unwindtable$??_GCSetting_Price@@UAEPAXI@Z DD 0ffffffffH
	DD	FLAT:___std_terminate
__ehfuncinfo$??_GCSetting_Price@@UAEPAXI@Z DD 019930522H
	DD	01H
	DD	FLAT:__unwindtable$??_GCSetting_Price@@UAEPAXI@Z
	DD	2 DUP(00H)
	DD	2 DUP(00H)
	DD	00H
	DD	05H
xdata$x	ENDS
;	COMDAT xdata$x
xdata$x	SEGMENT
__ehfuncinfo$?Set_DrawStyle@CSetting_Price@@IAEXXZ DD 019930522H
	DD	07H
	DD	FLAT:__unwindtable$?Set_DrawStyle@CSetting_Price@@IAEXXZ
	DD	2 DUP(00H)
	DD	2 DUP(00H)
	DD	00H
	DD	01H
__unwindtable$?Set_DrawStyle@CSetting_Price@@IAEXXZ DD 0ffffffffH
	DD	FLAT:__unwindfunclet$?Set_DrawStyle@CSetting_Price@@IAEXXZ$0
	DD	00H
	DD	FLAT:__unwindfunclet$?Set_DrawStyle@CSetting_Price@@IAEXXZ$1
	DD	0ffffffffH
	DD	FLAT:__unwindfunclet$?Set_DrawStyle@CSetting_Price@@IAEXXZ$2
	DD	02H
	DD	FLAT:__unwindfunclet$?Set_DrawStyle@CSetting_Price@@IAEXXZ$3
	DD	03H
	DD	FLAT:__unwindfunclet$?Set_DrawStyle@CSetting_Price@@IAEXXZ$4
	DD	02H
	DD	FLAT:___std_terminate
	DD	0ffffffffH
	DD	FLAT:___std_terminate
xdata$x	ENDS
;	COMDAT xdata$x
xdata$x	SEGMENT
__unwindtable$?Initial_ColorBtn@CSetting_Price@@IAEXH@Z DD 0ffffffffH
	DD	FLAT:__unwindfunclet$?Initial_ColorBtn@CSetting_Price@@IAEXH@Z$0
__ehfuncinfo$?Initial_ColorBtn@CSetting_Price@@IAEXH@Z DD 019930522H
	DD	01H
	DD	FLAT:__unwindtable$?Initial_ColorBtn@CSetting_Price@@IAEXH@Z
	DD	2 DUP(00H)
	DD	2 DUP(00H)
	DD	00H
	DD	01H
xdata$x	ENDS
;	COMDAT xdata$x
xdata$x	SEGMENT
__ehfuncinfo$?Initial_ColorButton@CSetting_Price@@IAEXXZ DD 019930522H
	DD	06H
	DD	FLAT:__unwindtable$?Initial_ColorButton@CSetting_Price@@IAEXXZ
	DD	2 DUP(00H)
	DD	2 DUP(00H)
	DD	00H
	DD	01H
__unwindtable$?Initial_ColorButton@CSetting_Price@@IAEXXZ DD 0ffffffffH
	DD	FLAT:__unwindfunclet$?Initial_ColorButton@CSetting_Price@@IAEXXZ$0
	DD	00H
	DD	FLAT:__unwindfunclet$?Initial_ColorButton@CSetting_Price@@IAEXXZ$1
	DD	01H
	DD	FLAT:__unwindfunclet$?Initial_ColorButton@CSetting_Price@@IAEXXZ$2
	DD	0ffffffffH
	DD	00H
	DD	0ffffffffH
	DD	00H
	DD	0ffffffffH
	DD	FLAT:___std_terminate
xdata$x	ENDS
;	COMDAT xdata$x
xdata$x	SEGMENT
__unwindtable$?ShowHide_FillUpDownNCombo@CSetting_Price@@IAEXH@Z DD 0ffffffffH
	DD	FLAT:__unwindfunclet$?ShowHide_FillUpDownNCombo@CSetting_Price@@IAEXH@Z$0
__ehfuncinfo$?ShowHide_FillUpDownNCombo@CSetting_Price@@IAEXH@Z DD 019930522H
	DD	01H
	DD	FLAT:__unwindtable$?ShowHide_FillUpDownNCombo@CSetting_Price@@IAEXH@Z
	DD	2 DUP(00H)
	DD	2 DUP(00H)
	DD	00H
	DD	01H
xdata$x	ENDS
;	COMDAT xdata$x
xdata$x	SEGMENT
__unwindtable$?OnApply@CSetting_Price@@MAEHPAUIGraphInfo135914@@@Z DD 0ffffffffH
	DD	FLAT:__unwindfunclet$?OnApply@CSetting_Price@@MAEHPAUIGraphInfo135914@@@Z$0
	DD	0ffffffffH
	DD	FLAT:___std_terminate
__ehfuncinfo$?OnApply@CSetting_Price@@MAEHPAUIGraphInfo135914@@@Z DD 019930522H
	DD	02H
	DD	FLAT:__unwindtable$?OnApply@CSetting_Price@@MAEHPAUIGraphInfo135914@@@Z
	DD	2 DUP(00H)
	DD	2 DUP(00H)
	DD	00H
	DD	01H
xdata$x	ENDS
;	COMDAT xdata$x
xdata$x	SEGMENT
__ehfuncinfo$?Initial@CSetting_Price@@MAEXPAUIGraphInfo135914@@@Z DD 019930522H
	DD	06H
	DD	FLAT:__unwindtable$?Initial@CSetting_Price@@MAEXPAUIGraphInfo135914@@@Z
	DD	2 DUP(00H)
	DD	2 DUP(00H)
	DD	00H
	DD	01H
__unwindtable$?Initial@CSetting_Price@@MAEXPAUIGraphInfo135914@@@Z DD 0ffffffffH
	DD	FLAT:__unwindfunclet$?Initial@CSetting_Price@@MAEXPAUIGraphInfo135914@@@Z$0
	DD	00H
	DD	FLAT:__unwindfunclet$?Initial@CSetting_Price@@MAEXPAUIGraphInfo135914@@@Z$1
	DD	01H
	DD	FLAT:__unwindfunclet$?Initial@CSetting_Price@@MAEXPAUIGraphInfo135914@@@Z$2
	DD	02H
	DD	FLAT:__unwindfunclet$?Initial@CSetting_Price@@MAEXPAUIGraphInfo135914@@@Z$3
	DD	00H
	DD	FLAT:___std_terminate
	DD	0ffffffffH
	DD	FLAT:___std_terminate
xdata$x	ENDS
;	COMDAT xdata$x
xdata$x	SEGMENT
__unwindtable$?OnSelchangeDrawstyle@CSetting_Price@@IAEXXZ DD 0ffffffffH
	DD	FLAT:__unwindfunclet$?OnSelchangeDrawstyle@CSetting_Price@@IAEXXZ$0
	DD	0ffffffffH
	DD	FLAT:___std_terminate
__ehfuncinfo$?OnSelchangeDrawstyle@CSetting_Price@@IAEXXZ DD 019930522H
	DD	02H
	DD	FLAT:__unwindtable$?OnSelchangeDrawstyle@CSetting_Price@@IAEXXZ
	DD	2 DUP(00H)
	DD	2 DUP(00H)
	DD	00H
	DD	01H
xdata$x	ENDS
;	COMDAT xdata$x
xdata$x	SEGMENT
__unwindtable$?OnSelchangeThickness@CSetting_Price@@IAEXXZ DD 0ffffffffH
	DD	FLAT:__unwindfunclet$?OnSelchangeThickness@CSetting_Price@@IAEXXZ$0
	DD	0ffffffffH
	DD	FLAT:___std_terminate
__ehfuncinfo$?OnSelchangeThickness@CSetting_Price@@IAEXXZ DD 019930522H
	DD	02H
	DD	FLAT:__unwindtable$?OnSelchangeThickness@CSetting_Price@@IAEXXZ
	DD	2 DUP(00H)
	DD	2 DUP(00H)
	DD	00H
	DD	01H
xdata$x	ENDS
;	COMDAT xdata$x
xdata$x	SEGMENT
__unwindtable$?OnBtnSteady@CSetting_Price@@IAEXXZ DD 0ffffffffH
	DD	FLAT:__unwindfunclet$?OnBtnSteady@CSetting_Price@@IAEXXZ$0
__ehfuncinfo$?OnBtnSteady@CSetting_Price@@IAEXXZ DD 019930522H
	DD	01H
	DD	FLAT:__unwindtable$?OnBtnSteady@CSetting_Price@@IAEXXZ
	DD	2 DUP(00H)
	DD	2 DUP(00H)
	DD	00H
	DD	01H
xdata$x	ENDS
;	COMDAT xdata$x
xdata$x	SEGMENT
__unwindtable$?OnBtnDown@CSetting_Price@@IAEXXZ DD 0ffffffffH
	DD	FLAT:__unwindfunclet$?OnBtnDown@CSetting_Price@@IAEXXZ$0
__ehfuncinfo$?OnBtnDown@CSetting_Price@@IAEXXZ DD 019930522H
	DD	01H
	DD	FLAT:__unwindtable$?OnBtnDown@CSetting_Price@@IAEXXZ
	DD	2 DUP(00H)
	DD	2 DUP(00H)
	DD	00H
	DD	01H
xdata$x	ENDS
;	COMDAT xdata$x
xdata$x	SEGMENT
__unwindtable$?OnBtnUp@CSetting_Price@@IAEXXZ DD 0ffffffffH
	DD	FLAT:__unwindfunclet$?OnBtnUp@CSetting_Price@@IAEXXZ$0
__ehfuncinfo$?OnBtnUp@CSetting_Price@@IAEXXZ DD 019930522H
	DD	01H
	DD	FLAT:__unwindtable$?OnBtnUp@CSetting_Price@@IAEXXZ
	DD	2 DUP(00H)
	DD	2 DUP(00H)
	DD	00H
	DD	01H
xdata$x	ENDS
;	COMDAT xdata$x
xdata$x	SEGMENT
__ehfuncinfo$??1CSetting_Price@@UAE@XZ DD 019930522H
	DD	00H
	DD	00H
	DD	2 DUP(00H)
	DD	2 DUP(00H)
	DD	00H
	DD	05H
xdata$x	ENDS
;	COMDAT xdata$x
xdata$x	SEGMENT
__ehfuncinfo$??0CSetting_Price@@QAE@PAUIChartOCX135914@@PAVCWnd@@1@Z DD 019930522H
	DD	0bH
	DD	FLAT:__unwindtable$??0CSetting_Price@@QAE@PAUIChartOCX135914@@PAVCWnd@@1@Z
	DD	2 DUP(00H)
	DD	2 DUP(00H)
	DD	00H
	DD	01H
__unwindtable$??0CSetting_Price@@QAE@PAUIChartOCX135914@@PAVCWnd@@1@Z DD 0ffffffffH
	DD	FLAT:__unwindfunclet$??0CSetting_Price@@QAE@PAUIChartOCX135914@@PAVCWnd@@1@Z$0
	DD	00H
	DD	FLAT:__unwindfunclet$??0CSetting_Price@@QAE@PAUIChartOCX135914@@PAVCWnd@@1@Z$1
	DD	01H
	DD	FLAT:__unwindfunclet$??0CSetting_Price@@QAE@PAUIChartOCX135914@@PAVCWnd@@1@Z$2
	DD	02H
	DD	FLAT:__unwindfunclet$??0CSetting_Price@@QAE@PAUIChartOCX135914@@PAVCWnd@@1@Z$3
	DD	03H
	DD	FLAT:__unwindfunclet$??0CSetting_Price@@QAE@PAUIChartOCX135914@@PAVCWnd@@1@Z$4
	DD	04H
	DD	FLAT:__unwindfunclet$??0CSetting_Price@@QAE@PAUIChartOCX135914@@PAVCWnd@@1@Z$5
	DD	05H
	DD	FLAT:__unwindfunclet$??0CSetting_Price@@QAE@PAUIChartOCX135914@@PAVCWnd@@1@Z$6
	DD	06H
	DD	FLAT:__unwindfunclet$??0CSetting_Price@@QAE@PAUIChartOCX135914@@PAVCWnd@@1@Z$7
	DD	07H
	DD	FLAT:__unwindfunclet$??0CSetting_Price@@QAE@PAUIChartOCX135914@@PAVCWnd@@1@Z$8
	DD	08H
	DD	FLAT:__unwindfunclet$??0CSetting_Price@@QAE@PAUIChartOCX135914@@PAVCWnd@@1@Z$9
	DD	09H
	DD	FLAT:__unwindfunclet$??0CSetting_Price@@QAE@PAUIChartOCX135914@@PAVCWnd@@1@Z$10
xdata$x	ENDS
;	COMDAT xdata$x
xdata$x	SEGMENT
__ehfuncinfo$??1ILPCSTR135914@@QAE@XZ DD 019930522H
	DD	00H
	DD	00H
	DD	2 DUP(00H)
	DD	2 DUP(00H)
	DD	00H
	DD	05H
xdata$x	ENDS
; Function compile flags: /Ogtp
; File D:\git\src\IBK\IBK_DRFN\ProjSrc\SrcChartEx\ChartAddIn\ChartEnvSetupDlgAddIn\Include_Chart\Dll_Load\IMetaTable.h
; File C:\Program Files (x86)\Microsoft Visual Studio\2019\Community\VC\Tools\MSVC\14.29.30133\atlmfc\include\afxwin1.inl
; File D:\git\src\IBK\IBK_DRFN\ProjSrc\SrcChartEx\ChartAddIn\ChartEnvSetupDlgAddIn\Include_Chart\Dll_Load\IMetaTable.h
;	COMDAT ??1CMultiLanguageResourceSetter@@QAE@XZ
_TEXT	SEGMENT
__$EHRec$ = -12						; size = 12
??1CMultiLanguageResourceSetter@@QAE@XZ PROC		; CMultiLanguageResourceSetter::~CMultiLanguageResourceSetter, COMDAT
; _this$ = ecx

; 1036 : 	{

  00000	55		 push	 ebp
  00001	8b ec		 mov	 ebp, esp
  00003	6a ff		 push	 -1
  00005	68 00 00 00 00	 push	 __ehhandler$??1CMultiLanguageResourceSetter@@QAE@XZ
  0000a	64 a1 00 00 00
	00		 mov	 eax, DWORD PTR fs:0
  00010	50		 push	 eax
  00011	56		 push	 esi
  00012	a1 00 00 00 00	 mov	 eax, DWORD PTR ___security_cookie
  00017	33 c5		 xor	 eax, ebp
  00019	50		 push	 eax
  0001a	8d 45 f4	 lea	 eax, DWORD PTR __$EHRec$[ebp]
  0001d	64 a3 00 00 00
	00		 mov	 DWORD PTR fs:0, eax

; 1037 : 		AfxSetResourceHandle( m_hInstance);

  00023	8b 31		 mov	 esi, DWORD PTR [ecx]
; File C:\Program Files (x86)\Microsoft Visual Studio\2019\Community\VC\Tools\MSVC\14.29.30133\atlmfc\include\afxwin1.inl

; 27   : 	{ ASSERT(hInstResource != NULL); afxCurrentResourceHandle = hInstResource; }

  00025	e8 00 00 00 00	 call	 ?AfxGetModuleState@@YGPAVAFX_MODULE_STATE@@XZ ; AfxGetModuleState
  0002a	89 70 0c	 mov	 DWORD PTR [eax+12], esi
; File D:\git\src\IBK\IBK_DRFN\ProjSrc\SrcChartEx\ChartAddIn\ChartEnvSetupDlgAddIn\Include_Chart\Dll_Load\IMetaTable.h

; 1038 : 	}

  0002d	8b 4d f4	 mov	 ecx, DWORD PTR __$EHRec$[ebp]
  00030	64 89 0d 00 00
	00 00		 mov	 DWORD PTR fs:0, ecx
  00037	59		 pop	 ecx
  00038	5e		 pop	 esi
  00039	8b e5		 mov	 esp, ebp
  0003b	5d		 pop	 ebp
  0003c	c3		 ret	 0
  0003d	cc		 int	 3
  0003e	cc		 int	 3
  0003f	cc		 int	 3
  00040	cc		 int	 3
  00041	cc		 int	 3
_TEXT	ENDS
;	COMDAT text$x
text$x	SEGMENT
__ehhandler$??1CMultiLanguageResourceSetter@@QAE@XZ:
  00000	90		 npad	 1
  00001	90		 npad	 1
  00002	8b 54 24 08	 mov	 edx, DWORD PTR [esp+8]
  00006	8d 42 0c	 lea	 eax, DWORD PTR [edx+12]
  00009	8b 4a f8	 mov	 ecx, DWORD PTR [edx-8]
  0000c	33 c8		 xor	 ecx, eax
  0000e	e8 00 00 00 00	 call	 @__security_check_cookie@4
  00013	b8 00 00 00 00	 mov	 eax, OFFSET __ehfuncinfo$??1CMultiLanguageResourceSetter@@QAE@XZ
  00018	e9 00 00 00 00	 jmp	 ___CxxFrameHandler3
text$x	ENDS
??1CMultiLanguageResourceSetter@@QAE@XZ ENDP		; CMultiLanguageResourceSetter::~CMultiLanguageResourceSetter
; Function compile flags: /Ogtp
; File D:\git\src\IBK\IBK_DRFN\ProjSrc\SrcChartEx\ChartAddIn\ChartEnvSetupDlgAddIn\ChartEnvSetupDlgAddIn\Setting_Price.cpp
; File C:\Program Files (x86)\Microsoft Visual Studio\2019\Community\VC\Tools\MSVC\14.29.30133\atlmfc\include\afx.inl
;	COMDAT ??_GCSetting_Price@@UAEPAXI@Z
_TEXT	SEGMENT
__$EHRec$ = -12						; size = 12
___flags$ = 8						; size = 4
??_GCSetting_Price@@UAEPAXI@Z PROC			; CSetting_Price::`scalar deleting destructor', COMDAT
; _this$ = ecx
  00000	55		 push	 ebp
  00001	8b ec		 mov	 ebp, esp
  00003	6a ff		 push	 -1
  00005	68 00 00 00 00	 push	 __ehhandler$??_GCSetting_Price@@UAEPAXI@Z
  0000a	64 a1 00 00 00
	00		 mov	 eax, DWORD PTR fs:0
  00010	50		 push	 eax
  00011	56		 push	 esi
  00012	a1 00 00 00 00	 mov	 eax, DWORD PTR ___security_cookie
  00017	33 c5		 xor	 eax, ebp
  00019	50		 push	 eax
  0001a	8d 45 f4	 lea	 eax, DWORD PTR __$EHRec$[ebp]
  0001d	64 a3 00 00 00
	00		 mov	 DWORD PTR fs:0, eax
  00023	8b f1		 mov	 esi, ecx
; File D:\git\src\IBK\IBK_DRFN\ProjSrc\SrcChartEx\ChartAddIn\ChartEnvSetupDlgAddIn\ChartEnvSetupDlgAddIn\Setting_Price.cpp

; 51   : 	if( m_pIChartManager)

  00025	8b 8e b8 00 00
	00		 mov	 ecx, DWORD PTR [esi+184]
  0002b	c7 45 fc 00 00
	00 00		 mov	 DWORD PTR __$EHRec$[ebp+8], 0
  00032	c7 06 00 00 00
	00		 mov	 DWORD PTR [esi], OFFSET ??_7CSetting_Price@@6B@
  00038	85 c9		 test	 ecx, ecx
  0003a	74 10		 je	 SHORT $LN8@scalar

; 52   : 	{
; 53   : 		m_pIChartManager->Release();

  0003c	8b 01		 mov	 eax, DWORD PTR [ecx]
  0003e	51		 push	 ecx
  0003f	ff 50 08	 call	 DWORD PTR [eax+8]

; 54   : 		m_pIChartManager = NULL;

  00042	c7 86 b8 00 00
	00 00 00 00 00	 mov	 DWORD PTR [esi+184], 0
$LN8@scalar:

; 55   : 	}
; 56   : }

  0004c	8d 8e 18 06 00
	00		 lea	 ecx, DWORD PTR [esi+1560]
  00052	e8 00 00 00 00	 call	 ??1CBitmapItemComboBox@@UAE@XZ ; CBitmapItemComboBox::~CBitmapItemComboBox
  00057	8d 8e 90 05 00
	00		 lea	 ecx, DWORD PTR [esi+1424]
  0005d	e8 00 00 00 00	 call	 ??1CBitmapItemComboBox@@UAE@XZ ; CBitmapItemComboBox::~CBitmapItemComboBox
  00062	8d 8e 10 05 00
	00		 lea	 ecx, DWORD PTR [esi+1296]
  00068	e8 00 00 00 00	 call	 ??1CButton@@UAE@XZ	; CButton::~CButton
  0006d	8d 8e 90 04 00
	00		 lea	 ecx, DWORD PTR [esi+1168]
  00073	e8 00 00 00 00	 call	 ??1CButton@@UAE@XZ	; CButton::~CButton
  00078	8d 8e 10 04 00
	00		 lea	 ecx, DWORD PTR [esi+1040]
  0007e	e8 00 00 00 00	 call	 ??1CButton@@UAE@XZ	; CButton::~CButton
  00083	8d 8e 90 03 00
	00		 lea	 ecx, DWORD PTR [esi+912]
  00089	e8 00 00 00 00	 call	 ??1CButton@@UAE@XZ	; CButton::~CButton
  0008e	8d 8e 10 03 00
	00		 lea	 ecx, DWORD PTR [esi+784]
  00094	e8 00 00 00 00	 call	 ??1CStatic@@UAE@XZ	; CStatic::~CStatic
  00099	8d 8e 90 02 00
	00		 lea	 ecx, DWORD PTR [esi+656]
  0009f	e8 00 00 00 00	 call	 ??1CStatic@@UAE@XZ	; CStatic::~CStatic
  000a4	8d 8e 08 02 00
	00		 lea	 ecx, DWORD PTR [esi+520]
  000aa	e8 00 00 00 00	 call	 ??1CColorButton@@UAE@XZ	; CColorButton::~CColorButton
  000af	8d 8e 80 01 00
	00		 lea	 ecx, DWORD PTR [esi+384]
  000b5	e8 00 00 00 00	 call	 ??1CColorButton@@UAE@XZ	; CColorButton::~CColorButton
  000ba	8d 8e f8 00 00
	00		 lea	 ecx, DWORD PTR [esi+248]
  000c0	e8 00 00 00 00	 call	 ??1CColorButton@@UAE@XZ	; CColorButton::~CColorButton
  000c5	8b ce		 mov	 ecx, esi
  000c7	e8 00 00 00 00	 call	 ??1CBaseDialog@@UAE@XZ	; CBaseDialog::~CBaseDialog
  000cc	8b 45 08	 mov	 eax, DWORD PTR ___flags$[ebp]
  000cf	a8 01		 test	 al, 1
  000d1	74 2f		 je	 SHORT $LN13@scalar
  000d3	a8 04		 test	 al, 4
  000d5	75 1d		 jne	 SHORT $LN3@scalar
; File C:\Program Files (x86)\Microsoft Visual Studio\2019\Community\VC\Tools\MSVC\14.29.30133\atlmfc\include\afx.inl

; 112  : 	{ ::operator delete(p); }

  000d7	56		 push	 esi
  000d8	e8 00 00 00 00	 call	 ??3@YAXPAX@Z		; operator delete
  000dd	83 c4 04	 add	 esp, 4
  000e0	8b c6		 mov	 eax, esi
  000e2	8b 4d f4	 mov	 ecx, DWORD PTR __$EHRec$[ebp]
  000e5	64 89 0d 00 00
	00 00		 mov	 DWORD PTR fs:0, ecx
  000ec	59		 pop	 ecx
  000ed	5e		 pop	 esi
  000ee	8b e5		 mov	 esp, ebp
  000f0	5d		 pop	 ebp
  000f1	c2 04 00	 ret	 4
$LN3@scalar:
  000f4	68 b0 06 00 00	 push	 1712			; 000006b0H
  000f9	56		 push	 esi
  000fa	e8 00 00 00 00	 call	 ?__global_delete@@YAXPAXI@Z ; __global_delete
  000ff	83 c4 08	 add	 esp, 8
$LN13@scalar:
  00102	8b c6		 mov	 eax, esi
  00104	8b 4d f4	 mov	 ecx, DWORD PTR __$EHRec$[ebp]
  00107	64 89 0d 00 00
	00 00		 mov	 DWORD PTR fs:0, ecx
  0010e	59		 pop	 ecx
  0010f	5e		 pop	 esi
  00110	8b e5		 mov	 esp, ebp
  00112	5d		 pop	 ebp
  00113	c2 04 00	 ret	 4
  00116	cc		 int	 3
  00117	cc		 int	 3
  00118	cc		 int	 3
  00119	cc		 int	 3
  0011a	cc		 int	 3
_TEXT	ENDS
;	COMDAT text$x
text$x	SEGMENT
__ehhandler$??_GCSetting_Price@@UAEPAXI@Z:
  00000	90		 npad	 1
  00001	90		 npad	 1
  00002	8b 54 24 08	 mov	 edx, DWORD PTR [esp+8]
  00006	8d 42 0c	 lea	 eax, DWORD PTR [edx+12]
  00009	8b 4a f8	 mov	 ecx, DWORD PTR [edx-8]
  0000c	33 c8		 xor	 ecx, eax
  0000e	e8 00 00 00 00	 call	 @__security_check_cookie@4
  00013	b8 00 00 00 00	 mov	 eax, OFFSET __ehfuncinfo$??_GCSetting_Price@@UAEPAXI@Z
  00018	e9 00 00 00 00	 jmp	 ___CxxFrameHandler3
text$x	ENDS
??_GCSetting_Price@@UAEPAXI@Z ENDP			; CSetting_Price::`scalar deleting destructor'
; Function compile flags: /Ogtp
; File D:\git\src\IBK\IBK_DRFN\ProjSrc\SrcChartEx\ChartAddIn\ChartEnvSetupDlgAddIn\ChartEnvSetupDlgAddIn\Setting_Price.cpp
; File C:\Program Files (x86)\Microsoft Visual Studio\2019\Community\VC\Tools\MSVC\14.29.30133\atlmfc\include\afxwin2.inl
; File D:\git\src\IBK\IBK_DRFN\ProjSrc\SrcChartEx\ChartAddIn\ChartEnvSetupDlgAddIn\ChartEnvSetupDlgAddIn\Setting_Price.cpp
; File D:\git\src\IBK\IBK_DRFN\ProjSrc\SrcChartEx\ChartAddIn\ChartEnvSetupDlgAddIn\Include_AddIn_135914\I135914\_IString.h
; File D:\git\src\IBK\IBK_DRFN\ProjSrc\SrcChartEx\ChartAddIn\ChartEnvSetupDlgAddIn\ChartEnvSetupDlgAddIn\Setting_Price.cpp
; File D:\git\src\IBK\IBK_DRFN\ProjSrc\SrcChartEx\ChartAddIn\ChartEnvSetupDlgAddIn\Include_AddIn_135914\I135914\_IString.h
; File D:\git\src\IBK\IBK_DRFN\ProjSrc\SrcChartEx\ChartAddIn\ChartEnvSetupDlgAddIn\ChartEnvSetupDlgAddIn\Setting_Price.cpp
; File C:\Program Files (x86)\Microsoft Visual Studio\2019\Community\VC\Tools\MSVC\14.29.30133\atlmfc\include\afxwin2.inl
; File D:\git\src\IBK\IBK_DRFN\ProjSrc\SrcChartEx\ChartAddIn\ChartEnvSetupDlgAddIn\ChartEnvSetupDlgAddIn\Setting_Price.cpp
; File C:\Program Files (x86)\Microsoft Visual Studio\2019\Community\VC\Tools\MSVC\14.29.30133\atlmfc\include\afxwin2.inl
; File D:\git\src\IBK\IBK_DRFN\ProjSrc\SrcChartEx\ChartAddIn\ChartEnvSetupDlgAddIn\ChartEnvSetupDlgAddIn\Setting_Price.cpp
; File C:\Program Files (x86)\Microsoft Visual Studio\2019\Community\VC\Tools\MSVC\14.29.30133\atlmfc\include\afxwin2.inl
; File D:\git\src\IBK\IBK_DRFN\ProjSrc\SrcChartEx\ChartAddIn\ChartEnvSetupDlgAddIn\ChartEnvSetupDlgAddIn\Setting_Price.cpp
; File D:\git\src\IBK\IBK_DRFN\ProjSrc\SrcChartEx\ChartAddIn\ChartEnvSetupDlgAddIn\Include_AddIn_135914\I135914\_IString.h
; File D:\git\src\IBK\IBK_DRFN\ProjSrc\SrcChartEx\ChartAddIn\ChartEnvSetupDlgAddIn\ChartEnvSetupDlgAddIn\Setting_Price.cpp
; File C:\Program Files (x86)\Microsoft Visual Studio\2019\Community\VC\Tools\MSVC\14.29.30133\atlmfc\include\afxwin2.inl
; File D:\git\src\IBK\IBK_DRFN\ProjSrc\SrcChartEx\ChartAddIn\ChartEnvSetupDlgAddIn\ChartEnvSetupDlgAddIn\Setting_Price.cpp
; File C:\Program Files (x86)\Microsoft Visual Studio\2019\Community\VC\Tools\MSVC\14.29.30133\atlmfc\include\afxwin2.inl
; File D:\git\src\IBK\IBK_DRFN\ProjSrc\SrcChartEx\ChartAddIn\ChartEnvSetupDlgAddIn\ChartEnvSetupDlgAddIn\Setting_Price.cpp
; File C:\Program Files (x86)\Microsoft Visual Studio\2019\Community\VC\Tools\MSVC\14.29.30133\atlmfc\include\afxwin2.inl
; File D:\git\src\IBK\IBK_DRFN\ProjSrc\SrcChartEx\ChartAddIn\ChartEnvSetupDlgAddIn\ChartEnvSetupDlgAddIn\Setting_Price.cpp
; File C:\Program Files (x86)\Microsoft Visual Studio\2019\Community\VC\Tools\MSVC\14.29.30133\atlmfc\include\afxwin2.inl
; File D:\git\src\IBK\IBK_DRFN\ProjSrc\SrcChartEx\ChartAddIn\ChartEnvSetupDlgAddIn\ChartEnvSetupDlgAddIn\Setting_Price.cpp
;	COMDAT ?Set_DrawStyle@CSetting_Price@@IAEXXZ
_TEXT	SEGMENT
_szGraphName$ = -64					; size = 8
_szPacketNames$ = -56					; size = 8
_nSubGraphStyle$1$ = -48				; size = 4
_strPacketNames$ = -44					; size = 4
_pEquiVolumeButton$1$ = -40				; size = 4
_strGraphStyle$2 = -40					; size = 4
_pCandleVolumeButton$1$ = -36				; size = 4
_strGraphType$3 = -36					; size = 4
_pFlowButton$1$ = -32					; size = 4
_pNewBarButton$1$ = -28					; size = 4
_pLineButton$1$ = -24					; size = 4
_pBarButton$1$ = -20					; size = 4
_pBongButton$1$ = -16					; size = 4
__$EHRec$ = -12						; size = 12
?Set_DrawStyle@CSetting_Price@@IAEXXZ PROC		; CSetting_Price::Set_DrawStyle, COMDAT
; _this$ = ecx

; 471  : {

  00000	55		 push	 ebp
  00001	8b ec		 mov	 ebp, esp
  00003	6a ff		 push	 -1
  00005	68 00 00 00 00	 push	 __ehhandler$?Set_DrawStyle@CSetting_Price@@IAEXXZ
  0000a	64 a1 00 00 00
	00		 mov	 eax, DWORD PTR fs:0
  00010	50		 push	 eax
  00011	83 ec 34	 sub	 esp, 52			; 00000034H
  00014	53		 push	 ebx
  00015	56		 push	 esi
  00016	57		 push	 edi
  00017	a1 00 00 00 00	 mov	 eax, DWORD PTR ___security_cookie
  0001c	33 c5		 xor	 eax, ebp
  0001e	50		 push	 eax
  0001f	8d 45 f4	 lea	 eax, DWORD PTR __$EHRec$[ebp]
  00022	64 a3 00 00 00
	00		 mov	 DWORD PTR fs:0, eax
  00028	8b f9		 mov	 edi, ecx

; 472  : 	// (2007/12/17 - Seung-Won, Bae) for Not-Candle Type
; 473  : 	int nSubGraphType = m_pIGraphInfo->GetSubGraphType( 0);

  0002a	8b 8f c4 00 00
	00		 mov	 ecx, DWORD PTR [edi+196]
  00030	6a 00		 push	 0
  00032	8b 01		 mov	 eax, DWORD PTR [ecx]
  00034	ff 50 50	 call	 DWORD PTR [eax+80]

; 474  : 	int nSubGraphStyle = m_pIGraphInfo->GetSubGraphStyle( 0);

  00037	8b 8f c4 00 00
	00		 mov	 ecx, DWORD PTR [edi+196]
  0003d	8b f0		 mov	 esi, eax
  0003f	6a 00		 push	 0
  00041	8b 11		 mov	 edx, DWORD PTR [ecx]
  00043	ff 52 54	 call	 DWORD PTR [edx+84]
  00046	8b d8		 mov	 ebx, eax
  00048	89 5d d0	 mov	 DWORD PTR _nSubGraphStyle$1$[ebp], ebx

; 475  : 	if( nSubGraphStyle < 0) return;

  0004b	85 db		 test	 ebx, ebx
  0004d	0f 88 df 04 00
	00		 js	 $LN148@Set_DrawSt

; 476  : 	if( CGraphBaseData::Bong_Type != nSubGraphType)

  00053	85 f6		 test	 esi, esi
  00055	0f 84 42 01 00
	00		 je	 $LN5@Set_DrawSt

; 477  : 	{
; 478  : 		GetDlgItem( IDC_BONG_CHART)->EnableWindow(		FALSE);	

  0005b	6a 00		 push	 0
  0005d	68 15 04 00 00	 push	 1045			; 00000415H
  00062	8b cf		 mov	 ecx, edi
  00064	e8 00 00 00 00	 call	 ?GetDlgItem@CWnd@@QBEPAV1@H@Z ; CWnd::GetDlgItem
  00069	8b c8		 mov	 ecx, eax
  0006b	e8 00 00 00 00	 call	 ?EnableWindow@CWnd@@QAEHH@Z ; CWnd::EnableWindow

; 479  : 		GetDlgItem( IDC_LINE_CHART)->EnableWindow(		FALSE);	

  00070	6a 00		 push	 0
  00072	68 17 04 00 00	 push	 1047			; 00000417H
  00077	8b cf		 mov	 ecx, edi
  00079	e8 00 00 00 00	 call	 ?GetDlgItem@CWnd@@QBEPAV1@H@Z ; CWnd::GetDlgItem
  0007e	8b c8		 mov	 ecx, eax
  00080	e8 00 00 00 00	 call	 ?EnableWindow@CWnd@@QAEHH@Z ; CWnd::EnableWindow

; 480  : 		GetDlgItem( IDC_BAR_CHART)->EnableWindow(		FALSE);

  00085	6a 00		 push	 0
  00087	68 16 04 00 00	 push	 1046			; 00000416H
  0008c	8b cf		 mov	 ecx, edi
  0008e	e8 00 00 00 00	 call	 ?GetDlgItem@CWnd@@QBEPAV1@H@Z ; CWnd::GetDlgItem
  00093	8b c8		 mov	 ecx, eax
  00095	e8 00 00 00 00	 call	 ?EnableWindow@CWnd@@QAEHH@Z ; CWnd::EnableWindow

; 481  : 		GetDlgItem( IDC_NEWBAR_CHART)->EnableWindow(	FALSE);

  0009a	6a 00		 push	 0
  0009c	68 19 04 00 00	 push	 1049			; 00000419H
  000a1	8b cf		 mov	 ecx, edi
  000a3	e8 00 00 00 00	 call	 ?GetDlgItem@CWnd@@QBEPAV1@H@Z ; CWnd::GetDlgItem
  000a8	8b c8		 mov	 ecx, eax
  000aa	e8 00 00 00 00	 call	 ?EnableWindow@CWnd@@QAEHH@Z ; CWnd::EnableWindow

; 482  : 		GetDlgItem( IDC_FLOW_CHART)->EnableWindow(		FALSE);

  000af	6a 00		 push	 0
  000b1	68 18 04 00 00	 push	 1048			; 00000418H
  000b6	8b cf		 mov	 ecx, edi
  000b8	e8 00 00 00 00	 call	 ?GetDlgItem@CWnd@@QBEPAV1@H@Z ; CWnd::GetDlgItem
  000bd	8b c8		 mov	 ecx, eax
  000bf	e8 00 00 00 00	 call	 ?EnableWindow@CWnd@@QAEHH@Z ; CWnd::EnableWindow

; 483  : 		GetDlgItem( IDC_CANDLEVOLUME_CHART)->EnableWindow(		FALSE);

  000c4	6a 00		 push	 0
  000c6	68 1a 04 00 00	 push	 1050			; 0000041aH
  000cb	8b cf		 mov	 ecx, edi
  000cd	e8 00 00 00 00	 call	 ?GetDlgItem@CWnd@@QBEPAV1@H@Z ; CWnd::GetDlgItem
  000d2	8b c8		 mov	 ecx, eax
  000d4	e8 00 00 00 00	 call	 ?EnableWindow@CWnd@@QAEHH@Z ; CWnd::EnableWindow

; 484  : 		GetDlgItem( IDC_EQUIVOLUME_CHART)->EnableWindow(		FALSE);

  000d9	6a 00		 push	 0
  000db	68 1d 04 00 00	 push	 1053			; 0000041dH
  000e0	8b cf		 mov	 ecx, edi
  000e2	e8 00 00 00 00	 call	 ?GetDlgItem@CWnd@@QBEPAV1@H@Z ; CWnd::GetDlgItem
  000e7	8b c8		 mov	 ecx, eax
  000e9	e8 00 00 00 00	 call	 ?EnableWindow@CWnd@@QAEHH@Z ; CWnd::EnableWindow

; 485  : 		( ( CButton *)GetDlgItem( IDC_NOT_CANDLE))->SetCheck( 1);

  000ee	68 1e 04 00 00	 push	 1054			; 0000041eH
  000f3	8b cf		 mov	 ecx, edi
  000f5	e8 00 00 00 00	 call	 ?GetDlgItem@CWnd@@QBEPAV1@H@Z ; CWnd::GetDlgItem
; File C:\Program Files (x86)\Microsoft Visual Studio\2019\Community\VC\Tools\MSVC\14.29.30133\atlmfc\include\afxwin2.inl

; 630  : 	{ ASSERT(::IsWindow(m_hWnd)); ::SendMessage(m_hWnd, BM_SETCHECK, nCheck, 0); }

  000fa	6a 00		 push	 0
  000fc	6a 01		 push	 1
  000fe	68 f1 00 00 00	 push	 241			; 000000f1H
  00103	ff 70 20	 push	 DWORD PTR [eax+32]
  00106	ff 15 00 00 00
	00		 call	 DWORD PTR __imp__SendMessageA@16
; File D:\git\src\IBK\IBK_DRFN\ProjSrc\SrcChartEx\ChartAddIn\ChartEnvSetupDlgAddIn\ChartEnvSetupDlgAddIn\Setting_Price.cpp

; 486  : 		CString strGraphType;

  0010c	8d 4d dc	 lea	 ecx, DWORD PTR _strGraphType$3[ebp]
  0010f	ff 15 00 00 00
	00		 call	 DWORD PTR __imp_??0?$CStringT@DV?$StrTraitMFC_DLL@DV?$ChTraitsCRT@D@ATL@@@@@ATL@@QAE@XZ

; 487  : 		strGraphType.Format( "%d", nSubGraphType);

  00115	56		 push	 esi
  00116	8b 35 00 00 00
	00		 mov	 esi, DWORD PTR __imp_?Format@?$CStringT@DV?$StrTraitMFC_DLL@DV?$ChTraitsCRT@D@ATL@@@@@ATL@@QAAXPBDZZ
  0011c	8d 45 dc	 lea	 eax, DWORD PTR _strGraphType$3[ebp]
  0011f	68 00 00 00 00	 push	 OFFSET ??_C@_02DPKJAMEF@?$CFd@
  00124	50		 push	 eax
  00125	c7 45 fc 00 00
	00 00		 mov	 DWORD PTR __$EHRec$[ebp+8], 0
  0012c	ff d6		 call	 esi
  0012e	83 c4 0c	 add	 esp, 12			; 0000000cH

; 488  : 		GetDlgItem( IDC_NOT_CANDLE_TYPE)->SetWindowText( strGraphType);

  00131	8b cf		 mov	 ecx, edi
  00133	ff 75 dc	 push	 DWORD PTR _strGraphType$3[ebp]
  00136	68 63 1f 00 00	 push	 8035			; 00001f63H
  0013b	e8 00 00 00 00	 call	 ?GetDlgItem@CWnd@@QBEPAV1@H@Z ; CWnd::GetDlgItem
  00140	8b c8		 mov	 ecx, eax
  00142	e8 00 00 00 00	 call	 ?SetWindowTextA@CWnd@@QAEXPBD@Z ; CWnd::SetWindowTextA

; 489  : 		CString strGraphStyle;

  00147	8d 4d d8	 lea	 ecx, DWORD PTR _strGraphStyle$2[ebp]
  0014a	ff 15 00 00 00
	00		 call	 DWORD PTR __imp_??0?$CStringT@DV?$StrTraitMFC_DLL@DV?$ChTraitsCRT@D@ATL@@@@@ATL@@QAE@XZ

; 490  : 		strGraphStyle.Format( "%d", nSubGraphStyle);

  00150	53		 push	 ebx
  00151	8d 45 d8	 lea	 eax, DWORD PTR _strGraphStyle$2[ebp]
  00154	c6 45 fc 01	 mov	 BYTE PTR __$EHRec$[ebp+8], 1
  00158	68 00 00 00 00	 push	 OFFSET ??_C@_02DPKJAMEF@?$CFd@
  0015d	50		 push	 eax
  0015e	ff d6		 call	 esi
  00160	83 c4 0c	 add	 esp, 12			; 0000000cH

; 491  : 		GetDlgItem( IDC_NOT_CANDLE_STYLE)->SetWindowText( strGraphStyle);

  00163	8b cf		 mov	 ecx, edi
  00165	ff 75 d8	 push	 DWORD PTR _strGraphStyle$2[ebp]
  00168	68 64 1f 00 00	 push	 8036			; 00001f64H
  0016d	e8 00 00 00 00	 call	 ?GetDlgItem@CWnd@@QBEPAV1@H@Z ; CWnd::GetDlgItem
  00172	8b c8		 mov	 ecx, eax
  00174	e8 00 00 00 00	 call	 ?SetWindowTextA@CWnd@@QAEXPBD@Z ; CWnd::SetWindowTextA

; 492  : 		return;

  00179	8d 4d d8	 lea	 ecx, DWORD PTR _strGraphStyle$2[ebp]
  0017c	ff 15 00 00 00
	00		 call	 DWORD PTR __imp_??1?$CStringT@DV?$StrTraitMFC_DLL@DV?$ChTraitsCRT@D@ATL@@@@@ATL@@QAE@XZ
  00182	8d 4d dc	 lea	 ecx, DWORD PTR _strGraphType$3[ebp]
  00185	ff 15 00 00 00
	00		 call	 DWORD PTR __imp_??1?$CStringT@DV?$StrTraitMFC_DLL@DV?$ChTraitsCRT@D@ATL@@@@@ATL@@QAE@XZ

; 702  : }

  0018b	8b 4d f4	 mov	 ecx, DWORD PTR __$EHRec$[ebp]
  0018e	64 89 0d 00 00
	00 00		 mov	 DWORD PTR fs:0, ecx
  00195	59		 pop	 ecx
  00196	5f		 pop	 edi
  00197	5e		 pop	 esi
  00198	5b		 pop	 ebx
  00199	8b e5		 mov	 esp, ebp
  0019b	5d		 pop	 ebp
  0019c	c3		 ret	 0
$LN5@Set_DrawSt:

; 496  : 	ILPCSTR szGraphName = m_pIGraphInfo->GetGraphNameString();

  0019d	8b 8f c4 00 00
	00		 mov	 ecx, DWORD PTR [edi+196]
  001a3	8b 01		 mov	 eax, DWORD PTR [ecx]
  001a5	ff 90 a0 00 00
	00		 call	 DWORD PTR [eax+160]
; File D:\git\src\IBK\IBK_DRFN\ProjSrc\SrcChartEx\ChartAddIn\ChartEnvSetupDlgAddIn\Include_AddIn_135914\I135914\_IString.h

; 39   : 		m_pIStrData = p_pIString;	// Do not AddRef(). Because It must be Return Value.

  001ab	8b d8		 mov	 ebx, eax
  001ad	89 5d c4	 mov	 DWORD PTR _szGraphName$[ebp+4], ebx

; 40   : 		if( m_pIStrData) m_szData = m_pIStrData->GetData();

  001b0	85 db		 test	 ebx, ebx
  001b2	74 0b		 je	 SHORT $LN38@Set_DrawSt
  001b4	8b 13		 mov	 edx, DWORD PTR [ebx]
  001b6	8b cb		 mov	 ecx, ebx
  001b8	ff 52 10	 call	 DWORD PTR [edx+16]
  001bb	8b d0		 mov	 edx, eax
  001bd	eb 02		 jmp	 SHORT $LN153@Set_DrawSt
$LN38@Set_DrawSt:

; 41   : 		else m_szData = NULL;

  001bf	33 d2		 xor	 edx, edx
$LN153@Set_DrawSt:
; File D:\git\src\IBK\IBK_DRFN\ProjSrc\SrcChartEx\ChartAddIn\ChartEnvSetupDlgAddIn\ChartEnvSetupDlgAddIn\Setting_Price.cpp

; 496  : 	ILPCSTR szGraphName = m_pIGraphInfo->GetGraphNameString();

  001c1	89 55 c0	 mov	 DWORD PTR _szGraphName$[ebp], edx

; 497  : 	ILPCSTR szPacketNames = m_pIChartManager->GetPacketNameStringOfGraph( szGraphName);

  001c4	8b 8f b8 00 00
	00		 mov	 ecx, DWORD PTR [edi+184]
  001ca	52		 push	 edx
  001cb	c7 45 fc 02 00
	00 00		 mov	 DWORD PTR __$EHRec$[ebp+8], 2
  001d2	8b 01		 mov	 eax, DWORD PTR [ecx]
  001d4	ff 50 44	 call	 DWORD PTR [eax+68]
; File D:\git\src\IBK\IBK_DRFN\ProjSrc\SrcChartEx\ChartAddIn\ChartEnvSetupDlgAddIn\Include_AddIn_135914\I135914\_IString.h

; 39   : 		m_pIStrData = p_pIString;	// Do not AddRef(). Because It must be Return Value.

  001d7	8b f0		 mov	 esi, eax
  001d9	89 75 cc	 mov	 DWORD PTR _szPacketNames$[ebp+4], esi

; 40   : 		if( m_pIStrData) m_szData = m_pIStrData->GetData();

  001dc	85 f6		 test	 esi, esi
  001de	74 09		 je	 SHORT $LN42@Set_DrawSt
  001e0	8b 16		 mov	 edx, DWORD PTR [esi]
  001e2	8b ce		 mov	 ecx, esi
  001e4	ff 52 10	 call	 DWORD PTR [edx+16]
  001e7	eb 02		 jmp	 SHORT $LN154@Set_DrawSt
$LN42@Set_DrawSt:

; 41   : 		else m_szData = NULL;

  001e9	33 c0		 xor	 eax, eax
$LN154@Set_DrawSt:
; File D:\git\src\IBK\IBK_DRFN\ProjSrc\SrcChartEx\ChartAddIn\ChartEnvSetupDlgAddIn\ChartEnvSetupDlgAddIn\Setting_Price.cpp

; 497  : 	ILPCSTR szPacketNames = m_pIChartManager->GetPacketNameStringOfGraph( szGraphName);

  001eb	89 45 c8	 mov	 DWORD PTR _szPacketNames$[ebp], eax

; 498  : 	CString strPacketNames( szPacketNames);

  001ee	50		 push	 eax
  001ef	8d 4d d4	 lea	 ecx, DWORD PTR _strPacketNames$[ebp]
  001f2	c6 45 fc 03	 mov	 BYTE PTR __$EHRec$[ebp+8], 3
  001f6	ff 15 00 00 00
	00		 call	 DWORD PTR __imp_??0?$CStringT@DV?$StrTraitMFC_DLL@DV?$ChTraitsCRT@D@ATL@@@@@ATL@@QAE@PBD@Z

; 499  : 	if( strPacketNames.Replace( ',', ' ') < 4)

  001fc	6a 20		 push	 32			; 00000020H
  001fe	6a 2c		 push	 44			; 0000002cH
  00200	8d 4d d4	 lea	 ecx, DWORD PTR _strPacketNames$[ebp]
  00203	c6 45 fc 04	 mov	 BYTE PTR __$EHRec$[ebp+8], 4
  00207	ff 15 00 00 00
	00		 call	 DWORD PTR __imp_?Replace@?$CStringT@DV?$StrTraitMFC_DLL@DV?$ChTraitsCRT@D@ATL@@@@@ATL@@QAEHDD@Z
  0020d	83 f8 04	 cmp	 eax, 4
  00210	0f 8d 93 00 00
	00		 jge	 $LN6@Set_DrawSt

; 500  : 	{
; 501  : 		GetDlgItem( IDC_BONG_CHART)->EnableWindow(		FALSE);	

  00216	6a 00		 push	 0
  00218	68 15 04 00 00	 push	 1045			; 00000415H
  0021d	8b cf		 mov	 ecx, edi
  0021f	e8 00 00 00 00	 call	 ?GetDlgItem@CWnd@@QBEPAV1@H@Z ; CWnd::GetDlgItem
  00224	8b c8		 mov	 ecx, eax
  00226	e8 00 00 00 00	 call	 ?EnableWindow@CWnd@@QAEHH@Z ; CWnd::EnableWindow

; 502  : 		GetDlgItem( IDC_LINE_CHART)->EnableWindow(		FALSE);	

  0022b	6a 00		 push	 0
  0022d	68 17 04 00 00	 push	 1047			; 00000417H
  00232	8b cf		 mov	 ecx, edi
  00234	e8 00 00 00 00	 call	 ?GetDlgItem@CWnd@@QBEPAV1@H@Z ; CWnd::GetDlgItem
  00239	8b c8		 mov	 ecx, eax
  0023b	e8 00 00 00 00	 call	 ?EnableWindow@CWnd@@QAEHH@Z ; CWnd::EnableWindow

; 503  : 		GetDlgItem( IDC_BAR_CHART)->EnableWindow(		FALSE);

  00240	6a 00		 push	 0
  00242	68 16 04 00 00	 push	 1046			; 00000416H
  00247	8b cf		 mov	 ecx, edi
  00249	e8 00 00 00 00	 call	 ?GetDlgItem@CWnd@@QBEPAV1@H@Z ; CWnd::GetDlgItem
  0024e	8b c8		 mov	 ecx, eax
  00250	e8 00 00 00 00	 call	 ?EnableWindow@CWnd@@QAEHH@Z ; CWnd::EnableWindow

; 504  : 		GetDlgItem( IDC_NEWBAR_CHART)->EnableWindow(	FALSE);

  00255	6a 00		 push	 0
  00257	68 19 04 00 00	 push	 1049			; 00000419H
  0025c	8b cf		 mov	 ecx, edi
  0025e	e8 00 00 00 00	 call	 ?GetDlgItem@CWnd@@QBEPAV1@H@Z ; CWnd::GetDlgItem
  00263	8b c8		 mov	 ecx, eax
  00265	e8 00 00 00 00	 call	 ?EnableWindow@CWnd@@QAEHH@Z ; CWnd::EnableWindow

; 505  : 		GetDlgItem( IDC_FLOW_CHART)->EnableWindow(		FALSE);

  0026a	6a 00		 push	 0
  0026c	68 18 04 00 00	 push	 1048			; 00000418H
  00271	8b cf		 mov	 ecx, edi
  00273	e8 00 00 00 00	 call	 ?GetDlgItem@CWnd@@QBEPAV1@H@Z ; CWnd::GetDlgItem
  00278	8b c8		 mov	 ecx, eax
  0027a	e8 00 00 00 00	 call	 ?EnableWindow@CWnd@@QAEHH@Z ; CWnd::EnableWindow

; 506  : 		GetDlgItem( IDC_CANDLEVOLUME_CHART)->EnableWindow(		FALSE);

  0027f	6a 00		 push	 0
  00281	68 1a 04 00 00	 push	 1050			; 0000041aH
  00286	8b cf		 mov	 ecx, edi
  00288	e8 00 00 00 00	 call	 ?GetDlgItem@CWnd@@QBEPAV1@H@Z ; CWnd::GetDlgItem
  0028d	8b c8		 mov	 ecx, eax
  0028f	e8 00 00 00 00	 call	 ?EnableWindow@CWnd@@QAEHH@Z ; CWnd::EnableWindow

; 507  : 		GetDlgItem( IDC_EQUIVOLUME_CHART)->EnableWindow(		FALSE);

  00294	6a 00		 push	 0
  00296	68 1d 04 00 00	 push	 1053			; 0000041dH
  0029b	8b cf		 mov	 ecx, edi
  0029d	e8 00 00 00 00	 call	 ?GetDlgItem@CWnd@@QBEPAV1@H@Z ; CWnd::GetDlgItem
  002a2	8b c8		 mov	 ecx, eax
  002a4	e8 00 00 00 00	 call	 ?EnableWindow@CWnd@@QAEHH@Z ; CWnd::EnableWindow
$LN6@Set_DrawSt:

; 508  : 	}
; 509  : 
; 510  : 	CButton *pBongButton = (CButton *)GetDlgItem( IDC_BONG_CHART );	

  002a9	68 15 04 00 00	 push	 1045			; 00000415H
  002ae	8b cf		 mov	 ecx, edi
  002b0	e8 00 00 00 00	 call	 ?GetDlgItem@CWnd@@QBEPAV1@H@Z ; CWnd::GetDlgItem

; 511  : 	CButton *pBarButton = (CButton *)GetDlgItem( IDC_BAR_CHART );

  002b5	68 16 04 00 00	 push	 1046			; 00000416H
  002ba	8b cf		 mov	 ecx, edi
  002bc	89 45 f0	 mov	 DWORD PTR _pBongButton$1$[ebp], eax
  002bf	e8 00 00 00 00	 call	 ?GetDlgItem@CWnd@@QBEPAV1@H@Z ; CWnd::GetDlgItem

; 512  : 	CButton *pLineButton = (CButton *)GetDlgItem( IDC_LINE_CHART );

  002c4	68 17 04 00 00	 push	 1047			; 00000417H
  002c9	8b cf		 mov	 ecx, edi
  002cb	89 45 ec	 mov	 DWORD PTR _pBarButton$1$[ebp], eax
  002ce	e8 00 00 00 00	 call	 ?GetDlgItem@CWnd@@QBEPAV1@H@Z ; CWnd::GetDlgItem

; 513  : // (2006.10.30 ) ('')
; 514  : 	CButton *pNewBarButton = (CButton *)GetDlgItem( IDC_NEWBAR_CHART );

  002d3	68 19 04 00 00	 push	 1049			; 00000419H
  002d8	8b cf		 mov	 ecx, edi
  002da	89 45 e8	 mov	 DWORD PTR _pLineButton$1$[ebp], eax
  002dd	e8 00 00 00 00	 call	 ?GetDlgItem@CWnd@@QBEPAV1@H@Z ; CWnd::GetDlgItem

; 515  : // (2006.10.30 ) ('')
; 516  : // (2006.11.03 ) Flow 
; 517  : 	CButton *pFlowButton = (CButton *)GetDlgItem( IDC_FLOW_CHART );

  002e2	68 18 04 00 00	 push	 1048			; 00000418H
  002e7	8b cf		 mov	 ecx, edi
  002e9	89 45 e4	 mov	 DWORD PTR _pNewBarButton$1$[ebp], eax
  002ec	e8 00 00 00 00	 call	 ?GetDlgItem@CWnd@@QBEPAV1@H@Z ; CWnd::GetDlgItem

; 518  : // (2006.11.03 ) Flow 
; 519  : 	
; 520  : //{{ (2007.05.29 LYH) CandleVolume, EquiVolume 
; 521  : 	CButton *pCandleVolumeButton = (CButton *)GetDlgItem( IDC_CANDLEVOLUME_CHART );

  002f1	68 1a 04 00 00	 push	 1050			; 0000041aH
  002f6	8b cf		 mov	 ecx, edi
  002f8	89 45 e0	 mov	 DWORD PTR _pFlowButton$1$[ebp], eax
  002fb	e8 00 00 00 00	 call	 ?GetDlgItem@CWnd@@QBEPAV1@H@Z ; CWnd::GetDlgItem

; 522  : 	CButton *pEquiVolumeButton = (CButton *)GetDlgItem( IDC_EQUIVOLUME_CHART );

  00300	68 1d 04 00 00	 push	 1053			; 0000041dH
  00305	8b cf		 mov	 ecx, edi
  00307	89 45 dc	 mov	 DWORD PTR _pCandleVolumeButton$1$[ebp], eax
  0030a	e8 00 00 00 00	 call	 ?GetDlgItem@CWnd@@QBEPAV1@H@Z ; CWnd::GetDlgItem
  0030f	89 45 d8	 mov	 DWORD PTR _pEquiVolumeButton$1$[ebp], eax

; 523  : //}} (2007.05.29 LYH) CandleVolume, EquiVolume 
; 524  : 	switch( nSubGraphStyle)

  00312	8b 45 d0	 mov	 eax, DWORD PTR _nSubGraphStyle$1$[ebp]
  00315	83 f8 07	 cmp	 eax, 7
  00318	0f 87 86 01 00
	00		 ja	 $LN23@Set_DrawSt
  0031e	ff 24 85 00 00
	00 00		 jmp	 DWORD PTR $LN151@Set_DrawSt[eax*4]
$LN7@Set_DrawSt:
; File C:\Program Files (x86)\Microsoft Visual Studio\2019\Community\VC\Tools\MSVC\14.29.30133\atlmfc\include\afxwin2.inl

; 630  : 	{ ASSERT(::IsWindow(m_hWnd)); ::SendMessage(m_hWnd, BM_SETCHECK, nCheck, 0); }

  00325	8b 45 f0	 mov	 eax, DWORD PTR _pBongButton$1$[ebp]
  00328	8b 35 00 00 00
	00		 mov	 esi, DWORD PTR __imp__SendMessageA@16
  0032e	6a 00		 push	 0
  00330	6a 01		 push	 1
  00332	68 f1 00 00 00	 push	 241			; 000000f1H
  00337	ff 70 20	 push	 DWORD PTR [eax+32]
  0033a	ff d6		 call	 esi
  0033c	6a 00		 push	 0
  0033e	6a 00		 push	 0
$LN158@Set_DrawSt:
; File D:\git\src\IBK\IBK_DRFN\ProjSrc\SrcChartEx\ChartAddIn\ChartEnvSetupDlgAddIn\ChartEnvSetupDlgAddIn\Setting_Price.cpp

; 692  : 	if( m_pIPacketManager->GetBaseTimeUnit() == 1 && CScaleBaseData::HORZ_TICK == m_pIPacketManager->GetBaseTimeDataType())

  00340	8b 45 ec	 mov	 eax, DWORD PTR _pBarButton$1$[ebp]
  00343	68 f1 00 00 00	 push	 241			; 000000f1H
  00348	ff 70 20	 push	 DWORD PTR [eax+32]
  0034b	ff d6		 call	 esi
  0034d	8b 45 e8	 mov	 eax, DWORD PTR _pLineButton$1$[ebp]
  00350	6a 00		 push	 0
  00352	6a 00		 push	 0
  00354	68 f1 00 00 00	 push	 241			; 000000f1H
  00359	ff 70 20	 push	 DWORD PTR [eax+32]
  0035c	ff d6		 call	 esi
  0035e	8b 45 e4	 mov	 eax, DWORD PTR _pNewBarButton$1$[ebp]
$LN161@Set_DrawSt:
  00361	6a 00		 push	 0
  00363	6a 00		 push	 0
  00365	68 f1 00 00 00	 push	 241			; 000000f1H
  0036a	ff 70 20	 push	 DWORD PTR [eax+32]
  0036d	ff d6		 call	 esi
  0036f	8b 45 e0	 mov	 eax, DWORD PTR _pFlowButton$1$[ebp]
  00372	6a 00		 push	 0
  00374	6a 00		 push	 0
  00376	68 f1 00 00 00	 push	 241			; 000000f1H
  0037b	ff 70 20	 push	 DWORD PTR [eax+32]
  0037e	ff d6		 call	 esi
  00380	6a 00		 push	 0
  00382	6a 00		 push	 0
$LN160@Set_DrawSt:
  00384	8b 45 dc	 mov	 eax, DWORD PTR _pCandleVolumeButton$1$[ebp]
  00387	68 f1 00 00 00	 push	 241			; 000000f1H
  0038c	ff 70 20	 push	 DWORD PTR [eax+32]
  0038f	ff d6		 call	 esi
  00391	8b 45 d8	 mov	 eax, DWORD PTR _pEquiVolumeButton$1$[ebp]
  00394	6a 00		 push	 0
  00396	6a 00		 push	 0
  00398	68 f1 00 00 00	 push	 241			; 000000f1H
  0039d	ff 70 20	 push	 DWORD PTR [eax+32]
  003a0	ff d6		 call	 esi
  003a2	83 bf a0 06 00
	00 00		 cmp	 DWORD PTR [edi+1696], 0
  003a9	8b cf		 mov	 ecx, edi
  003ab	75 07		 jne	 SHORT $LN8@Set_DrawSt
  003ad	be 05 00 00 00	 mov	 esi, 5
  003b2	eb 02		 jmp	 SHORT $LN9@Set_DrawSt
$LN8@Set_DrawSt:
  003b4	33 f6		 xor	 esi, esi
$LN9@Set_DrawSt:
  003b6	68 f7 17 00 00	 push	 6135			; 000017f7H
  003bb	e8 00 00 00 00	 call	 ?GetDlgItem@CWnd@@QBEPAV1@H@Z ; CWnd::GetDlgItem
  003c0	56		 push	 esi
  003c1	8b c8		 mov	 ecx, eax
  003c3	e8 00 00 00 00	 call	 ?ShowWindow@CWnd@@QAEHH@Z ; CWnd::ShowWindow
  003c8	68 fa 17 00 00	 push	 6138			; 000017faH
  003cd	8b cf		 mov	 ecx, edi
  003cf	e8 00 00 00 00	 call	 ?GetDlgItem@CWnd@@QBEPAV1@H@Z ; CWnd::GetDlgItem
  003d4	56		 push	 esi
  003d5	e9 c0 00 00 00	 jmp	 $LN155@Set_DrawSt
$LN10@Set_DrawSt:
; File C:\Program Files (x86)\Microsoft Visual Studio\2019\Community\VC\Tools\MSVC\14.29.30133\atlmfc\include\afxwin2.inl

; 630  : 	{ ASSERT(::IsWindow(m_hWnd)); ::SendMessage(m_hWnd, BM_SETCHECK, nCheck, 0); }

  003da	8b 45 f0	 mov	 eax, DWORD PTR _pBongButton$1$[ebp]
  003dd	8b 35 00 00 00
	00		 mov	 esi, DWORD PTR __imp__SendMessageA@16
  003e3	6a 00		 push	 0
  003e5	6a 00		 push	 0
  003e7	68 f1 00 00 00	 push	 241			; 000000f1H
  003ec	ff 70 20	 push	 DWORD PTR [eax+32]
  003ef	ff d6		 call	 esi
  003f1	6a 00		 push	 0
  003f3	6a 01		 push	 1
; File D:\git\src\IBK\IBK_DRFN\ProjSrc\SrcChartEx\ChartAddIn\ChartEnvSetupDlgAddIn\ChartEnvSetupDlgAddIn\Setting_Price.cpp

; 568  : 			}

  003f5	e9 46 ff ff ff	 jmp	 $LN158@Set_DrawSt
$LN13@Set_DrawSt:
; File C:\Program Files (x86)\Microsoft Visual Studio\2019\Community\VC\Tools\MSVC\14.29.30133\atlmfc\include\afxwin2.inl

; 630  : 	{ ASSERT(::IsWindow(m_hWnd)); ::SendMessage(m_hWnd, BM_SETCHECK, nCheck, 0); }

  003fa	8b 45 e8	 mov	 eax, DWORD PTR _pLineButton$1$[ebp]
  003fd	8b 35 00 00 00
	00		 mov	 esi, DWORD PTR __imp__SendMessageA@16
  00403	6a 00		 push	 0
  00405	6a 01		 push	 1
  00407	68 f1 00 00 00	 push	 241			; 000000f1H
  0040c	ff 70 20	 push	 DWORD PTR [eax+32]
  0040f	ff d6		 call	 esi
  00411	8b 45 f0	 mov	 eax, DWORD PTR _pBongButton$1$[ebp]
  00414	6a 00		 push	 0
  00416	6a 00		 push	 0
  00418	68 f1 00 00 00	 push	 241			; 000000f1H
  0041d	ff 70 20	 push	 DWORD PTR [eax+32]
  00420	ff d6		 call	 esi
  00422	8b 45 ec	 mov	 eax, DWORD PTR _pBarButton$1$[ebp]
  00425	6a 00		 push	 0
  00427	6a 00		 push	 0
  00429	68 f1 00 00 00	 push	 241			; 000000f1H
  0042e	ff 70 20	 push	 DWORD PTR [eax+32]
  00431	ff d6		 call	 esi
  00433	8b 45 e4	 mov	 eax, DWORD PTR _pNewBarButton$1$[ebp]
  00436	6a 00		 push	 0
  00438	6a 00		 push	 0
  0043a	68 f1 00 00 00	 push	 241			; 000000f1H
  0043f	ff 70 20	 push	 DWORD PTR [eax+32]
  00442	ff d6		 call	 esi
  00444	8b 45 e0	 mov	 eax, DWORD PTR _pFlowButton$1$[ebp]
  00447	6a 00		 push	 0
  00449	6a 00		 push	 0
  0044b	68 f1 00 00 00	 push	 241			; 000000f1H
$LN157@Set_DrawSt:
; File D:\git\src\IBK\IBK_DRFN\ProjSrc\SrcChartEx\ChartAddIn\ChartEnvSetupDlgAddIn\ChartEnvSetupDlgAddIn\Setting_Price.cpp

; 692  : 	if( m_pIPacketManager->GetBaseTimeUnit() == 1 && CScaleBaseData::HORZ_TICK == m_pIPacketManager->GetBaseTimeDataType())

  00450	ff 70 20	 push	 DWORD PTR [eax+32]
  00453	ff d6		 call	 esi
  00455	8b 45 dc	 mov	 eax, DWORD PTR _pCandleVolumeButton$1$[ebp]
  00458	6a 00		 push	 0
  0045a	6a 00		 push	 0
  0045c	68 f1 00 00 00	 push	 241			; 000000f1H
  00461	ff 70 20	 push	 DWORD PTR [eax+32]
  00464	ff d6		 call	 esi
  00466	8b 45 d8	 mov	 eax, DWORD PTR _pEquiVolumeButton$1$[ebp]
  00469	6a 00		 push	 0
  0046b	6a 00		 push	 0
  0046d	68 f1 00 00 00	 push	 241			; 000000f1H
  00472	ff 70 20	 push	 DWORD PTR [eax+32]
  00475	ff d6		 call	 esi
$LN22@Set_DrawSt:
  00477	6a 00		 push	 0
  00479	68 f7 17 00 00	 push	 6135			; 000017f7H
  0047e	8b cf		 mov	 ecx, edi
  00480	e8 00 00 00 00	 call	 ?GetDlgItem@CWnd@@QBEPAV1@H@Z ; CWnd::GetDlgItem
  00485	8b c8		 mov	 ecx, eax
  00487	e8 00 00 00 00	 call	 ?ShowWindow@CWnd@@QAEHH@Z ; CWnd::ShowWindow
  0048c	6a 00		 push	 0
$LN156@Set_DrawSt:
  0048e	68 fa 17 00 00	 push	 6138			; 000017faH
  00493	8b cf		 mov	 ecx, edi
  00495	e8 00 00 00 00	 call	 ?GetDlgItem@CWnd@@QBEPAV1@H@Z ; CWnd::GetDlgItem
$LN155@Set_DrawSt:
  0049a	8b c8		 mov	 ecx, eax
  0049c	e8 00 00 00 00	 call	 ?ShowWindow@CWnd@@QAEHH@Z ; CWnd::ShowWindow
  004a1	8b 75 cc	 mov	 esi, DWORD PTR _szPacketNames$[ebp+4]
$LN23@Set_DrawSt:
  004a4	8b 8f b4 00 00
	00		 mov	 ecx, DWORD PTR [edi+180]
  004aa	8b 01		 mov	 eax, DWORD PTR [ecx]
  004ac	ff 50 40	 call	 DWORD PTR [eax+64]
  004af	83 f8 01	 cmp	 eax, 1
  004b2	75 56		 jne	 SHORT $LN24@Set_DrawSt
  004b4	8b 8f b4 00 00
	00		 mov	 ecx, DWORD PTR [edi+180]
  004ba	8b 01		 mov	 eax, DWORD PTR [ecx]
  004bc	ff 50 3c	 call	 DWORD PTR [eax+60]
  004bf	83 f8 05	 cmp	 eax, 5
  004c2	75 46		 jne	 SHORT $LN24@Set_DrawSt

; 693  : 	{
; 694  : 		pBongButton->EnableWindow(		FALSE);

  004c4	8b 4d f0	 mov	 ecx, DWORD PTR _pBongButton$1$[ebp]
  004c7	6a 00		 push	 0
  004c9	e8 00 00 00 00	 call	 ?EnableWindow@CWnd@@QAEHH@Z ; CWnd::EnableWindow

; 695  : 		pBarButton->EnableWindow(		FALSE);

  004ce	8b 4d ec	 mov	 ecx, DWORD PTR _pBarButton$1$[ebp]
  004d1	6a 00		 push	 0
  004d3	e8 00 00 00 00	 call	 ?EnableWindow@CWnd@@QAEHH@Z ; CWnd::EnableWindow

; 696  : 		pLineButton->EnableWindow(		FALSE);

  004d8	8b 4d e8	 mov	 ecx, DWORD PTR _pLineButton$1$[ebp]
  004db	6a 00		 push	 0
  004dd	e8 00 00 00 00	 call	 ?EnableWindow@CWnd@@QAEHH@Z ; CWnd::EnableWindow

; 697  : 		pNewBarButton->EnableWindow(	FALSE);

  004e2	8b 4d e4	 mov	 ecx, DWORD PTR _pNewBarButton$1$[ebp]
  004e5	6a 00		 push	 0
  004e7	e8 00 00 00 00	 call	 ?EnableWindow@CWnd@@QAEHH@Z ; CWnd::EnableWindow

; 698  : 		pFlowButton->EnableWindow(		FALSE);

  004ec	8b 4d e0	 mov	 ecx, DWORD PTR _pFlowButton$1$[ebp]
  004ef	6a 00		 push	 0
  004f1	e8 00 00 00 00	 call	 ?EnableWindow@CWnd@@QAEHH@Z ; CWnd::EnableWindow

; 699  : 		pCandleVolumeButton->EnableWindow(		FALSE);

  004f6	8b 4d dc	 mov	 ecx, DWORD PTR _pCandleVolumeButton$1$[ebp]
  004f9	6a 00		 push	 0
  004fb	e8 00 00 00 00	 call	 ?EnableWindow@CWnd@@QAEHH@Z ; CWnd::EnableWindow

; 700  : 		pEquiVolumeButton->EnableWindow(		FALSE);

  00500	8b 4d d8	 mov	 ecx, DWORD PTR _pEquiVolumeButton$1$[ebp]
  00503	6a 00		 push	 0
  00505	e8 00 00 00 00	 call	 ?EnableWindow@CWnd@@QAEHH@Z ; CWnd::EnableWindow
$LN24@Set_DrawSt:

; 702  : }

  0050a	8d 4d d4	 lea	 ecx, DWORD PTR _strPacketNames$[ebp]
  0050d	ff 15 00 00 00
	00		 call	 DWORD PTR __imp_??1?$CStringT@DV?$StrTraitMFC_DLL@DV?$ChTraitsCRT@D@ATL@@@@@ATL@@QAE@XZ
; File D:\git\src\IBK\IBK_DRFN\ProjSrc\SrcChartEx\ChartAddIn\ChartEnvSetupDlgAddIn\Include_AddIn_135914\I135914\_IString.h

; 44   : 	{

  00513	c6 45 fc 05	 mov	 BYTE PTR __$EHRec$[ebp+8], 5

; 45   : 		if( m_pIStrData)

  00517	85 f6		 test	 esi, esi
  00519	74 06		 je	 SHORT $LN144@Set_DrawSt

; 46   : 		{
; 47   : 			m_pIStrData->Release();

  0051b	8b 06		 mov	 eax, DWORD PTR [esi]
  0051d	56		 push	 esi
  0051e	ff 50 08	 call	 DWORD PTR [eax+8]
$LN144@Set_DrawSt:

; 44   : 	{

  00521	c7 45 fc 06 00
	00 00		 mov	 DWORD PTR __$EHRec$[ebp+8], 6

; 45   : 		if( m_pIStrData)

  00528	85 db		 test	 ebx, ebx
  0052a	74 06		 je	 SHORT $LN148@Set_DrawSt

; 46   : 		{
; 47   : 			m_pIStrData->Release();

  0052c	8b 03		 mov	 eax, DWORD PTR [ebx]
  0052e	53		 push	 ebx
  0052f	ff 50 08	 call	 DWORD PTR [eax+8]
$LN148@Set_DrawSt:
; File D:\git\src\IBK\IBK_DRFN\ProjSrc\SrcChartEx\ChartAddIn\ChartEnvSetupDlgAddIn\ChartEnvSetupDlgAddIn\Setting_Price.cpp

; 702  : }

  00532	8b 4d f4	 mov	 ecx, DWORD PTR __$EHRec$[ebp]
  00535	64 89 0d 00 00
	00 00		 mov	 DWORD PTR fs:0, ecx
  0053c	59		 pop	 ecx
  0053d	5f		 pop	 edi
  0053e	5e		 pop	 esi
  0053f	5b		 pop	 ebx
  00540	8b e5		 mov	 esp, ebp
  00542	5d		 pop	 ebp
  00543	c3		 ret	 0
$LN14@Set_DrawSt:
; File C:\Program Files (x86)\Microsoft Visual Studio\2019\Community\VC\Tools\MSVC\14.29.30133\atlmfc\include\afxwin2.inl

; 630  : 	{ ASSERT(::IsWindow(m_hWnd)); ::SendMessage(m_hWnd, BM_SETCHECK, nCheck, 0); }

  00544	8b 45 e4	 mov	 eax, DWORD PTR _pNewBarButton$1$[ebp]
  00547	8b 35 00 00 00
	00		 mov	 esi, DWORD PTR __imp__SendMessageA@16
  0054d	6a 00		 push	 0
  0054f	6a 01		 push	 1
  00551	68 f1 00 00 00	 push	 241			; 000000f1H
  00556	ff 70 20	 push	 DWORD PTR [eax+32]
  00559	ff d6		 call	 esi
  0055b	8b 45 f0	 mov	 eax, DWORD PTR _pBongButton$1$[ebp]
  0055e	6a 00		 push	 0
  00560	6a 00		 push	 0
  00562	68 f1 00 00 00	 push	 241			; 000000f1H
  00567	ff 70 20	 push	 DWORD PTR [eax+32]
  0056a	ff d6		 call	 esi
  0056c	8b 45 ec	 mov	 eax, DWORD PTR _pBarButton$1$[ebp]
  0056f	6a 00		 push	 0
  00571	6a 00		 push	 0
  00573	68 f1 00 00 00	 push	 241			; 000000f1H
  00578	ff 70 20	 push	 DWORD PTR [eax+32]
  0057b	ff d6		 call	 esi
  0057d	8b 45 e8	 mov	 eax, DWORD PTR _pLineButton$1$[ebp]
; File D:\git\src\IBK\IBK_DRFN\ProjSrc\SrcChartEx\ChartAddIn\ChartEnvSetupDlgAddIn\ChartEnvSetupDlgAddIn\Setting_Price.cpp

; 611  : 			}

  00580	e9 dc fd ff ff	 jmp	 $LN161@Set_DrawSt
$LN17@Set_DrawSt:
; File C:\Program Files (x86)\Microsoft Visual Studio\2019\Community\VC\Tools\MSVC\14.29.30133\atlmfc\include\afxwin2.inl

; 630  : 	{ ASSERT(::IsWindow(m_hWnd)); ::SendMessage(m_hWnd, BM_SETCHECK, nCheck, 0); }

  00585	8b 45 e0	 mov	 eax, DWORD PTR _pFlowButton$1$[ebp]
  00588	8b 35 00 00 00
	00		 mov	 esi, DWORD PTR __imp__SendMessageA@16
  0058e	6a 00		 push	 0
  00590	6a 01		 push	 1
  00592	68 f1 00 00 00	 push	 241			; 000000f1H
  00597	ff 70 20	 push	 DWORD PTR [eax+32]
  0059a	ff d6		 call	 esi
  0059c	8b 45 e4	 mov	 eax, DWORD PTR _pNewBarButton$1$[ebp]
  0059f	6a 00		 push	 0
  005a1	6a 00		 push	 0
  005a3	68 f1 00 00 00	 push	 241			; 000000f1H
  005a8	ff 70 20	 push	 DWORD PTR [eax+32]
  005ab	ff d6		 call	 esi
  005ad	8b 45 f0	 mov	 eax, DWORD PTR _pBongButton$1$[ebp]
  005b0	6a 00		 push	 0
  005b2	6a 00		 push	 0
  005b4	68 f1 00 00 00	 push	 241			; 000000f1H
  005b9	ff 70 20	 push	 DWORD PTR [eax+32]
  005bc	ff d6		 call	 esi
  005be	8b 45 ec	 mov	 eax, DWORD PTR _pBarButton$1$[ebp]
  005c1	6a 00		 push	 0
  005c3	6a 00		 push	 0
  005c5	68 f1 00 00 00	 push	 241			; 000000f1H
  005ca	ff 70 20	 push	 DWORD PTR [eax+32]
  005cd	ff d6		 call	 esi
  005cf	8b 45 e8	 mov	 eax, DWORD PTR _pLineButton$1$[ebp]
  005d2	6a 00		 push	 0
  005d4	6a 00		 push	 0
  005d6	68 f1 00 00 00	 push	 241			; 000000f1H
; File D:\git\src\IBK\IBK_DRFN\ProjSrc\SrcChartEx\ChartAddIn\ChartEnvSetupDlgAddIn\ChartEnvSetupDlgAddIn\Setting_Price.cpp

; 633  : 			break;

  005db	e9 70 fe ff ff	 jmp	 $LN157@Set_DrawSt
$LN18@Set_DrawSt:
; File C:\Program Files (x86)\Microsoft Visual Studio\2019\Community\VC\Tools\MSVC\14.29.30133\atlmfc\include\afxwin2.inl

; 630  : 	{ ASSERT(::IsWindow(m_hWnd)); ::SendMessage(m_hWnd, BM_SETCHECK, nCheck, 0); }

  005e0	8b 45 f0	 mov	 eax, DWORD PTR _pBongButton$1$[ebp]
  005e3	8b 35 00 00 00
	00		 mov	 esi, DWORD PTR __imp__SendMessageA@16
  005e9	6a 00		 push	 0
  005eb	6a 00		 push	 0
  005ed	68 f1 00 00 00	 push	 241			; 000000f1H
  005f2	ff 70 20	 push	 DWORD PTR [eax+32]
  005f5	ff d6		 call	 esi
  005f7	8b 45 ec	 mov	 eax, DWORD PTR _pBarButton$1$[ebp]
  005fa	6a 00		 push	 0
  005fc	6a 00		 push	 0
  005fe	68 f1 00 00 00	 push	 241			; 000000f1H
  00603	ff 70 20	 push	 DWORD PTR [eax+32]
  00606	ff d6		 call	 esi
  00608	8b 45 e8	 mov	 eax, DWORD PTR _pLineButton$1$[ebp]
  0060b	6a 00		 push	 0
  0060d	6a 00		 push	 0
  0060f	68 f1 00 00 00	 push	 241			; 000000f1H
  00614	ff 70 20	 push	 DWORD PTR [eax+32]
  00617	ff d6		 call	 esi
  00619	8b 45 e4	 mov	 eax, DWORD PTR _pNewBarButton$1$[ebp]
  0061c	6a 00		 push	 0
  0061e	6a 00		 push	 0
  00620	68 f1 00 00 00	 push	 241			; 000000f1H
  00625	ff 70 20	 push	 DWORD PTR [eax+32]
  00628	ff d6		 call	 esi
  0062a	8b 45 e0	 mov	 eax, DWORD PTR _pFlowButton$1$[ebp]
  0062d	6a 00		 push	 0
  0062f	6a 00		 push	 0
  00631	68 f1 00 00 00	 push	 241			; 000000f1H
  00636	ff 70 20	 push	 DWORD PTR [eax+32]
  00639	ff d6		 call	 esi
  0063b	6a 00		 push	 0
  0063d	6a 01		 push	 1
; File D:\git\src\IBK\IBK_DRFN\ProjSrc\SrcChartEx\ChartAddIn\ChartEnvSetupDlgAddIn\ChartEnvSetupDlgAddIn\Setting_Price.cpp

; 652  : 			}

  0063f	e9 40 fd ff ff	 jmp	 $LN160@Set_DrawSt
$LN21@Set_DrawSt:
; File C:\Program Files (x86)\Microsoft Visual Studio\2019\Community\VC\Tools\MSVC\14.29.30133\atlmfc\include\afxwin2.inl

; 630  : 	{ ASSERT(::IsWindow(m_hWnd)); ::SendMessage(m_hWnd, BM_SETCHECK, nCheck, 0); }

  00644	8b 45 f0	 mov	 eax, DWORD PTR _pBongButton$1$[ebp]
  00647	8b 35 00 00 00
	00		 mov	 esi, DWORD PTR __imp__SendMessageA@16
  0064d	6a 00		 push	 0
  0064f	6a 00		 push	 0
  00651	68 f1 00 00 00	 push	 241			; 000000f1H
  00656	ff 70 20	 push	 DWORD PTR [eax+32]
  00659	ff d6		 call	 esi
  0065b	8b 45 ec	 mov	 eax, DWORD PTR _pBarButton$1$[ebp]
  0065e	6a 00		 push	 0
  00660	6a 00		 push	 0
  00662	68 f1 00 00 00	 push	 241			; 000000f1H
  00667	ff 70 20	 push	 DWORD PTR [eax+32]
  0066a	ff d6		 call	 esi
  0066c	8b 45 e8	 mov	 eax, DWORD PTR _pLineButton$1$[ebp]
  0066f	6a 00		 push	 0
  00671	6a 00		 push	 0
  00673	68 f1 00 00 00	 push	 241			; 000000f1H
  00678	ff 70 20	 push	 DWORD PTR [eax+32]
  0067b	ff d6		 call	 esi
  0067d	8b 45 e4	 mov	 eax, DWORD PTR _pNewBarButton$1$[ebp]
  00680	6a 00		 push	 0
  00682	6a 00		 push	 0
  00684	68 f1 00 00 00	 push	 241			; 000000f1H
  00689	ff 70 20	 push	 DWORD PTR [eax+32]
  0068c	ff d6		 call	 esi
  0068e	8b 45 e0	 mov	 eax, DWORD PTR _pFlowButton$1$[ebp]
  00691	6a 00		 push	 0
  00693	6a 00		 push	 0
  00695	68 f1 00 00 00	 push	 241			; 000000f1H
  0069a	ff 70 20	 push	 DWORD PTR [eax+32]
  0069d	ff d6		 call	 esi
  0069f	8b 45 dc	 mov	 eax, DWORD PTR _pCandleVolumeButton$1$[ebp]
  006a2	6a 00		 push	 0
  006a4	6a 00		 push	 0
  006a6	68 f1 00 00 00	 push	 241			; 000000f1H
  006ab	ff 70 20	 push	 DWORD PTR [eax+32]
  006ae	ff d6		 call	 esi
  006b0	8b 45 d8	 mov	 eax, DWORD PTR _pEquiVolumeButton$1$[ebp]
  006b3	6a 00		 push	 0
  006b5	6a 01		 push	 1
  006b7	68 f1 00 00 00	 push	 241			; 000000f1H
  006bc	ff 70 20	 push	 DWORD PTR [eax+32]
  006bf	ff d6		 call	 esi
; File D:\git\src\IBK\IBK_DRFN\ProjSrc\SrcChartEx\ChartAddIn\ChartEnvSetupDlgAddIn\ChartEnvSetupDlgAddIn\Setting_Price.cpp

; 674  : 			if( m_nSteadyType == 0 )

  006c1	83 bf a0 06 00
	00 00		 cmp	 DWORD PTR [edi+1696], 0
  006c8	0f 85 a9 fd ff
	ff		 jne	 $LN22@Set_DrawSt

; 675  : 			{
; 676  : 				GetDlgItem(IDC_STATIC_STEADY)->ShowWindow(SW_SHOW);

  006ce	6a 05		 push	 5
  006d0	68 f7 17 00 00	 push	 6135			; 000017f7H
  006d5	8b cf		 mov	 ecx, edi
  006d7	e8 00 00 00 00	 call	 ?GetDlgItem@CWnd@@QBEPAV1@H@Z ; CWnd::GetDlgItem
  006dc	8b c8		 mov	 ecx, eax
  006de	e8 00 00 00 00	 call	 ?ShowWindow@CWnd@@QAEHH@Z ; CWnd::ShowWindow

; 677  : 				GetDlgItem(IDC_BTN_STEADY)->ShowWindow(SW_SHOW);

  006e3	6a 05		 push	 5

; 678  : 			}

  006e5	e9 a4 fd ff ff	 jmp	 $LN156@Set_DrawSt
  006ea	66 90		 npad	 2
$LN151@Set_DrawSt:

; 702  : }

  006ec	00 00 00 00	 DD	 $LN7@Set_DrawSt
  006f0	00 00 00 00	 DD	 $LN10@Set_DrawSt
  006f4	00 00 00 00	 DD	 $LN13@Set_DrawSt
  006f8	00 00 00 00	 DD	 $LN23@Set_DrawSt
  006fc	00 00 00 00	 DD	 $LN14@Set_DrawSt
  00700	00 00 00 00	 DD	 $LN17@Set_DrawSt
  00704	00 00 00 00	 DD	 $LN18@Set_DrawSt
  00708	00 00 00 00	 DD	 $LN21@Set_DrawSt
_TEXT	ENDS
;	COMDAT text$x
text$x	SEGMENT
__unwindfunclet$?Set_DrawStyle@CSetting_Price@@IAEXXZ$0:
  00000	8d 4d dc	 lea	 ecx, DWORD PTR _strGraphType$3[ebp]
  00003	ff 25 00 00 00
	00		 jmp	 DWORD PTR __imp_??1?$CStringT@DV?$StrTraitMFC_DLL@DV?$ChTraitsCRT@D@ATL@@@@@ATL@@QAE@XZ
__unwindfunclet$?Set_DrawStyle@CSetting_Price@@IAEXXZ$1:
  00009	8d 4d d8	 lea	 ecx, DWORD PTR _strGraphStyle$2[ebp]
  0000c	ff 25 00 00 00
	00		 jmp	 DWORD PTR __imp_??1?$CStringT@DV?$StrTraitMFC_DLL@DV?$ChTraitsCRT@D@ATL@@@@@ATL@@QAE@XZ
__unwindfunclet$?Set_DrawStyle@CSetting_Price@@IAEXXZ$2:
  00012	8d 4d c0	 lea	 ecx, DWORD PTR _szGraphName$[ebp]
  00015	e9 00 00 00 00	 jmp	 ??1ILPCSTR135914@@QAE@XZ ; ILPCSTR135914::~ILPCSTR135914
__unwindfunclet$?Set_DrawStyle@CSetting_Price@@IAEXXZ$3:
  0001a	8d 4d c8	 lea	 ecx, DWORD PTR _szPacketNames$[ebp]
  0001d	e9 00 00 00 00	 jmp	 ??1ILPCSTR135914@@QAE@XZ ; ILPCSTR135914::~ILPCSTR135914
__unwindfunclet$?Set_DrawStyle@CSetting_Price@@IAEXXZ$4:
  00022	8d 4d d4	 lea	 ecx, DWORD PTR _strPacketNames$[ebp]
  00025	ff 25 00 00 00
	00		 jmp	 DWORD PTR __imp_??1?$CStringT@DV?$StrTraitMFC_DLL@DV?$ChTraitsCRT@D@ATL@@@@@ATL@@QAE@XZ
  0002b	cc		 int	 3
  0002c	cc		 int	 3
  0002d	cc		 int	 3
  0002e	cc		 int	 3
  0002f	cc		 int	 3
__ehhandler$?Set_DrawStyle@CSetting_Price@@IAEXXZ:
  00030	90		 npad	 1
  00031	90		 npad	 1
  00032	8b 54 24 08	 mov	 edx, DWORD PTR [esp+8]
  00036	8d 42 0c	 lea	 eax, DWORD PTR [edx+12]
  00039	8b 4a bc	 mov	 ecx, DWORD PTR [edx-68]
  0003c	33 c8		 xor	 ecx, eax
  0003e	e8 00 00 00 00	 call	 @__security_check_cookie@4
  00043	b8 00 00 00 00	 mov	 eax, OFFSET __ehfuncinfo$?Set_DrawStyle@CSetting_Price@@IAEXXZ
  00048	e9 00 00 00 00	 jmp	 ___CxxFrameHandler3
text$x	ENDS
?Set_DrawStyle@CSetting_Price@@IAEXXZ ENDP		; CSetting_Price::Set_DrawStyle
; Function compile flags: /Ogtp
; File D:\git\src\IBK\IBK_DRFN\ProjSrc\SrcChartEx\ChartAddIn\ChartEnvSetupDlgAddIn\ChartEnvSetupDlgAddIn\Setting_Price.cpp
;	COMDAT ?Initial_ColorBtn@CSetting_Price@@IAEXH@Z
_TEXT	SEGMENT
__$EHRec$ = -12						; size = 12
_strColor$2 = 8						; size = 4
_nCount$ = 8						; size = 4
?Initial_ColorBtn@CSetting_Price@@IAEXH@Z PROC		; CSetting_Price::Initial_ColorBtn, COMDAT
; _this$ = ecx

; 735  : {

  00000	55		 push	 ebp
  00001	8b ec		 mov	 ebp, esp
  00003	6a ff		 push	 -1
  00005	68 00 00 00 00	 push	 __ehhandler$?Initial_ColorBtn@CSetting_Price@@IAEXH@Z
  0000a	64 a1 00 00 00
	00		 mov	 eax, DWORD PTR fs:0
  00010	50		 push	 eax
  00011	56		 push	 esi
  00012	a1 00 00 00 00	 mov	 eax, DWORD PTR ___security_cookie
  00017	33 c5		 xor	 eax, ebp
  00019	50		 push	 eax
  0001a	8d 45 f4	 lea	 eax, DWORD PTR __$EHRec$[ebp]
  0001d	64 a3 00 00 00
	00		 mov	 DWORD PTR fs:0, eax
  00023	8b f1		 mov	 esi, ecx

; 736  : 	// 
; 737  : 	UpdateData();

  00025	6a 01		 push	 1
  00027	e8 00 00 00 00	 call	 ?UpdateData@CWnd@@QAEHH@Z ; CWnd::UpdateData

; 738  : 
; 739  : // 2008.01.25 by LYH >>
; 740  : 	//GetDlgItem(IDC_STATIC_UP)->SetWindowText( "");
; 741  : 	GetDlgItem(IDC_STATIC_UP)->SetWindowText( m_strUp);

  0002c	ff b6 e8 00 00
	00		 push	 DWORD PTR [esi+232]
  00032	8b ce		 mov	 ecx, esi
  00034	68 96 17 00 00	 push	 6038			; 00001796H
  00039	e8 00 00 00 00	 call	 ?GetDlgItem@CWnd@@QBEPAV1@H@Z ; CWnd::GetDlgItem
  0003e	8b c8		 mov	 ecx, eax
  00040	e8 00 00 00 00	 call	 ?SetWindowTextA@CWnd@@QAEXPBD@Z ; CWnd::SetWindowTextA

; 742  : // 2008.01.25 by LYH <<
; 743  : 	
; 744  : // (2006.11.03 ) Flow 
; 745  : 	GetDlgItem(IDC_STATIC_UP)->ShowWindow(SW_SHOW);

  00045	6a 05		 push	 5
  00047	68 96 17 00 00	 push	 6038			; 00001796H
  0004c	8b ce		 mov	 ecx, esi
  0004e	e8 00 00 00 00	 call	 ?GetDlgItem@CWnd@@QBEPAV1@H@Z ; CWnd::GetDlgItem
  00053	8b c8		 mov	 ecx, eax
  00055	e8 00 00 00 00	 call	 ?ShowWindow@CWnd@@QAEHH@Z ; CWnd::ShowWindow

; 746  : 	GetDlgItem(IDC_BTN_UP)->ShowWindow(SW_SHOW);

  0005a	6a 05		 push	 5
  0005c	68 94 17 00 00	 push	 6036			; 00001794H
  00061	8b ce		 mov	 ecx, esi
  00063	e8 00 00 00 00	 call	 ?GetDlgItem@CWnd@@QBEPAV1@H@Z ; CWnd::GetDlgItem
  00068	8b c8		 mov	 ecx, eax
  0006a	e8 00 00 00 00	 call	 ?ShowWindow@CWnd@@QAEHH@Z ; CWnd::ShowWindow

; 747  : 	GetDlgItem(IDC_STATIC_DOWN)->ShowWindow(SW_SHOW);

  0006f	6a 05		 push	 5
  00071	68 97 17 00 00	 push	 6039			; 00001797H
  00076	8b ce		 mov	 ecx, esi
  00078	e8 00 00 00 00	 call	 ?GetDlgItem@CWnd@@QBEPAV1@H@Z ; CWnd::GetDlgItem
  0007d	8b c8		 mov	 ecx, eax
  0007f	e8 00 00 00 00	 call	 ?ShowWindow@CWnd@@QAEHH@Z ; CWnd::ShowWindow

; 748  : 	GetDlgItem(IDC_BTN_DOWN)->ShowWindow(SW_SHOW);

  00084	6a 05		 push	 5
  00086	68 95 17 00 00	 push	 6037			; 00001795H
  0008b	8b ce		 mov	 ecx, esi
  0008d	e8 00 00 00 00	 call	 ?GetDlgItem@CWnd@@QBEPAV1@H@Z ; CWnd::GetDlgItem
  00092	8b c8		 mov	 ecx, eax
  00094	e8 00 00 00 00	 call	 ?ShowWindow@CWnd@@QAEHH@Z ; CWnd::ShowWindow

; 749  : // (2006.11.03 ) Flow 
; 750  : 
; 751  : 	if( nCount == 2 ) 

  00099	8b 45 08	 mov	 eax, DWORD PTR _nCount$[ebp]
  0009c	8b ce		 mov	 ecx, esi
  0009e	83 f8 02	 cmp	 eax, 2
  000a1	0f 85 13 01 00
	00		 jne	 $LN2@Initial_Co

; 752  : 	{ 
; 753  : 		GetDlgItem(IDC_STATIC_STEADY)->ShowWindow(SW_HIDE);

  000a7	6a 00		 push	 0
  000a9	68 f7 17 00 00	 push	 6135			; 000017f7H
  000ae	e8 00 00 00 00	 call	 ?GetDlgItem@CWnd@@QBEPAV1@H@Z ; CWnd::GetDlgItem
  000b3	8b c8		 mov	 ecx, eax
  000b5	e8 00 00 00 00	 call	 ?ShowWindow@CWnd@@QAEHH@Z ; CWnd::ShowWindow

; 754  : 		GetDlgItem(IDC_BTN_STEADY)->ShowWindow(SW_HIDE);

  000ba	6a 00		 push	 0
  000bc	68 fa 17 00 00	 push	 6138			; 000017faH
  000c1	8b ce		 mov	 ecx, esi
  000c3	e8 00 00 00 00	 call	 ?GetDlgItem@CWnd@@QBEPAV1@H@Z ; CWnd::GetDlgItem
  000c8	8b c8		 mov	 ecx, eax
  000ca	e8 00 00 00 00	 call	 ?ShowWindow@CWnd@@QAEHH@Z ; CWnd::ShowWindow

; 755  : 
; 756  : 		if( m_bUseBasePrice)

  000cf	83 be ac 06 00
	00 00		 cmp	 DWORD PTR [esi+1708], 0
  000d6	8b ce		 mov	 ecx, esi
  000d8	6a 05		 push	 5
  000da	68 96 17 00 00	 push	 6038			; 00001796H
  000df	74 42		 je	 SHORT $LN4@Initial_Co

; 757  : 		{
; 758  : 	// (2006.11.03 ) Flow 
; 759  : 			GetDlgItem(IDC_STATIC_UP)->ShowWindow(SW_SHOW);

  000e1	e8 00 00 00 00	 call	 ?GetDlgItem@CWnd@@QBEPAV1@H@Z ; CWnd::GetDlgItem
  000e6	8b c8		 mov	 ecx, eax
  000e8	e8 00 00 00 00	 call	 ?ShowWindow@CWnd@@QAEHH@Z ; CWnd::ShowWindow

; 760  : 			GetDlgItem(IDC_BTN_UP)->ShowWindow(SW_SHOW);

  000ed	6a 05		 push	 5
  000ef	68 94 17 00 00	 push	 6036			; 00001794H
  000f4	8b ce		 mov	 ecx, esi
  000f6	e8 00 00 00 00	 call	 ?GetDlgItem@CWnd@@QBEPAV1@H@Z ; CWnd::GetDlgItem
  000fb	8b c8		 mov	 ecx, eax
  000fd	e8 00 00 00 00	 call	 ?ShowWindow@CWnd@@QAEHH@Z ; CWnd::ShowWindow

; 761  : 			GetDlgItem(IDC_STATIC_DOWN)->ShowWindow(SW_SHOW);

  00102	6a 05		 push	 5
  00104	68 97 17 00 00	 push	 6039			; 00001797H
  00109	8b ce		 mov	 ecx, esi
  0010b	e8 00 00 00 00	 call	 ?GetDlgItem@CWnd@@QBEPAV1@H@Z ; CWnd::GetDlgItem
  00110	8b c8		 mov	 ecx, eax
  00112	e8 00 00 00 00	 call	 ?ShowWindow@CWnd@@QAEHH@Z ; CWnd::ShowWindow

; 762  : 			GetDlgItem(IDC_BTN_DOWN)->ShowWindow(SW_SHOW);

  00117	6a 05		 push	 5
  00119	68 95 17 00 00	 push	 6037			; 00001795H

; 763  : 	// (2006.11.03 ) Flow 
; 764  : 		}

  0011e	e9 45 01 00 00	 jmp	 $LN17@Initial_Co
$LN4@Initial_Co:

; 765  : 		else
; 766  : 		{
; 767  : 			GetDlgItem(IDC_STATIC_UP)->ShowWindow(		SW_SHOW);

  00123	e8 00 00 00 00	 call	 ?GetDlgItem@CWnd@@QBEPAV1@H@Z ; CWnd::GetDlgItem
  00128	8b c8		 mov	 ecx, eax
  0012a	e8 00 00 00 00	 call	 ?ShowWindow@CWnd@@QAEHH@Z ; CWnd::ShowWindow

; 768  : // 2008.01.25 by LYH >>
; 769  : 			//GetDlgItem(IDC_STATIC_UP)->SetWindowText( "");
; 770  : 			CString strColor;

  0012f	8d 4d 08	 lea	 ecx, DWORD PTR _strColor$2[ebp]
  00132	ff 15 00 00 00
	00		 call	 DWORD PTR __imp_??0?$CStringT@DV?$StrTraitMFC_DLL@DV?$ChTraitsCRT@D@ATL@@@@@ATL@@QAE@XZ

; 771  : 			strColor.LoadString(IDS_STRING_COLOR);

  00138	6a 10		 push	 16			; 00000010H
  0013a	8d 4d 08	 lea	 ecx, DWORD PTR _strColor$2[ebp]
  0013d	c7 45 fc 00 00
	00 00		 mov	 DWORD PTR __$EHRec$[ebp+8], 0
  00144	ff 15 00 00 00
	00		 call	 DWORD PTR __imp_?LoadStringA@?$CStringT@DV?$StrTraitMFC_DLL@DV?$ChTraitsCRT@D@ATL@@@@@ATL@@QAEHI@Z

; 772  : 			GetDlgItem(IDC_STATIC_UP)->SetWindowText( strColor);

  0014a	ff 75 08	 push	 DWORD PTR _strColor$2[ebp]
  0014d	8b ce		 mov	 ecx, esi
  0014f	68 96 17 00 00	 push	 6038			; 00001796H
  00154	e8 00 00 00 00	 call	 ?GetDlgItem@CWnd@@QBEPAV1@H@Z ; CWnd::GetDlgItem
  00159	8b c8		 mov	 ecx, eax
  0015b	e8 00 00 00 00	 call	 ?SetWindowTextA@CWnd@@QAEXPBD@Z ; CWnd::SetWindowTextA

; 773  : // 2008.01.25 by LYH <<
; 774  : 			GetDlgItem(IDC_BTN_UP)->ShowWindow(			SW_SHOW);

  00160	6a 05		 push	 5
  00162	68 94 17 00 00	 push	 6036			; 00001794H
  00167	8b ce		 mov	 ecx, esi
  00169	e8 00 00 00 00	 call	 ?GetDlgItem@CWnd@@QBEPAV1@H@Z ; CWnd::GetDlgItem
  0016e	8b c8		 mov	 ecx, eax
  00170	e8 00 00 00 00	 call	 ?ShowWindow@CWnd@@QAEHH@Z ; CWnd::ShowWindow

; 775  : 			GetDlgItem(IDC_STATIC_DOWN)->ShowWindow(	SW_HIDE);

  00175	6a 00		 push	 0
  00177	68 97 17 00 00	 push	 6039			; 00001797H
  0017c	8b ce		 mov	 ecx, esi
  0017e	e8 00 00 00 00	 call	 ?GetDlgItem@CWnd@@QBEPAV1@H@Z ; CWnd::GetDlgItem
  00183	8b c8		 mov	 ecx, eax
  00185	e8 00 00 00 00	 call	 ?ShowWindow@CWnd@@QAEHH@Z ; CWnd::ShowWindow

; 776  : 			GetDlgItem(IDC_BTN_DOWN)->ShowWindow(		SW_HIDE);

  0018a	6a 00		 push	 0
  0018c	68 95 17 00 00	 push	 6037			; 00001795H
  00191	8b ce		 mov	 ecx, esi
  00193	e8 00 00 00 00	 call	 ?GetDlgItem@CWnd@@QBEPAV1@H@Z ; CWnd::GetDlgItem
  00198	8b c8		 mov	 ecx, eax
  0019a	e8 00 00 00 00	 call	 ?ShowWindow@CWnd@@QAEHH@Z ; CWnd::ShowWindow

; 777  : 		}

  0019f	8d 4d 08	 lea	 ecx, DWORD PTR _strColor$2[ebp]
  001a2	ff 15 00 00 00
	00		 call	 DWORD PTR __imp_??1?$CStringT@DV?$StrTraitMFC_DLL@DV?$ChTraitsCRT@D@ATL@@@@@ATL@@QAE@XZ

; 803  : 		}
; 804  : 	}
; 805  : }

  001a8	8b 4d f4	 mov	 ecx, DWORD PTR __$EHRec$[ebp]
  001ab	64 89 0d 00 00
	00 00		 mov	 DWORD PTR fs:0, ecx
  001b2	59		 pop	 ecx
  001b3	5e		 pop	 esi
  001b4	8b e5		 mov	 esp, ebp
  001b6	5d		 pop	 ebp
  001b7	c2 04 00	 ret	 4
$LN2@Initial_Co:

; 778  : 	}
; 779  : // (2006.11.03 ) Flow 
; 780  : 	else if(nCount == 5)

  001ba	83 f8 05	 cmp	 eax, 5
  001bd	75 6f		 jne	 SHORT $LN6@Initial_Co

; 781  : 	{
; 782  : 		GetDlgItem(IDC_STATIC_STEADY)->ShowWindow(SW_SHOW);

  001bf	50		 push	 eax
  001c0	68 f7 17 00 00	 push	 6135			; 000017f7H
  001c5	e8 00 00 00 00	 call	 ?GetDlgItem@CWnd@@QBEPAV1@H@Z ; CWnd::GetDlgItem
  001ca	8b c8		 mov	 ecx, eax
  001cc	e8 00 00 00 00	 call	 ?ShowWindow@CWnd@@QAEHH@Z ; CWnd::ShowWindow

; 783  : 		GetDlgItem(IDC_BTN_STEADY)->ShowWindow(SW_SHOW);

  001d1	6a 05		 push	 5
  001d3	68 fa 17 00 00	 push	 6138			; 000017faH
  001d8	8b ce		 mov	 ecx, esi
  001da	e8 00 00 00 00	 call	 ?GetDlgItem@CWnd@@QBEPAV1@H@Z ; CWnd::GetDlgItem
  001df	8b c8		 mov	 ecx, eax
  001e1	e8 00 00 00 00	 call	 ?ShowWindow@CWnd@@QAEHH@Z ; CWnd::ShowWindow

; 784  : 		GetDlgItem(IDC_STATIC_UP)->ShowWindow(SW_HIDE);

  001e6	6a 00		 push	 0
  001e8	68 96 17 00 00	 push	 6038			; 00001796H
  001ed	8b ce		 mov	 ecx, esi
  001ef	e8 00 00 00 00	 call	 ?GetDlgItem@CWnd@@QBEPAV1@H@Z ; CWnd::GetDlgItem
  001f4	8b c8		 mov	 ecx, eax
  001f6	e8 00 00 00 00	 call	 ?ShowWindow@CWnd@@QAEHH@Z ; CWnd::ShowWindow

; 785  : 		GetDlgItem(IDC_BTN_UP)->ShowWindow(SW_HIDE);

  001fb	6a 00		 push	 0
  001fd	68 94 17 00 00	 push	 6036			; 00001794H
  00202	8b ce		 mov	 ecx, esi
  00204	e8 00 00 00 00	 call	 ?GetDlgItem@CWnd@@QBEPAV1@H@Z ; CWnd::GetDlgItem
  00209	8b c8		 mov	 ecx, eax
  0020b	e8 00 00 00 00	 call	 ?ShowWindow@CWnd@@QAEHH@Z ; CWnd::ShowWindow

; 786  : 		GetDlgItem(IDC_STATIC_DOWN)->ShowWindow(SW_HIDE);

  00210	6a 00		 push	 0
  00212	68 97 17 00 00	 push	 6039			; 00001797H
  00217	8b ce		 mov	 ecx, esi
  00219	e8 00 00 00 00	 call	 ?GetDlgItem@CWnd@@QBEPAV1@H@Z ; CWnd::GetDlgItem
  0021e	8b c8		 mov	 ecx, eax
  00220	e8 00 00 00 00	 call	 ?ShowWindow@CWnd@@QAEHH@Z ; CWnd::ShowWindow

; 787  : 		GetDlgItem(IDC_BTN_DOWN)->ShowWindow(SW_HIDE);

  00225	6a 00		 push	 0
  00227	68 95 17 00 00	 push	 6037			; 00001795H

; 788  : 		return;

  0022c	eb 3a		 jmp	 SHORT $LN17@Initial_Co
$LN6@Initial_Co:

; 789  : 	}
; 790  : // (2006.11.03 ) Flow 
; 791  : 	else
; 792  : 	{
; 793  : 		if( m_nSteadyType == 0 )

  0022e	83 be a0 06 00
	00 00		 cmp	 DWORD PTR [esi+1696], 0
  00235	75 17		 jne	 SHORT $LN8@Initial_Co

; 794  : 		{
; 795  : 			GetDlgItem(IDC_STATIC_STEADY)->ShowWindow(SW_SHOW);

  00237	6a 05		 push	 5
  00239	68 f7 17 00 00	 push	 6135			; 000017f7H
  0023e	e8 00 00 00 00	 call	 ?GetDlgItem@CWnd@@QBEPAV1@H@Z ; CWnd::GetDlgItem
  00243	8b c8		 mov	 ecx, eax
  00245	e8 00 00 00 00	 call	 ?ShowWindow@CWnd@@QAEHH@Z ; CWnd::ShowWindow

; 796  : 			GetDlgItem(IDC_BTN_STEADY)->ShowWindow(SW_SHOW);

  0024a	6a 05		 push	 5

; 797  : 		}

  0024c	eb 15		 jmp	 SHORT $LN18@Initial_Co
$LN8@Initial_Co:

; 798  : 
; 799  : 		else
; 800  : 		{
; 801  : 			GetDlgItem(IDC_STATIC_STEADY)->ShowWindow(SW_HIDE);

  0024e	6a 00		 push	 0
  00250	68 f7 17 00 00	 push	 6135			; 000017f7H
  00255	e8 00 00 00 00	 call	 ?GetDlgItem@CWnd@@QBEPAV1@H@Z ; CWnd::GetDlgItem
  0025a	8b c8		 mov	 ecx, eax
  0025c	e8 00 00 00 00	 call	 ?ShowWindow@CWnd@@QAEHH@Z ; CWnd::ShowWindow

; 802  : 			GetDlgItem(IDC_BTN_STEADY)->ShowWindow(SW_HIDE);

  00261	6a 00		 push	 0
$LN18@Initial_Co:

; 803  : 		}
; 804  : 	}
; 805  : }

  00263	68 fa 17 00 00	 push	 6138			; 000017faH
$LN17@Initial_Co:
  00268	8b ce		 mov	 ecx, esi
  0026a	e8 00 00 00 00	 call	 ?GetDlgItem@CWnd@@QBEPAV1@H@Z ; CWnd::GetDlgItem
  0026f	8b c8		 mov	 ecx, eax
  00271	e8 00 00 00 00	 call	 ?ShowWindow@CWnd@@QAEHH@Z ; CWnd::ShowWindow
  00276	8b 4d f4	 mov	 ecx, DWORD PTR __$EHRec$[ebp]
  00279	64 89 0d 00 00
	00 00		 mov	 DWORD PTR fs:0, ecx
  00280	59		 pop	 ecx
  00281	5e		 pop	 esi
  00282	8b e5		 mov	 esp, ebp
  00284	5d		 pop	 ebp
  00285	c2 04 00	 ret	 4
_TEXT	ENDS
;	COMDAT text$x
text$x	SEGMENT
__unwindfunclet$?Initial_ColorBtn@CSetting_Price@@IAEXH@Z$0:
  00000	8d 4d 08	 lea	 ecx, DWORD PTR _strColor$2[ebp]
  00003	ff 25 00 00 00
	00		 jmp	 DWORD PTR __imp_??1?$CStringT@DV?$StrTraitMFC_DLL@DV?$ChTraitsCRT@D@ATL@@@@@ATL@@QAE@XZ
  00009	cc		 int	 3
  0000a	cc		 int	 3
  0000b	cc		 int	 3
  0000c	cc		 int	 3
  0000d	cc		 int	 3
__ehhandler$?Initial_ColorBtn@CSetting_Price@@IAEXH@Z:
  0000e	90		 npad	 1
  0000f	90		 npad	 1
  00010	8b 54 24 08	 mov	 edx, DWORD PTR [esp+8]
  00014	8d 42 0c	 lea	 eax, DWORD PTR [edx+12]
  00017	8b 4a f8	 mov	 ecx, DWORD PTR [edx-8]
  0001a	33 c8		 xor	 ecx, eax
  0001c	e8 00 00 00 00	 call	 @__security_check_cookie@4
  00021	b8 00 00 00 00	 mov	 eax, OFFSET __ehfuncinfo$?Initial_ColorBtn@CSetting_Price@@IAEXH@Z
  00026	e9 00 00 00 00	 jmp	 ___CxxFrameHandler3
text$x	ENDS
?Initial_ColorBtn@CSetting_Price@@IAEXH@Z ENDP		; CSetting_Price::Initial_ColorBtn
; Function compile flags: /Ogtp
; File D:\git\src\IBK\IBK_DRFN\ProjSrc\SrcChartEx\ChartAddIn\ChartEnvSetupDlgAddIn\ChartEnvSetupDlgAddIn\Setting_Price.cpp
; File C:\Program Files (x86)\Microsoft Visual Studio\2019\Community\VC\Tools\MSVC\14.29.30133\atlmfc\include\afxwin2.inl
; File D:\git\src\IBK\IBK_DRFN\ProjSrc\SrcChartEx\ChartAddIn\ChartEnvSetupDlgAddIn\ChartEnvSetupDlgAddIn\Setting_Price.cpp
; File C:\Program Files (x86)\Microsoft Visual Studio\2019\Community\VC\Tools\MSVC\14.29.30133\atlmfc\include\afxwin2.inl
; File D:\git\src\IBK\IBK_DRFN\ProjSrc\SrcChartEx\ChartAddIn\ChartEnvSetupDlgAddIn\ChartEnvSetupDlgAddIn\Setting_Price.cpp
; File C:\Program Files (x86)\Microsoft Visual Studio\2019\Community\VC\Tools\MSVC\14.29.30133\atlmfc\include\afxwin2.inl
; File D:\git\src\IBK\IBK_DRFN\ProjSrc\SrcChartEx\ChartAddIn\ChartEnvSetupDlgAddIn\ChartEnvSetupDlgAddIn\Setting_Price.cpp
; File D:\git\src\IBK\IBK_DRFN\ProjSrc\SrcChartEx\ChartAddIn\ChartEnvSetupDlgAddIn\Include_Chart\Dll_Load\IMetaTable.h
; File C:\Program Files (x86)\Microsoft Visual Studio\2019\Community\VC\Tools\MSVC\14.29.30133\atlmfc\include\afxwin1.inl
; File D:\git\src\IBK\IBK_DRFN\ProjSrc\SrcChartEx\ChartAddIn\ChartEnvSetupDlgAddIn\Include_Chart\Dll_Load\IMetaTable.h
; File C:\Program Files (x86)\Microsoft Visual Studio\2019\Community\VC\Tools\MSVC\14.29.30133\atlmfc\include\afxwin1.inl
; File D:\git\src\IBK\IBK_DRFN\ProjSrc\SrcChartEx\ChartAddIn\ChartEnvSetupDlgAddIn\ChartEnvSetupDlgAddIn\Setting_Price.cpp
; File D:\git\src\IBK\IBK_DRFN\ProjSrc\SrcChartEx\ChartAddIn\ChartEnvSetupDlgAddIn\Include_Chart\Dll_Load\IMetaTable.h
; File C:\Program Files (x86)\Microsoft Visual Studio\2019\Community\VC\Tools\MSVC\14.29.30133\atlmfc\include\afxwin1.inl
; File D:\git\src\IBK\IBK_DRFN\ProjSrc\SrcChartEx\ChartAddIn\ChartEnvSetupDlgAddIn\ChartEnvSetupDlgAddIn\Setting_Price.cpp
;	COMDAT ?Initial_ColorButton@CSetting_Price@@IAEXXZ
_TEXT	SEGMENT
___mlrs__$ = -32					; size = 4
_nSubGraphType$1$ = -28					; size = 4
$T2 = -28						; size = 4
$T3 = -24						; size = 4
$T4 = -24						; size = 4
$T5 = -24						; size = 4
_strUp$ = -20						; size = 4
_strColor$ = -16					; size = 4
__$EHRec$ = -12						; size = 12
?Initial_ColorButton@CSetting_Price@@IAEXXZ PROC	; CSetting_Price::Initial_ColorButton, COMDAT
; _this$ = ecx

; 207  : {

  00000	55		 push	 ebp
  00001	8b ec		 mov	 ebp, esp
  00003	6a ff		 push	 -1
  00005	68 00 00 00 00	 push	 __ehhandler$?Initial_ColorButton@CSetting_Price@@IAEXXZ
  0000a	64 a1 00 00 00
	00		 mov	 eax, DWORD PTR fs:0
  00010	50		 push	 eax
  00011	83 ec 14	 sub	 esp, 20			; 00000014H
  00014	53		 push	 ebx
  00015	56		 push	 esi
  00016	57		 push	 edi
  00017	a1 00 00 00 00	 mov	 eax, DWORD PTR ___security_cookie
  0001c	33 c5		 xor	 eax, ebp
  0001e	50		 push	 eax
  0001f	8d 45 f4	 lea	 eax, DWORD PTR __$EHRec$[ebp]
  00022	64 a3 00 00 00
	00		 mov	 DWORD PTR fs:0, eax
  00028	8b f9		 mov	 edi, ecx

; 208  : 	// (2006/8/23 - Seung-Won, Bae) Color setting alwaysly
; 209  : 	m_btnUp.SetColor( m_pIGraphInfo->GetSubGraphColor( 0, 1));

  0002a	8b 8f c4 00 00
	00		 mov	 ecx, DWORD PTR [edi+196]
  00030	6a 01		 push	 1
  00032	6a 00		 push	 0
  00034	8b 01		 mov	 eax, DWORD PTR [ecx]
  00036	ff 50 64	 call	 DWORD PTR [eax+100]
  00039	8d 4d e8	 lea	 ecx, DWORD PTR $T5[ebp]
  0003c	89 45 e8	 mov	 DWORD PTR $T5[ebp], eax
  0003f	51		 push	 ecx
  00040	8d 8f 08 02 00
	00		 lea	 ecx, DWORD PTR [edi+520]
  00046	e8 00 00 00 00	 call	 ?SetColor@CColorButton@@QAEXABK@Z ; CColorButton::SetColor
; File C:\Program Files (x86)\Microsoft Visual Studio\2019\Community\VC\Tools\MSVC\14.29.30133\atlmfc\include\afxwin2.inl

; 114  : 	{ ASSERT(::IsWindow(m_hWnd)); ::InvalidateRect(m_hWnd, NULL, bErase); }

  0004b	8b 35 00 00 00
	00		 mov	 esi, DWORD PTR __imp__InvalidateRect@12
  00051	6a 01		 push	 1
  00053	6a 00		 push	 0
  00055	ff b7 28 02 00
	00		 push	 DWORD PTR [edi+552]
  0005b	ff d6		 call	 esi
; File D:\git\src\IBK\IBK_DRFN\ProjSrc\SrcChartEx\ChartAddIn\ChartEnvSetupDlgAddIn\ChartEnvSetupDlgAddIn\Setting_Price.cpp

; 211  : 	m_btnDown.SetColor( m_pIGraphInfo->GetSubGraphColor( 0, 3));

  0005d	8b 8f c4 00 00
	00		 mov	 ecx, DWORD PTR [edi+196]
  00063	6a 03		 push	 3
  00065	6a 00		 push	 0
  00067	8b 01		 mov	 eax, DWORD PTR [ecx]
  00069	ff 50 64	 call	 DWORD PTR [eax+100]
  0006c	8d 4d e8	 lea	 ecx, DWORD PTR $T4[ebp]
  0006f	89 45 e8	 mov	 DWORD PTR $T4[ebp], eax
  00072	51		 push	 ecx
  00073	8d 8f f8 00 00
	00		 lea	 ecx, DWORD PTR [edi+248]
  00079	e8 00 00 00 00	 call	 ?SetColor@CColorButton@@QAEXABK@Z ; CColorButton::SetColor
; File C:\Program Files (x86)\Microsoft Visual Studio\2019\Community\VC\Tools\MSVC\14.29.30133\atlmfc\include\afxwin2.inl

; 114  : 	{ ASSERT(::IsWindow(m_hWnd)); ::InvalidateRect(m_hWnd, NULL, bErase); }

  0007e	6a 01		 push	 1
  00080	6a 00		 push	 0
  00082	ff b7 18 01 00
	00		 push	 DWORD PTR [edi+280]
  00088	ff d6		 call	 esi
; File D:\git\src\IBK\IBK_DRFN\ProjSrc\SrcChartEx\ChartAddIn\ChartEnvSetupDlgAddIn\ChartEnvSetupDlgAddIn\Setting_Price.cpp

; 213  : 	m_btnSteady.SetColor( m_pIGraphInfo->GetSubGraphColor( 0, 5));

  0008a	8b 8f c4 00 00
	00		 mov	 ecx, DWORD PTR [edi+196]
  00090	6a 05		 push	 5
  00092	6a 00		 push	 0
  00094	8b 01		 mov	 eax, DWORD PTR [ecx]
  00096	ff 50 64	 call	 DWORD PTR [eax+100]
  00099	89 45 e4	 mov	 DWORD PTR $T2[ebp], eax
  0009c	8d 4d e4	 lea	 ecx, DWORD PTR $T2[ebp]
  0009f	8d 87 80 01 00
	00		 lea	 eax, DWORD PTR [edi+384]
  000a5	51		 push	 ecx
  000a6	8b c8		 mov	 ecx, eax
  000a8	89 45 e8	 mov	 DWORD PTR $T3[ebp], eax
  000ab	e8 00 00 00 00	 call	 ?SetColor@CColorButton@@QAEXABK@Z ; CColorButton::SetColor
; File C:\Program Files (x86)\Microsoft Visual Studio\2019\Community\VC\Tools\MSVC\14.29.30133\atlmfc\include\afxwin2.inl

; 114  : 	{ ASSERT(::IsWindow(m_hWnd)); ::InvalidateRect(m_hWnd, NULL, bErase); }

  000b0	6a 01		 push	 1
  000b2	6a 00		 push	 0
  000b4	ff b7 18 01 00
	00		 push	 DWORD PTR [edi+280]
  000ba	ff d6		 call	 esi
; File D:\git\src\IBK\IBK_DRFN\ProjSrc\SrcChartEx\ChartAddIn\ChartEnvSetupDlgAddIn\ChartEnvSetupDlgAddIn\Setting_Price.cpp

; 216  : 	ML_SET_LANGUAGE_RES();

  000bc	e8 00 00 00 00	 call	 ?AfxGetStaticModuleState@@YGPAVAFX_MODULE_STATE@@XZ ; AfxGetStaticModuleState
  000c1	8b 9f d8 00 00
	00		 mov	 ebx, DWORD PTR [edi+216]
  000c7	8b 70 08	 mov	 esi, DWORD PTR [eax+8]
; File D:\git\src\IBK\IBK_DRFN\ProjSrc\SrcChartEx\ChartAddIn\ChartEnvSetupDlgAddIn\Include_Chart\Dll_Load\IMetaTable.h

; 936  : 	DECLARE_FUNCTION2(	LoadResourceDLL,				HMODULE, AfxGetStaticModuleState()->m_hCurrentInstanceHandle, HWND, HMODULE);

  000ca	a1 04 00 00 00	 mov	 eax, DWORD PTR ?g_iMetaTable@@3VIMetaTable@@A+4
  000cf	85 c0		 test	 eax, eax
  000d1	74 4b		 je	 SHORT $LN34@Initial_Co
  000d3	b9 80 0d 00 00	 mov	 ecx, 3456		; 00000d80H
  000d8	66 3b 0d 94 00
	00 00		 cmp	 cx, WORD PTR ?g_iMetaTable@@3VIMetaTable@@A+148
  000df	74 29		 je	 SHORT $LN66@Initial_Co
  000e1	68 00 00 00 00	 push	 OFFSET ??_C@_0BA@ENJOCHIO@LoadResourceDLL@
  000e6	50		 push	 eax
  000e7	c7 05 90 00 00
	00 00 00 00 00	 mov	 DWORD PTR ?g_iMetaTable@@3VIMetaTable@@A+144, 0
  000f1	ff 15 00 00 00
	00		 call	 DWORD PTR __imp__GetProcAddress@8
  000f7	b9 80 0d 00 00	 mov	 ecx, 3456		; 00000d80H
  000fc	a3 90 00 00 00	 mov	 DWORD PTR ?g_iMetaTable@@3VIMetaTable@@A+144, eax
  00101	66 89 0d 94 00
	00 00		 mov	 WORD PTR ?g_iMetaTable@@3VIMetaTable@@A+148, cx
  00108	eb 05		 jmp	 SHORT $LN33@Initial_Co
$LN66@Initial_Co:
  0010a	a1 90 00 00 00	 mov	 eax, DWORD PTR ?g_iMetaTable@@3VIMetaTable@@A+144
$LN33@Initial_Co:
  0010f	85 c0		 test	 eax, eax
  00111	74 0b		 je	 SHORT $LN34@Initial_Co
  00113	56		 push	 esi
  00114	53		 push	 ebx
  00115	ff d0		 call	 eax
  00117	83 c4 08	 add	 esp, 8
  0011a	8b d8		 mov	 ebx, eax
  0011c	eb 08		 jmp	 SHORT $LN31@Initial_Co
$LN34@Initial_Co:
  0011e	e8 00 00 00 00	 call	 ?AfxGetStaticModuleState@@YGPAVAFX_MODULE_STATE@@XZ ; AfxGetStaticModuleState
  00123	8b 58 08	 mov	 ebx, DWORD PTR [eax+8]
$LN31@Initial_Co:
; File C:\Program Files (x86)\Microsoft Visual Studio\2019\Community\VC\Tools\MSVC\14.29.30133\atlmfc\include\afxwin1.inl

; 25   : 		return afxCurrentResourceHandle; }

  00126	e8 00 00 00 00	 call	 ?AfxGetModuleState@@YGPAVAFX_MODULE_STATE@@XZ ; AfxGetModuleState
; File D:\git\src\IBK\IBK_DRFN\ProjSrc\SrcChartEx\ChartAddIn\ChartEnvSetupDlgAddIn\Include_Chart\Dll_Load\IMetaTable.h

; 1032 : 		m_hInstance = AfxGetResourceHandle();

  0012b	8b 70 0c	 mov	 esi, DWORD PTR [eax+12]
  0012e	89 75 e0	 mov	 DWORD PTR ___mlrs__$[ebp], esi
; File C:\Program Files (x86)\Microsoft Visual Studio\2019\Community\VC\Tools\MSVC\14.29.30133\atlmfc\include\afxwin1.inl

; 27   : 	{ ASSERT(hInstResource != NULL); afxCurrentResourceHandle = hInstResource; }

  00131	e8 00 00 00 00	 call	 ?AfxGetModuleState@@YGPAVAFX_MODULE_STATE@@XZ ; AfxGetModuleState
  00136	89 58 0c	 mov	 DWORD PTR [eax+12], ebx
; File D:\git\src\IBK\IBK_DRFN\ProjSrc\SrcChartEx\ChartAddIn\ChartEnvSetupDlgAddIn\ChartEnvSetupDlgAddIn\Setting_Price.cpp

; 217  : 	CString strColor, strUp;

  00139	8d 4d f0	 lea	 ecx, DWORD PTR _strColor$[ebp]
  0013c	c7 45 fc 00 00
	00 00		 mov	 DWORD PTR __$EHRec$[ebp+8], 0
  00143	ff 15 00 00 00
	00		 call	 DWORD PTR __imp_??0?$CStringT@DV?$StrTraitMFC_DLL@DV?$ChTraitsCRT@D@ATL@@@@@ATL@@QAE@XZ
  00149	8d 4d ec	 lea	 ecx, DWORD PTR _strUp$[ebp]
  0014c	ff 15 00 00 00
	00		 call	 DWORD PTR __imp_??0?$CStringT@DV?$StrTraitMFC_DLL@DV?$ChTraitsCRT@D@ATL@@@@@ATL@@QAE@XZ

; 218  : 	strColor.LoadString(IDS_STRING_COLOR);

  00152	6a 10		 push	 16			; 00000010H
  00154	8d 4d f0	 lea	 ecx, DWORD PTR _strColor$[ebp]
  00157	c6 45 fc 02	 mov	 BYTE PTR __$EHRec$[ebp+8], 2
  0015b	ff 15 00 00 00
	00		 call	 DWORD PTR __imp_?LoadStringA@?$CStringT@DV?$StrTraitMFC_DLL@DV?$ChTraitsCRT@D@ATL@@@@@ATL@@QAEHI@Z

; 219  : 	strUp.LoadString(IDS_STRING_UP);

  00161	6a 16		 push	 22			; 00000016H
  00163	8d 4d ec	 lea	 ecx, DWORD PTR _strUp$[ebp]
  00166	ff 15 00 00 00
	00		 call	 DWORD PTR __imp_?LoadStringA@?$CStringT@DV?$StrTraitMFC_DLL@DV?$ChTraitsCRT@D@ATL@@@@@ATL@@QAEHI@Z

; 220  : 
; 221  : 	// (2007/12/17 - Seung-Won, Bae) for Not-Candle Type
; 222  : 	int nSubGraphType = m_pIGraphInfo->GetSubGraphType( 0);

  0016c	8b 8f c4 00 00
	00		 mov	 ecx, DWORD PTR [edi+196]
  00172	6a 00		 push	 0
  00174	8b 01		 mov	 eax, DWORD PTR [ecx]
  00176	ff 50 50	 call	 DWORD PTR [eax+80]
  00179	89 45 e4	 mov	 DWORD PTR _nSubGraphType$1$[ebp], eax

; 223  : 	if( CGraphBaseData::Bong_Type != nSubGraphType)

  0017c	85 c0		 test	 eax, eax
  0017e	0f 84 99 00 00
	00		 je	 $LN2@Initial_Co

; 224  : 	{
; 225  : 		int nSubGraphStyle = m_pIGraphInfo->GetSubGraphStyle( 0);

  00184	8b 8f c4 00 00
	00		 mov	 ecx, DWORD PTR [edi+196]
  0018a	6a 00		 push	 0
  0018c	8b 11		 mov	 edx, DWORD PTR [ecx]
  0018e	ff 52 54	 call	 DWORD PTR [edx+84]

; 226  : 
; 227  : 		m_btnUp.ShowWindow( SW_SHOW);

  00191	6a 05		 push	 5
  00193	8d 8f 08 02 00
	00		 lea	 ecx, DWORD PTR [edi+520]
  00199	8b d8		 mov	 ebx, eax
  0019b	e8 00 00 00 00	 call	 ?ShowWindow@CWnd@@QAEHH@Z ; CWnd::ShowWindow

; 228  : 		GetDlgItem( IDC_STATIC_UP)->ShowWindow( SW_SHOW);

  001a0	6a 05		 push	 5
  001a2	68 96 17 00 00	 push	 6038			; 00001796H
  001a7	8b cf		 mov	 ecx, edi
  001a9	e8 00 00 00 00	 call	 ?GetDlgItem@CWnd@@QBEPAV1@H@Z ; CWnd::GetDlgItem
  001ae	8b c8		 mov	 ecx, eax
  001b0	e8 00 00 00 00	 call	 ?ShowWindow@CWnd@@QAEHH@Z ; CWnd::ShowWindow

; 229  : 		if( ( CGraphBaseData::Line_Type == nSubGraphType && CGraphBaseData::ComparisonLine == nSubGraphStyle && m_bUseBasePrice) //   
; 230  : 			|| ( CGraphBaseData::Bar_Type == nSubGraphType && CGraphBaseData::UpDownBar == nSubGraphStyle)
; 231  : 			//   - ojtaso (20080603)
; 232  : 			|| ( CGraphBaseData::Bar_Type == nSubGraphType && CGraphBaseData::FixedRateUpDownBar == nSubGraphStyle))

  001b5	8b 45 e4	 mov	 eax, DWORD PTR _nSubGraphType$1$[ebp]
  001b8	83 f8 01	 cmp	 eax, 1
  001bb	75 4b		 jne	 SHORT $LN6@Initial_Co
  001bd	83 fb 06	 cmp	 ebx, 6
  001c0	75 09		 jne	 SHORT $LN3@Initial_Co
  001c2	83 bf ac 06 00
	00 00		 cmp	 DWORD PTR [edi+1708], 0
  001c9	75 4b		 jne	 SHORT $LN5@Initial_Co
$LN3@Initial_Co:

; 237  : 		else
; 238  : 		{
; 239  : // 2008.01.25 by LYH >>
; 240  : 			//GetDlgItem( IDC_STATIC_UP)->SetWindowText( "");
; 241  : 			GetDlgItem( IDC_STATIC_UP)->SetWindowText( strColor);

  001cb	ff 75 f0	 push	 DWORD PTR _strColor$[ebp]
  001ce	8b cf		 mov	 ecx, edi
  001d0	68 96 17 00 00	 push	 6038			; 00001796H
  001d5	e8 00 00 00 00	 call	 ?GetDlgItem@CWnd@@QBEPAV1@H@Z ; CWnd::GetDlgItem
  001da	8b c8		 mov	 ecx, eax
  001dc	e8 00 00 00 00	 call	 ?SetWindowTextA@CWnd@@QAEXPBD@Z ; CWnd::SetWindowTextA

; 242  : // 2008.01.25 by LYH <<
; 243  : 			GetDlgItem( IDC_STATIC_DOWN)->ShowWindow( SW_HIDE);
; 244  : 			m_btnDown.ShowWindow( SW_HIDE);

  001e1	33 db		 xor	 ebx, ebx
$LN4@Initial_Co:

; 245  : 		}
; 246  : 		GetDlgItem( IDC_STATIC_STEADY)->ShowWindow( SW_HIDE);

  001e3	68 97 17 00 00	 push	 6039			; 00001797H
  001e8	8b cf		 mov	 ecx, edi
  001ea	e8 00 00 00 00	 call	 ?GetDlgItem@CWnd@@QBEPAV1@H@Z ; CWnd::GetDlgItem
  001ef	53		 push	 ebx
  001f0	8b c8		 mov	 ecx, eax
  001f2	e8 00 00 00 00	 call	 ?ShowWindow@CWnd@@QAEHH@Z ; CWnd::ShowWindow
  001f7	53		 push	 ebx
  001f8	8d 8f f8 00 00
	00		 lea	 ecx, DWORD PTR [edi+248]
  001fe	e8 00 00 00 00	 call	 ?ShowWindow@CWnd@@QAEHH@Z ; CWnd::ShowWindow
  00203	e9 af 00 00 00	 jmp	 $LN68@Initial_Co
$LN6@Initial_Co:

; 229  : 		if( ( CGraphBaseData::Line_Type == nSubGraphType && CGraphBaseData::ComparisonLine == nSubGraphStyle && m_bUseBasePrice) //   
; 230  : 			|| ( CGraphBaseData::Bar_Type == nSubGraphType && CGraphBaseData::UpDownBar == nSubGraphStyle)
; 231  : 			//   - ojtaso (20080603)
; 232  : 			|| ( CGraphBaseData::Bar_Type == nSubGraphType && CGraphBaseData::FixedRateUpDownBar == nSubGraphStyle))

  00208	83 f8 02	 cmp	 eax, 2
  0020b	75 be		 jne	 SHORT $LN3@Initial_Co
  0020d	3b d8		 cmp	 ebx, eax
  0020f	74 05		 je	 SHORT $LN5@Initial_Co
  00211	83 fb 10	 cmp	 ebx, 16			; 00000010H
  00214	75 b5		 jne	 SHORT $LN3@Initial_Co
$LN5@Initial_Co:

; 233  : 		{
; 234  : 			GetDlgItem( IDC_STATIC_DOWN)->ShowWindow( SW_SHOW);
; 235  : 			m_btnDown.ShowWindow( SW_SHOW);

  00216	bb 05 00 00 00	 mov	 ebx, 5

; 236  : 		}

  0021b	eb c6		 jmp	 SHORT $LN4@Initial_Co
$LN2@Initial_Co:

; 247  : 		m_btnSteady.ShowWindow( SW_HIDE);
; 248  : 
; 249  : 		GetDlgItem( IDC_STEADY_NORMAL)->EnableWindow( FALSE);
; 250  : 		GetDlgItem( IDC_STEADY_BEFORECLOSE)->EnableWindow( FALSE);
; 251  : 		GetDlgItem( IDC_STEADY_SAMECLOSE)->EnableWindow( FALSE);
; 252  : 		return;
; 253  : 	}
; 254  : 
; 255  : 	// (2006/12/7 - Seung-Won, Bae) Check 1 Tick Chart (Disable All Selection)
; 256  : 	if( m_pIPacketManager->GetBaseTimeUnit() == 1 && CScaleBaseData::HORZ_TICK == m_pIPacketManager->GetBaseTimeDataType())

  0021d	8b 8f b4 00 00
	00		 mov	 ecx, DWORD PTR [edi+180]
  00223	8b 01		 mov	 eax, DWORD PTR [ecx]
  00225	ff 50 40	 call	 DWORD PTR [eax+64]
  00228	83 f8 01	 cmp	 eax, 1
  0022b	0f 85 eb 00 00
	00		 jne	 $LN8@Initial_Co
  00231	8b 8f b4 00 00
	00		 mov	 ecx, DWORD PTR [edi+180]
  00237	8b 01		 mov	 eax, DWORD PTR [ecx]
  00239	ff 50 3c	 call	 DWORD PTR [eax+60]
  0023c	83 f8 05	 cmp	 eax, 5
  0023f	0f 85 d7 00 00
	00		 jne	 $LN8@Initial_Co

; 257  : 	{
; 258  : 		GetDlgItem( IDC_STATIC_UP)->ShowWindow( SW_SHOW);

  00245	50		 push	 eax
  00246	68 96 17 00 00	 push	 6038			; 00001796H
  0024b	8b cf		 mov	 ecx, edi
  0024d	e8 00 00 00 00	 call	 ?GetDlgItem@CWnd@@QBEPAV1@H@Z ; CWnd::GetDlgItem
  00252	8b c8		 mov	 ecx, eax
  00254	e8 00 00 00 00	 call	 ?ShowWindow@CWnd@@QAEHH@Z ; CWnd::ShowWindow

; 259  : 		m_btnUp.ShowWindow( SW_SHOW);

  00259	6a 05		 push	 5
  0025b	8d 8f 08 02 00
	00		 lea	 ecx, DWORD PTR [edi+520]
  00261	e8 00 00 00 00	 call	 ?ShowWindow@CWnd@@QAEHH@Z ; CWnd::ShowWindow

; 260  : 
; 261  : 		if( m_bUseBasePrice) //   

  00266	83 bf ac 06 00
	00 00		 cmp	 DWORD PTR [edi+1708], 0
  0026d	74 07		 je	 SHORT $LN9@Initial_Co

; 262  : 		{
; 263  : 			GetDlgItem( IDC_STATIC_DOWN)->ShowWindow( SW_SHOW);
; 264  : 			m_btnDown.ShowWindow( SW_SHOW);

  0026f	bb 05 00 00 00	 mov	 ebx, 5

; 265  : 		}

  00274	eb 18		 jmp	 SHORT $LN10@Initial_Co
$LN9@Initial_Co:

; 266  : 		else
; 267  : 		{
; 268  : // 2008.01.25 by LYH >>
; 269  : 			//GetDlgItem( IDC_STATIC_UP)->SetWindowText( "");
; 270  : 			GetDlgItem( IDC_STATIC_UP)->SetWindowText( strColor);

  00276	ff 75 f0	 push	 DWORD PTR _strColor$[ebp]
  00279	8b cf		 mov	 ecx, edi
  0027b	68 96 17 00 00	 push	 6038			; 00001796H
  00280	e8 00 00 00 00	 call	 ?GetDlgItem@CWnd@@QBEPAV1@H@Z ; CWnd::GetDlgItem
  00285	8b c8		 mov	 ecx, eax
  00287	e8 00 00 00 00	 call	 ?SetWindowTextA@CWnd@@QAEXPBD@Z ; CWnd::SetWindowTextA

; 271  : // 2008.01.25 by LYH <<
; 272  : 			GetDlgItem( IDC_STATIC_DOWN)->ShowWindow( SW_HIDE);
; 273  : 			m_btnDown.ShowWindow( SW_HIDE);

  0028c	33 db		 xor	 ebx, ebx
$LN10@Initial_Co:

; 274  : 		}
; 275  : 		GetDlgItem( IDC_STATIC_STEADY)->ShowWindow( SW_HIDE);

  0028e	68 97 17 00 00	 push	 6039			; 00001797H
  00293	8b cf		 mov	 ecx, edi
  00295	e8 00 00 00 00	 call	 ?GetDlgItem@CWnd@@QBEPAV1@H@Z ; CWnd::GetDlgItem
  0029a	53		 push	 ebx
  0029b	8b c8		 mov	 ecx, eax
  0029d	e8 00 00 00 00	 call	 ?ShowWindow@CWnd@@QAEHH@Z ; CWnd::ShowWindow
  002a2	53		 push	 ebx
  002a3	8d 8f f8 00 00
	00		 lea	 ecx, DWORD PTR [edi+248]
  002a9	e8 00 00 00 00	 call	 ?ShowWindow@CWnd@@QAEHH@Z ; CWnd::ShowWindow

; 276  : 		m_btnSteady.ShowWindow( SW_HIDE);
; 277  : 
; 278  : 		GetDlgItem( IDC_STEADY_NORMAL)->EnableWindow( FALSE);
; 279  : 		GetDlgItem( IDC_STEADY_BEFORECLOSE)->EnableWindow( FALSE);
; 280  : 		GetDlgItem( IDC_STEADY_SAMECLOSE)->EnableWindow( FALSE);

  002ae	8d 87 80 01 00
	00		 lea	 eax, DWORD PTR [edi+384]
  002b4	89 45 e8	 mov	 DWORD PTR $T3[ebp], eax
$LN68@Initial_Co:

; 274  : 		}
; 275  : 		GetDlgItem( IDC_STATIC_STEADY)->ShowWindow( SW_HIDE);

  002b7	68 f7 17 00 00	 push	 6135			; 000017f7H
  002bc	8b cf		 mov	 ecx, edi

; 276  : 		m_btnSteady.ShowWindow( SW_HIDE);
; 277  : 
; 278  : 		GetDlgItem( IDC_STEADY_NORMAL)->EnableWindow( FALSE);
; 279  : 		GetDlgItem( IDC_STEADY_BEFORECLOSE)->EnableWindow( FALSE);
; 280  : 		GetDlgItem( IDC_STEADY_SAMECLOSE)->EnableWindow( FALSE);

  002be	8b df		 mov	 ebx, edi
  002c0	e8 00 00 00 00	 call	 ?GetDlgItem@CWnd@@QBEPAV1@H@Z ; CWnd::GetDlgItem
  002c5	6a 00		 push	 0
  002c7	8b c8		 mov	 ecx, eax
  002c9	e8 00 00 00 00	 call	 ?ShowWindow@CWnd@@QAEHH@Z ; CWnd::ShowWindow
  002ce	8b 4d e8	 mov	 ecx, DWORD PTR $T3[ebp]
  002d1	6a 00		 push	 0
  002d3	e8 00 00 00 00	 call	 ?ShowWindow@CWnd@@QAEHH@Z ; CWnd::ShowWindow
  002d8	68 33 04 00 00	 push	 1075			; 00000433H
  002dd	8b cf		 mov	 ecx, edi
  002df	e8 00 00 00 00	 call	 ?GetDlgItem@CWnd@@QBEPAV1@H@Z ; CWnd::GetDlgItem
  002e4	6a 00		 push	 0
  002e6	8b c8		 mov	 ecx, eax
  002e8	e8 00 00 00 00	 call	 ?EnableWindow@CWnd@@QAEHH@Z ; CWnd::EnableWindow
  002ed	68 34 04 00 00	 push	 1076			; 00000434H
  002f2	8b cb		 mov	 ecx, ebx
  002f4	e8 00 00 00 00	 call	 ?GetDlgItem@CWnd@@QBEPAV1@H@Z ; CWnd::GetDlgItem
  002f9	6a 00		 push	 0
  002fb	8b c8		 mov	 ecx, eax
  002fd	e8 00 00 00 00	 call	 ?EnableWindow@CWnd@@QAEHH@Z ; CWnd::EnableWindow
  00302	68 35 04 00 00	 push	 1077			; 00000435H
  00307	8b cf		 mov	 ecx, edi
  00309	e8 00 00 00 00	 call	 ?GetDlgItem@CWnd@@QBEPAV1@H@Z ; CWnd::GetDlgItem
  0030e	6a 00		 push	 0
  00310	8b c8		 mov	 ecx, eax
  00312	e8 00 00 00 00	 call	 ?EnableWindow@CWnd@@QAEHH@Z ; CWnd::EnableWindow
  00317	e9 f9 01 00 00	 jmp	 $LN18@Initial_Co
$LN8@Initial_Co:

; 281  : 		return;
; 282  : 	}
; 283  : 
; 284  : 	//  Style
; 285  : // 2008.01.25 by LYH >>
; 286  : 	//GetDlgItem(IDC_STATIC_UP)->SetWindowText( "");
; 287  : 	GetDlgItem(IDC_STATIC_UP)->SetWindowText( strUp);

  0031c	ff 75 ec	 push	 DWORD PTR _strUp$[ebp]
  0031f	8b cf		 mov	 ecx, edi
  00321	68 96 17 00 00	 push	 6038			; 00001796H
  00326	e8 00 00 00 00	 call	 ?GetDlgItem@CWnd@@QBEPAV1@H@Z ; CWnd::GetDlgItem
  0032b	8b c8		 mov	 ecx, eax
  0032d	e8 00 00 00 00	 call	 ?SetWindowTextA@CWnd@@QAEXPBD@Z ; CWnd::SetWindowTextA

; 288  : // 2008.01.25 by LYH <<
; 289  : 	if( m_pIGraphInfo->GetSubGraphStyle( 0) == 2)

  00332	8b 8f c4 00 00
	00		 mov	 ecx, DWORD PTR [edi+196]
  00338	6a 00		 push	 0
  0033a	8b 01		 mov	 eax, DWORD PTR [ecx]
  0033c	ff 50 54	 call	 DWORD PTR [eax+84]
  0033f	6a 00		 push	 0
  00341	83 f8 02	 cmp	 eax, 2
  00344	0f 85 ac 00 00
	00		 jne	 $LN11@Initial_Co

; 290  : 	{
; 291  : 		GetDlgItem(IDC_STATIC_STEADY)->ShowWindow(SW_HIDE);

  0034a	68 f7 17 00 00	 push	 6135			; 000017f7H
  0034f	8b cf		 mov	 ecx, edi
  00351	e8 00 00 00 00	 call	 ?GetDlgItem@CWnd@@QBEPAV1@H@Z ; CWnd::GetDlgItem
  00356	8b c8		 mov	 ecx, eax
  00358	e8 00 00 00 00	 call	 ?ShowWindow@CWnd@@QAEHH@Z ; CWnd::ShowWindow

; 292  : 		GetDlgItem(IDC_BTN_STEADY)->ShowWindow(SW_HIDE);

  0035d	6a 00		 push	 0
  0035f	68 fa 17 00 00	 push	 6138			; 000017faH
  00364	8b cf		 mov	 ecx, edi
  00366	e8 00 00 00 00	 call	 ?GetDlgItem@CWnd@@QBEPAV1@H@Z ; CWnd::GetDlgItem
  0036b	8b c8		 mov	 ecx, eax
  0036d	e8 00 00 00 00	 call	 ?ShowWindow@CWnd@@QAEHH@Z ; CWnd::ShowWindow

; 293  : 
; 294  : 		if( m_bUseBasePrice)

  00372	83 bf ac 06 00
	00 00		 cmp	 DWORD PTR [edi+1708], 0
  00379	8b cf		 mov	 ecx, edi
  0037b	6a 05		 push	 5
  0037d	68 96 17 00 00	 push	 6038			; 00001796H
  00382	74 13		 je	 SHORT $LN13@Initial_Co

; 295  : 		{
; 296  : 	// (2006.11.03 ) Flow 
; 297  : 			GetDlgItem(IDC_STATIC_UP)->ShowWindow(SW_SHOW);

  00384	e8 00 00 00 00	 call	 ?GetDlgItem@CWnd@@QBEPAV1@H@Z ; CWnd::GetDlgItem
  00389	8b c8		 mov	 ecx, eax
  0038b	e8 00 00 00 00	 call	 ?ShowWindow@CWnd@@QAEHH@Z ; CWnd::ShowWindow

; 298  : 			GetDlgItem(IDC_BTN_UP)->ShowWindow(SW_SHOW);
; 299  : 			GetDlgItem(IDC_STATIC_DOWN)->ShowWindow(SW_SHOW);
; 300  : 			GetDlgItem(IDC_BTN_DOWN)->ShowWindow(SW_SHOW);

  00390	bb 05 00 00 00	 mov	 ebx, 5

; 301  : 	// (2006.11.03 ) Flow 
; 302  : 		}

  00395	eb 24		 jmp	 SHORT $LN69@Initial_Co
$LN13@Initial_Co:

; 303  : 		else
; 304  : 		{
; 305  : 			GetDlgItem(IDC_STATIC_UP)->ShowWindow(		SW_SHOW);

  00397	e8 00 00 00 00	 call	 ?GetDlgItem@CWnd@@QBEPAV1@H@Z ; CWnd::GetDlgItem
  0039c	8b c8		 mov	 ecx, eax
  0039e	e8 00 00 00 00	 call	 ?ShowWindow@CWnd@@QAEHH@Z ; CWnd::ShowWindow

; 306  : // 2008.01.25 by LYH >>
; 307  : 			//GetDlgItem(IDC_STATIC_UP)->SetWindowText( "");
; 308  : 			GetDlgItem(IDC_STATIC_UP)->SetWindowText( strColor);

  003a3	ff 75 f0	 push	 DWORD PTR _strColor$[ebp]
  003a6	8b cf		 mov	 ecx, edi
  003a8	68 96 17 00 00	 push	 6038			; 00001796H
  003ad	e8 00 00 00 00	 call	 ?GetDlgItem@CWnd@@QBEPAV1@H@Z ; CWnd::GetDlgItem
  003b2	8b c8		 mov	 ecx, eax
  003b4	e8 00 00 00 00	 call	 ?SetWindowTextA@CWnd@@QAEXPBD@Z ; CWnd::SetWindowTextA

; 309  : // 2008.01.25 by LYH <<
; 310  : 			GetDlgItem(IDC_BTN_UP)->ShowWindow(			SW_SHOW);
; 311  : 			GetDlgItem(IDC_STATIC_DOWN)->ShowWindow(	SW_HIDE);
; 312  : 			GetDlgItem(IDC_BTN_DOWN)->ShowWindow(		SW_HIDE);

  003b9	33 db		 xor	 ebx, ebx
$LN69@Initial_Co:

; 313  : 		}
; 314  : 	}

  003bb	8b cf		 mov	 ecx, edi
  003bd	68 94 17 00 00	 push	 6036			; 00001794H
  003c2	e8 00 00 00 00	 call	 ?GetDlgItem@CWnd@@QBEPAV1@H@Z ; CWnd::GetDlgItem
  003c7	6a 05		 push	 5
  003c9	8b c8		 mov	 ecx, eax
  003cb	e8 00 00 00 00	 call	 ?ShowWindow@CWnd@@QAEHH@Z ; CWnd::ShowWindow
  003d0	68 97 17 00 00	 push	 6039			; 00001797H
  003d5	8b cf		 mov	 ecx, edi
  003d7	e8 00 00 00 00	 call	 ?GetDlgItem@CWnd@@QBEPAV1@H@Z ; CWnd::GetDlgItem
  003dc	53		 push	 ebx
  003dd	8b c8		 mov	 ecx, eax
  003df	e8 00 00 00 00	 call	 ?ShowWindow@CWnd@@QAEHH@Z ; CWnd::ShowWindow
  003e4	68 95 17 00 00	 push	 6037			; 00001795H
  003e9	8b cf		 mov	 ecx, edi
  003eb	e8 00 00 00 00	 call	 ?GetDlgItem@CWnd@@QBEPAV1@H@Z ; CWnd::GetDlgItem
  003f0	53		 push	 ebx
  003f1	e9 18 01 00 00	 jmp	 $LN70@Initial_Co
$LN11@Initial_Co:

; 315  : // (2006.11.03 ) Flow 
; 316  : 	else if(m_pIGraphInfo->GetSubGraphStyle( 0) == 5)

  003f6	8b 8f c4 00 00
	00		 mov	 ecx, DWORD PTR [edi+196]
  003fc	8b 01		 mov	 eax, DWORD PTR [ecx]
  003fe	ff 50 54	 call	 DWORD PTR [eax+84]
  00401	8b cf		 mov	 ecx, edi
  00403	6a 05		 push	 5
  00405	83 f8 05	 cmp	 eax, 5
  00408	75 71		 jne	 SHORT $LN15@Initial_Co

; 317  : 	{
; 318  : 		GetDlgItem(IDC_STATIC_STEADY)->ShowWindow(SW_SHOW);

  0040a	68 f7 17 00 00	 push	 6135			; 000017f7H
  0040f	e8 00 00 00 00	 call	 ?GetDlgItem@CWnd@@QBEPAV1@H@Z ; CWnd::GetDlgItem
  00414	8b c8		 mov	 ecx, eax
  00416	e8 00 00 00 00	 call	 ?ShowWindow@CWnd@@QAEHH@Z ; CWnd::ShowWindow

; 319  : 		GetDlgItem(IDC_BTN_STEADY)->ShowWindow(SW_SHOW);

  0041b	6a 05		 push	 5
  0041d	68 fa 17 00 00	 push	 6138			; 000017faH
  00422	8b cf		 mov	 ecx, edi
  00424	e8 00 00 00 00	 call	 ?GetDlgItem@CWnd@@QBEPAV1@H@Z ; CWnd::GetDlgItem
  00429	8b c8		 mov	 ecx, eax
  0042b	e8 00 00 00 00	 call	 ?ShowWindow@CWnd@@QAEHH@Z ; CWnd::ShowWindow

; 320  : 		GetDlgItem(IDC_STATIC_UP)->ShowWindow(SW_HIDE);

  00430	6a 00		 push	 0
  00432	68 96 17 00 00	 push	 6038			; 00001796H
  00437	8b cf		 mov	 ecx, edi
  00439	e8 00 00 00 00	 call	 ?GetDlgItem@CWnd@@QBEPAV1@H@Z ; CWnd::GetDlgItem
  0043e	8b c8		 mov	 ecx, eax
  00440	e8 00 00 00 00	 call	 ?ShowWindow@CWnd@@QAEHH@Z ; CWnd::ShowWindow

; 321  : 		GetDlgItem(IDC_BTN_UP)->ShowWindow(SW_HIDE);

  00445	6a 00		 push	 0
  00447	68 94 17 00 00	 push	 6036			; 00001794H
  0044c	8b cf		 mov	 ecx, edi
  0044e	e8 00 00 00 00	 call	 ?GetDlgItem@CWnd@@QBEPAV1@H@Z ; CWnd::GetDlgItem
  00453	8b c8		 mov	 ecx, eax
  00455	e8 00 00 00 00	 call	 ?ShowWindow@CWnd@@QAEHH@Z ; CWnd::ShowWindow

; 322  : 		GetDlgItem(IDC_STATIC_DOWN)->ShowWindow(SW_HIDE);

  0045a	6a 00		 push	 0
  0045c	68 97 17 00 00	 push	 6039			; 00001797H
  00461	8b cf		 mov	 ecx, edi
  00463	e8 00 00 00 00	 call	 ?GetDlgItem@CWnd@@QBEPAV1@H@Z ; CWnd::GetDlgItem
  00468	8b c8		 mov	 ecx, eax
  0046a	e8 00 00 00 00	 call	 ?ShowWindow@CWnd@@QAEHH@Z ; CWnd::ShowWindow

; 323  : 		GetDlgItem(IDC_BTN_DOWN)->ShowWindow(SW_HIDE);

  0046f	6a 00		 push	 0
  00471	68 95 17 00 00	 push	 6037			; 00001795H

; 324  : 	}

  00476	e9 8c 00 00 00	 jmp	 $LN71@Initial_Co
$LN15@Initial_Co:

; 325  : // (2006.11.03 ) Flow 
; 326  : 
; 327  : 	else
; 328  : 	{
; 329  : // (2006.11.03 ) Flow 
; 330  : 		GetDlgItem(IDC_STATIC_UP)->ShowWindow(SW_SHOW);

  0047b	68 96 17 00 00	 push	 6038			; 00001796H
  00480	e8 00 00 00 00	 call	 ?GetDlgItem@CWnd@@QBEPAV1@H@Z ; CWnd::GetDlgItem
  00485	8b c8		 mov	 ecx, eax
  00487	e8 00 00 00 00	 call	 ?ShowWindow@CWnd@@QAEHH@Z ; CWnd::ShowWindow

; 331  : 		GetDlgItem(IDC_BTN_UP)->ShowWindow(SW_SHOW);

  0048c	6a 05		 push	 5
  0048e	68 94 17 00 00	 push	 6036			; 00001794H
  00493	8b cf		 mov	 ecx, edi
  00495	e8 00 00 00 00	 call	 ?GetDlgItem@CWnd@@QBEPAV1@H@Z ; CWnd::GetDlgItem
  0049a	8b c8		 mov	 ecx, eax
  0049c	e8 00 00 00 00	 call	 ?ShowWindow@CWnd@@QAEHH@Z ; CWnd::ShowWindow

; 332  : 		GetDlgItem(IDC_STATIC_DOWN)->ShowWindow(SW_SHOW);

  004a1	6a 05		 push	 5
  004a3	68 97 17 00 00	 push	 6039			; 00001797H
  004a8	8b cf		 mov	 ecx, edi
  004aa	e8 00 00 00 00	 call	 ?GetDlgItem@CWnd@@QBEPAV1@H@Z ; CWnd::GetDlgItem
  004af	8b c8		 mov	 ecx, eax
  004b1	e8 00 00 00 00	 call	 ?ShowWindow@CWnd@@QAEHH@Z ; CWnd::ShowWindow

; 333  : 		GetDlgItem(IDC_BTN_DOWN)->ShowWindow(SW_SHOW);

  004b6	6a 05		 push	 5
  004b8	68 95 17 00 00	 push	 6037			; 00001795H
  004bd	8b cf		 mov	 ecx, edi
  004bf	e8 00 00 00 00	 call	 ?GetDlgItem@CWnd@@QBEPAV1@H@Z ; CWnd::GetDlgItem
  004c4	8b c8		 mov	 ecx, eax
  004c6	e8 00 00 00 00	 call	 ?ShowWindow@CWnd@@QAEHH@Z ; CWnd::ShowWindow

; 334  : // (2006.11.03 ) Flow 
; 335  : 		//     .
; 336  : 		if( m_nSteadyType == 0 )

  004cb	83 bf a0 06 00
	00 00		 cmp	 DWORD PTR [edi+1696], 0
  004d2	8b cf		 mov	 ecx, edi
  004d4	75 17		 jne	 SHORT $LN17@Initial_Co

; 337  : 		{
; 338  : 			GetDlgItem(IDC_STATIC_STEADY)->ShowWindow(SW_SHOW);

  004d6	6a 05		 push	 5
  004d8	68 f7 17 00 00	 push	 6135			; 000017f7H
  004dd	e8 00 00 00 00	 call	 ?GetDlgItem@CWnd@@QBEPAV1@H@Z ; CWnd::GetDlgItem
  004e2	8b c8		 mov	 ecx, eax
  004e4	e8 00 00 00 00	 call	 ?ShowWindow@CWnd@@QAEHH@Z ; CWnd::ShowWindow

; 339  : 			GetDlgItem(IDC_BTN_STEADY)->ShowWindow(SW_SHOW);

  004e9	6a 05		 push	 5

; 340  : 		}

  004eb	eb 15		 jmp	 SHORT $LN72@Initial_Co
$LN17@Initial_Co:

; 341  : 			
; 342  : 		else
; 343  : 		{
; 344  : 			GetDlgItem(IDC_STATIC_STEADY)->ShowWindow(SW_HIDE);

  004ed	6a 00		 push	 0
  004ef	68 f7 17 00 00	 push	 6135			; 000017f7H
  004f4	e8 00 00 00 00	 call	 ?GetDlgItem@CWnd@@QBEPAV1@H@Z ; CWnd::GetDlgItem
  004f9	8b c8		 mov	 ecx, eax
  004fb	e8 00 00 00 00	 call	 ?ShowWindow@CWnd@@QAEHH@Z ; CWnd::ShowWindow

; 345  : 			GetDlgItem(IDC_BTN_STEADY)->ShowWindow(SW_HIDE);

  00500	6a 00		 push	 0
$LN72@Initial_Co:

; 348  : }

  00502	68 fa 17 00 00	 push	 6138			; 000017faH
$LN71@Initial_Co:
  00507	8b cf		 mov	 ecx, edi
  00509	e8 00 00 00 00	 call	 ?GetDlgItem@CWnd@@QBEPAV1@H@Z ; CWnd::GetDlgItem
$LN70@Initial_Co:
  0050e	8b c8		 mov	 ecx, eax
  00510	e8 00 00 00 00	 call	 ?ShowWindow@CWnd@@QAEHH@Z ; CWnd::ShowWindow
$LN18@Initial_Co:
  00515	8d 4d ec	 lea	 ecx, DWORD PTR _strUp$[ebp]
  00518	ff 15 00 00 00
	00		 call	 DWORD PTR __imp_??1?$CStringT@DV?$StrTraitMFC_DLL@DV?$ChTraitsCRT@D@ATL@@@@@ATL@@QAE@XZ
  0051e	8d 4d f0	 lea	 ecx, DWORD PTR _strColor$[ebp]
  00521	ff 15 00 00 00
	00		 call	 DWORD PTR __imp_??1?$CStringT@DV?$StrTraitMFC_DLL@DV?$ChTraitsCRT@D@ATL@@@@@ATL@@QAE@XZ
; File D:\git\src\IBK\IBK_DRFN\ProjSrc\SrcChartEx\ChartAddIn\ChartEnvSetupDlgAddIn\Include_Chart\Dll_Load\IMetaTable.h

; 1036 : 	{

  00527	c7 45 fc 05 00
	00 00		 mov	 DWORD PTR __$EHRec$[ebp+8], 5
; File C:\Program Files (x86)\Microsoft Visual Studio\2019\Community\VC\Tools\MSVC\14.29.30133\atlmfc\include\afxwin1.inl

; 27   : 	{ ASSERT(hInstResource != NULL); afxCurrentResourceHandle = hInstResource; }

  0052e	e8 00 00 00 00	 call	 ?AfxGetModuleState@@YGPAVAFX_MODULE_STATE@@XZ ; AfxGetModuleState
  00533	89 70 0c	 mov	 DWORD PTR [eax+12], esi
; File D:\git\src\IBK\IBK_DRFN\ProjSrc\SrcChartEx\ChartAddIn\ChartEnvSetupDlgAddIn\ChartEnvSetupDlgAddIn\Setting_Price.cpp

; 348  : }

  00536	8b 4d f4	 mov	 ecx, DWORD PTR __$EHRec$[ebp]
  00539	64 89 0d 00 00
	00 00		 mov	 DWORD PTR fs:0, ecx
  00540	59		 pop	 ecx
  00541	5f		 pop	 edi
  00542	5e		 pop	 esi
  00543	5b		 pop	 ebx
  00544	8b e5		 mov	 esp, ebp
  00546	5d		 pop	 ebp
  00547	c3		 ret	 0
_TEXT	ENDS
;	COMDAT text$x
text$x	SEGMENT
__unwindfunclet$?Initial_ColorButton@CSetting_Price@@IAEXXZ$0:
  00000	8d 4d e0	 lea	 ecx, DWORD PTR ___mlrs__$[ebp]
  00003	e9 00 00 00 00	 jmp	 ??1CMultiLanguageResourceSetter@@QAE@XZ ; CMultiLanguageResourceSetter::~CMultiLanguageResourceSetter
__unwindfunclet$?Initial_ColorButton@CSetting_Price@@IAEXXZ$1:
  00008	8d 4d f0	 lea	 ecx, DWORD PTR _strColor$[ebp]
  0000b	ff 25 00 00 00
	00		 jmp	 DWORD PTR __imp_??1?$CStringT@DV?$StrTraitMFC_DLL@DV?$ChTraitsCRT@D@ATL@@@@@ATL@@QAE@XZ
__unwindfunclet$?Initial_ColorButton@CSetting_Price@@IAEXXZ$2:
  00011	8d 4d ec	 lea	 ecx, DWORD PTR _strUp$[ebp]
  00014	ff 25 00 00 00
	00		 jmp	 DWORD PTR __imp_??1?$CStringT@DV?$StrTraitMFC_DLL@DV?$ChTraitsCRT@D@ATL@@@@@ATL@@QAE@XZ
  0001a	cc		 int	 3
  0001b	cc		 int	 3
  0001c	cc		 int	 3
  0001d	cc		 int	 3
  0001e	cc		 int	 3
__ehhandler$?Initial_ColorButton@CSetting_Price@@IAEXXZ:
  0001f	90		 npad	 1
  00020	90		 npad	 1
  00021	8b 54 24 08	 mov	 edx, DWORD PTR [esp+8]
  00025	8d 42 0c	 lea	 eax, DWORD PTR [edx+12]
  00028	8b 4a dc	 mov	 ecx, DWORD PTR [edx-36]
  0002b	33 c8		 xor	 ecx, eax
  0002d	e8 00 00 00 00	 call	 @__security_check_cookie@4
  00032	b8 00 00 00 00	 mov	 eax, OFFSET __ehfuncinfo$?Initial_ColorButton@CSetting_Price@@IAEXXZ
  00037	e9 00 00 00 00	 jmp	 ___CxxFrameHandler3
text$x	ENDS
?Initial_ColorButton@CSetting_Price@@IAEXXZ ENDP	; CSetting_Price::Initial_ColorButton
; Function compile flags: /Ogtp
; File D:\git\src\IBK\IBK_DRFN\ProjSrc\SrcChartEx\ChartAddIn\ChartEnvSetupDlgAddIn\ChartEnvSetupDlgAddIn\Setting_Price.cpp
;	COMDAT ?ShowHide_SteadyRadio@CSetting_Price@@IAEXH@Z
_TEXT	SEGMENT
_bShow$ = 8						; size = 4
?ShowHide_SteadyRadio@CSetting_Price@@IAEXH@Z PROC	; CSetting_Price::ShowHide_SteadyRadio, COMDAT
; _this$ = ecx

; 928  : {

  00000	55		 push	 ebp
  00001	8b ec		 mov	 ebp, esp
  00003	56		 push	 esi

; 929  : 	GetDlgItem(IDC_STEADY_NORMAL)->EnableWindow(bShow);

  00004	8b 75 08	 mov	 esi, DWORD PTR _bShow$[ebp]
  00007	57		 push	 edi
  00008	56		 push	 esi
  00009	68 33 04 00 00	 push	 1075			; 00000433H
  0000e	8b f9		 mov	 edi, ecx
  00010	e8 00 00 00 00	 call	 ?GetDlgItem@CWnd@@QBEPAV1@H@Z ; CWnd::GetDlgItem
  00015	8b c8		 mov	 ecx, eax
  00017	e8 00 00 00 00	 call	 ?EnableWindow@CWnd@@QAEHH@Z ; CWnd::EnableWindow

; 930  : 	GetDlgItem(IDC_STEADY_BEFORECLOSE)->EnableWindow(bShow);

  0001c	56		 push	 esi
  0001d	68 34 04 00 00	 push	 1076			; 00000434H
  00022	8b cf		 mov	 ecx, edi
  00024	e8 00 00 00 00	 call	 ?GetDlgItem@CWnd@@QBEPAV1@H@Z ; CWnd::GetDlgItem
  00029	8b c8		 mov	 ecx, eax
  0002b	e8 00 00 00 00	 call	 ?EnableWindow@CWnd@@QAEHH@Z ; CWnd::EnableWindow

; 931  : 	GetDlgItem( IDC_STEADY_SAMECLOSE)->EnableWindow(bShow);

  00030	56		 push	 esi
  00031	68 35 04 00 00	 push	 1077			; 00000435H
  00036	8b cf		 mov	 ecx, edi
  00038	e8 00 00 00 00	 call	 ?GetDlgItem@CWnd@@QBEPAV1@H@Z ; CWnd::GetDlgItem
  0003d	8b c8		 mov	 ecx, eax
  0003f	e8 00 00 00 00	 call	 ?EnableWindow@CWnd@@QAEHH@Z ; CWnd::EnableWindow
  00044	5f		 pop	 edi
  00045	5e		 pop	 esi

; 932  : }

  00046	5d		 pop	 ebp
  00047	c2 04 00	 ret	 4
?ShowHide_SteadyRadio@CSetting_Price@@IAEXH@Z ENDP	; CSetting_Price::ShowHide_SteadyRadio
_TEXT	ENDS
; Function compile flags: /Ogtp
; File D:\git\src\IBK\IBK_DRFN\ProjSrc\SrcChartEx\ChartAddIn\ChartEnvSetupDlgAddIn\ChartEnvSetupDlgAddIn\Setting_Price.cpp
;	COMDAT ?ShowHide_FillUpDownNCombo@CSetting_Price@@IAEXH@Z
_TEXT	SEGMENT
$T2 = -24						; size = 4
$T3 = -20						; size = 4
$T4 = -16						; size = 4
__$EHRec$ = -12						; size = 12
_strFill$5 = 8						; size = 4
_nState$ = 8						; size = 4
?ShowHide_FillUpDownNCombo@CSetting_Price@@IAEXH@Z PROC	; CSetting_Price::ShowHide_FillUpDownNCombo, COMDAT
; _this$ = ecx

; 865  : {

  00000	55		 push	 ebp
  00001	8b ec		 mov	 ebp, esp
  00003	6a ff		 push	 -1
  00005	68 00 00 00 00	 push	 __ehhandler$?ShowHide_FillUpDownNCombo@CSetting_Price@@IAEXH@Z
  0000a	64 a1 00 00 00
	00		 mov	 eax, DWORD PTR fs:0
  00010	50		 push	 eax
  00011	83 ec 0c	 sub	 esp, 12			; 0000000cH
  00014	53		 push	 ebx
  00015	56		 push	 esi
  00016	57		 push	 edi
  00017	a1 00 00 00 00	 mov	 eax, DWORD PTR ___security_cookie
  0001c	33 c5		 xor	 eax, ebp
  0001e	50		 push	 eax
  0001f	8d 45 f4	 lea	 eax, DWORD PTR __$EHRec$[ebp]
  00022	64 a3 00 00 00
	00		 mov	 DWORD PTR fs:0, eax
  00028	8b f1		 mov	 esi, ecx

; 866  : 	// (2007/12/17 - Seung-Won, Bae) for Not-Candle Type
; 867  : 	int nSubGraphType = m_pIGraphInfo->GetSubGraphType( 0);

  0002a	8b 8e c4 00 00
	00		 mov	 ecx, DWORD PTR [esi+196]
  00030	6a 00		 push	 0
  00032	8b 01		 mov	 eax, DWORD PTR [ecx]
  00034	ff 50 50	 call	 DWORD PTR [eax+80]
  00037	8b d8		 mov	 ebx, eax

; 868  : 	if( CGraphBaseData::Bong_Type != nSubGraphType)

  00039	85 db		 test	 ebx, ebx
  0003b	0f 84 cb 00 00
	00		 je	 $LN2@ShowHide_F

; 869  : 	{
; 870  : 		int nSubGraphStyle = m_pIGraphInfo->GetSubGraphStyle( 0);

  00041	8b 8e c4 00 00
	00		 mov	 ecx, DWORD PTR [esi+196]
  00047	6a 00		 push	 0
  00049	8b 11		 mov	 edx, DWORD PTR [ecx]
  0004b	ff 52 54	 call	 DWORD PTR [edx+84]

; 871  : 
; 872  : 		//   - ojtaso (20080603)
; 873  : 		if( (CGraphBaseData::Bar_Type == nSubGraphType && CGraphBaseData::UpDownBar == nSubGraphStyle)
; 874  : 		   || (CGraphBaseData::Bar_Type == nSubGraphType && CGraphBaseData::FixedRateUpDownBar == nSubGraphStyle))

  0004e	83 fb 02	 cmp	 ebx, 2
  00051	75 74		 jne	 SHORT $LN7@ShowHide_F
  00053	3b c3		 cmp	 eax, ebx
  00055	74 05		 je	 SHORT $LN5@ShowHide_F
  00057	83 f8 10	 cmp	 eax, 16			; 00000010H
  0005a	75 11		 jne	 SHORT $LN3@ShowHide_F
$LN5@ShowHide_F:

; 875  : 		{
; 876  : 			m_FillUp_Bt.ShowWindow( SW_SHOW);

  0005c	6a 05		 push	 5
  0005e	8d 8e 10 04 00
	00		 lea	 ecx, DWORD PTR [esi+1040]
  00064	e8 00 00 00 00	 call	 ?ShowWindow@CWnd@@QAEHH@Z ; CWnd::ShowWindow

; 877  : 			m_FillDown_Bt.ShowWindow( SW_SHOW);

  00069	6a 05		 push	 5

; 878  : 		}

  0006b	eb 69		 jmp	 SHORT $LN19@ShowHide_F
$LN3@ShowHide_F:

; 879  : 		else if( CGraphBaseData::Bar_Type == nSubGraphType)

  0006d	83 fb 02	 cmp	 ebx, 2
  00070	75 55		 jne	 SHORT $LN7@ShowHide_F

; 880  : 		{
; 881  : 			m_FillUp_Bt.ShowWindow( SW_SHOW);

  00072	6a 05		 push	 5
  00074	8d 8e 10 04 00
	00		 lea	 ecx, DWORD PTR [esi+1040]
  0007a	e8 00 00 00 00	 call	 ?ShowWindow@CWnd@@QAEHH@Z ; CWnd::ShowWindow

; 882  : // 2008.01.25 by LYH >>
; 883  : 			//m_FillUp_Bt.SetWindowText( "");
; 884  : 			CString strFill;

  0007f	8d 4d 08	 lea	 ecx, DWORD PTR _strFill$5[ebp]
  00082	ff 15 00 00 00
	00		 call	 DWORD PTR __imp_??0?$CStringT@DV?$StrTraitMFC_DLL@DV?$ChTraitsCRT@D@ATL@@@@@ATL@@QAE@XZ

; 885  : 			strFill.LoadString(IDS_STRING_FILL);

  00088	6a 2d		 push	 45			; 0000002dH
  0008a	8d 4d 08	 lea	 ecx, DWORD PTR _strFill$5[ebp]
  0008d	c7 45 fc 00 00
	00 00		 mov	 DWORD PTR __$EHRec$[ebp+8], 0
  00094	ff 15 00 00 00
	00		 call	 DWORD PTR __imp_?LoadStringA@?$CStringT@DV?$StrTraitMFC_DLL@DV?$ChTraitsCRT@D@ATL@@@@@ATL@@QAEHI@Z

; 886  : 			m_FillUp_Bt.SetWindowText( strFill);

  0009a	ff 75 08	 push	 DWORD PTR _strFill$5[ebp]
  0009d	8d 8e 10 04 00
	00		 lea	 ecx, DWORD PTR [esi+1040]
  000a3	e8 00 00 00 00	 call	 ?SetWindowTextA@CWnd@@QAEXPBD@Z ; CWnd::SetWindowTextA

; 887  : // 2008.01.25 by LYH <<
; 888  : 			m_FillDown_Bt.ShowWindow( SW_HIDE);

  000a8	6a 00		 push	 0
  000aa	8d 8e 90 03 00
	00		 lea	 ecx, DWORD PTR [esi+912]
  000b0	e8 00 00 00 00	 call	 ?ShowWindow@CWnd@@QAEHH@Z ; CWnd::ShowWindow

; 889  : 		}

  000b5	8d 4d 08	 lea	 ecx, DWORD PTR _strFill$5[ebp]
  000b8	c7 45 fc ff ff
	ff ff		 mov	 DWORD PTR __$EHRec$[ebp+8], -1
  000bf	ff 15 00 00 00
	00		 call	 DWORD PTR __imp_??1?$CStringT@DV?$StrTraitMFC_DLL@DV?$ChTraitsCRT@D@ATL@@@@@ATL@@QAE@XZ
  000c5	eb 1a		 jmp	 SHORT $LN8@ShowHide_F
$LN7@ShowHide_F:

; 890  : 		else
; 891  : 		{
; 892  : 			m_FillUp_Bt.ShowWindow( SW_HIDE);

  000c7	6a 00		 push	 0
  000c9	8d 8e 10 04 00
	00		 lea	 ecx, DWORD PTR [esi+1040]
  000cf	e8 00 00 00 00	 call	 ?ShowWindow@CWnd@@QAEHH@Z ; CWnd::ShowWindow

; 893  : 			m_FillDown_Bt.ShowWindow( SW_HIDE);

  000d4	6a 00		 push	 0
$LN19@ShowHide_F:

; 894  : 		}
; 895  : 
; 896  : 		int nShowWindow = ( CGraphBaseData::Line_Type == nSubGraphType ? SW_SHOW : SW_HIDE);

  000d6	8d 8e 90 03 00
	00		 lea	 ecx, DWORD PTR [esi+912]
  000dc	e8 00 00 00 00	 call	 ?ShowWindow@CWnd@@QAEHH@Z ; CWnd::ShowWindow
$LN8@ShowHide_F:
  000e1	33 ff		 xor	 edi, edi

; 897  : 		m_Thickness_Static.ShowWindow(	nShowWindow);
; 898  : 		m_Thickness_Combo.ShowWindow(	nShowWindow);
; 899  : 		m_DrawStyle_Static.ShowWindow(	nShowWindow);
; 900  : 		m_DrawStyle_Combo.ShowWindow(	nShowWindow);

  000e3	c7 45 e8 18 06
	00 00		 mov	 DWORD PTR $T2[ebp], 1560 ; 00000618H
  000ea	83 fb 01	 cmp	 ebx, 1
  000ed	c7 45 ec 10 03
	00 00		 mov	 DWORD PTR $T3[ebp], 784	; 00000310H
  000f4	b8 05 00 00 00	 mov	 eax, 5
  000f9	c7 45 f0 90 05
	00 00		 mov	 DWORD PTR $T4[ebp], 1424 ; 00000590H
  00100	0f 44 f8	 cmove	 edi, eax
  00103	b8 90 02 00 00	 mov	 eax, 656		; 00000290H
  00108	8b df		 mov	 ebx, edi

; 901  : 
; 902  : 		return;

  0010a	eb 39		 jmp	 SHORT $LN1@ShowHide_F
$LN2@ShowHide_F:

; 903  : 	}
; 904  : 	
; 905  : 	if(nState == 0 || nState == 6 || nState == 7)

  0010c	8b 45 08	 mov	 eax, DWORD PTR _nState$[ebp]
  0010f	85 c0		 test	 eax, eax
  00111	74 0e		 je	 SHORT $LN11@ShowHide_F
  00113	83 f8 06	 cmp	 eax, 6
  00116	74 09		 je	 SHORT $LN11@ShowHide_F
  00118	83 f8 07	 cmp	 eax, 7
  0011b	74 04		 je	 SHORT $LN11@ShowHide_F

; 909  : 	}
; 910  : 	else
; 911  : 	{
; 912  : 		m_FillUp_Bt.ShowWindow(false);
; 913  : 		m_FillDown_Bt.ShowWindow(false);

  0011d	33 db		 xor	 ebx, ebx
  0011f	eb 05		 jmp	 SHORT $LN10@ShowHide_F
$LN11@ShowHide_F:

; 906  : 	{
; 907  : 		m_FillUp_Bt.ShowWindow(true);
; 908  : 		m_FillDown_Bt.ShowWindow(true);

  00121	bb 01 00 00 00	 mov	 ebx, 1
$LN10@ShowHide_F:

; 914  : 	}
; 915  : 
; 916  : 	m_Thickness_Static.ShowWindow(	SW_SHOW);
; 917  : 	m_Thickness_Combo.ShowWindow(	SW_SHOW);

  00126	bf 05 00 00 00	 mov	 edi, 5
  0012b	c7 45 e8 90 05
	00 00		 mov	 DWORD PTR $T2[ebp], 1424 ; 00000590H
  00132	c7 45 ec 90 02
	00 00		 mov	 DWORD PTR $T3[ebp], 656	; 00000290H
  00139	b8 10 04 00 00	 mov	 eax, 1040		; 00000410H
  0013e	c7 45 f0 90 03
	00 00		 mov	 DWORD PTR $T4[ebp], 912	; 00000390H
$LN1@ShowHide_F:

; 918  : }

  00145	53		 push	 ebx
  00146	8d 0c 06	 lea	 ecx, DWORD PTR [esi+eax]
  00149	e8 00 00 00 00	 call	 ?ShowWindow@CWnd@@QAEHH@Z ; CWnd::ShowWindow
  0014e	8b 4d f0	 mov	 ecx, DWORD PTR $T4[ebp]
  00151	53		 push	 ebx
  00152	8d 0c 0e	 lea	 ecx, DWORD PTR [esi+ecx]
  00155	e8 00 00 00 00	 call	 ?ShowWindow@CWnd@@QAEHH@Z ; CWnd::ShowWindow
  0015a	8b 4d ec	 mov	 ecx, DWORD PTR $T3[ebp]
  0015d	57		 push	 edi
  0015e	8d 0c 31	 lea	 ecx, DWORD PTR [ecx+esi]
  00161	e8 00 00 00 00	 call	 ?ShowWindow@CWnd@@QAEHH@Z ; CWnd::ShowWindow
  00166	8b 4d e8	 mov	 ecx, DWORD PTR $T2[ebp]
  00169	57		 push	 edi
  0016a	8d 0c 31	 lea	 ecx, DWORD PTR [ecx+esi]
  0016d	e8 00 00 00 00	 call	 ?ShowWindow@CWnd@@QAEHH@Z ; CWnd::ShowWindow
  00172	8b 4d f4	 mov	 ecx, DWORD PTR __$EHRec$[ebp]
  00175	64 89 0d 00 00
	00 00		 mov	 DWORD PTR fs:0, ecx
  0017c	59		 pop	 ecx
  0017d	5f		 pop	 edi
  0017e	5e		 pop	 esi
  0017f	5b		 pop	 ebx
  00180	8b e5		 mov	 esp, ebp
  00182	5d		 pop	 ebp
  00183	c2 04 00	 ret	 4
_TEXT	ENDS
;	COMDAT text$x
text$x	SEGMENT
__unwindfunclet$?ShowHide_FillUpDownNCombo@CSetting_Price@@IAEXH@Z$0:
  00000	8d 4d 08	 lea	 ecx, DWORD PTR _strFill$5[ebp]
  00003	ff 25 00 00 00
	00		 jmp	 DWORD PTR __imp_??1?$CStringT@DV?$StrTraitMFC_DLL@DV?$ChTraitsCRT@D@ATL@@@@@ATL@@QAE@XZ
  00009	cc		 int	 3
  0000a	cc		 int	 3
  0000b	cc		 int	 3
  0000c	cc		 int	 3
  0000d	cc		 int	 3
__ehhandler$?ShowHide_FillUpDownNCombo@CSetting_Price@@IAEXH@Z:
  0000e	90		 npad	 1
  0000f	90		 npad	 1
  00010	8b 54 24 08	 mov	 edx, DWORD PTR [esp+8]
  00014	8d 42 0c	 lea	 eax, DWORD PTR [edx+12]
  00017	8b 4a e4	 mov	 ecx, DWORD PTR [edx-28]
  0001a	33 c8		 xor	 ecx, eax
  0001c	e8 00 00 00 00	 call	 @__security_check_cookie@4
  00021	b8 00 00 00 00	 mov	 eax, OFFSET __ehfuncinfo$?ShowHide_FillUpDownNCombo@CSetting_Price@@IAEXH@Z
  00026	e9 00 00 00 00	 jmp	 ___CxxFrameHandler3
text$x	ENDS
?ShowHide_FillUpDownNCombo@CSetting_Price@@IAEXH@Z ENDP	; CSetting_Price::ShowHide_FillUpDownNCombo
; Function compile flags: /Ogtp
; File D:\git\src\IBK\IBK_DRFN\ProjSrc\SrcChartEx\ChartAddIn\ChartEnvSetupDlgAddIn\ChartEnvSetupDlgAddIn\Setting_Price.cpp
;	COMDAT ?OnApply_ColorButton@CSetting_Price@@IAEXXZ
_TEXT	SEGMENT
_dSteadyType$1 = -8					; size = 8
?OnApply_ColorButton@CSetting_Price@@IAEXXZ PROC	; CSetting_Price::OnApply_ColorButton, COMDAT
; _this$ = ecx

; 429  : {

  00000	55		 push	 ebp
  00001	8b ec		 mov	 ebp, esp
  00003	83 ec 08	 sub	 esp, 8
  00006	56		 push	 esi
  00007	57		 push	 edi
  00008	8b f9		 mov	 edi, ecx

; 430  : 	COLORREF crColor = m_btnUp.GetColor();

  0000a	8d 8f 08 02 00
	00		 lea	 ecx, DWORD PTR [edi+520]
  00010	e8 00 00 00 00	 call	 ?GetColor@CColorButton@@QAEKXZ ; CColorButton::GetColor

; 431  : 	m_pIGraphInfo->SetSubGraphColor( 0, 1, crColor);

  00015	8b 8f c4 00 00
	00		 mov	 ecx, DWORD PTR [edi+196]
  0001b	8b f0		 mov	 esi, eax
  0001d	56		 push	 esi
  0001e	6a 01		 push	 1
  00020	6a 00		 push	 0
  00022	8b 11		 mov	 edx, DWORD PTR [ecx]
  00024	ff 52 6c	 call	 DWORD PTR [edx+108]

; 432  : 	m_pIGraphInfo->SetSubGraphColor( 0, 2, crColor);

  00027	8b 8f c4 00 00
	00		 mov	 ecx, DWORD PTR [edi+196]
  0002d	56		 push	 esi
  0002e	6a 02		 push	 2
  00030	6a 00		 push	 0
  00032	8b 01		 mov	 eax, DWORD PTR [ecx]
  00034	ff 50 6c	 call	 DWORD PTR [eax+108]

; 433  : 
; 434  : 	crColor = m_btnDown.GetColor();

  00037	8d 8f f8 00 00
	00		 lea	 ecx, DWORD PTR [edi+248]
  0003d	e8 00 00 00 00	 call	 ?GetColor@CColorButton@@QAEKXZ ; CColorButton::GetColor

; 435  : 	m_pIGraphInfo->SetSubGraphColor( 0, 3, crColor);

  00042	8b 8f c4 00 00
	00		 mov	 ecx, DWORD PTR [edi+196]
  00048	8b f0		 mov	 esi, eax
  0004a	56		 push	 esi
  0004b	6a 03		 push	 3
  0004d	6a 00		 push	 0
  0004f	8b 11		 mov	 edx, DWORD PTR [ecx]
  00051	ff 52 6c	 call	 DWORD PTR [edx+108]

; 436  : 	m_pIGraphInfo->SetSubGraphColor( 0, 4, crColor);

  00054	8b 8f c4 00 00
	00		 mov	 ecx, DWORD PTR [edi+196]
  0005a	56		 push	 esi
  0005b	6a 04		 push	 4
  0005d	6a 00		 push	 0
  0005f	8b 01		 mov	 eax, DWORD PTR [ecx]
  00061	ff 50 6c	 call	 DWORD PTR [eax+108]

; 437  : 
; 438  : 	if( m_pIGraphInfo->GetSubGraphStyle( 0) != 2 && m_pIGraphInfo->GetSubGraphStyle( 0) != 5)

  00064	8b 8f c4 00 00
	00		 mov	 ecx, DWORD PTR [edi+196]
  0006a	6a 00		 push	 0
  0006c	8b 01		 mov	 eax, DWORD PTR [ecx]
  0006e	ff 50 54	 call	 DWORD PTR [eax+84]
  00071	83 f8 02	 cmp	 eax, 2
  00074	0f 84 83 00 00
	00		 je	 $LN5@OnApply_Co
  0007a	8b 8f c4 00 00
	00		 mov	 ecx, DWORD PTR [edi+196]
  00080	6a 00		 push	 0
  00082	8b 01		 mov	 eax, DWORD PTR [ecx]
  00084	ff 50 54	 call	 DWORD PTR [eax+84]
  00087	83 f8 05	 cmp	 eax, 5
  0008a	74 71		 je	 SHORT $LN5@OnApply_Co

; 439  : 	{
; 440  : 		IDoubleList *pIDrawCondition = m_pIGraphInfo->GetDrawConditionList();

  0008c	8b 8f c4 00 00
	00		 mov	 ecx, DWORD PTR [edi+196]
  00092	8b 01		 mov	 eax, DWORD PTR [ecx]
  00094	ff 50 14	 call	 DWORD PTR [eax+20]
  00097	8b f0		 mov	 esi, eax

; 441  : 		if( pIDrawCondition)

  00099	85 f6		 test	 esi, esi
  0009b	74 60		 je	 SHORT $LN5@OnApply_Co

; 442  : 		{
; 443  : 			double dSteadyType = -1;
; 444  : 			if( 0 < pIDrawCondition->GetCount()) pIDrawCondition->GetHead( dSteadyType);

  0009d	8b 16		 mov	 edx, DWORD PTR [esi]
  0009f	8b ce		 mov	 ecx, esi
  000a1	f2 0f 10 05 00
	00 00 00	 movsd	 xmm0, QWORD PTR __real@bff0000000000000
  000a9	f2 0f 11 45 f8	 movsd	 QWORD PTR _dSteadyType$1[ebp], xmm0
  000ae	ff 52 10	 call	 DWORD PTR [edx+16]
  000b1	85 c0		 test	 eax, eax
  000b3	7e 0b		 jle	 SHORT $LN4@OnApply_Co
  000b5	8b 06		 mov	 eax, DWORD PTR [esi]
  000b7	8d 4d f8	 lea	 ecx, DWORD PTR _dSteadyType$1[ebp]
  000ba	51		 push	 ecx
  000bb	8b ce		 mov	 ecx, esi
  000bd	ff 50 18	 call	 DWORD PTR [eax+24]
$LN4@OnApply_Co:

; 445  : 			pIDrawCondition->Release();

  000c0	8b 06		 mov	 eax, DWORD PTR [esi]
  000c2	56		 push	 esi
  000c3	ff 50 08	 call	 DWORD PTR [eax+8]

; 446  : 			if( ( int)dSteadyType == 1)		// 1:General, 2:BasePrice, 3:Same Close.

  000c6	f2 0f 2c 45 f8	 cvttsd2si eax, QWORD PTR _dSteadyType$1[ebp]
  000cb	83 f8 01	 cmp	 eax, 1
  000ce	75 2d		 jne	 SHORT $LN5@OnApply_Co

; 447  : 			{
; 448  : 				crColor = m_btnSteady.GetColor();

  000d0	8d 8f 80 01 00
	00		 lea	 ecx, DWORD PTR [edi+384]
  000d6	e8 00 00 00 00	 call	 ?GetColor@CColorButton@@QAEKXZ ; CColorButton::GetColor

; 449  : 				m_pIGraphInfo->SetSubGraphColor( 0, 5, crColor);

  000db	8b 8f c4 00 00
	00		 mov	 ecx, DWORD PTR [edi+196]
  000e1	8b f0		 mov	 esi, eax
  000e3	56		 push	 esi
  000e4	6a 05		 push	 5
  000e6	6a 00		 push	 0
  000e8	8b 11		 mov	 edx, DWORD PTR [ecx]
  000ea	ff 52 6c	 call	 DWORD PTR [edx+108]

; 450  : 				m_pIGraphInfo->SetSubGraphColor( 0, 6, crColor);

  000ed	8b 8f c4 00 00
	00		 mov	 ecx, DWORD PTR [edi+196]
  000f3	56		 push	 esi
  000f4	6a 06		 push	 6
  000f6	6a 00		 push	 0
  000f8	8b 01		 mov	 eax, DWORD PTR [ecx]
  000fa	ff 50 6c	 call	 DWORD PTR [eax+108]
$LN5@OnApply_Co:

; 451  : 			}
; 452  : 		}
; 453  : 	}
; 454  : // (2006.11.03 ) Flow 
; 455  : 	if( m_pIGraphInfo->GetSubGraphStyle( 0) == 5 )

  000fd	8b 8f c4 00 00
	00		 mov	 ecx, DWORD PTR [edi+196]
  00103	6a 00		 push	 0
  00105	8b 01		 mov	 eax, DWORD PTR [ecx]
  00107	ff 50 54	 call	 DWORD PTR [eax+84]
  0010a	83 f8 05	 cmp	 eax, 5
  0010d	75 2d		 jne	 SHORT $LN6@OnApply_Co

; 456  : 	{
; 457  : 		crColor = m_btnSteady.GetColor();

  0010f	8d 8f 80 01 00
	00		 lea	 ecx, DWORD PTR [edi+384]
  00115	e8 00 00 00 00	 call	 ?GetColor@CColorButton@@QAEKXZ ; CColorButton::GetColor

; 458  : 		m_pIGraphInfo->SetSubGraphColor( 0, 5, crColor);

  0011a	8b 8f c4 00 00
	00		 mov	 ecx, DWORD PTR [edi+196]
  00120	8b f0		 mov	 esi, eax
  00122	56		 push	 esi
  00123	6a 05		 push	 5
  00125	6a 00		 push	 0
  00127	8b 11		 mov	 edx, DWORD PTR [ecx]
  00129	ff 52 6c	 call	 DWORD PTR [edx+108]

; 459  : 		m_pIGraphInfo->SetSubGraphColor( 0, 6, crColor);

  0012c	8b 8f c4 00 00
	00		 mov	 ecx, DWORD PTR [edi+196]
  00132	56		 push	 esi
  00133	6a 06		 push	 6
  00135	6a 00		 push	 0
  00137	8b 01		 mov	 eax, DWORD PTR [ecx]
  00139	ff 50 6c	 call	 DWORD PTR [eax+108]
$LN6@OnApply_Co:

; 460  : 	}
; 461  : // (2006.11.03 ) Flow 
; 462  : }

  0013c	5f		 pop	 edi
  0013d	5e		 pop	 esi
  0013e	8b e5		 mov	 esp, ebp
  00140	5d		 pop	 ebp
  00141	c3		 ret	 0
?OnApply_ColorButton@CSetting_Price@@IAEXXZ ENDP	; CSetting_Price::OnApply_ColorButton
_TEXT	ENDS
; Function compile flags: /Ogtp
; File D:\git\src\IBK\IBK_DRFN\ProjSrc\SrcChartEx\ChartAddIn\ChartEnvSetupDlgAddIn\ChartEnvSetupDlgAddIn\Setting_Price.cpp
; File C:\Program Files (x86)\Microsoft Visual Studio\2019\Community\VC\Tools\MSVC\14.29.30133\atlmfc\include\afxwin2.inl
; File D:\git\src\IBK\IBK_DRFN\ProjSrc\SrcChartEx\ChartAddIn\ChartEnvSetupDlgAddIn\ChartEnvSetupDlgAddIn\Setting_Price.cpp
; File C:\Program Files (x86)\Microsoft Visual Studio\2019\Community\VC\Tools\MSVC\14.29.30133\atlmfc\include\afxwin2.inl
; File D:\git\src\IBK\IBK_DRFN\ProjSrc\SrcChartEx\ChartAddIn\ChartEnvSetupDlgAddIn\ChartEnvSetupDlgAddIn\Setting_Price.cpp
; File C:\Program Files (x86)\Microsoft Visual Studio\2019\Community\VC\Tools\MSVC\14.29.30133\atlmfc\include\afxwin2.inl
; File D:\git\src\IBK\IBK_DRFN\ProjSrc\SrcChartEx\ChartAddIn\ChartEnvSetupDlgAddIn\ChartEnvSetupDlgAddIn\Setting_Price.cpp
; File C:\Program Files (x86)\Microsoft Visual Studio\2019\Community\VC\Tools\MSVC\14.29.30133\atlmfc\include\afxwin2.inl
; File D:\git\src\IBK\IBK_DRFN\ProjSrc\SrcChartEx\ChartAddIn\ChartEnvSetupDlgAddIn\ChartEnvSetupDlgAddIn\Setting_Price.cpp
; File C:\Program Files (x86)\Microsoft Visual Studio\2019\Community\VC\Tools\MSVC\14.29.30133\atlmfc\include\afxwin2.inl
; File D:\git\src\IBK\IBK_DRFN\ProjSrc\SrcChartEx\ChartAddIn\ChartEnvSetupDlgAddIn\ChartEnvSetupDlgAddIn\Setting_Price.cpp
; File D:\git\src\IBK\IBK_DRFN\ProjSrc\SrcChartEx\ChartAddIn\ChartEnvSetupDlgAddIn\Include_AddIn_135914\I135914\_IString.h
; File D:\git\src\IBK\IBK_DRFN\ProjSrc\SrcChartEx\ChartAddIn\ChartEnvSetupDlgAddIn\ChartEnvSetupDlgAddIn\Setting_Price.cpp
; File C:\Program Files (x86)\Microsoft Visual Studio\2019\Community\VC\Tools\MSVC\14.29.30133\atlmfc\include\afxwin2.inl
; File D:\git\src\IBK\IBK_DRFN\ProjSrc\SrcChartEx\ChartAddIn\ChartEnvSetupDlgAddIn\ChartEnvSetupDlgAddIn\Setting_Price.cpp
; File C:\Program Files (x86)\Microsoft Visual Studio\2019\Community\VC\Tools\MSVC\14.29.30133\atlmfc\include\afxwin2.inl
; File D:\git\src\IBK\IBK_DRFN\ProjSrc\SrcChartEx\ChartAddIn\ChartEnvSetupDlgAddIn\ChartEnvSetupDlgAddIn\Setting_Price.cpp
; File C:\Program Files (x86)\Microsoft Visual Studio\2019\Community\VC\Tools\MSVC\14.29.30133\atlmfc\include\afxwin2.inl
; File D:\git\src\IBK\IBK_DRFN\ProjSrc\SrcChartEx\ChartAddIn\ChartEnvSetupDlgAddIn\ChartEnvSetupDlgAddIn\Setting_Price.cpp
; File C:\Program Files (x86)\Microsoft Visual Studio\2019\Community\VC\Tools\MSVC\14.29.30133\atlmfc\include\afxwin2.inl
; File D:\git\src\IBK\IBK_DRFN\ProjSrc\SrcChartEx\ChartAddIn\ChartEnvSetupDlgAddIn\ChartEnvSetupDlgAddIn\Setting_Price.cpp
; File C:\Program Files (x86)\Microsoft Visual Studio\2019\Community\VC\Tools\MSVC\14.29.30133\atlmfc\include\afxwin2.inl
; File D:\git\src\IBK\IBK_DRFN\ProjSrc\SrcChartEx\ChartAddIn\ChartEnvSetupDlgAddIn\ChartEnvSetupDlgAddIn\Setting_Price.cpp
; File C:\Program Files (x86)\Microsoft Visual Studio\2019\Community\VC\Tools\MSVC\14.29.30133\atlmfc\include\afxwin2.inl
; File D:\git\src\IBK\IBK_DRFN\ProjSrc\SrcChartEx\ChartAddIn\ChartEnvSetupDlgAddIn\ChartEnvSetupDlgAddIn\Setting_Price.cpp
; File C:\Program Files (x86)\Microsoft Visual Studio\2019\Community\VC\Tools\MSVC\14.29.30133\atlmfc\include\afxwin2.inl
; File D:\git\src\IBK\IBK_DRFN\ProjSrc\SrcChartEx\ChartAddIn\ChartEnvSetupDlgAddIn\ChartEnvSetupDlgAddIn\Setting_Price.cpp
; File D:\git\src\IBK\IBK_DRFN\ProjSrc\SrcChartEx\ChartAddIn\ChartEnvSetupDlgAddIn\Include_AddIn_135914\I135914\_IString.h
; File D:\git\src\IBK\IBK_DRFN\ProjSrc\SrcChartEx\ChartAddIn\ChartEnvSetupDlgAddIn\ChartEnvSetupDlgAddIn\Setting_Price.cpp
;	COMDAT ?OnApply@CSetting_Price@@MAEHPAUIGraphInfo135914@@@Z
_TEXT	SEGMENT
_szGraphName$2 = -36					; size = 8
_nG$3 = -28						; size = 4
_nV$4 = -24						; size = 4
_nR$5 = -20						; size = 4
_this$1$ = -16						; size = 4
_nC$6 = -16						; size = 4
__$EHRec$ = -12						; size = 12
_p_pIGraphInfo$ = 8					; size = 4
?OnApply@CSetting_Price@@MAEHPAUIGraphInfo135914@@@Z PROC ; CSetting_Price::OnApply, COMDAT
; _this$ = ecx

; 361  : {

  00000	55		 push	 ebp
  00001	8b ec		 mov	 ebp, esp
  00003	6a ff		 push	 -1
  00005	68 00 00 00 00	 push	 __ehhandler$?OnApply@CSetting_Price@@MAEHPAUIGraphInfo135914@@@Z
  0000a	64 a1 00 00 00
	00		 mov	 eax, DWORD PTR fs:0
  00010	50		 push	 eax
  00011	83 ec 18	 sub	 esp, 24			; 00000018H
  00014	53		 push	 ebx
  00015	56		 push	 esi
  00016	57		 push	 edi
  00017	a1 00 00 00 00	 mov	 eax, DWORD PTR ___security_cookie
  0001c	33 c5		 xor	 eax, ebp
  0001e	50		 push	 eax
  0001f	8d 45 f4	 lea	 eax, DWORD PTR __$EHRec$[ebp]
  00022	64 a3 00 00 00
	00		 mov	 DWORD PTR fs:0, eax
  00028	8b d9		 mov	 ebx, ecx
  0002a	89 5d f0	 mov	 DWORD PTR _this$1$[ebp], ebx

; 362  : 	if(p_pIGraphInfo == NULL)

  0002d	83 7d 08 00	 cmp	 DWORD PTR _p_pIGraphInfo$[ebp], 0
  00031	75 16		 jne	 SHORT $LN2@OnApply

; 363  : 		return FALSE;

  00033	33 c0		 xor	 eax, eax

; 418  : }

  00035	8b 4d f4	 mov	 ecx, DWORD PTR __$EHRec$[ebp]
  00038	64 89 0d 00 00
	00 00		 mov	 DWORD PTR fs:0, ecx
  0003f	59		 pop	 ecx
  00040	5f		 pop	 edi
  00041	5e		 pop	 esi
  00042	5b		 pop	 ebx
  00043	8b e5		 mov	 esp, ebp
  00045	5d		 pop	 ebp
  00046	c2 04 00	 ret	 4
$LN2@OnApply:

; 364  : 
; 365  : 	UpdateData(TRUE);

  00049	6a 01		 push	 1
  0004b	e8 00 00 00 00	 call	 ?UpdateData@CWnd@@QAEHH@Z ; CWnd::UpdateData

; 366  : 
; 367  : 	// draw condition
; 368  : 	IDoubleList *pIDrawCondition = m_pIGraphInfo->GetDrawConditionList();

  00050	8b 8b c4 00 00
	00		 mov	 ecx, DWORD PTR [ebx+196]
  00056	8b 01		 mov	 eax, DWORD PTR [ecx]
  00058	ff 50 14	 call	 DWORD PTR [eax+20]
  0005b	8b f0		 mov	 esi, eax

; 369  : 	if( pIDrawCondition)

  0005d	85 f6		 test	 esi, esi
  0005f	74 30		 je	 SHORT $LN3@OnApply

; 370  : 	{
; 371  : 		POSITION psnCondition = pIDrawCondition->GetHeadPosition();

  00061	8b 16		 mov	 edx, DWORD PTR [esi]
  00063	8b ce		 mov	 ecx, esi
  00065	ff 52 34	 call	 DWORD PTR [edx+52]

; 372  : 		if( psnCondition) pIDrawCondition->SetAt( psnCondition, m_nSteadyType + 1);

  00068	85 c0		 test	 eax, eax
  0006a	74 1f		 je	 SHORT $LN4@OnApply
  0006c	8b 8b a0 06 00
	00		 mov	 ecx, DWORD PTR [ebx+1696]
  00072	83 ec 08	 sub	 esp, 8
  00075	8b 16		 mov	 edx, DWORD PTR [esi]
  00077	41		 inc	 ecx
  00078	66 0f 6e c1	 movd	 xmm0, ecx
  0007c	8b ce		 mov	 ecx, esi
  0007e	f3 0f e6 c0	 cvtdq2pd xmm0, xmm0
  00082	f2 0f 11 04 24	 movsd	 QWORD PTR [esp], xmm0
  00087	50		 push	 eax
  00088	ff 52 48	 call	 DWORD PTR [edx+72]
$LN4@OnApply:

; 373  : 		pIDrawCondition->Release();

  0008b	8b 06		 mov	 eax, DWORD PTR [esi]
  0008d	56		 push	 esi
  0008e	ff 50 08	 call	 DWORD PTR [eax+8]
$LN3@OnApply:

; 374  : 	}
; 375  : 
; 376  : 	OnApply_ColorButton();

  00091	8b cb		 mov	 ecx, ebx
  00093	e8 00 00 00 00	 call	 ?OnApply_ColorButton@CSetting_Price@@IAEXXZ ; CSetting_Price::OnApply_ColorButton

; 377  : 	
; 378  : 	// , 
; 379  : 	OnApply_FillUp( 0, m_FillUp_Bt);

  00098	8d 83 10 04 00
	00		 lea	 eax, DWORD PTR [ebx+1040]
  0009e	8b cb		 mov	 ecx, ebx
  000a0	50		 push	 eax
  000a1	6a 00		 push	 0
  000a3	e8 00 00 00 00	 call	 ?OnApply_FillUp@CBaseDialog@@IAEXHAAVCButton@@@Z ; CBaseDialog::OnApply_FillUp

; 380  : 	OnApply_FillDown( 0, m_FillDown_Bt);

  000a8	8d 83 90 03 00
	00		 lea	 eax, DWORD PTR [ebx+912]
  000ae	8b cb		 mov	 ecx, ebx
  000b0	50		 push	 eax
  000b1	6a 00		 push	 0
  000b3	e8 00 00 00 00	 call	 ?OnApply_FillDown@CBaseDialog@@IAEXHAAVCButton@@@Z ; CBaseDialog::OnApply_FillDown

; 381  : 
; 382  : 	//    
; 383  : 	OnApply_DrawStyle( 0, m_DrawStyle_Combo);

  000b8	8d 83 18 06 00
	00		 lea	 eax, DWORD PTR [ebx+1560]
  000be	8b cb		 mov	 ecx, ebx
  000c0	50		 push	 eax
  000c1	6a 00		 push	 0
  000c3	e8 00 00 00 00	 call	 ?OnApply_DrawStyle@CBaseDialog@@IAEXHAAVCBitmapItemComboBox@@@Z ; CBaseDialog::OnApply_DrawStyle

; 384  : 	OnApply_Thickness( 0, m_Thickness_Combo);

  000c8	8d 83 90 05 00
	00		 lea	 eax, DWORD PTR [ebx+1424]
  000ce	8b cb		 mov	 ecx, ebx
  000d0	50		 push	 eax
  000d1	6a 00		 push	 0
  000d3	e8 00 00 00 00	 call	 ?OnApply_Thickness@CBaseDialog@@IAEXHAAVCBitmapItemComboBox@@@Z ; CBaseDialog::OnApply_Thickness
; File C:\Program Files (x86)\Microsoft Visual Studio\2019\Community\VC\Tools\MSVC\14.29.30133\atlmfc\include\afxwin2.inl

; 213  : 	{ ASSERT(::IsWindow(m_hWnd)); return CWnd::FromHandle(::GetParent(m_hWnd)); }

  000d8	ff 73 20	 push	 DWORD PTR [ebx+32]
  000db	8b 35 00 00 00
	00		 mov	 esi, DWORD PTR __imp__GetParent@4
  000e1	ff d6		 call	 esi
  000e3	50		 push	 eax
  000e4	e8 00 00 00 00	 call	 ?FromHandle@CWnd@@SGPAV1@PAUHWND__@@@Z ; CWnd::FromHandle
; File D:\git\src\IBK\IBK_DRFN\ProjSrc\SrcChartEx\ChartAddIn\ChartEnvSetupDlgAddIn\ChartEnvSetupDlgAddIn\Setting_Price.cpp

; 386  : 	if( !strcmp( GetParent()->GetRuntimeClass()->m_lpszClassName, "CGraphSetting"))

  000e9	8b c8		 mov	 ecx, eax
  000eb	8b 10		 mov	 edx, DWORD PTR [eax]
  000ed	ff 12		 call	 DWORD PTR [edx]
  000ef	b9 00 00 00 00	 mov	 ecx, OFFSET ??_C@_0O@CLKGAOCK@CGraphSetting@
  000f4	8b 00		 mov	 eax, DWORD PTR [eax]
$LL42@OnApply:
  000f6	8a 10		 mov	 dl, BYTE PTR [eax]
  000f8	3a 11		 cmp	 dl, BYTE PTR [ecx]
  000fa	75 1a		 jne	 SHORT $LN43@OnApply
  000fc	84 d2		 test	 dl, dl
  000fe	74 12		 je	 SHORT $LN44@OnApply
  00100	8a 50 01	 mov	 dl, BYTE PTR [eax+1]
  00103	3a 51 01	 cmp	 dl, BYTE PTR [ecx+1]
  00106	75 0e		 jne	 SHORT $LN43@OnApply
  00108	83 c0 02	 add	 eax, 2
  0010b	83 c1 02	 add	 ecx, 2
  0010e	84 d2		 test	 dl, dl
  00110	75 e4		 jne	 SHORT $LL42@OnApply
$LN44@OnApply:
  00112	33 c0		 xor	 eax, eax
  00114	eb 05		 jmp	 SHORT $LN45@OnApply
$LN43@OnApply:
  00116	1b c0		 sbb	 eax, eax
  00118	83 c8 01	 or	 eax, 1
$LN45@OnApply:
  0011b	85 c0		 test	 eax, eax
  0011d	75 7d		 jne	 SHORT $LN5@OnApply
; File C:\Program Files (x86)\Microsoft Visual Studio\2019\Community\VC\Tools\MSVC\14.29.30133\atlmfc\include\afxwin2.inl

; 628  : 	{ ASSERT(::IsWindow(m_hWnd)); return (int)::SendMessage(m_hWnd, BM_GETCHECK, 0, 0); }

  0011f	50		 push	 eax
  00120	50		 push	 eax
  00121	68 f0 00 00 00	 push	 240			; 000000f0H
  00126	ff b3 30 05 00
	00		 push	 DWORD PTR [ebx+1328]
  0012c	8b 1d 00 00 00
	00		 mov	 ebx, DWORD PTR __imp__SendMessageA@16
  00132	ff d3		 call	 ebx
  00134	8b f8		 mov	 edi, eax

; 213  : 	{ ASSERT(::IsWindow(m_hWnd)); return CWnd::FromHandle(::GetParent(m_hWnd)); }

  00136	8b 45 f0	 mov	 eax, DWORD PTR _this$1$[ebp]
  00139	ff 70 20	 push	 DWORD PTR [eax+32]
  0013c	ff d6		 call	 esi
  0013e	50		 push	 eax
  0013f	e8 00 00 00 00	 call	 ?FromHandle@CWnd@@SGPAV1@PAUHWND__@@@Z ; CWnd::FromHandle
; File D:\git\src\IBK\IBK_DRFN\ProjSrc\SrcChartEx\ChartAddIn\ChartEnvSetupDlgAddIn\ChartEnvSetupDlgAddIn\Setting_Price.cpp

; 389  : 		((CGraphSetting*)GetParent())->SetLogState(itob(m_Log_Bt.GetCheck()));

  00144	57		 push	 edi
  00145	8b 7d f0	 mov	 edi, DWORD PTR _this$1$[ebp]
; File C:\Program Files (x86)\Microsoft Visual Studio\2019\Community\VC\Tools\MSVC\14.29.30133\atlmfc\include\afxwin2.inl

; 213  : 	{ ASSERT(::IsWindow(m_hWnd)); return CWnd::FromHandle(::GetParent(m_hWnd)); }

  00148	8b f0		 mov	 esi, eax
; File D:\git\src\IBK\IBK_DRFN\ProjSrc\SrcChartEx\ChartAddIn\ChartEnvSetupDlgAddIn\ChartEnvSetupDlgAddIn\Setting_Price.cpp

; 389  : 		((CGraphSetting*)GetParent())->SetLogState(itob(m_Log_Bt.GetCheck()));

  0014a	8b cf		 mov	 ecx, edi
  0014c	e8 00 00 00 00	 call	 ?itob@CBaseDialog@@IAE_NH@Z ; CBaseDialog::itob
  00151	0f b6 c8	 movzx	 ecx, al
  00154	51		 push	 ecx
  00155	8b ce		 mov	 ecx, esi
  00157	e8 00 00 00 00	 call	 ?SetLogState@CGraphSetting@@QAEXH@Z ; CGraphSetting::SetLogState
; File C:\Program Files (x86)\Microsoft Visual Studio\2019\Community\VC\Tools\MSVC\14.29.30133\atlmfc\include\afxwin2.inl

; 628  : 	{ ASSERT(::IsWindow(m_hWnd)); return (int)::SendMessage(m_hWnd, BM_GETCHECK, 0, 0); }

  0015c	6a 00		 push	 0
  0015e	6a 00		 push	 0
  00160	68 f0 00 00 00	 push	 240			; 000000f0H
  00165	ff b7 b0 04 00
	00		 push	 DWORD PTR [edi+1200]
  0016b	ff d3		 call	 ebx

; 213  : 	{ ASSERT(::IsWindow(m_hWnd)); return CWnd::FromHandle(::GetParent(m_hWnd)); }

  0016d	8b 5d f0	 mov	 ebx, DWORD PTR _this$1$[ebp]

; 628  : 	{ ASSERT(::IsWindow(m_hWnd)); return (int)::SendMessage(m_hWnd, BM_GETCHECK, 0, 0); }

  00170	8b f8		 mov	 edi, eax

; 213  : 	{ ASSERT(::IsWindow(m_hWnd)); return CWnd::FromHandle(::GetParent(m_hWnd)); }

  00172	a1 00 00 00 00	 mov	 eax, DWORD PTR __imp__GetParent@4
  00177	ff 73 20	 push	 DWORD PTR [ebx+32]
  0017a	ff d0		 call	 eax
  0017c	50		 push	 eax
  0017d	e8 00 00 00 00	 call	 ?FromHandle@CWnd@@SGPAV1@PAUHWND__@@@Z ; CWnd::FromHandle
; File D:\git\src\IBK\IBK_DRFN\ProjSrc\SrcChartEx\ChartAddIn\ChartEnvSetupDlgAddIn\ChartEnvSetupDlgAddIn\Setting_Price.cpp

; 390  : 		((CGraphSetting*)GetParent())->SetInvertScaleType(itob(m_InvertChart_Bt.GetCheck()));

  00182	57		 push	 edi
  00183	8b cb		 mov	 ecx, ebx
; File C:\Program Files (x86)\Microsoft Visual Studio\2019\Community\VC\Tools\MSVC\14.29.30133\atlmfc\include\afxwin2.inl

; 213  : 	{ ASSERT(::IsWindow(m_hWnd)); return CWnd::FromHandle(::GetParent(m_hWnd)); }

  00185	8b f0		 mov	 esi, eax
; File D:\git\src\IBK\IBK_DRFN\ProjSrc\SrcChartEx\ChartAddIn\ChartEnvSetupDlgAddIn\ChartEnvSetupDlgAddIn\Setting_Price.cpp

; 390  : 		((CGraphSetting*)GetParent())->SetInvertScaleType(itob(m_InvertChart_Bt.GetCheck()));

  00187	e8 00 00 00 00	 call	 ?itob@CBaseDialog@@IAE_NH@Z ; CBaseDialog::itob
  0018c	0f b6 c8	 movzx	 ecx, al
  0018f	51		 push	 ecx
  00190	8b ce		 mov	 ecx, esi
  00192	e8 00 00 00 00	 call	 ?SetInvertScaleType@CGraphSetting@@QAEXH@Z ; CGraphSetting::SetInvertScaleType

; 391  : 	}

  00197	e9 5d 01 00 00	 jmp	 $LN40@OnApply
$LN5@OnApply:

; 394  : 		ILPCSTR szGraphName = m_pIGraphInfo->GetGraphNameString();

  0019c	8b 8b c4 00 00
	00		 mov	 ecx, DWORD PTR [ebx+196]
  001a2	8b 01		 mov	 eax, DWORD PTR [ecx]
  001a4	ff 90 a0 00 00
	00		 call	 DWORD PTR [eax+160]
; File D:\git\src\IBK\IBK_DRFN\ProjSrc\SrcChartEx\ChartAddIn\ChartEnvSetupDlgAddIn\Include_AddIn_135914\I135914\_IString.h

; 39   : 		m_pIStrData = p_pIString;	// Do not AddRef(). Because It must be Return Value.

  001aa	8b f0		 mov	 esi, eax
  001ac	89 75 e0	 mov	 DWORD PTR _szGraphName$2[ebp+4], esi

; 40   : 		if( m_pIStrData) m_szData = m_pIStrData->GetData();

  001af	85 f6		 test	 esi, esi
  001b1	74 0b		 je	 SHORT $LN23@OnApply
  001b3	8b 16		 mov	 edx, DWORD PTR [esi]
  001b5	8b ce		 mov	 ecx, esi
  001b7	ff 52 10	 call	 DWORD PTR [edx+16]
  001ba	8b d0		 mov	 edx, eax
  001bc	eb 02		 jmp	 SHORT $LN48@OnApply
$LN23@OnApply:

; 41   : 		else m_szData = NULL;

  001be	33 d2		 xor	 edx, edx
$LN48@OnApply:
; File D:\git\src\IBK\IBK_DRFN\ProjSrc\SrcChartEx\ChartAddIn\ChartEnvSetupDlgAddIn\ChartEnvSetupDlgAddIn\Setting_Price.cpp

; 394  : 		ILPCSTR szGraphName = m_pIGraphInfo->GetGraphNameString();

  001c0	89 55 dc	 mov	 DWORD PTR _szGraphName$2[ebp], edx

; 395  : 		int nR = -1, nC = -1, nV = -1, nG = -1;
; 396  : 		if( m_pIChartManager->GetIndexOfGraph( szGraphName, nR, nC, nV, nG))

  001c3	8b 8b b8 00 00
	00		 mov	 ecx, DWORD PTR [ebx+184]
  001c9	8d 7d e4	 lea	 edi, DWORD PTR _nG$3[ebp]
  001cc	57		 push	 edi
  001cd	8d 7d e8	 lea	 edi, DWORD PTR _nV$4[ebp]
  001d0	c7 45 ec ff ff
	ff ff		 mov	 DWORD PTR _nR$5[ebp], -1
  001d7	57		 push	 edi
  001d8	8d 7d f0	 lea	 edi, DWORD PTR _nC$6[ebp]
  001db	c7 45 f0 ff ff
	ff ff		 mov	 DWORD PTR _nC$6[ebp], -1
  001e2	57		 push	 edi
  001e3	c7 45 e8 ff ff
	ff ff		 mov	 DWORD PTR _nV$4[ebp], -1
  001ea	8d 7d ec	 lea	 edi, DWORD PTR _nR$5[ebp]
  001ed	c7 45 e4 ff ff
	ff ff		 mov	 DWORD PTR _nG$3[ebp], -1
  001f4	8b 01		 mov	 eax, DWORD PTR [ecx]
  001f6	57		 push	 edi
  001f7	52		 push	 edx
  001f8	c7 45 fc 00 00
	00 00		 mov	 DWORD PTR __$EHRec$[ebp+8], 0
  001ff	ff 50 48	 call	 DWORD PTR [eax+72]
  00202	8b 3d 00 00 00
	00		 mov	 edi, DWORD PTR __imp__SendMessageA@16
  00208	85 c0		 test	 eax, eax
  0020a	74 60		 je	 SHORT $LN8@OnApply

; 397  : 		{
; 398  : 			IBlock *pIBlock = m_pIChartManager->GetBlock( nR, nC);

  0020c	8b 8b b8 00 00
	00		 mov	 ecx, DWORD PTR [ebx+184]
  00212	ff 75 f0	 push	 DWORD PTR _nC$6[ebp]
  00215	ff 75 ec	 push	 DWORD PTR _nR$5[ebp]
  00218	8b 01		 mov	 eax, DWORD PTR [ecx]
  0021a	ff 50 2c	 call	 DWORD PTR [eax+44]
  0021d	8b f8		 mov	 edi, eax

; 399  : 			if( pIBlock)

  0021f	85 ff		 test	 edi, edi
  00221	74 43		 je	 SHORT $LN46@OnApply
; File C:\Program Files (x86)\Microsoft Visual Studio\2019\Community\VC\Tools\MSVC\14.29.30133\atlmfc\include\afxwin2.inl

; 628  : 	{ ASSERT(::IsWindow(m_hWnd)); return (int)::SendMessage(m_hWnd, BM_GETCHECK, 0, 0); }

  00223	6a 00		 push	 0
  00225	6a 00		 push	 0
  00227	68 f0 00 00 00	 push	 240			; 000000f0H
  0022c	ff b3 30 05 00
	00		 push	 DWORD PTR [ebx+1328]
  00232	ff 15 00 00 00
	00		 call	 DWORD PTR __imp__SendMessageA@16
; File D:\git\src\IBK\IBK_DRFN\ProjSrc\SrcChartEx\ChartAddIn\ChartEnvSetupDlgAddIn\ChartEnvSetupDlgAddIn\Setting_Price.cpp

; 401  : 				pIBlock->SetLogScale( m_Log_Bt.GetCheck());

  00238	8b 17		 mov	 edx, DWORD PTR [edi]
  0023a	8b cf		 mov	 ecx, edi
  0023c	50		 push	 eax
  0023d	ff 52 28	 call	 DWORD PTR [edx+40]
; File C:\Program Files (x86)\Microsoft Visual Studio\2019\Community\VC\Tools\MSVC\14.29.30133\atlmfc\include\afxwin2.inl

; 628  : 	{ ASSERT(::IsWindow(m_hWnd)); return (int)::SendMessage(m_hWnd, BM_GETCHECK, 0, 0); }

  00240	6a 00		 push	 0
  00242	6a 00		 push	 0
  00244	68 f0 00 00 00	 push	 240			; 000000f0H
  00249	ff b3 b0 04 00
	00		 push	 DWORD PTR [ebx+1200]
  0024f	ff 15 00 00 00
	00		 call	 DWORD PTR __imp__SendMessageA@16
; File D:\git\src\IBK\IBK_DRFN\ProjSrc\SrcChartEx\ChartAddIn\ChartEnvSetupDlgAddIn\ChartEnvSetupDlgAddIn\Setting_Price.cpp

; 402  : 				pIBlock->SetVScaleInvert( nV, m_InvertChart_Bt.GetCheck());

  00255	8b 17		 mov	 edx, DWORD PTR [edi]
  00257	8b cf		 mov	 ecx, edi
  00259	50		 push	 eax
  0025a	ff 75 e8	 push	 DWORD PTR _nV$4[ebp]
  0025d	ff 52 50	 call	 DWORD PTR [edx+80]

; 403  : 				pIBlock->Release();

  00260	8b 07		 mov	 eax, DWORD PTR [edi]
  00262	57		 push	 edi
  00263	ff 50 08	 call	 DWORD PTR [eax+8]
$LN46@OnApply:
; File C:\Program Files (x86)\Microsoft Visual Studio\2019\Community\VC\Tools\MSVC\14.29.30133\atlmfc\include\afxwin2.inl

; 213  : 	{ ASSERT(::IsWindow(m_hWnd)); return CWnd::FromHandle(::GetParent(m_hWnd)); }

  00266	8b 3d 00 00 00
	00		 mov	 edi, DWORD PTR __imp__SendMessageA@16
$LN8@OnApply:
  0026c	ff 73 20	 push	 DWORD PTR [ebx+32]
  0026f	a1 00 00 00 00	 mov	 eax, DWORD PTR __imp__GetParent@4
  00274	ff d0		 call	 eax
  00276	50		 push	 eax
  00277	e8 00 00 00 00	 call	 ?FromHandle@CWnd@@SGPAV1@PAUHWND__@@@Z ; CWnd::FromHandle
; File D:\git\src\IBK\IBK_DRFN\ProjSrc\SrcChartEx\ChartAddIn\ChartEnvSetupDlgAddIn\ChartEnvSetupDlgAddIn\Setting_Price.cpp

; 408  : 			&& ((CDlgMainTabIndicatorSetUp *)GetParent())->m_bPreview == FALSE ) 

  0027c	83 b8 7c 01 00
	00 01		 cmp	 DWORD PTR [eax+380], 1
  00283	75 5c		 jne	 SHORT $LN9@OnApply
; File C:\Program Files (x86)\Microsoft Visual Studio\2019\Community\VC\Tools\MSVC\14.29.30133\atlmfc\include\afxwin2.inl

; 213  : 	{ ASSERT(::IsWindow(m_hWnd)); return CWnd::FromHandle(::GetParent(m_hWnd)); }

  00285	ff 73 20	 push	 DWORD PTR [ebx+32]
  00288	ff 15 00 00 00
	00		 call	 DWORD PTR __imp__GetParent@4
  0028e	50		 push	 eax
  0028f	e8 00 00 00 00	 call	 ?FromHandle@CWnd@@SGPAV1@PAUHWND__@@@Z ; CWnd::FromHandle
; File D:\git\src\IBK\IBK_DRFN\ProjSrc\SrcChartEx\ChartAddIn\ChartEnvSetupDlgAddIn\ChartEnvSetupDlgAddIn\Setting_Price.cpp

; 408  : 			&& ((CDlgMainTabIndicatorSetUp *)GetParent())->m_bPreview == FALSE ) 

  00294	83 b8 78 01 00
	00 00		 cmp	 DWORD PTR [eax+376], 0
  0029b	75 44		 jne	 SHORT $LN9@OnApply
; File C:\Program Files (x86)\Microsoft Visual Studio\2019\Community\VC\Tools\MSVC\14.29.30133\atlmfc\include\afxwin2.inl

; 628  : 	{ ASSERT(::IsWindow(m_hWnd)); return (int)::SendMessage(m_hWnd, BM_GETCHECK, 0, 0); }

  0029d	6a 00		 push	 0
  0029f	6a 00		 push	 0
  002a1	68 f0 00 00 00	 push	 240			; 000000f0H
  002a6	ff b3 b0 04 00
	00		 push	 DWORD PTR [ebx+1200]
  002ac	ff d7		 call	 edi
; File D:\git\src\IBK\IBK_DRFN\ProjSrc\SrcChartEx\ChartAddIn\ChartEnvSetupDlgAddIn\ChartEnvSetupDlgAddIn\Setting_Price.cpp

; 410  : 			m_bOrgInvertChart = itob( m_InvertChart_Bt.GetCheck() );

  002ae	50		 push	 eax
  002af	8b cb		 mov	 ecx, ebx
  002b1	e8 00 00 00 00	 call	 ?itob@CBaseDialog@@IAE_NH@Z ; CBaseDialog::itob
; File C:\Program Files (x86)\Microsoft Visual Studio\2019\Community\VC\Tools\MSVC\14.29.30133\atlmfc\include\afxwin2.inl

; 628  : 	{ ASSERT(::IsWindow(m_hWnd)); return (int)::SendMessage(m_hWnd, BM_GETCHECK, 0, 0); }

  002b6	6a 00		 push	 0
  002b8	6a 00		 push	 0
  002ba	68 f0 00 00 00	 push	 240			; 000000f0H
  002bf	ff b3 30 05 00
	00		 push	 DWORD PTR [ebx+1328]
; File D:\git\src\IBK\IBK_DRFN\ProjSrc\SrcChartEx\ChartAddIn\ChartEnvSetupDlgAddIn\ChartEnvSetupDlgAddIn\Setting_Price.cpp

; 410  : 			m_bOrgInvertChart = itob( m_InvertChart_Bt.GetCheck() );

  002c5	0f b6 c0	 movzx	 eax, al
  002c8	89 83 a8 06 00
	00		 mov	 DWORD PTR [ebx+1704], eax
; File C:\Program Files (x86)\Microsoft Visual Studio\2019\Community\VC\Tools\MSVC\14.29.30133\atlmfc\include\afxwin2.inl

; 628  : 	{ ASSERT(::IsWindow(m_hWnd)); return (int)::SendMessage(m_hWnd, BM_GETCHECK, 0, 0); }

  002ce	ff d7		 call	 edi
; File D:\git\src\IBK\IBK_DRFN\ProjSrc\SrcChartEx\ChartAddIn\ChartEnvSetupDlgAddIn\ChartEnvSetupDlgAddIn\Setting_Price.cpp

; 411  : 			m_bOrgLog = itob( m_Log_Bt.GetCheck() );

  002d0	50		 push	 eax
  002d1	8b cb		 mov	 ecx, ebx
  002d3	e8 00 00 00 00	 call	 ?itob@CBaseDialog@@IAE_NH@Z ; CBaseDialog::itob
  002d8	0f b6 c0	 movzx	 eax, al
  002db	89 83 a4 06 00
	00		 mov	 DWORD PTR [ebx+1700], eax
$LN9@OnApply:
; File D:\git\src\IBK\IBK_DRFN\ProjSrc\SrcChartEx\ChartAddIn\ChartEnvSetupDlgAddIn\Include_AddIn_135914\I135914\_IString.h

; 44   : 	{

  002e1	c7 45 fc 01 00
	00 00		 mov	 DWORD PTR __$EHRec$[ebp+8], 1

; 45   : 		if( m_pIStrData)

  002e8	85 f6		 test	 esi, esi
  002ea	74 06		 je	 SHORT $LN39@OnApply

; 46   : 		{
; 47   : 			m_pIStrData->Release();

  002ec	8b 06		 mov	 eax, DWORD PTR [esi]
  002ee	56		 push	 esi
  002ef	ff 50 08	 call	 DWORD PTR [eax+8]
$LN39@OnApply:

; 48   : 			m_pIStrData = NULL;
; 49   : 			m_szData = NULL;
; 50   : 		}
; 51   : 	}

  002f2	c7 45 fc ff ff
	ff ff		 mov	 DWORD PTR __$EHRec$[ebp+8], -1
$LN40@OnApply:
; File D:\git\src\IBK\IBK_DRFN\ProjSrc\SrcChartEx\ChartAddIn\ChartEnvSetupDlgAddIn\ChartEnvSetupDlgAddIn\Setting_Price.cpp

; 415  : 	p_pIGraphInfo->GetCopyDataFrom(m_pIGraphInfo);

  002f9	8b 4d 08	 mov	 ecx, DWORD PTR _p_pIGraphInfo$[ebp]
  002fc	ff b3 c4 00 00
	00		 push	 DWORD PTR [ebx+196]
  00302	8b 01		 mov	 eax, DWORD PTR [ecx]
  00304	ff 90 c0 00 00
	00		 call	 DWORD PTR [eax+192]

; 416  : 
; 417  : 	return TRUE;

  0030a	b8 01 00 00 00	 mov	 eax, 1

; 418  : }

  0030f	8b 4d f4	 mov	 ecx, DWORD PTR __$EHRec$[ebp]
  00312	64 89 0d 00 00
	00 00		 mov	 DWORD PTR fs:0, ecx
  00319	59		 pop	 ecx
  0031a	5f		 pop	 edi
  0031b	5e		 pop	 esi
  0031c	5b		 pop	 ebx
  0031d	8b e5		 mov	 esp, ebp
  0031f	5d		 pop	 ebp
  00320	c2 04 00	 ret	 4
_TEXT	ENDS
;	COMDAT text$x
text$x	SEGMENT
__unwindfunclet$?OnApply@CSetting_Price@@MAEHPAUIGraphInfo135914@@@Z$0:
  00000	8d 4d dc	 lea	 ecx, DWORD PTR _szGraphName$2[ebp]
  00003	e9 00 00 00 00	 jmp	 ??1ILPCSTR135914@@QAE@XZ ; ILPCSTR135914::~ILPCSTR135914
  00008	cc		 int	 3
  00009	cc		 int	 3
  0000a	cc		 int	 3
  0000b	cc		 int	 3
  0000c	cc		 int	 3
__ehhandler$?OnApply@CSetting_Price@@MAEHPAUIGraphInfo135914@@@Z:
  0000d	90		 npad	 1
  0000e	90		 npad	 1
  0000f	8b 54 24 08	 mov	 edx, DWORD PTR [esp+8]
  00013	8d 42 0c	 lea	 eax, DWORD PTR [edx+12]
  00016	8b 4a d8	 mov	 ecx, DWORD PTR [edx-40]
  00019	33 c8		 xor	 ecx, eax
  0001b	e8 00 00 00 00	 call	 @__security_check_cookie@4
  00020	b8 00 00 00 00	 mov	 eax, OFFSET __ehfuncinfo$?OnApply@CSetting_Price@@MAEHPAUIGraphInfo135914@@@Z
  00025	e9 00 00 00 00	 jmp	 ___CxxFrameHandler3
text$x	ENDS
?OnApply@CSetting_Price@@MAEHPAUIGraphInfo135914@@@Z ENDP ; CSetting_Price::OnApply
; Function compile flags: /Ogtp
; File D:\git\src\IBK\IBK_DRFN\ProjSrc\SrcChartEx\ChartAddIn\ChartEnvSetupDlgAddIn\ChartEnvSetupDlgAddIn\Setting_Price.cpp
; File D:\git\src\IBK\IBK_DRFN\ProjSrc\SrcChartEx\ChartAddIn\ChartEnvSetupDlgAddIn\Include_AddIn_135914\I135914\_IString.h
; File D:\git\src\IBK\IBK_DRFN\ProjSrc\SrcChartEx\ChartAddIn\ChartEnvSetupDlgAddIn\ChartEnvSetupDlgAddIn\Setting_Price.cpp
; File D:\git\src\IBK\IBK_DRFN\ProjSrc\SrcChartEx\ChartAddIn\ChartEnvSetupDlgAddIn\Include_AddIn_135914\I135914\_IString.h
; File D:\git\src\IBK\IBK_DRFN\ProjSrc\SrcChartEx\ChartAddIn\ChartEnvSetupDlgAddIn\ChartEnvSetupDlgAddIn\Setting_Price.cpp
; File C:\Program Files (x86)\Microsoft Visual Studio\2019\Community\VC\Tools\MSVC\14.29.30133\atlmfc\include\afxwin2.inl
; File D:\git\src\IBK\IBK_DRFN\ProjSrc\SrcChartEx\ChartAddIn\ChartEnvSetupDlgAddIn\ChartEnvSetupDlgAddIn\Setting_Price.cpp
; File C:\Program Files (x86)\Microsoft Visual Studio\2019\Community\VC\Tools\MSVC\14.29.30133\atlmfc\include\afxwin2.inl
; File D:\git\src\IBK\IBK_DRFN\ProjSrc\SrcChartEx\ChartAddIn\ChartEnvSetupDlgAddIn\ChartEnvSetupDlgAddIn\Setting_Price.cpp
; File C:\Program Files (x86)\Microsoft Visual Studio\2019\Community\VC\Tools\MSVC\14.29.30133\atlmfc\include\afxwin2.inl
; File D:\git\src\IBK\IBK_DRFN\ProjSrc\SrcChartEx\ChartAddIn\ChartEnvSetupDlgAddIn\ChartEnvSetupDlgAddIn\Setting_Price.cpp
; File C:\Program Files (x86)\Microsoft Visual Studio\2019\Community\VC\Tools\MSVC\14.29.30133\atlmfc\include\afxwin2.inl
; File D:\git\src\IBK\IBK_DRFN\ProjSrc\SrcChartEx\ChartAddIn\ChartEnvSetupDlgAddIn\ChartEnvSetupDlgAddIn\Setting_Price.cpp
; File D:\git\src\IBK\IBK_DRFN\ProjSrc\SrcChartEx\ChartAddIn\ChartEnvSetupDlgAddIn\Include_AddIn_135914\I135914\_IString.h
; File D:\git\src\IBK\IBK_DRFN\ProjSrc\SrcChartEx\ChartAddIn\ChartEnvSetupDlgAddIn\ChartEnvSetupDlgAddIn\Setting_Price.cpp
;	COMDAT ?Initial@CSetting_Price@@MAEXPAUIGraphInfo135914@@@Z
_TEXT	SEGMENT
_dBasePrice$2 = -64					; size = 8
_dSteadyType$ = -56					; size = 8
_szGraphName$ = -48					; size = 8
_szPacketNames$ = -40					; size = 8
_nG$ = -32						; size = 4
_nV$ = -28						; size = 4
_nR$ = -24						; size = 4
_nC$ = -20						; size = 4
_strPacketNames$ = -16					; size = 4
__$EHRec$ = -12						; size = 12
_pPacket$1$ = 8						; size = 4
$T3 = 8							; size = 4
_p_pIGraphInfo$ = 8					; size = 4
?Initial@CSetting_Price@@MAEXPAUIGraphInfo135914@@@Z PROC ; CSetting_Price::Initial, COMDAT
; _this$ = ecx

; 124  : {

  00000	55		 push	 ebp
  00001	8b ec		 mov	 ebp, esp
  00003	6a ff		 push	 -1
  00005	68 00 00 00 00	 push	 __ehhandler$?Initial@CSetting_Price@@MAEXPAUIGraphInfo135914@@@Z
  0000a	64 a1 00 00 00
	00		 mov	 eax, DWORD PTR fs:0
  00010	50		 push	 eax
  00011	83 ec 34	 sub	 esp, 52			; 00000034H
  00014	53		 push	 ebx
  00015	56		 push	 esi
  00016	57		 push	 edi
  00017	a1 00 00 00 00	 mov	 eax, DWORD PTR ___security_cookie
  0001c	33 c5		 xor	 eax, ebp
  0001e	50		 push	 eax
  0001f	8d 45 f4	 lea	 eax, DWORD PTR __$EHRec$[ebp]
  00022	64 a3 00 00 00
	00		 mov	 DWORD PTR fs:0, eax
  00028	8b f9		 mov	 edi, ecx

; 125  : 	if( m_pIGraphInfo)

  0002a	8b 8f c4 00 00
	00		 mov	 ecx, DWORD PTR [edi+196]
  00030	85 c9		 test	 ecx, ecx
  00032	74 17		 je	 SHORT $LN2@Initial

; 126  : 	{
; 127  : 		OnApply( m_pIGraphInfo);

  00034	8b 07		 mov	 eax, DWORD PTR [edi]
  00036	51		 push	 ecx
  00037	8b cf		 mov	 ecx, edi
  00039	ff 90 98 01 00
	00		 call	 DWORD PTR [eax+408]

; 128  : 		m_pIGraphInfo->Release();

  0003f	8b 87 c4 00 00
	00		 mov	 eax, DWORD PTR [edi+196]
  00045	50		 push	 eax
  00046	8b 08		 mov	 ecx, DWORD PTR [eax]
  00048	ff 51 08	 call	 DWORD PTR [ecx+8]
$LN2@Initial:

; 129  : 	}
; 130  : 	m_pIGraphInfo = p_pIGraphInfo;

  0004b	8b 4d 08	 mov	 ecx, DWORD PTR _p_pIGraphInfo$[ebp]
  0004e	89 8f c4 00 00
	00		 mov	 DWORD PTR [edi+196], ecx

; 131  : 	if( m_pIGraphInfo) m_pIGraphInfo->AddRef();

  00054	85 c9		 test	 ecx, ecx
  00056	0f 84 0a 03 00
	00		 je	 $LN43@Initial
  0005c	8b 01		 mov	 eax, DWORD PTR [ecx]
  0005e	51		 push	 ecx
  0005f	ff 50 04	 call	 DWORD PTR [eax+4]

; 132  : 	else return;
; 133  : 
; 134  : 	// (2009/9/5 - Seung-Won, Bae) Hide Equi/Candle Volume type on FX Mode
; 135  : 	if( CChartInfo::FX == m_pIChartOCX->GetChartMode())

  00062	8b 8f b0 00 00
	00		 mov	 ecx, DWORD PTR [edi+176]
  00068	8b 01		 mov	 eax, DWORD PTR [ecx]
  0006a	ff 90 24 02 00
	00		 call	 DWORD PTR [eax+548]
  00070	83 f8 02	 cmp	 eax, 2
  00073	75 2a		 jne	 SHORT $LN5@Initial

; 136  : 	{
; 137  : 		GetDlgItem( IDC_CANDLEVOLUME_CHART)->ShowWindow( SW_HIDE);

  00075	6a 00		 push	 0
  00077	68 1a 04 00 00	 push	 1050			; 0000041aH
  0007c	8b cf		 mov	 ecx, edi
  0007e	e8 00 00 00 00	 call	 ?GetDlgItem@CWnd@@QBEPAV1@H@Z ; CWnd::GetDlgItem
  00083	8b c8		 mov	 ecx, eax
  00085	e8 00 00 00 00	 call	 ?ShowWindow@CWnd@@QAEHH@Z ; CWnd::ShowWindow

; 138  : 		GetDlgItem( IDC_EQUIVOLUME_CHART)->ShowWindow( SW_HIDE);

  0008a	6a 00		 push	 0
  0008c	68 1d 04 00 00	 push	 1053			; 0000041dH
  00091	8b cf		 mov	 ecx, edi
  00093	e8 00 00 00 00	 call	 ?GetDlgItem@CWnd@@QBEPAV1@H@Z ; CWnd::GetDlgItem
  00098	8b c8		 mov	 ecx, eax
  0009a	e8 00 00 00 00	 call	 ?ShowWindow@CWnd@@QAEHH@Z ; CWnd::ShowWindow
$LN5@Initial:

; 142  : 	ILPCSTR szGraphName = m_pIGraphInfo->GetGraphNameString();

  0009f	8b 8f c4 00 00
	00		 mov	 ecx, DWORD PTR [edi+196]
  000a5	8b 01		 mov	 eax, DWORD PTR [ecx]
  000a7	ff 90 a0 00 00
	00		 call	 DWORD PTR [eax+160]
; File D:\git\src\IBK\IBK_DRFN\ProjSrc\SrcChartEx\ChartAddIn\ChartEnvSetupDlgAddIn\Include_AddIn_135914\I135914\_IString.h

; 39   : 		m_pIStrData = p_pIString;	// Do not AddRef(). Because It must be Return Value.

  000ad	8b d8		 mov	 ebx, eax
  000af	89 5d d4	 mov	 DWORD PTR _szGraphName$[ebp+4], ebx

; 40   : 		if( m_pIStrData) m_szData = m_pIStrData->GetData();

  000b2	85 db		 test	 ebx, ebx
  000b4	74 0b		 je	 SHORT $LN21@Initial
  000b6	8b 13		 mov	 edx, DWORD PTR [ebx]
  000b8	8b cb		 mov	 ecx, ebx
  000ba	ff 52 10	 call	 DWORD PTR [edx+16]
  000bd	8b f0		 mov	 esi, eax
  000bf	eb 02		 jmp	 SHORT $LN47@Initial
$LN21@Initial:

; 41   : 		else m_szData = NULL;

  000c1	33 f6		 xor	 esi, esi
$LN47@Initial:
; File D:\git\src\IBK\IBK_DRFN\ProjSrc\SrcChartEx\ChartAddIn\ChartEnvSetupDlgAddIn\ChartEnvSetupDlgAddIn\Setting_Price.cpp

; 142  : 	ILPCSTR szGraphName = m_pIGraphInfo->GetGraphNameString();

  000c3	89 75 d0	 mov	 DWORD PTR _szGraphName$[ebp], esi

; 143  : 	ILPCSTR szPacketNames = m_pIChartManager->GetPacketNameStringOfGraph( szGraphName);

  000c6	8b 8f b8 00 00
	00		 mov	 ecx, DWORD PTR [edi+184]
  000cc	56		 push	 esi
  000cd	c7 45 fc 00 00
	00 00		 mov	 DWORD PTR __$EHRec$[ebp+8], 0
  000d4	8b 01		 mov	 eax, DWORD PTR [ecx]
  000d6	ff 50 44	 call	 DWORD PTR [eax+68]
; File D:\git\src\IBK\IBK_DRFN\ProjSrc\SrcChartEx\ChartAddIn\ChartEnvSetupDlgAddIn\Include_AddIn_135914\I135914\_IString.h

; 39   : 		m_pIStrData = p_pIString;	// Do not AddRef(). Because It must be Return Value.

  000d9	89 45 dc	 mov	 DWORD PTR _szPacketNames$[ebp+4], eax

; 40   : 		if( m_pIStrData) m_szData = m_pIStrData->GetData();

  000dc	85 c0		 test	 eax, eax
  000de	74 09		 je	 SHORT $LN25@Initial
  000e0	8b 10		 mov	 edx, DWORD PTR [eax]
  000e2	8b c8		 mov	 ecx, eax
  000e4	ff 52 10	 call	 DWORD PTR [edx+16]
  000e7	eb 02		 jmp	 SHORT $LN48@Initial
$LN25@Initial:

; 41   : 		else m_szData = NULL;

  000e9	33 c0		 xor	 eax, eax
$LN48@Initial:
; File D:\git\src\IBK\IBK_DRFN\ProjSrc\SrcChartEx\ChartAddIn\ChartEnvSetupDlgAddIn\ChartEnvSetupDlgAddIn\Setting_Price.cpp

; 143  : 	ILPCSTR szPacketNames = m_pIChartManager->GetPacketNameStringOfGraph( szGraphName);

  000eb	89 45 d8	 mov	 DWORD PTR _szPacketNames$[ebp], eax

; 144  : 	CString strPacketNames( szPacketNames);

  000ee	50		 push	 eax
  000ef	8d 4d f0	 lea	 ecx, DWORD PTR _strPacketNames$[ebp]
  000f2	c6 45 fc 01	 mov	 BYTE PTR __$EHRec$[ebp+8], 1
  000f6	ff 15 00 00 00
	00		 call	 DWORD PTR __imp_??0?$CStringT@DV?$StrTraitMFC_DLL@DV?$ChTraitsCRT@D@ATL@@@@@ATL@@QAE@PBD@Z

; 145  : 	strPacketNames.TrimRight( ',');

  000fc	6a 2c		 push	 44			; 0000002cH
  000fe	8d 4d f0	 lea	 ecx, DWORD PTR _strPacketNames$[ebp]
  00101	c6 45 fc 02	 mov	 BYTE PTR __$EHRec$[ebp+8], 2
  00105	ff 15 00 00 00
	00		 call	 DWORD PTR __imp_?TrimRight@?$CStringT@DV?$StrTraitMFC_DLL@DV?$ChTraitsCRT@D@ATL@@@@@ATL@@QAEAAV12@D@Z

; 146  : 	int nIndex = strPacketNames.ReverseFind( ',');

  0010b	6a 2c		 push	 44			; 0000002cH
  0010d	8d 4d f0	 lea	 ecx, DWORD PTR _strPacketNames$[ebp]
  00110	ff 15 00 00 00
	00		 call	 DWORD PTR __imp_?ReverseFind@?$CStringT@DV?$StrTraitMFC_DLL@DV?$ChTraitsCRT@D@ATL@@@@@ATL@@QBEHD@Z

; 147  : 	if( 0 <= nIndex) strPacketNames = strPacketNames.Mid( nIndex + 1);

  00116	85 c0		 test	 eax, eax
  00118	78 2a		 js	 SHORT $LN6@Initial
  0011a	40		 inc	 eax
  0011b	8d 4d f0	 lea	 ecx, DWORD PTR _strPacketNames$[ebp]
  0011e	50		 push	 eax
  0011f	8d 45 08	 lea	 eax, DWORD PTR $T3[ebp]
  00122	50		 push	 eax
  00123	ff 15 00 00 00
	00		 call	 DWORD PTR __imp_?Mid@?$CStringT@DV?$StrTraitMFC_DLL@DV?$ChTraitsCRT@D@ATL@@@@@ATL@@QBE?AV12@H@Z
  00129	50		 push	 eax
  0012a	8d 4d f0	 lea	 ecx, DWORD PTR _strPacketNames$[ebp]
  0012d	c6 45 fc 03	 mov	 BYTE PTR __$EHRec$[ebp+8], 3
  00131	ff 15 00 00 00
	00		 call	 DWORD PTR __imp_??4?$CStringT@DV?$StrTraitMFC_DLL@DV?$ChTraitsCRT@D@ATL@@@@@ATL@@QAEAAV01@ABV01@@Z
  00137	8d 4d 08	 lea	 ecx, DWORD PTR $T3[ebp]
  0013a	c6 45 fc 02	 mov	 BYTE PTR __$EHRec$[ebp+8], 2
  0013e	ff 15 00 00 00
	00		 call	 DWORD PTR __imp_??1?$CStringT@DV?$StrTraitMFC_DLL@DV?$ChTraitsCRT@D@ATL@@@@@ATL@@QAE@XZ
$LN6@Initial:

; 148  : 	m_bUseBasePrice = FALSE;
; 149  : 	IPacket *pPacket = m_pIPacketManager->GetPacket( strPacketNames);

  00144	8b 8f b4 00 00
	00		 mov	 ecx, DWORD PTR [edi+180]
  0014a	ff 75 f0	 push	 DWORD PTR _strPacketNames$[ebp]
  0014d	c7 87 ac 06 00
	00 00 00 00 00	 mov	 DWORD PTR [edi+1708], 0
  00157	8b 01		 mov	 eax, DWORD PTR [ecx]
  00159	ff 50 10	 call	 DWORD PTR [eax+16]
  0015c	89 45 08	 mov	 DWORD PTR _pPacket$1$[ebp], eax

; 150  : 	if( pPacket)

  0015f	85 c0		 test	 eax, eax
  00161	74 24		 je	 SHORT $LN7@Initial

; 151  : 	{
; 152  : 		double dBasePrice = 0.0;
; 153  : 		m_bUseBasePrice = pPacket->GetStandardValue( dBasePrice);

  00163	8b 10		 mov	 edx, DWORD PTR [eax]
  00165	8d 4d c0	 lea	 ecx, DWORD PTR _dBasePrice$2[ebp]
  00168	6a 00		 push	 0
  0016a	0f 57 c0	 xorps	 xmm0, xmm0
  0016d	51		 push	 ecx
  0016e	8b c8		 mov	 ecx, eax
  00170	f2 0f 11 45 c0	 movsd	 QWORD PTR _dBasePrice$2[ebp], xmm0
  00175	ff 52 20	 call	 DWORD PTR [edx+32]

; 154  : 		pPacket->Release();

  00178	8b 4d 08	 mov	 ecx, DWORD PTR _pPacket$1$[ebp]
  0017b	89 87 ac 06 00
	00		 mov	 DWORD PTR [edi+1708], eax
  00181	51		 push	 ecx
  00182	8b 01		 mov	 eax, DWORD PTR [ecx]
  00184	ff 50 08	 call	 DWORD PTR [eax+8]
$LN7@Initial:

; 155  : 	}
; 156  : 
; 157  : 	int nR = -1, nC = -1, nV = -1, nG = -1;
; 158  : 	if( m_pIChartManager->GetIndexOfGraph( szGraphName, nR, nC, nV, nG))

  00187	8b 8f b8 00 00
	00		 mov	 ecx, DWORD PTR [edi+184]
  0018d	8d 55 e0	 lea	 edx, DWORD PTR _nG$[ebp]
  00190	52		 push	 edx
  00191	8d 55 e4	 lea	 edx, DWORD PTR _nV$[ebp]
  00194	c7 45 e8 ff ff
	ff ff		 mov	 DWORD PTR _nR$[ebp], -1
  0019b	52		 push	 edx
  0019c	8d 55 ec	 lea	 edx, DWORD PTR _nC$[ebp]
  0019f	c7 45 ec ff ff
	ff ff		 mov	 DWORD PTR _nC$[ebp], -1
  001a6	52		 push	 edx
  001a7	c7 45 e4 ff ff
	ff ff		 mov	 DWORD PTR _nV$[ebp], -1
  001ae	8d 55 e8	 lea	 edx, DWORD PTR _nR$[ebp]
  001b1	c7 45 e0 ff ff
	ff ff		 mov	 DWORD PTR _nG$[ebp], -1
  001b8	8b 01		 mov	 eax, DWORD PTR [ecx]
  001ba	52		 push	 edx
  001bb	56		 push	 esi
  001bc	ff 50 48	 call	 DWORD PTR [eax+72]
  001bf	85 c0		 test	 eax, eax
  001c1	74 3a		 je	 SHORT $LN9@Initial

; 159  : 	{
; 160  : 		IBlock *pIBlock = m_pIChartManager->GetBlock( nR, nC);

  001c3	8b 8f b8 00 00
	00		 mov	 ecx, DWORD PTR [edi+184]
  001c9	ff 75 ec	 push	 DWORD PTR _nC$[ebp]
  001cc	ff 75 e8	 push	 DWORD PTR _nR$[ebp]
  001cf	8b 01		 mov	 eax, DWORD PTR [ecx]
  001d1	ff 50 2c	 call	 DWORD PTR [eax+44]
  001d4	8b f0		 mov	 esi, eax

; 161  : 		if( pIBlock)

  001d6	85 f6		 test	 esi, esi
  001d8	74 23		 je	 SHORT $LN9@Initial

; 162  : 		{
; 163  : 			m_bOrgLog = pIBlock->IsLogScale();

  001da	8b 16		 mov	 edx, DWORD PTR [esi]
  001dc	8b ce		 mov	 ecx, esi
  001de	ff 52 24	 call	 DWORD PTR [edx+36]

; 164  : 			m_bOrgInvertChart = pIBlock->IsVScaleInvert( nV);

  001e1	ff 75 e4	 push	 DWORD PTR _nV$[ebp]
  001e4	89 87 a4 06 00
	00		 mov	 DWORD PTR [edi+1700], eax
  001ea	8b ce		 mov	 ecx, esi
  001ec	8b 16		 mov	 edx, DWORD PTR [esi]
  001ee	ff 52 4c	 call	 DWORD PTR [edx+76]
  001f1	89 87 a8 06 00
	00		 mov	 DWORD PTR [edi+1704], eax

; 165  : 			pIBlock->Release();

  001f7	8b 06		 mov	 eax, DWORD PTR [esi]
  001f9	56		 push	 esi
  001fa	ff 50 08	 call	 DWORD PTR [eax+8]
$LN9@Initial:

; 166  : 		}
; 167  : 	}
; 168  : 
; 169  : 	Initial_ThicknessComboBox( 0, 0, m_Thickness_Combo);	

  001fd	8d 87 90 05 00
	00		 lea	 eax, DWORD PTR [edi+1424]
  00203	8b cf		 mov	 ecx, edi
  00205	50		 push	 eax
  00206	6a 00		 push	 0
  00208	6a 00		 push	 0
  0020a	e8 00 00 00 00	 call	 ?Initial_ThicknessComboBox@CBaseDialog@@IAEXHHAAVCBitmapItemComboBox@@@Z ; CBaseDialog::Initial_ThicknessComboBox

; 170  : 	Initial_DrawStyleComboBox( 0, m_DrawStyle_Combo);

  0020f	8d 87 18 06 00
	00		 lea	 eax, DWORD PTR [edi+1560]
  00215	8b cf		 mov	 ecx, edi
  00217	50		 push	 eax
  00218	6a 00		 push	 0
  0021a	e8 00 00 00 00	 call	 ?Initial_DrawStyleComboBox@CBaseDialog@@IAEXHAAVCBitmapItemComboBox@@@Z ; CBaseDialog::Initial_DrawStyleComboBox

; 171  : 
; 172  : 	IDoubleList *pIDrawCondition = m_pIGraphInfo->GetDrawConditionList();

  0021f	8b 8f c4 00 00
	00		 mov	 ecx, DWORD PTR [edi+196]
  00225	8b 01		 mov	 eax, DWORD PTR [ecx]
  00227	ff 50 14	 call	 DWORD PTR [eax+20]
  0022a	8b f0		 mov	 esi, eax

; 173  : 	if( !pIDrawCondition) return;

  0022c	85 f6		 test	 esi, esi
  0022e	0f 84 07 01 00
	00		 je	 $LN19@Initial

; 174  : 	double dSteadyType = -1;

  00234	f2 0f 10 05 00
	00 00 00	 movsd	 xmm0, QWORD PTR __real@bff0000000000000

; 175  : 	if( 0 < pIDrawCondition->GetCount()) pIDrawCondition->GetHead( dSteadyType);

  0023c	8b ce		 mov	 ecx, esi
  0023e	f2 0f 11 45 c8	 movsd	 QWORD PTR _dSteadyType$[ebp], xmm0
  00243	8b 16		 mov	 edx, DWORD PTR [esi]
  00245	ff 52 10	 call	 DWORD PTR [edx+16]
  00248	85 c0		 test	 eax, eax
  0024a	7e 0b		 jle	 SHORT $LN11@Initial
  0024c	8b 06		 mov	 eax, DWORD PTR [esi]
  0024e	8d 4d c8	 lea	 ecx, DWORD PTR _dSteadyType$[ebp]
  00251	51		 push	 ecx
  00252	8b ce		 mov	 ecx, esi
  00254	ff 50 18	 call	 DWORD PTR [eax+24]
$LN11@Initial:

; 176  : 	pIDrawCondition->Release();

  00257	8b 06		 mov	 eax, DWORD PTR [esi]
  00259	56		 push	 esi
  0025a	ff 50 08	 call	 DWORD PTR [eax+8]

; 177  : 	if( dSteadyType < 1) return;	// 1:General, 2:BasePrice, 3:Same Close.

  0025d	f2 0f 10 05 00
	00 00 00	 movsd	 xmm0, QWORD PTR __real@3ff0000000000000
  00265	f2 0f 10 4d c8	 movsd	 xmm1, QWORD PTR _dSteadyType$[ebp]
  0026a	66 0f 2f c1	 comisd	 xmm0, xmm1
  0026e	0f 87 c7 00 00
	00		 ja	 $LN19@Initial

; 178  : 	m_nSteadyType = ( int)dSteadyType - 1;

  00274	f2 0f 2c c1	 cvttsd2si eax, xmm1

; 179  : 
; 180  : 	Set_DrawStyle();

  00278	8b cf		 mov	 ecx, edi
  0027a	48		 dec	 eax
  0027b	89 87 a0 06 00
	00		 mov	 DWORD PTR [edi+1696], eax
  00281	e8 00 00 00 00	 call	 ?Set_DrawStyle@CSetting_Price@@IAEXXZ ; CSetting_Price::Set_DrawStyle

; 181  : 	Initial_ColorButton();

  00286	8b cf		 mov	 ecx, edi
  00288	e8 00 00 00 00	 call	 ?Initial_ColorButton@CSetting_Price@@IAEXXZ ; CSetting_Price::Initial_ColorButton
; File C:\Program Files (x86)\Microsoft Visual Studio\2019\Community\VC\Tools\MSVC\14.29.30133\atlmfc\include\afxwin2.inl

; 630  : 	{ ASSERT(::IsWindow(m_hWnd)); ::SendMessage(m_hWnd, BM_SETCHECK, nCheck, 0); }

  0028d	8b 35 00 00 00
	00		 mov	 esi, DWORD PTR __imp__SendMessageA@16
  00293	6a 00		 push	 0
  00295	ff b7 a8 06 00
	00		 push	 DWORD PTR [edi+1704]
  0029b	68 f1 00 00 00	 push	 241			; 000000f1H
  002a0	ff b7 b0 04 00
	00		 push	 DWORD PTR [edi+1200]
  002a6	ff d6		 call	 esi
  002a8	6a 00		 push	 0
  002aa	ff b7 a4 06 00
	00		 push	 DWORD PTR [edi+1700]
  002b0	68 f1 00 00 00	 push	 241			; 000000f1H
  002b5	ff b7 30 05 00
	00		 push	 DWORD PTR [edi+1328]
  002bb	ff d6		 call	 esi
; File D:\git\src\IBK\IBK_DRFN\ProjSrc\SrcChartEx\ChartAddIn\ChartEnvSetupDlgAddIn\ChartEnvSetupDlgAddIn\Setting_Price.cpp

; 186  : 	m_DrawStyle_Combo.SetCurSel( m_pIGraphInfo->GetSubGraphDrawStyle( 0));

  002bd	8b 8f c4 00 00
	00		 mov	 ecx, DWORD PTR [edi+196]
  002c3	6a 00		 push	 0
  002c5	8b 01		 mov	 eax, DWORD PTR [ecx]
  002c7	ff 50 5c	 call	 DWORD PTR [eax+92]
; File C:\Program Files (x86)\Microsoft Visual Studio\2019\Community\VC\Tools\MSVC\14.29.30133\atlmfc\include\afxwin2.inl

; 767  : 	{ ASSERT(::IsWindow(m_hWnd)); return (int)::SendMessage(m_hWnd, CB_SETCURSEL, nSelect, 0); }

  002ca	6a 00		 push	 0
  002cc	50		 push	 eax
  002cd	68 4e 01 00 00	 push	 334			; 0000014eH
  002d2	ff b7 38 06 00
	00		 push	 DWORD PTR [edi+1592]
  002d8	ff d6		 call	 esi
; File D:\git\src\IBK\IBK_DRFN\ProjSrc\SrcChartEx\ChartAddIn\ChartEnvSetupDlgAddIn\ChartEnvSetupDlgAddIn\Setting_Price.cpp

; 187  : 	m_Thickness_Combo.SetCurSel( m_pIGraphInfo->GetSubGraphPenThickness( 0, 1) - 1);

  002da	8b 8f c4 00 00
	00		 mov	 ecx, DWORD PTR [edi+196]
  002e0	6a 01		 push	 1
  002e2	6a 00		 push	 0
  002e4	8b 01		 mov	 eax, DWORD PTR [ecx]
  002e6	ff 90 80 00 00
	00		 call	 DWORD PTR [eax+128]
; File C:\Program Files (x86)\Microsoft Visual Studio\2019\Community\VC\Tools\MSVC\14.29.30133\atlmfc\include\afxwin2.inl

; 767  : 	{ ASSERT(::IsWindow(m_hWnd)); return (int)::SendMessage(m_hWnd, CB_SETCURSEL, nSelect, 0); }

  002ec	6a 00		 push	 0
; File D:\git\src\IBK\IBK_DRFN\ProjSrc\SrcChartEx\ChartAddIn\ChartEnvSetupDlgAddIn\ChartEnvSetupDlgAddIn\Setting_Price.cpp

; 187  : 	m_Thickness_Combo.SetCurSel( m_pIGraphInfo->GetSubGraphPenThickness( 0, 1) - 1);

  002ee	48		 dec	 eax
; File C:\Program Files (x86)\Microsoft Visual Studio\2019\Community\VC\Tools\MSVC\14.29.30133\atlmfc\include\afxwin2.inl

; 767  : 	{ ASSERT(::IsWindow(m_hWnd)); return (int)::SendMessage(m_hWnd, CB_SETCURSEL, nSelect, 0); }

  002ef	50		 push	 eax
  002f0	68 4e 01 00 00	 push	 334			; 0000014eH
  002f5	ff b7 b0 05 00
	00		 push	 DWORD PTR [edi+1456]
  002fb	ff d6		 call	 esi
; File D:\git\src\IBK\IBK_DRFN\ProjSrc\SrcChartEx\ChartAddIn\ChartEnvSetupDlgAddIn\ChartEnvSetupDlgAddIn\Setting_Price.cpp

; 189  : 	Initial_FillUp( 0, m_FillUp_Bt);

  002fd	8d 87 10 04 00
	00		 lea	 eax, DWORD PTR [edi+1040]
  00303	8b cf		 mov	 ecx, edi
  00305	50		 push	 eax
  00306	6a 00		 push	 0
  00308	e8 00 00 00 00	 call	 ?Initial_FillUp@CBaseDialog@@IAEXHAAVCButton@@@Z ; CBaseDialog::Initial_FillUp

; 190  : 	Initial_FillDown( 0, m_FillDown_Bt);

  0030d	8d 87 90 03 00
	00		 lea	 eax, DWORD PTR [edi+912]
  00313	8b cf		 mov	 ecx, edi
  00315	50		 push	 eax
  00316	6a 00		 push	 0
  00318	e8 00 00 00 00	 call	 ?Initial_FillDown@CBaseDialog@@IAEXHAAVCButton@@@Z ; CBaseDialog::Initial_FillDown

; 191  : 
; 192  : 	ShowHide_FillUpDownNCombo( m_pIGraphInfo->GetSubGraphStyle( 0));

  0031d	8b 8f c4 00 00
	00		 mov	 ecx, DWORD PTR [edi+196]
  00323	6a 00		 push	 0
  00325	8b 01		 mov	 eax, DWORD PTR [ecx]
  00327	ff 50 54	 call	 DWORD PTR [eax+84]
  0032a	50		 push	 eax
  0032b	8b cf		 mov	 ecx, edi
  0032d	e8 00 00 00 00	 call	 ?ShowHide_FillUpDownNCombo@CSetting_Price@@IAEXH@Z ; CSetting_Price::ShowHide_FillUpDownNCombo

; 193  : 	
; 194  : 	UpdateData(FALSE);

  00332	6a 00		 push	 0
  00334	8b cf		 mov	 ecx, edi
  00336	e8 00 00 00 00	 call	 ?UpdateData@CWnd@@QAEHH@Z ; CWnd::UpdateData
$LN19@Initial:

; 195  : }

  0033b	8d 4d f0	 lea	 ecx, DWORD PTR _strPacketNames$[ebp]
  0033e	ff 15 00 00 00
	00		 call	 DWORD PTR __imp_??1?$CStringT@DV?$StrTraitMFC_DLL@DV?$ChTraitsCRT@D@ATL@@@@@ATL@@QAE@XZ
; File D:\git\src\IBK\IBK_DRFN\ProjSrc\SrcChartEx\ChartAddIn\ChartEnvSetupDlgAddIn\Include_AddIn_135914\I135914\_IString.h

; 45   : 		if( m_pIStrData)

  00344	8b 4d dc	 mov	 ecx, DWORD PTR _szPacketNames$[ebp+4]
  00347	c6 45 fc 04	 mov	 BYTE PTR __$EHRec$[ebp+8], 4
  0034b	85 c9		 test	 ecx, ecx
  0034d	74 06		 je	 SHORT $LN39@Initial

; 46   : 		{
; 47   : 			m_pIStrData->Release();

  0034f	8b 01		 mov	 eax, DWORD PTR [ecx]
  00351	51		 push	 ecx
  00352	ff 50 08	 call	 DWORD PTR [eax+8]
$LN39@Initial:

; 44   : 	{

  00355	c7 45 fc 05 00
	00 00		 mov	 DWORD PTR __$EHRec$[ebp+8], 5

; 45   : 		if( m_pIStrData)

  0035c	85 db		 test	 ebx, ebx
  0035e	74 06		 je	 SHORT $LN43@Initial

; 46   : 		{
; 47   : 			m_pIStrData->Release();

  00360	8b 03		 mov	 eax, DWORD PTR [ebx]
  00362	53		 push	 ebx
  00363	ff 50 08	 call	 DWORD PTR [eax+8]
$LN43@Initial:
; File D:\git\src\IBK\IBK_DRFN\ProjSrc\SrcChartEx\ChartAddIn\ChartEnvSetupDlgAddIn\ChartEnvSetupDlgAddIn\Setting_Price.cpp

; 195  : }

  00366	8b 4d f4	 mov	 ecx, DWORD PTR __$EHRec$[ebp]
  00369	64 89 0d 00 00
	00 00		 mov	 DWORD PTR fs:0, ecx
  00370	59		 pop	 ecx
  00371	5f		 pop	 edi
  00372	5e		 pop	 esi
  00373	5b		 pop	 ebx
  00374	8b e5		 mov	 esp, ebp
  00376	5d		 pop	 ebp
  00377	c2 04 00	 ret	 4
_TEXT	ENDS
;	COMDAT text$x
text$x	SEGMENT
__unwindfunclet$?Initial@CSetting_Price@@MAEXPAUIGraphInfo135914@@@Z$0:
  00000	8d 4d d0	 lea	 ecx, DWORD PTR _szGraphName$[ebp]
  00003	e9 00 00 00 00	 jmp	 ??1ILPCSTR135914@@QAE@XZ ; ILPCSTR135914::~ILPCSTR135914
__unwindfunclet$?Initial@CSetting_Price@@MAEXPAUIGraphInfo135914@@@Z$1:
  00008	8d 4d d8	 lea	 ecx, DWORD PTR _szPacketNames$[ebp]
  0000b	e9 00 00 00 00	 jmp	 ??1ILPCSTR135914@@QAE@XZ ; ILPCSTR135914::~ILPCSTR135914
__unwindfunclet$?Initial@CSetting_Price@@MAEXPAUIGraphInfo135914@@@Z$2:
  00010	8d 4d f0	 lea	 ecx, DWORD PTR _strPacketNames$[ebp]
  00013	ff 25 00 00 00
	00		 jmp	 DWORD PTR __imp_??1?$CStringT@DV?$StrTraitMFC_DLL@DV?$ChTraitsCRT@D@ATL@@@@@ATL@@QAE@XZ
__unwindfunclet$?Initial@CSetting_Price@@MAEXPAUIGraphInfo135914@@@Z$3:
  00019	8d 4d 08	 lea	 ecx, DWORD PTR $T3[ebp]
  0001c	ff 25 00 00 00
	00		 jmp	 DWORD PTR __imp_??1?$CStringT@DV?$StrTraitMFC_DLL@DV?$ChTraitsCRT@D@ATL@@@@@ATL@@QAE@XZ
  00022	cc		 int	 3
  00023	cc		 int	 3
  00024	cc		 int	 3
  00025	cc		 int	 3
  00026	cc		 int	 3
__ehhandler$?Initial@CSetting_Price@@MAEXPAUIGraphInfo135914@@@Z:
  00027	90		 npad	 1
  00028	90		 npad	 1
  00029	8b 54 24 08	 mov	 edx, DWORD PTR [esp+8]
  0002d	8d 42 0c	 lea	 eax, DWORD PTR [edx+12]
  00030	8b 4a bc	 mov	 ecx, DWORD PTR [edx-68]
  00033	33 c8		 xor	 ecx, eax
  00035	e8 00 00 00 00	 call	 @__security_check_cookie@4
  0003a	b8 00 00 00 00	 mov	 eax, OFFSET __ehfuncinfo$?Initial@CSetting_Price@@MAEXPAUIGraphInfo135914@@@Z
  0003f	e9 00 00 00 00	 jmp	 ___CxxFrameHandler3
text$x	ENDS
?Initial@CSetting_Price@@MAEXPAUIGraphInfo135914@@@Z ENDP ; CSetting_Price::Initial
; Function compile flags: /Ogtp
; File D:\git\src\IBK\IBK_DRFN\ProjSrc\SrcChartEx\ChartAddIn\ChartEnvSetupDlgAddIn\ChartEnvSetupDlgAddIn\Setting_Price.cpp
;	COMDAT ?GetMessageMap@CSetting_Price@@MBEPBUAFX_MSGMAP@@XZ
_TEXT	SEGMENT
?GetMessageMap@CSetting_Price@@MBEPBUAFX_MSGMAP@@XZ PROC ; CSetting_Price::GetMessageMap, COMDAT
; _this$ = ecx

; 78   : BEGIN_MESSAGE_MAP(CSetting_Price, CBaseDialog)

  00000	b8 00 00 00 00	 mov	 eax, OFFSET ?messageMap@?1??GetThisMessageMap@CSetting_Price@@KGPBUAFX_MSGMAP@@XZ@4U3@B
  00005	c3		 ret	 0
?GetMessageMap@CSetting_Price@@MBEPBUAFX_MSGMAP@@XZ ENDP ; CSetting_Price::GetMessageMap
_TEXT	ENDS
; Function compile flags: /Ogtp
; File D:\git\src\IBK\IBK_DRFN\ProjSrc\SrcChartEx\ChartAddIn\ChartEnvSetupDlgAddIn\ChartEnvSetupDlgAddIn\Setting_Price.cpp
;	COMDAT ?GetThisMessageMap@CSetting_Price@@KGPBUAFX_MSGMAP@@XZ
_TEXT	SEGMENT
?GetThisMessageMap@CSetting_Price@@KGPBUAFX_MSGMAP@@XZ PROC ; CSetting_Price::GetThisMessageMap, COMDAT

; 79   : 	//{{AFX_MSG_MAP(CSetting_Price)
; 80   : 	ON_BN_CLICKED(IDC_EQUIVOLUME_CHART, OnEquiVolumeChart)
; 81   : 	ON_BN_CLICKED(IDC_CANDLEVOLUME_CHART, OnCandleVolumeChart)
; 82   : 	ON_BN_CLICKED(IDC_FLOW_CHART, OnFlowChart)
; 83   : 	ON_BN_CLICKED(IDC_NEWBAR_CHART, OnNewBarChart)
; 84   : 	ON_BN_CLICKED(IDC_BAR_CHART, OnBarChart)
; 85   : 	ON_BN_CLICKED(IDC_BONG_CHART, OnBongChart)
; 86   : 	ON_BN_CLICKED(IDC_LINE_CHART, OnLineChart)
; 87   : 	ON_BN_CLICKED(IDC_STEADY_NORMAL, OnSteadyNormal)
; 88   : 	ON_BN_CLICKED(IDC_STEADY_BEFORECLOSE, OnSteadyBeforeclose)
; 89   : 	ON_BN_CLICKED(IDC_STEADY_SAMECLOSE, OnSteadySameclose)
; 90   : 	ON_BN_CLICKED(IDC_BTN_UP, OnBtnUp)
; 91   : 	ON_BN_CLICKED(IDC_BTN_DOWN, OnBtnDown)
; 92   : 	ON_BN_CLICKED(IDC_BTN_STEADY, OnBtnSteady)
; 93   : 	ON_CBN_SELCHANGE(IDC_THICKNESS, OnSelchangeThickness)
; 94   : 	ON_CBN_SELCHANGE(IDC_DRAWSTYLE, OnSelchangeDrawstyle)
; 95   : 	//}}AFX_MSG_MAP
; 96   : END_MESSAGE_MAP()

  00000	b8 00 00 00 00	 mov	 eax, OFFSET ?messageMap@?1??GetThisMessageMap@CSetting_Price@@KGPBUAFX_MSGMAP@@XZ@4U3@B
  00005	c3		 ret	 0
?GetThisMessageMap@CSetting_Price@@KGPBUAFX_MSGMAP@@XZ ENDP ; CSetting_Price::GetThisMessageMap
_TEXT	ENDS
; Function compile flags: /Ogtp
; File D:\git\src\IBK\IBK_DRFN\ProjSrc\SrcChartEx\ChartAddIn\ChartEnvSetupDlgAddIn\ChartEnvSetupDlgAddIn\Setting_Price.cpp
; File C:\Program Files (x86)\Microsoft Visual Studio\2019\Community\VC\Tools\MSVC\14.29.30133\atlmfc\include\afxwin2.inl
; File D:\git\src\IBK\IBK_DRFN\ProjSrc\SrcChartEx\ChartAddIn\ChartEnvSetupDlgAddIn\ChartEnvSetupDlgAddIn\Setting_Price.cpp
; File C:\Program Files (x86)\Microsoft Visual Studio\2019\Community\VC\Tools\MSVC\14.29.30133\atlmfc\include\afxwin2.inl
; File D:\git\src\IBK\IBK_DRFN\ProjSrc\SrcChartEx\ChartAddIn\ChartEnvSetupDlgAddIn\ChartEnvSetupDlgAddIn\Setting_Price.cpp
; File D:\git\src\IBK\IBK_DRFN\ProjSrc\SrcChartEx\ChartAddIn\ChartEnvSetupDlgAddIn\Include_AddIn_135914\I135914\_IString.h
; File D:\git\src\IBK\IBK_DRFN\ProjSrc\SrcChartEx\ChartAddIn\ChartEnvSetupDlgAddIn\ChartEnvSetupDlgAddIn\Setting_Price.cpp
; File C:\Program Files (x86)\Microsoft Visual Studio\2019\Community\VC\Tools\MSVC\14.29.30133\atlmfc\include\afxwin2.inl
; File D:\git\src\IBK\IBK_DRFN\ProjSrc\SrcChartEx\ChartAddIn\ChartEnvSetupDlgAddIn\ChartEnvSetupDlgAddIn\Setting_Price.cpp
; File D:\git\src\IBK\IBK_DRFN\ProjSrc\SrcChartEx\ChartAddIn\ChartEnvSetupDlgAddIn\Include_AddIn_135914\I135914\_IString.h
; File D:\git\src\IBK\IBK_DRFN\ProjSrc\SrcChartEx\ChartAddIn\ChartEnvSetupDlgAddIn\ChartEnvSetupDlgAddIn\Setting_Price.cpp
;	COMDAT ?OnSelchangeDrawstyle@CSetting_Price@@IAEXXZ
_TEXT	SEGMENT
_szGraphName$2 = -20					; size = 8
__$EHRec$ = -12						; size = 12
?OnSelchangeDrawstyle@CSetting_Price@@IAEXXZ PROC	; CSetting_Price::OnSelchangeDrawstyle, COMDAT
; _this$ = ecx

; 1167 : {

  00000	55		 push	 ebp
  00001	8b ec		 mov	 ebp, esp
  00003	6a ff		 push	 -1
  00005	68 00 00 00 00	 push	 __ehhandler$?OnSelchangeDrawstyle@CSetting_Price@@IAEXXZ
  0000a	64 a1 00 00 00
	00		 mov	 eax, DWORD PTR fs:0
  00010	50		 push	 eax
  00011	83 ec 08	 sub	 esp, 8
  00014	53		 push	 ebx
  00015	56		 push	 esi
  00016	57		 push	 edi
  00017	a1 00 00 00 00	 mov	 eax, DWORD PTR ___security_cookie
  0001c	33 c5		 xor	 eax, ebp
  0001e	50		 push	 eax
  0001f	8d 45 f4	 lea	 eax, DWORD PTR __$EHRec$[ebp]
  00022	64 a3 00 00 00
	00		 mov	 DWORD PTR fs:0, eax
  00028	8b f1		 mov	 esi, ecx
; File C:\Program Files (x86)\Microsoft Visual Studio\2019\Community\VC\Tools\MSVC\14.29.30133\atlmfc\include\afxwin2.inl

; 765  : 	{ ASSERT(::IsWindow(m_hWnd)); return (int)::SendMessage(m_hWnd, CB_GETCURSEL, 0, 0); }

  0002a	8b 1d 00 00 00
	00		 mov	 ebx, DWORD PTR __imp__SendMessageA@16
  00030	6a 00		 push	 0
  00032	6a 00		 push	 0
  00034	68 47 01 00 00	 push	 327			; 00000147H
  00039	ff b6 b0 05 00
	00		 push	 DWORD PTR [esi+1456]
  0003f	ff d3		 call	 ebx
; File D:\git\src\IBK\IBK_DRFN\ProjSrc\SrcChartEx\ChartAddIn\ChartEnvSetupDlgAddIn\ChartEnvSetupDlgAddIn\Setting_Price.cpp

; 1169 : 	if( m_Thickness_Combo.GetCurSel() != 0 && m_DrawStyle_Combo.GetCurSel() != 0 )

  00041	85 c0		 test	 eax, eax
  00043	0f 84 d0 00 00
	00		 je	 $LN2@OnSelchang
; File C:\Program Files (x86)\Microsoft Visual Studio\2019\Community\VC\Tools\MSVC\14.29.30133\atlmfc\include\afxwin2.inl

; 765  : 	{ ASSERT(::IsWindow(m_hWnd)); return (int)::SendMessage(m_hWnd, CB_GETCURSEL, 0, 0); }

  00049	6a 00		 push	 0
  0004b	6a 00		 push	 0
  0004d	68 47 01 00 00	 push	 327			; 00000147H
  00052	ff b6 38 06 00
	00		 push	 DWORD PTR [esi+1592]
  00058	ff d3		 call	 ebx
; File D:\git\src\IBK\IBK_DRFN\ProjSrc\SrcChartEx\ChartAddIn\ChartEnvSetupDlgAddIn\ChartEnvSetupDlgAddIn\Setting_Price.cpp

; 1169 : 	if( m_Thickness_Combo.GetCurSel() != 0 && m_DrawStyle_Combo.GetCurSel() != 0 )

  0005a	85 c0		 test	 eax, eax
  0005c	0f 84 b7 00 00
	00		 je	 $LN2@OnSelchang

; 1174 : 		ILPCSTR szGraphName = m_pIGraphInfo->GetGraphNameString();

  00062	8b 8e c4 00 00
	00		 mov	 ecx, DWORD PTR [esi+196]
  00068	8b 01		 mov	 eax, DWORD PTR [ecx]
  0006a	ff 90 a0 00 00
	00		 call	 DWORD PTR [eax+160]
; File D:\git\src\IBK\IBK_DRFN\ProjSrc\SrcChartEx\ChartAddIn\ChartEnvSetupDlgAddIn\Include_AddIn_135914\I135914\_IString.h

; 39   : 		m_pIStrData = p_pIString;	// Do not AddRef(). Because It must be Return Value.

  00070	8b f8		 mov	 edi, eax
  00072	89 7d f0	 mov	 DWORD PTR _szGraphName$2[ebp+4], edi

; 40   : 		if( m_pIStrData) m_szData = m_pIStrData->GetData();

  00075	85 ff		 test	 edi, edi
  00077	74 0b		 je	 SHORT $LN12@OnSelchang
  00079	8b 17		 mov	 edx, DWORD PTR [edi]
  0007b	8b cf		 mov	 ecx, edi
  0007d	ff 52 10	 call	 DWORD PTR [edx+16]
  00080	8b c8		 mov	 ecx, eax
  00082	eb 02		 jmp	 SHORT $LN28@OnSelchang
$LN12@OnSelchang:

; 41   : 		else m_szData = NULL;

  00084	33 c9		 xor	 ecx, ecx
$LN28@OnSelchang:
; File D:\git\src\IBK\IBK_DRFN\ProjSrc\SrcChartEx\ChartAddIn\ChartEnvSetupDlgAddIn\ChartEnvSetupDlgAddIn\Setting_Price.cpp

; 1174 : 		ILPCSTR szGraphName = m_pIGraphInfo->GetGraphNameString();

  00086	89 4d ec	 mov	 DWORD PTR _szGraphName$2[ebp], ecx

; 1175 : // 2008.01.25 by LYH >>
; 1176 : //		if( strcmp( szGraphName, "")) 
; 1177 : 			//AfxMessageBox(" \"\"     .");
; 1178 : 		if( strcmp( szGraphName, _MTEXT( C2_RAINBOW_CHART )))

  00089	a1 54 00 00 00	 mov	 eax, DWORD PTR ?g_iMetaTable@@3VIMetaTable@@A+84
  0008e	c7 45 fc 00 00
	00 00		 mov	 DWORD PTR __$EHRec$[ebp+8], 0
  00095	8b 80 30 03 00
	00		 mov	 eax, DWORD PTR [eax+816]
  0009b	0f 1f 44 00 00	 npad	 5
$LL23@OnSelchang:
  000a0	8a 11		 mov	 dl, BYTE PTR [ecx]
  000a2	3a 10		 cmp	 dl, BYTE PTR [eax]
  000a4	75 1a		 jne	 SHORT $LN24@OnSelchang
  000a6	84 d2		 test	 dl, dl
  000a8	74 12		 je	 SHORT $LN25@OnSelchang
  000aa	8a 51 01	 mov	 dl, BYTE PTR [ecx+1]
  000ad	3a 50 01	 cmp	 dl, BYTE PTR [eax+1]
  000b0	75 0e		 jne	 SHORT $LN24@OnSelchang
  000b2	83 c1 02	 add	 ecx, 2
  000b5	83 c0 02	 add	 eax, 2
  000b8	84 d2		 test	 dl, dl
  000ba	75 e4		 jne	 SHORT $LL23@OnSelchang
$LN25@OnSelchang:
  000bc	33 c0		 xor	 eax, eax
  000be	eb 05		 jmp	 SHORT $LN26@OnSelchang
$LN24@OnSelchang:
  000c0	1b c0		 sbb	 eax, eax
  000c2	83 c8 01	 or	 eax, 1
$LN26@OnSelchang:
  000c5	85 c0		 test	 eax, eax
  000c7	74 0f		 je	 SHORT $LN4@OnSelchang

; 1179 : 			AfxMessageBox(m_strMsgLineThick);

  000c9	6a 00		 push	 0
  000cb	6a 00		 push	 0
  000cd	ff b6 dc 00 00
	00		 push	 DWORD PTR [esi+220]
  000d3	e8 00 00 00 00	 call	 ?AfxMessageBox@@YGHPBDII@Z ; AfxMessageBox
$LN4@OnSelchang:
; File C:\Program Files (x86)\Microsoft Visual Studio\2019\Community\VC\Tools\MSVC\14.29.30133\atlmfc\include\afxwin2.inl

; 767  : 	{ ASSERT(::IsWindow(m_hWnd)); return (int)::SendMessage(m_hWnd, CB_SETCURSEL, nSelect, 0); }

  000d8	6a 00		 push	 0
  000da	6a 00		 push	 0
  000dc	68 4e 01 00 00	 push	 334			; 0000014eH
  000e1	ff b6 b0 05 00
	00		 push	 DWORD PTR [esi+1456]
  000e7	ff d3		 call	 ebx
; File D:\git\src\IBK\IBK_DRFN\ProjSrc\SrcChartEx\ChartAddIn\ChartEnvSetupDlgAddIn\ChartEnvSetupDlgAddIn\Setting_Price.cpp

; 1184 : 		m_Thickness_Combo.EnableWindow(FALSE);

  000e9	6a 00		 push	 0
  000eb	8d 8e 90 05 00
	00		 lea	 ecx, DWORD PTR [esi+1424]
  000f1	e8 00 00 00 00	 call	 ?EnableWindow@CWnd@@QAEHH@Z ; CWnd::EnableWindow
; File D:\git\src\IBK\IBK_DRFN\ProjSrc\SrcChartEx\ChartAddIn\ChartEnvSetupDlgAddIn\Include_AddIn_135914\I135914\_IString.h

; 44   : 	{

  000f6	c7 45 fc 01 00
	00 00		 mov	 DWORD PTR __$EHRec$[ebp+8], 1

; 45   : 		if( m_pIStrData)

  000fd	85 ff		 test	 edi, edi
  000ff	74 25		 je	 SHORT $LN3@OnSelchang

; 46   : 		{
; 47   : 			m_pIStrData->Release();

  00101	8b 07		 mov	 eax, DWORD PTR [edi]
  00103	57		 push	 edi
  00104	ff 50 08	 call	 DWORD PTR [eax+8]
; File D:\git\src\IBK\IBK_DRFN\ProjSrc\SrcChartEx\ChartAddIn\ChartEnvSetupDlgAddIn\ChartEnvSetupDlgAddIn\Setting_Price.cpp

; 1190 : }

  00107	8b 4d f4	 mov	 ecx, DWORD PTR __$EHRec$[ebp]
  0010a	64 89 0d 00 00
	00 00		 mov	 DWORD PTR fs:0, ecx
  00111	59		 pop	 ecx
  00112	5f		 pop	 edi
  00113	5e		 pop	 esi
  00114	5b		 pop	 ebx
  00115	8b e5		 mov	 esp, ebp
  00117	5d		 pop	 ebp
  00118	c3		 ret	 0
$LN2@OnSelchang:

; 1185 : 		return;
; 1186 : 	}
; 1187 : 
; 1188 : 	else
; 1189 : 		m_Thickness_Combo.EnableWindow(TRUE);

  00119	6a 01		 push	 1
  0011b	8d 8e 90 05 00
	00		 lea	 ecx, DWORD PTR [esi+1424]
  00121	e8 00 00 00 00	 call	 ?EnableWindow@CWnd@@QAEHH@Z ; CWnd::EnableWindow
$LN3@OnSelchang:

; 1190 : }

  00126	8b 4d f4	 mov	 ecx, DWORD PTR __$EHRec$[ebp]
  00129	64 89 0d 00 00
	00 00		 mov	 DWORD PTR fs:0, ecx
  00130	59		 pop	 ecx
  00131	5f		 pop	 edi
  00132	5e		 pop	 esi
  00133	5b		 pop	 ebx
  00134	8b e5		 mov	 esp, ebp
  00136	5d		 pop	 ebp
  00137	c3		 ret	 0
_TEXT	ENDS
;	COMDAT text$x
text$x	SEGMENT
__unwindfunclet$?OnSelchangeDrawstyle@CSetting_Price@@IAEXXZ$0:
  00000	8d 4d ec	 lea	 ecx, DWORD PTR _szGraphName$2[ebp]
  00003	e9 00 00 00 00	 jmp	 ??1ILPCSTR135914@@QAE@XZ ; ILPCSTR135914::~ILPCSTR135914
  00008	cc		 int	 3
  00009	cc		 int	 3
  0000a	cc		 int	 3
  0000b	cc		 int	 3
  0000c	cc		 int	 3
__ehhandler$?OnSelchangeDrawstyle@CSetting_Price@@IAEXXZ:
  0000d	90		 npad	 1
  0000e	90		 npad	 1
  0000f	8b 54 24 08	 mov	 edx, DWORD PTR [esp+8]
  00013	8d 42 0c	 lea	 eax, DWORD PTR [edx+12]
  00016	8b 4a e8	 mov	 ecx, DWORD PTR [edx-24]
  00019	33 c8		 xor	 ecx, eax
  0001b	e8 00 00 00 00	 call	 @__security_check_cookie@4
  00020	b8 00 00 00 00	 mov	 eax, OFFSET __ehfuncinfo$?OnSelchangeDrawstyle@CSetting_Price@@IAEXXZ
  00025	e9 00 00 00 00	 jmp	 ___CxxFrameHandler3
text$x	ENDS
?OnSelchangeDrawstyle@CSetting_Price@@IAEXXZ ENDP	; CSetting_Price::OnSelchangeDrawstyle
; Function compile flags: /Ogtp
; File D:\git\src\IBK\IBK_DRFN\ProjSrc\SrcChartEx\ChartAddIn\ChartEnvSetupDlgAddIn\ChartEnvSetupDlgAddIn\Setting_Price.cpp
; File C:\Program Files (x86)\Microsoft Visual Studio\2019\Community\VC\Tools\MSVC\14.29.30133\atlmfc\include\afxwin2.inl
; File D:\git\src\IBK\IBK_DRFN\ProjSrc\SrcChartEx\ChartAddIn\ChartEnvSetupDlgAddIn\ChartEnvSetupDlgAddIn\Setting_Price.cpp
; File C:\Program Files (x86)\Microsoft Visual Studio\2019\Community\VC\Tools\MSVC\14.29.30133\atlmfc\include\afxwin2.inl
; File D:\git\src\IBK\IBK_DRFN\ProjSrc\SrcChartEx\ChartAddIn\ChartEnvSetupDlgAddIn\ChartEnvSetupDlgAddIn\Setting_Price.cpp
; File D:\git\src\IBK\IBK_DRFN\ProjSrc\SrcChartEx\ChartAddIn\ChartEnvSetupDlgAddIn\Include_AddIn_135914\I135914\_IString.h
; File D:\git\src\IBK\IBK_DRFN\ProjSrc\SrcChartEx\ChartAddIn\ChartEnvSetupDlgAddIn\ChartEnvSetupDlgAddIn\Setting_Price.cpp
; File C:\Program Files (x86)\Microsoft Visual Studio\2019\Community\VC\Tools\MSVC\14.29.30133\atlmfc\include\afxwin2.inl
; File D:\git\src\IBK\IBK_DRFN\ProjSrc\SrcChartEx\ChartAddIn\ChartEnvSetupDlgAddIn\ChartEnvSetupDlgAddIn\Setting_Price.cpp
; File D:\git\src\IBK\IBK_DRFN\ProjSrc\SrcChartEx\ChartAddIn\ChartEnvSetupDlgAddIn\Include_AddIn_135914\I135914\_IString.h
; File D:\git\src\IBK\IBK_DRFN\ProjSrc\SrcChartEx\ChartAddIn\ChartEnvSetupDlgAddIn\ChartEnvSetupDlgAddIn\Setting_Price.cpp
;	COMDAT ?OnSelchangeThickness@CSetting_Price@@IAEXXZ
_TEXT	SEGMENT
_szGraphName$2 = -20					; size = 8
__$EHRec$ = -12						; size = 12
?OnSelchangeThickness@CSetting_Price@@IAEXXZ PROC	; CSetting_Price::OnSelchangeThickness, COMDAT
; _this$ = ecx

; 1135 : {

  00000	55		 push	 ebp
  00001	8b ec		 mov	 ebp, esp
  00003	6a ff		 push	 -1
  00005	68 00 00 00 00	 push	 __ehhandler$?OnSelchangeThickness@CSetting_Price@@IAEXXZ
  0000a	64 a1 00 00 00
	00		 mov	 eax, DWORD PTR fs:0
  00010	50		 push	 eax
  00011	83 ec 08	 sub	 esp, 8
  00014	53		 push	 ebx
  00015	56		 push	 esi
  00016	57		 push	 edi
  00017	a1 00 00 00 00	 mov	 eax, DWORD PTR ___security_cookie
  0001c	33 c5		 xor	 eax, ebp
  0001e	50		 push	 eax
  0001f	8d 45 f4	 lea	 eax, DWORD PTR __$EHRec$[ebp]
  00022	64 a3 00 00 00
	00		 mov	 DWORD PTR fs:0, eax
  00028	8b f1		 mov	 esi, ecx

; 1136 : 	// TODO: Add your control notification handler code here
; 1137 : 
; 1138 : 	// (2007/12/17 - Seung-Won, Bae) for Not-Candle Type
; 1139 : 	int nSubGraphType = m_pIGraphInfo->GetSubGraphType( 0);

  0002a	8b 8e c4 00 00
	00		 mov	 ecx, DWORD PTR [esi+196]
  00030	6a 00		 push	 0
  00032	8b 01		 mov	 eax, DWORD PTR [ecx]
  00034	ff 50 50	 call	 DWORD PTR [eax+80]

; 1142 : 		&& m_DrawStyle_Combo.GetCurSel() != 0 )

  00037	85 c0		 test	 eax, eax
  00039	0f 84 24 01 00
	00		 je	 $LN2@OnSelchang
; File C:\Program Files (x86)\Microsoft Visual Studio\2019\Community\VC\Tools\MSVC\14.29.30133\atlmfc\include\afxwin2.inl

; 765  : 	{ ASSERT(::IsWindow(m_hWnd)); return (int)::SendMessage(m_hWnd, CB_GETCURSEL, 0, 0); }

  0003f	8b 1d 00 00 00
	00		 mov	 ebx, DWORD PTR __imp__SendMessageA@16
  00045	6a 00		 push	 0
  00047	6a 00		 push	 0
  00049	68 47 01 00 00	 push	 327			; 00000147H
  0004e	ff b6 b0 05 00
	00		 push	 DWORD PTR [esi+1456]
  00054	ff d3		 call	 ebx
; File D:\git\src\IBK\IBK_DRFN\ProjSrc\SrcChartEx\ChartAddIn\ChartEnvSetupDlgAddIn\ChartEnvSetupDlgAddIn\Setting_Price.cpp

; 1142 : 		&& m_DrawStyle_Combo.GetCurSel() != 0 )

  00056	85 c0		 test	 eax, eax
  00058	0f 84 05 01 00
	00		 je	 $LN2@OnSelchang
; File C:\Program Files (x86)\Microsoft Visual Studio\2019\Community\VC\Tools\MSVC\14.29.30133\atlmfc\include\afxwin2.inl

; 765  : 	{ ASSERT(::IsWindow(m_hWnd)); return (int)::SendMessage(m_hWnd, CB_GETCURSEL, 0, 0); }

  0005e	6a 00		 push	 0
  00060	6a 00		 push	 0
  00062	68 47 01 00 00	 push	 327			; 00000147H
  00067	ff b6 38 06 00
	00		 push	 DWORD PTR [esi+1592]
  0006d	ff d3		 call	 ebx
; File D:\git\src\IBK\IBK_DRFN\ProjSrc\SrcChartEx\ChartAddIn\ChartEnvSetupDlgAddIn\ChartEnvSetupDlgAddIn\Setting_Price.cpp

; 1142 : 		&& m_DrawStyle_Combo.GetCurSel() != 0 )

  0006f	85 c0		 test	 eax, eax
  00071	0f 84 ec 00 00
	00		 je	 $LN2@OnSelchang

; 1147 : 		ILPCSTR szGraphName = m_pIGraphInfo->GetGraphNameString();

  00077	8b 8e c4 00 00
	00		 mov	 ecx, DWORD PTR [esi+196]
  0007d	8b 01		 mov	 eax, DWORD PTR [ecx]
  0007f	ff 90 a0 00 00
	00		 call	 DWORD PTR [eax+160]
; File D:\git\src\IBK\IBK_DRFN\ProjSrc\SrcChartEx\ChartAddIn\ChartEnvSetupDlgAddIn\Include_AddIn_135914\I135914\_IString.h

; 39   : 		m_pIStrData = p_pIString;	// Do not AddRef(). Because It must be Return Value.

  00085	8b f8		 mov	 edi, eax
  00087	89 7d f0	 mov	 DWORD PTR _szGraphName$2[ebp+4], edi

; 40   : 		if( m_pIStrData) m_szData = m_pIStrData->GetData();

  0008a	85 ff		 test	 edi, edi
  0008c	74 09		 je	 SHORT $LN12@OnSelchang
  0008e	8b 17		 mov	 edx, DWORD PTR [edi]
  00090	8b cf		 mov	 ecx, edi
  00092	ff 52 10	 call	 DWORD PTR [edx+16]
  00095	eb 02		 jmp	 SHORT $LN32@OnSelchang
$LN12@OnSelchang:

; 41   : 		else m_szData = NULL;

  00097	33 c0		 xor	 eax, eax
$LN32@OnSelchang:
; File D:\git\src\IBK\IBK_DRFN\ProjSrc\SrcChartEx\ChartAddIn\ChartEnvSetupDlgAddIn\ChartEnvSetupDlgAddIn\Setting_Price.cpp

; 1147 : 		ILPCSTR szGraphName = m_pIGraphInfo->GetGraphNameString();

  00099	89 45 ec	 mov	 DWORD PTR _szGraphName$2[ebp], eax

; 1148 : // 2008.01.25 by LYH >>
; 1149 : 		//if( strcmp( szGraphName, "") && strcmp( szGraphName, "Box Chart"))
; 1150 : 			//AfxMessageBox(" \"1pt\"     .");
; 1151 : 		if( strcmp( szGraphName, _MTEXT( C2_RAINBOW_CHART )) && strcmp( szGraphName, _MTEXT( C2_BOX_CHART )))

  0009c	8b 15 54 00 00
	00		 mov	 edx, DWORD PTR ?g_iMetaTable@@3VIMetaTable@@A+84
  000a2	8b c8		 mov	 ecx, eax
  000a4	c7 45 fc 00 00
	00 00		 mov	 DWORD PTR __$EHRec$[ebp+8], 0
  000ab	8b 92 30 03 00
	00		 mov	 edx, DWORD PTR [edx+816]
$LL23@OnSelchang:
  000b1	8a 19		 mov	 bl, BYTE PTR [ecx]
  000b3	3a 1a		 cmp	 bl, BYTE PTR [edx]
  000b5	75 1a		 jne	 SHORT $LN24@OnSelchang
  000b7	84 db		 test	 bl, bl
  000b9	74 12		 je	 SHORT $LN25@OnSelchang
  000bb	8a 59 01	 mov	 bl, BYTE PTR [ecx+1]
  000be	3a 5a 01	 cmp	 bl, BYTE PTR [edx+1]
  000c1	75 0e		 jne	 SHORT $LN24@OnSelchang
  000c3	83 c1 02	 add	 ecx, 2
  000c6	83 c2 02	 add	 edx, 2
  000c9	84 db		 test	 bl, bl
  000cb	75 e4		 jne	 SHORT $LL23@OnSelchang
$LN25@OnSelchang:
  000cd	33 c9		 xor	 ecx, ecx
  000cf	eb 05		 jmp	 SHORT $LN26@OnSelchang
$LN24@OnSelchang:
  000d1	1b c9		 sbb	 ecx, ecx
  000d3	83 c9 01	 or	 ecx, 1
$LN26@OnSelchang:
  000d6	85 c9		 test	 ecx, ecx
  000d8	74 44		 je	 SHORT $LN4@OnSelchang
  000da	8b 0d 54 00 00
	00		 mov	 ecx, DWORD PTR ?g_iMetaTable@@3VIMetaTable@@A+84
  000e0	8b 89 40 03 00
	00		 mov	 ecx, DWORD PTR [ecx+832]
$LL27@OnSelchang:
  000e6	8a 10		 mov	 dl, BYTE PTR [eax]
  000e8	3a 11		 cmp	 dl, BYTE PTR [ecx]
  000ea	75 1a		 jne	 SHORT $LN28@OnSelchang
  000ec	84 d2		 test	 dl, dl
  000ee	74 12		 je	 SHORT $LN29@OnSelchang
  000f0	8a 50 01	 mov	 dl, BYTE PTR [eax+1]
  000f3	3a 51 01	 cmp	 dl, BYTE PTR [ecx+1]
  000f6	75 0e		 jne	 SHORT $LN28@OnSelchang
  000f8	83 c0 02	 add	 eax, 2
  000fb	83 c1 02	 add	 ecx, 2
  000fe	84 d2		 test	 dl, dl
  00100	75 e4		 jne	 SHORT $LL27@OnSelchang
$LN29@OnSelchang:
  00102	33 c0		 xor	 eax, eax
  00104	eb 05		 jmp	 SHORT $LN30@OnSelchang
$LN28@OnSelchang:
  00106	1b c0		 sbb	 eax, eax
  00108	83 c8 01	 or	 eax, 1
$LN30@OnSelchang:
  0010b	85 c0		 test	 eax, eax
  0010d	74 0f		 je	 SHORT $LN4@OnSelchang

; 1152 : 			AfxMessageBox(m_strMsgLineShape);

  0010f	6a 00		 push	 0
  00111	6a 00		 push	 0
  00113	ff b6 e0 00 00
	00		 push	 DWORD PTR [esi+224]
  00119	e8 00 00 00 00	 call	 ?AfxMessageBox@@YGHPBDII@Z ; AfxMessageBox
$LN4@OnSelchang:
; File C:\Program Files (x86)\Microsoft Visual Studio\2019\Community\VC\Tools\MSVC\14.29.30133\atlmfc\include\afxwin2.inl

; 767  : 	{ ASSERT(::IsWindow(m_hWnd)); return (int)::SendMessage(m_hWnd, CB_SETCURSEL, nSelect, 0); }

  0011e	6a 00		 push	 0
  00120	6a 00		 push	 0
  00122	68 4e 01 00 00	 push	 334			; 0000014eH
  00127	ff b6 38 06 00
	00		 push	 DWORD PTR [esi+1592]
  0012d	ff 15 00 00 00
	00		 call	 DWORD PTR __imp__SendMessageA@16
; File D:\git\src\IBK\IBK_DRFN\ProjSrc\SrcChartEx\ChartAddIn\ChartEnvSetupDlgAddIn\ChartEnvSetupDlgAddIn\Setting_Price.cpp

; 1157 : 		m_DrawStyle_Combo.EnableWindow(FALSE);

  00133	6a 00		 push	 0
  00135	8d 8e 18 06 00
	00		 lea	 ecx, DWORD PTR [esi+1560]
  0013b	e8 00 00 00 00	 call	 ?EnableWindow@CWnd@@QAEHH@Z ; CWnd::EnableWindow
; File D:\git\src\IBK\IBK_DRFN\ProjSrc\SrcChartEx\ChartAddIn\ChartEnvSetupDlgAddIn\Include_AddIn_135914\I135914\_IString.h

; 44   : 	{

  00140	c7 45 fc 01 00
	00 00		 mov	 DWORD PTR __$EHRec$[ebp+8], 1

; 45   : 		if( m_pIStrData)

  00147	85 ff		 test	 edi, edi
  00149	74 25		 je	 SHORT $LN3@OnSelchang

; 46   : 		{
; 47   : 			m_pIStrData->Release();

  0014b	8b 07		 mov	 eax, DWORD PTR [edi]
  0014d	57		 push	 edi
  0014e	ff 50 08	 call	 DWORD PTR [eax+8]
; File D:\git\src\IBK\IBK_DRFN\ProjSrc\SrcChartEx\ChartAddIn\ChartEnvSetupDlgAddIn\ChartEnvSetupDlgAddIn\Setting_Price.cpp

; 1163 : }

  00151	8b 4d f4	 mov	 ecx, DWORD PTR __$EHRec$[ebp]
  00154	64 89 0d 00 00
	00 00		 mov	 DWORD PTR fs:0, ecx
  0015b	59		 pop	 ecx
  0015c	5f		 pop	 edi
  0015d	5e		 pop	 esi
  0015e	5b		 pop	 ebx
  0015f	8b e5		 mov	 esp, ebp
  00161	5d		 pop	 ebp
  00162	c3		 ret	 0
$LN2@OnSelchang:

; 1158 : 		return;
; 1159 : 	}	
; 1160 : 
; 1161 : 	else
; 1162 : 		m_DrawStyle_Combo.EnableWindow(TRUE);	

  00163	6a 01		 push	 1
  00165	8d 8e 18 06 00
	00		 lea	 ecx, DWORD PTR [esi+1560]
  0016b	e8 00 00 00 00	 call	 ?EnableWindow@CWnd@@QAEHH@Z ; CWnd::EnableWindow
$LN3@OnSelchang:

; 1163 : }

  00170	8b 4d f4	 mov	 ecx, DWORD PTR __$EHRec$[ebp]
  00173	64 89 0d 00 00
	00 00		 mov	 DWORD PTR fs:0, ecx
  0017a	59		 pop	 ecx
  0017b	5f		 pop	 edi
  0017c	5e		 pop	 esi
  0017d	5b		 pop	 ebx
  0017e	8b e5		 mov	 esp, ebp
  00180	5d		 pop	 ebp
  00181	c3		 ret	 0
_TEXT	ENDS
;	COMDAT text$x
text$x	SEGMENT
__unwindfunclet$?OnSelchangeThickness@CSetting_Price@@IAEXXZ$0:
  00000	8d 4d ec	 lea	 ecx, DWORD PTR _szGraphName$2[ebp]
  00003	e9 00 00 00 00	 jmp	 ??1ILPCSTR135914@@QAE@XZ ; ILPCSTR135914::~ILPCSTR135914
  00008	cc		 int	 3
  00009	cc		 int	 3
  0000a	cc		 int	 3
  0000b	cc		 int	 3
  0000c	cc		 int	 3
__ehhandler$?OnSelchangeThickness@CSetting_Price@@IAEXXZ:
  0000d	90		 npad	 1
  0000e	90		 npad	 1
  0000f	8b 54 24 08	 mov	 edx, DWORD PTR [esp+8]
  00013	8d 42 0c	 lea	 eax, DWORD PTR [edx+12]
  00016	8b 4a e8	 mov	 ecx, DWORD PTR [edx-24]
  00019	33 c8		 xor	 ecx, eax
  0001b	e8 00 00 00 00	 call	 @__security_check_cookie@4
  00020	b8 00 00 00 00	 mov	 eax, OFFSET __ehfuncinfo$?OnSelchangeThickness@CSetting_Price@@IAEXXZ
  00025	e9 00 00 00 00	 jmp	 ___CxxFrameHandler3
text$x	ENDS
?OnSelchangeThickness@CSetting_Price@@IAEXXZ ENDP	; CSetting_Price::OnSelchangeThickness
; Function compile flags: /Ogtp
; File D:\git\src\IBK\IBK_DRFN\ProjSrc\SrcChartEx\ChartAddIn\ChartEnvSetupDlgAddIn\ChartEnvSetupDlgAddIn\Setting_Price.cpp
; File C:\Program Files (x86)\Microsoft Visual Studio\2019\Community\VC\Tools\MSVC\14.29.30133\atlmfc\include\afxwin2.inl
; File C:\Program Files (x86)\Microsoft Visual Studio\2019\Community\VC\Tools\MSVC\14.29.30133\atlmfc\include\afxdlgs.h
; File D:\git\src\IBK\IBK_DRFN\ProjSrc\SrcChartEx\ChartAddIn\ChartEnvSetupDlgAddIn\ChartEnvSetupDlgAddIn\Setting_Price.cpp
;	COMDAT ?OnBtnSteady@CSetting_Price@@IAEXXZ
_TEXT	SEGMENT
_color$ = -224						; size = 208
$T2 = -16						; size = 4
__$EHRec$ = -12						; size = 12
?OnBtnSteady@CSetting_Price@@IAEXXZ PROC		; CSetting_Price::OnBtnSteady, COMDAT
; _this$ = ecx

; 1015 : {

  00000	55		 push	 ebp
  00001	8b ec		 mov	 ebp, esp
  00003	6a ff		 push	 -1
  00005	68 00 00 00 00	 push	 __ehhandler$?OnBtnSteady@CSetting_Price@@IAEXXZ
  0000a	64 a1 00 00 00
	00		 mov	 eax, DWORD PTR fs:0
  00010	50		 push	 eax
  00011	81 ec d4 00 00
	00		 sub	 esp, 212		; 000000d4H
  00017	56		 push	 esi
  00018	57		 push	 edi
  00019	a1 00 00 00 00	 mov	 eax, DWORD PTR ___security_cookie
  0001e	33 c5		 xor	 eax, ebp
  00020	50		 push	 eax
  00021	8d 45 f4	 lea	 eax, DWORD PTR __$EHRec$[ebp]
  00024	64 a3 00 00 00
	00		 mov	 DWORD PTR fs:0, eax
  0002a	8b f1		 mov	 esi, ecx

; 1016 : 	// TODO: Add your control notification handler code here
; 1017 : 	COLORREF crColor = m_btnSteady.GetColor();

  0002c	8d 8e 80 01 00
	00		 lea	 ecx, DWORD PTR [esi+384]
  00032	e8 00 00 00 00	 call	 ?GetColor@CColorButton@@QAEKXZ ; CColorButton::GetColor

; 1018 : 	CColorDialog color(crColor, CC_FULLOPEN);

  00037	6a 00		 push	 0
  00039	6a 02		 push	 2
  0003b	50		 push	 eax
  0003c	8d 8d 20 ff ff
	ff		 lea	 ecx, DWORD PTR _color$[ebp]
  00042	e8 00 00 00 00	 call	 ??0CColorDialog@@QAE@KKPAVCWnd@@@Z ; CColorDialog::CColorDialog

; 1019 : 	if(color.DoModal() == IDOK) 

  00047	8d 8d 20 ff ff
	ff		 lea	 ecx, DWORD PTR _color$[ebp]
  0004d	c7 45 fc 00 00
	00 00		 mov	 DWORD PTR __$EHRec$[ebp+8], 0
  00054	e8 00 00 00 00	 call	 ?DoModal@CColorDialog@@UAEHXZ ; CColorDialog::DoModal
  00059	83 f8 01	 cmp	 eax, 1
  0005c	75 25		 jne	 SHORT $LN2@OnBtnStead

; 1020 : 	{
; 1021 : 		m_btnSteady.SetColor( color.GetColor() );

  0005e	8b 45 d4	 mov	 eax, DWORD PTR _color$[ebp+180]
  00061	8d 8e 80 01 00
	00		 lea	 ecx, DWORD PTR [esi+384]
  00067	89 45 f0	 mov	 DWORD PTR $T2[ebp], eax
  0006a	8d 45 f0	 lea	 eax, DWORD PTR $T2[ebp]
  0006d	50		 push	 eax
  0006e	e8 00 00 00 00	 call	 ?SetColor@CColorButton@@QAEXABK@Z ; CColorButton::SetColor
; File C:\Program Files (x86)\Microsoft Visual Studio\2019\Community\VC\Tools\MSVC\14.29.30133\atlmfc\include\afxwin2.inl

; 114  : 	{ ASSERT(::IsWindow(m_hWnd)); ::InvalidateRect(m_hWnd, NULL, bErase); }

  00073	6a 01		 push	 1
  00075	6a 00		 push	 0
  00077	ff b6 a0 01 00
	00		 push	 DWORD PTR [esi+416]
  0007d	ff 15 00 00 00
	00		 call	 DWORD PTR __imp__InvalidateRect@12
$LN2@OnBtnStead:
; File C:\Program Files (x86)\Microsoft Visual Studio\2019\Community\VC\Tools\MSVC\14.29.30133\atlmfc\include\afxdlgs.h

; 110  :     virtual ~CCommonDialog() {};

  00083	8d 8d 20 ff ff
	ff		 lea	 ecx, DWORD PTR _color$[ebp]
  00089	c7 85 20 ff ff
	ff 00 00 00 00	 mov	 DWORD PTR _color$[ebp], OFFSET ??_7CCommonDialog@@6B@
  00093	e8 00 00 00 00	 call	 ??1CDialog@@UAE@XZ	; CDialog::~CDialog
; File D:\git\src\IBK\IBK_DRFN\ProjSrc\SrcChartEx\ChartAddIn\ChartEnvSetupDlgAddIn\ChartEnvSetupDlgAddIn\Setting_Price.cpp

; 1024 : }

  00098	8b 4d f4	 mov	 ecx, DWORD PTR __$EHRec$[ebp]
  0009b	64 89 0d 00 00
	00 00		 mov	 DWORD PTR fs:0, ecx
  000a2	59		 pop	 ecx
  000a3	5f		 pop	 edi
  000a4	5e		 pop	 esi
  000a5	8b e5		 mov	 esp, ebp
  000a7	5d		 pop	 ebp
  000a8	c3		 ret	 0
_TEXT	ENDS
;	COMDAT text$x
text$x	SEGMENT
__unwindfunclet$?OnBtnSteady@CSetting_Price@@IAEXXZ$0:
  00000	8d 8d 20 ff ff
	ff		 lea	 ecx, DWORD PTR _color$[ebp]
  00006	e9 00 00 00 00	 jmp	 ??1CColorDialog@@UAE@XZ
  0000b	cc		 int	 3
  0000c	cc		 int	 3
  0000d	cc		 int	 3
  0000e	cc		 int	 3
  0000f	cc		 int	 3
__ehhandler$?OnBtnSteady@CSetting_Price@@IAEXXZ:
  00010	90		 npad	 1
  00011	90		 npad	 1
  00012	8b 54 24 08	 mov	 edx, DWORD PTR [esp+8]
  00016	8d 42 0c	 lea	 eax, DWORD PTR [edx+12]
  00019	8b 8a 20 ff ff
	ff		 mov	 ecx, DWORD PTR [edx-224]
  0001f	33 c8		 xor	 ecx, eax
  00021	e8 00 00 00 00	 call	 @__security_check_cookie@4
  00026	b8 00 00 00 00	 mov	 eax, OFFSET __ehfuncinfo$?OnBtnSteady@CSetting_Price@@IAEXXZ
  0002b	e9 00 00 00 00	 jmp	 ___CxxFrameHandler3
text$x	ENDS
?OnBtnSteady@CSetting_Price@@IAEXXZ ENDP		; CSetting_Price::OnBtnSteady
; Function compile flags: /Ogtp
; File D:\git\src\IBK\IBK_DRFN\ProjSrc\SrcChartEx\ChartAddIn\ChartEnvSetupDlgAddIn\ChartEnvSetupDlgAddIn\Setting_Price.cpp
; File C:\Program Files (x86)\Microsoft Visual Studio\2019\Community\VC\Tools\MSVC\14.29.30133\atlmfc\include\afxwin2.inl
; File C:\Program Files (x86)\Microsoft Visual Studio\2019\Community\VC\Tools\MSVC\14.29.30133\atlmfc\include\afxdlgs.h
; File D:\git\src\IBK\IBK_DRFN\ProjSrc\SrcChartEx\ChartAddIn\ChartEnvSetupDlgAddIn\ChartEnvSetupDlgAddIn\Setting_Price.cpp
;	COMDAT ?OnBtnDown@CSetting_Price@@IAEXXZ
_TEXT	SEGMENT
_color$ = -224						; size = 208
$T2 = -16						; size = 4
__$EHRec$ = -12						; size = 12
?OnBtnDown@CSetting_Price@@IAEXXZ PROC			; CSetting_Price::OnBtnDown, COMDAT
; _this$ = ecx

; 997  : {

  00000	55		 push	 ebp
  00001	8b ec		 mov	 ebp, esp
  00003	6a ff		 push	 -1
  00005	68 00 00 00 00	 push	 __ehhandler$?OnBtnDown@CSetting_Price@@IAEXXZ
  0000a	64 a1 00 00 00
	00		 mov	 eax, DWORD PTR fs:0
  00010	50		 push	 eax
  00011	81 ec d4 00 00
	00		 sub	 esp, 212		; 000000d4H
  00017	56		 push	 esi
  00018	57		 push	 edi
  00019	a1 00 00 00 00	 mov	 eax, DWORD PTR ___security_cookie
  0001e	33 c5		 xor	 eax, ebp
  00020	50		 push	 eax
  00021	8d 45 f4	 lea	 eax, DWORD PTR __$EHRec$[ebp]
  00024	64 a3 00 00 00
	00		 mov	 DWORD PTR fs:0, eax
  0002a	8b f1		 mov	 esi, ecx

; 998  : 	// TODO: Add your control notification handler code here
; 999  : 	COLORREF crColor = m_btnDown.GetColor();

  0002c	8d 8e f8 00 00
	00		 lea	 ecx, DWORD PTR [esi+248]
  00032	e8 00 00 00 00	 call	 ?GetColor@CColorButton@@QAEKXZ ; CColorButton::GetColor

; 1000 : 	CColorDialog color(crColor, CC_FULLOPEN);

  00037	6a 00		 push	 0
  00039	6a 02		 push	 2
  0003b	50		 push	 eax
  0003c	8d 8d 20 ff ff
	ff		 lea	 ecx, DWORD PTR _color$[ebp]
  00042	e8 00 00 00 00	 call	 ??0CColorDialog@@QAE@KKPAVCWnd@@@Z ; CColorDialog::CColorDialog

; 1001 : 	if(color.DoModal() == IDOK) 

  00047	8d 8d 20 ff ff
	ff		 lea	 ecx, DWORD PTR _color$[ebp]
  0004d	c7 45 fc 00 00
	00 00		 mov	 DWORD PTR __$EHRec$[ebp+8], 0
  00054	e8 00 00 00 00	 call	 ?DoModal@CColorDialog@@UAEHXZ ; CColorDialog::DoModal
  00059	83 f8 01	 cmp	 eax, 1
  0005c	75 25		 jne	 SHORT $LN2@OnBtnDown

; 1002 : 	{
; 1003 : 		m_btnDown.SetColor( color.GetColor() );

