; Listing generated by Microsoft (R) Optimizing Compiler Version 19.29.30145.0 

	TITLE	D:\git\src\IBK\IBK_DRFN\#DRfn-CS\_Obj\ChartEnvSetupDlgAddIn\Setting_PriceMA.obj
	.686P
	.XMM
	include listing.inc
	.model	flat

INCLUDELIB MSVCRT
INCLUDELIB OLDNAMES

PUBLIC	??_C@_01GBGANLPD@0@				; `string'
PUBLIC	??_C@_01HIHLOKLC@1@				; `string'
PUBLIC	??_C@_01FDFGLJHB@2@				; `string'
PUBLIC	??_C@_01EKENIIDA@3@				; `string'
PUBLIC	??_C@_01FAMBOPH@4@				; `string'
PUBLIC	??_C@_01BMBHCPLG@5@				; `string'
PUBLIC	??_C@_01DHDKHMHF@6@				; `string'
PUBLIC	??_C@_01COCBENDE@7@				; `string'
PUBLIC	??_C@_01KJLJFBPL@8@				; `string'
PUBLIC	??_C@_01LAKCGALK@9@				; `string'
PUBLIC	??_C@_02PKFBJPLJ@10@				; `string'
PUBLIC	??_C@_02ODEKKOPI@11@				; `string'
PUBLIC	??_C@_02MIGHPNDL@12@				; `string'
PUBLIC	??_C@_02NBHMMMHK@13@				; `string'
PUBLIC	??_C@_02JODNFKLN@14@				; `string'
PUBLIC	??_C@_02IHCGGLPM@15@				; `string'
PUBLIC	??_C@_02KMALDIDP@16@				; `string'
PUBLIC	??_C@_02LFBAAJHO@17@				; `string'
PUBLIC	??_C@_02DCIIBFLB@18@				; `string'
PUBLIC	??_C@_02CLJDCEPA@19@				; `string'
PUBLIC	??_C@_02PIBHCBOA@20@				; `string'
PUBLIC	??_C@_02OBAMBAKB@21@				; `string'
PUBLIC	??_C@_02MKCBEDGC@22@				; `string'
PUBLIC	??_C@_02NDDKHCCD@23@				; `string'
PUBLIC	??_C@_02JMHLOEOE@24@				; `string'
;	COMDAT ??_C@_02JMHLOEOE@24@
CONST	SEGMENT
??_C@_02JMHLOEOE@24@ DB '24', 00H			; `string'
CONST	ENDS
;	COMDAT ??_C@_02NDDKHCCD@23@
CONST	SEGMENT
??_C@_02NDDKHCCD@23@ DB '23', 00H			; `string'
CONST	ENDS
;	COMDAT ??_C@_02MKCBEDGC@22@
CONST	SEGMENT
??_C@_02MKCBEDGC@22@ DB '22', 00H			; `string'
CONST	ENDS
;	COMDAT ??_C@_02OBAMBAKB@21@
CONST	SEGMENT
??_C@_02OBAMBAKB@21@ DB '21', 00H			; `string'
CONST	ENDS
;	COMDAT ??_C@_02PIBHCBOA@20@
CONST	SEGMENT
??_C@_02PIBHCBOA@20@ DB '20', 00H			; `string'
CONST	ENDS
;	COMDAT ??_C@_02CLJDCEPA@19@
CONST	SEGMENT
??_C@_02CLJDCEPA@19@ DB '19', 00H			; `string'
CONST	ENDS
;	COMDAT ??_C@_02DCIIBFLB@18@
CONST	SEGMENT
??_C@_02DCIIBFLB@18@ DB '18', 00H			; `string'
CONST	ENDS
;	COMDAT ??_C@_02LFBAAJHO@17@
CONST	SEGMENT
??_C@_02LFBAAJHO@17@ DB '17', 00H			; `string'
CONST	ENDS
;	COMDAT ??_C@_02KMALDIDP@16@
CONST	SEGMENT
??_C@_02KMALDIDP@16@ DB '16', 00H			; `string'
CONST	ENDS
;	COMDAT ??_C@_02IHCGGLPM@15@
CONST	SEGMENT
??_C@_02IHCGGLPM@15@ DB '15', 00H			; `string'
CONST	ENDS
;	COMDAT ??_C@_02JODNFKLN@14@
CONST	SEGMENT
??_C@_02JODNFKLN@14@ DB '14', 00H			; `string'
CONST	ENDS
;	COMDAT ??_C@_02NBHMMMHK@13@
CONST	SEGMENT
??_C@_02NBHMMMHK@13@ DB '13', 00H			; `string'
CONST	ENDS
;	COMDAT ??_C@_02MIGHPNDL@12@
CONST	SEGMENT
??_C@_02MIGHPNDL@12@ DB '12', 00H			; `string'
CONST	ENDS
;	COMDAT ??_C@_02ODEKKOPI@11@
CONST	SEGMENT
??_C@_02ODEKKOPI@11@ DB '11', 00H			; `string'
CONST	ENDS
;	COMDAT ??_C@_02PKFBJPLJ@10@
CONST	SEGMENT
??_C@_02PKFBJPLJ@10@ DB '10', 00H			; `string'
CONST	ENDS
;	COMDAT ??_C@_01LAKCGALK@9@
CONST	SEGMENT
??_C@_01LAKCGALK@9@ DB '9', 00H				; `string'
CONST	ENDS
;	COMDAT ??_C@_01KJLJFBPL@8@
CONST	SEGMENT
??_C@_01KJLJFBPL@8@ DB '8', 00H				; `string'
CONST	ENDS
;	COMDAT ??_C@_01COCBENDE@7@
CONST	SEGMENT
??_C@_01COCBENDE@7@ DB '7', 00H				; `string'
CONST	ENDS
;	COMDAT ??_C@_01DHDKHMHF@6@
CONST	SEGMENT
??_C@_01DHDKHMHF@6@ DB '6', 00H				; `string'
CONST	ENDS
;	COMDAT ??_C@_01BMBHCPLG@5@
CONST	SEGMENT
??_C@_01BMBHCPLG@5@ DB '5', 00H				; `string'
CONST	ENDS
;	COMDAT ??_C@_01FAMBOPH@4@
CONST	SEGMENT
??_C@_01FAMBOPH@4@ DB '4', 00H				; `string'
CONST	ENDS
;	COMDAT ??_C@_01EKENIIDA@3@
CONST	SEGMENT
??_C@_01EKENIIDA@3@ DB '3', 00H				; `string'
CONST	ENDS
;	COMDAT ??_C@_01FDFGLJHB@2@
CONST	SEGMENT
??_C@_01FDFGLJHB@2@ DB '2', 00H				; `string'
CONST	ENDS
;	COMDAT ??_C@_01HIHLOKLC@1@
CONST	SEGMENT
??_C@_01HIHLOKLC@1@ DB '1', 00H				; `string'
CONST	ENDS
;	COMDAT ??_C@_01GBGANLPD@0@
CONST	SEGMENT
??_C@_01GBGANLPD@0@ DB '0', 00H				; `string'
CONST	ENDS
PUBLIC	?__empty_global_delete@@YAXPAX@Z		; __empty_global_delete
PUBLIC	?__empty_global_delete@@YAXPAXI@Z		; __empty_global_delete
PUBLIC	??3CObject@@SGXPAX@Z				; CObject::operator delete
PUBLIC	?Serialize@CObject@@UAEXAAVCArchive@@@Z		; CObject::Serialize
PUBLIC	?AssertValid@CObject@@UBEXXZ			; CObject::AssertValid
PUBLIC	?Dump@CObject@@UBEXAAVCDumpContext@@@Z		; CObject::Dump
PUBLIC	??HATL@@YA?AV?$CStringT@DV?$StrTraitMFC_DLL@DV?$ChTraitsCRT@D@ATL@@@@@0@ABV10@PBD@Z ; ATL::operator+
PUBLIC	?DoDataExchange@CWnd@@MAEXPAVCDataExchange@@@Z	; CWnd::DoDataExchange
PUBLIC	?BeginModalState@CWnd@@UAEXXZ			; CWnd::BeginModalState
PUBLIC	?EndModalState@CWnd@@UAEXXZ			; CWnd::EndModalState
PUBLIC	?Create@CDialog@@UAEHIPAVCWnd@@@Z		; CDialog::Create
PUBLIC	??_GCButton@@UAEPAXI@Z				; CButton::`scalar deleting destructor'
PUBLIC	??1ILPCSTR135914@@QAE@XZ			; ILPCSTR135914::~ILPCSTR135914
PUBLIC	??0CSetting_PriceMA@@QAE@PAUIChartOCX135914@@PAVCWnd@@1@Z ; CSetting_PriceMA::CSetting_PriceMA
PUBLIC	??1CSetting_PriceMA@@UAE@XZ			; CSetting_PriceMA::~CSetting_PriceMA
PUBLIC	?Initial@CSetting_PriceMA@@UAEXPAUIGraphInfo135914@@@Z ; CSetting_PriceMA::Initial
PUBLIC	?OnApply@CSetting_PriceMA@@UAEHPAUIGraphInfo135914@@@Z ; CSetting_PriceMA::OnApply
PUBLIC	?PreTranslateMessage@CSetting_PriceMA@@UAEHPAUtagMSG@@@Z ; CSetting_PriceMA::PreTranslateMessage
PUBLIC	?DoDataExchange@CSetting_PriceMA@@MAEXPAVCDataExchange@@@Z ; CSetting_PriceMA::DoDataExchange
PUBLIC	?OnInitDialog@CSetting_PriceMA@@MAEHXZ		; CSetting_PriceMA::OnInitDialog
PUBLIC	?OnCheckAll@CSetting_PriceMA@@IAEXXZ		; CSetting_PriceMA::OnCheckAll
PUBLIC	?OnSelchangeDrawstyleAll@CSetting_PriceMA@@IAEXXZ ; CSetting_PriceMA::OnSelchangeDrawstyleAll
PUBLIC	?OnSelchangeThicknessAll@CSetting_PriceMA@@IAEXXZ ; CSetting_PriceMA::OnSelchangeThicknessAll
PUBLIC	?OnSelectionChanged@CSetting_PriceMA@@IAEJIJ@Z	; CSetting_PriceMA::OnSelectionChanged
PUBLIC	?GetThisMessageMap@CSetting_PriceMA@@KGPBUAFX_MSGMAP@@XZ ; CSetting_PriceMA::GetThisMessageMap
PUBLIC	?GetMessageMap@CSetting_PriceMA@@MBEPBUAFX_MSGMAP@@XZ ; CSetting_PriceMA::GetMessageMap
PUBLIC	?OK@CSetting_PriceMA@@QAEXXZ			; CSetting_PriceMA::OK
PUBLIC	?Cancel@CSetting_PriceMA@@QAEXXZ		; CSetting_PriceMA::Cancel
PUBLIC	?Initial_Control@CSetting_PriceMA@@IAEXXZ	; CSetting_PriceMA::Initial_Control
PUBLIC	?CreateDropButton@CSetting_PriceMA@@IAEHAAVCDropButton@@V?$CStringT@DV?$StrTraitMFC_DLL@DV?$ChTraitsCRT@D@ATL@@@@@ATL@@II_N@Z ; CSetting_PriceMA::CreateDropButton
PUBLIC	?SetMAConditionDlgPosition@CSetting_PriceMA@@IAEXXZ ; CSetting_PriceMA::SetMAConditionDlgPosition
PUBLIC	?GetCheckButton@CSetting_PriceMA@@IAEPAVCButton@@H@Z ; CSetting_PriceMA::GetCheckButton
PUBLIC	?GetEditCtrl@CSetting_PriceMA@@IAEPAVCNumEdit@@H@Z ; CSetting_PriceMA::GetEditCtrl
PUBLIC	?GetSpinCtrl@CSetting_PriceMA@@IAEPAVCNumSpinCtrl@@H@Z ; CSetting_PriceMA::GetSpinCtrl
PUBLIC	?GetCalcMethodCombo@CSetting_PriceMA@@IAEPAVCComboBox@@H@Z ; CSetting_PriceMA::GetCalcMethodCombo
PUBLIC	?GetPacketCombo@CSetting_PriceMA@@IAEPAVCComboBox@@H@Z ; CSetting_PriceMA::GetPacketCombo
PUBLIC	?GetColorButton@CSetting_PriceMA@@IAEPAVCColorButton@@H@Z ; CSetting_PriceMA::GetColorButton
PUBLIC	?GetDrawStyleCombo@CSetting_PriceMA@@IAEPAVCBitmapItemComboBox@@H@Z ; CSetting_PriceMA::GetDrawStyleCombo
PUBLIC	?GetThicknessCombo@CSetting_PriceMA@@IAEPAVCBitmapItemComboBox@@H@Z ; CSetting_PriceMA::GetThicknessCombo
PUBLIC	?SetShowHide@CSetting_PriceMA@@IAEXHH@Z		; CSetting_PriceMA::SetShowHide
PUBLIC	?SetConditionValue@CSetting_PriceMA@@IAEXHH@Z	; CSetting_PriceMA::SetConditionValue
PUBLIC	?SetCalMethod@CSetting_PriceMA@@IAEXH@Z		; CSetting_PriceMA::SetCalMethod
PUBLIC	?SetPacketName@CSetting_PriceMA@@IAEXH@Z	; CSetting_PriceMA::SetPacketName
PUBLIC	?SetLineColor@CSetting_PriceMA@@IAEXH@Z		; CSetting_PriceMA::SetLineColor
PUBLIC	?SetDrawStyle@CSetting_PriceMA@@IAEXH@Z		; CSetting_PriceMA::SetDrawStyle
PUBLIC	?SetLineThickness@CSetting_PriceMA@@IAEXH@Z	; CSetting_PriceMA::SetLineThickness
PUBLIC	?SetShowArrow@CSetting_PriceMA@@IAEXXZ		; CSetting_PriceMA::SetShowArrow
PUBLIC	?ShowHideSubGraph@CSetting_PriceMA@@IAEXHH@Z	; CSetting_PriceMA::ShowHideSubGraph
PUBLIC	?ApplyAllGraphData@CSetting_PriceMA@@IAEXXZ	; CSetting_PriceMA::ApplyAllGraphData
PUBLIC	??_GCSetting_PriceMA@@UAEPAXI@Z			; CSetting_PriceMA::`scalar deleting destructor'
PUBLIC	??_C@_00CNPNBAHC@@				; `string'
PUBLIC	??_7CButton@@6B@				; CButton::`vftable'
PUBLIC	??_R0?AVCObject@@@8				; CObject `RTTI Type Descriptor'
PUBLIC	??_R3CObject@@8					; CObject::`RTTI Class Hierarchy Descriptor'
PUBLIC	??_R2CObject@@8					; CObject::`RTTI Base Class Array'
PUBLIC	??_R1A@?0A@EA@CObject@@8			; CObject::`RTTI Base Class Descriptor at (0,-1,0,64)'
PUBLIC	??_R1A@?0A@EA@CWnd@@8				; CWnd::`RTTI Base Class Descriptor at (0,-1,0,64)'
PUBLIC	??_R0?AVCWnd@@@8				; CWnd `RTTI Type Descriptor'
PUBLIC	??_R3CWnd@@8					; CWnd::`RTTI Class Hierarchy Descriptor'
PUBLIC	??_R2CWnd@@8					; CWnd::`RTTI Base Class Array'
PUBLIC	??_R1A@?0A@EA@CCmdTarget@@8			; CCmdTarget::`RTTI Base Class Descriptor at (0,-1,0,64)'
PUBLIC	??_R0?AVCCmdTarget@@@8				; CCmdTarget `RTTI Type Descriptor'
PUBLIC	??_R3CCmdTarget@@8				; CCmdTarget::`RTTI Class Hierarchy Descriptor'
PUBLIC	??_R2CCmdTarget@@8				; CCmdTarget::`RTTI Base Class Array'
PUBLIC	??_R4CButton@@6B@				; CButton::`RTTI Complete Object Locator'
PUBLIC	??_R0?AVCButton@@@8				; CButton `RTTI Type Descriptor'
PUBLIC	??_R3CButton@@8					; CButton::`RTTI Class Hierarchy Descriptor'
PUBLIC	??_R2CButton@@8					; CButton::`RTTI Base Class Array'
PUBLIC	??_R1A@?0A@EA@CButton@@8			; CButton::`RTTI Base Class Descriptor at (0,-1,0,64)'
PUBLIC	??_R1A@?0A@EA@CDialog@@8			; CDialog::`RTTI Base Class Descriptor at (0,-1,0,64)'
PUBLIC	??_R0?AVCDialog@@@8				; CDialog `RTTI Type Descriptor'
PUBLIC	??_R3CDialog@@8					; CDialog::`RTTI Class Hierarchy Descriptor'
PUBLIC	??_R2CDialog@@8					; CDialog::`RTTI Base Class Array'
PUBLIC	??_7CSetting_PriceMA@@6B@			; CSetting_PriceMA::`vftable'
PUBLIC	??_C@_06PFFBCHML@?$CFs?$CFd?$CFs@		; `string'
PUBLIC	??_C@_03NNOAJFPL@?$CJ?12@			; `string'
PUBLIC	??_C@_01MIFGBAGJ@?$CL@				; `string'
PUBLIC	??_C@_01ODHLEDKK@?$CI@				; `string'
PUBLIC	??_C@_03MEPLKELK@?$CJ?13@			; `string'
PUBLIC	??_C@_01IHBHIGKO@?0@				; `string'
PUBLIC	??_R4CSetting_PriceMA@@6B@			; CSetting_PriceMA::`RTTI Complete Object Locator'
PUBLIC	??_R0?AVCSetting_PriceMA@@@8			; CSetting_PriceMA `RTTI Type Descriptor'
PUBLIC	??_R3CSetting_PriceMA@@8			; CSetting_PriceMA::`RTTI Class Hierarchy Descriptor'
PUBLIC	??_R2CSetting_PriceMA@@8			; CSetting_PriceMA::`RTTI Base Class Array'
PUBLIC	??_R1A@?0A@EA@CSetting_PriceMA@@8		; CSetting_PriceMA::`RTTI Base Class Descriptor at (0,-1,0,64)'
PUBLIC	??_R1A@?0A@EA@CBaseDialog@@8			; CBaseDialog::`RTTI Base Class Descriptor at (0,-1,0,64)'
PUBLIC	??_R0?AVCBaseDialog@@@8				; CBaseDialog `RTTI Type Descriptor'
PUBLIC	??_R3CBaseDialog@@8				; CBaseDialog::`RTTI Class Hierarchy Descriptor'
PUBLIC	??_R2CBaseDialog@@8				; CBaseDialog::`RTTI Base Class Array'
PUBLIC	__real@bff0000000000000
EXTRN	??2@YAPAXI@Z:PROC				; operator new
EXTRN	??3@YAXPAX@Z:PROC				; operator delete
EXTRN	?__global_delete@@YAXPAXI@Z:PROC		; __global_delete
EXTRN	___std_terminate:PROC
EXTRN	__imp__SendMessageA@16:PROC
EXTRN	__imp__EnableWindow@8:PROC
EXTRN	__imp__GetWindowRect@8:PROC
EXTRN	__imp__InflateRect@12:PROC
EXTRN	__imp__atof:PROC
EXTRN	__imp__atoi:PROC
EXTRN	__imp_?Concatenate@?$CSimpleStringT@D$00@ATL@@KAXAAV12@PBDH1H@Z:PROC
EXTRN	__imp_??0?$CStringT@DV?$StrTraitMFC_DLL@DV?$ChTraitsCRT@D@ATL@@@@@ATL@@QAE@XZ:PROC
EXTRN	__imp_??0?$CStringT@DV?$StrTraitMFC_DLL@DV?$ChTraitsCRT@D@ATL@@@@@ATL@@QAE@PAUIAtlStringMgr@1@@Z:PROC
EXTRN	__imp_??0?$CStringT@DV?$StrTraitMFC_DLL@DV?$ChTraitsCRT@D@ATL@@@@@ATL@@QAE@ABV01@@Z:PROC
EXTRN	__imp_??0?$CStringT@DV?$StrTraitMFC_DLL@DV?$ChTraitsCRT@D@ATL@@@@@ATL@@QAE@PBD@Z:PROC
EXTRN	__imp_??1?$CStringT@DV?$StrTraitMFC_DLL@DV?$ChTraitsCRT@D@ATL@@@@@ATL@@QAE@XZ:PROC
EXTRN	__imp_??4?$CStringT@DV?$StrTraitMFC_DLL@DV?$ChTraitsCRT@D@ATL@@@@@ATL@@QAEAAV01@ABV01@@Z:PROC
EXTRN	__imp_??4?$CStringT@DV?$StrTraitMFC_DLL@DV?$ChTraitsCRT@D@ATL@@@@@ATL@@QAEAAV01@PBD@Z:PROC
EXTRN	__imp_??Y?$CStringT@DV?$StrTraitMFC_DLL@DV?$ChTraitsCRT@D@ATL@@@@@ATL@@QAEAAV01@PBD@Z:PROC
EXTRN	__imp_?GetManager@?$CStringT@DV?$StrTraitMFC_DLL@DV?$ChTraitsCRT@D@ATL@@@@@ATL@@QBEPAUIAtlStringMgr@2@XZ:PROC
EXTRN	__imp_?Compare@?$CStringT@DV?$StrTraitMFC_DLL@DV?$ChTraitsCRT@D@ATL@@@@@ATL@@QBEHPBD@Z:PROC
EXTRN	__imp_?Find@?$CStringT@DV?$StrTraitMFC_DLL@DV?$ChTraitsCRT@D@ATL@@@@@ATL@@QBEHDH@Z:PROC
EXTRN	__imp_?Mid@?$CStringT@DV?$StrTraitMFC_DLL@DV?$ChTraitsCRT@D@ATL@@@@@ATL@@QBE?AV12@H@Z:PROC
EXTRN	__imp_?Left@?$CStringT@DV?$StrTraitMFC_DLL@DV?$ChTraitsCRT@D@ATL@@@@@ATL@@QBE?AV12@H@Z:PROC
EXTRN	__imp_?Format@?$CStringT@DV?$StrTraitMFC_DLL@DV?$ChTraitsCRT@D@ATL@@@@@ATL@@QAAXPBDZZ:PROC
EXTRN	__imp_?LoadStringA@?$CStringT@DV?$StrTraitMFC_DLL@DV?$ChTraitsCRT@D@ATL@@@@@ATL@@QAEHI@Z:PROC
EXTRN	?DDX_Check@@YGXPAVCDataExchange@@HAAH@Z:PROC	; DDX_Check
EXTRN	?DDX_Control@@YGXPAVCDataExchange@@HAAVCWnd@@@Z:PROC ; DDX_Control
EXTRN	?OnCmdMsg@CCmdTarget@@UAEHIHPAXPAUAFX_CMDHANDLERINFO@@@Z:PROC ; CCmdTarget::OnCmdMsg
EXTRN	?IsInvokeAllowed@CCmdTarget@@UAEHJ@Z:PROC	; CCmdTarget::IsInvokeAllowed
EXTRN	?GetDispatchIID@CCmdTarget@@UAEHPAU_GUID@@@Z:PROC ; CCmdTarget::GetDispatchIID
EXTRN	?GetTypeInfoCount@CCmdTarget@@UAEIXZ:PROC	; CCmdTarget::GetTypeInfoCount
EXTRN	?GetTypeLibCache@CCmdTarget@@UAEPAVCTypeLibCache@@XZ:PROC ; CCmdTarget::GetTypeLibCache
EXTRN	?GetTypeLib@CCmdTarget@@UAEJKPAPAUITypeLib@@@Z:PROC ; CCmdTarget::GetTypeLib
EXTRN	?GetCommandMap@CCmdTarget@@MBEPBUAFX_OLECMDMAP@@XZ:PROC ; CCmdTarget::GetCommandMap
EXTRN	?GetDispatchMap@CCmdTarget@@MBEPBUAFX_DISPMAP@@XZ:PROC ; CCmdTarget::GetDispatchMap
EXTRN	?GetConnectionMap@CCmdTarget@@MBEPBUAFX_CONNECTIONMAP@@XZ:PROC ; CCmdTarget::GetConnectionMap
EXTRN	?GetEventSinkMap@CCmdTarget@@MBEPBUAFX_EVENTSINKMAP@@XZ:PROC ; CCmdTarget::GetEventSinkMap
EXTRN	?OnCreateAggregates@CCmdTarget@@UAEHXZ:PROC	; CCmdTarget::OnCreateAggregates
EXTRN	?GetInterfaceHook@CCmdTarget@@UAEPAUIUnknown@@PBX@Z:PROC ; CCmdTarget::GetInterfaceHook
EXTRN	?GetExtraConnectionPoints@CCmdTarget@@MAEHPAVCPtrArray@@@Z:PROC ; CCmdTarget::GetExtraConnectionPoints
EXTRN	?GetConnectionHook@CCmdTarget@@MAEPAUIConnectionPoint@@ABU_GUID@@@Z:PROC ; CCmdTarget::GetConnectionHook
EXTRN	??0CWnd@@QAE@XZ:PROC				; CWnd::CWnd
EXTRN	?PreSubclassWindow@CWnd@@UAEXXZ:PROC		; CWnd::PreSubclassWindow
EXTRN	?Create@CWnd@@UAEHPBD0KABUtagRECT@@PAV1@IPAUCCreateContext@@@Z:PROC ; CWnd::Create
EXTRN	?CreateEx@CWnd@@UAEHKPBD0KHHHHPAUHWND__@@PAUHMENU__@@PAX@Z:PROC ; CWnd::CreateEx
EXTRN	?CreateEx@CWnd@@UAEHKPBD0KABUtagRECT@@PAV1@IPAX@Z:PROC ; CWnd::CreateEx
EXTRN	?DestroyWindow@CWnd@@UAEHXZ:PROC		; CWnd::DestroyWindow
EXTRN	?PreCreateWindow@CWnd@@UAEHAAUtagCREATESTRUCTA@@@Z:PROC ; CWnd::PreCreateWindow
EXTRN	?CalcWindowRect@CWnd@@UAEXPAUtagRECT@@I@Z:PROC	; CWnd::CalcWindowRect
EXTRN	?GetDlgItem@CWnd@@QBEPAV1@H@Z:PROC		; CWnd::GetDlgItem
EXTRN	?GetWindowTextA@CWnd@@QBEXAAV?$CStringT@DV?$StrTraitMFC_DLL@DV?$ChTraitsCRT@D@ATL@@@@@ATL@@@Z:PROC ; CWnd::GetWindowTextA
EXTRN	?GetMenu@CWnd@@UBEPAVCMenu@@XZ:PROC		; CWnd::GetMenu
EXTRN	?SetMenu@CWnd@@UAEHPAVCMenu@@@Z:PROC		; CWnd::SetMenu
EXTRN	?MoveWindow@CWnd@@QAEXHHHHH@Z:PROC		; CWnd::MoveWindow
EXTRN	?SetWindowPos@CWnd@@QAEHPBV1@HHHHI@Z:PROC	; CWnd::SetWindowPos
EXTRN	?ScreenToClient@CWnd@@QBEXPAUtagRECT@@@Z:PROC	; CWnd::ScreenToClient
EXTRN	?ShowWindow@CWnd@@QAEHH@Z:PROC			; CWnd::ShowWindow
EXTRN	?OnToolHitTest@CWnd@@UBEHVCPoint@@PAUtagTOOLINFOA@@@Z:PROC ; CWnd::OnToolHitTest
EXTRN	?GetScrollBarCtrl@CWnd@@UBEPAVCScrollBar@@H@Z:PROC ; CWnd::GetScrollBarCtrl
EXTRN	?UpdateData@CWnd@@QAEHH@Z:PROC			; CWnd::UpdateData
EXTRN	?WinHelpA@CWnd@@UAEXKI@Z:PROC			; CWnd::WinHelpA
EXTRN	?HtmlHelpA@CWnd@@UAEXKI@Z:PROC			; CWnd::HtmlHelpA
EXTRN	?WinHelpInternal@CWnd@@UAEXKI@Z:PROC		; CWnd::WinHelpInternal
EXTRN	?ContinueModal@CWnd@@UAEHXZ:PROC		; CWnd::ContinueModal
EXTRN	?EndModalLoop@CWnd@@UAEXH@Z:PROC		; CWnd::EndModalLoop
EXTRN	?OnDrawIconicThumbnailOrLivePreview@CWnd@@UAEXAAVCDC@@VCRect@@VCSize@@HAAH@Z:PROC ; CWnd::OnDrawIconicThumbnailOrLivePreview
EXTRN	?GetInterfaceMap@CWnd@@MBEPBUAFX_INTERFACEMAP@@XZ:PROC ; CWnd::GetInterfaceMap
EXTRN	?EnsureStdObj@CWnd@@UAEJXZ:PROC			; CWnd::EnsureStdObj
EXTRN	?get_accParent@CWnd@@UAEJPAPAUIDispatch@@@Z:PROC ; CWnd::get_accParent
EXTRN	?get_accChildCount@CWnd@@UAEJPAJ@Z:PROC		; CWnd::get_accChildCount
EXTRN	?get_accChild@CWnd@@UAEJUtagVARIANT@@PAPAUIDispatch@@@Z:PROC ; CWnd::get_accChild
EXTRN	?get_accName@CWnd@@UAEJUtagVARIANT@@PAPA_W@Z:PROC ; CWnd::get_accName
EXTRN	?get_accValue@CWnd@@UAEJUtagVARIANT@@PAPA_W@Z:PROC ; CWnd::get_accValue
EXTRN	?get_accDescription@CWnd@@UAEJUtagVARIANT@@PAPA_W@Z:PROC ; CWnd::get_accDescription
EXTRN	?get_accRole@CWnd@@UAEJUtagVARIANT@@PAU2@@Z:PROC ; CWnd::get_accRole
EXTRN	?get_accState@CWnd@@UAEJUtagVARIANT@@PAU2@@Z:PROC ; CWnd::get_accState
EXTRN	?get_accHelp@CWnd@@UAEJUtagVARIANT@@PAPA_W@Z:PROC ; CWnd::get_accHelp
EXTRN	?get_accHelpTopic@CWnd@@UAEJPAPA_WUtagVARIANT@@PAJ@Z:PROC ; CWnd::get_accHelpTopic
EXTRN	?get_accKeyboardShortcut@CWnd@@UAEJUtagVARIANT@@PAPA_W@Z:PROC ; CWnd::get_accKeyboardShortcut
EXTRN	?get_accFocus@CWnd@@UAEJPAUtagVARIANT@@@Z:PROC	; CWnd::get_accFocus
EXTRN	?get_accSelection@CWnd@@UAEJPAUtagVARIANT@@@Z:PROC ; CWnd::get_accSelection
EXTRN	?get_accDefaultAction@CWnd@@UAEJUtagVARIANT@@PAPA_W@Z:PROC ; CWnd::get_accDefaultAction
EXTRN	?accSelect@CWnd@@UAEJJUtagVARIANT@@@Z:PROC	; CWnd::accSelect
EXTRN	?accLocation@CWnd@@UAEJPAJ000UtagVARIANT@@@Z:PROC ; CWnd::accLocation
EXTRN	?accNavigate@CWnd@@UAEJJUtagVARIANT@@PAU2@@Z:PROC ; CWnd::accNavigate
EXTRN	?accHitTest@CWnd@@UAEJJJPAUtagVARIANT@@@Z:PROC	; CWnd::accHitTest
EXTRN	?accDoDefaultAction@CWnd@@UAEJUtagVARIANT@@@Z:PROC ; CWnd::accDoDefaultAction
EXTRN	?put_accName@CWnd@@UAEJUtagVARIANT@@PA_W@Z:PROC	; CWnd::put_accName
EXTRN	?put_accValue@CWnd@@UAEJUtagVARIANT@@PA_W@Z:PROC ; CWnd::put_accValue
EXTRN	?SetProxy@CWnd@@UAEJPAUIAccessibleProxy@@@Z:PROC ; CWnd::SetProxy
EXTRN	?CreateAccessibleProxy@CWnd@@UAEJIJPAJ@Z:PROC	; CWnd::CreateAccessibleProxy
EXTRN	?OnCommand@CWnd@@MAEHIJ@Z:PROC			; CWnd::OnCommand
EXTRN	?OnNotify@CWnd@@MAEHIJPAJ@Z:PROC		; CWnd::OnNotify
EXTRN	?GetSuperWndProcAddr@CWnd@@MAEPAP6GJPAUHWND__@@IIJ@ZXZ:PROC ; CWnd::GetSuperWndProcAddr
EXTRN	?PreTranslateMessage@CWnd@@UAEHPAUtagMSG@@@Z:PROC ; CWnd::PreTranslateMessage
EXTRN	?OnAmbientProperty@CWnd@@UAEHPAVCOleControlSite@@JPAUtagVARIANT@@@Z:PROC ; CWnd::OnAmbientProperty
EXTRN	?WindowProc@CWnd@@MAEJIIJ@Z:PROC		; CWnd::WindowProc
EXTRN	?OnWndMsg@CWnd@@MAEHIIJPAJ@Z:PROC		; CWnd::OnWndMsg
EXTRN	?DefWindowProcA@CWnd@@MAEJIIJ@Z:PROC		; CWnd::DefWindowProcA
EXTRN	?PostNcDestroy@CWnd@@MAEXXZ:PROC		; CWnd::PostNcDestroy
EXTRN	?OnChildNotify@CWnd@@MAEHIIJPAJ@Z:PROC		; CWnd::OnChildNotify
EXTRN	?OnTouchInputs@CWnd@@MAEHIPAUtagTOUCHINPUT@@@Z:PROC ; CWnd::OnTouchInputs
EXTRN	?OnTouchInput@CWnd@@MAEHVCPoint@@HHPAUtagTOUCHINPUT@@@Z:PROC ; CWnd::OnTouchInput
EXTRN	?GetGestureStatus@CWnd@@MAEKVCPoint@@@Z:PROC	; CWnd::GetGestureStatus
EXTRN	?OnGestureZoom@CWnd@@MAEHVCPoint@@J@Z:PROC	; CWnd::OnGestureZoom
EXTRN	?OnGesturePan@CWnd@@MAEHVCPoint@@0@Z:PROC	; CWnd::OnGesturePan
EXTRN	?OnGestureRotate@CWnd@@MAEHVCPoint@@N@Z:PROC	; CWnd::OnGestureRotate
EXTRN	?OnGestureTwoFingerTap@CWnd@@MAEHVCPoint@@@Z:PROC ; CWnd::OnGestureTwoFingerTap
EXTRN	?OnGesturePressAndTap@CWnd@@MAEHVCPoint@@J@Z:PROC ; CWnd::OnGesturePressAndTap
EXTRN	?ResizeDynamicLayout@CWnd@@MAEXXZ:PROC		; CWnd::ResizeDynamicLayout
EXTRN	?CheckAutoCenter@CWnd@@UAEHXZ:PROC		; CWnd::CheckAutoCenter
EXTRN	?IsFrameWnd@CWnd@@UBEHXZ:PROC			; CWnd::IsFrameWnd
EXTRN	?OnFinalRelease@CWnd@@UAEXXZ:PROC		; CWnd::OnFinalRelease
EXTRN	?CreateControlContainer@CWnd@@MAEHPAPAVCOleControlContainer@@@Z:PROC ; CWnd::CreateControlContainer
EXTRN	?CreateControlSite@CWnd@@MAEHPAVCOleControlContainer@@PAPAVCOleControlSite@@IABU_GUID@@@Z:PROC ; CWnd::CreateControlSite
EXTRN	?SetOccDialogInfo@CWnd@@MAEHPAU_AFX_OCC_DIALOG_INFO@@@Z:PROC ; CWnd::SetOccDialogInfo
EXTRN	?GetOccDialogInfo@CWnd@@MAEPAU_AFX_OCC_DIALOG_INFO@@XZ:PROC ; CWnd::GetOccDialogInfo
EXTRN	?GetMessageMap@CWnd@@MBEPBUAFX_MSGMAP@@XZ:PROC	; CWnd::GetMessageMap
EXTRN	?GetRuntimeClass@CDialog@@UBEPAUCRuntimeClass@@XZ:PROC ; CDialog::GetRuntimeClass
EXTRN	?Create@CDialog@@UAEHPBDPAVCWnd@@@Z:PROC	; CDialog::Create
EXTRN	?CreateIndirect@CDialog@@UAEHPBUDLGTEMPLATE@@PAVCWnd@@PAX@Z:PROC ; CDialog::CreateIndirect
EXTRN	?CreateIndirect@CDialog@@UAEHPAXPAVCWnd@@@Z:PROC ; CDialog::CreateIndirect
EXTRN	?DoModal@CDialog@@UAEHXZ:PROC			; CDialog::DoModal
EXTRN	?OnInitDialog@CDialog@@UAEHXZ:PROC		; CDialog::OnInitDialog
EXTRN	?OnSetFont@CDialog@@UAEXPAVCFont@@@Z:PROC	; CDialog::OnSetFont
EXTRN	?OnOK@CDialog@@MAEXXZ:PROC			; CDialog::OnOK
EXTRN	?OnCancel@CDialog@@MAEXXZ:PROC			; CDialog::OnCancel
EXTRN	?PreTranslateMessage@CDialog@@UAEHPAUtagMSG@@@Z:PROC ; CDialog::PreTranslateMessage
EXTRN	?OnCmdMsg@CDialog@@UAEHIHPAXPAUAFX_CMDHANDLERINFO@@@Z:PROC ; CDialog::OnCmdMsg
EXTRN	?CheckAutoCenter@CDialog@@UAEHXZ:PROC		; CDialog::CheckAutoCenter
EXTRN	?SetOccDialogInfo@CDialog@@MAEHPAU_AFX_OCC_DIALOG_INFO@@@Z:PROC ; CDialog::SetOccDialogInfo
EXTRN	?GetOccDialogInfo@CDialog@@MAEPAU_AFX_OCC_DIALOG_INFO@@XZ:PROC ; CDialog::GetOccDialogInfo
EXTRN	?PreInitDialog@CDialog@@MAEXXZ:PROC		; CDialog::PreInitDialog
EXTRN	?GetThisMessageMap@CDialog@@KGPBUAFX_MSGMAP@@XZ:PROC ; CDialog::GetThisMessageMap
EXTRN	?GetRuntimeClass@CButton@@UBEPAUCRuntimeClass@@XZ:PROC ; CButton::GetRuntimeClass
EXTRN	?Create@CButton@@UAEHPBDKABUtagRECT@@PAVCWnd@@I@Z:PROC ; CButton::Create
EXTRN	?DrawItem@CButton@@UAEXPAUtagDRAWITEMSTRUCT@@@Z:PROC ; CButton::DrawItem
EXTRN	??1CButton@@UAE@XZ:PROC				; CButton::~CButton
EXTRN	?OnChildNotify@CButton@@MAEHIIJPAJ@Z:PROC	; CButton::OnChildNotify
EXTRN	??_ECButton@@UAEPAXI@Z:PROC			; CButton::`vector deleting destructor'
EXTRN	?GetLBText@CComboBox@@QBEXHAAV?$CStringT@DV?$StrTraitMFC_DLL@DV?$ChTraitsCRT@D@ATL@@@@@ATL@@@Z:PROC ; CComboBox::GetLBText
EXTRN	?AfxMessageBox@@YGHPBDII@Z:PROC			; AfxMessageBox
EXTRN	??0CBitmapItemComboBox@@QAE@XZ:PROC		; CBitmapItemComboBox::CBitmapItemComboBox
EXTRN	??1CBitmapItemComboBox@@UAE@XZ:PROC		; CBitmapItemComboBox::~CBitmapItemComboBox
EXTRN	??0CBaseDialog@@QAE@IPAVCWnd@@PAUIChartOCX135914@@0@Z:PROC ; CBaseDialog::CBaseDialog
EXTRN	??1CBaseDialog@@UAE@XZ:PROC			; CBaseDialog::~CBaseDialog
EXTRN	?SetTitle@CBaseDialog@@UAEXHABV?$CStringT@DV?$StrTraitMFC_DLL@DV?$ChTraitsCRT@D@ATL@@@@@ATL@@@Z:PROC ; CBaseDialog::SetTitle
EXTRN	?DoCalculate@CBaseDialog@@UAE_NXZ:PROC		; CBaseDialog::DoCalculate
EXTRN	?Initial_Spin@CBaseDialog@@IAEXAAVCNumSpinCtrl@@AAVCNumEdit@@N@Z:PROC ; CBaseDialog::Initial_Spin
EXTRN	?Initial_DrawStyleComboBox@CBaseDialog@@IAEXHAAVCBitmapItemComboBox@@@Z:PROC ; CBaseDialog::Initial_DrawStyleComboBox
EXTRN	?Initial_ThicknessComboBox@CBaseDialog@@IAEXHHAAVCBitmapItemComboBox@@@Z:PROC ; CBaseDialog::Initial_ThicknessComboBox
EXTRN	?OnApply_DrawStyle@CBaseDialog@@IAEXHAAVCBitmapItemComboBox@@@Z:PROC ; CBaseDialog::OnApply_DrawStyle
EXTRN	?OnApply_Thickness@CBaseDialog@@IAEXHAAVCBitmapItemComboBox@@@Z:PROC ; CBaseDialog::OnApply_Thickness
EXTRN	?DoesEqualPacketNames_SubGraphPart@CBaseDialog@@IBEHPAUIGraphInfo135914@@HABV?$CStringT@DV?$StrTraitMFC_DLL@DV?$ChTraitsCRT@D@ATL@@@@@ATL@@@Z:PROC ; CBaseDialog::DoesEqualPacketNames_SubGraphPart
EXTRN	?DoesEqualDoubleList@CBaseDialog@@IBEHPAUIDoubleList135914@@0@Z:PROC ; CBaseDialog::DoesEqualDoubleList
EXTRN	?GetColor@CColorButton@@QAEKXZ:PROC		; CColorButton::GetColor
EXTRN	?AddString@CDropList@@QAEHPBD@Z:PROC		; CDropList::AddString
EXTRN	?ResetContent@CDropList@@QAEXXZ:PROC		; CDropList::ResetContent
EXTRN	??0CDropButton@@QAE@XZ:PROC			; CDropButton::CDropButton
EXTRN	?Create@CDropButton@@QAEHV?$CStringT@DV?$StrTraitMFC_DLL@DV?$ChTraitsCRT@D@ATL@@@@@ATL@@VCRect@@PAVCWnd@@IKKKKPAVCFont@@K@Z:PROC ; CDropButton::Create
EXTRN	??1CDropButton@@UAE@XZ:PROC			; CDropButton::~CDropButton
EXTRN	??_ECSetting_PriceMA@@UAEPAXI@Z:PROC		; CSetting_PriceMA::`vector deleting destructor'
EXTRN	?GetMetaText@IMetaTable@@QAEPBDPAUHWND__@@W4E_CODEPAGE@1@PBDH@Z:PROC ; IMetaTable::GetMetaText
EXTRN	?GetLanguageText@IMetaTable@@QAEPBDPAUHWND__@@W4E_CODEPAGE@1@PBDH@Z:PROC ; IMetaTable::GetLanguageText
EXTRN	?GetMultipleLanguageText@IMetaTable@@QAE?AV?$CStringT@DV?$StrTraitMFC_DLL@DV?$ChTraitsCRT@D@ATL@@@@@ATL@@PAUHWND__@@V23@1HH@Z:PROC ; IMetaTable::GetMultipleLanguageText
EXTRN	?GetStringData@CDataConversion@@SA?AV?$CStringT@DV?$StrTraitMFC_DLL@DV?$ChTraitsCRT@D@ATL@@@@@ATL@@AAV23@ABV23@_N@Z:PROC ; CDataConversion::GetStringData
EXTRN	?GetStringDataCount@CDataConversion@@SAHABV?$CStringT@DV?$StrTraitMFC_DLL@DV?$ChTraitsCRT@D@ATL@@@@@ATL@@0@Z:PROC ; CDataConversion::GetStringDataCount
EXTRN	??0CSetting_PriceMA_Condition@@QAE@PAVCWnd@@@Z:PROC ; CSetting_PriceMA_Condition::CSetting_PriceMA_Condition
EXTRN	?GetCheckButton@CSetting_PriceMA_Condition@@QAEPAVCButton@@H@Z:PROC ; CSetting_PriceMA_Condition::GetCheckButton
EXTRN	?GetEditCtrl@CSetting_PriceMA_Condition@@QAEPAVCNumEdit@@H@Z:PROC ; CSetting_PriceMA_Condition::GetEditCtrl
EXTRN	?GetSpinCtrl@CSetting_PriceMA_Condition@@QAEPAVCNumSpinCtrl@@H@Z:PROC ; CSetting_PriceMA_Condition::GetSpinCtrl
EXTRN	?GetColorButton@CSetting_PriceMA_Condition@@QAEPAVCColorButton@@H@Z:PROC ; CSetting_PriceMA_Condition::GetColorButton
EXTRN	?SetDrawStyle@CSetting_PriceMA_Condition@@QAEXHH@Z:PROC ; CSetting_PriceMA_Condition::SetDrawStyle
EXTRN	?SetLineThickness@CSetting_PriceMA_Condition@@QAEXHH@Z:PROC ; CSetting_PriceMA_Condition::SetLineThickness
EXTRN	?SetLineColor@CSetting_PriceMA_Condition@@QAEXHH@Z:PROC ; CSetting_PriceMA_Condition::SetLineColor
EXTRN	?GetDrawStyleCombo@CSetting_PriceMA_Condition@@QAEPAVCBitmapItemComboBox@@H@Z:PROC ; CSetting_PriceMA_Condition::GetDrawStyleCombo
EXTRN	?GetThicknessCombo@CSetting_PriceMA_Condition@@QAEPAVCBitmapItemComboBox@@H@Z:PROC ; CSetting_PriceMA_Condition::GetThicknessCombo
EXTRN	?GetPacketCombo@CSetting_PriceMA_Condition@@QAEPAVCComboBox@@H@Z:PROC ; CSetting_PriceMA_Condition::GetPacketCombo
EXTRN	?GetCalcMethodCombo@CSetting_PriceMA_Condition@@QAEPAVCComboBox@@H@Z:PROC ; CSetting_PriceMA_Condition::GetCalcMethodCombo
EXTRN	?SetSubGraphCount@CSetting_PriceMA_Condition@@QAEXH@Z:PROC ; CSetting_PriceMA_Condition::SetSubGraphCount
EXTRN	?ShowHideSubGraph@CSetting_PriceMA_Condition@@QAEXHH@Z:PROC ; CSetting_PriceMA_Condition::ShowHideSubGraph
EXTRN	@__security_check_cookie@4:PROC
EXTRN	___CxxFrameHandler3:PROC
EXTRN	??_7type_info@@6B@:QWORD			; type_info::`vftable'
EXTRN	__imp_?wndTop@CWnd@@2V1@B:BYTE
EXTRN	?g_iMetaTable@@3VIMetaTable@@A:BYTE		; g_iMetaTable
EXTRN	___security_cookie:DWORD
EXTRN	__fltused:DWORD
;	COMDAT __real@bff0000000000000
CONST	SEGMENT
__real@bff0000000000000 DQ 0bff0000000000000r	; -1
CONST	ENDS
;	COMDAT ??_R2CBaseDialog@@8
rdata$r	SEGMENT
??_R2CBaseDialog@@8 DD FLAT:??_R1A@?0A@EA@CBaseDialog@@8 ; CBaseDialog::`RTTI Base Class Array'
	DD	FLAT:??_R1A@?0A@EA@CDialog@@8
	DD	FLAT:??_R1A@?0A@EA@CWnd@@8
	DD	FLAT:??_R1A@?0A@EA@CCmdTarget@@8
	DD	FLAT:??_R1A@?0A@EA@CObject@@8
rdata$r	ENDS
;	COMDAT ??_R3CBaseDialog@@8
rdata$r	SEGMENT
??_R3CBaseDialog@@8 DD 00H				; CBaseDialog::`RTTI Class Hierarchy Descriptor'
	DD	00H
	DD	05H
	DD	FLAT:??_R2CBaseDialog@@8
rdata$r	ENDS
;	COMDAT ??_R0?AVCBaseDialog@@@8
data$rs	SEGMENT
??_R0?AVCBaseDialog@@@8 DD FLAT:??_7type_info@@6B@	; CBaseDialog `RTTI Type Descriptor'
	DD	00H
	DB	'.?AVCBaseDialog@@', 00H
data$rs	ENDS
;	COMDAT ??_R1A@?0A@EA@CBaseDialog@@8
rdata$r	SEGMENT
??_R1A@?0A@EA@CBaseDialog@@8 DD FLAT:??_R0?AVCBaseDialog@@@8 ; CBaseDialog::`RTTI Base Class Descriptor at (0,-1,0,64)'
	DD	04H
	DD	00H
	DD	0ffffffffH
	DD	00H
	DD	040H
	DD	FLAT:??_R3CBaseDialog@@8
rdata$r	ENDS
;	COMDAT ??_R1A@?0A@EA@CSetting_PriceMA@@8
rdata$r	SEGMENT
??_R1A@?0A@EA@CSetting_PriceMA@@8 DD FLAT:??_R0?AVCSetting_PriceMA@@@8 ; CSetting_PriceMA::`RTTI Base Class Descriptor at (0,-1,0,64)'
	DD	05H
	DD	00H
	DD	0ffffffffH
	DD	00H
	DD	040H
	DD	FLAT:??_R3CSetting_PriceMA@@8
rdata$r	ENDS
;	COMDAT ??_R2CSetting_PriceMA@@8
rdata$r	SEGMENT
??_R2CSetting_PriceMA@@8 DD FLAT:??_R1A@?0A@EA@CSetting_PriceMA@@8 ; CSetting_PriceMA::`RTTI Base Class Array'
	DD	FLAT:??_R1A@?0A@EA@CBaseDialog@@8
	DD	FLAT:??_R1A@?0A@EA@CDialog@@8
	DD	FLAT:??_R1A@?0A@EA@CWnd@@8
	DD	FLAT:??_R1A@?0A@EA@CCmdTarget@@8
	DD	FLAT:??_R1A@?0A@EA@CObject@@8
rdata$r	ENDS
;	COMDAT ??_R3CSetting_PriceMA@@8
rdata$r	SEGMENT
??_R3CSetting_PriceMA@@8 DD 00H				; CSetting_PriceMA::`RTTI Class Hierarchy Descriptor'
	DD	00H
	DD	06H
	DD	FLAT:??_R2CSetting_PriceMA@@8
rdata$r	ENDS
;	COMDAT ??_R0?AVCSetting_PriceMA@@@8
data$rs	SEGMENT
??_R0?AVCSetting_PriceMA@@@8 DD FLAT:??_7type_info@@6B@	; CSetting_PriceMA `RTTI Type Descriptor'
	DD	00H
	DB	'.?AVCSetting_PriceMA@@', 00H
data$rs	ENDS
;	COMDAT ??_R4CSetting_PriceMA@@6B@
rdata$r	SEGMENT
??_R4CSetting_PriceMA@@6B@ DD 00H			; CSetting_PriceMA::`RTTI Complete Object Locator'
	DD	00H
	DD	00H
	DD	FLAT:??_R0?AVCSetting_PriceMA@@@8
	DD	FLAT:??_R3CSetting_PriceMA@@8
rdata$r	ENDS
;	COMDAT ??_C@_01IHBHIGKO@?0@
CONST	SEGMENT
??_C@_01IHBHIGKO@?0@ DB ',', 00H			; `string'
CONST	ENDS
;	COMDAT ??_C@_03MEPLKELK@?$CJ?13@
CONST	SEGMENT
??_C@_03MEPLKELK@?$CJ?13@ DB ')/3', 00H			; `string'
CONST	ENDS
;	COMDAT ??_C@_01ODHLEDKK@?$CI@
CONST	SEGMENT
??_C@_01ODHLEDKK@?$CI@ DB '(', 00H			; `string'
CONST	ENDS
;	COMDAT ??_C@_01MIFGBAGJ@?$CL@
CONST	SEGMENT
??_C@_01MIFGBAGJ@?$CL@ DB '+', 00H			; `string'
CONST	ENDS
;	COMDAT ??_C@_03NNOAJFPL@?$CJ?12@
CONST	SEGMENT
??_C@_03NNOAJFPL@?$CJ?12@ DB ')/2', 00H			; `string'
CONST	ENDS
;	COMDAT ??_C@_06PFFBCHML@?$CFs?$CFd?$CFs@
CONST	SEGMENT
??_C@_06PFFBCHML@?$CFs?$CFd?$CFs@ DB '%s%d%s', 00H	; `string'
CONST	ENDS
;	COMDAT ?messageMap@?1??GetThisMessageMap@CSetting_PriceMA@@KGPBUAFX_MSGMAP@@XZ@4U3@B
CONST	SEGMENT
?messageMap@?1??GetThisMessageMap@CSetting_PriceMA@@KGPBUAFX_MSGMAP@@XZ@4U3@B DD FLAT:?GetThisMessageMap@CDialog@@KGPBUAFX_MSGMAP@@XZ ; `CSetting_PriceMA::GetThisMessageMap'::`2'::messageMap
	DD	FLAT:?_messageEntries@?1??GetThisMessageMap@CSetting_PriceMA@@KGPBUAFX_MSGMAP@@XZ@4QBUAFX_MSGMAP_ENTRY@@B
CONST	ENDS
;	COMDAT ?_messageEntries@?1??GetThisMessageMap@CSetting_PriceMA@@KGPBUAFX_MSGMAP@@XZ@4QBUAFX_MSGMAP_ENTRY@@B
CONST	SEGMENT
?_messageEntries@?1??GetThisMessageMap@CSetting_PriceMA@@KGPBUAFX_MSGMAP@@XZ@4QBUAFX_MSGMAP_ENTRY@@B DD 0111H ; `CSetting_PriceMA::GetThisMessageMap'::`2'::_messageEntries
	DD	00H
	DD	01f4bH
	DD	01f4bH
	DD	03aH
	DD	FLAT:?OnCheckAll@CSetting_PriceMA@@IAEXXZ
	DD	0111H
	DD	01H
	DD	01fadH
	DD	01fadH
	DD	03aH
	DD	FLAT:?OnSelchangeDrawstyleAll@CSetting_PriceMA@@IAEXXZ
	DD	0111H
	DD	01H
	DD	01facH
	DD	01facH
	DD	03aH
	DD	FLAT:?OnSelchangeThicknessAll@CSetting_PriceMA@@IAEXXZ
	DD	0466H
	DD	00H
	DD	00H
	DD	00H
	DD	0eH
	DD	FLAT:?OnSelectionChanged@CSetting_PriceMA@@IAEJIJ@Z
	DD	00H
	DD	00H
	DD	00H
	DD	00H
	DD	00H
	DD	00H
CONST	ENDS
;	COMDAT ??_7CSetting_PriceMA@@6B@
CONST	SEGMENT
??_7CSetting_PriceMA@@6B@ DD FLAT:??_R4CSetting_PriceMA@@6B@ ; CSetting_PriceMA::`vftable'
	DD	FLAT:?GetRuntimeClass@CDialog@@UBEPAUCRuntimeClass@@XZ
	DD	FLAT:??_ECSetting_PriceMA@@UAEPAXI@Z
	DD	FLAT:?Serialize@CObject@@UAEXAAVCArchive@@@Z
	DD	FLAT:?AssertValid@CObject@@UBEXXZ
	DD	FLAT:?Dump@CObject@@UBEXAAVCDumpContext@@@Z
	DD	FLAT:?OnCmdMsg@CDialog@@UAEHIHPAXPAUAFX_CMDHANDLERINFO@@@Z
	DD	FLAT:?OnFinalRelease@CWnd@@UAEXXZ
	DD	FLAT:?IsInvokeAllowed@CCmdTarget@@UAEHJ@Z
	DD	FLAT:?GetDispatchIID@CCmdTarget@@UAEHPAU_GUID@@@Z
	DD	FLAT:?GetTypeInfoCount@CCmdTarget@@UAEIXZ
	DD	FLAT:?GetTypeLibCache@CCmdTarget@@UAEPAVCTypeLibCache@@XZ
	DD	FLAT:?GetTypeLib@CCmdTarget@@UAEJKPAPAUITypeLib@@@Z
	DD	FLAT:?GetMessageMap@CSetting_PriceMA@@MBEPBUAFX_MSGMAP@@XZ
	DD	FLAT:?GetCommandMap@CCmdTarget@@MBEPBUAFX_OLECMDMAP@@XZ
	DD	FLAT:?GetDispatchMap@CCmdTarget@@MBEPBUAFX_DISPMAP@@XZ
	DD	FLAT:?GetConnectionMap@CCmdTarget@@MBEPBUAFX_CONNECTIONMAP@@XZ
	DD	FLAT:?GetInterfaceMap@CWnd@@MBEPBUAFX_INTERFACEMAP@@XZ
	DD	FLAT:?GetEventSinkMap@CCmdTarget@@MBEPBUAFX_EVENTSINKMAP@@XZ
	DD	FLAT:?OnCreateAggregates@CCmdTarget@@UAEHXZ
	DD	FLAT:?GetInterfaceHook@CCmdTarget@@UAEPAUIUnknown@@PBX@Z
	DD	FLAT:?GetExtraConnectionPoints@CCmdTarget@@MAEHPAVCPtrArray@@@Z
	DD	FLAT:?GetConnectionHook@CCmdTarget@@MAEPAUIConnectionPoint@@ABU_GUID@@@Z
	DD	FLAT:?PreSubclassWindow@CWnd@@UAEXXZ
	DD	FLAT:?Create@CWnd@@UAEHPBD0KABUtagRECT@@PAV1@IPAUCCreateContext@@@Z
	DD	FLAT:?CreateEx@CWnd@@UAEHKPBD0KABUtagRECT@@PAV1@IPAX@Z
	DD	FLAT:?CreateEx@CWnd@@UAEHKPBD0KHHHHPAUHWND__@@PAUHMENU__@@PAX@Z
	DD	FLAT:?DestroyWindow@CWnd@@UAEHXZ
	DD	FLAT:?PreCreateWindow@CWnd@@UAEHAAUtagCREATESTRUCTA@@@Z
	DD	FLAT:?CalcWindowRect@CWnd@@UAEXPAUtagRECT@@I@Z
	DD	FLAT:?GetMenu@CWnd@@UBEPAVCMenu@@XZ
	DD	FLAT:?SetMenu@CWnd@@UAEHPAVCMenu@@@Z
	DD	FLAT:?OnToolHitTest@CWnd@@UBEHVCPoint@@PAUtagTOOLINFOA@@@Z
	DD	FLAT:?GetScrollBarCtrl@CWnd@@UBEPAVCScrollBar@@H@Z
	DD	FLAT:?WinHelpA@CWnd@@UAEXKI@Z
	DD	FLAT:?HtmlHelpA@CWnd@@UAEXKI@Z
	DD	FLAT:?WinHelpInternal@CWnd@@UAEXKI@Z
	DD	FLAT:?ContinueModal@CWnd@@UAEHXZ
	DD	FLAT:?EndModalLoop@CWnd@@UAEXH@Z
	DD	FLAT:?OnDrawIconicThumbnailOrLivePreview@CWnd@@UAEXAAVCDC@@VCRect@@VCSize@@HAAH@Z
	DD	FLAT:?EnsureStdObj@CWnd@@UAEJXZ
	DD	FLAT:?get_accParent@CWnd@@UAEJPAPAUIDispatch@@@Z
	DD	FLAT:?get_accChildCount@CWnd@@UAEJPAJ@Z
	DD	FLAT:?get_accChild@CWnd@@UAEJUtagVARIANT@@PAPAUIDispatch@@@Z
	DD	FLAT:?get_accName@CWnd@@UAEJUtagVARIANT@@PAPA_W@Z
	DD	FLAT:?get_accValue@CWnd@@UAEJUtagVARIANT@@PAPA_W@Z
	DD	FLAT:?get_accDescription@CWnd@@UAEJUtagVARIANT@@PAPA_W@Z
	DD	FLAT:?get_accRole@CWnd@@UAEJUtagVARIANT@@PAU2@@Z
	DD	FLAT:?get_accState@CWnd@@UAEJUtagVARIANT@@PAU2@@Z
	DD	FLAT:?get_accHelp@CWnd@@UAEJUtagVARIANT@@PAPA_W@Z
	DD	FLAT:?get_accHelpTopic@CWnd@@UAEJPAPA_WUtagVARIANT@@PAJ@Z
	DD	FLAT:?get_accKeyboardShortcut@CWnd@@UAEJUtagVARIANT@@PAPA_W@Z
	DD	FLAT:?get_accFocus@CWnd@@UAEJPAUtagVARIANT@@@Z
	DD	FLAT:?get_accSelection@CWnd@@UAEJPAUtagVARIANT@@@Z
	DD	FLAT:?get_accDefaultAction@CWnd@@UAEJUtagVARIANT@@PAPA_W@Z
	DD	FLAT:?accSelect@CWnd@@UAEJJUtagVARIANT@@@Z
	DD	FLAT:?accLocation@CWnd@@UAEJPAJ000UtagVARIANT@@@Z
	DD	FLAT:?accNavigate@CWnd@@UAEJJUtagVARIANT@@PAU2@@Z
	DD	FLAT:?accHitTest@CWnd@@UAEJJJPAUtagVARIANT@@@Z
	DD	FLAT:?accDoDefaultAction@CWnd@@UAEJUtagVARIANT@@@Z
	DD	FLAT:?put_accName@CWnd@@UAEJUtagVARIANT@@PA_W@Z
	DD	FLAT:?put_accValue@CWnd@@UAEJUtagVARIANT@@PA_W@Z
	DD	FLAT:?SetProxy@CWnd@@UAEJPAUIAccessibleProxy@@@Z
	DD	FLAT:?CreateAccessibleProxy@CWnd@@UAEJIJPAJ@Z
	DD	FLAT:?OnCommand@CWnd@@MAEHIJ@Z
	DD	FLAT:?OnNotify@CWnd@@MAEHIJPAJ@Z
	DD	FLAT:?GetSuperWndProcAddr@CWnd@@MAEPAP6GJPAUHWND__@@IIJ@ZXZ
	DD	FLAT:?DoDataExchange@CSetting_PriceMA@@MAEXPAVCDataExchange@@@Z
	DD	FLAT:?BeginModalState@CWnd@@UAEXXZ
	DD	FLAT:?EndModalState@CWnd@@UAEXXZ
	DD	FLAT:?PreTranslateMessage@CSetting_PriceMA@@UAEHPAUtagMSG@@@Z
	DD	FLAT:?OnAmbientProperty@CWnd@@UAEHPAVCOleControlSite@@JPAUtagVARIANT@@@Z
	DD	FLAT:?WindowProc@CWnd@@MAEJIIJ@Z
	DD	FLAT:?OnWndMsg@CWnd@@MAEHIIJPAJ@Z
	DD	FLAT:?DefWindowProcA@CWnd@@MAEJIIJ@Z
	DD	FLAT:?PostNcDestroy@CWnd@@MAEXXZ
	DD	FLAT:?OnChildNotify@CWnd@@MAEHIIJPAJ@Z
	DD	FLAT:?OnTouchInputs@CWnd@@MAEHIPAUtagTOUCHINPUT@@@Z
	DD	FLAT:?OnTouchInput@CWnd@@MAEHVCPoint@@HHPAUtagTOUCHINPUT@@@Z
	DD	FLAT:?GetGestureStatus@CWnd@@MAEKVCPoint@@@Z
	DD	FLAT:?OnGestureZoom@CWnd@@MAEHVCPoint@@J@Z
	DD	FLAT:?OnGesturePan@CWnd@@MAEHVCPoint@@0@Z
	DD	FLAT:?OnGestureRotate@CWnd@@MAEHVCPoint@@N@Z
	DD	FLAT:?OnGestureTwoFingerTap@CWnd@@MAEHVCPoint@@@Z
	DD	FLAT:?OnGesturePressAndTap@CWnd@@MAEHVCPoint@@J@Z
	DD	FLAT:?ResizeDynamicLayout@CWnd@@MAEXXZ
	DD	FLAT:?CheckAutoCenter@CDialog@@UAEHXZ
	DD	FLAT:?IsFrameWnd@CWnd@@UBEHXZ
	DD	FLAT:?CreateControlContainer@CWnd@@MAEHPAPAVCOleControlContainer@@@Z
	DD	FLAT:?CreateControlSite@CWnd@@MAEHPAVCOleControlContainer@@PAPAVCOleControlSite@@IABU_GUID@@@Z
	DD	FLAT:?SetOccDialogInfo@CDialog@@MAEHPAU_AFX_OCC_DIALOG_INFO@@@Z
	DD	FLAT:?GetOccDialogInfo@CDialog@@MAEPAU_AFX_OCC_DIALOG_INFO@@XZ
	DD	FLAT:?Create@CDialog@@UAEHIPAVCWnd@@@Z
	DD	FLAT:?Create@CDialog@@UAEHPBDPAVCWnd@@@Z
	DD	FLAT:?CreateIndirect@CDialog@@UAEHPAXPAVCWnd@@@Z
	DD	FLAT:?CreateIndirect@CDialog@@UAEHPBUDLGTEMPLATE@@PAVCWnd@@PAX@Z
	DD	FLAT:?DoModal@CDialog@@UAEHXZ
	DD	FLAT:?OnInitDialog@CSetting_PriceMA@@MAEHXZ
	DD	FLAT:?OnSetFont@CDialog@@UAEXPAVCFont@@@Z
	DD	FLAT:?OnOK@CDialog@@MAEXXZ
	DD	FLAT:?OnCancel@CDialog@@MAEXXZ
	DD	FLAT:?PreInitDialog@CDialog@@MAEXXZ
	DD	FLAT:?Initial@CSetting_PriceMA@@UAEXPAUIGraphInfo135914@@@Z
	DD	FLAT:?OnApply@CSetting_PriceMA@@UAEHPAUIGraphInfo135914@@@Z
	DD	FLAT:?SetTitle@CBaseDialog@@UAEXHABV?$CStringT@DV?$StrTraitMFC_DLL@DV?$ChTraitsCRT@D@ATL@@@@@ATL@@@Z
	DD	FLAT:?DoCalculate@CBaseDialog@@UAE_NXZ
CONST	ENDS
;	COMDAT ??_R2CDialog@@8
rdata$r	SEGMENT
??_R2CDialog@@8 DD FLAT:??_R1A@?0A@EA@CDialog@@8	; CDialog::`RTTI Base Class Array'
	DD	FLAT:??_R1A@?0A@EA@CWnd@@8
	DD	FLAT:??_R1A@?0A@EA@CCmdTarget@@8
	DD	FLAT:??_R1A@?0A@EA@CObject@@8
rdata$r	ENDS
;	COMDAT ??_R3CDialog@@8
rdata$r	SEGMENT
??_R3CDialog@@8 DD 00H					; CDialog::`RTTI Class Hierarchy Descriptor'
	DD	00H
	DD	04H
	DD	FLAT:??_R2CDialog@@8
rdata$r	ENDS
;	COMDAT ??_R0?AVCDialog@@@8
data$rs	SEGMENT
??_R0?AVCDialog@@@8 DD FLAT:??_7type_info@@6B@		; CDialog `RTTI Type Descriptor'
	DD	00H
	DB	'.?AVCDialog@@', 00H
data$rs	ENDS
;	COMDAT ??_R1A@?0A@EA@CDialog@@8
rdata$r	SEGMENT
??_R1A@?0A@EA@CDialog@@8 DD FLAT:??_R0?AVCDialog@@@8	; CDialog::`RTTI Base Class Descriptor at (0,-1,0,64)'
	DD	03H
	DD	00H
	DD	0ffffffffH
	DD	00H
	DD	040H
	DD	FLAT:??_R3CDialog@@8
rdata$r	ENDS
;	COMDAT ??_R1A@?0A@EA@CButton@@8
rdata$r	SEGMENT
??_R1A@?0A@EA@CButton@@8 DD FLAT:??_R0?AVCButton@@@8	; CButton::`RTTI Base Class Descriptor at (0,-1,0,64)'
	DD	03H
	DD	00H
	DD	0ffffffffH
	DD	00H
	DD	040H
	DD	FLAT:??_R3CButton@@8
rdata$r	ENDS
;	COMDAT ??_R2CButton@@8
rdata$r	SEGMENT
??_R2CButton@@8 DD FLAT:??_R1A@?0A@EA@CButton@@8	; CButton::`RTTI Base Class Array'
	DD	FLAT:??_R1A@?0A@EA@CWnd@@8
	DD	FLAT:??_R1A@?0A@EA@CCmdTarget@@8
	DD	FLAT:??_R1A@?0A@EA@CObject@@8
rdata$r	ENDS
;	COMDAT ??_R3CButton@@8
rdata$r	SEGMENT
??_R3CButton@@8 DD 00H					; CButton::`RTTI Class Hierarchy Descriptor'
	DD	00H
	DD	04H
	DD	FLAT:??_R2CButton@@8
rdata$r	ENDS
;	COMDAT ??_R0?AVCButton@@@8
data$rs	SEGMENT
??_R0?AVCButton@@@8 DD FLAT:??_7type_info@@6B@		; CButton `RTTI Type Descriptor'
	DD	00H
	DB	'.?AVCButton@@', 00H
data$rs	ENDS
;	COMDAT ??_R4CButton@@6B@
rdata$r	SEGMENT
??_R4CButton@@6B@ DD 00H				; CButton::`RTTI Complete Object Locator'
	DD	00H
	DD	00H
	DD	FLAT:??_R0?AVCButton@@@8
	DD	FLAT:??_R3CButton@@8
rdata$r	ENDS
;	COMDAT ??_R2CCmdTarget@@8
rdata$r	SEGMENT
??_R2CCmdTarget@@8 DD FLAT:??_R1A@?0A@EA@CCmdTarget@@8	; CCmdTarget::`RTTI Base Class Array'
	DD	FLAT:??_R1A@?0A@EA@CObject@@8
rdata$r	ENDS
;	COMDAT ??_R3CCmdTarget@@8
rdata$r	SEGMENT
??_R3CCmdTarget@@8 DD 00H				; CCmdTarget::`RTTI Class Hierarchy Descriptor'
	DD	00H
	DD	02H
	DD	FLAT:??_R2CCmdTarget@@8
rdata$r	ENDS
;	COMDAT ??_R0?AVCCmdTarget@@@8
data$rs	SEGMENT
??_R0?AVCCmdTarget@@@8 DD FLAT:??_7type_info@@6B@	; CCmdTarget `RTTI Type Descriptor'
	DD	00H
	DB	'.?AVCCmdTarget@@', 00H
data$rs	ENDS
;	COMDAT ??_R1A@?0A@EA@CCmdTarget@@8
rdata$r	SEGMENT
??_R1A@?0A@EA@CCmdTarget@@8 DD FLAT:??_R0?AVCCmdTarget@@@8 ; CCmdTarget::`RTTI Base Class Descriptor at (0,-1,0,64)'
	DD	01H
	DD	00H
	DD	0ffffffffH
	DD	00H
	DD	040H
	DD	FLAT:??_R3CCmdTarget@@8
rdata$r	ENDS
;	COMDAT ??_R2CWnd@@8
rdata$r	SEGMENT
??_R2CWnd@@8 DD	FLAT:??_R1A@?0A@EA@CWnd@@8		; CWnd::`RTTI Base Class Array'
	DD	FLAT:??_R1A@?0A@EA@CCmdTarget@@8
	DD	FLAT:??_R1A@?0A@EA@CObject@@8
rdata$r	ENDS
;	COMDAT ??_R3CWnd@@8
rdata$r	SEGMENT
??_R3CWnd@@8 DD	00H					; CWnd::`RTTI Class Hierarchy Descriptor'
	DD	00H
	DD	03H
	DD	FLAT:??_R2CWnd@@8
rdata$r	ENDS
;	COMDAT ??_R0?AVCWnd@@@8
data$rs	SEGMENT
??_R0?AVCWnd@@@8 DD FLAT:??_7type_info@@6B@		; CWnd `RTTI Type Descriptor'
	DD	00H
	DB	'.?AVCWnd@@', 00H
data$rs	ENDS
;	COMDAT ??_R1A@?0A@EA@CWnd@@8
rdata$r	SEGMENT
??_R1A@?0A@EA@CWnd@@8 DD FLAT:??_R0?AVCWnd@@@8		; CWnd::`RTTI Base Class Descriptor at (0,-1,0,64)'
	DD	02H
	DD	00H
	DD	0ffffffffH
	DD	00H
	DD	040H
	DD	FLAT:??_R3CWnd@@8
rdata$r	ENDS
;	COMDAT ??_R1A@?0A@EA@CObject@@8
rdata$r	SEGMENT
??_R1A@?0A@EA@CObject@@8 DD FLAT:??_R0?AVCObject@@@8	; CObject::`RTTI Base Class Descriptor at (0,-1,0,64)'
	DD	00H
	DD	00H
	DD	0ffffffffH
	DD	00H
	DD	040H
	DD	FLAT:??_R3CObject@@8
rdata$r	ENDS
;	COMDAT ??_R2CObject@@8
rdata$r	SEGMENT
??_R2CObject@@8 DD FLAT:??_R1A@?0A@EA@CObject@@8	; CObject::`RTTI Base Class Array'
rdata$r	ENDS
;	COMDAT ??_R3CObject@@8
rdata$r	SEGMENT
??_R3CObject@@8 DD 00H					; CObject::`RTTI Class Hierarchy Descriptor'
	DD	00H
	DD	01H
	DD	FLAT:??_R2CObject@@8
rdata$r	ENDS
;	COMDAT ??_R0?AVCObject@@@8
data$rs	SEGMENT
??_R0?AVCObject@@@8 DD FLAT:??_7type_info@@6B@		; CObject `RTTI Type Descriptor'
	DD	00H
	DB	'.?AVCObject@@', 00H
data$rs	ENDS
;	COMDAT ??_7CButton@@6B@
CONST	SEGMENT
??_7CButton@@6B@ DD FLAT:??_R4CButton@@6B@		; CButton::`vftable'
	DD	FLAT:?GetRuntimeClass@CButton@@UBEPAUCRuntimeClass@@XZ
	DD	FLAT:??_ECButton@@UAEPAXI@Z
	DD	FLAT:?Serialize@CObject@@UAEXAAVCArchive@@@Z
	DD	FLAT:?AssertValid@CObject@@UBEXXZ
	DD	FLAT:?Dump@CObject@@UBEXAAVCDumpContext@@@Z
	DD	FLAT:?OnCmdMsg@CCmdTarget@@UAEHIHPAXPAUAFX_CMDHANDLERINFO@@@Z
	DD	FLAT:?OnFinalRelease@CWnd@@UAEXXZ
	DD	FLAT:?IsInvokeAllowed@CCmdTarget@@UAEHJ@Z
	DD	FLAT:?GetDispatchIID@CCmdTarget@@UAEHPAU_GUID@@@Z
	DD	FLAT:?GetTypeInfoCount@CCmdTarget@@UAEIXZ
	DD	FLAT:?GetTypeLibCache@CCmdTarget@@UAEPAVCTypeLibCache@@XZ
	DD	FLAT:?GetTypeLib@CCmdTarget@@UAEJKPAPAUITypeLib@@@Z
	DD	FLAT:?GetMessageMap@CWnd@@MBEPBUAFX_MSGMAP@@XZ
	DD	FLAT:?GetCommandMap@CCmdTarget@@MBEPBUAFX_OLECMDMAP@@XZ
	DD	FLAT:?GetDispatchMap@CCmdTarget@@MBEPBUAFX_DISPMAP@@XZ
	DD	FLAT:?GetConnectionMap@CCmdTarget@@MBEPBUAFX_CONNECTIONMAP@@XZ
	DD	FLAT:?GetInterfaceMap@CWnd@@MBEPBUAFX_INTERFACEMAP@@XZ
	DD	FLAT:?GetEventSinkMap@CCmdTarget@@MBEPBUAFX_EVENTSINKMAP@@XZ
	DD	FLAT:?OnCreateAggregates@CCmdTarget@@UAEHXZ
	DD	FLAT:?GetInterfaceHook@CCmdTarget@@UAEPAUIUnknown@@PBX@Z
	DD	FLAT:?GetExtraConnectionPoints@CCmdTarget@@MAEHPAVCPtrArray@@@Z
	DD	FLAT:?GetConnectionHook@CCmdTarget@@MAEPAUIConnectionPoint@@ABU_GUID@@@Z
	DD	FLAT:?PreSubclassWindow@CWnd@@UAEXXZ
	DD	FLAT:?Create@CWnd@@UAEHPBD0KABUtagRECT@@PAV1@IPAUCCreateContext@@@Z
	DD	FLAT:?CreateEx@CWnd@@UAEHKPBD0KABUtagRECT@@PAV1@IPAX@Z
	DD	FLAT:?CreateEx@CWnd@@UAEHKPBD0KHHHHPAUHWND__@@PAUHMENU__@@PAX@Z
	DD	FLAT:?DestroyWindow@CWnd@@UAEHXZ
	DD	FLAT:?PreCreateWindow@CWnd@@UAEHAAUtagCREATESTRUCTA@@@Z
	DD	FLAT:?CalcWindowRect@CWnd@@UAEXPAUtagRECT@@I@Z
	DD	FLAT:?GetMenu@CWnd@@UBEPAVCMenu@@XZ
	DD	FLAT:?SetMenu@CWnd@@UAEHPAVCMenu@@@Z
	DD	FLAT:?OnToolHitTest@CWnd@@UBEHVCPoint@@PAUtagTOOLINFOA@@@Z
	DD	FLAT:?GetScrollBarCtrl@CWnd@@UBEPAVCScrollBar@@H@Z
	DD	FLAT:?WinHelpA@CWnd@@UAEXKI@Z
	DD	FLAT:?HtmlHelpA@CWnd@@UAEXKI@Z
	DD	FLAT:?WinHelpInternal@CWnd@@UAEXKI@Z
	DD	FLAT:?ContinueModal@CWnd@@UAEHXZ
	DD	FLAT:?EndModalLoop@CWnd@@UAEXH@Z
	DD	FLAT:?OnDrawIconicThumbnailOrLivePreview@CWnd@@UAEXAAVCDC@@VCRect@@VCSize@@HAAH@Z
	DD	FLAT:?EnsureStdObj@CWnd@@UAEJXZ
	DD	FLAT:?get_accParent@CWnd@@UAEJPAPAUIDispatch@@@Z
	DD	FLAT:?get_accChildCount@CWnd@@UAEJPAJ@Z
	DD	FLAT:?get_accChild@CWnd@@UAEJUtagVARIANT@@PAPAUIDispatch@@@Z
	DD	FLAT:?get_accName@CWnd@@UAEJUtagVARIANT@@PAPA_W@Z
	DD	FLAT:?get_accValue@CWnd@@UAEJUtagVARIANT@@PAPA_W@Z
	DD	FLAT:?get_accDescription@CWnd@@UAEJUtagVARIANT@@PAPA_W@Z
	DD	FLAT:?get_accRole@CWnd@@UAEJUtagVARIANT@@PAU2@@Z
	DD	FLAT:?get_accState@CWnd@@UAEJUtagVARIANT@@PAU2@@Z
	DD	FLAT:?get_accHelp@CWnd@@UAEJUtagVARIANT@@PAPA_W@Z
	DD	FLAT:?get_accHelpTopic@CWnd@@UAEJPAPA_WUtagVARIANT@@PAJ@Z
	DD	FLAT:?get_accKeyboardShortcut@CWnd@@UAEJUtagVARIANT@@PAPA_W@Z
	DD	FLAT:?get_accFocus@CWnd@@UAEJPAUtagVARIANT@@@Z
	DD	FLAT:?get_accSelection@CWnd@@UAEJPAUtagVARIANT@@@Z
	DD	FLAT:?get_accDefaultAction@CWnd@@UAEJUtagVARIANT@@PAPA_W@Z
	DD	FLAT:?accSelect@CWnd@@UAEJJUtagVARIANT@@@Z
	DD	FLAT:?accLocation@CWnd@@UAEJPAJ000UtagVARIANT@@@Z
	DD	FLAT:?accNavigate@CWnd@@UAEJJUtagVARIANT@@PAU2@@Z
	DD	FLAT:?accHitTest@CWnd@@UAEJJJPAUtagVARIANT@@@Z
	DD	FLAT:?accDoDefaultAction@CWnd@@UAEJUtagVARIANT@@@Z
	DD	FLAT:?put_accName@CWnd@@UAEJUtagVARIANT@@PA_W@Z
	DD	FLAT:?put_accValue@CWnd@@UAEJUtagVARIANT@@PA_W@Z
	DD	FLAT:?SetProxy@CWnd@@UAEJPAUIAccessibleProxy@@@Z
	DD	FLAT:?CreateAccessibleProxy@CWnd@@UAEJIJPAJ@Z
	DD	FLAT:?OnCommand@CWnd@@MAEHIJ@Z
	DD	FLAT:?OnNotify@CWnd@@MAEHIJPAJ@Z
	DD	FLAT:?GetSuperWndProcAddr@CWnd@@MAEPAP6GJPAUHWND__@@IIJ@ZXZ
	DD	FLAT:?DoDataExchange@CWnd@@MAEXPAVCDataExchange@@@Z
	DD	FLAT:?BeginModalState@CWnd@@UAEXXZ
	DD	FLAT:?EndModalState@CWnd@@UAEXXZ
	DD	FLAT:?PreTranslateMessage@CWnd@@UAEHPAUtagMSG@@@Z
	DD	FLAT:?OnAmbientProperty@CWnd@@UAEHPAVCOleControlSite@@JPAUtagVARIANT@@@Z
	DD	FLAT:?WindowProc@CWnd@@MAEJIIJ@Z
	DD	FLAT:?OnWndMsg@CWnd@@MAEHIIJPAJ@Z
	DD	FLAT:?DefWindowProcA@CWnd@@MAEJIIJ@Z
	DD	FLAT:?PostNcDestroy@CWnd@@MAEXXZ
	DD	FLAT:?OnChildNotify@CButton@@MAEHIIJPAJ@Z
	DD	FLAT:?OnTouchInputs@CWnd@@MAEHIPAUtagTOUCHINPUT@@@Z
	DD	FLAT:?OnTouchInput@CWnd@@MAEHVCPoint@@HHPAUtagTOUCHINPUT@@@Z
	DD	FLAT:?GetGestureStatus@CWnd@@MAEKVCPoint@@@Z
	DD	FLAT:?OnGestureZoom@CWnd@@MAEHVCPoint@@J@Z
	DD	FLAT:?OnGesturePan@CWnd@@MAEHVCPoint@@0@Z
	DD	FLAT:?OnGestureRotate@CWnd@@MAEHVCPoint@@N@Z
	DD	FLAT:?OnGestureTwoFingerTap@CWnd@@MAEHVCPoint@@@Z
	DD	FLAT:?OnGesturePressAndTap@CWnd@@MAEHVCPoint@@J@Z
	DD	FLAT:?ResizeDynamicLayout@CWnd@@MAEXXZ
	DD	FLAT:?CheckAutoCenter@CWnd@@UAEHXZ
	DD	FLAT:?IsFrameWnd@CWnd@@UBEHXZ
	DD	FLAT:?CreateControlContainer@CWnd@@MAEHPAPAVCOleControlContainer@@@Z
	DD	FLAT:?CreateControlSite@CWnd@@MAEHPAVCOleControlContainer@@PAPAVCOleControlSite@@IABU_GUID@@@Z
	DD	FLAT:?SetOccDialogInfo@CWnd@@MAEHPAU_AFX_OCC_DIALOG_INFO@@@Z
	DD	FLAT:?GetOccDialogInfo@CWnd@@MAEPAU_AFX_OCC_DIALOG_INFO@@XZ
	DD	FLAT:?Create@CButton@@UAEHPBDKABUtagRECT@@PAVCWnd@@I@Z
	DD	FLAT:?DrawItem@CButton@@UAEXPAUtagDRAWITEMSTRUCT@@@Z
CONST	ENDS
;	COMDAT ??_C@_00CNPNBAHC@@
CONST	SEGMENT
??_C@_00CNPNBAHC@@ DB 00H				; `string'
CONST	ENDS
;	COMDAT xdata$x
xdata$x	SEGMENT
__ehfuncinfo$?ApplyAllGraphData@CSetting_PriceMA@@IAEXXZ DD 019930522H
	DD	014H
	DD	FLAT:__unwindtable$?ApplyAllGraphData@CSetting_PriceMA@@IAEXXZ
	DD	2 DUP(00H)
	DD	2 DUP(00H)
	DD	00H
	DD	01H
__unwindtable$?ApplyAllGraphData@CSetting_PriceMA@@IAEXXZ DD 0ffffffffH
	DD	FLAT:__unwindfunclet$?ApplyAllGraphData@CSetting_PriceMA@@IAEXXZ$0
	DD	00H
	DD	FLAT:__unwindfunclet$?ApplyAllGraphData@CSetting_PriceMA@@IAEXXZ$1
	DD	01H
	DD	FLAT:__unwindfunclet$?ApplyAllGraphData@CSetting_PriceMA@@IAEXXZ$2
	DD	02H
	DD	FLAT:__unwindfunclet$?ApplyAllGraphData@CSetting_PriceMA@@IAEXXZ$3
	DD	03H
	DD	FLAT:__unwindfunclet$?ApplyAllGraphData@CSetting_PriceMA@@IAEXXZ$4
	DD	04H
	DD	FLAT:__unwindfunclet$?ApplyAllGraphData@CSetting_PriceMA@@IAEXXZ$5
	DD	02H
	DD	FLAT:__unwindfunclet$?ApplyAllGraphData@CSetting_PriceMA@@IAEXXZ$6
	DD	06H
	DD	FLAT:__unwindfunclet$?ApplyAllGraphData@CSetting_PriceMA@@IAEXXZ$7
	DD	07H
	DD	FLAT:__unwindfunclet$?ApplyAllGraphData@CSetting_PriceMA@@IAEXXZ$19
	DD	08H
	DD	FLAT:__unwindfunclet$?ApplyAllGraphData@CSetting_PriceMA@@IAEXXZ$20
	DD	09H
	DD	FLAT:__unwindfunclet$?ApplyAllGraphData@CSetting_PriceMA@@IAEXXZ$21
	DD	0aH
	DD	FLAT:__unwindfunclet$?ApplyAllGraphData@CSetting_PriceMA@@IAEXXZ$22
	DD	06H
	DD	FLAT:__unwindfunclet$?ApplyAllGraphData@CSetting_PriceMA@@IAEXXZ$12
	DD	0cH
	DD	FLAT:__unwindfunclet$?ApplyAllGraphData@CSetting_PriceMA@@IAEXXZ$23
	DD	0dH
	DD	FLAT:__unwindfunclet$?ApplyAllGraphData@CSetting_PriceMA@@IAEXXZ$24
	DD	0eH
	DD	FLAT:__unwindfunclet$?ApplyAllGraphData@CSetting_PriceMA@@IAEXXZ$25
	DD	0fH
	DD	FLAT:__unwindfunclet$?ApplyAllGraphData@CSetting_PriceMA@@IAEXXZ$26
	DD	010H
	DD	FLAT:__unwindfunclet$?ApplyAllGraphData@CSetting_PriceMA@@IAEXXZ$27
	DD	011H
	DD	FLAT:__unwindfunclet$?ApplyAllGraphData@CSetting_PriceMA@@IAEXXZ$28
	DD	00H
	DD	FLAT:___std_terminate
xdata$x	ENDS
;	COMDAT xdata$x
xdata$x	SEGMENT
__ehfuncinfo$?SetPacketName@CSetting_PriceMA@@IAEXH@Z DD 019930522H
	DD	015H
	DD	FLAT:__unwindtable$?SetPacketName@CSetting_PriceMA@@IAEXH@Z
	DD	2 DUP(00H)
	DD	2 DUP(00H)
	DD	00H
	DD	01H
__unwindtable$?SetPacketName@CSetting_PriceMA@@IAEXH@Z DD 0ffffffffH
	DD	FLAT:__unwindfunclet$?SetPacketName@CSetting_PriceMA@@IAEXH@Z$0
	DD	00H
	DD	FLAT:__unwindfunclet$?SetPacketName@CSetting_PriceMA@@IAEXH@Z$1
	DD	01H
	DD	FLAT:__unwindfunclet$?SetPacketName@CSetting_PriceMA@@IAEXH@Z$2
	DD	01H
	DD	FLAT:__unwindfunclet$?SetPacketName@CSetting_PriceMA@@IAEXH@Z$3
	DD	03H
	DD	FLAT:__unwindfunclet$?SetPacketName@CSetting_PriceMA@@IAEXH@Z$4
	DD	01H
	DD	FLAT:__unwindfunclet$?SetPacketName@CSetting_PriceMA@@IAEXH@Z$5
	DD	05H
	DD	FLAT:__unwindfunclet$?SetPacketName@CSetting_PriceMA@@IAEXH@Z$6
	DD	06H
	DD	FLAT:__unwindfunclet$?SetPacketName@CSetting_PriceMA@@IAEXH@Z$21
	DD	07H
	DD	FLAT:__unwindfunclet$?SetPacketName@CSetting_PriceMA@@IAEXH@Z$8
	DD	08H
	DD	FLAT:__unwindfunclet$?SetPacketName@CSetting_PriceMA@@IAEXH@Z$22
	DD	01H
	DD	FLAT:__unwindfunclet$?SetPacketName@CSetting_PriceMA@@IAEXH@Z$10
	DD	0aH
	DD	FLAT:__unwindfunclet$?SetPacketName@CSetting_PriceMA@@IAEXH@Z$11
	DD	0bH
	DD	FLAT:__unwindfunclet$?SetPacketName@CSetting_PriceMA@@IAEXH@Z$23
	DD	0cH
	DD	FLAT:__unwindfunclet$?SetPacketName@CSetting_PriceMA@@IAEXH@Z$13
	DD	0dH
	DD	FLAT:__unwindfunclet$?SetPacketName@CSetting_PriceMA@@IAEXH@Z$24
	DD	0eH
	DD	FLAT:__unwindfunclet$?SetPacketName@CSetting_PriceMA@@IAEXH@Z$15
	DD	0fH
	DD	FLAT:__unwindfunclet$?SetPacketName@CSetting_PriceMA@@IAEXH@Z$25
	DD	01H
	DD	FLAT:__unwindfunclet$?SetPacketName@CSetting_PriceMA@@IAEXH@Z$17
	DD	01H
	DD	FLAT:__unwindfunclet$?SetPacketName@CSetting_PriceMA@@IAEXH@Z$19
	DD	01H
	DD	FLAT:__unwindfunclet$?SetPacketName@CSetting_PriceMA@@IAEXH@Z$20
	DD	0ffffffffH
	DD	FLAT:___std_terminate
xdata$x	ENDS
;	COMDAT xdata$x
xdata$x	SEGMENT
__unwindtable$?CreateDropButton@CSetting_PriceMA@@IAEHAAVCDropButton@@V?$CStringT@DV?$StrTraitMFC_DLL@DV?$ChTraitsCRT@D@ATL@@@@@ATL@@II_N@Z DD 0ffffffffH
	DD	FLAT:__unwindfunclet$?CreateDropButton@CSetting_PriceMA@@IAEHAAVCDropButton@@V?$CStringT@DV?$StrTraitMFC_DLL@DV?$ChTraitsCRT@D@ATL@@@@@ATL@@II_N@Z$0
__ehfuncinfo$?CreateDropButton@CSetting_PriceMA@@IAEHAAVCDropButton@@V?$CStringT@DV?$StrTraitMFC_DLL@DV?$ChTraitsCRT@D@ATL@@@@@ATL@@II_N@Z DD 019930522H
	DD	01H
	DD	FLAT:__unwindtable$?CreateDropButton@CSetting_PriceMA@@IAEHAAVCDropButton@@V?$CStringT@DV?$StrTraitMFC_DLL@DV?$ChTraitsCRT@D@ATL@@@@@ATL@@II_N@Z
	DD	2 DUP(00H)
	DD	2 DUP(00H)
	DD	00H
	DD	01H
xdata$x	ENDS
;	COMDAT xdata$x
xdata$x	SEGMENT
__ehfuncinfo$?OnInitDialog@CSetting_PriceMA@@MAEHXZ DD 019930522H
	DD	09H
	DD	FLAT:__unwindtable$?OnInitDialog@CSetting_PriceMA@@MAEHXZ
	DD	2 DUP(00H)
	DD	2 DUP(00H)
	DD	00H
	DD	01H
__unwindtable$?OnInitDialog@CSetting_PriceMA@@MAEHXZ DD 0ffffffffH
	DD	FLAT:__unwindfunclet$?OnInitDialog@CSetting_PriceMA@@MAEHXZ$0
	DD	0ffffffffH
	DD	FLAT:__unwindfunclet$?OnInitDialog@CSetting_PriceMA@@MAEHXZ$1
	DD	01H
	DD	FLAT:__unwindfunclet$?OnInitDialog@CSetting_PriceMA@@MAEHXZ$3
	DD	02H
	DD	FLAT:__unwindfunclet$?OnInitDialog@CSetting_PriceMA@@MAEHXZ$4
	DD	01H
	DD	FLAT:__unwindfunclet$?OnInitDialog@CSetting_PriceMA@@MAEHXZ$5
	DD	04H
	DD	FLAT:__unwindfunclet$?OnInitDialog@CSetting_PriceMA@@MAEHXZ$7
	DD	05H
	DD	FLAT:__unwindfunclet$?OnInitDialog@CSetting_PriceMA@@MAEHXZ$8
	DD	06H
	DD	FLAT:__unwindfunclet$?OnInitDialog@CSetting_PriceMA@@MAEHXZ$9
	DD	07H
	DD	FLAT:__unwindfunclet$?OnInitDialog@CSetting_PriceMA@@MAEHXZ$10
xdata$x	ENDS
;	COMDAT xdata$x
xdata$x	SEGMENT
__ehfuncinfo$?OnApply@CSetting_PriceMA@@UAEHPAUIGraphInfo135914@@@Z DD 019930522H
	DD	05H
	DD	FLAT:__unwindtable$?OnApply@CSetting_PriceMA@@UAEHPAUIGraphInfo135914@@@Z
	DD	2 DUP(00H)
	DD	2 DUP(00H)
	DD	00H
	DD	01H
__unwindtable$?OnApply@CSetting_PriceMA@@UAEHPAUIGraphInfo135914@@@Z DD 0ffffffffH
	DD	FLAT:__unwindfunclet$?OnApply@CSetting_PriceMA@@UAEHPAUIGraphInfo135914@@@Z$0
	DD	00H
	DD	FLAT:__unwindfunclet$?OnApply@CSetting_PriceMA@@UAEHPAUIGraphInfo135914@@@Z$1
	DD	0ffffffffH
	DD	FLAT:___std_terminate
	DD	0ffffffffH
	DD	FLAT:___std_terminate
	DD	0ffffffffH
	DD	00H
xdata$x	ENDS
;	COMDAT xdata$x
xdata$x	SEGMENT
__ehfuncinfo$??0CSetting_PriceMA@@QAE@PAUIChartOCX135914@@PAVCWnd@@1@Z DD 019930522H
	DD	05H
	DD	FLAT:__unwindtable$??0CSetting_PriceMA@@QAE@PAUIChartOCX135914@@PAVCWnd@@1@Z
	DD	2 DUP(00H)
	DD	2 DUP(00H)
	DD	00H
	DD	01H
__unwindtable$??0CSetting_PriceMA@@QAE@PAUIChartOCX135914@@PAVCWnd@@1@Z DD 0ffffffffH
	DD	FLAT:__unwindfunclet$??0CSetting_PriceMA@@QAE@PAUIChartOCX135914@@PAVCWnd@@1@Z$0
	DD	00H
	DD	FLAT:__unwindfunclet$??0CSetting_PriceMA@@QAE@PAUIChartOCX135914@@PAVCWnd@@1@Z$1
	DD	01H
	DD	FLAT:__unwindfunclet$??0CSetting_PriceMA@@QAE@PAUIChartOCX135914@@PAVCWnd@@1@Z$2
	DD	02H
	DD	FLAT:__unwindfunclet$??0CSetting_PriceMA@@QAE@PAUIChartOCX135914@@PAVCWnd@@1@Z$3
	DD	03H
	DD	FLAT:__unwindfunclet$??0CSetting_PriceMA@@QAE@PAUIChartOCX135914@@PAVCWnd@@1@Z$4
xdata$x	ENDS
;	COMDAT xdata$x
xdata$x	SEGMENT
__ehfuncinfo$??1ILPCSTR135914@@QAE@XZ DD 019930522H
	DD	00H
	DD	00H
	DD	2 DUP(00H)
	DD	2 DUP(00H)
	DD	00H
	DD	05H
xdata$x	ENDS
;	COMDAT xdata$x
xdata$x	SEGMENT
__unwindtable$??HATL@@YA?AV?$CStringT@DV?$StrTraitMFC_DLL@DV?$ChTraitsCRT@D@ATL@@@@@0@ABV10@PBD@Z DD 0ffffffffH
	DD	FLAT:__unwindfunclet$??HATL@@YA?AV?$CStringT@DV?$StrTraitMFC_DLL@DV?$ChTraitsCRT@D@ATL@@@@@0@ABV10@PBD@Z$0
__ehfuncinfo$??HATL@@YA?AV?$CStringT@DV?$StrTraitMFC_DLL@DV?$ChTraitsCRT@D@ATL@@@@@0@ABV10@PBD@Z DD 019930522H
	DD	01H
	DD	FLAT:__unwindtable$??HATL@@YA?AV?$CStringT@DV?$StrTraitMFC_DLL@DV?$ChTraitsCRT@D@ATL@@@@@0@ABV10@PBD@Z
	DD	2 DUP(00H)
	DD	2 DUP(00H)
	DD	00H
	DD	01H
xdata$x	ENDS
; Function compile flags: /Ogtp
; File D:\git\src\IBK\IBK_DRFN\ProjSrc\SrcChartEx\ChartAddIn\ChartEnvSetupDlgAddIn\ChartEnvSetupDlgAddIn\Setting_PriceMA.cpp
; File C:\Program Files (x86)\Microsoft Visual Studio\2019\Community\VC\Tools\MSVC\14.29.30133\atlmfc\include\afx.inl
;	COMDAT ??_GCSetting_PriceMA@@UAEPAXI@Z
_TEXT	SEGMENT
___flags$ = 8						; size = 4
??_GCSetting_PriceMA@@UAEPAXI@Z PROC			; CSetting_PriceMA::`scalar deleting destructor', COMDAT
; _this$ = ecx
  00000	55		 push	 ebp
  00001	8b ec		 mov	 ebp, esp
; File D:\git\src\IBK\IBK_DRFN\ProjSrc\SrcChartEx\ChartAddIn\ChartEnvSetupDlgAddIn\ChartEnvSetupDlgAddIn\Setting_PriceMA.cpp

; 64   : {

  00003	56		 push	 esi
  00004	8b f1		 mov	 esi, ecx

; 65   : 	if( m_pDlgMACondition)

  00006	8b 8e 48 04 00
	00		 mov	 ecx, DWORD PTR [esi+1096]
  0000c	c7 06 00 00 00
	00		 mov	 DWORD PTR [esi], OFFSET ??_7CSetting_PriceMA@@6B@
  00012	85 c9		 test	 ecx, ecx
  00014	74 11		 je	 SHORT $LN8@scalar

; 66   : 	{
; 67   : 		delete m_pDlgMACondition;

  00016	8b 01		 mov	 eax, DWORD PTR [ecx]
  00018	6a 01		 push	 1
  0001a	ff 50 04	 call	 DWORD PTR [eax+4]

; 68   : 		m_pDlgMACondition = NULL;

  0001d	c7 86 48 04 00
	00 00 00 00 00	 mov	 DWORD PTR [esi+1096], 0
$LN8@scalar:

; 69   : 	}
; 70   : }

  00027	8d 8e 70 03 00
	00		 lea	 ecx, DWORD PTR [esi+880]
  0002d	e8 00 00 00 00	 call	 ??1CDropButton@@UAE@XZ	; CDropButton::~CDropButton
  00032	8d 8e 98 02 00
	00		 lea	 ecx, DWORD PTR [esi+664]
  00038	e8 00 00 00 00	 call	 ??1CDropButton@@UAE@XZ	; CDropButton::~CDropButton
  0003d	8d 8e 08 02 00
	00		 lea	 ecx, DWORD PTR [esi+520]
  00043	e8 00 00 00 00	 call	 ??1CButton@@UAE@XZ	; CButton::~CButton
  00048	8d 8e 80 01 00
	00		 lea	 ecx, DWORD PTR [esi+384]
  0004e	e8 00 00 00 00	 call	 ??1CBitmapItemComboBox@@UAE@XZ ; CBitmapItemComboBox::~CBitmapItemComboBox
  00053	8d 8e f8 00 00
	00		 lea	 ecx, DWORD PTR [esi+248]
  00059	e8 00 00 00 00	 call	 ??1CBitmapItemComboBox@@UAE@XZ ; CBitmapItemComboBox::~CBitmapItemComboBox
  0005e	8b ce		 mov	 ecx, esi
  00060	e8 00 00 00 00	 call	 ??1CBaseDialog@@UAE@XZ	; CBaseDialog::~CBaseDialog
  00065	8b 45 08	 mov	 eax, DWORD PTR ___flags$[ebp]
  00068	a8 01		 test	 al, 1
  0006a	74 22		 je	 SHORT $LN15@scalar
  0006c	a8 04		 test	 al, 4
  0006e	75 10		 jne	 SHORT $LN3@scalar
; File C:\Program Files (x86)\Microsoft Visual Studio\2019\Community\VC\Tools\MSVC\14.29.30133\atlmfc\include\afx.inl

; 112  : 	{ ::operator delete(p); }

  00070	56		 push	 esi
  00071	e8 00 00 00 00	 call	 ??3@YAXPAX@Z		; operator delete
  00076	83 c4 04	 add	 esp, 4
  00079	8b c6		 mov	 eax, esi
  0007b	5e		 pop	 esi
  0007c	5d		 pop	 ebp
  0007d	c2 04 00	 ret	 4
$LN3@scalar:
  00080	68 50 04 00 00	 push	 1104			; 00000450H
  00085	56		 push	 esi
  00086	e8 00 00 00 00	 call	 ?__global_delete@@YAXPAXI@Z ; __global_delete
  0008b	83 c4 08	 add	 esp, 8
$LN15@scalar:
  0008e	8b c6		 mov	 eax, esi
  00090	5e		 pop	 esi
  00091	5d		 pop	 ebp
  00092	c2 04 00	 ret	 4
??_GCSetting_PriceMA@@UAEPAXI@Z ENDP			; CSetting_PriceMA::`scalar deleting destructor'
_TEXT	ENDS
; Function compile flags: /Ogtp
; File D:\git\src\IBK\IBK_DRFN\ProjSrc\SrcChartEx\ChartAddIn\ChartEnvSetupDlgAddIn\ChartEnvSetupDlgAddIn\Setting_PriceMA.cpp
; File C:\Program Files (x86)\Microsoft Visual Studio\2019\Community\VC\Tools\MSVC\14.29.30133\atlmfc\include\afxwin2.inl
; File D:\git\src\IBK\IBK_DRFN\ProjSrc\SrcChartEx\ChartAddIn\ChartEnvSetupDlgAddIn\ChartEnvSetupDlgAddIn\Setting_PriceMA.cpp
; File C:\Program Files (x86)\Microsoft Visual Studio\2019\Community\VC\Tools\MSVC\14.29.30133\atlmfc\include\afxwin2.inl
; File D:\git\src\IBK\IBK_DRFN\ProjSrc\SrcChartEx\ChartAddIn\ChartEnvSetupDlgAddIn\ChartEnvSetupDlgAddIn\Setting_PriceMA.cpp
; File D:\git\src\IBK\IBK_DRFN\ProjSrc\SrcChartEx\ChartAddIn\ChartEnvSetupDlgAddIn\Include_AddIn_135914\I135914\_IString.h
; File D:\git\src\IBK\IBK_DRFN\ProjSrc\SrcChartEx\ChartAddIn\ChartEnvSetupDlgAddIn\ChartEnvSetupDlgAddIn\Setting_PriceMA.cpp
; File C:\Program Files (x86)\Microsoft Visual Studio\2019\Community\VC\Tools\MSVC\14.29.30133\atlmfc\include\atlsimpstr.h
; File D:\git\src\IBK\IBK_DRFN\ProjSrc\SrcChartEx\ChartAddIn\ChartEnvSetupDlgAddIn\ChartEnvSetupDlgAddIn\Setting_PriceMA.cpp
; File C:\Program Files (x86)\Microsoft Visual Studio\2019\Community\VC\Tools\MSVC\14.29.30133\atlmfc\include\atlsimpstr.h
; File D:\git\src\IBK\IBK_DRFN\ProjSrc\SrcChartEx\ChartAddIn\ChartEnvSetupDlgAddIn\ChartEnvSetupDlgAddIn\Setting_PriceMA.cpp
; File C:\Program Files (x86)\Microsoft Visual Studio\2019\Community\VC\Tools\MSVC\14.29.30133\atlmfc\include\afxwin2.inl
; File D:\git\src\IBK\IBK_DRFN\ProjSrc\SrcChartEx\ChartAddIn\ChartEnvSetupDlgAddIn\ChartEnvSetupDlgAddIn\Setting_PriceMA.cpp
; File C:\Program Files (x86)\Microsoft Visual Studio\2019\Community\VC\Tools\MSVC\14.29.30133\atlmfc\include\cstringt.h
; File D:\git\src\IBK\IBK_DRFN\ProjSrc\SrcChartEx\ChartAddIn\ChartEnvSetupDlgAddIn\ChartEnvSetupDlgAddIn\Setting_PriceMA.cpp
; File C:\Program Files (x86)\Microsoft Visual Studio\2019\Community\VC\Tools\MSVC\14.29.30133\atlmfc\include\cstringt.h
; File C:\Program Files (x86)\Microsoft Visual Studio\2019\Community\VC\Tools\MSVC\14.29.30133\atlmfc\include\atlsimpstr.h
; File C:\Program Files (x86)\Microsoft Visual Studio\2019\Community\VC\Tools\MSVC\14.29.30133\atlmfc\include\cstringt.h
; File C:\Program Files (x86)\Microsoft Visual Studio\2019\Community\VC\Tools\MSVC\14.29.30133\atlmfc\include\atlsimpstr.h
; File C:\Program Files (x86)\Microsoft Visual Studio\2019\Community\VC\Tools\MSVC\14.29.30133\atlmfc\include\cstringt.h
; File C:\Program Files (x86)\Microsoft Visual Studio\2019\Community\VC\Tools\MSVC\14.29.30133\atlmfc\include\atlsimpstr.h
; File C:\Program Files (x86)\Microsoft Visual Studio\2019\Community\VC\Tools\MSVC\14.29.30133\atlmfc\include\cstringt.h
; File D:\git\src\IBK\IBK_DRFN\ProjSrc\SrcChartEx\ChartAddIn\ChartEnvSetupDlgAddIn\ChartEnvSetupDlgAddIn\Setting_PriceMA.cpp
; File C:\Program Files (x86)\Microsoft Visual Studio\2019\Community\VC\Tools\MSVC\14.29.30133\atlmfc\include\cstringt.h
; File C:\Program Files (x86)\Microsoft Visual Studio\2019\Community\VC\Tools\MSVC\14.29.30133\atlmfc\include\atlsimpstr.h
; File C:\Program Files (x86)\Microsoft Visual Studio\2019\Community\VC\Tools\MSVC\14.29.30133\atlmfc\include\cstringt.h
; File D:\git\src\IBK\IBK_DRFN\ProjSrc\SrcChartEx\ChartAddIn\ChartEnvSetupDlgAddIn\ChartEnvSetupDlgAddIn\Setting_PriceMA.cpp
; File C:\Program Files (x86)\Microsoft Visual Studio\2019\Community\VC\Tools\MSVC\14.29.30133\atlmfc\include\cstringt.h
; File D:\git\src\IBK\IBK_DRFN\ProjSrc\SrcChartEx\ChartAddIn\ChartEnvSetupDlgAddIn\ChartEnvSetupDlgAddIn\Setting_PriceMA.cpp
; File C:\Program Files (x86)\Microsoft Visual Studio\2019\Community\VC\Tools\MSVC\14.29.30133\atlmfc\include\cstringt.h
; File D:\git\src\IBK\IBK_DRFN\ProjSrc\SrcChartEx\ChartAddIn\ChartEnvSetupDlgAddIn\ChartEnvSetupDlgAddIn\Setting_PriceMA.cpp
; File C:\Program Files (x86)\Microsoft Visual Studio\2019\Community\VC\Tools\MSVC\14.29.30133\atlmfc\include\cstringt.h
; File C:\Program Files (x86)\Microsoft Visual Studio\2019\Community\VC\Tools\MSVC\14.29.30133\atlmfc\include\atlsimpstr.h
; File C:\Program Files (x86)\Microsoft Visual Studio\2019\Community\VC\Tools\MSVC\14.29.30133\atlmfc\include\cstringt.h
; File C:\Program Files (x86)\Microsoft Visual Studio\2019\Community\VC\Tools\MSVC\14.29.30133\atlmfc\include\atlsimpstr.h
; File C:\Program Files (x86)\Microsoft Visual Studio\2019\Community\VC\Tools\MSVC\14.29.30133\atlmfc\include\cstringt.h
; File D:\git\src\IBK\IBK_DRFN\ProjSrc\SrcChartEx\ChartAddIn\ChartEnvSetupDlgAddIn\ChartEnvSetupDlgAddIn\Setting_PriceMA.cpp
; File C:\Program Files (x86)\Microsoft Visual Studio\2019\Community\VC\Tools\MSVC\14.29.30133\atlmfc\include\cstringt.h
; File C:\Program Files (x86)\Microsoft Visual Studio\2019\Community\VC\Tools\MSVC\14.29.30133\atlmfc\include\atlsimpstr.h
; File C:\Program Files (x86)\Microsoft Visual Studio\2019\Community\VC\Tools\MSVC\14.29.30133\atlmfc\include\cstringt.h
; File D:\git\src\IBK\IBK_DRFN\ProjSrc\SrcChartEx\ChartAddIn\ChartEnvSetupDlgAddIn\ChartEnvSetupDlgAddIn\Setting_PriceMA.cpp
; File C:\Program Files (x86)\Microsoft Visual Studio\2019\Community\VC\Tools\MSVC\14.29.30133\atlmfc\include\cstringt.h
; File D:\git\src\IBK\IBK_DRFN\ProjSrc\SrcChartEx\ChartAddIn\ChartEnvSetupDlgAddIn\ChartEnvSetupDlgAddIn\Setting_PriceMA.cpp
; File C:\Program Files (x86)\Microsoft Visual Studio\2019\Community\VC\Tools\MSVC\14.29.30133\atlmfc\include\cstringt.h
; File C:\Program Files (x86)\Microsoft Visual Studio\2019\Community\VC\Tools\MSVC\14.29.30133\atlmfc\include\atlsimpstr.h
; File C:\Program Files (x86)\Microsoft Visual Studio\2019\Community\VC\Tools\MSVC\14.29.30133\atlmfc\include\cstringt.h
; File C:\Program Files (x86)\Microsoft Visual Studio\2019\Community\VC\Tools\MSVC\14.29.30133\atlmfc\include\atlsimpstr.h
; File C:\Program Files (x86)\Microsoft Visual Studio\2019\Community\VC\Tools\MSVC\14.29.30133\atlmfc\include\cstringt.h
; File C:\Program Files (x86)\Microsoft Visual Studio\2019\Community\VC\Tools\MSVC\14.29.30133\atlmfc\include\atlsimpstr.h
; File C:\Program Files (x86)\Microsoft Visual Studio\2019\Community\VC\Tools\MSVC\14.29.30133\atlmfc\include\cstringt.h
; File D:\git\src\IBK\IBK_DRFN\ProjSrc\SrcChartEx\ChartAddIn\ChartEnvSetupDlgAddIn\ChartEnvSetupDlgAddIn\Setting_PriceMA.cpp
; File C:\Program Files (x86)\Microsoft Visual Studio\2019\Community\VC\Tools\MSVC\14.29.30133\atlmfc\include\cstringt.h
; File C:\Program Files (x86)\Microsoft Visual Studio\2019\Community\VC\Tools\MSVC\14.29.30133\atlmfc\include\atlsimpstr.h
; File C:\Program Files (x86)\Microsoft Visual Studio\2019\Community\VC\Tools\MSVC\14.29.30133\atlmfc\include\cstringt.h
; File D:\git\src\IBK\IBK_DRFN\ProjSrc\SrcChartEx\ChartAddIn\ChartEnvSetupDlgAddIn\ChartEnvSetupDlgAddIn\Setting_PriceMA.cpp
; File C:\Program Files (x86)\Microsoft Visual Studio\2019\Community\VC\Tools\MSVC\14.29.30133\atlmfc\include\cstringt.h
; File D:\git\src\IBK\IBK_DRFN\ProjSrc\SrcChartEx\ChartAddIn\ChartEnvSetupDlgAddIn\ChartEnvSetupDlgAddIn\Setting_PriceMA.cpp
; File C:\Program Files (x86)\Microsoft Visual Studio\2019\Community\VC\Tools\MSVC\14.29.30133\atlmfc\include\cstringt.h
; File D:\git\src\IBK\IBK_DRFN\ProjSrc\SrcChartEx\ChartAddIn\ChartEnvSetupDlgAddIn\ChartEnvSetupDlgAddIn\Setting_PriceMA.cpp
; File C:\Program Files (x86)\Microsoft Visual Studio\2019\Community\VC\Tools\MSVC\14.29.30133\atlmfc\include\cstringt.h
; File C:\Program Files (x86)\Microsoft Visual Studio\2019\Community\VC\Tools\MSVC\14.29.30133\atlmfc\include\atlsimpstr.h
; File C:\Program Files (x86)\Microsoft Visual Studio\2019\Community\VC\Tools\MSVC\14.29.30133\atlmfc\include\cstringt.h
; File C:\Program Files (x86)\Microsoft Visual Studio\2019\Community\VC\Tools\MSVC\14.29.30133\atlmfc\include\atlsimpstr.h
; File C:\Program Files (x86)\Microsoft Visual Studio\2019\Community\VC\Tools\MSVC\14.29.30133\atlmfc\include\cstringt.h
; File D:\git\src\IBK\IBK_DRFN\ProjSrc\SrcChartEx\ChartAddIn\ChartEnvSetupDlgAddIn\ChartEnvSetupDlgAddIn\Setting_PriceMA.cpp
; File C:\Program Files (x86)\Microsoft Visual Studio\2019\Community\VC\Tools\MSVC\14.29.30133\atlmfc\include\cstringt.h
; File C:\Program Files (x86)\Microsoft Visual Studio\2019\Community\VC\Tools\MSVC\14.29.30133\atlmfc\include\atlsimpstr.h
; File C:\Program Files (x86)\Microsoft Visual Studio\2019\Community\VC\Tools\MSVC\14.29.30133\atlmfc\include\cstringt.h
; File D:\git\src\IBK\IBK_DRFN\ProjSrc\SrcChartEx\ChartAddIn\ChartEnvSetupDlgAddIn\ChartEnvSetupDlgAddIn\Setting_PriceMA.cpp
; File C:\Program Files (x86)\Microsoft Visual Studio\2019\Community\VC\Tools\MSVC\14.29.30133\atlmfc\include\cstringt.h
; File D:\git\src\IBK\IBK_DRFN\ProjSrc\SrcChartEx\ChartAddIn\ChartEnvSetupDlgAddIn\ChartEnvSetupDlgAddIn\Setting_PriceMA.cpp
; File C:\Program Files (x86)\Microsoft Visual Studio\2019\Community\VC\Tools\MSVC\14.29.30133\atlmfc\include\cstringt.h
; File D:\git\src\IBK\IBK_DRFN\ProjSrc\SrcChartEx\ChartAddIn\ChartEnvSetupDlgAddIn\ChartEnvSetupDlgAddIn\Setting_PriceMA.cpp
; File C:\Program Files (x86)\Microsoft Visual Studio\2019\Community\VC\Tools\MSVC\14.29.30133\atlmfc\include\cstringt.h
; File C:\Program Files (x86)\Microsoft Visual Studio\2019\Community\VC\Tools\MSVC\14.29.30133\atlmfc\include\atlsimpstr.h
; File C:\Program Files (x86)\Microsoft Visual Studio\2019\Community\VC\Tools\MSVC\14.29.30133\atlmfc\include\cstringt.h
; File C:\Program Files (x86)\Microsoft Visual Studio\2019\Community\VC\Tools\MSVC\14.29.30133\atlmfc\include\atlsimpstr.h
; File C:\Program Files (x86)\Microsoft Visual Studio\2019\Community\VC\Tools\MSVC\14.29.30133\atlmfc\include\cstringt.h
; File D:\git\src\IBK\IBK_DRFN\ProjSrc\SrcChartEx\ChartAddIn\ChartEnvSetupDlgAddIn\ChartEnvSetupDlgAddIn\Setting_PriceMA.cpp
; File C:\Program Files (x86)\Microsoft Visual Studio\2019\Community\VC\Tools\MSVC\14.29.30133\atlmfc\include\cstringt.h
; File C:\Program Files (x86)\Microsoft Visual Studio\2019\Community\VC\Tools\MSVC\14.29.30133\atlmfc\include\atlsimpstr.h
; File C:\Program Files (x86)\Microsoft Visual Studio\2019\Community\VC\Tools\MSVC\14.29.30133\atlmfc\include\cstringt.h
; File D:\git\src\IBK\IBK_DRFN\ProjSrc\SrcChartEx\ChartAddIn\ChartEnvSetupDlgAddIn\ChartEnvSetupDlgAddIn\Setting_PriceMA.cpp
; File C:\Program Files (x86)\Microsoft Visual Studio\2019\Community\VC\Tools\MSVC\14.29.30133\atlmfc\include\atlsimpstr.h
; File D:\git\src\IBK\IBK_DRFN\ProjSrc\SrcChartEx\ChartAddIn\ChartEnvSetupDlgAddIn\ChartEnvSetupDlgAddIn\Setting_PriceMA.cpp
; File D:\git\src\IBK\IBK_DRFN\ProjSrc\SrcChartEx\ChartAddIn\ChartEnvSetupDlgAddIn\Include_AddIn_135914\I135914\_IString.h
; File D:\git\src\IBK\IBK_DRFN\ProjSrc\SrcChartEx\ChartAddIn\ChartEnvSetupDlgAddIn\ChartEnvSetupDlgAddIn\Setting_PriceMA.cpp
; File D:\git\src\IBK\IBK_DRFN\ProjSrc\SrcChartEx\ChartAddIn\ChartEnvSetupDlgAddIn\Include_AddIn_135914\I135914\_IString.h
; File D:\git\src\IBK\IBK_DRFN\ProjSrc\SrcChartEx\ChartAddIn\ChartEnvSetupDlgAddIn\ChartEnvSetupDlgAddIn\Setting_PriceMA.cpp
;	COMDAT ?ApplyAllGraphData@CSetting_PriceMA@@IAEXXZ
_TEXT	SEGMENT
_dCalCnd$ = -124					; size = 8
_szOrgTitle$2 = -116					; size = 8
$T3 = -108						; size = 4
$T4 = -104						; size = 4
$T5 = -100						; size = 4
_psz2$1$ = -100						; size = 4
_psz2$1$ = -100						; size = 4
_psz2$1$ = -100						; size = 4
_psz2$1$ = -100						; size = 4
tv1510 = -100						; size = 4
tv1506 = -100						; size = 4
tv1501 = -100						; size = 4
tv1497 = -100						; size = 4
$T6 = -96						; size = 4
$T7 = -92						; size = 4
$T8 = -88						; size = 4
_psz2$1$ = -88						; size = 4
tv1494 = -88						; size = 4
_pComboBox$1$ = -88					; size = 4
_pICalCnd$1$ = -88					; size = 4
$T9 = -84						; size = 4
$T10 = -80						; size = 4
_this$1$ = -76						; size = 4
_strNewCondition$11 = -72				; size = 4
$T12 = -68						; size = 4
$T13 = -64						; size = 4
$T14 = -60						; size = 4
$T15 = -56						; size = 4
$T16 = -52						; size = 4
$T17 = -48						; size = 4
$T18 = -44						; size = 4
$T19 = -40						; size = 4
_psn$ = -36						; size = 4
_strOrgTitle$20 = -32					; size = 4
_strCondition$ = -28					; size = 4
_i$1$ = -24						; size = 4
_strPacketNames$21 = -20				; size = 4
_pNumEdit$1$ = -16					; size = 4
$T22 = -16						; size = 4
__$EHRec$ = -12						; size = 12
?ApplyAllGraphData@CSetting_PriceMA@@IAEXXZ PROC	; CSetting_PriceMA::ApplyAllGraphData, COMDAT
; _this$ = ecx

; 410  : {

  00000	55		 push	 ebp
  00001	8b ec		 mov	 ebp, esp
  00003	6a ff		 push	 -1
  00005	68 00 00 00 00	 push	 __ehhandler$?ApplyAllGraphData@CSetting_PriceMA@@IAEXXZ
  0000a	64 a1 00 00 00
	00		 mov	 eax, DWORD PTR fs:0
  00010	50		 push	 eax
  00011	83 ec 70	 sub	 esp, 112		; 00000070H
  00014	53		 push	 ebx
  00015	56		 push	 esi
  00016	57		 push	 edi
  00017	a1 00 00 00 00	 mov	 eax, DWORD PTR ___security_cookie
  0001c	33 c5		 xor	 eax, ebp
  0001e	50		 push	 eax
  0001f	8d 45 f4	 lea	 eax, DWORD PTR __$EHRec$[ebp]
  00022	64 a3 00 00 00
	00		 mov	 DWORD PTR fs:0, eax
  00028	8b f9		 mov	 edi, ecx
  0002a	89 7d b4	 mov	 DWORD PTR _this$1$[ebp], edi
  0002d	33 db		 xor	 ebx, ebx
  0002f	89 5d f0	 mov	 DWORD PTR $T22[ebp], ebx

; 411  : 	if(m_pIGraphInfo == NULL) return;

  00032	39 9f c4 00 00
	00		 cmp	 DWORD PTR [edi+196], ebx
  00038	0f 84 ea 07 00
	00		 je	 $LN1@ApplyAllGr

; 412  : 
; 413  : 	IDoubleList *pICalCnd = NULL;
; 414  : 	CString strCondition;

  0003e	8d 4d e4	 lea	 ecx, DWORD PTR _strCondition$[ebp]
  00041	ff 15 00 00 00
	00		 call	 DWORD PTR __imp_??0?$CStringT@DV?$StrTraitMFC_DLL@DV?$ChTraitsCRT@D@ATL@@@@@ATL@@QAE@XZ

; 422  : 	for( int i = 0 ; i < m_nSubGraphCount ; i++ )

  00047	33 f6		 xor	 esi, esi
  00049	89 5d fc	 mov	 DWORD PTR __$EHRec$[ebp+8], ebx
  0004c	89 75 e8	 mov	 DWORD PTR _i$1$[ebp], esi
  0004f	39 b7 4c 04 00
	00		 cmp	 DWORD PTR [edi+1100], esi
  00055	0f 8e c4 07 00
	00		 jle	 $LN3@ApplyAllGr
  0005b	0f 1f 44 00 00	 npad	 5
$LL4@ApplyAllGr:

; 734  : 	if( m_pDlgMACondition == NULL )

  00060	8b 8f 48 04 00
	00		 mov	 ecx, DWORD PTR [edi+1096]
  00066	85 c9		 test	 ecx, ecx
  00068	75 08		 jne	 SHORT $LN50@ApplyAllGr

; 735  : 		return &m_btnShowGraphAll;

  0006a	8d 87 08 02 00
	00		 lea	 eax, DWORD PTR [edi+520]
  00070	eb 06		 jmp	 SHORT $LN49@ApplyAllGr
$LN50@ApplyAllGr:

; 736  : 
; 737  : 	return m_pDlgMACondition->GetCheckButton(nSubGraphIndex);

  00072	56		 push	 esi
  00073	e8 00 00 00 00	 call	 ?GetCheckButton@CSetting_PriceMA_Condition@@QAEPAVCButton@@H@Z ; CSetting_PriceMA_Condition::GetCheckButton
$LN49@ApplyAllGr:

; 426  : 		if( pCheckButton) m_pIGraphInfo->SetSubGraphShowFlag( i, pCheckButton->GetCheck());

  00078	85 c0		 test	 eax, eax
  0007a	74 1f		 je	 SHORT $LN10@ApplyAllGr
; File C:\Program Files (x86)\Microsoft Visual Studio\2019\Community\VC\Tools\MSVC\14.29.30133\atlmfc\include\afxwin2.inl

; 628  : 	{ ASSERT(::IsWindow(m_hWnd)); return (int)::SendMessage(m_hWnd, BM_GETCHECK, 0, 0); }

  0007c	6a 00		 push	 0
  0007e	6a 00		 push	 0
  00080	68 f0 00 00 00	 push	 240			; 000000f0H
  00085	ff 70 20	 push	 DWORD PTR [eax+32]
  00088	ff 15 00 00 00
	00		 call	 DWORD PTR __imp__SendMessageA@16
; File D:\git\src\IBK\IBK_DRFN\ProjSrc\SrcChartEx\ChartAddIn\ChartEnvSetupDlgAddIn\ChartEnvSetupDlgAddIn\Setting_PriceMA.cpp

; 426  : 		if( pCheckButton) m_pIGraphInfo->SetSubGraphShowFlag( i, pCheckButton->GetCheck());

  0008e	8b 8f c4 00 00
	00		 mov	 ecx, DWORD PTR [edi+196]
  00094	50		 push	 eax
  00095	56		 push	 esi
  00096	8b 11		 mov	 edx, DWORD PTR [ecx]
  00098	ff 52 38	 call	 DWORD PTR [edx+56]
$LN10@ApplyAllGr:

; 427  : 
; 428  : 		pICalCnd = m_pIGraphInfo->GetCalculateConditionList( i);

  0009b	8b 8f c4 00 00
	00		 mov	 ecx, DWORD PTR [edi+196]
  000a1	56		 push	 esi
  000a2	8b 01		 mov	 eax, DWORD PTR [ecx]
  000a4	ff 50 18	 call	 DWORD PTR [eax+24]

; 532  : 	if( !m_pDlgMACondition) return NULL;

  000a7	8b 8f 48 04 00
	00		 mov	 ecx, DWORD PTR [edi+1096]

; 427  : 
; 428  : 		pICalCnd = m_pIGraphInfo->GetCalculateConditionList( i);

  000ad	8b f0		 mov	 esi, eax
  000af	89 75 a8	 mov	 DWORD PTR _pICalCnd$1$[ebp], esi

; 532  : 	if( !m_pDlgMACondition) return NULL;

  000b2	85 c9		 test	 ecx, ecx
  000b4	75 05		 jne	 SHORT $LN55@ApplyAllGr
  000b6	89 4d f0	 mov	 DWORD PTR _pNumEdit$1$[ebp], ecx
  000b9	eb 0b		 jmp	 SHORT $LN54@ApplyAllGr
$LN55@ApplyAllGr:

; 533  : 	return m_pDlgMACondition->GetEditCtrl( nSubGraphIndex);

  000bb	ff 75 e8	 push	 DWORD PTR _i$1$[ebp]
  000be	e8 00 00 00 00	 call	 ?GetEditCtrl@CSetting_PriceMA_Condition@@QAEPAVCNumEdit@@H@Z ; CSetting_PriceMA_Condition::GetEditCtrl
  000c3	89 45 f0	 mov	 DWORD PTR _pNumEdit$1$[ebp], eax
$LN54@ApplyAllGr:

; 429  : 		pNumEdit = GetEditCtrl( i);
; 430  : 		if( pICalCnd )

  000c6	85 f6		 test	 esi, esi
  000c8	0f 84 ba 00 00
	00		 je	 $LN11@ApplyAllGr

; 431  : 		{
; 432  : 			psn = pICalCnd->GetHeadPosition();

  000ce	8b 16		 mov	 edx, DWORD PTR [esi]
  000d0	8b ce		 mov	 ecx, esi
  000d2	ff 52 34	 call	 DWORD PTR [edx+52]
  000d5	89 45 dc	 mov	 DWORD PTR _psn$[ebp], eax

; 433  : 			if( psn)

  000d8	85 c0		 test	 eax, eax
  000da	74 5a		 je	 SHORT $LN12@ApplyAllGr

; 434  : 			{
; 435  : 				//  .
; 436  : 				strCondition = "";

  000dc	68 00 00 00 00	 push	 OFFSET ??_C@_00CNPNBAHC@@
  000e1	8d 4d e4	 lea	 ecx, DWORD PTR _strCondition$[ebp]
  000e4	ff 15 00 00 00
	00		 call	 DWORD PTR __imp_??4?$CStringT@DV?$StrTraitMFC_DLL@DV?$ChTraitsCRT@D@ATL@@@@@ATL@@QAEAAV01@PBD@Z

; 437  : 				if( pNumEdit) pNumEdit->GetWindowText( strCondition);

  000ea	8b 45 f0	 mov	 eax, DWORD PTR _pNumEdit$1$[ebp]
  000ed	85 c0		 test	 eax, eax
  000ef	74 0b		 je	 SHORT $LN13@ApplyAllGr
  000f1	8d 4d e4	 lea	 ecx, DWORD PTR _strCondition$[ebp]
  000f4	51		 push	 ecx
  000f5	8b c8		 mov	 ecx, eax
  000f7	e8 00 00 00 00	 call	 ?GetWindowTextA@CWnd@@QBEXAAV?$CStringT@DV?$StrTraitMFC_DLL@DV?$ChTraitsCRT@D@ATL@@@@@ATL@@@Z ; CWnd::GetWindowTextA
$LN13@ApplyAllGr:

; 438  : 				pICalCnd->SetAt( psn, atof(strCondition));

  000fc	ff 75 e4	 push	 DWORD PTR _strCondition$[ebp]
  000ff	8b 36		 mov	 esi, DWORD PTR [esi]
  00101	ff 15 00 00 00
	00		 call	 DWORD PTR __imp__atof
  00107	51		 push	 ecx
  00108	8b 4d a8	 mov	 ecx, DWORD PTR _pICalCnd$1$[ebp]
  0010b	dd 1c 24	 fstp	 QWORD PTR [esp]
  0010e	ff 75 dc	 push	 DWORD PTR _psn$[ebp]
  00111	ff 56 48	 call	 DWORD PTR [esi+72]

; 439  : 
; 440  : 				dCalCnd = -1;
; 441  : 				pICalCnd->GetNext( psn, dCalCnd);

  00114	8b 75 a8	 mov	 esi, DWORD PTR _pICalCnd$1$[ebp]
  00117	8d 4d 84	 lea	 ecx, DWORD PTR _dCalCnd$[ebp]
  0011a	f2 0f 10 05 00
	00 00 00	 movsd	 xmm0, QWORD PTR __real@bff0000000000000
  00122	51		 push	 ecx
  00123	f2 0f 11 45 84	 movsd	 QWORD PTR _dCalCnd$[ebp], xmm0
  00128	8d 4d dc	 lea	 ecx, DWORD PTR _psn$[ebp]
  0012b	8b 06		 mov	 eax, DWORD PTR [esi]
  0012d	51		 push	 ecx
  0012e	8b ce		 mov	 ecx, esi
  00130	ff 50 3c	 call	 DWORD PTR [eax+60]
  00133	8b 45 dc	 mov	 eax, DWORD PTR _psn$[ebp]
$LN12@ApplyAllGr:

; 848  : 	if( !m_pDlgMACondition) return NULL;

  00136	8b 8f 48 04 00
	00		 mov	 ecx, DWORD PTR [edi+1096]
  0013c	85 c9		 test	 ecx, ecx
  0013e	74 0d		 je	 SHORT $LN59@ApplyAllGr
$LN60@ApplyAllGr:

; 849  : 	return m_pDlgMACondition->GetCalcMethodCombo( nSubGraphIndex );

  00140	ff 75 e8	 push	 DWORD PTR _i$1$[ebp]
  00143	e8 00 00 00 00	 call	 ?GetCalcMethodCombo@CSetting_PriceMA_Condition@@QAEPAVCComboBox@@H@Z ; CSetting_PriceMA_Condition::GetCalcMethodCombo
  00148	8b c8		 mov	 ecx, eax
  0014a	8b 45 dc	 mov	 eax, DWORD PTR _psn$[ebp]
$LN59@ApplyAllGr:

; 442  : 			}
; 443  : 			pCalcMethodCombo = GetCalcMethodCombo(i);
; 444  : 			if( psn && pCalcMethodCombo) 

  0014d	85 c0		 test	 eax, eax
  0014f	74 31		 je	 SHORT $LN14@ApplyAllGr
  00151	85 c9		 test	 ecx, ecx
  00153	74 2d		 je	 SHORT $LN14@ApplyAllGr
; File C:\Program Files (x86)\Microsoft Visual Studio\2019\Community\VC\Tools\MSVC\14.29.30133\atlmfc\include\afxwin2.inl

; 765  : 	{ ASSERT(::IsWindow(m_hWnd)); return (int)::SendMessage(m_hWnd, CB_GETCURSEL, 0, 0); }

  00155	6a 00		 push	 0
  00157	6a 00		 push	 0
  00159	68 47 01 00 00	 push	 327			; 00000147H
  0015e	ff 71 20	 push	 DWORD PTR [ecx+32]
  00161	ff 15 00 00 00
	00		 call	 DWORD PTR __imp__SendMessageA@16
; File D:\git\src\IBK\IBK_DRFN\ProjSrc\SrcChartEx\ChartAddIn\ChartEnvSetupDlgAddIn\ChartEnvSetupDlgAddIn\Setting_PriceMA.cpp

; 445  : 				pICalCnd->SetAt( psn, pCalcMethodCombo->GetCurSel() + 1);

  00167	8b 16		 mov	 edx, DWORD PTR [esi]
  00169	40		 inc	 eax
  0016a	83 ec 08	 sub	 esp, 8
  0016d	8b ce		 mov	 ecx, esi
  0016f	66 0f 6e c0	 movd	 xmm0, eax
  00173	f3 0f e6 c0	 cvtdq2pd xmm0, xmm0
  00177	f2 0f 11 04 24	 movsd	 QWORD PTR [esp], xmm0
  0017c	ff 75 dc	 push	 DWORD PTR _psn$[ebp]
  0017f	ff 52 48	 call	 DWORD PTR [edx+72]
$LN14@ApplyAllGr:

; 446  : 			pICalCnd->Release();

  00182	8b 06		 mov	 eax, DWORD PTR [esi]
  00184	56		 push	 esi
  00185	ff 50 08	 call	 DWORD PTR [eax+8]
$LN11@ApplyAllGr:

; 447  : 		}
; 448  : 
; 449  : 		strCondition = "";

  00188	68 00 00 00 00	 push	 OFFSET ??_C@_00CNPNBAHC@@
  0018d	8d 4d e4	 lea	 ecx, DWORD PTR _strCondition$[ebp]
  00190	ff 15 00 00 00
	00		 call	 DWORD PTR __imp_??4?$CStringT@DV?$StrTraitMFC_DLL@DV?$ChTraitsCRT@D@ATL@@@@@ATL@@QAEAAV01@PBD@Z

; 450  : 		if( pNumEdit) pNumEdit->GetWindowText(strCondition);

  00196	8b 45 f0	 mov	 eax, DWORD PTR _pNumEdit$1$[ebp]
  00199	85 c0		 test	 eax, eax
  0019b	74 0b		 je	 SHORT $LN15@ApplyAllGr
  0019d	8d 4d e4	 lea	 ecx, DWORD PTR _strCondition$[ebp]
  001a0	51		 push	 ecx
  001a1	8b c8		 mov	 ecx, eax
  001a3	e8 00 00 00 00	 call	 ?GetWindowTextA@CWnd@@QBEXAAV?$CStringT@DV?$StrTraitMFC_DLL@DV?$ChTraitsCRT@D@ATL@@@@@ATL@@@Z ; CWnd::GetWindowTextA
$LN15@ApplyAllGr:

; 452  : 		ILPCSTR szOrgTitle = m_pIGraphInfo->GetSubGraphTitleString( i);

  001a8	8b 8f c4 00 00
	00		 mov	 ecx, DWORD PTR [edi+196]
  001ae	ff 75 e8	 push	 DWORD PTR _i$1$[ebp]
  001b1	8b 01		 mov	 eax, DWORD PTR [ecx]
  001b3	ff 50 48	 call	 DWORD PTR [eax+72]
; File D:\git\src\IBK\IBK_DRFN\ProjSrc\SrcChartEx\ChartAddIn\ChartEnvSetupDlgAddIn\Include_AddIn_135914\I135914\_IString.h

; 39   : 		m_pIStrData = p_pIString;	// Do not AddRef(). Because It must be Return Value.

  001b6	89 45 90	 mov	 DWORD PTR _szOrgTitle$2[ebp+4], eax

; 40   : 		if( m_pIStrData) m_szData = m_pIStrData->GetData();

  001b9	85 c0		 test	 eax, eax
  001bb	74 0b		 je	 SHORT $LN65@ApplyAllGr
  001bd	8b 10		 mov	 edx, DWORD PTR [eax]
  001bf	8b c8		 mov	 ecx, eax
  001c1	ff 52 10	 call	 DWORD PTR [edx+16]
  001c4	8b f0		 mov	 esi, eax
  001c6	eb 02		 jmp	 SHORT $LN261@ApplyAllGr
$LN65@ApplyAllGr:

; 41   : 		else m_szData = NULL;

  001c8	33 f6		 xor	 esi, esi
$LN261@ApplyAllGr:
; File D:\git\src\IBK\IBK_DRFN\ProjSrc\SrcChartEx\ChartAddIn\ChartEnvSetupDlgAddIn\ChartEnvSetupDlgAddIn\Setting_PriceMA.cpp

; 452  : 		ILPCSTR szOrgTitle = m_pIGraphInfo->GetSubGraphTitleString( i);

  001ca	89 75 8c	 mov	 DWORD PTR _szOrgTitle$2[ebp], esi

; 453  : 		CString strOrgTitle = _MTOL1_N( szOrgTitle);

  001cd	6a 01		 push	 1
  001cf	56		 push	 esi
  001d0	6a 01		 push	 1
  001d2	ff b7 d8 00 00
	00		 push	 DWORD PTR [edi+216]
  001d8	b9 00 00 00 00	 mov	 ecx, OFFSET ?g_iMetaTable@@3VIMetaTable@@A ; g_iMetaTable
  001dd	c6 45 fc 01	 mov	 BYTE PTR __$EHRec$[ebp+8], 1
  001e1	e8 00 00 00 00	 call	 ?GetLanguageText@IMetaTable@@QAEPBDPAUHWND__@@W4E_CODEPAGE@1@PBDH@Z ; IMetaTable::GetLanguageText
  001e6	50		 push	 eax
  001e7	8d 4d e0	 lea	 ecx, DWORD PTR _strOrgTitle$20[ebp]
  001ea	ff 15 00 00 00
	00		 call	 DWORD PTR __imp_??0?$CStringT@DV?$StrTraitMFC_DLL@DV?$ChTraitsCRT@D@ATL@@@@@ATL@@QAE@PBD@Z
; File C:\Program Files (x86)\Microsoft Visual Studio\2019\Community\VC\Tools\MSVC\14.29.30133\atlmfc\include\atlsimpstr.h

; 519  : 		return( GetData()->nDataLength );

  001f0	8b 45 e0	 mov	 eax, DWORD PTR _strOrgTitle$20[ebp]
; File D:\git\src\IBK\IBK_DRFN\ProjSrc\SrcChartEx\ChartAddIn\ChartEnvSetupDlgAddIn\ChartEnvSetupDlgAddIn\Setting_PriceMA.cpp

; 453  : 		CString strOrgTitle = _MTOL1_N( szOrgTitle);

  001f3	c6 45 fc 02	 mov	 BYTE PTR __$EHRec$[ebp+8], 2
; File C:\Program Files (x86)\Microsoft Visual Studio\2019\Community\VC\Tools\MSVC\14.29.30133\atlmfc\include\atlsimpstr.h

; 533  : 		return( GetLength() == 0 );

  001f7	83 78 f4 00	 cmp	 DWORD PTR [eax-12], 0
; File D:\git\src\IBK\IBK_DRFN\ProjSrc\SrcChartEx\ChartAddIn\ChartEnvSetupDlgAddIn\ChartEnvSetupDlgAddIn\Setting_PriceMA.cpp

; 454  : 		if( strOrgTitle.IsEmpty())	strOrgTitle = szOrgTitle;

  001fb	75 0d		 jne	 SHORT $LN16@ApplyAllGr
  001fd	56		 push	 esi
  001fe	8d 4d e0	 lea	 ecx, DWORD PTR _strOrgTitle$20[ebp]
  00201	ff 15 00 00 00
	00		 call	 DWORD PTR __imp_??4?$CStringT@DV?$StrTraitMFC_DLL@DV?$ChTraitsCRT@D@ATL@@@@@ATL@@QAEAAV01@PBD@Z
  00207	8b 45 e0	 mov	 eax, DWORD PTR _strOrgTitle$20[ebp]
$LN16@ApplyAllGr:

; 455  : 		const char *szTitle = strOrgTitle;
; 456  : 		int nStartIndex = 0;
; 457  : 		while( szTitle[ nStartIndex] && ( '9' < szTitle[ nStartIndex] || szTitle[ nStartIndex] < '0')) nStartIndex++;

  0020a	8a 08		 mov	 cl, BYTE PTR [eax]
  0020c	33 f6		 xor	 esi, esi
  0020e	84 c9		 test	 cl, cl
  00210	74 13		 je	 SHORT $LN257@ApplyAllGr
$LL5@ApplyAllGr:
  00212	80 f9 39	 cmp	 cl, 57			; 00000039H
  00215	7f 05		 jg	 SHORT $LN247@ApplyAllGr
  00217	80 f9 30	 cmp	 cl, 48			; 00000030H
  0021a	7d 09		 jge	 SHORT $LN257@ApplyAllGr
$LN247@ApplyAllGr:
  0021c	8a 4c 06 01	 mov	 cl, BYTE PTR [esi+eax+1]
  00220	46		 inc	 esi
  00221	84 c9		 test	 cl, cl
  00223	75 ed		 jne	 SHORT $LL5@ApplyAllGr
$LN257@ApplyAllGr:

; 458  : 		int nEndIndex = nStartIndex;
; 459  : 		while( szTitle[ nEndIndex] && '0' <= szTitle[ nEndIndex] && szTitle[ nEndIndex] <= '9') nEndIndex++;

  00225	8a 0c 06	 mov	 cl, BYTE PTR [esi+eax]
  00228	8b fe		 mov	 edi, esi
  0022a	84 c9		 test	 cl, cl
  0022c	0f 84 a7 00 00
	00		 je	 $LN259@ApplyAllGr
$LL7@ApplyAllGr:
  00232	80 e9 30	 sub	 cl, 48			; 00000030H
  00235	80 f9 09	 cmp	 cl, 9
  00238	77 09		 ja	 SHORT $LN8@ApplyAllGr
  0023a	8a 4c 07 01	 mov	 cl, BYTE PTR [edi+eax+1]
  0023e	47		 inc	 edi
  0023f	84 c9		 test	 cl, cl
  00241	75 ef		 jne	 SHORT $LL7@ApplyAllGr
$LN8@ApplyAllGr:

; 460  : 		if( nStartIndex != nEndIndex)

  00243	3b f7		 cmp	 esi, edi
  00245	0f 84 8e 00 00
	00		 je	 $LN259@ApplyAllGr

; 461  : 		{
; 462  : 			CString strNewCondition;

  0024b	8d 4d b8	 lea	 ecx, DWORD PTR _strNewCondition$11[ebp]
  0024e	ff 15 00 00 00
	00		 call	 DWORD PTR __imp_??0?$CStringT@DV?$StrTraitMFC_DLL@DV?$ChTraitsCRT@D@ATL@@@@@ATL@@QAE@XZ

; 463  : 			strNewCondition.Format( "%s%d%s",strOrgTitle.Left( nStartIndex), atoi( strCondition), strOrgTitle.Mid( nEndIndex));

  00254	57		 push	 edi
  00255	8d 45 a0	 lea	 eax, DWORD PTR $T6[ebp]
  00258	c6 45 fc 03	 mov	 BYTE PTR __$EHRec$[ebp+8], 3
  0025c	50		 push	 eax
  0025d	8d 4d e0	 lea	 ecx, DWORD PTR _strOrgTitle$20[ebp]
  00260	ff 15 00 00 00
	00		 call	 DWORD PTR __imp_?Mid@?$CStringT@DV?$StrTraitMFC_DLL@DV?$ChTraitsCRT@D@ATL@@@@@ATL@@QBE?AV12@H@Z
  00266	8b f8		 mov	 edi, eax
  00268	56		 push	 esi
  00269	8d 45 a4	 lea	 eax, DWORD PTR $T7[ebp]
  0026c	c6 45 fc 04	 mov	 BYTE PTR __$EHRec$[ebp+8], 4
  00270	50		 push	 eax
  00271	8d 4d e0	 lea	 ecx, DWORD PTR _strOrgTitle$20[ebp]
  00274	ff 15 00 00 00
	00		 call	 DWORD PTR __imp_?Left@?$CStringT@DV?$StrTraitMFC_DLL@DV?$ChTraitsCRT@D@ATL@@@@@ATL@@QBE?AV12@H@Z
  0027a	8b f0		 mov	 esi, eax
  0027c	ff 37		 push	 DWORD PTR [edi]
  0027e	c6 45 fc 05	 mov	 BYTE PTR __$EHRec$[ebp+8], 5
  00282	ff 75 e4	 push	 DWORD PTR _strCondition$[ebp]
  00285	ff 15 00 00 00
	00		 call	 DWORD PTR __imp__atoi
  0028b	83 c4 04	 add	 esp, 4
  0028e	50		 push	 eax
  0028f	ff 36		 push	 DWORD PTR [esi]
  00291	8d 45 b8	 lea	 eax, DWORD PTR _strNewCondition$11[ebp]
  00294	68 00 00 00 00	 push	 OFFSET ??_C@_06PFFBCHML@?$CFs?$CFd?$CFs@
  00299	50		 push	 eax
  0029a	ff 15 00 00 00
	00		 call	 DWORD PTR __imp_?Format@?$CStringT@DV?$StrTraitMFC_DLL@DV?$ChTraitsCRT@D@ATL@@@@@ATL@@QAAXPBDZZ
  002a0	83 c4 14	 add	 esp, 20			; 00000014H
  002a3	8d 4d a4	 lea	 ecx, DWORD PTR $T7[ebp]
  002a6	ff 15 00 00 00
	00		 call	 DWORD PTR __imp_??1?$CStringT@DV?$StrTraitMFC_DLL@DV?$ChTraitsCRT@D@ATL@@@@@ATL@@QAE@XZ
  002ac	8d 4d a0	 lea	 ecx, DWORD PTR $T6[ebp]
  002af	c6 45 fc 03	 mov	 BYTE PTR __$EHRec$[ebp+8], 3
  002b3	ff 15 00 00 00
	00		 call	 DWORD PTR __imp_??1?$CStringT@DV?$StrTraitMFC_DLL@DV?$ChTraitsCRT@D@ATL@@@@@ATL@@QAE@XZ

; 464  : 			m_pIGraphInfo->SetSubGraphTitle( i, strNewCondition);

  002b9	8b 7d b4	 mov	 edi, DWORD PTR _this$1$[ebp]
  002bc	ff 75 b8	 push	 DWORD PTR _strNewCondition$11[ebp]
  002bf	8b 75 e8	 mov	 esi, DWORD PTR _i$1$[ebp]
  002c2	56		 push	 esi
  002c3	8b 8f c4 00 00
	00		 mov	 ecx, DWORD PTR [edi+196]
  002c9	8b 01		 mov	 eax, DWORD PTR [ecx]
  002cb	ff 50 4c	 call	 DWORD PTR [eax+76]

; 465  : 		}

  002ce	8d 4d b8	 lea	 ecx, DWORD PTR _strNewCondition$11[ebp]
  002d1	ff 15 00 00 00
	00		 call	 DWORD PTR __imp_??1?$CStringT@DV?$StrTraitMFC_DLL@DV?$ChTraitsCRT@D@ATL@@@@@ATL@@QAE@XZ
  002d7	eb 06		 jmp	 SHORT $LN18@ApplyAllGr
$LN259@ApplyAllGr:

; 466  : 
; 467  : 		//  
; 468  : 		CString strPacketNames;

  002d9	8b 75 e8	 mov	 esi, DWORD PTR _i$1$[ebp]
  002dc	8b 7d b4	 mov	 edi, DWORD PTR _this$1$[ebp]
$LN18@ApplyAllGr:
  002df	8d 4d ec	 lea	 ecx, DWORD PTR _strPacketNames$21[ebp]
  002e2	ff 15 00 00 00
	00		 call	 DWORD PTR __imp_??0?$CStringT@DV?$StrTraitMFC_DLL@DV?$ChTraitsCRT@D@ATL@@@@@ATL@@QAE@XZ

; 855  : 	if( !m_pDlgMACondition) return NULL;

  002e8	8b 8f 48 04 00
	00		 mov	 ecx, DWORD PTR [edi+1096]

; 466  : 
; 467  : 		//  
; 468  : 		CString strPacketNames;

  002ee	c6 45 fc 06	 mov	 BYTE PTR __$EHRec$[ebp+8], 6

; 855  : 	if( !m_pDlgMACondition) return NULL;

  002f2	85 c9		 test	 ecx, ecx
  002f4	0f 84 1e 04 00
	00		 je	 $LN25@ApplyAllGr

; 856  : 	return m_pDlgMACondition->GetPacketCombo( nSubGraphIndex );

  002fa	56		 push	 esi
  002fb	e8 00 00 00 00	 call	 ?GetPacketCombo@CSetting_PriceMA_Condition@@QAEPAVCComboBox@@H@Z ; CSetting_PriceMA_Condition::GetPacketCombo

; 469  : 		CComboBox *pComboBox = GetPacketCombo( i);
; 470  : 		int nSelect = 0;

  00300	33 d2		 xor	 edx, edx

; 856  : 	return m_pDlgMACondition->GetPacketCombo( nSubGraphIndex );

  00302	89 45 a8	 mov	 DWORD PTR _pComboBox$1$[ebp], eax

; 471  : 		if( pComboBox) nSelect = pComboBox->GetCurSel();

  00305	85 c0		 test	 eax, eax
  00307	74 15		 je	 SHORT $LN19@ApplyAllGr
; File C:\Program Files (x86)\Microsoft Visual Studio\2019\Community\VC\Tools\MSVC\14.29.30133\atlmfc\include\afxwin2.inl

; 765  : 	{ ASSERT(::IsWindow(m_hWnd)); return (int)::SendMessage(m_hWnd, CB_GETCURSEL, 0, 0); }

  00309	52		 push	 edx
  0030a	52		 push	 edx
  0030b	68 47 01 00 00	 push	 327			; 00000147H
  00310	ff 70 20	 push	 DWORD PTR [eax+32]
  00313	ff 15 00 00 00
	00		 call	 DWORD PTR __imp__SendMessageA@16
; File D:\git\src\IBK\IBK_DRFN\ProjSrc\SrcChartEx\ChartAddIn\ChartEnvSetupDlgAddIn\ChartEnvSetupDlgAddIn\Setting_PriceMA.cpp

; 471  : 		if( pComboBox) nSelect = pComboBox->GetCurSel();

  00319	8b d0		 mov	 edx, eax
  0031b	8b 45 a8	 mov	 eax, DWORD PTR _pComboBox$1$[ebp]
$LN19@ApplyAllGr:

; 474  : 		if( nSelect == 4)		strPacketNames = CString( "(") + _MTEXT( C0_HIGH) + "+" + _MTEXT( C0_LOW) + ")/2";

  0031e	33 c9		 xor	 ecx, ecx
  00320	85 d2		 test	 edx, edx
  00322	0f 49 ca	 cmovns	 ecx, edx
  00325	83 f9 04	 cmp	 ecx, 4
  00328	0f 85 8e 01 00
	00		 jne	 $LN21@ApplyAllGr
  0032e	68 00 00 00 00	 push	 OFFSET ??_C@_01ODHLEDKK@?$CI@
  00333	8d 4d 98	 lea	 ecx, DWORD PTR $T4[ebp]
  00336	ff 15 00 00 00
	00		 call	 DWORD PTR __imp_??0?$CStringT@DV?$StrTraitMFC_DLL@DV?$ChTraitsCRT@D@ATL@@@@@ATL@@QAE@PBD@Z
  0033c	89 45 9c	 mov	 DWORD PTR $T5[ebp], eax
  0033f	8b 0d 54 00 00
	00		 mov	 ecx, DWORD PTR ?g_iMetaTable@@3VIMetaTable@@A+84
  00345	8b 49 0c	 mov	 ecx, DWORD PTR [ecx+12]
  00348	89 4d a8	 mov	 DWORD PTR _psz2$1$[ebp], ecx
; File C:\Program Files (x86)\Microsoft Visual Studio\2019\Community\VC\Tools\MSVC\14.29.30133\atlmfc\include\cstringt.h

; 2401 : 		CStringT strResult( str1.GetManager() );

  0034b	8b c8		 mov	 ecx, eax
; File D:\git\src\IBK\IBK_DRFN\ProjSrc\SrcChartEx\ChartAddIn\ChartEnvSetupDlgAddIn\ChartEnvSetupDlgAddIn\Setting_PriceMA.cpp

; 474  : 		if( nSelect == 4)		strPacketNames = CString( "(") + _MTEXT( C0_HIGH) + "+" + _MTEXT( C0_LOW) + ")/2";

  0034d	c6 45 fc 08	 mov	 BYTE PTR __$EHRec$[ebp+8], 8
; File C:\Program Files (x86)\Microsoft Visual Studio\2019\Community\VC\Tools\MSVC\14.29.30133\atlmfc\include\cstringt.h

; 2401 : 		CStringT strResult( str1.GetManager() );

  00351	ff 15 00 00 00
	00		 call	 DWORD PTR __imp_?GetManager@?$CStringT@DV?$StrTraitMFC_DLL@DV?$ChTraitsCRT@D@ATL@@@@@ATL@@QBEPAUIAtlStringMgr@2@XZ
  00357	50		 push	 eax
  00358	8d 4d d0	 lea	 ecx, DWORD PTR $T17[ebp]
  0035b	ff 15 00 00 00
	00		 call	 DWORD PTR __imp_??0?$CStringT@DV?$StrTraitMFC_DLL@DV?$ChTraitsCRT@D@ATL@@@@@ATL@@QAE@PAUIAtlStringMgr@1@@Z
; File C:\Program Files (x86)\Microsoft Visual Studio\2019\Community\VC\Tools\MSVC\14.29.30133\atlmfc\include\atlsimpstr.h

; 722  : 		if( psz == NULL )

  00361	8b 55 a8	 mov	 edx, DWORD PTR _psz2$1$[ebp]
; File C:\Program Files (x86)\Microsoft Visual Studio\2019\Community\VC\Tools\MSVC\14.29.30133\atlmfc\include\cstringt.h

; 2405 : 		return( strResult );

  00364	83 cb 01	 or	 ebx, 1
  00367	89 5d f0	 mov	 DWORD PTR $T22[ebp], ebx
; File C:\Program Files (x86)\Microsoft Visual Studio\2019\Community\VC\Tools\MSVC\14.29.30133\atlmfc\include\atlsimpstr.h

; 722  : 		if( psz == NULL )

  0036a	85 d2		 test	 edx, edx
  0036c	75 04		 jne	 SHORT $LN90@ApplyAllGr

; 723  : 		{
; 724  : 			return( 0 );

  0036e	33 c9		 xor	 ecx, ecx
  00370	eb 18		 jmp	 SHORT $LN89@ApplyAllGr
$LN90@ApplyAllGr:

; 725  : 		}
; 726  : 		return( int( strlen( psz ) ) );

  00372	8b ca		 mov	 ecx, edx
  00374	8d 41 01	 lea	 eax, DWORD PTR [ecx+1]
  00377	89 45 a8	 mov	 DWORD PTR tv1494[ebp], eax
  0037a	66 0f 1f 44 00
	00		 npad	 6
$LL252@ApplyAllGr:
  00380	8a 01		 mov	 al, BYTE PTR [ecx]
  00382	41		 inc	 ecx
  00383	84 c0		 test	 al, al
  00385	75 f9		 jne	 SHORT $LL252@ApplyAllGr
  00387	2b 4d a8	 sub	 ecx, DWORD PTR tv1494[ebp]
$LN89@ApplyAllGr:

; 519  : 		return( GetData()->nDataLength );

  0038a	8b 45 9c	 mov	 eax, DWORD PTR $T5[ebp]
; File C:\Program Files (x86)\Microsoft Visual Studio\2019\Community\VC\Tools\MSVC\14.29.30133\atlmfc\include\cstringt.h

; 2403 : 		CThisSimpleString::Concatenate( strResult, str1, str1.GetLength(), psz2, CThisSimpleString::StringLength( psz2 ) );

  0038d	51		 push	 ecx
  0038e	52		 push	 edx
; File C:\Program Files (x86)\Microsoft Visual Studio\2019\Community\VC\Tools\MSVC\14.29.30133\atlmfc\include\atlsimpstr.h

; 519  : 		return( GetData()->nDataLength );

  0038f	8b 00		 mov	 eax, DWORD PTR [eax]
; File C:\Program Files (x86)\Microsoft Visual Studio\2019\Community\VC\Tools\MSVC\14.29.30133\atlmfc\include\cstringt.h

; 2403 : 		CThisSimpleString::Concatenate( strResult, str1, str1.GetLength(), psz2, CThisSimpleString::StringLength( psz2 ) );

  00391	ff 70 f4	 push	 DWORD PTR [eax-12]
  00394	50		 push	 eax
  00395	8d 45 d0	 lea	 eax, DWORD PTR $T17[ebp]
  00398	50		 push	 eax
  00399	ff 15 00 00 00
	00		 call	 DWORD PTR __imp_?Concatenate@?$CSimpleStringT@D$00@ATL@@KAXAAV12@PBDH1H@Z
  0039f	83 c4 14	 add	 esp, 20			; 00000014H

; 2401 : 		CStringT strResult( str1.GetManager() );

  003a2	8d 4d d0	 lea	 ecx, DWORD PTR $T17[ebp]
; File D:\git\src\IBK\IBK_DRFN\ProjSrc\SrcChartEx\ChartAddIn\ChartEnvSetupDlgAddIn\ChartEnvSetupDlgAddIn\Setting_PriceMA.cpp

; 474  : 		if( nSelect == 4)		strPacketNames = CString( "(") + _MTEXT( C0_HIGH) + "+" + _MTEXT( C0_LOW) + ")/2";

  003a5	c6 45 fc 09	 mov	 BYTE PTR __$EHRec$[ebp+8], 9
; File C:\Program Files (x86)\Microsoft Visual Studio\2019\Community\VC\Tools\MSVC\14.29.30133\atlmfc\include\cstringt.h

; 2401 : 		CStringT strResult( str1.GetManager() );

  003a9	ff 15 00 00 00
	00		 call	 DWORD PTR __imp_?GetManager@?$CStringT@DV?$StrTraitMFC_DLL@DV?$ChTraitsCRT@D@ATL@@@@@ATL@@QBEPAUIAtlStringMgr@2@XZ
  003af	50		 push	 eax
  003b0	8d 4d d4	 lea	 ecx, DWORD PTR $T18[ebp]
  003b3	ff 15 00 00 00
	00		 call	 DWORD PTR __imp_??0?$CStringT@DV?$StrTraitMFC_DLL@DV?$ChTraitsCRT@D@ATL@@@@@ATL@@QAE@PAUIAtlStringMgr@1@@Z
; File C:\Program Files (x86)\Microsoft Visual Studio\2019\Community\VC\Tools\MSVC\14.29.30133\atlmfc\include\atlsimpstr.h

; 519  : 		return( GetData()->nDataLength );

  003b9	8b 45 d0	 mov	 eax, DWORD PTR $T17[ebp]
; File C:\Program Files (x86)\Microsoft Visual Studio\2019\Community\VC\Tools\MSVC\14.29.30133\atlmfc\include\cstringt.h

; 2405 : 		return( strResult );

  003bc	83 cb 02	 or	 ebx, 2
  003bf	6a 01		 push	 1
  003c1	68 00 00 00 00	 push	 OFFSET ??_C@_01MIFGBAGJ@?$CL@
  003c6	89 5d f0	 mov	 DWORD PTR $T22[ebp], ebx
  003c9	ff 70 f4	 push	 DWORD PTR [eax-12]
  003cc	50		 push	 eax
  003cd	8d 45 d4	 lea	 eax, DWORD PTR $T18[ebp]
  003d0	50		 push	 eax
  003d1	ff 15 00 00 00
	00		 call	 DWORD PTR __imp_?Concatenate@?$CSimpleStringT@D$00@ATL@@KAXAAV12@PBDH1H@Z
; File D:\git\src\IBK\IBK_DRFN\ProjSrc\SrcChartEx\ChartAddIn\ChartEnvSetupDlgAddIn\ChartEnvSetupDlgAddIn\Setting_PriceMA.cpp

; 474  : 		if( nSelect == 4)		strPacketNames = CString( "(") + _MTEXT( C0_HIGH) + "+" + _MTEXT( C0_LOW) + ")/2";

  003d7	a1 54 00 00 00	 mov	 eax, DWORD PTR ?g_iMetaTable@@3VIMetaTable@@A+84
; File C:\Program Files (x86)\Microsoft Visual Studio\2019\Community\VC\Tools\MSVC\14.29.30133\atlmfc\include\cstringt.h

; 2403 : 		CThisSimpleString::Concatenate( strResult, str1, str1.GetLength(), psz2, CThisSimpleString::StringLength( psz2 ) );

  003dc	83 c4 14	 add	 esp, 20			; 00000014H
; File D:\git\src\IBK\IBK_DRFN\ProjSrc\SrcChartEx\ChartAddIn\ChartEnvSetupDlgAddIn\ChartEnvSetupDlgAddIn\Setting_PriceMA.cpp

; 474  : 		if( nSelect == 4)		strPacketNames = CString( "(") + _MTEXT( C0_HIGH) + "+" + _MTEXT( C0_LOW) + ")/2";

  003df	8b 40 10	 mov	 eax, DWORD PTR [eax+16]
  003e2	89 45 9c	 mov	 DWORD PTR _psz2$1$[ebp], eax
; File C:\Program Files (x86)\Microsoft Visual Studio\2019\Community\VC\Tools\MSVC\14.29.30133\atlmfc\include\cstringt.h

; 2401 : 		CStringT strResult( str1.GetManager() );

  003e5	8d 4d d4	 lea	 ecx, DWORD PTR $T18[ebp]
; File D:\git\src\IBK\IBK_DRFN\ProjSrc\SrcChartEx\ChartAddIn\ChartEnvSetupDlgAddIn\ChartEnvSetupDlgAddIn\Setting_PriceMA.cpp

; 474  : 		if( nSelect == 4)		strPacketNames = CString( "(") + _MTEXT( C0_HIGH) + "+" + _MTEXT( C0_LOW) + ")/2";

  003e8	c6 45 fc 0a	 mov	 BYTE PTR __$EHRec$[ebp+8], 10 ; 0000000aH
; File C:\Program Files (x86)\Microsoft Visual Studio\2019\Community\VC\Tools\MSVC\14.29.30133\atlmfc\include\cstringt.h

; 2401 : 		CStringT strResult( str1.GetManager() );

  003ec	ff 15 00 00 00
	00		 call	 DWORD PTR __imp_?GetManager@?$CStringT@DV?$StrTraitMFC_DLL@DV?$ChTraitsCRT@D@ATL@@@@@ATL@@QBEPAUIAtlStringMgr@2@XZ
  003f2	50		 push	 eax
  003f3	8d 4d d8	 lea	 ecx, DWORD PTR $T19[ebp]
  003f6	ff 15 00 00 00
	00		 call	 DWORD PTR __imp_??0?$CStringT@DV?$StrTraitMFC_DLL@DV?$ChTraitsCRT@D@ATL@@@@@ATL@@QAE@PAUIAtlStringMgr@1@@Z
; File C:\Program Files (x86)\Microsoft Visual Studio\2019\Community\VC\Tools\MSVC\14.29.30133\atlmfc\include\atlsimpstr.h

; 722  : 		if( psz == NULL )

  003fc	8b 55 9c	 mov	 edx, DWORD PTR _psz2$1$[ebp]
; File C:\Program Files (x86)\Microsoft Visual Studio\2019\Community\VC\Tools\MSVC\14.29.30133\atlmfc\include\cstringt.h

; 2405 : 		return( strResult );

  003ff	83 cb 04	 or	 ebx, 4
  00402	89 5d f0	 mov	 DWORD PTR $T22[ebp], ebx
; File C:\Program Files (x86)\Microsoft Visual Studio\2019\Community\VC\Tools\MSVC\14.29.30133\atlmfc\include\atlsimpstr.h

; 722  : 		if( psz == NULL )

  00405	85 d2		 test	 edx, edx
  00407	75 04		 jne	 SHORT $LN116@ApplyAllGr

; 723  : 		{
; 724  : 			return( 0 );

  00409	33 c9		 xor	 ecx, ecx
  0040b	eb 12		 jmp	 SHORT $LN115@ApplyAllGr
$LN116@ApplyAllGr:

; 725  : 		}
; 726  : 		return( int( strlen( psz ) ) );

  0040d	8b ca		 mov	 ecx, edx
  0040f	8d 41 01	 lea	 eax, DWORD PTR [ecx+1]
  00412	89 45 9c	 mov	 DWORD PTR tv1497[ebp], eax
$LL253@ApplyAllGr:
  00415	8a 01		 mov	 al, BYTE PTR [ecx]
  00417	41		 inc	 ecx
  00418	84 c0		 test	 al, al
  0041a	75 f9		 jne	 SHORT $LL253@ApplyAllGr
  0041c	2b 4d 9c	 sub	 ecx, DWORD PTR tv1497[ebp]
$LN115@ApplyAllGr:

; 519  : 		return( GetData()->nDataLength );

  0041f	8b 45 d4	 mov	 eax, DWORD PTR $T18[ebp]
; File C:\Program Files (x86)\Microsoft Visual Studio\2019\Community\VC\Tools\MSVC\14.29.30133\atlmfc\include\cstringt.h

; 2403 : 		CThisSimpleString::Concatenate( strResult, str1, str1.GetLength(), psz2, CThisSimpleString::StringLength( psz2 ) );

  00422	51		 push	 ecx
  00423	52		 push	 edx
  00424	ff 70 f4	 push	 DWORD PTR [eax-12]
  00427	50		 push	 eax
  00428	8d 45 d8	 lea	 eax, DWORD PTR $T19[ebp]
  0042b	50		 push	 eax
  0042c	ff 15 00 00 00
	00		 call	 DWORD PTR __imp_?Concatenate@?$CSimpleStringT@D$00@ATL@@KAXAAV12@PBDH1H@Z
  00432	83 c4 14	 add	 esp, 20			; 00000014H

; 2401 : 		CStringT strResult( str1.GetManager() );

  00435	8d 4d d8	 lea	 ecx, DWORD PTR $T19[ebp]
; File D:\git\src\IBK\IBK_DRFN\ProjSrc\SrcChartEx\ChartAddIn\ChartEnvSetupDlgAddIn\ChartEnvSetupDlgAddIn\Setting_PriceMA.cpp

; 474  : 		if( nSelect == 4)		strPacketNames = CString( "(") + _MTEXT( C0_HIGH) + "+" + _MTEXT( C0_LOW) + ")/2";

  00438	c6 45 fc 0b	 mov	 BYTE PTR __$EHRec$[ebp+8], 11 ; 0000000bH
; File C:\Program Files (x86)\Microsoft Visual Studio\2019\Community\VC\Tools\MSVC\14.29.30133\atlmfc\include\cstringt.h

; 2401 : 		CStringT strResult( str1.GetManager() );

  0043c	ff 15 00 00 00
	00		 call	 DWORD PTR __imp_?GetManager@?$CStringT@DV?$StrTraitMFC_DLL@DV?$ChTraitsCRT@D@ATL@@@@@ATL@@QBEPAUIAtlStringMgr@2@XZ
  00442	50		 push	 eax
  00443	8d 4d b0	 lea	 ecx, DWORD PTR $T10[ebp]
  00446	ff 15 00 00 00
	00		 call	 DWORD PTR __imp_??0?$CStringT@DV?$StrTraitMFC_DLL@DV?$ChTraitsCRT@D@ATL@@@@@ATL@@QAE@PAUIAtlStringMgr@1@@Z
; File C:\Program Files (x86)\Microsoft Visual Studio\2019\Community\VC\Tools\MSVC\14.29.30133\atlmfc\include\atlsimpstr.h

; 519  : 		return( GetData()->nDataLength );

  0044c	8b 45 d8	 mov	 eax, DWORD PTR $T19[ebp]
; File C:\Program Files (x86)\Microsoft Visual Studio\2019\Community\VC\Tools\MSVC\14.29.30133\atlmfc\include\cstringt.h

; 2405 : 		return( strResult );

  0044f	83 cb 08	 or	 ebx, 8
  00452	6a 03		 push	 3
  00454	68 00 00 00 00	 push	 OFFSET ??_C@_03NNOAJFPL@?$CJ?12@
  00459	89 5d f0	 mov	 DWORD PTR $T22[ebp], ebx
  0045c	ff 70 f4	 push	 DWORD PTR [eax-12]
  0045f	50		 push	 eax
  00460	8d 45 b0	 lea	 eax, DWORD PTR $T10[ebp]
  00463	50		 push	 eax
  00464	ff 15 00 00 00
	00		 call	 DWORD PTR __imp_?Concatenate@?$CSimpleStringT@D$00@ATL@@KAXAAV12@PBDH1H@Z
  0046a	83 c4 14	 add	 esp, 20			; 00000014H
; File D:\git\src\IBK\IBK_DRFN\ProjSrc\SrcChartEx\ChartAddIn\ChartEnvSetupDlgAddIn\ChartEnvSetupDlgAddIn\Setting_PriceMA.cpp

; 474  : 		if( nSelect == 4)		strPacketNames = CString( "(") + _MTEXT( C0_HIGH) + "+" + _MTEXT( C0_LOW) + ")/2";

  0046d	8d 45 b0	 lea	 eax, DWORD PTR $T10[ebp]
  00470	8d 4d ec	 lea	 ecx, DWORD PTR _strPacketNames$21[ebp]
  00473	50		 push	 eax
  00474	ff 15 00 00 00
	00		 call	 DWORD PTR __imp_??4?$CStringT@DV?$StrTraitMFC_DLL@DV?$ChTraitsCRT@D@ATL@@@@@ATL@@QAEAAV01@ABV01@@Z
  0047a	8d 4d b0	 lea	 ecx, DWORD PTR $T10[ebp]
  0047d	83 e3 f7	 and	 ebx, -9			; fffffff7H
  00480	ff 15 00 00 00
	00		 call	 DWORD PTR __imp_??1?$CStringT@DV?$StrTraitMFC_DLL@DV?$ChTraitsCRT@D@ATL@@@@@ATL@@QAE@XZ
  00486	8d 4d d8	 lea	 ecx, DWORD PTR $T19[ebp]
  00489	83 e3 fb	 and	 ebx, -5			; fffffffbH
  0048c	ff 15 00 00 00
	00		 call	 DWORD PTR __imp_??1?$CStringT@DV?$StrTraitMFC_DLL@DV?$ChTraitsCRT@D@ATL@@@@@ATL@@QAE@XZ
  00492	8d 4d d4	 lea	 ecx, DWORD PTR $T18[ebp]
  00495	83 e3 fd	 and	 ebx, -3			; fffffffdH
  00498	ff 15 00 00 00
	00		 call	 DWORD PTR __imp_??1?$CStringT@DV?$StrTraitMFC_DLL@DV?$ChTraitsCRT@D@ATL@@@@@ATL@@QAE@XZ
  0049e	8d 4d d0	 lea	 ecx, DWORD PTR $T17[ebp]
  004a1	83 e3 fe	 and	 ebx, -2			; fffffffeH
  004a4	ff 15 00 00 00
	00		 call	 DWORD PTR __imp_??1?$CStringT@DV?$StrTraitMFC_DLL@DV?$ChTraitsCRT@D@ATL@@@@@ATL@@QAE@XZ
  004aa	8d 4d 98	 lea	 ecx, DWORD PTR $T4[ebp]
  004ad	c6 45 fc 06	 mov	 BYTE PTR __$EHRec$[ebp+8], 6
  004b1	ff 15 00 00 00
	00		 call	 DWORD PTR __imp_??1?$CStringT@DV?$StrTraitMFC_DLL@DV?$ChTraitsCRT@D@ATL@@@@@ATL@@QAE@XZ
  004b7	e9 7d 02 00 00	 jmp	 $LN24@ApplyAllGr
$LN21@ApplyAllGr:

; 476  : 		else if( nSelect == 5)	strPacketNames = CString( "(") + _MTEXT( C0_HIGH) + "+" + _MTEXT( C0_LOW) + "+" + _MTEXT( C0_CLOSE) + ")/3";

  004bc	83 f9 05	 cmp	 ecx, 5
  004bf	0f 85 43 02 00
	00		 jne	 $LN23@ApplyAllGr
  004c5	68 00 00 00 00	 push	 OFFSET ??_C@_01ODHLEDKK@?$CI@
  004ca	8d 4d 94	 lea	 ecx, DWORD PTR $T3[ebp]
  004cd	ff 15 00 00 00
	00		 call	 DWORD PTR __imp_??0?$CStringT@DV?$StrTraitMFC_DLL@DV?$ChTraitsCRT@D@ATL@@@@@ATL@@QAE@PBD@Z
  004d3	89 45 a8	 mov	 DWORD PTR $T8[ebp], eax
  004d6	8b 0d 54 00 00
	00		 mov	 ecx, DWORD PTR ?g_iMetaTable@@3VIMetaTable@@A+84
  004dc	8b 49 0c	 mov	 ecx, DWORD PTR [ecx+12]
  004df	89 4d 9c	 mov	 DWORD PTR _psz2$1$[ebp], ecx
; File C:\Program Files (x86)\Microsoft Visual Studio\2019\Community\VC\Tools\MSVC\14.29.30133\atlmfc\include\cstringt.h

; 2401 : 		CStringT strResult( str1.GetManager() );

  004e2	8b c8		 mov	 ecx, eax
; File D:\git\src\IBK\IBK_DRFN\ProjSrc\SrcChartEx\ChartAddIn\ChartEnvSetupDlgAddIn\ChartEnvSetupDlgAddIn\Setting_PriceMA.cpp

; 476  : 		else if( nSelect == 5)	strPacketNames = CString( "(") + _MTEXT( C0_HIGH) + "+" + _MTEXT( C0_LOW) + "+" + _MTEXT( C0_CLOSE) + ")/3";

  004e4	c6 45 fc 0d	 mov	 BYTE PTR __$EHRec$[ebp+8], 13 ; 0000000dH
; File C:\Program Files (x86)\Microsoft Visual Studio\2019\Community\VC\Tools\MSVC\14.29.30133\atlmfc\include\cstringt.h

; 2401 : 		CStringT strResult( str1.GetManager() );

  004e8	ff 15 00 00 00
	00		 call	 DWORD PTR __imp_?GetManager@?$CStringT@DV?$StrTraitMFC_DLL@DV?$ChTraitsCRT@D@ATL@@@@@ATL@@QBEPAUIAtlStringMgr@2@XZ
  004ee	50		 push	 eax
  004ef	8d 4d bc	 lea	 ecx, DWORD PTR $T12[ebp]
  004f2	ff 15 00 00 00
	00		 call	 DWORD PTR __imp_??0?$CStringT@DV?$StrTraitMFC_DLL@DV?$ChTraitsCRT@D@ATL@@@@@ATL@@QAE@PAUIAtlStringMgr@1@@Z
; File C:\Program Files (x86)\Microsoft Visual Studio\2019\Community\VC\Tools\MSVC\14.29.30133\atlmfc\include\atlsimpstr.h

; 722  : 		if( psz == NULL )

  004f8	8b 55 9c	 mov	 edx, DWORD PTR _psz2$1$[ebp]
; File C:\Program Files (x86)\Microsoft Visual Studio\2019\Community\VC\Tools\MSVC\14.29.30133\atlmfc\include\cstringt.h

; 2405 : 		return( strResult );

  004fb	83 cb 10	 or	 ebx, 16			; 00000010H
  004fe	89 5d f0	 mov	 DWORD PTR $T22[ebp], ebx
; File C:\Program Files (x86)\Microsoft Visual Studio\2019\Community\VC\Tools\MSVC\14.29.30133\atlmfc\include\atlsimpstr.h

; 722  : 		if( psz == NULL )

  00501	85 d2		 test	 edx, edx
  00503	75 04		 jne	 SHORT $LN142@ApplyAllGr

; 723  : 		{
; 724  : 			return( 0 );

  00505	33 c9		 xor	 ecx, ecx
  00507	eb 12		 jmp	 SHORT $LN141@ApplyAllGr
$LN142@ApplyAllGr:

; 725  : 		}
; 726  : 		return( int( strlen( psz ) ) );

  00509	8b ca		 mov	 ecx, edx
  0050b	8d 41 01	 lea	 eax, DWORD PTR [ecx+1]
  0050e	89 45 9c	 mov	 DWORD PTR tv1501[ebp], eax
$LL254@ApplyAllGr:
  00511	8a 01		 mov	 al, BYTE PTR [ecx]
  00513	41		 inc	 ecx
  00514	84 c0		 test	 al, al
  00516	75 f9		 jne	 SHORT $LL254@ApplyAllGr
  00518	2b 4d 9c	 sub	 ecx, DWORD PTR tv1501[ebp]
$LN141@ApplyAllGr:

; 519  : 		return( GetData()->nDataLength );

  0051b	8b 45 a8	 mov	 eax, DWORD PTR $T8[ebp]
; File C:\Program Files (x86)\Microsoft Visual Studio\2019\Community\VC\Tools\MSVC\14.29.30133\atlmfc\include\cstringt.h

; 2403 : 		CThisSimpleString::Concatenate( strResult, str1, str1.GetLength(), psz2, CThisSimpleString::StringLength( psz2 ) );

  0051e	51		 push	 ecx
  0051f	52		 push	 edx
; File C:\Program Files (x86)\Microsoft Visual Studio\2019\Community\VC\Tools\MSVC\14.29.30133\atlmfc\include\atlsimpstr.h

; 519  : 		return( GetData()->nDataLength );

  00520	8b 00		 mov	 eax, DWORD PTR [eax]
; File C:\Program Files (x86)\Microsoft Visual Studio\2019\Community\VC\Tools\MSVC\14.29.30133\atlmfc\include\cstringt.h

; 2403 : 		CThisSimpleString::Concatenate( strResult, str1, str1.GetLength(), psz2, CThisSimpleString::StringLength( psz2 ) );

  00522	ff 70 f4	 push	 DWORD PTR [eax-12]
  00525	50		 push	 eax
  00526	8d 45 bc	 lea	 eax, DWORD PTR $T12[ebp]
  00529	50		 push	 eax
  0052a	ff 15 00 00 00
	00		 call	 DWORD PTR __imp_?Concatenate@?$CSimpleStringT@D$00@ATL@@KAXAAV12@PBDH1H@Z
  00530	83 c4 14	 add	 esp, 20			; 00000014H

; 2401 : 		CStringT strResult( str1.GetManager() );

  00533	8d 4d bc	 lea	 ecx, DWORD PTR $T12[ebp]
; File D:\git\src\IBK\IBK_DRFN\ProjSrc\SrcChartEx\ChartAddIn\ChartEnvSetupDlgAddIn\ChartEnvSetupDlgAddIn\Setting_PriceMA.cpp

; 476  : 		else if( nSelect == 5)	strPacketNames = CString( "(") + _MTEXT( C0_HIGH) + "+" + _MTEXT( C0_LOW) + "+" + _MTEXT( C0_CLOSE) + ")/3";

  00536	c6 45 fc 0e	 mov	 BYTE PTR __$EHRec$[ebp+8], 14 ; 0000000eH
; File C:\Program Files (x86)\Microsoft Visual Studio\2019\Community\VC\Tools\MSVC\14.29.30133\atlmfc\include\cstringt.h

; 2401 : 		CStringT strResult( str1.GetManager() );

  0053a	ff 15 00 00 00
	00		 call	 DWORD PTR __imp_?GetManager@?$CStringT@DV?$StrTraitMFC_DLL@DV?$ChTraitsCRT@D@ATL@@@@@ATL@@QBEPAUIAtlStringMgr@2@XZ
  00540	50		 push	 eax
  00541	8d 4d c0	 lea	 ecx, DWORD PTR $T13[ebp]
  00544	ff 15 00 00 00
	00		 call	 DWORD PTR __imp_??0?$CStringT@DV?$StrTraitMFC_DLL@DV?$ChTraitsCRT@D@ATL@@@@@ATL@@QAE@PAUIAtlStringMgr@1@@Z
; File C:\Program Files (x86)\Microsoft Visual Studio\2019\Community\VC\Tools\MSVC\14.29.30133\atlmfc\include\atlsimpstr.h

; 519  : 		return( GetData()->nDataLength );

  0054a	8b 45 bc	 mov	 eax, DWORD PTR $T12[ebp]
; File C:\Program Files (x86)\Microsoft Visual Studio\2019\Community\VC\Tools\MSVC\14.29.30133\atlmfc\include\cstringt.h

; 2405 : 		return( strResult );

  0054d	83 cb 20	 or	 ebx, 32			; 00000020H
  00550	6a 01		 push	 1
  00552	68 00 00 00 00	 push	 OFFSET ??_C@_01MIFGBAGJ@?$CL@
  00557	89 5d f0	 mov	 DWORD PTR $T22[ebp], ebx
  0055a	ff 70 f4	 push	 DWORD PTR [eax-12]
  0055d	50		 push	 eax
  0055e	8d 45 c0	 lea	 eax, DWORD PTR $T13[ebp]
  00561	50		 push	 eax
  00562	ff 15 00 00 00
	00		 call	 DWORD PTR __imp_?Concatenate@?$CSimpleStringT@D$00@ATL@@KAXAAV12@PBDH1H@Z
; File D:\git\src\IBK\IBK_DRFN\ProjSrc\SrcChartEx\ChartAddIn\ChartEnvSetupDlgAddIn\ChartEnvSetupDlgAddIn\Setting_PriceMA.cpp

; 476  : 		else if( nSelect == 5)	strPacketNames = CString( "(") + _MTEXT( C0_HIGH) + "+" + _MTEXT( C0_LOW) + "+" + _MTEXT( C0_CLOSE) + ")/3";

  00568	a1 54 00 00 00	 mov	 eax, DWORD PTR ?g_iMetaTable@@3VIMetaTable@@A+84
; File C:\Program Files (x86)\Microsoft Visual Studio\2019\Community\VC\Tools\MSVC\14.29.30133\atlmfc\include\cstringt.h

; 2403 : 		CThisSimpleString::Concatenate( strResult, str1, str1.GetLength(), psz2, CThisSimpleString::StringLength( psz2 ) );

  0056d	83 c4 14	 add	 esp, 20			; 00000014H
; File D:\git\src\IBK\IBK_DRFN\ProjSrc\SrcChartEx\ChartAddIn\ChartEnvSetupDlgAddIn\ChartEnvSetupDlgAddIn\Setting_PriceMA.cpp

; 476  : 		else if( nSelect == 5)	strPacketNames = CString( "(") + _MTEXT( C0_HIGH) + "+" + _MTEXT( C0_LOW) + "+" + _MTEXT( C0_CLOSE) + ")/3";

  00570	8b 40 10	 mov	 eax, DWORD PTR [eax+16]
  00573	89 45 9c	 mov	 DWORD PTR _psz2$1$[ebp], eax
; File C:\Program Files (x86)\Microsoft Visual Studio\2019\Community\VC\Tools\MSVC\14.29.30133\atlmfc\include\cstringt.h

; 2401 : 		CStringT strResult( str1.GetManager() );

  00576	8d 4d c0	 lea	 ecx, DWORD PTR $T13[ebp]
; File D:\git\src\IBK\IBK_DRFN\ProjSrc\SrcChartEx\ChartAddIn\ChartEnvSetupDlgAddIn\ChartEnvSetupDlgAddIn\Setting_PriceMA.cpp

; 476  : 		else if( nSelect == 5)	strPacketNames = CString( "(") + _MTEXT( C0_HIGH) + "+" + _MTEXT( C0_LOW) + "+" + _MTEXT( C0_CLOSE) + ")/3";

  00579	c6 45 fc 0f	 mov	 BYTE PTR __$EHRec$[ebp+8], 15 ; 0000000fH
; File C:\Program Files (x86)\Microsoft Visual Studio\2019\Community\VC\Tools\MSVC\14.29.30133\atlmfc\include\cstringt.h

; 2401 : 		CStringT strResult( str1.GetManager() );

  0057d	ff 15 00 00 00
	00		 call	 DWORD PTR __imp_?GetManager@?$CStringT@DV?$StrTraitMFC_DLL@DV?$ChTraitsCRT@D@ATL@@@@@ATL@@QBEPAUIAtlStringMgr@2@XZ
  00583	50		 push	 eax
  00584	8d 4d c4	 lea	 ecx, DWORD PTR $T14[ebp]
  00587	ff 15 00 00 00
	00		 call	 DWORD PTR __imp_??0?$CStringT@DV?$StrTraitMFC_DLL@DV?$ChTraitsCRT@D@ATL@@@@@ATL@@QAE@PAUIAtlStringMgr@1@@Z
; File C:\Program Files (x86)\Microsoft Visual Studio\2019\Community\VC\Tools\MSVC\14.29.30133\atlmfc\include\atlsimpstr.h

; 722  : 		if( psz == NULL )

  0058d	8b 55 9c	 mov	 edx, DWORD PTR _psz2$1$[ebp]
; File C:\Program Files (x86)\Microsoft Visual Studio\2019\Community\VC\Tools\MSVC\14.29.30133\atlmfc\include\cstringt.h

; 2405 : 		return( strResult );

  00590	83 cb 40	 or	 ebx, 64			; 00000040H
  00593	89 5d f0	 mov	 DWORD PTR $T22[ebp], ebx
; File C:\Program Files (x86)\Microsoft Visual Studio\2019\Community\VC\Tools\MSVC\14.29.30133\atlmfc\include\atlsimpstr.h

; 722  : 		if( psz == NULL )

  00596	85 d2		 test	 edx, edx
  00598	75 04		 jne	 SHORT $LN168@ApplyAllGr

; 723  : 		{
; 724  : 			return( 0 );

  0059a	33 c9		 xor	 ecx, ecx
  0059c	eb 12		 jmp	 SHORT $LN167@ApplyAllGr
$LN168@ApplyAllGr:

; 725  : 		}
; 726  : 		return( int( strlen( psz ) ) );

  0059e	8b ca		 mov	 ecx, edx
  005a0	8d 41 01	 lea	 eax, DWORD PTR [ecx+1]
  005a3	89 45 9c	 mov	 DWORD PTR tv1506[ebp], eax
$LL255@ApplyAllGr:
  005a6	8a 01		 mov	 al, BYTE PTR [ecx]
  005a8	41		 inc	 ecx
  005a9	84 c0		 test	 al, al
  005ab	75 f9		 jne	 SHORT $LL255@ApplyAllGr
  005ad	2b 4d 9c	 sub	 ecx, DWORD PTR tv1506[ebp]
$LN167@ApplyAllGr:

; 519  : 		return( GetData()->nDataLength );

  005b0	8b 45 c0	 mov	 eax, DWORD PTR $T13[ebp]
; File C:\Program Files (x86)\Microsoft Visual Studio\2019\Community\VC\Tools\MSVC\14.29.30133\atlmfc\include\cstringt.h

; 2403 : 		CThisSimpleString::Concatenate( strResult, str1, str1.GetLength(), psz2, CThisSimpleString::StringLength( psz2 ) );

  005b3	51		 push	 ecx
  005b4	52		 push	 edx
  005b5	ff 70 f4	 push	 DWORD PTR [eax-12]
  005b8	50		 push	 eax
  005b9	8d 45 c4	 lea	 eax, DWORD PTR $T14[ebp]
  005bc	50		 push	 eax
  005bd	ff 15 00 00 00
	00		 call	 DWORD PTR __imp_?Concatenate@?$CSimpleStringT@D$00@ATL@@KAXAAV12@PBDH1H@Z
  005c3	83 c4 14	 add	 esp, 20			; 00000014H

; 2401 : 		CStringT strResult( str1.GetManager() );

  005c6	8d 4d c4	 lea	 ecx, DWORD PTR $T14[ebp]
; File D:\git\src\IBK\IBK_DRFN\ProjSrc\SrcChartEx\ChartAddIn\ChartEnvSetupDlgAddIn\ChartEnvSetupDlgAddIn\Setting_PriceMA.cpp

; 476  : 		else if( nSelect == 5)	strPacketNames = CString( "(") + _MTEXT( C0_HIGH) + "+" + _MTEXT( C0_LOW) + "+" + _MTEXT( C0_CLOSE) + ")/3";

  005c9	c6 45 fc 10	 mov	 BYTE PTR __$EHRec$[ebp+8], 16 ; 00000010H
; File C:\Program Files (x86)\Microsoft Visual Studio\2019\Community\VC\Tools\MSVC\14.29.30133\atlmfc\include\cstringt.h

; 2401 : 		CStringT strResult( str1.GetManager() );

  005cd	ff 15 00 00 00
	00		 call	 DWORD PTR __imp_?GetManager@?$CStringT@DV?$StrTraitMFC_DLL@DV?$ChTraitsCRT@D@ATL@@@@@ATL@@QBEPAUIAtlStringMgr@2@XZ
  005d3	50		 push	 eax
  005d4	8d 4d c8	 lea	 ecx, DWORD PTR $T15[ebp]
  005d7	ff 15 00 00 00
	00		 call	 DWORD PTR __imp_??0?$CStringT@DV?$StrTraitMFC_DLL@DV?$ChTraitsCRT@D@ATL@@@@@ATL@@QAE@PAUIAtlStringMgr@1@@Z
; File C:\Program Files (x86)\Microsoft Visual Studio\2019\Community\VC\Tools\MSVC\14.29.30133\atlmfc\include\atlsimpstr.h

; 519  : 		return( GetData()->nDataLength );

  005dd	8b 45 c4	 mov	 eax, DWORD PTR $T14[ebp]
; File C:\Program Files (x86)\Microsoft Visual Studio\2019\Community\VC\Tools\MSVC\14.29.30133\atlmfc\include\cstringt.h

; 2405 : 		return( strResult );

  005e0	81 cb 80 00 00
	00		 or	 ebx, 128		; 00000080H
  005e6	6a 01		 push	 1
  005e8	68 00 00 00 00	 push	 OFFSET ??_C@_01MIFGBAGJ@?$CL@
  005ed	89 5d f0	 mov	 DWORD PTR $T22[ebp], ebx
  005f0	ff 70 f4	 push	 DWORD PTR [eax-12]
  005f3	50		 push	 eax
  005f4	8d 45 c8	 lea	 eax, DWORD PTR $T15[ebp]
  005f7	50		 push	 eax
  005f8	ff 15 00 00 00
	00		 call	 DWORD PTR __imp_?Concatenate@?$CSimpleStringT@D$00@ATL@@KAXAAV12@PBDH1H@Z
; File D:\git\src\IBK\IBK_DRFN\ProjSrc\SrcChartEx\ChartAddIn\ChartEnvSetupDlgAddIn\ChartEnvSetupDlgAddIn\Setting_PriceMA.cpp

; 476  : 		else if( nSelect == 5)	strPacketNames = CString( "(") + _MTEXT( C0_HIGH) + "+" + _MTEXT( C0_LOW) + "+" + _MTEXT( C0_CLOSE) + ")/3";

  005fe	a1 54 00 00 00	 mov	 eax, DWORD PTR ?g_iMetaTable@@3VIMetaTable@@A+84
; File C:\Program Files (x86)\Microsoft Visual Studio\2019\Community\VC\Tools\MSVC\14.29.30133\atlmfc\include\cstringt.h

; 2403 : 		CThisSimpleString::Concatenate( strResult, str1, str1.GetLength(), psz2, CThisSimpleString::StringLength( psz2 ) );

  00603	83 c4 14	 add	 esp, 20			; 00000014H
; File D:\git\src\IBK\IBK_DRFN\ProjSrc\SrcChartEx\ChartAddIn\ChartEnvSetupDlgAddIn\ChartEnvSetupDlgAddIn\Setting_PriceMA.cpp

; 476  : 		else if( nSelect == 5)	strPacketNames = CString( "(") + _MTEXT( C0_HIGH) + "+" + _MTEXT( C0_LOW) + "+" + _MTEXT( C0_CLOSE) + ")/3";

  00606	8b 40 14	 mov	 eax, DWORD PTR [eax+20]
  00609	89 45 9c	 mov	 DWORD PTR _psz2$1$[ebp], eax
; File C:\Program Files (x86)\Microsoft Visual Studio\2019\Community\VC\Tools\MSVC\14.29.30133\atlmfc\include\cstringt.h

; 2401 : 		CStringT strResult( str1.GetManager() );

  0060c	8d 4d c8	 lea	 ecx, DWORD PTR $T15[ebp]
; File D:\git\src\IBK\IBK_DRFN\ProjSrc\SrcChartEx\ChartAddIn\ChartEnvSetupDlgAddIn\ChartEnvSetupDlgAddIn\Setting_PriceMA.cpp

; 476  : 		else if( nSelect == 5)	strPacketNames = CString( "(") + _MTEXT( C0_HIGH) + "+" + _MTEXT( C0_LOW) + "+" + _MTEXT( C0_CLOSE) + ")/3";

  0060f	c6 45 fc 11	 mov	 BYTE PTR __$EHRec$[ebp+8], 17 ; 00000011H
; File C:\Program Files (x86)\Microsoft Visual Studio\2019\Community\VC\Tools\MSVC\14.29.30133\atlmfc\include\cstringt.h

; 2401 : 		CStringT strResult( str1.GetManager() );

  00613	ff 15 00 00 00
	00		 call	 DWORD PTR __imp_?GetManager@?$CStringT@DV?$StrTraitMFC_DLL@DV?$ChTraitsCRT@D@ATL@@@@@ATL@@QBEPAUIAtlStringMgr@2@XZ
  00619	50		 push	 eax
  0061a	8d 4d cc	 lea	 ecx, DWORD PTR $T16[ebp]
  0061d	ff 15 00 00 00
	00		 call	 DWORD PTR __imp_??0?$CStringT@DV?$StrTraitMFC_DLL@DV?$ChTraitsCRT@D@ATL@@@@@ATL@@QAE@PAUIAtlStringMgr@1@@Z
; File C:\Program Files (x86)\Microsoft Visual Studio\2019\Community\VC\Tools\MSVC\14.29.30133\atlmfc\include\atlsimpstr.h

; 722  : 		if( psz == NULL )

  00623	8b 55 9c	 mov	 edx, DWORD PTR _psz2$1$[ebp]
; File C:\Program Files (x86)\Microsoft Visual Studio\2019\Community\VC\Tools\MSVC\14.29.30133\atlmfc\include\cstringt.h

; 2405 : 		return( strResult );

  00626	81 cb 00 01 00
	00		 or	 ebx, 256		; 00000100H
  0062c	89 5d f0	 mov	 DWORD PTR $T22[ebp], ebx
; File C:\Program Files (x86)\Microsoft Visual Studio\2019\Community\VC\Tools\MSVC\14.29.30133\atlmfc\include\atlsimpstr.h

; 722  : 		if( psz == NULL )

  0062f	85 d2		 test	 edx, edx
  00631	75 04		 jne	 SHORT $LN194@ApplyAllGr

; 723  : 		{
; 724  : 			return( 0 );

  00633	33 c9		 xor	 ecx, ecx
  00635	eb 13		 jmp	 SHORT $LN193@ApplyAllGr
$LN194@ApplyAllGr:

; 725  : 		}
; 726  : 		return( int( strlen( psz ) ) );

  00637	8b ca		 mov	 ecx, edx
  00639	8d 41 01	 lea	 eax, DWORD PTR [ecx+1]
  0063c	89 45 9c	 mov	 DWORD PTR tv1510[ebp], eax
  0063f	90		 npad	 1
$LL256@ApplyAllGr:
  00640	8a 01		 mov	 al, BYTE PTR [ecx]
  00642	41		 inc	 ecx
  00643	84 c0		 test	 al, al
  00645	75 f9		 jne	 SHORT $LL256@ApplyAllGr
  00647	2b 4d 9c	 sub	 ecx, DWORD PTR tv1510[ebp]
$LN193@ApplyAllGr:

; 519  : 		return( GetData()->nDataLength );

  0064a	8b 45 c8	 mov	 eax, DWORD PTR $T15[ebp]
; File C:\Program Files (x86)\Microsoft Visual Studio\2019\Community\VC\Tools\MSVC\14.29.30133\atlmfc\include\cstringt.h

; 2403 : 		CThisSimpleString::Concatenate( strResult, str1, str1.GetLength(), psz2, CThisSimpleString::StringLength( psz2 ) );

  0064d	51		 push	 ecx
  0064e	52		 push	 edx
  0064f	ff 70 f4	 push	 DWORD PTR [eax-12]
  00652	50		 push	 eax
  00653	8d 45 cc	 lea	 eax, DWORD PTR $T16[ebp]
  00656	50		 push	 eax
  00657	ff 15 00 00 00
	00		 call	 DWORD PTR __imp_?Concatenate@?$CSimpleStringT@D$00@ATL@@KAXAAV12@PBDH1H@Z
  0065d	83 c4 14	 add	 esp, 20			; 00000014H

; 2401 : 		CStringT strResult( str1.GetManager() );

  00660	8d 4d cc	 lea	 ecx, DWORD PTR $T16[ebp]
; File D:\git\src\IBK\IBK_DRFN\ProjSrc\SrcChartEx\ChartAddIn\ChartEnvSetupDlgAddIn\ChartEnvSetupDlgAddIn\Setting_PriceMA.cpp

; 476  : 		else if( nSelect == 5)	strPacketNames = CString( "(") + _MTEXT( C0_HIGH) + "+" + _MTEXT( C0_LOW) + "+" + _MTEXT( C0_CLOSE) + ")/3";

  00663	c6 45 fc 12	 mov	 BYTE PTR __$EHRec$[ebp+8], 18 ; 00000012H
; File C:\Program Files (x86)\Microsoft Visual Studio\2019\Community\VC\Tools\MSVC\14.29.30133\atlmfc\include\cstringt.h

; 2401 : 		CStringT strResult( str1.GetManager() );

  00667	ff 15 00 00 00
	00		 call	 DWORD PTR __imp_?GetManager@?$CStringT@DV?$StrTraitMFC_DLL@DV?$ChTraitsCRT@D@ATL@@@@@ATL@@QBEPAUIAtlStringMgr@2@XZ
  0066d	50		 push	 eax
  0066e	8d 4d ac	 lea	 ecx, DWORD PTR $T9[ebp]
  00671	ff 15 00 00 00
	00		 call	 DWORD PTR __imp_??0?$CStringT@DV?$StrTraitMFC_DLL@DV?$ChTraitsCRT@D@ATL@@@@@ATL@@QAE@PAUIAtlStringMgr@1@@Z
; File C:\Program Files (x86)\Microsoft Visual Studio\2019\Community\VC\Tools\MSVC\14.29.30133\atlmfc\include\atlsimpstr.h

; 519  : 		return( GetData()->nDataLength );

  00677	8b 45 cc	 mov	 eax, DWORD PTR $T16[ebp]
; File C:\Program Files (x86)\Microsoft Visual Studio\2019\Community\VC\Tools\MSVC\14.29.30133\atlmfc\include\cstringt.h

; 2405 : 		return( strResult );

  0067a	81 cb 00 02 00
	00		 or	 ebx, 512		; 00000200H
  00680	6a 03		 push	 3
  00682	68 00 00 00 00	 push	 OFFSET ??_C@_03MEPLKELK@?$CJ?13@
  00687	89 5d f0	 mov	 DWORD PTR $T22[ebp], ebx
  0068a	ff 70 f4	 push	 DWORD PTR [eax-12]
  0068d	50		 push	 eax
  0068e	8d 45 ac	 lea	 eax, DWORD PTR $T9[ebp]
  00691	50		 push	 eax
  00692	ff 15 00 00 00
	00		 call	 DWORD PTR __imp_?Concatenate@?$CSimpleStringT@D$00@ATL@@KAXAAV12@PBDH1H@Z
  00698	83 c4 14	 add	 esp, 20			; 00000014H
; File D:\git\src\IBK\IBK_DRFN\ProjSrc\SrcChartEx\ChartAddIn\ChartEnvSetupDlgAddIn\ChartEnvSetupDlgAddIn\Setting_PriceMA.cpp

; 476  : 		else if( nSelect == 5)	strPacketNames = CString( "(") + _MTEXT( C0_HIGH) + "+" + _MTEXT( C0_LOW) + "+" + _MTEXT( C0_CLOSE) + ")/3";

  0069b	8d 45 ac	 lea	 eax, DWORD PTR $T9[ebp]
  0069e	8d 4d ec	 lea	 ecx, DWORD PTR _strPacketNames$21[ebp]
  006a1	50		 push	 eax
  006a2	ff 15 00 00 00
	00		 call	 DWORD PTR __imp_??4?$CStringT@DV?$StrTraitMFC_DLL@DV?$ChTraitsCRT@D@ATL@@@@@ATL@@QAEAAV01@ABV01@@Z
  006a8	8d 4d ac	 lea	 ecx, DWORD PTR $T9[ebp]
  006ab	81 e3 ff fd ff
	ff		 and	 ebx, -513		; fffffdffH
  006b1	ff 15 00 00 00
	00		 call	 DWORD PTR __imp_??1?$CStringT@DV?$StrTraitMFC_DLL@DV?$ChTraitsCRT@D@ATL@@@@@ATL@@QAE@XZ
  006b7	8d 4d cc	 lea	 ecx, DWORD PTR $T16[ebp]
  006ba	81 e3 ff fe ff
	ff		 and	 ebx, -257		; fffffeffH
  006c0	ff 15 00 00 00
	00		 call	 DWORD PTR __imp_??1?$CStringT@DV?$StrTraitMFC_DLL@DV?$ChTraitsCRT@D@ATL@@@@@ATL@@QAE@XZ
  006c6	8d 4d c8	 lea	 ecx, DWORD PTR $T15[ebp]
  006c9	81 e3 7f ff ff
	ff		 and	 ebx, -129		; ffffff7fH
  006cf	ff 15 00 00 00
	00		 call	 DWORD PTR __imp_??1?$CStringT@DV?$StrTraitMFC_DLL@DV?$ChTraitsCRT@D@ATL@@@@@ATL@@QAE@XZ
  006d5	8d 4d c4	 lea	 ecx, DWORD PTR $T14[ebp]
  006d8	83 e3 bf	 and	 ebx, -65		; ffffffbfH
  006db	ff 15 00 00 00
	00		 call	 DWORD PTR __imp_??1?$CStringT@DV?$StrTraitMFC_DLL@DV?$ChTraitsCRT@D@ATL@@@@@ATL@@QAE@XZ
  006e1	8d 4d c0	 lea	 ecx, DWORD PTR $T13[ebp]
  006e4	83 e3 df	 and	 ebx, -33		; ffffffdfH
  006e7	ff 15 00 00 00
	00		 call	 DWORD PTR __imp_??1?$CStringT@DV?$StrTraitMFC_DLL@DV?$ChTraitsCRT@D@ATL@@@@@ATL@@QAE@XZ
  006ed	8d 4d bc	 lea	 ecx, DWORD PTR $T12[ebp]
  006f0	83 e3 ef	 and	 ebx, -17		; ffffffefH
  006f3	ff 15 00 00 00
	00		 call	 DWORD PTR __imp_??1?$CStringT@DV?$StrTraitMFC_DLL@DV?$ChTraitsCRT@D@ATL@@@@@ATL@@QAE@XZ
  006f9	8d 4d 94	 lea	 ecx, DWORD PTR $T3[ebp]
  006fc	c6 45 fc 06	 mov	 BYTE PTR __$EHRec$[ebp+8], 6
  00700	ff 15 00 00 00
	00		 call	 DWORD PTR __imp_??1?$CStringT@DV?$StrTraitMFC_DLL@DV?$ChTraitsCRT@D@ATL@@@@@ATL@@QAE@XZ
  00706	eb 31		 jmp	 SHORT $LN24@ApplyAllGr
$LN23@ApplyAllGr:

; 477  : 		else
; 478  : 		{
; 479  : 			if( pComboBox) pComboBox->GetLBText( nSelect, strPacketNames);

  00708	85 c0		 test	 eax, eax
  0070a	74 0c		 je	 SHORT $LN25@ApplyAllGr
  0070c	8d 55 ec	 lea	 edx, DWORD PTR _strPacketNames$21[ebp]
  0070f	52		 push	 edx
  00710	51		 push	 ecx
  00711	8b c8		 mov	 ecx, eax
  00713	e8 00 00 00 00	 call	 ?GetLBText@CComboBox@@QBEXHAAV?$CStringT@DV?$StrTraitMFC_DLL@DV?$ChTraitsCRT@D@ATL@@@@@ATL@@@Z ; CComboBox::GetLBText
$LN25@ApplyAllGr:

; 480  : 			strPacketNames = _LTOM0(strPacketNames);

  00718	6a 00		 push	 0
  0071a	ff 75 ec	 push	 DWORD PTR _strPacketNames$21[ebp]
  0071d	b9 00 00 00 00	 mov	 ecx, OFFSET ?g_iMetaTable@@3VIMetaTable@@A ; g_iMetaTable
  00722	6a 00		 push	 0
  00724	ff b7 d8 00 00
	00		 push	 DWORD PTR [edi+216]
  0072a	e8 00 00 00 00	 call	 ?GetMetaText@IMetaTable@@QAEPBDPAUHWND__@@W4E_CODEPAGE@1@PBDH@Z ; IMetaTable::GetMetaText
  0072f	50		 push	 eax
  00730	8d 4d ec	 lea	 ecx, DWORD PTR _strPacketNames$21[ebp]
  00733	ff 15 00 00 00
	00		 call	 DWORD PTR __imp_??4?$CStringT@DV?$StrTraitMFC_DLL@DV?$ChTraitsCRT@D@ATL@@@@@ATL@@QAEAAV01@PBD@Z
$LN24@ApplyAllGr:
; File C:\Program Files (x86)\Microsoft Visual Studio\2019\Community\VC\Tools\MSVC\14.29.30133\atlmfc\include\atlsimpstr.h

; 519  : 		return( GetData()->nDataLength );

  00739	8b 45 ec	 mov	 eax, DWORD PTR _strPacketNames$21[ebp]

; 533  : 		return( GetLength() == 0 );

  0073c	83 78 f4 00	 cmp	 DWORD PTR [eax-12], 0
; File D:\git\src\IBK\IBK_DRFN\ProjSrc\SrcChartEx\ChartAddIn\ChartEnvSetupDlgAddIn\ChartEnvSetupDlgAddIn\Setting_PriceMA.cpp

; 482  : 		if( !strPacketNames.IsEmpty()) strPacketNames += ",";

  00740	74 11		 je	 SHORT $LN26@ApplyAllGr
  00742	68 00 00 00 00	 push	 OFFSET ??_C@_01IHBHIGKO@?0@
  00747	8d 4d ec	 lea	 ecx, DWORD PTR _strPacketNames$21[ebp]
  0074a	ff 15 00 00 00
	00		 call	 DWORD PTR __imp_??Y?$CStringT@DV?$StrTraitMFC_DLL@DV?$ChTraitsCRT@D@ATL@@@@@ATL@@QAEAAV01@PBD@Z
  00750	8b 45 ec	 mov	 eax, DWORD PTR _strPacketNames$21[ebp]
$LN26@ApplyAllGr:

; 483  : 		m_pIGraphInfo->SetSubGraphPacketName( i, strPacketNames);

  00753	8b 8f c4 00 00
	00		 mov	 ecx, DWORD PTR [edi+196]
  00759	50		 push	 eax
  0075a	56		 push	 esi
  0075b	8b 11		 mov	 edx, DWORD PTR [ecx]
  0075d	ff 52 44	 call	 DWORD PTR [edx+68]

; 743  : 	if( !m_pDlgMACondition) return NULL;

  00760	8b 8f 48 04 00
	00		 mov	 ecx, DWORD PTR [edi+1096]
  00766	85 c9		 test	 ecx, ecx
  00768	75 04		 jne	 SHORT $LN226@ApplyAllGr
  0076a	33 c0		 xor	 eax, eax
  0076c	eb 06		 jmp	 SHORT $LN225@ApplyAllGr
$LN226@ApplyAllGr:

; 744  : 	return m_pDlgMACondition->GetColorButton( nSubGraphIndex );

  0076e	56		 push	 esi
  0076f	e8 00 00 00 00	 call	 ?GetColorButton@CSetting_PriceMA_Condition@@QAEPAVCColorButton@@H@Z ; CSetting_PriceMA_Condition::GetColorButton
$LN225@ApplyAllGr:

; 484  : 
; 485  : 		CColorButton * pColorButton = GetColorButton(i);
; 486  : 		COLORREF crColor = pColorButton->GetColor();

  00774	8b c8		 mov	 ecx, eax
  00776	e8 00 00 00 00	 call	 ?GetColor@CColorButton@@QAEKXZ ; CColorButton::GetColor

; 487  : 		m_pIGraphInfo->SetSubGraphColor( i, 1, crColor);

  0077b	8b 8f c4 00 00
	00		 mov	 ecx, DWORD PTR [edi+196]
  00781	8b f0		 mov	 esi, eax
  00783	56		 push	 esi
  00784	6a 01		 push	 1
  00786	ff 75 e8	 push	 DWORD PTR _i$1$[ebp]
  00789	8b 11		 mov	 edx, DWORD PTR [ecx]
  0078b	ff 52 6c	 call	 DWORD PTR [edx+108]

; 488  : 		m_pIGraphInfo->SetSubGraphColor( i, 2, crColor);

  0078e	8b 8f c4 00 00
	00		 mov	 ecx, DWORD PTR [edi+196]
  00794	56		 push	 esi
  00795	8b 75 e8	 mov	 esi, DWORD PTR _i$1$[ebp]
  00798	6a 02		 push	 2
  0079a	8b 01		 mov	 eax, DWORD PTR [ecx]
  0079c	56		 push	 esi
  0079d	ff 50 6c	 call	 DWORD PTR [eax+108]

; 601  : 	if( !m_pDlgMACondition) return NULL;

  007a0	8b 8f 48 04 00
	00		 mov	 ecx, DWORD PTR [edi+1096]
  007a6	85 c9		 test	 ecx, ecx
  007a8	74 30		 je	 SHORT $LN28@ApplyAllGr

; 602  : 	return m_pDlgMACondition->GetThicknessCombo( nSubGraphIndex );

  007aa	56		 push	 esi
  007ab	e8 00 00 00 00	 call	 ?GetThicknessCombo@CSetting_PriceMA_Condition@@QAEPAVCBitmapItemComboBox@@H@Z ; CSetting_PriceMA_Condition::GetThicknessCombo

; 489  : 
; 490  : 		//  .
; 491  : 		pThicknessCombo = GetThicknessCombo( i);
; 492  : 		if( pThicknessCombo) OnApply_Thickness( i, *pThicknessCombo);

  007b0	85 c0		 test	 eax, eax
  007b2	74 09		 je	 SHORT $LN27@ApplyAllGr
  007b4	50		 push	 eax
  007b5	56		 push	 esi
  007b6	8b cf		 mov	 ecx, edi
  007b8	e8 00 00 00 00	 call	 ?OnApply_Thickness@CBaseDialog@@IAEXHAAVCBitmapItemComboBox@@@Z ; CBaseDialog::OnApply_Thickness
$LN27@ApplyAllGr:

; 594  : 	if( !m_pDlgMACondition) return NULL;

  007bd	8b 8f 48 04 00
	00		 mov	 ecx, DWORD PTR [edi+1096]
  007c3	85 c9		 test	 ecx, ecx
  007c5	74 13		 je	 SHORT $LN28@ApplyAllGr

; 595  : 	return m_pDlgMACondition->GetDrawStyleCombo(nSubGraphIndex);

  007c7	56		 push	 esi
  007c8	e8 00 00 00 00	 call	 ?GetDrawStyleCombo@CSetting_PriceMA_Condition@@QAEPAVCBitmapItemComboBox@@H@Z ; CSetting_PriceMA_Condition::GetDrawStyleCombo

; 493  : 
; 494  : 		//  .
; 495  : 		pDrawStyleComboBox = GetDrawStyleCombo( i);
; 496  : 		if( pDrawStyleComboBox) OnApply_DrawStyle(i, *pDrawStyleComboBox);

  007cd	85 c0		 test	 eax, eax
  007cf	74 09		 je	 SHORT $LN28@ApplyAllGr
  007d1	50		 push	 eax
  007d2	56		 push	 esi
  007d3	8b cf		 mov	 ecx, edi
  007d5	e8 00 00 00 00	 call	 ?OnApply_DrawStyle@CBaseDialog@@IAEXHAAVCBitmapItemComboBox@@@Z ; CBaseDialog::OnApply_DrawStyle
$LN28@ApplyAllGr:

; 497  : 	}

  007da	8d 4d ec	 lea	 ecx, DWORD PTR _strPacketNames$21[ebp]
  007dd	ff 15 00 00 00
	00		 call	 DWORD PTR __imp_??1?$CStringT@DV?$StrTraitMFC_DLL@DV?$ChTraitsCRT@D@ATL@@@@@ATL@@QAE@XZ
  007e3	8d 4d e0	 lea	 ecx, DWORD PTR _strOrgTitle$20[ebp]
  007e6	ff 15 00 00 00
	00		 call	 DWORD PTR __imp_??1?$CStringT@DV?$StrTraitMFC_DLL@DV?$ChTraitsCRT@D@ATL@@@@@ATL@@QAE@XZ
; File D:\git\src\IBK\IBK_DRFN\ProjSrc\SrcChartEx\ChartAddIn\ChartEnvSetupDlgAddIn\Include_AddIn_135914\I135914\_IString.h

; 45   : 		if( m_pIStrData)

  007ec	8b 4d 90	 mov	 ecx, DWORD PTR _szOrgTitle$2[ebp+4]
  007ef	c6 45 fc 13	 mov	 BYTE PTR __$EHRec$[ebp+8], 19 ; 00000013H
  007f3	85 c9		 test	 ecx, ecx
  007f5	74 14		 je	 SHORT $LN235@ApplyAllGr

; 46   : 		{
; 47   : 			m_pIStrData->Release();

  007f7	8b 01		 mov	 eax, DWORD PTR [ecx]
  007f9	51		 push	 ecx
  007fa	ff 50 08	 call	 DWORD PTR [eax+8]

; 48   : 			m_pIStrData = NULL;

  007fd	c7 45 90 00 00
	00 00		 mov	 DWORD PTR _szOrgTitle$2[ebp+4], 0

; 49   : 			m_szData = NULL;

  00804	c7 45 8c 00 00
	00 00		 mov	 DWORD PTR _szOrgTitle$2[ebp], 0
$LN235@ApplyAllGr:
; File D:\git\src\IBK\IBK_DRFN\ProjSrc\SrcChartEx\ChartAddIn\ChartEnvSetupDlgAddIn\ChartEnvSetupDlgAddIn\Setting_PriceMA.cpp

; 422  : 	for( int i = 0 ; i < m_nSubGraphCount ; i++ )

  0080b	46		 inc	 esi
; File D:\git\src\IBK\IBK_DRFN\ProjSrc\SrcChartEx\ChartAddIn\ChartEnvSetupDlgAddIn\Include_AddIn_135914\I135914\_IString.h

; 51   : 	}

  0080c	c6 45 fc 00	 mov	 BYTE PTR __$EHRec$[ebp+8], 0
; File D:\git\src\IBK\IBK_DRFN\ProjSrc\SrcChartEx\ChartAddIn\ChartEnvSetupDlgAddIn\ChartEnvSetupDlgAddIn\Setting_PriceMA.cpp

; 422  : 	for( int i = 0 ; i < m_nSubGraphCount ; i++ )

  00810	89 75 e8	 mov	 DWORD PTR _i$1$[ebp], esi
  00813	3b b7 4c 04 00
	00		 cmp	 esi, DWORD PTR [edi+1100]
  00819	0f 8c 41 f8 ff
	ff		 jl	 $LL4@ApplyAllGr
$LN3@ApplyAllGr:

; 498  : }

  0081f	8d 4d e4	 lea	 ecx, DWORD PTR _strCondition$[ebp]
  00822	ff 15 00 00 00
	00		 call	 DWORD PTR __imp_??1?$CStringT@DV?$StrTraitMFC_DLL@DV?$ChTraitsCRT@D@ATL@@@@@ATL@@QAE@XZ
$LN1@ApplyAllGr:
  00828	8b 4d f4	 mov	 ecx, DWORD PTR __$EHRec$[ebp]
  0082b	64 89 0d 00 00
	00 00		 mov	 DWORD PTR fs:0, ecx
  00832	59		 pop	 ecx
  00833	5f		 pop	 edi
  00834	5e		 pop	 esi
  00835	5b		 pop	 ebx
  00836	8b e5		 mov	 esp, ebp
  00838	5d		 pop	 ebp
  00839	c3		 ret	 0
_TEXT	ENDS
;	COMDAT text$x
text$x	SEGMENT
__unwindfunclet$?ApplyAllGraphData@CSetting_PriceMA@@IAEXXZ$0:
  00000	8d 4d e4	 lea	 ecx, DWORD PTR _strCondition$[ebp]
  00003	ff 25 00 00 00
	00		 jmp	 DWORD PTR __imp_??1?$CStringT@DV?$StrTraitMFC_DLL@DV?$ChTraitsCRT@D@ATL@@@@@ATL@@QAE@XZ
__unwindfunclet$?ApplyAllGraphData@CSetting_PriceMA@@IAEXXZ$1:
  00009	8d 4d 8c	 lea	 ecx, DWORD PTR _szOrgTitle$2[ebp]
  0000c	e9 00 00 00 00	 jmp	 ??1ILPCSTR135914@@QAE@XZ ; ILPCSTR135914::~ILPCSTR135914
__unwindfunclet$?ApplyAllGraphData@CSetting_PriceMA@@IAEXXZ$2:
  00011	8d 4d e0	 lea	 ecx, DWORD PTR _strOrgTitle$20[ebp]
  00014	ff 25 00 00 00
	00		 jmp	 DWORD PTR __imp_??1?$CStringT@DV?$StrTraitMFC_DLL@DV?$ChTraitsCRT@D@ATL@@@@@ATL@@QAE@XZ
__unwindfunclet$?ApplyAllGraphData@CSetting_PriceMA@@IAEXXZ$3:
  0001a	8d 4d b8	 lea	 ecx, DWORD PTR _strNewCondition$11[ebp]
  0001d	ff 25 00 00 00
	00		 jmp	 DWORD PTR __imp_??1?$CStringT@DV?$StrTraitMFC_DLL@DV?$ChTraitsCRT@D@ATL@@@@@ATL@@QAE@XZ
__unwindfunclet$?ApplyAllGraphData@CSetting_PriceMA@@IAEXXZ$4:
  00023	8d 4d a0	 lea	 ecx, DWORD PTR $T6[ebp]
  00026	ff 25 00 00 00
	00		 jmp	 DWORD PTR __imp_??1?$CStringT@DV?$StrTraitMFC_DLL@DV?$ChTraitsCRT@D@ATL@@@@@ATL@@QAE@XZ
__unwindfunclet$?ApplyAllGraphData@CSetting_PriceMA@@IAEXXZ$5:
  0002c	8d 4d a4	 lea	 ecx, DWORD PTR $T7[ebp]
  0002f	ff 25 00 00 00
	00		 jmp	 DWORD PTR __imp_??1?$CStringT@DV?$StrTraitMFC_DLL@DV?$ChTraitsCRT@D@ATL@@@@@ATL@@QAE@XZ
__unwindfunclet$?ApplyAllGraphData@CSetting_PriceMA@@IAEXXZ$6:
  00035	8d 4d ec	 lea	 ecx, DWORD PTR _strPacketNames$21[ebp]
  00038	ff 25 00 00 00
	00		 jmp	 DWORD PTR __imp_??1?$CStringT@DV?$StrTraitMFC_DLL@DV?$ChTraitsCRT@D@ATL@@@@@ATL@@QAE@XZ
__unwindfunclet$?ApplyAllGraphData@CSetting_PriceMA@@IAEXXZ$7:
  0003e	8d 4d 98	 lea	 ecx, DWORD PTR $T4[ebp]
  00041	ff 25 00 00 00
	00		 jmp	 DWORD PTR __imp_??1?$CStringT@DV?$StrTraitMFC_DLL@DV?$ChTraitsCRT@D@ATL@@@@@ATL@@QAE@XZ
__unwindfunclet$?ApplyAllGraphData@CSetting_PriceMA@@IAEXXZ$19:
  00047	8b 45 f0	 mov	 eax, DWORD PTR $T22[ebp]
  0004a	83 e0 01	 and	 eax, 1
  0004d	0f 84 0d 00 00
	00		 je	 $LN88@ApplyAllGr
  00053	83 65 f0 fe	 and	 DWORD PTR $T22[ebp], -2	; fffffffeH
  00057	8d 4d d0	 lea	 ecx, DWORD PTR $T17[ebp]
  0005a	ff 25 00 00 00
	00		 jmp	 DWORD PTR __imp_??1?$CStringT@DV?$StrTraitMFC_DLL@DV?$ChTraitsCRT@D@ATL@@@@@ATL@@QAE@XZ
$LN88@ApplyAllGr:
  00060	c3		 ret	 0
__unwindfunclet$?ApplyAllGraphData@CSetting_PriceMA@@IAEXXZ$20:
  00061	8b 45 f0	 mov	 eax, DWORD PTR $T22[ebp]
  00064	83 e0 02	 and	 eax, 2
  00067	0f 84 0d 00 00
	00		 je	 $LN101@ApplyAllGr
  0006d	83 65 f0 fd	 and	 DWORD PTR $T22[ebp], -3	; fffffffdH
  00071	8d 4d d4	 lea	 ecx, DWORD PTR $T18[ebp]
  00074	ff 25 00 00 00
	00		 jmp	 DWORD PTR __imp_??1?$CStringT@DV?$StrTraitMFC_DLL@DV?$ChTraitsCRT@D@ATL@@@@@ATL@@QAE@XZ
$LN101@ApplyAllGr:
  0007a	c3		 ret	 0
__unwindfunclet$?ApplyAllGraphData@CSetting_PriceMA@@IAEXXZ$21:
  0007b	8b 45 f0	 mov	 eax, DWORD PTR $T22[ebp]
  0007e	83 e0 04	 and	 eax, 4
  00081	0f 84 0d 00 00
	00		 je	 $LN114@ApplyAllGr
  00087	83 65 f0 fb	 and	 DWORD PTR $T22[ebp], -5	; fffffffbH
  0008b	8d 4d d8	 lea	 ecx, DWORD PTR $T19[ebp]
  0008e	ff 25 00 00 00
	00		 jmp	 DWORD PTR __imp_??1?$CStringT@DV?$StrTraitMFC_DLL@DV?$ChTraitsCRT@D@ATL@@@@@ATL@@QAE@XZ
$LN114@ApplyAllGr:
  00094	c3		 ret	 0
__unwindfunclet$?ApplyAllGraphData@CSetting_PriceMA@@IAEXXZ$22:
  00095	8b 45 f0	 mov	 eax, DWORD PTR $T22[ebp]
  00098	83 e0 08	 and	 eax, 8
  0009b	0f 84 0d 00 00
	00		 je	 $LN127@ApplyAllGr
  000a1	83 65 f0 f7	 and	 DWORD PTR $T22[ebp], -9	; fffffff7H
  000a5	8d 4d b0	 lea	 ecx, DWORD PTR $T10[ebp]
  000a8	ff 25 00 00 00
	00		 jmp	 DWORD PTR __imp_??1?$CStringT@DV?$StrTraitMFC_DLL@DV?$ChTraitsCRT@D@ATL@@@@@ATL@@QAE@XZ
$LN127@ApplyAllGr:
  000ae	c3		 ret	 0
__unwindfunclet$?ApplyAllGraphData@CSetting_PriceMA@@IAEXXZ$12:
  000af	8d 4d 94	 lea	 ecx, DWORD PTR $T3[ebp]
  000b2	ff 25 00 00 00
	00		 jmp	 DWORD PTR __imp_??1?$CStringT@DV?$StrTraitMFC_DLL@DV?$ChTraitsCRT@D@ATL@@@@@ATL@@QAE@XZ
__unwindfunclet$?ApplyAllGraphData@CSetting_PriceMA@@IAEXXZ$23:
  000b8	8b 45 f0	 mov	 eax, DWORD PTR $T22[ebp]
  000bb	83 e0 10	 and	 eax, 16			; 00000010H
  000be	0f 84 0d 00 00
	00		 je	 $LN140@ApplyAllGr
  000c4	83 65 f0 ef	 and	 DWORD PTR $T22[ebp], -17 ; ffffffefH
  000c8	8d 4d bc	 lea	 ecx, DWORD PTR $T12[ebp]
  000cb	ff 25 00 00 00
	00		 jmp	 DWORD PTR __imp_??1?$CStringT@DV?$StrTraitMFC_DLL@DV?$ChTraitsCRT@D@ATL@@@@@ATL@@QAE@XZ
$LN140@ApplyAllGr:
  000d1	c3		 ret	 0
__unwindfunclet$?ApplyAllGraphData@CSetting_PriceMA@@IAEXXZ$24:
  000d2	8b 45 f0	 mov	 eax, DWORD PTR $T22[ebp]
  000d5	83 e0 20	 and	 eax, 32			; 00000020H
  000d8	0f 84 0d 00 00
	00		 je	 $LN153@ApplyAllGr
  000de	83 65 f0 df	 and	 DWORD PTR $T22[ebp], -33 ; ffffffdfH
  000e2	8d 4d c0	 lea	 ecx, DWORD PTR $T13[ebp]
  000e5	ff 25 00 00 00
	00		 jmp	 DWORD PTR __imp_??1?$CStringT@DV?$StrTraitMFC_DLL@DV?$ChTraitsCRT@D@ATL@@@@@ATL@@QAE@XZ
$LN153@ApplyAllGr:
  000eb	c3		 ret	 0
__unwindfunclet$?ApplyAllGraphData@CSetting_PriceMA@@IAEXXZ$25:
  000ec	8b 45 f0	 mov	 eax, DWORD PTR $T22[ebp]
  000ef	83 e0 40	 and	 eax, 64			; 00000040H
  000f2	0f 84 0d 00 00
	00		 je	 $LN166@ApplyAllGr
  000f8	83 65 f0 bf	 and	 DWORD PTR $T22[ebp], -65 ; ffffffbfH
  000fc	8d 4d c4	 lea	 ecx, DWORD PTR $T14[ebp]
  000ff	ff 25 00 00 00
	00		 jmp	 DWORD PTR __imp_??1?$CStringT@DV?$StrTraitMFC_DLL@DV?$ChTraitsCRT@D@ATL@@@@@ATL@@QAE@XZ
$LN166@ApplyAllGr:
  00105	c3		 ret	 0
__unwindfunclet$?ApplyAllGraphData@CSetting_PriceMA@@IAEXXZ$26:
  00106	8b 45 f0	 mov	 eax, DWORD PTR $T22[ebp]
  00109	25 80 00 00 00	 and	 eax, 128		; 00000080H
  0010e	0f 84 10 00 00
	00		 je	 $LN179@ApplyAllGr
  00114	81 65 f0 7f ff
	ff ff		 and	 DWORD PTR $T22[ebp], -129 ; ffffff7fH
  0011b	8d 4d c8	 lea	 ecx, DWORD PTR $T15[ebp]
  0011e	ff 25 00 00 00
	00		 jmp	 DWORD PTR __imp_??1?$CStringT@DV?$StrTraitMFC_DLL@DV?$ChTraitsCRT@D@ATL@@@@@ATL@@QAE@XZ
$LN179@ApplyAllGr:
  00124	c3		 ret	 0
__unwindfunclet$?ApplyAllGraphData@CSetting_PriceMA@@IAEXXZ$27:
  00125	8b 45 f0	 mov	 eax, DWORD PTR $T22[ebp]
  00128	25 00 01 00 00	 and	 eax, 256		; 00000100H
  0012d	0f 84 10 00 00
	00		 je	 $LN192@ApplyAllGr
  00133	81 65 f0 ff fe
	ff ff		 and	 DWORD PTR $T22[ebp], -257 ; fffffeffH
  0013a	8d 4d cc	 lea	 ecx, DWORD PTR $T16[ebp]
  0013d	ff 25 00 00 00
	00		 jmp	 DWORD PTR __imp_??1?$CStringT@DV?$StrTraitMFC_DLL@DV?$ChTraitsCRT@D@ATL@@@@@ATL@@QAE@XZ
$LN192@ApplyAllGr:
  00143	c3		 ret	 0
__unwindfunclet$?ApplyAllGraphData@CSetting_PriceMA@@IAEXXZ$28:
  00144	8b 45 f0	 mov	 eax, DWORD PTR $T22[ebp]
  00147	25 00 02 00 00	 and	 eax, 512		; 00000200H
  0014c	0f 84 10 00 00
	00		 je	 $LN205@ApplyAllGr
  00152	81 65 f0 ff fd
	ff ff		 and	 DWORD PTR $T22[ebp], -513 ; fffffdffH
  00159	8d 4d ac	 lea	 ecx, DWORD PTR $T9[ebp]
  0015c	ff 25 00 00 00
	00		 jmp	 DWORD PTR __imp_??1?$CStringT@DV?$StrTraitMFC_DLL@DV?$ChTraitsCRT@D@ATL@@@@@ATL@@QAE@XZ
$LN205@ApplyAllGr:
  00162	c3		 ret	 0
  00163	cc		 int	 3
  00164	cc		 int	 3
  00165	cc		 int	 3
  00166	cc		 int	 3
  00167	cc		 int	 3
__ehhandler$?ApplyAllGraphData@CSetting_PriceMA@@IAEXXZ:
  00168	90		 npad	 1
  00169	90		 npad	 1
  0016a	8b 54 24 08	 mov	 edx, DWORD PTR [esp+8]
  0016e	8d 42 0c	 lea	 eax, DWORD PTR [edx+12]
  00171	8b 4a 80	 mov	 ecx, DWORD PTR [edx-128]
  00174	33 c8		 xor	 ecx, eax
  00176	e8 00 00 00 00	 call	 @__security_check_cookie@4
  0017b	b8 00 00 00 00	 mov	 eax, OFFSET __ehfuncinfo$?ApplyAllGraphData@CSetting_PriceMA@@IAEXXZ
  00180	e9 00 00 00 00	 jmp	 ___CxxFrameHandler3
text$x	ENDS
?ApplyAllGraphData@CSetting_PriceMA@@IAEXXZ ENDP	; CSetting_PriceMA::ApplyAllGraphData
; Function compile flags: /Ogtp
; File D:\git\src\IBK\IBK_DRFN\ProjSrc\SrcChartEx\ChartAddIn\ChartEnvSetupDlgAddIn\ChartEnvSetupDlgAddIn\Setting_PriceMA.cpp
;	COMDAT ?ShowHideSubGraph@CSetting_PriceMA@@IAEXHH@Z
_TEXT	SEGMENT
_nSubGraphIndex$ = 8					; size = 4
_nCmdShow$ = 12						; size = 4
?ShowHideSubGraph@CSetting_PriceMA@@IAEXHH@Z PROC	; CSetting_PriceMA::ShowHideSubGraph, COMDAT
; _this$ = ecx

; 690  : {

  00000	55		 push	 ebp
  00001	8b ec		 mov	 ebp, esp

; 691  : 	if( m_pDlgMACondition) m_pDlgMACondition->ShowHideSubGraph( nSubGraphIndex, nCmdShow );

  00003	8b 89 48 04 00
	00		 mov	 ecx, DWORD PTR [ecx+1096]
  00009	85 c9		 test	 ecx, ecx
  0000b	74 06		 je	 SHORT $LN2@ShowHideSu

; 692  : }

  0000d	5d		 pop	 ebp

; 691  : 	if( m_pDlgMACondition) m_pDlgMACondition->ShowHideSubGraph( nSubGraphIndex, nCmdShow );

  0000e	e9 00 00 00 00	 jmp	 ?ShowHideSubGraph@CSetting_PriceMA_Condition@@QAEXHH@Z ; CSetting_PriceMA_Condition::ShowHideSubGraph
$LN2@ShowHideSu:

; 692  : }

  00013	5d		 pop	 ebp
  00014	c2 08 00	 ret	 8
?ShowHideSubGraph@CSetting_PriceMA@@IAEXHH@Z ENDP	; CSetting_PriceMA::ShowHideSubGraph
_TEXT	ENDS
; Function compile flags: /Ogtp
; File D:\git\src\IBK\IBK_DRFN\ProjSrc\SrcChartEx\ChartAddIn\ChartEnvSetupDlgAddIn\ChartEnvSetupDlgAddIn\Setting_PriceMA.cpp
;	COMDAT ?SetShowArrow@CSetting_PriceMA@@IAEXXZ
_TEXT	SEGMENT
_dCondition$ = -8					; size = 8
?SetShowArrow@CSetting_PriceMA@@IAEXXZ PROC		; CSetting_PriceMA::SetShowArrow, COMDAT
; _this$ = ecx

; 551  : {

  00000	55		 push	 ebp
  00001	8b ec		 mov	 ebp, esp
  00003	83 ec 08	 sub	 esp, 8
  00006	57		 push	 edi
  00007	8b f9		 mov	 edi, ecx

; 552  : 	if(m_pIGraphInfo == NULL)

  00009	8b 8f c4 00 00
	00		 mov	 ecx, DWORD PTR [edi+196]
  0000f	85 c9		 test	 ecx, ecx
  00011	74 3a		 je	 SHORT $LN1@SetShowArr

; 553  : 		return;
; 554  : 
; 555  : 	IDoubleList *pIDrawCnd = m_pIGraphInfo->GetDrawConditionList();

  00013	8b 01		 mov	 eax, DWORD PTR [ecx]
  00015	56		 push	 esi
  00016	ff 50 14	 call	 DWORD PTR [eax+20]
  00019	8b f0		 mov	 esi, eax

; 556  : 	if( !pIDrawCnd) return;

  0001b	85 f6		 test	 esi, esi
  0001d	74 2d		 je	 SHORT $LN6@SetShowArr

; 557  : 
; 558  : 	double dCondition = -1;

  0001f	f2 0f 10 05 00
	00 00 00	 movsd	 xmm0, QWORD PTR __real@bff0000000000000

; 559  : 	if( pIDrawCnd->GetHead( dCondition)) m_bShowArrow = ( int)dCondition;

  00027	8d 45 f8	 lea	 eax, DWORD PTR _dCondition$[ebp]
  0002a	f2 0f 11 45 f8	 movsd	 QWORD PTR _dCondition$[ebp], xmm0
  0002f	8b ce		 mov	 ecx, esi
  00031	8b 16		 mov	 edx, DWORD PTR [esi]
  00033	50		 push	 eax
  00034	ff 52 18	 call	 DWORD PTR [edx+24]
  00037	85 c0		 test	 eax, eax
  00039	74 0b		 je	 SHORT $LN4@SetShowArr
  0003b	f2 0f 2c 45 f8	 cvttsd2si eax, QWORD PTR _dCondition$[ebp]
  00040	89 87 88 02 00
	00		 mov	 DWORD PTR [edi+648], eax
$LN4@SetShowArr:

; 560  : 	pIDrawCnd->Release();

  00046	8b 06		 mov	 eax, DWORD PTR [esi]
  00048	56		 push	 esi
  00049	ff 50 08	 call	 DWORD PTR [eax+8]
$LN6@SetShowArr:
  0004c	5e		 pop	 esi
$LN1@SetShowArr:
  0004d	5f		 pop	 edi

; 561  : }

  0004e	8b e5		 mov	 esp, ebp
  00050	5d		 pop	 ebp
  00051	c3		 ret	 0
?SetShowArrow@CSetting_PriceMA@@IAEXXZ ENDP		; CSetting_PriceMA::SetShowArrow
_TEXT	ENDS
; Function compile flags: /Ogtp
; File D:\git\src\IBK\IBK_DRFN\ProjSrc\SrcChartEx\ChartAddIn\ChartEnvSetupDlgAddIn\ChartEnvSetupDlgAddIn\Setting_PriceMA.cpp
;	COMDAT ?SetLineThickness@CSetting_PriceMA@@IAEXH@Z
_TEXT	SEGMENT
_nSubGraphIndex$ = 8					; size = 4
?SetLineThickness@CSetting_PriceMA@@IAEXH@Z PROC	; CSetting_PriceMA::SetLineThickness, COMDAT
; _this$ = ecx

; 586  : {

  00000	55		 push	 ebp
  00001	8b ec		 mov	 ebp, esp
  00003	57		 push	 edi
  00004	8b f9		 mov	 edi, ecx

; 587  : 	if(m_pDlgMACondition != NULL)

  00006	83 bf 48 04 00
	00 00		 cmp	 DWORD PTR [edi+1096], 0
  0000d	74 23		 je	 SHORT $LN2@SetLineThi

; 588  : 		m_pDlgMACondition->SetLineThickness(nSubGraphIndex, m_pIGraphInfo->GetSubGraphPenThickness(nSubGraphIndex, 1) - 1);

  0000f	8b 8f c4 00 00
	00		 mov	 ecx, DWORD PTR [edi+196]
  00015	6a 01		 push	 1
  00017	ff 75 08	 push	 DWORD PTR _nSubGraphIndex$[ebp]
  0001a	8b 01		 mov	 eax, DWORD PTR [ecx]
  0001c	ff 90 80 00 00
	00		 call	 DWORD PTR [eax+128]
  00022	8b 8f 48 04 00
	00		 mov	 ecx, DWORD PTR [edi+1096]
  00028	48		 dec	 eax
  00029	50		 push	 eax
  0002a	ff 75 08	 push	 DWORD PTR _nSubGraphIndex$[ebp]
  0002d	e8 00 00 00 00	 call	 ?SetLineThickness@CSetting_PriceMA_Condition@@QAEXHH@Z ; CSetting_PriceMA_Condition::SetLineThickness
$LN2@SetLineThi:
  00032	5f		 pop	 edi

; 589  : }

  00033	5d		 pop	 ebp
  00034	c2 04 00	 ret	 4
?SetLineThickness@CSetting_PriceMA@@IAEXH@Z ENDP	; CSetting_PriceMA::SetLineThickness
_TEXT	ENDS
; Function compile flags: /Ogtp
; File D:\git\src\IBK\IBK_DRFN\ProjSrc\SrcChartEx\ChartAddIn\ChartEnvSetupDlgAddIn\ChartEnvSetupDlgAddIn\Setting_PriceMA.cpp
;	COMDAT ?SetDrawStyle@CSetting_PriceMA@@IAEXH@Z
_TEXT	SEGMENT
_nSubGraphIndex$ = 8					; size = 4
?SetDrawStyle@CSetting_PriceMA@@IAEXH@Z PROC		; CSetting_PriceMA::SetDrawStyle, COMDAT
; _this$ = ecx

; 572  : {

  00000	55		 push	 ebp
  00001	8b ec		 mov	 ebp, esp
  00003	57		 push	 edi
  00004	8b f9		 mov	 edi, ecx

; 573  : 	if(m_pDlgMACondition != NULL)

  00006	83 bf 48 04 00
	00 00		 cmp	 DWORD PTR [edi+1096], 0
  0000d	74 1d		 je	 SHORT $LN2@SetDrawSty

; 574  : 		m_pDlgMACondition->SetDrawStyle(nSubGraphIndex, m_pIGraphInfo->GetSubGraphDrawStyle(nSubGraphIndex));

  0000f	8b 8f c4 00 00
	00		 mov	 ecx, DWORD PTR [edi+196]
  00015	ff 75 08	 push	 DWORD PTR _nSubGraphIndex$[ebp]
  00018	8b 01		 mov	 eax, DWORD PTR [ecx]
  0001a	ff 50 5c	 call	 DWORD PTR [eax+92]
  0001d	8b 8f 48 04 00
	00		 mov	 ecx, DWORD PTR [edi+1096]
  00023	50		 push	 eax
  00024	ff 75 08	 push	 DWORD PTR _nSubGraphIndex$[ebp]
  00027	e8 00 00 00 00	 call	 ?SetDrawStyle@CSetting_PriceMA_Condition@@QAEXHH@Z ; CSetting_PriceMA_Condition::SetDrawStyle
$LN2@SetDrawSty:
  0002c	5f		 pop	 edi

; 575  : }

  0002d	5d		 pop	 ebp
  0002e	c2 04 00	 ret	 4
?SetDrawStyle@CSetting_PriceMA@@IAEXH@Z ENDP		; CSetting_PriceMA::SetDrawStyle
_TEXT	ENDS
; Function compile flags: /Ogtp
; File D:\git\src\IBK\IBK_DRFN\ProjSrc\SrcChartEx\ChartAddIn\ChartEnvSetupDlgAddIn\ChartEnvSetupDlgAddIn\Setting_PriceMA.cpp
;	COMDAT ?SetLineColor@CSetting_PriceMA@@IAEXH@Z
_TEXT	SEGMENT
_nSubGraphIndex$ = 8					; size = 4
?SetLineColor@CSetting_PriceMA@@IAEXH@Z PROC		; CSetting_PriceMA::SetLineColor, COMDAT
; _this$ = ecx

; 607  : {

  00000	55		 push	 ebp
  00001	8b ec		 mov	 ebp, esp
  00003	56		 push	 esi
  00004	57		 push	 edi

; 608  : 	if( nSubGraphIndex < 0 || !m_pDlgMACondition) return;

  00005	8b 7d 08	 mov	 edi, DWORD PTR _nSubGraphIndex$[ebp]
  00008	8b f1		 mov	 esi, ecx
  0000a	85 ff		 test	 edi, edi
  0000c	78 24		 js	 SHORT $LN3@SetLineCol
  0000e	83 be 48 04 00
	00 00		 cmp	 DWORD PTR [esi+1096], 0
  00015	74 1b		 je	 SHORT $LN3@SetLineCol

; 609  : 
; 610  : 	m_pDlgMACondition->SetLineColor( nSubGraphIndex, m_pIGraphInfo->GetSubGraphColor( nSubGraphIndex, 1) );

  00017	8b 8e c4 00 00
	00		 mov	 ecx, DWORD PTR [esi+196]
  0001d	6a 01		 push	 1
  0001f	57		 push	 edi
  00020	8b 01		 mov	 eax, DWORD PTR [ecx]
  00022	ff 50 64	 call	 DWORD PTR [eax+100]
  00025	8b 8e 48 04 00
	00		 mov	 ecx, DWORD PTR [esi+1096]
  0002b	50		 push	 eax
  0002c	57		 push	 edi
  0002d	e8 00 00 00 00	 call	 ?SetLineColor@CSetting_PriceMA_Condition@@QAEXHH@Z ; CSetting_PriceMA_Condition::SetLineColor
$LN3@SetLineCol:

; 611  : }

  00032	5f		 pop	 edi
  00033	5e		 pop	 esi
  00034	5d		 pop	 ebp
  00035	c2 04 00	 ret	 4
?SetLineColor@CSetting_PriceMA@@IAEXH@Z ENDP		; CSetting_PriceMA::SetLineColor
_TEXT	ENDS
; Function compile flags: /Ogtp
; File D:\git\src\IBK\IBK_DRFN\ProjSrc\SrcChartEx\ChartAddIn\ChartEnvSetupDlgAddIn\ChartEnvSetupDlgAddIn\Setting_PriceMA.cpp
; File D:\git\src\IBK\IBK_DRFN\ProjSrc\SrcChartEx\ChartAddIn\ChartEnvSetupDlgAddIn\Include_AddIn_135914\I135914\_IString.h
; File D:\git\src\IBK\IBK_DRFN\ProjSrc\SrcChartEx\ChartAddIn\ChartEnvSetupDlgAddIn\ChartEnvSetupDlgAddIn\Setting_PriceMA.cpp
; File C:\Program Files (x86)\Microsoft Visual Studio\2019\Community\VC\Tools\MSVC\14.29.30133\atlmfc\include\afxwin2.inl
; File D:\git\src\IBK\IBK_DRFN\ProjSrc\SrcChartEx\ChartAddIn\ChartEnvSetupDlgAddIn\ChartEnvSetupDlgAddIn\Setting_PriceMA.cpp
; File C:\Program Files (x86)\Microsoft Visual Studio\2019\Community\VC\Tools\MSVC\14.29.30133\atlmfc\include\afxwin2.inl
; File D:\git\src\IBK\IBK_DRFN\ProjSrc\SrcChartEx\ChartAddIn\ChartEnvSetupDlgAddIn\ChartEnvSetupDlgAddIn\Setting_PriceMA.cpp
; File C:\Program Files (x86)\Microsoft Visual Studio\2019\Community\VC\Tools\MSVC\14.29.30133\atlmfc\include\cstringt.h
; File D:\git\src\IBK\IBK_DRFN\ProjSrc\SrcChartEx\ChartAddIn\ChartEnvSetupDlgAddIn\ChartEnvSetupDlgAddIn\Setting_PriceMA.cpp
; File C:\Program Files (x86)\Microsoft Visual Studio\2019\Community\VC\Tools\MSVC\14.29.30133\atlmfc\include\cstringt.h
; File C:\Program Files (x86)\Microsoft Visual Studio\2019\Community\VC\Tools\MSVC\14.29.30133\atlmfc\include\atlsimpstr.h
; File C:\Program Files (x86)\Microsoft Visual Studio\2019\Community\VC\Tools\MSVC\14.29.30133\atlmfc\include\cstringt.h
; File D:\git\src\IBK\IBK_DRFN\ProjSrc\SrcChartEx\ChartAddIn\ChartEnvSetupDlgAddIn\ChartEnvSetupDlgAddIn\Setting_PriceMA.cpp
; File C:\Program Files (x86)\Microsoft Visual Studio\2019\Community\VC\Tools\MSVC\14.29.30133\atlmfc\include\cstringt.h
; File D:\git\src\IBK\IBK_DRFN\ProjSrc\SrcChartEx\ChartAddIn\ChartEnvSetupDlgAddIn\ChartEnvSetupDlgAddIn\Setting_PriceMA.cpp
; File C:\Program Files (x86)\Microsoft Visual Studio\2019\Community\VC\Tools\MSVC\14.29.30133\atlmfc\include\cstringt.h
; File C:\Program Files (x86)\Microsoft Visual Studio\2019\Community\VC\Tools\MSVC\14.29.30133\atlmfc\include\atlsimpstr.h
; File C:\Program Files (x86)\Microsoft Visual Studio\2019\Community\VC\Tools\MSVC\14.29.30133\atlmfc\include\cstringt.h
; File D:\git\src\IBK\IBK_DRFN\ProjSrc\SrcChartEx\ChartAddIn\ChartEnvSetupDlgAddIn\ChartEnvSetupDlgAddIn\Setting_PriceMA.cpp
; File C:\Program Files (x86)\Microsoft Visual Studio\2019\Community\VC\Tools\MSVC\14.29.30133\atlmfc\include\cstringt.h
; File D:\git\src\IBK\IBK_DRFN\ProjSrc\SrcChartEx\ChartAddIn\ChartEnvSetupDlgAddIn\ChartEnvSetupDlgAddIn\Setting_PriceMA.cpp
; File C:\Program Files (x86)\Microsoft Visual Studio\2019\Community\VC\Tools\MSVC\14.29.30133\atlmfc\include\afxwin2.inl
; File D:\git\src\IBK\IBK_DRFN\ProjSrc\SrcChartEx\ChartAddIn\ChartEnvSetupDlgAddIn\ChartEnvSetupDlgAddIn\Setting_PriceMA.cpp
; File C:\Program Files (x86)\Microsoft Visual Studio\2019\Community\VC\Tools\MSVC\14.29.30133\atlmfc\include\cstringt.h
; File D:\git\src\IBK\IBK_DRFN\ProjSrc\SrcChartEx\ChartAddIn\ChartEnvSetupDlgAddIn\ChartEnvSetupDlgAddIn\Setting_PriceMA.cpp
; File C:\Program Files (x86)\Microsoft Visual Studio\2019\Community\VC\Tools\MSVC\14.29.30133\atlmfc\include\cstringt.h
; File C:\Program Files (x86)\Microsoft Visual Studio\2019\Community\VC\Tools\MSVC\14.29.30133\atlmfc\include\atlsimpstr.h
; File C:\Program Files (x86)\Microsoft Visual Studio\2019\Community\VC\Tools\MSVC\14.29.30133\atlmfc\include\cstringt.h
; File D:\git\src\IBK\IBK_DRFN\ProjSrc\SrcChartEx\ChartAddIn\ChartEnvSetupDlgAddIn\ChartEnvSetupDlgAddIn\Setting_PriceMA.cpp
; File C:\Program Files (x86)\Microsoft Visual Studio\2019\Community\VC\Tools\MSVC\14.29.30133\atlmfc\include\cstringt.h
; File D:\git\src\IBK\IBK_DRFN\ProjSrc\SrcChartEx\ChartAddIn\ChartEnvSetupDlgAddIn\ChartEnvSetupDlgAddIn\Setting_PriceMA.cpp
; File C:\Program Files (x86)\Microsoft Visual Studio\2019\Community\VC\Tools\MSVC\14.29.30133\atlmfc\include\cstringt.h
; File C:\Program Files (x86)\Microsoft Visual Studio\2019\Community\VC\Tools\MSVC\14.29.30133\atlmfc\include\atlsimpstr.h
; File C:\Program Files (x86)\Microsoft Visual Studio\2019\Community\VC\Tools\MSVC\14.29.30133\atlmfc\include\cstringt.h
; File D:\git\src\IBK\IBK_DRFN\ProjSrc\SrcChartEx\ChartAddIn\ChartEnvSetupDlgAddIn\ChartEnvSetupDlgAddIn\Setting_PriceMA.cpp
; File C:\Program Files (x86)\Microsoft Visual Studio\2019\Community\VC\Tools\MSVC\14.29.30133\atlmfc\include\cstringt.h
; File D:\git\src\IBK\IBK_DRFN\ProjSrc\SrcChartEx\ChartAddIn\ChartEnvSetupDlgAddIn\ChartEnvSetupDlgAddIn\Setting_PriceMA.cpp
; File C:\Program Files (x86)\Microsoft Visual Studio\2019\Community\VC\Tools\MSVC\14.29.30133\atlmfc\include\cstringt.h
; File C:\Program Files (x86)\Microsoft Visual Studio\2019\Community\VC\Tools\MSVC\14.29.30133\atlmfc\include\atlsimpstr.h
; File C:\Program Files (x86)\Microsoft Visual Studio\2019\Community\VC\Tools\MSVC\14.29.30133\atlmfc\include\cstringt.h
; File D:\git\src\IBK\IBK_DRFN\ProjSrc\SrcChartEx\ChartAddIn\ChartEnvSetupDlgAddIn\ChartEnvSetupDlgAddIn\Setting_PriceMA.cpp
; File C:\Program Files (x86)\Microsoft Visual Studio\2019\Community\VC\Tools\MSVC\14.29.30133\atlmfc\include\cstringt.h
; File D:\git\src\IBK\IBK_DRFN\ProjSrc\SrcChartEx\ChartAddIn\ChartEnvSetupDlgAddIn\ChartEnvSetupDlgAddIn\Setting_PriceMA.cpp
; File C:\Program Files (x86)\Microsoft Visual Studio\2019\Community\VC\Tools\MSVC\14.29.30133\atlmfc\include\afxwin2.inl
; File D:\git\src\IBK\IBK_DRFN\ProjSrc\SrcChartEx\ChartAddIn\ChartEnvSetupDlgAddIn\ChartEnvSetupDlgAddIn\Setting_PriceMA.cpp
; File C:\Program Files (x86)\Microsoft Visual Studio\2019\Community\VC\Tools\MSVC\14.29.30133\atlmfc\include\afxwin2.inl
; File D:\git\src\IBK\IBK_DRFN\ProjSrc\SrcChartEx\ChartAddIn\ChartEnvSetupDlgAddIn\ChartEnvSetupDlgAddIn\Setting_PriceMA.cpp
; File C:\Program Files (x86)\Microsoft Visual Studio\2019\Community\VC\Tools\MSVC\14.29.30133\atlmfc\include\afxwin2.inl
; File D:\git\src\IBK\IBK_DRFN\ProjSrc\SrcChartEx\ChartAddIn\ChartEnvSetupDlgAddIn\ChartEnvSetupDlgAddIn\Setting_PriceMA.cpp
; File C:\Program Files (x86)\Microsoft Visual Studio\2019\Community\VC\Tools\MSVC\14.29.30133\atlmfc\include\afxwin2.inl
; File D:\git\src\IBK\IBK_DRFN\ProjSrc\SrcChartEx\ChartAddIn\ChartEnvSetupDlgAddIn\ChartEnvSetupDlgAddIn\Setting_PriceMA.cpp
; File C:\Program Files (x86)\Microsoft Visual Studio\2019\Community\VC\Tools\MSVC\14.29.30133\atlmfc\include\afxwin2.inl
; File D:\git\src\IBK\IBK_DRFN\ProjSrc\SrcChartEx\ChartAddIn\ChartEnvSetupDlgAddIn\ChartEnvSetupDlgAddIn\Setting_PriceMA.cpp
; File D:\git\src\IBK\IBK_DRFN\ProjSrc\SrcChartEx\ChartAddIn\ChartEnvSetupDlgAddIn\Include_AddIn_135914\I135914\_IString.h
; File D:\git\src\IBK\IBK_DRFN\ProjSrc\SrcChartEx\ChartAddIn\ChartEnvSetupDlgAddIn\ChartEnvSetupDlgAddIn\Setting_PriceMA.cpp
;	COMDAT ?SetPacketName@CSetting_PriceMA@@IAEXH@Z
_TEXT	SEGMENT
_szPacketName$ = -52					; size = 8
$T2 = -44						; size = 4
$T3 = -44						; size = 4
$T4 = -40						; size = 4
$T5 = -40						; size = 4
$T6 = -36						; size = 4
$T7 = -36						; size = 4
$T8 = -32						; size = 4
$T9 = -32						; size = 4
_data$10 = -28						; size = 4
$T11 = -28						; size = 4
$T12 = -28						; size = 4
$T13 = -28						; size = 4
$T14 = -28						; size = 4
$T15 = -24						; size = 4
$T16 = -24						; size = 4
$T17 = -24						; size = 4
_nPacketCount$1$ = -20					; size = 4
$T18 = -20						; size = 4
$T19 = -20						; size = 4
$T20 = -16						; size = 4
__$EHRec$ = -12						; size = 12
_strPacketNames$ = 8					; size = 4
_nSubGraphIndex$ = 8					; size = 4
?SetPacketName@CSetting_PriceMA@@IAEXH@Z PROC		; CSetting_PriceMA::SetPacketName, COMDAT
; _this$ = ecx

; 621  : {

  00000	55		 push	 ebp
  00001	8b ec		 mov	 ebp, esp
  00003	6a ff		 push	 -1
  00005	68 00 00 00 00	 push	 __ehhandler$?SetPacketName@CSetting_PriceMA@@IAEXH@Z
  0000a	64 a1 00 00 00
	00		 mov	 eax, DWORD PTR fs:0
  00010	50		 push	 eax
  00011	83 ec 28	 sub	 esp, 40			; 00000028H
  00014	53		 push	 ebx
  00015	56		 push	 esi
  00016	57		 push	 edi
  00017	a1 00 00 00 00	 mov	 eax, DWORD PTR ___security_cookie
  0001c	33 c5		 xor	 eax, ebp
  0001e	50		 push	 eax
  0001f	8d 45 f4	 lea	 eax, DWORD PTR __$EHRec$[ebp]
  00022	64 a3 00 00 00
	00		 mov	 DWORD PTR fs:0, eax
  00028	8b f1		 mov	 esi, ecx
  0002a	c7 45 f0 00 00
	00 00		 mov	 DWORD PTR $T20[ebp], 0

; 622  : 	if(m_pIGraphInfo == NULL || !m_pDlgMACondition) return;

  00031	8b 8e c4 00 00
	00		 mov	 ecx, DWORD PTR [esi+196]
  00037	85 c9		 test	 ecx, ecx
  00039	0f 84 5a 04 00
	00		 je	 $LN132@SetPacketN
  0003f	83 be 48 04 00
	00 00		 cmp	 DWORD PTR [esi+1096], 0
  00046	0f 84 4d 04 00
	00		 je	 $LN132@SetPacketN

; 624  : 	ILPCSTR szPacketName = m_pIGraphInfo->GetSubGraphPacketNameString( nSubGraphIndex);

  0004c	8b 01		 mov	 eax, DWORD PTR [ecx]
  0004e	8b 7d 08	 mov	 edi, DWORD PTR _nSubGraphIndex$[ebp]
  00051	57		 push	 edi
  00052	ff 50 40	 call	 DWORD PTR [eax+64]
; File D:\git\src\IBK\IBK_DRFN\ProjSrc\SrcChartEx\ChartAddIn\ChartEnvSetupDlgAddIn\Include_AddIn_135914\I135914\_IString.h

; 39   : 		m_pIStrData = p_pIString;	// Do not AddRef(). Because It must be Return Value.

  00055	89 45 d0	 mov	 DWORD PTR _szPacketName$[ebp+4], eax

; 40   : 		if( m_pIStrData) m_szData = m_pIStrData->GetData();

  00058	85 c0		 test	 eax, eax
  0005a	74 09		 je	 SHORT $LN39@SetPacketN
  0005c	8b 10		 mov	 edx, DWORD PTR [eax]
  0005e	8b c8		 mov	 ecx, eax
  00060	ff 52 10	 call	 DWORD PTR [edx+16]
  00063	eb 02		 jmp	 SHORT $LN141@SetPacketN
$LN39@SetPacketN:

; 41   : 		else m_szData = NULL;

  00065	33 c0		 xor	 eax, eax
$LN141@SetPacketN:
; File D:\git\src\IBK\IBK_DRFN\ProjSrc\SrcChartEx\ChartAddIn\ChartEnvSetupDlgAddIn\ChartEnvSetupDlgAddIn\Setting_PriceMA.cpp

; 624  : 	ILPCSTR szPacketName = m_pIGraphInfo->GetSubGraphPacketNameString( nSubGraphIndex);

  00067	89 45 cc	 mov	 DWORD PTR _szPacketName$[ebp], eax

; 625  : 	CString strPacketNames( szPacketName);

  0006a	50		 push	 eax
  0006b	8d 4d 08	 lea	 ecx, DWORD PTR _strPacketNames$[ebp]
  0006e	c7 45 fc 00 00
	00 00		 mov	 DWORD PTR __$EHRec$[ebp+8], 0
  00075	ff 15 00 00 00
	00		 call	 DWORD PTR __imp_??0?$CStringT@DV?$StrTraitMFC_DLL@DV?$ChTraitsCRT@D@ATL@@@@@ATL@@QAE@PBD@Z

; 626  : 
; 627  : 	int nPacketCount = CDataConversion::GetStringDataCount(strPacketNames, _T(","));

  0007b	68 00 00 00 00	 push	 OFFSET ??_C@_01IHBHIGKO@?0@
  00080	8d 4d e4	 lea	 ecx, DWORD PTR $T14[ebp]
  00083	c6 45 fc 01	 mov	 BYTE PTR __$EHRec$[ebp+8], 1
  00087	ff 15 00 00 00
	00		 call	 DWORD PTR __imp_??0?$CStringT@DV?$StrTraitMFC_DLL@DV?$ChTraitsCRT@D@ATL@@@@@ATL@@QAE@PBD@Z
  0008d	8d 45 e4	 lea	 eax, DWORD PTR $T14[ebp]
  00090	c6 45 fc 02	 mov	 BYTE PTR __$EHRec$[ebp+8], 2
  00094	50		 push	 eax
  00095	8d 45 08	 lea	 eax, DWORD PTR _strPacketNames$[ebp]
  00098	50		 push	 eax
  00099	e8 00 00 00 00	 call	 ?GetStringDataCount@CDataConversion@@SAHABV?$CStringT@DV?$StrTraitMFC_DLL@DV?$ChTraitsCRT@D@ATL@@@@@ATL@@0@Z ; CDataConversion::GetStringDataCount
  0009e	83 c4 08	 add	 esp, 8
  000a1	89 45 ec	 mov	 DWORD PTR _nPacketCount$1$[ebp], eax
  000a4	8d 4d e4	 lea	 ecx, DWORD PTR $T14[ebp]
  000a7	c6 45 fc 01	 mov	 BYTE PTR __$EHRec$[ebp+8], 1
  000ab	ff 15 00 00 00
	00		 call	 DWORD PTR __imp_??1?$CStringT@DV?$StrTraitMFC_DLL@DV?$ChTraitsCRT@D@ATL@@@@@ATL@@QAE@XZ

; 628  : 	strPacketNames = CDataConversion::GetStringData(strPacketNames, _T(","));

  000b1	68 00 00 00 00	 push	 OFFSET ??_C@_01IHBHIGKO@?0@
  000b6	8d 4d e4	 lea	 ecx, DWORD PTR $T13[ebp]
  000b9	ff 15 00 00 00
	00		 call	 DWORD PTR __imp_??0?$CStringT@DV?$StrTraitMFC_DLL@DV?$ChTraitsCRT@D@ATL@@@@@ATL@@QAE@PBD@Z
  000bf	6a 01		 push	 1
  000c1	8d 45 e4	 lea	 eax, DWORD PTR $T13[ebp]
  000c4	c6 45 fc 03	 mov	 BYTE PTR __$EHRec$[ebp+8], 3
  000c8	50		 push	 eax
  000c9	8d 45 08	 lea	 eax, DWORD PTR _strPacketNames$[ebp]
  000cc	50		 push	 eax
  000cd	8d 45 e8	 lea	 eax, DWORD PTR $T17[ebp]
  000d0	50		 push	 eax
  000d1	e8 00 00 00 00	 call	 ?GetStringData@CDataConversion@@SA?AV?$CStringT@DV?$StrTraitMFC_DLL@DV?$ChTraitsCRT@D@ATL@@@@@ATL@@AAV23@ABV23@_N@Z ; CDataConversion::GetStringData
  000d6	83 c4 10	 add	 esp, 16			; 00000010H
  000d9	50		 push	 eax
  000da	8d 4d 08	 lea	 ecx, DWORD PTR _strPacketNames$[ebp]
  000dd	c6 45 fc 04	 mov	 BYTE PTR __$EHRec$[ebp+8], 4
  000e1	ff 15 00 00 00
	00		 call	 DWORD PTR __imp_??4?$CStringT@DV?$StrTraitMFC_DLL@DV?$ChTraitsCRT@D@ATL@@@@@ATL@@QAEAAV01@ABV01@@Z
  000e7	8d 4d e8	 lea	 ecx, DWORD PTR $T17[ebp]
  000ea	ff 15 00 00 00
	00		 call	 DWORD PTR __imp_??1?$CStringT@DV?$StrTraitMFC_DLL@DV?$ChTraitsCRT@D@ATL@@@@@ATL@@QAE@XZ
  000f0	8d 4d e4	 lea	 ecx, DWORD PTR $T13[ebp]
  000f3	c6 45 fc 01	 mov	 BYTE PTR __$EHRec$[ebp+8], 1
  000f7	ff 15 00 00 00
	00		 call	 DWORD PTR __imp_??1?$CStringT@DV?$StrTraitMFC_DLL@DV?$ChTraitsCRT@D@ATL@@@@@ATL@@QAE@XZ

; 629  : 
; 630  : 	CComboBox *pPacketCombo = m_pDlgMACondition->GetPacketCombo(nSubGraphIndex);

  000fd	8b 8e 48 04 00
	00		 mov	 ecx, DWORD PTR [esi+1096]
  00103	57		 push	 edi
  00104	e8 00 00 00 00	 call	 ?GetPacketCombo@CSetting_PriceMA_Condition@@QAEPAVCComboBox@@H@Z ; CSetting_PriceMA_Condition::GetPacketCombo

; 631  : 	int nCount = 0;
; 632  : 	if( pPacketCombo) nCount = pPacketCombo->GetCount();

  00109	8b 1d 00 00 00
	00		 mov	 ebx, DWORD PTR __imp__SendMessageA@16
  0010f	8b f8		 mov	 edi, eax
  00111	33 c0		 xor	 eax, eax
  00113	85 ff		 test	 edi, edi
  00115	74 0c		 je	 SHORT $LN7@SetPacketN
; File C:\Program Files (x86)\Microsoft Visual Studio\2019\Community\VC\Tools\MSVC\14.29.30133\atlmfc\include\afxwin2.inl

; 763  : 	{ ASSERT(::IsWindow(m_hWnd)); return (int)::SendMessage(m_hWnd, CB_GETCOUNT, 0, 0); }

  00117	50		 push	 eax
  00118	50		 push	 eax
  00119	68 46 01 00 00	 push	 326			; 00000146H
  0011e	ff 77 20	 push	 DWORD PTR [edi+32]
  00121	ff d3		 call	 ebx
$LN7@SetPacketN:
; File D:\git\src\IBK\IBK_DRFN\ProjSrc\SrcChartEx\ChartAddIn\ChartEnvSetupDlgAddIn\ChartEnvSetupDlgAddIn\Setting_PriceMA.cpp

; 633  : 	if( nPacketCount != 1)

  00123	83 7d ec 01	 cmp	 DWORD PTR _nPacketCount$1$[ebp], 1
  00127	8b 4f 20	 mov	 ecx, DWORD PTR [edi+32]
  0012a	6a 00		 push	 0
  0012c	74 0f		 je	 SHORT $LN8@SetPacketN

; 634  : 	{
; 635  : 		pPacketCombo->SetCurSel(nCount -1);

  0012e	48		 dec	 eax
; File C:\Program Files (x86)\Microsoft Visual Studio\2019\Community\VC\Tools\MSVC\14.29.30133\atlmfc\include\afxwin2.inl

; 767  : 	{ ASSERT(::IsWindow(m_hWnd)); return (int)::SendMessage(m_hWnd, CB_SETCURSEL, nSelect, 0); }

  0012f	50		 push	 eax
  00130	68 4e 01 00 00	 push	 334			; 0000014eH
  00135	51		 push	 ecx
  00136	ff d3		 call	 ebx
  00138	e9 3f 03 00 00	 jmp	 $LN10@SetPacketN
$LN8@SetPacketN:
  0013d	6a 04		 push	 4
  0013f	68 4e 01 00 00	 push	 334			; 0000014eH
  00144	51		 push	 ecx
  00145	ff d3		 call	 ebx
; File D:\git\src\IBK\IBK_DRFN\ProjSrc\SrcChartEx\ChartAddIn\ChartEnvSetupDlgAddIn\ChartEnvSetupDlgAddIn\Setting_PriceMA.cpp

; 640  : 	if( 0 <= strPacketNames.Find( '('))

  00147	6a 00		 push	 0
  00149	6a 28		 push	 40			; 00000028H
  0014b	8d 4d 08	 lea	 ecx, DWORD PTR _strPacketNames$[ebp]
  0014e	ff 15 00 00 00
	00		 call	 DWORD PTR __imp_?Find@?$CStringT@DV?$StrTraitMFC_DLL@DV?$ChTraitsCRT@D@ATL@@@@@ATL@@QBEHDH@Z
  00154	85 c0		 test	 eax, eax
  00156	0f 88 68 02 00
	00		 js	 $LN9@SetPacketN

; 642  : 		if( strPacketNames == CString( "(") + _MTEXT( C0_HIGH) + "+" + _MTEXT( C0_LOW) + ")/2")

  0015c	68 00 00 00 00	 push	 OFFSET ??_C@_01ODHLEDKK@?$CI@
  00161	8d 4d dc	 lea	 ecx, DWORD PTR $T7[ebp]
  00164	ff 15 00 00 00
	00		 call	 DWORD PTR __imp_??0?$CStringT@DV?$StrTraitMFC_DLL@DV?$ChTraitsCRT@D@ATL@@@@@ATL@@QAE@PBD@Z
  0016a	8b 0d 54 00 00
	00		 mov	 ecx, DWORD PTR ?g_iMetaTable@@3VIMetaTable@@A+84
  00170	c6 45 fc 05	 mov	 BYTE PTR __$EHRec$[ebp+8], 5
  00174	ff 71 0c	 push	 DWORD PTR [ecx+12]
  00177	50		 push	 eax
  00178	8d 45 e0	 lea	 eax, DWORD PTR $T9[ebp]
  0017b	50		 push	 eax
  0017c	e8 00 00 00 00	 call	 ??HATL@@YA?AV?$CStringT@DV?$StrTraitMFC_DLL@DV?$ChTraitsCRT@D@ATL@@@@@0@ABV10@PBD@Z ; ATL::operator+
  00181	83 c4 0c	 add	 esp, 12			; 0000000cH
  00184	8b f0		 mov	 esi, eax
; File C:\Program Files (x86)\Microsoft Visual Studio\2019\Community\VC\Tools\MSVC\14.29.30133\atlmfc\include\cstringt.h

; 2401 : 		CStringT strResult( str1.GetManager() );

  00186	8b ce		 mov	 ecx, esi
; File D:\git\src\IBK\IBK_DRFN\ProjSrc\SrcChartEx\ChartAddIn\ChartEnvSetupDlgAddIn\ChartEnvSetupDlgAddIn\Setting_PriceMA.cpp

; 642  : 		if( strPacketNames == CString( "(") + _MTEXT( C0_HIGH) + "+" + _MTEXT( C0_LOW) + ")/2")

  00188	c6 45 fc 07	 mov	 BYTE PTR __$EHRec$[ebp+8], 7
; File C:\Program Files (x86)\Microsoft Visual Studio\2019\Community\VC\Tools\MSVC\14.29.30133\atlmfc\include\cstringt.h

; 2401 : 		CStringT strResult( str1.GetManager() );

  0018c	ff 15 00 00 00
	00		 call	 DWORD PTR __imp_?GetManager@?$CStringT@DV?$StrTraitMFC_DLL@DV?$ChTraitsCRT@D@ATL@@@@@ATL@@QBEPAUIAtlStringMgr@2@XZ
  00192	50		 push	 eax
  00193	8d 4d e8	 lea	 ecx, DWORD PTR $T16[ebp]
  00196	ff 15 00 00 00
	00		 call	 DWORD PTR __imp_??0?$CStringT@DV?$StrTraitMFC_DLL@DV?$ChTraitsCRT@D@ATL@@@@@ATL@@QAE@PAUIAtlStringMgr@1@@Z
; File C:\Program Files (x86)\Microsoft Visual Studio\2019\Community\VC\Tools\MSVC\14.29.30133\atlmfc\include\atlsimpstr.h

; 519  : 		return( GetData()->nDataLength );

  0019c	8b 06		 mov	 eax, DWORD PTR [esi]
; File C:\Program Files (x86)\Microsoft Visual Studio\2019\Community\VC\Tools\MSVC\14.29.30133\atlmfc\include\cstringt.h

; 2403 : 		CThisSimpleString::Concatenate( strResult, str1, str1.GetLength(), psz2, CThisSimpleString::StringLength( psz2 ) );

  0019e	6a 01		 push	 1
  001a0	68 00 00 00 00	 push	 OFFSET ??_C@_01MIFGBAGJ@?$CL@

; 2404 : 
; 2405 : 		return( strResult );

  001a5	c7 45 f0 01 00
	00 00		 mov	 DWORD PTR $T20[ebp], 1
  001ac	ff 70 f4	 push	 DWORD PTR [eax-12]
  001af	50		 push	 eax
  001b0	8d 45 e8	 lea	 eax, DWORD PTR $T16[ebp]
  001b3	50		 push	 eax
  001b4	ff 15 00 00 00
	00		 call	 DWORD PTR __imp_?Concatenate@?$CSimpleStringT@D$00@ATL@@KAXAAV12@PBDH1H@Z
; File D:\git\src\IBK\IBK_DRFN\ProjSrc\SrcChartEx\ChartAddIn\ChartEnvSetupDlgAddIn\ChartEnvSetupDlgAddIn\Setting_PriceMA.cpp

; 642  : 		if( strPacketNames == CString( "(") + _MTEXT( C0_HIGH) + "+" + _MTEXT( C0_LOW) + ")/2")

  001ba	a1 54 00 00 00	 mov	 eax, DWORD PTR ?g_iMetaTable@@3VIMetaTable@@A+84
  001bf	ff 70 10	 push	 DWORD PTR [eax+16]
  001c2	8d 45 e8	 lea	 eax, DWORD PTR $T16[ebp]
  001c5	50		 push	 eax
  001c6	8d 45 e4	 lea	 eax, DWORD PTR $T12[ebp]
  001c9	50		 push	 eax
  001ca	e8 00 00 00 00	 call	 ??HATL@@YA?AV?$CStringT@DV?$StrTraitMFC_DLL@DV?$ChTraitsCRT@D@ATL@@@@@0@ABV10@PBD@Z ; ATL::operator+
  001cf	83 c4 20	 add	 esp, 32			; 00000020H
  001d2	8b f0		 mov	 esi, eax
; File C:\Program Files (x86)\Microsoft Visual Studio\2019\Community\VC\Tools\MSVC\14.29.30133\atlmfc\include\cstringt.h

; 2401 : 		CStringT strResult( str1.GetManager() );

  001d4	8b ce		 mov	 ecx, esi
; File D:\git\src\IBK\IBK_DRFN\ProjSrc\SrcChartEx\ChartAddIn\ChartEnvSetupDlgAddIn\ChartEnvSetupDlgAddIn\Setting_PriceMA.cpp

; 642  : 		if( strPacketNames == CString( "(") + _MTEXT( C0_HIGH) + "+" + _MTEXT( C0_LOW) + ")/2")

  001d6	c6 45 fc 09	 mov	 BYTE PTR __$EHRec$[ebp+8], 9
; File C:\Program Files (x86)\Microsoft Visual Studio\2019\Community\VC\Tools\MSVC\14.29.30133\atlmfc\include\cstringt.h

; 2401 : 		CStringT strResult( str1.GetManager() );

  001da	ff 15 00 00 00
	00		 call	 DWORD PTR __imp_?GetManager@?$CStringT@DV?$StrTraitMFC_DLL@DV?$ChTraitsCRT@D@ATL@@@@@ATL@@QBEPAUIAtlStringMgr@2@XZ
  001e0	50		 push	 eax
  001e1	8d 4d ec	 lea	 ecx, DWORD PTR $T19[ebp]
  001e4	ff 15 00 00 00
	00		 call	 DWORD PTR __imp_??0?$CStringT@DV?$StrTraitMFC_DLL@DV?$ChTraitsCRT@D@ATL@@@@@ATL@@QAE@PAUIAtlStringMgr@1@@Z
; File C:\Program Files (x86)\Microsoft Visual Studio\2019\Community\VC\Tools\MSVC\14.29.30133\atlmfc\include\atlsimpstr.h

; 519  : 		return( GetData()->nDataLength );

  001ea	8b 06		 mov	 eax, DWORD PTR [esi]
; File C:\Program Files (x86)\Microsoft Visual Studio\2019\Community\VC\Tools\MSVC\14.29.30133\atlmfc\include\cstringt.h

; 2403 : 		CThisSimpleString::Concatenate( strResult, str1, str1.GetLength(), psz2, CThisSimpleString::StringLength( psz2 ) );

  001ec	6a 03		 push	 3
  001ee	68 00 00 00 00	 push	 OFFSET ??_C@_03NNOAJFPL@?$CJ?12@

; 2404 : 
; 2405 : 		return( strResult );

  001f3	c7 45 f0 03 00
	00 00		 mov	 DWORD PTR $T20[ebp], 3
  001fa	ff 70 f4	 push	 DWORD PTR [eax-12]
  001fd	50		 push	 eax
  001fe	8d 45 ec	 lea	 eax, DWORD PTR $T19[ebp]
  00201	50		 push	 eax
  00202	ff 15 00 00 00
	00		 call	 DWORD PTR __imp_?Concatenate@?$CSimpleStringT@D$00@ATL@@KAXAAV12@PBDH1H@Z
  00208	83 c4 14	 add	 esp, 20			; 00000014H

; 2479 : 		return(str1.Compare(str2) == 0);

  0020b	8d 4d 08	 lea	 ecx, DWORD PTR _strPacketNames$[ebp]
  0020e	ff 75 ec	 push	 DWORD PTR $T19[ebp]
  00211	ff 15 00 00 00
	00		 call	 DWORD PTR __imp_?Compare@?$CStringT@DV?$StrTraitMFC_DLL@DV?$ChTraitsCRT@D@ATL@@@@@ATL@@QBEHPBD@Z
; File D:\git\src\IBK\IBK_DRFN\ProjSrc\SrcChartEx\ChartAddIn\ChartEnvSetupDlgAddIn\ChartEnvSetupDlgAddIn\Setting_PriceMA.cpp

; 642  : 		if( strPacketNames == CString( "(") + _MTEXT( C0_HIGH) + "+" + _MTEXT( C0_LOW) + ")/2")

  00217	8d 4d ec	 lea	 ecx, DWORD PTR $T19[ebp]
; File C:\Program Files (x86)\Microsoft Visual Studio\2019\Community\VC\Tools\MSVC\14.29.30133\atlmfc\include\cstringt.h

; 2479 : 		return(str1.Compare(str2) == 0);

  0021a	8b f0		 mov	 esi, eax
; File D:\git\src\IBK\IBK_DRFN\ProjSrc\SrcChartEx\ChartAddIn\ChartEnvSetupDlgAddIn\ChartEnvSetupDlgAddIn\Setting_PriceMA.cpp

; 642  : 		if( strPacketNames == CString( "(") + _MTEXT( C0_HIGH) + "+" + _MTEXT( C0_LOW) + ")/2")

  0021c	ff 15 00 00 00
	00		 call	 DWORD PTR __imp_??1?$CStringT@DV?$StrTraitMFC_DLL@DV?$ChTraitsCRT@D@ATL@@@@@ATL@@QAE@XZ
  00222	8d 4d e4	 lea	 ecx, DWORD PTR $T12[ebp]
  00225	ff 15 00 00 00
	00		 call	 DWORD PTR __imp_??1?$CStringT@DV?$StrTraitMFC_DLL@DV?$ChTraitsCRT@D@ATL@@@@@ATL@@QAE@XZ
  0022b	8d 4d e8	 lea	 ecx, DWORD PTR $T16[ebp]
  0022e	ff 15 00 00 00
	00		 call	 DWORD PTR __imp_??1?$CStringT@DV?$StrTraitMFC_DLL@DV?$ChTraitsCRT@D@ATL@@@@@ATL@@QAE@XZ
  00234	8d 4d e0	 lea	 ecx, DWORD PTR $T9[ebp]
  00237	ff 15 00 00 00
	00		 call	 DWORD PTR __imp_??1?$CStringT@DV?$StrTraitMFC_DLL@DV?$ChTraitsCRT@D@ATL@@@@@ATL@@QAE@XZ
  0023d	8d 4d dc	 lea	 ecx, DWORD PTR $T7[ebp]
  00240	c6 45 fc 01	 mov	 BYTE PTR __$EHRec$[ebp+8], 1
  00244	ff 15 00 00 00
	00		 call	 DWORD PTR __imp_??1?$CStringT@DV?$StrTraitMFC_DLL@DV?$ChTraitsCRT@D@ATL@@@@@ATL@@QAE@XZ
  0024a	85 f6		 test	 esi, esi
  0024c	75 12		 jne	 SHORT $LN11@SetPacketN
; File C:\Program Files (x86)\Microsoft Visual Studio\2019\Community\VC\Tools\MSVC\14.29.30133\atlmfc\include\afxwin2.inl

; 767  : 	{ ASSERT(::IsWindow(m_hWnd)); return (int)::SendMessage(m_hWnd, CB_SETCURSEL, nSelect, 0); }

  0024e	56		 push	 esi
  0024f	6a 04		 push	 4
  00251	68 4e 01 00 00	 push	 334			; 0000014eH
  00256	ff 77 20	 push	 DWORD PTR [edi+32]
  00259	ff d3		 call	 ebx
; File D:\git\src\IBK\IBK_DRFN\ProjSrc\SrcChartEx\ChartAddIn\ChartEnvSetupDlgAddIn\ChartEnvSetupDlgAddIn\Setting_PriceMA.cpp

; 643  : 			pPacketCombo->SetCurSel(4);

  0025b	e9 1c 02 00 00	 jmp	 $LN10@SetPacketN
$LN11@SetPacketN:

; 644  : 		else if( strPacketNames == CString( "(") + _MTEXT( C0_HIGH) + "+" + _MTEXT( C0_LOW) + "+" + _MTEXT( C0_CLOSE) + ")/3")

  00260	68 00 00 00 00	 push	 OFFSET ??_C@_01ODHLEDKK@?$CI@
  00265	8d 4d d4	 lea	 ecx, DWORD PTR $T3[ebp]
  00268	ff 15 00 00 00
	00		 call	 DWORD PTR __imp_??0?$CStringT@DV?$StrTraitMFC_DLL@DV?$ChTraitsCRT@D@ATL@@@@@ATL@@QAE@PBD@Z
  0026e	8b 0d 54 00 00
	00		 mov	 ecx, DWORD PTR ?g_iMetaTable@@3VIMetaTable@@A+84
  00274	c6 45 fc 0a	 mov	 BYTE PTR __$EHRec$[ebp+8], 10 ; 0000000aH
  00278	ff 71 0c	 push	 DWORD PTR [ecx+12]
  0027b	50		 push	 eax
  0027c	8d 45 d8	 lea	 eax, DWORD PTR $T5[ebp]
  0027f	50		 push	 eax
  00280	e8 00 00 00 00	 call	 ??HATL@@YA?AV?$CStringT@DV?$StrTraitMFC_DLL@DV?$ChTraitsCRT@D@ATL@@@@@0@ABV10@PBD@Z ; ATL::operator+
  00285	83 c4 0c	 add	 esp, 12			; 0000000cH
  00288	8b f0		 mov	 esi, eax
; File C:\Program Files (x86)\Microsoft Visual Studio\2019\Community\VC\Tools\MSVC\14.29.30133\atlmfc\include\cstringt.h

; 2401 : 		CStringT strResult( str1.GetManager() );

  0028a	8b ce		 mov	 ecx, esi
; File D:\git\src\IBK\IBK_DRFN\ProjSrc\SrcChartEx\ChartAddIn\ChartEnvSetupDlgAddIn\ChartEnvSetupDlgAddIn\Setting_PriceMA.cpp

; 644  : 		else if( strPacketNames == CString( "(") + _MTEXT( C0_HIGH) + "+" + _MTEXT( C0_LOW) + "+" + _MTEXT( C0_CLOSE) + ")/3")

  0028c	c6 45 fc 0c	 mov	 BYTE PTR __$EHRec$[ebp+8], 12 ; 0000000cH
; File C:\Program Files (x86)\Microsoft Visual Studio\2019\Community\VC\Tools\MSVC\14.29.30133\atlmfc\include\cstringt.h

; 2401 : 		CStringT strResult( str1.GetManager() );

  00290	ff 15 00 00 00
	00		 call	 DWORD PTR __imp_?GetManager@?$CStringT@DV?$StrTraitMFC_DLL@DV?$ChTraitsCRT@D@ATL@@@@@ATL@@QBEPAUIAtlStringMgr@2@XZ
  00296	50		 push	 eax
  00297	8d 4d e4	 lea	 ecx, DWORD PTR $T11[ebp]
  0029a	ff 15 00 00 00
	00		 call	 DWORD PTR __imp_??0?$CStringT@DV?$StrTraitMFC_DLL@DV?$ChTraitsCRT@D@ATL@@@@@ATL@@QAE@PAUIAtlStringMgr@1@@Z
; File C:\Program Files (x86)\Microsoft Visual Studio\2019\Community\VC\Tools\MSVC\14.29.30133\atlmfc\include\atlsimpstr.h

; 519  : 		return( GetData()->nDataLength );

  002a0	8b 06		 mov	 eax, DWORD PTR [esi]
; File C:\Program Files (x86)\Microsoft Visual Studio\2019\Community\VC\Tools\MSVC\14.29.30133\atlmfc\include\cstringt.h

; 2403 : 		CThisSimpleString::Concatenate( strResult, str1, str1.GetLength(), psz2, CThisSimpleString::StringLength( psz2 ) );

  002a2	6a 01		 push	 1
  002a4	68 00 00 00 00	 push	 OFFSET ??_C@_01MIFGBAGJ@?$CL@

; 2404 : 
; 2405 : 		return( strResult );

  002a9	c7 45 f0 04 00
	00 00		 mov	 DWORD PTR $T20[ebp], 4
  002b0	ff 70 f4	 push	 DWORD PTR [eax-12]
  002b3	50		 push	 eax
  002b4	8d 45 e4	 lea	 eax, DWORD PTR $T11[ebp]
  002b7	50		 push	 eax
  002b8	ff 15 00 00 00
	00		 call	 DWORD PTR __imp_?Concatenate@?$CSimpleStringT@D$00@ATL@@KAXAAV12@PBDH1H@Z
; File D:\git\src\IBK\IBK_DRFN\ProjSrc\SrcChartEx\ChartAddIn\ChartEnvSetupDlgAddIn\ChartEnvSetupDlgAddIn\Setting_PriceMA.cpp

; 644  : 		else if( strPacketNames == CString( "(") + _MTEXT( C0_HIGH) + "+" + _MTEXT( C0_LOW) + "+" + _MTEXT( C0_CLOSE) + ")/3")

  002be	a1 54 00 00 00	 mov	 eax, DWORD PTR ?g_iMetaTable@@3VIMetaTable@@A+84
  002c3	ff 70 10	 push	 DWORD PTR [eax+16]
  002c6	8d 45 e4	 lea	 eax, DWORD PTR $T11[ebp]
  002c9	50		 push	 eax
  002ca	8d 45 e0	 lea	 eax, DWORD PTR $T8[ebp]
  002cd	50		 push	 eax
  002ce	e8 00 00 00 00	 call	 ??HATL@@YA?AV?$CStringT@DV?$StrTraitMFC_DLL@DV?$ChTraitsCRT@D@ATL@@@@@0@ABV10@PBD@Z ; ATL::operator+
  002d3	83 c4 20	 add	 esp, 32			; 00000020H
  002d6	8b f0		 mov	 esi, eax
; File C:\Program Files (x86)\Microsoft Visual Studio\2019\Community\VC\Tools\MSVC\14.29.30133\atlmfc\include\cstringt.h

; 2401 : 		CStringT strResult( str1.GetManager() );

  002d8	8b ce		 mov	 ecx, esi
; File D:\git\src\IBK\IBK_DRFN\ProjSrc\SrcChartEx\ChartAddIn\ChartEnvSetupDlgAddIn\ChartEnvSetupDlgAddIn\Setting_PriceMA.cpp

; 644  : 		else if( strPacketNames == CString( "(") + _MTEXT( C0_HIGH) + "+" + _MTEXT( C0_LOW) + "+" + _MTEXT( C0_CLOSE) + ")/3")

  002da	c6 45 fc 0e	 mov	 BYTE PTR __$EHRec$[ebp+8], 14 ; 0000000eH
; File C:\Program Files (x86)\Microsoft Visual Studio\2019\Community\VC\Tools\MSVC\14.29.30133\atlmfc\include\cstringt.h

; 2401 : 		CStringT strResult( str1.GetManager() );

  002de	ff 15 00 00 00
	00		 call	 DWORD PTR __imp_?GetManager@?$CStringT@DV?$StrTraitMFC_DLL@DV?$ChTraitsCRT@D@ATL@@@@@ATL@@QBEPAUIAtlStringMgr@2@XZ
  002e4	50		 push	 eax
  002e5	8d 4d ec	 lea	 ecx, DWORD PTR $T18[ebp]
  002e8	ff 15 00 00 00
	00		 call	 DWORD PTR __imp_??0?$CStringT@DV?$StrTraitMFC_DLL@DV?$ChTraitsCRT@D@ATL@@@@@ATL@@QAE@PAUIAtlStringMgr@1@@Z
; File C:\Program Files (x86)\Microsoft Visual Studio\2019\Community\VC\Tools\MSVC\14.29.30133\atlmfc\include\atlsimpstr.h

; 519  : 		return( GetData()->nDataLength );

  002ee	8b 06		 mov	 eax, DWORD PTR [esi]
; File C:\Program Files (x86)\Microsoft Visual Studio\2019\Community\VC\Tools\MSVC\14.29.30133\atlmfc\include\cstringt.h

; 2403 : 		CThisSimpleString::Concatenate( strResult, str1, str1.GetLength(), psz2, CThisSimpleString::StringLength( psz2 ) );

  002f0	6a 01		 push	 1
  002f2	68 00 00 00 00	 push	 OFFSET ??_C@_01MIFGBAGJ@?$CL@

; 2404 : 
; 2405 : 		return( strResult );

  002f7	c7 45 f0 0c 00
	00 00		 mov	 DWORD PTR $T20[ebp], 12	; 0000000cH
  002fe	ff 70 f4	 push	 DWORD PTR [eax-12]
  00301	50		 push	 eax
  00302	8d 45 ec	 lea	 eax, DWORD PTR $T18[ebp]
  00305	50		 push	 eax
  00306	ff 15 00 00 00
	00		 call	 DWORD PTR __imp_?Concatenate@?$CSimpleStringT@D$00@ATL@@KAXAAV12@PBDH1H@Z
; File D:\git\src\IBK\IBK_DRFN\ProjSrc\SrcChartEx\ChartAddIn\ChartEnvSetupDlgAddIn\ChartEnvSetupDlgAddIn\Setting_PriceMA.cpp

; 644  : 		else if( strPacketNames == CString( "(") + _MTEXT( C0_HIGH) + "+" + _MTEXT( C0_LOW) + "+" + _MTEXT( C0_CLOSE) + ")/3")

  0030c	a1 54 00 00 00	 mov	 eax, DWORD PTR ?g_iMetaTable@@3VIMetaTable@@A+84
  00311	ff 70 14	 push	 DWORD PTR [eax+20]
  00314	8d 45 ec	 lea	 eax, DWORD PTR $T18[ebp]
  00317	50		 push	 eax
  00318	8d 45 dc	 lea	 eax, DWORD PTR $T6[ebp]
  0031b	50		 push	 eax
  0031c	e8 00 00 00 00	 call	 ??HATL@@YA?AV?$CStringT@DV?$StrTraitMFC_DLL@DV?$ChTraitsCRT@D@ATL@@@@@0@ABV10@PBD@Z ; ATL::operator+
  00321	83 c4 20	 add	 esp, 32			; 00000020H
  00324	8b f0		 mov	 esi, eax
; File C:\Program Files (x86)\Microsoft Visual Studio\2019\Community\VC\Tools\MSVC\14.29.30133\atlmfc\include\cstringt.h

; 2401 : 		CStringT strResult( str1.GetManager() );

  00326	8b ce		 mov	 ecx, esi
; File D:\git\src\IBK\IBK_DRFN\ProjSrc\SrcChartEx\ChartAddIn\ChartEnvSetupDlgAddIn\ChartEnvSetupDlgAddIn\Setting_PriceMA.cpp

; 644  : 		else if( strPacketNames == CString( "(") + _MTEXT( C0_HIGH) + "+" + _MTEXT( C0_LOW) + "+" + _MTEXT( C0_CLOSE) + ")/3")

  00328	c6 45 fc 10	 mov	 BYTE PTR __$EHRec$[ebp+8], 16 ; 00000010H
; File C:\Program Files (x86)\Microsoft Visual Studio\2019\Community\VC\Tools\MSVC\14.29.30133\atlmfc\include\cstringt.h

; 2401 : 		CStringT strResult( str1.GetManager() );

  0032c	ff 15 00 00 00
	00		 call	 DWORD PTR __imp_?GetManager@?$CStringT@DV?$StrTraitMFC_DLL@DV?$ChTraitsCRT@D@ATL@@@@@ATL@@QBEPAUIAtlStringMgr@2@XZ
  00332	50		 push	 eax
  00333	8d 4d e8	 lea	 ecx, DWORD PTR $T15[ebp]
  00336	ff 15 00 00 00
	00		 call	 DWORD PTR __imp_??0?$CStringT@DV?$StrTraitMFC_DLL@DV?$ChTraitsCRT@D@ATL@@@@@ATL@@QAE@PAUIAtlStringMgr@1@@Z
; File C:\Program Files (x86)\Microsoft Visual Studio\2019\Community\VC\Tools\MSVC\14.29.30133\atlmfc\include\atlsimpstr.h

; 519  : 		return( GetData()->nDataLength );

  0033c	8b 06		 mov	 eax, DWORD PTR [esi]
; File C:\Program Files (x86)\Microsoft Visual Studio\2019\Community\VC\Tools\MSVC\14.29.30133\atlmfc\include\cstringt.h

; 2403 : 		CThisSimpleString::Concatenate( strResult, str1, str1.GetLength(), psz2, CThisSimpleString::StringLength( psz2 ) );

  0033e	6a 03		 push	 3
  00340	68 00 00 00 00	 push	 OFFSET ??_C@_03MEPLKELK@?$CJ?13@

; 2404 : 
; 2405 : 		return( strResult );

  00345	c7 45 f0 1c 00
	00 00		 mov	 DWORD PTR $T20[ebp], 28	; 0000001cH
  0034c	ff 70 f4	 push	 DWORD PTR [eax-12]
  0034f	50		 push	 eax
  00350	8d 45 e8	 lea	 eax, DWORD PTR $T15[ebp]
  00353	50		 push	 eax

; 2403 : 		CThisSimpleString::Concatenate( strResult, str1, str1.GetLength(), psz2, CThisSimpleString::StringLength( psz2 ) );

  00354	ff 15 00 00 00
	00		 call	 DWORD PTR __imp_?Concatenate@?$CSimpleStringT@D$00@ATL@@KAXAAV12@PBDH1H@Z
  0035a	83 c4 14	 add	 esp, 20			; 00000014H

; 2479 : 		return(str1.Compare(str2) == 0);

  0035d	8d 4d 08	 lea	 ecx, DWORD PTR _strPacketNames$[ebp]
  00360	ff 75 e8	 push	 DWORD PTR $T15[ebp]
  00363	ff 15 00 00 00
	00		 call	 DWORD PTR __imp_?Compare@?$CStringT@DV?$StrTraitMFC_DLL@DV?$ChTraitsCRT@D@ATL@@@@@ATL@@QBEHPBD@Z
; File D:\git\src\IBK\IBK_DRFN\ProjSrc\SrcChartEx\ChartAddIn\ChartEnvSetupDlgAddIn\ChartEnvSetupDlgAddIn\Setting_PriceMA.cpp

; 644  : 		else if( strPacketNames == CString( "(") + _MTEXT( C0_HIGH) + "+" + _MTEXT( C0_LOW) + "+" + _MTEXT( C0_CLOSE) + ")/3")

  00369	8d 4d e8	 lea	 ecx, DWORD PTR $T15[ebp]
; File C:\Program Files (x86)\Microsoft Visual Studio\2019\Community\VC\Tools\MSVC\14.29.30133\atlmfc\include\cstringt.h

; 2479 : 		return(str1.Compare(str2) == 0);

  0036c	8b f0		 mov	 esi, eax
; File D:\git\src\IBK\IBK_DRFN\ProjSrc\SrcChartEx\ChartAddIn\ChartEnvSetupDlgAddIn\ChartEnvSetupDlgAddIn\Setting_PriceMA.cpp

; 644  : 		else if( strPacketNames == CString( "(") + _MTEXT( C0_HIGH) + "+" + _MTEXT( C0_LOW) + "+" + _MTEXT( C0_CLOSE) + ")/3")

  0036e	ff 15 00 00 00
	00		 call	 DWORD PTR __imp_??1?$CStringT@DV?$StrTraitMFC_DLL@DV?$ChTraitsCRT@D@ATL@@@@@ATL@@QAE@XZ
  00374	8d 4d dc	 lea	 ecx, DWORD PTR $T6[ebp]
  00377	ff 15 00 00 00
	00		 call	 DWORD PTR __imp_??1?$CStringT@DV?$StrTraitMFC_DLL@DV?$ChTraitsCRT@D@ATL@@@@@ATL@@QAE@XZ
  0037d	8d 4d ec	 lea	 ecx, DWORD PTR $T18[ebp]
  00380	ff 15 00 00 00
	00		 call	 DWORD PTR __imp_??1?$CStringT@DV?$StrTraitMFC_DLL@DV?$ChTraitsCRT@D@ATL@@@@@ATL@@QAE@XZ
  00386	8d 4d e0	 lea	 ecx, DWORD PTR $T8[ebp]
  00389	ff 15 00 00 00
	00		 call	 DWORD PTR __imp_??1?$CStringT@DV?$StrTraitMFC_DLL@DV?$ChTraitsCRT@D@ATL@@@@@ATL@@QAE@XZ
  0038f	8d 4d e4	 lea	 ecx, DWORD PTR $T11[ebp]
  00392	ff 15 00 00 00
	00		 call	 DWORD PTR __imp_??1?$CStringT@DV?$StrTraitMFC_DLL@DV?$ChTraitsCRT@D@ATL@@@@@ATL@@QAE@XZ
  00398	8d 4d d8	 lea	 ecx, DWORD PTR $T5[ebp]
  0039b	ff 15 00 00 00
	00		 call	 DWORD PTR __imp_??1?$CStringT@DV?$StrTraitMFC_DLL@DV?$ChTraitsCRT@D@ATL@@@@@ATL@@QAE@XZ
  003a1	8d 4d d4	 lea	 ecx, DWORD PTR $T3[ebp]
  003a4	ff 15 00 00 00
	00		 call	 DWORD PTR __imp_??1?$CStringT@DV?$StrTraitMFC_DLL@DV?$ChTraitsCRT@D@ATL@@@@@ATL@@QAE@XZ
  003aa	85 f6		 test	 esi, esi
  003ac	0f 85 ca 00 00
	00		 jne	 $LN10@SetPacketN
; File C:\Program Files (x86)\Microsoft Visual Studio\2019\Community\VC\Tools\MSVC\14.29.30133\atlmfc\include\afxwin2.inl

; 767  : 	{ ASSERT(::IsWindow(m_hWnd)); return (int)::SendMessage(m_hWnd, CB_SETCURSEL, nSelect, 0); }

  003b2	56		 push	 esi
  003b3	6a 05		 push	 5
  003b5	68 4e 01 00 00	 push	 334			; 0000014eH
  003ba	ff 77 20	 push	 DWORD PTR [edi+32]
  003bd	ff d3		 call	 ebx
; File D:\git\src\IBK\IBK_DRFN\ProjSrc\SrcChartEx\ChartAddIn\ChartEnvSetupDlgAddIn\ChartEnvSetupDlgAddIn\Setting_PriceMA.cpp

; 646  : 	}

  003bf	e9 b8 00 00 00	 jmp	 $LN10@SetPacketN
$LN9@SetPacketN:

; 647  : 	else
; 648  : 	{
; 649  : 		strPacketNames = _MTOLS( strPacketNames, ",", 0);

  003c4	6a ff		 push	 -1
  003c6	6a 00		 push	 0
  003c8	51		 push	 ecx
  003c9	8b cc		 mov	 ecx, esp
  003cb	89 65 d8	 mov	 DWORD PTR $T4[ebp], esp
  003ce	68 00 00 00 00	 push	 OFFSET ??_C@_01IHBHIGKO@?0@
  003d3	ff 15 00 00 00
	00		 call	 DWORD PTR __imp_??0?$CStringT@DV?$StrTraitMFC_DLL@DV?$ChTraitsCRT@D@ATL@@@@@ATL@@QAE@PBD@Z
  003d9	51		 push	 ecx
  003da	8d 45 08	 lea	 eax, DWORD PTR _strPacketNames$[ebp]
  003dd	c6 45 fc 11	 mov	 BYTE PTR __$EHRec$[ebp+8], 17 ; 00000011H
  003e1	8b cc		 mov	 ecx, esp
  003e3	50		 push	 eax
  003e4	ff 15 00 00 00
	00		 call	 DWORD PTR __imp_??0?$CStringT@DV?$StrTraitMFC_DLL@DV?$ChTraitsCRT@D@ATL@@@@@ATL@@QAE@ABV01@@Z
  003ea	ff b6 d8 00 00
	00		 push	 DWORD PTR [esi+216]
  003f0	8d 45 d4	 lea	 eax, DWORD PTR $T2[ebp]
  003f3	c6 45 fc 01	 mov	 BYTE PTR __$EHRec$[ebp+8], 1
  003f7	50		 push	 eax
  003f8	b9 00 00 00 00	 mov	 ecx, OFFSET ?g_iMetaTable@@3VIMetaTable@@A ; g_iMetaTable
  003fd	e8 00 00 00 00	 call	 ?GetMultipleLanguageText@IMetaTable@@QAE?AV?$CStringT@DV?$StrTraitMFC_DLL@DV?$ChTraitsCRT@D@ATL@@@@@ATL@@PAUHWND__@@V23@1HH@Z ; IMetaTable::GetMultipleLanguageText
  00402	50		 push	 eax
  00403	8d 4d 08	 lea	 ecx, DWORD PTR _strPacketNames$[ebp]
  00406	c6 45 fc 12	 mov	 BYTE PTR __$EHRec$[ebp+8], 18 ; 00000012H
  0040a	ff 15 00 00 00
	00		 call	 DWORD PTR __imp_??4?$CStringT@DV?$StrTraitMFC_DLL@DV?$ChTraitsCRT@D@ATL@@@@@ATL@@QAEAAV01@ABV01@@Z
  00410	8d 4d d4	 lea	 ecx, DWORD PTR $T2[ebp]
  00413	ff 15 00 00 00
	00		 call	 DWORD PTR __imp_??1?$CStringT@DV?$StrTraitMFC_DLL@DV?$ChTraitsCRT@D@ATL@@@@@ATL@@QAE@XZ

; 650  : 		CString data;

  00419	8d 4d e4	 lea	 ecx, DWORD PTR _data$10[ebp]
  0041c	ff 15 00 00 00
	00		 call	 DWORD PTR __imp_??0?$CStringT@DV?$StrTraitMFC_DLL@DV?$ChTraitsCRT@D@ATL@@@@@ATL@@QAE@XZ

; 651  : 		for(int i = 0 ; i < pPacketCombo->GetCount() ; i++)

  00422	33 f6		 xor	 esi, esi
  00424	c6 45 fc 13	 mov	 BYTE PTR __$EHRec$[ebp+8], 19 ; 00000013H
; File C:\Program Files (x86)\Microsoft Visual Studio\2019\Community\VC\Tools\MSVC\14.29.30133\atlmfc\include\afxwin2.inl

; 763  : 	{ ASSERT(::IsWindow(m_hWnd)); return (int)::SendMessage(m_hWnd, CB_GETCOUNT, 0, 0); }

  00428	56		 push	 esi
  00429	56		 push	 esi
  0042a	68 46 01 00 00	 push	 326			; 00000146H
  0042f	ff 77 20	 push	 DWORD PTR [edi+32]
  00432	ff d3		 call	 ebx
; File D:\git\src\IBK\IBK_DRFN\ProjSrc\SrcChartEx\ChartAddIn\ChartEnvSetupDlgAddIn\ChartEnvSetupDlgAddIn\Setting_PriceMA.cpp

; 651  : 		for(int i = 0 ; i < pPacketCombo->GetCount() ; i++)

  00434	85 c0		 test	 eax, eax
  00436	7e 3b		 jle	 SHORT $LN3@SetPacketN
$LL4@SetPacketN:

; 652  : 		{
; 653  : 			pPacketCombo->GetLBText( i, data);	

  00438	8d 45 e4	 lea	 eax, DWORD PTR _data$10[ebp]
  0043b	8b cf		 mov	 ecx, edi
  0043d	50		 push	 eax
  0043e	56		 push	 esi
  0043f	e8 00 00 00 00	 call	 ?GetLBText@CComboBox@@QBEXHAAV?$CStringT@DV?$StrTraitMFC_DLL@DV?$ChTraitsCRT@D@ATL@@@@@ATL@@@Z ; CComboBox::GetLBText

; 654  : 			if( strPacketNames.Compare(data) == 0)

  00444	ff 75 e4	 push	 DWORD PTR _data$10[ebp]
  00447	8d 4d 08	 lea	 ecx, DWORD PTR _strPacketNames$[ebp]
  0044a	ff 15 00 00 00
	00		 call	 DWORD PTR __imp_?Compare@?$CStringT@DV?$StrTraitMFC_DLL@DV?$ChTraitsCRT@D@ATL@@@@@ATL@@QBEHPBD@Z
  00450	8b 4f 20	 mov	 ecx, DWORD PTR [edi+32]
  00453	6a 00		 push	 0
  00455	85 c0		 test	 eax, eax
  00457	74 11		 je	 SHORT $LN136@SetPacketN
; File C:\Program Files (x86)\Microsoft Visual Studio\2019\Community\VC\Tools\MSVC\14.29.30133\atlmfc\include\afxwin2.inl

; 763  : 	{ ASSERT(::IsWindow(m_hWnd)); return (int)::SendMessage(m_hWnd, CB_GETCOUNT, 0, 0); }

  00459	6a 00		 push	 0
  0045b	68 46 01 00 00	 push	 326			; 00000146H
  00460	51		 push	 ecx
; File D:\git\src\IBK\IBK_DRFN\ProjSrc\SrcChartEx\ChartAddIn\ChartEnvSetupDlgAddIn\ChartEnvSetupDlgAddIn\Setting_PriceMA.cpp

; 651  : 		for(int i = 0 ; i < pPacketCombo->GetCount() ; i++)

  00461	46		 inc	 esi
; File C:\Program Files (x86)\Microsoft Visual Studio\2019\Community\VC\Tools\MSVC\14.29.30133\atlmfc\include\afxwin2.inl

; 763  : 	{ ASSERT(::IsWindow(m_hWnd)); return (int)::SendMessage(m_hWnd, CB_GETCOUNT, 0, 0); }

  00462	ff d3		 call	 ebx
; File D:\git\src\IBK\IBK_DRFN\ProjSrc\SrcChartEx\ChartAddIn\ChartEnvSetupDlgAddIn\ChartEnvSetupDlgAddIn\Setting_PriceMA.cpp

; 651  : 		for(int i = 0 ; i < pPacketCombo->GetCount() ; i++)

  00464	3b f0		 cmp	 esi, eax
  00466	7c d0		 jl	 SHORT $LL4@SetPacketN

; 654  : 			if( strPacketNames.Compare(data) == 0)

  00468	eb 09		 jmp	 SHORT $LN3@SetPacketN
$LN136@SetPacketN:
; File C:\Program Files (x86)\Microsoft Visual Studio\2019\Community\VC\Tools\MSVC\14.29.30133\atlmfc\include\afxwin2.inl

; 767  : 	{ ASSERT(::IsWindow(m_hWnd)); return (int)::SendMessage(m_hWnd, CB_SETCURSEL, nSelect, 0); }

  0046a	56		 push	 esi
  0046b	68 4e 01 00 00	 push	 334			; 0000014eH
  00470	51		 push	 ecx
  00471	ff d3		 call	 ebx
$LN3@SetPacketN:
; File D:\git\src\IBK\IBK_DRFN\ProjSrc\SrcChartEx\ChartAddIn\ChartEnvSetupDlgAddIn\ChartEnvSetupDlgAddIn\Setting_PriceMA.cpp

; 660  : 	}

  00473	8d 4d e4	 lea	 ecx, DWORD PTR _data$10[ebp]
  00476	ff 15 00 00 00
	00		 call	 DWORD PTR __imp_??1?$CStringT@DV?$StrTraitMFC_DLL@DV?$ChTraitsCRT@D@ATL@@@@@ATL@@QAE@XZ
$LN10@SetPacketN:

; 661  : }

  0047c	8d 4d 08	 lea	 ecx, DWORD PTR _strPacketNames$[ebp]
  0047f	ff 15 00 00 00
	00		 call	 DWORD PTR __imp_??1?$CStringT@DV?$StrTraitMFC_DLL@DV?$ChTraitsCRT@D@ATL@@@@@ATL@@QAE@XZ
; File D:\git\src\IBK\IBK_DRFN\ProjSrc\SrcChartEx\ChartAddIn\ChartEnvSetupDlgAddIn\Include_AddIn_135914\I135914\_IString.h

; 45   : 		if( m_pIStrData)

  00485	8b 4d d0	 mov	 ecx, DWORD PTR _szPacketName$[ebp+4]
  00488	c7 45 fc 14 00
	00 00		 mov	 DWORD PTR __$EHRec$[ebp+8], 20 ; 00000014H
  0048f	85 c9		 test	 ecx, ecx
  00491	74 06		 je	 SHORT $LN132@SetPacketN

; 46   : 		{
; 47   : 			m_pIStrData->Release();

  00493	8b 01		 mov	 eax, DWORD PTR [ecx]
  00495	51		 push	 ecx
  00496	ff 50 08	 call	 DWORD PTR [eax+8]
$LN132@SetPacketN:
; File D:\git\src\IBK\IBK_DRFN\ProjSrc\SrcChartEx\ChartAddIn\ChartEnvSetupDlgAddIn\ChartEnvSetupDlgAddIn\Setting_PriceMA.cpp

; 661  : }

  00499	8b 4d f4	 mov	 ecx, DWORD PTR __$EHRec$[ebp]
  0049c	64 89 0d 00 00
	00 00		 mov	 DWORD PTR fs:0, ecx
  004a3	59		 pop	 ecx
  004a4	5f		 pop	 edi
  004a5	5e		 pop	 esi
  004a6	5b		 pop	 ebx
  004a7	8b e5		 mov	 esp, ebp
  004a9	5d		 pop	 ebp
  004aa	c2 04 00	 ret	 4
_TEXT	ENDS
;	COMDAT text$x
text$x	SEGMENT
__unwindfunclet$?SetPacketName@CSetting_PriceMA@@IAEXH@Z$0:
  00000	8d 4d cc	 lea	 ecx, DWORD PTR _szPacketName$[ebp]
  00003	e9 00 00 00 00	 jmp	 ??1ILPCSTR135914@@QAE@XZ ; ILPCSTR135914::~ILPCSTR135914
__unwindfunclet$?SetPacketName@CSetting_PriceMA@@IAEXH@Z$1:
  00008	8d 4d 08	 lea	 ecx, DWORD PTR _strPacketNames$[ebp]
  0000b	ff 25 00 00 00
	00		 jmp	 DWORD PTR __imp_??1?$CStringT@DV?$StrTraitMFC_DLL@DV?$ChTraitsCRT@D@ATL@@@@@ATL@@QAE@XZ
__unwindfunclet$?SetPacketName@CSetting_PriceMA@@IAEXH@Z$2:
  00011	8d 4d e4	 lea	 ecx, DWORD PTR $T14[ebp]
  00014	ff 25 00 00 00
	00		 jmp	 DWORD PTR __imp_??1?$CStringT@DV?$StrTraitMFC_DLL@DV?$ChTraitsCRT@D@ATL@@@@@ATL@@QAE@XZ
__unwindfunclet$?SetPacketName@CSetting_PriceMA@@IAEXH@Z$3:
  0001a	8d 4d e4	 lea	 ecx, DWORD PTR $T13[ebp]
  0001d	ff 25 00 00 00
	00		 jmp	 DWORD PTR __imp_??1?$CStringT@DV?$StrTraitMFC_DLL@DV?$ChTraitsCRT@D@ATL@@@@@ATL@@QAE@XZ
__unwindfunclet$?SetPacketName@CSetting_PriceMA@@IAEXH@Z$4:
  00023	8d 4d e8	 lea	 ecx, DWORD PTR $T17[ebp]
  00026	ff 25 00 00 00
	00		 jmp	 DWORD PTR __imp_??1?$CStringT@DV?$StrTraitMFC_DLL@DV?$ChTraitsCRT@D@ATL@@@@@ATL@@QAE@XZ
__unwindfunclet$?SetPacketName@CSetting_PriceMA@@IAEXH@Z$5:
  0002c	8d 4d dc	 lea	 ecx, DWORD PTR $T7[ebp]
  0002f	ff 25 00 00 00
	00		 jmp	 DWORD PTR __imp_??1?$CStringT@DV?$StrTraitMFC_DLL@DV?$ChTraitsCRT@D@ATL@@@@@ATL@@QAE@XZ
__unwindfunclet$?SetPacketName@CSetting_PriceMA@@IAEXH@Z$6:
  00035	8d 4d e0	 lea	 ecx, DWORD PTR $T9[ebp]
  00038	ff 25 00 00 00
	00		 jmp	 DWORD PTR __imp_??1?$CStringT@DV?$StrTraitMFC_DLL@DV?$ChTraitsCRT@D@ATL@@@@@ATL@@QAE@XZ
__unwindfunclet$?SetPacketName@CSetting_PriceMA@@IAEXH@Z$21:
  0003e	8b 45 f0	 mov	 eax, DWORD PTR $T20[ebp]
  00041	83 e0 01	 and	 eax, 1
  00044	0f 84 0d 00 00
	00		 je	 $LN51@SetPacketN
  0004a	83 65 f0 fe	 and	 DWORD PTR $T20[ebp], -2	; fffffffeH
  0004e	8d 4d e8	 lea	 ecx, DWORD PTR $T16[ebp]
  00051	ff 25 00 00 00
	00		 jmp	 DWORD PTR __imp_??1?$CStringT@DV?$StrTraitMFC_DLL@DV?$ChTraitsCRT@D@ATL@@@@@ATL@@QAE@XZ
$LN51@SetPacketN:
  00057	c3		 ret	 0
__unwindfunclet$?SetPacketName@CSetting_PriceMA@@IAEXH@Z$8:
  00058	8d 4d e4	 lea	 ecx, DWORD PTR $T12[ebp]
  0005b	ff 25 00 00 00
	00		 jmp	 DWORD PTR __imp_??1?$CStringT@DV?$StrTraitMFC_DLL@DV?$ChTraitsCRT@D@ATL@@@@@ATL@@QAE@XZ
__unwindfunclet$?SetPacketName@CSetting_PriceMA@@IAEXH@Z$22:
  00061	8b 45 f0	 mov	 eax, DWORD PTR $T20[ebp]
  00064	83 e0 02	 and	 eax, 2
  00067	0f 84 0d 00 00
	00		 je	 $LN64@SetPacketN
  0006d	83 65 f0 fd	 and	 DWORD PTR $T20[ebp], -3	; fffffffdH
  00071	8d 4d ec	 lea	 ecx, DWORD PTR $T19[ebp]
  00074	ff 25 00 00 00
	00		 jmp	 DWORD PTR __imp_??1?$CStringT@DV?$StrTraitMFC_DLL@DV?$ChTraitsCRT@D@ATL@@@@@ATL@@QAE@XZ
$LN64@SetPacketN:
  0007a	c3		 ret	 0
__unwindfunclet$?SetPacketName@CSetting_PriceMA@@IAEXH@Z$10:
  0007b	8d 4d d4	 lea	 ecx, DWORD PTR $T3[ebp]
  0007e	ff 25 00 00 00
	00		 jmp	 DWORD PTR __imp_??1?$CStringT@DV?$StrTraitMFC_DLL@DV?$ChTraitsCRT@D@ATL@@@@@ATL@@QAE@XZ
__unwindfunclet$?SetPacketName@CSetting_PriceMA@@IAEXH@Z$11:
  00084	8d 4d d8	 lea	 ecx, DWORD PTR $T5[ebp]
  00087	ff 25 00 00 00
	00		 jmp	 DWORD PTR __imp_??1?$CStringT@DV?$StrTraitMFC_DLL@DV?$ChTraitsCRT@D@ATL@@@@@ATL@@QAE@XZ
__unwindfunclet$?SetPacketName@CSetting_PriceMA@@IAEXH@Z$23:
  0008d	8b 45 f0	 mov	 eax, DWORD PTR $T20[ebp]
  00090	83 e0 04	 and	 eax, 4
  00093	0f 84 0d 00 00
	00		 je	 $LN83@SetPacketN
  00099	83 65 f0 fb	 and	 DWORD PTR $T20[ebp], -5	; fffffffbH
  0009d	8d 4d e4	 lea	 ecx, DWORD PTR $T11[ebp]
  000a0	ff 25 00 00 00
	00		 jmp	 DWORD PTR __imp_??1?$CStringT@DV?$StrTraitMFC_DLL@DV?$ChTraitsCRT@D@ATL@@@@@ATL@@QAE@XZ
$LN83@SetPacketN:
  000a6	c3		 ret	 0
__unwindfunclet$?SetPacketName@CSetting_PriceMA@@IAEXH@Z$13:
  000a7	8d 4d e0	 lea	 ecx, DWORD PTR $T8[ebp]
  000aa	ff 25 00 00 00
	00		 jmp	 DWORD PTR __imp_??1?$CStringT@DV?$StrTraitMFC_DLL@DV?$ChTraitsCRT@D@ATL@@@@@ATL@@QAE@XZ
__unwindfunclet$?SetPacketName@CSetting_PriceMA@@IAEXH@Z$24:
  000b0	8b 45 f0	 mov	 eax, DWORD PTR $T20[ebp]
  000b3	83 e0 08	 and	 eax, 8
  000b6	0f 84 0d 00 00
	00		 je	 $LN96@SetPacketN
  000bc	83 65 f0 f7	 and	 DWORD PTR $T20[ebp], -9	; fffffff7H
  000c0	8d 4d ec	 lea	 ecx, DWORD PTR $T18[ebp]
  000c3	ff 25 00 00 00
	00		 jmp	 DWORD PTR __imp_??1?$CStringT@DV?$StrTraitMFC_DLL@DV?$ChTraitsCRT@D@ATL@@@@@ATL@@QAE@XZ
$LN96@SetPacketN:
  000c9	c3		 ret	 0
__unwindfunclet$?SetPacketName@CSetting_PriceMA@@IAEXH@Z$15:
  000ca	8d 4d dc	 lea	 ecx, DWORD PTR $T6[ebp]
  000cd	ff 25 00 00 00
	00		 jmp	 DWORD PTR __imp_??1?$CStringT@DV?$StrTraitMFC_DLL@DV?$ChTraitsCRT@D@ATL@@@@@ATL@@QAE@XZ
__unwindfunclet$?SetPacketName@CSetting_PriceMA@@IAEXH@Z$25:
  000d3	8b 45 f0	 mov	 eax, DWORD PTR $T20[ebp]
  000d6	83 e0 10	 and	 eax, 16			; 00000010H
  000d9	0f 84 0d 00 00
	00		 je	 $LN109@SetPacketN
  000df	83 65 f0 ef	 and	 DWORD PTR $T20[ebp], -17 ; ffffffefH
  000e3	8d 4d e8	 lea	 ecx, DWORD PTR $T15[ebp]
  000e6	ff 25 00 00 00
	00		 jmp	 DWORD PTR __imp_??1?$CStringT@DV?$StrTraitMFC_DLL@DV?$ChTraitsCRT@D@ATL@@@@@ATL@@QAE@XZ
$LN109@SetPacketN:
  000ec	c3		 ret	 0
__unwindfunclet$?SetPacketName@CSetting_PriceMA@@IAEXH@Z$17:
  000ed	8b 4d d8	 mov	 ecx, DWORD PTR $T4[ebp]
  000f0	ff 25 00 00 00
	00		 jmp	 DWORD PTR __imp_??1?$CStringT@DV?$StrTraitMFC_DLL@DV?$ChTraitsCRT@D@ATL@@@@@ATL@@QAE@XZ
__unwindfunclet$?SetPacketName@CSetting_PriceMA@@IAEXH@Z$19:
  000f6	8d 4d d4	 lea	 ecx, DWORD PTR $T2[ebp]
  000f9	ff 25 00 00 00
	00		 jmp	 DWORD PTR __imp_??1?$CStringT@DV?$StrTraitMFC_DLL@DV?$ChTraitsCRT@D@ATL@@@@@ATL@@QAE@XZ
__unwindfunclet$?SetPacketName@CSetting_PriceMA@@IAEXH@Z$20:
  000ff	8d 4d e4	 lea	 ecx, DWORD PTR _data$10[ebp]
  00102	ff 25 00 00 00
	00		 jmp	 DWORD PTR __imp_??1?$CStringT@DV?$StrTraitMFC_DLL@DV?$ChTraitsCRT@D@ATL@@@@@ATL@@QAE@XZ
  00108	cc		 int	 3
  00109	cc		 int	 3
  0010a	cc		 int	 3
  0010b	cc		 int	 3
  0010c	cc		 int	 3
__ehhandler$?SetPacketName@CSetting_PriceMA@@IAEXH@Z:
  0010d	90		 npad	 1
  0010e	90		 npad	 1
  0010f	8b 54 24 08	 mov	 edx, DWORD PTR [esp+8]
  00113	8d 42 0c	 lea	 eax, DWORD PTR [edx+12]
  00116	8b 4a c8	 mov	 ecx, DWORD PTR [edx-56]
  00119	33 c8		 xor	 ecx, eax
  0011b	e8 00 00 00 00	 call	 @__security_check_cookie@4
  00120	b8 00 00 00 00	 mov	 eax, OFFSET __ehfuncinfo$?SetPacketName@CSetting_PriceMA@@IAEXH@Z
  00125	e9 00 00 00 00	 jmp	 ___CxxFrameHandler3
text$x	ENDS
?SetPacketName@CSetting_PriceMA@@IAEXH@Z ENDP		; CSetting_PriceMA::SetPacketName
; Function compile flags: /Ogtp
; File D:\git\src\IBK\IBK_DRFN\ProjSrc\SrcChartEx\ChartAddIn\ChartEnvSetupDlgAddIn\ChartEnvSetupDlgAddIn\Setting_PriceMA.cpp
; File C:\Program Files (x86)\Microsoft Visual Studio\2019\Community\VC\Tools\MSVC\14.29.30133\atlmfc\include\afxwin2.inl
; File D:\git\src\IBK\IBK_DRFN\ProjSrc\SrcChartEx\ChartAddIn\ChartEnvSetupDlgAddIn\ChartEnvSetupDlgAddIn\Setting_PriceMA.cpp
; File C:\Program Files (x86)\Microsoft Visual Studio\2019\Community\VC\Tools\MSVC\14.29.30133\atlmfc\include\afxwin2.inl
; File D:\git\src\IBK\IBK_DRFN\ProjSrc\SrcChartEx\ChartAddIn\ChartEnvSetupDlgAddIn\ChartEnvSetupDlgAddIn\Setting_PriceMA.cpp
;	COMDAT ?SetCalMethod@CSetting_PriceMA@@IAEXH@Z
_TEXT	SEGMENT
_dCondition$ = -8					; size = 8
_nSubGraphIndex$ = 8					; size = 4
?SetCalMethod@CSetting_PriceMA@@IAEXH@Z PROC		; CSetting_PriceMA::SetCalMethod, COMDAT
; _this$ = ecx

; 673  : {

  00000	55		 push	 ebp
  00001	8b ec		 mov	 ebp, esp
  00003	83 ec 08	 sub	 esp, 8
  00006	56		 push	 esi
  00007	8b f1		 mov	 esi, ecx

; 674  : 	if(m_pIGraphInfo == NULL || !m_pDlgMACondition) return;

  00009	8b 8e c4 00 00
	00		 mov	 ecx, DWORD PTR [esi+196]
  0000f	85 c9		 test	 ecx, ecx
  00011	74 60		 je	 SHORT $LN3@SetCalMeth
  00013	83 be 48 04 00
	00 00		 cmp	 DWORD PTR [esi+1096], 0
  0001a	74 57		 je	 SHORT $LN3@SetCalMeth

; 675  : 
; 676  : 	IDoubleList *pIDataList = m_pIGraphInfo->GetCalculateConditionList( nSubGraphIndex);

  0001c	8b 01		 mov	 eax, DWORD PTR [ecx]
  0001e	57		 push	 edi
  0001f	ff 75 08	 push	 DWORD PTR _nSubGraphIndex$[ebp]
  00022	ff 50 18	 call	 DWORD PTR [eax+24]
  00025	8b f8		 mov	 edi, eax

; 677  : 	if( !pIDataList) return;

  00027	85 ff		 test	 edi, edi
  00029	74 47		 je	 SHORT $LN9@SetCalMeth

; 678  : 
; 679  : 	double dCondition = -1;

  0002b	f2 0f 10 05 00
	00 00 00	 movsd	 xmm0, QWORD PTR __real@bff0000000000000

; 680  : 	pIDataList->GetTail( dCondition);

  00033	8d 45 f8	 lea	 eax, DWORD PTR _dCondition$[ebp]
  00036	f2 0f 11 45 f8	 movsd	 QWORD PTR _dCondition$[ebp], xmm0
  0003b	8b cf		 mov	 ecx, edi
  0003d	8b 17		 mov	 edx, DWORD PTR [edi]
  0003f	50		 push	 eax
  00040	ff 52 1c	 call	 DWORD PTR [edx+28]

; 681  : 	pIDataList->Release();

  00043	8b 07		 mov	 eax, DWORD PTR [edi]
  00045	57		 push	 edi
  00046	ff 50 08	 call	 DWORD PTR [eax+8]

; 682  : 
; 683  : 	//  GetTail() . GetHead() .
; 684  : 	CComboBox *pCalcMethodCombo = m_pDlgMACondition->GetCalcMethodCombo( nSubGraphIndex);

  00049	ff 75 08	 push	 DWORD PTR _nSubGraphIndex$[ebp]
  0004c	8b 8e 48 04 00
	00		 mov	 ecx, DWORD PTR [esi+1096]
  00052	e8 00 00 00 00	 call	 ?GetCalcMethodCombo@CSetting_PriceMA_Condition@@QAEPAVCComboBox@@H@Z ; CSetting_PriceMA_Condition::GetCalcMethodCombo

; 685  : 	if( pCalcMethodCombo) pCalcMethodCombo->SetCurSel( ( int)dCondition - 1);

  00057	85 c0		 test	 eax, eax
  00059	74 17		 je	 SHORT $LN9@SetCalMeth
  0005b	f2 0f 2c 4d f8	 cvttsd2si ecx, QWORD PTR _dCondition$[ebp]
; File C:\Program Files (x86)\Microsoft Visual Studio\2019\Community\VC\Tools\MSVC\14.29.30133\atlmfc\include\afxwin2.inl

; 767  : 	{ ASSERT(::IsWindow(m_hWnd)); return (int)::SendMessage(m_hWnd, CB_SETCURSEL, nSelect, 0); }

  00060	6a 00		 push	 0
; File D:\git\src\IBK\IBK_DRFN\ProjSrc\SrcChartEx\ChartAddIn\ChartEnvSetupDlgAddIn\ChartEnvSetupDlgAddIn\Setting_PriceMA.cpp

; 685  : 	if( pCalcMethodCombo) pCalcMethodCombo->SetCurSel( ( int)dCondition - 1);

  00062	49		 dec	 ecx
; File C:\Program Files (x86)\Microsoft Visual Studio\2019\Community\VC\Tools\MSVC\14.29.30133\atlmfc\include\afxwin2.inl

; 767  : 	{ ASSERT(::IsWindow(m_hWnd)); return (int)::SendMessage(m_hWnd, CB_SETCURSEL, nSelect, 0); }

  00063	51		 push	 ecx
  00064	68 4e 01 00 00	 push	 334			; 0000014eH
  00069	ff 70 20	 push	 DWORD PTR [eax+32]
  0006c	ff 15 00 00 00
	00		 call	 DWORD PTR __imp__SendMessageA@16
$LN9@SetCalMeth:
  00072	5f		 pop	 edi
$LN3@SetCalMeth:
  00073	5e		 pop	 esi
; File D:\git\src\IBK\IBK_DRFN\ProjSrc\SrcChartEx\ChartAddIn\ChartEnvSetupDlgAddIn\ChartEnvSetupDlgAddIn\Setting_PriceMA.cpp

; 686  : }

  00074	8b e5		 mov	 esp, ebp
  00076	5d		 pop	 ebp
  00077	c2 04 00	 ret	 4
?SetCalMethod@CSetting_PriceMA@@IAEXH@Z ENDP		; CSetting_PriceMA::SetCalMethod
_TEXT	ENDS
; Function compile flags: /Ogtp
; File D:\git\src\IBK\IBK_DRFN\ProjSrc\SrcChartEx\ChartAddIn\ChartEnvSetupDlgAddIn\ChartEnvSetupDlgAddIn\Setting_PriceMA.cpp
;	COMDAT ?SetConditionValue@CSetting_PriceMA@@IAEXHH@Z
_TEXT	SEGMENT
_nSubGraphIndex$ = 8					; size = 4
_nConditionValue$ = 12					; size = 4
?SetConditionValue@CSetting_PriceMA@@IAEXHH@Z PROC	; CSetting_PriceMA::SetConditionValue, COMDAT
; _this$ = ecx

; 509  : {

  00000	55		 push	 ebp
  00001	8b ec		 mov	 ebp, esp
  00003	56		 push	 esi
  00004	57		 push	 edi
  00005	8b f9		 mov	 edi, ecx

; 525  : 	if( !m_pDlgMACondition) return NULL;

  00007	8b 8f 48 04 00
	00		 mov	 ecx, DWORD PTR [edi+1096]
  0000d	85 c9		 test	 ecx, ecx
  0000f	75 06		 jne	 SHORT $LN5@SetConditi
  00011	33 f6		 xor	 esi, esi

; 532  : 	if( !m_pDlgMACondition) return NULL;

  00013	33 c0		 xor	 eax, eax
  00015	eb 20		 jmp	 SHORT $LN7@SetConditi
$LN5@SetConditi:

; 526  : 	return m_pDlgMACondition->GetSpinCtrl( nSubGraphIndex);

  00017	ff 75 08	 push	 DWORD PTR _nSubGraphIndex$[ebp]
  0001a	e8 00 00 00 00	 call	 ?GetSpinCtrl@CSetting_PriceMA_Condition@@QAEPAVCNumSpinCtrl@@H@Z ; CSetting_PriceMA_Condition::GetSpinCtrl
  0001f	8b 8f 48 04 00
	00		 mov	 ecx, DWORD PTR [edi+1096]
  00025	8b f0		 mov	 esi, eax

; 532  : 	if( !m_pDlgMACondition) return NULL;

  00027	85 c9		 test	 ecx, ecx
  00029	75 04		 jne	 SHORT $LN8@SetConditi
  0002b	33 c0		 xor	 eax, eax
  0002d	eb 08		 jmp	 SHORT $LN7@SetConditi
$LN8@SetConditi:

; 533  : 	return m_pDlgMACondition->GetEditCtrl( nSubGraphIndex);

  0002f	ff 75 08	 push	 DWORD PTR _nSubGraphIndex$[ebp]
  00032	e8 00 00 00 00	 call	 ?GetEditCtrl@CSetting_PriceMA_Condition@@QAEPAVCNumEdit@@H@Z ; CSetting_PriceMA_Condition::GetEditCtrl
$LN7@SetConditi:

; 510  : 	//  .
; 511  : 	CNumSpinCtrl *pNumSpinCtrl = GetSpinCtrl( nSubGraphIndex);
; 512  : 	CNumEdit *pNumEdit = GetEditCtrl( nSubGraphIndex);
; 513  : 	if( pNumSpinCtrl && pNumEdit) Initial_Spin( *pNumSpinCtrl, *pNumEdit, nConditionValue);

  00037	85 f6		 test	 esi, esi
  00039	74 1e		 je	 SHORT $LN2@SetConditi
  0003b	85 c0		 test	 eax, eax
  0003d	74 1a		 je	 SHORT $LN2@SetConditi
  0003f	66 0f 6e 45 0c	 movd	 xmm0, DWORD PTR _nConditionValue$[ebp]
  00044	83 ec 08	 sub	 esp, 8
  00047	f3 0f e6 c0	 cvtdq2pd xmm0, xmm0
  0004b	8b cf		 mov	 ecx, edi
  0004d	f2 0f 11 04 24	 movsd	 QWORD PTR [esp], xmm0
  00052	50		 push	 eax
  00053	56		 push	 esi
  00054	e8 00 00 00 00	 call	 ?Initial_Spin@CBaseDialog@@IAEXAAVCNumSpinCtrl@@AAVCNumEdit@@N@Z ; CBaseDialog::Initial_Spin
$LN2@SetConditi:

; 514  : }

  00059	5f		 pop	 edi
  0005a	5e		 pop	 esi
  0005b	5d		 pop	 ebp
  0005c	c2 08 00	 ret	 8
?SetConditionValue@CSetting_PriceMA@@IAEXHH@Z ENDP	; CSetting_PriceMA::SetConditionValue
_TEXT	ENDS
; Function compile flags: /Ogtp
; File D:\git\src\IBK\IBK_DRFN\ProjSrc\SrcChartEx\ChartAddIn\ChartEnvSetupDlgAddIn\ChartEnvSetupDlgAddIn\Setting_PriceMA.cpp
; File C:\Program Files (x86)\Microsoft Visual Studio\2019\Community\VC\Tools\MSVC\14.29.30133\atlmfc\include\afxwin2.inl
; File D:\git\src\IBK\IBK_DRFN\ProjSrc\SrcChartEx\ChartAddIn\ChartEnvSetupDlgAddIn\ChartEnvSetupDlgAddIn\Setting_PriceMA.cpp
;	COMDAT ?SetShowHide@CSetting_PriceMA@@IAEXHH@Z
_TEXT	SEGMENT
_nSubGraphIndex$ = 8					; size = 4
_nCheck$ = 12						; size = 4
?SetShowHide@CSetting_PriceMA@@IAEXHH@Z PROC		; CSetting_PriceMA::SetShowHide, COMDAT
; _this$ = ecx

; 538  : {

  00000	55		 push	 ebp
  00001	8b ec		 mov	 ebp, esp

; 539  : 	if( !m_pDlgMACondition) return;

  00003	8b 89 48 04 00
	00		 mov	 ecx, DWORD PTR [ecx+1096]
  00009	85 c9		 test	 ecx, ecx
  0000b	74 1f		 je	 SHORT $LN3@SetShowHid

; 540  : 	CButton *pButton = m_pDlgMACondition->GetCheckButton( nSubGraphIndex);

  0000d	ff 75 08	 push	 DWORD PTR _nSubGraphIndex$[ebp]
  00010	e8 00 00 00 00	 call	 ?GetCheckButton@CSetting_PriceMA_Condition@@QAEPAVCButton@@H@Z ; CSetting_PriceMA_Condition::GetCheckButton

; 541  : 	if( pButton) pButton->SetCheck( nCheck);

  00015	85 c0		 test	 eax, eax
  00017	74 13		 je	 SHORT $LN3@SetShowHid
; File C:\Program Files (x86)\Microsoft Visual Studio\2019\Community\VC\Tools\MSVC\14.29.30133\atlmfc\include\afxwin2.inl

; 630  : 	{ ASSERT(::IsWindow(m_hWnd)); ::SendMessage(m_hWnd, BM_SETCHECK, nCheck, 0); }

  00019	6a 00		 push	 0
  0001b	ff 75 0c	 push	 DWORD PTR _nCheck$[ebp]
  0001e	68 f1 00 00 00	 push	 241			; 000000f1H
  00023	ff 70 20	 push	 DWORD PTR [eax+32]
  00026	ff 15 00 00 00
	00		 call	 DWORD PTR __imp__SendMessageA@16
$LN3@SetShowHid:
; File D:\git\src\IBK\IBK_DRFN\ProjSrc\SrcChartEx\ChartAddIn\ChartEnvSetupDlgAddIn\ChartEnvSetupDlgAddIn\Setting_PriceMA.cpp

; 542  : }

  0002c	5d		 pop	 ebp
  0002d	c2 08 00	 ret	 8
?SetShowHide@CSetting_PriceMA@@IAEXHH@Z ENDP		; CSetting_PriceMA::SetShowHide
_TEXT	ENDS
; Function compile flags: /Ogtp
; File D:\git\src\IBK\IBK_DRFN\ProjSrc\SrcChartEx\ChartAddIn\ChartEnvSetupDlgAddIn\ChartEnvSetupDlgAddIn\Setting_PriceMA.cpp
;	COMDAT ?GetThicknessCombo@CSetting_PriceMA@@IAEPAVCBitmapItemComboBox@@H@Z
_TEXT	SEGMENT
_nSubGraphIndex$ = 8					; size = 4
?GetThicknessCombo@CSetting_PriceMA@@IAEPAVCBitmapItemComboBox@@H@Z PROC ; CSetting_PriceMA::GetThicknessCombo, COMDAT
; _this$ = ecx

; 600  : {

  00000	55		 push	 ebp
  00001	8b ec		 mov	 ebp, esp

; 601  : 	if( !m_pDlgMACondition) return NULL;

  00003	8b 89 48 04 00
	00		 mov	 ecx, DWORD PTR [ecx+1096]
  00009	85 c9		 test	 ecx, ecx
  0000b	75 06		 jne	 SHORT $LN2@GetThickne
  0000d	33 c0		 xor	 eax, eax

; 603  : }

  0000f	5d		 pop	 ebp
  00010	c2 04 00	 ret	 4
$LN2@GetThickne:
  00013	5d		 pop	 ebp

; 602  : 	return m_pDlgMACondition->GetThicknessCombo( nSubGraphIndex );

  00014	e9 00 00 00 00	 jmp	 ?GetThicknessCombo@CSetting_PriceMA_Condition@@QAEPAVCBitmapItemComboBox@@H@Z ; CSetting_PriceMA_Condition::GetThicknessCombo
?GetThicknessCombo@CSetting_PriceMA@@IAEPAVCBitmapItemComboBox@@H@Z ENDP ; CSetting_PriceMA::GetThicknessCombo
_TEXT	ENDS
; Function compile flags: /Ogtp
; File D:\git\src\IBK\IBK_DRFN\ProjSrc\SrcChartEx\ChartAddIn\ChartEnvSetupDlgAddIn\ChartEnvSetupDlgAddIn\Setting_PriceMA.cpp
;	COMDAT ?GetDrawStyleCombo@CSetting_PriceMA@@IAEPAVCBitmapItemComboBox@@H@Z
_TEXT	SEGMENT
_nSubGraphIndex$ = 8					; size = 4
?GetDrawStyleCombo@CSetting_PriceMA@@IAEPAVCBitmapItemComboBox@@H@Z PROC ; CSetting_PriceMA::GetDrawStyleCombo, COMDAT
; _this$ = ecx

; 593  : {

  00000	55		 push	 ebp
  00001	8b ec		 mov	 ebp, esp

; 594  : 	if( !m_pDlgMACondition) return NULL;

  00003	8b 89 48 04 00
	00		 mov	 ecx, DWORD PTR [ecx+1096]
  00009	85 c9		 test	 ecx, ecx
  0000b	75 06		 jne	 SHORT $LN2@GetDrawSty
  0000d	33 c0		 xor	 eax, eax

; 596  : }

  0000f	5d		 pop	 ebp
  00010	c2 04 00	 ret	 4
$LN2@GetDrawSty:
  00013	5d		 pop	 ebp

; 595  : 	return m_pDlgMACondition->GetDrawStyleCombo(nSubGraphIndex);

  00014	e9 00 00 00 00	 jmp	 ?GetDrawStyleCombo@CSetting_PriceMA_Condition@@QAEPAVCBitmapItemComboBox@@H@Z ; CSetting_PriceMA_Condition::GetDrawStyleCombo
?GetDrawStyleCombo@CSetting_PriceMA@@IAEPAVCBitmapItemComboBox@@H@Z ENDP ; CSetting_PriceMA::GetDrawStyleCombo
_TEXT	ENDS
; Function compile flags: /Ogtp
; File D:\git\src\IBK\IBK_DRFN\ProjSrc\SrcChartEx\ChartAddIn\ChartEnvSetupDlgAddIn\ChartEnvSetupDlgAddIn\Setting_PriceMA.cpp
;	COMDAT ?GetColorButton@CSetting_PriceMA@@IAEPAVCColorButton@@H@Z
_TEXT	SEGMENT
_nSubGraphIndex$ = 8					; size = 4
?GetColorButton@CSetting_PriceMA@@IAEPAVCColorButton@@H@Z PROC ; CSetting_PriceMA::GetColorButton, COMDAT
; _this$ = ecx

; 742  : {

  00000	55		 push	 ebp
  00001	8b ec		 mov	 ebp, esp

; 743  : 	if( !m_pDlgMACondition) return NULL;

  00003	8b 89 48 04 00
	00		 mov	 ecx, DWORD PTR [ecx+1096]
  00009	85 c9		 test	 ecx, ecx
  0000b	75 06		 jne	 SHORT $LN2@GetColorBu
  0000d	33 c0		 xor	 eax, eax

; 745  : }

  0000f	5d		 pop	 ebp
  00010	c2 04 00	 ret	 4
$LN2@GetColorBu:
  00013	5d		 pop	 ebp

; 744  : 	return m_pDlgMACondition->GetColorButton( nSubGraphIndex );

  00014	e9 00 00 00 00	 jmp	 ?GetColorButton@CSetting_PriceMA_Condition@@QAEPAVCColorButton@@H@Z ; CSetting_PriceMA_Condition::GetColorButton
?GetColorButton@CSetting_PriceMA@@IAEPAVCColorButton@@H@Z ENDP ; CSetting_PriceMA::GetColorButton
_TEXT	ENDS
; Function compile flags: /Ogtp
; File D:\git\src\IBK\IBK_DRFN\ProjSrc\SrcChartEx\ChartAddIn\ChartEnvSetupDlgAddIn\ChartEnvSetupDlgAddIn\Setting_PriceMA.cpp
;	COMDAT ?GetPacketCombo@CSetting_PriceMA@@IAEPAVCComboBox@@H@Z
_TEXT	SEGMENT
_nSubGraphIndex$ = 8					; size = 4
?GetPacketCombo@CSetting_PriceMA@@IAEPAVCComboBox@@H@Z PROC ; CSetting_PriceMA::GetPacketCombo, COMDAT
; _this$ = ecx

; 854  : {

  00000	55		 push	 ebp
  00001	8b ec		 mov	 ebp, esp

; 855  : 	if( !m_pDlgMACondition) return NULL;

  00003	8b 89 48 04 00
	00		 mov	 ecx, DWORD PTR [ecx+1096]
  00009	85 c9		 test	 ecx, ecx
  0000b	75 06		 jne	 SHORT $LN2@GetPacketC
  0000d	33 c0		 xor	 eax, eax

; 857  : }

  0000f	5d		 pop	 ebp
  00010	c2 04 00	 ret	 4
$LN2@GetPacketC:
  00013	5d		 pop	 ebp

; 856  : 	return m_pDlgMACondition->GetPacketCombo( nSubGraphIndex );

  00014	e9 00 00 00 00	 jmp	 ?GetPacketCombo@CSetting_PriceMA_Condition@@QAEPAVCComboBox@@H@Z ; CSetting_PriceMA_Condition::GetPacketCombo
?GetPacketCombo@CSetting_PriceMA@@IAEPAVCComboBox@@H@Z ENDP ; CSetting_PriceMA::GetPacketCombo
_TEXT	ENDS
; Function compile flags: /Ogtp
; File D:\git\src\IBK\IBK_DRFN\ProjSrc\SrcChartEx\ChartAddIn\ChartEnvSetupDlgAddIn\ChartEnvSetupDlgAddIn\Setting_PriceMA.cpp
;	COMDAT ?GetCalcMethodCombo@CSetting_PriceMA@@IAEPAVCComboBox@@H@Z
_TEXT	SEGMENT
_nSubGraphIndex$ = 8					; size = 4
?GetCalcMethodCombo@CSetting_PriceMA@@IAEPAVCComboBox@@H@Z PROC ; CSetting_PriceMA::GetCalcMethodCombo, COMDAT
; _this$ = ecx

; 847  : {

  00000	55		 push	 ebp
  00001	8b ec		 mov	 ebp, esp

; 848  : 	if( !m_pDlgMACondition) return NULL;

  00003	8b 89 48 04 00
	00		 mov	 ecx, DWORD PTR [ecx+1096]
  00009	85 c9		 test	 ecx, ecx
  0000b	75 06		 jne	 SHORT $LN2@GetCalcMet
  0000d	33 c0		 xor	 eax, eax

; 850  : }

  0000f	5d		 pop	 ebp
  00010	c2 04 00	 ret	 4
$LN2@GetCalcMet:
  00013	5d		 pop	 ebp

; 849  : 	return m_pDlgMACondition->GetCalcMethodCombo( nSubGraphIndex );

  00014	e9 00 00 00 00	 jmp	 ?GetCalcMethodCombo@CSetting_PriceMA_Condition@@QAEPAVCComboBox@@H@Z ; CSetting_PriceMA_Condition::GetCalcMethodCombo
?GetCalcMethodCombo@CSetting_PriceMA@@IAEPAVCComboBox@@H@Z ENDP ; CSetting_PriceMA::GetCalcMethodCombo
_TEXT	ENDS
; Function compile flags: /Ogtp
; File D:\git\src\IBK\IBK_DRFN\ProjSrc\SrcChartEx\ChartAddIn\ChartEnvSetupDlgAddIn\ChartEnvSetupDlgAddIn\Setting_PriceMA.cpp
;	COMDAT ?GetSpinCtrl@CSetting_PriceMA@@IAEPAVCNumSpinCtrl@@H@Z
_TEXT	SEGMENT
_nSubGraphIndex$ = 8					; size = 4
?GetSpinCtrl@CSetting_PriceMA@@IAEPAVCNumSpinCtrl@@H@Z PROC ; CSetting_PriceMA::GetSpinCtrl, COMDAT
; _this$ = ecx

; 524  : {

  00000	55		 push	 ebp
  00001	8b ec		 mov	 ebp, esp

; 525  : 	if( !m_pDlgMACondition) return NULL;

  00003	8b 89 48 04 00
	00		 mov	 ecx, DWORD PTR [ecx+1096]
  00009	85 c9		 test	 ecx, ecx
  0000b	75 06		 jne	 SHORT $LN2@GetSpinCtr
  0000d	33 c0		 xor	 eax, eax

; 527  : }

  0000f	5d		 pop	 ebp
  00010	c2 04 00	 ret	 4
$LN2@GetSpinCtr:
  00013	5d		 pop	 ebp

; 526  : 	return m_pDlgMACondition->GetSpinCtrl( nSubGraphIndex);

  00014	e9 00 00 00 00	 jmp	 ?GetSpinCtrl@CSetting_PriceMA_Condition@@QAEPAVCNumSpinCtrl@@H@Z ; CSetting_PriceMA_Condition::GetSpinCtrl
?GetSpinCtrl@CSetting_PriceMA@@IAEPAVCNumSpinCtrl@@H@Z ENDP ; CSetting_PriceMA::GetSpinCtrl
_TEXT	ENDS
; Function compile flags: /Ogtp
; File D:\git\src\IBK\IBK_DRFN\ProjSrc\SrcChartEx\ChartAddIn\ChartEnvSetupDlgAddIn\ChartEnvSetupDlgAddIn\Setting_PriceMA.cpp
;	COMDAT ?GetEditCtrl@CSetting_PriceMA@@IAEPAVCNumEdit@@H@Z
_TEXT	SEGMENT
_nSubGraphIndex$ = 8					; size = 4
?GetEditCtrl@CSetting_PriceMA@@IAEPAVCNumEdit@@H@Z PROC	; CSetting_PriceMA::GetEditCtrl, COMDAT
; _this$ = ecx

; 531  : {

  00000	55		 push	 ebp
  00001	8b ec		 mov	 ebp, esp

; 532  : 	if( !m_pDlgMACondition) return NULL;

  00003	8b 89 48 04 00
	00		 mov	 ecx, DWORD PTR [ecx+1096]
  00009	85 c9		 test	 ecx, ecx
  0000b	75 06		 jne	 SHORT $LN2@GetEditCtr
  0000d	33 c0		 xor	 eax, eax

; 534  : }

  0000f	5d		 pop	 ebp
  00010	c2 04 00	 ret	 4
$LN2@GetEditCtr:
  00013	5d		 pop	 ebp

; 533  : 	return m_pDlgMACondition->GetEditCtrl( nSubGraphIndex);

  00014	e9 00 00 00 00	 jmp	 ?GetEditCtrl@CSetting_PriceMA_Condition@@QAEPAVCNumEdit@@H@Z ; CSetting_PriceMA_Condition::GetEditCtrl
?GetEditCtrl@CSetting_PriceMA@@IAEPAVCNumEdit@@H@Z ENDP	; CSetting_PriceMA::GetEditCtrl
_TEXT	ENDS
; Function compile flags: /Ogtp
; File D:\git\src\IBK\IBK_DRFN\ProjSrc\SrcChartEx\ChartAddIn\ChartEnvSetupDlgAddIn\ChartEnvSetupDlgAddIn\Setting_PriceMA.cpp
;	COMDAT ?GetCheckButton@CSetting_PriceMA@@IAEPAVCButton@@H@Z
_TEXT	SEGMENT
_nSubGraphIndex$ = 8					; size = 4
?GetCheckButton@CSetting_PriceMA@@IAEPAVCButton@@H@Z PROC ; CSetting_PriceMA::GetCheckButton, COMDAT
; _this$ = ecx

; 733  : {

  00000	55		 push	 ebp
  00001	8b ec		 mov	 ebp, esp

; 734  : 	if( m_pDlgMACondition == NULL )

  00003	8b 81 48 04 00
	00		 mov	 eax, DWORD PTR [ecx+1096]
  00009	85 c0		 test	 eax, eax
  0000b	75 0a		 jne	 SHORT $LN2@GetCheckBu

; 735  : 		return &m_btnShowGraphAll;

  0000d	8d 81 08 02 00
	00		 lea	 eax, DWORD PTR [ecx+520]

; 738  : }

  00013	5d		 pop	 ebp
  00014	c2 04 00	 ret	 4
$LN2@GetCheckBu:

; 736  : 
; 737  : 	return m_pDlgMACondition->GetCheckButton(nSubGraphIndex);

  00017	8b c8		 mov	 ecx, eax

; 738  : }

  00019	5d		 pop	 ebp

; 736  : 
; 737  : 	return m_pDlgMACondition->GetCheckButton(nSubGraphIndex);

  0001a	e9 00 00 00 00	 jmp	 ?GetCheckButton@CSetting_PriceMA_Condition@@QAEPAVCButton@@H@Z ; CSetting_PriceMA_Condition::GetCheckButton
?GetCheckButton@CSetting_PriceMA@@IAEPAVCButton@@H@Z ENDP ; CSetting_PriceMA::GetCheckButton
_TEXT	ENDS
; Function compile flags: /Ogtp
; File D:\git\src\IBK\IBK_DRFN\ProjSrc\SrcChartEx\ChartAddIn\ChartEnvSetupDlgAddIn\ChartEnvSetupDlgAddIn\Setting_PriceMA.cpp
; File C:\Program Files (x86)\Microsoft Visual Studio\2019\Community\VC\Tools\MSVC\14.29.30133\atlmfc\include\afxwin2.inl
; File C:\Program Files (x86)\Microsoft Visual Studio\2019\Community\VC\Tools\MSVC\14.29.30133\atlmfc\include\atltypes.h
; File C:\Program Files (x86)\Microsoft Visual Studio\2019\Community\VC\Tools\MSVC\14.29.30133\atlmfc\include\afxwin2.inl
; File D:\git\src\IBK\IBK_DRFN\ProjSrc\SrcChartEx\ChartAddIn\ChartEnvSetupDlgAddIn\ChartEnvSetupDlgAddIn\Setting_PriceMA.cpp
; File C:\Program Files (x86)\Microsoft Visual Studio\2019\Community\VC\Tools\MSVC\14.29.30133\atlmfc\include\atltypes.h
; File C:\Program Files (x86)\Microsoft Visual Studio\2019\Community\VC\Tools\MSVC\14.29.30133\atlmfc\include\afxwin2.inl
; File C:\Program Files (x86)\Microsoft Visual Studio\2019\Community\VC\Tools\MSVC\14.29.30133\atlmfc\include\atltypes.h
; File D:\git\src\IBK\IBK_DRFN\ProjSrc\SrcChartEx\ChartAddIn\ChartEnvSetupDlgAddIn\ChartEnvSetupDlgAddIn\Setting_PriceMA.cpp
; File C:\Program Files (x86)\Microsoft Visual Studio\2019\Community\VC\Tools\MSVC\14.29.30133\atlmfc\include\atltypes.h
; File D:\git\src\IBK\IBK_DRFN\ProjSrc\SrcChartEx\ChartAddIn\ChartEnvSetupDlgAddIn\ChartEnvSetupDlgAddIn\Setting_PriceMA.cpp
;	COMDAT ?SetMAConditionDlgPosition@CSetting_PriceMA@@IAEXXZ
_TEXT	SEGMENT
_rcDlgItem$ = -20					; size = 16
__$ArrayPad$ = -4					; size = 4
?SetMAConditionDlgPosition@CSetting_PriceMA@@IAEXXZ PROC ; CSetting_PriceMA::SetMAConditionDlgPosition, COMDAT
; _this$ = ecx

; 237  : {

  00000	55		 push	 ebp
  00001	8b ec		 mov	 ebp, esp
  00003	83 ec 14	 sub	 esp, 20			; 00000014H
  00006	a1 00 00 00 00	 mov	 eax, DWORD PTR ___security_cookie
  0000b	33 c5		 xor	 eax, ebp
  0000d	89 45 fc	 mov	 DWORD PTR __$ArrayPad$[ebp], eax
  00010	56		 push	 esi
  00011	8b f1		 mov	 esi, ecx

; 238  : 	// 1. PriceMA Condition Dialog    Return.
; 239  : 	if( m_pDlgMACondition == NULL )		return;

  00013	83 be 48 04 00
	00 00		 cmp	 DWORD PTR [esi+1096], 0
  0001a	0f 84 90 00 00
	00		 je	 $LN1@SetMACondi

; 240  : 
; 241  : 	// 2. MovingAverage Condition Dialog  PictureBox pointer .
; 242  : 	CDialog *pDlgItem = (CDialog *)GetDlgItem(IDC_PRICEMA_CONDITION);

  00020	57		 push	 edi
  00021	68 4c 1f 00 00	 push	 8012			; 00001f4cH
  00026	e8 00 00 00 00	 call	 ?GetDlgItem@CWnd@@QBEPAV1@H@Z ; CWnd::GetDlgItem
  0002b	8b f8		 mov	 edi, eax

; 243  : 	if( pDlgItem == NULL )		return;

  0002d	85 ff		 test	 edi, edi
  0002f	74 7e		 je	 SHORT $LN17@SetMACondi
; File C:\Program Files (x86)\Microsoft Visual Studio\2019\Community\VC\Tools\MSVC\14.29.30133\atlmfc\include\afxwin2.inl

; 84   : 	{ ASSERT(::IsWindow(m_hWnd)); ::GetWindowRect(m_hWnd, lpRect); }

  00031	8d 45 ec	 lea	 eax, DWORD PTR _rcDlgItem$[ebp]
  00034	0f 57 c0	 xorps	 xmm0, xmm0
  00037	50		 push	 eax
; File C:\Program Files (x86)\Microsoft Visual Studio\2019\Community\VC\Tools\MSVC\14.29.30133\atlmfc\include\atltypes.h

; 528  : 	left = 0;

  00038	0f 11 45 ec	 movups	 XMMWORD PTR _rcDlgItem$[ebp], xmm0
; File C:\Program Files (x86)\Microsoft Visual Studio\2019\Community\VC\Tools\MSVC\14.29.30133\atlmfc\include\afxwin2.inl

; 84   : 	{ ASSERT(::IsWindow(m_hWnd)); ::GetWindowRect(m_hWnd, lpRect); }

  0003c	ff 77 20	 push	 DWORD PTR [edi+32]
  0003f	ff 15 00 00 00
	00		 call	 DWORD PTR __imp__GetWindowRect@8
; File D:\git\src\IBK\IBK_DRFN\ProjSrc\SrcChartEx\ChartAddIn\ChartEnvSetupDlgAddIn\ChartEnvSetupDlgAddIn\Setting_PriceMA.cpp

; 248  : 	ScreenToClient(rcDlgItem);

  00045	8d 45 ec	 lea	 eax, DWORD PTR _rcDlgItem$[ebp]
  00048	8b ce		 mov	 ecx, esi
  0004a	50		 push	 eax
  0004b	e8 00 00 00 00	 call	 ?ScreenToClient@CWnd@@QBEXPAUtagRECT@@@Z ; CWnd::ScreenToClient

; 249  : 
; 250  : 	// 4. PictureBox .
; 251  : 	pDlgItem->ShowWindow(SW_SHOW);

  00050	6a 05		 push	 5
  00052	8b cf		 mov	 ecx, edi
  00054	e8 00 00 00 00	 call	 ?ShowWindow@CWnd@@QAEHH@Z ; CWnd::ShowWindow
; File C:\Program Files (x86)\Microsoft Visual Studio\2019\Community\VC\Tools\MSVC\14.29.30133\atlmfc\include\atltypes.h

; 698  : 	::InflateRect(this, -x, -y);

  00059	6a ff		 push	 -1
  0005b	6a ff		 push	 -1
  0005d	8d 45 ec	 lea	 eax, DWORD PTR _rcDlgItem$[ebp]
  00060	50		 push	 eax
  00061	ff 15 00 00 00
	00		 call	 DWORD PTR __imp__InflateRect@12
; File C:\Program Files (x86)\Microsoft Visual Studio\2019\Community\VC\Tools\MSVC\14.29.30133\atlmfc\include\afxwin2.inl

; 73   : 	{ MoveWindow(lpRect->left, lpRect->top, lpRect->right - lpRect->left,

  00067	8b 45 f8	 mov	 eax, DWORD PTR _rcDlgItem$[ebp+12]
  0006a	8b 55 f0	 mov	 edx, DWORD PTR _rcDlgItem$[ebp+4]
  0006d	2b c2		 sub	 eax, edx
  0006f	8b 4d ec	 mov	 ecx, DWORD PTR _rcDlgItem$[ebp]
  00072	6a 01		 push	 1
  00074	50		 push	 eax
  00075	8b 45 f4	 mov	 eax, DWORD PTR _rcDlgItem$[ebp+8]
  00078	2b c1		 sub	 eax, ecx
  0007a	50		 push	 eax
  0007b	52		 push	 edx
  0007c	51		 push	 ecx
  0007d	8b 8e 48 04 00
	00		 mov	 ecx, DWORD PTR [esi+1096]
  00083	e8 00 00 00 00	 call	 ?MoveWindow@CWnd@@QAEXHHHHH@Z ; CWnd::MoveWindow
; File C:\Program Files (x86)\Microsoft Visual Studio\2019\Community\VC\Tools\MSVC\14.29.30133\atlmfc\include\atltypes.h

; 581  : 	return bottom - top;

  00088	8b 45 f8	 mov	 eax, DWORD PTR _rcDlgItem$[ebp+12]
  0008b	8b 55 f0	 mov	 edx, DWORD PTR _rcDlgItem$[ebp+4]
  0008e	2b c2		 sub	 eax, edx

; 576  : 	return right - left;

  00090	8b 4d ec	 mov	 ecx, DWORD PTR _rcDlgItem$[ebp]
; File D:\git\src\IBK\IBK_DRFN\ProjSrc\SrcChartEx\ChartAddIn\ChartEnvSetupDlgAddIn\ChartEnvSetupDlgAddIn\Setting_PriceMA.cpp

; 258  : 	m_pDlgMACondition->SetWindowPos( &wndTop, rcDlgItem.left, rcDlgItem.top,

  00093	6a 40		 push	 64			; 00000040H
  00095	50		 push	 eax
; File C:\Program Files (x86)\Microsoft Visual Studio\2019\Community\VC\Tools\MSVC\14.29.30133\atlmfc\include\atltypes.h

; 576  : 	return right - left;

  00096	8b 45 f4	 mov	 eax, DWORD PTR _rcDlgItem$[ebp+8]
  00099	2b c1		 sub	 eax, ecx
; File D:\git\src\IBK\IBK_DRFN\ProjSrc\SrcChartEx\ChartAddIn\ChartEnvSetupDlgAddIn\ChartEnvSetupDlgAddIn\Setting_PriceMA.cpp

; 258  : 	m_pDlgMACondition->SetWindowPos( &wndTop, rcDlgItem.left, rcDlgItem.top,

  0009b	50		 push	 eax
  0009c	52		 push	 edx
  0009d	51		 push	 ecx
  0009e	ff 35 00 00 00
	00		 push	 DWORD PTR __imp_?wndTop@CWnd@@2V1@B
  000a4	8b 8e 48 04 00
	00		 mov	 ecx, DWORD PTR [esi+1096]
  000aa	e8 00 00 00 00	 call	 ?SetWindowPos@CWnd@@QAEHPBV1@HHHHI@Z ; CWnd::SetWindowPos
$LN17@SetMACondi:
  000af	5f		 pop	 edi
$LN1@SetMACondi:

; 259  : 		rcDlgItem.Width(), rcDlgItem.Height(), SWP_SHOWWINDOW );
; 260  : 	
; 261  : }

  000b0	8b 4d fc	 mov	 ecx, DWORD PTR __$ArrayPad$[ebp]
  000b3	33 cd		 xor	 ecx, ebp
  000b5	5e		 pop	 esi
  000b6	e8 00 00 00 00	 call	 @__security_check_cookie@4
  000bb	8b e5		 mov	 esp, ebp
  000bd	5d		 pop	 ebp
  000be	c3		 ret	 0
?SetMAConditionDlgPosition@CSetting_PriceMA@@IAEXXZ ENDP ; CSetting_PriceMA::SetMAConditionDlgPosition
_TEXT	ENDS
; Function compile flags: /Ogtp
; File D:\git\src\IBK\IBK_DRFN\ProjSrc\SrcChartEx\ChartAddIn\ChartEnvSetupDlgAddIn\ChartEnvSetupDlgAddIn\Setting_PriceMA.cpp
; File C:\Program Files (x86)\Microsoft Visual Studio\2019\Community\VC\Tools\MSVC\14.29.30133\atlmfc\include\atltypes.h
; File D:\git\src\IBK\IBK_DRFN\ProjSrc\SrcChartEx\ChartAddIn\ChartEnvSetupDlgAddIn\ChartEnvSetupDlgAddIn\Setting_PriceMA.cpp
; File C:\Program Files (x86)\Microsoft Visual Studio\2019\Community\VC\Tools\MSVC\14.29.30133\atlmfc\include\afxwin2.inl
; File D:\git\src\IBK\IBK_DRFN\ProjSrc\SrcChartEx\ChartAddIn\ChartEnvSetupDlgAddIn\ChartEnvSetupDlgAddIn\Setting_PriceMA.cpp
;	COMDAT ?CreateDropButton@CSetting_PriceMA@@IAEHAAVCDropButton@@V?$CStringT@DV?$StrTraitMFC_DLL@DV?$ChTraitsCRT@D@ATL@@@@@ATL@@II_N@Z
_TEXT	SEGMENT
_pBtn$GSCopy$1$ = -36					; size = 4
_rcBase$ = -32						; size = 16
__$ArrayPad$ = -16					; size = 4
__$EHRec$ = -12						; size = 12
_pBtn$ = 8						; size = 4
_strTitle$ = 12						; size = 4
_uID$ = 16						; size = 4
_uID2$ = 20						; size = 4
_bChangeTitleWithSelection$ = 24			; size = 1
?CreateDropButton@CSetting_PriceMA@@IAEHAAVCDropButton@@V?$CStringT@DV?$StrTraitMFC_DLL@DV?$ChTraitsCRT@D@ATL@@@@@ATL@@II_N@Z PROC ; CSetting_PriceMA::CreateDropButton, COMDAT
; _this$ = ecx

; 171  : {

  00000	55		 push	 ebp
  00001	8b ec		 mov	 ebp, esp
  00003	6a ff		 push	 -1
  00005	68 00 00 00 00	 push	 __ehhandler$?CreateDropButton@CSetting_PriceMA@@IAEHAAVCDropButton@@V?$CStringT@DV?$StrTraitMFC_DLL@DV?$ChTraitsCRT@D@ATL@@@@@ATL@@II_N@Z
  0000a	64 a1 00 00 00
	00		 mov	 eax, DWORD PTR fs:0
  00010	50		 push	 eax
  00011	83 ec 1c	 sub	 esp, 28			; 0000001cH
  00014	a1 00 00 00 00	 mov	 eax, DWORD PTR ___security_cookie
  00019	33 c5		 xor	 eax, ebp
  0001b	89 45 f0	 mov	 DWORD PTR __$ArrayPad$[ebp], eax
  0001e	56		 push	 esi
  0001f	57		 push	 edi
  00020	50		 push	 eax
  00021	8d 45 f4	 lea	 eax, DWORD PTR __$EHRec$[ebp]
  00024	64 a3 00 00 00
	00		 mov	 DWORD PTR fs:0, eax
  0002a	8b f1		 mov	 esi, ecx
  0002c	8b 45 08	 mov	 eax, DWORD PTR _pBtn$[ebp]
  0002f	89 45 dc	 mov	 DWORD PTR _pBtn$GSCopy$1$[ebp], eax
  00032	8b 45 10	 mov	 eax, DWORD PTR _uID$[ebp]
  00035	0f 57 c0	 xorps	 xmm0, xmm0
  00038	c7 45 fc 00 00
	00 00		 mov	 DWORD PTR __$EHRec$[ebp+8], 0

; 173  : 	CWnd * pWnd = GetDlgItem( uID);

  0003f	50		 push	 eax
; File C:\Program Files (x86)\Microsoft Visual Studio\2019\Community\VC\Tools\MSVC\14.29.30133\atlmfc\include\atltypes.h

; 528  : 	left = 0;

  00040	0f 11 45 e0	 movups	 XMMWORD PTR _rcBase$[ebp], xmm0
; File D:\git\src\IBK\IBK_DRFN\ProjSrc\SrcChartEx\ChartAddIn\ChartEnvSetupDlgAddIn\ChartEnvSetupDlgAddIn\Setting_PriceMA.cpp

; 173  : 	CWnd * pWnd = GetDlgItem( uID);

  00044	e8 00 00 00 00	 call	 ?GetDlgItem@CWnd@@QBEPAV1@H@Z ; CWnd::GetDlgItem
  00049	8b f8		 mov	 edi, eax

; 174  : 	if( pWnd) pWnd->GetWindowRect(rcBase);

  0004b	8d 45 e0	 lea	 eax, DWORD PTR _rcBase$[ebp]
  0004e	50		 push	 eax
  0004f	85 ff		 test	 edi, edi
  00051	74 1f		 je	 SHORT $LN2@CreateDrop
; File C:\Program Files (x86)\Microsoft Visual Studio\2019\Community\VC\Tools\MSVC\14.29.30133\atlmfc\include\afxwin2.inl

; 84   : 	{ ASSERT(::IsWindow(m_hWnd)); ::GetWindowRect(m_hWnd, lpRect); }

  00053	ff 77 20	 push	 DWORD PTR [edi+32]
  00056	ff 15 00 00 00
	00		 call	 DWORD PTR __imp__GetWindowRect@8
  0005c	8d 45 e0	 lea	 eax, DWORD PTR _rcBase$[ebp]
  0005f	8b ce		 mov	 ecx, esi
  00061	50		 push	 eax
  00062	e8 00 00 00 00	 call	 ?ScreenToClient@CWnd@@QBEXPAUtagRECT@@@Z ; CWnd::ScreenToClient
; File D:\git\src\IBK\IBK_DRFN\ProjSrc\SrcChartEx\ChartAddIn\ChartEnvSetupDlgAddIn\ChartEnvSetupDlgAddIn\Setting_PriceMA.cpp

; 177  : 	if( pWnd) pWnd->ShowWindow(SW_HIDE);

  00067	6a 00		 push	 0
  00069	8b cf		 mov	 ecx, edi
  0006b	e8 00 00 00 00	 call	 ?ShowWindow@CWnd@@QAEHH@Z ; CWnd::ShowWindow
  00070	eb 07		 jmp	 SHORT $LN3@CreateDrop
$LN2@CreateDrop:

; 175  : 	ScreenToClient(rcBase);

  00072	8b ce		 mov	 ecx, esi
  00074	e8 00 00 00 00	 call	 ?ScreenToClient@CWnd@@QBEXPAUtagRECT@@@Z ; CWnd::ScreenToClient
$LN3@CreateDrop:

; 178  : 	
; 179  : 	if( !pBtn.Create( strTitle, rcBase, this, uID2 ) )

  00079	0f 10 45 e0	 movups	 xmm0, XMMWORD PTR _rcBase$[ebp]
  0007d	68 ff ff ff 00	 push	 16777215		; 00ffffffH
  00082	6a 00		 push	 0
  00084	6a ff		 push	 -1
  00086	6a ff		 push	 -1
  00088	6a ff		 push	 -1
  0008a	6a ff		 push	 -1
  0008c	ff 75 14	 push	 DWORD PTR _uID2$[ebp]
  0008f	56		 push	 esi
  00090	83 ec 10	 sub	 esp, 16			; 00000010H
  00093	8b c4		 mov	 eax, esp
  00095	51		 push	 ecx
  00096	0f 11 00	 movups	 XMMWORD PTR [eax], xmm0
  00099	8d 45 0c	 lea	 eax, DWORD PTR _strTitle$[ebp]
  0009c	8b cc		 mov	 ecx, esp
  0009e	50		 push	 eax
  0009f	ff 15 00 00 00
	00		 call	 DWORD PTR __imp_??0?$CStringT@DV?$StrTraitMFC_DLL@DV?$ChTraitsCRT@D@ATL@@@@@ATL@@QAE@ABV01@@Z
  000a5	8b 75 dc	 mov	 esi, DWORD PTR _pBtn$GSCopy$1$[ebp]
  000a8	8b ce		 mov	 ecx, esi
  000aa	e8 00 00 00 00	 call	 ?Create@CDropButton@@QAEHV?$CStringT@DV?$StrTraitMFC_DLL@DV?$ChTraitsCRT@D@ATL@@@@@ATL@@VCRect@@PAVCWnd@@IKKKKPAVCFont@@K@Z ; CDropButton::Create
  000af	85 c0		 test	 eax, eax
  000b1	75 04		 jne	 SHORT $LN4@CreateDrop
  000b3	33 f6		 xor	 esi, esi
  000b5	eb 0e		 jmp	 SHORT $LN8@CreateDrop
$LN4@CreateDrop:

; 180  : 		return FALSE;
; 181  : 
; 182  : 	pBtn.ChangeTitleWithSelection( bChangeTitleWithSelection );

  000b7	8a 45 18	 mov	 al, BYTE PTR _bChangeTitleWithSelection$[ebp]
  000ba	88 86 8d 00 00
	00		 mov	 BYTE PTR [esi+141], al

; 183  : 
; 184  : 	return TRUE;

  000c0	be 01 00 00 00	 mov	 esi, 1
$LN8@CreateDrop:
  000c5	8d 4d 0c	 lea	 ecx, DWORD PTR _strTitle$[ebp]
  000c8	ff 15 00 00 00
	00		 call	 DWORD PTR __imp_??1?$CStringT@DV?$StrTraitMFC_DLL@DV?$ChTraitsCRT@D@ATL@@@@@ATL@@QAE@XZ
  000ce	8b c6		 mov	 eax, esi

; 185  : }

  000d0	8b 4d f4	 mov	 ecx, DWORD PTR __$EHRec$[ebp]
  000d3	64 89 0d 00 00
	00 00		 mov	 DWORD PTR fs:0, ecx
  000da	59		 pop	 ecx
  000db	5f		 pop	 edi
  000dc	5e		 pop	 esi
  000dd	8b 4d f0	 mov	 ecx, DWORD PTR __$ArrayPad$[ebp]
  000e0	33 cd		 xor	 ecx, ebp
  000e2	e8 00 00 00 00	 call	 @__security_check_cookie@4
  000e7	8b e5		 mov	 esp, ebp
  000e9	5d		 pop	 ebp
  000ea	c2 14 00	 ret	 20			; 00000014H
_TEXT	ENDS
;	COMDAT text$x
text$x	SEGMENT
__unwindfunclet$?CreateDropButton@CSetting_PriceMA@@IAEHAAVCDropButton@@V?$CStringT@DV?$StrTraitMFC_DLL@DV?$ChTraitsCRT@D@ATL@@@@@ATL@@II_N@Z$0:
  00000	8d 4d 0c	 lea	 ecx, DWORD PTR _strTitle$[ebp]
  00003	ff 25 00 00 00
	00		 jmp	 DWORD PTR __imp_??1?$CStringT@DV?$StrTraitMFC_DLL@DV?$ChTraitsCRT@D@ATL@@@@@ATL@@QAE@XZ
  00009	cc		 int	 3
  0000a	cc		 int	 3
  0000b	cc		 int	 3
  0000c	cc		 int	 3
  0000d	cc		 int	 3
__ehhandler$?CreateDropButton@CSetting_PriceMA@@IAEHAAVCDropButton@@V?$CStringT@DV?$StrTraitMFC_DLL@DV?$ChTraitsCRT@D@ATL@@@@@ATL@@II_N@Z:
  0000e	90		 npad	 1
  0000f	90		 npad	 1
  00010	8b 54 24 08	 mov	 edx, DWORD PTR [esp+8]
  00014	8d 42 0c	 lea	 eax, DWORD PTR [edx+12]
  00017	8b 4a d8	 mov	 ecx, DWORD PTR [edx-40]
  0001a	33 c8		 xor	 ecx, eax
  0001c	e8 00 00 00 00	 call	 @__security_check_cookie@4
  00021	8b 4a fc	 mov	 ecx, DWORD PTR [edx-4]
  00024	33 c8		 xor	 ecx, eax
  00026	e8 00 00 00 00	 call	 @__security_check_cookie@4
  0002b	b8 00 00 00 00	 mov	 eax, OFFSET __ehfuncinfo$?CreateDropButton@CSetting_PriceMA@@IAEHAAVCDropButton@@V?$CStringT@DV?$StrTraitMFC_DLL@DV?$ChTraitsCRT@D@ATL@@@@@ATL@@II_N@Z
  00030	e9 00 00 00 00	 jmp	 ___CxxFrameHandler3
text$x	ENDS
?CreateDropButton@CSetting_PriceMA@@IAEHAAVCDropButton@@V?$CStringT@DV?$StrTraitMFC_DLL@DV?$ChTraitsCRT@D@ATL@@@@@ATL@@II_N@Z ENDP ; CSetting_PriceMA::CreateDropButton
; Function compile flags: /Ogtp
; File D:\git\src\IBK\IBK_DRFN\ProjSrc\SrcChartEx\ChartAddIn\ChartEnvSetupDlgAddIn\ChartEnvSetupDlgAddIn\Setting_PriceMA.cpp
;	COMDAT ?Initial_Control@CSetting_PriceMA@@IAEXXZ
_TEXT	SEGMENT
?Initial_Control@CSetting_PriceMA@@IAEXXZ PROC		; CSetting_PriceMA::Initial_Control, COMDAT
; _this$ = ecx

; 195  : {

  00000	56		 push	 esi
  00001	57		 push	 edi
  00002	8b f9		 mov	 edi, ecx

; 196  : 	// 3. DrawStyleAll Combo .
; 197  : 	Initial_DrawStyleComboBox( 0, m_cmbDrawStyleGraphAll );

  00004	8d 87 80 01 00
	00		 lea	 eax, DWORD PTR [edi+384]
  0000a	50		 push	 eax
  0000b	6a 00		 push	 0
  0000d	e8 00 00 00 00	 call	 ?Initial_DrawStyleComboBox@CBaseDialog@@IAEXHAAVCBitmapItemComboBox@@@Z ; CBaseDialog::Initial_DrawStyleComboBox

; 198  : 
; 199  : 	// 4. ThicknessAll Combo .
; 200  : 	Initial_ThicknessComboBox( 0, 0, m_cmbThicknessGraphAll );

  00012	8d 87 f8 00 00
	00		 lea	 eax, DWORD PTR [edi+248]
  00018	8b cf		 mov	 ecx, edi
  0001a	50		 push	 eax
  0001b	6a 00		 push	 0
  0001d	6a 00		 push	 0
  0001f	e8 00 00 00 00	 call	 ?Initial_ThicknessComboBox@CBaseDialog@@IAEXHHAAVCBitmapItemComboBox@@@Z ; CBaseDialog::Initial_ThicknessComboBox

; 201  : 
; 202  : 	// 5. SubGraph  .
; 203  : 	if( m_pIGraphInfo )

  00024	8b 8f c4 00 00
	00		 mov	 ecx, DWORD PTR [edi+196]
  0002a	85 c9		 test	 ecx, ecx
  0002c	74 0b		 je	 SHORT $LN8@Initial_Co

; 204  : 		m_nSubGraphCount = m_pIGraphInfo->GetSubGraphCount();

  0002e	8b 01		 mov	 eax, DWORD PTR [ecx]
  00030	ff 50 2c	 call	 DWORD PTR [eax+44]
  00033	89 87 4c 04 00
	00		 mov	 DWORD PTR [edi+1100], eax
$LN8@Initial_Co:

; 205  : 
; 206  : 	if( m_pDlgMACondition) m_pDlgMACondition->SetSubGraphCount( m_nSubGraphCount );

  00039	8b 8f 48 04 00
	00		 mov	 ecx, DWORD PTR [edi+1096]
  0003f	85 c9		 test	 ecx, ecx
  00041	74 0b		 je	 SHORT $LN9@Initial_Co
  00043	ff b7 4c 04 00
	00		 push	 DWORD PTR [edi+1100]
  00049	e8 00 00 00 00	 call	 ?SetSubGraphCount@CSetting_PriceMA_Condition@@QAEXH@Z ; CSetting_PriceMA_Condition::SetSubGraphCount
$LN9@Initial_Co:

; 207  : 
; 208  : 	// 6. CSetting_PriceMA_Contidio Dialog Control .
; 209  : 	int i;
; 210  : 	CBitmapItemComboBox *pDrawStyleComboBox = NULL;
; 211  : 	CBitmapItemComboBox *pThicknessCombo = NULL;
; 212  : 	for( i = 0 ; i < m_nSubGraphCount ; i++ )

  0004e	33 f6		 xor	 esi, esi
  00050	39 b7 4c 04 00
	00		 cmp	 DWORD PTR [edi+1100], esi
  00056	7e 68		 jle	 SHORT $LL41@Initial_Co
  00058	0f 1f 84 00 00
	00 00 00	 npad	 8
$LL4@Initial_Co:

; 594  : 	if( !m_pDlgMACondition) return NULL;

  00060	8b 8f 48 04 00
	00		 mov	 ecx, DWORD PTR [edi+1096]
  00066	85 c9		 test	 ecx, ecx
  00068	74 44		 je	 SHORT $LN2@Initial_Co

; 595  : 	return m_pDlgMACondition->GetDrawStyleCombo(nSubGraphIndex);

  0006a	56		 push	 esi
  0006b	e8 00 00 00 00	 call	 ?GetDrawStyleCombo@CSetting_PriceMA_Condition@@QAEPAVCBitmapItemComboBox@@H@Z ; CSetting_PriceMA_Condition::GetDrawStyleCombo

; 213  : 	{
; 214  : 		// 6.1 CSetting_PriceMA_Contidio Dialog DrawStyle .
; 215  : 		pDrawStyleComboBox = GetDrawStyleCombo( i);
; 216  : 		if( pDrawStyleComboBox) Initial_DrawStyleComboBox( i, *pDrawStyleComboBox);			// Draw Style .

  00070	85 c0		 test	 eax, eax
  00072	74 09		 je	 SHORT $LN10@Initial_Co
  00074	50		 push	 eax
  00075	56		 push	 esi
  00076	8b cf		 mov	 ecx, edi
  00078	e8 00 00 00 00	 call	 ?Initial_DrawStyleComboBox@CBaseDialog@@IAEXHAAVCBitmapItemComboBox@@@Z ; CBaseDialog::Initial_DrawStyleComboBox
$LN10@Initial_Co:

; 601  : 	if( !m_pDlgMACondition) return NULL;

  0007d	8b 8f 48 04 00
	00		 mov	 ecx, DWORD PTR [edi+1096]
  00083	85 c9		 test	 ecx, ecx
  00085	74 27		 je	 SHORT $LN2@Initial_Co

; 602  : 	return m_pDlgMACondition->GetThicknessCombo( nSubGraphIndex );

  00087	56		 push	 esi
  00088	e8 00 00 00 00	 call	 ?GetThicknessCombo@CSetting_PriceMA_Condition@@QAEPAVCBitmapItemComboBox@@H@Z ; CSetting_PriceMA_Condition::GetThicknessCombo

; 217  : 		
; 218  : 		// 6.2 CSetting_PriceMA_Contidio Dialog Line Thickness .
; 219  : 		pThicknessCombo = GetThicknessCombo( i);
; 220  : 		if( pThicknessCombo) Initial_ThicknessComboBox( i, 0, *pThicknessCombo);		// Line Thickness .

  0008d	85 c0		 test	 eax, eax
  0008f	74 0b		 je	 SHORT $LN11@Initial_Co
  00091	50		 push	 eax
  00092	6a 00		 push	 0
  00094	56		 push	 esi
  00095	8b cf		 mov	 ecx, edi
  00097	e8 00 00 00 00	 call	 ?Initial_ThicknessComboBox@CBaseDialog@@IAEXHHAAVCBitmapItemComboBox@@@Z ; CBaseDialog::Initial_ThicknessComboBox
$LN11@Initial_Co:

; 691  : 	if( m_pDlgMACondition) m_pDlgMACondition->ShowHideSubGraph( nSubGraphIndex, nCmdShow );

  0009c	8b 8f 48 04 00
	00		 mov	 ecx, DWORD PTR [edi+1096]
  000a2	85 c9		 test	 ecx, ecx
  000a4	74 08		 je	 SHORT $LN2@Initial_Co
  000a6	6a 05		 push	 5
  000a8	56		 push	 esi
  000a9	e8 00 00 00 00	 call	 ?ShowHideSubGraph@CSetting_PriceMA_Condition@@QAEXHH@Z ; CSetting_PriceMA_Condition::ShowHideSubGraph
$LN2@Initial_Co:

; 207  : 
; 208  : 	// 6. CSetting_PriceMA_Contidio Dialog Control .
; 209  : 	int i;
; 210  : 	CBitmapItemComboBox *pDrawStyleComboBox = NULL;
; 211  : 	CBitmapItemComboBox *pThicknessCombo = NULL;
; 212  : 	for( i = 0 ; i < m_nSubGraphCount ; i++ )

  000ae	46		 inc	 esi
  000af	3b b7 4c 04 00
	00		 cmp	 esi, DWORD PTR [edi+1100]
  000b5	7c a9		 jl	 SHORT $LL4@Initial_Co

; 221  : 
; 222  : 		ShowHideSubGraph(i, SW_SHOW);
; 223  : 	}
; 224  : 
; 225  : 	// 7. CSetting_PriceMA_Contidio Dialog SubGraph 
; 226  : 	for( ; i < PRICE_MA_CONDITION_COUNT ; i++ )

  000b7	83 fe 14	 cmp	 esi, 20			; 00000014H
  000ba	7d 1c		 jge	 SHORT $LN6@Initial_Co
  000bc	0f 1f 40 00	 npad	 4
$LL41@Initial_Co:

; 691  : 	if( m_pDlgMACondition) m_pDlgMACondition->ShowHideSubGraph( nSubGraphIndex, nCmdShow );

  000c0	8b 8f 48 04 00
	00		 mov	 ecx, DWORD PTR [edi+1096]
  000c6	85 c9		 test	 ecx, ecx
  000c8	74 08		 je	 SHORT $LN5@Initial_Co
  000ca	6a 00		 push	 0
  000cc	56		 push	 esi
  000cd	e8 00 00 00 00	 call	 ?ShowHideSubGraph@CSetting_PriceMA_Condition@@QAEXHH@Z ; CSetting_PriceMA_Condition::ShowHideSubGraph
$LN5@Initial_Co:

; 221  : 
; 222  : 		ShowHideSubGraph(i, SW_SHOW);
; 223  : 	}
; 224  : 
; 225  : 	// 7. CSetting_PriceMA_Contidio Dialog SubGraph 
; 226  : 	for( ; i < PRICE_MA_CONDITION_COUNT ; i++ )

  000d2	46		 inc	 esi
  000d3	83 fe 14	 cmp	 esi, 20			; 00000014H
  000d6	7c e8		 jl	 SHORT $LL41@Initial_Co
$LN6@Initial_Co:
  000d8	5f		 pop	 edi

; 227  : 		ShowHideSubGraph(i, SW_HIDE);
; 228  : }

  000d9	5e		 pop	 esi
  000da	c3		 ret	 0
?Initial_Control@CSetting_PriceMA@@IAEXXZ ENDP		; CSetting_PriceMA::Initial_Control
_TEXT	ENDS
; Function compile flags: /Ogtp
; File D:\git\src\IBK\IBK_DRFN\ProjSrc\SrcChartEx\ChartAddIn\ChartEnvSetupDlgAddIn\ChartEnvSetupDlgAddIn\Setting_PriceMA.cpp
; File D:\git\src\IBK\IBK_DRFN\ProjSrc\SrcChartEx\ChartAddIn\ChartEnvSetupDlgAddIn\ChartEnvSetupDlgAddIn\DlgEnvSetUpAll.h
; File D:\git\src\IBK\IBK_DRFN\ProjSrc\SrcChartEx\ChartAddIn\ChartEnvSetupDlgAddIn\ChartEnvSetupDlgAddIn\GraphSetting.h
; File D:\git\src\IBK\IBK_DRFN\ProjSrc\SrcChartEx\ChartAddIn\ChartEnvSetupDlgAddIn\ChartEnvSetupDlgAddIn\Setting_PriceMA.cpp
;	COMDAT ?Cancel@CSetting_PriceMA@@QAEXXZ
_TEXT	SEGMENT
?Cancel@CSetting_PriceMA@@QAEXXZ PROC			; CSetting_PriceMA::Cancel, COMDAT
; _this$ = ecx

; 878  : 	if( m_pParentWnd != NULL )

  00000	8b 91 94 00 00
	00		 mov	 edx, DWORD PTR [ecx+148]
  00006	85 d2		 test	 edx, edx
  00008	74 1c		 je	 SHORT $LN4@Cancel

; 879  : 	{
; 880  : 		if( m_pTopWnd != NULL )

  0000a	8b 89 d0 00 00
	00		 mov	 ecx, DWORD PTR [ecx+208]
  00010	85 c9		 test	 ecx, ecx
  00012	74 08		 je	 SHORT $LN3@Cancel
; File D:\git\src\IBK\IBK_DRFN\ProjSrc\SrcChartEx\ChartAddIn\ChartEnvSetupDlgAddIn\ChartEnvSetupDlgAddIn\DlgEnvSetUpAll.h

; 61   : 	void Cancel( void )		{ OnCancel(); };

  00014	8b 01		 mov	 eax, DWORD PTR [ecx]
  00016	ff a0 8c 01 00
	00		 jmp	 DWORD PTR [eax+396]
$LN3@Cancel:
; File D:\git\src\IBK\IBK_DRFN\ProjSrc\SrcChartEx\ChartAddIn\ChartEnvSetupDlgAddIn\ChartEnvSetupDlgAddIn\GraphSetting.h

; 37   : 	void Cancel( void )		{ OnCancel(); };

  0001c	8b 02		 mov	 eax, DWORD PTR [edx]
  0001e	8b ca		 mov	 ecx, edx
  00020	ff a0 8c 01 00
	00		 jmp	 DWORD PTR [eax+396]
$LN4@Cancel:
; File D:\git\src\IBK\IBK_DRFN\ProjSrc\SrcChartEx\ChartAddIn\ChartEnvSetupDlgAddIn\ChartEnvSetupDlgAddIn\Setting_PriceMA.cpp

; 886  : }

  00026	c3		 ret	 0
?Cancel@CSetting_PriceMA@@QAEXXZ ENDP			; CSetting_PriceMA::Cancel
_TEXT	ENDS
; Function compile flags: /Ogtp
; File D:\git\src\IBK\IBK_DRFN\ProjSrc\SrcChartEx\ChartAddIn\ChartEnvSetupDlgAddIn\ChartEnvSetupDlgAddIn\Setting_PriceMA.cpp
; File D:\git\src\IBK\IBK_DRFN\ProjSrc\SrcChartEx\ChartAddIn\ChartEnvSetupDlgAddIn\ChartEnvSetupDlgAddIn\DlgEnvSetUpAll.h
; File D:\git\src\IBK\IBK_DRFN\ProjSrc\SrcChartEx\ChartAddIn\ChartEnvSetupDlgAddIn\ChartEnvSetupDlgAddIn\GraphSetting.h
; File D:\git\src\IBK\IBK_DRFN\ProjSrc\SrcChartEx\ChartAddIn\ChartEnvSetupDlgAddIn\ChartEnvSetupDlgAddIn\Setting_PriceMA.cpp
;	COMDAT ?OK@CSetting_PriceMA@@QAEXXZ
_TEXT	SEGMENT
?OK@CSetting_PriceMA@@QAEXXZ PROC			; CSetting_PriceMA::OK, COMDAT
; _this$ = ecx

; 890  : 	if( m_pParentWnd != NULL )

  00000	8b 91 94 00 00
	00		 mov	 edx, DWORD PTR [ecx+148]
  00006	85 d2		 test	 edx, edx
  00008	74 1c		 je	 SHORT $LN4@OK

; 891  : 	{
; 892  : 		if( m_pTopWnd != NULL )

  0000a	8b 89 d0 00 00
	00		 mov	 ecx, DWORD PTR [ecx+208]
  00010	85 c9		 test	 ecx, ecx
  00012	74 08		 je	 SHORT $LN3@OK
; File D:\git\src\IBK\IBK_DRFN\ProjSrc\SrcChartEx\ChartAddIn\ChartEnvSetupDlgAddIn\ChartEnvSetupDlgAddIn\DlgEnvSetUpAll.h

; 60   : 	void OK( void )			{ OnOK(); };

  00014	8b 01		 mov	 eax, DWORD PTR [ecx]
  00016	ff a0 88 01 00
	00		 jmp	 DWORD PTR [eax+392]
$LN3@OK:
; File D:\git\src\IBK\IBK_DRFN\ProjSrc\SrcChartEx\ChartAddIn\ChartEnvSetupDlgAddIn\ChartEnvSetupDlgAddIn\GraphSetting.h

; 36   : 	void OK( void )			{ OnOK(); };

  0001c	8b 02		 mov	 eax, DWORD PTR [edx]
  0001e	8b ca		 mov	 ecx, edx
  00020	ff a0 88 01 00
	00		 jmp	 DWORD PTR [eax+392]
$LN4@OK:
; File D:\git\src\IBK\IBK_DRFN\ProjSrc\SrcChartEx\ChartAddIn\ChartEnvSetupDlgAddIn\ChartEnvSetupDlgAddIn\Setting_PriceMA.cpp

; 898  : }

  00026	c3		 ret	 0
?OK@CSetting_PriceMA@@QAEXXZ ENDP			; CSetting_PriceMA::OK
_TEXT	ENDS
; Function compile flags: /Ogtp
; File D:\git\src\IBK\IBK_DRFN\ProjSrc\SrcChartEx\ChartAddIn\ChartEnvSetupDlgAddIn\ChartEnvSetupDlgAddIn\Setting_PriceMA.cpp
;	COMDAT ?GetMessageMap@CSetting_PriceMA@@MBEPBUAFX_MSGMAP@@XZ
_TEXT	SEGMENT
?GetMessageMap@CSetting_PriceMA@@MBEPBUAFX_MSGMAP@@XZ PROC ; CSetting_PriceMA::GetMessageMap, COMDAT
; _this$ = ecx

; 85   : BEGIN_MESSAGE_MAP(CSetting_PriceMA, CDialog)

  00000	b8 00 00 00 00	 mov	 eax, OFFSET ?messageMap@?1??GetThisMessageMap@CSetting_PriceMA@@KGPBUAFX_MSGMAP@@XZ@4U3@B
  00005	c3		 ret	 0
?GetMessageMap@CSetting_PriceMA@@MBEPBUAFX_MSGMAP@@XZ ENDP ; CSetting_PriceMA::GetMessageMap
_TEXT	ENDS
; Function compile flags: /Ogtp
; File D:\git\src\IBK\IBK_DRFN\ProjSrc\SrcChartEx\ChartAddIn\ChartEnvSetupDlgAddIn\ChartEnvSetupDlgAddIn\Setting_PriceMA.cpp
;	COMDAT ?GetThisMessageMap@CSetting_PriceMA@@KGPBUAFX_MSGMAP@@XZ
_TEXT	SEGMENT
?GetThisMessageMap@CSetting_PriceMA@@KGPBUAFX_MSGMAP@@XZ PROC ; CSetting_PriceMA::GetThisMessageMap, COMDAT

; 86   : 	//{{AFX_MSG_MAP(CSetting_PriceMA)
; 87   : 	ON_BN_CLICKED(IDC_CHECK_ALL, OnCheckAll)
; 88   : 	ON_CBN_SELCHANGE(IDC_DRAWSTYLE_ALL, OnSelchangeDrawstyleAll)
; 89   : 	ON_CBN_SELCHANGE(IDC_THICKNESS_ALL, OnSelchangeThicknessAll)
; 90   : 	ON_MESSAGE(CM_SELECTION_CHANGED, OnSelectionChanged)
; 91   : 	//}}AFX_MSG_MAP
; 92   : END_MESSAGE_MAP()

  00000	b8 00 00 00 00	 mov	 eax, OFFSET ?messageMap@?1??GetThisMessageMap@CSetting_PriceMA@@KGPBUAFX_MSGMAP@@XZ@4U3@B
  00005	c3		 ret	 0
?GetThisMessageMap@CSetting_PriceMA@@KGPBUAFX_MSGMAP@@XZ ENDP ; CSetting_PriceMA::GetThisMessageMap
_TEXT	ENDS
; Function compile flags: /Ogtp
; File D:\git\src\IBK\IBK_DRFN\ProjSrc\SrcChartEx\ChartAddIn\ChartEnvSetupDlgAddIn\ChartEnvSetupDlgAddIn\Setting_PriceMA.cpp
; File D:\git\src\IBK\IBK_DRFN\ProjSrc\SrcChartEx\ChartAddIn\ChartEnvSetupDlgAddIn\ChartEnvSetupDlgAddIn\DropBtn.h
; File C:\Program Files (x86)\Microsoft Visual Studio\2019\Community\VC\Tools\MSVC\14.29.30133\atlmfc\include\afxwin2.inl
; File D:\git\src\IBK\IBK_DRFN\ProjSrc\SrcChartEx\ChartAddIn\ChartEnvSetupDlgAddIn\ChartEnvSetupDlgAddIn\DropBtn.h
; File C:\Program Files (x86)\Microsoft Visual Studio\2019\Community\VC\Tools\MSVC\14.29.30133\atlmfc\include\afxwin2.inl
; File D:\git\src\IBK\IBK_DRFN\ProjSrc\SrcChartEx\ChartAddIn\ChartEnvSetupDlgAddIn\ChartEnvSetupDlgAddIn\Setting_PriceMA.cpp
; File C:\Program Files (x86)\Microsoft Visual Studio\2019\Community\VC\Tools\MSVC\14.29.30133\atlmfc\include\afxwin2.inl
; File D:\git\src\IBK\IBK_DRFN\ProjSrc\SrcChartEx\ChartAddIn\ChartEnvSetupDlgAddIn\ChartEnvSetupDlgAddIn\Setting_PriceMA.cpp
; File D:\git\src\IBK\IBK_DRFN\ProjSrc\SrcChartEx\ChartAddIn\ChartEnvSetupDlgAddIn\ChartEnvSetupDlgAddIn\DropBtn.h
; File C:\Program Files (x86)\Microsoft Visual Studio\2019\Community\VC\Tools\MSVC\14.29.30133\atlmfc\include\afxwin2.inl
; File D:\git\src\IBK\IBK_DRFN\ProjSrc\SrcChartEx\ChartAddIn\ChartEnvSetupDlgAddIn\ChartEnvSetupDlgAddIn\DropBtn.h
; File C:\Program Files (x86)\Microsoft Visual Studio\2019\Community\VC\Tools\MSVC\14.29.30133\atlmfc\include\afxwin2.inl
; File D:\git\src\IBK\IBK_DRFN\ProjSrc\SrcChartEx\ChartAddIn\ChartEnvSetupDlgAddIn\ChartEnvSetupDlgAddIn\Setting_PriceMA.cpp
; File C:\Program Files (x86)\Microsoft Visual Studio\2019\Community\VC\Tools\MSVC\14.29.30133\atlmfc\include\afxwin2.inl
; File D:\git\src\IBK\IBK_DRFN\ProjSrc\SrcChartEx\ChartAddIn\ChartEnvSetupDlgAddIn\ChartEnvSetupDlgAddIn\Setting_PriceMA.cpp
;	COMDAT ?OnSelectionChanged@CSetting_PriceMA@@IAEJIJ@Z
_TEXT	SEGMENT
_nCurSel$2$ = 8						; size = 4
_nCurSel$1$ = 8						; size = 4
_wParam$ = 8						; size = 4
_lParam$ = 12						; size = 4
?OnSelectionChanged@CSetting_PriceMA@@IAEJIJ@Z PROC	; CSetting_PriceMA::OnSelectionChanged, COMDAT
; _this$ = ecx

; 902  : {

  00000	55		 push	 ebp
  00001	8b ec		 mov	 ebp, esp
  00003	56		 push	 esi
  00004	8b f1		 mov	 esi, ecx

; 903  :     // What control sent the message
; 904  :     CDropList *pList = NULL;
; 905  : 
; 906  :     if( m_pDlgMACondition == NULL )

  00006	83 be 48 04 00
	00 00		 cmp	 DWORD PTR [esi+1096], 0
  0000d	75 07		 jne	 SHORT $LN10@OnSelectio

; 907  : 		return 0;

  0000f	33 c0		 xor	 eax, eax
  00011	5e		 pop	 esi

; 939  : }

  00012	5d		 pop	 ebp
  00013	c2 08 00	 ret	 8
$LN10@OnSelectio:

; 908  : 
; 909  : 	int nCurSel;
; 910  : 	switch(wParam)

  00016	8b 45 08	 mov	 eax, DWORD PTR _wParam$[ebp]
  00019	53		 push	 ebx
  0001a	57		 push	 edi
  0001b	2d 1e 4e 00 00	 sub	 eax, 19998		; 00004e1eH
  00020	74 76		 je	 SHORT $LN12@OnSelectio
  00022	83 e8 01	 sub	 eax, 1
  00025	0f 85 c6 00 00
	00		 jne	 $LN8@OnSelectio
; File D:\git\src\IBK\IBK_DRFN\ProjSrc\SrcChartEx\ChartAddIn\ChartEnvSetupDlgAddIn\ChartEnvSetupDlgAddIn\DropBtn.h

; 175  : 	CDropList* GetList() { return m_pDropWnd->m_pDropList; };

  0002b	8b 86 6c 03 00
	00		 mov	 eax, DWORD PTR [esi+876]
; File C:\Program Files (x86)\Microsoft Visual Studio\2019\Community\VC\Tools\MSVC\14.29.30133\atlmfc\include\afxwin2.inl

; 666  : 	{ ASSERT(::IsWindow(m_hWnd)); return (int)::SendMessage(m_hWnd, LB_GETCURSEL, 0, 0); }

  00031	8b 1d 00 00 00
	00		 mov	 ebx, DWORD PTR __imp__SendMessageA@16
  00037	6a 00		 push	 0
  00039	6a 00		 push	 0
; File D:\git\src\IBK\IBK_DRFN\ProjSrc\SrcChartEx\ChartAddIn\ChartEnvSetupDlgAddIn\ChartEnvSetupDlgAddIn\DropBtn.h

; 175  : 	CDropList* GetList() { return m_pDropWnd->m_pDropList; };

  0003b	8b 80 84 00 00
	00		 mov	 eax, DWORD PTR [eax+132]
; File C:\Program Files (x86)\Microsoft Visual Studio\2019\Community\VC\Tools\MSVC\14.29.30133\atlmfc\include\afxwin2.inl

; 666  : 	{ ASSERT(::IsWindow(m_hWnd)); return (int)::SendMessage(m_hWnd, LB_GETCURSEL, 0, 0); }

  00041	68 88 01 00 00	 push	 392			; 00000188H
  00046	ff 70 20	 push	 DWORD PTR [eax+32]
  00049	ff d3		 call	 ebx
; File D:\git\src\IBK\IBK_DRFN\ProjSrc\SrcChartEx\ChartAddIn\ChartEnvSetupDlgAddIn\ChartEnvSetupDlgAddIn\Setting_PriceMA.cpp

; 916  :         	for( int i = 0 ; i < m_nSubGraphCount ; i++ )

  0004b	33 ff		 xor	 edi, edi
  0004d	89 45 08	 mov	 DWORD PTR _nCurSel$1$[ebp], eax
  00050	39 be 4c 04 00
	00		 cmp	 DWORD PTR [esi+1100], edi
  00056	0f 8e 95 00 00
	00		 jle	 $LN8@OnSelectio
  0005c	0f 1f 40 00	 npad	 4
$LL6@OnSelectio:

; 855  : 	if( !m_pDlgMACondition) return NULL;

  00060	8b 8e 48 04 00
	00		 mov	 ecx, DWORD PTR [esi+1096]
  00066	85 c9		 test	 ecx, ecx
  00068	75 04		 jne	 SHORT $LN20@OnSelectio
  0006a	33 c0		 xor	 eax, eax
  0006c	eb 06		 jmp	 SHORT $LN19@OnSelectio
$LN20@OnSelectio:

; 856  : 	return m_pDlgMACondition->GetPacketCombo( nSubGraphIndex );

  0006e	57		 push	 edi
  0006f	e8 00 00 00 00	 call	 ?GetPacketCombo@CSetting_PriceMA_Condition@@QAEPAVCComboBox@@H@Z ; CSetting_PriceMA_Condition::GetPacketCombo
$LN19@OnSelectio:
; File C:\Program Files (x86)\Microsoft Visual Studio\2019\Community\VC\Tools\MSVC\14.29.30133\atlmfc\include\afxwin2.inl

; 767  : 	{ ASSERT(::IsWindow(m_hWnd)); return (int)::SendMessage(m_hWnd, CB_SETCURSEL, nSelect, 0); }

  00074	6a 00		 push	 0
  00076	ff 75 08	 push	 DWORD PTR _nCurSel$1$[ebp]
  00079	68 4e 01 00 00	 push	 334			; 0000014eH
  0007e	ff 70 20	 push	 DWORD PTR [eax+32]
  00081	ff d3		 call	 ebx
; File D:\git\src\IBK\IBK_DRFN\ProjSrc\SrcChartEx\ChartAddIn\ChartEnvSetupDlgAddIn\ChartEnvSetupDlgAddIn\Setting_PriceMA.cpp

; 916  :         	for( int i = 0 ; i < m_nSubGraphCount ; i++ )

  00083	47		 inc	 edi
  00084	3b be 4c 04 00
	00		 cmp	 edi, DWORD PTR [esi+1100]
  0008a	7c d4		 jl	 SHORT $LL6@OnSelectio

; 931  : 			}
; 932  : 
; 933  : 			break;
; 934  : 		}
; 935  :     }
; 936  :        
; 937  : 
; 938  :     return 1;

  0008c	5f		 pop	 edi
  0008d	5b		 pop	 ebx
  0008e	b8 01 00 00 00	 mov	 eax, 1
  00093	5e		 pop	 esi

; 939  : }

  00094	5d		 pop	 ebp
  00095	c2 08 00	 ret	 8
$LN12@OnSelectio:
; File D:\git\src\IBK\IBK_DRFN\ProjSrc\SrcChartEx\ChartAddIn\ChartEnvSetupDlgAddIn\ChartEnvSetupDlgAddIn\DropBtn.h

; 175  : 	CDropList* GetList() { return m_pDropWnd->m_pDropList; };

  00098	8b 86 44 04 00
	00		 mov	 eax, DWORD PTR [esi+1092]
; File C:\Program Files (x86)\Microsoft Visual Studio\2019\Community\VC\Tools\MSVC\14.29.30133\atlmfc\include\afxwin2.inl

; 666  : 	{ ASSERT(::IsWindow(m_hWnd)); return (int)::SendMessage(m_hWnd, LB_GETCURSEL, 0, 0); }

  0009e	8b 1d 00 00 00
	00		 mov	 ebx, DWORD PTR __imp__SendMessageA@16
  000a4	6a 00		 push	 0
  000a6	6a 00		 push	 0
; File D:\git\src\IBK\IBK_DRFN\ProjSrc\SrcChartEx\ChartAddIn\ChartEnvSetupDlgAddIn\ChartEnvSetupDlgAddIn\DropBtn.h

; 175  : 	CDropList* GetList() { return m_pDropWnd->m_pDropList; };

  000a8	8b 80 84 00 00
	00		 mov	 eax, DWORD PTR [eax+132]
; File C:\Program Files (x86)\Microsoft Visual Studio\2019\Community\VC\Tools\MSVC\14.29.30133\atlmfc\include\afxwin2.inl

; 666  : 	{ ASSERT(::IsWindow(m_hWnd)); return (int)::SendMessage(m_hWnd, LB_GETCURSEL, 0, 0); }

  000ae	68 88 01 00 00	 push	 392			; 00000188H
  000b3	ff 70 20	 push	 DWORD PTR [eax+32]
  000b6	ff d3		 call	 ebx
; File D:\git\src\IBK\IBK_DRFN\ProjSrc\SrcChartEx\ChartAddIn\ChartEnvSetupDlgAddIn\ChartEnvSetupDlgAddIn\Setting_PriceMA.cpp

; 927  : 			for( int i = 0 ; i < m_nSubGraphCount ; i++ )

  000b8	33 ff		 xor	 edi, edi
  000ba	89 45 08	 mov	 DWORD PTR _nCurSel$2$[ebp], eax
  000bd	39 be 4c 04 00
	00		 cmp	 DWORD PTR [esi+1100], edi
  000c3	7e 2c		 jle	 SHORT $LN8@OnSelectio
$LL9@OnSelectio:

; 848  : 	if( !m_pDlgMACondition) return NULL;

  000c5	8b 8e 48 04 00
	00		 mov	 ecx, DWORD PTR [esi+1096]
  000cb	85 c9		 test	 ecx, ecx
  000cd	74 19		 je	 SHORT $LN7@OnSelectio

; 849  : 	return m_pDlgMACondition->GetCalcMethodCombo( nSubGraphIndex );

  000cf	57		 push	 edi
  000d0	e8 00 00 00 00	 call	 ?GetCalcMethodCombo@CSetting_PriceMA_Condition@@QAEPAVCComboBox@@H@Z ; CSetting_PriceMA_Condition::GetCalcMethodCombo

; 928  : 			{
; 929  : 				pCalcMethodCombo = GetCalcMethodCombo( i);
; 930  : 				if( pCalcMethodCombo) pCalcMethodCombo->SetCurSel( nCurSel);

  000d5	85 c0		 test	 eax, eax
  000d7	74 0f		 je	 SHORT $LN7@OnSelectio
; File C:\Program Files (x86)\Microsoft Visual Studio\2019\Community\VC\Tools\MSVC\14.29.30133\atlmfc\include\afxwin2.inl

; 767  : 	{ ASSERT(::IsWindow(m_hWnd)); return (int)::SendMessage(m_hWnd, CB_SETCURSEL, nSelect, 0); }

  000d9	6a 00		 push	 0
  000db	ff 75 08	 push	 DWORD PTR _nCurSel$2$[ebp]
  000de	68 4e 01 00 00	 push	 334			; 0000014eH
  000e3	ff 70 20	 push	 DWORD PTR [eax+32]
  000e6	ff d3		 call	 ebx
$LN7@OnSelectio:
; File D:\git\src\IBK\IBK_DRFN\ProjSrc\SrcChartEx\ChartAddIn\ChartEnvSetupDlgAddIn\ChartEnvSetupDlgAddIn\Setting_PriceMA.cpp

; 927  : 			for( int i = 0 ; i < m_nSubGraphCount ; i++ )

  000e8	47		 inc	 edi
  000e9	3b be 4c 04 00
	00		 cmp	 edi, DWORD PTR [esi+1100]
  000ef	7c d4		 jl	 SHORT $LL9@OnSelectio
$LN8@OnSelectio:

; 931  : 			}
; 932  : 
; 933  : 			break;
; 934  : 		}
; 935  :     }
; 936  :        
; 937  : 
; 938  :     return 1;

  000f1	5f		 pop	 edi
  000f2	5b		 pop	 ebx
  000f3	b8 01 00 00 00	 mov	 eax, 1
  000f8	5e		 pop	 esi

; 939  : }

  000f9	5d		 pop	 ebp
  000fa	c2 08 00	 ret	 8
?OnSelectionChanged@CSetting_PriceMA@@IAEJIJ@Z ENDP	; CSetting_PriceMA::OnSelectionChanged
_TEXT	ENDS
; Function compile flags: /Ogtp
; File D:\git\src\IBK\IBK_DRFN\ProjSrc\SrcChartEx\ChartAddIn\ChartEnvSetupDlgAddIn\ChartEnvSetupDlgAddIn\Setting_PriceMA.cpp
; File C:\Program Files (x86)\Microsoft Visual Studio\2019\Community\VC\Tools\MSVC\14.29.30133\atlmfc\include\afxwin2.inl
; File D:\git\src\IBK\IBK_DRFN\ProjSrc\SrcChartEx\ChartAddIn\ChartEnvSetupDlgAddIn\ChartEnvSetupDlgAddIn\Setting_PriceMA.cpp
; File C:\Program Files (x86)\Microsoft Visual Studio\2019\Community\VC\Tools\MSVC\14.29.30133\atlmfc\include\afxwin2.inl
; File D:\git\src\IBK\IBK_DRFN\ProjSrc\SrcChartEx\ChartAddIn\ChartEnvSetupDlgAddIn\ChartEnvSetupDlgAddIn\Setting_PriceMA.cpp
; File C:\Program Files (x86)\Microsoft Visual Studio\2019\Community\VC\Tools\MSVC\14.29.30133\atlmfc\include\afxwin2.inl
; File D:\git\src\IBK\IBK_DRFN\ProjSrc\SrcChartEx\ChartAddIn\ChartEnvSetupDlgAddIn\ChartEnvSetupDlgAddIn\Setting_PriceMA.cpp
; File C:\Program Files (x86)\Microsoft Visual Studio\2019\Community\VC\Tools\MSVC\14.29.30133\atlmfc\include\afxwin2.inl
; File D:\git\src\IBK\IBK_DRFN\ProjSrc\SrcChartEx\ChartAddIn\ChartEnvSetupDlgAddIn\ChartEnvSetupDlgAddIn\Setting_PriceMA.cpp
; File C:\Program Files (x86)\Microsoft Visual Studio\2019\Community\VC\Tools\MSVC\14.29.30133\atlmfc\include\afxwin2.inl
; File D:\git\src\IBK\IBK_DRFN\ProjSrc\SrcChartEx\ChartAddIn\ChartEnvSetupDlgAddIn\ChartEnvSetupDlgAddIn\Setting_PriceMA.cpp
; File C:\Program Files (x86)\Microsoft Visual Studio\2019\Community\VC\Tools\MSVC\14.29.30133\atlmfc\include\afxwin2.inl
; File D:\git\src\IBK\IBK_DRFN\ProjSrc\SrcChartEx\ChartAddIn\ChartEnvSetupDlgAddIn\ChartEnvSetupDlgAddIn\Setting_PriceMA.cpp
;	COMDAT ?OnSelchangeThicknessAll@CSetting_PriceMA@@IAEXXZ
_TEXT	SEGMENT
_nThicknessGraph$1$ = -8				; size = 4
_bResetDrawStyle$1$ = -4				; size = 4
?OnSelchangeThicknessAll@CSetting_PriceMA@@IAEXXZ PROC	; CSetting_PriceMA::OnSelchangeThicknessAll, COMDAT
; _this$ = ecx

; 803  : {

  00000	55		 push	 ebp
  00001	8b ec		 mov	 ebp, esp
  00003	83 ec 08	 sub	 esp, 8
  00006	56		 push	 esi
  00007	8b f1		 mov	 esi, ecx

; 804  : 	// TODO: Add your control notification handler code here
; 805  : 	
; 806  : 	// 1. CSetting_PriceMA_Condition dialog   return.
; 807  : 	if( m_pDlgMACondition == NULL )

  00009	83 be 48 04 00
	00 00		 cmp	 DWORD PTR [esi+1096], 0
  00010	0f 84 e6 00 00
	00		 je	 $LN1@OnSelchang
; File C:\Program Files (x86)\Microsoft Visual Studio\2019\Community\VC\Tools\MSVC\14.29.30133\atlmfc\include\afxwin2.inl

; 765  : 	{ ASSERT(::IsWindow(m_hWnd)); return (int)::SendMessage(m_hWnd, CB_GETCURSEL, 0, 0); }

  00016	53		 push	 ebx
  00017	8b 1d 00 00 00
	00		 mov	 ebx, DWORD PTR __imp__SendMessageA@16
  0001d	57		 push	 edi
  0001e	6a 00		 push	 0
  00020	6a 00		 push	 0
  00022	68 47 01 00 00	 push	 327			; 00000147H
  00027	ff b6 18 01 00
	00		 push	 DWORD PTR [esi+280]
  0002d	ff d3		 call	 ebx
; File D:\git\src\IBK\IBK_DRFN\ProjSrc\SrcChartEx\ChartAddIn\ChartEnvSetupDlgAddIn\ChartEnvSetupDlgAddIn\Setting_PriceMA.cpp

; 811  : 	int nThicknessGraph = m_cmbThicknessGraphAll.GetCurSel();

  0002f	89 45 f8	 mov	 DWORD PTR _nThicknessGraph$1$[ebp], eax

; 812  : 
; 813  : 	// 3.   1 .
; 814  : 	BOOL bResetDrawStyle = FALSE;

  00032	c7 45 fc 00 00
	00 00		 mov	 DWORD PTR _bResetDrawStyle$1$[ebp], 0

; 815  : 	if( nThicknessGraph != 0 && m_cmbDrawStyleGraphAll.GetCurSel() != 0 )

  00039	85 c0		 test	 eax, eax
  0003b	74 3f		 je	 SHORT $LN38@OnSelchang
; File C:\Program Files (x86)\Microsoft Visual Studio\2019\Community\VC\Tools\MSVC\14.29.30133\atlmfc\include\afxwin2.inl

; 765  : 	{ ASSERT(::IsWindow(m_hWnd)); return (int)::SendMessage(m_hWnd, CB_GETCURSEL, 0, 0); }

  0003d	6a 00		 push	 0
  0003f	6a 00		 push	 0
  00041	68 47 01 00 00	 push	 327			; 00000147H
  00046	ff b6 a0 01 00
	00		 push	 DWORD PTR [esi+416]
  0004c	ff d3		 call	 ebx
; File D:\git\src\IBK\IBK_DRFN\ProjSrc\SrcChartEx\ChartAddIn\ChartEnvSetupDlgAddIn\ChartEnvSetupDlgAddIn\Setting_PriceMA.cpp

; 815  : 	if( nThicknessGraph != 0 && m_cmbDrawStyleGraphAll.GetCurSel() != 0 )

  0004e	85 c0		 test	 eax, eax
  00050	74 2a		 je	 SHORT $LN38@OnSelchang

; 816  : 	{
; 817  : // 2008.01.25 by LYH >>
; 818  : 		//AfxMessageBox(" \"\"     .");
; 819  : 		AfxMessageBox(m_strMsgLineThick);

  00052	6a 00		 push	 0
  00054	6a 00		 push	 0
  00056	ff b6 dc 00 00
	00		 push	 DWORD PTR [esi+220]
  0005c	e8 00 00 00 00	 call	 ?AfxMessageBox@@YGHPBDII@Z ; AfxMessageBox
; File C:\Program Files (x86)\Microsoft Visual Studio\2019\Community\VC\Tools\MSVC\14.29.30133\atlmfc\include\afxwin2.inl

; 767  : 	{ ASSERT(::IsWindow(m_hWnd)); return (int)::SendMessage(m_hWnd, CB_SETCURSEL, nSelect, 0); }

  00061	6a 00		 push	 0
  00063	6a 00		 push	 0
  00065	68 4e 01 00 00	 push	 334			; 0000014eH
  0006a	ff b6 a0 01 00
	00		 push	 DWORD PTR [esi+416]
  00070	ff d3		 call	 ebx
; File D:\git\src\IBK\IBK_DRFN\ProjSrc\SrcChartEx\ChartAddIn\ChartEnvSetupDlgAddIn\ChartEnvSetupDlgAddIn\Setting_PriceMA.cpp

; 822  : 		bResetDrawStyle = TRUE;

  00072	b8 01 00 00 00	 mov	 eax, 1
  00077	89 45 fc	 mov	 DWORD PTR _bResetDrawStyle$1$[ebp], eax
  0007a	eb 02		 jmp	 SHORT $LN6@OnSelchang
$LN38@OnSelchang:

