; Listing generated by Microsoft (R) Optimizing Compiler Version 19.29.30145.0 

	TITLE	D:\git\src\IBK\IBK_DRFN\#DRfn-CS\_Obj\ChartEnvSetupDlgAddIn\Setting_Common_Type_B.obj
	.686P
	.XMM
	include listing.inc
	.model	flat

INCLUDELIB MSVCRT
INCLUDELIB OLDNAMES

PUBLIC	??_C@_01GBGANLPD@0@				; `string'
PUBLIC	??_C@_01HIHLOKLC@1@				; `string'
PUBLIC	??_C@_01FDFGLJHB@2@				; `string'
PUBLIC	??_C@_01EKENIIDA@3@				; `string'
PUBLIC	??_C@_01FAMBOPH@4@				; `string'
PUBLIC	??_C@_01BMBHCPLG@5@				; `string'
PUBLIC	??_C@_01DHDKHMHF@6@				; `string'
PUBLIC	??_C@_01COCBENDE@7@				; `string'
PUBLIC	??_C@_01KJLJFBPL@8@				; `string'
PUBLIC	??_C@_01LAKCGALK@9@				; `string'
PUBLIC	??_C@_02PKFBJPLJ@10@				; `string'
PUBLIC	??_C@_02ODEKKOPI@11@				; `string'
PUBLIC	??_C@_02MIGHPNDL@12@				; `string'
PUBLIC	??_C@_02NBHMMMHK@13@				; `string'
PUBLIC	??_C@_02JODNFKLN@14@				; `string'
PUBLIC	??_C@_02IHCGGLPM@15@				; `string'
PUBLIC	??_C@_02KMALDIDP@16@				; `string'
PUBLIC	??_C@_02LFBAAJHO@17@				; `string'
PUBLIC	??_C@_02DCIIBFLB@18@				; `string'
PUBLIC	??_C@_02CLJDCEPA@19@				; `string'
PUBLIC	??_C@_02PIBHCBOA@20@				; `string'
PUBLIC	??_C@_02OBAMBAKB@21@				; `string'
PUBLIC	??_C@_02MKCBEDGC@22@				; `string'
PUBLIC	??_C@_02NDDKHCCD@23@				; `string'
PUBLIC	??_C@_02JMHLOEOE@24@				; `string'
;	COMDAT ??_C@_02JMHLOEOE@24@
CONST	SEGMENT
??_C@_02JMHLOEOE@24@ DB '24', 00H			; `string'
CONST	ENDS
;	COMDAT ??_C@_02NDDKHCCD@23@
CONST	SEGMENT
??_C@_02NDDKHCCD@23@ DB '23', 00H			; `string'
CONST	ENDS
;	COMDAT ??_C@_02MKCBEDGC@22@
CONST	SEGMENT
??_C@_02MKCBEDGC@22@ DB '22', 00H			; `string'
CONST	ENDS
;	COMDAT ??_C@_02OBAMBAKB@21@
CONST	SEGMENT
??_C@_02OBAMBAKB@21@ DB '21', 00H			; `string'
CONST	ENDS
;	COMDAT ??_C@_02PIBHCBOA@20@
CONST	SEGMENT
??_C@_02PIBHCBOA@20@ DB '20', 00H			; `string'
CONST	ENDS
;	COMDAT ??_C@_02CLJDCEPA@19@
CONST	SEGMENT
??_C@_02CLJDCEPA@19@ DB '19', 00H			; `string'
CONST	ENDS
;	COMDAT ??_C@_02DCIIBFLB@18@
CONST	SEGMENT
??_C@_02DCIIBFLB@18@ DB '18', 00H			; `string'
CONST	ENDS
;	COMDAT ??_C@_02LFBAAJHO@17@
CONST	SEGMENT
??_C@_02LFBAAJHO@17@ DB '17', 00H			; `string'
CONST	ENDS
;	COMDAT ??_C@_02KMALDIDP@16@
CONST	SEGMENT
??_C@_02KMALDIDP@16@ DB '16', 00H			; `string'
CONST	ENDS
;	COMDAT ??_C@_02IHCGGLPM@15@
CONST	SEGMENT
??_C@_02IHCGGLPM@15@ DB '15', 00H			; `string'
CONST	ENDS
;	COMDAT ??_C@_02JODNFKLN@14@
CONST	SEGMENT
??_C@_02JODNFKLN@14@ DB '14', 00H			; `string'
CONST	ENDS
;	COMDAT ??_C@_02NBHMMMHK@13@
CONST	SEGMENT
??_C@_02NBHMMMHK@13@ DB '13', 00H			; `string'
CONST	ENDS
;	COMDAT ??_C@_02MIGHPNDL@12@
CONST	SEGMENT
??_C@_02MIGHPNDL@12@ DB '12', 00H			; `string'
CONST	ENDS
;	COMDAT ??_C@_02ODEKKOPI@11@
CONST	SEGMENT
??_C@_02ODEKKOPI@11@ DB '11', 00H			; `string'
CONST	ENDS
;	COMDAT ??_C@_02PKFBJPLJ@10@
CONST	SEGMENT
??_C@_02PKFBJPLJ@10@ DB '10', 00H			; `string'
CONST	ENDS
;	COMDAT ??_C@_01LAKCGALK@9@
CONST	SEGMENT
??_C@_01LAKCGALK@9@ DB '9', 00H				; `string'
CONST	ENDS
;	COMDAT ??_C@_01KJLJFBPL@8@
CONST	SEGMENT
??_C@_01KJLJFBPL@8@ DB '8', 00H				; `string'
CONST	ENDS
;	COMDAT ??_C@_01COCBENDE@7@
CONST	SEGMENT
??_C@_01COCBENDE@7@ DB '7', 00H				; `string'
CONST	ENDS
;	COMDAT ??_C@_01DHDKHMHF@6@
CONST	SEGMENT
??_C@_01DHDKHMHF@6@ DB '6', 00H				; `string'
CONST	ENDS
;	COMDAT ??_C@_01BMBHCPLG@5@
CONST	SEGMENT
??_C@_01BMBHCPLG@5@ DB '5', 00H				; `string'
CONST	ENDS
;	COMDAT ??_C@_01FAMBOPH@4@
CONST	SEGMENT
??_C@_01FAMBOPH@4@ DB '4', 00H				; `string'
CONST	ENDS
;	COMDAT ??_C@_01EKENIIDA@3@
CONST	SEGMENT
??_C@_01EKENIIDA@3@ DB '3', 00H				; `string'
CONST	ENDS
;	COMDAT ??_C@_01FDFGLJHB@2@
CONST	SEGMENT
??_C@_01FDFGLJHB@2@ DB '2', 00H				; `string'
CONST	ENDS
;	COMDAT ??_C@_01HIHLOKLC@1@
CONST	SEGMENT
??_C@_01HIHLOKLC@1@ DB '1', 00H				; `string'
CONST	ENDS
;	COMDAT ??_C@_01GBGANLPD@0@
CONST	SEGMENT
??_C@_01GBGANLPD@0@ DB '0', 00H				; `string'
CONST	ENDS
PUBLIC	?__empty_global_delete@@YAXPAX@Z		; __empty_global_delete
PUBLIC	?__empty_global_delete@@YAXPAXI@Z		; __empty_global_delete
PUBLIC	?Serialize@CObject@@UAEXAAVCArchive@@@Z		; CObject::Serialize
PUBLIC	?AssertValid@CObject@@UBEXXZ			; CObject::AssertValid
PUBLIC	?Dump@CObject@@UBEXAAVCDumpContext@@@Z		; CObject::Dump
PUBLIC	?DoDataExchange@CWnd@@MAEXPAVCDataExchange@@@Z	; CWnd::DoDataExchange
PUBLIC	?BeginModalState@CWnd@@UAEXXZ			; CWnd::BeginModalState
PUBLIC	?EndModalState@CWnd@@UAEXXZ			; CWnd::EndModalState
PUBLIC	?Create@CDialog@@UAEHIPAVCWnd@@@Z		; CDialog::Create
PUBLIC	??_GCStatic@@UAEPAXI@Z				; CStatic::`scalar deleting destructor'
PUBLIC	??_GCButton@@UAEPAXI@Z				; CButton::`scalar deleting destructor'
PUBLIC	??_GCEdit@@UAEPAXI@Z				; CEdit::`scalar deleting destructor'
PUBLIC	??1CCommonDialog@@UAE@XZ			; CCommonDialog::~CCommonDialog
PUBLIC	??_GCCommonDialog@@UAEPAXI@Z			; CCommonDialog::`scalar deleting destructor'
PUBLIC	??1CColorDialog@@UAE@XZ				; CColorDialog::~CColorDialog
PUBLIC	??_GCListCtrl@@UAEPAXI@Z			; CListCtrl::`scalar deleting destructor'
PUBLIC	??1ILPCSTR135914@@QAE@XZ			; ILPCSTR135914::~ILPCSTR135914
PUBLIC	??0CSetting_Common_Type_B@@QAE@PAUIChartOCX135914@@PAVCWnd@@1@Z ; CSetting_Common_Type_B::CSetting_Common_Type_B
PUBLIC	??1CSetting_Common_Type_B@@UAE@XZ		; CSetting_Common_Type_B::~CSetting_Common_Type_B
PUBLIC	?Initial@CSetting_Common_Type_B@@UAEXPAUIGraphInfo135914@@@Z ; CSetting_Common_Type_B::Initial
PUBLIC	?OnApply@CSetting_Common_Type_B@@UAEHPAUIGraphInfo135914@@@Z ; CSetting_Common_Type_B::OnApply
PUBLIC	?PreTranslateMessage@CSetting_Common_Type_B@@UAEHPAUtagMSG@@@Z ; CSetting_Common_Type_B::PreTranslateMessage
PUBLIC	?DoDataExchange@CSetting_Common_Type_B@@MAEXPAVCDataExchange@@@Z ; CSetting_Common_Type_B::DoDataExchange
PUBLIC	?UseCompositionGroup@CSetting_Common_Type_B@@AAEXH@Z ; CSetting_Common_Type_B::UseCompositionGroup
PUBLIC	?UseBaseLineGroup@CSetting_Common_Type_B@@AAEXH@Z ; CSetting_Common_Type_B::UseBaseLineGroup
PUBLIC	?Init_Composition_Group_SubGraphItem@CSetting_Common_Type_B@@AAEXXZ ; CSetting_Common_Type_B::Init_Composition_Group_SubGraphItem
PUBLIC	?Init_Composition_Group_SubGraphTitle@CSetting_Common_Type_B@@AAEXH@Z ; CSetting_Common_Type_B::Init_Composition_Group_SubGraphTitle
PUBLIC	?Init_Composition_Group_SubGraphLine@CSetting_Common_Type_B@@AAEXH@Z ; CSetting_Common_Type_B::Init_Composition_Group_SubGraphLine
PUBLIC	?Init_Composition_Group_SubGraphColor@CSetting_Common_Type_B@@AAEXH@Z ; CSetting_Common_Type_B::Init_Composition_Group_SubGraphColor
PUBLIC	?SetButtonColor@CSetting_Common_Type_B@@AAEXAAVCColorButton@@ABK@Z ; CSetting_Common_Type_B::SetButtonColor
PUBLIC	?Init_BaseLine_Group_Title@CSetting_Common_Type_B@@AAEXXZ ; CSetting_Common_Type_B::Init_BaseLine_Group_Title
PUBLIC	?Initial_Signal@CSetting_Common_Type_B@@AAEXPAUIGraphInfo135914@@@Z ; CSetting_Common_Type_B::Initial_Signal
PUBLIC	?Initial_SubGraphData@CSetting_Common_Type_B@@AAEXH@Z ; CSetting_Common_Type_B::Initial_SubGraphData
PUBLIC	?OnApplySubGraphData@CSetting_Common_Type_B@@AAEXXZ ; CSetting_Common_Type_B::OnApplySubGraphData
PUBLIC	?OnApplyBaseLine@CSetting_Common_Type_B@@AAEXXZ	; CSetting_Common_Type_B::OnApplyBaseLine
PUBLIC	?OnApplySignal@CSetting_Common_Type_B@@AAEXPAUIGraphInfo135914@@@Z ; CSetting_Common_Type_B::OnApplySignal
PUBLIC	?DeleteString_ListBox@CSetting_Common_Type_B@@AAEXXZ ; CSetting_Common_Type_B::DeleteString_ListBox
PUBLIC	?IsShowBaseLineList@CSetting_Common_Type_B@@ABE_NXZ ; CSetting_Common_Type_B::IsShowBaseLineList
PUBLIC	?OnInitDialog@CSetting_Common_Type_B@@MAEHXZ	; CSetting_Common_Type_B::OnInitDialog
PUBLIC	?OnBtnCompositionColor@CSetting_Common_Type_B@@IAEXXZ ; CSetting_Common_Type_B::OnBtnCompositionColor
PUBLIC	?OnItemchangedListComposition@CSetting_Common_Type_B@@IAEXPAUtagNMHDR@@PAJ@Z ; CSetting_Common_Type_B::OnItemchangedListComposition
PUBLIC	?OnClickListComposition@CSetting_Common_Type_B@@IAEXPAUtagNMHDR@@PAJ@Z ; CSetting_Common_Type_B::OnClickListComposition
PUBLIC	?OnSelchangeCmbLinetype@CSetting_Common_Type_B@@IAEXXZ ; CSetting_Common_Type_B::OnSelchangeCmbLinetype
PUBLIC	?OnSelchangeCmbThickness@CSetting_Common_Type_B@@IAEXXZ ; CSetting_Common_Type_B::OnSelchangeCmbThickness
PUBLIC	?OnInsert@CSetting_Common_Type_B@@IAEXXZ	; CSetting_Common_Type_B::OnInsert
PUBLIC	?OnDelete@CSetting_Common_Type_B@@IAEXXZ	; CSetting_Common_Type_B::OnDelete
PUBLIC	?OnAlldelete@CSetting_Common_Type_B@@IAEXXZ	; CSetting_Common_Type_B::OnAlldelete
PUBLIC	?OnColorButton@CSetting_Common_Type_B@@IAEXXZ	; CSetting_Common_Type_B::OnColorButton
PUBLIC	?GetThisMessageMap@CSetting_Common_Type_B@@KGPBUAFX_MSGMAP@@XZ ; CSetting_Common_Type_B::GetThisMessageMap
PUBLIC	?GetMessageMap@CSetting_Common_Type_B@@MBEPBUAFX_MSGMAP@@XZ ; CSetting_Common_Type_B::GetMessageMap
PUBLIC	??_GCSetting_Common_Type_B@@UAEPAXI@Z		; CSetting_Common_Type_B::`scalar deleting destructor'
PUBLIC	??_C@_02DPKJAMEF@?$CFd@				; `string'
PUBLIC	??_C@_00CNPNBAHC@@				; `string'
PUBLIC	??_7CStatic@@6B@				; CStatic::`vftable'
PUBLIC	??_7CButton@@6B@				; CButton::`vftable'
PUBLIC	??_7CEdit@@6B@					; CEdit::`vftable'
PUBLIC	??_7CCommonDialog@@6B@				; CCommonDialog::`vftable'
PUBLIC	??_7CListCtrl@@6B@				; CListCtrl::`vftable'
PUBLIC	??_R0?AVCObject@@@8				; CObject `RTTI Type Descriptor'
PUBLIC	??_R3CObject@@8					; CObject::`RTTI Class Hierarchy Descriptor'
PUBLIC	??_R2CObject@@8					; CObject::`RTTI Base Class Array'
PUBLIC	??_R1A@?0A@EA@CObject@@8			; CObject::`RTTI Base Class Descriptor at (0,-1,0,64)'
PUBLIC	??_R4CStatic@@6B@				; CStatic::`RTTI Complete Object Locator'
PUBLIC	??_R0?AVCStatic@@@8				; CStatic `RTTI Type Descriptor'
PUBLIC	??_R3CStatic@@8					; CStatic::`RTTI Class Hierarchy Descriptor'
PUBLIC	??_R2CStatic@@8					; CStatic::`RTTI Base Class Array'
PUBLIC	??_R1A@?0A@EA@CStatic@@8			; CStatic::`RTTI Base Class Descriptor at (0,-1,0,64)'
PUBLIC	??_R1A@?0A@EA@CWnd@@8				; CWnd::`RTTI Base Class Descriptor at (0,-1,0,64)'
PUBLIC	??_R0?AVCWnd@@@8				; CWnd `RTTI Type Descriptor'
PUBLIC	??_R3CWnd@@8					; CWnd::`RTTI Class Hierarchy Descriptor'
PUBLIC	??_R2CWnd@@8					; CWnd::`RTTI Base Class Array'
PUBLIC	??_R1A@?0A@EA@CCmdTarget@@8			; CCmdTarget::`RTTI Base Class Descriptor at (0,-1,0,64)'
PUBLIC	??_R0?AVCCmdTarget@@@8				; CCmdTarget `RTTI Type Descriptor'
PUBLIC	??_R3CCmdTarget@@8				; CCmdTarget::`RTTI Class Hierarchy Descriptor'
PUBLIC	??_R2CCmdTarget@@8				; CCmdTarget::`RTTI Base Class Array'
PUBLIC	??_R4CButton@@6B@				; CButton::`RTTI Complete Object Locator'
PUBLIC	??_R0?AVCButton@@@8				; CButton `RTTI Type Descriptor'
PUBLIC	??_R3CButton@@8					; CButton::`RTTI Class Hierarchy Descriptor'
PUBLIC	??_R2CButton@@8					; CButton::`RTTI Base Class Array'
PUBLIC	??_R1A@?0A@EA@CButton@@8			; CButton::`RTTI Base Class Descriptor at (0,-1,0,64)'
PUBLIC	??_R4CEdit@@6B@					; CEdit::`RTTI Complete Object Locator'
PUBLIC	??_R0?AVCEdit@@@8				; CEdit `RTTI Type Descriptor'
PUBLIC	??_R3CEdit@@8					; CEdit::`RTTI Class Hierarchy Descriptor'
PUBLIC	??_R2CEdit@@8					; CEdit::`RTTI Base Class Array'
PUBLIC	??_R1A@?0A@EA@CEdit@@8				; CEdit::`RTTI Base Class Descriptor at (0,-1,0,64)'
PUBLIC	??_R4CCommonDialog@@6B@				; CCommonDialog::`RTTI Complete Object Locator'
PUBLIC	??_R0?AVCCommonDialog@@@8			; CCommonDialog `RTTI Type Descriptor'
PUBLIC	??_R3CCommonDialog@@8				; CCommonDialog::`RTTI Class Hierarchy Descriptor'
PUBLIC	??_R2CCommonDialog@@8				; CCommonDialog::`RTTI Base Class Array'
PUBLIC	??_R1A@?0A@EA@CCommonDialog@@8			; CCommonDialog::`RTTI Base Class Descriptor at (0,-1,0,64)'
PUBLIC	??_R1A@?0A@EA@CDialog@@8			; CDialog::`RTTI Base Class Descriptor at (0,-1,0,64)'
PUBLIC	??_R0?AVCDialog@@@8				; CDialog `RTTI Type Descriptor'
PUBLIC	??_R3CDialog@@8					; CDialog::`RTTI Class Hierarchy Descriptor'
PUBLIC	??_R2CDialog@@8					; CDialog::`RTTI Base Class Array'
PUBLIC	??_R4CListCtrl@@6B@				; CListCtrl::`RTTI Complete Object Locator'
PUBLIC	??_R0?AVCListCtrl@@@8				; CListCtrl `RTTI Type Descriptor'
PUBLIC	??_R3CListCtrl@@8				; CListCtrl::`RTTI Class Hierarchy Descriptor'
PUBLIC	??_R2CListCtrl@@8				; CListCtrl::`RTTI Base Class Array'
PUBLIC	??_R1A@?0A@EA@CListCtrl@@8			; CListCtrl::`RTTI Base Class Descriptor at (0,-1,0,64)'
PUBLIC	??_7CSetting_Common_Type_B@@6B@			; CSetting_Common_Type_B::`vftable'
PUBLIC	??_R4CSetting_Common_Type_B@@6B@		; CSetting_Common_Type_B::`RTTI Complete Object Locator'
PUBLIC	??_R0?AVCSetting_Common_Type_B@@@8		; CSetting_Common_Type_B `RTTI Type Descriptor'
PUBLIC	??_R3CSetting_Common_Type_B@@8			; CSetting_Common_Type_B::`RTTI Class Hierarchy Descriptor'
PUBLIC	??_R2CSetting_Common_Type_B@@8			; CSetting_Common_Type_B::`RTTI Base Class Array'
PUBLIC	??_R1A@?0A@EA@CSetting_Common_Type_B@@8		; CSetting_Common_Type_B::`RTTI Base Class Descriptor at (0,-1,0,64)'
PUBLIC	??_R1A@?0A@EA@CBaseDialog@@8			; CBaseDialog::`RTTI Base Class Descriptor at (0,-1,0,64)'
PUBLIC	??_R0?AVCBaseDialog@@@8				; CBaseDialog `RTTI Type Descriptor'
PUBLIC	??_R3CBaseDialog@@8				; CBaseDialog::`RTTI Class Hierarchy Descriptor'
PUBLIC	??_R2CBaseDialog@@8				; CBaseDialog::`RTTI Base Class Array'
EXTRN	??3@YAXPAX@Z:PROC				; operator delete
EXTRN	?__global_delete@@YAXPAXI@Z:PROC		; __global_delete
EXTRN	___std_terminate:PROC
EXTRN	__imp__SendMessageA@16:PROC
EXTRN	__imp__IsWindowVisible@4:PROC
EXTRN	__imp__EnableWindow@8:PROC
EXTRN	__imp__InvalidateRect@12:PROC
EXTRN	__imp__atof:PROC
EXTRN	__imp_??0?$CStringT@DV?$StrTraitMFC_DLL@DV?$ChTraitsCRT@D@ATL@@@@@ATL@@QAE@XZ:PROC
EXTRN	__imp_??0?$CStringT@DV?$StrTraitMFC_DLL@DV?$ChTraitsCRT@D@ATL@@@@@ATL@@QAE@PBD@Z:PROC
EXTRN	__imp_??1?$CStringT@DV?$StrTraitMFC_DLL@DV?$ChTraitsCRT@D@ATL@@@@@ATL@@QAE@XZ:PROC
EXTRN	__imp_??4?$CStringT@DV?$StrTraitMFC_DLL@DV?$ChTraitsCRT@D@ATL@@@@@ATL@@QAEAAV01@PBD@Z:PROC
EXTRN	__imp_?Compare@?$CStringT@DV?$StrTraitMFC_DLL@DV?$ChTraitsCRT@D@ATL@@@@@ATL@@QBEHPBD@Z:PROC
EXTRN	__imp_?Format@?$CStringT@DV?$StrTraitMFC_DLL@DV?$ChTraitsCRT@D@ATL@@@@@ATL@@QAAXPBDZZ:PROC
EXTRN	?DDX_Text@@YGXPAVCDataExchange@@HAAN@Z:PROC	; DDX_Text
EXTRN	?DDX_Control@@YGXPAVCDataExchange@@HAAVCWnd@@@Z:PROC ; DDX_Control
EXTRN	?OnCmdMsg@CCmdTarget@@UAEHIHPAXPAUAFX_CMDHANDLERINFO@@@Z:PROC ; CCmdTarget::OnCmdMsg
EXTRN	?IsInvokeAllowed@CCmdTarget@@UAEHJ@Z:PROC	; CCmdTarget::IsInvokeAllowed
EXTRN	?GetDispatchIID@CCmdTarget@@UAEHPAU_GUID@@@Z:PROC ; CCmdTarget::GetDispatchIID
EXTRN	?GetTypeInfoCount@CCmdTarget@@UAEIXZ:PROC	; CCmdTarget::GetTypeInfoCount
EXTRN	?GetTypeLibCache@CCmdTarget@@UAEPAVCTypeLibCache@@XZ:PROC ; CCmdTarget::GetTypeLibCache
EXTRN	?GetTypeLib@CCmdTarget@@UAEJKPAPAUITypeLib@@@Z:PROC ; CCmdTarget::GetTypeLib
EXTRN	?GetCommandMap@CCmdTarget@@MBEPBUAFX_OLECMDMAP@@XZ:PROC ; CCmdTarget::GetCommandMap
EXTRN	?GetDispatchMap@CCmdTarget@@MBEPBUAFX_DISPMAP@@XZ:PROC ; CCmdTarget::GetDispatchMap
EXTRN	?GetConnectionMap@CCmdTarget@@MBEPBUAFX_CONNECTIONMAP@@XZ:PROC ; CCmdTarget::GetConnectionMap
EXTRN	?GetEventSinkMap@CCmdTarget@@MBEPBUAFX_EVENTSINKMAP@@XZ:PROC ; CCmdTarget::GetEventSinkMap
EXTRN	?OnCreateAggregates@CCmdTarget@@UAEHXZ:PROC	; CCmdTarget::OnCreateAggregates
EXTRN	?GetInterfaceHook@CCmdTarget@@UAEPAUIUnknown@@PBX@Z:PROC ; CCmdTarget::GetInterfaceHook
EXTRN	?GetExtraConnectionPoints@CCmdTarget@@MAEHPAVCPtrArray@@@Z:PROC ; CCmdTarget::GetExtraConnectionPoints
EXTRN	?GetConnectionHook@CCmdTarget@@MAEPAUIConnectionPoint@@ABU_GUID@@@Z:PROC ; CCmdTarget::GetConnectionHook
EXTRN	??0CWnd@@QAE@XZ:PROC				; CWnd::CWnd
EXTRN	?PreSubclassWindow@CWnd@@UAEXXZ:PROC		; CWnd::PreSubclassWindow
EXTRN	?Create@CWnd@@UAEHPBD0KABUtagRECT@@PAV1@IPAUCCreateContext@@@Z:PROC ; CWnd::Create
EXTRN	?CreateEx@CWnd@@UAEHKPBD0KHHHHPAUHWND__@@PAUHMENU__@@PAX@Z:PROC ; CWnd::CreateEx
EXTRN	?CreateEx@CWnd@@UAEHKPBD0KABUtagRECT@@PAV1@IPAX@Z:PROC ; CWnd::CreateEx
EXTRN	?DestroyWindow@CWnd@@UAEHXZ:PROC		; CWnd::DestroyWindow
EXTRN	?PreCreateWindow@CWnd@@UAEHAAUtagCREATESTRUCTA@@@Z:PROC ; CWnd::PreCreateWindow
EXTRN	?CalcWindowRect@CWnd@@UAEXPAUtagRECT@@I@Z:PROC	; CWnd::CalcWindowRect
EXTRN	?GetDlgItem@CWnd@@QBEPAV1@H@Z:PROC		; CWnd::GetDlgItem
EXTRN	?SetWindowTextA@CWnd@@QAEXPBD@Z:PROC		; CWnd::SetWindowTextA
EXTRN	?GetWindowTextA@CWnd@@QBEXAAV?$CStringT@DV?$StrTraitMFC_DLL@DV?$ChTraitsCRT@D@ATL@@@@@ATL@@@Z:PROC ; CWnd::GetWindowTextA
EXTRN	?GetMenu@CWnd@@UBEPAVCMenu@@XZ:PROC		; CWnd::GetMenu
EXTRN	?SetMenu@CWnd@@UAEHPAVCMenu@@@Z:PROC		; CWnd::SetMenu
EXTRN	?ShowWindow@CWnd@@QAEHH@Z:PROC			; CWnd::ShowWindow
EXTRN	?OnToolHitTest@CWnd@@UBEHVCPoint@@PAUtagTOOLINFOA@@@Z:PROC ; CWnd::OnToolHitTest
EXTRN	?EnableWindow@CWnd@@QAEHH@Z:PROC		; CWnd::EnableWindow
EXTRN	?GetScrollBarCtrl@CWnd@@UBEPAVCScrollBar@@H@Z:PROC ; CWnd::GetScrollBarCtrl
EXTRN	?UpdateData@CWnd@@QAEHH@Z:PROC			; CWnd::UpdateData
EXTRN	?WinHelpA@CWnd@@UAEXKI@Z:PROC			; CWnd::WinHelpA
EXTRN	?HtmlHelpA@CWnd@@UAEXKI@Z:PROC			; CWnd::HtmlHelpA
EXTRN	?WinHelpInternal@CWnd@@UAEXKI@Z:PROC		; CWnd::WinHelpInternal
EXTRN	?ContinueModal@CWnd@@UAEHXZ:PROC		; CWnd::ContinueModal
EXTRN	?EndModalLoop@CWnd@@UAEXH@Z:PROC		; CWnd::EndModalLoop
EXTRN	?OnDrawIconicThumbnailOrLivePreview@CWnd@@UAEXAAVCDC@@VCRect@@VCSize@@HAAH@Z:PROC ; CWnd::OnDrawIconicThumbnailOrLivePreview
EXTRN	?GetInterfaceMap@CWnd@@MBEPBUAFX_INTERFACEMAP@@XZ:PROC ; CWnd::GetInterfaceMap
EXTRN	?EnsureStdObj@CWnd@@UAEJXZ:PROC			; CWnd::EnsureStdObj
EXTRN	?get_accParent@CWnd@@UAEJPAPAUIDispatch@@@Z:PROC ; CWnd::get_accParent
EXTRN	?get_accChildCount@CWnd@@UAEJPAJ@Z:PROC		; CWnd::get_accChildCount
EXTRN	?get_accChild@CWnd@@UAEJUtagVARIANT@@PAPAUIDispatch@@@Z:PROC ; CWnd::get_accChild
EXTRN	?get_accName@CWnd@@UAEJUtagVARIANT@@PAPA_W@Z:PROC ; CWnd::get_accName
EXTRN	?get_accValue@CWnd@@UAEJUtagVARIANT@@PAPA_W@Z:PROC ; CWnd::get_accValue
EXTRN	?get_accDescription@CWnd@@UAEJUtagVARIANT@@PAPA_W@Z:PROC ; CWnd::get_accDescription
EXTRN	?get_accRole@CWnd@@UAEJUtagVARIANT@@PAU2@@Z:PROC ; CWnd::get_accRole
EXTRN	?get_accState@CWnd@@UAEJUtagVARIANT@@PAU2@@Z:PROC ; CWnd::get_accState
EXTRN	?get_accHelp@CWnd@@UAEJUtagVARIANT@@PAPA_W@Z:PROC ; CWnd::get_accHelp
EXTRN	?get_accHelpTopic@CWnd@@UAEJPAPA_WUtagVARIANT@@PAJ@Z:PROC ; CWnd::get_accHelpTopic
EXTRN	?get_accKeyboardShortcut@CWnd@@UAEJUtagVARIANT@@PAPA_W@Z:PROC ; CWnd::get_accKeyboardShortcut
EXTRN	?get_accFocus@CWnd@@UAEJPAUtagVARIANT@@@Z:PROC	; CWnd::get_accFocus
EXTRN	?get_accSelection@CWnd@@UAEJPAUtagVARIANT@@@Z:PROC ; CWnd::get_accSelection
EXTRN	?get_accDefaultAction@CWnd@@UAEJUtagVARIANT@@PAPA_W@Z:PROC ; CWnd::get_accDefaultAction
EXTRN	?accSelect@CWnd@@UAEJJUtagVARIANT@@@Z:PROC	; CWnd::accSelect
EXTRN	?accLocation@CWnd@@UAEJPAJ000UtagVARIANT@@@Z:PROC ; CWnd::accLocation
EXTRN	?accNavigate@CWnd@@UAEJJUtagVARIANT@@PAU2@@Z:PROC ; CWnd::accNavigate
EXTRN	?accHitTest@CWnd@@UAEJJJPAUtagVARIANT@@@Z:PROC	; CWnd::accHitTest
EXTRN	?accDoDefaultAction@CWnd@@UAEJUtagVARIANT@@@Z:PROC ; CWnd::accDoDefaultAction
EXTRN	?put_accName@CWnd@@UAEJUtagVARIANT@@PA_W@Z:PROC	; CWnd::put_accName
EXTRN	?put_accValue@CWnd@@UAEJUtagVARIANT@@PA_W@Z:PROC ; CWnd::put_accValue
EXTRN	?SetProxy@CWnd@@UAEJPAUIAccessibleProxy@@@Z:PROC ; CWnd::SetProxy
EXTRN	?CreateAccessibleProxy@CWnd@@UAEJIJPAJ@Z:PROC	; CWnd::CreateAccessibleProxy
EXTRN	?OnCommand@CWnd@@MAEHIJ@Z:PROC			; CWnd::OnCommand
EXTRN	?OnNotify@CWnd@@MAEHIJPAJ@Z:PROC		; CWnd::OnNotify
EXTRN	?GetSuperWndProcAddr@CWnd@@MAEPAP6GJPAUHWND__@@IIJ@ZXZ:PROC ; CWnd::GetSuperWndProcAddr
EXTRN	?PreTranslateMessage@CWnd@@UAEHPAUtagMSG@@@Z:PROC ; CWnd::PreTranslateMessage
EXTRN	?OnAmbientProperty@CWnd@@UAEHPAVCOleControlSite@@JPAUtagVARIANT@@@Z:PROC ; CWnd::OnAmbientProperty
EXTRN	?WindowProc@CWnd@@MAEJIIJ@Z:PROC		; CWnd::WindowProc
EXTRN	?OnWndMsg@CWnd@@MAEHIIJPAJ@Z:PROC		; CWnd::OnWndMsg
EXTRN	?DefWindowProcA@CWnd@@MAEJIIJ@Z:PROC		; CWnd::DefWindowProcA
EXTRN	?PostNcDestroy@CWnd@@MAEXXZ:PROC		; CWnd::PostNcDestroy
EXTRN	?OnChildNotify@CWnd@@MAEHIIJPAJ@Z:PROC		; CWnd::OnChildNotify
EXTRN	?OnTouchInputs@CWnd@@MAEHIPAUtagTOUCHINPUT@@@Z:PROC ; CWnd::OnTouchInputs
EXTRN	?OnTouchInput@CWnd@@MAEHVCPoint@@HHPAUtagTOUCHINPUT@@@Z:PROC ; CWnd::OnTouchInput
EXTRN	?GetGestureStatus@CWnd@@MAEKVCPoint@@@Z:PROC	; CWnd::GetGestureStatus
EXTRN	?OnGestureZoom@CWnd@@MAEHVCPoint@@J@Z:PROC	; CWnd::OnGestureZoom
EXTRN	?OnGesturePan@CWnd@@MAEHVCPoint@@0@Z:PROC	; CWnd::OnGesturePan
EXTRN	?OnGestureRotate@CWnd@@MAEHVCPoint@@N@Z:PROC	; CWnd::OnGestureRotate
EXTRN	?OnGestureTwoFingerTap@CWnd@@MAEHVCPoint@@@Z:PROC ; CWnd::OnGestureTwoFingerTap
EXTRN	?OnGesturePressAndTap@CWnd@@MAEHVCPoint@@J@Z:PROC ; CWnd::OnGesturePressAndTap
EXTRN	?ResizeDynamicLayout@CWnd@@MAEXXZ:PROC		; CWnd::ResizeDynamicLayout
EXTRN	?CheckAutoCenter@CWnd@@UAEHXZ:PROC		; CWnd::CheckAutoCenter
EXTRN	?IsFrameWnd@CWnd@@UBEHXZ:PROC			; CWnd::IsFrameWnd
EXTRN	?OnFinalRelease@CWnd@@UAEXXZ:PROC		; CWnd::OnFinalRelease
EXTRN	?CreateControlContainer@CWnd@@MAEHPAPAVCOleControlContainer@@@Z:PROC ; CWnd::CreateControlContainer
EXTRN	?CreateControlSite@CWnd@@MAEHPAVCOleControlContainer@@PAPAVCOleControlSite@@IABU_GUID@@@Z:PROC ; CWnd::CreateControlSite
EXTRN	?SetOccDialogInfo@CWnd@@MAEHPAU_AFX_OCC_DIALOG_INFO@@@Z:PROC ; CWnd::SetOccDialogInfo
EXTRN	?GetOccDialogInfo@CWnd@@MAEPAU_AFX_OCC_DIALOG_INFO@@XZ:PROC ; CWnd::GetOccDialogInfo
EXTRN	?GetMessageMap@CWnd@@MBEPBUAFX_MSGMAP@@XZ:PROC	; CWnd::GetMessageMap
EXTRN	?GetRuntimeClass@CDialog@@UBEPAUCRuntimeClass@@XZ:PROC ; CDialog::GetRuntimeClass
EXTRN	?Create@CDialog@@UAEHPBDPAVCWnd@@@Z:PROC	; CDialog::Create
EXTRN	?CreateIndirect@CDialog@@UAEHPBUDLGTEMPLATE@@PAVCWnd@@PAX@Z:PROC ; CDialog::CreateIndirect
EXTRN	?CreateIndirect@CDialog@@UAEHPAXPAVCWnd@@@Z:PROC ; CDialog::CreateIndirect
EXTRN	?DoModal@CDialog@@UAEHXZ:PROC			; CDialog::DoModal
EXTRN	?OnInitDialog@CDialog@@UAEHXZ:PROC		; CDialog::OnInitDialog
EXTRN	?OnSetFont@CDialog@@UAEXPAVCFont@@@Z:PROC	; CDialog::OnSetFont
EXTRN	?OnOK@CDialog@@MAEXXZ:PROC			; CDialog::OnOK
EXTRN	?OnCancel@CDialog@@MAEXXZ:PROC			; CDialog::OnCancel
EXTRN	??1CDialog@@UAE@XZ:PROC				; CDialog::~CDialog
EXTRN	?PreTranslateMessage@CDialog@@UAEHPAUtagMSG@@@Z:PROC ; CDialog::PreTranslateMessage
EXTRN	?OnCmdMsg@CDialog@@UAEHIHPAXPAUAFX_CMDHANDLERINFO@@@Z:PROC ; CDialog::OnCmdMsg
EXTRN	?CheckAutoCenter@CDialog@@UAEHXZ:PROC		; CDialog::CheckAutoCenter
EXTRN	?SetOccDialogInfo@CDialog@@MAEHPAU_AFX_OCC_DIALOG_INFO@@@Z:PROC ; CDialog::SetOccDialogInfo
EXTRN	?GetOccDialogInfo@CDialog@@MAEPAU_AFX_OCC_DIALOG_INFO@@XZ:PROC ; CDialog::GetOccDialogInfo
EXTRN	?PreInitDialog@CDialog@@MAEXXZ:PROC		; CDialog::PreInitDialog
EXTRN	?GetThisMessageMap@CDialog@@KGPBUAFX_MSGMAP@@XZ:PROC ; CDialog::GetThisMessageMap
EXTRN	?GetRuntimeClass@CStatic@@UBEPAUCRuntimeClass@@XZ:PROC ; CStatic::GetRuntimeClass
EXTRN	?Create@CStatic@@UAEHPBDKABUtagRECT@@PAVCWnd@@I@Z:PROC ; CStatic::Create
EXTRN	?DrawItem@CStatic@@UAEXPAUtagDRAWITEMSTRUCT@@@Z:PROC ; CStatic::DrawItem
EXTRN	??1CStatic@@UAE@XZ:PROC				; CStatic::~CStatic
EXTRN	?OnChildNotify@CStatic@@MAEHIIJPAJ@Z:PROC	; CStatic::OnChildNotify
EXTRN	??_ECStatic@@UAEPAXI@Z:PROC			; CStatic::`vector deleting destructor'
EXTRN	?GetRuntimeClass@CButton@@UBEPAUCRuntimeClass@@XZ:PROC ; CButton::GetRuntimeClass
EXTRN	?Create@CButton@@UAEHPBDKABUtagRECT@@PAVCWnd@@I@Z:PROC ; CButton::Create
EXTRN	?DrawItem@CButton@@UAEXPAUtagDRAWITEMSTRUCT@@@Z:PROC ; CButton::DrawItem
EXTRN	??1CButton@@UAE@XZ:PROC				; CButton::~CButton
EXTRN	?OnChildNotify@CButton@@MAEHIIJPAJ@Z:PROC	; CButton::OnChildNotify
EXTRN	??_ECButton@@UAEPAXI@Z:PROC			; CButton::`vector deleting destructor'
EXTRN	?GetText@CListBox@@QBEXHAAV?$CStringT@DV?$StrTraitMFC_DLL@DV?$ChTraitsCRT@D@ATL@@@@@ATL@@@Z:PROC ; CListBox::GetText
EXTRN	?GetRuntimeClass@CEdit@@UBEPAUCRuntimeClass@@XZ:PROC ; CEdit::GetRuntimeClass
EXTRN	??1CEdit@@UAE@XZ:PROC				; CEdit::~CEdit
EXTRN	??_ECEdit@@UAEPAXI@Z:PROC			; CEdit::`vector deleting destructor'
EXTRN	?AfxMessageBox@@YGHPBDII@Z:PROC			; AfxMessageBox
EXTRN	?GetRuntimeClass@CCommonDialog@@UBEPAUCRuntimeClass@@XZ:PROC ; CCommonDialog::GetRuntimeClass
EXTRN	?OnOK@CCommonDialog@@MAEXXZ:PROC		; CCommonDialog::OnOK
EXTRN	?OnCancel@CCommonDialog@@MAEXXZ:PROC		; CCommonDialog::OnCancel
EXTRN	?GetMessageMap@CCommonDialog@@MBEPBUAFX_MSGMAP@@XZ:PROC ; CCommonDialog::GetMessageMap
EXTRN	??_ECCommonDialog@@UAEPAXI@Z:PROC		; CCommonDialog::`vector deleting destructor'
EXTRN	??0CColorDialog@@QAE@KKPAVCWnd@@@Z:PROC		; CColorDialog::CColorDialog
EXTRN	?DoModal@CColorDialog@@UAEHXZ:PROC		; CColorDialog::DoModal
EXTRN	?GetRuntimeClass@CListCtrl@@UBEPAUCRuntimeClass@@XZ:PROC ; CListCtrl::GetRuntimeClass
EXTRN	?GetCheck@CListCtrl@@QBEHH@Z:PROC		; CListCtrl::GetCheck
EXTRN	?SetCheck@CListCtrl@@QAEHHH@Z:PROC		; CListCtrl::SetCheck
EXTRN	?InsertColumn@CListCtrl@@QAEHHPBDHHH@Z:PROC	; CListCtrl::InsertColumn
EXTRN	?DrawItem@CListCtrl@@UAEXPAUtagDRAWITEMSTRUCT@@@Z:PROC ; CListCtrl::DrawItem
EXTRN	?InsertItem@CListCtrl@@QAEHIHPBDIIHJ@Z:PROC	; CListCtrl::InsertItem
EXTRN	??1CListCtrl@@UAE@XZ:PROC			; CListCtrl::~CListCtrl
EXTRN	?OnChildNotify@CListCtrl@@MAEHIIJPAJ@Z:PROC	; CListCtrl::OnChildNotify
EXTRN	?GetMessageMap@CListCtrl@@MBEPBUAFX_MSGMAP@@XZ:PROC ; CListCtrl::GetMessageMap
EXTRN	??_ECListCtrl@@UAEPAXI@Z:PROC			; CListCtrl::`vector deleting destructor'
EXTRN	??0CNumEdit@@QAE@XZ:PROC			; CNumEdit::CNumEdit
EXTRN	??1CNumEdit@@UAE@XZ:PROC			; CNumEdit::~CNumEdit
EXTRN	??0CNumSpinCtrl@@QAE@XZ:PROC			; CNumSpinCtrl::CNumSpinCtrl
EXTRN	??1CNumSpinCtrl@@UAE@XZ:PROC			; CNumSpinCtrl::~CNumSpinCtrl
EXTRN	??0CBitmapItemComboBox@@QAE@XZ:PROC		; CBitmapItemComboBox::CBitmapItemComboBox
EXTRN	??1CBitmapItemComboBox@@UAE@XZ:PROC		; CBitmapItemComboBox::~CBitmapItemComboBox
EXTRN	??0CBaseListBox@@QAE@XZ:PROC			; CBaseListBox::CBaseListBox
EXTRN	??1CBaseListBox@@UAE@XZ:PROC			; CBaseListBox::~CBaseListBox
EXTRN	?FindLimitValueofHorizontalLine@CFindType@@SA?AW4LIMITHORIZONTALLINE@CBaseData@@PBD@Z:PROC ; CFindType::FindLimitValueofHorizontalLine
EXTRN	??0CBaseDialog@@QAE@IPAVCWnd@@PAUIChartOCX135914@@0@Z:PROC ; CBaseDialog::CBaseDialog
EXTRN	??1CBaseDialog@@UAE@XZ:PROC			; CBaseDialog::~CBaseDialog
EXTRN	?SetTitle@CBaseDialog@@UAEXHABV?$CStringT@DV?$StrTraitMFC_DLL@DV?$ChTraitsCRT@D@ATL@@@@@ATL@@@Z:PROC ; CBaseDialog::SetTitle
EXTRN	?DoCalculate@CBaseDialog@@UAE_NXZ:PROC		; CBaseDialog::DoCalculate
EXTRN	?Initial_Spin@CBaseDialog@@IAEXAAVCNumSpinCtrl@@AAVCNumEdit@@N@Z:PROC ; CBaseDialog::Initial_Spin
EXTRN	?Initial_Spin@CBaseDialog@@IAEXAAVCNumSpinCtrl@@AAVCNumEdit@@NMMM@Z:PROC ; CBaseDialog::Initial_Spin
EXTRN	?Initial_Title@CBaseDialog@@IAEXHAAVCEdit@@@Z:PROC ; CBaseDialog::Initial_Title
EXTRN	?Initial_DrawStyleComboBox@CBaseDialog@@IAEXHAAVCBitmapItemComboBox@@@Z:PROC ; CBaseDialog::Initial_DrawStyleComboBox
EXTRN	?Initial_ThicknessComboBox@CBaseDialog@@IAEXHHAAVCBitmapItemComboBox@@@Z:PROC ; CBaseDialog::Initial_ThicknessComboBox
EXTRN	?Initial_ListBox@CBaseDialog@@IAEXPAUIDoubleList135914@@AAVCBaseListBox@@@Z:PROC ; CBaseDialog::Initial_ListBox
EXTRN	?OnApply_Title@CBaseDialog@@IAEXHAAVCEdit@@@Z:PROC ; CBaseDialog::OnApply_Title
EXTRN	?OnApply_DrawStyle@CBaseDialog@@IAEXHAAVCBitmapItemComboBox@@@Z:PROC ; CBaseDialog::OnApply_DrawStyle
EXTRN	?OnApply_Thickness@CBaseDialog@@IAEXHAAVCBitmapItemComboBox@@@Z:PROC ; CBaseDialog::OnApply_Thickness
EXTRN	?GetConditionTitle@CBaseDialog@@IAE?AV?$CStringT@DV?$StrTraitMFC_DLL@DV?$ChTraitsCRT@D@ATL@@@@@ATL@@PBDH@Z:PROC ; CBaseDialog::GetConditionTitle
EXTRN	?TrimStringWhenDecimalDataIsZero@CBaseDialog@@IAE?AV?$CStringT@DV?$StrTraitMFC_DLL@DV?$ChTraitsCRT@D@ATL@@@@@ATL@@ABV23@@Z:PROC ; CBaseDialog::TrimStringWhenDecimalDataIsZero
EXTRN	??0CColorButton@@QAE@XZ:PROC			; CColorButton::CColorButton
EXTRN	??1CColorButton@@UAE@XZ:PROC			; CColorButton::~CColorButton
EXTRN	?GetColor@CColorButton@@QAEKXZ:PROC		; CColorButton::GetColor
EXTRN	?SetColor@CColorButton@@QAEXABK@Z:PROC		; CColorButton::SetColor
EXTRN	??_ECSetting_Common_Type_B@@UAEPAXI@Z:PROC	; CSetting_Common_Type_B::`vector deleting destructor'
EXTRN	?GetLanguageText@IMetaTable@@QAEPBDPAUHWND__@@W4E_CODEPAGE@1@PBDH@Z:PROC ; IMetaTable::GetLanguageText
EXTRN	@__security_check_cookie@4:PROC
EXTRN	___CxxFrameHandler3:PROC
EXTRN	??_7type_info@@6B@:QWORD			; type_info::`vftable'
EXTRN	?g_iMetaTable@@3VIMetaTable@@A:BYTE		; g_iMetaTable
EXTRN	___security_cookie:DWORD
EXTRN	__fltused:DWORD
;	COMDAT ??_R2CBaseDialog@@8
rdata$r	SEGMENT
??_R2CBaseDialog@@8 DD FLAT:??_R1A@?0A@EA@CBaseDialog@@8 ; CBaseDialog::`RTTI Base Class Array'
	DD	FLAT:??_R1A@?0A@EA@CDialog@@8
	DD	FLAT:??_R1A@?0A@EA@CWnd@@8
	DD	FLAT:??_R1A@?0A@EA@CCmdTarget@@8
	DD	FLAT:??_R1A@?0A@EA@CObject@@8
rdata$r	ENDS
;	COMDAT ??_R3CBaseDialog@@8
rdata$r	SEGMENT
??_R3CBaseDialog@@8 DD 00H				; CBaseDialog::`RTTI Class Hierarchy Descriptor'
	DD	00H
	DD	05H
	DD	FLAT:??_R2CBaseDialog@@8
rdata$r	ENDS
;	COMDAT ??_R0?AVCBaseDialog@@@8
data$rs	SEGMENT
??_R0?AVCBaseDialog@@@8 DD FLAT:??_7type_info@@6B@	; CBaseDialog `RTTI Type Descriptor'
	DD	00H
	DB	'.?AVCBaseDialog@@', 00H
data$rs	ENDS
;	COMDAT ??_R1A@?0A@EA@CBaseDialog@@8
rdata$r	SEGMENT
??_R1A@?0A@EA@CBaseDialog@@8 DD FLAT:??_R0?AVCBaseDialog@@@8 ; CBaseDialog::`RTTI Base Class Descriptor at (0,-1,0,64)'
	DD	04H
	DD	00H
	DD	0ffffffffH
	DD	00H
	DD	040H
	DD	FLAT:??_R3CBaseDialog@@8
rdata$r	ENDS
;	COMDAT ??_R1A@?0A@EA@CSetting_Common_Type_B@@8
rdata$r	SEGMENT
??_R1A@?0A@EA@CSetting_Common_Type_B@@8 DD FLAT:??_R0?AVCSetting_Common_Type_B@@@8 ; CSetting_Common_Type_B::`RTTI Base Class Descriptor at (0,-1,0,64)'
	DD	05H
	DD	00H
	DD	0ffffffffH
	DD	00H
	DD	040H
	DD	FLAT:??_R3CSetting_Common_Type_B@@8
rdata$r	ENDS
;	COMDAT ??_R2CSetting_Common_Type_B@@8
rdata$r	SEGMENT
??_R2CSetting_Common_Type_B@@8 DD FLAT:??_R1A@?0A@EA@CSetting_Common_Type_B@@8 ; CSetting_Common_Type_B::`RTTI Base Class Array'
	DD	FLAT:??_R1A@?0A@EA@CBaseDialog@@8
	DD	FLAT:??_R1A@?0A@EA@CDialog@@8
	DD	FLAT:??_R1A@?0A@EA@CWnd@@8
	DD	FLAT:??_R1A@?0A@EA@CCmdTarget@@8
	DD	FLAT:??_R1A@?0A@EA@CObject@@8
rdata$r	ENDS
;	COMDAT ??_R3CSetting_Common_Type_B@@8
rdata$r	SEGMENT
??_R3CSetting_Common_Type_B@@8 DD 00H			; CSetting_Common_Type_B::`RTTI Class Hierarchy Descriptor'
	DD	00H
	DD	06H
	DD	FLAT:??_R2CSetting_Common_Type_B@@8
rdata$r	ENDS
;	COMDAT ??_R0?AVCSetting_Common_Type_B@@@8
data$rs	SEGMENT
??_R0?AVCSetting_Common_Type_B@@@8 DD FLAT:??_7type_info@@6B@ ; CSetting_Common_Type_B `RTTI Type Descriptor'
	DD	00H
	DB	'.?AVCSetting_Common_Type_B@@', 00H
data$rs	ENDS
;	COMDAT ??_R4CSetting_Common_Type_B@@6B@
rdata$r	SEGMENT
??_R4CSetting_Common_Type_B@@6B@ DD 00H			; CSetting_Common_Type_B::`RTTI Complete Object Locator'
	DD	00H
	DD	00H
	DD	FLAT:??_R0?AVCSetting_Common_Type_B@@@8
	DD	FLAT:??_R3CSetting_Common_Type_B@@8
rdata$r	ENDS
;	COMDAT ?messageMap@?1??GetThisMessageMap@CSetting_Common_Type_B@@KGPBUAFX_MSGMAP@@XZ@4U3@B
CONST	SEGMENT
?messageMap@?1??GetThisMessageMap@CSetting_Common_Type_B@@KGPBUAFX_MSGMAP@@XZ@4U3@B DD FLAT:?GetThisMessageMap@CDialog@@KGPBUAFX_MSGMAP@@XZ ; `CSetting_Common_Type_B::GetThisMessageMap'::`2'::messageMap
	DD	FLAT:?_messageEntries@?1??GetThisMessageMap@CSetting_Common_Type_B@@KGPBUAFX_MSGMAP@@XZ@4QBUAFX_MSGMAP_ENTRY@@B
CONST	ENDS
;	COMDAT ?_messageEntries@?1??GetThisMessageMap@CSetting_Common_Type_B@@KGPBUAFX_MSGMAP@@XZ@4QBUAFX_MSGMAP_ENTRY@@B
CONST	SEGMENT
?_messageEntries@?1??GetThisMessageMap@CSetting_Common_Type_B@@KGPBUAFX_MSGMAP@@XZ@4QBUAFX_MSGMAP_ENTRY@@B DD 0111H ; `CSetting_Common_Type_B::GetThisMessageMap'::`2'::_messageEntries
	DD	00H
	DD	017b5H
	DD	017b5H
	DD	03aH
	DD	FLAT:?OnBtnCompositionColor@CSetting_Common_Type_B@@IAEXXZ
	DD	04eH
	DD	0ff9bH
	DD	017d5H
	DD	017d5H
	DD	03eH
	DD	FLAT:?OnItemchangedListComposition@CSetting_Common_Type_B@@IAEXPAUtagNMHDR@@PAJ@Z
	DD	04eH
	DD	0fffeH
	DD	017d5H
	DD	017d5H
	DD	03eH
	DD	FLAT:?OnClickListComposition@CSetting_Common_Type_B@@IAEXPAUtagNMHDR@@PAJ@Z
	DD	0111H
	DD	01H
	DD	017b7H
	DD	017b7H
	DD	03aH
	DD	FLAT:?OnSelchangeCmbLinetype@CSetting_Common_Type_B@@IAEXXZ
	DD	0111H
	DD	01H
	DD	017b6H
	DD	017b6H
	DD	03aH
	DD	FLAT:?OnSelchangeCmbThickness@CSetting_Common_Type_B@@IAEXXZ
	DD	0111H
	DD	00H
	DD	03efH
	DD	03efH
	DD	03aH
	DD	FLAT:?OnInsert@CSetting_Common_Type_B@@IAEXXZ
	DD	0111H
	DD	00H
	DD	03f0H
	DD	03f0H
	DD	03aH
	DD	FLAT:?OnDelete@CSetting_Common_Type_B@@IAEXXZ
	DD	0111H
	DD	00H
	DD	03f1H
	DD	03f1H
	DD	03aH
	DD	FLAT:?OnAlldelete@CSetting_Common_Type_B@@IAEXXZ
	DD	0111H
	DD	00H
	DD	040eH
	DD	040eH
	DD	03aH
	DD	FLAT:?OnColorButton@CSetting_Common_Type_B@@IAEXXZ
	DD	00H
	DD	00H
	DD	00H
	DD	00H
	DD	00H
	DD	00H
CONST	ENDS
;	COMDAT ??_7CSetting_Common_Type_B@@6B@
CONST	SEGMENT
??_7CSetting_Common_Type_B@@6B@ DD FLAT:??_R4CSetting_Common_Type_B@@6B@ ; CSetting_Common_Type_B::`vftable'
	DD	FLAT:?GetRuntimeClass@CDialog@@UBEPAUCRuntimeClass@@XZ
	DD	FLAT:??_ECSetting_Common_Type_B@@UAEPAXI@Z
	DD	FLAT:?Serialize@CObject@@UAEXAAVCArchive@@@Z
	DD	FLAT:?AssertValid@CObject@@UBEXXZ
	DD	FLAT:?Dump@CObject@@UBEXAAVCDumpContext@@@Z
	DD	FLAT:?OnCmdMsg@CDialog@@UAEHIHPAXPAUAFX_CMDHANDLERINFO@@@Z
	DD	FLAT:?OnFinalRelease@CWnd@@UAEXXZ
	DD	FLAT:?IsInvokeAllowed@CCmdTarget@@UAEHJ@Z
	DD	FLAT:?GetDispatchIID@CCmdTarget@@UAEHPAU_GUID@@@Z
	DD	FLAT:?GetTypeInfoCount@CCmdTarget@@UAEIXZ
	DD	FLAT:?GetTypeLibCache@CCmdTarget@@UAEPAVCTypeLibCache@@XZ
	DD	FLAT:?GetTypeLib@CCmdTarget@@UAEJKPAPAUITypeLib@@@Z
	DD	FLAT:?GetMessageMap@CSetting_Common_Type_B@@MBEPBUAFX_MSGMAP@@XZ
	DD	FLAT:?GetCommandMap@CCmdTarget@@MBEPBUAFX_OLECMDMAP@@XZ
	DD	FLAT:?GetDispatchMap@CCmdTarget@@MBEPBUAFX_DISPMAP@@XZ
	DD	FLAT:?GetConnectionMap@CCmdTarget@@MBEPBUAFX_CONNECTIONMAP@@XZ
	DD	FLAT:?GetInterfaceMap@CWnd@@MBEPBUAFX_INTERFACEMAP@@XZ
	DD	FLAT:?GetEventSinkMap@CCmdTarget@@MBEPBUAFX_EVENTSINKMAP@@XZ
	DD	FLAT:?OnCreateAggregates@CCmdTarget@@UAEHXZ
	DD	FLAT:?GetInterfaceHook@CCmdTarget@@UAEPAUIUnknown@@PBX@Z
	DD	FLAT:?GetExtraConnectionPoints@CCmdTarget@@MAEHPAVCPtrArray@@@Z
	DD	FLAT:?GetConnectionHook@CCmdTarget@@MAEPAUIConnectionPoint@@ABU_GUID@@@Z
	DD	FLAT:?PreSubclassWindow@CWnd@@UAEXXZ
	DD	FLAT:?Create@CWnd@@UAEHPBD0KABUtagRECT@@PAV1@IPAUCCreateContext@@@Z
	DD	FLAT:?CreateEx@CWnd@@UAEHKPBD0KABUtagRECT@@PAV1@IPAX@Z
	DD	FLAT:?CreateEx@CWnd@@UAEHKPBD0KHHHHPAUHWND__@@PAUHMENU__@@PAX@Z
	DD	FLAT:?DestroyWindow@CWnd@@UAEHXZ
	DD	FLAT:?PreCreateWindow@CWnd@@UAEHAAUtagCREATESTRUCTA@@@Z
	DD	FLAT:?CalcWindowRect@CWnd@@UAEXPAUtagRECT@@I@Z
	DD	FLAT:?GetMenu@CWnd@@UBEPAVCMenu@@XZ
	DD	FLAT:?SetMenu@CWnd@@UAEHPAVCMenu@@@Z
	DD	FLAT:?OnToolHitTest@CWnd@@UBEHVCPoint@@PAUtagTOOLINFOA@@@Z
	DD	FLAT:?GetScrollBarCtrl@CWnd@@UBEPAVCScrollBar@@H@Z
	DD	FLAT:?WinHelpA@CWnd@@UAEXKI@Z
	DD	FLAT:?HtmlHelpA@CWnd@@UAEXKI@Z
	DD	FLAT:?WinHelpInternal@CWnd@@UAEXKI@Z
	DD	FLAT:?ContinueModal@CWnd@@UAEHXZ
	DD	FLAT:?EndModalLoop@CWnd@@UAEXH@Z
	DD	FLAT:?OnDrawIconicThumbnailOrLivePreview@CWnd@@UAEXAAVCDC@@VCRect@@VCSize@@HAAH@Z
	DD	FLAT:?EnsureStdObj@CWnd@@UAEJXZ
	DD	FLAT:?get_accParent@CWnd@@UAEJPAPAUIDispatch@@@Z
	DD	FLAT:?get_accChildCount@CWnd@@UAEJPAJ@Z
	DD	FLAT:?get_accChild@CWnd@@UAEJUtagVARIANT@@PAPAUIDispatch@@@Z
	DD	FLAT:?get_accName@CWnd@@UAEJUtagVARIANT@@PAPA_W@Z
	DD	FLAT:?get_accValue@CWnd@@UAEJUtagVARIANT@@PAPA_W@Z
	DD	FLAT:?get_accDescription@CWnd@@UAEJUtagVARIANT@@PAPA_W@Z
	DD	FLAT:?get_accRole@CWnd@@UAEJUtagVARIANT@@PAU2@@Z
	DD	FLAT:?get_accState@CWnd@@UAEJUtagVARIANT@@PAU2@@Z
	DD	FLAT:?get_accHelp@CWnd@@UAEJUtagVARIANT@@PAPA_W@Z
	DD	FLAT:?get_accHelpTopic@CWnd@@UAEJPAPA_WUtagVARIANT@@PAJ@Z
	DD	FLAT:?get_accKeyboardShortcut@CWnd@@UAEJUtagVARIANT@@PAPA_W@Z
	DD	FLAT:?get_accFocus@CWnd@@UAEJPAUtagVARIANT@@@Z
	DD	FLAT:?get_accSelection@CWnd@@UAEJPAUtagVARIANT@@@Z
	DD	FLAT:?get_accDefaultAction@CWnd@@UAEJUtagVARIANT@@PAPA_W@Z
	DD	FLAT:?accSelect@CWnd@@UAEJJUtagVARIANT@@@Z
	DD	FLAT:?accLocation@CWnd@@UAEJPAJ000UtagVARIANT@@@Z
	DD	FLAT:?accNavigate@CWnd@@UAEJJUtagVARIANT@@PAU2@@Z
	DD	FLAT:?accHitTest@CWnd@@UAEJJJPAUtagVARIANT@@@Z
	DD	FLAT:?accDoDefaultAction@CWnd@@UAEJUtagVARIANT@@@Z
	DD	FLAT:?put_accName@CWnd@@UAEJUtagVARIANT@@PA_W@Z
	DD	FLAT:?put_accValue@CWnd@@UAEJUtagVARIANT@@PA_W@Z
	DD	FLAT:?SetProxy@CWnd@@UAEJPAUIAccessibleProxy@@@Z
	DD	FLAT:?CreateAccessibleProxy@CWnd@@UAEJIJPAJ@Z
	DD	FLAT:?OnCommand@CWnd@@MAEHIJ@Z
	DD	FLAT:?OnNotify@CWnd@@MAEHIJPAJ@Z
	DD	FLAT:?GetSuperWndProcAddr@CWnd@@MAEPAP6GJPAUHWND__@@IIJ@ZXZ
	DD	FLAT:?DoDataExchange@CSetting_Common_Type_B@@MAEXPAVCDataExchange@@@Z
	DD	FLAT:?BeginModalState@CWnd@@UAEXXZ
	DD	FLAT:?EndModalState@CWnd@@UAEXXZ
	DD	FLAT:?PreTranslateMessage@CSetting_Common_Type_B@@UAEHPAUtagMSG@@@Z
	DD	FLAT:?OnAmbientProperty@CWnd@@UAEHPAVCOleControlSite@@JPAUtagVARIANT@@@Z
	DD	FLAT:?WindowProc@CWnd@@MAEJIIJ@Z
	DD	FLAT:?OnWndMsg@CWnd@@MAEHIIJPAJ@Z
	DD	FLAT:?DefWindowProcA@CWnd@@MAEJIIJ@Z
	DD	FLAT:?PostNcDestroy@CWnd@@MAEXXZ
	DD	FLAT:?OnChildNotify@CWnd@@MAEHIIJPAJ@Z
	DD	FLAT:?OnTouchInputs@CWnd@@MAEHIPAUtagTOUCHINPUT@@@Z
	DD	FLAT:?OnTouchInput@CWnd@@MAEHVCPoint@@HHPAUtagTOUCHINPUT@@@Z
	DD	FLAT:?GetGestureStatus@CWnd@@MAEKVCPoint@@@Z
	DD	FLAT:?OnGestureZoom@CWnd@@MAEHVCPoint@@J@Z
	DD	FLAT:?OnGesturePan@CWnd@@MAEHVCPoint@@0@Z
	DD	FLAT:?OnGestureRotate@CWnd@@MAEHVCPoint@@N@Z
	DD	FLAT:?OnGestureTwoFingerTap@CWnd@@MAEHVCPoint@@@Z
	DD	FLAT:?OnGesturePressAndTap@CWnd@@MAEHVCPoint@@J@Z
	DD	FLAT:?ResizeDynamicLayout@CWnd@@MAEXXZ
	DD	FLAT:?CheckAutoCenter@CDialog@@UAEHXZ
	DD	FLAT:?IsFrameWnd@CWnd@@UBEHXZ
	DD	FLAT:?CreateControlContainer@CWnd@@MAEHPAPAVCOleControlContainer@@@Z
	DD	FLAT:?CreateControlSite@CWnd@@MAEHPAVCOleControlContainer@@PAPAVCOleControlSite@@IABU_GUID@@@Z
	DD	FLAT:?SetOccDialogInfo@CDialog@@MAEHPAU_AFX_OCC_DIALOG_INFO@@@Z
	DD	FLAT:?GetOccDialogInfo@CDialog@@MAEPAU_AFX_OCC_DIALOG_INFO@@XZ
	DD	FLAT:?Create@CDialog@@UAEHIPAVCWnd@@@Z
	DD	FLAT:?Create@CDialog@@UAEHPBDPAVCWnd@@@Z
	DD	FLAT:?CreateIndirect@CDialog@@UAEHPAXPAVCWnd@@@Z
	DD	FLAT:?CreateIndirect@CDialog@@UAEHPBUDLGTEMPLATE@@PAVCWnd@@PAX@Z
	DD	FLAT:?DoModal@CDialog@@UAEHXZ
	DD	FLAT:?OnInitDialog@CSetting_Common_Type_B@@MAEHXZ
	DD	FLAT:?OnSetFont@CDialog@@UAEXPAVCFont@@@Z
	DD	FLAT:?OnOK@CDialog@@MAEXXZ
	DD	FLAT:?OnCancel@CDialog@@MAEXXZ
	DD	FLAT:?PreInitDialog@CDialog@@MAEXXZ
	DD	FLAT:?Initial@CSetting_Common_Type_B@@UAEXPAUIGraphInfo135914@@@Z
	DD	FLAT:?OnApply@CSetting_Common_Type_B@@UAEHPAUIGraphInfo135914@@@Z
	DD	FLAT:?SetTitle@CBaseDialog@@UAEXHABV?$CStringT@DV?$StrTraitMFC_DLL@DV?$ChTraitsCRT@D@ATL@@@@@ATL@@@Z
	DD	FLAT:?DoCalculate@CBaseDialog@@UAE_NXZ
CONST	ENDS
;	COMDAT ??_R1A@?0A@EA@CListCtrl@@8
rdata$r	SEGMENT
??_R1A@?0A@EA@CListCtrl@@8 DD FLAT:??_R0?AVCListCtrl@@@8 ; CListCtrl::`RTTI Base Class Descriptor at (0,-1,0,64)'
	DD	03H
	DD	00H
	DD	0ffffffffH
	DD	00H
	DD	040H
	DD	FLAT:??_R3CListCtrl@@8
rdata$r	ENDS
;	COMDAT ??_R2CListCtrl@@8
rdata$r	SEGMENT
??_R2CListCtrl@@8 DD FLAT:??_R1A@?0A@EA@CListCtrl@@8	; CListCtrl::`RTTI Base Class Array'
	DD	FLAT:??_R1A@?0A@EA@CWnd@@8
	DD	FLAT:??_R1A@?0A@EA@CCmdTarget@@8
	DD	FLAT:??_R1A@?0A@EA@CObject@@8
rdata$r	ENDS
;	COMDAT ??_R3CListCtrl@@8
rdata$r	SEGMENT
??_R3CListCtrl@@8 DD 00H				; CListCtrl::`RTTI Class Hierarchy Descriptor'
	DD	00H
	DD	04H
	DD	FLAT:??_R2CListCtrl@@8
rdata$r	ENDS
;	COMDAT ??_R0?AVCListCtrl@@@8
data$rs	SEGMENT
??_R0?AVCListCtrl@@@8 DD FLAT:??_7type_info@@6B@	; CListCtrl `RTTI Type Descriptor'
	DD	00H
	DB	'.?AVCListCtrl@@', 00H
data$rs	ENDS
;	COMDAT ??_R4CListCtrl@@6B@
rdata$r	SEGMENT
??_R4CListCtrl@@6B@ DD 00H				; CListCtrl::`RTTI Complete Object Locator'
	DD	00H
	DD	00H
	DD	FLAT:??_R0?AVCListCtrl@@@8
	DD	FLAT:??_R3CListCtrl@@8
rdata$r	ENDS
;	COMDAT ??_R2CDialog@@8
rdata$r	SEGMENT
??_R2CDialog@@8 DD FLAT:??_R1A@?0A@EA@CDialog@@8	; CDialog::`RTTI Base Class Array'
	DD	FLAT:??_R1A@?0A@EA@CWnd@@8
	DD	FLAT:??_R1A@?0A@EA@CCmdTarget@@8
	DD	FLAT:??_R1A@?0A@EA@CObject@@8
rdata$r	ENDS
;	COMDAT ??_R3CDialog@@8
rdata$r	SEGMENT
??_R3CDialog@@8 DD 00H					; CDialog::`RTTI Class Hierarchy Descriptor'
	DD	00H
	DD	04H
	DD	FLAT:??_R2CDialog@@8
rdata$r	ENDS
;	COMDAT ??_R0?AVCDialog@@@8
data$rs	SEGMENT
??_R0?AVCDialog@@@8 DD FLAT:??_7type_info@@6B@		; CDialog `RTTI Type Descriptor'
	DD	00H
	DB	'.?AVCDialog@@', 00H
data$rs	ENDS
;	COMDAT ??_R1A@?0A@EA@CDialog@@8
rdata$r	SEGMENT
??_R1A@?0A@EA@CDialog@@8 DD FLAT:??_R0?AVCDialog@@@8	; CDialog::`RTTI Base Class Descriptor at (0,-1,0,64)'
	DD	03H
	DD	00H
	DD	0ffffffffH
	DD	00H
	DD	040H
	DD	FLAT:??_R3CDialog@@8
rdata$r	ENDS
;	COMDAT ??_R1A@?0A@EA@CCommonDialog@@8
rdata$r	SEGMENT
??_R1A@?0A@EA@CCommonDialog@@8 DD FLAT:??_R0?AVCCommonDialog@@@8 ; CCommonDialog::`RTTI Base Class Descriptor at (0,-1,0,64)'
	DD	04H
	DD	00H
	DD	0ffffffffH
	DD	00H
	DD	040H
	DD	FLAT:??_R3CCommonDialog@@8
rdata$r	ENDS
;	COMDAT ??_R2CCommonDialog@@8
rdata$r	SEGMENT
??_R2CCommonDialog@@8 DD FLAT:??_R1A@?0A@EA@CCommonDialog@@8 ; CCommonDialog::`RTTI Base Class Array'
	DD	FLAT:??_R1A@?0A@EA@CDialog@@8
	DD	FLAT:??_R1A@?0A@EA@CWnd@@8
	DD	FLAT:??_R1A@?0A@EA@CCmdTarget@@8
	DD	FLAT:??_R1A@?0A@EA@CObject@@8
rdata$r	ENDS
;	COMDAT ??_R3CCommonDialog@@8
rdata$r	SEGMENT
??_R3CCommonDialog@@8 DD 00H				; CCommonDialog::`RTTI Class Hierarchy Descriptor'
	DD	00H
	DD	05H
	DD	FLAT:??_R2CCommonDialog@@8
rdata$r	ENDS
;	COMDAT ??_R0?AVCCommonDialog@@@8
data$rs	SEGMENT
??_R0?AVCCommonDialog@@@8 DD FLAT:??_7type_info@@6B@	; CCommonDialog `RTTI Type Descriptor'
	DD	00H
	DB	'.?AVCCommonDialog@@', 00H
data$rs	ENDS
;	COMDAT ??_R4CCommonDialog@@6B@
rdata$r	SEGMENT
??_R4CCommonDialog@@6B@ DD 00H				; CCommonDialog::`RTTI Complete Object Locator'
	DD	00H
	DD	00H
	DD	FLAT:??_R0?AVCCommonDialog@@@8
	DD	FLAT:??_R3CCommonDialog@@8
rdata$r	ENDS
;	COMDAT ??_R1A@?0A@EA@CEdit@@8
rdata$r	SEGMENT
??_R1A@?0A@EA@CEdit@@8 DD FLAT:??_R0?AVCEdit@@@8	; CEdit::`RTTI Base Class Descriptor at (0,-1,0,64)'
	DD	03H
	DD	00H
	DD	0ffffffffH
	DD	00H
	DD	040H
	DD	FLAT:??_R3CEdit@@8
rdata$r	ENDS
;	COMDAT ??_R2CEdit@@8
rdata$r	SEGMENT
??_R2CEdit@@8 DD FLAT:??_R1A@?0A@EA@CEdit@@8		; CEdit::`RTTI Base Class Array'
	DD	FLAT:??_R1A@?0A@EA@CWnd@@8
	DD	FLAT:??_R1A@?0A@EA@CCmdTarget@@8
	DD	FLAT:??_R1A@?0A@EA@CObject@@8
rdata$r	ENDS
;	COMDAT ??_R3CEdit@@8
rdata$r	SEGMENT
??_R3CEdit@@8 DD 00H					; CEdit::`RTTI Class Hierarchy Descriptor'
	DD	00H
	DD	04H
	DD	FLAT:??_R2CEdit@@8
rdata$r	ENDS
;	COMDAT ??_R0?AVCEdit@@@8
data$rs	SEGMENT
??_R0?AVCEdit@@@8 DD FLAT:??_7type_info@@6B@		; CEdit `RTTI Type Descriptor'
	DD	00H
	DB	'.?AVCEdit@@', 00H
data$rs	ENDS
;	COMDAT ??_R4CEdit@@6B@
rdata$r	SEGMENT
??_R4CEdit@@6B@ DD 00H					; CEdit::`RTTI Complete Object Locator'
	DD	00H
	DD	00H
	DD	FLAT:??_R0?AVCEdit@@@8
	DD	FLAT:??_R3CEdit@@8
rdata$r	ENDS
;	COMDAT ??_R1A@?0A@EA@CButton@@8
rdata$r	SEGMENT
??_R1A@?0A@EA@CButton@@8 DD FLAT:??_R0?AVCButton@@@8	; CButton::`RTTI Base Class Descriptor at (0,-1,0,64)'
	DD	03H
	DD	00H
	DD	0ffffffffH
	DD	00H
	DD	040H
	DD	FLAT:??_R3CButton@@8
rdata$r	ENDS
;	COMDAT ??_R2CButton@@8
rdata$r	SEGMENT
??_R2CButton@@8 DD FLAT:??_R1A@?0A@EA@CButton@@8	; CButton::`RTTI Base Class Array'
	DD	FLAT:??_R1A@?0A@EA@CWnd@@8
	DD	FLAT:??_R1A@?0A@EA@CCmdTarget@@8
	DD	FLAT:??_R1A@?0A@EA@CObject@@8
rdata$r	ENDS
;	COMDAT ??_R3CButton@@8
rdata$r	SEGMENT
??_R3CButton@@8 DD 00H					; CButton::`RTTI Class Hierarchy Descriptor'
	DD	00H
	DD	04H
	DD	FLAT:??_R2CButton@@8
rdata$r	ENDS
;	COMDAT ??_R0?AVCButton@@@8
data$rs	SEGMENT
??_R0?AVCButton@@@8 DD FLAT:??_7type_info@@6B@		; CButton `RTTI Type Descriptor'
	DD	00H
	DB	'.?AVCButton@@', 00H
data$rs	ENDS
;	COMDAT ??_R4CButton@@6B@
rdata$r	SEGMENT
??_R4CButton@@6B@ DD 00H				; CButton::`RTTI Complete Object Locator'
	DD	00H
	DD	00H
	DD	FLAT:??_R0?AVCButton@@@8
	DD	FLAT:??_R3CButton@@8
rdata$r	ENDS
;	COMDAT ??_R2CCmdTarget@@8
rdata$r	SEGMENT
??_R2CCmdTarget@@8 DD FLAT:??_R1A@?0A@EA@CCmdTarget@@8	; CCmdTarget::`RTTI Base Class Array'
	DD	FLAT:??_R1A@?0A@EA@CObject@@8
rdata$r	ENDS
;	COMDAT ??_R3CCmdTarget@@8
rdata$r	SEGMENT
??_R3CCmdTarget@@8 DD 00H				; CCmdTarget::`RTTI Class Hierarchy Descriptor'
	DD	00H
	DD	02H
	DD	FLAT:??_R2CCmdTarget@@8
rdata$r	ENDS
;	COMDAT ??_R0?AVCCmdTarget@@@8
data$rs	SEGMENT
??_R0?AVCCmdTarget@@@8 DD FLAT:??_7type_info@@6B@	; CCmdTarget `RTTI Type Descriptor'
	DD	00H
	DB	'.?AVCCmdTarget@@', 00H
data$rs	ENDS
;	COMDAT ??_R1A@?0A@EA@CCmdTarget@@8
rdata$r	SEGMENT
??_R1A@?0A@EA@CCmdTarget@@8 DD FLAT:??_R0?AVCCmdTarget@@@8 ; CCmdTarget::`RTTI Base Class Descriptor at (0,-1,0,64)'
	DD	01H
	DD	00H
	DD	0ffffffffH
	DD	00H
	DD	040H
	DD	FLAT:??_R3CCmdTarget@@8
rdata$r	ENDS
;	COMDAT ??_R2CWnd@@8
rdata$r	SEGMENT
??_R2CWnd@@8 DD	FLAT:??_R1A@?0A@EA@CWnd@@8		; CWnd::`RTTI Base Class Array'
	DD	FLAT:??_R1A@?0A@EA@CCmdTarget@@8
	DD	FLAT:??_R1A@?0A@EA@CObject@@8
rdata$r	ENDS
;	COMDAT ??_R3CWnd@@8
rdata$r	SEGMENT
??_R3CWnd@@8 DD	00H					; CWnd::`RTTI Class Hierarchy Descriptor'
	DD	00H
	DD	03H
	DD	FLAT:??_R2CWnd@@8
rdata$r	ENDS
;	COMDAT ??_R0?AVCWnd@@@8
data$rs	SEGMENT
??_R0?AVCWnd@@@8 DD FLAT:??_7type_info@@6B@		; CWnd `RTTI Type Descriptor'
	DD	00H
	DB	'.?AVCWnd@@', 00H
data$rs	ENDS
;	COMDAT ??_R1A@?0A@EA@CWnd@@8
rdata$r	SEGMENT
??_R1A@?0A@EA@CWnd@@8 DD FLAT:??_R0?AVCWnd@@@8		; CWnd::`RTTI Base Class Descriptor at (0,-1,0,64)'
	DD	02H
	DD	00H
	DD	0ffffffffH
	DD	00H
	DD	040H
	DD	FLAT:??_R3CWnd@@8
rdata$r	ENDS
;	COMDAT ??_R1A@?0A@EA@CStatic@@8
rdata$r	SEGMENT
??_R1A@?0A@EA@CStatic@@8 DD FLAT:??_R0?AVCStatic@@@8	; CStatic::`RTTI Base Class Descriptor at (0,-1,0,64)'
	DD	03H
	DD	00H
	DD	0ffffffffH
	DD	00H
	DD	040H
	DD	FLAT:??_R3CStatic@@8
rdata$r	ENDS
;	COMDAT ??_R2CStatic@@8
rdata$r	SEGMENT
??_R2CStatic@@8 DD FLAT:??_R1A@?0A@EA@CStatic@@8	; CStatic::`RTTI Base Class Array'
	DD	FLAT:??_R1A@?0A@EA@CWnd@@8
	DD	FLAT:??_R1A@?0A@EA@CCmdTarget@@8
	DD	FLAT:??_R1A@?0A@EA@CObject@@8
rdata$r	ENDS
;	COMDAT ??_R3CStatic@@8
rdata$r	SEGMENT
??_R3CStatic@@8 DD 00H					; CStatic::`RTTI Class Hierarchy Descriptor'
	DD	00H
	DD	04H
	DD	FLAT:??_R2CStatic@@8
rdata$r	ENDS
;	COMDAT ??_R0?AVCStatic@@@8
data$rs	SEGMENT
??_R0?AVCStatic@@@8 DD FLAT:??_7type_info@@6B@		; CStatic `RTTI Type Descriptor'
	DD	00H
	DB	'.?AVCStatic@@', 00H
data$rs	ENDS
;	COMDAT ??_R4CStatic@@6B@
rdata$r	SEGMENT
??_R4CStatic@@6B@ DD 00H				; CStatic::`RTTI Complete Object Locator'
	DD	00H
	DD	00H
	DD	FLAT:??_R0?AVCStatic@@@8
	DD	FLAT:??_R3CStatic@@8
rdata$r	ENDS
;	COMDAT ??_R1A@?0A@EA@CObject@@8
rdata$r	SEGMENT
??_R1A@?0A@EA@CObject@@8 DD FLAT:??_R0?AVCObject@@@8	; CObject::`RTTI Base Class Descriptor at (0,-1,0,64)'
	DD	00H
	DD	00H
	DD	0ffffffffH
	DD	00H
	DD	040H
	DD	FLAT:??_R3CObject@@8
rdata$r	ENDS
;	COMDAT ??_R2CObject@@8
rdata$r	SEGMENT
??_R2CObject@@8 DD FLAT:??_R1A@?0A@EA@CObject@@8	; CObject::`RTTI Base Class Array'
rdata$r	ENDS
;	COMDAT ??_R3CObject@@8
rdata$r	SEGMENT
??_R3CObject@@8 DD 00H					; CObject::`RTTI Class Hierarchy Descriptor'
	DD	00H
	DD	01H
	DD	FLAT:??_R2CObject@@8
rdata$r	ENDS
;	COMDAT ??_R0?AVCObject@@@8
data$rs	SEGMENT
??_R0?AVCObject@@@8 DD FLAT:??_7type_info@@6B@		; CObject `RTTI Type Descriptor'
	DD	00H
	DB	'.?AVCObject@@', 00H
data$rs	ENDS
;	COMDAT ??_7CListCtrl@@6B@
CONST	SEGMENT
??_7CListCtrl@@6B@ DD FLAT:??_R4CListCtrl@@6B@		; CListCtrl::`vftable'
	DD	FLAT:?GetRuntimeClass@CListCtrl@@UBEPAUCRuntimeClass@@XZ
	DD	FLAT:??_ECListCtrl@@UAEPAXI@Z
	DD	FLAT:?Serialize@CObject@@UAEXAAVCArchive@@@Z
	DD	FLAT:?AssertValid@CObject@@UBEXXZ
	DD	FLAT:?Dump@CObject@@UBEXAAVCDumpContext@@@Z
	DD	FLAT:?OnCmdMsg@CCmdTarget@@UAEHIHPAXPAUAFX_CMDHANDLERINFO@@@Z
	DD	FLAT:?OnFinalRelease@CWnd@@UAEXXZ
	DD	FLAT:?IsInvokeAllowed@CCmdTarget@@UAEHJ@Z
	DD	FLAT:?GetDispatchIID@CCmdTarget@@UAEHPAU_GUID@@@Z
	DD	FLAT:?GetTypeInfoCount@CCmdTarget@@UAEIXZ
	DD	FLAT:?GetTypeLibCache@CCmdTarget@@UAEPAVCTypeLibCache@@XZ
	DD	FLAT:?GetTypeLib@CCmdTarget@@UAEJKPAPAUITypeLib@@@Z
	DD	FLAT:?GetMessageMap@CListCtrl@@MBEPBUAFX_MSGMAP@@XZ
	DD	FLAT:?GetCommandMap@CCmdTarget@@MBEPBUAFX_OLECMDMAP@@XZ
	DD	FLAT:?GetDispatchMap@CCmdTarget@@MBEPBUAFX_DISPMAP@@XZ
	DD	FLAT:?GetConnectionMap@CCmdTarget@@MBEPBUAFX_CONNECTIONMAP@@XZ
	DD	FLAT:?GetInterfaceMap@CWnd@@MBEPBUAFX_INTERFACEMAP@@XZ
	DD	FLAT:?GetEventSinkMap@CCmdTarget@@MBEPBUAFX_EVENTSINKMAP@@XZ
	DD	FLAT:?OnCreateAggregates@CCmdTarget@@UAEHXZ
	DD	FLAT:?GetInterfaceHook@CCmdTarget@@UAEPAUIUnknown@@PBX@Z
	DD	FLAT:?GetExtraConnectionPoints@CCmdTarget@@MAEHPAVCPtrArray@@@Z
	DD	FLAT:?GetConnectionHook@CCmdTarget@@MAEPAUIConnectionPoint@@ABU_GUID@@@Z
	DD	FLAT:?PreSubclassWindow@CWnd@@UAEXXZ
	DD	FLAT:?Create@CWnd@@UAEHPBD0KABUtagRECT@@PAV1@IPAUCCreateContext@@@Z
	DD	FLAT:?CreateEx@CWnd@@UAEHKPBD0KABUtagRECT@@PAV1@IPAX@Z
	DD	FLAT:?CreateEx@CWnd@@UAEHKPBD0KHHHHPAUHWND__@@PAUHMENU__@@PAX@Z
	DD	FLAT:?DestroyWindow@CWnd@@UAEHXZ
	DD	FLAT:?PreCreateWindow@CWnd@@UAEHAAUtagCREATESTRUCTA@@@Z
	DD	FLAT:?CalcWindowRect@CWnd@@UAEXPAUtagRECT@@I@Z
	DD	FLAT:?GetMenu@CWnd@@UBEPAVCMenu@@XZ
	DD	FLAT:?SetMenu@CWnd@@UAEHPAVCMenu@@@Z
	DD	FLAT:?OnToolHitTest@CWnd@@UBEHVCPoint@@PAUtagTOOLINFOA@@@Z
	DD	FLAT:?GetScrollBarCtrl@CWnd@@UBEPAVCScrollBar@@H@Z
	DD	FLAT:?WinHelpA@CWnd@@UAEXKI@Z
	DD	FLAT:?HtmlHelpA@CWnd@@UAEXKI@Z
	DD	FLAT:?WinHelpInternal@CWnd@@UAEXKI@Z
	DD	FLAT:?ContinueModal@CWnd@@UAEHXZ
	DD	FLAT:?EndModalLoop@CWnd@@UAEXH@Z
	DD	FLAT:?OnDrawIconicThumbnailOrLivePreview@CWnd@@UAEXAAVCDC@@VCRect@@VCSize@@HAAH@Z
	DD	FLAT:?EnsureStdObj@CWnd@@UAEJXZ
	DD	FLAT:?get_accParent@CWnd@@UAEJPAPAUIDispatch@@@Z
	DD	FLAT:?get_accChildCount@CWnd@@UAEJPAJ@Z
	DD	FLAT:?get_accChild@CWnd@@UAEJUtagVARIANT@@PAPAUIDispatch@@@Z
	DD	FLAT:?get_accName@CWnd@@UAEJUtagVARIANT@@PAPA_W@Z
	DD	FLAT:?get_accValue@CWnd@@UAEJUtagVARIANT@@PAPA_W@Z
	DD	FLAT:?get_accDescription@CWnd@@UAEJUtagVARIANT@@PAPA_W@Z
	DD	FLAT:?get_accRole@CWnd@@UAEJUtagVARIANT@@PAU2@@Z
	DD	FLAT:?get_accState@CWnd@@UAEJUtagVARIANT@@PAU2@@Z
	DD	FLAT:?get_accHelp@CWnd@@UAEJUtagVARIANT@@PAPA_W@Z
	DD	FLAT:?get_accHelpTopic@CWnd@@UAEJPAPA_WUtagVARIANT@@PAJ@Z
	DD	FLAT:?get_accKeyboardShortcut@CWnd@@UAEJUtagVARIANT@@PAPA_W@Z
	DD	FLAT:?get_accFocus@CWnd@@UAEJPAUtagVARIANT@@@Z
	DD	FLAT:?get_accSelection@CWnd@@UAEJPAUtagVARIANT@@@Z
	DD	FLAT:?get_accDefaultAction@CWnd@@UAEJUtagVARIANT@@PAPA_W@Z
	DD	FLAT:?accSelect@CWnd@@UAEJJUtagVARIANT@@@Z
	DD	FLAT:?accLocation@CWnd@@UAEJPAJ000UtagVARIANT@@@Z
	DD	FLAT:?accNavigate@CWnd@@UAEJJUtagVARIANT@@PAU2@@Z
	DD	FLAT:?accHitTest@CWnd@@UAEJJJPAUtagVARIANT@@@Z
	DD	FLAT:?accDoDefaultAction@CWnd@@UAEJUtagVARIANT@@@Z
	DD	FLAT:?put_accName@CWnd@@UAEJUtagVARIANT@@PA_W@Z
	DD	FLAT:?put_accValue@CWnd@@UAEJUtagVARIANT@@PA_W@Z
	DD	FLAT:?SetProxy@CWnd@@UAEJPAUIAccessibleProxy@@@Z
	DD	FLAT:?CreateAccessibleProxy@CWnd@@UAEJIJPAJ@Z
	DD	FLAT:?OnCommand@CWnd@@MAEHIJ@Z
	DD	FLAT:?OnNotify@CWnd@@MAEHIJPAJ@Z
	DD	FLAT:?GetSuperWndProcAddr@CWnd@@MAEPAP6GJPAUHWND__@@IIJ@ZXZ
	DD	FLAT:?DoDataExchange@CWnd@@MAEXPAVCDataExchange@@@Z
	DD	FLAT:?BeginModalState@CWnd@@UAEXXZ
	DD	FLAT:?EndModalState@CWnd@@UAEXXZ
	DD	FLAT:?PreTranslateMessage@CWnd@@UAEHPAUtagMSG@@@Z
	DD	FLAT:?OnAmbientProperty@CWnd@@UAEHPAVCOleControlSite@@JPAUtagVARIANT@@@Z
	DD	FLAT:?WindowProc@CWnd@@MAEJIIJ@Z
	DD	FLAT:?OnWndMsg@CWnd@@MAEHIIJPAJ@Z
	DD	FLAT:?DefWindowProcA@CWnd@@MAEJIIJ@Z
	DD	FLAT:?PostNcDestroy@CWnd@@MAEXXZ
	DD	FLAT:?OnChildNotify@CListCtrl@@MAEHIIJPAJ@Z
	DD	FLAT:?OnTouchInputs@CWnd@@MAEHIPAUtagTOUCHINPUT@@@Z
	DD	FLAT:?OnTouchInput@CWnd@@MAEHVCPoint@@HHPAUtagTOUCHINPUT@@@Z
	DD	FLAT:?GetGestureStatus@CWnd@@MAEKVCPoint@@@Z
	DD	FLAT:?OnGestureZoom@CWnd@@MAEHVCPoint@@J@Z
	DD	FLAT:?OnGesturePan@CWnd@@MAEHVCPoint@@0@Z
	DD	FLAT:?OnGestureRotate@CWnd@@MAEHVCPoint@@N@Z
	DD	FLAT:?OnGestureTwoFingerTap@CWnd@@MAEHVCPoint@@@Z
	DD	FLAT:?OnGesturePressAndTap@CWnd@@MAEHVCPoint@@J@Z
	DD	FLAT:?ResizeDynamicLayout@CWnd@@MAEXXZ
	DD	FLAT:?CheckAutoCenter@CWnd@@UAEHXZ
	DD	FLAT:?IsFrameWnd@CWnd@@UBEHXZ
	DD	FLAT:?CreateControlContainer@CWnd@@MAEHPAPAVCOleControlContainer@@@Z
	DD	FLAT:?CreateControlSite@CWnd@@MAEHPAVCOleControlContainer@@PAPAVCOleControlSite@@IABU_GUID@@@Z
	DD	FLAT:?SetOccDialogInfo@CWnd@@MAEHPAU_AFX_OCC_DIALOG_INFO@@@Z
	DD	FLAT:?GetOccDialogInfo@CWnd@@MAEPAU_AFX_OCC_DIALOG_INFO@@XZ
	DD	FLAT:?DrawItem@CListCtrl@@UAEXPAUtagDRAWITEMSTRUCT@@@Z
CONST	ENDS
;	COMDAT ??_7CCommonDialog@@6B@
CONST	SEGMENT
??_7CCommonDialog@@6B@ DD FLAT:??_R4CCommonDialog@@6B@	; CCommonDialog::`vftable'
	DD	FLAT:?GetRuntimeClass@CCommonDialog@@UBEPAUCRuntimeClass@@XZ
	DD	FLAT:??_ECCommonDialog@@UAEPAXI@Z
	DD	FLAT:?Serialize@CObject@@UAEXAAVCArchive@@@Z
	DD	FLAT:?AssertValid@CObject@@UBEXXZ
	DD	FLAT:?Dump@CObject@@UBEXAAVCDumpContext@@@Z
	DD	FLAT:?OnCmdMsg@CDialog@@UAEHIHPAXPAUAFX_CMDHANDLERINFO@@@Z
	DD	FLAT:?OnFinalRelease@CWnd@@UAEXXZ
	DD	FLAT:?IsInvokeAllowed@CCmdTarget@@UAEHJ@Z
	DD	FLAT:?GetDispatchIID@CCmdTarget@@UAEHPAU_GUID@@@Z
	DD	FLAT:?GetTypeInfoCount@CCmdTarget@@UAEIXZ
	DD	FLAT:?GetTypeLibCache@CCmdTarget@@UAEPAVCTypeLibCache@@XZ
	DD	FLAT:?GetTypeLib@CCmdTarget@@UAEJKPAPAUITypeLib@@@Z
	DD	FLAT:?GetMessageMap@CCommonDialog@@MBEPBUAFX_MSGMAP@@XZ
	DD	FLAT:?GetCommandMap@CCmdTarget@@MBEPBUAFX_OLECMDMAP@@XZ
	DD	FLAT:?GetDispatchMap@CCmdTarget@@MBEPBUAFX_DISPMAP@@XZ
	DD	FLAT:?GetConnectionMap@CCmdTarget@@MBEPBUAFX_CONNECTIONMAP@@XZ
	DD	FLAT:?GetInterfaceMap@CWnd@@MBEPBUAFX_INTERFACEMAP@@XZ
	DD	FLAT:?GetEventSinkMap@CCmdTarget@@MBEPBUAFX_EVENTSINKMAP@@XZ
	DD	FLAT:?OnCreateAggregates@CCmdTarget@@UAEHXZ
	DD	FLAT:?GetInterfaceHook@CCmdTarget@@UAEPAUIUnknown@@PBX@Z
	DD	FLAT:?GetExtraConnectionPoints@CCmdTarget@@MAEHPAVCPtrArray@@@Z
	DD	FLAT:?GetConnectionHook@CCmdTarget@@MAEPAUIConnectionPoint@@ABU_GUID@@@Z
	DD	FLAT:?PreSubclassWindow@CWnd@@UAEXXZ
	DD	FLAT:?Create@CWnd@@UAEHPBD0KABUtagRECT@@PAV1@IPAUCCreateContext@@@Z
	DD	FLAT:?CreateEx@CWnd@@UAEHKPBD0KABUtagRECT@@PAV1@IPAX@Z
	DD	FLAT:?CreateEx@CWnd@@UAEHKPBD0KHHHHPAUHWND__@@PAUHMENU__@@PAX@Z
	DD	FLAT:?DestroyWindow@CWnd@@UAEHXZ
	DD	FLAT:?PreCreateWindow@CWnd@@UAEHAAUtagCREATESTRUCTA@@@Z
	DD	FLAT:?CalcWindowRect@CWnd@@UAEXPAUtagRECT@@I@Z
	DD	FLAT:?GetMenu@CWnd@@UBEPAVCMenu@@XZ
	DD	FLAT:?SetMenu@CWnd@@UAEHPAVCMenu@@@Z
	DD	FLAT:?OnToolHitTest@CWnd@@UBEHVCPoint@@PAUtagTOOLINFOA@@@Z
	DD	FLAT:?GetScrollBarCtrl@CWnd@@UBEPAVCScrollBar@@H@Z
	DD	FLAT:?WinHelpA@CWnd@@UAEXKI@Z
	DD	FLAT:?HtmlHelpA@CWnd@@UAEXKI@Z
	DD	FLAT:?WinHelpInternal@CWnd@@UAEXKI@Z
	DD	FLAT:?ContinueModal@CWnd@@UAEHXZ
	DD	FLAT:?EndModalLoop@CWnd@@UAEXH@Z
	DD	FLAT:?OnDrawIconicThumbnailOrLivePreview@CWnd@@UAEXAAVCDC@@VCRect@@VCSize@@HAAH@Z
	DD	FLAT:?EnsureStdObj@CWnd@@UAEJXZ
	DD	FLAT:?get_accParent@CWnd@@UAEJPAPAUIDispatch@@@Z
	DD	FLAT:?get_accChildCount@CWnd@@UAEJPAJ@Z
	DD	FLAT:?get_accChild@CWnd@@UAEJUtagVARIANT@@PAPAUIDispatch@@@Z
	DD	FLAT:?get_accName@CWnd@@UAEJUtagVARIANT@@PAPA_W@Z
	DD	FLAT:?get_accValue@CWnd@@UAEJUtagVARIANT@@PAPA_W@Z
	DD	FLAT:?get_accDescription@CWnd@@UAEJUtagVARIANT@@PAPA_W@Z
	DD	FLAT:?get_accRole@CWnd@@UAEJUtagVARIANT@@PAU2@@Z
	DD	FLAT:?get_accState@CWnd@@UAEJUtagVARIANT@@PAU2@@Z
	DD	FLAT:?get_accHelp@CWnd@@UAEJUtagVARIANT@@PAPA_W@Z
	DD	FLAT:?get_accHelpTopic@CWnd@@UAEJPAPA_WUtagVARIANT@@PAJ@Z
	DD	FLAT:?get_accKeyboardShortcut@CWnd@@UAEJUtagVARIANT@@PAPA_W@Z
	DD	FLAT:?get_accFocus@CWnd@@UAEJPAUtagVARIANT@@@Z
	DD	FLAT:?get_accSelection@CWnd@@UAEJPAUtagVARIANT@@@Z
	DD	FLAT:?get_accDefaultAction@CWnd@@UAEJUtagVARIANT@@PAPA_W@Z
	DD	FLAT:?accSelect@CWnd@@UAEJJUtagVARIANT@@@Z
	DD	FLAT:?accLocation@CWnd@@UAEJPAJ000UtagVARIANT@@@Z
	DD	FLAT:?accNavigate@CWnd@@UAEJJUtagVARIANT@@PAU2@@Z
	DD	FLAT:?accHitTest@CWnd@@UAEJJJPAUtagVARIANT@@@Z
	DD	FLAT:?accDoDefaultAction@CWnd@@UAEJUtagVARIANT@@@Z
	DD	FLAT:?put_accName@CWnd@@UAEJUtagVARIANT@@PA_W@Z
	DD	FLAT:?put_accValue@CWnd@@UAEJUtagVARIANT@@PA_W@Z
	DD	FLAT:?SetProxy@CWnd@@UAEJPAUIAccessibleProxy@@@Z
	DD	FLAT:?CreateAccessibleProxy@CWnd@@UAEJIJPAJ@Z
	DD	FLAT:?OnCommand@CWnd@@MAEHIJ@Z
	DD	FLAT:?OnNotify@CWnd@@MAEHIJPAJ@Z
	DD	FLAT:?GetSuperWndProcAddr@CWnd@@MAEPAP6GJPAUHWND__@@IIJ@ZXZ
	DD	FLAT:?DoDataExchange@CWnd@@MAEXPAVCDataExchange@@@Z
	DD	FLAT:?BeginModalState@CWnd@@UAEXXZ
	DD	FLAT:?EndModalState@CWnd@@UAEXXZ
	DD	FLAT:?PreTranslateMessage@CDialog@@UAEHPAUtagMSG@@@Z
	DD	FLAT:?OnAmbientProperty@CWnd@@UAEHPAVCOleControlSite@@JPAUtagVARIANT@@@Z
	DD	FLAT:?WindowProc@CWnd@@MAEJIIJ@Z
	DD	FLAT:?OnWndMsg@CWnd@@MAEHIIJPAJ@Z
	DD	FLAT:?DefWindowProcA@CWnd@@MAEJIIJ@Z
	DD	FLAT:?PostNcDestroy@CWnd@@MAEXXZ
	DD	FLAT:?OnChildNotify@CWnd@@MAEHIIJPAJ@Z
	DD	FLAT:?OnTouchInputs@CWnd@@MAEHIPAUtagTOUCHINPUT@@@Z
	DD	FLAT:?OnTouchInput@CWnd@@MAEHVCPoint@@HHPAUtagTOUCHINPUT@@@Z
	DD	FLAT:?GetGestureStatus@CWnd@@MAEKVCPoint@@@Z
	DD	FLAT:?OnGestureZoom@CWnd@@MAEHVCPoint@@J@Z
	DD	FLAT:?OnGesturePan@CWnd@@MAEHVCPoint@@0@Z
	DD	FLAT:?OnGestureRotate@CWnd@@MAEHVCPoint@@N@Z
	DD	FLAT:?OnGestureTwoFingerTap@CWnd@@MAEHVCPoint@@@Z
	DD	FLAT:?OnGesturePressAndTap@CWnd@@MAEHVCPoint@@J@Z
	DD	FLAT:?ResizeDynamicLayout@CWnd@@MAEXXZ
	DD	FLAT:?CheckAutoCenter@CDialog@@UAEHXZ
	DD	FLAT:?IsFrameWnd@CWnd@@UBEHXZ
	DD	FLAT:?CreateControlContainer@CWnd@@MAEHPAPAVCOleControlContainer@@@Z
	DD	FLAT:?CreateControlSite@CWnd@@MAEHPAVCOleControlContainer@@PAPAVCOleControlSite@@IABU_GUID@@@Z
	DD	FLAT:?SetOccDialogInfo@CDialog@@MAEHPAU_AFX_OCC_DIALOG_INFO@@@Z
	DD	FLAT:?GetOccDialogInfo@CDialog@@MAEPAU_AFX_OCC_DIALOG_INFO@@XZ
	DD	FLAT:?Create@CDialog@@UAEHIPAVCWnd@@@Z
	DD	FLAT:?Create@CDialog@@UAEHPBDPAVCWnd@@@Z
	DD	FLAT:?CreateIndirect@CDialog@@UAEHPAXPAVCWnd@@@Z
	DD	FLAT:?CreateIndirect@CDialog@@UAEHPBUDLGTEMPLATE@@PAVCWnd@@PAX@Z
	DD	FLAT:?DoModal@CDialog@@UAEHXZ
	DD	FLAT:?OnInitDialog@CDialog@@UAEHXZ
	DD	FLAT:?OnSetFont@CDialog@@UAEXPAVCFont@@@Z
	DD	FLAT:?OnOK@CCommonDialog@@MAEXXZ
	DD	FLAT:?OnCancel@CCommonDialog@@MAEXXZ
	DD	FLAT:?PreInitDialog@CDialog@@MAEXXZ
CONST	ENDS
;	COMDAT ??_7CEdit@@6B@
CONST	SEGMENT
??_7CEdit@@6B@ DD FLAT:??_R4CEdit@@6B@			; CEdit::`vftable'
	DD	FLAT:?GetRuntimeClass@CEdit@@UBEPAUCRuntimeClass@@XZ
	DD	FLAT:??_ECEdit@@UAEPAXI@Z
	DD	FLAT:?Serialize@CObject@@UAEXAAVCArchive@@@Z
	DD	FLAT:?AssertValid@CObject@@UBEXXZ
	DD	FLAT:?Dump@CObject@@UBEXAAVCDumpContext@@@Z
	DD	FLAT:?OnCmdMsg@CCmdTarget@@UAEHIHPAXPAUAFX_CMDHANDLERINFO@@@Z
	DD	FLAT:?OnFinalRelease@CWnd@@UAEXXZ
	DD	FLAT:?IsInvokeAllowed@CCmdTarget@@UAEHJ@Z
	DD	FLAT:?GetDispatchIID@CCmdTarget@@UAEHPAU_GUID@@@Z
	DD	FLAT:?GetTypeInfoCount@CCmdTarget@@UAEIXZ
	DD	FLAT:?GetTypeLibCache@CCmdTarget@@UAEPAVCTypeLibCache@@XZ
	DD	FLAT:?GetTypeLib@CCmdTarget@@UAEJKPAPAUITypeLib@@@Z
	DD	FLAT:?GetMessageMap@CWnd@@MBEPBUAFX_MSGMAP@@XZ
	DD	FLAT:?GetCommandMap@CCmdTarget@@MBEPBUAFX_OLECMDMAP@@XZ
	DD	FLAT:?GetDispatchMap@CCmdTarget@@MBEPBUAFX_DISPMAP@@XZ
	DD	FLAT:?GetConnectionMap@CCmdTarget@@MBEPBUAFX_CONNECTIONMAP@@XZ
	DD	FLAT:?GetInterfaceMap@CWnd@@MBEPBUAFX_INTERFACEMAP@@XZ
	DD	FLAT:?GetEventSinkMap@CCmdTarget@@MBEPBUAFX_EVENTSINKMAP@@XZ
	DD	FLAT:?OnCreateAggregates@CCmdTarget@@UAEHXZ
	DD	FLAT:?GetInterfaceHook@CCmdTarget@@UAEPAUIUnknown@@PBX@Z
	DD	FLAT:?GetExtraConnectionPoints@CCmdTarget@@MAEHPAVCPtrArray@@@Z
	DD	FLAT:?GetConnectionHook@CCmdTarget@@MAEPAUIConnectionPoint@@ABU_GUID@@@Z
	DD	FLAT:?PreSubclassWindow@CWnd@@UAEXXZ
	DD	FLAT:?Create@CWnd@@UAEHPBD0KABUtagRECT@@PAV1@IPAUCCreateContext@@@Z
	DD	FLAT:?CreateEx@CWnd@@UAEHKPBD0KABUtagRECT@@PAV1@IPAX@Z
	DD	FLAT:?CreateEx@CWnd@@UAEHKPBD0KHHHHPAUHWND__@@PAUHMENU__@@PAX@Z
	DD	FLAT:?DestroyWindow@CWnd@@UAEHXZ
	DD	FLAT:?PreCreateWindow@CWnd@@UAEHAAUtagCREATESTRUCTA@@@Z
	DD	FLAT:?CalcWindowRect@CWnd@@UAEXPAUtagRECT@@I@Z
	DD	FLAT:?GetMenu@CWnd@@UBEPAVCMenu@@XZ
	DD	FLAT:?SetMenu@CWnd@@UAEHPAVCMenu@@@Z
	DD	FLAT:?OnToolHitTest@CWnd@@UBEHVCPoint@@PAUtagTOOLINFOA@@@Z
	DD	FLAT:?GetScrollBarCtrl@CWnd@@UBEPAVCScrollBar@@H@Z
	DD	FLAT:?WinHelpA@CWnd@@UAEXKI@Z
	DD	FLAT:?HtmlHelpA@CWnd@@UAEXKI@Z
	DD	FLAT:?WinHelpInternal@CWnd@@UAEXKI@Z
	DD	FLAT:?ContinueModal@CWnd@@UAEHXZ
	DD	FLAT:?EndModalLoop@CWnd@@UAEXH@Z
	DD	FLAT:?OnDrawIconicThumbnailOrLivePreview@CWnd@@UAEXAAVCDC@@VCRect@@VCSize@@HAAH@Z
	DD	FLAT:?EnsureStdObj@CWnd@@UAEJXZ
	DD	FLAT:?get_accParent@CWnd@@UAEJPAPAUIDispatch@@@Z
	DD	FLAT:?get_accChildCount@CWnd@@UAEJPAJ@Z
	DD	FLAT:?get_accChild@CWnd@@UAEJUtagVARIANT@@PAPAUIDispatch@@@Z
	DD	FLAT:?get_accName@CWnd@@UAEJUtagVARIANT@@PAPA_W@Z
	DD	FLAT:?get_accValue@CWnd@@UAEJUtagVARIANT@@PAPA_W@Z
	DD	FLAT:?get_accDescription@CWnd@@UAEJUtagVARIANT@@PAPA_W@Z
	DD	FLAT:?get_accRole@CWnd@@UAEJUtagVARIANT@@PAU2@@Z
	DD	FLAT:?get_accState@CWnd@@UAEJUtagVARIANT@@PAU2@@Z
	DD	FLAT:?get_accHelp@CWnd@@UAEJUtagVARIANT@@PAPA_W@Z
	DD	FLAT:?get_accHelpTopic@CWnd@@UAEJPAPA_WUtagVARIANT@@PAJ@Z
	DD	FLAT:?get_accKeyboardShortcut@CWnd@@UAEJUtagVARIANT@@PAPA_W@Z
	DD	FLAT:?get_accFocus@CWnd@@UAEJPAUtagVARIANT@@@Z
	DD	FLAT:?get_accSelection@CWnd@@UAEJPAUtagVARIANT@@@Z
	DD	FLAT:?get_accDefaultAction@CWnd@@UAEJUtagVARIANT@@PAPA_W@Z
	DD	FLAT:?accSelect@CWnd@@UAEJJUtagVARIANT@@@Z
	DD	FLAT:?accLocation@CWnd@@UAEJPAJ000UtagVARIANT@@@Z
	DD	FLAT:?accNavigate@CWnd@@UAEJJUtagVARIANT@@PAU2@@Z
	DD	FLAT:?accHitTest@CWnd@@UAEJJJPAUtagVARIANT@@@Z
	DD	FLAT:?accDoDefaultAction@CWnd@@UAEJUtagVARIANT@@@Z
	DD	FLAT:?put_accName@CWnd@@UAEJUtagVARIANT@@PA_W@Z
	DD	FLAT:?put_accValue@CWnd@@UAEJUtagVARIANT@@PA_W@Z
	DD	FLAT:?SetProxy@CWnd@@UAEJPAUIAccessibleProxy@@@Z
	DD	FLAT:?CreateAccessibleProxy@CWnd@@UAEJIJPAJ@Z
	DD	FLAT:?OnCommand@CWnd@@MAEHIJ@Z
	DD	FLAT:?OnNotify@CWnd@@MAEHIJPAJ@Z
	DD	FLAT:?GetSuperWndProcAddr@CWnd@@MAEPAP6GJPAUHWND__@@IIJ@ZXZ
	DD	FLAT:?DoDataExchange@CWnd@@MAEXPAVCDataExchange@@@Z
	DD	FLAT:?BeginModalState@CWnd@@UAEXXZ
	DD	FLAT:?EndModalState@CWnd@@UAEXXZ
	DD	FLAT:?PreTranslateMessage@CWnd@@UAEHPAUtagMSG@@@Z
	DD	FLAT:?OnAmbientProperty@CWnd@@UAEHPAVCOleControlSite@@JPAUtagVARIANT@@@Z
	DD	FLAT:?WindowProc@CWnd@@MAEJIIJ@Z
	DD	FLAT:?OnWndMsg@CWnd@@MAEHIIJPAJ@Z
	DD	FLAT:?DefWindowProcA@CWnd@@MAEJIIJ@Z
	DD	FLAT:?PostNcDestroy@CWnd@@MAEXXZ
	DD	FLAT:?OnChildNotify@CWnd@@MAEHIIJPAJ@Z
	DD	FLAT:?OnTouchInputs@CWnd@@MAEHIPAUtagTOUCHINPUT@@@Z
	DD	FLAT:?OnTouchInput@CWnd@@MAEHVCPoint@@HHPAUtagTOUCHINPUT@@@Z
	DD	FLAT:?GetGestureStatus@CWnd@@MAEKVCPoint@@@Z
	DD	FLAT:?OnGestureZoom@CWnd@@MAEHVCPoint@@J@Z
	DD	FLAT:?OnGesturePan@CWnd@@MAEHVCPoint@@0@Z
	DD	FLAT:?OnGestureRotate@CWnd@@MAEHVCPoint@@N@Z
	DD	FLAT:?OnGestureTwoFingerTap@CWnd@@MAEHVCPoint@@@Z
	DD	FLAT:?OnGesturePressAndTap@CWnd@@MAEHVCPoint@@J@Z
	DD	FLAT:?ResizeDynamicLayout@CWnd@@MAEXXZ
	DD	FLAT:?CheckAutoCenter@CWnd@@UAEHXZ
	DD	FLAT:?IsFrameWnd@CWnd@@UBEHXZ
	DD	FLAT:?CreateControlContainer@CWnd@@MAEHPAPAVCOleControlContainer@@@Z
	DD	FLAT:?CreateControlSite@CWnd@@MAEHPAVCOleControlContainer@@PAPAVCOleControlSite@@IABU_GUID@@@Z
	DD	FLAT:?SetOccDialogInfo@CWnd@@MAEHPAU_AFX_OCC_DIALOG_INFO@@@Z
	DD	FLAT:?GetOccDialogInfo@CWnd@@MAEPAU_AFX_OCC_DIALOG_INFO@@XZ
CONST	ENDS
;	COMDAT ??_7CButton@@6B@
CONST	SEGMENT
??_7CButton@@6B@ DD FLAT:??_R4CButton@@6B@		; CButton::`vftable'
	DD	FLAT:?GetRuntimeClass@CButton@@UBEPAUCRuntimeClass@@XZ
	DD	FLAT:??_ECButton@@UAEPAXI@Z
	DD	FLAT:?Serialize@CObject@@UAEXAAVCArchive@@@Z
	DD	FLAT:?AssertValid@CObject@@UBEXXZ
	DD	FLAT:?Dump@CObject@@UBEXAAVCDumpContext@@@Z
	DD	FLAT:?OnCmdMsg@CCmdTarget@@UAEHIHPAXPAUAFX_CMDHANDLERINFO@@@Z
	DD	FLAT:?OnFinalRelease@CWnd@@UAEXXZ
	DD	FLAT:?IsInvokeAllowed@CCmdTarget@@UAEHJ@Z
	DD	FLAT:?GetDispatchIID@CCmdTarget@@UAEHPAU_GUID@@@Z
	DD	FLAT:?GetTypeInfoCount@CCmdTarget@@UAEIXZ
	DD	FLAT:?GetTypeLibCache@CCmdTarget@@UAEPAVCTypeLibCache@@XZ
	DD	FLAT:?GetTypeLib@CCmdTarget@@UAEJKPAPAUITypeLib@@@Z
	DD	FLAT:?GetMessageMap@CWnd@@MBEPBUAFX_MSGMAP@@XZ
	DD	FLAT:?GetCommandMap@CCmdTarget@@MBEPBUAFX_OLECMDMAP@@XZ
	DD	FLAT:?GetDispatchMap@CCmdTarget@@MBEPBUAFX_DISPMAP@@XZ
	DD	FLAT:?GetConnectionMap@CCmdTarget@@MBEPBUAFX_CONNECTIONMAP@@XZ
	DD	FLAT:?GetInterfaceMap@CWnd@@MBEPBUAFX_INTERFACEMAP@@XZ
	DD	FLAT:?GetEventSinkMap@CCmdTarget@@MBEPBUAFX_EVENTSINKMAP@@XZ
	DD	FLAT:?OnCreateAggregates@CCmdTarget@@UAEHXZ
	DD	FLAT:?GetInterfaceHook@CCmdTarget@@UAEPAUIUnknown@@PBX@Z
	DD	FLAT:?GetExtraConnectionPoints@CCmdTarget@@MAEHPAVCPtrArray@@@Z
	DD	FLAT:?GetConnectionHook@CCmdTarget@@MAEPAUIConnectionPoint@@ABU_GUID@@@Z
	DD	FLAT:?PreSubclassWindow@CWnd@@UAEXXZ
	DD	FLAT:?Create@CWnd@@UAEHPBD0KABUtagRECT@@PAV1@IPAUCCreateContext@@@Z
	DD	FLAT:?CreateEx@CWnd@@UAEHKPBD0KABUtagRECT@@PAV1@IPAX@Z
	DD	FLAT:?CreateEx@CWnd@@UAEHKPBD0KHHHHPAUHWND__@@PAUHMENU__@@PAX@Z
	DD	FLAT:?DestroyWindow@CWnd@@UAEHXZ
	DD	FLAT:?PreCreateWindow@CWnd@@UAEHAAUtagCREATESTRUCTA@@@Z
	DD	FLAT:?CalcWindowRect@CWnd@@UAEXPAUtagRECT@@I@Z
	DD	FLAT:?GetMenu@CWnd@@UBEPAVCMenu@@XZ
	DD	FLAT:?SetMenu@CWnd@@UAEHPAVCMenu@@@Z
	DD	FLAT:?OnToolHitTest@CWnd@@UBEHVCPoint@@PAUtagTOOLINFOA@@@Z
	DD	FLAT:?GetScrollBarCtrl@CWnd@@UBEPAVCScrollBar@@H@Z
	DD	FLAT:?WinHelpA@CWnd@@UAEXKI@Z
	DD	FLAT:?HtmlHelpA@CWnd@@UAEXKI@Z
	DD	FLAT:?WinHelpInternal@CWnd@@UAEXKI@Z
	DD	FLAT:?ContinueModal@CWnd@@UAEHXZ
	DD	FLAT:?EndModalLoop@CWnd@@UAEXH@Z
	DD	FLAT:?OnDrawIconicThumbnailOrLivePreview@CWnd@@UAEXAAVCDC@@VCRect@@VCSize@@HAAH@Z
	DD	FLAT:?EnsureStdObj@CWnd@@UAEJXZ
	DD	FLAT:?get_accParent@CWnd@@UAEJPAPAUIDispatch@@@Z
	DD	FLAT:?get_accChildCount@CWnd@@UAEJPAJ@Z
	DD	FLAT:?get_accChild@CWnd@@UAEJUtagVARIANT@@PAPAUIDispatch@@@Z
	DD	FLAT:?get_accName@CWnd@@UAEJUtagVARIANT@@PAPA_W@Z
	DD	FLAT:?get_accValue@CWnd@@UAEJUtagVARIANT@@PAPA_W@Z
	DD	FLAT:?get_accDescription@CWnd@@UAEJUtagVARIANT@@PAPA_W@Z
	DD	FLAT:?get_accRole@CWnd@@UAEJUtagVARIANT@@PAU2@@Z
	DD	FLAT:?get_accState@CWnd@@UAEJUtagVARIANT@@PAU2@@Z
	DD	FLAT:?get_accHelp@CWnd@@UAEJUtagVARIANT@@PAPA_W@Z
	DD	FLAT:?get_accHelpTopic@CWnd@@UAEJPAPA_WUtagVARIANT@@PAJ@Z
	DD	FLAT:?get_accKeyboardShortcut@CWnd@@UAEJUtagVARIANT@@PAPA_W@Z
	DD	FLAT:?get_accFocus@CWnd@@UAEJPAUtagVARIANT@@@Z
	DD	FLAT:?get_accSelection@CWnd@@UAEJPAUtagVARIANT@@@Z
	DD	FLAT:?get_accDefaultAction@CWnd@@UAEJUtagVARIANT@@PAPA_W@Z
	DD	FLAT:?accSelect@CWnd@@UAEJJUtagVARIANT@@@Z
	DD	FLAT:?accLocation@CWnd@@UAEJPAJ000UtagVARIANT@@@Z
	DD	FLAT:?accNavigate@CWnd@@UAEJJUtagVARIANT@@PAU2@@Z
	DD	FLAT:?accHitTest@CWnd@@UAEJJJPAUtagVARIANT@@@Z
	DD	FLAT:?accDoDefaultAction@CWnd@@UAEJUtagVARIANT@@@Z
	DD	FLAT:?put_accName@CWnd@@UAEJUtagVARIANT@@PA_W@Z
	DD	FLAT:?put_accValue@CWnd@@UAEJUtagVARIANT@@PA_W@Z
	DD	FLAT:?SetProxy@CWnd@@UAEJPAUIAccessibleProxy@@@Z
	DD	FLAT:?CreateAccessibleProxy@CWnd@@UAEJIJPAJ@Z
	DD	FLAT:?OnCommand@CWnd@@MAEHIJ@Z
	DD	FLAT:?OnNotify@CWnd@@MAEHIJPAJ@Z
	DD	FLAT:?GetSuperWndProcAddr@CWnd@@MAEPAP6GJPAUHWND__@@IIJ@ZXZ
	DD	FLAT:?DoDataExchange@CWnd@@MAEXPAVCDataExchange@@@Z
	DD	FLAT:?BeginModalState@CWnd@@UAEXXZ
	DD	FLAT:?EndModalState@CWnd@@UAEXXZ
	DD	FLAT:?PreTranslateMessage@CWnd@@UAEHPAUtagMSG@@@Z
	DD	FLAT:?OnAmbientProperty@CWnd@@UAEHPAVCOleControlSite@@JPAUtagVARIANT@@@Z
	DD	FLAT:?WindowProc@CWnd@@MAEJIIJ@Z
	DD	FLAT:?OnWndMsg@CWnd@@MAEHIIJPAJ@Z
	DD	FLAT:?DefWindowProcA@CWnd@@MAEJIIJ@Z
	DD	FLAT:?PostNcDestroy@CWnd@@MAEXXZ
	DD	FLAT:?OnChildNotify@CButton@@MAEHIIJPAJ@Z
	DD	FLAT:?OnTouchInputs@CWnd@@MAEHIPAUtagTOUCHINPUT@@@Z
	DD	FLAT:?OnTouchInput@CWnd@@MAEHVCPoint@@HHPAUtagTOUCHINPUT@@@Z
	DD	FLAT:?GetGestureStatus@CWnd@@MAEKVCPoint@@@Z
	DD	FLAT:?OnGestureZoom@CWnd@@MAEHVCPoint@@J@Z
	DD	FLAT:?OnGesturePan@CWnd@@MAEHVCPoint@@0@Z
	DD	FLAT:?OnGestureRotate@CWnd@@MAEHVCPoint@@N@Z
	DD	FLAT:?OnGestureTwoFingerTap@CWnd@@MAEHVCPoint@@@Z
	DD	FLAT:?OnGesturePressAndTap@CWnd@@MAEHVCPoint@@J@Z
	DD	FLAT:?ResizeDynamicLayout@CWnd@@MAEXXZ
	DD	FLAT:?CheckAutoCenter@CWnd@@UAEHXZ
	DD	FLAT:?IsFrameWnd@CWnd@@UBEHXZ
	DD	FLAT:?CreateControlContainer@CWnd@@MAEHPAPAVCOleControlContainer@@@Z
	DD	FLAT:?CreateControlSite@CWnd@@MAEHPAVCOleControlContainer@@PAPAVCOleControlSite@@IABU_GUID@@@Z
	DD	FLAT:?SetOccDialogInfo@CWnd@@MAEHPAU_AFX_OCC_DIALOG_INFO@@@Z
	DD	FLAT:?GetOccDialogInfo@CWnd@@MAEPAU_AFX_OCC_DIALOG_INFO@@XZ
	DD	FLAT:?Create@CButton@@UAEHPBDKABUtagRECT@@PAVCWnd@@I@Z
	DD	FLAT:?DrawItem@CButton@@UAEXPAUtagDRAWITEMSTRUCT@@@Z
CONST	ENDS
;	COMDAT ??_7CStatic@@6B@
CONST	SEGMENT
??_7CStatic@@6B@ DD FLAT:??_R4CStatic@@6B@		; CStatic::`vftable'
	DD	FLAT:?GetRuntimeClass@CStatic@@UBEPAUCRuntimeClass@@XZ
	DD	FLAT:??_ECStatic@@UAEPAXI@Z
	DD	FLAT:?Serialize@CObject@@UAEXAAVCArchive@@@Z
	DD	FLAT:?AssertValid@CObject@@UBEXXZ
	DD	FLAT:?Dump@CObject@@UBEXAAVCDumpContext@@@Z
	DD	FLAT:?OnCmdMsg@CCmdTarget@@UAEHIHPAXPAUAFX_CMDHANDLERINFO@@@Z
	DD	FLAT:?OnFinalRelease@CWnd@@UAEXXZ
	DD	FLAT:?IsInvokeAllowed@CCmdTarget@@UAEHJ@Z
	DD	FLAT:?GetDispatchIID@CCmdTarget@@UAEHPAU_GUID@@@Z
	DD	FLAT:?GetTypeInfoCount@CCmdTarget@@UAEIXZ
	DD	FLAT:?GetTypeLibCache@CCmdTarget@@UAEPAVCTypeLibCache@@XZ
	DD	FLAT:?GetTypeLib@CCmdTarget@@UAEJKPAPAUITypeLib@@@Z
	DD	FLAT:?GetMessageMap@CWnd@@MBEPBUAFX_MSGMAP@@XZ
	DD	FLAT:?GetCommandMap@CCmdTarget@@MBEPBUAFX_OLECMDMAP@@XZ
	DD	FLAT:?GetDispatchMap@CCmdTarget@@MBEPBUAFX_DISPMAP@@XZ
	DD	FLAT:?GetConnectionMap@CCmdTarget@@MBEPBUAFX_CONNECTIONMAP@@XZ
	DD	FLAT:?GetInterfaceMap@CWnd@@MBEPBUAFX_INTERFACEMAP@@XZ
	DD	FLAT:?GetEventSinkMap@CCmdTarget@@MBEPBUAFX_EVENTSINKMAP@@XZ
	DD	FLAT:?OnCreateAggregates@CCmdTarget@@UAEHXZ
	DD	FLAT:?GetInterfaceHook@CCmdTarget@@UAEPAUIUnknown@@PBX@Z
	DD	FLAT:?GetExtraConnectionPoints@CCmdTarget@@MAEHPAVCPtrArray@@@Z
	DD	FLAT:?GetConnectionHook@CCmdTarget@@MAEPAUIConnectionPoint@@ABU_GUID@@@Z
	DD	FLAT:?PreSubclassWindow@CWnd@@UAEXXZ
	DD	FLAT:?Create@CWnd@@UAEHPBD0KABUtagRECT@@PAV1@IPAUCCreateContext@@@Z
	DD	FLAT:?CreateEx@CWnd@@UAEHKPBD0KABUtagRECT@@PAV1@IPAX@Z
	DD	FLAT:?CreateEx@CWnd@@UAEHKPBD0KHHHHPAUHWND__@@PAUHMENU__@@PAX@Z
	DD	FLAT:?DestroyWindow@CWnd@@UAEHXZ
	DD	FLAT:?PreCreateWindow@CWnd@@UAEHAAUtagCREATESTRUCTA@@@Z
	DD	FLAT:?CalcWindowRect@CWnd@@UAEXPAUtagRECT@@I@Z
	DD	FLAT:?GetMenu@CWnd@@UBEPAVCMenu@@XZ
	DD	FLAT:?SetMenu@CWnd@@UAEHPAVCMenu@@@Z
	DD	FLAT:?OnToolHitTest@CWnd@@UBEHVCPoint@@PAUtagTOOLINFOA@@@Z
	DD	FLAT:?GetScrollBarCtrl@CWnd@@UBEPAVCScrollBar@@H@Z
	DD	FLAT:?WinHelpA@CWnd@@UAEXKI@Z
	DD	FLAT:?HtmlHelpA@CWnd@@UAEXKI@Z
	DD	FLAT:?WinHelpInternal@CWnd@@UAEXKI@Z
	DD	FLAT:?ContinueModal@CWnd@@UAEHXZ
	DD	FLAT:?EndModalLoop@CWnd@@UAEXH@Z
	DD	FLAT:?OnDrawIconicThumbnailOrLivePreview@CWnd@@UAEXAAVCDC@@VCRect@@VCSize@@HAAH@Z
	DD	FLAT:?EnsureStdObj@CWnd@@UAEJXZ
	DD	FLAT:?get_accParent@CWnd@@UAEJPAPAUIDispatch@@@Z
	DD	FLAT:?get_accChildCount@CWnd@@UAEJPAJ@Z
	DD	FLAT:?get_accChild@CWnd@@UAEJUtagVARIANT@@PAPAUIDispatch@@@Z
	DD	FLAT:?get_accName@CWnd@@UAEJUtagVARIANT@@PAPA_W@Z
	DD	FLAT:?get_accValue@CWnd@@UAEJUtagVARIANT@@PAPA_W@Z
	DD	FLAT:?get_accDescription@CWnd@@UAEJUtagVARIANT@@PAPA_W@Z
	DD	FLAT:?get_accRole@CWnd@@UAEJUtagVARIANT@@PAU2@@Z
	DD	FLAT:?get_accState@CWnd@@UAEJUtagVARIANT@@PAU2@@Z
	DD	FLAT:?get_accHelp@CWnd@@UAEJUtagVARIANT@@PAPA_W@Z
	DD	FLAT:?get_accHelpTopic@CWnd@@UAEJPAPA_WUtagVARIANT@@PAJ@Z
	DD	FLAT:?get_accKeyboardShortcut@CWnd@@UAEJUtagVARIANT@@PAPA_W@Z
	DD	FLAT:?get_accFocus@CWnd@@UAEJPAUtagVARIANT@@@Z
	DD	FLAT:?get_accSelection@CWnd@@UAEJPAUtagVARIANT@@@Z
	DD	FLAT:?get_accDefaultAction@CWnd@@UAEJUtagVARIANT@@PAPA_W@Z
	DD	FLAT:?accSelect@CWnd@@UAEJJUtagVARIANT@@@Z
	DD	FLAT:?accLocation@CWnd@@UAEJPAJ000UtagVARIANT@@@Z
	DD	FLAT:?accNavigate@CWnd@@UAEJJUtagVARIANT@@PAU2@@Z
	DD	FLAT:?accHitTest@CWnd@@UAEJJJPAUtagVARIANT@@@Z
	DD	FLAT:?accDoDefaultAction@CWnd@@UAEJUtagVARIANT@@@Z
	DD	FLAT:?put_accName@CWnd@@UAEJUtagVARIANT@@PA_W@Z
	DD	FLAT:?put_accValue@CWnd@@UAEJUtagVARIANT@@PA_W@Z
	DD	FLAT:?SetProxy@CWnd@@UAEJPAUIAccessibleProxy@@@Z
	DD	FLAT:?CreateAccessibleProxy@CWnd@@UAEJIJPAJ@Z
	DD	FLAT:?OnCommand@CWnd@@MAEHIJ@Z
	DD	FLAT:?OnNotify@CWnd@@MAEHIJPAJ@Z
	DD	FLAT:?GetSuperWndProcAddr@CWnd@@MAEPAP6GJPAUHWND__@@IIJ@ZXZ
	DD	FLAT:?DoDataExchange@CWnd@@MAEXPAVCDataExchange@@@Z
	DD	FLAT:?BeginModalState@CWnd@@UAEXXZ
	DD	FLAT:?EndModalState@CWnd@@UAEXXZ
	DD	FLAT:?PreTranslateMessage@CWnd@@UAEHPAUtagMSG@@@Z
	DD	FLAT:?OnAmbientProperty@CWnd@@UAEHPAVCOleControlSite@@JPAUtagVARIANT@@@Z
	DD	FLAT:?WindowProc@CWnd@@MAEJIIJ@Z
	DD	FLAT:?OnWndMsg@CWnd@@MAEHIIJPAJ@Z
	DD	FLAT:?DefWindowProcA@CWnd@@MAEJIIJ@Z
	DD	FLAT:?PostNcDestroy@CWnd@@MAEXXZ
	DD	FLAT:?OnChildNotify@CStatic@@MAEHIIJPAJ@Z
	DD	FLAT:?OnTouchInputs@CWnd@@MAEHIPAUtagTOUCHINPUT@@@Z
	DD	FLAT:?OnTouchInput@CWnd@@MAEHVCPoint@@HHPAUtagTOUCHINPUT@@@Z
	DD	FLAT:?GetGestureStatus@CWnd@@MAEKVCPoint@@@Z
	DD	FLAT:?OnGestureZoom@CWnd@@MAEHVCPoint@@J@Z
	DD	FLAT:?OnGesturePan@CWnd@@MAEHVCPoint@@0@Z
	DD	FLAT:?OnGestureRotate@CWnd@@MAEHVCPoint@@N@Z
	DD	FLAT:?OnGestureTwoFingerTap@CWnd@@MAEHVCPoint@@@Z
	DD	FLAT:?OnGesturePressAndTap@CWnd@@MAEHVCPoint@@J@Z
	DD	FLAT:?ResizeDynamicLayout@CWnd@@MAEXXZ
	DD	FLAT:?CheckAutoCenter@CWnd@@UAEHXZ
	DD	FLAT:?IsFrameWnd@CWnd@@UBEHXZ
	DD	FLAT:?CreateControlContainer@CWnd@@MAEHPAPAVCOleControlContainer@@@Z
	DD	FLAT:?CreateControlSite@CWnd@@MAEHPAVCOleControlContainer@@PAPAVCOleControlSite@@IABU_GUID@@@Z
	DD	FLAT:?SetOccDialogInfo@CWnd@@MAEHPAU_AFX_OCC_DIALOG_INFO@@@Z
	DD	FLAT:?GetOccDialogInfo@CWnd@@MAEPAU_AFX_OCC_DIALOG_INFO@@XZ
	DD	FLAT:?Create@CStatic@@UAEHPBDKABUtagRECT@@PAVCWnd@@I@Z
	DD	FLAT:?DrawItem@CStatic@@UAEXPAUtagDRAWITEMSTRUCT@@@Z
CONST	ENDS
;	COMDAT ??_C@_00CNPNBAHC@@
CONST	SEGMENT
??_C@_00CNPNBAHC@@ DB 00H				; `string'
CONST	ENDS
;	COMDAT ??_C@_02DPKJAMEF@?$CFd@
CONST	SEGMENT
??_C@_02DPKJAMEF@?$CFd@ DB '%d', 00H			; `string'
CONST	ENDS
;	COMDAT xdata$x
xdata$x	SEGMENT
__unwindtable$?OnColorButton@CSetting_Common_Type_B@@IAEXXZ DD 0ffffffffH
	DD	FLAT:__unwindfunclet$?OnColorButton@CSetting_Common_Type_B@@IAEXXZ$0
__ehfuncinfo$?OnColorButton@CSetting_Common_Type_B@@IAEXXZ DD 019930522H
	DD	01H
	DD	FLAT:__unwindtable$?OnColorButton@CSetting_Common_Type_B@@IAEXXZ
	DD	2 DUP(00H)
	DD	2 DUP(00H)
	DD	00H
	DD	01H
xdata$x	ENDS
;	COMDAT xdata$x
xdata$x	SEGMENT
__unwindtable$?OnInsert@CSetting_Common_Type_B@@IAEXXZ DD 0ffffffffH
	DD	FLAT:__unwindfunclet$?OnInsert@CSetting_Common_Type_B@@IAEXXZ$0
	DD	00H
	DD	FLAT:__unwindfunclet$?OnInsert@CSetting_Common_Type_B@@IAEXXZ$1
__ehfuncinfo$?OnInsert@CSetting_Common_Type_B@@IAEXXZ DD 019930522H
	DD	02H
	DD	FLAT:__unwindtable$?OnInsert@CSetting_Common_Type_B@@IAEXXZ
	DD	2 DUP(00H)
	DD	2 DUP(00H)
	DD	00H
	DD	01H
xdata$x	ENDS
;	COMDAT xdata$x
xdata$x	SEGMENT
__unwindtable$?OnBtnCompositionColor@CSetting_Common_Type_B@@IAEXXZ DD 0ffffffffH
	DD	FLAT:__unwindfunclet$?OnBtnCompositionColor@CSetting_Common_Type_B@@IAEXXZ$0
__ehfuncinfo$?OnBtnCompositionColor@CSetting_Common_Type_B@@IAEXXZ DD 019930522H
	DD	01H
	DD	FLAT:__unwindtable$?OnBtnCompositionColor@CSetting_Common_Type_B@@IAEXXZ
	DD	2 DUP(00H)
	DD	2 DUP(00H)
	DD	00H
	DD	01H
xdata$x	ENDS
;	COMDAT xdata$x
xdata$x	SEGMENT
__unwindtable$?IsShowBaseLineList@CSetting_Common_Type_B@@ABE_NXZ DD 0ffffffffH
	DD	FLAT:__unwindfunclet$?IsShowBaseLineList@CSetting_Common_Type_B@@ABE_NXZ$0
	DD	0ffffffffH
	DD	FLAT:___std_terminate
__ehfuncinfo$?IsShowBaseLineList@CSetting_Common_Type_B@@ABE_NXZ DD 019930522H
	DD	02H
	DD	FLAT:__unwindtable$?IsShowBaseLineList@CSetting_Common_Type_B@@ABE_NXZ
	DD	2 DUP(00H)
	DD	2 DUP(00H)
	DD	00H
	DD	01H
xdata$x	ENDS
;	COMDAT xdata$x
xdata$x	SEGMENT
__unwindtable$?OnApplyBaseLine@CSetting_Common_Type_B@@AAEXXZ DD 0ffffffffH
	DD	FLAT:__unwindfunclet$?OnApplyBaseLine@CSetting_Common_Type_B@@AAEXXZ$0
__ehfuncinfo$?OnApplyBaseLine@CSetting_Common_Type_B@@AAEXXZ DD 019930522H
	DD	01H
	DD	FLAT:__unwindtable$?OnApplyBaseLine@CSetting_Common_Type_B@@AAEXXZ
	DD	2 DUP(00H)
	DD	2 DUP(00H)
	DD	00H
	DD	01H
xdata$x	ENDS
;	COMDAT xdata$x
xdata$x	SEGMENT
__unwindtable$?OnApplySubGraphData@CSetting_Common_Type_B@@AAEXXZ DD 0ffffffffH
	DD	FLAT:__unwindfunclet$?OnApplySubGraphData@CSetting_Common_Type_B@@AAEXXZ$0
	DD	0ffffffffH
	DD	FLAT:__unwindfunclet$?OnApplySubGraphData@CSetting_Common_Type_B@@AAEXXZ$1
__ehfuncinfo$?OnApplySubGraphData@CSetting_Common_Type_B@@AAEXXZ DD 019930522H
	DD	02H
	DD	FLAT:__unwindtable$?OnApplySubGraphData@CSetting_Common_Type_B@@AAEXXZ
	DD	2 DUP(00H)
	DD	2 DUP(00H)
	DD	00H
	DD	01H
xdata$x	ENDS
;	COMDAT xdata$x
xdata$x	SEGMENT
__unwindtable$?Init_BaseLine_Group_Title@CSetting_Common_Type_B@@AAEXXZ DD 0ffffffffH
	DD	FLAT:__unwindfunclet$?Init_BaseLine_Group_Title@CSetting_Common_Type_B@@AAEXXZ$0
	DD	0ffffffffH
	DD	FLAT:___std_terminate
__ehfuncinfo$?Init_BaseLine_Group_Title@CSetting_Common_Type_B@@AAEXXZ DD 019930522H
	DD	02H
	DD	FLAT:__unwindtable$?Init_BaseLine_Group_Title@CSetting_Common_Type_B@@AAEXXZ
	DD	2 DUP(00H)
	DD	2 DUP(00H)
	DD	00H
	DD	01H
xdata$x	ENDS
;	COMDAT xdata$x
xdata$x	SEGMENT
__unwindtable$?Init_Composition_Group_SubGraphTitle@CSetting_Common_Type_B@@AAEXH@Z DD 0ffffffffH
	DD	FLAT:__unwindfunclet$?Init_Composition_Group_SubGraphTitle@CSetting_Common_Type_B@@AAEXH@Z$0
	DD	00H
	DD	FLAT:__unwindfunclet$?Init_Composition_Group_SubGraphTitle@CSetting_Common_Type_B@@AAEXH@Z$1
	DD	0ffffffffH
	DD	FLAT:___std_terminate
__ehfuncinfo$?Init_Composition_Group_SubGraphTitle@CSetting_Common_Type_B@@AAEXH@Z DD 019930522H
	DD	03H
	DD	FLAT:__unwindtable$?Init_Composition_Group_SubGraphTitle@CSetting_Common_Type_B@@AAEXH@Z
	DD	2 DUP(00H)
	DD	2 DUP(00H)
	DD	00H
	DD	01H
xdata$x	ENDS
;	COMDAT xdata$x
xdata$x	SEGMENT
__unwindtable$?Init_Composition_Group_SubGraphItem@CSetting_Common_Type_B@@AAEXXZ DD 0ffffffffH
	DD	FLAT:__unwindfunclet$?Init_Composition_Group_SubGraphItem@CSetting_Common_Type_B@@AAEXXZ$0
	DD	00H
	DD	FLAT:__unwindfunclet$?Init_Composition_Group_SubGraphItem@CSetting_Common_Type_B@@AAEXXZ$1
	DD	0ffffffffH
	DD	FLAT:___std_terminate
__ehfuncinfo$?Init_Composition_Group_SubGraphItem@CSetting_Common_Type_B@@AAEXXZ DD 019930522H
	DD	03H
	DD	FLAT:__unwindtable$?Init_Composition_Group_SubGraphItem@CSetting_Common_Type_B@@AAEXXZ
	DD	2 DUP(00H)
	DD	2 DUP(00H)
	DD	00H
	DD	01H
xdata$x	ENDS
;	COMDAT xdata$x
xdata$x	SEGMENT
__ehfuncinfo$?Initial@CSetting_Common_Type_B@@UAEXPAUIGraphInfo135914@@@Z DD 019930522H
	DD	012H
	DD	FLAT:__unwindtable$?Initial@CSetting_Common_Type_B@@UAEXPAUIGraphInfo135914@@@Z
	DD	2 DUP(00H)
	DD	2 DUP(00H)
	DD	00H
	DD	01H
__unwindtable$?Initial@CSetting_Common_Type_B@@UAEXPAUIGraphInfo135914@@@Z DD 0ffffffffH
	DD	FLAT:__unwindfunclet$?Initial@CSetting_Common_Type_B@@UAEXPAUIGraphInfo135914@@@Z$0
	DD	00H
	DD	FLAT:__unwindfunclet$?Initial@CSetting_Common_Type_B@@UAEXPAUIGraphInfo135914@@@Z$1
	DD	00H
	DD	FLAT:__unwindfunclet$?Initial@CSetting_Common_Type_B@@UAEXPAUIGraphInfo135914@@@Z$2
	DD	00H
	DD	FLAT:__unwindfunclet$?Initial@CSetting_Common_Type_B@@UAEXPAUIGraphInfo135914@@@Z$3
	DD	00H
	DD	FLAT:__unwindfunclet$?Initial@CSetting_Common_Type_B@@UAEXPAUIGraphInfo135914@@@Z$4
	DD	00H
	DD	FLAT:__unwindfunclet$?Initial@CSetting_Common_Type_B@@UAEXPAUIGraphInfo135914@@@Z$5
	DD	00H
	DD	FLAT:__unwindfunclet$?Initial@CSetting_Common_Type_B@@UAEXPAUIGraphInfo135914@@@Z$6
	DD	00H
	DD	FLAT:__unwindfunclet$?Initial@CSetting_Common_Type_B@@UAEXPAUIGraphInfo135914@@@Z$7
	DD	0ffffffffH
	DD	FLAT:___std_terminate
	DD	0ffffffffH
	DD	FLAT:__unwindfunclet$?Initial@CSetting_Common_Type_B@@UAEXPAUIGraphInfo135914@@@Z$9
	DD	09H
	DD	FLAT:__unwindfunclet$?Initial@CSetting_Common_Type_B@@UAEXPAUIGraphInfo135914@@@Z$10
	DD	0ffffffffH
	DD	FLAT:___std_terminate
	DD	0ffffffffH
	DD	FLAT:__unwindfunclet$?Initial@CSetting_Common_Type_B@@UAEXPAUIGraphInfo135914@@@Z$12
	DD	0cH
	DD	FLAT:__unwindfunclet$?Initial@CSetting_Common_Type_B@@UAEXPAUIGraphInfo135914@@@Z$13
	DD	0ffffffffH
	DD	FLAT:___std_terminate
	DD	0ffffffffH
	DD	FLAT:__unwindfunclet$?Initial@CSetting_Common_Type_B@@UAEXPAUIGraphInfo135914@@@Z$15
	DD	0ffffffffH
	DD	FLAT:___std_terminate
	DD	0ffffffffH
	DD	FLAT:___std_terminate
xdata$x	ENDS
;	COMDAT xdata$x
xdata$x	SEGMENT
__ehfuncinfo$??0CSetting_Common_Type_B@@QAE@PAUIChartOCX135914@@PAVCWnd@@1@Z DD 019930522H
	DD	020H
	DD	FLAT:__unwindtable$??0CSetting_Common_Type_B@@QAE@PAUIChartOCX135914@@PAVCWnd@@1@Z
	DD	2 DUP(00H)
	DD	2 DUP(00H)
	DD	00H
	DD	01H
__unwindtable$??0CSetting_Common_Type_B@@QAE@PAUIChartOCX135914@@PAVCWnd@@1@Z DD 0ffffffffH
	DD	FLAT:__unwindfunclet$??0CSetting_Common_Type_B@@QAE@PAUIChartOCX135914@@PAVCWnd@@1@Z$0
	DD	00H
	DD	FLAT:__unwindfunclet$??0CSetting_Common_Type_B@@QAE@PAUIChartOCX135914@@PAVCWnd@@1@Z$1
	DD	01H
	DD	FLAT:__unwindfunclet$??0CSetting_Common_Type_B@@QAE@PAUIChartOCX135914@@PAVCWnd@@1@Z$2
	DD	02H
	DD	FLAT:__unwindfunclet$??0CSetting_Common_Type_B@@QAE@PAUIChartOCX135914@@PAVCWnd@@1@Z$3
	DD	03H
	DD	FLAT:__unwindfunclet$??0CSetting_Common_Type_B@@QAE@PAUIChartOCX135914@@PAVCWnd@@1@Z$4
	DD	04H
	DD	FLAT:__unwindfunclet$??0CSetting_Common_Type_B@@QAE@PAUIChartOCX135914@@PAVCWnd@@1@Z$5
	DD	05H
	DD	FLAT:__unwindfunclet$??0CSetting_Common_Type_B@@QAE@PAUIChartOCX135914@@PAVCWnd@@1@Z$6
	DD	06H
	DD	FLAT:__unwindfunclet$??0CSetting_Common_Type_B@@QAE@PAUIChartOCX135914@@PAVCWnd@@1@Z$7
	DD	07H
	DD	FLAT:__unwindfunclet$??0CSetting_Common_Type_B@@QAE@PAUIChartOCX135914@@PAVCWnd@@1@Z$8
	DD	08H
	DD	FLAT:__unwindfunclet$??0CSetting_Common_Type_B@@QAE@PAUIChartOCX135914@@PAVCWnd@@1@Z$9
	DD	09H
	DD	FLAT:__unwindfunclet$??0CSetting_Common_Type_B@@QAE@PAUIChartOCX135914@@PAVCWnd@@1@Z$10
	DD	0aH
	DD	FLAT:__unwindfunclet$??0CSetting_Common_Type_B@@QAE@PAUIChartOCX135914@@PAVCWnd@@1@Z$11
	DD	0bH
	DD	FLAT:__unwindfunclet$??0CSetting_Common_Type_B@@QAE@PAUIChartOCX135914@@PAVCWnd@@1@Z$12
	DD	0cH
	DD	FLAT:__unwindfunclet$??0CSetting_Common_Type_B@@QAE@PAUIChartOCX135914@@PAVCWnd@@1@Z$13
	DD	0dH
	DD	FLAT:__unwindfunclet$??0CSetting_Common_Type_B@@QAE@PAUIChartOCX135914@@PAVCWnd@@1@Z$14
	DD	0eH
	DD	FLAT:__unwindfunclet$??0CSetting_Common_Type_B@@QAE@PAUIChartOCX135914@@PAVCWnd@@1@Z$15
	DD	0fH
	DD	FLAT:__unwindfunclet$??0CSetting_Common_Type_B@@QAE@PAUIChartOCX135914@@PAVCWnd@@1@Z$16
	DD	010H
	DD	FLAT:__unwindfunclet$??0CSetting_Common_Type_B@@QAE@PAUIChartOCX135914@@PAVCWnd@@1@Z$17
	DD	011H
	DD	FLAT:__unwindfunclet$??0CSetting_Common_Type_B@@QAE@PAUIChartOCX135914@@PAVCWnd@@1@Z$18
	DD	012H
	DD	FLAT:__unwindfunclet$??0CSetting_Common_Type_B@@QAE@PAUIChartOCX135914@@PAVCWnd@@1@Z$19
	DD	013H
	DD	FLAT:__unwindfunclet$??0CSetting_Common_Type_B@@QAE@PAUIChartOCX135914@@PAVCWnd@@1@Z$20
	DD	014H
	DD	FLAT:__unwindfunclet$??0CSetting_Common_Type_B@@QAE@PAUIChartOCX135914@@PAVCWnd@@1@Z$21
	DD	015H
	DD	FLAT:__unwindfunclet$??0CSetting_Common_Type_B@@QAE@PAUIChartOCX135914@@PAVCWnd@@1@Z$22
	DD	016H
	DD	FLAT:__unwindfunclet$??0CSetting_Common_Type_B@@QAE@PAUIChartOCX135914@@PAVCWnd@@1@Z$23
	DD	017H
	DD	FLAT:__unwindfunclet$??0CSetting_Common_Type_B@@QAE@PAUIChartOCX135914@@PAVCWnd@@1@Z$24
	DD	018H
	DD	FLAT:__unwindfunclet$??0CSetting_Common_Type_B@@QAE@PAUIChartOCX135914@@PAVCWnd@@1@Z$25
	DD	019H
	DD	FLAT:__unwindfunclet$??0CSetting_Common_Type_B@@QAE@PAUIChartOCX135914@@PAVCWnd@@1@Z$26
	DD	01aH
	DD	FLAT:__unwindfunclet$??0CSetting_Common_Type_B@@QAE@PAUIChartOCX135914@@PAVCWnd@@1@Z$27
	DD	01bH
	DD	FLAT:__unwindfunclet$??0CSetting_Common_Type_B@@QAE@PAUIChartOCX135914@@PAVCWnd@@1@Z$28
	DD	01cH
	DD	FLAT:__unwindfunclet$??0CSetting_Common_Type_B@@QAE@PAUIChartOCX135914@@PAVCWnd@@1@Z$29
	DD	01dH
	DD	FLAT:__unwindfunclet$??0CSetting_Common_Type_B@@QAE@PAUIChartOCX135914@@PAVCWnd@@1@Z$30
	DD	01eH
	DD	FLAT:__unwindfunclet$??0CSetting_Common_Type_B@@QAE@PAUIChartOCX135914@@PAVCWnd@@1@Z$31
xdata$x	ENDS
;	COMDAT xdata$x
xdata$x	SEGMENT
__ehfuncinfo$??1ILPCSTR135914@@QAE@XZ DD 019930522H
	DD	00H
	DD	00H
	DD	2 DUP(00H)
	DD	2 DUP(00H)
	DD	00H
	DD	05H
xdata$x	ENDS
; Function compile flags: /Ogtp
; File D:\git\src\IBK\IBK_DRFN\ProjSrc\SrcChartEx\ChartAddIn\ChartEnvSetupDlgAddIn\ChartEnvSetupDlgAddIn\Setting_Common_Type_B.cpp
; File C:\Program Files (x86)\Microsoft Visual Studio\2019\Community\VC\Tools\MSVC\14.29.30133\atlmfc\include\afx.inl
;	COMDAT ??_GCSetting_Common_Type_B@@UAEPAXI@Z
_TEXT	SEGMENT
___flags$ = 8						; size = 4
??_GCSetting_Common_Type_B@@UAEPAXI@Z PROC		; CSetting_Common_Type_B::`scalar deleting destructor', COMDAT
; _this$ = ecx
  00000	55		 push	 ebp
  00001	8b ec		 mov	 ebp, esp
; File D:\git\src\IBK\IBK_DRFN\ProjSrc\SrcChartEx\ChartAddIn\ChartEnvSetupDlgAddIn\ChartEnvSetupDlgAddIn\Setting_Common_Type_B.cpp

; 47   : {

  00003	56		 push	 esi
  00004	8b f1		 mov	 esi, ecx

; 48   : }

  00006	8d 8e d8 11 00
	00		 lea	 ecx, DWORD PTR [esi+4568]
  0000c	c7 06 00 00 00
	00		 mov	 DWORD PTR [esi], OFFSET ??_7CSetting_Common_Type_B@@6B@
  00012	e8 00 00 00 00	 call	 ??1CListCtrl@@UAE@XZ	; CListCtrl::~CListCtrl
  00017	8d 8e 50 11 00
	00		 lea	 ecx, DWORD PTR [esi+4432]
  0001d	e8 00 00 00 00	 call	 ??1CColorButton@@UAE@XZ	; CColorButton::~CColorButton
  00022	8d 8e d0 10 00
	00		 lea	 ecx, DWORD PTR [esi+4304]
  00028	e8 00 00 00 00	 call	 ??1CStatic@@UAE@XZ	; CStatic::~CStatic
  0002d	8d 8e 48 10 00
	00		 lea	 ecx, DWORD PTR [esi+4168]
  00033	e8 00 00 00 00	 call	 ??1CBitmapItemComboBox@@UAE@XZ ; CBitmapItemComboBox::~CBitmapItemComboBox
  00038	8d 8e c0 0f 00
	00		 lea	 ecx, DWORD PTR [esi+4032]
  0003e	e8 00 00 00 00	 call	 ??1CBitmapItemComboBox@@UAE@XZ ; CBitmapItemComboBox::~CBitmapItemComboBox
  00043	8d 8e 40 0f 00
	00		 lea	 ecx, DWORD PTR [esi+3904]
  00049	e8 00 00 00 00	 call	 ??1CEdit@@UAE@XZ	; CEdit::~CEdit
  0004e	8d 8e 98 0e 00
	00		 lea	 ecx, DWORD PTR [esi+3736]
  00054	e8 00 00 00 00	 call	 ??1CNumEdit@@UAE@XZ	; CNumEdit::~CNumEdit
  00059	8d 8e f0 0d 00
	00		 lea	 ecx, DWORD PTR [esi+3568]
  0005f	e8 00 00 00 00	 call	 ??1CNumEdit@@UAE@XZ	; CNumEdit::~CNumEdit
  00064	8d 8e 48 0d 00
	00		 lea	 ecx, DWORD PTR [esi+3400]
  0006a	e8 00 00 00 00	 call	 ??1CNumEdit@@UAE@XZ	; CNumEdit::~CNumEdit
  0006f	8d 8e a0 0c 00
	00		 lea	 ecx, DWORD PTR [esi+3232]
  00075	e8 00 00 00 00	 call	 ??1CNumEdit@@UAE@XZ	; CNumEdit::~CNumEdit
  0007a	8d 8e f8 0b 00
	00		 lea	 ecx, DWORD PTR [esi+3064]
  00080	e8 00 00 00 00	 call	 ??1CNumEdit@@UAE@XZ	; CNumEdit::~CNumEdit
  00085	8d 8e 50 0b 00
	00		 lea	 ecx, DWORD PTR [esi+2896]
  0008b	e8 00 00 00 00	 call	 ??1CNumEdit@@UAE@XZ	; CNumEdit::~CNumEdit
  00090	8d 8e a8 0a 00
	00		 lea	 ecx, DWORD PTR [esi+2728]
  00096	e8 00 00 00 00	 call	 ??1CNumEdit@@UAE@XZ	; CNumEdit::~CNumEdit
  0009b	8d 8e 28 0a 00
	00		 lea	 ecx, DWORD PTR [esi+2600]
  000a1	e8 00 00 00 00	 call	 ??1CNumSpinCtrl@@UAE@XZ	; CNumSpinCtrl::~CNumSpinCtrl
  000a6	8d 8e a8 09 00
	00		 lea	 ecx, DWORD PTR [esi+2472]
  000ac	e8 00 00 00 00	 call	 ??1CNumSpinCtrl@@UAE@XZ	; CNumSpinCtrl::~CNumSpinCtrl
  000b1	8d 8e 28 09 00
	00		 lea	 ecx, DWORD PTR [esi+2344]
  000b7	e8 00 00 00 00	 call	 ??1CNumSpinCtrl@@UAE@XZ	; CNumSpinCtrl::~CNumSpinCtrl
  000bc	8d 8e a8 08 00
	00		 lea	 ecx, DWORD PTR [esi+2216]
  000c2	e8 00 00 00 00	 call	 ??1CNumSpinCtrl@@UAE@XZ	; CNumSpinCtrl::~CNumSpinCtrl
  000c7	8d 8e 28 08 00
	00		 lea	 ecx, DWORD PTR [esi+2088]
  000cd	e8 00 00 00 00	 call	 ??1CNumSpinCtrl@@UAE@XZ	; CNumSpinCtrl::~CNumSpinCtrl
  000d2	8d 8e a8 07 00
	00		 lea	 ecx, DWORD PTR [esi+1960]
  000d8	e8 00 00 00 00	 call	 ??1CNumSpinCtrl@@UAE@XZ	; CNumSpinCtrl::~CNumSpinCtrl
  000dd	8d 8e 28 07 00
	00		 lea	 ecx, DWORD PTR [esi+1832]
  000e3	e8 00 00 00 00	 call	 ??1CNumSpinCtrl@@UAE@XZ	; CNumSpinCtrl::~CNumSpinCtrl
  000e8	8d 8e a8 06 00
	00		 lea	 ecx, DWORD PTR [esi+1704]
  000ee	e8 00 00 00 00	 call	 ??1CStatic@@UAE@XZ	; CStatic::~CStatic
  000f3	8d 8e 28 06 00
	00		 lea	 ecx, DWORD PTR [esi+1576]
  000f9	e8 00 00 00 00	 call	 ??1CStatic@@UAE@XZ	; CStatic::~CStatic
  000fe	8d 8e a8 05 00
	00		 lea	 ecx, DWORD PTR [esi+1448]
  00104	e8 00 00 00 00	 call	 ??1CStatic@@UAE@XZ	; CStatic::~CStatic
  00109	8d 8e 28 05 00
	00		 lea	 ecx, DWORD PTR [esi+1320]
  0010f	e8 00 00 00 00	 call	 ??1CStatic@@UAE@XZ	; CStatic::~CStatic
  00114	8d 8e a8 04 00
	00		 lea	 ecx, DWORD PTR [esi+1192]
  0011a	e8 00 00 00 00	 call	 ??1CStatic@@UAE@XZ	; CStatic::~CStatic
  0011f	8d 8e 28 04 00
	00		 lea	 ecx, DWORD PTR [esi+1064]
  00125	e8 00 00 00 00	 call	 ??1CStatic@@UAE@XZ	; CStatic::~CStatic
  0012a	8d 8e a8 03 00
	00		 lea	 ecx, DWORD PTR [esi+936]
  00130	e8 00 00 00 00	 call	 ??1CStatic@@UAE@XZ	; CStatic::~CStatic
  00135	8d 8e 20 03 00
	00		 lea	 ecx, DWORD PTR [esi+800]
  0013b	e8 00 00 00 00	 call	 ??1CColorButton@@UAE@XZ	; CColorButton::~CColorButton
  00140	8d 8e 78 02 00
	00		 lea	 ecx, DWORD PTR [esi+632]
  00146	e8 00 00 00 00	 call	 ??1CNumEdit@@UAE@XZ	; CNumEdit::~CNumEdit
  0014b	8d 8e f8 01 00
	00		 lea	 ecx, DWORD PTR [esi+504]
  00151	e8 00 00 00 00	 call	 ??1CBaseListBox@@UAE@XZ	; CBaseListBox::~CBaseListBox
  00156	8d 8e 78 01 00
	00		 lea	 ecx, DWORD PTR [esi+376]
  0015c	e8 00 00 00 00	 call	 ??1CButton@@UAE@XZ	; CButton::~CButton
  00161	8d 8e f8 00 00
	00		 lea	 ecx, DWORD PTR [esi+248]
  00167	e8 00 00 00 00	 call	 ??1CNumSpinCtrl@@UAE@XZ	; CNumSpinCtrl::~CNumSpinCtrl
  0016c	8b ce		 mov	 ecx, esi
  0016e	e8 00 00 00 00	 call	 ??1CBaseDialog@@UAE@XZ	; CBaseDialog::~CBaseDialog
  00173	8b 45 08	 mov	 eax, DWORD PTR ___flags$[ebp]
  00176	a8 01		 test	 al, 1
  00178	74 22		 je	 SHORT $LN12@scalar
  0017a	a8 04		 test	 al, 4
  0017c	75 10		 jne	 SHORT $LN3@scalar
; File C:\Program Files (x86)\Microsoft Visual Studio\2019\Community\VC\Tools\MSVC\14.29.30133\atlmfc\include\afx.inl

; 112  : 	{ ::operator delete(p); }

  0017e	56		 push	 esi
  0017f	e8 00 00 00 00	 call	 ??3@YAXPAX@Z		; operator delete
  00184	83 c4 04	 add	 esp, 4
  00187	8b c6		 mov	 eax, esi
  00189	5e		 pop	 esi
  0018a	5d		 pop	 ebp
  0018b	c2 04 00	 ret	 4
$LN3@scalar:
  0018e	68 80 12 00 00	 push	 4736			; 00001280H
  00193	56		 push	 esi
  00194	e8 00 00 00 00	 call	 ?__global_delete@@YAXPAXI@Z ; __global_delete
  00199	83 c4 08	 add	 esp, 8
$LN12@scalar:
  0019c	8b c6		 mov	 eax, esi
  0019e	5e		 pop	 esi
  0019f	5d		 pop	 ebp
  001a0	c2 04 00	 ret	 4
??_GCSetting_Common_Type_B@@UAEPAXI@Z ENDP		; CSetting_Common_Type_B::`scalar deleting destructor'
_TEXT	ENDS
; Function compile flags: /Ogtp
; File D:\git\src\IBK\IBK_DRFN\ProjSrc\SrcChartEx\ChartAddIn\ChartEnvSetupDlgAddIn\ChartEnvSetupDlgAddIn\Setting_Common_Type_B.cpp
;	COMDAT ?GetMessageMap@CSetting_Common_Type_B@@MBEPBUAFX_MSGMAP@@XZ
_TEXT	SEGMENT
?GetMessageMap@CSetting_Common_Type_B@@MBEPBUAFX_MSGMAP@@XZ PROC ; CSetting_Common_Type_B::GetMessageMap, COMDAT
; _this$ = ecx

; 91   : BEGIN_MESSAGE_MAP(CSetting_Common_Type_B, CDialog)

  00000	b8 00 00 00 00	 mov	 eax, OFFSET ?messageMap@?1??GetThisMessageMap@CSetting_Common_Type_B@@KGPBUAFX_MSGMAP@@XZ@4U3@B
  00005	c3		 ret	 0
?GetMessageMap@CSetting_Common_Type_B@@MBEPBUAFX_MSGMAP@@XZ ENDP ; CSetting_Common_Type_B::GetMessageMap
_TEXT	ENDS
; Function compile flags: /Ogtp
; File D:\git\src\IBK\IBK_DRFN\ProjSrc\SrcChartEx\ChartAddIn\ChartEnvSetupDlgAddIn\ChartEnvSetupDlgAddIn\Setting_Common_Type_B.cpp
;	COMDAT ?GetThisMessageMap@CSetting_Common_Type_B@@KGPBUAFX_MSGMAP@@XZ
_TEXT	SEGMENT
?GetThisMessageMap@CSetting_Common_Type_B@@KGPBUAFX_MSGMAP@@XZ PROC ; CSetting_Common_Type_B::GetThisMessageMap, COMDAT

; 92   : 	//{{AFX_MSG_MAP(CSetting_Common_Type_B)
; 93   : 	ON_BN_CLICKED(IDC_BTN_COMPOSITION_COLOR, OnBtnCompositionColor)
; 94   : 	ON_NOTIFY(LVN_ITEMCHANGED, IDC_LIST_COMPOSITION, OnItemchangedListComposition)
; 95   : 	ON_NOTIFY(NM_CLICK, IDC_LIST_COMPOSITION, OnClickListComposition)
; 96   : 	ON_CBN_SELCHANGE(IDC_CMB_LINETYPE, OnSelchangeCmbLinetype)
; 97   : 	ON_CBN_SELCHANGE(IDC_CMB_THICKNESS, OnSelchangeCmbThickness)
; 98   : 	ON_BN_CLICKED(IDC_INSERT, OnInsert)
; 99   : 	ON_BN_CLICKED(IDC_DELETE, OnDelete)
; 100  : 	ON_BN_CLICKED(IDC_ALLDELETE, OnAlldelete)
; 101  : 	ON_BN_CLICKED(IDC_COLOR_BUTTON, OnColorButton)
; 102  : 	//}}AFX_MSG_MAP
; 103  : END_MESSAGE_MAP()

  00000	b8 00 00 00 00	 mov	 eax, OFFSET ?messageMap@?1??GetThisMessageMap@CSetting_Common_Type_B@@KGPBUAFX_MSGMAP@@XZ@4U3@B
  00005	c3		 ret	 0
?GetThisMessageMap@CSetting_Common_Type_B@@KGPBUAFX_MSGMAP@@XZ ENDP ; CSetting_Common_Type_B::GetThisMessageMap
_TEXT	ENDS
; Function compile flags: /Ogtp
; File D:\git\src\IBK\IBK_DRFN\ProjSrc\SrcChartEx\ChartAddIn\ChartEnvSetupDlgAddIn\ChartEnvSetupDlgAddIn\Setting_Common_Type_B.cpp
; File C:\Program Files (x86)\Microsoft Visual Studio\2019\Community\VC\Tools\MSVC\14.29.30133\atlmfc\include\afxwin2.inl
; File C:\Program Files (x86)\Microsoft Visual Studio\2019\Community\VC\Tools\MSVC\14.29.30133\atlmfc\include\afxdlgs.h
; File D:\git\src\IBK\IBK_DRFN\ProjSrc\SrcChartEx\ChartAddIn\ChartEnvSetupDlgAddIn\ChartEnvSetupDlgAddIn\Setting_Common_Type_B.cpp
;	COMDAT ?OnColorButton@CSetting_Common_Type_B@@IAEXXZ
_TEXT	SEGMENT
_color$ = -224						; size = 208
$T2 = -16						; size = 4
__$EHRec$ = -12						; size = 12
?OnColorButton@CSetting_Common_Type_B@@IAEXXZ PROC	; CSetting_Common_Type_B::OnColorButton, COMDAT
; _this$ = ecx

; 808  : {

  00000	55		 push	 ebp
  00001	8b ec		 mov	 ebp, esp
  00003	6a ff		 push	 -1
  00005	68 00 00 00 00	 push	 __ehhandler$?OnColorButton@CSetting_Common_Type_B@@IAEXXZ
  0000a	64 a1 00 00 00
	00		 mov	 eax, DWORD PTR fs:0
  00010	50		 push	 eax
  00011	81 ec d4 00 00
	00		 sub	 esp, 212		; 000000d4H
  00017	53		 push	 ebx
  00018	56		 push	 esi
  00019	57		 push	 edi
  0001a	a1 00 00 00 00	 mov	 eax, DWORD PTR ___security_cookie
  0001f	33 c5		 xor	 eax, ebp
  00021	50		 push	 eax
  00022	8d 45 f4	 lea	 eax, DWORD PTR __$EHRec$[ebp]
  00025	64 a3 00 00 00
	00		 mov	 DWORD PTR fs:0, eax
  0002b	8b f9		 mov	 edi, ecx

; 809  : 	// TODO: Add your control notification handler code here
; 810  : 	COLORREF crColor = m_Color_Bt.GetColor();

  0002d	8d 8f 20 03 00
	00		 lea	 ecx, DWORD PTR [edi+800]
  00033	e8 00 00 00 00	 call	 ?GetColor@CColorButton@@QAEKXZ ; CColorButton::GetColor

; 811  : 	CColorDialog color(crColor, CC_FULLOPEN);

  00038	6a 00		 push	 0
  0003a	6a 02		 push	 2
  0003c	50		 push	 eax
  0003d	8d 8d 20 ff ff
	ff		 lea	 ecx, DWORD PTR _color$[ebp]
  00043	e8 00 00 00 00	 call	 ??0CColorDialog@@QAE@KKPAVCWnd@@@Z ; CColorDialog::CColorDialog

; 812  : 	if(color.DoModal() != IDOK)

  00048	8d 8d 20 ff ff
	ff		 lea	 ecx, DWORD PTR _color$[ebp]
  0004e	c7 45 fc 00 00
	00 00		 mov	 DWORD PTR __$EHRec$[ebp+8], 0
  00055	e8 00 00 00 00	 call	 ?DoModal@CColorDialog@@UAEHXZ ; CColorDialog::DoModal
  0005a	83 f8 01	 cmp	 eax, 1
  0005d	75 63		 jne	 SHORT $LN8@OnColorBut

; 813  : 		return;
; 814  : 
; 815  : 	for(int i = 0; i < m_pIGraphInfo->GetSubGraphCount(); i++)

  0005f	8b 8f c4 00 00
	00		 mov	 ecx, DWORD PTR [edi+196]
  00065	33 f6		 xor	 esi, esi
  00067	8b 01		 mov	 eax, DWORD PTR [ecx]
  00069	ff 50 2c	 call	 DWORD PTR [eax+44]
  0006c	85 c0		 test	 eax, eax
  0006e	7e 21		 jle	 SHORT $LN3@OnColorBut
$LL4@OnColorBut:

; 816  : 		m_pIGraphInfo->SetSubGraphColor( i, 6, color.GetColor());

  00070	8b 8f c4 00 00
	00		 mov	 ecx, DWORD PTR [edi+196]
  00076	ff 75 d4	 push	 DWORD PTR _color$[ebp+180]
  00079	6a 06		 push	 6
  0007b	8b 01		 mov	 eax, DWORD PTR [ecx]
  0007d	56		 push	 esi
  0007e	ff 50 6c	 call	 DWORD PTR [eax+108]
  00081	8b 8f c4 00 00
	00		 mov	 ecx, DWORD PTR [edi+196]
  00087	46		 inc	 esi
  00088	8b 01		 mov	 eax, DWORD PTR [ecx]
  0008a	ff 50 2c	 call	 DWORD PTR [eax+44]
  0008d	3b f0		 cmp	 esi, eax
  0008f	7c df		 jl	 SHORT $LL4@OnColorBut
$LN3@OnColorBut:

; 817  : 	
; 818  : 	m_Color_Bt.SetColor( m_pIGraphInfo->GetSubGraphColor( 0, 6));

  00091	8b 8f c4 00 00
	00		 mov	 ecx, DWORD PTR [edi+196]
  00097	6a 06		 push	 6
  00099	6a 00		 push	 0
  0009b	8b 01		 mov	 eax, DWORD PTR [ecx]
  0009d	ff 50 64	 call	 DWORD PTR [eax+100]
  000a0	89 45 f0	 mov	 DWORD PTR $T2[ebp], eax
  000a3	8d 8f 20 03 00
	00		 lea	 ecx, DWORD PTR [edi+800]
  000a9	8d 45 f0	 lea	 eax, DWORD PTR $T2[ebp]
  000ac	50		 push	 eax
  000ad	e8 00 00 00 00	 call	 ?SetColor@CColorButton@@QAEXABK@Z ; CColorButton::SetColor
; File C:\Program Files (x86)\Microsoft Visual Studio\2019\Community\VC\Tools\MSVC\14.29.30133\atlmfc\include\afxwin2.inl

; 114  : 	{ ASSERT(::IsWindow(m_hWnd)); ::InvalidateRect(m_hWnd, NULL, bErase); }

  000b2	6a 01		 push	 1
  000b4	6a 00		 push	 0
  000b6	ff b7 40 03 00
	00		 push	 DWORD PTR [edi+832]
  000bc	ff 15 00 00 00
	00		 call	 DWORD PTR __imp__InvalidateRect@12
$LN8@OnColorBut:
; File C:\Program Files (x86)\Microsoft Visual Studio\2019\Community\VC\Tools\MSVC\14.29.30133\atlmfc\include\afxdlgs.h

; 110  :     virtual ~CCommonDialog() {};

  000c2	8d 8d 20 ff ff
	ff		 lea	 ecx, DWORD PTR _color$[ebp]
  000c8	c7 85 20 ff ff
	ff 00 00 00 00	 mov	 DWORD PTR _color$[ebp], OFFSET ??_7CCommonDialog@@6B@
  000d2	e8 00 00 00 00	 call	 ??1CDialog@@UAE@XZ	; CDialog::~CDialog
; File D:\git\src\IBK\IBK_DRFN\ProjSrc\SrcChartEx\ChartAddIn\ChartEnvSetupDlgAddIn\ChartEnvSetupDlgAddIn\Setting_Common_Type_B.cpp

; 820  : }

  000d7	8b 4d f4	 mov	 ecx, DWORD PTR __$EHRec$[ebp]
  000da	64 89 0d 00 00
	00 00		 mov	 DWORD PTR fs:0, ecx
  000e1	59		 pop	 ecx
  000e2	5f		 pop	 edi
  000e3	5e		 pop	 esi
  000e4	5b		 pop	 ebx
  000e5	8b e5		 mov	 esp, ebp
  000e7	5d		 pop	 ebp
  000e8	c3		 ret	 0
_TEXT	ENDS
;	COMDAT text$x
text$x	SEGMENT
__unwindfunclet$?OnColorButton@CSetting_Common_Type_B@@IAEXXZ$0:
  00000	8d 8d 20 ff ff
	ff		 lea	 ecx, DWORD PTR _color$[ebp]
  00006	e9 00 00 00 00	 jmp	 ??1CColorDialog@@UAE@XZ
  0000b	cc		 int	 3
  0000c	cc		 int	 3
  0000d	cc		 int	 3
  0000e	cc		 int	 3
  0000f	cc		 int	 3
__ehhandler$?OnColorButton@CSetting_Common_Type_B@@IAEXXZ:
  00010	90		 npad	 1
  00011	90		 npad	 1
  00012	8b 54 24 08	 mov	 edx, DWORD PTR [esp+8]
  00016	8d 42 0c	 lea	 eax, DWORD PTR [edx+12]
  00019	8b 8a 1c ff ff
	ff		 mov	 ecx, DWORD PTR [edx-228]
  0001f	33 c8		 xor	 ecx, eax
  00021	e8 00 00 00 00	 call	 @__security_check_cookie@4
  00026	b8 00 00 00 00	 mov	 eax, OFFSET __ehfuncinfo$?OnColorButton@CSetting_Common_Type_B@@IAEXXZ
  0002b	e9 00 00 00 00	 jmp	 ___CxxFrameHandler3
text$x	ENDS
?OnColorButton@CSetting_Common_Type_B@@IAEXXZ ENDP	; CSetting_Common_Type_B::OnColorButton
; Function compile flags: /Ogtp
; File D:\git\src\IBK\IBK_DRFN\ProjSrc\SrcChartEx\ChartAddIn\ChartEnvSetupDlgAddIn\ChartEnvSetupDlgAddIn\Setting_Common_Type_B.cpp
; File C:\Program Files (x86)\Microsoft Visual Studio\2019\Community\VC\Tools\MSVC\14.29.30133\atlmfc\include\afxwin2.inl
; File D:\git\src\IBK\IBK_DRFN\ProjSrc\SrcChartEx\ChartAddIn\ChartEnvSetupDlgAddIn\ChartEnvSetupDlgAddIn\Setting_Common_Type_B.cpp
; File C:\Program Files (x86)\Microsoft Visual Studio\2019\Community\VC\Tools\MSVC\14.29.30133\atlmfc\include\afxwin2.inl
; File D:\git\src\IBK\IBK_DRFN\ProjSrc\SrcChartEx\ChartAddIn\ChartEnvSetupDlgAddIn\ChartEnvSetupDlgAddIn\Setting_Common_Type_B.cpp
; File C:\Program Files (x86)\Microsoft Visual Studio\2019\Community\VC\Tools\MSVC\14.29.30133\atlmfc\include\afxwin2.inl
; File D:\git\src\IBK\IBK_DRFN\ProjSrc\SrcChartEx\ChartAddIn\ChartEnvSetupDlgAddIn\ChartEnvSetupDlgAddIn\Setting_Common_Type_B.cpp
; File C:\Program Files (x86)\Microsoft Visual Studio\2019\Community\VC\Tools\MSVC\14.29.30133\atlmfc\include\afxwin2.inl
; File D:\git\src\IBK\IBK_DRFN\ProjSrc\SrcChartEx\ChartAddIn\ChartEnvSetupDlgAddIn\ChartEnvSetupDlgAddIn\Setting_Common_Type_B.cpp
; File C:\Program Files (x86)\Microsoft Visual Studio\2019\Community\VC\Tools\MSVC\14.29.30133\atlmfc\include\afxwin2.inl
; File D:\git\src\IBK\IBK_DRFN\ProjSrc\SrcChartEx\ChartAddIn\ChartEnvSetupDlgAddIn\ChartEnvSetupDlgAddIn\Setting_Common_Type_B.cpp
;	COMDAT ?OnAlldelete@CSetting_Common_Type_B@@IAEXXZ
_TEXT	SEGMENT
?OnAlldelete@CSetting_Common_Type_B@@IAEXXZ PROC	; CSetting_Common_Type_B::OnAlldelete, COMDAT
; _this$ = ecx

; 793  : {

  00000	53		 push	 ebx
; File C:\Program Files (x86)\Microsoft Visual Studio\2019\Community\VC\Tools\MSVC\14.29.30133\atlmfc\include\afxwin2.inl

; 664  : 	{ ASSERT(::IsWindow(m_hWnd)); return (int)::SendMessage(m_hWnd, LB_GETCOUNT, 0, 0); }

  00001	8b 1d 00 00 00
	00		 mov	 ebx, DWORD PTR __imp__SendMessageA@16
; File D:\git\src\IBK\IBK_DRFN\ProjSrc\SrcChartEx\ChartAddIn\ChartEnvSetupDlgAddIn\ChartEnvSetupDlgAddIn\Setting_Common_Type_B.cpp

; 793  : {

  00007	56		 push	 esi
  00008	57		 push	 edi

; 536  : 	for(int i = 0 ; i< m_HorizonLine_ListBox.GetCount() ; i++)

  00009	33 f6		 xor	 esi, esi

; 793  : {

  0000b	8b f9		 mov	 edi, ecx
; File C:\Program Files (x86)\Microsoft Visual Studio\2019\Community\VC\Tools\MSVC\14.29.30133\atlmfc\include\afxwin2.inl

; 664  : 	{ ASSERT(::IsWindow(m_hWnd)); return (int)::SendMessage(m_hWnd, LB_GETCOUNT, 0, 0); }

  0000d	56		 push	 esi
  0000e	56		 push	 esi
  0000f	68 8b 01 00 00	 push	 395			; 0000018bH
  00014	ff b7 18 02 00
	00		 push	 DWORD PTR [edi+536]
  0001a	ff d3		 call	 ebx
; File D:\git\src\IBK\IBK_DRFN\ProjSrc\SrcChartEx\ChartAddIn\ChartEnvSetupDlgAddIn\ChartEnvSetupDlgAddIn\Setting_Common_Type_B.cpp

; 536  : 	for(int i = 0 ; i< m_HorizonLine_ListBox.GetCount() ; i++)

  0001c	85 c0		 test	 eax, eax
  0001e	7e 26		 jle	 SHORT $LN6@OnAlldelet
$LL7@OnAlldelet:
; File C:\Program Files (x86)\Microsoft Visual Studio\2019\Community\VC\Tools\MSVC\14.29.30133\atlmfc\include\afxwin2.inl

; 727  : 	{ ASSERT(::IsWindow(m_hWnd)); return (int)::SendMessage(m_hWnd, LB_DELETESTRING, nIndex, 0); }

  00020	6a 00		 push	 0
  00022	56		 push	 esi
  00023	68 82 01 00 00	 push	 386			; 00000182H
  00028	ff b7 18 02 00
	00		 push	 DWORD PTR [edi+536]
  0002e	ff d3		 call	 ebx

; 664  : 	{ ASSERT(::IsWindow(m_hWnd)); return (int)::SendMessage(m_hWnd, LB_GETCOUNT, 0, 0); }

  00030	6a 00		 push	 0
  00032	6a 00		 push	 0
  00034	68 8b 01 00 00	 push	 395			; 0000018bH
  00039	ff b7 18 02 00
	00		 push	 DWORD PTR [edi+536]
; File D:\git\src\IBK\IBK_DRFN\ProjSrc\SrcChartEx\ChartAddIn\ChartEnvSetupDlgAddIn\ChartEnvSetupDlgAddIn\Setting_Common_Type_B.cpp

; 536  : 	for(int i = 0 ; i< m_HorizonLine_ListBox.GetCount() ; i++)

  0003f	46		 inc	 esi
; File C:\Program Files (x86)\Microsoft Visual Studio\2019\Community\VC\Tools\MSVC\14.29.30133\atlmfc\include\afxwin2.inl

; 664  : 	{ ASSERT(::IsWindow(m_hWnd)); return (int)::SendMessage(m_hWnd, LB_GETCOUNT, 0, 0); }

  00040	ff d3		 call	 ebx
; File D:\git\src\IBK\IBK_DRFN\ProjSrc\SrcChartEx\ChartAddIn\ChartEnvSetupDlgAddIn\ChartEnvSetupDlgAddIn\Setting_Common_Type_B.cpp

; 536  : 	for(int i = 0 ; i< m_HorizonLine_ListBox.GetCount() ; i++)

  00042	3b f0		 cmp	 esi, eax
  00044	7c da		 jl	 SHORT $LL7@OnAlldelet
$LN6@OnAlldelet:
; File C:\Program Files (x86)\Microsoft Visual Studio\2019\Community\VC\Tools\MSVC\14.29.30133\atlmfc\include\afxwin2.inl

; 731  : 	{ ASSERT(::IsWindow(m_hWnd)); ::SendMessage(m_hWnd, LB_RESETCONTENT, 0, 0); }

  00046	6a 00		 push	 0
  00048	6a 00		 push	 0
  0004a	68 84 01 00 00	 push	 388			; 00000184H
  0004f	ff b7 18 02 00
	00		 push	 DWORD PTR [edi+536]
  00055	ff d3		 call	 ebx
; File D:\git\src\IBK\IBK_DRFN\ProjSrc\SrcChartEx\ChartAddIn\ChartEnvSetupDlgAddIn\ChartEnvSetupDlgAddIn\Setting_Common_Type_B.cpp

; 796  : 	IDoubleList *pIDblBase = m_pIGraphInfo->GetBaseLineList();

  00057	8b 8f c4 00 00
	00		 mov	 ecx, DWORD PTR [edi+196]
  0005d	8b 01		 mov	 eax, DWORD PTR [ecx]
  0005f	ff 50 28	 call	 DWORD PTR [eax+40]
  00062	8b f0		 mov	 esi, eax

; 797  : 	if( pIDblBase)

  00064	85 f6		 test	 esi, esi
  00066	74 0d		 je	 SHORT $LN2@OnAlldelet

; 798  : 	{
; 799  : 		pIDblBase->RemoveAll();

  00068	8b 16		 mov	 edx, DWORD PTR [esi]
  0006a	8b ce		 mov	 ecx, esi
  0006c	ff 52 30	 call	 DWORD PTR [edx+48]

; 800  : 		pIDblBase->Release();

  0006f	8b 0e		 mov	 ecx, DWORD PTR [esi]
  00071	56		 push	 esi
  00072	ff 51 08	 call	 DWORD PTR [ecx+8]
$LN2@OnAlldelet:

; 801  : 	}
; 802  : 
; 803  : 	m_Horizon_Edit.SetValue( (float)0);	

  00075	8b 87 78 02 00
	00		 mov	 eax, DWORD PTR [edi+632]
  0007b	8d 8f 78 02 00
	00		 lea	 ecx, DWORD PTR [edi+632]
  00081	83 ec 08	 sub	 esp, 8
  00084	0f 57 c0	 xorps	 xmm0, xmm0
  00087	f2 0f 11 04 24	 movsd	 QWORD PTR [esp], xmm0
  0008c	ff 90 90 01 00
	00		 call	 DWORD PTR [eax+400]
  00092	5f		 pop	 edi
  00093	5e		 pop	 esi
  00094	5b		 pop	 ebx

; 804  : }

  00095	c3		 ret	 0
?OnAlldelete@CSetting_Common_Type_B@@IAEXXZ ENDP	; CSetting_Common_Type_B::OnAlldelete
_TEXT	ENDS
; Function compile flags: /Ogtp
; File D:\git\src\IBK\IBK_DRFN\ProjSrc\SrcChartEx\ChartAddIn\ChartEnvSetupDlgAddIn\ChartEnvSetupDlgAddIn\Setting_Common_Type_B.cpp
; File C:\Program Files (x86)\Microsoft Visual Studio\2019\Community\VC\Tools\MSVC\14.29.30133\atlmfc\include\afxwin2.inl
; File D:\git\src\IBK\IBK_DRFN\ProjSrc\SrcChartEx\ChartAddIn\ChartEnvSetupDlgAddIn\ChartEnvSetupDlgAddIn\Setting_Common_Type_B.cpp
; File C:\Program Files (x86)\Microsoft Visual Studio\2019\Community\VC\Tools\MSVC\14.29.30133\atlmfc\include\afxwin2.inl
; File D:\git\src\IBK\IBK_DRFN\ProjSrc\SrcChartEx\ChartAddIn\ChartEnvSetupDlgAddIn\ChartEnvSetupDlgAddIn\Setting_Common_Type_B.cpp
;	COMDAT ?OnDelete@CSetting_Common_Type_B@@IAEXXZ
_TEXT	SEGMENT
?OnDelete@CSetting_Common_Type_B@@IAEXXZ PROC		; CSetting_Common_Type_B::OnDelete, COMDAT
; _this$ = ecx

; 786  : {

  00000	57		 push	 edi
; File C:\Program Files (x86)\Microsoft Visual Studio\2019\Community\VC\Tools\MSVC\14.29.30133\atlmfc\include\afxwin2.inl

; 666  : 	{ ASSERT(::IsWindow(m_hWnd)); return (int)::SendMessage(m_hWnd, LB_GETCURSEL, 0, 0); }

  00001	6a 00		 push	 0
; File D:\git\src\IBK\IBK_DRFN\ProjSrc\SrcChartEx\ChartAddIn\ChartEnvSetupDlgAddIn\ChartEnvSetupDlgAddIn\Setting_Common_Type_B.cpp

; 786  : {

  00003	8b f9		 mov	 edi, ecx
; File C:\Program Files (x86)\Microsoft Visual Studio\2019\Community\VC\Tools\MSVC\14.29.30133\atlmfc\include\afxwin2.inl

; 666  : 	{ ASSERT(::IsWindow(m_hWnd)); return (int)::SendMessage(m_hWnd, LB_GETCURSEL, 0, 0); }

  00005	6a 00		 push	 0
  00007	68 88 01 00 00	 push	 392			; 00000188H
  0000c	ff b7 18 02 00
	00		 push	 DWORD PTR [edi+536]
  00012	ff 15 00 00 00
	00		 call	 DWORD PTR __imp__SendMessageA@16

; 727  : 	{ ASSERT(::IsWindow(m_hWnd)); return (int)::SendMessage(m_hWnd, LB_DELETESTRING, nIndex, 0); }

  00018	6a 00		 push	 0
  0001a	50		 push	 eax
  0001b	68 82 01 00 00	 push	 386			; 00000182H
  00020	ff b7 18 02 00
	00		 push	 DWORD PTR [edi+536]
  00026	ff 15 00 00 00
	00		 call	 DWORD PTR __imp__SendMessageA@16
  0002c	5f		 pop	 edi
; File D:\git\src\IBK\IBK_DRFN\ProjSrc\SrcChartEx\ChartAddIn\ChartEnvSetupDlgAddIn\ChartEnvSetupDlgAddIn\Setting_Common_Type_B.cpp

; 789  : }

  0002d	c3		 ret	 0
?OnDelete@CSetting_Common_Type_B@@IAEXXZ ENDP		; CSetting_Common_Type_B::OnDelete
_TEXT	ENDS
; Function compile flags: /Ogtp
; File D:\git\src\IBK\IBK_DRFN\ProjSrc\SrcChartEx\ChartAddIn\ChartEnvSetupDlgAddIn\ChartEnvSetupDlgAddIn\Setting_Common_Type_B.cpp
; File C:\Program Files (x86)\Microsoft Visual Studio\2019\Community\VC\Tools\MSVC\14.29.30133\atlmfc\include\afxwin2.inl
; File D:\git\src\IBK\IBK_DRFN\ProjSrc\SrcChartEx\ChartAddIn\ChartEnvSetupDlgAddIn\ChartEnvSetupDlgAddIn\Setting_Common_Type_B.cpp
; File C:\Program Files (x86)\Microsoft Visual Studio\2019\Community\VC\Tools\MSVC\14.29.30133\atlmfc\include\cstringt.h
; File D:\git\src\IBK\IBK_DRFN\ProjSrc\SrcChartEx\ChartAddIn\ChartEnvSetupDlgAddIn\ChartEnvSetupDlgAddIn\Setting_Common_Type_B.cpp
; File C:\Program Files (x86)\Microsoft Visual Studio\2019\Community\VC\Tools\MSVC\14.29.30133\atlmfc\include\afxwin2.inl
; File D:\git\src\IBK\IBK_DRFN\ProjSrc\SrcChartEx\ChartAddIn\ChartEnvSetupDlgAddIn\ChartEnvSetupDlgAddIn\Setting_Common_Type_B.cpp
;	COMDAT ?OnInsert@CSetting_Common_Type_B@@IAEXXZ
_TEXT	SEGMENT
_this$1$ = -24						; size = 4
$T2 = -24						; size = 4
_szText$ = -20						; size = 4
_temp$ = -16						; size = 4
__$EHRec$ = -12						; size = 12
?OnInsert@CSetting_Common_Type_B@@IAEXXZ PROC		; CSetting_Common_Type_B::OnInsert, COMDAT
; _this$ = ecx

; 765  : {

  00000	55		 push	 ebp
  00001	8b ec		 mov	 ebp, esp
  00003	6a ff		 push	 -1
  00005	68 00 00 00 00	 push	 __ehhandler$?OnInsert@CSetting_Common_Type_B@@IAEXXZ
  0000a	64 a1 00 00 00
	00		 mov	 eax, DWORD PTR fs:0
  00010	50		 push	 eax
  00011	83 ec 0c	 sub	 esp, 12			; 0000000cH
  00014	53		 push	 ebx
  00015	56		 push	 esi
  00016	57		 push	 edi
  00017	a1 00 00 00 00	 mov	 eax, DWORD PTR ___security_cookie
  0001c	33 c5		 xor	 eax, ebp
  0001e	50		 push	 eax
  0001f	8d 45 f4	 lea	 eax, DWORD PTR __$EHRec$[ebp]
  00022	64 a3 00 00 00
	00		 mov	 DWORD PTR fs:0, eax
  00028	8b d9		 mov	 ebx, ecx
  0002a	89 5d e8	 mov	 DWORD PTR _this$1$[ebp], ebx

; 766  : 	// TODO: Add your control notification handler code here
; 767  : 	CString temp;

  0002d	8d 4d f0	 lea	 ecx, DWORD PTR _temp$[ebp]
  00030	ff 15 00 00 00
	00		 call	 DWORD PTR __imp_??0?$CStringT@DV?$StrTraitMFC_DLL@DV?$ChTraitsCRT@D@ATL@@@@@ATL@@QAE@XZ

; 768  : 	UpdateData(TRUE);

  00036	6a 01		 push	 1
  00038	8b cb		 mov	 ecx, ebx
  0003a	c7 45 fc 00 00
	00 00		 mov	 DWORD PTR __$EHRec$[ebp+8], 0
  00041	e8 00 00 00 00	 call	 ?UpdateData@CWnd@@QAEHH@Z ; CWnd::UpdateData

; 769  : 	temp.Format("%d",(int)m_dHorizonValue);

  00046	f2 0f 2c 83 60
	12 00 00	 cvttsd2si eax, QWORD PTR [ebx+4704]
  0004e	50		 push	 eax
  0004f	8d 45 f0	 lea	 eax, DWORD PTR _temp$[ebp]
  00052	68 00 00 00 00	 push	 OFFSET ??_C@_02DPKJAMEF@?$CFd@
  00057	50		 push	 eax
  00058	ff 15 00 00 00
	00		 call	 DWORD PTR __imp_?Format@?$CStringT@DV?$StrTraitMFC_DLL@DV?$ChTraitsCRT@D@ATL@@@@@ATL@@QAAXPBDZZ
  0005e	83 c4 0c	 add	 esp, 12			; 0000000cH
; File C:\Program Files (x86)\Microsoft Visual Studio\2019\Community\VC\Tools\MSVC\14.29.30133\atlmfc\include\afxwin2.inl

; 664  : 	{ ASSERT(::IsWindow(m_hWnd)); return (int)::SendMessage(m_hWnd, LB_GETCOUNT, 0, 0); }

  00061	6a 00		 push	 0
  00063	6a 00		 push	 0
  00065	68 8b 01 00 00	 push	 395			; 0000018bH
  0006a	ff b3 18 02 00
	00		 push	 DWORD PTR [ebx+536]
  00070	ff 15 00 00 00
	00		 call	 DWORD PTR __imp__SendMessageA@16
; File D:\git\src\IBK\IBK_DRFN\ProjSrc\SrcChartEx\ChartAddIn\ChartEnvSetupDlgAddIn\ChartEnvSetupDlgAddIn\Setting_Common_Type_B.cpp

; 773  : 	CString szText = "";

  00076	68 00 00 00 00	 push	 OFFSET ??_C@_00CNPNBAHC@@
  0007b	8d 4d ec	 lea	 ecx, DWORD PTR _szText$[ebp]
  0007e	8b f8		 mov	 edi, eax
  00080	ff 15 00 00 00
	00		 call	 DWORD PTR __imp_??0?$CStringT@DV?$StrTraitMFC_DLL@DV?$ChTraitsCRT@D@ATL@@@@@ATL@@QAE@PBD@Z

; 774  : 	for( int i = 0 ; i < nCount ; i++ )

  00086	33 f6		 xor	 esi, esi
  00088	c6 45 fc 01	 mov	 BYTE PTR __$EHRec$[ebp+8], 1
  0008c	85 ff		 test	 edi, edi
  0008e	7e 28		 jle	 SHORT $LN3@OnInsert
$LL4@OnInsert:

; 775  : 	{
; 776  : 		m_HorizonLine_ListBox.GetText( i, szText );

  00090	8d 45 ec	 lea	 eax, DWORD PTR _szText$[ebp]
  00093	50		 push	 eax
  00094	56		 push	 esi
  00095	8d 8b f8 01 00
	00		 lea	 ecx, DWORD PTR [ebx+504]
  0009b	e8 00 00 00 00	 call	 ?GetText@CListBox@@QBEXHAAV?$CStringT@DV?$StrTraitMFC_DLL@DV?$ChTraitsCRT@D@ATL@@@@@ATL@@@Z ; CListBox::GetText
; File C:\Program Files (x86)\Microsoft Visual Studio\2019\Community\VC\Tools\MSVC\14.29.30133\atlmfc\include\cstringt.h

; 2479 : 		return(str1.Compare(str2) == 0);

  000a0	ff 75 f0	 push	 DWORD PTR _temp$[ebp]
  000a3	8d 4d ec	 lea	 ecx, DWORD PTR _szText$[ebp]
  000a6	ff 15 00 00 00
	00		 call	 DWORD PTR __imp_?Compare@?$CStringT@DV?$StrTraitMFC_DLL@DV?$ChTraitsCRT@D@ATL@@@@@ATL@@QBEHPBD@Z
  000ac	85 c0		 test	 eax, eax
; File D:\git\src\IBK\IBK_DRFN\ProjSrc\SrcChartEx\ChartAddIn\ChartEnvSetupDlgAddIn\ChartEnvSetupDlgAddIn\Setting_Common_Type_B.cpp

; 777  : 		if( szText == temp )

  000ae	74 35		 je	 SHORT $LN10@OnInsert

; 774  : 	for( int i = 0 ; i < nCount ; i++ )

  000b0	46		 inc	 esi
  000b1	3b f7		 cmp	 esi, edi
  000b3	7c db		 jl	 SHORT $LL4@OnInsert
  000b5	8b 5d e8	 mov	 ebx, DWORD PTR _this$1$[ebp]
$LN3@OnInsert:

; 781  : 	m_HorizonLine_ListBox.AddString(TrimStringWhenDecimalDataIsZero(temp));

  000b8	8d 45 f0	 lea	 eax, DWORD PTR _temp$[ebp]
  000bb	8b cb		 mov	 ecx, ebx
  000bd	50		 push	 eax
  000be	8d 45 e8	 lea	 eax, DWORD PTR $T2[ebp]
  000c1	50		 push	 eax
  000c2	e8 00 00 00 00	 call	 ?TrimStringWhenDecimalDataIsZero@CBaseDialog@@IAE?AV?$CStringT@DV?$StrTraitMFC_DLL@DV?$ChTraitsCRT@D@ATL@@@@@ATL@@ABV23@@Z ; CBaseDialog::TrimStringWhenDecimalDataIsZero
; File C:\Program Files (x86)\Microsoft Visual Studio\2019\Community\VC\Tools\MSVC\14.29.30133\atlmfc\include\afxwin2.inl

; 725  : 	{ ASSERT(::IsWindow(m_hWnd)); return (int)::SendMessage(m_hWnd, LB_ADDSTRING, 0, (LPARAM)lpszItem); }

  000c7	ff 30		 push	 DWORD PTR [eax]
  000c9	6a 00		 push	 0
  000cb	68 80 01 00 00	 push	 384			; 00000180H
  000d0	ff b3 18 02 00
	00		 push	 DWORD PTR [ebx+536]
  000d6	ff 15 00 00 00
	00		 call	 DWORD PTR __imp__SendMessageA@16
; File D:\git\src\IBK\IBK_DRFN\ProjSrc\SrcChartEx\ChartAddIn\ChartEnvSetupDlgAddIn\ChartEnvSetupDlgAddIn\Setting_Common_Type_B.cpp

; 781  : 	m_HorizonLine_ListBox.AddString(TrimStringWhenDecimalDataIsZero(temp));

  000dc	8d 4d e8	 lea	 ecx, DWORD PTR $T2[ebp]
  000df	ff 15 00 00 00
	00		 call	 DWORD PTR __imp_??1?$CStringT@DV?$StrTraitMFC_DLL@DV?$ChTraitsCRT@D@ATL@@@@@ATL@@QAE@XZ
$LN10@OnInsert:

; 782  : }

  000e5	8d 4d ec	 lea	 ecx, DWORD PTR _szText$[ebp]
  000e8	ff 15 00 00 00
	00		 call	 DWORD PTR __imp_??1?$CStringT@DV?$StrTraitMFC_DLL@DV?$ChTraitsCRT@D@ATL@@@@@ATL@@QAE@XZ
  000ee	8d 4d f0	 lea	 ecx, DWORD PTR _temp$[ebp]
  000f1	ff 15 00 00 00
	00		 call	 DWORD PTR __imp_??1?$CStringT@DV?$StrTraitMFC_DLL@DV?$ChTraitsCRT@D@ATL@@@@@ATL@@QAE@XZ
  000f7	8b 4d f4	 mov	 ecx, DWORD PTR __$EHRec$[ebp]
  000fa	64 89 0d 00 00
	00 00		 mov	 DWORD PTR fs:0, ecx
  00101	59		 pop	 ecx
  00102	5f		 pop	 edi
  00103	5e		 pop	 esi
  00104	5b		 pop	 ebx
  00105	8b e5		 mov	 esp, ebp
  00107	5d		 pop	 ebp
  00108	c3		 ret	 0
_TEXT	ENDS
;	COMDAT text$x
text$x	SEGMENT
__unwindfunclet$?OnInsert@CSetting_Common_Type_B@@IAEXXZ$0:
  00000	8d 4d f0	 lea	 ecx, DWORD PTR _temp$[ebp]
  00003	ff 25 00 00 00
	00		 jmp	 DWORD PTR __imp_??1?$CStringT@DV?$StrTraitMFC_DLL@DV?$ChTraitsCRT@D@ATL@@@@@ATL@@QAE@XZ
__unwindfunclet$?OnInsert@CSetting_Common_Type_B@@IAEXXZ$1:
  00009	8d 4d ec	 lea	 ecx, DWORD PTR _szText$[ebp]
  0000c	ff 25 00 00 00
	00		 jmp	 DWORD PTR __imp_??1?$CStringT@DV?$StrTraitMFC_DLL@DV?$ChTraitsCRT@D@ATL@@@@@ATL@@QAE@XZ
  00012	cc		 int	 3
  00013	cc		 int	 3
  00014	cc		 int	 3
  00015	cc		 int	 3
  00016	cc		 int	 3
__ehhandler$?OnInsert@CSetting_Common_Type_B@@IAEXXZ:
  00017	90		 npad	 1
  00018	90		 npad	 1
  00019	8b 54 24 08	 mov	 edx, DWORD PTR [esp+8]
  0001d	8d 42 0c	 lea	 eax, DWORD PTR [edx+12]
  00020	8b 4a e4	 mov	 ecx, DWORD PTR [edx-28]
  00023	33 c8		 xor	 ecx, eax
  00025	e8 00 00 00 00	 call	 @__security_check_cookie@4
  0002a	b8 00 00 00 00	 mov	 eax, OFFSET __ehfuncinfo$?OnInsert@CSetting_Common_Type_B@@IAEXXZ
  0002f	e9 00 00 00 00	 jmp	 ___CxxFrameHandler3
text$x	ENDS
?OnInsert@CSetting_Common_Type_B@@IAEXXZ ENDP		; CSetting_Common_Type_B::OnInsert
; Function compile flags: /Ogtp
; File D:\git\src\IBK\IBK_DRFN\ProjSrc\SrcChartEx\ChartAddIn\ChartEnvSetupDlgAddIn\ChartEnvSetupDlgAddIn\Setting_Common_Type_B.cpp
; File C:\Program Files (x86)\Microsoft Visual Studio\2019\Community\VC\Tools\MSVC\14.29.30133\atlmfc\include\afxwin2.inl
; File D:\git\src\IBK\IBK_DRFN\ProjSrc\SrcChartEx\ChartAddIn\ChartEnvSetupDlgAddIn\ChartEnvSetupDlgAddIn\Setting_Common_Type_B.cpp
; File C:\Program Files (x86)\Microsoft Visual Studio\2019\Community\VC\Tools\MSVC\14.29.30133\atlmfc\include\afxwin2.inl
; File D:\git\src\IBK\IBK_DRFN\ProjSrc\SrcChartEx\ChartAddIn\ChartEnvSetupDlgAddIn\ChartEnvSetupDlgAddIn\Setting_Common_Type_B.cpp
; File C:\Program Files (x86)\Microsoft Visual Studio\2019\Community\VC\Tools\MSVC\14.29.30133\atlmfc\include\afxwin2.inl
; File D:\git\src\IBK\IBK_DRFN\ProjSrc\SrcChartEx\ChartAddIn\ChartEnvSetupDlgAddIn\ChartEnvSetupDlgAddIn\Setting_Common_Type_B.cpp
; File C:\Program Files (x86)\Microsoft Visual Studio\2019\Community\VC\Tools\MSVC\14.29.30133\atlmfc\include\afxwin2.inl
; File D:\git\src\IBK\IBK_DRFN\ProjSrc\SrcChartEx\ChartAddIn\ChartEnvSetupDlgAddIn\ChartEnvSetupDlgAddIn\Setting_Common_Type_B.cpp
;	COMDAT ?OnSelchangeCmbThickness@CSetting_Common_Type_B@@IAEXXZ
_TEXT	SEGMENT
?OnSelchangeCmbThickness@CSetting_Common_Type_B@@IAEXXZ PROC ; CSetting_Common_Type_B::OnSelchangeCmbThickness, COMDAT
; _this$ = ecx

; 746  : {

  00000	56		 push	 esi
  00001	57		 push	 edi
; File C:\Program Files (x86)\Microsoft Visual Studio\2019\Community\VC\Tools\MSVC\14.29.30133\atlmfc\include\afxwin2.inl

; 765  : 	{ ASSERT(::IsWindow(m_hWnd)); return (int)::SendMessage(m_hWnd, CB_GETCURSEL, 0, 0); }

  00002	8b 3d 00 00 00
	00		 mov	 edi, DWORD PTR __imp__SendMessageA@16
; File D:\git\src\IBK\IBK_DRFN\ProjSrc\SrcChartEx\ChartAddIn\ChartEnvSetupDlgAddIn\ChartEnvSetupDlgAddIn\Setting_Common_Type_B.cpp

; 746  : {

  00008	8b f1		 mov	 esi, ecx
; File C:\Program Files (x86)\Microsoft Visual Studio\2019\Community\VC\Tools\MSVC\14.29.30133\atlmfc\include\afxwin2.inl

; 765  : 	{ ASSERT(::IsWindow(m_hWnd)); return (int)::SendMessage(m_hWnd, CB_GETCURSEL, 0, 0); }

  0000a	6a 00		 push	 0
  0000c	6a 00		 push	 0
  0000e	68 47 01 00 00	 push	 327			; 00000147H
  00013	ff b6 e0 0f 00
	00		 push	 DWORD PTR [esi+4064]
  00019	ff d7		 call	 edi
; File D:\git\src\IBK\IBK_DRFN\ProjSrc\SrcChartEx\ChartAddIn\ChartEnvSetupDlgAddIn\ChartEnvSetupDlgAddIn\Setting_Common_Type_B.cpp

; 748  : 	if( m_cmbThickness.GetCurSel() != 0 && m_cmbLineType.GetCurSel() != 0 )

  0001b	85 c0		 test	 eax, eax
  0001d	74 46		 je	 SHORT $LN2@OnSelchang
; File C:\Program Files (x86)\Microsoft Visual Studio\2019\Community\VC\Tools\MSVC\14.29.30133\atlmfc\include\afxwin2.inl

; 765  : 	{ ASSERT(::IsWindow(m_hWnd)); return (int)::SendMessage(m_hWnd, CB_GETCURSEL, 0, 0); }

  0001f	6a 00		 push	 0
  00021	6a 00		 push	 0
  00023	68 47 01 00 00	 push	 327			; 00000147H
  00028	ff b6 68 10 00
	00		 push	 DWORD PTR [esi+4200]
  0002e	ff d7		 call	 edi
; File D:\git\src\IBK\IBK_DRFN\ProjSrc\SrcChartEx\ChartAddIn\ChartEnvSetupDlgAddIn\ChartEnvSetupDlgAddIn\Setting_Common_Type_B.cpp

; 748  : 	if( m_cmbThickness.GetCurSel() != 0 && m_cmbLineType.GetCurSel() != 0 )

  00030	85 c0		 test	 eax, eax
  00032	74 31		 je	 SHORT $LN2@OnSelchang

; 749  : 	{
; 750  : // 2008.01.25 by LYH >>
; 751  : 		//AfxMessageBox(" \"1pt\"     .");
; 752  : 		AfxMessageBox(m_strMsgLineShape);

  00034	6a 00		 push	 0
  00036	6a 00		 push	 0
  00038	ff b6 e0 00 00
	00		 push	 DWORD PTR [esi+224]
  0003e	e8 00 00 00 00	 call	 ?AfxMessageBox@@YGHPBDII@Z ; AfxMessageBox
; File C:\Program Files (x86)\Microsoft Visual Studio\2019\Community\VC\Tools\MSVC\14.29.30133\atlmfc\include\afxwin2.inl

; 767  : 	{ ASSERT(::IsWindow(m_hWnd)); return (int)::SendMessage(m_hWnd, CB_SETCURSEL, nSelect, 0); }

  00043	6a 00		 push	 0
  00045	6a 00		 push	 0
  00047	68 4e 01 00 00	 push	 334			; 0000014eH
  0004c	ff b6 68 10 00
	00		 push	 DWORD PTR [esi+4200]
  00052	ff d7		 call	 edi
; File D:\git\src\IBK\IBK_DRFN\ProjSrc\SrcChartEx\ChartAddIn\ChartEnvSetupDlgAddIn\ChartEnvSetupDlgAddIn\Setting_Common_Type_B.cpp

; 755  : 		m_cmbLineType.EnableWindow(FALSE);

  00054	33 c0		 xor	 eax, eax

; 761  : }

  00056	8d 8e 48 10 00
	00		 lea	 ecx, DWORD PTR [esi+4168]
  0005c	50		 push	 eax
  0005d	e8 00 00 00 00	 call	 ?EnableWindow@CWnd@@QAEHH@Z ; CWnd::EnableWindow
  00062	5f		 pop	 edi
  00063	5e		 pop	 esi
  00064	c3		 ret	 0
$LN2@OnSelchang:

; 756  : 		return;
; 757  : 	}	
; 758  : 
; 759  : 	else
; 760  : 		m_cmbLineType.EnableWindow(TRUE);	

  00065	b8 01 00 00 00	 mov	 eax, 1

; 761  : }

  0006a	8d 8e 48 10 00
	00		 lea	 ecx, DWORD PTR [esi+4168]
  00070	50		 push	 eax
  00071	e8 00 00 00 00	 call	 ?EnableWindow@CWnd@@QAEHH@Z ; CWnd::EnableWindow
  00076	5f		 pop	 edi
  00077	5e		 pop	 esi
  00078	c3		 ret	 0
?OnSelchangeCmbThickness@CSetting_Common_Type_B@@IAEXXZ ENDP ; CSetting_Common_Type_B::OnSelchangeCmbThickness
_TEXT	ENDS
; Function compile flags: /Ogtp
; File D:\git\src\IBK\IBK_DRFN\ProjSrc\SrcChartEx\ChartAddIn\ChartEnvSetupDlgAddIn\ChartEnvSetupDlgAddIn\Setting_Common_Type_B.cpp
; File C:\Program Files (x86)\Microsoft Visual Studio\2019\Community\VC\Tools\MSVC\14.29.30133\atlmfc\include\afxwin2.inl
; File D:\git\src\IBK\IBK_DRFN\ProjSrc\SrcChartEx\ChartAddIn\ChartEnvSetupDlgAddIn\ChartEnvSetupDlgAddIn\Setting_Common_Type_B.cpp
; File C:\Program Files (x86)\Microsoft Visual Studio\2019\Community\VC\Tools\MSVC\14.29.30133\atlmfc\include\afxwin2.inl
; File D:\git\src\IBK\IBK_DRFN\ProjSrc\SrcChartEx\ChartAddIn\ChartEnvSetupDlgAddIn\ChartEnvSetupDlgAddIn\Setting_Common_Type_B.cpp
; File C:\Program Files (x86)\Microsoft Visual Studio\2019\Community\VC\Tools\MSVC\14.29.30133\atlmfc\include\afxwin2.inl
; File D:\git\src\IBK\IBK_DRFN\ProjSrc\SrcChartEx\ChartAddIn\ChartEnvSetupDlgAddIn\ChartEnvSetupDlgAddIn\Setting_Common_Type_B.cpp
; File C:\Program Files (x86)\Microsoft Visual Studio\2019\Community\VC\Tools\MSVC\14.29.30133\atlmfc\include\afxwin2.inl
; File D:\git\src\IBK\IBK_DRFN\ProjSrc\SrcChartEx\ChartAddIn\ChartEnvSetupDlgAddIn\ChartEnvSetupDlgAddIn\Setting_Common_Type_B.cpp
;	COMDAT ?OnSelchangeCmbLinetype@CSetting_Common_Type_B@@IAEXXZ
_TEXT	SEGMENT
?OnSelchangeCmbLinetype@CSetting_Common_Type_B@@IAEXXZ PROC ; CSetting_Common_Type_B::OnSelchangeCmbLinetype, COMDAT
; _this$ = ecx

; 728  : {

  00000	56		 push	 esi
  00001	57		 push	 edi
; File C:\Program Files (x86)\Microsoft Visual Studio\2019\Community\VC\Tools\MSVC\14.29.30133\atlmfc\include\afxwin2.inl

; 765  : 	{ ASSERT(::IsWindow(m_hWnd)); return (int)::SendMessage(m_hWnd, CB_GETCURSEL, 0, 0); }

  00002	8b 3d 00 00 00
	00		 mov	 edi, DWORD PTR __imp__SendMessageA@16
; File D:\git\src\IBK\IBK_DRFN\ProjSrc\SrcChartEx\ChartAddIn\ChartEnvSetupDlgAddIn\ChartEnvSetupDlgAddIn\Setting_Common_Type_B.cpp

; 728  : {

  00008	8b f1		 mov	 esi, ecx
; File C:\Program Files (x86)\Microsoft Visual Studio\2019\Community\VC\Tools\MSVC\14.29.30133\atlmfc\include\afxwin2.inl

; 765  : 	{ ASSERT(::IsWindow(m_hWnd)); return (int)::SendMessage(m_hWnd, CB_GETCURSEL, 0, 0); }

  0000a	6a 00		 push	 0
  0000c	6a 00		 push	 0
  0000e	68 47 01 00 00	 push	 327			; 00000147H
  00013	ff b6 e0 0f 00
	00		 push	 DWORD PTR [esi+4064]
  00019	ff d7		 call	 edi
; File D:\git\src\IBK\IBK_DRFN\ProjSrc\SrcChartEx\ChartAddIn\ChartEnvSetupDlgAddIn\ChartEnvSetupDlgAddIn\Setting_Common_Type_B.cpp

; 730  : 	if( m_cmbThickness.GetCurSel() != 0 && m_cmbLineType.GetCurSel() != 0 )

  0001b	85 c0		 test	 eax, eax
  0001d	74 46		 je	 SHORT $LN2@OnSelchang
; File C:\Program Files (x86)\Microsoft Visual Studio\2019\Community\VC\Tools\MSVC\14.29.30133\atlmfc\include\afxwin2.inl

; 765  : 	{ ASSERT(::IsWindow(m_hWnd)); return (int)::SendMessage(m_hWnd, CB_GETCURSEL, 0, 0); }

  0001f	6a 00		 push	 0
  00021	6a 00		 push	 0
  00023	68 47 01 00 00	 push	 327			; 00000147H
  00028	ff b6 68 10 00
	00		 push	 DWORD PTR [esi+4200]
  0002e	ff d7		 call	 edi
; File D:\git\src\IBK\IBK_DRFN\ProjSrc\SrcChartEx\ChartAddIn\ChartEnvSetupDlgAddIn\ChartEnvSetupDlgAddIn\Setting_Common_Type_B.cpp

; 730  : 	if( m_cmbThickness.GetCurSel() != 0 && m_cmbLineType.GetCurSel() != 0 )

  00030	85 c0		 test	 eax, eax
  00032	74 31		 je	 SHORT $LN2@OnSelchang

; 731  : 	{
; 732  : // 2008.01.25 by LYH >>
; 733  : //		AfxMessageBox(" \"\"     .");
; 734  : 		AfxMessageBox(m_strMsgLineThick);		

  00034	6a 00		 push	 0
  00036	6a 00		 push	 0
  00038	ff b6 dc 00 00
	00		 push	 DWORD PTR [esi+220]
  0003e	e8 00 00 00 00	 call	 ?AfxMessageBox@@YGHPBDII@Z ; AfxMessageBox
; File C:\Program Files (x86)\Microsoft Visual Studio\2019\Community\VC\Tools\MSVC\14.29.30133\atlmfc\include\afxwin2.inl

; 767  : 	{ ASSERT(::IsWindow(m_hWnd)); return (int)::SendMessage(m_hWnd, CB_SETCURSEL, nSelect, 0); }

  00043	6a 00		 push	 0
  00045	6a 00		 push	 0
  00047	68 4e 01 00 00	 push	 334			; 0000014eH
  0004c	ff b6 e0 0f 00
	00		 push	 DWORD PTR [esi+4064]
  00052	ff d7		 call	 edi
; File D:\git\src\IBK\IBK_DRFN\ProjSrc\SrcChartEx\ChartAddIn\ChartEnvSetupDlgAddIn\ChartEnvSetupDlgAddIn\Setting_Common_Type_B.cpp

; 737  : 		m_cmbThickness.EnableWindow(FALSE);

  00054	33 c0		 xor	 eax, eax

; 743  : }

  00056	8d 8e c0 0f 00
	00		 lea	 ecx, DWORD PTR [esi+4032]
  0005c	50		 push	 eax
  0005d	e8 00 00 00 00	 call	 ?EnableWindow@CWnd@@QAEHH@Z ; CWnd::EnableWindow
  00062	5f		 pop	 edi
  00063	5e		 pop	 esi
  00064	c3		 ret	 0
$LN2@OnSelchang:

; 738  : 		return;
; 739  : 	}
; 740  : 
; 741  : 	else
; 742  : 		m_cmbThickness.EnableWindow(TRUE);

  00065	b8 01 00 00 00	 mov	 eax, 1

; 743  : }

  0006a	8d 8e c0 0f 00
	00		 lea	 ecx, DWORD PTR [esi+4032]
  00070	50		 push	 eax
  00071	e8 00 00 00 00	 call	 ?EnableWindow@CWnd@@QAEHH@Z ; CWnd::EnableWindow
  00076	5f		 pop	 edi
  00077	5e		 pop	 esi
  00078	c3		 ret	 0
?OnSelchangeCmbLinetype@CSetting_Common_Type_B@@IAEXXZ ENDP ; CSetting_Common_Type_B::OnSelchangeCmbLinetype
_TEXT	ENDS
; Function compile flags: /Ogtp
; File D:\git\src\IBK\IBK_DRFN\ProjSrc\SrcChartEx\ChartAddIn\ChartEnvSetupDlgAddIn\ChartEnvSetupDlgAddIn\Setting_Common_Type_B.cpp
;	COMDAT ?OnClickListComposition@CSetting_Common_Type_B@@IAEXPAUtagNMHDR@@PAJ@Z
_TEXT	SEGMENT
_pNMHDR$ = 8						; size = 4
_pResult$ = 12						; size = 4
?OnClickListComposition@CSetting_Common_Type_B@@IAEXPAUtagNMHDR@@PAJ@Z PROC ; CSetting_Common_Type_B::OnClickListComposition, COMDAT
; _this$ = ecx

; 565  : {

  00000	55		 push	 ebp
  00001	8b ec		 mov	 ebp, esp
  00003	56		 push	 esi
  00004	8b f1		 mov	 esi, ecx

; 566  : 	NM_LISTVIEW* pNMListView = (NM_LISTVIEW*)pNMHDR;
; 567  : 	// TODO: Add your control notification handler code here
; 568  : 	
; 569  : 	// 1.        .
; 570  : 	OnApplySubGraphData();

  00006	e8 00 00 00 00	 call	 ?OnApplySubGraphData@CSetting_Common_Type_B@@AAEXXZ ; CSetting_Common_Type_B::OnApplySubGraphData

; 571  : 	Initial_SubGraphData( pNMListView->iItem );

  0000b	8b 45 08	 mov	 eax, DWORD PTR _pNMHDR$[ebp]
  0000e	8b ce		 mov	 ecx, esi
  00010	ff 70 0c	 push	 DWORD PTR [eax+12]
  00013	e8 00 00 00 00	 call	 ?Initial_SubGraphData@CSetting_Common_Type_B@@AAEXH@Z ; CSetting_Common_Type_B::Initial_SubGraphData

; 572  : 	
; 573  : 	*pResult = 0;

  00018	8b 45 0c	 mov	 eax, DWORD PTR _pResult$[ebp]
  0001b	5e		 pop	 esi
  0001c	c7 00 00 00 00
	00		 mov	 DWORD PTR [eax], 0

; 574  : }

  00022	5d		 pop	 ebp
  00023	c2 08 00	 ret	 8
?OnClickListComposition@CSetting_Common_Type_B@@IAEXPAUtagNMHDR@@PAJ@Z ENDP ; CSetting_Common_Type_B::OnClickListComposition
_TEXT	ENDS
; Function compile flags: /Ogtp
; File D:\git\src\IBK\IBK_DRFN\ProjSrc\SrcChartEx\ChartAddIn\ChartEnvSetupDlgAddIn\ChartEnvSetupDlgAddIn\Setting_Common_Type_B.cpp
; File C:\Program Files (x86)\Microsoft Visual Studio\2019\Community\VC\Tools\MSVC\14.29.30133\atlmfc\include\afxcmn.inl
; File D:\git\src\IBK\IBK_DRFN\ProjSrc\SrcChartEx\ChartAddIn\ChartEnvSetupDlgAddIn\ChartEnvSetupDlgAddIn\Setting_Common_Type_B.cpp
; File C:\Program Files (x86)\Microsoft Visual Studio\2019\Community\VC\Tools\MSVC\14.29.30133\atlmfc\include\afxcmn.inl
; File D:\git\src\IBK\IBK_DRFN\ProjSrc\SrcChartEx\ChartAddIn\ChartEnvSetupDlgAddIn\ChartEnvSetupDlgAddIn\Setting_Common_Type_B.cpp
; File C:\Program Files (x86)\Microsoft Visual Studio\2019\Community\VC\Tools\MSVC\14.29.30133\atlmfc\include\afxcmn2.inl
; File D:\git\src\IBK\IBK_DRFN\ProjSrc\SrcChartEx\ChartAddIn\ChartEnvSetupDlgAddIn\ChartEnvSetupDlgAddIn\Setting_Common_Type_B.cpp
;	COMDAT ?OnItemchangedListComposition@CSetting_Common_Type_B@@IAEXPAUtagNMHDR@@PAJ@Z
_TEXT	SEGMENT
tv547 = -12						; size = 4
tv550 = -8						; size = 4
_this$1$ = -4						; size = 4
_pNMHDR$ = 8						; size = 4
_pResult$ = 12						; size = 4
?OnItemchangedListComposition@CSetting_Common_Type_B@@IAEXPAUtagNMHDR@@PAJ@Z PROC ; CSetting_Common_Type_B::OnItemchangedListComposition, COMDAT
; _this$ = ecx

; 656  : {

  00000	55		 push	 ebp
  00001	8b ec		 mov	 ebp, esp
  00003	83 ec 0c	 sub	 esp, 12			; 0000000cH

; 657  : 	NM_LISTVIEW* pNMListView = (NM_LISTVIEW*)pNMHDR;
; 658  : 	// TODO: Add your control notification handler code here
; 659  : 	*pResult = 0;

  00006	8b 45 0c	 mov	 eax, DWORD PTR _pResult$[ebp]
  00009	56		 push	 esi
  0000a	57		 push	 edi

; 660  : 
; 661  : 	if(pNMListView->uOldState == 0 && pNMListView->uNewState == 0)

  0000b	8b 7d 08	 mov	 edi, DWORD PTR _pNMHDR$[ebp]
  0000e	8b f1		 mov	 esi, ecx
  00010	c7 00 00 00 00
	00		 mov	 DWORD PTR [eax], 0
  00016	89 75 fc	 mov	 DWORD PTR _this$1$[ebp], esi
  00019	8b 57 18	 mov	 edx, DWORD PTR [edi+24]
  0001c	85 d2		 test	 edx, edx
  0001e	75 09		 jne	 SHORT $LN30@OnItemchan
  00020	39 57 14	 cmp	 DWORD PTR [edi+20], edx
  00023	0f 84 3f 01 00
	00		 je	 $LN16@OnItemchan
$LN30@OnItemchan:

; 662  : 		return;	// No change
; 663  : 
; 664  : 	// Old check box state
; 665  : 	BOOL bPrevState = (BOOL)(((pNMListView->uOldState & LVIS_STATEIMAGEMASK)>>12)-1);   // Old check box state
; 666  : 	if (bPrevState < 0)			// On startup there's no previous state 
; 667  : 		bPrevState = 0;			// so assign as false (unchecked)
; 668  : 
; 669  : 	// New check box state
; 670  : 	BOOL bChecked=(BOOL)(((pNMListView->uNewState & LVIS_STATEIMAGEMASK)>>12)-1);   

  00029	8b 4f 14	 mov	 ecx, DWORD PTR [edi+20]
  0002c	c1 ea 0c	 shr	 edx, 12			; 0000000cH
  0002f	83 e2 0f	 and	 edx, 15			; 0000000fH
  00032	53		 push	 ebx
  00033	33 db		 xor	 ebx, ebx
  00035	83 fa 01	 cmp	 edx, 1
  00038	8d 42 ff	 lea	 eax, DWORD PTR [edx-1]
  0003b	0f 43 d8	 cmovae	 ebx, eax
  0003e	c1 e9 0c	 shr	 ecx, 12			; 0000000cH
  00041	83 e1 0f	 and	 ecx, 15			; 0000000fH

; 671  : 	if (bChecked < 0)		// On non-checkbox notifications assume false
; 672  : 		bChecked = 0; 
; 673  : 
; 674  : 	if (bPrevState == bChecked) // No change in check box

  00044	33 d2		 xor	 edx, edx
  00046	83 f9 01	 cmp	 ecx, 1
  00049	8d 41 ff	 lea	 eax, DWORD PTR [ecx-1]
  0004c	0f 43 d0	 cmovae	 edx, eax
  0004f	89 55 f4	 mov	 DWORD PTR tv547[ebp], edx
  00052	3b da		 cmp	 ebx, edx
  00054	0f 84 0d 01 00
	00		 je	 $LN34@OnItemchan

; 675  : 		return;
; 676  : 
; 677  : 	if( pNMListView->iItem < 0 )

  0005a	83 7f 0c 00	 cmp	 DWORD PTR [edi+12], 0
  0005e	7d 07		 jge	 SHORT $LN9@OnItemchan

; 678  : 		pNMListView->iItem = 0;

  00060	c7 47 0c 00 00
	00 00		 mov	 DWORD PTR [edi+12], 0
$LN9@OnItemchan:

; 679  : 
; 680  : 	BOOL bReCheck = FALSE;
; 681  : 	//   Item  .
; 682  : 	if( bPrevState == 1 && bChecked == 0 )

  00067	83 fb 01	 cmp	 ebx, 1
  0006a	0f 85 bd 00 00
	00		 jne	 $LN33@OnItemchan
  00070	85 d2		 test	 edx, edx
  00072	0f 85 b5 00 00
	00		 jne	 $LN33@OnItemchan
; File C:\Program Files (x86)\Microsoft Visual Studio\2019\Community\VC\Tools\MSVC\14.29.30133\atlmfc\include\afxcmn.inl

; 155  : 	{ ASSERT(::IsWindow(m_hWnd)); return (int) ::SendMessage(m_hWnd, LVM_GETITEMCOUNT, 0, 0L); }

  00078	52		 push	 edx
  00079	52		 push	 edx
  0007a	68 04 10 00 00	 push	 4100			; 00001004H
  0007f	ff b6 f8 11 00
	00		 push	 DWORD PTR [esi+4600]
  00085	ff 15 00 00 00
	00		 call	 DWORD PTR __imp__SendMessageA@16
  0008b	8b 4d fc	 mov	 ecx, DWORD PTR _this$1$[ebp]
; File D:\git\src\IBK\IBK_DRFN\ProjSrc\SrcChartEx\ChartAddIn\ChartEnvSetupDlgAddIn\ChartEnvSetupDlgAddIn\Setting_Common_Type_B.cpp

; 685  : 		int nChecked = 0;

  0008e	33 db		 xor	 ebx, ebx
; File C:\Program Files (x86)\Microsoft Visual Studio\2019\Community\VC\Tools\MSVC\14.29.30133\atlmfc\include\afxcmn.inl

; 155  : 	{ ASSERT(::IsWindow(m_hWnd)); return (int) ::SendMessage(m_hWnd, LVM_GETITEMCOUNT, 0, 0L); }

  00090	81 c1 d8 11 00
	00		 add	 ecx, 4568		; 000011d8H
  00096	33 f6		 xor	 esi, esi
  00098	89 4d f8	 mov	 DWORD PTR tv550[ebp], ecx
; File D:\git\src\IBK\IBK_DRFN\ProjSrc\SrcChartEx\ChartAddIn\ChartEnvSetupDlgAddIn\ChartEnvSetupDlgAddIn\Setting_Common_Type_B.cpp

; 686  : 		for( int nItem = 0 ; nItem < nCount ; nItem++ )

  0009b	85 c0		 test	 eax, eax
  0009d	7e 19		 jle	 SHORT $LN28@OnItemchan
  0009f	8b f8		 mov	 edi, eax
$LL4@OnItemchan:

; 687  : 		{
; 688  : 			if( m_lstComposition.GetCheck( nItem ) == TRUE )

  000a1	56		 push	 esi
  000a2	e8 00 00 00 00	 call	 ?GetCheck@CListCtrl@@QBEHH@Z ; CListCtrl::GetCheck
  000a7	83 f8 01	 cmp	 eax, 1
  000aa	75 01		 jne	 SHORT $LN2@OnItemchan

; 689  : 				nChecked++;

  000ac	43		 inc	 ebx
$LN2@OnItemchan:

; 686  : 		for( int nItem = 0 ; nItem < nCount ; nItem++ )

  000ad	8b 4d f8	 mov	 ecx, DWORD PTR tv550[ebp]
  000b0	46		 inc	 esi
  000b1	3b f7		 cmp	 esi, edi
  000b3	7c ec		 jl	 SHORT $LL4@OnItemchan
  000b5	8b 7d 08	 mov	 edi, DWORD PTR _pNMHDR$[ebp]
$LN28@OnItemchan:

; 690  : 		}
; 691  : 
; 692  : 		m_pIGraphInfo->SetSubGraphShowFlag( pNMListView->iItem, FALSE);

  000b8	8b 75 fc	 mov	 esi, DWORD PTR _this$1$[ebp]
  000bb	6a 00		 push	 0
  000bd	ff 77 0c	 push	 DWORD PTR [edi+12]
  000c0	8b 8e c4 00 00
	00		 mov	 ecx, DWORD PTR [esi+196]
  000c6	8b 01		 mov	 eax, DWORD PTR [ecx]
  000c8	ff 50 38	 call	 DWORD PTR [eax+56]

; 693  : 		if( nChecked < 1 )

  000cb	83 fb 01	 cmp	 ebx, 1
  000ce	7d 5d		 jge	 SHORT $LN33@OnItemchan

; 694  : 		{
; 695  : // 2008.01.25 by LYH >>
; 696  : 			//AfxMessageBox("     .");
; 697  : 			AfxMessageBox(m_strMsgExistMin);

  000d0	6a 00		 push	 0
  000d2	6a 00		 push	 0
  000d4	ff b6 e4 00 00
	00		 push	 DWORD PTR [esi+228]
  000da	e8 00 00 00 00	 call	 ?AfxMessageBox@@YGHPBDII@Z ; AfxMessageBox

; 698  : // 2008.01.25 by LYH <<
; 699  : 			m_lstComposition.SetCheck( pNMListView->iItem );

  000df	6a 01		 push	 1
  000e1	ff 77 0c	 push	 DWORD PTR [edi+12]
  000e4	8d 8e d8 11 00
	00		 lea	 ecx, DWORD PTR [esi+4568]
  000ea	e8 00 00 00 00	 call	 ?SetCheck@CListCtrl@@QAEHHH@Z ; CListCtrl::SetCheck

; 700  : 			m_pIGraphInfo->SetSubGraphShowFlag( pNMListView->iItem, TRUE);

  000ef	8b 8e c4 00 00
	00		 mov	 ecx, DWORD PTR [esi+196]
  000f5	6a 01		 push	 1
  000f7	ff 77 0c	 push	 DWORD PTR [edi+12]
  000fa	8b 01		 mov	 eax, DWORD PTR [ecx]
  000fc	ff 50 38	 call	 DWORD PTR [eax+56]
; File C:\Program Files (x86)\Microsoft Visual Studio\2019\Community\VC\Tools\MSVC\14.29.30133\atlmfc\include\afxcmn2.inl

; 121  : 	{ ASSERT(::IsWindow(m_hWnd)); return (int) ::SendMessage(m_hWnd, LVM_SETHOTITEM, (WPARAM) iIndex, 0); }

  000ff	6a 00		 push	 0
  00101	ff 77 0c	 push	 DWORD PTR [edi+12]
  00104	68 3c 10 00 00	 push	 4156			; 0000103cH
  00109	ff b6 f8 11 00
	00		 push	 DWORD PTR [esi+4600]
  0010f	ff 15 00 00 00
	00		 call	 DWORD PTR __imp__SendMessageA@16
; File D:\git\src\IBK\IBK_DRFN\ProjSrc\SrcChartEx\ChartAddIn\ChartEnvSetupDlgAddIn\ChartEnvSetupDlgAddIn\Setting_Common_Type_B.cpp

; 703  : 			OnApplySubGraphData();

  00115	8b ce		 mov	 ecx, esi
  00117	e8 00 00 00 00	 call	 ?OnApplySubGraphData@CSetting_Common_Type_B@@AAEXXZ ; CSetting_Common_Type_B::OnApplySubGraphData

; 704  : 			Initial_SubGraphData( pNMListView->iItem );

  0011c	ff 77 0c	 push	 DWORD PTR [edi+12]
  0011f	8b ce		 mov	 ecx, esi
  00121	e8 00 00 00 00	 call	 ?Initial_SubGraphData@CSetting_Common_Type_B@@AAEXH@Z ; CSetting_Common_Type_B::Initial_SubGraphData

; 705  : 			bReCheck = TRUE;

  00126	bb 01 00 00 00	 mov	 ebx, 1
  0012b	eb 02		 jmp	 SHORT $LN12@OnItemchan
$LN33@OnItemchan:

; 706  : 		}
; 707  : 	}
; 708  : 
; 709  : 	if(!m_bInitComplite)

  0012d	33 db		 xor	 ebx, ebx
$LN12@OnItemchan:
  0012f	83 be 74 12 00
	00 00		 cmp	 DWORD PTR [esi+4724], 0
  00136	75 2f		 jne	 SHORT $LN34@OnItemchan

; 710  : 	{
; 711  : 		//  
; 712  : 		if(bChecked) m_pIGraphInfo->SetSubGraphShowFlag( pNMListView->iItem, TRUE);

  00138	83 7d f4 00	 cmp	 DWORD PTR tv547[ebp], 0
  0013c	8b 8e c4 00 00
	00		 mov	 ecx, DWORD PTR [esi+196]
  00142	8b 57 0c	 mov	 edx, DWORD PTR [edi+12]
  00145	8b 01		 mov	 eax, DWORD PTR [ecx]
  00147	74 04		 je	 SHORT $LN14@OnItemchan
  00149	6a 01		 push	 1
  0014b	eb 02		 jmp	 SHORT $LN36@OnItemchan
$LN14@OnItemchan:

; 713  : 		//  
; 714  : 		else m_pIGraphInfo->SetSubGraphShowFlag( pNMListView->iItem, FALSE);

  0014d	6a 00		 push	 0
$LN36@OnItemchan:

; 715  : 
; 716  : 		if( bReCheck) m_pIGraphInfo->SetSubGraphShowFlag( pNMListView->iItem, TRUE);

  0014f	52		 push	 edx
  00150	ff 50 38	 call	 DWORD PTR [eax+56]
  00153	85 db		 test	 ebx, ebx
  00155	74 10		 je	 SHORT $LN34@OnItemchan
  00157	8b 8e c4 00 00
	00		 mov	 ecx, DWORD PTR [esi+196]
  0015d	6a 01		 push	 1
  0015f	ff 77 0c	 push	 DWORD PTR [edi+12]
  00162	8b 01		 mov	 eax, DWORD PTR [ecx]
  00164	ff 50 38	 call	 DWORD PTR [eax+56]
$LN34@OnItemchan:
  00167	5b		 pop	 ebx
$LN16@OnItemchan:
  00168	5f		 pop	 edi

; 717  : 	}
; 718  : }

  00169	5e		 pop	 esi
  0016a	8b e5		 mov	 esp, ebp
  0016c	5d		 pop	 ebp
  0016d	c2 08 00	 ret	 8
?OnItemchangedListComposition@CSetting_Common_Type_B@@IAEXPAUtagNMHDR@@PAJ@Z ENDP ; CSetting_Common_Type_B::OnItemchangedListComposition
_TEXT	ENDS
; Function compile flags: /Ogtp
; File D:\git\src\IBK\IBK_DRFN\ProjSrc\SrcChartEx\ChartAddIn\ChartEnvSetupDlgAddIn\ChartEnvSetupDlgAddIn\Setting_Common_Type_B.cpp
; File C:\Program Files (x86)\Microsoft Visual Studio\2019\Community\VC\Tools\MSVC\14.29.30133\atlmfc\include\afxwin2.inl
; File C:\Program Files (x86)\Microsoft Visual Studio\2019\Community\VC\Tools\MSVC\14.29.30133\atlmfc\include\afxdlgs.h
; File D:\git\src\IBK\IBK_DRFN\ProjSrc\SrcChartEx\ChartAddIn\ChartEnvSetupDlgAddIn\ChartEnvSetupDlgAddIn\Setting_Common_Type_B.cpp
;	COMDAT ?OnBtnCompositionColor@CSetting_Common_Type_B@@IAEXXZ
_TEXT	SEGMENT
_color$ = -224						; size = 208
$T2 = -16						; size = 4
__$EHRec$ = -12						; size = 12
?OnBtnCompositionColor@CSetting_Common_Type_B@@IAEXXZ PROC ; CSetting_Common_Type_B::OnBtnCompositionColor, COMDAT
; _this$ = ecx

; 548  : {

  00000	55		 push	 ebp
  00001	8b ec		 mov	 ebp, esp
  00003	6a ff		 push	 -1
  00005	68 00 00 00 00	 push	 __ehhandler$?OnBtnCompositionColor@CSetting_Common_Type_B@@IAEXXZ
  0000a	64 a1 00 00 00
	00		 mov	 eax, DWORD PTR fs:0
  00010	50		 push	 eax
  00011	81 ec d4 00 00
	00		 sub	 esp, 212		; 000000d4H
  00017	56		 push	 esi
  00018	57		 push	 edi
  00019	a1 00 00 00 00	 mov	 eax, DWORD PTR ___security_cookie
  0001e	33 c5		 xor	 eax, ebp
  00020	50		 push	 eax
  00021	8d 45 f4	 lea	 eax, DWORD PTR __$EHRec$[ebp]
  00024	64 a3 00 00 00
	00		 mov	 DWORD PTR fs:0, eax
  0002a	8b f1		 mov	 esi, ecx

; 549  : 	// TODO: Add your control notification handler code here
; 550  : 	if( m_nSubGraphIndex < 0) return;

  0002c	83 be 68 12 00
	00 00		 cmp	 DWORD PTR [esi+4712], 0
  00033	0f 8c 92 00 00
	00		 jl	 $LN12@OnBtnCompo

; 551  : 	
; 552  : 	COLORREF crColor = m_btnComositionColor.GetColor();

  00039	8d 8e 50 11 00
	00		 lea	 ecx, DWORD PTR [esi+4432]
  0003f	e8 00 00 00 00	 call	 ?GetColor@CColorButton@@QAEKXZ ; CColorButton::GetColor

; 553  : 	CColorDialog color(crColor, CC_FULLOPEN);

  00044	6a 00		 push	 0
  00046	6a 02		 push	 2
  00048	50		 push	 eax
  00049	8d 8d 20 ff ff
	ff		 lea	 ecx, DWORD PTR _color$[ebp]
  0004f	e8 00 00 00 00	 call	 ??0CColorDialog@@QAE@KKPAVCWnd@@@Z ; CColorDialog::CColorDialog

; 554  : 	if(color.DoModal() == IDOK) 

  00054	8d 8d 20 ff ff
	ff		 lea	 ecx, DWORD PTR _color$[ebp]
  0005a	c7 45 fc 00 00
	00 00		 mov	 DWORD PTR __$EHRec$[ebp+8], 0
  00061	e8 00 00 00 00	 call	 ?DoModal@CColorDialog@@UAEHXZ ; CColorDialog::DoModal
  00066	83 f8 01	 cmp	 eax, 1
  00069	75 4b		 jne	 SHORT $LN3@OnBtnCompo

; 555  : 	{
; 556  : 		m_pIGraphInfo->SetSubGraphColor( m_nSubGraphIndex, 1, color.GetColor());

  0006b	8b 8e c4 00 00
	00		 mov	 ecx, DWORD PTR [esi+196]
  00071	ff 75 d4	 push	 DWORD PTR _color$[ebp+180]
  00074	6a 01		 push	 1
  00076	8b 01		 mov	 eax, DWORD PTR [ecx]
  00078	ff b6 68 12 00
	00		 push	 DWORD PTR [esi+4712]
  0007e	ff 50 6c	 call	 DWORD PTR [eax+108]

; 557  : 		m_btnComositionColor.SetColor( m_pIGraphInfo->GetSubGraphColor( m_nSubGraphIndex, 1));

  00081	8b 8e c4 00 00
	00		 mov	 ecx, DWORD PTR [esi+196]
  00087	6a 01		 push	 1
  00089	ff b6 68 12 00
	00		 push	 DWORD PTR [esi+4712]
  0008f	8b 01		 mov	 eax, DWORD PTR [ecx]
  00091	ff 50 64	 call	 DWORD PTR [eax+100]
  00094	89 45 f0	 mov	 DWORD PTR $T2[ebp], eax
  00097	8d 8e 50 11 00
	00		 lea	 ecx, DWORD PTR [esi+4432]
  0009d	8d 45 f0	 lea	 eax, DWORD PTR $T2[ebp]
  000a0	50		 push	 eax
  000a1	e8 00 00 00 00	 call	 ?SetColor@CColorButton@@QAEXABK@Z ; CColorButton::SetColor
; File C:\Program Files (x86)\Microsoft Visual Studio\2019\Community\VC\Tools\MSVC\14.29.30133\atlmfc\include\afxwin2.inl

; 114  : 	{ ASSERT(::IsWindow(m_hWnd)); ::InvalidateRect(m_hWnd, NULL, bErase); }

  000a6	6a 01		 push	 1
  000a8	6a 00		 push	 0
  000aa	ff b6 70 11 00
	00		 push	 DWORD PTR [esi+4464]
  000b0	ff 15 00 00 00
	00		 call	 DWORD PTR __imp__InvalidateRect@12
$LN3@OnBtnCompo:
; File C:\Program Files (x86)\Microsoft Visual Studio\2019\Community\VC\Tools\MSVC\14.29.30133\atlmfc\include\afxdlgs.h

; 110  :     virtual ~CCommonDialog() {};

  000b6	8d 8d 20 ff ff
	ff		 lea	 ecx, DWORD PTR _color$[ebp]
  000bc	c7 85 20 ff ff
	ff 00 00 00 00	 mov	 DWORD PTR _color$[ebp], OFFSET ??_7CCommonDialog@@6B@
  000c6	e8 00 00 00 00	 call	 ??1CDialog@@UAE@XZ	; CDialog::~CDialog
$LN12@OnBtnCompo:
; File D:\git\src\IBK\IBK_DRFN\ProjSrc\SrcChartEx\ChartAddIn\ChartEnvSetupDlgAddIn\ChartEnvSetupDlgAddIn\Setting_Common_Type_B.cpp

; 561  : }

  000cb	8b 4d f4	 mov	 ecx, DWORD PTR __$EHRec$[ebp]
  000ce	64 89 0d 00 00
	00 00		 mov	 DWORD PTR fs:0, ecx
  000d5	59		 pop	 ecx
  000d6	5f		 pop	 edi
  000d7	5e		 pop	 esi
  000d8	8b e5		 mov	 esp, ebp
  000da	5d		 pop	 ebp
  000db	c3		 ret	 0
_TEXT	ENDS
;	COMDAT text$x
text$x	SEGMENT
__unwindfunclet$?OnBtnCompositionColor@CSetting_Common_Type_B@@IAEXXZ$0:
  00000	8d 8d 20 ff ff
	ff		 lea	 ecx, DWORD PTR _color$[ebp]
  00006	e9 00 00 00 00	 jmp	 ??1CColorDialog@@UAE@XZ
  0000b	cc		 int	 3
  0000c	cc		 int	 3
  0000d	cc		 int	 3
  0000e	cc		 int	 3
  0000f	cc		 int	 3
__ehhandler$?OnBtnCompositionColor@CSetting_Common_Type_B@@IAEXXZ:
  00010	90		 npad	 1
  00011	90		 npad	 1
  00012	8b 54 24 08	 mov	 edx, DWORD PTR [esp+8]
  00016	8d 42 0c	 lea	 eax, DWORD PTR [edx+12]
  00019	8b 8a 20 ff ff
	ff		 mov	 ecx, DWORD PTR [edx-224]
  0001f	33 c8		 xor	 ecx, eax
  00021	e8 00 00 00 00	 call	 @__security_check_cookie@4
  00026	b8 00 00 00 00	 mov	 eax, OFFSET __ehfuncinfo$?OnBtnCompositionColor@CSetting_Common_Type_B@@IAEXXZ
  0002b	e9 00 00 00 00	 jmp	 ___CxxFrameHandler3
text$x	ENDS
?OnBtnCompositionColor@CSetting_Common_Type_B@@IAEXXZ ENDP ; CSetting_Common_Type_B::OnBtnCompositionColor
; Function compile flags: /Ogtp
; File D:\git\src\IBK\IBK_DRFN\ProjSrc\SrcChartEx\ChartAddIn\ChartEnvSetupDlgAddIn\ChartEnvSetupDlgAddIn\Setting_Common_Type_B.cpp
; File C:\Program Files (x86)\Microsoft Visual Studio\2019\Community\VC\Tools\MSVC\14.29.30133\atlmfc\include\afxcmn.inl
; File C:\Program Files (x86)\Microsoft Visual Studio\2019\Community\VC\Tools\MSVC\14.29.30133\atlmfc\include\afxcmn2.inl
; File D:\git\src\IBK\IBK_DRFN\ProjSrc\SrcChartEx\ChartAddIn\ChartEnvSetupDlgAddIn\ChartEnvSetupDlgAddIn\Setting_Common_Type_B.cpp
;	COMDAT ?OnInitDialog@CSetting_Common_Type_B@@MAEHXZ
_TEXT	SEGMENT
?OnInitDialog@CSetting_Common_Type_B@@MAEHXZ PROC	; CSetting_Common_Type_B::OnInitDialog, COMDAT
; _this$ = ecx

; 114  : {

  00000	57		 push	 edi
  00001	8b f9		 mov	 edi, ecx

; 115  : 	CDialog::OnInitDialog();

  00003	e8 00 00 00 00	 call	 ?OnInitDialog@CDialog@@UAEHXZ ; CDialog::OnInitDialog

; 116  : 	
; 117  : 	// 1.  Column 
; 118  : 	m_lstComposition.InsertColumn( 0, "", LVCFMT_LEFT, 100 );

  00008	6a ff		 push	 -1
  0000a	6a 64		 push	 100			; 00000064H
  0000c	6a 00		 push	 0
  0000e	68 00 00 00 00	 push	 OFFSET ??_C@_00CNPNBAHC@@
  00013	6a 00		 push	 0
  00015	8d 8f d8 11 00
	00		 lea	 ecx, DWORD PTR [edi+4568]
  0001b	e8 00 00 00 00	 call	 ?InsertColumn@CListCtrl@@QAEHHPBDHHH@Z ; CListCtrl::InsertColumn
; File C:\Program Files (x86)\Microsoft Visual Studio\2019\Community\VC\Tools\MSVC\14.29.30133\atlmfc\include\afxcmn.inl

; 215  : 	{ ASSERT(::IsWindow(m_hWnd)); return (BOOL) ::SendMessage(m_hWnd, LVM_SETCOLUMNWIDTH, nCol, MAKELPARAM(cx, 0)); }

  00020	68 fe ff 00 00	 push	 65534			; 0000fffeH
  00025	6a 00		 push	 0
  00027	68 1e 10 00 00	 push	 4126			; 0000101eH
  0002c	ff b7 f8 11 00
	00		 push	 DWORD PTR [edi+4600]
  00032	ff 15 00 00 00
	00		 call	 DWORD PTR __imp__SendMessageA@16
; File C:\Program Files (x86)\Microsoft Visual Studio\2019\Community\VC\Tools\MSVC\14.29.30133\atlmfc\include\afxcmn2.inl

; 117  : 	{ ASSERT(::IsWindow(m_hWnd)); return (DWORD) ::SendMessage(m_hWnd, LVM_SETEXTENDEDLISTVIEWSTYLE, 0, (LPARAM) dwNewStyle); }

  00038	6a 24		 push	 36			; 00000024H
  0003a	6a 00		 push	 0
  0003c	68 36 10 00 00	 push	 4150			; 00001036H
  00041	ff b7 f8 11 00
	00		 push	 DWORD PTR [edi+4600]
  00047	ff 15 00 00 00
	00		 call	 DWORD PTR __imp__SendMessageA@16
; File D:\git\src\IBK\IBK_DRFN\ProjSrc\SrcChartEx\ChartAddIn\ChartEnvSetupDlgAddIn\ChartEnvSetupDlgAddIn\Setting_Common_Type_B.cpp

; 122  : 	if( !m_pIGraphInfo) return TRUE;

  0004d	83 bf c4 00 00
	00 00		 cmp	 DWORD PTR [edi+196], 0
  00054	74 0c		 je	 SHORT $LN8@OnInitDial

; 123  : 	Initial( NULL);

  00056	8b 07		 mov	 eax, DWORD PTR [edi]
  00058	8b cf		 mov	 ecx, edi
  0005a	6a 00		 push	 0
  0005c	ff 90 94 01 00
	00		 call	 DWORD PTR [eax+404]
$LN8@OnInitDial:

; 124  : 
; 125  : 	return TRUE;  // return TRUE unless you set the focus to a control
; 126  : 	              // EXCEPTION: OCX Property Pages should return FALSE
; 127  : }

  00062	b8 01 00 00 00	 mov	 eax, 1
  00067	5f		 pop	 edi
  00068	c3		 ret	 0
?OnInitDialog@CSetting_Common_Type_B@@MAEHXZ ENDP	; CSetting_Common_Type_B::OnInitDialog
_TEXT	ENDS
; Function compile flags: /Ogtp
; File D:\git\src\IBK\IBK_DRFN\ProjSrc\SrcChartEx\ChartAddIn\ChartEnvSetupDlgAddIn\ChartEnvSetupDlgAddIn\Setting_Common_Type_B.cpp
; File D:\git\src\IBK\IBK_DRFN\ProjSrc\SrcChartEx\ChartAddIn\ChartEnvSetupDlgAddIn\Include_AddIn_135914\I135914\_IString.h
; File D:\git\src\IBK\IBK_DRFN\ProjSrc\SrcChartEx\ChartAddIn\ChartEnvSetupDlgAddIn\ChartEnvSetupDlgAddIn\Setting_Common_Type_B.cpp
; File D:\git\src\IBK\IBK_DRFN\ProjSrc\SrcChartEx\ChartAddIn\ChartEnvSetupDlgAddIn\Include_AddIn_135914\I135914\_IString.h
; File D:\git\src\IBK\IBK_DRFN\ProjSrc\SrcChartEx\ChartAddIn\ChartEnvSetupDlgAddIn\ChartEnvSetupDlgAddIn\Setting_Common_Type_B.cpp
;	COMDAT ?IsShowBaseLineList@CSetting_Common_Type_B@@ABE_NXZ
_TEXT	SEGMENT
_szGraphName$ = -24					; size = 8
_nCount$2$ = -16					; size = 4
__$EHRec$ = -12						; size = 12
?IsShowBaseLineList@CSetting_Common_Type_B@@ABE_NXZ PROC ; CSetting_Common_Type_B::IsShowBaseLineList, COMDAT
; _this$ = ecx

; 385  : {

  00000	55		 push	 ebp
  00001	8b ec		 mov	 ebp, esp
  00003	6a ff		 push	 -1
  00005	68 00 00 00 00	 push	 __ehhandler$?IsShowBaseLineList@CSetting_Common_Type_B@@ABE_NXZ
  0000a	64 a1 00 00 00
	00		 mov	 eax, DWORD PTR fs:0
  00010	50		 push	 eax
  00011	83 ec 0c	 sub	 esp, 12			; 0000000cH
  00014	53		 push	 ebx
  00015	56		 push	 esi
  00016	57		 push	 edi
  00017	a1 00 00 00 00	 mov	 eax, DWORD PTR ___security_cookie
  0001c	33 c5		 xor	 eax, ebp
  0001e	50		 push	 eax
  0001f	8d 45 f4	 lea	 eax, DWORD PTR __$EHRec$[ebp]
  00022	64 a3 00 00 00
	00		 mov	 DWORD PTR fs:0, eax
  00028	8b d9		 mov	 ebx, ecx

; 386  : 	IDoubleList *pIDblBase = m_pIGraphInfo->GetBaseLineList();

  0002a	8b 8b c4 00 00
	00		 mov	 ecx, DWORD PTR [ebx+196]
  00030	8b 01		 mov	 eax, DWORD PTR [ecx]
  00032	ff 50 28	 call	 DWORD PTR [eax+40]
  00035	8b f8		 mov	 edi, eax

; 387  : 	int nCount = 0;
; 388  : 	if( pIDblBase)

  00037	85 ff		 test	 edi, edi
  00039	74 27		 je	 SHORT $LN3@IsShowBase

; 389  : 	{
; 390  : 		nCount = pIDblBase->GetCount();

  0003b	8b 17		 mov	 edx, DWORD PTR [edi]
  0003d	8b cf		 mov	 ecx, edi
  0003f	ff 52 10	 call	 DWORD PTR [edx+16]

; 391  : 		pIDblBase->Release();

  00042	8b 0f		 mov	 ecx, DWORD PTR [edi]
  00044	8b f0		 mov	 esi, eax
  00046	57		 push	 edi
  00047	ff 51 08	 call	 DWORD PTR [ecx+8]

; 392  : 		if( nCount) return TRUE;

  0004a	85 f6		 test	 esi, esi
  0004c	74 14		 je	 SHORT $LN3@IsShowBase
  0004e	b0 01		 mov	 al, 1

; 407  : }

  00050	8b 4d f4	 mov	 ecx, DWORD PTR __$EHRec$[ebp]
  00053	64 89 0d 00 00
	00 00		 mov	 DWORD PTR fs:0, ecx
  0005a	59		 pop	 ecx
  0005b	5f		 pop	 edi
  0005c	5e		 pop	 esi
  0005d	5b		 pop	 ebx
  0005e	8b e5		 mov	 esp, ebp
  00060	5d		 pop	 ebp
  00061	c3		 ret	 0
$LN3@IsShowBase:

; 395  : 	ILPCSTR szGraphName = m_pIGraphInfo->GetGraphNameString();

  00062	8b 8b c4 00 00
	00		 mov	 ecx, DWORD PTR [ebx+196]
  00068	8b 01		 mov	 eax, DWORD PTR [ecx]
  0006a	ff 90 a0 00 00
	00		 call	 DWORD PTR [eax+160]
; File D:\git\src\IBK\IBK_DRFN\ProjSrc\SrcChartEx\ChartAddIn\ChartEnvSetupDlgAddIn\Include_AddIn_135914\I135914\_IString.h

; 39   : 		m_pIStrData = p_pIString;	// Do not AddRef(). Because It must be Return Value.

  00070	8b f0		 mov	 esi, eax
  00072	89 75 ec	 mov	 DWORD PTR _szGraphName$[ebp+4], esi

; 40   : 		if( m_pIStrData) m_szData = m_pIStrData->GetData();

  00075	85 f6		 test	 esi, esi
  00077	74 0b		 je	 SHORT $LN10@IsShowBase
  00079	8b 16		 mov	 edx, DWORD PTR [esi]
  0007b	8b ce		 mov	 ecx, esi
  0007d	ff 52 10	 call	 DWORD PTR [edx+16]
  00080	8b d0		 mov	 edx, eax
  00082	eb 02		 jmp	 SHORT $LN18@IsShowBase
$LN10@IsShowBase:

; 41   : 		else m_szData = NULL;

  00084	33 d2		 xor	 edx, edx
$LN18@IsShowBase:
; File D:\git\src\IBK\IBK_DRFN\ProjSrc\SrcChartEx\ChartAddIn\ChartEnvSetupDlgAddIn\ChartEnvSetupDlgAddIn\Setting_Common_Type_B.cpp

; 395  : 	ILPCSTR szGraphName = m_pIGraphInfo->GetGraphNameString();

  00086	89 55 e8	 mov	 DWORD PTR _szGraphName$[ebp], edx

; 396  : 	IGraphInfo* pDefaultInfo = m_pIGraphInfoManager->GetGraphInfo( IGraphInfoManager::IEILT_SITE_DEFAULT, szGraphName);

  00089	8b 8b bc 00 00
	00		 mov	 ecx, DWORD PTR [ebx+188]
  0008f	52		 push	 edx
  00090	6a 00		 push	 0
  00092	c7 45 fc 00 00
	00 00		 mov	 DWORD PTR __$EHRec$[ebp+8], 0
  00099	8b 01		 mov	 eax, DWORD PTR [ecx]
  0009b	ff 50 14	 call	 DWORD PTR [eax+20]
  0009e	8b f8		 mov	 edi, eax

; 397  : 	if( !pDefaultInfo) return FALSE;

  000a0	85 ff		 test	 edi, edi
  000a2	75 04		 jne	 SHORT $LN4@IsShowBase
  000a4	32 db		 xor	 bl, bl
  000a6	eb 31		 jmp	 SHORT $LN8@IsShowBase
$LN4@IsShowBase:

; 398  : 	pIDblBase = pDefaultInfo->GetBaseLineList();

  000a8	8b 07		 mov	 eax, DWORD PTR [edi]
  000aa	8b cf		 mov	 ecx, edi
  000ac	ff 50 28	 call	 DWORD PTR [eax+40]
  000af	8b d8		 mov	 ebx, eax

; 399  : 	nCount = 0;

  000b1	c7 45 f0 00 00
	00 00		 mov	 DWORD PTR _nCount$2$[ebp], 0

; 400  : 	if( pIDblBase)

  000b8	85 db		 test	 ebx, ebx
  000ba	74 10		 je	 SHORT $LN5@IsShowBase

; 401  : 	{
; 402  : 		nCount = pIDblBase->GetCount();

  000bc	8b 13		 mov	 edx, DWORD PTR [ebx]
  000be	8b cb		 mov	 ecx, ebx
  000c0	ff 52 10	 call	 DWORD PTR [edx+16]

; 403  : 		pIDblBase->Release();

  000c3	8b 0b		 mov	 ecx, DWORD PTR [ebx]
  000c5	53		 push	 ebx
  000c6	89 45 f0	 mov	 DWORD PTR _nCount$2$[ebp], eax
  000c9	ff 51 08	 call	 DWORD PTR [ecx+8]
$LN5@IsShowBase:

; 404  : 	}
; 405  : 	pDefaultInfo->Release();

  000cc	8b 0f		 mov	 ecx, DWORD PTR [edi]
  000ce	57		 push	 edi
  000cf	ff 51 08	 call	 DWORD PTR [ecx+8]

; 406  : 	return 0 < nCount;

  000d2	83 7d f0 00	 cmp	 DWORD PTR _nCount$2$[ebp], 0
  000d6	0f 9f c3	 setg	 bl
$LN8@IsShowBase:
; File D:\git\src\IBK\IBK_DRFN\ProjSrc\SrcChartEx\ChartAddIn\ChartEnvSetupDlgAddIn\Include_AddIn_135914\I135914\_IString.h

; 44   : 	{

  000d9	c7 45 fc 01 00
	00 00		 mov	 DWORD PTR __$EHRec$[ebp+8], 1

; 45   : 		if( m_pIStrData)

  000e0	85 f6		 test	 esi, esi
  000e2	74 06		 je	 SHORT $LN14@IsShowBase

; 46   : 		{
; 47   : 			m_pIStrData->Release();

  000e4	8b 0e		 mov	 ecx, DWORD PTR [esi]
  000e6	56		 push	 esi
  000e7	ff 51 08	 call	 DWORD PTR [ecx+8]
$LN14@IsShowBase:
; File D:\git\src\IBK\IBK_DRFN\ProjSrc\SrcChartEx\ChartAddIn\ChartEnvSetupDlgAddIn\ChartEnvSetupDlgAddIn\Setting_Common_Type_B.cpp

; 406  : 	return 0 < nCount;

  000ea	8a c3		 mov	 al, bl

; 407  : }

  000ec	8b 4d f4	 mov	 ecx, DWORD PTR __$EHRec$[ebp]
  000ef	64 89 0d 00 00
	00 00		 mov	 DWORD PTR fs:0, ecx
  000f6	59		 pop	 ecx
  000f7	5f		 pop	 edi
  000f8	5e		 pop	 esi
  000f9	5b		 pop	 ebx
  000fa	8b e5		 mov	 esp, ebp
  000fc	5d		 pop	 ebp
  000fd	c3		 ret	 0
_TEXT	ENDS
;	COMDAT text$x
text$x	SEGMENT
__unwindfunclet$?IsShowBaseLineList@CSetting_Common_Type_B@@ABE_NXZ$0:
  00000	8d 4d e8	 lea	 ecx, DWORD PTR _szGraphName$[ebp]
  00003	e9 00 00 00 00	 jmp	 ??1ILPCSTR135914@@QAE@XZ ; ILPCSTR135914::~ILPCSTR135914
  00008	cc		 int	 3
  00009	cc		 int	 3
  0000a	cc		 int	 3
  0000b	cc		 int	 3
  0000c	cc		 int	 3
__ehhandler$?IsShowBaseLineList@CSetting_Common_Type_B@@ABE_NXZ:
  0000d	90		 npad	 1
  0000e	90		 npad	 1
  0000f	8b 54 24 08	 mov	 edx, DWORD PTR [esp+8]
  00013	8d 42 0c	 lea	 eax, DWORD PTR [edx+12]
  00016	8b 4a e4	 mov	 ecx, DWORD PTR [edx-28]
  00019	33 c8		 xor	 ecx, eax
  0001b	e8 00 00 00 00	 call	 @__security_check_cookie@4
  00020	b8 00 00 00 00	 mov	 eax, OFFSET __ehfuncinfo$?IsShowBaseLineList@CSetting_Common_Type_B@@ABE_NXZ
  00025	e9 00 00 00 00	 jmp	 ___CxxFrameHandler3
text$x	ENDS
?IsShowBaseLineList@CSetting_Common_Type_B@@ABE_NXZ ENDP ; CSetting_Common_Type_B::IsShowBaseLineList
; Function compile flags: /Ogtp
; File D:\git\src\IBK\IBK_DRFN\ProjSrc\SrcChartEx\ChartAddIn\ChartEnvSetupDlgAddIn\ChartEnvSetupDlgAddIn\Setting_Common_Type_B.cpp
; File C:\Program Files (x86)\Microsoft Visual Studio\2019\Community\VC\Tools\MSVC\14.29.30133\atlmfc\include\afxwin2.inl
; File D:\git\src\IBK\IBK_DRFN\ProjSrc\SrcChartEx\ChartAddIn\ChartEnvSetupDlgAddIn\ChartEnvSetupDlgAddIn\Setting_Common_Type_B.cpp
; File C:\Program Files (x86)\Microsoft Visual Studio\2019\Community\VC\Tools\MSVC\14.29.30133\atlmfc\include\afxwin2.inl
; File D:\git\src\IBK\IBK_DRFN\ProjSrc\SrcChartEx\ChartAddIn\ChartEnvSetupDlgAddIn\ChartEnvSetupDlgAddIn\Setting_Common_Type_B.cpp
; File C:\Program Files (x86)\Microsoft Visual Studio\2019\Community\VC\Tools\MSVC\14.29.30133\atlmfc\include\afxwin2.inl
; File D:\git\src\IBK\IBK_DRFN\ProjSrc\SrcChartEx\ChartAddIn\ChartEnvSetupDlgAddIn\ChartEnvSetupDlgAddIn\Setting_Common_Type_B.cpp
; File C:\Program Files (x86)\Microsoft Visual Studio\2019\Community\VC\Tools\MSVC\14.29.30133\atlmfc\include\afxwin2.inl
; File D:\git\src\IBK\IBK_DRFN\ProjSrc\SrcChartEx\ChartAddIn\ChartEnvSetupDlgAddIn\ChartEnvSetupDlgAddIn\Setting_Common_Type_B.cpp
; File C:\Program Files (x86)\Microsoft Visual Studio\2019\Community\VC\Tools\MSVC\14.29.30133\atlmfc\include\afxwin2.inl
; File D:\git\src\IBK\IBK_DRFN\ProjSrc\SrcChartEx\ChartAddIn\ChartEnvSetupDlgAddIn\ChartEnvSetupDlgAddIn\Setting_Common_Type_B.cpp
;	COMDAT ?DeleteString_ListBox@CSetting_Common_Type_B@@AAEXXZ
_TEXT	SEGMENT
?DeleteString_ListBox@CSetting_Common_Type_B@@AAEXXZ PROC ; CSetting_Common_Type_B::DeleteString_ListBox, COMDAT
; _this$ = ecx

; 535  : {

  00000	53		 push	 ebx
; File C:\Program Files (x86)\Microsoft Visual Studio\2019\Community\VC\Tools\MSVC\14.29.30133\atlmfc\include\afxwin2.inl

; 664  : 	{ ASSERT(::IsWindow(m_hWnd)); return (int)::SendMessage(m_hWnd, LB_GETCOUNT, 0, 0); }

  00001	8b 1d 00 00 00
	00		 mov	 ebx, DWORD PTR __imp__SendMessageA@16
; File D:\git\src\IBK\IBK_DRFN\ProjSrc\SrcChartEx\ChartAddIn\ChartEnvSetupDlgAddIn\ChartEnvSetupDlgAddIn\Setting_Common_Type_B.cpp

; 535  : {

  00007	56		 push	 esi
  00008	57		 push	 edi

; 536  : 	for(int i = 0 ; i< m_HorizonLine_ListBox.GetCount() ; i++)

  00009	33 f6		 xor	 esi, esi
  0000b	8b f9		 mov	 edi, ecx
; File C:\Program Files (x86)\Microsoft Visual Studio\2019\Community\VC\Tools\MSVC\14.29.30133\atlmfc\include\afxwin2.inl

; 664  : 	{ ASSERT(::IsWindow(m_hWnd)); return (int)::SendMessage(m_hWnd, LB_GETCOUNT, 0, 0); }

  0000d	56		 push	 esi
  0000e	56		 push	 esi
  0000f	68 8b 01 00 00	 push	 395			; 0000018bH
  00014	ff b7 18 02 00
	00		 push	 DWORD PTR [edi+536]
  0001a	ff d3		 call	 ebx
; File D:\git\src\IBK\IBK_DRFN\ProjSrc\SrcChartEx\ChartAddIn\ChartEnvSetupDlgAddIn\ChartEnvSetupDlgAddIn\Setting_Common_Type_B.cpp

; 536  : 	for(int i = 0 ; i< m_HorizonLine_ListBox.GetCount() ; i++)

  0001c	85 c0		 test	 eax, eax
  0001e	7e 26		 jle	 SHORT $LN3@DeleteStri
$LL4@DeleteStri:
; File C:\Program Files (x86)\Microsoft Visual Studio\2019\Community\VC\Tools\MSVC\14.29.30133\atlmfc\include\afxwin2.inl

; 727  : 	{ ASSERT(::IsWindow(m_hWnd)); return (int)::SendMessage(m_hWnd, LB_DELETESTRING, nIndex, 0); }

  00020	6a 00		 push	 0
  00022	56		 push	 esi
  00023	68 82 01 00 00	 push	 386			; 00000182H
  00028	ff b7 18 02 00
	00		 push	 DWORD PTR [edi+536]
  0002e	ff d3		 call	 ebx

; 664  : 	{ ASSERT(::IsWindow(m_hWnd)); return (int)::SendMessage(m_hWnd, LB_GETCOUNT, 0, 0); }

  00030	6a 00		 push	 0
  00032	6a 00		 push	 0
  00034	68 8b 01 00 00	 push	 395			; 0000018bH
  00039	ff b7 18 02 00
	00		 push	 DWORD PTR [edi+536]
; File D:\git\src\IBK\IBK_DRFN\ProjSrc\SrcChartEx\ChartAddIn\ChartEnvSetupDlgAddIn\ChartEnvSetupDlgAddIn\Setting_Common_Type_B.cpp

; 536  : 	for(int i = 0 ; i< m_HorizonLine_ListBox.GetCount() ; i++)

  0003f	46		 inc	 esi
; File C:\Program Files (x86)\Microsoft Visual Studio\2019\Community\VC\Tools\MSVC\14.29.30133\atlmfc\include\afxwin2.inl

; 664  : 	{ ASSERT(::IsWindow(m_hWnd)); return (int)::SendMessage(m_hWnd, LB_GETCOUNT, 0, 0); }

  00040	ff d3		 call	 ebx
; File D:\git\src\IBK\IBK_DRFN\ProjSrc\SrcChartEx\ChartAddIn\ChartEnvSetupDlgAddIn\ChartEnvSetupDlgAddIn\Setting_Common_Type_B.cpp

; 536  : 	for(int i = 0 ; i< m_HorizonLine_ListBox.GetCount() ; i++)

  00042	3b f0		 cmp	 esi, eax
  00044	7c da		 jl	 SHORT $LL4@DeleteStri
$LN3@DeleteStri:
; File C:\Program Files (x86)\Microsoft Visual Studio\2019\Community\VC\Tools\MSVC\14.29.30133\atlmfc\include\afxwin2.inl

; 731  : 	{ ASSERT(::IsWindow(m_hWnd)); ::SendMessage(m_hWnd, LB_RESETCONTENT, 0, 0); }

  00046	6a 00		 push	 0
  00048	6a 00		 push	 0
  0004a	68 84 01 00 00	 push	 388			; 00000184H
  0004f	ff b7 18 02 00
	00		 push	 DWORD PTR [edi+536]
  00055	ff d3		 call	 ebx
  00057	5f		 pop	 edi
  00058	5e		 pop	 esi
  00059	5b		 pop	 ebx
; File D:\git\src\IBK\IBK_DRFN\ProjSrc\SrcChartEx\ChartAddIn\ChartEnvSetupDlgAddIn\ChartEnvSetupDlgAddIn\Setting_Common_Type_B.cpp

; 539  : }

  0005a	c3		 ret	 0
?DeleteString_ListBox@CSetting_Common_Type_B@@AAEXXZ ENDP ; CSetting_Common_Type_B::DeleteString_ListBox
_TEXT	ENDS
; Function compile flags: /Ogtp
; File D:\git\src\IBK\IBK_DRFN\ProjSrc\SrcChartEx\ChartAddIn\ChartEnvSetupDlgAddIn\ChartEnvSetupDlgAddIn\Setting_Common_Type_B.cpp
; File C:\Program Files (x86)\Microsoft Visual Studio\2019\Community\VC\Tools\MSVC\14.29.30133\atlmfc\include\afxwin2.inl
; File D:\git\src\IBK\IBK_DRFN\ProjSrc\SrcChartEx\ChartAddIn\ChartEnvSetupDlgAddIn\ChartEnvSetupDlgAddIn\Setting_Common_Type_B.cpp
; File C:\Program Files (x86)\Microsoft Visual Studio\2019\Community\VC\Tools\MSVC\14.29.30133\atlmfc\include\afxwin2.inl
; File D:\git\src\IBK\IBK_DRFN\ProjSrc\SrcChartEx\ChartAddIn\ChartEnvSetupDlgAddIn\ChartEnvSetupDlgAddIn\Setting_Common_Type_B.cpp
;	COMDAT ?OnApplySignal@CSetting_Common_Type_B@@AAEXPAUIGraphInfo135914@@@Z
_TEXT	SEGMENT
_bShowSignal$ = -4					; size = 4
_bValidFalg$ = 8					; size = 4
_p_pIGraphInfo$ = 8					; size = 4
?OnApplySignal@CSetting_Common_Type_B@@AAEXPAUIGraphInfo135914@@@Z PROC ; CSetting_Common_Type_B::OnApplySignal, COMDAT
; _this$ = ecx

; 234  : {

  00000	55		 push	 ebp
  00001	8b ec		 mov	 ebp, esp
  00003	51		 push	 ecx

; 235  : 	if(p_pIGraphInfo == NULL || !m_Signal_Bt.IsWindowVisible()) return;

  00004	83 7d 08 00	 cmp	 DWORD PTR _p_pIGraphInfo$[ebp], 0
  00008	56		 push	 esi
  00009	8b f1		 mov	 esi, ecx
  0000b	74 61		 je	 SHORT $LN3@OnApplySig
; File C:\Program Files (x86)\Microsoft Visual Studio\2019\Community\VC\Tools\MSVC\14.29.30133\atlmfc\include\afxwin2.inl

; 124  : 	{ ASSERT(::IsWindow(m_hWnd)); return ::IsWindowVisible(m_hWnd); }

  0000d	ff b6 98 01 00
	00		 push	 DWORD PTR [esi+408]
  00013	ff 15 00 00 00
	00		 call	 DWORD PTR __imp__IsWindowVisible@4
; File D:\git\src\IBK\IBK_DRFN\ProjSrc\SrcChartEx\ChartAddIn\ChartEnvSetupDlgAddIn\ChartEnvSetupDlgAddIn\Setting_Common_Type_B.cpp

; 235  : 	if(p_pIGraphInfo == NULL || !m_Signal_Bt.IsWindowVisible()) return;

  00019	85 c0		 test	 eax, eax
  0001b	74 51		 je	 SHORT $LN3@OnApplySig

; 236  : 
; 237  : 	//   signal .
; 238  : 	BOOL bValidFalg = FALSE, bShowSignal = FALSE;
; 239  : 	m_pIGraphInfo->GetSignalShowFlag( bValidFalg, bShowSignal);

  0001d	8b 8e c4 00 00
	00		 mov	 ecx, DWORD PTR [esi+196]
  00023	8d 55 fc	 lea	 edx, DWORD PTR _bShowSignal$[ebp]
  00026	c7 45 08 00 00
	00 00		 mov	 DWORD PTR _bValidFalg$[ebp], 0
  0002d	c7 45 fc 00 00
	00 00		 mov	 DWORD PTR _bShowSignal$[ebp], 0
  00034	52		 push	 edx
  00035	8b 01		 mov	 eax, DWORD PTR [ecx]
  00037	8d 55 08	 lea	 edx, DWORD PTR _bValidFalg$[ebp]
  0003a	52		 push	 edx
  0003b	ff 90 b4 00 00
	00		 call	 DWORD PTR [eax+180]

; 240  : 	if( !bValidFalg) return;

  00041	83 7d 08 00	 cmp	 DWORD PTR _bValidFalg$[ebp], 0
  00045	74 27		 je	 SHORT $LN3@OnApplySig
; File C:\Program Files (x86)\Microsoft Visual Studio\2019\Community\VC\Tools\MSVC\14.29.30133\atlmfc\include\afxwin2.inl

; 628  : 	{ ASSERT(::IsWindow(m_hWnd)); return (int)::SendMessage(m_hWnd, BM_GETCHECK, 0, 0); }

  00047	6a 00		 push	 0
  00049	6a 00		 push	 0
  0004b	68 f0 00 00 00	 push	 240			; 000000f0H
  00050	ff b6 98 01 00
	00		 push	 DWORD PTR [esi+408]
  00056	ff 15 00 00 00
	00		 call	 DWORD PTR __imp__SendMessageA@16
; File D:\git\src\IBK\IBK_DRFN\ProjSrc\SrcChartEx\ChartAddIn\ChartEnvSetupDlgAddIn\ChartEnvSetupDlgAddIn\Setting_Common_Type_B.cpp

; 243  : 	m_pIGraphInfo->SetSignalShowFlag( bValidFalg, m_Signal_Bt.GetCheck());

  0005c	8b 8e c4 00 00
	00		 mov	 ecx, DWORD PTR [esi+196]
  00062	50		 push	 eax
  00063	ff 75 08	 push	 DWORD PTR _bValidFalg$[ebp]
  00066	8b 11		 mov	 edx, DWORD PTR [ecx]
  00068	ff 92 b8 00 00
	00		 call	 DWORD PTR [edx+184]
$LN3@OnApplySig:
  0006e	5e		 pop	 esi

; 244  : }

  0006f	8b e5		 mov	 esp, ebp
  00071	5d		 pop	 ebp
  00072	c2 04 00	 ret	 4
?OnApplySignal@CSetting_Common_Type_B@@AAEXPAUIGraphInfo135914@@@Z ENDP ; CSetting_Common_Type_B::OnApplySignal
_TEXT	ENDS
; Function compile flags: /Ogtp
; File D:\git\src\IBK\IBK_DRFN\ProjSrc\SrcChartEx\ChartAddIn\ChartEnvSetupDlgAddIn\ChartEnvSetupDlgAddIn\Setting_Common_Type_B.cpp
; File C:\Program Files (x86)\Microsoft Visual Studio\2019\Community\VC\Tools\MSVC\14.29.30133\atlmfc\include\afxwin2.inl
; File D:\git\src\IBK\IBK_DRFN\ProjSrc\SrcChartEx\ChartAddIn\ChartEnvSetupDlgAddIn\ChartEnvSetupDlgAddIn\Setting_Common_Type_B.cpp
; File C:\Program Files (x86)\Microsoft Visual Studio\2019\Community\VC\Tools\MSVC\14.29.30133\atlmfc\include\afxwin2.inl
; File D:\git\src\IBK\IBK_DRFN\ProjSrc\SrcChartEx\ChartAddIn\ChartEnvSetupDlgAddIn\ChartEnvSetupDlgAddIn\Setting_Common_Type_B.cpp
; File C:\Program Files (x86)\Microsoft Visual Studio\2019\Community\VC\Tools\MSVC\14.29.30133\atlmfc\include\afxwin2.inl
; File D:\git\src\IBK\IBK_DRFN\ProjSrc\SrcChartEx\ChartAddIn\ChartEnvSetupDlgAddIn\ChartEnvSetupDlgAddIn\Setting_Common_Type_B.cpp
; File C:\Program Files (x86)\Microsoft Visual Studio\2019\Community\VC\Tools\MSVC\14.29.30133\atlmfc\include\afxwin2.inl
; File D:\git\src\IBK\IBK_DRFN\ProjSrc\SrcChartEx\ChartAddIn\ChartEnvSetupDlgAddIn\ChartEnvSetupDlgAddIn\Setting_Common_Type_B.cpp
; File C:\Program Files (x86)\Microsoft Visual Studio\2019\Community\VC\Tools\MSVC\14.29.30133\atlmfc\include\afxwin2.inl
; File D:\git\src\IBK\IBK_DRFN\ProjSrc\SrcChartEx\ChartAddIn\ChartEnvSetupDlgAddIn\ChartEnvSetupDlgAddIn\Setting_Common_Type_B.cpp
; File C:\Program Files (x86)\Microsoft Visual Studio\2019\Community\VC\Tools\MSVC\14.29.30133\atlmfc\include\afxwin2.inl
; File D:\git\src\IBK\IBK_DRFN\ProjSrc\SrcChartEx\ChartAddIn\ChartEnvSetupDlgAddIn\ChartEnvSetupDlgAddIn\Setting_Common_Type_B.cpp
;	COMDAT ?OnApplyBaseLine@CSetting_Common_Type_B@@AAEXXZ
_TEXT	SEGMENT
_bShowSignal$2 = -24					; size = 4
_nIndex$1$ = -20					; size = 4
_bValidFalg$3 = -20					; size = 4
_data$4 = -16						; size = 4
__$EHRec$ = -12						; size = 12
?OnApplyBaseLine@CSetting_Common_Type_B@@AAEXXZ PROC	; CSetting_Common_Type_B::OnApplyBaseLine, COMDAT
; _this$ = ecx

; 289  : {

  00000	55		 push	 ebp
  00001	8b ec		 mov	 ebp, esp
  00003	6a ff		 push	 -1
  00005	68 00 00 00 00	 push	 __ehhandler$?OnApplyBaseLine@CSetting_Common_Type_B@@AAEXXZ
  0000a	64 a1 00 00 00
	00		 mov	 eax, DWORD PTR fs:0
  00010	50		 push	 eax
  00011	83 ec 0c	 sub	 esp, 12			; 0000000cH
  00014	53		 push	 ebx
  00015	56		 push	 esi
  00016	57		 push	 edi
  00017	a1 00 00 00 00	 mov	 eax, DWORD PTR ___security_cookie
  0001c	33 c5		 xor	 eax, ebp
  0001e	50		 push	 eax
  0001f	8d 45 f4	 lea	 eax, DWORD PTR __$EHRec$[ebp]
  00022	64 a3 00 00 00
	00		 mov	 DWORD PTR fs:0, eax
  00028	8b f9		 mov	 edi, ecx

; 290  : 	if(m_pIGraphInfo == NULL) return;

  0002a	8b 8f c4 00 00
	00		 mov	 ecx, DWORD PTR [edi+196]
  00030	85 c9		 test	 ecx, ecx
  00032	0f 84 0e 01 00
	00		 je	 $LN15@OnApplyBas

; 291  : 	
; 292  : 	IDoubleList *pIDblList = m_pIGraphInfo->GetBaseLineList();

  00038	8b 01		 mov	 eax, DWORD PTR [ecx]
  0003a	ff 50 28	 call	 DWORD PTR [eax+40]
  0003d	8b d8		 mov	 ebx, eax

; 293  : 	if( pIDblList)

  0003f	85 db		 test	 ebx, ebx
  00041	0f 84 95 00 00
	00		 je	 $LN6@OnApplyBas

; 294  : 	{
; 295  : 		pIDblList->RemoveAll();

  00047	8b 13		 mov	 edx, DWORD PTR [ebx]
  00049	8b cb		 mov	 ecx, ebx
  0004b	ff 52 30	 call	 DWORD PTR [edx+48]

; 296  : 		CString data;

  0004e	8d 4d f0	 lea	 ecx, DWORD PTR _data$4[ebp]
  00051	ff 15 00 00 00
	00		 call	 DWORD PTR __imp_??0?$CStringT@DV?$StrTraitMFC_DLL@DV?$ChTraitsCRT@D@ATL@@@@@ATL@@QAE@XZ

; 297  : 		for(int nIndex = 0 ; nIndex < m_HorizonLine_ListBox.GetCount(); nIndex++) 

  00057	33 f6		 xor	 esi, esi
  00059	c7 45 fc 00 00
	00 00		 mov	 DWORD PTR __$EHRec$[ebp+8], 0
; File C:\Program Files (x86)\Microsoft Visual Studio\2019\Community\VC\Tools\MSVC\14.29.30133\atlmfc\include\afxwin2.inl

; 664  : 	{ ASSERT(::IsWindow(m_hWnd)); return (int)::SendMessage(m_hWnd, LB_GETCOUNT, 0, 0); }

  00060	56		 push	 esi
  00061	56		 push	 esi
  00062	68 8b 01 00 00	 push	 395			; 0000018bH
  00067	ff b7 18 02 00
	00		 push	 DWORD PTR [edi+536]
; File D:\git\src\IBK\IBK_DRFN\ProjSrc\SrcChartEx\ChartAddIn\ChartEnvSetupDlgAddIn\ChartEnvSetupDlgAddIn\Setting_Common_Type_B.cpp

; 297  : 		for(int nIndex = 0 ; nIndex < m_HorizonLine_ListBox.GetCount(); nIndex++) 

  0006d	89 75 ec	 mov	 DWORD PTR _nIndex$1$[ebp], esi
; File C:\Program Files (x86)\Microsoft Visual Studio\2019\Community\VC\Tools\MSVC\14.29.30133\atlmfc\include\afxwin2.inl

; 664  : 	{ ASSERT(::IsWindow(m_hWnd)); return (int)::SendMessage(m_hWnd, LB_GETCOUNT, 0, 0); }

  00070	ff 15 00 00 00
	00		 call	 DWORD PTR __imp__SendMessageA@16
; File D:\git\src\IBK\IBK_DRFN\ProjSrc\SrcChartEx\ChartAddIn\ChartEnvSetupDlgAddIn\ChartEnvSetupDlgAddIn\Setting_Common_Type_B.cpp

; 297  : 		for(int nIndex = 0 ; nIndex < m_HorizonLine_ListBox.GetCount(); nIndex++) 

  00076	85 c0		 test	 eax, eax
  00078	7e 4c		 jle	 SHORT $LN3@OnApplyBas
  0007a	8d 87 f8 01 00
	00		 lea	 eax, DWORD PTR [edi+504]
$LL4@OnApplyBas:

; 298  : 		{
; 299  : 			m_HorizonLine_ListBox.GetText(nIndex, data);

  00080	8d 4d f0	 lea	 ecx, DWORD PTR _data$4[ebp]
  00083	51		 push	 ecx
  00084	56		 push	 esi
  00085	8b c8		 mov	 ecx, eax
  00087	e8 00 00 00 00	 call	 ?GetText@CListBox@@QBEXHAAV?$CStringT@DV?$StrTraitMFC_DLL@DV?$ChTraitsCRT@D@ATL@@@@@ATL@@@Z ; CListBox::GetText

; 300  : 			pIDblList->AddTail( atof( data));

  0008c	ff 75 f0	 push	 DWORD PTR _data$4[ebp]
  0008f	8b 33		 mov	 esi, DWORD PTR [ebx]
  00091	ff 15 00 00 00
	00		 call	 DWORD PTR __imp__atof
  00097	51		 push	 ecx
  00098	8b cb		 mov	 ecx, ebx
  0009a	dd 1c 24	 fstp	 QWORD PTR [esp]
  0009d	ff 56 2c	 call	 DWORD PTR [esi+44]
  000a0	8b 75 ec	 mov	 esi, DWORD PTR _nIndex$1$[ebp]
; File C:\Program Files (x86)\Microsoft Visual Studio\2019\Community\VC\Tools\MSVC\14.29.30133\atlmfc\include\afxwin2.inl

; 664  : 	{ ASSERT(::IsWindow(m_hWnd)); return (int)::SendMessage(m_hWnd, LB_GETCOUNT, 0, 0); }

  000a3	6a 00		 push	 0
  000a5	6a 00		 push	 0
  000a7	68 8b 01 00 00	 push	 395			; 0000018bH
  000ac	ff b7 18 02 00
	00		 push	 DWORD PTR [edi+536]
; File D:\git\src\IBK\IBK_DRFN\ProjSrc\SrcChartEx\ChartAddIn\ChartEnvSetupDlgAddIn\ChartEnvSetupDlgAddIn\Setting_Common_Type_B.cpp

; 297  : 		for(int nIndex = 0 ; nIndex < m_HorizonLine_ListBox.GetCount(); nIndex++) 

  000b2	46		 inc	 esi
  000b3	89 75 ec	 mov	 DWORD PTR _nIndex$1$[ebp], esi
; File C:\Program Files (x86)\Microsoft Visual Studio\2019\Community\VC\Tools\MSVC\14.29.30133\atlmfc\include\afxwin2.inl

; 664  : 	{ ASSERT(::IsWindow(m_hWnd)); return (int)::SendMessage(m_hWnd, LB_GETCOUNT, 0, 0); }

  000b6	ff 15 00 00 00
	00		 call	 DWORD PTR __imp__SendMessageA@16
; File D:\git\src\IBK\IBK_DRFN\ProjSrc\SrcChartEx\ChartAddIn\ChartEnvSetupDlgAddIn\ChartEnvSetupDlgAddIn\Setting_Common_Type_B.cpp

; 297  : 		for(int nIndex = 0 ; nIndex < m_HorizonLine_ListBox.GetCount(); nIndex++) 

  000bc	3b f0		 cmp	 esi, eax
  000be	8d 87 f8 01 00
	00		 lea	 eax, DWORD PTR [edi+504]
  000c4	7c ba		 jl	 SHORT $LL4@OnApplyBas
$LN3@OnApplyBas:

; 301  : 		}
; 302  : 		pIDblList->Release();

  000c6	8b 03		 mov	 eax, DWORD PTR [ebx]
  000c8	53		 push	 ebx
  000c9	ff 50 08	 call	 DWORD PTR [eax+8]

; 303  : 	}

  000cc	8d 4d f0	 lea	 ecx, DWORD PTR _data$4[ebp]
  000cf	c7 45 fc ff ff
	ff ff		 mov	 DWORD PTR __$EHRec$[ebp+8], -1
  000d6	ff 15 00 00 00
	00		 call	 DWORD PTR __imp_??1?$CStringT@DV?$StrTraitMFC_DLL@DV?$ChTraitsCRT@D@ATL@@@@@ATL@@QAE@XZ
$LN6@OnApplyBas:

; 235  : 	if(p_pIGraphInfo == NULL || !m_Signal_Bt.IsWindowVisible()) return;

  000dc	83 bf c4 00 00
	00 00		 cmp	 DWORD PTR [edi+196], 0
  000e3	74 61		 je	 SHORT $LN15@OnApplyBas
; File C:\Program Files (x86)\Microsoft Visual Studio\2019\Community\VC\Tools\MSVC\14.29.30133\atlmfc\include\afxwin2.inl

; 124  : 	{ ASSERT(::IsWindow(m_hWnd)); return ::IsWindowVisible(m_hWnd); }

  000e5	ff b7 98 01 00
	00		 push	 DWORD PTR [edi+408]
  000eb	ff 15 00 00 00
	00		 call	 DWORD PTR __imp__IsWindowVisible@4
; File D:\git\src\IBK\IBK_DRFN\ProjSrc\SrcChartEx\ChartAddIn\ChartEnvSetupDlgAddIn\ChartEnvSetupDlgAddIn\Setting_Common_Type_B.cpp

; 235  : 	if(p_pIGraphInfo == NULL || !m_Signal_Bt.IsWindowVisible()) return;

  000f1	85 c0		 test	 eax, eax
  000f3	74 51		 je	 SHORT $LN15@OnApplyBas

; 236  : 
; 237  : 	//   signal .
; 238  : 	BOOL bValidFalg = FALSE, bShowSignal = FALSE;
; 239  : 	m_pIGraphInfo->GetSignalShowFlag( bValidFalg, bShowSignal);

  000f5	8b 8f c4 00 00
	00		 mov	 ecx, DWORD PTR [edi+196]
  000fb	8d 55 e8	 lea	 edx, DWORD PTR _bShowSignal$2[ebp]
  000fe	c7 45 ec 00 00
	00 00		 mov	 DWORD PTR _bValidFalg$3[ebp], 0
  00105	c7 45 e8 00 00
	00 00		 mov	 DWORD PTR _bShowSignal$2[ebp], 0
  0010c	52		 push	 edx
  0010d	8b 01		 mov	 eax, DWORD PTR [ecx]
  0010f	8d 55 ec	 lea	 edx, DWORD PTR _bValidFalg$3[ebp]
  00112	52		 push	 edx
  00113	ff 90 b4 00 00
	00		 call	 DWORD PTR [eax+180]

; 240  : 	if( !bValidFalg) return;

  00119	83 7d ec 00	 cmp	 DWORD PTR _bValidFalg$3[ebp], 0
  0011d	74 27		 je	 SHORT $LN15@OnApplyBas
; File C:\Program Files (x86)\Microsoft Visual Studio\2019\Community\VC\Tools\MSVC\14.29.30133\atlmfc\include\afxwin2.inl

; 628  : 	{ ASSERT(::IsWindow(m_hWnd)); return (int)::SendMessage(m_hWnd, BM_GETCHECK, 0, 0); }

  0011f	6a 00		 push	 0
  00121	6a 00		 push	 0
  00123	68 f0 00 00 00	 push	 240			; 000000f0H
  00128	ff b7 98 01 00
	00		 push	 DWORD PTR [edi+408]
  0012e	ff 15 00 00 00
	00		 call	 DWORD PTR __imp__SendMessageA@16
; File D:\git\src\IBK\IBK_DRFN\ProjSrc\SrcChartEx\ChartAddIn\ChartEnvSetupDlgAddIn\ChartEnvSetupDlgAddIn\Setting_Common_Type_B.cpp

; 243  : 	m_pIGraphInfo->SetSignalShowFlag( bValidFalg, m_Signal_Bt.GetCheck());

  00134	8b 8f c4 00 00
	00		 mov	 ecx, DWORD PTR [edi+196]
  0013a	50		 push	 eax
  0013b	ff 75 ec	 push	 DWORD PTR _bValidFalg$3[ebp]
  0013e	8b 11		 mov	 edx, DWORD PTR [ecx]
  00140	ff 92 b8 00 00
	00		 call	 DWORD PTR [edx+184]
$LN15@OnApplyBas:

; 304  : 
; 305  : 	//sy 2006.04.17.
; 306  : 	OnApplySignal(m_pIGraphInfo);
; 307  : }

  00146	8b 4d f4	 mov	 ecx, DWORD PTR __$EHRec$[ebp]
  00149	64 89 0d 00 00
	00 00		 mov	 DWORD PTR fs:0, ecx
  00150	59		 pop	 ecx
  00151	5f		 pop	 edi
  00152	5e		 pop	 esi
  00153	5b		 pop	 ebx
  00154	8b e5		 mov	 esp, ebp
  00156	5d		 pop	 ebp
  00157	c3		 ret	 0
_TEXT	ENDS
;	COMDAT text$x
text$x	SEGMENT
__unwindfunclet$?OnApplyBaseLine@CSetting_Common_Type_B@@AAEXXZ$0:
  00000	8d 4d f0	 lea	 ecx, DWORD PTR _data$4[ebp]
  00003	ff 25 00 00 00
	00		 jmp	 DWORD PTR __imp_??1?$CStringT@DV?$StrTraitMFC_DLL@DV?$ChTraitsCRT@D@ATL@@@@@ATL@@QAE@XZ
  00009	cc		 int	 3
  0000a	cc		 int	 3
  0000b	cc		 int	 3
  0000c	cc		 int	 3
  0000d	cc		 int	 3
__ehhandler$?OnApplyBaseLine@CSetting_Common_Type_B@@AAEXXZ:
  0000e	90		 npad	 1
  0000f	90		 npad	 1
  00010	8b 54 24 08	 mov	 edx, DWORD PTR [esp+8]
  00014	8d 42 0c	 lea	 eax, DWORD PTR [edx+12]
  00017	8b 4a e4	 mov	 ecx, DWORD PTR [edx-28]
  0001a	33 c8		 xor	 ecx, eax
  0001c	e8 00 00 00 00	 call	 @__security_check_cookie@4
  00021	b8 00 00 00 00	 mov	 eax, OFFSET __ehfuncinfo$?OnApplyBaseLine@CSetting_Common_Type_B@@AAEXXZ
  00026	e9 00 00 00 00	 jmp	 ___CxxFrameHandler3
text$x	ENDS
?OnApplyBaseLine@CSetting_Common_Type_B@@AAEXXZ ENDP	; CSetting_Common_Type_B::OnApplyBaseLine
; Function compile flags: /Ogtp
; File D:\git\src\IBK\IBK_DRFN\ProjSrc\SrcChartEx\ChartAddIn\ChartEnvSetupDlgAddIn\ChartEnvSetupDlgAddIn\Setting_Common_Type_B.cpp
; File C:\Program Files (x86)\Microsoft Visual Studio\2019\Community\VC\Tools\MSVC\14.29.30133\atlmfc\include\afxwin2.inl
; File D:\git\src\IBK\IBK_DRFN\ProjSrc\SrcChartEx\ChartAddIn\ChartEnvSetupDlgAddIn\ChartEnvSetupDlgAddIn\Setting_Common_Type_B.cpp
; File C:\Program Files (x86)\Microsoft Visual Studio\2019\Community\VC\Tools\MSVC\14.29.30133\atlmfc\include\afxwin2.inl
; File D:\git\src\IBK\IBK_DRFN\ProjSrc\SrcChartEx\ChartAddIn\ChartEnvSetupDlgAddIn\ChartEnvSetupDlgAddIn\Setting_Common_Type_B.cpp
; File C:\Program Files (x86)\Microsoft Visual Studio\2019\Community\VC\Tools\MSVC\14.29.30133\atlmfc\include\afxwin2.inl
; File D:\git\src\IBK\IBK_DRFN\ProjSrc\SrcChartEx\ChartAddIn\ChartEnvSetupDlgAddIn\ChartEnvSetupDlgAddIn\Setting_Common_Type_B.cpp
; File C:\Program Files (x86)\Microsoft Visual Studio\2019\Community\VC\Tools\MSVC\14.29.30133\atlmfc\include\afxwin2.inl
; File D:\git\src\IBK\IBK_DRFN\ProjSrc\SrcChartEx\ChartAddIn\ChartEnvSetupDlgAddIn\ChartEnvSetupDlgAddIn\Setting_Common_Type_B.cpp
; File C:\Program Files (x86)\Microsoft Visual Studio\2019\Community\VC\Tools\MSVC\14.29.30133\atlmfc\include\afxwin2.inl
; File D:\git\src\IBK\IBK_DRFN\ProjSrc\SrcChartEx\ChartAddIn\ChartEnvSetupDlgAddIn\ChartEnvSetupDlgAddIn\Setting_Common_Type_B.cpp
; File C:\Program Files (x86)\Microsoft Visual Studio\2019\Community\VC\Tools\MSVC\14.29.30133\atlmfc\include\afxwin2.inl
; File D:\git\src\IBK\IBK_DRFN\ProjSrc\SrcChartEx\ChartAddIn\ChartEnvSetupDlgAddIn\ChartEnvSetupDlgAddIn\Setting_Common_Type_B.cpp
;	COMDAT ?OnApplySubGraphData@CSetting_Common_Type_B@@AAEXXZ
_TEXT	SEGMENT
_dNewData$2 = -72					; size = 8
_dData$3 = -64						; size = 8
_bValidFalg$4 = -56					; size = 4
_psnCnd$5 = -56						; size = 4
_nIndex$1$ = -52					; size = 4
_psnBack$1$ = -52					; size = 4
_bShowSignal$6 = -52					; size = 4
_data$7 = -48						; size = 4
_strData$8 = -48					; size = 4
_pNEdit$9 = -44						; size = 28
__$ArrayPad$ = -16					; size = 4
__$EHRec$ = -12						; size = 12
?OnApplySubGraphData@CSetting_Common_Type_B@@AAEXXZ PROC ; CSetting_Common_Type_B::OnApplySubGraphData, COMDAT
; _this$ = ecx

; 584  : {

  00000	55		 push	 ebp
  00001	8b ec		 mov	 ebp, esp
  00003	6a ff		 push	 -1
  00005	68 00 00 00 00	 push	 __ehhandler$?OnApplySubGraphData@CSetting_Common_Type_B@@AAEXXZ
  0000a	64 a1 00 00 00
	00		 mov	 eax, DWORD PTR fs:0
  00010	50		 push	 eax
  00011	83 ec 3c	 sub	 esp, 60			; 0000003cH
  00014	a1 00 00 00 00	 mov	 eax, DWORD PTR ___security_cookie
  00019	33 c5		 xor	 eax, ebp
  0001b	89 45 f0	 mov	 DWORD PTR __$ArrayPad$[ebp], eax
  0001e	53		 push	 ebx
  0001f	56		 push	 esi
  00020	57		 push	 edi
  00021	50		 push	 eax
  00022	8d 45 f4	 lea	 eax, DWORD PTR __$EHRec$[ebp]
  00025	64 a3 00 00 00
	00		 mov	 DWORD PTR fs:0, eax
  0002b	8b f9		 mov	 edi, ecx

; 585  : 	//  OnCompositioncolor  
; 586  : 	m_pIGraphInfo->SetSubGraphShowFlag( m_nSubGraphIndex, m_lstComposition.GetCheck( m_nSubGraphIndex));

  0002d	8b 87 c4 00 00
	00		 mov	 eax, DWORD PTR [edi+196]
  00033	8d 8f d8 11 00
	00		 lea	 ecx, DWORD PTR [edi+4568]
  00039	ff b7 68 12 00
	00		 push	 DWORD PTR [edi+4712]
  0003f	8b 30		 mov	 esi, DWORD PTR [eax]
  00041	e8 00 00 00 00	 call	 ?GetCheck@CListCtrl@@QBEHH@Z ; CListCtrl::GetCheck
  00046	8b 8f c4 00 00
	00		 mov	 ecx, DWORD PTR [edi+196]
  0004c	50		 push	 eax
  0004d	ff b7 68 12 00
	00		 push	 DWORD PTR [edi+4712]
  00053	ff 56 38	 call	 DWORD PTR [esi+56]

; 587  : 
; 588  : 	OnApply_Title( m_nSubGraphIndex, m_edtCompositionTitleData);

  00056	8d 87 40 0f 00
	00		 lea	 eax, DWORD PTR [edi+3904]
  0005c	8b cf		 mov	 ecx, edi
  0005e	50		 push	 eax
  0005f	ff b7 68 12 00
	00		 push	 DWORD PTR [edi+4712]
  00065	e8 00 00 00 00	 call	 ?OnApply_Title@CBaseDialog@@IAEXHAAVCEdit@@@Z ; CBaseDialog::OnApply_Title

; 589  : 	OnApply_DrawStyle( m_nSubGraphIndex, m_cmbLineType);

  0006a	8d 87 48 10 00
	00		 lea	 eax, DWORD PTR [edi+4168]
  00070	8b cf		 mov	 ecx, edi
  00072	50		 push	 eax
  00073	ff b7 68 12 00
	00		 push	 DWORD PTR [edi+4712]
  00079	e8 00 00 00 00	 call	 ?OnApply_DrawStyle@CBaseDialog@@IAEXHAAVCBitmapItemComboBox@@@Z ; CBaseDialog::OnApply_DrawStyle

; 590  : 	OnApply_Thickness( m_nSubGraphIndex, m_cmbThickness);

  0007e	8d 87 c0 0f 00
	00		 lea	 eax, DWORD PTR [edi+4032]
  00084	8b cf		 mov	 ecx, edi
  00086	50		 push	 eax
  00087	ff b7 68 12 00
	00		 push	 DWORD PTR [edi+4712]
  0008d	e8 00 00 00 00	 call	 ?OnApply_Thickness@CBaseDialog@@IAEXHAAVCBitmapItemComboBox@@@Z ; CBaseDialog::OnApply_Thickness

; 591  : 
; 592  : 	IDoubleList *pIDblCnd = m_pIGraphInfo->GetCommonCalculateConditionList();

  00092	8b 8f c4 00 00
	00		 mov	 ecx, DWORD PTR [edi+196]
  00098	8b 01		 mov	 eax, DWORD PTR [ecx]
  0009a	ff 50 10	 call	 DWORD PTR [eax+16]
  0009d	8b f0		 mov	 esi, eax

; 593  : 	if( pIDblCnd)

  0009f	85 f6		 test	 esi, esi
  000a1	0f 84 f6 00 00
	00		 je	 $LN4@OnApplySub

; 594  : 	{
; 595  : 		CString strData;

  000a7	8d 4d d0	 lea	 ecx, DWORD PTR _strData$8[ebp]
  000aa	ff 15 00 00 00
	00		 call	 DWORD PTR __imp_??0?$CStringT@DV?$StrTraitMFC_DLL@DV?$ChTraitsCRT@D@ATL@@@@@ATL@@QAE@XZ

; 596  : 		double dData = 0, dNewData = 0;
; 597  : 		int i = 0;
; 598  : 		CNumEdit *pNEdit[ 7] = { &m_edtValue1, &m_edtValue2, &m_edtValue3, &m_edtValue4, &m_edtValue5, &m_edtValue6, &m_edtValue7	};

  000b0	8d 87 98 0e 00
	00		 lea	 eax, DWORD PTR [edi+3736]
  000b6	c7 45 fc 00 00
	00 00		 mov	 DWORD PTR __$EHRec$[ebp+8], 0
  000bd	89 45 d4	 mov	 DWORD PTR _pNEdit$9[ebp], eax
  000c0	0f 57 c0	 xorps	 xmm0, xmm0
  000c3	8d 87 f0 0d 00
	00		 lea	 eax, DWORD PTR [edi+3568]
  000c9	f2 0f 11 45 c0	 movsd	 QWORD PTR _dData$3[ebp], xmm0
  000ce	89 45 d8	 mov	 DWORD PTR _pNEdit$9[ebp+4], eax

; 599  : 		POSITION psnCnd = pIDblCnd->GetHeadPosition(), psnBack = NULL;

  000d1	8b ce		 mov	 ecx, esi
  000d3	8d 87 48 0d 00
	00		 lea	 eax, DWORD PTR [edi+3400]
  000d9	33 db		 xor	 ebx, ebx
  000db	89 45 dc	 mov	 DWORD PTR _pNEdit$9[ebp+8], eax
  000de	8d 87 a0 0c 00
	00		 lea	 eax, DWORD PTR [edi+3232]
  000e4	89 45 e0	 mov	 DWORD PTR _pNEdit$9[ebp+12], eax
  000e7	8d 87 f8 0b 00
	00		 lea	 eax, DWORD PTR [edi+3064]
  000ed	89 45 e4	 mov	 DWORD PTR _pNEdit$9[ebp+16], eax
  000f0	8d 87 50 0b 00
	00		 lea	 eax, DWORD PTR [edi+2896]
  000f6	89 45 e8	 mov	 DWORD PTR _pNEdit$9[ebp+20], eax
  000f9	8d 87 a8 0a 00
	00		 lea	 eax, DWORD PTR [edi+2728]
  000ff	89 45 ec	 mov	 DWORD PTR _pNEdit$9[ebp+24], eax
  00102	8b 06		 mov	 eax, DWORD PTR [esi]
  00104	ff 50 34	 call	 DWORD PTR [eax+52]
  00107	89 45 cc	 mov	 DWORD PTR _psnBack$1$[ebp], eax
  0010a	89 45 c8	 mov	 DWORD PTR _psnCnd$5[ebp], eax

; 600  : 		while( psnCnd && i < 7)

  0010d	85 c0		 test	 eax, eax
  0010f	74 76		 je	 SHORT $LN45@OnApplySub
$LL2@OnApplySub:
  00111	83 fb 07	 cmp	 ebx, 7
  00114	7d 71		 jge	 SHORT $LN45@OnApplySub

; 601  : 		{
; 602  : 			psnBack = psnCnd;
; 603  : 			pIDblCnd->GetNext( psnCnd, dData);

  00116	8b 06		 mov	 eax, DWORD PTR [esi]
  00118	8d 4d c0	 lea	 ecx, DWORD PTR _dData$3[ebp]
  0011b	51		 push	 ecx
  0011c	8d 4d c8	 lea	 ecx, DWORD PTR _psnCnd$5[ebp]
  0011f	51		 push	 ecx
  00120	8b ce		 mov	 ecx, esi
  00122	ff 50 3c	 call	 DWORD PTR [eax+60]

; 604  : 
; 605  : 			if( i < 7) pNEdit[ i]->GetWindowText( strData);

  00125	8b 4c 9d d4	 mov	 ecx, DWORD PTR _pNEdit$9[ebp+ebx*4]
  00129	8d 45 d0	 lea	 eax, DWORD PTR _strData$8[ebp]
  0012c	50		 push	 eax
  0012d	e8 00 00 00 00	 call	 ?GetWindowTextA@CWnd@@QBEXAAV?$CStringT@DV?$StrTraitMFC_DLL@DV?$ChTraitsCRT@D@ATL@@@@@ATL@@@Z ; CWnd::GetWindowTextA

; 606  : 			else strData.Empty();
; 607  : 			i++;
; 608  : 
; 609  : 			dNewData = atof( strData);

  00132	ff 75 d0	 push	 DWORD PTR _strData$8[ebp]
  00135	43		 inc	 ebx
  00136	ff 15 00 00 00
	00		 call	 DWORD PTR __imp__atof
  0013c	dd 5d b8	 fstp	 QWORD PTR _dNewData$2[ebp]

; 610  : 			if(!CBaseDialog::m_bDoCalculate) CBaseDialog::m_bDoCalculate = ( dData != dNewData);

  0013f	f2 0f 10 4d b8	 movsd	 xmm1, QWORD PTR _dNewData$2[ebp]
  00144	83 c4 04	 add	 esp, 4
  00147	80 bf c9 00 00
	00 00		 cmp	 BYTE PTR [edi+201], 0
  0014e	75 1b		 jne	 SHORT $LN44@OnApplySub
  00150	f2 0f 10 45 c0	 movsd	 xmm0, QWORD PTR _dData$3[ebp]
  00155	66 0f 2e c1	 ucomisd xmm0, xmm1
  00159	9f		 lahf
  0015a	f6 c4 44	 test	 ah, 68			; 00000044H
  0015d	7b 04		 jnp	 SHORT $LN9@OnApplySub
  0015f	b0 01		 mov	 al, 1
  00161	eb 02		 jmp	 SHORT $LN10@OnApplySub
$LN9@OnApplySub:
  00163	32 c0		 xor	 al, al
$LN10@OnApplySub:
  00165	88 87 c9 00 00
	00		 mov	 BYTE PTR [edi+201], al
$LN44@OnApplySub:

; 611  : 			pIDblCnd->SetAt( psnBack, dNewData);

  0016b	8b 06		 mov	 eax, DWORD PTR [esi]
  0016d	83 ec 08	 sub	 esp, 8
  00170	8b ce		 mov	 ecx, esi
  00172	f2 0f 11 0c 24	 movsd	 QWORD PTR [esp], xmm1
  00177	ff 75 cc	 push	 DWORD PTR _psnBack$1$[ebp]
  0017a	ff 50 48	 call	 DWORD PTR [eax+72]
  0017d	8b 45 c8	 mov	 eax, DWORD PTR _psnCnd$5[ebp]
  00180	89 45 cc	 mov	 DWORD PTR _psnBack$1$[ebp], eax
  00183	85 c0		 test	 eax, eax
  00185	75 8a		 jne	 SHORT $LL2@OnApplySub
$LN45@OnApplySub:

; 612  : 		}
; 613  : 
; 614  : 		pIDblCnd->Release();

  00187	8b 06		 mov	 eax, DWORD PTR [esi]
  00189	56		 push	 esi
  0018a	ff 50 08	 call	 DWORD PTR [eax+8]

; 615  : 	}

  0018d	8d 4d d0	 lea	 ecx, DWORD PTR _strData$8[ebp]
  00190	c7 45 fc ff ff
	ff ff		 mov	 DWORD PTR __$EHRec$[ebp+8], -1
  00197	ff 15 00 00 00
	00		 call	 DWORD PTR __imp_??1?$CStringT@DV?$StrTraitMFC_DLL@DV?$ChTraitsCRT@D@ATL@@@@@ATL@@QAE@XZ
$LN4@OnApplySub:

; 290  : 	if(m_pIGraphInfo == NULL) return;

  0019d	8b 8f c4 00 00
	00		 mov	 ecx, DWORD PTR [edi+196]
  001a3	85 c9		 test	 ecx, ecx
  001a5	0f 84 0e 01 00
	00		 je	 $LN28@OnApplySub

; 291  : 	
; 292  : 	IDoubleList *pIDblList = m_pIGraphInfo->GetBaseLineList();

  001ab	8b 01		 mov	 eax, DWORD PTR [ecx]
  001ad	ff 50 28	 call	 DWORD PTR [eax+40]
  001b0	8b d8		 mov	 ebx, eax

; 293  : 	if( pIDblList)

  001b2	85 db		 test	 ebx, ebx
  001b4	0f 84 95 00 00
	00		 je	 $LN19@OnApplySub

; 294  : 	{
; 295  : 		pIDblList->RemoveAll();

  001ba	8b 13		 mov	 edx, DWORD PTR [ebx]
  001bc	8b cb		 mov	 ecx, ebx
  001be	ff 52 30	 call	 DWORD PTR [edx+48]

; 296  : 		CString data;

  001c1	8d 4d d0	 lea	 ecx, DWORD PTR _data$7[ebp]
  001c4	ff 15 00 00 00
	00		 call	 DWORD PTR __imp_??0?$CStringT@DV?$StrTraitMFC_DLL@DV?$ChTraitsCRT@D@ATL@@@@@ATL@@QAE@XZ

; 297  : 		for(int nIndex = 0 ; nIndex < m_HorizonLine_ListBox.GetCount(); nIndex++) 

  001ca	33 f6		 xor	 esi, esi
  001cc	c7 45 fc 01 00
	00 00		 mov	 DWORD PTR __$EHRec$[ebp+8], 1
; File C:\Program Files (x86)\Microsoft Visual Studio\2019\Community\VC\Tools\MSVC\14.29.30133\atlmfc\include\afxwin2.inl

; 664  : 	{ ASSERT(::IsWindow(m_hWnd)); return (int)::SendMessage(m_hWnd, LB_GETCOUNT, 0, 0); }

  001d3	56		 push	 esi
  001d4	56		 push	 esi
  001d5	68 8b 01 00 00	 push	 395			; 0000018bH
  001da	ff b7 18 02 00
	00		 push	 DWORD PTR [edi+536]
; File D:\git\src\IBK\IBK_DRFN\ProjSrc\SrcChartEx\ChartAddIn\ChartEnvSetupDlgAddIn\ChartEnvSetupDlgAddIn\Setting_Common_Type_B.cpp

; 297  : 		for(int nIndex = 0 ; nIndex < m_HorizonLine_ListBox.GetCount(); nIndex++) 

  001e0	89 75 cc	 mov	 DWORD PTR _nIndex$1$[ebp], esi
; File C:\Program Files (x86)\Microsoft Visual Studio\2019\Community\VC\Tools\MSVC\14.29.30133\atlmfc\include\afxwin2.inl

; 664  : 	{ ASSERT(::IsWindow(m_hWnd)); return (int)::SendMessage(m_hWnd, LB_GETCOUNT, 0, 0); }

  001e3	ff 15 00 00 00
	00		 call	 DWORD PTR __imp__SendMessageA@16
; File D:\git\src\IBK\IBK_DRFN\ProjSrc\SrcChartEx\ChartAddIn\ChartEnvSetupDlgAddIn\ChartEnvSetupDlgAddIn\Setting_Common_Type_B.cpp

; 297  : 		for(int nIndex = 0 ; nIndex < m_HorizonLine_ListBox.GetCount(); nIndex++) 

  001e9	85 c0		 test	 eax, eax
  001eb	7e 4c		 jle	 SHORT $LN16@OnApplySub
  001ed	8d 87 f8 01 00
	00		 lea	 eax, DWORD PTR [edi+504]
$LL17@OnApplySub:

; 298  : 		{
; 299  : 			m_HorizonLine_ListBox.GetText(nIndex, data);

  001f3	8d 4d d0	 lea	 ecx, DWORD PTR _data$7[ebp]
  001f6	51		 push	 ecx
  001f7	56		 push	 esi
  001f8	8b c8		 mov	 ecx, eax
  001fa	e8 00 00 00 00	 call	 ?GetText@CListBox@@QBEXHAAV?$CStringT@DV?$StrTraitMFC_DLL@DV?$ChTraitsCRT@D@ATL@@@@@ATL@@@Z ; CListBox::GetText

; 300  : 			pIDblList->AddTail( atof( data));

  001ff	ff 75 d0	 push	 DWORD PTR _data$7[ebp]
  00202	8b 33		 mov	 esi, DWORD PTR [ebx]
  00204	ff 15 00 00 00
	00		 call	 DWORD PTR __imp__atof
  0020a	51		 push	 ecx
  0020b	8b cb		 mov	 ecx, ebx
  0020d	dd 1c 24	 fstp	 QWORD PTR [esp]
  00210	ff 56 2c	 call	 DWORD PTR [esi+44]
  00213	8b 75 cc	 mov	 esi, DWORD PTR _nIndex$1$[ebp]
; File C:\Program Files (x86)\Microsoft Visual Studio\2019\Community\VC\Tools\MSVC\14.29.30133\atlmfc\include\afxwin2.inl

; 664  : 	{ ASSERT(::IsWindow(m_hWnd)); return (int)::SendMessage(m_hWnd, LB_GETCOUNT, 0, 0); }

  00216	6a 00		 push	 0
  00218	6a 00		 push	 0
  0021a	68 8b 01 00 00	 push	 395			; 0000018bH
  0021f	ff b7 18 02 00
	00		 push	 DWORD PTR [edi+536]
; File D:\git\src\IBK\IBK_DRFN\ProjSrc\SrcChartEx\ChartAddIn\ChartEnvSetupDlgAddIn\ChartEnvSetupDlgAddIn\Setting_Common_Type_B.cpp

; 297  : 		for(int nIndex = 0 ; nIndex < m_HorizonLine_ListBox.GetCount(); nIndex++) 

  00225	46		 inc	 esi
  00226	89 75 cc	 mov	 DWORD PTR _nIndex$1$[ebp], esi
; File C:\Program Files (x86)\Microsoft Visual Studio\2019\Community\VC\Tools\MSVC\14.29.30133\atlmfc\include\afxwin2.inl

; 664  : 	{ ASSERT(::IsWindow(m_hWnd)); return (int)::SendMessage(m_hWnd, LB_GETCOUNT, 0, 0); }

  00229	ff 15 00 00 00
	00		 call	 DWORD PTR __imp__SendMessageA@16
; File D:\git\src\IBK\IBK_DRFN\ProjSrc\SrcChartEx\ChartAddIn\ChartEnvSetupDlgAddIn\ChartEnvSetupDlgAddIn\Setting_Common_Type_B.cpp

; 297  : 		for(int nIndex = 0 ; nIndex < m_HorizonLine_ListBox.GetCount(); nIndex++) 

  0022f	3b f0		 cmp	 esi, eax
  00231	8d 87 f8 01 00
	00		 lea	 eax, DWORD PTR [edi+504]
  00237	7c ba		 jl	 SHORT $LL17@OnApplySub
$LN16@OnApplySub:

; 301  : 		}
; 302  : 		pIDblList->Release();

  00239	8b 03		 mov	 eax, DWORD PTR [ebx]
  0023b	53		 push	 ebx
  0023c	ff 50 08	 call	 DWORD PTR [eax+8]

; 303  : 	}

  0023f	8d 4d d0	 lea	 ecx, DWORD PTR _data$7[ebp]
  00242	c7 45 fc ff ff
	ff ff		 mov	 DWORD PTR __$EHRec$[ebp+8], -1
  00249	ff 15 00 00 00
	00		 call	 DWORD PTR __imp_??1?$CStringT@DV?$StrTraitMFC_DLL@DV?$ChTraitsCRT@D@ATL@@@@@ATL@@QAE@XZ
$LN19@OnApplySub:

; 235  : 	if(p_pIGraphInfo == NULL || !m_Signal_Bt.IsWindowVisible()) return;

  0024f	83 bf c4 00 00
	00 00		 cmp	 DWORD PTR [edi+196], 0
  00256	74 61		 je	 SHORT $LN28@OnApplySub
; File C:\Program Files (x86)\Microsoft Visual Studio\2019\Community\VC\Tools\MSVC\14.29.30133\atlmfc\include\afxwin2.inl

; 124  : 	{ ASSERT(::IsWindow(m_hWnd)); return ::IsWindowVisible(m_hWnd); }

  00258	ff b7 98 01 00
	00		 push	 DWORD PTR [edi+408]
  0025e	ff 15 00 00 00
	00		 call	 DWORD PTR __imp__IsWindowVisible@4
; File D:\git\src\IBK\IBK_DRFN\ProjSrc\SrcChartEx\ChartAddIn\ChartEnvSetupDlgAddIn\ChartEnvSetupDlgAddIn\Setting_Common_Type_B.cpp

; 235  : 	if(p_pIGraphInfo == NULL || !m_Signal_Bt.IsWindowVisible()) return;

  00264	85 c0		 test	 eax, eax
  00266	74 51		 je	 SHORT $LN28@OnApplySub

; 236  : 
; 237  : 	//   signal .
; 238  : 	BOOL bValidFalg = FALSE, bShowSignal = FALSE;
; 239  : 	m_pIGraphInfo->GetSignalShowFlag( bValidFalg, bShowSignal);

  00268	8b 8f c4 00 00
	00		 mov	 ecx, DWORD PTR [edi+196]
  0026e	8d 55 cc	 lea	 edx, DWORD PTR _bShowSignal$6[ebp]
  00271	c7 45 c8 00 00
	00 00		 mov	 DWORD PTR _bValidFalg$4[ebp], 0
  00278	c7 45 cc 00 00
	00 00		 mov	 DWORD PTR _bShowSignal$6[ebp], 0
  0027f	52		 push	 edx
  00280	8b 01		 mov	 eax, DWORD PTR [ecx]
  00282	8d 55 c8	 lea	 edx, DWORD PTR _bValidFalg$4[ebp]
  00285	52		 push	 edx
  00286	ff 90 b4 00 00
	00		 call	 DWORD PTR [eax+180]

; 240  : 	if( !bValidFalg) return;

  0028c	83 7d c8 00	 cmp	 DWORD PTR _bValidFalg$4[ebp], 0
  00290	74 27		 je	 SHORT $LN28@OnApplySub
; File C:\Program Files (x86)\Microsoft Visual Studio\2019\Community\VC\Tools\MSVC\14.29.30133\atlmfc\include\afxwin2.inl

; 628  : 	{ ASSERT(::IsWindow(m_hWnd)); return (int)::SendMessage(m_hWnd, BM_GETCHECK, 0, 0); }

  00292	6a 00		 push	 0
  00294	6a 00		 push	 0
  00296	68 f0 00 00 00	 push	 240			; 000000f0H
  0029b	ff b7 98 01 00
	00		 push	 DWORD PTR [edi+408]
  002a1	ff 15 00 00 00
	00		 call	 DWORD PTR __imp__SendMessageA@16
; File D:\git\src\IBK\IBK_DRFN\ProjSrc\SrcChartEx\ChartAddIn\ChartEnvSetupDlgAddIn\ChartEnvSetupDlgAddIn\Setting_Common_Type_B.cpp

; 243  : 	m_pIGraphInfo->SetSignalShowFlag( bValidFalg, m_Signal_Bt.GetCheck());

  002a7	8b 8f c4 00 00
	00		 mov	 ecx, DWORD PTR [edi+196]
  002ad	50		 push	 eax
  002ae	ff 75 c8	 push	 DWORD PTR _bValidFalg$4[ebp]
  002b1	8b 11		 mov	 edx, DWORD PTR [ecx]
  002b3	ff 92 b8 00 00
	00		 call	 DWORD PTR [edx+184]
$LN28@OnApplySub:

; 616  : 
; 617  : 	//   
; 618  : 	OnApplyBaseLine();
; 619  : }

  002b9	8b 4d f4	 mov	 ecx, DWORD PTR __$EHRec$[ebp]
  002bc	64 89 0d 00 00
	00 00		 mov	 DWORD PTR fs:0, ecx
  002c3	59		 pop	 ecx
  002c4	5f		 pop	 edi
  002c5	5e		 pop	 esi
  002c6	5b		 pop	 ebx
  002c7	8b 4d f0	 mov	 ecx, DWORD PTR __$ArrayPad$[ebp]
  002ca	33 cd		 xor	 ecx, ebp
  002cc	e8 00 00 00 00	 call	 @__security_check_cookie@4
  002d1	8b e5		 mov	 esp, ebp
  002d3	5d		 pop	 ebp
  002d4	c3		 ret	 0
_TEXT	ENDS
;	COMDAT text$x
text$x	SEGMENT
__unwindfunclet$?OnApplySubGraphData@CSetting_Common_Type_B@@AAEXXZ$0:
  00000	8d 4d d0	 lea	 ecx, DWORD PTR _strData$8[ebp]
  00003	ff 25 00 00 00
	00		 jmp	 DWORD PTR __imp_??1?$CStringT@DV?$StrTraitMFC_DLL@DV?$ChTraitsCRT@D@ATL@@@@@ATL@@QAE@XZ
__unwindfunclet$?OnApplySubGraphData@CSetting_Common_Type_B@@AAEXXZ$1:
  00009	8d 4d d0	 lea	 ecx, DWORD PTR _data$7[ebp]
  0000c	ff 25 00 00 00
	00		 jmp	 DWORD PTR __imp_??1?$CStringT@DV?$StrTraitMFC_DLL@DV?$ChTraitsCRT@D@ATL@@@@@ATL@@QAE@XZ
  00012	cc		 int	 3
  00013	cc		 int	 3
  00014	cc		 int	 3
  00015	cc		 int	 3
  00016	cc		 int	 3
__ehhandler$?OnApplySubGraphData@CSetting_Common_Type_B@@AAEXXZ:
  00017	90		 npad	 1
  00018	90		 npad	 1
  00019	8b 54 24 08	 mov	 edx, DWORD PTR [esp+8]
  0001d	8d 42 0c	 lea	 eax, DWORD PTR [edx+12]
  00020	8b 4a b4	 mov	 ecx, DWORD PTR [edx-76]
  00023	33 c8		 xor	 ecx, eax
  00025	e8 00 00 00 00	 call	 @__security_check_cookie@4
  0002a	8b 4a fc	 mov	 ecx, DWORD PTR [edx-4]
  0002d	33 c8		 xor	 ecx, eax
  0002f	e8 00 00 00 00	 call	 @__security_check_cookie@4
  00034	b8 00 00 00 00	 mov	 eax, OFFSET __ehfuncinfo$?OnApplySubGraphData@CSetting_Common_Type_B@@AAEXXZ
  00039	e9 00 00 00 00	 jmp	 ___CxxFrameHandler3
text$x	ENDS
?OnApplySubGraphData@CSetting_Common_Type_B@@AAEXXZ ENDP ; CSetting_Common_Type_B::OnApplySubGraphData
; Function compile flags: /Ogtp
; File D:\git\src\IBK\IBK_DRFN\ProjSrc\SrcChartEx\ChartAddIn\ChartEnvSetupDlgAddIn\ChartEnvSetupDlgAddIn\Setting_Common_Type_B.cpp
; File C:\Program Files (x86)\Microsoft Visual Studio\2019\Community\VC\Tools\MSVC\14.29.30133\atlmfc\include\afxwin2.inl
; File D:\git\src\IBK\IBK_DRFN\ProjSrc\SrcChartEx\ChartAddIn\ChartEnvSetupDlgAddIn\ChartEnvSetupDlgAddIn\Setting_Common_Type_B.cpp
; File C:\Program Files (x86)\Microsoft Visual Studio\2019\Community\VC\Tools\MSVC\14.29.30133\atlmfc\include\afxwin2.inl
; File D:\git\src\IBK\IBK_DRFN\ProjSrc\SrcChartEx\ChartAddIn\ChartEnvSetupDlgAddIn\ChartEnvSetupDlgAddIn\Setting_Common_Type_B.cpp
; File C:\Program Files (x86)\Microsoft Visual Studio\2019\Community\VC\Tools\MSVC\14.29.30133\atlmfc\include\afxwin2.inl
; File D:\git\src\IBK\IBK_DRFN\ProjSrc\SrcChartEx\ChartAddIn\ChartEnvSetupDlgAddIn\ChartEnvSetupDlgAddIn\Setting_Common_Type_B.cpp
;	COMDAT ?Initial_SubGraphData@CSetting_Common_Type_B@@AAEXH@Z
_TEXT	SEGMENT
$T1 = 8							; size = 4
_nIndex$ = 8						; size = 4
?Initial_SubGraphData@CSetting_Common_Type_B@@AAEXH@Z PROC ; CSetting_Common_Type_B::Initial_SubGraphData, COMDAT
; _this$ = ecx

; 629  : {

  00000	55		 push	 ebp
  00001	8b ec		 mov	 ebp, esp
  00003	56		 push	 esi
  00004	8b f1		 mov	 esi, ecx

; 630  : 	if( m_pIGraphInfo == NULL ) return;

  00006	8b 8e c4 00 00
	00		 mov	 ecx, DWORD PTR [esi+196]
  0000c	85 c9		 test	 ecx, ecx
  0000e	0f 84 c6 00 00
	00		 je	 $LN9@Initial_Su

; 631  : 
; 632  : 	int nOldSubGraphIndex = m_nSubGraphIndex;
; 633  : 	if( nIndex > m_pIGraphInfo->GetSubGraphCount() - 1 ) m_nSubGraphIndex = m_pIGraphInfo->GetSubGraphCount() - 1;

  00014	8b 01		 mov	 eax, DWORD PTR [ecx]
  00016	57		 push	 edi
  00017	8b be 68 12 00
	00		 mov	 edi, DWORD PTR [esi+4712]
  0001d	ff 50 2c	 call	 DWORD PTR [eax+44]
  00020	8b 4d 08	 mov	 ecx, DWORD PTR _nIndex$[ebp]
  00023	48		 dec	 eax
  00024	3b c8		 cmp	 ecx, eax
  00026	7e 10		 jle	 SHORT $LN3@Initial_Su
  00028	8b 8e c4 00 00
	00		 mov	 ecx, DWORD PTR [esi+196]
  0002e	8b 01		 mov	 eax, DWORD PTR [ecx]
  00030	ff 50 2c	 call	 DWORD PTR [eax+44]
  00033	8d 48 ff	 lea	 ecx, DWORD PTR [eax-1]
  00036	eb 07		 jmp	 SHORT $LN4@Initial_Su
$LN3@Initial_Su:

; 634  : 	else m_nSubGraphIndex = ( nIndex < 0 ? 0 : nIndex);

  00038	33 c0		 xor	 eax, eax
  0003a	85 c9		 test	 ecx, ecx
  0003c	0f 48 c8	 cmovs	 ecx, eax
$LN4@Initial_Su:

; 635  : 
; 636  : 	if( 0 <= nOldSubGraphIndex && nOldSubGraphIndex == m_nSubGraphIndex) return;

  0003f	89 8e 68 12 00
	00		 mov	 DWORD PTR [esi+4712], ecx
  00045	85 ff		 test	 edi, edi
  00047	78 08		 js	 SHORT $LN5@Initial_Su
  00049	3b f9		 cmp	 edi, ecx
  0004b	0f 84 88 00 00
	00		 je	 $LN16@Initial_Su
$LN5@Initial_Su:

; 637  : 	
; 638  : 	Initial_Title( m_nSubGraphIndex, m_edtCompositionTitleData);

  00051	8d 86 40 0f 00
	00		 lea	 eax, DWORD PTR [esi+3904]
  00057	50		 push	 eax
  00058	51		 push	 ecx
  00059	8b ce		 mov	 ecx, esi
  0005b	e8 00 00 00 00	 call	 ?Initial_Title@CBaseDialog@@IAEXHAAVCEdit@@@Z ; CBaseDialog::Initial_Title

; 639  : 	Initial_DrawStyleComboBox(m_nSubGraphIndex, m_cmbLineType);

  00060	8d 86 48 10 00
	00		 lea	 eax, DWORD PTR [esi+4168]
  00066	8b ce		 mov	 ecx, esi
  00068	50		 push	 eax
  00069	ff b6 68 12 00
	00		 push	 DWORD PTR [esi+4712]
  0006f	e8 00 00 00 00	 call	 ?Initial_DrawStyleComboBox@CBaseDialog@@IAEXHAAVCBitmapItemComboBox@@@Z ; CBaseDialog::Initial_DrawStyleComboBox

; 641  : 	m_cmbThickness.SetCurSel( m_pIGraphInfo->GetSubGraphPenThickness( m_nSubGraphIndex, 1) - 1);

  00074	8b 8e c4 00 00
	00		 mov	 ecx, DWORD PTR [esi+196]
  0007a	6a 01		 push	 1
  0007c	ff b6 68 12 00
	00		 push	 DWORD PTR [esi+4712]
  00082	8b 01		 mov	 eax, DWORD PTR [ecx]
  00084	ff 90 80 00 00
	00		 call	 DWORD PTR [eax+128]
; File C:\Program Files (x86)\Microsoft Visual Studio\2019\Community\VC\Tools\MSVC\14.29.30133\atlmfc\include\afxwin2.inl

; 767  : 	{ ASSERT(::IsWindow(m_hWnd)); return (int)::SendMessage(m_hWnd, CB_SETCURSEL, nSelect, 0); }

  0008a	6a 00		 push	 0
; File D:\git\src\IBK\IBK_DRFN\ProjSrc\SrcChartEx\ChartAddIn\ChartEnvSetupDlgAddIn\ChartEnvSetupDlgAddIn\Setting_Common_Type_B.cpp

; 641  : 	m_cmbThickness.SetCurSel( m_pIGraphInfo->GetSubGraphPenThickness( m_nSubGraphIndex, 1) - 1);

  0008c	48		 dec	 eax
; File C:\Program Files (x86)\Microsoft Visual Studio\2019\Community\VC\Tools\MSVC\14.29.30133\atlmfc\include\afxwin2.inl

; 767  : 	{ ASSERT(::IsWindow(m_hWnd)); return (int)::SendMessage(m_hWnd, CB_SETCURSEL, nSelect, 0); }

  0008d	50		 push	 eax
  0008e	68 4e 01 00 00	 push	 334			; 0000014eH
  00093	ff b6 e0 0f 00
	00		 push	 DWORD PTR [esi+4064]
  00099	ff 15 00 00 00
	00		 call	 DWORD PTR __imp__SendMessageA@16
; File D:\git\src\IBK\IBK_DRFN\ProjSrc\SrcChartEx\ChartAddIn\ChartEnvSetupDlgAddIn\ChartEnvSetupDlgAddIn\Setting_Common_Type_B.cpp

; 644  : 	Init_Composition_Group_SubGraphColor(m_nSubGraphIndex);

  0009f	8b 96 68 12 00
	00		 mov	 edx, DWORD PTR [esi+4712]

; 481  : 	if( nSubGraphIndex < 0) return;

  000a5	85 d2		 test	 edx, edx
  000a7	78 30		 js	 SHORT $LN16@Initial_Su

; 482  : 
; 483  : 	SetButtonColor(m_btnComositionColor, m_pIGraphInfo->GetSubGraphColor( nSubGraphIndex, 1));

  000a9	8b 8e c4 00 00
	00		 mov	 ecx, DWORD PTR [esi+196]
  000af	6a 01		 push	 1
  000b1	52		 push	 edx
  000b2	8b 01		 mov	 eax, DWORD PTR [ecx]
  000b4	ff 50 64	 call	 DWORD PTR [eax+100]
  000b7	89 45 08	 mov	 DWORD PTR $T1[ebp], eax

; 490  : 	colorButton.SetColor(color);

  000ba	8d 8e 50 11 00
	00		 lea	 ecx, DWORD PTR [esi+4432]
  000c0	8d 45 08	 lea	 eax, DWORD PTR $T1[ebp]
  000c3	50		 push	 eax
  000c4	e8 00 00 00 00	 call	 ?SetColor@CColorButton@@QAEXABK@Z ; CColorButton::SetColor
; File C:\Program Files (x86)\Microsoft Visual Studio\2019\Community\VC\Tools\MSVC\14.29.30133\atlmfc\include\afxwin2.inl

; 114  : 	{ ASSERT(::IsWindow(m_hWnd)); ::InvalidateRect(m_hWnd, NULL, bErase); }

  000c9	6a 01		 push	 1
  000cb	6a 00		 push	 0
  000cd	ff b6 70 11 00
	00		 push	 DWORD PTR [esi+4464]
  000d3	ff 15 00 00 00
	00		 call	 DWORD PTR __imp__InvalidateRect@12
$LN16@Initial_Su:
  000d9	5f		 pop	 edi
$LN9@Initial_Su:
  000da	5e		 pop	 esi
; File D:\git\src\IBK\IBK_DRFN\ProjSrc\SrcChartEx\ChartAddIn\ChartEnvSetupDlgAddIn\ChartEnvSetupDlgAddIn\Setting_Common_Type_B.cpp

; 645  : }

  000db	5d		 pop	 ebp
  000dc	c2 04 00	 ret	 4
?Initial_SubGraphData@CSetting_Common_Type_B@@AAEXH@Z ENDP ; CSetting_Common_Type_B::Initial_SubGraphData
_TEXT	ENDS
; Function compile flags: /Ogtp
; File D:\git\src\IBK\IBK_DRFN\ProjSrc\SrcChartEx\ChartAddIn\ChartEnvSetupDlgAddIn\ChartEnvSetupDlgAddIn\Setting_Common_Type_B.cpp
; File C:\Program Files (x86)\Microsoft Visual Studio\2019\Community\VC\Tools\MSVC\14.29.30133\atlmfc\include\afxwin2.inl
; File D:\git\src\IBK\IBK_DRFN\ProjSrc\SrcChartEx\ChartAddIn\ChartEnvSetupDlgAddIn\ChartEnvSetupDlgAddIn\Setting_Common_Type_B.cpp
;	COMDAT ?Initial_Signal@CSetting_Common_Type_B@@AAEXPAUIGraphInfo135914@@@Z
_TEXT	SEGMENT
_bShowSignal$ = -4					; size = 4
_bValidFalg$ = 8					; size = 4
_p_pIGraphInfo$ = 8					; size = 4
?Initial_Signal@CSetting_Common_Type_B@@AAEXPAUIGraphInfo135914@@@Z PROC ; CSetting_Common_Type_B::Initial_Signal, COMDAT
; _this$ = ecx

; 247  : {

  00000	55		 push	 ebp
  00001	8b ec		 mov	 ebp, esp
  00003	51		 push	 ecx

; 248  : 	if(p_pIGraphInfo == NULL) return;

  00004	83 7d 08 00	 cmp	 DWORD PTR _p_pIGraphInfo$[ebp], 0
  00008	56		 push	 esi
  00009	8b f1		 mov	 esi, ecx
  0000b	74 40		 je	 SHORT $LN1@Initial_Si

; 249  : 	BOOL bValidFalg = FALSE, bShowSignal = FALSE;
; 250  : 	m_pIGraphInfo->GetSignalShowFlag( bValidFalg, bShowSignal);

  0000d	8b 8e c4 00 00
	00		 mov	 ecx, DWORD PTR [esi+196]
  00013	8d 55 fc	 lea	 edx, DWORD PTR _bShowSignal$[ebp]
  00016	c7 45 08 00 00
	00 00		 mov	 DWORD PTR _bValidFalg$[ebp], 0
  0001d	c7 45 fc 00 00
	00 00		 mov	 DWORD PTR _bShowSignal$[ebp], 0
  00024	52		 push	 edx
  00025	8b 01		 mov	 eax, DWORD PTR [ecx]
  00027	8d 55 08	 lea	 edx, DWORD PTR _bValidFalg$[ebp]
  0002a	52		 push	 edx
  0002b	ff 90 b4 00 00
	00		 call	 DWORD PTR [eax+180]

; 251  : 	if( !bValidFalg) return;

  00031	83 7d 08 00	 cmp	 DWORD PTR _bValidFalg$[ebp], 0
  00035	74 16		 je	 SHORT $LN1@Initial_Si
; File C:\Program Files (x86)\Microsoft Visual Studio\2019\Community\VC\Tools\MSVC\14.29.30133\atlmfc\include\afxwin2.inl

; 630  : 	{ ASSERT(::IsWindow(m_hWnd)); ::SendMessage(m_hWnd, BM_SETCHECK, nCheck, 0); }

  00037	6a 00		 push	 0
  00039	ff 75 fc	 push	 DWORD PTR _bShowSignal$[ebp]
  0003c	68 f1 00 00 00	 push	 241			; 000000f1H
  00041	ff b6 98 01 00
	00		 push	 DWORD PTR [esi+408]
  00047	ff 15 00 00 00
	00		 call	 DWORD PTR __imp__SendMessageA@16
$LN1@Initial_Si:
  0004d	5e		 pop	 esi
; File D:\git\src\IBK\IBK_DRFN\ProjSrc\SrcChartEx\ChartAddIn\ChartEnvSetupDlgAddIn\ChartEnvSetupDlgAddIn\Setting_Common_Type_B.cpp

; 255  : }

  0004e	8b e5		 mov	 esp, ebp
  00050	5d		 pop	 ebp
  00051	c2 04 00	 ret	 4
?Initial_Signal@CSetting_Common_Type_B@@AAEXPAUIGraphInfo135914@@@Z ENDP ; CSetting_Common_Type_B::Initial_Signal
_TEXT	ENDS
; Function compile flags: /Ogtp
; File D:\git\src\IBK\IBK_DRFN\ProjSrc\SrcChartEx\ChartAddIn\ChartEnvSetupDlgAddIn\ChartEnvSetupDlgAddIn\Setting_Common_Type_B.cpp
; File C:\Program Files (x86)\Microsoft Visual Studio\2019\Community\VC\Tools\MSVC\14.29.30133\atlmfc\include\afxwin2.inl
; File D:\git\src\IBK\IBK_DRFN\ProjSrc\SrcChartEx\ChartAddIn\ChartEnvSetupDlgAddIn\ChartEnvSetupDlgAddIn\Setting_Common_Type_B.cpp
; File C:\Program Files (x86)\Microsoft Visual Studio\2019\Community\VC\Tools\MSVC\14.29.30133\atlmfc\include\afxwin2.inl
; File D:\git\src\IBK\IBK_DRFN\ProjSrc\SrcChartEx\ChartAddIn\ChartEnvSetupDlgAddIn\ChartEnvSetupDlgAddIn\Setting_Common_Type_B.cpp
; File C:\Program Files (x86)\Microsoft Visual Studio\2019\Community\VC\Tools\MSVC\14.29.30133\atlmfc\include\afxwin2.inl
; File D:\git\src\IBK\IBK_DRFN\ProjSrc\SrcChartEx\ChartAddIn\ChartEnvSetupDlgAddIn\ChartEnvSetupDlgAddIn\Setting_Common_Type_B.cpp
; File C:\Program Files (x86)\Microsoft Visual Studio\2019\Community\VC\Tools\MSVC\14.29.30133\atlmfc\include\afxwin2.inl
; File D:\git\src\IBK\IBK_DRFN\ProjSrc\SrcChartEx\ChartAddIn\ChartEnvSetupDlgAddIn\ChartEnvSetupDlgAddIn\Setting_Common_Type_B.cpp
; File C:\Program Files (x86)\Microsoft Visual Studio\2019\Community\VC\Tools\MSVC\14.29.30133\atlmfc\include\afxwin2.inl
; File D:\git\src\IBK\IBK_DRFN\ProjSrc\SrcChartEx\ChartAddIn\ChartEnvSetupDlgAddIn\ChartEnvSetupDlgAddIn\Setting_Common_Type_B.cpp
; File D:\git\src\IBK\IBK_DRFN\ProjSrc\SrcChartEx\ChartAddIn\ChartEnvSetupDlgAddIn\Include_AddIn_135914\I135914\_IString.h
; File D:\git\src\IBK\IBK_DRFN\ProjSrc\SrcChartEx\ChartAddIn\ChartEnvSetupDlgAddIn\ChartEnvSetupDlgAddIn\Setting_Common_Type_B.cpp
; File C:\Program Files (x86)\Microsoft Visual Studio\2019\Community\VC\Tools\MSVC\14.29.30133\atlmfc\include\afxwin2.inl
; File D:\git\src\IBK\IBK_DRFN\ProjSrc\SrcChartEx\ChartAddIn\ChartEnvSetupDlgAddIn\ChartEnvSetupDlgAddIn\Setting_Common_Type_B.cpp
; File D:\git\src\IBK\IBK_DRFN\ProjSrc\SrcChartEx\ChartAddIn\ChartEnvSetupDlgAddIn\Include_AddIn_135914\I135914\_IString.h
; File D:\git\src\IBK\IBK_DRFN\ProjSrc\SrcChartEx\ChartAddIn\ChartEnvSetupDlgAddIn\ChartEnvSetupDlgAddIn\Setting_Common_Type_B.cpp
;	COMDAT ?Init_BaseLine_Group_Title@CSetting_Common_Type_B@@AAEXXZ
_TEXT	SEGMENT
_szIndicatorName$ = -36					; size = 8
_dFirst$ = -28						; size = 8
_bShowSignal$2 = -20					; size = 4
$T3 = -20						; size = 4
_bValidFalg$4 = -16					; size = 4
__$EHRec$ = -12						; size = 12
?Init_BaseLine_Group_Title@CSetting_Common_Type_B@@AAEXXZ PROC ; CSetting_Common_Type_B::Init_BaseLine_Group_Title, COMDAT
; _this$ = ecx

; 504  : {

  00000	55		 push	 ebp
  00001	8b ec		 mov	 ebp, esp
  00003	6a ff		 push	 -1
  00005	68 00 00 00 00	 push	 __ehhandler$?Init_BaseLine_Group_Title@CSetting_Common_Type_B@@AAEXXZ
  0000a	64 a1 00 00 00
	00		 mov	 eax, DWORD PTR fs:0
  00010	50		 push	 eax
  00011	83 ec 18	 sub	 esp, 24			; 00000018H
  00014	53		 push	 ebx
  00015	56		 push	 esi
  00016	57		 push	 edi
  00017	a1 00 00 00 00	 mov	 eax, DWORD PTR ___security_cookie
  0001c	33 c5		 xor	 eax, ebp
  0001e	50		 push	 eax
  0001f	8d 45 f4	 lea	 eax, DWORD PTR __$EHRec$[ebp]
  00022	64 a3 00 00 00
	00		 mov	 DWORD PTR fs:0, eax
  00028	8b f9		 mov	 edi, ecx
; File C:\Program Files (x86)\Microsoft Visual Studio\2019\Community\VC\Tools\MSVC\14.29.30133\atlmfc\include\afxwin2.inl

; 664  : 	{ ASSERT(::IsWindow(m_hWnd)); return (int)::SendMessage(m_hWnd, LB_GETCOUNT, 0, 0); }

  0002a	8b 1d 00 00 00
	00		 mov	 ebx, DWORD PTR __imp__SendMessageA@16
; File D:\git\src\IBK\IBK_DRFN\ProjSrc\SrcChartEx\ChartAddIn\ChartEnvSetupDlgAddIn\ChartEnvSetupDlgAddIn\Setting_Common_Type_B.cpp

; 505  : 	for(int i = 0 ; i< m_HorizonLine_ListBox.GetCount() ; i++)

  00030	33 f6		 xor	 esi, esi
; File C:\Program Files (x86)\Microsoft Visual Studio\2019\Community\VC\Tools\MSVC\14.29.30133\atlmfc\include\afxwin2.inl

; 664  : 	{ ASSERT(::IsWindow(m_hWnd)); return (int)::SendMessage(m_hWnd, LB_GETCOUNT, 0, 0); }

  00032	56		 push	 esi
  00033	56		 push	 esi
  00034	68 8b 01 00 00	 push	 395			; 0000018bH
  00039	ff b7 18 02 00
	00		 push	 DWORD PTR [edi+536]
  0003f	ff d3		 call	 ebx
; File D:\git\src\IBK\IBK_DRFN\ProjSrc\SrcChartEx\ChartAddIn\ChartEnvSetupDlgAddIn\ChartEnvSetupDlgAddIn\Setting_Common_Type_B.cpp

; 505  : 	for(int i = 0 ; i< m_HorizonLine_ListBox.GetCount() ; i++)

  00041	85 c0		 test	 eax, eax
  00043	7e 26		 jle	 SHORT $LN3@Init_BaseL
$LL4@Init_BaseL:
; File C:\Program Files (x86)\Microsoft Visual Studio\2019\Community\VC\Tools\MSVC\14.29.30133\atlmfc\include\afxwin2.inl

; 727  : 	{ ASSERT(::IsWindow(m_hWnd)); return (int)::SendMessage(m_hWnd, LB_DELETESTRING, nIndex, 0); }

  00045	6a 00		 push	 0
  00047	56		 push	 esi
  00048	68 82 01 00 00	 push	 386			; 00000182H
  0004d	ff b7 18 02 00
	00		 push	 DWORD PTR [edi+536]
  00053	ff d3		 call	 ebx

; 664  : 	{ ASSERT(::IsWindow(m_hWnd)); return (int)::SendMessage(m_hWnd, LB_GETCOUNT, 0, 0); }

  00055	6a 00		 push	 0
  00057	6a 00		 push	 0
  00059	68 8b 01 00 00	 push	 395			; 0000018bH
  0005e	ff b7 18 02 00
	00		 push	 DWORD PTR [edi+536]
; File D:\git\src\IBK\IBK_DRFN\ProjSrc\SrcChartEx\ChartAddIn\ChartEnvSetupDlgAddIn\ChartEnvSetupDlgAddIn\Setting_Common_Type_B.cpp

; 505  : 	for(int i = 0 ; i< m_HorizonLine_ListBox.GetCount() ; i++)

  00064	46		 inc	 esi
; File C:\Program Files (x86)\Microsoft Visual Studio\2019\Community\VC\Tools\MSVC\14.29.30133\atlmfc\include\afxwin2.inl

; 664  : 	{ ASSERT(::IsWindow(m_hWnd)); return (int)::SendMessage(m_hWnd, LB_GETCOUNT, 0, 0); }

  00065	ff d3		 call	 ebx
; File D:\git\src\IBK\IBK_DRFN\ProjSrc\SrcChartEx\ChartAddIn\ChartEnvSetupDlgAddIn\ChartEnvSetupDlgAddIn\Setting_Common_Type_B.cpp

; 505  : 	for(int i = 0 ; i< m_HorizonLine_ListBox.GetCount() ; i++)

  00067	3b f0		 cmp	 esi, eax
  00069	7c da		 jl	 SHORT $LL4@Init_BaseL
$LN3@Init_BaseL:
; File C:\Program Files (x86)\Microsoft Visual Studio\2019\Community\VC\Tools\MSVC\14.29.30133\atlmfc\include\afxwin2.inl

; 731  : 	{ ASSERT(::IsWindow(m_hWnd)); ::SendMessage(m_hWnd, LB_RESETCONTENT, 0, 0); }

  0006b	6a 00		 push	 0
  0006d	6a 00		 push	 0
  0006f	68 84 01 00 00	 push	 388			; 00000184H
  00074	ff b7 18 02 00
	00		 push	 DWORD PTR [edi+536]
  0007a	ff d3		 call	 ebx
; File D:\git\src\IBK\IBK_DRFN\ProjSrc\SrcChartEx\ChartAddIn\ChartEnvSetupDlgAddIn\ChartEnvSetupDlgAddIn\Setting_Common_Type_B.cpp

; 510  : 	IDoubleList *pIDblBase = m_pIGraphInfo->GetBaseLineList();

  0007c	8b 8f c4 00 00
	00		 mov	 ecx, DWORD PTR [edi+196]
  00082	0f 57 c0	 xorps	 xmm0, xmm0
  00085	f2 0f 11 45 e4	 movsd	 QWORD PTR _dFirst$[ebp], xmm0
  0008a	8b 01		 mov	 eax, DWORD PTR [ecx]
  0008c	ff 50 28	 call	 DWORD PTR [eax+40]
  0008f	8b f0		 mov	 esi, eax

; 511  : 	if( pIDblBase)

  00091	85 f6		 test	 esi, esi
  00093	74 2b		 je	 SHORT $LN5@Init_BaseL

; 512  : 	{
; 513  : 		Initial_ListBox(  pIDblBase, m_HorizonLine_ListBox);

  00095	8d 8f f8 01 00
	00		 lea	 ecx, DWORD PTR [edi+504]
  0009b	51		 push	 ecx
  0009c	56		 push	 esi
  0009d	8b cf		 mov	 ecx, edi
  0009f	e8 00 00 00 00	 call	 ?Initial_ListBox@CBaseDialog@@IAEXPAUIDoubleList135914@@AAVCBaseListBox@@@Z ; CBaseDialog::Initial_ListBox

; 514  : 
; 515  : 		if( !pIDblBase->IsEmpty()) pIDblBase->GetHead( dFirst);

  000a4	8b 16		 mov	 edx, DWORD PTR [esi]
  000a6	8b ce		 mov	 ecx, esi
  000a8	ff 52 14	 call	 DWORD PTR [edx+20]
  000ab	85 c0		 test	 eax, eax
  000ad	75 0b		 jne	 SHORT $LN6@Init_BaseL
  000af	8b 06		 mov	 eax, DWORD PTR [esi]
  000b1	8d 4d e4	 lea	 ecx, DWORD PTR _dFirst$[ebp]
  000b4	51		 push	 ecx
  000b5	8b ce		 mov	 ecx, esi
  000b7	ff 50 18	 call	 DWORD PTR [eax+24]
$LN6@Init_BaseL:

; 516  : 		pIDblBase->Release();

  000ba	8b 06		 mov	 eax, DWORD PTR [esi]
  000bc	56		 push	 esi
  000bd	ff 50 08	 call	 DWORD PTR [eax+8]
$LN5@Init_BaseL:

; 519  : 	ILPCSTR szIndicatorName = m_pIGraphInfo->GetIndicatorNameString();

  000c0	8b 8f c4 00 00
	00		 mov	 ecx, DWORD PTR [edi+196]
  000c6	8b 01		 mov	 eax, DWORD PTR [ecx]
  000c8	ff 90 a4 00 00
	00		 call	 DWORD PTR [eax+164]
; File D:\git\src\IBK\IBK_DRFN\ProjSrc\SrcChartEx\ChartAddIn\ChartEnvSetupDlgAddIn\Include_AddIn_135914\I135914\_IString.h

; 39   : 		m_pIStrData = p_pIString;	// Do not AddRef(). Because It must be Return Value.

  000ce	89 45 e0	 mov	 DWORD PTR _szIndicatorName$[ebp+4], eax

; 40   : 		if( m_pIStrData) m_szData = m_pIStrData->GetData();

  000d1	85 c0		 test	 eax, eax
  000d3	74 09		 je	 SHORT $LN20@Init_BaseL
  000d5	8b 10		 mov	 edx, DWORD PTR [eax]
  000d7	8b c8		 mov	 ecx, eax
  000d9	ff 52 10	 call	 DWORD PTR [edx+16]
  000dc	eb 02		 jmp	 SHORT $LN38@Init_BaseL
$LN20@Init_BaseL:

; 41   : 		else m_szData = NULL;

  000de	33 c0		 xor	 eax, eax
$LN38@Init_BaseL:
; File D:\git\src\IBK\IBK_DRFN\ProjSrc\SrcChartEx\ChartAddIn\ChartEnvSetupDlgAddIn\ChartEnvSetupDlgAddIn\Setting_Common_Type_B.cpp

; 519  : 	ILPCSTR szIndicatorName = m_pIGraphInfo->GetIndicatorNameString();

  000e0	89 45 dc	 mov	 DWORD PTR _szIndicatorName$[ebp], eax

; 520  : 	CBaseData::LIMITHORIZONTALLINE type = CFindType::FindLimitValueofHorizontalLine( szIndicatorName);

  000e3	50		 push	 eax
  000e4	c7 45 fc 00 00
	00 00		 mov	 DWORD PTR __$EHRec$[ebp+8], 0
  000eb	e8 00 00 00 00	 call	 ?FindLimitValueofHorizontalLine@CFindType@@SA?AW4LIMITHORIZONTALLINE@CBaseData@@PBD@Z ; CFindType::FindLimitValueofHorizontalLine
  000f0	83 c4 04	 add	 esp, 4
  000f3	8d 8f 78 02 00
	00		 lea	 ecx, DWORD PTR [edi+632]

; 521  : 	if(type == CBaseData::ZeroToOneZeroZero)			Initial_Spin(m_Horizon_Spin, m_Horizon_Edit, dFirst, 0, 100, 1);

  000f9	83 ec 14	 sub	 esp, 20			; 00000014H
  000fc	8d 97 f8 00 00
	00		 lea	 edx, DWORD PTR [edi+248]
  00102	c7 44 24 10 00
	00 80 3f	 mov	 DWORD PTR [esp+16], 1065353216 ; 3f800000H
  0010a	85 c0		 test	 eax, eax
  0010c	75 0e		 jne	 SHORT $LN7@Init_BaseL
  0010e	c7 44 24 0c 00
	00 c8 42	 mov	 DWORD PTR [esp+12], 1120403456 ; 42c80000H
  00116	89 44 24 08	 mov	 DWORD PTR [esp+8], eax
  0011a	eb 27		 jmp	 SHORT $LN39@Init_BaseL
$LN7@Init_BaseL:

; 522  : 	else if(type == CBaseData::MinusZeroToOneZeroZero)	Initial_Spin(m_Horizon_Spin, m_Horizon_Edit, dFirst, -100, -1, 1);

  0011c	83 f8 01	 cmp	 eax, 1
  0011f	75 12		 jne	 SHORT $LN9@Init_BaseL
  00121	c7 44 24 0c 00
	00 80 bf	 mov	 DWORD PTR [esp+12], -1082130432 ; bf800000H
  00129	c7 44 24 08 00
	00 c8 c2	 mov	 DWORD PTR [esp+8], -1027080192 ; c2c80000H
  00131	eb 10		 jmp	 SHORT $LN39@Init_BaseL
$LN9@Init_BaseL:

; 523  : 	else												Initial_Spin(m_Horizon_Spin, m_Horizon_Edit, dFirst, -999999, 999999, 1);

  00133	c7 44 24 0c f0
	23 74 49	 mov	 DWORD PTR [esp+12], 1232348144 ; 497423f0H
  0013b	c7 44 24 08 f0
	23 74 c9	 mov	 DWORD PTR [esp+8], -915135504 ; c97423f0H
$LN39@Init_BaseL:

; 524  : 	
; 525  : 	//      .
; 526  : 	m_Color_Bt.SetColor( m_pIGraphInfo->GetSubGraphColor( m_pIGraphInfo->GetSubGraphCount() - 1, 6));

  00143	f2 0f 10 45 e4	 movsd	 xmm0, QWORD PTR _dFirst$[ebp]
  00148	f2 0f 11 04 24	 movsd	 QWORD PTR [esp], xmm0
  0014d	51		 push	 ecx
  0014e	52		 push	 edx
  0014f	8b cf		 mov	 ecx, edi
  00151	e8 00 00 00 00	 call	 ?Initial_Spin@CBaseDialog@@IAEXAAVCNumSpinCtrl@@AAVCNumEdit@@NMMM@Z ; CBaseDialog::Initial_Spin
  00156	8b 8f c4 00 00
	00		 mov	 ecx, DWORD PTR [edi+196]
  0015c	6a 06		 push	 6
  0015e	8b 31		 mov	 esi, DWORD PTR [ecx]
  00160	ff 56 2c	 call	 DWORD PTR [esi+44]
  00163	8b 8f c4 00 00
	00		 mov	 ecx, DWORD PTR [edi+196]
  00169	48		 dec	 eax
  0016a	50		 push	 eax
  0016b	ff 56 64	 call	 DWORD PTR [esi+100]
  0016e	89 45 ec	 mov	 DWORD PTR $T3[ebp], eax
  00171	8d 8f 20 03 00
	00		 lea	 ecx, DWORD PTR [edi+800]
  00177	8d 45 ec	 lea	 eax, DWORD PTR $T3[ebp]
  0017a	50		 push	 eax
  0017b	e8 00 00 00 00	 call	 ?SetColor@CColorButton@@QAEXABK@Z ; CColorButton::SetColor

; 527  : 
; 528  : 	//sy 2006.04.17.
; 529  : 	Initial_Signal(m_pIGraphInfo);

  00180	8b 8f c4 00 00
	00		 mov	 ecx, DWORD PTR [edi+196]

; 248  : 	if(p_pIGraphInfo == NULL) return;

  00186	85 c9		 test	 ecx, ecx
  00188	74 36		 je	 SHORT $LN23@Init_BaseL

; 249  : 	BOOL bValidFalg = FALSE, bShowSignal = FALSE;
; 250  : 	m_pIGraphInfo->GetSignalShowFlag( bValidFalg, bShowSignal);

  0018a	8d 55 ec	 lea	 edx, DWORD PTR _bShowSignal$2[ebp]
  0018d	c7 45 f0 00 00
	00 00		 mov	 DWORD PTR _bValidFalg$4[ebp], 0
  00194	c7 45 ec 00 00
	00 00		 mov	 DWORD PTR _bShowSignal$2[ebp], 0
  0019b	8b 01		 mov	 eax, DWORD PTR [ecx]
  0019d	52		 push	 edx
  0019e	8d 55 f0	 lea	 edx, DWORD PTR _bValidFalg$4[ebp]
  001a1	52		 push	 edx
  001a2	ff 90 b4 00 00
	00		 call	 DWORD PTR [eax+180]

; 251  : 	if( !bValidFalg) return;

  001a8	83 7d f0 00	 cmp	 DWORD PTR _bValidFalg$4[ebp], 0
  001ac	74 12		 je	 SHORT $LN23@Init_BaseL
; File C:\Program Files (x86)\Microsoft Visual Studio\2019\Community\VC\Tools\MSVC\14.29.30133\atlmfc\include\afxwin2.inl

; 630  : 	{ ASSERT(::IsWindow(m_hWnd)); ::SendMessage(m_hWnd, BM_SETCHECK, nCheck, 0); }

  001ae	6a 00		 push	 0
  001b0	ff 75 ec	 push	 DWORD PTR _bShowSignal$2[ebp]
  001b3	68 f1 00 00 00	 push	 241			; 000000f1H
  001b8	ff b7 98 01 00
	00		 push	 DWORD PTR [edi+408]
  001be	ff d3		 call	 ebx
$LN23@Init_BaseL:
; File D:\git\src\IBK\IBK_DRFN\ProjSrc\SrcChartEx\ChartAddIn\ChartEnvSetupDlgAddIn\ChartEnvSetupDlgAddIn\Setting_Common_Type_B.cpp

; 531  : 	UpdateData(FALSE);

  001c0	6a 00		 push	 0
  001c2	8b cf		 mov	 ecx, edi
  001c4	e8 00 00 00 00	 call	 ?UpdateData@CWnd@@QAEHH@Z ; CWnd::UpdateData
; File D:\git\src\IBK\IBK_DRFN\ProjSrc\SrcChartEx\ChartAddIn\ChartEnvSetupDlgAddIn\Include_AddIn_135914\I135914\_IString.h

; 45   : 		if( m_pIStrData)

  001c9	8b 4d e0	 mov	 ecx, DWORD PTR _szIndicatorName$[ebp+4]
  001cc	c7 45 fc 01 00
	00 00		 mov	 DWORD PTR __$EHRec$[ebp+8], 1
  001d3	85 c9		 test	 ecx, ecx
  001d5	74 06		 je	 SHORT $LN30@Init_BaseL

; 46   : 		{
; 47   : 			m_pIStrData->Release();

  001d7	8b 01		 mov	 eax, DWORD PTR [ecx]
  001d9	51		 push	 ecx
  001da	ff 50 08	 call	 DWORD PTR [eax+8]
$LN30@Init_BaseL:
; File D:\git\src\IBK\IBK_DRFN\ProjSrc\SrcChartEx\ChartAddIn\ChartEnvSetupDlgAddIn\ChartEnvSetupDlgAddIn\Setting_Common_Type_B.cpp

; 532  : }

  001dd	8b 4d f4	 mov	 ecx, DWORD PTR __$EHRec$[ebp]
  001e0	64 89 0d 00 00
	00 00		 mov	 DWORD PTR fs:0, ecx
  001e7	59		 pop	 ecx
  001e8	5f		 pop	 edi
  001e9	5e		 pop	 esi
  001ea	5b		 pop	 ebx
  001eb	8b e5		 mov	 esp, ebp
  001ed	5d		 pop	 ebp
  001ee	c3		 ret	 0
_TEXT	ENDS
;	COMDAT text$x
text$x	SEGMENT
__unwindfunclet$?Init_BaseLine_Group_Title@CSetting_Common_Type_B@@AAEXXZ$0:
  00000	8d 4d dc	 lea	 ecx, DWORD PTR _szIndicatorName$[ebp]
  00003	e9 00 00 00 00	 jmp	 ??1ILPCSTR135914@@QAE@XZ ; ILPCSTR135914::~ILPCSTR135914
  00008	cc		 int	 3
  00009	cc		 int	 3
  0000a	cc		 int	 3
  0000b	cc		 int	 3
  0000c	cc		 int	 3
__ehhandler$?Init_BaseLine_Group_Title@CSetting_Common_Type_B@@AAEXXZ:
  0000d	90		 npad	 1
  0000e	90		 npad	 1
  0000f	8b 54 24 08	 mov	 edx, DWORD PTR [esp+8]
  00013	8d 42 0c	 lea	 eax, DWORD PTR [edx+12]
  00016	8b 4a d8	 mov	 ecx, DWORD PTR [edx-40]
  00019	33 c8		 xor	 ecx, eax
  0001b	e8 00 00 00 00	 call	 @__security_check_cookie@4
  00020	b8 00 00 00 00	 mov	 eax, OFFSET __ehfuncinfo$?Init_BaseLine_Group_Title@CSetting_Common_Type_B@@AAEXXZ
  00025	e9 00 00 00 00	 jmp	 ___CxxFrameHandler3
text$x	ENDS
?Init_BaseLine_Group_Title@CSetting_Common_Type_B@@AAEXXZ ENDP ; CSetting_Common_Type_B::Init_BaseLine_Group_Title
; Function compile flags: /Ogtp
; File D:\git\src\IBK\IBK_DRFN\ProjSrc\SrcChartEx\ChartAddIn\ChartEnvSetupDlgAddIn\ChartEnvSetupDlgAddIn\Setting_Common_Type_B.cpp
; File C:\Program Files (x86)\Microsoft Visual Studio\2019\Community\VC\Tools\MSVC\14.29.30133\atlmfc\include\afxwin2.inl
; File D:\git\src\IBK\IBK_DRFN\ProjSrc\SrcChartEx\ChartAddIn\ChartEnvSetupDlgAddIn\ChartEnvSetupDlgAddIn\Setting_Common_Type_B.cpp
;	COMDAT ?SetButtonColor@CSetting_Common_Type_B@@AAEXAAVCColorButton@@ABK@Z
_TEXT	SEGMENT
_colorButton$ = 8					; size = 4
_color$ = 12						; size = 4
?SetButtonColor@CSetting_Common_Type_B@@AAEXAAVCColorButton@@ABK@Z PROC ; CSetting_Common_Type_B::SetButtonColor, COMDAT
; _this$ = ecx

; 489  : {

  00000	55		 push	 ebp
  00001	8b ec		 mov	 ebp, esp
  00003	56		 push	 esi

; 490  : 	colorButton.SetColor(color);

  00004	ff 75 0c	 push	 DWORD PTR _color$[ebp]
  00007	8b 75 08	 mov	 esi, DWORD PTR _colorButton$[ebp]
  0000a	8b ce		 mov	 ecx, esi
  0000c	e8 00 00 00 00	 call	 ?SetColor@CColorButton@@QAEXABK@Z ; CColorButton::SetColor
; File C:\Program Files (x86)\Microsoft Visual Studio\2019\Community\VC\Tools\MSVC\14.29.30133\atlmfc\include\afxwin2.inl

; 114  : 	{ ASSERT(::IsWindow(m_hWnd)); ::InvalidateRect(m_hWnd, NULL, bErase); }

  00011	6a 01		 push	 1
  00013	6a 00		 push	 0
  00015	ff 76 20	 push	 DWORD PTR [esi+32]
  00018	ff 15 00 00 00
	00		 call	 DWORD PTR __imp__InvalidateRect@12
  0001e	5e		 pop	 esi
; File D:\git\src\IBK\IBK_DRFN\ProjSrc\SrcChartEx\ChartAddIn\ChartEnvSetupDlgAddIn\ChartEnvSetupDlgAddIn\Setting_Common_Type_B.cpp

; 492  : }

  0001f	5d		 pop	 ebp
  00020	c2 08 00	 ret	 8
?SetButtonColor@CSetting_Common_Type_B@@AAEXAAVCColorButton@@ABK@Z ENDP ; CSetting_Common_Type_B::SetButtonColor
_TEXT	ENDS
; Function compile flags: /Ogtp
; File D:\git\src\IBK\IBK_DRFN\ProjSrc\SrcChartEx\ChartAddIn\ChartEnvSetupDlgAddIn\ChartEnvSetupDlgAddIn\Setting_Common_Type_B.cpp
; File C:\Program Files (x86)\Microsoft Visual Studio\2019\Community\VC\Tools\MSVC\14.29.30133\atlmfc\include\afxwin2.inl
; File D:\git\src\IBK\IBK_DRFN\ProjSrc\SrcChartEx\ChartAddIn\ChartEnvSetupDlgAddIn\ChartEnvSetupDlgAddIn\Setting_Common_Type_B.cpp
;	COMDAT ?Init_Composition_Group_SubGraphColor@CSetting_Common_Type_B@@AAEXH@Z
_TEXT	SEGMENT
$T1 = 8							; size = 4
_nSubGraphIndex$ = 8					; size = 4
?Init_Composition_Group_SubGraphColor@CSetting_Common_Type_B@@AAEXH@Z PROC ; CSetting_Common_Type_B::Init_Composition_Group_SubGraphColor, COMDAT
; _this$ = ecx

; 480  : {

  00000	55		 push	 ebp
  00001	8b ec		 mov	 ebp, esp

; 481  : 	if( nSubGraphIndex < 0) return;

  00003	8b 55 08	 mov	 edx, DWORD PTR _nSubGraphIndex$[ebp]
  00006	56		 push	 esi
  00007	8b f1		 mov	 esi, ecx
  00009	85 d2		 test	 edx, edx
  0000b	78 30		 js	 SHORT $LN1@Init_Compo

; 482  : 
; 483  : 	SetButtonColor(m_btnComositionColor, m_pIGraphInfo->GetSubGraphColor( nSubGraphIndex, 1));

  0000d	8b 8e c4 00 00
	00		 mov	 ecx, DWORD PTR [esi+196]
  00013	6a 01		 push	 1
  00015	52		 push	 edx
  00016	8b 01		 mov	 eax, DWORD PTR [ecx]
  00018	ff 50 64	 call	 DWORD PTR [eax+100]
  0001b	89 45 08	 mov	 DWORD PTR $T1[ebp], eax

; 490  : 	colorButton.SetColor(color);

  0001e	8d 8e 50 11 00
	00		 lea	 ecx, DWORD PTR [esi+4432]
  00024	8d 45 08	 lea	 eax, DWORD PTR $T1[ebp]
  00027	50		 push	 eax
  00028	e8 00 00 00 00	 call	 ?SetColor@CColorButton@@QAEXABK@Z ; CColorButton::SetColor
; File C:\Program Files (x86)\Microsoft Visual Studio\2019\Community\VC\Tools\MSVC\14.29.30133\atlmfc\include\afxwin2.inl

; 114  : 	{ ASSERT(::IsWindow(m_hWnd)); ::InvalidateRect(m_hWnd, NULL, bErase); }

  0002d	6a 01		 push	 1
  0002f	6a 00		 push	 0
  00031	ff b6 70 11 00
	00		 push	 DWORD PTR [esi+4464]
  00037	ff 15 00 00 00
	00		 call	 DWORD PTR __imp__InvalidateRect@12
$LN1@Init_Compo:
  0003d	5e		 pop	 esi
; File D:\git\src\IBK\IBK_DRFN\ProjSrc\SrcChartEx\ChartAddIn\ChartEnvSetupDlgAddIn\ChartEnvSetupDlgAddIn\Setting_Common_Type_B.cpp

; 484  : }

  0003e	5d		 pop	 ebp
  0003f	c2 04 00	 ret	 4
?Init_Composition_Group_SubGraphColor@CSetting_Common_Type_B@@AAEXH@Z ENDP ; CSetting_Common_Type_B::Init_Composition_Group_SubGraphColor
_TEXT	ENDS
; Function compile flags: /Ogtp
; File D:\git\src\IBK\IBK_DRFN\ProjSrc\SrcChartEx\ChartAddIn\ChartEnvSetupDlgAddIn\ChartEnvSetupDlgAddIn\Setting_Common_Type_B.cpp
; File C:\Program Files (x86)\Microsoft Visual Studio\2019\Community\VC\Tools\MSVC\14.29.30133\atlmfc\include\afxwin2.inl
; File D:\git\src\IBK\IBK_DRFN\ProjSrc\SrcChartEx\ChartAddIn\ChartEnvSetupDlgAddIn\ChartEnvSetupDlgAddIn\Setting_Common_Type_B.cpp
; File C:\Program Files (x86)\Microsoft Visual Studio\2019\Community\VC\Tools\MSVC\14.29.30133\atlmfc\include\afxwin2.inl
; File D:\git\src\IBK\IBK_DRFN\ProjSrc\SrcChartEx\ChartAddIn\ChartEnvSetupDlgAddIn\ChartEnvSetupDlgAddIn\Setting_Common_Type_B.cpp
; File C:\Program Files (x86)\Microsoft Visual Studio\2019\Community\VC\Tools\MSVC\14.29.30133\atlmfc\include\afxwin2.inl
; File D:\git\src\IBK\IBK_DRFN\ProjSrc\SrcChartEx\ChartAddIn\ChartEnvSetupDlgAddIn\ChartEnvSetupDlgAddIn\Setting_Common_Type_B.cpp
; File C:\Program Files (x86)\Microsoft Visual Studio\2019\Community\VC\Tools\MSVC\14.29.30133\atlmfc\include\afxwin2.inl
; File D:\git\src\IBK\IBK_DRFN\ProjSrc\SrcChartEx\ChartAddIn\ChartEnvSetupDlgAddIn\ChartEnvSetupDlgAddIn\Setting_Common_Type_B.cpp
;	COMDAT ?Init_Composition_Group_SubGraphLine@CSetting_Common_Type_B@@AAEXH@Z
_TEXT	SEGMENT
_nSubGraphIndex$ = 8					; size = 4
?Init_Composition_Group_SubGraphLine@CSetting_Common_Type_B@@AAEXH@Z PROC ; CSetting_Common_Type_B::Init_Composition_Group_SubGraphLine, COMDAT
; _this$ = ecx

; 462  : {

  00000	55		 push	 ebp
  00001	8b ec		 mov	 ebp, esp
  00003	56		 push	 esi
  00004	57		 push	 edi

; 463  : 	if( nSubGraphIndex < 0) return;

  00005	8b 7d 08	 mov	 edi, DWORD PTR _nSubGraphIndex$[ebp]
  00008	8b f1		 mov	 esi, ecx
  0000a	85 ff		 test	 edi, edi
  0000c	0f 88 99 00 00
	00		 js	 $LN6@Init_Compo
; File C:\Program Files (x86)\Microsoft Visual Studio\2019\Community\VC\Tools\MSVC\14.29.30133\atlmfc\include\afxwin2.inl

; 763  : 	{ ASSERT(::IsWindow(m_hWnd)); return (int)::SendMessage(m_hWnd, CB_GETCOUNT, 0, 0); }

  00012	53		 push	 ebx
  00013	8b 1d 00 00 00
	00		 mov	 ebx, DWORD PTR __imp__SendMessageA@16
  00019	6a 00		 push	 0
  0001b	6a 00		 push	 0
  0001d	68 46 01 00 00	 push	 326			; 00000146H
  00022	ff b6 e0 0f 00
	00		 push	 DWORD PTR [esi+4064]
  00028	ff d3		 call	 ebx
; File D:\git\src\IBK\IBK_DRFN\ProjSrc\SrcChartEx\ChartAddIn\ChartEnvSetupDlgAddIn\ChartEnvSetupDlgAddIn\Setting_Common_Type_B.cpp

; 466  : 	if( m_cmbThickness.GetCount() == 0 )

  0002a	85 c0		 test	 eax, eax
  0002c	75 13		 jne	 SHORT $LN3@Init_Compo

; 467  : 		Initial_ThicknessComboBox( nSubGraphIndex, 0, m_cmbThickness );

  0002e	8d 86 c0 0f 00
	00		 lea	 eax, DWORD PTR [esi+4032]
  00034	8b ce		 mov	 ecx, esi
  00036	50		 push	 eax
  00037	6a 00		 push	 0
  00039	57		 push	 edi
  0003a	e8 00 00 00 00	 call	 ?Initial_ThicknessComboBox@CBaseDialog@@IAEXHHAAVCBitmapItemComboBox@@@Z ; CBaseDialog::Initial_ThicknessComboBox
  0003f	eb 22		 jmp	 SHORT $LN4@Init_Compo
$LN3@Init_Compo:

; 469  : 		m_cmbThickness.SetCurSel( m_pIGraphInfo->GetSubGraphPenThickness( nSubGraphIndex, 1) - 1);

  00041	8b 8e c4 00 00
	00		 mov	 ecx, DWORD PTR [esi+196]
  00047	6a 01		 push	 1
  00049	57		 push	 edi
  0004a	8b 01		 mov	 eax, DWORD PTR [ecx]
  0004c	ff 90 80 00 00
	00		 call	 DWORD PTR [eax+128]
; File C:\Program Files (x86)\Microsoft Visual Studio\2019\Community\VC\Tools\MSVC\14.29.30133\atlmfc\include\afxwin2.inl

; 767  : 	{ ASSERT(::IsWindow(m_hWnd)); return (int)::SendMessage(m_hWnd, CB_SETCURSEL, nSelect, 0); }

  00052	6a 00		 push	 0
; File D:\git\src\IBK\IBK_DRFN\ProjSrc\SrcChartEx\ChartAddIn\ChartEnvSetupDlgAddIn\ChartEnvSetupDlgAddIn\Setting_Common_Type_B.cpp

; 469  : 		m_cmbThickness.SetCurSel( m_pIGraphInfo->GetSubGraphPenThickness( nSubGraphIndex, 1) - 1);

  00054	48		 dec	 eax
; File C:\Program Files (x86)\Microsoft Visual Studio\2019\Community\VC\Tools\MSVC\14.29.30133\atlmfc\include\afxwin2.inl

; 767  : 	{ ASSERT(::IsWindow(m_hWnd)); return (int)::SendMessage(m_hWnd, CB_SETCURSEL, nSelect, 0); }

  00055	50		 push	 eax
  00056	68 4e 01 00 00	 push	 334			; 0000014eH
  0005b	ff b6 e0 0f 00
	00		 push	 DWORD PTR [esi+4064]
  00061	ff d3		 call	 ebx
$LN4@Init_Compo:

; 763  : 	{ ASSERT(::IsWindow(m_hWnd)); return (int)::SendMessage(m_hWnd, CB_GETCOUNT, 0, 0); }

  00063	6a 00		 push	 0
  00065	6a 00		 push	 0
  00067	68 46 01 00 00	 push	 326			; 00000146H
  0006c	ff b6 68 10 00
	00		 push	 DWORD PTR [esi+4200]
  00072	ff d3		 call	 ebx
; File D:\git\src\IBK\IBK_DRFN\ProjSrc\SrcChartEx\ChartAddIn\ChartEnvSetupDlgAddIn\ChartEnvSetupDlgAddIn\Setting_Common_Type_B.cpp

; 472  : 	if( m_cmbLineType.GetCount() == 0 )

  00074	85 c0		 test	 eax, eax
  00076	75 16		 jne	 SHORT $LN5@Init_Compo

; 473  : 		Initial_DrawStyleComboBox( nSubGraphIndex, m_cmbLineType );

  00078	8d 86 48 10 00
	00		 lea	 eax, DWORD PTR [esi+4168]
  0007e	8b ce		 mov	 ecx, esi
  00080	50		 push	 eax
  00081	57		 push	 edi
  00082	e8 00 00 00 00	 call	 ?Initial_DrawStyleComboBox@CBaseDialog@@IAEXHAAVCBitmapItemComboBox@@@Z ; CBaseDialog::Initial_DrawStyleComboBox
  00087	5b		 pop	 ebx
  00088	5f		 pop	 edi

; 476  : }

  00089	5e		 pop	 esi
  0008a	5d		 pop	 ebp
  0008b	c2 04 00	 ret	 4
$LN5@Init_Compo:

; 474  : 	else
; 475  : 		m_cmbLineType.SetCurSel( m_pIGraphInfo->GetSubGraphDrawStyle( nSubGraphIndex));

  0008e	8b 8e c4 00 00
	00		 mov	 ecx, DWORD PTR [esi+196]
  00094	57		 push	 edi
  00095	8b 01		 mov	 eax, DWORD PTR [ecx]
  00097	ff 50 5c	 call	 DWORD PTR [eax+92]
; File C:\Program Files (x86)\Microsoft Visual Studio\2019\Community\VC\Tools\MSVC\14.29.30133\atlmfc\include\afxwin2.inl

; 767  : 	{ ASSERT(::IsWindow(m_hWnd)); return (int)::SendMessage(m_hWnd, CB_SETCURSEL, nSelect, 0); }

  0009a	6a 00		 push	 0
  0009c	50		 push	 eax
  0009d	68 4e 01 00 00	 push	 334			; 0000014eH
  000a2	ff b6 68 10 00
	00		 push	 DWORD PTR [esi+4200]
  000a8	ff d3		 call	 ebx
  000aa	5b		 pop	 ebx
$LN6@Init_Compo:
  000ab	5f		 pop	 edi
; File D:\git\src\IBK\IBK_DRFN\ProjSrc\SrcChartEx\ChartAddIn\ChartEnvSetupDlgAddIn\ChartEnvSetupDlgAddIn\Setting_Common_Type_B.cpp

; 476  : }

  000ac	5e		 pop	 esi
  000ad	5d		 pop	 ebp
  000ae	c2 04 00	 ret	 4
?Init_Composition_Group_SubGraphLine@CSetting_Common_Type_B@@AAEXH@Z ENDP ; CSetting_Common_Type_B::Init_Composition_Group_SubGraphLine
_TEXT	ENDS
; Function compile flags: /Ogtp
; File D:\git\src\IBK\IBK_DRFN\ProjSrc\SrcChartEx\ChartAddIn\ChartEnvSetupDlgAddIn\ChartEnvSetupDlgAddIn\Setting_Common_Type_B.cpp
; File D:\git\src\IBK\IBK_DRFN\ProjSrc\SrcChartEx\ChartAddIn\ChartEnvSetupDlgAddIn\Include_AddIn_135914\I135914\_IString.h
; File D:\git\src\IBK\IBK_DRFN\ProjSrc\SrcChartEx\ChartAddIn\ChartEnvSetupDlgAddIn\ChartEnvSetupDlgAddIn\Setting_Common_Type_B.cpp
; File C:\Program Files (x86)\Microsoft Visual Studio\2019\Community\VC\Tools\MSVC\14.29.30133\atlmfc\include\atlsimpstr.h
; File D:\git\src\IBK\IBK_DRFN\ProjSrc\SrcChartEx\ChartAddIn\ChartEnvSetupDlgAddIn\ChartEnvSetupDlgAddIn\Setting_Common_Type_B.cpp
; File C:\Program Files (x86)\Microsoft Visual Studio\2019\Community\VC\Tools\MSVC\14.29.30133\atlmfc\include\atlsimpstr.h
; File D:\git\src\IBK\IBK_DRFN\ProjSrc\SrcChartEx\ChartAddIn\ChartEnvSetupDlgAddIn\ChartEnvSetupDlgAddIn\Setting_Common_Type_B.cpp
; File D:\git\src\IBK\IBK_DRFN\ProjSrc\SrcChartEx\ChartAddIn\ChartEnvSetupDlgAddIn\Include_AddIn_135914\I135914\_IString.h
; File D:\git\src\IBK\IBK_DRFN\ProjSrc\SrcChartEx\ChartAddIn\ChartEnvSetupDlgAddIn\ChartEnvSetupDlgAddIn\Setting_Common_Type_B.cpp
;	COMDAT ?Init_Composition_Group_SubGraphTitle@CSetting_Common_Type_B@@AAEXH@Z
_TEXT	SEGMENT
_szSubGraphTitle$ = -20					; size = 8
__$EHRec$ = -12						; size = 12
_strUIText$ = 8						; size = 4
_nSubGraphIndex$ = 8					; size = 4
?Init_Composition_Group_SubGraphTitle@CSetting_Common_Type_B@@AAEXH@Z PROC ; CSetting_Common_Type_B::Init_Composition_Group_SubGraphTitle, COMDAT
; _this$ = ecx

; 446  : {

  00000	55		 push	 ebp
  00001	8b ec		 mov	 ebp, esp
  00003	6a ff		 push	 -1
  00005	68 00 00 00 00	 push	 __ehhandler$?Init_Composition_Group_SubGraphTitle@CSetting_Common_Type_B@@AAEXH@Z
  0000a	64 a1 00 00 00
	00		 mov	 eax, DWORD PTR fs:0
  00010	50		 push	 eax
  00011	83 ec 08	 sub	 esp, 8
  00014	53		 push	 ebx
  00015	56		 push	 esi
  00016	57		 push	 edi
  00017	a1 00 00 00 00	 mov	 eax, DWORD PTR ___security_cookie
  0001c	33 c5		 xor	 eax, ebp
  0001e	50		 push	 eax
  0001f	8d 45 f4	 lea	 eax, DWORD PTR __$EHRec$[ebp]
  00022	64 a3 00 00 00
	00		 mov	 DWORD PTR fs:0, eax
  00028	8b d9		 mov	 ebx, ecx

; 447  : 	if( nSubGraphIndex < 0) return;

  0002a	8b 55 08	 mov	 edx, DWORD PTR _nSubGraphIndex$[ebp]
  0002d	85 d2		 test	 edx, edx
  0002f	0f 88 a0 00 00
	00		 js	 $LN20@Init_Compo

; 450  : 	ILPCSTR szSubGraphTitle = m_pIGraphInfo->GetSubGraphTitleString( nSubGraphIndex);

  00035	8b 8b c4 00 00
	00		 mov	 ecx, DWORD PTR [ebx+196]
  0003b	52		 push	 edx
  0003c	8b 01		 mov	 eax, DWORD PTR [ecx]
  0003e	ff 50 48	 call	 DWORD PTR [eax+72]
; File D:\git\src\IBK\IBK_DRFN\ProjSrc\SrcChartEx\ChartAddIn\ChartEnvSetupDlgAddIn\Include_AddIn_135914\I135914\_IString.h

; 39   : 		m_pIStrData = p_pIString;	// Do not AddRef(). Because It must be Return Value.

  00041	8b f0		 mov	 esi, eax
  00043	89 75 f0	 mov	 DWORD PTR _szSubGraphTitle$[ebp+4], esi

; 40   : 		if( m_pIStrData) m_szData = m_pIStrData->GetData();

  00046	85 f6		 test	 esi, esi
  00048	74 0b		 je	 SHORT $LN8@Init_Compo
  0004a	8b 16		 mov	 edx, DWORD PTR [esi]
  0004c	8b ce		 mov	 ecx, esi
  0004e	ff 52 10	 call	 DWORD PTR [edx+16]
  00051	8b f8		 mov	 edi, eax
  00053	eb 02		 jmp	 SHORT $LN24@Init_Compo
$LN8@Init_Compo:

; 41   : 		else m_szData = NULL;

  00055	33 ff		 xor	 edi, edi
$LN24@Init_Compo:
; File D:\git\src\IBK\IBK_DRFN\ProjSrc\SrcChartEx\ChartAddIn\ChartEnvSetupDlgAddIn\ChartEnvSetupDlgAddIn\Setting_Common_Type_B.cpp

; 450  : 	ILPCSTR szSubGraphTitle = m_pIGraphInfo->GetSubGraphTitleString( nSubGraphIndex);

  00057	89 7d ec	 mov	 DWORD PTR _szSubGraphTitle$[ebp], edi

; 454  : 	CString strUIText = _MTOL1_N( szSubGraphTitle); 

  0005a	6a 01		 push	 1
  0005c	57		 push	 edi
  0005d	6a 01		 push	 1
  0005f	ff b3 d8 00 00
	00		 push	 DWORD PTR [ebx+216]
  00065	b9 00 00 00 00	 mov	 ecx, OFFSET ?g_iMetaTable@@3VIMetaTable@@A ; g_iMetaTable
  0006a	c7 45 fc 00 00
	00 00		 mov	 DWORD PTR __$EHRec$[ebp+8], 0
  00071	e8 00 00 00 00	 call	 ?GetLanguageText@IMetaTable@@QAEPBDPAUHWND__@@W4E_CODEPAGE@1@PBDH@Z ; IMetaTable::GetLanguageText
  00076	50		 push	 eax
  00077	8d 4d 08	 lea	 ecx, DWORD PTR _strUIText$[ebp]
  0007a	ff 15 00 00 00
	00		 call	 DWORD PTR __imp_??0?$CStringT@DV?$StrTraitMFC_DLL@DV?$ChTraitsCRT@D@ATL@@@@@ATL@@QAE@PBD@Z
; File C:\Program Files (x86)\Microsoft Visual Studio\2019\Community\VC\Tools\MSVC\14.29.30133\atlmfc\include\atlsimpstr.h

; 519  : 		return( GetData()->nDataLength );

  00080	8b 45 08	 mov	 eax, DWORD PTR _strUIText$[ebp]
; File D:\git\src\IBK\IBK_DRFN\ProjSrc\SrcChartEx\ChartAddIn\ChartEnvSetupDlgAddIn\ChartEnvSetupDlgAddIn\Setting_Common_Type_B.cpp

; 454  : 	CString strUIText = _MTOL1_N( szSubGraphTitle); 

  00083	c6 45 fc 01	 mov	 BYTE PTR __$EHRec$[ebp+8], 1
; File C:\Program Files (x86)\Microsoft Visual Studio\2019\Community\VC\Tools\MSVC\14.29.30133\atlmfc\include\atlsimpstr.h

; 533  : 		return( GetLength() == 0 );

  00087	83 78 f4 00	 cmp	 DWORD PTR [eax-12], 0
; File D:\git\src\IBK\IBK_DRFN\ProjSrc\SrcChartEx\ChartAddIn\ChartEnvSetupDlgAddIn\ChartEnvSetupDlgAddIn\Setting_Common_Type_B.cpp

; 455  : 	if( strUIText.IsEmpty()) strUIText = _MTOL3( szSubGraphTitle);

  0008b	75 22		 jne	 SHORT $LN3@Init_Compo
  0008d	6a 00		 push	 0
  0008f	57		 push	 edi
  00090	6a 03		 push	 3
  00092	ff b3 d8 00 00
	00		 push	 DWORD PTR [ebx+216]
  00098	b9 00 00 00 00	 mov	 ecx, OFFSET ?g_iMetaTable@@3VIMetaTable@@A ; g_iMetaTable
  0009d	e8 00 00 00 00	 call	 ?GetLanguageText@IMetaTable@@QAEPBDPAUHWND__@@W4E_CODEPAGE@1@PBDH@Z ; IMetaTable::GetLanguageText
  000a2	50		 push	 eax
  000a3	8d 4d 08	 lea	 ecx, DWORD PTR _strUIText$[ebp]
  000a6	ff 15 00 00 00
	00		 call	 DWORD PTR __imp_??4?$CStringT@DV?$StrTraitMFC_DLL@DV?$ChTraitsCRT@D@ATL@@@@@ATL@@QAEAAV01@PBD@Z
  000ac	8b 45 08	 mov	 eax, DWORD PTR _strUIText$[ebp]
$LN3@Init_Compo:

; 456  : 
; 457  : 	m_edtCompositionTitleData.SetWindowText( strUIText);

  000af	50		 push	 eax
  000b0	8d 8b 40 0f 00
	00		 lea	 ecx, DWORD PTR [ebx+3904]
  000b6	e8 00 00 00 00	 call	 ?SetWindowTextA@CWnd@@QAEXPBD@Z ; CWnd::SetWindowTextA

; 459  : }

  000bb	8d 4d 08	 lea	 ecx, DWORD PTR _strUIText$[ebp]
  000be	ff 15 00 00 00
	00		 call	 DWORD PTR __imp_??1?$CStringT@DV?$StrTraitMFC_DLL@DV?$ChTraitsCRT@D@ATL@@@@@ATL@@QAE@XZ
; File D:\git\src\IBK\IBK_DRFN\ProjSrc\SrcChartEx\ChartAddIn\ChartEnvSetupDlgAddIn\Include_AddIn_135914\I135914\_IString.h

; 44   : 	{

  000c4	c7 45 fc 02 00
	00 00		 mov	 DWORD PTR __$EHRec$[ebp+8], 2

; 45   : 		if( m_pIStrData)

  000cb	85 f6		 test	 esi, esi
  000cd	74 06		 je	 SHORT $LN20@Init_Compo

; 46   : 		{
; 47   : 			m_pIStrData->Release();

  000cf	8b 06		 mov	 eax, DWORD PTR [esi]
  000d1	56		 push	 esi
  000d2	ff 50 08	 call	 DWORD PTR [eax+8]
$LN20@Init_Compo:
; File D:\git\src\IBK\IBK_DRFN\ProjSrc\SrcChartEx\ChartAddIn\ChartEnvSetupDlgAddIn\ChartEnvSetupDlgAddIn\Setting_Common_Type_B.cpp

; 459  : }

  000d5	8b 4d f4	 mov	 ecx, DWORD PTR __$EHRec$[ebp]
  000d8	64 89 0d 00 00
	00 00		 mov	 DWORD PTR fs:0, ecx
  000df	59		 pop	 ecx
  000e0	5f		 pop	 edi
  000e1	5e		 pop	 esi
  000e2	5b		 pop	 ebx
  000e3	8b e5		 mov	 esp, ebp
  000e5	5d		 pop	 ebp
  000e6	c2 04 00	 ret	 4
_TEXT	ENDS
;	COMDAT text$x
text$x	SEGMENT
__unwindfunclet$?Init_Composition_Group_SubGraphTitle@CSetting_Common_Type_B@@AAEXH@Z$0:
  00000	8d 4d ec	 lea	 ecx, DWORD PTR _szSubGraphTitle$[ebp]
  00003	e9 00 00 00 00	 jmp	 ??1ILPCSTR135914@@QAE@XZ ; ILPCSTR135914::~ILPCSTR135914
__unwindfunclet$?Init_Composition_Group_SubGraphTitle@CSetting_Common_Type_B@@AAEXH@Z$1:
  00008	8d 4d 08	 lea	 ecx, DWORD PTR _strUIText$[ebp]
  0000b	ff 25 00 00 00
	00		 jmp	 DWORD PTR __imp_??1?$CStringT@DV?$StrTraitMFC_DLL@DV?$ChTraitsCRT@D@ATL@@@@@ATL@@QAE@XZ
  00011	cc		 int	 3
  00012	cc		 int	 3
  00013	cc		 int	 3
  00014	cc		 int	 3
  00015	cc		 int	 3
__ehhandler$?Init_Composition_Group_SubGraphTitle@CSetting_Common_Type_B@@AAEXH@Z:
  00016	90		 npad	 1
  00017	90		 npad	 1
  00018	8b 54 24 08	 mov	 edx, DWORD PTR [esp+8]
  0001c	8d 42 0c	 lea	 eax, DWORD PTR [edx+12]
  0001f	8b 4a e8	 mov	 ecx, DWORD PTR [edx-24]
  00022	33 c8		 xor	 ecx, eax
  00024	e8 00 00 00 00	 call	 @__security_check_cookie@4
  00029	b8 00 00 00 00	 mov	 eax, OFFSET __ehfuncinfo$?Init_Composition_Group_SubGraphTitle@CSetting_Common_Type_B@@AAEXH@Z
  0002e	e9 00 00 00 00	 jmp	 ___CxxFrameHandler3
text$x	ENDS
?Init_Composition_Group_SubGraphTitle@CSetting_Common_Type_B@@AAEXH@Z ENDP ; CSetting_Common_Type_B::Init_Composition_Group_SubGraphTitle
; Function compile flags: /Ogtp
; File D:\git\src\IBK\IBK_DRFN\ProjSrc\SrcChartEx\ChartAddIn\ChartEnvSetupDlgAddIn\ChartEnvSetupDlgAddIn\Setting_Common_Type_B.cpp
; File C:\Program Files (x86)\Microsoft Visual Studio\2019\Community\VC\Tools\MSVC\14.29.30133\atlmfc\include\afxcmn.inl
; File D:\git\src\IBK\IBK_DRFN\ProjSrc\SrcChartEx\ChartAddIn\ChartEnvSetupDlgAddIn\Include_AddIn_135914\I135914\_IString.h
; File D:\git\src\IBK\IBK_DRFN\ProjSrc\SrcChartEx\ChartAddIn\ChartEnvSetupDlgAddIn\ChartEnvSetupDlgAddIn\Setting_Common_Type_B.cpp
; File D:\git\src\IBK\IBK_DRFN\ProjSrc\SrcChartEx\ChartAddIn\ChartEnvSetupDlgAddIn\Include_AddIn_135914\I135914\_IString.h
; File D:\git\src\IBK\IBK_DRFN\ProjSrc\SrcChartEx\ChartAddIn\ChartEnvSetupDlgAddIn\ChartEnvSetupDlgAddIn\Setting_Common_Type_B.cpp
; File D:\git\src\IBK\IBK_DRFN\ProjSrc\SrcChartEx\ChartAddIn\ChartEnvSetupDlgAddIn\Include_AddIn_135914\I135914\_IString.h
; File D:\git\src\IBK\IBK_DRFN\ProjSrc\SrcChartEx\ChartAddIn\ChartEnvSetupDlgAddIn\ChartEnvSetupDlgAddIn\Setting_Common_Type_B.cpp
; File C:\Program Files (x86)\Microsoft Visual Studio\2019\Community\VC\Tools\MSVC\14.29.30133\atlmfc\include\afxcmn.inl
; File D:\git\src\IBK\IBK_DRFN\ProjSrc\SrcChartEx\ChartAddIn\ChartEnvSetupDlgAddIn\ChartEnvSetupDlgAddIn\Setting_Common_Type_B.cpp
; File D:\git\src\IBK\IBK_DRFN\ProjSrc\SrcChartEx\ChartAddIn\ChartEnvSetupDlgAddIn\Include_AddIn_135914\I135914\_IString.h
; File D:\git\src\IBK\IBK_DRFN\ProjSrc\SrcChartEx\ChartAddIn\ChartEnvSetupDlgAddIn\ChartEnvSetupDlgAddIn\Setting_Common_Type_B.cpp
;	COMDAT ?Init_Composition_Group_SubGraphItem@CSetting_Common_Type_B@@AAEXXZ
_TEXT	SEGMENT
_szSubGraphName$ = -36					; size = 8
_this$1$ = -28						; size = 4
_nCount$1$ = -24					; size = 4
_bShowFlag$ = -20					; size = 4
_strUIText$ = -16					; size = 4
__$EHRec$ = -12						; size = 12
?Init_Composition_Group_SubGraphItem@CSetting_Common_Type_B@@AAEXXZ PROC ; CSetting_Common_Type_B::Init_Composition_Group_SubGraphItem, COMDAT
; _this$ = ecx

; 419  : {

  00000	55		 push	 ebp
  00001	8b ec		 mov	 ebp, esp
  00003	6a ff		 push	 -1
  00005	68 00 00 00 00	 push	 __ehhandler$?Init_Composition_Group_SubGraphItem@CSetting_Common_Type_B@@AAEXXZ
  0000a	64 a1 00 00 00
	00		 mov	 eax, DWORD PTR fs:0
  00010	50		 push	 eax
  00011	83 ec 18	 sub	 esp, 24			; 00000018H
  00014	53		 push	 ebx
  00015	56		 push	 esi
  00016	57		 push	 edi
  00017	a1 00 00 00 00	 mov	 eax, DWORD PTR ___security_cookie
  0001c	33 c5		 xor	 eax, ebp
  0001e	50		 push	 eax
  0001f	8d 45 f4	 lea	 eax, DWORD PTR __$EHRec$[ebp]
  00022	64 a3 00 00 00
	00		 mov	 DWORD PTR fs:0, eax
  00028	8b f1		 mov	 esi, ecx
  0002a	89 75 e4	 mov	 DWORD PTR _this$1$[ebp], esi
; File C:\Program Files (x86)\Microsoft Visual Studio\2019\Community\VC\Tools\MSVC\14.29.30133\atlmfc\include\afxcmn.inl

; 171  : 	{ ASSERT(::IsWindow(m_hWnd)); return (BOOL) ::SendMessage(m_hWnd, LVM_DELETEALLITEMS, 0, 0L); }

  0002d	6a 00		 push	 0
  0002f	6a 00		 push	 0
  00031	68 09 10 00 00	 push	 4105			; 00001009H
  00036	ff b6 f8 11 00
	00		 push	 DWORD PTR [esi+4600]
  0003c	ff 15 00 00 00
	00		 call	 DWORD PTR __imp__SendMessageA@16
; File D:\git\src\IBK\IBK_DRFN\ProjSrc\SrcChartEx\ChartAddIn\ChartEnvSetupDlgAddIn\Include_AddIn_135914\I135914\_IString.h

; 39   : 		m_pIStrData = p_pIString;	// Do not AddRef(). Because It must be Return Value.

  00042	33 ff		 xor	 edi, edi
; File D:\git\src\IBK\IBK_DRFN\ProjSrc\SrcChartEx\ChartAddIn\ChartEnvSetupDlgAddIn\ChartEnvSetupDlgAddIn\Setting_Common_Type_B.cpp

; 423  : 	BOOL bShowFlag = FALSE;

  00044	c7 45 ec 00 00
	00 00		 mov	 DWORD PTR _bShowFlag$[ebp], 0
; File D:\git\src\IBK\IBK_DRFN\ProjSrc\SrcChartEx\ChartAddIn\ChartEnvSetupDlgAddIn\Include_AddIn_135914\I135914\_IString.h

; 39   : 		m_pIStrData = p_pIString;	// Do not AddRef(). Because It must be Return Value.

  0004b	89 7d e0	 mov	 DWORD PTR _szSubGraphName$[ebp+4], edi

; 40   : 		if( m_pIStrData) m_szData = m_pIStrData->GetData();
; 41   : 		else m_szData = NULL;

  0004e	89 7d dc	 mov	 DWORD PTR _szSubGraphName$[ebp], edi
; File D:\git\src\IBK\IBK_DRFN\ProjSrc\SrcChartEx\ChartAddIn\ChartEnvSetupDlgAddIn\ChartEnvSetupDlgAddIn\Setting_Common_Type_B.cpp

; 425  : 	int nCount = m_pIGraphInfo->GetSubGraphCount();

  00051	8b 8e c4 00 00
	00		 mov	 ecx, DWORD PTR [esi+196]
  00057	89 7d fc	 mov	 DWORD PTR __$EHRec$[ebp+8], edi
  0005a	8b 01		 mov	 eax, DWORD PTR [ecx]
  0005c	ff 50 2c	 call	 DWORD PTR [eax+44]

; 426  : // 2008.01.25 by LYH >>
; 427  : 	CString strUIText;

  0005f	8d 4d f0	 lea	 ecx, DWORD PTR _strUIText$[ebp]
  00062	89 45 e8	 mov	 DWORD PTR _nCount$1$[ebp], eax
  00065	ff 15 00 00 00
	00		 call	 DWORD PTR __imp_??0?$CStringT@DV?$StrTraitMFC_DLL@DV?$ChTraitsCRT@D@ATL@@@@@ATL@@QAE@XZ
  0006b	33 db		 xor	 ebx, ebx
  0006d	c6 45 fc 01	 mov	 BYTE PTR __$EHRec$[ebp+8], 1

; 428  : // 2008.01.25 by LYH <<
; 429  : 	
; 430  : 	for( int nItem = 0 ; nItem < nCount; nItem++ )

  00071	39 5d e8	 cmp	 DWORD PTR _nCount$1$[ebp], ebx
  00074	0f 8e 99 00 00
	00		 jle	 $LN3@Init_Compo
  0007a	66 0f 1f 44 00
	00		 npad	 6
$LL4@Init_Compo:

; 431  : 	{
; 432  : 		szSubGraphName = m_pIGraphInfo->GetSubGraphNameString( nItem);

  00080	8b 8e c4 00 00
	00		 mov	 ecx, DWORD PTR [esi+196]
  00086	53		 push	 ebx
  00087	8b 01		 mov	 eax, DWORD PTR [ecx]
  00089	ff 50 3c	 call	 DWORD PTR [eax+60]
  0008c	8b f0		 mov	 esi, eax
; File D:\git\src\IBK\IBK_DRFN\ProjSrc\SrcChartEx\ChartAddIn\ChartEnvSetupDlgAddIn\Include_AddIn_135914\I135914\_IString.h

; 67   : 		if( m_pIStrData) m_pIStrData->Release();

  0008e	85 ff		 test	 edi, edi
  00090	74 06		 je	 SHORT $LN15@Init_Compo
  00092	8b 07		 mov	 eax, DWORD PTR [edi]
  00094	57		 push	 edi
  00095	ff 50 08	 call	 DWORD PTR [eax+8]
$LN15@Init_Compo:

; 68   : 		m_pIStrData = stringSrc;	// Do not AddRef(). Because It must be Return Value.

  00098	8b fe		 mov	 edi, esi
  0009a	89 7d e0	 mov	 DWORD PTR _szSubGraphName$[ebp+4], edi
  0009d	85 f6		 test	 esi, esi

; 69   : 		if( m_pIStrData) m_szData = m_pIStrData->GetData();

  0009f	74 09		 je	 SHORT $LN16@Init_Compo
  000a1	8b 06		 mov	 eax, DWORD PTR [esi]
  000a3	8b ce		 mov	 ecx, esi
  000a5	ff 50 10	 call	 DWORD PTR [eax+16]
  000a8	eb 02		 jmp	 SHORT $LN32@Init_Compo
$LN16@Init_Compo:

; 70   : 		else m_szData = NULL;

  000aa	33 c0		 xor	 eax, eax
$LN32@Init_Compo:
; File D:\git\src\IBK\IBK_DRFN\ProjSrc\SrcChartEx\ChartAddIn\ChartEnvSetupDlgAddIn\ChartEnvSetupDlgAddIn\Setting_Common_Type_B.cpp

; 435  : 		strUIText = _MTOL3( szSubGraphName);

  000ac	8b 75 e4	 mov	 esi, DWORD PTR _this$1$[ebp]
  000af	b9 00 00 00 00	 mov	 ecx, OFFSET ?g_iMetaTable@@3VIMetaTable@@A ; g_iMetaTable
  000b4	6a 00		 push	 0
  000b6	50		 push	 eax
  000b7	6a 03		 push	 3
  000b9	ff b6 d8 00 00
	00		 push	 DWORD PTR [esi+216]
  000bf	89 45 dc	 mov	 DWORD PTR _szSubGraphName$[ebp], eax
  000c2	e8 00 00 00 00	 call	 ?GetLanguageText@IMetaTable@@QAEPBDPAUHWND__@@W4E_CODEPAGE@1@PBDH@Z ; IMetaTable::GetLanguageText
  000c7	50		 push	 eax
  000c8	8d 4d f0	 lea	 ecx, DWORD PTR _strUIText$[ebp]
  000cb	ff 15 00 00 00
	00		 call	 DWORD PTR __imp_??4?$CStringT@DV?$StrTraitMFC_DLL@DV?$ChTraitsCRT@D@ATL@@@@@ATL@@QAEAAV01@PBD@Z
; File C:\Program Files (x86)\Microsoft Visual Studio\2019\Community\VC\Tools\MSVC\14.29.30133\atlmfc\include\afxcmn.inl

; 165  : 	{ ASSERT(::IsWindow(m_hWnd)); return InsertItem(LVIF_TEXT, nItem, lpszItem, 0, 0, 0, 0); }

  000d1	6a 00		 push	 0
  000d3	6a 00		 push	 0
  000d5	6a 00		 push	 0
  000d7	6a 00		 push	 0
  000d9	ff 75 f0	 push	 DWORD PTR _strUIText$[ebp]
  000dc	8d 8e d8 11 00
	00		 lea	 ecx, DWORD PTR [esi+4568]
  000e2	53		 push	 ebx
  000e3	6a 01		 push	 1
  000e5	e8 00 00 00 00	 call	 ?InsertItem@CListCtrl@@QAEHIHPBDIIHJ@Z ; CListCtrl::InsertItem
; File D:\git\src\IBK\IBK_DRFN\ProjSrc\SrcChartEx\ChartAddIn\ChartEnvSetupDlgAddIn\ChartEnvSetupDlgAddIn\Setting_Common_Type_B.cpp

; 439  : 		m_pIGraphInfo->GetSubGraphShowFlag( nItem, bShowFlag);

  000ea	8b 8e c4 00 00
	00		 mov	 ecx, DWORD PTR [esi+196]
  000f0	8d 55 ec	 lea	 edx, DWORD PTR _bShowFlag$[ebp]
  000f3	52		 push	 edx
  000f4	53		 push	 ebx
  000f5	8b 01		 mov	 eax, DWORD PTR [ecx]
  000f7	ff 50 34	 call	 DWORD PTR [eax+52]

; 440  : 		m_lstComposition.SetCheck( nItem, bShowFlag);

  000fa	ff 75 ec	 push	 DWORD PTR _bShowFlag$[ebp]
  000fd	8d 8e d8 11 00
	00		 lea	 ecx, DWORD PTR [esi+4568]
  00103	53		 push	 ebx
  00104	e8 00 00 00 00	 call	 ?SetCheck@CListCtrl@@QAEHHH@Z ; CListCtrl::SetCheck
  00109	43		 inc	 ebx
  0010a	3b 5d e8	 cmp	 ebx, DWORD PTR _nCount$1$[ebp]
  0010d	0f 8c 6d ff ff
	ff		 jl	 $LL4@Init_Compo
$LN3@Init_Compo:

; 442  : }

  00113	8d 4d f0	 lea	 ecx, DWORD PTR _strUIText$[ebp]
  00116	ff 15 00 00 00
	00		 call	 DWORD PTR __imp_??1?$CStringT@DV?$StrTraitMFC_DLL@DV?$ChTraitsCRT@D@ATL@@@@@ATL@@QAE@XZ
; File D:\git\src\IBK\IBK_DRFN\ProjSrc\SrcChartEx\ChartAddIn\ChartEnvSetupDlgAddIn\Include_AddIn_135914\I135914\_IString.h

; 44   : 	{

  0011c	c7 45 fc 02 00
	00 00		 mov	 DWORD PTR __$EHRec$[ebp+8], 2

; 45   : 		if( m_pIStrData)

  00123	85 ff		 test	 edi, edi
  00125	74 06		 je	 SHORT $LN24@Init_Compo

; 46   : 		{
; 47   : 			m_pIStrData->Release();

  00127	8b 07		 mov	 eax, DWORD PTR [edi]
  00129	57		 push	 edi
  0012a	ff 50 08	 call	 DWORD PTR [eax+8]
$LN24@Init_Compo:
; File D:\git\src\IBK\IBK_DRFN\ProjSrc\SrcChartEx\ChartAddIn\ChartEnvSetupDlgAddIn\ChartEnvSetupDlgAddIn\Setting_Common_Type_B.cpp

; 442  : }

  0012d	8b 4d f4	 mov	 ecx, DWORD PTR __$EHRec$[ebp]
  00130	64 89 0d 00 00
	00 00		 mov	 DWORD PTR fs:0, ecx
  00137	59		 pop	 ecx
  00138	5f		 pop	 edi
  00139	5e		 pop	 esi
  0013a	5b		 pop	 ebx
  0013b	8b e5		 mov	 esp, ebp
  0013d	5d		 pop	 ebp
  0013e	c3		 ret	 0
_TEXT	ENDS
;	COMDAT text$x
text$x	SEGMENT
__unwindfunclet$?Init_Composition_Group_SubGraphItem@CSetting_Common_Type_B@@AAEXXZ$0:
  00000	8d 4d dc	 lea	 ecx, DWORD PTR _szSubGraphName$[ebp]
  00003	e9 00 00 00 00	 jmp	 ??1ILPCSTR135914@@QAE@XZ ; ILPCSTR135914::~ILPCSTR135914
__unwindfunclet$?Init_Composition_Group_SubGraphItem@CSetting_Common_Type_B@@AAEXXZ$1:
  00008	8d 4d f0	 lea	 ecx, DWORD PTR _strUIText$[ebp]
  0000b	ff 25 00 00 00
	00		 jmp	 DWORD PTR __imp_??1?$CStringT@DV?$StrTraitMFC_DLL@DV?$ChTraitsCRT@D@ATL@@@@@ATL@@QAE@XZ
  00011	cc		 int	 3
  00012	cc		 int	 3
  00013	cc		 int	 3
  00014	cc		 int	 3
  00015	cc		 int	 3
__ehhandler$?Init_Composition_Group_SubGraphItem@CSetting_Common_Type_B@@AAEXXZ:
  00016	90		 npad	 1
  00017	90		 npad	 1
  00018	8b 54 24 08	 mov	 edx, DWORD PTR [esp+8]
  0001c	8d 42 0c	 lea	 eax, DWORD PTR [edx+12]
  0001f	8b 4a d8	 mov	 ecx, DWORD PTR [edx-40]
  00022	33 c8		 xor	 ecx, eax
  00024	e8 00 00 00 00	 call	 @__security_check_cookie@4
  00029	b8 00 00 00 00	 mov	 eax, OFFSET __ehfuncinfo$?Init_Composition_Group_SubGraphItem@CSetting_Common_Type_B@@AAEXXZ
  0002e	e9 00 00 00 00	 jmp	 ___CxxFrameHandler3
text$x	ENDS
?Init_Composition_Group_SubGraphItem@CSetting_Common_Type_B@@AAEXXZ ENDP ; CSetting_Common_Type_B::Init_Composition_Group_SubGraphItem
; Function compile flags: /Ogtp
; File D:\git\src\IBK\IBK_DRFN\ProjSrc\SrcChartEx\ChartAddIn\ChartEnvSetupDlgAddIn\ChartEnvSetupDlgAddIn\Setting_Common_Type_B.cpp
;	COMDAT ?UseBaseLineGroup@CSetting_Common_Type_B@@AAEXH@Z
_TEXT	SEGMENT
$T1 = 8							; size = 4
_bUseBaseLine$ = 8					; size = 4
?UseBaseLineGroup@CSetting_Common_Type_B@@AAEXH@Z PROC	; CSetting_Common_Type_B::UseBaseLineGroup, COMDAT
; _this$ = ecx

; 355  : {

  00000	55		 push	 ebp
  00001	8b ec		 mov	 ebp, esp

; 356  : 	m_bUseBaseLine = bUseBaseLine;

  00003	8b 45 08	 mov	 eax, DWORD PTR _bUseBaseLine$[ebp]
  00006	53		 push	 ebx
  00007	56		 push	 esi
  00008	8b f1		 mov	 esi, ecx
  0000a	57		 push	 edi
  0000b	89 86 70 12 00
	00		 mov	 DWORD PTR [esi+4720], eax

; 357  : 
; 358  : 	if( bUseBaseLine == TRUE )

  00011	83 f8 01	 cmp	 eax, 1
  00014	75 6c		 jne	 SHORT $LN2@UseBaseLin

; 359  : 	{
; 360  : 		GetDlgItem( IDC_HORIZONTAL )->ShowWindow( SW_SHOW );

  00016	6a 05		 push	 5
  00018	68 e8 03 00 00	 push	 1000			; 000003e8H
  0001d	e8 00 00 00 00	 call	 ?GetDlgItem@CWnd@@QBEPAV1@H@Z ; CWnd::GetDlgItem
  00022	8b c8		 mov	 ecx, eax
  00024	e8 00 00 00 00	 call	 ?ShowWindow@CWnd@@QAEHH@Z ; CWnd::ShowWindow

; 361  : 		GetDlgItem( IDC_HORIZONTAL_LIST )->ShowWindow( SW_SHOW );

  00029	6a 05		 push	 5
  0002b	68 f4 03 00 00	 push	 1012			; 000003f4H
  00030	8b ce		 mov	 ecx, esi
  00032	e8 00 00 00 00	 call	 ?GetDlgItem@CWnd@@QBEPAV1@H@Z ; CWnd::GetDlgItem
  00037	8b c8		 mov	 ecx, eax
  00039	e8 00 00 00 00	 call	 ?ShowWindow@CWnd@@QAEHH@Z ; CWnd::ShowWindow

; 362  : 		GetDlgItem( IDC_SPIN )->ShowWindow( SW_SHOW );

  0003e	6a 05		 push	 5
  00040	68 fa 03 00 00	 push	 1018			; 000003faH
  00045	8b ce		 mov	 ecx, esi
  00047	e8 00 00 00 00	 call	 ?GetDlgItem@CWnd@@QBEPAV1@H@Z ; CWnd::GetDlgItem
  0004c	8b c8		 mov	 ecx, eax
  0004e	e8 00 00 00 00	 call	 ?ShowWindow@CWnd@@QAEHH@Z ; CWnd::ShowWindow

; 363  : 		GetDlgItem( IDC_INSERT )->ShowWindow( SW_SHOW );

  00053	6a 05		 push	 5
  00055	68 ef 03 00 00	 push	 1007			; 000003efH
  0005a	8b ce		 mov	 ecx, esi
  0005c	e8 00 00 00 00	 call	 ?GetDlgItem@CWnd@@QBEPAV1@H@Z ; CWnd::GetDlgItem
  00061	8b c8		 mov	 ecx, eax
  00063	e8 00 00 00 00	 call	 ?ShowWindow@CWnd@@QAEHH@Z ; CWnd::ShowWindow

; 364  : 		GetDlgItem( IDC_DELETE )->ShowWindow( SW_SHOW );
; 365  : 		GetDlgItem( IDC_ALLDELETE )->ShowWindow( SW_SHOW );
; 366  : 		GetDlgItem( IDC_COLOR_BUTTON )->ShowWindow( SW_SHOW );
; 367  : 		GetDlgItem( IDC_BASELINE )->ShowWindow( SW_SHOW );

  00068	bf 05 00 00 00	 mov	 edi, 5
  0006d	8b ce		 mov	 ecx, esi
  0006f	68 f0 03 00 00	 push	 1008			; 000003f0H
  00074	8b de		 mov	 ebx, esi
  00076	89 7d 08	 mov	 DWORD PTR $T1[ebp], edi
  00079	e8 00 00 00 00	 call	 ?GetDlgItem@CWnd@@QBEPAV1@H@Z ; CWnd::GetDlgItem
  0007e	8b cf		 mov	 ecx, edi

; 368  : 	}

  00080	eb 67		 jmp	 SHORT $LN3@UseBaseLin
$LN2@UseBaseLin:

; 369  : 
; 370  : 	else
; 371  : 	{
; 372  : 		GetDlgItem( IDC_HORIZONTAL )->ShowWindow( SW_HIDE );

  00082	6a 00		 push	 0
  00084	68 e8 03 00 00	 push	 1000			; 000003e8H
  00089	e8 00 00 00 00	 call	 ?GetDlgItem@CWnd@@QBEPAV1@H@Z ; CWnd::GetDlgItem
  0008e	8b c8		 mov	 ecx, eax
  00090	e8 00 00 00 00	 call	 ?ShowWindow@CWnd@@QAEHH@Z ; CWnd::ShowWindow

; 373  : 		GetDlgItem( IDC_HORIZONTAL_LIST )->ShowWindow( SW_HIDE );

  00095	6a 00		 push	 0
  00097	68 f4 03 00 00	 push	 1012			; 000003f4H
  0009c	8b ce		 mov	 ecx, esi
  0009e	e8 00 00 00 00	 call	 ?GetDlgItem@CWnd@@QBEPAV1@H@Z ; CWnd::GetDlgItem
  000a3	8b c8		 mov	 ecx, eax
  000a5	e8 00 00 00 00	 call	 ?ShowWindow@CWnd@@QAEHH@Z ; CWnd::ShowWindow

; 374  : 		GetDlgItem( IDC_SPIN )->ShowWindow( SW_HIDE );

  000aa	6a 00		 push	 0
  000ac	68 fa 03 00 00	 push	 1018			; 000003faH
  000b1	8b ce		 mov	 ecx, esi
  000b3	e8 00 00 00 00	 call	 ?GetDlgItem@CWnd@@QBEPAV1@H@Z ; CWnd::GetDlgItem
  000b8	8b c8		 mov	 ecx, eax
  000ba	e8 00 00 00 00	 call	 ?ShowWindow@CWnd@@QAEHH@Z ; CWnd::ShowWindow

; 375  : 		GetDlgItem( IDC_INSERT )->ShowWindow( SW_HIDE );

  000bf	6a 00		 push	 0
  000c1	68 ef 03 00 00	 push	 1007			; 000003efH
  000c6	8b ce		 mov	 ecx, esi
  000c8	e8 00 00 00 00	 call	 ?GetDlgItem@CWnd@@QBEPAV1@H@Z ; CWnd::GetDlgItem
  000cd	8b c8		 mov	 ecx, eax
  000cf	e8 00 00 00 00	 call	 ?ShowWindow@CWnd@@QAEHH@Z ; CWnd::ShowWindow

; 376  : 		GetDlgItem( IDC_DELETE )->ShowWindow( SW_HIDE );
; 377  : 		GetDlgItem( IDC_ALLDELETE )->ShowWindow( SW_HIDE );
; 378  : 		GetDlgItem( IDC_COLOR_BUTTON )->ShowWindow( SW_HIDE );
; 379  : 		GetDlgItem( IDC_BASELINE )->ShowWindow( SW_HIDE );

  000d4	33 ff		 xor	 edi, edi
  000d6	8b ce		 mov	 ecx, esi
  000d8	68 f0 03 00 00	 push	 1008			; 000003f0H
  000dd	8b de		 mov	 ebx, esi
  000df	89 7d 08	 mov	 DWORD PTR $T1[ebp], edi
  000e2	e8 00 00 00 00	 call	 ?GetDlgItem@CWnd@@QBEPAV1@H@Z ; CWnd::GetDlgItem
  000e7	33 c9		 xor	 ecx, ecx
$LN3@UseBaseLin:

; 380  : 	}
; 381  : }

  000e9	51		 push	 ecx
  000ea	8b c8		 mov	 ecx, eax
  000ec	e8 00 00 00 00	 call	 ?ShowWindow@CWnd@@QAEHH@Z ; CWnd::ShowWindow
  000f1	68 f1 03 00 00	 push	 1009			; 000003f1H
  000f6	8b ce		 mov	 ecx, esi
  000f8	e8 00 00 00 00	 call	 ?GetDlgItem@CWnd@@QBEPAV1@H@Z ; CWnd::GetDlgItem
  000fd	ff 75 08	 push	 DWORD PTR $T1[ebp]
  00100	8b c8		 mov	 ecx, eax
  00102	e8 00 00 00 00	 call	 ?ShowWindow@CWnd@@QAEHH@Z ; CWnd::ShowWindow
  00107	68 0e 04 00 00	 push	 1038			; 0000040eH
  0010c	8b cb		 mov	 ecx, ebx
  0010e	e8 00 00 00 00	 call	 ?GetDlgItem@CWnd@@QBEPAV1@H@Z ; CWnd::GetDlgItem
  00113	57		 push	 edi
  00114	8b c8		 mov	 ecx, eax
  00116	e8 00 00 00 00	 call	 ?ShowWindow@CWnd@@QAEHH@Z ; CWnd::ShowWindow
  0011b	68 b8 17 00 00	 push	 6072			; 000017b8H
  00120	8b ce		 mov	 ecx, esi
  00122	e8 00 00 00 00	 call	 ?GetDlgItem@CWnd@@QBEPAV1@H@Z ; CWnd::GetDlgItem
  00127	57		 push	 edi
  00128	8b c8		 mov	 ecx, eax
