; Listing generated by Microsoft (R) Optimizing Compiler Version 19.29.30145.0 

	TITLE	D:\git\src\IBK\IBK_DRFN\#DRfn-CS\_Obj\ChartEnvSetupDlgAddIn\Setting_VolumeMA_Condition.obj
	.686P
	.XMM
	include listing.inc
	.model	flat

INCLUDELIB MSVCRT
INCLUDELIB OLDNAMES

PUBLIC	??_C@_01GBGANLPD@0@				; `string'
PUBLIC	??_C@_01HIHLOKLC@1@				; `string'
PUBLIC	??_C@_01FDFGLJHB@2@				; `string'
PUBLIC	??_C@_01EKENIIDA@3@				; `string'
PUBLIC	??_C@_01FAMBOPH@4@				; `string'
PUBLIC	??_C@_01BMBHCPLG@5@				; `string'
PUBLIC	??_C@_01DHDKHMHF@6@				; `string'
PUBLIC	??_C@_01COCBENDE@7@				; `string'
PUBLIC	??_C@_01KJLJFBPL@8@				; `string'
PUBLIC	??_C@_01LAKCGALK@9@				; `string'
PUBLIC	??_C@_02PKFBJPLJ@10@				; `string'
PUBLIC	??_C@_02ODEKKOPI@11@				; `string'
PUBLIC	??_C@_02MIGHPNDL@12@				; `string'
PUBLIC	??_C@_02NBHMMMHK@13@				; `string'
PUBLIC	??_C@_02JODNFKLN@14@				; `string'
PUBLIC	??_C@_02IHCGGLPM@15@				; `string'
PUBLIC	??_C@_02KMALDIDP@16@				; `string'
PUBLIC	??_C@_02LFBAAJHO@17@				; `string'
PUBLIC	??_C@_02DCIIBFLB@18@				; `string'
PUBLIC	??_C@_02CLJDCEPA@19@				; `string'
PUBLIC	??_C@_02PIBHCBOA@20@				; `string'
PUBLIC	??_C@_02OBAMBAKB@21@				; `string'
PUBLIC	??_C@_02MKCBEDGC@22@				; `string'
PUBLIC	??_C@_02NDDKHCCD@23@				; `string'
PUBLIC	??_C@_02JMHLOEOE@24@				; `string'
;	COMDAT ??_C@_02JMHLOEOE@24@
CONST	SEGMENT
??_C@_02JMHLOEOE@24@ DB '24', 00H			; `string'
CONST	ENDS
;	COMDAT ??_C@_02NDDKHCCD@23@
CONST	SEGMENT
??_C@_02NDDKHCCD@23@ DB '23', 00H			; `string'
CONST	ENDS
;	COMDAT ??_C@_02MKCBEDGC@22@
CONST	SEGMENT
??_C@_02MKCBEDGC@22@ DB '22', 00H			; `string'
CONST	ENDS
;	COMDAT ??_C@_02OBAMBAKB@21@
CONST	SEGMENT
??_C@_02OBAMBAKB@21@ DB '21', 00H			; `string'
CONST	ENDS
;	COMDAT ??_C@_02PIBHCBOA@20@
CONST	SEGMENT
??_C@_02PIBHCBOA@20@ DB '20', 00H			; `string'
CONST	ENDS
;	COMDAT ??_C@_02CLJDCEPA@19@
CONST	SEGMENT
??_C@_02CLJDCEPA@19@ DB '19', 00H			; `string'
CONST	ENDS
;	COMDAT ??_C@_02DCIIBFLB@18@
CONST	SEGMENT
??_C@_02DCIIBFLB@18@ DB '18', 00H			; `string'
CONST	ENDS
;	COMDAT ??_C@_02LFBAAJHO@17@
CONST	SEGMENT
??_C@_02LFBAAJHO@17@ DB '17', 00H			; `string'
CONST	ENDS
;	COMDAT ??_C@_02KMALDIDP@16@
CONST	SEGMENT
??_C@_02KMALDIDP@16@ DB '16', 00H			; `string'
CONST	ENDS
;	COMDAT ??_C@_02IHCGGLPM@15@
CONST	SEGMENT
??_C@_02IHCGGLPM@15@ DB '15', 00H			; `string'
CONST	ENDS
;	COMDAT ??_C@_02JODNFKLN@14@
CONST	SEGMENT
??_C@_02JODNFKLN@14@ DB '14', 00H			; `string'
CONST	ENDS
;	COMDAT ??_C@_02NBHMMMHK@13@
CONST	SEGMENT
??_C@_02NBHMMMHK@13@ DB '13', 00H			; `string'
CONST	ENDS
;	COMDAT ??_C@_02MIGHPNDL@12@
CONST	SEGMENT
??_C@_02MIGHPNDL@12@ DB '12', 00H			; `string'
CONST	ENDS
;	COMDAT ??_C@_02ODEKKOPI@11@
CONST	SEGMENT
??_C@_02ODEKKOPI@11@ DB '11', 00H			; `string'
CONST	ENDS
;	COMDAT ??_C@_02PKFBJPLJ@10@
CONST	SEGMENT
??_C@_02PKFBJPLJ@10@ DB '10', 00H			; `string'
CONST	ENDS
;	COMDAT ??_C@_01LAKCGALK@9@
CONST	SEGMENT
??_C@_01LAKCGALK@9@ DB '9', 00H				; `string'
CONST	ENDS
;	COMDAT ??_C@_01KJLJFBPL@8@
CONST	SEGMENT
??_C@_01KJLJFBPL@8@ DB '8', 00H				; `string'
CONST	ENDS
;	COMDAT ??_C@_01COCBENDE@7@
CONST	SEGMENT
??_C@_01COCBENDE@7@ DB '7', 00H				; `string'
CONST	ENDS
;	COMDAT ??_C@_01DHDKHMHF@6@
CONST	SEGMENT
??_C@_01DHDKHMHF@6@ DB '6', 00H				; `string'
CONST	ENDS
;	COMDAT ??_C@_01BMBHCPLG@5@
CONST	SEGMENT
??_C@_01BMBHCPLG@5@ DB '5', 00H				; `string'
CONST	ENDS
;	COMDAT ??_C@_01FAMBOPH@4@
CONST	SEGMENT
??_C@_01FAMBOPH@4@ DB '4', 00H				; `string'
CONST	ENDS
;	COMDAT ??_C@_01EKENIIDA@3@
CONST	SEGMENT
??_C@_01EKENIIDA@3@ DB '3', 00H				; `string'
CONST	ENDS
;	COMDAT ??_C@_01FDFGLJHB@2@
CONST	SEGMENT
??_C@_01FDFGLJHB@2@ DB '2', 00H				; `string'
CONST	ENDS
;	COMDAT ??_C@_01HIHLOKLC@1@
CONST	SEGMENT
??_C@_01HIHLOKLC@1@ DB '1', 00H				; `string'
CONST	ENDS
;	COMDAT ??_C@_01GBGANLPD@0@
CONST	SEGMENT
??_C@_01GBGANLPD@0@ DB '0', 00H				; `string'
CONST	ENDS
PUBLIC	?__empty_global_delete@@YAXPAX@Z		; __empty_global_delete
PUBLIC	?__empty_global_delete@@YAXPAXI@Z		; __empty_global_delete
PUBLIC	?Serialize@CObject@@UAEXAAVCArchive@@@Z		; CObject::Serialize
PUBLIC	?AssertValid@CObject@@UBEXXZ			; CObject::AssertValid
PUBLIC	?Dump@CObject@@UBEXAAVCDumpContext@@@Z		; CObject::Dump
PUBLIC	?DoDataExchange@CWnd@@MAEXPAVCDataExchange@@@Z	; CWnd::DoDataExchange
PUBLIC	?BeginModalState@CWnd@@UAEXXZ			; CWnd::BeginModalState
PUBLIC	?EndModalState@CWnd@@UAEXXZ			; CWnd::EndModalState
PUBLIC	?Create@CDialog@@UAEHIPAVCWnd@@@Z		; CDialog::Create
PUBLIC	??_GCButton@@UAEPAXI@Z				; CButton::`scalar deleting destructor'
PUBLIC	??_GCComboBox@@UAEPAXI@Z			; CComboBox::`scalar deleting destructor'
PUBLIC	??1CCommonDialog@@UAE@XZ			; CCommonDialog::~CCommonDialog
PUBLIC	??_GCCommonDialog@@UAEPAXI@Z			; CCommonDialog::`scalar deleting destructor'
PUBLIC	??1CColorDialog@@UAE@XZ				; CColorDialog::~CColorDialog
PUBLIC	??0CSetting_VolumeMA_Condition@@QAE@PAVCWnd@@@Z	; CSetting_VolumeMA_Condition::CSetting_VolumeMA_Condition
PUBLIC	??1CSetting_VolumeMA_Condition@@UAE@XZ		; CSetting_VolumeMA_Condition::~CSetting_VolumeMA_Condition
PUBLIC	?Initial@CSetting_VolumeMA_Condition@@UAEXPAUIGraphInfo135914@@@Z ; CSetting_VolumeMA_Condition::Initial
PUBLIC	?PreTranslateMessage@CSetting_VolumeMA_Condition@@UAEHPAUtagMSG@@@Z ; CSetting_VolumeMA_Condition::PreTranslateMessage
PUBLIC	?DoDataExchange@CSetting_VolumeMA_Condition@@MAEXPAVCDataExchange@@@Z ; CSetting_VolumeMA_Condition::DoDataExchange
PUBLIC	?GetCheckButton@CSetting_VolumeMA_Condition@@QAEPAVCButton@@H@Z ; CSetting_VolumeMA_Condition::GetCheckButton
PUBLIC	?GetEditCtrl@CSetting_VolumeMA_Condition@@QAEPAVCNumEdit@@H@Z ; CSetting_VolumeMA_Condition::GetEditCtrl
PUBLIC	?GetSpinCtrl@CSetting_VolumeMA_Condition@@QAEPAVCNumSpinCtrl@@H@Z ; CSetting_VolumeMA_Condition::GetSpinCtrl
PUBLIC	?GetColorButton@CSetting_VolumeMA_Condition@@QAEPAVCColorButton@@H@Z ; CSetting_VolumeMA_Condition::GetColorButton
PUBLIC	?SetDrawStyle@CSetting_VolumeMA_Condition@@QAEXHH@Z ; CSetting_VolumeMA_Condition::SetDrawStyle
PUBLIC	?SetLineThickness@CSetting_VolumeMA_Condition@@QAEXHH@Z ; CSetting_VolumeMA_Condition::SetLineThickness
PUBLIC	?SetLineColor@CSetting_VolumeMA_Condition@@QAEXHH@Z ; CSetting_VolumeMA_Condition::SetLineColor
PUBLIC	?GetDrawStyleCombo@CSetting_VolumeMA_Condition@@QAEPAVCBitmapItemComboBox@@H@Z ; CSetting_VolumeMA_Condition::GetDrawStyleCombo
PUBLIC	?GetThicknessCombo@CSetting_VolumeMA_Condition@@QAEPAVCBitmapItemComboBox@@H@Z ; CSetting_VolumeMA_Condition::GetThicknessCombo
PUBLIC	?GetCalcMethodCombo@CSetting_VolumeMA_Condition@@QAEPAVCComboBox@@H@Z ; CSetting_VolumeMA_Condition::GetCalcMethodCombo
PUBLIC	?GetSubGraphCount@CSetting_VolumeMA_Condition@@QAEHXZ ; CSetting_VolumeMA_Condition::GetSubGraphCount
PUBLIC	?SetSubGraphCount@CSetting_VolumeMA_Condition@@QAEXH@Z ; CSetting_VolumeMA_Condition::SetSubGraphCount
PUBLIC	?ShowHideSubGraph@CSetting_VolumeMA_Condition@@QAEXHH@Z ; CSetting_VolumeMA_Condition::ShowHideSubGraph
PUBLIC	?WhenAllSubGraphisHide@CSetting_VolumeMA_Condition@@QAEXH@Z ; CSetting_VolumeMA_Condition::WhenAllSubGraphisHide
PUBLIC	?OnInitDialog@CSetting_VolumeMA_Condition@@MAEHXZ ; CSetting_VolumeMA_Condition::OnInitDialog
PUBLIC	?OnColorButton0@CSetting_VolumeMA_Condition@@IAEXXZ ; CSetting_VolumeMA_Condition::OnColorButton0
PUBLIC	?OnColorButton1@CSetting_VolumeMA_Condition@@IAEXXZ ; CSetting_VolumeMA_Condition::OnColorButton1
PUBLIC	?OnColorButton2@CSetting_VolumeMA_Condition@@IAEXXZ ; CSetting_VolumeMA_Condition::OnColorButton2
PUBLIC	?OnColorButton3@CSetting_VolumeMA_Condition@@IAEXXZ ; CSetting_VolumeMA_Condition::OnColorButton3
PUBLIC	?OnColorButton4@CSetting_VolumeMA_Condition@@IAEXXZ ; CSetting_VolumeMA_Condition::OnColorButton4
PUBLIC	?OnColorButton5@CSetting_VolumeMA_Condition@@IAEXXZ ; CSetting_VolumeMA_Condition::OnColorButton5
PUBLIC	?OnColorButton6@CSetting_VolumeMA_Condition@@IAEXXZ ; CSetting_VolumeMA_Condition::OnColorButton6
PUBLIC	?OnColorButton7@CSetting_VolumeMA_Condition@@IAEXXZ ; CSetting_VolumeMA_Condition::OnColorButton7
PUBLIC	?OnColorButton8@CSetting_VolumeMA_Condition@@IAEXXZ ; CSetting_VolumeMA_Condition::OnColorButton8
PUBLIC	?OnColorButton9@CSetting_VolumeMA_Condition@@IAEXXZ ; CSetting_VolumeMA_Condition::OnColorButton9
PUBLIC	?OnCheckShowGraph0@CSetting_VolumeMA_Condition@@IAEXXZ ; CSetting_VolumeMA_Condition::OnCheckShowGraph0
PUBLIC	?OnCheckShowGraph1@CSetting_VolumeMA_Condition@@IAEXXZ ; CSetting_VolumeMA_Condition::OnCheckShowGraph1
PUBLIC	?OnCheckShowGraph2@CSetting_VolumeMA_Condition@@IAEXXZ ; CSetting_VolumeMA_Condition::OnCheckShowGraph2
PUBLIC	?OnCheckShowGraph3@CSetting_VolumeMA_Condition@@IAEXXZ ; CSetting_VolumeMA_Condition::OnCheckShowGraph3
PUBLIC	?OnCheckShowGraph4@CSetting_VolumeMA_Condition@@IAEXXZ ; CSetting_VolumeMA_Condition::OnCheckShowGraph4
PUBLIC	?OnCheckShowGraph5@CSetting_VolumeMA_Condition@@IAEXXZ ; CSetting_VolumeMA_Condition::OnCheckShowGraph5
PUBLIC	?OnCheckShowGraph6@CSetting_VolumeMA_Condition@@IAEXXZ ; CSetting_VolumeMA_Condition::OnCheckShowGraph6
PUBLIC	?OnCheckShowGraph7@CSetting_VolumeMA_Condition@@IAEXXZ ; CSetting_VolumeMA_Condition::OnCheckShowGraph7
PUBLIC	?OnCheckShowGraph8@CSetting_VolumeMA_Condition@@IAEXXZ ; CSetting_VolumeMA_Condition::OnCheckShowGraph8
PUBLIC	?OnCheckShowGraph9@CSetting_VolumeMA_Condition@@IAEXXZ ; CSetting_VolumeMA_Condition::OnCheckShowGraph9
PUBLIC	?OnSelchangeDrawstyle0@CSetting_VolumeMA_Condition@@IAEXXZ ; CSetting_VolumeMA_Condition::OnSelchangeDrawstyle0
PUBLIC	?OnSelchangeDrawstyle1@CSetting_VolumeMA_Condition@@IAEXXZ ; CSetting_VolumeMA_Condition::OnSelchangeDrawstyle1
PUBLIC	?OnSelchangeDrawstyle2@CSetting_VolumeMA_Condition@@IAEXXZ ; CSetting_VolumeMA_Condition::OnSelchangeDrawstyle2
PUBLIC	?OnSelchangeDrawstyle3@CSetting_VolumeMA_Condition@@IAEXXZ ; CSetting_VolumeMA_Condition::OnSelchangeDrawstyle3
PUBLIC	?OnSelchangeDrawstyle4@CSetting_VolumeMA_Condition@@IAEXXZ ; CSetting_VolumeMA_Condition::OnSelchangeDrawstyle4
PUBLIC	?OnSelchangeDrawstyle5@CSetting_VolumeMA_Condition@@IAEXXZ ; CSetting_VolumeMA_Condition::OnSelchangeDrawstyle5
PUBLIC	?OnSelchangeDrawstyle6@CSetting_VolumeMA_Condition@@IAEXXZ ; CSetting_VolumeMA_Condition::OnSelchangeDrawstyle6
PUBLIC	?OnSelchangeDrawstyle7@CSetting_VolumeMA_Condition@@IAEXXZ ; CSetting_VolumeMA_Condition::OnSelchangeDrawstyle7
PUBLIC	?OnSelchangeDrawstyle8@CSetting_VolumeMA_Condition@@IAEXXZ ; CSetting_VolumeMA_Condition::OnSelchangeDrawstyle8
PUBLIC	?OnSelchangeDrawstyle9@CSetting_VolumeMA_Condition@@IAEXXZ ; CSetting_VolumeMA_Condition::OnSelchangeDrawstyle9
PUBLIC	?OnSelchangeThickness0@CSetting_VolumeMA_Condition@@IAEXXZ ; CSetting_VolumeMA_Condition::OnSelchangeThickness0
PUBLIC	?OnSelchangeThickness1@CSetting_VolumeMA_Condition@@IAEXXZ ; CSetting_VolumeMA_Condition::OnSelchangeThickness1
PUBLIC	?OnSelchangeThickness2@CSetting_VolumeMA_Condition@@IAEXXZ ; CSetting_VolumeMA_Condition::OnSelchangeThickness2
PUBLIC	?OnSelchangeThickness3@CSetting_VolumeMA_Condition@@IAEXXZ ; CSetting_VolumeMA_Condition::OnSelchangeThickness3
PUBLIC	?OnSelchangeThickness4@CSetting_VolumeMA_Condition@@IAEXXZ ; CSetting_VolumeMA_Condition::OnSelchangeThickness4
PUBLIC	?OnSelchangeThickness5@CSetting_VolumeMA_Condition@@IAEXXZ ; CSetting_VolumeMA_Condition::OnSelchangeThickness5
PUBLIC	?OnSelchangeThickness6@CSetting_VolumeMA_Condition@@IAEXXZ ; CSetting_VolumeMA_Condition::OnSelchangeThickness6
PUBLIC	?OnSelchangeThickness7@CSetting_VolumeMA_Condition@@IAEXXZ ; CSetting_VolumeMA_Condition::OnSelchangeThickness7
PUBLIC	?OnSelchangeThickness8@CSetting_VolumeMA_Condition@@IAEXXZ ; CSetting_VolumeMA_Condition::OnSelchangeThickness8
PUBLIC	?OnSelchangeThickness9@CSetting_VolumeMA_Condition@@IAEXXZ ; CSetting_VolumeMA_Condition::OnSelchangeThickness9
PUBLIC	?GetThisMessageMap@CSetting_VolumeMA_Condition@@KGPBUAFX_MSGMAP@@XZ ; CSetting_VolumeMA_Condition::GetThisMessageMap
PUBLIC	?GetMessageMap@CSetting_VolumeMA_Condition@@MBEPBUAFX_MSGMAP@@XZ ; CSetting_VolumeMA_Condition::GetMessageMap
PUBLIC	??_GCSetting_VolumeMA_Condition@@UAEPAXI@Z	; CSetting_VolumeMA_Condition::`scalar deleting destructor'
PUBLIC	??_C@_00CNPNBAHC@@				; `string'
PUBLIC	??_7CButton@@6B@				; CButton::`vftable'
PUBLIC	??_7CComboBox@@6B@				; CComboBox::`vftable'
PUBLIC	??_7CCommonDialog@@6B@				; CCommonDialog::`vftable'
PUBLIC	??_R0?AVCObject@@@8				; CObject `RTTI Type Descriptor'
PUBLIC	??_R3CObject@@8					; CObject::`RTTI Class Hierarchy Descriptor'
PUBLIC	??_R2CObject@@8					; CObject::`RTTI Base Class Array'
PUBLIC	??_R1A@?0A@EA@CObject@@8			; CObject::`RTTI Base Class Descriptor at (0,-1,0,64)'
PUBLIC	??_R1A@?0A@EA@CWnd@@8				; CWnd::`RTTI Base Class Descriptor at (0,-1,0,64)'
PUBLIC	??_R0?AVCWnd@@@8				; CWnd `RTTI Type Descriptor'
PUBLIC	??_R3CWnd@@8					; CWnd::`RTTI Class Hierarchy Descriptor'
PUBLIC	??_R2CWnd@@8					; CWnd::`RTTI Base Class Array'
PUBLIC	??_R1A@?0A@EA@CCmdTarget@@8			; CCmdTarget::`RTTI Base Class Descriptor at (0,-1,0,64)'
PUBLIC	??_R0?AVCCmdTarget@@@8				; CCmdTarget `RTTI Type Descriptor'
PUBLIC	??_R3CCmdTarget@@8				; CCmdTarget::`RTTI Class Hierarchy Descriptor'
PUBLIC	??_R2CCmdTarget@@8				; CCmdTarget::`RTTI Base Class Array'
PUBLIC	??_R4CButton@@6B@				; CButton::`RTTI Complete Object Locator'
PUBLIC	??_R0?AVCButton@@@8				; CButton `RTTI Type Descriptor'
PUBLIC	??_R3CButton@@8					; CButton::`RTTI Class Hierarchy Descriptor'
PUBLIC	??_R2CButton@@8					; CButton::`RTTI Base Class Array'
PUBLIC	??_R1A@?0A@EA@CButton@@8			; CButton::`RTTI Base Class Descriptor at (0,-1,0,64)'
PUBLIC	??_R4CComboBox@@6B@				; CComboBox::`RTTI Complete Object Locator'
PUBLIC	??_R0?AVCComboBox@@@8				; CComboBox `RTTI Type Descriptor'
PUBLIC	??_R3CComboBox@@8				; CComboBox::`RTTI Class Hierarchy Descriptor'
PUBLIC	??_R2CComboBox@@8				; CComboBox::`RTTI Base Class Array'
PUBLIC	??_R1A@?0A@EA@CComboBox@@8			; CComboBox::`RTTI Base Class Descriptor at (0,-1,0,64)'
PUBLIC	??_R4CCommonDialog@@6B@				; CCommonDialog::`RTTI Complete Object Locator'
PUBLIC	??_R0?AVCCommonDialog@@@8			; CCommonDialog `RTTI Type Descriptor'
PUBLIC	??_R3CCommonDialog@@8				; CCommonDialog::`RTTI Class Hierarchy Descriptor'
PUBLIC	??_R2CCommonDialog@@8				; CCommonDialog::`RTTI Base Class Array'
PUBLIC	??_R1A@?0A@EA@CCommonDialog@@8			; CCommonDialog::`RTTI Base Class Descriptor at (0,-1,0,64)'
PUBLIC	??_R1A@?0A@EA@CDialog@@8			; CDialog::`RTTI Base Class Descriptor at (0,-1,0,64)'
PUBLIC	??_R0?AVCDialog@@@8				; CDialog `RTTI Type Descriptor'
PUBLIC	??_R3CDialog@@8					; CDialog::`RTTI Class Hierarchy Descriptor'
PUBLIC	??_R2CDialog@@8					; CDialog::`RTTI Base Class Array'
PUBLIC	??_7CSetting_VolumeMA_Condition@@6B@		; CSetting_VolumeMA_Condition::`vftable'
PUBLIC	??_R4CSetting_VolumeMA_Condition@@6B@		; CSetting_VolumeMA_Condition::`RTTI Complete Object Locator'
PUBLIC	??_R0?AVCSetting_VolumeMA_Condition@@@8		; CSetting_VolumeMA_Condition `RTTI Type Descriptor'
PUBLIC	??_R3CSetting_VolumeMA_Condition@@8		; CSetting_VolumeMA_Condition::`RTTI Class Hierarchy Descriptor'
PUBLIC	??_R2CSetting_VolumeMA_Condition@@8		; CSetting_VolumeMA_Condition::`RTTI Base Class Array'
PUBLIC	??_R1A@?0A@EA@CSetting_VolumeMA_Condition@@8	; CSetting_VolumeMA_Condition::`RTTI Base Class Descriptor at (0,-1,0,64)'
EXTRN	??3@YAXPAX@Z:PROC				; operator delete
EXTRN	?__global_delete@@YAXPAXI@Z:PROC		; __global_delete
EXTRN	__imp__SendMessageA@16:PROC
EXTRN	__imp__EnableWindow@8:PROC
EXTRN	__imp__InvalidateRect@12:PROC
EXTRN	__imp__ShowScrollBar@12:PROC
EXTRN	__imp_??0?$CStringT@DV?$StrTraitMFC_DLL@DV?$ChTraitsCRT@D@ATL@@@@@ATL@@QAE@XZ:PROC
EXTRN	__imp_??0?$CStringT@DV?$StrTraitMFC_DLL@DV?$ChTraitsCRT@D@ATL@@@@@ATL@@QAE@PBD@Z:PROC
EXTRN	__imp_??1?$CStringT@DV?$StrTraitMFC_DLL@DV?$ChTraitsCRT@D@ATL@@@@@ATL@@QAE@XZ:PROC
EXTRN	__imp_?LoadStringA@?$CStringT@DV?$StrTraitMFC_DLL@DV?$ChTraitsCRT@D@ATL@@@@@ATL@@QAEHI@Z:PROC
EXTRN	?DDX_Control@@YGXPAVCDataExchange@@HAAVCWnd@@@Z:PROC ; DDX_Control
EXTRN	?OnCmdMsg@CCmdTarget@@UAEHIHPAXPAUAFX_CMDHANDLERINFO@@@Z:PROC ; CCmdTarget::OnCmdMsg
EXTRN	?IsInvokeAllowed@CCmdTarget@@UAEHJ@Z:PROC	; CCmdTarget::IsInvokeAllowed
EXTRN	?GetDispatchIID@CCmdTarget@@UAEHPAU_GUID@@@Z:PROC ; CCmdTarget::GetDispatchIID
EXTRN	?GetTypeInfoCount@CCmdTarget@@UAEIXZ:PROC	; CCmdTarget::GetTypeInfoCount
EXTRN	?GetTypeLibCache@CCmdTarget@@UAEPAVCTypeLibCache@@XZ:PROC ; CCmdTarget::GetTypeLibCache
EXTRN	?GetTypeLib@CCmdTarget@@UAEJKPAPAUITypeLib@@@Z:PROC ; CCmdTarget::GetTypeLib
EXTRN	?GetCommandMap@CCmdTarget@@MBEPBUAFX_OLECMDMAP@@XZ:PROC ; CCmdTarget::GetCommandMap
EXTRN	?GetDispatchMap@CCmdTarget@@MBEPBUAFX_DISPMAP@@XZ:PROC ; CCmdTarget::GetDispatchMap
EXTRN	?GetConnectionMap@CCmdTarget@@MBEPBUAFX_CONNECTIONMAP@@XZ:PROC ; CCmdTarget::GetConnectionMap
EXTRN	?GetEventSinkMap@CCmdTarget@@MBEPBUAFX_EVENTSINKMAP@@XZ:PROC ; CCmdTarget::GetEventSinkMap
EXTRN	?OnCreateAggregates@CCmdTarget@@UAEHXZ:PROC	; CCmdTarget::OnCreateAggregates
EXTRN	?GetInterfaceHook@CCmdTarget@@UAEPAUIUnknown@@PBX@Z:PROC ; CCmdTarget::GetInterfaceHook
EXTRN	?GetExtraConnectionPoints@CCmdTarget@@MAEHPAVCPtrArray@@@Z:PROC ; CCmdTarget::GetExtraConnectionPoints
EXTRN	?GetConnectionHook@CCmdTarget@@MAEPAUIConnectionPoint@@ABU_GUID@@@Z:PROC ; CCmdTarget::GetConnectionHook
EXTRN	??0CWnd@@QAE@XZ:PROC				; CWnd::CWnd
EXTRN	?PreSubclassWindow@CWnd@@UAEXXZ:PROC		; CWnd::PreSubclassWindow
EXTRN	?Create@CWnd@@UAEHPBD0KABUtagRECT@@PAV1@IPAUCCreateContext@@@Z:PROC ; CWnd::Create
EXTRN	?CreateEx@CWnd@@UAEHKPBD0KHHHHPAUHWND__@@PAUHMENU__@@PAX@Z:PROC ; CWnd::CreateEx
EXTRN	?CreateEx@CWnd@@UAEHKPBD0KABUtagRECT@@PAV1@IPAX@Z:PROC ; CWnd::CreateEx
EXTRN	?DestroyWindow@CWnd@@UAEHXZ:PROC		; CWnd::DestroyWindow
EXTRN	?PreCreateWindow@CWnd@@UAEHAAUtagCREATESTRUCTA@@@Z:PROC ; CWnd::PreCreateWindow
EXTRN	?CalcWindowRect@CWnd@@UAEXPAUtagRECT@@I@Z:PROC	; CWnd::CalcWindowRect
EXTRN	?GetDlgItem@CWnd@@QBEPAV1@H@Z:PROC		; CWnd::GetDlgItem
EXTRN	?GetMenu@CWnd@@UBEPAVCMenu@@XZ:PROC		; CWnd::GetMenu
EXTRN	?SetMenu@CWnd@@UAEHPAVCMenu@@@Z:PROC		; CWnd::SetMenu
EXTRN	?ShowWindow@CWnd@@QAEHH@Z:PROC			; CWnd::ShowWindow
EXTRN	?OnToolHitTest@CWnd@@UBEHVCPoint@@PAUtagTOOLINFOA@@@Z:PROC ; CWnd::OnToolHitTest
EXTRN	?GetScrollBarCtrl@CWnd@@UBEPAVCScrollBar@@H@Z:PROC ; CWnd::GetScrollBarCtrl
EXTRN	?WinHelpA@CWnd@@UAEXKI@Z:PROC			; CWnd::WinHelpA
EXTRN	?HtmlHelpA@CWnd@@UAEXKI@Z:PROC			; CWnd::HtmlHelpA
EXTRN	?WinHelpInternal@CWnd@@UAEXKI@Z:PROC		; CWnd::WinHelpInternal
EXTRN	?ContinueModal@CWnd@@UAEHXZ:PROC		; CWnd::ContinueModal
EXTRN	?EndModalLoop@CWnd@@UAEXH@Z:PROC		; CWnd::EndModalLoop
EXTRN	?OnDrawIconicThumbnailOrLivePreview@CWnd@@UAEXAAVCDC@@VCRect@@VCSize@@HAAH@Z:PROC ; CWnd::OnDrawIconicThumbnailOrLivePreview
EXTRN	?GetInterfaceMap@CWnd@@MBEPBUAFX_INTERFACEMAP@@XZ:PROC ; CWnd::GetInterfaceMap
EXTRN	?EnsureStdObj@CWnd@@UAEJXZ:PROC			; CWnd::EnsureStdObj
EXTRN	?get_accParent@CWnd@@UAEJPAPAUIDispatch@@@Z:PROC ; CWnd::get_accParent
EXTRN	?get_accChildCount@CWnd@@UAEJPAJ@Z:PROC		; CWnd::get_accChildCount
EXTRN	?get_accChild@CWnd@@UAEJUtagVARIANT@@PAPAUIDispatch@@@Z:PROC ; CWnd::get_accChild
EXTRN	?get_accName@CWnd@@UAEJUtagVARIANT@@PAPA_W@Z:PROC ; CWnd::get_accName
EXTRN	?get_accValue@CWnd@@UAEJUtagVARIANT@@PAPA_W@Z:PROC ; CWnd::get_accValue
EXTRN	?get_accDescription@CWnd@@UAEJUtagVARIANT@@PAPA_W@Z:PROC ; CWnd::get_accDescription
EXTRN	?get_accRole@CWnd@@UAEJUtagVARIANT@@PAU2@@Z:PROC ; CWnd::get_accRole
EXTRN	?get_accState@CWnd@@UAEJUtagVARIANT@@PAU2@@Z:PROC ; CWnd::get_accState
EXTRN	?get_accHelp@CWnd@@UAEJUtagVARIANT@@PAPA_W@Z:PROC ; CWnd::get_accHelp
EXTRN	?get_accHelpTopic@CWnd@@UAEJPAPA_WUtagVARIANT@@PAJ@Z:PROC ; CWnd::get_accHelpTopic
EXTRN	?get_accKeyboardShortcut@CWnd@@UAEJUtagVARIANT@@PAPA_W@Z:PROC ; CWnd::get_accKeyboardShortcut
EXTRN	?get_accFocus@CWnd@@UAEJPAUtagVARIANT@@@Z:PROC	; CWnd::get_accFocus
EXTRN	?get_accSelection@CWnd@@UAEJPAUtagVARIANT@@@Z:PROC ; CWnd::get_accSelection
EXTRN	?get_accDefaultAction@CWnd@@UAEJUtagVARIANT@@PAPA_W@Z:PROC ; CWnd::get_accDefaultAction
EXTRN	?accSelect@CWnd@@UAEJJUtagVARIANT@@@Z:PROC	; CWnd::accSelect
EXTRN	?accLocation@CWnd@@UAEJPAJ000UtagVARIANT@@@Z:PROC ; CWnd::accLocation
EXTRN	?accNavigate@CWnd@@UAEJJUtagVARIANT@@PAU2@@Z:PROC ; CWnd::accNavigate
EXTRN	?accHitTest@CWnd@@UAEJJJPAUtagVARIANT@@@Z:PROC	; CWnd::accHitTest
EXTRN	?accDoDefaultAction@CWnd@@UAEJUtagVARIANT@@@Z:PROC ; CWnd::accDoDefaultAction
EXTRN	?put_accName@CWnd@@UAEJUtagVARIANT@@PA_W@Z:PROC	; CWnd::put_accName
EXTRN	?put_accValue@CWnd@@UAEJUtagVARIANT@@PA_W@Z:PROC ; CWnd::put_accValue
EXTRN	?SetProxy@CWnd@@UAEJPAUIAccessibleProxy@@@Z:PROC ; CWnd::SetProxy
EXTRN	?CreateAccessibleProxy@CWnd@@UAEJIJPAJ@Z:PROC	; CWnd::CreateAccessibleProxy
EXTRN	?OnCommand@CWnd@@MAEHIJ@Z:PROC			; CWnd::OnCommand
EXTRN	?OnNotify@CWnd@@MAEHIJPAJ@Z:PROC		; CWnd::OnNotify
EXTRN	?GetSuperWndProcAddr@CWnd@@MAEPAP6GJPAUHWND__@@IIJ@ZXZ:PROC ; CWnd::GetSuperWndProcAddr
EXTRN	?PreTranslateMessage@CWnd@@UAEHPAUtagMSG@@@Z:PROC ; CWnd::PreTranslateMessage
EXTRN	?OnAmbientProperty@CWnd@@UAEHPAVCOleControlSite@@JPAUtagVARIANT@@@Z:PROC ; CWnd::OnAmbientProperty
EXTRN	?WindowProc@CWnd@@MAEJIIJ@Z:PROC		; CWnd::WindowProc
EXTRN	?OnWndMsg@CWnd@@MAEHIIJPAJ@Z:PROC		; CWnd::OnWndMsg
EXTRN	?DefWindowProcA@CWnd@@MAEJIIJ@Z:PROC		; CWnd::DefWindowProcA
EXTRN	?PostNcDestroy@CWnd@@MAEXXZ:PROC		; CWnd::PostNcDestroy
EXTRN	?OnChildNotify@CWnd@@MAEHIIJPAJ@Z:PROC		; CWnd::OnChildNotify
EXTRN	?OnTouchInputs@CWnd@@MAEHIPAUtagTOUCHINPUT@@@Z:PROC ; CWnd::OnTouchInputs
EXTRN	?OnTouchInput@CWnd@@MAEHVCPoint@@HHPAUtagTOUCHINPUT@@@Z:PROC ; CWnd::OnTouchInput
EXTRN	?GetGestureStatus@CWnd@@MAEKVCPoint@@@Z:PROC	; CWnd::GetGestureStatus
EXTRN	?OnGestureZoom@CWnd@@MAEHVCPoint@@J@Z:PROC	; CWnd::OnGestureZoom
EXTRN	?OnGesturePan@CWnd@@MAEHVCPoint@@0@Z:PROC	; CWnd::OnGesturePan
EXTRN	?OnGestureRotate@CWnd@@MAEHVCPoint@@N@Z:PROC	; CWnd::OnGestureRotate
EXTRN	?OnGestureTwoFingerTap@CWnd@@MAEHVCPoint@@@Z:PROC ; CWnd::OnGestureTwoFingerTap
EXTRN	?OnGesturePressAndTap@CWnd@@MAEHVCPoint@@J@Z:PROC ; CWnd::OnGesturePressAndTap
EXTRN	?ResizeDynamicLayout@CWnd@@MAEXXZ:PROC		; CWnd::ResizeDynamicLayout
EXTRN	?CheckAutoCenter@CWnd@@UAEHXZ:PROC		; CWnd::CheckAutoCenter
EXTRN	?IsFrameWnd@CWnd@@UBEHXZ:PROC			; CWnd::IsFrameWnd
EXTRN	?OnFinalRelease@CWnd@@UAEXXZ:PROC		; CWnd::OnFinalRelease
EXTRN	?CreateControlContainer@CWnd@@MAEHPAPAVCOleControlContainer@@@Z:PROC ; CWnd::CreateControlContainer
EXTRN	?CreateControlSite@CWnd@@MAEHPAVCOleControlContainer@@PAPAVCOleControlSite@@IABU_GUID@@@Z:PROC ; CWnd::CreateControlSite
EXTRN	?SetOccDialogInfo@CWnd@@MAEHPAU_AFX_OCC_DIALOG_INFO@@@Z:PROC ; CWnd::SetOccDialogInfo
EXTRN	?GetOccDialogInfo@CWnd@@MAEPAU_AFX_OCC_DIALOG_INFO@@XZ:PROC ; CWnd::GetOccDialogInfo
EXTRN	?GetMessageMap@CWnd@@MBEPBUAFX_MSGMAP@@XZ:PROC	; CWnd::GetMessageMap
EXTRN	?GetRuntimeClass@CDialog@@UBEPAUCRuntimeClass@@XZ:PROC ; CDialog::GetRuntimeClass
EXTRN	?Create@CDialog@@UAEHPBDPAVCWnd@@@Z:PROC	; CDialog::Create
EXTRN	?CreateIndirect@CDialog@@UAEHPBUDLGTEMPLATE@@PAVCWnd@@PAX@Z:PROC ; CDialog::CreateIndirect
EXTRN	?CreateIndirect@CDialog@@UAEHPAXPAVCWnd@@@Z:PROC ; CDialog::CreateIndirect
EXTRN	??0CDialog@@QAE@IPAVCWnd@@@Z:PROC		; CDialog::CDialog
EXTRN	?DoModal@CDialog@@UAEHXZ:PROC			; CDialog::DoModal
EXTRN	?OnInitDialog@CDialog@@UAEHXZ:PROC		; CDialog::OnInitDialog
EXTRN	?OnSetFont@CDialog@@UAEXPAVCFont@@@Z:PROC	; CDialog::OnSetFont
EXTRN	?OnOK@CDialog@@MAEXXZ:PROC			; CDialog::OnOK
EXTRN	?OnCancel@CDialog@@MAEXXZ:PROC			; CDialog::OnCancel
EXTRN	??1CDialog@@UAE@XZ:PROC				; CDialog::~CDialog
EXTRN	?PreTranslateMessage@CDialog@@UAEHPAUtagMSG@@@Z:PROC ; CDialog::PreTranslateMessage
EXTRN	?OnCmdMsg@CDialog@@UAEHIHPAXPAUAFX_CMDHANDLERINFO@@@Z:PROC ; CDialog::OnCmdMsg
EXTRN	?CheckAutoCenter@CDialog@@UAEHXZ:PROC		; CDialog::CheckAutoCenter
EXTRN	?SetOccDialogInfo@CDialog@@MAEHPAU_AFX_OCC_DIALOG_INFO@@@Z:PROC ; CDialog::SetOccDialogInfo
EXTRN	?GetOccDialogInfo@CDialog@@MAEPAU_AFX_OCC_DIALOG_INFO@@XZ:PROC ; CDialog::GetOccDialogInfo
EXTRN	?PreInitDialog@CDialog@@MAEXXZ:PROC		; CDialog::PreInitDialog
EXTRN	?GetThisMessageMap@CDialog@@KGPBUAFX_MSGMAP@@XZ:PROC ; CDialog::GetThisMessageMap
EXTRN	?GetRuntimeClass@CButton@@UBEPAUCRuntimeClass@@XZ:PROC ; CButton::GetRuntimeClass
EXTRN	?Create@CButton@@UAEHPBDKABUtagRECT@@PAVCWnd@@I@Z:PROC ; CButton::Create
EXTRN	?DrawItem@CButton@@UAEXPAUtagDRAWITEMSTRUCT@@@Z:PROC ; CButton::DrawItem
EXTRN	??1CButton@@UAE@XZ:PROC				; CButton::~CButton
EXTRN	?OnChildNotify@CButton@@MAEHIIJPAJ@Z:PROC	; CButton::OnChildNotify
EXTRN	??_ECButton@@UAEPAXI@Z:PROC			; CButton::`vector deleting destructor'
EXTRN	?GetRuntimeClass@CComboBox@@UBEPAUCRuntimeClass@@XZ:PROC ; CComboBox::GetRuntimeClass
EXTRN	?Create@CComboBox@@UAEHKABUtagRECT@@PAVCWnd@@I@Z:PROC ; CComboBox::Create
EXTRN	?DrawItem@CComboBox@@UAEXPAUtagDRAWITEMSTRUCT@@@Z:PROC ; CComboBox::DrawItem
EXTRN	?MeasureItem@CComboBox@@UAEXPAUtagMEASUREITEMSTRUCT@@@Z:PROC ; CComboBox::MeasureItem
EXTRN	?CompareItem@CComboBox@@UAEHPAUtagCOMPAREITEMSTRUCT@@@Z:PROC ; CComboBox::CompareItem
EXTRN	?DeleteItem@CComboBox@@UAEXPAUtagDELETEITEMSTRUCT@@@Z:PROC ; CComboBox::DeleteItem
EXTRN	??1CComboBox@@UAE@XZ:PROC			; CComboBox::~CComboBox
EXTRN	?OnChildNotify@CComboBox@@MAEHIIJPAJ@Z:PROC	; CComboBox::OnChildNotify
EXTRN	??_ECComboBox@@UAEPAXI@Z:PROC			; CComboBox::`vector deleting destructor'
EXTRN	?AfxMessageBox@@YGHPBDII@Z:PROC			; AfxMessageBox
EXTRN	?GetRuntimeClass@CCommonDialog@@UBEPAUCRuntimeClass@@XZ:PROC ; CCommonDialog::GetRuntimeClass
EXTRN	?OnOK@CCommonDialog@@MAEXXZ:PROC		; CCommonDialog::OnOK
EXTRN	?OnCancel@CCommonDialog@@MAEXXZ:PROC		; CCommonDialog::OnCancel
EXTRN	?GetMessageMap@CCommonDialog@@MBEPBUAFX_MSGMAP@@XZ:PROC ; CCommonDialog::GetMessageMap
EXTRN	??_ECCommonDialog@@UAEPAXI@Z:PROC		; CCommonDialog::`vector deleting destructor'
EXTRN	??0CColorDialog@@QAE@KKPAVCWnd@@@Z:PROC		; CColorDialog::CColorDialog
EXTRN	?DoModal@CColorDialog@@UAEHXZ:PROC		; CColorDialog::DoModal
EXTRN	??0CNumEdit@@QAE@XZ:PROC			; CNumEdit::CNumEdit
EXTRN	??1CNumEdit@@UAE@XZ:PROC			; CNumEdit::~CNumEdit
EXTRN	??0CNumSpinCtrl@@QAE@XZ:PROC			; CNumSpinCtrl::CNumSpinCtrl
EXTRN	??1CNumSpinCtrl@@UAE@XZ:PROC			; CNumSpinCtrl::~CNumSpinCtrl
EXTRN	??0CBitmapItemComboBox@@QAE@XZ:PROC		; CBitmapItemComboBox::CBitmapItemComboBox
EXTRN	??1CBitmapItemComboBox@@UAE@XZ:PROC		; CBitmapItemComboBox::~CBitmapItemComboBox
EXTRN	??0CColorButton@@QAE@XZ:PROC			; CColorButton::CColorButton
EXTRN	??1CColorButton@@UAE@XZ:PROC			; CColorButton::~CColorButton
EXTRN	?GetColor@CColorButton@@QAEKXZ:PROC		; CColorButton::GetColor
EXTRN	?SetColor@CColorButton@@QAEXABK@Z:PROC		; CColorButton::SetColor
EXTRN	?SetText@CColorButton@@QAEXV?$CStringT@DV?$StrTraitMFC_DLL@DV?$ChTraitsCRT@D@ATL@@@@@ATL@@@Z:PROC ; CColorButton::SetText
EXTRN	?OK@CSetting_VolumeMA@@QAEXXZ:PROC		; CSetting_VolumeMA::OK
EXTRN	?Cancel@CSetting_VolumeMA@@QAEXXZ:PROC		; CSetting_VolumeMA::Cancel
EXTRN	??_ECSetting_VolumeMA_Condition@@UAEPAXI@Z:PROC	; CSetting_VolumeMA_Condition::`vector deleting destructor'
EXTRN	@__security_check_cookie@4:PROC
EXTRN	___CxxFrameHandler3:PROC
EXTRN	??_7type_info@@6B@:QWORD			; type_info::`vftable'
EXTRN	___security_cookie:DWORD
;	COMDAT ??_R1A@?0A@EA@CSetting_VolumeMA_Condition@@8
rdata$r	SEGMENT
??_R1A@?0A@EA@CSetting_VolumeMA_Condition@@8 DD FLAT:??_R0?AVCSetting_VolumeMA_Condition@@@8 ; CSetting_VolumeMA_Condition::`RTTI Base Class Descriptor at (0,-1,0,64)'
	DD	04H
	DD	00H
	DD	0ffffffffH
	DD	00H
	DD	040H
	DD	FLAT:??_R3CSetting_VolumeMA_Condition@@8
rdata$r	ENDS
;	COMDAT ??_R2CSetting_VolumeMA_Condition@@8
rdata$r	SEGMENT
??_R2CSetting_VolumeMA_Condition@@8 DD FLAT:??_R1A@?0A@EA@CSetting_VolumeMA_Condition@@8 ; CSetting_VolumeMA_Condition::`RTTI Base Class Array'
	DD	FLAT:??_R1A@?0A@EA@CDialog@@8
	DD	FLAT:??_R1A@?0A@EA@CWnd@@8
	DD	FLAT:??_R1A@?0A@EA@CCmdTarget@@8
	DD	FLAT:??_R1A@?0A@EA@CObject@@8
rdata$r	ENDS
;	COMDAT ??_R3CSetting_VolumeMA_Condition@@8
rdata$r	SEGMENT
??_R3CSetting_VolumeMA_Condition@@8 DD 00H		; CSetting_VolumeMA_Condition::`RTTI Class Hierarchy Descriptor'
	DD	00H
	DD	05H
	DD	FLAT:??_R2CSetting_VolumeMA_Condition@@8
rdata$r	ENDS
;	COMDAT ??_R0?AVCSetting_VolumeMA_Condition@@@8
data$rs	SEGMENT
??_R0?AVCSetting_VolumeMA_Condition@@@8 DD FLAT:??_7type_info@@6B@ ; CSetting_VolumeMA_Condition `RTTI Type Descriptor'
	DD	00H
	DB	'.?AVCSetting_VolumeMA_Condition@@', 00H
data$rs	ENDS
;	COMDAT ??_R4CSetting_VolumeMA_Condition@@6B@
rdata$r	SEGMENT
??_R4CSetting_VolumeMA_Condition@@6B@ DD 00H		; CSetting_VolumeMA_Condition::`RTTI Complete Object Locator'
	DD	00H
	DD	00H
	DD	FLAT:??_R0?AVCSetting_VolumeMA_Condition@@@8
	DD	FLAT:??_R3CSetting_VolumeMA_Condition@@8
rdata$r	ENDS
;	COMDAT ?messageMap@?1??GetThisMessageMap@CSetting_VolumeMA_Condition@@KGPBUAFX_MSGMAP@@XZ@4U3@B
CONST	SEGMENT
?messageMap@?1??GetThisMessageMap@CSetting_VolumeMA_Condition@@KGPBUAFX_MSGMAP@@XZ@4U3@B DD FLAT:?GetThisMessageMap@CDialog@@KGPBUAFX_MSGMAP@@XZ ; `CSetting_VolumeMA_Condition::GetThisMessageMap'::`2'::messageMap
	DD	FLAT:?_messageEntries@?1??GetThisMessageMap@CSetting_VolumeMA_Condition@@KGPBUAFX_MSGMAP@@XZ@4QBUAFX_MSGMAP_ENTRY@@B
CONST	ENDS
;	COMDAT ?_messageEntries@?1??GetThisMessageMap@CSetting_VolumeMA_Condition@@KGPBUAFX_MSGMAP@@XZ@4QBUAFX_MSGMAP_ENTRY@@B
CONST	SEGMENT
?_messageEntries@?1??GetThisMessageMap@CSetting_VolumeMA_Condition@@KGPBUAFX_MSGMAP@@XZ@4QBUAFX_MSGMAP_ENTRY@@B DD 0111H ; `CSetting_VolumeMA_Condition::GetThisMessageMap'::`2'::_messageEntries
	DD	00H
	DD	0242cH
	DD	0242cH
	DD	03aH
	DD	FLAT:?OnColorButton0@CSetting_VolumeMA_Condition@@IAEXXZ
	DD	0111H
	DD	00H
	DD	0242dH
	DD	0242dH
	DD	03aH
	DD	FLAT:?OnColorButton1@CSetting_VolumeMA_Condition@@IAEXXZ
	DD	0111H
	DD	00H
	DD	0242eH
	DD	0242eH
	DD	03aH
	DD	FLAT:?OnColorButton2@CSetting_VolumeMA_Condition@@IAEXXZ
	DD	0111H
	DD	00H
	DD	0242fH
	DD	0242fH
	DD	03aH
	DD	FLAT:?OnColorButton3@CSetting_VolumeMA_Condition@@IAEXXZ
	DD	0111H
	DD	00H
	DD	02430H
	DD	02430H
	DD	03aH
	DD	FLAT:?OnColorButton4@CSetting_VolumeMA_Condition@@IAEXXZ
	DD	0111H
	DD	00H
	DD	02431H
	DD	02431H
	DD	03aH
	DD	FLAT:?OnColorButton5@CSetting_VolumeMA_Condition@@IAEXXZ
	DD	0111H
	DD	00H
	DD	02432H
	DD	02432H
	DD	03aH
	DD	FLAT:?OnColorButton6@CSetting_VolumeMA_Condition@@IAEXXZ
	DD	0111H
	DD	00H
	DD	02433H
	DD	02433H
	DD	03aH
	DD	FLAT:?OnColorButton7@CSetting_VolumeMA_Condition@@IAEXXZ
	DD	0111H
	DD	00H
	DD	02434H
	DD	02434H
	DD	03aH
	DD	FLAT:?OnColorButton8@CSetting_VolumeMA_Condition@@IAEXXZ
	DD	0111H
	DD	00H
	DD	02435H
	DD	02435H
	DD	03aH
	DD	FLAT:?OnColorButton9@CSetting_VolumeMA_Condition@@IAEXXZ
	DD	0111H
	DD	00H
	DD	0238cH
	DD	0238cH
	DD	03aH
	DD	FLAT:?OnCheckShowGraph0@CSetting_VolumeMA_Condition@@IAEXXZ
	DD	0111H
	DD	00H
	DD	0238dH
	DD	0238dH
	DD	03aH
	DD	FLAT:?OnCheckShowGraph1@CSetting_VolumeMA_Condition@@IAEXXZ
	DD	0111H
	DD	00H
	DD	0238eH
	DD	0238eH
	DD	03aH
	DD	FLAT:?OnCheckShowGraph2@CSetting_VolumeMA_Condition@@IAEXXZ
	DD	0111H
	DD	00H
	DD	0238fH
	DD	0238fH
	DD	03aH
	DD	FLAT:?OnCheckShowGraph3@CSetting_VolumeMA_Condition@@IAEXXZ
	DD	0111H
	DD	00H
	DD	02390H
	DD	02390H
	DD	03aH
	DD	FLAT:?OnCheckShowGraph4@CSetting_VolumeMA_Condition@@IAEXXZ
	DD	0111H
	DD	00H
	DD	02391H
	DD	02391H
	DD	03aH
	DD	FLAT:?OnCheckShowGraph5@CSetting_VolumeMA_Condition@@IAEXXZ
	DD	0111H
	DD	00H
	DD	02392H
	DD	02392H
	DD	03aH
	DD	FLAT:?OnCheckShowGraph6@CSetting_VolumeMA_Condition@@IAEXXZ
	DD	0111H
	DD	00H
	DD	02393H
	DD	02393H
	DD	03aH
	DD	FLAT:?OnCheckShowGraph7@CSetting_VolumeMA_Condition@@IAEXXZ
	DD	0111H
	DD	00H
	DD	02394H
	DD	02394H
	DD	03aH
	DD	FLAT:?OnCheckShowGraph8@CSetting_VolumeMA_Condition@@IAEXXZ
	DD	0111H
	DD	00H
	DD	02395H
	DD	02395H
	DD	03aH
	DD	FLAT:?OnCheckShowGraph9@CSetting_VolumeMA_Condition@@IAEXXZ
	DD	0111H
	DD	01H
	DD	02364H
	DD	02364H
	DD	03aH
	DD	FLAT:?OnSelchangeDrawstyle0@CSetting_VolumeMA_Condition@@IAEXXZ
	DD	0111H
	DD	01H
	DD	02365H
	DD	02365H
	DD	03aH
	DD	FLAT:?OnSelchangeDrawstyle1@CSetting_VolumeMA_Condition@@IAEXXZ
	DD	0111H
	DD	01H
	DD	02366H
	DD	02366H
	DD	03aH
	DD	FLAT:?OnSelchangeDrawstyle2@CSetting_VolumeMA_Condition@@IAEXXZ
	DD	0111H
	DD	01H
	DD	02367H
	DD	02367H
	DD	03aH
	DD	FLAT:?OnSelchangeDrawstyle3@CSetting_VolumeMA_Condition@@IAEXXZ
	DD	0111H
	DD	01H
	DD	02368H
	DD	02368H
	DD	03aH
	DD	FLAT:?OnSelchangeDrawstyle4@CSetting_VolumeMA_Condition@@IAEXXZ
	DD	0111H
	DD	01H
	DD	02369H
	DD	02369H
	DD	03aH
	DD	FLAT:?OnSelchangeDrawstyle5@CSetting_VolumeMA_Condition@@IAEXXZ
	DD	0111H
	DD	01H
	DD	0236aH
	DD	0236aH
	DD	03aH
	DD	FLAT:?OnSelchangeDrawstyle6@CSetting_VolumeMA_Condition@@IAEXXZ
	DD	0111H
	DD	01H
	DD	0236bH
	DD	0236bH
	DD	03aH
	DD	FLAT:?OnSelchangeDrawstyle7@CSetting_VolumeMA_Condition@@IAEXXZ
	DD	0111H
	DD	01H
	DD	0236cH
	DD	0236cH
	DD	03aH
	DD	FLAT:?OnSelchangeDrawstyle8@CSetting_VolumeMA_Condition@@IAEXXZ
	DD	0111H
	DD	01H
	DD	0236dH
	DD	0236dH
	DD	03aH
	DD	FLAT:?OnSelchangeDrawstyle9@CSetting_VolumeMA_Condition@@IAEXXZ
	DD	0111H
	DD	01H
	DD	023dcH
	DD	023dcH
	DD	03aH
	DD	FLAT:?OnSelchangeThickness0@CSetting_VolumeMA_Condition@@IAEXXZ
	DD	0111H
	DD	01H
	DD	023ddH
	DD	023ddH
	DD	03aH
	DD	FLAT:?OnSelchangeThickness1@CSetting_VolumeMA_Condition@@IAEXXZ
	DD	0111H
	DD	01H
	DD	023deH
	DD	023deH
	DD	03aH
	DD	FLAT:?OnSelchangeThickness2@CSetting_VolumeMA_Condition@@IAEXXZ
	DD	0111H
	DD	01H
	DD	023dfH
	DD	023dfH
	DD	03aH
	DD	FLAT:?OnSelchangeThickness3@CSetting_VolumeMA_Condition@@IAEXXZ
	DD	0111H
	DD	01H
	DD	023e0H
	DD	023e0H
	DD	03aH
	DD	FLAT:?OnSelchangeThickness4@CSetting_VolumeMA_Condition@@IAEXXZ
	DD	0111H
	DD	01H
	DD	023e1H
	DD	023e1H
	DD	03aH
	DD	FLAT:?OnSelchangeThickness5@CSetting_VolumeMA_Condition@@IAEXXZ
	DD	0111H
	DD	01H
	DD	023e2H
	DD	023e2H
	DD	03aH
	DD	FLAT:?OnSelchangeThickness6@CSetting_VolumeMA_Condition@@IAEXXZ
	DD	0111H
	DD	01H
	DD	023e3H
	DD	023e3H
	DD	03aH
	DD	FLAT:?OnSelchangeThickness7@CSetting_VolumeMA_Condition@@IAEXXZ
	DD	0111H
	DD	01H
	DD	023e4H
	DD	023e4H
	DD	03aH
	DD	FLAT:?OnSelchangeThickness8@CSetting_VolumeMA_Condition@@IAEXXZ
	DD	0111H
	DD	01H
	DD	023e5H
	DD	023e5H
	DD	03aH
	DD	FLAT:?OnSelchangeThickness9@CSetting_VolumeMA_Condition@@IAEXXZ
	DD	00H
	DD	00H
	DD	00H
	DD	00H
	DD	00H
	DD	00H
CONST	ENDS
;	COMDAT ??_7CSetting_VolumeMA_Condition@@6B@
CONST	SEGMENT
??_7CSetting_VolumeMA_Condition@@6B@ DD FLAT:??_R4CSetting_VolumeMA_Condition@@6B@ ; CSetting_VolumeMA_Condition::`vftable'
	DD	FLAT:?GetRuntimeClass@CDialog@@UBEPAUCRuntimeClass@@XZ
	DD	FLAT:??_ECSetting_VolumeMA_Condition@@UAEPAXI@Z
	DD	FLAT:?Serialize@CObject@@UAEXAAVCArchive@@@Z
	DD	FLAT:?AssertValid@CObject@@UBEXXZ
	DD	FLAT:?Dump@CObject@@UBEXAAVCDumpContext@@@Z
	DD	FLAT:?OnCmdMsg@CDialog@@UAEHIHPAXPAUAFX_CMDHANDLERINFO@@@Z
	DD	FLAT:?OnFinalRelease@CWnd@@UAEXXZ
	DD	FLAT:?IsInvokeAllowed@CCmdTarget@@UAEHJ@Z
	DD	FLAT:?GetDispatchIID@CCmdTarget@@UAEHPAU_GUID@@@Z
	DD	FLAT:?GetTypeInfoCount@CCmdTarget@@UAEIXZ
	DD	FLAT:?GetTypeLibCache@CCmdTarget@@UAEPAVCTypeLibCache@@XZ
	DD	FLAT:?GetTypeLib@CCmdTarget@@UAEJKPAPAUITypeLib@@@Z
	DD	FLAT:?GetMessageMap@CSetting_VolumeMA_Condition@@MBEPBUAFX_MSGMAP@@XZ
	DD	FLAT:?GetCommandMap@CCmdTarget@@MBEPBUAFX_OLECMDMAP@@XZ
	DD	FLAT:?GetDispatchMap@CCmdTarget@@MBEPBUAFX_DISPMAP@@XZ
	DD	FLAT:?GetConnectionMap@CCmdTarget@@MBEPBUAFX_CONNECTIONMAP@@XZ
	DD	FLAT:?GetInterfaceMap@CWnd@@MBEPBUAFX_INTERFACEMAP@@XZ
	DD	FLAT:?GetEventSinkMap@CCmdTarget@@MBEPBUAFX_EVENTSINKMAP@@XZ
	DD	FLAT:?OnCreateAggregates@CCmdTarget@@UAEHXZ
	DD	FLAT:?GetInterfaceHook@CCmdTarget@@UAEPAUIUnknown@@PBX@Z
	DD	FLAT:?GetExtraConnectionPoints@CCmdTarget@@MAEHPAVCPtrArray@@@Z
	DD	FLAT:?GetConnectionHook@CCmdTarget@@MAEPAUIConnectionPoint@@ABU_GUID@@@Z
	DD	FLAT:?PreSubclassWindow@CWnd@@UAEXXZ
	DD	FLAT:?Create@CWnd@@UAEHPBD0KABUtagRECT@@PAV1@IPAUCCreateContext@@@Z
	DD	FLAT:?CreateEx@CWnd@@UAEHKPBD0KABUtagRECT@@PAV1@IPAX@Z
	DD	FLAT:?CreateEx@CWnd@@UAEHKPBD0KHHHHPAUHWND__@@PAUHMENU__@@PAX@Z
	DD	FLAT:?DestroyWindow@CWnd@@UAEHXZ
	DD	FLAT:?PreCreateWindow@CWnd@@UAEHAAUtagCREATESTRUCTA@@@Z
	DD	FLAT:?CalcWindowRect@CWnd@@UAEXPAUtagRECT@@I@Z
	DD	FLAT:?GetMenu@CWnd@@UBEPAVCMenu@@XZ
	DD	FLAT:?SetMenu@CWnd@@UAEHPAVCMenu@@@Z
	DD	FLAT:?OnToolHitTest@CWnd@@UBEHVCPoint@@PAUtagTOOLINFOA@@@Z
	DD	FLAT:?GetScrollBarCtrl@CWnd@@UBEPAVCScrollBar@@H@Z
	DD	FLAT:?WinHelpA@CWnd@@UAEXKI@Z
	DD	FLAT:?HtmlHelpA@CWnd@@UAEXKI@Z
	DD	FLAT:?WinHelpInternal@CWnd@@UAEXKI@Z
	DD	FLAT:?ContinueModal@CWnd@@UAEHXZ
	DD	FLAT:?EndModalLoop@CWnd@@UAEXH@Z
	DD	FLAT:?OnDrawIconicThumbnailOrLivePreview@CWnd@@UAEXAAVCDC@@VCRect@@VCSize@@HAAH@Z
	DD	FLAT:?EnsureStdObj@CWnd@@UAEJXZ
	DD	FLAT:?get_accParent@CWnd@@UAEJPAPAUIDispatch@@@Z
	DD	FLAT:?get_accChildCount@CWnd@@UAEJPAJ@Z
	DD	FLAT:?get_accChild@CWnd@@UAEJUtagVARIANT@@PAPAUIDispatch@@@Z
	DD	FLAT:?get_accName@CWnd@@UAEJUtagVARIANT@@PAPA_W@Z
	DD	FLAT:?get_accValue@CWnd@@UAEJUtagVARIANT@@PAPA_W@Z
	DD	FLAT:?get_accDescription@CWnd@@UAEJUtagVARIANT@@PAPA_W@Z
	DD	FLAT:?get_accRole@CWnd@@UAEJUtagVARIANT@@PAU2@@Z
	DD	FLAT:?get_accState@CWnd@@UAEJUtagVARIANT@@PAU2@@Z
	DD	FLAT:?get_accHelp@CWnd@@UAEJUtagVARIANT@@PAPA_W@Z
	DD	FLAT:?get_accHelpTopic@CWnd@@UAEJPAPA_WUtagVARIANT@@PAJ@Z
	DD	FLAT:?get_accKeyboardShortcut@CWnd@@UAEJUtagVARIANT@@PAPA_W@Z
	DD	FLAT:?get_accFocus@CWnd@@UAEJPAUtagVARIANT@@@Z
	DD	FLAT:?get_accSelection@CWnd@@UAEJPAUtagVARIANT@@@Z
	DD	FLAT:?get_accDefaultAction@CWnd@@UAEJUtagVARIANT@@PAPA_W@Z
	DD	FLAT:?accSelect@CWnd@@UAEJJUtagVARIANT@@@Z
	DD	FLAT:?accLocation@CWnd@@UAEJPAJ000UtagVARIANT@@@Z
	DD	FLAT:?accNavigate@CWnd@@UAEJJUtagVARIANT@@PAU2@@Z
	DD	FLAT:?accHitTest@CWnd@@UAEJJJPAUtagVARIANT@@@Z
	DD	FLAT:?accDoDefaultAction@CWnd@@UAEJUtagVARIANT@@@Z
	DD	FLAT:?put_accName@CWnd@@UAEJUtagVARIANT@@PA_W@Z
	DD	FLAT:?put_accValue@CWnd@@UAEJUtagVARIANT@@PA_W@Z
	DD	FLAT:?SetProxy@CWnd@@UAEJPAUIAccessibleProxy@@@Z
	DD	FLAT:?CreateAccessibleProxy@CWnd@@UAEJIJPAJ@Z
	DD	FLAT:?OnCommand@CWnd@@MAEHIJ@Z
	DD	FLAT:?OnNotify@CWnd@@MAEHIJPAJ@Z
	DD	FLAT:?GetSuperWndProcAddr@CWnd@@MAEPAP6GJPAUHWND__@@IIJ@ZXZ
	DD	FLAT:?DoDataExchange@CSetting_VolumeMA_Condition@@MAEXPAVCDataExchange@@@Z
	DD	FLAT:?BeginModalState@CWnd@@UAEXXZ
	DD	FLAT:?EndModalState@CWnd@@UAEXXZ
	DD	FLAT:?PreTranslateMessage@CSetting_VolumeMA_Condition@@UAEHPAUtagMSG@@@Z
	DD	FLAT:?OnAmbientProperty@CWnd@@UAEHPAVCOleControlSite@@JPAUtagVARIANT@@@Z
	DD	FLAT:?WindowProc@CWnd@@MAEJIIJ@Z
	DD	FLAT:?OnWndMsg@CWnd@@MAEHIIJPAJ@Z
	DD	FLAT:?DefWindowProcA@CWnd@@MAEJIIJ@Z
	DD	FLAT:?PostNcDestroy@CWnd@@MAEXXZ
	DD	FLAT:?OnChildNotify@CWnd@@MAEHIIJPAJ@Z
	DD	FLAT:?OnTouchInputs@CWnd@@MAEHIPAUtagTOUCHINPUT@@@Z
	DD	FLAT:?OnTouchInput@CWnd@@MAEHVCPoint@@HHPAUtagTOUCHINPUT@@@Z
	DD	FLAT:?GetGestureStatus@CWnd@@MAEKVCPoint@@@Z
	DD	FLAT:?OnGestureZoom@CWnd@@MAEHVCPoint@@J@Z
	DD	FLAT:?OnGesturePan@CWnd@@MAEHVCPoint@@0@Z
	DD	FLAT:?OnGestureRotate@CWnd@@MAEHVCPoint@@N@Z
	DD	FLAT:?OnGestureTwoFingerTap@CWnd@@MAEHVCPoint@@@Z
	DD	FLAT:?OnGesturePressAndTap@CWnd@@MAEHVCPoint@@J@Z
	DD	FLAT:?ResizeDynamicLayout@CWnd@@MAEXXZ
	DD	FLAT:?CheckAutoCenter@CDialog@@UAEHXZ
	DD	FLAT:?IsFrameWnd@CWnd@@UBEHXZ
	DD	FLAT:?CreateControlContainer@CWnd@@MAEHPAPAVCOleControlContainer@@@Z
	DD	FLAT:?CreateControlSite@CWnd@@MAEHPAVCOleControlContainer@@PAPAVCOleControlSite@@IABU_GUID@@@Z
	DD	FLAT:?SetOccDialogInfo@CDialog@@MAEHPAU_AFX_OCC_DIALOG_INFO@@@Z
	DD	FLAT:?GetOccDialogInfo@CDialog@@MAEPAU_AFX_OCC_DIALOG_INFO@@XZ
	DD	FLAT:?Create@CDialog@@UAEHIPAVCWnd@@@Z
	DD	FLAT:?Create@CDialog@@UAEHPBDPAVCWnd@@@Z
	DD	FLAT:?CreateIndirect@CDialog@@UAEHPAXPAVCWnd@@@Z
	DD	FLAT:?CreateIndirect@CDialog@@UAEHPBUDLGTEMPLATE@@PAVCWnd@@PAX@Z
	DD	FLAT:?DoModal@CDialog@@UAEHXZ
	DD	FLAT:?OnInitDialog@CSetting_VolumeMA_Condition@@MAEHXZ
	DD	FLAT:?OnSetFont@CDialog@@UAEXPAVCFont@@@Z
	DD	FLAT:?OnOK@CDialog@@MAEXXZ
	DD	FLAT:?OnCancel@CDialog@@MAEXXZ
	DD	FLAT:?PreInitDialog@CDialog@@MAEXXZ
	DD	FLAT:?Initial@CSetting_VolumeMA_Condition@@UAEXPAUIGraphInfo135914@@@Z
CONST	ENDS
;	COMDAT ??_R2CDialog@@8
rdata$r	SEGMENT
??_R2CDialog@@8 DD FLAT:??_R1A@?0A@EA@CDialog@@8	; CDialog::`RTTI Base Class Array'
	DD	FLAT:??_R1A@?0A@EA@CWnd@@8
	DD	FLAT:??_R1A@?0A@EA@CCmdTarget@@8
	DD	FLAT:??_R1A@?0A@EA@CObject@@8
rdata$r	ENDS
;	COMDAT ??_R3CDialog@@8
rdata$r	SEGMENT
??_R3CDialog@@8 DD 00H					; CDialog::`RTTI Class Hierarchy Descriptor'
	DD	00H
	DD	04H
	DD	FLAT:??_R2CDialog@@8
rdata$r	ENDS
;	COMDAT ??_R0?AVCDialog@@@8
data$rs	SEGMENT
??_R0?AVCDialog@@@8 DD FLAT:??_7type_info@@6B@		; CDialog `RTTI Type Descriptor'
	DD	00H
	DB	'.?AVCDialog@@', 00H
data$rs	ENDS
;	COMDAT ??_R1A@?0A@EA@CDialog@@8
rdata$r	SEGMENT
??_R1A@?0A@EA@CDialog@@8 DD FLAT:??_R0?AVCDialog@@@8	; CDialog::`RTTI Base Class Descriptor at (0,-1,0,64)'
	DD	03H
	DD	00H
	DD	0ffffffffH
	DD	00H
	DD	040H
	DD	FLAT:??_R3CDialog@@8
rdata$r	ENDS
;	COMDAT ??_R1A@?0A@EA@CCommonDialog@@8
rdata$r	SEGMENT
??_R1A@?0A@EA@CCommonDialog@@8 DD FLAT:??_R0?AVCCommonDialog@@@8 ; CCommonDialog::`RTTI Base Class Descriptor at (0,-1,0,64)'
	DD	04H
	DD	00H
	DD	0ffffffffH
	DD	00H
	DD	040H
	DD	FLAT:??_R3CCommonDialog@@8
rdata$r	ENDS
;	COMDAT ??_R2CCommonDialog@@8
rdata$r	SEGMENT
??_R2CCommonDialog@@8 DD FLAT:??_R1A@?0A@EA@CCommonDialog@@8 ; CCommonDialog::`RTTI Base Class Array'
	DD	FLAT:??_R1A@?0A@EA@CDialog@@8
	DD	FLAT:??_R1A@?0A@EA@CWnd@@8
	DD	FLAT:??_R1A@?0A@EA@CCmdTarget@@8
	DD	FLAT:??_R1A@?0A@EA@CObject@@8
rdata$r	ENDS
;	COMDAT ??_R3CCommonDialog@@8
rdata$r	SEGMENT
??_R3CCommonDialog@@8 DD 00H				; CCommonDialog::`RTTI Class Hierarchy Descriptor'
	DD	00H
	DD	05H
	DD	FLAT:??_R2CCommonDialog@@8
rdata$r	ENDS
;	COMDAT ??_R0?AVCCommonDialog@@@8
data$rs	SEGMENT
??_R0?AVCCommonDialog@@@8 DD FLAT:??_7type_info@@6B@	; CCommonDialog `RTTI Type Descriptor'
	DD	00H
	DB	'.?AVCCommonDialog@@', 00H
data$rs	ENDS
;	COMDAT ??_R4CCommonDialog@@6B@
rdata$r	SEGMENT
??_R4CCommonDialog@@6B@ DD 00H				; CCommonDialog::`RTTI Complete Object Locator'
	DD	00H
	DD	00H
	DD	FLAT:??_R0?AVCCommonDialog@@@8
	DD	FLAT:??_R3CCommonDialog@@8
rdata$r	ENDS
;	COMDAT ??_R1A@?0A@EA@CComboBox@@8
rdata$r	SEGMENT
??_R1A@?0A@EA@CComboBox@@8 DD FLAT:??_R0?AVCComboBox@@@8 ; CComboBox::`RTTI Base Class Descriptor at (0,-1,0,64)'
	DD	03H
	DD	00H
	DD	0ffffffffH
	DD	00H
	DD	040H
	DD	FLAT:??_R3CComboBox@@8
rdata$r	ENDS
;	COMDAT ??_R2CComboBox@@8
rdata$r	SEGMENT
??_R2CComboBox@@8 DD FLAT:??_R1A@?0A@EA@CComboBox@@8	; CComboBox::`RTTI Base Class Array'
	DD	FLAT:??_R1A@?0A@EA@CWnd@@8
	DD	FLAT:??_R1A@?0A@EA@CCmdTarget@@8
	DD	FLAT:??_R1A@?0A@EA@CObject@@8
rdata$r	ENDS
;	COMDAT ??_R3CComboBox@@8
rdata$r	SEGMENT
??_R3CComboBox@@8 DD 00H				; CComboBox::`RTTI Class Hierarchy Descriptor'
	DD	00H
	DD	04H
	DD	FLAT:??_R2CComboBox@@8
rdata$r	ENDS
;	COMDAT ??_R0?AVCComboBox@@@8
data$rs	SEGMENT
??_R0?AVCComboBox@@@8 DD FLAT:??_7type_info@@6B@	; CComboBox `RTTI Type Descriptor'
	DD	00H
	DB	'.?AVCComboBox@@', 00H
data$rs	ENDS
;	COMDAT ??_R4CComboBox@@6B@
rdata$r	SEGMENT
??_R4CComboBox@@6B@ DD 00H				; CComboBox::`RTTI Complete Object Locator'
	DD	00H
	DD	00H
	DD	FLAT:??_R0?AVCComboBox@@@8
	DD	FLAT:??_R3CComboBox@@8
rdata$r	ENDS
;	COMDAT ??_R1A@?0A@EA@CButton@@8
rdata$r	SEGMENT
??_R1A@?0A@EA@CButton@@8 DD FLAT:??_R0?AVCButton@@@8	; CButton::`RTTI Base Class Descriptor at (0,-1,0,64)'
	DD	03H
	DD	00H
	DD	0ffffffffH
	DD	00H
	DD	040H
	DD	FLAT:??_R3CButton@@8
rdata$r	ENDS
;	COMDAT ??_R2CButton@@8
rdata$r	SEGMENT
??_R2CButton@@8 DD FLAT:??_R1A@?0A@EA@CButton@@8	; CButton::`RTTI Base Class Array'
	DD	FLAT:??_R1A@?0A@EA@CWnd@@8
	DD	FLAT:??_R1A@?0A@EA@CCmdTarget@@8
	DD	FLAT:??_R1A@?0A@EA@CObject@@8
rdata$r	ENDS
;	COMDAT ??_R3CButton@@8
rdata$r	SEGMENT
??_R3CButton@@8 DD 00H					; CButton::`RTTI Class Hierarchy Descriptor'
	DD	00H
	DD	04H
	DD	FLAT:??_R2CButton@@8
rdata$r	ENDS
;	COMDAT ??_R0?AVCButton@@@8
data$rs	SEGMENT
??_R0?AVCButton@@@8 DD FLAT:??_7type_info@@6B@		; CButton `RTTI Type Descriptor'
	DD	00H
	DB	'.?AVCButton@@', 00H
data$rs	ENDS
;	COMDAT ??_R4CButton@@6B@
rdata$r	SEGMENT
??_R4CButton@@6B@ DD 00H				; CButton::`RTTI Complete Object Locator'
	DD	00H
	DD	00H
	DD	FLAT:??_R0?AVCButton@@@8
	DD	FLAT:??_R3CButton@@8
rdata$r	ENDS
;	COMDAT ??_R2CCmdTarget@@8
rdata$r	SEGMENT
??_R2CCmdTarget@@8 DD FLAT:??_R1A@?0A@EA@CCmdTarget@@8	; CCmdTarget::`RTTI Base Class Array'
	DD	FLAT:??_R1A@?0A@EA@CObject@@8
rdata$r	ENDS
;	COMDAT ??_R3CCmdTarget@@8
rdata$r	SEGMENT
??_R3CCmdTarget@@8 DD 00H				; CCmdTarget::`RTTI Class Hierarchy Descriptor'
	DD	00H
	DD	02H
	DD	FLAT:??_R2CCmdTarget@@8
rdata$r	ENDS
;	COMDAT ??_R0?AVCCmdTarget@@@8
data$rs	SEGMENT
??_R0?AVCCmdTarget@@@8 DD FLAT:??_7type_info@@6B@	; CCmdTarget `RTTI Type Descriptor'
	DD	00H
	DB	'.?AVCCmdTarget@@', 00H
data$rs	ENDS
;	COMDAT ??_R1A@?0A@EA@CCmdTarget@@8
rdata$r	SEGMENT
??_R1A@?0A@EA@CCmdTarget@@8 DD FLAT:??_R0?AVCCmdTarget@@@8 ; CCmdTarget::`RTTI Base Class Descriptor at (0,-1,0,64)'
	DD	01H
	DD	00H
	DD	0ffffffffH
	DD	00H
	DD	040H
	DD	FLAT:??_R3CCmdTarget@@8
rdata$r	ENDS
;	COMDAT ??_R2CWnd@@8
rdata$r	SEGMENT
??_R2CWnd@@8 DD	FLAT:??_R1A@?0A@EA@CWnd@@8		; CWnd::`RTTI Base Class Array'
	DD	FLAT:??_R1A@?0A@EA@CCmdTarget@@8
	DD	FLAT:??_R1A@?0A@EA@CObject@@8
rdata$r	ENDS
;	COMDAT ??_R3CWnd@@8
rdata$r	SEGMENT
??_R3CWnd@@8 DD	00H					; CWnd::`RTTI Class Hierarchy Descriptor'
	DD	00H
	DD	03H
	DD	FLAT:??_R2CWnd@@8
rdata$r	ENDS
;	COMDAT ??_R0?AVCWnd@@@8
data$rs	SEGMENT
??_R0?AVCWnd@@@8 DD FLAT:??_7type_info@@6B@		; CWnd `RTTI Type Descriptor'
	DD	00H
	DB	'.?AVCWnd@@', 00H
data$rs	ENDS
;	COMDAT ??_R1A@?0A@EA@CWnd@@8
rdata$r	SEGMENT
??_R1A@?0A@EA@CWnd@@8 DD FLAT:??_R0?AVCWnd@@@8		; CWnd::`RTTI Base Class Descriptor at (0,-1,0,64)'
	DD	02H
	DD	00H
	DD	0ffffffffH
	DD	00H
	DD	040H
	DD	FLAT:??_R3CWnd@@8
rdata$r	ENDS
;	COMDAT ??_R1A@?0A@EA@CObject@@8
rdata$r	SEGMENT
??_R1A@?0A@EA@CObject@@8 DD FLAT:??_R0?AVCObject@@@8	; CObject::`RTTI Base Class Descriptor at (0,-1,0,64)'
	DD	00H
	DD	00H
	DD	0ffffffffH
	DD	00H
	DD	040H
	DD	FLAT:??_R3CObject@@8
rdata$r	ENDS
;	COMDAT ??_R2CObject@@8
rdata$r	SEGMENT
??_R2CObject@@8 DD FLAT:??_R1A@?0A@EA@CObject@@8	; CObject::`RTTI Base Class Array'
rdata$r	ENDS
;	COMDAT ??_R3CObject@@8
rdata$r	SEGMENT
??_R3CObject@@8 DD 00H					; CObject::`RTTI Class Hierarchy Descriptor'
	DD	00H
	DD	01H
	DD	FLAT:??_R2CObject@@8
rdata$r	ENDS
;	COMDAT ??_R0?AVCObject@@@8
data$rs	SEGMENT
??_R0?AVCObject@@@8 DD FLAT:??_7type_info@@6B@		; CObject `RTTI Type Descriptor'
	DD	00H
	DB	'.?AVCObject@@', 00H
data$rs	ENDS
;	COMDAT ??_7CCommonDialog@@6B@
CONST	SEGMENT
??_7CCommonDialog@@6B@ DD FLAT:??_R4CCommonDialog@@6B@	; CCommonDialog::`vftable'
	DD	FLAT:?GetRuntimeClass@CCommonDialog@@UBEPAUCRuntimeClass@@XZ
	DD	FLAT:??_ECCommonDialog@@UAEPAXI@Z
	DD	FLAT:?Serialize@CObject@@UAEXAAVCArchive@@@Z
	DD	FLAT:?AssertValid@CObject@@UBEXXZ
	DD	FLAT:?Dump@CObject@@UBEXAAVCDumpContext@@@Z
	DD	FLAT:?OnCmdMsg@CDialog@@UAEHIHPAXPAUAFX_CMDHANDLERINFO@@@Z
	DD	FLAT:?OnFinalRelease@CWnd@@UAEXXZ
	DD	FLAT:?IsInvokeAllowed@CCmdTarget@@UAEHJ@Z
	DD	FLAT:?GetDispatchIID@CCmdTarget@@UAEHPAU_GUID@@@Z
	DD	FLAT:?GetTypeInfoCount@CCmdTarget@@UAEIXZ
	DD	FLAT:?GetTypeLibCache@CCmdTarget@@UAEPAVCTypeLibCache@@XZ
	DD	FLAT:?GetTypeLib@CCmdTarget@@UAEJKPAPAUITypeLib@@@Z
	DD	FLAT:?GetMessageMap@CCommonDialog@@MBEPBUAFX_MSGMAP@@XZ
	DD	FLAT:?GetCommandMap@CCmdTarget@@MBEPBUAFX_OLECMDMAP@@XZ
	DD	FLAT:?GetDispatchMap@CCmdTarget@@MBEPBUAFX_DISPMAP@@XZ
	DD	FLAT:?GetConnectionMap@CCmdTarget@@MBEPBUAFX_CONNECTIONMAP@@XZ
	DD	FLAT:?GetInterfaceMap@CWnd@@MBEPBUAFX_INTERFACEMAP@@XZ
	DD	FLAT:?GetEventSinkMap@CCmdTarget@@MBEPBUAFX_EVENTSINKMAP@@XZ
	DD	FLAT:?OnCreateAggregates@CCmdTarget@@UAEHXZ
	DD	FLAT:?GetInterfaceHook@CCmdTarget@@UAEPAUIUnknown@@PBX@Z
	DD	FLAT:?GetExtraConnectionPoints@CCmdTarget@@MAEHPAVCPtrArray@@@Z
	DD	FLAT:?GetConnectionHook@CCmdTarget@@MAEPAUIConnectionPoint@@ABU_GUID@@@Z
	DD	FLAT:?PreSubclassWindow@CWnd@@UAEXXZ
	DD	FLAT:?Create@CWnd@@UAEHPBD0KABUtagRECT@@PAV1@IPAUCCreateContext@@@Z
	DD	FLAT:?CreateEx@CWnd@@UAEHKPBD0KABUtagRECT@@PAV1@IPAX@Z
	DD	FLAT:?CreateEx@CWnd@@UAEHKPBD0KHHHHPAUHWND__@@PAUHMENU__@@PAX@Z
	DD	FLAT:?DestroyWindow@CWnd@@UAEHXZ
	DD	FLAT:?PreCreateWindow@CWnd@@UAEHAAUtagCREATESTRUCTA@@@Z
	DD	FLAT:?CalcWindowRect@CWnd@@UAEXPAUtagRECT@@I@Z
	DD	FLAT:?GetMenu@CWnd@@UBEPAVCMenu@@XZ
	DD	FLAT:?SetMenu@CWnd@@UAEHPAVCMenu@@@Z
	DD	FLAT:?OnToolHitTest@CWnd@@UBEHVCPoint@@PAUtagTOOLINFOA@@@Z
	DD	FLAT:?GetScrollBarCtrl@CWnd@@UBEPAVCScrollBar@@H@Z
	DD	FLAT:?WinHelpA@CWnd@@UAEXKI@Z
	DD	FLAT:?HtmlHelpA@CWnd@@UAEXKI@Z
	DD	FLAT:?WinHelpInternal@CWnd@@UAEXKI@Z
	DD	FLAT:?ContinueModal@CWnd@@UAEHXZ
	DD	FLAT:?EndModalLoop@CWnd@@UAEXH@Z
	DD	FLAT:?OnDrawIconicThumbnailOrLivePreview@CWnd@@UAEXAAVCDC@@VCRect@@VCSize@@HAAH@Z
	DD	FLAT:?EnsureStdObj@CWnd@@UAEJXZ
	DD	FLAT:?get_accParent@CWnd@@UAEJPAPAUIDispatch@@@Z
	DD	FLAT:?get_accChildCount@CWnd@@UAEJPAJ@Z
	DD	FLAT:?get_accChild@CWnd@@UAEJUtagVARIANT@@PAPAUIDispatch@@@Z
	DD	FLAT:?get_accName@CWnd@@UAEJUtagVARIANT@@PAPA_W@Z
	DD	FLAT:?get_accValue@CWnd@@UAEJUtagVARIANT@@PAPA_W@Z
	DD	FLAT:?get_accDescription@CWnd@@UAEJUtagVARIANT@@PAPA_W@Z
	DD	FLAT:?get_accRole@CWnd@@UAEJUtagVARIANT@@PAU2@@Z
	DD	FLAT:?get_accState@CWnd@@UAEJUtagVARIANT@@PAU2@@Z
	DD	FLAT:?get_accHelp@CWnd@@UAEJUtagVARIANT@@PAPA_W@Z
	DD	FLAT:?get_accHelpTopic@CWnd@@UAEJPAPA_WUtagVARIANT@@PAJ@Z
	DD	FLAT:?get_accKeyboardShortcut@CWnd@@UAEJUtagVARIANT@@PAPA_W@Z
	DD	FLAT:?get_accFocus@CWnd@@UAEJPAUtagVARIANT@@@Z
	DD	FLAT:?get_accSelection@CWnd@@UAEJPAUtagVARIANT@@@Z
	DD	FLAT:?get_accDefaultAction@CWnd@@UAEJUtagVARIANT@@PAPA_W@Z
	DD	FLAT:?accSelect@CWnd@@UAEJJUtagVARIANT@@@Z
	DD	FLAT:?accLocation@CWnd@@UAEJPAJ000UtagVARIANT@@@Z
	DD	FLAT:?accNavigate@CWnd@@UAEJJUtagVARIANT@@PAU2@@Z
	DD	FLAT:?accHitTest@CWnd@@UAEJJJPAUtagVARIANT@@@Z
	DD	FLAT:?accDoDefaultAction@CWnd@@UAEJUtagVARIANT@@@Z
	DD	FLAT:?put_accName@CWnd@@UAEJUtagVARIANT@@PA_W@Z
	DD	FLAT:?put_accValue@CWnd@@UAEJUtagVARIANT@@PA_W@Z
	DD	FLAT:?SetProxy@CWnd@@UAEJPAUIAccessibleProxy@@@Z
	DD	FLAT:?CreateAccessibleProxy@CWnd@@UAEJIJPAJ@Z
	DD	FLAT:?OnCommand@CWnd@@MAEHIJ@Z
	DD	FLAT:?OnNotify@CWnd@@MAEHIJPAJ@Z
	DD	FLAT:?GetSuperWndProcAddr@CWnd@@MAEPAP6GJPAUHWND__@@IIJ@ZXZ
	DD	FLAT:?DoDataExchange@CWnd@@MAEXPAVCDataExchange@@@Z
	DD	FLAT:?BeginModalState@CWnd@@UAEXXZ
	DD	FLAT:?EndModalState@CWnd@@UAEXXZ
	DD	FLAT:?PreTranslateMessage@CDialog@@UAEHPAUtagMSG@@@Z
	DD	FLAT:?OnAmbientProperty@CWnd@@UAEHPAVCOleControlSite@@JPAUtagVARIANT@@@Z
	DD	FLAT:?WindowProc@CWnd@@MAEJIIJ@Z
	DD	FLAT:?OnWndMsg@CWnd@@MAEHIIJPAJ@Z
	DD	FLAT:?DefWindowProcA@CWnd@@MAEJIIJ@Z
	DD	FLAT:?PostNcDestroy@CWnd@@MAEXXZ
	DD	FLAT:?OnChildNotify@CWnd@@MAEHIIJPAJ@Z
	DD	FLAT:?OnTouchInputs@CWnd@@MAEHIPAUtagTOUCHINPUT@@@Z
	DD	FLAT:?OnTouchInput@CWnd@@MAEHVCPoint@@HHPAUtagTOUCHINPUT@@@Z
	DD	FLAT:?GetGestureStatus@CWnd@@MAEKVCPoint@@@Z
	DD	FLAT:?OnGestureZoom@CWnd@@MAEHVCPoint@@J@Z
	DD	FLAT:?OnGesturePan@CWnd@@MAEHVCPoint@@0@Z
	DD	FLAT:?OnGestureRotate@CWnd@@MAEHVCPoint@@N@Z
	DD	FLAT:?OnGestureTwoFingerTap@CWnd@@MAEHVCPoint@@@Z
	DD	FLAT:?OnGesturePressAndTap@CWnd@@MAEHVCPoint@@J@Z
	DD	FLAT:?ResizeDynamicLayout@CWnd@@MAEXXZ
	DD	FLAT:?CheckAutoCenter@CDialog@@UAEHXZ
	DD	FLAT:?IsFrameWnd@CWnd@@UBEHXZ
	DD	FLAT:?CreateControlContainer@CWnd@@MAEHPAPAVCOleControlContainer@@@Z
	DD	FLAT:?CreateControlSite@CWnd@@MAEHPAVCOleControlContainer@@PAPAVCOleControlSite@@IABU_GUID@@@Z
	DD	FLAT:?SetOccDialogInfo@CDialog@@MAEHPAU_AFX_OCC_DIALOG_INFO@@@Z
	DD	FLAT:?GetOccDialogInfo@CDialog@@MAEPAU_AFX_OCC_DIALOG_INFO@@XZ
	DD	FLAT:?Create@CDialog@@UAEHIPAVCWnd@@@Z
	DD	FLAT:?Create@CDialog@@UAEHPBDPAVCWnd@@@Z
	DD	FLAT:?CreateIndirect@CDialog@@UAEHPAXPAVCWnd@@@Z
	DD	FLAT:?CreateIndirect@CDialog@@UAEHPBUDLGTEMPLATE@@PAVCWnd@@PAX@Z
	DD	FLAT:?DoModal@CDialog@@UAEHXZ
	DD	FLAT:?OnInitDialog@CDialog@@UAEHXZ
	DD	FLAT:?OnSetFont@CDialog@@UAEXPAVCFont@@@Z
	DD	FLAT:?OnOK@CCommonDialog@@MAEXXZ
	DD	FLAT:?OnCancel@CCommonDialog@@MAEXXZ
	DD	FLAT:?PreInitDialog@CDialog@@MAEXXZ
CONST	ENDS
;	COMDAT ??_7CComboBox@@6B@
CONST	SEGMENT
??_7CComboBox@@6B@ DD FLAT:??_R4CComboBox@@6B@		; CComboBox::`vftable'
	DD	FLAT:?GetRuntimeClass@CComboBox@@UBEPAUCRuntimeClass@@XZ
	DD	FLAT:??_ECComboBox@@UAEPAXI@Z
	DD	FLAT:?Serialize@CObject@@UAEXAAVCArchive@@@Z
	DD	FLAT:?AssertValid@CObject@@UBEXXZ
	DD	FLAT:?Dump@CObject@@UBEXAAVCDumpContext@@@Z
	DD	FLAT:?OnCmdMsg@CCmdTarget@@UAEHIHPAXPAUAFX_CMDHANDLERINFO@@@Z
	DD	FLAT:?OnFinalRelease@CWnd@@UAEXXZ
	DD	FLAT:?IsInvokeAllowed@CCmdTarget@@UAEHJ@Z
	DD	FLAT:?GetDispatchIID@CCmdTarget@@UAEHPAU_GUID@@@Z
	DD	FLAT:?GetTypeInfoCount@CCmdTarget@@UAEIXZ
	DD	FLAT:?GetTypeLibCache@CCmdTarget@@UAEPAVCTypeLibCache@@XZ
	DD	FLAT:?GetTypeLib@CCmdTarget@@UAEJKPAPAUITypeLib@@@Z
	DD	FLAT:?GetMessageMap@CWnd@@MBEPBUAFX_MSGMAP@@XZ
	DD	FLAT:?GetCommandMap@CCmdTarget@@MBEPBUAFX_OLECMDMAP@@XZ
	DD	FLAT:?GetDispatchMap@CCmdTarget@@MBEPBUAFX_DISPMAP@@XZ
	DD	FLAT:?GetConnectionMap@CCmdTarget@@MBEPBUAFX_CONNECTIONMAP@@XZ
	DD	FLAT:?GetInterfaceMap@CWnd@@MBEPBUAFX_INTERFACEMAP@@XZ
	DD	FLAT:?GetEventSinkMap@CCmdTarget@@MBEPBUAFX_EVENTSINKMAP@@XZ
	DD	FLAT:?OnCreateAggregates@CCmdTarget@@UAEHXZ
	DD	FLAT:?GetInterfaceHook@CCmdTarget@@UAEPAUIUnknown@@PBX@Z
	DD	FLAT:?GetExtraConnectionPoints@CCmdTarget@@MAEHPAVCPtrArray@@@Z
	DD	FLAT:?GetConnectionHook@CCmdTarget@@MAEPAUIConnectionPoint@@ABU_GUID@@@Z
	DD	FLAT:?PreSubclassWindow@CWnd@@UAEXXZ
	DD	FLAT:?Create@CWnd@@UAEHPBD0KABUtagRECT@@PAV1@IPAUCCreateContext@@@Z
	DD	FLAT:?CreateEx@CWnd@@UAEHKPBD0KABUtagRECT@@PAV1@IPAX@Z
	DD	FLAT:?CreateEx@CWnd@@UAEHKPBD0KHHHHPAUHWND__@@PAUHMENU__@@PAX@Z
	DD	FLAT:?DestroyWindow@CWnd@@UAEHXZ
	DD	FLAT:?PreCreateWindow@CWnd@@UAEHAAUtagCREATESTRUCTA@@@Z
	DD	FLAT:?CalcWindowRect@CWnd@@UAEXPAUtagRECT@@I@Z
	DD	FLAT:?GetMenu@CWnd@@UBEPAVCMenu@@XZ
	DD	FLAT:?SetMenu@CWnd@@UAEHPAVCMenu@@@Z
	DD	FLAT:?OnToolHitTest@CWnd@@UBEHVCPoint@@PAUtagTOOLINFOA@@@Z
	DD	FLAT:?GetScrollBarCtrl@CWnd@@UBEPAVCScrollBar@@H@Z
	DD	FLAT:?WinHelpA@CWnd@@UAEXKI@Z
	DD	FLAT:?HtmlHelpA@CWnd@@UAEXKI@Z
	DD	FLAT:?WinHelpInternal@CWnd@@UAEXKI@Z
	DD	FLAT:?ContinueModal@CWnd@@UAEHXZ
	DD	FLAT:?EndModalLoop@CWnd@@UAEXH@Z
	DD	FLAT:?OnDrawIconicThumbnailOrLivePreview@CWnd@@UAEXAAVCDC@@VCRect@@VCSize@@HAAH@Z
	DD	FLAT:?EnsureStdObj@CWnd@@UAEJXZ
	DD	FLAT:?get_accParent@CWnd@@UAEJPAPAUIDispatch@@@Z
	DD	FLAT:?get_accChildCount@CWnd@@UAEJPAJ@Z
	DD	FLAT:?get_accChild@CWnd@@UAEJUtagVARIANT@@PAPAUIDispatch@@@Z
	DD	FLAT:?get_accName@CWnd@@UAEJUtagVARIANT@@PAPA_W@Z
	DD	FLAT:?get_accValue@CWnd@@UAEJUtagVARIANT@@PAPA_W@Z
	DD	FLAT:?get_accDescription@CWnd@@UAEJUtagVARIANT@@PAPA_W@Z
	DD	FLAT:?get_accRole@CWnd@@UAEJUtagVARIANT@@PAU2@@Z
	DD	FLAT:?get_accState@CWnd@@UAEJUtagVARIANT@@PAU2@@Z
	DD	FLAT:?get_accHelp@CWnd@@UAEJUtagVARIANT@@PAPA_W@Z
	DD	FLAT:?get_accHelpTopic@CWnd@@UAEJPAPA_WUtagVARIANT@@PAJ@Z
	DD	FLAT:?get_accKeyboardShortcut@CWnd@@UAEJUtagVARIANT@@PAPA_W@Z
	DD	FLAT:?get_accFocus@CWnd@@UAEJPAUtagVARIANT@@@Z
	DD	FLAT:?get_accSelection@CWnd@@UAEJPAUtagVARIANT@@@Z
	DD	FLAT:?get_accDefaultAction@CWnd@@UAEJUtagVARIANT@@PAPA_W@Z
	DD	FLAT:?accSelect@CWnd@@UAEJJUtagVARIANT@@@Z
	DD	FLAT:?accLocation@CWnd@@UAEJPAJ000UtagVARIANT@@@Z
	DD	FLAT:?accNavigate@CWnd@@UAEJJUtagVARIANT@@PAU2@@Z
	DD	FLAT:?accHitTest@CWnd@@UAEJJJPAUtagVARIANT@@@Z
	DD	FLAT:?accDoDefaultAction@CWnd@@UAEJUtagVARIANT@@@Z
	DD	FLAT:?put_accName@CWnd@@UAEJUtagVARIANT@@PA_W@Z
	DD	FLAT:?put_accValue@CWnd@@UAEJUtagVARIANT@@PA_W@Z
	DD	FLAT:?SetProxy@CWnd@@UAEJPAUIAccessibleProxy@@@Z
	DD	FLAT:?CreateAccessibleProxy@CWnd@@UAEJIJPAJ@Z
	DD	FLAT:?OnCommand@CWnd@@MAEHIJ@Z
	DD	FLAT:?OnNotify@CWnd@@MAEHIJPAJ@Z
	DD	FLAT:?GetSuperWndProcAddr@CWnd@@MAEPAP6GJPAUHWND__@@IIJ@ZXZ
	DD	FLAT:?DoDataExchange@CWnd@@MAEXPAVCDataExchange@@@Z
	DD	FLAT:?BeginModalState@CWnd@@UAEXXZ
	DD	FLAT:?EndModalState@CWnd@@UAEXXZ
	DD	FLAT:?PreTranslateMessage@CWnd@@UAEHPAUtagMSG@@@Z
	DD	FLAT:?OnAmbientProperty@CWnd@@UAEHPAVCOleControlSite@@JPAUtagVARIANT@@@Z
	DD	FLAT:?WindowProc@CWnd@@MAEJIIJ@Z
	DD	FLAT:?OnWndMsg@CWnd@@MAEHIIJPAJ@Z
	DD	FLAT:?DefWindowProcA@CWnd@@MAEJIIJ@Z
	DD	FLAT:?PostNcDestroy@CWnd@@MAEXXZ
	DD	FLAT:?OnChildNotify@CComboBox@@MAEHIIJPAJ@Z
	DD	FLAT:?OnTouchInputs@CWnd@@MAEHIPAUtagTOUCHINPUT@@@Z
	DD	FLAT:?OnTouchInput@CWnd@@MAEHVCPoint@@HHPAUtagTOUCHINPUT@@@Z
	DD	FLAT:?GetGestureStatus@CWnd@@MAEKVCPoint@@@Z
	DD	FLAT:?OnGestureZoom@CWnd@@MAEHVCPoint@@J@Z
	DD	FLAT:?OnGesturePan@CWnd@@MAEHVCPoint@@0@Z
	DD	FLAT:?OnGestureRotate@CWnd@@MAEHVCPoint@@N@Z
	DD	FLAT:?OnGestureTwoFingerTap@CWnd@@MAEHVCPoint@@@Z
	DD	FLAT:?OnGesturePressAndTap@CWnd@@MAEHVCPoint@@J@Z
	DD	FLAT:?ResizeDynamicLayout@CWnd@@MAEXXZ
	DD	FLAT:?CheckAutoCenter@CWnd@@UAEHXZ
	DD	FLAT:?IsFrameWnd@CWnd@@UBEHXZ
	DD	FLAT:?CreateControlContainer@CWnd@@MAEHPAPAVCOleControlContainer@@@Z
	DD	FLAT:?CreateControlSite@CWnd@@MAEHPAVCOleControlContainer@@PAPAVCOleControlSite@@IABU_GUID@@@Z
	DD	FLAT:?SetOccDialogInfo@CWnd@@MAEHPAU_AFX_OCC_DIALOG_INFO@@@Z
	DD	FLAT:?GetOccDialogInfo@CWnd@@MAEPAU_AFX_OCC_DIALOG_INFO@@XZ
	DD	FLAT:?Create@CComboBox@@UAEHKABUtagRECT@@PAVCWnd@@I@Z
	DD	FLAT:?DrawItem@CComboBox@@UAEXPAUtagDRAWITEMSTRUCT@@@Z
	DD	FLAT:?MeasureItem@CComboBox@@UAEXPAUtagMEASUREITEMSTRUCT@@@Z
	DD	FLAT:?CompareItem@CComboBox@@UAEHPAUtagCOMPAREITEMSTRUCT@@@Z
	DD	FLAT:?DeleteItem@CComboBox@@UAEXPAUtagDELETEITEMSTRUCT@@@Z
CONST	ENDS
;	COMDAT ??_7CButton@@6B@
CONST	SEGMENT
??_7CButton@@6B@ DD FLAT:??_R4CButton@@6B@		; CButton::`vftable'
	DD	FLAT:?GetRuntimeClass@CButton@@UBEPAUCRuntimeClass@@XZ
	DD	FLAT:??_ECButton@@UAEPAXI@Z
	DD	FLAT:?Serialize@CObject@@UAEXAAVCArchive@@@Z
	DD	FLAT:?AssertValid@CObject@@UBEXXZ
	DD	FLAT:?Dump@CObject@@UBEXAAVCDumpContext@@@Z
	DD	FLAT:?OnCmdMsg@CCmdTarget@@UAEHIHPAXPAUAFX_CMDHANDLERINFO@@@Z
	DD	FLAT:?OnFinalRelease@CWnd@@UAEXXZ
	DD	FLAT:?IsInvokeAllowed@CCmdTarget@@UAEHJ@Z
	DD	FLAT:?GetDispatchIID@CCmdTarget@@UAEHPAU_GUID@@@Z
	DD	FLAT:?GetTypeInfoCount@CCmdTarget@@UAEIXZ
	DD	FLAT:?GetTypeLibCache@CCmdTarget@@UAEPAVCTypeLibCache@@XZ
	DD	FLAT:?GetTypeLib@CCmdTarget@@UAEJKPAPAUITypeLib@@@Z
	DD	FLAT:?GetMessageMap@CWnd@@MBEPBUAFX_MSGMAP@@XZ
	DD	FLAT:?GetCommandMap@CCmdTarget@@MBEPBUAFX_OLECMDMAP@@XZ
	DD	FLAT:?GetDispatchMap@CCmdTarget@@MBEPBUAFX_DISPMAP@@XZ
	DD	FLAT:?GetConnectionMap@CCmdTarget@@MBEPBUAFX_CONNECTIONMAP@@XZ
	DD	FLAT:?GetInterfaceMap@CWnd@@MBEPBUAFX_INTERFACEMAP@@XZ
	DD	FLAT:?GetEventSinkMap@CCmdTarget@@MBEPBUAFX_EVENTSINKMAP@@XZ
	DD	FLAT:?OnCreateAggregates@CCmdTarget@@UAEHXZ
	DD	FLAT:?GetInterfaceHook@CCmdTarget@@UAEPAUIUnknown@@PBX@Z
	DD	FLAT:?GetExtraConnectionPoints@CCmdTarget@@MAEHPAVCPtrArray@@@Z
	DD	FLAT:?GetConnectionHook@CCmdTarget@@MAEPAUIConnectionPoint@@ABU_GUID@@@Z
	DD	FLAT:?PreSubclassWindow@CWnd@@UAEXXZ
	DD	FLAT:?Create@CWnd@@UAEHPBD0KABUtagRECT@@PAV1@IPAUCCreateContext@@@Z
	DD	FLAT:?CreateEx@CWnd@@UAEHKPBD0KABUtagRECT@@PAV1@IPAX@Z
	DD	FLAT:?CreateEx@CWnd@@UAEHKPBD0KHHHHPAUHWND__@@PAUHMENU__@@PAX@Z
	DD	FLAT:?DestroyWindow@CWnd@@UAEHXZ
	DD	FLAT:?PreCreateWindow@CWnd@@UAEHAAUtagCREATESTRUCTA@@@Z
	DD	FLAT:?CalcWindowRect@CWnd@@UAEXPAUtagRECT@@I@Z
	DD	FLAT:?GetMenu@CWnd@@UBEPAVCMenu@@XZ
	DD	FLAT:?SetMenu@CWnd@@UAEHPAVCMenu@@@Z
	DD	FLAT:?OnToolHitTest@CWnd@@UBEHVCPoint@@PAUtagTOOLINFOA@@@Z
	DD	FLAT:?GetScrollBarCtrl@CWnd@@UBEPAVCScrollBar@@H@Z
	DD	FLAT:?WinHelpA@CWnd@@UAEXKI@Z
	DD	FLAT:?HtmlHelpA@CWnd@@UAEXKI@Z
	DD	FLAT:?WinHelpInternal@CWnd@@UAEXKI@Z
	DD	FLAT:?ContinueModal@CWnd@@UAEHXZ
	DD	FLAT:?EndModalLoop@CWnd@@UAEXH@Z
	DD	FLAT:?OnDrawIconicThumbnailOrLivePreview@CWnd@@UAEXAAVCDC@@VCRect@@VCSize@@HAAH@Z
	DD	FLAT:?EnsureStdObj@CWnd@@UAEJXZ
	DD	FLAT:?get_accParent@CWnd@@UAEJPAPAUIDispatch@@@Z
	DD	FLAT:?get_accChildCount@CWnd@@UAEJPAJ@Z
	DD	FLAT:?get_accChild@CWnd@@UAEJUtagVARIANT@@PAPAUIDispatch@@@Z
	DD	FLAT:?get_accName@CWnd@@UAEJUtagVARIANT@@PAPA_W@Z
	DD	FLAT:?get_accValue@CWnd@@UAEJUtagVARIANT@@PAPA_W@Z
	DD	FLAT:?get_accDescription@CWnd@@UAEJUtagVARIANT@@PAPA_W@Z
	DD	FLAT:?get_accRole@CWnd@@UAEJUtagVARIANT@@PAU2@@Z
	DD	FLAT:?get_accState@CWnd@@UAEJUtagVARIANT@@PAU2@@Z
	DD	FLAT:?get_accHelp@CWnd@@UAEJUtagVARIANT@@PAPA_W@Z
	DD	FLAT:?get_accHelpTopic@CWnd@@UAEJPAPA_WUtagVARIANT@@PAJ@Z
	DD	FLAT:?get_accKeyboardShortcut@CWnd@@UAEJUtagVARIANT@@PAPA_W@Z
	DD	FLAT:?get_accFocus@CWnd@@UAEJPAUtagVARIANT@@@Z
	DD	FLAT:?get_accSelection@CWnd@@UAEJPAUtagVARIANT@@@Z
	DD	FLAT:?get_accDefaultAction@CWnd@@UAEJUtagVARIANT@@PAPA_W@Z
	DD	FLAT:?accSelect@CWnd@@UAEJJUtagVARIANT@@@Z
	DD	FLAT:?accLocation@CWnd@@UAEJPAJ000UtagVARIANT@@@Z
	DD	FLAT:?accNavigate@CWnd@@UAEJJUtagVARIANT@@PAU2@@Z
	DD	FLAT:?accHitTest@CWnd@@UAEJJJPAUtagVARIANT@@@Z
	DD	FLAT:?accDoDefaultAction@CWnd@@UAEJUtagVARIANT@@@Z
	DD	FLAT:?put_accName@CWnd@@UAEJUtagVARIANT@@PA_W@Z
	DD	FLAT:?put_accValue@CWnd@@UAEJUtagVARIANT@@PA_W@Z
	DD	FLAT:?SetProxy@CWnd@@UAEJPAUIAccessibleProxy@@@Z
	DD	FLAT:?CreateAccessibleProxy@CWnd@@UAEJIJPAJ@Z
	DD	FLAT:?OnCommand@CWnd@@MAEHIJ@Z
	DD	FLAT:?OnNotify@CWnd@@MAEHIJPAJ@Z
	DD	FLAT:?GetSuperWndProcAddr@CWnd@@MAEPAP6GJPAUHWND__@@IIJ@ZXZ
	DD	FLAT:?DoDataExchange@CWnd@@MAEXPAVCDataExchange@@@Z
	DD	FLAT:?BeginModalState@CWnd@@UAEXXZ
	DD	FLAT:?EndModalState@CWnd@@UAEXXZ
	DD	FLAT:?PreTranslateMessage@CWnd@@UAEHPAUtagMSG@@@Z
	DD	FLAT:?OnAmbientProperty@CWnd@@UAEHPAVCOleControlSite@@JPAUtagVARIANT@@@Z
	DD	FLAT:?WindowProc@CWnd@@MAEJIIJ@Z
	DD	FLAT:?OnWndMsg@CWnd@@MAEHIIJPAJ@Z
	DD	FLAT:?DefWindowProcA@CWnd@@MAEJIIJ@Z
	DD	FLAT:?PostNcDestroy@CWnd@@MAEXXZ
	DD	FLAT:?OnChildNotify@CButton@@MAEHIIJPAJ@Z
	DD	FLAT:?OnTouchInputs@CWnd@@MAEHIPAUtagTOUCHINPUT@@@Z
	DD	FLAT:?OnTouchInput@CWnd@@MAEHVCPoint@@HHPAUtagTOUCHINPUT@@@Z
	DD	FLAT:?GetGestureStatus@CWnd@@MAEKVCPoint@@@Z
	DD	FLAT:?OnGestureZoom@CWnd@@MAEHVCPoint@@J@Z
	DD	FLAT:?OnGesturePan@CWnd@@MAEHVCPoint@@0@Z
	DD	FLAT:?OnGestureRotate@CWnd@@MAEHVCPoint@@N@Z
	DD	FLAT:?OnGestureTwoFingerTap@CWnd@@MAEHVCPoint@@@Z
	DD	FLAT:?OnGesturePressAndTap@CWnd@@MAEHVCPoint@@J@Z
	DD	FLAT:?ResizeDynamicLayout@CWnd@@MAEXXZ
	DD	FLAT:?CheckAutoCenter@CWnd@@UAEHXZ
	DD	FLAT:?IsFrameWnd@CWnd@@UBEHXZ
	DD	FLAT:?CreateControlContainer@CWnd@@MAEHPAPAVCOleControlContainer@@@Z
	DD	FLAT:?CreateControlSite@CWnd@@MAEHPAVCOleControlContainer@@PAPAVCOleControlSite@@IABU_GUID@@@Z
	DD	FLAT:?SetOccDialogInfo@CWnd@@MAEHPAU_AFX_OCC_DIALOG_INFO@@@Z
	DD	FLAT:?GetOccDialogInfo@CWnd@@MAEPAU_AFX_OCC_DIALOG_INFO@@XZ
	DD	FLAT:?Create@CButton@@UAEHPBDKABUtagRECT@@PAVCWnd@@I@Z
	DD	FLAT:?DrawItem@CButton@@UAEXPAUtagDRAWITEMSTRUCT@@@Z
CONST	ENDS
;	COMDAT ??_C@_00CNPNBAHC@@
CONST	SEGMENT
??_C@_00CNPNBAHC@@ DB 00H				; `string'
CONST	ENDS
;	COMDAT xdata$x
xdata$x	SEGMENT
__unwindtable$?OnColorButton9@CSetting_VolumeMA_Condition@@IAEXXZ DD 0ffffffffH
	DD	FLAT:__unwindfunclet$?OnColorButton9@CSetting_VolumeMA_Condition@@IAEXXZ$0
__ehfuncinfo$?OnColorButton9@CSetting_VolumeMA_Condition@@IAEXXZ DD 019930522H
	DD	01H
	DD	FLAT:__unwindtable$?OnColorButton9@CSetting_VolumeMA_Condition@@IAEXXZ
	DD	2 DUP(00H)
	DD	2 DUP(00H)
	DD	00H
	DD	01H
xdata$x	ENDS
;	COMDAT xdata$x
xdata$x	SEGMENT
__unwindtable$?OnColorButton8@CSetting_VolumeMA_Condition@@IAEXXZ DD 0ffffffffH
	DD	FLAT:__unwindfunclet$?OnColorButton8@CSetting_VolumeMA_Condition@@IAEXXZ$0
__ehfuncinfo$?OnColorButton8@CSetting_VolumeMA_Condition@@IAEXXZ DD 019930522H
	DD	01H
	DD	FLAT:__unwindtable$?OnColorButton8@CSetting_VolumeMA_Condition@@IAEXXZ
	DD	2 DUP(00H)
	DD	2 DUP(00H)
	DD	00H
	DD	01H
xdata$x	ENDS
;	COMDAT xdata$x
xdata$x	SEGMENT
__unwindtable$?OnColorButton7@CSetting_VolumeMA_Condition@@IAEXXZ DD 0ffffffffH
	DD	FLAT:__unwindfunclet$?OnColorButton7@CSetting_VolumeMA_Condition@@IAEXXZ$0
__ehfuncinfo$?OnColorButton7@CSetting_VolumeMA_Condition@@IAEXXZ DD 019930522H
	DD	01H
	DD	FLAT:__unwindtable$?OnColorButton7@CSetting_VolumeMA_Condition@@IAEXXZ
	DD	2 DUP(00H)
	DD	2 DUP(00H)
	DD	00H
	DD	01H
xdata$x	ENDS
;	COMDAT xdata$x
xdata$x	SEGMENT
__unwindtable$?OnColorButton6@CSetting_VolumeMA_Condition@@IAEXXZ DD 0ffffffffH
	DD	FLAT:__unwindfunclet$?OnColorButton6@CSetting_VolumeMA_Condition@@IAEXXZ$0
__ehfuncinfo$?OnColorButton6@CSetting_VolumeMA_Condition@@IAEXXZ DD 019930522H
	DD	01H
	DD	FLAT:__unwindtable$?OnColorButton6@CSetting_VolumeMA_Condition@@IAEXXZ
	DD	2 DUP(00H)
	DD	2 DUP(00H)
	DD	00H
	DD	01H
xdata$x	ENDS
;	COMDAT xdata$x
xdata$x	SEGMENT
__unwindtable$?OnColorButton5@CSetting_VolumeMA_Condition@@IAEXXZ DD 0ffffffffH
	DD	FLAT:__unwindfunclet$?OnColorButton5@CSetting_VolumeMA_Condition@@IAEXXZ$0
__ehfuncinfo$?OnColorButton5@CSetting_VolumeMA_Condition@@IAEXXZ DD 019930522H
	DD	01H
	DD	FLAT:__unwindtable$?OnColorButton5@CSetting_VolumeMA_Condition@@IAEXXZ
	DD	2 DUP(00H)
	DD	2 DUP(00H)
	DD	00H
	DD	01H
xdata$x	ENDS
;	COMDAT xdata$x
xdata$x	SEGMENT
__unwindtable$?OnColorButton4@CSetting_VolumeMA_Condition@@IAEXXZ DD 0ffffffffH
	DD	FLAT:__unwindfunclet$?OnColorButton4@CSetting_VolumeMA_Condition@@IAEXXZ$0
__ehfuncinfo$?OnColorButton4@CSetting_VolumeMA_Condition@@IAEXXZ DD 019930522H
	DD	01H
	DD	FLAT:__unwindtable$?OnColorButton4@CSetting_VolumeMA_Condition@@IAEXXZ
	DD	2 DUP(00H)
	DD	2 DUP(00H)
	DD	00H
	DD	01H
xdata$x	ENDS
;	COMDAT xdata$x
xdata$x	SEGMENT
__unwindtable$?OnColorButton3@CSetting_VolumeMA_Condition@@IAEXXZ DD 0ffffffffH
	DD	FLAT:__unwindfunclet$?OnColorButton3@CSetting_VolumeMA_Condition@@IAEXXZ$0
__ehfuncinfo$?OnColorButton3@CSetting_VolumeMA_Condition@@IAEXXZ DD 019930522H
	DD	01H
	DD	FLAT:__unwindtable$?OnColorButton3@CSetting_VolumeMA_Condition@@IAEXXZ
	DD	2 DUP(00H)
	DD	2 DUP(00H)
	DD	00H
	DD	01H
xdata$x	ENDS
;	COMDAT xdata$x
xdata$x	SEGMENT
__unwindtable$?OnColorButton2@CSetting_VolumeMA_Condition@@IAEXXZ DD 0ffffffffH
	DD	FLAT:__unwindfunclet$?OnColorButton2@CSetting_VolumeMA_Condition@@IAEXXZ$0
__ehfuncinfo$?OnColorButton2@CSetting_VolumeMA_Condition@@IAEXXZ DD 019930522H
	DD	01H
	DD	FLAT:__unwindtable$?OnColorButton2@CSetting_VolumeMA_Condition@@IAEXXZ
	DD	2 DUP(00H)
	DD	2 DUP(00H)
	DD	00H
	DD	01H
xdata$x	ENDS
;	COMDAT xdata$x
xdata$x	SEGMENT
__unwindtable$?OnColorButton1@CSetting_VolumeMA_Condition@@IAEXXZ DD 0ffffffffH
	DD	FLAT:__unwindfunclet$?OnColorButton1@CSetting_VolumeMA_Condition@@IAEXXZ$0
__ehfuncinfo$?OnColorButton1@CSetting_VolumeMA_Condition@@IAEXXZ DD 019930522H
	DD	01H
	DD	FLAT:__unwindtable$?OnColorButton1@CSetting_VolumeMA_Condition@@IAEXXZ
	DD	2 DUP(00H)
	DD	2 DUP(00H)
	DD	00H
	DD	01H
xdata$x	ENDS
;	COMDAT xdata$x
xdata$x	SEGMENT
__unwindtable$?OnColorButton0@CSetting_VolumeMA_Condition@@IAEXXZ DD 0ffffffffH
	DD	FLAT:__unwindfunclet$?OnColorButton0@CSetting_VolumeMA_Condition@@IAEXXZ$0
__ehfuncinfo$?OnColorButton0@CSetting_VolumeMA_Condition@@IAEXXZ DD 019930522H
	DD	01H
	DD	FLAT:__unwindtable$?OnColorButton0@CSetting_VolumeMA_Condition@@IAEXXZ
	DD	2 DUP(00H)
	DD	2 DUP(00H)
	DD	00H
	DD	01H
xdata$x	ENDS
;	COMDAT xdata$x
xdata$x	SEGMENT
__ehfuncinfo$??1CSetting_VolumeMA_Condition@@UAE@XZ DD 019930522H
	DD	00H
	DD	00H
	DD	2 DUP(00H)
	DD	2 DUP(00H)
	DD	00H
	DD	05H
xdata$x	ENDS
;	COMDAT xdata$x
xdata$x	SEGMENT
__ehfuncinfo$??0CSetting_VolumeMA_Condition@@QAE@PAVCWnd@@@Z DD 019930522H
	DD	046H
	DD	FLAT:__unwindtable$??0CSetting_VolumeMA_Condition@@QAE@PAVCWnd@@@Z
	DD	2 DUP(00H)
	DD	2 DUP(00H)
	DD	00H
	DD	01H
__unwindtable$??0CSetting_VolumeMA_Condition@@QAE@PAVCWnd@@@Z DD 0ffffffffH
	DD	FLAT:__unwindfunclet$??0CSetting_VolumeMA_Condition@@QAE@PAVCWnd@@@Z$0
	DD	00H
	DD	FLAT:__unwindfunclet$??0CSetting_VolumeMA_Condition@@QAE@PAVCWnd@@@Z$1
	DD	01H
	DD	FLAT:__unwindfunclet$??0CSetting_VolumeMA_Condition@@QAE@PAVCWnd@@@Z$2
	DD	02H
	DD	FLAT:__unwindfunclet$??0CSetting_VolumeMA_Condition@@QAE@PAVCWnd@@@Z$3
	DD	03H
	DD	FLAT:__unwindfunclet$??0CSetting_VolumeMA_Condition@@QAE@PAVCWnd@@@Z$4
	DD	04H
	DD	FLAT:__unwindfunclet$??0CSetting_VolumeMA_Condition@@QAE@PAVCWnd@@@Z$5
	DD	05H
	DD	FLAT:__unwindfunclet$??0CSetting_VolumeMA_Condition@@QAE@PAVCWnd@@@Z$6
	DD	06H
	DD	FLAT:__unwindfunclet$??0CSetting_VolumeMA_Condition@@QAE@PAVCWnd@@@Z$7
	DD	07H
	DD	FLAT:__unwindfunclet$??0CSetting_VolumeMA_Condition@@QAE@PAVCWnd@@@Z$8
	DD	08H
	DD	FLAT:__unwindfunclet$??0CSetting_VolumeMA_Condition@@QAE@PAVCWnd@@@Z$9
	DD	09H
	DD	FLAT:__unwindfunclet$??0CSetting_VolumeMA_Condition@@QAE@PAVCWnd@@@Z$10
	DD	0aH
	DD	FLAT:__unwindfunclet$??0CSetting_VolumeMA_Condition@@QAE@PAVCWnd@@@Z$11
	DD	0bH
	DD	FLAT:__unwindfunclet$??0CSetting_VolumeMA_Condition@@QAE@PAVCWnd@@@Z$12
	DD	0cH
	DD	FLAT:__unwindfunclet$??0CSetting_VolumeMA_Condition@@QAE@PAVCWnd@@@Z$13
	DD	0dH
	DD	FLAT:__unwindfunclet$??0CSetting_VolumeMA_Condition@@QAE@PAVCWnd@@@Z$14
	DD	0eH
	DD	FLAT:__unwindfunclet$??0CSetting_VolumeMA_Condition@@QAE@PAVCWnd@@@Z$15
	DD	0fH
	DD	FLAT:__unwindfunclet$??0CSetting_VolumeMA_Condition@@QAE@PAVCWnd@@@Z$16
	DD	010H
	DD	FLAT:__unwindfunclet$??0CSetting_VolumeMA_Condition@@QAE@PAVCWnd@@@Z$17
	DD	011H
	DD	FLAT:__unwindfunclet$??0CSetting_VolumeMA_Condition@@QAE@PAVCWnd@@@Z$18
	DD	012H
	DD	FLAT:__unwindfunclet$??0CSetting_VolumeMA_Condition@@QAE@PAVCWnd@@@Z$19
	DD	013H
	DD	FLAT:__unwindfunclet$??0CSetting_VolumeMA_Condition@@QAE@PAVCWnd@@@Z$20
	DD	014H
	DD	FLAT:__unwindfunclet$??0CSetting_VolumeMA_Condition@@QAE@PAVCWnd@@@Z$21
	DD	015H
	DD	FLAT:__unwindfunclet$??0CSetting_VolumeMA_Condition@@QAE@PAVCWnd@@@Z$22
	DD	016H
	DD	FLAT:__unwindfunclet$??0CSetting_VolumeMA_Condition@@QAE@PAVCWnd@@@Z$23
	DD	017H
	DD	FLAT:__unwindfunclet$??0CSetting_VolumeMA_Condition@@QAE@PAVCWnd@@@Z$24
	DD	018H
	DD	FLAT:__unwindfunclet$??0CSetting_VolumeMA_Condition@@QAE@PAVCWnd@@@Z$25
	DD	019H
	DD	FLAT:__unwindfunclet$??0CSetting_VolumeMA_Condition@@QAE@PAVCWnd@@@Z$26
	DD	01aH
	DD	FLAT:__unwindfunclet$??0CSetting_VolumeMA_Condition@@QAE@PAVCWnd@@@Z$27
	DD	01bH
	DD	FLAT:__unwindfunclet$??0CSetting_VolumeMA_Condition@@QAE@PAVCWnd@@@Z$28
	DD	01cH
	DD	FLAT:__unwindfunclet$??0CSetting_VolumeMA_Condition@@QAE@PAVCWnd@@@Z$29
	DD	01dH
	DD	FLAT:__unwindfunclet$??0CSetting_VolumeMA_Condition@@QAE@PAVCWnd@@@Z$30
	DD	01eH
	DD	FLAT:__unwindfunclet$??0CSetting_VolumeMA_Condition@@QAE@PAVCWnd@@@Z$31
	DD	01fH
	DD	FLAT:__unwindfunclet$??0CSetting_VolumeMA_Condition@@QAE@PAVCWnd@@@Z$32
	DD	020H
	DD	FLAT:__unwindfunclet$??0CSetting_VolumeMA_Condition@@QAE@PAVCWnd@@@Z$33
	DD	021H
	DD	FLAT:__unwindfunclet$??0CSetting_VolumeMA_Condition@@QAE@PAVCWnd@@@Z$34
	DD	022H
	DD	FLAT:__unwindfunclet$??0CSetting_VolumeMA_Condition@@QAE@PAVCWnd@@@Z$35
	DD	023H
	DD	FLAT:__unwindfunclet$??0CSetting_VolumeMA_Condition@@QAE@PAVCWnd@@@Z$36
	DD	024H
	DD	FLAT:__unwindfunclet$??0CSetting_VolumeMA_Condition@@QAE@PAVCWnd@@@Z$37
	DD	025H
	DD	FLAT:__unwindfunclet$??0CSetting_VolumeMA_Condition@@QAE@PAVCWnd@@@Z$38
	DD	026H
	DD	FLAT:__unwindfunclet$??0CSetting_VolumeMA_Condition@@QAE@PAVCWnd@@@Z$39
	DD	027H
	DD	FLAT:__unwindfunclet$??0CSetting_VolumeMA_Condition@@QAE@PAVCWnd@@@Z$40
	DD	028H
	DD	FLAT:__unwindfunclet$??0CSetting_VolumeMA_Condition@@QAE@PAVCWnd@@@Z$41
	DD	029H
	DD	FLAT:__unwindfunclet$??0CSetting_VolumeMA_Condition@@QAE@PAVCWnd@@@Z$42
	DD	02aH
	DD	FLAT:__unwindfunclet$??0CSetting_VolumeMA_Condition@@QAE@PAVCWnd@@@Z$43
	DD	02bH
	DD	FLAT:__unwindfunclet$??0CSetting_VolumeMA_Condition@@QAE@PAVCWnd@@@Z$44
	DD	02cH
	DD	FLAT:__unwindfunclet$??0CSetting_VolumeMA_Condition@@QAE@PAVCWnd@@@Z$45
	DD	02dH
	DD	FLAT:__unwindfunclet$??0CSetting_VolumeMA_Condition@@QAE@PAVCWnd@@@Z$46
	DD	02eH
	DD	FLAT:__unwindfunclet$??0CSetting_VolumeMA_Condition@@QAE@PAVCWnd@@@Z$47
	DD	02fH
	DD	FLAT:__unwindfunclet$??0CSetting_VolumeMA_Condition@@QAE@PAVCWnd@@@Z$48
	DD	030H
	DD	FLAT:__unwindfunclet$??0CSetting_VolumeMA_Condition@@QAE@PAVCWnd@@@Z$49
	DD	031H
	DD	FLAT:__unwindfunclet$??0CSetting_VolumeMA_Condition@@QAE@PAVCWnd@@@Z$50
	DD	032H
	DD	FLAT:__unwindfunclet$??0CSetting_VolumeMA_Condition@@QAE@PAVCWnd@@@Z$51
	DD	033H
	DD	FLAT:__unwindfunclet$??0CSetting_VolumeMA_Condition@@QAE@PAVCWnd@@@Z$52
	DD	034H
	DD	FLAT:__unwindfunclet$??0CSetting_VolumeMA_Condition@@QAE@PAVCWnd@@@Z$53
	DD	035H
	DD	FLAT:__unwindfunclet$??0CSetting_VolumeMA_Condition@@QAE@PAVCWnd@@@Z$54
	DD	036H
	DD	FLAT:__unwindfunclet$??0CSetting_VolumeMA_Condition@@QAE@PAVCWnd@@@Z$55
	DD	037H
	DD	FLAT:__unwindfunclet$??0CSetting_VolumeMA_Condition@@QAE@PAVCWnd@@@Z$56
	DD	038H
	DD	FLAT:__unwindfunclet$??0CSetting_VolumeMA_Condition@@QAE@PAVCWnd@@@Z$57
	DD	039H
	DD	FLAT:__unwindfunclet$??0CSetting_VolumeMA_Condition@@QAE@PAVCWnd@@@Z$58
	DD	03aH
	DD	FLAT:__unwindfunclet$??0CSetting_VolumeMA_Condition@@QAE@PAVCWnd@@@Z$59
	DD	03bH
	DD	FLAT:__unwindfunclet$??0CSetting_VolumeMA_Condition@@QAE@PAVCWnd@@@Z$60
	DD	03cH
	DD	FLAT:__unwindfunclet$??0CSetting_VolumeMA_Condition@@QAE@PAVCWnd@@@Z$61
	DD	03dH
	DD	FLAT:__unwindfunclet$??0CSetting_VolumeMA_Condition@@QAE@PAVCWnd@@@Z$62
	DD	03eH
	DD	FLAT:__unwindfunclet$??0CSetting_VolumeMA_Condition@@QAE@PAVCWnd@@@Z$63
	DD	03fH
	DD	FLAT:__unwindfunclet$??0CSetting_VolumeMA_Condition@@QAE@PAVCWnd@@@Z$64
	DD	040H
	DD	FLAT:__unwindfunclet$??0CSetting_VolumeMA_Condition@@QAE@PAVCWnd@@@Z$65
	DD	041H
	DD	FLAT:__unwindfunclet$??0CSetting_VolumeMA_Condition@@QAE@PAVCWnd@@@Z$66
	DD	042H
	DD	FLAT:__unwindfunclet$??0CSetting_VolumeMA_Condition@@QAE@PAVCWnd@@@Z$67
	DD	043H
	DD	FLAT:__unwindfunclet$??0CSetting_VolumeMA_Condition@@QAE@PAVCWnd@@@Z$68
	DD	044H
	DD	FLAT:__unwindfunclet$??0CSetting_VolumeMA_Condition@@QAE@PAVCWnd@@@Z$69
xdata$x	ENDS
; Function compile flags: /Ogtp
; File C:\Program Files (x86)\Microsoft Visual Studio\2019\Community\VC\Tools\MSVC\14.29.30133\atlmfc\include\afx.inl
;	COMDAT ??_GCSetting_VolumeMA_Condition@@UAEPAXI@Z
_TEXT	SEGMENT
___flags$ = 8						; size = 4
??_GCSetting_VolumeMA_Condition@@UAEPAXI@Z PROC		; CSetting_VolumeMA_Condition::`scalar deleting destructor', COMDAT
; _this$ = ecx
  00000	55		 push	 ebp
  00001	8b ec		 mov	 ebp, esp
  00003	56		 push	 esi
  00004	8b f1		 mov	 esi, ecx
  00006	e8 00 00 00 00	 call	 ??1CSetting_VolumeMA_Condition@@UAE@XZ ; CSetting_VolumeMA_Condition::~CSetting_VolumeMA_Condition
  0000b	8b 45 08	 mov	 eax, DWORD PTR ___flags$[ebp]
  0000e	a8 01		 test	 al, 1
  00010	74 22		 je	 SHORT $LN9@scalar
  00012	a8 04		 test	 al, 4
  00014	75 10		 jne	 SHORT $LN3@scalar

; 112  : 	{ ::operator delete(p); }

  00016	56		 push	 esi
  00017	e8 00 00 00 00	 call	 ??3@YAXPAX@Z		; operator delete
  0001c	83 c4 04	 add	 esp, 4
  0001f	8b c6		 mov	 eax, esi
  00021	5e		 pop	 esi
  00022	5d		 pop	 ebp
  00023	c2 04 00	 ret	 4
$LN3@scalar:
  00026	68 48 26 00 00	 push	 9800			; 00002648H
  0002b	56		 push	 esi
  0002c	e8 00 00 00 00	 call	 ?__global_delete@@YAXPAXI@Z ; __global_delete
  00031	83 c4 08	 add	 esp, 8
$LN9@scalar:
  00034	8b c6		 mov	 eax, esi
  00036	5e		 pop	 esi
  00037	5d		 pop	 ebp
  00038	c2 04 00	 ret	 4
??_GCSetting_VolumeMA_Condition@@UAEPAXI@Z ENDP		; CSetting_VolumeMA_Condition::`scalar deleting destructor'
_TEXT	ENDS
; Function compile flags: /Ogtp
; File D:\git\src\IBK\IBK_DRFN\ProjSrc\SrcChartEx\ChartAddIn\ChartEnvSetupDlgAddIn\ChartEnvSetupDlgAddIn\Setting_VolumeMA_Condition.cpp
;	COMDAT ?GetMessageMap@CSetting_VolumeMA_Condition@@MBEPBUAFX_MSGMAP@@XZ
_TEXT	SEGMENT
?GetMessageMap@CSetting_VolumeMA_Condition@@MBEPBUAFX_MSGMAP@@XZ PROC ; CSetting_VolumeMA_Condition::GetMessageMap, COMDAT
; _this$ = ecx

; 131  : BEGIN_MESSAGE_MAP(CSetting_VolumeMA_Condition, CDialog)

  00000	b8 00 00 00 00	 mov	 eax, OFFSET ?messageMap@?1??GetThisMessageMap@CSetting_VolumeMA_Condition@@KGPBUAFX_MSGMAP@@XZ@4U3@B
  00005	c3		 ret	 0
?GetMessageMap@CSetting_VolumeMA_Condition@@MBEPBUAFX_MSGMAP@@XZ ENDP ; CSetting_VolumeMA_Condition::GetMessageMap
_TEXT	ENDS
; Function compile flags: /Ogtp
; File D:\git\src\IBK\IBK_DRFN\ProjSrc\SrcChartEx\ChartAddIn\ChartEnvSetupDlgAddIn\ChartEnvSetupDlgAddIn\Setting_VolumeMA_Condition.cpp
;	COMDAT ?GetThisMessageMap@CSetting_VolumeMA_Condition@@KGPBUAFX_MSGMAP@@XZ
_TEXT	SEGMENT
?GetThisMessageMap@CSetting_VolumeMA_Condition@@KGPBUAFX_MSGMAP@@XZ PROC ; CSetting_VolumeMA_Condition::GetThisMessageMap, COMDAT

; 132  : 	//{{AFX_MSG_MAP(CSetting_VolumeMA_Condition)
; 133  : 	ON_BN_CLICKED(IDC_COLOR_BUTTON0, OnColorButton0)
; 134  : 	ON_BN_CLICKED(IDC_COLOR_BUTTON1, OnColorButton1)
; 135  : 	ON_BN_CLICKED(IDC_COLOR_BUTTON2, OnColorButton2)
; 136  : 	ON_BN_CLICKED(IDC_COLOR_BUTTON3, OnColorButton3)
; 137  : 	ON_BN_CLICKED(IDC_COLOR_BUTTON4, OnColorButton4)
; 138  : 	ON_BN_CLICKED(IDC_COLOR_BUTTON5, OnColorButton5)
; 139  : 	ON_BN_CLICKED(IDC_COLOR_BUTTON6, OnColorButton6)
; 140  : 	ON_BN_CLICKED(IDC_COLOR_BUTTON7, OnColorButton7)
; 141  : 	ON_BN_CLICKED(IDC_COLOR_BUTTON8, OnColorButton8)
; 142  : 	ON_BN_CLICKED(IDC_COLOR_BUTTON9, OnColorButton9)
; 143  : 	ON_BN_CLICKED(IDC_CHECK_SHOW_GRAPH0, OnCheckShowGraph0)
; 144  : 	ON_BN_CLICKED(IDC_CHECK_SHOW_GRAPH1, OnCheckShowGraph1)
; 145  : 	ON_BN_CLICKED(IDC_CHECK_SHOW_GRAPH2, OnCheckShowGraph2)
; 146  : 	ON_BN_CLICKED(IDC_CHECK_SHOW_GRAPH3, OnCheckShowGraph3)
; 147  : 	ON_BN_CLICKED(IDC_CHECK_SHOW_GRAPH4, OnCheckShowGraph4)
; 148  : 	ON_BN_CLICKED(IDC_CHECK_SHOW_GRAPH5, OnCheckShowGraph5)
; 149  : 	ON_BN_CLICKED(IDC_CHECK_SHOW_GRAPH6, OnCheckShowGraph6)
; 150  : 	ON_BN_CLICKED(IDC_CHECK_SHOW_GRAPH7, OnCheckShowGraph7)
; 151  : 	ON_BN_CLICKED(IDC_CHECK_SHOW_GRAPH8, OnCheckShowGraph8)
; 152  : 	ON_BN_CLICKED(IDC_CHECK_SHOW_GRAPH9, OnCheckShowGraph9)
; 153  : 	ON_CBN_SELCHANGE(IDC_DRAWSTYLE0, OnSelchangeDrawstyle0)
; 154  : 	ON_CBN_SELCHANGE(IDC_DRAWSTYLE1, OnSelchangeDrawstyle1)
; 155  : 	ON_CBN_SELCHANGE(IDC_DRAWSTYLE2, OnSelchangeDrawstyle2)
; 156  : 	ON_CBN_SELCHANGE(IDC_DRAWSTYLE3, OnSelchangeDrawstyle3)
; 157  : 	ON_CBN_SELCHANGE(IDC_DRAWSTYLE4, OnSelchangeDrawstyle4)
; 158  : 	ON_CBN_SELCHANGE(IDC_DRAWSTYLE5, OnSelchangeDrawstyle5)
; 159  : 	ON_CBN_SELCHANGE(IDC_DRAWSTYLE6, OnSelchangeDrawstyle6)
; 160  : 	ON_CBN_SELCHANGE(IDC_DRAWSTYLE7, OnSelchangeDrawstyle7)
; 161  : 	ON_CBN_SELCHANGE(IDC_DRAWSTYLE8, OnSelchangeDrawstyle8)
; 162  : 	ON_CBN_SELCHANGE(IDC_DRAWSTYLE9, OnSelchangeDrawstyle9)
; 163  : 	ON_CBN_SELCHANGE(IDC_THICKNESS0, OnSelchangeThickness0)
; 164  : 	ON_CBN_SELCHANGE(IDC_THICKNESS1, OnSelchangeThickness1)
; 165  : 	ON_CBN_SELCHANGE(IDC_THICKNESS2, OnSelchangeThickness2)
; 166  : 	ON_CBN_SELCHANGE(IDC_THICKNESS3, OnSelchangeThickness3)
; 167  : 	ON_CBN_SELCHANGE(IDC_THICKNESS4, OnSelchangeThickness4)
; 168  : 	ON_CBN_SELCHANGE(IDC_THICKNESS5, OnSelchangeThickness5)
; 169  : 	ON_CBN_SELCHANGE(IDC_THICKNESS6, OnSelchangeThickness6)
; 170  : 	ON_CBN_SELCHANGE(IDC_THICKNESS7, OnSelchangeThickness7)
; 171  : 	ON_CBN_SELCHANGE(IDC_THICKNESS8, OnSelchangeThickness8)
; 172  : 	ON_CBN_SELCHANGE(IDC_THICKNESS9, OnSelchangeThickness9)
; 173  : 	//}}AFX_MSG_MAP
; 174  : END_MESSAGE_MAP()

  00000	b8 00 00 00 00	 mov	 eax, OFFSET ?messageMap@?1??GetThisMessageMap@CSetting_VolumeMA_Condition@@KGPBUAFX_MSGMAP@@XZ@4U3@B
  00005	c3		 ret	 0
?GetThisMessageMap@CSetting_VolumeMA_Condition@@KGPBUAFX_MSGMAP@@XZ ENDP ; CSetting_VolumeMA_Condition::GetThisMessageMap
_TEXT	ENDS
; Function compile flags: /Ogtp
; File D:\git\src\IBK\IBK_DRFN\ProjSrc\SrcChartEx\ChartAddIn\ChartEnvSetupDlgAddIn\ChartEnvSetupDlgAddIn\Setting_VolumeMA_Condition.cpp
; File C:\Program Files (x86)\Microsoft Visual Studio\2019\Community\VC\Tools\MSVC\14.29.30133\atlmfc\include\afxwin2.inl
; File D:\git\src\IBK\IBK_DRFN\ProjSrc\SrcChartEx\ChartAddIn\ChartEnvSetupDlgAddIn\ChartEnvSetupDlgAddIn\Setting_VolumeMA_Condition.cpp
; File C:\Program Files (x86)\Microsoft Visual Studio\2019\Community\VC\Tools\MSVC\14.29.30133\atlmfc\include\afxwin2.inl
; File D:\git\src\IBK\IBK_DRFN\ProjSrc\SrcChartEx\ChartAddIn\ChartEnvSetupDlgAddIn\ChartEnvSetupDlgAddIn\Setting_VolumeMA_Condition.cpp
; File C:\Program Files (x86)\Microsoft Visual Studio\2019\Community\VC\Tools\MSVC\14.29.30133\atlmfc\include\afxwin2.inl
; File D:\git\src\IBK\IBK_DRFN\ProjSrc\SrcChartEx\ChartAddIn\ChartEnvSetupDlgAddIn\ChartEnvSetupDlgAddIn\Setting_VolumeMA_Condition.cpp
; File C:\Program Files (x86)\Microsoft Visual Studio\2019\Community\VC\Tools\MSVC\14.29.30133\atlmfc\include\afxwin2.inl
; File D:\git\src\IBK\IBK_DRFN\ProjSrc\SrcChartEx\ChartAddIn\ChartEnvSetupDlgAddIn\ChartEnvSetupDlgAddIn\Setting_VolumeMA_Condition.cpp
;	COMDAT ?OnSelchangeThickness9@CSetting_VolumeMA_Condition@@IAEXXZ
_TEXT	SEGMENT
?OnSelchangeThickness9@CSetting_VolumeMA_Condition@@IAEXXZ PROC ; CSetting_VolumeMA_Condition::OnSelchangeThickness9, COMDAT
; _this$ = ecx

; 825  : {

  00000	56		 push	 esi
  00001	57		 push	 edi
; File C:\Program Files (x86)\Microsoft Visual Studio\2019\Community\VC\Tools\MSVC\14.29.30133\atlmfc\include\afxwin2.inl

; 765  : 	{ ASSERT(::IsWindow(m_hWnd)); return (int)::SendMessage(m_hWnd, CB_GETCURSEL, 0, 0); }

  00002	8b 3d 00 00 00
	00		 mov	 edi, DWORD PTR __imp__SendMessageA@16
; File D:\git\src\IBK\IBK_DRFN\ProjSrc\SrcChartEx\ChartAddIn\ChartEnvSetupDlgAddIn\ChartEnvSetupDlgAddIn\Setting_VolumeMA_Condition.cpp

; 825  : {

  00008	8b f1		 mov	 esi, ecx
; File C:\Program Files (x86)\Microsoft Visual Studio\2019\Community\VC\Tools\MSVC\14.29.30133\atlmfc\include\afxwin2.inl

; 765  : 	{ ASSERT(::IsWindow(m_hWnd)); return (int)::SendMessage(m_hWnd, CB_GETCURSEL, 0, 0); }

  0000a	6a 00		 push	 0
  0000c	6a 00		 push	 0
  0000e	68 47 01 00 00	 push	 327			; 00000147H
  00013	ff b6 18 0b 00
	00		 push	 DWORD PTR [esi+2840]
  00019	ff d7		 call	 edi
; File D:\git\src\IBK\IBK_DRFN\ProjSrc\SrcChartEx\ChartAddIn\ChartEnvSetupDlgAddIn\ChartEnvSetupDlgAddIn\Setting_VolumeMA_Condition.cpp

; 827  : 	if( m_cmbDrawStyleGraph9.GetCurSel() != 0 && m_cmbThicknessGraph9.GetCurSel() != 0 )

  0001b	85 c0		 test	 eax, eax
  0001d	74 35		 je	 SHORT $LN2@OnSelchang
; File C:\Program Files (x86)\Microsoft Visual Studio\2019\Community\VC\Tools\MSVC\14.29.30133\atlmfc\include\afxwin2.inl

; 765  : 	{ ASSERT(::IsWindow(m_hWnd)); return (int)::SendMessage(m_hWnd, CB_GETCURSEL, 0, 0); }

  0001f	6a 00		 push	 0
  00021	6a 00		 push	 0
  00023	68 47 01 00 00	 push	 327			; 00000147H
  00028	ff b6 c8 00 00
	00		 push	 DWORD PTR [esi+200]
  0002e	ff d7		 call	 edi
; File D:\git\src\IBK\IBK_DRFN\ProjSrc\SrcChartEx\ChartAddIn\ChartEnvSetupDlgAddIn\ChartEnvSetupDlgAddIn\Setting_VolumeMA_Condition.cpp

; 827  : 	if( m_cmbDrawStyleGraph9.GetCurSel() != 0 && m_cmbThicknessGraph9.GetCurSel() != 0 )

  00030	85 c0		 test	 eax, eax
  00032	74 20		 je	 SHORT $LN2@OnSelchang

; 828  : 	{
; 829  : // 2008.01.25 by LYH >>
; 830  : 		//AfxMessageBox(" \"\"     .");
; 831  : 		AfxMessageBox(m_strMsgLineThick);

  00034	6a 00		 push	 0
  00036	6a 00		 push	 0
  00038	ff b6 38 26 00
	00		 push	 DWORD PTR [esi+9784]
  0003e	e8 00 00 00 00	 call	 ?AfxMessageBox@@YGHPBDII@Z ; AfxMessageBox
; File C:\Program Files (x86)\Microsoft Visual Studio\2019\Community\VC\Tools\MSVC\14.29.30133\atlmfc\include\afxwin2.inl

; 767  : 	{ ASSERT(::IsWindow(m_hWnd)); return (int)::SendMessage(m_hWnd, CB_SETCURSEL, nSelect, 0); }

  00043	6a 00		 push	 0
  00045	6a 00		 push	 0
  00047	68 4e 01 00 00	 push	 334			; 0000014eH
  0004c	ff b6 18 0b 00
	00		 push	 DWORD PTR [esi+2840]
  00052	ff d7		 call	 edi
$LN2@OnSelchang:
  00054	5f		 pop	 edi
; File D:\git\src\IBK\IBK_DRFN\ProjSrc\SrcChartEx\ChartAddIn\ChartEnvSetupDlgAddIn\ChartEnvSetupDlgAddIn\Setting_VolumeMA_Condition.cpp

; 836  : }

  00055	5e		 pop	 esi
  00056	c3		 ret	 0
?OnSelchangeThickness9@CSetting_VolumeMA_Condition@@IAEXXZ ENDP ; CSetting_VolumeMA_Condition::OnSelchangeThickness9
_TEXT	ENDS
; Function compile flags: /Ogtp
; File D:\git\src\IBK\IBK_DRFN\ProjSrc\SrcChartEx\ChartAddIn\ChartEnvSetupDlgAddIn\ChartEnvSetupDlgAddIn\Setting_VolumeMA_Condition.cpp
; File C:\Program Files (x86)\Microsoft Visual Studio\2019\Community\VC\Tools\MSVC\14.29.30133\atlmfc\include\afxwin2.inl
; File D:\git\src\IBK\IBK_DRFN\ProjSrc\SrcChartEx\ChartAddIn\ChartEnvSetupDlgAddIn\ChartEnvSetupDlgAddIn\Setting_VolumeMA_Condition.cpp
; File C:\Program Files (x86)\Microsoft Visual Studio\2019\Community\VC\Tools\MSVC\14.29.30133\atlmfc\include\afxwin2.inl
; File D:\git\src\IBK\IBK_DRFN\ProjSrc\SrcChartEx\ChartAddIn\ChartEnvSetupDlgAddIn\ChartEnvSetupDlgAddIn\Setting_VolumeMA_Condition.cpp
; File C:\Program Files (x86)\Microsoft Visual Studio\2019\Community\VC\Tools\MSVC\14.29.30133\atlmfc\include\afxwin2.inl
; File D:\git\src\IBK\IBK_DRFN\ProjSrc\SrcChartEx\ChartAddIn\ChartEnvSetupDlgAddIn\ChartEnvSetupDlgAddIn\Setting_VolumeMA_Condition.cpp
; File C:\Program Files (x86)\Microsoft Visual Studio\2019\Community\VC\Tools\MSVC\14.29.30133\atlmfc\include\afxwin2.inl
; File D:\git\src\IBK\IBK_DRFN\ProjSrc\SrcChartEx\ChartAddIn\ChartEnvSetupDlgAddIn\ChartEnvSetupDlgAddIn\Setting_VolumeMA_Condition.cpp
;	COMDAT ?OnSelchangeThickness8@CSetting_VolumeMA_Condition@@IAEXXZ
_TEXT	SEGMENT
?OnSelchangeThickness8@CSetting_VolumeMA_Condition@@IAEXXZ PROC ; CSetting_VolumeMA_Condition::OnSelchangeThickness8, COMDAT
; _this$ = ecx

; 810  : {

  00000	56		 push	 esi
  00001	57		 push	 edi
; File C:\Program Files (x86)\Microsoft Visual Studio\2019\Community\VC\Tools\MSVC\14.29.30133\atlmfc\include\afxwin2.inl

; 765  : 	{ ASSERT(::IsWindow(m_hWnd)); return (int)::SendMessage(m_hWnd, CB_GETCURSEL, 0, 0); }

  00002	8b 3d 00 00 00
	00		 mov	 edi, DWORD PTR __imp__SendMessageA@16
; File D:\git\src\IBK\IBK_DRFN\ProjSrc\SrcChartEx\ChartAddIn\ChartEnvSetupDlgAddIn\ChartEnvSetupDlgAddIn\Setting_VolumeMA_Condition.cpp

; 810  : {

  00008	8b f1		 mov	 esi, ecx
; File C:\Program Files (x86)\Microsoft Visual Studio\2019\Community\VC\Tools\MSVC\14.29.30133\atlmfc\include\afxwin2.inl

; 765  : 	{ ASSERT(::IsWindow(m_hWnd)); return (int)::SendMessage(m_hWnd, CB_GETCURSEL, 0, 0); }

  0000a	6a 00		 push	 0
  0000c	6a 00		 push	 0
  0000e	68 47 01 00 00	 push	 327			; 00000147H
  00013	ff b6 a0 0b 00
	00		 push	 DWORD PTR [esi+2976]
  00019	ff d7		 call	 edi
; File D:\git\src\IBK\IBK_DRFN\ProjSrc\SrcChartEx\ChartAddIn\ChartEnvSetupDlgAddIn\ChartEnvSetupDlgAddIn\Setting_VolumeMA_Condition.cpp

; 812  : 	if( m_cmbDrawStyleGraph8.GetCurSel() != 0 && m_cmbThicknessGraph8.GetCurSel() != 0 )

  0001b	85 c0		 test	 eax, eax
  0001d	74 35		 je	 SHORT $LN2@OnSelchang
; File C:\Program Files (x86)\Microsoft Visual Studio\2019\Community\VC\Tools\MSVC\14.29.30133\atlmfc\include\afxwin2.inl

; 765  : 	{ ASSERT(::IsWindow(m_hWnd)); return (int)::SendMessage(m_hWnd, CB_GETCURSEL, 0, 0); }

  0001f	6a 00		 push	 0
  00021	6a 00		 push	 0
  00023	68 47 01 00 00	 push	 327			; 00000147H
  00028	ff b6 50 01 00
	00		 push	 DWORD PTR [esi+336]
  0002e	ff d7		 call	 edi
; File D:\git\src\IBK\IBK_DRFN\ProjSrc\SrcChartEx\ChartAddIn\ChartEnvSetupDlgAddIn\ChartEnvSetupDlgAddIn\Setting_VolumeMA_Condition.cpp

; 812  : 	if( m_cmbDrawStyleGraph8.GetCurSel() != 0 && m_cmbThicknessGraph8.GetCurSel() != 0 )

  00030	85 c0		 test	 eax, eax
  00032	74 20		 je	 SHORT $LN2@OnSelchang

; 813  : 	{
; 814  : // 2008.01.25 by LYH >>
; 815  : 		//AfxMessageBox(" \"\"     .");
; 816  : 		AfxMessageBox(m_strMsgLineThick);

  00034	6a 00		 push	 0
  00036	6a 00		 push	 0
  00038	ff b6 38 26 00
	00		 push	 DWORD PTR [esi+9784]
  0003e	e8 00 00 00 00	 call	 ?AfxMessageBox@@YGHPBDII@Z ; AfxMessageBox
; File C:\Program Files (x86)\Microsoft Visual Studio\2019\Community\VC\Tools\MSVC\14.29.30133\atlmfc\include\afxwin2.inl

; 767  : 	{ ASSERT(::IsWindow(m_hWnd)); return (int)::SendMessage(m_hWnd, CB_SETCURSEL, nSelect, 0); }

  00043	6a 00		 push	 0
  00045	6a 00		 push	 0
  00047	68 4e 01 00 00	 push	 334			; 0000014eH
  0004c	ff b6 a0 0b 00
	00		 push	 DWORD PTR [esi+2976]
  00052	ff d7		 call	 edi
$LN2@OnSelchang:
  00054	5f		 pop	 edi
; File D:\git\src\IBK\IBK_DRFN\ProjSrc\SrcChartEx\ChartAddIn\ChartEnvSetupDlgAddIn\ChartEnvSetupDlgAddIn\Setting_VolumeMA_Condition.cpp

; 821  : }

  00055	5e		 pop	 esi
  00056	c3		 ret	 0
?OnSelchangeThickness8@CSetting_VolumeMA_Condition@@IAEXXZ ENDP ; CSetting_VolumeMA_Condition::OnSelchangeThickness8
_TEXT	ENDS
; Function compile flags: /Ogtp
; File D:\git\src\IBK\IBK_DRFN\ProjSrc\SrcChartEx\ChartAddIn\ChartEnvSetupDlgAddIn\ChartEnvSetupDlgAddIn\Setting_VolumeMA_Condition.cpp
; File C:\Program Files (x86)\Microsoft Visual Studio\2019\Community\VC\Tools\MSVC\14.29.30133\atlmfc\include\afxwin2.inl
; File D:\git\src\IBK\IBK_DRFN\ProjSrc\SrcChartEx\ChartAddIn\ChartEnvSetupDlgAddIn\ChartEnvSetupDlgAddIn\Setting_VolumeMA_Condition.cpp
; File C:\Program Files (x86)\Microsoft Visual Studio\2019\Community\VC\Tools\MSVC\14.29.30133\atlmfc\include\afxwin2.inl
; File D:\git\src\IBK\IBK_DRFN\ProjSrc\SrcChartEx\ChartAddIn\ChartEnvSetupDlgAddIn\ChartEnvSetupDlgAddIn\Setting_VolumeMA_Condition.cpp
; File C:\Program Files (x86)\Microsoft Visual Studio\2019\Community\VC\Tools\MSVC\14.29.30133\atlmfc\include\afxwin2.inl
; File D:\git\src\IBK\IBK_DRFN\ProjSrc\SrcChartEx\ChartAddIn\ChartEnvSetupDlgAddIn\ChartEnvSetupDlgAddIn\Setting_VolumeMA_Condition.cpp
; File C:\Program Files (x86)\Microsoft Visual Studio\2019\Community\VC\Tools\MSVC\14.29.30133\atlmfc\include\afxwin2.inl
; File D:\git\src\IBK\IBK_DRFN\ProjSrc\SrcChartEx\ChartAddIn\ChartEnvSetupDlgAddIn\ChartEnvSetupDlgAddIn\Setting_VolumeMA_Condition.cpp
;	COMDAT ?OnSelchangeThickness7@CSetting_VolumeMA_Condition@@IAEXXZ
_TEXT	SEGMENT
?OnSelchangeThickness7@CSetting_VolumeMA_Condition@@IAEXXZ PROC ; CSetting_VolumeMA_Condition::OnSelchangeThickness7, COMDAT
; _this$ = ecx

; 795  : {

  00000	56		 push	 esi
  00001	57		 push	 edi
; File C:\Program Files (x86)\Microsoft Visual Studio\2019\Community\VC\Tools\MSVC\14.29.30133\atlmfc\include\afxwin2.inl

; 765  : 	{ ASSERT(::IsWindow(m_hWnd)); return (int)::SendMessage(m_hWnd, CB_GETCURSEL, 0, 0); }

  00002	8b 3d 00 00 00
	00		 mov	 edi, DWORD PTR __imp__SendMessageA@16
; File D:\git\src\IBK\IBK_DRFN\ProjSrc\SrcChartEx\ChartAddIn\ChartEnvSetupDlgAddIn\ChartEnvSetupDlgAddIn\Setting_VolumeMA_Condition.cpp

; 795  : {

  00008	8b f1		 mov	 esi, ecx
; File C:\Program Files (x86)\Microsoft Visual Studio\2019\Community\VC\Tools\MSVC\14.29.30133\atlmfc\include\afxwin2.inl

; 765  : 	{ ASSERT(::IsWindow(m_hWnd)); return (int)::SendMessage(m_hWnd, CB_GETCURSEL, 0, 0); }

  0000a	6a 00		 push	 0
  0000c	6a 00		 push	 0
  0000e	68 47 01 00 00	 push	 327			; 00000147H
  00013	ff b6 28 0c 00
	00		 push	 DWORD PTR [esi+3112]
  00019	ff d7		 call	 edi
; File D:\git\src\IBK\IBK_DRFN\ProjSrc\SrcChartEx\ChartAddIn\ChartEnvSetupDlgAddIn\ChartEnvSetupDlgAddIn\Setting_VolumeMA_Condition.cpp

; 797  : 	if( m_cmbDrawStyleGraph7.GetCurSel() != 0 && m_cmbThicknessGraph7.GetCurSel() != 0 )

  0001b	85 c0		 test	 eax, eax
  0001d	74 35		 je	 SHORT $LN2@OnSelchang
; File C:\Program Files (x86)\Microsoft Visual Studio\2019\Community\VC\Tools\MSVC\14.29.30133\atlmfc\include\afxwin2.inl

; 765  : 	{ ASSERT(::IsWindow(m_hWnd)); return (int)::SendMessage(m_hWnd, CB_GETCURSEL, 0, 0); }

  0001f	6a 00		 push	 0
  00021	6a 00		 push	 0
  00023	68 47 01 00 00	 push	 327			; 00000147H
  00028	ff b6 d8 01 00
	00		 push	 DWORD PTR [esi+472]
  0002e	ff d7		 call	 edi
; File D:\git\src\IBK\IBK_DRFN\ProjSrc\SrcChartEx\ChartAddIn\ChartEnvSetupDlgAddIn\ChartEnvSetupDlgAddIn\Setting_VolumeMA_Condition.cpp

; 797  : 	if( m_cmbDrawStyleGraph7.GetCurSel() != 0 && m_cmbThicknessGraph7.GetCurSel() != 0 )

  00030	85 c0		 test	 eax, eax
  00032	74 20		 je	 SHORT $LN2@OnSelchang

; 798  : 	{
; 799  : // 2008.01.25 by LYH >>
; 800  : 		//AfxMessageBox(" \"\"     .");
; 801  : 		AfxMessageBox(m_strMsgLineThick);

  00034	6a 00		 push	 0
  00036	6a 00		 push	 0
  00038	ff b6 38 26 00
	00		 push	 DWORD PTR [esi+9784]
  0003e	e8 00 00 00 00	 call	 ?AfxMessageBox@@YGHPBDII@Z ; AfxMessageBox
; File C:\Program Files (x86)\Microsoft Visual Studio\2019\Community\VC\Tools\MSVC\14.29.30133\atlmfc\include\afxwin2.inl

; 767  : 	{ ASSERT(::IsWindow(m_hWnd)); return (int)::SendMessage(m_hWnd, CB_SETCURSEL, nSelect, 0); }

  00043	6a 00		 push	 0
  00045	6a 00		 push	 0
  00047	68 4e 01 00 00	 push	 334			; 0000014eH
  0004c	ff b6 28 0c 00
	00		 push	 DWORD PTR [esi+3112]
  00052	ff d7		 call	 edi
$LN2@OnSelchang:
  00054	5f		 pop	 edi
; File D:\git\src\IBK\IBK_DRFN\ProjSrc\SrcChartEx\ChartAddIn\ChartEnvSetupDlgAddIn\ChartEnvSetupDlgAddIn\Setting_VolumeMA_Condition.cpp

; 806  : }

  00055	5e		 pop	 esi
  00056	c3		 ret	 0
?OnSelchangeThickness7@CSetting_VolumeMA_Condition@@IAEXXZ ENDP ; CSetting_VolumeMA_Condition::OnSelchangeThickness7
_TEXT	ENDS
; Function compile flags: /Ogtp
; File D:\git\src\IBK\IBK_DRFN\ProjSrc\SrcChartEx\ChartAddIn\ChartEnvSetupDlgAddIn\ChartEnvSetupDlgAddIn\Setting_VolumeMA_Condition.cpp
; File C:\Program Files (x86)\Microsoft Visual Studio\2019\Community\VC\Tools\MSVC\14.29.30133\atlmfc\include\afxwin2.inl
; File D:\git\src\IBK\IBK_DRFN\ProjSrc\SrcChartEx\ChartAddIn\ChartEnvSetupDlgAddIn\ChartEnvSetupDlgAddIn\Setting_VolumeMA_Condition.cpp
; File C:\Program Files (x86)\Microsoft Visual Studio\2019\Community\VC\Tools\MSVC\14.29.30133\atlmfc\include\afxwin2.inl
; File D:\git\src\IBK\IBK_DRFN\ProjSrc\SrcChartEx\ChartAddIn\ChartEnvSetupDlgAddIn\ChartEnvSetupDlgAddIn\Setting_VolumeMA_Condition.cpp
; File C:\Program Files (x86)\Microsoft Visual Studio\2019\Community\VC\Tools\MSVC\14.29.30133\atlmfc\include\afxwin2.inl
; File D:\git\src\IBK\IBK_DRFN\ProjSrc\SrcChartEx\ChartAddIn\ChartEnvSetupDlgAddIn\ChartEnvSetupDlgAddIn\Setting_VolumeMA_Condition.cpp
; File C:\Program Files (x86)\Microsoft Visual Studio\2019\Community\VC\Tools\MSVC\14.29.30133\atlmfc\include\afxwin2.inl
; File D:\git\src\IBK\IBK_DRFN\ProjSrc\SrcChartEx\ChartAddIn\ChartEnvSetupDlgAddIn\ChartEnvSetupDlgAddIn\Setting_VolumeMA_Condition.cpp
;	COMDAT ?OnSelchangeThickness6@CSetting_VolumeMA_Condition@@IAEXXZ
_TEXT	SEGMENT
?OnSelchangeThickness6@CSetting_VolumeMA_Condition@@IAEXXZ PROC ; CSetting_VolumeMA_Condition::OnSelchangeThickness6, COMDAT
; _this$ = ecx

; 780  : {

  00000	56		 push	 esi
  00001	57		 push	 edi
; File C:\Program Files (x86)\Microsoft Visual Studio\2019\Community\VC\Tools\MSVC\14.29.30133\atlmfc\include\afxwin2.inl

; 765  : 	{ ASSERT(::IsWindow(m_hWnd)); return (int)::SendMessage(m_hWnd, CB_GETCURSEL, 0, 0); }

  00002	8b 3d 00 00 00
	00		 mov	 edi, DWORD PTR __imp__SendMessageA@16
; File D:\git\src\IBK\IBK_DRFN\ProjSrc\SrcChartEx\ChartAddIn\ChartEnvSetupDlgAddIn\ChartEnvSetupDlgAddIn\Setting_VolumeMA_Condition.cpp

; 780  : {

  00008	8b f1		 mov	 esi, ecx
; File C:\Program Files (x86)\Microsoft Visual Studio\2019\Community\VC\Tools\MSVC\14.29.30133\atlmfc\include\afxwin2.inl

; 765  : 	{ ASSERT(::IsWindow(m_hWnd)); return (int)::SendMessage(m_hWnd, CB_GETCURSEL, 0, 0); }

  0000a	6a 00		 push	 0
  0000c	6a 00		 push	 0
  0000e	68 47 01 00 00	 push	 327			; 00000147H
  00013	ff b6 b0 0c 00
	00		 push	 DWORD PTR [esi+3248]
  00019	ff d7		 call	 edi
; File D:\git\src\IBK\IBK_DRFN\ProjSrc\SrcChartEx\ChartAddIn\ChartEnvSetupDlgAddIn\ChartEnvSetupDlgAddIn\Setting_VolumeMA_Condition.cpp

; 782  : 	if( m_cmbDrawStyleGraph6.GetCurSel() != 0 && m_cmbThicknessGraph6.GetCurSel() != 0 )

  0001b	85 c0		 test	 eax, eax
  0001d	74 35		 je	 SHORT $LN2@OnSelchang
; File C:\Program Files (x86)\Microsoft Visual Studio\2019\Community\VC\Tools\MSVC\14.29.30133\atlmfc\include\afxwin2.inl

; 765  : 	{ ASSERT(::IsWindow(m_hWnd)); return (int)::SendMessage(m_hWnd, CB_GETCURSEL, 0, 0); }

  0001f	6a 00		 push	 0
  00021	6a 00		 push	 0
  00023	68 47 01 00 00	 push	 327			; 00000147H
  00028	ff b6 60 02 00
	00		 push	 DWORD PTR [esi+608]
  0002e	ff d7		 call	 edi
; File D:\git\src\IBK\IBK_DRFN\ProjSrc\SrcChartEx\ChartAddIn\ChartEnvSetupDlgAddIn\ChartEnvSetupDlgAddIn\Setting_VolumeMA_Condition.cpp

; 782  : 	if( m_cmbDrawStyleGraph6.GetCurSel() != 0 && m_cmbThicknessGraph6.GetCurSel() != 0 )

  00030	85 c0		 test	 eax, eax
  00032	74 20		 je	 SHORT $LN2@OnSelchang

; 783  : 	{
; 784  : // 2008.01.25 by LYH >>
; 785  : 		//AfxMessageBox(" \"\"     .");
; 786  : 		AfxMessageBox(m_strMsgLineThick);

  00034	6a 00		 push	 0
  00036	6a 00		 push	 0
  00038	ff b6 38 26 00
	00		 push	 DWORD PTR [esi+9784]
  0003e	e8 00 00 00 00	 call	 ?AfxMessageBox@@YGHPBDII@Z ; AfxMessageBox
; File C:\Program Files (x86)\Microsoft Visual Studio\2019\Community\VC\Tools\MSVC\14.29.30133\atlmfc\include\afxwin2.inl

; 767  : 	{ ASSERT(::IsWindow(m_hWnd)); return (int)::SendMessage(m_hWnd, CB_SETCURSEL, nSelect, 0); }

  00043	6a 00		 push	 0
  00045	6a 00		 push	 0
  00047	68 4e 01 00 00	 push	 334			; 0000014eH
  0004c	ff b6 b0 0c 00
	00		 push	 DWORD PTR [esi+3248]
  00052	ff d7		 call	 edi
$LN2@OnSelchang:
  00054	5f		 pop	 edi
; File D:\git\src\IBK\IBK_DRFN\ProjSrc\SrcChartEx\ChartAddIn\ChartEnvSetupDlgAddIn\ChartEnvSetupDlgAddIn\Setting_VolumeMA_Condition.cpp

; 791  : }

  00055	5e		 pop	 esi
  00056	c3		 ret	 0
?OnSelchangeThickness6@CSetting_VolumeMA_Condition@@IAEXXZ ENDP ; CSetting_VolumeMA_Condition::OnSelchangeThickness6
_TEXT	ENDS
; Function compile flags: /Ogtp
; File D:\git\src\IBK\IBK_DRFN\ProjSrc\SrcChartEx\ChartAddIn\ChartEnvSetupDlgAddIn\ChartEnvSetupDlgAddIn\Setting_VolumeMA_Condition.cpp
; File C:\Program Files (x86)\Microsoft Visual Studio\2019\Community\VC\Tools\MSVC\14.29.30133\atlmfc\include\afxwin2.inl
; File D:\git\src\IBK\IBK_DRFN\ProjSrc\SrcChartEx\ChartAddIn\ChartEnvSetupDlgAddIn\ChartEnvSetupDlgAddIn\Setting_VolumeMA_Condition.cpp
; File C:\Program Files (x86)\Microsoft Visual Studio\2019\Community\VC\Tools\MSVC\14.29.30133\atlmfc\include\afxwin2.inl
; File D:\git\src\IBK\IBK_DRFN\ProjSrc\SrcChartEx\ChartAddIn\ChartEnvSetupDlgAddIn\ChartEnvSetupDlgAddIn\Setting_VolumeMA_Condition.cpp
; File C:\Program Files (x86)\Microsoft Visual Studio\2019\Community\VC\Tools\MSVC\14.29.30133\atlmfc\include\afxwin2.inl
; File D:\git\src\IBK\IBK_DRFN\ProjSrc\SrcChartEx\ChartAddIn\ChartEnvSetupDlgAddIn\ChartEnvSetupDlgAddIn\Setting_VolumeMA_Condition.cpp
; File C:\Program Files (x86)\Microsoft Visual Studio\2019\Community\VC\Tools\MSVC\14.29.30133\atlmfc\include\afxwin2.inl
; File D:\git\src\IBK\IBK_DRFN\ProjSrc\SrcChartEx\ChartAddIn\ChartEnvSetupDlgAddIn\ChartEnvSetupDlgAddIn\Setting_VolumeMA_Condition.cpp
;	COMDAT ?OnSelchangeThickness5@CSetting_VolumeMA_Condition@@IAEXXZ
_TEXT	SEGMENT
?OnSelchangeThickness5@CSetting_VolumeMA_Condition@@IAEXXZ PROC ; CSetting_VolumeMA_Condition::OnSelchangeThickness5, COMDAT
; _this$ = ecx

; 765  : {

  00000	56		 push	 esi
  00001	57		 push	 edi
; File C:\Program Files (x86)\Microsoft Visual Studio\2019\Community\VC\Tools\MSVC\14.29.30133\atlmfc\include\afxwin2.inl

; 765  : 	{ ASSERT(::IsWindow(m_hWnd)); return (int)::SendMessage(m_hWnd, CB_GETCURSEL, 0, 0); }

  00002	8b 3d 00 00 00
	00		 mov	 edi, DWORD PTR __imp__SendMessageA@16
; File D:\git\src\IBK\IBK_DRFN\ProjSrc\SrcChartEx\ChartAddIn\ChartEnvSetupDlgAddIn\ChartEnvSetupDlgAddIn\Setting_VolumeMA_Condition.cpp

; 765  : {

  00008	8b f1		 mov	 esi, ecx
; File C:\Program Files (x86)\Microsoft Visual Studio\2019\Community\VC\Tools\MSVC\14.29.30133\atlmfc\include\afxwin2.inl

; 765  : 	{ ASSERT(::IsWindow(m_hWnd)); return (int)::SendMessage(m_hWnd, CB_GETCURSEL, 0, 0); }

  0000a	6a 00		 push	 0
  0000c	6a 00		 push	 0
  0000e	68 47 01 00 00	 push	 327			; 00000147H
  00013	ff b6 38 0d 00
	00		 push	 DWORD PTR [esi+3384]
  00019	ff d7		 call	 edi
; File D:\git\src\IBK\IBK_DRFN\ProjSrc\SrcChartEx\ChartAddIn\ChartEnvSetupDlgAddIn\ChartEnvSetupDlgAddIn\Setting_VolumeMA_Condition.cpp

; 767  : 	if( m_cmbDrawStyleGraph5.GetCurSel() != 0 && m_cmbThicknessGraph5.GetCurSel() != 0 )

  0001b	85 c0		 test	 eax, eax
  0001d	74 35		 je	 SHORT $LN2@OnSelchang
; File C:\Program Files (x86)\Microsoft Visual Studio\2019\Community\VC\Tools\MSVC\14.29.30133\atlmfc\include\afxwin2.inl

; 765  : 	{ ASSERT(::IsWindow(m_hWnd)); return (int)::SendMessage(m_hWnd, CB_GETCURSEL, 0, 0); }

  0001f	6a 00		 push	 0
  00021	6a 00		 push	 0
  00023	68 47 01 00 00	 push	 327			; 00000147H
  00028	ff b6 e8 02 00
	00		 push	 DWORD PTR [esi+744]
  0002e	ff d7		 call	 edi
; File D:\git\src\IBK\IBK_DRFN\ProjSrc\SrcChartEx\ChartAddIn\ChartEnvSetupDlgAddIn\ChartEnvSetupDlgAddIn\Setting_VolumeMA_Condition.cpp

; 767  : 	if( m_cmbDrawStyleGraph5.GetCurSel() != 0 && m_cmbThicknessGraph5.GetCurSel() != 0 )

  00030	85 c0		 test	 eax, eax
  00032	74 20		 je	 SHORT $LN2@OnSelchang

; 768  : 	{
; 769  : // 2008.01.25 by LYH >>
; 770  : 		//AfxMessageBox(" \"\"     .");
; 771  : 		AfxMessageBox(m_strMsgLineThick);

  00034	6a 00		 push	 0
  00036	6a 00		 push	 0
  00038	ff b6 38 26 00
	00		 push	 DWORD PTR [esi+9784]
  0003e	e8 00 00 00 00	 call	 ?AfxMessageBox@@YGHPBDII@Z ; AfxMessageBox
; File C:\Program Files (x86)\Microsoft Visual Studio\2019\Community\VC\Tools\MSVC\14.29.30133\atlmfc\include\afxwin2.inl

; 767  : 	{ ASSERT(::IsWindow(m_hWnd)); return (int)::SendMessage(m_hWnd, CB_SETCURSEL, nSelect, 0); }

  00043	6a 00		 push	 0
  00045	6a 00		 push	 0
  00047	68 4e 01 00 00	 push	 334			; 0000014eH
  0004c	ff b6 38 0d 00
	00		 push	 DWORD PTR [esi+3384]
  00052	ff d7		 call	 edi
$LN2@OnSelchang:
  00054	5f		 pop	 edi
; File D:\git\src\IBK\IBK_DRFN\ProjSrc\SrcChartEx\ChartAddIn\ChartEnvSetupDlgAddIn\ChartEnvSetupDlgAddIn\Setting_VolumeMA_Condition.cpp

; 776  : }

  00055	5e		 pop	 esi
  00056	c3		 ret	 0
?OnSelchangeThickness5@CSetting_VolumeMA_Condition@@IAEXXZ ENDP ; CSetting_VolumeMA_Condition::OnSelchangeThickness5
_TEXT	ENDS
; Function compile flags: /Ogtp
; File D:\git\src\IBK\IBK_DRFN\ProjSrc\SrcChartEx\ChartAddIn\ChartEnvSetupDlgAddIn\ChartEnvSetupDlgAddIn\Setting_VolumeMA_Condition.cpp
; File C:\Program Files (x86)\Microsoft Visual Studio\2019\Community\VC\Tools\MSVC\14.29.30133\atlmfc\include\afxwin2.inl
; File D:\git\src\IBK\IBK_DRFN\ProjSrc\SrcChartEx\ChartAddIn\ChartEnvSetupDlgAddIn\ChartEnvSetupDlgAddIn\Setting_VolumeMA_Condition.cpp
; File C:\Program Files (x86)\Microsoft Visual Studio\2019\Community\VC\Tools\MSVC\14.29.30133\atlmfc\include\afxwin2.inl
; File D:\git\src\IBK\IBK_DRFN\ProjSrc\SrcChartEx\ChartAddIn\ChartEnvSetupDlgAddIn\ChartEnvSetupDlgAddIn\Setting_VolumeMA_Condition.cpp
; File C:\Program Files (x86)\Microsoft Visual Studio\2019\Community\VC\Tools\MSVC\14.29.30133\atlmfc\include\afxwin2.inl
; File D:\git\src\IBK\IBK_DRFN\ProjSrc\SrcChartEx\ChartAddIn\ChartEnvSetupDlgAddIn\ChartEnvSetupDlgAddIn\Setting_VolumeMA_Condition.cpp
; File C:\Program Files (x86)\Microsoft Visual Studio\2019\Community\VC\Tools\MSVC\14.29.30133\atlmfc\include\afxwin2.inl
; File D:\git\src\IBK\IBK_DRFN\ProjSrc\SrcChartEx\ChartAddIn\ChartEnvSetupDlgAddIn\ChartEnvSetupDlgAddIn\Setting_VolumeMA_Condition.cpp
;	COMDAT ?OnSelchangeThickness4@CSetting_VolumeMA_Condition@@IAEXXZ
_TEXT	SEGMENT
?OnSelchangeThickness4@CSetting_VolumeMA_Condition@@IAEXXZ PROC ; CSetting_VolumeMA_Condition::OnSelchangeThickness4, COMDAT
; _this$ = ecx

; 750  : {

  00000	56		 push	 esi
  00001	57		 push	 edi
; File C:\Program Files (x86)\Microsoft Visual Studio\2019\Community\VC\Tools\MSVC\14.29.30133\atlmfc\include\afxwin2.inl

; 765  : 	{ ASSERT(::IsWindow(m_hWnd)); return (int)::SendMessage(m_hWnd, CB_GETCURSEL, 0, 0); }

  00002	8b 3d 00 00 00
	00		 mov	 edi, DWORD PTR __imp__SendMessageA@16
; File D:\git\src\IBK\IBK_DRFN\ProjSrc\SrcChartEx\ChartAddIn\ChartEnvSetupDlgAddIn\ChartEnvSetupDlgAddIn\Setting_VolumeMA_Condition.cpp

; 750  : {

  00008	8b f1		 mov	 esi, ecx
; File C:\Program Files (x86)\Microsoft Visual Studio\2019\Community\VC\Tools\MSVC\14.29.30133\atlmfc\include\afxwin2.inl

; 765  : 	{ ASSERT(::IsWindow(m_hWnd)); return (int)::SendMessage(m_hWnd, CB_GETCURSEL, 0, 0); }

  0000a	6a 00		 push	 0
  0000c	6a 00		 push	 0
  0000e	68 47 01 00 00	 push	 327			; 00000147H
  00013	ff b6 c0 0d 00
	00		 push	 DWORD PTR [esi+3520]
  00019	ff d7		 call	 edi
; File D:\git\src\IBK\IBK_DRFN\ProjSrc\SrcChartEx\ChartAddIn\ChartEnvSetupDlgAddIn\ChartEnvSetupDlgAddIn\Setting_VolumeMA_Condition.cpp

; 752  : 	if( m_cmbDrawStyleGraph4.GetCurSel() != 0 && m_cmbThicknessGraph4.GetCurSel() != 0 )

  0001b	85 c0		 test	 eax, eax
  0001d	74 35		 je	 SHORT $LN2@OnSelchang
; File C:\Program Files (x86)\Microsoft Visual Studio\2019\Community\VC\Tools\MSVC\14.29.30133\atlmfc\include\afxwin2.inl

; 765  : 	{ ASSERT(::IsWindow(m_hWnd)); return (int)::SendMessage(m_hWnd, CB_GETCURSEL, 0, 0); }

  0001f	6a 00		 push	 0
  00021	6a 00		 push	 0
  00023	68 47 01 00 00	 push	 327			; 00000147H
  00028	ff b6 70 03 00
	00		 push	 DWORD PTR [esi+880]
  0002e	ff d7		 call	 edi
; File D:\git\src\IBK\IBK_DRFN\ProjSrc\SrcChartEx\ChartAddIn\ChartEnvSetupDlgAddIn\ChartEnvSetupDlgAddIn\Setting_VolumeMA_Condition.cpp

; 752  : 	if( m_cmbDrawStyleGraph4.GetCurSel() != 0 && m_cmbThicknessGraph4.GetCurSel() != 0 )

  00030	85 c0		 test	 eax, eax
  00032	74 20		 je	 SHORT $LN2@OnSelchang

; 753  : 	{
; 754  : // 2008.01.25 by LYH >>
; 755  : 		//AfxMessageBox(" \"\"     .");
; 756  : 		AfxMessageBox(m_strMsgLineThick);

  00034	6a 00		 push	 0
  00036	6a 00		 push	 0
  00038	ff b6 38 26 00
	00		 push	 DWORD PTR [esi+9784]
  0003e	e8 00 00 00 00	 call	 ?AfxMessageBox@@YGHPBDII@Z ; AfxMessageBox
; File C:\Program Files (x86)\Microsoft Visual Studio\2019\Community\VC\Tools\MSVC\14.29.30133\atlmfc\include\afxwin2.inl

; 767  : 	{ ASSERT(::IsWindow(m_hWnd)); return (int)::SendMessage(m_hWnd, CB_SETCURSEL, nSelect, 0); }

  00043	6a 00		 push	 0
  00045	6a 00		 push	 0
  00047	68 4e 01 00 00	 push	 334			; 0000014eH
  0004c	ff b6 c0 0d 00
	00		 push	 DWORD PTR [esi+3520]
  00052	ff d7		 call	 edi
$LN2@OnSelchang:
  00054	5f		 pop	 edi
; File D:\git\src\IBK\IBK_DRFN\ProjSrc\SrcChartEx\ChartAddIn\ChartEnvSetupDlgAddIn\ChartEnvSetupDlgAddIn\Setting_VolumeMA_Condition.cpp

; 761  : }

  00055	5e		 pop	 esi
  00056	c3		 ret	 0
?OnSelchangeThickness4@CSetting_VolumeMA_Condition@@IAEXXZ ENDP ; CSetting_VolumeMA_Condition::OnSelchangeThickness4
_TEXT	ENDS
; Function compile flags: /Ogtp
; File D:\git\src\IBK\IBK_DRFN\ProjSrc\SrcChartEx\ChartAddIn\ChartEnvSetupDlgAddIn\ChartEnvSetupDlgAddIn\Setting_VolumeMA_Condition.cpp
; File C:\Program Files (x86)\Microsoft Visual Studio\2019\Community\VC\Tools\MSVC\14.29.30133\atlmfc\include\afxwin2.inl
; File D:\git\src\IBK\IBK_DRFN\ProjSrc\SrcChartEx\ChartAddIn\ChartEnvSetupDlgAddIn\ChartEnvSetupDlgAddIn\Setting_VolumeMA_Condition.cpp
; File C:\Program Files (x86)\Microsoft Visual Studio\2019\Community\VC\Tools\MSVC\14.29.30133\atlmfc\include\afxwin2.inl
; File D:\git\src\IBK\IBK_DRFN\ProjSrc\SrcChartEx\ChartAddIn\ChartEnvSetupDlgAddIn\ChartEnvSetupDlgAddIn\Setting_VolumeMA_Condition.cpp
; File C:\Program Files (x86)\Microsoft Visual Studio\2019\Community\VC\Tools\MSVC\14.29.30133\atlmfc\include\afxwin2.inl
; File D:\git\src\IBK\IBK_DRFN\ProjSrc\SrcChartEx\ChartAddIn\ChartEnvSetupDlgAddIn\ChartEnvSetupDlgAddIn\Setting_VolumeMA_Condition.cpp
; File C:\Program Files (x86)\Microsoft Visual Studio\2019\Community\VC\Tools\MSVC\14.29.30133\atlmfc\include\afxwin2.inl
; File D:\git\src\IBK\IBK_DRFN\ProjSrc\SrcChartEx\ChartAddIn\ChartEnvSetupDlgAddIn\ChartEnvSetupDlgAddIn\Setting_VolumeMA_Condition.cpp
;	COMDAT ?OnSelchangeThickness3@CSetting_VolumeMA_Condition@@IAEXXZ
_TEXT	SEGMENT
?OnSelchangeThickness3@CSetting_VolumeMA_Condition@@IAEXXZ PROC ; CSetting_VolumeMA_Condition::OnSelchangeThickness3, COMDAT
; _this$ = ecx

; 735  : {

  00000	56		 push	 esi
  00001	57		 push	 edi
; File C:\Program Files (x86)\Microsoft Visual Studio\2019\Community\VC\Tools\MSVC\14.29.30133\atlmfc\include\afxwin2.inl

; 765  : 	{ ASSERT(::IsWindow(m_hWnd)); return (int)::SendMessage(m_hWnd, CB_GETCURSEL, 0, 0); }

  00002	8b 3d 00 00 00
	00		 mov	 edi, DWORD PTR __imp__SendMessageA@16
; File D:\git\src\IBK\IBK_DRFN\ProjSrc\SrcChartEx\ChartAddIn\ChartEnvSetupDlgAddIn\ChartEnvSetupDlgAddIn\Setting_VolumeMA_Condition.cpp

; 735  : {

  00008	8b f1		 mov	 esi, ecx
; File C:\Program Files (x86)\Microsoft Visual Studio\2019\Community\VC\Tools\MSVC\14.29.30133\atlmfc\include\afxwin2.inl

; 765  : 	{ ASSERT(::IsWindow(m_hWnd)); return (int)::SendMessage(m_hWnd, CB_GETCURSEL, 0, 0); }

  0000a	6a 00		 push	 0
  0000c	6a 00		 push	 0
  0000e	68 47 01 00 00	 push	 327			; 00000147H
  00013	ff b6 48 0e 00
	00		 push	 DWORD PTR [esi+3656]
  00019	ff d7		 call	 edi
; File D:\git\src\IBK\IBK_DRFN\ProjSrc\SrcChartEx\ChartAddIn\ChartEnvSetupDlgAddIn\ChartEnvSetupDlgAddIn\Setting_VolumeMA_Condition.cpp

; 737  : 	if( m_cmbDrawStyleGraph3.GetCurSel() != 0 && m_cmbThicknessGraph3.GetCurSel() != 0 )

  0001b	85 c0		 test	 eax, eax
  0001d	74 35		 je	 SHORT $LN2@OnSelchang
; File C:\Program Files (x86)\Microsoft Visual Studio\2019\Community\VC\Tools\MSVC\14.29.30133\atlmfc\include\afxwin2.inl

; 765  : 	{ ASSERT(::IsWindow(m_hWnd)); return (int)::SendMessage(m_hWnd, CB_GETCURSEL, 0, 0); }

  0001f	6a 00		 push	 0
  00021	6a 00		 push	 0
  00023	68 47 01 00 00	 push	 327			; 00000147H
  00028	ff b6 f8 03 00
	00		 push	 DWORD PTR [esi+1016]
  0002e	ff d7		 call	 edi
; File D:\git\src\IBK\IBK_DRFN\ProjSrc\SrcChartEx\ChartAddIn\ChartEnvSetupDlgAddIn\ChartEnvSetupDlgAddIn\Setting_VolumeMA_Condition.cpp

; 737  : 	if( m_cmbDrawStyleGraph3.GetCurSel() != 0 && m_cmbThicknessGraph3.GetCurSel() != 0 )

  00030	85 c0		 test	 eax, eax
  00032	74 20		 je	 SHORT $LN2@OnSelchang

; 738  : 	{
; 739  : // 2008.01.25 by LYH >>
; 740  : 		//AfxMessageBox(" \"\"     .");
; 741  : 		AfxMessageBox(m_strMsgLineThick);

  00034	6a 00		 push	 0
  00036	6a 00		 push	 0
  00038	ff b6 38 26 00
	00		 push	 DWORD PTR [esi+9784]
  0003e	e8 00 00 00 00	 call	 ?AfxMessageBox@@YGHPBDII@Z ; AfxMessageBox
; File C:\Program Files (x86)\Microsoft Visual Studio\2019\Community\VC\Tools\MSVC\14.29.30133\atlmfc\include\afxwin2.inl

; 767  : 	{ ASSERT(::IsWindow(m_hWnd)); return (int)::SendMessage(m_hWnd, CB_SETCURSEL, nSelect, 0); }

  00043	6a 00		 push	 0
  00045	6a 00		 push	 0
  00047	68 4e 01 00 00	 push	 334			; 0000014eH
  0004c	ff b6 48 0e 00
	00		 push	 DWORD PTR [esi+3656]
  00052	ff d7		 call	 edi
$LN2@OnSelchang:
  00054	5f		 pop	 edi
; File D:\git\src\IBK\IBK_DRFN\ProjSrc\SrcChartEx\ChartAddIn\ChartEnvSetupDlgAddIn\ChartEnvSetupDlgAddIn\Setting_VolumeMA_Condition.cpp

; 746  : }

  00055	5e		 pop	 esi
  00056	c3		 ret	 0
?OnSelchangeThickness3@CSetting_VolumeMA_Condition@@IAEXXZ ENDP ; CSetting_VolumeMA_Condition::OnSelchangeThickness3
_TEXT	ENDS
; Function compile flags: /Ogtp
; File D:\git\src\IBK\IBK_DRFN\ProjSrc\SrcChartEx\ChartAddIn\ChartEnvSetupDlgAddIn\ChartEnvSetupDlgAddIn\Setting_VolumeMA_Condition.cpp
; File C:\Program Files (x86)\Microsoft Visual Studio\2019\Community\VC\Tools\MSVC\14.29.30133\atlmfc\include\afxwin2.inl
; File D:\git\src\IBK\IBK_DRFN\ProjSrc\SrcChartEx\ChartAddIn\ChartEnvSetupDlgAddIn\ChartEnvSetupDlgAddIn\Setting_VolumeMA_Condition.cpp
; File C:\Program Files (x86)\Microsoft Visual Studio\2019\Community\VC\Tools\MSVC\14.29.30133\atlmfc\include\afxwin2.inl
; File D:\git\src\IBK\IBK_DRFN\ProjSrc\SrcChartEx\ChartAddIn\ChartEnvSetupDlgAddIn\ChartEnvSetupDlgAddIn\Setting_VolumeMA_Condition.cpp
; File C:\Program Files (x86)\Microsoft Visual Studio\2019\Community\VC\Tools\MSVC\14.29.30133\atlmfc\include\afxwin2.inl
; File D:\git\src\IBK\IBK_DRFN\ProjSrc\SrcChartEx\ChartAddIn\ChartEnvSetupDlgAddIn\ChartEnvSetupDlgAddIn\Setting_VolumeMA_Condition.cpp
; File C:\Program Files (x86)\Microsoft Visual Studio\2019\Community\VC\Tools\MSVC\14.29.30133\atlmfc\include\afxwin2.inl
; File D:\git\src\IBK\IBK_DRFN\ProjSrc\SrcChartEx\ChartAddIn\ChartEnvSetupDlgAddIn\ChartEnvSetupDlgAddIn\Setting_VolumeMA_Condition.cpp
;	COMDAT ?OnSelchangeThickness2@CSetting_VolumeMA_Condition@@IAEXXZ
_TEXT	SEGMENT
?OnSelchangeThickness2@CSetting_VolumeMA_Condition@@IAEXXZ PROC ; CSetting_VolumeMA_Condition::OnSelchangeThickness2, COMDAT
; _this$ = ecx

; 720  : {

  00000	56		 push	 esi
  00001	57		 push	 edi
; File C:\Program Files (x86)\Microsoft Visual Studio\2019\Community\VC\Tools\MSVC\14.29.30133\atlmfc\include\afxwin2.inl

; 765  : 	{ ASSERT(::IsWindow(m_hWnd)); return (int)::SendMessage(m_hWnd, CB_GETCURSEL, 0, 0); }

  00002	8b 3d 00 00 00
	00		 mov	 edi, DWORD PTR __imp__SendMessageA@16
; File D:\git\src\IBK\IBK_DRFN\ProjSrc\SrcChartEx\ChartAddIn\ChartEnvSetupDlgAddIn\ChartEnvSetupDlgAddIn\Setting_VolumeMA_Condition.cpp

; 720  : {

  00008	8b f1		 mov	 esi, ecx
; File C:\Program Files (x86)\Microsoft Visual Studio\2019\Community\VC\Tools\MSVC\14.29.30133\atlmfc\include\afxwin2.inl

; 765  : 	{ ASSERT(::IsWindow(m_hWnd)); return (int)::SendMessage(m_hWnd, CB_GETCURSEL, 0, 0); }

  0000a	6a 00		 push	 0
  0000c	6a 00		 push	 0
  0000e	68 47 01 00 00	 push	 327			; 00000147H
  00013	ff b6 d0 0e 00
	00		 push	 DWORD PTR [esi+3792]
  00019	ff d7		 call	 edi
; File D:\git\src\IBK\IBK_DRFN\ProjSrc\SrcChartEx\ChartAddIn\ChartEnvSetupDlgAddIn\ChartEnvSetupDlgAddIn\Setting_VolumeMA_Condition.cpp

; 722  : 	if( m_cmbDrawStyleGraph2.GetCurSel() != 0 && m_cmbThicknessGraph2.GetCurSel() != 0 )

  0001b	85 c0		 test	 eax, eax
  0001d	74 35		 je	 SHORT $LN2@OnSelchang
; File C:\Program Files (x86)\Microsoft Visual Studio\2019\Community\VC\Tools\MSVC\14.29.30133\atlmfc\include\afxwin2.inl

; 765  : 	{ ASSERT(::IsWindow(m_hWnd)); return (int)::SendMessage(m_hWnd, CB_GETCURSEL, 0, 0); }

  0001f	6a 00		 push	 0
  00021	6a 00		 push	 0
  00023	68 47 01 00 00	 push	 327			; 00000147H
  00028	ff b6 80 04 00
	00		 push	 DWORD PTR [esi+1152]
  0002e	ff d7		 call	 edi
; File D:\git\src\IBK\IBK_DRFN\ProjSrc\SrcChartEx\ChartAddIn\ChartEnvSetupDlgAddIn\ChartEnvSetupDlgAddIn\Setting_VolumeMA_Condition.cpp

; 722  : 	if( m_cmbDrawStyleGraph2.GetCurSel() != 0 && m_cmbThicknessGraph2.GetCurSel() != 0 )

  00030	85 c0		 test	 eax, eax
  00032	74 20		 je	 SHORT $LN2@OnSelchang

; 723  : 	{
; 724  : // 2008.01.25 by LYH >>
; 725  : 		//AfxMessageBox(" \"\"     .");
; 726  : 		AfxMessageBox(m_strMsgLineThick);

  00034	6a 00		 push	 0
  00036	6a 00		 push	 0
  00038	ff b6 38 26 00
	00		 push	 DWORD PTR [esi+9784]
  0003e	e8 00 00 00 00	 call	 ?AfxMessageBox@@YGHPBDII@Z ; AfxMessageBox
; File C:\Program Files (x86)\Microsoft Visual Studio\2019\Community\VC\Tools\MSVC\14.29.30133\atlmfc\include\afxwin2.inl

; 767  : 	{ ASSERT(::IsWindow(m_hWnd)); return (int)::SendMessage(m_hWnd, CB_SETCURSEL, nSelect, 0); }

  00043	6a 00		 push	 0
  00045	6a 00		 push	 0
  00047	68 4e 01 00 00	 push	 334			; 0000014eH
  0004c	ff b6 d0 0e 00
	00		 push	 DWORD PTR [esi+3792]
  00052	ff d7		 call	 edi
$LN2@OnSelchang:
  00054	5f		 pop	 edi
; File D:\git\src\IBK\IBK_DRFN\ProjSrc\SrcChartEx\ChartAddIn\ChartEnvSetupDlgAddIn\ChartEnvSetupDlgAddIn\Setting_VolumeMA_Condition.cpp

; 731  : }

  00055	5e		 pop	 esi
  00056	c3		 ret	 0
?OnSelchangeThickness2@CSetting_VolumeMA_Condition@@IAEXXZ ENDP ; CSetting_VolumeMA_Condition::OnSelchangeThickness2
_TEXT	ENDS
; Function compile flags: /Ogtp
; File D:\git\src\IBK\IBK_DRFN\ProjSrc\SrcChartEx\ChartAddIn\ChartEnvSetupDlgAddIn\ChartEnvSetupDlgAddIn\Setting_VolumeMA_Condition.cpp
; File C:\Program Files (x86)\Microsoft Visual Studio\2019\Community\VC\Tools\MSVC\14.29.30133\atlmfc\include\afxwin2.inl
; File D:\git\src\IBK\IBK_DRFN\ProjSrc\SrcChartEx\ChartAddIn\ChartEnvSetupDlgAddIn\ChartEnvSetupDlgAddIn\Setting_VolumeMA_Condition.cpp
; File C:\Program Files (x86)\Microsoft Visual Studio\2019\Community\VC\Tools\MSVC\14.29.30133\atlmfc\include\afxwin2.inl
; File D:\git\src\IBK\IBK_DRFN\ProjSrc\SrcChartEx\ChartAddIn\ChartEnvSetupDlgAddIn\ChartEnvSetupDlgAddIn\Setting_VolumeMA_Condition.cpp
; File C:\Program Files (x86)\Microsoft Visual Studio\2019\Community\VC\Tools\MSVC\14.29.30133\atlmfc\include\afxwin2.inl
; File D:\git\src\IBK\IBK_DRFN\ProjSrc\SrcChartEx\ChartAddIn\ChartEnvSetupDlgAddIn\ChartEnvSetupDlgAddIn\Setting_VolumeMA_Condition.cpp
; File C:\Program Files (x86)\Microsoft Visual Studio\2019\Community\VC\Tools\MSVC\14.29.30133\atlmfc\include\afxwin2.inl
; File D:\git\src\IBK\IBK_DRFN\ProjSrc\SrcChartEx\ChartAddIn\ChartEnvSetupDlgAddIn\ChartEnvSetupDlgAddIn\Setting_VolumeMA_Condition.cpp
;	COMDAT ?OnSelchangeThickness1@CSetting_VolumeMA_Condition@@IAEXXZ
_TEXT	SEGMENT
?OnSelchangeThickness1@CSetting_VolumeMA_Condition@@IAEXXZ PROC ; CSetting_VolumeMA_Condition::OnSelchangeThickness1, COMDAT
; _this$ = ecx

; 705  : {

  00000	56		 push	 esi
  00001	57		 push	 edi
; File C:\Program Files (x86)\Microsoft Visual Studio\2019\Community\VC\Tools\MSVC\14.29.30133\atlmfc\include\afxwin2.inl

; 765  : 	{ ASSERT(::IsWindow(m_hWnd)); return (int)::SendMessage(m_hWnd, CB_GETCURSEL, 0, 0); }

  00002	8b 3d 00 00 00
	00		 mov	 edi, DWORD PTR __imp__SendMessageA@16
; File D:\git\src\IBK\IBK_DRFN\ProjSrc\SrcChartEx\ChartAddIn\ChartEnvSetupDlgAddIn\ChartEnvSetupDlgAddIn\Setting_VolumeMA_Condition.cpp

; 705  : {

  00008	8b f1		 mov	 esi, ecx
; File C:\Program Files (x86)\Microsoft Visual Studio\2019\Community\VC\Tools\MSVC\14.29.30133\atlmfc\include\afxwin2.inl

; 765  : 	{ ASSERT(::IsWindow(m_hWnd)); return (int)::SendMessage(m_hWnd, CB_GETCURSEL, 0, 0); }

  0000a	6a 00		 push	 0
  0000c	6a 00		 push	 0
  0000e	68 47 01 00 00	 push	 327			; 00000147H
  00013	ff b6 58 0f 00
	00		 push	 DWORD PTR [esi+3928]
  00019	ff d7		 call	 edi
; File D:\git\src\IBK\IBK_DRFN\ProjSrc\SrcChartEx\ChartAddIn\ChartEnvSetupDlgAddIn\ChartEnvSetupDlgAddIn\Setting_VolumeMA_Condition.cpp

; 707  : 	if( m_cmbDrawStyleGraph1.GetCurSel() != 0 && m_cmbThicknessGraph1.GetCurSel() != 0 )

  0001b	85 c0		 test	 eax, eax
  0001d	74 35		 je	 SHORT $LN2@OnSelchang
; File C:\Program Files (x86)\Microsoft Visual Studio\2019\Community\VC\Tools\MSVC\14.29.30133\atlmfc\include\afxwin2.inl

; 765  : 	{ ASSERT(::IsWindow(m_hWnd)); return (int)::SendMessage(m_hWnd, CB_GETCURSEL, 0, 0); }

  0001f	6a 00		 push	 0
  00021	6a 00		 push	 0
  00023	68 47 01 00 00	 push	 327			; 00000147H
  00028	ff b6 08 05 00
	00		 push	 DWORD PTR [esi+1288]
  0002e	ff d7		 call	 edi
; File D:\git\src\IBK\IBK_DRFN\ProjSrc\SrcChartEx\ChartAddIn\ChartEnvSetupDlgAddIn\ChartEnvSetupDlgAddIn\Setting_VolumeMA_Condition.cpp

; 707  : 	if( m_cmbDrawStyleGraph1.GetCurSel() != 0 && m_cmbThicknessGraph1.GetCurSel() != 0 )

  00030	85 c0		 test	 eax, eax
  00032	74 20		 je	 SHORT $LN2@OnSelchang

; 708  : 	{
; 709  : // 2008.01.25 by LYH >>
; 710  : 		//AfxMessageBox(" \"\"     .");
; 711  : 		AfxMessageBox(m_strMsgLineThick);

  00034	6a 00		 push	 0
  00036	6a 00		 push	 0
  00038	ff b6 38 26 00
	00		 push	 DWORD PTR [esi+9784]
  0003e	e8 00 00 00 00	 call	 ?AfxMessageBox@@YGHPBDII@Z ; AfxMessageBox
; File C:\Program Files (x86)\Microsoft Visual Studio\2019\Community\VC\Tools\MSVC\14.29.30133\atlmfc\include\afxwin2.inl

; 767  : 	{ ASSERT(::IsWindow(m_hWnd)); return (int)::SendMessage(m_hWnd, CB_SETCURSEL, nSelect, 0); }

  00043	6a 00		 push	 0
  00045	6a 00		 push	 0
  00047	68 4e 01 00 00	 push	 334			; 0000014eH
  0004c	ff b6 58 0f 00
	00		 push	 DWORD PTR [esi+3928]
  00052	ff d7		 call	 edi
$LN2@OnSelchang:
  00054	5f		 pop	 edi
; File D:\git\src\IBK\IBK_DRFN\ProjSrc\SrcChartEx\ChartAddIn\ChartEnvSetupDlgAddIn\ChartEnvSetupDlgAddIn\Setting_VolumeMA_Condition.cpp

; 716  : }

  00055	5e		 pop	 esi
  00056	c3		 ret	 0
?OnSelchangeThickness1@CSetting_VolumeMA_Condition@@IAEXXZ ENDP ; CSetting_VolumeMA_Condition::OnSelchangeThickness1
_TEXT	ENDS
; Function compile flags: /Ogtp
; File D:\git\src\IBK\IBK_DRFN\ProjSrc\SrcChartEx\ChartAddIn\ChartEnvSetupDlgAddIn\ChartEnvSetupDlgAddIn\Setting_VolumeMA_Condition.cpp
; File C:\Program Files (x86)\Microsoft Visual Studio\2019\Community\VC\Tools\MSVC\14.29.30133\atlmfc\include\afxwin2.inl
; File D:\git\src\IBK\IBK_DRFN\ProjSrc\SrcChartEx\ChartAddIn\ChartEnvSetupDlgAddIn\ChartEnvSetupDlgAddIn\Setting_VolumeMA_Condition.cpp
; File C:\Program Files (x86)\Microsoft Visual Studio\2019\Community\VC\Tools\MSVC\14.29.30133\atlmfc\include\afxwin2.inl
; File D:\git\src\IBK\IBK_DRFN\ProjSrc\SrcChartEx\ChartAddIn\ChartEnvSetupDlgAddIn\ChartEnvSetupDlgAddIn\Setting_VolumeMA_Condition.cpp
; File C:\Program Files (x86)\Microsoft Visual Studio\2019\Community\VC\Tools\MSVC\14.29.30133\atlmfc\include\afxwin2.inl
; File D:\git\src\IBK\IBK_DRFN\ProjSrc\SrcChartEx\ChartAddIn\ChartEnvSetupDlgAddIn\ChartEnvSetupDlgAddIn\Setting_VolumeMA_Condition.cpp
; File C:\Program Files (x86)\Microsoft Visual Studio\2019\Community\VC\Tools\MSVC\14.29.30133\atlmfc\include\afxwin2.inl
; File D:\git\src\IBK\IBK_DRFN\ProjSrc\SrcChartEx\ChartAddIn\ChartEnvSetupDlgAddIn\ChartEnvSetupDlgAddIn\Setting_VolumeMA_Condition.cpp
;	COMDAT ?OnSelchangeThickness0@CSetting_VolumeMA_Condition@@IAEXXZ
_TEXT	SEGMENT
?OnSelchangeThickness0@CSetting_VolumeMA_Condition@@IAEXXZ PROC ; CSetting_VolumeMA_Condition::OnSelchangeThickness0, COMDAT
; _this$ = ecx

; 689  : {

  00000	56		 push	 esi
  00001	57		 push	 edi
; File C:\Program Files (x86)\Microsoft Visual Studio\2019\Community\VC\Tools\MSVC\14.29.30133\atlmfc\include\afxwin2.inl

; 765  : 	{ ASSERT(::IsWindow(m_hWnd)); return (int)::SendMessage(m_hWnd, CB_GETCURSEL, 0, 0); }

  00002	8b 3d 00 00 00
	00		 mov	 edi, DWORD PTR __imp__SendMessageA@16
; File D:\git\src\IBK\IBK_DRFN\ProjSrc\SrcChartEx\ChartAddIn\ChartEnvSetupDlgAddIn\ChartEnvSetupDlgAddIn\Setting_VolumeMA_Condition.cpp

; 689  : {

  00008	8b f1		 mov	 esi, ecx
; File C:\Program Files (x86)\Microsoft Visual Studio\2019\Community\VC\Tools\MSVC\14.29.30133\atlmfc\include\afxwin2.inl

; 765  : 	{ ASSERT(::IsWindow(m_hWnd)); return (int)::SendMessage(m_hWnd, CB_GETCURSEL, 0, 0); }

  0000a	6a 00		 push	 0
  0000c	6a 00		 push	 0
  0000e	68 47 01 00 00	 push	 327			; 00000147H
  00013	ff b6 e0 0f 00
	00		 push	 DWORD PTR [esi+4064]
  00019	ff d7		 call	 edi
; File D:\git\src\IBK\IBK_DRFN\ProjSrc\SrcChartEx\ChartAddIn\ChartEnvSetupDlgAddIn\ChartEnvSetupDlgAddIn\Setting_VolumeMA_Condition.cpp

; 691  : 	if( m_cmbDrawStyleGraph0.GetCurSel() != 0 && m_cmbThicknessGraph0.GetCurSel() != 0 )

  0001b	85 c0		 test	 eax, eax
  0001d	74 35		 je	 SHORT $LN2@OnSelchang
; File C:\Program Files (x86)\Microsoft Visual Studio\2019\Community\VC\Tools\MSVC\14.29.30133\atlmfc\include\afxwin2.inl

; 765  : 	{ ASSERT(::IsWindow(m_hWnd)); return (int)::SendMessage(m_hWnd, CB_GETCURSEL, 0, 0); }

  0001f	6a 00		 push	 0
  00021	6a 00		 push	 0
  00023	68 47 01 00 00	 push	 327			; 00000147H
  00028	ff b6 90 05 00
	00		 push	 DWORD PTR [esi+1424]
  0002e	ff d7		 call	 edi
; File D:\git\src\IBK\IBK_DRFN\ProjSrc\SrcChartEx\ChartAddIn\ChartEnvSetupDlgAddIn\ChartEnvSetupDlgAddIn\Setting_VolumeMA_Condition.cpp

; 691  : 	if( m_cmbDrawStyleGraph0.GetCurSel() != 0 && m_cmbThicknessGraph0.GetCurSel() != 0 )

  00030	85 c0		 test	 eax, eax
  00032	74 20		 je	 SHORT $LN2@OnSelchang

; 692  : 	{
; 693  : // 2008.01.25 by LYH >>
; 694  : 		//AfxMessageBox(" \"\"     .");
; 695  : 		AfxMessageBox(m_strMsgLineThick);

  00034	6a 00		 push	 0
  00036	6a 00		 push	 0
  00038	ff b6 38 26 00
	00		 push	 DWORD PTR [esi+9784]
  0003e	e8 00 00 00 00	 call	 ?AfxMessageBox@@YGHPBDII@Z ; AfxMessageBox
; File C:\Program Files (x86)\Microsoft Visual Studio\2019\Community\VC\Tools\MSVC\14.29.30133\atlmfc\include\afxwin2.inl

; 767  : 	{ ASSERT(::IsWindow(m_hWnd)); return (int)::SendMessage(m_hWnd, CB_SETCURSEL, nSelect, 0); }

  00043	6a 00		 push	 0
  00045	6a 00		 push	 0
  00047	68 4e 01 00 00	 push	 334			; 0000014eH
  0004c	ff b6 e0 0f 00
	00		 push	 DWORD PTR [esi+4064]
  00052	ff d7		 call	 edi
$LN2@OnSelchang:
  00054	5f		 pop	 edi
; File D:\git\src\IBK\IBK_DRFN\ProjSrc\SrcChartEx\ChartAddIn\ChartEnvSetupDlgAddIn\ChartEnvSetupDlgAddIn\Setting_VolumeMA_Condition.cpp

; 701  : }

  00055	5e		 pop	 esi
  00056	c3		 ret	 0
?OnSelchangeThickness0@CSetting_VolumeMA_Condition@@IAEXXZ ENDP ; CSetting_VolumeMA_Condition::OnSelchangeThickness0
_TEXT	ENDS
; Function compile flags: /Ogtp
; File D:\git\src\IBK\IBK_DRFN\ProjSrc\SrcChartEx\ChartAddIn\ChartEnvSetupDlgAddIn\ChartEnvSetupDlgAddIn\Setting_VolumeMA_Condition.cpp
; File C:\Program Files (x86)\Microsoft Visual Studio\2019\Community\VC\Tools\MSVC\14.29.30133\atlmfc\include\afxwin2.inl
; File D:\git\src\IBK\IBK_DRFN\ProjSrc\SrcChartEx\ChartAddIn\ChartEnvSetupDlgAddIn\ChartEnvSetupDlgAddIn\Setting_VolumeMA_Condition.cpp
; File C:\Program Files (x86)\Microsoft Visual Studio\2019\Community\VC\Tools\MSVC\14.29.30133\atlmfc\include\afxwin2.inl
; File D:\git\src\IBK\IBK_DRFN\ProjSrc\SrcChartEx\ChartAddIn\ChartEnvSetupDlgAddIn\ChartEnvSetupDlgAddIn\Setting_VolumeMA_Condition.cpp
; File C:\Program Files (x86)\Microsoft Visual Studio\2019\Community\VC\Tools\MSVC\14.29.30133\atlmfc\include\afxwin2.inl
; File D:\git\src\IBK\IBK_DRFN\ProjSrc\SrcChartEx\ChartAddIn\ChartEnvSetupDlgAddIn\ChartEnvSetupDlgAddIn\Setting_VolumeMA_Condition.cpp
; File C:\Program Files (x86)\Microsoft Visual Studio\2019\Community\VC\Tools\MSVC\14.29.30133\atlmfc\include\afxwin2.inl
; File D:\git\src\IBK\IBK_DRFN\ProjSrc\SrcChartEx\ChartAddIn\ChartEnvSetupDlgAddIn\ChartEnvSetupDlgAddIn\Setting_VolumeMA_Condition.cpp
;	COMDAT ?OnSelchangeDrawstyle9@CSetting_VolumeMA_Condition@@IAEXXZ
_TEXT	SEGMENT
?OnSelchangeDrawstyle9@CSetting_VolumeMA_Condition@@IAEXXZ PROC ; CSetting_VolumeMA_Condition::OnSelchangeDrawstyle9, COMDAT
; _this$ = ecx

; 674  : {

  00000	56		 push	 esi
  00001	57		 push	 edi
; File C:\Program Files (x86)\Microsoft Visual Studio\2019\Community\VC\Tools\MSVC\14.29.30133\atlmfc\include\afxwin2.inl

; 765  : 	{ ASSERT(::IsWindow(m_hWnd)); return (int)::SendMessage(m_hWnd, CB_GETCURSEL, 0, 0); }

  00002	8b 3d 00 00 00
	00		 mov	 edi, DWORD PTR __imp__SendMessageA@16
; File D:\git\src\IBK\IBK_DRFN\ProjSrc\SrcChartEx\ChartAddIn\ChartEnvSetupDlgAddIn\ChartEnvSetupDlgAddIn\Setting_VolumeMA_Condition.cpp

; 674  : {

  00008	8b f1		 mov	 esi, ecx
; File C:\Program Files (x86)\Microsoft Visual Studio\2019\Community\VC\Tools\MSVC\14.29.30133\atlmfc\include\afxwin2.inl

; 765  : 	{ ASSERT(::IsWindow(m_hWnd)); return (int)::SendMessage(m_hWnd, CB_GETCURSEL, 0, 0); }

  0000a	6a 00		 push	 0
  0000c	6a 00		 push	 0
  0000e	68 47 01 00 00	 push	 327			; 00000147H
  00013	ff b6 c8 00 00
	00		 push	 DWORD PTR [esi+200]
  00019	ff d7		 call	 edi
; File D:\git\src\IBK\IBK_DRFN\ProjSrc\SrcChartEx\ChartAddIn\ChartEnvSetupDlgAddIn\ChartEnvSetupDlgAddIn\Setting_VolumeMA_Condition.cpp

; 676  : 	if( m_cmbThicknessGraph9.GetCurSel() != 0 && m_cmbDrawStyleGraph9.GetCurSel() != 0 )

  0001b	85 c0		 test	 eax, eax
  0001d	74 35		 je	 SHORT $LN2@OnSelchang
; File C:\Program Files (x86)\Microsoft Visual Studio\2019\Community\VC\Tools\MSVC\14.29.30133\atlmfc\include\afxwin2.inl

; 765  : 	{ ASSERT(::IsWindow(m_hWnd)); return (int)::SendMessage(m_hWnd, CB_GETCURSEL, 0, 0); }

  0001f	6a 00		 push	 0
  00021	6a 00		 push	 0
  00023	68 47 01 00 00	 push	 327			; 00000147H
  00028	ff b6 18 0b 00
	00		 push	 DWORD PTR [esi+2840]
  0002e	ff d7		 call	 edi
; File D:\git\src\IBK\IBK_DRFN\ProjSrc\SrcChartEx\ChartAddIn\ChartEnvSetupDlgAddIn\ChartEnvSetupDlgAddIn\Setting_VolumeMA_Condition.cpp

; 676  : 	if( m_cmbThicknessGraph9.GetCurSel() != 0 && m_cmbDrawStyleGraph9.GetCurSel() != 0 )

  00030	85 c0		 test	 eax, eax
  00032	74 20		 je	 SHORT $LN2@OnSelchang

; 677  : 	{
; 678  : // 2008.01.25 by LYH >>
; 679  : 		//AfxMessageBox(" \"1pt\"     .");
; 680  : 		AfxMessageBox(m_strMsgLineShape);

  00034	6a 00		 push	 0
  00036	6a 00		 push	 0
  00038	ff b6 3c 26 00
	00		 push	 DWORD PTR [esi+9788]
  0003e	e8 00 00 00 00	 call	 ?AfxMessageBox@@YGHPBDII@Z ; AfxMessageBox
; File C:\Program Files (x86)\Microsoft Visual Studio\2019\Community\VC\Tools\MSVC\14.29.30133\atlmfc\include\afxwin2.inl

; 767  : 	{ ASSERT(::IsWindow(m_hWnd)); return (int)::SendMessage(m_hWnd, CB_SETCURSEL, nSelect, 0); }

  00043	6a 00		 push	 0
  00045	6a 00		 push	 0
  00047	68 4e 01 00 00	 push	 334			; 0000014eH
  0004c	ff b6 c8 00 00
	00		 push	 DWORD PTR [esi+200]
  00052	ff d7		 call	 edi
$LN2@OnSelchang:
  00054	5f		 pop	 edi
; File D:\git\src\IBK\IBK_DRFN\ProjSrc\SrcChartEx\ChartAddIn\ChartEnvSetupDlgAddIn\ChartEnvSetupDlgAddIn\Setting_VolumeMA_Condition.cpp

; 685  : }

  00055	5e		 pop	 esi
  00056	c3		 ret	 0
?OnSelchangeDrawstyle9@CSetting_VolumeMA_Condition@@IAEXXZ ENDP ; CSetting_VolumeMA_Condition::OnSelchangeDrawstyle9
_TEXT	ENDS
; Function compile flags: /Ogtp
; File D:\git\src\IBK\IBK_DRFN\ProjSrc\SrcChartEx\ChartAddIn\ChartEnvSetupDlgAddIn\ChartEnvSetupDlgAddIn\Setting_VolumeMA_Condition.cpp
; File C:\Program Files (x86)\Microsoft Visual Studio\2019\Community\VC\Tools\MSVC\14.29.30133\atlmfc\include\afxwin2.inl
; File D:\git\src\IBK\IBK_DRFN\ProjSrc\SrcChartEx\ChartAddIn\ChartEnvSetupDlgAddIn\ChartEnvSetupDlgAddIn\Setting_VolumeMA_Condition.cpp
; File C:\Program Files (x86)\Microsoft Visual Studio\2019\Community\VC\Tools\MSVC\14.29.30133\atlmfc\include\afxwin2.inl
; File D:\git\src\IBK\IBK_DRFN\ProjSrc\SrcChartEx\ChartAddIn\ChartEnvSetupDlgAddIn\ChartEnvSetupDlgAddIn\Setting_VolumeMA_Condition.cpp
; File C:\Program Files (x86)\Microsoft Visual Studio\2019\Community\VC\Tools\MSVC\14.29.30133\atlmfc\include\afxwin2.inl
; File D:\git\src\IBK\IBK_DRFN\ProjSrc\SrcChartEx\ChartAddIn\ChartEnvSetupDlgAddIn\ChartEnvSetupDlgAddIn\Setting_VolumeMA_Condition.cpp
; File C:\Program Files (x86)\Microsoft Visual Studio\2019\Community\VC\Tools\MSVC\14.29.30133\atlmfc\include\afxwin2.inl
; File D:\git\src\IBK\IBK_DRFN\ProjSrc\SrcChartEx\ChartAddIn\ChartEnvSetupDlgAddIn\ChartEnvSetupDlgAddIn\Setting_VolumeMA_Condition.cpp
;	COMDAT ?OnSelchangeDrawstyle8@CSetting_VolumeMA_Condition@@IAEXXZ
_TEXT	SEGMENT
?OnSelchangeDrawstyle8@CSetting_VolumeMA_Condition@@IAEXXZ PROC ; CSetting_VolumeMA_Condition::OnSelchangeDrawstyle8, COMDAT
; _this$ = ecx

; 659  : {

  00000	56		 push	 esi
  00001	57		 push	 edi
; File C:\Program Files (x86)\Microsoft Visual Studio\2019\Community\VC\Tools\MSVC\14.29.30133\atlmfc\include\afxwin2.inl

; 765  : 	{ ASSERT(::IsWindow(m_hWnd)); return (int)::SendMessage(m_hWnd, CB_GETCURSEL, 0, 0); }

  00002	8b 3d 00 00 00
	00		 mov	 edi, DWORD PTR __imp__SendMessageA@16
; File D:\git\src\IBK\IBK_DRFN\ProjSrc\SrcChartEx\ChartAddIn\ChartEnvSetupDlgAddIn\ChartEnvSetupDlgAddIn\Setting_VolumeMA_Condition.cpp

; 659  : {

  00008	8b f1		 mov	 esi, ecx
; File C:\Program Files (x86)\Microsoft Visual Studio\2019\Community\VC\Tools\MSVC\14.29.30133\atlmfc\include\afxwin2.inl

; 765  : 	{ ASSERT(::IsWindow(m_hWnd)); return (int)::SendMessage(m_hWnd, CB_GETCURSEL, 0, 0); }

  0000a	6a 00		 push	 0
  0000c	6a 00		 push	 0
  0000e	68 47 01 00 00	 push	 327			; 00000147H
  00013	ff b6 50 01 00
	00		 push	 DWORD PTR [esi+336]
  00019	ff d7		 call	 edi
; File D:\git\src\IBK\IBK_DRFN\ProjSrc\SrcChartEx\ChartAddIn\ChartEnvSetupDlgAddIn\ChartEnvSetupDlgAddIn\Setting_VolumeMA_Condition.cpp

; 661  : 	if( m_cmbThicknessGraph8.GetCurSel() != 0 && m_cmbDrawStyleGraph8.GetCurSel() != 0 )

  0001b	85 c0		 test	 eax, eax
  0001d	74 35		 je	 SHORT $LN2@OnSelchang
; File C:\Program Files (x86)\Microsoft Visual Studio\2019\Community\VC\Tools\MSVC\14.29.30133\atlmfc\include\afxwin2.inl

; 765  : 	{ ASSERT(::IsWindow(m_hWnd)); return (int)::SendMessage(m_hWnd, CB_GETCURSEL, 0, 0); }

  0001f	6a 00		 push	 0
  00021	6a 00		 push	 0
  00023	68 47 01 00 00	 push	 327			; 00000147H
  00028	ff b6 a0 0b 00
	00		 push	 DWORD PTR [esi+2976]
  0002e	ff d7		 call	 edi
; File D:\git\src\IBK\IBK_DRFN\ProjSrc\SrcChartEx\ChartAddIn\ChartEnvSetupDlgAddIn\ChartEnvSetupDlgAddIn\Setting_VolumeMA_Condition.cpp

; 661  : 	if( m_cmbThicknessGraph8.GetCurSel() != 0 && m_cmbDrawStyleGraph8.GetCurSel() != 0 )

  00030	85 c0		 test	 eax, eax
  00032	74 20		 je	 SHORT $LN2@OnSelchang

; 662  : 	{
; 663  : // 2008.01.25 by LYH >>
; 664  : 		//AfxMessageBox(" \"1pt\"     .");
; 665  : 		AfxMessageBox(m_strMsgLineShape);

  00034	6a 00		 push	 0
  00036	6a 00		 push	 0
  00038	ff b6 3c 26 00
	00		 push	 DWORD PTR [esi+9788]
  0003e	e8 00 00 00 00	 call	 ?AfxMessageBox@@YGHPBDII@Z ; AfxMessageBox
; File C:\Program Files (x86)\Microsoft Visual Studio\2019\Community\VC\Tools\MSVC\14.29.30133\atlmfc\include\afxwin2.inl

; 767  : 	{ ASSERT(::IsWindow(m_hWnd)); return (int)::SendMessage(m_hWnd, CB_SETCURSEL, nSelect, 0); }

  00043	6a 00		 push	 0
  00045	6a 00		 push	 0
  00047	68 4e 01 00 00	 push	 334			; 0000014eH
  0004c	ff b6 50 01 00
	00		 push	 DWORD PTR [esi+336]
  00052	ff d7		 call	 edi
$LN2@OnSelchang:
  00054	5f		 pop	 edi
; File D:\git\src\IBK\IBK_DRFN\ProjSrc\SrcChartEx\ChartAddIn\ChartEnvSetupDlgAddIn\ChartEnvSetupDlgAddIn\Setting_VolumeMA_Condition.cpp

; 670  : }

  00055	5e		 pop	 esi
  00056	c3		 ret	 0
?OnSelchangeDrawstyle8@CSetting_VolumeMA_Condition@@IAEXXZ ENDP ; CSetting_VolumeMA_Condition::OnSelchangeDrawstyle8
_TEXT	ENDS
; Function compile flags: /Ogtp
; File D:\git\src\IBK\IBK_DRFN\ProjSrc\SrcChartEx\ChartAddIn\ChartEnvSetupDlgAddIn\ChartEnvSetupDlgAddIn\Setting_VolumeMA_Condition.cpp
; File C:\Program Files (x86)\Microsoft Visual Studio\2019\Community\VC\Tools\MSVC\14.29.30133\atlmfc\include\afxwin2.inl
; File D:\git\src\IBK\IBK_DRFN\ProjSrc\SrcChartEx\ChartAddIn\ChartEnvSetupDlgAddIn\ChartEnvSetupDlgAddIn\Setting_VolumeMA_Condition.cpp
; File C:\Program Files (x86)\Microsoft Visual Studio\2019\Community\VC\Tools\MSVC\14.29.30133\atlmfc\include\afxwin2.inl
; File D:\git\src\IBK\IBK_DRFN\ProjSrc\SrcChartEx\ChartAddIn\ChartEnvSetupDlgAddIn\ChartEnvSetupDlgAddIn\Setting_VolumeMA_Condition.cpp
; File C:\Program Files (x86)\Microsoft Visual Studio\2019\Community\VC\Tools\MSVC\14.29.30133\atlmfc\include\afxwin2.inl
; File D:\git\src\IBK\IBK_DRFN\ProjSrc\SrcChartEx\ChartAddIn\ChartEnvSetupDlgAddIn\ChartEnvSetupDlgAddIn\Setting_VolumeMA_Condition.cpp
; File C:\Program Files (x86)\Microsoft Visual Studio\2019\Community\VC\Tools\MSVC\14.29.30133\atlmfc\include\afxwin2.inl
; File D:\git\src\IBK\IBK_DRFN\ProjSrc\SrcChartEx\ChartAddIn\ChartEnvSetupDlgAddIn\ChartEnvSetupDlgAddIn\Setting_VolumeMA_Condition.cpp
;	COMDAT ?OnSelchangeDrawstyle7@CSetting_VolumeMA_Condition@@IAEXXZ
_TEXT	SEGMENT
?OnSelchangeDrawstyle7@CSetting_VolumeMA_Condition@@IAEXXZ PROC ; CSetting_VolumeMA_Condition::OnSelchangeDrawstyle7, COMDAT
; _this$ = ecx

; 644  : {

  00000	56		 push	 esi
  00001	57		 push	 edi
; File C:\Program Files (x86)\Microsoft Visual Studio\2019\Community\VC\Tools\MSVC\14.29.30133\atlmfc\include\afxwin2.inl

; 765  : 	{ ASSERT(::IsWindow(m_hWnd)); return (int)::SendMessage(m_hWnd, CB_GETCURSEL, 0, 0); }

  00002	8b 3d 00 00 00
	00		 mov	 edi, DWORD PTR __imp__SendMessageA@16
; File D:\git\src\IBK\IBK_DRFN\ProjSrc\SrcChartEx\ChartAddIn\ChartEnvSetupDlgAddIn\ChartEnvSetupDlgAddIn\Setting_VolumeMA_Condition.cpp

; 644  : {

  00008	8b f1		 mov	 esi, ecx
; File C:\Program Files (x86)\Microsoft Visual Studio\2019\Community\VC\Tools\MSVC\14.29.30133\atlmfc\include\afxwin2.inl

; 765  : 	{ ASSERT(::IsWindow(m_hWnd)); return (int)::SendMessage(m_hWnd, CB_GETCURSEL, 0, 0); }

  0000a	6a 00		 push	 0
  0000c	6a 00		 push	 0
  0000e	68 47 01 00 00	 push	 327			; 00000147H
  00013	ff b6 d8 01 00
	00		 push	 DWORD PTR [esi+472]
  00019	ff d7		 call	 edi
; File D:\git\src\IBK\IBK_DRFN\ProjSrc\SrcChartEx\ChartAddIn\ChartEnvSetupDlgAddIn\ChartEnvSetupDlgAddIn\Setting_VolumeMA_Condition.cpp

; 646  : 	if( m_cmbThicknessGraph7.GetCurSel() != 0 && m_cmbDrawStyleGraph7.GetCurSel() != 0 )

  0001b	85 c0		 test	 eax, eax
  0001d	74 35		 je	 SHORT $LN2@OnSelchang
; File C:\Program Files (x86)\Microsoft Visual Studio\2019\Community\VC\Tools\MSVC\14.29.30133\atlmfc\include\afxwin2.inl

; 765  : 	{ ASSERT(::IsWindow(m_hWnd)); return (int)::SendMessage(m_hWnd, CB_GETCURSEL, 0, 0); }

  0001f	6a 00		 push	 0
  00021	6a 00		 push	 0
  00023	68 47 01 00 00	 push	 327			; 00000147H
  00028	ff b6 28 0c 00
	00		 push	 DWORD PTR [esi+3112]
  0002e	ff d7		 call	 edi
; File D:\git\src\IBK\IBK_DRFN\ProjSrc\SrcChartEx\ChartAddIn\ChartEnvSetupDlgAddIn\ChartEnvSetupDlgAddIn\Setting_VolumeMA_Condition.cpp

; 646  : 	if( m_cmbThicknessGraph7.GetCurSel() != 0 && m_cmbDrawStyleGraph7.GetCurSel() != 0 )

  00030	85 c0		 test	 eax, eax
  00032	74 20		 je	 SHORT $LN2@OnSelchang

; 647  : 	{
; 648  : // 2008.01.25 by LYH >>
; 649  : 		//AfxMessageBox(" \"1pt\"     .");
; 650  : 		AfxMessageBox(m_strMsgLineShape);

  00034	6a 00		 push	 0
  00036	6a 00		 push	 0
  00038	ff b6 3c 26 00
	00		 push	 DWORD PTR [esi+9788]
  0003e	e8 00 00 00 00	 call	 ?AfxMessageBox@@YGHPBDII@Z ; AfxMessageBox
; File C:\Program Files (x86)\Microsoft Visual Studio\2019\Community\VC\Tools\MSVC\14.29.30133\atlmfc\include\afxwin2.inl

; 767  : 	{ ASSERT(::IsWindow(m_hWnd)); return (int)::SendMessage(m_hWnd, CB_SETCURSEL, nSelect, 0); }

  00043	6a 00		 push	 0
  00045	6a 00		 push	 0
  00047	68 4e 01 00 00	 push	 334			; 0000014eH
  0004c	ff b6 d8 01 00
	00		 push	 DWORD PTR [esi+472]
  00052	ff d7		 call	 edi
$LN2@OnSelchang:
  00054	5f		 pop	 edi
; File D:\git\src\IBK\IBK_DRFN\ProjSrc\SrcChartEx\ChartAddIn\ChartEnvSetupDlgAddIn\ChartEnvSetupDlgAddIn\Setting_VolumeMA_Condition.cpp

; 655  : }

  00055	5e		 pop	 esi
  00056	c3		 ret	 0
?OnSelchangeDrawstyle7@CSetting_VolumeMA_Condition@@IAEXXZ ENDP ; CSetting_VolumeMA_Condition::OnSelchangeDrawstyle7
_TEXT	ENDS
; Function compile flags: /Ogtp
; File D:\git\src\IBK\IBK_DRFN\ProjSrc\SrcChartEx\ChartAddIn\ChartEnvSetupDlgAddIn\ChartEnvSetupDlgAddIn\Setting_VolumeMA_Condition.cpp
; File C:\Program Files (x86)\Microsoft Visual Studio\2019\Community\VC\Tools\MSVC\14.29.30133\atlmfc\include\afxwin2.inl
; File D:\git\src\IBK\IBK_DRFN\ProjSrc\SrcChartEx\ChartAddIn\ChartEnvSetupDlgAddIn\ChartEnvSetupDlgAddIn\Setting_VolumeMA_Condition.cpp
; File C:\Program Files (x86)\Microsoft Visual Studio\2019\Community\VC\Tools\MSVC\14.29.30133\atlmfc\include\afxwin2.inl
; File D:\git\src\IBK\IBK_DRFN\ProjSrc\SrcChartEx\ChartAddIn\ChartEnvSetupDlgAddIn\ChartEnvSetupDlgAddIn\Setting_VolumeMA_Condition.cpp
; File C:\Program Files (x86)\Microsoft Visual Studio\2019\Community\VC\Tools\MSVC\14.29.30133\atlmfc\include\afxwin2.inl
; File D:\git\src\IBK\IBK_DRFN\ProjSrc\SrcChartEx\ChartAddIn\ChartEnvSetupDlgAddIn\ChartEnvSetupDlgAddIn\Setting_VolumeMA_Condition.cpp
; File C:\Program Files (x86)\Microsoft Visual Studio\2019\Community\VC\Tools\MSVC\14.29.30133\atlmfc\include\afxwin2.inl
; File D:\git\src\IBK\IBK_DRFN\ProjSrc\SrcChartEx\ChartAddIn\ChartEnvSetupDlgAddIn\ChartEnvSetupDlgAddIn\Setting_VolumeMA_Condition.cpp
;	COMDAT ?OnSelchangeDrawstyle6@CSetting_VolumeMA_Condition@@IAEXXZ
_TEXT	SEGMENT
?OnSelchangeDrawstyle6@CSetting_VolumeMA_Condition@@IAEXXZ PROC ; CSetting_VolumeMA_Condition::OnSelchangeDrawstyle6, COMDAT
; _this$ = ecx

; 629  : {

  00000	56		 push	 esi
  00001	57		 push	 edi
; File C:\Program Files (x86)\Microsoft Visual Studio\2019\Community\VC\Tools\MSVC\14.29.30133\atlmfc\include\afxwin2.inl

; 765  : 	{ ASSERT(::IsWindow(m_hWnd)); return (int)::SendMessage(m_hWnd, CB_GETCURSEL, 0, 0); }

  00002	8b 3d 00 00 00
	00		 mov	 edi, DWORD PTR __imp__SendMessageA@16
; File D:\git\src\IBK\IBK_DRFN\ProjSrc\SrcChartEx\ChartAddIn\ChartEnvSetupDlgAddIn\ChartEnvSetupDlgAddIn\Setting_VolumeMA_Condition.cpp

; 629  : {

  00008	8b f1		 mov	 esi, ecx
; File C:\Program Files (x86)\Microsoft Visual Studio\2019\Community\VC\Tools\MSVC\14.29.30133\atlmfc\include\afxwin2.inl

; 765  : 	{ ASSERT(::IsWindow(m_hWnd)); return (int)::SendMessage(m_hWnd, CB_GETCURSEL, 0, 0); }

  0000a	6a 00		 push	 0
  0000c	6a 00		 push	 0
  0000e	68 47 01 00 00	 push	 327			; 00000147H
  00013	ff b6 60 02 00
	00		 push	 DWORD PTR [esi+608]
  00019	ff d7		 call	 edi
; File D:\git\src\IBK\IBK_DRFN\ProjSrc\SrcChartEx\ChartAddIn\ChartEnvSetupDlgAddIn\ChartEnvSetupDlgAddIn\Setting_VolumeMA_Condition.cpp

; 631  : 	if( m_cmbThicknessGraph6.GetCurSel() != 0 && m_cmbDrawStyleGraph6.GetCurSel() != 0 )

  0001b	85 c0		 test	 eax, eax
  0001d	74 35		 je	 SHORT $LN2@OnSelchang
; File C:\Program Files (x86)\Microsoft Visual Studio\2019\Community\VC\Tools\MSVC\14.29.30133\atlmfc\include\afxwin2.inl

; 765  : 	{ ASSERT(::IsWindow(m_hWnd)); return (int)::SendMessage(m_hWnd, CB_GETCURSEL, 0, 0); }

  0001f	6a 00		 push	 0
  00021	6a 00		 push	 0
  00023	68 47 01 00 00	 push	 327			; 00000147H
  00028	ff b6 b0 0c 00
	00		 push	 DWORD PTR [esi+3248]
  0002e	ff d7		 call	 edi
; File D:\git\src\IBK\IBK_DRFN\ProjSrc\SrcChartEx\ChartAddIn\ChartEnvSetupDlgAddIn\ChartEnvSetupDlgAddIn\Setting_VolumeMA_Condition.cpp

; 631  : 	if( m_cmbThicknessGraph6.GetCurSel() != 0 && m_cmbDrawStyleGraph6.GetCurSel() != 0 )

  00030	85 c0		 test	 eax, eax
  00032	74 20		 je	 SHORT $LN2@OnSelchang

; 632  : 	{
; 633  : // 2008.01.25 by LYH >>
; 634  : 		//AfxMessageBox(" \"1pt\"     .");
; 635  : 		AfxMessageBox(m_strMsgLineShape);

  00034	6a 00		 push	 0
  00036	6a 00		 push	 0
  00038	ff b6 3c 26 00
	00		 push	 DWORD PTR [esi+9788]
  0003e	e8 00 00 00 00	 call	 ?AfxMessageBox@@YGHPBDII@Z ; AfxMessageBox
; File C:\Program Files (x86)\Microsoft Visual Studio\2019\Community\VC\Tools\MSVC\14.29.30133\atlmfc\include\afxwin2.inl

; 767  : 	{ ASSERT(::IsWindow(m_hWnd)); return (int)::SendMessage(m_hWnd, CB_SETCURSEL, nSelect, 0); }

  00043	6a 00		 push	 0
  00045	6a 00		 push	 0
  00047	68 4e 01 00 00	 push	 334			; 0000014eH
  0004c	ff b6 60 02 00
	00		 push	 DWORD PTR [esi+608]
  00052	ff d7		 call	 edi
$LN2@OnSelchang:
  00054	5f		 pop	 edi
; File D:\git\src\IBK\IBK_DRFN\ProjSrc\SrcChartEx\ChartAddIn\ChartEnvSetupDlgAddIn\ChartEnvSetupDlgAddIn\Setting_VolumeMA_Condition.cpp

; 640  : }

  00055	5e		 pop	 esi
  00056	c3		 ret	 0
?OnSelchangeDrawstyle6@CSetting_VolumeMA_Condition@@IAEXXZ ENDP ; CSetting_VolumeMA_Condition::OnSelchangeDrawstyle6
_TEXT	ENDS
; Function compile flags: /Ogtp
; File D:\git\src\IBK\IBK_DRFN\ProjSrc\SrcChartEx\ChartAddIn\ChartEnvSetupDlgAddIn\ChartEnvSetupDlgAddIn\Setting_VolumeMA_Condition.cpp
; File C:\Program Files (x86)\Microsoft Visual Studio\2019\Community\VC\Tools\MSVC\14.29.30133\atlmfc\include\afxwin2.inl
; File D:\git\src\IBK\IBK_DRFN\ProjSrc\SrcChartEx\ChartAddIn\ChartEnvSetupDlgAddIn\ChartEnvSetupDlgAddIn\Setting_VolumeMA_Condition.cpp
; File C:\Program Files (x86)\Microsoft Visual Studio\2019\Community\VC\Tools\MSVC\14.29.30133\atlmfc\include\afxwin2.inl
; File D:\git\src\IBK\IBK_DRFN\ProjSrc\SrcChartEx\ChartAddIn\ChartEnvSetupDlgAddIn\ChartEnvSetupDlgAddIn\Setting_VolumeMA_Condition.cpp
; File C:\Program Files (x86)\Microsoft Visual Studio\2019\Community\VC\Tools\MSVC\14.29.30133\atlmfc\include\afxwin2.inl
; File D:\git\src\IBK\IBK_DRFN\ProjSrc\SrcChartEx\ChartAddIn\ChartEnvSetupDlgAddIn\ChartEnvSetupDlgAddIn\Setting_VolumeMA_Condition.cpp
; File C:\Program Files (x86)\Microsoft Visual Studio\2019\Community\VC\Tools\MSVC\14.29.30133\atlmfc\include\afxwin2.inl
; File D:\git\src\IBK\IBK_DRFN\ProjSrc\SrcChartEx\ChartAddIn\ChartEnvSetupDlgAddIn\ChartEnvSetupDlgAddIn\Setting_VolumeMA_Condition.cpp
;	COMDAT ?OnSelchangeDrawstyle5@CSetting_VolumeMA_Condition@@IAEXXZ
_TEXT	SEGMENT
?OnSelchangeDrawstyle5@CSetting_VolumeMA_Condition@@IAEXXZ PROC ; CSetting_VolumeMA_Condition::OnSelchangeDrawstyle5, COMDAT
; _this$ = ecx

; 614  : {

  00000	56		 push	 esi
  00001	57		 push	 edi
; File C:\Program Files (x86)\Microsoft Visual Studio\2019\Community\VC\Tools\MSVC\14.29.30133\atlmfc\include\afxwin2.inl

; 765  : 	{ ASSERT(::IsWindow(m_hWnd)); return (int)::SendMessage(m_hWnd, CB_GETCURSEL, 0, 0); }

  00002	8b 3d 00 00 00
	00		 mov	 edi, DWORD PTR __imp__SendMessageA@16
; File D:\git\src\IBK\IBK_DRFN\ProjSrc\SrcChartEx\ChartAddIn\ChartEnvSetupDlgAddIn\ChartEnvSetupDlgAddIn\Setting_VolumeMA_Condition.cpp

; 614  : {

  00008	8b f1		 mov	 esi, ecx
; File C:\Program Files (x86)\Microsoft Visual Studio\2019\Community\VC\Tools\MSVC\14.29.30133\atlmfc\include\afxwin2.inl

; 765  : 	{ ASSERT(::IsWindow(m_hWnd)); return (int)::SendMessage(m_hWnd, CB_GETCURSEL, 0, 0); }

  0000a	6a 00		 push	 0
  0000c	6a 00		 push	 0
  0000e	68 47 01 00 00	 push	 327			; 00000147H
  00013	ff b6 e8 02 00
	00		 push	 DWORD PTR [esi+744]
  00019	ff d7		 call	 edi
; File D:\git\src\IBK\IBK_DRFN\ProjSrc\SrcChartEx\ChartAddIn\ChartEnvSetupDlgAddIn\ChartEnvSetupDlgAddIn\Setting_VolumeMA_Condition.cpp

; 616  : 	if( m_cmbThicknessGraph5.GetCurSel() != 0 && m_cmbDrawStyleGraph5.GetCurSel() != 0 )

  0001b	85 c0		 test	 eax, eax
  0001d	74 35		 je	 SHORT $LN2@OnSelchang
; File C:\Program Files (x86)\Microsoft Visual Studio\2019\Community\VC\Tools\MSVC\14.29.30133\atlmfc\include\afxwin2.inl

; 765  : 	{ ASSERT(::IsWindow(m_hWnd)); return (int)::SendMessage(m_hWnd, CB_GETCURSEL, 0, 0); }

  0001f	6a 00		 push	 0
  00021	6a 00		 push	 0
  00023	68 47 01 00 00	 push	 327			; 00000147H
  00028	ff b6 38 0d 00
	00		 push	 DWORD PTR [esi+3384]
  0002e	ff d7		 call	 edi
; File D:\git\src\IBK\IBK_DRFN\ProjSrc\SrcChartEx\ChartAddIn\ChartEnvSetupDlgAddIn\ChartEnvSetupDlgAddIn\Setting_VolumeMA_Condition.cpp

; 616  : 	if( m_cmbThicknessGraph5.GetCurSel() != 0 && m_cmbDrawStyleGraph5.GetCurSel() != 0 )

  00030	85 c0		 test	 eax, eax
  00032	74 20		 je	 SHORT $LN2@OnSelchang

; 617  : 	{
; 618  : // 2008.01.25 by LYH >>
; 619  : 		//AfxMessageBox(" \"1pt\"     .");
; 620  : 		AfxMessageBox(m_strMsgLineShape);

  00034	6a 00		 push	 0
  00036	6a 00		 push	 0
  00038	ff b6 3c 26 00
	00		 push	 DWORD PTR [esi+9788]
  0003e	e8 00 00 00 00	 call	 ?AfxMessageBox@@YGHPBDII@Z ; AfxMessageBox
; File C:\Program Files (x86)\Microsoft Visual Studio\2019\Community\VC\Tools\MSVC\14.29.30133\atlmfc\include\afxwin2.inl

; 767  : 	{ ASSERT(::IsWindow(m_hWnd)); return (int)::SendMessage(m_hWnd, CB_SETCURSEL, nSelect, 0); }

  00043	6a 00		 push	 0
  00045	6a 00		 push	 0
  00047	68 4e 01 00 00	 push	 334			; 0000014eH
  0004c	ff b6 e8 02 00
	00		 push	 DWORD PTR [esi+744]
  00052	ff d7		 call	 edi
$LN2@OnSelchang:
  00054	5f		 pop	 edi
; File D:\git\src\IBK\IBK_DRFN\ProjSrc\SrcChartEx\ChartAddIn\ChartEnvSetupDlgAddIn\ChartEnvSetupDlgAddIn\Setting_VolumeMA_Condition.cpp

; 625  : }

  00055	5e		 pop	 esi
  00056	c3		 ret	 0
?OnSelchangeDrawstyle5@CSetting_VolumeMA_Condition@@IAEXXZ ENDP ; CSetting_VolumeMA_Condition::OnSelchangeDrawstyle5
_TEXT	ENDS
; Function compile flags: /Ogtp
; File D:\git\src\IBK\IBK_DRFN\ProjSrc\SrcChartEx\ChartAddIn\ChartEnvSetupDlgAddIn\ChartEnvSetupDlgAddIn\Setting_VolumeMA_Condition.cpp
; File C:\Program Files (x86)\Microsoft Visual Studio\2019\Community\VC\Tools\MSVC\14.29.30133\atlmfc\include\afxwin2.inl
; File D:\git\src\IBK\IBK_DRFN\ProjSrc\SrcChartEx\ChartAddIn\ChartEnvSetupDlgAddIn\ChartEnvSetupDlgAddIn\Setting_VolumeMA_Condition.cpp
; File C:\Program Files (x86)\Microsoft Visual Studio\2019\Community\VC\Tools\MSVC\14.29.30133\atlmfc\include\afxwin2.inl
; File D:\git\src\IBK\IBK_DRFN\ProjSrc\SrcChartEx\ChartAddIn\ChartEnvSetupDlgAddIn\ChartEnvSetupDlgAddIn\Setting_VolumeMA_Condition.cpp
; File C:\Program Files (x86)\Microsoft Visual Studio\2019\Community\VC\Tools\MSVC\14.29.30133\atlmfc\include\afxwin2.inl
; File D:\git\src\IBK\IBK_DRFN\ProjSrc\SrcChartEx\ChartAddIn\ChartEnvSetupDlgAddIn\ChartEnvSetupDlgAddIn\Setting_VolumeMA_Condition.cpp
; File C:\Program Files (x86)\Microsoft Visual Studio\2019\Community\VC\Tools\MSVC\14.29.30133\atlmfc\include\afxwin2.inl
; File D:\git\src\IBK\IBK_DRFN\ProjSrc\SrcChartEx\ChartAddIn\ChartEnvSetupDlgAddIn\ChartEnvSetupDlgAddIn\Setting_VolumeMA_Condition.cpp
;	COMDAT ?OnSelchangeDrawstyle4@CSetting_VolumeMA_Condition@@IAEXXZ
_TEXT	SEGMENT
?OnSelchangeDrawstyle4@CSetting_VolumeMA_Condition@@IAEXXZ PROC ; CSetting_VolumeMA_Condition::OnSelchangeDrawstyle4, COMDAT
; _this$ = ecx

; 599  : {

  00000	56		 push	 esi
  00001	57		 push	 edi
; File C:\Program Files (x86)\Microsoft Visual Studio\2019\Community\VC\Tools\MSVC\14.29.30133\atlmfc\include\afxwin2.inl

; 765  : 	{ ASSERT(::IsWindow(m_hWnd)); return (int)::SendMessage(m_hWnd, CB_GETCURSEL, 0, 0); }

  00002	8b 3d 00 00 00
	00		 mov	 edi, DWORD PTR __imp__SendMessageA@16
; File D:\git\src\IBK\IBK_DRFN\ProjSrc\SrcChartEx\ChartAddIn\ChartEnvSetupDlgAddIn\ChartEnvSetupDlgAddIn\Setting_VolumeMA_Condition.cpp

; 599  : {

  00008	8b f1		 mov	 esi, ecx
; File C:\Program Files (x86)\Microsoft Visual Studio\2019\Community\VC\Tools\MSVC\14.29.30133\atlmfc\include\afxwin2.inl

; 765  : 	{ ASSERT(::IsWindow(m_hWnd)); return (int)::SendMessage(m_hWnd, CB_GETCURSEL, 0, 0); }

  0000a	6a 00		 push	 0
  0000c	6a 00		 push	 0
  0000e	68 47 01 00 00	 push	 327			; 00000147H
  00013	ff b6 70 03 00
	00		 push	 DWORD PTR [esi+880]
  00019	ff d7		 call	 edi
; File D:\git\src\IBK\IBK_DRFN\ProjSrc\SrcChartEx\ChartAddIn\ChartEnvSetupDlgAddIn\ChartEnvSetupDlgAddIn\Setting_VolumeMA_Condition.cpp

; 601  : 	if( m_cmbThicknessGraph4.GetCurSel() != 0 && m_cmbDrawStyleGraph4.GetCurSel() != 0 )

  0001b	85 c0		 test	 eax, eax
  0001d	74 35		 je	 SHORT $LN2@OnSelchang
; File C:\Program Files (x86)\Microsoft Visual Studio\2019\Community\VC\Tools\MSVC\14.29.30133\atlmfc\include\afxwin2.inl

; 765  : 	{ ASSERT(::IsWindow(m_hWnd)); return (int)::SendMessage(m_hWnd, CB_GETCURSEL, 0, 0); }

  0001f	6a 00		 push	 0
  00021	6a 00		 push	 0
  00023	68 47 01 00 00	 push	 327			; 00000147H
  00028	ff b6 c0 0d 00
	00		 push	 DWORD PTR [esi+3520]
  0002e	ff d7		 call	 edi
; File D:\git\src\IBK\IBK_DRFN\ProjSrc\SrcChartEx\ChartAddIn\ChartEnvSetupDlgAddIn\ChartEnvSetupDlgAddIn\Setting_VolumeMA_Condition.cpp

; 601  : 	if( m_cmbThicknessGraph4.GetCurSel() != 0 && m_cmbDrawStyleGraph4.GetCurSel() != 0 )

  00030	85 c0		 test	 eax, eax
  00032	74 20		 je	 SHORT $LN2@OnSelchang

; 602  : 	{
; 603  : // 2008.01.25 by LYH >>
; 604  : 		//AfxMessageBox(" \"1pt\"     .");
; 605  : 		AfxMessageBox(m_strMsgLineShape);

  00034	6a 00		 push	 0
  00036	6a 00		 push	 0
  00038	ff b6 3c 26 00
	00		 push	 DWORD PTR [esi+9788]
  0003e	e8 00 00 00 00	 call	 ?AfxMessageBox@@YGHPBDII@Z ; AfxMessageBox
; File C:\Program Files (x86)\Microsoft Visual Studio\2019\Community\VC\Tools\MSVC\14.29.30133\atlmfc\include\afxwin2.inl

; 767  : 	{ ASSERT(::IsWindow(m_hWnd)); return (int)::SendMessage(m_hWnd, CB_SETCURSEL, nSelect, 0); }

  00043	6a 00		 push	 0
  00045	6a 00		 push	 0
  00047	68 4e 01 00 00	 push	 334			; 0000014eH
  0004c	ff b6 70 03 00
	00		 push	 DWORD PTR [esi+880]
  00052	ff d7		 call	 edi
$LN2@OnSelchang:
  00054	5f		 pop	 edi
; File D:\git\src\IBK\IBK_DRFN\ProjSrc\SrcChartEx\ChartAddIn\ChartEnvSetupDlgAddIn\ChartEnvSetupDlgAddIn\Setting_VolumeMA_Condition.cpp

; 610  : }

  00055	5e		 pop	 esi
  00056	c3		 ret	 0
?OnSelchangeDrawstyle4@CSetting_VolumeMA_Condition@@IAEXXZ ENDP ; CSetting_VolumeMA_Condition::OnSelchangeDrawstyle4
_TEXT	ENDS
; Function compile flags: /Ogtp
; File D:\git\src\IBK\IBK_DRFN\ProjSrc\SrcChartEx\ChartAddIn\ChartEnvSetupDlgAddIn\ChartEnvSetupDlgAddIn\Setting_VolumeMA_Condition.cpp
; File C:\Program Files (x86)\Microsoft Visual Studio\2019\Community\VC\Tools\MSVC\14.29.30133\atlmfc\include\afxwin2.inl
; File D:\git\src\IBK\IBK_DRFN\ProjSrc\SrcChartEx\ChartAddIn\ChartEnvSetupDlgAddIn\ChartEnvSetupDlgAddIn\Setting_VolumeMA_Condition.cpp
; File C:\Program Files (x86)\Microsoft Visual Studio\2019\Community\VC\Tools\MSVC\14.29.30133\atlmfc\include\afxwin2.inl
; File D:\git\src\IBK\IBK_DRFN\ProjSrc\SrcChartEx\ChartAddIn\ChartEnvSetupDlgAddIn\ChartEnvSetupDlgAddIn\Setting_VolumeMA_Condition.cpp
; File C:\Program Files (x86)\Microsoft Visual Studio\2019\Community\VC\Tools\MSVC\14.29.30133\atlmfc\include\afxwin2.inl
; File D:\git\src\IBK\IBK_DRFN\ProjSrc\SrcChartEx\ChartAddIn\ChartEnvSetupDlgAddIn\ChartEnvSetupDlgAddIn\Setting_VolumeMA_Condition.cpp
; File C:\Program Files (x86)\Microsoft Visual Studio\2019\Community\VC\Tools\MSVC\14.29.30133\atlmfc\include\afxwin2.inl
; File D:\git\src\IBK\IBK_DRFN\ProjSrc\SrcChartEx\ChartAddIn\ChartEnvSetupDlgAddIn\ChartEnvSetupDlgAddIn\Setting_VolumeMA_Condition.cpp
;	COMDAT ?OnSelchangeDrawstyle3@CSetting_VolumeMA_Condition@@IAEXXZ
_TEXT	SEGMENT
?OnSelchangeDrawstyle3@CSetting_VolumeMA_Condition@@IAEXXZ PROC ; CSetting_VolumeMA_Condition::OnSelchangeDrawstyle3, COMDAT
; _this$ = ecx

; 584  : {

  00000	56		 push	 esi
  00001	57		 push	 edi
; File C:\Program Files (x86)\Microsoft Visual Studio\2019\Community\VC\Tools\MSVC\14.29.30133\atlmfc\include\afxwin2.inl

; 765  : 	{ ASSERT(::IsWindow(m_hWnd)); return (int)::SendMessage(m_hWnd, CB_GETCURSEL, 0, 0); }

  00002	8b 3d 00 00 00
	00		 mov	 edi, DWORD PTR __imp__SendMessageA@16
; File D:\git\src\IBK\IBK_DRFN\ProjSrc\SrcChartEx\ChartAddIn\ChartEnvSetupDlgAddIn\ChartEnvSetupDlgAddIn\Setting_VolumeMA_Condition.cpp

; 584  : {

  00008	8b f1		 mov	 esi, ecx
; File C:\Program Files (x86)\Microsoft Visual Studio\2019\Community\VC\Tools\MSVC\14.29.30133\atlmfc\include\afxwin2.inl

; 765  : 	{ ASSERT(::IsWindow(m_hWnd)); return (int)::SendMessage(m_hWnd, CB_GETCURSEL, 0, 0); }

  0000a	6a 00		 push	 0
  0000c	6a 00		 push	 0
  0000e	68 47 01 00 00	 push	 327			; 00000147H
  00013	ff b6 f8 03 00
	00		 push	 DWORD PTR [esi+1016]
  00019	ff d7		 call	 edi
; File D:\git\src\IBK\IBK_DRFN\ProjSrc\SrcChartEx\ChartAddIn\ChartEnvSetupDlgAddIn\ChartEnvSetupDlgAddIn\Setting_VolumeMA_Condition.cpp

; 586  : 	if( m_cmbThicknessGraph3.GetCurSel() != 0 && m_cmbDrawStyleGraph3.GetCurSel() != 0 )

  0001b	85 c0		 test	 eax, eax
  0001d	74 35		 je	 SHORT $LN2@OnSelchang
; File C:\Program Files (x86)\Microsoft Visual Studio\2019\Community\VC\Tools\MSVC\14.29.30133\atlmfc\include\afxwin2.inl

; 765  : 	{ ASSERT(::IsWindow(m_hWnd)); return (int)::SendMessage(m_hWnd, CB_GETCURSEL, 0, 0); }

  0001f	6a 00		 push	 0
  00021	6a 00		 push	 0
  00023	68 47 01 00 00	 push	 327			; 00000147H
  00028	ff b6 48 0e 00
	00		 push	 DWORD PTR [esi+3656]
  0002e	ff d7		 call	 edi
; File D:\git\src\IBK\IBK_DRFN\ProjSrc\SrcChartEx\ChartAddIn\ChartEnvSetupDlgAddIn\ChartEnvSetupDlgAddIn\Setting_VolumeMA_Condition.cpp

; 586  : 	if( m_cmbThicknessGraph3.GetCurSel() != 0 && m_cmbDrawStyleGraph3.GetCurSel() != 0 )

  00030	85 c0		 test	 eax, eax
  00032	74 20		 je	 SHORT $LN2@OnSelchang

; 587  : 	{
; 588  : // 2008.01.25 by LYH >>
; 589  : 		//AfxMessageBox(" \"1pt\"     .");
; 590  : 		AfxMessageBox(m_strMsgLineShape);

  00034	6a 00		 push	 0
  00036	6a 00		 push	 0
  00038	ff b6 3c 26 00
	00		 push	 DWORD PTR [esi+9788]
  0003e	e8 00 00 00 00	 call	 ?AfxMessageBox@@YGHPBDII@Z ; AfxMessageBox
; File C:\Program Files (x86)\Microsoft Visual Studio\2019\Community\VC\Tools\MSVC\14.29.30133\atlmfc\include\afxwin2.inl

; 767  : 	{ ASSERT(::IsWindow(m_hWnd)); return (int)::SendMessage(m_hWnd, CB_SETCURSEL, nSelect, 0); }

  00043	6a 00		 push	 0
  00045	6a 00		 push	 0
  00047	68 4e 01 00 00	 push	 334			; 0000014eH
  0004c	ff b6 f8 03 00
	00		 push	 DWORD PTR [esi+1016]
  00052	ff d7		 call	 edi
$LN2@OnSelchang:
  00054	5f		 pop	 edi
; File D:\git\src\IBK\IBK_DRFN\ProjSrc\SrcChartEx\ChartAddIn\ChartEnvSetupDlgAddIn\ChartEnvSetupDlgAddIn\Setting_VolumeMA_Condition.cpp

; 595  : }

  00055	5e		 pop	 esi
  00056	c3		 ret	 0
?OnSelchangeDrawstyle3@CSetting_VolumeMA_Condition@@IAEXXZ ENDP ; CSetting_VolumeMA_Condition::OnSelchangeDrawstyle3
_TEXT	ENDS
; Function compile flags: /Ogtp
; File D:\git\src\IBK\IBK_DRFN\ProjSrc\SrcChartEx\ChartAddIn\ChartEnvSetupDlgAddIn\ChartEnvSetupDlgAddIn\Setting_VolumeMA_Condition.cpp
; File C:\Program Files (x86)\Microsoft Visual Studio\2019\Community\VC\Tools\MSVC\14.29.30133\atlmfc\include\afxwin2.inl
; File D:\git\src\IBK\IBK_DRFN\ProjSrc\SrcChartEx\ChartAddIn\ChartEnvSetupDlgAddIn\ChartEnvSetupDlgAddIn\Setting_VolumeMA_Condition.cpp
; File C:\Program Files (x86)\Microsoft Visual Studio\2019\Community\VC\Tools\MSVC\14.29.30133\atlmfc\include\afxwin2.inl
; File D:\git\src\IBK\IBK_DRFN\ProjSrc\SrcChartEx\ChartAddIn\ChartEnvSetupDlgAddIn\ChartEnvSetupDlgAddIn\Setting_VolumeMA_Condition.cpp
; File C:\Program Files (x86)\Microsoft Visual Studio\2019\Community\VC\Tools\MSVC\14.29.30133\atlmfc\include\afxwin2.inl
; File D:\git\src\IBK\IBK_DRFN\ProjSrc\SrcChartEx\ChartAddIn\ChartEnvSetupDlgAddIn\ChartEnvSetupDlgAddIn\Setting_VolumeMA_Condition.cpp
; File C:\Program Files (x86)\Microsoft Visual Studio\2019\Community\VC\Tools\MSVC\14.29.30133\atlmfc\include\afxwin2.inl
; File D:\git\src\IBK\IBK_DRFN\ProjSrc\SrcChartEx\ChartAddIn\ChartEnvSetupDlgAddIn\ChartEnvSetupDlgAddIn\Setting_VolumeMA_Condition.cpp
;	COMDAT ?OnSelchangeDrawstyle2@CSetting_VolumeMA_Condition@@IAEXXZ
_TEXT	SEGMENT
?OnSelchangeDrawstyle2@CSetting_VolumeMA_Condition@@IAEXXZ PROC ; CSetting_VolumeMA_Condition::OnSelchangeDrawstyle2, COMDAT
; _this$ = ecx

; 569  : {

  00000	56		 push	 esi
  00001	57		 push	 edi
; File C:\Program Files (x86)\Microsoft Visual Studio\2019\Community\VC\Tools\MSVC\14.29.30133\atlmfc\include\afxwin2.inl

; 765  : 	{ ASSERT(::IsWindow(m_hWnd)); return (int)::SendMessage(m_hWnd, CB_GETCURSEL, 0, 0); }

  00002	8b 3d 00 00 00
	00		 mov	 edi, DWORD PTR __imp__SendMessageA@16
; File D:\git\src\IBK\IBK_DRFN\ProjSrc\SrcChartEx\ChartAddIn\ChartEnvSetupDlgAddIn\ChartEnvSetupDlgAddIn\Setting_VolumeMA_Condition.cpp

; 569  : {

  00008	8b f1		 mov	 esi, ecx
; File C:\Program Files (x86)\Microsoft Visual Studio\2019\Community\VC\Tools\MSVC\14.29.30133\atlmfc\include\afxwin2.inl

; 765  : 	{ ASSERT(::IsWindow(m_hWnd)); return (int)::SendMessage(m_hWnd, CB_GETCURSEL, 0, 0); }

  0000a	6a 00		 push	 0
  0000c	6a 00		 push	 0
  0000e	68 47 01 00 00	 push	 327			; 00000147H
  00013	ff b6 80 04 00
	00		 push	 DWORD PTR [esi+1152]
  00019	ff d7		 call	 edi
; File D:\git\src\IBK\IBK_DRFN\ProjSrc\SrcChartEx\ChartAddIn\ChartEnvSetupDlgAddIn\ChartEnvSetupDlgAddIn\Setting_VolumeMA_Condition.cpp

; 571  : 	if( m_cmbThicknessGraph2.GetCurSel() != 0 && m_cmbDrawStyleGraph2.GetCurSel() != 0 )

  0001b	85 c0		 test	 eax, eax
  0001d	74 35		 je	 SHORT $LN2@OnSelchang
; File C:\Program Files (x86)\Microsoft Visual Studio\2019\Community\VC\Tools\MSVC\14.29.30133\atlmfc\include\afxwin2.inl

; 765  : 	{ ASSERT(::IsWindow(m_hWnd)); return (int)::SendMessage(m_hWnd, CB_GETCURSEL, 0, 0); }

  0001f	6a 00		 push	 0
  00021	6a 00		 push	 0
  00023	68 47 01 00 00	 push	 327			; 00000147H
  00028	ff b6 d0 0e 00
	00		 push	 DWORD PTR [esi+3792]
  0002e	ff d7		 call	 edi
; File D:\git\src\IBK\IBK_DRFN\ProjSrc\SrcChartEx\ChartAddIn\ChartEnvSetupDlgAddIn\ChartEnvSetupDlgAddIn\Setting_VolumeMA_Condition.cpp

; 571  : 	if( m_cmbThicknessGraph2.GetCurSel() != 0 && m_cmbDrawStyleGraph2.GetCurSel() != 0 )

  00030	85 c0		 test	 eax, eax
  00032	74 20		 je	 SHORT $LN2@OnSelchang

; 572  : 	{
; 573  : // 2008.01.25 by LYH >>
; 574  : 		//AfxMessageBox(" \"1pt\"     .");
; 575  : 		AfxMessageBox(m_strMsgLineShape);

  00034	6a 00		 push	 0
  00036	6a 00		 push	 0
  00038	ff b6 3c 26 00
	00		 push	 DWORD PTR [esi+9788]
  0003e	e8 00 00 00 00	 call	 ?AfxMessageBox@@YGHPBDII@Z ; AfxMessageBox
; File C:\Program Files (x86)\Microsoft Visual Studio\2019\Community\VC\Tools\MSVC\14.29.30133\atlmfc\include\afxwin2.inl

; 767  : 	{ ASSERT(::IsWindow(m_hWnd)); return (int)::SendMessage(m_hWnd, CB_SETCURSEL, nSelect, 0); }

  00043	6a 00		 push	 0
  00045	6a 00		 push	 0
  00047	68 4e 01 00 00	 push	 334			; 0000014eH
  0004c	ff b6 80 04 00
	00		 push	 DWORD PTR [esi+1152]
  00052	ff d7		 call	 edi
$LN2@OnSelchang:
  00054	5f		 pop	 edi
; File D:\git\src\IBK\IBK_DRFN\ProjSrc\SrcChartEx\ChartAddIn\ChartEnvSetupDlgAddIn\ChartEnvSetupDlgAddIn\Setting_VolumeMA_Condition.cpp

; 580  : }

  00055	5e		 pop	 esi
  00056	c3		 ret	 0
?OnSelchangeDrawstyle2@CSetting_VolumeMA_Condition@@IAEXXZ ENDP ; CSetting_VolumeMA_Condition::OnSelchangeDrawstyle2
_TEXT	ENDS
; Function compile flags: /Ogtp
; File D:\git\src\IBK\IBK_DRFN\ProjSrc\SrcChartEx\ChartAddIn\ChartEnvSetupDlgAddIn\ChartEnvSetupDlgAddIn\Setting_VolumeMA_Condition.cpp
; File C:\Program Files (x86)\Microsoft Visual Studio\2019\Community\VC\Tools\MSVC\14.29.30133\atlmfc\include\afxwin2.inl
; File D:\git\src\IBK\IBK_DRFN\ProjSrc\SrcChartEx\ChartAddIn\ChartEnvSetupDlgAddIn\ChartEnvSetupDlgAddIn\Setting_VolumeMA_Condition.cpp
; File C:\Program Files (x86)\Microsoft Visual Studio\2019\Community\VC\Tools\MSVC\14.29.30133\atlmfc\include\afxwin2.inl
; File D:\git\src\IBK\IBK_DRFN\ProjSrc\SrcChartEx\ChartAddIn\ChartEnvSetupDlgAddIn\ChartEnvSetupDlgAddIn\Setting_VolumeMA_Condition.cpp
; File C:\Program Files (x86)\Microsoft Visual Studio\2019\Community\VC\Tools\MSVC\14.29.30133\atlmfc\include\afxwin2.inl
; File D:\git\src\IBK\IBK_DRFN\ProjSrc\SrcChartEx\ChartAddIn\ChartEnvSetupDlgAddIn\ChartEnvSetupDlgAddIn\Setting_VolumeMA_Condition.cpp
; File C:\Program Files (x86)\Microsoft Visual Studio\2019\Community\VC\Tools\MSVC\14.29.30133\atlmfc\include\afxwin2.inl
; File D:\git\src\IBK\IBK_DRFN\ProjSrc\SrcChartEx\ChartAddIn\ChartEnvSetupDlgAddIn\ChartEnvSetupDlgAddIn\Setting_VolumeMA_Condition.cpp
;	COMDAT ?OnSelchangeDrawstyle1@CSetting_VolumeMA_Condition@@IAEXXZ
_TEXT	SEGMENT
?OnSelchangeDrawstyle1@CSetting_VolumeMA_Condition@@IAEXXZ PROC ; CSetting_VolumeMA_Condition::OnSelchangeDrawstyle1, COMDAT
; _this$ = ecx

; 554  : {

  00000	56		 push	 esi
  00001	57		 push	 edi
; File C:\Program Files (x86)\Microsoft Visual Studio\2019\Community\VC\Tools\MSVC\14.29.30133\atlmfc\include\afxwin2.inl

; 765  : 	{ ASSERT(::IsWindow(m_hWnd)); return (int)::SendMessage(m_hWnd, CB_GETCURSEL, 0, 0); }

  00002	8b 3d 00 00 00
	00		 mov	 edi, DWORD PTR __imp__SendMessageA@16
; File D:\git\src\IBK\IBK_DRFN\ProjSrc\SrcChartEx\ChartAddIn\ChartEnvSetupDlgAddIn\ChartEnvSetupDlgAddIn\Setting_VolumeMA_Condition.cpp

; 554  : {

  00008	8b f1		 mov	 esi, ecx
; File C:\Program Files (x86)\Microsoft Visual Studio\2019\Community\VC\Tools\MSVC\14.29.30133\atlmfc\include\afxwin2.inl

; 765  : 	{ ASSERT(::IsWindow(m_hWnd)); return (int)::SendMessage(m_hWnd, CB_GETCURSEL, 0, 0); }

  0000a	6a 00		 push	 0
  0000c	6a 00		 push	 0
  0000e	68 47 01 00 00	 push	 327			; 00000147H
  00013	ff b6 08 05 00
	00		 push	 DWORD PTR [esi+1288]
  00019	ff d7		 call	 edi
; File D:\git\src\IBK\IBK_DRFN\ProjSrc\SrcChartEx\ChartAddIn\ChartEnvSetupDlgAddIn\ChartEnvSetupDlgAddIn\Setting_VolumeMA_Condition.cpp

; 556  : 	if( m_cmbThicknessGraph1.GetCurSel() != 0 && m_cmbDrawStyleGraph1.GetCurSel() != 0 )

  0001b	85 c0		 test	 eax, eax
  0001d	74 35		 je	 SHORT $LN2@OnSelchang
; File C:\Program Files (x86)\Microsoft Visual Studio\2019\Community\VC\Tools\MSVC\14.29.30133\atlmfc\include\afxwin2.inl

; 765  : 	{ ASSERT(::IsWindow(m_hWnd)); return (int)::SendMessage(m_hWnd, CB_GETCURSEL, 0, 0); }

  0001f	6a 00		 push	 0
  00021	6a 00		 push	 0
  00023	68 47 01 00 00	 push	 327			; 00000147H
  00028	ff b6 58 0f 00
	00		 push	 DWORD PTR [esi+3928]
  0002e	ff d7		 call	 edi
; File D:\git\src\IBK\IBK_DRFN\ProjSrc\SrcChartEx\ChartAddIn\ChartEnvSetupDlgAddIn\ChartEnvSetupDlgAddIn\Setting_VolumeMA_Condition.cpp

; 556  : 	if( m_cmbThicknessGraph1.GetCurSel() != 0 && m_cmbDrawStyleGraph1.GetCurSel() != 0 )

  00030	85 c0		 test	 eax, eax
  00032	74 20		 je	 SHORT $LN2@OnSelchang

; 557  : 	{
; 558  : // 2008.01.25 by LYH >>
; 559  : 		//AfxMessageBox(" \"1pt\"     .");
; 560  : 		AfxMessageBox(m_strMsgLineShape);

  00034	6a 00		 push	 0
  00036	6a 00		 push	 0
  00038	ff b6 3c 26 00
	00		 push	 DWORD PTR [esi+9788]
  0003e	e8 00 00 00 00	 call	 ?AfxMessageBox@@YGHPBDII@Z ; AfxMessageBox
; File C:\Program Files (x86)\Microsoft Visual Studio\2019\Community\VC\Tools\MSVC\14.29.30133\atlmfc\include\afxwin2.inl

; 767  : 	{ ASSERT(::IsWindow(m_hWnd)); return (int)::SendMessage(m_hWnd, CB_SETCURSEL, nSelect, 0); }

  00043	6a 00		 push	 0
  00045	6a 00		 push	 0
  00047	68 4e 01 00 00	 push	 334			; 0000014eH
  0004c	ff b6 08 05 00
	00		 push	 DWORD PTR [esi+1288]
  00052	ff d7		 call	 edi
$LN2@OnSelchang:
  00054	5f		 pop	 edi
; File D:\git\src\IBK\IBK_DRFN\ProjSrc\SrcChartEx\ChartAddIn\ChartEnvSetupDlgAddIn\ChartEnvSetupDlgAddIn\Setting_VolumeMA_Condition.cpp

; 565  : }

  00055	5e		 pop	 esi
  00056	c3		 ret	 0
?OnSelchangeDrawstyle1@CSetting_VolumeMA_Condition@@IAEXXZ ENDP ; CSetting_VolumeMA_Condition::OnSelchangeDrawstyle1
_TEXT	ENDS
; Function compile flags: /Ogtp
; File D:\git\src\IBK\IBK_DRFN\ProjSrc\SrcChartEx\ChartAddIn\ChartEnvSetupDlgAddIn\ChartEnvSetupDlgAddIn\Setting_VolumeMA_Condition.cpp
; File C:\Program Files (x86)\Microsoft Visual Studio\2019\Community\VC\Tools\MSVC\14.29.30133\atlmfc\include\afxwin2.inl
; File D:\git\src\IBK\IBK_DRFN\ProjSrc\SrcChartEx\ChartAddIn\ChartEnvSetupDlgAddIn\ChartEnvSetupDlgAddIn\Setting_VolumeMA_Condition.cpp
; File C:\Program Files (x86)\Microsoft Visual Studio\2019\Community\VC\Tools\MSVC\14.29.30133\atlmfc\include\afxwin2.inl
; File D:\git\src\IBK\IBK_DRFN\ProjSrc\SrcChartEx\ChartAddIn\ChartEnvSetupDlgAddIn\ChartEnvSetupDlgAddIn\Setting_VolumeMA_Condition.cpp
; File C:\Program Files (x86)\Microsoft Visual Studio\2019\Community\VC\Tools\MSVC\14.29.30133\atlmfc\include\afxwin2.inl
; File D:\git\src\IBK\IBK_DRFN\ProjSrc\SrcChartEx\ChartAddIn\ChartEnvSetupDlgAddIn\ChartEnvSetupDlgAddIn\Setting_VolumeMA_Condition.cpp
; File C:\Program Files (x86)\Microsoft Visual Studio\2019\Community\VC\Tools\MSVC\14.29.30133\atlmfc\include\afxwin2.inl
; File D:\git\src\IBK\IBK_DRFN\ProjSrc\SrcChartEx\ChartAddIn\ChartEnvSetupDlgAddIn\ChartEnvSetupDlgAddIn\Setting_VolumeMA_Condition.cpp
;	COMDAT ?OnSelchangeDrawstyle0@CSetting_VolumeMA_Condition@@IAEXXZ
_TEXT	SEGMENT
?OnSelchangeDrawstyle0@CSetting_VolumeMA_Condition@@IAEXXZ PROC ; CSetting_VolumeMA_Condition::OnSelchangeDrawstyle0, COMDAT
; _this$ = ecx

; 539  : {

  00000	56		 push	 esi
  00001	57		 push	 edi
; File C:\Program Files (x86)\Microsoft Visual Studio\2019\Community\VC\Tools\MSVC\14.29.30133\atlmfc\include\afxwin2.inl

; 765  : 	{ ASSERT(::IsWindow(m_hWnd)); return (int)::SendMessage(m_hWnd, CB_GETCURSEL, 0, 0); }

  00002	8b 3d 00 00 00
	00		 mov	 edi, DWORD PTR __imp__SendMessageA@16
; File D:\git\src\IBK\IBK_DRFN\ProjSrc\SrcChartEx\ChartAddIn\ChartEnvSetupDlgAddIn\ChartEnvSetupDlgAddIn\Setting_VolumeMA_Condition.cpp

; 539  : {

  00008	8b f1		 mov	 esi, ecx
; File C:\Program Files (x86)\Microsoft Visual Studio\2019\Community\VC\Tools\MSVC\14.29.30133\atlmfc\include\afxwin2.inl

; 765  : 	{ ASSERT(::IsWindow(m_hWnd)); return (int)::SendMessage(m_hWnd, CB_GETCURSEL, 0, 0); }

  0000a	6a 00		 push	 0
  0000c	6a 00		 push	 0
  0000e	68 47 01 00 00	 push	 327			; 00000147H
  00013	ff b6 90 05 00
	00		 push	 DWORD PTR [esi+1424]
  00019	ff d7		 call	 edi
; File D:\git\src\IBK\IBK_DRFN\ProjSrc\SrcChartEx\ChartAddIn\ChartEnvSetupDlgAddIn\ChartEnvSetupDlgAddIn\Setting_VolumeMA_Condition.cpp

; 541  : 	if( m_cmbThicknessGraph0.GetCurSel() != 0 && m_cmbDrawStyleGraph0.GetCurSel() != 0 )

  0001b	85 c0		 test	 eax, eax
  0001d	74 35		 je	 SHORT $LN2@OnSelchang
; File C:\Program Files (x86)\Microsoft Visual Studio\2019\Community\VC\Tools\MSVC\14.29.30133\atlmfc\include\afxwin2.inl

; 765  : 	{ ASSERT(::IsWindow(m_hWnd)); return (int)::SendMessage(m_hWnd, CB_GETCURSEL, 0, 0); }

  0001f	6a 00		 push	 0
  00021	6a 00		 push	 0
  00023	68 47 01 00 00	 push	 327			; 00000147H
  00028	ff b6 e0 0f 00
	00		 push	 DWORD PTR [esi+4064]
  0002e	ff d7		 call	 edi
; File D:\git\src\IBK\IBK_DRFN\ProjSrc\SrcChartEx\ChartAddIn\ChartEnvSetupDlgAddIn\ChartEnvSetupDlgAddIn\Setting_VolumeMA_Condition.cpp

; 541  : 	if( m_cmbThicknessGraph0.GetCurSel() != 0 && m_cmbDrawStyleGraph0.GetCurSel() != 0 )

  00030	85 c0		 test	 eax, eax
  00032	74 20		 je	 SHORT $LN2@OnSelchang

; 542  : 	{
; 543  : // 2008.01.25 by LYH >>
; 544  : 		//AfxMessageBox(" \"1pt\"     .");
; 545  : 		AfxMessageBox(m_strMsgLineShape);

  00034	6a 00		 push	 0
  00036	6a 00		 push	 0
  00038	ff b6 3c 26 00
	00		 push	 DWORD PTR [esi+9788]
  0003e	e8 00 00 00 00	 call	 ?AfxMessageBox@@YGHPBDII@Z ; AfxMessageBox
; File C:\Program Files (x86)\Microsoft Visual Studio\2019\Community\VC\Tools\MSVC\14.29.30133\atlmfc\include\afxwin2.inl

; 767  : 	{ ASSERT(::IsWindow(m_hWnd)); return (int)::SendMessage(m_hWnd, CB_SETCURSEL, nSelect, 0); }

  00043	6a 00		 push	 0
  00045	6a 00		 push	 0
  00047	68 4e 01 00 00	 push	 334			; 0000014eH
  0004c	ff b6 90 05 00
	00		 push	 DWORD PTR [esi+1424]
  00052	ff d7		 call	 edi
$LN2@OnSelchang:
  00054	5f		 pop	 edi
; File D:\git\src\IBK\IBK_DRFN\ProjSrc\SrcChartEx\ChartAddIn\ChartEnvSetupDlgAddIn\ChartEnvSetupDlgAddIn\Setting_VolumeMA_Condition.cpp

; 550  : }

  00055	5e		 pop	 esi
  00056	c3		 ret	 0
?OnSelchangeDrawstyle0@CSetting_VolumeMA_Condition@@IAEXXZ ENDP ; CSetting_VolumeMA_Condition::OnSelchangeDrawstyle0
_TEXT	ENDS
; Function compile flags: /Ogtp
; File D:\git\src\IBK\IBK_DRFN\ProjSrc\SrcChartEx\ChartAddIn\ChartEnvSetupDlgAddIn\ChartEnvSetupDlgAddIn\Setting_VolumeMA_Condition.cpp
;	COMDAT ?OnCheckShowGraph9@CSetting_VolumeMA_Condition@@IAEXXZ
_TEXT	SEGMENT
?OnCheckShowGraph9@CSetting_VolumeMA_Condition@@IAEXXZ PROC ; CSetting_VolumeMA_Condition::OnCheckShowGraph9, COMDAT
; _this$ = ecx

; 904  : 	// TODO: Add your control notification handler code here
; 905  : 	WhenAllSubGraphisHide( IDC_CHECK_SHOW_GRAPH9 );

  00000	68 95 23 00 00	 push	 9109			; 00002395H
  00005	e8 00 00 00 00	 call	 ?WhenAllSubGraphisHide@CSetting_VolumeMA_Condition@@QAEXH@Z ; CSetting_VolumeMA_Condition::WhenAllSubGraphisHide

; 906  : }

  0000a	c3		 ret	 0
?OnCheckShowGraph9@CSetting_VolumeMA_Condition@@IAEXXZ ENDP ; CSetting_VolumeMA_Condition::OnCheckShowGraph9
_TEXT	ENDS
; Function compile flags: /Ogtp
; File D:\git\src\IBK\IBK_DRFN\ProjSrc\SrcChartEx\ChartAddIn\ChartEnvSetupDlgAddIn\ChartEnvSetupDlgAddIn\Setting_VolumeMA_Condition.cpp
;	COMDAT ?OnCheckShowGraph8@CSetting_VolumeMA_Condition@@IAEXXZ
_TEXT	SEGMENT
?OnCheckShowGraph8@CSetting_VolumeMA_Condition@@IAEXXZ PROC ; CSetting_VolumeMA_Condition::OnCheckShowGraph8, COMDAT
; _this$ = ecx

; 897  : 	// TODO: Add your control notification handler code here
; 898  : 	WhenAllSubGraphisHide( IDC_CHECK_SHOW_GRAPH8 );

  00000	68 94 23 00 00	 push	 9108			; 00002394H
  00005	e8 00 00 00 00	 call	 ?WhenAllSubGraphisHide@CSetting_VolumeMA_Condition@@QAEXH@Z ; CSetting_VolumeMA_Condition::WhenAllSubGraphisHide

; 899  : }

  0000a	c3		 ret	 0
?OnCheckShowGraph8@CSetting_VolumeMA_Condition@@IAEXXZ ENDP ; CSetting_VolumeMA_Condition::OnCheckShowGraph8
_TEXT	ENDS
; Function compile flags: /Ogtp
; File D:\git\src\IBK\IBK_DRFN\ProjSrc\SrcChartEx\ChartAddIn\ChartEnvSetupDlgAddIn\ChartEnvSetupDlgAddIn\Setting_VolumeMA_Condition.cpp
;	COMDAT ?OnCheckShowGraph7@CSetting_VolumeMA_Condition@@IAEXXZ
_TEXT	SEGMENT
?OnCheckShowGraph7@CSetting_VolumeMA_Condition@@IAEXXZ PROC ; CSetting_VolumeMA_Condition::OnCheckShowGraph7, COMDAT
; _this$ = ecx

; 890  : 	// TODO: Add your control notification handler code here
; 891  : 	WhenAllSubGraphisHide( IDC_CHECK_SHOW_GRAPH7 );

  00000	68 93 23 00 00	 push	 9107			; 00002393H
  00005	e8 00 00 00 00	 call	 ?WhenAllSubGraphisHide@CSetting_VolumeMA_Condition@@QAEXH@Z ; CSetting_VolumeMA_Condition::WhenAllSubGraphisHide

; 892  : }

  0000a	c3		 ret	 0
?OnCheckShowGraph7@CSetting_VolumeMA_Condition@@IAEXXZ ENDP ; CSetting_VolumeMA_Condition::OnCheckShowGraph7
_TEXT	ENDS
; Function compile flags: /Ogtp
; File D:\git\src\IBK\IBK_DRFN\ProjSrc\SrcChartEx\ChartAddIn\ChartEnvSetupDlgAddIn\ChartEnvSetupDlgAddIn\Setting_VolumeMA_Condition.cpp
;	COMDAT ?OnCheckShowGraph6@CSetting_VolumeMA_Condition@@IAEXXZ
_TEXT	SEGMENT
?OnCheckShowGraph6@CSetting_VolumeMA_Condition@@IAEXXZ PROC ; CSetting_VolumeMA_Condition::OnCheckShowGraph6, COMDAT
; _this$ = ecx

; 883  : 	// TODO: Add your control notification handler code here
; 884  : 	WhenAllSubGraphisHide( IDC_CHECK_SHOW_GRAPH6 );

  00000	68 92 23 00 00	 push	 9106			; 00002392H
  00005	e8 00 00 00 00	 call	 ?WhenAllSubGraphisHide@CSetting_VolumeMA_Condition@@QAEXH@Z ; CSetting_VolumeMA_Condition::WhenAllSubGraphisHide

; 885  : }

  0000a	c3		 ret	 0
?OnCheckShowGraph6@CSetting_VolumeMA_Condition@@IAEXXZ ENDP ; CSetting_VolumeMA_Condition::OnCheckShowGraph6
_TEXT	ENDS
; Function compile flags: /Ogtp
; File D:\git\src\IBK\IBK_DRFN\ProjSrc\SrcChartEx\ChartAddIn\ChartEnvSetupDlgAddIn\ChartEnvSetupDlgAddIn\Setting_VolumeMA_Condition.cpp
;	COMDAT ?OnCheckShowGraph5@CSetting_VolumeMA_Condition@@IAEXXZ
_TEXT	SEGMENT
?OnCheckShowGraph5@CSetting_VolumeMA_Condition@@IAEXXZ PROC ; CSetting_VolumeMA_Condition::OnCheckShowGraph5, COMDAT
; _this$ = ecx

; 876  : 	// TODO: Add your control notification handler code here
; 877  : 	WhenAllSubGraphisHide( IDC_CHECK_SHOW_GRAPH5 );

  00000	68 91 23 00 00	 push	 9105			; 00002391H
  00005	e8 00 00 00 00	 call	 ?WhenAllSubGraphisHide@CSetting_VolumeMA_Condition@@QAEXH@Z ; CSetting_VolumeMA_Condition::WhenAllSubGraphisHide

; 878  : }

  0000a	c3		 ret	 0
?OnCheckShowGraph5@CSetting_VolumeMA_Condition@@IAEXXZ ENDP ; CSetting_VolumeMA_Condition::OnCheckShowGraph5
_TEXT	ENDS
; Function compile flags: /Ogtp
; File D:\git\src\IBK\IBK_DRFN\ProjSrc\SrcChartEx\ChartAddIn\ChartEnvSetupDlgAddIn\ChartEnvSetupDlgAddIn\Setting_VolumeMA_Condition.cpp
;	COMDAT ?OnCheckShowGraph4@CSetting_VolumeMA_Condition@@IAEXXZ
_TEXT	SEGMENT
?OnCheckShowGraph4@CSetting_VolumeMA_Condition@@IAEXXZ PROC ; CSetting_VolumeMA_Condition::OnCheckShowGraph4, COMDAT
; _this$ = ecx

; 869  : 	// TODO: Add your control notification handler code here
; 870  : 	WhenAllSubGraphisHide( IDC_CHECK_SHOW_GRAPH4 );

  00000	68 90 23 00 00	 push	 9104			; 00002390H
  00005	e8 00 00 00 00	 call	 ?WhenAllSubGraphisHide@CSetting_VolumeMA_Condition@@QAEXH@Z ; CSetting_VolumeMA_Condition::WhenAllSubGraphisHide

; 871  : }

  0000a	c3		 ret	 0
?OnCheckShowGraph4@CSetting_VolumeMA_Condition@@IAEXXZ ENDP ; CSetting_VolumeMA_Condition::OnCheckShowGraph4
_TEXT	ENDS
; Function compile flags: /Ogtp
; File D:\git\src\IBK\IBK_DRFN\ProjSrc\SrcChartEx\ChartAddIn\ChartEnvSetupDlgAddIn\ChartEnvSetupDlgAddIn\Setting_VolumeMA_Condition.cpp
;	COMDAT ?OnCheckShowGraph3@CSetting_VolumeMA_Condition@@IAEXXZ
_TEXT	SEGMENT
?OnCheckShowGraph3@CSetting_VolumeMA_Condition@@IAEXXZ PROC ; CSetting_VolumeMA_Condition::OnCheckShowGraph3, COMDAT
; _this$ = ecx

; 862  : 	// TODO: Add your control notification handler code here
; 863  : 	WhenAllSubGraphisHide( IDC_CHECK_SHOW_GRAPH3 );

  00000	68 8f 23 00 00	 push	 9103			; 0000238fH
  00005	e8 00 00 00 00	 call	 ?WhenAllSubGraphisHide@CSetting_VolumeMA_Condition@@QAEXH@Z ; CSetting_VolumeMA_Condition::WhenAllSubGraphisHide

; 864  : }

  0000a	c3		 ret	 0
?OnCheckShowGraph3@CSetting_VolumeMA_Condition@@IAEXXZ ENDP ; CSetting_VolumeMA_Condition::OnCheckShowGraph3
_TEXT	ENDS
; Function compile flags: /Ogtp
; File D:\git\src\IBK\IBK_DRFN\ProjSrc\SrcChartEx\ChartAddIn\ChartEnvSetupDlgAddIn\ChartEnvSetupDlgAddIn\Setting_VolumeMA_Condition.cpp
;	COMDAT ?OnCheckShowGraph2@CSetting_VolumeMA_Condition@@IAEXXZ
_TEXT	SEGMENT
?OnCheckShowGraph2@CSetting_VolumeMA_Condition@@IAEXXZ PROC ; CSetting_VolumeMA_Condition::OnCheckShowGraph2, COMDAT
; _this$ = ecx

; 855  : 	// TODO: Add your control notification handler code here
; 856  : 	WhenAllSubGraphisHide( IDC_CHECK_SHOW_GRAPH2 );

  00000	68 8e 23 00 00	 push	 9102			; 0000238eH
  00005	e8 00 00 00 00	 call	 ?WhenAllSubGraphisHide@CSetting_VolumeMA_Condition@@QAEXH@Z ; CSetting_VolumeMA_Condition::WhenAllSubGraphisHide

; 857  : }

  0000a	c3		 ret	 0
?OnCheckShowGraph2@CSetting_VolumeMA_Condition@@IAEXXZ ENDP ; CSetting_VolumeMA_Condition::OnCheckShowGraph2
_TEXT	ENDS
; Function compile flags: /Ogtp
; File D:\git\src\IBK\IBK_DRFN\ProjSrc\SrcChartEx\ChartAddIn\ChartEnvSetupDlgAddIn\ChartEnvSetupDlgAddIn\Setting_VolumeMA_Condition.cpp
;	COMDAT ?OnCheckShowGraph1@CSetting_VolumeMA_Condition@@IAEXXZ
_TEXT	SEGMENT
?OnCheckShowGraph1@CSetting_VolumeMA_Condition@@IAEXXZ PROC ; CSetting_VolumeMA_Condition::OnCheckShowGraph1, COMDAT
; _this$ = ecx

; 848  : 	// TODO: Add your control notification handler code here
; 849  : 	WhenAllSubGraphisHide( IDC_CHECK_SHOW_GRAPH1 );

  00000	68 8d 23 00 00	 push	 9101			; 0000238dH
  00005	e8 00 00 00 00	 call	 ?WhenAllSubGraphisHide@CSetting_VolumeMA_Condition@@QAEXH@Z ; CSetting_VolumeMA_Condition::WhenAllSubGraphisHide

; 850  : }

  0000a	c3		 ret	 0
?OnCheckShowGraph1@CSetting_VolumeMA_Condition@@IAEXXZ ENDP ; CSetting_VolumeMA_Condition::OnCheckShowGraph1
_TEXT	ENDS
; Function compile flags: /Ogtp
; File D:\git\src\IBK\IBK_DRFN\ProjSrc\SrcChartEx\ChartAddIn\ChartEnvSetupDlgAddIn\ChartEnvSetupDlgAddIn\Setting_VolumeMA_Condition.cpp
;	COMDAT ?OnCheckShowGraph0@CSetting_VolumeMA_Condition@@IAEXXZ
_TEXT	SEGMENT
?OnCheckShowGraph0@CSetting_VolumeMA_Condition@@IAEXXZ PROC ; CSetting_VolumeMA_Condition::OnCheckShowGraph0, COMDAT
; _this$ = ecx

; 841  : 	// TODO: Add your control notification handler code here
; 842  : 	WhenAllSubGraphisHide( IDC_CHECK_SHOW_GRAPH0 );

  00000	68 8c 23 00 00	 push	 9100			; 0000238cH
  00005	e8 00 00 00 00	 call	 ?WhenAllSubGraphisHide@CSetting_VolumeMA_Condition@@QAEXH@Z ; CSetting_VolumeMA_Condition::WhenAllSubGraphisHide

; 843  : }

  0000a	c3		 ret	 0
?OnCheckShowGraph0@CSetting_VolumeMA_Condition@@IAEXXZ ENDP ; CSetting_VolumeMA_Condition::OnCheckShowGraph0
_TEXT	ENDS
; Function compile flags: /Ogtp
; File D:\git\src\IBK\IBK_DRFN\ProjSrc\SrcChartEx\ChartAddIn\ChartEnvSetupDlgAddIn\ChartEnvSetupDlgAddIn\Setting_VolumeMA_Condition.cpp
; File C:\Program Files (x86)\Microsoft Visual Studio\2019\Community\VC\Tools\MSVC\14.29.30133\atlmfc\include\afxwin2.inl
; File C:\Program Files (x86)\Microsoft Visual Studio\2019\Community\VC\Tools\MSVC\14.29.30133\atlmfc\include\afxdlgs.h
; File D:\git\src\IBK\IBK_DRFN\ProjSrc\SrcChartEx\ChartAddIn\ChartEnvSetupDlgAddIn\ChartEnvSetupDlgAddIn\Setting_VolumeMA_Condition.cpp
;	COMDAT ?OnColorButton9@CSetting_VolumeMA_Condition@@IAEXXZ
_TEXT	SEGMENT
_color$ = -224						; size = 208
$T2 = -16						; size = 4
__$EHRec$ = -12						; size = 12
?OnColorButton9@CSetting_VolumeMA_Condition@@IAEXXZ PROC ; CSetting_VolumeMA_Condition::OnColorButton9, COMDAT
; _this$ = ecx

; 524  : {

  00000	55		 push	 ebp
  00001	8b ec		 mov	 ebp, esp
  00003	6a ff		 push	 -1
  00005	68 00 00 00 00	 push	 __ehhandler$?OnColorButton9@CSetting_VolumeMA_Condition@@IAEXXZ
  0000a	64 a1 00 00 00
	00		 mov	 eax, DWORD PTR fs:0
  00010	50		 push	 eax
  00011	81 ec d4 00 00
	00		 sub	 esp, 212		; 000000d4H
  00017	56		 push	 esi
  00018	57		 push	 edi
  00019	a1 00 00 00 00	 mov	 eax, DWORD PTR ___security_cookie
  0001e	33 c5		 xor	 eax, ebp
  00020	50		 push	 eax
  00021	8d 45 f4	 lea	 eax, DWORD PTR __$EHRec$[ebp]
  00024	64 a3 00 00 00
	00		 mov	 DWORD PTR fs:0, eax
  0002a	8b f1		 mov	 esi, ecx

; 525  : 	// TODO: Add your control notification handler code here
; 526  : 	COLORREF crColor = m_btnColor9.GetColor();

  0002c	8d 8e d8 16 00
	00		 lea	 ecx, DWORD PTR [esi+5848]
  00032	e8 00 00 00 00	 call	 ?GetColor@CColorButton@@QAEKXZ ; CColorButton::GetColor

; 527  : 	CColorDialog color(crColor, CC_FULLOPEN);

  00037	6a 00		 push	 0
  00039	6a 02		 push	 2
  0003b	50		 push	 eax
  0003c	8d 8d 20 ff ff
	ff		 lea	 ecx, DWORD PTR _color$[ebp]
  00042	e8 00 00 00 00	 call	 ??0CColorDialog@@QAE@KKPAVCWnd@@@Z ; CColorDialog::CColorDialog

; 528  : 	if(color.DoModal() == IDOK) 

  00047	8d 8d 20 ff ff
	ff		 lea	 ecx, DWORD PTR _color$[ebp]
  0004d	c7 45 fc 00 00
	00 00		 mov	 DWORD PTR __$EHRec$[ebp+8], 0
  00054	e8 00 00 00 00	 call	 ?DoModal@CColorDialog@@UAEHXZ ; CColorDialog::DoModal
  00059	83 f8 01	 cmp	 eax, 1
  0005c	75 55		 jne	 SHORT $LN2@OnColorBut

; 529  : 	{
; 530  : 		m_pIGraphInfo->SetSubGraphColor( 9, 1, color.GetColor());

  0005e	8b 8e 2c 26 00
	00		 mov	 ecx, DWORD PTR [esi+9772]
  00064	ff 75 d4	 push	 DWORD PTR _color$[ebp+180]
  00067	6a 01		 push	 1
  00069	8b 01		 mov	 eax, DWORD PTR [ecx]
  0006b	6a 09		 push	 9
  0006d	ff 50 6c	 call	 DWORD PTR [eax+108]

; 531  : 		m_pIGraphInfo->SetSubGraphColor( 9, 2, color.GetColor());

  00070	8b 8e 2c 26 00
	00		 mov	 ecx, DWORD PTR [esi+9772]
  00076	ff 75 d4	 push	 DWORD PTR _color$[ebp+180]
  00079	6a 02		 push	 2
  0007b	8b 01		 mov	 eax, DWORD PTR [ecx]
  0007d	6a 09		 push	 9
  0007f	ff 50 6c	 call	 DWORD PTR [eax+108]

; 532  : 		m_btnColor9.SetColor( m_pIGraphInfo->GetSubGraphColor( 9, 1));

  00082	8b 8e 2c 26 00
	00		 mov	 ecx, DWORD PTR [esi+9772]
  00088	6a 01		 push	 1
  0008a	6a 09		 push	 9
  0008c	8b 01		 mov	 eax, DWORD PTR [ecx]
  0008e	ff 50 64	 call	 DWORD PTR [eax+100]
  00091	89 45 f0	 mov	 DWORD PTR $T2[ebp], eax
  00094	8d 8e d8 16 00
	00		 lea	 ecx, DWORD PTR [esi+5848]
  0009a	8d 45 f0	 lea	 eax, DWORD PTR $T2[ebp]
  0009d	50		 push	 eax
  0009e	e8 00 00 00 00	 call	 ?SetColor@CColorButton@@QAEXABK@Z ; CColorButton::SetColor
; File C:\Program Files (x86)\Microsoft Visual Studio\2019\Community\VC\Tools\MSVC\14.29.30133\atlmfc\include\afxwin2.inl

; 114  : 	{ ASSERT(::IsWindow(m_hWnd)); ::InvalidateRect(m_hWnd, NULL, bErase); }

  000a3	6a 01		 push	 1
  000a5	6a 00		 push	 0
  000a7	ff b6 f8 16 00
	00		 push	 DWORD PTR [esi+5880]
  000ad	ff 15 00 00 00
	00		 call	 DWORD PTR __imp__InvalidateRect@12
$LN2@OnColorBut:
; File C:\Program Files (x86)\Microsoft Visual Studio\2019\Community\VC\Tools\MSVC\14.29.30133\atlmfc\include\afxdlgs.h

; 110  :     virtual ~CCommonDialog() {};

  000b3	8d 8d 20 ff ff
	ff		 lea	 ecx, DWORD PTR _color$[ebp]
  000b9	c7 85 20 ff ff
	ff 00 00 00 00	 mov	 DWORD PTR _color$[ebp], OFFSET ??_7CCommonDialog@@6B@
  000c3	e8 00 00 00 00	 call	 ??1CDialog@@UAE@XZ	; CDialog::~CDialog
; File D:\git\src\IBK\IBK_DRFN\ProjSrc\SrcChartEx\ChartAddIn\ChartEnvSetupDlgAddIn\ChartEnvSetupDlgAddIn\Setting_VolumeMA_Condition.cpp

; 535  : }

  000c8	8b 4d f4	 mov	 ecx, DWORD PTR __$EHRec$[ebp]
  000cb	64 89 0d 00 00
	00 00		 mov	 DWORD PTR fs:0, ecx
  000d2	59		 pop	 ecx
  000d3	5f		 pop	 edi
  000d4	5e		 pop	 esi
  000d5	8b e5		 mov	 esp, ebp
  000d7	5d		 pop	 ebp
  000d8	c3		 ret	 0
_TEXT	ENDS
;	COMDAT text$x
text$x	SEGMENT
__unwindfunclet$?OnColorButton9@CSetting_VolumeMA_Condition@@IAEXXZ$0:
  00000	8d 8d 20 ff ff
	ff		 lea	 ecx, DWORD PTR _color$[ebp]
  00006	e9 00 00 00 00	 jmp	 ??1CColorDialog@@UAE@XZ
  0000b	cc		 int	 3
  0000c	cc		 int	 3
  0000d	cc		 int	 3
  0000e	cc		 int	 3
  0000f	cc		 int	 3
__ehhandler$?OnColorButton9@CSetting_VolumeMA_Condition@@IAEXXZ:
  00010	90		 npad	 1
  00011	90		 npad	 1
  00012	8b 54 24 08	 mov	 edx, DWORD PTR [esp+8]
  00016	8d 42 0c	 lea	 eax, DWORD PTR [edx+12]
  00019	8b 8a 20 ff ff
	ff		 mov	 ecx, DWORD PTR [edx-224]
  0001f	33 c8		 xor	 ecx, eax
  00021	e8 00 00 00 00	 call	 @__security_check_cookie@4
  00026	b8 00 00 00 00	 mov	 eax, OFFSET __ehfuncinfo$?OnColorButton9@CSetting_VolumeMA_Condition@@IAEXXZ
  0002b	e9 00 00 00 00	 jmp	 ___CxxFrameHandler3
text$x	ENDS
?OnColorButton9@CSetting_VolumeMA_Condition@@IAEXXZ ENDP ; CSetting_VolumeMA_Condition::OnColorButton9
; Function compile flags: /Ogtp
; File D:\git\src\IBK\IBK_DRFN\ProjSrc\SrcChartEx\ChartAddIn\ChartEnvSetupDlgAddIn\ChartEnvSetupDlgAddIn\Setting_VolumeMA_Condition.cpp
; File C:\Program Files (x86)\Microsoft Visual Studio\2019\Community\VC\Tools\MSVC\14.29.30133\atlmfc\include\afxwin2.inl
; File C:\Program Files (x86)\Microsoft Visual Studio\2019\Community\VC\Tools\MSVC\14.29.30133\atlmfc\include\afxdlgs.h
; File D:\git\src\IBK\IBK_DRFN\ProjSrc\SrcChartEx\ChartAddIn\ChartEnvSetupDlgAddIn\ChartEnvSetupDlgAddIn\Setting_VolumeMA_Condition.cpp
;	COMDAT ?OnColorButton8@CSetting_VolumeMA_Condition@@IAEXXZ
_TEXT	SEGMENT
_color$ = -224						; size = 208
$T2 = -16						; size = 4
__$EHRec$ = -12						; size = 12
?OnColorButton8@CSetting_VolumeMA_Condition@@IAEXXZ PROC ; CSetting_VolumeMA_Condition::OnColorButton8, COMDAT
; _this$ = ecx

; 510  : {

  00000	55		 push	 ebp
  00001	8b ec		 mov	 ebp, esp
  00003	6a ff		 push	 -1
  00005	68 00 00 00 00	 push	 __ehhandler$?OnColorButton8@CSetting_VolumeMA_Condition@@IAEXXZ
  0000a	64 a1 00 00 00
	00		 mov	 eax, DWORD PTR fs:0
  00010	50		 push	 eax
  00011	81 ec d4 00 00
	00		 sub	 esp, 212		; 000000d4H
  00017	56		 push	 esi
  00018	57		 push	 edi
  00019	a1 00 00 00 00	 mov	 eax, DWORD PTR ___security_cookie
  0001e	33 c5		 xor	 eax, ebp
  00020	50		 push	 eax
  00021	8d 45 f4	 lea	 eax, DWORD PTR __$EHRec$[ebp]
  00024	64 a3 00 00 00
	00		 mov	 DWORD PTR fs:0, eax
  0002a	8b f1		 mov	 esi, ecx

; 511  : 	// TODO: Add your control notification handler code here
; 512  : 	COLORREF crColor = m_btnColor8.GetColor();

  0002c	8d 8e 60 17 00
	00		 lea	 ecx, DWORD PTR [esi+5984]
  00032	e8 00 00 00 00	 call	 ?GetColor@CColorButton@@QAEKXZ ; CColorButton::GetColor

; 513  : 	CColorDialog color(crColor, CC_FULLOPEN);

  00037	6a 00		 push	 0
  00039	6a 02		 push	 2
  0003b	50		 push	 eax
  0003c	8d 8d 20 ff ff
	ff		 lea	 ecx, DWORD PTR _color$[ebp]
  00042	e8 00 00 00 00	 call	 ??0CColorDialog@@QAE@KKPAVCWnd@@@Z ; CColorDialog::CColorDialog

; 514  : 	if(color.DoModal() == IDOK) 

  00047	8d 8d 20 ff ff
	ff		 lea	 ecx, DWORD PTR _color$[ebp]
  0004d	c7 45 fc 00 00
	00 00		 mov	 DWORD PTR __$EHRec$[ebp+8], 0
  00054	e8 00 00 00 00	 call	 ?DoModal@CColorDialog@@UAEHXZ ; CColorDialog::DoModal
  00059	83 f8 01	 cmp	 eax, 1
  0005c	75 55		 jne	 SHORT $LN2@OnColorBut

; 515  : 	{
; 516  : 		m_pIGraphInfo->SetSubGraphColor( 8, 1, color.GetColor());

  0005e	8b 8e 2c 26 00
	00		 mov	 ecx, DWORD PTR [esi+9772]
  00064	ff 75 d4	 push	 DWORD PTR _color$[ebp+180]
  00067	6a 01		 push	 1
  00069	8b 01		 mov	 eax, DWORD PTR [ecx]
  0006b	6a 08		 push	 8
  0006d	ff 50 6c	 call	 DWORD PTR [eax+108]

; 517  : 		m_pIGraphInfo->SetSubGraphColor( 8, 2, color.GetColor());

  00070	8b 8e 2c 26 00
	00		 mov	 ecx, DWORD PTR [esi+9772]
  00076	ff 75 d4	 push	 DWORD PTR _color$[ebp+180]
  00079	6a 02		 push	 2
  0007b	8b 01		 mov	 eax, DWORD PTR [ecx]
  0007d	6a 08		 push	 8
  0007f	ff 50 6c	 call	 DWORD PTR [eax+108]

; 518  : 		m_btnColor8.SetColor( m_pIGraphInfo->GetSubGraphColor( 8, 1));

  00082	8b 8e 2c 26 00
	00		 mov	 ecx, DWORD PTR [esi+9772]
  00088	6a 01		 push	 1
  0008a	6a 08		 push	 8
  0008c	8b 01		 mov	 eax, DWORD PTR [ecx]
  0008e	ff 50 64	 call	 DWORD PTR [eax+100]
  00091	89 45 f0	 mov	 DWORD PTR $T2[ebp], eax
  00094	8d 8e 60 17 00
	00		 lea	 ecx, DWORD PTR [esi+5984]
  0009a	8d 45 f0	 lea	 eax, DWORD PTR $T2[ebp]
  0009d	50		 push	 eax
  0009e	e8 00 00 00 00	 call	 ?SetColor@CColorButton@@QAEXABK@Z ; CColorButton::SetColor
; File C:\Program Files (x86)\Microsoft Visual Studio\2019\Community\VC\Tools\MSVC\14.29.30133\atlmfc\include\afxwin2.inl

; 114  : 	{ ASSERT(::IsWindow(m_hWnd)); ::InvalidateRect(m_hWnd, NULL, bErase); }

  000a3	6a 01		 push	 1
  000a5	6a 00		 push	 0
  000a7	ff b6 80 17 00
	00		 push	 DWORD PTR [esi+6016]
  000ad	ff 15 00 00 00
	00		 call	 DWORD PTR __imp__InvalidateRect@12
$LN2@OnColorBut:
; File C:\Program Files (x86)\Microsoft Visual Studio\2019\Community\VC\Tools\MSVC\14.29.30133\atlmfc\include\afxdlgs.h

; 110  :     virtual ~CCommonDialog() {};

  000b3	8d 8d 20 ff ff
	ff		 lea	 ecx, DWORD PTR _color$[ebp]
  000b9	c7 85 20 ff ff
	ff 00 00 00 00	 mov	 DWORD PTR _color$[ebp], OFFSET ??_7CCommonDialog@@6B@
  000c3	e8 00 00 00 00	 call	 ??1CDialog@@UAE@XZ	; CDialog::~CDialog
; File D:\git\src\IBK\IBK_DRFN\ProjSrc\SrcChartEx\ChartAddIn\ChartEnvSetupDlgAddIn\ChartEnvSetupDlgAddIn\Setting_VolumeMA_Condition.cpp

; 521  : }

  000c8	8b 4d f4	 mov	 ecx, DWORD PTR __$EHRec$[ebp]
  000cb	64 89 0d 00 00
	00 00		 mov	 DWORD PTR fs:0, ecx
  000d2	59		 pop	 ecx
  000d3	5f		 pop	 edi
  000d4	5e		 pop	 esi
  000d5	8b e5		 mov	 esp, ebp
  000d7	5d		 pop	 ebp
  000d8	c3		 ret	 0
_TEXT	ENDS
;	COMDAT text$x
text$x	SEGMENT
__unwindfunclet$?OnColorButton8@CSetting_VolumeMA_Condition@@IAEXXZ$0:
  00000	8d 8d 20 ff ff
	ff		 lea	 ecx, DWORD PTR _color$[ebp]
  00006	e9 00 00 00 00	 jmp	 ??1CColorDialog@@UAE@XZ
  0000b	cc		 int	 3
  0000c	cc		 int	 3
  0000d	cc		 int	 3
  0000e	cc		 int	 3
  0000f	cc		 int	 3
__ehhandler$?OnColorButton8@CSetting_VolumeMA_Condition@@IAEXXZ:
  00010	90		 npad	 1
  00011	90		 npad	 1
  00012	8b 54 24 08	 mov	 edx, DWORD PTR [esp+8]
  00016	8d 42 0c	 lea	 eax, DWORD PTR [edx+12]
  00019	8b 8a 20 ff ff
	ff		 mov	 ecx, DWORD PTR [edx-224]
  0001f	33 c8		 xor	 ecx, eax
  00021	e8 00 00 00 00	 call	 @__security_check_cookie@4
  00026	b8 00 00 00 00	 mov	 eax, OFFSET __ehfuncinfo$?OnColorButton8@CSetting_VolumeMA_Condition@@IAEXXZ
  0002b	e9 00 00 00 00	 jmp	 ___CxxFrameHandler3
text$x	ENDS
?OnColorButton8@CSetting_VolumeMA_Condition@@IAEXXZ ENDP ; CSetting_VolumeMA_Condition::OnColorButton8
; Function compile flags: /Ogtp
; File D:\git\src\IBK\IBK_DRFN\ProjSrc\SrcChartEx\ChartAddIn\ChartEnvSetupDlgAddIn\ChartEnvSetupDlgAddIn\Setting_VolumeMA_Condition.cpp
; File C:\Program Files (x86)\Microsoft Visual Studio\2019\Community\VC\Tools\MSVC\14.29.30133\atlmfc\include\afxwin2.inl
; File C:\Program Files (x86)\Microsoft Visual Studio\2019\Community\VC\Tools\MSVC\14.29.30133\atlmfc\include\afxdlgs.h
; File D:\git\src\IBK\IBK_DRFN\ProjSrc\SrcChartEx\ChartAddIn\ChartEnvSetupDlgAddIn\ChartEnvSetupDlgAddIn\Setting_VolumeMA_Condition.cpp
;	COMDAT ?OnColorButton7@CSetting_VolumeMA_Condition@@IAEXXZ
_TEXT	SEGMENT
_color$ = -224						; size = 208
$T2 = -16						; size = 4
__$EHRec$ = -12						; size = 12
?OnColorButton7@CSetting_VolumeMA_Condition@@IAEXXZ PROC ; CSetting_VolumeMA_Condition::OnColorButton7, COMDAT
; _this$ = ecx

; 496  : {

  00000	55		 push	 ebp
  00001	8b ec		 mov	 ebp, esp
  00003	6a ff		 push	 -1
  00005	68 00 00 00 00	 push	 __ehhandler$?OnColorButton7@CSetting_VolumeMA_Condition@@IAEXXZ
  0000a	64 a1 00 00 00
	00		 mov	 eax, DWORD PTR fs:0
  00010	50		 push	 eax
  00011	81 ec d4 00 00
	00		 sub	 esp, 212		; 000000d4H
  00017	56		 push	 esi
  00018	57		 push	 edi
  00019	a1 00 00 00 00	 mov	 eax, DWORD PTR ___security_cookie
  0001e	33 c5		 xor	 eax, ebp
  00020	50		 push	 eax
  00021	8d 45 f4	 lea	 eax, DWORD PTR __$EHRec$[ebp]
  00024	64 a3 00 00 00
	00		 mov	 DWORD PTR fs:0, eax
  0002a	8b f1		 mov	 esi, ecx

; 497  : 	// TODO: Add your control notification handler code here
; 498  : 		COLORREF crColor = m_btnColor7.GetColor();

  0002c	8d 8e e8 17 00
	00		 lea	 ecx, DWORD PTR [esi+6120]
  00032	e8 00 00 00 00	 call	 ?GetColor@CColorButton@@QAEKXZ ; CColorButton::GetColor

; 499  : 	CColorDialog color(crColor, CC_FULLOPEN);

  00037	6a 00		 push	 0
  00039	6a 02		 push	 2
  0003b	50		 push	 eax
  0003c	8d 8d 20 ff ff
	ff		 lea	 ecx, DWORD PTR _color$[ebp]
  00042	e8 00 00 00 00	 call	 ??0CColorDialog@@QAE@KKPAVCWnd@@@Z ; CColorDialog::CColorDialog

; 500  : 	if(color.DoModal() == IDOK) 

  00047	8d 8d 20 ff ff
	ff		 lea	 ecx, DWORD PTR _color$[ebp]
  0004d	c7 45 fc 00 00
	00 00		 mov	 DWORD PTR __$EHRec$[ebp+8], 0
  00054	e8 00 00 00 00	 call	 ?DoModal@CColorDialog@@UAEHXZ ; CColorDialog::DoModal
  00059	83 f8 01	 cmp	 eax, 1
  0005c	75 55		 jne	 SHORT $LN2@OnColorBut

; 501  : 	{
; 502  : 		m_pIGraphInfo->SetSubGraphColor( 7, 1, color.GetColor());

  0005e	8b 8e 2c 26 00
	00		 mov	 ecx, DWORD PTR [esi+9772]
  00064	ff 75 d4	 push	 DWORD PTR _color$[ebp+180]
  00067	6a 01		 push	 1
  00069	8b 01		 mov	 eax, DWORD PTR [ecx]
  0006b	6a 07		 push	 7
  0006d	ff 50 6c	 call	 DWORD PTR [eax+108]

; 503  : 		m_pIGraphInfo->SetSubGraphColor( 7, 2, color.GetColor());

  00070	8b 8e 2c 26 00
	00		 mov	 ecx, DWORD PTR [esi+9772]
  00076	ff 75 d4	 push	 DWORD PTR _color$[ebp+180]
  00079	6a 02		 push	 2
  0007b	8b 01		 mov	 eax, DWORD PTR [ecx]
  0007d	6a 07		 push	 7
  0007f	ff 50 6c	 call	 DWORD PTR [eax+108]

; 504  : 		m_btnColor7.SetColor( m_pIGraphInfo->GetSubGraphColor( 7, 1));

  00082	8b 8e 2c 26 00
	00		 mov	 ecx, DWORD PTR [esi+9772]
  00088	6a 01		 push	 1
  0008a	6a 07		 push	 7
  0008c	8b 01		 mov	 eax, DWORD PTR [ecx]
  0008e	ff 50 64	 call	 DWORD PTR [eax+100]
  00091	89 45 f0	 mov	 DWORD PTR $T2[ebp], eax
  00094	8d 8e e8 17 00
	00		 lea	 ecx, DWORD PTR [esi+6120]
  0009a	8d 45 f0	 lea	 eax, DWORD PTR $T2[ebp]
  0009d	50		 push	 eax
  0009e	e8 00 00 00 00	 call	 ?SetColor@CColorButton@@QAEXABK@Z ; CColorButton::SetColor
; File C:\Program Files (x86)\Microsoft Visual Studio\2019\Community\VC\Tools\MSVC\14.29.30133\atlmfc\include\afxwin2.inl

; 114  : 	{ ASSERT(::IsWindow(m_hWnd)); ::InvalidateRect(m_hWnd, NULL, bErase); }

  000a3	6a 01		 push	 1
  000a5	6a 00		 push	 0
  000a7	ff b6 08 18 00
	00		 push	 DWORD PTR [esi+6152]
  000ad	ff 15 00 00 00
	00		 call	 DWORD PTR __imp__InvalidateRect@12
$LN2@OnColorBut:
; File C:\Program Files (x86)\Microsoft Visual Studio\2019\Community\VC\Tools\MSVC\14.29.30133\atlmfc\include\afxdlgs.h

; 110  :     virtual ~CCommonDialog() {};

  000b3	8d 8d 20 ff ff
	ff		 lea	 ecx, DWORD PTR _color$[ebp]
  000b9	c7 85 20 ff ff
	ff 00 00 00 00	 mov	 DWORD PTR _color$[ebp], OFFSET ??_7CCommonDialog@@6B@
  000c3	e8 00 00 00 00	 call	 ??1CDialog@@UAE@XZ	; CDialog::~CDialog
; File D:\git\src\IBK\IBK_DRFN\ProjSrc\SrcChartEx\ChartAddIn\ChartEnvSetupDlgAddIn\ChartEnvSetupDlgAddIn\Setting_VolumeMA_Condition.cpp

; 507  : }

  000c8	8b 4d f4	 mov	 ecx, DWORD PTR __$EHRec$[ebp]
  000cb	64 89 0d 00 00
	00 00		 mov	 DWORD PTR fs:0, ecx
  000d2	59		 pop	 ecx
  000d3	5f		 pop	 edi
  000d4	5e		 pop	 esi
  000d5	8b e5		 mov	 esp, ebp
  000d7	5d		 pop	 ebp
  000d8	c3		 ret	 0
_TEXT	ENDS
;	COMDAT text$x
text$x	SEGMENT
__unwindfunclet$?OnColorButton7@CSetting_VolumeMA_Condition@@IAEXXZ$0:
  00000	8d 8d 20 ff ff
	ff		 lea	 ecx, DWORD PTR _color$[ebp]
  00006	e9 00 00 00 00	 jmp	 ??1CColorDialog@@UAE@XZ
  0000b	cc		 int	 3
  0000c	cc		 int	 3
  0000d	cc		 int	 3
  0000e	cc		 int	 3
  0000f	cc		 int	 3
__ehhandler$?OnColorButton7@CSetting_VolumeMA_Condition@@IAEXXZ:
  00010	90		 npad	 1
  00011	90		 npad	 1
  00012	8b 54 24 08	 mov	 edx, DWORD PTR [esp+8]
  00016	8d 42 0c	 lea	 eax, DWORD PTR [edx+12]
  00019	8b 8a 20 ff ff
	ff		 mov	 ecx, DWORD PTR [edx-224]
  0001f	33 c8		 xor	 ecx, eax
  00021	e8 00 00 00 00	 call	 @__security_check_cookie@4
  00026	b8 00 00 00 00	 mov	 eax, OFFSET __ehfuncinfo$?OnColorButton7@CSetting_VolumeMA_Condition@@IAEXXZ
  0002b	e9 00 00 00 00	 jmp	 ___CxxFrameHandler3
text$x	ENDS
?OnColorButton7@CSetting_VolumeMA_Condition@@IAEXXZ ENDP ; CSetting_VolumeMA_Condition::OnColorButton7
; Function compile flags: /Ogtp
; File D:\git\src\IBK\IBK_DRFN\ProjSrc\SrcChartEx\ChartAddIn\ChartEnvSetupDlgAddIn\ChartEnvSetupDlgAddIn\Setting_VolumeMA_Condition.cpp
; File C:\Program Files (x86)\Microsoft Visual Studio\2019\Community\VC\Tools\MSVC\14.29.30133\atlmfc\include\afxwin2.inl
; File C:\Program Files (x86)\Microsoft Visual Studio\2019\Community\VC\Tools\MSVC\14.29.30133\atlmfc\include\afxdlgs.h
; File D:\git\src\IBK\IBK_DRFN\ProjSrc\SrcChartEx\ChartAddIn\ChartEnvSetupDlgAddIn\ChartEnvSetupDlgAddIn\Setting_VolumeMA_Condition.cpp
;	COMDAT ?OnColorButton6@CSetting_VolumeMA_Condition@@IAEXXZ
_TEXT	SEGMENT
_color$ = -224						; size = 208
$T2 = -16						; size = 4
__$EHRec$ = -12						; size = 12
?OnColorButton6@CSetting_VolumeMA_Condition@@IAEXXZ PROC ; CSetting_VolumeMA_Condition::OnColorButton6, COMDAT
; _this$ = ecx

; 482  : {

  00000	55		 push	 ebp
  00001	8b ec		 mov	 ebp, esp
  00003	6a ff		 push	 -1
  00005	68 00 00 00 00	 push	 __ehhandler$?OnColorButton6@CSetting_VolumeMA_Condition@@IAEXXZ
  0000a	64 a1 00 00 00
	00		 mov	 eax, DWORD PTR fs:0
  00010	50		 push	 eax
  00011	81 ec d4 00 00
	00		 sub	 esp, 212		; 000000d4H
  00017	56		 push	 esi
  00018	57		 push	 edi
  00019	a1 00 00 00 00	 mov	 eax, DWORD PTR ___security_cookie
  0001e	33 c5		 xor	 eax, ebp
  00020	50		 push	 eax
  00021	8d 45 f4	 lea	 eax, DWORD PTR __$EHRec$[ebp]
  00024	64 a3 00 00 00
	00		 mov	 DWORD PTR fs:0, eax
  0002a	8b f1		 mov	 esi, ecx

; 483  : 	// TODO: Add your control notification handler code here
; 484  : 	COLORREF crColor = m_btnColor6.GetColor();

  0002c	8d 8e 70 18 00
	00		 lea	 ecx, DWORD PTR [esi+6256]
  00032	e8 00 00 00 00	 call	 ?GetColor@CColorButton@@QAEKXZ ; CColorButton::GetColor

; 485  : 	CColorDialog color(crColor, CC_FULLOPEN);

  00037	6a 00		 push	 0
  00039	6a 02		 push	 2
  0003b	50		 push	 eax
  0003c	8d 8d 20 ff ff
	ff		 lea	 ecx, DWORD PTR _color$[ebp]
  00042	e8 00 00 00 00	 call	 ??0CColorDialog@@QAE@KKPAVCWnd@@@Z ; CColorDialog::CColorDialog

; 486  : 	if(color.DoModal() == IDOK) 

  00047	8d 8d 20 ff ff
	ff		 lea	 ecx, DWORD PTR _color$[ebp]
  0004d	c7 45 fc 00 00
	00 00		 mov	 DWORD PTR __$EHRec$[ebp+8], 0
  00054	e8 00 00 00 00	 call	 ?DoModal@CColorDialog@@UAEHXZ ; CColorDialog::DoModal
  00059	83 f8 01	 cmp	 eax, 1
  0005c	75 55		 jne	 SHORT $LN2@OnColorBut

; 487  : 	{
; 488  : 		m_pIGraphInfo->SetSubGraphColor( 6, 1, color.GetColor());

  0005e	8b 8e 2c 26 00
	00		 mov	 ecx, DWORD PTR [esi+9772]
  00064	ff 75 d4	 push	 DWORD PTR _color$[ebp+180]
  00067	6a 01		 push	 1
  00069	8b 01		 mov	 eax, DWORD PTR [ecx]
  0006b	6a 06		 push	 6
  0006d	ff 50 6c	 call	 DWORD PTR [eax+108]

; 489  : 		m_pIGraphInfo->SetSubGraphColor( 6, 2, color.GetColor());

  00070	8b 8e 2c 26 00
	00		 mov	 ecx, DWORD PTR [esi+9772]
  00076	ff 75 d4	 push	 DWORD PTR _color$[ebp+180]
  00079	6a 02		 push	 2
  0007b	8b 01		 mov	 eax, DWORD PTR [ecx]
  0007d	6a 06		 push	 6
  0007f	ff 50 6c	 call	 DWORD PTR [eax+108]

; 490  : 		m_btnColor6.SetColor( m_pIGraphInfo->GetSubGraphColor( 6, 1));

  00082	8b 8e 2c 26 00
	00		 mov	 ecx, DWORD PTR [esi+9772]
  00088	6a 01		 push	 1
  0008a	6a 06		 push	 6
  0008c	8b 01		 mov	 eax, DWORD PTR [ecx]
  0008e	ff 50 64	 call	 DWORD PTR [eax+100]
  00091	89 45 f0	 mov	 DWORD PTR $T2[ebp], eax
  00094	8d 8e 70 18 00
	00		 lea	 ecx, DWORD PTR [esi+6256]
  0009a	8d 45 f0	 lea	 eax, DWORD PTR $T2[ebp]
  0009d	50		 push	 eax
  0009e	e8 00 00 00 00	 call	 ?SetColor@CColorButton@@QAEXABK@Z ; CColorButton::SetColor
; File C:\Program Files (x86)\Microsoft Visual Studio\2019\Community\VC\Tools\MSVC\14.29.30133\atlmfc\include\afxwin2.inl

; 114  : 	{ ASSERT(::IsWindow(m_hWnd)); ::InvalidateRect(m_hWnd, NULL, bErase); }

  000a3	6a 01		 push	 1
  000a5	6a 00		 push	 0
  000a7	ff b6 90 18 00
	00		 push	 DWORD PTR [esi+6288]
  000ad	ff 15 00 00 00
	00		 call	 DWORD PTR __imp__InvalidateRect@12
$LN2@OnColorBut:
; File C:\Program Files (x86)\Microsoft Visual Studio\2019\Community\VC\Tools\MSVC\14.29.30133\atlmfc\include\afxdlgs.h

; 110  :     virtual ~CCommonDialog() {};

  000b3	8d 8d 20 ff ff
	ff		 lea	 ecx, DWORD PTR _color$[ebp]
  000b9	c7 85 20 ff ff
	ff 00 00 00 00	 mov	 DWORD PTR _color$[ebp], OFFSET ??_7CCommonDialog@@6B@
  000c3	e8 00 00 00 00	 call	 ??1CDialog@@UAE@XZ	; CDialog::~CDialog
; File D:\git\src\IBK\IBK_DRFN\ProjSrc\SrcChartEx\ChartAddIn\ChartEnvSetupDlgAddIn\ChartEnvSetupDlgAddIn\Setting_VolumeMA_Condition.cpp

; 493  : }

  000c8	8b 4d f4	 mov	 ecx, DWORD PTR __$EHRec$[ebp]
  000cb	64 89 0d 00 00
	00 00		 mov	 DWORD PTR fs:0, ecx
  000d2	59		 pop	 ecx
  000d3	5f		 pop	 edi
  000d4	5e		 pop	 esi
  000d5	8b e5		 mov	 esp, ebp
  000d7	5d		 pop	 ebp
  000d8	c3		 ret	 0
_TEXT	ENDS
;	COMDAT text$x
text$x	SEGMENT
__unwindfunclet$?OnColorButton6@CSetting_VolumeMA_Condition@@IAEXXZ$0:
  00000	8d 8d 20 ff ff
	ff		 lea	 ecx, DWORD PTR _color$[ebp]
  00006	e9 00 00 00 00	 jmp	 ??1CColorDialog@@UAE@XZ
  0000b	cc		 int	 3
  0000c	cc		 int	 3
  0000d	cc		 int	 3
  0000e	cc		 int	 3
  0000f	cc		 int	 3
__ehhandler$?OnColorButton6@CSetting_VolumeMA_Condition@@IAEXXZ:
  00010	90		 npad	 1
  00011	90		 npad	 1
  00012	8b 54 24 08	 mov	 edx, DWORD PTR [esp+8]
  00016	8d 42 0c	 lea	 eax, DWORD PTR [edx+12]
  00019	8b 8a 20 ff ff
	ff		 mov	 ecx, DWORD PTR [edx-224]
  0001f	33 c8		 xor	 ecx, eax
  00021	e8 00 00 00 00	 call	 @__security_check_cookie@4
  00026	b8 00 00 00 00	 mov	 eax, OFFSET __ehfuncinfo$?OnColorButton6@CSetting_VolumeMA_Condition@@IAEXXZ
  0002b	e9 00 00 00 00	 jmp	 ___CxxFrameHandler3
text$x	ENDS
?OnColorButton6@CSetting_VolumeMA_Condition@@IAEXXZ ENDP ; CSetting_VolumeMA_Condition::OnColorButton6
; Function compile flags: /Ogtp
; File D:\git\src\IBK\IBK_DRFN\ProjSrc\SrcChartEx\ChartAddIn\ChartEnvSetupDlgAddIn\ChartEnvSetupDlgAddIn\Setting_VolumeMA_Condition.cpp
; File C:\Program Files (x86)\Microsoft Visual Studio\2019\Community\VC\Tools\MSVC\14.29.30133\atlmfc\include\afxwin2.inl
; File C:\Program Files (x86)\Microsoft Visual Studio\2019\Community\VC\Tools\MSVC\14.29.30133\atlmfc\include\afxdlgs.h
; File D:\git\src\IBK\IBK_DRFN\ProjSrc\SrcChartEx\ChartAddIn\ChartEnvSetupDlgAddIn\ChartEnvSetupDlgAddIn\Setting_VolumeMA_Condition.cpp
;	COMDAT ?OnColorButton5@CSetting_VolumeMA_Condition@@IAEXXZ
_TEXT	SEGMENT
_color$ = -224						; size = 208
$T2 = -16						; size = 4
__$EHRec$ = -12						; size = 12
?OnColorButton5@CSetting_VolumeMA_Condition@@IAEXXZ PROC ; CSetting_VolumeMA_Condition::OnColorButton5, COMDAT
; _this$ = ecx

; 468  : {

  00000	55		 push	 ebp
  00001	8b ec		 mov	 ebp, esp
  00003	6a ff		 push	 -1
  00005	68 00 00 00 00	 push	 __ehhandler$?OnColorButton5@CSetting_VolumeMA_Condition@@IAEXXZ
  0000a	64 a1 00 00 00
	00		 mov	 eax, DWORD PTR fs:0
  00010	50		 push	 eax
  00011	81 ec d4 00 00
	00		 sub	 esp, 212		; 000000d4H
  00017	56		 push	 esi
  00018	57		 push	 edi
  00019	a1 00 00 00 00	 mov	 eax, DWORD PTR ___security_cookie
  0001e	33 c5		 xor	 eax, ebp
  00020	50		 push	 eax
  00021	8d 45 f4	 lea	 eax, DWORD PTR __$EHRec$[ebp]
  00024	64 a3 00 00 00
	00		 mov	 DWORD PTR fs:0, eax
  0002a	8b f1		 mov	 esi, ecx

; 469  : 	// TODO: Add your control notification handler code here
; 470  : 	COLORREF crColor = m_btnColor5.GetColor();

  0002c	8d 8e f8 18 00
	00		 lea	 ecx, DWORD PTR [esi+6392]
  00032	e8 00 00 00 00	 call	 ?GetColor@CColorButton@@QAEKXZ ; CColorButton::GetColor

; 471  : 	CColorDialog color(crColor, CC_FULLOPEN);

  00037	6a 00		 push	 0
  00039	6a 02		 push	 2
  0003b	50		 push	 eax
  0003c	8d 8d 20 ff ff
	ff		 lea	 ecx, DWORD PTR _color$[ebp]
  00042	e8 00 00 00 00	 call	 ??0CColorDialog@@QAE@KKPAVCWnd@@@Z ; CColorDialog::CColorDialog

; 472  : 	if(color.DoModal() == IDOK) 

  00047	8d 8d 20 ff ff
	ff		 lea	 ecx, DWORD PTR _color$[ebp]
  0004d	c7 45 fc 00 00
	00 00		 mov	 DWORD PTR __$EHRec$[ebp+8], 0
  00054	e8 00 00 00 00	 call	 ?DoModal@CColorDialog@@UAEHXZ ; CColorDialog::DoModal
  00059	83 f8 01	 cmp	 eax, 1
  0005c	75 55		 jne	 SHORT $LN2@OnColorBut

; 473  : 	{
; 474  : 		m_pIGraphInfo->SetSubGraphColor( 5, 1, color.GetColor());

  0005e	8b 8e 2c 26 00
	00		 mov	 ecx, DWORD PTR [esi+9772]
  00064	ff 75 d4	 push	 DWORD PTR _color$[ebp+180]
  00067	6a 01		 push	 1
  00069	8b 01		 mov	 eax, DWORD PTR [ecx]
  0006b	6a 05		 push	 5
  0006d	ff 50 6c	 call	 DWORD PTR [eax+108]

; 475  : 		m_pIGraphInfo->SetSubGraphColor( 5, 2, color.GetColor());

  00070	8b 8e 2c 26 00
	00		 mov	 ecx, DWORD PTR [esi+9772]
  00076	ff 75 d4	 push	 DWORD PTR _color$[ebp+180]
  00079	6a 02		 push	 2
  0007b	8b 01		 mov	 eax, DWORD PTR [ecx]
  0007d	6a 05		 push	 5
  0007f	ff 50 6c	 call	 DWORD PTR [eax+108]

; 476  : 		m_btnColor5.SetColor( m_pIGraphInfo->GetSubGraphColor( 5, 1));

  00082	8b 8e 2c 26 00
	00		 mov	 ecx, DWORD PTR [esi+9772]
  00088	6a 01		 push	 1
  0008a	6a 05		 push	 5
  0008c	8b 01		 mov	 eax, DWORD PTR [ecx]
  0008e	ff 50 64	 call	 DWORD PTR [eax+100]
  00091	89 45 f0	 mov	 DWORD PTR $T2[ebp], eax
  00094	8d 8e f8 18 00
	00		 lea	 ecx, DWORD PTR [esi+6392]
  0009a	8d 45 f0	 lea	 eax, DWORD PTR $T2[ebp]
  0009d	50		 push	 eax
  0009e	e8 00 00 00 00	 call	 ?SetColor@CColorButton@@QAEXABK@Z ; CColorButton::SetColor
; File C:\Program Files (x86)\Microsoft Visual Studio\2019\Community\VC\Tools\MSVC\14.29.30133\atlmfc\include\afxwin2.inl

; 114  : 	{ ASSERT(::IsWindow(m_hWnd)); ::InvalidateRect(m_hWnd, NULL, bErase); }

  000a3	6a 01		 push	 1
  000a5	6a 00		 push	 0
  000a7	ff b6 18 19 00
	00		 push	 DWORD PTR [esi+6424]
  000ad	ff 15 00 00 00
	00		 call	 DWORD PTR __imp__InvalidateRect@12
$LN2@OnColorBut:
; File C:\Program Files (x86)\Microsoft Visual Studio\2019\Community\VC\Tools\MSVC\14.29.30133\atlmfc\include\afxdlgs.h

; 110  :     virtual ~CCommonDialog() {};

  000b3	8d 8d 20 ff ff
	ff		 lea	 ecx, DWORD PTR _color$[ebp]
  000b9	c7 85 20 ff ff
	ff 00 00 00 00	 mov	 DWORD PTR _color$[ebp], OFFSET ??_7CCommonDialog@@6B@
  000c3	e8 00 00 00 00	 call	 ??1CDialog@@UAE@XZ	; CDialog::~CDialog
; File D:\git\src\IBK\IBK_DRFN\ProjSrc\SrcChartEx\ChartAddIn\ChartEnvSetupDlgAddIn\ChartEnvSetupDlgAddIn\Setting_VolumeMA_Condition.cpp

; 479  : }

  000c8	8b 4d f4	 mov	 ecx, DWORD PTR __$EHRec$[ebp]
  000cb	64 89 0d 00 00
	00 00		 mov	 DWORD PTR fs:0, ecx
  000d2	59		 pop	 ecx
  000d3	5f		 pop	 edi
  000d4	5e		 pop	 esi
  000d5	8b e5		 mov	 esp, ebp
  000d7	5d		 pop	 ebp
  000d8	c3		 ret	 0
_TEXT	ENDS
;	COMDAT text$x
text$x	SEGMENT
__unwindfunclet$?OnColorButton5@CSetting_VolumeMA_Condition@@IAEXXZ$0:
  00000	8d 8d 20 ff ff
	ff		 lea	 ecx, DWORD PTR _color$[ebp]
  00006	e9 00 00 00 00	 jmp	 ??1CColorDialog@@UAE@XZ
  0000b	cc		 int	 3
  0000c	cc		 int	 3
  0000d	cc		 int	 3
  0000e	cc		 int	 3
  0000f	cc		 int	 3
__ehhandler$?OnColorButton5@CSetting_VolumeMA_Condition@@IAEXXZ:
  00010	90		 npad	 1
  00011	90		 npad	 1
  00012	8b 54 24 08	 mov	 edx, DWORD PTR [esp+8]
  00016	8d 42 0c	 lea	 eax, DWORD PTR [edx+12]
  00019	8b 8a 20 ff ff
	ff		 mov	 ecx, DWORD PTR [edx-224]
  0001f	33 c8		 xor	 ecx, eax
  00021	e8 00 00 00 00	 call	 @__security_check_cookie@4
  00026	b8 00 00 00 00	 mov	 eax, OFFSET __ehfuncinfo$?OnColorButton5@CSetting_VolumeMA_Condition@@IAEXXZ
  0002b	e9 00 00 00 00	 jmp	 ___CxxFrameHandler3
text$x	ENDS
?OnColorButton5@CSetting_VolumeMA_Condition@@IAEXXZ ENDP ; CSetting_VolumeMA_Condition::OnColorButton5
; Function compile flags: /Ogtp
; File D:\git\src\IBK\IBK_DRFN\ProjSrc\SrcChartEx\ChartAddIn\ChartEnvSetupDlgAddIn\ChartEnvSetupDlgAddIn\Setting_VolumeMA_Condition.cpp
; File C:\Program Files (x86)\Microsoft Visual Studio\2019\Community\VC\Tools\MSVC\14.29.30133\atlmfc\include\afxwin2.inl
; File C:\Program Files (x86)\Microsoft Visual Studio\2019\Community\VC\Tools\MSVC\14.29.30133\atlmfc\include\afxdlgs.h
; File D:\git\src\IBK\IBK_DRFN\ProjSrc\SrcChartEx\ChartAddIn\ChartEnvSetupDlgAddIn\ChartEnvSetupDlgAddIn\Setting_VolumeMA_Condition.cpp
;	COMDAT ?OnColorButton4@CSetting_VolumeMA_Condition@@IAEXXZ
_TEXT	SEGMENT
_color$ = -224						; size = 208
$T2 = -16						; size = 4
__$EHRec$ = -12						; size = 12
?OnColorButton4@CSetting_VolumeMA_Condition@@IAEXXZ PROC ; CSetting_VolumeMA_Condition::OnColorButton4, COMDAT
; _this$ = ecx

; 454  : {

  00000	55		 push	 ebp
  00001	8b ec		 mov	 ebp, esp
  00003	6a ff		 push	 -1
  00005	68 00 00 00 00	 push	 __ehhandler$?OnColorButton4@CSetting_VolumeMA_Condition@@IAEXXZ
  0000a	64 a1 00 00 00
	00		 mov	 eax, DWORD PTR fs:0
  00010	50		 push	 eax
  00011	81 ec d4 00 00
	00		 sub	 esp, 212		; 000000d4H
  00017	56		 push	 esi
  00018	57		 push	 edi
  00019	a1 00 00 00 00	 mov	 eax, DWORD PTR ___security_cookie
  0001e	33 c5		 xor	 eax, ebp
  00020	50		 push	 eax
  00021	8d 45 f4	 lea	 eax, DWORD PTR __$EHRec$[ebp]
  00024	64 a3 00 00 00
	00		 mov	 DWORD PTR fs:0, eax
  0002a	8b f1		 mov	 esi, ecx

; 455  : 	// TODO: Add your control notification handler code here
; 456  : 	COLORREF crColor = m_btnColor4.GetColor();

  0002c	8d 8e 80 19 00
	00		 lea	 ecx, DWORD PTR [esi+6528]
  00032	e8 00 00 00 00	 call	 ?GetColor@CColorButton@@QAEKXZ ; CColorButton::GetColor

; 457  : 	CColorDialog color(crColor, CC_FULLOPEN);

  00037	6a 00		 push	 0
  00039	6a 02		 push	 2
  0003b	50		 push	 eax
  0003c	8d 8d 20 ff ff
	ff		 lea	 ecx, DWORD PTR _color$[ebp]
  00042	e8 00 00 00 00	 call	 ??0CColorDialog@@QAE@KKPAVCWnd@@@Z ; CColorDialog::CColorDialog

; 458  : 	if(color.DoModal() == IDOK) 

  00047	8d 8d 20 ff ff
	ff		 lea	 ecx, DWORD PTR _color$[ebp]
  0004d	c7 45 fc 00 00
	00 00		 mov	 DWORD PTR __$EHRec$[ebp+8], 0
  00054	e8 00 00 00 00	 call	 ?DoModal@CColorDialog@@UAEHXZ ; CColorDialog::DoModal
  00059	83 f8 01	 cmp	 eax, 1
  0005c	75 55		 jne	 SHORT $LN2@OnColorBut

; 459  : 	{
; 460  : 		m_pIGraphInfo->SetSubGraphColor( 4, 1, color.GetColor());

  0005e	8b 8e 2c 26 00
	00		 mov	 ecx, DWORD PTR [esi+9772]
  00064	ff 75 d4	 push	 DWORD PTR _color$[ebp+180]
  00067	6a 01		 push	 1
  00069	8b 01		 mov	 eax, DWORD PTR [ecx]
  0006b	6a 04		 push	 4
  0006d	ff 50 6c	 call	 DWORD PTR [eax+108]

; 461  : 		m_pIGraphInfo->SetSubGraphColor( 4, 2, color.GetColor());

  00070	8b 8e 2c 26 00
	00		 mov	 ecx, DWORD PTR [esi+9772]
  00076	ff 75 d4	 push	 DWORD PTR _color$[ebp+180]
  00079	6a 02		 push	 2
  0007b	8b 01		 mov	 eax, DWORD PTR [ecx]
  0007d	6a 04		 push	 4
  0007f	ff 50 6c	 call	 DWORD PTR [eax+108]

; 462  : 		m_btnColor4.SetColor( m_pIGraphInfo->GetSubGraphColor( 4, 1));

  00082	8b 8e 2c 26 00
	00		 mov	 ecx, DWORD PTR [esi+9772]
  00088	6a 01		 push	 1
  0008a	6a 04		 push	 4
  0008c	8b 01		 mov	 eax, DWORD PTR [ecx]
  0008e	ff 50 64	 call	 DWORD PTR [eax+100]
  00091	89 45 f0	 mov	 DWORD PTR $T2[ebp], eax
  00094	8d 8e 80 19 00
	00		 lea	 ecx, DWORD PTR [esi+6528]
  0009a	8d 45 f0	 lea	 eax, DWORD PTR $T2[ebp]
  0009d	50		 push	 eax
  0009e	e8 00 00 00 00	 call	 ?SetColor@CColorButton@@QAEXABK@Z ; CColorButton::SetColor
; File C:\Program Files (x86)\Microsoft Visual Studio\2019\Community\VC\Tools\MSVC\14.29.30133\atlmfc\include\afxwin2.inl

; 114  : 	{ ASSERT(::IsWindow(m_hWnd)); ::InvalidateRect(m_hWnd, NULL, bErase); }

  000a3	6a 01		 push	 1
  000a5	6a 00		 push	 0
  000a7	ff b6 a0 19 00
	00		 push	 DWORD PTR [esi+6560]
  000ad	ff 15 00 00 00
	00		 call	 DWORD PTR __imp__InvalidateRect@12
$LN2@OnColorBut:
; File C:\Program Files (x86)\Microsoft Visual Studio\2019\Community\VC\Tools\MSVC\14.29.30133\atlmfc\include\afxdlgs.h

; 110  :     virtual ~CCommonDialog() {};

  000b3	8d 8d 20 ff ff
	ff		 lea	 ecx, DWORD PTR _color$[ebp]
  000b9	c7 85 20 ff ff
	ff 00 00 00 00	 mov	 DWORD PTR _color$[ebp], OFFSET ??_7CCommonDialog@@6B@
  000c3	e8 00 00 00 00	 call	 ??1CDialog@@UAE@XZ	; CDialog::~CDialog
; File D:\git\src\IBK\IBK_DRFN\ProjSrc\SrcChartEx\ChartAddIn\ChartEnvSetupDlgAddIn\ChartEnvSetupDlgAddIn\Setting_VolumeMA_Condition.cpp

; 465  : }

  000c8	8b 4d f4	 mov	 ecx, DWORD PTR __$EHRec$[ebp]
  000cb	64 89 0d 00 00
	00 00		 mov	 DWORD PTR fs:0, ecx
  000d2	59		 pop	 ecx
  000d3	5f		 pop	 edi
  000d4	5e		 pop	 esi
  000d5	8b e5		 mov	 esp, ebp
  000d7	5d		 pop	 ebp
  000d8	c3		 ret	 0
_TEXT	ENDS
;	COMDAT text$x
text$x	SEGMENT
__unwindfunclet$?OnColorButton4@CSetting_VolumeMA_Condition@@IAEXXZ$0:
  00000	8d 8d 20 ff ff
	ff		 lea	 ecx, DWORD PTR _color$[ebp]
  00006	e9 00 00 00 00	 jmp	 ??1CColorDialog@@UAE@XZ
  0000b	cc		 int	 3
  0000c	cc		 int	 3
  0000d	cc		 int	 3
  0000e	cc		 int	 3
  0000f	cc		 int	 3
__ehhandler$?OnColorButton4@CSetting_VolumeMA_Condition@@IAEXXZ:
  00010	90		 npad	 1
  00011	90		 npad	 1
  00012	8b 54 24 08	 mov	 edx, DWORD PTR [esp+8]
  00016	8d 42 0c	 lea	 eax, DWORD PTR [edx+12]
  00019	8b 8a 20 ff ff
	ff		 mov	 ecx, DWORD PTR [edx-224]
  0001f	33 c8		 xor	 ecx, eax
  00021	e8 00 00 00 00	 call	 @__security_check_cookie@4
  00026	b8 00 00 00 00	 mov	 eax, OFFSET __ehfuncinfo$?OnColorButton4@CSetting_VolumeMA_Condition@@IAEXXZ
  0002b	e9 00 00 00 00	 jmp	 ___CxxFrameHandler3
text$x	ENDS
?OnColorButton4@CSetting_VolumeMA_Condition@@IAEXXZ ENDP ; CSetting_VolumeMA_Condition::OnColorButton4
; Function compile flags: /Ogtp
; File D:\git\src\IBK\IBK_DRFN\ProjSrc\SrcChartEx\ChartAddIn\ChartEnvSetupDlgAddIn\ChartEnvSetupDlgAddIn\Setting_VolumeMA_Condition.cpp
; File C:\Program Files (x86)\Microsoft Visual Studio\2019\Community\VC\Tools\MSVC\14.29.30133\atlmfc\include\afxwin2.inl
; File C:\Program Files (x86)\Microsoft Visual Studio\2019\Community\VC\Tools\MSVC\14.29.30133\atlmfc\include\afxdlgs.h
; File D:\git\src\IBK\IBK_DRFN\ProjSrc\SrcChartEx\ChartAddIn\ChartEnvSetupDlgAddIn\ChartEnvSetupDlgAddIn\Setting_VolumeMA_Condition.cpp
;	COMDAT ?OnColorButton3@CSetting_VolumeMA_Condition@@IAEXXZ
_TEXT	SEGMENT
_color$ = -224						; size = 208
$T2 = -16						; size = 4
__$EHRec$ = -12						; size = 12
?OnColorButton3@CSetting_VolumeMA_Condition@@IAEXXZ PROC ; CSetting_VolumeMA_Condition::OnColorButton3, COMDAT
; _this$ = ecx

; 440  : {

  00000	55		 push	 ebp
  00001	8b ec		 mov	 ebp, esp
  00003	6a ff		 push	 -1
  00005	68 00 00 00 00	 push	 __ehhandler$?OnColorButton3@CSetting_VolumeMA_Condition@@IAEXXZ
  0000a	64 a1 00 00 00
	00		 mov	 eax, DWORD PTR fs:0
  00010	50		 push	 eax
  00011	81 ec d4 00 00
	00		 sub	 esp, 212		; 000000d4H
  00017	56		 push	 esi
  00018	57		 push	 edi
  00019	a1 00 00 00 00	 mov	 eax, DWORD PTR ___security_cookie
  0001e	33 c5		 xor	 eax, ebp
  00020	50		 push	 eax
  00021	8d 45 f4	 lea	 eax, DWORD PTR __$EHRec$[ebp]
  00024	64 a3 00 00 00
	00		 mov	 DWORD PTR fs:0, eax
  0002a	8b f1		 mov	 esi, ecx

; 441  : 	// TODO: Add your control notification handler code here
; 442  : 	COLORREF crColor = m_btnColor3.GetColor();

  0002c	8d 8e 08 1a 00
	00		 lea	 ecx, DWORD PTR [esi+6664]
  00032	e8 00 00 00 00	 call	 ?GetColor@CColorButton@@QAEKXZ ; CColorButton::GetColor

; 443  : 	CColorDialog color(crColor, CC_FULLOPEN);

  00037	6a 00		 push	 0
  00039	6a 02		 push	 2
  0003b	50		 push	 eax
  0003c	8d 8d 20 ff ff
	ff		 lea	 ecx, DWORD PTR _color$[ebp]
  00042	e8 00 00 00 00	 call	 ??0CColorDialog@@QAE@KKPAVCWnd@@@Z ; CColorDialog::CColorDialog

; 444  : 	if(color.DoModal() == IDOK) 

  00047	8d 8d 20 ff ff
	ff		 lea	 ecx, DWORD PTR _color$[ebp]
  0004d	c7 45 fc 00 00
	00 00		 mov	 DWORD PTR __$EHRec$[ebp+8], 0
  00054	e8 00 00 00 00	 call	 ?DoModal@CColorDialog@@UAEHXZ ; CColorDialog::DoModal
  00059	83 f8 01	 cmp	 eax, 1
  0005c	75 55		 jne	 SHORT $LN2@OnColorBut

; 445  : 	{
; 446  : 		m_pIGraphInfo->SetSubGraphColor( 3, 1, color.GetColor());

  0005e	8b 8e 2c 26 00
	00		 mov	 ecx, DWORD PTR [esi+9772]
  00064	ff 75 d4	 push	 DWORD PTR _color$[ebp+180]
  00067	6a 01		 push	 1
  00069	8b 01		 mov	 eax, DWORD PTR [ecx]
  0006b	6a 03		 push	 3
  0006d	ff 50 6c	 call	 DWORD PTR [eax+108]

; 447  : 		m_pIGraphInfo->SetSubGraphColor( 3, 2, color.GetColor());

  00070	8b 8e 2c 26 00
	00		 mov	 ecx, DWORD PTR [esi+9772]
  00076	ff 75 d4	 push	 DWORD PTR _color$[ebp+180]
  00079	6a 02		 push	 2
  0007b	8b 01		 mov	 eax, DWORD PTR [ecx]
  0007d	6a 03		 push	 3
  0007f	ff 50 6c	 call	 DWORD PTR [eax+108]

; 448  : 		m_btnColor3.SetColor( m_pIGraphInfo->GetSubGraphColor( 3, 1));

  00082	8b 8e 2c 26 00
	00		 mov	 ecx, DWORD PTR [esi+9772]
  00088	6a 01		 push	 1
  0008a	6a 03		 push	 3
  0008c	8b 01		 mov	 eax, DWORD PTR [ecx]
  0008e	ff 50 64	 call	 DWORD PTR [eax+100]
  00091	89 45 f0	 mov	 DWORD PTR $T2[ebp], eax
  00094	8d 8e 08 1a 00
	00		 lea	 ecx, DWORD PTR [esi+6664]
  0009a	8d 45 f0	 lea	 eax, DWORD PTR $T2[ebp]
  0009d	50		 push	 eax
  0009e	e8 00 00 00 00	 call	 ?SetColor@CColorButton@@QAEXABK@Z ; CColorButton::SetColor
; File C:\Program Files (x86)\Microsoft Visual Studio\2019\Community\VC\Tools\MSVC\14.29.30133\atlmfc\include\afxwin2.inl

; 114  : 	{ ASSERT(::IsWindow(m_hWnd)); ::InvalidateRect(m_hWnd, NULL, bErase); }

  000a3	6a 01		 push	 1
  000a5	6a 00		 push	 0
  000a7	ff b6 28 1a 00
	00		 push	 DWORD PTR [esi+6696]
  000ad	ff 15 00 00 00
	00		 call	 DWORD PTR __imp__InvalidateRect@12
$LN2@OnColorBut:
; File C:\Program Files (x86)\Microsoft Visual Studio\2019\Community\VC\Tools\MSVC\14.29.30133\atlmfc\include\afxdlgs.h

; 110  :     virtual ~CCommonDialog() {};

  000b3	8d 8d 20 ff ff
	ff		 lea	 ecx, DWORD PTR _color$[ebp]
  000b9	c7 85 20 ff ff
	ff 00 00 00 00	 mov	 DWORD PTR _color$[ebp], OFFSET ??_7CCommonDialog@@6B@
  000c3	e8 00 00 00 00	 call	 ??1CDialog@@UAE@XZ	; CDialog::~CDialog
; File D:\git\src\IBK\IBK_DRFN\ProjSrc\SrcChartEx\ChartAddIn\ChartEnvSetupDlgAddIn\ChartEnvSetupDlgAddIn\Setting_VolumeMA_Condition.cpp

; 451  : }

  000c8	8b 4d f4	 mov	 ecx, DWORD PTR __$EHRec$[ebp]
  000cb	64 89 0d 00 00
	00 00		 mov	 DWORD PTR fs:0, ecx
  000d2	59		 pop	 ecx
  000d3	5f		 pop	 edi
  000d4	5e		 pop	 esi
  000d5	8b e5		 mov	 esp, ebp
  000d7	5d		 pop	 ebp
  000d8	c3		 ret	 0
_TEXT	ENDS
;	COMDAT text$x
text$x	SEGMENT
__unwindfunclet$?OnColorButton3@CSetting_VolumeMA_Condition@@IAEXXZ$0:
  00000	8d 8d 20 ff ff
	ff		 lea	 ecx, DWORD PTR _color$[ebp]
  00006	e9 00 00 00 00	 jmp	 ??1CColorDialog@@UAE@XZ
  0000b	cc		 int	 3
  0000c	cc		 int	 3
  0000d	cc		 int	 3
  0000e	cc		 int	 3
  0000f	cc		 int	 3
__ehhandler$?OnColorButton3@CSetting_VolumeMA_Condition@@IAEXXZ:
  00010	90		 npad	 1
  00011	90		 npad	 1
  00012	8b 54 24 08	 mov	 edx, DWORD PTR [esp+8]
  00016	8d 42 0c	 lea	 eax, DWORD PTR [edx+12]
  00019	8b 8a 20 ff ff
	ff		 mov	 ecx, DWORD PTR [edx-224]
  0001f	33 c8		 xor	 ecx, eax
  00021	e8 00 00 00 00	 call	 @__security_check_cookie@4
  00026	b8 00 00 00 00	 mov	 eax, OFFSET __ehfuncinfo$?OnColorButton3@CSetting_VolumeMA_Condition@@IAEXXZ
  0002b	e9 00 00 00 00	 jmp	 ___CxxFrameHandler3
text$x	ENDS
?OnColorButton3@CSetting_VolumeMA_Condition@@IAEXXZ ENDP ; CSetting_VolumeMA_Condition::OnColorButton3
; Function compile flags: /Ogtp
; File D:\git\src\IBK\IBK_DRFN\ProjSrc\SrcChartEx\ChartAddIn\ChartEnvSetupDlgAddIn\ChartEnvSetupDlgAddIn\Setting_VolumeMA_Condition.cpp
; File C:\Program Files (x86)\Microsoft Visual Studio\2019\Community\VC\Tools\MSVC\14.29.30133\atlmfc\include\afxwin2.inl
; File C:\Program Files (x86)\Microsoft Visual Studio\2019\Community\VC\Tools\MSVC\14.29.30133\atlmfc\include\afxdlgs.h
; File D:\git\src\IBK\IBK_DRFN\ProjSrc\SrcChartEx\ChartAddIn\ChartEnvSetupDlgAddIn\ChartEnvSetupDlgAddIn\Setting_VolumeMA_Condition.cpp
;	COMDAT ?OnColorButton2@CSetting_VolumeMA_Condition@@IAEXXZ
_TEXT	SEGMENT
_color$ = -224						; size = 208
$T2 = -16						; size = 4
__$EHRec$ = -12						; size = 12
?OnColorButton2@CSetting_VolumeMA_Condition@@IAEXXZ PROC ; CSetting_VolumeMA_Condition::OnColorButton2, COMDAT
; _this$ = ecx

; 426  : {

  00000	55		 push	 ebp
  00001	8b ec		 mov	 ebp, esp
  00003	6a ff		 push	 -1
  00005	68 00 00 00 00	 push	 __ehhandler$?OnColorButton2@CSetting_VolumeMA_Condition@@IAEXXZ
  0000a	64 a1 00 00 00
	00		 mov	 eax, DWORD PTR fs:0
  00010	50		 push	 eax
  00011	81 ec d4 00 00
	00		 sub	 esp, 212		; 000000d4H
  00017	56		 push	 esi
  00018	57		 push	 edi
  00019	a1 00 00 00 00	 mov	 eax, DWORD PTR ___security_cookie
  0001e	33 c5		 xor	 eax, ebp
  00020	50		 push	 eax
  00021	8d 45 f4	 lea	 eax, DWORD PTR __$EHRec$[ebp]
  00024	64 a3 00 00 00
	00		 mov	 DWORD PTR fs:0, eax
  0002a	8b f1		 mov	 esi, ecx

; 427  : 	// TODO: Add your control notification handler code here
; 428  : 	COLORREF crColor = m_btnColor2.GetColor();

  0002c	8d 8e 90 1a 00
	00		 lea	 ecx, DWORD PTR [esi+6800]
  00032	e8 00 00 00 00	 call	 ?GetColor@CColorButton@@QAEKXZ ; CColorButton::GetColor

; 429  : 	CColorDialog color(crColor, CC_FULLOPEN);

  00037	6a 00		 push	 0
  00039	6a 02		 push	 2
  0003b	50		 push	 eax
  0003c	8d 8d 20 ff ff
	ff		 lea	 ecx, DWORD PTR _color$[ebp]
  00042	e8 00 00 00 00	 call	 ??0CColorDialog@@QAE@KKPAVCWnd@@@Z ; CColorDialog::CColorDialog

; 430  : 	if(color.DoModal() == IDOK) 

  00047	8d 8d 20 ff ff
	ff		 lea	 ecx, DWORD PTR _color$[ebp]
  0004d	c7 45 fc 00 00
	00 00		 mov	 DWORD PTR __$EHRec$[ebp+8], 0
  00054	e8 00 00 00 00	 call	 ?DoModal@CColorDialog@@UAEHXZ ; CColorDialog::DoModal
  00059	83 f8 01	 cmp	 eax, 1
  0005c	75 55		 jne	 SHORT $LN2@OnColorBut

; 431  : 	{
; 432  : 		m_pIGraphInfo->SetSubGraphColor( 2, 1, color.GetColor());

  0005e	8b 8e 2c 26 00
	00		 mov	 ecx, DWORD PTR [esi+9772]
  00064	ff 75 d4	 push	 DWORD PTR _color$[ebp+180]
  00067	6a 01		 push	 1
  00069	8b 01		 mov	 eax, DWORD PTR [ecx]
  0006b	6a 02		 push	 2
  0006d	ff 50 6c	 call	 DWORD PTR [eax+108]

; 433  : 		m_pIGraphInfo->SetSubGraphColor( 2, 2, color.GetColor());

  00070	8b 8e 2c 26 00
	00		 mov	 ecx, DWORD PTR [esi+9772]
  00076	ff 75 d4	 push	 DWORD PTR _color$[ebp+180]
  00079	6a 02		 push	 2
  0007b	8b 01		 mov	 eax, DWORD PTR [ecx]
  0007d	6a 02		 push	 2
  0007f	ff 50 6c	 call	 DWORD PTR [eax+108]

; 434  : 		m_btnColor2.SetColor( m_pIGraphInfo->GetSubGraphColor( 2, 1));

  00082	8b 8e 2c 26 00
	00		 mov	 ecx, DWORD PTR [esi+9772]
  00088	6a 01		 push	 1
  0008a	6a 02		 push	 2
  0008c	8b 01		 mov	 eax, DWORD PTR [ecx]
  0008e	ff 50 64	 call	 DWORD PTR [eax+100]
  00091	89 45 f0	 mov	 DWORD PTR $T2[ebp], eax
  00094	8d 8e 90 1a 00
	00		 lea	 ecx, DWORD PTR [esi+6800]
  0009a	8d 45 f0	 lea	 eax, DWORD PTR $T2[ebp]
  0009d	50		 push	 eax
  0009e	e8 00 00 00 00	 call	 ?SetColor@CColorButton@@QAEXABK@Z ; CColorButton::SetColor
; File C:\Program Files (x86)\Microsoft Visual Studio\2019\Community\VC\Tools\MSVC\14.29.30133\atlmfc\include\afxwin2.inl

; 114  : 	{ ASSERT(::IsWindow(m_hWnd)); ::InvalidateRect(m_hWnd, NULL, bErase); }

  000a3	6a 01		 push	 1
  000a5	6a 00		 push	 0
  000a7	ff b6 b0 1a 00
	00		 push	 DWORD PTR [esi+6832]
  000ad	ff 15 00 00 00
	00		 call	 DWORD PTR __imp__InvalidateRect@12
$LN2@OnColorBut:
; File C:\Program Files (x86)\Microsoft Visual Studio\2019\Community\VC\Tools\MSVC\14.29.30133\atlmfc\include\afxdlgs.h

; 110  :     virtual ~CCommonDialog() {};

  000b3	8d 8d 20 ff ff
	ff		 lea	 ecx, DWORD PTR _color$[ebp]
  000b9	c7 85 20 ff ff
	ff 00 00 00 00	 mov	 DWORD PTR _color$[ebp], OFFSET ??_7CCommonDialog@@6B@
  000c3	e8 00 00 00 00	 call	 ??1CDialog@@UAE@XZ	; CDialog::~CDialog
; File D:\git\src\IBK\IBK_DRFN\ProjSrc\SrcChartEx\ChartAddIn\ChartEnvSetupDlgAddIn\ChartEnvSetupDlgAddIn\Setting_VolumeMA_Condition.cpp

; 437  : }

  000c8	8b 4d f4	 mov	 ecx, DWORD PTR __$EHRec$[ebp]
  000cb	64 89 0d 00 00
	00 00		 mov	 DWORD PTR fs:0, ecx
  000d2	59		 pop	 ecx
  000d3	5f		 pop	 edi
  000d4	5e		 pop	 esi
  000d5	8b e5		 mov	 esp, ebp
  000d7	5d		 pop	 ebp
  000d8	c3		 ret	 0
_TEXT	ENDS
;	COMDAT text$x
text$x	SEGMENT
__unwindfunclet$?OnColorButton2@CSetting_VolumeMA_Condition@@IAEXXZ$0:
  00000	8d 8d 20 ff ff
	ff		 lea	 ecx, DWORD PTR _color$[ebp]
  00006	e9 00 00 00 00	 jmp	 ??1CColorDialog@@UAE@XZ
  0000b	cc		 int	 3
  0000c	cc		 int	 3
  0000d	cc		 int	 3
  0000e	cc		 int	 3
  0000f	cc		 int	 3
__ehhandler$?OnColorButton2@CSetting_VolumeMA_Condition@@IAEXXZ:
  00010	90		 npad	 1
  00011	90		 npad	 1
  00012	8b 54 24 08	 mov	 edx, DWORD PTR [esp+8]
  00016	8d 42 0c	 lea	 eax, DWORD PTR [edx+12]
  00019	8b 8a 20 ff ff
	ff		 mov	 ecx, DWORD PTR [edx-224]
  0001f	33 c8		 xor	 ecx, eax
  00021	e8 00 00 00 00	 call	 @__security_check_cookie@4
  00026	b8 00 00 00 00	 mov	 eax, OFFSET __ehfuncinfo$?OnColorButton2@CSetting_VolumeMA_Condition@@IAEXXZ
  0002b	e9 00 00 00 00	 jmp	 ___CxxFrameHandler3
text$x	ENDS
?OnColorButton2@CSetting_VolumeMA_Condition@@IAEXXZ ENDP ; CSetting_VolumeMA_Condition::OnColorButton2
; Function compile flags: /Ogtp
; File D:\git\src\IBK\IBK_DRFN\ProjSrc\SrcChartEx\ChartAddIn\ChartEnvSetupDlgAddIn\ChartEnvSetupDlgAddIn\Setting_VolumeMA_Condition.cpp
; File C:\Program Files (x86)\Microsoft Visual Studio\2019\Community\VC\Tools\MSVC\14.29.30133\atlmfc\include\afxwin2.inl
; File C:\Program Files (x86)\Microsoft Visual Studio\2019\Community\VC\Tools\MSVC\14.29.30133\atlmfc\include\afxdlgs.h
; File D:\git\src\IBK\IBK_DRFN\ProjSrc\SrcChartEx\ChartAddIn\ChartEnvSetupDlgAddIn\ChartEnvSetupDlgAddIn\Setting_VolumeMA_Condition.cpp
;	COMDAT ?OnColorButton1@CSetting_VolumeMA_Condition@@IAEXXZ
_TEXT	SEGMENT
_color$ = -224						; size = 208
$T2 = -16						; size = 4
__$EHRec$ = -12						; size = 12
?OnColorButton1@CSetting_VolumeMA_Condition@@IAEXXZ PROC ; CSetting_VolumeMA_Condition::OnColorButton1, COMDAT
; _this$ = ecx

; 412  : {

  00000	55		 push	 ebp
  00001	8b ec		 mov	 ebp, esp
  00003	6a ff		 push	 -1
  00005	68 00 00 00 00	 push	 __ehhandler$?OnColorButton1@CSetting_VolumeMA_Condition@@IAEXXZ
  0000a	64 a1 00 00 00
	00		 mov	 eax, DWORD PTR fs:0
  00010	50		 push	 eax
  00011	81 ec d4 00 00
	00		 sub	 esp, 212		; 000000d4H
  00017	56		 push	 esi
  00018	57		 push	 edi
  00019	a1 00 00 00 00	 mov	 eax, DWORD PTR ___security_cookie
  0001e	33 c5		 xor	 eax, ebp
  00020	50		 push	 eax
  00021	8d 45 f4	 lea	 eax, DWORD PTR __$EHRec$[ebp]
  00024	64 a3 00 00 00
	00		 mov	 DWORD PTR fs:0, eax
  0002a	8b f1		 mov	 esi, ecx

; 413  : 	// TODO: Add your control notification handler code here
; 414  : 	COLORREF crColor = m_btnColor1.GetColor();

  0002c	8d 8e 18 1b 00
	00		 lea	 ecx, DWORD PTR [esi+6936]
  00032	e8 00 00 00 00	 call	 ?GetColor@CColorButton@@QAEKXZ ; CColorButton::GetColor

; 415  : 	CColorDialog color(crColor, CC_FULLOPEN);

  00037	6a 00		 push	 0
  00039	6a 02		 push	 2
  0003b	50		 push	 eax
  0003c	8d 8d 20 ff ff
	ff		 lea	 ecx, DWORD PTR _color$[ebp]
  00042	e8 00 00 00 00	 call	 ??0CColorDialog@@QAE@KKPAVCWnd@@@Z ; CColorDialog::CColorDialog

; 416  : 	if(color.DoModal() == IDOK) 

  00047	8d 8d 20 ff ff
	ff		 lea	 ecx, DWORD PTR _color$[ebp]
  0004d	c7 45 fc 00 00
	00 00		 mov	 DWORD PTR __$EHRec$[ebp+8], 0
  00054	e8 00 00 00 00	 call	 ?DoModal@CColorDialog@@UAEHXZ ; CColorDialog::DoModal
  00059	83 f8 01	 cmp	 eax, 1
  0005c	75 55		 jne	 SHORT $LN2@OnColorBut

; 417  : 	{
; 418  : 		m_pIGraphInfo->SetSubGraphColor( 1, 1, color.GetColor());

  0005e	8b 8e 2c 26 00
	00		 mov	 ecx, DWORD PTR [esi+9772]
  00064	ff 75 d4	 push	 DWORD PTR _color$[ebp+180]
  00067	6a 01		 push	 1
  00069	8b 01		 mov	 eax, DWORD PTR [ecx]
  0006b	6a 01		 push	 1
  0006d	ff 50 6c	 call	 DWORD PTR [eax+108]

; 419  : 		m_pIGraphInfo->SetSubGraphColor( 1, 2, color.GetColor());

  00070	8b 8e 2c 26 00
	00		 mov	 ecx, DWORD PTR [esi+9772]
  00076	ff 75 d4	 push	 DWORD PTR _color$[ebp+180]
  00079	6a 02		 push	 2
  0007b	8b 01		 mov	 eax, DWORD PTR [ecx]
  0007d	6a 01		 push	 1
  0007f	ff 50 6c	 call	 DWORD PTR [eax+108]

; 420  : 		m_btnColor1.SetColor( m_pIGraphInfo->GetSubGraphColor( 1, 1));

  00082	8b 8e 2c 26 00
	00		 mov	 ecx, DWORD PTR [esi+9772]
  00088	6a 01		 push	 1
  0008a	6a 01		 push	 1
  0008c	8b 01		 mov	 eax, DWORD PTR [ecx]
  0008e	ff 50 64	 call	 DWORD PTR [eax+100]
  00091	89 45 f0	 mov	 DWORD PTR $T2[ebp], eax
  00094	8d 8e 18 1b 00
	00		 lea	 ecx, DWORD PTR [esi+6936]
  0009a	8d 45 f0	 lea	 eax, DWORD PTR $T2[ebp]
  0009d	50		 push	 eax
  0009e	e8 00 00 00 00	 call	 ?SetColor@CColorButton@@QAEXABK@Z ; CColorButton::SetColor
; File C:\Program Files (x86)\Microsoft Visual Studio\2019\Community\VC\Tools\MSVC\14.29.30133\atlmfc\include\afxwin2.inl

; 114  : 	{ ASSERT(::IsWindow(m_hWnd)); ::InvalidateRect(m_hWnd, NULL, bErase); }

  000a3	6a 01		 push	 1
  000a5	6a 00		 push	 0
  000a7	ff b6 38 1b 00
	00		 push	 DWORD PTR [esi+6968]
  000ad	ff 15 00 00 00
	00		 call	 DWORD PTR __imp__InvalidateRect@12
$LN2@OnColorBut:
; File C:\Program Files (x86)\Microsoft Visual Studio\2019\Community\VC\Tools\MSVC\14.29.30133\atlmfc\include\afxdlgs.h

; 110  :     virtual ~CCommonDialog() {};

  000b3	8d 8d 20 ff ff
	ff		 lea	 ecx, DWORD PTR _color$[ebp]
  000b9	c7 85 20 ff ff
	ff 00 00 00 00	 mov	 DWORD PTR _color$[ebp], OFFSET ??_7CCommonDialog@@6B@
  000c3	e8 00 00 00 00	 call	 ??1CDialog@@UAE@XZ	; CDialog::~CDialog
; File D:\git\src\IBK\IBK_DRFN\ProjSrc\SrcChartEx\ChartAddIn\ChartEnvSetupDlgAddIn\ChartEnvSetupDlgAddIn\Setting_VolumeMA_Condition.cpp

; 423  : }

  000c8	8b 4d f4	 mov	 ecx, DWORD PTR __$EHRec$[ebp]
  000cb	64 89 0d 00 00
	00 00		 mov	 DWORD PTR fs:0, ecx
  000d2	59		 pop	 ecx
  000d3	5f		 pop	 edi
  000d4	5e		 pop	 esi
  000d5	8b e5		 mov	 esp, ebp
  000d7	5d		 pop	 ebp
  000d8	c3		 ret	 0
_TEXT	ENDS
;	COMDAT text$x
text$x	SEGMENT
__unwindfunclet$?OnColorButton1@CSetting_VolumeMA_Condition@@IAEXXZ$0:
  00000	8d 8d 20 ff ff
	ff		 lea	 ecx, DWORD PTR _color$[ebp]
  00006	e9 00 00 00 00	 jmp	 ??1CColorDialog@@UAE@XZ
  0000b	cc		 int	 3
  0000c	cc		 int	 3
  0000d	cc		 int	 3
  0000e	cc		 int	 3
  0000f	cc		 int	 3
__ehhandler$?OnColorButton1@CSetting_VolumeMA_Condition@@IAEXXZ:
  00010	90		 npad	 1
  00011	90		 npad	 1
  00012	8b 54 24 08	 mov	 edx, DWORD PTR [esp+8]
  00016	8d 42 0c	 lea	 eax, DWORD PTR [edx+12]
  00019	8b 8a 20 ff ff
	ff		 mov	 ecx, DWORD PTR [edx-224]
  0001f	33 c8		 xor	 ecx, eax
  00021	e8 00 00 00 00	 call	 @__security_check_cookie@4
  00026	b8 00 00 00 00	 mov	 eax, OFFSET __ehfuncinfo$?OnColorButton1@CSetting_VolumeMA_Condition@@IAEXXZ
  0002b	e9 00 00 00 00	 jmp	 ___CxxFrameHandler3
text$x	ENDS
?OnColorButton1@CSetting_VolumeMA_Condition@@IAEXXZ ENDP ; CSetting_VolumeMA_Condition::OnColorButton1
; Function compile flags: /Ogtp
; File D:\git\src\IBK\IBK_DRFN\ProjSrc\SrcChartEx\ChartAddIn\ChartEnvSetupDlgAddIn\ChartEnvSetupDlgAddIn\Setting_VolumeMA_Condition.cpp
; File C:\Program Files (x86)\Microsoft Visual Studio\2019\Community\VC\Tools\MSVC\14.29.30133\atlmfc\include\afxwin2.inl
; File C:\Program Files (x86)\Microsoft Visual Studio\2019\Community\VC\Tools\MSVC\14.29.30133\atlmfc\include\afxdlgs.h
; File D:\git\src\IBK\IBK_DRFN\ProjSrc\SrcChartEx\ChartAddIn\ChartEnvSetupDlgAddIn\ChartEnvSetupDlgAddIn\Setting_VolumeMA_Condition.cpp
;	COMDAT ?OnColorButton0@CSetting_VolumeMA_Condition@@IAEXXZ
_TEXT	SEGMENT
_color$ = -224						; size = 208
$T2 = -16						; size = 4
__$EHRec$ = -12						; size = 12
?OnColorButton0@CSetting_VolumeMA_Condition@@IAEXXZ PROC ; CSetting_VolumeMA_Condition::OnColorButton0, COMDAT
; _this$ = ecx

; 398  : {

  00000	55		 push	 ebp
  00001	8b ec		 mov	 ebp, esp
  00003	6a ff		 push	 -1
  00005	68 00 00 00 00	 push	 __ehhandler$?OnColorButton0@CSetting_VolumeMA_Condition@@IAEXXZ
  0000a	64 a1 00 00 00
	00		 mov	 eax, DWORD PTR fs:0
  00010	50		 push	 eax
  00011	81 ec d4 00 00
	00		 sub	 esp, 212		; 000000d4H
  00017	56		 push	 esi
  00018	57		 push	 edi
  00019	a1 00 00 00 00	 mov	 eax, DWORD PTR ___security_cookie
  0001e	33 c5		 xor	 eax, ebp
  00020	50		 push	 eax
  00021	8d 45 f4	 lea	 eax, DWORD PTR __$EHRec$[ebp]
  00024	64 a3 00 00 00
	00		 mov	 DWORD PTR fs:0, eax
  0002a	8b f1		 mov	 esi, ecx

; 399  : 	// TODO: Add your control notification handler code here
; 400  : 	COLORREF crColor = m_btnColor0.GetColor();

  0002c	8d 8e a0 1b 00
	00		 lea	 ecx, DWORD PTR [esi+7072]
  00032	e8 00 00 00 00	 call	 ?GetColor@CColorButton@@QAEKXZ ; CColorButton::GetColor

; 401  : 	CColorDialog color(crColor, CC_FULLOPEN);

  00037	6a 00		 push	 0
  00039	6a 02		 push	 2
  0003b	50		 push	 eax
  0003c	8d 8d 20 ff ff
	ff		 lea	 ecx, DWORD PTR _color$[ebp]
  00042	e8 00 00 00 00	 call	 ??0CColorDialog@@QAE@KKPAVCWnd@@@Z ; CColorDialog::CColorDialog

; 402  : 	if(color.DoModal() == IDOK) 

  00047	8d 8d 20 ff ff
	ff		 lea	 ecx, DWORD PTR _color$[ebp]
  0004d	c7 45 fc 00 00
	00 00		 mov	 DWORD PTR __$EHRec$[ebp+8], 0
  00054	e8 00 00 00 00	 call	 ?DoModal@CColorDialog@@UAEHXZ ; CColorDialog::DoModal
  00059	83 f8 01	 cmp	 eax, 1
  0005c	75 55		 jne	 SHORT $LN2@OnColorBut

; 403  : 	{
; 404  : 		m_pIGraphInfo->SetSubGraphColor( 0, 1, color.GetColor());

  0005e	8b 8e 2c 26 00
	00		 mov	 ecx, DWORD PTR [esi+9772]
  00064	ff 75 d4	 push	 DWORD PTR _color$[ebp+180]
  00067	6a 01		 push	 1
  00069	8b 01		 mov	 eax, DWORD PTR [ecx]
  0006b	6a 00		 push	 0
  0006d	ff 50 6c	 call	 DWORD PTR [eax+108]

; 405  : 		m_pIGraphInfo->SetSubGraphColor( 0, 2, color.GetColor());

  00070	8b 8e 2c 26 00
	00		 mov	 ecx, DWORD PTR [esi+9772]
  00076	ff 75 d4	 push	 DWORD PTR _color$[ebp+180]
  00079	6a 02		 push	 2
  0007b	8b 01		 mov	 eax, DWORD PTR [ecx]
  0007d	6a 00		 push	 0
  0007f	ff 50 6c	 call	 DWORD PTR [eax+108]

; 406  : 		m_btnColor0.SetColor( m_pIGraphInfo->GetSubGraphColor( 0, 1));

  00082	8b 8e 2c 26 00
	00		 mov	 ecx, DWORD PTR [esi+9772]
  00088	6a 01		 push	 1
  0008a	6a 00		 push	 0
  0008c	8b 01		 mov	 eax, DWORD PTR [ecx]
  0008e	ff 50 64	 call	 DWORD PTR [eax+100]
  00091	89 45 f0	 mov	 DWORD PTR $T2[ebp], eax
  00094	8d 8e a0 1b 00
	00		 lea	 ecx, DWORD PTR [esi+7072]
  0009a	8d 45 f0	 lea	 eax, DWORD PTR $T2[ebp]
  0009d	50		 push	 eax
  0009e	e8 00 00 00 00	 call	 ?SetColor@CColorButton@@QAEXABK@Z ; CColorButton::SetColor
; File C:\Program Files (x86)\Microsoft Visual Studio\2019\Community\VC\Tools\MSVC\14.29.30133\atlmfc\include\afxwin2.inl

; 114  : 	{ ASSERT(::IsWindow(m_hWnd)); ::InvalidateRect(m_hWnd, NULL, bErase); }

  000a3	6a 01		 push	 1
  000a5	6a 00		 push	 0
  000a7	ff b6 c0 1b 00
	00		 push	 DWORD PTR [esi+7104]
  000ad	ff 15 00 00 00
	00		 call	 DWORD PTR __imp__InvalidateRect@12
$LN2@OnColorBut:
; File C:\Program Files (x86)\Microsoft Visual Studio\2019\Community\VC\Tools\MSVC\14.29.30133\atlmfc\include\afxdlgs.h

; 110  :     virtual ~CCommonDialog() {};

  000b3	8d 8d 20 ff ff
	ff		 lea	 ecx, DWORD PTR _color$[ebp]
  000b9	c7 85 20 ff ff
	ff 00 00 00 00	 mov	 DWORD PTR _color$[ebp], OFFSET ??_7CCommonDialog@@6B@
  000c3	e8 00 00 00 00	 call	 ??1CDialog@@UAE@XZ	; CDialog::~CDialog
; File D:\git\src\IBK\IBK_DRFN\ProjSrc\SrcChartEx\ChartAddIn\ChartEnvSetupDlgAddIn\ChartEnvSetupDlgAddIn\Setting_VolumeMA_Condition.cpp

; 409  : }

  000c8	8b 4d f4	 mov	 ecx, DWORD PTR __$EHRec$[ebp]
  000cb	64 89 0d 00 00
	00 00		 mov	 DWORD PTR fs:0, ecx
  000d2	59		 pop	 ecx
  000d3	5f		 pop	 edi
  000d4	5e		 pop	 esi
  000d5	8b e5		 mov	 esp, ebp
  000d7	5d		 pop	 ebp
  000d8	c3		 ret	 0
_TEXT	ENDS
;	COMDAT text$x
text$x	SEGMENT
__unwindfunclet$?OnColorButton0@CSetting_VolumeMA_Condition@@IAEXXZ$0:
  00000	8d 8d 20 ff ff
	ff		 lea	 ecx, DWORD PTR _color$[ebp]
  00006	e9 00 00 00 00	 jmp	 ??1CColorDialog@@UAE@XZ
  0000b	cc		 int	 3
  0000c	cc		 int	 3
  0000d	cc		 int	 3
  0000e	cc		 int	 3
  0000f	cc		 int	 3
__ehhandler$?OnColorButton0@CSetting_VolumeMA_Condition@@IAEXXZ:
  00010	90		 npad	 1
  00011	90		 npad	 1
  00012	8b 54 24 08	 mov	 edx, DWORD PTR [esp+8]
  00016	8d 42 0c	 lea	 eax, DWORD PTR [edx+12]
  00019	8b 8a 20 ff ff
	ff		 mov	 ecx, DWORD PTR [edx-224]
  0001f	33 c8		 xor	 ecx, eax
  00021	e8 00 00 00 00	 call	 @__security_check_cookie@4
  00026	b8 00 00 00 00	 mov	 eax, OFFSET __ehfuncinfo$?OnColorButton0@CSetting_VolumeMA_Condition@@IAEXXZ
  0002b	e9 00 00 00 00	 jmp	 ___CxxFrameHandler3
text$x	ENDS
?OnColorButton0@CSetting_VolumeMA_Condition@@IAEXXZ ENDP ; CSetting_VolumeMA_Condition::OnColorButton0
; Function compile flags: /Ogtp
; File D:\git\src\IBK\IBK_DRFN\ProjSrc\SrcChartEx\ChartAddIn\ChartEnvSetupDlgAddIn\ChartEnvSetupDlgAddIn\Setting_VolumeMA_Condition.cpp
;	COMDAT ?OnInitDialog@CSetting_VolumeMA_Condition@@MAEHXZ
_TEXT	SEGMENT
?OnInitDialog@CSetting_VolumeMA_Condition@@MAEHXZ PROC	; CSetting_VolumeMA_Condition::OnInitDialog, COMDAT
; _this$ = ecx

; 179  : {

  00000	56		 push	 esi
  00001	8b f1		 mov	 esi, ecx

; 180  : 	CDialog::OnInitDialog();

  00003	e8 00 00 00 00	 call	 ?OnInitDialog@CDialog@@UAEHXZ ; CDialog::OnInitDialog

; 181  : 	
; 182  : 	// TODO: Add extra initialization here
; 183  : // 2008.01.25 by LYH >>
; 184  : 	m_strMsgLineThick.LoadString(IDS_MSG_LINE_THICK);

  00008	6a 02		 push	 2
  0000a	8d 8e 38 26 00
	00		 lea	 ecx, DWORD PTR [esi+9784]
  00010	ff 15 00 00 00
	00		 call	 DWORD PTR __imp_?LoadStringA@?$CStringT@DV?$StrTraitMFC_DLL@DV?$ChTraitsCRT@D@ATL@@@@@ATL@@QAEHI@Z

; 185  : 	m_strMsgLineShape.LoadString(IDS_MSG_LINE_SHAPE);

  00016	6a 01		 push	 1
  00018	8d 8e 3c 26 00
	00		 lea	 ecx, DWORD PTR [esi+9788]
  0001e	ff 15 00 00 00
	00		 call	 DWORD PTR __imp_?LoadStringA@?$CStringT@DV?$StrTraitMFC_DLL@DV?$ChTraitsCRT@D@ATL@@@@@ATL@@QAEHI@Z

; 186  : 	m_strMsgExistMin.LoadString(IDS_MSG_EXIST_MIN);

  00024	6a 1a		 push	 26			; 0000001aH
  00026	8d 8e 40 26 00
	00		 lea	 ecx, DWORD PTR [esi+9792]
  0002c	ff 15 00 00 00
	00		 call	 DWORD PTR __imp_?LoadStringA@?$CStringT@DV?$StrTraitMFC_DLL@DV?$ChTraitsCRT@D@ATL@@@@@ATL@@QAEHI@Z

; 187  : // 2008.01.25 by LYH <<
; 188  : 
; 189  : 	return TRUE;  // return TRUE unless you set the focus to a control

  00032	b8 01 00 00 00	 mov	 eax, 1
  00037	5e		 pop	 esi

; 190  : 	              // EXCEPTION: OCX Property Pages should return FALSE
; 191  : }

  00038	c3		 ret	 0
?OnInitDialog@CSetting_VolumeMA_Condition@@MAEHXZ ENDP	; CSetting_VolumeMA_Condition::OnInitDialog
_TEXT	ENDS
; Function compile flags: /Ogtp
; File D:\git\src\IBK\IBK_DRFN\ProjSrc\SrcChartEx\ChartAddIn\ChartEnvSetupDlgAddIn\ChartEnvSetupDlgAddIn\Setting_VolumeMA_Condition.cpp
; File C:\Program Files (x86)\Microsoft Visual Studio\2019\Community\VC\Tools\MSVC\14.29.30133\atlmfc\include\afxwin2.inl
; File D:\git\src\IBK\IBK_DRFN\ProjSrc\SrcChartEx\ChartAddIn\ChartEnvSetupDlgAddIn\ChartEnvSetupDlgAddIn\Setting_VolumeMA_Condition.cpp
; File C:\Program Files (x86)\Microsoft Visual Studio\2019\Community\VC\Tools\MSVC\14.29.30133\atlmfc\include\afxwin2.inl
; File D:\git\src\IBK\IBK_DRFN\ProjSrc\SrcChartEx\ChartAddIn\ChartEnvSetupDlgAddIn\ChartEnvSetupDlgAddIn\Setting_VolumeMA_Condition.cpp
; File C:\Program Files (x86)\Microsoft Visual Studio\2019\Community\VC\Tools\MSVC\14.29.30133\atlmfc\include\afxwin2.inl
; File D:\git\src\IBK\IBK_DRFN\ProjSrc\SrcChartEx\ChartAddIn\ChartEnvSetupDlgAddIn\ChartEnvSetupDlgAddIn\Setting_VolumeMA_Condition.cpp
; File C:\Program Files (x86)\Microsoft Visual Studio\2019\Community\VC\Tools\MSVC\14.29.30133\atlmfc\include\afxwin2.inl
; File D:\git\src\IBK\IBK_DRFN\ProjSrc\SrcChartEx\ChartAddIn\ChartEnvSetupDlgAddIn\ChartEnvSetupDlgAddIn\Setting_VolumeMA_Condition.cpp
;	COMDAT ?WhenAllSubGraphisHide@CSetting_VolumeMA_Condition@@QAEXH@Z
_TEXT	SEGMENT
_pButton$1$ = -4					; size = 4
_p_nCheckID$ = 8					; size = 4
?WhenAllSubGraphisHide@CSetting_VolumeMA_Condition@@QAEXH@Z PROC ; CSetting_VolumeMA_Condition::WhenAllSubGraphisHide, COMDAT
; _this$ = ecx

; 917  : {

  00000	55		 push	 ebp
  00001	8b ec		 mov	 ebp, esp
  00003	51		 push	 ecx
  00004	56		 push	 esi
  00005	57		 push	 edi

; 918  : 	CButton *pButton = ( CButton *)GetDlgItem( p_nCheckID );

  00006	ff 75 08	 push	 DWORD PTR _p_nCheckID$[ebp]
  00009	8b f9		 mov	 edi, ecx
  0000b	e8 00 00 00 00	 call	 ?GetDlgItem@CWnd@@QBEPAV1@H@Z ; CWnd::GetDlgItem
; File C:\Program Files (x86)\Microsoft Visual Studio\2019\Community\VC\Tools\MSVC\14.29.30133\atlmfc\include\afxwin2.inl

; 628  : 	{ ASSERT(::IsWindow(m_hWnd)); return (int)::SendMessage(m_hWnd, BM_GETCHECK, 0, 0); }

  00010	8b 35 00 00 00
	00		 mov	 esi, DWORD PTR __imp__SendMessageA@16
  00016	6a 00		 push	 0
  00018	6a 00		 push	 0
  0001a	68 f0 00 00 00	 push	 240			; 000000f0H
  0001f	ff 70 20	 push	 DWORD PTR [eax+32]
; File D:\git\src\IBK\IBK_DRFN\ProjSrc\SrcChartEx\ChartAddIn\ChartEnvSetupDlgAddIn\ChartEnvSetupDlgAddIn\Setting_VolumeMA_Condition.cpp

; 918  : 	CButton *pButton = ( CButton *)GetDlgItem( p_nCheckID );

  00022	89 45 fc	 mov	 DWORD PTR _pButton$1$[ebp], eax
; File C:\Program Files (x86)\Microsoft Visual Studio\2019\Community\VC\Tools\MSVC\14.29.30133\atlmfc\include\afxwin2.inl

; 628  : 	{ ASSERT(::IsWindow(m_hWnd)); return (int)::SendMessage(m_hWnd, BM_GETCHECK, 0, 0); }

  00025	ff d6		 call	 esi
; File D:\git\src\IBK\IBK_DRFN\ProjSrc\SrcChartEx\ChartAddIn\ChartEnvSetupDlgAddIn\ChartEnvSetupDlgAddIn\Setting_VolumeMA_Condition.cpp

; 919  : 	if( pButton->GetCheck() ) return;

  00027	85 c0		 test	 eax, eax
  00029	0f 85 8e 00 00
	00		 jne	 $LN1@WhenAllSub

; 920  : 
; 921  : 	int nCheckCount = 0;

  0002f	53		 push	 ebx
  00030	33 db		 xor	 ebx, ebx

; 922  : 	
; 923  : 	CButton *pCheckButton = NULL;
; 924  : 	for( int i = 0 ; i < m_nSubGraphCount ; i++ )

  00032	39 9f 28 26 00
	00		 cmp	 DWORD PTR [edi+9768], ebx
  00038	7e 53		 jle	 SHORT $LN27@WhenAllSub
  0003a	be 8c 23 00 00	 mov	 esi, 9100		; 0000238cH
  0003f	90		 npad	 1
$LL4@WhenAllSub:

; 235  : 	if( nSubGraphIndex >= 0 && nSubGraphIndex < VOLUME_MA_CONDITION_COUNT )

  00040	8d 86 74 dc ff
	ff		 lea	 eax, DWORD PTR [esi-9100]
  00046	b9 8c 23 00 00	 mov	 ecx, 9100		; 0000238cH
  0004b	83 f8 09	 cmp	 eax, 9
  0004e	0f 46 ce	 cmovbe	 ecx, esi

; 927  : 		if( pCheckButton) if( pCheckButton->GetCheck()) nCheckCount++;

  00051	51		 push	 ecx
  00052	8b cf		 mov	 ecx, edi
  00054	e8 00 00 00 00	 call	 ?GetDlgItem@CWnd@@QBEPAV1@H@Z ; CWnd::GetDlgItem
  00059	85 c0		 test	 eax, eax
  0005b	74 17		 je	 SHORT $LN2@WhenAllSub
; File C:\Program Files (x86)\Microsoft Visual Studio\2019\Community\VC\Tools\MSVC\14.29.30133\atlmfc\include\afxwin2.inl

; 628  : 	{ ASSERT(::IsWindow(m_hWnd)); return (int)::SendMessage(m_hWnd, BM_GETCHECK, 0, 0); }

  0005d	6a 00		 push	 0
  0005f	6a 00		 push	 0
  00061	68 f0 00 00 00	 push	 240			; 000000f0H
  00066	ff 70 20	 push	 DWORD PTR [eax+32]
  00069	ff 15 00 00 00
	00		 call	 DWORD PTR __imp__SendMessageA@16
; File D:\git\src\IBK\IBK_DRFN\ProjSrc\SrcChartEx\ChartAddIn\ChartEnvSetupDlgAddIn\ChartEnvSetupDlgAddIn\Setting_VolumeMA_Condition.cpp

; 927  : 		if( pCheckButton) if( pCheckButton->GetCheck()) nCheckCount++;

  0006f	85 c0		 test	 eax, eax
  00071	74 01		 je	 SHORT $LN2@WhenAllSub
  00073	43		 inc	 ebx
$LN2@WhenAllSub:

; 922  : 	
; 923  : 	CButton *pCheckButton = NULL;
; 924  : 	for( int i = 0 ; i < m_nSubGraphCount ; i++ )

  00074	46		 inc	 esi
  00075	8d 86 74 dc ff
	ff		 lea	 eax, DWORD PTR [esi-9100]
  0007b	3b 87 28 26 00
	00		 cmp	 eax, DWORD PTR [edi+9768]
  00081	7c bd		 jl	 SHORT $LL4@WhenAllSub

; 928  : 	}
; 929  : 
; 930  : 	if( 0 < nCheckCount)

  00083	85 db		 test	 ebx, ebx
  00085	7f 35		 jg	 SHORT $LN28@WhenAllSub
  00087	8b 35 00 00 00
	00		 mov	 esi, DWORD PTR __imp__SendMessageA@16
$LN27@WhenAllSub:

; 931  : 		return;
; 932  : 
; 933  : // 2008.01.25 by LYH >>
; 934  : 	//AfxMessageBox("     .");
; 935  : 	AfxMessageBox(m_strMsgExistMin);

  0008d	6a 00		 push	 0
  0008f	6a 00		 push	 0
  00091	ff b7 40 26 00
	00		 push	 DWORD PTR [edi+9792]
  00097	e8 00 00 00 00	 call	 ?AfxMessageBox@@YGHPBDII@Z ; AfxMessageBox
; File C:\Program Files (x86)\Microsoft Visual Studio\2019\Community\VC\Tools\MSVC\14.29.30133\atlmfc\include\afxwin2.inl

; 630  : 	{ ASSERT(::IsWindow(m_hWnd)); ::SendMessage(m_hWnd, BM_SETCHECK, nCheck, 0); }

  0009c	8b 45 fc	 mov	 eax, DWORD PTR _pButton$1$[ebp]
  0009f	6a 00		 push	 0
  000a1	6a 01		 push	 1
  000a3	68 f1 00 00 00	 push	 241			; 000000f1H
  000a8	ff 70 20	 push	 DWORD PTR [eax+32]
  000ab	ff d6		 call	 esi

; 32   : 	{ ASSERT(::IsWindow(m_hWnd)); return ::SendMessage(m_hWnd, message, wParam, lParam); }

  000ad	6a 00		 push	 0
  000af	ff 75 08	 push	 DWORD PTR _p_nCheckID$[ebp]
  000b2	68 11 01 00 00	 push	 273			; 00000111H
  000b7	ff 77 20	 push	 DWORD PTR [edi+32]
  000ba	ff d6		 call	 esi
$LN28@WhenAllSub:
  000bc	5b		 pop	 ebx
$LN1@WhenAllSub:
  000bd	5f		 pop	 edi
; File D:\git\src\IBK\IBK_DRFN\ProjSrc\SrcChartEx\ChartAddIn\ChartEnvSetupDlgAddIn\ChartEnvSetupDlgAddIn\Setting_VolumeMA_Condition.cpp

; 940  : }

  000be	5e		 pop	 esi
  000bf	8b e5		 mov	 esp, ebp
  000c1	5d		 pop	 ebp
  000c2	c2 04 00	 ret	 4
?WhenAllSubGraphisHide@CSetting_VolumeMA_Condition@@QAEXH@Z ENDP ; CSetting_VolumeMA_Condition::WhenAllSubGraphisHide
_TEXT	ENDS
; Function compile flags: /Ogtp
; File D:\git\src\IBK\IBK_DRFN\ProjSrc\SrcChartEx\ChartAddIn\ChartEnvSetupDlgAddIn\ChartEnvSetupDlgAddIn\Setting_VolumeMA_Condition.cpp
;	COMDAT ?ShowHideSubGraph@CSetting_VolumeMA_Condition@@QAEXHH@Z
_TEXT	SEGMENT
_nSubGraphIndex$ = 8					; size = 4
_nCmdShow$ = 12						; size = 4
?ShowHideSubGraph@CSetting_VolumeMA_Condition@@QAEXHH@Z PROC ; CSetting_VolumeMA_Condition::ShowHideSubGraph, COMDAT
; _this$ = ecx

; 352  : {

  00000	55		 push	 ebp
  00001	8b ec		 mov	 ebp, esp
  00003	53		 push	 ebx
  00004	57		 push	 edi

; 353  : 	if( nSubGraphIndex >= 0 && nSubGraphIndex < VOLUME_MA_CONDITION_COUNT )

  00005	8b 7d 08	 mov	 edi, DWORD PTR _nSubGraphIndex$[ebp]
  00008	8b d9		 mov	 ebx, ecx
  0000a	83 ff 09	 cmp	 edi, 9
  0000d	0f 87 b9 00 00
	00		 ja	 $LN9@ShowHideSu

; 354  : 	{
; 355  : 		CWnd *pWnd = GetDlgItem( IDC_CHECK_SHOW_GRAPH0 + nSubGraphIndex );

  00013	56		 push	 esi
  00014	8d 87 8c 23 00
	00		 lea	 eax, DWORD PTR [edi+9100]
  0001a	50		 push	 eax
  0001b	e8 00 00 00 00	 call	 ?GetDlgItem@CWnd@@QBEPAV1@H@Z ; CWnd::GetDlgItem

; 356  : 		if( pWnd) pWnd->ShowWindow( nCmdShow );

  00020	8b 75 0c	 mov	 esi, DWORD PTR _nCmdShow$[ebp]
  00023	85 c0		 test	 eax, eax
  00025	74 08		 je	 SHORT $LN3@ShowHideSu
  00027	56		 push	 esi
  00028	8b c8		 mov	 ecx, eax
  0002a	e8 00 00 00 00	 call	 ?ShowWindow@CWnd@@QAEHH@Z ; CWnd::ShowWindow
$LN3@ShowHideSu:

; 357  : 		pWnd = GetDlgItem( IDC_COND_GRAPH0 + nSubGraphIndex );

  0002f	8d 87 b4 23 00
	00		 lea	 eax, DWORD PTR [edi+9140]
  00035	8b cb		 mov	 ecx, ebx
  00037	50		 push	 eax
  00038	e8 00 00 00 00	 call	 ?GetDlgItem@CWnd@@QBEPAV1@H@Z ; CWnd::GetDlgItem

; 358  : 		if( pWnd) pWnd->ShowWindow( nCmdShow );

  0003d	85 c0		 test	 eax, eax
  0003f	74 08		 je	 SHORT $LN4@ShowHideSu
  00041	56		 push	 esi
  00042	8b c8		 mov	 ecx, eax
  00044	e8 00 00 00 00	 call	 ?ShowWindow@CWnd@@QAEHH@Z ; CWnd::ShowWindow
$LN4@ShowHideSu:

; 359  : 		pWnd = GetDlgItem( IDC_SPIN_COND0 + nSubGraphIndex );

  00049	8d 87 04 24 00
	00		 lea	 eax, DWORD PTR [edi+9220]
  0004f	8b cb		 mov	 ecx, ebx
  00051	50		 push	 eax
  00052	e8 00 00 00 00	 call	 ?GetDlgItem@CWnd@@QBEPAV1@H@Z ; CWnd::GetDlgItem

; 360  : 		if( pWnd) pWnd->ShowWindow( nCmdShow );

  00057	85 c0		 test	 eax, eax
  00059	74 08		 je	 SHORT $LN5@ShowHideSu
  0005b	56		 push	 esi
  0005c	8b c8		 mov	 ecx, eax
  0005e	e8 00 00 00 00	 call	 ?ShowWindow@CWnd@@QAEHH@Z ; CWnd::ShowWindow
$LN5@ShowHideSu:

; 361  : 		pWnd = GetDlgItem( IDC_CMB_CALCMETHOD0 + nSubGraphIndex );

  00063	8d 87 46 23 00
	00		 lea	 eax, DWORD PTR [edi+9030]
  00069	8b cb		 mov	 ecx, ebx
  0006b	50		 push	 eax
  0006c	e8 00 00 00 00	 call	 ?GetDlgItem@CWnd@@QBEPAV1@H@Z ; CWnd::GetDlgItem

; 362  : 		if( pWnd) pWnd->ShowWindow( nCmdShow );

  00071	85 c0		 test	 eax, eax
  00073	74 08		 je	 SHORT $LN6@ShowHideSu
  00075	56		 push	 esi
  00076	8b c8		 mov	 ecx, eax
  00078	e8 00 00 00 00	 call	 ?ShowWindow@CWnd@@QAEHH@Z ; CWnd::ShowWindow
$LN6@ShowHideSu:

; 363  : 		pWnd = GetDlgItem( IDC_COLOR_BUTTON0 + nSubGraphIndex );

  0007d	8d 87 2c 24 00
	00		 lea	 eax, DWORD PTR [edi+9260]
  00083	8b cb		 mov	 ecx, ebx
  00085	50		 push	 eax
  00086	e8 00 00 00 00	 call	 ?GetDlgItem@CWnd@@QBEPAV1@H@Z ; CWnd::GetDlgItem

; 364  : 		if( pWnd) pWnd->ShowWindow( nCmdShow );

  0008b	85 c0		 test	 eax, eax
  0008d	74 08		 je	 SHORT $LN7@ShowHideSu
  0008f	56		 push	 esi
  00090	8b c8		 mov	 ecx, eax
  00092	e8 00 00 00 00	 call	 ?ShowWindow@CWnd@@QAEHH@Z ; CWnd::ShowWindow
$LN7@ShowHideSu:

; 365  : 		pWnd = GetDlgItem( IDC_THICKNESS0 + nSubGraphIndex );

  00097	8d 87 dc 23 00
	00		 lea	 eax, DWORD PTR [edi+9180]
  0009d	8b cb		 mov	 ecx, ebx
  0009f	50		 push	 eax
  000a0	e8 00 00 00 00	 call	 ?GetDlgItem@CWnd@@QBEPAV1@H@Z ; CWnd::GetDlgItem

; 366  : 		if( pWnd) pWnd->ShowWindow( nCmdShow );

  000a5	85 c0		 test	 eax, eax
  000a7	74 08		 je	 SHORT $LN8@ShowHideSu
  000a9	56		 push	 esi
  000aa	8b c8		 mov	 ecx, eax
  000ac	e8 00 00 00 00	 call	 ?ShowWindow@CWnd@@QAEHH@Z ; CWnd::ShowWindow
$LN8@ShowHideSu:

; 367  : 		pWnd = GetDlgItem( IDC_DRAWSTYLE0 + nSubGraphIndex );

  000b1	8d 87 64 23 00
	00		 lea	 eax, DWORD PTR [edi+9060]
  000b7	8b cb		 mov	 ecx, ebx
  000b9	50		 push	 eax
  000ba	e8 00 00 00 00	 call	 ?GetDlgItem@CWnd@@QBEPAV1@H@Z ; CWnd::GetDlgItem

; 368  : 		if( pWnd) pWnd->ShowWindow( nCmdShow );

  000bf	85 c0		 test	 eax, eax
  000c1	74 08		 je	 SHORT $LN11@ShowHideSu
  000c3	56		 push	 esi
  000c4	8b c8		 mov	 ecx, eax
  000c6	e8 00 00 00 00	 call	 ?ShowWindow@CWnd@@QAEHH@Z ; CWnd::ShowWindow
$LN11@ShowHideSu:
  000cb	5e		 pop	 esi
$LN9@ShowHideSu:
  000cc	5f		 pop	 edi

; 369  : 	}
; 370  : }

  000cd	5b		 pop	 ebx
  000ce	5d		 pop	 ebp
  000cf	c2 08 00	 ret	 8
?ShowHideSubGraph@CSetting_VolumeMA_Condition@@QAEXHH@Z ENDP ; CSetting_VolumeMA_Condition::ShowHideSubGraph
_TEXT	ENDS
; Function compile flags: /Ogtp
; File D:\git\src\IBK\IBK_DRFN\ProjSrc\SrcChartEx\ChartAddIn\ChartEnvSetupDlgAddIn\ChartEnvSetupDlgAddIn\Setting_VolumeMA_Condition.cpp
; File C:\Program Files (x86)\Microsoft Visual Studio\2019\Community\VC\Tools\MSVC\14.29.30133\atlmfc\include\afxwin2.inl
; File D:\git\src\IBK\IBK_DRFN\ProjSrc\SrcChartEx\ChartAddIn\ChartEnvSetupDlgAddIn\ChartEnvSetupDlgAddIn\Setting_VolumeMA_Condition.cpp
; File C:\Program Files (x86)\Microsoft Visual Studio\2019\Community\VC\Tools\MSVC\14.29.30133\atlmfc\include\afxwin2.inl
; File D:\git\src\IBK\IBK_DRFN\ProjSrc\SrcChartEx\ChartAddIn\ChartEnvSetupDlgAddIn\ChartEnvSetupDlgAddIn\Setting_VolumeMA_Condition.cpp
;	COMDAT ?SetSubGraphCount@CSetting_VolumeMA_Condition@@QAEXH@Z
_TEXT	SEGMENT
_nSubGraphCount$ = 8					; size = 4
?SetSubGraphCount@CSetting_VolumeMA_Condition@@QAEXH@Z PROC ; CSetting_VolumeMA_Condition::SetSubGraphCount, COMDAT
; _this$ = ecx

; 220  : {

  00000	55		 push	 ebp
  00001	8b ec		 mov	 ebp, esp

; 221  : 	m_nSubGraphCount = nSubGraphCount;

  00003	8b 45 08	 mov	 eax, DWORD PTR _nSubGraphCount$[ebp]
; File C:\Program Files (x86)\Microsoft Visual Studio\2019\Community\VC\Tools\MSVC\14.29.30133\atlmfc\include\afxwin2.inl

; 192  : 	{ ASSERT(::IsWindow(m_hWnd)); ::ShowScrollBar(m_hWnd, nBar, bShow); }

  00006	6a 00		 push	 0
  00008	6a 01		 push	 1
  0000a	ff 71 20	 push	 DWORD PTR [ecx+32]
; File D:\git\src\IBK\IBK_DRFN\ProjSrc\SrcChartEx\ChartAddIn\ChartEnvSetupDlgAddIn\ChartEnvSetupDlgAddIn\Setting_VolumeMA_Condition.cpp

; 221  : 	m_nSubGraphCount = nSubGraphCount;

  0000d	89 81 28 26 00
	00		 mov	 DWORD PTR [ecx+9768], eax
; File C:\Program Files (x86)\Microsoft Visual Studio\2019\Community\VC\Tools\MSVC\14.29.30133\atlmfc\include\afxwin2.inl

; 192  : 	{ ASSERT(::IsWindow(m_hWnd)); ::ShowScrollBar(m_hWnd, nBar, bShow); }

  00013	ff 15 00 00 00
	00		 call	 DWORD PTR __imp__ShowScrollBar@12
; File D:\git\src\IBK\IBK_DRFN\ProjSrc\SrcChartEx\ChartAddIn\ChartEnvSetupDlgAddIn\ChartEnvSetupDlgAddIn\Setting_VolumeMA_Condition.cpp

; 224  : }

  00019	5d		 pop	 ebp
  0001a	c2 04 00	 ret	 4
?SetSubGraphCount@CSetting_VolumeMA_Condition@@QAEXH@Z ENDP ; CSetting_VolumeMA_Condition::SetSubGraphCount
_TEXT	ENDS
; Function compile flags: /Ogtp
; File D:\git\src\IBK\IBK_DRFN\ProjSrc\SrcChartEx\ChartAddIn\ChartEnvSetupDlgAddIn\ChartEnvSetupDlgAddIn\Setting_VolumeMA_Condition.cpp
;	COMDAT ?GetSubGraphCount@CSetting_VolumeMA_Condition@@QAEHXZ
_TEXT	SEGMENT
?GetSubGraphCount@CSetting_VolumeMA_Condition@@QAEHXZ PROC ; CSetting_VolumeMA_Condition::GetSubGraphCount, COMDAT
; _this$ = ecx

; 209  : 	return m_nSubGraphCount;

  00000	8b 81 28 26 00
	00		 mov	 eax, DWORD PTR [ecx+9768]

; 210  : }

  00006	c3		 ret	 0
?GetSubGraphCount@CSetting_VolumeMA_Condition@@QAEHXZ ENDP ; CSetting_VolumeMA_Condition::GetSubGraphCount
_TEXT	ENDS
; Function compile flags: /Ogtp
; File D:\git\src\IBK\IBK_DRFN\ProjSrc\SrcChartEx\ChartAddIn\ChartEnvSetupDlgAddIn\ChartEnvSetupDlgAddIn\Setting_VolumeMA_Condition.cpp
;	COMDAT ?GetCalcMethodCombo@CSetting_VolumeMA_Condition@@QAEPAVCComboBox@@H@Z
_TEXT	SEGMENT
_nSubGraphIndex$ = 8					; size = 4
?GetCalcMethodCombo@CSetting_VolumeMA_Condition@@QAEPAVCComboBox@@H@Z PROC ; CSetting_VolumeMA_Condition::GetCalcMethodCombo, COMDAT
; _this$ = ecx

; 333  : {

  00000	55		 push	 ebp
  00001	8b ec		 mov	 ebp, esp

; 334  : 	if( nSubGraphIndex >= 0 && nSubGraphIndex < VOLUME_MA_CONDITION_COUNT )

  00003	8b 45 08	 mov	 eax, DWORD PTR _nSubGraphIndex$[ebp]
  00006	83 f8 09	 cmp	 eax, 9
  00009	77 0e		 ja	 SHORT $LN2@GetCalcMet

; 335  : 		return (CComboBox *)GetDlgItem(IDC_CMB_CALCMETHOD0 + nSubGraphIndex );

  0000b	05 46 23 00 00	 add	 eax, 9030		; 00002346H
  00010	89 45 08	 mov	 DWORD PTR _nSubGraphIndex$[ebp], eax

; 338  : }

  00013	5d		 pop	 ebp

; 335  : 		return (CComboBox *)GetDlgItem(IDC_CMB_CALCMETHOD0 + nSubGraphIndex );

  00014	e9 00 00 00 00	 jmp	 ?GetDlgItem@CWnd@@QBEPAV1@H@Z ; CWnd::GetDlgItem
$LN2@GetCalcMet:

; 336  : 
; 337  : 	return (CComboBox *)GetDlgItem(IDC_CMB_CALCMETHOD0);

  00019	c7 45 08 46 23
	00 00		 mov	 DWORD PTR _nSubGraphIndex$[ebp], 9030 ; 00002346H

; 338  : }

  00020	5d		 pop	 ebp

; 336  : 
; 337  : 	return (CComboBox *)GetDlgItem(IDC_CMB_CALCMETHOD0);

  00021	e9 00 00 00 00	 jmp	 ?GetDlgItem@CWnd@@QBEPAV1@H@Z ; CWnd::GetDlgItem
?GetCalcMethodCombo@CSetting_VolumeMA_Condition@@QAEPAVCComboBox@@H@Z ENDP ; CSetting_VolumeMA_Condition::GetCalcMethodCombo
_TEXT	ENDS
; Function compile flags: /Ogtp
; File D:\git\src\IBK\IBK_DRFN\ProjSrc\SrcChartEx\ChartAddIn\ChartEnvSetupDlgAddIn\ChartEnvSetupDlgAddIn\Setting_VolumeMA_Condition.cpp
;	COMDAT ?GetThicknessCombo@CSetting_VolumeMA_Condition@@QAEPAVCBitmapItemComboBox@@H@Z
_TEXT	SEGMENT
_nSubGraphIndex$ = 8					; size = 4
?GetThicknessCombo@CSetting_VolumeMA_Condition@@QAEPAVCBitmapItemComboBox@@H@Z PROC ; CSetting_VolumeMA_Condition::GetThicknessCombo, COMDAT
; _this$ = ecx

; 309  : {

  00000	55		 push	 ebp
  00001	8b ec		 mov	 ebp, esp

