; Listing generated by Microsoft (R) Optimizing Compiler Version 19.29.30145.0 

	TITLE	D:\git\src\IBK\IBK_DRFN\#DRfn-CS\_Obj\ChartEnvSetupDlgAddIn\Setting_Common_Type_A.obj
	.686P
	.XMM
	include listing.inc
	.model	flat

INCLUDELIB MSVCRT
INCLUDELIB OLDNAMES

PUBLIC	??_C@_01GBGANLPD@0@				; `string'
PUBLIC	??_C@_01HIHLOKLC@1@				; `string'
PUBLIC	??_C@_01FDFGLJHB@2@				; `string'
PUBLIC	??_C@_01EKENIIDA@3@				; `string'
PUBLIC	??_C@_01FAMBOPH@4@				; `string'
PUBLIC	??_C@_01BMBHCPLG@5@				; `string'
PUBLIC	??_C@_01DHDKHMHF@6@				; `string'
PUBLIC	??_C@_01COCBENDE@7@				; `string'
PUBLIC	??_C@_01KJLJFBPL@8@				; `string'
PUBLIC	??_C@_01LAKCGALK@9@				; `string'
PUBLIC	??_C@_02PKFBJPLJ@10@				; `string'
PUBLIC	??_C@_02ODEKKOPI@11@				; `string'
PUBLIC	??_C@_02MIGHPNDL@12@				; `string'
PUBLIC	??_C@_02NBHMMMHK@13@				; `string'
PUBLIC	??_C@_02JODNFKLN@14@				; `string'
PUBLIC	??_C@_02IHCGGLPM@15@				; `string'
PUBLIC	??_C@_02KMALDIDP@16@				; `string'
PUBLIC	??_C@_02LFBAAJHO@17@				; `string'
PUBLIC	??_C@_02DCIIBFLB@18@				; `string'
PUBLIC	??_C@_02CLJDCEPA@19@				; `string'
PUBLIC	??_C@_02PIBHCBOA@20@				; `string'
PUBLIC	??_C@_02OBAMBAKB@21@				; `string'
PUBLIC	??_C@_02MKCBEDGC@22@				; `string'
PUBLIC	??_C@_02NDDKHCCD@23@				; `string'
PUBLIC	??_C@_02JMHLOEOE@24@				; `string'
;	COMDAT ??_C@_02JMHLOEOE@24@
CONST	SEGMENT
??_C@_02JMHLOEOE@24@ DB '24', 00H			; `string'
CONST	ENDS
;	COMDAT ??_C@_02NDDKHCCD@23@
CONST	SEGMENT
??_C@_02NDDKHCCD@23@ DB '23', 00H			; `string'
CONST	ENDS
;	COMDAT ??_C@_02MKCBEDGC@22@
CONST	SEGMENT
??_C@_02MKCBEDGC@22@ DB '22', 00H			; `string'
CONST	ENDS
;	COMDAT ??_C@_02OBAMBAKB@21@
CONST	SEGMENT
??_C@_02OBAMBAKB@21@ DB '21', 00H			; `string'
CONST	ENDS
;	COMDAT ??_C@_02PIBHCBOA@20@
CONST	SEGMENT
??_C@_02PIBHCBOA@20@ DB '20', 00H			; `string'
CONST	ENDS
;	COMDAT ??_C@_02CLJDCEPA@19@
CONST	SEGMENT
??_C@_02CLJDCEPA@19@ DB '19', 00H			; `string'
CONST	ENDS
;	COMDAT ??_C@_02DCIIBFLB@18@
CONST	SEGMENT
??_C@_02DCIIBFLB@18@ DB '18', 00H			; `string'
CONST	ENDS
;	COMDAT ??_C@_02LFBAAJHO@17@
CONST	SEGMENT
??_C@_02LFBAAJHO@17@ DB '17', 00H			; `string'
CONST	ENDS
;	COMDAT ??_C@_02KMALDIDP@16@
CONST	SEGMENT
??_C@_02KMALDIDP@16@ DB '16', 00H			; `string'
CONST	ENDS
;	COMDAT ??_C@_02IHCGGLPM@15@
CONST	SEGMENT
??_C@_02IHCGGLPM@15@ DB '15', 00H			; `string'
CONST	ENDS
;	COMDAT ??_C@_02JODNFKLN@14@
CONST	SEGMENT
??_C@_02JODNFKLN@14@ DB '14', 00H			; `string'
CONST	ENDS
;	COMDAT ??_C@_02NBHMMMHK@13@
CONST	SEGMENT
??_C@_02NBHMMMHK@13@ DB '13', 00H			; `string'
CONST	ENDS
;	COMDAT ??_C@_02MIGHPNDL@12@
CONST	SEGMENT
??_C@_02MIGHPNDL@12@ DB '12', 00H			; `string'
CONST	ENDS
;	COMDAT ??_C@_02ODEKKOPI@11@
CONST	SEGMENT
??_C@_02ODEKKOPI@11@ DB '11', 00H			; `string'
CONST	ENDS
;	COMDAT ??_C@_02PKFBJPLJ@10@
CONST	SEGMENT
??_C@_02PKFBJPLJ@10@ DB '10', 00H			; `string'
CONST	ENDS
;	COMDAT ??_C@_01LAKCGALK@9@
CONST	SEGMENT
??_C@_01LAKCGALK@9@ DB '9', 00H				; `string'
CONST	ENDS
;	COMDAT ??_C@_01KJLJFBPL@8@
CONST	SEGMENT
??_C@_01KJLJFBPL@8@ DB '8', 00H				; `string'
CONST	ENDS
;	COMDAT ??_C@_01COCBENDE@7@
CONST	SEGMENT
??_C@_01COCBENDE@7@ DB '7', 00H				; `string'
CONST	ENDS
;	COMDAT ??_C@_01DHDKHMHF@6@
CONST	SEGMENT
??_C@_01DHDKHMHF@6@ DB '6', 00H				; `string'
CONST	ENDS
;	COMDAT ??_C@_01BMBHCPLG@5@
CONST	SEGMENT
??_C@_01BMBHCPLG@5@ DB '5', 00H				; `string'
CONST	ENDS
;	COMDAT ??_C@_01FAMBOPH@4@
CONST	SEGMENT
??_C@_01FAMBOPH@4@ DB '4', 00H				; `string'
CONST	ENDS
;	COMDAT ??_C@_01EKENIIDA@3@
CONST	SEGMENT
??_C@_01EKENIIDA@3@ DB '3', 00H				; `string'
CONST	ENDS
;	COMDAT ??_C@_01FDFGLJHB@2@
CONST	SEGMENT
??_C@_01FDFGLJHB@2@ DB '2', 00H				; `string'
CONST	ENDS
;	COMDAT ??_C@_01HIHLOKLC@1@
CONST	SEGMENT
??_C@_01HIHLOKLC@1@ DB '1', 00H				; `string'
CONST	ENDS
;	COMDAT ??_C@_01GBGANLPD@0@
CONST	SEGMENT
??_C@_01GBGANLPD@0@ DB '0', 00H				; `string'
CONST	ENDS
PUBLIC	?__empty_global_delete@@YAXPAX@Z		; __empty_global_delete
PUBLIC	?__empty_global_delete@@YAXPAXI@Z		; __empty_global_delete
PUBLIC	?Serialize@CObject@@UAEXAAVCArchive@@@Z		; CObject::Serialize
PUBLIC	?AssertValid@CObject@@UBEXXZ			; CObject::AssertValid
PUBLIC	?Dump@CObject@@UBEXAAVCDumpContext@@@Z		; CObject::Dump
PUBLIC	?DoDataExchange@CWnd@@MAEXPAVCDataExchange@@@Z	; CWnd::DoDataExchange
PUBLIC	?BeginModalState@CWnd@@UAEXXZ			; CWnd::BeginModalState
PUBLIC	?EndModalState@CWnd@@UAEXXZ			; CWnd::EndModalState
PUBLIC	?Create@CDialog@@UAEHIPAVCWnd@@@Z		; CDialog::Create
PUBLIC	??_GCStatic@@UAEPAXI@Z				; CStatic::`scalar deleting destructor'
PUBLIC	??_GCButton@@UAEPAXI@Z				; CButton::`scalar deleting destructor'
PUBLIC	??_GCComboBox@@UAEPAXI@Z			; CComboBox::`scalar deleting destructor'
PUBLIC	??_GCEdit@@UAEPAXI@Z				; CEdit::`scalar deleting destructor'
PUBLIC	??1CCommonDialog@@UAE@XZ			; CCommonDialog::~CCommonDialog
PUBLIC	??_GCCommonDialog@@UAEPAXI@Z			; CCommonDialog::`scalar deleting destructor'
PUBLIC	??1CColorDialog@@UAE@XZ				; CColorDialog::~CColorDialog
PUBLIC	??_GCListCtrl@@UAEPAXI@Z			; CListCtrl::`scalar deleting destructor'
PUBLIC	??1ILPCSTR135914@@QAE@XZ			; ILPCSTR135914::~ILPCSTR135914
PUBLIC	??0CSetting_Common_Type_A@@QAE@PAUIChartOCX135914@@PAVCWnd@@1@Z ; CSetting_Common_Type_A::CSetting_Common_Type_A
PUBLIC	??1CSetting_Common_Type_A@@UAE@XZ		; CSetting_Common_Type_A::~CSetting_Common_Type_A
PUBLIC	?Initial@CSetting_Common_Type_A@@UAEXPAUIGraphInfo135914@@@Z ; CSetting_Common_Type_A::Initial
PUBLIC	?OnApply@CSetting_Common_Type_A@@UAEHPAUIGraphInfo135914@@@Z ; CSetting_Common_Type_A::OnApply
PUBLIC	?PreTranslateMessage@CSetting_Common_Type_A@@UAEHPAUtagMSG@@@Z ; CSetting_Common_Type_A::PreTranslateMessage
PUBLIC	?DoDataExchange@CSetting_Common_Type_A@@MAEXPAVCDataExchange@@@Z ; CSetting_Common_Type_A::DoDataExchange
PUBLIC	?UseValueGroup@CSetting_Common_Type_A@@AAEXH@Z	; CSetting_Common_Type_A::UseValueGroup
PUBLIC	?UseValue1@CSetting_Common_Type_A@@AAEXH@Z	; CSetting_Common_Type_A::UseValue1
PUBLIC	?UseValue2@CSetting_Common_Type_A@@AAEXH@Z	; CSetting_Common_Type_A::UseValue2
PUBLIC	?UseValue3@CSetting_Common_Type_A@@AAEXH@Z	; CSetting_Common_Type_A::UseValue3
PUBLIC	?UseValue4@CSetting_Common_Type_A@@AAEXH@Z	; CSetting_Common_Type_A::UseValue4
PUBLIC	?UseValue5@CSetting_Common_Type_A@@AAEXH@Z	; CSetting_Common_Type_A::UseValue5
PUBLIC	?UsePacketData@CSetting_Common_Type_A@@AAEX_N@Z	; CSetting_Common_Type_A::UsePacketData
PUBLIC	?UseCompositionGroup@CSetting_Common_Type_A@@AAEXH@Z ; CSetting_Common_Type_A::UseCompositionGroup
PUBLIC	?UseSubColorBtn@CSetting_Common_Type_A@@AAEXHV?$CStringT@DV?$StrTraitMFC_DLL@DV?$ChTraitsCRT@D@ATL@@@@@ATL@@H@Z ; CSetting_Common_Type_A::UseSubColorBtn
PUBLIC	?UseFillColorBtn@CSetting_Common_Type_A@@AAEXH@Z ; CSetting_Common_Type_A::UseFillColorBtn
PUBLIC	?UseBaseLineGroup@CSetting_Common_Type_A@@AAEXH@Z ; CSetting_Common_Type_A::UseBaseLineGroup
PUBLIC	?UseCompColorCtrl@CSetting_Common_Type_A@@AAEXH@Z ; CSetting_Common_Type_A::UseCompColorCtrl
PUBLIC	?CheckSpecialCond@CSetting_Common_Type_A@@AAEHPBD@Z ; CSetting_Common_Type_A::CheckSpecialCond
PUBLIC	?Init_Variable_Group_Title@CSetting_Common_Type_A@@AAEXH@Z ; CSetting_Common_Type_A::Init_Variable_Group_Title
PUBLIC	?Init_Composition_Group@CSetting_Common_Type_A@@AAEXXZ ; CSetting_Common_Type_A::Init_Composition_Group
PUBLIC	?Init_Composition_Group_SubGraphItem@CSetting_Common_Type_A@@AAEXXZ ; CSetting_Common_Type_A::Init_Composition_Group_SubGraphItem
PUBLIC	?Init_Composition_Group_SubGraphTitle@CSetting_Common_Type_A@@AAEXH@Z ; CSetting_Common_Type_A::Init_Composition_Group_SubGraphTitle
PUBLIC	?Init_Composition_Group_SubGraphLine@CSetting_Common_Type_A@@AAEXH@Z ; CSetting_Common_Type_A::Init_Composition_Group_SubGraphLine
PUBLIC	?Init_Composition_Group_SubGraphColor@CSetting_Common_Type_A@@AAEXH@Z ; CSetting_Common_Type_A::Init_Composition_Group_SubGraphColor
PUBLIC	?Init_Composition_Group_SubGraphColor_LineType@CSetting_Common_Type_A@@AAE_NH@Z ; CSetting_Common_Type_A::Init_Composition_Group_SubGraphColor_LineType
PUBLIC	?Init_Composition_Group_SubGraphColor_BoxType@CSetting_Common_Type_A@@AAE_NH@Z ; CSetting_Common_Type_A::Init_Composition_Group_SubGraphColor_BoxType
PUBLIC	?SetBottonColor@CSetting_Common_Type_A@@AAEXAAVCColorButton@@ABK@Z ; CSetting_Common_Type_A::SetBottonColor
PUBLIC	?Init_BaseLine_Group_Title@CSetting_Common_Type_A@@AAEXXZ ; CSetting_Common_Type_A::Init_BaseLine_Group_Title
PUBLIC	?Initial_Signal@CSetting_Common_Type_A@@AAEXPAUIGraphInfo135914@@@Z ; CSetting_Common_Type_A::Initial_Signal
PUBLIC	?Init_BarGraphCompareColor@CSetting_Common_Type_A@@AAEXXZ ; CSetting_Common_Type_A::Init_BarGraphCompareColor
PUBLIC	?Init_Composition_Group_BaseLine@CSetting_Common_Type_A@@AAEXH@Z ; CSetting_Common_Type_A::Init_Composition_Group_BaseLine
PUBLIC	?Initial_SubGraphData@CSetting_Common_Type_A@@AAEXH@Z ; CSetting_Common_Type_A::Initial_SubGraphData
PUBLIC	?OnApplySubGraphData@CSetting_Common_Type_A@@AAEXXZ ; CSetting_Common_Type_A::OnApplySubGraphData
PUBLIC	?OnApplyBaseLine@CSetting_Common_Type_A@@AAEXXZ	; CSetting_Common_Type_A::OnApplyBaseLine
PUBLIC	?OnApplySignal@CSetting_Common_Type_A@@AAEXPAUIGraphInfo135914@@@Z ; CSetting_Common_Type_A::OnApplySignal
PUBLIC	?OnApplyPaintStyle@CSetting_Common_Type_A@@AAEXXZ ; CSetting_Common_Type_A::OnApplyPaintStyle
PUBLIC	?DeleteString_ListBox@CSetting_Common_Type_A@@AAEXXZ ; CSetting_Common_Type_A::DeleteString_ListBox
PUBLIC	?GetFirstValue@CSetting_Common_Type_A@@AAENABV?$CStringT@DV?$StrTraitMFC_DLL@DV?$ChTraitsCRT@D@ATL@@@@@ATL@@@Z ; CSetting_Common_Type_A::GetFirstValue
PUBLIC	?IsShowBaseLineList@CSetting_Common_Type_A@@ABE_NXZ ; CSetting_Common_Type_A::IsShowBaseLineList
PUBLIC	?OnInitDialog@CSetting_Common_Type_A@@MAEHXZ	; CSetting_Common_Type_A::OnInitDialog
PUBLIC	?OnBtnCompositionColor@CSetting_Common_Type_A@@IAEXXZ ; CSetting_Common_Type_A::OnBtnCompositionColor
PUBLIC	?OnItemchangedListComposition@CSetting_Common_Type_A@@IAEXPAUtagNMHDR@@PAJ@Z ; CSetting_Common_Type_A::OnItemchangedListComposition
PUBLIC	?OnClickListComposition@CSetting_Common_Type_A@@IAEXPAUtagNMHDR@@PAJ@Z ; CSetting_Common_Type_A::OnClickListComposition
PUBLIC	?OnSelchangeCmbLinetype@CSetting_Common_Type_A@@IAEXXZ ; CSetting_Common_Type_A::OnSelchangeCmbLinetype
PUBLIC	?OnSelchangeCmbThickness@CSetting_Common_Type_A@@IAEXXZ ; CSetting_Common_Type_A::OnSelchangeCmbThickness
PUBLIC	?OnInsert@CSetting_Common_Type_A@@IAEXXZ	; CSetting_Common_Type_A::OnInsert
PUBLIC	?OnDelete@CSetting_Common_Type_A@@IAEXXZ	; CSetting_Common_Type_A::OnDelete
PUBLIC	?OnAlldelete@CSetting_Common_Type_A@@IAEXXZ	; CSetting_Common_Type_A::OnAlldelete
PUBLIC	?OnColorButton@CSetting_Common_Type_A@@IAEXXZ	; CSetting_Common_Type_A::OnColorButton
PUBLIC	?OnBtnUpColor@CSetting_Common_Type_A@@IAEXXZ	; CSetting_Common_Type_A::OnBtnUpColor
PUBLIC	?OnBtnDownColor@CSetting_Common_Type_A@@IAEXXZ	; CSetting_Common_Type_A::OnBtnDownColor
PUBLIC	?OnBtnSteadyColor@CSetting_Common_Type_A@@IAEXXZ ; CSetting_Common_Type_A::OnBtnSteadyColor
PUBLIC	?OnBtnUp1@CSetting_Common_Type_A@@IAEXXZ	; CSetting_Common_Type_A::OnBtnUp1
PUBLIC	?OnBtnDown1@CSetting_Common_Type_A@@IAEXXZ	; CSetting_Common_Type_A::OnBtnDown1
PUBLIC	?OnChkFillColor@CSetting_Common_Type_A@@IAEXXZ	; CSetting_Common_Type_A::OnChkFillColor
PUBLIC	?OnSelchangeCmbThickness2@CSetting_Common_Type_A@@IAEXXZ ; CSetting_Common_Type_A::OnSelchangeCmbThickness2
PUBLIC	?OnSelchangeCmbLinetype2@CSetting_Common_Type_A@@IAEXXZ ; CSetting_Common_Type_A::OnSelchangeCmbLinetype2
PUBLIC	?OnSelchangeHorizontalList@CSetting_Common_Type_A@@IAEXXZ ; CSetting_Common_Type_A::OnSelchangeHorizontalList
PUBLIC	?GetThisMessageMap@CSetting_Common_Type_A@@KGPBUAFX_MSGMAP@@XZ ; CSetting_Common_Type_A::GetThisMessageMap
PUBLIC	?GetMessageMap@CSetting_Common_Type_A@@MBEPBUAFX_MSGMAP@@XZ ; CSetting_Common_Type_A::GetMessageMap
PUBLIC	??_GCSetting_Common_Type_A@@UAEPAXI@Z		; CSetting_Common_Type_A::`scalar deleting destructor'
PUBLIC	??_C@_00CNPNBAHC@@				; `string'
PUBLIC	??_7CStatic@@6B@				; CStatic::`vftable'
PUBLIC	??_7CButton@@6B@				; CButton::`vftable'
PUBLIC	??_7CComboBox@@6B@				; CComboBox::`vftable'
PUBLIC	??_7CEdit@@6B@					; CEdit::`vftable'
PUBLIC	??_7CCommonDialog@@6B@				; CCommonDialog::`vftable'
PUBLIC	??_7CListCtrl@@6B@				; CListCtrl::`vftable'
PUBLIC	??_R0?AVCObject@@@8				; CObject `RTTI Type Descriptor'
PUBLIC	??_R3CObject@@8					; CObject::`RTTI Class Hierarchy Descriptor'
PUBLIC	??_R2CObject@@8					; CObject::`RTTI Base Class Array'
PUBLIC	??_R1A@?0A@EA@CObject@@8			; CObject::`RTTI Base Class Descriptor at (0,-1,0,64)'
PUBLIC	??_R4CStatic@@6B@				; CStatic::`RTTI Complete Object Locator'
PUBLIC	??_R0?AVCStatic@@@8				; CStatic `RTTI Type Descriptor'
PUBLIC	??_R3CStatic@@8					; CStatic::`RTTI Class Hierarchy Descriptor'
PUBLIC	??_R2CStatic@@8					; CStatic::`RTTI Base Class Array'
PUBLIC	??_R1A@?0A@EA@CStatic@@8			; CStatic::`RTTI Base Class Descriptor at (0,-1,0,64)'
PUBLIC	??_R1A@?0A@EA@CWnd@@8				; CWnd::`RTTI Base Class Descriptor at (0,-1,0,64)'
PUBLIC	??_R0?AVCWnd@@@8				; CWnd `RTTI Type Descriptor'
PUBLIC	??_R3CWnd@@8					; CWnd::`RTTI Class Hierarchy Descriptor'
PUBLIC	??_R2CWnd@@8					; CWnd::`RTTI Base Class Array'
PUBLIC	??_R1A@?0A@EA@CCmdTarget@@8			; CCmdTarget::`RTTI Base Class Descriptor at (0,-1,0,64)'
PUBLIC	??_R0?AVCCmdTarget@@@8				; CCmdTarget `RTTI Type Descriptor'
PUBLIC	??_R3CCmdTarget@@8				; CCmdTarget::`RTTI Class Hierarchy Descriptor'
PUBLIC	??_R2CCmdTarget@@8				; CCmdTarget::`RTTI Base Class Array'
PUBLIC	??_R4CButton@@6B@				; CButton::`RTTI Complete Object Locator'
PUBLIC	??_R0?AVCButton@@@8				; CButton `RTTI Type Descriptor'
PUBLIC	??_R3CButton@@8					; CButton::`RTTI Class Hierarchy Descriptor'
PUBLIC	??_R2CButton@@8					; CButton::`RTTI Base Class Array'
PUBLIC	??_R1A@?0A@EA@CButton@@8			; CButton::`RTTI Base Class Descriptor at (0,-1,0,64)'
PUBLIC	??_R4CComboBox@@6B@				; CComboBox::`RTTI Complete Object Locator'
PUBLIC	??_R0?AVCComboBox@@@8				; CComboBox `RTTI Type Descriptor'
PUBLIC	??_R3CComboBox@@8				; CComboBox::`RTTI Class Hierarchy Descriptor'
PUBLIC	??_R2CComboBox@@8				; CComboBox::`RTTI Base Class Array'
PUBLIC	??_R1A@?0A@EA@CComboBox@@8			; CComboBox::`RTTI Base Class Descriptor at (0,-1,0,64)'
PUBLIC	??_R4CEdit@@6B@					; CEdit::`RTTI Complete Object Locator'
PUBLIC	??_R0?AVCEdit@@@8				; CEdit `RTTI Type Descriptor'
PUBLIC	??_R3CEdit@@8					; CEdit::`RTTI Class Hierarchy Descriptor'
PUBLIC	??_R2CEdit@@8					; CEdit::`RTTI Base Class Array'
PUBLIC	??_R1A@?0A@EA@CEdit@@8				; CEdit::`RTTI Base Class Descriptor at (0,-1,0,64)'
PUBLIC	??_R4CCommonDialog@@6B@				; CCommonDialog::`RTTI Complete Object Locator'
PUBLIC	??_R0?AVCCommonDialog@@@8			; CCommonDialog `RTTI Type Descriptor'
PUBLIC	??_R3CCommonDialog@@8				; CCommonDialog::`RTTI Class Hierarchy Descriptor'
PUBLIC	??_R2CCommonDialog@@8				; CCommonDialog::`RTTI Base Class Array'
PUBLIC	??_R1A@?0A@EA@CCommonDialog@@8			; CCommonDialog::`RTTI Base Class Descriptor at (0,-1,0,64)'
PUBLIC	??_R1A@?0A@EA@CDialog@@8			; CDialog::`RTTI Base Class Descriptor at (0,-1,0,64)'
PUBLIC	??_R0?AVCDialog@@@8				; CDialog `RTTI Type Descriptor'
PUBLIC	??_R3CDialog@@8					; CDialog::`RTTI Class Hierarchy Descriptor'
PUBLIC	??_R2CDialog@@8					; CDialog::`RTTI Base Class Array'
PUBLIC	??_R4CListCtrl@@6B@				; CListCtrl::`RTTI Complete Object Locator'
PUBLIC	??_R0?AVCListCtrl@@@8				; CListCtrl `RTTI Type Descriptor'
PUBLIC	??_R3CListCtrl@@8				; CListCtrl::`RTTI Class Hierarchy Descriptor'
PUBLIC	??_R2CListCtrl@@8				; CListCtrl::`RTTI Base Class Array'
PUBLIC	??_R1A@?0A@EA@CListCtrl@@8			; CListCtrl::`RTTI Base Class Descriptor at (0,-1,0,64)'
PUBLIC	??_7CSetting_Common_Type_A@@6B@			; CSetting_Common_Type_A::`vftable'
PUBLIC	??_C@_01IHBHIGKO@?0@				; `string'
PUBLIC	??_C@_0CI@DCNEOPPA@?$MA?T?$LH?B?$LF?H?5?$LJ?$KO?$MA?Z?$LP?$KN?$MA?L?5?$LO?K?$LI?B?$MA?$LK?5?A?x?$LJ?$PN?$MA?L?5?$LO@ ; `string'
PUBLIC	??_R4CSetting_Common_Type_A@@6B@		; CSetting_Common_Type_A::`RTTI Complete Object Locator'
PUBLIC	??_R0?AVCSetting_Common_Type_A@@@8		; CSetting_Common_Type_A `RTTI Type Descriptor'
PUBLIC	??_R3CSetting_Common_Type_A@@8			; CSetting_Common_Type_A::`RTTI Class Hierarchy Descriptor'
PUBLIC	??_R2CSetting_Common_Type_A@@8			; CSetting_Common_Type_A::`RTTI Base Class Array'
PUBLIC	??_R1A@?0A@EA@CSetting_Common_Type_A@@8		; CSetting_Common_Type_A::`RTTI Base Class Descriptor at (0,-1,0,64)'
PUBLIC	??_R1A@?0A@EA@CBaseDialog@@8			; CBaseDialog::`RTTI Base Class Descriptor at (0,-1,0,64)'
PUBLIC	??_R0?AVCBaseDialog@@@8				; CBaseDialog `RTTI Type Descriptor'
PUBLIC	??_R3CBaseDialog@@8				; CBaseDialog::`RTTI Class Hierarchy Descriptor'
PUBLIC	??_R2CBaseDialog@@8				; CBaseDialog::`RTTI Base Class Array'
EXTRN	??3@YAXPAX@Z:PROC				; operator delete
EXTRN	?__global_delete@@YAXPAXI@Z:PROC		; __global_delete
EXTRN	___std_terminate:PROC
EXTRN	__imp__SendMessageA@16:PROC
EXTRN	__imp__IsWindowVisible@4:PROC
EXTRN	__imp__EnableWindow@8:PROC
EXTRN	__imp__InvalidateRect@12:PROC
EXTRN	__imp__atof:PROC
EXTRN	__imp_??0?$CStringT@DV?$StrTraitMFC_DLL@DV?$ChTraitsCRT@D@ATL@@@@@ATL@@QAE@XZ:PROC
EXTRN	__imp_??0?$CStringT@DV?$StrTraitMFC_DLL@DV?$ChTraitsCRT@D@ATL@@@@@ATL@@QAE@ABV01@@Z:PROC
EXTRN	__imp_??0?$CStringT@DV?$StrTraitMFC_DLL@DV?$ChTraitsCRT@D@ATL@@@@@ATL@@QAE@PBD@Z:PROC
EXTRN	__imp_??1?$CStringT@DV?$StrTraitMFC_DLL@DV?$ChTraitsCRT@D@ATL@@@@@ATL@@QAE@XZ:PROC
EXTRN	__imp_??4?$CStringT@DV?$StrTraitMFC_DLL@DV?$ChTraitsCRT@D@ATL@@@@@ATL@@QAEAAV01@ABV01@@Z:PROC
EXTRN	__imp_??4?$CStringT@DV?$StrTraitMFC_DLL@DV?$ChTraitsCRT@D@ATL@@@@@ATL@@QAEAAV01@PBD@Z:PROC
EXTRN	__imp_?Compare@?$CStringT@DV?$StrTraitMFC_DLL@DV?$ChTraitsCRT@D@ATL@@@@@ATL@@QBEHPBD@Z:PROC
EXTRN	__imp_?Replace@?$CStringT@DV?$StrTraitMFC_DLL@DV?$ChTraitsCRT@D@ATL@@@@@ATL@@QAEHDD@Z:PROC
EXTRN	__imp_?Remove@?$CStringT@DV?$StrTraitMFC_DLL@DV?$ChTraitsCRT@D@ATL@@@@@ATL@@QAEHD@Z:PROC
EXTRN	__imp_?TrimRight@?$CStringT@DV?$StrTraitMFC_DLL@DV?$ChTraitsCRT@D@ATL@@@@@ATL@@QAEAAV12@XZ:PROC
EXTRN	__imp_?TrimLeft@?$CStringT@DV?$StrTraitMFC_DLL@DV?$ChTraitsCRT@D@ATL@@@@@ATL@@QAEAAV12@XZ:PROC
EXTRN	__imp_?LoadStringA@?$CStringT@DV?$StrTraitMFC_DLL@DV?$ChTraitsCRT@D@ATL@@@@@ATL@@QAEHI@Z:PROC
EXTRN	?DDX_Text@@YGXPAVCDataExchange@@HAAV?$CStringT@DV?$StrTraitMFC_DLL@DV?$ChTraitsCRT@D@ATL@@@@@ATL@@@Z:PROC ; DDX_Text
EXTRN	?DDX_Control@@YGXPAVCDataExchange@@HAAVCWnd@@@Z:PROC ; DDX_Control
EXTRN	?OnCmdMsg@CCmdTarget@@UAEHIHPAXPAUAFX_CMDHANDLERINFO@@@Z:PROC ; CCmdTarget::OnCmdMsg
EXTRN	?IsInvokeAllowed@CCmdTarget@@UAEHJ@Z:PROC	; CCmdTarget::IsInvokeAllowed
EXTRN	?GetDispatchIID@CCmdTarget@@UAEHPAU_GUID@@@Z:PROC ; CCmdTarget::GetDispatchIID
EXTRN	?GetTypeInfoCount@CCmdTarget@@UAEIXZ:PROC	; CCmdTarget::GetTypeInfoCount
EXTRN	?GetTypeLibCache@CCmdTarget@@UAEPAVCTypeLibCache@@XZ:PROC ; CCmdTarget::GetTypeLibCache
EXTRN	?GetTypeLib@CCmdTarget@@UAEJKPAPAUITypeLib@@@Z:PROC ; CCmdTarget::GetTypeLib
EXTRN	?GetCommandMap@CCmdTarget@@MBEPBUAFX_OLECMDMAP@@XZ:PROC ; CCmdTarget::GetCommandMap
EXTRN	?GetDispatchMap@CCmdTarget@@MBEPBUAFX_DISPMAP@@XZ:PROC ; CCmdTarget::GetDispatchMap
EXTRN	?GetConnectionMap@CCmdTarget@@MBEPBUAFX_CONNECTIONMAP@@XZ:PROC ; CCmdTarget::GetConnectionMap
EXTRN	?GetEventSinkMap@CCmdTarget@@MBEPBUAFX_EVENTSINKMAP@@XZ:PROC ; CCmdTarget::GetEventSinkMap
EXTRN	?OnCreateAggregates@CCmdTarget@@UAEHXZ:PROC	; CCmdTarget::OnCreateAggregates
EXTRN	?GetInterfaceHook@CCmdTarget@@UAEPAUIUnknown@@PBX@Z:PROC ; CCmdTarget::GetInterfaceHook
EXTRN	?GetExtraConnectionPoints@CCmdTarget@@MAEHPAVCPtrArray@@@Z:PROC ; CCmdTarget::GetExtraConnectionPoints
EXTRN	?GetConnectionHook@CCmdTarget@@MAEPAUIConnectionPoint@@ABU_GUID@@@Z:PROC ; CCmdTarget::GetConnectionHook
EXTRN	??0CWnd@@QAE@XZ:PROC				; CWnd::CWnd
EXTRN	?PreSubclassWindow@CWnd@@UAEXXZ:PROC		; CWnd::PreSubclassWindow
EXTRN	?Create@CWnd@@UAEHPBD0KABUtagRECT@@PAV1@IPAUCCreateContext@@@Z:PROC ; CWnd::Create
EXTRN	?CreateEx@CWnd@@UAEHKPBD0KHHHHPAUHWND__@@PAUHMENU__@@PAX@Z:PROC ; CWnd::CreateEx
EXTRN	?CreateEx@CWnd@@UAEHKPBD0KABUtagRECT@@PAV1@IPAX@Z:PROC ; CWnd::CreateEx
EXTRN	?DestroyWindow@CWnd@@UAEHXZ:PROC		; CWnd::DestroyWindow
EXTRN	?PreCreateWindow@CWnd@@UAEHAAUtagCREATESTRUCTA@@@Z:PROC ; CWnd::PreCreateWindow
EXTRN	?CalcWindowRect@CWnd@@UAEXPAUtagRECT@@I@Z:PROC	; CWnd::CalcWindowRect
EXTRN	?GetDlgItem@CWnd@@QBEPAV1@H@Z:PROC		; CWnd::GetDlgItem
EXTRN	?SetWindowTextA@CWnd@@QAEXPBD@Z:PROC		; CWnd::SetWindowTextA
EXTRN	?GetWindowTextA@CWnd@@QBEXAAV?$CStringT@DV?$StrTraitMFC_DLL@DV?$ChTraitsCRT@D@ATL@@@@@ATL@@@Z:PROC ; CWnd::GetWindowTextA
EXTRN	?GetMenu@CWnd@@UBEPAVCMenu@@XZ:PROC		; CWnd::GetMenu
EXTRN	?SetMenu@CWnd@@UAEHPAVCMenu@@@Z:PROC		; CWnd::SetMenu
EXTRN	?ShowWindow@CWnd@@QAEHH@Z:PROC			; CWnd::ShowWindow
EXTRN	?OnToolHitTest@CWnd@@UBEHVCPoint@@PAUtagTOOLINFOA@@@Z:PROC ; CWnd::OnToolHitTest
EXTRN	?EnableWindow@CWnd@@QAEHH@Z:PROC		; CWnd::EnableWindow
EXTRN	?SetFocus@CWnd@@QAEPAV1@XZ:PROC			; CWnd::SetFocus
EXTRN	?GetScrollBarCtrl@CWnd@@UBEPAVCScrollBar@@H@Z:PROC ; CWnd::GetScrollBarCtrl
EXTRN	?UpdateData@CWnd@@QAEHH@Z:PROC			; CWnd::UpdateData
EXTRN	?WinHelpA@CWnd@@UAEXKI@Z:PROC			; CWnd::WinHelpA
EXTRN	?HtmlHelpA@CWnd@@UAEXKI@Z:PROC			; CWnd::HtmlHelpA
EXTRN	?WinHelpInternal@CWnd@@UAEXKI@Z:PROC		; CWnd::WinHelpInternal
EXTRN	?ContinueModal@CWnd@@UAEHXZ:PROC		; CWnd::ContinueModal
EXTRN	?EndModalLoop@CWnd@@UAEXH@Z:PROC		; CWnd::EndModalLoop
EXTRN	?OnDrawIconicThumbnailOrLivePreview@CWnd@@UAEXAAVCDC@@VCRect@@VCSize@@HAAH@Z:PROC ; CWnd::OnDrawIconicThumbnailOrLivePreview
EXTRN	?GetInterfaceMap@CWnd@@MBEPBUAFX_INTERFACEMAP@@XZ:PROC ; CWnd::GetInterfaceMap
EXTRN	?EnsureStdObj@CWnd@@UAEJXZ:PROC			; CWnd::EnsureStdObj
EXTRN	?get_accParent@CWnd@@UAEJPAPAUIDispatch@@@Z:PROC ; CWnd::get_accParent
EXTRN	?get_accChildCount@CWnd@@UAEJPAJ@Z:PROC		; CWnd::get_accChildCount
EXTRN	?get_accChild@CWnd@@UAEJUtagVARIANT@@PAPAUIDispatch@@@Z:PROC ; CWnd::get_accChild
EXTRN	?get_accName@CWnd@@UAEJUtagVARIANT@@PAPA_W@Z:PROC ; CWnd::get_accName
EXTRN	?get_accValue@CWnd@@UAEJUtagVARIANT@@PAPA_W@Z:PROC ; CWnd::get_accValue
EXTRN	?get_accDescription@CWnd@@UAEJUtagVARIANT@@PAPA_W@Z:PROC ; CWnd::get_accDescription
EXTRN	?get_accRole@CWnd@@UAEJUtagVARIANT@@PAU2@@Z:PROC ; CWnd::get_accRole
EXTRN	?get_accState@CWnd@@UAEJUtagVARIANT@@PAU2@@Z:PROC ; CWnd::get_accState
EXTRN	?get_accHelp@CWnd@@UAEJUtagVARIANT@@PAPA_W@Z:PROC ; CWnd::get_accHelp
EXTRN	?get_accHelpTopic@CWnd@@UAEJPAPA_WUtagVARIANT@@PAJ@Z:PROC ; CWnd::get_accHelpTopic
EXTRN	?get_accKeyboardShortcut@CWnd@@UAEJUtagVARIANT@@PAPA_W@Z:PROC ; CWnd::get_accKeyboardShortcut
EXTRN	?get_accFocus@CWnd@@UAEJPAUtagVARIANT@@@Z:PROC	; CWnd::get_accFocus
EXTRN	?get_accSelection@CWnd@@UAEJPAUtagVARIANT@@@Z:PROC ; CWnd::get_accSelection
EXTRN	?get_accDefaultAction@CWnd@@UAEJUtagVARIANT@@PAPA_W@Z:PROC ; CWnd::get_accDefaultAction
EXTRN	?accSelect@CWnd@@UAEJJUtagVARIANT@@@Z:PROC	; CWnd::accSelect
EXTRN	?accLocation@CWnd@@UAEJPAJ000UtagVARIANT@@@Z:PROC ; CWnd::accLocation
EXTRN	?accNavigate@CWnd@@UAEJJUtagVARIANT@@PAU2@@Z:PROC ; CWnd::accNavigate
EXTRN	?accHitTest@CWnd@@UAEJJJPAUtagVARIANT@@@Z:PROC	; CWnd::accHitTest
EXTRN	?accDoDefaultAction@CWnd@@UAEJUtagVARIANT@@@Z:PROC ; CWnd::accDoDefaultAction
EXTRN	?put_accName@CWnd@@UAEJUtagVARIANT@@PA_W@Z:PROC	; CWnd::put_accName
EXTRN	?put_accValue@CWnd@@UAEJUtagVARIANT@@PA_W@Z:PROC ; CWnd::put_accValue
EXTRN	?SetProxy@CWnd@@UAEJPAUIAccessibleProxy@@@Z:PROC ; CWnd::SetProxy
EXTRN	?CreateAccessibleProxy@CWnd@@UAEJIJPAJ@Z:PROC	; CWnd::CreateAccessibleProxy
EXTRN	?OnCommand@CWnd@@MAEHIJ@Z:PROC			; CWnd::OnCommand
EXTRN	?OnNotify@CWnd@@MAEHIJPAJ@Z:PROC		; CWnd::OnNotify
EXTRN	?GetSuperWndProcAddr@CWnd@@MAEPAP6GJPAUHWND__@@IIJ@ZXZ:PROC ; CWnd::GetSuperWndProcAddr
EXTRN	?PreTranslateMessage@CWnd@@UAEHPAUtagMSG@@@Z:PROC ; CWnd::PreTranslateMessage
EXTRN	?OnAmbientProperty@CWnd@@UAEHPAVCOleControlSite@@JPAUtagVARIANT@@@Z:PROC ; CWnd::OnAmbientProperty
EXTRN	?WindowProc@CWnd@@MAEJIIJ@Z:PROC		; CWnd::WindowProc
EXTRN	?OnWndMsg@CWnd@@MAEHIIJPAJ@Z:PROC		; CWnd::OnWndMsg
EXTRN	?DefWindowProcA@CWnd@@MAEJIIJ@Z:PROC		; CWnd::DefWindowProcA
EXTRN	?PostNcDestroy@CWnd@@MAEXXZ:PROC		; CWnd::PostNcDestroy
EXTRN	?OnChildNotify@CWnd@@MAEHIIJPAJ@Z:PROC		; CWnd::OnChildNotify
EXTRN	?OnTouchInputs@CWnd@@MAEHIPAUtagTOUCHINPUT@@@Z:PROC ; CWnd::OnTouchInputs
EXTRN	?OnTouchInput@CWnd@@MAEHVCPoint@@HHPAUtagTOUCHINPUT@@@Z:PROC ; CWnd::OnTouchInput
EXTRN	?GetGestureStatus@CWnd@@MAEKVCPoint@@@Z:PROC	; CWnd::GetGestureStatus
EXTRN	?OnGestureZoom@CWnd@@MAEHVCPoint@@J@Z:PROC	; CWnd::OnGestureZoom
EXTRN	?OnGesturePan@CWnd@@MAEHVCPoint@@0@Z:PROC	; CWnd::OnGesturePan
EXTRN	?OnGestureRotate@CWnd@@MAEHVCPoint@@N@Z:PROC	; CWnd::OnGestureRotate
EXTRN	?OnGestureTwoFingerTap@CWnd@@MAEHVCPoint@@@Z:PROC ; CWnd::OnGestureTwoFingerTap
EXTRN	?OnGesturePressAndTap@CWnd@@MAEHVCPoint@@J@Z:PROC ; CWnd::OnGesturePressAndTap
EXTRN	?ResizeDynamicLayout@CWnd@@MAEXXZ:PROC		; CWnd::ResizeDynamicLayout
EXTRN	?CheckAutoCenter@CWnd@@UAEHXZ:PROC		; CWnd::CheckAutoCenter
EXTRN	?IsFrameWnd@CWnd@@UBEHXZ:PROC			; CWnd::IsFrameWnd
EXTRN	?OnFinalRelease@CWnd@@UAEXXZ:PROC		; CWnd::OnFinalRelease
EXTRN	?CreateControlContainer@CWnd@@MAEHPAPAVCOleControlContainer@@@Z:PROC ; CWnd::CreateControlContainer
EXTRN	?CreateControlSite@CWnd@@MAEHPAVCOleControlContainer@@PAPAVCOleControlSite@@IABU_GUID@@@Z:PROC ; CWnd::CreateControlSite
EXTRN	?SetOccDialogInfo@CWnd@@MAEHPAU_AFX_OCC_DIALOG_INFO@@@Z:PROC ; CWnd::SetOccDialogInfo
EXTRN	?GetOccDialogInfo@CWnd@@MAEPAU_AFX_OCC_DIALOG_INFO@@XZ:PROC ; CWnd::GetOccDialogInfo
EXTRN	?GetMessageMap@CWnd@@MBEPBUAFX_MSGMAP@@XZ:PROC	; CWnd::GetMessageMap
EXTRN	?GetRuntimeClass@CDialog@@UBEPAUCRuntimeClass@@XZ:PROC ; CDialog::GetRuntimeClass
EXTRN	?Create@CDialog@@UAEHPBDPAVCWnd@@@Z:PROC	; CDialog::Create
EXTRN	?CreateIndirect@CDialog@@UAEHPBUDLGTEMPLATE@@PAVCWnd@@PAX@Z:PROC ; CDialog::CreateIndirect
EXTRN	?CreateIndirect@CDialog@@UAEHPAXPAVCWnd@@@Z:PROC ; CDialog::CreateIndirect
EXTRN	?DoModal@CDialog@@UAEHXZ:PROC			; CDialog::DoModal
EXTRN	?OnInitDialog@CDialog@@UAEHXZ:PROC		; CDialog::OnInitDialog
EXTRN	?OnSetFont@CDialog@@UAEXPAVCFont@@@Z:PROC	; CDialog::OnSetFont
EXTRN	?OnOK@CDialog@@MAEXXZ:PROC			; CDialog::OnOK
EXTRN	?OnCancel@CDialog@@MAEXXZ:PROC			; CDialog::OnCancel
EXTRN	??1CDialog@@UAE@XZ:PROC				; CDialog::~CDialog
EXTRN	?PreTranslateMessage@CDialog@@UAEHPAUtagMSG@@@Z:PROC ; CDialog::PreTranslateMessage
EXTRN	?OnCmdMsg@CDialog@@UAEHIHPAXPAUAFX_CMDHANDLERINFO@@@Z:PROC ; CDialog::OnCmdMsg
EXTRN	?CheckAutoCenter@CDialog@@UAEHXZ:PROC		; CDialog::CheckAutoCenter
EXTRN	?SetOccDialogInfo@CDialog@@MAEHPAU_AFX_OCC_DIALOG_INFO@@@Z:PROC ; CDialog::SetOccDialogInfo
EXTRN	?GetOccDialogInfo@CDialog@@MAEPAU_AFX_OCC_DIALOG_INFO@@XZ:PROC ; CDialog::GetOccDialogInfo
EXTRN	?PreInitDialog@CDialog@@MAEXXZ:PROC		; CDialog::PreInitDialog
EXTRN	?GetThisMessageMap@CDialog@@KGPBUAFX_MSGMAP@@XZ:PROC ; CDialog::GetThisMessageMap
EXTRN	?GetRuntimeClass@CStatic@@UBEPAUCRuntimeClass@@XZ:PROC ; CStatic::GetRuntimeClass
EXTRN	?Create@CStatic@@UAEHPBDKABUtagRECT@@PAVCWnd@@I@Z:PROC ; CStatic::Create
EXTRN	?DrawItem@CStatic@@UAEXPAUtagDRAWITEMSTRUCT@@@Z:PROC ; CStatic::DrawItem
EXTRN	??1CStatic@@UAE@XZ:PROC				; CStatic::~CStatic
EXTRN	?OnChildNotify@CStatic@@MAEHIIJPAJ@Z:PROC	; CStatic::OnChildNotify
EXTRN	??_ECStatic@@UAEPAXI@Z:PROC			; CStatic::`vector deleting destructor'
EXTRN	?GetRuntimeClass@CButton@@UBEPAUCRuntimeClass@@XZ:PROC ; CButton::GetRuntimeClass
EXTRN	?Create@CButton@@UAEHPBDKABUtagRECT@@PAVCWnd@@I@Z:PROC ; CButton::Create
EXTRN	?DrawItem@CButton@@UAEXPAUtagDRAWITEMSTRUCT@@@Z:PROC ; CButton::DrawItem
EXTRN	??1CButton@@UAE@XZ:PROC				; CButton::~CButton
EXTRN	?OnChildNotify@CButton@@MAEHIIJPAJ@Z:PROC	; CButton::OnChildNotify
EXTRN	??_ECButton@@UAEPAXI@Z:PROC			; CButton::`vector deleting destructor'
EXTRN	?GetText@CListBox@@QBEXHAAV?$CStringT@DV?$StrTraitMFC_DLL@DV?$ChTraitsCRT@D@ATL@@@@@ATL@@@Z:PROC ; CListBox::GetText
EXTRN	?GetRuntimeClass@CComboBox@@UBEPAUCRuntimeClass@@XZ:PROC ; CComboBox::GetRuntimeClass
EXTRN	?Create@CComboBox@@UAEHKABUtagRECT@@PAVCWnd@@I@Z:PROC ; CComboBox::Create
EXTRN	?DrawItem@CComboBox@@UAEXPAUtagDRAWITEMSTRUCT@@@Z:PROC ; CComboBox::DrawItem
EXTRN	?MeasureItem@CComboBox@@UAEXPAUtagMEASUREITEMSTRUCT@@@Z:PROC ; CComboBox::MeasureItem
EXTRN	?CompareItem@CComboBox@@UAEHPAUtagCOMPAREITEMSTRUCT@@@Z:PROC ; CComboBox::CompareItem
EXTRN	?DeleteItem@CComboBox@@UAEXPAUtagDELETEITEMSTRUCT@@@Z:PROC ; CComboBox::DeleteItem
EXTRN	??1CComboBox@@UAE@XZ:PROC			; CComboBox::~CComboBox
EXTRN	?OnChildNotify@CComboBox@@MAEHIIJPAJ@Z:PROC	; CComboBox::OnChildNotify
EXTRN	??_ECComboBox@@UAEPAXI@Z:PROC			; CComboBox::`vector deleting destructor'
EXTRN	?GetRuntimeClass@CEdit@@UBEPAUCRuntimeClass@@XZ:PROC ; CEdit::GetRuntimeClass
EXTRN	??1CEdit@@UAE@XZ:PROC				; CEdit::~CEdit
EXTRN	??_ECEdit@@UAEPAXI@Z:PROC			; CEdit::`vector deleting destructor'
EXTRN	?AfxMessageBox@@YGHPBDII@Z:PROC			; AfxMessageBox
EXTRN	?GetRuntimeClass@CCommonDialog@@UBEPAUCRuntimeClass@@XZ:PROC ; CCommonDialog::GetRuntimeClass
EXTRN	?OnOK@CCommonDialog@@MAEXXZ:PROC		; CCommonDialog::OnOK
EXTRN	?OnCancel@CCommonDialog@@MAEXXZ:PROC		; CCommonDialog::OnCancel
EXTRN	?GetMessageMap@CCommonDialog@@MBEPBUAFX_MSGMAP@@XZ:PROC ; CCommonDialog::GetMessageMap
EXTRN	??_ECCommonDialog@@UAEPAXI@Z:PROC		; CCommonDialog::`vector deleting destructor'
EXTRN	??0CColorDialog@@QAE@KKPAVCWnd@@@Z:PROC		; CColorDialog::CColorDialog
EXTRN	?DoModal@CColorDialog@@UAEHXZ:PROC		; CColorDialog::DoModal
EXTRN	?GetRuntimeClass@CListCtrl@@UBEPAUCRuntimeClass@@XZ:PROC ; CListCtrl::GetRuntimeClass
EXTRN	?GetCheck@CListCtrl@@QBEHH@Z:PROC		; CListCtrl::GetCheck
EXTRN	?SetCheck@CListCtrl@@QAEHHH@Z:PROC		; CListCtrl::SetCheck
EXTRN	?InsertColumn@CListCtrl@@QAEHHPBDHHH@Z:PROC	; CListCtrl::InsertColumn
EXTRN	?DrawItem@CListCtrl@@UAEXPAUtagDRAWITEMSTRUCT@@@Z:PROC ; CListCtrl::DrawItem
EXTRN	?InsertItem@CListCtrl@@QAEHIHPBDIIHJ@Z:PROC	; CListCtrl::InsertItem
EXTRN	??1CListCtrl@@UAE@XZ:PROC			; CListCtrl::~CListCtrl
EXTRN	?OnChildNotify@CListCtrl@@MAEHIIJPAJ@Z:PROC	; CListCtrl::OnChildNotify
EXTRN	?GetMessageMap@CListCtrl@@MBEPBUAFX_MSGMAP@@XZ:PROC ; CListCtrl::GetMessageMap
EXTRN	??_ECListCtrl@@UAEPAXI@Z:PROC			; CListCtrl::`vector deleting destructor'
EXTRN	??0CNumEdit@@QAE@XZ:PROC			; CNumEdit::CNumEdit
EXTRN	??1CNumEdit@@UAE@XZ:PROC			; CNumEdit::~CNumEdit
EXTRN	??0CNumSpinCtrl@@QAE@XZ:PROC			; CNumSpinCtrl::CNumSpinCtrl
EXTRN	??1CNumSpinCtrl@@UAE@XZ:PROC			; CNumSpinCtrl::~CNumSpinCtrl
EXTRN	??0CBitmapItemComboBox@@QAE@XZ:PROC		; CBitmapItemComboBox::CBitmapItemComboBox
EXTRN	??1CBitmapItemComboBox@@UAE@XZ:PROC		; CBitmapItemComboBox::~CBitmapItemComboBox
EXTRN	??0CBaseListBox@@QAE@XZ:PROC			; CBaseListBox::CBaseListBox
EXTRN	??1CBaseListBox@@UAE@XZ:PROC			; CBaseListBox::~CBaseListBox
EXTRN	?FindLimitValueofHorizontalLine@CFindType@@SA?AW4LIMITHORIZONTALLINE@CBaseData@@PBD@Z:PROC ; CFindType::FindLimitValueofHorizontalLine
EXTRN	??0CBaseDialog@@QAE@IPAVCWnd@@PAUIChartOCX135914@@0@Z:PROC ; CBaseDialog::CBaseDialog
EXTRN	??1CBaseDialog@@UAE@XZ:PROC			; CBaseDialog::~CBaseDialog
EXTRN	?SetTitle@CBaseDialog@@UAEXHABV?$CStringT@DV?$StrTraitMFC_DLL@DV?$ChTraitsCRT@D@ATL@@@@@ATL@@@Z:PROC ; CBaseDialog::SetTitle
EXTRN	?DoCalculate@CBaseDialog@@UAE_NXZ:PROC		; CBaseDialog::DoCalculate
EXTRN	?GetPacketType@CBaseDialog@@QAE?AV?$CStringT@DV?$StrTraitMFC_DLL@DV?$ChTraitsCRT@D@ATL@@@@@ATL@@XZ:PROC ; CBaseDialog::GetPacketType
EXTRN	?Initial_Spin@CBaseDialog@@IAEXAAVCNumSpinCtrl@@AAVCNumEdit@@N@Z:PROC ; CBaseDialog::Initial_Spin
EXTRN	?Initial_Spin@CBaseDialog@@IAEXAAVCNumSpinCtrl@@AAVCNumEdit@@NMMM@Z:PROC ; CBaseDialog::Initial_Spin
EXTRN	?Initial_FillUp@CBaseDialog@@IAEXHAAVCButton@@@Z:PROC ; CBaseDialog::Initial_FillUp
EXTRN	?Initial_Title@CBaseDialog@@IAEXHAAVCEdit@@@Z:PROC ; CBaseDialog::Initial_Title
EXTRN	?Initial_DrawStyleComboBox@CBaseDialog@@IAEXHAAVCBitmapItemComboBox@@@Z:PROC ; CBaseDialog::Initial_DrawStyleComboBox
EXTRN	?Initial_ThicknessComboBox@CBaseDialog@@IAEXHHAAVCBitmapItemComboBox@@@Z:PROC ; CBaseDialog::Initial_ThicknessComboBox
EXTRN	?Initial_ListBox@CBaseDialog@@IAEXPAUIDoubleList135914@@AAVCBaseListBox@@@Z:PROC ; CBaseDialog::Initial_ListBox
EXTRN	?Initial_BaseLineThicknessComboBox@CBaseDialog@@IAEXHHAAVCBitmapItemComboBox@@@Z:PROC ; CBaseDialog::Initial_BaseLineThicknessComboBox
EXTRN	?Initial_DrawBaseLineStyleComboBox@CBaseDialog@@IAEXHAAVCBitmapItemComboBox@@@Z:PROC ; CBaseDialog::Initial_DrawBaseLineStyleComboBox
EXTRN	?OnApply_FillUp@CBaseDialog@@IAEXHAAVCButton@@@Z:PROC ; CBaseDialog::OnApply_FillUp
EXTRN	?OnApply_FillDown@CBaseDialog@@IAEXHAAVCButton@@@Z:PROC ; CBaseDialog::OnApply_FillDown
EXTRN	?OnApply_Title@CBaseDialog@@IAEXHAAVCEdit@@@Z:PROC ; CBaseDialog::OnApply_Title
EXTRN	?OnApply_DrawStyle@CBaseDialog@@IAEXHAAVCBitmapItemComboBox@@@Z:PROC ; CBaseDialog::OnApply_DrawStyle
EXTRN	?OnApply_Thickness@CBaseDialog@@IAEXHAAVCBitmapItemComboBox@@@Z:PROC ; CBaseDialog::OnApply_Thickness
EXTRN	?OnApply_PacketData@CBaseDialog@@IAEXAAVCComboBox@@PAUIGraphInfo135914@@@Z:PROC ; CBaseDialog::OnApply_PacketData
EXTRN	?OnApply_SubPacketData@CBaseDialog@@IAEXAAVCComboBox@@PAUIGraphInfo135914@@H@Z:PROC ; CBaseDialog::OnApply_SubPacketData
EXTRN	?OnApply_BaseLineThickness@CBaseDialog@@IAEXHAAVCBitmapItemComboBox@@@Z:PROC ; CBaseDialog::OnApply_BaseLineThickness
EXTRN	?OnApply_BaseLineDrawStyle@CBaseDialog@@IAEXHAAVCBitmapItemComboBox@@@Z:PROC ; CBaseDialog::OnApply_BaseLineDrawStyle
EXTRN	?GetConditionTitle@CBaseDialog@@IAE?AV?$CStringT@DV?$StrTraitMFC_DLL@DV?$ChTraitsCRT@D@ATL@@@@@ATL@@PBDH@Z:PROC ; CBaseDialog::GetConditionTitle
EXTRN	?SetStatePacketCombo@CBaseDialog@@IAEHPAUIGraphInfo135914@@AAVCComboBox@@AAVCStatic@@@Z:PROC ; CBaseDialog::SetStatePacketCombo
EXTRN	??0CColorButton@@QAE@XZ:PROC			; CColorButton::CColorButton
EXTRN	??1CColorButton@@UAE@XZ:PROC			; CColorButton::~CColorButton
EXTRN	?GetColor@CColorButton@@QAEKXZ:PROC		; CColorButton::GetColor
EXTRN	?SetColor@CColorButton@@QAEXABK@Z:PROC		; CColorButton::SetColor
EXTRN	?SetText@CColorButton@@QAEXV?$CStringT@DV?$StrTraitMFC_DLL@DV?$ChTraitsCRT@D@ATL@@@@@ATL@@@Z:PROC ; CColorButton::SetText
EXTRN	??_ECSetting_Common_Type_A@@UAEPAXI@Z:PROC	; CSetting_Common_Type_A::`vector deleting destructor'
EXTRN	?GetLanguageText@IMetaTable@@QAEPBDPAUHWND__@@W4E_CODEPAGE@1@PBDH@Z:PROC ; IMetaTable::GetLanguageText
EXTRN	?GetStringData@CDataConversion@@SA?AV?$CStringT@DV?$StrTraitMFC_DLL@DV?$ChTraitsCRT@D@ATL@@@@@ATL@@AAV23@ABV23@_N@Z:PROC ; CDataConversion::GetStringData
EXTRN	?GetStringFormatTrans@CDataConversion@@QAE?AV?$CStringT@DV?$StrTraitMFC_DLL@DV?$ChTraitsCRT@D@ATL@@@@@ATL@@ABV23@0@Z:PROC ; CDataConversion::GetStringFormatTrans
EXTRN	?IsBaseFormat@CDataConversion@@SA_NABV?$CStringT@DV?$StrTraitMFC_DLL@DV?$ChTraitsCRT@D@ATL@@@@@ATL@@@Z:PROC ; CDataConversion::IsBaseFormat
EXTRN	?GetDataToDec@CDataConversion@@SAHV?$CStringT@DV?$StrTraitMFC_DLL@DV?$ChTraitsCRT@D@ATL@@@@@ATL@@0AAV23@@Z:PROC ; CDataConversion::GetDataToDec
EXTRN	?IsValid8_32@CDataConversion@@SAHV?$CStringT@DV?$StrTraitMFC_DLL@DV?$ChTraitsCRT@D@ATL@@@@@ATL@@@Z:PROC ; CDataConversion::IsValid8_32
EXTRN	?GetMinimumValue@CDataConversion@@SA?AV?$CStringT@DV?$StrTraitMFC_DLL@DV?$ChTraitsCRT@D@ATL@@@@@ATL@@V23@@Z:PROC ; CDataConversion::GetMinimumValue
EXTRN	@__security_check_cookie@4:PROC
EXTRN	___CxxFrameHandler3:PROC
EXTRN	??_7type_info@@6B@:QWORD			; type_info::`vftable'
EXTRN	?g_iMetaTable@@3VIMetaTable@@A:BYTE		; g_iMetaTable
EXTRN	___security_cookie:DWORD
EXTRN	__fltused:DWORD
;	COMDAT ??_R2CBaseDialog@@8
rdata$r	SEGMENT
??_R2CBaseDialog@@8 DD FLAT:??_R1A@?0A@EA@CBaseDialog@@8 ; CBaseDialog::`RTTI Base Class Array'
	DD	FLAT:??_R1A@?0A@EA@CDialog@@8
	DD	FLAT:??_R1A@?0A@EA@CWnd@@8
	DD	FLAT:??_R1A@?0A@EA@CCmdTarget@@8
	DD	FLAT:??_R1A@?0A@EA@CObject@@8
rdata$r	ENDS
;	COMDAT ??_R3CBaseDialog@@8
rdata$r	SEGMENT
??_R3CBaseDialog@@8 DD 00H				; CBaseDialog::`RTTI Class Hierarchy Descriptor'
	DD	00H
	DD	05H
	DD	FLAT:??_R2CBaseDialog@@8
rdata$r	ENDS
;	COMDAT ??_R0?AVCBaseDialog@@@8
data$rs	SEGMENT
??_R0?AVCBaseDialog@@@8 DD FLAT:??_7type_info@@6B@	; CBaseDialog `RTTI Type Descriptor'
	DD	00H
	DB	'.?AVCBaseDialog@@', 00H
data$rs	ENDS
;	COMDAT ??_R1A@?0A@EA@CBaseDialog@@8
rdata$r	SEGMENT
??_R1A@?0A@EA@CBaseDialog@@8 DD FLAT:??_R0?AVCBaseDialog@@@8 ; CBaseDialog::`RTTI Base Class Descriptor at (0,-1,0,64)'
	DD	04H
	DD	00H
	DD	0ffffffffH
	DD	00H
	DD	040H
	DD	FLAT:??_R3CBaseDialog@@8
rdata$r	ENDS
;	COMDAT ??_R1A@?0A@EA@CSetting_Common_Type_A@@8
rdata$r	SEGMENT
??_R1A@?0A@EA@CSetting_Common_Type_A@@8 DD FLAT:??_R0?AVCSetting_Common_Type_A@@@8 ; CSetting_Common_Type_A::`RTTI Base Class Descriptor at (0,-1,0,64)'
	DD	05H
	DD	00H
	DD	0ffffffffH
	DD	00H
	DD	040H
	DD	FLAT:??_R3CSetting_Common_Type_A@@8
rdata$r	ENDS
;	COMDAT ??_R2CSetting_Common_Type_A@@8
rdata$r	SEGMENT
??_R2CSetting_Common_Type_A@@8 DD FLAT:??_R1A@?0A@EA@CSetting_Common_Type_A@@8 ; CSetting_Common_Type_A::`RTTI Base Class Array'
	DD	FLAT:??_R1A@?0A@EA@CBaseDialog@@8
	DD	FLAT:??_R1A@?0A@EA@CDialog@@8
	DD	FLAT:??_R1A@?0A@EA@CWnd@@8
	DD	FLAT:??_R1A@?0A@EA@CCmdTarget@@8
	DD	FLAT:??_R1A@?0A@EA@CObject@@8
rdata$r	ENDS
;	COMDAT ??_R3CSetting_Common_Type_A@@8
rdata$r	SEGMENT
??_R3CSetting_Common_Type_A@@8 DD 00H			; CSetting_Common_Type_A::`RTTI Class Hierarchy Descriptor'
	DD	00H
	DD	06H
	DD	FLAT:??_R2CSetting_Common_Type_A@@8
rdata$r	ENDS
;	COMDAT ??_R0?AVCSetting_Common_Type_A@@@8
data$rs	SEGMENT
??_R0?AVCSetting_Common_Type_A@@@8 DD FLAT:??_7type_info@@6B@ ; CSetting_Common_Type_A `RTTI Type Descriptor'
	DD	00H
	DB	'.?AVCSetting_Common_Type_A@@', 00H
data$rs	ENDS
;	COMDAT ??_R4CSetting_Common_Type_A@@6B@
rdata$r	SEGMENT
??_R4CSetting_Common_Type_A@@6B@ DD 00H			; CSetting_Common_Type_A::`RTTI Complete Object Locator'
	DD	00H
	DD	00H
	DD	FLAT:??_R0?AVCSetting_Common_Type_A@@@8
	DD	FLAT:??_R3CSetting_Common_Type_A@@8
rdata$r	ENDS
;	COMDAT ??_C@_0CI@DCNEOPPA@?$MA?T?$LH?B?$LF?H?5?$LJ?$KO?$MA?Z?$LP?$KN?$MA?L?5?$LO?K?$LI?B?$MA?$LK?5?A?x?$LJ?$PN?$MA?L?5?$LO@
CONST	SEGMENT
??_C@_0CI@DCNEOPPA@?$MA?T?$LH?B?$LF?H?5?$LJ?$KO?$MA?Z?$LP?$KN?$MA?L?5?$LO?K?$LI?B?$MA?$LK?5?A?x?$LJ?$PN?$MA?L?5?$LO@ DB 0c0H
	DB	0d4H, 0b7H, 0c2H, 0b5H, 0c8H, ' ', 0b9H, 0aeH, 0c0H, 0daH, 0bfH
	DB	0adH, 0c0H, 0ccH, ' ', 0beH, 0cbH, 0b8H, 0c2H, 0c0H, 0baH, ' ', 0c1H
	DB	0f8H, 0b9H, 0fdH, 0c0H, 0ccH, ' ', 0beH, 0c6H, 0b4H, 0d5H, 0b4H
	DB	0cfH, 0b4H, 0d9H, '.', 00H			; `string'
CONST	ENDS
;	COMDAT ??_C@_01IHBHIGKO@?0@
CONST	SEGMENT
??_C@_01IHBHIGKO@?0@ DB ',', 00H			; `string'
CONST	ENDS
;	COMDAT ?messageMap@?1??GetThisMessageMap@CSetting_Common_Type_A@@KGPBUAFX_MSGMAP@@XZ@4U3@B
CONST	SEGMENT
?messageMap@?1??GetThisMessageMap@CSetting_Common_Type_A@@KGPBUAFX_MSGMAP@@XZ@4U3@B DD FLAT:?GetThisMessageMap@CDialog@@KGPBUAFX_MSGMAP@@XZ ; `CSetting_Common_Type_A::GetThisMessageMap'::`2'::messageMap
	DD	FLAT:?_messageEntries@?1??GetThisMessageMap@CSetting_Common_Type_A@@KGPBUAFX_MSGMAP@@XZ@4QBUAFX_MSGMAP_ENTRY@@B
CONST	ENDS
;	COMDAT ?_messageEntries@?1??GetThisMessageMap@CSetting_Common_Type_A@@KGPBUAFX_MSGMAP@@XZ@4QBUAFX_MSGMAP_ENTRY@@B
CONST	SEGMENT
?_messageEntries@?1??GetThisMessageMap@CSetting_Common_Type_A@@KGPBUAFX_MSGMAP@@XZ@4QBUAFX_MSGMAP_ENTRY@@B DD 0111H ; `CSetting_Common_Type_A::GetThisMessageMap'::`2'::_messageEntries
	DD	00H
	DD	017b5H
	DD	017b5H
	DD	03aH
	DD	FLAT:?OnBtnCompositionColor@CSetting_Common_Type_A@@IAEXXZ
	DD	04eH
	DD	0ff9bH
	DD	017d5H
	DD	017d5H
	DD	03eH
	DD	FLAT:?OnItemchangedListComposition@CSetting_Common_Type_A@@IAEXPAUtagNMHDR@@PAJ@Z
	DD	04eH
	DD	0fffeH
	DD	017d5H
	DD	017d5H
	DD	03eH
	DD	FLAT:?OnClickListComposition@CSetting_Common_Type_A@@IAEXPAUtagNMHDR@@PAJ@Z
	DD	0111H
	DD	01H
	DD	017b7H
	DD	017b7H
	DD	03aH
	DD	FLAT:?OnSelchangeCmbLinetype@CSetting_Common_Type_A@@IAEXXZ
	DD	0111H
	DD	01H
	DD	017b6H
	DD	017b6H
	DD	03aH
	DD	FLAT:?OnSelchangeCmbThickness@CSetting_Common_Type_A@@IAEXXZ
	DD	0111H
	DD	00H
	DD	03efH
	DD	03efH
	DD	03aH
	DD	FLAT:?OnInsert@CSetting_Common_Type_A@@IAEXXZ
	DD	0111H
	DD	00H
	DD	03f0H
	DD	03f0H
	DD	03aH
	DD	FLAT:?OnDelete@CSetting_Common_Type_A@@IAEXXZ
	DD	0111H
	DD	00H
	DD	03f1H
	DD	03f1H
	DD	03aH
	DD	FLAT:?OnAlldelete@CSetting_Common_Type_A@@IAEXXZ
	DD	0111H
	DD	00H
	DD	040eH
	DD	040eH
	DD	03aH
	DD	FLAT:?OnColorButton@CSetting_Common_Type_A@@IAEXXZ
	DD	0111H
	DD	00H
	DD	017fcH
	DD	017fcH
	DD	03aH
	DD	FLAT:?OnBtnUpColor@CSetting_Common_Type_A@@IAEXXZ
	DD	0111H
	DD	00H
	DD	017fdH
	DD	017fdH
	DD	03aH
	DD	FLAT:?OnBtnDownColor@CSetting_Common_Type_A@@IAEXXZ
	DD	0111H
	DD	00H
	DD	017feH
	DD	017feH
	DD	03aH
	DD	FLAT:?OnBtnSteadyColor@CSetting_Common_Type_A@@IAEXXZ
	DD	0111H
	DD	00H
	DD	017ffH
	DD	017ffH
	DD	03aH
	DD	FLAT:?OnBtnUp1@CSetting_Common_Type_A@@IAEXXZ
	DD	0111H
	DD	00H
	DD	01800H
	DD	01800H
	DD	03aH
	DD	FLAT:?OnBtnDown1@CSetting_Common_Type_A@@IAEXXZ
	DD	0111H
	DD	00H
	DD	0180bH
	DD	0180bH
	DD	03aH
	DD	FLAT:?OnChkFillColor@CSetting_Common_Type_A@@IAEXXZ
	DD	0111H
	DD	01H
	DD	017b9H
	DD	017b9H
	DD	03aH
	DD	FLAT:?OnSelchangeCmbThickness2@CSetting_Common_Type_A@@IAEXXZ
	DD	0111H
	DD	01H
	DD	017baH
	DD	017baH
	DD	03aH
	DD	FLAT:?OnSelchangeCmbLinetype2@CSetting_Common_Type_A@@IAEXXZ
	DD	0111H
	DD	01H
	DD	03f4H
	DD	03f4H
	DD	03aH
	DD	FLAT:?OnSelchangeHorizontalList@CSetting_Common_Type_A@@IAEXXZ
	DD	00H
	DD	00H
	DD	00H
	DD	00H
	DD	00H
	DD	00H
CONST	ENDS
;	COMDAT ??_7CSetting_Common_Type_A@@6B@
CONST	SEGMENT
??_7CSetting_Common_Type_A@@6B@ DD FLAT:??_R4CSetting_Common_Type_A@@6B@ ; CSetting_Common_Type_A::`vftable'
	DD	FLAT:?GetRuntimeClass@CDialog@@UBEPAUCRuntimeClass@@XZ
	DD	FLAT:??_ECSetting_Common_Type_A@@UAEPAXI@Z
	DD	FLAT:?Serialize@CObject@@UAEXAAVCArchive@@@Z
	DD	FLAT:?AssertValid@CObject@@UBEXXZ
	DD	FLAT:?Dump@CObject@@UBEXAAVCDumpContext@@@Z
	DD	FLAT:?OnCmdMsg@CDialog@@UAEHIHPAXPAUAFX_CMDHANDLERINFO@@@Z
	DD	FLAT:?OnFinalRelease@CWnd@@UAEXXZ
	DD	FLAT:?IsInvokeAllowed@CCmdTarget@@UAEHJ@Z
	DD	FLAT:?GetDispatchIID@CCmdTarget@@UAEHPAU_GUID@@@Z
	DD	FLAT:?GetTypeInfoCount@CCmdTarget@@UAEIXZ
	DD	FLAT:?GetTypeLibCache@CCmdTarget@@UAEPAVCTypeLibCache@@XZ
	DD	FLAT:?GetTypeLib@CCmdTarget@@UAEJKPAPAUITypeLib@@@Z
	DD	FLAT:?GetMessageMap@CSetting_Common_Type_A@@MBEPBUAFX_MSGMAP@@XZ
	DD	FLAT:?GetCommandMap@CCmdTarget@@MBEPBUAFX_OLECMDMAP@@XZ
	DD	FLAT:?GetDispatchMap@CCmdTarget@@MBEPBUAFX_DISPMAP@@XZ
	DD	FLAT:?GetConnectionMap@CCmdTarget@@MBEPBUAFX_CONNECTIONMAP@@XZ
	DD	FLAT:?GetInterfaceMap@CWnd@@MBEPBUAFX_INTERFACEMAP@@XZ
	DD	FLAT:?GetEventSinkMap@CCmdTarget@@MBEPBUAFX_EVENTSINKMAP@@XZ
	DD	FLAT:?OnCreateAggregates@CCmdTarget@@UAEHXZ
	DD	FLAT:?GetInterfaceHook@CCmdTarget@@UAEPAUIUnknown@@PBX@Z
	DD	FLAT:?GetExtraConnectionPoints@CCmdTarget@@MAEHPAVCPtrArray@@@Z
	DD	FLAT:?GetConnectionHook@CCmdTarget@@MAEPAUIConnectionPoint@@ABU_GUID@@@Z
	DD	FLAT:?PreSubclassWindow@CWnd@@UAEXXZ
	DD	FLAT:?Create@CWnd@@UAEHPBD0KABUtagRECT@@PAV1@IPAUCCreateContext@@@Z
	DD	FLAT:?CreateEx@CWnd@@UAEHKPBD0KABUtagRECT@@PAV1@IPAX@Z
	DD	FLAT:?CreateEx@CWnd@@UAEHKPBD0KHHHHPAUHWND__@@PAUHMENU__@@PAX@Z
	DD	FLAT:?DestroyWindow@CWnd@@UAEHXZ
	DD	FLAT:?PreCreateWindow@CWnd@@UAEHAAUtagCREATESTRUCTA@@@Z
	DD	FLAT:?CalcWindowRect@CWnd@@UAEXPAUtagRECT@@I@Z
	DD	FLAT:?GetMenu@CWnd@@UBEPAVCMenu@@XZ
	DD	FLAT:?SetMenu@CWnd@@UAEHPAVCMenu@@@Z
	DD	FLAT:?OnToolHitTest@CWnd@@UBEHVCPoint@@PAUtagTOOLINFOA@@@Z
	DD	FLAT:?GetScrollBarCtrl@CWnd@@UBEPAVCScrollBar@@H@Z
	DD	FLAT:?WinHelpA@CWnd@@UAEXKI@Z
	DD	FLAT:?HtmlHelpA@CWnd@@UAEXKI@Z
	DD	FLAT:?WinHelpInternal@CWnd@@UAEXKI@Z
	DD	FLAT:?ContinueModal@CWnd@@UAEHXZ
	DD	FLAT:?EndModalLoop@CWnd@@UAEXH@Z
	DD	FLAT:?OnDrawIconicThumbnailOrLivePreview@CWnd@@UAEXAAVCDC@@VCRect@@VCSize@@HAAH@Z
	DD	FLAT:?EnsureStdObj@CWnd@@UAEJXZ
	DD	FLAT:?get_accParent@CWnd@@UAEJPAPAUIDispatch@@@Z
	DD	FLAT:?get_accChildCount@CWnd@@UAEJPAJ@Z
	DD	FLAT:?get_accChild@CWnd@@UAEJUtagVARIANT@@PAPAUIDispatch@@@Z
	DD	FLAT:?get_accName@CWnd@@UAEJUtagVARIANT@@PAPA_W@Z
	DD	FLAT:?get_accValue@CWnd@@UAEJUtagVARIANT@@PAPA_W@Z
	DD	FLAT:?get_accDescription@CWnd@@UAEJUtagVARIANT@@PAPA_W@Z
	DD	FLAT:?get_accRole@CWnd@@UAEJUtagVARIANT@@PAU2@@Z
	DD	FLAT:?get_accState@CWnd@@UAEJUtagVARIANT@@PAU2@@Z
	DD	FLAT:?get_accHelp@CWnd@@UAEJUtagVARIANT@@PAPA_W@Z
	DD	FLAT:?get_accHelpTopic@CWnd@@UAEJPAPA_WUtagVARIANT@@PAJ@Z
	DD	FLAT:?get_accKeyboardShortcut@CWnd@@UAEJUtagVARIANT@@PAPA_W@Z
	DD	FLAT:?get_accFocus@CWnd@@UAEJPAUtagVARIANT@@@Z
	DD	FLAT:?get_accSelection@CWnd@@UAEJPAUtagVARIANT@@@Z
	DD	FLAT:?get_accDefaultAction@CWnd@@UAEJUtagVARIANT@@PAPA_W@Z
	DD	FLAT:?accSelect@CWnd@@UAEJJUtagVARIANT@@@Z
	DD	FLAT:?accLocation@CWnd@@UAEJPAJ000UtagVARIANT@@@Z
	DD	FLAT:?accNavigate@CWnd@@UAEJJUtagVARIANT@@PAU2@@Z
	DD	FLAT:?accHitTest@CWnd@@UAEJJJPAUtagVARIANT@@@Z
	DD	FLAT:?accDoDefaultAction@CWnd@@UAEJUtagVARIANT@@@Z
	DD	FLAT:?put_accName@CWnd@@UAEJUtagVARIANT@@PA_W@Z
	DD	FLAT:?put_accValue@CWnd@@UAEJUtagVARIANT@@PA_W@Z
	DD	FLAT:?SetProxy@CWnd@@UAEJPAUIAccessibleProxy@@@Z
	DD	FLAT:?CreateAccessibleProxy@CWnd@@UAEJIJPAJ@Z
	DD	FLAT:?OnCommand@CWnd@@MAEHIJ@Z
	DD	FLAT:?OnNotify@CWnd@@MAEHIJPAJ@Z
	DD	FLAT:?GetSuperWndProcAddr@CWnd@@MAEPAP6GJPAUHWND__@@IIJ@ZXZ
	DD	FLAT:?DoDataExchange@CSetting_Common_Type_A@@MAEXPAVCDataExchange@@@Z
	DD	FLAT:?BeginModalState@CWnd@@UAEXXZ
	DD	FLAT:?EndModalState@CWnd@@UAEXXZ
	DD	FLAT:?PreTranslateMessage@CSetting_Common_Type_A@@UAEHPAUtagMSG@@@Z
	DD	FLAT:?OnAmbientProperty@CWnd@@UAEHPAVCOleControlSite@@JPAUtagVARIANT@@@Z
	DD	FLAT:?WindowProc@CWnd@@MAEJIIJ@Z
	DD	FLAT:?OnWndMsg@CWnd@@MAEHIIJPAJ@Z
	DD	FLAT:?DefWindowProcA@CWnd@@MAEJIIJ@Z
	DD	FLAT:?PostNcDestroy@CWnd@@MAEXXZ
	DD	FLAT:?OnChildNotify@CWnd@@MAEHIIJPAJ@Z
	DD	FLAT:?OnTouchInputs@CWnd@@MAEHIPAUtagTOUCHINPUT@@@Z
	DD	FLAT:?OnTouchInput@CWnd@@MAEHVCPoint@@HHPAUtagTOUCHINPUT@@@Z
	DD	FLAT:?GetGestureStatus@CWnd@@MAEKVCPoint@@@Z
	DD	FLAT:?OnGestureZoom@CWnd@@MAEHVCPoint@@J@Z
	DD	FLAT:?OnGesturePan@CWnd@@MAEHVCPoint@@0@Z
	DD	FLAT:?OnGestureRotate@CWnd@@MAEHVCPoint@@N@Z
	DD	FLAT:?OnGestureTwoFingerTap@CWnd@@MAEHVCPoint@@@Z
	DD	FLAT:?OnGesturePressAndTap@CWnd@@MAEHVCPoint@@J@Z
	DD	FLAT:?ResizeDynamicLayout@CWnd@@MAEXXZ
	DD	FLAT:?CheckAutoCenter@CDialog@@UAEHXZ
	DD	FLAT:?IsFrameWnd@CWnd@@UBEHXZ
	DD	FLAT:?CreateControlContainer@CWnd@@MAEHPAPAVCOleControlContainer@@@Z
	DD	FLAT:?CreateControlSite@CWnd@@MAEHPAVCOleControlContainer@@PAPAVCOleControlSite@@IABU_GUID@@@Z
	DD	FLAT:?SetOccDialogInfo@CDialog@@MAEHPAU_AFX_OCC_DIALOG_INFO@@@Z
	DD	FLAT:?GetOccDialogInfo@CDialog@@MAEPAU_AFX_OCC_DIALOG_INFO@@XZ
	DD	FLAT:?Create@CDialog@@UAEHIPAVCWnd@@@Z
	DD	FLAT:?Create@CDialog@@UAEHPBDPAVCWnd@@@Z
	DD	FLAT:?CreateIndirect@CDialog@@UAEHPAXPAVCWnd@@@Z
	DD	FLAT:?CreateIndirect@CDialog@@UAEHPBUDLGTEMPLATE@@PAVCWnd@@PAX@Z
	DD	FLAT:?DoModal@CDialog@@UAEHXZ
	DD	FLAT:?OnInitDialog@CSetting_Common_Type_A@@MAEHXZ
	DD	FLAT:?OnSetFont@CDialog@@UAEXPAVCFont@@@Z
	DD	FLAT:?OnOK@CDialog@@MAEXXZ
	DD	FLAT:?OnCancel@CDialog@@MAEXXZ
	DD	FLAT:?PreInitDialog@CDialog@@MAEXXZ
	DD	FLAT:?Initial@CSetting_Common_Type_A@@UAEXPAUIGraphInfo135914@@@Z
	DD	FLAT:?OnApply@CSetting_Common_Type_A@@UAEHPAUIGraphInfo135914@@@Z
	DD	FLAT:?SetTitle@CBaseDialog@@UAEXHABV?$CStringT@DV?$StrTraitMFC_DLL@DV?$ChTraitsCRT@D@ATL@@@@@ATL@@@Z
	DD	FLAT:?DoCalculate@CBaseDialog@@UAE_NXZ
CONST	ENDS
;	COMDAT ??_R1A@?0A@EA@CListCtrl@@8
rdata$r	SEGMENT
??_R1A@?0A@EA@CListCtrl@@8 DD FLAT:??_R0?AVCListCtrl@@@8 ; CListCtrl::`RTTI Base Class Descriptor at (0,-1,0,64)'
	DD	03H
	DD	00H
	DD	0ffffffffH
	DD	00H
	DD	040H
	DD	FLAT:??_R3CListCtrl@@8
rdata$r	ENDS
;	COMDAT ??_R2CListCtrl@@8
rdata$r	SEGMENT
??_R2CListCtrl@@8 DD FLAT:??_R1A@?0A@EA@CListCtrl@@8	; CListCtrl::`RTTI Base Class Array'
	DD	FLAT:??_R1A@?0A@EA@CWnd@@8
	DD	FLAT:??_R1A@?0A@EA@CCmdTarget@@8
	DD	FLAT:??_R1A@?0A@EA@CObject@@8
rdata$r	ENDS
;	COMDAT ??_R3CListCtrl@@8
rdata$r	SEGMENT
??_R3CListCtrl@@8 DD 00H				; CListCtrl::`RTTI Class Hierarchy Descriptor'
	DD	00H
	DD	04H
	DD	FLAT:??_R2CListCtrl@@8
rdata$r	ENDS
;	COMDAT ??_R0?AVCListCtrl@@@8
data$rs	SEGMENT
??_R0?AVCListCtrl@@@8 DD FLAT:??_7type_info@@6B@	; CListCtrl `RTTI Type Descriptor'
	DD	00H
	DB	'.?AVCListCtrl@@', 00H
data$rs	ENDS
;	COMDAT ??_R4CListCtrl@@6B@
rdata$r	SEGMENT
??_R4CListCtrl@@6B@ DD 00H				; CListCtrl::`RTTI Complete Object Locator'
	DD	00H
	DD	00H
	DD	FLAT:??_R0?AVCListCtrl@@@8
	DD	FLAT:??_R3CListCtrl@@8
rdata$r	ENDS
;	COMDAT ??_R2CDialog@@8
rdata$r	SEGMENT
??_R2CDialog@@8 DD FLAT:??_R1A@?0A@EA@CDialog@@8	; CDialog::`RTTI Base Class Array'
	DD	FLAT:??_R1A@?0A@EA@CWnd@@8
	DD	FLAT:??_R1A@?0A@EA@CCmdTarget@@8
	DD	FLAT:??_R1A@?0A@EA@CObject@@8
rdata$r	ENDS
;	COMDAT ??_R3CDialog@@8
rdata$r	SEGMENT
??_R3CDialog@@8 DD 00H					; CDialog::`RTTI Class Hierarchy Descriptor'
	DD	00H
	DD	04H
	DD	FLAT:??_R2CDialog@@8
rdata$r	ENDS
;	COMDAT ??_R0?AVCDialog@@@8
data$rs	SEGMENT
??_R0?AVCDialog@@@8 DD FLAT:??_7type_info@@6B@		; CDialog `RTTI Type Descriptor'
	DD	00H
	DB	'.?AVCDialog@@', 00H
data$rs	ENDS
;	COMDAT ??_R1A@?0A@EA@CDialog@@8
rdata$r	SEGMENT
??_R1A@?0A@EA@CDialog@@8 DD FLAT:??_R0?AVCDialog@@@8	; CDialog::`RTTI Base Class Descriptor at (0,-1,0,64)'
	DD	03H
	DD	00H
	DD	0ffffffffH
	DD	00H
	DD	040H
	DD	FLAT:??_R3CDialog@@8
rdata$r	ENDS
;	COMDAT ??_R1A@?0A@EA@CCommonDialog@@8
rdata$r	SEGMENT
??_R1A@?0A@EA@CCommonDialog@@8 DD FLAT:??_R0?AVCCommonDialog@@@8 ; CCommonDialog::`RTTI Base Class Descriptor at (0,-1,0,64)'
	DD	04H
	DD	00H
	DD	0ffffffffH
	DD	00H
	DD	040H
	DD	FLAT:??_R3CCommonDialog@@8
rdata$r	ENDS
;	COMDAT ??_R2CCommonDialog@@8
rdata$r	SEGMENT
??_R2CCommonDialog@@8 DD FLAT:??_R1A@?0A@EA@CCommonDialog@@8 ; CCommonDialog::`RTTI Base Class Array'
	DD	FLAT:??_R1A@?0A@EA@CDialog@@8
	DD	FLAT:??_R1A@?0A@EA@CWnd@@8
	DD	FLAT:??_R1A@?0A@EA@CCmdTarget@@8
	DD	FLAT:??_R1A@?0A@EA@CObject@@8
rdata$r	ENDS
;	COMDAT ??_R3CCommonDialog@@8
rdata$r	SEGMENT
??_R3CCommonDialog@@8 DD 00H				; CCommonDialog::`RTTI Class Hierarchy Descriptor'
	DD	00H
	DD	05H
	DD	FLAT:??_R2CCommonDialog@@8
rdata$r	ENDS
;	COMDAT ??_R0?AVCCommonDialog@@@8
data$rs	SEGMENT
??_R0?AVCCommonDialog@@@8 DD FLAT:??_7type_info@@6B@	; CCommonDialog `RTTI Type Descriptor'
	DD	00H
	DB	'.?AVCCommonDialog@@', 00H
data$rs	ENDS
;	COMDAT ??_R4CCommonDialog@@6B@
rdata$r	SEGMENT
??_R4CCommonDialog@@6B@ DD 00H				; CCommonDialog::`RTTI Complete Object Locator'
	DD	00H
	DD	00H
	DD	FLAT:??_R0?AVCCommonDialog@@@8
	DD	FLAT:??_R3CCommonDialog@@8
rdata$r	ENDS
;	COMDAT ??_R1A@?0A@EA@CEdit@@8
rdata$r	SEGMENT
??_R1A@?0A@EA@CEdit@@8 DD FLAT:??_R0?AVCEdit@@@8	; CEdit::`RTTI Base Class Descriptor at (0,-1,0,64)'
	DD	03H
	DD	00H
	DD	0ffffffffH
	DD	00H
	DD	040H
	DD	FLAT:??_R3CEdit@@8
rdata$r	ENDS
;	COMDAT ??_R2CEdit@@8
rdata$r	SEGMENT
??_R2CEdit@@8 DD FLAT:??_R1A@?0A@EA@CEdit@@8		; CEdit::`RTTI Base Class Array'
	DD	FLAT:??_R1A@?0A@EA@CWnd@@8
	DD	FLAT:??_R1A@?0A@EA@CCmdTarget@@8
	DD	FLAT:??_R1A@?0A@EA@CObject@@8
rdata$r	ENDS
;	COMDAT ??_R3CEdit@@8
rdata$r	SEGMENT
??_R3CEdit@@8 DD 00H					; CEdit::`RTTI Class Hierarchy Descriptor'
	DD	00H
	DD	04H
	DD	FLAT:??_R2CEdit@@8
rdata$r	ENDS
;	COMDAT ??_R0?AVCEdit@@@8
data$rs	SEGMENT
??_R0?AVCEdit@@@8 DD FLAT:??_7type_info@@6B@		; CEdit `RTTI Type Descriptor'
	DD	00H
	DB	'.?AVCEdit@@', 00H
data$rs	ENDS
;	COMDAT ??_R4CEdit@@6B@
rdata$r	SEGMENT
??_R4CEdit@@6B@ DD 00H					; CEdit::`RTTI Complete Object Locator'
	DD	00H
	DD	00H
	DD	FLAT:??_R0?AVCEdit@@@8
	DD	FLAT:??_R3CEdit@@8
rdata$r	ENDS
;	COMDAT ??_R1A@?0A@EA@CComboBox@@8
rdata$r	SEGMENT
??_R1A@?0A@EA@CComboBox@@8 DD FLAT:??_R0?AVCComboBox@@@8 ; CComboBox::`RTTI Base Class Descriptor at (0,-1,0,64)'
	DD	03H
	DD	00H
	DD	0ffffffffH
	DD	00H
	DD	040H
	DD	FLAT:??_R3CComboBox@@8
rdata$r	ENDS
;	COMDAT ??_R2CComboBox@@8
rdata$r	SEGMENT
??_R2CComboBox@@8 DD FLAT:??_R1A@?0A@EA@CComboBox@@8	; CComboBox::`RTTI Base Class Array'
	DD	FLAT:??_R1A@?0A@EA@CWnd@@8
	DD	FLAT:??_R1A@?0A@EA@CCmdTarget@@8
	DD	FLAT:??_R1A@?0A@EA@CObject@@8
rdata$r	ENDS
;	COMDAT ??_R3CComboBox@@8
rdata$r	SEGMENT
??_R3CComboBox@@8 DD 00H				; CComboBox::`RTTI Class Hierarchy Descriptor'
	DD	00H
	DD	04H
	DD	FLAT:??_R2CComboBox@@8
rdata$r	ENDS
;	COMDAT ??_R0?AVCComboBox@@@8
data$rs	SEGMENT
??_R0?AVCComboBox@@@8 DD FLAT:??_7type_info@@6B@	; CComboBox `RTTI Type Descriptor'
	DD	00H
	DB	'.?AVCComboBox@@', 00H
data$rs	ENDS
;	COMDAT ??_R4CComboBox@@6B@
rdata$r	SEGMENT
??_R4CComboBox@@6B@ DD 00H				; CComboBox::`RTTI Complete Object Locator'
	DD	00H
	DD	00H
	DD	FLAT:??_R0?AVCComboBox@@@8
	DD	FLAT:??_R3CComboBox@@8
rdata$r	ENDS
;	COMDAT ??_R1A@?0A@EA@CButton@@8
rdata$r	SEGMENT
??_R1A@?0A@EA@CButton@@8 DD FLAT:??_R0?AVCButton@@@8	; CButton::`RTTI Base Class Descriptor at (0,-1,0,64)'
	DD	03H
	DD	00H
	DD	0ffffffffH
	DD	00H
	DD	040H
	DD	FLAT:??_R3CButton@@8
rdata$r	ENDS
;	COMDAT ??_R2CButton@@8
rdata$r	SEGMENT
??_R2CButton@@8 DD FLAT:??_R1A@?0A@EA@CButton@@8	; CButton::`RTTI Base Class Array'
	DD	FLAT:??_R1A@?0A@EA@CWnd@@8
	DD	FLAT:??_R1A@?0A@EA@CCmdTarget@@8
	DD	FLAT:??_R1A@?0A@EA@CObject@@8
rdata$r	ENDS
;	COMDAT ??_R3CButton@@8
rdata$r	SEGMENT
??_R3CButton@@8 DD 00H					; CButton::`RTTI Class Hierarchy Descriptor'
	DD	00H
	DD	04H
	DD	FLAT:??_R2CButton@@8
rdata$r	ENDS
;	COMDAT ??_R0?AVCButton@@@8
data$rs	SEGMENT
??_R0?AVCButton@@@8 DD FLAT:??_7type_info@@6B@		; CButton `RTTI Type Descriptor'
	DD	00H
	DB	'.?AVCButton@@', 00H
data$rs	ENDS
;	COMDAT ??_R4CButton@@6B@
rdata$r	SEGMENT
??_R4CButton@@6B@ DD 00H				; CButton::`RTTI Complete Object Locator'
	DD	00H
	DD	00H
	DD	FLAT:??_R0?AVCButton@@@8
	DD	FLAT:??_R3CButton@@8
rdata$r	ENDS
;	COMDAT ??_R2CCmdTarget@@8
rdata$r	SEGMENT
??_R2CCmdTarget@@8 DD FLAT:??_R1A@?0A@EA@CCmdTarget@@8	; CCmdTarget::`RTTI Base Class Array'
	DD	FLAT:??_R1A@?0A@EA@CObject@@8
rdata$r	ENDS
;	COMDAT ??_R3CCmdTarget@@8
rdata$r	SEGMENT
??_R3CCmdTarget@@8 DD 00H				; CCmdTarget::`RTTI Class Hierarchy Descriptor'
	DD	00H
	DD	02H
	DD	FLAT:??_R2CCmdTarget@@8
rdata$r	ENDS
;	COMDAT ??_R0?AVCCmdTarget@@@8
data$rs	SEGMENT
??_R0?AVCCmdTarget@@@8 DD FLAT:??_7type_info@@6B@	; CCmdTarget `RTTI Type Descriptor'
	DD	00H
	DB	'.?AVCCmdTarget@@', 00H
data$rs	ENDS
;	COMDAT ??_R1A@?0A@EA@CCmdTarget@@8
rdata$r	SEGMENT
??_R1A@?0A@EA@CCmdTarget@@8 DD FLAT:??_R0?AVCCmdTarget@@@8 ; CCmdTarget::`RTTI Base Class Descriptor at (0,-1,0,64)'
	DD	01H
	DD	00H
	DD	0ffffffffH
	DD	00H
	DD	040H
	DD	FLAT:??_R3CCmdTarget@@8
rdata$r	ENDS
;	COMDAT ??_R2CWnd@@8
rdata$r	SEGMENT
??_R2CWnd@@8 DD	FLAT:??_R1A@?0A@EA@CWnd@@8		; CWnd::`RTTI Base Class Array'
	DD	FLAT:??_R1A@?0A@EA@CCmdTarget@@8
	DD	FLAT:??_R1A@?0A@EA@CObject@@8
rdata$r	ENDS
;	COMDAT ??_R3CWnd@@8
rdata$r	SEGMENT
??_R3CWnd@@8 DD	00H					; CWnd::`RTTI Class Hierarchy Descriptor'
	DD	00H
	DD	03H
	DD	FLAT:??_R2CWnd@@8
rdata$r	ENDS
;	COMDAT ??_R0?AVCWnd@@@8
data$rs	SEGMENT
??_R0?AVCWnd@@@8 DD FLAT:??_7type_info@@6B@		; CWnd `RTTI Type Descriptor'
	DD	00H
	DB	'.?AVCWnd@@', 00H
data$rs	ENDS
;	COMDAT ??_R1A@?0A@EA@CWnd@@8
rdata$r	SEGMENT
??_R1A@?0A@EA@CWnd@@8 DD FLAT:??_R0?AVCWnd@@@8		; CWnd::`RTTI Base Class Descriptor at (0,-1,0,64)'
	DD	02H
	DD	00H
	DD	0ffffffffH
	DD	00H
	DD	040H
	DD	FLAT:??_R3CWnd@@8
rdata$r	ENDS
;	COMDAT ??_R1A@?0A@EA@CStatic@@8
rdata$r	SEGMENT
??_R1A@?0A@EA@CStatic@@8 DD FLAT:??_R0?AVCStatic@@@8	; CStatic::`RTTI Base Class Descriptor at (0,-1,0,64)'
	DD	03H
	DD	00H
	DD	0ffffffffH
	DD	00H
	DD	040H
	DD	FLAT:??_R3CStatic@@8
rdata$r	ENDS
;	COMDAT ??_R2CStatic@@8
rdata$r	SEGMENT
??_R2CStatic@@8 DD FLAT:??_R1A@?0A@EA@CStatic@@8	; CStatic::`RTTI Base Class Array'
	DD	FLAT:??_R1A@?0A@EA@CWnd@@8
	DD	FLAT:??_R1A@?0A@EA@CCmdTarget@@8
	DD	FLAT:??_R1A@?0A@EA@CObject@@8
rdata$r	ENDS
;	COMDAT ??_R3CStatic@@8
rdata$r	SEGMENT
??_R3CStatic@@8 DD 00H					; CStatic::`RTTI Class Hierarchy Descriptor'
	DD	00H
	DD	04H
	DD	FLAT:??_R2CStatic@@8
rdata$r	ENDS
;	COMDAT ??_R0?AVCStatic@@@8
data$rs	SEGMENT
??_R0?AVCStatic@@@8 DD FLAT:??_7type_info@@6B@		; CStatic `RTTI Type Descriptor'
	DD	00H
	DB	'.?AVCStatic@@', 00H
data$rs	ENDS
;	COMDAT ??_R4CStatic@@6B@
rdata$r	SEGMENT
??_R4CStatic@@6B@ DD 00H				; CStatic::`RTTI Complete Object Locator'
	DD	00H
	DD	00H
	DD	FLAT:??_R0?AVCStatic@@@8
	DD	FLAT:??_R3CStatic@@8
rdata$r	ENDS
;	COMDAT ??_R1A@?0A@EA@CObject@@8
rdata$r	SEGMENT
??_R1A@?0A@EA@CObject@@8 DD FLAT:??_R0?AVCObject@@@8	; CObject::`RTTI Base Class Descriptor at (0,-1,0,64)'
	DD	00H
	DD	00H
	DD	0ffffffffH
	DD	00H
	DD	040H
	DD	FLAT:??_R3CObject@@8
rdata$r	ENDS
;	COMDAT ??_R2CObject@@8
rdata$r	SEGMENT
??_R2CObject@@8 DD FLAT:??_R1A@?0A@EA@CObject@@8	; CObject::`RTTI Base Class Array'
rdata$r	ENDS
;	COMDAT ??_R3CObject@@8
rdata$r	SEGMENT
??_R3CObject@@8 DD 00H					; CObject::`RTTI Class Hierarchy Descriptor'
	DD	00H
	DD	01H
	DD	FLAT:??_R2CObject@@8
rdata$r	ENDS
;	COMDAT ??_R0?AVCObject@@@8
data$rs	SEGMENT
??_R0?AVCObject@@@8 DD FLAT:??_7type_info@@6B@		; CObject `RTTI Type Descriptor'
	DD	00H
	DB	'.?AVCObject@@', 00H
data$rs	ENDS
;	COMDAT ??_7CListCtrl@@6B@
CONST	SEGMENT
??_7CListCtrl@@6B@ DD FLAT:??_R4CListCtrl@@6B@		; CListCtrl::`vftable'
	DD	FLAT:?GetRuntimeClass@CListCtrl@@UBEPAUCRuntimeClass@@XZ
	DD	FLAT:??_ECListCtrl@@UAEPAXI@Z
	DD	FLAT:?Serialize@CObject@@UAEXAAVCArchive@@@Z
	DD	FLAT:?AssertValid@CObject@@UBEXXZ
	DD	FLAT:?Dump@CObject@@UBEXAAVCDumpContext@@@Z
	DD	FLAT:?OnCmdMsg@CCmdTarget@@UAEHIHPAXPAUAFX_CMDHANDLERINFO@@@Z
	DD	FLAT:?OnFinalRelease@CWnd@@UAEXXZ
	DD	FLAT:?IsInvokeAllowed@CCmdTarget@@UAEHJ@Z
	DD	FLAT:?GetDispatchIID@CCmdTarget@@UAEHPAU_GUID@@@Z
	DD	FLAT:?GetTypeInfoCount@CCmdTarget@@UAEIXZ
	DD	FLAT:?GetTypeLibCache@CCmdTarget@@UAEPAVCTypeLibCache@@XZ
	DD	FLAT:?GetTypeLib@CCmdTarget@@UAEJKPAPAUITypeLib@@@Z
	DD	FLAT:?GetMessageMap@CListCtrl@@MBEPBUAFX_MSGMAP@@XZ
	DD	FLAT:?GetCommandMap@CCmdTarget@@MBEPBUAFX_OLECMDMAP@@XZ
	DD	FLAT:?GetDispatchMap@CCmdTarget@@MBEPBUAFX_DISPMAP@@XZ
	DD	FLAT:?GetConnectionMap@CCmdTarget@@MBEPBUAFX_CONNECTIONMAP@@XZ
	DD	FLAT:?GetInterfaceMap@CWnd@@MBEPBUAFX_INTERFACEMAP@@XZ
	DD	FLAT:?GetEventSinkMap@CCmdTarget@@MBEPBUAFX_EVENTSINKMAP@@XZ
	DD	FLAT:?OnCreateAggregates@CCmdTarget@@UAEHXZ
	DD	FLAT:?GetInterfaceHook@CCmdTarget@@UAEPAUIUnknown@@PBX@Z
	DD	FLAT:?GetExtraConnectionPoints@CCmdTarget@@MAEHPAVCPtrArray@@@Z
	DD	FLAT:?GetConnectionHook@CCmdTarget@@MAEPAUIConnectionPoint@@ABU_GUID@@@Z
	DD	FLAT:?PreSubclassWindow@CWnd@@UAEXXZ
	DD	FLAT:?Create@CWnd@@UAEHPBD0KABUtagRECT@@PAV1@IPAUCCreateContext@@@Z
	DD	FLAT:?CreateEx@CWnd@@UAEHKPBD0KABUtagRECT@@PAV1@IPAX@Z
	DD	FLAT:?CreateEx@CWnd@@UAEHKPBD0KHHHHPAUHWND__@@PAUHMENU__@@PAX@Z
	DD	FLAT:?DestroyWindow@CWnd@@UAEHXZ
	DD	FLAT:?PreCreateWindow@CWnd@@UAEHAAUtagCREATESTRUCTA@@@Z
	DD	FLAT:?CalcWindowRect@CWnd@@UAEXPAUtagRECT@@I@Z
	DD	FLAT:?GetMenu@CWnd@@UBEPAVCMenu@@XZ
	DD	FLAT:?SetMenu@CWnd@@UAEHPAVCMenu@@@Z
	DD	FLAT:?OnToolHitTest@CWnd@@UBEHVCPoint@@PAUtagTOOLINFOA@@@Z
	DD	FLAT:?GetScrollBarCtrl@CWnd@@UBEPAVCScrollBar@@H@Z
	DD	FLAT:?WinHelpA@CWnd@@UAEXKI@Z
	DD	FLAT:?HtmlHelpA@CWnd@@UAEXKI@Z
	DD	FLAT:?WinHelpInternal@CWnd@@UAEXKI@Z
	DD	FLAT:?ContinueModal@CWnd@@UAEHXZ
	DD	FLAT:?EndModalLoop@CWnd@@UAEXH@Z
	DD	FLAT:?OnDrawIconicThumbnailOrLivePreview@CWnd@@UAEXAAVCDC@@VCRect@@VCSize@@HAAH@Z
	DD	FLAT:?EnsureStdObj@CWnd@@UAEJXZ
	DD	FLAT:?get_accParent@CWnd@@UAEJPAPAUIDispatch@@@Z
	DD	FLAT:?get_accChildCount@CWnd@@UAEJPAJ@Z
	DD	FLAT:?get_accChild@CWnd@@UAEJUtagVARIANT@@PAPAUIDispatch@@@Z
	DD	FLAT:?get_accName@CWnd@@UAEJUtagVARIANT@@PAPA_W@Z
	DD	FLAT:?get_accValue@CWnd@@UAEJUtagVARIANT@@PAPA_W@Z
	DD	FLAT:?get_accDescription@CWnd@@UAEJUtagVARIANT@@PAPA_W@Z
	DD	FLAT:?get_accRole@CWnd@@UAEJUtagVARIANT@@PAU2@@Z
	DD	FLAT:?get_accState@CWnd@@UAEJUtagVARIANT@@PAU2@@Z
	DD	FLAT:?get_accHelp@CWnd@@UAEJUtagVARIANT@@PAPA_W@Z
	DD	FLAT:?get_accHelpTopic@CWnd@@UAEJPAPA_WUtagVARIANT@@PAJ@Z
	DD	FLAT:?get_accKeyboardShortcut@CWnd@@UAEJUtagVARIANT@@PAPA_W@Z
	DD	FLAT:?get_accFocus@CWnd@@UAEJPAUtagVARIANT@@@Z
	DD	FLAT:?get_accSelection@CWnd@@UAEJPAUtagVARIANT@@@Z
	DD	FLAT:?get_accDefaultAction@CWnd@@UAEJUtagVARIANT@@PAPA_W@Z
	DD	FLAT:?accSelect@CWnd@@UAEJJUtagVARIANT@@@Z
	DD	FLAT:?accLocation@CWnd@@UAEJPAJ000UtagVARIANT@@@Z
	DD	FLAT:?accNavigate@CWnd@@UAEJJUtagVARIANT@@PAU2@@Z
	DD	FLAT:?accHitTest@CWnd@@UAEJJJPAUtagVARIANT@@@Z
	DD	FLAT:?accDoDefaultAction@CWnd@@UAEJUtagVARIANT@@@Z
	DD	FLAT:?put_accName@CWnd@@UAEJUtagVARIANT@@PA_W@Z
	DD	FLAT:?put_accValue@CWnd@@UAEJUtagVARIANT@@PA_W@Z
	DD	FLAT:?SetProxy@CWnd@@UAEJPAUIAccessibleProxy@@@Z
	DD	FLAT:?CreateAccessibleProxy@CWnd@@UAEJIJPAJ@Z
	DD	FLAT:?OnCommand@CWnd@@MAEHIJ@Z
	DD	FLAT:?OnNotify@CWnd@@MAEHIJPAJ@Z
	DD	FLAT:?GetSuperWndProcAddr@CWnd@@MAEPAP6GJPAUHWND__@@IIJ@ZXZ
	DD	FLAT:?DoDataExchange@CWnd@@MAEXPAVCDataExchange@@@Z
	DD	FLAT:?BeginModalState@CWnd@@UAEXXZ
	DD	FLAT:?EndModalState@CWnd@@UAEXXZ
	DD	FLAT:?PreTranslateMessage@CWnd@@UAEHPAUtagMSG@@@Z
	DD	FLAT:?OnAmbientProperty@CWnd@@UAEHPAVCOleControlSite@@JPAUtagVARIANT@@@Z
	DD	FLAT:?WindowProc@CWnd@@MAEJIIJ@Z
	DD	FLAT:?OnWndMsg@CWnd@@MAEHIIJPAJ@Z
	DD	FLAT:?DefWindowProcA@CWnd@@MAEJIIJ@Z
	DD	FLAT:?PostNcDestroy@CWnd@@MAEXXZ
	DD	FLAT:?OnChildNotify@CListCtrl@@MAEHIIJPAJ@Z
	DD	FLAT:?OnTouchInputs@CWnd@@MAEHIPAUtagTOUCHINPUT@@@Z
	DD	FLAT:?OnTouchInput@CWnd@@MAEHVCPoint@@HHPAUtagTOUCHINPUT@@@Z
	DD	FLAT:?GetGestureStatus@CWnd@@MAEKVCPoint@@@Z
	DD	FLAT:?OnGestureZoom@CWnd@@MAEHVCPoint@@J@Z
	DD	FLAT:?OnGesturePan@CWnd@@MAEHVCPoint@@0@Z
	DD	FLAT:?OnGestureRotate@CWnd@@MAEHVCPoint@@N@Z
	DD	FLAT:?OnGestureTwoFingerTap@CWnd@@MAEHVCPoint@@@Z
	DD	FLAT:?OnGesturePressAndTap@CWnd@@MAEHVCPoint@@J@Z
	DD	FLAT:?ResizeDynamicLayout@CWnd@@MAEXXZ
	DD	FLAT:?CheckAutoCenter@CWnd@@UAEHXZ
	DD	FLAT:?IsFrameWnd@CWnd@@UBEHXZ
	DD	FLAT:?CreateControlContainer@CWnd@@MAEHPAPAVCOleControlContainer@@@Z
	DD	FLAT:?CreateControlSite@CWnd@@MAEHPAVCOleControlContainer@@PAPAVCOleControlSite@@IABU_GUID@@@Z
	DD	FLAT:?SetOccDialogInfo@CWnd@@MAEHPAU_AFX_OCC_DIALOG_INFO@@@Z
	DD	FLAT:?GetOccDialogInfo@CWnd@@MAEPAU_AFX_OCC_DIALOG_INFO@@XZ
	DD	FLAT:?DrawItem@CListCtrl@@UAEXPAUtagDRAWITEMSTRUCT@@@Z
CONST	ENDS
;	COMDAT ??_7CCommonDialog@@6B@
CONST	SEGMENT
??_7CCommonDialog@@6B@ DD FLAT:??_R4CCommonDialog@@6B@	; CCommonDialog::`vftable'
	DD	FLAT:?GetRuntimeClass@CCommonDialog@@UBEPAUCRuntimeClass@@XZ
	DD	FLAT:??_ECCommonDialog@@UAEPAXI@Z
	DD	FLAT:?Serialize@CObject@@UAEXAAVCArchive@@@Z
	DD	FLAT:?AssertValid@CObject@@UBEXXZ
	DD	FLAT:?Dump@CObject@@UBEXAAVCDumpContext@@@Z
	DD	FLAT:?OnCmdMsg@CDialog@@UAEHIHPAXPAUAFX_CMDHANDLERINFO@@@Z
	DD	FLAT:?OnFinalRelease@CWnd@@UAEXXZ
	DD	FLAT:?IsInvokeAllowed@CCmdTarget@@UAEHJ@Z
	DD	FLAT:?GetDispatchIID@CCmdTarget@@UAEHPAU_GUID@@@Z
	DD	FLAT:?GetTypeInfoCount@CCmdTarget@@UAEIXZ
	DD	FLAT:?GetTypeLibCache@CCmdTarget@@UAEPAVCTypeLibCache@@XZ
	DD	FLAT:?GetTypeLib@CCmdTarget@@UAEJKPAPAUITypeLib@@@Z
	DD	FLAT:?GetMessageMap@CCommonDialog@@MBEPBUAFX_MSGMAP@@XZ
	DD	FLAT:?GetCommandMap@CCmdTarget@@MBEPBUAFX_OLECMDMAP@@XZ
	DD	FLAT:?GetDispatchMap@CCmdTarget@@MBEPBUAFX_DISPMAP@@XZ
	DD	FLAT:?GetConnectionMap@CCmdTarget@@MBEPBUAFX_CONNECTIONMAP@@XZ
	DD	FLAT:?GetInterfaceMap@CWnd@@MBEPBUAFX_INTERFACEMAP@@XZ
	DD	FLAT:?GetEventSinkMap@CCmdTarget@@MBEPBUAFX_EVENTSINKMAP@@XZ
	DD	FLAT:?OnCreateAggregates@CCmdTarget@@UAEHXZ
	DD	FLAT:?GetInterfaceHook@CCmdTarget@@UAEPAUIUnknown@@PBX@Z
	DD	FLAT:?GetExtraConnectionPoints@CCmdTarget@@MAEHPAVCPtrArray@@@Z
	DD	FLAT:?GetConnectionHook@CCmdTarget@@MAEPAUIConnectionPoint@@ABU_GUID@@@Z
	DD	FLAT:?PreSubclassWindow@CWnd@@UAEXXZ
	DD	FLAT:?Create@CWnd@@UAEHPBD0KABUtagRECT@@PAV1@IPAUCCreateContext@@@Z
	DD	FLAT:?CreateEx@CWnd@@UAEHKPBD0KABUtagRECT@@PAV1@IPAX@Z
	DD	FLAT:?CreateEx@CWnd@@UAEHKPBD0KHHHHPAUHWND__@@PAUHMENU__@@PAX@Z
	DD	FLAT:?DestroyWindow@CWnd@@UAEHXZ
	DD	FLAT:?PreCreateWindow@CWnd@@UAEHAAUtagCREATESTRUCTA@@@Z
	DD	FLAT:?CalcWindowRect@CWnd@@UAEXPAUtagRECT@@I@Z
	DD	FLAT:?GetMenu@CWnd@@UBEPAVCMenu@@XZ
	DD	FLAT:?SetMenu@CWnd@@UAEHPAVCMenu@@@Z
	DD	FLAT:?OnToolHitTest@CWnd@@UBEHVCPoint@@PAUtagTOOLINFOA@@@Z
	DD	FLAT:?GetScrollBarCtrl@CWnd@@UBEPAVCScrollBar@@H@Z
	DD	FLAT:?WinHelpA@CWnd@@UAEXKI@Z
	DD	FLAT:?HtmlHelpA@CWnd@@UAEXKI@Z
	DD	FLAT:?WinHelpInternal@CWnd@@UAEXKI@Z
	DD	FLAT:?ContinueModal@CWnd@@UAEHXZ
	DD	FLAT:?EndModalLoop@CWnd@@UAEXH@Z
	DD	FLAT:?OnDrawIconicThumbnailOrLivePreview@CWnd@@UAEXAAVCDC@@VCRect@@VCSize@@HAAH@Z
	DD	FLAT:?EnsureStdObj@CWnd@@UAEJXZ
	DD	FLAT:?get_accParent@CWnd@@UAEJPAPAUIDispatch@@@Z
	DD	FLAT:?get_accChildCount@CWnd@@UAEJPAJ@Z
	DD	FLAT:?get_accChild@CWnd@@UAEJUtagVARIANT@@PAPAUIDispatch@@@Z
	DD	FLAT:?get_accName@CWnd@@UAEJUtagVARIANT@@PAPA_W@Z
	DD	FLAT:?get_accValue@CWnd@@UAEJUtagVARIANT@@PAPA_W@Z
	DD	FLAT:?get_accDescription@CWnd@@UAEJUtagVARIANT@@PAPA_W@Z
	DD	FLAT:?get_accRole@CWnd@@UAEJUtagVARIANT@@PAU2@@Z
	DD	FLAT:?get_accState@CWnd@@UAEJUtagVARIANT@@PAU2@@Z
	DD	FLAT:?get_accHelp@CWnd@@UAEJUtagVARIANT@@PAPA_W@Z
	DD	FLAT:?get_accHelpTopic@CWnd@@UAEJPAPA_WUtagVARIANT@@PAJ@Z
	DD	FLAT:?get_accKeyboardShortcut@CWnd@@UAEJUtagVARIANT@@PAPA_W@Z
	DD	FLAT:?get_accFocus@CWnd@@UAEJPAUtagVARIANT@@@Z
	DD	FLAT:?get_accSelection@CWnd@@UAEJPAUtagVARIANT@@@Z
	DD	FLAT:?get_accDefaultAction@CWnd@@UAEJUtagVARIANT@@PAPA_W@Z
	DD	FLAT:?accSelect@CWnd@@UAEJJUtagVARIANT@@@Z
	DD	FLAT:?accLocation@CWnd@@UAEJPAJ000UtagVARIANT@@@Z
	DD	FLAT:?accNavigate@CWnd@@UAEJJUtagVARIANT@@PAU2@@Z
	DD	FLAT:?accHitTest@CWnd@@UAEJJJPAUtagVARIANT@@@Z
	DD	FLAT:?accDoDefaultAction@CWnd@@UAEJUtagVARIANT@@@Z
	DD	FLAT:?put_accName@CWnd@@UAEJUtagVARIANT@@PA_W@Z
	DD	FLAT:?put_accValue@CWnd@@UAEJUtagVARIANT@@PA_W@Z
	DD	FLAT:?SetProxy@CWnd@@UAEJPAUIAccessibleProxy@@@Z
	DD	FLAT:?CreateAccessibleProxy@CWnd@@UAEJIJPAJ@Z
	DD	FLAT:?OnCommand@CWnd@@MAEHIJ@Z
	DD	FLAT:?OnNotify@CWnd@@MAEHIJPAJ@Z
	DD	FLAT:?GetSuperWndProcAddr@CWnd@@MAEPAP6GJPAUHWND__@@IIJ@ZXZ
	DD	FLAT:?DoDataExchange@CWnd@@MAEXPAVCDataExchange@@@Z
	DD	FLAT:?BeginModalState@CWnd@@UAEXXZ
	DD	FLAT:?EndModalState@CWnd@@UAEXXZ
	DD	FLAT:?PreTranslateMessage@CDialog@@UAEHPAUtagMSG@@@Z
	DD	FLAT:?OnAmbientProperty@CWnd@@UAEHPAVCOleControlSite@@JPAUtagVARIANT@@@Z
	DD	FLAT:?WindowProc@CWnd@@MAEJIIJ@Z
	DD	FLAT:?OnWndMsg@CWnd@@MAEHIIJPAJ@Z
	DD	FLAT:?DefWindowProcA@CWnd@@MAEJIIJ@Z
	DD	FLAT:?PostNcDestroy@CWnd@@MAEXXZ
	DD	FLAT:?OnChildNotify@CWnd@@MAEHIIJPAJ@Z
	DD	FLAT:?OnTouchInputs@CWnd@@MAEHIPAUtagTOUCHINPUT@@@Z
	DD	FLAT:?OnTouchInput@CWnd@@MAEHVCPoint@@HHPAUtagTOUCHINPUT@@@Z
	DD	FLAT:?GetGestureStatus@CWnd@@MAEKVCPoint@@@Z
	DD	FLAT:?OnGestureZoom@CWnd@@MAEHVCPoint@@J@Z
	DD	FLAT:?OnGesturePan@CWnd@@MAEHVCPoint@@0@Z
	DD	FLAT:?OnGestureRotate@CWnd@@MAEHVCPoint@@N@Z
	DD	FLAT:?OnGestureTwoFingerTap@CWnd@@MAEHVCPoint@@@Z
	DD	FLAT:?OnGesturePressAndTap@CWnd@@MAEHVCPoint@@J@Z
	DD	FLAT:?ResizeDynamicLayout@CWnd@@MAEXXZ
	DD	FLAT:?CheckAutoCenter@CDialog@@UAEHXZ
	DD	FLAT:?IsFrameWnd@CWnd@@UBEHXZ
	DD	FLAT:?CreateControlContainer@CWnd@@MAEHPAPAVCOleControlContainer@@@Z
	DD	FLAT:?CreateControlSite@CWnd@@MAEHPAVCOleControlContainer@@PAPAVCOleControlSite@@IABU_GUID@@@Z
	DD	FLAT:?SetOccDialogInfo@CDialog@@MAEHPAU_AFX_OCC_DIALOG_INFO@@@Z
	DD	FLAT:?GetOccDialogInfo@CDialog@@MAEPAU_AFX_OCC_DIALOG_INFO@@XZ
	DD	FLAT:?Create@CDialog@@UAEHIPAVCWnd@@@Z
	DD	FLAT:?Create@CDialog@@UAEHPBDPAVCWnd@@@Z
	DD	FLAT:?CreateIndirect@CDialog@@UAEHPAXPAVCWnd@@@Z
	DD	FLAT:?CreateIndirect@CDialog@@UAEHPBUDLGTEMPLATE@@PAVCWnd@@PAX@Z
	DD	FLAT:?DoModal@CDialog@@UAEHXZ
	DD	FLAT:?OnInitDialog@CDialog@@UAEHXZ
	DD	FLAT:?OnSetFont@CDialog@@UAEXPAVCFont@@@Z
	DD	FLAT:?OnOK@CCommonDialog@@MAEXXZ
	DD	FLAT:?OnCancel@CCommonDialog@@MAEXXZ
	DD	FLAT:?PreInitDialog@CDialog@@MAEXXZ
CONST	ENDS
;	COMDAT ??_7CEdit@@6B@
CONST	SEGMENT
??_7CEdit@@6B@ DD FLAT:??_R4CEdit@@6B@			; CEdit::`vftable'
	DD	FLAT:?GetRuntimeClass@CEdit@@UBEPAUCRuntimeClass@@XZ
	DD	FLAT:??_ECEdit@@UAEPAXI@Z
	DD	FLAT:?Serialize@CObject@@UAEXAAVCArchive@@@Z
	DD	FLAT:?AssertValid@CObject@@UBEXXZ
	DD	FLAT:?Dump@CObject@@UBEXAAVCDumpContext@@@Z
	DD	FLAT:?OnCmdMsg@CCmdTarget@@UAEHIHPAXPAUAFX_CMDHANDLERINFO@@@Z
	DD	FLAT:?OnFinalRelease@CWnd@@UAEXXZ
	DD	FLAT:?IsInvokeAllowed@CCmdTarget@@UAEHJ@Z
	DD	FLAT:?GetDispatchIID@CCmdTarget@@UAEHPAU_GUID@@@Z
	DD	FLAT:?GetTypeInfoCount@CCmdTarget@@UAEIXZ
	DD	FLAT:?GetTypeLibCache@CCmdTarget@@UAEPAVCTypeLibCache@@XZ
	DD	FLAT:?GetTypeLib@CCmdTarget@@UAEJKPAPAUITypeLib@@@Z
	DD	FLAT:?GetMessageMap@CWnd@@MBEPBUAFX_MSGMAP@@XZ
	DD	FLAT:?GetCommandMap@CCmdTarget@@MBEPBUAFX_OLECMDMAP@@XZ
	DD	FLAT:?GetDispatchMap@CCmdTarget@@MBEPBUAFX_DISPMAP@@XZ
	DD	FLAT:?GetConnectionMap@CCmdTarget@@MBEPBUAFX_CONNECTIONMAP@@XZ
	DD	FLAT:?GetInterfaceMap@CWnd@@MBEPBUAFX_INTERFACEMAP@@XZ
	DD	FLAT:?GetEventSinkMap@CCmdTarget@@MBEPBUAFX_EVENTSINKMAP@@XZ
	DD	FLAT:?OnCreateAggregates@CCmdTarget@@UAEHXZ
	DD	FLAT:?GetInterfaceHook@CCmdTarget@@UAEPAUIUnknown@@PBX@Z
	DD	FLAT:?GetExtraConnectionPoints@CCmdTarget@@MAEHPAVCPtrArray@@@Z
	DD	FLAT:?GetConnectionHook@CCmdTarget@@MAEPAUIConnectionPoint@@ABU_GUID@@@Z
	DD	FLAT:?PreSubclassWindow@CWnd@@UAEXXZ
	DD	FLAT:?Create@CWnd@@UAEHPBD0KABUtagRECT@@PAV1@IPAUCCreateContext@@@Z
	DD	FLAT:?CreateEx@CWnd@@UAEHKPBD0KABUtagRECT@@PAV1@IPAX@Z
	DD	FLAT:?CreateEx@CWnd@@UAEHKPBD0KHHHHPAUHWND__@@PAUHMENU__@@PAX@Z
	DD	FLAT:?DestroyWindow@CWnd@@UAEHXZ
	DD	FLAT:?PreCreateWindow@CWnd@@UAEHAAUtagCREATESTRUCTA@@@Z
	DD	FLAT:?CalcWindowRect@CWnd@@UAEXPAUtagRECT@@I@Z
	DD	FLAT:?GetMenu@CWnd@@UBEPAVCMenu@@XZ
	DD	FLAT:?SetMenu@CWnd@@UAEHPAVCMenu@@@Z
	DD	FLAT:?OnToolHitTest@CWnd@@UBEHVCPoint@@PAUtagTOOLINFOA@@@Z
	DD	FLAT:?GetScrollBarCtrl@CWnd@@UBEPAVCScrollBar@@H@Z
	DD	FLAT:?WinHelpA@CWnd@@UAEXKI@Z
	DD	FLAT:?HtmlHelpA@CWnd@@UAEXKI@Z
	DD	FLAT:?WinHelpInternal@CWnd@@UAEXKI@Z
	DD	FLAT:?ContinueModal@CWnd@@UAEHXZ
	DD	FLAT:?EndModalLoop@CWnd@@UAEXH@Z
	DD	FLAT:?OnDrawIconicThumbnailOrLivePreview@CWnd@@UAEXAAVCDC@@VCRect@@VCSize@@HAAH@Z
	DD	FLAT:?EnsureStdObj@CWnd@@UAEJXZ
	DD	FLAT:?get_accParent@CWnd@@UAEJPAPAUIDispatch@@@Z
	DD	FLAT:?get_accChildCount@CWnd@@UAEJPAJ@Z
	DD	FLAT:?get_accChild@CWnd@@UAEJUtagVARIANT@@PAPAUIDispatch@@@Z
	DD	FLAT:?get_accName@CWnd@@UAEJUtagVARIANT@@PAPA_W@Z
	DD	FLAT:?get_accValue@CWnd@@UAEJUtagVARIANT@@PAPA_W@Z
	DD	FLAT:?get_accDescription@CWnd@@UAEJUtagVARIANT@@PAPA_W@Z
	DD	FLAT:?get_accRole@CWnd@@UAEJUtagVARIANT@@PAU2@@Z
	DD	FLAT:?get_accState@CWnd@@UAEJUtagVARIANT@@PAU2@@Z
	DD	FLAT:?get_accHelp@CWnd@@UAEJUtagVARIANT@@PAPA_W@Z
	DD	FLAT:?get_accHelpTopic@CWnd@@UAEJPAPA_WUtagVARIANT@@PAJ@Z
	DD	FLAT:?get_accKeyboardShortcut@CWnd@@UAEJUtagVARIANT@@PAPA_W@Z
	DD	FLAT:?get_accFocus@CWnd@@UAEJPAUtagVARIANT@@@Z
	DD	FLAT:?get_accSelection@CWnd@@UAEJPAUtagVARIANT@@@Z
	DD	FLAT:?get_accDefaultAction@CWnd@@UAEJUtagVARIANT@@PAPA_W@Z
	DD	FLAT:?accSelect@CWnd@@UAEJJUtagVARIANT@@@Z
	DD	FLAT:?accLocation@CWnd@@UAEJPAJ000UtagVARIANT@@@Z
	DD	FLAT:?accNavigate@CWnd@@UAEJJUtagVARIANT@@PAU2@@Z
	DD	FLAT:?accHitTest@CWnd@@UAEJJJPAUtagVARIANT@@@Z
	DD	FLAT:?accDoDefaultAction@CWnd@@UAEJUtagVARIANT@@@Z
	DD	FLAT:?put_accName@CWnd@@UAEJUtagVARIANT@@PA_W@Z
	DD	FLAT:?put_accValue@CWnd@@UAEJUtagVARIANT@@PA_W@Z
	DD	FLAT:?SetProxy@CWnd@@UAEJPAUIAccessibleProxy@@@Z
	DD	FLAT:?CreateAccessibleProxy@CWnd@@UAEJIJPAJ@Z
	DD	FLAT:?OnCommand@CWnd@@MAEHIJ@Z
	DD	FLAT:?OnNotify@CWnd@@MAEHIJPAJ@Z
	DD	FLAT:?GetSuperWndProcAddr@CWnd@@MAEPAP6GJPAUHWND__@@IIJ@ZXZ
	DD	FLAT:?DoDataExchange@CWnd@@MAEXPAVCDataExchange@@@Z
	DD	FLAT:?BeginModalState@CWnd@@UAEXXZ
	DD	FLAT:?EndModalState@CWnd@@UAEXXZ
	DD	FLAT:?PreTranslateMessage@CWnd@@UAEHPAUtagMSG@@@Z
	DD	FLAT:?OnAmbientProperty@CWnd@@UAEHPAVCOleControlSite@@JPAUtagVARIANT@@@Z
	DD	FLAT:?WindowProc@CWnd@@MAEJIIJ@Z
	DD	FLAT:?OnWndMsg@CWnd@@MAEHIIJPAJ@Z
	DD	FLAT:?DefWindowProcA@CWnd@@MAEJIIJ@Z
	DD	FLAT:?PostNcDestroy@CWnd@@MAEXXZ
	DD	FLAT:?OnChildNotify@CWnd@@MAEHIIJPAJ@Z
	DD	FLAT:?OnTouchInputs@CWnd@@MAEHIPAUtagTOUCHINPUT@@@Z
	DD	FLAT:?OnTouchInput@CWnd@@MAEHVCPoint@@HHPAUtagTOUCHINPUT@@@Z
	DD	FLAT:?GetGestureStatus@CWnd@@MAEKVCPoint@@@Z
	DD	FLAT:?OnGestureZoom@CWnd@@MAEHVCPoint@@J@Z
	DD	FLAT:?OnGesturePan@CWnd@@MAEHVCPoint@@0@Z
	DD	FLAT:?OnGestureRotate@CWnd@@MAEHVCPoint@@N@Z
	DD	FLAT:?OnGestureTwoFingerTap@CWnd@@MAEHVCPoint@@@Z
	DD	FLAT:?OnGesturePressAndTap@CWnd@@MAEHVCPoint@@J@Z
	DD	FLAT:?ResizeDynamicLayout@CWnd@@MAEXXZ
	DD	FLAT:?CheckAutoCenter@CWnd@@UAEHXZ
	DD	FLAT:?IsFrameWnd@CWnd@@UBEHXZ
	DD	FLAT:?CreateControlContainer@CWnd@@MAEHPAPAVCOleControlContainer@@@Z
	DD	FLAT:?CreateControlSite@CWnd@@MAEHPAVCOleControlContainer@@PAPAVCOleControlSite@@IABU_GUID@@@Z
	DD	FLAT:?SetOccDialogInfo@CWnd@@MAEHPAU_AFX_OCC_DIALOG_INFO@@@Z
	DD	FLAT:?GetOccDialogInfo@CWnd@@MAEPAU_AFX_OCC_DIALOG_INFO@@XZ
CONST	ENDS
;	COMDAT ??_7CComboBox@@6B@
CONST	SEGMENT
??_7CComboBox@@6B@ DD FLAT:??_R4CComboBox@@6B@		; CComboBox::`vftable'
	DD	FLAT:?GetRuntimeClass@CComboBox@@UBEPAUCRuntimeClass@@XZ
	DD	FLAT:??_ECComboBox@@UAEPAXI@Z
	DD	FLAT:?Serialize@CObject@@UAEXAAVCArchive@@@Z
	DD	FLAT:?AssertValid@CObject@@UBEXXZ
	DD	FLAT:?Dump@CObject@@UBEXAAVCDumpContext@@@Z
	DD	FLAT:?OnCmdMsg@CCmdTarget@@UAEHIHPAXPAUAFX_CMDHANDLERINFO@@@Z
	DD	FLAT:?OnFinalRelease@CWnd@@UAEXXZ
	DD	FLAT:?IsInvokeAllowed@CCmdTarget@@UAEHJ@Z
	DD	FLAT:?GetDispatchIID@CCmdTarget@@UAEHPAU_GUID@@@Z
	DD	FLAT:?GetTypeInfoCount@CCmdTarget@@UAEIXZ
	DD	FLAT:?GetTypeLibCache@CCmdTarget@@UAEPAVCTypeLibCache@@XZ
	DD	FLAT:?GetTypeLib@CCmdTarget@@UAEJKPAPAUITypeLib@@@Z
	DD	FLAT:?GetMessageMap@CWnd@@MBEPBUAFX_MSGMAP@@XZ
	DD	FLAT:?GetCommandMap@CCmdTarget@@MBEPBUAFX_OLECMDMAP@@XZ
	DD	FLAT:?GetDispatchMap@CCmdTarget@@MBEPBUAFX_DISPMAP@@XZ
	DD	FLAT:?GetConnectionMap@CCmdTarget@@MBEPBUAFX_CONNECTIONMAP@@XZ
	DD	FLAT:?GetInterfaceMap@CWnd@@MBEPBUAFX_INTERFACEMAP@@XZ
	DD	FLAT:?GetEventSinkMap@CCmdTarget@@MBEPBUAFX_EVENTSINKMAP@@XZ
	DD	FLAT:?OnCreateAggregates@CCmdTarget@@UAEHXZ
	DD	FLAT:?GetInterfaceHook@CCmdTarget@@UAEPAUIUnknown@@PBX@Z
	DD	FLAT:?GetExtraConnectionPoints@CCmdTarget@@MAEHPAVCPtrArray@@@Z
	DD	FLAT:?GetConnectionHook@CCmdTarget@@MAEPAUIConnectionPoint@@ABU_GUID@@@Z
	DD	FLAT:?PreSubclassWindow@CWnd@@UAEXXZ
	DD	FLAT:?Create@CWnd@@UAEHPBD0KABUtagRECT@@PAV1@IPAUCCreateContext@@@Z
	DD	FLAT:?CreateEx@CWnd@@UAEHKPBD0KABUtagRECT@@PAV1@IPAX@Z
	DD	FLAT:?CreateEx@CWnd@@UAEHKPBD0KHHHHPAUHWND__@@PAUHMENU__@@PAX@Z
	DD	FLAT:?DestroyWindow@CWnd@@UAEHXZ
	DD	FLAT:?PreCreateWindow@CWnd@@UAEHAAUtagCREATESTRUCTA@@@Z
	DD	FLAT:?CalcWindowRect@CWnd@@UAEXPAUtagRECT@@I@Z
	DD	FLAT:?GetMenu@CWnd@@UBEPAVCMenu@@XZ
	DD	FLAT:?SetMenu@CWnd@@UAEHPAVCMenu@@@Z
	DD	FLAT:?OnToolHitTest@CWnd@@UBEHVCPoint@@PAUtagTOOLINFOA@@@Z
	DD	FLAT:?GetScrollBarCtrl@CWnd@@UBEPAVCScrollBar@@H@Z
	DD	FLAT:?WinHelpA@CWnd@@UAEXKI@Z
	DD	FLAT:?HtmlHelpA@CWnd@@UAEXKI@Z
	DD	FLAT:?WinHelpInternal@CWnd@@UAEXKI@Z
	DD	FLAT:?ContinueModal@CWnd@@UAEHXZ
	DD	FLAT:?EndModalLoop@CWnd@@UAEXH@Z
	DD	FLAT:?OnDrawIconicThumbnailOrLivePreview@CWnd@@UAEXAAVCDC@@VCRect@@VCSize@@HAAH@Z
	DD	FLAT:?EnsureStdObj@CWnd@@UAEJXZ
	DD	FLAT:?get_accParent@CWnd@@UAEJPAPAUIDispatch@@@Z
	DD	FLAT:?get_accChildCount@CWnd@@UAEJPAJ@Z
	DD	FLAT:?get_accChild@CWnd@@UAEJUtagVARIANT@@PAPAUIDispatch@@@Z
	DD	FLAT:?get_accName@CWnd@@UAEJUtagVARIANT@@PAPA_W@Z
	DD	FLAT:?get_accValue@CWnd@@UAEJUtagVARIANT@@PAPA_W@Z
	DD	FLAT:?get_accDescription@CWnd@@UAEJUtagVARIANT@@PAPA_W@Z
	DD	FLAT:?get_accRole@CWnd@@UAEJUtagVARIANT@@PAU2@@Z
	DD	FLAT:?get_accState@CWnd@@UAEJUtagVARIANT@@PAU2@@Z
	DD	FLAT:?get_accHelp@CWnd@@UAEJUtagVARIANT@@PAPA_W@Z
	DD	FLAT:?get_accHelpTopic@CWnd@@UAEJPAPA_WUtagVARIANT@@PAJ@Z
	DD	FLAT:?get_accKeyboardShortcut@CWnd@@UAEJUtagVARIANT@@PAPA_W@Z
	DD	FLAT:?get_accFocus@CWnd@@UAEJPAUtagVARIANT@@@Z
	DD	FLAT:?get_accSelection@CWnd@@UAEJPAUtagVARIANT@@@Z
	DD	FLAT:?get_accDefaultAction@CWnd@@UAEJUtagVARIANT@@PAPA_W@Z
	DD	FLAT:?accSelect@CWnd@@UAEJJUtagVARIANT@@@Z
	DD	FLAT:?accLocation@CWnd@@UAEJPAJ000UtagVARIANT@@@Z
	DD	FLAT:?accNavigate@CWnd@@UAEJJUtagVARIANT@@PAU2@@Z
	DD	FLAT:?accHitTest@CWnd@@UAEJJJPAUtagVARIANT@@@Z
	DD	FLAT:?accDoDefaultAction@CWnd@@UAEJUtagVARIANT@@@Z
	DD	FLAT:?put_accName@CWnd@@UAEJUtagVARIANT@@PA_W@Z
	DD	FLAT:?put_accValue@CWnd@@UAEJUtagVARIANT@@PA_W@Z
	DD	FLAT:?SetProxy@CWnd@@UAEJPAUIAccessibleProxy@@@Z
	DD	FLAT:?CreateAccessibleProxy@CWnd@@UAEJIJPAJ@Z
	DD	FLAT:?OnCommand@CWnd@@MAEHIJ@Z
	DD	FLAT:?OnNotify@CWnd@@MAEHIJPAJ@Z
	DD	FLAT:?GetSuperWndProcAddr@CWnd@@MAEPAP6GJPAUHWND__@@IIJ@ZXZ
	DD	FLAT:?DoDataExchange@CWnd@@MAEXPAVCDataExchange@@@Z
	DD	FLAT:?BeginModalState@CWnd@@UAEXXZ
	DD	FLAT:?EndModalState@CWnd@@UAEXXZ
	DD	FLAT:?PreTranslateMessage@CWnd@@UAEHPAUtagMSG@@@Z
	DD	FLAT:?OnAmbientProperty@CWnd@@UAEHPAVCOleControlSite@@JPAUtagVARIANT@@@Z
	DD	FLAT:?WindowProc@CWnd@@MAEJIIJ@Z
	DD	FLAT:?OnWndMsg@CWnd@@MAEHIIJPAJ@Z
	DD	FLAT:?DefWindowProcA@CWnd@@MAEJIIJ@Z
	DD	FLAT:?PostNcDestroy@CWnd@@MAEXXZ
	DD	FLAT:?OnChildNotify@CComboBox@@MAEHIIJPAJ@Z
	DD	FLAT:?OnTouchInputs@CWnd@@MAEHIPAUtagTOUCHINPUT@@@Z
	DD	FLAT:?OnTouchInput@CWnd@@MAEHVCPoint@@HHPAUtagTOUCHINPUT@@@Z
	DD	FLAT:?GetGestureStatus@CWnd@@MAEKVCPoint@@@Z
	DD	FLAT:?OnGestureZoom@CWnd@@MAEHVCPoint@@J@Z
	DD	FLAT:?OnGesturePan@CWnd@@MAEHVCPoint@@0@Z
	DD	FLAT:?OnGestureRotate@CWnd@@MAEHVCPoint@@N@Z
	DD	FLAT:?OnGestureTwoFingerTap@CWnd@@MAEHVCPoint@@@Z
	DD	FLAT:?OnGesturePressAndTap@CWnd@@MAEHVCPoint@@J@Z
	DD	FLAT:?ResizeDynamicLayout@CWnd@@MAEXXZ
	DD	FLAT:?CheckAutoCenter@CWnd@@UAEHXZ
	DD	FLAT:?IsFrameWnd@CWnd@@UBEHXZ
	DD	FLAT:?CreateControlContainer@CWnd@@MAEHPAPAVCOleControlContainer@@@Z
	DD	FLAT:?CreateControlSite@CWnd@@MAEHPAVCOleControlContainer@@PAPAVCOleControlSite@@IABU_GUID@@@Z
	DD	FLAT:?SetOccDialogInfo@CWnd@@MAEHPAU_AFX_OCC_DIALOG_INFO@@@Z
	DD	FLAT:?GetOccDialogInfo@CWnd@@MAEPAU_AFX_OCC_DIALOG_INFO@@XZ
	DD	FLAT:?Create@CComboBox@@UAEHKABUtagRECT@@PAVCWnd@@I@Z
	DD	FLAT:?DrawItem@CComboBox@@UAEXPAUtagDRAWITEMSTRUCT@@@Z
	DD	FLAT:?MeasureItem@CComboBox@@UAEXPAUtagMEASUREITEMSTRUCT@@@Z
	DD	FLAT:?CompareItem@CComboBox@@UAEHPAUtagCOMPAREITEMSTRUCT@@@Z
	DD	FLAT:?DeleteItem@CComboBox@@UAEXPAUtagDELETEITEMSTRUCT@@@Z
CONST	ENDS
;	COMDAT ??_7CButton@@6B@
CONST	SEGMENT
??_7CButton@@6B@ DD FLAT:??_R4CButton@@6B@		; CButton::`vftable'
	DD	FLAT:?GetRuntimeClass@CButton@@UBEPAUCRuntimeClass@@XZ
	DD	FLAT:??_ECButton@@UAEPAXI@Z
	DD	FLAT:?Serialize@CObject@@UAEXAAVCArchive@@@Z
	DD	FLAT:?AssertValid@CObject@@UBEXXZ
	DD	FLAT:?Dump@CObject@@UBEXAAVCDumpContext@@@Z
	DD	FLAT:?OnCmdMsg@CCmdTarget@@UAEHIHPAXPAUAFX_CMDHANDLERINFO@@@Z
	DD	FLAT:?OnFinalRelease@CWnd@@UAEXXZ
	DD	FLAT:?IsInvokeAllowed@CCmdTarget@@UAEHJ@Z
	DD	FLAT:?GetDispatchIID@CCmdTarget@@UAEHPAU_GUID@@@Z
	DD	FLAT:?GetTypeInfoCount@CCmdTarget@@UAEIXZ
	DD	FLAT:?GetTypeLibCache@CCmdTarget@@UAEPAVCTypeLibCache@@XZ
	DD	FLAT:?GetTypeLib@CCmdTarget@@UAEJKPAPAUITypeLib@@@Z
	DD	FLAT:?GetMessageMap@CWnd@@MBEPBUAFX_MSGMAP@@XZ
	DD	FLAT:?GetCommandMap@CCmdTarget@@MBEPBUAFX_OLECMDMAP@@XZ
	DD	FLAT:?GetDispatchMap@CCmdTarget@@MBEPBUAFX_DISPMAP@@XZ
	DD	FLAT:?GetConnectionMap@CCmdTarget@@MBEPBUAFX_CONNECTIONMAP@@XZ
	DD	FLAT:?GetInterfaceMap@CWnd@@MBEPBUAFX_INTERFACEMAP@@XZ
	DD	FLAT:?GetEventSinkMap@CCmdTarget@@MBEPBUAFX_EVENTSINKMAP@@XZ
	DD	FLAT:?OnCreateAggregates@CCmdTarget@@UAEHXZ
	DD	FLAT:?GetInterfaceHook@CCmdTarget@@UAEPAUIUnknown@@PBX@Z
	DD	FLAT:?GetExtraConnectionPoints@CCmdTarget@@MAEHPAVCPtrArray@@@Z
	DD	FLAT:?GetConnectionHook@CCmdTarget@@MAEPAUIConnectionPoint@@ABU_GUID@@@Z
	DD	FLAT:?PreSubclassWindow@CWnd@@UAEXXZ
	DD	FLAT:?Create@CWnd@@UAEHPBD0KABUtagRECT@@PAV1@IPAUCCreateContext@@@Z
	DD	FLAT:?CreateEx@CWnd@@UAEHKPBD0KABUtagRECT@@PAV1@IPAX@Z
	DD	FLAT:?CreateEx@CWnd@@UAEHKPBD0KHHHHPAUHWND__@@PAUHMENU__@@PAX@Z
	DD	FLAT:?DestroyWindow@CWnd@@UAEHXZ
	DD	FLAT:?PreCreateWindow@CWnd@@UAEHAAUtagCREATESTRUCTA@@@Z
	DD	FLAT:?CalcWindowRect@CWnd@@UAEXPAUtagRECT@@I@Z
	DD	FLAT:?GetMenu@CWnd@@UBEPAVCMenu@@XZ
	DD	FLAT:?SetMenu@CWnd@@UAEHPAVCMenu@@@Z
	DD	FLAT:?OnToolHitTest@CWnd@@UBEHVCPoint@@PAUtagTOOLINFOA@@@Z
	DD	FLAT:?GetScrollBarCtrl@CWnd@@UBEPAVCScrollBar@@H@Z
	DD	FLAT:?WinHelpA@CWnd@@UAEXKI@Z
	DD	FLAT:?HtmlHelpA@CWnd@@UAEXKI@Z
	DD	FLAT:?WinHelpInternal@CWnd@@UAEXKI@Z
	DD	FLAT:?ContinueModal@CWnd@@UAEHXZ
	DD	FLAT:?EndModalLoop@CWnd@@UAEXH@Z
	DD	FLAT:?OnDrawIconicThumbnailOrLivePreview@CWnd@@UAEXAAVCDC@@VCRect@@VCSize@@HAAH@Z
	DD	FLAT:?EnsureStdObj@CWnd@@UAEJXZ
	DD	FLAT:?get_accParent@CWnd@@UAEJPAPAUIDispatch@@@Z
	DD	FLAT:?get_accChildCount@CWnd@@UAEJPAJ@Z
	DD	FLAT:?get_accChild@CWnd@@UAEJUtagVARIANT@@PAPAUIDispatch@@@Z
	DD	FLAT:?get_accName@CWnd@@UAEJUtagVARIANT@@PAPA_W@Z
	DD	FLAT:?get_accValue@CWnd@@UAEJUtagVARIANT@@PAPA_W@Z
	DD	FLAT:?get_accDescription@CWnd@@UAEJUtagVARIANT@@PAPA_W@Z
	DD	FLAT:?get_accRole@CWnd@@UAEJUtagVARIANT@@PAU2@@Z
	DD	FLAT:?get_accState@CWnd@@UAEJUtagVARIANT@@PAU2@@Z
	DD	FLAT:?get_accHelp@CWnd@@UAEJUtagVARIANT@@PAPA_W@Z
	DD	FLAT:?get_accHelpTopic@CWnd@@UAEJPAPA_WUtagVARIANT@@PAJ@Z
	DD	FLAT:?get_accKeyboardShortcut@CWnd@@UAEJUtagVARIANT@@PAPA_W@Z
	DD	FLAT:?get_accFocus@CWnd@@UAEJPAUtagVARIANT@@@Z
	DD	FLAT:?get_accSelection@CWnd@@UAEJPAUtagVARIANT@@@Z
	DD	FLAT:?get_accDefaultAction@CWnd@@UAEJUtagVARIANT@@PAPA_W@Z
	DD	FLAT:?accSelect@CWnd@@UAEJJUtagVARIANT@@@Z
	DD	FLAT:?accLocation@CWnd@@UAEJPAJ000UtagVARIANT@@@Z
	DD	FLAT:?accNavigate@CWnd@@UAEJJUtagVARIANT@@PAU2@@Z
	DD	FLAT:?accHitTest@CWnd@@UAEJJJPAUtagVARIANT@@@Z
	DD	FLAT:?accDoDefaultAction@CWnd@@UAEJUtagVARIANT@@@Z
	DD	FLAT:?put_accName@CWnd@@UAEJUtagVARIANT@@PA_W@Z
	DD	FLAT:?put_accValue@CWnd@@UAEJUtagVARIANT@@PA_W@Z
	DD	FLAT:?SetProxy@CWnd@@UAEJPAUIAccessibleProxy@@@Z
	DD	FLAT:?CreateAccessibleProxy@CWnd@@UAEJIJPAJ@Z
	DD	FLAT:?OnCommand@CWnd@@MAEHIJ@Z
	DD	FLAT:?OnNotify@CWnd@@MAEHIJPAJ@Z
	DD	FLAT:?GetSuperWndProcAddr@CWnd@@MAEPAP6GJPAUHWND__@@IIJ@ZXZ
	DD	FLAT:?DoDataExchange@CWnd@@MAEXPAVCDataExchange@@@Z
	DD	FLAT:?BeginModalState@CWnd@@UAEXXZ
	DD	FLAT:?EndModalState@CWnd@@UAEXXZ
	DD	FLAT:?PreTranslateMessage@CWnd@@UAEHPAUtagMSG@@@Z
	DD	FLAT:?OnAmbientProperty@CWnd@@UAEHPAVCOleControlSite@@JPAUtagVARIANT@@@Z
	DD	FLAT:?WindowProc@CWnd@@MAEJIIJ@Z
	DD	FLAT:?OnWndMsg@CWnd@@MAEHIIJPAJ@Z
	DD	FLAT:?DefWindowProcA@CWnd@@MAEJIIJ@Z
	DD	FLAT:?PostNcDestroy@CWnd@@MAEXXZ
	DD	FLAT:?OnChildNotify@CButton@@MAEHIIJPAJ@Z
	DD	FLAT:?OnTouchInputs@CWnd@@MAEHIPAUtagTOUCHINPUT@@@Z
	DD	FLAT:?OnTouchInput@CWnd@@MAEHVCPoint@@HHPAUtagTOUCHINPUT@@@Z
	DD	FLAT:?GetGestureStatus@CWnd@@MAEKVCPoint@@@Z
	DD	FLAT:?OnGestureZoom@CWnd@@MAEHVCPoint@@J@Z
	DD	FLAT:?OnGesturePan@CWnd@@MAEHVCPoint@@0@Z
	DD	FLAT:?OnGestureRotate@CWnd@@MAEHVCPoint@@N@Z
	DD	FLAT:?OnGestureTwoFingerTap@CWnd@@MAEHVCPoint@@@Z
	DD	FLAT:?OnGesturePressAndTap@CWnd@@MAEHVCPoint@@J@Z
	DD	FLAT:?ResizeDynamicLayout@CWnd@@MAEXXZ
	DD	FLAT:?CheckAutoCenter@CWnd@@UAEHXZ
	DD	FLAT:?IsFrameWnd@CWnd@@UBEHXZ
	DD	FLAT:?CreateControlContainer@CWnd@@MAEHPAPAVCOleControlContainer@@@Z
	DD	FLAT:?CreateControlSite@CWnd@@MAEHPAVCOleControlContainer@@PAPAVCOleControlSite@@IABU_GUID@@@Z
	DD	FLAT:?SetOccDialogInfo@CWnd@@MAEHPAU_AFX_OCC_DIALOG_INFO@@@Z
	DD	FLAT:?GetOccDialogInfo@CWnd@@MAEPAU_AFX_OCC_DIALOG_INFO@@XZ
	DD	FLAT:?Create@CButton@@UAEHPBDKABUtagRECT@@PAVCWnd@@I@Z
	DD	FLAT:?DrawItem@CButton@@UAEXPAUtagDRAWITEMSTRUCT@@@Z
CONST	ENDS
;	COMDAT ??_7CStatic@@6B@
CONST	SEGMENT
??_7CStatic@@6B@ DD FLAT:??_R4CStatic@@6B@		; CStatic::`vftable'
	DD	FLAT:?GetRuntimeClass@CStatic@@UBEPAUCRuntimeClass@@XZ
	DD	FLAT:??_ECStatic@@UAEPAXI@Z
	DD	FLAT:?Serialize@CObject@@UAEXAAVCArchive@@@Z
	DD	FLAT:?AssertValid@CObject@@UBEXXZ
	DD	FLAT:?Dump@CObject@@UBEXAAVCDumpContext@@@Z
	DD	FLAT:?OnCmdMsg@CCmdTarget@@UAEHIHPAXPAUAFX_CMDHANDLERINFO@@@Z
	DD	FLAT:?OnFinalRelease@CWnd@@UAEXXZ
	DD	FLAT:?IsInvokeAllowed@CCmdTarget@@UAEHJ@Z
	DD	FLAT:?GetDispatchIID@CCmdTarget@@UAEHPAU_GUID@@@Z
	DD	FLAT:?GetTypeInfoCount@CCmdTarget@@UAEIXZ
	DD	FLAT:?GetTypeLibCache@CCmdTarget@@UAEPAVCTypeLibCache@@XZ
	DD	FLAT:?GetTypeLib@CCmdTarget@@UAEJKPAPAUITypeLib@@@Z
	DD	FLAT:?GetMessageMap@CWnd@@MBEPBUAFX_MSGMAP@@XZ
	DD	FLAT:?GetCommandMap@CCmdTarget@@MBEPBUAFX_OLECMDMAP@@XZ
	DD	FLAT:?GetDispatchMap@CCmdTarget@@MBEPBUAFX_DISPMAP@@XZ
	DD	FLAT:?GetConnectionMap@CCmdTarget@@MBEPBUAFX_CONNECTIONMAP@@XZ
	DD	FLAT:?GetInterfaceMap@CWnd@@MBEPBUAFX_INTERFACEMAP@@XZ
	DD	FLAT:?GetEventSinkMap@CCmdTarget@@MBEPBUAFX_EVENTSINKMAP@@XZ
	DD	FLAT:?OnCreateAggregates@CCmdTarget@@UAEHXZ
	DD	FLAT:?GetInterfaceHook@CCmdTarget@@UAEPAUIUnknown@@PBX@Z
	DD	FLAT:?GetExtraConnectionPoints@CCmdTarget@@MAEHPAVCPtrArray@@@Z
	DD	FLAT:?GetConnectionHook@CCmdTarget@@MAEPAUIConnectionPoint@@ABU_GUID@@@Z
	DD	FLAT:?PreSubclassWindow@CWnd@@UAEXXZ
	DD	FLAT:?Create@CWnd@@UAEHPBD0KABUtagRECT@@PAV1@IPAUCCreateContext@@@Z
	DD	FLAT:?CreateEx@CWnd@@UAEHKPBD0KABUtagRECT@@PAV1@IPAX@Z
	DD	FLAT:?CreateEx@CWnd@@UAEHKPBD0KHHHHPAUHWND__@@PAUHMENU__@@PAX@Z
	DD	FLAT:?DestroyWindow@CWnd@@UAEHXZ
	DD	FLAT:?PreCreateWindow@CWnd@@UAEHAAUtagCREATESTRUCTA@@@Z
	DD	FLAT:?CalcWindowRect@CWnd@@UAEXPAUtagRECT@@I@Z
	DD	FLAT:?GetMenu@CWnd@@UBEPAVCMenu@@XZ
	DD	FLAT:?SetMenu@CWnd@@UAEHPAVCMenu@@@Z
	DD	FLAT:?OnToolHitTest@CWnd@@UBEHVCPoint@@PAUtagTOOLINFOA@@@Z
	DD	FLAT:?GetScrollBarCtrl@CWnd@@UBEPAVCScrollBar@@H@Z
	DD	FLAT:?WinHelpA@CWnd@@UAEXKI@Z
	DD	FLAT:?HtmlHelpA@CWnd@@UAEXKI@Z
	DD	FLAT:?WinHelpInternal@CWnd@@UAEXKI@Z
	DD	FLAT:?ContinueModal@CWnd@@UAEHXZ
	DD	FLAT:?EndModalLoop@CWnd@@UAEXH@Z
	DD	FLAT:?OnDrawIconicThumbnailOrLivePreview@CWnd@@UAEXAAVCDC@@VCRect@@VCSize@@HAAH@Z
	DD	FLAT:?EnsureStdObj@CWnd@@UAEJXZ
	DD	FLAT:?get_accParent@CWnd@@UAEJPAPAUIDispatch@@@Z
	DD	FLAT:?get_accChildCount@CWnd@@UAEJPAJ@Z
	DD	FLAT:?get_accChild@CWnd@@UAEJUtagVARIANT@@PAPAUIDispatch@@@Z
	DD	FLAT:?get_accName@CWnd@@UAEJUtagVARIANT@@PAPA_W@Z
	DD	FLAT:?get_accValue@CWnd@@UAEJUtagVARIANT@@PAPA_W@Z
	DD	FLAT:?get_accDescription@CWnd@@UAEJUtagVARIANT@@PAPA_W@Z
	DD	FLAT:?get_accRole@CWnd@@UAEJUtagVARIANT@@PAU2@@Z
	DD	FLAT:?get_accState@CWnd@@UAEJUtagVARIANT@@PAU2@@Z
	DD	FLAT:?get_accHelp@CWnd@@UAEJUtagVARIANT@@PAPA_W@Z
	DD	FLAT:?get_accHelpTopic@CWnd@@UAEJPAPA_WUtagVARIANT@@PAJ@Z
	DD	FLAT:?get_accKeyboardShortcut@CWnd@@UAEJUtagVARIANT@@PAPA_W@Z
	DD	FLAT:?get_accFocus@CWnd@@UAEJPAUtagVARIANT@@@Z
	DD	FLAT:?get_accSelection@CWnd@@UAEJPAUtagVARIANT@@@Z
	DD	FLAT:?get_accDefaultAction@CWnd@@UAEJUtagVARIANT@@PAPA_W@Z
	DD	FLAT:?accSelect@CWnd@@UAEJJUtagVARIANT@@@Z
	DD	FLAT:?accLocation@CWnd@@UAEJPAJ000UtagVARIANT@@@Z
	DD	FLAT:?accNavigate@CWnd@@UAEJJUtagVARIANT@@PAU2@@Z
	DD	FLAT:?accHitTest@CWnd@@UAEJJJPAUtagVARIANT@@@Z
	DD	FLAT:?accDoDefaultAction@CWnd@@UAEJUtagVARIANT@@@Z
	DD	FLAT:?put_accName@CWnd@@UAEJUtagVARIANT@@PA_W@Z
	DD	FLAT:?put_accValue@CWnd@@UAEJUtagVARIANT@@PA_W@Z
	DD	FLAT:?SetProxy@CWnd@@UAEJPAUIAccessibleProxy@@@Z
	DD	FLAT:?CreateAccessibleProxy@CWnd@@UAEJIJPAJ@Z
	DD	FLAT:?OnCommand@CWnd@@MAEHIJ@Z
	DD	FLAT:?OnNotify@CWnd@@MAEHIJPAJ@Z
	DD	FLAT:?GetSuperWndProcAddr@CWnd@@MAEPAP6GJPAUHWND__@@IIJ@ZXZ
	DD	FLAT:?DoDataExchange@CWnd@@MAEXPAVCDataExchange@@@Z
	DD	FLAT:?BeginModalState@CWnd@@UAEXXZ
	DD	FLAT:?EndModalState@CWnd@@UAEXXZ
	DD	FLAT:?PreTranslateMessage@CWnd@@UAEHPAUtagMSG@@@Z
	DD	FLAT:?OnAmbientProperty@CWnd@@UAEHPAVCOleControlSite@@JPAUtagVARIANT@@@Z
	DD	FLAT:?WindowProc@CWnd@@MAEJIIJ@Z
	DD	FLAT:?OnWndMsg@CWnd@@MAEHIIJPAJ@Z
	DD	FLAT:?DefWindowProcA@CWnd@@MAEJIIJ@Z
	DD	FLAT:?PostNcDestroy@CWnd@@MAEXXZ
	DD	FLAT:?OnChildNotify@CStatic@@MAEHIIJPAJ@Z
	DD	FLAT:?OnTouchInputs@CWnd@@MAEHIPAUtagTOUCHINPUT@@@Z
	DD	FLAT:?OnTouchInput@CWnd@@MAEHVCPoint@@HHPAUtagTOUCHINPUT@@@Z
	DD	FLAT:?GetGestureStatus@CWnd@@MAEKVCPoint@@@Z
	DD	FLAT:?OnGestureZoom@CWnd@@MAEHVCPoint@@J@Z
	DD	FLAT:?OnGesturePan@CWnd@@MAEHVCPoint@@0@Z
	DD	FLAT:?OnGestureRotate@CWnd@@MAEHVCPoint@@N@Z
	DD	FLAT:?OnGestureTwoFingerTap@CWnd@@MAEHVCPoint@@@Z
	DD	FLAT:?OnGesturePressAndTap@CWnd@@MAEHVCPoint@@J@Z
	DD	FLAT:?ResizeDynamicLayout@CWnd@@MAEXXZ
	DD	FLAT:?CheckAutoCenter@CWnd@@UAEHXZ
	DD	FLAT:?IsFrameWnd@CWnd@@UBEHXZ
	DD	FLAT:?CreateControlContainer@CWnd@@MAEHPAPAVCOleControlContainer@@@Z
	DD	FLAT:?CreateControlSite@CWnd@@MAEHPAVCOleControlContainer@@PAPAVCOleControlSite@@IABU_GUID@@@Z
	DD	FLAT:?SetOccDialogInfo@CWnd@@MAEHPAU_AFX_OCC_DIALOG_INFO@@@Z
	DD	FLAT:?GetOccDialogInfo@CWnd@@MAEPAU_AFX_OCC_DIALOG_INFO@@XZ
	DD	FLAT:?Create@CStatic@@UAEHPBDKABUtagRECT@@PAVCWnd@@I@Z
	DD	FLAT:?DrawItem@CStatic@@UAEXPAUtagDRAWITEMSTRUCT@@@Z
CONST	ENDS
;	COMDAT ??_C@_00CNPNBAHC@@
CONST	SEGMENT
??_C@_00CNPNBAHC@@ DB 00H				; `string'
CONST	ENDS
;	COMDAT xdata$x
xdata$x	SEGMENT
__unwindtable$?OnSelchangeHorizontalList@CSetting_Common_Type_A@@IAEXXZ DD 0ffffffffH
	DD	FLAT:__unwindfunclet$?OnSelchangeHorizontalList@CSetting_Common_Type_A@@IAEXXZ$0
__ehfuncinfo$?OnSelchangeHorizontalList@CSetting_Common_Type_A@@IAEXXZ DD 019930522H
	DD	01H
	DD	FLAT:__unwindtable$?OnSelchangeHorizontalList@CSetting_Common_Type_A@@IAEXXZ
	DD	2 DUP(00H)
	DD	2 DUP(00H)
	DD	00H
	DD	01H
xdata$x	ENDS
;	COMDAT xdata$x
xdata$x	SEGMENT
__unwindtable$?OnBtnDown1@CSetting_Common_Type_A@@IAEXXZ DD 0ffffffffH
	DD	FLAT:__unwindfunclet$?OnBtnDown1@CSetting_Common_Type_A@@IAEXXZ$0
	DD	00H
	DD	FLAT:__unwindfunclet$?OnBtnDown1@CSetting_Common_Type_A@@IAEXXZ$1
	DD	00H
	DD	FLAT:___std_terminate
__ehfuncinfo$?OnBtnDown1@CSetting_Common_Type_A@@IAEXXZ DD 019930522H
	DD	03H
	DD	FLAT:__unwindtable$?OnBtnDown1@CSetting_Common_Type_A@@IAEXXZ
	DD	2 DUP(00H)
	DD	2 DUP(00H)
	DD	00H
	DD	01H
xdata$x	ENDS
;	COMDAT xdata$x
xdata$x	SEGMENT
__unwindtable$?OnBtnUp1@CSetting_Common_Type_A@@IAEXXZ DD 0ffffffffH
	DD	FLAT:__unwindfunclet$?OnBtnUp1@CSetting_Common_Type_A@@IAEXXZ$0
	DD	00H
	DD	FLAT:__unwindfunclet$?OnBtnUp1@CSetting_Common_Type_A@@IAEXXZ$1
	DD	00H
	DD	FLAT:___std_terminate
__ehfuncinfo$?OnBtnUp1@CSetting_Common_Type_A@@IAEXXZ DD 019930522H
	DD	03H
	DD	FLAT:__unwindtable$?OnBtnUp1@CSetting_Common_Type_A@@IAEXXZ
	DD	2 DUP(00H)
	DD	2 DUP(00H)
	DD	00H
	DD	01H
xdata$x	ENDS
;	COMDAT xdata$x
xdata$x	SEGMENT
__unwindtable$?OnBtnSteadyColor@CSetting_Common_Type_A@@IAEXXZ DD 0ffffffffH
	DD	FLAT:__unwindfunclet$?OnBtnSteadyColor@CSetting_Common_Type_A@@IAEXXZ$0
__ehfuncinfo$?OnBtnSteadyColor@CSetting_Common_Type_A@@IAEXXZ DD 019930522H
	DD	01H
	DD	FLAT:__unwindtable$?OnBtnSteadyColor@CSetting_Common_Type_A@@IAEXXZ
	DD	2 DUP(00H)
	DD	2 DUP(00H)
	DD	00H
	DD	01H
xdata$x	ENDS
;	COMDAT xdata$x
xdata$x	SEGMENT
__unwindtable$?OnBtnDownColor@CSetting_Common_Type_A@@IAEXXZ DD 0ffffffffH
	DD	FLAT:__unwindfunclet$?OnBtnDownColor@CSetting_Common_Type_A@@IAEXXZ$0
__ehfuncinfo$?OnBtnDownColor@CSetting_Common_Type_A@@IAEXXZ DD 019930522H
	DD	01H
	DD	FLAT:__unwindtable$?OnBtnDownColor@CSetting_Common_Type_A@@IAEXXZ
	DD	2 DUP(00H)
	DD	2 DUP(00H)
	DD	00H
	DD	01H
xdata$x	ENDS
;	COMDAT xdata$x
xdata$x	SEGMENT
__unwindtable$?OnBtnUpColor@CSetting_Common_Type_A@@IAEXXZ DD 0ffffffffH
	DD	FLAT:__unwindfunclet$?OnBtnUpColor@CSetting_Common_Type_A@@IAEXXZ$0
__ehfuncinfo$?OnBtnUpColor@CSetting_Common_Type_A@@IAEXXZ DD 019930522H
	DD	01H
	DD	FLAT:__unwindtable$?OnBtnUpColor@CSetting_Common_Type_A@@IAEXXZ
	DD	2 DUP(00H)
	DD	2 DUP(00H)
	DD	00H
	DD	01H
xdata$x	ENDS
;	COMDAT xdata$x
xdata$x	SEGMENT
__unwindtable$?OnColorButton@CSetting_Common_Type_A@@IAEXXZ DD 0ffffffffH
	DD	FLAT:__unwindfunclet$?OnColorButton@CSetting_Common_Type_A@@IAEXXZ$0
__ehfuncinfo$?OnColorButton@CSetting_Common_Type_A@@IAEXXZ DD 019930522H
	DD	01H
	DD	FLAT:__unwindtable$?OnColorButton@CSetting_Common_Type_A@@IAEXXZ
	DD	2 DUP(00H)
	DD	2 DUP(00H)
	DD	00H
	DD	01H
xdata$x	ENDS
;	COMDAT xdata$x
xdata$x	SEGMENT
__ehfuncinfo$?OnInsert@CSetting_Common_Type_A@@IAEXXZ DD 019930522H
	DD	06H
	DD	FLAT:__unwindtable$?OnInsert@CSetting_Common_Type_A@@IAEXXZ
	DD	2 DUP(00H)
	DD	2 DUP(00H)
	DD	00H
	DD	01H
__unwindtable$?OnInsert@CSetting_Common_Type_A@@IAEXXZ DD 0ffffffffH
	DD	FLAT:__unwindfunclet$?OnInsert@CSetting_Common_Type_A@@IAEXXZ$0
	DD	00H
	DD	FLAT:__unwindfunclet$?OnInsert@CSetting_Common_Type_A@@IAEXXZ$1
	DD	01H
	DD	FLAT:__unwindfunclet$?OnInsert@CSetting_Common_Type_A@@IAEXXZ$2
	DD	02H
	DD	FLAT:__unwindfunclet$?OnInsert@CSetting_Common_Type_A@@IAEXXZ$3
	DD	01H
	DD	FLAT:__unwindfunclet$?OnInsert@CSetting_Common_Type_A@@IAEXXZ$5
	DD	01H
	DD	FLAT:__unwindfunclet$?OnInsert@CSetting_Common_Type_A@@IAEXXZ$6
xdata$x	ENDS
;	COMDAT xdata$x
xdata$x	SEGMENT
__unwindtable$?OnSelchangeCmbThickness@CSetting_Common_Type_A@@IAEXXZ DD 0ffffffffH
	DD	FLAT:__unwindfunclet$?OnSelchangeCmbThickness@CSetting_Common_Type_A@@IAEXXZ$0
	DD	0ffffffffH
	DD	FLAT:___std_terminate
__ehfuncinfo$?OnSelchangeCmbThickness@CSetting_Common_Type_A@@IAEXXZ DD 019930522H
	DD	02H
	DD	FLAT:__unwindtable$?OnSelchangeCmbThickness@CSetting_Common_Type_A@@IAEXXZ
	DD	2 DUP(00H)
	DD	2 DUP(00H)
	DD	00H
	DD	01H
xdata$x	ENDS
;	COMDAT xdata$x
xdata$x	SEGMENT
__unwindtable$?OnSelchangeCmbLinetype@CSetting_Common_Type_A@@IAEXXZ DD 0ffffffffH
	DD	FLAT:__unwindfunclet$?OnSelchangeCmbLinetype@CSetting_Common_Type_A@@IAEXXZ$0
	DD	0ffffffffH
	DD	FLAT:___std_terminate
__ehfuncinfo$?OnSelchangeCmbLinetype@CSetting_Common_Type_A@@IAEXXZ DD 019930522H
	DD	02H
	DD	FLAT:__unwindtable$?OnSelchangeCmbLinetype@CSetting_Common_Type_A@@IAEXXZ
	DD	2 DUP(00H)
	DD	2 DUP(00H)
	DD	00H
	DD	01H
xdata$x	ENDS
;	COMDAT xdata$x
xdata$x	SEGMENT
__unwindtable$?OnBtnCompositionColor@CSetting_Common_Type_A@@IAEXXZ DD 0ffffffffH
	DD	FLAT:__unwindfunclet$?OnBtnCompositionColor@CSetting_Common_Type_A@@IAEXXZ$0
	DD	00H
	DD	FLAT:__unwindfunclet$?OnBtnCompositionColor@CSetting_Common_Type_A@@IAEXXZ$1
	DD	00H
	DD	FLAT:___std_terminate
__ehfuncinfo$?OnBtnCompositionColor@CSetting_Common_Type_A@@IAEXXZ DD 019930522H
	DD	03H
	DD	FLAT:__unwindtable$?OnBtnCompositionColor@CSetting_Common_Type_A@@IAEXXZ
	DD	2 DUP(00H)
	DD	2 DUP(00H)
	DD	00H
	DD	01H
xdata$x	ENDS
;	COMDAT xdata$x
xdata$x	SEGMENT
__unwindtable$?OnInitDialog@CSetting_Common_Type_A@@MAEHXZ DD 0ffffffffH
	DD	FLAT:__unwindfunclet$?OnInitDialog@CSetting_Common_Type_A@@MAEHXZ$0
	DD	00H
	DD	FLAT:__unwindfunclet$?OnInitDialog@CSetting_Common_Type_A@@MAEHXZ$1
	DD	01H
	DD	FLAT:__unwindfunclet$?OnInitDialog@CSetting_Common_Type_A@@MAEHXZ$2
	DD	02H
	DD	FLAT:__unwindfunclet$?OnInitDialog@CSetting_Common_Type_A@@MAEHXZ$5
__ehfuncinfo$?OnInitDialog@CSetting_Common_Type_A@@MAEHXZ DD 019930522H
	DD	04H
	DD	FLAT:__unwindtable$?OnInitDialog@CSetting_Common_Type_A@@MAEHXZ
	DD	2 DUP(00H)
	DD	2 DUP(00H)
	DD	00H
	DD	01H
xdata$x	ENDS
;	COMDAT xdata$x
xdata$x	SEGMENT
__unwindtable$?IsShowBaseLineList@CSetting_Common_Type_A@@ABE_NXZ DD 0ffffffffH
	DD	FLAT:__unwindfunclet$?IsShowBaseLineList@CSetting_Common_Type_A@@ABE_NXZ$0
	DD	0ffffffffH
	DD	FLAT:___std_terminate
__ehfuncinfo$?IsShowBaseLineList@CSetting_Common_Type_A@@ABE_NXZ DD 019930522H
	DD	02H
	DD	FLAT:__unwindtable$?IsShowBaseLineList@CSetting_Common_Type_A@@ABE_NXZ
	DD	2 DUP(00H)
	DD	2 DUP(00H)
	DD	00H
	DD	01H
xdata$x	ENDS
;	COMDAT xdata$x
xdata$x	SEGMENT
__unwindtable$?GetFirstValue@CSetting_Common_Type_A@@AAENABV?$CStringT@DV?$StrTraitMFC_DLL@DV?$ChTraitsCRT@D@ATL@@@@@ATL@@@Z DD 0ffffffffH
	DD	FLAT:__unwindfunclet$?GetFirstValue@CSetting_Common_Type_A@@AAENABV?$CStringT@DV?$StrTraitMFC_DLL@DV?$ChTraitsCRT@D@ATL@@@@@ATL@@@Z$0
	DD	00H
	DD	FLAT:__unwindfunclet$?GetFirstValue@CSetting_Common_Type_A@@AAENABV?$CStringT@DV?$StrTraitMFC_DLL@DV?$ChTraitsCRT@D@ATL@@@@@ATL@@@Z$1
__ehfuncinfo$?GetFirstValue@CSetting_Common_Type_A@@AAENABV?$CStringT@DV?$StrTraitMFC_DLL@DV?$ChTraitsCRT@D@ATL@@@@@ATL@@@Z DD 019930522H
	DD	02H
	DD	FLAT:__unwindtable$?GetFirstValue@CSetting_Common_Type_A@@AAENABV?$CStringT@DV?$StrTraitMFC_DLL@DV?$ChTraitsCRT@D@ATL@@@@@ATL@@@Z
	DD	2 DUP(00H)
	DD	2 DUP(00H)
	DD	00H
	DD	01H
xdata$x	ENDS
;	COMDAT xdata$x
xdata$x	SEGMENT
__unwindtable$?OnApplyBaseLine@CSetting_Common_Type_A@@AAEXXZ DD 0ffffffffH
	DD	FLAT:__unwindfunclet$?OnApplyBaseLine@CSetting_Common_Type_A@@AAEXXZ$0
	DD	00H
	DD	FLAT:__unwindfunclet$?OnApplyBaseLine@CSetting_Common_Type_A@@AAEXXZ$1
	DD	01H
	DD	FLAT:__unwindfunclet$?OnApplyBaseLine@CSetting_Common_Type_A@@AAEXXZ$2
	DD	02H
	DD	FLAT:__unwindfunclet$?OnApplyBaseLine@CSetting_Common_Type_A@@AAEXXZ$3
__ehfuncinfo$?OnApplyBaseLine@CSetting_Common_Type_A@@AAEXXZ DD 019930522H
	DD	04H
	DD	FLAT:__unwindtable$?OnApplyBaseLine@CSetting_Common_Type_A@@AAEXXZ
	DD	2 DUP(00H)
	DD	2 DUP(00H)
	DD	00H
	DD	01H
xdata$x	ENDS
;	COMDAT xdata$x
xdata$x	SEGMENT
__ehfuncinfo$?OnApplySubGraphData@CSetting_Common_Type_A@@AAEXXZ DD 019930522H
	DD	05H
	DD	FLAT:__unwindtable$?OnApplySubGraphData@CSetting_Common_Type_A@@AAEXXZ
	DD	2 DUP(00H)
	DD	2 DUP(00H)
	DD	00H
	DD	01H
__unwindtable$?OnApplySubGraphData@CSetting_Common_Type_A@@AAEXXZ DD 0ffffffffH
	DD	FLAT:__unwindfunclet$?OnApplySubGraphData@CSetting_Common_Type_A@@AAEXXZ$0
	DD	00H
	DD	FLAT:__unwindfunclet$?OnApplySubGraphData@CSetting_Common_Type_A@@AAEXXZ$1
	DD	00H
	DD	FLAT:__unwindfunclet$?OnApplySubGraphData@CSetting_Common_Type_A@@AAEXXZ$2
	DD	00H
	DD	FLAT:___std_terminate
	DD	0ffffffffH
	DD	FLAT:___std_terminate
xdata$x	ENDS
;	COMDAT xdata$x
xdata$x	SEGMENT
__unwindtable$?Init_BaseLine_Group_Title@CSetting_Common_Type_A@@AAEXXZ DD 0ffffffffH
	DD	FLAT:__unwindfunclet$?Init_BaseLine_Group_Title@CSetting_Common_Type_A@@AAEXXZ$0
	DD	0ffffffffH
	DD	FLAT:___std_terminate
__ehfuncinfo$?Init_BaseLine_Group_Title@CSetting_Common_Type_A@@AAEXXZ DD 019930522H
	DD	02H
	DD	FLAT:__unwindtable$?Init_BaseLine_Group_Title@CSetting_Common_Type_A@@AAEXXZ
	DD	2 DUP(00H)
	DD	2 DUP(00H)
	DD	00H
	DD	01H
xdata$x	ENDS
;	COMDAT xdata$x
xdata$x	SEGMENT
__unwindtable$?Init_Composition_Group_SubGraphColor_BoxType@CSetting_Common_Type_A@@AAE_NH@Z DD 0ffffffffH
	DD	FLAT:__unwindfunclet$?Init_Composition_Group_SubGraphColor_BoxType@CSetting_Common_Type_A@@AAE_NH@Z$0
__ehfuncinfo$?Init_Composition_Group_SubGraphColor_BoxType@CSetting_Common_Type_A@@AAE_NH@Z DD 019930522H
	DD	01H
	DD	FLAT:__unwindtable$?Init_Composition_Group_SubGraphColor_BoxType@CSetting_Common_Type_A@@AAE_NH@Z
	DD	2 DUP(00H)
	DD	2 DUP(00H)
	DD	00H
	DD	01H
xdata$x	ENDS
;	COMDAT xdata$x
xdata$x	SEGMENT
__unwindtable$?Init_Composition_Group_SubGraphColor_LineType@CSetting_Common_Type_A@@AAE_NH@Z DD 0ffffffffH
	DD	FLAT:__unwindfunclet$?Init_Composition_Group_SubGraphColor_LineType@CSetting_Common_Type_A@@AAE_NH@Z$0
__ehfuncinfo$?Init_Composition_Group_SubGraphColor_LineType@CSetting_Common_Type_A@@AAE_NH@Z DD 019930522H
	DD	01H
	DD	FLAT:__unwindtable$?Init_Composition_Group_SubGraphColor_LineType@CSetting_Common_Type_A@@AAE_NH@Z
	DD	2 DUP(00H)
	DD	2 DUP(00H)
	DD	00H
	DD	01H
xdata$x	ENDS
;	COMDAT xdata$x
xdata$x	SEGMENT
__unwindtable$?Init_Composition_Group_SubGraphTitle@CSetting_Common_Type_A@@AAEXH@Z DD 0ffffffffH
	DD	FLAT:__unwindfunclet$?Init_Composition_Group_SubGraphTitle@CSetting_Common_Type_A@@AAEXH@Z$0
	DD	00H
	DD	FLAT:__unwindfunclet$?Init_Composition_Group_SubGraphTitle@CSetting_Common_Type_A@@AAEXH@Z$1
	DD	0ffffffffH
	DD	FLAT:___std_terminate
__ehfuncinfo$?Init_Composition_Group_SubGraphTitle@CSetting_Common_Type_A@@AAEXH@Z DD 019930522H
	DD	03H
	DD	FLAT:__unwindtable$?Init_Composition_Group_SubGraphTitle@CSetting_Common_Type_A@@AAEXH@Z
	DD	2 DUP(00H)
	DD	2 DUP(00H)
	DD	00H
	DD	01H
xdata$x	ENDS
;	COMDAT xdata$x
xdata$x	SEGMENT
__unwindtable$?Init_Composition_Group_SubGraphItem@CSetting_Common_Type_A@@AAEXXZ DD 0ffffffffH
	DD	FLAT:__unwindfunclet$?Init_Composition_Group_SubGraphItem@CSetting_Common_Type_A@@AAEXXZ$0
	DD	00H
	DD	FLAT:__unwindfunclet$?Init_Composition_Group_SubGraphItem@CSetting_Common_Type_A@@AAEXXZ$1
	DD	0ffffffffH
	DD	FLAT:___std_terminate
__ehfuncinfo$?Init_Composition_Group_SubGraphItem@CSetting_Common_Type_A@@AAEXXZ DD 019930522H
	DD	03H
	DD	FLAT:__unwindtable$?Init_Composition_Group_SubGraphItem@CSetting_Common_Type_A@@AAEXXZ
	DD	2 DUP(00H)
	DD	2 DUP(00H)
	DD	00H
	DD	01H
xdata$x	ENDS
;	COMDAT xdata$x
xdata$x	SEGMENT
__ehfuncinfo$?Init_Composition_Group@CSetting_Common_Type_A@@AAEXXZ DD 019930522H
	DD	06H
	DD	FLAT:__unwindtable$?Init_Composition_Group@CSetting_Common_Type_A@@AAEXXZ
	DD	2 DUP(00H)
	DD	2 DUP(00H)
	DD	00H
	DD	01H
__unwindtable$?Init_Composition_Group@CSetting_Common_Type_A@@AAEXXZ DD 0ffffffffH
	DD	FLAT:__unwindfunclet$?Init_Composition_Group@CSetting_Common_Type_A@@AAEXXZ$0
	DD	00H
	DD	FLAT:__unwindfunclet$?Init_Composition_Group@CSetting_Common_Type_A@@AAEXXZ$1
	DD	0ffffffffH
	DD	FLAT:___std_terminate
	DD	0ffffffffH
	DD	FLAT:__unwindfunclet$?Init_Composition_Group@CSetting_Common_Type_A@@AAEXXZ$3
	DD	03H
	DD	FLAT:__unwindfunclet$?Init_Composition_Group@CSetting_Common_Type_A@@AAEXXZ$4
	DD	0ffffffffH
	DD	FLAT:___std_terminate
xdata$x	ENDS
;	COMDAT xdata$x
xdata$x	SEGMENT
__ehfuncinfo$?Init_Variable_Group_Title@CSetting_Common_Type_A@@AAEXH@Z DD 019930522H
	DD	07H
	DD	FLAT:__unwindtable$?Init_Variable_Group_Title@CSetting_Common_Type_A@@AAEXH@Z
	DD	2 DUP(00H)
	DD	2 DUP(00H)
	DD	00H
	DD	01H
__unwindtable$?Init_Variable_Group_Title@CSetting_Common_Type_A@@AAEXH@Z DD 0ffffffffH
	DD	FLAT:__unwindfunclet$?Init_Variable_Group_Title@CSetting_Common_Type_A@@AAEXH@Z$0
	DD	00H
	DD	FLAT:__unwindfunclet$?Init_Variable_Group_Title@CSetting_Common_Type_A@@AAEXH@Z$1
	DD	00H
	DD	FLAT:__unwindfunclet$?Init_Variable_Group_Title@CSetting_Common_Type_A@@AAEXH@Z$2
	DD	00H
	DD	FLAT:__unwindfunclet$?Init_Variable_Group_Title@CSetting_Common_Type_A@@AAEXH@Z$3
	DD	00H
	DD	FLAT:__unwindfunclet$?Init_Variable_Group_Title@CSetting_Common_Type_A@@AAEXH@Z$4
	DD	00H
	DD	FLAT:__unwindfunclet$?Init_Variable_Group_Title@CSetting_Common_Type_A@@AAEXH@Z$5
	DD	0ffffffffH
	DD	FLAT:___std_terminate
xdata$x	ENDS
;	COMDAT xdata$x
xdata$x	SEGMENT
__ehfuncinfo$?UseSubColorBtn@CSetting_Common_Type_A@@AAEXHV?$CStringT@DV?$StrTraitMFC_DLL@DV?$ChTraitsCRT@D@ATL@@@@@ATL@@H@Z DD 019930522H
	DD	05H
	DD	FLAT:__unwindtable$?UseSubColorBtn@CSetting_Common_Type_A@@AAEXHV?$CStringT@DV?$StrTraitMFC_DLL@DV?$ChTraitsCRT@D@ATL@@@@@ATL@@H@Z
	DD	2 DUP(00H)
	DD	2 DUP(00H)
	DD	00H
	DD	01H
__unwindtable$?UseSubColorBtn@CSetting_Common_Type_A@@AAEXHV?$CStringT@DV?$StrTraitMFC_DLL@DV?$ChTraitsCRT@D@ATL@@@@@ATL@@H@Z DD 0ffffffffH
	DD	FLAT:__unwindfunclet$?UseSubColorBtn@CSetting_Common_Type_A@@AAEXHV?$CStringT@DV?$StrTraitMFC_DLL@DV?$ChTraitsCRT@D@ATL@@@@@ATL@@H@Z$0
	DD	00H
	DD	FLAT:__unwindfunclet$?UseSubColorBtn@CSetting_Common_Type_A@@AAEXHV?$CStringT@DV?$StrTraitMFC_DLL@DV?$ChTraitsCRT@D@ATL@@@@@ATL@@H@Z$3
	DD	01H
	DD	FLAT:__unwindfunclet$?UseSubColorBtn@CSetting_Common_Type_A@@AAEXHV?$CStringT@DV?$StrTraitMFC_DLL@DV?$ChTraitsCRT@D@ATL@@@@@ATL@@H@Z$4
	DD	02H
	DD	FLAT:__unwindfunclet$?UseSubColorBtn@CSetting_Common_Type_A@@AAEXHV?$CStringT@DV?$StrTraitMFC_DLL@DV?$ChTraitsCRT@D@ATL@@@@@ATL@@H@Z$5
	DD	00H
	DD	FLAT:___std_terminate
xdata$x	ENDS
;	COMDAT xdata$x
xdata$x	SEGMENT
__unwindtable$?UseCompositionGroup@CSetting_Common_Type_A@@AAEXH@Z DD 0ffffffffH
	DD	FLAT:__unwindfunclet$?UseCompositionGroup@CSetting_Common_Type_A@@AAEXH@Z$0
	DD	0ffffffffH
	DD	FLAT:___std_terminate
__ehfuncinfo$?UseCompositionGroup@CSetting_Common_Type_A@@AAEXH@Z DD 019930522H
	DD	02H
	DD	FLAT:__unwindtable$?UseCompositionGroup@CSetting_Common_Type_A@@AAEXH@Z
	DD	2 DUP(00H)
	DD	2 DUP(00H)
	DD	00H
	DD	01H
xdata$x	ENDS
;	COMDAT xdata$x
xdata$x	SEGMENT
__ehfuncinfo$?UseValueGroup@CSetting_Common_Type_A@@AAEXH@Z DD 019930522H
	DD	07H
	DD	FLAT:__unwindtable$?UseValueGroup@CSetting_Common_Type_A@@AAEXH@Z
	DD	2 DUP(00H)
	DD	2 DUP(00H)
	DD	00H
	DD	01H
__unwindtable$?UseValueGroup@CSetting_Common_Type_A@@AAEXH@Z DD 0ffffffffH
	DD	FLAT:__unwindfunclet$?UseValueGroup@CSetting_Common_Type_A@@AAEXH@Z$0
	DD	00H
	DD	FLAT:__unwindfunclet$?UseValueGroup@CSetting_Common_Type_A@@AAEXH@Z$1
	DD	01H
	DD	FLAT:__unwindfunclet$?UseValueGroup@CSetting_Common_Type_A@@AAEXH@Z$2
	DD	02H
	DD	FLAT:__unwindfunclet$?UseValueGroup@CSetting_Common_Type_A@@AAEXH@Z$3
	DD	01H
	DD	FLAT:___std_terminate
	DD	00H
	DD	FLAT:___std_terminate
	DD	0ffffffffH
	DD	FLAT:___std_terminate
xdata$x	ENDS
;	COMDAT xdata$x
xdata$x	SEGMENT
__ehfuncinfo$?Initial@CSetting_Common_Type_A@@UAEXPAUIGraphInfo135914@@@Z DD 019930522H
	DD	0bH
	DD	FLAT:__unwindtable$?Initial@CSetting_Common_Type_A@@UAEXPAUIGraphInfo135914@@@Z
	DD	2 DUP(00H)
	DD	2 DUP(00H)
	DD	00H
	DD	01H
__unwindtable$?Initial@CSetting_Common_Type_A@@UAEXPAUIGraphInfo135914@@@Z DD 0ffffffffH
	DD	FLAT:__unwindfunclet$?Initial@CSetting_Common_Type_A@@UAEXPAUIGraphInfo135914@@@Z$0
	DD	00H
	DD	FLAT:__unwindfunclet$?Initial@CSetting_Common_Type_A@@UAEXPAUIGraphInfo135914@@@Z$3
	DD	01H
	DD	FLAT:__unwindfunclet$?Initial@CSetting_Common_Type_A@@UAEXPAUIGraphInfo135914@@@Z$5
	DD	01H
	DD	FLAT:___std_terminate
	DD	01H
	DD	FLAT:__unwindfunclet$?Initial@CSetting_Common_Type_A@@UAEXPAUIGraphInfo135914@@@Z$6
	DD	04H
	DD	FLAT:__unwindfunclet$?Initial@CSetting_Common_Type_A@@UAEXPAUIGraphInfo135914@@@Z$9
	DD	04H
	DD	FLAT:___std_terminate
	DD	04H
	DD	FLAT:___std_terminate
	DD	04H
	DD	FLAT:__unwindfunclet$?Initial@CSetting_Common_Type_A@@UAEXPAUIGraphInfo135914@@@Z$7
	DD	04H
	DD	FLAT:___std_terminate
	DD	01H
	DD	FLAT:___std_terminate
xdata$x	ENDS
;	COMDAT xdata$x
xdata$x	SEGMENT
__ehfuncinfo$??0CSetting_Common_Type_A@@QAE@PAUIChartOCX135914@@PAVCWnd@@1@Z DD 019930522H
	DD	027H
	DD	FLAT:__unwindtable$??0CSetting_Common_Type_A@@QAE@PAUIChartOCX135914@@PAVCWnd@@1@Z
	DD	2 DUP(00H)
	DD	2 DUP(00H)
	DD	00H
	DD	01H
__unwindtable$??0CSetting_Common_Type_A@@QAE@PAUIChartOCX135914@@PAVCWnd@@1@Z DD 0ffffffffH
	DD	FLAT:__unwindfunclet$??0CSetting_Common_Type_A@@QAE@PAUIChartOCX135914@@PAVCWnd@@1@Z$0
	DD	00H
	DD	FLAT:__unwindfunclet$??0CSetting_Common_Type_A@@QAE@PAUIChartOCX135914@@PAVCWnd@@1@Z$1
	DD	01H
	DD	FLAT:__unwindfunclet$??0CSetting_Common_Type_A@@QAE@PAUIChartOCX135914@@PAVCWnd@@1@Z$2
	DD	02H
	DD	FLAT:__unwindfunclet$??0CSetting_Common_Type_A@@QAE@PAUIChartOCX135914@@PAVCWnd@@1@Z$3
	DD	03H
	DD	FLAT:__unwindfunclet$??0CSetting_Common_Type_A@@QAE@PAUIChartOCX135914@@PAVCWnd@@1@Z$4
	DD	04H
	DD	FLAT:__unwindfunclet$??0CSetting_Common_Type_A@@QAE@PAUIChartOCX135914@@PAVCWnd@@1@Z$5
	DD	05H
	DD	FLAT:__unwindfunclet$??0CSetting_Common_Type_A@@QAE@PAUIChartOCX135914@@PAVCWnd@@1@Z$6
	DD	06H
	DD	FLAT:__unwindfunclet$??0CSetting_Common_Type_A@@QAE@PAUIChartOCX135914@@PAVCWnd@@1@Z$7
	DD	07H
	DD	FLAT:__unwindfunclet$??0CSetting_Common_Type_A@@QAE@PAUIChartOCX135914@@PAVCWnd@@1@Z$8
	DD	08H
	DD	FLAT:__unwindfunclet$??0CSetting_Common_Type_A@@QAE@PAUIChartOCX135914@@PAVCWnd@@1@Z$9
	DD	09H
	DD	FLAT:__unwindfunclet$??0CSetting_Common_Type_A@@QAE@PAUIChartOCX135914@@PAVCWnd@@1@Z$10
	DD	0aH
	DD	FLAT:__unwindfunclet$??0CSetting_Common_Type_A@@QAE@PAUIChartOCX135914@@PAVCWnd@@1@Z$11
	DD	0bH
	DD	FLAT:__unwindfunclet$??0CSetting_Common_Type_A@@QAE@PAUIChartOCX135914@@PAVCWnd@@1@Z$12
	DD	0cH
	DD	FLAT:__unwindfunclet$??0CSetting_Common_Type_A@@QAE@PAUIChartOCX135914@@PAVCWnd@@1@Z$13
	DD	0dH
	DD	FLAT:__unwindfunclet$??0CSetting_Common_Type_A@@QAE@PAUIChartOCX135914@@PAVCWnd@@1@Z$14
	DD	0eH
	DD	FLAT:__unwindfunclet$??0CSetting_Common_Type_A@@QAE@PAUIChartOCX135914@@PAVCWnd@@1@Z$15
	DD	0fH
	DD	FLAT:__unwindfunclet$??0CSetting_Common_Type_A@@QAE@PAUIChartOCX135914@@PAVCWnd@@1@Z$16
	DD	010H
	DD	FLAT:__unwindfunclet$??0CSetting_Common_Type_A@@QAE@PAUIChartOCX135914@@PAVCWnd@@1@Z$17
	DD	011H
	DD	FLAT:__unwindfunclet$??0CSetting_Common_Type_A@@QAE@PAUIChartOCX135914@@PAVCWnd@@1@Z$18
	DD	012H
	DD	FLAT:__unwindfunclet$??0CSetting_Common_Type_A@@QAE@PAUIChartOCX135914@@PAVCWnd@@1@Z$19
	DD	013H
	DD	FLAT:__unwindfunclet$??0CSetting_Common_Type_A@@QAE@PAUIChartOCX135914@@PAVCWnd@@1@Z$20
	DD	014H
	DD	FLAT:__unwindfunclet$??0CSetting_Common_Type_A@@QAE@PAUIChartOCX135914@@PAVCWnd@@1@Z$21
	DD	015H
	DD	FLAT:__unwindfunclet$??0CSetting_Common_Type_A@@QAE@PAUIChartOCX135914@@PAVCWnd@@1@Z$22
	DD	016H
	DD	FLAT:__unwindfunclet$??0CSetting_Common_Type_A@@QAE@PAUIChartOCX135914@@PAVCWnd@@1@Z$23
	DD	017H
	DD	FLAT:__unwindfunclet$??0CSetting_Common_Type_A@@QAE@PAUIChartOCX135914@@PAVCWnd@@1@Z$24
	DD	018H
	DD	FLAT:__unwindfunclet$??0CSetting_Common_Type_A@@QAE@PAUIChartOCX135914@@PAVCWnd@@1@Z$25
	DD	019H
	DD	FLAT:__unwindfunclet$??0CSetting_Common_Type_A@@QAE@PAUIChartOCX135914@@PAVCWnd@@1@Z$26
	DD	01aH
	DD	FLAT:__unwindfunclet$??0CSetting_Common_Type_A@@QAE@PAUIChartOCX135914@@PAVCWnd@@1@Z$27
	DD	01bH
	DD	FLAT:__unwindfunclet$??0CSetting_Common_Type_A@@QAE@PAUIChartOCX135914@@PAVCWnd@@1@Z$28
	DD	01cH
	DD	FLAT:__unwindfunclet$??0CSetting_Common_Type_A@@QAE@PAUIChartOCX135914@@PAVCWnd@@1@Z$29
	DD	01dH
	DD	FLAT:__unwindfunclet$??0CSetting_Common_Type_A@@QAE@PAUIChartOCX135914@@PAVCWnd@@1@Z$30
	DD	01eH
	DD	FLAT:__unwindfunclet$??0CSetting_Common_Type_A@@QAE@PAUIChartOCX135914@@PAVCWnd@@1@Z$31
	DD	01fH
	DD	FLAT:__unwindfunclet$??0CSetting_Common_Type_A@@QAE@PAUIChartOCX135914@@PAVCWnd@@1@Z$32
	DD	020H
	DD	FLAT:__unwindfunclet$??0CSetting_Common_Type_A@@QAE@PAUIChartOCX135914@@PAVCWnd@@1@Z$33
	DD	021H
	DD	FLAT:__unwindfunclet$??0CSetting_Common_Type_A@@QAE@PAUIChartOCX135914@@PAVCWnd@@1@Z$34
	DD	022H
	DD	FLAT:__unwindfunclet$??0CSetting_Common_Type_A@@QAE@PAUIChartOCX135914@@PAVCWnd@@1@Z$35
	DD	023H
	DD	FLAT:__unwindfunclet$??0CSetting_Common_Type_A@@QAE@PAUIChartOCX135914@@PAVCWnd@@1@Z$36
	DD	024H
	DD	FLAT:__unwindfunclet$??0CSetting_Common_Type_A@@QAE@PAUIChartOCX135914@@PAVCWnd@@1@Z$37
	DD	025H
	DD	FLAT:__unwindfunclet$??0CSetting_Common_Type_A@@QAE@PAUIChartOCX135914@@PAVCWnd@@1@Z$38
xdata$x	ENDS
;	COMDAT xdata$x
xdata$x	SEGMENT
__ehfuncinfo$??1ILPCSTR135914@@QAE@XZ DD 019930522H
	DD	00H
	DD	00H
	DD	2 DUP(00H)
	DD	2 DUP(00H)
	DD	00H
	DD	05H
xdata$x	ENDS
; Function compile flags: /Ogtp
; File C:\Program Files (x86)\Microsoft Visual Studio\2019\Community\VC\Tools\MSVC\14.29.30133\atlmfc\include\afx.inl
;	COMDAT ??_GCSetting_Common_Type_A@@UAEPAXI@Z
_TEXT	SEGMENT
___flags$ = 8						; size = 4
??_GCSetting_Common_Type_A@@UAEPAXI@Z PROC		; CSetting_Common_Type_A::`scalar deleting destructor', COMDAT
; _this$ = ecx
  00000	55		 push	 ebp
  00001	8b ec		 mov	 ebp, esp
  00003	56		 push	 esi
  00004	8b f1		 mov	 esi, ecx
  00006	e8 00 00 00 00	 call	 ??1CSetting_Common_Type_A@@UAE@XZ ; CSetting_Common_Type_A::~CSetting_Common_Type_A
  0000b	8b 45 08	 mov	 eax, DWORD PTR ___flags$[ebp]
  0000e	a8 01		 test	 al, 1
  00010	74 22		 je	 SHORT $LN9@scalar
  00012	a8 04		 test	 al, 4
  00014	75 10		 jne	 SHORT $LN3@scalar

; 112  : 	{ ::operator delete(p); }

  00016	56		 push	 esi
  00017	e8 00 00 00 00	 call	 ??3@YAXPAX@Z		; operator delete
  0001c	83 c4 04	 add	 esp, 4
  0001f	8b c6		 mov	 eax, esi
  00021	5e		 pop	 esi
  00022	5d		 pop	 ebp
  00023	c2 04 00	 ret	 4
$LN3@scalar:
  00026	68 e0 14 00 00	 push	 5344			; 000014e0H
  0002b	56		 push	 esi
  0002c	e8 00 00 00 00	 call	 ?__global_delete@@YAXPAXI@Z ; __global_delete
  00031	83 c4 08	 add	 esp, 8
$LN9@scalar:
  00034	8b c6		 mov	 eax, esi
  00036	5e		 pop	 esi
  00037	5d		 pop	 ebp
  00038	c2 04 00	 ret	 4
??_GCSetting_Common_Type_A@@UAEPAXI@Z ENDP		; CSetting_Common_Type_A::`scalar deleting destructor'
_TEXT	ENDS
; Function compile flags: /Ogtp
; File D:\git\src\IBK\IBK_DRFN\ProjSrc\SrcChartEx\ChartAddIn\ChartEnvSetupDlgAddIn\ChartEnvSetupDlgAddIn\Setting_Common_Type_A.cpp
;	COMDAT ?GetMessageMap@CSetting_Common_Type_A@@MBEPBUAFX_MSGMAP@@XZ
_TEXT	SEGMENT
?GetMessageMap@CSetting_Common_Type_A@@MBEPBUAFX_MSGMAP@@XZ PROC ; CSetting_Common_Type_A::GetMessageMap, COMDAT
; _this$ = ecx

; 95   : BEGIN_MESSAGE_MAP(CSetting_Common_Type_A, CDialog)

  00000	b8 00 00 00 00	 mov	 eax, OFFSET ?messageMap@?1??GetThisMessageMap@CSetting_Common_Type_A@@KGPBUAFX_MSGMAP@@XZ@4U3@B
  00005	c3		 ret	 0
?GetMessageMap@CSetting_Common_Type_A@@MBEPBUAFX_MSGMAP@@XZ ENDP ; CSetting_Common_Type_A::GetMessageMap
_TEXT	ENDS
; Function compile flags: /Ogtp
; File D:\git\src\IBK\IBK_DRFN\ProjSrc\SrcChartEx\ChartAddIn\ChartEnvSetupDlgAddIn\ChartEnvSetupDlgAddIn\Setting_Common_Type_A.cpp
;	COMDAT ?GetThisMessageMap@CSetting_Common_Type_A@@KGPBUAFX_MSGMAP@@XZ
_TEXT	SEGMENT
?GetThisMessageMap@CSetting_Common_Type_A@@KGPBUAFX_MSGMAP@@XZ PROC ; CSetting_Common_Type_A::GetThisMessageMap, COMDAT

; 96   : 	//{{AFX_MSG_MAP(CSetting_Common_Type_A)
; 97   : 	ON_BN_CLICKED(IDC_BTN_COMPOSITION_COLOR, OnBtnCompositionColor)
; 98   : 	ON_NOTIFY(LVN_ITEMCHANGED, IDC_LIST_COMPOSITION, OnItemchangedListComposition)
; 99   : 	ON_NOTIFY(NM_CLICK, IDC_LIST_COMPOSITION, OnClickListComposition)
; 100  : 	ON_CBN_SELCHANGE(IDC_CMB_LINETYPE, OnSelchangeCmbLinetype)
; 101  : 	ON_CBN_SELCHANGE(IDC_CMB_THICKNESS, OnSelchangeCmbThickness)
; 102  : 	ON_BN_CLICKED(IDC_INSERT, OnInsert)
; 103  : 	ON_BN_CLICKED(IDC_DELETE, OnDelete)
; 104  : 	ON_BN_CLICKED(IDC_ALLDELETE, OnAlldelete)
; 105  : 	ON_BN_CLICKED(IDC_COLOR_BUTTON, OnColorButton)
; 106  : 	ON_BN_CLICKED(IDC_BTN_UP_COLOR, OnBtnUpColor)
; 107  : 	ON_BN_CLICKED(IDC_BTN_DOWN_COLOR, OnBtnDownColor)
; 108  : 	ON_BN_CLICKED(IDC_BTN_STEADY_COLOR, OnBtnSteadyColor)
; 109  : 	ON_BN_CLICKED(IDC_BTN_UP1, OnBtnUp1)
; 110  : 	ON_BN_CLICKED(IDC_BTN_DOWN1, OnBtnDown1)
; 111  : 	ON_BN_CLICKED(IDC_CHK_FILL_COLOR, OnChkFillColor)
; 112  : 	ON_CBN_SELCHANGE(IDC_CMB_THICKNESS2, OnSelchangeCmbThickness2)
; 113  : 	ON_CBN_SELCHANGE(IDC_CMB_LINETYPE2, OnSelchangeCmbLinetype2)
; 114  : 	ON_LBN_SELCHANGE(IDC_HORIZONTAL_LIST, OnSelchangeHorizontalList)
; 115  : 	//}}AFX_MSG_MAP
; 116  : END_MESSAGE_MAP()

  00000	b8 00 00 00 00	 mov	 eax, OFFSET ?messageMap@?1??GetThisMessageMap@CSetting_Common_Type_A@@KGPBUAFX_MSGMAP@@XZ@4U3@B
  00005	c3		 ret	 0
?GetThisMessageMap@CSetting_Common_Type_A@@KGPBUAFX_MSGMAP@@XZ ENDP ; CSetting_Common_Type_A::GetThisMessageMap
_TEXT	ENDS
; Function compile flags: /Ogtp
; File D:\git\src\IBK\IBK_DRFN\ProjSrc\SrcChartEx\ChartAddIn\ChartEnvSetupDlgAddIn\ChartEnvSetupDlgAddIn\Setting_Common_Type_A.cpp
; File C:\Program Files (x86)\Microsoft Visual Studio\2019\Community\VC\Tools\MSVC\14.29.30133\atlmfc\include\afxwin2.inl
; File D:\git\src\IBK\IBK_DRFN\ProjSrc\SrcChartEx\ChartAddIn\ChartEnvSetupDlgAddIn\ChartEnvSetupDlgAddIn\Setting_Common_Type_A.cpp
;	COMDAT ?OnSelchangeHorizontalList@CSetting_Common_Type_A@@IAEXXZ
_TEXT	SEGMENT
_strSelection$ = -16					; size = 4
__$EHRec$ = -12						; size = 12
?OnSelchangeHorizontalList@CSetting_Common_Type_A@@IAEXXZ PROC ; CSetting_Common_Type_A::OnSelchangeHorizontalList, COMDAT
; _this$ = ecx

; 1813 : {

  00000	55		 push	 ebp
  00001	8b ec		 mov	 ebp, esp
  00003	6a ff		 push	 -1
  00005	68 00 00 00 00	 push	 __ehhandler$?OnSelchangeHorizontalList@CSetting_Common_Type_A@@IAEXXZ
  0000a	64 a1 00 00 00
	00		 mov	 eax, DWORD PTR fs:0
  00010	50		 push	 eax
  00011	51		 push	 ecx
  00012	56		 push	 esi
  00013	a1 00 00 00 00	 mov	 eax, DWORD PTR ___security_cookie
  00018	33 c5		 xor	 eax, ebp
  0001a	50		 push	 eax
  0001b	8d 45 f4	 lea	 eax, DWORD PTR __$EHRec$[ebp]
  0001e	64 a3 00 00 00
	00		 mov	 DWORD PTR fs:0, eax
  00024	8b f1		 mov	 esi, ecx

; 1814 : 	// TODO: Add your control notification handler code here
; 1815 : 	CString strSelection;

  00026	8d 4d f0	 lea	 ecx, DWORD PTR _strSelection$[ebp]
  00029	ff 15 00 00 00
	00		 call	 DWORD PTR __imp_??0?$CStringT@DV?$StrTraitMFC_DLL@DV?$ChTraitsCRT@D@ATL@@@@@ATL@@QAE@XZ

; 1816 : 	m_HorizonLine_ListBox.GetText(m_HorizonLine_ListBox.GetCurSel(), strSelection);

  0002f	8d 45 f0	 lea	 eax, DWORD PTR _strSelection$[ebp]
  00032	c7 45 fc 00 00
	00 00		 mov	 DWORD PTR __$EHRec$[ebp+8], 0
  00039	50		 push	 eax
; File C:\Program Files (x86)\Microsoft Visual Studio\2019\Community\VC\Tools\MSVC\14.29.30133\atlmfc\include\afxwin2.inl

; 666  : 	{ ASSERT(::IsWindow(m_hWnd)); return (int)::SendMessage(m_hWnd, LB_GETCURSEL, 0, 0); }

  0003a	6a 00		 push	 0
  0003c	6a 00		 push	 0
  0003e	68 88 01 00 00	 push	 392			; 00000188H
  00043	ff b6 c0 05 00
	00		 push	 DWORD PTR [esi+1472]
  00049	ff 15 00 00 00
	00		 call	 DWORD PTR __imp__SendMessageA@16
; File D:\git\src\IBK\IBK_DRFN\ProjSrc\SrcChartEx\ChartAddIn\ChartEnvSetupDlgAddIn\ChartEnvSetupDlgAddIn\Setting_Common_Type_A.cpp

; 1816 : 	m_HorizonLine_ListBox.GetText(m_HorizonLine_ListBox.GetCurSel(), strSelection);

  0004f	50		 push	 eax
  00050	8d 8e a0 05 00
	00		 lea	 ecx, DWORD PTR [esi+1440]
  00056	e8 00 00 00 00	 call	 ?GetText@CListBox@@QBEXHAAV?$CStringT@DV?$StrTraitMFC_DLL@DV?$ChTraitsCRT@D@ATL@@@@@ATL@@@Z ; CListBox::GetText

; 1817 : 	m_Horizon_Edit.SetWindowText(strSelection);

  0005b	ff 75 f0	 push	 DWORD PTR _strSelection$[ebp]
  0005e	8d 8e 20 06 00
	00		 lea	 ecx, DWORD PTR [esi+1568]
  00064	e8 00 00 00 00	 call	 ?SetWindowTextA@CWnd@@QAEXPBD@Z ; CWnd::SetWindowTextA

; 1818 : }

  00069	8d 4d f0	 lea	 ecx, DWORD PTR _strSelection$[ebp]
  0006c	ff 15 00 00 00
	00		 call	 DWORD PTR __imp_??1?$CStringT@DV?$StrTraitMFC_DLL@DV?$ChTraitsCRT@D@ATL@@@@@ATL@@QAE@XZ
  00072	8b 4d f4	 mov	 ecx, DWORD PTR __$EHRec$[ebp]
  00075	64 89 0d 00 00
	00 00		 mov	 DWORD PTR fs:0, ecx
  0007c	59		 pop	 ecx
  0007d	5e		 pop	 esi
  0007e	8b e5		 mov	 esp, ebp
  00080	5d		 pop	 ebp
  00081	c3		 ret	 0
_TEXT	ENDS
;	COMDAT text$x
text$x	SEGMENT
__unwindfunclet$?OnSelchangeHorizontalList@CSetting_Common_Type_A@@IAEXXZ$0:
  00000	8d 4d f0	 lea	 ecx, DWORD PTR _strSelection$[ebp]
  00003	ff 25 00 00 00
	00		 jmp	 DWORD PTR __imp_??1?$CStringT@DV?$StrTraitMFC_DLL@DV?$ChTraitsCRT@D@ATL@@@@@ATL@@QAE@XZ
  00009	cc		 int	 3
  0000a	cc		 int	 3
  0000b	cc		 int	 3
  0000c	cc		 int	 3
  0000d	cc		 int	 3
__ehhandler$?OnSelchangeHorizontalList@CSetting_Common_Type_A@@IAEXXZ:
  0000e	90		 npad	 1
  0000f	90		 npad	 1
  00010	8b 54 24 08	 mov	 edx, DWORD PTR [esp+8]
  00014	8d 42 0c	 lea	 eax, DWORD PTR [edx+12]
  00017	8b 4a f4	 mov	 ecx, DWORD PTR [edx-12]
  0001a	33 c8		 xor	 ecx, eax
  0001c	e8 00 00 00 00	 call	 @__security_check_cookie@4
  00021	b8 00 00 00 00	 mov	 eax, OFFSET __ehfuncinfo$?OnSelchangeHorizontalList@CSetting_Common_Type_A@@IAEXXZ
  00026	e9 00 00 00 00	 jmp	 ___CxxFrameHandler3
text$x	ENDS
?OnSelchangeHorizontalList@CSetting_Common_Type_A@@IAEXXZ ENDP ; CSetting_Common_Type_A::OnSelchangeHorizontalList
; Function compile flags: /Ogtp
; File D:\git\src\IBK\IBK_DRFN\ProjSrc\SrcChartEx\ChartAddIn\ChartEnvSetupDlgAddIn\ChartEnvSetupDlgAddIn\Setting_Common_Type_A.cpp
; File C:\Program Files (x86)\Microsoft Visual Studio\2019\Community\VC\Tools\MSVC\14.29.30133\atlmfc\include\afxwin2.inl
; File D:\git\src\IBK\IBK_DRFN\ProjSrc\SrcChartEx\ChartAddIn\ChartEnvSetupDlgAddIn\ChartEnvSetupDlgAddIn\Setting_Common_Type_A.cpp
; File C:\Program Files (x86)\Microsoft Visual Studio\2019\Community\VC\Tools\MSVC\14.29.30133\atlmfc\include\afxwin2.inl
; File D:\git\src\IBK\IBK_DRFN\ProjSrc\SrcChartEx\ChartAddIn\ChartEnvSetupDlgAddIn\ChartEnvSetupDlgAddIn\Setting_Common_Type_A.cpp
; File C:\Program Files (x86)\Microsoft Visual Studio\2019\Community\VC\Tools\MSVC\14.29.30133\atlmfc\include\afxwin2.inl
; File D:\git\src\IBK\IBK_DRFN\ProjSrc\SrcChartEx\ChartAddIn\ChartEnvSetupDlgAddIn\ChartEnvSetupDlgAddIn\Setting_Common_Type_A.cpp
; File C:\Program Files (x86)\Microsoft Visual Studio\2019\Community\VC\Tools\MSVC\14.29.30133\atlmfc\include\afxwin2.inl
; File D:\git\src\IBK\IBK_DRFN\ProjSrc\SrcChartEx\ChartAddIn\ChartEnvSetupDlgAddIn\ChartEnvSetupDlgAddIn\Setting_Common_Type_A.cpp
;	COMDAT ?OnSelchangeCmbLinetype2@CSetting_Common_Type_A@@IAEXXZ
_TEXT	SEGMENT
?OnSelchangeCmbLinetype2@CSetting_Common_Type_A@@IAEXXZ PROC ; CSetting_Common_Type_A::OnSelchangeCmbLinetype2, COMDAT
; _this$ = ecx

; 1800 : {

  00000	56		 push	 esi
  00001	57		 push	 edi
; File C:\Program Files (x86)\Microsoft Visual Studio\2019\Community\VC\Tools\MSVC\14.29.30133\atlmfc\include\afxwin2.inl

; 765  : 	{ ASSERT(::IsWindow(m_hWnd)); return (int)::SendMessage(m_hWnd, CB_GETCURSEL, 0, 0); }

  00002	8b 3d 00 00 00
	00		 mov	 edi, DWORD PTR __imp__SendMessageA@16
; File D:\git\src\IBK\IBK_DRFN\ProjSrc\SrcChartEx\ChartAddIn\ChartEnvSetupDlgAddIn\ChartEnvSetupDlgAddIn\Setting_Common_Type_A.cpp

; 1800 : {

  00008	8b f1		 mov	 esi, ecx
; File C:\Program Files (x86)\Microsoft Visual Studio\2019\Community\VC\Tools\MSVC\14.29.30133\atlmfc\include\afxwin2.inl

; 765  : 	{ ASSERT(::IsWindow(m_hWnd)); return (int)::SendMessage(m_hWnd, CB_GETCURSEL, 0, 0); }

  0000a	6a 00		 push	 0
  0000c	6a 00		 push	 0
  0000e	68 47 01 00 00	 push	 327			; 00000147H
  00013	ff b6 60 14 00
	00		 push	 DWORD PTR [esi+5216]
  00019	ff d7		 call	 edi
; File D:\git\src\IBK\IBK_DRFN\ProjSrc\SrcChartEx\ChartAddIn\ChartEnvSetupDlgAddIn\ChartEnvSetupDlgAddIn\Setting_Common_Type_A.cpp

; 1801 : 	if(m_cmbLineType2.GetCurSel() != 0 && m_cmbThickness2.GetCurSel() != 0 )

  0001b	85 c0		 test	 eax, eax
  0001d	74 35		 je	 SHORT $LN2@OnSelchang
; File C:\Program Files (x86)\Microsoft Visual Studio\2019\Community\VC\Tools\MSVC\14.29.30133\atlmfc\include\afxwin2.inl

; 765  : 	{ ASSERT(::IsWindow(m_hWnd)); return (int)::SendMessage(m_hWnd, CB_GETCURSEL, 0, 0); }

  0001f	6a 00		 push	 0
  00021	6a 00		 push	 0
  00023	68 47 01 00 00	 push	 327			; 00000147H
  00028	ff b6 d8 13 00
	00		 push	 DWORD PTR [esi+5080]
  0002e	ff d7		 call	 edi
; File D:\git\src\IBK\IBK_DRFN\ProjSrc\SrcChartEx\ChartAddIn\ChartEnvSetupDlgAddIn\ChartEnvSetupDlgAddIn\Setting_Common_Type_A.cpp

; 1801 : 	if(m_cmbLineType2.GetCurSel() != 0 && m_cmbThickness2.GetCurSel() != 0 )

  00030	85 c0		 test	 eax, eax
  00032	74 20		 je	 SHORT $LN2@OnSelchang

; 1802 : 	{
; 1803 : // 2008.01.25 by LYH >>
; 1804 : 		//AfxMessageBox(" \"\"     .");
; 1805 : 		AfxMessageBox(m_strMsgLineThick);

  00034	6a 00		 push	 0
  00036	6a 00		 push	 0
  00038	ff b6 dc 00 00
	00		 push	 DWORD PTR [esi+220]
  0003e	e8 00 00 00 00	 call	 ?AfxMessageBox@@YGHPBDII@Z ; AfxMessageBox
; File C:\Program Files (x86)\Microsoft Visual Studio\2019\Community\VC\Tools\MSVC\14.29.30133\atlmfc\include\afxwin2.inl

; 767  : 	{ ASSERT(::IsWindow(m_hWnd)); return (int)::SendMessage(m_hWnd, CB_SETCURSEL, nSelect, 0); }

  00043	6a 00		 push	 0
  00045	6a 00		 push	 0
  00047	68 4e 01 00 00	 push	 334			; 0000014eH
  0004c	ff b6 60 14 00
	00		 push	 DWORD PTR [esi+5216]
  00052	ff d7		 call	 edi
$LN2@OnSelchang:
  00054	5f		 pop	 edi
; File D:\git\src\IBK\IBK_DRFN\ProjSrc\SrcChartEx\ChartAddIn\ChartEnvSetupDlgAddIn\ChartEnvSetupDlgAddIn\Setting_Common_Type_A.cpp

; 1809 : }

  00055	5e		 pop	 esi
  00056	c3		 ret	 0
?OnSelchangeCmbLinetype2@CSetting_Common_Type_A@@IAEXXZ ENDP ; CSetting_Common_Type_A::OnSelchangeCmbLinetype2
_TEXT	ENDS
; Function compile flags: /Ogtp
; File D:\git\src\IBK\IBK_DRFN\ProjSrc\SrcChartEx\ChartAddIn\ChartEnvSetupDlgAddIn\ChartEnvSetupDlgAddIn\Setting_Common_Type_A.cpp
; File C:\Program Files (x86)\Microsoft Visual Studio\2019\Community\VC\Tools\MSVC\14.29.30133\atlmfc\include\afxwin2.inl
; File D:\git\src\IBK\IBK_DRFN\ProjSrc\SrcChartEx\ChartAddIn\ChartEnvSetupDlgAddIn\ChartEnvSetupDlgAddIn\Setting_Common_Type_A.cpp
; File C:\Program Files (x86)\Microsoft Visual Studio\2019\Community\VC\Tools\MSVC\14.29.30133\atlmfc\include\afxwin2.inl
; File D:\git\src\IBK\IBK_DRFN\ProjSrc\SrcChartEx\ChartAddIn\ChartEnvSetupDlgAddIn\ChartEnvSetupDlgAddIn\Setting_Common_Type_A.cpp
; File C:\Program Files (x86)\Microsoft Visual Studio\2019\Community\VC\Tools\MSVC\14.29.30133\atlmfc\include\afxwin2.inl
; File D:\git\src\IBK\IBK_DRFN\ProjSrc\SrcChartEx\ChartAddIn\ChartEnvSetupDlgAddIn\ChartEnvSetupDlgAddIn\Setting_Common_Type_A.cpp
; File C:\Program Files (x86)\Microsoft Visual Studio\2019\Community\VC\Tools\MSVC\14.29.30133\atlmfc\include\afxwin2.inl
; File D:\git\src\IBK\IBK_DRFN\ProjSrc\SrcChartEx\ChartAddIn\ChartEnvSetupDlgAddIn\ChartEnvSetupDlgAddIn\Setting_Common_Type_A.cpp
;	COMDAT ?OnSelchangeCmbThickness2@CSetting_Common_Type_A@@IAEXXZ
_TEXT	SEGMENT
?OnSelchangeCmbThickness2@CSetting_Common_Type_A@@IAEXXZ PROC ; CSetting_Common_Type_A::OnSelchangeCmbThickness2, COMDAT
; _this$ = ecx

; 1788 : {

  00000	56		 push	 esi
  00001	57		 push	 edi
; File C:\Program Files (x86)\Microsoft Visual Studio\2019\Community\VC\Tools\MSVC\14.29.30133\atlmfc\include\afxwin2.inl

; 765  : 	{ ASSERT(::IsWindow(m_hWnd)); return (int)::SendMessage(m_hWnd, CB_GETCURSEL, 0, 0); }

  00002	8b 3d 00 00 00
	00		 mov	 edi, DWORD PTR __imp__SendMessageA@16
; File D:\git\src\IBK\IBK_DRFN\ProjSrc\SrcChartEx\ChartAddIn\ChartEnvSetupDlgAddIn\ChartEnvSetupDlgAddIn\Setting_Common_Type_A.cpp

; 1788 : {

  00008	8b f1		 mov	 esi, ecx
; File C:\Program Files (x86)\Microsoft Visual Studio\2019\Community\VC\Tools\MSVC\14.29.30133\atlmfc\include\afxwin2.inl

; 765  : 	{ ASSERT(::IsWindow(m_hWnd)); return (int)::SendMessage(m_hWnd, CB_GETCURSEL, 0, 0); }

  0000a	6a 00		 push	 0
  0000c	6a 00		 push	 0
  0000e	68 47 01 00 00	 push	 327			; 00000147H
  00013	ff b6 60 14 00
	00		 push	 DWORD PTR [esi+5216]
  00019	ff d7		 call	 edi
; File D:\git\src\IBK\IBK_DRFN\ProjSrc\SrcChartEx\ChartAddIn\ChartEnvSetupDlgAddIn\ChartEnvSetupDlgAddIn\Setting_Common_Type_A.cpp

; 1789 : 	if(m_cmbLineType2.GetCurSel() != 0 && m_cmbThickness2.GetCurSel() != 0 )

  0001b	85 c0		 test	 eax, eax
  0001d	74 35		 je	 SHORT $LN2@OnSelchang
; File C:\Program Files (x86)\Microsoft Visual Studio\2019\Community\VC\Tools\MSVC\14.29.30133\atlmfc\include\afxwin2.inl

; 765  : 	{ ASSERT(::IsWindow(m_hWnd)); return (int)::SendMessage(m_hWnd, CB_GETCURSEL, 0, 0); }

  0001f	6a 00		 push	 0
  00021	6a 00		 push	 0
  00023	68 47 01 00 00	 push	 327			; 00000147H
  00028	ff b6 d8 13 00
	00		 push	 DWORD PTR [esi+5080]
  0002e	ff d7		 call	 edi
; File D:\git\src\IBK\IBK_DRFN\ProjSrc\SrcChartEx\ChartAddIn\ChartEnvSetupDlgAddIn\ChartEnvSetupDlgAddIn\Setting_Common_Type_A.cpp

; 1789 : 	if(m_cmbLineType2.GetCurSel() != 0 && m_cmbThickness2.GetCurSel() != 0 )

  00030	85 c0		 test	 eax, eax
  00032	74 20		 je	 SHORT $LN2@OnSelchang

; 1790 : 	{
; 1791 : // 2008.01.25 by LYH >>
; 1792 : 		//AfxMessageBox(" \"\"     .");
; 1793 : 		AfxMessageBox(m_strMsgLineThick);

  00034	6a 00		 push	 0
  00036	6a 00		 push	 0
  00038	ff b6 dc 00 00
	00		 push	 DWORD PTR [esi+220]
  0003e	e8 00 00 00 00	 call	 ?AfxMessageBox@@YGHPBDII@Z ; AfxMessageBox
; File C:\Program Files (x86)\Microsoft Visual Studio\2019\Community\VC\Tools\MSVC\14.29.30133\atlmfc\include\afxwin2.inl

; 767  : 	{ ASSERT(::IsWindow(m_hWnd)); return (int)::SendMessage(m_hWnd, CB_SETCURSEL, nSelect, 0); }

  00043	6a 00		 push	 0
  00045	6a 00		 push	 0
  00047	68 4e 01 00 00	 push	 334			; 0000014eH
  0004c	ff b6 d8 13 00
	00		 push	 DWORD PTR [esi+5080]
  00052	ff d7		 call	 edi
$LN2@OnSelchang:
  00054	5f		 pop	 edi
; File D:\git\src\IBK\IBK_DRFN\ProjSrc\SrcChartEx\ChartAddIn\ChartEnvSetupDlgAddIn\ChartEnvSetupDlgAddIn\Setting_Common_Type_A.cpp

; 1797 : }

  00055	5e		 pop	 esi
  00056	c3		 ret	 0
?OnSelchangeCmbThickness2@CSetting_Common_Type_A@@IAEXXZ ENDP ; CSetting_Common_Type_A::OnSelchangeCmbThickness2
_TEXT	ENDS
; Function compile flags: /Ogtp
; File D:\git\src\IBK\IBK_DRFN\ProjSrc\SrcChartEx\ChartAddIn\ChartEnvSetupDlgAddIn\ChartEnvSetupDlgAddIn\Setting_Common_Type_A.cpp
;	COMDAT ?OnChkFillColor@CSetting_Common_Type_A@@IAEXXZ
_TEXT	SEGMENT
?OnChkFillColor@CSetting_Common_Type_A@@IAEXXZ PROC	; CSetting_Common_Type_A::OnChkFillColor, COMDAT
; _this$ = ecx

; 1783 : 	// TODO: Add your control notification handler code here
; 1784 : // 	m_btnFillColor.SetCheck( )
; 1785 : }

  00000	c2 00 00	 ret	 0
?OnChkFillColor@CSetting_Common_Type_A@@IAEXXZ ENDP	; CSetting_Common_Type_A::OnChkFillColor
_TEXT	ENDS
; Function compile flags: /Ogtp
; File D:\git\src\IBK\IBK_DRFN\ProjSrc\SrcChartEx\ChartAddIn\ChartEnvSetupDlgAddIn\ChartEnvSetupDlgAddIn\Setting_Common_Type_A.cpp
; File D:\git\src\IBK\IBK_DRFN\ProjSrc\SrcChartEx\ChartAddIn\ChartEnvSetupDlgAddIn\Include_AddIn_135914\I135914\_IString.h
; File D:\git\src\IBK\IBK_DRFN\ProjSrc\SrcChartEx\ChartAddIn\ChartEnvSetupDlgAddIn\ChartEnvSetupDlgAddIn\Setting_Common_Type_A.cpp
; File D:\git\src\IBK\IBK_DRFN\ProjSrc\SrcChartEx\ChartAddIn\ChartEnvSetupDlgAddIn\Include_AddIn_135914\I135914\_IString.h
; File C:\Program Files (x86)\Microsoft Visual Studio\2019\Community\VC\Tools\MSVC\14.29.30133\atlmfc\include\afxwin2.inl
; File C:\Program Files (x86)\Microsoft Visual Studio\2019\Community\VC\Tools\MSVC\14.29.30133\atlmfc\include\afxdlgs.h
; File D:\git\src\IBK\IBK_DRFN\ProjSrc\SrcChartEx\ChartAddIn\ChartEnvSetupDlgAddIn\ChartEnvSetupDlgAddIn\Setting_Common_Type_A.cpp
;	COMDAT ?OnBtnDown1@CSetting_Common_Type_A@@IAEXXZ
_TEXT	SEGMENT
_color$ = -232						; size = 208
_szGraphName$2 = -24					; size = 8
$T3 = -16						; size = 4
__$EHRec$ = -12						; size = 12
?OnBtnDown1@CSetting_Common_Type_A@@IAEXXZ PROC		; CSetting_Common_Type_A::OnBtnDown1, COMDAT
; _this$ = ecx

; 1748 : {

  00000	55		 push	 ebp
  00001	8b ec		 mov	 ebp, esp
  00003	6a ff		 push	 -1
  00005	68 00 00 00 00	 push	 __ehhandler$?OnBtnDown1@CSetting_Common_Type_A@@IAEXXZ
  0000a	64 a1 00 00 00
	00		 mov	 eax, DWORD PTR fs:0
  00010	50		 push	 eax
  00011	81 ec dc 00 00
	00		 sub	 esp, 220		; 000000dcH
  00017	53		 push	 ebx
  00018	56		 push	 esi
  00019	57		 push	 edi
  0001a	a1 00 00 00 00	 mov	 eax, DWORD PTR ___security_cookie
  0001f	33 c5		 xor	 eax, ebp
  00021	50		 push	 eax
  00022	8d 45 f4	 lea	 eax, DWORD PTR __$EHRec$[ebp]
  00025	64 a3 00 00 00
	00		 mov	 DWORD PTR fs:0, eax
  0002b	8b f1		 mov	 esi, ecx

; 1749 : 	// TODO: Add your control notification handler code here
; 1750 : 	if(m_nSubGraphIndex < 0) return;

  0002d	83 be cc 14 00
	00 00		 cmp	 DWORD PTR [esi+5324], 0
  00034	0f 8c 24 01 00
	00		 jl	 $LN23@OnBtnDown1

; 1751 : 	
; 1752 : 	COLORREF crColor = m_btnDown1Color.GetColor();

  0003a	8d 8e f8 01 00
	00		 lea	 ecx, DWORD PTR [esi+504]
  00040	e8 00 00 00 00	 call	 ?GetColor@CColorButton@@QAEKXZ ; CColorButton::GetColor

; 1753 : 	CColorDialog color(crColor, CC_FULLOPEN);

  00045	6a 00		 push	 0
  00047	6a 02		 push	 2
  00049	50		 push	 eax
  0004a	8d 8d 18 ff ff
	ff		 lea	 ecx, DWORD PTR _color$[ebp]
  00050	e8 00 00 00 00	 call	 ??0CColorDialog@@QAE@KKPAVCWnd@@@Z ; CColorDialog::CColorDialog

; 1754 : 	if(color.DoModal() == IDOK) 

  00055	8d 8d 18 ff ff
	ff		 lea	 ecx, DWORD PTR _color$[ebp]
  0005b	c7 45 fc 00 00
	00 00		 mov	 DWORD PTR __$EHRec$[ebp+8], 0
  00062	e8 00 00 00 00	 call	 ?DoModal@CColorDialog@@UAEHXZ ; CColorDialog::DoModal
  00067	83 f8 01	 cmp	 eax, 1
  0006a	0f 85 c9 00 00
	00		 jne	 $LN14@OnBtnDown1

; 1759 : 		ILPCSTR szGraphName = m_pIGraphInfo->GetGraphNameString();

  00070	8b 8e c4 00 00
	00		 mov	 ecx, DWORD PTR [esi+196]
  00076	8b 01		 mov	 eax, DWORD PTR [ecx]
  00078	ff 90 a0 00 00
	00		 call	 DWORD PTR [eax+160]
; File D:\git\src\IBK\IBK_DRFN\ProjSrc\SrcChartEx\ChartAddIn\ChartEnvSetupDlgAddIn\Include_AddIn_135914\I135914\_IString.h

; 39   : 		m_pIStrData = p_pIString;	// Do not AddRef(). Because It must be Return Value.

  0007e	8b f8		 mov	 edi, eax
  00080	89 7d ec	 mov	 DWORD PTR _szGraphName$2[ebp+4], edi

; 40   : 		if( m_pIStrData) m_szData = m_pIStrData->GetData();

  00083	85 ff		 test	 edi, edi
  00085	74 0b		 je	 SHORT $LN10@OnBtnDown1
  00087	8b 17		 mov	 edx, DWORD PTR [edi]
  00089	8b cf		 mov	 ecx, edi
  0008b	ff 52 10	 call	 DWORD PTR [edx+16]
  0008e	8b c8		 mov	 ecx, eax
  00090	eb 02		 jmp	 SHORT $LN30@OnBtnDown1
$LN10@OnBtnDown1:

; 41   : 		else m_szData = NULL;

  00092	33 c9		 xor	 ecx, ecx
$LN30@OnBtnDown1:
; File D:\git\src\IBK\IBK_DRFN\ProjSrc\SrcChartEx\ChartAddIn\ChartEnvSetupDlgAddIn\ChartEnvSetupDlgAddIn\Setting_Common_Type_A.cpp

; 1759 : 		ILPCSTR szGraphName = m_pIGraphInfo->GetGraphNameString();

  00094	89 4d e8	 mov	 DWORD PTR _szGraphName$2[ebp], ecx

; 1760 : // 2008.01.25 by LYH >>
; 1761 : //		if( !strcmp( szGraphName, ""))
; 1762 : 		if( !strcmp( szGraphName,  _MTEXT( C2_RAINBOW_CHART )))

  00097	a1 54 00 00 00	 mov	 eax, DWORD PTR ?g_iMetaTable@@3VIMetaTable@@A+84
  0009c	c6 45 fc 01	 mov	 BYTE PTR __$EHRec$[ebp+8], 1
  000a0	8b 80 30 03 00
	00		 mov	 eax, DWORD PTR [eax+816]
$LL25@OnBtnDown1:
  000a6	8a 11		 mov	 dl, BYTE PTR [ecx]
  000a8	3a 10		 cmp	 dl, BYTE PTR [eax]
  000aa	75 1a		 jne	 SHORT $LN26@OnBtnDown1
  000ac	84 d2		 test	 dl, dl
  000ae	74 12		 je	 SHORT $LN27@OnBtnDown1
  000b0	8a 51 01	 mov	 dl, BYTE PTR [ecx+1]
  000b3	3a 50 01	 cmp	 dl, BYTE PTR [eax+1]
  000b6	75 0e		 jne	 SHORT $LN26@OnBtnDown1
  000b8	83 c1 02	 add	 ecx, 2
  000bb	83 c0 02	 add	 eax, 2
  000be	84 d2		 test	 dl, dl
  000c0	75 e4		 jne	 SHORT $LL25@OnBtnDown1
$LN27@OnBtnDown1:
  000c2	33 c0		 xor	 eax, eax
  000c4	eb 05		 jmp	 SHORT $LN28@OnBtnDown1
$LN26@OnBtnDown1:
  000c6	1b c0		 sbb	 eax, eax
  000c8	83 c8 01	 or	 eax, 1
$LN28@OnBtnDown1:
  000cb	8b 8e c4 00 00
	00		 mov	 ecx, DWORD PTR [esi+196]
  000d1	8b 9e cc 14 00
	00		 mov	 ebx, DWORD PTR [esi+5324]
  000d7	ff 75 cc	 push	 DWORD PTR _color$[ebp+180]
  000da	8b 11		 mov	 edx, DWORD PTR [ecx]
  000dc	85 c0		 test	 eax, eax
  000de	75 0a		 jne	 SHORT $LN4@OnBtnDown1

; 1763 : // 2008.01.25 by LYH <<
; 1764 : 		{
; 1765 : 			m_pIGraphInfo->SetSubGraphColor( m_nSubGraphIndex, 2, color.GetColor());

  000e0	6a 02		 push	 2
  000e2	53		 push	 ebx
  000e3	ff 52 6c	 call	 DWORD PTR [edx+108]

; 1766 : 			m_btnDown1Color.SetColor( m_pIGraphInfo->GetSubGraphColor( m_nSubGraphIndex, 2));

  000e6	6a 02		 push	 2

; 1767 : 		}

  000e8	eb 1e		 jmp	 SHORT $LN31@OnBtnDown1
$LN4@OnBtnDown1:

; 1768 : 
; 1769 : 		else
; 1770 : 		{
; 1771 : 			m_pIGraphInfo->SetSubGraphColor( m_nSubGraphIndex, 3, color.GetColor());

  000ea	6a 03		 push	 3
  000ec	53		 push	 ebx
  000ed	ff 52 6c	 call	 DWORD PTR [edx+108]

; 1772 : 			m_pIGraphInfo->SetSubGraphColor( m_nSubGraphIndex, 4, color.GetColor());

  000f0	8b 8e c4 00 00
	00		 mov	 ecx, DWORD PTR [esi+196]
  000f6	ff 75 cc	 push	 DWORD PTR _color$[ebp+180]
  000f9	6a 04		 push	 4
  000fb	8b 01		 mov	 eax, DWORD PTR [ecx]
  000fd	ff b6 cc 14 00
	00		 push	 DWORD PTR [esi+5324]
  00103	ff 50 6c	 call	 DWORD PTR [eax+108]

; 1773 : 			m_btnDown1Color.SetColor( m_pIGraphInfo->GetSubGraphColor( m_nSubGraphIndex, 3));

  00106	6a 03		 push	 3
$LN31@OnBtnDown1:
; File D:\git\src\IBK\IBK_DRFN\ProjSrc\SrcChartEx\ChartAddIn\ChartEnvSetupDlgAddIn\Include_AddIn_135914\I135914\_IString.h

; 44   : 	{

  00108	8b 8e c4 00 00
	00		 mov	 ecx, DWORD PTR [esi+196]
  0010e	ff b6 cc 14 00
	00		 push	 DWORD PTR [esi+5324]
  00114	8b 01		 mov	 eax, DWORD PTR [ecx]
  00116	ff 50 64	 call	 DWORD PTR [eax+100]
  00119	89 45 f0	 mov	 DWORD PTR $T3[ebp], eax
  0011c	8d 8e f8 01 00
	00		 lea	 ecx, DWORD PTR [esi+504]
  00122	8d 45 f0	 lea	 eax, DWORD PTR $T3[ebp]
  00125	50		 push	 eax
  00126	e8 00 00 00 00	 call	 ?SetColor@CColorButton@@QAEXABK@Z ; CColorButton::SetColor
  0012b	c6 45 fc 02	 mov	 BYTE PTR __$EHRec$[ebp+8], 2

; 45   : 		if( m_pIStrData)

  0012f	85 ff		 test	 edi, edi
  00131	74 06		 je	 SHORT $LN14@OnBtnDown1

; 46   : 		{
; 47   : 			m_pIStrData->Release();

  00133	8b 07		 mov	 eax, DWORD PTR [edi]
  00135	57		 push	 edi
  00136	ff 50 08	 call	 DWORD PTR [eax+8]
$LN14@OnBtnDown1:
; File C:\Program Files (x86)\Microsoft Visual Studio\2019\Community\VC\Tools\MSVC\14.29.30133\atlmfc\include\afxwin2.inl

; 114  : 	{ ASSERT(::IsWindow(m_hWnd)); ::InvalidateRect(m_hWnd, NULL, bErase); }

  00139	6a 01		 push	 1
  0013b	6a 00		 push	 0
  0013d	ff b6 18 02 00
	00		 push	 DWORD PTR [esi+536]
  00143	ff 15 00 00 00
	00		 call	 DWORD PTR __imp__InvalidateRect@12
; File C:\Program Files (x86)\Microsoft Visual Studio\2019\Community\VC\Tools\MSVC\14.29.30133\atlmfc\include\afxdlgs.h

; 110  :     virtual ~CCommonDialog() {};

  00149	8d 8d 18 ff ff
	ff		 lea	 ecx, DWORD PTR _color$[ebp]
  0014f	c7 85 18 ff ff
	ff 00 00 00 00	 mov	 DWORD PTR _color$[ebp], OFFSET ??_7CCommonDialog@@6B@
  00159	e8 00 00 00 00	 call	 ??1CDialog@@UAE@XZ	; CDialog::~CDialog
$LN23@OnBtnDown1:
; File D:\git\src\IBK\IBK_DRFN\ProjSrc\SrcChartEx\ChartAddIn\ChartEnvSetupDlgAddIn\ChartEnvSetupDlgAddIn\Setting_Common_Type_A.cpp

; 1779 : }

  0015e	8b 4d f4	 mov	 ecx, DWORD PTR __$EHRec$[ebp]
  00161	64 89 0d 00 00
	00 00		 mov	 DWORD PTR fs:0, ecx
  00168	59		 pop	 ecx
  00169	5f		 pop	 edi
  0016a	5e		 pop	 esi
  0016b	5b		 pop	 ebx
  0016c	8b e5		 mov	 esp, ebp
  0016e	5d		 pop	 ebp
  0016f	c3		 ret	 0
_TEXT	ENDS
;	COMDAT text$x
text$x	SEGMENT
__unwindfunclet$?OnBtnDown1@CSetting_Common_Type_A@@IAEXXZ$0:
  00000	8d 8d 18 ff ff
	ff		 lea	 ecx, DWORD PTR _color$[ebp]
  00006	e9 00 00 00 00	 jmp	 ??1CColorDialog@@UAE@XZ
__unwindfunclet$?OnBtnDown1@CSetting_Common_Type_A@@IAEXXZ$1:
  0000b	8d 4d e8	 lea	 ecx, DWORD PTR _szGraphName$2[ebp]
  0000e	e9 00 00 00 00	 jmp	 ??1ILPCSTR135914@@QAE@XZ ; ILPCSTR135914::~ILPCSTR135914
  00013	cc		 int	 3
  00014	cc		 int	 3
  00015	cc		 int	 3
  00016	cc		 int	 3
  00017	cc		 int	 3
__ehhandler$?OnBtnDown1@CSetting_Common_Type_A@@IAEXXZ:
  00018	90		 npad	 1
  00019	90		 npad	 1
  0001a	8b 54 24 08	 mov	 edx, DWORD PTR [esp+8]
  0001e	8d 42 0c	 lea	 eax, DWORD PTR [edx+12]
  00021	8b 8a 14 ff ff
	ff		 mov	 ecx, DWORD PTR [edx-236]
  00027	33 c8		 xor	 ecx, eax
  00029	e8 00 00 00 00	 call	 @__security_check_cookie@4
  0002e	b8 00 00 00 00	 mov	 eax, OFFSET __ehfuncinfo$?OnBtnDown1@CSetting_Common_Type_A@@IAEXXZ
  00033	e9 00 00 00 00	 jmp	 ___CxxFrameHandler3
text$x	ENDS
?OnBtnDown1@CSetting_Common_Type_A@@IAEXXZ ENDP		; CSetting_Common_Type_A::OnBtnDown1
; Function compile flags: /Ogtp
; File D:\git\src\IBK\IBK_DRFN\ProjSrc\SrcChartEx\ChartAddIn\ChartEnvSetupDlgAddIn\ChartEnvSetupDlgAddIn\Setting_Common_Type_A.cpp
; File D:\git\src\IBK\IBK_DRFN\ProjSrc\SrcChartEx\ChartAddIn\ChartEnvSetupDlgAddIn\Include_AddIn_135914\I135914\_IString.h
; File D:\git\src\IBK\IBK_DRFN\ProjSrc\SrcChartEx\ChartAddIn\ChartEnvSetupDlgAddIn\ChartEnvSetupDlgAddIn\Setting_Common_Type_A.cpp
; File D:\git\src\IBK\IBK_DRFN\ProjSrc\SrcChartEx\ChartAddIn\ChartEnvSetupDlgAddIn\Include_AddIn_135914\I135914\_IString.h
; File C:\Program Files (x86)\Microsoft Visual Studio\2019\Community\VC\Tools\MSVC\14.29.30133\atlmfc\include\afxwin2.inl
; File C:\Program Files (x86)\Microsoft Visual Studio\2019\Community\VC\Tools\MSVC\14.29.30133\atlmfc\include\afxdlgs.h
; File D:\git\src\IBK\IBK_DRFN\ProjSrc\SrcChartEx\ChartAddIn\ChartEnvSetupDlgAddIn\ChartEnvSetupDlgAddIn\Setting_Common_Type_A.cpp
;	COMDAT ?OnBtnUp1@CSetting_Common_Type_A@@IAEXXZ
_TEXT	SEGMENT
_color$ = -232						; size = 208
_szGraphName$2 = -24					; size = 8
$T3 = -16						; size = 4
__$EHRec$ = -12						; size = 12
?OnBtnUp1@CSetting_Common_Type_A@@IAEXXZ PROC		; CSetting_Common_Type_A::OnBtnUp1, COMDAT
; _this$ = ecx

; 1710 : {

  00000	55		 push	 ebp
  00001	8b ec		 mov	 ebp, esp
  00003	6a ff		 push	 -1
  00005	68 00 00 00 00	 push	 __ehhandler$?OnBtnUp1@CSetting_Common_Type_A@@IAEXXZ
  0000a	64 a1 00 00 00
	00		 mov	 eax, DWORD PTR fs:0
  00010	50		 push	 eax
  00011	81 ec dc 00 00
	00		 sub	 esp, 220		; 000000dcH
  00017	53		 push	 ebx
  00018	56		 push	 esi
  00019	57		 push	 edi
  0001a	a1 00 00 00 00	 mov	 eax, DWORD PTR ___security_cookie
  0001f	33 c5		 xor	 eax, ebp
  00021	50		 push	 eax
  00022	8d 45 f4	 lea	 eax, DWORD PTR __$EHRec$[ebp]
  00025	64 a3 00 00 00
	00		 mov	 DWORD PTR fs:0, eax
  0002b	8b f1		 mov	 esi, ecx

; 1711 : 	// TODO: Add your control notification handler code here
; 1712 : 	if(m_nSubGraphIndex < 0) return;

  0002d	83 be cc 14 00
	00 00		 cmp	 DWORD PTR [esi+5324], 0
  00034	0f 8c 1f 01 00
	00		 jl	 $LN23@OnBtnUp1

; 1713 : 	
; 1714 : 	COLORREF crColor = m_btnUp1Color.GetColor();

  0003a	8d 8e 80 02 00
	00		 lea	 ecx, DWORD PTR [esi+640]
  00040	e8 00 00 00 00	 call	 ?GetColor@CColorButton@@QAEKXZ ; CColorButton::GetColor

; 1715 : 	CColorDialog color(crColor, CC_FULLOPEN);

  00045	6a 00		 push	 0
  00047	6a 02		 push	 2
  00049	50		 push	 eax
  0004a	8d 8d 18 ff ff
	ff		 lea	 ecx, DWORD PTR _color$[ebp]
  00050	e8 00 00 00 00	 call	 ??0CColorDialog@@QAE@KKPAVCWnd@@@Z ; CColorDialog::CColorDialog

; 1716 : 	if(color.DoModal() == IDOK) 

  00055	8d 8d 18 ff ff
	ff		 lea	 ecx, DWORD PTR _color$[ebp]
  0005b	c7 45 fc 00 00
	00 00		 mov	 DWORD PTR __$EHRec$[ebp+8], 0
  00062	e8 00 00 00 00	 call	 ?DoModal@CColorDialog@@UAEHXZ ; CColorDialog::DoModal
  00067	83 f8 01	 cmp	 eax, 1
  0006a	0f 85 c4 00 00
	00		 jne	 $LN14@OnBtnUp1

; 1721 : 		ILPCSTR szGraphName = m_pIGraphInfo->GetGraphNameString();

  00070	8b 8e c4 00 00
	00		 mov	 ecx, DWORD PTR [esi+196]
  00076	8b 01		 mov	 eax, DWORD PTR [ecx]
  00078	ff 90 a0 00 00
	00		 call	 DWORD PTR [eax+160]
; File D:\git\src\IBK\IBK_DRFN\ProjSrc\SrcChartEx\ChartAddIn\ChartEnvSetupDlgAddIn\Include_AddIn_135914\I135914\_IString.h

; 39   : 		m_pIStrData = p_pIString;	// Do not AddRef(). Because It must be Return Value.

  0007e	8b f8		 mov	 edi, eax
  00080	89 7d ec	 mov	 DWORD PTR _szGraphName$2[ebp+4], edi

; 40   : 		if( m_pIStrData) m_szData = m_pIStrData->GetData();

  00083	85 ff		 test	 edi, edi
  00085	74 0b		 je	 SHORT $LN10@OnBtnUp1
  00087	8b 17		 mov	 edx, DWORD PTR [edi]
  00089	8b cf		 mov	 ecx, edi
  0008b	ff 52 10	 call	 DWORD PTR [edx+16]
  0008e	8b c8		 mov	 ecx, eax
  00090	eb 02		 jmp	 SHORT $LN30@OnBtnUp1
$LN10@OnBtnUp1:

; 41   : 		else m_szData = NULL;

  00092	33 c9		 xor	 ecx, ecx
$LN30@OnBtnUp1:
; File D:\git\src\IBK\IBK_DRFN\ProjSrc\SrcChartEx\ChartAddIn\ChartEnvSetupDlgAddIn\ChartEnvSetupDlgAddIn\Setting_Common_Type_A.cpp

; 1721 : 		ILPCSTR szGraphName = m_pIGraphInfo->GetGraphNameString();

  00094	89 4d e8	 mov	 DWORD PTR _szGraphName$2[ebp], ecx

; 1722 : // 2008.01.25 by LYH >>
; 1723 : 		//if( !strcmp( szGraphName, ""))
; 1724 : 		if( !strcmp( szGraphName,  _MTEXT( C2_RAINBOW_CHART )))

  00097	a1 54 00 00 00	 mov	 eax, DWORD PTR ?g_iMetaTable@@3VIMetaTable@@A+84
  0009c	c6 45 fc 01	 mov	 BYTE PTR __$EHRec$[ebp+8], 1
  000a0	8b 80 30 03 00
	00		 mov	 eax, DWORD PTR [eax+816]
$LL25@OnBtnUp1:
  000a6	8a 11		 mov	 dl, BYTE PTR [ecx]
  000a8	3a 10		 cmp	 dl, BYTE PTR [eax]
  000aa	75 1a		 jne	 SHORT $LN26@OnBtnUp1
  000ac	84 d2		 test	 dl, dl
  000ae	74 12		 je	 SHORT $LN27@OnBtnUp1
  000b0	8a 51 01	 mov	 dl, BYTE PTR [ecx+1]
  000b3	3a 50 01	 cmp	 dl, BYTE PTR [eax+1]
  000b6	75 0e		 jne	 SHORT $LN26@OnBtnUp1
  000b8	83 c1 02	 add	 ecx, 2
  000bb	83 c0 02	 add	 eax, 2
  000be	84 d2		 test	 dl, dl
  000c0	75 e4		 jne	 SHORT $LL25@OnBtnUp1
$LN27@OnBtnUp1:
  000c2	33 c0		 xor	 eax, eax
  000c4	eb 05		 jmp	 SHORT $LN28@OnBtnUp1
$LN26@OnBtnUp1:
  000c6	1b c0		 sbb	 eax, eax
  000c8	83 c8 01	 or	 eax, 1
$LN28@OnBtnUp1:
  000cb	8b 8e c4 00 00
	00		 mov	 ecx, DWORD PTR [esi+196]
  000d1	8b 9e cc 14 00
	00		 mov	 ebx, DWORD PTR [esi+5324]
  000d7	ff 75 cc	 push	 DWORD PTR _color$[ebp+180]
  000da	8b 11		 mov	 edx, DWORD PTR [ecx]
  000dc	6a 01		 push	 1
  000de	53		 push	 ebx
  000df	85 c0		 test	 eax, eax
  000e1	75 05		 jne	 SHORT $LN4@OnBtnUp1

; 1725 : // 2008.01.25 by LYH <<
; 1726 : 			m_pIGraphInfo->SetSubGraphColor( m_nSubGraphIndex, 1, color.GetColor());

  000e3	ff 52 6c	 call	 DWORD PTR [edx+108]
  000e6	eb 19		 jmp	 SHORT $LN5@OnBtnUp1
$LN4@OnBtnUp1:

; 1727 : 		else
; 1728 : 		{
; 1729 : 			m_pIGraphInfo->SetSubGraphColor( m_nSubGraphIndex, 1, color.GetColor());

  000e8	ff 52 6c	 call	 DWORD PTR [edx+108]

; 1730 : 			m_pIGraphInfo->SetSubGraphColor( m_nSubGraphIndex, 2, color.GetColor());

  000eb	8b 8e c4 00 00
	00		 mov	 ecx, DWORD PTR [esi+196]
  000f1	ff 75 cc	 push	 DWORD PTR _color$[ebp+180]
  000f4	6a 02		 push	 2
  000f6	8b 01		 mov	 eax, DWORD PTR [ecx]
  000f8	ff b6 cc 14 00
	00		 push	 DWORD PTR [esi+5324]
  000fe	ff 50 6c	 call	 DWORD PTR [eax+108]
$LN5@OnBtnUp1:

; 1731 : 		}
; 1732 : 
; 1733 : 		m_btnUp1Color.SetColor( m_pIGraphInfo->GetSubGraphColor( m_nSubGraphIndex, 1));

  00101	8b 8e c4 00 00
	00		 mov	 ecx, DWORD PTR [esi+196]
  00107	6a 01		 push	 1
  00109	ff b6 cc 14 00
	00		 push	 DWORD PTR [esi+5324]
  0010f	8b 01		 mov	 eax, DWORD PTR [ecx]
  00111	ff 50 64	 call	 DWORD PTR [eax+100]
  00114	89 45 f0	 mov	 DWORD PTR $T3[ebp], eax
  00117	8d 8e 80 02 00
	00		 lea	 ecx, DWORD PTR [esi+640]
  0011d	8d 45 f0	 lea	 eax, DWORD PTR $T3[ebp]
  00120	50		 push	 eax
  00121	e8 00 00 00 00	 call	 ?SetColor@CColorButton@@QAEXABK@Z ; CColorButton::SetColor
; File D:\git\src\IBK\IBK_DRFN\ProjSrc\SrcChartEx\ChartAddIn\ChartEnvSetupDlgAddIn\Include_AddIn_135914\I135914\_IString.h

; 44   : 	{

  00126	c6 45 fc 02	 mov	 BYTE PTR __$EHRec$[ebp+8], 2

; 45   : 		if( m_pIStrData)

  0012a	85 ff		 test	 edi, edi
  0012c	74 06		 je	 SHORT $LN14@OnBtnUp1

; 46   : 		{
; 47   : 			m_pIStrData->Release();

  0012e	8b 07		 mov	 eax, DWORD PTR [edi]
  00130	57		 push	 edi
  00131	ff 50 08	 call	 DWORD PTR [eax+8]
$LN14@OnBtnUp1:
; File C:\Program Files (x86)\Microsoft Visual Studio\2019\Community\VC\Tools\MSVC\14.29.30133\atlmfc\include\afxwin2.inl

; 114  : 	{ ASSERT(::IsWindow(m_hWnd)); ::InvalidateRect(m_hWnd, NULL, bErase); }

  00134	6a 01		 push	 1
  00136	6a 00		 push	 0
  00138	ff b6 a0 02 00
	00		 push	 DWORD PTR [esi+672]
  0013e	ff 15 00 00 00
	00		 call	 DWORD PTR __imp__InvalidateRect@12
; File C:\Program Files (x86)\Microsoft Visual Studio\2019\Community\VC\Tools\MSVC\14.29.30133\atlmfc\include\afxdlgs.h

; 110  :     virtual ~CCommonDialog() {};

  00144	8d 8d 18 ff ff
	ff		 lea	 ecx, DWORD PTR _color$[ebp]
  0014a	c7 85 18 ff ff
	ff 00 00 00 00	 mov	 DWORD PTR _color$[ebp], OFFSET ??_7CCommonDialog@@6B@
  00154	e8 00 00 00 00	 call	 ??1CDialog@@UAE@XZ	; CDialog::~CDialog
$LN23@OnBtnUp1:
; File D:\git\src\IBK\IBK_DRFN\ProjSrc\SrcChartEx\ChartAddIn\ChartEnvSetupDlgAddIn\ChartEnvSetupDlgAddIn\Setting_Common_Type_A.cpp

; 1738 : }

  00159	8b 4d f4	 mov	 ecx, DWORD PTR __$EHRec$[ebp]
  0015c	64 89 0d 00 00
	00 00		 mov	 DWORD PTR fs:0, ecx
  00163	59		 pop	 ecx
  00164	5f		 pop	 edi
  00165	5e		 pop	 esi
  00166	5b		 pop	 ebx
  00167	8b e5		 mov	 esp, ebp
  00169	5d		 pop	 ebp
  0016a	c3		 ret	 0
_TEXT	ENDS
;	COMDAT text$x
text$x	SEGMENT
__unwindfunclet$?OnBtnUp1@CSetting_Common_Type_A@@IAEXXZ$0:
  00000	8d 8d 18 ff ff
	ff		 lea	 ecx, DWORD PTR _color$[ebp]
  00006	e9 00 00 00 00	 jmp	 ??1CColorDialog@@UAE@XZ
__unwindfunclet$?OnBtnUp1@CSetting_Common_Type_A@@IAEXXZ$1:
  0000b	8d 4d e8	 lea	 ecx, DWORD PTR _szGraphName$2[ebp]
  0000e	e9 00 00 00 00	 jmp	 ??1ILPCSTR135914@@QAE@XZ ; ILPCSTR135914::~ILPCSTR135914
  00013	cc		 int	 3
  00014	cc		 int	 3
  00015	cc		 int	 3
  00016	cc		 int	 3
  00017	cc		 int	 3
__ehhandler$?OnBtnUp1@CSetting_Common_Type_A@@IAEXXZ:
  00018	90		 npad	 1
  00019	90		 npad	 1
  0001a	8b 54 24 08	 mov	 edx, DWORD PTR [esp+8]
  0001e	8d 42 0c	 lea	 eax, DWORD PTR [edx+12]
  00021	8b 8a 14 ff ff
	ff		 mov	 ecx, DWORD PTR [edx-236]
  00027	33 c8		 xor	 ecx, eax
  00029	e8 00 00 00 00	 call	 @__security_check_cookie@4
  0002e	b8 00 00 00 00	 mov	 eax, OFFSET __ehfuncinfo$?OnBtnUp1@CSetting_Common_Type_A@@IAEXXZ
  00033	e9 00 00 00 00	 jmp	 ___CxxFrameHandler3
text$x	ENDS
?OnBtnUp1@CSetting_Common_Type_A@@IAEXXZ ENDP		; CSetting_Common_Type_A::OnBtnUp1
; Function compile flags: /Ogtp
; File D:\git\src\IBK\IBK_DRFN\ProjSrc\SrcChartEx\ChartAddIn\ChartEnvSetupDlgAddIn\ChartEnvSetupDlgAddIn\Setting_Common_Type_A.cpp
; File C:\Program Files (x86)\Microsoft Visual Studio\2019\Community\VC\Tools\MSVC\14.29.30133\atlmfc\include\afxwin2.inl
; File C:\Program Files (x86)\Microsoft Visual Studio\2019\Community\VC\Tools\MSVC\14.29.30133\atlmfc\include\afxdlgs.h
; File D:\git\src\IBK\IBK_DRFN\ProjSrc\SrcChartEx\ChartAddIn\ChartEnvSetupDlgAddIn\ChartEnvSetupDlgAddIn\Setting_Common_Type_A.cpp
;	COMDAT ?OnBtnSteadyColor@CSetting_Common_Type_A@@IAEXXZ
_TEXT	SEGMENT
_color$ = -224						; size = 208
$T2 = -16						; size = 4
__$EHRec$ = -12						; size = 12
?OnBtnSteadyColor@CSetting_Common_Type_A@@IAEXXZ PROC	; CSetting_Common_Type_A::OnBtnSteadyColor, COMDAT
; _this$ = ecx

; 1671 : {

  00000	55		 push	 ebp
  00001	8b ec		 mov	 ebp, esp
  00003	6a ff		 push	 -1
  00005	68 00 00 00 00	 push	 __ehhandler$?OnBtnSteadyColor@CSetting_Common_Type_A@@IAEXXZ
  0000a	64 a1 00 00 00
	00		 mov	 eax, DWORD PTR fs:0
  00010	50		 push	 eax
  00011	81 ec d4 00 00
	00		 sub	 esp, 212		; 000000d4H
  00017	56		 push	 esi
  00018	57		 push	 edi
  00019	a1 00 00 00 00	 mov	 eax, DWORD PTR ___security_cookie
  0001e	33 c5		 xor	 eax, ebp
  00020	50		 push	 eax
  00021	8d 45 f4	 lea	 eax, DWORD PTR __$EHRec$[ebp]
  00024	64 a3 00 00 00
	00		 mov	 DWORD PTR fs:0, eax
  0002a	8b f1		 mov	 esi, ecx

; 1672 : 	// TODO: Add your control notification handler code here
; 1673 : 	if(m_nSubGraphIndex < 0) return;

  0002c	83 be cc 14 00
	00 00		 cmp	 DWORD PTR [esi+5324], 0
  00033	0f 8c ce 00 00
	00		 jl	 $LN15@OnBtnStead

; 1674 : 	
; 1675 : 	COLORREF crColor = m_btnSteadyColor.GetColor();

  00039	8d 8e 90 03 00
	00		 lea	 ecx, DWORD PTR [esi+912]
  0003f	e8 00 00 00 00	 call	 ?GetColor@CColorButton@@QAEKXZ ; CColorButton::GetColor

; 1676 : 	CColorDialog color(crColor, CC_FULLOPEN);

  00044	6a 00		 push	 0
  00046	6a 02		 push	 2
  00048	50		 push	 eax
  00049	8d 8d 20 ff ff
	ff		 lea	 ecx, DWORD PTR _color$[ebp]
  0004f	e8 00 00 00 00	 call	 ??0CColorDialog@@QAE@KKPAVCWnd@@@Z ; CColorDialog::CColorDialog

; 1677 : 	if(color.DoModal() == IDOK) 

  00054	8d 8d 20 ff ff
	ff		 lea	 ecx, DWORD PTR _color$[ebp]
  0005a	c7 45 fc 00 00
	00 00		 mov	 DWORD PTR __$EHRec$[ebp+8], 0
  00061	e8 00 00 00 00	 call	 ?DoModal@CColorDialog@@UAEHXZ ; CColorDialog::DoModal
  00066	83 f8 01	 cmp	 eax, 1
  00069	75 77		 jne	 SHORT $LN6@OnBtnStead

; 1678 : 	{
; 1679 : 		//   ""       .
; 1680 : 		if( m_pIGraphInfo->GetSubGraphStyle( m_nSubGraphIndex) ==  CGraphBaseData::FillLine )

  0006b	8b 8e c4 00 00
	00		 mov	 ecx, DWORD PTR [esi+196]
  00071	ff b6 cc 14 00
	00		 push	 DWORD PTR [esi+5324]
  00077	8b 01		 mov	 eax, DWORD PTR [ecx]
  00079	ff 50 54	 call	 DWORD PTR [eax+84]
  0007c	8b 8e c4 00 00
	00		 mov	 ecx, DWORD PTR [esi+196]
  00082	8b 11		 mov	 edx, DWORD PTR [ecx]
  00084	83 f8 01	 cmp	 eax, 1
  00087	75 10		 jne	 SHORT $LN4@OnBtnStead

; 1681 : 		{
; 1682 : 			m_pIGraphInfo->SetSubGraphColor( m_nSubGraphIndex, 5, color.GetColor());

  00089	ff 75 d4	 push	 DWORD PTR _color$[ebp+180]
  0008c	6a 05		 push	 5
  0008e	ff b6 cc 14 00
	00		 push	 DWORD PTR [esi+5324]
  00094	ff 52 6c	 call	 DWORD PTR [edx+108]

; 1683 : 
; 1684 : // (2009/10/8 - Seung-Won, Bae) why? only psychological line? how about rsi?
; 1685 : //			ILPCSTR szGraphName = m_pIGraphInfo->GetGraphNameString();
; 1686 : //			if( strcmp( szGraphName, "Psychological Line"))
; 1687 : //				m_pIGraphInfo->SetSubGraphColor( m_nSubGraphIndex, 6, color.GetColor());
; 1688 : 			
; 1689 : 			m_btnSteadyColor.SetColor( m_pIGraphInfo->GetSubGraphColor( m_nSubGraphIndex, 5));
; 1690 : 		}

  00097	eb 24		 jmp	 SHORT $LN18@OnBtnStead
$LN4@OnBtnStead:

; 1691 : 
; 1692 : 		else if( m_pIGraphInfo->GetSubGraphStyle( m_nSubGraphIndex) ==  CGraphBaseData::BoxBar )

  00099	ff b6 cc 14 00
	00		 push	 DWORD PTR [esi+5324]
  0009f	ff 52 54	 call	 DWORD PTR [edx+84]
  000a2	83 f8 04	 cmp	 eax, 4
  000a5	75 3b		 jne	 SHORT $LN6@OnBtnStead

; 1693 : 		{
; 1694 : 			m_pIGraphInfo->SetSubGraphColor( m_nSubGraphIndex, 5, color.GetColor());

  000a7	8b 8e c4 00 00
	00		 mov	 ecx, DWORD PTR [esi+196]
  000ad	ff 75 d4	 push	 DWORD PTR _color$[ebp+180]
  000b0	6a 05		 push	 5
  000b2	8b 01		 mov	 eax, DWORD PTR [ecx]
  000b4	ff b6 cc 14 00
	00		 push	 DWORD PTR [esi+5324]
  000ba	ff 50 6c	 call	 DWORD PTR [eax+108]
$LN18@OnBtnStead:
; File C:\Program Files (x86)\Microsoft Visual Studio\2019\Community\VC\Tools\MSVC\14.29.30133\atlmfc\include\afxwin2.inl

; 114  : 	{ ASSERT(::IsWindow(m_hWnd)); ::InvalidateRect(m_hWnd, NULL, bErase); }

  000bd	8b 8e c4 00 00
	00		 mov	 ecx, DWORD PTR [esi+196]
  000c3	6a 05		 push	 5
  000c5	ff b6 cc 14 00
	00		 push	 DWORD PTR [esi+5324]
  000cb	8b 01		 mov	 eax, DWORD PTR [ecx]
  000cd	ff 50 64	 call	 DWORD PTR [eax+100]
  000d0	89 45 f0	 mov	 DWORD PTR $T2[ebp], eax
  000d3	8d 8e 90 03 00
	00		 lea	 ecx, DWORD PTR [esi+912]
  000d9	8d 45 f0	 lea	 eax, DWORD PTR $T2[ebp]
  000dc	50		 push	 eax
  000dd	e8 00 00 00 00	 call	 ?SetColor@CColorButton@@QAEXABK@Z ; CColorButton::SetColor
$LN6@OnBtnStead:
  000e2	6a 01		 push	 1
  000e4	6a 00		 push	 0
  000e6	ff b6 b0 03 00
	00		 push	 DWORD PTR [esi+944]
  000ec	ff 15 00 00 00
	00		 call	 DWORD PTR __imp__InvalidateRect@12
; File C:\Program Files (x86)\Microsoft Visual Studio\2019\Community\VC\Tools\MSVC\14.29.30133\atlmfc\include\afxdlgs.h

; 110  :     virtual ~CCommonDialog() {};

  000f2	8d 8d 20 ff ff
	ff		 lea	 ecx, DWORD PTR _color$[ebp]
  000f8	c7 85 20 ff ff
	ff 00 00 00 00	 mov	 DWORD PTR _color$[ebp], OFFSET ??_7CCommonDialog@@6B@
  00102	e8 00 00 00 00	 call	 ??1CDialog@@UAE@XZ	; CDialog::~CDialog
$LN15@OnBtnStead:
; File D:\git\src\IBK\IBK_DRFN\ProjSrc\SrcChartEx\ChartAddIn\ChartEnvSetupDlgAddIn\ChartEnvSetupDlgAddIn\Setting_Common_Type_A.cpp

; 1700 : }

  00107	8b 4d f4	 mov	 ecx, DWORD PTR __$EHRec$[ebp]
  0010a	64 89 0d 00 00
	00 00		 mov	 DWORD PTR fs:0, ecx
  00111	59		 pop	 ecx
  00112	5f		 pop	 edi
  00113	5e		 pop	 esi
  00114	8b e5		 mov	 esp, ebp
  00116	5d		 pop	 ebp
  00117	c3		 ret	 0
_TEXT	ENDS
;	COMDAT text$x
text$x	SEGMENT
__unwindfunclet$?OnBtnSteadyColor@CSetting_Common_Type_A@@IAEXXZ$0:
  00000	8d 8d 20 ff ff
	ff		 lea	 ecx, DWORD PTR _color$[ebp]
  00006	e9 00 00 00 00	 jmp	 ??1CColorDialog@@UAE@XZ
  0000b	cc		 int	 3
  0000c	cc		 int	 3
  0000d	cc		 int	 3
  0000e	cc		 int	 3
  0000f	cc		 int	 3
__ehhandler$?OnBtnSteadyColor@CSetting_Common_Type_A@@IAEXXZ:
  00010	90		 npad	 1
  00011	90		 npad	 1
  00012	8b 54 24 08	 mov	 edx, DWORD PTR [esp+8]
  00016	8d 42 0c	 lea	 eax, DWORD PTR [edx+12]
  00019	8b 8a 20 ff ff
	ff		 mov	 ecx, DWORD PTR [edx-224]
  0001f	33 c8		 xor	 ecx, eax
  00021	e8 00 00 00 00	 call	 @__security_check_cookie@4
  00026	b8 00 00 00 00	 mov	 eax, OFFSET __ehfuncinfo$?OnBtnSteadyColor@CSetting_Common_Type_A@@IAEXXZ
  0002b	e9 00 00 00 00	 jmp	 ___CxxFrameHandler3
text$x	ENDS
?OnBtnSteadyColor@CSetting_Common_Type_A@@IAEXXZ ENDP	; CSetting_Common_Type_A::OnBtnSteadyColor
; Function compile flags: /Ogtp
; File D:\git\src\IBK\IBK_DRFN\ProjSrc\SrcChartEx\ChartAddIn\ChartEnvSetupDlgAddIn\ChartEnvSetupDlgAddIn\Setting_Common_Type_A.cpp
; File C:\Program Files (x86)\Microsoft Visual Studio\2019\Community\VC\Tools\MSVC\14.29.30133\atlmfc\include\afxwin2.inl
; File C:\Program Files (x86)\Microsoft Visual Studio\2019\Community\VC\Tools\MSVC\14.29.30133\atlmfc\include\afxdlgs.h
; File D:\git\src\IBK\IBK_DRFN\ProjSrc\SrcChartEx\ChartAddIn\ChartEnvSetupDlgAddIn\ChartEnvSetupDlgAddIn\Setting_Common_Type_A.cpp
;	COMDAT ?OnBtnDownColor@CSetting_Common_Type_A@@IAEXXZ
_TEXT	SEGMENT
_color$ = -224						; size = 208
$T2 = -16						; size = 4
__$EHRec$ = -12						; size = 12
?OnBtnDownColor@CSetting_Common_Type_A@@IAEXXZ PROC	; CSetting_Common_Type_A::OnBtnDownColor, COMDAT
; _this$ = ecx

; 1647 : {

  00000	55		 push	 ebp
  00001	8b ec		 mov	 ebp, esp
  00003	6a ff		 push	 -1
  00005	68 00 00 00 00	 push	 __ehhandler$?OnBtnDownColor@CSetting_Common_Type_A@@IAEXXZ
  0000a	64 a1 00 00 00
	00		 mov	 eax, DWORD PTR fs:0
  00010	50		 push	 eax
  00011	81 ec d4 00 00
	00		 sub	 esp, 212		; 000000d4H
  00017	56		 push	 esi
  00018	57		 push	 edi
  00019	a1 00 00 00 00	 mov	 eax, DWORD PTR ___security_cookie
  0001e	33 c5		 xor	 eax, ebp
  00020	50		 push	 eax
  00021	8d 45 f4	 lea	 eax, DWORD PTR __$EHRec$[ebp]
  00024	64 a3 00 00 00
	00		 mov	 DWORD PTR fs:0, eax
  0002a	8b f1		 mov	 esi, ecx

; 1648 : 	// TODO: Add your control notification handler code here
; 1649 : 	if(m_nSubGraphIndex < 0) return;

  0002c	83 be cc 14 00
	00 00		 cmp	 DWORD PTR [esi+5324], 0
  00033	0f 8c a8 00 00
	00		 jl	 $LN12@OnBtnDownC

; 1650 : 	
; 1651 : 	COLORREF crColor = m_btnDownColor.GetColor();

  00039	8d 8e 18 04 00
	00		 lea	 ecx, DWORD PTR [esi+1048]
  0003f	e8 00 00 00 00	 call	 ?GetColor@CColorButton@@QAEKXZ ; CColorButton::GetColor

; 1652 : 	CColorDialog color(crColor, CC_FULLOPEN);

  00044	6a 00		 push	 0
  00046	6a 02		 push	 2
  00048	50		 push	 eax
  00049	8d 8d 20 ff ff
	ff		 lea	 ecx, DWORD PTR _color$[ebp]
  0004f	e8 00 00 00 00	 call	 ??0CColorDialog@@QAE@KKPAVCWnd@@@Z ; CColorDialog::CColorDialog

; 1653 : 	if(color.DoModal() == IDOK) 

  00054	8d 8d 20 ff ff
	ff		 lea	 ecx, DWORD PTR _color$[ebp]
  0005a	c7 45 fc 00 00
	00 00		 mov	 DWORD PTR __$EHRec$[ebp+8], 0
  00061	e8 00 00 00 00	 call	 ?DoModal@CColorDialog@@UAEHXZ ; CColorDialog::DoModal
  00066	83 f8 01	 cmp	 eax, 1
  00069	75 51		 jne	 SHORT $LN3@OnBtnDownC

; 1654 : 	{
; 1655 : 		m_pIGraphInfo->SetSubGraphColor( m_nSubGraphIndex, 3, color.GetColor());

  0006b	8b 8e c4 00 00
	00		 mov	 ecx, DWORD PTR [esi+196]
  00071	ff 75 d4	 push	 DWORD PTR _color$[ebp+180]
  00074	6a 03		 push	 3
  00076	8b 01		 mov	 eax, DWORD PTR [ecx]
  00078	ff b6 cc 14 00
	00		 push	 DWORD PTR [esi+5324]
  0007e	ff 50 6c	 call	 DWORD PTR [eax+108]

; 1656 : 		m_pIGraphInfo->SetSubGraphColor( m_nSubGraphIndex, 4, color.GetColor());

  00081	8b 8e c4 00 00
	00		 mov	 ecx, DWORD PTR [esi+196]
  00087	ff 75 d4	 push	 DWORD PTR _color$[ebp+180]
  0008a	6a 04		 push	 4
  0008c	8b 01		 mov	 eax, DWORD PTR [ecx]
  0008e	ff b6 cc 14 00
	00		 push	 DWORD PTR [esi+5324]
  00094	ff 50 6c	 call	 DWORD PTR [eax+108]

; 1657 : 		m_btnDownColor.SetColor( m_pIGraphInfo->GetSubGraphColor( m_nSubGraphIndex, 3));

  00097	8b 8e c4 00 00
	00		 mov	 ecx, DWORD PTR [esi+196]
  0009d	6a 03		 push	 3
  0009f	ff b6 cc 14 00
	00		 push	 DWORD PTR [esi+5324]
  000a5	8b 01		 mov	 eax, DWORD PTR [ecx]
  000a7	ff 50 64	 call	 DWORD PTR [eax+100]
  000aa	89 45 f0	 mov	 DWORD PTR $T2[ebp], eax
  000ad	8d 8e 18 04 00
	00		 lea	 ecx, DWORD PTR [esi+1048]
  000b3	8d 45 f0	 lea	 eax, DWORD PTR $T2[ebp]
  000b6	50		 push	 eax
  000b7	e8 00 00 00 00	 call	 ?SetColor@CColorButton@@QAEXABK@Z ; CColorButton::SetColor
$LN3@OnBtnDownC:
; File C:\Program Files (x86)\Microsoft Visual Studio\2019\Community\VC\Tools\MSVC\14.29.30133\atlmfc\include\afxwin2.inl

; 114  : 	{ ASSERT(::IsWindow(m_hWnd)); ::InvalidateRect(m_hWnd, NULL, bErase); }

  000bc	6a 01		 push	 1
  000be	6a 00		 push	 0
  000c0	ff b6 38 04 00
	00		 push	 DWORD PTR [esi+1080]
  000c6	ff 15 00 00 00
	00		 call	 DWORD PTR __imp__InvalidateRect@12
; File C:\Program Files (x86)\Microsoft Visual Studio\2019\Community\VC\Tools\MSVC\14.29.30133\atlmfc\include\afxdlgs.h

; 110  :     virtual ~CCommonDialog() {};

  000cc	8d 8d 20 ff ff
	ff		 lea	 ecx, DWORD PTR _color$[ebp]
  000d2	c7 85 20 ff ff
	ff 00 00 00 00	 mov	 DWORD PTR _color$[ebp], OFFSET ??_7CCommonDialog@@6B@
  000dc	e8 00 00 00 00	 call	 ??1CDialog@@UAE@XZ	; CDialog::~CDialog
$LN12@OnBtnDownC:
; File D:\git\src\IBK\IBK_DRFN\ProjSrc\SrcChartEx\ChartAddIn\ChartEnvSetupDlgAddIn\ChartEnvSetupDlgAddIn\Setting_Common_Type_A.cpp

; 1661 : }

  000e1	8b 4d f4	 mov	 ecx, DWORD PTR __$EHRec$[ebp]
  000e4	64 89 0d 00 00
	00 00		 mov	 DWORD PTR fs:0, ecx
  000eb	59		 pop	 ecx
  000ec	5f		 pop	 edi
  000ed	5e		 pop	 esi
  000ee	8b e5		 mov	 esp, ebp
  000f0	5d		 pop	 ebp
  000f1	c3		 ret	 0
_TEXT	ENDS
;	COMDAT text$x
text$x	SEGMENT
__unwindfunclet$?OnBtnDownColor@CSetting_Common_Type_A@@IAEXXZ$0:
  00000	8d 8d 20 ff ff
	ff		 lea	 ecx, DWORD PTR _color$[ebp]
  00006	e9 00 00 00 00	 jmp	 ??1CColorDialog@@UAE@XZ
  0000b	cc		 int	 3
  0000c	cc		 int	 3
  0000d	cc		 int	 3
  0000e	cc		 int	 3
  0000f	cc		 int	 3
__ehhandler$?OnBtnDownColor@CSetting_Common_Type_A@@IAEXXZ:
  00010	90		 npad	 1
  00011	90		 npad	 1
  00012	8b 54 24 08	 mov	 edx, DWORD PTR [esp+8]
  00016	8d 42 0c	 lea	 eax, DWORD PTR [edx+12]
  00019	8b 8a 20 ff ff
	ff		 mov	 ecx, DWORD PTR [edx-224]
  0001f	33 c8		 xor	 ecx, eax
  00021	e8 00 00 00 00	 call	 @__security_check_cookie@4
  00026	b8 00 00 00 00	 mov	 eax, OFFSET __ehfuncinfo$?OnBtnDownColor@CSetting_Common_Type_A@@IAEXXZ
  0002b	e9 00 00 00 00	 jmp	 ___CxxFrameHandler3
text$x	ENDS
?OnBtnDownColor@CSetting_Common_Type_A@@IAEXXZ ENDP	; CSetting_Common_Type_A::OnBtnDownColor
; Function compile flags: /Ogtp
; File D:\git\src\IBK\IBK_DRFN\ProjSrc\SrcChartEx\ChartAddIn\ChartEnvSetupDlgAddIn\ChartEnvSetupDlgAddIn\Setting_Common_Type_A.cpp
; File C:\Program Files (x86)\Microsoft Visual Studio\2019\Community\VC\Tools\MSVC\14.29.30133\atlmfc\include\afxwin2.inl
; File C:\Program Files (x86)\Microsoft Visual Studio\2019\Community\VC\Tools\MSVC\14.29.30133\atlmfc\include\afxdlgs.h
; File D:\git\src\IBK\IBK_DRFN\ProjSrc\SrcChartEx\ChartAddIn\ChartEnvSetupDlgAddIn\ChartEnvSetupDlgAddIn\Setting_Common_Type_A.cpp
;	COMDAT ?OnBtnUpColor@CSetting_Common_Type_A@@IAEXXZ
_TEXT	SEGMENT
_color$ = -224						; size = 208
$T2 = -16						; size = 4
__$EHRec$ = -12						; size = 12
?OnBtnUpColor@CSetting_Common_Type_A@@IAEXXZ PROC	; CSetting_Common_Type_A::OnBtnUpColor, COMDAT
; _this$ = ecx

; 1623 : {

  00000	55		 push	 ebp
  00001	8b ec		 mov	 ebp, esp
  00003	6a ff		 push	 -1
  00005	68 00 00 00 00	 push	 __ehhandler$?OnBtnUpColor@CSetting_Common_Type_A@@IAEXXZ
  0000a	64 a1 00 00 00
	00		 mov	 eax, DWORD PTR fs:0
  00010	50		 push	 eax
  00011	81 ec d4 00 00
	00		 sub	 esp, 212		; 000000d4H
  00017	56		 push	 esi
  00018	57		 push	 edi
  00019	a1 00 00 00 00	 mov	 eax, DWORD PTR ___security_cookie
  0001e	33 c5		 xor	 eax, ebp
  00020	50		 push	 eax
  00021	8d 45 f4	 lea	 eax, DWORD PTR __$EHRec$[ebp]
  00024	64 a3 00 00 00
	00		 mov	 DWORD PTR fs:0, eax
  0002a	8b f1		 mov	 esi, ecx

; 1624 : 	// TODO: Add your control notification handler code here
; 1625 : 	if(m_nSubGraphIndex < 0) return;

  0002c	83 be cc 14 00
	00 00		 cmp	 DWORD PTR [esi+5324], 0
  00033	0f 8c a8 00 00
	00		 jl	 $LN12@OnBtnUpCol

; 1626 : 	
; 1627 : 	COLORREF crColor = m_btnUpColor.GetColor();

  00039	8d 8e 08 03 00
	00		 lea	 ecx, DWORD PTR [esi+776]
  0003f	e8 00 00 00 00	 call	 ?GetColor@CColorButton@@QAEKXZ ; CColorButton::GetColor

; 1628 : 	CColorDialog color(crColor, CC_FULLOPEN);

  00044	6a 00		 push	 0
  00046	6a 02		 push	 2
  00048	50		 push	 eax
  00049	8d 8d 20 ff ff
	ff		 lea	 ecx, DWORD PTR _color$[ebp]
  0004f	e8 00 00 00 00	 call	 ??0CColorDialog@@QAE@KKPAVCWnd@@@Z ; CColorDialog::CColorDialog

; 1629 : 	if(color.DoModal() == IDOK) 

  00054	8d 8d 20 ff ff
	ff		 lea	 ecx, DWORD PTR _color$[ebp]
  0005a	c7 45 fc 00 00
	00 00		 mov	 DWORD PTR __$EHRec$[ebp+8], 0
  00061	e8 00 00 00 00	 call	 ?DoModal@CColorDialog@@UAEHXZ ; CColorDialog::DoModal
  00066	83 f8 01	 cmp	 eax, 1
  00069	75 51		 jne	 SHORT $LN3@OnBtnUpCol

; 1630 : 	{
; 1631 : 		m_pIGraphInfo->SetSubGraphColor( m_nSubGraphIndex, 1, color.GetColor());

  0006b	8b 8e c4 00 00
	00		 mov	 ecx, DWORD PTR [esi+196]
  00071	ff 75 d4	 push	 DWORD PTR _color$[ebp+180]
  00074	6a 01		 push	 1
  00076	8b 01		 mov	 eax, DWORD PTR [ecx]
  00078	ff b6 cc 14 00
	00		 push	 DWORD PTR [esi+5324]
  0007e	ff 50 6c	 call	 DWORD PTR [eax+108]

; 1632 : 		m_pIGraphInfo->SetSubGraphColor( m_nSubGraphIndex, 2, color.GetColor());

  00081	8b 8e c4 00 00
	00		 mov	 ecx, DWORD PTR [esi+196]
  00087	ff 75 d4	 push	 DWORD PTR _color$[ebp+180]
  0008a	6a 02		 push	 2
  0008c	8b 01		 mov	 eax, DWORD PTR [ecx]
  0008e	ff b6 cc 14 00
	00		 push	 DWORD PTR [esi+5324]
  00094	ff 50 6c	 call	 DWORD PTR [eax+108]

; 1633 : 		m_btnUpColor.SetColor( m_pIGraphInfo->GetSubGraphColor( m_nSubGraphIndex, 1));

  00097	8b 8e c4 00 00
	00		 mov	 ecx, DWORD PTR [esi+196]
  0009d	6a 01		 push	 1
  0009f	ff b6 cc 14 00
	00		 push	 DWORD PTR [esi+5324]
  000a5	8b 01		 mov	 eax, DWORD PTR [ecx]
  000a7	ff 50 64	 call	 DWORD PTR [eax+100]
  000aa	89 45 f0	 mov	 DWORD PTR $T2[ebp], eax
  000ad	8d 8e 08 03 00
	00		 lea	 ecx, DWORD PTR [esi+776]
  000b3	8d 45 f0	 lea	 eax, DWORD PTR $T2[ebp]
  000b6	50		 push	 eax
  000b7	e8 00 00 00 00	 call	 ?SetColor@CColorButton@@QAEXABK@Z ; CColorButton::SetColor
$LN3@OnBtnUpCol:
; File C:\Program Files (x86)\Microsoft Visual Studio\2019\Community\VC\Tools\MSVC\14.29.30133\atlmfc\include\afxwin2.inl

; 114  : 	{ ASSERT(::IsWindow(m_hWnd)); ::InvalidateRect(m_hWnd, NULL, bErase); }

  000bc	6a 01		 push	 1
  000be	6a 00		 push	 0
  000c0	ff b6 28 03 00
	00		 push	 DWORD PTR [esi+808]
  000c6	ff 15 00 00 00
	00		 call	 DWORD PTR __imp__InvalidateRect@12
; File C:\Program Files (x86)\Microsoft Visual Studio\2019\Community\VC\Tools\MSVC\14.29.30133\atlmfc\include\afxdlgs.h

; 110  :     virtual ~CCommonDialog() {};

  000cc	8d 8d 20 ff ff
	ff		 lea	 ecx, DWORD PTR _color$[ebp]
  000d2	c7 85 20 ff ff
	ff 00 00 00 00	 mov	 DWORD PTR _color$[ebp], OFFSET ??_7CCommonDialog@@6B@
  000dc	e8 00 00 00 00	 call	 ??1CDialog@@UAE@XZ	; CDialog::~CDialog
$LN12@OnBtnUpCol:
; File D:\git\src\IBK\IBK_DRFN\ProjSrc\SrcChartEx\ChartAddIn\ChartEnvSetupDlgAddIn\ChartEnvSetupDlgAddIn\Setting_Common_Type_A.cpp

; 1637 : }

  000e1	8b 4d f4	 mov	 ecx, DWORD PTR __$EHRec$[ebp]
  000e4	64 89 0d 00 00
	00 00		 mov	 DWORD PTR fs:0, ecx
  000eb	59		 pop	 ecx
  000ec	5f		 pop	 edi
  000ed	5e		 pop	 esi
  000ee	8b e5		 mov	 esp, ebp
  000f0	5d		 pop	 ebp
  000f1	c3		 ret	 0
_TEXT	ENDS
;	COMDAT text$x
text$x	SEGMENT
__unwindfunclet$?OnBtnUpColor@CSetting_Common_Type_A@@IAEXXZ$0:
  00000	8d 8d 20 ff ff
	ff		 lea	 ecx, DWORD PTR _color$[ebp]
  00006	e9 00 00 00 00	 jmp	 ??1CColorDialog@@UAE@XZ
  0000b	cc		 int	 3
  0000c	cc		 int	 3
  0000d	cc		 int	 3
  0000e	cc		 int	 3
  0000f	cc		 int	 3
__ehhandler$?OnBtnUpColor@CSetting_Common_Type_A@@IAEXXZ:
  00010	90		 npad	 1
  00011	90		 npad	 1
  00012	8b 54 24 08	 mov	 edx, DWORD PTR [esp+8]
  00016	8d 42 0c	 lea	 eax, DWORD PTR [edx+12]
  00019	8b 8a 20 ff ff
	ff		 mov	 ecx, DWORD PTR [edx-224]
  0001f	33 c8		 xor	 ecx, eax
  00021	e8 00 00 00 00	 call	 @__security_check_cookie@4
  00026	b8 00 00 00 00	 mov	 eax, OFFSET __ehfuncinfo$?OnBtnUpColor@CSetting_Common_Type_A@@IAEXXZ
  0002b	e9 00 00 00 00	 jmp	 ___CxxFrameHandler3
text$x	ENDS
?OnBtnUpColor@CSetting_Common_Type_A@@IAEXXZ ENDP	; CSetting_Common_Type_A::OnBtnUpColor
; Function compile flags: /Ogtp
; File D:\git\src\IBK\IBK_DRFN\ProjSrc\SrcChartEx\ChartAddIn\ChartEnvSetupDlgAddIn\ChartEnvSetupDlgAddIn\Setting_Common_Type_A.cpp
; File C:\Program Files (x86)\Microsoft Visual Studio\2019\Community\VC\Tools\MSVC\14.29.30133\atlmfc\include\afxwin2.inl
; File C:\Program Files (x86)\Microsoft Visual Studio\2019\Community\VC\Tools\MSVC\14.29.30133\atlmfc\include\afxdlgs.h
; File D:\git\src\IBK\IBK_DRFN\ProjSrc\SrcChartEx\ChartAddIn\ChartEnvSetupDlgAddIn\ChartEnvSetupDlgAddIn\Setting_Common_Type_A.cpp
;	COMDAT ?OnColorButton@CSetting_Common_Type_A@@IAEXXZ
_TEXT	SEGMENT
_color$ = -224						; size = 208
$T2 = -16						; size = 4
__$EHRec$ = -12						; size = 12
?OnColorButton@CSetting_Common_Type_A@@IAEXXZ PROC	; CSetting_Common_Type_A::OnColorButton, COMDAT
; _this$ = ecx

; 1566 : {

  00000	55		 push	 ebp
  00001	8b ec		 mov	 ebp, esp
  00003	6a ff		 push	 -1
  00005	68 00 00 00 00	 push	 __ehhandler$?OnColorButton@CSetting_Common_Type_A@@IAEXXZ
  0000a	64 a1 00 00 00
	00		 mov	 eax, DWORD PTR fs:0
  00010	50		 push	 eax
  00011	81 ec d4 00 00
	00		 sub	 esp, 212		; 000000d4H
  00017	53		 push	 ebx
  00018	56		 push	 esi
  00019	57		 push	 edi
  0001a	a1 00 00 00 00	 mov	 eax, DWORD PTR ___security_cookie
  0001f	33 c5		 xor	 eax, ebp
  00021	50		 push	 eax
  00022	8d 45 f4	 lea	 eax, DWORD PTR __$EHRec$[ebp]
  00025	64 a3 00 00 00
	00		 mov	 DWORD PTR fs:0, eax
  0002b	8b f9		 mov	 edi, ecx

; 1567 : 	// TODO: Add your control notification handler code here
; 1568 : 	COLORREF crColor = m_Color_Bt.GetColor();

  0002d	8d 8f c8 06 00
	00		 lea	 ecx, DWORD PTR [edi+1736]
  00033	e8 00 00 00 00	 call	 ?GetColor@CColorButton@@QAEKXZ ; CColorButton::GetColor

; 1569 : 	CColorDialog color(crColor, CC_FULLOPEN);

  00038	6a 00		 push	 0
  0003a	6a 02		 push	 2
  0003c	50		 push	 eax
  0003d	8d 8d 20 ff ff
	ff		 lea	 ecx, DWORD PTR _color$[ebp]
  00043	e8 00 00 00 00	 call	 ??0CColorDialog@@QAE@KKPAVCWnd@@@Z ; CColorDialog::CColorDialog

; 1570 : 	if(color.DoModal() != IDOK)

  00048	8d 8d 20 ff ff
	ff		 lea	 ecx, DWORD PTR _color$[ebp]
  0004e	c7 45 fc 00 00
	00 00		 mov	 DWORD PTR __$EHRec$[ebp+8], 0
  00055	e8 00 00 00 00	 call	 ?DoModal@CColorDialog@@UAEHXZ ; CColorDialog::DoModal
  0005a	83 f8 01	 cmp	 eax, 1
  0005d	75 63		 jne	 SHORT $LN8@OnColorBut

; 1571 : 		return;
; 1572 : 
; 1573 : 	for(int i = 0; i < m_pIGraphInfo->GetSubGraphCount(); i++)

  0005f	8b 8f c4 00 00
	00		 mov	 ecx, DWORD PTR [edi+196]
  00065	33 f6		 xor	 esi, esi
  00067	8b 01		 mov	 eax, DWORD PTR [ecx]
  00069	ff 50 2c	 call	 DWORD PTR [eax+44]
  0006c	85 c0		 test	 eax, eax
  0006e	7e 21		 jle	 SHORT $LN3@OnColorBut
$LL4@OnColorBut:

; 1574 : 		m_pIGraphInfo->SetSubGraphColor( i, 6, color.GetColor());

  00070	8b 8f c4 00 00
	00		 mov	 ecx, DWORD PTR [edi+196]
  00076	ff 75 d4	 push	 DWORD PTR _color$[ebp+180]
  00079	6a 06		 push	 6
  0007b	8b 01		 mov	 eax, DWORD PTR [ecx]
  0007d	56		 push	 esi
  0007e	ff 50 6c	 call	 DWORD PTR [eax+108]
  00081	8b 8f c4 00 00
	00		 mov	 ecx, DWORD PTR [edi+196]
  00087	46		 inc	 esi
  00088	8b 01		 mov	 eax, DWORD PTR [ecx]
  0008a	ff 50 2c	 call	 DWORD PTR [eax+44]
  0008d	3b f0		 cmp	 esi, eax
  0008f	7c df		 jl	 SHORT $LL4@OnColorBut
$LN3@OnColorBut:

; 1575 : 	
; 1576 : 	m_Color_Bt.SetColor( m_pIGraphInfo->GetSubGraphColor( 0, 6));

  00091	8b 8f c4 00 00
	00		 mov	 ecx, DWORD PTR [edi+196]
  00097	6a 06		 push	 6
  00099	6a 00		 push	 0
  0009b	8b 01		 mov	 eax, DWORD PTR [ecx]
  0009d	ff 50 64	 call	 DWORD PTR [eax+100]
  000a0	89 45 f0	 mov	 DWORD PTR $T2[ebp], eax
  000a3	8d 8f c8 06 00
	00		 lea	 ecx, DWORD PTR [edi+1736]
  000a9	8d 45 f0	 lea	 eax, DWORD PTR $T2[ebp]
  000ac	50		 push	 eax
  000ad	e8 00 00 00 00	 call	 ?SetColor@CColorButton@@QAEXABK@Z ; CColorButton::SetColor
; File C:\Program Files (x86)\Microsoft Visual Studio\2019\Community\VC\Tools\MSVC\14.29.30133\atlmfc\include\afxwin2.inl

; 114  : 	{ ASSERT(::IsWindow(m_hWnd)); ::InvalidateRect(m_hWnd, NULL, bErase); }

  000b2	6a 01		 push	 1
  000b4	6a 00		 push	 0
  000b6	ff b7 e8 06 00
	00		 push	 DWORD PTR [edi+1768]
  000bc	ff 15 00 00 00
	00		 call	 DWORD PTR __imp__InvalidateRect@12
$LN8@OnColorBut:
; File C:\Program Files (x86)\Microsoft Visual Studio\2019\Community\VC\Tools\MSVC\14.29.30133\atlmfc\include\afxdlgs.h

; 110  :     virtual ~CCommonDialog() {};

  000c2	8d 8d 20 ff ff
	ff		 lea	 ecx, DWORD PTR _color$[ebp]
  000c8	c7 85 20 ff ff
	ff 00 00 00 00	 mov	 DWORD PTR _color$[ebp], OFFSET ??_7CCommonDialog@@6B@
  000d2	e8 00 00 00 00	 call	 ??1CDialog@@UAE@XZ	; CDialog::~CDialog
; File D:\git\src\IBK\IBK_DRFN\ProjSrc\SrcChartEx\ChartAddIn\ChartEnvSetupDlgAddIn\ChartEnvSetupDlgAddIn\Setting_Common_Type_A.cpp

; 1578 : }

  000d7	8b 4d f4	 mov	 ecx, DWORD PTR __$EHRec$[ebp]
  000da	64 89 0d 00 00
	00 00		 mov	 DWORD PTR fs:0, ecx
  000e1	59		 pop	 ecx
  000e2	5f		 pop	 edi
  000e3	5e		 pop	 esi
  000e4	5b		 pop	 ebx
  000e5	8b e5		 mov	 esp, ebp
  000e7	5d		 pop	 ebp
  000e8	c3		 ret	 0
_TEXT	ENDS
;	COMDAT text$x
text$x	SEGMENT
__unwindfunclet$?OnColorButton@CSetting_Common_Type_A@@IAEXXZ$0:
  00000	8d 8d 20 ff ff
	ff		 lea	 ecx, DWORD PTR _color$[ebp]
  00006	e9 00 00 00 00	 jmp	 ??1CColorDialog@@UAE@XZ
  0000b	cc		 int	 3
  0000c	cc		 int	 3
  0000d	cc		 int	 3
  0000e	cc		 int	 3
  0000f	cc		 int	 3
__ehhandler$?OnColorButton@CSetting_Common_Type_A@@IAEXXZ:
  00010	90		 npad	 1
  00011	90		 npad	 1
  00012	8b 54 24 08	 mov	 edx, DWORD PTR [esp+8]
  00016	8d 42 0c	 lea	 eax, DWORD PTR [edx+12]
  00019	8b 8a 1c ff ff
	ff		 mov	 ecx, DWORD PTR [edx-228]
  0001f	33 c8		 xor	 ecx, eax
  00021	e8 00 00 00 00	 call	 @__security_check_cookie@4
  00026	b8 00 00 00 00	 mov	 eax, OFFSET __ehfuncinfo$?OnColorButton@CSetting_Common_Type_A@@IAEXXZ
  0002b	e9 00 00 00 00	 jmp	 ___CxxFrameHandler3
text$x	ENDS
?OnColorButton@CSetting_Common_Type_A@@IAEXXZ ENDP	; CSetting_Common_Type_A::OnColorButton
; Function compile flags: /Ogtp
; File D:\git\src\IBK\IBK_DRFN\ProjSrc\SrcChartEx\ChartAddIn\ChartEnvSetupDlgAddIn\ChartEnvSetupDlgAddIn\Setting_Common_Type_A.cpp
; File C:\Program Files (x86)\Microsoft Visual Studio\2019\Community\VC\Tools\MSVC\14.29.30133\atlmfc\include\afxwin2.inl
; File D:\git\src\IBK\IBK_DRFN\ProjSrc\SrcChartEx\ChartAddIn\ChartEnvSetupDlgAddIn\ChartEnvSetupDlgAddIn\Setting_Common_Type_A.cpp
; File C:\Program Files (x86)\Microsoft Visual Studio\2019\Community\VC\Tools\MSVC\14.29.30133\atlmfc\include\afxwin2.inl
; File D:\git\src\IBK\IBK_DRFN\ProjSrc\SrcChartEx\ChartAddIn\ChartEnvSetupDlgAddIn\ChartEnvSetupDlgAddIn\Setting_Common_Type_A.cpp
; File C:\Program Files (x86)\Microsoft Visual Studio\2019\Community\VC\Tools\MSVC\14.29.30133\atlmfc\include\afxwin2.inl
; File D:\git\src\IBK\IBK_DRFN\ProjSrc\SrcChartEx\ChartAddIn\ChartEnvSetupDlgAddIn\ChartEnvSetupDlgAddIn\Setting_Common_Type_A.cpp
; File C:\Program Files (x86)\Microsoft Visual Studio\2019\Community\VC\Tools\MSVC\14.29.30133\atlmfc\include\afxwin2.inl
; File D:\git\src\IBK\IBK_DRFN\ProjSrc\SrcChartEx\ChartAddIn\ChartEnvSetupDlgAddIn\ChartEnvSetupDlgAddIn\Setting_Common_Type_A.cpp
; File C:\Program Files (x86)\Microsoft Visual Studio\2019\Community\VC\Tools\MSVC\14.29.30133\atlmfc\include\afxwin2.inl
; File D:\git\src\IBK\IBK_DRFN\ProjSrc\SrcChartEx\ChartAddIn\ChartEnvSetupDlgAddIn\ChartEnvSetupDlgAddIn\Setting_Common_Type_A.cpp
;	COMDAT ?OnAlldelete@CSetting_Common_Type_A@@IAEXXZ
_TEXT	SEGMENT
?OnAlldelete@CSetting_Common_Type_A@@IAEXXZ PROC	; CSetting_Common_Type_A::OnAlldelete, COMDAT
; _this$ = ecx

; 1551 : {

  00000	53		 push	 ebx
; File C:\Program Files (x86)\Microsoft Visual Studio\2019\Community\VC\Tools\MSVC\14.29.30133\atlmfc\include\afxwin2.inl

; 664  : 	{ ASSERT(::IsWindow(m_hWnd)); return (int)::SendMessage(m_hWnd, LB_GETCOUNT, 0, 0); }

  00001	8b 1d 00 00 00
	00		 mov	 ebx, DWORD PTR __imp__SendMessageA@16
; File D:\git\src\IBK\IBK_DRFN\ProjSrc\SrcChartEx\ChartAddIn\ChartEnvSetupDlgAddIn\ChartEnvSetupDlgAddIn\Setting_Common_Type_A.cpp

; 1551 : {

  00007	56		 push	 esi
  00008	57		 push	 edi

; 1171 : 	for(int i = 0 ; i< m_HorizonLine_ListBox.GetCount() ; i++)

  00009	33 f6		 xor	 esi, esi

; 1551 : {

  0000b	8b f9		 mov	 edi, ecx
; File C:\Program Files (x86)\Microsoft Visual Studio\2019\Community\VC\Tools\MSVC\14.29.30133\atlmfc\include\afxwin2.inl

; 664  : 	{ ASSERT(::IsWindow(m_hWnd)); return (int)::SendMessage(m_hWnd, LB_GETCOUNT, 0, 0); }

  0000d	56		 push	 esi
  0000e	56		 push	 esi
  0000f	68 8b 01 00 00	 push	 395			; 0000018bH
  00014	ff b7 c0 05 00
	00		 push	 DWORD PTR [edi+1472]
  0001a	ff d3		 call	 ebx
; File D:\git\src\IBK\IBK_DRFN\ProjSrc\SrcChartEx\ChartAddIn\ChartEnvSetupDlgAddIn\ChartEnvSetupDlgAddIn\Setting_Common_Type_A.cpp

; 1171 : 	for(int i = 0 ; i< m_HorizonLine_ListBox.GetCount() ; i++)

  0001c	85 c0		 test	 eax, eax
  0001e	7e 26		 jle	 SHORT $LN6@OnAlldelet
$LL7@OnAlldelet:
; File C:\Program Files (x86)\Microsoft Visual Studio\2019\Community\VC\Tools\MSVC\14.29.30133\atlmfc\include\afxwin2.inl

; 727  : 	{ ASSERT(::IsWindow(m_hWnd)); return (int)::SendMessage(m_hWnd, LB_DELETESTRING, nIndex, 0); }

  00020	6a 00		 push	 0
  00022	56		 push	 esi
  00023	68 82 01 00 00	 push	 386			; 00000182H
  00028	ff b7 c0 05 00
	00		 push	 DWORD PTR [edi+1472]
  0002e	ff d3		 call	 ebx

; 664  : 	{ ASSERT(::IsWindow(m_hWnd)); return (int)::SendMessage(m_hWnd, LB_GETCOUNT, 0, 0); }

  00030	6a 00		 push	 0
  00032	6a 00		 push	 0
  00034	68 8b 01 00 00	 push	 395			; 0000018bH
  00039	ff b7 c0 05 00
	00		 push	 DWORD PTR [edi+1472]
; File D:\git\src\IBK\IBK_DRFN\ProjSrc\SrcChartEx\ChartAddIn\ChartEnvSetupDlgAddIn\ChartEnvSetupDlgAddIn\Setting_Common_Type_A.cpp

; 1171 : 	for(int i = 0 ; i< m_HorizonLine_ListBox.GetCount() ; i++)

  0003f	46		 inc	 esi
; File C:\Program Files (x86)\Microsoft Visual Studio\2019\Community\VC\Tools\MSVC\14.29.30133\atlmfc\include\afxwin2.inl

; 664  : 	{ ASSERT(::IsWindow(m_hWnd)); return (int)::SendMessage(m_hWnd, LB_GETCOUNT, 0, 0); }

  00040	ff d3		 call	 ebx
; File D:\git\src\IBK\IBK_DRFN\ProjSrc\SrcChartEx\ChartAddIn\ChartEnvSetupDlgAddIn\ChartEnvSetupDlgAddIn\Setting_Common_Type_A.cpp

; 1171 : 	for(int i = 0 ; i< m_HorizonLine_ListBox.GetCount() ; i++)

  00042	3b f0		 cmp	 esi, eax
  00044	7c da		 jl	 SHORT $LL7@OnAlldelet
$LN6@OnAlldelet:
; File C:\Program Files (x86)\Microsoft Visual Studio\2019\Community\VC\Tools\MSVC\14.29.30133\atlmfc\include\afxwin2.inl

; 731  : 	{ ASSERT(::IsWindow(m_hWnd)); ::SendMessage(m_hWnd, LB_RESETCONTENT, 0, 0); }

  00046	6a 00		 push	 0
  00048	6a 00		 push	 0
  0004a	68 84 01 00 00	 push	 388			; 00000184H
  0004f	ff b7 c0 05 00
	00		 push	 DWORD PTR [edi+1472]
  00055	ff d3		 call	 ebx
; File D:\git\src\IBK\IBK_DRFN\ProjSrc\SrcChartEx\ChartAddIn\ChartEnvSetupDlgAddIn\ChartEnvSetupDlgAddIn\Setting_Common_Type_A.cpp

; 1554 : 	IDoubleList *pIDblBase = m_pIGraphInfo->GetBaseLineList();

  00057	8b 8f c4 00 00
	00		 mov	 ecx, DWORD PTR [edi+196]
  0005d	8b 01		 mov	 eax, DWORD PTR [ecx]
  0005f	ff 50 28	 call	 DWORD PTR [eax+40]
  00062	8b f0		 mov	 esi, eax

; 1555 : 	if( pIDblBase)

  00064	85 f6		 test	 esi, esi
  00066	74 0d		 je	 SHORT $LN2@OnAlldelet

; 1556 : 	{
; 1557 : 		pIDblBase->RemoveAll();

  00068	8b 16		 mov	 edx, DWORD PTR [esi]
  0006a	8b ce		 mov	 ecx, esi
  0006c	ff 52 30	 call	 DWORD PTR [edx+48]

; 1558 : 		pIDblBase->Release();

  0006f	8b 0e		 mov	 ecx, DWORD PTR [esi]
  00071	56		 push	 esi
  00072	ff 51 08	 call	 DWORD PTR [ecx+8]
$LN2@OnAlldelet:

; 1559 : 	}
; 1560 : 
; 1561 : 	m_Horizon_Edit.SetValue( 0);	

  00075	8b 87 20 06 00
	00		 mov	 eax, DWORD PTR [edi+1568]
  0007b	8d 8f 20 06 00
	00		 lea	 ecx, DWORD PTR [edi+1568]
  00081	83 ec 08	 sub	 esp, 8
  00084	0f 57 c0	 xorps	 xmm0, xmm0
  00087	f2 0f 11 04 24	 movsd	 QWORD PTR [esp], xmm0
  0008c	ff 90 90 01 00
	00		 call	 DWORD PTR [eax+400]
  00092	5f		 pop	 edi
  00093	5e		 pop	 esi
  00094	5b		 pop	 ebx

; 1562 : }

  00095	c3		 ret	 0
?OnAlldelete@CSetting_Common_Type_A@@IAEXXZ ENDP	; CSetting_Common_Type_A::OnAlldelete
_TEXT	ENDS
; Function compile flags: /Ogtp
; File D:\git\src\IBK\IBK_DRFN\ProjSrc\SrcChartEx\ChartAddIn\ChartEnvSetupDlgAddIn\ChartEnvSetupDlgAddIn\Setting_Common_Type_A.cpp
; File C:\Program Files (x86)\Microsoft Visual Studio\2019\Community\VC\Tools\MSVC\14.29.30133\atlmfc\include\afxwin2.inl
; File D:\git\src\IBK\IBK_DRFN\ProjSrc\SrcChartEx\ChartAddIn\ChartEnvSetupDlgAddIn\ChartEnvSetupDlgAddIn\Setting_Common_Type_A.cpp
; File C:\Program Files (x86)\Microsoft Visual Studio\2019\Community\VC\Tools\MSVC\14.29.30133\atlmfc\include\afxwin2.inl
; File D:\git\src\IBK\IBK_DRFN\ProjSrc\SrcChartEx\ChartAddIn\ChartEnvSetupDlgAddIn\ChartEnvSetupDlgAddIn\Setting_Common_Type_A.cpp
;	COMDAT ?OnDelete@CSetting_Common_Type_A@@IAEXXZ
_TEXT	SEGMENT
?OnDelete@CSetting_Common_Type_A@@IAEXXZ PROC		; CSetting_Common_Type_A::OnDelete, COMDAT
; _this$ = ecx

; 1544 : {

  00000	57		 push	 edi
; File C:\Program Files (x86)\Microsoft Visual Studio\2019\Community\VC\Tools\MSVC\14.29.30133\atlmfc\include\afxwin2.inl

; 666  : 	{ ASSERT(::IsWindow(m_hWnd)); return (int)::SendMessage(m_hWnd, LB_GETCURSEL, 0, 0); }

  00001	6a 00		 push	 0
; File D:\git\src\IBK\IBK_DRFN\ProjSrc\SrcChartEx\ChartAddIn\ChartEnvSetupDlgAddIn\ChartEnvSetupDlgAddIn\Setting_Common_Type_A.cpp

; 1544 : {

  00003	8b f9		 mov	 edi, ecx
; File C:\Program Files (x86)\Microsoft Visual Studio\2019\Community\VC\Tools\MSVC\14.29.30133\atlmfc\include\afxwin2.inl

; 666  : 	{ ASSERT(::IsWindow(m_hWnd)); return (int)::SendMessage(m_hWnd, LB_GETCURSEL, 0, 0); }

  00005	6a 00		 push	 0
  00007	68 88 01 00 00	 push	 392			; 00000188H
  0000c	ff b7 c0 05 00
	00		 push	 DWORD PTR [edi+1472]
  00012	ff 15 00 00 00
	00		 call	 DWORD PTR __imp__SendMessageA@16

; 727  : 	{ ASSERT(::IsWindow(m_hWnd)); return (int)::SendMessage(m_hWnd, LB_DELETESTRING, nIndex, 0); }

  00018	6a 00		 push	 0
  0001a	50		 push	 eax
  0001b	68 82 01 00 00	 push	 386			; 00000182H
  00020	ff b7 c0 05 00
	00		 push	 DWORD PTR [edi+1472]
  00026	ff 15 00 00 00
	00		 call	 DWORD PTR __imp__SendMessageA@16
  0002c	5f		 pop	 edi
; File D:\git\src\IBK\IBK_DRFN\ProjSrc\SrcChartEx\ChartAddIn\ChartEnvSetupDlgAddIn\ChartEnvSetupDlgAddIn\Setting_Common_Type_A.cpp

; 1547 : }

  0002d	c3		 ret	 0
?OnDelete@CSetting_Common_Type_A@@IAEXXZ ENDP		; CSetting_Common_Type_A::OnDelete
_TEXT	ENDS
; Function compile flags: /Ogtp
; File D:\git\src\IBK\IBK_DRFN\ProjSrc\SrcChartEx\ChartAddIn\ChartEnvSetupDlgAddIn\ChartEnvSetupDlgAddIn\Setting_Common_Type_A.cpp
; File C:\Program Files (x86)\Microsoft Visual Studio\2019\Community\VC\Tools\MSVC\14.29.30133\atlmfc\include\cstringt.h
; File D:\git\src\IBK\IBK_DRFN\ProjSrc\SrcChartEx\ChartAddIn\ChartEnvSetupDlgAddIn\ChartEnvSetupDlgAddIn\Setting_Common_Type_A.cpp
; File C:\Program Files (x86)\Microsoft Visual Studio\2019\Community\VC\Tools\MSVC\14.29.30133\atlmfc\include\afxwin2.inl
; File D:\git\src\IBK\IBK_DRFN\ProjSrc\SrcChartEx\ChartAddIn\ChartEnvSetupDlgAddIn\ChartEnvSetupDlgAddIn\Setting_Common_Type_A.cpp
; File D:\git\src\IBK\IBK_DRFN\ProjSrc\SrcChartEx\ChartAddIn\ChartEnvSetupDlgAddIn\Include_Chart\Conversion.h
; File D:\git\src\IBK\IBK_DRFN\ProjSrc\SrcChartEx\ChartAddIn\ChartEnvSetupDlgAddIn\ChartEnvSetupDlgAddIn\Setting_Common_Type_A.cpp
; File D:\git\src\IBK\IBK_DRFN\ProjSrc\SrcChartEx\ChartAddIn\ChartEnvSetupDlgAddIn\Include_Chart\Conversion.h
; File D:\git\src\IBK\IBK_DRFN\ProjSrc\SrcChartEx\ChartAddIn\ChartEnvSetupDlgAddIn\ChartEnvSetupDlgAddIn\Setting_Common_Type_A.cpp
; File D:\git\src\IBK\IBK_DRFN\ProjSrc\SrcChartEx\ChartAddIn\ChartEnvSetupDlgAddIn\Include_Chart\Conversion.h
; File D:\git\src\IBK\IBK_DRFN\ProjSrc\SrcChartEx\ChartAddIn\ChartEnvSetupDlgAddIn\ChartEnvSetupDlgAddIn\Setting_Common_Type_A.cpp
; File C:\Program Files (x86)\Microsoft Visual Studio\2019\Community\VC\Tools\MSVC\14.29.30133\atlmfc\include\cstringt.h
; File D:\git\src\IBK\IBK_DRFN\ProjSrc\SrcChartEx\ChartAddIn\ChartEnvSetupDlgAddIn\ChartEnvSetupDlgAddIn\Setting_Common_Type_A.cpp
; File C:\Program Files (x86)\Microsoft Visual Studio\2019\Community\VC\Tools\MSVC\14.29.30133\atlmfc\include\afxwin2.inl
; File D:\git\src\IBK\IBK_DRFN\ProjSrc\SrcChartEx\ChartAddIn\ChartEnvSetupDlgAddIn\ChartEnvSetupDlgAddIn\Setting_Common_Type_A.cpp
;	COMDAT ?OnInsert@CSetting_Common_Type_A@@IAEXXZ
_TEXT	SEGMENT
$T2 = -40						; size = 8
$T3 = -32						; size = 4
_szText$ = -28						; size = 4
$T4 = -24						; size = 4
_strOutput$5 = -24					; size = 4
_strType$ = -20						; size = 4
_temp$ = -16						; size = 4
__$EHRec$ = -12						; size = 12
?OnInsert@CSetting_Common_Type_A@@IAEXXZ PROC		; CSetting_Common_Type_A::OnInsert, COMDAT
; _this$ = ecx

; 1471 : {

  00000	55		 push	 ebp
  00001	8b ec		 mov	 ebp, esp
  00003	6a ff		 push	 -1
  00005	68 00 00 00 00	 push	 __ehhandler$?OnInsert@CSetting_Common_Type_A@@IAEXXZ
  0000a	64 a1 00 00 00
	00		 mov	 eax, DWORD PTR fs:0
  00010	50		 push	 eax
  00011	83 ec 1c	 sub	 esp, 28			; 0000001cH
  00014	53		 push	 ebx
  00015	56		 push	 esi
  00016	57		 push	 edi
  00017	a1 00 00 00 00	 mov	 eax, DWORD PTR ___security_cookie
  0001c	33 c5		 xor	 eax, ebp
  0001e	50		 push	 eax
  0001f	8d 45 f4	 lea	 eax, DWORD PTR __$EHRec$[ebp]
  00022	64 a3 00 00 00
	00		 mov	 DWORD PTR fs:0, eax
  00028	8b f9		 mov	 edi, ecx

; 1472 : 	// TODO: Add your control notification handler code here
; 1473 : 	// 20081014  >>
; 1474 : 	CString temp;

  0002a	8d 4d f0	 lea	 ecx, DWORD PTR _temp$[ebp]
  0002d	ff 15 00 00 00
	00		 call	 DWORD PTR __imp_??0?$CStringT@DV?$StrTraitMFC_DLL@DV?$ChTraitsCRT@D@ATL@@@@@ATL@@QAE@XZ

; 1475 : 	UpdateData(TRUE);

  00033	6a 01		 push	 1
  00035	8b cf		 mov	 ecx, edi
  00037	c7 45 fc 00 00
	00 00		 mov	 DWORD PTR __$EHRec$[ebp+8], 0
  0003e	e8 00 00 00 00	 call	 ?UpdateData@CWnd@@QAEHH@Z ; CWnd::UpdateData

; 1476 : 
; 1477 : 	CString strType = GetPacketType();

  00043	8d 45 ec	 lea	 eax, DWORD PTR _strType$[ebp]
  00046	8b cf		 mov	 ecx, edi
  00048	50		 push	 eax
  00049	e8 00 00 00 00	 call	 ?GetPacketType@CBaseDialog@@QAE?AV?$CStringT@DV?$StrTraitMFC_DLL@DV?$ChTraitsCRT@D@ATL@@@@@ATL@@XZ ; CBaseDialog::GetPacketType

; 1478 : 
; 1479 : 	//  ,   - ojtaso (20071213)
; 1480 : 	//temp.Format("%f",m_dHorizonValue);
; 1481 : 
; 1482 : 	temp = m_strHorizonValue;

  0004e	8d 87 c8 14 00
	00		 lea	 eax, DWORD PTR [edi+5320]
  00054	c6 45 fc 01	 mov	 BYTE PTR __$EHRec$[ebp+8], 1
  00058	50		 push	 eax
  00059	8d 4d f0	 lea	 ecx, DWORD PTR _temp$[ebp]
  0005c	ff 15 00 00 00
	00		 call	 DWORD PTR __imp_??4?$CStringT@DV?$StrTraitMFC_DLL@DV?$ChTraitsCRT@D@ATL@@@@@ATL@@QAEAAV01@ABV01@@Z

; 1483 : 	
; 1484 : 	//     .
; 1485 : 	temp.TrimLeft(); temp.TrimRight();

  00062	8d 4d f0	 lea	 ecx, DWORD PTR _temp$[ebp]
  00065	ff 15 00 00 00
	00		 call	 DWORD PTR __imp_?TrimLeft@?$CStringT@DV?$StrTraitMFC_DLL@DV?$ChTraitsCRT@D@ATL@@@@@ATL@@QAEAAV12@XZ
  0006b	8d 4d f0	 lea	 ecx, DWORD PTR _temp$[ebp]
  0006e	ff 15 00 00 00
	00		 call	 DWORD PTR __imp_?TrimRight@?$CStringT@DV?$StrTraitMFC_DLL@DV?$ChTraitsCRT@D@ATL@@@@@ATL@@QAEAAV12@XZ
; File C:\Program Files (x86)\Microsoft Visual Studio\2019\Community\VC\Tools\MSVC\14.29.30133\atlmfc\include\cstringt.h

; 2486 : 		return(str1.Compare(psz2) == 0);

  00074	68 00 00 00 00	 push	 OFFSET ??_C@_00CNPNBAHC@@
  00079	8d 4d f0	 lea	 ecx, DWORD PTR _temp$[ebp]
  0007c	ff 15 00 00 00
	00		 call	 DWORD PTR __imp_?Compare@?$CStringT@DV?$StrTraitMFC_DLL@DV?$ChTraitsCRT@D@ATL@@@@@ATL@@QBEHPBD@Z
  00082	85 c0		 test	 eax, eax
; File D:\git\src\IBK\IBK_DRFN\ProjSrc\SrcChartEx\ChartAddIn\ChartEnvSetupDlgAddIn\ChartEnvSetupDlgAddIn\Setting_Common_Type_A.cpp

; 1486 : 	if(temp == "")

  00084	0f 84 c9 01 00
	00		 je	 $LN21@OnInsert
; File C:\Program Files (x86)\Microsoft Visual Studio\2019\Community\VC\Tools\MSVC\14.29.30133\atlmfc\include\afxwin2.inl

; 664  : 	{ ASSERT(::IsWindow(m_hWnd)); return (int)::SendMessage(m_hWnd, LB_GETCOUNT, 0, 0); }

  0008a	6a 00		 push	 0
  0008c	6a 00		 push	 0
  0008e	68 8b 01 00 00	 push	 395			; 0000018bH
  00093	ff b7 c0 05 00
	00		 push	 DWORD PTR [edi+1472]
  00099	ff 15 00 00 00
	00		 call	 DWORD PTR __imp__SendMessageA@16
; File D:\git\src\IBK\IBK_DRFN\ProjSrc\SrcChartEx\ChartAddIn\ChartEnvSetupDlgAddIn\ChartEnvSetupDlgAddIn\Setting_Common_Type_A.cpp

; 1490 : 	int nCount = m_HorizonLine_ListBox.GetCount();

  0009f	8b d8		 mov	 ebx, eax

; 1491 : 
; 1492 : 	// 20081017  >>
; 1493 : 	if(CDataConversion::IsBaseFormat(strType)) 

  000a1	8d 45 ec	 lea	 eax, DWORD PTR _strType$[ebp]
  000a4	50		 push	 eax
  000a5	e8 00 00 00 00	 call	 ?IsBaseFormat@CDataConversion@@SA_NABV?$CStringT@DV?$StrTraitMFC_DLL@DV?$ChTraitsCRT@D@ATL@@@@@ATL@@@Z ; CDataConversion::IsBaseFormat
  000aa	83 c4 04	 add	 esp, 4
  000ad	84 c0		 test	 al, al
  000af	74 69		 je	 SHORT $LN6@OnInsert

; 1494 : 	{								
; 1495 : 		CString strOutput;

  000b1	8d 4d e8	 lea	 ecx, DWORD PTR _strOutput$5[ebp]
  000b4	ff 15 00 00 00
	00		 call	 DWORD PTR __imp_??0?$CStringT@DV?$StrTraitMFC_DLL@DV?$ChTraitsCRT@D@ATL@@@@@ATL@@QAE@XZ

; 1496 : 		if(!CDataConversion::GetDataToDec(temp, strType, strOutput)) 

  000ba	8d 45 e8	 lea	 eax, DWORD PTR _strOutput$5[ebp]
  000bd	c6 45 fc 02	 mov	 BYTE PTR __$EHRec$[ebp+8], 2
  000c1	50		 push	 eax
  000c2	51		 push	 ecx
  000c3	8d 45 ec	 lea	 eax, DWORD PTR _strType$[ebp]
  000c6	89 65 e0	 mov	 DWORD PTR $T3[ebp], esp
  000c9	8b cc		 mov	 ecx, esp
  000cb	50		 push	 eax
  000cc	ff 15 00 00 00
	00		 call	 DWORD PTR __imp_??0?$CStringT@DV?$StrTraitMFC_DLL@DV?$ChTraitsCRT@D@ATL@@@@@ATL@@QAE@ABV01@@Z
  000d2	51		 push	 ecx
  000d3	8d 45 f0	 lea	 eax, DWORD PTR _temp$[ebp]
  000d6	c6 45 fc 03	 mov	 BYTE PTR __$EHRec$[ebp+8], 3
  000da	8b cc		 mov	 ecx, esp
  000dc	50		 push	 eax
  000dd	ff 15 00 00 00
	00		 call	 DWORD PTR __imp_??0?$CStringT@DV?$StrTraitMFC_DLL@DV?$ChTraitsCRT@D@ATL@@@@@ATL@@QAE@ABV01@@Z
  000e3	c6 45 fc 02	 mov	 BYTE PTR __$EHRec$[ebp+8], 2
  000e7	e8 00 00 00 00	 call	 ?GetDataToDec@CDataConversion@@SAHV?$CStringT@DV?$StrTraitMFC_DLL@DV?$ChTraitsCRT@D@ATL@@@@@ATL@@0AAV23@@Z ; CDataConversion::GetDataToDec
  000ec	83 c4 0c	 add	 esp, 12			; 0000000cH
  000ef	8d 4d f0	 lea	 ecx, DWORD PTR _temp$[ebp]
  000f2	85 c0		 test	 eax, eax
  000f4	75 0d		 jne	 SHORT $LN7@OnInsert

; 1497 : 			temp = "0";

  000f6	68 00 00 00 00	 push	 OFFSET ??_C@_01GBGANLPD@0@
  000fb	ff 15 00 00 00
	00		 call	 DWORD PTR __imp_??4?$CStringT@DV?$StrTraitMFC_DLL@DV?$ChTraitsCRT@D@ATL@@@@@ATL@@QAEAAV01@PBD@Z
  00101	eb 0a		 jmp	 SHORT $LN8@OnInsert
$LN7@OnInsert:

; 1498 : 		else
; 1499 : 			temp = strOutput;

  00103	8d 45 e8	 lea	 eax, DWORD PTR _strOutput$5[ebp]
  00106	50		 push	 eax
  00107	ff 15 00 00 00
	00		 call	 DWORD PTR __imp_??4?$CStringT@DV?$StrTraitMFC_DLL@DV?$ChTraitsCRT@D@ATL@@@@@ATL@@QAEAAV01@ABV01@@Z
$LN8@OnInsert:

; 1500 : 	}

  0010d	8d 4d e8	 lea	 ecx, DWORD PTR _strOutput$5[ebp]
  00110	c6 45 fc 01	 mov	 BYTE PTR __$EHRec$[ebp+8], 1
  00114	ff 15 00 00 00
	00		 call	 DWORD PTR __imp_??1?$CStringT@DV?$StrTraitMFC_DLL@DV?$ChTraitsCRT@D@ATL@@@@@ATL@@QAE@XZ
$LN6@OnInsert:
; File D:\git\src\IBK\IBK_DRFN\ProjSrc\SrcChartEx\ChartAddIn\ChartEnvSetupDlgAddIn\Include_Chart\Conversion.h

; 27   : 		{	m_hOcxWnd = p_hOcxWnd;	m_eChartMode = p_eChartMode;	}

  0011a	8b 87 d8 00 00
	00		 mov	 eax, DWORD PTR [edi+216]
; File D:\git\src\IBK\IBK_DRFN\ProjSrc\SrcChartEx\ChartAddIn\ChartEnvSetupDlgAddIn\ChartEnvSetupDlgAddIn\Setting_Common_Type_A.cpp

; 1501 : 	temp = CDataConversion( m_hOcxWnd, m_eChartMode).GetStringFormatTrans(temp, strType);

  00120	8b 8f f0 00 00
	00		 mov	 ecx, DWORD PTR [edi+240]
; File D:\git\src\IBK\IBK_DRFN\ProjSrc\SrcChartEx\ChartAddIn\ChartEnvSetupDlgAddIn\Include_Chart\Conversion.h

; 27   : 		{	m_hOcxWnd = p_hOcxWnd;	m_eChartMode = p_eChartMode;	}

  00126	89 45 d8	 mov	 DWORD PTR $T2[ebp], eax
; File D:\git\src\IBK\IBK_DRFN\ProjSrc\SrcChartEx\ChartAddIn\ChartEnvSetupDlgAddIn\ChartEnvSetupDlgAddIn\Setting_Common_Type_A.cpp

; 1501 : 	temp = CDataConversion( m_hOcxWnd, m_eChartMode).GetStringFormatTrans(temp, strType);

  00129	8d 45 ec	 lea	 eax, DWORD PTR _strType$[ebp]
  0012c	50		 push	 eax
  0012d	8d 45 f0	 lea	 eax, DWORD PTR _temp$[ebp]
; File D:\git\src\IBK\IBK_DRFN\ProjSrc\SrcChartEx\ChartAddIn\ChartEnvSetupDlgAddIn\Include_Chart\Conversion.h

; 27   : 		{	m_hOcxWnd = p_hOcxWnd;	m_eChartMode = p_eChartMode;	}

  00130	89 4d dc	 mov	 DWORD PTR $T2[ebp+4], ecx
; File D:\git\src\IBK\IBK_DRFN\ProjSrc\SrcChartEx\ChartAddIn\ChartEnvSetupDlgAddIn\ChartEnvSetupDlgAddIn\Setting_Common_Type_A.cpp

; 1501 : 	temp = CDataConversion( m_hOcxWnd, m_eChartMode).GetStringFormatTrans(temp, strType);

  00133	50		 push	 eax
  00134	8d 45 e8	 lea	 eax, DWORD PTR $T4[ebp]
  00137	50		 push	 eax
  00138	8d 4d d8	 lea	 ecx, DWORD PTR $T2[ebp]
  0013b	e8 00 00 00 00	 call	 ?GetStringFormatTrans@CDataConversion@@QAE?AV?$CStringT@DV?$StrTraitMFC_DLL@DV?$ChTraitsCRT@D@ATL@@@@@ATL@@ABV23@0@Z ; CDataConversion::GetStringFormatTrans
  00140	50		 push	 eax
  00141	8d 4d f0	 lea	 ecx, DWORD PTR _temp$[ebp]
  00144	c6 45 fc 04	 mov	 BYTE PTR __$EHRec$[ebp+8], 4
  00148	ff 15 00 00 00
	00		 call	 DWORD PTR __imp_??4?$CStringT@DV?$StrTraitMFC_DLL@DV?$ChTraitsCRT@D@ATL@@@@@ATL@@QAEAAV01@ABV01@@Z
  0014e	8d 4d e8	 lea	 ecx, DWORD PTR $T4[ebp]
  00151	c6 45 fc 01	 mov	 BYTE PTR __$EHRec$[ebp+8], 1
  00155	ff 15 00 00 00
	00		 call	 DWORD PTR __imp_??1?$CStringT@DV?$StrTraitMFC_DLL@DV?$ChTraitsCRT@D@ATL@@@@@ATL@@QAE@XZ

; 1502 : 	// 20081017  <<
; 1503 : 	
; 1504 : 	// 20081030  >>
; 1505 : 	temp.Remove('%');

  0015b	6a 25		 push	 37			; 00000025H
  0015d	8d 4d f0	 lea	 ecx, DWORD PTR _temp$[ebp]
  00160	ff 15 00 00 00
	00		 call	 DWORD PTR __imp_?Remove@?$CStringT@DV?$StrTraitMFC_DLL@DV?$ChTraitsCRT@D@ATL@@@@@ATL@@QAEHD@Z

; 1506 : 	// 20081030  <<
; 1507 : 
; 1508 : 	CString szText = "";

  00166	68 00 00 00 00	 push	 OFFSET ??_C@_00CNPNBAHC@@
  0016b	8d 4d e4	 lea	 ecx, DWORD PTR _szText$[ebp]
  0016e	ff 15 00 00 00
	00		 call	 DWORD PTR __imp_??0?$CStringT@DV?$StrTraitMFC_DLL@DV?$ChTraitsCRT@D@ATL@@@@@ATL@@QAE@PBD@Z

; 1509 : 	for( int i = 0 ; i < nCount ; i++ )

  00174	33 f6		 xor	 esi, esi
  00176	c6 45 fc 05	 mov	 BYTE PTR __$EHRec$[ebp+8], 5
  0017a	85 db		 test	 ebx, ebx
  0017c	7e 31		 jle	 SHORT $LN3@OnInsert
  0017e	8d 87 a0 05 00
	00		 lea	 eax, DWORD PTR [edi+1440]
$LL4@OnInsert:

; 1510 : 	{
; 1511 : 		m_HorizonLine_ListBox.GetText( i, szText );

  00184	8d 4d e4	 lea	 ecx, DWORD PTR _szText$[ebp]
  00187	51		 push	 ecx
  00188	56		 push	 esi
  00189	8b c8		 mov	 ecx, eax
  0018b	e8 00 00 00 00	 call	 ?GetText@CListBox@@QBEXHAAV?$CStringT@DV?$StrTraitMFC_DLL@DV?$ChTraitsCRT@D@ATL@@@@@ATL@@@Z ; CListBox::GetText
; File C:\Program Files (x86)\Microsoft Visual Studio\2019\Community\VC\Tools\MSVC\14.29.30133\atlmfc\include\cstringt.h

; 2479 : 		return(str1.Compare(str2) == 0);

  00190	ff 75 f0	 push	 DWORD PTR _temp$[ebp]
  00193	8d 4d e4	 lea	 ecx, DWORD PTR _szText$[ebp]
  00196	ff 15 00 00 00
	00		 call	 DWORD PTR __imp_?Compare@?$CStringT@DV?$StrTraitMFC_DLL@DV?$ChTraitsCRT@D@ATL@@@@@ATL@@QBEHPBD@Z
  0019c	85 c0		 test	 eax, eax
; File D:\git\src\IBK\IBK_DRFN\ProjSrc\SrcChartEx\ChartAddIn\ChartEnvSetupDlgAddIn\ChartEnvSetupDlgAddIn\Setting_Common_Type_A.cpp

; 1512 : 		if( szText == temp )

  0019e	0f 84 a6 00 00
	00		 je	 $LN23@OnInsert

; 1509 : 	for( int i = 0 ; i < nCount ; i++ )

  001a4	46		 inc	 esi
  001a5	8d 87 a0 05 00
	00		 lea	 eax, DWORD PTR [edi+1440]
  001ab	3b f3		 cmp	 esi, ebx
  001ad	7c d5		 jl	 SHORT $LL4@OnInsert
$LN3@OnInsert:

; 1513 : 			return;
; 1514 : 	}
; 1515 : 
; 1516 : 	// 20081014  >>
; 1517 : 	//m_HorizonLine_ListBox.AddString(TrimStringWhenDecimalDataIsZero(temp));
; 1518 : 
; 1519 : 	if(CDataConversion::IsBaseFormat(strType))

  001af	8d 45 ec	 lea	 eax, DWORD PTR _strType$[ebp]
  001b2	50		 push	 eax
  001b3	e8 00 00 00 00	 call	 ?IsBaseFormat@CDataConversion@@SA_NABV?$CStringT@DV?$StrTraitMFC_DLL@DV?$ChTraitsCRT@D@ATL@@@@@ATL@@@Z ; CDataConversion::IsBaseFormat
  001b8	83 c4 04	 add	 esp, 4
  001bb	84 c0		 test	 al, al
  001bd	74 5a		 je	 SHORT $LN11@OnInsert

; 1520 : 	{
; 1521 : 		//      .
; 1522 : 		BOOL bResult = CDataConversion::IsValid8_32(temp);

  001bf	51		 push	 ecx
  001c0	8d 45 f0	 lea	 eax, DWORD PTR _temp$[ebp]
  001c3	8b cc		 mov	 ecx, esp
  001c5	50		 push	 eax
  001c6	ff 15 00 00 00
	00		 call	 DWORD PTR __imp_??0?$CStringT@DV?$StrTraitMFC_DLL@DV?$ChTraitsCRT@D@ATL@@@@@ATL@@QAE@ABV01@@Z
  001cc	e8 00 00 00 00	 call	 ?IsValid8_32@CDataConversion@@SAHV?$CStringT@DV?$StrTraitMFC_DLL@DV?$ChTraitsCRT@D@ATL@@@@@ATL@@@Z ; CDataConversion::IsValid8_32
  001d1	83 c4 04	 add	 esp, 4

; 1523 : 
; 1524 : 		//       .
; 1525 : 		if(!bResult)

  001d4	85 c0		 test	 eax, eax
  001d6	75 41		 jne	 SHORT $LN11@OnInsert

; 1526 : 		{
; 1527 : 			AfxMessageBox("    .");

  001d8	50		 push	 eax
  001d9	50		 push	 eax
  001da	68 00 00 00 00	 push	 OFFSET ??_C@_0CI@DCNEOPPA@?$MA?T?$LH?B?$LF?H?5?$LJ?$KO?$MA?Z?$LP?$KN?$MA?L?5?$LO?K?$LI?B?$MA?$LK?5?A?x?$LJ?$PN?$MA?L?5?$LO@
  001df	e8 00 00 00 00	 call	 ?AfxMessageBox@@YGHPBDII@Z ; AfxMessageBox

; 1528 : 			m_Horizon_Edit.SetFocus();

  001e4	8d 8f 20 06 00
	00		 lea	 ecx, DWORD PTR [edi+1568]
  001ea	e8 00 00 00 00	 call	 ?SetFocus@CWnd@@QAEPAV1@XZ ; CWnd::SetFocus
; File C:\Program Files (x86)\Microsoft Visual Studio\2019\Community\VC\Tools\MSVC\14.29.30133\atlmfc\include\afxwin2.inl

; 909  : 	{ ASSERT(::IsWindow(m_hWnd)); ::SendMessage(m_hWnd, EM_SETSEL, nStartChar, nEndChar);

  001ef	8b 35 00 00 00
	00		 mov	 esi, DWORD PTR __imp__SendMessageA@16
  001f5	6a ff		 push	 -1
  001f7	6a 00		 push	 0
  001f9	68 b1 00 00 00	 push	 177			; 000000b1H
  001fe	ff b7 40 06 00
	00		 push	 DWORD PTR [edi+1600]
  00204	ff d6		 call	 esi

; 910  : 	  if (!bNoScroll)
; 911  : 		::SendMessage(m_hWnd, EM_SCROLLCARET, 0, 0); }

  00206	6a 00		 push	 0
  00208	6a 00		 push	 0
  0020a	68 b7 00 00 00	 push	 183			; 000000b7H
  0020f	ff b7 40 06 00
	00		 push	 DWORD PTR [edi+1600]
  00215	ff d6		 call	 esi
  00217	eb 31		 jmp	 SHORT $LN23@OnInsert
$LN11@OnInsert:

; 725  : 	{ ASSERT(::IsWindow(m_hWnd)); return (int)::SendMessage(m_hWnd, LB_ADDSTRING, 0, (LPARAM)lpszItem); }

  00219	ff 75 f0	 push	 DWORD PTR _temp$[ebp]
  0021c	8b 35 00 00 00
	00		 mov	 esi, DWORD PTR __imp__SendMessageA@16
  00222	6a 00		 push	 0
  00224	68 80 01 00 00	 push	 384			; 00000180H
  00229	ff b7 c0 05 00
	00		 push	 DWORD PTR [edi+1472]
  0022f	ff d6		 call	 esi
; File D:\git\src\IBK\IBK_DRFN\ProjSrc\SrcChartEx\ChartAddIn\ChartEnvSetupDlgAddIn\ChartEnvSetupDlgAddIn\Setting_Common_Type_A.cpp

; 1537 : 	m_strHorizonValue = temp;

  00231	8d 45 f0	 lea	 eax, DWORD PTR _temp$[ebp]
  00234	50		 push	 eax
  00235	8d 8f c8 14 00
	00		 lea	 ecx, DWORD PTR [edi+5320]
  0023b	ff 15 00 00 00
	00		 call	 DWORD PTR __imp_??4?$CStringT@DV?$StrTraitMFC_DLL@DV?$ChTraitsCRT@D@ATL@@@@@ATL@@QAEAAV01@ABV01@@Z

; 1538 : 	UpdateData(FALSE);

  00241	6a 00		 push	 0
  00243	8b cf		 mov	 ecx, edi
  00245	e8 00 00 00 00	 call	 ?UpdateData@CWnd@@QAEHH@Z ; CWnd::UpdateData
$LN23@OnInsert:

; 1539 : 	// 20081017  <<
; 1540 : }

  0024a	8d 4d e4	 lea	 ecx, DWORD PTR _szText$[ebp]
  0024d	ff 15 00 00 00
	00		 call	 DWORD PTR __imp_??1?$CStringT@DV?$StrTraitMFC_DLL@DV?$ChTraitsCRT@D@ATL@@@@@ATL@@QAE@XZ
$LN21@OnInsert:
  00253	8d 4d ec	 lea	 ecx, DWORD PTR _strType$[ebp]
  00256	ff 15 00 00 00
	00		 call	 DWORD PTR __imp_??1?$CStringT@DV?$StrTraitMFC_DLL@DV?$ChTraitsCRT@D@ATL@@@@@ATL@@QAE@XZ
  0025c	8d 4d f0	 lea	 ecx, DWORD PTR _temp$[ebp]
  0025f	ff 15 00 00 00
	00		 call	 DWORD PTR __imp_??1?$CStringT@DV?$StrTraitMFC_DLL@DV?$ChTraitsCRT@D@ATL@@@@@ATL@@QAE@XZ
  00265	8b 4d f4	 mov	 ecx, DWORD PTR __$EHRec$[ebp]
  00268	64 89 0d 00 00
	00 00		 mov	 DWORD PTR fs:0, ecx
  0026f	59		 pop	 ecx
  00270	5f		 pop	 edi
  00271	5e		 pop	 esi
  00272	5b		 pop	 ebx
  00273	8b e5		 mov	 esp, ebp
  00275	5d		 pop	 ebp
  00276	c3		 ret	 0
_TEXT	ENDS
;	COMDAT text$x
text$x	SEGMENT
__unwindfunclet$?OnInsert@CSetting_Common_Type_A@@IAEXXZ$0:
  00000	8d 4d f0	 lea	 ecx, DWORD PTR _temp$[ebp]
  00003	ff 25 00 00 00
	00		 jmp	 DWORD PTR __imp_??1?$CStringT@DV?$StrTraitMFC_DLL@DV?$ChTraitsCRT@D@ATL@@@@@ATL@@QAE@XZ
__unwindfunclet$?OnInsert@CSetting_Common_Type_A@@IAEXXZ$1:
  00009	8d 4d ec	 lea	 ecx, DWORD PTR _strType$[ebp]
  0000c	ff 25 00 00 00
	00		 jmp	 DWORD PTR __imp_??1?$CStringT@DV?$StrTraitMFC_DLL@DV?$ChTraitsCRT@D@ATL@@@@@ATL@@QAE@XZ
__unwindfunclet$?OnInsert@CSetting_Common_Type_A@@IAEXXZ$2:
  00012	8d 4d e8	 lea	 ecx, DWORD PTR _strOutput$5[ebp]
  00015	ff 25 00 00 00
	00		 jmp	 DWORD PTR __imp_??1?$CStringT@DV?$StrTraitMFC_DLL@DV?$ChTraitsCRT@D@ATL@@@@@ATL@@QAE@XZ
__unwindfunclet$?OnInsert@CSetting_Common_Type_A@@IAEXXZ$3:
  0001b	8b 4d e0	 mov	 ecx, DWORD PTR $T3[ebp]
  0001e	ff 25 00 00 00
	00		 jmp	 DWORD PTR __imp_??1?$CStringT@DV?$StrTraitMFC_DLL@DV?$ChTraitsCRT@D@ATL@@@@@ATL@@QAE@XZ
__unwindfunclet$?OnInsert@CSetting_Common_Type_A@@IAEXXZ$5:
  00024	8d 4d e8	 lea	 ecx, DWORD PTR $T4[ebp]
  00027	ff 25 00 00 00
	00		 jmp	 DWORD PTR __imp_??1?$CStringT@DV?$StrTraitMFC_DLL@DV?$ChTraitsCRT@D@ATL@@@@@ATL@@QAE@XZ
__unwindfunclet$?OnInsert@CSetting_Common_Type_A@@IAEXXZ$6:
  0002d	8d 4d e4	 lea	 ecx, DWORD PTR _szText$[ebp]
  00030	ff 25 00 00 00
	00		 jmp	 DWORD PTR __imp_??1?$CStringT@DV?$StrTraitMFC_DLL@DV?$ChTraitsCRT@D@ATL@@@@@ATL@@QAE@XZ
  00036	cc		 int	 3
  00037	cc		 int	 3
  00038	cc		 int	 3
  00039	cc		 int	 3
  0003a	cc		 int	 3
__ehhandler$?OnInsert@CSetting_Common_Type_A@@IAEXXZ:
  0003b	90		 npad	 1
  0003c	90		 npad	 1
  0003d	8b 54 24 08	 mov	 edx, DWORD PTR [esp+8]
  00041	8d 42 0c	 lea	 eax, DWORD PTR [edx+12]
  00044	8b 4a d4	 mov	 ecx, DWORD PTR [edx-44]
  00047	33 c8		 xor	 ecx, eax
  00049	e8 00 00 00 00	 call	 @__security_check_cookie@4
  0004e	b8 00 00 00 00	 mov	 eax, OFFSET __ehfuncinfo$?OnInsert@CSetting_Common_Type_A@@IAEXXZ
  00053	e9 00 00 00 00	 jmp	 ___CxxFrameHandler3
text$x	ENDS
?OnInsert@CSetting_Common_Type_A@@IAEXXZ ENDP		; CSetting_Common_Type_A::OnInsert
; Function compile flags: /Ogtp
; File D:\git\src\IBK\IBK_DRFN\ProjSrc\SrcChartEx\ChartAddIn\ChartEnvSetupDlgAddIn\ChartEnvSetupDlgAddIn\Setting_Common_Type_A.cpp
; File C:\Program Files (x86)\Microsoft Visual Studio\2019\Community\VC\Tools\MSVC\14.29.30133\atlmfc\include\afxwin2.inl
; File D:\git\src\IBK\IBK_DRFN\ProjSrc\SrcChartEx\ChartAddIn\ChartEnvSetupDlgAddIn\ChartEnvSetupDlgAddIn\Setting_Common_Type_A.cpp
; File C:\Program Files (x86)\Microsoft Visual Studio\2019\Community\VC\Tools\MSVC\14.29.30133\atlmfc\include\afxwin2.inl
; File D:\git\src\IBK\IBK_DRFN\ProjSrc\SrcChartEx\ChartAddIn\ChartEnvSetupDlgAddIn\ChartEnvSetupDlgAddIn\Setting_Common_Type_A.cpp
; File D:\git\src\IBK\IBK_DRFN\ProjSrc\SrcChartEx\ChartAddIn\ChartEnvSetupDlgAddIn\Include_AddIn_135914\I135914\_IString.h
; File D:\git\src\IBK\IBK_DRFN\ProjSrc\SrcChartEx\ChartAddIn\ChartEnvSetupDlgAddIn\ChartEnvSetupDlgAddIn\Setting_Common_Type_A.cpp
; File C:\Program Files (x86)\Microsoft Visual Studio\2019\Community\VC\Tools\MSVC\14.29.30133\atlmfc\include\afxwin2.inl
; File D:\git\src\IBK\IBK_DRFN\ProjSrc\SrcChartEx\ChartAddIn\ChartEnvSetupDlgAddIn\ChartEnvSetupDlgAddIn\Setting_Common_Type_A.cpp
; File D:\git\src\IBK\IBK_DRFN\ProjSrc\SrcChartEx\ChartAddIn\ChartEnvSetupDlgAddIn\Include_AddIn_135914\I135914\_IString.h
; File D:\git\src\IBK\IBK_DRFN\ProjSrc\SrcChartEx\ChartAddIn\ChartEnvSetupDlgAddIn\ChartEnvSetupDlgAddIn\Setting_Common_Type_A.cpp
;	COMDAT ?OnSelchangeCmbThickness@CSetting_Common_Type_A@@IAEXXZ
_TEXT	SEGMENT
_szGraphName$2 = -20					; size = 8
__$EHRec$ = -12						; size = 12
?OnSelchangeCmbThickness@CSetting_Common_Type_A@@IAEXXZ PROC ; CSetting_Common_Type_A::OnSelchangeCmbThickness, COMDAT
; _this$ = ecx

; 1438 : {

  00000	55		 push	 ebp
  00001	8b ec		 mov	 ebp, esp
  00003	6a ff		 push	 -1
  00005	68 00 00 00 00	 push	 __ehhandler$?OnSelchangeCmbThickness@CSetting_Common_Type_A@@IAEXXZ
  0000a	64 a1 00 00 00
	00		 mov	 eax, DWORD PTR fs:0
  00010	50		 push	 eax
  00011	83 ec 08	 sub	 esp, 8
  00014	53		 push	 ebx
  00015	56		 push	 esi
  00016	57		 push	 edi
  00017	a1 00 00 00 00	 mov	 eax, DWORD PTR ___security_cookie
  0001c	33 c5		 xor	 eax, ebp
  0001e	50		 push	 eax
  0001f	8d 45 f4	 lea	 eax, DWORD PTR __$EHRec$[ebp]
  00022	64 a3 00 00 00
	00		 mov	 DWORD PTR fs:0, eax
  00028	8b f1		 mov	 esi, ecx
; File C:\Program Files (x86)\Microsoft Visual Studio\2019\Community\VC\Tools\MSVC\14.29.30133\atlmfc\include\afxwin2.inl

; 765  : 	{ ASSERT(::IsWindow(m_hWnd)); return (int)::SendMessage(m_hWnd, CB_GETCURSEL, 0, 0); }

  0002a	8b 1d 00 00 00
	00		 mov	 ebx, DWORD PTR __imp__SendMessageA@16
  00030	6a 00		 push	 0
  00032	6a 00		 push	 0
  00034	68 47 01 00 00	 push	 327			; 00000147H
  00039	ff b6 b8 10 00
	00		 push	 DWORD PTR [esi+4280]
  0003f	ff d3		 call	 ebx
; File D:\git\src\IBK\IBK_DRFN\ProjSrc\SrcChartEx\ChartAddIn\ChartEnvSetupDlgAddIn\ChartEnvSetupDlgAddIn\Setting_Common_Type_A.cpp

; 1440 : 	if( m_cmbThickness.GetCurSel() != 0 && m_cmbLineType.GetCurSel() != 0 )

  00041	85 c0		 test	 eax, eax
  00043	0f 84 48 01 00
	00		 je	 $LN2@OnSelchang
; File C:\Program Files (x86)\Microsoft Visual Studio\2019\Community\VC\Tools\MSVC\14.29.30133\atlmfc\include\afxwin2.inl

; 765  : 	{ ASSERT(::IsWindow(m_hWnd)); return (int)::SendMessage(m_hWnd, CB_GETCURSEL, 0, 0); }

  00049	6a 00		 push	 0
  0004b	6a 00		 push	 0
  0004d	68 47 01 00 00	 push	 327			; 00000147H
  00052	ff b6 40 11 00
	00		 push	 DWORD PTR [esi+4416]
  00058	ff d3		 call	 ebx
; File D:\git\src\IBK\IBK_DRFN\ProjSrc\SrcChartEx\ChartAddIn\ChartEnvSetupDlgAddIn\ChartEnvSetupDlgAddIn\Setting_Common_Type_A.cpp

; 1440 : 	if( m_cmbThickness.GetCurSel() != 0 && m_cmbLineType.GetCurSel() != 0 )

  0005a	85 c0		 test	 eax, eax
  0005c	0f 84 2f 01 00
	00		 je	 $LN2@OnSelchang

; 1445 : 		ILPCSTR szGraphName = m_pIGraphInfo->GetGraphNameString();

  00062	8b 8e c4 00 00
	00		 mov	 ecx, DWORD PTR [esi+196]
  00068	8b 01		 mov	 eax, DWORD PTR [ecx]
  0006a	ff 90 a0 00 00
	00		 call	 DWORD PTR [eax+160]
; File D:\git\src\IBK\IBK_DRFN\ProjSrc\SrcChartEx\ChartAddIn\ChartEnvSetupDlgAddIn\Include_AddIn_135914\I135914\_IString.h

; 39   : 		m_pIStrData = p_pIString;	// Do not AddRef(). Because It must be Return Value.

  00070	8b f8		 mov	 edi, eax
  00072	89 7d f0	 mov	 DWORD PTR _szGraphName$2[ebp+4], edi

; 40   : 		if( m_pIStrData) m_szData = m_pIStrData->GetData();

  00075	85 ff		 test	 edi, edi
  00077	74 0b		 je	 SHORT $LN15@OnSelchang
  00079	8b 17		 mov	 edx, DWORD PTR [edi]
  0007b	8b cf		 mov	 ecx, edi
  0007d	ff 52 10	 call	 DWORD PTR [edx+16]
  00080	8b c8		 mov	 ecx, eax
  00082	eb 02		 jmp	 SHORT $LN39@OnSelchang
$LN15@OnSelchang:

; 41   : 		else m_szData = NULL;

  00084	33 c9		 xor	 ecx, ecx
$LN39@OnSelchang:
; File D:\git\src\IBK\IBK_DRFN\ProjSrc\SrcChartEx\ChartAddIn\ChartEnvSetupDlgAddIn\ChartEnvSetupDlgAddIn\Setting_Common_Type_A.cpp

; 1445 : 		ILPCSTR szGraphName = m_pIGraphInfo->GetGraphNameString();

  00086	89 4d ec	 mov	 DWORD PTR _szGraphName$2[ebp], ecx

; 1446 : // 2008.01.25 by LYH >>
; 1447 : 		//if( strcmp( szGraphName, "") && strcmp( szGraphName, "Box Chart"))
; 1448 : 
; 1449 : 		if(!strcmp( szGraphName,  _MTEXT( C2_LINE_PRICE_MA )))

  00089	8b 15 54 00 00
	00		 mov	 edx, DWORD PTR ?g_iMetaTable@@3VIMetaTable@@A+84
  0008f	8b c1		 mov	 eax, ecx
  00091	c7 45 fc 00 00
	00 00		 mov	 DWORD PTR __$EHRec$[ebp+8], 0
  00098	8b 92 40 0d 00
	00		 mov	 edx, DWORD PTR [edx+3392]
  0009e	66 90		 npad	 2
$LL26@OnSelchang:
  000a0	8a 18		 mov	 bl, BYTE PTR [eax]
  000a2	3a 1a		 cmp	 bl, BYTE PTR [edx]
  000a4	75 1a		 jne	 SHORT $LN27@OnSelchang
  000a6	84 db		 test	 bl, bl
  000a8	74 12		 je	 SHORT $LN28@OnSelchang
  000aa	8a 58 01	 mov	 bl, BYTE PTR [eax+1]
  000ad	3a 5a 01	 cmp	 bl, BYTE PTR [edx+1]
  000b0	75 0e		 jne	 SHORT $LN27@OnSelchang
  000b2	83 c0 02	 add	 eax, 2
  000b5	83 c2 02	 add	 edx, 2
  000b8	84 db		 test	 bl, bl
  000ba	75 e4		 jne	 SHORT $LL26@OnSelchang
$LN28@OnSelchang:
  000bc	33 c0		 xor	 eax, eax
  000be	eb 05		 jmp	 SHORT $LN29@OnSelchang
$LN27@OnSelchang:
  000c0	1b c0		 sbb	 eax, eax
  000c2	83 c8 01	 or	 eax, 1
$LN29@OnSelchang:
  000c5	85 c0		 test	 eax, eax
  000c7	75 07		 jne	 SHORT $LN4@OnSelchang

; 1450 : 		{
; 1451 : 			m_cmbLineType.EnableWindow(TRUE);

  000c9	6a 01		 push	 1
  000cb	e9 93 00 00 00	 jmp	 $LN40@OnSelchang
$LN4@OnSelchang:

; 1452 : 			return;
; 1453 : 		}
; 1454 : 		else if( strcmp( szGraphName,  _MTEXT( C2_RAINBOW_CHART )) && strcmp( szGraphName,  _MTEXT( C2_BOX_CHART )))

  000d0	a1 54 00 00 00	 mov	 eax, DWORD PTR ?g_iMetaTable@@3VIMetaTable@@A+84
  000d5	8b 90 30 03 00
	00		 mov	 edx, DWORD PTR [eax+816]
  000db	8b c1		 mov	 eax, ecx
  000dd	0f 1f 00	 npad	 3
$LL30@OnSelchang:
  000e0	8a 18		 mov	 bl, BYTE PTR [eax]
  000e2	3a 1a		 cmp	 bl, BYTE PTR [edx]
  000e4	75 1a		 jne	 SHORT $LN31@OnSelchang
  000e6	84 db		 test	 bl, bl
  000e8	74 12		 je	 SHORT $LN32@OnSelchang
  000ea	8a 58 01	 mov	 bl, BYTE PTR [eax+1]
  000ed	3a 5a 01	 cmp	 bl, BYTE PTR [edx+1]
  000f0	75 0e		 jne	 SHORT $LN31@OnSelchang
  000f2	83 c0 02	 add	 eax, 2
  000f5	83 c2 02	 add	 edx, 2
  000f8	84 db		 test	 bl, bl
  000fa	75 e4		 jne	 SHORT $LL30@OnSelchang
$LN32@OnSelchang:
  000fc	33 c0		 xor	 eax, eax
  000fe	eb 05		 jmp	 SHORT $LN33@OnSelchang
$LN31@OnSelchang:
  00100	1b c0		 sbb	 eax, eax
  00102	83 c8 01	 or	 eax, 1
$LN33@OnSelchang:
  00105	85 c0		 test	 eax, eax
  00107	74 43		 je	 SHORT $LN6@OnSelchang
  00109	a1 54 00 00 00	 mov	 eax, DWORD PTR ?g_iMetaTable@@3VIMetaTable@@A+84
  0010e	8b 80 40 03 00
	00		 mov	 eax, DWORD PTR [eax+832]
$LL34@OnSelchang:
  00114	8a 11		 mov	 dl, BYTE PTR [ecx]
  00116	3a 10		 cmp	 dl, BYTE PTR [eax]
  00118	75 1a		 jne	 SHORT $LN35@OnSelchang
  0011a	84 d2		 test	 dl, dl
  0011c	74 12		 je	 SHORT $LN36@OnSelchang
  0011e	8a 51 01	 mov	 dl, BYTE PTR [ecx+1]
  00121	3a 50 01	 cmp	 dl, BYTE PTR [eax+1]
  00124	75 0e		 jne	 SHORT $LN35@OnSelchang
  00126	83 c1 02	 add	 ecx, 2
  00129	83 c0 02	 add	 eax, 2
  0012c	84 d2		 test	 dl, dl
  0012e	75 e4		 jne	 SHORT $LL34@OnSelchang
$LN36@OnSelchang:
  00130	33 c0		 xor	 eax, eax
  00132	eb 05		 jmp	 SHORT $LN37@OnSelchang
$LN35@OnSelchang:
  00134	1b c0		 sbb	 eax, eax
  00136	83 c8 01	 or	 eax, 1
$LN37@OnSelchang:
  00139	85 c0		 test	 eax, eax
  0013b	74 0f		 je	 SHORT $LN6@OnSelchang

; 1455 : 			//AfxMessageBox(" \"1pt\"     .");
; 1456 : 			AfxMessageBox(m_strMsgLineShape);

  0013d	6a 00		 push	 0
  0013f	6a 00		 push	 0
  00141	ff b6 e0 00 00
	00		 push	 DWORD PTR [esi+224]
  00147	e8 00 00 00 00	 call	 ?AfxMessageBox@@YGHPBDII@Z ; AfxMessageBox
$LN6@OnSelchang:
; File C:\Program Files (x86)\Microsoft Visual Studio\2019\Community\VC\Tools\MSVC\14.29.30133\atlmfc\include\afxwin2.inl

; 767  : 	{ ASSERT(::IsWindow(m_hWnd)); return (int)::SendMessage(m_hWnd, CB_SETCURSEL, nSelect, 0); }

  0014c	6a 00		 push	 0
  0014e	6a 00		 push	 0
  00150	68 4e 01 00 00	 push	 334			; 0000014eH
  00155	ff b6 40 11 00
	00		 push	 DWORD PTR [esi+4416]
  0015b	ff 15 00 00 00
	00		 call	 DWORD PTR __imp__SendMessageA@16
; File D:\git\src\IBK\IBK_DRFN\ProjSrc\SrcChartEx\ChartAddIn\ChartEnvSetupDlgAddIn\ChartEnvSetupDlgAddIn\Setting_Common_Type_A.cpp

; 1461 : 		m_cmbLineType.EnableWindow(FALSE);

  00161	6a 00		 push	 0
$LN40@OnSelchang:
; File D:\git\src\IBK\IBK_DRFN\ProjSrc\SrcChartEx\ChartAddIn\ChartEnvSetupDlgAddIn\Include_AddIn_135914\I135914\_IString.h

; 44   : 	{

  00163	8d 8e 20 11 00
	00		 lea	 ecx, DWORD PTR [esi+4384]
  00169	e8 00 00 00 00	 call	 ?EnableWindow@CWnd@@QAEHH@Z ; CWnd::EnableWindow
  0016e	c7 45 fc 01 00
	00 00		 mov	 DWORD PTR __$EHRec$[ebp+8], 1

; 45   : 		if( m_pIStrData)

  00175	85 ff		 test	 edi, edi
  00177	74 25		 je	 SHORT $LN3@OnSelchang

; 46   : 		{
; 47   : 			m_pIStrData->Release();

  00179	8b 07		 mov	 eax, DWORD PTR [edi]
  0017b	57		 push	 edi
  0017c	ff 50 08	 call	 DWORD PTR [eax+8]
; File D:\git\src\IBK\IBK_DRFN\ProjSrc\SrcChartEx\ChartAddIn\ChartEnvSetupDlgAddIn\ChartEnvSetupDlgAddIn\Setting_Common_Type_A.cpp

; 1467 : }

  0017f	8b 4d f4	 mov	 ecx, DWORD PTR __$EHRec$[ebp]
  00182	64 89 0d 00 00
	00 00		 mov	 DWORD PTR fs:0, ecx
  00189	59		 pop	 ecx
  0018a	5f		 pop	 edi
  0018b	5e		 pop	 esi
  0018c	5b		 pop	 ebx
  0018d	8b e5		 mov	 esp, ebp
  0018f	5d		 pop	 ebp
  00190	c3		 ret	 0
$LN2@OnSelchang:

; 1462 : 		return;
; 1463 : 	}	
; 1464 : 
; 1465 : 	else
; 1466 : 		m_cmbLineType.EnableWindow(TRUE);	

  00191	6a 01		 push	 1
  00193	8d 8e 20 11 00
	00		 lea	 ecx, DWORD PTR [esi+4384]
  00199	e8 00 00 00 00	 call	 ?EnableWindow@CWnd@@QAEHH@Z ; CWnd::EnableWindow
$LN3@OnSelchang:

; 1467 : }

  0019e	8b 4d f4	 mov	 ecx, DWORD PTR __$EHRec$[ebp]
  001a1	64 89 0d 00 00
	00 00		 mov	 DWORD PTR fs:0, ecx
  001a8	59		 pop	 ecx
  001a9	5f		 pop	 edi
  001aa	5e		 pop	 esi
  001ab	5b		 pop	 ebx
  001ac	8b e5		 mov	 esp, ebp
  001ae	5d		 pop	 ebp
  001af	c3		 ret	 0
_TEXT	ENDS
;	COMDAT text$x
text$x	SEGMENT
__unwindfunclet$?OnSelchangeCmbThickness@CSetting_Common_Type_A@@IAEXXZ$0:
  00000	8d 4d ec	 lea	 ecx, DWORD PTR _szGraphName$2[ebp]
  00003	e9 00 00 00 00	 jmp	 ??1ILPCSTR135914@@QAE@XZ ; ILPCSTR135914::~ILPCSTR135914
  00008	cc		 int	 3
  00009	cc		 int	 3
  0000a	cc		 int	 3
  0000b	cc		 int	 3
  0000c	cc		 int	 3
__ehhandler$?OnSelchangeCmbThickness@CSetting_Common_Type_A@@IAEXXZ:
  0000d	90		 npad	 1
  0000e	90		 npad	 1
  0000f	8b 54 24 08	 mov	 edx, DWORD PTR [esp+8]
  00013	8d 42 0c	 lea	 eax, DWORD PTR [edx+12]
  00016	8b 4a e8	 mov	 ecx, DWORD PTR [edx-24]
  00019	33 c8		 xor	 ecx, eax
  0001b	e8 00 00 00 00	 call	 @__security_check_cookie@4
  00020	b8 00 00 00 00	 mov	 eax, OFFSET __ehfuncinfo$?OnSelchangeCmbThickness@CSetting_Common_Type_A@@IAEXXZ
  00025	e9 00 00 00 00	 jmp	 ___CxxFrameHandler3
text$x	ENDS
?OnSelchangeCmbThickness@CSetting_Common_Type_A@@IAEXXZ ENDP ; CSetting_Common_Type_A::OnSelchangeCmbThickness
; Function compile flags: /Ogtp
; File D:\git\src\IBK\IBK_DRFN\ProjSrc\SrcChartEx\ChartAddIn\ChartEnvSetupDlgAddIn\ChartEnvSetupDlgAddIn\Setting_Common_Type_A.cpp
; File C:\Program Files (x86)\Microsoft Visual Studio\2019\Community\VC\Tools\MSVC\14.29.30133\atlmfc\include\afxwin2.inl
; File D:\git\src\IBK\IBK_DRFN\ProjSrc\SrcChartEx\ChartAddIn\ChartEnvSetupDlgAddIn\ChartEnvSetupDlgAddIn\Setting_Common_Type_A.cpp
; File C:\Program Files (x86)\Microsoft Visual Studio\2019\Community\VC\Tools\MSVC\14.29.30133\atlmfc\include\afxwin2.inl
; File D:\git\src\IBK\IBK_DRFN\ProjSrc\SrcChartEx\ChartAddIn\ChartEnvSetupDlgAddIn\ChartEnvSetupDlgAddIn\Setting_Common_Type_A.cpp
; File D:\git\src\IBK\IBK_DRFN\ProjSrc\SrcChartEx\ChartAddIn\ChartEnvSetupDlgAddIn\Include_AddIn_135914\I135914\_IString.h
; File D:\git\src\IBK\IBK_DRFN\ProjSrc\SrcChartEx\ChartAddIn\ChartEnvSetupDlgAddIn\ChartEnvSetupDlgAddIn\Setting_Common_Type_A.cpp
; File C:\Program Files (x86)\Microsoft Visual Studio\2019\Community\VC\Tools\MSVC\14.29.30133\atlmfc\include\afxwin2.inl
; File D:\git\src\IBK\IBK_DRFN\ProjSrc\SrcChartEx\ChartAddIn\ChartEnvSetupDlgAddIn\ChartEnvSetupDlgAddIn\Setting_Common_Type_A.cpp
; File D:\git\src\IBK\IBK_DRFN\ProjSrc\SrcChartEx\ChartAddIn\ChartEnvSetupDlgAddIn\Include_AddIn_135914\I135914\_IString.h
; File D:\git\src\IBK\IBK_DRFN\ProjSrc\SrcChartEx\ChartAddIn\ChartEnvSetupDlgAddIn\ChartEnvSetupDlgAddIn\Setting_Common_Type_A.cpp
;	COMDAT ?OnSelchangeCmbLinetype@CSetting_Common_Type_A@@IAEXXZ
_TEXT	SEGMENT
_szGraphName$2 = -20					; size = 8
__$EHRec$ = -12						; size = 12
?OnSelchangeCmbLinetype@CSetting_Common_Type_A@@IAEXXZ PROC ; CSetting_Common_Type_A::OnSelchangeCmbLinetype, COMDAT
; _this$ = ecx

; 1407 : {

  00000	55		 push	 ebp
  00001	8b ec		 mov	 ebp, esp
  00003	6a ff		 push	 -1
  00005	68 00 00 00 00	 push	 __ehhandler$?OnSelchangeCmbLinetype@CSetting_Common_Type_A@@IAEXXZ
  0000a	64 a1 00 00 00
	00		 mov	 eax, DWORD PTR fs:0
  00010	50		 push	 eax
  00011	83 ec 08	 sub	 esp, 8
  00014	53		 push	 ebx
  00015	56		 push	 esi
  00016	57		 push	 edi
  00017	a1 00 00 00 00	 mov	 eax, DWORD PTR ___security_cookie
  0001c	33 c5		 xor	 eax, ebp
  0001e	50		 push	 eax
  0001f	8d 45 f4	 lea	 eax, DWORD PTR __$EHRec$[ebp]
  00022	64 a3 00 00 00
	00		 mov	 DWORD PTR fs:0, eax
  00028	8b f1		 mov	 esi, ecx
; File C:\Program Files (x86)\Microsoft Visual Studio\2019\Community\VC\Tools\MSVC\14.29.30133\atlmfc\include\afxwin2.inl

; 765  : 	{ ASSERT(::IsWindow(m_hWnd)); return (int)::SendMessage(m_hWnd, CB_GETCURSEL, 0, 0); }

  0002a	8b 1d 00 00 00
	00		 mov	 ebx, DWORD PTR __imp__SendMessageA@16
  00030	6a 00		 push	 0
  00032	6a 00		 push	 0
  00034	68 47 01 00 00	 push	 327			; 00000147H
  00039	ff b6 b8 10 00
	00		 push	 DWORD PTR [esi+4280]
  0003f	ff d3		 call	 ebx
; File D:\git\src\IBK\IBK_DRFN\ProjSrc\SrcChartEx\ChartAddIn\ChartEnvSetupDlgAddIn\ChartEnvSetupDlgAddIn\Setting_Common_Type_A.cpp

; 1409 : 	if( m_cmbThickness.GetCurSel() != 0 && m_cmbLineType.GetCurSel() != 0 )

  00041	85 c0		 test	 eax, eax
  00043	0f 84 14 01 00
	00		 je	 $LN2@OnSelchang
; File C:\Program Files (x86)\Microsoft Visual Studio\2019\Community\VC\Tools\MSVC\14.29.30133\atlmfc\include\afxwin2.inl

; 765  : 	{ ASSERT(::IsWindow(m_hWnd)); return (int)::SendMessage(m_hWnd, CB_GETCURSEL, 0, 0); }

  00049	6a 00		 push	 0
  0004b	6a 00		 push	 0
  0004d	68 47 01 00 00	 push	 327			; 00000147H
  00052	ff b6 40 11 00
	00		 push	 DWORD PTR [esi+4416]
  00058	ff d3		 call	 ebx
; File D:\git\src\IBK\IBK_DRFN\ProjSrc\SrcChartEx\ChartAddIn\ChartEnvSetupDlgAddIn\ChartEnvSetupDlgAddIn\Setting_Common_Type_A.cpp

; 1409 : 	if( m_cmbThickness.GetCurSel() != 0 && m_cmbLineType.GetCurSel() != 0 )

  0005a	85 c0		 test	 eax, eax
  0005c	0f 84 fb 00 00
	00		 je	 $LN2@OnSelchang

; 1414 : 		ILPCSTR szGraphName = m_pIGraphInfo->GetGraphNameString();

  00062	8b 8e c4 00 00
	00		 mov	 ecx, DWORD PTR [esi+196]
  00068	8b 01		 mov	 eax, DWORD PTR [ecx]
  0006a	ff 90 a0 00 00
	00		 call	 DWORD PTR [eax+160]
; File D:\git\src\IBK\IBK_DRFN\ProjSrc\SrcChartEx\ChartAddIn\ChartEnvSetupDlgAddIn\Include_AddIn_135914\I135914\_IString.h

; 39   : 		m_pIStrData = p_pIString;	// Do not AddRef(). Because It must be Return Value.

  00070	8b f8		 mov	 edi, eax
  00072	89 7d f0	 mov	 DWORD PTR _szGraphName$2[ebp+4], edi

; 40   : 		if( m_pIStrData) m_szData = m_pIStrData->GetData();

  00075	85 ff		 test	 edi, edi
  00077	74 09		 je	 SHORT $LN15@OnSelchang
  00079	8b 17		 mov	 edx, DWORD PTR [edi]
  0007b	8b cf		 mov	 ecx, edi
  0007d	ff 52 10	 call	 DWORD PTR [edx+16]
  00080	eb 02		 jmp	 SHORT $LN35@OnSelchang
$LN15@OnSelchang:

; 41   : 		else m_szData = NULL;

  00082	33 c0		 xor	 eax, eax
$LN35@OnSelchang:
; File D:\git\src\IBK\IBK_DRFN\ProjSrc\SrcChartEx\ChartAddIn\ChartEnvSetupDlgAddIn\ChartEnvSetupDlgAddIn\Setting_Common_Type_A.cpp

; 1414 : 		ILPCSTR szGraphName = m_pIGraphInfo->GetGraphNameString();

  00084	89 45 ec	 mov	 DWORD PTR _szGraphName$2[ebp], eax

; 1415 : // 2008.01.25 by LYH >>
; 1416 : //		if( strcmp( szGraphName, "")) 
; 1417 : 		if(!strcmp( szGraphName,  _MTEXT( C2_LINE_PRICE_MA )))

  00087	8b 15 54 00 00
	00		 mov	 edx, DWORD PTR ?g_iMetaTable@@3VIMetaTable@@A+84
  0008d	8b c8		 mov	 ecx, eax
  0008f	c7 45 fc 00 00
	00 00		 mov	 DWORD PTR __$EHRec$[ebp+8], 0
  00096	8b 92 40 0d 00
	00		 mov	 edx, DWORD PTR [edx+3392]
  0009c	0f 1f 40 00	 npad	 4
$LL26@OnSelchang:
  000a0	8a 19		 mov	 bl, BYTE PTR [ecx]
  000a2	3a 1a		 cmp	 bl, BYTE PTR [edx]
  000a4	75 1a		 jne	 SHORT $LN27@OnSelchang
  000a6	84 db		 test	 bl, bl
  000a8	74 12		 je	 SHORT $LN28@OnSelchang
  000aa	8a 59 01	 mov	 bl, BYTE PTR [ecx+1]
  000ad	3a 5a 01	 cmp	 bl, BYTE PTR [edx+1]
  000b0	75 0e		 jne	 SHORT $LN27@OnSelchang
  000b2	83 c1 02	 add	 ecx, 2
  000b5	83 c2 02	 add	 edx, 2
  000b8	84 db		 test	 bl, bl
  000ba	75 e4		 jne	 SHORT $LL26@OnSelchang
$LN28@OnSelchang:
  000bc	33 c9		 xor	 ecx, ecx
  000be	eb 05		 jmp	 SHORT $LN29@OnSelchang
$LN27@OnSelchang:
  000c0	1b c9		 sbb	 ecx, ecx
  000c2	83 c9 01	 or	 ecx, 1
$LN29@OnSelchang:
  000c5	85 c9		 test	 ecx, ecx
  000c7	75 04		 jne	 SHORT $LN4@OnSelchang

; 1418 : 		{
; 1419 : 			m_cmbThickness.EnableWindow(TRUE);

  000c9	6a 01		 push	 1
  000cb	eb 62		 jmp	 SHORT $LN36@OnSelchang
$LN4@OnSelchang:

; 1420 : 			return;
; 1421 : 		}
; 1422 : 		else if( strcmp( szGraphName,  _MTEXT( C2_RAINBOW_CHART )))

  000cd	8b 0d 54 00 00
	00		 mov	 ecx, DWORD PTR ?g_iMetaTable@@3VIMetaTable@@A+84
  000d3	8b 89 30 03 00
	00		 mov	 ecx, DWORD PTR [ecx+816]
  000d9	0f 1f 80 00 00
	00 00		 npad	 7
$LL30@OnSelchang:
  000e0	8a 10		 mov	 dl, BYTE PTR [eax]
  000e2	3a 11		 cmp	 dl, BYTE PTR [ecx]
  000e4	75 1a		 jne	 SHORT $LN31@OnSelchang
  000e6	84 d2		 test	 dl, dl
  000e8	74 12		 je	 SHORT $LN32@OnSelchang
  000ea	8a 50 01	 mov	 dl, BYTE PTR [eax+1]
  000ed	3a 51 01	 cmp	 dl, BYTE PTR [ecx+1]
  000f0	75 0e		 jne	 SHORT $LN31@OnSelchang
  000f2	83 c0 02	 add	 eax, 2
  000f5	83 c1 02	 add	 ecx, 2
  000f8	84 d2		 test	 dl, dl
  000fa	75 e4		 jne	 SHORT $LL30@OnSelchang
$LN32@OnSelchang:
  000fc	33 c0		 xor	 eax, eax
  000fe	eb 05		 jmp	 SHORT $LN33@OnSelchang
$LN31@OnSelchang:
  00100	1b c0		 sbb	 eax, eax
  00102	83 c8 01	 or	 eax, 1
$LN33@OnSelchang:
  00105	85 c0		 test	 eax, eax
  00107	74 0f		 je	 SHORT $LN6@OnSelchang

; 1423 : 			//AfxMessageBox(" \"\"     .");
; 1424 : 			AfxMessageBox(m_strMsgLineThick);

  00109	6a 00		 push	 0
  0010b	6a 00		 push	 0
  0010d	ff b6 dc 00 00
	00		 push	 DWORD PTR [esi+220]
  00113	e8 00 00 00 00	 call	 ?AfxMessageBox@@YGHPBDII@Z ; AfxMessageBox
$LN6@OnSelchang:
; File C:\Program Files (x86)\Microsoft Visual Studio\2019\Community\VC\Tools\MSVC\14.29.30133\atlmfc\include\afxwin2.inl

; 767  : 	{ ASSERT(::IsWindow(m_hWnd)); return (int)::SendMessage(m_hWnd, CB_SETCURSEL, nSelect, 0); }

  00118	6a 00		 push	 0
  0011a	6a 00		 push	 0
  0011c	68 4e 01 00 00	 push	 334			; 0000014eH
  00121	ff b6 b8 10 00
	00		 push	 DWORD PTR [esi+4280]
  00127	ff 15 00 00 00
	00		 call	 DWORD PTR __imp__SendMessageA@16
; File D:\git\src\IBK\IBK_DRFN\ProjSrc\SrcChartEx\ChartAddIn\ChartEnvSetupDlgAddIn\ChartEnvSetupDlgAddIn\Setting_Common_Type_A.cpp

; 1429 : 		m_cmbThickness.EnableWindow(FALSE);

  0012d	6a 00		 push	 0
$LN36@OnSelchang:
; File D:\git\src\IBK\IBK_DRFN\ProjSrc\SrcChartEx\ChartAddIn\ChartEnvSetupDlgAddIn\Include_AddIn_135914\I135914\_IString.h

; 44   : 	{

  0012f	8d 8e 98 10 00
	00		 lea	 ecx, DWORD PTR [esi+4248]
  00135	e8 00 00 00 00	 call	 ?EnableWindow@CWnd@@QAEHH@Z ; CWnd::EnableWindow
  0013a	c7 45 fc 01 00
	00 00		 mov	 DWORD PTR __$EHRec$[ebp+8], 1

; 45   : 		if( m_pIStrData)

  00141	85 ff		 test	 edi, edi
  00143	74 25		 je	 SHORT $LN3@OnSelchang

; 46   : 		{
; 47   : 			m_pIStrData->Release();

  00145	8b 07		 mov	 eax, DWORD PTR [edi]
  00147	57		 push	 edi
  00148	ff 50 08	 call	 DWORD PTR [eax+8]
; File D:\git\src\IBK\IBK_DRFN\ProjSrc\SrcChartEx\ChartAddIn\ChartEnvSetupDlgAddIn\ChartEnvSetupDlgAddIn\Setting_Common_Type_A.cpp

; 1435 : }

  0014b	8b 4d f4	 mov	 ecx, DWORD PTR __$EHRec$[ebp]
  0014e	64 89 0d 00 00
	00 00		 mov	 DWORD PTR fs:0, ecx
  00155	59		 pop	 ecx
  00156	5f		 pop	 edi
  00157	5e		 pop	 esi
  00158	5b		 pop	 ebx
  00159	8b e5		 mov	 esp, ebp
  0015b	5d		 pop	 ebp
  0015c	c3		 ret	 0
$LN2@OnSelchang:

; 1430 : 		return;
; 1431 : 	}
; 1432 : 
; 1433 : 	else
; 1434 : 		m_cmbThickness.EnableWindow(TRUE);

  0015d	6a 01		 push	 1
  0015f	8d 8e 98 10 00
	00		 lea	 ecx, DWORD PTR [esi+4248]
  00165	e8 00 00 00 00	 call	 ?EnableWindow@CWnd@@QAEHH@Z ; CWnd::EnableWindow
$LN3@OnSelchang:

; 1435 : }

  0016a	8b 4d f4	 mov	 ecx, DWORD PTR __$EHRec$[ebp]
  0016d	64 89 0d 00 00
	00 00		 mov	 DWORD PTR fs:0, ecx
  00174	59		 pop	 ecx
  00175	5f		 pop	 edi
  00176	5e		 pop	 esi
  00177	5b		 pop	 ebx
  00178	8b e5		 mov	 esp, ebp
  0017a	5d		 pop	 ebp
  0017b	c3		 ret	 0
_TEXT	ENDS
;	COMDAT text$x
text$x	SEGMENT
__unwindfunclet$?OnSelchangeCmbLinetype@CSetting_Common_Type_A@@IAEXXZ$0:
  00000	8d 4d ec	 lea	 ecx, DWORD PTR _szGraphName$2[ebp]
  00003	e9 00 00 00 00	 jmp	 ??1ILPCSTR135914@@QAE@XZ ; ILPCSTR135914::~ILPCSTR135914
  00008	cc		 int	 3
  00009	cc		 int	 3
  0000a	cc		 int	 3
  0000b	cc		 int	 3
  0000c	cc		 int	 3
__ehhandler$?OnSelchangeCmbLinetype@CSetting_Common_Type_A@@IAEXXZ:
  0000d	90		 npad	 1
  0000e	90		 npad	 1
  0000f	8b 54 24 08	 mov	 edx, DWORD PTR [esp+8]
  00013	8d 42 0c	 lea	 eax, DWORD PTR [edx+12]
  00016	8b 4a e8	 mov	 ecx, DWORD PTR [edx-24]
  00019	33 c8		 xor	 ecx, eax
  0001b	e8 00 00 00 00	 call	 @__security_check_cookie@4
  00020	b8 00 00 00 00	 mov	 eax, OFFSET __ehfuncinfo$?OnSelchangeCmbLinetype@CSetting_Common_Type_A@@IAEXXZ
  00025	e9 00 00 00 00	 jmp	 ___CxxFrameHandler3
text$x	ENDS
?OnSelchangeCmbLinetype@CSetting_Common_Type_A@@IAEXXZ ENDP ; CSetting_Common_Type_A::OnSelchangeCmbLinetype
; Function compile flags: /Ogtp
; File D:\git\src\IBK\IBK_DRFN\ProjSrc\SrcChartEx\ChartAddIn\ChartEnvSetupDlgAddIn\ChartEnvSetupDlgAddIn\Setting_Common_Type_A.cpp
;	COMDAT ?OnClickListComposition@CSetting_Common_Type_A@@IAEXPAUtagNMHDR@@PAJ@Z
_TEXT	SEGMENT
_pNMHDR$ = 8						; size = 4
_pResult$ = 12						; size = 4
?OnClickListComposition@CSetting_Common_Type_A@@IAEXPAUtagNMHDR@@PAJ@Z PROC ; CSetting_Common_Type_A::OnClickListComposition, COMDAT
; _this$ = ecx

; 1220 : {

  00000	55		 push	 ebp
  00001	8b ec		 mov	 ebp, esp
  00003	56		 push	 esi
  00004	8b f1		 mov	 esi, ecx

; 1221 : 	NM_LISTVIEW* pNMListView = (NM_LISTVIEW*)pNMHDR;
; 1222 : 	// TODO: Add your control notification handler code here
; 1223 : 
; 1224 : //	m_lstComposition.SetItemState(pNMListView->iItem, LVIS_SELECTED, LVIF_STATE); 
; 1225 : 	
; 1226 : 	// 1.        .
; 1227 : 	OnApplySubGraphData();

  00006	e8 00 00 00 00	 call	 ?OnApplySubGraphData@CSetting_Common_Type_A@@AAEXXZ ; CSetting_Common_Type_A::OnApplySubGraphData

; 1228 : 	Initial_SubGraphData( pNMListView->iItem );

  0000b	8b 45 08	 mov	 eax, DWORD PTR _pNMHDR$[ebp]
  0000e	8b ce		 mov	 ecx, esi
  00010	ff 70 0c	 push	 DWORD PTR [eax+12]
  00013	e8 00 00 00 00	 call	 ?Initial_SubGraphData@CSetting_Common_Type_A@@AAEXH@Z ; CSetting_Common_Type_A::Initial_SubGraphData

; 1229 : 	
; 1230 : 	*pResult = 0;

  00018	8b 45 0c	 mov	 eax, DWORD PTR _pResult$[ebp]
  0001b	5e		 pop	 esi
  0001c	c7 00 00 00 00
	00		 mov	 DWORD PTR [eax], 0

; 1231 : }

  00022	5d		 pop	 ebp
  00023	c2 08 00	 ret	 8
?OnClickListComposition@CSetting_Common_Type_A@@IAEXPAUtagNMHDR@@PAJ@Z ENDP ; CSetting_Common_Type_A::OnClickListComposition
_TEXT	ENDS
; Function compile flags: /Ogtp
; File D:\git\src\IBK\IBK_DRFN\ProjSrc\SrcChartEx\ChartAddIn\ChartEnvSetupDlgAddIn\ChartEnvSetupDlgAddIn\Setting_Common_Type_A.cpp
; File C:\Program Files (x86)\Microsoft Visual Studio\2019\Community\VC\Tools\MSVC\14.29.30133\atlmfc\include\afxcmn.inl
; File D:\git\src\IBK\IBK_DRFN\ProjSrc\SrcChartEx\ChartAddIn\ChartEnvSetupDlgAddIn\ChartEnvSetupDlgAddIn\Setting_Common_Type_A.cpp
; File C:\Program Files (x86)\Microsoft Visual Studio\2019\Community\VC\Tools\MSVC\14.29.30133\atlmfc\include\afxcmn.inl
; File D:\git\src\IBK\IBK_DRFN\ProjSrc\SrcChartEx\ChartAddIn\ChartEnvSetupDlgAddIn\ChartEnvSetupDlgAddIn\Setting_Common_Type_A.cpp
; File C:\Program Files (x86)\Microsoft Visual Studio\2019\Community\VC\Tools\MSVC\14.29.30133\atlmfc\include\afxcmn2.inl
; File D:\git\src\IBK\IBK_DRFN\ProjSrc\SrcChartEx\ChartAddIn\ChartEnvSetupDlgAddIn\ChartEnvSetupDlgAddIn\Setting_Common_Type_A.cpp
;	COMDAT ?OnItemchangedListComposition@CSetting_Common_Type_A@@IAEXPAUtagNMHDR@@PAJ@Z
_TEXT	SEGMENT
tv547 = -12						; size = 4
tv550 = -8						; size = 4
_this$1$ = -4						; size = 4
_pNMHDR$ = 8						; size = 4
_pResult$ = 12						; size = 4
?OnItemchangedListComposition@CSetting_Common_Type_A@@IAEXPAUtagNMHDR@@PAJ@Z PROC ; CSetting_Common_Type_A::OnItemchangedListComposition, COMDAT
; _this$ = ecx

; 1335 : {

  00000	55		 push	 ebp
  00001	8b ec		 mov	 ebp, esp
  00003	83 ec 0c	 sub	 esp, 12			; 0000000cH

; 1336 : 	NM_LISTVIEW* pNMListView = (NM_LISTVIEW*)pNMHDR;
; 1337 : 	// TODO: Add your control notification handler code here
; 1338 : 	*pResult = 0;

  00006	8b 45 0c	 mov	 eax, DWORD PTR _pResult$[ebp]
  00009	56		 push	 esi
  0000a	57		 push	 edi

; 1339 : 
; 1340 : 	if(pNMListView->uOldState == 0 && pNMListView->uNewState == 0)

  0000b	8b 7d 08	 mov	 edi, DWORD PTR _pNMHDR$[ebp]
  0000e	8b f1		 mov	 esi, ecx
  00010	c7 00 00 00 00
	00		 mov	 DWORD PTR [eax], 0
  00016	89 75 fc	 mov	 DWORD PTR _this$1$[ebp], esi
  00019	8b 57 18	 mov	 edx, DWORD PTR [edi+24]
  0001c	85 d2		 test	 edx, edx
  0001e	75 09		 jne	 SHORT $LN30@OnItemchan
  00020	39 57 14	 cmp	 DWORD PTR [edi+20], edx
  00023	0f 84 3f 01 00
	00		 je	 $LN16@OnItemchan
$LN30@OnItemchan:

; 1341 : 		return;	// No change
; 1342 : 
; 1343 : 	// Old check box state
; 1344 : 	BOOL bPrevState = (BOOL)(((pNMListView->uOldState & LVIS_STATEIMAGEMASK)>>12)-1);   // Old check box state
; 1345 : 	if (bPrevState < 0)			// On startup there's no previous state 
; 1346 : 		bPrevState = 0;			// so assign as false (unchecked)
; 1347 : 
; 1348 : 	// New check box state
; 1349 : 	BOOL bChecked=(BOOL)(((pNMListView->uNewState & LVIS_STATEIMAGEMASK)>>12)-1);   

  00029	8b 4f 14	 mov	 ecx, DWORD PTR [edi+20]
  0002c	c1 ea 0c	 shr	 edx, 12			; 0000000cH
  0002f	83 e2 0f	 and	 edx, 15			; 0000000fH
  00032	53		 push	 ebx
  00033	33 db		 xor	 ebx, ebx
  00035	83 fa 01	 cmp	 edx, 1
  00038	8d 42 ff	 lea	 eax, DWORD PTR [edx-1]
  0003b	0f 43 d8	 cmovae	 ebx, eax
  0003e	c1 e9 0c	 shr	 ecx, 12			; 0000000cH
  00041	83 e1 0f	 and	 ecx, 15			; 0000000fH

; 1350 : 	if (bChecked < 0)		// On non-checkbox notifications assume false
; 1351 : 		bChecked = 0; 
; 1352 : 
; 1353 : 	if (bPrevState == bChecked) // No change in check box

  00044	33 d2		 xor	 edx, edx
  00046	83 f9 01	 cmp	 ecx, 1
  00049	8d 41 ff	 lea	 eax, DWORD PTR [ecx-1]
  0004c	0f 43 d0	 cmovae	 edx, eax
  0004f	89 55 f4	 mov	 DWORD PTR tv547[ebp], edx
  00052	3b da		 cmp	 ebx, edx
  00054	0f 84 0d 01 00
	00		 je	 $LN34@OnItemchan

; 1354 : 		return;
; 1355 : 
; 1356 : 	if( pNMListView->iItem < 0 )

  0005a	83 7f 0c 00	 cmp	 DWORD PTR [edi+12], 0
  0005e	7d 07		 jge	 SHORT $LN9@OnItemchan

; 1357 : 		pNMListView->iItem = 0;

  00060	c7 47 0c 00 00
	00 00		 mov	 DWORD PTR [edi+12], 0
$LN9@OnItemchan:

; 1358 : 
; 1359 : 	BOOL bReCheck = FALSE;
; 1360 : 	//   Item  .
; 1361 : 	if( bPrevState == 1 && bChecked == 0 )

  00067	83 fb 01	 cmp	 ebx, 1
  0006a	0f 85 bd 00 00
	00		 jne	 $LN33@OnItemchan
  00070	85 d2		 test	 edx, edx
  00072	0f 85 b5 00 00
	00		 jne	 $LN33@OnItemchan
; File C:\Program Files (x86)\Microsoft Visual Studio\2019\Community\VC\Tools\MSVC\14.29.30133\atlmfc\include\afxcmn.inl

; 155  : 	{ ASSERT(::IsWindow(m_hWnd)); return (int) ::SendMessage(m_hWnd, LVM_GETITEMCOUNT, 0, 0L); }

  00078	52		 push	 edx
  00079	52		 push	 edx
  0007a	68 04 10 00 00	 push	 4100			; 00001004H
  0007f	ff b6 50 13 00
	00		 push	 DWORD PTR [esi+4944]
  00085	ff 15 00 00 00
	00		 call	 DWORD PTR __imp__SendMessageA@16
  0008b	8b 4d fc	 mov	 ecx, DWORD PTR _this$1$[ebp]
; File D:\git\src\IBK\IBK_DRFN\ProjSrc\SrcChartEx\ChartAddIn\ChartEnvSetupDlgAddIn\ChartEnvSetupDlgAddIn\Setting_Common_Type_A.cpp

; 1364 : 		int nChecked = 0;

  0008e	33 db		 xor	 ebx, ebx
; File C:\Program Files (x86)\Microsoft Visual Studio\2019\Community\VC\Tools\MSVC\14.29.30133\atlmfc\include\afxcmn.inl

; 155  : 	{ ASSERT(::IsWindow(m_hWnd)); return (int) ::SendMessage(m_hWnd, LVM_GETITEMCOUNT, 0, 0L); }

  00090	81 c1 30 13 00
	00		 add	 ecx, 4912		; 00001330H
  00096	33 f6		 xor	 esi, esi
  00098	89 4d f8	 mov	 DWORD PTR tv550[ebp], ecx
; File D:\git\src\IBK\IBK_DRFN\ProjSrc\SrcChartEx\ChartAddIn\ChartEnvSetupDlgAddIn\ChartEnvSetupDlgAddIn\Setting_Common_Type_A.cpp

; 1365 : 		for( int nItem = 0 ; nItem < nCount ; nItem++ )

  0009b	85 c0		 test	 eax, eax
  0009d	7e 19		 jle	 SHORT $LN28@OnItemchan
  0009f	8b f8		 mov	 edi, eax
$LL4@OnItemchan:

; 1366 : 		{
; 1367 : 			if( m_lstComposition.GetCheck( nItem ) == TRUE )

  000a1	56		 push	 esi
  000a2	e8 00 00 00 00	 call	 ?GetCheck@CListCtrl@@QBEHH@Z ; CListCtrl::GetCheck
  000a7	83 f8 01	 cmp	 eax, 1
  000aa	75 01		 jne	 SHORT $LN2@OnItemchan

; 1368 : 				nChecked++;

  000ac	43		 inc	 ebx
$LN2@OnItemchan:

; 1365 : 		for( int nItem = 0 ; nItem < nCount ; nItem++ )

  000ad	8b 4d f8	 mov	 ecx, DWORD PTR tv550[ebp]
  000b0	46		 inc	 esi
  000b1	3b f7		 cmp	 esi, edi
  000b3	7c ec		 jl	 SHORT $LL4@OnItemchan
  000b5	8b 7d 08	 mov	 edi, DWORD PTR _pNMHDR$[ebp]
$LN28@OnItemchan:

; 1369 : 		}
; 1370 : 
; 1371 : 		m_pIGraphInfo->SetSubGraphShowFlag( pNMListView->iItem, FALSE);

  000b8	8b 75 fc	 mov	 esi, DWORD PTR _this$1$[ebp]
  000bb	6a 00		 push	 0
  000bd	ff 77 0c	 push	 DWORD PTR [edi+12]
  000c0	8b 8e c4 00 00
	00		 mov	 ecx, DWORD PTR [esi+196]
  000c6	8b 01		 mov	 eax, DWORD PTR [ecx]
  000c8	ff 50 38	 call	 DWORD PTR [eax+56]

; 1372 : 		if( nChecked < 1 )

  000cb	83 fb 01	 cmp	 ebx, 1
  000ce	7d 5d		 jge	 SHORT $LN33@OnItemchan

; 1373 : 		{
; 1374 : // 2008.01.25 by LYH >>
; 1375 : 			//AfxMessageBox("     .");
; 1376 : 			AfxMessageBox(m_strMsgExistMin);

  000d0	6a 00		 push	 0
  000d2	6a 00		 push	 0
  000d4	ff b6 e4 00 00
	00		 push	 DWORD PTR [esi+228]
  000da	e8 00 00 00 00	 call	 ?AfxMessageBox@@YGHPBDII@Z ; AfxMessageBox

; 1377 : // 2008.01.25 by LYH <<
; 1378 : 			m_lstComposition.SetCheck( pNMListView->iItem );

  000df	6a 01		 push	 1
  000e1	ff 77 0c	 push	 DWORD PTR [edi+12]
  000e4	8d 8e 30 13 00
	00		 lea	 ecx, DWORD PTR [esi+4912]
  000ea	e8 00 00 00 00	 call	 ?SetCheck@CListCtrl@@QAEHHH@Z ; CListCtrl::SetCheck

; 1379 : 			m_pIGraphInfo->SetSubGraphShowFlag( pNMListView->iItem, TRUE);

  000ef	8b 8e c4 00 00
	00		 mov	 ecx, DWORD PTR [esi+196]
  000f5	6a 01		 push	 1
  000f7	ff 77 0c	 push	 DWORD PTR [edi+12]
  000fa	8b 01		 mov	 eax, DWORD PTR [ecx]
  000fc	ff 50 38	 call	 DWORD PTR [eax+56]
; File C:\Program Files (x86)\Microsoft Visual Studio\2019\Community\VC\Tools\MSVC\14.29.30133\atlmfc\include\afxcmn2.inl

; 121  : 	{ ASSERT(::IsWindow(m_hWnd)); return (int) ::SendMessage(m_hWnd, LVM_SETHOTITEM, (WPARAM) iIndex, 0); }

  000ff	6a 00		 push	 0
  00101	ff 77 0c	 push	 DWORD PTR [edi+12]
  00104	68 3c 10 00 00	 push	 4156			; 0000103cH
  00109	ff b6 50 13 00
	00		 push	 DWORD PTR [esi+4944]
  0010f	ff 15 00 00 00
	00		 call	 DWORD PTR __imp__SendMessageA@16
; File D:\git\src\IBK\IBK_DRFN\ProjSrc\SrcChartEx\ChartAddIn\ChartEnvSetupDlgAddIn\ChartEnvSetupDlgAddIn\Setting_Common_Type_A.cpp

; 1382 : 			OnApplySubGraphData();

  00115	8b ce		 mov	 ecx, esi
  00117	e8 00 00 00 00	 call	 ?OnApplySubGraphData@CSetting_Common_Type_A@@AAEXXZ ; CSetting_Common_Type_A::OnApplySubGraphData

; 1383 : 			Initial_SubGraphData( pNMListView->iItem );

  0011c	ff 77 0c	 push	 DWORD PTR [edi+12]
  0011f	8b ce		 mov	 ecx, esi
  00121	e8 00 00 00 00	 call	 ?Initial_SubGraphData@CSetting_Common_Type_A@@AAEXH@Z ; CSetting_Common_Type_A::Initial_SubGraphData

; 1384 : 			bReCheck = TRUE;

  00126	bb 01 00 00 00	 mov	 ebx, 1
  0012b	eb 02		 jmp	 SHORT $LN12@OnItemchan
$LN33@OnItemchan:

; 1385 : 		}
; 1386 : 	}
; 1387 : 
; 1388 : 	if(!m_bInitComplite)

  0012d	33 db		 xor	 ebx, ebx
$LN12@OnItemchan:
  0012f	83 be d8 14 00
	00 00		 cmp	 DWORD PTR [esi+5336], 0
  00136	75 2f		 jne	 SHORT $LN34@OnItemchan

; 1389 : 	{
; 1390 : 		//  
; 1391 : 		if(bChecked) m_pIGraphInfo->SetSubGraphShowFlag( pNMListView->iItem, TRUE);

  00138	83 7d f4 00	 cmp	 DWORD PTR tv547[ebp], 0
  0013c	8b 8e c4 00 00
	00		 mov	 ecx, DWORD PTR [esi+196]
  00142	8b 57 0c	 mov	 edx, DWORD PTR [edi+12]
  00145	8b 01		 mov	 eax, DWORD PTR [ecx]
  00147	74 04		 je	 SHORT $LN14@OnItemchan
  00149	6a 01		 push	 1
  0014b	eb 02		 jmp	 SHORT $LN36@OnItemchan
$LN14@OnItemchan:

; 1392 : 		//  
; 1393 : 		else m_pIGraphInfo->SetSubGraphShowFlag( pNMListView->iItem, FALSE);

  0014d	6a 00		 push	 0
$LN36@OnItemchan:

; 1394 : 
; 1395 : 		if( bReCheck) m_pIGraphInfo->SetSubGraphShowFlag( pNMListView->iItem, TRUE);

  0014f	52		 push	 edx
  00150	ff 50 38	 call	 DWORD PTR [eax+56]
  00153	85 db		 test	 ebx, ebx
  00155	74 10		 je	 SHORT $LN34@OnItemchan
  00157	8b 8e c4 00 00
	00		 mov	 ecx, DWORD PTR [esi+196]
  0015d	6a 01		 push	 1
  0015f	ff 77 0c	 push	 DWORD PTR [edi+12]
  00162	8b 01		 mov	 eax, DWORD PTR [ecx]
  00164	ff 50 38	 call	 DWORD PTR [eax+56]
$LN34@OnItemchan:
  00167	5b		 pop	 ebx
$LN16@OnItemchan:
  00168	5f		 pop	 edi

; 1396 : 	}
; 1397 : }

  00169	5e		 pop	 esi
  0016a	8b e5		 mov	 esp, ebp
  0016c	5d		 pop	 ebp
  0016d	c2 08 00	 ret	 8
?OnItemchangedListComposition@CSetting_Common_Type_A@@IAEXPAUtagNMHDR@@PAJ@Z ENDP ; CSetting_Common_Type_A::OnItemchangedListComposition
_TEXT	ENDS
; Function compile flags: /Ogtp
; File D:\git\src\IBK\IBK_DRFN\ProjSrc\SrcChartEx\ChartAddIn\ChartEnvSetupDlgAddIn\ChartEnvSetupDlgAddIn\Setting_Common_Type_A.cpp
; File D:\git\src\IBK\IBK_DRFN\ProjSrc\SrcChartEx\ChartAddIn\ChartEnvSetupDlgAddIn\Include_AddIn_135914\I135914\_IString.h
; File D:\git\src\IBK\IBK_DRFN\ProjSrc\SrcChartEx\ChartAddIn\ChartEnvSetupDlgAddIn\ChartEnvSetupDlgAddIn\Setting_Common_Type_A.cpp
; File D:\git\src\IBK\IBK_DRFN\ProjSrc\SrcChartEx\ChartAddIn\ChartEnvSetupDlgAddIn\Include_AddIn_135914\I135914\_IString.h
; File C:\Program Files (x86)\Microsoft Visual Studio\2019\Community\VC\Tools\MSVC\14.29.30133\atlmfc\include\afxwin2.inl
; File C:\Program Files (x86)\Microsoft Visual Studio\2019\Community\VC\Tools\MSVC\14.29.30133\atlmfc\include\afxdlgs.h
; File D:\git\src\IBK\IBK_DRFN\ProjSrc\SrcChartEx\ChartAddIn\ChartEnvSetupDlgAddIn\ChartEnvSetupDlgAddIn\Setting_Common_Type_A.cpp
;	COMDAT ?OnBtnCompositionColor@CSetting_Common_Type_A@@IAEXXZ
_TEXT	SEGMENT
_color$ = -232						; size = 208
_szGraphName$2 = -24					; size = 8
$T3 = -16						; size = 4
$T4 = -16						; size = 4
__$EHRec$ = -12						; size = 12
?OnBtnCompositionColor@CSetting_Common_Type_A@@IAEXXZ PROC ; CSetting_Common_Type_A::OnBtnCompositionColor, COMDAT
; _this$ = ecx

; 1183 : {

  00000	55		 push	 ebp
  00001	8b ec		 mov	 ebp, esp
  00003	6a ff		 push	 -1
  00005	68 00 00 00 00	 push	 __ehhandler$?OnBtnCompositionColor@CSetting_Common_Type_A@@IAEXXZ
  0000a	64 a1 00 00 00
	00		 mov	 eax, DWORD PTR fs:0
  00010	50		 push	 eax
  00011	81 ec dc 00 00
	00		 sub	 esp, 220		; 000000dcH
  00017	53		 push	 ebx
  00018	56		 push	 esi
  00019	57		 push	 edi
  0001a	a1 00 00 00 00	 mov	 eax, DWORD PTR ___security_cookie
  0001f	33 c5		 xor	 eax, ebp
  00021	50		 push	 eax
  00022	8d 45 f4	 lea	 eax, DWORD PTR __$EHRec$[ebp]
  00025	64 a3 00 00 00
	00		 mov	 DWORD PTR fs:0, eax
  0002b	8b f1		 mov	 esi, ecx

; 1184 : 	// TODO: Add your control notification handler code here
; 1185 : 	if(m_nSubGraphIndex < 0) return;

  0002d	83 be cc 14 00
	00 00		 cmp	 DWORD PTR [esi+5324], 0
  00034	0f 8c 89 01 00
	00		 jl	 $LN24@OnBtnCompo

; 1186 : 	
; 1187 : 	COLORREF crColor = m_btnComositionColor.GetColor();

  0003a	8d 8e a8 12 00
	00		 lea	 ecx, DWORD PTR [esi+4776]
  00040	e8 00 00 00 00	 call	 ?GetColor@CColorButton@@QAEKXZ ; CColorButton::GetColor

; 1188 : 	CColorDialog color(crColor, CC_FULLOPEN);

  00045	6a 00		 push	 0
  00047	6a 02		 push	 2
  00049	50		 push	 eax
  0004a	8d 8d 18 ff ff
	ff		 lea	 ecx, DWORD PTR _color$[ebp]
  00050	e8 00 00 00 00	 call	 ??0CColorDialog@@QAE@KKPAVCWnd@@@Z ; CColorDialog::CColorDialog

; 1189 : 	if(color.DoModal() == IDOK) 

  00055	8d 8d 18 ff ff
	ff		 lea	 ecx, DWORD PTR _color$[ebp]
  0005b	c7 45 fc 00 00
	00 00		 mov	 DWORD PTR __$EHRec$[ebp+8], 0
  00062	e8 00 00 00 00	 call	 ?DoModal@CColorDialog@@UAEHXZ ; CColorDialog::DoModal
  00067	83 f8 01	 cmp	 eax, 1
  0006a	0f 85 3e 01 00
	00		 jne	 $LN3@OnBtnCompo

; 1190 : 	{
; 1191 : 		//   ""       .
; 1192 : 		if( m_pIGraphInfo->GetSubGraphStyle( m_nSubGraphIndex) ==  CGraphBaseData::FillLine )

  00070	8b 8e c4 00 00
	00		 mov	 ecx, DWORD PTR [esi+196]
  00076	ff b6 cc 14 00
	00		 push	 DWORD PTR [esi+5324]
  0007c	8b 01		 mov	 eax, DWORD PTR [ecx]
  0007e	ff 50 54	 call	 DWORD PTR [eax+84]
  00081	8b 8e c4 00 00
	00		 mov	 ecx, DWORD PTR [esi+196]
  00087	8b be cc 14 00
	00		 mov	 edi, DWORD PTR [esi+5324]
  0008d	ff 75 cc	 push	 DWORD PTR _color$[ebp+180]
  00090	8b 11		 mov	 edx, DWORD PTR [ecx]
  00092	83 f8 01	 cmp	 eax, 1
  00095	75 20		 jne	 SHORT $LN4@OnBtnCompo

; 1193 : 		{
; 1194 : 			m_pIGraphInfo->SetSubGraphColor( m_nSubGraphIndex, 5, color.GetColor());

  00097	6a 05		 push	 5
  00099	57		 push	 edi
  0009a	ff 52 6c	 call	 DWORD PTR [edx+108]

; 1195 : 			m_btnComositionColor.SetColor( color.GetColor());

  0009d	8b 45 cc	 mov	 eax, DWORD PTR _color$[ebp+180]
  000a0	8d 8e a8 12 00
	00		 lea	 ecx, DWORD PTR [esi+4776]
  000a6	89 45 f0	 mov	 DWORD PTR $T4[ebp], eax
  000a9	8d 45 f0	 lea	 eax, DWORD PTR $T4[ebp]
  000ac	50		 push	 eax
  000ad	e8 00 00 00 00	 call	 ?SetColor@CColorButton@@QAEXABK@Z ; CColorButton::SetColor

; 1196 : 		}		

  000b2	e9 e7 00 00 00	 jmp	 $LN15@OnBtnCompo
$LN4@OnBtnCompo:

; 1197 : 		else
; 1198 : 		{
; 1199 : 			m_pIGraphInfo->SetSubGraphColor( m_nSubGraphIndex, 1, color.GetColor());

  000b7	6a 01		 push	 1
  000b9	57		 push	 edi
  000ba	ff 52 6c	 call	 DWORD PTR [edx+108]

; 1200 : 
; 1201 : 			// Fill.
; 1202 : 			m_pIGraphInfo->SetSubGraphColor( m_nSubGraphIndex, 2, color.GetColor());

  000bd	8b 8e c4 00 00
	00		 mov	 ecx, DWORD PTR [esi+196]
  000c3	ff 75 cc	 push	 DWORD PTR _color$[ebp+180]
  000c6	6a 02		 push	 2
  000c8	8b 01		 mov	 eax, DWORD PTR [ecx]
  000ca	ff b6 cc 14 00
	00		 push	 DWORD PTR [esi+5324]
  000d0	ff 50 6c	 call	 DWORD PTR [eax+108]

; 1204 : 			ILPCSTR szGraphName = m_pIGraphInfo->GetGraphNameString();

  000d3	8b 8e c4 00 00
	00		 mov	 ecx, DWORD PTR [esi+196]
  000d9	8b 01		 mov	 eax, DWORD PTR [ecx]
  000db	ff 90 a0 00 00
	00		 call	 DWORD PTR [eax+160]
; File D:\git\src\IBK\IBK_DRFN\ProjSrc\SrcChartEx\ChartAddIn\ChartEnvSetupDlgAddIn\Include_AddIn_135914\I135914\_IString.h

; 39   : 		m_pIStrData = p_pIString;	// Do not AddRef(). Because It must be Return Value.

  000e1	8b f8		 mov	 edi, eax
  000e3	89 7d ec	 mov	 DWORD PTR _szGraphName$2[ebp+4], edi

; 40   : 		if( m_pIStrData) m_szData = m_pIStrData->GetData();

  000e6	85 ff		 test	 edi, edi
  000e8	74 0b		 je	 SHORT $LN11@OnBtnCompo
  000ea	8b 17		 mov	 edx, DWORD PTR [edi]
  000ec	8b cf		 mov	 ecx, edi
  000ee	ff 52 10	 call	 DWORD PTR [edx+16]
  000f1	8b c8		 mov	 ecx, eax
  000f3	eb 02		 jmp	 SHORT $LN31@OnBtnCompo
$LN11@OnBtnCompo:

; 41   : 		else m_szData = NULL;

  000f5	33 c9		 xor	 ecx, ecx
$LN31@OnBtnCompo:
; File D:\git\src\IBK\IBK_DRFN\ProjSrc\SrcChartEx\ChartAddIn\ChartEnvSetupDlgAddIn\ChartEnvSetupDlgAddIn\Setting_Common_Type_A.cpp

; 1204 : 			ILPCSTR szGraphName = m_pIGraphInfo->GetGraphNameString();

  000f7	89 4d e8	 mov	 DWORD PTR _szGraphName$2[ebp], ecx

; 1205 : 			if(!strcmp( szGraphName,  _MTEXT( C2_LINE_PRICE_MA )))

  000fa	a1 54 00 00 00	 mov	 eax, DWORD PTR ?g_iMetaTable@@3VIMetaTable@@A+84
  000ff	c6 45 fc 01	 mov	 BYTE PTR __$EHRec$[ebp+8], 1
  00103	8b 80 40 0d 00
	00		 mov	 eax, DWORD PTR [eax+3392]
  00109	0f 1f 80 00 00
	00 00		 npad	 7
$LL26@OnBtnCompo:
  00110	8a 11		 mov	 dl, BYTE PTR [ecx]
  00112	3a 10		 cmp	 dl, BYTE PTR [eax]
  00114	75 1a		 jne	 SHORT $LN27@OnBtnCompo
  00116	84 d2		 test	 dl, dl
  00118	74 12		 je	 SHORT $LN28@OnBtnCompo
  0011a	8a 51 01	 mov	 dl, BYTE PTR [ecx+1]
  0011d	3a 50 01	 cmp	 dl, BYTE PTR [eax+1]
  00120	75 0e		 jne	 SHORT $LN27@OnBtnCompo
  00122	83 c1 02	 add	 ecx, 2
  00125	83 c0 02	 add	 eax, 2
  00128	84 d2		 test	 dl, dl
  0012a	75 e4		 jne	 SHORT $LL26@OnBtnCompo
$LN28@OnBtnCompo:
  0012c	33 c0		 xor	 eax, eax
  0012e	eb 05		 jmp	 SHORT $LN29@OnBtnCompo
$LN27@OnBtnCompo:
  00130	1b c0		 sbb	 eax, eax
  00132	83 c8 01	 or	 eax, 1
$LN29@OnBtnCompo:
  00135	85 c0		 test	 eax, eax
  00137	75 42		 jne	 SHORT $LN6@OnBtnCompo

; 1206 : 			{
; 1207 : 				m_pIGraphInfo->SetSubGraphColor( m_nSubGraphIndex, 3, color.GetColor());

  00139	8b 8e c4 00 00
	00		 mov	 ecx, DWORD PTR [esi+196]
  0013f	ff 75 cc	 push	 DWORD PTR _color$[ebp+180]
  00142	6a 03		 push	 3
  00144	8b 01		 mov	 eax, DWORD PTR [ecx]
  00146	ff b6 cc 14 00
	00		 push	 DWORD PTR [esi+5324]
  0014c	ff 50 6c	 call	 DWORD PTR [eax+108]

; 1208 : 				m_pIGraphInfo->SetSubGraphColor( m_nSubGraphIndex, 5, color.GetColor());

  0014f	8b 8e c4 00 00
	00		 mov	 ecx, DWORD PTR [esi+196]
  00155	ff 75 cc	 push	 DWORD PTR _color$[ebp+180]
  00158	6a 05		 push	 5
  0015a	8b 01		 mov	 eax, DWORD PTR [ecx]
  0015c	ff b6 cc 14 00
	00		 push	 DWORD PTR [esi+5324]
  00162	ff 50 6c	 call	 DWORD PTR [eax+108]

; 1209 : 				m_pIGraphInfo->SetSubGraphColor( m_nSubGraphIndex, 6, color.GetColor());

  00165	8b 8e c4 00 00
	00		 mov	 ecx, DWORD PTR [esi+196]
  0016b	ff 75 cc	 push	 DWORD PTR _color$[ebp+180]
  0016e	6a 06		 push	 6
  00170	8b 01		 mov	 eax, DWORD PTR [ecx]
  00172	ff b6 cc 14 00
	00		 push	 DWORD PTR [esi+5324]
  00178	ff 50 6c	 call	 DWORD PTR [eax+108]
$LN6@OnBtnCompo:

; 1210 : 			}
; 1211 : 			m_btnComositionColor.SetColor( color.GetColor());

  0017b	8b 45 cc	 mov	 eax, DWORD PTR _color$[ebp+180]
  0017e	8d 8e a8 12 00
	00		 lea	 ecx, DWORD PTR [esi+4776]
  00184	89 45 f0	 mov	 DWORD PTR $T3[ebp], eax
  00187	8d 45 f0	 lea	 eax, DWORD PTR $T3[ebp]
  0018a	50		 push	 eax
  0018b	e8 00 00 00 00	 call	 ?SetColor@CColorButton@@QAEXABK@Z ; CColorButton::SetColor
; File D:\git\src\IBK\IBK_DRFN\ProjSrc\SrcChartEx\ChartAddIn\ChartEnvSetupDlgAddIn\Include_AddIn_135914\I135914\_IString.h

; 44   : 	{

  00190	c6 45 fc 02	 mov	 BYTE PTR __$EHRec$[ebp+8], 2

; 45   : 		if( m_pIStrData)

  00194	85 ff		 test	 edi, edi
  00196	74 06		 je	 SHORT $LN15@OnBtnCompo

; 46   : 		{
; 47   : 			m_pIStrData->Release();

  00198	8b 07		 mov	 eax, DWORD PTR [edi]
  0019a	57		 push	 edi
  0019b	ff 50 08	 call	 DWORD PTR [eax+8]
$LN15@OnBtnCompo:
; File C:\Program Files (x86)\Microsoft Visual Studio\2019\Community\VC\Tools\MSVC\14.29.30133\atlmfc\include\afxwin2.inl

; 114  : 	{ ASSERT(::IsWindow(m_hWnd)); ::InvalidateRect(m_hWnd, NULL, bErase); }

  0019e	6a 01		 push	 1
  001a0	6a 00		 push	 0
  001a2	ff b6 c8 12 00
	00		 push	 DWORD PTR [esi+4808]
  001a8	ff 15 00 00 00
	00		 call	 DWORD PTR __imp__InvalidateRect@12
$LN3@OnBtnCompo:
; File C:\Program Files (x86)\Microsoft Visual Studio\2019\Community\VC\Tools\MSVC\14.29.30133\atlmfc\include\afxdlgs.h

; 110  :     virtual ~CCommonDialog() {};

  001ae	8d 8d 18 ff ff
	ff		 lea	 ecx, DWORD PTR _color$[ebp]
  001b4	c7 85 18 ff ff
	ff 00 00 00 00	 mov	 DWORD PTR _color$[ebp], OFFSET ??_7CCommonDialog@@6B@
  001be	e8 00 00 00 00	 call	 ??1CDialog@@UAE@XZ	; CDialog::~CDialog
$LN24@OnBtnCompo:
; File D:\git\src\IBK\IBK_DRFN\ProjSrc\SrcChartEx\ChartAddIn\ChartEnvSetupDlgAddIn\ChartEnvSetupDlgAddIn\Setting_Common_Type_A.cpp

; 1216 : }

  001c3	8b 4d f4	 mov	 ecx, DWORD PTR __$EHRec$[ebp]
  001c6	64 89 0d 00 00
	00 00		 mov	 DWORD PTR fs:0, ecx
  001cd	59		 pop	 ecx
  001ce	5f		 pop	 edi
  001cf	5e		 pop	 esi
  001d0	5b		 pop	 ebx
  001d1	8b e5		 mov	 esp, ebp
  001d3	5d		 pop	 ebp
  001d4	c3		 ret	 0
_TEXT	ENDS
;	COMDAT text$x
text$x	SEGMENT
__unwindfunclet$?OnBtnCompositionColor@CSetting_Common_Type_A@@IAEXXZ$0:
  00000	8d 8d 18 ff ff
	ff		 lea	 ecx, DWORD PTR _color$[ebp]
  00006	e9 00 00 00 00	 jmp	 ??1CColorDialog@@UAE@XZ
__unwindfunclet$?OnBtnCompositionColor@CSetting_Common_Type_A@@IAEXXZ$1:
  0000b	8d 4d e8	 lea	 ecx, DWORD PTR _szGraphName$2[ebp]
  0000e	e9 00 00 00 00	 jmp	 ??1ILPCSTR135914@@QAE@XZ ; ILPCSTR135914::~ILPCSTR135914
  00013	cc		 int	 3
  00014	cc		 int	 3
  00015	cc		 int	 3
  00016	cc		 int	 3
  00017	cc		 int	 3
__ehhandler$?OnBtnCompositionColor@CSetting_Common_Type_A@@IAEXXZ:
  00018	90		 npad	 1
  00019	90		 npad	 1
  0001a	8b 54 24 08	 mov	 edx, DWORD PTR [esp+8]
  0001e	8d 42 0c	 lea	 eax, DWORD PTR [edx+12]
  00021	8b 8a 14 ff ff
	ff		 mov	 ecx, DWORD PTR [edx-236]
  00027	33 c8		 xor	 ecx, eax
  00029	e8 00 00 00 00	 call	 @__security_check_cookie@4
  0002e	b8 00 00 00 00	 mov	 eax, OFFSET __ehfuncinfo$?OnBtnCompositionColor@CSetting_Common_Type_A@@IAEXXZ
  00033	e9 00 00 00 00	 jmp	 ___CxxFrameHandler3
text$x	ENDS
?OnBtnCompositionColor@CSetting_Common_Type_A@@IAEXXZ ENDP ; CSetting_Common_Type_A::OnBtnCompositionColor
; Function compile flags: /Ogtp
; File D:\git\src\IBK\IBK_DRFN\ProjSrc\SrcChartEx\ChartAddIn\ChartEnvSetupDlgAddIn\ChartEnvSetupDlgAddIn\Setting_Common_Type_A.cpp
; File C:\Program Files (x86)\Microsoft Visual Studio\2019\Community\VC\Tools\MSVC\14.29.30133\atlmfc\include\afxcmn.inl
; File C:\Program Files (x86)\Microsoft Visual Studio\2019\Community\VC\Tools\MSVC\14.29.30133\atlmfc\include\afxcmn2.inl
; File C:\Program Files (x86)\Microsoft Visual Studio\2019\Community\VC\Tools\MSVC\14.29.30133\atlmfc\include\afxwin2.inl
; File D:\git\src\IBK\IBK_DRFN\ProjSrc\SrcChartEx\ChartAddIn\ChartEnvSetupDlgAddIn\ChartEnvSetupDlgAddIn\Setting_Common_Type_A.cpp
; File C:\Program Files (x86)\Microsoft Visual Studio\2019\Community\VC\Tools\MSVC\14.29.30133\atlmfc\include\afxwin2.inl
; File D:\git\src\IBK\IBK_DRFN\ProjSrc\SrcChartEx\ChartAddIn\ChartEnvSetupDlgAddIn\ChartEnvSetupDlgAddIn\Setting_Common_Type_A.cpp
; File C:\Program Files (x86)\Microsoft Visual Studio\2019\Community\VC\Tools\MSVC\14.29.30133\atlmfc\include\afxwin2.inl
; File D:\git\src\IBK\IBK_DRFN\ProjSrc\SrcChartEx\ChartAddIn\ChartEnvSetupDlgAddIn\ChartEnvSetupDlgAddIn\Setting_Common_Type_A.cpp
; File C:\Program Files (x86)\Microsoft Visual Studio\2019\Community\VC\Tools\MSVC\14.29.30133\atlmfc\include\afxwin2.inl
; File D:\git\src\IBK\IBK_DRFN\ProjSrc\SrcChartEx\ChartAddIn\ChartEnvSetupDlgAddIn\ChartEnvSetupDlgAddIn\Setting_Common_Type_A.cpp
; File C:\Program Files (x86)\Microsoft Visual Studio\2019\Community\VC\Tools\MSVC\14.29.30133\atlmfc\include\afxwin2.inl
; File D:\git\src\IBK\IBK_DRFN\ProjSrc\SrcChartEx\ChartAddIn\ChartEnvSetupDlgAddIn\ChartEnvSetupDlgAddIn\Setting_Common_Type_A.cpp
; File C:\Program Files (x86)\Microsoft Visual Studio\2019\Community\VC\Tools\MSVC\14.29.30133\atlmfc\include\afxwin2.inl
; File D:\git\src\IBK\IBK_DRFN\ProjSrc\SrcChartEx\ChartAddIn\ChartEnvSetupDlgAddIn\ChartEnvSetupDlgAddIn\Setting_Common_Type_A.cpp
;	COMDAT ?OnInitDialog@CSetting_Common_Type_A@@MAEHXZ
_TEXT	SEGMENT
_strResult$ = -28					; size = 4
_strStdHL$ = -24					; size = 4
_strStdHLC$ = -20					; size = 4
_strType$ = -16						; size = 4
__$EHRec$ = -12						; size = 12
?OnInitDialog@CSetting_Common_Type_A@@MAEHXZ PROC	; CSetting_Common_Type_A::OnInitDialog, COMDAT
; _this$ = ecx

; 127  : {

  00000	55		 push	 ebp
  00001	8b ec		 mov	 ebp, esp
  00003	6a ff		 push	 -1
  00005	68 00 00 00 00	 push	 __ehhandler$?OnInitDialog@CSetting_Common_Type_A@@MAEHXZ
  0000a	64 a1 00 00 00
	00		 mov	 eax, DWORD PTR fs:0
  00010	50		 push	 eax
  00011	83 ec 14	 sub	 esp, 20			; 00000014H
  00014	56		 push	 esi
  00015	57		 push	 edi
  00016	a1 00 00 00 00	 mov	 eax, DWORD PTR ___security_cookie
  0001b	33 c5		 xor	 eax, ebp
  0001d	50		 push	 eax
  0001e	8d 45 f4	 lea	 eax, DWORD PTR __$EHRec$[ebp]
  00021	64 a3 00 00 00
	00		 mov	 DWORD PTR fs:0, eax
  00027	8b f9		 mov	 edi, ecx

; 128  : 	CDialog::OnInitDialog();

  00029	e8 00 00 00 00	 call	 ?OnInitDialog@CDialog@@UAEHXZ ; CDialog::OnInitDialog

; 129  : 	
; 130  : 	// 1.  Column 
; 131  : 	m_lstComposition.InsertColumn( 0, "", LVCFMT_LEFT, 100 );

  0002e	6a ff		 push	 -1
  00030	6a 64		 push	 100			; 00000064H
  00032	6a 00		 push	 0
  00034	68 00 00 00 00	 push	 OFFSET ??_C@_00CNPNBAHC@@
  00039	6a 00		 push	 0
  0003b	8d 8f 30 13 00
	00		 lea	 ecx, DWORD PTR [edi+4912]
  00041	e8 00 00 00 00	 call	 ?InsertColumn@CListCtrl@@QAEHHPBDHHH@Z ; CListCtrl::InsertColumn
; File C:\Program Files (x86)\Microsoft Visual Studio\2019\Community\VC\Tools\MSVC\14.29.30133\atlmfc\include\afxcmn.inl

; 215  : 	{ ASSERT(::IsWindow(m_hWnd)); return (BOOL) ::SendMessage(m_hWnd, LVM_SETCOLUMNWIDTH, nCol, MAKELPARAM(cx, 0)); }

  00046	8b 35 00 00 00
	00		 mov	 esi, DWORD PTR __imp__SendMessageA@16
  0004c	68 fe ff 00 00	 push	 65534			; 0000fffeH
  00051	6a 00		 push	 0
  00053	68 1e 10 00 00	 push	 4126			; 0000101eH
  00058	ff b7 50 13 00
	00		 push	 DWORD PTR [edi+4944]
  0005e	ff d6		 call	 esi
; File C:\Program Files (x86)\Microsoft Visual Studio\2019\Community\VC\Tools\MSVC\14.29.30133\atlmfc\include\afxcmn2.inl

; 117  : 	{ ASSERT(::IsWindow(m_hWnd)); return (DWORD) ::SendMessage(m_hWnd, LVM_SETEXTENDEDLISTVIEWSTYLE, 0, (LPARAM) dwNewStyle); }

  00060	6a 24		 push	 36			; 00000024H
  00062	6a 00		 push	 0
  00064	68 36 10 00 00	 push	 4150			; 00001036H
  00069	ff b7 50 13 00
	00		 push	 DWORD PTR [edi+4944]
  0006f	ff d6		 call	 esi
; File C:\Program Files (x86)\Microsoft Visual Studio\2019\Community\VC\Tools\MSVC\14.29.30133\atlmfc\include\afxwin2.inl

; 801  : 	{ ASSERT(::IsWindow(m_hWnd)); ::SendMessage(m_hWnd, CB_RESETCONTENT, 0, 0); }

  00071	6a 00		 push	 0
  00073	6a 00		 push	 0
  00075	68 4b 01 00 00	 push	 331			; 0000014bH
  0007a	ff b7 48 12 00
	00		 push	 DWORD PTR [edi+4680]
  00080	ff d6		 call	 esi
; File D:\git\src\IBK\IBK_DRFN\ProjSrc\SrcChartEx\ChartAddIn\ChartEnvSetupDlgAddIn\ChartEnvSetupDlgAddIn\Setting_Common_Type_A.cpp

; 136  : 	m_cmbData.AddString( _LTEXT0( C0_OPEN));

  00082	a1 54 00 00 00	 mov	 eax, DWORD PTR ?g_iMetaTable@@3VIMetaTable@@A+84
  00087	b9 00 00 00 00	 mov	 ecx, OFFSET ?g_iMetaTable@@3VIMetaTable@@A ; g_iMetaTable
  0008c	6a 00		 push	 0
  0008e	ff 70 08	 push	 DWORD PTR [eax+8]
  00091	6a 00		 push	 0
  00093	ff b7 d8 00 00
	00		 push	 DWORD PTR [edi+216]
  00099	e8 00 00 00 00	 call	 ?GetLanguageText@IMetaTable@@QAEPBDPAUHWND__@@W4E_CODEPAGE@1@PBDH@Z ; IMetaTable::GetLanguageText
; File C:\Program Files (x86)\Microsoft Visual Studio\2019\Community\VC\Tools\MSVC\14.29.30133\atlmfc\include\afxwin2.inl

; 795  : 	{ ASSERT(::IsWindow(m_hWnd)); return (int)::SendMessage(m_hWnd, CB_ADDSTRING, 0, (LPARAM)lpszString); }

  0009e	50		 push	 eax
  0009f	6a 00		 push	 0
  000a1	68 43 01 00 00	 push	 323			; 00000143H
  000a6	ff b7 48 12 00
	00		 push	 DWORD PTR [edi+4680]
  000ac	ff d6		 call	 esi
; File D:\git\src\IBK\IBK_DRFN\ProjSrc\SrcChartEx\ChartAddIn\ChartEnvSetupDlgAddIn\ChartEnvSetupDlgAddIn\Setting_Common_Type_A.cpp

; 137  : 	m_cmbData.AddString( _LTEXT0( C0_HIGH));

  000ae	a1 54 00 00 00	 mov	 eax, DWORD PTR ?g_iMetaTable@@3VIMetaTable@@A+84
  000b3	b9 00 00 00 00	 mov	 ecx, OFFSET ?g_iMetaTable@@3VIMetaTable@@A ; g_iMetaTable
  000b8	6a 00		 push	 0
  000ba	ff 70 0c	 push	 DWORD PTR [eax+12]
  000bd	6a 00		 push	 0
  000bf	ff b7 d8 00 00
	00		 push	 DWORD PTR [edi+216]
