; Listing generated by Microsoft (R) Optimizing Compiler Version 19.29.30145.0 

	TITLE	D:\git\src\IBK\IBK_DRFN\#DRfn-CS\_Obj\ChartEnvSetupDlgAddIn\Setting_Volume.obj
	.686P
	.XMM
	include listing.inc
	.model	flat

INCLUDELIB MSVCRT
INCLUDELIB OLDNAMES

PUBLIC	??_C@_01GBGANLPD@0@				; `string'
PUBLIC	??_C@_01HIHLOKLC@1@				; `string'
PUBLIC	??_C@_01FDFGLJHB@2@				; `string'
PUBLIC	??_C@_01EKENIIDA@3@				; `string'
PUBLIC	??_C@_01FAMBOPH@4@				; `string'
PUBLIC	??_C@_01BMBHCPLG@5@				; `string'
PUBLIC	??_C@_01DHDKHMHF@6@				; `string'
PUBLIC	??_C@_01COCBENDE@7@				; `string'
PUBLIC	??_C@_01KJLJFBPL@8@				; `string'
PUBLIC	??_C@_01LAKCGALK@9@				; `string'
PUBLIC	??_C@_02PKFBJPLJ@10@				; `string'
PUBLIC	??_C@_02ODEKKOPI@11@				; `string'
PUBLIC	??_C@_02MIGHPNDL@12@				; `string'
PUBLIC	??_C@_02NBHMMMHK@13@				; `string'
PUBLIC	??_C@_02JODNFKLN@14@				; `string'
PUBLIC	??_C@_02IHCGGLPM@15@				; `string'
PUBLIC	??_C@_02KMALDIDP@16@				; `string'
PUBLIC	??_C@_02LFBAAJHO@17@				; `string'
PUBLIC	??_C@_02DCIIBFLB@18@				; `string'
PUBLIC	??_C@_02CLJDCEPA@19@				; `string'
PUBLIC	??_C@_02PIBHCBOA@20@				; `string'
PUBLIC	??_C@_02OBAMBAKB@21@				; `string'
PUBLIC	??_C@_02MKCBEDGC@22@				; `string'
PUBLIC	??_C@_02NDDKHCCD@23@				; `string'
PUBLIC	??_C@_02JMHLOEOE@24@				; `string'
;	COMDAT ??_C@_02JMHLOEOE@24@
CONST	SEGMENT
??_C@_02JMHLOEOE@24@ DB '24', 00H			; `string'
CONST	ENDS
;	COMDAT ??_C@_02NDDKHCCD@23@
CONST	SEGMENT
??_C@_02NDDKHCCD@23@ DB '23', 00H			; `string'
CONST	ENDS
;	COMDAT ??_C@_02MKCBEDGC@22@
CONST	SEGMENT
??_C@_02MKCBEDGC@22@ DB '22', 00H			; `string'
CONST	ENDS
;	COMDAT ??_C@_02OBAMBAKB@21@
CONST	SEGMENT
??_C@_02OBAMBAKB@21@ DB '21', 00H			; `string'
CONST	ENDS
;	COMDAT ??_C@_02PIBHCBOA@20@
CONST	SEGMENT
??_C@_02PIBHCBOA@20@ DB '20', 00H			; `string'
CONST	ENDS
;	COMDAT ??_C@_02CLJDCEPA@19@
CONST	SEGMENT
??_C@_02CLJDCEPA@19@ DB '19', 00H			; `string'
CONST	ENDS
;	COMDAT ??_C@_02DCIIBFLB@18@
CONST	SEGMENT
??_C@_02DCIIBFLB@18@ DB '18', 00H			; `string'
CONST	ENDS
;	COMDAT ??_C@_02LFBAAJHO@17@
CONST	SEGMENT
??_C@_02LFBAAJHO@17@ DB '17', 00H			; `string'
CONST	ENDS
;	COMDAT ??_C@_02KMALDIDP@16@
CONST	SEGMENT
??_C@_02KMALDIDP@16@ DB '16', 00H			; `string'
CONST	ENDS
;	COMDAT ??_C@_02IHCGGLPM@15@
CONST	SEGMENT
??_C@_02IHCGGLPM@15@ DB '15', 00H			; `string'
CONST	ENDS
;	COMDAT ??_C@_02JODNFKLN@14@
CONST	SEGMENT
??_C@_02JODNFKLN@14@ DB '14', 00H			; `string'
CONST	ENDS
;	COMDAT ??_C@_02NBHMMMHK@13@
CONST	SEGMENT
??_C@_02NBHMMMHK@13@ DB '13', 00H			; `string'
CONST	ENDS
;	COMDAT ??_C@_02MIGHPNDL@12@
CONST	SEGMENT
??_C@_02MIGHPNDL@12@ DB '12', 00H			; `string'
CONST	ENDS
;	COMDAT ??_C@_02ODEKKOPI@11@
CONST	SEGMENT
??_C@_02ODEKKOPI@11@ DB '11', 00H			; `string'
CONST	ENDS
;	COMDAT ??_C@_02PKFBJPLJ@10@
CONST	SEGMENT
??_C@_02PKFBJPLJ@10@ DB '10', 00H			; `string'
CONST	ENDS
;	COMDAT ??_C@_01LAKCGALK@9@
CONST	SEGMENT
??_C@_01LAKCGALK@9@ DB '9', 00H				; `string'
CONST	ENDS
;	COMDAT ??_C@_01KJLJFBPL@8@
CONST	SEGMENT
??_C@_01KJLJFBPL@8@ DB '8', 00H				; `string'
CONST	ENDS
;	COMDAT ??_C@_01COCBENDE@7@
CONST	SEGMENT
??_C@_01COCBENDE@7@ DB '7', 00H				; `string'
CONST	ENDS
;	COMDAT ??_C@_01DHDKHMHF@6@
CONST	SEGMENT
??_C@_01DHDKHMHF@6@ DB '6', 00H				; `string'
CONST	ENDS
;	COMDAT ??_C@_01BMBHCPLG@5@
CONST	SEGMENT
??_C@_01BMBHCPLG@5@ DB '5', 00H				; `string'
CONST	ENDS
;	COMDAT ??_C@_01FAMBOPH@4@
CONST	SEGMENT
??_C@_01FAMBOPH@4@ DB '4', 00H				; `string'
CONST	ENDS
;	COMDAT ??_C@_01EKENIIDA@3@
CONST	SEGMENT
??_C@_01EKENIIDA@3@ DB '3', 00H				; `string'
CONST	ENDS
;	COMDAT ??_C@_01FDFGLJHB@2@
CONST	SEGMENT
??_C@_01FDFGLJHB@2@ DB '2', 00H				; `string'
CONST	ENDS
;	COMDAT ??_C@_01HIHLOKLC@1@
CONST	SEGMENT
??_C@_01HIHLOKLC@1@ DB '1', 00H				; `string'
CONST	ENDS
;	COMDAT ??_C@_01GBGANLPD@0@
CONST	SEGMENT
??_C@_01GBGANLPD@0@ DB '0', 00H				; `string'
CONST	ENDS
PUBLIC	?__empty_global_delete@@YAXPAX@Z		; __empty_global_delete
PUBLIC	?__empty_global_delete@@YAXPAXI@Z		; __empty_global_delete
PUBLIC	?Serialize@CObject@@UAEXAAVCArchive@@@Z		; CObject::Serialize
PUBLIC	?AssertValid@CObject@@UBEXXZ			; CObject::AssertValid
PUBLIC	?Dump@CObject@@UBEXAAVCDumpContext@@@Z		; CObject::Dump
PUBLIC	?DoDataExchange@CWnd@@MAEXPAVCDataExchange@@@Z	; CWnd::DoDataExchange
PUBLIC	?BeginModalState@CWnd@@UAEXXZ			; CWnd::BeginModalState
PUBLIC	?EndModalState@CWnd@@UAEXXZ			; CWnd::EndModalState
PUBLIC	?Create@CDialog@@UAEHIPAVCWnd@@@Z		; CDialog::Create
PUBLIC	?GetCheck@CButton@@QBEHXZ			; CButton::GetCheck
PUBLIC	??_GCButton@@UAEPAXI@Z				; CButton::`scalar deleting destructor'
PUBLIC	??1CCommonDialog@@UAE@XZ			; CCommonDialog::~CCommonDialog
PUBLIC	??_GCCommonDialog@@UAEPAXI@Z			; CCommonDialog::`scalar deleting destructor'
PUBLIC	??1CColorDialog@@UAE@XZ				; CColorDialog::~CColorDialog
PUBLIC	??0CSetting_Volume@@QAE@PAUIChartOCX135914@@PAVCWnd@@1@Z ; CSetting_Volume::CSetting_Volume
PUBLIC	??1CSetting_Volume@@UAE@XZ			; CSetting_Volume::~CSetting_Volume
PUBLIC	?PreTranslateMessage@CSetting_Volume@@UAEHPAUtagMSG@@@Z ; CSetting_Volume::PreTranslateMessage
PUBLIC	?DoDataExchange@CSetting_Volume@@MAEXPAVCDataExchange@@@Z ; CSetting_Volume::DoDataExchange
PUBLIC	?Initial@CSetting_Volume@@UAEXPAUIGraphInfo135914@@@Z ; CSetting_Volume::Initial
PUBLIC	?OnApply@CSetting_Volume@@UAEHPAUIGraphInfo135914@@@Z ; CSetting_Volume::OnApply
PUBLIC	?OnApply_ColorButton@CSetting_Volume@@QAEXPAUIGraphInfo135914@@H@Z ; CSetting_Volume::OnApply_ColorButton
PUBLIC	?OnInitDialog@CSetting_Volume@@MAEHXZ		; CSetting_Volume::OnInitDialog
PUBLIC	?OnUpdownVolume@CSetting_Volume@@IAEXXZ		; CSetting_Volume::OnUpdownVolume
PUBLIC	?OnSimpleVolume@CSetting_Volume@@IAEXXZ		; CSetting_Volume::OnSimpleVolume
PUBLIC	?OnSameBong@CSetting_Volume@@IAEXXZ		; CSetting_Volume::OnSameBong
PUBLIC	?OnBtnUp@CSetting_Volume@@IAEXXZ		; CSetting_Volume::OnBtnUp
PUBLIC	?OnBtnDown@CSetting_Volume@@IAEXXZ		; CSetting_Volume::OnBtnDown
PUBLIC	?OnFill@CSetting_Volume@@IAEXXZ			; CSetting_Volume::OnFill
PUBLIC	?OnFillDown@CSetting_Volume@@IAEXXZ		; CSetting_Volume::OnFillDown
PUBLIC	?OnCheckUp@CSetting_Volume@@IAEXXZ		; CSetting_Volume::OnCheckUp
PUBLIC	?OnCheckDown@CSetting_Volume@@IAEXXZ		; CSetting_Volume::OnCheckDown
PUBLIC	?OnUpdownPrice@CSetting_Volume@@IAEXXZ		; CSetting_Volume::OnUpdownPrice
PUBLIC	?GetThisMessageMap@CSetting_Volume@@KGPBUAFX_MSGMAP@@XZ ; CSetting_Volume::GetThisMessageMap
PUBLIC	?GetMessageMap@CSetting_Volume@@MBEPBUAFX_MSGMAP@@XZ ; CSetting_Volume::GetMessageMap
PUBLIC	?Initial_ColorButton@CSetting_Volume@@AAEXPAUIGraphInfo135914@@H@Z ; CSetting_Volume::Initial_ColorButton
PUBLIC	?GetCheckToRadio@CSetting_Volume@@AAEHXZ	; CSetting_Volume::GetCheckToRadio
PUBLIC	??_GCSetting_Volume@@UAEPAXI@Z			; CSetting_Volume::`scalar deleting destructor'
PUBLIC	??1CMultiLanguageResourceSetter@@QAE@XZ		; CMultiLanguageResourceSetter::~CMultiLanguageResourceSetter
PUBLIC	??_7CButton@@6B@				; CButton::`vftable'
PUBLIC	??_7CCommonDialog@@6B@				; CCommonDialog::`vftable'
PUBLIC	??_R0?AVCObject@@@8				; CObject `RTTI Type Descriptor'
PUBLIC	??_R3CObject@@8					; CObject::`RTTI Class Hierarchy Descriptor'
PUBLIC	??_R2CObject@@8					; CObject::`RTTI Base Class Array'
PUBLIC	??_R1A@?0A@EA@CObject@@8			; CObject::`RTTI Base Class Descriptor at (0,-1,0,64)'
PUBLIC	??_R1A@?0A@EA@CWnd@@8				; CWnd::`RTTI Base Class Descriptor at (0,-1,0,64)'
PUBLIC	??_R0?AVCWnd@@@8				; CWnd `RTTI Type Descriptor'
PUBLIC	??_R3CWnd@@8					; CWnd::`RTTI Class Hierarchy Descriptor'
PUBLIC	??_R2CWnd@@8					; CWnd::`RTTI Base Class Array'
PUBLIC	??_R1A@?0A@EA@CCmdTarget@@8			; CCmdTarget::`RTTI Base Class Descriptor at (0,-1,0,64)'
PUBLIC	??_R0?AVCCmdTarget@@@8				; CCmdTarget `RTTI Type Descriptor'
PUBLIC	??_R3CCmdTarget@@8				; CCmdTarget::`RTTI Class Hierarchy Descriptor'
PUBLIC	??_R2CCmdTarget@@8				; CCmdTarget::`RTTI Base Class Array'
PUBLIC	??_R4CButton@@6B@				; CButton::`RTTI Complete Object Locator'
PUBLIC	??_R0?AVCButton@@@8				; CButton `RTTI Type Descriptor'
PUBLIC	??_R3CButton@@8					; CButton::`RTTI Class Hierarchy Descriptor'
PUBLIC	??_R2CButton@@8					; CButton::`RTTI Base Class Array'
PUBLIC	??_R1A@?0A@EA@CButton@@8			; CButton::`RTTI Base Class Descriptor at (0,-1,0,64)'
PUBLIC	??_R4CCommonDialog@@6B@				; CCommonDialog::`RTTI Complete Object Locator'
PUBLIC	??_R0?AVCCommonDialog@@@8			; CCommonDialog `RTTI Type Descriptor'
PUBLIC	??_R3CCommonDialog@@8				; CCommonDialog::`RTTI Class Hierarchy Descriptor'
PUBLIC	??_R2CCommonDialog@@8				; CCommonDialog::`RTTI Base Class Array'
PUBLIC	??_R1A@?0A@EA@CCommonDialog@@8			; CCommonDialog::`RTTI Base Class Descriptor at (0,-1,0,64)'
PUBLIC	??_R1A@?0A@EA@CDialog@@8			; CDialog::`RTTI Base Class Descriptor at (0,-1,0,64)'
PUBLIC	??_R0?AVCDialog@@@8				; CDialog `RTTI Type Descriptor'
PUBLIC	??_R3CDialog@@8					; CDialog::`RTTI Class Hierarchy Descriptor'
PUBLIC	??_R2CDialog@@8					; CDialog::`RTTI Base Class Array'
PUBLIC	??_7CSetting_Volume@@6B@			; CSetting_Volume::`vftable'
PUBLIC	??_C@_0BA@ENJOCHIO@LoadResourceDLL@		; `string'
PUBLIC	??_R4CSetting_Volume@@6B@			; CSetting_Volume::`RTTI Complete Object Locator'
PUBLIC	??_R0?AVCSetting_Volume@@@8			; CSetting_Volume `RTTI Type Descriptor'
PUBLIC	??_R3CSetting_Volume@@8				; CSetting_Volume::`RTTI Class Hierarchy Descriptor'
PUBLIC	??_R2CSetting_Volume@@8				; CSetting_Volume::`RTTI Base Class Array'
PUBLIC	??_R1A@?0A@EA@CSetting_Volume@@8		; CSetting_Volume::`RTTI Base Class Descriptor at (0,-1,0,64)'
PUBLIC	??_R1A@?0A@EA@CBaseDialog@@8			; CBaseDialog::`RTTI Base Class Descriptor at (0,-1,0,64)'
PUBLIC	??_R0?AVCBaseDialog@@@8				; CBaseDialog `RTTI Type Descriptor'
PUBLIC	??_R3CBaseDialog@@8				; CBaseDialog::`RTTI Class Hierarchy Descriptor'
PUBLIC	??_R2CBaseDialog@@8				; CBaseDialog::`RTTI Base Class Array'
PUBLIC	__real@3ff0000000000000
PUBLIC	__real@bff0000000000000
EXTRN	??3@YAXPAX@Z:PROC				; operator delete
EXTRN	?__global_delete@@YAXPAXI@Z:PROC		; __global_delete
EXTRN	___std_terminate:PROC
EXTRN	__imp__GetProcAddress@8:PROC
EXTRN	__imp__SendMessageA@16:PROC
EXTRN	__imp__EnableWindow@8:PROC
EXTRN	__imp__InvalidateRect@12:PROC
EXTRN	__imp_??0?$CStringT@DV?$StrTraitMFC_DLL@DV?$ChTraitsCRT@D@ATL@@@@@ATL@@QAE@XZ:PROC
EXTRN	__imp_??1?$CStringT@DV?$StrTraitMFC_DLL@DV?$ChTraitsCRT@D@ATL@@@@@ATL@@QAE@XZ:PROC
EXTRN	__imp_?LoadStringA@?$CStringT@DV?$StrTraitMFC_DLL@DV?$ChTraitsCRT@D@ATL@@@@@ATL@@QAEHI@Z:PROC
EXTRN	?AfxGetModuleState@@YGPAVAFX_MODULE_STATE@@XZ:PROC ; AfxGetModuleState
EXTRN	?AfxGetStaticModuleState@@YGPAVAFX_MODULE_STATE@@XZ:PROC ; AfxGetStaticModuleState
EXTRN	?DDX_Control@@YGXPAVCDataExchange@@HAAVCWnd@@@Z:PROC ; DDX_Control
EXTRN	?OnCmdMsg@CCmdTarget@@UAEHIHPAXPAUAFX_CMDHANDLERINFO@@@Z:PROC ; CCmdTarget::OnCmdMsg
EXTRN	?IsInvokeAllowed@CCmdTarget@@UAEHJ@Z:PROC	; CCmdTarget::IsInvokeAllowed
EXTRN	?GetDispatchIID@CCmdTarget@@UAEHPAU_GUID@@@Z:PROC ; CCmdTarget::GetDispatchIID
EXTRN	?GetTypeInfoCount@CCmdTarget@@UAEIXZ:PROC	; CCmdTarget::GetTypeInfoCount
EXTRN	?GetTypeLibCache@CCmdTarget@@UAEPAVCTypeLibCache@@XZ:PROC ; CCmdTarget::GetTypeLibCache
EXTRN	?GetTypeLib@CCmdTarget@@UAEJKPAPAUITypeLib@@@Z:PROC ; CCmdTarget::GetTypeLib
EXTRN	?GetCommandMap@CCmdTarget@@MBEPBUAFX_OLECMDMAP@@XZ:PROC ; CCmdTarget::GetCommandMap
EXTRN	?GetDispatchMap@CCmdTarget@@MBEPBUAFX_DISPMAP@@XZ:PROC ; CCmdTarget::GetDispatchMap
EXTRN	?GetConnectionMap@CCmdTarget@@MBEPBUAFX_CONNECTIONMAP@@XZ:PROC ; CCmdTarget::GetConnectionMap
EXTRN	?GetEventSinkMap@CCmdTarget@@MBEPBUAFX_EVENTSINKMAP@@XZ:PROC ; CCmdTarget::GetEventSinkMap
EXTRN	?OnCreateAggregates@CCmdTarget@@UAEHXZ:PROC	; CCmdTarget::OnCreateAggregates
EXTRN	?GetInterfaceHook@CCmdTarget@@UAEPAUIUnknown@@PBX@Z:PROC ; CCmdTarget::GetInterfaceHook
EXTRN	?GetExtraConnectionPoints@CCmdTarget@@MAEHPAVCPtrArray@@@Z:PROC ; CCmdTarget::GetExtraConnectionPoints
EXTRN	?GetConnectionHook@CCmdTarget@@MAEPAUIConnectionPoint@@ABU_GUID@@@Z:PROC ; CCmdTarget::GetConnectionHook
EXTRN	??0CWnd@@QAE@XZ:PROC				; CWnd::CWnd
EXTRN	?PreSubclassWindow@CWnd@@UAEXXZ:PROC		; CWnd::PreSubclassWindow
EXTRN	?Create@CWnd@@UAEHPBD0KABUtagRECT@@PAV1@IPAUCCreateContext@@@Z:PROC ; CWnd::Create
EXTRN	?CreateEx@CWnd@@UAEHKPBD0KHHHHPAUHWND__@@PAUHMENU__@@PAX@Z:PROC ; CWnd::CreateEx
EXTRN	?CreateEx@CWnd@@UAEHKPBD0KABUtagRECT@@PAV1@IPAX@Z:PROC ; CWnd::CreateEx
EXTRN	?DestroyWindow@CWnd@@UAEHXZ:PROC		; CWnd::DestroyWindow
EXTRN	?PreCreateWindow@CWnd@@UAEHAAUtagCREATESTRUCTA@@@Z:PROC ; CWnd::PreCreateWindow
EXTRN	?CalcWindowRect@CWnd@@UAEXPAUtagRECT@@I@Z:PROC	; CWnd::CalcWindowRect
EXTRN	?GetDlgItem@CWnd@@QBEPAV1@H@Z:PROC		; CWnd::GetDlgItem
EXTRN	?SetWindowTextA@CWnd@@QAEXPBD@Z:PROC		; CWnd::SetWindowTextA
EXTRN	?GetMenu@CWnd@@UBEPAVCMenu@@XZ:PROC		; CWnd::GetMenu
EXTRN	?SetMenu@CWnd@@UAEHPAVCMenu@@@Z:PROC		; CWnd::SetMenu
EXTRN	?ShowWindow@CWnd@@QAEHH@Z:PROC			; CWnd::ShowWindow
EXTRN	?OnToolHitTest@CWnd@@UBEHVCPoint@@PAUtagTOOLINFOA@@@Z:PROC ; CWnd::OnToolHitTest
EXTRN	?GetScrollBarCtrl@CWnd@@UBEPAVCScrollBar@@H@Z:PROC ; CWnd::GetScrollBarCtrl
EXTRN	?UpdateData@CWnd@@QAEHH@Z:PROC			; CWnd::UpdateData
EXTRN	?WinHelpA@CWnd@@UAEXKI@Z:PROC			; CWnd::WinHelpA
EXTRN	?HtmlHelpA@CWnd@@UAEXKI@Z:PROC			; CWnd::HtmlHelpA
EXTRN	?WinHelpInternal@CWnd@@UAEXKI@Z:PROC		; CWnd::WinHelpInternal
EXTRN	?ContinueModal@CWnd@@UAEHXZ:PROC		; CWnd::ContinueModal
EXTRN	?EndModalLoop@CWnd@@UAEXH@Z:PROC		; CWnd::EndModalLoop
EXTRN	?OnDrawIconicThumbnailOrLivePreview@CWnd@@UAEXAAVCDC@@VCRect@@VCSize@@HAAH@Z:PROC ; CWnd::OnDrawIconicThumbnailOrLivePreview
EXTRN	?GetInterfaceMap@CWnd@@MBEPBUAFX_INTERFACEMAP@@XZ:PROC ; CWnd::GetInterfaceMap
EXTRN	?EnsureStdObj@CWnd@@UAEJXZ:PROC			; CWnd::EnsureStdObj
EXTRN	?get_accParent@CWnd@@UAEJPAPAUIDispatch@@@Z:PROC ; CWnd::get_accParent
EXTRN	?get_accChildCount@CWnd@@UAEJPAJ@Z:PROC		; CWnd::get_accChildCount
EXTRN	?get_accChild@CWnd@@UAEJUtagVARIANT@@PAPAUIDispatch@@@Z:PROC ; CWnd::get_accChild
EXTRN	?get_accName@CWnd@@UAEJUtagVARIANT@@PAPA_W@Z:PROC ; CWnd::get_accName
EXTRN	?get_accValue@CWnd@@UAEJUtagVARIANT@@PAPA_W@Z:PROC ; CWnd::get_accValue
EXTRN	?get_accDescription@CWnd@@UAEJUtagVARIANT@@PAPA_W@Z:PROC ; CWnd::get_accDescription
EXTRN	?get_accRole@CWnd@@UAEJUtagVARIANT@@PAU2@@Z:PROC ; CWnd::get_accRole
EXTRN	?get_accState@CWnd@@UAEJUtagVARIANT@@PAU2@@Z:PROC ; CWnd::get_accState
EXTRN	?get_accHelp@CWnd@@UAEJUtagVARIANT@@PAPA_W@Z:PROC ; CWnd::get_accHelp
EXTRN	?get_accHelpTopic@CWnd@@UAEJPAPA_WUtagVARIANT@@PAJ@Z:PROC ; CWnd::get_accHelpTopic
EXTRN	?get_accKeyboardShortcut@CWnd@@UAEJUtagVARIANT@@PAPA_W@Z:PROC ; CWnd::get_accKeyboardShortcut
EXTRN	?get_accFocus@CWnd@@UAEJPAUtagVARIANT@@@Z:PROC	; CWnd::get_accFocus
EXTRN	?get_accSelection@CWnd@@UAEJPAUtagVARIANT@@@Z:PROC ; CWnd::get_accSelection
EXTRN	?get_accDefaultAction@CWnd@@UAEJUtagVARIANT@@PAPA_W@Z:PROC ; CWnd::get_accDefaultAction
EXTRN	?accSelect@CWnd@@UAEJJUtagVARIANT@@@Z:PROC	; CWnd::accSelect
EXTRN	?accLocation@CWnd@@UAEJPAJ000UtagVARIANT@@@Z:PROC ; CWnd::accLocation
EXTRN	?accNavigate@CWnd@@UAEJJUtagVARIANT@@PAU2@@Z:PROC ; CWnd::accNavigate
EXTRN	?accHitTest@CWnd@@UAEJJJPAUtagVARIANT@@@Z:PROC	; CWnd::accHitTest
EXTRN	?accDoDefaultAction@CWnd@@UAEJUtagVARIANT@@@Z:PROC ; CWnd::accDoDefaultAction
EXTRN	?put_accName@CWnd@@UAEJUtagVARIANT@@PA_W@Z:PROC	; CWnd::put_accName
EXTRN	?put_accValue@CWnd@@UAEJUtagVARIANT@@PA_W@Z:PROC ; CWnd::put_accValue
EXTRN	?SetProxy@CWnd@@UAEJPAUIAccessibleProxy@@@Z:PROC ; CWnd::SetProxy
EXTRN	?CreateAccessibleProxy@CWnd@@UAEJIJPAJ@Z:PROC	; CWnd::CreateAccessibleProxy
EXTRN	?OnCommand@CWnd@@MAEHIJ@Z:PROC			; CWnd::OnCommand
EXTRN	?OnNotify@CWnd@@MAEHIJPAJ@Z:PROC		; CWnd::OnNotify
EXTRN	?GetSuperWndProcAddr@CWnd@@MAEPAP6GJPAUHWND__@@IIJ@ZXZ:PROC ; CWnd::GetSuperWndProcAddr
EXTRN	?PreTranslateMessage@CWnd@@UAEHPAUtagMSG@@@Z:PROC ; CWnd::PreTranslateMessage
EXTRN	?OnAmbientProperty@CWnd@@UAEHPAVCOleControlSite@@JPAUtagVARIANT@@@Z:PROC ; CWnd::OnAmbientProperty
EXTRN	?WindowProc@CWnd@@MAEJIIJ@Z:PROC		; CWnd::WindowProc
EXTRN	?OnWndMsg@CWnd@@MAEHIIJPAJ@Z:PROC		; CWnd::OnWndMsg
EXTRN	?DefWindowProcA@CWnd@@MAEJIIJ@Z:PROC		; CWnd::DefWindowProcA
EXTRN	?PostNcDestroy@CWnd@@MAEXXZ:PROC		; CWnd::PostNcDestroy
EXTRN	?OnChildNotify@CWnd@@MAEHIIJPAJ@Z:PROC		; CWnd::OnChildNotify
EXTRN	?OnTouchInputs@CWnd@@MAEHIPAUtagTOUCHINPUT@@@Z:PROC ; CWnd::OnTouchInputs
EXTRN	?OnTouchInput@CWnd@@MAEHVCPoint@@HHPAUtagTOUCHINPUT@@@Z:PROC ; CWnd::OnTouchInput
EXTRN	?GetGestureStatus@CWnd@@MAEKVCPoint@@@Z:PROC	; CWnd::GetGestureStatus
EXTRN	?OnGestureZoom@CWnd@@MAEHVCPoint@@J@Z:PROC	; CWnd::OnGestureZoom
EXTRN	?OnGesturePan@CWnd@@MAEHVCPoint@@0@Z:PROC	; CWnd::OnGesturePan
EXTRN	?OnGestureRotate@CWnd@@MAEHVCPoint@@N@Z:PROC	; CWnd::OnGestureRotate
EXTRN	?OnGestureTwoFingerTap@CWnd@@MAEHVCPoint@@@Z:PROC ; CWnd::OnGestureTwoFingerTap
EXTRN	?OnGesturePressAndTap@CWnd@@MAEHVCPoint@@J@Z:PROC ; CWnd::OnGesturePressAndTap
EXTRN	?ResizeDynamicLayout@CWnd@@MAEXXZ:PROC		; CWnd::ResizeDynamicLayout
EXTRN	?CheckAutoCenter@CWnd@@UAEHXZ:PROC		; CWnd::CheckAutoCenter
EXTRN	?IsFrameWnd@CWnd@@UBEHXZ:PROC			; CWnd::IsFrameWnd
EXTRN	?OnFinalRelease@CWnd@@UAEXXZ:PROC		; CWnd::OnFinalRelease
EXTRN	?CreateControlContainer@CWnd@@MAEHPAPAVCOleControlContainer@@@Z:PROC ; CWnd::CreateControlContainer
EXTRN	?CreateControlSite@CWnd@@MAEHPAVCOleControlContainer@@PAPAVCOleControlSite@@IABU_GUID@@@Z:PROC ; CWnd::CreateControlSite
EXTRN	?SetOccDialogInfo@CWnd@@MAEHPAU_AFX_OCC_DIALOG_INFO@@@Z:PROC ; CWnd::SetOccDialogInfo
EXTRN	?GetOccDialogInfo@CWnd@@MAEPAU_AFX_OCC_DIALOG_INFO@@XZ:PROC ; CWnd::GetOccDialogInfo
EXTRN	?GetMessageMap@CWnd@@MBEPBUAFX_MSGMAP@@XZ:PROC	; CWnd::GetMessageMap
EXTRN	?GetRuntimeClass@CDialog@@UBEPAUCRuntimeClass@@XZ:PROC ; CDialog::GetRuntimeClass
EXTRN	?Create@CDialog@@UAEHPBDPAVCWnd@@@Z:PROC	; CDialog::Create
EXTRN	?CreateIndirect@CDialog@@UAEHPBUDLGTEMPLATE@@PAVCWnd@@PAX@Z:PROC ; CDialog::CreateIndirect
EXTRN	?CreateIndirect@CDialog@@UAEHPAXPAVCWnd@@@Z:PROC ; CDialog::CreateIndirect
EXTRN	?DoModal@CDialog@@UAEHXZ:PROC			; CDialog::DoModal
EXTRN	?OnInitDialog@CDialog@@UAEHXZ:PROC		; CDialog::OnInitDialog
EXTRN	?OnSetFont@CDialog@@UAEXPAVCFont@@@Z:PROC	; CDialog::OnSetFont
EXTRN	?OnOK@CDialog@@MAEXXZ:PROC			; CDialog::OnOK
EXTRN	?OnCancel@CDialog@@MAEXXZ:PROC			; CDialog::OnCancel
EXTRN	??1CDialog@@UAE@XZ:PROC				; CDialog::~CDialog
EXTRN	?PreTranslateMessage@CDialog@@UAEHPAUtagMSG@@@Z:PROC ; CDialog::PreTranslateMessage
EXTRN	?OnCmdMsg@CDialog@@UAEHIHPAXPAUAFX_CMDHANDLERINFO@@@Z:PROC ; CDialog::OnCmdMsg
EXTRN	?CheckAutoCenter@CDialog@@UAEHXZ:PROC		; CDialog::CheckAutoCenter
EXTRN	?SetOccDialogInfo@CDialog@@MAEHPAU_AFX_OCC_DIALOG_INFO@@@Z:PROC ; CDialog::SetOccDialogInfo
EXTRN	?GetOccDialogInfo@CDialog@@MAEPAU_AFX_OCC_DIALOG_INFO@@XZ:PROC ; CDialog::GetOccDialogInfo
EXTRN	?PreInitDialog@CDialog@@MAEXXZ:PROC		; CDialog::PreInitDialog
EXTRN	?GetThisMessageMap@CDialog@@KGPBUAFX_MSGMAP@@XZ:PROC ; CDialog::GetThisMessageMap
EXTRN	?GetRuntimeClass@CButton@@UBEPAUCRuntimeClass@@XZ:PROC ; CButton::GetRuntimeClass
EXTRN	?Create@CButton@@UAEHPBDKABUtagRECT@@PAVCWnd@@I@Z:PROC ; CButton::Create
EXTRN	?DrawItem@CButton@@UAEXPAUtagDRAWITEMSTRUCT@@@Z:PROC ; CButton::DrawItem
EXTRN	??1CButton@@UAE@XZ:PROC				; CButton::~CButton
EXTRN	?OnChildNotify@CButton@@MAEHIIJPAJ@Z:PROC	; CButton::OnChildNotify
EXTRN	??_ECButton@@UAEPAXI@Z:PROC			; CButton::`vector deleting destructor'
EXTRN	?GetRuntimeClass@CCommonDialog@@UBEPAUCRuntimeClass@@XZ:PROC ; CCommonDialog::GetRuntimeClass
EXTRN	?OnOK@CCommonDialog@@MAEXXZ:PROC		; CCommonDialog::OnOK
EXTRN	?OnCancel@CCommonDialog@@MAEXXZ:PROC		; CCommonDialog::OnCancel
EXTRN	?GetMessageMap@CCommonDialog@@MBEPBUAFX_MSGMAP@@XZ:PROC ; CCommonDialog::GetMessageMap
EXTRN	??_ECCommonDialog@@UAEPAXI@Z:PROC		; CCommonDialog::`vector deleting destructor'
EXTRN	??0CColorDialog@@QAE@KKPAVCWnd@@@Z:PROC		; CColorDialog::CColorDialog
EXTRN	?DoModal@CColorDialog@@UAEHXZ:PROC		; CColorDialog::DoModal
EXTRN	??0CBaseDialog@@QAE@IPAVCWnd@@PAUIChartOCX135914@@0@Z:PROC ; CBaseDialog::CBaseDialog
EXTRN	??1CBaseDialog@@UAE@XZ:PROC			; CBaseDialog::~CBaseDialog
EXTRN	?SetTitle@CBaseDialog@@UAEXHABV?$CStringT@DV?$StrTraitMFC_DLL@DV?$ChTraitsCRT@D@ATL@@@@@ATL@@@Z:PROC ; CBaseDialog::SetTitle
EXTRN	?DoCalculate@CBaseDialog@@UAE_NXZ:PROC		; CBaseDialog::DoCalculate
EXTRN	?Initial_FillUp@CBaseDialog@@IAEXHAAVCButton@@@Z:PROC ; CBaseDialog::Initial_FillUp
EXTRN	?Initial_FillDown@CBaseDialog@@IAEXHAAVCButton@@@Z:PROC ; CBaseDialog::Initial_FillDown
EXTRN	?OnApply_FillUp@CBaseDialog@@IAEXHAAVCButton@@@Z:PROC ; CBaseDialog::OnApply_FillUp
EXTRN	?OnApply_FillDown@CBaseDialog@@IAEXHAAVCButton@@@Z:PROC ; CBaseDialog::OnApply_FillDown
EXTRN	??0CColorButton@@QAE@XZ:PROC			; CColorButton::CColorButton
EXTRN	??1CColorButton@@UAE@XZ:PROC			; CColorButton::~CColorButton
EXTRN	?GetColor@CColorButton@@QAEKXZ:PROC		; CColorButton::GetColor
EXTRN	?SetColor@CColorButton@@QAEXABK@Z:PROC		; CColorButton::SetColor
EXTRN	??_ECSetting_Volume@@UAEPAXI@Z:PROC		; CSetting_Volume::`vector deleting destructor'
EXTRN	@__security_check_cookie@4:PROC
EXTRN	___CxxFrameHandler3:PROC
EXTRN	??_7type_info@@6B@:QWORD			; type_info::`vftable'
EXTRN	?g_iMetaTable@@3VIMetaTable@@A:BYTE		; g_iMetaTable
EXTRN	___security_cookie:DWORD
EXTRN	__fltused:DWORD
;	COMDAT __real@bff0000000000000
CONST	SEGMENT
__real@bff0000000000000 DQ 0bff0000000000000r	; -1
CONST	ENDS
;	COMDAT __real@3ff0000000000000
CONST	SEGMENT
__real@3ff0000000000000 DQ 03ff0000000000000r	; 1
CONST	ENDS
;	COMDAT ??_R2CBaseDialog@@8
rdata$r	SEGMENT
??_R2CBaseDialog@@8 DD FLAT:??_R1A@?0A@EA@CBaseDialog@@8 ; CBaseDialog::`RTTI Base Class Array'
	DD	FLAT:??_R1A@?0A@EA@CDialog@@8
	DD	FLAT:??_R1A@?0A@EA@CWnd@@8
	DD	FLAT:??_R1A@?0A@EA@CCmdTarget@@8
	DD	FLAT:??_R1A@?0A@EA@CObject@@8
rdata$r	ENDS
;	COMDAT ??_R3CBaseDialog@@8
rdata$r	SEGMENT
??_R3CBaseDialog@@8 DD 00H				; CBaseDialog::`RTTI Class Hierarchy Descriptor'
	DD	00H
	DD	05H
	DD	FLAT:??_R2CBaseDialog@@8
rdata$r	ENDS
;	COMDAT ??_R0?AVCBaseDialog@@@8
data$rs	SEGMENT
??_R0?AVCBaseDialog@@@8 DD FLAT:??_7type_info@@6B@	; CBaseDialog `RTTI Type Descriptor'
	DD	00H
	DB	'.?AVCBaseDialog@@', 00H
data$rs	ENDS
;	COMDAT ??_R1A@?0A@EA@CBaseDialog@@8
rdata$r	SEGMENT
??_R1A@?0A@EA@CBaseDialog@@8 DD FLAT:??_R0?AVCBaseDialog@@@8 ; CBaseDialog::`RTTI Base Class Descriptor at (0,-1,0,64)'
	DD	04H
	DD	00H
	DD	0ffffffffH
	DD	00H
	DD	040H
	DD	FLAT:??_R3CBaseDialog@@8
rdata$r	ENDS
;	COMDAT ??_R1A@?0A@EA@CSetting_Volume@@8
rdata$r	SEGMENT
??_R1A@?0A@EA@CSetting_Volume@@8 DD FLAT:??_R0?AVCSetting_Volume@@@8 ; CSetting_Volume::`RTTI Base Class Descriptor at (0,-1,0,64)'
	DD	05H
	DD	00H
	DD	0ffffffffH
	DD	00H
	DD	040H
	DD	FLAT:??_R3CSetting_Volume@@8
rdata$r	ENDS
;	COMDAT ??_R2CSetting_Volume@@8
rdata$r	SEGMENT
??_R2CSetting_Volume@@8 DD FLAT:??_R1A@?0A@EA@CSetting_Volume@@8 ; CSetting_Volume::`RTTI Base Class Array'
	DD	FLAT:??_R1A@?0A@EA@CBaseDialog@@8
	DD	FLAT:??_R1A@?0A@EA@CDialog@@8
	DD	FLAT:??_R1A@?0A@EA@CWnd@@8
	DD	FLAT:??_R1A@?0A@EA@CCmdTarget@@8
	DD	FLAT:??_R1A@?0A@EA@CObject@@8
rdata$r	ENDS
;	COMDAT ??_R3CSetting_Volume@@8
rdata$r	SEGMENT
??_R3CSetting_Volume@@8 DD 00H				; CSetting_Volume::`RTTI Class Hierarchy Descriptor'
	DD	00H
	DD	06H
	DD	FLAT:??_R2CSetting_Volume@@8
rdata$r	ENDS
;	COMDAT ??_R0?AVCSetting_Volume@@@8
data$rs	SEGMENT
??_R0?AVCSetting_Volume@@@8 DD FLAT:??_7type_info@@6B@	; CSetting_Volume `RTTI Type Descriptor'
	DD	00H
	DB	'.?AVCSetting_Volume@@', 00H
data$rs	ENDS
;	COMDAT ??_R4CSetting_Volume@@6B@
rdata$r	SEGMENT
??_R4CSetting_Volume@@6B@ DD 00H			; CSetting_Volume::`RTTI Complete Object Locator'
	DD	00H
	DD	00H
	DD	FLAT:??_R0?AVCSetting_Volume@@@8
	DD	FLAT:??_R3CSetting_Volume@@8
rdata$r	ENDS
;	COMDAT ?messageMap@?1??GetThisMessageMap@CSetting_Volume@@KGPBUAFX_MSGMAP@@XZ@4U3@B
CONST	SEGMENT
?messageMap@?1??GetThisMessageMap@CSetting_Volume@@KGPBUAFX_MSGMAP@@XZ@4U3@B DD FLAT:?GetThisMessageMap@CDialog@@KGPBUAFX_MSGMAP@@XZ ; `CSetting_Volume::GetThisMessageMap'::`2'::messageMap
	DD	FLAT:?_messageEntries@?1??GetThisMessageMap@CSetting_Volume@@KGPBUAFX_MSGMAP@@XZ@4QBUAFX_MSGMAP_ENTRY@@B
CONST	ENDS
;	COMDAT ?_messageEntries@?1??GetThisMessageMap@CSetting_Volume@@KGPBUAFX_MSGMAP@@XZ@4QBUAFX_MSGMAP_ENTRY@@B
CONST	SEGMENT
?_messageEntries@?1??GetThisMessageMap@CSetting_Volume@@KGPBUAFX_MSGMAP@@XZ@4QBUAFX_MSGMAP_ENTRY@@B DD 0111H ; `CSetting_Volume::GetThisMessageMap'::`2'::_messageEntries
	DD	00H
	DD	0414H
	DD	0414H
	DD	03aH
	DD	FLAT:?OnUpdownVolume@CSetting_Volume@@IAEXXZ
	DD	0111H
	DD	00H
	DD	0413H
	DD	0413H
	DD	03aH
	DD	FLAT:?OnSimpleVolume@CSetting_Volume@@IAEXXZ
	DD	0111H
	DD	00H
	DD	0415H
	DD	0415H
	DD	03aH
	DD	FLAT:?OnSameBong@CSetting_Volume@@IAEXXZ
	DD	0111H
	DD	00H
	DD	01794H
	DD	01794H
	DD	03aH
	DD	FLAT:?OnBtnUp@CSetting_Volume@@IAEXXZ
	DD	0111H
	DD	00H
	DD	01795H
	DD	01795H
	DD	03aH
	DD	FLAT:?OnBtnDown@CSetting_Volume@@IAEXXZ
	DD	0111H
	DD	00H
	DD	0400H
	DD	0400H
	DD	03aH
	DD	FLAT:?OnFill@CSetting_Volume@@IAEXXZ
	DD	0111H
	DD	00H
	DD	040bH
	DD	040bH
	DD	03aH
	DD	FLAT:?OnFillDown@CSetting_Volume@@IAEXXZ
	DD	0111H
	DD	00H
	DD	017feH
	DD	017feH
	DD	03aH
	DD	FLAT:?OnCheckUp@CSetting_Volume@@IAEXXZ
	DD	0111H
	DD	00H
	DD	017ffH
	DD	017ffH
	DD	03aH
	DD	FLAT:?OnCheckDown@CSetting_Volume@@IAEXXZ
	DD	0111H
	DD	00H
	DD	0416H
	DD	0416H
	DD	03aH
	DD	FLAT:?OnUpdownPrice@CSetting_Volume@@IAEXXZ
	DD	00H
	DD	00H
	DD	00H
	DD	00H
	DD	00H
	DD	00H
CONST	ENDS
;	COMDAT ??_C@_0BA@ENJOCHIO@LoadResourceDLL@
CONST	SEGMENT
??_C@_0BA@ENJOCHIO@LoadResourceDLL@ DB 'LoadResourceDLL', 00H ; `string'
CONST	ENDS
;	COMDAT ??_7CSetting_Volume@@6B@
CONST	SEGMENT
??_7CSetting_Volume@@6B@ DD FLAT:??_R4CSetting_Volume@@6B@ ; CSetting_Volume::`vftable'
	DD	FLAT:?GetRuntimeClass@CDialog@@UBEPAUCRuntimeClass@@XZ
	DD	FLAT:??_ECSetting_Volume@@UAEPAXI@Z
	DD	FLAT:?Serialize@CObject@@UAEXAAVCArchive@@@Z
	DD	FLAT:?AssertValid@CObject@@UBEXXZ
	DD	FLAT:?Dump@CObject@@UBEXAAVCDumpContext@@@Z
	DD	FLAT:?OnCmdMsg@CDialog@@UAEHIHPAXPAUAFX_CMDHANDLERINFO@@@Z
	DD	FLAT:?OnFinalRelease@CWnd@@UAEXXZ
	DD	FLAT:?IsInvokeAllowed@CCmdTarget@@UAEHJ@Z
	DD	FLAT:?GetDispatchIID@CCmdTarget@@UAEHPAU_GUID@@@Z
	DD	FLAT:?GetTypeInfoCount@CCmdTarget@@UAEIXZ
	DD	FLAT:?GetTypeLibCache@CCmdTarget@@UAEPAVCTypeLibCache@@XZ
	DD	FLAT:?GetTypeLib@CCmdTarget@@UAEJKPAPAUITypeLib@@@Z
	DD	FLAT:?GetMessageMap@CSetting_Volume@@MBEPBUAFX_MSGMAP@@XZ
	DD	FLAT:?GetCommandMap@CCmdTarget@@MBEPBUAFX_OLECMDMAP@@XZ
	DD	FLAT:?GetDispatchMap@CCmdTarget@@MBEPBUAFX_DISPMAP@@XZ
	DD	FLAT:?GetConnectionMap@CCmdTarget@@MBEPBUAFX_CONNECTIONMAP@@XZ
	DD	FLAT:?GetInterfaceMap@CWnd@@MBEPBUAFX_INTERFACEMAP@@XZ
	DD	FLAT:?GetEventSinkMap@CCmdTarget@@MBEPBUAFX_EVENTSINKMAP@@XZ
	DD	FLAT:?OnCreateAggregates@CCmdTarget@@UAEHXZ
	DD	FLAT:?GetInterfaceHook@CCmdTarget@@UAEPAUIUnknown@@PBX@Z
	DD	FLAT:?GetExtraConnectionPoints@CCmdTarget@@MAEHPAVCPtrArray@@@Z
	DD	FLAT:?GetConnectionHook@CCmdTarget@@MAEPAUIConnectionPoint@@ABU_GUID@@@Z
	DD	FLAT:?PreSubclassWindow@CWnd@@UAEXXZ
	DD	FLAT:?Create@CWnd@@UAEHPBD0KABUtagRECT@@PAV1@IPAUCCreateContext@@@Z
	DD	FLAT:?CreateEx@CWnd@@UAEHKPBD0KABUtagRECT@@PAV1@IPAX@Z
	DD	FLAT:?CreateEx@CWnd@@UAEHKPBD0KHHHHPAUHWND__@@PAUHMENU__@@PAX@Z
	DD	FLAT:?DestroyWindow@CWnd@@UAEHXZ
	DD	FLAT:?PreCreateWindow@CWnd@@UAEHAAUtagCREATESTRUCTA@@@Z
	DD	FLAT:?CalcWindowRect@CWnd@@UAEXPAUtagRECT@@I@Z
	DD	FLAT:?GetMenu@CWnd@@UBEPAVCMenu@@XZ
	DD	FLAT:?SetMenu@CWnd@@UAEHPAVCMenu@@@Z
	DD	FLAT:?OnToolHitTest@CWnd@@UBEHVCPoint@@PAUtagTOOLINFOA@@@Z
	DD	FLAT:?GetScrollBarCtrl@CWnd@@UBEPAVCScrollBar@@H@Z
	DD	FLAT:?WinHelpA@CWnd@@UAEXKI@Z
	DD	FLAT:?HtmlHelpA@CWnd@@UAEXKI@Z
	DD	FLAT:?WinHelpInternal@CWnd@@UAEXKI@Z
	DD	FLAT:?ContinueModal@CWnd@@UAEHXZ
	DD	FLAT:?EndModalLoop@CWnd@@UAEXH@Z
	DD	FLAT:?OnDrawIconicThumbnailOrLivePreview@CWnd@@UAEXAAVCDC@@VCRect@@VCSize@@HAAH@Z
	DD	FLAT:?EnsureStdObj@CWnd@@UAEJXZ
	DD	FLAT:?get_accParent@CWnd@@UAEJPAPAUIDispatch@@@Z
	DD	FLAT:?get_accChildCount@CWnd@@UAEJPAJ@Z
	DD	FLAT:?get_accChild@CWnd@@UAEJUtagVARIANT@@PAPAUIDispatch@@@Z
	DD	FLAT:?get_accName@CWnd@@UAEJUtagVARIANT@@PAPA_W@Z
	DD	FLAT:?get_accValue@CWnd@@UAEJUtagVARIANT@@PAPA_W@Z
	DD	FLAT:?get_accDescription@CWnd@@UAEJUtagVARIANT@@PAPA_W@Z
	DD	FLAT:?get_accRole@CWnd@@UAEJUtagVARIANT@@PAU2@@Z
	DD	FLAT:?get_accState@CWnd@@UAEJUtagVARIANT@@PAU2@@Z
	DD	FLAT:?get_accHelp@CWnd@@UAEJUtagVARIANT@@PAPA_W@Z
	DD	FLAT:?get_accHelpTopic@CWnd@@UAEJPAPA_WUtagVARIANT@@PAJ@Z
	DD	FLAT:?get_accKeyboardShortcut@CWnd@@UAEJUtagVARIANT@@PAPA_W@Z
	DD	FLAT:?get_accFocus@CWnd@@UAEJPAUtagVARIANT@@@Z
	DD	FLAT:?get_accSelection@CWnd@@UAEJPAUtagVARIANT@@@Z
	DD	FLAT:?get_accDefaultAction@CWnd@@UAEJUtagVARIANT@@PAPA_W@Z
	DD	FLAT:?accSelect@CWnd@@UAEJJUtagVARIANT@@@Z
	DD	FLAT:?accLocation@CWnd@@UAEJPAJ000UtagVARIANT@@@Z
	DD	FLAT:?accNavigate@CWnd@@UAEJJUtagVARIANT@@PAU2@@Z
	DD	FLAT:?accHitTest@CWnd@@UAEJJJPAUtagVARIANT@@@Z
	DD	FLAT:?accDoDefaultAction@CWnd@@UAEJUtagVARIANT@@@Z
	DD	FLAT:?put_accName@CWnd@@UAEJUtagVARIANT@@PA_W@Z
	DD	FLAT:?put_accValue@CWnd@@UAEJUtagVARIANT@@PA_W@Z
	DD	FLAT:?SetProxy@CWnd@@UAEJPAUIAccessibleProxy@@@Z
	DD	FLAT:?CreateAccessibleProxy@CWnd@@UAEJIJPAJ@Z
	DD	FLAT:?OnCommand@CWnd@@MAEHIJ@Z
	DD	FLAT:?OnNotify@CWnd@@MAEHIJPAJ@Z
	DD	FLAT:?GetSuperWndProcAddr@CWnd@@MAEPAP6GJPAUHWND__@@IIJ@ZXZ
	DD	FLAT:?DoDataExchange@CSetting_Volume@@MAEXPAVCDataExchange@@@Z
	DD	FLAT:?BeginModalState@CWnd@@UAEXXZ
	DD	FLAT:?EndModalState@CWnd@@UAEXXZ
	DD	FLAT:?PreTranslateMessage@CSetting_Volume@@UAEHPAUtagMSG@@@Z
	DD	FLAT:?OnAmbientProperty@CWnd@@UAEHPAVCOleControlSite@@JPAUtagVARIANT@@@Z
	DD	FLAT:?WindowProc@CWnd@@MAEJIIJ@Z
	DD	FLAT:?OnWndMsg@CWnd@@MAEHIIJPAJ@Z
	DD	FLAT:?DefWindowProcA@CWnd@@MAEJIIJ@Z
	DD	FLAT:?PostNcDestroy@CWnd@@MAEXXZ
	DD	FLAT:?OnChildNotify@CWnd@@MAEHIIJPAJ@Z
	DD	FLAT:?OnTouchInputs@CWnd@@MAEHIPAUtagTOUCHINPUT@@@Z
	DD	FLAT:?OnTouchInput@CWnd@@MAEHVCPoint@@HHPAUtagTOUCHINPUT@@@Z
	DD	FLAT:?GetGestureStatus@CWnd@@MAEKVCPoint@@@Z
	DD	FLAT:?OnGestureZoom@CWnd@@MAEHVCPoint@@J@Z
	DD	FLAT:?OnGesturePan@CWnd@@MAEHVCPoint@@0@Z
	DD	FLAT:?OnGestureRotate@CWnd@@MAEHVCPoint@@N@Z
	DD	FLAT:?OnGestureTwoFingerTap@CWnd@@MAEHVCPoint@@@Z
	DD	FLAT:?OnGesturePressAndTap@CWnd@@MAEHVCPoint@@J@Z
	DD	FLAT:?ResizeDynamicLayout@CWnd@@MAEXXZ
	DD	FLAT:?CheckAutoCenter@CDialog@@UAEHXZ
	DD	FLAT:?IsFrameWnd@CWnd@@UBEHXZ
	DD	FLAT:?CreateControlContainer@CWnd@@MAEHPAPAVCOleControlContainer@@@Z
	DD	FLAT:?CreateControlSite@CWnd@@MAEHPAVCOleControlContainer@@PAPAVCOleControlSite@@IABU_GUID@@@Z
	DD	FLAT:?SetOccDialogInfo@CDialog@@MAEHPAU_AFX_OCC_DIALOG_INFO@@@Z
	DD	FLAT:?GetOccDialogInfo@CDialog@@MAEPAU_AFX_OCC_DIALOG_INFO@@XZ
	DD	FLAT:?Create@CDialog@@UAEHIPAVCWnd@@@Z
	DD	FLAT:?Create@CDialog@@UAEHPBDPAVCWnd@@@Z
	DD	FLAT:?CreateIndirect@CDialog@@UAEHPAXPAVCWnd@@@Z
	DD	FLAT:?CreateIndirect@CDialog@@UAEHPBUDLGTEMPLATE@@PAVCWnd@@PAX@Z
	DD	FLAT:?DoModal@CDialog@@UAEHXZ
	DD	FLAT:?OnInitDialog@CSetting_Volume@@MAEHXZ
	DD	FLAT:?OnSetFont@CDialog@@UAEXPAVCFont@@@Z
	DD	FLAT:?OnOK@CDialog@@MAEXXZ
	DD	FLAT:?OnCancel@CDialog@@MAEXXZ
	DD	FLAT:?PreInitDialog@CDialog@@MAEXXZ
	DD	FLAT:?Initial@CSetting_Volume@@UAEXPAUIGraphInfo135914@@@Z
	DD	FLAT:?OnApply@CSetting_Volume@@UAEHPAUIGraphInfo135914@@@Z
	DD	FLAT:?SetTitle@CBaseDialog@@UAEXHABV?$CStringT@DV?$StrTraitMFC_DLL@DV?$ChTraitsCRT@D@ATL@@@@@ATL@@@Z
	DD	FLAT:?DoCalculate@CBaseDialog@@UAE_NXZ
CONST	ENDS
;	COMDAT ??_R2CDialog@@8
rdata$r	SEGMENT
??_R2CDialog@@8 DD FLAT:??_R1A@?0A@EA@CDialog@@8	; CDialog::`RTTI Base Class Array'
	DD	FLAT:??_R1A@?0A@EA@CWnd@@8
	DD	FLAT:??_R1A@?0A@EA@CCmdTarget@@8
	DD	FLAT:??_R1A@?0A@EA@CObject@@8
rdata$r	ENDS
;	COMDAT ??_R3CDialog@@8
rdata$r	SEGMENT
??_R3CDialog@@8 DD 00H					; CDialog::`RTTI Class Hierarchy Descriptor'
	DD	00H
	DD	04H
	DD	FLAT:??_R2CDialog@@8
rdata$r	ENDS
;	COMDAT ??_R0?AVCDialog@@@8
data$rs	SEGMENT
??_R0?AVCDialog@@@8 DD FLAT:??_7type_info@@6B@		; CDialog `RTTI Type Descriptor'
	DD	00H
	DB	'.?AVCDialog@@', 00H
data$rs	ENDS
;	COMDAT ??_R1A@?0A@EA@CDialog@@8
rdata$r	SEGMENT
??_R1A@?0A@EA@CDialog@@8 DD FLAT:??_R0?AVCDialog@@@8	; CDialog::`RTTI Base Class Descriptor at (0,-1,0,64)'
	DD	03H
	DD	00H
	DD	0ffffffffH
	DD	00H
	DD	040H
	DD	FLAT:??_R3CDialog@@8
rdata$r	ENDS
;	COMDAT ??_R1A@?0A@EA@CCommonDialog@@8
rdata$r	SEGMENT
??_R1A@?0A@EA@CCommonDialog@@8 DD FLAT:??_R0?AVCCommonDialog@@@8 ; CCommonDialog::`RTTI Base Class Descriptor at (0,-1,0,64)'
	DD	04H
	DD	00H
	DD	0ffffffffH
	DD	00H
	DD	040H
	DD	FLAT:??_R3CCommonDialog@@8
rdata$r	ENDS
;	COMDAT ??_R2CCommonDialog@@8
rdata$r	SEGMENT
??_R2CCommonDialog@@8 DD FLAT:??_R1A@?0A@EA@CCommonDialog@@8 ; CCommonDialog::`RTTI Base Class Array'
	DD	FLAT:??_R1A@?0A@EA@CDialog@@8
	DD	FLAT:??_R1A@?0A@EA@CWnd@@8
	DD	FLAT:??_R1A@?0A@EA@CCmdTarget@@8
	DD	FLAT:??_R1A@?0A@EA@CObject@@8
rdata$r	ENDS
;	COMDAT ??_R3CCommonDialog@@8
rdata$r	SEGMENT
??_R3CCommonDialog@@8 DD 00H				; CCommonDialog::`RTTI Class Hierarchy Descriptor'
	DD	00H
	DD	05H
	DD	FLAT:??_R2CCommonDialog@@8
rdata$r	ENDS
;	COMDAT ??_R0?AVCCommonDialog@@@8
data$rs	SEGMENT
??_R0?AVCCommonDialog@@@8 DD FLAT:??_7type_info@@6B@	; CCommonDialog `RTTI Type Descriptor'
	DD	00H
	DB	'.?AVCCommonDialog@@', 00H
data$rs	ENDS
;	COMDAT ??_R4CCommonDialog@@6B@
rdata$r	SEGMENT
??_R4CCommonDialog@@6B@ DD 00H				; CCommonDialog::`RTTI Complete Object Locator'
	DD	00H
	DD	00H
	DD	FLAT:??_R0?AVCCommonDialog@@@8
	DD	FLAT:??_R3CCommonDialog@@8
rdata$r	ENDS
;	COMDAT ??_R1A@?0A@EA@CButton@@8
rdata$r	SEGMENT
??_R1A@?0A@EA@CButton@@8 DD FLAT:??_R0?AVCButton@@@8	; CButton::`RTTI Base Class Descriptor at (0,-1,0,64)'
	DD	03H
	DD	00H
	DD	0ffffffffH
	DD	00H
	DD	040H
	DD	FLAT:??_R3CButton@@8
rdata$r	ENDS
;	COMDAT ??_R2CButton@@8
rdata$r	SEGMENT
??_R2CButton@@8 DD FLAT:??_R1A@?0A@EA@CButton@@8	; CButton::`RTTI Base Class Array'
	DD	FLAT:??_R1A@?0A@EA@CWnd@@8
	DD	FLAT:??_R1A@?0A@EA@CCmdTarget@@8
	DD	FLAT:??_R1A@?0A@EA@CObject@@8
rdata$r	ENDS
;	COMDAT ??_R3CButton@@8
rdata$r	SEGMENT
??_R3CButton@@8 DD 00H					; CButton::`RTTI Class Hierarchy Descriptor'
	DD	00H
	DD	04H
	DD	FLAT:??_R2CButton@@8
rdata$r	ENDS
;	COMDAT ??_R0?AVCButton@@@8
data$rs	SEGMENT
??_R0?AVCButton@@@8 DD FLAT:??_7type_info@@6B@		; CButton `RTTI Type Descriptor'
	DD	00H
	DB	'.?AVCButton@@', 00H
data$rs	ENDS
;	COMDAT ??_R4CButton@@6B@
rdata$r	SEGMENT
??_R4CButton@@6B@ DD 00H				; CButton::`RTTI Complete Object Locator'
	DD	00H
	DD	00H
	DD	FLAT:??_R0?AVCButton@@@8
	DD	FLAT:??_R3CButton@@8
rdata$r	ENDS
;	COMDAT ??_R2CCmdTarget@@8
rdata$r	SEGMENT
??_R2CCmdTarget@@8 DD FLAT:??_R1A@?0A@EA@CCmdTarget@@8	; CCmdTarget::`RTTI Base Class Array'
	DD	FLAT:??_R1A@?0A@EA@CObject@@8
rdata$r	ENDS
;	COMDAT ??_R3CCmdTarget@@8
rdata$r	SEGMENT
??_R3CCmdTarget@@8 DD 00H				; CCmdTarget::`RTTI Class Hierarchy Descriptor'
	DD	00H
	DD	02H
	DD	FLAT:??_R2CCmdTarget@@8
rdata$r	ENDS
;	COMDAT ??_R0?AVCCmdTarget@@@8
data$rs	SEGMENT
??_R0?AVCCmdTarget@@@8 DD FLAT:??_7type_info@@6B@	; CCmdTarget `RTTI Type Descriptor'
	DD	00H
	DB	'.?AVCCmdTarget@@', 00H
data$rs	ENDS
;	COMDAT ??_R1A@?0A@EA@CCmdTarget@@8
rdata$r	SEGMENT
??_R1A@?0A@EA@CCmdTarget@@8 DD FLAT:??_R0?AVCCmdTarget@@@8 ; CCmdTarget::`RTTI Base Class Descriptor at (0,-1,0,64)'
	DD	01H
	DD	00H
	DD	0ffffffffH
	DD	00H
	DD	040H
	DD	FLAT:??_R3CCmdTarget@@8
rdata$r	ENDS
;	COMDAT ??_R2CWnd@@8
rdata$r	SEGMENT
??_R2CWnd@@8 DD	FLAT:??_R1A@?0A@EA@CWnd@@8		; CWnd::`RTTI Base Class Array'
	DD	FLAT:??_R1A@?0A@EA@CCmdTarget@@8
	DD	FLAT:??_R1A@?0A@EA@CObject@@8
rdata$r	ENDS
;	COMDAT ??_R3CWnd@@8
rdata$r	SEGMENT
??_R3CWnd@@8 DD	00H					; CWnd::`RTTI Class Hierarchy Descriptor'
	DD	00H
	DD	03H
	DD	FLAT:??_R2CWnd@@8
rdata$r	ENDS
;	COMDAT ??_R0?AVCWnd@@@8
data$rs	SEGMENT
??_R0?AVCWnd@@@8 DD FLAT:??_7type_info@@6B@		; CWnd `RTTI Type Descriptor'
	DD	00H
	DB	'.?AVCWnd@@', 00H
data$rs	ENDS
;	COMDAT ??_R1A@?0A@EA@CWnd@@8
rdata$r	SEGMENT
??_R1A@?0A@EA@CWnd@@8 DD FLAT:??_R0?AVCWnd@@@8		; CWnd::`RTTI Base Class Descriptor at (0,-1,0,64)'
	DD	02H
	DD	00H
	DD	0ffffffffH
	DD	00H
	DD	040H
	DD	FLAT:??_R3CWnd@@8
rdata$r	ENDS
;	COMDAT ??_R1A@?0A@EA@CObject@@8
rdata$r	SEGMENT
??_R1A@?0A@EA@CObject@@8 DD FLAT:??_R0?AVCObject@@@8	; CObject::`RTTI Base Class Descriptor at (0,-1,0,64)'
	DD	00H
	DD	00H
	DD	0ffffffffH
	DD	00H
	DD	040H
	DD	FLAT:??_R3CObject@@8
rdata$r	ENDS
;	COMDAT ??_R2CObject@@8
rdata$r	SEGMENT
??_R2CObject@@8 DD FLAT:??_R1A@?0A@EA@CObject@@8	; CObject::`RTTI Base Class Array'
rdata$r	ENDS
;	COMDAT ??_R3CObject@@8
rdata$r	SEGMENT
??_R3CObject@@8 DD 00H					; CObject::`RTTI Class Hierarchy Descriptor'
	DD	00H
	DD	01H
	DD	FLAT:??_R2CObject@@8
rdata$r	ENDS
;	COMDAT ??_R0?AVCObject@@@8
data$rs	SEGMENT
??_R0?AVCObject@@@8 DD FLAT:??_7type_info@@6B@		; CObject `RTTI Type Descriptor'
	DD	00H
	DB	'.?AVCObject@@', 00H
data$rs	ENDS
;	COMDAT ??_7CCommonDialog@@6B@
CONST	SEGMENT
??_7CCommonDialog@@6B@ DD FLAT:??_R4CCommonDialog@@6B@	; CCommonDialog::`vftable'
	DD	FLAT:?GetRuntimeClass@CCommonDialog@@UBEPAUCRuntimeClass@@XZ
	DD	FLAT:??_ECCommonDialog@@UAEPAXI@Z
	DD	FLAT:?Serialize@CObject@@UAEXAAVCArchive@@@Z
	DD	FLAT:?AssertValid@CObject@@UBEXXZ
	DD	FLAT:?Dump@CObject@@UBEXAAVCDumpContext@@@Z
	DD	FLAT:?OnCmdMsg@CDialog@@UAEHIHPAXPAUAFX_CMDHANDLERINFO@@@Z
	DD	FLAT:?OnFinalRelease@CWnd@@UAEXXZ
	DD	FLAT:?IsInvokeAllowed@CCmdTarget@@UAEHJ@Z
	DD	FLAT:?GetDispatchIID@CCmdTarget@@UAEHPAU_GUID@@@Z
	DD	FLAT:?GetTypeInfoCount@CCmdTarget@@UAEIXZ
	DD	FLAT:?GetTypeLibCache@CCmdTarget@@UAEPAVCTypeLibCache@@XZ
	DD	FLAT:?GetTypeLib@CCmdTarget@@UAEJKPAPAUITypeLib@@@Z
	DD	FLAT:?GetMessageMap@CCommonDialog@@MBEPBUAFX_MSGMAP@@XZ
	DD	FLAT:?GetCommandMap@CCmdTarget@@MBEPBUAFX_OLECMDMAP@@XZ
	DD	FLAT:?GetDispatchMap@CCmdTarget@@MBEPBUAFX_DISPMAP@@XZ
	DD	FLAT:?GetConnectionMap@CCmdTarget@@MBEPBUAFX_CONNECTIONMAP@@XZ
	DD	FLAT:?GetInterfaceMap@CWnd@@MBEPBUAFX_INTERFACEMAP@@XZ
	DD	FLAT:?GetEventSinkMap@CCmdTarget@@MBEPBUAFX_EVENTSINKMAP@@XZ
	DD	FLAT:?OnCreateAggregates@CCmdTarget@@UAEHXZ
	DD	FLAT:?GetInterfaceHook@CCmdTarget@@UAEPAUIUnknown@@PBX@Z
	DD	FLAT:?GetExtraConnectionPoints@CCmdTarget@@MAEHPAVCPtrArray@@@Z
	DD	FLAT:?GetConnectionHook@CCmdTarget@@MAEPAUIConnectionPoint@@ABU_GUID@@@Z
	DD	FLAT:?PreSubclassWindow@CWnd@@UAEXXZ
	DD	FLAT:?Create@CWnd@@UAEHPBD0KABUtagRECT@@PAV1@IPAUCCreateContext@@@Z
	DD	FLAT:?CreateEx@CWnd@@UAEHKPBD0KABUtagRECT@@PAV1@IPAX@Z
	DD	FLAT:?CreateEx@CWnd@@UAEHKPBD0KHHHHPAUHWND__@@PAUHMENU__@@PAX@Z
	DD	FLAT:?DestroyWindow@CWnd@@UAEHXZ
	DD	FLAT:?PreCreateWindow@CWnd@@UAEHAAUtagCREATESTRUCTA@@@Z
	DD	FLAT:?CalcWindowRect@CWnd@@UAEXPAUtagRECT@@I@Z
	DD	FLAT:?GetMenu@CWnd@@UBEPAVCMenu@@XZ
	DD	FLAT:?SetMenu@CWnd@@UAEHPAVCMenu@@@Z
	DD	FLAT:?OnToolHitTest@CWnd@@UBEHVCPoint@@PAUtagTOOLINFOA@@@Z
	DD	FLAT:?GetScrollBarCtrl@CWnd@@UBEPAVCScrollBar@@H@Z
	DD	FLAT:?WinHelpA@CWnd@@UAEXKI@Z
	DD	FLAT:?HtmlHelpA@CWnd@@UAEXKI@Z
	DD	FLAT:?WinHelpInternal@CWnd@@UAEXKI@Z
	DD	FLAT:?ContinueModal@CWnd@@UAEHXZ
	DD	FLAT:?EndModalLoop@CWnd@@UAEXH@Z
	DD	FLAT:?OnDrawIconicThumbnailOrLivePreview@CWnd@@UAEXAAVCDC@@VCRect@@VCSize@@HAAH@Z
	DD	FLAT:?EnsureStdObj@CWnd@@UAEJXZ
	DD	FLAT:?get_accParent@CWnd@@UAEJPAPAUIDispatch@@@Z
	DD	FLAT:?get_accChildCount@CWnd@@UAEJPAJ@Z
	DD	FLAT:?get_accChild@CWnd@@UAEJUtagVARIANT@@PAPAUIDispatch@@@Z
	DD	FLAT:?get_accName@CWnd@@UAEJUtagVARIANT@@PAPA_W@Z
	DD	FLAT:?get_accValue@CWnd@@UAEJUtagVARIANT@@PAPA_W@Z
	DD	FLAT:?get_accDescription@CWnd@@UAEJUtagVARIANT@@PAPA_W@Z
	DD	FLAT:?get_accRole@CWnd@@UAEJUtagVARIANT@@PAU2@@Z
	DD	FLAT:?get_accState@CWnd@@UAEJUtagVARIANT@@PAU2@@Z
	DD	FLAT:?get_accHelp@CWnd@@UAEJUtagVARIANT@@PAPA_W@Z
	DD	FLAT:?get_accHelpTopic@CWnd@@UAEJPAPA_WUtagVARIANT@@PAJ@Z
	DD	FLAT:?get_accKeyboardShortcut@CWnd@@UAEJUtagVARIANT@@PAPA_W@Z
	DD	FLAT:?get_accFocus@CWnd@@UAEJPAUtagVARIANT@@@Z
	DD	FLAT:?get_accSelection@CWnd@@UAEJPAUtagVARIANT@@@Z
	DD	FLAT:?get_accDefaultAction@CWnd@@UAEJUtagVARIANT@@PAPA_W@Z
	DD	FLAT:?accSelect@CWnd@@UAEJJUtagVARIANT@@@Z
	DD	FLAT:?accLocation@CWnd@@UAEJPAJ000UtagVARIANT@@@Z
	DD	FLAT:?accNavigate@CWnd@@UAEJJUtagVARIANT@@PAU2@@Z
	DD	FLAT:?accHitTest@CWnd@@UAEJJJPAUtagVARIANT@@@Z
	DD	FLAT:?accDoDefaultAction@CWnd@@UAEJUtagVARIANT@@@Z
	DD	FLAT:?put_accName@CWnd@@UAEJUtagVARIANT@@PA_W@Z
	DD	FLAT:?put_accValue@CWnd@@UAEJUtagVARIANT@@PA_W@Z
	DD	FLAT:?SetProxy@CWnd@@UAEJPAUIAccessibleProxy@@@Z
	DD	FLAT:?CreateAccessibleProxy@CWnd@@UAEJIJPAJ@Z
	DD	FLAT:?OnCommand@CWnd@@MAEHIJ@Z
	DD	FLAT:?OnNotify@CWnd@@MAEHIJPAJ@Z
	DD	FLAT:?GetSuperWndProcAddr@CWnd@@MAEPAP6GJPAUHWND__@@IIJ@ZXZ
	DD	FLAT:?DoDataExchange@CWnd@@MAEXPAVCDataExchange@@@Z
	DD	FLAT:?BeginModalState@CWnd@@UAEXXZ
	DD	FLAT:?EndModalState@CWnd@@UAEXXZ
	DD	FLAT:?PreTranslateMessage@CDialog@@UAEHPAUtagMSG@@@Z
	DD	FLAT:?OnAmbientProperty@CWnd@@UAEHPAVCOleControlSite@@JPAUtagVARIANT@@@Z
	DD	FLAT:?WindowProc@CWnd@@MAEJIIJ@Z
	DD	FLAT:?OnWndMsg@CWnd@@MAEHIIJPAJ@Z
	DD	FLAT:?DefWindowProcA@CWnd@@MAEJIIJ@Z
	DD	FLAT:?PostNcDestroy@CWnd@@MAEXXZ
	DD	FLAT:?OnChildNotify@CWnd@@MAEHIIJPAJ@Z
	DD	FLAT:?OnTouchInputs@CWnd@@MAEHIPAUtagTOUCHINPUT@@@Z
	DD	FLAT:?OnTouchInput@CWnd@@MAEHVCPoint@@HHPAUtagTOUCHINPUT@@@Z
	DD	FLAT:?GetGestureStatus@CWnd@@MAEKVCPoint@@@Z
	DD	FLAT:?OnGestureZoom@CWnd@@MAEHVCPoint@@J@Z
	DD	FLAT:?OnGesturePan@CWnd@@MAEHVCPoint@@0@Z
	DD	FLAT:?OnGestureRotate@CWnd@@MAEHVCPoint@@N@Z
	DD	FLAT:?OnGestureTwoFingerTap@CWnd@@MAEHVCPoint@@@Z
	DD	FLAT:?OnGesturePressAndTap@CWnd@@MAEHVCPoint@@J@Z
	DD	FLAT:?ResizeDynamicLayout@CWnd@@MAEXXZ
	DD	FLAT:?CheckAutoCenter@CDialog@@UAEHXZ
	DD	FLAT:?IsFrameWnd@CWnd@@UBEHXZ
	DD	FLAT:?CreateControlContainer@CWnd@@MAEHPAPAVCOleControlContainer@@@Z
	DD	FLAT:?CreateControlSite@CWnd@@MAEHPAVCOleControlContainer@@PAPAVCOleControlSite@@IABU_GUID@@@Z
	DD	FLAT:?SetOccDialogInfo@CDialog@@MAEHPAU_AFX_OCC_DIALOG_INFO@@@Z
	DD	FLAT:?GetOccDialogInfo@CDialog@@MAEPAU_AFX_OCC_DIALOG_INFO@@XZ
	DD	FLAT:?Create@CDialog@@UAEHIPAVCWnd@@@Z
	DD	FLAT:?Create@CDialog@@UAEHPBDPAVCWnd@@@Z
	DD	FLAT:?CreateIndirect@CDialog@@UAEHPAXPAVCWnd@@@Z
	DD	FLAT:?CreateIndirect@CDialog@@UAEHPBUDLGTEMPLATE@@PAVCWnd@@PAX@Z
	DD	FLAT:?DoModal@CDialog@@UAEHXZ
	DD	FLAT:?OnInitDialog@CDialog@@UAEHXZ
	DD	FLAT:?OnSetFont@CDialog@@UAEXPAVCFont@@@Z
	DD	FLAT:?OnOK@CCommonDialog@@MAEXXZ
	DD	FLAT:?OnCancel@CCommonDialog@@MAEXXZ
	DD	FLAT:?PreInitDialog@CDialog@@MAEXXZ
CONST	ENDS
;	COMDAT ??_7CButton@@6B@
CONST	SEGMENT
??_7CButton@@6B@ DD FLAT:??_R4CButton@@6B@		; CButton::`vftable'
	DD	FLAT:?GetRuntimeClass@CButton@@UBEPAUCRuntimeClass@@XZ
	DD	FLAT:??_ECButton@@UAEPAXI@Z
	DD	FLAT:?Serialize@CObject@@UAEXAAVCArchive@@@Z
	DD	FLAT:?AssertValid@CObject@@UBEXXZ
	DD	FLAT:?Dump@CObject@@UBEXAAVCDumpContext@@@Z
	DD	FLAT:?OnCmdMsg@CCmdTarget@@UAEHIHPAXPAUAFX_CMDHANDLERINFO@@@Z
	DD	FLAT:?OnFinalRelease@CWnd@@UAEXXZ
	DD	FLAT:?IsInvokeAllowed@CCmdTarget@@UAEHJ@Z
	DD	FLAT:?GetDispatchIID@CCmdTarget@@UAEHPAU_GUID@@@Z
	DD	FLAT:?GetTypeInfoCount@CCmdTarget@@UAEIXZ
	DD	FLAT:?GetTypeLibCache@CCmdTarget@@UAEPAVCTypeLibCache@@XZ
	DD	FLAT:?GetTypeLib@CCmdTarget@@UAEJKPAPAUITypeLib@@@Z
	DD	FLAT:?GetMessageMap@CWnd@@MBEPBUAFX_MSGMAP@@XZ
	DD	FLAT:?GetCommandMap@CCmdTarget@@MBEPBUAFX_OLECMDMAP@@XZ
	DD	FLAT:?GetDispatchMap@CCmdTarget@@MBEPBUAFX_DISPMAP@@XZ
	DD	FLAT:?GetConnectionMap@CCmdTarget@@MBEPBUAFX_CONNECTIONMAP@@XZ
	DD	FLAT:?GetInterfaceMap@CWnd@@MBEPBUAFX_INTERFACEMAP@@XZ
	DD	FLAT:?GetEventSinkMap@CCmdTarget@@MBEPBUAFX_EVENTSINKMAP@@XZ
	DD	FLAT:?OnCreateAggregates@CCmdTarget@@UAEHXZ
	DD	FLAT:?GetInterfaceHook@CCmdTarget@@UAEPAUIUnknown@@PBX@Z
	DD	FLAT:?GetExtraConnectionPoints@CCmdTarget@@MAEHPAVCPtrArray@@@Z
	DD	FLAT:?GetConnectionHook@CCmdTarget@@MAEPAUIConnectionPoint@@ABU_GUID@@@Z
	DD	FLAT:?PreSubclassWindow@CWnd@@UAEXXZ
	DD	FLAT:?Create@CWnd@@UAEHPBD0KABUtagRECT@@PAV1@IPAUCCreateContext@@@Z
	DD	FLAT:?CreateEx@CWnd@@UAEHKPBD0KABUtagRECT@@PAV1@IPAX@Z
	DD	FLAT:?CreateEx@CWnd@@UAEHKPBD0KHHHHPAUHWND__@@PAUHMENU__@@PAX@Z
	DD	FLAT:?DestroyWindow@CWnd@@UAEHXZ
	DD	FLAT:?PreCreateWindow@CWnd@@UAEHAAUtagCREATESTRUCTA@@@Z
	DD	FLAT:?CalcWindowRect@CWnd@@UAEXPAUtagRECT@@I@Z
	DD	FLAT:?GetMenu@CWnd@@UBEPAVCMenu@@XZ
	DD	FLAT:?SetMenu@CWnd@@UAEHPAVCMenu@@@Z
	DD	FLAT:?OnToolHitTest@CWnd@@UBEHVCPoint@@PAUtagTOOLINFOA@@@Z
	DD	FLAT:?GetScrollBarCtrl@CWnd@@UBEPAVCScrollBar@@H@Z
	DD	FLAT:?WinHelpA@CWnd@@UAEXKI@Z
	DD	FLAT:?HtmlHelpA@CWnd@@UAEXKI@Z
	DD	FLAT:?WinHelpInternal@CWnd@@UAEXKI@Z
	DD	FLAT:?ContinueModal@CWnd@@UAEHXZ
	DD	FLAT:?EndModalLoop@CWnd@@UAEXH@Z
	DD	FLAT:?OnDrawIconicThumbnailOrLivePreview@CWnd@@UAEXAAVCDC@@VCRect@@VCSize@@HAAH@Z
	DD	FLAT:?EnsureStdObj@CWnd@@UAEJXZ
	DD	FLAT:?get_accParent@CWnd@@UAEJPAPAUIDispatch@@@Z
	DD	FLAT:?get_accChildCount@CWnd@@UAEJPAJ@Z
	DD	FLAT:?get_accChild@CWnd@@UAEJUtagVARIANT@@PAPAUIDispatch@@@Z
	DD	FLAT:?get_accName@CWnd@@UAEJUtagVARIANT@@PAPA_W@Z
	DD	FLAT:?get_accValue@CWnd@@UAEJUtagVARIANT@@PAPA_W@Z
	DD	FLAT:?get_accDescription@CWnd@@UAEJUtagVARIANT@@PAPA_W@Z
	DD	FLAT:?get_accRole@CWnd@@UAEJUtagVARIANT@@PAU2@@Z
	DD	FLAT:?get_accState@CWnd@@UAEJUtagVARIANT@@PAU2@@Z
	DD	FLAT:?get_accHelp@CWnd@@UAEJUtagVARIANT@@PAPA_W@Z
	DD	FLAT:?get_accHelpTopic@CWnd@@UAEJPAPA_WUtagVARIANT@@PAJ@Z
	DD	FLAT:?get_accKeyboardShortcut@CWnd@@UAEJUtagVARIANT@@PAPA_W@Z
	DD	FLAT:?get_accFocus@CWnd@@UAEJPAUtagVARIANT@@@Z
	DD	FLAT:?get_accSelection@CWnd@@UAEJPAUtagVARIANT@@@Z
	DD	FLAT:?get_accDefaultAction@CWnd@@UAEJUtagVARIANT@@PAPA_W@Z
	DD	FLAT:?accSelect@CWnd@@UAEJJUtagVARIANT@@@Z
	DD	FLAT:?accLocation@CWnd@@UAEJPAJ000UtagVARIANT@@@Z
	DD	FLAT:?accNavigate@CWnd@@UAEJJUtagVARIANT@@PAU2@@Z
	DD	FLAT:?accHitTest@CWnd@@UAEJJJPAUtagVARIANT@@@Z
	DD	FLAT:?accDoDefaultAction@CWnd@@UAEJUtagVARIANT@@@Z
	DD	FLAT:?put_accName@CWnd@@UAEJUtagVARIANT@@PA_W@Z
	DD	FLAT:?put_accValue@CWnd@@UAEJUtagVARIANT@@PA_W@Z
	DD	FLAT:?SetProxy@CWnd@@UAEJPAUIAccessibleProxy@@@Z
	DD	FLAT:?CreateAccessibleProxy@CWnd@@UAEJIJPAJ@Z
	DD	FLAT:?OnCommand@CWnd@@MAEHIJ@Z
	DD	FLAT:?OnNotify@CWnd@@MAEHIJPAJ@Z
	DD	FLAT:?GetSuperWndProcAddr@CWnd@@MAEPAP6GJPAUHWND__@@IIJ@ZXZ
	DD	FLAT:?DoDataExchange@CWnd@@MAEXPAVCDataExchange@@@Z
	DD	FLAT:?BeginModalState@CWnd@@UAEXXZ
	DD	FLAT:?EndModalState@CWnd@@UAEXXZ
	DD	FLAT:?PreTranslateMessage@CWnd@@UAEHPAUtagMSG@@@Z
	DD	FLAT:?OnAmbientProperty@CWnd@@UAEHPAVCOleControlSite@@JPAUtagVARIANT@@@Z
	DD	FLAT:?WindowProc@CWnd@@MAEJIIJ@Z
	DD	FLAT:?OnWndMsg@CWnd@@MAEHIIJPAJ@Z
	DD	FLAT:?DefWindowProcA@CWnd@@MAEJIIJ@Z
	DD	FLAT:?PostNcDestroy@CWnd@@MAEXXZ
	DD	FLAT:?OnChildNotify@CButton@@MAEHIIJPAJ@Z
	DD	FLAT:?OnTouchInputs@CWnd@@MAEHIPAUtagTOUCHINPUT@@@Z
	DD	FLAT:?OnTouchInput@CWnd@@MAEHVCPoint@@HHPAUtagTOUCHINPUT@@@Z
	DD	FLAT:?GetGestureStatus@CWnd@@MAEKVCPoint@@@Z
	DD	FLAT:?OnGestureZoom@CWnd@@MAEHVCPoint@@J@Z
	DD	FLAT:?OnGesturePan@CWnd@@MAEHVCPoint@@0@Z
	DD	FLAT:?OnGestureRotate@CWnd@@MAEHVCPoint@@N@Z
	DD	FLAT:?OnGestureTwoFingerTap@CWnd@@MAEHVCPoint@@@Z
	DD	FLAT:?OnGesturePressAndTap@CWnd@@MAEHVCPoint@@J@Z
	DD	FLAT:?ResizeDynamicLayout@CWnd@@MAEXXZ
	DD	FLAT:?CheckAutoCenter@CWnd@@UAEHXZ
	DD	FLAT:?IsFrameWnd@CWnd@@UBEHXZ
	DD	FLAT:?CreateControlContainer@CWnd@@MAEHPAPAVCOleControlContainer@@@Z
	DD	FLAT:?CreateControlSite@CWnd@@MAEHPAVCOleControlContainer@@PAPAVCOleControlSite@@IABU_GUID@@@Z
	DD	FLAT:?SetOccDialogInfo@CWnd@@MAEHPAU_AFX_OCC_DIALOG_INFO@@@Z
	DD	FLAT:?GetOccDialogInfo@CWnd@@MAEPAU_AFX_OCC_DIALOG_INFO@@XZ
	DD	FLAT:?Create@CButton@@UAEHPBDKABUtagRECT@@PAVCWnd@@I@Z
	DD	FLAT:?DrawItem@CButton@@UAEXPAUtagDRAWITEMSTRUCT@@@Z
CONST	ENDS
;	COMDAT xdata$x
xdata$x	SEGMENT
__ehfuncinfo$??1CMultiLanguageResourceSetter@@QAE@XZ DD 019930522H
	DD	00H
	DD	00H
	DD	2 DUP(00H)
	DD	2 DUP(00H)
	DD	00H
	DD	05H
xdata$x	ENDS
;	COMDAT xdata$x
xdata$x	SEGMENT
__unwindtable$?OnBtnDown@CSetting_Volume@@IAEXXZ DD 0ffffffffH
	DD	FLAT:__unwindfunclet$?OnBtnDown@CSetting_Volume@@IAEXXZ$0
__ehfuncinfo$?OnBtnDown@CSetting_Volume@@IAEXXZ DD 019930522H
	DD	01H
	DD	FLAT:__unwindtable$?OnBtnDown@CSetting_Volume@@IAEXXZ
	DD	2 DUP(00H)
	DD	2 DUP(00H)
	DD	00H
	DD	01H
xdata$x	ENDS
;	COMDAT xdata$x
xdata$x	SEGMENT
__unwindtable$?OnBtnUp@CSetting_Volume@@IAEXXZ DD 0ffffffffH
	DD	FLAT:__unwindfunclet$?OnBtnUp@CSetting_Volume@@IAEXXZ$0
__ehfuncinfo$?OnBtnUp@CSetting_Volume@@IAEXXZ DD 019930522H
	DD	01H
	DD	FLAT:__unwindtable$?OnBtnUp@CSetting_Volume@@IAEXXZ
	DD	2 DUP(00H)
	DD	2 DUP(00H)
	DD	00H
	DD	01H
xdata$x	ENDS
;	COMDAT xdata$x
xdata$x	SEGMENT
__unwindtable$?OnSimpleVolume@CSetting_Volume@@IAEXXZ DD 0ffffffffH
	DD	FLAT:__unwindfunclet$?OnSimpleVolume@CSetting_Volume@@IAEXXZ$0
	DD	00H
	DD	FLAT:__unwindfunclet$?OnSimpleVolume@CSetting_Volume@@IAEXXZ$1
	DD	0ffffffffH
	DD	FLAT:___std_terminate
__ehfuncinfo$?OnSimpleVolume@CSetting_Volume@@IAEXXZ DD 019930522H
	DD	03H
	DD	FLAT:__unwindtable$?OnSimpleVolume@CSetting_Volume@@IAEXXZ
	DD	2 DUP(00H)
	DD	2 DUP(00H)
	DD	00H
	DD	01H
xdata$x	ENDS
;	COMDAT xdata$x
xdata$x	SEGMENT
__ehfuncinfo$??0CSetting_Volume@@QAE@PAUIChartOCX135914@@PAVCWnd@@1@Z DD 019930522H
	DD	06H
	DD	FLAT:__unwindtable$??0CSetting_Volume@@QAE@PAUIChartOCX135914@@PAVCWnd@@1@Z
	DD	2 DUP(00H)
	DD	2 DUP(00H)
	DD	00H
	DD	01H
__unwindtable$??0CSetting_Volume@@QAE@PAUIChartOCX135914@@PAVCWnd@@1@Z DD 0ffffffffH
	DD	FLAT:__unwindfunclet$??0CSetting_Volume@@QAE@PAUIChartOCX135914@@PAVCWnd@@1@Z$0
	DD	00H
	DD	FLAT:__unwindfunclet$??0CSetting_Volume@@QAE@PAUIChartOCX135914@@PAVCWnd@@1@Z$1
	DD	01H
	DD	FLAT:__unwindfunclet$??0CSetting_Volume@@QAE@PAUIChartOCX135914@@PAVCWnd@@1@Z$2
	DD	02H
	DD	FLAT:__unwindfunclet$??0CSetting_Volume@@QAE@PAUIChartOCX135914@@PAVCWnd@@1@Z$3
	DD	03H
	DD	FLAT:__unwindfunclet$??0CSetting_Volume@@QAE@PAUIChartOCX135914@@PAVCWnd@@1@Z$4
	DD	04H
	DD	FLAT:__unwindfunclet$??0CSetting_Volume@@QAE@PAUIChartOCX135914@@PAVCWnd@@1@Z$5
xdata$x	ENDS
; Function compile flags: /Ogtp
; File D:\git\src\IBK\IBK_DRFN\ProjSrc\SrcChartEx\ChartAddIn\ChartEnvSetupDlgAddIn\Include_Chart\Dll_Load\IMetaTable.h
; File C:\Program Files (x86)\Microsoft Visual Studio\2019\Community\VC\Tools\MSVC\14.29.30133\atlmfc\include\afxwin1.inl
; File D:\git\src\IBK\IBK_DRFN\ProjSrc\SrcChartEx\ChartAddIn\ChartEnvSetupDlgAddIn\Include_Chart\Dll_Load\IMetaTable.h
;	COMDAT ??1CMultiLanguageResourceSetter@@QAE@XZ
_TEXT	SEGMENT
__$EHRec$ = -12						; size = 12
??1CMultiLanguageResourceSetter@@QAE@XZ PROC		; CMultiLanguageResourceSetter::~CMultiLanguageResourceSetter, COMDAT
; _this$ = ecx

; 1036 : 	{

  00000	55		 push	 ebp
  00001	8b ec		 mov	 ebp, esp
  00003	6a ff		 push	 -1
  00005	68 00 00 00 00	 push	 __ehhandler$??1CMultiLanguageResourceSetter@@QAE@XZ
  0000a	64 a1 00 00 00
	00		 mov	 eax, DWORD PTR fs:0
  00010	50		 push	 eax
  00011	56		 push	 esi
  00012	a1 00 00 00 00	 mov	 eax, DWORD PTR ___security_cookie
  00017	33 c5		 xor	 eax, ebp
  00019	50		 push	 eax
  0001a	8d 45 f4	 lea	 eax, DWORD PTR __$EHRec$[ebp]
  0001d	64 a3 00 00 00
	00		 mov	 DWORD PTR fs:0, eax

; 1037 : 		AfxSetResourceHandle( m_hInstance);

  00023	8b 31		 mov	 esi, DWORD PTR [ecx]
; File C:\Program Files (x86)\Microsoft Visual Studio\2019\Community\VC\Tools\MSVC\14.29.30133\atlmfc\include\afxwin1.inl

; 27   : 	{ ASSERT(hInstResource != NULL); afxCurrentResourceHandle = hInstResource; }

  00025	e8 00 00 00 00	 call	 ?AfxGetModuleState@@YGPAVAFX_MODULE_STATE@@XZ ; AfxGetModuleState
  0002a	89 70 0c	 mov	 DWORD PTR [eax+12], esi
; File D:\git\src\IBK\IBK_DRFN\ProjSrc\SrcChartEx\ChartAddIn\ChartEnvSetupDlgAddIn\Include_Chart\Dll_Load\IMetaTable.h

; 1038 : 	}

  0002d	8b 4d f4	 mov	 ecx, DWORD PTR __$EHRec$[ebp]
  00030	64 89 0d 00 00
	00 00		 mov	 DWORD PTR fs:0, ecx
  00037	59		 pop	 ecx
  00038	5e		 pop	 esi
  00039	8b e5		 mov	 esp, ebp
  0003b	5d		 pop	 ebp
  0003c	c3		 ret	 0
  0003d	cc		 int	 3
  0003e	cc		 int	 3
  0003f	cc		 int	 3
  00040	cc		 int	 3
  00041	cc		 int	 3
_TEXT	ENDS
;	COMDAT text$x
text$x	SEGMENT
__ehhandler$??1CMultiLanguageResourceSetter@@QAE@XZ:
  00000	90		 npad	 1
  00001	90		 npad	 1
  00002	8b 54 24 08	 mov	 edx, DWORD PTR [esp+8]
  00006	8d 42 0c	 lea	 eax, DWORD PTR [edx+12]
  00009	8b 4a f8	 mov	 ecx, DWORD PTR [edx-8]
  0000c	33 c8		 xor	 ecx, eax
  0000e	e8 00 00 00 00	 call	 @__security_check_cookie@4
  00013	b8 00 00 00 00	 mov	 eax, OFFSET __ehfuncinfo$??1CMultiLanguageResourceSetter@@QAE@XZ
  00018	e9 00 00 00 00	 jmp	 ___CxxFrameHandler3
text$x	ENDS
??1CMultiLanguageResourceSetter@@QAE@XZ ENDP		; CMultiLanguageResourceSetter::~CMultiLanguageResourceSetter
; Function compile flags: /Ogtp
; File D:\git\src\IBK\IBK_DRFN\ProjSrc\SrcChartEx\ChartAddIn\ChartEnvSetupDlgAddIn\ChartEnvSetupDlgAddIn\Setting_Volume.cpp
; File C:\Program Files (x86)\Microsoft Visual Studio\2019\Community\VC\Tools\MSVC\14.29.30133\atlmfc\include\afx.inl
;	COMDAT ??_GCSetting_Volume@@UAEPAXI@Z
_TEXT	SEGMENT
___flags$ = 8						; size = 4
??_GCSetting_Volume@@UAEPAXI@Z PROC			; CSetting_Volume::`scalar deleting destructor', COMDAT
; _this$ = ecx
  00000	55		 push	 ebp
  00001	8b ec		 mov	 ebp, esp
; File D:\git\src\IBK\IBK_DRFN\ProjSrc\SrcChartEx\ChartAddIn\ChartEnvSetupDlgAddIn\ChartEnvSetupDlgAddIn\Setting_Volume.cpp

; 54   : {

  00003	56		 push	 esi
  00004	8b f1		 mov	 esi, ecx

; 55   : }

  00006	8d 8e 88 03 00
	00		 lea	 ecx, DWORD PTR [esi+904]
  0000c	c7 06 00 00 00
	00		 mov	 DWORD PTR [esi], OFFSET ??_7CSetting_Volume@@6B@
  00012	e8 00 00 00 00	 call	 ??1CButton@@UAE@XZ	; CButton::~CButton
  00017	8d 8e 08 03 00
	00		 lea	 ecx, DWORD PTR [esi+776]
  0001d	e8 00 00 00 00	 call	 ??1CButton@@UAE@XZ	; CButton::~CButton
  00022	8d 8e 80 02 00
	00		 lea	 ecx, DWORD PTR [esi+640]
  00028	e8 00 00 00 00	 call	 ??1CColorButton@@UAE@XZ	; CColorButton::~CColorButton
  0002d	8d 8e f8 01 00
	00		 lea	 ecx, DWORD PTR [esi+504]
  00033	e8 00 00 00 00	 call	 ??1CColorButton@@UAE@XZ	; CColorButton::~CColorButton
  00038	8d 8e 78 01 00
	00		 lea	 ecx, DWORD PTR [esi+376]
  0003e	e8 00 00 00 00	 call	 ??1CButton@@UAE@XZ	; CButton::~CButton
  00043	8d 8e f8 00 00
	00		 lea	 ecx, DWORD PTR [esi+248]
  00049	e8 00 00 00 00	 call	 ??1CButton@@UAE@XZ	; CButton::~CButton
  0004e	8b ce		 mov	 ecx, esi
  00050	e8 00 00 00 00	 call	 ??1CBaseDialog@@UAE@XZ	; CBaseDialog::~CBaseDialog
  00055	8b 45 08	 mov	 eax, DWORD PTR ___flags$[ebp]
  00058	a8 01		 test	 al, 1
  0005a	74 22		 je	 SHORT $LN12@scalar
  0005c	a8 04		 test	 al, 4
  0005e	75 10		 jne	 SHORT $LN3@scalar
; File C:\Program Files (x86)\Microsoft Visual Studio\2019\Community\VC\Tools\MSVC\14.29.30133\atlmfc\include\afx.inl

; 112  : 	{ ::operator delete(p); }

  00060	56		 push	 esi
  00061	e8 00 00 00 00	 call	 ??3@YAXPAX@Z		; operator delete
  00066	83 c4 04	 add	 esp, 4
  00069	8b c6		 mov	 eax, esi
  0006b	5e		 pop	 esi
  0006c	5d		 pop	 ebp
  0006d	c2 04 00	 ret	 4
$LN3@scalar:
  00070	68 10 04 00 00	 push	 1040			; 00000410H
  00075	56		 push	 esi
  00076	e8 00 00 00 00	 call	 ?__global_delete@@YAXPAXI@Z ; __global_delete
  0007b	83 c4 08	 add	 esp, 8
$LN12@scalar:
  0007e	8b c6		 mov	 eax, esi
  00080	5e		 pop	 esi
  00081	5d		 pop	 ebp
  00082	c2 04 00	 ret	 4
??_GCSetting_Volume@@UAEPAXI@Z ENDP			; CSetting_Volume::`scalar deleting destructor'
_TEXT	ENDS
; Function compile flags: /Ogtp
; File D:\git\src\IBK\IBK_DRFN\ProjSrc\SrcChartEx\ChartAddIn\ChartEnvSetupDlgAddIn\ChartEnvSetupDlgAddIn\Setting_Volume.cpp
; File C:\Program Files (x86)\Microsoft Visual Studio\2019\Community\VC\Tools\MSVC\14.29.30133\atlmfc\include\afxwin2.inl
; File D:\git\src\IBK\IBK_DRFN\ProjSrc\SrcChartEx\ChartAddIn\ChartEnvSetupDlgAddIn\ChartEnvSetupDlgAddIn\Setting_Volume.cpp
; File C:\Program Files (x86)\Microsoft Visual Studio\2019\Community\VC\Tools\MSVC\14.29.30133\atlmfc\include\afxwin2.inl
; File D:\git\src\IBK\IBK_DRFN\ProjSrc\SrcChartEx\ChartAddIn\ChartEnvSetupDlgAddIn\ChartEnvSetupDlgAddIn\Setting_Volume.cpp
; File C:\Program Files (x86)\Microsoft Visual Studio\2019\Community\VC\Tools\MSVC\14.29.30133\atlmfc\include\afxwin2.inl
; File D:\git\src\IBK\IBK_DRFN\ProjSrc\SrcChartEx\ChartAddIn\ChartEnvSetupDlgAddIn\ChartEnvSetupDlgAddIn\Setting_Volume.cpp
; File C:\Program Files (x86)\Microsoft Visual Studio\2019\Community\VC\Tools\MSVC\14.29.30133\atlmfc\include\afxwin2.inl
; File D:\git\src\IBK\IBK_DRFN\ProjSrc\SrcChartEx\ChartAddIn\ChartEnvSetupDlgAddIn\ChartEnvSetupDlgAddIn\Setting_Volume.cpp
;	COMDAT ?GetCheckToRadio@CSetting_Volume@@AAEHXZ
_TEXT	SEGMENT
_pUpDownButton$1$ = -8					; size = 4
_pButton$1$ = -4					; size = 4
?GetCheckToRadio@CSetting_Volume@@AAEHXZ PROC		; CSetting_Volume::GetCheckToRadio, COMDAT
; _this$ = ecx

; 467  : {

  00000	55		 push	 ebp
  00001	8b ec		 mov	 ebp, esp
  00003	83 ec 08	 sub	 esp, 8
  00006	53		 push	 ebx
  00007	56		 push	 esi
  00008	57		 push	 edi

; 468  : 	CButton *pButton = (CButton *)GetDlgItem(IDC_SIMPLE_VOLUME);	

  00009	68 13 04 00 00	 push	 1043			; 00000413H
  0000e	8b f1		 mov	 esi, ecx
  00010	e8 00 00 00 00	 call	 ?GetDlgItem@CWnd@@QBEPAV1@H@Z ; CWnd::GetDlgItem

; 469  : 	CButton *pUpDownButton = (CButton *)GetDlgItem(IDC_UPDOWN_VOLUME);

  00015	68 14 04 00 00	 push	 1044			; 00000414H
  0001a	8b ce		 mov	 ecx, esi
  0001c	89 45 fc	 mov	 DWORD PTR _pButton$1$[ebp], eax
  0001f	e8 00 00 00 00	 call	 ?GetDlgItem@CWnd@@QBEPAV1@H@Z ; CWnd::GetDlgItem

; 470  : 	CButton *pSameBongButton = (CButton *)GetDlgItem(IDC_SAME_BONG);

  00024	68 15 04 00 00	 push	 1045			; 00000415H
  00029	8b ce		 mov	 ecx, esi
  0002b	89 45 f8	 mov	 DWORD PTR _pUpDownButton$1$[ebp], eax
  0002e	e8 00 00 00 00	 call	 ?GetDlgItem@CWnd@@QBEPAV1@H@Z ; CWnd::GetDlgItem

; 471  : 	CButton *pUpDownPriceButton = (CButton *)GetDlgItem(IDC_UPDOWN_PRICE);

  00033	68 16 04 00 00	 push	 1046			; 00000416H
  00038	8b ce		 mov	 ecx, esi
  0003a	8b d8		 mov	 ebx, eax
  0003c	e8 00 00 00 00	 call	 ?GetDlgItem@CWnd@@QBEPAV1@H@Z ; CWnd::GetDlgItem

; 473  : 	if(pButton != NULL && pButton->GetCheck())

  00041	8b 35 00 00 00
	00		 mov	 esi, DWORD PTR __imp__SendMessageA@16
  00047	8b f8		 mov	 edi, eax
  00049	8b 45 fc	 mov	 eax, DWORD PTR _pButton$1$[ebp]
  0004c	85 c0		 test	 eax, eax
  0004e	74 12		 je	 SHORT $LN2@GetCheckTo
; File C:\Program Files (x86)\Microsoft Visual Studio\2019\Community\VC\Tools\MSVC\14.29.30133\atlmfc\include\afxwin2.inl

; 628  : 	{ ASSERT(::IsWindow(m_hWnd)); return (int)::SendMessage(m_hWnd, BM_GETCHECK, 0, 0); }

  00050	6a 00		 push	 0
  00052	6a 00		 push	 0
  00054	68 f0 00 00 00	 push	 240			; 000000f0H
  00059	ff 70 20	 push	 DWORD PTR [eax+32]
  0005c	ff d6		 call	 esi
; File D:\git\src\IBK\IBK_DRFN\ProjSrc\SrcChartEx\ChartAddIn\ChartEnvSetupDlgAddIn\ChartEnvSetupDlgAddIn\Setting_Volume.cpp

; 473  : 	if(pButton != NULL && pButton->GetCheck())

  0005e	85 c0		 test	 eax, eax
  00060	75 62		 jne	 SHORT $LN8@GetCheckTo
$LN2@GetCheckTo:

; 475  : 	else if(pUpDownButton != NULL && pUpDownButton->GetCheck())

  00062	8b 45 f8	 mov	 eax, DWORD PTR _pUpDownButton$1$[ebp]
  00065	85 c0		 test	 eax, eax
  00067	74 1e		 je	 SHORT $LN4@GetCheckTo
; File C:\Program Files (x86)\Microsoft Visual Studio\2019\Community\VC\Tools\MSVC\14.29.30133\atlmfc\include\afxwin2.inl

; 628  : 	{ ASSERT(::IsWindow(m_hWnd)); return (int)::SendMessage(m_hWnd, BM_GETCHECK, 0, 0); }

  00069	6a 00		 push	 0
  0006b	6a 00		 push	 0
  0006d	68 f0 00 00 00	 push	 240			; 000000f0H
  00072	ff 70 20	 push	 DWORD PTR [eax+32]
  00075	ff d6		 call	 esi
; File D:\git\src\IBK\IBK_DRFN\ProjSrc\SrcChartEx\ChartAddIn\ChartEnvSetupDlgAddIn\ChartEnvSetupDlgAddIn\Setting_Volume.cpp

; 475  : 	else if(pUpDownButton != NULL && pUpDownButton->GetCheck())

  00077	85 c0		 test	 eax, eax
  00079	74 0c		 je	 SHORT $LN4@GetCheckTo

; 485  : }

  0007b	5f		 pop	 edi
  0007c	5e		 pop	 esi
  0007d	b8 02 00 00 00	 mov	 eax, 2
  00082	5b		 pop	 ebx
  00083	8b e5		 mov	 esp, ebp
  00085	5d		 pop	 ebp
  00086	c3		 ret	 0
$LN4@GetCheckTo:

; 477  : 	else if(pSameBongButton != NULL && pSameBongButton->GetCheck())

  00087	85 db		 test	 ebx, ebx
  00089	74 1e		 je	 SHORT $LN6@GetCheckTo
; File C:\Program Files (x86)\Microsoft Visual Studio\2019\Community\VC\Tools\MSVC\14.29.30133\atlmfc\include\afxwin2.inl

; 628  : 	{ ASSERT(::IsWindow(m_hWnd)); return (int)::SendMessage(m_hWnd, BM_GETCHECK, 0, 0); }

  0008b	6a 00		 push	 0
  0008d	6a 00		 push	 0
  0008f	68 f0 00 00 00	 push	 240			; 000000f0H
  00094	ff 73 20	 push	 DWORD PTR [ebx+32]
  00097	ff d6		 call	 esi
; File D:\git\src\IBK\IBK_DRFN\ProjSrc\SrcChartEx\ChartAddIn\ChartEnvSetupDlgAddIn\ChartEnvSetupDlgAddIn\Setting_Volume.cpp

; 477  : 	else if(pSameBongButton != NULL && pSameBongButton->GetCheck())

  00099	85 c0		 test	 eax, eax
  0009b	74 0c		 je	 SHORT $LN6@GetCheckTo

; 485  : }

  0009d	5f		 pop	 edi
  0009e	5e		 pop	 esi
  0009f	b8 03 00 00 00	 mov	 eax, 3
  000a4	5b		 pop	 ebx
  000a5	8b e5		 mov	 esp, ebp
  000a7	5d		 pop	 ebp
  000a8	c3		 ret	 0
$LN6@GetCheckTo:

; 480  : 	else if(pUpDownPriceButton != NULL && pUpDownPriceButton->GetCheck())

  000a9	85 ff		 test	 edi, edi
  000ab	74 17		 je	 SHORT $LN8@GetCheckTo
; File C:\Program Files (x86)\Microsoft Visual Studio\2019\Community\VC\Tools\MSVC\14.29.30133\atlmfc\include\afxwin2.inl

; 628  : 	{ ASSERT(::IsWindow(m_hWnd)); return (int)::SendMessage(m_hWnd, BM_GETCHECK, 0, 0); }

  000ad	6a 00		 push	 0
  000af	6a 00		 push	 0
  000b1	68 f0 00 00 00	 push	 240			; 000000f0H
  000b6	ff 77 20	 push	 DWORD PTR [edi+32]
  000b9	ff d6		 call	 esi
; File D:\git\src\IBK\IBK_DRFN\ProjSrc\SrcChartEx\ChartAddIn\ChartEnvSetupDlgAddIn\ChartEnvSetupDlgAddIn\Setting_Volume.cpp

; 480  : 	else if(pUpDownPriceButton != NULL && pUpDownPriceButton->GetCheck())

  000bb	85 c0		 test	 eax, eax

; 481  : 		return 4;

  000bd	b8 04 00 00 00	 mov	 eax, 4
  000c2	75 05		 jne	 SHORT $LN1@GetCheckTo
$LN8@GetCheckTo:

; 482  : 	//sy end
; 483  : 
; 484  : 	return 1;

  000c4	b8 01 00 00 00	 mov	 eax, 1
$LN1@GetCheckTo:
  000c9	5f		 pop	 edi

; 485  : }

  000ca	5e		 pop	 esi
  000cb	5b		 pop	 ebx
  000cc	8b e5		 mov	 esp, ebp
  000ce	5d		 pop	 ebp
  000cf	c3		 ret	 0
?GetCheckToRadio@CSetting_Volume@@AAEHXZ ENDP		; CSetting_Volume::GetCheckToRadio
_TEXT	ENDS
; Function compile flags: /Ogtp
; File D:\git\src\IBK\IBK_DRFN\ProjSrc\SrcChartEx\ChartAddIn\ChartEnvSetupDlgAddIn\ChartEnvSetupDlgAddIn\Setting_Volume.cpp
; File C:\Program Files (x86)\Microsoft Visual Studio\2019\Community\VC\Tools\MSVC\14.29.30133\atlmfc\include\afxwin2.inl
; File D:\git\src\IBK\IBK_DRFN\ProjSrc\SrcChartEx\ChartAddIn\ChartEnvSetupDlgAddIn\ChartEnvSetupDlgAddIn\Setting_Volume.cpp
; File C:\Program Files (x86)\Microsoft Visual Studio\2019\Community\VC\Tools\MSVC\14.29.30133\atlmfc\include\afxwin2.inl
; File D:\git\src\IBK\IBK_DRFN\ProjSrc\SrcChartEx\ChartAddIn\ChartEnvSetupDlgAddIn\ChartEnvSetupDlgAddIn\Setting_Volume.cpp
; File C:\Program Files (x86)\Microsoft Visual Studio\2019\Community\VC\Tools\MSVC\14.29.30133\atlmfc\include\afxwin2.inl
; File D:\git\src\IBK\IBK_DRFN\ProjSrc\SrcChartEx\ChartAddIn\ChartEnvSetupDlgAddIn\ChartEnvSetupDlgAddIn\Setting_Volume.cpp
; File C:\Program Files (x86)\Microsoft Visual Studio\2019\Community\VC\Tools\MSVC\14.29.30133\atlmfc\include\afxwin2.inl
; File D:\git\src\IBK\IBK_DRFN\ProjSrc\SrcChartEx\ChartAddIn\ChartEnvSetupDlgAddIn\ChartEnvSetupDlgAddIn\Setting_Volume.cpp
; File C:\Program Files (x86)\Microsoft Visual Studio\2019\Community\VC\Tools\MSVC\14.29.30133\atlmfc\include\afxwin2.inl
; File D:\git\src\IBK\IBK_DRFN\ProjSrc\SrcChartEx\ChartAddIn\ChartEnvSetupDlgAddIn\ChartEnvSetupDlgAddIn\Setting_Volume.cpp
; File C:\Program Files (x86)\Microsoft Visual Studio\2019\Community\VC\Tools\MSVC\14.29.30133\atlmfc\include\afxwin2.inl
; File D:\git\src\IBK\IBK_DRFN\ProjSrc\SrcChartEx\ChartAddIn\ChartEnvSetupDlgAddIn\ChartEnvSetupDlgAddIn\Setting_Volume.cpp
;	COMDAT ?Initial_ColorButton@CSetting_Volume@@AAEXPAUIGraphInfo135914@@H@Z
_TEXT	SEGMENT
_dDrawType$1 = -24					; size = 8
_nDrawType$1$ = -16					; size = 4
_pUpDownPriceButton$1$ = -12				; size = 4
_pUpDownButton$1$ = -8					; size = 4
_psn$2 = -4						; size = 4
_pSameBongButton$1$ = 8					; size = 4
_p_pIGraphInfo$ = 8					; size = 4
_pButton$1$ = 12					; size = 4
_m_nSubGraphIndex$ = 12					; size = 4
?Initial_ColorButton@CSetting_Volume@@AAEXPAUIGraphInfo135914@@H@Z PROC ; CSetting_Volume::Initial_ColorButton, COMDAT
; _this$ = ecx

; 143  : {

  00000	55		 push	 ebp
  00001	8b ec		 mov	 ebp, esp
  00003	83 ec 18	 sub	 esp, 24			; 00000018H
  00006	53		 push	 ebx

; 144  : 	if( m_nSubGraphIndex < 0
; 145  : 		|| p_pIGraphInfo == NULL) return;

  00007	8b 5d 0c	 mov	 ebx, DWORD PTR _m_nSubGraphIndex$[ebp]
  0000a	56		 push	 esi
  0000b	8b f1		 mov	 esi, ecx
  0000d	85 db		 test	 ebx, ebx
  0000f	0f 88 d1 02 00
	00		 js	 $LN7@Initial_Co
  00015	83 7d 08 00	 cmp	 DWORD PTR _p_pIGraphInfo$[ebp], 0
  00019	0f 84 c7 02 00
	00		 je	 $LN7@Initial_Co

; 146  : 
; 147  : 	CButton *pButton = (CButton *)GetDlgItem(IDC_SIMPLE_VOLUME);	

  0001f	57		 push	 edi
  00020	68 13 04 00 00	 push	 1043			; 00000413H
  00025	e8 00 00 00 00	 call	 ?GetDlgItem@CWnd@@QBEPAV1@H@Z ; CWnd::GetDlgItem

; 148  : 	CButton *pUpDownButton = (CButton *)GetDlgItem(IDC_UPDOWN_VOLUME);

  0002a	68 14 04 00 00	 push	 1044			; 00000414H
  0002f	8b ce		 mov	 ecx, esi
  00031	89 45 0c	 mov	 DWORD PTR _pButton$1$[ebp], eax
  00034	e8 00 00 00 00	 call	 ?GetDlgItem@CWnd@@QBEPAV1@H@Z ; CWnd::GetDlgItem
  00039	8b f8		 mov	 edi, eax

; 149  : 	CButton *pSameBongButton = (CButton *)GetDlgItem(IDC_SAME_BONG);

  0003b	8b ce		 mov	 ecx, esi
  0003d	68 15 04 00 00	 push	 1045			; 00000415H
  00042	89 7d f8	 mov	 DWORD PTR _pUpDownButton$1$[ebp], edi
  00045	e8 00 00 00 00	 call	 ?GetDlgItem@CWnd@@QBEPAV1@H@Z ; CWnd::GetDlgItem

; 150  : 	//sy 2005.11.02.
; 151  : 	CButton *pUpDownPriceButton = (CButton *)GetDlgItem(IDC_UPDOWN_PRICE);

  0004a	68 16 04 00 00	 push	 1046			; 00000416H
  0004f	8b ce		 mov	 ecx, esi
  00051	89 45 08	 mov	 DWORD PTR _pSameBongButton$1$[ebp], eax
  00054	e8 00 00 00 00	 call	 ?GetDlgItem@CWnd@@QBEPAV1@H@Z ; CWnd::GetDlgItem

; 152  : 	if(pButton == NULL || pUpDownButton == NULL || pSameBongButton == NULL || pUpDownPriceButton == NULL)

  00059	83 7d 0c 00	 cmp	 DWORD PTR _pButton$1$[ebp], 0
  0005d	89 45 f4	 mov	 DWORD PTR _pUpDownPriceButton$1$[ebp], eax
  00060	0f 84 7f 02 00
	00		 je	 $LN57@Initial_Co
  00066	85 ff		 test	 edi, edi
  00068	0f 84 77 02 00
	00		 je	 $LN57@Initial_Co
  0006e	83 7d 08 00	 cmp	 DWORD PTR _pSameBongButton$1$[ebp], 0
  00072	0f 84 6d 02 00
	00		 je	 $LN57@Initial_Co
  00078	85 c0		 test	 eax, eax
  0007a	0f 84 65 02 00
	00		 je	 $LN57@Initial_Co

; 153  : 		return;
; 154  : 	//sy end
; 155  : 
; 156  : 	// Type    .
; 157  : 	//sy 2006.04.12. -> "" title    
; 158  : 	int nDrawType = 1;
; 159  : 	IDoubleList *pIDrawCondition = m_pIGraphInfo->GetDrawConditionList();

  00080	8b 8e c4 00 00
	00		 mov	 ecx, DWORD PTR [esi+196]
  00086	c7 45 f0 01 00
	00 00		 mov	 DWORD PTR _nDrawType$1$[ebp], 1
  0008d	8b 01		 mov	 eax, DWORD PTR [ecx]
  0008f	ff 50 14	 call	 DWORD PTR [eax+20]
  00092	8b f8		 mov	 edi, eax

; 160  : 	if( pIDrawCondition)

  00094	85 ff		 test	 edi, edi
  00096	0f 84 8e 00 00
	00		 je	 $LN8@Initial_Co

; 161  : 	{
; 162  : 		double dDrawType = -1;
; 163  : 		POSITION psn = pIDrawCondition->GetHeadPosition( );

  0009c	8b 17		 mov	 edx, DWORD PTR [edi]
  0009e	8b cf		 mov	 ecx, edi
  000a0	f2 0f 10 05 00
	00 00 00	 movsd	 xmm0, QWORD PTR __real@bff0000000000000
  000a8	f2 0f 11 45 e8	 movsd	 QWORD PTR _dDrawType$1[ebp], xmm0
  000ad	ff 52 34	 call	 DWORD PTR [edx+52]
  000b0	89 45 fc	 mov	 DWORD PTR _psn$2[ebp], eax

; 164  : 		if( psn)

  000b3	85 c0		 test	 eax, eax
  000b5	74 28		 je	 SHORT $LN10@Initial_Co

; 165  : 		{
; 166  : 			pIDrawCondition->GetNext( psn, dDrawType);

  000b7	8b 07		 mov	 eax, DWORD PTR [edi]
  000b9	8d 4d e8	 lea	 ecx, DWORD PTR _dDrawType$1[ebp]
  000bc	51		 push	 ecx
  000bd	8d 4d fc	 lea	 ecx, DWORD PTR _psn$2[ebp]
  000c0	51		 push	 ecx
  000c1	8b cf		 mov	 ecx, edi
  000c3	ff 50 3c	 call	 DWORD PTR [eax+60]

; 167  : 			if( 1 <= dDrawType) nDrawType = ( int)dDrawType;

  000c6	f2 0f 10 45 e8	 movsd	 xmm0, QWORD PTR _dDrawType$1[ebp]
  000cb	66 0f 2f 05 00
	00 00 00	 comisd	 xmm0, QWORD PTR __real@3ff0000000000000
  000d3	72 07		 jb	 SHORT $LN56@Initial_Co
  000d5	f2 0f 2c c0	 cvttsd2si eax, xmm0
  000d9	89 45 f0	 mov	 DWORD PTR _nDrawType$1$[ebp], eax
$LN56@Initial_Co:

; 168  : 		}
; 169  : 		dDrawType = -1;

  000dc	8b 45 fc	 mov	 eax, DWORD PTR _psn$2[ebp]
$LN10@Initial_Co:
  000df	f2 0f 10 05 00
	00 00 00	 movsd	 xmm0, QWORD PTR __real@bff0000000000000
  000e7	f2 0f 11 45 e8	 movsd	 QWORD PTR _dDrawType$1[ebp], xmm0

; 170  : 		if( psn)

  000ec	85 c0		 test	 eax, eax
  000ee	74 34		 je	 SHORT $LN13@Initial_Co

; 171  : 		{
; 172  : 			pIDrawCondition->GetNext( psn, dDrawType);

  000f0	8b 07		 mov	 eax, DWORD PTR [edi]
  000f2	8d 4d e8	 lea	 ecx, DWORD PTR _dDrawType$1[ebp]
  000f5	51		 push	 ecx
  000f6	8d 4d fc	 lea	 ecx, DWORD PTR _psn$2[ebp]
  000f9	51		 push	 ecx
  000fa	8b cf		 mov	 ecx, edi
  000fc	ff 50 3c	 call	 DWORD PTR [eax+60]

; 173  : 			if( 1 <= dDrawType) m_nTitleColorDrawCond = (int)dDrawType;

  000ff	f2 0f 10 45 e8	 movsd	 xmm0, QWORD PTR _dDrawType$1[ebp]
  00104	66 0f 2f 05 00
	00 00 00	 comisd	 xmm0, QWORD PTR __real@3ff0000000000000
  0010c	72 0c		 jb	 SHORT $LN12@Initial_Co
  0010e	f2 0f 2c c0	 cvttsd2si eax, xmm0
  00112	89 86 0c 04 00
	00		 mov	 DWORD PTR [esi+1036], eax
  00118	eb 0a		 jmp	 SHORT $LN13@Initial_Co
$LN12@Initial_Co:

; 174  : 			else m_nTitleColorDrawCond = 1;

  0011a	c7 86 0c 04 00
	00 01 00 00 00	 mov	 DWORD PTR [esi+1036], 1
$LN13@Initial_Co:

; 175  : 		}
; 176  : 		pIDrawCondition->Release();

  00124	8b 07		 mov	 eax, DWORD PTR [edi]
  00126	57		 push	 edi
  00127	ff 50 08	 call	 DWORD PTR [eax+8]
$LN8@Initial_Co:

; 177  : 	}
; 178  : 	//sy end
; 179  : 
; 180  : 	switch(nDrawType)

  0012a	8b 45 f0	 mov	 eax, DWORD PTR _nDrawType$1$[ebp]
  0012d	8b 3d 00 00 00
	00		 mov	 edi, DWORD PTR __imp__SendMessageA@16
  00133	48		 dec	 eax
  00134	83 f8 03	 cmp	 eax, 3
  00137	0f 87 72 01 00
	00		 ja	 $LN2@Initial_Co
  0013d	ff 24 85 00 00
	00 00		 jmp	 DWORD PTR $LN55@Initial_Co[eax*4]
$LN14@Initial_Co:
; File C:\Program Files (x86)\Microsoft Visual Studio\2019\Community\VC\Tools\MSVC\14.29.30133\atlmfc\include\afxwin2.inl

; 630  : 	{ ASSERT(::IsWindow(m_hWnd)); ::SendMessage(m_hWnd, BM_SETCHECK, nCheck, 0); }

  00144	8b 45 0c	 mov	 eax, DWORD PTR _pButton$1$[ebp]
  00147	6a 00		 push	 0
  00149	6a 01		 push	 1
  0014b	68 f1 00 00 00	 push	 241			; 000000f1H
  00150	ff 70 20	 push	 DWORD PTR [eax+32]
  00153	ff d7		 call	 edi
  00155	8b 45 f8	 mov	 eax, DWORD PTR _pUpDownButton$1$[ebp]
  00158	6a 00		 push	 0
  0015a	6a 00		 push	 0
  0015c	68 f1 00 00 00	 push	 241			; 000000f1H
  00161	ff 70 20	 push	 DWORD PTR [eax+32]
  00164	ff d7		 call	 edi
  00166	8b 45 08	 mov	 eax, DWORD PTR _pSameBongButton$1$[ebp]
  00169	6a 00		 push	 0
  0016b	6a 00		 push	 0
  0016d	68 f1 00 00 00	 push	 241			; 000000f1H
  00172	ff 70 20	 push	 DWORD PTR [eax+32]
  00175	ff d7		 call	 edi
  00177	8b 45 f4	 mov	 eax, DWORD PTR _pUpDownPriceButton$1$[ebp]
  0017a	6a 00		 push	 0
  0017c	6a 00		 push	 0
  0017e	68 f1 00 00 00	 push	 241			; 000000f1H
  00183	ff 70 20	 push	 DWORD PTR [eax+32]
  00186	ff d7		 call	 edi
; File D:\git\src\IBK\IBK_DRFN\ProjSrc\SrcChartEx\ChartAddIn\ChartEnvSetupDlgAddIn\ChartEnvSetupDlgAddIn\Setting_Volume.cpp

; 189  : 			OnSimpleVolume();

  00188	8b ce		 mov	 ecx, esi
  0018a	e8 00 00 00 00	 call	 ?OnSimpleVolume@CSetting_Volume@@IAEXXZ ; CSetting_Volume::OnSimpleVolume

; 190  : 
; 191  : 			Initial_FillUp(m_nSubGraphIndex, m_Fill_Bt);
; 192  : 			Initial_FillDown(m_nSubGraphIndex, m_FillDown_Bt);
; 193  : 			break;

  0018f	e9 fd 00 00 00	 jmp	 $LN58@Initial_Co
$LN15@Initial_Co:
; File C:\Program Files (x86)\Microsoft Visual Studio\2019\Community\VC\Tools\MSVC\14.29.30133\atlmfc\include\afxwin2.inl

; 630  : 	{ ASSERT(::IsWindow(m_hWnd)); ::SendMessage(m_hWnd, BM_SETCHECK, nCheck, 0); }

  00194	8b 45 0c	 mov	 eax, DWORD PTR _pButton$1$[ebp]
  00197	6a 00		 push	 0
  00199	6a 00		 push	 0
  0019b	68 f1 00 00 00	 push	 241			; 000000f1H
  001a0	ff 70 20	 push	 DWORD PTR [eax+32]
  001a3	ff d7		 call	 edi
  001a5	8b 45 f8	 mov	 eax, DWORD PTR _pUpDownButton$1$[ebp]
  001a8	6a 00		 push	 0
  001aa	6a 01		 push	 1
  001ac	68 f1 00 00 00	 push	 241			; 000000f1H
  001b1	ff 70 20	 push	 DWORD PTR [eax+32]
  001b4	ff d7		 call	 edi
  001b6	8b 45 08	 mov	 eax, DWORD PTR _pSameBongButton$1$[ebp]
  001b9	6a 00		 push	 0
  001bb	6a 00		 push	 0
  001bd	68 f1 00 00 00	 push	 241			; 000000f1H
  001c2	ff 70 20	 push	 DWORD PTR [eax+32]
  001c5	ff d7		 call	 edi
  001c7	8b 45 f4	 mov	 eax, DWORD PTR _pUpDownPriceButton$1$[ebp]
  001ca	6a 00		 push	 0
  001cc	6a 00		 push	 0
  001ce	68 f1 00 00 00	 push	 241			; 000000f1H
  001d3	ff 70 20	 push	 DWORD PTR [eax+32]
  001d6	ff d7		 call	 edi
; File D:\git\src\IBK\IBK_DRFN\ProjSrc\SrcChartEx\ChartAddIn\ChartEnvSetupDlgAddIn\ChartEnvSetupDlgAddIn\Setting_Volume.cpp

; 203  : 			OnUpdownVolume();

  001d8	8b ce		 mov	 ecx, esi
  001da	e8 00 00 00 00	 call	 ?OnUpdownVolume@CSetting_Volume@@IAEXXZ ; CSetting_Volume::OnUpdownVolume

; 204  : 
; 205  : 			Initial_FillUp(m_nSubGraphIndex, m_Fill_Bt);
; 206  : 			Initial_FillDown(m_nSubGraphIndex, m_FillDown_Bt);
; 207  : 			
; 208  : 			break;

  001df	e9 ad 00 00 00	 jmp	 $LN58@Initial_Co
$LN16@Initial_Co:
; File C:\Program Files (x86)\Microsoft Visual Studio\2019\Community\VC\Tools\MSVC\14.29.30133\atlmfc\include\afxwin2.inl

; 630  : 	{ ASSERT(::IsWindow(m_hWnd)); ::SendMessage(m_hWnd, BM_SETCHECK, nCheck, 0); }

  001e4	8b 45 0c	 mov	 eax, DWORD PTR _pButton$1$[ebp]
  001e7	6a 00		 push	 0
  001e9	6a 00		 push	 0
  001eb	68 f1 00 00 00	 push	 241			; 000000f1H
  001f0	ff 70 20	 push	 DWORD PTR [eax+32]
  001f3	ff d7		 call	 edi
  001f5	8b 45 f8	 mov	 eax, DWORD PTR _pUpDownButton$1$[ebp]
  001f8	6a 00		 push	 0
  001fa	6a 00		 push	 0
  001fc	68 f1 00 00 00	 push	 241			; 000000f1H
  00201	ff 70 20	 push	 DWORD PTR [eax+32]
  00204	ff d7		 call	 edi
  00206	8b 45 08	 mov	 eax, DWORD PTR _pSameBongButton$1$[ebp]
  00209	6a 00		 push	 0
  0020b	6a 01		 push	 1
  0020d	68 f1 00 00 00	 push	 241			; 000000f1H
  00212	ff 70 20	 push	 DWORD PTR [eax+32]
  00215	ff d7		 call	 edi
  00217	8b 45 f4	 mov	 eax, DWORD PTR _pUpDownPriceButton$1$[ebp]
  0021a	6a 00		 push	 0
  0021c	6a 00		 push	 0
  0021e	68 f1 00 00 00	 push	 241			; 000000f1H
  00223	ff 70 20	 push	 DWORD PTR [eax+32]
  00226	ff d7		 call	 edi
; File D:\git\src\IBK\IBK_DRFN\ProjSrc\SrcChartEx\ChartAddIn\ChartEnvSetupDlgAddIn\ChartEnvSetupDlgAddIn\Setting_Volume.cpp

; 218  : 			OnSameBong();

  00228	8b ce		 mov	 ecx, esi
  0022a	e8 00 00 00 00	 call	 ?OnSameBong@CSetting_Volume@@IAEXXZ ; CSetting_Volume::OnSameBong

; 219  : 
; 220  : 			Initial_FillUp(m_nSubGraphIndex, m_btnFillUp);

  0022f	8d 86 f8 00 00
	00		 lea	 eax, DWORD PTR [esi+248]
  00235	8b ce		 mov	 ecx, esi
  00237	50		 push	 eax
  00238	53		 push	 ebx
  00239	e8 00 00 00 00	 call	 ?Initial_FillUp@CBaseDialog@@IAEXHAAVCButton@@@Z ; CBaseDialog::Initial_FillUp

; 221  : 			Initial_FillDown(m_nSubGraphIndex, m_btnFillDown);

  0023e	8d 86 78 01 00
	00		 lea	 eax, DWORD PTR [esi+376]

; 222  : 			break;

  00244	eb 60		 jmp	 SHORT $LN59@Initial_Co
$LN17@Initial_Co:
; File C:\Program Files (x86)\Microsoft Visual Studio\2019\Community\VC\Tools\MSVC\14.29.30133\atlmfc\include\afxwin2.inl

; 630  : 	{ ASSERT(::IsWindow(m_hWnd)); ::SendMessage(m_hWnd, BM_SETCHECK, nCheck, 0); }

  00246	8b 45 0c	 mov	 eax, DWORD PTR _pButton$1$[ebp]
  00249	6a 00		 push	 0
  0024b	6a 00		 push	 0
  0024d	68 f1 00 00 00	 push	 241			; 000000f1H
  00252	ff 70 20	 push	 DWORD PTR [eax+32]
  00255	ff d7		 call	 edi
  00257	8b 45 f8	 mov	 eax, DWORD PTR _pUpDownButton$1$[ebp]
  0025a	6a 00		 push	 0
  0025c	6a 00		 push	 0
  0025e	68 f1 00 00 00	 push	 241			; 000000f1H
  00263	ff 70 20	 push	 DWORD PTR [eax+32]
  00266	ff d7		 call	 edi
  00268	8b 45 08	 mov	 eax, DWORD PTR _pSameBongButton$1$[ebp]
  0026b	6a 00		 push	 0
  0026d	6a 00		 push	 0
  0026f	68 f1 00 00 00	 push	 241			; 000000f1H
  00274	ff 70 20	 push	 DWORD PTR [eax+32]
  00277	ff d7		 call	 edi
  00279	8b 45 f4	 mov	 eax, DWORD PTR _pUpDownPriceButton$1$[ebp]
  0027c	6a 00		 push	 0
  0027e	6a 01		 push	 1
  00280	68 f1 00 00 00	 push	 241			; 000000f1H
  00285	ff 70 20	 push	 DWORD PTR [eax+32]
  00288	ff d7		 call	 edi
; File D:\git\src\IBK\IBK_DRFN\ProjSrc\SrcChartEx\ChartAddIn\ChartEnvSetupDlgAddIn\ChartEnvSetupDlgAddIn\Setting_Volume.cpp

; 232  : 			OnUpdownPrice();

  0028a	8b ce		 mov	 ecx, esi
  0028c	e8 00 00 00 00	 call	 ?OnUpdownPrice@CSetting_Volume@@IAEXXZ ; CSetting_Volume::OnUpdownPrice
$LN58@Initial_Co:

; 233  : 
; 234  : 			Initial_FillUp(m_nSubGraphIndex, m_Fill_Bt);
; 235  : 			Initial_FillDown(m_nSubGraphIndex, m_FillDown_Bt);
; 236  : 			break;
; 237  : 		}
; 238  : 	}
; 239  : 	
; 240  : 	m_btnFillUp.SetCheck( m_Fill_Bt.GetCheck() );

  00291	8d 86 88 03 00
	00		 lea	 eax, DWORD PTR [esi+904]
  00297	8b ce		 mov	 ecx, esi
  00299	50		 push	 eax
  0029a	53		 push	 ebx
  0029b	e8 00 00 00 00	 call	 ?Initial_FillUp@CBaseDialog@@IAEXHAAVCButton@@@Z ; CBaseDialog::Initial_FillUp
  002a0	8d 86 08 03 00
	00		 lea	 eax, DWORD PTR [esi+776]
$LN59@Initial_Co:
  002a6	50		 push	 eax
  002a7	53		 push	 ebx
  002a8	8b ce		 mov	 ecx, esi
  002aa	e8 00 00 00 00	 call	 ?Initial_FillDown@CBaseDialog@@IAEXHAAVCButton@@@Z ; CBaseDialog::Initial_FillDown
$LN2@Initial_Co:
  002af	8d 8e 88 03 00
	00		 lea	 ecx, DWORD PTR [esi+904]
  002b5	e8 00 00 00 00	 call	 ?GetCheck@CButton@@QBEHXZ ; CButton::GetCheck
; File C:\Program Files (x86)\Microsoft Visual Studio\2019\Community\VC\Tools\MSVC\14.29.30133\atlmfc\include\afxwin2.inl

; 630  : 	{ ASSERT(::IsWindow(m_hWnd)); ::SendMessage(m_hWnd, BM_SETCHECK, nCheck, 0); }

  002ba	6a 00		 push	 0
  002bc	50		 push	 eax
  002bd	68 f1 00 00 00	 push	 241			; 000000f1H
  002c2	ff b6 18 01 00
	00		 push	 DWORD PTR [esi+280]
  002c8	ff d7		 call	 edi
; File D:\git\src\IBK\IBK_DRFN\ProjSrc\SrcChartEx\ChartAddIn\ChartEnvSetupDlgAddIn\ChartEnvSetupDlgAddIn\Setting_Volume.cpp

; 241  : 	m_btnFillDown.SetCheck( m_FillDown_Bt.GetCheck() );

  002ca	8d 8e 08 03 00
	00		 lea	 ecx, DWORD PTR [esi+776]
  002d0	e8 00 00 00 00	 call	 ?GetCheck@CButton@@QBEHXZ ; CButton::GetCheck
; File C:\Program Files (x86)\Microsoft Visual Studio\2019\Community\VC\Tools\MSVC\14.29.30133\atlmfc\include\afxwin2.inl

; 630  : 	{ ASSERT(::IsWindow(m_hWnd)); ::SendMessage(m_hWnd, BM_SETCHECK, nCheck, 0); }

  002d5	6a 00		 push	 0
  002d7	50		 push	 eax
  002d8	68 f1 00 00 00	 push	 241			; 000000f1H
  002dd	ff b6 98 01 00
	00		 push	 DWORD PTR [esi+408]
  002e3	ff d7		 call	 edi
$LN57@Initial_Co:
  002e5	5f		 pop	 edi
$LN7@Initial_Co:
  002e6	5e		 pop	 esi
; File D:\git\src\IBK\IBK_DRFN\ProjSrc\SrcChartEx\ChartAddIn\ChartEnvSetupDlgAddIn\ChartEnvSetupDlgAddIn\Setting_Volume.cpp

; 242  : }

  002e7	5b		 pop	 ebx
  002e8	8b e5		 mov	 esp, ebp
  002ea	5d		 pop	 ebp
  002eb	c2 08 00	 ret	 8
  002ee	66 90		 npad	 2
$LN55@Initial_Co:
  002f0	00 00 00 00	 DD	 $LN14@Initial_Co
  002f4	00 00 00 00	 DD	 $LN15@Initial_Co
  002f8	00 00 00 00	 DD	 $LN16@Initial_Co
  002fc	00 00 00 00	 DD	 $LN17@Initial_Co
?Initial_ColorButton@CSetting_Volume@@AAEXPAUIGraphInfo135914@@H@Z ENDP ; CSetting_Volume::Initial_ColorButton
_TEXT	ENDS
; Function compile flags: /Ogtp
; File D:\git\src\IBK\IBK_DRFN\ProjSrc\SrcChartEx\ChartAddIn\ChartEnvSetupDlgAddIn\ChartEnvSetupDlgAddIn\Setting_Volume.cpp
;	COMDAT ?GetMessageMap@CSetting_Volume@@MBEPBUAFX_MSGMAP@@XZ
_TEXT	SEGMENT
?GetMessageMap@CSetting_Volume@@MBEPBUAFX_MSGMAP@@XZ PROC ; CSetting_Volume::GetMessageMap, COMDAT
; _this$ = ecx

; 72   : BEGIN_MESSAGE_MAP(CSetting_Volume, CBaseDialog)

  00000	b8 00 00 00 00	 mov	 eax, OFFSET ?messageMap@?1??GetThisMessageMap@CSetting_Volume@@KGPBUAFX_MSGMAP@@XZ@4U3@B
  00005	c3		 ret	 0
?GetMessageMap@CSetting_Volume@@MBEPBUAFX_MSGMAP@@XZ ENDP ; CSetting_Volume::GetMessageMap
_TEXT	ENDS
; Function compile flags: /Ogtp
; File D:\git\src\IBK\IBK_DRFN\ProjSrc\SrcChartEx\ChartAddIn\ChartEnvSetupDlgAddIn\ChartEnvSetupDlgAddIn\Setting_Volume.cpp
;	COMDAT ?GetThisMessageMap@CSetting_Volume@@KGPBUAFX_MSGMAP@@XZ
_TEXT	SEGMENT
?GetThisMessageMap@CSetting_Volume@@KGPBUAFX_MSGMAP@@XZ PROC ; CSetting_Volume::GetThisMessageMap, COMDAT

; 73   : 	//{{AFX_MSG_MAP(CSetting_Volume)
; 74   : 	ON_BN_CLICKED(IDC_UPDOWN_VOLUME, OnUpdownVolume)
; 75   : 	ON_BN_CLICKED(IDC_SIMPLE_VOLUME, OnSimpleVolume)
; 76   : 	ON_BN_CLICKED(IDC_SAME_BONG, OnSameBong)
; 77   : 	ON_BN_CLICKED(IDC_BTN_UP, OnBtnUp)
; 78   : 	ON_BN_CLICKED(IDC_BTN_DOWN, OnBtnDown)
; 79   : 	ON_BN_CLICKED(IDC_FILL, OnFill)
; 80   : 	ON_BN_CLICKED(IDC_FILL_DOWN, OnFillDown)
; 81   : 	ON_BN_CLICKED(IDC_CHECK_UP, OnCheckUp)
; 82   : 	ON_BN_CLICKED(IDC_CHECK_DOWN, OnCheckDown)
; 83   : 	ON_BN_CLICKED(IDC_UPDOWN_PRICE, OnUpdownPrice)
; 84   : 	//}}AFX_MSG_MAP
; 85   : END_MESSAGE_MAP()

  00000	b8 00 00 00 00	 mov	 eax, OFFSET ?messageMap@?1??GetThisMessageMap@CSetting_Volume@@KGPBUAFX_MSGMAP@@XZ@4U3@B
  00005	c3		 ret	 0
?GetThisMessageMap@CSetting_Volume@@KGPBUAFX_MSGMAP@@XZ ENDP ; CSetting_Volume::GetThisMessageMap
_TEXT	ENDS
; Function compile flags: /Ogtp
; File D:\git\src\IBK\IBK_DRFN\ProjSrc\SrcChartEx\ChartAddIn\ChartEnvSetupDlgAddIn\ChartEnvSetupDlgAddIn\Setting_Volume.cpp
; File C:\Program Files (x86)\Microsoft Visual Studio\2019\Community\VC\Tools\MSVC\14.29.30133\atlmfc\include\afxwin2.inl
; File D:\git\src\IBK\IBK_DRFN\ProjSrc\SrcChartEx\ChartAddIn\ChartEnvSetupDlgAddIn\ChartEnvSetupDlgAddIn\Setting_Volume.cpp
; File C:\Program Files (x86)\Microsoft Visual Studio\2019\Community\VC\Tools\MSVC\14.29.30133\atlmfc\include\afxwin2.inl
; File D:\git\src\IBK\IBK_DRFN\ProjSrc\SrcChartEx\ChartAddIn\ChartEnvSetupDlgAddIn\ChartEnvSetupDlgAddIn\Setting_Volume.cpp
;	COMDAT ?OnUpdownPrice@CSetting_Volume@@IAEXXZ
_TEXT	SEGMENT
$T1 = -4						; size = 4
$T2 = -4						; size = 4
?OnUpdownPrice@CSetting_Volume@@IAEXXZ PROC		; CSetting_Volume::OnUpdownPrice, COMDAT
; _this$ = ecx

; 331  : {

  00000	55		 push	 ebp
  00001	8b ec		 mov	 ebp, esp
  00003	51		 push	 ecx
  00004	57		 push	 edi

; 332  : 	GetDlgItem(IDC_STATIC_UP)->ShowWindow(SW_SHOW);

  00005	6a 05		 push	 5
  00007	68 96 17 00 00	 push	 6038			; 00001796H
  0000c	8b f9		 mov	 edi, ecx
  0000e	e8 00 00 00 00	 call	 ?GetDlgItem@CWnd@@QBEPAV1@H@Z ; CWnd::GetDlgItem
  00013	8b c8		 mov	 ecx, eax
  00015	e8 00 00 00 00	 call	 ?ShowWindow@CWnd@@QAEHH@Z ; CWnd::ShowWindow

; 333  : 	GetDlgItem(IDC_BTN_UP)->ShowWindow(SW_SHOW);

  0001a	6a 05		 push	 5
  0001c	68 94 17 00 00	 push	 6036			; 00001794H
  00021	8b cf		 mov	 ecx, edi
  00023	e8 00 00 00 00	 call	 ?GetDlgItem@CWnd@@QBEPAV1@H@Z ; CWnd::GetDlgItem
  00028	8b c8		 mov	 ecx, eax
  0002a	e8 00 00 00 00	 call	 ?ShowWindow@CWnd@@QAEHH@Z ; CWnd::ShowWindow

; 334  : 	GetDlgItem(IDC_FILL)->ShowWindow(SW_SHOW);

  0002f	6a 05		 push	 5
  00031	68 00 04 00 00	 push	 1024			; 00000400H
  00036	8b cf		 mov	 ecx, edi
  00038	e8 00 00 00 00	 call	 ?GetDlgItem@CWnd@@QBEPAV1@H@Z ; CWnd::GetDlgItem
  0003d	8b c8		 mov	 ecx, eax
  0003f	e8 00 00 00 00	 call	 ?ShowWindow@CWnd@@QAEHH@Z ; CWnd::ShowWindow

; 335  : 
; 336  : 	GetDlgItem(IDC_STATIC_DOWN)->ShowWindow(SW_SHOW);

  00044	6a 05		 push	 5
  00046	68 97 17 00 00	 push	 6039			; 00001797H
  0004b	8b cf		 mov	 ecx, edi
  0004d	e8 00 00 00 00	 call	 ?GetDlgItem@CWnd@@QBEPAV1@H@Z ; CWnd::GetDlgItem
  00052	8b c8		 mov	 ecx, eax
  00054	e8 00 00 00 00	 call	 ?ShowWindow@CWnd@@QAEHH@Z ; CWnd::ShowWindow

; 337  : 	GetDlgItem(IDC_BTN_DOWN)->ShowWindow(SW_SHOW);

  00059	6a 05		 push	 5
  0005b	68 95 17 00 00	 push	 6037			; 00001795H
  00060	8b cf		 mov	 ecx, edi
  00062	e8 00 00 00 00	 call	 ?GetDlgItem@CWnd@@QBEPAV1@H@Z ; CWnd::GetDlgItem
  00067	8b c8		 mov	 ecx, eax
  00069	e8 00 00 00 00	 call	 ?ShowWindow@CWnd@@QAEHH@Z ; CWnd::ShowWindow

; 338  : 	GetDlgItem(IDC_FILL_DOWN)->ShowWindow(SW_SHOW);

  0006e	6a 05		 push	 5
  00070	68 0b 04 00 00	 push	 1035			; 0000040bH
  00075	8b cf		 mov	 ecx, edi
  00077	e8 00 00 00 00	 call	 ?GetDlgItem@CWnd@@QBEPAV1@H@Z ; CWnd::GetDlgItem
  0007c	8b c8		 mov	 ecx, eax
  0007e	e8 00 00 00 00	 call	 ?ShowWindow@CWnd@@QAEHH@Z ; CWnd::ShowWindow

; 339  : 
; 340  : 	GetDlgItem(IDC_STATIC_SAME_CANDLE)->ShowWindow(SW_HIDE);

  00083	6a 00		 push	 0
  00085	68 fd 17 00 00	 push	 6141			; 000017fdH
  0008a	8b cf		 mov	 ecx, edi
  0008c	e8 00 00 00 00	 call	 ?GetDlgItem@CWnd@@QBEPAV1@H@Z ; CWnd::GetDlgItem
  00091	8b c8		 mov	 ecx, eax
  00093	e8 00 00 00 00	 call	 ?ShowWindow@CWnd@@QAEHH@Z ; CWnd::ShowWindow

; 341  : 	GetDlgItem(IDC_CHECK_UP)->ShowWindow(SW_HIDE);

  00098	6a 00		 push	 0
  0009a	68 fe 17 00 00	 push	 6142			; 000017feH
  0009f	8b cf		 mov	 ecx, edi
  000a1	e8 00 00 00 00	 call	 ?GetDlgItem@CWnd@@QBEPAV1@H@Z ; CWnd::GetDlgItem
  000a6	8b c8		 mov	 ecx, eax
  000a8	e8 00 00 00 00	 call	 ?ShowWindow@CWnd@@QAEHH@Z ; CWnd::ShowWindow

; 342  : 	GetDlgItem(IDC_CHECK_DOWN)->ShowWindow(SW_HIDE);

  000ad	6a 00		 push	 0
  000af	68 ff 17 00 00	 push	 6143			; 000017ffH
  000b4	8b cf		 mov	 ecx, edi
  000b6	e8 00 00 00 00	 call	 ?GetDlgItem@CWnd@@QBEPAV1@H@Z ; CWnd::GetDlgItem
  000bb	8b c8		 mov	 ecx, eax
  000bd	e8 00 00 00 00	 call	 ?ShowWindow@CWnd@@QAEHH@Z ; CWnd::ShowWindow

; 343  : 
; 344  : // 2008.01.25 by LYH >>	
; 345  : 	//GetDlgItem(IDC_STATIC_UP)->SetWindowText("");
; 346  : 	//GetDlgItem(IDC_STATIC_DOWN)->SetWindowText("");
; 347  : 	GetDlgItem(IDC_STATIC_UP)->SetWindowText(m_strUp);

  000c2	ff b7 e8 00 00
	00		 push	 DWORD PTR [edi+232]
  000c8	8b cf		 mov	 ecx, edi
  000ca	68 96 17 00 00	 push	 6038			; 00001796H
  000cf	e8 00 00 00 00	 call	 ?GetDlgItem@CWnd@@QBEPAV1@H@Z ; CWnd::GetDlgItem
  000d4	8b c8		 mov	 ecx, eax
  000d6	e8 00 00 00 00	 call	 ?SetWindowTextA@CWnd@@QAEXPBD@Z ; CWnd::SetWindowTextA

; 348  : 	GetDlgItem(IDC_STATIC_DOWN)->SetWindowText(m_strDown);

  000db	ff b7 ec 00 00
	00		 push	 DWORD PTR [edi+236]
  000e1	8b cf		 mov	 ecx, edi
  000e3	68 97 17 00 00	 push	 6039			; 00001797H
  000e8	e8 00 00 00 00	 call	 ?GetDlgItem@CWnd@@QBEPAV1@H@Z ; CWnd::GetDlgItem
  000ed	8b c8		 mov	 ecx, eax
  000ef	e8 00 00 00 00	 call	 ?SetWindowTextA@CWnd@@QAEXPBD@Z ; CWnd::SetWindowTextA

; 349  : // 2008.01.25 by LYH <<
; 350  : 
; 351  : //	m_pIGraphInfo->GetSubGraphColor( m_nSubGraphIndex, 1);
; 352  : 	m_btnUp.SetColor( m_pIGraphInfo->GetSubGraphColor( m_nSubGraphIndex, 1) );

  000f4	8b 8f c4 00 00
	00		 mov	 ecx, DWORD PTR [edi+196]
  000fa	6a 01		 push	 1
  000fc	ff b7 08 04 00
	00		 push	 DWORD PTR [edi+1032]
  00102	8b 01		 mov	 eax, DWORD PTR [ecx]
  00104	ff 50 64	 call	 DWORD PTR [eax+100]
  00107	89 45 fc	 mov	 DWORD PTR $T2[ebp], eax
  0010a	8d 8f f8 01 00
	00		 lea	 ecx, DWORD PTR [edi+504]
  00110	8d 45 fc	 lea	 eax, DWORD PTR $T2[ebp]
  00113	50		 push	 eax
  00114	e8 00 00 00 00	 call	 ?SetColor@CColorButton@@QAEXABK@Z ; CColorButton::SetColor
; File C:\Program Files (x86)\Microsoft Visual Studio\2019\Community\VC\Tools\MSVC\14.29.30133\atlmfc\include\afxwin2.inl

; 114  : 	{ ASSERT(::IsWindow(m_hWnd)); ::InvalidateRect(m_hWnd, NULL, bErase); }

  00119	6a 01		 push	 1
  0011b	6a 00		 push	 0
  0011d	ff b7 18 02 00
	00		 push	 DWORD PTR [edi+536]
  00123	ff 15 00 00 00
	00		 call	 DWORD PTR __imp__InvalidateRect@12
; File D:\git\src\IBK\IBK_DRFN\ProjSrc\SrcChartEx\ChartAddIn\ChartEnvSetupDlgAddIn\ChartEnvSetupDlgAddIn\Setting_Volume.cpp

; 354  : 	m_btnDown.SetColor( m_pIGraphInfo->GetSubGraphColor( m_nSubGraphIndex, 3) );

  00129	8b 8f c4 00 00
	00		 mov	 ecx, DWORD PTR [edi+196]
  0012f	6a 03		 push	 3
  00131	ff b7 08 04 00
	00		 push	 DWORD PTR [edi+1032]
  00137	8b 01		 mov	 eax, DWORD PTR [ecx]
  00139	ff 50 64	 call	 DWORD PTR [eax+100]
  0013c	89 45 fc	 mov	 DWORD PTR $T1[ebp], eax
  0013f	8d 8f 80 02 00
	00		 lea	 ecx, DWORD PTR [edi+640]
  00145	8d 45 fc	 lea	 eax, DWORD PTR $T1[ebp]
  00148	50		 push	 eax
  00149	e8 00 00 00 00	 call	 ?SetColor@CColorButton@@QAEXABK@Z ; CColorButton::SetColor
; File C:\Program Files (x86)\Microsoft Visual Studio\2019\Community\VC\Tools\MSVC\14.29.30133\atlmfc\include\afxwin2.inl

; 114  : 	{ ASSERT(::IsWindow(m_hWnd)); ::InvalidateRect(m_hWnd, NULL, bErase); }

  0014e	6a 01		 push	 1
  00150	6a 00		 push	 0
  00152	ff b7 a0 02 00
	00		 push	 DWORD PTR [edi+672]
  00158	ff 15 00 00 00
	00		 call	 DWORD PTR __imp__InvalidateRect@12
  0015e	5f		 pop	 edi
; File D:\git\src\IBK\IBK_DRFN\ProjSrc\SrcChartEx\ChartAddIn\ChartEnvSetupDlgAddIn\ChartEnvSetupDlgAddIn\Setting_Volume.cpp

; 356  : }

  0015f	8b e5		 mov	 esp, ebp
  00161	5d		 pop	 ebp
  00162	c3		 ret	 0
?OnUpdownPrice@CSetting_Volume@@IAEXXZ ENDP		; CSetting_Volume::OnUpdownPrice
_TEXT	ENDS
; Function compile flags: /Ogtp
; File D:\git\src\IBK\IBK_DRFN\ProjSrc\SrcChartEx\ChartAddIn\ChartEnvSetupDlgAddIn\ChartEnvSetupDlgAddIn\Setting_Volume.cpp
; File C:\Program Files (x86)\Microsoft Visual Studio\2019\Community\VC\Tools\MSVC\14.29.30133\atlmfc\include\afxwin2.inl
; File D:\git\src\IBK\IBK_DRFN\ProjSrc\SrcChartEx\ChartAddIn\ChartEnvSetupDlgAddIn\ChartEnvSetupDlgAddIn\Setting_Volume.cpp
; File C:\Program Files (x86)\Microsoft Visual Studio\2019\Community\VC\Tools\MSVC\14.29.30133\atlmfc\include\afxwin2.inl
; File D:\git\src\IBK\IBK_DRFN\ProjSrc\SrcChartEx\ChartAddIn\ChartEnvSetupDlgAddIn\ChartEnvSetupDlgAddIn\Setting_Volume.cpp
;	COMDAT ?OnCheckDown@CSetting_Volume@@IAEXXZ
_TEXT	SEGMENT
?OnCheckDown@CSetting_Volume@@IAEXXZ PROC		; CSetting_Volume::OnCheckDown, COMDAT
; _this$ = ecx

; 566  : {

  00000	57		 push	 edi
; File C:\Program Files (x86)\Microsoft Visual Studio\2019\Community\VC\Tools\MSVC\14.29.30133\atlmfc\include\afxwin2.inl

; 628  : 	{ ASSERT(::IsWindow(m_hWnd)); return (int)::SendMessage(m_hWnd, BM_GETCHECK, 0, 0); }

  00001	6a 00		 push	 0
; File D:\git\src\IBK\IBK_DRFN\ProjSrc\SrcChartEx\ChartAddIn\ChartEnvSetupDlgAddIn\ChartEnvSetupDlgAddIn\Setting_Volume.cpp

; 566  : {

  00003	8b f9		 mov	 edi, ecx
; File C:\Program Files (x86)\Microsoft Visual Studio\2019\Community\VC\Tools\MSVC\14.29.30133\atlmfc\include\afxwin2.inl

; 628  : 	{ ASSERT(::IsWindow(m_hWnd)); return (int)::SendMessage(m_hWnd, BM_GETCHECK, 0, 0); }

  00005	6a 00		 push	 0
  00007	68 f0 00 00 00	 push	 240			; 000000f0H
  0000c	ff b7 98 01 00
	00		 push	 DWORD PTR [edi+408]
  00012	ff 15 00 00 00
	00		 call	 DWORD PTR __imp__SendMessageA@16

; 630  : 	{ ASSERT(::IsWindow(m_hWnd)); ::SendMessage(m_hWnd, BM_SETCHECK, nCheck, 0); }

  00018	6a 00		 push	 0
  0001a	50		 push	 eax
  0001b	68 f1 00 00 00	 push	 241			; 000000f1H
  00020	ff b7 28 03 00
	00		 push	 DWORD PTR [edi+808]
  00026	ff 15 00 00 00
	00		 call	 DWORD PTR __imp__SendMessageA@16
  0002c	5f		 pop	 edi
; File D:\git\src\IBK\IBK_DRFN\ProjSrc\SrcChartEx\ChartAddIn\ChartEnvSetupDlgAddIn\ChartEnvSetupDlgAddIn\Setting_Volume.cpp

; 569  : }

  0002d	c3		 ret	 0
?OnCheckDown@CSetting_Volume@@IAEXXZ ENDP		; CSetting_Volume::OnCheckDown
_TEXT	ENDS
; Function compile flags: /Ogtp
; File D:\git\src\IBK\IBK_DRFN\ProjSrc\SrcChartEx\ChartAddIn\ChartEnvSetupDlgAddIn\ChartEnvSetupDlgAddIn\Setting_Volume.cpp
; File C:\Program Files (x86)\Microsoft Visual Studio\2019\Community\VC\Tools\MSVC\14.29.30133\atlmfc\include\afxwin2.inl
; File D:\git\src\IBK\IBK_DRFN\ProjSrc\SrcChartEx\ChartAddIn\ChartEnvSetupDlgAddIn\ChartEnvSetupDlgAddIn\Setting_Volume.cpp
; File C:\Program Files (x86)\Microsoft Visual Studio\2019\Community\VC\Tools\MSVC\14.29.30133\atlmfc\include\afxwin2.inl
; File D:\git\src\IBK\IBK_DRFN\ProjSrc\SrcChartEx\ChartAddIn\ChartEnvSetupDlgAddIn\ChartEnvSetupDlgAddIn\Setting_Volume.cpp
;	COMDAT ?OnCheckUp@CSetting_Volume@@IAEXXZ
_TEXT	SEGMENT
?OnCheckUp@CSetting_Volume@@IAEXXZ PROC			; CSetting_Volume::OnCheckUp, COMDAT
; _this$ = ecx

; 559  : {

  00000	57		 push	 edi
; File C:\Program Files (x86)\Microsoft Visual Studio\2019\Community\VC\Tools\MSVC\14.29.30133\atlmfc\include\afxwin2.inl

; 628  : 	{ ASSERT(::IsWindow(m_hWnd)); return (int)::SendMessage(m_hWnd, BM_GETCHECK, 0, 0); }

  00001	6a 00		 push	 0
; File D:\git\src\IBK\IBK_DRFN\ProjSrc\SrcChartEx\ChartAddIn\ChartEnvSetupDlgAddIn\ChartEnvSetupDlgAddIn\Setting_Volume.cpp

; 559  : {

  00003	8b f9		 mov	 edi, ecx
; File C:\Program Files (x86)\Microsoft Visual Studio\2019\Community\VC\Tools\MSVC\14.29.30133\atlmfc\include\afxwin2.inl

; 628  : 	{ ASSERT(::IsWindow(m_hWnd)); return (int)::SendMessage(m_hWnd, BM_GETCHECK, 0, 0); }

  00005	6a 00		 push	 0
  00007	68 f0 00 00 00	 push	 240			; 000000f0H
  0000c	ff b7 18 01 00
	00		 push	 DWORD PTR [edi+280]
  00012	ff 15 00 00 00
	00		 call	 DWORD PTR __imp__SendMessageA@16

; 630  : 	{ ASSERT(::IsWindow(m_hWnd)); ::SendMessage(m_hWnd, BM_SETCHECK, nCheck, 0); }

  00018	6a 00		 push	 0
  0001a	50		 push	 eax
  0001b	68 f1 00 00 00	 push	 241			; 000000f1H
  00020	ff b7 a8 03 00
	00		 push	 DWORD PTR [edi+936]
  00026	ff 15 00 00 00
	00		 call	 DWORD PTR __imp__SendMessageA@16
  0002c	5f		 pop	 edi
; File D:\git\src\IBK\IBK_DRFN\ProjSrc\SrcChartEx\ChartAddIn\ChartEnvSetupDlgAddIn\ChartEnvSetupDlgAddIn\Setting_Volume.cpp

; 563  : }

  0002d	c3		 ret	 0
?OnCheckUp@CSetting_Volume@@IAEXXZ ENDP			; CSetting_Volume::OnCheckUp
_TEXT	ENDS
; Function compile flags: /Ogtp
; File D:\git\src\IBK\IBK_DRFN\ProjSrc\SrcChartEx\ChartAddIn\ChartEnvSetupDlgAddIn\ChartEnvSetupDlgAddIn\Setting_Volume.cpp
; File C:\Program Files (x86)\Microsoft Visual Studio\2019\Community\VC\Tools\MSVC\14.29.30133\atlmfc\include\afxwin2.inl
; File D:\git\src\IBK\IBK_DRFN\ProjSrc\SrcChartEx\ChartAddIn\ChartEnvSetupDlgAddIn\ChartEnvSetupDlgAddIn\Setting_Volume.cpp
; File C:\Program Files (x86)\Microsoft Visual Studio\2019\Community\VC\Tools\MSVC\14.29.30133\atlmfc\include\afxwin2.inl
; File D:\git\src\IBK\IBK_DRFN\ProjSrc\SrcChartEx\ChartAddIn\ChartEnvSetupDlgAddIn\ChartEnvSetupDlgAddIn\Setting_Volume.cpp
;	COMDAT ?OnFillDown@CSetting_Volume@@IAEXXZ
_TEXT	SEGMENT
?OnFillDown@CSetting_Volume@@IAEXXZ PROC		; CSetting_Volume::OnFillDown, COMDAT
; _this$ = ecx

; 553  : {

  00000	57		 push	 edi
; File C:\Program Files (x86)\Microsoft Visual Studio\2019\Community\VC\Tools\MSVC\14.29.30133\atlmfc\include\afxwin2.inl

; 628  : 	{ ASSERT(::IsWindow(m_hWnd)); return (int)::SendMessage(m_hWnd, BM_GETCHECK, 0, 0); }

  00001	6a 00		 push	 0
; File D:\git\src\IBK\IBK_DRFN\ProjSrc\SrcChartEx\ChartAddIn\ChartEnvSetupDlgAddIn\ChartEnvSetupDlgAddIn\Setting_Volume.cpp

; 553  : {

  00003	8b f9		 mov	 edi, ecx
; File C:\Program Files (x86)\Microsoft Visual Studio\2019\Community\VC\Tools\MSVC\14.29.30133\atlmfc\include\afxwin2.inl

; 628  : 	{ ASSERT(::IsWindow(m_hWnd)); return (int)::SendMessage(m_hWnd, BM_GETCHECK, 0, 0); }

  00005	6a 00		 push	 0
  00007	68 f0 00 00 00	 push	 240			; 000000f0H
  0000c	ff b7 28 03 00
	00		 push	 DWORD PTR [edi+808]
  00012	ff 15 00 00 00
	00		 call	 DWORD PTR __imp__SendMessageA@16

; 630  : 	{ ASSERT(::IsWindow(m_hWnd)); ::SendMessage(m_hWnd, BM_SETCHECK, nCheck, 0); }

  00018	6a 00		 push	 0
  0001a	50		 push	 eax
  0001b	68 f1 00 00 00	 push	 241			; 000000f1H
  00020	ff b7 98 01 00
	00		 push	 DWORD PTR [edi+408]
  00026	ff 15 00 00 00
	00		 call	 DWORD PTR __imp__SendMessageA@16
  0002c	5f		 pop	 edi
; File D:\git\src\IBK\IBK_DRFN\ProjSrc\SrcChartEx\ChartAddIn\ChartEnvSetupDlgAddIn\ChartEnvSetupDlgAddIn\Setting_Volume.cpp

; 556  : }

  0002d	c3		 ret	 0
?OnFillDown@CSetting_Volume@@IAEXXZ ENDP		; CSetting_Volume::OnFillDown
_TEXT	ENDS
; Function compile flags: /Ogtp
; File D:\git\src\IBK\IBK_DRFN\ProjSrc\SrcChartEx\ChartAddIn\ChartEnvSetupDlgAddIn\ChartEnvSetupDlgAddIn\Setting_Volume.cpp
; File C:\Program Files (x86)\Microsoft Visual Studio\2019\Community\VC\Tools\MSVC\14.29.30133\atlmfc\include\afxwin2.inl
; File D:\git\src\IBK\IBK_DRFN\ProjSrc\SrcChartEx\ChartAddIn\ChartEnvSetupDlgAddIn\ChartEnvSetupDlgAddIn\Setting_Volume.cpp
; File C:\Program Files (x86)\Microsoft Visual Studio\2019\Community\VC\Tools\MSVC\14.29.30133\atlmfc\include\afxwin2.inl
; File D:\git\src\IBK\IBK_DRFN\ProjSrc\SrcChartEx\ChartAddIn\ChartEnvSetupDlgAddIn\ChartEnvSetupDlgAddIn\Setting_Volume.cpp
;	COMDAT ?OnFill@CSetting_Volume@@IAEXXZ
_TEXT	SEGMENT
?OnFill@CSetting_Volume@@IAEXXZ PROC			; CSetting_Volume::OnFill, COMDAT
; _this$ = ecx

; 547  : {

  00000	57		 push	 edi
; File C:\Program Files (x86)\Microsoft Visual Studio\2019\Community\VC\Tools\MSVC\14.29.30133\atlmfc\include\afxwin2.inl

; 628  : 	{ ASSERT(::IsWindow(m_hWnd)); return (int)::SendMessage(m_hWnd, BM_GETCHECK, 0, 0); }

  00001	6a 00		 push	 0
; File D:\git\src\IBK\IBK_DRFN\ProjSrc\SrcChartEx\ChartAddIn\ChartEnvSetupDlgAddIn\ChartEnvSetupDlgAddIn\Setting_Volume.cpp

; 547  : {

  00003	8b f9		 mov	 edi, ecx
; File C:\Program Files (x86)\Microsoft Visual Studio\2019\Community\VC\Tools\MSVC\14.29.30133\atlmfc\include\afxwin2.inl

; 628  : 	{ ASSERT(::IsWindow(m_hWnd)); return (int)::SendMessage(m_hWnd, BM_GETCHECK, 0, 0); }

  00005	6a 00		 push	 0
  00007	68 f0 00 00 00	 push	 240			; 000000f0H
  0000c	ff b7 a8 03 00
	00		 push	 DWORD PTR [edi+936]
  00012	ff 15 00 00 00
	00		 call	 DWORD PTR __imp__SendMessageA@16

; 630  : 	{ ASSERT(::IsWindow(m_hWnd)); ::SendMessage(m_hWnd, BM_SETCHECK, nCheck, 0); }

  00018	6a 00		 push	 0
  0001a	50		 push	 eax
  0001b	68 f1 00 00 00	 push	 241			; 000000f1H
  00020	ff b7 18 01 00
	00		 push	 DWORD PTR [edi+280]
  00026	ff 15 00 00 00
	00		 call	 DWORD PTR __imp__SendMessageA@16
  0002c	5f		 pop	 edi
; File D:\git\src\IBK\IBK_DRFN\ProjSrc\SrcChartEx\ChartAddIn\ChartEnvSetupDlgAddIn\ChartEnvSetupDlgAddIn\Setting_Volume.cpp

; 550  : }

  0002d	c3		 ret	 0
?OnFill@CSetting_Volume@@IAEXXZ ENDP			; CSetting_Volume::OnFill
_TEXT	ENDS
; Function compile flags: /Ogtp
; File D:\git\src\IBK\IBK_DRFN\ProjSrc\SrcChartEx\ChartAddIn\ChartEnvSetupDlgAddIn\ChartEnvSetupDlgAddIn\Setting_Volume.cpp
; File C:\Program Files (x86)\Microsoft Visual Studio\2019\Community\VC\Tools\MSVC\14.29.30133\atlmfc\include\afxwin2.inl
; File C:\Program Files (x86)\Microsoft Visual Studio\2019\Community\VC\Tools\MSVC\14.29.30133\atlmfc\include\afxdlgs.h
; File D:\git\src\IBK\IBK_DRFN\ProjSrc\SrcChartEx\ChartAddIn\ChartEnvSetupDlgAddIn\ChartEnvSetupDlgAddIn\Setting_Volume.cpp
;	COMDAT ?OnBtnDown@CSetting_Volume@@IAEXXZ
_TEXT	SEGMENT
_color$ = -224						; size = 208
$T2 = -16						; size = 4
__$EHRec$ = -12						; size = 12
?OnBtnDown@CSetting_Volume@@IAEXXZ PROC			; CSetting_Volume::OnBtnDown, COMDAT
; _this$ = ecx

; 530  : {

  00000	55		 push	 ebp
  00001	8b ec		 mov	 ebp, esp
  00003	6a ff		 push	 -1
  00005	68 00 00 00 00	 push	 __ehhandler$?OnBtnDown@CSetting_Volume@@IAEXXZ
  0000a	64 a1 00 00 00
	00		 mov	 eax, DWORD PTR fs:0
  00010	50		 push	 eax
  00011	81 ec d4 00 00
	00		 sub	 esp, 212		; 000000d4H
  00017	56		 push	 esi
  00018	57		 push	 edi
  00019	a1 00 00 00 00	 mov	 eax, DWORD PTR ___security_cookie
  0001e	33 c5		 xor	 eax, ebp
  00020	50		 push	 eax
  00021	8d 45 f4	 lea	 eax, DWORD PTR __$EHRec$[ebp]
  00024	64 a3 00 00 00
	00		 mov	 DWORD PTR fs:0, eax
  0002a	8b f1		 mov	 esi, ecx

; 531  : 	if(m_nSubGraphIndex < 0)

  0002c	83 be 08 04 00
	00 00		 cmp	 DWORD PTR [esi+1032], 0
  00033	0f 8c a8 00 00
	00		 jl	 $LN12@OnBtnDown

; 532  : 		return;
; 533  : 	
; 534  : 	COLORREF crColor = m_btnDown.GetColor();

  00039	8d 8e 80 02 00
	00		 lea	 ecx, DWORD PTR [esi+640]
  0003f	e8 00 00 00 00	 call	 ?GetColor@CColorButton@@QAEKXZ ; CColorButton::GetColor

; 535  : 	CColorDialog color(crColor, CC_FULLOPEN);

  00044	6a 00		 push	 0
  00046	6a 02		 push	 2
  00048	50		 push	 eax
  00049	8d 8d 20 ff ff
	ff		 lea	 ecx, DWORD PTR _color$[ebp]
  0004f	e8 00 00 00 00	 call	 ??0CColorDialog@@QAE@KKPAVCWnd@@@Z ; CColorDialog::CColorDialog

; 536  : 	if(color.DoModal() == IDOK) 

  00054	8d 8d 20 ff ff
	ff		 lea	 ecx, DWORD PTR _color$[ebp]
  0005a	c7 45 fc 00 00
	00 00		 mov	 DWORD PTR __$EHRec$[ebp+8], 0
  00061	e8 00 00 00 00	 call	 ?DoModal@CColorDialog@@UAEHXZ ; CColorDialog::DoModal
  00066	83 f8 01	 cmp	 eax, 1
  00069	75 61		 jne	 SHORT $LN3@OnBtnDown

; 537  : 	{
; 538  : 		m_pIGraphInfo->SetSubGraphColor( m_nSubGraphIndex, 3, color.GetColor());

  0006b	8b 8e c4 00 00
	00		 mov	 ecx, DWORD PTR [esi+196]
  00071	ff 75 d4	 push	 DWORD PTR _color$[ebp+180]
  00074	6a 03		 push	 3
  00076	8b 01		 mov	 eax, DWORD PTR [ecx]
  00078	ff b6 08 04 00
	00		 push	 DWORD PTR [esi+1032]
  0007e	ff 50 6c	 call	 DWORD PTR [eax+108]

; 539  : 		m_pIGraphInfo->SetSubGraphColor( m_nSubGraphIndex, 4, color.GetColor());

  00081	8b 8e c4 00 00
	00		 mov	 ecx, DWORD PTR [esi+196]
  00087	ff 75 d4	 push	 DWORD PTR _color$[ebp+180]
  0008a	6a 04		 push	 4
  0008c	8b 01		 mov	 eax, DWORD PTR [ecx]
  0008e	ff b6 08 04 00
	00		 push	 DWORD PTR [esi+1032]
  00094	ff 50 6c	 call	 DWORD PTR [eax+108]

; 540  : 		m_btnDown.SetColor(  m_pIGraphInfo->GetSubGraphColor( m_nSubGraphIndex, 3));

  00097	8b 8e c4 00 00
	00		 mov	 ecx, DWORD PTR [esi+196]
  0009d	6a 03		 push	 3
  0009f	ff b6 08 04 00
	00		 push	 DWORD PTR [esi+1032]
  000a5	8b 01		 mov	 eax, DWORD PTR [ecx]
  000a7	ff 50 64	 call	 DWORD PTR [eax+100]
  000aa	89 45 f0	 mov	 DWORD PTR $T2[ebp], eax
  000ad	8d 8e 80 02 00
	00		 lea	 ecx, DWORD PTR [esi+640]
  000b3	8d 45 f0	 lea	 eax, DWORD PTR $T2[ebp]
  000b6	50		 push	 eax
  000b7	e8 00 00 00 00	 call	 ?SetColor@CColorButton@@QAEXABK@Z ; CColorButton::SetColor
; File C:\Program Files (x86)\Microsoft Visual Studio\2019\Community\VC\Tools\MSVC\14.29.30133\atlmfc\include\afxwin2.inl

; 114  : 	{ ASSERT(::IsWindow(m_hWnd)); ::InvalidateRect(m_hWnd, NULL, bErase); }

  000bc	6a 01		 push	 1
  000be	6a 00		 push	 0
  000c0	ff b6 a0 02 00
	00		 push	 DWORD PTR [esi+672]
  000c6	ff 15 00 00 00
	00		 call	 DWORD PTR __imp__InvalidateRect@12
$LN3@OnBtnDown:
; File C:\Program Files (x86)\Microsoft Visual Studio\2019\Community\VC\Tools\MSVC\14.29.30133\atlmfc\include\afxdlgs.h

; 110  :     virtual ~CCommonDialog() {};

  000cc	8d 8d 20 ff ff
	ff		 lea	 ecx, DWORD PTR _color$[ebp]
  000d2	c7 85 20 ff ff
	ff 00 00 00 00	 mov	 DWORD PTR _color$[ebp], OFFSET ??_7CCommonDialog@@6B@
  000dc	e8 00 00 00 00	 call	 ??1CDialog@@UAE@XZ	; CDialog::~CDialog
$LN12@OnBtnDown:
; File D:\git\src\IBK\IBK_DRFN\ProjSrc\SrcChartEx\ChartAddIn\ChartEnvSetupDlgAddIn\ChartEnvSetupDlgAddIn\Setting_Volume.cpp

; 543  : }

  000e1	8b 4d f4	 mov	 ecx, DWORD PTR __$EHRec$[ebp]
  000e4	64 89 0d 00 00
	00 00		 mov	 DWORD PTR fs:0, ecx
  000eb	59		 pop	 ecx
  000ec	5f		 pop	 edi
  000ed	5e		 pop	 esi
  000ee	8b e5		 mov	 esp, ebp
  000f0	5d		 pop	 ebp
  000f1	c3		 ret	 0
_TEXT	ENDS
;	COMDAT text$x
text$x	SEGMENT
__unwindfunclet$?OnBtnDown@CSetting_Volume@@IAEXXZ$0:
  00000	8d 8d 20 ff ff
	ff		 lea	 ecx, DWORD PTR _color$[ebp]
  00006	e9 00 00 00 00	 jmp	 ??1CColorDialog@@UAE@XZ
  0000b	cc		 int	 3
  0000c	cc		 int	 3
  0000d	cc		 int	 3
  0000e	cc		 int	 3
  0000f	cc		 int	 3
__ehhandler$?OnBtnDown@CSetting_Volume@@IAEXXZ:
  00010	90		 npad	 1
  00011	90		 npad	 1
  00012	8b 54 24 08	 mov	 edx, DWORD PTR [esp+8]
  00016	8d 42 0c	 lea	 eax, DWORD PTR [edx+12]
  00019	8b 8a 20 ff ff
	ff		 mov	 ecx, DWORD PTR [edx-224]
  0001f	33 c8		 xor	 ecx, eax
  00021	e8 00 00 00 00	 call	 @__security_check_cookie@4
  00026	b8 00 00 00 00	 mov	 eax, OFFSET __ehfuncinfo$?OnBtnDown@CSetting_Volume@@IAEXXZ
  0002b	e9 00 00 00 00	 jmp	 ___CxxFrameHandler3
text$x	ENDS
?OnBtnDown@CSetting_Volume@@IAEXXZ ENDP			; CSetting_Volume::OnBtnDown
; Function compile flags: /Ogtp
; File D:\git\src\IBK\IBK_DRFN\ProjSrc\SrcChartEx\ChartAddIn\ChartEnvSetupDlgAddIn\ChartEnvSetupDlgAddIn\Setting_Volume.cpp
; File C:\Program Files (x86)\Microsoft Visual Studio\2019\Community\VC\Tools\MSVC\14.29.30133\atlmfc\include\afxwin2.inl
; File C:\Program Files (x86)\Microsoft Visual Studio\2019\Community\VC\Tools\MSVC\14.29.30133\atlmfc\include\afxdlgs.h
; File D:\git\src\IBK\IBK_DRFN\ProjSrc\SrcChartEx\ChartAddIn\ChartEnvSetupDlgAddIn\ChartEnvSetupDlgAddIn\Setting_Volume.cpp
;	COMDAT ?OnBtnUp@CSetting_Volume@@IAEXXZ
_TEXT	SEGMENT
_color$ = -224						; size = 208
$T2 = -16						; size = 4
__$EHRec$ = -12						; size = 12
?OnBtnUp@CSetting_Volume@@IAEXXZ PROC			; CSetting_Volume::OnBtnUp, COMDAT
; _this$ = ecx

; 494  : {

  00000	55		 push	 ebp
  00001	8b ec		 mov	 ebp, esp
  00003	6a ff		 push	 -1
  00005	68 00 00 00 00	 push	 __ehhandler$?OnBtnUp@CSetting_Volume@@IAEXXZ
  0000a	64 a1 00 00 00
	00		 mov	 eax, DWORD PTR fs:0
  00010	50		 push	 eax
  00011	81 ec d4 00 00
	00		 sub	 esp, 212		; 000000d4H
  00017	53		 push	 ebx
  00018	56		 push	 esi
  00019	57		 push	 edi
  0001a	a1 00 00 00 00	 mov	 eax, DWORD PTR ___security_cookie
  0001f	33 c5		 xor	 eax, ebp
  00021	50		 push	 eax
  00022	8d 45 f4	 lea	 eax, DWORD PTR __$EHRec$[ebp]
  00025	64 a3 00 00 00
	00		 mov	 DWORD PTR fs:0, eax
  0002b	8b f1		 mov	 esi, ecx

; 495  : 	if(m_nSubGraphIndex < 0)

  0002d	83 be 08 04 00
	00 00		 cmp	 DWORD PTR [esi+1032], 0
  00034	0f 8c d9 00 00
	00		 jl	 $LN14@OnBtnUp

; 496  : 		return;
; 497  : 
; 498  : 	int nType = GetCheckToRadio();

  0003a	e8 00 00 00 00	 call	 ?GetCheckToRadio@CSetting_Volume@@AAEHXZ ; CSetting_Volume::GetCheckToRadio

; 499  : 	
; 500  : 	
; 501  : 	COLORREF crColor = m_btnUp.GetColor();

  0003f	8d 8e f8 01 00
	00		 lea	 ecx, DWORD PTR [esi+504]
  00045	8b d8		 mov	 ebx, eax
  00047	e8 00 00 00 00	 call	 ?GetColor@CColorButton@@QAEKXZ ; CColorButton::GetColor

; 502  : 	CColorDialog color(crColor, CC_FULLOPEN);

  0004c	6a 00		 push	 0
  0004e	6a 02		 push	 2
  00050	50		 push	 eax
  00051	8d 8d 20 ff ff
	ff		 lea	 ecx, DWORD PTR _color$[ebp]
  00057	e8 00 00 00 00	 call	 ??0CColorDialog@@QAE@KKPAVCWnd@@@Z ; CColorDialog::CColorDialog

; 503  : 	if(color.DoModal() == IDOK) 

  0005c	8d 8d 20 ff ff
	ff		 lea	 ecx, DWORD PTR _color$[ebp]
  00062	c7 45 fc 00 00
	00 00		 mov	 DWORD PTR __$EHRec$[ebp+8], 0
  00069	e8 00 00 00 00	 call	 ?DoModal@CColorDialog@@UAEHXZ ; CColorDialog::DoModal
  0006e	83 f8 01	 cmp	 eax, 1
  00071	0f 85 87 00 00
	00		 jne	 $LN3@OnBtnUp

; 504  : 	{
; 505  : 		if( nType == 1 )

  00077	8b 8e c4 00 00
	00		 mov	 ecx, DWORD PTR [esi+196]
  0007d	8b 96 08 04 00
	00		 mov	 edx, DWORD PTR [esi+1032]
  00083	ff 75 d4	 push	 DWORD PTR _color$[ebp+180]
  00086	8b 01		 mov	 eax, DWORD PTR [ecx]
  00088	83 fb 01	 cmp	 ebx, 1
  0008b	75 20		 jne	 SHORT $LN4@OnBtnUp

; 506  : 		{
; 507  : 			m_pIGraphInfo->SetSubGraphColor( m_nSubGraphIndex, 5, color.GetColor());

  0008d	6a 05		 push	 5
  0008f	52		 push	 edx
  00090	ff 50 6c	 call	 DWORD PTR [eax+108]

; 508  : 			m_pIGraphInfo->SetSubGraphColor( m_nSubGraphIndex, 6, color.GetColor());

  00093	8b 8e c4 00 00
	00		 mov	 ecx, DWORD PTR [esi+196]
  00099	ff 75 d4	 push	 DWORD PTR _color$[ebp+180]
  0009c	6a 06		 push	 6
  0009e	8b 01		 mov	 eax, DWORD PTR [ecx]
  000a0	ff b6 08 04 00
	00		 push	 DWORD PTR [esi+1032]
  000a6	ff 50 6c	 call	 DWORD PTR [eax+108]

; 509  : 			m_btnUp.SetColor( m_pIGraphInfo->GetSubGraphColor( m_nSubGraphIndex, 5));

  000a9	6a 05		 push	 5

; 510  : 		}

  000ab	eb 1e		 jmp	 SHORT $LN17@OnBtnUp
$LN4@OnBtnUp:

; 511  : 
; 512  : 		else
; 513  : 		{
; 514  : 			m_pIGraphInfo->SetSubGraphColor( m_nSubGraphIndex, 1, color.GetColor());

  000ad	6a 01		 push	 1
  000af	52		 push	 edx
  000b0	ff 50 6c	 call	 DWORD PTR [eax+108]

; 515  : 			m_pIGraphInfo->SetSubGraphColor( m_nSubGraphIndex, 2, color.GetColor());

  000b3	8b 8e c4 00 00
	00		 mov	 ecx, DWORD PTR [esi+196]
  000b9	ff 75 d4	 push	 DWORD PTR _color$[ebp+180]
  000bc	6a 02		 push	 2
  000be	8b 01		 mov	 eax, DWORD PTR [ecx]
  000c0	ff b6 08 04 00
	00		 push	 DWORD PTR [esi+1032]
  000c6	ff 50 6c	 call	 DWORD PTR [eax+108]

; 516  : 			m_btnUp.SetColor( m_pIGraphInfo->GetSubGraphColor( m_nSubGraphIndex, 1));

  000c9	6a 01		 push	 1
$LN17@OnBtnUp:
; File C:\Program Files (x86)\Microsoft Visual Studio\2019\Community\VC\Tools\MSVC\14.29.30133\atlmfc\include\afxwin2.inl

; 114  : 	{ ASSERT(::IsWindow(m_hWnd)); ::InvalidateRect(m_hWnd, NULL, bErase); }

  000cb	8b 8e c4 00 00
	00		 mov	 ecx, DWORD PTR [esi+196]
  000d1	ff b6 08 04 00
	00		 push	 DWORD PTR [esi+1032]
  000d7	8b 01		 mov	 eax, DWORD PTR [ecx]
  000d9	ff 50 64	 call	 DWORD PTR [eax+100]
  000dc	89 45 f0	 mov	 DWORD PTR $T2[ebp], eax
  000df	8d 8e f8 01 00
	00		 lea	 ecx, DWORD PTR [esi+504]
  000e5	8d 45 f0	 lea	 eax, DWORD PTR $T2[ebp]
  000e8	50		 push	 eax
  000e9	e8 00 00 00 00	 call	 ?SetColor@CColorButton@@QAEXABK@Z ; CColorButton::SetColor
  000ee	6a 01		 push	 1
  000f0	6a 00		 push	 0
  000f2	ff b6 18 02 00
	00		 push	 DWORD PTR [esi+536]
  000f8	ff 15 00 00 00
	00		 call	 DWORD PTR __imp__InvalidateRect@12
$LN3@OnBtnUp:
; File C:\Program Files (x86)\Microsoft Visual Studio\2019\Community\VC\Tools\MSVC\14.29.30133\atlmfc\include\afxdlgs.h

; 110  :     virtual ~CCommonDialog() {};

  000fe	8d 8d 20 ff ff
	ff		 lea	 ecx, DWORD PTR _color$[ebp]
  00104	c7 85 20 ff ff
	ff 00 00 00 00	 mov	 DWORD PTR _color$[ebp], OFFSET ??_7CCommonDialog@@6B@
  0010e	e8 00 00 00 00	 call	 ??1CDialog@@UAE@XZ	; CDialog::~CDialog
$LN14@OnBtnUp:
; File D:\git\src\IBK\IBK_DRFN\ProjSrc\SrcChartEx\ChartAddIn\ChartEnvSetupDlgAddIn\ChartEnvSetupDlgAddIn\Setting_Volume.cpp

; 521  : }

  00113	8b 4d f4	 mov	 ecx, DWORD PTR __$EHRec$[ebp]
  00116	64 89 0d 00 00
	00 00		 mov	 DWORD PTR fs:0, ecx
  0011d	59		 pop	 ecx
  0011e	5f		 pop	 edi
  0011f	5e		 pop	 esi
  00120	5b		 pop	 ebx
  00121	8b e5		 mov	 esp, ebp
  00123	5d		 pop	 ebp
  00124	c3		 ret	 0
_TEXT	ENDS
;	COMDAT text$x
text$x	SEGMENT
__unwindfunclet$?OnBtnUp@CSetting_Volume@@IAEXXZ$0:
  00000	8d 8d 20 ff ff
	ff		 lea	 ecx, DWORD PTR _color$[ebp]
  00006	e9 00 00 00 00	 jmp	 ??1CColorDialog@@UAE@XZ
  0000b	cc		 int	 3
  0000c	cc		 int	 3
  0000d	cc		 int	 3
  0000e	cc		 int	 3
  0000f	cc		 int	 3
__ehhandler$?OnBtnUp@CSetting_Volume@@IAEXXZ:
  00010	90		 npad	 1
  00011	90		 npad	 1
  00012	8b 54 24 08	 mov	 edx, DWORD PTR [esp+8]
  00016	8d 42 0c	 lea	 eax, DWORD PTR [edx+12]
  00019	8b 8a 1c ff ff
	ff		 mov	 ecx, DWORD PTR [edx-228]
  0001f	33 c8		 xor	 ecx, eax
  00021	e8 00 00 00 00	 call	 @__security_check_cookie@4
  00026	b8 00 00 00 00	 mov	 eax, OFFSET __ehfuncinfo$?OnBtnUp@CSetting_Volume@@IAEXXZ
  0002b	e9 00 00 00 00	 jmp	 ___CxxFrameHandler3
text$x	ENDS
?OnBtnUp@CSetting_Volume@@IAEXXZ ENDP			; CSetting_Volume::OnBtnUp
; Function compile flags: /Ogtp
; File D:\git\src\IBK\IBK_DRFN\ProjSrc\SrcChartEx\ChartAddIn\ChartEnvSetupDlgAddIn\ChartEnvSetupDlgAddIn\Setting_Volume.cpp
;	COMDAT ?OnSameBong@CSetting_Volume@@IAEXXZ
_TEXT	SEGMENT
?OnSameBong@CSetting_Volume@@IAEXXZ PROC		; CSetting_Volume::OnSameBong, COMDAT
; _this$ = ecx

; 315  : {

  00000	56		 push	 esi

; 316  : 	GetDlgItem(IDC_STATIC_UP)->ShowWindow(SW_HIDE);

  00001	6a 00		 push	 0
  00003	68 96 17 00 00	 push	 6038			; 00001796H
  00008	8b f1		 mov	 esi, ecx
  0000a	e8 00 00 00 00	 call	 ?GetDlgItem@CWnd@@QBEPAV1@H@Z ; CWnd::GetDlgItem
  0000f	8b c8		 mov	 ecx, eax
  00011	e8 00 00 00 00	 call	 ?ShowWindow@CWnd@@QAEHH@Z ; CWnd::ShowWindow

; 317  : 	GetDlgItem(IDC_BTN_UP)->ShowWindow(SW_HIDE);

  00016	6a 00		 push	 0
  00018	68 94 17 00 00	 push	 6036			; 00001794H
  0001d	8b ce		 mov	 ecx, esi
  0001f	e8 00 00 00 00	 call	 ?GetDlgItem@CWnd@@QBEPAV1@H@Z ; CWnd::GetDlgItem
  00024	8b c8		 mov	 ecx, eax
  00026	e8 00 00 00 00	 call	 ?ShowWindow@CWnd@@QAEHH@Z ; CWnd::ShowWindow

; 318  : 	GetDlgItem(IDC_FILL)->ShowWindow(SW_HIDE);

  0002b	6a 00		 push	 0
  0002d	68 00 04 00 00	 push	 1024			; 00000400H
  00032	8b ce		 mov	 ecx, esi
  00034	e8 00 00 00 00	 call	 ?GetDlgItem@CWnd@@QBEPAV1@H@Z ; CWnd::GetDlgItem
  00039	8b c8		 mov	 ecx, eax
  0003b	e8 00 00 00 00	 call	 ?ShowWindow@CWnd@@QAEHH@Z ; CWnd::ShowWindow

; 319  : 
; 320  : 	GetDlgItem(IDC_STATIC_DOWN)->ShowWindow(SW_HIDE);

  00040	6a 00		 push	 0
  00042	68 97 17 00 00	 push	 6039			; 00001797H
  00047	8b ce		 mov	 ecx, esi
  00049	e8 00 00 00 00	 call	 ?GetDlgItem@CWnd@@QBEPAV1@H@Z ; CWnd::GetDlgItem
  0004e	8b c8		 mov	 ecx, eax
  00050	e8 00 00 00 00	 call	 ?ShowWindow@CWnd@@QAEHH@Z ; CWnd::ShowWindow

; 321  : 	GetDlgItem(IDC_BTN_DOWN)->ShowWindow(SW_HIDE);

  00055	6a 00		 push	 0
  00057	68 95 17 00 00	 push	 6037			; 00001795H
  0005c	8b ce		 mov	 ecx, esi
  0005e	e8 00 00 00 00	 call	 ?GetDlgItem@CWnd@@QBEPAV1@H@Z ; CWnd::GetDlgItem
  00063	8b c8		 mov	 ecx, eax
  00065	e8 00 00 00 00	 call	 ?ShowWindow@CWnd@@QAEHH@Z ; CWnd::ShowWindow

; 322  : 	GetDlgItem(IDC_FILL_DOWN)->ShowWindow(SW_HIDE);

  0006a	6a 00		 push	 0
  0006c	68 0b 04 00 00	 push	 1035			; 0000040bH
  00071	8b ce		 mov	 ecx, esi
  00073	e8 00 00 00 00	 call	 ?GetDlgItem@CWnd@@QBEPAV1@H@Z ; CWnd::GetDlgItem
  00078	8b c8		 mov	 ecx, eax
  0007a	e8 00 00 00 00	 call	 ?ShowWindow@CWnd@@QAEHH@Z ; CWnd::ShowWindow

; 323  : 
; 324  : 	GetDlgItem(IDC_STATIC_SAME_CANDLE)->ShowWindow(SW_SHOW);

  0007f	6a 05		 push	 5
  00081	68 fd 17 00 00	 push	 6141			; 000017fdH
  00086	8b ce		 mov	 ecx, esi
  00088	e8 00 00 00 00	 call	 ?GetDlgItem@CWnd@@QBEPAV1@H@Z ; CWnd::GetDlgItem
  0008d	8b c8		 mov	 ecx, eax
  0008f	e8 00 00 00 00	 call	 ?ShowWindow@CWnd@@QAEHH@Z ; CWnd::ShowWindow

; 325  : 	GetDlgItem(IDC_CHECK_UP)->ShowWindow(SW_SHOW);

  00094	6a 05		 push	 5
  00096	68 fe 17 00 00	 push	 6142			; 000017feH
  0009b	8b ce		 mov	 ecx, esi
  0009d	e8 00 00 00 00	 call	 ?GetDlgItem@CWnd@@QBEPAV1@H@Z ; CWnd::GetDlgItem
  000a2	8b c8		 mov	 ecx, eax
  000a4	e8 00 00 00 00	 call	 ?ShowWindow@CWnd@@QAEHH@Z ; CWnd::ShowWindow

; 326  : 	GetDlgItem(IDC_CHECK_DOWN)->ShowWindow(SW_SHOW);

  000a9	6a 05		 push	 5
  000ab	68 ff 17 00 00	 push	 6143			; 000017ffH
  000b0	8b ce		 mov	 ecx, esi
  000b2	e8 00 00 00 00	 call	 ?GetDlgItem@CWnd@@QBEPAV1@H@Z ; CWnd::GetDlgItem
  000b7	8b c8		 mov	 ecx, eax
  000b9	e8 00 00 00 00	 call	 ?ShowWindow@CWnd@@QAEHH@Z ; CWnd::ShowWindow
  000be	5e		 pop	 esi

; 327  : }

  000bf	c3		 ret	 0
?OnSameBong@CSetting_Volume@@IAEXXZ ENDP		; CSetting_Volume::OnSameBong
_TEXT	ENDS
; Function compile flags: /Ogtp
; File D:\git\src\IBK\IBK_DRFN\ProjSrc\SrcChartEx\ChartAddIn\ChartEnvSetupDlgAddIn\ChartEnvSetupDlgAddIn\Setting_Volume.cpp
; File D:\git\src\IBK\IBK_DRFN\ProjSrc\SrcChartEx\ChartAddIn\ChartEnvSetupDlgAddIn\Include_Chart\Dll_Load\IMetaTable.h
; File C:\Program Files (x86)\Microsoft Visual Studio\2019\Community\VC\Tools\MSVC\14.29.30133\atlmfc\include\afxwin1.inl
; File D:\git\src\IBK\IBK_DRFN\ProjSrc\SrcChartEx\ChartAddIn\ChartEnvSetupDlgAddIn\Include_Chart\Dll_Load\IMetaTable.h
; File C:\Program Files (x86)\Microsoft Visual Studio\2019\Community\VC\Tools\MSVC\14.29.30133\atlmfc\include\afxwin1.inl
; File D:\git\src\IBK\IBK_DRFN\ProjSrc\SrcChartEx\ChartAddIn\ChartEnvSetupDlgAddIn\ChartEnvSetupDlgAddIn\Setting_Volume.cpp
; File C:\Program Files (x86)\Microsoft Visual Studio\2019\Community\VC\Tools\MSVC\14.29.30133\atlmfc\include\afxwin2.inl
; File D:\git\src\IBK\IBK_DRFN\ProjSrc\SrcChartEx\ChartAddIn\ChartEnvSetupDlgAddIn\ChartEnvSetupDlgAddIn\Setting_Volume.cpp
; File D:\git\src\IBK\IBK_DRFN\ProjSrc\SrcChartEx\ChartAddIn\ChartEnvSetupDlgAddIn\Include_Chart\Dll_Load\IMetaTable.h
; File C:\Program Files (x86)\Microsoft Visual Studio\2019\Community\VC\Tools\MSVC\14.29.30133\atlmfc\include\afxwin1.inl
; File D:\git\src\IBK\IBK_DRFN\ProjSrc\SrcChartEx\ChartAddIn\ChartEnvSetupDlgAddIn\ChartEnvSetupDlgAddIn\Setting_Volume.cpp
;	COMDAT ?OnSimpleVolume@CSetting_Volume@@IAEXXZ
_TEXT	SEGMENT
___mlrs__$ = -24					; size = 4
$T2 = -20						; size = 4
_strColor$ = -16					; size = 4
__$EHRec$ = -12						; size = 12
?OnSimpleVolume@CSetting_Volume@@IAEXXZ PROC		; CSetting_Volume::OnSimpleVolume, COMDAT
; _this$ = ecx

; 251  : {

  00000	55		 push	 ebp
  00001	8b ec		 mov	 ebp, esp
  00003	6a ff		 push	 -1
  00005	68 00 00 00 00	 push	 __ehhandler$?OnSimpleVolume@CSetting_Volume@@IAEXXZ
  0000a	64 a1 00 00 00
	00		 mov	 eax, DWORD PTR fs:0
  00010	50		 push	 eax
  00011	83 ec 0c	 sub	 esp, 12			; 0000000cH
  00014	53		 push	 ebx
  00015	56		 push	 esi
  00016	57		 push	 edi
  00017	a1 00 00 00 00	 mov	 eax, DWORD PTR ___security_cookie
  0001c	33 c5		 xor	 eax, ebp
  0001e	50		 push	 eax
  0001f	8d 45 f4	 lea	 eax, DWORD PTR __$EHRec$[ebp]
  00022	64 a3 00 00 00
	00		 mov	 DWORD PTR fs:0, eax
  00028	8b f9		 mov	 edi, ecx

; 252  : 	// 1. Dialog Item .
; 253  : 	GetDlgItem(IDC_STATIC_UP)->ShowWindow(SW_SHOW);

  0002a	6a 05		 push	 5
  0002c	68 96 17 00 00	 push	 6038			; 00001796H
  00031	e8 00 00 00 00	 call	 ?GetDlgItem@CWnd@@QBEPAV1@H@Z ; CWnd::GetDlgItem
  00036	8b c8		 mov	 ecx, eax
  00038	e8 00 00 00 00	 call	 ?ShowWindow@CWnd@@QAEHH@Z ; CWnd::ShowWindow

; 254  : 	GetDlgItem(IDC_BTN_UP)->ShowWindow(SW_SHOW);

  0003d	6a 05		 push	 5
  0003f	68 94 17 00 00	 push	 6036			; 00001794H
  00044	8b cf		 mov	 ecx, edi
  00046	e8 00 00 00 00	 call	 ?GetDlgItem@CWnd@@QBEPAV1@H@Z ; CWnd::GetDlgItem
  0004b	8b c8		 mov	 ecx, eax
  0004d	e8 00 00 00 00	 call	 ?ShowWindow@CWnd@@QAEHH@Z ; CWnd::ShowWindow

; 255  : 	GetDlgItem(IDC_FILL)->ShowWindow(SW_SHOW);

  00052	6a 05		 push	 5
  00054	68 00 04 00 00	 push	 1024			; 00000400H
  00059	8b cf		 mov	 ecx, edi
  0005b	e8 00 00 00 00	 call	 ?GetDlgItem@CWnd@@QBEPAV1@H@Z ; CWnd::GetDlgItem
  00060	8b c8		 mov	 ecx, eax
  00062	e8 00 00 00 00	 call	 ?ShowWindow@CWnd@@QAEHH@Z ; CWnd::ShowWindow

; 256  : 
; 257  : 	GetDlgItem(IDC_STATIC_DOWN)->ShowWindow(SW_HIDE);

  00067	6a 00		 push	 0
  00069	68 97 17 00 00	 push	 6039			; 00001797H
  0006e	8b cf		 mov	 ecx, edi
  00070	e8 00 00 00 00	 call	 ?GetDlgItem@CWnd@@QBEPAV1@H@Z ; CWnd::GetDlgItem
  00075	8b c8		 mov	 ecx, eax
  00077	e8 00 00 00 00	 call	 ?ShowWindow@CWnd@@QAEHH@Z ; CWnd::ShowWindow

; 258  : 	GetDlgItem(IDC_BTN_DOWN)->ShowWindow(SW_HIDE);

  0007c	6a 00		 push	 0
  0007e	68 95 17 00 00	 push	 6037			; 00001795H
  00083	8b cf		 mov	 ecx, edi
  00085	e8 00 00 00 00	 call	 ?GetDlgItem@CWnd@@QBEPAV1@H@Z ; CWnd::GetDlgItem
  0008a	8b c8		 mov	 ecx, eax
  0008c	e8 00 00 00 00	 call	 ?ShowWindow@CWnd@@QAEHH@Z ; CWnd::ShowWindow

; 259  : 	GetDlgItem(IDC_FILL_DOWN)->ShowWindow(SW_HIDE);

  00091	6a 00		 push	 0
  00093	68 0b 04 00 00	 push	 1035			; 0000040bH
  00098	8b cf		 mov	 ecx, edi
  0009a	e8 00 00 00 00	 call	 ?GetDlgItem@CWnd@@QBEPAV1@H@Z ; CWnd::GetDlgItem
  0009f	8b c8		 mov	 ecx, eax
  000a1	e8 00 00 00 00	 call	 ?ShowWindow@CWnd@@QAEHH@Z ; CWnd::ShowWindow

; 260  : 
; 261  : 	GetDlgItem(IDC_STATIC_SAME_CANDLE)->ShowWindow(SW_HIDE);

  000a6	6a 00		 push	 0
  000a8	68 fd 17 00 00	 push	 6141			; 000017fdH
  000ad	8b cf		 mov	 ecx, edi
  000af	e8 00 00 00 00	 call	 ?GetDlgItem@CWnd@@QBEPAV1@H@Z ; CWnd::GetDlgItem
  000b4	8b c8		 mov	 ecx, eax
  000b6	e8 00 00 00 00	 call	 ?ShowWindow@CWnd@@QAEHH@Z ; CWnd::ShowWindow

; 262  : 	GetDlgItem(IDC_CHECK_UP)->ShowWindow(SW_HIDE);

  000bb	6a 00		 push	 0
  000bd	68 fe 17 00 00	 push	 6142			; 000017feH
  000c2	8b cf		 mov	 ecx, edi
  000c4	e8 00 00 00 00	 call	 ?GetDlgItem@CWnd@@QBEPAV1@H@Z ; CWnd::GetDlgItem
  000c9	8b c8		 mov	 ecx, eax
  000cb	e8 00 00 00 00	 call	 ?ShowWindow@CWnd@@QAEHH@Z ; CWnd::ShowWindow

; 263  : 	GetDlgItem(IDC_CHECK_DOWN)->ShowWindow(SW_HIDE);	

  000d0	6a 00		 push	 0
  000d2	68 ff 17 00 00	 push	 6143			; 000017ffH
  000d7	8b cf		 mov	 ecx, edi
  000d9	e8 00 00 00 00	 call	 ?GetDlgItem@CWnd@@QBEPAV1@H@Z ; CWnd::GetDlgItem
  000de	8b c8		 mov	 ecx, eax
  000e0	e8 00 00 00 00	 call	 ?ShowWindow@CWnd@@QAEHH@Z ; CWnd::ShowWindow

; 264  : 
; 265  : 	ML_SET_LANGUAGE_RES();

  000e5	e8 00 00 00 00	 call	 ?AfxGetStaticModuleState@@YGPAVAFX_MODULE_STATE@@XZ ; AfxGetStaticModuleState
  000ea	8b 9f d8 00 00
	00		 mov	 ebx, DWORD PTR [edi+216]
  000f0	8b 70 08	 mov	 esi, DWORD PTR [eax+8]
; File D:\git\src\IBK\IBK_DRFN\ProjSrc\SrcChartEx\ChartAddIn\ChartEnvSetupDlgAddIn\Include_Chart\Dll_Load\IMetaTable.h

; 936  : 	DECLARE_FUNCTION2(	LoadResourceDLL,				HMODULE, AfxGetStaticModuleState()->m_hCurrentInstanceHandle, HWND, HMODULE);

  000f3	a1 04 00 00 00	 mov	 eax, DWORD PTR ?g_iMetaTable@@3VIMetaTable@@A+4
  000f8	85 c0		 test	 eax, eax
  000fa	74 4b		 je	 SHORT $LN8@OnSimpleVo
  000fc	b9 80 0d 00 00	 mov	 ecx, 3456		; 00000d80H
  00101	66 3b 0d 94 00
	00 00		 cmp	 cx, WORD PTR ?g_iMetaTable@@3VIMetaTable@@A+148
  00108	74 29		 je	 SHORT $LN25@OnSimpleVo
  0010a	68 00 00 00 00	 push	 OFFSET ??_C@_0BA@ENJOCHIO@LoadResourceDLL@
  0010f	50		 push	 eax
  00110	c7 05 90 00 00
	00 00 00 00 00	 mov	 DWORD PTR ?g_iMetaTable@@3VIMetaTable@@A+144, 0
  0011a	ff 15 00 00 00
	00		 call	 DWORD PTR __imp__GetProcAddress@8
  00120	b9 80 0d 00 00	 mov	 ecx, 3456		; 00000d80H
  00125	a3 90 00 00 00	 mov	 DWORD PTR ?g_iMetaTable@@3VIMetaTable@@A+144, eax
  0012a	66 89 0d 94 00
	00 00		 mov	 WORD PTR ?g_iMetaTable@@3VIMetaTable@@A+148, cx
  00131	eb 05		 jmp	 SHORT $LN7@OnSimpleVo
$LN25@OnSimpleVo:
  00133	a1 90 00 00 00	 mov	 eax, DWORD PTR ?g_iMetaTable@@3VIMetaTable@@A+144
$LN7@OnSimpleVo:
  00138	85 c0		 test	 eax, eax
  0013a	74 0b		 je	 SHORT $LN8@OnSimpleVo
  0013c	56		 push	 esi
  0013d	53		 push	 ebx
  0013e	ff d0		 call	 eax
  00140	83 c4 08	 add	 esp, 8
  00143	8b d8		 mov	 ebx, eax
  00145	eb 08		 jmp	 SHORT $LN5@OnSimpleVo
$LN8@OnSimpleVo:
  00147	e8 00 00 00 00	 call	 ?AfxGetStaticModuleState@@YGPAVAFX_MODULE_STATE@@XZ ; AfxGetStaticModuleState
  0014c	8b 58 08	 mov	 ebx, DWORD PTR [eax+8]
$LN5@OnSimpleVo:
; File C:\Program Files (x86)\Microsoft Visual Studio\2019\Community\VC\Tools\MSVC\14.29.30133\atlmfc\include\afxwin1.inl

; 25   : 		return afxCurrentResourceHandle; }

  0014f	e8 00 00 00 00	 call	 ?AfxGetModuleState@@YGPAVAFX_MODULE_STATE@@XZ ; AfxGetModuleState
; File D:\git\src\IBK\IBK_DRFN\ProjSrc\SrcChartEx\ChartAddIn\ChartEnvSetupDlgAddIn\Include_Chart\Dll_Load\IMetaTable.h

; 1032 : 		m_hInstance = AfxGetResourceHandle();

  00154	8b 70 0c	 mov	 esi, DWORD PTR [eax+12]
  00157	89 75 e8	 mov	 DWORD PTR ___mlrs__$[ebp], esi
; File C:\Program Files (x86)\Microsoft Visual Studio\2019\Community\VC\Tools\MSVC\14.29.30133\atlmfc\include\afxwin1.inl

; 27   : 	{ ASSERT(hInstResource != NULL); afxCurrentResourceHandle = hInstResource; }

  0015a	e8 00 00 00 00	 call	 ?AfxGetModuleState@@YGPAVAFX_MODULE_STATE@@XZ ; AfxGetModuleState
  0015f	89 58 0c	 mov	 DWORD PTR [eax+12], ebx
; File D:\git\src\IBK\IBK_DRFN\ProjSrc\SrcChartEx\ChartAddIn\ChartEnvSetupDlgAddIn\ChartEnvSetupDlgAddIn\Setting_Volume.cpp

; 266  : 	CString strColor;

  00162	8d 4d f0	 lea	 ecx, DWORD PTR _strColor$[ebp]
  00165	c7 45 fc 00 00
	00 00		 mov	 DWORD PTR __$EHRec$[ebp+8], 0
  0016c	ff 15 00 00 00
	00		 call	 DWORD PTR __imp_??0?$CStringT@DV?$StrTraitMFC_DLL@DV?$ChTraitsCRT@D@ATL@@@@@ATL@@QAE@XZ

; 267  : 	strColor.LoadString(IDS_BAR_COLOR);

  00172	6a 24		 push	 36			; 00000024H
  00174	8d 4d f0	 lea	 ecx, DWORD PTR _strColor$[ebp]
  00177	c6 45 fc 01	 mov	 BYTE PTR __$EHRec$[ebp+8], 1
  0017b	ff 15 00 00 00
	00		 call	 DWORD PTR __imp_?LoadStringA@?$CStringT@DV?$StrTraitMFC_DLL@DV?$ChTraitsCRT@D@ATL@@@@@ATL@@QAEHI@Z

; 268  : 	GetDlgItem(IDC_STATIC_UP)->SetWindowText(strColor);

  00181	ff 75 f0	 push	 DWORD PTR _strColor$[ebp]
  00184	8b cf		 mov	 ecx, edi
  00186	68 96 17 00 00	 push	 6038			; 00001796H
  0018b	e8 00 00 00 00	 call	 ?GetDlgItem@CWnd@@QBEPAV1@H@Z ; CWnd::GetDlgItem
  00190	8b c8		 mov	 ecx, eax
  00192	e8 00 00 00 00	 call	 ?SetWindowTextA@CWnd@@QAEXPBD@Z ; CWnd::SetWindowTextA

; 269  : 	
; 270  : 	//   1 .
; 271  : 	m_btnUp.SetColor( m_pIGraphInfo->GetSubGraphColor( m_nSubGraphIndex, 5));

  00197	8b 8f c4 00 00
	00		 mov	 ecx, DWORD PTR [edi+196]
  0019d	6a 05		 push	 5
  0019f	ff b7 08 04 00
	00		 push	 DWORD PTR [edi+1032]
  001a5	8b 01		 mov	 eax, DWORD PTR [ecx]
  001a7	ff 50 64	 call	 DWORD PTR [eax+100]
  001aa	89 45 ec	 mov	 DWORD PTR $T2[ebp], eax
  001ad	8d 8f f8 01 00
	00		 lea	 ecx, DWORD PTR [edi+504]
  001b3	8d 45 ec	 lea	 eax, DWORD PTR $T2[ebp]
  001b6	50		 push	 eax
  001b7	e8 00 00 00 00	 call	 ?SetColor@CColorButton@@QAEXABK@Z ; CColorButton::SetColor
; File C:\Program Files (x86)\Microsoft Visual Studio\2019\Community\VC\Tools\MSVC\14.29.30133\atlmfc\include\afxwin2.inl

; 114  : 	{ ASSERT(::IsWindow(m_hWnd)); ::InvalidateRect(m_hWnd, NULL, bErase); }

  001bc	6a 01		 push	 1
  001be	6a 00		 push	 0
  001c0	ff b7 18 02 00
	00		 push	 DWORD PTR [edi+536]
  001c6	ff 15 00 00 00
	00		 call	 DWORD PTR __imp__InvalidateRect@12
; File D:\git\src\IBK\IBK_DRFN\ProjSrc\SrcChartEx\ChartAddIn\ChartEnvSetupDlgAddIn\ChartEnvSetupDlgAddIn\Setting_Volume.cpp

; 273  : }

  001cc	8d 4d f0	 lea	 ecx, DWORD PTR _strColor$[ebp]
  001cf	ff 15 00 00 00
	00		 call	 DWORD PTR __imp_??1?$CStringT@DV?$StrTraitMFC_DLL@DV?$ChTraitsCRT@D@ATL@@@@@ATL@@QAE@XZ
; File D:\git\src\IBK\IBK_DRFN\ProjSrc\SrcChartEx\ChartAddIn\ChartEnvSetupDlgAddIn\Include_Chart\Dll_Load\IMetaTable.h

; 1036 : 	{

  001d5	c7 45 fc 02 00
	00 00		 mov	 DWORD PTR __$EHRec$[ebp+8], 2
; File C:\Program Files (x86)\Microsoft Visual Studio\2019\Community\VC\Tools\MSVC\14.29.30133\atlmfc\include\afxwin1.inl

; 27   : 	{ ASSERT(hInstResource != NULL); afxCurrentResourceHandle = hInstResource; }

  001dc	e8 00 00 00 00	 call	 ?AfxGetModuleState@@YGPAVAFX_MODULE_STATE@@XZ ; AfxGetModuleState
  001e1	89 70 0c	 mov	 DWORD PTR [eax+12], esi
; File D:\git\src\IBK\IBK_DRFN\ProjSrc\SrcChartEx\ChartAddIn\ChartEnvSetupDlgAddIn\ChartEnvSetupDlgAddIn\Setting_Volume.cpp

; 273  : }

  001e4	8b 4d f4	 mov	 ecx, DWORD PTR __$EHRec$[ebp]
  001e7	64 89 0d 00 00
	00 00		 mov	 DWORD PTR fs:0, ecx
  001ee	59		 pop	 ecx
  001ef	5f		 pop	 edi
  001f0	5e		 pop	 esi
  001f1	5b		 pop	 ebx
  001f2	8b e5		 mov	 esp, ebp
  001f4	5d		 pop	 ebp
  001f5	c3		 ret	 0
_TEXT	ENDS
;	COMDAT text$x
text$x	SEGMENT
__unwindfunclet$?OnSimpleVolume@CSetting_Volume@@IAEXXZ$0:
  00000	8d 4d e8	 lea	 ecx, DWORD PTR ___mlrs__$[ebp]
  00003	e9 00 00 00 00	 jmp	 ??1CMultiLanguageResourceSetter@@QAE@XZ ; CMultiLanguageResourceSetter::~CMultiLanguageResourceSetter
__unwindfunclet$?OnSimpleVolume@CSetting_Volume@@IAEXXZ$1:
  00008	8d 4d f0	 lea	 ecx, DWORD PTR _strColor$[ebp]
  0000b	ff 25 00 00 00
	00		 jmp	 DWORD PTR __imp_??1?$CStringT@DV?$StrTraitMFC_DLL@DV?$ChTraitsCRT@D@ATL@@@@@ATL@@QAE@XZ
  00011	cc		 int	 3
  00012	cc		 int	 3
  00013	cc		 int	 3
  00014	cc		 int	 3
  00015	cc		 int	 3
__ehhandler$?OnSimpleVolume@CSetting_Volume@@IAEXXZ:
  00016	90		 npad	 1
  00017	90		 npad	 1
  00018	8b 54 24 08	 mov	 edx, DWORD PTR [esp+8]
  0001c	8d 42 0c	 lea	 eax, DWORD PTR [edx+12]
  0001f	8b 4a e4	 mov	 ecx, DWORD PTR [edx-28]
  00022	33 c8		 xor	 ecx, eax
  00024	e8 00 00 00 00	 call	 @__security_check_cookie@4
  00029	b8 00 00 00 00	 mov	 eax, OFFSET __ehfuncinfo$?OnSimpleVolume@CSetting_Volume@@IAEXXZ
  0002e	e9 00 00 00 00	 jmp	 ___CxxFrameHandler3
text$x	ENDS
?OnSimpleVolume@CSetting_Volume@@IAEXXZ ENDP		; CSetting_Volume::OnSimpleVolume
; Function compile flags: /Ogtp
; File D:\git\src\IBK\IBK_DRFN\ProjSrc\SrcChartEx\ChartAddIn\ChartEnvSetupDlgAddIn\ChartEnvSetupDlgAddIn\Setting_Volume.cpp
; File C:\Program Files (x86)\Microsoft Visual Studio\2019\Community\VC\Tools\MSVC\14.29.30133\atlmfc\include\afxwin2.inl
; File D:\git\src\IBK\IBK_DRFN\ProjSrc\SrcChartEx\ChartAddIn\ChartEnvSetupDlgAddIn\ChartEnvSetupDlgAddIn\Setting_Volume.cpp
; File C:\Program Files (x86)\Microsoft Visual Studio\2019\Community\VC\Tools\MSVC\14.29.30133\atlmfc\include\afxwin2.inl
; File D:\git\src\IBK\IBK_DRFN\ProjSrc\SrcChartEx\ChartAddIn\ChartEnvSetupDlgAddIn\ChartEnvSetupDlgAddIn\Setting_Volume.cpp
;	COMDAT ?OnUpdownVolume@CSetting_Volume@@IAEXXZ
_TEXT	SEGMENT
$T1 = -4						; size = 4
$T2 = -4						; size = 4
?OnUpdownVolume@CSetting_Volume@@IAEXXZ PROC		; CSetting_Volume::OnUpdownVolume, COMDAT
; _this$ = ecx

; 282  : {

  00000	55		 push	 ebp
  00001	8b ec		 mov	 ebp, esp
  00003	51		 push	 ecx
  00004	57		 push	 edi

; 283  : 	GetDlgItem(IDC_STATIC_UP)->ShowWindow(SW_SHOW);

  00005	6a 05		 push	 5
  00007	68 96 17 00 00	 push	 6038			; 00001796H
  0000c	8b f9		 mov	 edi, ecx
  0000e	e8 00 00 00 00	 call	 ?GetDlgItem@CWnd@@QBEPAV1@H@Z ; CWnd::GetDlgItem
  00013	8b c8		 mov	 ecx, eax
  00015	e8 00 00 00 00	 call	 ?ShowWindow@CWnd@@QAEHH@Z ; CWnd::ShowWindow

; 284  : 	GetDlgItem(IDC_BTN_UP)->ShowWindow(SW_SHOW);

  0001a	6a 05		 push	 5
  0001c	68 94 17 00 00	 push	 6036			; 00001794H
  00021	8b cf		 mov	 ecx, edi
  00023	e8 00 00 00 00	 call	 ?GetDlgItem@CWnd@@QBEPAV1@H@Z ; CWnd::GetDlgItem
  00028	8b c8		 mov	 ecx, eax
  0002a	e8 00 00 00 00	 call	 ?ShowWindow@CWnd@@QAEHH@Z ; CWnd::ShowWindow

; 285  : 	GetDlgItem(IDC_FILL)->ShowWindow(SW_SHOW);

  0002f	6a 05		 push	 5
  00031	68 00 04 00 00	 push	 1024			; 00000400H
  00036	8b cf		 mov	 ecx, edi
  00038	e8 00 00 00 00	 call	 ?GetDlgItem@CWnd@@QBEPAV1@H@Z ; CWnd::GetDlgItem
  0003d	8b c8		 mov	 ecx, eax
  0003f	e8 00 00 00 00	 call	 ?ShowWindow@CWnd@@QAEHH@Z ; CWnd::ShowWindow

; 286  : 
; 287  : 	GetDlgItem(IDC_STATIC_DOWN)->ShowWindow(SW_SHOW);

  00044	6a 05		 push	 5
  00046	68 97 17 00 00	 push	 6039			; 00001797H
  0004b	8b cf		 mov	 ecx, edi
  0004d	e8 00 00 00 00	 call	 ?GetDlgItem@CWnd@@QBEPAV1@H@Z ; CWnd::GetDlgItem
  00052	8b c8		 mov	 ecx, eax
  00054	e8 00 00 00 00	 call	 ?ShowWindow@CWnd@@QAEHH@Z ; CWnd::ShowWindow

; 288  : 	GetDlgItem(IDC_BTN_DOWN)->ShowWindow(SW_SHOW);

  00059	6a 05		 push	 5
  0005b	68 95 17 00 00	 push	 6037			; 00001795H
  00060	8b cf		 mov	 ecx, edi
  00062	e8 00 00 00 00	 call	 ?GetDlgItem@CWnd@@QBEPAV1@H@Z ; CWnd::GetDlgItem
  00067	8b c8		 mov	 ecx, eax
  00069	e8 00 00 00 00	 call	 ?ShowWindow@CWnd@@QAEHH@Z ; CWnd::ShowWindow

; 289  : 	GetDlgItem(IDC_FILL_DOWN)->ShowWindow(SW_SHOW);

  0006e	6a 05		 push	 5
  00070	68 0b 04 00 00	 push	 1035			; 0000040bH
  00075	8b cf		 mov	 ecx, edi
  00077	e8 00 00 00 00	 call	 ?GetDlgItem@CWnd@@QBEPAV1@H@Z ; CWnd::GetDlgItem
  0007c	8b c8		 mov	 ecx, eax
  0007e	e8 00 00 00 00	 call	 ?ShowWindow@CWnd@@QAEHH@Z ; CWnd::ShowWindow

; 290  : 
; 291  : 	GetDlgItem(IDC_STATIC_SAME_CANDLE)->ShowWindow(SW_HIDE);

  00083	6a 00		 push	 0
  00085	68 fd 17 00 00	 push	 6141			; 000017fdH
  0008a	8b cf		 mov	 ecx, edi
  0008c	e8 00 00 00 00	 call	 ?GetDlgItem@CWnd@@QBEPAV1@H@Z ; CWnd::GetDlgItem
  00091	8b c8		 mov	 ecx, eax
  00093	e8 00 00 00 00	 call	 ?ShowWindow@CWnd@@QAEHH@Z ; CWnd::ShowWindow

; 292  : 	GetDlgItem(IDC_CHECK_UP)->ShowWindow(SW_HIDE);

  00098	6a 00		 push	 0
  0009a	68 fe 17 00 00	 push	 6142			; 000017feH
  0009f	8b cf		 mov	 ecx, edi
  000a1	e8 00 00 00 00	 call	 ?GetDlgItem@CWnd@@QBEPAV1@H@Z ; CWnd::GetDlgItem
  000a6	8b c8		 mov	 ecx, eax
  000a8	e8 00 00 00 00	 call	 ?ShowWindow@CWnd@@QAEHH@Z ; CWnd::ShowWindow

; 293  : 	GetDlgItem(IDC_CHECK_DOWN)->ShowWindow(SW_HIDE);

  000ad	6a 00		 push	 0
  000af	68 ff 17 00 00	 push	 6143			; 000017ffH
  000b4	8b cf		 mov	 ecx, edi
  000b6	e8 00 00 00 00	 call	 ?GetDlgItem@CWnd@@QBEPAV1@H@Z ; CWnd::GetDlgItem
  000bb	8b c8		 mov	 ecx, eax
  000bd	e8 00 00 00 00	 call	 ?ShowWindow@CWnd@@QAEHH@Z ; CWnd::ShowWindow

; 294  : 
; 295  : // 2008.01.25 by LYH >>
; 296  : 	//GetDlgItem(IDC_STATIC_UP)->SetWindowText("");
; 297  : 	//GetDlgItem(IDC_STATIC_DOWN)->SetWindowText("");
; 298  : 	GetDlgItem(IDC_STATIC_UP)->SetWindowText(m_strUp);

  000c2	ff b7 e8 00 00
	00		 push	 DWORD PTR [edi+232]
  000c8	8b cf		 mov	 ecx, edi
  000ca	68 96 17 00 00	 push	 6038			; 00001796H
  000cf	e8 00 00 00 00	 call	 ?GetDlgItem@CWnd@@QBEPAV1@H@Z ; CWnd::GetDlgItem
  000d4	8b c8		 mov	 ecx, eax
  000d6	e8 00 00 00 00	 call	 ?SetWindowTextA@CWnd@@QAEXPBD@Z ; CWnd::SetWindowTextA

; 299  : 	GetDlgItem(IDC_STATIC_DOWN)->SetWindowText(m_strDown);

  000db	ff b7 ec 00 00
	00		 push	 DWORD PTR [edi+236]
  000e1	8b cf		 mov	 ecx, edi
  000e3	68 97 17 00 00	 push	 6039			; 00001797H
  000e8	e8 00 00 00 00	 call	 ?GetDlgItem@CWnd@@QBEPAV1@H@Z ; CWnd::GetDlgItem
  000ed	8b c8		 mov	 ecx, eax
  000ef	e8 00 00 00 00	 call	 ?SetWindowTextA@CWnd@@QAEXPBD@Z ; CWnd::SetWindowTextA

; 300  : // 2008.01.25 by LYH <<
; 301  : 
; 302  : 	m_btnUp.SetColor( m_pIGraphInfo->GetSubGraphColor( m_nSubGraphIndex, 1) );

  000f4	8b 8f c4 00 00
	00		 mov	 ecx, DWORD PTR [edi+196]
  000fa	6a 01		 push	 1
  000fc	ff b7 08 04 00
	00		 push	 DWORD PTR [edi+1032]
  00102	8b 01		 mov	 eax, DWORD PTR [ecx]
  00104	ff 50 64	 call	 DWORD PTR [eax+100]
  00107	89 45 fc	 mov	 DWORD PTR $T2[ebp], eax
  0010a	8d 8f f8 01 00
	00		 lea	 ecx, DWORD PTR [edi+504]
  00110	8d 45 fc	 lea	 eax, DWORD PTR $T2[ebp]
  00113	50		 push	 eax
  00114	e8 00 00 00 00	 call	 ?SetColor@CColorButton@@QAEXABK@Z ; CColorButton::SetColor
; File C:\Program Files (x86)\Microsoft Visual Studio\2019\Community\VC\Tools\MSVC\14.29.30133\atlmfc\include\afxwin2.inl

; 114  : 	{ ASSERT(::IsWindow(m_hWnd)); ::InvalidateRect(m_hWnd, NULL, bErase); }

  00119	6a 01		 push	 1
  0011b	6a 00		 push	 0
  0011d	ff b7 18 02 00
	00		 push	 DWORD PTR [edi+536]
  00123	ff 15 00 00 00
	00		 call	 DWORD PTR __imp__InvalidateRect@12
; File D:\git\src\IBK\IBK_DRFN\ProjSrc\SrcChartEx\ChartAddIn\ChartEnvSetupDlgAddIn\ChartEnvSetupDlgAddIn\Setting_Volume.cpp

; 304  : 	m_btnDown.SetColor( m_pIGraphInfo->GetSubGraphColor( m_nSubGraphIndex, 3) );

  00129	8b 8f c4 00 00
	00		 mov	 ecx, DWORD PTR [edi+196]
  0012f	6a 03		 push	 3
  00131	ff b7 08 04 00
	00		 push	 DWORD PTR [edi+1032]
  00137	8b 01		 mov	 eax, DWORD PTR [ecx]
  00139	ff 50 64	 call	 DWORD PTR [eax+100]
  0013c	89 45 fc	 mov	 DWORD PTR $T1[ebp], eax
  0013f	8d 8f 80 02 00
	00		 lea	 ecx, DWORD PTR [edi+640]
  00145	8d 45 fc	 lea	 eax, DWORD PTR $T1[ebp]
  00148	50		 push	 eax
  00149	e8 00 00 00 00	 call	 ?SetColor@CColorButton@@QAEXABK@Z ; CColorButton::SetColor
; File C:\Program Files (x86)\Microsoft Visual Studio\2019\Community\VC\Tools\MSVC\14.29.30133\atlmfc\include\afxwin2.inl

; 114  : 	{ ASSERT(::IsWindow(m_hWnd)); ::InvalidateRect(m_hWnd, NULL, bErase); }

  0014e	6a 01		 push	 1
  00150	6a 00		 push	 0
  00152	ff b7 a0 02 00
	00		 push	 DWORD PTR [edi+672]
  00158	ff 15 00 00 00
	00		 call	 DWORD PTR __imp__InvalidateRect@12
  0015e	5f		 pop	 edi
; File D:\git\src\IBK\IBK_DRFN\ProjSrc\SrcChartEx\ChartAddIn\ChartEnvSetupDlgAddIn\ChartEnvSetupDlgAddIn\Setting_Volume.cpp

; 306  : }

  0015f	8b e5		 mov	 esp, ebp
  00161	5d		 pop	 ebp
  00162	c3		 ret	 0
?OnUpdownVolume@CSetting_Volume@@IAEXXZ ENDP		; CSetting_Volume::OnUpdownVolume
_TEXT	ENDS
; Function compile flags: /Ogtp
; File D:\git\src\IBK\IBK_DRFN\ProjSrc\SrcChartEx\ChartAddIn\ChartEnvSetupDlgAddIn\ChartEnvSetupDlgAddIn\Setting_Volume.cpp
;	COMDAT ?OnInitDialog@CSetting_Volume@@MAEHXZ
_TEXT	SEGMENT
?OnInitDialog@CSetting_Volume@@MAEHXZ PROC		; CSetting_Volume::OnInitDialog, COMDAT
; _this$ = ecx

; 96   : {

  00000	56		 push	 esi
  00001	8b f1		 mov	 esi, ecx

; 97   : 	CBaseDialog::OnInitDialog();

  00003	e8 00 00 00 00	 call	 ?OnInitDialog@CDialog@@UAEHXZ ; CDialog::OnInitDialog

; 98   : 
; 99   : 	if( !m_pIGraphInfo) return TRUE;

  00008	83 be c4 00 00
	00 00		 cmp	 DWORD PTR [esi+196], 0
  0000f	74 0c		 je	 SHORT $LN4@OnInitDial

; 100  : 	Initial( NULL);

  00011	8b 06		 mov	 eax, DWORD PTR [esi]
  00013	8b ce		 mov	 ecx, esi
  00015	6a 00		 push	 0
  00017	ff 90 94 01 00
	00		 call	 DWORD PTR [eax+404]
$LN4@OnInitDial:

; 101  : 
; 102  : 	return TRUE;  // return TRUE unless you set the focus to a control
; 103  : 	              // EXCEPTION: OCX Property Pages should return FALSE
; 104  : }

  0001d	b8 01 00 00 00	 mov	 eax, 1
  00022	5e		 pop	 esi
  00023	c3		 ret	 0
?OnInitDialog@CSetting_Volume@@MAEHXZ ENDP		; CSetting_Volume::OnInitDialog
_TEXT	ENDS
; Function compile flags: /Ogtp
; File D:\git\src\IBK\IBK_DRFN\ProjSrc\SrcChartEx\ChartAddIn\ChartEnvSetupDlgAddIn\ChartEnvSetupDlgAddIn\Setting_Volume.cpp
;	COMDAT ?OnApply_ColorButton@CSetting_Volume@@QAEXPAUIGraphInfo135914@@H@Z
_TEXT	SEGMENT
_dDrawType$1 = -12					; size = 8
_psn$2 = -4						; size = 4
_nDrawType$1$ = 8					; size = 4
_p_pIGraphInfo$ = 8					; size = 4
_m_nSubGraphIndex$ = 12					; size = 4
?OnApply_ColorButton@CSetting_Volume@@QAEXPAUIGraphInfo135914@@H@Z PROC ; CSetting_Volume::OnApply_ColorButton, COMDAT
; _this$ = ecx

; 406  : {

  00000	55		 push	 ebp
  00001	8b ec		 mov	 ebp, esp
  00003	83 ec 0c	 sub	 esp, 12			; 0000000cH

; 407  : 	if( p_pIGraphInfo == NULL
; 408  : 		|| m_nSubGraphIndex < 0) return;

  00006	83 7d 08 00	 cmp	 DWORD PTR _p_pIGraphInfo$[ebp], 0
  0000a	53		 push	 ebx
  0000b	8b d9		 mov	 ebx, ecx
  0000d	0f 84 ab 01 00
	00		 je	 $LN5@OnApply_Co
  00013	57		 push	 edi
  00014	8b 7d 0c	 mov	 edi, DWORD PTR _m_nSubGraphIndex$[ebp]
  00017	85 ff		 test	 edi, edi
  00019	0f 88 9e 01 00
	00		 js	 $LN15@OnApply_Co

; 409  : 
; 410  : 	int nDrawType = 1;
; 411  : 	IDoubleList *pIDrawCondition = m_pIGraphInfo->GetDrawConditionList();

  0001f	8b 8b c4 00 00
	00		 mov	 ecx, DWORD PTR [ebx+196]
  00025	56		 push	 esi
  00026	c7 45 08 01 00
	00 00		 mov	 DWORD PTR _nDrawType$1$[ebp], 1
  0002d	8b 01		 mov	 eax, DWORD PTR [ecx]
  0002f	ff 50 14	 call	 DWORD PTR [eax+20]
  00032	8b f0		 mov	 esi, eax

; 412  : 	if( pIDrawCondition)

  00034	85 f6		 test	 esi, esi
  00036	74 46		 je	 SHORT $LN6@OnApply_Co

; 413  : 	{
; 414  : 		double dDrawType = -1;
; 415  : 		POSITION psn = pIDrawCondition->GetHeadPosition( );

  00038	8b 16		 mov	 edx, DWORD PTR [esi]
  0003a	8b ce		 mov	 ecx, esi
  0003c	f2 0f 10 05 00
	00 00 00	 movsd	 xmm0, QWORD PTR __real@bff0000000000000
  00044	f2 0f 11 45 f4	 movsd	 QWORD PTR _dDrawType$1[ebp], xmm0
  00049	ff 52 34	 call	 DWORD PTR [edx+52]
  0004c	89 45 fc	 mov	 DWORD PTR _psn$2[ebp], eax

; 416  : 		if( psn)

  0004f	85 c0		 test	 eax, eax
  00051	74 25		 je	 SHORT $LN8@OnApply_Co

; 417  : 		{
; 418  : 			pIDrawCondition->GetNext( psn, dDrawType);

  00053	8b 06		 mov	 eax, DWORD PTR [esi]
  00055	8d 4d f4	 lea	 ecx, DWORD PTR _dDrawType$1[ebp]
  00058	51		 push	 ecx
  00059	8d 4d fc	 lea	 ecx, DWORD PTR _psn$2[ebp]
  0005c	51		 push	 ecx
  0005d	8b ce		 mov	 ecx, esi
  0005f	ff 50 3c	 call	 DWORD PTR [eax+60]

; 419  : 			if( 1 <= dDrawType) nDrawType = ( int)dDrawType;

  00062	f2 0f 10 45 f4	 movsd	 xmm0, QWORD PTR _dDrawType$1[ebp]
  00067	66 0f 2f 05 00
	00 00 00	 comisd	 xmm0, QWORD PTR __real@3ff0000000000000
  0006f	72 07		 jb	 SHORT $LN8@OnApply_Co
  00071	f2 0f 2c c0	 cvttsd2si eax, xmm0
  00075	89 45 08	 mov	 DWORD PTR _nDrawType$1$[ebp], eax
$LN8@OnApply_Co:

; 420  : 		}
; 421  : 		pIDrawCondition->Release();

  00078	8b 06		 mov	 eax, DWORD PTR [esi]
  0007a	56		 push	 esi
  0007b	ff 50 08	 call	 DWORD PTR [eax+8]
$LN6@OnApply_Co:

; 422  : 	}
; 423  : 
; 424  : 
; 425  : 	switch( nDrawType)

  0007e	8b 45 08	 mov	 eax, DWORD PTR _nDrawType$1$[ebp]
  00081	48		 dec	 eax
  00082	83 f8 03	 cmp	 eax, 3
  00085	0f 87 31 01 00
	00		 ja	 $LN16@OnApply_Co
  0008b	ff 24 85 00 00
	00 00		 jmp	 DWORD PTR $LN14@OnApply_Co[eax*4]
$LN9@OnApply_Co:

; 426  : 	{
; 427  : 		case 1 :		// 
; 428  : 		{
; 429  : 			m_pIGraphInfo->SetSubGraphColor( m_nSubGraphIndex, 5, m_btnUp.GetColor());

  00092	8b 83 c4 00 00
	00		 mov	 eax, DWORD PTR [ebx+196]
  00098	8d 8b f8 01 00
	00		 lea	 ecx, DWORD PTR [ebx+504]
  0009e	8b 30		 mov	 esi, DWORD PTR [eax]
  000a0	e8 00 00 00 00	 call	 ?GetColor@CColorButton@@QAEKXZ ; CColorButton::GetColor
  000a5	8b 8b c4 00 00
	00		 mov	 ecx, DWORD PTR [ebx+196]
  000ab	50		 push	 eax
  000ac	6a 05		 push	 5
  000ae	8b c7		 mov	 eax, edi
  000b0	50		 push	 eax
  000b1	ff 56 6c	 call	 DWORD PTR [esi+108]

; 430  : 			m_pIGraphInfo->SetSubGraphColor( m_nSubGraphIndex, 6, m_btnUp.GetColor());

  000b4	8b 83 c4 00 00
	00		 mov	 eax, DWORD PTR [ebx+196]
  000ba	8d 8b f8 01 00
	00		 lea	 ecx, DWORD PTR [ebx+504]
  000c0	8b 30		 mov	 esi, DWORD PTR [eax]
  000c2	e8 00 00 00 00	 call	 ?GetColor@CColorButton@@QAEKXZ ; CColorButton::GetColor
  000c7	8b 8b c4 00 00
	00		 mov	 ecx, DWORD PTR [ebx+196]
  000cd	50		 push	 eax
  000ce	6a 06		 push	 6
  000d0	57		 push	 edi
  000d1	ff 56 6c	 call	 DWORD PTR [esi+108]

; 431  : 			//OnApply_FillUp(m_nSubGraphIndex, m_Fill_Bt);
; 432  : 			//OnApply_FillDown(m_nSubGraphIndex, m_FillDown_Bt);
; 433  : 			OnApply_FillUp(m_nSubGraphIndex, m_Fill_Bt);			

  000d4	8d b3 88 03 00
	00		 lea	 esi, DWORD PTR [ebx+904]
  000da	8b cb		 mov	 ecx, ebx
  000dc	56		 push	 esi
  000dd	57		 push	 edi
  000de	e8 00 00 00 00	 call	 ?OnApply_FillUp@CBaseDialog@@IAEXHAAVCButton@@@Z ; CBaseDialog::OnApply_FillUp

; 434  : 			OnApply_FillDown(m_nSubGraphIndex, m_Fill_Bt);

  000e3	56		 push	 esi

; 454  : 			OnApply_FillDown(m_nSubGraphIndex, m_btnFillDown);

  000e4	57		 push	 edi
  000e5	8b cb		 mov	 ecx, ebx
  000e7	e8 00 00 00 00	 call	 ?OnApply_FillDown@CBaseDialog@@IAEXHAAVCButton@@@Z ; CBaseDialog::OnApply_FillDown
  000ec	5e		 pop	 esi
  000ed	5f		 pop	 edi
  000ee	5b		 pop	 ebx

; 455  : 			break;
; 456  : 		}
; 457  : 	}
; 458  : }	

  000ef	8b e5		 mov	 esp, ebp
  000f1	5d		 pop	 ebp
  000f2	c2 08 00	 ret	 8
$LN10@OnApply_Co:

; 435  : 			break;
; 436  : 		}
; 437  : 
; 438  : 		case 2 :		//  / 
; 439  : 		case 4 :		//
; 440  : 		{
; 441  : 			m_pIGraphInfo->SetSubGraphColor( m_nSubGraphIndex, 1, m_btnUp.GetColor());

  000f5	8b 83 c4 00 00
	00		 mov	 eax, DWORD PTR [ebx+196]
  000fb	8d 8b f8 01 00
	00		 lea	 ecx, DWORD PTR [ebx+504]
  00101	8b 30		 mov	 esi, DWORD PTR [eax]
  00103	e8 00 00 00 00	 call	 ?GetColor@CColorButton@@QAEKXZ ; CColorButton::GetColor
  00108	8b 8b c4 00 00
	00		 mov	 ecx, DWORD PTR [ebx+196]
  0010e	50		 push	 eax
  0010f	6a 01		 push	 1
  00111	8b c7		 mov	 eax, edi
  00113	50		 push	 eax
  00114	ff 56 6c	 call	 DWORD PTR [esi+108]

; 442  : 			m_pIGraphInfo->SetSubGraphColor( m_nSubGraphIndex, 2, m_btnUp.GetColor());

  00117	8b 83 c4 00 00
	00		 mov	 eax, DWORD PTR [ebx+196]
  0011d	8d 8b f8 01 00
	00		 lea	 ecx, DWORD PTR [ebx+504]
  00123	8b 30		 mov	 esi, DWORD PTR [eax]
  00125	e8 00 00 00 00	 call	 ?GetColor@CColorButton@@QAEKXZ ; CColorButton::GetColor
  0012a	8b 8b c4 00 00
	00		 mov	 ecx, DWORD PTR [ebx+196]
  00130	50		 push	 eax
  00131	6a 02		 push	 2
  00133	57		 push	 edi
  00134	ff 56 6c	 call	 DWORD PTR [esi+108]

; 443  : 			
; 444  : 			m_pIGraphInfo->SetSubGraphColor( m_nSubGraphIndex, 3, m_btnDown.GetColor());

  00137	8b 83 c4 00 00
	00		 mov	 eax, DWORD PTR [ebx+196]
  0013d	8d 8b 80 02 00
	00		 lea	 ecx, DWORD PTR [ebx+640]
  00143	8b 30		 mov	 esi, DWORD PTR [eax]
  00145	e8 00 00 00 00	 call	 ?GetColor@CColorButton@@QAEKXZ ; CColorButton::GetColor
  0014a	8b 8b c4 00 00
	00		 mov	 ecx, DWORD PTR [ebx+196]
  00150	50		 push	 eax
  00151	6a 03		 push	 3
  00153	57		 push	 edi
  00154	ff 56 6c	 call	 DWORD PTR [esi+108]

; 445  : 			m_pIGraphInfo->SetSubGraphColor( m_nSubGraphIndex, 4, m_btnDown.GetColor());

  00157	8b 83 c4 00 00
	00		 mov	 eax, DWORD PTR [ebx+196]
  0015d	8d 8b 80 02 00
	00		 lea	 ecx, DWORD PTR [ebx+640]
  00163	8b 30		 mov	 esi, DWORD PTR [eax]
  00165	e8 00 00 00 00	 call	 ?GetColor@CColorButton@@QAEKXZ ; CColorButton::GetColor
  0016a	8b 8b c4 00 00
	00		 mov	 ecx, DWORD PTR [ebx+196]
  00170	50		 push	 eax
  00171	6a 04		 push	 4
  00173	57		 push	 edi
  00174	ff 56 6c	 call	 DWORD PTR [esi+108]

; 446  : 			OnApply_FillUp(m_nSubGraphIndex, m_Fill_Bt);

  00177	8d 83 88 03 00
	00		 lea	 eax, DWORD PTR [ebx+904]
  0017d	8b cb		 mov	 ecx, ebx
  0017f	50		 push	 eax
  00180	57		 push	 edi
  00181	e8 00 00 00 00	 call	 ?OnApply_FillUp@CBaseDialog@@IAEXHAAVCButton@@@Z ; CBaseDialog::OnApply_FillUp

; 447  : 			OnApply_FillDown(m_nSubGraphIndex, m_FillDown_Bt);

  00186	8d 83 08 03 00
	00		 lea	 eax, DWORD PTR [ebx+776]

; 454  : 			OnApply_FillDown(m_nSubGraphIndex, m_btnFillDown);

  0018c	8b cb		 mov	 ecx, ebx
  0018e	50		 push	 eax
  0018f	57		 push	 edi
  00190	e8 00 00 00 00	 call	 ?OnApply_FillDown@CBaseDialog@@IAEXHAAVCButton@@@Z ; CBaseDialog::OnApply_FillDown
  00195	5e		 pop	 esi
  00196	5f		 pop	 edi
  00197	5b		 pop	 ebx

; 455  : 			break;
; 456  : 		}
; 457  : 	}
; 458  : }	

  00198	8b e5		 mov	 esp, ebp
  0019a	5d		 pop	 ebp
  0019b	c2 08 00	 ret	 8
$LN12@OnApply_Co:

; 448  : 			break;
; 449  : 		}
; 450  : 
; 451  : 		case 3:
; 452  : 		{
; 453  : 			OnApply_FillUp(m_nSubGraphIndex, m_btnFillUp);

  0019e	8d 83 f8 00 00
	00		 lea	 eax, DWORD PTR [ebx+248]
  001a4	8b cb		 mov	 ecx, ebx
  001a6	50		 push	 eax
  001a7	57		 push	 edi
  001a8	e8 00 00 00 00	 call	 ?OnApply_FillUp@CBaseDialog@@IAEXHAAVCButton@@@Z ; CBaseDialog::OnApply_FillUp

; 454  : 			OnApply_FillDown(m_nSubGraphIndex, m_btnFillDown);

  001ad	8d 83 78 01 00
	00		 lea	 eax, DWORD PTR [ebx+376]
  001b3	8b cb		 mov	 ecx, ebx
  001b5	50		 push	 eax
  001b6	57		 push	 edi
  001b7	e8 00 00 00 00	 call	 ?OnApply_FillDown@CBaseDialog@@IAEXHAAVCButton@@@Z ; CBaseDialog::OnApply_FillDown
$LN16@OnApply_Co:
  001bc	5e		 pop	 esi
$LN15@OnApply_Co:
  001bd	5f		 pop	 edi
$LN5@OnApply_Co:
  001be	5b		 pop	 ebx

; 455  : 			break;
; 456  : 		}
; 457  : 	}
; 458  : }	

  001bf	8b e5		 mov	 esp, ebp
  001c1	5d		 pop	 ebp
  001c2	c2 08 00	 ret	 8
  001c5	0f 1f 00	 npad	 3
$LN14@OnApply_Co:
  001c8	00 00 00 00	 DD	 $LN9@OnApply_Co
  001cc	00 00 00 00	 DD	 $LN10@OnApply_Co
  001d0	00 00 00 00	 DD	 $LN12@OnApply_Co
  001d4	00 00 00 00	 DD	 $LN10@OnApply_Co
?OnApply_ColorButton@CSetting_Volume@@QAEXPAUIGraphInfo135914@@H@Z ENDP ; CSetting_Volume::OnApply_ColorButton
_TEXT	ENDS
; Function compile flags: /Ogtp
; File D:\git\src\IBK\IBK_DRFN\ProjSrc\SrcChartEx\ChartAddIn\ChartEnvSetupDlgAddIn\ChartEnvSetupDlgAddIn\Setting_Volume.cpp
;	COMDAT ?OnApply@CSetting_Volume@@UAEHPAUIGraphInfo135914@@@Z
_TEXT	SEGMENT
_dDrawType$1 = -12					; size = 8
_psn$2 = -4						; size = 4
_p_pIGraphInfo$ = 8					; size = 4
?OnApply@CSetting_Volume@@UAEHPAUIGraphInfo135914@@@Z PROC ; CSetting_Volume::OnApply, COMDAT
; _this$ = ecx

; 369  : {

  00000	55		 push	 ebp
  00001	8b ec		 mov	 ebp, esp
  00003	83 ec 0c	 sub	 esp, 12			; 0000000cH
  00006	53		 push	 ebx
  00007	56		 push	 esi

; 370  : 	if(p_pIGraphInfo == NULL)

  00008	8b 75 08	 mov	 esi, DWORD PTR _p_pIGraphInfo$[ebp]
  0000b	8b d9		 mov	 ebx, ecx
  0000d	85 f6		 test	 esi, esi
  0000f	75 0a		 jne	 SHORT $LN2@OnApply

; 371  : 		return FALSE;

  00011	5e		 pop	 esi
  00012	33 c0		 xor	 eax, eax

; 395  : }

  00014	5b		 pop	 ebx
  00015	8b e5		 mov	 esp, ebp
  00017	5d		 pop	 ebp
  00018	c2 04 00	 ret	 4
$LN2@OnApply:

; 372  : 
; 373  : 	//condition
; 374  : 	IDoubleList *pIDrawCondition = m_pIGraphInfo->GetDrawConditionList();

  0001b	8b 8b c4 00 00
	00		 mov	 ecx, DWORD PTR [ebx+196]
  00021	57		 push	 edi
  00022	8b 01		 mov	 eax, DWORD PTR [ecx]
  00024	ff 50 14	 call	 DWORD PTR [eax+20]
  00027	8b f8		 mov	 edi, eax

; 375  : 	if( pIDrawCondition)

  00029	85 ff		 test	 edi, edi
  0002b	74 77		 je	 SHORT $LN3@OnApply

; 376  : 	{
; 377  : 		POSITION psn = pIDrawCondition->GetHeadPosition( );

  0002d	8b 17		 mov	 edx, DWORD PTR [edi]
  0002f	8b cf		 mov	 ecx, edi
  00031	ff 52 34	 call	 DWORD PTR [edx+52]
  00034	89 45 fc	 mov	 DWORD PTR _psn$2[ebp], eax

; 378  : 		if( psn)

  00037	85 c0		 test	 eax, eax
  00039	74 63		 je	 SHORT $LN5@OnApply

; 379  : 		{
; 380  : 			pIDrawCondition->SetAt( psn, GetCheckToRadio());

  0003b	8b 37		 mov	 esi, DWORD PTR [edi]
  0003d	8b cb		 mov	 ecx, ebx
  0003f	e8 00 00 00 00	 call	 ?GetCheckToRadio@CSetting_Volume@@AAEHXZ ; CSetting_Volume::GetCheckToRadio
  00044	83 ec 08	 sub	 esp, 8
  00047	8b cf		 mov	 ecx, edi
  00049	66 0f 6e c0	 movd	 xmm0, eax
  0004d	f3 0f e6 c0	 cvtdq2pd xmm0, xmm0
  00051	f2 0f 11 04 24	 movsd	 QWORD PTR [esp], xmm0
  00056	ff 75 fc	 push	 DWORD PTR _psn$2[ebp]
  00059	ff 56 48	 call	 DWORD PTR [esi+72]

; 381  : 			double dDrawType = -1;
; 382  : 			pIDrawCondition->GetNext( psn, dDrawType);

  0005c	8b 07		 mov	 eax, DWORD PTR [edi]
  0005e	8d 4d f4	 lea	 ecx, DWORD PTR _dDrawType$1[ebp]
  00061	f2 0f 10 05 00
	00 00 00	 movsd	 xmm0, QWORD PTR __real@bff0000000000000
  00069	51		 push	 ecx
  0006a	8d 4d fc	 lea	 ecx, DWORD PTR _psn$2[ebp]
  0006d	f2 0f 11 45 f4	 movsd	 QWORD PTR _dDrawType$1[ebp], xmm0
  00072	51		 push	 ecx
  00073	8b cf		 mov	 ecx, edi
  00075	ff 50 3c	 call	 DWORD PTR [eax+60]

; 383  : 		}
; 384  : 		if( psn) pIDrawCondition->SetAt( psn, m_nTitleColorDrawCond);

  00078	8b 4d fc	 mov	 ecx, DWORD PTR _psn$2[ebp]
  0007b	85 c9		 test	 ecx, ecx
  0007d	74 1c		 je	 SHORT $LN7@OnApply
  0007f	66 0f 6e 83 0c
	04 00 00	 movd	 xmm0, DWORD PTR [ebx+1036]
  00087	83 ec 08	 sub	 esp, 8
  0008a	8b 07		 mov	 eax, DWORD PTR [edi]
  0008c	f3 0f e6 c0	 cvtdq2pd xmm0, xmm0
  00090	f2 0f 11 04 24	 movsd	 QWORD PTR [esp], xmm0
  00095	51		 push	 ecx
  00096	8b cf		 mov	 ecx, edi
  00098	ff 50 48	 call	 DWORD PTR [eax+72]
$LN7@OnApply:

; 385  : 		pIDrawCondition->Release();

  0009b	8b 75 08	 mov	 esi, DWORD PTR _p_pIGraphInfo$[ebp]
$LN5@OnApply:
  0009e	8b 07		 mov	 eax, DWORD PTR [edi]
  000a0	57		 push	 edi
  000a1	ff 50 08	 call	 DWORD PTR [eax+8]
$LN3@OnApply:

; 386  : 	}
; 387  : 
; 388  : 	OnApply_ColorButton( m_pIGraphInfo, m_nSubGraphIndex );

  000a4	ff b3 08 04 00
	00		 push	 DWORD PTR [ebx+1032]
  000aa	8b cb		 mov	 ecx, ebx
  000ac	ff b3 c4 00 00
	00		 push	 DWORD PTR [ebx+196]
  000b2	e8 00 00 00 00	 call	 ?OnApply_ColorButton@CSetting_Volume@@QAEXPAUIGraphInfo135914@@H@Z ; CSetting_Volume::OnApply_ColorButton

; 389  : //	OnApply_FillUp(m_nSubGraphIndex, m_Fill_Bt);
; 390  : //	OnApply_FillDown(m_nSubGraphIndex, m_FillDown_Bt);
; 391  : 
; 392  : 	p_pIGraphInfo->GetCopyDataFrom(m_pIGraphInfo);

  000b7	8b 06		 mov	 eax, DWORD PTR [esi]
  000b9	8b ce		 mov	 ecx, esi
  000bb	ff b3 c4 00 00
	00		 push	 DWORD PTR [ebx+196]
  000c1	ff 90 c0 00 00
	00		 call	 DWORD PTR [eax+192]

; 393  : 
; 394  : 	return TRUE;

  000c7	5f		 pop	 edi
  000c8	5e		 pop	 esi
  000c9	b8 01 00 00 00	 mov	 eax, 1

; 395  : }

  000ce	5b		 pop	 ebx
  000cf	8b e5		 mov	 esp, ebp
  000d1	5d		 pop	 ebp
  000d2	c2 04 00	 ret	 4
?OnApply@CSetting_Volume@@UAEHPAUIGraphInfo135914@@@Z ENDP ; CSetting_Volume::OnApply
_TEXT	ENDS
; Function compile flags: /Ogtp
; File D:\git\src\IBK\IBK_DRFN\ProjSrc\SrcChartEx\ChartAddIn\ChartEnvSetupDlgAddIn\ChartEnvSetupDlgAddIn\Setting_Volume.cpp
;	COMDAT ?Initial@CSetting_Volume@@UAEXPAUIGraphInfo135914@@@Z
_TEXT	SEGMENT
_p_pIGraphInfo$ = 8					; size = 4
?Initial@CSetting_Volume@@UAEXPAUIGraphInfo135914@@@Z PROC ; CSetting_Volume::Initial, COMDAT
; _this$ = ecx

; 114  : {

  00000	55		 push	 ebp
  00001	8b ec		 mov	 ebp, esp
  00003	56		 push	 esi
  00004	8b f1		 mov	 esi, ecx

; 115  : 	if( m_pIGraphInfo)

  00006	8b 8e c4 00 00
	00		 mov	 ecx, DWORD PTR [esi+196]
  0000c	85 c9		 test	 ecx, ecx
  0000e	74 17		 je	 SHORT $LN2@Initial

; 116  : 	{
; 117  : 		OnApply( m_pIGraphInfo);

  00010	8b 06		 mov	 eax, DWORD PTR [esi]
  00012	51		 push	 ecx
  00013	8b ce		 mov	 ecx, esi
  00015	ff 90 98 01 00
	00		 call	 DWORD PTR [eax+408]

; 118  : 		m_pIGraphInfo->Release();

  0001b	8b 86 c4 00 00
	00		 mov	 eax, DWORD PTR [esi+196]
  00021	50		 push	 eax
  00022	8b 08		 mov	 ecx, DWORD PTR [eax]
  00024	ff 51 08	 call	 DWORD PTR [ecx+8]
$LN2@Initial:

; 119  : 	}
; 120  : 	m_pIGraphInfo = p_pIGraphInfo;

  00027	8b 4d 08	 mov	 ecx, DWORD PTR _p_pIGraphInfo$[ebp]
  0002a	89 8e c4 00 00
	00		 mov	 DWORD PTR [esi+196], ecx

; 121  : 	if( m_pIGraphInfo) m_pIGraphInfo->AddRef();

  00030	85 c9		 test	 ecx, ecx
  00032	74 78		 je	 SHORT $LN3@Initial
  00034	8b 01		 mov	 eax, DWORD PTR [ecx]
  00036	51		 push	 ecx
  00037	ff 50 04	 call	 DWORD PTR [eax+4]

; 122  : 	else return;
; 123  : 
; 124  : 	m_nSubGraphIndex = 0;
; 125  : 	Initial_ColorButton( m_pIGraphInfo, m_nSubGraphIndex );

  0003a	6a 00		 push	 0
  0003c	ff b6 c4 00 00
	00		 push	 DWORD PTR [esi+196]
  00042	8b ce		 mov	 ecx, esi
  00044	c7 86 08 04 00
	00 00 00 00 00	 mov	 DWORD PTR [esi+1032], 0
  0004e	e8 00 00 00 00	 call	 ?Initial_ColorButton@CSetting_Volume@@AAEXPAUIGraphInfo135914@@H@Z ; CSetting_Volume::Initial_ColorButton

; 126  : 	Initial_FillUp(m_nSubGraphIndex, m_btnFillUp);

  00053	8d 86 f8 00 00
	00		 lea	 eax, DWORD PTR [esi+248]
  00059	8b ce		 mov	 ecx, esi
  0005b	50		 push	 eax
  0005c	ff b6 08 04 00
	00		 push	 DWORD PTR [esi+1032]
  00062	e8 00 00 00 00	 call	 ?Initial_FillUp@CBaseDialog@@IAEXHAAVCButton@@@Z ; CBaseDialog::Initial_FillUp

; 127  : 	Initial_FillDown(m_nSubGraphIndex, m_btnFillDown);

  00067	8d 86 78 01 00
	00		 lea	 eax, DWORD PTR [esi+376]
  0006d	8b ce		 mov	 ecx, esi
  0006f	50		 push	 eax
  00070	ff b6 08 04 00
	00		 push	 DWORD PTR [esi+1032]
  00076	e8 00 00 00 00	 call	 ?Initial_FillDown@CBaseDialog@@IAEXHAAVCButton@@@Z ; CBaseDialog::Initial_FillDown

; 128  : 	Initial_FillUp(m_nSubGraphIndex, m_Fill_Bt);

  0007b	8d 86 88 03 00
	00		 lea	 eax, DWORD PTR [esi+904]
  00081	8b ce		 mov	 ecx, esi
  00083	50		 push	 eax
  00084	ff b6 08 04 00
	00		 push	 DWORD PTR [esi+1032]
  0008a	e8 00 00 00 00	 call	 ?Initial_FillUp@CBaseDialog@@IAEXHAAVCButton@@@Z ; CBaseDialog::Initial_FillUp

; 129  : 	Initial_FillDown(m_nSubGraphIndex, m_FillDown_Bt);

  0008f	8d 86 08 03 00
	00		 lea	 eax, DWORD PTR [esi+776]
  00095	8b ce		 mov	 ecx, esi
  00097	50		 push	 eax
  00098	ff b6 08 04 00
	00		 push	 DWORD PTR [esi+1032]
  0009e	e8 00 00 00 00	 call	 ?Initial_FillDown@CBaseDialog@@IAEXHAAVCButton@@@Z ; CBaseDialog::Initial_FillDown

; 130  : 
; 131  : 	UpdateData(FALSE);

  000a3	6a 00		 push	 0
  000a5	8b ce		 mov	 ecx, esi
  000a7	e8 00 00 00 00	 call	 ?UpdateData@CWnd@@QAEHH@Z ; CWnd::UpdateData
$LN3@Initial:
  000ac	5e		 pop	 esi

; 132  : }

  000ad	5d		 pop	 ebp
  000ae	c2 04 00	 ret	 4
?Initial@CSetting_Volume@@UAEXPAUIGraphInfo135914@@@Z ENDP ; CSetting_Volume::Initial
_TEXT	ENDS
; Function compile flags: /Ogtp
; File D:\git\src\IBK\IBK_DRFN\ProjSrc\SrcChartEx\ChartAddIn\ChartEnvSetupDlgAddIn\ChartEnvSetupDlgAddIn\Setting_Volume.cpp
;	COMDAT ?DoDataExchange@CSetting_Volume@@MAEXPAVCDataExchange@@@Z
_TEXT	SEGMENT
_pDX$ = 8						; size = 4
?DoDataExchange@CSetting_Volume@@MAEXPAVCDataExchange@@@Z PROC ; CSetting_Volume::DoDataExchange, COMDAT
; _this$ = ecx

; 59   : {

  00000	55		 push	 ebp
  00001	8b ec		 mov	 ebp, esp
  00003	56		 push	 esi

; 60   : 	CDialog::DoDataExchange(pDX);
; 61   : 	//{{AFX_DATA_MAP(CSetting_Volume)
; 62   : 	DDX_Control(pDX, IDC_CHECK_UP, m_btnFillUp);

  00004	8b 75 08	 mov	 esi, DWORD PTR _pDX$[ebp]
  00007	57		 push	 edi
  00008	8b f9		 mov	 edi, ecx
  0000a	8d 87 f8 00 00
	00		 lea	 eax, DWORD PTR [edi+248]
  00010	50		 push	 eax
  00011	68 fe 17 00 00	 push	 6142			; 000017feH
  00016	56		 push	 esi
  00017	e8 00 00 00 00	 call	 ?DDX_Control@@YGXPAVCDataExchange@@HAAVCWnd@@@Z ; DDX_Control

; 63   : 	DDX_Control(pDX, IDC_CHECK_DOWN, m_btnFillDown);

  0001c	8d 87 78 01 00
	00		 lea	 eax, DWORD PTR [edi+376]
  00022	50		 push	 eax
  00023	68 ff 17 00 00	 push	 6143			; 000017ffH
  00028	56		 push	 esi
  00029	e8 00 00 00 00	 call	 ?DDX_Control@@YGXPAVCDataExchange@@HAAVCWnd@@@Z ; DDX_Control

; 64   : 	DDX_Control(pDX, IDC_BTN_UP, m_btnUp);

  0002e	8d 87 f8 01 00
	00		 lea	 eax, DWORD PTR [edi+504]
  00034	50		 push	 eax
  00035	68 94 17 00 00	 push	 6036			; 00001794H
  0003a	56		 push	 esi
  0003b	e8 00 00 00 00	 call	 ?DDX_Control@@YGXPAVCDataExchange@@HAAVCWnd@@@Z ; DDX_Control

; 65   : 	DDX_Control(pDX, IDC_BTN_DOWN, m_btnDown);

  00040	8d 87 80 02 00
	00		 lea	 eax, DWORD PTR [edi+640]
  00046	50		 push	 eax
  00047	68 95 17 00 00	 push	 6037			; 00001795H
  0004c	56		 push	 esi
  0004d	e8 00 00 00 00	 call	 ?DDX_Control@@YGXPAVCDataExchange@@HAAVCWnd@@@Z ; DDX_Control

; 66   : 	DDX_Control(pDX, IDC_FILL_DOWN, m_FillDown_Bt);

  00052	8d 87 08 03 00
	00		 lea	 eax, DWORD PTR [edi+776]
  00058	50		 push	 eax
  00059	68 0b 04 00 00	 push	 1035			; 0000040bH
  0005e	56		 push	 esi
  0005f	e8 00 00 00 00	 call	 ?DDX_Control@@YGXPAVCDataExchange@@HAAVCWnd@@@Z ; DDX_Control

; 67   : 	DDX_Control(pDX, IDC_FILL, m_Fill_Bt);

  00064	8d 87 88 03 00
	00		 lea	 eax, DWORD PTR [edi+904]
  0006a	50		 push	 eax
  0006b	68 00 04 00 00	 push	 1024			; 00000400H
  00070	56		 push	 esi
  00071	e8 00 00 00 00	 call	 ?DDX_Control@@YGXPAVCDataExchange@@HAAVCWnd@@@Z ; DDX_Control
  00076	5f		 pop	 edi
  00077	5e		 pop	 esi

; 68   : 	//}}AFX_DATA_MAP
; 69   : }

  00078	5d		 pop	 ebp
  00079	c2 04 00	 ret	 4
?DoDataExchange@CSetting_Volume@@MAEXPAVCDataExchange@@@Z ENDP ; CSetting_Volume::DoDataExchange
_TEXT	ENDS
; Function compile flags: /Ogtp
; File D:\git\src\IBK\IBK_DRFN\ProjSrc\SrcChartEx\ChartAddIn\ChartEnvSetupDlgAddIn\ChartEnvSetupDlgAddIn\Setting_Volume.cpp
; File D:\git\src\IBK\IBK_DRFN\ProjSrc\SrcChartEx\ChartAddIn\ChartEnvSetupDlgAddIn\ChartEnvSetupDlgAddIn\DlgEnvSetUpAll.h
; File D:\git\src\IBK\IBK_DRFN\ProjSrc\SrcChartEx\ChartAddIn\ChartEnvSetupDlgAddIn\ChartEnvSetupDlgAddIn\Setting_Volume.cpp
; File D:\git\src\IBK\IBK_DRFN\ProjSrc\SrcChartEx\ChartAddIn\ChartEnvSetupDlgAddIn\ChartEnvSetupDlgAddIn\GraphSetting.h
; File D:\git\src\IBK\IBK_DRFN\ProjSrc\SrcChartEx\ChartAddIn\ChartEnvSetupDlgAddIn\ChartEnvSetupDlgAddIn\Setting_Volume.cpp
; File D:\git\src\IBK\IBK_DRFN\ProjSrc\SrcChartEx\ChartAddIn\ChartEnvSetupDlgAddIn\ChartEnvSetupDlgAddIn\DlgEnvSetUpAll.h
; File D:\git\src\IBK\IBK_DRFN\ProjSrc\SrcChartEx\ChartAddIn\ChartEnvSetupDlgAddIn\ChartEnvSetupDlgAddIn\Setting_Volume.cpp
; File D:\git\src\IBK\IBK_DRFN\ProjSrc\SrcChartEx\ChartAddIn\ChartEnvSetupDlgAddIn\ChartEnvSetupDlgAddIn\GraphSetting.h
; File D:\git\src\IBK\IBK_DRFN\ProjSrc\SrcChartEx\ChartAddIn\ChartEnvSetupDlgAddIn\ChartEnvSetupDlgAddIn\Setting_Volume.cpp
;	COMDAT ?PreTranslateMessage@CSetting_Volume@@UAEHPAUtagMSG@@@Z
_TEXT	SEGMENT
_pMsg$ = 8						; size = 4
?PreTranslateMessage@CSetting_Volume@@UAEHPAUtagMSG@@@Z PROC ; CSetting_Volume::PreTranslateMessage, COMDAT
; _this$ = ecx

; 572  : {

  00000	55		 push	 ebp
  00001	8b ec		 mov	 ebp, esp
  00003	56		 push	 esi
  00004	57		 push	 edi

; 573  : 	// TODO: Add your specialized code here and/or call the base class
; 574  : 	if(pMsg->message == WM_KEYDOWN)

  00005	8b 7d 08	 mov	 edi, DWORD PTR _pMsg$[ebp]
  00008	8b f1		 mov	 esi, ecx
  0000a	81 7f 04 00 01
	00 00		 cmp	 DWORD PTR [edi+4], 256	; 00000100H
  00011	75 62		 jne	 SHORT $LN10@PreTransla

; 575  : 	{
; 576  : 		if(pMsg->wParam == VK_RETURN)

  00013	83 7f 08 0d	 cmp	 DWORD PTR [edi+8], 13	; 0000000dH
  00017	75 22		 jne	 SHORT $LN6@PreTransla

; 577  : 		{
; 578  : 			if( m_pParentWnd != NULL )

  00019	8b 8e 94 00 00
	00		 mov	 ecx, DWORD PTR [esi+148]
  0001f	85 c9		 test	 ecx, ecx
  00021	74 18		 je	 SHORT $LN6@PreTransla

; 579  : 			{
; 580  : 				if( m_pTopWnd != NULL )

  00023	8b 96 d0 00 00
	00		 mov	 edx, DWORD PTR [esi+208]
  00029	85 d2		 test	 edx, edx
  0002b	74 06		 je	 SHORT $LN5@PreTransla
; File D:\git\src\IBK\IBK_DRFN\ProjSrc\SrcChartEx\ChartAddIn\ChartEnvSetupDlgAddIn\ChartEnvSetupDlgAddIn\DlgEnvSetUpAll.h

; 60   : 	void OK( void )			{ OnOK(); };

  0002d	8b 02		 mov	 eax, DWORD PTR [edx]
  0002f	8b ca		 mov	 ecx, edx
; File D:\git\src\IBK\IBK_DRFN\ProjSrc\SrcChartEx\ChartAddIn\ChartEnvSetupDlgAddIn\ChartEnvSetupDlgAddIn\Setting_Volume.cpp

; 581  : 					( (CDlgEnvSetUpAll *)m_pTopWnd)->OK();

  00031	eb 02		 jmp	 SHORT $LN20@PreTransla
$LN5@PreTransla:
; File D:\git\src\IBK\IBK_DRFN\ProjSrc\SrcChartEx\ChartAddIn\ChartEnvSetupDlgAddIn\ChartEnvSetupDlgAddIn\GraphSetting.h

; 36   : 	void OK( void )			{ OnOK(); };

  00033	8b 01		 mov	 eax, DWORD PTR [ecx]
$LN20@PreTransla:
; File D:\git\src\IBK\IBK_DRFN\ProjSrc\SrcChartEx\ChartAddIn\ChartEnvSetupDlgAddIn\ChartEnvSetupDlgAddIn\Setting_Volume.cpp

; 589  : 		if( pMsg->wParam == VK_ESCAPE )

  00035	ff 90 88 01 00
	00		 call	 DWORD PTR [eax+392]
$LN6@PreTransla:
  0003b	83 7f 08 1b	 cmp	 DWORD PTR [edi+8], 27	; 0000001bH
  0003f	75 34		 jne	 SHORT $LN10@PreTransla

; 590  : 		{
; 591  : 			if( m_pParentWnd != NULL )

  00041	8b 8e 94 00 00
	00		 mov	 ecx, DWORD PTR [esi+148]
  00047	85 c9		 test	 ecx, ecx
  00049	74 2a		 je	 SHORT $LN10@PreTransla

; 592  : 			{
; 593  : 				if( m_pTopWnd != NULL )

  0004b	8b 96 d0 00 00
	00		 mov	 edx, DWORD PTR [esi+208]
  00051	85 d2		 test	 edx, edx
  00053	74 18		 je	 SHORT $LN9@PreTransla
; File D:\git\src\IBK\IBK_DRFN\ProjSrc\SrcChartEx\ChartAddIn\ChartEnvSetupDlgAddIn\ChartEnvSetupDlgAddIn\DlgEnvSetUpAll.h

; 61   : 	void Cancel( void )		{ OnCancel(); };

  00055	8b 02		 mov	 eax, DWORD PTR [edx]
  00057	8b ca		 mov	 ecx, edx
; File D:\git\src\IBK\IBK_DRFN\ProjSrc\SrcChartEx\ChartAddIn\ChartEnvSetupDlgAddIn\ChartEnvSetupDlgAddIn\Setting_Volume.cpp

; 602  : 	return CBaseDialog::PreTranslateMessage(pMsg);

  00059	ff 90 8c 01 00
	00		 call	 DWORD PTR [eax+396]
  0005f	57		 push	 edi
  00060	8b ce		 mov	 ecx, esi
  00062	e8 00 00 00 00	 call	 ?PreTranslateMessage@CDialog@@UAEHPAUtagMSG@@@Z ; CDialog::PreTranslateMessage
  00067	5f		 pop	 edi
  00068	5e		 pop	 esi

; 603  : }

  00069	5d		 pop	 ebp
  0006a	c2 04 00	 ret	 4
$LN9@PreTransla:
; File D:\git\src\IBK\IBK_DRFN\ProjSrc\SrcChartEx\ChartAddIn\ChartEnvSetupDlgAddIn\ChartEnvSetupDlgAddIn\GraphSetting.h

; 37   : 	void Cancel( void )		{ OnCancel(); };

  0006d	8b 01		 mov	 eax, DWORD PTR [ecx]
; File D:\git\src\IBK\IBK_DRFN\ProjSrc\SrcChartEx\ChartAddIn\ChartEnvSetupDlgAddIn\ChartEnvSetupDlgAddIn\Setting_Volume.cpp

; 602  : 	return CBaseDialog::PreTranslateMessage(pMsg);

  0006f	ff 90 8c 01 00
	00		 call	 DWORD PTR [eax+396]
$LN10@PreTransla:
  00075	57		 push	 edi
  00076	8b ce		 mov	 ecx, esi
  00078	e8 00 00 00 00	 call	 ?PreTranslateMessage@CDialog@@UAEHPAUtagMSG@@@Z ; CDialog::PreTranslateMessage
  0007d	5f		 pop	 edi
  0007e	5e		 pop	 esi

; 603  : }

  0007f	5d		 pop	 ebp
  00080	c2 04 00	 ret	 4
?PreTranslateMessage@CSetting_Volume@@UAEHPAUtagMSG@@@Z ENDP ; CSetting_Volume::PreTranslateMessage
_TEXT	ENDS
; Function compile flags: /Ogtp
; File D:\git\src\IBK\IBK_DRFN\ProjSrc\SrcChartEx\ChartAddIn\ChartEnvSetupDlgAddIn\ChartEnvSetupDlgAddIn\Setting_Volume.cpp
;	COMDAT ??1CSetting_Volume@@UAE@XZ
_TEXT	SEGMENT
??1CSetting_Volume@@UAE@XZ PROC				; CSetting_Volume::~CSetting_Volume, COMDAT
; _this$ = ecx

; 54   : {

  00000	56		 push	 esi
  00001	8b f1		 mov	 esi, ecx

; 55   : }

  00003	8d 8e 88 03 00
	00		 lea	 ecx, DWORD PTR [esi+904]
  00009	c7 06 00 00 00
	00		 mov	 DWORD PTR [esi], OFFSET ??_7CSetting_Volume@@6B@
  0000f	e8 00 00 00 00	 call	 ??1CButton@@UAE@XZ	; CButton::~CButton
  00014	8d 8e 08 03 00
	00		 lea	 ecx, DWORD PTR [esi+776]
  0001a	e8 00 00 00 00	 call	 ??1CButton@@UAE@XZ	; CButton::~CButton
  0001f	8d 8e 80 02 00
	00		 lea	 ecx, DWORD PTR [esi+640]
  00025	e8 00 00 00 00	 call	 ??1CColorButton@@UAE@XZ	; CColorButton::~CColorButton
  0002a	8d 8e f8 01 00
	00		 lea	 ecx, DWORD PTR [esi+504]
  00030	e8 00 00 00 00	 call	 ??1CColorButton@@UAE@XZ	; CColorButton::~CColorButton
  00035	8d 8e 78 01 00
	00		 lea	 ecx, DWORD PTR [esi+376]
  0003b	e8 00 00 00 00	 call	 ??1CButton@@UAE@XZ	; CButton::~CButton
  00040	8d 8e f8 00 00
	00		 lea	 ecx, DWORD PTR [esi+248]
  00046	e8 00 00 00 00	 call	 ??1CButton@@UAE@XZ	; CButton::~CButton
  0004b	8b ce		 mov	 ecx, esi
  0004d	5e		 pop	 esi
  0004e	e9 00 00 00 00	 jmp	 ??1CBaseDialog@@UAE@XZ	; CBaseDialog::~CBaseDialog
??1CSetting_Volume@@UAE@XZ ENDP				; CSetting_Volume::~CSetting_Volume
_TEXT	ENDS
; Function compile flags: /Ogtp
; File D:\git\src\IBK\IBK_DRFN\ProjSrc\SrcChartEx\ChartAddIn\ChartEnvSetupDlgAddIn\ChartEnvSetupDlgAddIn\Setting_Volume.cpp
; File C:\Program Files (x86)\Microsoft Visual Studio\2019\Community\VC\Tools\MSVC\14.29.30133\atlmfc\include\afxwin2.inl
; File D:\git\src\IBK\IBK_DRFN\ProjSrc\SrcChartEx\ChartAddIn\ChartEnvSetupDlgAddIn\ChartEnvSetupDlgAddIn\Setting_Volume.cpp
; File C:\Program Files (x86)\Microsoft Visual Studio\2019\Community\VC\Tools\MSVC\14.29.30133\atlmfc\include\afxwin2.inl
; File D:\git\src\IBK\IBK_DRFN\ProjSrc\SrcChartEx\ChartAddIn\ChartEnvSetupDlgAddIn\ChartEnvSetupDlgAddIn\Setting_Volume.cpp
; File C:\Program Files (x86)\Microsoft Visual Studio\2019\Community\VC\Tools\MSVC\14.29.30133\atlmfc\include\afxwin2.inl
; File D:\git\src\IBK\IBK_DRFN\ProjSrc\SrcChartEx\ChartAddIn\ChartEnvSetupDlgAddIn\ChartEnvSetupDlgAddIn\Setting_Volume.cpp
; File C:\Program Files (x86)\Microsoft Visual Studio\2019\Community\VC\Tools\MSVC\14.29.30133\atlmfc\include\afxwin2.inl
; File D:\git\src\IBK\IBK_DRFN\ProjSrc\SrcChartEx\ChartAddIn\ChartEnvSetupDlgAddIn\ChartEnvSetupDlgAddIn\Setting_Volume.cpp
; File C:\Program Files (x86)\Microsoft Visual Studio\2019\Community\VC\Tools\MSVC\14.29.30133\atlmfc\include\afxwin2.inl
; File D:\git\src\IBK\IBK_DRFN\ProjSrc\SrcChartEx\ChartAddIn\ChartEnvSetupDlgAddIn\ChartEnvSetupDlgAddIn\Setting_Volume.cpp
; File C:\Program Files (x86)\Microsoft Visual Studio\2019\Community\VC\Tools\MSVC\14.29.30133\atlmfc\include\afxwin2.inl
; File D:\git\src\IBK\IBK_DRFN\ProjSrc\SrcChartEx\ChartAddIn\ChartEnvSetupDlgAddIn\ChartEnvSetupDlgAddIn\Setting_Volume.cpp
; File C:\Program Files (x86)\Microsoft Visual Studio\2019\Community\VC\Tools\MSVC\14.29.30133\atlmfc\include\afxwin2.inl
; File D:\git\src\IBK\IBK_DRFN\ProjSrc\SrcChartEx\ChartAddIn\ChartEnvSetupDlgAddIn\ChartEnvSetupDlgAddIn\Setting_Volume.cpp
; File C:\Program Files (x86)\Microsoft Visual Studio\2019\Community\VC\Tools\MSVC\14.29.30133\atlmfc\include\afxwin2.inl
; File D:\git\src\IBK\IBK_DRFN\ProjSrc\SrcChartEx\ChartAddIn\ChartEnvSetupDlgAddIn\ChartEnvSetupDlgAddIn\Setting_Volume.cpp
;	COMDAT ??0CSetting_Volume@@QAE@PAUIChartOCX135914@@PAVCWnd@@1@Z
_TEXT	SEGMENT
_this$ = -16						; size = 4
__$EHRec$ = -12						; size = 12
_p_pIChartOCX$ = 8					; size = 4
_pParent$ = 12						; size = 4
_this$ = 16						; size = 4
_this$ = 16						; size = 4
_this$ = 16						; size = 4
_this$ = 16						; size = 4
_pTopWnd$ = 16						; size = 4
??0CSetting_Volume@@QAE@PAUIChartOCX135914@@PAVCWnd@@1@Z PROC ; CSetting_Volume::CSetting_Volume, COMDAT
; _this$ = ecx

; 37   : {

  00000	55		 push	 ebp
  00001	8b ec		 mov	 ebp, esp
  00003	6a ff		 push	 -1
  00005	68 00 00 00 00	 push	 __ehhandler$??0CSetting_Volume@@QAE@PAUIChartOCX135914@@PAVCWnd@@1@Z
  0000a	64 a1 00 00 00
	00		 mov	 eax, DWORD PTR fs:0
  00010	50		 push	 eax
  00011	51		 push	 ecx
  00012	56		 push	 esi
  00013	57		 push	 edi
  00014	a1 00 00 00 00	 mov	 eax, DWORD PTR ___security_cookie
  00019	33 c5		 xor	 eax, ebp
  0001b	50		 push	 eax
  0001c	8d 45 f4	 lea	 eax, DWORD PTR __$EHRec$[ebp]
  0001f	64 a3 00 00 00
	00		 mov	 DWORD PTR fs:0, eax
  00025	8b f9		 mov	 edi, ecx
  00027	89 7d f0	 mov	 DWORD PTR _this$[ebp], edi

; 36   : 	: CBaseDialog(CSetting_Volume::IDD, pParent, p_pIChartOCX, pTopWnd)

  0002a	ff 75 10	 push	 DWORD PTR _pTopWnd$[ebp]
  0002d	ff 75 08	 push	 DWORD PTR _p_pIChartOCX$[ebp]
  00030	ff 75 0c	 push	 DWORD PTR _pParent$[ebp]
  00033	68 ef 03 00 00	 push	 1007			; 000003efH
  00038	e8 00 00 00 00	 call	 ??0CBaseDialog@@QAE@IPAVCWnd@@PAUIChartOCX135914@@0@Z ; CBaseDialog::CBaseDialog

; 37   : {

  0003d	8d b7 f8 00 00
	00		 lea	 esi, DWORD PTR [edi+248]
  00043	c7 45 fc 00 00
	00 00		 mov	 DWORD PTR __$EHRec$[ebp+8], 0
; File C:\Program Files (x86)\Microsoft Visual Studio\2019\Community\VC\Tools\MSVC\14.29.30133\atlmfc\include\afxwin2.inl

; 622  : 	{ }

  0004a	8b ce		 mov	 ecx, esi
; File D:\git\src\IBK\IBK_DRFN\ProjSrc\SrcChartEx\ChartAddIn\ChartEnvSetupDlgAddIn\ChartEnvSetupDlgAddIn\Setting_Volume.cpp

; 37   : {

  0004c	c7 07 00 00 00
	00		 mov	 DWORD PTR [edi], OFFSET ??_7CSetting_Volume@@6B@
  00052	89 75 10	 mov	 DWORD PTR _this$[ebp], esi
; File C:\Program Files (x86)\Microsoft Visual Studio\2019\Community\VC\Tools\MSVC\14.29.30133\atlmfc\include\afxwin2.inl

; 622  : 	{ }

  00055	e8 00 00 00 00	 call	 ??0CWnd@@QAE@XZ		; CWnd::CWnd
  0005a	c7 06 00 00 00
	00		 mov	 DWORD PTR [esi], OFFSET ??_7CButton@@6B@
; File D:\git\src\IBK\IBK_DRFN\ProjSrc\SrcChartEx\ChartAddIn\ChartEnvSetupDlgAddIn\ChartEnvSetupDlgAddIn\Setting_Volume.cpp

; 37   : {

  00060	8d b7 78 01 00
	00		 lea	 esi, DWORD PTR [edi+376]
  00066	c6 45 fc 01	 mov	 BYTE PTR __$EHRec$[ebp+8], 1
; File C:\Program Files (x86)\Microsoft Visual Studio\2019\Community\VC\Tools\MSVC\14.29.30133\atlmfc\include\afxwin2.inl

; 622  : 	{ }

  0006a	8b ce		 mov	 ecx, esi
; File D:\git\src\IBK\IBK_DRFN\ProjSrc\SrcChartEx\ChartAddIn\ChartEnvSetupDlgAddIn\ChartEnvSetupDlgAddIn\Setting_Volume.cpp

; 37   : {

  0006c	89 75 10	 mov	 DWORD PTR _this$[ebp], esi
; File C:\Program Files (x86)\Microsoft Visual Studio\2019\Community\VC\Tools\MSVC\14.29.30133\atlmfc\include\afxwin2.inl

; 622  : 	{ }

  0006f	e8 00 00 00 00	 call	 ??0CWnd@@QAE@XZ		; CWnd::CWnd
  00074	c7 06 00 00 00
	00		 mov	 DWORD PTR [esi], OFFSET ??_7CButton@@6B@
; File D:\git\src\IBK\IBK_DRFN\ProjSrc\SrcChartEx\ChartAddIn\ChartEnvSetupDlgAddIn\ChartEnvSetupDlgAddIn\Setting_Volume.cpp

; 37   : {

  0007a	8d 8f f8 01 00
	00		 lea	 ecx, DWORD PTR [edi+504]
  00080	c6 45 fc 02	 mov	 BYTE PTR __$EHRec$[ebp+8], 2
  00084	e8 00 00 00 00	 call	 ??0CColorButton@@QAE@XZ	; CColorButton::CColorButton
  00089	8d 8f 80 02 00
	00		 lea	 ecx, DWORD PTR [edi+640]
  0008f	c6 45 fc 03	 mov	 BYTE PTR __$EHRec$[ebp+8], 3
  00093	e8 00 00 00 00	 call	 ??0CColorButton@@QAE@XZ	; CColorButton::CColorButton
  00098	8d b7 08 03 00
	00		 lea	 esi, DWORD PTR [edi+776]
  0009e	c6 45 fc 04	 mov	 BYTE PTR __$EHRec$[ebp+8], 4
; File C:\Program Files (x86)\Microsoft Visual Studio\2019\Community\VC\Tools\MSVC\14.29.30133\atlmfc\include\afxwin2.inl

; 622  : 	{ }

  000a2	8b ce		 mov	 ecx, esi
; File D:\git\src\IBK\IBK_DRFN\ProjSrc\SrcChartEx\ChartAddIn\ChartEnvSetupDlgAddIn\ChartEnvSetupDlgAddIn\Setting_Volume.cpp

; 37   : {

  000a4	89 75 10	 mov	 DWORD PTR _this$[ebp], esi
; File C:\Program Files (x86)\Microsoft Visual Studio\2019\Community\VC\Tools\MSVC\14.29.30133\atlmfc\include\afxwin2.inl

; 622  : 	{ }

  000a7	e8 00 00 00 00	 call	 ??0CWnd@@QAE@XZ		; CWnd::CWnd
  000ac	c7 06 00 00 00
	00		 mov	 DWORD PTR [esi], OFFSET ??_7CButton@@6B@
; File D:\git\src\IBK\IBK_DRFN\ProjSrc\SrcChartEx\ChartAddIn\ChartEnvSetupDlgAddIn\ChartEnvSetupDlgAddIn\Setting_Volume.cpp

; 37   : {

  000b2	8d b7 88 03 00
	00		 lea	 esi, DWORD PTR [edi+904]
  000b8	c6 45 fc 05	 mov	 BYTE PTR __$EHRec$[ebp+8], 5
; File C:\Program Files (x86)\Microsoft Visual Studio\2019\Community\VC\Tools\MSVC\14.29.30133\atlmfc\include\afxwin2.inl

; 622  : 	{ }

  000bc	8b ce		 mov	 ecx, esi
; File D:\git\src\IBK\IBK_DRFN\ProjSrc\SrcChartEx\ChartAddIn\ChartEnvSetupDlgAddIn\ChartEnvSetupDlgAddIn\Setting_Volume.cpp

; 37   : {

  000be	89 75 10	 mov	 DWORD PTR _this$[ebp], esi
; File C:\Program Files (x86)\Microsoft Visual Studio\2019\Community\VC\Tools\MSVC\14.29.30133\atlmfc\include\afxwin2.inl

; 622  : 	{ }

  000c1	e8 00 00 00 00	 call	 ??0CWnd@@QAE@XZ		; CWnd::CWnd
  000c6	c7 06 00 00 00
	00		 mov	 DWORD PTR [esi], OFFSET ??_7CButton@@6B@
; File D:\git\src\IBK\IBK_DRFN\ProjSrc\SrcChartEx\ChartAddIn\ChartEnvSetupDlgAddIn\ChartEnvSetupDlgAddIn\Setting_Volume.cpp

; 45   : }

  000cc	8b c7		 mov	 eax, edi
  000ce	c7 87 08 04 00
	00 ff ff ff ff	 mov	 DWORD PTR [edi+1032], -1
  000d8	c7 87 0c 04 00
	00 01 00 00 00	 mov	 DWORD PTR [edi+1036], 1
  000e2	8b 4d f4	 mov	 ecx, DWORD PTR __$EHRec$[ebp]
  000e5	64 89 0d 00 00
	00 00		 mov	 DWORD PTR fs:0, ecx
  000ec	59		 pop	 ecx
  000ed	5f		 pop	 edi
  000ee	5e		 pop	 esi
  000ef	8b e5		 mov	 esp, ebp
  000f1	5d		 pop	 ebp
  000f2	c2 0c 00	 ret	 12			; 0000000cH
_TEXT	ENDS
;	COMDAT text$x
text$x	SEGMENT
__unwindfunclet$??0CSetting_Volume@@QAE@PAUIChartOCX135914@@PAVCWnd@@1@Z$0:
  00000	8b 4d f0	 mov	 ecx, DWORD PTR _this$[ebp]
  00003	e9 00 00 00 00	 jmp	 ??1CBaseDialog@@UAE@XZ	; CBaseDialog::~CBaseDialog
__unwindfunclet$??0CSetting_Volume@@QAE@PAUIChartOCX135914@@PAVCWnd@@1@Z$1:
  00008	8b 4d f0	 mov	 ecx, DWORD PTR _this$[ebp]
  0000b	81 c1 f8 00 00
	00		 add	 ecx, 248		; 000000f8H
  00011	e9 00 00 00 00	 jmp	 ??1CButton@@UAE@XZ	; CButton::~CButton
__unwindfunclet$??0CSetting_Volume@@QAE@PAUIChartOCX135914@@PAVCWnd@@1@Z$2:
  00016	8b 4d f0	 mov	 ecx, DWORD PTR _this$[ebp]
  00019	81 c1 78 01 00
	00		 add	 ecx, 376		; 00000178H
  0001f	e9 00 00 00 00	 jmp	 ??1CButton@@UAE@XZ	; CButton::~CButton
__unwindfunclet$??0CSetting_Volume@@QAE@PAUIChartOCX135914@@PAVCWnd@@1@Z$3:
  00024	8b 4d f0	 mov	 ecx, DWORD PTR _this$[ebp]
  00027	81 c1 f8 01 00
	00		 add	 ecx, 504		; 000001f8H
  0002d	e9 00 00 00 00	 jmp	 ??1CColorButton@@UAE@XZ	; CColorButton::~CColorButton
__unwindfunclet$??0CSetting_Volume@@QAE@PAUIChartOCX135914@@PAVCWnd@@1@Z$4:
  00032	8b 4d f0	 mov	 ecx, DWORD PTR _this$[ebp]
  00035	81 c1 80 02 00
	00		 add	 ecx, 640		; 00000280H
  0003b	e9 00 00 00 00	 jmp	 ??1CColorButton@@UAE@XZ	; CColorButton::~CColorButton
__unwindfunclet$??0CSetting_Volume@@QAE@PAUIChartOCX135914@@PAVCWnd@@1@Z$5:
  00040	8b 4d f0	 mov	 ecx, DWORD PTR _this$[ebp]
  00043	81 c1 08 03 00
	00		 add	 ecx, 776		; 00000308H
  00049	e9 00 00 00 00	 jmp	 ??1CButton@@UAE@XZ	; CButton::~CButton
  0004e	cc		 int	 3
  0004f	cc		 int	 3
  00050	cc		 int	 3
  00051	cc		 int	 3
  00052	cc		 int	 3
__ehhandler$??0CSetting_Volume@@QAE@PAUIChartOCX135914@@PAVCWnd@@1@Z:
  00053	90		 npad	 1
  00054	90		 npad	 1
  00055	8b 54 24 08	 mov	 edx, DWORD PTR [esp+8]
  00059	8d 42 0c	 lea	 eax, DWORD PTR [edx+12]
  0005c	8b 4a f0	 mov	 ecx, DWORD PTR [edx-16]
  0005f	33 c8		 xor	 ecx, eax
  00061	e8 00 00 00 00	 call	 @__security_check_cookie@4
  00066	b8 00 00 00 00	 mov	 eax, OFFSET __ehfuncinfo$??0CSetting_Volume@@QAE@PAUIChartOCX135914@@PAVCWnd@@1@Z
  0006b	e9 00 00 00 00	 jmp	 ___CxxFrameHandler3
text$x	ENDS
??0CSetting_Volume@@QAE@PAUIChartOCX135914@@PAVCWnd@@1@Z ENDP ; CSetting_Volume::CSetting_Volume
; Function compile flags: /Ogtp
; File C:\Program Files (x86)\Microsoft Visual Studio\2019\Community\VC\Tools\MSVC\14.29.30133\atlmfc\include\afxdlgs.h
;	COMDAT ??1CColorDialog@@UAE@XZ
_TEXT	SEGMENT
??1CColorDialog@@UAE@XZ PROC				; CColorDialog::~CColorDialog, COMDAT
; _this$ = ecx

; 110  :     virtual ~CCommonDialog() {};

  00000	c7 01 00 00 00
	00		 mov	 DWORD PTR [ecx], OFFSET ??_7CCommonDialog@@6B@
  00006	e9 00 00 00 00	 jmp	 ??1CDialog@@UAE@XZ	; CDialog::~CDialog
??1CColorDialog@@UAE@XZ ENDP				; CColorDialog::~CColorDialog
_TEXT	ENDS
; Function compile flags: /Ogtp
; File C:\Program Files (x86)\Microsoft Visual Studio\2019\Community\VC\Tools\MSVC\14.29.30133\atlmfc\include\afxdlgs.h
; File C:\Program Files (x86)\Microsoft Visual Studio\2019\Community\VC\Tools\MSVC\14.29.30133\atlmfc\include\afx.inl
;	COMDAT ??_GCCommonDialog@@UAEPAXI@Z
_TEXT	SEGMENT
___flags$ = 8						; size = 4
??_GCCommonDialog@@UAEPAXI@Z PROC			; CCommonDialog::`scalar deleting destructor', COMDAT
; _this$ = ecx
  00000	55		 push	 ebp
  00001	8b ec		 mov	 ebp, esp
; File C:\Program Files (x86)\Microsoft Visual Studio\2019\Community\VC\Tools\MSVC\14.29.30133\atlmfc\include\afxdlgs.h

; 110  :     virtual ~CCommonDialog() {};

  00003	56		 push	 esi
  00004	8b f1		 mov	 esi, ecx
  00006	c7 06 00 00 00
	00		 mov	 DWORD PTR [esi], OFFSET ??_7CCommonDialog@@6B@
  0000c	e8 00 00 00 00	 call	 ??1CDialog@@UAE@XZ	; CDialog::~CDialog
  00011	8b 45 08	 mov	 eax, DWORD PTR ___flags$[ebp]
  00014	a8 01		 test	 al, 1
  00016	74 22		 je	 SHORT $LN12@scalar
  00018	a8 04		 test	 al, 4
  0001a	75 10		 jne	 SHORT $LN3@scalar
; File C:\Program Files (x86)\Microsoft Visual Studio\2019\Community\VC\Tools\MSVC\14.29.30133\atlmfc\include\afx.inl

; 112  : 	{ ::operator delete(p); }

  0001c	56		 push	 esi
  0001d	e8 00 00 00 00	 call	 ??3@YAXPAX@Z		; operator delete
  00022	83 c4 04	 add	 esp, 4
  00025	8b c6		 mov	 eax, esi
  00027	5e		 pop	 esi
  00028	5d		 pop	 ebp
  00029	c2 04 00	 ret	 4
$LN3@scalar:
  0002c	68 a8 00 00 00	 push	 168			; 000000a8H
  00031	56		 push	 esi
  00032	e8 00 00 00 00	 call	 ?__global_delete@@YAXPAXI@Z ; __global_delete
  00037	83 c4 08	 add	 esp, 8
$LN12@scalar:
  0003a	8b c6		 mov	 eax, esi
  0003c	5e		 pop	 esi
  0003d	5d		 pop	 ebp
  0003e	c2 04 00	 ret	 4
??_GCCommonDialog@@UAEPAXI@Z ENDP			; CCommonDialog::`scalar deleting destructor'
_TEXT	ENDS
; Function compile flags: /Ogtp
; File C:\Program Files (x86)\Microsoft Visual Studio\2019\Community\VC\Tools\MSVC\14.29.30133\atlmfc\include\afxdlgs.h
;	COMDAT ??1CCommonDialog@@UAE@XZ
_TEXT	SEGMENT
??1CCommonDialog@@UAE@XZ PROC				; CCommonDialog::~CCommonDialog, COMDAT
; _this$ = ecx

; 110  :     virtual ~CCommonDialog() {};

  00000	c7 01 00 00 00
	00		 mov	 DWORD PTR [ecx], OFFSET ??_7CCommonDialog@@6B@
  00006	e9 00 00 00 00	 jmp	 ??1CDialog@@UAE@XZ	; CDialog::~CDialog
??1CCommonDialog@@UAE@XZ ENDP				; CCommonDialog::~CCommonDialog
_TEXT	ENDS
; Function compile flags: /Ogtp
; File C:\Program Files (x86)\Microsoft Visual Studio\2019\Community\VC\Tools\MSVC\14.29.30133\atlmfc\include\afx.inl
;	COMDAT ??_GCButton@@UAEPAXI@Z
_TEXT	SEGMENT
___flags$ = 8						; size = 4
??_GCButton@@UAEPAXI@Z PROC				; CButton::`scalar deleting destructor', COMDAT
; _this$ = ecx
  00000	55		 push	 ebp
  00001	8b ec		 mov	 ebp, esp
  00003	56		 push	 esi
  00004	8b f1		 mov	 esi, ecx
  00006	e8 00 00 00 00	 call	 ??1CButton@@UAE@XZ	; CButton::~CButton
  0000b	8b 45 08	 mov	 eax, DWORD PTR ___flags$[ebp]
  0000e	a8 01		 test	 al, 1
  00010	74 22		 je	 SHORT $LN9@scalar
  00012	a8 04		 test	 al, 4
  00014	75 10		 jne	 SHORT $LN3@scalar

; 112  : 	{ ::operator delete(p); }

  00016	56		 push	 esi
  00017	e8 00 00 00 00	 call	 ??3@YAXPAX@Z		; operator delete
  0001c	83 c4 04	 add	 esp, 4
  0001f	8b c6		 mov	 eax, esi
  00021	5e		 pop	 esi
  00022	5d		 pop	 ebp
  00023	c2 04 00	 ret	 4
$LN3@scalar:
  00026	68 80 00 00 00	 push	 128			; 00000080H
  0002b	56		 push	 esi
  0002c	e8 00 00 00 00	 call	 ?__global_delete@@YAXPAXI@Z ; __global_delete
  00031	83 c4 08	 add	 esp, 8
$LN9@scalar:
  00034	8b c6		 mov	 eax, esi
  00036	5e		 pop	 esi
  00037	5d		 pop	 ebp
  00038	c2 04 00	 ret	 4
??_GCButton@@UAEPAXI@Z ENDP				; CButton::`scalar deleting destructor'
_TEXT	ENDS
; Function compile flags: /Ogtp
; File C:\Program Files (x86)\Microsoft Visual Studio\2019\Community\VC\Tools\MSVC\14.29.30133\atlmfc\include\afxwin2.inl
;	COMDAT ?GetCheck@CButton@@QBEHXZ
_TEXT	SEGMENT
?GetCheck@CButton@@QBEHXZ PROC				; CButton::GetCheck, COMDAT
; _this$ = ecx

; 628  : 	{ ASSERT(::IsWindow(m_hWnd)); return (int)::SendMessage(m_hWnd, BM_GETCHECK, 0, 0); }

  00000	6a 00		 push	 0
  00002	6a 00		 push	 0
  00004	68 f0 00 00 00	 push	 240			; 000000f0H
  00009	ff 71 20	 push	 DWORD PTR [ecx+32]
  0000c	ff 15 00 00 00
	00		 call	 DWORD PTR __imp__SendMessageA@16
  00012	c3		 ret	 0
?GetCheck@CButton@@QBEHXZ ENDP				; CButton::GetCheck
_TEXT	ENDS
; Function compile flags: /Ogtp
; File C:\Program Files (x86)\Microsoft Visual Studio\2019\Community\VC\Tools\MSVC\14.29.30133\atlmfc\include\afxwin2.inl
;	COMDAT ?Create@CDialog@@UAEHIPAVCWnd@@@Z
_TEXT	SEGMENT
_nIDTemplate$ = 8					; size = 4
_pParentWnd$ = 12					; size = 4
?Create@CDialog@@UAEHIPAVCWnd@@@Z PROC			; CDialog::Create, COMDAT
; _this$ = ecx

; 585  : 	{ return CDialog::Create(ATL_MAKEINTRESOURCE(nIDTemplate), pParentWnd); }

  00000	55		 push	 ebp
  00001	8b ec		 mov	 ebp, esp
  00003	0f b7 45 08	 movzx	 eax, WORD PTR _nIDTemplate$[ebp]
  00007	89 45 08	 mov	 DWORD PTR _nIDTemplate$[ebp], eax
  0000a	5d		 pop	 ebp
  0000b	e9 00 00 00 00	 jmp	 ?Create@CDialog@@UAEHPBDPAVCWnd@@@Z ; CDialog::Create
?Create@CDialog@@UAEHIPAVCWnd@@@Z ENDP			; CDialog::Create
_TEXT	ENDS
; Function compile flags: /Ogtp
; File C:\Program Files (x86)\Microsoft Visual Studio\2019\Community\VC\Tools\MSVC\14.29.30133\atlmfc\include\afxwin2.inl
;	COMDAT ?EndModalState@CWnd@@UAEXXZ
_TEXT	SEGMENT
?EndModalState@CWnd@@UAEXXZ PROC			; CWnd::EndModalState, COMDAT
; _this$ = ecx

; 567  : 	{ ::EnableWindow(m_hWnd, TRUE); }

  00000	6a 01		 push	 1
  00002	ff 71 20	 push	 DWORD PTR [ecx+32]
  00005	ff 15 00 00 00
	00		 call	 DWORD PTR __imp__EnableWindow@8
  0000b	c3		 ret	 0
?EndModalState@CWnd@@UAEXXZ ENDP			; CWnd::EndModalState
_TEXT	ENDS
; Function compile flags: /Ogtp
; File C:\Program Files (x86)\Microsoft Visual Studio\2019\Community\VC\Tools\MSVC\14.29.30133\atlmfc\include\afxwin2.inl
;	COMDAT ?BeginModalState@CWnd@@UAEXXZ
_TEXT	SEGMENT
?BeginModalState@CWnd@@UAEXXZ PROC			; CWnd::BeginModalState, COMDAT
; _this$ = ecx

; 565  : 	{ ::EnableWindow(m_hWnd, FALSE); }

  00000	6a 00		 push	 0
  00002	ff 71 20	 push	 DWORD PTR [ecx+32]
  00005	ff 15 00 00 00
	00		 call	 DWORD PTR __imp__EnableWindow@8
  0000b	c3		 ret	 0
?BeginModalState@CWnd@@UAEXXZ ENDP			; CWnd::BeginModalState
_TEXT	ENDS
; Function compile flags: /Ogtp
; File C:\Program Files (x86)\Microsoft Visual Studio\2019\Community\VC\Tools\MSVC\14.29.30133\atlmfc\include\afxwin2.inl
;	COMDAT ?DoDataExchange@CWnd@@MAEXPAVCDataExchange@@@Z
_TEXT	SEGMENT
___formal$ = 8						; size = 4
?DoDataExchange@CWnd@@MAEXPAVCDataExchange@@@Z PROC	; CWnd::DoDataExchange, COMDAT
; _this$ = ecx

; 561  : 	{ } // default does nothing

  00000	c2 04 00	 ret	 4
?DoDataExchange@CWnd@@MAEXPAVCDataExchange@@@Z ENDP	; CWnd::DoDataExchange
_TEXT	ENDS
; Function compile flags: /Ogtp
; File C:\Program Files (x86)\Microsoft Visual Studio\2019\Community\VC\Tools\MSVC\14.29.30133\atlmfc\include\afx.inl
;	COMDAT ?Dump@CObject@@UBEXAAVCDumpContext@@@Z
_TEXT	SEGMENT
___formal$ = 8						; size = 4
?Dump@CObject@@UBEXAAVCDumpContext@@@Z PROC		; CObject::Dump, COMDAT
; _this$ = ecx

; 122  : 	{ /* no dumping in release builds */ }

  00000	c2 04 00	 ret	 4
?Dump@CObject@@UBEXAAVCDumpContext@@@Z ENDP		; CObject::Dump
_TEXT	ENDS
; Function compile flags: /Ogtp
; File C:\Program Files (x86)\Microsoft Visual Studio\2019\Community\VC\Tools\MSVC\14.29.30133\atlmfc\include\afx.inl
;	COMDAT ?AssertValid@CObject@@UBEXXZ
_TEXT	SEGMENT
?AssertValid@CObject@@UBEXXZ PROC			; CObject::AssertValid, COMDAT
; _this$ = ecx

; 120  : 	{ /* no asserts in release builds */ }

  00000	c2 00 00	 ret	 0
?AssertValid@CObject@@UBEXXZ ENDP			; CObject::AssertValid
_TEXT	ENDS
; Function compile flags: /Ogtp
; File C:\Program Files (x86)\Microsoft Visual Studio\2019\Community\VC\Tools\MSVC\14.29.30133\atlmfc\include\afx.inl
;	COMDAT ?Serialize@CObject@@UAEXAAVCArchive@@@Z
_TEXT	SEGMENT
___formal$ = 8						; size = 4
?Serialize@CObject@@UAEXAAVCArchive@@@Z PROC		; CObject::Serialize, COMDAT
; _this$ = ecx

; 106  : 	{ /* CObject does not serialize anything by default */ }

  00000	c2 04 00	 ret	 4
?Serialize@CObject@@UAEXAAVCArchive@@@Z ENDP		; CObject::Serialize
_TEXT	ENDS
; Function compile flags: /Ogtp
; File D:\git\src\IBK\IBK_DRFN\ProjSrc\SrcChartEx\ChartAddIn\ChartEnvSetupDlgAddIn\ChartEnvSetupDlgAddIn\Setting_Volume.cpp
;	COMDAT ?__empty_global_delete@@YAXPAXI@Z
_TEXT	SEGMENT
___formal$ = 8						; size = 4
___formal$ = 12						; size = 4
?__empty_global_delete@@YAXPAXI@Z PROC			; __empty_global_delete, COMDAT

  00000	c2 00 00	 ret	 0
?__empty_global_delete@@YAXPAXI@Z ENDP			; __empty_global_delete
_TEXT	ENDS
; Function compile flags: /Ogtp
; File D:\git\src\IBK\IBK_DRFN\ProjSrc\SrcChartEx\ChartAddIn\ChartEnvSetupDlgAddIn\ChartEnvSetupDlgAddIn\Setting_Volume.cpp
;	COMDAT ?__empty_global_delete@@YAXPAX@Z
_TEXT	SEGMENT
___formal$ = 8						; size = 4
?__empty_global_delete@@YAXPAX@Z PROC			; __empty_global_delete, COMDAT

  00000	c2 00 00	 ret	 0
?__empty_global_delete@@YAXPAX@Z ENDP			; __empty_global_delete
_TEXT	ENDS
END
