; Listing generated by Microsoft (R) Optimizing Compiler Version 19.29.30145.0 

	TITLE	D:\git\src\IBK\IBK_DRFN\#DRfn-CS\_Obj\ChartEnvSetupDlgAddIn\Setting_Special_Type_E.obj
	.686P
	.XMM
	include listing.inc
	.model	flat

INCLUDELIB MSVCRT
INCLUDELIB OLDNAMES

PUBLIC	??_C@_01GBGANLPD@0@				; `string'
PUBLIC	??_C@_01HIHLOKLC@1@				; `string'
PUBLIC	??_C@_01FDFGLJHB@2@				; `string'
PUBLIC	??_C@_01EKENIIDA@3@				; `string'
PUBLIC	??_C@_01FAMBOPH@4@				; `string'
PUBLIC	??_C@_01BMBHCPLG@5@				; `string'
PUBLIC	??_C@_01DHDKHMHF@6@				; `string'
PUBLIC	??_C@_01COCBENDE@7@				; `string'
PUBLIC	??_C@_01KJLJFBPL@8@				; `string'
PUBLIC	??_C@_01LAKCGALK@9@				; `string'
PUBLIC	??_C@_02PKFBJPLJ@10@				; `string'
PUBLIC	??_C@_02ODEKKOPI@11@				; `string'
PUBLIC	??_C@_02MIGHPNDL@12@				; `string'
PUBLIC	??_C@_02NBHMMMHK@13@				; `string'
PUBLIC	??_C@_02JODNFKLN@14@				; `string'
PUBLIC	??_C@_02IHCGGLPM@15@				; `string'
PUBLIC	??_C@_02KMALDIDP@16@				; `string'
PUBLIC	??_C@_02LFBAAJHO@17@				; `string'
PUBLIC	??_C@_02DCIIBFLB@18@				; `string'
PUBLIC	??_C@_02CLJDCEPA@19@				; `string'
PUBLIC	??_C@_02PIBHCBOA@20@				; `string'
PUBLIC	??_C@_02OBAMBAKB@21@				; `string'
PUBLIC	??_C@_02MKCBEDGC@22@				; `string'
PUBLIC	??_C@_02NDDKHCCD@23@				; `string'
PUBLIC	??_C@_02JMHLOEOE@24@				; `string'
;	COMDAT ??_C@_02JMHLOEOE@24@
CONST	SEGMENT
??_C@_02JMHLOEOE@24@ DB '24', 00H			; `string'
CONST	ENDS
;	COMDAT ??_C@_02NDDKHCCD@23@
CONST	SEGMENT
??_C@_02NDDKHCCD@23@ DB '23', 00H			; `string'
CONST	ENDS
;	COMDAT ??_C@_02MKCBEDGC@22@
CONST	SEGMENT
??_C@_02MKCBEDGC@22@ DB '22', 00H			; `string'
CONST	ENDS
;	COMDAT ??_C@_02OBAMBAKB@21@
CONST	SEGMENT
??_C@_02OBAMBAKB@21@ DB '21', 00H			; `string'
CONST	ENDS
;	COMDAT ??_C@_02PIBHCBOA@20@
CONST	SEGMENT
??_C@_02PIBHCBOA@20@ DB '20', 00H			; `string'
CONST	ENDS
;	COMDAT ??_C@_02CLJDCEPA@19@
CONST	SEGMENT
??_C@_02CLJDCEPA@19@ DB '19', 00H			; `string'
CONST	ENDS
;	COMDAT ??_C@_02DCIIBFLB@18@
CONST	SEGMENT
??_C@_02DCIIBFLB@18@ DB '18', 00H			; `string'
CONST	ENDS
;	COMDAT ??_C@_02LFBAAJHO@17@
CONST	SEGMENT
??_C@_02LFBAAJHO@17@ DB '17', 00H			; `string'
CONST	ENDS
;	COMDAT ??_C@_02KMALDIDP@16@
CONST	SEGMENT
??_C@_02KMALDIDP@16@ DB '16', 00H			; `string'
CONST	ENDS
;	COMDAT ??_C@_02IHCGGLPM@15@
CONST	SEGMENT
??_C@_02IHCGGLPM@15@ DB '15', 00H			; `string'
CONST	ENDS
;	COMDAT ??_C@_02JODNFKLN@14@
CONST	SEGMENT
??_C@_02JODNFKLN@14@ DB '14', 00H			; `string'
CONST	ENDS
;	COMDAT ??_C@_02NBHMMMHK@13@
CONST	SEGMENT
??_C@_02NBHMMMHK@13@ DB '13', 00H			; `string'
CONST	ENDS
;	COMDAT ??_C@_02MIGHPNDL@12@
CONST	SEGMENT
??_C@_02MIGHPNDL@12@ DB '12', 00H			; `string'
CONST	ENDS
;	COMDAT ??_C@_02ODEKKOPI@11@
CONST	SEGMENT
??_C@_02ODEKKOPI@11@ DB '11', 00H			; `string'
CONST	ENDS
;	COMDAT ??_C@_02PKFBJPLJ@10@
CONST	SEGMENT
??_C@_02PKFBJPLJ@10@ DB '10', 00H			; `string'
CONST	ENDS
;	COMDAT ??_C@_01LAKCGALK@9@
CONST	SEGMENT
??_C@_01LAKCGALK@9@ DB '9', 00H				; `string'
CONST	ENDS
;	COMDAT ??_C@_01KJLJFBPL@8@
CONST	SEGMENT
??_C@_01KJLJFBPL@8@ DB '8', 00H				; `string'
CONST	ENDS
;	COMDAT ??_C@_01COCBENDE@7@
CONST	SEGMENT
??_C@_01COCBENDE@7@ DB '7', 00H				; `string'
CONST	ENDS
;	COMDAT ??_C@_01DHDKHMHF@6@
CONST	SEGMENT
??_C@_01DHDKHMHF@6@ DB '6', 00H				; `string'
CONST	ENDS
;	COMDAT ??_C@_01BMBHCPLG@5@
CONST	SEGMENT
??_C@_01BMBHCPLG@5@ DB '5', 00H				; `string'
CONST	ENDS
;	COMDAT ??_C@_01FAMBOPH@4@
CONST	SEGMENT
??_C@_01FAMBOPH@4@ DB '4', 00H				; `string'
CONST	ENDS
;	COMDAT ??_C@_01EKENIIDA@3@
CONST	SEGMENT
??_C@_01EKENIIDA@3@ DB '3', 00H				; `string'
CONST	ENDS
;	COMDAT ??_C@_01FDFGLJHB@2@
CONST	SEGMENT
??_C@_01FDFGLJHB@2@ DB '2', 00H				; `string'
CONST	ENDS
;	COMDAT ??_C@_01HIHLOKLC@1@
CONST	SEGMENT
??_C@_01HIHLOKLC@1@ DB '1', 00H				; `string'
CONST	ENDS
;	COMDAT ??_C@_01GBGANLPD@0@
CONST	SEGMENT
??_C@_01GBGANLPD@0@ DB '0', 00H				; `string'
CONST	ENDS
PUBLIC	?__empty_global_delete@@YAXPAX@Z		; __empty_global_delete
PUBLIC	?__empty_global_delete@@YAXPAXI@Z		; __empty_global_delete
PUBLIC	?Serialize@CObject@@UAEXAAVCArchive@@@Z		; CObject::Serialize
PUBLIC	?AssertValid@CObject@@UBEXXZ			; CObject::AssertValid
PUBLIC	?Dump@CObject@@UBEXAAVCDumpContext@@@Z		; CObject::Dump
PUBLIC	?DoDataExchange@CWnd@@MAEXPAVCDataExchange@@@Z	; CWnd::DoDataExchange
PUBLIC	?BeginModalState@CWnd@@UAEXXZ			; CWnd::BeginModalState
PUBLIC	?EndModalState@CWnd@@UAEXXZ			; CWnd::EndModalState
PUBLIC	?Create@CDialog@@UAEHIPAVCWnd@@@Z		; CDialog::Create
PUBLIC	??1CCommonDialog@@UAE@XZ			; CCommonDialog::~CCommonDialog
PUBLIC	??_GCCommonDialog@@UAEPAXI@Z			; CCommonDialog::`scalar deleting destructor'
PUBLIC	??1CColorDialog@@UAE@XZ				; CColorDialog::~CColorDialog
PUBLIC	??1ILPCSTR135914@@QAE@XZ			; ILPCSTR135914::~ILPCSTR135914
PUBLIC	??0CSetting_Special_Type_E@@QAE@PAUIChartOCX135914@@PAVCWnd@@1@Z ; CSetting_Special_Type_E::CSetting_Special_Type_E
PUBLIC	?PreTranslateMessage@CSetting_Special_Type_E@@UAEHPAUtagMSG@@@Z ; CSetting_Special_Type_E::PreTranslateMessage
PUBLIC	?DoDataExchange@CSetting_Special_Type_E@@MAEXPAVCDataExchange@@@Z ; CSetting_Special_Type_E::DoDataExchange
PUBLIC	?Init_ColorButton@CSetting_Special_Type_E@@AAEXXZ ; CSetting_Special_Type_E::Init_ColorButton
PUBLIC	?Initial@CSetting_Special_Type_E@@UAEXPAUIGraphInfo135914@@@Z ; CSetting_Special_Type_E::Initial
PUBLIC	?OnApply@CSetting_Special_Type_E@@UAEHPAUIGraphInfo135914@@@Z ; CSetting_Special_Type_E::OnApply
PUBLIC	?OnInitDialog@CSetting_Special_Type_E@@MAEHXZ	; CSetting_Special_Type_E::OnInitDialog
PUBLIC	?OnBtnColor1@CSetting_Special_Type_E@@IAEXXZ	; CSetting_Special_Type_E::OnBtnColor1
PUBLIC	?OnBtnColor2@CSetting_Special_Type_E@@IAEXXZ	; CSetting_Special_Type_E::OnBtnColor2
PUBLIC	?OnBtnColor3@CSetting_Special_Type_E@@IAEXXZ	; CSetting_Special_Type_E::OnBtnColor3
PUBLIC	?OnBtnColor4@CSetting_Special_Type_E@@IAEXXZ	; CSetting_Special_Type_E::OnBtnColor4
PUBLIC	?OnBtnColor5@CSetting_Special_Type_E@@IAEXXZ	; CSetting_Special_Type_E::OnBtnColor5
PUBLIC	?OnBtnColor6@CSetting_Special_Type_E@@IAEXXZ	; CSetting_Special_Type_E::OnBtnColor6
PUBLIC	?OnGuganRadio@CSetting_Special_Type_E@@IAEXXZ	; CSetting_Special_Type_E::OnGuganRadio
PUBLIC	?OnHogaRadio@CSetting_Special_Type_E@@IAEXXZ	; CSetting_Special_Type_E::OnHogaRadio
PUBLIC	?GetThisMessageMap@CSetting_Special_Type_E@@KGPBUAFX_MSGMAP@@XZ ; CSetting_Special_Type_E::GetThisMessageMap
PUBLIC	?GetMessageMap@CSetting_Special_Type_E@@MBEPBUAFX_MSGMAP@@XZ ; CSetting_Special_Type_E::GetMessageMap
PUBLIC	??_GCSetting_Special_Type_E@@UAEPAXI@Z		; CSetting_Special_Type_E::`scalar deleting destructor'
PUBLIC	?LoadResourceDLL@IMetaTable@@QAEPAUHINSTANCE__@@PAUHWND__@@PAU2@@Z ; IMetaTable::LoadResourceDLL
PUBLIC	??1CMultiLanguageResourceSetter@@QAE@XZ		; CMultiLanguageResourceSetter::~CMultiLanguageResourceSetter
PUBLIC	??_7CCommonDialog@@6B@				; CCommonDialog::`vftable'
PUBLIC	??_R0?AVCObject@@@8				; CObject `RTTI Type Descriptor'
PUBLIC	??_R3CObject@@8					; CObject::`RTTI Class Hierarchy Descriptor'
PUBLIC	??_R2CObject@@8					; CObject::`RTTI Base Class Array'
PUBLIC	??_R1A@?0A@EA@CObject@@8			; CObject::`RTTI Base Class Descriptor at (0,-1,0,64)'
PUBLIC	??_R1A@?0A@EA@CWnd@@8				; CWnd::`RTTI Base Class Descriptor at (0,-1,0,64)'
PUBLIC	??_R0?AVCWnd@@@8				; CWnd `RTTI Type Descriptor'
PUBLIC	??_R3CWnd@@8					; CWnd::`RTTI Class Hierarchy Descriptor'
PUBLIC	??_R2CWnd@@8					; CWnd::`RTTI Base Class Array'
PUBLIC	??_R1A@?0A@EA@CCmdTarget@@8			; CCmdTarget::`RTTI Base Class Descriptor at (0,-1,0,64)'
PUBLIC	??_R0?AVCCmdTarget@@@8				; CCmdTarget `RTTI Type Descriptor'
PUBLIC	??_R3CCmdTarget@@8				; CCmdTarget::`RTTI Class Hierarchy Descriptor'
PUBLIC	??_R2CCmdTarget@@8				; CCmdTarget::`RTTI Base Class Array'
PUBLIC	??_R4CCommonDialog@@6B@				; CCommonDialog::`RTTI Complete Object Locator'
PUBLIC	??_R0?AVCCommonDialog@@@8			; CCommonDialog `RTTI Type Descriptor'
PUBLIC	??_R3CCommonDialog@@8				; CCommonDialog::`RTTI Class Hierarchy Descriptor'
PUBLIC	??_R2CCommonDialog@@8				; CCommonDialog::`RTTI Base Class Array'
PUBLIC	??_R1A@?0A@EA@CCommonDialog@@8			; CCommonDialog::`RTTI Base Class Descriptor at (0,-1,0,64)'
PUBLIC	??_R1A@?0A@EA@CDialog@@8			; CDialog::`RTTI Base Class Descriptor at (0,-1,0,64)'
PUBLIC	??_R0?AVCDialog@@@8				; CDialog `RTTI Type Descriptor'
PUBLIC	??_R3CDialog@@8					; CDialog::`RTTI Class Hierarchy Descriptor'
PUBLIC	??_R2CDialog@@8					; CDialog::`RTTI Base Class Array'
PUBLIC	??_7CSetting_Special_Type_E@@6B@		; CSetting_Special_Type_E::`vftable'
PUBLIC	??_C@_0BA@ENJOCHIO@LoadResourceDLL@		; `string'
PUBLIC	??_C@_07OEKCJGKM@HBPRICE@			; `string'
PUBLIC	??_R4CSetting_Special_Type_E@@6B@		; CSetting_Special_Type_E::`RTTI Complete Object Locator'
PUBLIC	??_R0?AVCSetting_Special_Type_E@@@8		; CSetting_Special_Type_E `RTTI Type Descriptor'
PUBLIC	??_R3CSetting_Special_Type_E@@8			; CSetting_Special_Type_E::`RTTI Class Hierarchy Descriptor'
PUBLIC	??_R2CSetting_Special_Type_E@@8			; CSetting_Special_Type_E::`RTTI Base Class Array'
PUBLIC	??_R1A@?0A@EA@CSetting_Special_Type_E@@8	; CSetting_Special_Type_E::`RTTI Base Class Descriptor at (0,-1,0,64)'
PUBLIC	??_R1A@?0A@EA@CBaseDialog@@8			; CBaseDialog::`RTTI Base Class Descriptor at (0,-1,0,64)'
PUBLIC	??_R0?AVCBaseDialog@@@8				; CBaseDialog `RTTI Type Descriptor'
PUBLIC	??_R3CBaseDialog@@8				; CBaseDialog::`RTTI Class Hierarchy Descriptor'
PUBLIC	??_R2CBaseDialog@@8				; CBaseDialog::`RTTI Base Class Array'
PUBLIC	__real@3ff0000000000000
EXTRN	??3@YAXPAX@Z:PROC				; operator delete
EXTRN	?__global_delete@@YAXPAXI@Z:PROC		; __global_delete
EXTRN	___std_terminate:PROC
EXTRN	__imp__GetProcAddress@8:PROC
EXTRN	__imp__EnableWindow@8:PROC
EXTRN	__imp__InvalidateRect@12:PROC
EXTRN	__imp__atof:PROC
EXTRN	__imp_??0?$CStringT@DV?$StrTraitMFC_DLL@DV?$ChTraitsCRT@D@ATL@@@@@ATL@@QAE@XZ:PROC
EXTRN	__imp_??1?$CStringT@DV?$StrTraitMFC_DLL@DV?$ChTraitsCRT@D@ATL@@@@@ATL@@QAE@XZ:PROC
EXTRN	__imp_?LoadStringA@?$CStringT@DV?$StrTraitMFC_DLL@DV?$ChTraitsCRT@D@ATL@@@@@ATL@@QAEHI@Z:PROC
EXTRN	?AfxGetModuleState@@YGPAVAFX_MODULE_STATE@@XZ:PROC ; AfxGetModuleState
EXTRN	?AfxGetStaticModuleState@@YGPAVAFX_MODULE_STATE@@XZ:PROC ; AfxGetStaticModuleState
EXTRN	?DDX_Check@@YGXPAVCDataExchange@@HAAH@Z:PROC	; DDX_Check
EXTRN	?DDX_Radio@@YGXPAVCDataExchange@@HAAH@Z:PROC	; DDX_Radio
EXTRN	?DDX_Control@@YGXPAVCDataExchange@@HAAVCWnd@@@Z:PROC ; DDX_Control
EXTRN	?IsInvokeAllowed@CCmdTarget@@UAEHJ@Z:PROC	; CCmdTarget::IsInvokeAllowed
EXTRN	?GetDispatchIID@CCmdTarget@@UAEHPAU_GUID@@@Z:PROC ; CCmdTarget::GetDispatchIID
EXTRN	?GetTypeInfoCount@CCmdTarget@@UAEIXZ:PROC	; CCmdTarget::GetTypeInfoCount
EXTRN	?GetTypeLibCache@CCmdTarget@@UAEPAVCTypeLibCache@@XZ:PROC ; CCmdTarget::GetTypeLibCache
EXTRN	?GetTypeLib@CCmdTarget@@UAEJKPAPAUITypeLib@@@Z:PROC ; CCmdTarget::GetTypeLib
EXTRN	?GetCommandMap@CCmdTarget@@MBEPBUAFX_OLECMDMAP@@XZ:PROC ; CCmdTarget::GetCommandMap
EXTRN	?GetDispatchMap@CCmdTarget@@MBEPBUAFX_DISPMAP@@XZ:PROC ; CCmdTarget::GetDispatchMap
EXTRN	?GetConnectionMap@CCmdTarget@@MBEPBUAFX_CONNECTIONMAP@@XZ:PROC ; CCmdTarget::GetConnectionMap
EXTRN	?GetEventSinkMap@CCmdTarget@@MBEPBUAFX_EVENTSINKMAP@@XZ:PROC ; CCmdTarget::GetEventSinkMap
EXTRN	?OnCreateAggregates@CCmdTarget@@UAEHXZ:PROC	; CCmdTarget::OnCreateAggregates
EXTRN	?GetInterfaceHook@CCmdTarget@@UAEPAUIUnknown@@PBX@Z:PROC ; CCmdTarget::GetInterfaceHook
EXTRN	?GetExtraConnectionPoints@CCmdTarget@@MAEHPAVCPtrArray@@@Z:PROC ; CCmdTarget::GetExtraConnectionPoints
EXTRN	?GetConnectionHook@CCmdTarget@@MAEPAUIConnectionPoint@@ABU_GUID@@@Z:PROC ; CCmdTarget::GetConnectionHook
EXTRN	?PreSubclassWindow@CWnd@@UAEXXZ:PROC		; CWnd::PreSubclassWindow
EXTRN	?Create@CWnd@@UAEHPBD0KABUtagRECT@@PAV1@IPAUCCreateContext@@@Z:PROC ; CWnd::Create
EXTRN	?CreateEx@CWnd@@UAEHKPBD0KHHHHPAUHWND__@@PAUHMENU__@@PAX@Z:PROC ; CWnd::CreateEx
EXTRN	?CreateEx@CWnd@@UAEHKPBD0KABUtagRECT@@PAV1@IPAX@Z:PROC ; CWnd::CreateEx
EXTRN	?DestroyWindow@CWnd@@UAEHXZ:PROC		; CWnd::DestroyWindow
EXTRN	?PreCreateWindow@CWnd@@UAEHAAUtagCREATESTRUCTA@@@Z:PROC ; CWnd::PreCreateWindow
EXTRN	?CalcWindowRect@CWnd@@UAEXPAUtagRECT@@I@Z:PROC	; CWnd::CalcWindowRect
EXTRN	?GetDlgItem@CWnd@@QBEPAV1@H@Z:PROC		; CWnd::GetDlgItem
EXTRN	?SetWindowTextA@CWnd@@QAEXPBD@Z:PROC		; CWnd::SetWindowTextA
EXTRN	?GetWindowTextA@CWnd@@QBEXAAV?$CStringT@DV?$StrTraitMFC_DLL@DV?$ChTraitsCRT@D@ATL@@@@@ATL@@@Z:PROC ; CWnd::GetWindowTextA
EXTRN	?GetMenu@CWnd@@UBEPAVCMenu@@XZ:PROC		; CWnd::GetMenu
EXTRN	?SetMenu@CWnd@@UAEHPAVCMenu@@@Z:PROC		; CWnd::SetMenu
EXTRN	?ShowWindow@CWnd@@QAEHH@Z:PROC			; CWnd::ShowWindow
EXTRN	?OnToolHitTest@CWnd@@UBEHVCPoint@@PAUtagTOOLINFOA@@@Z:PROC ; CWnd::OnToolHitTest
EXTRN	?EnableWindow@CWnd@@QAEHH@Z:PROC		; CWnd::EnableWindow
EXTRN	?GetScrollBarCtrl@CWnd@@UBEPAVCScrollBar@@H@Z:PROC ; CWnd::GetScrollBarCtrl
EXTRN	?UpdateData@CWnd@@QAEHH@Z:PROC			; CWnd::UpdateData
EXTRN	?WinHelpA@CWnd@@UAEXKI@Z:PROC			; CWnd::WinHelpA
EXTRN	?HtmlHelpA@CWnd@@UAEXKI@Z:PROC			; CWnd::HtmlHelpA
EXTRN	?WinHelpInternal@CWnd@@UAEXKI@Z:PROC		; CWnd::WinHelpInternal
EXTRN	?ContinueModal@CWnd@@UAEHXZ:PROC		; CWnd::ContinueModal
EXTRN	?EndModalLoop@CWnd@@UAEXH@Z:PROC		; CWnd::EndModalLoop
EXTRN	?OnDrawIconicThumbnailOrLivePreview@CWnd@@UAEXAAVCDC@@VCRect@@VCSize@@HAAH@Z:PROC ; CWnd::OnDrawIconicThumbnailOrLivePreview
EXTRN	?GetInterfaceMap@CWnd@@MBEPBUAFX_INTERFACEMAP@@XZ:PROC ; CWnd::GetInterfaceMap
EXTRN	?EnsureStdObj@CWnd@@UAEJXZ:PROC			; CWnd::EnsureStdObj
EXTRN	?get_accParent@CWnd@@UAEJPAPAUIDispatch@@@Z:PROC ; CWnd::get_accParent
EXTRN	?get_accChildCount@CWnd@@UAEJPAJ@Z:PROC		; CWnd::get_accChildCount
EXTRN	?get_accChild@CWnd@@UAEJUtagVARIANT@@PAPAUIDispatch@@@Z:PROC ; CWnd::get_accChild
EXTRN	?get_accName@CWnd@@UAEJUtagVARIANT@@PAPA_W@Z:PROC ; CWnd::get_accName
EXTRN	?get_accValue@CWnd@@UAEJUtagVARIANT@@PAPA_W@Z:PROC ; CWnd::get_accValue
EXTRN	?get_accDescription@CWnd@@UAEJUtagVARIANT@@PAPA_W@Z:PROC ; CWnd::get_accDescription
EXTRN	?get_accRole@CWnd@@UAEJUtagVARIANT@@PAU2@@Z:PROC ; CWnd::get_accRole
EXTRN	?get_accState@CWnd@@UAEJUtagVARIANT@@PAU2@@Z:PROC ; CWnd::get_accState
EXTRN	?get_accHelp@CWnd@@UAEJUtagVARIANT@@PAPA_W@Z:PROC ; CWnd::get_accHelp
EXTRN	?get_accHelpTopic@CWnd@@UAEJPAPA_WUtagVARIANT@@PAJ@Z:PROC ; CWnd::get_accHelpTopic
EXTRN	?get_accKeyboardShortcut@CWnd@@UAEJUtagVARIANT@@PAPA_W@Z:PROC ; CWnd::get_accKeyboardShortcut
EXTRN	?get_accFocus@CWnd@@UAEJPAUtagVARIANT@@@Z:PROC	; CWnd::get_accFocus
EXTRN	?get_accSelection@CWnd@@UAEJPAUtagVARIANT@@@Z:PROC ; CWnd::get_accSelection
EXTRN	?get_accDefaultAction@CWnd@@UAEJUtagVARIANT@@PAPA_W@Z:PROC ; CWnd::get_accDefaultAction
EXTRN	?accSelect@CWnd@@UAEJJUtagVARIANT@@@Z:PROC	; CWnd::accSelect
EXTRN	?accLocation@CWnd@@UAEJPAJ000UtagVARIANT@@@Z:PROC ; CWnd::accLocation
EXTRN	?accNavigate@CWnd@@UAEJJUtagVARIANT@@PAU2@@Z:PROC ; CWnd::accNavigate
EXTRN	?accHitTest@CWnd@@UAEJJJPAUtagVARIANT@@@Z:PROC	; CWnd::accHitTest
EXTRN	?accDoDefaultAction@CWnd@@UAEJUtagVARIANT@@@Z:PROC ; CWnd::accDoDefaultAction
EXTRN	?put_accName@CWnd@@UAEJUtagVARIANT@@PA_W@Z:PROC	; CWnd::put_accName
EXTRN	?put_accValue@CWnd@@UAEJUtagVARIANT@@PA_W@Z:PROC ; CWnd::put_accValue
EXTRN	?SetProxy@CWnd@@UAEJPAUIAccessibleProxy@@@Z:PROC ; CWnd::SetProxy
EXTRN	?CreateAccessibleProxy@CWnd@@UAEJIJPAJ@Z:PROC	; CWnd::CreateAccessibleProxy
EXTRN	?OnCommand@CWnd@@MAEHIJ@Z:PROC			; CWnd::OnCommand
EXTRN	?OnNotify@CWnd@@MAEHIJPAJ@Z:PROC		; CWnd::OnNotify
EXTRN	?GetSuperWndProcAddr@CWnd@@MAEPAP6GJPAUHWND__@@IIJ@ZXZ:PROC ; CWnd::GetSuperWndProcAddr
EXTRN	?OnAmbientProperty@CWnd@@UAEHPAVCOleControlSite@@JPAUtagVARIANT@@@Z:PROC ; CWnd::OnAmbientProperty
EXTRN	?WindowProc@CWnd@@MAEJIIJ@Z:PROC		; CWnd::WindowProc
EXTRN	?OnWndMsg@CWnd@@MAEHIIJPAJ@Z:PROC		; CWnd::OnWndMsg
EXTRN	?DefWindowProcA@CWnd@@MAEJIIJ@Z:PROC		; CWnd::DefWindowProcA
EXTRN	?PostNcDestroy@CWnd@@MAEXXZ:PROC		; CWnd::PostNcDestroy
EXTRN	?OnChildNotify@CWnd@@MAEHIIJPAJ@Z:PROC		; CWnd::OnChildNotify
EXTRN	?OnTouchInputs@CWnd@@MAEHIPAUtagTOUCHINPUT@@@Z:PROC ; CWnd::OnTouchInputs
EXTRN	?OnTouchInput@CWnd@@MAEHVCPoint@@HHPAUtagTOUCHINPUT@@@Z:PROC ; CWnd::OnTouchInput
EXTRN	?GetGestureStatus@CWnd@@MAEKVCPoint@@@Z:PROC	; CWnd::GetGestureStatus
EXTRN	?OnGestureZoom@CWnd@@MAEHVCPoint@@J@Z:PROC	; CWnd::OnGestureZoom
EXTRN	?OnGesturePan@CWnd@@MAEHVCPoint@@0@Z:PROC	; CWnd::OnGesturePan
EXTRN	?OnGestureRotate@CWnd@@MAEHVCPoint@@N@Z:PROC	; CWnd::OnGestureRotate
EXTRN	?OnGestureTwoFingerTap@CWnd@@MAEHVCPoint@@@Z:PROC ; CWnd::OnGestureTwoFingerTap
EXTRN	?OnGesturePressAndTap@CWnd@@MAEHVCPoint@@J@Z:PROC ; CWnd::OnGesturePressAndTap
EXTRN	?ResizeDynamicLayout@CWnd@@MAEXXZ:PROC		; CWnd::ResizeDynamicLayout
EXTRN	?IsFrameWnd@CWnd@@UBEHXZ:PROC			; CWnd::IsFrameWnd
EXTRN	?OnFinalRelease@CWnd@@UAEXXZ:PROC		; CWnd::OnFinalRelease
EXTRN	?CreateControlContainer@CWnd@@MAEHPAPAVCOleControlContainer@@@Z:PROC ; CWnd::CreateControlContainer
EXTRN	?CreateControlSite@CWnd@@MAEHPAVCOleControlContainer@@PAPAVCOleControlSite@@IABU_GUID@@@Z:PROC ; CWnd::CreateControlSite
EXTRN	?GetRuntimeClass@CDialog@@UBEPAUCRuntimeClass@@XZ:PROC ; CDialog::GetRuntimeClass
EXTRN	?Create@CDialog@@UAEHPBDPAVCWnd@@@Z:PROC	; CDialog::Create
EXTRN	?CreateIndirect@CDialog@@UAEHPBUDLGTEMPLATE@@PAVCWnd@@PAX@Z:PROC ; CDialog::CreateIndirect
EXTRN	?CreateIndirect@CDialog@@UAEHPAXPAVCWnd@@@Z:PROC ; CDialog::CreateIndirect
EXTRN	?DoModal@CDialog@@UAEHXZ:PROC			; CDialog::DoModal
EXTRN	?OnInitDialog@CDialog@@UAEHXZ:PROC		; CDialog::OnInitDialog
EXTRN	?OnSetFont@CDialog@@UAEXPAVCFont@@@Z:PROC	; CDialog::OnSetFont
EXTRN	?OnOK@CDialog@@MAEXXZ:PROC			; CDialog::OnOK
EXTRN	?OnCancel@CDialog@@MAEXXZ:PROC			; CDialog::OnCancel
EXTRN	??1CDialog@@UAE@XZ:PROC				; CDialog::~CDialog
EXTRN	?PreTranslateMessage@CDialog@@UAEHPAUtagMSG@@@Z:PROC ; CDialog::PreTranslateMessage
EXTRN	?OnCmdMsg@CDialog@@UAEHIHPAXPAUAFX_CMDHANDLERINFO@@@Z:PROC ; CDialog::OnCmdMsg
EXTRN	?CheckAutoCenter@CDialog@@UAEHXZ:PROC		; CDialog::CheckAutoCenter
EXTRN	?SetOccDialogInfo@CDialog@@MAEHPAU_AFX_OCC_DIALOG_INFO@@@Z:PROC ; CDialog::SetOccDialogInfo
EXTRN	?GetOccDialogInfo@CDialog@@MAEPAU_AFX_OCC_DIALOG_INFO@@XZ:PROC ; CDialog::GetOccDialogInfo
EXTRN	?PreInitDialog@CDialog@@MAEXXZ:PROC		; CDialog::PreInitDialog
EXTRN	?GetThisMessageMap@CDialog@@KGPBUAFX_MSGMAP@@XZ:PROC ; CDialog::GetThisMessageMap
EXTRN	?GetRuntimeClass@CCommonDialog@@UBEPAUCRuntimeClass@@XZ:PROC ; CCommonDialog::GetRuntimeClass
EXTRN	?OnOK@CCommonDialog@@MAEXXZ:PROC		; CCommonDialog::OnOK
EXTRN	?OnCancel@CCommonDialog@@MAEXXZ:PROC		; CCommonDialog::OnCancel
EXTRN	?GetMessageMap@CCommonDialog@@MBEPBUAFX_MSGMAP@@XZ:PROC ; CCommonDialog::GetMessageMap
EXTRN	??_ECCommonDialog@@UAEPAXI@Z:PROC		; CCommonDialog::`vector deleting destructor'
EXTRN	??0CColorDialog@@QAE@KKPAVCWnd@@@Z:PROC		; CColorDialog::CColorDialog
EXTRN	?DoModal@CColorDialog@@UAEHXZ:PROC		; CColorDialog::DoModal
EXTRN	??0CNumEdit@@QAE@XZ:PROC			; CNumEdit::CNumEdit
EXTRN	??1CNumEdit@@UAE@XZ:PROC			; CNumEdit::~CNumEdit
EXTRN	??0CNumSpinCtrl@@QAE@XZ:PROC			; CNumSpinCtrl::CNumSpinCtrl
EXTRN	??1CNumSpinCtrl@@UAE@XZ:PROC			; CNumSpinCtrl::~CNumSpinCtrl
EXTRN	??0CBitmapItemComboBox@@QAE@XZ:PROC		; CBitmapItemComboBox::CBitmapItemComboBox
EXTRN	??1CBitmapItemComboBox@@UAE@XZ:PROC		; CBitmapItemComboBox::~CBitmapItemComboBox
EXTRN	??0CBaseDialog@@QAE@IPAVCWnd@@PAUIChartOCX135914@@0@Z:PROC ; CBaseDialog::CBaseDialog
EXTRN	??1CBaseDialog@@UAE@XZ:PROC			; CBaseDialog::~CBaseDialog
EXTRN	?SetTitle@CBaseDialog@@UAEXHABV?$CStringT@DV?$StrTraitMFC_DLL@DV?$ChTraitsCRT@D@ATL@@@@@ATL@@@Z:PROC ; CBaseDialog::SetTitle
EXTRN	?DoCalculate@CBaseDialog@@UAE_NXZ:PROC		; CBaseDialog::DoCalculate
EXTRN	?Initial_Spin@CBaseDialog@@IAEXAAVCNumSpinCtrl@@AAVCNumEdit@@N@Z:PROC ; CBaseDialog::Initial_Spin
EXTRN	?Initial_DrawStyleComboBox@CBaseDialog@@IAEXHAAVCBitmapItemComboBox@@@Z:PROC ; CBaseDialog::Initial_DrawStyleComboBox
EXTRN	?OnApply_DrawStyle@CBaseDialog@@IAEXHAAVCBitmapItemComboBox@@@Z:PROC ; CBaseDialog::OnApply_DrawStyle
EXTRN	??0CColorButton@@QAE@XZ:PROC			; CColorButton::CColorButton
EXTRN	??1CColorButton@@UAE@XZ:PROC			; CColorButton::~CColorButton
EXTRN	?GetColor@CColorButton@@QAEKXZ:PROC		; CColorButton::GetColor
EXTRN	?SetColor@CColorButton@@QAEXABK@Z:PROC		; CColorButton::SetColor
EXTRN	??_ECSetting_Special_Type_E@@UAEPAXI@Z:PROC	; CSetting_Special_Type_E::`vector deleting destructor'
EXTRN	@__security_check_cookie@4:PROC
EXTRN	___CxxFrameHandler3:PROC
EXTRN	??_7type_info@@6B@:QWORD			; type_info::`vftable'
EXTRN	?g_iMetaTable@@3VIMetaTable@@A:BYTE		; g_iMetaTable
EXTRN	___security_cookie:DWORD
EXTRN	__fltused:DWORD
;	COMDAT __real@3ff0000000000000
CONST	SEGMENT
__real@3ff0000000000000 DQ 03ff0000000000000r	; 1
CONST	ENDS
;	COMDAT ??_R2CBaseDialog@@8
rdata$r	SEGMENT
??_R2CBaseDialog@@8 DD FLAT:??_R1A@?0A@EA@CBaseDialog@@8 ; CBaseDialog::`RTTI Base Class Array'
	DD	FLAT:??_R1A@?0A@EA@CDialog@@8
	DD	FLAT:??_R1A@?0A@EA@CWnd@@8
	DD	FLAT:??_R1A@?0A@EA@CCmdTarget@@8
	DD	FLAT:??_R1A@?0A@EA@CObject@@8
rdata$r	ENDS
;	COMDAT ??_R3CBaseDialog@@8
rdata$r	SEGMENT
??_R3CBaseDialog@@8 DD 00H				; CBaseDialog::`RTTI Class Hierarchy Descriptor'
	DD	00H
	DD	05H
	DD	FLAT:??_R2CBaseDialog@@8
rdata$r	ENDS
;	COMDAT ??_R0?AVCBaseDialog@@@8
data$rs	SEGMENT
??_R0?AVCBaseDialog@@@8 DD FLAT:??_7type_info@@6B@	; CBaseDialog `RTTI Type Descriptor'
	DD	00H
	DB	'.?AVCBaseDialog@@', 00H
data$rs	ENDS
;	COMDAT ??_R1A@?0A@EA@CBaseDialog@@8
rdata$r	SEGMENT
??_R1A@?0A@EA@CBaseDialog@@8 DD FLAT:??_R0?AVCBaseDialog@@@8 ; CBaseDialog::`RTTI Base Class Descriptor at (0,-1,0,64)'
	DD	04H
	DD	00H
	DD	0ffffffffH
	DD	00H
	DD	040H
	DD	FLAT:??_R3CBaseDialog@@8
rdata$r	ENDS
;	COMDAT ??_R1A@?0A@EA@CSetting_Special_Type_E@@8
rdata$r	SEGMENT
??_R1A@?0A@EA@CSetting_Special_Type_E@@8 DD FLAT:??_R0?AVCSetting_Special_Type_E@@@8 ; CSetting_Special_Type_E::`RTTI Base Class Descriptor at (0,-1,0,64)'
	DD	05H
	DD	00H
	DD	0ffffffffH
	DD	00H
	DD	040H
	DD	FLAT:??_R3CSetting_Special_Type_E@@8
rdata$r	ENDS
;	COMDAT ??_R2CSetting_Special_Type_E@@8
rdata$r	SEGMENT
??_R2CSetting_Special_Type_E@@8 DD FLAT:??_R1A@?0A@EA@CSetting_Special_Type_E@@8 ; CSetting_Special_Type_E::`RTTI Base Class Array'
	DD	FLAT:??_R1A@?0A@EA@CBaseDialog@@8
	DD	FLAT:??_R1A@?0A@EA@CDialog@@8
	DD	FLAT:??_R1A@?0A@EA@CWnd@@8
	DD	FLAT:??_R1A@?0A@EA@CCmdTarget@@8
	DD	FLAT:??_R1A@?0A@EA@CObject@@8
rdata$r	ENDS
;	COMDAT ??_R3CSetting_Special_Type_E@@8
rdata$r	SEGMENT
??_R3CSetting_Special_Type_E@@8 DD 00H			; CSetting_Special_Type_E::`RTTI Class Hierarchy Descriptor'
	DD	00H
	DD	06H
	DD	FLAT:??_R2CSetting_Special_Type_E@@8
rdata$r	ENDS
;	COMDAT ??_R0?AVCSetting_Special_Type_E@@@8
data$rs	SEGMENT
??_R0?AVCSetting_Special_Type_E@@@8 DD FLAT:??_7type_info@@6B@ ; CSetting_Special_Type_E `RTTI Type Descriptor'
	DD	00H
	DB	'.?AVCSetting_Special_Type_E@@', 00H
data$rs	ENDS
;	COMDAT ??_R4CSetting_Special_Type_E@@6B@
rdata$r	SEGMENT
??_R4CSetting_Special_Type_E@@6B@ DD 00H		; CSetting_Special_Type_E::`RTTI Complete Object Locator'
	DD	00H
	DD	00H
	DD	FLAT:??_R0?AVCSetting_Special_Type_E@@@8
	DD	FLAT:??_R3CSetting_Special_Type_E@@8
rdata$r	ENDS
;	COMDAT ??_C@_07OEKCJGKM@HBPRICE@
CONST	SEGMENT
??_C@_07OEKCJGKM@HBPRICE@ DB 'HBPRICE', 00H		; `string'
CONST	ENDS
;	COMDAT ?messageMap@?1??GetThisMessageMap@CSetting_Special_Type_E@@KGPBUAFX_MSGMAP@@XZ@4U3@B
CONST	SEGMENT
?messageMap@?1??GetThisMessageMap@CSetting_Special_Type_E@@KGPBUAFX_MSGMAP@@XZ@4U3@B DD FLAT:?GetThisMessageMap@CDialog@@KGPBUAFX_MSGMAP@@XZ ; `CSetting_Special_Type_E::GetThisMessageMap'::`2'::messageMap
	DD	FLAT:?_messageEntries@?1??GetThisMessageMap@CSetting_Special_Type_E@@KGPBUAFX_MSGMAP@@XZ@4QBUAFX_MSGMAP_ENTRY@@B
CONST	ENDS
;	COMDAT ?_messageEntries@?1??GetThisMessageMap@CSetting_Special_Type_E@@KGPBUAFX_MSGMAP@@XZ@4QBUAFX_MSGMAP_ENTRY@@B
CONST	SEGMENT
?_messageEntries@?1??GetThisMessageMap@CSetting_Special_Type_E@@KGPBUAFX_MSGMAP@@XZ@4QBUAFX_MSGMAP_ENTRY@@B DD 0111H ; `CSetting_Special_Type_E::GetThisMessageMap'::`2'::_messageEntries
	DD	00H
	DD	01812H
	DD	01812H
	DD	03aH
	DD	FLAT:?OnBtnColor1@CSetting_Special_Type_E@@IAEXXZ
	DD	0111H
	DD	00H
	DD	01813H
	DD	01813H
	DD	03aH
	DD	FLAT:?OnBtnColor2@CSetting_Special_Type_E@@IAEXXZ
	DD	0111H
	DD	00H
	DD	01814H
	DD	01814H
	DD	03aH
	DD	FLAT:?OnBtnColor3@CSetting_Special_Type_E@@IAEXXZ
	DD	0111H
	DD	00H
	DD	01815H
	DD	01815H
	DD	03aH
	DD	FLAT:?OnBtnColor4@CSetting_Special_Type_E@@IAEXXZ
	DD	0111H
	DD	00H
	DD	01816H
	DD	01816H
	DD	03aH
	DD	FLAT:?OnBtnColor5@CSetting_Special_Type_E@@IAEXXZ
	DD	0111H
	DD	00H
	DD	01817H
	DD	01817H
	DD	03aH
	DD	FLAT:?OnBtnColor6@CSetting_Special_Type_E@@IAEXXZ
	DD	0111H
	DD	00H
	DD	01f43H
	DD	01f43H
	DD	03aH
	DD	FLAT:?OnGuganRadio@CSetting_Special_Type_E@@IAEXXZ
	DD	0111H
	DD	00H
	DD	01f44H
	DD	01f44H
	DD	03aH
	DD	FLAT:?OnHogaRadio@CSetting_Special_Type_E@@IAEXXZ
	DD	00H
	DD	00H
	DD	00H
	DD	00H
	DD	00H
	DD	00H
CONST	ENDS
;	COMDAT ??_C@_0BA@ENJOCHIO@LoadResourceDLL@
CONST	SEGMENT
??_C@_0BA@ENJOCHIO@LoadResourceDLL@ DB 'LoadResourceDLL', 00H ; `string'
CONST	ENDS
;	COMDAT ??_7CSetting_Special_Type_E@@6B@
CONST	SEGMENT
??_7CSetting_Special_Type_E@@6B@ DD FLAT:??_R4CSetting_Special_Type_E@@6B@ ; CSetting_Special_Type_E::`vftable'
	DD	FLAT:?GetRuntimeClass@CDialog@@UBEPAUCRuntimeClass@@XZ
	DD	FLAT:??_ECSetting_Special_Type_E@@UAEPAXI@Z
	DD	FLAT:?Serialize@CObject@@UAEXAAVCArchive@@@Z
	DD	FLAT:?AssertValid@CObject@@UBEXXZ
	DD	FLAT:?Dump@CObject@@UBEXAAVCDumpContext@@@Z
	DD	FLAT:?OnCmdMsg@CDialog@@UAEHIHPAXPAUAFX_CMDHANDLERINFO@@@Z
	DD	FLAT:?OnFinalRelease@CWnd@@UAEXXZ
	DD	FLAT:?IsInvokeAllowed@CCmdTarget@@UAEHJ@Z
	DD	FLAT:?GetDispatchIID@CCmdTarget@@UAEHPAU_GUID@@@Z
	DD	FLAT:?GetTypeInfoCount@CCmdTarget@@UAEIXZ
	DD	FLAT:?GetTypeLibCache@CCmdTarget@@UAEPAVCTypeLibCache@@XZ
	DD	FLAT:?GetTypeLib@CCmdTarget@@UAEJKPAPAUITypeLib@@@Z
	DD	FLAT:?GetMessageMap@CSetting_Special_Type_E@@MBEPBUAFX_MSGMAP@@XZ
	DD	FLAT:?GetCommandMap@CCmdTarget@@MBEPBUAFX_OLECMDMAP@@XZ
	DD	FLAT:?GetDispatchMap@CCmdTarget@@MBEPBUAFX_DISPMAP@@XZ
	DD	FLAT:?GetConnectionMap@CCmdTarget@@MBEPBUAFX_CONNECTIONMAP@@XZ
	DD	FLAT:?GetInterfaceMap@CWnd@@MBEPBUAFX_INTERFACEMAP@@XZ
	DD	FLAT:?GetEventSinkMap@CCmdTarget@@MBEPBUAFX_EVENTSINKMAP@@XZ
	DD	FLAT:?OnCreateAggregates@CCmdTarget@@UAEHXZ
	DD	FLAT:?GetInterfaceHook@CCmdTarget@@UAEPAUIUnknown@@PBX@Z
	DD	FLAT:?GetExtraConnectionPoints@CCmdTarget@@MAEHPAVCPtrArray@@@Z
	DD	FLAT:?GetConnectionHook@CCmdTarget@@MAEPAUIConnectionPoint@@ABU_GUID@@@Z
	DD	FLAT:?PreSubclassWindow@CWnd@@UAEXXZ
	DD	FLAT:?Create@CWnd@@UAEHPBD0KABUtagRECT@@PAV1@IPAUCCreateContext@@@Z
	DD	FLAT:?CreateEx@CWnd@@UAEHKPBD0KABUtagRECT@@PAV1@IPAX@Z
	DD	FLAT:?CreateEx@CWnd@@UAEHKPBD0KHHHHPAUHWND__@@PAUHMENU__@@PAX@Z
	DD	FLAT:?DestroyWindow@CWnd@@UAEHXZ
	DD	FLAT:?PreCreateWindow@CWnd@@UAEHAAUtagCREATESTRUCTA@@@Z
	DD	FLAT:?CalcWindowRect@CWnd@@UAEXPAUtagRECT@@I@Z
	DD	FLAT:?GetMenu@CWnd@@UBEPAVCMenu@@XZ
	DD	FLAT:?SetMenu@CWnd@@UAEHPAVCMenu@@@Z
	DD	FLAT:?OnToolHitTest@CWnd@@UBEHVCPoint@@PAUtagTOOLINFOA@@@Z
	DD	FLAT:?GetScrollBarCtrl@CWnd@@UBEPAVCScrollBar@@H@Z
	DD	FLAT:?WinHelpA@CWnd@@UAEXKI@Z
	DD	FLAT:?HtmlHelpA@CWnd@@UAEXKI@Z
	DD	FLAT:?WinHelpInternal@CWnd@@UAEXKI@Z
	DD	FLAT:?ContinueModal@CWnd@@UAEHXZ
	DD	FLAT:?EndModalLoop@CWnd@@UAEXH@Z
	DD	FLAT:?OnDrawIconicThumbnailOrLivePreview@CWnd@@UAEXAAVCDC@@VCRect@@VCSize@@HAAH@Z
	DD	FLAT:?EnsureStdObj@CWnd@@UAEJXZ
	DD	FLAT:?get_accParent@CWnd@@UAEJPAPAUIDispatch@@@Z
	DD	FLAT:?get_accChildCount@CWnd@@UAEJPAJ@Z
	DD	FLAT:?get_accChild@CWnd@@UAEJUtagVARIANT@@PAPAUIDispatch@@@Z
	DD	FLAT:?get_accName@CWnd@@UAEJUtagVARIANT@@PAPA_W@Z
	DD	FLAT:?get_accValue@CWnd@@UAEJUtagVARIANT@@PAPA_W@Z
	DD	FLAT:?get_accDescription@CWnd@@UAEJUtagVARIANT@@PAPA_W@Z
	DD	FLAT:?get_accRole@CWnd@@UAEJUtagVARIANT@@PAU2@@Z
	DD	FLAT:?get_accState@CWnd@@UAEJUtagVARIANT@@PAU2@@Z
	DD	FLAT:?get_accHelp@CWnd@@UAEJUtagVARIANT@@PAPA_W@Z
	DD	FLAT:?get_accHelpTopic@CWnd@@UAEJPAPA_WUtagVARIANT@@PAJ@Z
	DD	FLAT:?get_accKeyboardShortcut@CWnd@@UAEJUtagVARIANT@@PAPA_W@Z
	DD	FLAT:?get_accFocus@CWnd@@UAEJPAUtagVARIANT@@@Z
	DD	FLAT:?get_accSelection@CWnd@@UAEJPAUtagVARIANT@@@Z
	DD	FLAT:?get_accDefaultAction@CWnd@@UAEJUtagVARIANT@@PAPA_W@Z
	DD	FLAT:?accSelect@CWnd@@UAEJJUtagVARIANT@@@Z
	DD	FLAT:?accLocation@CWnd@@UAEJPAJ000UtagVARIANT@@@Z
	DD	FLAT:?accNavigate@CWnd@@UAEJJUtagVARIANT@@PAU2@@Z
	DD	FLAT:?accHitTest@CWnd@@UAEJJJPAUtagVARIANT@@@Z
	DD	FLAT:?accDoDefaultAction@CWnd@@UAEJUtagVARIANT@@@Z
	DD	FLAT:?put_accName@CWnd@@UAEJUtagVARIANT@@PA_W@Z
	DD	FLAT:?put_accValue@CWnd@@UAEJUtagVARIANT@@PA_W@Z
	DD	FLAT:?SetProxy@CWnd@@UAEJPAUIAccessibleProxy@@@Z
	DD	FLAT:?CreateAccessibleProxy@CWnd@@UAEJIJPAJ@Z
	DD	FLAT:?OnCommand@CWnd@@MAEHIJ@Z
	DD	FLAT:?OnNotify@CWnd@@MAEHIJPAJ@Z
	DD	FLAT:?GetSuperWndProcAddr@CWnd@@MAEPAP6GJPAUHWND__@@IIJ@ZXZ
	DD	FLAT:?DoDataExchange@CSetting_Special_Type_E@@MAEXPAVCDataExchange@@@Z
	DD	FLAT:?BeginModalState@CWnd@@UAEXXZ
	DD	FLAT:?EndModalState@CWnd@@UAEXXZ
	DD	FLAT:?PreTranslateMessage@CSetting_Special_Type_E@@UAEHPAUtagMSG@@@Z
	DD	FLAT:?OnAmbientProperty@CWnd@@UAEHPAVCOleControlSite@@JPAUtagVARIANT@@@Z
	DD	FLAT:?WindowProc@CWnd@@MAEJIIJ@Z
	DD	FLAT:?OnWndMsg@CWnd@@MAEHIIJPAJ@Z
	DD	FLAT:?DefWindowProcA@CWnd@@MAEJIIJ@Z
	DD	FLAT:?PostNcDestroy@CWnd@@MAEXXZ
	DD	FLAT:?OnChildNotify@CWnd@@MAEHIIJPAJ@Z
	DD	FLAT:?OnTouchInputs@CWnd@@MAEHIPAUtagTOUCHINPUT@@@Z
	DD	FLAT:?OnTouchInput@CWnd@@MAEHVCPoint@@HHPAUtagTOUCHINPUT@@@Z
	DD	FLAT:?GetGestureStatus@CWnd@@MAEKVCPoint@@@Z
	DD	FLAT:?OnGestureZoom@CWnd@@MAEHVCPoint@@J@Z
	DD	FLAT:?OnGesturePan@CWnd@@MAEHVCPoint@@0@Z
	DD	FLAT:?OnGestureRotate@CWnd@@MAEHVCPoint@@N@Z
	DD	FLAT:?OnGestureTwoFingerTap@CWnd@@MAEHVCPoint@@@Z
	DD	FLAT:?OnGesturePressAndTap@CWnd@@MAEHVCPoint@@J@Z
	DD	FLAT:?ResizeDynamicLayout@CWnd@@MAEXXZ
	DD	FLAT:?CheckAutoCenter@CDialog@@UAEHXZ
	DD	FLAT:?IsFrameWnd@CWnd@@UBEHXZ
	DD	FLAT:?CreateControlContainer@CWnd@@MAEHPAPAVCOleControlContainer@@@Z
	DD	FLAT:?CreateControlSite@CWnd@@MAEHPAVCOleControlContainer@@PAPAVCOleControlSite@@IABU_GUID@@@Z
	DD	FLAT:?SetOccDialogInfo@CDialog@@MAEHPAU_AFX_OCC_DIALOG_INFO@@@Z
	DD	FLAT:?GetOccDialogInfo@CDialog@@MAEPAU_AFX_OCC_DIALOG_INFO@@XZ
	DD	FLAT:?Create@CDialog@@UAEHIPAVCWnd@@@Z
	DD	FLAT:?Create@CDialog@@UAEHPBDPAVCWnd@@@Z
	DD	FLAT:?CreateIndirect@CDialog@@UAEHPAXPAVCWnd@@@Z
	DD	FLAT:?CreateIndirect@CDialog@@UAEHPBUDLGTEMPLATE@@PAVCWnd@@PAX@Z
	DD	FLAT:?DoModal@CDialog@@UAEHXZ
	DD	FLAT:?OnInitDialog@CSetting_Special_Type_E@@MAEHXZ
	DD	FLAT:?OnSetFont@CDialog@@UAEXPAVCFont@@@Z
	DD	FLAT:?OnOK@CDialog@@MAEXXZ
	DD	FLAT:?OnCancel@CDialog@@MAEXXZ
	DD	FLAT:?PreInitDialog@CDialog@@MAEXXZ
	DD	FLAT:?Initial@CSetting_Special_Type_E@@UAEXPAUIGraphInfo135914@@@Z
	DD	FLAT:?OnApply@CSetting_Special_Type_E@@UAEHPAUIGraphInfo135914@@@Z
	DD	FLAT:?SetTitle@CBaseDialog@@UAEXHABV?$CStringT@DV?$StrTraitMFC_DLL@DV?$ChTraitsCRT@D@ATL@@@@@ATL@@@Z
	DD	FLAT:?DoCalculate@CBaseDialog@@UAE_NXZ
CONST	ENDS
;	COMDAT ??_R2CDialog@@8
rdata$r	SEGMENT
??_R2CDialog@@8 DD FLAT:??_R1A@?0A@EA@CDialog@@8	; CDialog::`RTTI Base Class Array'
	DD	FLAT:??_R1A@?0A@EA@CWnd@@8
	DD	FLAT:??_R1A@?0A@EA@CCmdTarget@@8
	DD	FLAT:??_R1A@?0A@EA@CObject@@8
rdata$r	ENDS
;	COMDAT ??_R3CDialog@@8
rdata$r	SEGMENT
??_R3CDialog@@8 DD 00H					; CDialog::`RTTI Class Hierarchy Descriptor'
	DD	00H
	DD	04H
	DD	FLAT:??_R2CDialog@@8
rdata$r	ENDS
;	COMDAT ??_R0?AVCDialog@@@8
data$rs	SEGMENT
??_R0?AVCDialog@@@8 DD FLAT:??_7type_info@@6B@		; CDialog `RTTI Type Descriptor'
	DD	00H
	DB	'.?AVCDialog@@', 00H
data$rs	ENDS
;	COMDAT ??_R1A@?0A@EA@CDialog@@8
rdata$r	SEGMENT
??_R1A@?0A@EA@CDialog@@8 DD FLAT:??_R0?AVCDialog@@@8	; CDialog::`RTTI Base Class Descriptor at (0,-1,0,64)'
	DD	03H
	DD	00H
	DD	0ffffffffH
	DD	00H
	DD	040H
	DD	FLAT:??_R3CDialog@@8
rdata$r	ENDS
;	COMDAT ??_R1A@?0A@EA@CCommonDialog@@8
rdata$r	SEGMENT
??_R1A@?0A@EA@CCommonDialog@@8 DD FLAT:??_R0?AVCCommonDialog@@@8 ; CCommonDialog::`RTTI Base Class Descriptor at (0,-1,0,64)'
	DD	04H
	DD	00H
	DD	0ffffffffH
	DD	00H
	DD	040H
	DD	FLAT:??_R3CCommonDialog@@8
rdata$r	ENDS
;	COMDAT ??_R2CCommonDialog@@8
rdata$r	SEGMENT
??_R2CCommonDialog@@8 DD FLAT:??_R1A@?0A@EA@CCommonDialog@@8 ; CCommonDialog::`RTTI Base Class Array'
	DD	FLAT:??_R1A@?0A@EA@CDialog@@8
	DD	FLAT:??_R1A@?0A@EA@CWnd@@8
	DD	FLAT:??_R1A@?0A@EA@CCmdTarget@@8
	DD	FLAT:??_R1A@?0A@EA@CObject@@8
rdata$r	ENDS
;	COMDAT ??_R3CCommonDialog@@8
rdata$r	SEGMENT
??_R3CCommonDialog@@8 DD 00H				; CCommonDialog::`RTTI Class Hierarchy Descriptor'
	DD	00H
	DD	05H
	DD	FLAT:??_R2CCommonDialog@@8
rdata$r	ENDS
;	COMDAT ??_R0?AVCCommonDialog@@@8
data$rs	SEGMENT
??_R0?AVCCommonDialog@@@8 DD FLAT:??_7type_info@@6B@	; CCommonDialog `RTTI Type Descriptor'
	DD	00H
	DB	'.?AVCCommonDialog@@', 00H
data$rs	ENDS
;	COMDAT ??_R4CCommonDialog@@6B@
rdata$r	SEGMENT
??_R4CCommonDialog@@6B@ DD 00H				; CCommonDialog::`RTTI Complete Object Locator'
	DD	00H
	DD	00H
	DD	FLAT:??_R0?AVCCommonDialog@@@8
	DD	FLAT:??_R3CCommonDialog@@8
rdata$r	ENDS
;	COMDAT ??_R2CCmdTarget@@8
rdata$r	SEGMENT
??_R2CCmdTarget@@8 DD FLAT:??_R1A@?0A@EA@CCmdTarget@@8	; CCmdTarget::`RTTI Base Class Array'
	DD	FLAT:??_R1A@?0A@EA@CObject@@8
rdata$r	ENDS
;	COMDAT ??_R3CCmdTarget@@8
rdata$r	SEGMENT
??_R3CCmdTarget@@8 DD 00H				; CCmdTarget::`RTTI Class Hierarchy Descriptor'
	DD	00H
	DD	02H
	DD	FLAT:??_R2CCmdTarget@@8
rdata$r	ENDS
;	COMDAT ??_R0?AVCCmdTarget@@@8
data$rs	SEGMENT
??_R0?AVCCmdTarget@@@8 DD FLAT:??_7type_info@@6B@	; CCmdTarget `RTTI Type Descriptor'
	DD	00H
	DB	'.?AVCCmdTarget@@', 00H
data$rs	ENDS
;	COMDAT ??_R1A@?0A@EA@CCmdTarget@@8
rdata$r	SEGMENT
??_R1A@?0A@EA@CCmdTarget@@8 DD FLAT:??_R0?AVCCmdTarget@@@8 ; CCmdTarget::`RTTI Base Class Descriptor at (0,-1,0,64)'
	DD	01H
	DD	00H
	DD	0ffffffffH
	DD	00H
	DD	040H
	DD	FLAT:??_R3CCmdTarget@@8
rdata$r	ENDS
;	COMDAT ??_R2CWnd@@8
rdata$r	SEGMENT
??_R2CWnd@@8 DD	FLAT:??_R1A@?0A@EA@CWnd@@8		; CWnd::`RTTI Base Class Array'
	DD	FLAT:??_R1A@?0A@EA@CCmdTarget@@8
	DD	FLAT:??_R1A@?0A@EA@CObject@@8
rdata$r	ENDS
;	COMDAT ??_R3CWnd@@8
rdata$r	SEGMENT
??_R3CWnd@@8 DD	00H					; CWnd::`RTTI Class Hierarchy Descriptor'
	DD	00H
	DD	03H
	DD	FLAT:??_R2CWnd@@8
rdata$r	ENDS
;	COMDAT ??_R0?AVCWnd@@@8
data$rs	SEGMENT
??_R0?AVCWnd@@@8 DD FLAT:??_7type_info@@6B@		; CWnd `RTTI Type Descriptor'
	DD	00H
	DB	'.?AVCWnd@@', 00H
data$rs	ENDS
;	COMDAT ??_R1A@?0A@EA@CWnd@@8
rdata$r	SEGMENT
??_R1A@?0A@EA@CWnd@@8 DD FLAT:??_R0?AVCWnd@@@8		; CWnd::`RTTI Base Class Descriptor at (0,-1,0,64)'
	DD	02H
	DD	00H
	DD	0ffffffffH
	DD	00H
	DD	040H
	DD	FLAT:??_R3CWnd@@8
rdata$r	ENDS
;	COMDAT ??_R1A@?0A@EA@CObject@@8
rdata$r	SEGMENT
??_R1A@?0A@EA@CObject@@8 DD FLAT:??_R0?AVCObject@@@8	; CObject::`RTTI Base Class Descriptor at (0,-1,0,64)'
	DD	00H
	DD	00H
	DD	0ffffffffH
	DD	00H
	DD	040H
	DD	FLAT:??_R3CObject@@8
rdata$r	ENDS
;	COMDAT ??_R2CObject@@8
rdata$r	SEGMENT
??_R2CObject@@8 DD FLAT:??_R1A@?0A@EA@CObject@@8	; CObject::`RTTI Base Class Array'
rdata$r	ENDS
;	COMDAT ??_R3CObject@@8
rdata$r	SEGMENT
??_R3CObject@@8 DD 00H					; CObject::`RTTI Class Hierarchy Descriptor'
	DD	00H
	DD	01H
	DD	FLAT:??_R2CObject@@8
rdata$r	ENDS
;	COMDAT ??_R0?AVCObject@@@8
data$rs	SEGMENT
??_R0?AVCObject@@@8 DD FLAT:??_7type_info@@6B@		; CObject `RTTI Type Descriptor'
	DD	00H
	DB	'.?AVCObject@@', 00H
data$rs	ENDS
;	COMDAT ??_7CCommonDialog@@6B@
CONST	SEGMENT
??_7CCommonDialog@@6B@ DD FLAT:??_R4CCommonDialog@@6B@	; CCommonDialog::`vftable'
	DD	FLAT:?GetRuntimeClass@CCommonDialog@@UBEPAUCRuntimeClass@@XZ
	DD	FLAT:??_ECCommonDialog@@UAEPAXI@Z
	DD	FLAT:?Serialize@CObject@@UAEXAAVCArchive@@@Z
	DD	FLAT:?AssertValid@CObject@@UBEXXZ
	DD	FLAT:?Dump@CObject@@UBEXAAVCDumpContext@@@Z
	DD	FLAT:?OnCmdMsg@CDialog@@UAEHIHPAXPAUAFX_CMDHANDLERINFO@@@Z
	DD	FLAT:?OnFinalRelease@CWnd@@UAEXXZ
	DD	FLAT:?IsInvokeAllowed@CCmdTarget@@UAEHJ@Z
	DD	FLAT:?GetDispatchIID@CCmdTarget@@UAEHPAU_GUID@@@Z
	DD	FLAT:?GetTypeInfoCount@CCmdTarget@@UAEIXZ
	DD	FLAT:?GetTypeLibCache@CCmdTarget@@UAEPAVCTypeLibCache@@XZ
	DD	FLAT:?GetTypeLib@CCmdTarget@@UAEJKPAPAUITypeLib@@@Z
	DD	FLAT:?GetMessageMap@CCommonDialog@@MBEPBUAFX_MSGMAP@@XZ
	DD	FLAT:?GetCommandMap@CCmdTarget@@MBEPBUAFX_OLECMDMAP@@XZ
	DD	FLAT:?GetDispatchMap@CCmdTarget@@MBEPBUAFX_DISPMAP@@XZ
	DD	FLAT:?GetConnectionMap@CCmdTarget@@MBEPBUAFX_CONNECTIONMAP@@XZ
	DD	FLAT:?GetInterfaceMap@CWnd@@MBEPBUAFX_INTERFACEMAP@@XZ
	DD	FLAT:?GetEventSinkMap@CCmdTarget@@MBEPBUAFX_EVENTSINKMAP@@XZ
	DD	FLAT:?OnCreateAggregates@CCmdTarget@@UAEHXZ
	DD	FLAT:?GetInterfaceHook@CCmdTarget@@UAEPAUIUnknown@@PBX@Z
	DD	FLAT:?GetExtraConnectionPoints@CCmdTarget@@MAEHPAVCPtrArray@@@Z
	DD	FLAT:?GetConnectionHook@CCmdTarget@@MAEPAUIConnectionPoint@@ABU_GUID@@@Z
	DD	FLAT:?PreSubclassWindow@CWnd@@UAEXXZ
	DD	FLAT:?Create@CWnd@@UAEHPBD0KABUtagRECT@@PAV1@IPAUCCreateContext@@@Z
	DD	FLAT:?CreateEx@CWnd@@UAEHKPBD0KABUtagRECT@@PAV1@IPAX@Z
	DD	FLAT:?CreateEx@CWnd@@UAEHKPBD0KHHHHPAUHWND__@@PAUHMENU__@@PAX@Z
	DD	FLAT:?DestroyWindow@CWnd@@UAEHXZ
	DD	FLAT:?PreCreateWindow@CWnd@@UAEHAAUtagCREATESTRUCTA@@@Z
	DD	FLAT:?CalcWindowRect@CWnd@@UAEXPAUtagRECT@@I@Z
	DD	FLAT:?GetMenu@CWnd@@UBEPAVCMenu@@XZ
	DD	FLAT:?SetMenu@CWnd@@UAEHPAVCMenu@@@Z
	DD	FLAT:?OnToolHitTest@CWnd@@UBEHVCPoint@@PAUtagTOOLINFOA@@@Z
	DD	FLAT:?GetScrollBarCtrl@CWnd@@UBEPAVCScrollBar@@H@Z
	DD	FLAT:?WinHelpA@CWnd@@UAEXKI@Z
	DD	FLAT:?HtmlHelpA@CWnd@@UAEXKI@Z
	DD	FLAT:?WinHelpInternal@CWnd@@UAEXKI@Z
	DD	FLAT:?ContinueModal@CWnd@@UAEHXZ
	DD	FLAT:?EndModalLoop@CWnd@@UAEXH@Z
	DD	FLAT:?OnDrawIconicThumbnailOrLivePreview@CWnd@@UAEXAAVCDC@@VCRect@@VCSize@@HAAH@Z
	DD	FLAT:?EnsureStdObj@CWnd@@UAEJXZ
	DD	FLAT:?get_accParent@CWnd@@UAEJPAPAUIDispatch@@@Z
	DD	FLAT:?get_accChildCount@CWnd@@UAEJPAJ@Z
	DD	FLAT:?get_accChild@CWnd@@UAEJUtagVARIANT@@PAPAUIDispatch@@@Z
	DD	FLAT:?get_accName@CWnd@@UAEJUtagVARIANT@@PAPA_W@Z
	DD	FLAT:?get_accValue@CWnd@@UAEJUtagVARIANT@@PAPA_W@Z
	DD	FLAT:?get_accDescription@CWnd@@UAEJUtagVARIANT@@PAPA_W@Z
	DD	FLAT:?get_accRole@CWnd@@UAEJUtagVARIANT@@PAU2@@Z
	DD	FLAT:?get_accState@CWnd@@UAEJUtagVARIANT@@PAU2@@Z
	DD	FLAT:?get_accHelp@CWnd@@UAEJUtagVARIANT@@PAPA_W@Z
	DD	FLAT:?get_accHelpTopic@CWnd@@UAEJPAPA_WUtagVARIANT@@PAJ@Z
	DD	FLAT:?get_accKeyboardShortcut@CWnd@@UAEJUtagVARIANT@@PAPA_W@Z
	DD	FLAT:?get_accFocus@CWnd@@UAEJPAUtagVARIANT@@@Z
	DD	FLAT:?get_accSelection@CWnd@@UAEJPAUtagVARIANT@@@Z
	DD	FLAT:?get_accDefaultAction@CWnd@@UAEJUtagVARIANT@@PAPA_W@Z
	DD	FLAT:?accSelect@CWnd@@UAEJJUtagVARIANT@@@Z
	DD	FLAT:?accLocation@CWnd@@UAEJPAJ000UtagVARIANT@@@Z
	DD	FLAT:?accNavigate@CWnd@@UAEJJUtagVARIANT@@PAU2@@Z
	DD	FLAT:?accHitTest@CWnd@@UAEJJJPAUtagVARIANT@@@Z
	DD	FLAT:?accDoDefaultAction@CWnd@@UAEJUtagVARIANT@@@Z
	DD	FLAT:?put_accName@CWnd@@UAEJUtagVARIANT@@PA_W@Z
	DD	FLAT:?put_accValue@CWnd@@UAEJUtagVARIANT@@PA_W@Z
	DD	FLAT:?SetProxy@CWnd@@UAEJPAUIAccessibleProxy@@@Z
	DD	FLAT:?CreateAccessibleProxy@CWnd@@UAEJIJPAJ@Z
	DD	FLAT:?OnCommand@CWnd@@MAEHIJ@Z
	DD	FLAT:?OnNotify@CWnd@@MAEHIJPAJ@Z
	DD	FLAT:?GetSuperWndProcAddr@CWnd@@MAEPAP6GJPAUHWND__@@IIJ@ZXZ
	DD	FLAT:?DoDataExchange@CWnd@@MAEXPAVCDataExchange@@@Z
	DD	FLAT:?BeginModalState@CWnd@@UAEXXZ
	DD	FLAT:?EndModalState@CWnd@@UAEXXZ
	DD	FLAT:?PreTranslateMessage@CDialog@@UAEHPAUtagMSG@@@Z
	DD	FLAT:?OnAmbientProperty@CWnd@@UAEHPAVCOleControlSite@@JPAUtagVARIANT@@@Z
	DD	FLAT:?WindowProc@CWnd@@MAEJIIJ@Z
	DD	FLAT:?OnWndMsg@CWnd@@MAEHIIJPAJ@Z
	DD	FLAT:?DefWindowProcA@CWnd@@MAEJIIJ@Z
	DD	FLAT:?PostNcDestroy@CWnd@@MAEXXZ
	DD	FLAT:?OnChildNotify@CWnd@@MAEHIIJPAJ@Z
	DD	FLAT:?OnTouchInputs@CWnd@@MAEHIPAUtagTOUCHINPUT@@@Z
	DD	FLAT:?OnTouchInput@CWnd@@MAEHVCPoint@@HHPAUtagTOUCHINPUT@@@Z
	DD	FLAT:?GetGestureStatus@CWnd@@MAEKVCPoint@@@Z
	DD	FLAT:?OnGestureZoom@CWnd@@MAEHVCPoint@@J@Z
	DD	FLAT:?OnGesturePan@CWnd@@MAEHVCPoint@@0@Z
	DD	FLAT:?OnGestureRotate@CWnd@@MAEHVCPoint@@N@Z
	DD	FLAT:?OnGestureTwoFingerTap@CWnd@@MAEHVCPoint@@@Z
	DD	FLAT:?OnGesturePressAndTap@CWnd@@MAEHVCPoint@@J@Z
	DD	FLAT:?ResizeDynamicLayout@CWnd@@MAEXXZ
	DD	FLAT:?CheckAutoCenter@CDialog@@UAEHXZ
	DD	FLAT:?IsFrameWnd@CWnd@@UBEHXZ
	DD	FLAT:?CreateControlContainer@CWnd@@MAEHPAPAVCOleControlContainer@@@Z
	DD	FLAT:?CreateControlSite@CWnd@@MAEHPAVCOleControlContainer@@PAPAVCOleControlSite@@IABU_GUID@@@Z
	DD	FLAT:?SetOccDialogInfo@CDialog@@MAEHPAU_AFX_OCC_DIALOG_INFO@@@Z
	DD	FLAT:?GetOccDialogInfo@CDialog@@MAEPAU_AFX_OCC_DIALOG_INFO@@XZ
	DD	FLAT:?Create@CDialog@@UAEHIPAVCWnd@@@Z
	DD	FLAT:?Create@CDialog@@UAEHPBDPAVCWnd@@@Z
	DD	FLAT:?CreateIndirect@CDialog@@UAEHPAXPAVCWnd@@@Z
	DD	FLAT:?CreateIndirect@CDialog@@UAEHPBUDLGTEMPLATE@@PAVCWnd@@PAX@Z
	DD	FLAT:?DoModal@CDialog@@UAEHXZ
	DD	FLAT:?OnInitDialog@CDialog@@UAEHXZ
	DD	FLAT:?OnSetFont@CDialog@@UAEXPAVCFont@@@Z
	DD	FLAT:?OnOK@CCommonDialog@@MAEXXZ
	DD	FLAT:?OnCancel@CCommonDialog@@MAEXXZ
	DD	FLAT:?PreInitDialog@CDialog@@MAEXXZ
CONST	ENDS
;	COMDAT xdata$x
xdata$x	SEGMENT
__ehfuncinfo$??1CMultiLanguageResourceSetter@@QAE@XZ DD 019930522H
	DD	00H
	DD	00H
	DD	2 DUP(00H)
	DD	2 DUP(00H)
	DD	00H
	DD	05H
xdata$x	ENDS
;	COMDAT xdata$x
xdata$x	SEGMENT
__unwindtable$?OnHogaRadio@CSetting_Special_Type_E@@IAEXXZ DD 0ffffffffH
	DD	FLAT:__unwindfunclet$?OnHogaRadio@CSetting_Special_Type_E@@IAEXXZ$0
	DD	00H
	DD	FLAT:__unwindfunclet$?OnHogaRadio@CSetting_Special_Type_E@@IAEXXZ$1
	DD	01H
	DD	FLAT:__unwindfunclet$?OnHogaRadio@CSetting_Special_Type_E@@IAEXXZ$2
	DD	0ffffffffH
	DD	FLAT:___std_terminate
__ehfuncinfo$?OnHogaRadio@CSetting_Special_Type_E@@IAEXXZ DD 019930522H
	DD	04H
	DD	FLAT:__unwindtable$?OnHogaRadio@CSetting_Special_Type_E@@IAEXXZ
	DD	2 DUP(00H)
	DD	2 DUP(00H)
	DD	00H
	DD	01H
xdata$x	ENDS
;	COMDAT xdata$x
xdata$x	SEGMENT
__unwindtable$?OnGuganRadio@CSetting_Special_Type_E@@IAEXXZ DD 0ffffffffH
	DD	FLAT:__unwindfunclet$?OnGuganRadio@CSetting_Special_Type_E@@IAEXXZ$0
	DD	00H
	DD	FLAT:__unwindfunclet$?OnGuganRadio@CSetting_Special_Type_E@@IAEXXZ$1
	DD	01H
	DD	FLAT:__unwindfunclet$?OnGuganRadio@CSetting_Special_Type_E@@IAEXXZ$2
	DD	0ffffffffH
	DD	FLAT:___std_terminate
__ehfuncinfo$?OnGuganRadio@CSetting_Special_Type_E@@IAEXXZ DD 019930522H
	DD	04H
	DD	FLAT:__unwindtable$?OnGuganRadio@CSetting_Special_Type_E@@IAEXXZ
	DD	2 DUP(00H)
	DD	2 DUP(00H)
	DD	00H
	DD	01H
xdata$x	ENDS
;	COMDAT xdata$x
xdata$x	SEGMENT
__unwindtable$?OnBtnColor6@CSetting_Special_Type_E@@IAEXXZ DD 0ffffffffH
	DD	FLAT:__unwindfunclet$?OnBtnColor6@CSetting_Special_Type_E@@IAEXXZ$0
__ehfuncinfo$?OnBtnColor6@CSetting_Special_Type_E@@IAEXXZ DD 019930522H
	DD	01H
	DD	FLAT:__unwindtable$?OnBtnColor6@CSetting_Special_Type_E@@IAEXXZ
	DD	2 DUP(00H)
	DD	2 DUP(00H)
	DD	00H
	DD	01H
xdata$x	ENDS
;	COMDAT xdata$x
xdata$x	SEGMENT
__unwindtable$?OnBtnColor5@CSetting_Special_Type_E@@IAEXXZ DD 0ffffffffH
	DD	FLAT:__unwindfunclet$?OnBtnColor5@CSetting_Special_Type_E@@IAEXXZ$0
__ehfuncinfo$?OnBtnColor5@CSetting_Special_Type_E@@IAEXXZ DD 019930522H
	DD	01H
	DD	FLAT:__unwindtable$?OnBtnColor5@CSetting_Special_Type_E@@IAEXXZ
	DD	2 DUP(00H)
	DD	2 DUP(00H)
	DD	00H
	DD	01H
xdata$x	ENDS
;	COMDAT xdata$x
xdata$x	SEGMENT
__unwindtable$?OnBtnColor4@CSetting_Special_Type_E@@IAEXXZ DD 0ffffffffH
	DD	FLAT:__unwindfunclet$?OnBtnColor4@CSetting_Special_Type_E@@IAEXXZ$0
__ehfuncinfo$?OnBtnColor4@CSetting_Special_Type_E@@IAEXXZ DD 019930522H
	DD	01H
	DD	FLAT:__unwindtable$?OnBtnColor4@CSetting_Special_Type_E@@IAEXXZ
	DD	2 DUP(00H)
	DD	2 DUP(00H)
	DD	00H
	DD	01H
xdata$x	ENDS
;	COMDAT xdata$x
xdata$x	SEGMENT
__unwindtable$?OnBtnColor3@CSetting_Special_Type_E@@IAEXXZ DD 0ffffffffH
	DD	FLAT:__unwindfunclet$?OnBtnColor3@CSetting_Special_Type_E@@IAEXXZ$0
__ehfuncinfo$?OnBtnColor3@CSetting_Special_Type_E@@IAEXXZ DD 019930522H
	DD	01H
	DD	FLAT:__unwindtable$?OnBtnColor3@CSetting_Special_Type_E@@IAEXXZ
	DD	2 DUP(00H)
	DD	2 DUP(00H)
	DD	00H
	DD	01H
xdata$x	ENDS
;	COMDAT xdata$x
xdata$x	SEGMENT
__unwindtable$?OnBtnColor2@CSetting_Special_Type_E@@IAEXXZ DD 0ffffffffH
	DD	FLAT:__unwindfunclet$?OnBtnColor2@CSetting_Special_Type_E@@IAEXXZ$0
__ehfuncinfo$?OnBtnColor2@CSetting_Special_Type_E@@IAEXXZ DD 019930522H
	DD	01H
	DD	FLAT:__unwindtable$?OnBtnColor2@CSetting_Special_Type_E@@IAEXXZ
	DD	2 DUP(00H)
	DD	2 DUP(00H)
	DD	00H
	DD	01H
xdata$x	ENDS
;	COMDAT xdata$x
xdata$x	SEGMENT
__unwindtable$?OnBtnColor1@CSetting_Special_Type_E@@IAEXXZ DD 0ffffffffH
	DD	FLAT:__unwindfunclet$?OnBtnColor1@CSetting_Special_Type_E@@IAEXXZ$0
__ehfuncinfo$?OnBtnColor1@CSetting_Special_Type_E@@IAEXXZ DD 019930522H
	DD	01H
	DD	FLAT:__unwindtable$?OnBtnColor1@CSetting_Special_Type_E@@IAEXXZ
	DD	2 DUP(00H)
	DD	2 DUP(00H)
	DD	00H
	DD	01H
xdata$x	ENDS
;	COMDAT xdata$x
xdata$x	SEGMENT
__unwindtable$?OnApply@CSetting_Special_Type_E@@UAEHPAUIGraphInfo135914@@@Z DD 0ffffffffH
	DD	FLAT:__unwindfunclet$?OnApply@CSetting_Special_Type_E@@UAEHPAUIGraphInfo135914@@@Z$0
	DD	0ffffffffH
	DD	FLAT:__unwindfunclet$?OnApply@CSetting_Special_Type_E@@UAEHPAUIGraphInfo135914@@@Z$1
	DD	0ffffffffH
	DD	FLAT:___std_terminate
__ehfuncinfo$?OnApply@CSetting_Special_Type_E@@UAEHPAUIGraphInfo135914@@@Z DD 019930522H
	DD	03H
	DD	FLAT:__unwindtable$?OnApply@CSetting_Special_Type_E@@UAEHPAUIGraphInfo135914@@@Z
	DD	2 DUP(00H)
	DD	2 DUP(00H)
	DD	00H
	DD	01H
xdata$x	ENDS
;	COMDAT xdata$x
xdata$x	SEGMENT
__ehfuncinfo$?Initial@CSetting_Special_Type_E@@UAEXPAUIGraphInfo135914@@@Z DD 019930522H
	DD	0eH
	DD	FLAT:__unwindtable$?Initial@CSetting_Special_Type_E@@UAEXPAUIGraphInfo135914@@@Z
	DD	2 DUP(00H)
	DD	2 DUP(00H)
	DD	00H
	DD	01H
__unwindtable$?Initial@CSetting_Special_Type_E@@UAEXPAUIGraphInfo135914@@@Z DD 0ffffffffH
	DD	FLAT:__unwindfunclet$?Initial@CSetting_Special_Type_E@@UAEXPAUIGraphInfo135914@@@Z$0
	DD	00H
	DD	FLAT:__unwindfunclet$?Initial@CSetting_Special_Type_E@@UAEXPAUIGraphInfo135914@@@Z$1
	DD	01H
	DD	FLAT:__unwindfunclet$?Initial@CSetting_Special_Type_E@@UAEXPAUIGraphInfo135914@@@Z$2
	DD	02H
	DD	FLAT:__unwindfunclet$?Initial@CSetting_Special_Type_E@@UAEXPAUIGraphInfo135914@@@Z$3
	DD	03H
	DD	FLAT:__unwindfunclet$?Initial@CSetting_Special_Type_E@@UAEXPAUIGraphInfo135914@@@Z$4
	DD	04H
	DD	FLAT:__unwindfunclet$?Initial@CSetting_Special_Type_E@@UAEXPAUIGraphInfo135914@@@Z$5
	DD	05H
	DD	FLAT:__unwindfunclet$?Initial@CSetting_Special_Type_E@@UAEXPAUIGraphInfo135914@@@Z$6
	DD	01H
	DD	FLAT:__unwindfunclet$?Initial@CSetting_Special_Type_E@@UAEXPAUIGraphInfo135914@@@Z$7
	DD	07H
	DD	FLAT:__unwindfunclet$?Initial@CSetting_Special_Type_E@@UAEXPAUIGraphInfo135914@@@Z$8
	DD	08H
	DD	FLAT:__unwindfunclet$?Initial@CSetting_Special_Type_E@@UAEXPAUIGraphInfo135914@@@Z$9
	DD	09H
	DD	FLAT:__unwindfunclet$?Initial@CSetting_Special_Type_E@@UAEXPAUIGraphInfo135914@@@Z$10
	DD	0aH
	DD	FLAT:__unwindfunclet$?Initial@CSetting_Special_Type_E@@UAEXPAUIGraphInfo135914@@@Z$11
	DD	00H
	DD	FLAT:___std_terminate
	DD	0ffffffffH
	DD	FLAT:___std_terminate
xdata$x	ENDS
;	COMDAT xdata$x
xdata$x	SEGMENT
__ehfuncinfo$??0CSetting_Special_Type_E@@QAE@PAUIChartOCX135914@@PAVCWnd@@1@Z DD 019930522H
	DD	09H
	DD	FLAT:__unwindtable$??0CSetting_Special_Type_E@@QAE@PAUIChartOCX135914@@PAVCWnd@@1@Z
	DD	2 DUP(00H)
	DD	2 DUP(00H)
	DD	00H
	DD	01H
__unwindtable$??0CSetting_Special_Type_E@@QAE@PAUIChartOCX135914@@PAVCWnd@@1@Z DD 0ffffffffH
	DD	FLAT:__unwindfunclet$??0CSetting_Special_Type_E@@QAE@PAUIChartOCX135914@@PAVCWnd@@1@Z$0
	DD	00H
	DD	FLAT:__unwindfunclet$??0CSetting_Special_Type_E@@QAE@PAUIChartOCX135914@@PAVCWnd@@1@Z$1
	DD	01H
	DD	FLAT:__unwindfunclet$??0CSetting_Special_Type_E@@QAE@PAUIChartOCX135914@@PAVCWnd@@1@Z$2
	DD	02H
	DD	FLAT:__unwindfunclet$??0CSetting_Special_Type_E@@QAE@PAUIChartOCX135914@@PAVCWnd@@1@Z$3
	DD	03H
	DD	FLAT:__unwindfunclet$??0CSetting_Special_Type_E@@QAE@PAUIChartOCX135914@@PAVCWnd@@1@Z$4
	DD	04H
	DD	FLAT:__unwindfunclet$??0CSetting_Special_Type_E@@QAE@PAUIChartOCX135914@@PAVCWnd@@1@Z$5
	DD	05H
	DD	FLAT:__unwindfunclet$??0CSetting_Special_Type_E@@QAE@PAUIChartOCX135914@@PAVCWnd@@1@Z$6
	DD	06H
	DD	FLAT:__unwindfunclet$??0CSetting_Special_Type_E@@QAE@PAUIChartOCX135914@@PAVCWnd@@1@Z$7
	DD	07H
	DD	FLAT:__unwindfunclet$??0CSetting_Special_Type_E@@QAE@PAUIChartOCX135914@@PAVCWnd@@1@Z$8
xdata$x	ENDS
;	COMDAT xdata$x
xdata$x	SEGMENT
__ehfuncinfo$??1ILPCSTR135914@@QAE@XZ DD 019930522H
	DD	00H
	DD	00H
	DD	2 DUP(00H)
	DD	2 DUP(00H)
	DD	00H
	DD	05H
xdata$x	ENDS
; Function compile flags: /Ogtp
; File D:\git\src\IBK\IBK_DRFN\ProjSrc\SrcChartEx\ChartAddIn\ChartEnvSetupDlgAddIn\Include_Chart\Dll_Load\IMetaTable.h
; File C:\Program Files (x86)\Microsoft Visual Studio\2019\Community\VC\Tools\MSVC\14.29.30133\atlmfc\include\afxwin1.inl
; File D:\git\src\IBK\IBK_DRFN\ProjSrc\SrcChartEx\ChartAddIn\ChartEnvSetupDlgAddIn\Include_Chart\Dll_Load\IMetaTable.h
;	COMDAT ??1CMultiLanguageResourceSetter@@QAE@XZ
_TEXT	SEGMENT
__$EHRec$ = -12						; size = 12
??1CMultiLanguageResourceSetter@@QAE@XZ PROC		; CMultiLanguageResourceSetter::~CMultiLanguageResourceSetter, COMDAT
; _this$ = ecx

; 1036 : 	{

  00000	55		 push	 ebp
  00001	8b ec		 mov	 ebp, esp
  00003	6a ff		 push	 -1
  00005	68 00 00 00 00	 push	 __ehhandler$??1CMultiLanguageResourceSetter@@QAE@XZ
  0000a	64 a1 00 00 00
	00		 mov	 eax, DWORD PTR fs:0
  00010	50		 push	 eax
  00011	56		 push	 esi
  00012	a1 00 00 00 00	 mov	 eax, DWORD PTR ___security_cookie
  00017	33 c5		 xor	 eax, ebp
  00019	50		 push	 eax
  0001a	8d 45 f4	 lea	 eax, DWORD PTR __$EHRec$[ebp]
  0001d	64 a3 00 00 00
	00		 mov	 DWORD PTR fs:0, eax

; 1037 : 		AfxSetResourceHandle( m_hInstance);

  00023	8b 31		 mov	 esi, DWORD PTR [ecx]
; File C:\Program Files (x86)\Microsoft Visual Studio\2019\Community\VC\Tools\MSVC\14.29.30133\atlmfc\include\afxwin1.inl

; 27   : 	{ ASSERT(hInstResource != NULL); afxCurrentResourceHandle = hInstResource; }

  00025	e8 00 00 00 00	 call	 ?AfxGetModuleState@@YGPAVAFX_MODULE_STATE@@XZ ; AfxGetModuleState
  0002a	89 70 0c	 mov	 DWORD PTR [eax+12], esi
; File D:\git\src\IBK\IBK_DRFN\ProjSrc\SrcChartEx\ChartAddIn\ChartEnvSetupDlgAddIn\Include_Chart\Dll_Load\IMetaTable.h

; 1038 : 	}

  0002d	8b 4d f4	 mov	 ecx, DWORD PTR __$EHRec$[ebp]
  00030	64 89 0d 00 00
	00 00		 mov	 DWORD PTR fs:0, ecx
  00037	59		 pop	 ecx
  00038	5e		 pop	 esi
  00039	8b e5		 mov	 esp, ebp
  0003b	5d		 pop	 ebp
  0003c	c3		 ret	 0
  0003d	cc		 int	 3
  0003e	cc		 int	 3
  0003f	cc		 int	 3
  00040	cc		 int	 3
  00041	cc		 int	 3
_TEXT	ENDS
;	COMDAT text$x
text$x	SEGMENT
__ehhandler$??1CMultiLanguageResourceSetter@@QAE@XZ:
  00000	90		 npad	 1
  00001	90		 npad	 1
  00002	8b 54 24 08	 mov	 edx, DWORD PTR [esp+8]
  00006	8d 42 0c	 lea	 eax, DWORD PTR [edx+12]
  00009	8b 4a f8	 mov	 ecx, DWORD PTR [edx-8]
  0000c	33 c8		 xor	 ecx, eax
  0000e	e8 00 00 00 00	 call	 @__security_check_cookie@4
  00013	b8 00 00 00 00	 mov	 eax, OFFSET __ehfuncinfo$??1CMultiLanguageResourceSetter@@QAE@XZ
  00018	e9 00 00 00 00	 jmp	 ___CxxFrameHandler3
text$x	ENDS
??1CMultiLanguageResourceSetter@@QAE@XZ ENDP		; CMultiLanguageResourceSetter::~CMultiLanguageResourceSetter
; Function compile flags: /Ogtp
; File D:\git\src\IBK\IBK_DRFN\ProjSrc\SrcChartEx\ChartAddIn\ChartEnvSetupDlgAddIn\Include_Chart\Dll_Load\IMetaTable.h
;	COMDAT ?LoadResourceDLL@IMetaTable@@QAEPAUHINSTANCE__@@PAUHWND__@@PAU2@@Z
_TEXT	SEGMENT
_p1$ = 8						; size = 4
_p2$ = 12						; size = 4
?LoadResourceDLL@IMetaTable@@QAEPAUHINSTANCE__@@PAUHWND__@@PAU2@@Z PROC ; IMetaTable::LoadResourceDLL, COMDAT
; _this$ = ecx

; 936  : 	DECLARE_FUNCTION2(	LoadResourceDLL,				HMODULE, AfxGetStaticModuleState()->m_hCurrentInstanceHandle, HWND, HMODULE);

  00000	55		 push	 ebp
  00001	8b ec		 mov	 ebp, esp
  00003	56		 push	 esi
  00004	8b f1		 mov	 esi, ecx
  00006	8b 46 04	 mov	 eax, DWORD PTR [esi+4]
  00009	85 c0		 test	 eax, eax
  0000b	74 4d		 je	 SHORT $LN4@LoadResour
  0000d	57		 push	 edi
  0000e	bf 80 0d 00 00	 mov	 edi, 3456		; 00000d80H
  00013	66 3b be 94 00
	00 00		 cmp	 di, WORD PTR [esi+148]
  0001a	74 23		 je	 SHORT $LN3@LoadResour
  0001c	68 00 00 00 00	 push	 OFFSET ??_C@_0BA@ENJOCHIO@LoadResourceDLL@
  00021	50		 push	 eax
  00022	c7 86 90 00 00
	00 00 00 00 00	 mov	 DWORD PTR [esi+144], 0
  0002c	ff 15 00 00 00
	00		 call	 DWORD PTR __imp__GetProcAddress@8
  00032	89 86 90 00 00
	00		 mov	 DWORD PTR [esi+144], eax
  00038	66 89 be 94 00
	00 00		 mov	 WORD PTR [esi+148], di
$LN3@LoadResour:
  0003f	8b 86 90 00 00
	00		 mov	 eax, DWORD PTR [esi+144]
  00045	5f		 pop	 edi
  00046	85 c0		 test	 eax, eax
  00048	74 10		 je	 SHORT $LN4@LoadResour
  0004a	ff 75 0c	 push	 DWORD PTR _p2$[ebp]
  0004d	ff 75 08	 push	 DWORD PTR _p1$[ebp]
  00050	ff d0		 call	 eax
  00052	83 c4 08	 add	 esp, 8
  00055	5e		 pop	 esi
  00056	5d		 pop	 ebp
  00057	c2 08 00	 ret	 8
$LN4@LoadResour:
  0005a	e8 00 00 00 00	 call	 ?AfxGetStaticModuleState@@YGPAVAFX_MODULE_STATE@@XZ ; AfxGetStaticModuleState
  0005f	5e		 pop	 esi
  00060	8b 40 08	 mov	 eax, DWORD PTR [eax+8]
  00063	5d		 pop	 ebp
  00064	c2 08 00	 ret	 8
?LoadResourceDLL@IMetaTable@@QAEPAUHINSTANCE__@@PAUHWND__@@PAU2@@Z ENDP ; IMetaTable::LoadResourceDLL
_TEXT	ENDS
; Function compile flags: /Ogtp
; File C:\Program Files (x86)\Microsoft Visual Studio\2019\Community\VC\Tools\MSVC\14.29.30133\atlmfc\include\afx.inl
;	COMDAT ??_GCSetting_Special_Type_E@@UAEPAXI@Z
_TEXT	SEGMENT
___flags$ = 8						; size = 4
??_GCSetting_Special_Type_E@@UAEPAXI@Z PROC		; CSetting_Special_Type_E::`scalar deleting destructor', COMDAT
; _this$ = ecx
  00000	55		 push	 ebp
  00001	8b ec		 mov	 ebp, esp
  00003	56		 push	 esi
  00004	8b f1		 mov	 esi, ecx
  00006	8d 8e 38 05 00
	00		 lea	 ecx, DWORD PTR [esi+1336]
  0000c	e8 00 00 00 00	 call	 ??1CNumEdit@@UAE@XZ	; CNumEdit::~CNumEdit
  00011	8d 8e b8 04 00
	00		 lea	 ecx, DWORD PTR [esi+1208]
  00017	e8 00 00 00 00	 call	 ??1CNumSpinCtrl@@UAE@XZ	; CNumSpinCtrl::~CNumSpinCtrl
  0001c	8d 8e 28 04 00
	00		 lea	 ecx, DWORD PTR [esi+1064]
  00022	e8 00 00 00 00	 call	 ??1CBitmapItemComboBox@@UAE@XZ ; CBitmapItemComboBox::~CBitmapItemComboBox
  00027	8d 8e a0 03 00
	00		 lea	 ecx, DWORD PTR [esi+928]
  0002d	e8 00 00 00 00	 call	 ??1CColorButton@@UAE@XZ	; CColorButton::~CColorButton
  00032	8d 8e 18 03 00
	00		 lea	 ecx, DWORD PTR [esi+792]
  00038	e8 00 00 00 00	 call	 ??1CColorButton@@UAE@XZ	; CColorButton::~CColorButton
  0003d	8d 8e 90 02 00
	00		 lea	 ecx, DWORD PTR [esi+656]
  00043	e8 00 00 00 00	 call	 ??1CColorButton@@UAE@XZ	; CColorButton::~CColorButton
  00048	8d 8e 08 02 00
	00		 lea	 ecx, DWORD PTR [esi+520]
  0004e	e8 00 00 00 00	 call	 ??1CColorButton@@UAE@XZ	; CColorButton::~CColorButton
  00053	8d 8e 80 01 00
	00		 lea	 ecx, DWORD PTR [esi+384]
  00059	e8 00 00 00 00	 call	 ??1CColorButton@@UAE@XZ	; CColorButton::~CColorButton
  0005e	8d 8e f8 00 00
	00		 lea	 ecx, DWORD PTR [esi+248]
  00064	e8 00 00 00 00	 call	 ??1CColorButton@@UAE@XZ	; CColorButton::~CColorButton
  00069	8b ce		 mov	 ecx, esi
  0006b	e8 00 00 00 00	 call	 ??1CBaseDialog@@UAE@XZ	; CBaseDialog::~CBaseDialog
  00070	8b 45 08	 mov	 eax, DWORD PTR ___flags$[ebp]
  00073	a8 01		 test	 al, 1
  00075	74 22		 je	 SHORT $LN12@scalar
  00077	a8 04		 test	 al, 4
  00079	75 10		 jne	 SHORT $LN3@scalar

; 112  : 	{ ::operator delete(p); }

  0007b	56		 push	 esi
  0007c	e8 00 00 00 00	 call	 ??3@YAXPAX@Z		; operator delete
  00081	83 c4 04	 add	 esp, 4
  00084	8b c6		 mov	 eax, esi
  00086	5e		 pop	 esi
  00087	5d		 pop	 ebp
  00088	c2 04 00	 ret	 4
$LN3@scalar:
  0008b	68 f0 05 00 00	 push	 1520			; 000005f0H
  00090	56		 push	 esi
  00091	e8 00 00 00 00	 call	 ?__global_delete@@YAXPAXI@Z ; __global_delete
  00096	83 c4 08	 add	 esp, 8
$LN12@scalar:
  00099	8b c6		 mov	 eax, esi
  0009b	5e		 pop	 esi
  0009c	5d		 pop	 ebp
  0009d	c2 04 00	 ret	 4
??_GCSetting_Special_Type_E@@UAEPAXI@Z ENDP		; CSetting_Special_Type_E::`scalar deleting destructor'
_TEXT	ENDS
; Function compile flags: /Ogtp
; File D:\git\src\IBK\IBK_DRFN\ProjSrc\SrcChartEx\ChartAddIn\ChartEnvSetupDlgAddIn\ChartEnvSetupDlgAddIn\Setting_Special_Type_E.cpp
;	COMDAT ?GetMessageMap@CSetting_Special_Type_E@@MBEPBUAFX_MSGMAP@@XZ
_TEXT	SEGMENT
?GetMessageMap@CSetting_Special_Type_E@@MBEPBUAFX_MSGMAP@@XZ PROC ; CSetting_Special_Type_E::GetMessageMap, COMDAT
; _this$ = ecx

; 61   : BEGIN_MESSAGE_MAP(CSetting_Special_Type_E, CDialog)

  00000	b8 00 00 00 00	 mov	 eax, OFFSET ?messageMap@?1??GetThisMessageMap@CSetting_Special_Type_E@@KGPBUAFX_MSGMAP@@XZ@4U3@B
  00005	c3		 ret	 0
?GetMessageMap@CSetting_Special_Type_E@@MBEPBUAFX_MSGMAP@@XZ ENDP ; CSetting_Special_Type_E::GetMessageMap
_TEXT	ENDS
; Function compile flags: /Ogtp
; File D:\git\src\IBK\IBK_DRFN\ProjSrc\SrcChartEx\ChartAddIn\ChartEnvSetupDlgAddIn\ChartEnvSetupDlgAddIn\Setting_Special_Type_E.cpp
;	COMDAT ?GetThisMessageMap@CSetting_Special_Type_E@@KGPBUAFX_MSGMAP@@XZ
_TEXT	SEGMENT
?GetThisMessageMap@CSetting_Special_Type_E@@KGPBUAFX_MSGMAP@@XZ PROC ; CSetting_Special_Type_E::GetThisMessageMap, COMDAT

; 62   : 	//{{AFX_MSG_MAP(CSetting_Special_Type_E)
; 63   : 	ON_BN_CLICKED(IDC_BTN_COLOR1, OnBtnColor1)
; 64   : 	ON_BN_CLICKED(IDC_BTN_COLOR2, OnBtnColor2)
; 65   : 	ON_BN_CLICKED(IDC_BTN_COLOR3, OnBtnColor3)
; 66   : 	ON_BN_CLICKED(IDC_BTN_COLOR4, OnBtnColor4)
; 67   : 	ON_BN_CLICKED(IDC_BTN_COLOR5, OnBtnColor5)
; 68   : 	ON_BN_CLICKED(IDC_BTN_COLOR6, OnBtnColor6)
; 69   : 	ON_BN_CLICKED(IDC_GUGAN_RADIO, OnGuganRadio)
; 70   : 	ON_BN_CLICKED(IDC_HOGA_RADIO, OnHogaRadio)
; 71   : 	//}}AFX_MSG_MAP
; 72   : END_MESSAGE_MAP()

  00000	b8 00 00 00 00	 mov	 eax, OFFSET ?messageMap@?1??GetThisMessageMap@CSetting_Special_Type_E@@KGPBUAFX_MSGMAP@@XZ@4U3@B
  00005	c3		 ret	 0
?GetThisMessageMap@CSetting_Special_Type_E@@KGPBUAFX_MSGMAP@@XZ ENDP ; CSetting_Special_Type_E::GetThisMessageMap
_TEXT	ENDS
; Function compile flags: /Ogtp
; File D:\git\src\IBK\IBK_DRFN\ProjSrc\SrcChartEx\ChartAddIn\ChartEnvSetupDlgAddIn\ChartEnvSetupDlgAddIn\Setting_Special_Type_E.cpp
; File C:\Program Files (x86)\Microsoft Visual Studio\2019\Community\VC\Tools\MSVC\14.29.30133\atlmfc\include\afxwin1.inl
; File D:\git\src\IBK\IBK_DRFN\ProjSrc\SrcChartEx\ChartAddIn\ChartEnvSetupDlgAddIn\Include_Chart\Dll_Load\IMetaTable.h
; File C:\Program Files (x86)\Microsoft Visual Studio\2019\Community\VC\Tools\MSVC\14.29.30133\atlmfc\include\afxwin1.inl
; File D:\git\src\IBK\IBK_DRFN\ProjSrc\SrcChartEx\ChartAddIn\ChartEnvSetupDlgAddIn\ChartEnvSetupDlgAddIn\Setting_Special_Type_E.cpp
; File D:\git\src\IBK\IBK_DRFN\ProjSrc\SrcChartEx\ChartAddIn\ChartEnvSetupDlgAddIn\Include_Chart\Dll_Load\IMetaTable.h
; File C:\Program Files (x86)\Microsoft Visual Studio\2019\Community\VC\Tools\MSVC\14.29.30133\atlmfc\include\afxwin1.inl
; File D:\git\src\IBK\IBK_DRFN\ProjSrc\SrcChartEx\ChartAddIn\ChartEnvSetupDlgAddIn\ChartEnvSetupDlgAddIn\Setting_Special_Type_E.cpp
;	COMDAT ?OnHogaRadio@CSetting_Special_Type_E@@IAEXXZ
_TEXT	SEGMENT
___mlrs__$ = -24					; size = 4
_strTitle$ = -20					; size = 4
_strUnit$ = -16						; size = 4
__$EHRec$ = -12						; size = 12
?OnHogaRadio@CSetting_Special_Type_E@@IAEXXZ PROC	; CSetting_Special_Type_E::OnHogaRadio, COMDAT
; _this$ = ecx

; 497  : {

  00000	55		 push	 ebp
  00001	8b ec		 mov	 ebp, esp
  00003	6a ff		 push	 -1
  00005	68 00 00 00 00	 push	 __ehhandler$?OnHogaRadio@CSetting_Special_Type_E@@IAEXXZ
  0000a	64 a1 00 00 00
	00		 mov	 eax, DWORD PTR fs:0
  00010	50		 push	 eax
  00011	83 ec 0c	 sub	 esp, 12			; 0000000cH
  00014	53		 push	 ebx
  00015	56		 push	 esi
  00016	57		 push	 edi
  00017	a1 00 00 00 00	 mov	 eax, DWORD PTR ___security_cookie
  0001c	33 c5		 xor	 eax, ebp
  0001e	50		 push	 eax
  0001f	8d 45 f4	 lea	 eax, DWORD PTR __$EHRec$[ebp]
  00022	64 a3 00 00 00
	00		 mov	 DWORD PTR fs:0, eax
  00028	8b d9		 mov	 ebx, ecx

; 498  : 	// TODO: Add your control notification handler code here
; 499  : 	ML_SET_LANGUAGE_RES();

  0002a	e8 00 00 00 00	 call	 ?AfxGetStaticModuleState@@YGPAVAFX_MODULE_STATE@@XZ ; AfxGetStaticModuleState
  0002f	b9 00 00 00 00	 mov	 ecx, OFFSET ?g_iMetaTable@@3VIMetaTable@@A ; g_iMetaTable
  00034	8b 40 08	 mov	 eax, DWORD PTR [eax+8]
  00037	50		 push	 eax
  00038	ff b3 d8 00 00
	00		 push	 DWORD PTR [ebx+216]
  0003e	e8 00 00 00 00	 call	 ?LoadResourceDLL@IMetaTable@@QAEPAUHINSTANCE__@@PAUHWND__@@PAU2@@Z ; IMetaTable::LoadResourceDLL
  00043	8b f8		 mov	 edi, eax
; File C:\Program Files (x86)\Microsoft Visual Studio\2019\Community\VC\Tools\MSVC\14.29.30133\atlmfc\include\afxwin1.inl

; 25   : 		return afxCurrentResourceHandle; }

  00045	e8 00 00 00 00	 call	 ?AfxGetModuleState@@YGPAVAFX_MODULE_STATE@@XZ ; AfxGetModuleState
; File D:\git\src\IBK\IBK_DRFN\ProjSrc\SrcChartEx\ChartAddIn\ChartEnvSetupDlgAddIn\Include_Chart\Dll_Load\IMetaTable.h

; 1032 : 		m_hInstance = AfxGetResourceHandle();

  0004a	8b 70 0c	 mov	 esi, DWORD PTR [eax+12]
  0004d	89 75 e8	 mov	 DWORD PTR ___mlrs__$[ebp], esi
; File C:\Program Files (x86)\Microsoft Visual Studio\2019\Community\VC\Tools\MSVC\14.29.30133\atlmfc\include\afxwin1.inl

; 27   : 	{ ASSERT(hInstResource != NULL); afxCurrentResourceHandle = hInstResource; }

  00050	e8 00 00 00 00	 call	 ?AfxGetModuleState@@YGPAVAFX_MODULE_STATE@@XZ ; AfxGetModuleState
  00055	89 78 0c	 mov	 DWORD PTR [eax+12], edi
; File D:\git\src\IBK\IBK_DRFN\ProjSrc\SrcChartEx\ChartAddIn\ChartEnvSetupDlgAddIn\ChartEnvSetupDlgAddIn\Setting_Special_Type_E.cpp

; 500  : 	CString strTitle, strUnit;

  00058	8d 4d ec	 lea	 ecx, DWORD PTR _strTitle$[ebp]
  0005b	c7 45 fc 00 00
	00 00		 mov	 DWORD PTR __$EHRec$[ebp+8], 0
  00062	ff 15 00 00 00
	00		 call	 DWORD PTR __imp_??0?$CStringT@DV?$StrTraitMFC_DLL@DV?$ChTraitsCRT@D@ATL@@@@@ATL@@QAE@XZ
  00068	8d 4d f0	 lea	 ecx, DWORD PTR _strUnit$[ebp]
  0006b	ff 15 00 00 00
	00		 call	 DWORD PTR __imp_??0?$CStringT@DV?$StrTraitMFC_DLL@DV?$ChTraitsCRT@D@ATL@@@@@ATL@@QAE@XZ

; 501  : 	strTitle.LoadString(	IDS_OVERHANGING_BAR_WIDTH);

  00071	6a 52		 push	 82			; 00000052H
  00073	8d 4d ec	 lea	 ecx, DWORD PTR _strTitle$[ebp]
  00076	c6 45 fc 02	 mov	 BYTE PTR __$EHRec$[ebp+8], 2
  0007a	ff 15 00 00 00
	00		 call	 DWORD PTR __imp_?LoadStringA@?$CStringT@DV?$StrTraitMFC_DLL@DV?$ChTraitsCRT@D@ATL@@@@@ATL@@QAEHI@Z

; 502  : 	strUnit.LoadString(		IDS_PRICE_UNIT);

  00080	6a 53		 push	 83			; 00000053H
  00082	8d 4d f0	 lea	 ecx, DWORD PTR _strUnit$[ebp]
  00085	ff 15 00 00 00
	00		 call	 DWORD PTR __imp_?LoadStringA@?$CStringT@DV?$StrTraitMFC_DLL@DV?$ChTraitsCRT@D@ATL@@@@@ATL@@QAEHI@Z

; 503  : 	GetDlgItem( IDC_COND_TITLE)->SetWindowText(	strTitle);

  0008b	ff 75 ec	 push	 DWORD PTR _strTitle$[ebp]
  0008e	8b cb		 mov	 ecx, ebx
  00090	68 45 1f 00 00	 push	 8005			; 00001f45H
  00095	e8 00 00 00 00	 call	 ?GetDlgItem@CWnd@@QBEPAV1@H@Z ; CWnd::GetDlgItem
  0009a	8b c8		 mov	 ecx, eax
  0009c	e8 00 00 00 00	 call	 ?SetWindowTextA@CWnd@@QAEXPBD@Z ; CWnd::SetWindowTextA

; 504  : 	GetDlgItem( IDC_COND_UNIT)->SetWindowText(	strUnit);

  000a1	ff 75 f0	 push	 DWORD PTR _strUnit$[ebp]
  000a4	8b cb		 mov	 ecx, ebx
  000a6	68 4e 1f 00 00	 push	 8014			; 00001f4eH
  000ab	e8 00 00 00 00	 call	 ?GetDlgItem@CWnd@@QBEPAV1@H@Z ; CWnd::GetDlgItem
  000b0	8b c8		 mov	 ecx, eax
  000b2	e8 00 00 00 00	 call	 ?SetWindowTextA@CWnd@@QAEXPBD@Z ; CWnd::SetWindowTextA

; 505  : }

  000b7	8d 4d f0	 lea	 ecx, DWORD PTR _strUnit$[ebp]
  000ba	ff 15 00 00 00
	00		 call	 DWORD PTR __imp_??1?$CStringT@DV?$StrTraitMFC_DLL@DV?$ChTraitsCRT@D@ATL@@@@@ATL@@QAE@XZ
  000c0	8d 4d ec	 lea	 ecx, DWORD PTR _strTitle$[ebp]
  000c3	ff 15 00 00 00
	00		 call	 DWORD PTR __imp_??1?$CStringT@DV?$StrTraitMFC_DLL@DV?$ChTraitsCRT@D@ATL@@@@@ATL@@QAE@XZ
; File D:\git\src\IBK\IBK_DRFN\ProjSrc\SrcChartEx\ChartAddIn\ChartEnvSetupDlgAddIn\Include_Chart\Dll_Load\IMetaTable.h

; 1036 : 	{

  000c9	c7 45 fc 03 00
	00 00		 mov	 DWORD PTR __$EHRec$[ebp+8], 3
; File C:\Program Files (x86)\Microsoft Visual Studio\2019\Community\VC\Tools\MSVC\14.29.30133\atlmfc\include\afxwin1.inl

; 27   : 	{ ASSERT(hInstResource != NULL); afxCurrentResourceHandle = hInstResource; }

  000d0	e8 00 00 00 00	 call	 ?AfxGetModuleState@@YGPAVAFX_MODULE_STATE@@XZ ; AfxGetModuleState
  000d5	89 70 0c	 mov	 DWORD PTR [eax+12], esi
; File D:\git\src\IBK\IBK_DRFN\ProjSrc\SrcChartEx\ChartAddIn\ChartEnvSetupDlgAddIn\ChartEnvSetupDlgAddIn\Setting_Special_Type_E.cpp

; 505  : }

  000d8	8b 4d f4	 mov	 ecx, DWORD PTR __$EHRec$[ebp]
  000db	64 89 0d 00 00
	00 00		 mov	 DWORD PTR fs:0, ecx
  000e2	59		 pop	 ecx
  000e3	5f		 pop	 edi
  000e4	5e		 pop	 esi
  000e5	5b		 pop	 ebx
  000e6	8b e5		 mov	 esp, ebp
  000e8	5d		 pop	 ebp
  000e9	c3		 ret	 0
_TEXT	ENDS
;	COMDAT text$x
text$x	SEGMENT
__unwindfunclet$?OnHogaRadio@CSetting_Special_Type_E@@IAEXXZ$0:
  00000	8d 4d e8	 lea	 ecx, DWORD PTR ___mlrs__$[ebp]
  00003	e9 00 00 00 00	 jmp	 ??1CMultiLanguageResourceSetter@@QAE@XZ ; CMultiLanguageResourceSetter::~CMultiLanguageResourceSetter
__unwindfunclet$?OnHogaRadio@CSetting_Special_Type_E@@IAEXXZ$1:
  00008	8d 4d ec	 lea	 ecx, DWORD PTR _strTitle$[ebp]
  0000b	ff 25 00 00 00
	00		 jmp	 DWORD PTR __imp_??1?$CStringT@DV?$StrTraitMFC_DLL@DV?$ChTraitsCRT@D@ATL@@@@@ATL@@QAE@XZ
__unwindfunclet$?OnHogaRadio@CSetting_Special_Type_E@@IAEXXZ$2:
  00011	8d 4d f0	 lea	 ecx, DWORD PTR _strUnit$[ebp]
  00014	ff 25 00 00 00
	00		 jmp	 DWORD PTR __imp_??1?$CStringT@DV?$StrTraitMFC_DLL@DV?$ChTraitsCRT@D@ATL@@@@@ATL@@QAE@XZ
  0001a	cc		 int	 3
  0001b	cc		 int	 3
  0001c	cc		 int	 3
  0001d	cc		 int	 3
  0001e	cc		 int	 3
__ehhandler$?OnHogaRadio@CSetting_Special_Type_E@@IAEXXZ:
  0001f	90		 npad	 1
  00020	90		 npad	 1
  00021	8b 54 24 08	 mov	 edx, DWORD PTR [esp+8]
  00025	8d 42 0c	 lea	 eax, DWORD PTR [edx+12]
  00028	8b 4a e4	 mov	 ecx, DWORD PTR [edx-28]
  0002b	33 c8		 xor	 ecx, eax
  0002d	e8 00 00 00 00	 call	 @__security_check_cookie@4
  00032	b8 00 00 00 00	 mov	 eax, OFFSET __ehfuncinfo$?OnHogaRadio@CSetting_Special_Type_E@@IAEXXZ
  00037	e9 00 00 00 00	 jmp	 ___CxxFrameHandler3
text$x	ENDS
?OnHogaRadio@CSetting_Special_Type_E@@IAEXXZ ENDP	; CSetting_Special_Type_E::OnHogaRadio
; Function compile flags: /Ogtp
; File D:\git\src\IBK\IBK_DRFN\ProjSrc\SrcChartEx\ChartAddIn\ChartEnvSetupDlgAddIn\ChartEnvSetupDlgAddIn\Setting_Special_Type_E.cpp
; File C:\Program Files (x86)\Microsoft Visual Studio\2019\Community\VC\Tools\MSVC\14.29.30133\atlmfc\include\afxwin1.inl
; File D:\git\src\IBK\IBK_DRFN\ProjSrc\SrcChartEx\ChartAddIn\ChartEnvSetupDlgAddIn\Include_Chart\Dll_Load\IMetaTable.h
; File C:\Program Files (x86)\Microsoft Visual Studio\2019\Community\VC\Tools\MSVC\14.29.30133\atlmfc\include\afxwin1.inl
; File D:\git\src\IBK\IBK_DRFN\ProjSrc\SrcChartEx\ChartAddIn\ChartEnvSetupDlgAddIn\ChartEnvSetupDlgAddIn\Setting_Special_Type_E.cpp
; File D:\git\src\IBK\IBK_DRFN\ProjSrc\SrcChartEx\ChartAddIn\ChartEnvSetupDlgAddIn\Include_Chart\Dll_Load\IMetaTable.h
; File C:\Program Files (x86)\Microsoft Visual Studio\2019\Community\VC\Tools\MSVC\14.29.30133\atlmfc\include\afxwin1.inl
; File D:\git\src\IBK\IBK_DRFN\ProjSrc\SrcChartEx\ChartAddIn\ChartEnvSetupDlgAddIn\ChartEnvSetupDlgAddIn\Setting_Special_Type_E.cpp
;	COMDAT ?OnGuganRadio@CSetting_Special_Type_E@@IAEXXZ
_TEXT	SEGMENT
___mlrs__$ = -24					; size = 4
_strTitle$ = -20					; size = 4
_strUnit$ = -16						; size = 4
__$EHRec$ = -12						; size = 12
?OnGuganRadio@CSetting_Special_Type_E@@IAEXXZ PROC	; CSetting_Special_Type_E::OnGuganRadio, COMDAT
; _this$ = ecx

; 487  : {

  00000	55		 push	 ebp
  00001	8b ec		 mov	 ebp, esp
  00003	6a ff		 push	 -1
  00005	68 00 00 00 00	 push	 __ehhandler$?OnGuganRadio@CSetting_Special_Type_E@@IAEXXZ
  0000a	64 a1 00 00 00
	00		 mov	 eax, DWORD PTR fs:0
  00010	50		 push	 eax
  00011	83 ec 0c	 sub	 esp, 12			; 0000000cH
  00014	53		 push	 ebx
  00015	56		 push	 esi
  00016	57		 push	 edi
  00017	a1 00 00 00 00	 mov	 eax, DWORD PTR ___security_cookie
  0001c	33 c5		 xor	 eax, ebp
  0001e	50		 push	 eax
  0001f	8d 45 f4	 lea	 eax, DWORD PTR __$EHRec$[ebp]
  00022	64 a3 00 00 00
	00		 mov	 DWORD PTR fs:0, eax
  00028	8b d9		 mov	 ebx, ecx

; 488  : 	// TODO: Add your control notification handler code here
; 489  : 	ML_SET_LANGUAGE_RES();

  0002a	e8 00 00 00 00	 call	 ?AfxGetStaticModuleState@@YGPAVAFX_MODULE_STATE@@XZ ; AfxGetStaticModuleState
  0002f	b9 00 00 00 00	 mov	 ecx, OFFSET ?g_iMetaTable@@3VIMetaTable@@A ; g_iMetaTable
  00034	8b 40 08	 mov	 eax, DWORD PTR [eax+8]
  00037	50		 push	 eax
  00038	ff b3 d8 00 00
	00		 push	 DWORD PTR [ebx+216]
  0003e	e8 00 00 00 00	 call	 ?LoadResourceDLL@IMetaTable@@QAEPAUHINSTANCE__@@PAUHWND__@@PAU2@@Z ; IMetaTable::LoadResourceDLL
  00043	8b f8		 mov	 edi, eax
; File C:\Program Files (x86)\Microsoft Visual Studio\2019\Community\VC\Tools\MSVC\14.29.30133\atlmfc\include\afxwin1.inl

; 25   : 		return afxCurrentResourceHandle; }

  00045	e8 00 00 00 00	 call	 ?AfxGetModuleState@@YGPAVAFX_MODULE_STATE@@XZ ; AfxGetModuleState
; File D:\git\src\IBK\IBK_DRFN\ProjSrc\SrcChartEx\ChartAddIn\ChartEnvSetupDlgAddIn\Include_Chart\Dll_Load\IMetaTable.h

; 1032 : 		m_hInstance = AfxGetResourceHandle();

  0004a	8b 70 0c	 mov	 esi, DWORD PTR [eax+12]
  0004d	89 75 e8	 mov	 DWORD PTR ___mlrs__$[ebp], esi
; File C:\Program Files (x86)\Microsoft Visual Studio\2019\Community\VC\Tools\MSVC\14.29.30133\atlmfc\include\afxwin1.inl

; 27   : 	{ ASSERT(hInstResource != NULL); afxCurrentResourceHandle = hInstResource; }

  00050	e8 00 00 00 00	 call	 ?AfxGetModuleState@@YGPAVAFX_MODULE_STATE@@XZ ; AfxGetModuleState
  00055	89 78 0c	 mov	 DWORD PTR [eax+12], edi
; File D:\git\src\IBK\IBK_DRFN\ProjSrc\SrcChartEx\ChartAddIn\ChartEnvSetupDlgAddIn\ChartEnvSetupDlgAddIn\Setting_Special_Type_E.cpp

; 490  : 	CString strTitle, strUnit;

  00058	8d 4d ec	 lea	 ecx, DWORD PTR _strTitle$[ebp]
  0005b	c7 45 fc 00 00
	00 00		 mov	 DWORD PTR __$EHRec$[ebp+8], 0
  00062	ff 15 00 00 00
	00		 call	 DWORD PTR __imp_??0?$CStringT@DV?$StrTraitMFC_DLL@DV?$ChTraitsCRT@D@ATL@@@@@ATL@@QAE@XZ
  00068	8d 4d f0	 lea	 ecx, DWORD PTR _strUnit$[ebp]
  0006b	ff 15 00 00 00
	00		 call	 DWORD PTR __imp_??0?$CStringT@DV?$StrTraitMFC_DLL@DV?$ChTraitsCRT@D@ATL@@@@@ATL@@QAE@XZ

; 491  : 	strTitle.LoadString(	IDS_OVERHANGING_BAR_COUNT);

  00071	6a 50		 push	 80			; 00000050H
  00073	8d 4d ec	 lea	 ecx, DWORD PTR _strTitle$[ebp]
  00076	c6 45 fc 02	 mov	 BYTE PTR __$EHRec$[ebp+8], 2
  0007a	ff 15 00 00 00
	00		 call	 DWORD PTR __imp_?LoadStringA@?$CStringT@DV?$StrTraitMFC_DLL@DV?$ChTraitsCRT@D@ATL@@@@@ATL@@QAEHI@Z

; 492  : 	strUnit.LoadString(		IDS_COUNT);

  00080	6a 51		 push	 81			; 00000051H
  00082	8d 4d f0	 lea	 ecx, DWORD PTR _strUnit$[ebp]
  00085	ff 15 00 00 00
	00		 call	 DWORD PTR __imp_?LoadStringA@?$CStringT@DV?$StrTraitMFC_DLL@DV?$ChTraitsCRT@D@ATL@@@@@ATL@@QAEHI@Z

; 493  : 	GetDlgItem( IDC_COND_TITLE)->SetWindowText(	strTitle);

  0008b	ff 75 ec	 push	 DWORD PTR _strTitle$[ebp]
  0008e	8b cb		 mov	 ecx, ebx
  00090	68 45 1f 00 00	 push	 8005			; 00001f45H
  00095	e8 00 00 00 00	 call	 ?GetDlgItem@CWnd@@QBEPAV1@H@Z ; CWnd::GetDlgItem
  0009a	8b c8		 mov	 ecx, eax
  0009c	e8 00 00 00 00	 call	 ?SetWindowTextA@CWnd@@QAEXPBD@Z ; CWnd::SetWindowTextA

; 494  : 	GetDlgItem( IDC_COND_UNIT)->SetWindowText(	strUnit);

  000a1	ff 75 f0	 push	 DWORD PTR _strUnit$[ebp]
  000a4	8b cb		 mov	 ecx, ebx
  000a6	68 4e 1f 00 00	 push	 8014			; 00001f4eH
  000ab	e8 00 00 00 00	 call	 ?GetDlgItem@CWnd@@QBEPAV1@H@Z ; CWnd::GetDlgItem
  000b0	8b c8		 mov	 ecx, eax
  000b2	e8 00 00 00 00	 call	 ?SetWindowTextA@CWnd@@QAEXPBD@Z ; CWnd::SetWindowTextA

; 495  : }

  000b7	8d 4d f0	 lea	 ecx, DWORD PTR _strUnit$[ebp]
  000ba	ff 15 00 00 00
	00		 call	 DWORD PTR __imp_??1?$CStringT@DV?$StrTraitMFC_DLL@DV?$ChTraitsCRT@D@ATL@@@@@ATL@@QAE@XZ
  000c0	8d 4d ec	 lea	 ecx, DWORD PTR _strTitle$[ebp]
  000c3	ff 15 00 00 00
	00		 call	 DWORD PTR __imp_??1?$CStringT@DV?$StrTraitMFC_DLL@DV?$ChTraitsCRT@D@ATL@@@@@ATL@@QAE@XZ
; File D:\git\src\IBK\IBK_DRFN\ProjSrc\SrcChartEx\ChartAddIn\ChartEnvSetupDlgAddIn\Include_Chart\Dll_Load\IMetaTable.h

; 1036 : 	{

  000c9	c7 45 fc 03 00
	00 00		 mov	 DWORD PTR __$EHRec$[ebp+8], 3
; File C:\Program Files (x86)\Microsoft Visual Studio\2019\Community\VC\Tools\MSVC\14.29.30133\atlmfc\include\afxwin1.inl

; 27   : 	{ ASSERT(hInstResource != NULL); afxCurrentResourceHandle = hInstResource; }

  000d0	e8 00 00 00 00	 call	 ?AfxGetModuleState@@YGPAVAFX_MODULE_STATE@@XZ ; AfxGetModuleState
  000d5	89 70 0c	 mov	 DWORD PTR [eax+12], esi
; File D:\git\src\IBK\IBK_DRFN\ProjSrc\SrcChartEx\ChartAddIn\ChartEnvSetupDlgAddIn\ChartEnvSetupDlgAddIn\Setting_Special_Type_E.cpp

; 495  : }

  000d8	8b 4d f4	 mov	 ecx, DWORD PTR __$EHRec$[ebp]
  000db	64 89 0d 00 00
	00 00		 mov	 DWORD PTR fs:0, ecx
  000e2	59		 pop	 ecx
  000e3	5f		 pop	 edi
  000e4	5e		 pop	 esi
  000e5	5b		 pop	 ebx
  000e6	8b e5		 mov	 esp, ebp
  000e8	5d		 pop	 ebp
  000e9	c3		 ret	 0
_TEXT	ENDS
;	COMDAT text$x
text$x	SEGMENT
__unwindfunclet$?OnGuganRadio@CSetting_Special_Type_E@@IAEXXZ$0:
  00000	8d 4d e8	 lea	 ecx, DWORD PTR ___mlrs__$[ebp]
  00003	e9 00 00 00 00	 jmp	 ??1CMultiLanguageResourceSetter@@QAE@XZ ; CMultiLanguageResourceSetter::~CMultiLanguageResourceSetter
__unwindfunclet$?OnGuganRadio@CSetting_Special_Type_E@@IAEXXZ$1:
  00008	8d 4d ec	 lea	 ecx, DWORD PTR _strTitle$[ebp]
  0000b	ff 25 00 00 00
	00		 jmp	 DWORD PTR __imp_??1?$CStringT@DV?$StrTraitMFC_DLL@DV?$ChTraitsCRT@D@ATL@@@@@ATL@@QAE@XZ
__unwindfunclet$?OnGuganRadio@CSetting_Special_Type_E@@IAEXXZ$2:
  00011	8d 4d f0	 lea	 ecx, DWORD PTR _strUnit$[ebp]
  00014	ff 25 00 00 00
	00		 jmp	 DWORD PTR __imp_??1?$CStringT@DV?$StrTraitMFC_DLL@DV?$ChTraitsCRT@D@ATL@@@@@ATL@@QAE@XZ
  0001a	cc		 int	 3
  0001b	cc		 int	 3
  0001c	cc		 int	 3
  0001d	cc		 int	 3
  0001e	cc		 int	 3
__ehhandler$?OnGuganRadio@CSetting_Special_Type_E@@IAEXXZ:
  0001f	90		 npad	 1
  00020	90		 npad	 1
  00021	8b 54 24 08	 mov	 edx, DWORD PTR [esp+8]
  00025	8d 42 0c	 lea	 eax, DWORD PTR [edx+12]
  00028	8b 4a e4	 mov	 ecx, DWORD PTR [edx-28]
  0002b	33 c8		 xor	 ecx, eax
  0002d	e8 00 00 00 00	 call	 @__security_check_cookie@4
  00032	b8 00 00 00 00	 mov	 eax, OFFSET __ehfuncinfo$?OnGuganRadio@CSetting_Special_Type_E@@IAEXXZ
  00037	e9 00 00 00 00	 jmp	 ___CxxFrameHandler3
text$x	ENDS
?OnGuganRadio@CSetting_Special_Type_E@@IAEXXZ ENDP	; CSetting_Special_Type_E::OnGuganRadio
; Function compile flags: /Ogtp
; File D:\git\src\IBK\IBK_DRFN\ProjSrc\SrcChartEx\ChartAddIn\ChartEnvSetupDlgAddIn\ChartEnvSetupDlgAddIn\Setting_Special_Type_E.cpp
; File C:\Program Files (x86)\Microsoft Visual Studio\2019\Community\VC\Tools\MSVC\14.29.30133\atlmfc\include\afxwin2.inl
; File C:\Program Files (x86)\Microsoft Visual Studio\2019\Community\VC\Tools\MSVC\14.29.30133\atlmfc\include\afxdlgs.h
; File D:\git\src\IBK\IBK_DRFN\ProjSrc\SrcChartEx\ChartAddIn\ChartEnvSetupDlgAddIn\ChartEnvSetupDlgAddIn\Setting_Special_Type_E.cpp
;	COMDAT ?OnBtnColor6@CSetting_Special_Type_E@@IAEXXZ
_TEXT	SEGMENT
_color$ = -224						; size = 208
$T2 = -16						; size = 4
__$EHRec$ = -12						; size = 12
?OnBtnColor6@CSetting_Special_Type_E@@IAEXXZ PROC	; CSetting_Special_Type_E::OnBtnColor6, COMDAT
; _this$ = ecx

; 434  : {

  00000	55		 push	 ebp
  00001	8b ec		 mov	 ebp, esp
  00003	6a ff		 push	 -1
  00005	68 00 00 00 00	 push	 __ehhandler$?OnBtnColor6@CSetting_Special_Type_E@@IAEXXZ
  0000a	64 a1 00 00 00
	00		 mov	 eax, DWORD PTR fs:0
  00010	50		 push	 eax
  00011	81 ec d4 00 00
	00		 sub	 esp, 212		; 000000d4H
  00017	56		 push	 esi
  00018	57		 push	 edi
  00019	a1 00 00 00 00	 mov	 eax, DWORD PTR ___security_cookie
  0001e	33 c5		 xor	 eax, ebp
  00020	50		 push	 eax
  00021	8d 45 f4	 lea	 eax, DWORD PTR __$EHRec$[ebp]
  00024	64 a3 00 00 00
	00		 mov	 DWORD PTR fs:0, eax
  0002a	8b f1		 mov	 esi, ecx

; 435  : 	// TODO: Add your control notification handler code here
; 436  : 	if(m_nSubGraphIndex < 0) return;

  0002c	83 be e8 05 00
	00 00		 cmp	 DWORD PTR [esi+1512], 0
  00033	0f 8c 82 00 00
	00		 jl	 $LN19@OnBtnColor

; 437  : 	
; 438  : 	COLORREF crColor = m_btnColor6.GetColor();

  00039	8d 8e f8 00 00
	00		 lea	 ecx, DWORD PTR [esi+248]
  0003f	e8 00 00 00 00	 call	 ?GetColor@CColorButton@@QAEKXZ ; CColorButton::GetColor

; 439  : 	CColorDialog color(crColor, CC_FULLOPEN);

  00044	6a 00		 push	 0
  00046	6a 02		 push	 2
  00048	50		 push	 eax
  00049	8d 8d 20 ff ff
	ff		 lea	 ecx, DWORD PTR _color$[ebp]
  0004f	e8 00 00 00 00	 call	 ??0CColorDialog@@QAE@KKPAVCWnd@@@Z ; CColorDialog::CColorDialog

; 440  : 	if(color.DoModal() != IDOK) 

  00054	8d 8d 20 ff ff
	ff		 lea	 ecx, DWORD PTR _color$[ebp]
  0005a	c7 45 fc 00 00
	00 00		 mov	 DWORD PTR __$EHRec$[ebp+8], 0
  00061	e8 00 00 00 00	 call	 ?DoModal@CColorDialog@@UAEHXZ ; CColorDialog::DoModal
  00066	83 f8 01	 cmp	 eax, 1
  00069	75 3b		 jne	 SHORT $LN6@OnBtnColor

; 441  : 		return;
; 442  : 
; 443  : 	m_pIGraphInfo->SetSubGraphColor( m_nSubGraphIndex, 6, color.GetColor());

  0006b	8b 8e c4 00 00
	00		 mov	 ecx, DWORD PTR [esi+196]
  00071	ff 75 d4	 push	 DWORD PTR _color$[ebp+180]
  00074	6a 06		 push	 6
  00076	8b 01		 mov	 eax, DWORD PTR [ecx]
  00078	ff b6 e8 05 00
	00		 push	 DWORD PTR [esi+1512]
  0007e	ff 50 6c	 call	 DWORD PTR [eax+108]

; 444  : 
; 445  : 	m_btnColor6.SetColor( color.GetColor() );

  00081	8b 45 d4	 mov	 eax, DWORD PTR _color$[ebp+180]
  00084	8d 8e f8 00 00
	00		 lea	 ecx, DWORD PTR [esi+248]
  0008a	89 45 f0	 mov	 DWORD PTR $T2[ebp], eax
  0008d	8d 45 f0	 lea	 eax, DWORD PTR $T2[ebp]
  00090	50		 push	 eax
  00091	e8 00 00 00 00	 call	 ?SetColor@CColorButton@@QAEXABK@Z ; CColorButton::SetColor
; File C:\Program Files (x86)\Microsoft Visual Studio\2019\Community\VC\Tools\MSVC\14.29.30133\atlmfc\include\afxwin2.inl

; 114  : 	{ ASSERT(::IsWindow(m_hWnd)); ::InvalidateRect(m_hWnd, NULL, bErase); }

  00096	6a 01		 push	 1
  00098	6a 00		 push	 0
  0009a	ff b6 18 01 00
	00		 push	 DWORD PTR [esi+280]
  000a0	ff 15 00 00 00
	00		 call	 DWORD PTR __imp__InvalidateRect@12
$LN6@OnBtnColor:
; File C:\Program Files (x86)\Microsoft Visual Studio\2019\Community\VC\Tools\MSVC\14.29.30133\atlmfc\include\afxdlgs.h

; 110  :     virtual ~CCommonDialog() {};

  000a6	8d 8d 20 ff ff
	ff		 lea	 ecx, DWORD PTR _color$[ebp]
  000ac	c7 85 20 ff ff
	ff 00 00 00 00	 mov	 DWORD PTR _color$[ebp], OFFSET ??_7CCommonDialog@@6B@
  000b6	e8 00 00 00 00	 call	 ??1CDialog@@UAE@XZ	; CDialog::~CDialog
$LN19@OnBtnColor:
; File D:\git\src\IBK\IBK_DRFN\ProjSrc\SrcChartEx\ChartAddIn\ChartEnvSetupDlgAddIn\ChartEnvSetupDlgAddIn\Setting_Special_Type_E.cpp

; 447  : }

  000bb	8b 4d f4	 mov	 ecx, DWORD PTR __$EHRec$[ebp]
  000be	64 89 0d 00 00
	00 00		 mov	 DWORD PTR fs:0, ecx
  000c5	59		 pop	 ecx
  000c6	5f		 pop	 edi
  000c7	5e		 pop	 esi
  000c8	8b e5		 mov	 esp, ebp
  000ca	5d		 pop	 ebp
  000cb	c3		 ret	 0
_TEXT	ENDS
;	COMDAT text$x
text$x	SEGMENT
__unwindfunclet$?OnBtnColor6@CSetting_Special_Type_E@@IAEXXZ$0:
  00000	8d 8d 20 ff ff
	ff		 lea	 ecx, DWORD PTR _color$[ebp]
  00006	e9 00 00 00 00	 jmp	 ??1CColorDialog@@UAE@XZ
  0000b	cc		 int	 3
  0000c	cc		 int	 3
  0000d	cc		 int	 3
  0000e	cc		 int	 3
  0000f	cc		 int	 3
__ehhandler$?OnBtnColor6@CSetting_Special_Type_E@@IAEXXZ:
  00010	90		 npad	 1
  00011	90		 npad	 1
  00012	8b 54 24 08	 mov	 edx, DWORD PTR [esp+8]
  00016	8d 42 0c	 lea	 eax, DWORD PTR [edx+12]
  00019	8b 8a 20 ff ff
	ff		 mov	 ecx, DWORD PTR [edx-224]
  0001f	33 c8		 xor	 ecx, eax
  00021	e8 00 00 00 00	 call	 @__security_check_cookie@4
  00026	b8 00 00 00 00	 mov	 eax, OFFSET __ehfuncinfo$?OnBtnColor6@CSetting_Special_Type_E@@IAEXXZ
  0002b	e9 00 00 00 00	 jmp	 ___CxxFrameHandler3
text$x	ENDS
?OnBtnColor6@CSetting_Special_Type_E@@IAEXXZ ENDP	; CSetting_Special_Type_E::OnBtnColor6
; Function compile flags: /Ogtp
; File D:\git\src\IBK\IBK_DRFN\ProjSrc\SrcChartEx\ChartAddIn\ChartEnvSetupDlgAddIn\ChartEnvSetupDlgAddIn\Setting_Special_Type_E.cpp
; File C:\Program Files (x86)\Microsoft Visual Studio\2019\Community\VC\Tools\MSVC\14.29.30133\atlmfc\include\afxwin2.inl
; File C:\Program Files (x86)\Microsoft Visual Studio\2019\Community\VC\Tools\MSVC\14.29.30133\atlmfc\include\afxdlgs.h
; File D:\git\src\IBK\IBK_DRFN\ProjSrc\SrcChartEx\ChartAddIn\ChartEnvSetupDlgAddIn\ChartEnvSetupDlgAddIn\Setting_Special_Type_E.cpp
;	COMDAT ?OnBtnColor5@CSetting_Special_Type_E@@IAEXXZ
_TEXT	SEGMENT
_color$ = -224						; size = 208
$T2 = -16						; size = 4
__$EHRec$ = -12						; size = 12
?OnBtnColor5@CSetting_Special_Type_E@@IAEXXZ PROC	; CSetting_Special_Type_E::OnBtnColor5, COMDAT
; _this$ = ecx

; 412  : {

  00000	55		 push	 ebp
  00001	8b ec		 mov	 ebp, esp
  00003	6a ff		 push	 -1
  00005	68 00 00 00 00	 push	 __ehhandler$?OnBtnColor5@CSetting_Special_Type_E@@IAEXXZ
  0000a	64 a1 00 00 00
	00		 mov	 eax, DWORD PTR fs:0
  00010	50		 push	 eax
  00011	81 ec d4 00 00
	00		 sub	 esp, 212		; 000000d4H
  00017	56		 push	 esi
  00018	57		 push	 edi
  00019	a1 00 00 00 00	 mov	 eax, DWORD PTR ___security_cookie
  0001e	33 c5		 xor	 eax, ebp
  00020	50		 push	 eax
  00021	8d 45 f4	 lea	 eax, DWORD PTR __$EHRec$[ebp]
  00024	64 a3 00 00 00
	00		 mov	 DWORD PTR fs:0, eax
  0002a	8b f1		 mov	 esi, ecx

; 413  : 	// TODO: Add your control notification handler code here
; 414  : 	if(m_nSubGraphIndex < 0) return;

  0002c	83 be e8 05 00
	00 00		 cmp	 DWORD PTR [esi+1512], 0
  00033	0f 8c 82 00 00
	00		 jl	 $LN19@OnBtnColor

; 415  : 	
; 416  : 	COLORREF crColor = m_btnColor5.GetColor();

  00039	8d 8e 80 01 00
	00		 lea	 ecx, DWORD PTR [esi+384]
  0003f	e8 00 00 00 00	 call	 ?GetColor@CColorButton@@QAEKXZ ; CColorButton::GetColor

; 417  : 	CColorDialog color(crColor, CC_FULLOPEN);

  00044	6a 00		 push	 0
  00046	6a 02		 push	 2
  00048	50		 push	 eax
  00049	8d 8d 20 ff ff
	ff		 lea	 ecx, DWORD PTR _color$[ebp]
  0004f	e8 00 00 00 00	 call	 ??0CColorDialog@@QAE@KKPAVCWnd@@@Z ; CColorDialog::CColorDialog

; 418  : 	if(color.DoModal() != IDOK) 

  00054	8d 8d 20 ff ff
	ff		 lea	 ecx, DWORD PTR _color$[ebp]
  0005a	c7 45 fc 00 00
	00 00		 mov	 DWORD PTR __$EHRec$[ebp+8], 0
  00061	e8 00 00 00 00	 call	 ?DoModal@CColorDialog@@UAEHXZ ; CColorDialog::DoModal
  00066	83 f8 01	 cmp	 eax, 1
  00069	75 3b		 jne	 SHORT $LN6@OnBtnColor

; 419  : 		return;
; 420  : 
; 421  : 	m_pIGraphInfo->SetSubGraphColor( m_nSubGraphIndex, 4, color.GetColor());

  0006b	8b 8e c4 00 00
	00		 mov	 ecx, DWORD PTR [esi+196]
  00071	ff 75 d4	 push	 DWORD PTR _color$[ebp+180]
  00074	6a 04		 push	 4
  00076	8b 01		 mov	 eax, DWORD PTR [ecx]
  00078	ff b6 e8 05 00
	00		 push	 DWORD PTR [esi+1512]
  0007e	ff 50 6c	 call	 DWORD PTR [eax+108]

; 422  : 
; 423  : 	m_btnColor5.SetColor( color.GetColor() );

  00081	8b 45 d4	 mov	 eax, DWORD PTR _color$[ebp+180]
  00084	8d 8e 80 01 00
	00		 lea	 ecx, DWORD PTR [esi+384]
  0008a	89 45 f0	 mov	 DWORD PTR $T2[ebp], eax
  0008d	8d 45 f0	 lea	 eax, DWORD PTR $T2[ebp]
  00090	50		 push	 eax
  00091	e8 00 00 00 00	 call	 ?SetColor@CColorButton@@QAEXABK@Z ; CColorButton::SetColor
; File C:\Program Files (x86)\Microsoft Visual Studio\2019\Community\VC\Tools\MSVC\14.29.30133\atlmfc\include\afxwin2.inl

; 114  : 	{ ASSERT(::IsWindow(m_hWnd)); ::InvalidateRect(m_hWnd, NULL, bErase); }

  00096	6a 01		 push	 1
  00098	6a 00		 push	 0
  0009a	ff b6 a0 01 00
	00		 push	 DWORD PTR [esi+416]
  000a0	ff 15 00 00 00
	00		 call	 DWORD PTR __imp__InvalidateRect@12
$LN6@OnBtnColor:
; File C:\Program Files (x86)\Microsoft Visual Studio\2019\Community\VC\Tools\MSVC\14.29.30133\atlmfc\include\afxdlgs.h

; 110  :     virtual ~CCommonDialog() {};

  000a6	8d 8d 20 ff ff
	ff		 lea	 ecx, DWORD PTR _color$[ebp]
  000ac	c7 85 20 ff ff
	ff 00 00 00 00	 mov	 DWORD PTR _color$[ebp], OFFSET ??_7CCommonDialog@@6B@
  000b6	e8 00 00 00 00	 call	 ??1CDialog@@UAE@XZ	; CDialog::~CDialog
$LN19@OnBtnColor:
; File D:\git\src\IBK\IBK_DRFN\ProjSrc\SrcChartEx\ChartAddIn\ChartEnvSetupDlgAddIn\ChartEnvSetupDlgAddIn\Setting_Special_Type_E.cpp

; 425  : }

  000bb	8b 4d f4	 mov	 ecx, DWORD PTR __$EHRec$[ebp]
  000be	64 89 0d 00 00
	00 00		 mov	 DWORD PTR fs:0, ecx
  000c5	59		 pop	 ecx
  000c6	5f		 pop	 edi
  000c7	5e		 pop	 esi
  000c8	8b e5		 mov	 esp, ebp
  000ca	5d		 pop	 ebp
  000cb	c3		 ret	 0
_TEXT	ENDS
;	COMDAT text$x
text$x	SEGMENT
__unwindfunclet$?OnBtnColor5@CSetting_Special_Type_E@@IAEXXZ$0:
  00000	8d 8d 20 ff ff
	ff		 lea	 ecx, DWORD PTR _color$[ebp]
  00006	e9 00 00 00 00	 jmp	 ??1CColorDialog@@UAE@XZ
  0000b	cc		 int	 3
  0000c	cc		 int	 3
  0000d	cc		 int	 3
  0000e	cc		 int	 3
  0000f	cc		 int	 3
__ehhandler$?OnBtnColor5@CSetting_Special_Type_E@@IAEXXZ:
  00010	90		 npad	 1
  00011	90		 npad	 1
  00012	8b 54 24 08	 mov	 edx, DWORD PTR [esp+8]
  00016	8d 42 0c	 lea	 eax, DWORD PTR [edx+12]
  00019	8b 8a 20 ff ff
	ff		 mov	 ecx, DWORD PTR [edx-224]
  0001f	33 c8		 xor	 ecx, eax
  00021	e8 00 00 00 00	 call	 @__security_check_cookie@4
  00026	b8 00 00 00 00	 mov	 eax, OFFSET __ehfuncinfo$?OnBtnColor5@CSetting_Special_Type_E@@IAEXXZ
  0002b	e9 00 00 00 00	 jmp	 ___CxxFrameHandler3
text$x	ENDS
?OnBtnColor5@CSetting_Special_Type_E@@IAEXXZ ENDP	; CSetting_Special_Type_E::OnBtnColor5
; Function compile flags: /Ogtp
; File D:\git\src\IBK\IBK_DRFN\ProjSrc\SrcChartEx\ChartAddIn\ChartEnvSetupDlgAddIn\ChartEnvSetupDlgAddIn\Setting_Special_Type_E.cpp
; File C:\Program Files (x86)\Microsoft Visual Studio\2019\Community\VC\Tools\MSVC\14.29.30133\atlmfc\include\afxwin2.inl
; File C:\Program Files (x86)\Microsoft Visual Studio\2019\Community\VC\Tools\MSVC\14.29.30133\atlmfc\include\afxdlgs.h
; File D:\git\src\IBK\IBK_DRFN\ProjSrc\SrcChartEx\ChartAddIn\ChartEnvSetupDlgAddIn\ChartEnvSetupDlgAddIn\Setting_Special_Type_E.cpp
;	COMDAT ?OnBtnColor4@CSetting_Special_Type_E@@IAEXXZ
_TEXT	SEGMENT
_color$ = -224						; size = 208
$T2 = -16						; size = 4
__$EHRec$ = -12						; size = 12
?OnBtnColor4@CSetting_Special_Type_E@@IAEXXZ PROC	; CSetting_Special_Type_E::OnBtnColor4, COMDAT
; _this$ = ecx

; 390  : {

  00000	55		 push	 ebp
  00001	8b ec		 mov	 ebp, esp
  00003	6a ff		 push	 -1
  00005	68 00 00 00 00	 push	 __ehhandler$?OnBtnColor4@CSetting_Special_Type_E@@IAEXXZ
  0000a	64 a1 00 00 00
	00		 mov	 eax, DWORD PTR fs:0
  00010	50		 push	 eax
  00011	81 ec d4 00 00
	00		 sub	 esp, 212		; 000000d4H
  00017	56		 push	 esi
  00018	57		 push	 edi
  00019	a1 00 00 00 00	 mov	 eax, DWORD PTR ___security_cookie
  0001e	33 c5		 xor	 eax, ebp
  00020	50		 push	 eax
  00021	8d 45 f4	 lea	 eax, DWORD PTR __$EHRec$[ebp]
  00024	64 a3 00 00 00
	00		 mov	 DWORD PTR fs:0, eax
  0002a	8b f1		 mov	 esi, ecx

; 391  : 	// TODO: Add your control notification handler code here
; 392  : 	if(m_nSubGraphIndex < 0) return;

  0002c	83 be e8 05 00
	00 00		 cmp	 DWORD PTR [esi+1512], 0
  00033	0f 8c 82 00 00
	00		 jl	 $LN19@OnBtnColor

; 393  : 	
; 394  : 	COLORREF crColor = m_btnColor4.GetColor();

  00039	8d 8e 08 02 00
	00		 lea	 ecx, DWORD PTR [esi+520]
  0003f	e8 00 00 00 00	 call	 ?GetColor@CColorButton@@QAEKXZ ; CColorButton::GetColor

; 395  : 	CColorDialog color(crColor, CC_FULLOPEN);

  00044	6a 00		 push	 0
  00046	6a 02		 push	 2
  00048	50		 push	 eax
  00049	8d 8d 20 ff ff
	ff		 lea	 ecx, DWORD PTR _color$[ebp]
  0004f	e8 00 00 00 00	 call	 ??0CColorDialog@@QAE@KKPAVCWnd@@@Z ; CColorDialog::CColorDialog

; 396  : 	if(color.DoModal() != IDOK) 

  00054	8d 8d 20 ff ff
	ff		 lea	 ecx, DWORD PTR _color$[ebp]
  0005a	c7 45 fc 00 00
	00 00		 mov	 DWORD PTR __$EHRec$[ebp+8], 0
  00061	e8 00 00 00 00	 call	 ?DoModal@CColorDialog@@UAEHXZ ; CColorDialog::DoModal
  00066	83 f8 01	 cmp	 eax, 1
  00069	75 3b		 jne	 SHORT $LN6@OnBtnColor

; 397  : 		return;
; 398  : 
; 399  : 	m_pIGraphInfo->SetSubGraphColor( m_nSubGraphIndex, 2, color.GetColor());

  0006b	8b 8e c4 00 00
	00		 mov	 ecx, DWORD PTR [esi+196]
  00071	ff 75 d4	 push	 DWORD PTR _color$[ebp+180]
  00074	6a 02		 push	 2
  00076	8b 01		 mov	 eax, DWORD PTR [ecx]
  00078	ff b6 e8 05 00
	00		 push	 DWORD PTR [esi+1512]
  0007e	ff 50 6c	 call	 DWORD PTR [eax+108]

; 400  : 
; 401  : 	m_btnColor4.SetColor( color.GetColor() );

  00081	8b 45 d4	 mov	 eax, DWORD PTR _color$[ebp+180]
  00084	8d 8e 08 02 00
	00		 lea	 ecx, DWORD PTR [esi+520]
  0008a	89 45 f0	 mov	 DWORD PTR $T2[ebp], eax
  0008d	8d 45 f0	 lea	 eax, DWORD PTR $T2[ebp]
  00090	50		 push	 eax
  00091	e8 00 00 00 00	 call	 ?SetColor@CColorButton@@QAEXABK@Z ; CColorButton::SetColor
; File C:\Program Files (x86)\Microsoft Visual Studio\2019\Community\VC\Tools\MSVC\14.29.30133\atlmfc\include\afxwin2.inl

; 114  : 	{ ASSERT(::IsWindow(m_hWnd)); ::InvalidateRect(m_hWnd, NULL, bErase); }

  00096	6a 01		 push	 1
  00098	6a 00		 push	 0
  0009a	ff b6 28 02 00
	00		 push	 DWORD PTR [esi+552]
  000a0	ff 15 00 00 00
	00		 call	 DWORD PTR __imp__InvalidateRect@12
$LN6@OnBtnColor:
; File C:\Program Files (x86)\Microsoft Visual Studio\2019\Community\VC\Tools\MSVC\14.29.30133\atlmfc\include\afxdlgs.h

; 110  :     virtual ~CCommonDialog() {};

  000a6	8d 8d 20 ff ff
	ff		 lea	 ecx, DWORD PTR _color$[ebp]
  000ac	c7 85 20 ff ff
	ff 00 00 00 00	 mov	 DWORD PTR _color$[ebp], OFFSET ??_7CCommonDialog@@6B@
  000b6	e8 00 00 00 00	 call	 ??1CDialog@@UAE@XZ	; CDialog::~CDialog
$LN19@OnBtnColor:
; File D:\git\src\IBK\IBK_DRFN\ProjSrc\SrcChartEx\ChartAddIn\ChartEnvSetupDlgAddIn\ChartEnvSetupDlgAddIn\Setting_Special_Type_E.cpp

; 403  : }

  000bb	8b 4d f4	 mov	 ecx, DWORD PTR __$EHRec$[ebp]
  000be	64 89 0d 00 00
	00 00		 mov	 DWORD PTR fs:0, ecx
  000c5	59		 pop	 ecx
  000c6	5f		 pop	 edi
  000c7	5e		 pop	 esi
  000c8	8b e5		 mov	 esp, ebp
  000ca	5d		 pop	 ebp
  000cb	c3		 ret	 0
_TEXT	ENDS
;	COMDAT text$x
text$x	SEGMENT
__unwindfunclet$?OnBtnColor4@CSetting_Special_Type_E@@IAEXXZ$0:
  00000	8d 8d 20 ff ff
	ff		 lea	 ecx, DWORD PTR _color$[ebp]
  00006	e9 00 00 00 00	 jmp	 ??1CColorDialog@@UAE@XZ
  0000b	cc		 int	 3
  0000c	cc		 int	 3
  0000d	cc		 int	 3
  0000e	cc		 int	 3
  0000f	cc		 int	 3
__ehhandler$?OnBtnColor4@CSetting_Special_Type_E@@IAEXXZ:
  00010	90		 npad	 1
  00011	90		 npad	 1
  00012	8b 54 24 08	 mov	 edx, DWORD PTR [esp+8]
  00016	8d 42 0c	 lea	 eax, DWORD PTR [edx+12]
  00019	8b 8a 20 ff ff
	ff		 mov	 ecx, DWORD PTR [edx-224]
  0001f	33 c8		 xor	 ecx, eax
  00021	e8 00 00 00 00	 call	 @__security_check_cookie@4
  00026	b8 00 00 00 00	 mov	 eax, OFFSET __ehfuncinfo$?OnBtnColor4@CSetting_Special_Type_E@@IAEXXZ
  0002b	e9 00 00 00 00	 jmp	 ___CxxFrameHandler3
text$x	ENDS
?OnBtnColor4@CSetting_Special_Type_E@@IAEXXZ ENDP	; CSetting_Special_Type_E::OnBtnColor4
; Function compile flags: /Ogtp
; File D:\git\src\IBK\IBK_DRFN\ProjSrc\SrcChartEx\ChartAddIn\ChartEnvSetupDlgAddIn\ChartEnvSetupDlgAddIn\Setting_Special_Type_E.cpp
; File C:\Program Files (x86)\Microsoft Visual Studio\2019\Community\VC\Tools\MSVC\14.29.30133\atlmfc\include\afxwin2.inl
; File C:\Program Files (x86)\Microsoft Visual Studio\2019\Community\VC\Tools\MSVC\14.29.30133\atlmfc\include\afxdlgs.h
; File D:\git\src\IBK\IBK_DRFN\ProjSrc\SrcChartEx\ChartAddIn\ChartEnvSetupDlgAddIn\ChartEnvSetupDlgAddIn\Setting_Special_Type_E.cpp
;	COMDAT ?OnBtnColor3@CSetting_Special_Type_E@@IAEXXZ
_TEXT	SEGMENT
_color$ = -224						; size = 208
$T2 = -16						; size = 4
__$EHRec$ = -12						; size = 12
?OnBtnColor3@CSetting_Special_Type_E@@IAEXXZ PROC	; CSetting_Special_Type_E::OnBtnColor3, COMDAT
; _this$ = ecx

; 367  : {

  00000	55		 push	 ebp
  00001	8b ec		 mov	 ebp, esp
  00003	6a ff		 push	 -1
  00005	68 00 00 00 00	 push	 __ehhandler$?OnBtnColor3@CSetting_Special_Type_E@@IAEXXZ
  0000a	64 a1 00 00 00
	00		 mov	 eax, DWORD PTR fs:0
  00010	50		 push	 eax
  00011	81 ec d4 00 00
	00		 sub	 esp, 212		; 000000d4H
  00017	56		 push	 esi
  00018	57		 push	 edi
  00019	a1 00 00 00 00	 mov	 eax, DWORD PTR ___security_cookie
  0001e	33 c5		 xor	 eax, ebp
  00020	50		 push	 eax
  00021	8d 45 f4	 lea	 eax, DWORD PTR __$EHRec$[ebp]
  00024	64 a3 00 00 00
	00		 mov	 DWORD PTR fs:0, eax
  0002a	8b f1		 mov	 esi, ecx

; 368  : 	// TODO: Add your control notification handler code here
; 369  : 	if(m_nSubGraphIndex < 0) return;

  0002c	83 be e8 05 00
	00 00		 cmp	 DWORD PTR [esi+1512], 0
  00033	0f 8c 82 00 00
	00		 jl	 $LN19@OnBtnColor

; 370  : 	
; 371  : 	COLORREF crColor = m_btnColor3.GetColor();

  00039	8d 8e 90 02 00
	00		 lea	 ecx, DWORD PTR [esi+656]
  0003f	e8 00 00 00 00	 call	 ?GetColor@CColorButton@@QAEKXZ ; CColorButton::GetColor

; 372  : 	CColorDialog color(crColor, CC_FULLOPEN);

  00044	6a 00		 push	 0
  00046	6a 02		 push	 2
  00048	50		 push	 eax
  00049	8d 8d 20 ff ff
	ff		 lea	 ecx, DWORD PTR _color$[ebp]
  0004f	e8 00 00 00 00	 call	 ??0CColorDialog@@QAE@KKPAVCWnd@@@Z ; CColorDialog::CColorDialog

; 373  : 	if(color.DoModal() != IDOK) 

  00054	8d 8d 20 ff ff
	ff		 lea	 ecx, DWORD PTR _color$[ebp]
  0005a	c7 45 fc 00 00
	00 00		 mov	 DWORD PTR __$EHRec$[ebp+8], 0
  00061	e8 00 00 00 00	 call	 ?DoModal@CColorDialog@@UAEHXZ ; CColorDialog::DoModal
  00066	83 f8 01	 cmp	 eax, 1
  00069	75 3b		 jne	 SHORT $LN6@OnBtnColor

; 374  : 		return;
; 375  : 
; 376  : 	m_pIGraphInfo->SetSubGraphColor( m_nSubGraphIndex, 5, color.GetColor());

  0006b	8b 8e c4 00 00
	00		 mov	 ecx, DWORD PTR [esi+196]
  00071	ff 75 d4	 push	 DWORD PTR _color$[ebp+180]
  00074	6a 05		 push	 5
  00076	8b 01		 mov	 eax, DWORD PTR [ecx]
  00078	ff b6 e8 05 00
	00		 push	 DWORD PTR [esi+1512]
  0007e	ff 50 6c	 call	 DWORD PTR [eax+108]

; 377  : 
; 378  : 	m_btnColor3.SetColor( color.GetColor() );

  00081	8b 45 d4	 mov	 eax, DWORD PTR _color$[ebp+180]
  00084	8d 8e 90 02 00
	00		 lea	 ecx, DWORD PTR [esi+656]
  0008a	89 45 f0	 mov	 DWORD PTR $T2[ebp], eax
  0008d	8d 45 f0	 lea	 eax, DWORD PTR $T2[ebp]
  00090	50		 push	 eax
  00091	e8 00 00 00 00	 call	 ?SetColor@CColorButton@@QAEXABK@Z ; CColorButton::SetColor
; File C:\Program Files (x86)\Microsoft Visual Studio\2019\Community\VC\Tools\MSVC\14.29.30133\atlmfc\include\afxwin2.inl

; 114  : 	{ ASSERT(::IsWindow(m_hWnd)); ::InvalidateRect(m_hWnd, NULL, bErase); }

  00096	6a 01		 push	 1
  00098	6a 00		 push	 0
  0009a	ff b6 b0 02 00
	00		 push	 DWORD PTR [esi+688]
  000a0	ff 15 00 00 00
	00		 call	 DWORD PTR __imp__InvalidateRect@12
$LN6@OnBtnColor:
; File C:\Program Files (x86)\Microsoft Visual Studio\2019\Community\VC\Tools\MSVC\14.29.30133\atlmfc\include\afxdlgs.h

; 110  :     virtual ~CCommonDialog() {};

  000a6	8d 8d 20 ff ff
	ff		 lea	 ecx, DWORD PTR _color$[ebp]
  000ac	c7 85 20 ff ff
	ff 00 00 00 00	 mov	 DWORD PTR _color$[ebp], OFFSET ??_7CCommonDialog@@6B@
  000b6	e8 00 00 00 00	 call	 ??1CDialog@@UAE@XZ	; CDialog::~CDialog
$LN19@OnBtnColor:
; File D:\git\src\IBK\IBK_DRFN\ProjSrc\SrcChartEx\ChartAddIn\ChartEnvSetupDlgAddIn\ChartEnvSetupDlgAddIn\Setting_Special_Type_E.cpp

; 380  : }

  000bb	8b 4d f4	 mov	 ecx, DWORD PTR __$EHRec$[ebp]
  000be	64 89 0d 00 00
	00 00		 mov	 DWORD PTR fs:0, ecx
  000c5	59		 pop	 ecx
  000c6	5f		 pop	 edi
  000c7	5e		 pop	 esi
  000c8	8b e5		 mov	 esp, ebp
  000ca	5d		 pop	 ebp
  000cb	c3		 ret	 0
_TEXT	ENDS
;	COMDAT text$x
text$x	SEGMENT
__unwindfunclet$?OnBtnColor3@CSetting_Special_Type_E@@IAEXXZ$0:
  00000	8d 8d 20 ff ff
	ff		 lea	 ecx, DWORD PTR _color$[ebp]
  00006	e9 00 00 00 00	 jmp	 ??1CColorDialog@@UAE@XZ
  0000b	cc		 int	 3
  0000c	cc		 int	 3
  0000d	cc		 int	 3
  0000e	cc		 int	 3
  0000f	cc		 int	 3
__ehhandler$?OnBtnColor3@CSetting_Special_Type_E@@IAEXXZ:
  00010	90		 npad	 1
  00011	90		 npad	 1
  00012	8b 54 24 08	 mov	 edx, DWORD PTR [esp+8]
  00016	8d 42 0c	 lea	 eax, DWORD PTR [edx+12]
  00019	8b 8a 20 ff ff
	ff		 mov	 ecx, DWORD PTR [edx-224]
  0001f	33 c8		 xor	 ecx, eax
  00021	e8 00 00 00 00	 call	 @__security_check_cookie@4
  00026	b8 00 00 00 00	 mov	 eax, OFFSET __ehfuncinfo$?OnBtnColor3@CSetting_Special_Type_E@@IAEXXZ
  0002b	e9 00 00 00 00	 jmp	 ___CxxFrameHandler3
text$x	ENDS
?OnBtnColor3@CSetting_Special_Type_E@@IAEXXZ ENDP	; CSetting_Special_Type_E::OnBtnColor3
; Function compile flags: /Ogtp
; File D:\git\src\IBK\IBK_DRFN\ProjSrc\SrcChartEx\ChartAddIn\ChartEnvSetupDlgAddIn\ChartEnvSetupDlgAddIn\Setting_Special_Type_E.cpp
; File C:\Program Files (x86)\Microsoft Visual Studio\2019\Community\VC\Tools\MSVC\14.29.30133\atlmfc\include\afxwin2.inl
; File C:\Program Files (x86)\Microsoft Visual Studio\2019\Community\VC\Tools\MSVC\14.29.30133\atlmfc\include\afxdlgs.h
; File D:\git\src\IBK\IBK_DRFN\ProjSrc\SrcChartEx\ChartAddIn\ChartEnvSetupDlgAddIn\ChartEnvSetupDlgAddIn\Setting_Special_Type_E.cpp
;	COMDAT ?OnBtnColor2@CSetting_Special_Type_E@@IAEXXZ
_TEXT	SEGMENT
_color$ = -224						; size = 208
$T2 = -16						; size = 4
__$EHRec$ = -12						; size = 12
?OnBtnColor2@CSetting_Special_Type_E@@IAEXXZ PROC	; CSetting_Special_Type_E::OnBtnColor2, COMDAT
; _this$ = ecx

; 345  : {

  00000	55		 push	 ebp
  00001	8b ec		 mov	 ebp, esp
  00003	6a ff		 push	 -1
  00005	68 00 00 00 00	 push	 __ehhandler$?OnBtnColor2@CSetting_Special_Type_E@@IAEXXZ
  0000a	64 a1 00 00 00
	00		 mov	 eax, DWORD PTR fs:0
  00010	50		 push	 eax
  00011	81 ec d4 00 00
	00		 sub	 esp, 212		; 000000d4H
  00017	56		 push	 esi
  00018	57		 push	 edi
  00019	a1 00 00 00 00	 mov	 eax, DWORD PTR ___security_cookie
  0001e	33 c5		 xor	 eax, ebp
  00020	50		 push	 eax
  00021	8d 45 f4	 lea	 eax, DWORD PTR __$EHRec$[ebp]
  00024	64 a3 00 00 00
	00		 mov	 DWORD PTR fs:0, eax
  0002a	8b f1		 mov	 esi, ecx

; 346  : 	// TODO: Add your control notification handler code here
; 347  : 	if(m_nSubGraphIndex < 0) return;

  0002c	83 be e8 05 00
	00 00		 cmp	 DWORD PTR [esi+1512], 0
  00033	0f 8c 82 00 00
	00		 jl	 $LN19@OnBtnColor

; 348  : 	
; 349  : 	COLORREF crColor = m_btnColor2.GetColor();

  00039	8d 8e 18 03 00
	00		 lea	 ecx, DWORD PTR [esi+792]
  0003f	e8 00 00 00 00	 call	 ?GetColor@CColorButton@@QAEKXZ ; CColorButton::GetColor

; 350  : 	CColorDialog color(crColor, CC_FULLOPEN);

  00044	6a 00		 push	 0
  00046	6a 02		 push	 2
  00048	50		 push	 eax
  00049	8d 8d 20 ff ff
	ff		 lea	 ecx, DWORD PTR _color$[ebp]
  0004f	e8 00 00 00 00	 call	 ??0CColorDialog@@QAE@KKPAVCWnd@@@Z ; CColorDialog::CColorDialog

; 351  : 	if(color.DoModal() != IDOK) 

  00054	8d 8d 20 ff ff
	ff		 lea	 ecx, DWORD PTR _color$[ebp]
  0005a	c7 45 fc 00 00
	00 00		 mov	 DWORD PTR __$EHRec$[ebp+8], 0
  00061	e8 00 00 00 00	 call	 ?DoModal@CColorDialog@@UAEHXZ ; CColorDialog::DoModal
  00066	83 f8 01	 cmp	 eax, 1
  00069	75 3b		 jne	 SHORT $LN6@OnBtnColor

; 352  : 		return;
; 353  : 
; 354  : 	m_pIGraphInfo->SetSubGraphColor( m_nSubGraphIndex, 3, color.GetColor());

  0006b	8b 8e c4 00 00
	00		 mov	 ecx, DWORD PTR [esi+196]
  00071	ff 75 d4	 push	 DWORD PTR _color$[ebp+180]
  00074	6a 03		 push	 3
  00076	8b 01		 mov	 eax, DWORD PTR [ecx]
  00078	ff b6 e8 05 00
	00		 push	 DWORD PTR [esi+1512]
  0007e	ff 50 6c	 call	 DWORD PTR [eax+108]

; 355  : 
; 356  : 	m_btnColor2.SetColor( color.GetColor() );

  00081	8b 45 d4	 mov	 eax, DWORD PTR _color$[ebp+180]
  00084	8d 8e 18 03 00
	00		 lea	 ecx, DWORD PTR [esi+792]
  0008a	89 45 f0	 mov	 DWORD PTR $T2[ebp], eax
  0008d	8d 45 f0	 lea	 eax, DWORD PTR $T2[ebp]
  00090	50		 push	 eax
  00091	e8 00 00 00 00	 call	 ?SetColor@CColorButton@@QAEXABK@Z ; CColorButton::SetColor
; File C:\Program Files (x86)\Microsoft Visual Studio\2019\Community\VC\Tools\MSVC\14.29.30133\atlmfc\include\afxwin2.inl

; 114  : 	{ ASSERT(::IsWindow(m_hWnd)); ::InvalidateRect(m_hWnd, NULL, bErase); }

  00096	6a 01		 push	 1
  00098	6a 00		 push	 0
  0009a	ff b6 38 03 00
	00		 push	 DWORD PTR [esi+824]
  000a0	ff 15 00 00 00
	00		 call	 DWORD PTR __imp__InvalidateRect@12
$LN6@OnBtnColor:
; File C:\Program Files (x86)\Microsoft Visual Studio\2019\Community\VC\Tools\MSVC\14.29.30133\atlmfc\include\afxdlgs.h

; 110  :     virtual ~CCommonDialog() {};

  000a6	8d 8d 20 ff ff
	ff		 lea	 ecx, DWORD PTR _color$[ebp]
  000ac	c7 85 20 ff ff
	ff 00 00 00 00	 mov	 DWORD PTR _color$[ebp], OFFSET ??_7CCommonDialog@@6B@
  000b6	e8 00 00 00 00	 call	 ??1CDialog@@UAE@XZ	; CDialog::~CDialog
$LN19@OnBtnColor:
; File D:\git\src\IBK\IBK_DRFN\ProjSrc\SrcChartEx\ChartAddIn\ChartEnvSetupDlgAddIn\ChartEnvSetupDlgAddIn\Setting_Special_Type_E.cpp

; 358  : }

  000bb	8b 4d f4	 mov	 ecx, DWORD PTR __$EHRec$[ebp]
  000be	64 89 0d 00 00
	00 00		 mov	 DWORD PTR fs:0, ecx
  000c5	59		 pop	 ecx
  000c6	5f		 pop	 edi
  000c7	5e		 pop	 esi
  000c8	8b e5		 mov	 esp, ebp
  000ca	5d		 pop	 ebp
  000cb	c3		 ret	 0
_TEXT	ENDS
;	COMDAT text$x
text$x	SEGMENT
__unwindfunclet$?OnBtnColor2@CSetting_Special_Type_E@@IAEXXZ$0:
  00000	8d 8d 20 ff ff
	ff		 lea	 ecx, DWORD PTR _color$[ebp]
  00006	e9 00 00 00 00	 jmp	 ??1CColorDialog@@UAE@XZ
  0000b	cc		 int	 3
  0000c	cc		 int	 3
  0000d	cc		 int	 3
  0000e	cc		 int	 3
  0000f	cc		 int	 3
__ehhandler$?OnBtnColor2@CSetting_Special_Type_E@@IAEXXZ:
  00010	90		 npad	 1
  00011	90		 npad	 1
  00012	8b 54 24 08	 mov	 edx, DWORD PTR [esp+8]
  00016	8d 42 0c	 lea	 eax, DWORD PTR [edx+12]
  00019	8b 8a 20 ff ff
	ff		 mov	 ecx, DWORD PTR [edx-224]
  0001f	33 c8		 xor	 ecx, eax
  00021	e8 00 00 00 00	 call	 @__security_check_cookie@4
  00026	b8 00 00 00 00	 mov	 eax, OFFSET __ehfuncinfo$?OnBtnColor2@CSetting_Special_Type_E@@IAEXXZ
  0002b	e9 00 00 00 00	 jmp	 ___CxxFrameHandler3
text$x	ENDS
?OnBtnColor2@CSetting_Special_Type_E@@IAEXXZ ENDP	; CSetting_Special_Type_E::OnBtnColor2
; Function compile flags: /Ogtp
; File D:\git\src\IBK\IBK_DRFN\ProjSrc\SrcChartEx\ChartAddIn\ChartEnvSetupDlgAddIn\ChartEnvSetupDlgAddIn\Setting_Special_Type_E.cpp
; File C:\Program Files (x86)\Microsoft Visual Studio\2019\Community\VC\Tools\MSVC\14.29.30133\atlmfc\include\afxwin2.inl
; File C:\Program Files (x86)\Microsoft Visual Studio\2019\Community\VC\Tools\MSVC\14.29.30133\atlmfc\include\afxdlgs.h
; File D:\git\src\IBK\IBK_DRFN\ProjSrc\SrcChartEx\ChartAddIn\ChartEnvSetupDlgAddIn\ChartEnvSetupDlgAddIn\Setting_Special_Type_E.cpp
;	COMDAT ?OnBtnColor1@CSetting_Special_Type_E@@IAEXXZ
_TEXT	SEGMENT
_color$ = -224						; size = 208
$T2 = -16						; size = 4
__$EHRec$ = -12						; size = 12
?OnBtnColor1@CSetting_Special_Type_E@@IAEXXZ PROC	; CSetting_Special_Type_E::OnBtnColor1, COMDAT
; _this$ = ecx

; 323  : {

  00000	55		 push	 ebp
  00001	8b ec		 mov	 ebp, esp
  00003	6a ff		 push	 -1
  00005	68 00 00 00 00	 push	 __ehhandler$?OnBtnColor1@CSetting_Special_Type_E@@IAEXXZ
  0000a	64 a1 00 00 00
	00		 mov	 eax, DWORD PTR fs:0
  00010	50		 push	 eax
  00011	81 ec d4 00 00
	00		 sub	 esp, 212		; 000000d4H
  00017	56		 push	 esi
  00018	57		 push	 edi
  00019	a1 00 00 00 00	 mov	 eax, DWORD PTR ___security_cookie
  0001e	33 c5		 xor	 eax, ebp
  00020	50		 push	 eax
  00021	8d 45 f4	 lea	 eax, DWORD PTR __$EHRec$[ebp]
  00024	64 a3 00 00 00
	00		 mov	 DWORD PTR fs:0, eax
  0002a	8b f1		 mov	 esi, ecx

; 324  : 	// TODO: Add your control notification handler code here
; 325  : 	if(m_nSubGraphIndex < 0) return;

  0002c	83 be e8 05 00
	00 00		 cmp	 DWORD PTR [esi+1512], 0
  00033	0f 8c 82 00 00
	00		 jl	 $LN19@OnBtnColor

; 326  : 	
; 327  : 	COLORREF crColor = m_btnColor1.GetColor();

  00039	8d 8e a0 03 00
	00		 lea	 ecx, DWORD PTR [esi+928]
  0003f	e8 00 00 00 00	 call	 ?GetColor@CColorButton@@QAEKXZ ; CColorButton::GetColor

; 328  : 	CColorDialog color(crColor, CC_FULLOPEN);

  00044	6a 00		 push	 0
  00046	6a 02		 push	 2
  00048	50		 push	 eax
  00049	8d 8d 20 ff ff
	ff		 lea	 ecx, DWORD PTR _color$[ebp]
  0004f	e8 00 00 00 00	 call	 ??0CColorDialog@@QAE@KKPAVCWnd@@@Z ; CColorDialog::CColorDialog

; 329  : 	if(color.DoModal() != IDOK) 

  00054	8d 8d 20 ff ff
	ff		 lea	 ecx, DWORD PTR _color$[ebp]
  0005a	c7 45 fc 00 00
	00 00		 mov	 DWORD PTR __$EHRec$[ebp+8], 0
  00061	e8 00 00 00 00	 call	 ?DoModal@CColorDialog@@UAEHXZ ; CColorDialog::DoModal
  00066	83 f8 01	 cmp	 eax, 1
  00069	75 3b		 jne	 SHORT $LN6@OnBtnColor

; 330  : 		return;
; 331  : 
; 332  : 	m_pIGraphInfo->SetSubGraphColor( m_nSubGraphIndex, 1, color.GetColor());

  0006b	8b 8e c4 00 00
	00		 mov	 ecx, DWORD PTR [esi+196]
  00071	ff 75 d4	 push	 DWORD PTR _color$[ebp+180]
  00074	6a 01		 push	 1
  00076	8b 01		 mov	 eax, DWORD PTR [ecx]
  00078	ff b6 e8 05 00
	00		 push	 DWORD PTR [esi+1512]
  0007e	ff 50 6c	 call	 DWORD PTR [eax+108]

; 333  : 
; 334  : 	m_btnColor1.SetColor( color.GetColor() );

  00081	8b 45 d4	 mov	 eax, DWORD PTR _color$[ebp+180]
  00084	8d 8e a0 03 00
	00		 lea	 ecx, DWORD PTR [esi+928]
  0008a	89 45 f0	 mov	 DWORD PTR $T2[ebp], eax
  0008d	8d 45 f0	 lea	 eax, DWORD PTR $T2[ebp]
  00090	50		 push	 eax
  00091	e8 00 00 00 00	 call	 ?SetColor@CColorButton@@QAEXABK@Z ; CColorButton::SetColor
; File C:\Program Files (x86)\Microsoft Visual Studio\2019\Community\VC\Tools\MSVC\14.29.30133\atlmfc\include\afxwin2.inl

; 114  : 	{ ASSERT(::IsWindow(m_hWnd)); ::InvalidateRect(m_hWnd, NULL, bErase); }

  00096	6a 01		 push	 1
  00098	6a 00		 push	 0
  0009a	ff b6 c0 03 00
	00		 push	 DWORD PTR [esi+960]
  000a0	ff 15 00 00 00
	00		 call	 DWORD PTR __imp__InvalidateRect@12
$LN6@OnBtnColor:
; File C:\Program Files (x86)\Microsoft Visual Studio\2019\Community\VC\Tools\MSVC\14.29.30133\atlmfc\include\afxdlgs.h

; 110  :     virtual ~CCommonDialog() {};

  000a6	8d 8d 20 ff ff
	ff		 lea	 ecx, DWORD PTR _color$[ebp]
  000ac	c7 85 20 ff ff
	ff 00 00 00 00	 mov	 DWORD PTR _color$[ebp], OFFSET ??_7CCommonDialog@@6B@
  000b6	e8 00 00 00 00	 call	 ??1CDialog@@UAE@XZ	; CDialog::~CDialog
$LN19@OnBtnColor:
; File D:\git\src\IBK\IBK_DRFN\ProjSrc\SrcChartEx\ChartAddIn\ChartEnvSetupDlgAddIn\ChartEnvSetupDlgAddIn\Setting_Special_Type_E.cpp

; 336  : }

  000bb	8b 4d f4	 mov	 ecx, DWORD PTR __$EHRec$[ebp]
  000be	64 89 0d 00 00
	00 00		 mov	 DWORD PTR fs:0, ecx
  000c5	59		 pop	 ecx
  000c6	5f		 pop	 edi
  000c7	5e		 pop	 esi
  000c8	8b e5		 mov	 esp, ebp
  000ca	5d		 pop	 ebp
  000cb	c3		 ret	 0
_TEXT	ENDS
;	COMDAT text$x
text$x	SEGMENT
__unwindfunclet$?OnBtnColor1@CSetting_Special_Type_E@@IAEXXZ$0:
  00000	8d 8d 20 ff ff
	ff		 lea	 ecx, DWORD PTR _color$[ebp]
  00006	e9 00 00 00 00	 jmp	 ??1CColorDialog@@UAE@XZ
  0000b	cc		 int	 3
  0000c	cc		 int	 3
  0000d	cc		 int	 3
  0000e	cc		 int	 3
  0000f	cc		 int	 3
__ehhandler$?OnBtnColor1@CSetting_Special_Type_E@@IAEXXZ:
  00010	90		 npad	 1
  00011	90		 npad	 1
  00012	8b 54 24 08	 mov	 edx, DWORD PTR [esp+8]
  00016	8d 42 0c	 lea	 eax, DWORD PTR [edx+12]
  00019	8b 8a 20 ff ff
	ff		 mov	 ecx, DWORD PTR [edx-224]
  0001f	33 c8		 xor	 ecx, eax
  00021	e8 00 00 00 00	 call	 @__security_check_cookie@4
  00026	b8 00 00 00 00	 mov	 eax, OFFSET __ehfuncinfo$?OnBtnColor1@CSetting_Special_Type_E@@IAEXXZ
  0002b	e9 00 00 00 00	 jmp	 ___CxxFrameHandler3
text$x	ENDS
?OnBtnColor1@CSetting_Special_Type_E@@IAEXXZ ENDP	; CSetting_Special_Type_E::OnBtnColor1
; Function compile flags: /Ogtp
; File D:\git\src\IBK\IBK_DRFN\ProjSrc\SrcChartEx\ChartAddIn\ChartEnvSetupDlgAddIn\ChartEnvSetupDlgAddIn\Setting_Special_Type_E.cpp
;	COMDAT ?OnInitDialog@CSetting_Special_Type_E@@MAEHXZ
_TEXT	SEGMENT
?OnInitDialog@CSetting_Special_Type_E@@MAEHXZ PROC	; CSetting_Special_Type_E::OnInitDialog, COMDAT
; _this$ = ecx

; 83   : {

  00000	56		 push	 esi
  00001	8b f1		 mov	 esi, ecx

; 84   : 	CDialog::OnInitDialog();

  00003	e8 00 00 00 00	 call	 ?OnInitDialog@CDialog@@UAEHXZ ; CDialog::OnInitDialog

; 85   : 	
; 86   : 	// TODO: Add extra initialization here
; 87   : 	if( !m_pIGraphInfo) return TRUE;

  00008	83 be c4 00 00
	00 00		 cmp	 DWORD PTR [esi+196], 0
  0000f	74 0c		 je	 SHORT $LN4@OnInitDial

; 88   : 	Initial( NULL);

  00011	8b 06		 mov	 eax, DWORD PTR [esi]
  00013	8b ce		 mov	 ecx, esi
  00015	6a 00		 push	 0
  00017	ff 90 94 01 00
	00		 call	 DWORD PTR [eax+404]
$LN4@OnInitDial:

; 89   : 
; 90   : 	return TRUE;  // return TRUE unless you set the focus to a control
; 91   : 	              // EXCEPTION: OCX Property Pages should return FALSE
; 92   : }

  0001d	b8 01 00 00 00	 mov	 eax, 1
  00022	5e		 pop	 esi
  00023	c3		 ret	 0
?OnInitDialog@CSetting_Special_Type_E@@MAEHXZ ENDP	; CSetting_Special_Type_E::OnInitDialog
_TEXT	ENDS
; Function compile flags: /Ogtp
; File D:\git\src\IBK\IBK_DRFN\ProjSrc\SrcChartEx\ChartAddIn\ChartEnvSetupDlgAddIn\ChartEnvSetupDlgAddIn\Setting_Special_Type_E.cpp
; File D:\git\src\IBK\IBK_DRFN\ProjSrc\SrcChartEx\ChartAddIn\ChartEnvSetupDlgAddIn\Include_AddIn_135914\I135914\_IString.h
; File D:\git\src\IBK\IBK_DRFN\ProjSrc\SrcChartEx\ChartAddIn\ChartEnvSetupDlgAddIn\ChartEnvSetupDlgAddIn\Setting_Special_Type_E.cpp
; File D:\git\src\IBK\IBK_DRFN\ProjSrc\SrcChartEx\ChartAddIn\ChartEnvSetupDlgAddIn\Include_AddIn_135914\I135914\_IString.h
; File D:\git\src\IBK\IBK_DRFN\ProjSrc\SrcChartEx\ChartAddIn\ChartEnvSetupDlgAddIn\ChartEnvSetupDlgAddIn\Setting_Special_Type_E.cpp
;	COMDAT ?OnApply@CSetting_Special_Type_E@@UAEHPAUIGraphInfo135914@@@Z
_TEXT	SEGMENT
_szIndicatorName$2 = -36				; size = 8
_dNewData$3 = -36					; size = 8
_dData$4 = -28						; size = 8
_szConditionData$5 = -20				; size = 4
_psnCnd$6 = -16						; size = 4
__$EHRec$ = -12						; size = 12
_p_pIGraphInfo$ = 8					; size = 4
?OnApply@CSetting_Special_Type_E@@UAEHPAUIGraphInfo135914@@@Z PROC ; CSetting_Special_Type_E::OnApply, COMDAT
; _this$ = ecx

; 230  : {

  00000	55		 push	 ebp
  00001	8b ec		 mov	 ebp, esp
  00003	6a ff		 push	 -1
  00005	68 00 00 00 00	 push	 __ehhandler$?OnApply@CSetting_Special_Type_E@@UAEHPAUIGraphInfo135914@@@Z
  0000a	64 a1 00 00 00
	00		 mov	 eax, DWORD PTR fs:0
  00010	50		 push	 eax
  00011	83 ec 18	 sub	 esp, 24			; 00000018H
  00014	53		 push	 ebx
  00015	56		 push	 esi
  00016	57		 push	 edi
  00017	a1 00 00 00 00	 mov	 eax, DWORD PTR ___security_cookie
  0001c	33 c5		 xor	 eax, ebp
  0001e	50		 push	 eax
  0001f	8d 45 f4	 lea	 eax, DWORD PTR __$EHRec$[ebp]
  00022	64 a3 00 00 00
	00		 mov	 DWORD PTR fs:0, eax
  00028	8b f1		 mov	 esi, ecx

; 231  : 	if(p_pIGraphInfo == NULL) return FALSE;

  0002a	83 7d 08 00	 cmp	 DWORD PTR _p_pIGraphInfo$[ebp], 0
  0002e	75 16		 jne	 SHORT $LN2@OnApply
  00030	33 c0		 xor	 eax, eax

; 284  : }

  00032	8b 4d f4	 mov	 ecx, DWORD PTR __$EHRec$[ebp]
  00035	64 89 0d 00 00
	00 00		 mov	 DWORD PTR fs:0, ecx
  0003c	59		 pop	 ecx
  0003d	5f		 pop	 edi
  0003e	5e		 pop	 esi
  0003f	5b		 pop	 ebx
  00040	8b e5		 mov	 esp, ebp
  00042	5d		 pop	 ebp
  00043	c2 04 00	 ret	 4
$LN2@OnApply:

; 232  : 	
; 233  : 	UpdateData();

  00046	6a 01		 push	 1
  00048	e8 00 00 00 00	 call	 ?UpdateData@CWnd@@QAEHH@Z ; CWnd::UpdateData

; 234  : 
; 235  : 	IDoubleList *pIDblCnd = m_pIGraphInfo->GetCommonCalculateConditionList();

  0004d	8b 8e c4 00 00
	00		 mov	 ecx, DWORD PTR [esi+196]
  00053	8b 01		 mov	 eax, DWORD PTR [ecx]
  00055	ff 50 10	 call	 DWORD PTR [eax+16]
  00058	8b f8		 mov	 edi, eax

; 236  : 	if( pIDblCnd)

  0005a	85 ff		 test	 edi, edi
  0005c	0f 84 17 01 00
	00		 je	 $LN3@OnApply

; 237  : 	{
; 238  : 		double dData = 0;
; 239  : 		POSITION psnCnd = pIDblCnd->GetHeadPosition();

  00062	8b 17		 mov	 edx, DWORD PTR [edi]
  00064	0f 57 c0	 xorps	 xmm0, xmm0
  00067	8b cf		 mov	 ecx, edi
  00069	f2 0f 11 45 e4	 movsd	 QWORD PTR _dData$4[ebp], xmm0
  0006e	ff 52 34	 call	 DWORD PTR [edx+52]
  00071	89 45 f0	 mov	 DWORD PTR _psnCnd$6[ebp], eax

; 240  : 		if( psnCnd)

  00074	85 c0		 test	 eax, eax
  00076	0f 84 f7 00 00
	00		 je	 $LN4@OnApply

; 241  : 		{
; 242  : 			CString szConditionData;

  0007c	8d 4d ec	 lea	 ecx, DWORD PTR _szConditionData$5[ebp]
  0007f	ff 15 00 00 00
	00		 call	 DWORD PTR __imp_??0?$CStringT@DV?$StrTraitMFC_DLL@DV?$ChTraitsCRT@D@ATL@@@@@ATL@@QAE@XZ

; 243  : 			m_edtCond1.GetWindowText( szConditionData);

  00085	8d 45 ec	 lea	 eax, DWORD PTR _szConditionData$5[ebp]
  00088	c7 45 fc 00 00
	00 00		 mov	 DWORD PTR __$EHRec$[ebp+8], 0
  0008f	50		 push	 eax
  00090	8d 8e 38 05 00
	00		 lea	 ecx, DWORD PTR [esi+1336]
  00096	e8 00 00 00 00	 call	 ?GetWindowTextA@CWnd@@QBEXAAV?$CStringT@DV?$StrTraitMFC_DLL@DV?$ChTraitsCRT@D@ATL@@@@@ATL@@@Z ; CWnd::GetWindowTextA

; 244  : 			double dNewData = atof( szConditionData);

  0009b	ff 75 ec	 push	 DWORD PTR _szConditionData$5[ebp]
  0009e	ff 15 00 00 00
	00		 call	 DWORD PTR __imp__atof

; 245  : 
; 246  : 			pIDblCnd->GetAt( psnCnd, dData);

  000a4	8b 07		 mov	 eax, DWORD PTR [edi]
  000a6	8d 4d e4	 lea	 ecx, DWORD PTR _dData$4[ebp]
  000a9	83 c4 04	 add	 esp, 4
  000ac	dd 5d dc	 fstp	 QWORD PTR _dNewData$3[ebp]
  000af	51		 push	 ecx
  000b0	ff 75 f0	 push	 DWORD PTR _psnCnd$6[ebp]
  000b3	8b cf		 mov	 ecx, edi
  000b5	ff 50 44	 call	 DWORD PTR [eax+68]

; 247  : 			if( !m_bDoCalculate ) m_bDoCalculate = ( dData != dNewData);

  000b8	80 be c9 00 00
	00 00		 cmp	 BYTE PTR [esi+201], 0
  000bf	f2 0f 10 4d dc	 movsd	 xmm1, QWORD PTR _dNewData$3[ebp]
  000c4	75 1b		 jne	 SHORT $LN5@OnApply
  000c6	f2 0f 10 45 e4	 movsd	 xmm0, QWORD PTR _dData$4[ebp]
  000cb	66 0f 2e c1	 ucomisd xmm0, xmm1
  000cf	9f		 lahf
  000d0	f6 c4 44	 test	 ah, 68			; 00000044H
  000d3	7b 04		 jnp	 SHORT $LN11@OnApply
  000d5	b0 01		 mov	 al, 1
  000d7	eb 02		 jmp	 SHORT $LN12@OnApply
$LN11@OnApply:
  000d9	32 c0		 xor	 al, al
$LN12@OnApply:
  000db	88 86 c9 00 00
	00		 mov	 BYTE PTR [esi+201], al
$LN5@OnApply:

; 248  : 			pIDblCnd->SetAt( psnCnd, dNewData);

  000e1	8b 07		 mov	 eax, DWORD PTR [edi]
  000e3	83 ec 08	 sub	 esp, 8
  000e6	8b cf		 mov	 ecx, edi
  000e8	f2 0f 11 0c 24	 movsd	 QWORD PTR [esp], xmm1
  000ed	ff 75 f0	 push	 DWORD PTR _psnCnd$6[ebp]
  000f0	ff 50 48	 call	 DWORD PTR [eax+72]

; 249  : //2006.09.28 , ASH    
; 250  : 			pIDblCnd->GetNext( psnCnd, dNewData);

  000f3	8b 07		 mov	 eax, DWORD PTR [edi]
  000f5	8d 4d dc	 lea	 ecx, DWORD PTR _dNewData$3[ebp]
  000f8	51		 push	 ecx
  000f9	8d 4d f0	 lea	 ecx, DWORD PTR _psnCnd$6[ebp]
  000fc	51		 push	 ecx
  000fd	8b cf		 mov	 ecx, edi
  000ff	ff 50 3c	 call	 DWORD PTR [eax+60]

; 251  : 			if( psnCnd)

  00102	8b 4d f0	 mov	 ecx, DWORD PTR _psnCnd$6[ebp]
  00105	85 c9		 test	 ecx, ecx
  00107	74 5a		 je	 SHORT $LN7@OnApply

; 252  : 			{
; 253  : 				pIDblCnd->GetAt( psnCnd, dData);

  00109	8b 07		 mov	 eax, DWORD PTR [edi]
  0010b	8d 55 e4	 lea	 edx, DWORD PTR _dData$4[ebp]
  0010e	52		 push	 edx
  0010f	51		 push	 ecx
  00110	8b cf		 mov	 ecx, edi
  00112	ff 50 44	 call	 DWORD PTR [eax+68]
  00115	66 0f 6e 86 e0
	05 00 00	 movd	 xmm0, DWORD PTR [esi+1504]

; 254  : 				pIDblCnd->SetAt( psnCnd, double( m_nHorizontalBarType));

  0011d	83 ec 08	 sub	 esp, 8
  00120	8b 07		 mov	 eax, DWORD PTR [edi]
  00122	8b cf		 mov	 ecx, edi
  00124	f3 0f e6 c0	 cvtdq2pd xmm0, xmm0
  00128	f2 0f 11 04 24	 movsd	 QWORD PTR [esp], xmm0
  0012d	ff 75 f0	 push	 DWORD PTR _psnCnd$6[ebp]
  00130	ff 50 48	 call	 DWORD PTR [eax+72]

; 255  : 				if( !m_bDoCalculate ) m_bDoCalculate = ( dData != double( m_nHorizontalBarType));

  00133	80 be c9 00 00
	00 00		 cmp	 BYTE PTR [esi+201], 0
  0013a	75 27		 jne	 SHORT $LN7@OnApply
  0013c	66 0f 6e 8e e0
	05 00 00	 movd	 xmm1, DWORD PTR [esi+1504]
  00144	f2 0f 10 45 e4	 movsd	 xmm0, QWORD PTR _dData$4[ebp]
  00149	f3 0f e6 c9	 cvtdq2pd xmm1, xmm1
  0014d	66 0f 2e c1	 ucomisd xmm0, xmm1
  00151	9f		 lahf
  00152	f6 c4 44	 test	 ah, 68			; 00000044H
  00155	7b 04		 jnp	 SHORT $LN13@OnApply
  00157	b0 01		 mov	 al, 1
  00159	eb 02		 jmp	 SHORT $LN14@OnApply
$LN13@OnApply:
  0015b	32 c0		 xor	 al, al
$LN14@OnApply:
  0015d	88 86 c9 00 00
	00		 mov	 BYTE PTR [esi+201], al
$LN7@OnApply:

; 256  : 			}
; 257  : //2006.09.28 , ASH    
; 258  : 		}

  00163	8d 4d ec	 lea	 ecx, DWORD PTR _szConditionData$5[ebp]
  00166	c7 45 fc ff ff
	ff ff		 mov	 DWORD PTR __$EHRec$[ebp+8], -1
  0016d	ff 15 00 00 00
	00		 call	 DWORD PTR __imp_??1?$CStringT@DV?$StrTraitMFC_DLL@DV?$ChTraitsCRT@D@ATL@@@@@ATL@@QAE@XZ
$LN4@OnApply:

; 259  : 		pIDblCnd->Release();

  00173	8b 07		 mov	 eax, DWORD PTR [edi]
  00175	57		 push	 edi
  00176	ff 50 08	 call	 DWORD PTR [eax+8]
$LN3@OnApply:

; 260  : 	}
; 261  : 
; 262  : 	OnApply_DrawStyle( m_nSubGraphIndex, m_cmbLineType);

  00179	8d 86 28 04 00
	00		 lea	 eax, DWORD PTR [esi+1064]
  0017f	8b ce		 mov	 ecx, esi
  00181	50		 push	 eax
  00182	ff b6 e8 05 00
	00		 push	 DWORD PTR [esi+1512]
  00188	e8 00 00 00 00	 call	 ?OnApply_DrawStyle@CBaseDialog@@IAEXHAAVCBitmapItemComboBox@@@Z ; CBaseDialog::OnApply_DrawStyle

; 263  : 
; 264  : 	pIDblCnd = m_pIGraphInfo->GetDrawConditionList();

  0018d	8b 8e c4 00 00
	00		 mov	 ecx, DWORD PTR [esi+196]
  00193	8b 01		 mov	 eax, DWORD PTR [ecx]
  00195	ff 50 14	 call	 DWORD PTR [eax+20]
  00198	8b f8		 mov	 edi, eax

; 265  : 	if( pIDblCnd)

  0019a	85 ff		 test	 edi, edi
  0019c	0f 84 cf 00 00
	00		 je	 $LN25@OnApply

; 266  : 	{
; 267  : 		POSITION psnDrawCnd = pIDblCnd->GetHeadPosition();

  001a2	8b 17		 mov	 edx, DWORD PTR [edi]
  001a4	8b cf		 mov	 ecx, edi
  001a6	ff 52 34	 call	 DWORD PTR [edx+52]
  001a9	66 0f 6e 86 b0
	04 00 00	 movd	 xmm0, DWORD PTR [esi+1200]

; 268  : 		pIDblCnd->SetAt( psnDrawCnd, double( m_nTextType));

  001b1	83 ec 08	 sub	 esp, 8
  001b4	8b 17		 mov	 edx, DWORD PTR [edi]
  001b6	8b cf		 mov	 ecx, edi
  001b8	f3 0f e6 c0	 cvtdq2pd xmm0, xmm0
  001bc	f2 0f 11 04 24	 movsd	 QWORD PTR [esp], xmm0
  001c1	50		 push	 eax
  001c2	ff 52 48	 call	 DWORD PTR [edx+72]

; 271  : 		ILPCSTR szIndicatorName = m_pIGraphInfo->GetIndicatorNameString();

  001c5	8b 8e c4 00 00
	00		 mov	 ecx, DWORD PTR [esi+196]
  001cb	8b 01		 mov	 eax, DWORD PTR [ecx]
  001cd	ff 90 a4 00 00
	00		 call	 DWORD PTR [eax+164]
; File D:\git\src\IBK\IBK_DRFN\ProjSrc\SrcChartEx\ChartAddIn\ChartEnvSetupDlgAddIn\Include_AddIn_135914\I135914\_IString.h

; 39   : 		m_pIStrData = p_pIString;	// Do not AddRef(). Because It must be Return Value.

  001d3	8b d8		 mov	 ebx, eax
  001d5	89 5d e0	 mov	 DWORD PTR _szIndicatorName$2[ebp+4], ebx

; 40   : 		if( m_pIStrData) m_szData = m_pIStrData->GetData();

  001d8	85 db		 test	 ebx, ebx
  001da	74 0b		 je	 SHORT $LN20@OnApply
  001dc	8b 13		 mov	 edx, DWORD PTR [ebx]
  001de	8b cb		 mov	 ecx, ebx
  001e0	ff 52 10	 call	 DWORD PTR [edx+16]
  001e3	8b c8		 mov	 ecx, eax
  001e5	eb 02		 jmp	 SHORT $LN32@OnApply
$LN20@OnApply:

; 41   : 		else m_szData = NULL;

  001e7	33 c9		 xor	 ecx, ecx
$LN32@OnApply:
; File D:\git\src\IBK\IBK_DRFN\ProjSrc\SrcChartEx\ChartAddIn\ChartEnvSetupDlgAddIn\ChartEnvSetupDlgAddIn\Setting_Special_Type_E.cpp

; 271  : 		ILPCSTR szIndicatorName = m_pIGraphInfo->GetIndicatorNameString();

  001e9	89 4d dc	 mov	 DWORD PTR _szIndicatorName$2[ebp], ecx

; 272  : 		if( !strcmp( szIndicatorName, _MTEXT( C2_BUY_SELL_OVERHANGING_SUPPLY )))

  001ec	a1 54 00 00 00	 mov	 eax, DWORD PTR ?g_iMetaTable@@3VIMetaTable@@A+84
  001f1	c7 45 fc 01 00
	00 00		 mov	 DWORD PTR __$EHRec$[ebp+8], 1
  001f8	8b 80 84 0c 00
	00		 mov	 eax, DWORD PTR [eax+3204]
  001fe	66 90		 npad	 2
$LL27@OnApply:
  00200	8a 11		 mov	 dl, BYTE PTR [ecx]
  00202	3a 10		 cmp	 dl, BYTE PTR [eax]
  00204	75 1a		 jne	 SHORT $LN28@OnApply
  00206	84 d2		 test	 dl, dl
  00208	74 12		 je	 SHORT $LN29@OnApply
  0020a	8a 51 01	 mov	 dl, BYTE PTR [ecx+1]
  0020d	3a 50 01	 cmp	 dl, BYTE PTR [eax+1]
  00210	75 0e		 jne	 SHORT $LN28@OnApply
  00212	83 c1 02	 add	 ecx, 2
  00215	83 c0 02	 add	 eax, 2
  00218	84 d2		 test	 dl, dl
  0021a	75 e4		 jne	 SHORT $LL27@OnApply
$LN29@OnApply:
  0021c	33 c0		 xor	 eax, eax
  0021e	eb 05		 jmp	 SHORT $LN30@OnApply
$LN28@OnApply:
  00220	1b c0		 sbb	 eax, eax
  00222	83 c8 01	 or	 eax, 1
$LN30@OnApply:
  00225	85 c0		 test	 eax, eax
  00227	75 2a		 jne	 SHORT $LN9@OnApply

; 273  : 		{
; 274  : 			psnDrawCnd = pIDblCnd->GetTailPosition();

  00229	8b 07		 mov	 eax, DWORD PTR [edi]
  0022b	8b cf		 mov	 ecx, edi
  0022d	ff 50 38	 call	 DWORD PTR [eax+56]

; 275  : 			pIDblCnd->SetAt( psnDrawCnd, ( m_bIsIndividually ? 1 : 0));

  00230	8b 17		 mov	 edx, DWORD PTR [edi]
  00232	33 c9		 xor	 ecx, ecx
  00234	39 8e e4 05 00
	00		 cmp	 DWORD PTR [esi+1508], ecx
  0023a	0f 95 c1	 setne	 cl
  0023d	83 ec 08	 sub	 esp, 8
  00240	66 0f 6e c1	 movd	 xmm0, ecx
  00244	8b cf		 mov	 ecx, edi
  00246	f3 0f e6 c0	 cvtdq2pd xmm0, xmm0
  0024a	f2 0f 11 04 24	 movsd	 QWORD PTR [esp], xmm0
  0024f	50		 push	 eax
  00250	ff 52 48	 call	 DWORD PTR [edx+72]
$LN9@OnApply:

; 276  : 		}
; 277  : 
; 278  : 		pIDblCnd->Release();

  00253	8b 07		 mov	 eax, DWORD PTR [edi]
  00255	57		 push	 edi
  00256	ff 50 08	 call	 DWORD PTR [eax+8]
; File D:\git\src\IBK\IBK_DRFN\ProjSrc\SrcChartEx\ChartAddIn\ChartEnvSetupDlgAddIn\Include_AddIn_135914\I135914\_IString.h

; 44   : 	{

  00259	c7 45 fc 02 00
	00 00		 mov	 DWORD PTR __$EHRec$[ebp+8], 2

; 45   : 		if( m_pIStrData)

  00260	85 db		 test	 ebx, ebx
  00262	74 06		 je	 SHORT $LN24@OnApply

; 46   : 		{
; 47   : 			m_pIStrData->Release();

  00264	8b 03		 mov	 eax, DWORD PTR [ebx]
  00266	53		 push	 ebx
  00267	ff 50 08	 call	 DWORD PTR [eax+8]
$LN24@OnApply:

; 48   : 			m_pIStrData = NULL;
; 49   : 			m_szData = NULL;
; 50   : 		}
; 51   : 	}

  0026a	c7 45 fc ff ff
	ff ff		 mov	 DWORD PTR __$EHRec$[ebp+8], -1
$LN25@OnApply:
; File D:\git\src\IBK\IBK_DRFN\ProjSrc\SrcChartEx\ChartAddIn\ChartEnvSetupDlgAddIn\ChartEnvSetupDlgAddIn\Setting_Special_Type_E.cpp

; 281  : 	p_pIGraphInfo->GetCopyDataFrom(m_pIGraphInfo);

  00271	8b 4d 08	 mov	 ecx, DWORD PTR _p_pIGraphInfo$[ebp]
  00274	ff b6 c4 00 00
	00		 push	 DWORD PTR [esi+196]
  0027a	8b 01		 mov	 eax, DWORD PTR [ecx]
  0027c	ff 90 c0 00 00
	00		 call	 DWORD PTR [eax+192]

; 282  : 
; 283  : 	return TRUE;

  00282	b8 01 00 00 00	 mov	 eax, 1

; 284  : }

  00287	8b 4d f4	 mov	 ecx, DWORD PTR __$EHRec$[ebp]
  0028a	64 89 0d 00 00
	00 00		 mov	 DWORD PTR fs:0, ecx
  00291	59		 pop	 ecx
  00292	5f		 pop	 edi
  00293	5e		 pop	 esi
  00294	5b		 pop	 ebx
  00295	8b e5		 mov	 esp, ebp
  00297	5d		 pop	 ebp
  00298	c2 04 00	 ret	 4
_TEXT	ENDS
;	COMDAT text$x
text$x	SEGMENT
__unwindfunclet$?OnApply@CSetting_Special_Type_E@@UAEHPAUIGraphInfo135914@@@Z$0:
  00000	8d 4d ec	 lea	 ecx, DWORD PTR _szConditionData$5[ebp]
  00003	ff 25 00 00 00
	00		 jmp	 DWORD PTR __imp_??1?$CStringT@DV?$StrTraitMFC_DLL@DV?$ChTraitsCRT@D@ATL@@@@@ATL@@QAE@XZ
__unwindfunclet$?OnApply@CSetting_Special_Type_E@@UAEHPAUIGraphInfo135914@@@Z$1:
  00009	8d 4d dc	 lea	 ecx, DWORD PTR _szIndicatorName$2[ebp]
  0000c	e9 00 00 00 00	 jmp	 ??1ILPCSTR135914@@QAE@XZ ; ILPCSTR135914::~ILPCSTR135914
  00011	cc		 int	 3
  00012	cc		 int	 3
  00013	cc		 int	 3
  00014	cc		 int	 3
  00015	cc		 int	 3
__ehhandler$?OnApply@CSetting_Special_Type_E@@UAEHPAUIGraphInfo135914@@@Z:
  00016	90		 npad	 1
  00017	90		 npad	 1
  00018	8b 54 24 08	 mov	 edx, DWORD PTR [esp+8]
  0001c	8d 42 0c	 lea	 eax, DWORD PTR [edx+12]
  0001f	8b 4a d8	 mov	 ecx, DWORD PTR [edx-40]
  00022	33 c8		 xor	 ecx, eax
  00024	e8 00 00 00 00	 call	 @__security_check_cookie@4
  00029	b8 00 00 00 00	 mov	 eax, OFFSET __ehfuncinfo$?OnApply@CSetting_Special_Type_E@@UAEHPAUIGraphInfo135914@@@Z
  0002e	e9 00 00 00 00	 jmp	 ___CxxFrameHandler3
text$x	ENDS
?OnApply@CSetting_Special_Type_E@@UAEHPAUIGraphInfo135914@@@Z ENDP ; CSetting_Special_Type_E::OnApply
; Function compile flags: /Ogtp
; File D:\git\src\IBK\IBK_DRFN\ProjSrc\SrcChartEx\ChartAddIn\ChartEnvSetupDlgAddIn\ChartEnvSetupDlgAddIn\Setting_Special_Type_E.cpp
; File D:\git\src\IBK\IBK_DRFN\ProjSrc\SrcChartEx\ChartAddIn\ChartEnvSetupDlgAddIn\Include_AddIn_135914\I135914\_IString.h
; File D:\git\src\IBK\IBK_DRFN\ProjSrc\SrcChartEx\ChartAddIn\ChartEnvSetupDlgAddIn\ChartEnvSetupDlgAddIn\Setting_Special_Type_E.cpp
; File C:\Program Files (x86)\Microsoft Visual Studio\2019\Community\VC\Tools\MSVC\14.29.30133\atlmfc\include\afxwin2.inl
; File D:\git\src\IBK\IBK_DRFN\ProjSrc\SrcChartEx\ChartAddIn\ChartEnvSetupDlgAddIn\ChartEnvSetupDlgAddIn\Setting_Special_Type_E.cpp
; File C:\Program Files (x86)\Microsoft Visual Studio\2019\Community\VC\Tools\MSVC\14.29.30133\atlmfc\include\afxwin2.inl
; File D:\git\src\IBK\IBK_DRFN\ProjSrc\SrcChartEx\ChartAddIn\ChartEnvSetupDlgAddIn\ChartEnvSetupDlgAddIn\Setting_Special_Type_E.cpp
; File C:\Program Files (x86)\Microsoft Visual Studio\2019\Community\VC\Tools\MSVC\14.29.30133\atlmfc\include\afxwin2.inl
; File D:\git\src\IBK\IBK_DRFN\ProjSrc\SrcChartEx\ChartAddIn\ChartEnvSetupDlgAddIn\ChartEnvSetupDlgAddIn\Setting_Special_Type_E.cpp
; File C:\Program Files (x86)\Microsoft Visual Studio\2019\Community\VC\Tools\MSVC\14.29.30133\atlmfc\include\afxwin2.inl
; File D:\git\src\IBK\IBK_DRFN\ProjSrc\SrcChartEx\ChartAddIn\ChartEnvSetupDlgAddIn\ChartEnvSetupDlgAddIn\Setting_Special_Type_E.cpp
; File C:\Program Files (x86)\Microsoft Visual Studio\2019\Community\VC\Tools\MSVC\14.29.30133\atlmfc\include\afxwin2.inl
; File D:\git\src\IBK\IBK_DRFN\ProjSrc\SrcChartEx\ChartAddIn\ChartEnvSetupDlgAddIn\ChartEnvSetupDlgAddIn\Setting_Special_Type_E.cpp
; File C:\Program Files (x86)\Microsoft Visual Studio\2019\Community\VC\Tools\MSVC\14.29.30133\atlmfc\include\afxwin2.inl
; File D:\git\src\IBK\IBK_DRFN\ProjSrc\SrcChartEx\ChartAddIn\ChartEnvSetupDlgAddIn\ChartEnvSetupDlgAddIn\Setting_Special_Type_E.cpp
; File D:\git\src\IBK\IBK_DRFN\ProjSrc\SrcChartEx\ChartAddIn\ChartEnvSetupDlgAddIn\Include_AddIn_135914\I135914\_IString.h
; File D:\git\src\IBK\IBK_DRFN\ProjSrc\SrcChartEx\ChartAddIn\ChartEnvSetupDlgAddIn\ChartEnvSetupDlgAddIn\Setting_Special_Type_E.cpp
; File D:\git\src\IBK\IBK_DRFN\ProjSrc\SrcChartEx\ChartAddIn\ChartEnvSetupDlgAddIn\Include_AddIn_135914\I135914\_IString.h
; File D:\git\src\IBK\IBK_DRFN\ProjSrc\SrcChartEx\ChartAddIn\ChartEnvSetupDlgAddIn\ChartEnvSetupDlgAddIn\Setting_Special_Type_E.cpp
;	COMDAT ?Initial@CSetting_Special_Type_E@@UAEXPAUIGraphInfo135914@@@Z
_TEXT	SEGMENT
_dData$2 = -60						; size = 8
_szIndicatorName$ = -52					; size = 8
_szKey$ = -44						; size = 8
_dData$3 = -36						; size = 8
_dData$4 = -36						; size = 8
_strCurText$5 = -32					; size = 4
_strBuy$6 = -32						; size = 4
_strCur$7 = -28						; size = 4
_strBuyText$8 = -28					; size = 4
_strBasicText$9 = -24					; size = 4
_strSell$10 = -24					; size = 4
_strBasic$11 = -20					; size = 4
_strSellText$12 = -20					; size = 4
_psnCnd$ = -16						; size = 4
__$EHRec$ = -12						; size = 12
$T13 = 8						; size = 4
$T14 = 8						; size = 4
$T15 = 8						; size = 4
$T16 = 8						; size = 4
$T17 = 8						; size = 4
$T18 = 8						; size = 4
_strMaxText$19 = 8					; size = 4
_strTotalText$20 = 8					; size = 4
_p_pIGraphInfo$ = 8					; size = 4
?Initial@CSetting_Special_Type_E@@UAEXPAUIGraphInfo135914@@@Z PROC ; CSetting_Special_Type_E::Initial, COMDAT
; _this$ = ecx

; 102  : {

  00000	55		 push	 ebp
  00001	8b ec		 mov	 ebp, esp
  00003	6a ff		 push	 -1
  00005	68 00 00 00 00	 push	 __ehhandler$?Initial@CSetting_Special_Type_E@@UAEXPAUIGraphInfo135914@@@Z
  0000a	64 a1 00 00 00
	00		 mov	 eax, DWORD PTR fs:0
  00010	50		 push	 eax
  00011	83 ec 30	 sub	 esp, 48			; 00000030H
  00014	53		 push	 ebx
  00015	56		 push	 esi
  00016	57		 push	 edi
  00017	a1 00 00 00 00	 mov	 eax, DWORD PTR ___security_cookie
  0001c	33 c5		 xor	 eax, ebp
  0001e	50		 push	 eax
  0001f	8d 45 f4	 lea	 eax, DWORD PTR __$EHRec$[ebp]
  00022	64 a3 00 00 00
	00		 mov	 DWORD PTR fs:0, eax
  00028	8b f9		 mov	 edi, ecx

; 103  : 	if( m_pIGraphInfo)

  0002a	8b 8f c4 00 00
	00		 mov	 ecx, DWORD PTR [edi+196]
  00030	85 c9		 test	 ecx, ecx
  00032	74 17		 je	 SHORT $LN2@Initial

; 104  : 	{
; 105  : 		OnApply( m_pIGraphInfo);

  00034	8b 07		 mov	 eax, DWORD PTR [edi]
  00036	51		 push	 ecx
  00037	8b cf		 mov	 ecx, edi
  00039	ff 90 98 01 00
	00		 call	 DWORD PTR [eax+408]

; 106  : 		m_pIGraphInfo->Release();

  0003f	8b 87 c4 00 00
	00		 mov	 eax, DWORD PTR [edi+196]
  00045	50		 push	 eax
  00046	8b 08		 mov	 ecx, DWORD PTR [eax]
  00048	ff 51 08	 call	 DWORD PTR [ecx+8]
$LN2@Initial:

; 107  : 	}
; 108  : 	m_pIGraphInfo = p_pIGraphInfo;

  0004b	8b 4d 08	 mov	 ecx, DWORD PTR _p_pIGraphInfo$[ebp]
  0004e	89 8f c4 00 00
	00		 mov	 DWORD PTR [edi+196], ecx

; 109  : 	if( m_pIGraphInfo) m_pIGraphInfo->AddRef();

  00054	85 c9		 test	 ecx, ecx
  00056	0f 84 28 06 00
	00		 je	 $LN78@Initial
  0005c	8b 01		 mov	 eax, DWORD PTR [ecx]
  0005e	51		 push	 ecx
  0005f	ff 50 04	 call	 DWORD PTR [eax+4]

; 110  : 	else return;
; 111  : 
; 112  : 	m_nSubGraphIndex = 0;

  00062	c7 87 e8 05 00
	00 00 00 00 00	 mov	 DWORD PTR [edi+1512], 0
; File D:\git\src\IBK\IBK_DRFN\ProjSrc\SrcChartEx\ChartAddIn\ChartEnvSetupDlgAddIn\Include_AddIn_135914\I135914\_IString.h

; 34   : 		m_szData = NULL;

  0006c	c7 45 d4 00 00
	00 00		 mov	 DWORD PTR _szKey$[ebp], 0

; 35   : 		m_pIStrData = NULL;

  00073	c7 45 d8 00 00
	00 00		 mov	 DWORD PTR _szKey$[ebp+4], 0
; File D:\git\src\IBK\IBK_DRFN\ProjSrc\SrcChartEx\ChartAddIn\ChartEnvSetupDlgAddIn\ChartEnvSetupDlgAddIn\Setting_Special_Type_E.cpp

; 116  : 	BOOL bHogaUsed = !m_pIChartOCX->IsRuntimeMode();

  0007a	8b 8f b0 00 00
	00		 mov	 ecx, DWORD PTR [edi+176]
  00080	c7 45 fc 00 00
	00 00		 mov	 DWORD PTR __$EHRec$[ebp+8], 0
  00087	8b 01		 mov	 eax, DWORD PTR [ecx]
  00089	ff 50 7c	 call	 DWORD PTR [eax+124]
  0008c	33 db		 xor	 ebx, ebx
  0008e	85 c0		 test	 eax, eax
  00090	0f 94 c3	 sete	 bl

; 117  : 	if( !bHogaUsed && m_pIPacketManager)

  00093	85 c0		 test	 eax, eax
  00095	74 2d		 je	 SHORT $LN6@Initial
  00097	8b 8f b4 00 00
	00		 mov	 ecx, DWORD PTR [edi+180]
  0009d	85 c9		 test	 ecx, ecx
  0009f	74 23		 je	 SHORT $LN6@Initial

; 118  : 	{
; 119  : 		IHelpMessageMap *pHelpMessageMap = m_pIPacketManager->GetHelpMessageMap();

  000a1	8b 01		 mov	 eax, DWORD PTR [ecx]
  000a3	ff 50 2c	 call	 DWORD PTR [eax+44]
  000a6	8b f0		 mov	 esi, eax

; 120  : 		if( pHelpMessageMap)

  000a8	85 f6		 test	 esi, esi
  000aa	74 18		 je	 SHORT $LN6@Initial

; 121  : 		{
; 122  : 			bHogaUsed = pHelpMessageMap->Lookup("HBPRICE",szKey);

  000ac	8b 16		 mov	 edx, DWORD PTR [esi]
  000ae	8d 45 d4	 lea	 eax, DWORD PTR _szKey$[ebp]
  000b1	50		 push	 eax
  000b2	68 00 00 00 00	 push	 OFFSET ??_C@_07OEKCJGKM@HBPRICE@
  000b7	8b ce		 mov	 ecx, esi
  000b9	ff 52 18	 call	 DWORD PTR [edx+24]

; 123  : 			pHelpMessageMap->Release();

  000bc	8b 0e		 mov	 ecx, DWORD PTR [esi]
  000be	8b d8		 mov	 ebx, eax
  000c0	56		 push	 esi
  000c1	ff 51 08	 call	 DWORD PTR [ecx+8]
$LN6@Initial:

; 124  : 		}
; 125  : 	}
; 126  : 	if( !bHogaUsed) GetDlgItem(IDC_HOGA_RADIO)->EnableWindow( FALSE);

  000c4	85 db		 test	 ebx, ebx
  000c6	75 14		 jne	 SHORT $LN7@Initial
  000c8	53		 push	 ebx
  000c9	68 44 1f 00 00	 push	 8004			; 00001f44H
  000ce	8b cf		 mov	 ecx, edi
  000d0	e8 00 00 00 00	 call	 ?GetDlgItem@CWnd@@QBEPAV1@H@Z ; CWnd::GetDlgItem
  000d5	8b c8		 mov	 ecx, eax
  000d7	e8 00 00 00 00	 call	 ?EnableWindow@CWnd@@QAEHH@Z ; CWnd::EnableWindow
$LN7@Initial:

; 127  : 
; 128  : // (2006.10.23 )    
; 129  : 	IDoubleList *pIDblCnd = m_pIGraphInfo->GetCommonCalculateConditionList();

  000dc	8b 8f c4 00 00
	00		 mov	 ecx, DWORD PTR [edi+196]
  000e2	8b 01		 mov	 eax, DWORD PTR [ecx]
  000e4	ff 50 10	 call	 DWORD PTR [eax+16]
  000e7	8b f0		 mov	 esi, eax

; 130  : 	POSITION psnCnd = pIDblCnd->GetHeadPosition();

  000e9	8b ce		 mov	 ecx, esi
  000eb	8b 16		 mov	 edx, DWORD PTR [esi]
  000ed	ff 52 34	 call	 DWORD PTR [edx+52]
  000f0	89 45 f0	 mov	 DWORD PTR _psnCnd$[ebp], eax
  000f3	0f 57 c0	 xorps	 xmm0, xmm0

; 131  : 	if( pIDblCnd)
; 132  : 	{
; 133  : 		double dData = 0;
; 134  : //		pIDblCnd->GetHead( dData);
; 135  : 		pIDblCnd->GetNext(psnCnd, dData);

  000f6	8b 16		 mov	 edx, DWORD PTR [esi]
  000f8	8d 45 dc	 lea	 eax, DWORD PTR _dData$4[ebp]
  000fb	50		 push	 eax
  000fc	8d 45 f0	 lea	 eax, DWORD PTR _psnCnd$[ebp]
  000ff	f2 0f 11 45 dc	 movsd	 QWORD PTR _dData$4[ebp], xmm0
  00104	50		 push	 eax
  00105	8b ce		 mov	 ecx, esi
  00107	ff 52 3c	 call	 DWORD PTR [edx+60]

; 136  : 		Initial_Spin( m_spnCond1, m_edtCond1, dData);

  0010a	f2 0f 10 45 dc	 movsd	 xmm0, QWORD PTR _dData$4[ebp]
  0010f	8d 87 38 05 00
	00		 lea	 eax, DWORD PTR [edi+1336]
  00115	83 ec 08	 sub	 esp, 8
  00118	8b cf		 mov	 ecx, edi
  0011a	f2 0f 11 04 24	 movsd	 QWORD PTR [esp], xmm0
  0011f	50		 push	 eax
  00120	8d 87 b8 04 00
	00		 lea	 eax, DWORD PTR [edi+1208]
  00126	50		 push	 eax
  00127	e8 00 00 00 00	 call	 ?Initial_Spin@CBaseDialog@@IAEXAAVCNumSpinCtrl@@AAVCNumEdit@@N@Z ; CBaseDialog::Initial_Spin

; 137  : //2006.09.28 , ASH    
; 138  : 		if(psnCnd)

  0012c	83 7d f0 00	 cmp	 DWORD PTR _psnCnd$[ebp], 0
  00130	74 1a		 je	 SHORT $LN9@Initial

; 139  : 		{
; 140  : 			pIDblCnd->GetNext(psnCnd, dData);

  00132	8b 06		 mov	 eax, DWORD PTR [esi]
  00134	8d 4d dc	 lea	 ecx, DWORD PTR _dData$4[ebp]
  00137	51		 push	 ecx
  00138	8d 4d f0	 lea	 ecx, DWORD PTR _psnCnd$[ebp]
  0013b	51		 push	 ecx
  0013c	8b ce		 mov	 ecx, esi
  0013e	ff 50 3c	 call	 DWORD PTR [eax+60]

; 141  : 			m_nHorizontalBarType = (int)dData;

  00141	f2 0f 2c 45 dc	 cvttsd2si eax, QWORD PTR _dData$4[ebp]
  00146	89 87 e0 05 00
	00		 mov	 DWORD PTR [edi+1504], eax
$LN9@Initial:

; 142  : 		}
; 143  : //2006.09.28 , ASH    
; 144  : 		pIDblCnd->Release();

  0014c	8b 06		 mov	 eax, DWORD PTR [esi]
  0014e	56		 push	 esi
  0014f	ff 50 08	 call	 DWORD PTR [eax+8]

; 295  : 	if( m_nSubGraphIndex < 0) return;

  00152	8b 97 e8 05 00
	00		 mov	 edx, DWORD PTR [edi+1512]
  00158	85 d2		 test	 edx, edx
  0015a	0f 88 2d 01 00
	00		 js	 $LN81@Initial

; 296  : 
; 297  : 	m_btnColor1.SetColor( m_pIGraphInfo->GetSubGraphColor( m_nSubGraphIndex, 1));

  00160	8b 8f c4 00 00
	00		 mov	 ecx, DWORD PTR [edi+196]
  00166	6a 01		 push	 1
  00168	52		 push	 edx
  00169	8b 01		 mov	 eax, DWORD PTR [ecx]
  0016b	ff 50 64	 call	 DWORD PTR [eax+100]
  0016e	89 45 08	 mov	 DWORD PTR $T18[ebp], eax
  00171	8d 8f a0 03 00
	00		 lea	 ecx, DWORD PTR [edi+928]
  00177	8d 45 08	 lea	 eax, DWORD PTR $T18[ebp]
  0017a	50		 push	 eax
  0017b	e8 00 00 00 00	 call	 ?SetColor@CColorButton@@QAEXABK@Z ; CColorButton::SetColor
; File C:\Program Files (x86)\Microsoft Visual Studio\2019\Community\VC\Tools\MSVC\14.29.30133\atlmfc\include\afxwin2.inl

; 114  : 	{ ASSERT(::IsWindow(m_hWnd)); ::InvalidateRect(m_hWnd, NULL, bErase); }

  00180	8b 35 00 00 00
	00		 mov	 esi, DWORD PTR __imp__InvalidateRect@12
  00186	6a 01		 push	 1
  00188	6a 00		 push	 0
  0018a	ff b7 c0 03 00
	00		 push	 DWORD PTR [edi+960]
  00190	ff d6		 call	 esi
; File D:\git\src\IBK\IBK_DRFN\ProjSrc\SrcChartEx\ChartAddIn\ChartEnvSetupDlgAddIn\ChartEnvSetupDlgAddIn\Setting_Special_Type_E.cpp

; 300  : 	m_btnColor2.SetColor( m_pIGraphInfo->GetSubGraphColor( m_nSubGraphIndex, 3));

  00192	8b 8f c4 00 00
	00		 mov	 ecx, DWORD PTR [edi+196]
  00198	6a 03		 push	 3
  0019a	ff b7 e8 05 00
	00		 push	 DWORD PTR [edi+1512]
  001a0	8b 01		 mov	 eax, DWORD PTR [ecx]
  001a2	ff 50 64	 call	 DWORD PTR [eax+100]
  001a5	89 45 08	 mov	 DWORD PTR $T17[ebp], eax
  001a8	8d 8f 18 03 00
	00		 lea	 ecx, DWORD PTR [edi+792]
  001ae	8d 45 08	 lea	 eax, DWORD PTR $T17[ebp]
  001b1	50		 push	 eax
  001b2	e8 00 00 00 00	 call	 ?SetColor@CColorButton@@QAEXABK@Z ; CColorButton::SetColor
; File C:\Program Files (x86)\Microsoft Visual Studio\2019\Community\VC\Tools\MSVC\14.29.30133\atlmfc\include\afxwin2.inl

; 114  : 	{ ASSERT(::IsWindow(m_hWnd)); ::InvalidateRect(m_hWnd, NULL, bErase); }

  001b7	6a 01		 push	 1
  001b9	6a 00		 push	 0
  001bb	ff b7 38 03 00
	00		 push	 DWORD PTR [edi+824]
  001c1	ff d6		 call	 esi
; File D:\git\src\IBK\IBK_DRFN\ProjSrc\SrcChartEx\ChartAddIn\ChartEnvSetupDlgAddIn\ChartEnvSetupDlgAddIn\Setting_Special_Type_E.cpp

; 303  : 	m_btnColor3.SetColor( m_pIGraphInfo->GetSubGraphColor( m_nSubGraphIndex, 5));

  001c3	8b 8f c4 00 00
	00		 mov	 ecx, DWORD PTR [edi+196]
  001c9	6a 05		 push	 5
  001cb	ff b7 e8 05 00
	00		 push	 DWORD PTR [edi+1512]
  001d1	8b 01		 mov	 eax, DWORD PTR [ecx]
  001d3	ff 50 64	 call	 DWORD PTR [eax+100]
  001d6	89 45 08	 mov	 DWORD PTR $T16[ebp], eax
  001d9	8d 8f 90 02 00
	00		 lea	 ecx, DWORD PTR [edi+656]
  001df	8d 45 08	 lea	 eax, DWORD PTR $T16[ebp]
  001e2	50		 push	 eax
  001e3	e8 00 00 00 00	 call	 ?SetColor@CColorButton@@QAEXABK@Z ; CColorButton::SetColor
; File C:\Program Files (x86)\Microsoft Visual Studio\2019\Community\VC\Tools\MSVC\14.29.30133\atlmfc\include\afxwin2.inl

; 114  : 	{ ASSERT(::IsWindow(m_hWnd)); ::InvalidateRect(m_hWnd, NULL, bErase); }

  001e8	6a 01		 push	 1
  001ea	6a 00		 push	 0
  001ec	ff b7 b0 02 00
	00		 push	 DWORD PTR [edi+688]
  001f2	ff d6		 call	 esi
; File D:\git\src\IBK\IBK_DRFN\ProjSrc\SrcChartEx\ChartAddIn\ChartEnvSetupDlgAddIn\ChartEnvSetupDlgAddIn\Setting_Special_Type_E.cpp

; 306  : 	m_btnColor4.SetColor( m_pIGraphInfo->GetSubGraphColor( m_nSubGraphIndex, 2));

  001f4	8b 8f c4 00 00
	00		 mov	 ecx, DWORD PTR [edi+196]
  001fa	6a 02		 push	 2
  001fc	ff b7 e8 05 00
	00		 push	 DWORD PTR [edi+1512]
  00202	8b 01		 mov	 eax, DWORD PTR [ecx]
  00204	ff 50 64	 call	 DWORD PTR [eax+100]
  00207	89 45 08	 mov	 DWORD PTR $T15[ebp], eax
  0020a	8d 8f 08 02 00
	00		 lea	 ecx, DWORD PTR [edi+520]
  00210	8d 45 08	 lea	 eax, DWORD PTR $T15[ebp]
  00213	50		 push	 eax
  00214	e8 00 00 00 00	 call	 ?SetColor@CColorButton@@QAEXABK@Z ; CColorButton::SetColor
; File C:\Program Files (x86)\Microsoft Visual Studio\2019\Community\VC\Tools\MSVC\14.29.30133\atlmfc\include\afxwin2.inl

; 114  : 	{ ASSERT(::IsWindow(m_hWnd)); ::InvalidateRect(m_hWnd, NULL, bErase); }

  00219	6a 01		 push	 1
  0021b	6a 00		 push	 0
  0021d	ff b7 28 02 00
	00		 push	 DWORD PTR [edi+552]
  00223	ff d6		 call	 esi
; File D:\git\src\IBK\IBK_DRFN\ProjSrc\SrcChartEx\ChartAddIn\ChartEnvSetupDlgAddIn\ChartEnvSetupDlgAddIn\Setting_Special_Type_E.cpp

; 309  : 	m_btnColor5.SetColor( m_pIGraphInfo->GetSubGraphColor( m_nSubGraphIndex, 4));

  00225	8b 8f c4 00 00
	00		 mov	 ecx, DWORD PTR [edi+196]
  0022b	6a 04		 push	 4
  0022d	ff b7 e8 05 00
	00		 push	 DWORD PTR [edi+1512]
  00233	8b 01		 mov	 eax, DWORD PTR [ecx]
  00235	ff 50 64	 call	 DWORD PTR [eax+100]
  00238	89 45 08	 mov	 DWORD PTR $T14[ebp], eax
  0023b	8d 8f 80 01 00
	00		 lea	 ecx, DWORD PTR [edi+384]
  00241	8d 45 08	 lea	 eax, DWORD PTR $T14[ebp]
  00244	50		 push	 eax
  00245	e8 00 00 00 00	 call	 ?SetColor@CColorButton@@QAEXABK@Z ; CColorButton::SetColor
; File C:\Program Files (x86)\Microsoft Visual Studio\2019\Community\VC\Tools\MSVC\14.29.30133\atlmfc\include\afxwin2.inl

; 114  : 	{ ASSERT(::IsWindow(m_hWnd)); ::InvalidateRect(m_hWnd, NULL, bErase); }

  0024a	6a 01		 push	 1
  0024c	6a 00		 push	 0
  0024e	ff b7 a0 01 00
	00		 push	 DWORD PTR [edi+416]
  00254	ff d6		 call	 esi
; File D:\git\src\IBK\IBK_DRFN\ProjSrc\SrcChartEx\ChartAddIn\ChartEnvSetupDlgAddIn\ChartEnvSetupDlgAddIn\Setting_Special_Type_E.cpp

; 312  : 	m_btnColor6.SetColor( m_pIGraphInfo->GetSubGraphColor( m_nSubGraphIndex, 6));

  00256	8b 8f c4 00 00
	00		 mov	 ecx, DWORD PTR [edi+196]
  0025c	6a 06		 push	 6
  0025e	ff b7 e8 05 00
	00		 push	 DWORD PTR [edi+1512]
  00264	8b 01		 mov	 eax, DWORD PTR [ecx]
  00266	ff 50 64	 call	 DWORD PTR [eax+100]
  00269	89 45 08	 mov	 DWORD PTR $T13[ebp], eax
  0026c	8d 8f f8 00 00
	00		 lea	 ecx, DWORD PTR [edi+248]
  00272	8d 45 08	 lea	 eax, DWORD PTR $T13[ebp]
  00275	50		 push	 eax
  00276	e8 00 00 00 00	 call	 ?SetColor@CColorButton@@QAEXABK@Z ; CColorButton::SetColor
; File C:\Program Files (x86)\Microsoft Visual Studio\2019\Community\VC\Tools\MSVC\14.29.30133\atlmfc\include\afxwin2.inl

; 114  : 	{ ASSERT(::IsWindow(m_hWnd)); ::InvalidateRect(m_hWnd, NULL, bErase); }

  0027b	6a 01		 push	 1
  0027d	6a 00		 push	 0
  0027f	ff b7 18 01 00
	00		 push	 DWORD PTR [edi+280]
  00285	ff d6		 call	 esi
  00287	8b 97 e8 05 00
	00		 mov	 edx, DWORD PTR [edi+1512]
$LN81@Initial:
; File D:\git\src\IBK\IBK_DRFN\ProjSrc\SrcChartEx\ChartAddIn\ChartEnvSetupDlgAddIn\ChartEnvSetupDlgAddIn\Setting_Special_Type_E.cpp

; 148  : 	Initial_DrawStyleComboBox(m_nSubGraphIndex, m_cmbLineType);

  0028d	8d 87 28 04 00
	00		 lea	 eax, DWORD PTR [edi+1064]
  00293	8b cf		 mov	 ecx, edi
  00295	50		 push	 eax
  00296	52		 push	 edx
  00297	e8 00 00 00 00	 call	 ?Initial_DrawStyleComboBox@CBaseDialog@@IAEXHAAVCBitmapItemComboBox@@@Z ; CBaseDialog::Initial_DrawStyleComboBox

; 149  : 
; 150  : 	pIDblCnd = m_pIGraphInfo->GetDrawConditionList();

  0029c	8b 8f c4 00 00
	00		 mov	 ecx, DWORD PTR [edi+196]
  002a2	8b 01		 mov	 eax, DWORD PTR [ecx]
  002a4	ff 50 14	 call	 DWORD PTR [eax+20]
  002a7	8b f0		 mov	 esi, eax

; 151  : 	if( pIDblCnd) if( !pIDblCnd->IsEmpty())

  002a9	85 f6		 test	 esi, esi
  002ab	74 29		 je	 SHORT $LN11@Initial
  002ad	8b 16		 mov	 edx, DWORD PTR [esi]
  002af	8b ce		 mov	 ecx, esi
  002b1	ff 52 14	 call	 DWORD PTR [edx+20]
  002b4	85 c0		 test	 eax, eax
  002b6	75 1e		 jne	 SHORT $LN11@Initial

; 152  : 	{
; 153  : 		double dData = 0;
; 154  : 		pIDblCnd->GetHead( dData);

  002b8	8b 06		 mov	 eax, DWORD PTR [esi]
  002ba	8d 4d dc	 lea	 ecx, DWORD PTR _dData$3[ebp]
  002bd	0f 57 c0	 xorps	 xmm0, xmm0
  002c0	51		 push	 ecx
  002c1	8b ce		 mov	 ecx, esi
  002c3	f2 0f 11 45 dc	 movsd	 QWORD PTR _dData$3[ebp], xmm0
  002c8	ff 50 18	 call	 DWORD PTR [eax+24]

; 155  : 		m_nTextType = (int)dData;

  002cb	f2 0f 2c 45 dc	 cvttsd2si eax, QWORD PTR _dData$3[ebp]
  002d0	89 87 b0 04 00
	00		 mov	 DWORD PTR [edi+1200], eax
$LN11@Initial:

; 159  : 	ILPCSTR szIndicatorName = m_pIGraphInfo->GetIndicatorNameString();

  002d6	8b 8f c4 00 00
	00		 mov	 ecx, DWORD PTR [edi+196]
  002dc	8b 01		 mov	 eax, DWORD PTR [ecx]
  002de	ff 90 a4 00 00
	00		 call	 DWORD PTR [eax+164]
; File D:\git\src\IBK\IBK_DRFN\ProjSrc\SrcChartEx\ChartAddIn\ChartEnvSetupDlgAddIn\Include_AddIn_135914\I135914\_IString.h

; 39   : 		m_pIStrData = p_pIString;	// Do not AddRef(). Because It must be Return Value.

  002e4	8b d8		 mov	 ebx, eax
  002e6	89 5d d0	 mov	 DWORD PTR _szIndicatorName$[ebp+4], ebx

; 40   : 		if( m_pIStrData) m_szData = m_pIStrData->GetData();

  002e9	85 db		 test	 ebx, ebx
  002eb	74 0b		 je	 SHORT $LN50@Initial
  002ed	8b 13		 mov	 edx, DWORD PTR [ebx]
  002ef	8b cb		 mov	 ecx, ebx
  002f1	ff 52 10	 call	 DWORD PTR [edx+16]
  002f4	8b c8		 mov	 ecx, eax
  002f6	eb 02		 jmp	 SHORT $LN87@Initial
$LN50@Initial:

; 41   : 		else m_szData = NULL;

  002f8	33 c9		 xor	 ecx, ecx
$LN87@Initial:
; File D:\git\src\IBK\IBK_DRFN\ProjSrc\SrcChartEx\ChartAddIn\ChartEnvSetupDlgAddIn\ChartEnvSetupDlgAddIn\Setting_Special_Type_E.cpp

; 159  : 	ILPCSTR szIndicatorName = m_pIGraphInfo->GetIndicatorNameString();

  002fa	89 4d cc	 mov	 DWORD PTR _szIndicatorName$[ebp], ecx

; 160  : 	if( !strcmp( szIndicatorName, _MTEXT( C2_BUY_SELL_OVERHANGING_SUPPLY )))

  002fd	a1 54 00 00 00	 mov	 eax, DWORD PTR ?g_iMetaTable@@3VIMetaTable@@A+84
  00302	8b 80 84 0c 00
	00		 mov	 eax, DWORD PTR [eax+3204]
$LL82@Initial:
  00308	8a 11		 mov	 dl, BYTE PTR [ecx]
  0030a	3a 10		 cmp	 dl, BYTE PTR [eax]
  0030c	75 1a		 jne	 SHORT $LN83@Initial
  0030e	84 d2		 test	 dl, dl
  00310	74 12		 je	 SHORT $LN84@Initial
  00312	8a 51 01	 mov	 dl, BYTE PTR [ecx+1]
  00315	3a 50 01	 cmp	 dl, BYTE PTR [eax+1]
  00318	75 0e		 jne	 SHORT $LN83@Initial
  0031a	83 c1 02	 add	 ecx, 2
  0031d	83 c0 02	 add	 eax, 2
  00320	84 d2		 test	 dl, dl
  00322	75 e4		 jne	 SHORT $LL82@Initial
$LN84@Initial:
  00324	33 c0		 xor	 eax, eax
  00326	eb 05		 jmp	 SHORT $LN85@Initial
$LN83@Initial:
  00328	1b c0		 sbb	 eax, eax
  0032a	83 c8 01	 or	 eax, 1
$LN85@Initial:
  0032d	85 c0		 test	 eax, eax
  0032f	0f 85 9b 01 00
	00		 jne	 $LN12@Initial

; 161  : 	{
; 162  : 		CString strBuy, strBuyText, strSell, strSellText, strTotalText;

  00335	8d 4d e0	 lea	 ecx, DWORD PTR _strBuy$6[ebp]
  00338	ff 15 00 00 00
	00		 call	 DWORD PTR __imp_??0?$CStringT@DV?$StrTraitMFC_DLL@DV?$ChTraitsCRT@D@ATL@@@@@ATL@@QAE@XZ
  0033e	8d 4d e4	 lea	 ecx, DWORD PTR _strBuyText$8[ebp]
  00341	ff 15 00 00 00
	00		 call	 DWORD PTR __imp_??0?$CStringT@DV?$StrTraitMFC_DLL@DV?$ChTraitsCRT@D@ATL@@@@@ATL@@QAE@XZ
  00347	8d 4d e8	 lea	 ecx, DWORD PTR _strSell$10[ebp]
  0034a	ff 15 00 00 00
	00		 call	 DWORD PTR __imp_??0?$CStringT@DV?$StrTraitMFC_DLL@DV?$ChTraitsCRT@D@ATL@@@@@ATL@@QAE@XZ
  00350	8d 4d ec	 lea	 ecx, DWORD PTR _strSellText$12[ebp]
  00353	ff 15 00 00 00
	00		 call	 DWORD PTR __imp_??0?$CStringT@DV?$StrTraitMFC_DLL@DV?$ChTraitsCRT@D@ATL@@@@@ATL@@QAE@XZ
  00359	8d 4d 08	 lea	 ecx, DWORD PTR _strTotalText$20[ebp]
  0035c	ff 15 00 00 00
	00		 call	 DWORD PTR __imp_??0?$CStringT@DV?$StrTraitMFC_DLL@DV?$ChTraitsCRT@D@ATL@@@@@ATL@@QAE@XZ

; 163  : 		strBuy.LoadString(IDS_BUY);

  00362	6a 2a		 push	 42			; 0000002aH
  00364	8d 4d e0	 lea	 ecx, DWORD PTR _strBuy$6[ebp]
  00367	c6 45 fc 06	 mov	 BYTE PTR __$EHRec$[ebp+8], 6
  0036b	ff 15 00 00 00
	00		 call	 DWORD PTR __imp_?LoadStringA@?$CStringT@DV?$StrTraitMFC_DLL@DV?$ChTraitsCRT@D@ATL@@@@@ATL@@QAEHI@Z

; 164  : 		strBuyText.LoadString(IDS_BUY_TEXT);

  00371	6a 29		 push	 41			; 00000029H
  00373	8d 4d e4	 lea	 ecx, DWORD PTR _strBuyText$8[ebp]
  00376	ff 15 00 00 00
	00		 call	 DWORD PTR __imp_?LoadStringA@?$CStringT@DV?$StrTraitMFC_DLL@DV?$ChTraitsCRT@D@ATL@@@@@ATL@@QAEHI@Z

; 165  : 		strSell.LoadString(IDS_SELL);

  0037c	6a 2c		 push	 44			; 0000002cH
  0037e	8d 4d e8	 lea	 ecx, DWORD PTR _strSell$10[ebp]
  00381	ff 15 00 00 00
	00		 call	 DWORD PTR __imp_?LoadStringA@?$CStringT@DV?$StrTraitMFC_DLL@DV?$ChTraitsCRT@D@ATL@@@@@ATL@@QAEHI@Z

; 166  : 		strSellText.LoadString(IDS_SELL_TEXT);

  00387	6a 2b		 push	 43			; 0000002bH
  00389	8d 4d ec	 lea	 ecx, DWORD PTR _strSellText$12[ebp]
  0038c	ff 15 00 00 00
	00		 call	 DWORD PTR __imp_?LoadStringA@?$CStringT@DV?$StrTraitMFC_DLL@DV?$ChTraitsCRT@D@ATL@@@@@ATL@@QAEHI@Z

; 167  : 		strTotalText.LoadString( IDS_TOTAL_TEXT);

  00392	6a 55		 push	 85			; 00000055H
  00394	8d 4d 08	 lea	 ecx, DWORD PTR _strTotalText$20[ebp]
  00397	ff 15 00 00 00
	00		 call	 DWORD PTR __imp_?LoadStringA@?$CStringT@DV?$StrTraitMFC_DLL@DV?$ChTraitsCRT@D@ATL@@@@@ATL@@QAEHI@Z

; 168  : 		(GetDlgItem(IDC_BYFONT_STATIC))->SetWindowText(strBuyText);

  0039d	ff 75 e4	 push	 DWORD PTR _strBuyText$8[ebp]
  003a0	8b cf		 mov	 ecx, edi
  003a2	68 49 1f 00 00	 push	 8009			; 00001f49H
  003a7	e8 00 00 00 00	 call	 ?GetDlgItem@CWnd@@QBEPAV1@H@Z ; CWnd::GetDlgItem
  003ac	8b c8		 mov	 ecx, eax
  003ae	e8 00 00 00 00	 call	 ?SetWindowTextA@CWnd@@QAEXPBD@Z ; CWnd::SetWindowTextA

; 169  : 		(GetDlgItem(IDC_SELLFONT_STATIC))->SetWindowText(strSellText);

  003b3	ff 75 ec	 push	 DWORD PTR _strSellText$12[ebp]
  003b6	8b cf		 mov	 ecx, edi
  003b8	68 4a 1f 00 00	 push	 8010			; 00001f4aH
  003bd	e8 00 00 00 00	 call	 ?GetDlgItem@CWnd@@QBEPAV1@H@Z ; CWnd::GetDlgItem
  003c2	8b c8		 mov	 ecx, eax
  003c4	e8 00 00 00 00	 call	 ?SetWindowTextA@CWnd@@QAEXPBD@Z ; CWnd::SetWindowTextA

; 170  : 		(GetDlgItem(IDC_BY_STATIC))->SetWindowText(strBuy);

  003c9	ff 75 e0	 push	 DWORD PTR _strBuy$6[ebp]
  003cc	8b cf		 mov	 ecx, edi
  003ce	68 46 1f 00 00	 push	 8006			; 00001f46H
  003d3	e8 00 00 00 00	 call	 ?GetDlgItem@CWnd@@QBEPAV1@H@Z ; CWnd::GetDlgItem
  003d8	8b c8		 mov	 ecx, eax
  003da	e8 00 00 00 00	 call	 ?SetWindowTextA@CWnd@@QAEXPBD@Z ; CWnd::SetWindowTextA

; 171  : 		(GetDlgItem(IDC_SELL_STATIC))->SetWindowText(strSell);

  003df	ff 75 e8	 push	 DWORD PTR _strSell$10[ebp]
  003e2	8b cf		 mov	 ecx, edi
  003e4	68 47 1f 00 00	 push	 8007			; 00001f47H
  003e9	e8 00 00 00 00	 call	 ?GetDlgItem@CWnd@@QBEPAV1@H@Z ; CWnd::GetDlgItem
  003ee	8b c8		 mov	 ecx, eax
  003f0	e8 00 00 00 00	 call	 ?SetWindowTextA@CWnd@@QAEXPBD@Z ; CWnd::SetWindowTextA

; 172  : 		(GetDlgItem(IDC_MAX_STATIC))->ShowWindow(SW_HIDE);

  003f5	6a 00		 push	 0
  003f7	68 48 1f 00 00	 push	 8008			; 00001f48H
  003fc	8b cf		 mov	 ecx, edi
  003fe	e8 00 00 00 00	 call	 ?GetDlgItem@CWnd@@QBEPAV1@H@Z ; CWnd::GetDlgItem
  00403	8b c8		 mov	 ecx, eax
  00405	e8 00 00 00 00	 call	 ?ShowWindow@CWnd@@QAEHH@Z ; CWnd::ShowWindow

; 173  : 		m_btnColor3.ShowWindow(SW_HIDE);

  0040a	6a 00		 push	 0
  0040c	8d 8f 90 02 00
	00		 lea	 ecx, DWORD PTR [edi+656]
  00412	e8 00 00 00 00	 call	 ?ShowWindow@CWnd@@QAEHH@Z ; CWnd::ShowWindow

; 174  : 		(GetDlgItem(IDC_MAXFONT_STATIC))->SetWindowText(strTotalText);

  00417	ff 75 08	 push	 DWORD PTR _strTotalText$20[ebp]
  0041a	8b cf		 mov	 ecx, edi
  0041c	68 4b 1f 00 00	 push	 8011			; 00001f4bH
  00421	e8 00 00 00 00	 call	 ?GetDlgItem@CWnd@@QBEPAV1@H@Z ; CWnd::GetDlgItem
  00426	8b c8		 mov	 ecx, eax
  00428	e8 00 00 00 00	 call	 ?SetWindowTextA@CWnd@@QAEXPBD@Z ; CWnd::SetWindowTextA

; 175  : 		// (2008/6/11 - Seung-Won, Bae) Support Buy/Sell Overhanging Supply.
; 176  : 		//		Support Hoga Setting UI for Design Time.
; 177  : 		GetDlgItem( IDC_BARTYPE_STATIC)->ShowWindow( SW_HIDE);

  0042d	6a 00		 push	 0
  0042f	68 64 1f 00 00	 push	 8036			; 00001f64H
  00434	8b cf		 mov	 ecx, edi
  00436	e8 00 00 00 00	 call	 ?GetDlgItem@CWnd@@QBEPAV1@H@Z ; CWnd::GetDlgItem
  0043b	8b c8		 mov	 ecx, eax
  0043d	e8 00 00 00 00	 call	 ?ShowWindow@CWnd@@QAEHH@Z ; CWnd::ShowWindow

; 178  : 		GetDlgItem( IDC_LINE_TYPE)->ShowWindow( SW_HIDE);

  00442	6a 00		 push	 0
  00444	68 11 18 00 00	 push	 6161			; 00001811H
  00449	8b cf		 mov	 ecx, edi
  0044b	e8 00 00 00 00	 call	 ?GetDlgItem@CWnd@@QBEPAV1@H@Z ; CWnd::GetDlgItem
  00450	8b c8		 mov	 ecx, eax
  00452	e8 00 00 00 00	 call	 ?ShowWindow@CWnd@@QAEHH@Z ; CWnd::ShowWindow

; 179  : 		GetDlgItem( IDC_EACH_BUY_SELL)->ShowWindow( SW_SHOW);

  00457	6a 05		 push	 5
  00459	68 f7 03 00 00	 push	 1015			; 000003f7H
  0045e	8b cf		 mov	 ecx, edi
  00460	e8 00 00 00 00	 call	 ?GetDlgItem@CWnd@@QBEPAV1@H@Z ; CWnd::GetDlgItem
  00465	8b c8		 mov	 ecx, eax
  00467	e8 00 00 00 00	 call	 ?ShowWindow@CWnd@@QAEHH@Z ; CWnd::ShowWindow

; 180  : 		if( pIDblCnd) if( !pIDblCnd->IsEmpty())

  0046c	85 f6		 test	 esi, esi
  0046e	74 34		 je	 SHORT $LN15@Initial
  00470	8b 06		 mov	 eax, DWORD PTR [esi]
  00472	8b ce		 mov	 ecx, esi
  00474	ff 50 14	 call	 DWORD PTR [eax+20]
  00477	85 c0		 test	 eax, eax
  00479	75 29		 jne	 SHORT $LN15@Initial

; 181  : 		{
; 182  : 			double dData = 1;
; 183  : 			pIDblCnd->GetTail( dData);

  0047b	8b 06		 mov	 eax, DWORD PTR [esi]
  0047d	8d 4d c4	 lea	 ecx, DWORD PTR _dData$2[ebp]
  00480	f2 0f 10 05 00
	00 00 00	 movsd	 xmm0, QWORD PTR __real@3ff0000000000000
  00488	51		 push	 ecx
  00489	8b ce		 mov	 ecx, esi
  0048b	f2 0f 11 45 c4	 movsd	 QWORD PTR _dData$2[ebp], xmm0
  00490	ff 50 1c	 call	 DWORD PTR [eax+28]

; 184  : 			m_bIsIndividually = ( int( dData) == 1);

  00493	f2 0f 2c 45 c4	 cvttsd2si eax, QWORD PTR _dData$2[ebp]
  00498	48		 dec	 eax
  00499	f7 d8		 neg	 eax
  0049b	1b c0		 sbb	 eax, eax
  0049d	40		 inc	 eax
  0049e	89 87 e4 05 00
	00		 mov	 DWORD PTR [edi+1508], eax
$LN15@Initial:

; 185  : 		}
; 186  : 	}

  004a4	8d 4d 08	 lea	 ecx, DWORD PTR _strTotalText$20[ebp]
  004a7	ff 15 00 00 00
	00		 call	 DWORD PTR __imp_??1?$CStringT@DV?$StrTraitMFC_DLL@DV?$ChTraitsCRT@D@ATL@@@@@ATL@@QAE@XZ
  004ad	8d 4d ec	 lea	 ecx, DWORD PTR _strSellText$12[ebp]
  004b0	ff 15 00 00 00
	00		 call	 DWORD PTR __imp_??1?$CStringT@DV?$StrTraitMFC_DLL@DV?$ChTraitsCRT@D@ATL@@@@@ATL@@QAE@XZ
  004b6	8d 4d e8	 lea	 ecx, DWORD PTR _strSell$10[ebp]
  004b9	ff 15 00 00 00
	00		 call	 DWORD PTR __imp_??1?$CStringT@DV?$StrTraitMFC_DLL@DV?$ChTraitsCRT@D@ATL@@@@@ATL@@QAE@XZ
  004bf	8d 4d e4	 lea	 ecx, DWORD PTR _strBuyText$8[ebp]
  004c2	ff 15 00 00 00
	00		 call	 DWORD PTR __imp_??1?$CStringT@DV?$StrTraitMFC_DLL@DV?$ChTraitsCRT@D@ATL@@@@@ATL@@QAE@XZ
  004c8	8d 4d e0	 lea	 ecx, DWORD PTR _strBuy$6[ebp]
  004cb	e9 5e 01 00 00	 jmp	 $LN88@Initial
$LN12@Initial:

; 187  : 	else
; 188  : 	{
; 189  : 		CString strBasic, strBasicText, strCur, strCurText, strMaxText;

  004d0	8d 4d ec	 lea	 ecx, DWORD PTR _strBasic$11[ebp]
  004d3	ff 15 00 00 00
	00		 call	 DWORD PTR __imp_??0?$CStringT@DV?$StrTraitMFC_DLL@DV?$ChTraitsCRT@D@ATL@@@@@ATL@@QAE@XZ
  004d9	8d 4d e8	 lea	 ecx, DWORD PTR _strBasicText$9[ebp]
  004dc	ff 15 00 00 00
	00		 call	 DWORD PTR __imp_??0?$CStringT@DV?$StrTraitMFC_DLL@DV?$ChTraitsCRT@D@ATL@@@@@ATL@@QAE@XZ
  004e2	8d 4d e4	 lea	 ecx, DWORD PTR _strCur$7[ebp]
  004e5	ff 15 00 00 00
	00		 call	 DWORD PTR __imp_??0?$CStringT@DV?$StrTraitMFC_DLL@DV?$ChTraitsCRT@D@ATL@@@@@ATL@@QAE@XZ
  004eb	8d 4d e0	 lea	 ecx, DWORD PTR _strCurText$5[ebp]
  004ee	ff 15 00 00 00
	00		 call	 DWORD PTR __imp_??0?$CStringT@DV?$StrTraitMFC_DLL@DV?$ChTraitsCRT@D@ATL@@@@@ATL@@QAE@XZ
  004f4	8d 4d 08	 lea	 ecx, DWORD PTR _strMaxText$19[ebp]
  004f7	ff 15 00 00 00
	00		 call	 DWORD PTR __imp_??0?$CStringT@DV?$StrTraitMFC_DLL@DV?$ChTraitsCRT@D@ATL@@@@@ATL@@QAE@XZ

; 190  : 		strBasic.LoadString(IDS_BASIC_OFFER);

  004fd	6a 25		 push	 37			; 00000025H
  004ff	8d 4d ec	 lea	 ecx, DWORD PTR _strBasic$11[ebp]
  00502	c6 45 fc 0b	 mov	 BYTE PTR __$EHRec$[ebp+8], 11 ; 0000000bH
  00506	ff 15 00 00 00
	00		 call	 DWORD PTR __imp_?LoadStringA@?$CStringT@DV?$StrTraitMFC_DLL@DV?$ChTraitsCRT@D@ATL@@@@@ATL@@QAEHI@Z

; 191  : 		strBasicText.LoadString(IDS_BASIC_OFFER_TEXT);

  0050c	6a 26		 push	 38			; 00000026H
  0050e	8d 4d e8	 lea	 ecx, DWORD PTR _strBasicText$9[ebp]
  00511	ff 15 00 00 00
	00		 call	 DWORD PTR __imp_?LoadStringA@?$CStringT@DV?$StrTraitMFC_DLL@DV?$ChTraitsCRT@D@ATL@@@@@ATL@@QAEHI@Z

; 192  : 		strCur.LoadString(IDS_CUR_OFFER);

  00517	6a 27		 push	 39			; 00000027H
  00519	8d 4d e4	 lea	 ecx, DWORD PTR _strCur$7[ebp]
  0051c	ff 15 00 00 00
	00		 call	 DWORD PTR __imp_?LoadStringA@?$CStringT@DV?$StrTraitMFC_DLL@DV?$ChTraitsCRT@D@ATL@@@@@ATL@@QAEHI@Z

; 193  : 		strCurText.LoadString(IDS_CUR_OFFER_TEXT);

  00522	6a 28		 push	 40			; 00000028H
  00524	8d 4d e0	 lea	 ecx, DWORD PTR _strCurText$5[ebp]
  00527	ff 15 00 00 00
	00		 call	 DWORD PTR __imp_?LoadStringA@?$CStringT@DV?$StrTraitMFC_DLL@DV?$ChTraitsCRT@D@ATL@@@@@ATL@@QAEHI@Z

; 194  : 		strMaxText.LoadString( IDS_MAX_TEXT);

  0052d	6a 54		 push	 84			; 00000054H
  0052f	8d 4d 08	 lea	 ecx, DWORD PTR _strMaxText$19[ebp]
  00532	ff 15 00 00 00
	00		 call	 DWORD PTR __imp_?LoadStringA@?$CStringT@DV?$StrTraitMFC_DLL@DV?$ChTraitsCRT@D@ATL@@@@@ATL@@QAEHI@Z

; 195  : 		(GetDlgItem(IDC_BYFONT_STATIC))->SetWindowText(strBasicText);

  00538	ff 75 e8	 push	 DWORD PTR _strBasicText$9[ebp]
  0053b	8b cf		 mov	 ecx, edi
  0053d	68 49 1f 00 00	 push	 8009			; 00001f49H
  00542	e8 00 00 00 00	 call	 ?GetDlgItem@CWnd@@QBEPAV1@H@Z ; CWnd::GetDlgItem
  00547	8b c8		 mov	 ecx, eax
  00549	e8 00 00 00 00	 call	 ?SetWindowTextA@CWnd@@QAEXPBD@Z ; CWnd::SetWindowTextA

; 196  : 		(GetDlgItem(IDC_SELLFONT_STATIC))->SetWindowText(strCurText);

  0054e	ff 75 e0	 push	 DWORD PTR _strCurText$5[ebp]
  00551	8b cf		 mov	 ecx, edi
  00553	68 4a 1f 00 00	 push	 8010			; 00001f4aH
  00558	e8 00 00 00 00	 call	 ?GetDlgItem@CWnd@@QBEPAV1@H@Z ; CWnd::GetDlgItem
  0055d	8b c8		 mov	 ecx, eax
  0055f	e8 00 00 00 00	 call	 ?SetWindowTextA@CWnd@@QAEXPBD@Z ; CWnd::SetWindowTextA

; 197  : 		(GetDlgItem(IDC_BY_STATIC))->SetWindowText(strBasic);

  00564	ff 75 ec	 push	 DWORD PTR _strBasic$11[ebp]
  00567	8b cf		 mov	 ecx, edi
  00569	68 46 1f 00 00	 push	 8006			; 00001f46H
  0056e	e8 00 00 00 00	 call	 ?GetDlgItem@CWnd@@QBEPAV1@H@Z ; CWnd::GetDlgItem
  00573	8b c8		 mov	 ecx, eax
  00575	e8 00 00 00 00	 call	 ?SetWindowTextA@CWnd@@QAEXPBD@Z ; CWnd::SetWindowTextA

; 198  : 		(GetDlgItem(IDC_SELL_STATIC))->SetWindowText(strCur);

  0057a	ff 75 e4	 push	 DWORD PTR _strCur$7[ebp]
  0057d	8b cf		 mov	 ecx, edi
  0057f	68 47 1f 00 00	 push	 8007			; 00001f47H
  00584	e8 00 00 00 00	 call	 ?GetDlgItem@CWnd@@QBEPAV1@H@Z ; CWnd::GetDlgItem
  00589	8b c8		 mov	 ecx, eax
  0058b	e8 00 00 00 00	 call	 ?SetWindowTextA@CWnd@@QAEXPBD@Z ; CWnd::SetWindowTextA

; 199  : 		(GetDlgItem(IDC_MAX_STATIC))->ShowWindow(SW_SHOW);

  00590	6a 05		 push	 5
  00592	68 48 1f 00 00	 push	 8008			; 00001f48H
  00597	8b cf		 mov	 ecx, edi
  00599	e8 00 00 00 00	 call	 ?GetDlgItem@CWnd@@QBEPAV1@H@Z ; CWnd::GetDlgItem
  0059e	8b c8		 mov	 ecx, eax
  005a0	e8 00 00 00 00	 call	 ?ShowWindow@CWnd@@QAEHH@Z ; CWnd::ShowWindow

; 200  : 		m_btnColor3.ShowWindow(SW_SHOW);

  005a5	6a 05		 push	 5
  005a7	8d 8f 90 02 00
	00		 lea	 ecx, DWORD PTR [edi+656]
  005ad	e8 00 00 00 00	 call	 ?ShowWindow@CWnd@@QAEHH@Z ; CWnd::ShowWindow

; 201  : 		(GetDlgItem(IDC_MAXFONT_STATIC))->SetWindowText(strMaxText);

  005b2	ff 75 08	 push	 DWORD PTR _strMaxText$19[ebp]
  005b5	8b cf		 mov	 ecx, edi
  005b7	68 4b 1f 00 00	 push	 8011			; 00001f4bH
  005bc	e8 00 00 00 00	 call	 ?GetDlgItem@CWnd@@QBEPAV1@H@Z ; CWnd::GetDlgItem
  005c1	8b c8		 mov	 ecx, eax
  005c3	e8 00 00 00 00	 call	 ?SetWindowTextA@CWnd@@QAEXPBD@Z ; CWnd::SetWindowTextA

; 202  : 		// (2008/6/11 - Seung-Won, Bae) Support Buy/Sell Overhanging Supply.
; 203  : 		//		Support Hoga Setting UI for Design Time.
; 204  : 		GetDlgItem( IDC_BARTYPE_STATIC)->ShowWindow( SW_SHOW);

  005c8	6a 05		 push	 5
  005ca	68 64 1f 00 00	 push	 8036			; 00001f64H
  005cf	8b cf		 mov	 ecx, edi
  005d1	e8 00 00 00 00	 call	 ?GetDlgItem@CWnd@@QBEPAV1@H@Z ; CWnd::GetDlgItem
  005d6	8b c8		 mov	 ecx, eax
  005d8	e8 00 00 00 00	 call	 ?ShowWindow@CWnd@@QAEHH@Z ; CWnd::ShowWindow

; 205  : 		GetDlgItem( IDC_LINE_TYPE)->ShowWindow( SW_SHOW);

  005dd	6a 05		 push	 5
  005df	68 11 18 00 00	 push	 6161			; 00001811H
  005e4	8b cf		 mov	 ecx, edi
  005e6	e8 00 00 00 00	 call	 ?GetDlgItem@CWnd@@QBEPAV1@H@Z ; CWnd::GetDlgItem
  005eb	8b c8		 mov	 ecx, eax
  005ed	e8 00 00 00 00	 call	 ?ShowWindow@CWnd@@QAEHH@Z ; CWnd::ShowWindow

; 206  : 		GetDlgItem( IDC_EACH_BUY_SELL)->ShowWindow( SW_HIDE);

  005f2	6a 00		 push	 0
  005f4	68 f7 03 00 00	 push	 1015			; 000003f7H
  005f9	8b cf		 mov	 ecx, edi
  005fb	e8 00 00 00 00	 call	 ?GetDlgItem@CWnd@@QBEPAV1@H@Z ; CWnd::GetDlgItem
  00600	8b c8		 mov	 ecx, eax
  00602	e8 00 00 00 00	 call	 ?ShowWindow@CWnd@@QAEHH@Z ; CWnd::ShowWindow

; 207  : 	}

  00607	8d 4d 08	 lea	 ecx, DWORD PTR _strMaxText$19[ebp]
  0060a	ff 15 00 00 00
	00		 call	 DWORD PTR __imp_??1?$CStringT@DV?$StrTraitMFC_DLL@DV?$ChTraitsCRT@D@ATL@@@@@ATL@@QAE@XZ
  00610	8d 4d e0	 lea	 ecx, DWORD PTR _strCurText$5[ebp]
  00613	ff 15 00 00 00
	00		 call	 DWORD PTR __imp_??1?$CStringT@DV?$StrTraitMFC_DLL@DV?$ChTraitsCRT@D@ATL@@@@@ATL@@QAE@XZ
  00619	8d 4d e4	 lea	 ecx, DWORD PTR _strCur$7[ebp]
  0061c	ff 15 00 00 00
	00		 call	 DWORD PTR __imp_??1?$CStringT@DV?$StrTraitMFC_DLL@DV?$ChTraitsCRT@D@ATL@@@@@ATL@@QAE@XZ
  00622	8d 4d e8	 lea	 ecx, DWORD PTR _strBasicText$9[ebp]
  00625	ff 15 00 00 00
	00		 call	 DWORD PTR __imp_??1?$CStringT@DV?$StrTraitMFC_DLL@DV?$ChTraitsCRT@D@ATL@@@@@ATL@@QAE@XZ
  0062b	8d 4d ec	 lea	 ecx, DWORD PTR _strBasic$11[ebp]
$LN88@Initial:

; 208  : 
; 209  : 	if( pIDblCnd) pIDblCnd->Release();

  0062e	c6 45 fc 01	 mov	 BYTE PTR __$EHRec$[ebp+8], 1
  00632	ff 15 00 00 00
	00		 call	 DWORD PTR __imp_??1?$CStringT@DV?$StrTraitMFC_DLL@DV?$ChTraitsCRT@D@ATL@@@@@ATL@@QAE@XZ
  00638	85 f6		 test	 esi, esi
  0063a	74 06		 je	 SHORT $LN16@Initial
  0063c	8b 06		 mov	 eax, DWORD PTR [esi]
  0063e	56		 push	 esi
  0063f	ff 50 08	 call	 DWORD PTR [eax+8]
$LN16@Initial:

; 210  : 
; 211  : 	UpdateData(FALSE);

  00642	6a 00		 push	 0
  00644	8b cf		 mov	 ecx, edi
  00646	e8 00 00 00 00	 call	 ?UpdateData@CWnd@@QAEHH@Z ; CWnd::UpdateData

; 212  : 
; 213  : 	// (2008/6/11 - Seung-Won, Bae) Support Buy/Sell Overhanging Supply.
; 214  : 	//		Support Hoga Setting UI for Design Time.
; 215  : 	if( m_nHorizontalBarType)	OnHogaRadio();

  0064b	83 bf e0 05 00
	00 00		 cmp	 DWORD PTR [edi+1504], 0
  00652	8b cf		 mov	 ecx, edi
  00654	74 07		 je	 SHORT $LN17@Initial
  00656	e8 00 00 00 00	 call	 ?OnHogaRadio@CSetting_Special_Type_E@@IAEXXZ ; CSetting_Special_Type_E::OnHogaRadio
  0065b	eb 05		 jmp	 SHORT $LN18@Initial
$LN17@Initial:

; 216  : 	else						OnGuganRadio();

  0065d	e8 00 00 00 00	 call	 ?OnGuganRadio@CSetting_Special_Type_E@@IAEXXZ ; CSetting_Special_Type_E::OnGuganRadio
$LN18@Initial:
; File D:\git\src\IBK\IBK_DRFN\ProjSrc\SrcChartEx\ChartAddIn\ChartEnvSetupDlgAddIn\Include_AddIn_135914\I135914\_IString.h

; 44   : 	{

  00662	c6 45 fc 0c	 mov	 BYTE PTR __$EHRec$[ebp+8], 12 ; 0000000cH

; 45   : 		if( m_pIStrData)

  00666	85 db		 test	 ebx, ebx
  00668	74 06		 je	 SHORT $LN74@Initial

; 46   : 		{
; 47   : 			m_pIStrData->Release();

  0066a	8b 03		 mov	 eax, DWORD PTR [ebx]
  0066c	53		 push	 ebx
  0066d	ff 50 08	 call	 DWORD PTR [eax+8]
$LN74@Initial:

; 45   : 		if( m_pIStrData)

  00670	8b 4d d8	 mov	 ecx, DWORD PTR _szKey$[ebp+4]
  00673	c7 45 fc 0d 00
	00 00		 mov	 DWORD PTR __$EHRec$[ebp+8], 13 ; 0000000dH
  0067a	85 c9		 test	 ecx, ecx
  0067c	74 06		 je	 SHORT $LN78@Initial

; 46   : 		{
; 47   : 			m_pIStrData->Release();

  0067e	8b 01		 mov	 eax, DWORD PTR [ecx]
  00680	51		 push	 ecx
  00681	ff 50 08	 call	 DWORD PTR [eax+8]
$LN78@Initial:
; File D:\git\src\IBK\IBK_DRFN\ProjSrc\SrcChartEx\ChartAddIn\ChartEnvSetupDlgAddIn\ChartEnvSetupDlgAddIn\Setting_Special_Type_E.cpp

; 217  : }

  00684	8b 4d f4	 mov	 ecx, DWORD PTR __$EHRec$[ebp]
  00687	64 89 0d 00 00
	00 00		 mov	 DWORD PTR fs:0, ecx
  0068e	59		 pop	 ecx
  0068f	5f		 pop	 edi
  00690	5e		 pop	 esi
  00691	5b		 pop	 ebx
  00692	8b e5		 mov	 esp, ebp
  00694	5d		 pop	 ebp
  00695	c2 04 00	 ret	 4
_TEXT	ENDS
;	COMDAT text$x
text$x	SEGMENT
__unwindfunclet$?Initial@CSetting_Special_Type_E@@UAEXPAUIGraphInfo135914@@@Z$0:
  00000	8d 4d d4	 lea	 ecx, DWORD PTR _szKey$[ebp]
  00003	e9 00 00 00 00	 jmp	 ??1ILPCSTR135914@@QAE@XZ ; ILPCSTR135914::~ILPCSTR135914
__unwindfunclet$?Initial@CSetting_Special_Type_E@@UAEXPAUIGraphInfo135914@@@Z$1:
  00008	8d 4d cc	 lea	 ecx, DWORD PTR _szIndicatorName$[ebp]
  0000b	e9 00 00 00 00	 jmp	 ??1ILPCSTR135914@@QAE@XZ ; ILPCSTR135914::~ILPCSTR135914
__unwindfunclet$?Initial@CSetting_Special_Type_E@@UAEXPAUIGraphInfo135914@@@Z$2:
  00010	8d 4d e0	 lea	 ecx, DWORD PTR _strBuy$6[ebp]
  00013	ff 25 00 00 00
	00		 jmp	 DWORD PTR __imp_??1?$CStringT@DV?$StrTraitMFC_DLL@DV?$ChTraitsCRT@D@ATL@@@@@ATL@@QAE@XZ
__unwindfunclet$?Initial@CSetting_Special_Type_E@@UAEXPAUIGraphInfo135914@@@Z$3:
  00019	8d 4d e4	 lea	 ecx, DWORD PTR _strBuyText$8[ebp]
  0001c	ff 25 00 00 00
	00		 jmp	 DWORD PTR __imp_??1?$CStringT@DV?$StrTraitMFC_DLL@DV?$ChTraitsCRT@D@ATL@@@@@ATL@@QAE@XZ
__unwindfunclet$?Initial@CSetting_Special_Type_E@@UAEXPAUIGraphInfo135914@@@Z$4:
  00022	8d 4d e8	 lea	 ecx, DWORD PTR _strSell$10[ebp]
  00025	ff 25 00 00 00
	00		 jmp	 DWORD PTR __imp_??1?$CStringT@DV?$StrTraitMFC_DLL@DV?$ChTraitsCRT@D@ATL@@@@@ATL@@QAE@XZ
__unwindfunclet$?Initial@CSetting_Special_Type_E@@UAEXPAUIGraphInfo135914@@@Z$5:
  0002b	8d 4d ec	 lea	 ecx, DWORD PTR _strSellText$12[ebp]
  0002e	ff 25 00 00 00
	00		 jmp	 DWORD PTR __imp_??1?$CStringT@DV?$StrTraitMFC_DLL@DV?$ChTraitsCRT@D@ATL@@@@@ATL@@QAE@XZ
__unwindfunclet$?Initial@CSetting_Special_Type_E@@UAEXPAUIGraphInfo135914@@@Z$6:
  00034	8d 4d 08	 lea	 ecx, DWORD PTR _strTotalText$20[ebp]
  00037	ff 25 00 00 00
	00		 jmp	 DWORD PTR __imp_??1?$CStringT@DV?$StrTraitMFC_DLL@DV?$ChTraitsCRT@D@ATL@@@@@ATL@@QAE@XZ
__unwindfunclet$?Initial@CSetting_Special_Type_E@@UAEXPAUIGraphInfo135914@@@Z$7:
  0003d	8d 4d ec	 lea	 ecx, DWORD PTR _strBasic$11[ebp]
  00040	ff 25 00 00 00
	00		 jmp	 DWORD PTR __imp_??1?$CStringT@DV?$StrTraitMFC_DLL@DV?$ChTraitsCRT@D@ATL@@@@@ATL@@QAE@XZ
__unwindfunclet$?Initial@CSetting_Special_Type_E@@UAEXPAUIGraphInfo135914@@@Z$8:
  00046	8d 4d e8	 lea	 ecx, DWORD PTR _strBasicText$9[ebp]
  00049	ff 25 00 00 00
	00		 jmp	 DWORD PTR __imp_??1?$CStringT@DV?$StrTraitMFC_DLL@DV?$ChTraitsCRT@D@ATL@@@@@ATL@@QAE@XZ
__unwindfunclet$?Initial@CSetting_Special_Type_E@@UAEXPAUIGraphInfo135914@@@Z$9:
  0004f	8d 4d e4	 lea	 ecx, DWORD PTR _strCur$7[ebp]
  00052	ff 25 00 00 00
	00		 jmp	 DWORD PTR __imp_??1?$CStringT@DV?$StrTraitMFC_DLL@DV?$ChTraitsCRT@D@ATL@@@@@ATL@@QAE@XZ
__unwindfunclet$?Initial@CSetting_Special_Type_E@@UAEXPAUIGraphInfo135914@@@Z$10:
  00058	8d 4d e0	 lea	 ecx, DWORD PTR _strCurText$5[ebp]
  0005b	ff 25 00 00 00
	00		 jmp	 DWORD PTR __imp_??1?$CStringT@DV?$StrTraitMFC_DLL@DV?$ChTraitsCRT@D@ATL@@@@@ATL@@QAE@XZ
__unwindfunclet$?Initial@CSetting_Special_Type_E@@UAEXPAUIGraphInfo135914@@@Z$11:
  00061	8d 4d 08	 lea	 ecx, DWORD PTR _strMaxText$19[ebp]
  00064	ff 25 00 00 00
	00		 jmp	 DWORD PTR __imp_??1?$CStringT@DV?$StrTraitMFC_DLL@DV?$ChTraitsCRT@D@ATL@@@@@ATL@@QAE@XZ
  0006a	cc		 int	 3
  0006b	cc		 int	 3
  0006c	cc		 int	 3
  0006d	cc		 int	 3
  0006e	cc		 int	 3
__ehhandler$?Initial@CSetting_Special_Type_E@@UAEXPAUIGraphInfo135914@@@Z:
  0006f	90		 npad	 1
  00070	90		 npad	 1
  00071	8b 54 24 08	 mov	 edx, DWORD PTR [esp+8]
  00075	8d 42 0c	 lea	 eax, DWORD PTR [edx+12]
  00078	8b 4a c0	 mov	 ecx, DWORD PTR [edx-64]
  0007b	33 c8		 xor	 ecx, eax
  0007d	e8 00 00 00 00	 call	 @__security_check_cookie@4
  00082	b8 00 00 00 00	 mov	 eax, OFFSET __ehfuncinfo$?Initial@CSetting_Special_Type_E@@UAEXPAUIGraphInfo135914@@@Z
  00087	e9 00 00 00 00	 jmp	 ___CxxFrameHandler3
text$x	ENDS
?Initial@CSetting_Special_Type_E@@UAEXPAUIGraphInfo135914@@@Z ENDP ; CSetting_Special_Type_E::Initial
; Function compile flags: /Ogtp
; File D:\git\src\IBK\IBK_DRFN\ProjSrc\SrcChartEx\ChartAddIn\ChartEnvSetupDlgAddIn\ChartEnvSetupDlgAddIn\Setting_Special_Type_E.cpp
; File C:\Program Files (x86)\Microsoft Visual Studio\2019\Community\VC\Tools\MSVC\14.29.30133\atlmfc\include\afxwin2.inl
; File D:\git\src\IBK\IBK_DRFN\ProjSrc\SrcChartEx\ChartAddIn\ChartEnvSetupDlgAddIn\ChartEnvSetupDlgAddIn\Setting_Special_Type_E.cpp
; File C:\Program Files (x86)\Microsoft Visual Studio\2019\Community\VC\Tools\MSVC\14.29.30133\atlmfc\include\afxwin2.inl
; File D:\git\src\IBK\IBK_DRFN\ProjSrc\SrcChartEx\ChartAddIn\ChartEnvSetupDlgAddIn\ChartEnvSetupDlgAddIn\Setting_Special_Type_E.cpp
; File C:\Program Files (x86)\Microsoft Visual Studio\2019\Community\VC\Tools\MSVC\14.29.30133\atlmfc\include\afxwin2.inl
; File D:\git\src\IBK\IBK_DRFN\ProjSrc\SrcChartEx\ChartAddIn\ChartEnvSetupDlgAddIn\ChartEnvSetupDlgAddIn\Setting_Special_Type_E.cpp
; File C:\Program Files (x86)\Microsoft Visual Studio\2019\Community\VC\Tools\MSVC\14.29.30133\atlmfc\include\afxwin2.inl
; File D:\git\src\IBK\IBK_DRFN\ProjSrc\SrcChartEx\ChartAddIn\ChartEnvSetupDlgAddIn\ChartEnvSetupDlgAddIn\Setting_Special_Type_E.cpp
; File C:\Program Files (x86)\Microsoft Visual Studio\2019\Community\VC\Tools\MSVC\14.29.30133\atlmfc\include\afxwin2.inl
; File D:\git\src\IBK\IBK_DRFN\ProjSrc\SrcChartEx\ChartAddIn\ChartEnvSetupDlgAddIn\ChartEnvSetupDlgAddIn\Setting_Special_Type_E.cpp
; File C:\Program Files (x86)\Microsoft Visual Studio\2019\Community\VC\Tools\MSVC\14.29.30133\atlmfc\include\afxwin2.inl
; File D:\git\src\IBK\IBK_DRFN\ProjSrc\SrcChartEx\ChartAddIn\ChartEnvSetupDlgAddIn\ChartEnvSetupDlgAddIn\Setting_Special_Type_E.cpp
;	COMDAT ?Init_ColorButton@CSetting_Special_Type_E@@AAEXXZ
_TEXT	SEGMENT
$T1 = -4						; size = 4
$T2 = -4						; size = 4
$T3 = -4						; size = 4
$T4 = -4						; size = 4
$T5 = -4						; size = 4
$T6 = -4						; size = 4
?Init_ColorButton@CSetting_Special_Type_E@@AAEXXZ PROC	; CSetting_Special_Type_E::Init_ColorButton, COMDAT
; _this$ = ecx

; 294  : {

  00000	55		 push	 ebp
  00001	8b ec		 mov	 ebp, esp
  00003	51		 push	 ecx
  00004	57		 push	 edi
  00005	8b f9		 mov	 edi, ecx

; 295  : 	if( m_nSubGraphIndex < 0) return;

  00007	8b 97 e8 05 00
	00		 mov	 edx, DWORD PTR [edi+1512]
  0000d	85 d2		 test	 edx, edx
  0000f	0f 88 29 01 00
	00		 js	 $LN1@Init_Color

; 296  : 
; 297  : 	m_btnColor1.SetColor( m_pIGraphInfo->GetSubGraphColor( m_nSubGraphIndex, 1));

  00015	8b 8f c4 00 00
	00		 mov	 ecx, DWORD PTR [edi+196]
  0001b	56		 push	 esi
  0001c	6a 01		 push	 1
  0001e	52		 push	 edx
  0001f	8b 01		 mov	 eax, DWORD PTR [ecx]
  00021	ff 50 64	 call	 DWORD PTR [eax+100]
  00024	89 45 fc	 mov	 DWORD PTR $T6[ebp], eax
  00027	8d 8f a0 03 00
	00		 lea	 ecx, DWORD PTR [edi+928]
  0002d	8d 45 fc	 lea	 eax, DWORD PTR $T6[ebp]
  00030	50		 push	 eax
  00031	e8 00 00 00 00	 call	 ?SetColor@CColorButton@@QAEXABK@Z ; CColorButton::SetColor
; File C:\Program Files (x86)\Microsoft Visual Studio\2019\Community\VC\Tools\MSVC\14.29.30133\atlmfc\include\afxwin2.inl

; 114  : 	{ ASSERT(::IsWindow(m_hWnd)); ::InvalidateRect(m_hWnd, NULL, bErase); }

  00036	8b 35 00 00 00
	00		 mov	 esi, DWORD PTR __imp__InvalidateRect@12
  0003c	6a 01		 push	 1
  0003e	6a 00		 push	 0
  00040	ff b7 c0 03 00
	00		 push	 DWORD PTR [edi+960]
  00046	ff d6		 call	 esi
; File D:\git\src\IBK\IBK_DRFN\ProjSrc\SrcChartEx\ChartAddIn\ChartEnvSetupDlgAddIn\ChartEnvSetupDlgAddIn\Setting_Special_Type_E.cpp

; 300  : 	m_btnColor2.SetColor( m_pIGraphInfo->GetSubGraphColor( m_nSubGraphIndex, 3));

  00048	8b 8f c4 00 00
	00		 mov	 ecx, DWORD PTR [edi+196]
  0004e	6a 03		 push	 3
  00050	ff b7 e8 05 00
	00		 push	 DWORD PTR [edi+1512]
  00056	8b 01		 mov	 eax, DWORD PTR [ecx]
  00058	ff 50 64	 call	 DWORD PTR [eax+100]
  0005b	89 45 fc	 mov	 DWORD PTR $T5[ebp], eax
  0005e	8d 8f 18 03 00
	00		 lea	 ecx, DWORD PTR [edi+792]
  00064	8d 45 fc	 lea	 eax, DWORD PTR $T5[ebp]
  00067	50		 push	 eax
  00068	e8 00 00 00 00	 call	 ?SetColor@CColorButton@@QAEXABK@Z ; CColorButton::SetColor
; File C:\Program Files (x86)\Microsoft Visual Studio\2019\Community\VC\Tools\MSVC\14.29.30133\atlmfc\include\afxwin2.inl

; 114  : 	{ ASSERT(::IsWindow(m_hWnd)); ::InvalidateRect(m_hWnd, NULL, bErase); }

  0006d	6a 01		 push	 1
  0006f	6a 00		 push	 0
  00071	ff b7 38 03 00
	00		 push	 DWORD PTR [edi+824]
  00077	ff d6		 call	 esi
; File D:\git\src\IBK\IBK_DRFN\ProjSrc\SrcChartEx\ChartAddIn\ChartEnvSetupDlgAddIn\ChartEnvSetupDlgAddIn\Setting_Special_Type_E.cpp

; 303  : 	m_btnColor3.SetColor( m_pIGraphInfo->GetSubGraphColor( m_nSubGraphIndex, 5));

  00079	8b 8f c4 00 00
	00		 mov	 ecx, DWORD PTR [edi+196]
  0007f	6a 05		 push	 5
  00081	ff b7 e8 05 00
	00		 push	 DWORD PTR [edi+1512]
  00087	8b 01		 mov	 eax, DWORD PTR [ecx]
  00089	ff 50 64	 call	 DWORD PTR [eax+100]
  0008c	89 45 fc	 mov	 DWORD PTR $T4[ebp], eax
  0008f	8d 8f 90 02 00
	00		 lea	 ecx, DWORD PTR [edi+656]
  00095	8d 45 fc	 lea	 eax, DWORD PTR $T4[ebp]
  00098	50		 push	 eax
  00099	e8 00 00 00 00	 call	 ?SetColor@CColorButton@@QAEXABK@Z ; CColorButton::SetColor
; File C:\Program Files (x86)\Microsoft Visual Studio\2019\Community\VC\Tools\MSVC\14.29.30133\atlmfc\include\afxwin2.inl

; 114  : 	{ ASSERT(::IsWindow(m_hWnd)); ::InvalidateRect(m_hWnd, NULL, bErase); }

  0009e	6a 01		 push	 1
  000a0	6a 00		 push	 0
  000a2	ff b7 b0 02 00
	00		 push	 DWORD PTR [edi+688]
  000a8	ff d6		 call	 esi
; File D:\git\src\IBK\IBK_DRFN\ProjSrc\SrcChartEx\ChartAddIn\ChartEnvSetupDlgAddIn\ChartEnvSetupDlgAddIn\Setting_Special_Type_E.cpp

; 306  : 	m_btnColor4.SetColor( m_pIGraphInfo->GetSubGraphColor( m_nSubGraphIndex, 2));

  000aa	8b 8f c4 00 00
	00		 mov	 ecx, DWORD PTR [edi+196]
  000b0	6a 02		 push	 2
  000b2	ff b7 e8 05 00
	00		 push	 DWORD PTR [edi+1512]
  000b8	8b 01		 mov	 eax, DWORD PTR [ecx]
  000ba	ff 50 64	 call	 DWORD PTR [eax+100]
  000bd	89 45 fc	 mov	 DWORD PTR $T3[ebp], eax
  000c0	8d 8f 08 02 00
	00		 lea	 ecx, DWORD PTR [edi+520]
  000c6	8d 45 fc	 lea	 eax, DWORD PTR $T3[ebp]
  000c9	50		 push	 eax
  000ca	e8 00 00 00 00	 call	 ?SetColor@CColorButton@@QAEXABK@Z ; CColorButton::SetColor
; File C:\Program Files (x86)\Microsoft Visual Studio\2019\Community\VC\Tools\MSVC\14.29.30133\atlmfc\include\afxwin2.inl

; 114  : 	{ ASSERT(::IsWindow(m_hWnd)); ::InvalidateRect(m_hWnd, NULL, bErase); }

  000cf	6a 01		 push	 1
  000d1	6a 00		 push	 0
  000d3	ff b7 28 02 00
	00		 push	 DWORD PTR [edi+552]
  000d9	ff d6		 call	 esi
; File D:\git\src\IBK\IBK_DRFN\ProjSrc\SrcChartEx\ChartAddIn\ChartEnvSetupDlgAddIn\ChartEnvSetupDlgAddIn\Setting_Special_Type_E.cpp

; 309  : 	m_btnColor5.SetColor( m_pIGraphInfo->GetSubGraphColor( m_nSubGraphIndex, 4));

  000db	8b 8f c4 00 00
	00		 mov	 ecx, DWORD PTR [edi+196]
  000e1	6a 04		 push	 4
  000e3	ff b7 e8 05 00
	00		 push	 DWORD PTR [edi+1512]
  000e9	8b 01		 mov	 eax, DWORD PTR [ecx]
  000eb	ff 50 64	 call	 DWORD PTR [eax+100]
  000ee	89 45 fc	 mov	 DWORD PTR $T2[ebp], eax
  000f1	8d 8f 80 01 00
	00		 lea	 ecx, DWORD PTR [edi+384]
  000f7	8d 45 fc	 lea	 eax, DWORD PTR $T2[ebp]
  000fa	50		 push	 eax
  000fb	e8 00 00 00 00	 call	 ?SetColor@CColorButton@@QAEXABK@Z ; CColorButton::SetColor
; File C:\Program Files (x86)\Microsoft Visual Studio\2019\Community\VC\Tools\MSVC\14.29.30133\atlmfc\include\afxwin2.inl

; 114  : 	{ ASSERT(::IsWindow(m_hWnd)); ::InvalidateRect(m_hWnd, NULL, bErase); }

  00100	6a 01		 push	 1
  00102	6a 00		 push	 0
  00104	ff b7 a0 01 00
	00		 push	 DWORD PTR [edi+416]
  0010a	ff d6		 call	 esi
; File D:\git\src\IBK\IBK_DRFN\ProjSrc\SrcChartEx\ChartAddIn\ChartEnvSetupDlgAddIn\ChartEnvSetupDlgAddIn\Setting_Special_Type_E.cpp

; 312  : 	m_btnColor6.SetColor( m_pIGraphInfo->GetSubGraphColor( m_nSubGraphIndex, 6));

  0010c	8b 8f c4 00 00
	00		 mov	 ecx, DWORD PTR [edi+196]
  00112	6a 06		 push	 6
  00114	ff b7 e8 05 00
	00		 push	 DWORD PTR [edi+1512]
  0011a	8b 01		 mov	 eax, DWORD PTR [ecx]
  0011c	ff 50 64	 call	 DWORD PTR [eax+100]
  0011f	89 45 fc	 mov	 DWORD PTR $T1[ebp], eax
  00122	8d 8f f8 00 00
	00		 lea	 ecx, DWORD PTR [edi+248]
  00128	8d 45 fc	 lea	 eax, DWORD PTR $T1[ebp]
  0012b	50		 push	 eax
  0012c	e8 00 00 00 00	 call	 ?SetColor@CColorButton@@QAEXABK@Z ; CColorButton::SetColor
; File C:\Program Files (x86)\Microsoft Visual Studio\2019\Community\VC\Tools\MSVC\14.29.30133\atlmfc\include\afxwin2.inl

; 114  : 	{ ASSERT(::IsWindow(m_hWnd)); ::InvalidateRect(m_hWnd, NULL, bErase); }

  00131	6a 01		 push	 1
  00133	6a 00		 push	 0
  00135	ff b7 18 01 00
	00		 push	 DWORD PTR [edi+280]
  0013b	ff d6		 call	 esi
  0013d	5e		 pop	 esi
$LN1@Init_Color:
  0013e	5f		 pop	 edi
; File D:\git\src\IBK\IBK_DRFN\ProjSrc\SrcChartEx\ChartAddIn\ChartEnvSetupDlgAddIn\ChartEnvSetupDlgAddIn\Setting_Special_Type_E.cpp

; 314  : }

  0013f	8b e5		 mov	 esp, ebp
  00141	5d		 pop	 ebp
  00142	c3		 ret	 0
?Init_ColorButton@CSetting_Special_Type_E@@AAEXXZ ENDP	; CSetting_Special_Type_E::Init_ColorButton
_TEXT	ENDS
; Function compile flags: /Ogtp
; File D:\git\src\IBK\IBK_DRFN\ProjSrc\SrcChartEx\ChartAddIn\ChartEnvSetupDlgAddIn\ChartEnvSetupDlgAddIn\Setting_Special_Type_E.cpp
;	COMDAT ?DoDataExchange@CSetting_Special_Type_E@@MAEXPAVCDataExchange@@@Z
_TEXT	SEGMENT
_pDX$ = 8						; size = 4
?DoDataExchange@CSetting_Special_Type_E@@MAEXPAVCDataExchange@@@Z PROC ; CSetting_Special_Type_E::DoDataExchange, COMDAT
; _this$ = ecx

; 42   : {

  00000	55		 push	 ebp
  00001	8b ec		 mov	 ebp, esp
  00003	56		 push	 esi

; 43   : 	CDialog::DoDataExchange(pDX);
; 44   : 	//{{AFX_DATA_MAP(CSetting_Special_Type_E)
; 45   : 	DDX_Control(pDX, IDC_BTN_COLOR6, m_btnColor6);

  00004	8b 75 08	 mov	 esi, DWORD PTR _pDX$[ebp]
  00007	57		 push	 edi
  00008	8b f9		 mov	 edi, ecx
  0000a	8d 87 f8 00 00
	00		 lea	 eax, DWORD PTR [edi+248]
  00010	50		 push	 eax
  00011	68 17 18 00 00	 push	 6167			; 00001817H
  00016	56		 push	 esi
  00017	e8 00 00 00 00	 call	 ?DDX_Control@@YGXPAVCDataExchange@@HAAVCWnd@@@Z ; DDX_Control

; 46   : 	DDX_Control(pDX, IDC_BTN_COLOR5, m_btnColor5);

  0001c	8d 87 80 01 00
	00		 lea	 eax, DWORD PTR [edi+384]
  00022	50		 push	 eax
  00023	68 16 18 00 00	 push	 6166			; 00001816H
  00028	56		 push	 esi
  00029	e8 00 00 00 00	 call	 ?DDX_Control@@YGXPAVCDataExchange@@HAAVCWnd@@@Z ; DDX_Control

; 47   : 	DDX_Control(pDX, IDC_BTN_COLOR4, m_btnColor4);

  0002e	8d 87 08 02 00
	00		 lea	 eax, DWORD PTR [edi+520]
  00034	50		 push	 eax
  00035	68 15 18 00 00	 push	 6165			; 00001815H
  0003a	56		 push	 esi
  0003b	e8 00 00 00 00	 call	 ?DDX_Control@@YGXPAVCDataExchange@@HAAVCWnd@@@Z ; DDX_Control

; 48   : 	DDX_Control(pDX, IDC_BTN_COLOR3, m_btnColor3);

  00040	8d 87 90 02 00
	00		 lea	 eax, DWORD PTR [edi+656]
  00046	50		 push	 eax
  00047	68 14 18 00 00	 push	 6164			; 00001814H
  0004c	56		 push	 esi
  0004d	e8 00 00 00 00	 call	 ?DDX_Control@@YGXPAVCDataExchange@@HAAVCWnd@@@Z ; DDX_Control

; 49   : 	DDX_Control(pDX, IDC_BTN_COLOR2, m_btnColor2);

  00052	8d 87 18 03 00
	00		 lea	 eax, DWORD PTR [edi+792]
  00058	50		 push	 eax
  00059	68 13 18 00 00	 push	 6163			; 00001813H
  0005e	56		 push	 esi
  0005f	e8 00 00 00 00	 call	 ?DDX_Control@@YGXPAVCDataExchange@@HAAVCWnd@@@Z ; DDX_Control

; 50   : 	DDX_Control(pDX, IDC_BTN_COLOR1, m_btnColor1);

  00064	8d 87 a0 03 00
	00		 lea	 eax, DWORD PTR [edi+928]
  0006a	50		 push	 eax
  0006b	68 12 18 00 00	 push	 6162			; 00001812H
  00070	56		 push	 esi
  00071	e8 00 00 00 00	 call	 ?DDX_Control@@YGXPAVCDataExchange@@HAAVCWnd@@@Z ; DDX_Control

; 51   : 	DDX_Control(pDX, IDC_LINE_TYPE, m_cmbLineType);

  00076	8d 87 28 04 00
	00		 lea	 eax, DWORD PTR [edi+1064]
  0007c	50		 push	 eax
  0007d	68 11 18 00 00	 push	 6161			; 00001811H
  00082	56		 push	 esi
  00083	e8 00 00 00 00	 call	 ?DDX_Control@@YGXPAVCDataExchange@@HAAVCWnd@@@Z ; DDX_Control

; 52   : 	DDX_Radio(pDX, IDC_RADIO1, m_nTextType);

  00088	8d 87 b0 04 00
	00		 lea	 eax, DWORD PTR [edi+1200]
  0008e	50		 push	 eax
  0008f	68 0c 18 00 00	 push	 6156			; 0000180cH
  00094	56		 push	 esi
  00095	e8 00 00 00 00	 call	 ?DDX_Radio@@YGXPAVCDataExchange@@HAAH@Z ; DDX_Radio

; 53   : 	DDX_Control(pDX, IDC_SPIN1, m_spnCond1);

  0009a	8d 87 b8 04 00
	00		 lea	 eax, DWORD PTR [edi+1208]
  000a0	50		 push	 eax
  000a1	68 ec 03 00 00	 push	 1004			; 000003ecH
  000a6	56		 push	 esi
  000a7	e8 00 00 00 00	 call	 ?DDX_Control@@YGXPAVCDataExchange@@HAAVCWnd@@@Z ; DDX_Control

; 54   : 	DDX_Control(pDX, IDC_EDIT1, m_edtCond1);

  000ac	8d 87 38 05 00
	00		 lea	 eax, DWORD PTR [edi+1336]
  000b2	50		 push	 eax
  000b3	68 0d 18 00 00	 push	 6157			; 0000180dH
  000b8	56		 push	 esi
  000b9	e8 00 00 00 00	 call	 ?DDX_Control@@YGXPAVCDataExchange@@HAAVCWnd@@@Z ; DDX_Control

; 55   : 	DDX_Radio(pDX, IDC_GUGAN_RADIO, m_nHorizontalBarType);

  000be	8d 87 e0 05 00
	00		 lea	 eax, DWORD PTR [edi+1504]
  000c4	50		 push	 eax
  000c5	68 43 1f 00 00	 push	 8003			; 00001f43H
  000ca	56		 push	 esi
  000cb	e8 00 00 00 00	 call	 ?DDX_Radio@@YGXPAVCDataExchange@@HAAH@Z ; DDX_Radio

; 56   : 	DDX_Check(pDX, IDC_EACH_BUY_SELL, m_bIsIndividually);

  000d0	8d 87 e4 05 00
	00		 lea	 eax, DWORD PTR [edi+1508]
  000d6	50		 push	 eax
  000d7	68 f7 03 00 00	 push	 1015			; 000003f7H
  000dc	56		 push	 esi
  000dd	e8 00 00 00 00	 call	 ?DDX_Check@@YGXPAVCDataExchange@@HAAH@Z ; DDX_Check
  000e2	5f		 pop	 edi
  000e3	5e		 pop	 esi

; 57   : 	//}}AFX_DATA_MAP
; 58   : }

  000e4	5d		 pop	 ebp
  000e5	c2 04 00	 ret	 4
?DoDataExchange@CSetting_Special_Type_E@@MAEXPAVCDataExchange@@@Z ENDP ; CSetting_Special_Type_E::DoDataExchange
_TEXT	ENDS
; Function compile flags: /Ogtp
; File D:\git\src\IBK\IBK_DRFN\ProjSrc\SrcChartEx\ChartAddIn\ChartEnvSetupDlgAddIn\ChartEnvSetupDlgAddIn\Setting_Special_Type_E.cpp
; File D:\git\src\IBK\IBK_DRFN\ProjSrc\SrcChartEx\ChartAddIn\ChartEnvSetupDlgAddIn\ChartEnvSetupDlgAddIn\DlgEnvSetUpAll.h
; File D:\git\src\IBK\IBK_DRFN\ProjSrc\SrcChartEx\ChartAddIn\ChartEnvSetupDlgAddIn\ChartEnvSetupDlgAddIn\Setting_Special_Type_E.cpp
; File D:\git\src\IBK\IBK_DRFN\ProjSrc\SrcChartEx\ChartAddIn\ChartEnvSetupDlgAddIn\ChartEnvSetupDlgAddIn\GraphSetting.h
; File D:\git\src\IBK\IBK_DRFN\ProjSrc\SrcChartEx\ChartAddIn\ChartEnvSetupDlgAddIn\ChartEnvSetupDlgAddIn\Setting_Special_Type_E.cpp
; File D:\git\src\IBK\IBK_DRFN\ProjSrc\SrcChartEx\ChartAddIn\ChartEnvSetupDlgAddIn\ChartEnvSetupDlgAddIn\DlgEnvSetUpAll.h
; File D:\git\src\IBK\IBK_DRFN\ProjSrc\SrcChartEx\ChartAddIn\ChartEnvSetupDlgAddIn\ChartEnvSetupDlgAddIn\Setting_Special_Type_E.cpp
; File D:\git\src\IBK\IBK_DRFN\ProjSrc\SrcChartEx\ChartAddIn\ChartEnvSetupDlgAddIn\ChartEnvSetupDlgAddIn\GraphSetting.h
; File D:\git\src\IBK\IBK_DRFN\ProjSrc\SrcChartEx\ChartAddIn\ChartEnvSetupDlgAddIn\ChartEnvSetupDlgAddIn\Setting_Special_Type_E.cpp
;	COMDAT ?PreTranslateMessage@CSetting_Special_Type_E@@UAEHPAUtagMSG@@@Z
_TEXT	SEGMENT
_pMsg$ = 8						; size = 4
?PreTranslateMessage@CSetting_Special_Type_E@@UAEHPAUtagMSG@@@Z PROC ; CSetting_Special_Type_E::PreTranslateMessage, COMDAT
; _this$ = ecx

; 451  : {

  00000	55		 push	 ebp
  00001	8b ec		 mov	 ebp, esp
  00003	56		 push	 esi
  00004	57		 push	 edi

; 452  : 	// TODO: Add your specialized code here and/or call the base class
; 453  : 	if(pMsg->message == WM_KEYDOWN)

  00005	8b 7d 08	 mov	 edi, DWORD PTR _pMsg$[ebp]
  00008	8b f1		 mov	 esi, ecx
  0000a	81 7f 04 00 01
	00 00		 cmp	 DWORD PTR [edi+4], 256	; 00000100H
  00011	75 62		 jne	 SHORT $LN10@PreTransla

; 454  : 	{
; 455  : 		if(pMsg->wParam == VK_RETURN)

  00013	83 7f 08 0d	 cmp	 DWORD PTR [edi+8], 13	; 0000000dH
  00017	75 22		 jne	 SHORT $LN6@PreTransla

; 456  : 		{
; 457  : 			if( m_pParentWnd != NULL )

  00019	8b 8e 94 00 00
	00		 mov	 ecx, DWORD PTR [esi+148]
  0001f	85 c9		 test	 ecx, ecx
  00021	74 18		 je	 SHORT $LN6@PreTransla

; 458  : 			{
; 459  : 				if( m_pTopWnd != NULL )

  00023	8b 96 d0 00 00
	00		 mov	 edx, DWORD PTR [esi+208]
  00029	85 d2		 test	 edx, edx
  0002b	74 06		 je	 SHORT $LN5@PreTransla
; File D:\git\src\IBK\IBK_DRFN\ProjSrc\SrcChartEx\ChartAddIn\ChartEnvSetupDlgAddIn\ChartEnvSetupDlgAddIn\DlgEnvSetUpAll.h

; 60   : 	void OK( void )			{ OnOK(); };

  0002d	8b 02		 mov	 eax, DWORD PTR [edx]
  0002f	8b ca		 mov	 ecx, edx
; File D:\git\src\IBK\IBK_DRFN\ProjSrc\SrcChartEx\ChartAddIn\ChartEnvSetupDlgAddIn\ChartEnvSetupDlgAddIn\Setting_Special_Type_E.cpp

; 460  : 					( (CDlgEnvSetUpAll *)m_pTopWnd)->OK();

  00031	eb 02		 jmp	 SHORT $LN20@PreTransla
$LN5@PreTransla:
; File D:\git\src\IBK\IBK_DRFN\ProjSrc\SrcChartEx\ChartAddIn\ChartEnvSetupDlgAddIn\ChartEnvSetupDlgAddIn\GraphSetting.h

; 36   : 	void OK( void )			{ OnOK(); };

  00033	8b 01		 mov	 eax, DWORD PTR [ecx]
$LN20@PreTransla:
; File D:\git\src\IBK\IBK_DRFN\ProjSrc\SrcChartEx\ChartAddIn\ChartEnvSetupDlgAddIn\ChartEnvSetupDlgAddIn\Setting_Special_Type_E.cpp

; 468  : 		if( pMsg->wParam == VK_ESCAPE )

  00035	ff 90 88 01 00
	00		 call	 DWORD PTR [eax+392]
$LN6@PreTransla:
  0003b	83 7f 08 1b	 cmp	 DWORD PTR [edi+8], 27	; 0000001bH
  0003f	75 34		 jne	 SHORT $LN10@PreTransla

; 469  : 		{
; 470  : 			if( m_pParentWnd != NULL )

  00041	8b 8e 94 00 00
	00		 mov	 ecx, DWORD PTR [esi+148]
  00047	85 c9		 test	 ecx, ecx
  00049	74 2a		 je	 SHORT $LN10@PreTransla

; 471  : 			{
; 472  : 				if( m_pTopWnd != NULL )

  0004b	8b 96 d0 00 00
	00		 mov	 edx, DWORD PTR [esi+208]
  00051	85 d2		 test	 edx, edx
  00053	74 18		 je	 SHORT $LN9@PreTransla
; File D:\git\src\IBK\IBK_DRFN\ProjSrc\SrcChartEx\ChartAddIn\ChartEnvSetupDlgAddIn\ChartEnvSetupDlgAddIn\DlgEnvSetUpAll.h

; 61   : 	void Cancel( void )		{ OnCancel(); };

  00055	8b 02		 mov	 eax, DWORD PTR [edx]
  00057	8b ca		 mov	 ecx, edx
; File D:\git\src\IBK\IBK_DRFN\ProjSrc\SrcChartEx\ChartAddIn\ChartEnvSetupDlgAddIn\ChartEnvSetupDlgAddIn\Setting_Special_Type_E.cpp

; 481  : 	return CDialog::PreTranslateMessage(pMsg);

  00059	ff 90 8c 01 00
	00		 call	 DWORD PTR [eax+396]
  0005f	57		 push	 edi
  00060	8b ce		 mov	 ecx, esi
  00062	e8 00 00 00 00	 call	 ?PreTranslateMessage@CDialog@@UAEHPAUtagMSG@@@Z ; CDialog::PreTranslateMessage
  00067	5f		 pop	 edi
  00068	5e		 pop	 esi

; 482  : }

  00069	5d		 pop	 ebp
  0006a	c2 04 00	 ret	 4
$LN9@PreTransla:
; File D:\git\src\IBK\IBK_DRFN\ProjSrc\SrcChartEx\ChartAddIn\ChartEnvSetupDlgAddIn\ChartEnvSetupDlgAddIn\GraphSetting.h

; 37   : 	void Cancel( void )		{ OnCancel(); };

  0006d	8b 01		 mov	 eax, DWORD PTR [ecx]
; File D:\git\src\IBK\IBK_DRFN\ProjSrc\SrcChartEx\ChartAddIn\ChartEnvSetupDlgAddIn\ChartEnvSetupDlgAddIn\Setting_Special_Type_E.cpp

; 481  : 	return CDialog::PreTranslateMessage(pMsg);

  0006f	ff 90 8c 01 00
	00		 call	 DWORD PTR [eax+396]
$LN10@PreTransla:
  00075	57		 push	 edi
  00076	8b ce		 mov	 ecx, esi
  00078	e8 00 00 00 00	 call	 ?PreTranslateMessage@CDialog@@UAEHPAUtagMSG@@@Z ; CDialog::PreTranslateMessage
  0007d	5f		 pop	 edi
  0007e	5e		 pop	 esi

; 482  : }

  0007f	5d		 pop	 ebp
  00080	c2 04 00	 ret	 4
?PreTranslateMessage@CSetting_Special_Type_E@@UAEHPAUtagMSG@@@Z ENDP ; CSetting_Special_Type_E::PreTranslateMessage
_TEXT	ENDS
; Function compile flags: /Ogtp
; File D:\git\src\IBK\IBK_DRFN\ProjSrc\SrcChartEx\ChartAddIn\ChartEnvSetupDlgAddIn\ChartEnvSetupDlgAddIn\Setting_Special_Type_E.cpp
;	COMDAT ??0CSetting_Special_Type_E@@QAE@PAUIChartOCX135914@@PAVCWnd@@1@Z
_TEXT	SEGMENT
_this$ = -16						; size = 4
__$EHRec$ = -12						; size = 12
_p_pIChartOCX$ = 8					; size = 4
_pParent$ = 12						; size = 4
_pTopWnd$ = 16						; size = 4
??0CSetting_Special_Type_E@@QAE@PAUIChartOCX135914@@PAVCWnd@@1@Z PROC ; CSetting_Special_Type_E::CSetting_Special_Type_E, COMDAT
; _this$ = ecx

; 33   : {

  00000	55		 push	 ebp
  00001	8b ec		 mov	 ebp, esp
  00003	6a ff		 push	 -1
  00005	68 00 00 00 00	 push	 __ehhandler$??0CSetting_Special_Type_E@@QAE@PAUIChartOCX135914@@PAVCWnd@@1@Z
  0000a	64 a1 00 00 00
	00		 mov	 eax, DWORD PTR fs:0
  00010	50		 push	 eax
  00011	51		 push	 ecx
  00012	56		 push	 esi
  00013	a1 00 00 00 00	 mov	 eax, DWORD PTR ___security_cookie
  00018	33 c5		 xor	 eax, ebp
  0001a	50		 push	 eax
  0001b	8d 45 f4	 lea	 eax, DWORD PTR __$EHRec$[ebp]
  0001e	64 a3 00 00 00
	00		 mov	 DWORD PTR fs:0, eax
  00024	8b f1		 mov	 esi, ecx
  00026	89 75 f0	 mov	 DWORD PTR _this$[ebp], esi

; 32   : 	: CBaseDialog( CSetting_Special_Type_E::IDD, pParent, p_pIChartOCX, NULL)

  00029	6a 00		 push	 0
  0002b	ff 75 08	 push	 DWORD PTR _p_pIChartOCX$[ebp]
  0002e	ff 75 0c	 push	 DWORD PTR _pParent$[ebp]
  00031	68 92 17 00 00	 push	 6034			; 00001792H
  00036	e8 00 00 00 00	 call	 ??0CBaseDialog@@QAE@IPAVCWnd@@PAUIChartOCX135914@@0@Z ; CBaseDialog::CBaseDialog

; 33   : {

  0003b	8d 8e f8 00 00
	00		 lea	 ecx, DWORD PTR [esi+248]
  00041	c7 45 fc 00 00
	00 00		 mov	 DWORD PTR __$EHRec$[ebp+8], 0
  00048	c7 06 00 00 00
	00		 mov	 DWORD PTR [esi], OFFSET ??_7CSetting_Special_Type_E@@6B@
  0004e	e8 00 00 00 00	 call	 ??0CColorButton@@QAE@XZ	; CColorButton::CColorButton
  00053	8d 8e 80 01 00
	00		 lea	 ecx, DWORD PTR [esi+384]
  00059	c6 45 fc 01	 mov	 BYTE PTR __$EHRec$[ebp+8], 1
  0005d	e8 00 00 00 00	 call	 ??0CColorButton@@QAE@XZ	; CColorButton::CColorButton
  00062	8d 8e 08 02 00
	00		 lea	 ecx, DWORD PTR [esi+520]
  00068	c6 45 fc 02	 mov	 BYTE PTR __$EHRec$[ebp+8], 2
  0006c	e8 00 00 00 00	 call	 ??0CColorButton@@QAE@XZ	; CColorButton::CColorButton
  00071	8d 8e 90 02 00
	00		 lea	 ecx, DWORD PTR [esi+656]
  00077	c6 45 fc 03	 mov	 BYTE PTR __$EHRec$[ebp+8], 3
  0007b	e8 00 00 00 00	 call	 ??0CColorButton@@QAE@XZ	; CColorButton::CColorButton
  00080	8d 8e 18 03 00
	00		 lea	 ecx, DWORD PTR [esi+792]
  00086	c6 45 fc 04	 mov	 BYTE PTR __$EHRec$[ebp+8], 4
  0008a	e8 00 00 00 00	 call	 ??0CColorButton@@QAE@XZ	; CColorButton::CColorButton
  0008f	8d 8e a0 03 00
	00		 lea	 ecx, DWORD PTR [esi+928]
  00095	c6 45 fc 05	 mov	 BYTE PTR __$EHRec$[ebp+8], 5
  00099	e8 00 00 00 00	 call	 ??0CColorButton@@QAE@XZ	; CColorButton::CColorButton
  0009e	8d 8e 28 04 00
	00		 lea	 ecx, DWORD PTR [esi+1064]
  000a4	c6 45 fc 06	 mov	 BYTE PTR __$EHRec$[ebp+8], 6
  000a8	e8 00 00 00 00	 call	 ??0CBitmapItemComboBox@@QAE@XZ ; CBitmapItemComboBox::CBitmapItemComboBox
  000ad	8d 8e b8 04 00
	00		 lea	 ecx, DWORD PTR [esi+1208]
  000b3	c6 45 fc 07	 mov	 BYTE PTR __$EHRec$[ebp+8], 7
  000b7	e8 00 00 00 00	 call	 ??0CNumSpinCtrl@@QAE@XZ	; CNumSpinCtrl::CNumSpinCtrl
  000bc	8d 8e 38 05 00
	00		 lea	 ecx, DWORD PTR [esi+1336]
  000c2	c6 45 fc 08	 mov	 BYTE PTR __$EHRec$[ebp+8], 8
  000c6	e8 00 00 00 00	 call	 ??0CNumEdit@@QAE@XZ	; CNumEdit::CNumEdit

; 34   : 	//{{AFX_DATA_INIT(CSetting_Special_Type_E)
; 35   : 	m_bIsIndividually = FALSE;

  000cb	c7 86 e4 05 00
	00 00 00 00 00	 mov	 DWORD PTR [esi+1508], 0

; 36   : 	//}}AFX_DATA_INIT
; 37   : 	m_nSubGraphIndex = -1;
; 38   : }

  000d5	8b c6		 mov	 eax, esi
  000d7	c7 86 e8 05 00
	00 ff ff ff ff	 mov	 DWORD PTR [esi+1512], -1
  000e1	8b 4d f4	 mov	 ecx, DWORD PTR __$EHRec$[ebp]
  000e4	64 89 0d 00 00
	00 00		 mov	 DWORD PTR fs:0, ecx
  000eb	59		 pop	 ecx
  000ec	5e		 pop	 esi
  000ed	8b e5		 mov	 esp, ebp
  000ef	5d		 pop	 ebp
  000f0	c2 0c 00	 ret	 12			; 0000000cH
_TEXT	ENDS
;	COMDAT text$x
text$x	SEGMENT
__unwindfunclet$??0CSetting_Special_Type_E@@QAE@PAUIChartOCX135914@@PAVCWnd@@1@Z$0:
  00000	8b 4d f0	 mov	 ecx, DWORD PTR _this$[ebp]
  00003	e9 00 00 00 00	 jmp	 ??1CBaseDialog@@UAE@XZ	; CBaseDialog::~CBaseDialog
__unwindfunclet$??0CSetting_Special_Type_E@@QAE@PAUIChartOCX135914@@PAVCWnd@@1@Z$1:
  00008	8b 4d f0	 mov	 ecx, DWORD PTR _this$[ebp]
  0000b	81 c1 f8 00 00
	00		 add	 ecx, 248		; 000000f8H
  00011	e9 00 00 00 00	 jmp	 ??1CColorButton@@UAE@XZ	; CColorButton::~CColorButton
__unwindfunclet$??0CSetting_Special_Type_E@@QAE@PAUIChartOCX135914@@PAVCWnd@@1@Z$2:
  00016	8b 4d f0	 mov	 ecx, DWORD PTR _this$[ebp]
  00019	81 c1 80 01 00
	00		 add	 ecx, 384		; 00000180H
  0001f	e9 00 00 00 00	 jmp	 ??1CColorButton@@UAE@XZ	; CColorButton::~CColorButton
__unwindfunclet$??0CSetting_Special_Type_E@@QAE@PAUIChartOCX135914@@PAVCWnd@@1@Z$3:
  00024	8b 4d f0	 mov	 ecx, DWORD PTR _this$[ebp]
  00027	81 c1 08 02 00
	00		 add	 ecx, 520		; 00000208H
  0002d	e9 00 00 00 00	 jmp	 ??1CColorButton@@UAE@XZ	; CColorButton::~CColorButton
__unwindfunclet$??0CSetting_Special_Type_E@@QAE@PAUIChartOCX135914@@PAVCWnd@@1@Z$4:
  00032	8b 4d f0	 mov	 ecx, DWORD PTR _this$[ebp]
  00035	81 c1 90 02 00
	00		 add	 ecx, 656		; 00000290H
  0003b	e9 00 00 00 00	 jmp	 ??1CColorButton@@UAE@XZ	; CColorButton::~CColorButton
__unwindfunclet$??0CSetting_Special_Type_E@@QAE@PAUIChartOCX135914@@PAVCWnd@@1@Z$5:
  00040	8b 4d f0	 mov	 ecx, DWORD PTR _this$[ebp]
  00043	81 c1 18 03 00
	00		 add	 ecx, 792		; 00000318H
  00049	e9 00 00 00 00	 jmp	 ??1CColorButton@@UAE@XZ	; CColorButton::~CColorButton
__unwindfunclet$??0CSetting_Special_Type_E@@QAE@PAUIChartOCX135914@@PAVCWnd@@1@Z$6:
  0004e	8b 4d f0	 mov	 ecx, DWORD PTR _this$[ebp]
  00051	81 c1 a0 03 00
	00		 add	 ecx, 928		; 000003a0H
  00057	e9 00 00 00 00	 jmp	 ??1CColorButton@@UAE@XZ	; CColorButton::~CColorButton
__unwindfunclet$??0CSetting_Special_Type_E@@QAE@PAUIChartOCX135914@@PAVCWnd@@1@Z$7:
  0005c	8b 4d f0	 mov	 ecx, DWORD PTR _this$[ebp]
  0005f	81 c1 28 04 00
	00		 add	 ecx, 1064		; 00000428H
  00065	e9 00 00 00 00	 jmp	 ??1CBitmapItemComboBox@@UAE@XZ ; CBitmapItemComboBox::~CBitmapItemComboBox
__unwindfunclet$??0CSetting_Special_Type_E@@QAE@PAUIChartOCX135914@@PAVCWnd@@1@Z$8:
  0006a	8b 4d f0	 mov	 ecx, DWORD PTR _this$[ebp]
  0006d	81 c1 b8 04 00
	00		 add	 ecx, 1208		; 000004b8H
  00073	e9 00 00 00 00	 jmp	 ??1CNumSpinCtrl@@UAE@XZ	; CNumSpinCtrl::~CNumSpinCtrl
  00078	cc		 int	 3
  00079	cc		 int	 3
  0007a	cc		 int	 3
  0007b	cc		 int	 3
  0007c	cc		 int	 3
__ehhandler$??0CSetting_Special_Type_E@@QAE@PAUIChartOCX135914@@PAVCWnd@@1@Z:
  0007d	90		 npad	 1
  0007e	90		 npad	 1
  0007f	8b 54 24 08	 mov	 edx, DWORD PTR [esp+8]
  00083	8d 42 0c	 lea	 eax, DWORD PTR [edx+12]
  00086	8b 4a f4	 mov	 ecx, DWORD PTR [edx-12]
  00089	33 c8		 xor	 ecx, eax
  0008b	e8 00 00 00 00	 call	 @__security_check_cookie@4
  00090	b8 00 00 00 00	 mov	 eax, OFFSET __ehfuncinfo$??0CSetting_Special_Type_E@@QAE@PAUIChartOCX135914@@PAVCWnd@@1@Z
  00095	e9 00 00 00 00	 jmp	 ___CxxFrameHandler3
text$x	ENDS
??0CSetting_Special_Type_E@@QAE@PAUIChartOCX135914@@PAVCWnd@@1@Z ENDP ; CSetting_Special_Type_E::CSetting_Special_Type_E
; Function compile flags: /Ogtp
; File D:\git\src\IBK\IBK_DRFN\ProjSrc\SrcChartEx\ChartAddIn\ChartEnvSetupDlgAddIn\Include_AddIn_135914\I135914\_IString.h
;	COMDAT ??1ILPCSTR135914@@QAE@XZ
_TEXT	SEGMENT
__$EHRec$ = -12						; size = 12
??1ILPCSTR135914@@QAE@XZ PROC				; ILPCSTR135914::~ILPCSTR135914, COMDAT
; _this$ = ecx

; 44   : 	{

  00000	55		 push	 ebp
  00001	8b ec		 mov	 ebp, esp
  00003	6a ff		 push	 -1
  00005	68 00 00 00 00	 push	 __ehhandler$??1ILPCSTR135914@@QAE@XZ
  0000a	64 a1 00 00 00
	00		 mov	 eax, DWORD PTR fs:0
  00010	50		 push	 eax
  00011	56		 push	 esi
  00012	a1 00 00 00 00	 mov	 eax, DWORD PTR ___security_cookie
  00017	33 c5		 xor	 eax, ebp
  00019	50		 push	 eax
  0001a	8d 45 f4	 lea	 eax, DWORD PTR __$EHRec$[ebp]
  0001d	64 a3 00 00 00
	00		 mov	 DWORD PTR fs:0, eax
  00023	8b f1		 mov	 esi, ecx

; 45   : 		if( m_pIStrData)

  00025	8b 4e 04	 mov	 ecx, DWORD PTR [esi+4]
  00028	85 c9		 test	 ecx, ecx
  0002a	74 13		 je	 SHORT $LN2@ILPCSTR135

; 46   : 		{
; 47   : 			m_pIStrData->Release();

  0002c	8b 01		 mov	 eax, DWORD PTR [ecx]
  0002e	51		 push	 ecx
  0002f	ff 50 08	 call	 DWORD PTR [eax+8]

; 48   : 			m_pIStrData = NULL;

  00032	c7 46 04 00 00
	00 00		 mov	 DWORD PTR [esi+4], 0

; 49   : 			m_szData = NULL;

  00039	c7 06 00 00 00
	00		 mov	 DWORD PTR [esi], 0
$LN2@ILPCSTR135:

; 50   : 		}
; 51   : 	}

  0003f	8b 4d f4	 mov	 ecx, DWORD PTR __$EHRec$[ebp]
  00042	64 89 0d 00 00
	00 00		 mov	 DWORD PTR fs:0, ecx
  00049	59		 pop	 ecx
  0004a	5e		 pop	 esi
  0004b	8b e5		 mov	 esp, ebp
  0004d	5d		 pop	 ebp
  0004e	c3		 ret	 0
  0004f	cc		 int	 3
  00050	cc		 int	 3
  00051	cc		 int	 3
  00052	cc		 int	 3
  00053	cc		 int	 3
_TEXT	ENDS
;	COMDAT text$x
text$x	SEGMENT
__ehhandler$??1ILPCSTR135914@@QAE@XZ:
  00000	90		 npad	 1
  00001	90		 npad	 1
  00002	8b 54 24 08	 mov	 edx, DWORD PTR [esp+8]
  00006	8d 42 0c	 lea	 eax, DWORD PTR [edx+12]
  00009	8b 4a f8	 mov	 ecx, DWORD PTR [edx-8]
  0000c	33 c8		 xor	 ecx, eax
  0000e	e8 00 00 00 00	 call	 @__security_check_cookie@4
  00013	b8 00 00 00 00	 mov	 eax, OFFSET __ehfuncinfo$??1ILPCSTR135914@@QAE@XZ
  00018	e9 00 00 00 00	 jmp	 ___CxxFrameHandler3
text$x	ENDS
??1ILPCSTR135914@@QAE@XZ ENDP				; ILPCSTR135914::~ILPCSTR135914
; Function compile flags: /Ogtp
; File C:\Program Files (x86)\Microsoft Visual Studio\2019\Community\VC\Tools\MSVC\14.29.30133\atlmfc\include\afxdlgs.h
;	COMDAT ??1CColorDialog@@UAE@XZ
_TEXT	SEGMENT
??1CColorDialog@@UAE@XZ PROC				; CColorDialog::~CColorDialog, COMDAT
; _this$ = ecx

; 110  :     virtual ~CCommonDialog() {};

  00000	c7 01 00 00 00
	00		 mov	 DWORD PTR [ecx], OFFSET ??_7CCommonDialog@@6B@
  00006	e9 00 00 00 00	 jmp	 ??1CDialog@@UAE@XZ	; CDialog::~CDialog
??1CColorDialog@@UAE@XZ ENDP				; CColorDialog::~CColorDialog
_TEXT	ENDS
; Function compile flags: /Ogtp
; File C:\Program Files (x86)\Microsoft Visual Studio\2019\Community\VC\Tools\MSVC\14.29.30133\atlmfc\include\afxdlgs.h
; File C:\Program Files (x86)\Microsoft Visual Studio\2019\Community\VC\Tools\MSVC\14.29.30133\atlmfc\include\afx.inl
;	COMDAT ??_GCCommonDialog@@UAEPAXI@Z
_TEXT	SEGMENT
___flags$ = 8						; size = 4
??_GCCommonDialog@@UAEPAXI@Z PROC			; CCommonDialog::`scalar deleting destructor', COMDAT
; _this$ = ecx
  00000	55		 push	 ebp
  00001	8b ec		 mov	 ebp, esp
; File C:\Program Files (x86)\Microsoft Visual Studio\2019\Community\VC\Tools\MSVC\14.29.30133\atlmfc\include\afxdlgs.h

; 110  :     virtual ~CCommonDialog() {};

  00003	56		 push	 esi
  00004	8b f1		 mov	 esi, ecx
  00006	c7 06 00 00 00
	00		 mov	 DWORD PTR [esi], OFFSET ??_7CCommonDialog@@6B@
  0000c	e8 00 00 00 00	 call	 ??1CDialog@@UAE@XZ	; CDialog::~CDialog
  00011	8b 45 08	 mov	 eax, DWORD PTR ___flags$[ebp]
  00014	a8 01		 test	 al, 1
  00016	74 22		 je	 SHORT $LN12@scalar
  00018	a8 04		 test	 al, 4
  0001a	75 10		 jne	 SHORT $LN3@scalar
; File C:\Program Files (x86)\Microsoft Visual Studio\2019\Community\VC\Tools\MSVC\14.29.30133\atlmfc\include\afx.inl

; 112  : 	{ ::operator delete(p); }

  0001c	56		 push	 esi
  0001d	e8 00 00 00 00	 call	 ??3@YAXPAX@Z		; operator delete
  00022	83 c4 04	 add	 esp, 4
  00025	8b c6		 mov	 eax, esi
  00027	5e		 pop	 esi
  00028	5d		 pop	 ebp
  00029	c2 04 00	 ret	 4
$LN3@scalar:
  0002c	68 a8 00 00 00	 push	 168			; 000000a8H
  00031	56		 push	 esi
  00032	e8 00 00 00 00	 call	 ?__global_delete@@YAXPAXI@Z ; __global_delete
  00037	83 c4 08	 add	 esp, 8
$LN12@scalar:
  0003a	8b c6		 mov	 eax, esi
  0003c	5e		 pop	 esi
  0003d	5d		 pop	 ebp
  0003e	c2 04 00	 ret	 4
??_GCCommonDialog@@UAEPAXI@Z ENDP			; CCommonDialog::`scalar deleting destructor'
_TEXT	ENDS
; Function compile flags: /Ogtp
; File C:\Program Files (x86)\Microsoft Visual Studio\2019\Community\VC\Tools\MSVC\14.29.30133\atlmfc\include\afxdlgs.h
;	COMDAT ??1CCommonDialog@@UAE@XZ
_TEXT	SEGMENT
??1CCommonDialog@@UAE@XZ PROC				; CCommonDialog::~CCommonDialog, COMDAT
; _this$ = ecx

; 110  :     virtual ~CCommonDialog() {};

  00000	c7 01 00 00 00
	00		 mov	 DWORD PTR [ecx], OFFSET ??_7CCommonDialog@@6B@
  00006	e9 00 00 00 00	 jmp	 ??1CDialog@@UAE@XZ	; CDialog::~CDialog
??1CCommonDialog@@UAE@XZ ENDP				; CCommonDialog::~CCommonDialog
_TEXT	ENDS
; Function compile flags: /Ogtp
; File C:\Program Files (x86)\Microsoft Visual Studio\2019\Community\VC\Tools\MSVC\14.29.30133\atlmfc\include\afxwin2.inl
;	COMDAT ?Create@CDialog@@UAEHIPAVCWnd@@@Z
_TEXT	SEGMENT
_nIDTemplate$ = 8					; size = 4
_pParentWnd$ = 12					; size = 4
?Create@CDialog@@UAEHIPAVCWnd@@@Z PROC			; CDialog::Create, COMDAT
; _this$ = ecx

; 585  : 	{ return CDialog::Create(ATL_MAKEINTRESOURCE(nIDTemplate), pParentWnd); }

  00000	55		 push	 ebp
  00001	8b ec		 mov	 ebp, esp
  00003	0f b7 45 08	 movzx	 eax, WORD PTR _nIDTemplate$[ebp]
  00007	89 45 08	 mov	 DWORD PTR _nIDTemplate$[ebp], eax
  0000a	5d		 pop	 ebp
  0000b	e9 00 00 00 00	 jmp	 ?Create@CDialog@@UAEHPBDPAVCWnd@@@Z ; CDialog::Create
?Create@CDialog@@UAEHIPAVCWnd@@@Z ENDP			; CDialog::Create
_TEXT	ENDS
; Function compile flags: /Ogtp
; File C:\Program Files (x86)\Microsoft Visual Studio\2019\Community\VC\Tools\MSVC\14.29.30133\atlmfc\include\afxwin2.inl
;	COMDAT ?EndModalState@CWnd@@UAEXXZ
_TEXT	SEGMENT
?EndModalState@CWnd@@UAEXXZ PROC			; CWnd::EndModalState, COMDAT
; _this$ = ecx

; 567  : 	{ ::EnableWindow(m_hWnd, TRUE); }

  00000	6a 01		 push	 1
  00002	ff 71 20	 push	 DWORD PTR [ecx+32]
  00005	ff 15 00 00 00
	00		 call	 DWORD PTR __imp__EnableWindow@8
  0000b	c3		 ret	 0
?EndModalState@CWnd@@UAEXXZ ENDP			; CWnd::EndModalState
_TEXT	ENDS
; Function compile flags: /Ogtp
; File C:\Program Files (x86)\Microsoft Visual Studio\2019\Community\VC\Tools\MSVC\14.29.30133\atlmfc\include\afxwin2.inl
;	COMDAT ?BeginModalState@CWnd@@UAEXXZ
_TEXT	SEGMENT
?BeginModalState@CWnd@@UAEXXZ PROC			; CWnd::BeginModalState, COMDAT
; _this$ = ecx

; 565  : 	{ ::EnableWindow(m_hWnd, FALSE); }

  00000	6a 00		 push	 0
  00002	ff 71 20	 push	 DWORD PTR [ecx+32]
  00005	ff 15 00 00 00
	00		 call	 DWORD PTR __imp__EnableWindow@8
  0000b	c3		 ret	 0
?BeginModalState@CWnd@@UAEXXZ ENDP			; CWnd::BeginModalState
_TEXT	ENDS
; Function compile flags: /Ogtp
; File C:\Program Files (x86)\Microsoft Visual Studio\2019\Community\VC\Tools\MSVC\14.29.30133\atlmfc\include\afxwin2.inl
;	COMDAT ?DoDataExchange@CWnd@@MAEXPAVCDataExchange@@@Z
_TEXT	SEGMENT
___formal$ = 8						; size = 4
?DoDataExchange@CWnd@@MAEXPAVCDataExchange@@@Z PROC	; CWnd::DoDataExchange, COMDAT
; _this$ = ecx

; 561  : 	{ } // default does nothing

  00000	c2 04 00	 ret	 4
?DoDataExchange@CWnd@@MAEXPAVCDataExchange@@@Z ENDP	; CWnd::DoDataExchange
_TEXT	ENDS
; Function compile flags: /Ogtp
; File C:\Program Files (x86)\Microsoft Visual Studio\2019\Community\VC\Tools\MSVC\14.29.30133\atlmfc\include\afx.inl
;	COMDAT ?Dump@CObject@@UBEXAAVCDumpContext@@@Z
_TEXT	SEGMENT
___formal$ = 8						; size = 4
?Dump@CObject@@UBEXAAVCDumpContext@@@Z PROC		; CObject::Dump, COMDAT
; _this$ = ecx

; 122  : 	{ /* no dumping in release builds */ }

  00000	c2 04 00	 ret	 4
?Dump@CObject@@UBEXAAVCDumpContext@@@Z ENDP		; CObject::Dump
_TEXT	ENDS
; Function compile flags: /Ogtp
; File C:\Program Files (x86)\Microsoft Visual Studio\2019\Community\VC\Tools\MSVC\14.29.30133\atlmfc\include\afx.inl
;	COMDAT ?AssertValid@CObject@@UBEXXZ
_TEXT	SEGMENT
?AssertValid@CObject@@UBEXXZ PROC			; CObject::AssertValid, COMDAT
; _this$ = ecx

; 120  : 	{ /* no asserts in release builds */ }

  00000	c2 00 00	 ret	 0
?AssertValid@CObject@@UBEXXZ ENDP			; CObject::AssertValid
_TEXT	ENDS
; Function compile flags: /Ogtp
; File C:\Program Files (x86)\Microsoft Visual Studio\2019\Community\VC\Tools\MSVC\14.29.30133\atlmfc\include\afx.inl
;	COMDAT ?Serialize@CObject@@UAEXAAVCArchive@@@Z
_TEXT	SEGMENT
___formal$ = 8						; size = 4
?Serialize@CObject@@UAEXAAVCArchive@@@Z PROC		; CObject::Serialize, COMDAT
; _this$ = ecx

; 106  : 	{ /* CObject does not serialize anything by default */ }

  00000	c2 04 00	 ret	 4
?Serialize@CObject@@UAEXAAVCArchive@@@Z ENDP		; CObject::Serialize
_TEXT	ENDS
; Function compile flags: /Ogtp
; File D:\git\src\IBK\IBK_DRFN\ProjSrc\SrcChartEx\ChartAddIn\ChartEnvSetupDlgAddIn\ChartEnvSetupDlgAddIn\Setting_Special_Type_E.cpp
;	COMDAT ?__empty_global_delete@@YAXPAXI@Z
_TEXT	SEGMENT
___formal$ = 8						; size = 4
___formal$ = 12						; size = 4
?__empty_global_delete@@YAXPAXI@Z PROC			; __empty_global_delete, COMDAT

  00000	c2 00 00	 ret	 0
?__empty_global_delete@@YAXPAXI@Z ENDP			; __empty_global_delete
_TEXT	ENDS
; Function compile flags: /Ogtp
; File D:\git\src\IBK\IBK_DRFN\ProjSrc\SrcChartEx\ChartAddIn\ChartEnvSetupDlgAddIn\ChartEnvSetupDlgAddIn\Setting_Special_Type_E.cpp
;	COMDAT ?__empty_global_delete@@YAXPAX@Z
_TEXT	SEGMENT
___formal$ = 8						; size = 4
?__empty_global_delete@@YAXPAX@Z PROC			; __empty_global_delete, COMDAT

  00000	c2 00 00	 ret	 0
?__empty_global_delete@@YAXPAX@Z ENDP			; __empty_global_delete
_TEXT	ENDS
END
