; Listing generated by Microsoft (R) Optimizing Compiler Version 19.29.30145.0 

	TITLE	D:\git\src\IBK\IBK_DRFN\#DRfn-CS\_Obj\ChartEnvSetupDlgAddIn\Setting_Common_Type_A.obj
	.686P
	.XMM
	include listing.inc
	.model	flat

INCLUDELIB MSVCRT
INCLUDELIB OLDNAMES

PUBLIC	??_C@_01GBGANLPD@0@				; `string'
PUBLIC	??_C@_01HIHLOKLC@1@				; `string'
PUBLIC	??_C@_01FDFGLJHB@2@				; `string'
PUBLIC	??_C@_01EKENIIDA@3@				; `string'
PUBLIC	??_C@_01FAMBOPH@4@				; `string'
PUBLIC	??_C@_01BMBHCPLG@5@				; `string'
PUBLIC	??_C@_01DHDKHMHF@6@				; `string'
PUBLIC	??_C@_01COCBENDE@7@				; `string'
PUBLIC	??_C@_01KJLJFBPL@8@				; `string'
PUBLIC	??_C@_01LAKCGALK@9@				; `string'
PUBLIC	??_C@_02PKFBJPLJ@10@				; `string'
PUBLIC	??_C@_02ODEKKOPI@11@				; `string'
PUBLIC	??_C@_02MIGHPNDL@12@				; `string'
PUBLIC	??_C@_02NBHMMMHK@13@				; `string'
PUBLIC	??_C@_02JODNFKLN@14@				; `string'
PUBLIC	??_C@_02IHCGGLPM@15@				; `string'
PUBLIC	??_C@_02KMALDIDP@16@				; `string'
PUBLIC	??_C@_02LFBAAJHO@17@				; `string'
PUBLIC	??_C@_02DCIIBFLB@18@				; `string'
PUBLIC	??_C@_02CLJDCEPA@19@				; `string'
PUBLIC	??_C@_02PIBHCBOA@20@				; `string'
PUBLIC	??_C@_02OBAMBAKB@21@				; `string'
PUBLIC	??_C@_02MKCBEDGC@22@				; `string'
PUBLIC	??_C@_02NDDKHCCD@23@				; `string'
PUBLIC	??_C@_02JMHLOEOE@24@				; `string'
;	COMDAT ??_C@_02JMHLOEOE@24@
CONST	SEGMENT
??_C@_02JMHLOEOE@24@ DB '24', 00H			; `string'
CONST	ENDS
;	COMDAT ??_C@_02NDDKHCCD@23@
CONST	SEGMENT
??_C@_02NDDKHCCD@23@ DB '23', 00H			; `string'
CONST	ENDS
;	COMDAT ??_C@_02MKCBEDGC@22@
CONST	SEGMENT
??_C@_02MKCBEDGC@22@ DB '22', 00H			; `string'
CONST	ENDS
;	COMDAT ??_C@_02OBAMBAKB@21@
CONST	SEGMENT
??_C@_02OBAMBAKB@21@ DB '21', 00H			; `string'
CONST	ENDS
;	COMDAT ??_C@_02PIBHCBOA@20@
CONST	SEGMENT
??_C@_02PIBHCBOA@20@ DB '20', 00H			; `string'
CONST	ENDS
;	COMDAT ??_C@_02CLJDCEPA@19@
CONST	SEGMENT
??_C@_02CLJDCEPA@19@ DB '19', 00H			; `string'
CONST	ENDS
;	COMDAT ??_C@_02DCIIBFLB@18@
CONST	SEGMENT
??_C@_02DCIIBFLB@18@ DB '18', 00H			; `string'
CONST	ENDS
;	COMDAT ??_C@_02LFBAAJHO@17@
CONST	SEGMENT
??_C@_02LFBAAJHO@17@ DB '17', 00H			; `string'
CONST	ENDS
;	COMDAT ??_C@_02KMALDIDP@16@
CONST	SEGMENT
??_C@_02KMALDIDP@16@ DB '16', 00H			; `string'
CONST	ENDS
;	COMDAT ??_C@_02IHCGGLPM@15@
CONST	SEGMENT
??_C@_02IHCGGLPM@15@ DB '15', 00H			; `string'
CONST	ENDS
;	COMDAT ??_C@_02JODNFKLN@14@
CONST	SEGMENT
??_C@_02JODNFKLN@14@ DB '14', 00H			; `string'
CONST	ENDS
;	COMDAT ??_C@_02NBHMMMHK@13@
CONST	SEGMENT
??_C@_02NBHMMMHK@13@ DB '13', 00H			; `string'
CONST	ENDS
;	COMDAT ??_C@_02MIGHPNDL@12@
CONST	SEGMENT
??_C@_02MIGHPNDL@12@ DB '12', 00H			; `string'
CONST	ENDS
;	COMDAT ??_C@_02ODEKKOPI@11@
CONST	SEGMENT
??_C@_02ODEKKOPI@11@ DB '11', 00H			; `string'
CONST	ENDS
;	COMDAT ??_C@_02PKFBJPLJ@10@
CONST	SEGMENT
??_C@_02PKFBJPLJ@10@ DB '10', 00H			; `string'
CONST	ENDS
;	COMDAT ??_C@_01LAKCGALK@9@
CONST	SEGMENT
??_C@_01LAKCGALK@9@ DB '9', 00H				; `string'
CONST	ENDS
;	COMDAT ??_C@_01KJLJFBPL@8@
CONST	SEGMENT
??_C@_01KJLJFBPL@8@ DB '8', 00H				; `string'
CONST	ENDS
;	COMDAT ??_C@_01COCBENDE@7@
CONST	SEGMENT
??_C@_01COCBENDE@7@ DB '7', 00H				; `string'
CONST	ENDS
;	COMDAT ??_C@_01DHDKHMHF@6@
CONST	SEGMENT
??_C@_01DHDKHMHF@6@ DB '6', 00H				; `string'
CONST	ENDS
;	COMDAT ??_C@_01BMBHCPLG@5@
CONST	SEGMENT
??_C@_01BMBHCPLG@5@ DB '5', 00H				; `string'
CONST	ENDS
;	COMDAT ??_C@_01FAMBOPH@4@
CONST	SEGMENT
??_C@_01FAMBOPH@4@ DB '4', 00H				; `string'
CONST	ENDS
;	COMDAT ??_C@_01EKENIIDA@3@
CONST	SEGMENT
??_C@_01EKENIIDA@3@ DB '3', 00H				; `string'
CONST	ENDS
;	COMDAT ??_C@_01FDFGLJHB@2@
CONST	SEGMENT
??_C@_01FDFGLJHB@2@ DB '2', 00H				; `string'
CONST	ENDS
;	COMDAT ??_C@_01HIHLOKLC@1@
CONST	SEGMENT
??_C@_01HIHLOKLC@1@ DB '1', 00H				; `string'
CONST	ENDS
;	COMDAT ??_C@_01GBGANLPD@0@
CONST	SEGMENT
??_C@_01GBGANLPD@0@ DB '0', 00H				; `string'
CONST	ENDS
PUBLIC	?__empty_global_delete@@YAXPAX@Z		; __empty_global_delete
PUBLIC	?__empty_global_delete@@YAXPAXI@Z		; __empty_global_delete
PUBLIC	?Serialize@CObject@@UAEXAAVCArchive@@@Z		; CObject::Serialize
PUBLIC	?AssertValid@CObject@@UBEXXZ			; CObject::AssertValid
PUBLIC	?Dump@CObject@@UBEXAAVCDumpContext@@@Z		; CObject::Dump
PUBLIC	?DoDataExchange@CWnd@@MAEXPAVCDataExchange@@@Z	; CWnd::DoDataExchange
PUBLIC	?BeginModalState@CWnd@@UAEXXZ			; CWnd::BeginModalState
PUBLIC	?EndModalState@CWnd@@UAEXXZ			; CWnd::EndModalState
PUBLIC	?Create@CDialog@@UAEHIPAVCWnd@@@Z		; CDialog::Create
PUBLIC	??_GCStatic@@UAEPAXI@Z				; CStatic::`scalar deleting destructor'
PUBLIC	??_GCButton@@UAEPAXI@Z				; CButton::`scalar deleting destructor'
PUBLIC	??_GCComboBox@@UAEPAXI@Z			; CComboBox::`scalar deleting destructor'
PUBLIC	??_GCEdit@@UAEPAXI@Z				; CEdit::`scalar deleting destructor'
PUBLIC	??1CCommonDialog@@UAE@XZ			; CCommonDialog::~CCommonDialog
PUBLIC	??_GCCommonDialog@@UAEPAXI@Z			; CCommonDialog::`scalar deleting destructor'
PUBLIC	??1CColorDialog@@UAE@XZ				; CColorDialog::~CColorDialog
PUBLIC	??_GCListCtrl@@UAEPAXI@Z			; CListCtrl::`scalar deleting destructor'
PUBLIC	??1ILPCSTR135914@@QAE@XZ			; ILPCSTR135914::~ILPCSTR135914
PUBLIC	??0CSetting_Common_Type_A@@QAE@PAUIChartOCX135914@@PAVCWnd@@1@Z ; CSetting_Common_Type_A::CSetting_Common_Type_A
PUBLIC	??1CSetting_Common_Type_A@@UAE@XZ		; CSetting_Common_Type_A::~CSetting_Common_Type_A
PUBLIC	?Initial@CSetting_Common_Type_A@@UAEXPAUIGraphInfo135914@@@Z ; CSetting_Common_Type_A::Initial
PUBLIC	?OnApply@CSetting_Common_Type_A@@UAEHPAUIGraphInfo135914@@@Z ; CSetting_Common_Type_A::OnApply
PUBLIC	?PreTranslateMessage@CSetting_Common_Type_A@@UAEHPAUtagMSG@@@Z ; CSetting_Common_Type_A::PreTranslateMessage
PUBLIC	?DoDataExchange@CSetting_Common_Type_A@@MAEXPAVCDataExchange@@@Z ; CSetting_Common_Type_A::DoDataExchange
PUBLIC	?UseValueGroup@CSetting_Common_Type_A@@AAEXH@Z	; CSetting_Common_Type_A::UseValueGroup
PUBLIC	?UseValue1@CSetting_Common_Type_A@@AAEXH@Z	; CSetting_Common_Type_A::UseValue1
PUBLIC	?UseValue2@CSetting_Common_Type_A@@AAEXH@Z	; CSetting_Common_Type_A::UseValue2
PUBLIC	?UseValue3@CSetting_Common_Type_A@@AAEXH@Z	; CSetting_Common_Type_A::UseValue3
PUBLIC	?UseValue4@CSetting_Common_Type_A@@AAEXH@Z	; CSetting_Common_Type_A::UseValue4
PUBLIC	?UseValue5@CSetting_Common_Type_A@@AAEXH@Z	; CSetting_Common_Type_A::UseValue5
PUBLIC	?UsePacketData@CSetting_Common_Type_A@@AAEX_N@Z	; CSetting_Common_Type_A::UsePacketData
PUBLIC	?UseCompositionGroup@CSetting_Common_Type_A@@AAEXH@Z ; CSetting_Common_Type_A::UseCompositionGroup
PUBLIC	?UseSubColorBtn@CSetting_Common_Type_A@@AAEXHV?$CStringT@DV?$StrTraitMFC_DLL@DV?$ChTraitsCRT@D@ATL@@@@@ATL@@H@Z ; CSetting_Common_Type_A::UseSubColorBtn
PUBLIC	?UseFillColorBtn@CSetting_Common_Type_A@@AAEXH@Z ; CSetting_Common_Type_A::UseFillColorBtn
PUBLIC	?UseBaseLineGroup@CSetting_Common_Type_A@@AAEXH@Z ; CSetting_Common_Type_A::UseBaseLineGroup
PUBLIC	?UseCompColorCtrl@CSetting_Common_Type_A@@AAEXH@Z ; CSetting_Common_Type_A::UseCompColorCtrl
PUBLIC	?CheckSpecialCond@CSetting_Common_Type_A@@AAEHPBD@Z ; CSetting_Common_Type_A::CheckSpecialCond
PUBLIC	?Init_Variable_Group_Title@CSetting_Common_Type_A@@AAEXH@Z ; CSetting_Common_Type_A::Init_Variable_Group_Title
PUBLIC	?Init_Composition_Group@CSetting_Common_Type_A@@AAEXXZ ; CSetting_Common_Type_A::Init_Composition_Group
PUBLIC	?Init_Composition_Group_SubGraphItem@CSetting_Common_Type_A@@AAEXXZ ; CSetting_Common_Type_A::Init_Composition_Group_SubGraphItem
PUBLIC	?Init_Composition_Group_SubGraphTitle@CSetting_Common_Type_A@@AAEXH@Z ; CSetting_Common_Type_A::Init_Composition_Group_SubGraphTitle
PUBLIC	?Init_Composition_Group_SubGraphLine@CSetting_Common_Type_A@@AAEXH@Z ; CSetting_Common_Type_A::Init_Composition_Group_SubGraphLine
PUBLIC	?Init_Composition_Group_SubGraphColor@CSetting_Common_Type_A@@AAEXH@Z ; CSetting_Common_Type_A::Init_Composition_Group_SubGraphColor
PUBLIC	?Init_Composition_Group_SubGraphColor_LineType@CSetting_Common_Type_A@@AAE_NH@Z ; CSetting_Common_Type_A::Init_Composition_Group_SubGraphColor_LineType
PUBLIC	?Init_Composition_Group_SubGraphColor_BoxType@CSetting_Common_Type_A@@AAE_NH@Z ; CSetting_Common_Type_A::Init_Composition_Group_SubGraphColor_BoxType
PUBLIC	?SetBottonColor@CSetting_Common_Type_A@@AAEXAAVCColorButton@@ABK@Z ; CSetting_Common_Type_A::SetBottonColor
PUBLIC	?Init_BaseLine_Group_Title@CSetting_Common_Type_A@@AAEXXZ ; CSetting_Common_Type_A::Init_BaseLine_Group_Title
PUBLIC	?Initial_Signal@CSetting_Common_Type_A@@AAEXPAUIGraphInfo135914@@@Z ; CSetting_Common_Type_A::Initial_Signal
PUBLIC	?Init_BarGraphCompareColor@CSetting_Common_Type_A@@AAEXXZ ; CSetting_Common_Type_A::Init_BarGraphCompareColor
PUBLIC	?Init_Composition_Group_BaseLine@CSetting_Common_Type_A@@AAEXH@Z ; CSetting_Common_Type_A::Init_Composition_Group_BaseLine
PUBLIC	?Initial_SubGraphData@CSetting_Common_Type_A@@AAEXH@Z ; CSetting_Common_Type_A::Initial_SubGraphData
PUBLIC	?OnApplySubGraphData@CSetting_Common_Type_A@@AAEXXZ ; CSetting_Common_Type_A::OnApplySubGraphData
PUBLIC	?OnApplyBaseLine@CSetting_Common_Type_A@@AAEXXZ	; CSetting_Common_Type_A::OnApplyBaseLine
PUBLIC	?OnApplySignal@CSetting_Common_Type_A@@AAEXPAUIGraphInfo135914@@@Z ; CSetting_Common_Type_A::OnApplySignal
PUBLIC	?OnApplyPaintStyle@CSetting_Common_Type_A@@AAEXXZ ; CSetting_Common_Type_A::OnApplyPaintStyle
PUBLIC	?DeleteString_ListBox@CSetting_Common_Type_A@@AAEXXZ ; CSetting_Common_Type_A::DeleteString_ListBox
PUBLIC	?GetFirstValue@CSetting_Common_Type_A@@AAENABV?$CStringT@DV?$StrTraitMFC_DLL@DV?$ChTraitsCRT@D@ATL@@@@@ATL@@@Z ; CSetting_Common_Type_A::GetFirstValue
PUBLIC	?IsShowBaseLineList@CSetting_Common_Type_A@@ABE_NXZ ; CSetting_Common_Type_A::IsShowBaseLineList
PUBLIC	?OnInitDialog@CSetting_Common_Type_A@@MAEHXZ	; CSetting_Common_Type_A::OnInitDialog
PUBLIC	?OnBtnCompositionColor@CSetting_Common_Type_A@@IAEXXZ ; CSetting_Common_Type_A::OnBtnCompositionColor
PUBLIC	?OnItemchangedListComposition@CSetting_Common_Type_A@@IAEXPAUtagNMHDR@@PAJ@Z ; CSetting_Common_Type_A::OnItemchangedListComposition
PUBLIC	?OnClickListComposition@CSetting_Common_Type_A@@IAEXPAUtagNMHDR@@PAJ@Z ; CSetting_Common_Type_A::OnClickListComposition
PUBLIC	?OnSelchangeCmbLinetype@CSetting_Common_Type_A@@IAEXXZ ; CSetting_Common_Type_A::OnSelchangeCmbLinetype
PUBLIC	?OnSelchangeCmbThickness@CSetting_Common_Type_A@@IAEXXZ ; CSetting_Common_Type_A::OnSelchangeCmbThickness
PUBLIC	?OnInsert@CSetting_Common_Type_A@@IAEXXZ	; CSetting_Common_Type_A::OnInsert
PUBLIC	?OnDelete@CSetting_Common_Type_A@@IAEXXZ	; CSetting_Common_Type_A::OnDelete
PUBLIC	?OnAlldelete@CSetting_Common_Type_A@@IAEXXZ	; CSetting_Common_Type_A::OnAlldelete
PUBLIC	?OnColorButton@CSetting_Common_Type_A@@IAEXXZ	; CSetting_Common_Type_A::OnColorButton
PUBLIC	?OnBtnUpColor@CSetting_Common_Type_A@@IAEXXZ	; CSetting_Common_Type_A::OnBtnUpColor
PUBLIC	?OnBtnDownColor@CSetting_Common_Type_A@@IAEXXZ	; CSetting_Common_Type_A::OnBtnDownColor
PUBLIC	?OnBtnSteadyColor@CSetting_Common_Type_A@@IAEXXZ ; CSetting_Common_Type_A::OnBtnSteadyColor
PUBLIC	?OnBtnUp1@CSetting_Common_Type_A@@IAEXXZ	; CSetting_Common_Type_A::OnBtnUp1
PUBLIC	?OnBtnDown1@CSetting_Common_Type_A@@IAEXXZ	; CSetting_Common_Type_A::OnBtnDown1
PUBLIC	?OnChkFillColor@CSetting_Common_Type_A@@IAEXXZ	; CSetting_Common_Type_A::OnChkFillColor
PUBLIC	?OnSelchangeCmbThickness2@CSetting_Common_Type_A@@IAEXXZ ; CSetting_Common_Type_A::OnSelchangeCmbThickness2
PUBLIC	?OnSelchangeCmbLinetype2@CSetting_Common_Type_A@@IAEXXZ ; CSetting_Common_Type_A::OnSelchangeCmbLinetype2
PUBLIC	?OnSelchangeHorizontalList@CSetting_Common_Type_A@@IAEXXZ ; CSetting_Common_Type_A::OnSelchangeHorizontalList
PUBLIC	?GetThisMessageMap@CSetting_Common_Type_A@@KGPBUAFX_MSGMAP@@XZ ; CSetting_Common_Type_A::GetThisMessageMap
PUBLIC	?GetMessageMap@CSetting_Common_Type_A@@MBEPBUAFX_MSGMAP@@XZ ; CSetting_Common_Type_A::GetMessageMap
PUBLIC	??_GCSetting_Common_Type_A@@UAEPAXI@Z		; CSetting_Common_Type_A::`scalar deleting destructor'
PUBLIC	??_C@_00CNPNBAHC@@				; `string'
PUBLIC	??_7CStatic@@6B@				; CStatic::`vftable'
PUBLIC	??_7CButton@@6B@				; CButton::`vftable'
PUBLIC	??_7CComboBox@@6B@				; CComboBox::`vftable'
PUBLIC	??_7CEdit@@6B@					; CEdit::`vftable'
PUBLIC	??_7CCommonDialog@@6B@				; CCommonDialog::`vftable'
PUBLIC	??_7CListCtrl@@6B@				; CListCtrl::`vftable'
PUBLIC	??_R0?AVCObject@@@8				; CObject `RTTI Type Descriptor'
PUBLIC	??_R3CObject@@8					; CObject::`RTTI Class Hierarchy Descriptor'
PUBLIC	??_R2CObject@@8					; CObject::`RTTI Base Class Array'
PUBLIC	??_R1A@?0A@EA@CObject@@8			; CObject::`RTTI Base Class Descriptor at (0,-1,0,64)'
PUBLIC	??_R4CStatic@@6B@				; CStatic::`RTTI Complete Object Locator'
PUBLIC	??_R0?AVCStatic@@@8				; CStatic `RTTI Type Descriptor'
PUBLIC	??_R3CStatic@@8					; CStatic::`RTTI Class Hierarchy Descriptor'
PUBLIC	??_R2CStatic@@8					; CStatic::`RTTI Base Class Array'
PUBLIC	??_R1A@?0A@EA@CStatic@@8			; CStatic::`RTTI Base Class Descriptor at (0,-1,0,64)'
PUBLIC	??_R1A@?0A@EA@CWnd@@8				; CWnd::`RTTI Base Class Descriptor at (0,-1,0,64)'
PUBLIC	??_R0?AVCWnd@@@8				; CWnd `RTTI Type Descriptor'
PUBLIC	??_R3CWnd@@8					; CWnd::`RTTI Class Hierarchy Descriptor'
PUBLIC	??_R2CWnd@@8					; CWnd::`RTTI Base Class Array'
PUBLIC	??_R1A@?0A@EA@CCmdTarget@@8			; CCmdTarget::`RTTI Base Class Descriptor at (0,-1,0,64)'
PUBLIC	??_R0?AVCCmdTarget@@@8				; CCmdTarget `RTTI Type Descriptor'
PUBLIC	??_R3CCmdTarget@@8				; CCmdTarget::`RTTI Class Hierarchy Descriptor'
PUBLIC	??_R2CCmdTarget@@8				; CCmdTarget::`RTTI Base Class Array'
PUBLIC	??_R4CButton@@6B@				; CButton::`RTTI Complete Object Locator'
PUBLIC	??_R0?AVCButton@@@8				; CButton `RTTI Type Descriptor'
PUBLIC	??_R3CButton@@8					; CButton::`RTTI Class Hierarchy Descriptor'
PUBLIC	??_R2CButton@@8					; CButton::`RTTI Base Class Array'
PUBLIC	??_R1A@?0A@EA@CButton@@8			; CButton::`RTTI Base Class Descriptor at (0,-1,0,64)'
PUBLIC	??_R4CComboBox@@6B@				; CComboBox::`RTTI Complete Object Locator'
PUBLIC	??_R0?AVCComboBox@@@8				; CComboBox `RTTI Type Descriptor'
PUBLIC	??_R3CComboBox@@8				; CComboBox::`RTTI Class Hierarchy Descriptor'
PUBLIC	??_R2CComboBox@@8				; CComboBox::`RTTI Base Class Array'
PUBLIC	??_R1A@?0A@EA@CComboBox@@8			; CComboBox::`RTTI Base Class Descriptor at (0,-1,0,64)'
PUBLIC	??_R4CEdit@@6B@					; CEdit::`RTTI Complete Object Locator'
PUBLIC	??_R0?AVCEdit@@@8				; CEdit `RTTI Type Descriptor'
PUBLIC	??_R3CEdit@@8					; CEdit::`RTTI Class Hierarchy Descriptor'
PUBLIC	??_R2CEdit@@8					; CEdit::`RTTI Base Class Array'
PUBLIC	??_R1A@?0A@EA@CEdit@@8				; CEdit::`RTTI Base Class Descriptor at (0,-1,0,64)'
PUBLIC	??_R4CCommonDialog@@6B@				; CCommonDialog::`RTTI Complete Object Locator'
PUBLIC	??_R0?AVCCommonDialog@@@8			; CCommonDialog `RTTI Type Descriptor'
PUBLIC	??_R3CCommonDialog@@8				; CCommonDialog::`RTTI Class Hierarchy Descriptor'
PUBLIC	??_R2CCommonDialog@@8				; CCommonDialog::`RTTI Base Class Array'
PUBLIC	??_R1A@?0A@EA@CCommonDialog@@8			; CCommonDialog::`RTTI Base Class Descriptor at (0,-1,0,64)'
PUBLIC	??_R1A@?0A@EA@CDialog@@8			; CDialog::`RTTI Base Class Descriptor at (0,-1,0,64)'
PUBLIC	??_R0?AVCDialog@@@8				; CDialog `RTTI Type Descriptor'
PUBLIC	??_R3CDialog@@8					; CDialog::`RTTI Class Hierarchy Descriptor'
PUBLIC	??_R2CDialog@@8					; CDialog::`RTTI Base Class Array'
PUBLIC	??_R4CListCtrl@@6B@				; CListCtrl::`RTTI Complete Object Locator'
PUBLIC	??_R0?AVCListCtrl@@@8				; CListCtrl `RTTI Type Descriptor'
PUBLIC	??_R3CListCtrl@@8				; CListCtrl::`RTTI Class Hierarchy Descriptor'
PUBLIC	??_R2CListCtrl@@8				; CListCtrl::`RTTI Base Class Array'
PUBLIC	??_R1A@?0A@EA@CListCtrl@@8			; CListCtrl::`RTTI Base Class Descriptor at (0,-1,0,64)'
PUBLIC	??_7CSetting_Common_Type_A@@6B@			; CSetting_Common_Type_A::`vftable'
PUBLIC	??_C@_01IHBHIGKO@?0@				; `string'
PUBLIC	??_C@_0CI@DCNEOPPA@?$MA?T?$LH?B?$LF?H?5?$LJ?$KO?$MA?Z?$LP?$KN?$MA?L?5?$LO?K?$LI?B?$MA?$LK?5?A?x?$LJ?$PN?$MA?L?5?$LO@ ; `string'
PUBLIC	??_R4CSetting_Common_Type_A@@6B@		; CSetting_Common_Type_A::`RTTI Complete Object Locator'
PUBLIC	??_R0?AVCSetting_Common_Type_A@@@8		; CSetting_Common_Type_A `RTTI Type Descriptor'
PUBLIC	??_R3CSetting_Common_Type_A@@8			; CSetting_Common_Type_A::`RTTI Class Hierarchy Descriptor'
PUBLIC	??_R2CSetting_Common_Type_A@@8			; CSetting_Common_Type_A::`RTTI Base Class Array'
PUBLIC	??_R1A@?0A@EA@CSetting_Common_Type_A@@8		; CSetting_Common_Type_A::`RTTI Base Class Descriptor at (0,-1,0,64)'
PUBLIC	??_R1A@?0A@EA@CBaseDialog@@8			; CBaseDialog::`RTTI Base Class Descriptor at (0,-1,0,64)'
PUBLIC	??_R0?AVCBaseDialog@@@8				; CBaseDialog `RTTI Type Descriptor'
PUBLIC	??_R3CBaseDialog@@8				; CBaseDialog::`RTTI Class Hierarchy Descriptor'
PUBLIC	??_R2CBaseDialog@@8				; CBaseDialog::`RTTI Base Class Array'
EXTRN	??3@YAXPAX@Z:PROC				; operator delete
EXTRN	?__global_delete@@YAXPAXI@Z:PROC		; __global_delete
EXTRN	___std_terminate:PROC
EXTRN	__imp__SendMessageA@16:PROC
EXTRN	__imp__IsWindowVisible@4:PROC
EXTRN	__imp__EnableWindow@8:PROC
EXTRN	__imp__InvalidateRect@12:PROC
EXTRN	__imp__atof:PROC
EXTRN	__imp_??0?$CStringT@DV?$StrTraitMFC_DLL@DV?$ChTraitsCRT@D@ATL@@@@@ATL@@QAE@XZ:PROC
EXTRN	__imp_??0?$CStringT@DV?$StrTraitMFC_DLL@DV?$ChTraitsCRT@D@ATL@@@@@ATL@@QAE@ABV01@@Z:PROC
EXTRN	__imp_??0?$CStringT@DV?$StrTraitMFC_DLL@DV?$ChTraitsCRT@D@ATL@@@@@ATL@@QAE@PBD@Z:PROC
EXTRN	__imp_??1?$CStringT@DV?$StrTraitMFC_DLL@DV?$ChTraitsCRT@D@ATL@@@@@ATL@@QAE@XZ:PROC
EXTRN	__imp_??4?$CStringT@DV?$StrTraitMFC_DLL@DV?$ChTraitsCRT@D@ATL@@@@@ATL@@QAEAAV01@ABV01@@Z:PROC
EXTRN	__imp_??4?$CStringT@DV?$StrTraitMFC_DLL@DV?$ChTraitsCRT@D@ATL@@@@@ATL@@QAEAAV01@PBD@Z:PROC
EXTRN	__imp_?Compare@?$CStringT@DV?$StrTraitMFC_DLL@DV?$ChTraitsCRT@D@ATL@@@@@ATL@@QBEHPBD@Z:PROC
EXTRN	__imp_?Replace@?$CStringT@DV?$StrTraitMFC_DLL@DV?$ChTraitsCRT@D@ATL@@@@@ATL@@QAEHDD@Z:PROC
EXTRN	__imp_?Remove@?$CStringT@DV?$StrTraitMFC_DLL@DV?$ChTraitsCRT@D@ATL@@@@@ATL@@QAEHD@Z:PROC
EXTRN	__imp_?TrimRight@?$CStringT@DV?$StrTraitMFC_DLL@DV?$ChTraitsCRT@D@ATL@@@@@ATL@@QAEAAV12@XZ:PROC
EXTRN	__imp_?TrimLeft@?$CStringT@DV?$StrTraitMFC_DLL@DV?$ChTraitsCRT@D@ATL@@@@@ATL@@QAEAAV12@XZ:PROC
EXTRN	__imp_?LoadStringA@?$CStringT@DV?$StrTraitMFC_DLL@DV?$ChTraitsCRT@D@ATL@@@@@ATL@@QAEHI@Z:PROC
EXTRN	?DDX_Text@@YGXPAVCDataExchange@@HAAV?$CStringT@DV?$StrTraitMFC_DLL@DV?$ChTraitsCRT@D@ATL@@@@@ATL@@@Z:PROC ; DDX_Text
EXTRN	?DDX_Control@@YGXPAVCDataExchange@@HAAVCWnd@@@Z:PROC ; DDX_Control
EXTRN	?OnCmdMsg@CCmdTarget@@UAEHIHPAXPAUAFX_CMDHANDLERINFO@@@Z:PROC ; CCmdTarget::OnCmdMsg
EXTRN	?IsInvokeAllowed@CCmdTarget@@UAEHJ@Z:PROC	; CCmdTarget::IsInvokeAllowed
EXTRN	?GetDispatchIID@CCmdTarget@@UAEHPAU_GUID@@@Z:PROC ; CCmdTarget::GetDispatchIID
EXTRN	?GetTypeInfoCount@CCmdTarget@@UAEIXZ:PROC	; CCmdTarget::GetTypeInfoCount
EXTRN	?GetTypeLibCache@CCmdTarget@@UAEPAVCTypeLibCache@@XZ:PROC ; CCmdTarget::GetTypeLibCache
EXTRN	?GetTypeLib@CCmdTarget@@UAEJKPAPAUITypeLib@@@Z:PROC ; CCmdTarget::GetTypeLib
EXTRN	?GetCommandMap@CCmdTarget@@MBEPBUAFX_OLECMDMAP@@XZ:PROC ; CCmdTarget::GetCommandMap
EXTRN	?GetDispatchMap@CCmdTarget@@MBEPBUAFX_DISPMAP@@XZ:PROC ; CCmdTarget::GetDispatchMap
EXTRN	?GetConnectionMap@CCmdTarget@@MBEPBUAFX_CONNECTIONMAP@@XZ:PROC ; CCmdTarget::GetConnectionMap
EXTRN	?GetEventSinkMap@CCmdTarget@@MBEPBUAFX_EVENTSINKMAP@@XZ:PROC ; CCmdTarget::GetEventSinkMap
EXTRN	?OnCreateAggregates@CCmdTarget@@UAEHXZ:PROC	; CCmdTarget::OnCreateAggregates
EXTRN	?GetInterfaceHook@CCmdTarget@@UAEPAUIUnknown@@PBX@Z:PROC ; CCmdTarget::GetInterfaceHook
EXTRN	?GetExtraConnectionPoints@CCmdTarget@@MAEHPAVCPtrArray@@@Z:PROC ; CCmdTarget::GetExtraConnectionPoints
EXTRN	?GetConnectionHook@CCmdTarget@@MAEPAUIConnectionPoint@@ABU_GUID@@@Z:PROC ; CCmdTarget::GetConnectionHook
EXTRN	??0CWnd@@QAE@XZ:PROC				; CWnd::CWnd
EXTRN	?PreSubclassWindow@CWnd@@UAEXXZ:PROC		; CWnd::PreSubclassWindow
EXTRN	?Create@CWnd@@UAEHPBD0KABUtagRECT@@PAV1@IPAUCCreateContext@@@Z:PROC ; CWnd::Create
EXTRN	?CreateEx@CWnd@@UAEHKPBD0KHHHHPAUHWND__@@PAUHMENU__@@PAX@Z:PROC ; CWnd::CreateEx
EXTRN	?CreateEx@CWnd@@UAEHKPBD0KABUtagRECT@@PAV1@IPAX@Z:PROC ; CWnd::CreateEx
EXTRN	?DestroyWindow@CWnd@@UAEHXZ:PROC		; CWnd::DestroyWindow
EXTRN	?PreCreateWindow@CWnd@@UAEHAAUtagCREATESTRUCTA@@@Z:PROC ; CWnd::PreCreateWindow
EXTRN	?CalcWindowRect@CWnd@@UAEXPAUtagRECT@@I@Z:PROC	; CWnd::CalcWindowRect
EXTRN	?GetDlgItem@CWnd@@QBEPAV1@H@Z:PROC		; CWnd::GetDlgItem
EXTRN	?SetWindowTextA@CWnd@@QAEXPBD@Z:PROC		; CWnd::SetWindowTextA
EXTRN	?GetWindowTextA@CWnd@@QBEXAAV?$CStringT@DV?$StrTraitMFC_DLL@DV?$ChTraitsCRT@D@ATL@@@@@ATL@@@Z:PROC ; CWnd::GetWindowTextA
EXTRN	?GetMenu@CWnd@@UBEPAVCMenu@@XZ:PROC		; CWnd::GetMenu
EXTRN	?SetMenu@CWnd@@UAEHPAVCMenu@@@Z:PROC		; CWnd::SetMenu
EXTRN	?ShowWindow@CWnd@@QAEHH@Z:PROC			; CWnd::ShowWindow
EXTRN	?OnToolHitTest@CWnd@@UBEHVCPoint@@PAUtagTOOLINFOA@@@Z:PROC ; CWnd::OnToolHitTest
EXTRN	?EnableWindow@CWnd@@QAEHH@Z:PROC		; CWnd::EnableWindow
EXTRN	?SetFocus@CWnd@@QAEPAV1@XZ:PROC			; CWnd::SetFocus
EXTRN	?GetScrollBarCtrl@CWnd@@UBEPAVCScrollBar@@H@Z:PROC ; CWnd::GetScrollBarCtrl
EXTRN	?UpdateData@CWnd@@QAEHH@Z:PROC			; CWnd::UpdateData
EXTRN	?WinHelpA@CWnd@@UAEXKI@Z:PROC			; CWnd::WinHelpA
EXTRN	?HtmlHelpA@CWnd@@UAEXKI@Z:PROC			; CWnd::HtmlHelpA
EXTRN	?WinHelpInternal@CWnd@@UAEXKI@Z:PROC		; CWnd::WinHelpInternal
EXTRN	?ContinueModal@CWnd@@UAEHXZ:PROC		; CWnd::ContinueModal
EXTRN	?EndModalLoop@CWnd@@UAEXH@Z:PROC		; CWnd::EndModalLoop
EXTRN	?OnDrawIconicThumbnailOrLivePreview@CWnd@@UAEXAAVCDC@@VCRect@@VCSize@@HAAH@Z:PROC ; CWnd::OnDrawIconicThumbnailOrLivePreview
EXTRN	?GetInterfaceMap@CWnd@@MBEPBUAFX_INTERFACEMAP@@XZ:PROC ; CWnd::GetInterfaceMap
EXTRN	?EnsureStdObj@CWnd@@UAEJXZ:PROC			; CWnd::EnsureStdObj
EXTRN	?get_accParent@CWnd@@UAEJPAPAUIDispatch@@@Z:PROC ; CWnd::get_accParent
EXTRN	?get_accChildCount@CWnd@@UAEJPAJ@Z:PROC		; CWnd::get_accChildCount
EXTRN	?get_accChild@CWnd@@UAEJUtagVARIANT@@PAPAUIDispatch@@@Z:PROC ; CWnd::get_accChild
EXTRN	?get_accName@CWnd@@UAEJUtagVARIANT@@PAPA_W@Z:PROC ; CWnd::get_accName
EXTRN	?get_accValue@CWnd@@UAEJUtagVARIANT@@PAPA_W@Z:PROC ; CWnd::get_accValue
EXTRN	?get_accDescription@CWnd@@UAEJUtagVARIANT@@PAPA_W@Z:PROC ; CWnd::get_accDescription
EXTRN	?get_accRole@CWnd@@UAEJUtagVARIANT@@PAU2@@Z:PROC ; CWnd::get_accRole
EXTRN	?get_accState@CWnd@@UAEJUtagVARIANT@@PAU2@@Z:PROC ; CWnd::get_accState
EXTRN	?get_accHelp@CWnd@@UAEJUtagVARIANT@@PAPA_W@Z:PROC ; CWnd::get_accHelp
EXTRN	?get_accHelpTopic@CWnd@@UAEJPAPA_WUtagVARIANT@@PAJ@Z:PROC ; CWnd::get_accHelpTopic
EXTRN	?get_accKeyboardShortcut@CWnd@@UAEJUtagVARIANT@@PAPA_W@Z:PROC ; CWnd::get_accKeyboardShortcut
EXTRN	?get_accFocus@CWnd@@UAEJPAUtagVARIANT@@@Z:PROC	; CWnd::get_accFocus
EXTRN	?get_accSelection@CWnd@@UAEJPAUtagVARIANT@@@Z:PROC ; CWnd::get_accSelection
EXTRN	?get_accDefaultAction@CWnd@@UAEJUtagVARIANT@@PAPA_W@Z:PROC ; CWnd::get_accDefaultAction
EXTRN	?accSelect@CWnd@@UAEJJUtagVARIANT@@@Z:PROC	; CWnd::accSelect
EXTRN	?accLocation@CWnd@@UAEJPAJ000UtagVARIANT@@@Z:PROC ; CWnd::accLocation
EXTRN	?accNavigate@CWnd@@UAEJJUtagVARIANT@@PAU2@@Z:PROC ; CWnd::accNavigate
EXTRN	?accHitTest@CWnd@@UAEJJJPAUtagVARIANT@@@Z:PROC	; CWnd::accHitTest
EXTRN	?accDoDefaultAction@CWnd@@UAEJUtagVARIANT@@@Z:PROC ; CWnd::accDoDefaultAction
EXTRN	?put_accName@CWnd@@UAEJUtagVARIANT@@PA_W@Z:PROC	; CWnd::put_accName
EXTRN	?put_accValue@CWnd@@UAEJUtagVARIANT@@PA_W@Z:PROC ; CWnd::put_accValue
EXTRN	?SetProxy@CWnd@@UAEJPAUIAccessibleProxy@@@Z:PROC ; CWnd::SetProxy
EXTRN	?CreateAccessibleProxy@CWnd@@UAEJIJPAJ@Z:PROC	; CWnd::CreateAccessibleProxy
EXTRN	?OnCommand@CWnd@@MAEHIJ@Z:PROC			; CWnd::OnCommand
EXTRN	?OnNotify@CWnd@@MAEHIJPAJ@Z:PROC		; CWnd::OnNotify
EXTRN	?GetSuperWndProcAddr@CWnd@@MAEPAP6GJPAUHWND__@@IIJ@ZXZ:PROC ; CWnd::GetSuperWndProcAddr
EXTRN	?PreTranslateMessage@CWnd@@UAEHPAUtagMSG@@@Z:PROC ; CWnd::PreTranslateMessage
EXTRN	?OnAmbientProperty@CWnd@@UAEHPAVCOleControlSite@@JPAUtagVARIANT@@@Z:PROC ; CWnd::OnAmbientProperty
EXTRN	?WindowProc@CWnd@@MAEJIIJ@Z:PROC		; CWnd::WindowProc
EXTRN	?OnWndMsg@CWnd@@MAEHIIJPAJ@Z:PROC		; CWnd::OnWndMsg
EXTRN	?DefWindowProcA@CWnd@@MAEJIIJ@Z:PROC		; CWnd::DefWindowProcA
EXTRN	?PostNcDestroy@CWnd@@MAEXXZ:PROC		; CWnd::PostNcDestroy
EXTRN	?OnChildNotify@CWnd@@MAEHIIJPAJ@Z:PROC		; CWnd::OnChildNotify
EXTRN	?OnTouchInputs@CWnd@@MAEHIPAUtagTOUCHINPUT@@@Z:PROC ; CWnd::OnTouchInputs
EXTRN	?OnTouchInput@CWnd@@MAEHVCPoint@@HHPAUtagTOUCHINPUT@@@Z:PROC ; CWnd::OnTouchInput
EXTRN	?GetGestureStatus@CWnd@@MAEKVCPoint@@@Z:PROC	; CWnd::GetGestureStatus
EXTRN	?OnGestureZoom@CWnd@@MAEHVCPoint@@J@Z:PROC	; CWnd::OnGestureZoom
EXTRN	?OnGesturePan@CWnd@@MAEHVCPoint@@0@Z:PROC	; CWnd::OnGesturePan
EXTRN	?OnGestureRotate@CWnd@@MAEHVCPoint@@N@Z:PROC	; CWnd::OnGestureRotate
EXTRN	?OnGestureTwoFingerTap@CWnd@@MAEHVCPoint@@@Z:PROC ; CWnd::OnGestureTwoFingerTap
EXTRN	?OnGesturePressAndTap@CWnd@@MAEHVCPoint@@J@Z:PROC ; CWnd::OnGesturePressAndTap
EXTRN	?ResizeDynamicLayout@CWnd@@MAEXXZ:PROC		; CWnd::ResizeDynamicLayout
EXTRN	?CheckAutoCenter@CWnd@@UAEHXZ:PROC		; CWnd::CheckAutoCenter
EXTRN	?IsFrameWnd@CWnd@@UBEHXZ:PROC			; CWnd::IsFrameWnd
EXTRN	?OnFinalRelease@CWnd@@UAEXXZ:PROC		; CWnd::OnFinalRelease
EXTRN	?CreateControlContainer@CWnd@@MAEHPAPAVCOleControlContainer@@@Z:PROC ; CWnd::CreateControlContainer
EXTRN	?CreateControlSite@CWnd@@MAEHPAVCOleControlContainer@@PAPAVCOleControlSite@@IABU_GUID@@@Z:PROC ; CWnd::CreateControlSite
EXTRN	?SetOccDialogInfo@CWnd@@MAEHPAU_AFX_OCC_DIALOG_INFO@@@Z:PROC ; CWnd::SetOccDialogInfo
EXTRN	?GetOccDialogInfo@CWnd@@MAEPAU_AFX_OCC_DIALOG_INFO@@XZ:PROC ; CWnd::GetOccDialogInfo
EXTRN	?GetMessageMap@CWnd@@MBEPBUAFX_MSGMAP@@XZ:PROC	; CWnd::GetMessageMap
EXTRN	?GetRuntimeClass@CDialog@@UBEPAUCRuntimeClass@@XZ:PROC ; CDialog::GetRuntimeClass
EXTRN	?Create@CDialog@@UAEHPBDPAVCWnd@@@Z:PROC	; CDialog::Create
EXTRN	?CreateIndirect@CDialog@@UAEHPBUDLGTEMPLATE@@PAVCWnd@@PAX@Z:PROC ; CDialog::CreateIndirect
EXTRN	?CreateIndirect@CDialog@@UAEHPAXPAVCWnd@@@Z:PROC ; CDialog::CreateIndirect
EXTRN	?DoModal@CDialog@@UAEHXZ:PROC			; CDialog::DoModal
EXTRN	?OnInitDialog@CDialog@@UAEHXZ:PROC		; CDialog::OnInitDialog
EXTRN	?OnSetFont@CDialog@@UAEXPAVCFont@@@Z:PROC	; CDialog::OnSetFont
EXTRN	?OnOK@CDialog@@MAEXXZ:PROC			; CDialog::OnOK
EXTRN	?OnCancel@CDialog@@MAEXXZ:PROC			; CDialog::OnCancel
EXTRN	??1CDialog@@UAE@XZ:PROC				; CDialog::~CDialog
EXTRN	?PreTranslateMessage@CDialog@@UAEHPAUtagMSG@@@Z:PROC ; CDialog::PreTranslateMessage
EXTRN	?OnCmdMsg@CDialog@@UAEHIHPAXPAUAFX_CMDHANDLERINFO@@@Z:PROC ; CDialog::OnCmdMsg
EXTRN	?CheckAutoCenter@CDialog@@UAEHXZ:PROC		; CDialog::CheckAutoCenter
EXTRN	?SetOccDialogInfo@CDialog@@MAEHPAU_AFX_OCC_DIALOG_INFO@@@Z:PROC ; CDialog::SetOccDialogInfo
EXTRN	?GetOccDialogInfo@CDialog@@MAEPAU_AFX_OCC_DIALOG_INFO@@XZ:PROC ; CDialog::GetOccDialogInfo
EXTRN	?PreInitDialog@CDialog@@MAEXXZ:PROC		; CDialog::PreInitDialog
EXTRN	?GetThisMessageMap@CDialog@@KGPBUAFX_MSGMAP@@XZ:PROC ; CDialog::GetThisMessageMap
EXTRN	?GetRuntimeClass@CStatic@@UBEPAUCRuntimeClass@@XZ:PROC ; CStatic::GetRuntimeClass
EXTRN	?Create@CStatic@@UAEHPBDKABUtagRECT@@PAVCWnd@@I@Z:PROC ; CStatic::Create
EXTRN	?DrawItem@CStatic@@UAEXPAUtagDRAWITEMSTRUCT@@@Z:PROC ; CStatic::DrawItem
EXTRN	??1CStatic@@UAE@XZ:PROC				; CStatic::~CStatic
EXTRN	?OnChildNotify@CStatic@@MAEHIIJPAJ@Z:PROC	; CStatic::OnChildNotify
EXTRN	??_ECStatic@@UAEPAXI@Z:PROC			; CStatic::`vector deleting destructor'
EXTRN	?GetRuntimeClass@CButton@@UBEPAUCRuntimeClass@@XZ:PROC ; CButton::GetRuntimeClass
EXTRN	?Create@CButton@@UAEHPBDKABUtagRECT@@PAVCWnd@@I@Z:PROC ; CButton::Create
EXTRN	?DrawItem@CButton@@UAEXPAUtagDRAWITEMSTRUCT@@@Z:PROC ; CButton::DrawItem
EXTRN	??1CButton@@UAE@XZ:PROC				; CButton::~CButton
EXTRN	?OnChildNotify@CButton@@MAEHIIJPAJ@Z:PROC	; CButton::OnChildNotify
EXTRN	??_ECButton@@UAEPAXI@Z:PROC			; CButton::`vector deleting destructor'
EXTRN	?GetText@CListBox@@QBEXHAAV?$CStringT@DV?$StrTraitMFC_DLL@DV?$ChTraitsCRT@D@ATL@@@@@ATL@@@Z:PROC ; CListBox::GetText
EXTRN	?GetRuntimeClass@CComboBox@@UBEPAUCRuntimeClass@@XZ:PROC ; CComboBox::GetRuntimeClass
EXTRN	?Create@CComboBox@@UAEHKABUtagRECT@@PAVCWnd@@I@Z:PROC ; CComboBox::Create
EXTRN	?DrawItem@CComboBox@@UAEXPAUtagDRAWITEMSTRUCT@@@Z:PROC ; CComboBox::DrawItem
EXTRN	?MeasureItem@CComboBox@@UAEXPAUtagMEASUREITEMSTRUCT@@@Z:PROC ; CComboBox::MeasureItem
EXTRN	?CompareItem@CComboBox@@UAEHPAUtagCOMPAREITEMSTRUCT@@@Z:PROC ; CComboBox::CompareItem
EXTRN	?DeleteItem@CComboBox@@UAEXPAUtagDELETEITEMSTRUCT@@@Z:PROC ; CComboBox::DeleteItem
EXTRN	??1CComboBox@@UAE@XZ:PROC			; CComboBox::~CComboBox
EXTRN	?OnChildNotify@CComboBox@@MAEHIIJPAJ@Z:PROC	; CComboBox::OnChildNotify
EXTRN	??_ECComboBox@@UAEPAXI@Z:PROC			; CComboBox::`vector deleting destructor'
EXTRN	?GetRuntimeClass@CEdit@@UBEPAUCRuntimeClass@@XZ:PROC ; CEdit::GetRuntimeClass
EXTRN	??1CEdit@@UAE@XZ:PROC				; CEdit::~CEdit
EXTRN	??_ECEdit@@UAEPAXI@Z:PROC			; CEdit::`vector deleting destructor'
EXTRN	?AfxMessageBox@@YGHPBDII@Z:PROC			; AfxMessageBox
EXTRN	?GetRuntimeClass@CCommonDialog@@UBEPAUCRuntimeClass@@XZ:PROC ; CCommonDialog::GetRuntimeClass
EXTRN	?OnOK@CCommonDialog@@MAEXXZ:PROC		; CCommonDialog::OnOK
EXTRN	?OnCancel@CCommonDialog@@MAEXXZ:PROC		; CCommonDialog::OnCancel
EXTRN	?GetMessageMap@CCommonDialog@@MBEPBUAFX_MSGMAP@@XZ:PROC ; CCommonDialog::GetMessageMap
EXTRN	??_ECCommonDialog@@UAEPAXI@Z:PROC		; CCommonDialog::`vector deleting destructor'
EXTRN	??0CColorDialog@@QAE@KKPAVCWnd@@@Z:PROC		; CColorDialog::CColorDialog
EXTRN	?DoModal@CColorDialog@@UAEHXZ:PROC		; CColorDialog::DoModal
EXTRN	?GetRuntimeClass@CListCtrl@@UBEPAUCRuntimeClass@@XZ:PROC ; CListCtrl::GetRuntimeClass
EXTRN	?GetCheck@CListCtrl@@QBEHH@Z:PROC		; CListCtrl::GetCheck
EXTRN	?SetCheck@CListCtrl@@QAEHHH@Z:PROC		; CListCtrl::SetCheck
EXTRN	?InsertColumn@CListCtrl@@QAEHHPBDHHH@Z:PROC	; CListCtrl::InsertColumn
EXTRN	?DrawItem@CListCtrl@@UAEXPAUtagDRAWITEMSTRUCT@@@Z:PROC ; CListCtrl::DrawItem
EXTRN	?InsertItem@CListCtrl@@QAEHIHPBDIIHJ@Z:PROC	; CListCtrl::InsertItem
EXTRN	??1CListCtrl@@UAE@XZ:PROC			; CListCtrl::~CListCtrl
EXTRN	?OnChildNotify@CListCtrl@@MAEHIIJPAJ@Z:PROC	; CListCtrl::OnChildNotify
EXTRN	?GetMessageMap@CListCtrl@@MBEPBUAFX_MSGMAP@@XZ:PROC ; CListCtrl::GetMessageMap
EXTRN	??_ECListCtrl@@UAEPAXI@Z:PROC			; CListCtrl::`vector deleting destructor'
EXTRN	??0CNumEdit@@QAE@XZ:PROC			; CNumEdit::CNumEdit
EXTRN	??1CNumEdit@@UAE@XZ:PROC			; CNumEdit::~CNumEdit
EXTRN	??0CNumSpinCtrl@@QAE@XZ:PROC			; CNumSpinCtrl::CNumSpinCtrl
EXTRN	??1CNumSpinCtrl@@UAE@XZ:PROC			; CNumSpinCtrl::~CNumSpinCtrl
EXTRN	??0CBitmapItemComboBox@@QAE@XZ:PROC		; CBitmapItemComboBox::CBitmapItemComboBox
EXTRN	??1CBitmapItemComboBox@@UAE@XZ:PROC		; CBitmapItemComboBox::~CBitmapItemComboBox
EXTRN	??0CBaseListBox@@QAE@XZ:PROC			; CBaseListBox::CBaseListBox
EXTRN	??1CBaseListBox@@UAE@XZ:PROC			; CBaseListBox::~CBaseListBox
EXTRN	?FindLimitValueofHorizontalLine@CFindType@@SA?AW4LIMITHORIZONTALLINE@CBaseData@@PBD@Z:PROC ; CFindType::FindLimitValueofHorizontalLine
EXTRN	??0CBaseDialog@@QAE@IPAVCWnd@@PAUIChartOCX135914@@0@Z:PROC ; CBaseDialog::CBaseDialog
EXTRN	??1CBaseDialog@@UAE@XZ:PROC			; CBaseDialog::~CBaseDialog
EXTRN	?SetTitle@CBaseDialog@@UAEXHABV?$CStringT@DV?$StrTraitMFC_DLL@DV?$ChTraitsCRT@D@ATL@@@@@ATL@@@Z:PROC ; CBaseDialog::SetTitle
EXTRN	?DoCalculate@CBaseDialog@@UAE_NXZ:PROC		; CBaseDialog::DoCalculate
EXTRN	?GetPacketType@CBaseDialog@@QAE?AV?$CStringT@DV?$StrTraitMFC_DLL@DV?$ChTraitsCRT@D@ATL@@@@@ATL@@XZ:PROC ; CBaseDialog::GetPacketType
EXTRN	?Initial_Spin@CBaseDialog@@IAEXAAVCNumSpinCtrl@@AAVCNumEdit@@N@Z:PROC ; CBaseDialog::Initial_Spin
EXTRN	?Initial_Spin@CBaseDialog@@IAEXAAVCNumSpinCtrl@@AAVCNumEdit@@NMMM@Z:PROC ; CBaseDialog::Initial_Spin
EXTRN	?Initial_FillUp@CBaseDialog@@IAEXHAAVCButton@@@Z:PROC ; CBaseDialog::Initial_FillUp
EXTRN	?Initial_Title@CBaseDialog@@IAEXHAAVCEdit@@@Z:PROC ; CBaseDialog::Initial_Title
EXTRN	?Initial_DrawStyleComboBox@CBaseDialog@@IAEXHAAVCBitmapItemComboBox@@@Z:PROC ; CBaseDialog::Initial_DrawStyleComboBox
EXTRN	?Initial_ThicknessComboBox@CBaseDialog@@IAEXHHAAVCBitmapItemComboBox@@@Z:PROC ; CBaseDialog::Initial_ThicknessComboBox
EXTRN	?Initial_ListBox@CBaseDialog@@IAEXPAUIDoubleList135914@@AAVCBaseListBox@@@Z:PROC ; CBaseDialog::Initial_ListBox
EXTRN	?Initial_BaseLineThicknessComboBox@CBaseDialog@@IAEXHHAAVCBitmapItemComboBox@@@Z:PROC ; CBaseDialog::Initial_BaseLineThicknessComboBox
EXTRN	?Initial_DrawBaseLineStyleComboBox@CBaseDialog@@IAEXHAAVCBitmapItemComboBox@@@Z:PROC ; CBaseDialog::Initial_DrawBaseLineStyleComboBox
EXTRN	?OnApply_FillUp@CBaseDialog@@IAEXHAAVCButton@@@Z:PROC ; CBaseDialog::OnApply_FillUp
EXTRN	?OnApply_FillDown@CBaseDialog@@IAEXHAAVCButton@@@Z:PROC ; CBaseDialog::OnApply_FillDown
EXTRN	?OnApply_Title@CBaseDialog@@IAEXHAAVCEdit@@@Z:PROC ; CBaseDialog::OnApply_Title
EXTRN	?OnApply_DrawStyle@CBaseDialog@@IAEXHAAVCBitmapItemComboBox@@@Z:PROC ; CBaseDialog::OnApply_DrawStyle
EXTRN	?OnApply_Thickness@CBaseDialog@@IAEXHAAVCBitmapItemComboBox@@@Z:PROC ; CBaseDialog::OnApply_Thickness
EXTRN	?OnApply_PacketData@CBaseDialog@@IAEXAAVCComboBox@@PAUIGraphInfo135914@@@Z:PROC ; CBaseDialog::OnApply_PacketData
EXTRN	?OnApply_SubPacketData@CBaseDialog@@IAEXAAVCComboBox@@PAUIGraphInfo135914@@H@Z:PROC ; CBaseDialog::OnApply_SubPacketData
EXTRN	?OnApply_BaseLineThickness@CBaseDialog@@IAEXHAAVCBitmapItemComboBox@@@Z:PROC ; CBaseDialog::OnApply_BaseLineThickness
EXTRN	?OnApply_BaseLineDrawStyle@CBaseDialog@@IAEXHAAVCBitmapItemComboBox@@@Z:PROC ; CBaseDialog::OnApply_BaseLineDrawStyle
EXTRN	?GetConditionTitle@CBaseDialog@@IAE?AV?$CStringT@DV?$StrTraitMFC_DLL@DV?$ChTraitsCRT@D@ATL@@@@@ATL@@PBDH@Z:PROC ; CBaseDialog::GetConditionTitle
EXTRN	?SetStatePacketCombo@CBaseDialog@@IAEHPAUIGraphInfo135914@@AAVCComboBox@@AAVCStatic@@@Z:PROC ; CBaseDialog::SetStatePacketCombo
EXTRN	??0CColorButton@@QAE@XZ:PROC			; CColorButton::CColorButton
EXTRN	??1CColorButton@@UAE@XZ:PROC			; CColorButton::~CColorButton
EXTRN	?GetColor@CColorButton@@QAEKXZ:PROC		; CColorButton::GetColor
EXTRN	?SetColor@CColorButton@@QAEXABK@Z:PROC		; CColorButton::SetColor
EXTRN	?SetText@CColorButton@@QAEXV?$CStringT@DV?$StrTraitMFC_DLL@DV?$ChTraitsCRT@D@ATL@@@@@ATL@@@Z:PROC ; CColorButton::SetText
EXTRN	??_ECSetting_Common_Type_A@@UAEPAXI@Z:PROC	; CSetting_Common_Type_A::`vector deleting destructor'
EXTRN	?GetLanguageText@IMetaTable@@QAEPBDPAUHWND__@@W4E_CODEPAGE@1@PBDH@Z:PROC ; IMetaTable::GetLanguageText
EXTRN	?GetStringData@CDataConversion@@SA?AV?$CStringT@DV?$StrTraitMFC_DLL@DV?$ChTraitsCRT@D@ATL@@@@@ATL@@AAV23@ABV23@_N@Z:PROC ; CDataConversion::GetStringData
EXTRN	?GetStringFormatTrans@CDataConversion@@QAE?AV?$CStringT@DV?$StrTraitMFC_DLL@DV?$ChTraitsCRT@D@ATL@@@@@ATL@@ABV23@0@Z:PROC ; CDataConversion::GetStringFormatTrans
EXTRN	?IsBaseFormat@CDataConversion@@SA_NABV?$CStringT@DV?$StrTraitMFC_DLL@DV?$ChTraitsCRT@D@ATL@@@@@ATL@@@Z:PROC ; CDataConversion::IsBaseFormat
EXTRN	?GetDataToDec@CDataConversion@@SAHV?$CStringT@DV?$StrTraitMFC_DLL@DV?$ChTraitsCRT@D@ATL@@@@@ATL@@0AAV23@@Z:PROC ; CDataConversion::GetDataToDec
EXTRN	?IsValid8_32@CDataConversion@@SAHV?$CStringT@DV?$StrTraitMFC_DLL@DV?$ChTraitsCRT@D@ATL@@@@@ATL@@@Z:PROC ; CDataConversion::IsValid8_32
EXTRN	?GetMinimumValue@CDataConversion@@SA?AV?$CStringT@DV?$StrTraitMFC_DLL@DV?$ChTraitsCRT@D@ATL@@@@@ATL@@V23@@Z:PROC ; CDataConversion::GetMinimumValue
EXTRN	@__security_check_cookie@4:PROC
EXTRN	___CxxFrameHandler3:PROC
EXTRN	??_7type_info@@6B@:QWORD			; type_info::`vftable'
EXTRN	?g_iMetaTable@@3VIMetaTable@@A:BYTE		; g_iMetaTable
EXTRN	___security_cookie:DWORD
EXTRN	__fltused:DWORD
;	COMDAT ??_R2CBaseDialog@@8
rdata$r	SEGMENT
??_R2CBaseDialog@@8 DD FLAT:??_R1A@?0A@EA@CBaseDialog@@8 ; CBaseDialog::`RTTI Base Class Array'
	DD	FLAT:??_R1A@?0A@EA@CDialog@@8
	DD	FLAT:??_R1A@?0A@EA@CWnd@@8
	DD	FLAT:??_R1A@?0A@EA@CCmdTarget@@8
	DD	FLAT:??_R1A@?0A@EA@CObject@@8
rdata$r	ENDS
;	COMDAT ??_R3CBaseDialog@@8
rdata$r	SEGMENT
??_R3CBaseDialog@@8 DD 00H				; CBaseDialog::`RTTI Class Hierarchy Descriptor'
	DD	00H
	DD	05H
	DD	FLAT:??_R2CBaseDialog@@8
rdata$r	ENDS
;	COMDAT ??_R0?AVCBaseDialog@@@8
data$rs	SEGMENT
??_R0?AVCBaseDialog@@@8 DD FLAT:??_7type_info@@6B@	; CBaseDialog `RTTI Type Descriptor'
	DD	00H
	DB	'.?AVCBaseDialog@@', 00H
data$rs	ENDS
;	COMDAT ??_R1A@?0A@EA@CBaseDialog@@8
rdata$r	SEGMENT
??_R1A@?0A@EA@CBaseDialog@@8 DD FLAT:??_R0?AVCBaseDialog@@@8 ; CBaseDialog::`RTTI Base Class Descriptor at (0,-1,0,64)'
	DD	04H
	DD	00H
	DD	0ffffffffH
	DD	00H
	DD	040H
	DD	FLAT:??_R3CBaseDialog@@8
rdata$r	ENDS
;	COMDAT ??_R1A@?0A@EA@CSetting_Common_Type_A@@8
rdata$r	SEGMENT
??_R1A@?0A@EA@CSetting_Common_Type_A@@8 DD FLAT:??_R0?AVCSetting_Common_Type_A@@@8 ; CSetting_Common_Type_A::`RTTI Base Class Descriptor at (0,-1,0,64)'
	DD	05H
	DD	00H
	DD	0ffffffffH
	DD	00H
	DD	040H
	DD	FLAT:??_R3CSetting_Common_Type_A@@8
rdata$r	ENDS
;	COMDAT ??_R2CSetting_Common_Type_A@@8
rdata$r	SEGMENT
??_R2CSetting_Common_Type_A@@8 DD FLAT:??_R1A@?0A@EA@CSetting_Common_Type_A@@8 ; CSetting_Common_Type_A::`RTTI Base Class Array'
	DD	FLAT:??_R1A@?0A@EA@CBaseDialog@@8
	DD	FLAT:??_R1A@?0A@EA@CDialog@@8
	DD	FLAT:??_R1A@?0A@EA@CWnd@@8
	DD	FLAT:??_R1A@?0A@EA@CCmdTarget@@8
	DD	FLAT:??_R1A@?0A@EA@CObject@@8
rdata$r	ENDS
;	COMDAT ??_R3CSetting_Common_Type_A@@8
rdata$r	SEGMENT
??_R3CSetting_Common_Type_A@@8 DD 00H			; CSetting_Common_Type_A::`RTTI Class Hierarchy Descriptor'
	DD	00H
	DD	06H
	DD	FLAT:??_R2CSetting_Common_Type_A@@8
rdata$r	ENDS
;	COMDAT ??_R0?AVCSetting_Common_Type_A@@@8
data$rs	SEGMENT
??_R0?AVCSetting_Common_Type_A@@@8 DD FLAT:??_7type_info@@6B@ ; CSetting_Common_Type_A `RTTI Type Descriptor'
	DD	00H
	DB	'.?AVCSetting_Common_Type_A@@', 00H
data$rs	ENDS
;	COMDAT ??_R4CSetting_Common_Type_A@@6B@
rdata$r	SEGMENT
??_R4CSetting_Common_Type_A@@6B@ DD 00H			; CSetting_Common_Type_A::`RTTI Complete Object Locator'
	DD	00H
	DD	00H
	DD	FLAT:??_R0?AVCSetting_Common_Type_A@@@8
	DD	FLAT:??_R3CSetting_Common_Type_A@@8
rdata$r	ENDS
;	COMDAT ??_C@_0CI@DCNEOPPA@?$MA?T?$LH?B?$LF?H?5?$LJ?$KO?$MA?Z?$LP?$KN?$MA?L?5?$LO?K?$LI?B?$MA?$LK?5?A?x?$LJ?$PN?$MA?L?5?$LO@
CONST	SEGMENT
??_C@_0CI@DCNEOPPA@?$MA?T?$LH?B?$LF?H?5?$LJ?$KO?$MA?Z?$LP?$KN?$MA?L?5?$LO?K?$LI?B?$MA?$LK?5?A?x?$LJ?$PN?$MA?L?5?$LO@ DB 0c0H
	DB	0d4H, 0b7H, 0c2H, 0b5H, 0c8H, ' ', 0b9H, 0aeH, 0c0H, 0daH, 0bfH
	DB	0adH, 0c0H, 0ccH, ' ', 0beH, 0cbH, 0b8H, 0c2H, 0c0H, 0baH, ' ', 0c1H
	DB	0f8H, 0b9H, 0fdH, 0c0H, 0ccH, ' ', 0beH, 0c6H, 0b4H, 0d5H, 0b4H
	DB	0cfH, 0b4H, 0d9H, '.', 00H			; `string'
CONST	ENDS
;	COMDAT ??_C@_01IHBHIGKO@?0@
CONST	SEGMENT
??_C@_01IHBHIGKO@?0@ DB ',', 00H			; `string'
CONST	ENDS
;	COMDAT ?messageMap@?1??GetThisMessageMap@CSetting_Common_Type_A@@KGPBUAFX_MSGMAP@@XZ@4U3@B
CONST	SEGMENT
?messageMap@?1??GetThisMessageMap@CSetting_Common_Type_A@@KGPBUAFX_MSGMAP@@XZ@4U3@B DD FLAT:?GetThisMessageMap@CDialog@@KGPBUAFX_MSGMAP@@XZ ; `CSetting_Common_Type_A::GetThisMessageMap'::`2'::messageMap
	DD	FLAT:?_messageEntries@?1??GetThisMessageMap@CSetting_Common_Type_A@@KGPBUAFX_MSGMAP@@XZ@4QBUAFX_MSGMAP_ENTRY@@B
CONST	ENDS
;	COMDAT ?_messageEntries@?1??GetThisMessageMap@CSetting_Common_Type_A@@KGPBUAFX_MSGMAP@@XZ@4QBUAFX_MSGMAP_ENTRY@@B
CONST	SEGMENT
?_messageEntries@?1??GetThisMessageMap@CSetting_Common_Type_A@@KGPBUAFX_MSGMAP@@XZ@4QBUAFX_MSGMAP_ENTRY@@B DD 0111H ; `CSetting_Common_Type_A::GetThisMessageMap'::`2'::_messageEntries
	DD	00H
	DD	017b5H
	DD	017b5H
	DD	03aH
	DD	FLAT:?OnBtnCompositionColor@CSetting_Common_Type_A@@IAEXXZ
	DD	04eH
	DD	0ff9bH
	DD	017d5H
	DD	017d5H
	DD	03eH
	DD	FLAT:?OnItemchangedListComposition@CSetting_Common_Type_A@@IAEXPAUtagNMHDR@@PAJ@Z
	DD	04eH
	DD	0fffeH
	DD	017d5H
	DD	017d5H
	DD	03eH
	DD	FLAT:?OnClickListComposition@CSetting_Common_Type_A@@IAEXPAUtagNMHDR@@PAJ@Z
	DD	0111H
	DD	01H
	DD	017b7H
	DD	017b7H
	DD	03aH
	DD	FLAT:?OnSelchangeCmbLinetype@CSetting_Common_Type_A@@IAEXXZ
	DD	0111H
	DD	01H
	DD	017b6H
	DD	017b6H
	DD	03aH
	DD	FLAT:?OnSelchangeCmbThickness@CSetting_Common_Type_A@@IAEXXZ
	DD	0111H
	DD	00H
	DD	03efH
	DD	03efH
	DD	03aH
	DD	FLAT:?OnInsert@CSetting_Common_Type_A@@IAEXXZ
	DD	0111H
	DD	00H
	DD	03f0H
	DD	03f0H
	DD	03aH
	DD	FLAT:?OnDelete@CSetting_Common_Type_A@@IAEXXZ
	DD	0111H
	DD	00H
	DD	03f1H
	DD	03f1H
	DD	03aH
	DD	FLAT:?OnAlldelete@CSetting_Common_Type_A@@IAEXXZ
	DD	0111H
	DD	00H
	DD	040eH
	DD	040eH
	DD	03aH
	DD	FLAT:?OnColorButton@CSetting_Common_Type_A@@IAEXXZ
	DD	0111H
	DD	00H
	DD	017fcH
	DD	017fcH
	DD	03aH
	DD	FLAT:?OnBtnUpColor@CSetting_Common_Type_A@@IAEXXZ
	DD	0111H
	DD	00H
	DD	017fdH
	DD	017fdH
	DD	03aH
	DD	FLAT:?OnBtnDownColor@CSetting_Common_Type_A@@IAEXXZ
	DD	0111H
	DD	00H
	DD	017feH
	DD	017feH
	DD	03aH
	DD	FLAT:?OnBtnSteadyColor@CSetting_Common_Type_A@@IAEXXZ
	DD	0111H
	DD	00H
	DD	017ffH
	DD	017ffH
	DD	03aH
	DD	FLAT:?OnBtnUp1@CSetting_Common_Type_A@@IAEXXZ
	DD	0111H
	DD	00H
	DD	01800H
	DD	01800H
	DD	03aH
	DD	FLAT:?OnBtnDown1@CSetting_Common_Type_A@@IAEXXZ
	DD	0111H
	DD	00H
	DD	0180bH
	DD	0180bH
	DD	03aH
	DD	FLAT:?OnChkFillColor@CSetting_Common_Type_A@@IAEXXZ
	DD	0111H
	DD	01H
	DD	017b9H
	DD	017b9H
	DD	03aH
	DD	FLAT:?OnSelchangeCmbThickness2@CSetting_Common_Type_A@@IAEXXZ
	DD	0111H
	DD	01H
	DD	017baH
	DD	017baH
	DD	03aH
	DD	FLAT:?OnSelchangeCmbLinetype2@CSetting_Common_Type_A@@IAEXXZ
	DD	0111H
	DD	01H
	DD	03f4H
	DD	03f4H
	DD	03aH
	DD	FLAT:?OnSelchangeHorizontalList@CSetting_Common_Type_A@@IAEXXZ
	DD	00H
	DD	00H
	DD	00H
	DD	00H
	DD	00H
	DD	00H
CONST	ENDS
;	COMDAT ??_7CSetting_Common_Type_A@@6B@
CONST	SEGMENT
??_7CSetting_Common_Type_A@@6B@ DD FLAT:??_R4CSetting_Common_Type_A@@6B@ ; CSetting_Common_Type_A::`vftable'
	DD	FLAT:?GetRuntimeClass@CDialog@@UBEPAUCRuntimeClass@@XZ
	DD	FLAT:??_ECSetting_Common_Type_A@@UAEPAXI@Z
	DD	FLAT:?Serialize@CObject@@UAEXAAVCArchive@@@Z
	DD	FLAT:?AssertValid@CObject@@UBEXXZ
	DD	FLAT:?Dump@CObject@@UBEXAAVCDumpContext@@@Z
	DD	FLAT:?OnCmdMsg@CDialog@@UAEHIHPAXPAUAFX_CMDHANDLERINFO@@@Z
	DD	FLAT:?OnFinalRelease@CWnd@@UAEXXZ
	DD	FLAT:?IsInvokeAllowed@CCmdTarget@@UAEHJ@Z
	DD	FLAT:?GetDispatchIID@CCmdTarget@@UAEHPAU_GUID@@@Z
	DD	FLAT:?GetTypeInfoCount@CCmdTarget@@UAEIXZ
	DD	FLAT:?GetTypeLibCache@CCmdTarget@@UAEPAVCTypeLibCache@@XZ
	DD	FLAT:?GetTypeLib@CCmdTarget@@UAEJKPAPAUITypeLib@@@Z
	DD	FLAT:?GetMessageMap@CSetting_Common_Type_A@@MBEPBUAFX_MSGMAP@@XZ
	DD	FLAT:?GetCommandMap@CCmdTarget@@MBEPBUAFX_OLECMDMAP@@XZ
	DD	FLAT:?GetDispatchMap@CCmdTarget@@MBEPBUAFX_DISPMAP@@XZ
	DD	FLAT:?GetConnectionMap@CCmdTarget@@MBEPBUAFX_CONNECTIONMAP@@XZ
	DD	FLAT:?GetInterfaceMap@CWnd@@MBEPBUAFX_INTERFACEMAP@@XZ
	DD	FLAT:?GetEventSinkMap@CCmdTarget@@MBEPBUAFX_EVENTSINKMAP@@XZ
	DD	FLAT:?OnCreateAggregates@CCmdTarget@@UAEHXZ
	DD	FLAT:?GetInterfaceHook@CCmdTarget@@UAEPAUIUnknown@@PBX@Z
	DD	FLAT:?GetExtraConnectionPoints@CCmdTarget@@MAEHPAVCPtrArray@@@Z
	DD	FLAT:?GetConnectionHook@CCmdTarget@@MAEPAUIConnectionPoint@@ABU_GUID@@@Z
	DD	FLAT:?PreSubclassWindow@CWnd@@UAEXXZ
	DD	FLAT:?Create@CWnd@@UAEHPBD0KABUtagRECT@@PAV1@IPAUCCreateContext@@@Z
	DD	FLAT:?CreateEx@CWnd@@UAEHKPBD0KABUtagRECT@@PAV1@IPAX@Z
	DD	FLAT:?CreateEx@CWnd@@UAEHKPBD0KHHHHPAUHWND__@@PAUHMENU__@@PAX@Z
	DD	FLAT:?DestroyWindow@CWnd@@UAEHXZ
	DD	FLAT:?PreCreateWindow@CWnd@@UAEHAAUtagCREATESTRUCTA@@@Z
	DD	FLAT:?CalcWindowRect@CWnd@@UAEXPAUtagRECT@@I@Z
	DD	FLAT:?GetMenu@CWnd@@UBEPAVCMenu@@XZ
	DD	FLAT:?SetMenu@CWnd@@UAEHPAVCMenu@@@Z
	DD	FLAT:?OnToolHitTest@CWnd@@UBEHVCPoint@@PAUtagTOOLINFOA@@@Z
	DD	FLAT:?GetScrollBarCtrl@CWnd@@UBEPAVCScrollBar@@H@Z
	DD	FLAT:?WinHelpA@CWnd@@UAEXKI@Z
	DD	FLAT:?HtmlHelpA@CWnd@@UAEXKI@Z
	DD	FLAT:?WinHelpInternal@CWnd@@UAEXKI@Z
	DD	FLAT:?ContinueModal@CWnd@@UAEHXZ
	DD	FLAT:?EndModalLoop@CWnd@@UAEXH@Z
	DD	FLAT:?OnDrawIconicThumbnailOrLivePreview@CWnd@@UAEXAAVCDC@@VCRect@@VCSize@@HAAH@Z
	DD	FLAT:?EnsureStdObj@CWnd@@UAEJXZ
	DD	FLAT:?get_accParent@CWnd@@UAEJPAPAUIDispatch@@@Z
	DD	FLAT:?get_accChildCount@CWnd@@UAEJPAJ@Z
	DD	FLAT:?get_accChild@CWnd@@UAEJUtagVARIANT@@PAPAUIDispatch@@@Z
	DD	FLAT:?get_accName@CWnd@@UAEJUtagVARIANT@@PAPA_W@Z
	DD	FLAT:?get_accValue@CWnd@@UAEJUtagVARIANT@@PAPA_W@Z
	DD	FLAT:?get_accDescription@CWnd@@UAEJUtagVARIANT@@PAPA_W@Z
	DD	FLAT:?get_accRole@CWnd@@UAEJUtagVARIANT@@PAU2@@Z
	DD	FLAT:?get_accState@CWnd@@UAEJUtagVARIANT@@PAU2@@Z
	DD	FLAT:?get_accHelp@CWnd@@UAEJUtagVARIANT@@PAPA_W@Z
	DD	FLAT:?get_accHelpTopic@CWnd@@UAEJPAPA_WUtagVARIANT@@PAJ@Z
	DD	FLAT:?get_accKeyboardShortcut@CWnd@@UAEJUtagVARIANT@@PAPA_W@Z
	DD	FLAT:?get_accFocus@CWnd@@UAEJPAUtagVARIANT@@@Z
	DD	FLAT:?get_accSelection@CWnd@@UAEJPAUtagVARIANT@@@Z
	DD	FLAT:?get_accDefaultAction@CWnd@@UAEJUtagVARIANT@@PAPA_W@Z
	DD	FLAT:?accSelect@CWnd@@UAEJJUtagVARIANT@@@Z
	DD	FLAT:?accLocation@CWnd@@UAEJPAJ000UtagVARIANT@@@Z
	DD	FLAT:?accNavigate@CWnd@@UAEJJUtagVARIANT@@PAU2@@Z
	DD	FLAT:?accHitTest@CWnd@@UAEJJJPAUtagVARIANT@@@Z
	DD	FLAT:?accDoDefaultAction@CWnd@@UAEJUtagVARIANT@@@Z
	DD	FLAT:?put_accName@CWnd@@UAEJUtagVARIANT@@PA_W@Z
	DD	FLAT:?put_accValue@CWnd@@UAEJUtagVARIANT@@PA_W@Z
	DD	FLAT:?SetProxy@CWnd@@UAEJPAUIAccessibleProxy@@@Z
	DD	FLAT:?CreateAccessibleProxy@CWnd@@UAEJIJPAJ@Z
	DD	FLAT:?OnCommand@CWnd@@MAEHIJ@Z
	DD	FLAT:?OnNotify@CWnd@@MAEHIJPAJ@Z
	DD	FLAT:?GetSuperWndProcAddr@CWnd@@MAEPAP6GJPAUHWND__@@IIJ@ZXZ
	DD	FLAT:?DoDataExchange@CSetting_Common_Type_A@@MAEXPAVCDataExchange@@@Z
	DD	FLAT:?BeginModalState@CWnd@@UAEXXZ
	DD	FLAT:?EndModalState@CWnd@@UAEXXZ
	DD	FLAT:?PreTranslateMessage@CSetting_Common_Type_A@@UAEHPAUtagMSG@@@Z
	DD	FLAT:?OnAmbientProperty@CWnd@@UAEHPAVCOleControlSite@@JPAUtagVARIANT@@@Z
	DD	FLAT:?WindowProc@CWnd@@MAEJIIJ@Z
	DD	FLAT:?OnWndMsg@CWnd@@MAEHIIJPAJ@Z
	DD	FLAT:?DefWindowProcA@CWnd@@MAEJIIJ@Z
	DD	FLAT:?PostNcDestroy@CWnd@@MAEXXZ
	DD	FLAT:?OnChildNotify@CWnd@@MAEHIIJPAJ@Z
	DD	FLAT:?OnTouchInputs@CWnd@@MAEHIPAUtagTOUCHINPUT@@@Z
	DD	FLAT:?OnTouchInput@CWnd@@MAEHVCPoint@@HHPAUtagTOUCHINPUT@@@Z
	DD	FLAT:?GetGestureStatus@CWnd@@MAEKVCPoint@@@Z
	DD	FLAT:?OnGestureZoom@CWnd@@MAEHVCPoint@@J@Z
	DD	FLAT:?OnGesturePan@CWnd@@MAEHVCPoint@@0@Z
	DD	FLAT:?OnGestureRotate@CWnd@@MAEHVCPoint@@N@Z
	DD	FLAT:?OnGestureTwoFingerTap@CWnd@@MAEHVCPoint@@@Z
	DD	FLAT:?OnGesturePressAndTap@CWnd@@MAEHVCPoint@@J@Z
	DD	FLAT:?ResizeDynamicLayout@CWnd@@MAEXXZ
	DD	FLAT:?CheckAutoCenter@CDialog@@UAEHXZ
	DD	FLAT:?IsFrameWnd@CWnd@@UBEHXZ
	DD	FLAT:?CreateControlContainer@CWnd@@MAEHPAPAVCOleControlContainer@@@Z
	DD	FLAT:?CreateControlSite@CWnd@@MAEHPAVCOleControlContainer@@PAPAVCOleControlSite@@IABU_GUID@@@Z
	DD	FLAT:?SetOccDialogInfo@CDialog@@MAEHPAU_AFX_OCC_DIALOG_INFO@@@Z
	DD	FLAT:?GetOccDialogInfo@CDialog@@MAEPAU_AFX_OCC_DIALOG_INFO@@XZ
	DD	FLAT:?Create@CDialog@@UAEHIPAVCWnd@@@Z
	DD	FLAT:?Create@CDialog@@UAEHPBDPAVCWnd@@@Z
	DD	FLAT:?CreateIndirect@CDialog@@UAEHPAXPAVCWnd@@@Z
	DD	FLAT:?CreateIndirect@CDialog@@UAEHPBUDLGTEMPLATE@@PAVCWnd@@PAX@Z
	DD	FLAT:?DoModal@CDialog@@UAEHXZ
	DD	FLAT:?OnInitDialog@CSetting_Common_Type_A@@MAEHXZ
	DD	FLAT:?OnSetFont@CDialog@@UAEXPAVCFont@@@Z
	DD	FLAT:?OnOK@CDialog@@MAEXXZ
	DD	FLAT:?OnCancel@CDialog@@MAEXXZ
	DD	FLAT:?PreInitDialog@CDialog@@MAEXXZ
	DD	FLAT:?Initial@CSetting_Common_Type_A@@UAEXPAUIGraphInfo135914@@@Z
	DD	FLAT:?OnApply@CSetting_Common_Type_A@@UAEHPAUIGraphInfo135914@@@Z
	DD	FLAT:?SetTitle@CBaseDialog@@UAEXHABV?$CStringT@DV?$StrTraitMFC_DLL@DV?$ChTraitsCRT@D@ATL@@@@@ATL@@@Z
	DD	FLAT:?DoCalculate@CBaseDialog@@UAE_NXZ
CONST	ENDS
;	COMDAT ??_R1A@?0A@EA@CListCtrl@@8
rdata$r	SEGMENT
??_R1A@?0A@EA@CListCtrl@@8 DD FLAT:??_R0?AVCListCtrl@@@8 ; CListCtrl::`RTTI Base Class Descriptor at (0,-1,0,64)'
	DD	03H
	DD	00H
	DD	0ffffffffH
	DD	00H
	DD	040H
	DD	FLAT:??_R3CListCtrl@@8
rdata$r	ENDS
;	COMDAT ??_R2CListCtrl@@8
rdata$r	SEGMENT
??_R2CListCtrl@@8 DD FLAT:??_R1A@?0A@EA@CListCtrl@@8	; CListCtrl::`RTTI Base Class Array'
	DD	FLAT:??_R1A@?0A@EA@CWnd@@8
	DD	FLAT:??_R1A@?0A@EA@CCmdTarget@@8
	DD	FLAT:??_R1A@?0A@EA@CObject@@8
rdata$r	ENDS
;	COMDAT ??_R3CListCtrl@@8
rdata$r	SEGMENT
??_R3CListCtrl@@8 DD 00H				; CListCtrl::`RTTI Class Hierarchy Descriptor'
	DD	00H
	DD	04H
	DD	FLAT:??_R2CListCtrl@@8
rdata$r	ENDS
;	COMDAT ??_R0?AVCListCtrl@@@8
data$rs	SEGMENT
??_R0?AVCListCtrl@@@8 DD FLAT:??_7type_info@@6B@	; CListCtrl `RTTI Type Descriptor'
	DD	00H
	DB	'.?AVCListCtrl@@', 00H
data$rs	ENDS
;	COMDAT ??_R4CListCtrl@@6B@
rdata$r	SEGMENT
??_R4CListCtrl@@6B@ DD 00H				; CListCtrl::`RTTI Complete Object Locator'
	DD	00H
	DD	00H
	DD	FLAT:??_R0?AVCListCtrl@@@8
	DD	FLAT:??_R3CListCtrl@@8
rdata$r	ENDS
;	COMDAT ??_R2CDialog@@8
rdata$r	SEGMENT
??_R2CDialog@@8 DD FLAT:??_R1A@?0A@EA@CDialog@@8	; CDialog::`RTTI Base Class Array'
	DD	FLAT:??_R1A@?0A@EA@CWnd@@8
	DD	FLAT:??_R1A@?0A@EA@CCmdTarget@@8
	DD	FLAT:??_R1A@?0A@EA@CObject@@8
rdata$r	ENDS
;	COMDAT ??_R3CDialog@@8
rdata$r	SEGMENT
??_R3CDialog@@8 DD 00H					; CDialog::`RTTI Class Hierarchy Descriptor'
	DD	00H
	DD	04H
	DD	FLAT:??_R2CDialog@@8
rdata$r	ENDS
;	COMDAT ??_R0?AVCDialog@@@8
data$rs	SEGMENT
??_R0?AVCDialog@@@8 DD FLAT:??_7type_info@@6B@		; CDialog `RTTI Type Descriptor'
	DD	00H
	DB	'.?AVCDialog@@', 00H
data$rs	ENDS
;	COMDAT ??_R1A@?0A@EA@CDialog@@8
rdata$r	SEGMENT
??_R1A@?0A@EA@CDialog@@8 DD FLAT:??_R0?AVCDialog@@@8	; CDialog::`RTTI Base Class Descriptor at (0,-1,0,64)'
	DD	03H
	DD	00H
	DD	0ffffffffH
	DD	00H
	DD	040H
	DD	FLAT:??_R3CDialog@@8
rdata$r	ENDS
;	COMDAT ??_R1A@?0A@EA@CCommonDialog@@8
rdata$r	SEGMENT
??_R1A@?0A@EA@CCommonDialog@@8 DD FLAT:??_R0?AVCCommonDialog@@@8 ; CCommonDialog::`RTTI Base Class Descriptor at (0,-1,0,64)'
	DD	04H
	DD	00H
	DD	0ffffffffH
	DD	00H
	DD	040H
	DD	FLAT:??_R3CCommonDialog@@8
rdata$r	ENDS
;	COMDAT ??_R2CCommonDialog@@8
rdata$r	SEGMENT
??_R2CCommonDialog@@8 DD FLAT:??_R1A@?0A@EA@CCommonDialog@@8 ; CCommonDialog::`RTTI Base Class Array'
	DD	FLAT:??_R1A@?0A@EA@CDialog@@8
	DD	FLAT:??_R1A@?0A@EA@CWnd@@8
	DD	FLAT:??_R1A@?0A@EA@CCmdTarget@@8
	DD	FLAT:??_R1A@?0A@EA@CObject@@8
rdata$r	ENDS
;	COMDAT ??_R3CCommonDialog@@8
rdata$r	SEGMENT
??_R3CCommonDialog@@8 DD 00H				; CCommonDialog::`RTTI Class Hierarchy Descriptor'
	DD	00H
	DD	05H
	DD	FLAT:??_R2CCommonDialog@@8
rdata$r	ENDS
;	COMDAT ??_R0?AVCCommonDialog@@@8
data$rs	SEGMENT
??_R0?AVCCommonDialog@@@8 DD FLAT:??_7type_info@@6B@	; CCommonDialog `RTTI Type Descriptor'
	DD	00H
	DB	'.?AVCCommonDialog@@', 00H
data$rs	ENDS
;	COMDAT ??_R4CCommonDialog@@6B@
rdata$r	SEGMENT
??_R4CCommonDialog@@6B@ DD 00H				; CCommonDialog::`RTTI Complete Object Locator'
	DD	00H
	DD	00H
	DD	FLAT:??_R0?AVCCommonDialog@@@8
	DD	FLAT:??_R3CCommonDialog@@8
rdata$r	ENDS
;	COMDAT ??_R1A@?0A@EA@CEdit@@8
rdata$r	SEGMENT
??_R1A@?0A@EA@CEdit@@8 DD FLAT:??_R0?AVCEdit@@@8	; CEdit::`RTTI Base Class Descriptor at (0,-1,0,64)'
	DD	03H
	DD	00H
	DD	0ffffffffH
	DD	00H
	DD	040H
	DD	FLAT:??_R3CEdit@@8
rdata$r	ENDS
;	COMDAT ??_R2CEdit@@8
rdata$r	SEGMENT
??_R2CEdit@@8 DD FLAT:??_R1A@?0A@EA@CEdit@@8		; CEdit::`RTTI Base Class Array'
	DD	FLAT:??_R1A@?0A@EA@CWnd@@8
	DD	FLAT:??_R1A@?0A@EA@CCmdTarget@@8
	DD	FLAT:??_R1A@?0A@EA@CObject@@8
rdata$r	ENDS
;	COMDAT ??_R3CEdit@@8
rdata$r	SEGMENT
??_R3CEdit@@8 DD 00H					; CEdit::`RTTI Class Hierarchy Descriptor'
	DD	00H
	DD	04H
	DD	FLAT:??_R2CEdit@@8
rdata$r	ENDS
;	COMDAT ??_R0?AVCEdit@@@8
data$rs	SEGMENT
??_R0?AVCEdit@@@8 DD FLAT:??_7type_info@@6B@		; CEdit `RTTI Type Descriptor'
	DD	00H
	DB	'.?AVCEdit@@', 00H
data$rs	ENDS
;	COMDAT ??_R4CEdit@@6B@
rdata$r	SEGMENT
??_R4CEdit@@6B@ DD 00H					; CEdit::`RTTI Complete Object Locator'
	DD	00H
	DD	00H
	DD	FLAT:??_R0?AVCEdit@@@8
	DD	FLAT:??_R3CEdit@@8
rdata$r	ENDS
;	COMDAT ??_R1A@?0A@EA@CComboBox@@8
rdata$r	SEGMENT
??_R1A@?0A@EA@CComboBox@@8 DD FLAT:??_R0?AVCComboBox@@@8 ; CComboBox::`RTTI Base Class Descriptor at (0,-1,0,64)'
	DD	03H
	DD	00H
	DD	0ffffffffH
	DD	00H
	DD	040H
	DD	FLAT:??_R3CComboBox@@8
rdata$r	ENDS
;	COMDAT ??_R2CComboBox@@8
rdata$r	SEGMENT
??_R2CComboBox@@8 DD FLAT:??_R1A@?0A@EA@CComboBox@@8	; CComboBox::`RTTI Base Class Array'
	DD	FLAT:??_R1A@?0A@EA@CWnd@@8
	DD	FLAT:??_R1A@?0A@EA@CCmdTarget@@8
	DD	FLAT:??_R1A@?0A@EA@CObject@@8
rdata$r	ENDS
;	COMDAT ??_R3CComboBox@@8
rdata$r	SEGMENT
??_R3CComboBox@@8 DD 00H				; CComboBox::`RTTI Class Hierarchy Descriptor'
	DD	00H
	DD	04H
	DD	FLAT:??_R2CComboBox@@8
rdata$r	ENDS
;	COMDAT ??_R0?AVCComboBox@@@8
data$rs	SEGMENT
??_R0?AVCComboBox@@@8 DD FLAT:??_7type_info@@6B@	; CComboBox `RTTI Type Descriptor'
	DD	00H
	DB	'.?AVCComboBox@@', 00H
data$rs	ENDS
;	COMDAT ??_R4CComboBox@@6B@
rdata$r	SEGMENT
??_R4CComboBox@@6B@ DD 00H				; CComboBox::`RTTI Complete Object Locator'
	DD	00H
	DD	00H
	DD	FLAT:??_R0?AVCComboBox@@@8
	DD	FLAT:??_R3CComboBox@@8
rdata$r	ENDS
;	COMDAT ??_R1A@?0A@EA@CButton@@8
rdata$r	SEGMENT
??_R1A@?0A@EA@CButton@@8 DD FLAT:??_R0?AVCButton@@@8	; CButton::`RTTI Base Class Descriptor at (0,-1,0,64)'
	DD	03H
	DD	00H
	DD	0ffffffffH
	DD	00H
	DD	040H
	DD	FLAT:??_R3CButton@@8
rdata$r	ENDS
;	COMDAT ??_R2CButton@@8
rdata$r	SEGMENT
??_R2CButton@@8 DD FLAT:??_R1A@?0A@EA@CButton@@8	; CButton::`RTTI Base Class Array'
	DD	FLAT:??_R1A@?0A@EA@CWnd@@8
	DD	FLAT:??_R1A@?0A@EA@CCmdTarget@@8
	DD	FLAT:??_R1A@?0A@EA@CObject@@8
rdata$r	ENDS
;	COMDAT ??_R3CButton@@8
rdata$r	SEGMENT
??_R3CButton@@8 DD 00H					; CButton::`RTTI Class Hierarchy Descriptor'
	DD	00H
	DD	04H
	DD	FLAT:??_R2CButton@@8
rdata$r	ENDS
;	COMDAT ??_R0?AVCButton@@@8
data$rs	SEGMENT
??_R0?AVCButton@@@8 DD FLAT:??_7type_info@@6B@		; CButton `RTTI Type Descriptor'
	DD	00H
	DB	'.?AVCButton@@', 00H
data$rs	ENDS
;	COMDAT ??_R4CButton@@6B@
rdata$r	SEGMENT
??_R4CButton@@6B@ DD 00H				; CButton::`RTTI Complete Object Locator'
	DD	00H
	DD	00H
	DD	FLAT:??_R0?AVCButton@@@8
	DD	FLAT:??_R3CButton@@8
rdata$r	ENDS
;	COMDAT ??_R2CCmdTarget@@8
rdata$r	SEGMENT
??_R2CCmdTarget@@8 DD FLAT:??_R1A@?0A@EA@CCmdTarget@@8	; CCmdTarget::`RTTI Base Class Array'
	DD	FLAT:??_R1A@?0A@EA@CObject@@8
rdata$r	ENDS
;	COMDAT ??_R3CCmdTarget@@8
rdata$r	SEGMENT
??_R3CCmdTarget@@8 DD 00H				; CCmdTarget::`RTTI Class Hierarchy Descriptor'
	DD	00H
	DD	02H
	DD	FLAT:??_R2CCmdTarget@@8
rdata$r	ENDS
;	COMDAT ??_R0?AVCCmdTarget@@@8
data$rs	SEGMENT
??_R0?AVCCmdTarget@@@8 DD FLAT:??_7type_info@@6B@	; CCmdTarget `RTTI Type Descriptor'
	DD	00H
	DB	'.?AVCCmdTarget@@', 00H
data$rs	ENDS
;	COMDAT ??_R1A@?0A@EA@CCmdTarget@@8
rdata$r	SEGMENT
??_R1A@?0A@EA@CCmdTarget@@8 DD FLAT:??_R0?AVCCmdTarget@@@8 ; CCmdTarget::`RTTI Base Class Descriptor at (0,-1,0,64)'
	DD	01H
	DD	00H
	DD	0ffffffffH
	DD	00H
	DD	040H
	DD	FLAT:??_R3CCmdTarget@@8
rdata$r	ENDS
;	COMDAT ??_R2CWnd@@8
rdata$r	SEGMENT
??_R2CWnd@@8 DD	FLAT:??_R1A@?0A@EA@CWnd@@8		; CWnd::`RTTI Base Class Array'
	DD	FLAT:??_R1A@?0A@EA@CCmdTarget@@8
	DD	FLAT:??_R1A@?0A@EA@CObject@@8
rdata$r	ENDS
;	COMDAT ??_R3CWnd@@8
rdata$r	SEGMENT
??_R3CWnd@@8 DD	00H					; CWnd::`RTTI Class Hierarchy Descriptor'
	DD	00H
	DD	03H
	DD	FLAT:??_R2CWnd@@8
rdata$r	ENDS
;	COMDAT ??_R0?AVCWnd@@@8
data$rs	SEGMENT
??_R0?AVCWnd@@@8 DD FLAT:??_7type_info@@6B@		; CWnd `RTTI Type Descriptor'
	DD	00H
	DB	'.?AVCWnd@@', 00H
data$rs	ENDS
;	COMDAT ??_R1A@?0A@EA@CWnd@@8
rdata$r	SEGMENT
??_R1A@?0A@EA@CWnd@@8 DD FLAT:??_R0?AVCWnd@@@8		; CWnd::`RTTI Base Class Descriptor at (0,-1,0,64)'
	DD	02H
	DD	00H
	DD	0ffffffffH
	DD	00H
	DD	040H
	DD	FLAT:??_R3CWnd@@8
rdata$r	ENDS
;	COMDAT ??_R1A@?0A@EA@CStatic@@8
rdata$r	SEGMENT
??_R1A@?0A@EA@CStatic@@8 DD FLAT:??_R0?AVCStatic@@@8	; CStatic::`RTTI Base Class Descriptor at (0,-1,0,64)'
	DD	03H
	DD	00H
	DD	0ffffffffH
	DD	00H
	DD	040H
	DD	FLAT:??_R3CStatic@@8
rdata$r	ENDS
;	COMDAT ??_R2CStatic@@8
rdata$r	SEGMENT
??_R2CStatic@@8 DD FLAT:??_R1A@?0A@EA@CStatic@@8	; CStatic::`RTTI Base Class Array'
	DD	FLAT:??_R1A@?0A@EA@CWnd@@8
	DD	FLAT:??_R1A@?0A@EA@CCmdTarget@@8
	DD	FLAT:??_R1A@?0A@EA@CObject@@8
rdata$r	ENDS
;	COMDAT ??_R3CStatic@@8
rdata$r	SEGMENT
??_R3CStatic@@8 DD 00H					; CStatic::`RTTI Class Hierarchy Descriptor'
	DD	00H
	DD	04H
	DD	FLAT:??_R2CStatic@@8
rdata$r	ENDS
;	COMDAT ??_R0?AVCStatic@@@8
data$rs	SEGMENT
??_R0?AVCStatic@@@8 DD FLAT:??_7type_info@@6B@		; CStatic `RTTI Type Descriptor'
	DD	00H
	DB	'.?AVCStatic@@', 00H
data$rs	ENDS
;	COMDAT ??_R4CStatic@@6B@
rdata$r	SEGMENT
??_R4CStatic@@6B@ DD 00H				; CStatic::`RTTI Complete Object Locator'
	DD	00H
	DD	00H
	DD	FLAT:??_R0?AVCStatic@@@8
	DD	FLAT:??_R3CStatic@@8
rdata$r	ENDS
;	COMDAT ??_R1A@?0A@EA@CObject@@8
rdata$r	SEGMENT
??_R1A@?0A@EA@CObject@@8 DD FLAT:??_R0?AVCObject@@@8	; CObject::`RTTI Base Class Descriptor at (0,-1,0,64)'
	DD	00H
	DD	00H
	DD	0ffffffffH
	DD	00H
	DD	040H
	DD	FLAT:??_R3CObject@@8
rdata$r	ENDS
;	COMDAT ??_R2CObject@@8
rdata$r	SEGMENT
??_R2CObject@@8 DD FLAT:??_R1A@?0A@EA@CObject@@8	; CObject::`RTTI Base Class Array'
rdata$r	ENDS
;	COMDAT ??_R3CObject@@8
rdata$r	SEGMENT
??_R3CObject@@8 DD 00H					; CObject::`RTTI Class Hierarchy Descriptor'
	DD	00H
	DD	01H
	DD	FLAT:??_R2CObject@@8
rdata$r	ENDS
;	COMDAT ??_R0?AVCObject@@@8
data$rs	SEGMENT
??_R0?AVCObject@@@8 DD FLAT:??_7type_info@@6B@		; CObject `RTTI Type Descriptor'
	DD	00H
	DB	'.?AVCObject@@', 00H
data$rs	ENDS
;	COMDAT ??_7CListCtrl@@6B@
CONST	SEGMENT
??_7CListCtrl@@6B@ DD FLAT:??_R4CListCtrl@@6B@		; CListCtrl::`vftable'
	DD	FLAT:?GetRuntimeClass@CListCtrl@@UBEPAUCRuntimeClass@@XZ
	DD	FLAT:??_ECListCtrl@@UAEPAXI@Z
	DD	FLAT:?Serialize@CObject@@UAEXAAVCArchive@@@Z
	DD	FLAT:?AssertValid@CObject@@UBEXXZ
	DD	FLAT:?Dump@CObject@@UBEXAAVCDumpContext@@@Z
	DD	FLAT:?OnCmdMsg@CCmdTarget@@UAEHIHPAXPAUAFX_CMDHANDLERINFO@@@Z
	DD	FLAT:?OnFinalRelease@CWnd@@UAEXXZ
	DD	FLAT:?IsInvokeAllowed@CCmdTarget@@UAEHJ@Z
	DD	FLAT:?GetDispatchIID@CCmdTarget@@UAEHPAU_GUID@@@Z
	DD	FLAT:?GetTypeInfoCount@CCmdTarget@@UAEIXZ
	DD	FLAT:?GetTypeLibCache@CCmdTarget@@UAEPAVCTypeLibCache@@XZ
	DD	FLAT:?GetTypeLib@CCmdTarget@@UAEJKPAPAUITypeLib@@@Z
	DD	FLAT:?GetMessageMap@CListCtrl@@MBEPBUAFX_MSGMAP@@XZ
	DD	FLAT:?GetCommandMap@CCmdTarget@@MBEPBUAFX_OLECMDMAP@@XZ
	DD	FLAT:?GetDispatchMap@CCmdTarget@@MBEPBUAFX_DISPMAP@@XZ
	DD	FLAT:?GetConnectionMap@CCmdTarget@@MBEPBUAFX_CONNECTIONMAP@@XZ
	DD	FLAT:?GetInterfaceMap@CWnd@@MBEPBUAFX_INTERFACEMAP@@XZ
	DD	FLAT:?GetEventSinkMap@CCmdTarget@@MBEPBUAFX_EVENTSINKMAP@@XZ
	DD	FLAT:?OnCreateAggregates@CCmdTarget@@UAEHXZ
	DD	FLAT:?GetInterfaceHook@CCmdTarget@@UAEPAUIUnknown@@PBX@Z
	DD	FLAT:?GetExtraConnectionPoints@CCmdTarget@@MAEHPAVCPtrArray@@@Z
	DD	FLAT:?GetConnectionHook@CCmdTarget@@MAEPAUIConnectionPoint@@ABU_GUID@@@Z
	DD	FLAT:?PreSubclassWindow@CWnd@@UAEXXZ
	DD	FLAT:?Create@CWnd@@UAEHPBD0KABUtagRECT@@PAV1@IPAUCCreateContext@@@Z
	DD	FLAT:?CreateEx@CWnd@@UAEHKPBD0KABUtagRECT@@PAV1@IPAX@Z
	DD	FLAT:?CreateEx@CWnd@@UAEHKPBD0KHHHHPAUHWND__@@PAUHMENU__@@PAX@Z
	DD	FLAT:?DestroyWindow@CWnd@@UAEHXZ
	DD	FLAT:?PreCreateWindow@CWnd@@UAEHAAUtagCREATESTRUCTA@@@Z
	DD	FLAT:?CalcWindowRect@CWnd@@UAEXPAUtagRECT@@I@Z
	DD	FLAT:?GetMenu@CWnd@@UBEPAVCMenu@@XZ
	DD	FLAT:?SetMenu@CWnd@@UAEHPAVCMenu@@@Z
	DD	FLAT:?OnToolHitTest@CWnd@@UBEHVCPoint@@PAUtagTOOLINFOA@@@Z
	DD	FLAT:?GetScrollBarCtrl@CWnd@@UBEPAVCScrollBar@@H@Z
	DD	FLAT:?WinHelpA@CWnd@@UAEXKI@Z
	DD	FLAT:?HtmlHelpA@CWnd@@UAEXKI@Z
	DD	FLAT:?WinHelpInternal@CWnd@@UAEXKI@Z
	DD	FLAT:?ContinueModal@CWnd@@UAEHXZ
	DD	FLAT:?EndModalLoop@CWnd@@UAEXH@Z
	DD	FLAT:?OnDrawIconicThumbnailOrLivePreview@CWnd@@UAEXAAVCDC@@VCRect@@VCSize@@HAAH@Z
	DD	FLAT:?EnsureStdObj@CWnd@@UAEJXZ
	DD	FLAT:?get_accParent@CWnd@@UAEJPAPAUIDispatch@@@Z
	DD	FLAT:?get_accChildCount@CWnd@@UAEJPAJ@Z
	DD	FLAT:?get_accChild@CWnd@@UAEJUtagVARIANT@@PAPAUIDispatch@@@Z
	DD	FLAT:?get_accName@CWnd@@UAEJUtagVARIANT@@PAPA_W@Z
	DD	FLAT:?get_accValue@CWnd@@UAEJUtagVARIANT@@PAPA_W@Z
	DD	FLAT:?get_accDescription@CWnd@@UAEJUtagVARIANT@@PAPA_W@Z
	DD	FLAT:?get_accRole@CWnd@@UAEJUtagVARIANT@@PAU2@@Z
	DD	FLAT:?get_accState@CWnd@@UAEJUtagVARIANT@@PAU2@@Z
	DD	FLAT:?get_accHelp@CWnd@@UAEJUtagVARIANT@@PAPA_W@Z
	DD	FLAT:?get_accHelpTopic@CWnd@@UAEJPAPA_WUtagVARIANT@@PAJ@Z
	DD	FLAT:?get_accKeyboardShortcut@CWnd@@UAEJUtagVARIANT@@PAPA_W@Z
	DD	FLAT:?get_accFocus@CWnd@@UAEJPAUtagVARIANT@@@Z
	DD	FLAT:?get_accSelection@CWnd@@UAEJPAUtagVARIANT@@@Z
	DD	FLAT:?get_accDefaultAction@CWnd@@UAEJUtagVARIANT@@PAPA_W@Z
	DD	FLAT:?accSelect@CWnd@@UAEJJUtagVARIANT@@@Z
	DD	FLAT:?accLocation@CWnd@@UAEJPAJ000UtagVARIANT@@@Z
	DD	FLAT:?accNavigate@CWnd@@UAEJJUtagVARIANT@@PAU2@@Z
	DD	FLAT:?accHitTest@CWnd@@UAEJJJPAUtagVARIANT@@@Z
	DD	FLAT:?accDoDefaultAction@CWnd@@UAEJUtagVARIANT@@@Z
	DD	FLAT:?put_accName@CWnd@@UAEJUtagVARIANT@@PA_W@Z
	DD	FLAT:?put_accValue@CWnd@@UAEJUtagVARIANT@@PA_W@Z
	DD	FLAT:?SetProxy@CWnd@@UAEJPAUIAccessibleProxy@@@Z
	DD	FLAT:?CreateAccessibleProxy@CWnd@@UAEJIJPAJ@Z
	DD	FLAT:?OnCommand@CWnd@@MAEHIJ@Z
	DD	FLAT:?OnNotify@CWnd@@MAEHIJPAJ@Z
	DD	FLAT:?GetSuperWndProcAddr@CWnd@@MAEPAP6GJPAUHWND__@@IIJ@ZXZ
	DD	FLAT:?DoDataExchange@CWnd@@MAEXPAVCDataExchange@@@Z
	DD	FLAT:?BeginModalState@CWnd@@UAEXXZ
	DD	FLAT:?EndModalState@CWnd@@UAEXXZ
	DD	FLAT:?PreTranslateMessage@CWnd@@UAEHPAUtagMSG@@@Z
	DD	FLAT:?OnAmbientProperty@CWnd@@UAEHPAVCOleControlSite@@JPAUtagVARIANT@@@Z
	DD	FLAT:?WindowProc@CWnd@@MAEJIIJ@Z
	DD	FLAT:?OnWndMsg@CWnd@@MAEHIIJPAJ@Z
	DD	FLAT:?DefWindowProcA@CWnd@@MAEJIIJ@Z
	DD	FLAT:?PostNcDestroy@CWnd@@MAEXXZ
	DD	FLAT:?OnChildNotify@CListCtrl@@MAEHIIJPAJ@Z
	DD	FLAT:?OnTouchInputs@CWnd@@MAEHIPAUtagTOUCHINPUT@@@Z
	DD	FLAT:?OnTouchInput@CWnd@@MAEHVCPoint@@HHPAUtagTOUCHINPUT@@@Z
	DD	FLAT:?GetGestureStatus@CWnd@@MAEKVCPoint@@@Z
	DD	FLAT:?OnGestureZoom@CWnd@@MAEHVCPoint@@J@Z
	DD	FLAT:?OnGesturePan@CWnd@@MAEHVCPoint@@0@Z
	DD	FLAT:?OnGestureRotate@CWnd@@MAEHVCPoint@@N@Z
	DD	FLAT:?OnGestureTwoFingerTap@CWnd@@MAEHVCPoint@@@Z
	DD	FLAT:?OnGesturePressAndTap@CWnd@@MAEHVCPoint@@J@Z
	DD	FLAT:?ResizeDynamicLayout@CWnd@@MAEXXZ
	DD	FLAT:?CheckAutoCenter@CWnd@@UAEHXZ
	DD	FLAT:?IsFrameWnd@CWnd@@UBEHXZ
	DD	FLAT:?CreateControlContainer@CWnd@@MAEHPAPAVCOleControlContainer@@@Z
	DD	FLAT:?CreateControlSite@CWnd@@MAEHPAVCOleControlContainer@@PAPAVCOleControlSite@@IABU_GUID@@@Z
	DD	FLAT:?SetOccDialogInfo@CWnd@@MAEHPAU_AFX_OCC_DIALOG_INFO@@@Z
	DD	FLAT:?GetOccDialogInfo@CWnd@@MAEPAU_AFX_OCC_DIALOG_INFO@@XZ
	DD	FLAT:?DrawItem@CListCtrl@@UAEXPAUtagDRAWITEMSTRUCT@@@Z
CONST	ENDS
;	COMDAT ??_7CCommonDialog@@6B@
CONST	SEGMENT
??_7CCommonDialog@@6B@ DD FLAT:??_R4CCommonDialog@@6B@	; CCommonDialog::`vftable'
	DD	FLAT:?GetRuntimeClass@CCommonDialog@@UBEPAUCRuntimeClass@@XZ
	DD	FLAT:??_ECCommonDialog@@UAEPAXI@Z
	DD	FLAT:?Serialize@CObject@@UAEXAAVCArchive@@@Z
	DD	FLAT:?AssertValid@CObject@@UBEXXZ
	DD	FLAT:?Dump@CObject@@UBEXAAVCDumpContext@@@Z
	DD	FLAT:?OnCmdMsg@CDialog@@UAEHIHPAXPAUAFX_CMDHANDLERINFO@@@Z
	DD	FLAT:?OnFinalRelease@CWnd@@UAEXXZ
	DD	FLAT:?IsInvokeAllowed@CCmdTarget@@UAEHJ@Z
	DD	FLAT:?GetDispatchIID@CCmdTarget@@UAEHPAU_GUID@@@Z
	DD	FLAT:?GetTypeInfoCount@CCmdTarget@@UAEIXZ
	DD	FLAT:?GetTypeLibCache@CCmdTarget@@UAEPAVCTypeLibCache@@XZ
	DD	FLAT:?GetTypeLib@CCmdTarget@@UAEJKPAPAUITypeLib@@@Z
	DD	FLAT:?GetMessageMap@CCommonDialog@@MBEPBUAFX_MSGMAP@@XZ
	DD	FLAT:?GetCommandMap@CCmdTarget@@MBEPBUAFX_OLECMDMAP@@XZ
	DD	FLAT:?GetDispatchMap@CCmdTarget@@MBEPBUAFX_DISPMAP@@XZ
	DD	FLAT:?GetConnectionMap@CCmdTarget@@MBEPBUAFX_CONNECTIONMAP@@XZ
	DD	FLAT:?GetInterfaceMap@CWnd@@MBEPBUAFX_INTERFACEMAP@@XZ
	DD	FLAT:?GetEventSinkMap@CCmdTarget@@MBEPBUAFX_EVENTSINKMAP@@XZ
	DD	FLAT:?OnCreateAggregates@CCmdTarget@@UAEHXZ
	DD	FLAT:?GetInterfaceHook@CCmdTarget@@UAEPAUIUnknown@@PBX@Z
	DD	FLAT:?GetExtraConnectionPoints@CCmdTarget@@MAEHPAVCPtrArray@@@Z
	DD	FLAT:?GetConnectionHook@CCmdTarget@@MAEPAUIConnectionPoint@@ABU_GUID@@@Z
	DD	FLAT:?PreSubclassWindow@CWnd@@UAEXXZ
	DD	FLAT:?Create@CWnd@@UAEHPBD0KABUtagRECT@@PAV1@IPAUCCreateContext@@@Z
	DD	FLAT:?CreateEx@CWnd@@UAEHKPBD0KABUtagRECT@@PAV1@IPAX@Z
	DD	FLAT:?CreateEx@CWnd@@UAEHKPBD0KHHHHPAUHWND__@@PAUHMENU__@@PAX@Z
	DD	FLAT:?DestroyWindow@CWnd@@UAEHXZ
	DD	FLAT:?PreCreateWindow@CWnd@@UAEHAAUtagCREATESTRUCTA@@@Z
	DD	FLAT:?CalcWindowRect@CWnd@@UAEXPAUtagRECT@@I@Z
	DD	FLAT:?GetMenu@CWnd@@UBEPAVCMenu@@XZ
	DD	FLAT:?SetMenu@CWnd@@UAEHPAVCMenu@@@Z
	DD	FLAT:?OnToolHitTest@CWnd@@UBEHVCPoint@@PAUtagTOOLINFOA@@@Z
	DD	FLAT:?GetScrollBarCtrl@CWnd@@UBEPAVCScrollBar@@H@Z
	DD	FLAT:?WinHelpA@CWnd@@UAEXKI@Z
	DD	FLAT:?HtmlHelpA@CWnd@@UAEXKI@Z
	DD	FLAT:?WinHelpInternal@CWnd@@UAEXKI@Z
	DD	FLAT:?ContinueModal@CWnd@@UAEHXZ
	DD	FLAT:?EndModalLoop@CWnd@@UAEXH@Z
	DD	FLAT:?OnDrawIconicThumbnailOrLivePreview@CWnd@@UAEXAAVCDC@@VCRect@@VCSize@@HAAH@Z
	DD	FLAT:?EnsureStdObj@CWnd@@UAEJXZ
	DD	FLAT:?get_accParent@CWnd@@UAEJPAPAUIDispatch@@@Z
	DD	FLAT:?get_accChildCount@CWnd@@UAEJPAJ@Z
	DD	FLAT:?get_accChild@CWnd@@UAEJUtagVARIANT@@PAPAUIDispatch@@@Z
	DD	FLAT:?get_accName@CWnd@@UAEJUtagVARIANT@@PAPA_W@Z
	DD	FLAT:?get_accValue@CWnd@@UAEJUtagVARIANT@@PAPA_W@Z
	DD	FLAT:?get_accDescription@CWnd@@UAEJUtagVARIANT@@PAPA_W@Z
	DD	FLAT:?get_accRole@CWnd@@UAEJUtagVARIANT@@PAU2@@Z
	DD	FLAT:?get_accState@CWnd@@UAEJUtagVARIANT@@PAU2@@Z
	DD	FLAT:?get_accHelp@CWnd@@UAEJUtagVARIANT@@PAPA_W@Z
	DD	FLAT:?get_accHelpTopic@CWnd@@UAEJPAPA_WUtagVARIANT@@PAJ@Z
	DD	FLAT:?get_accKeyboardShortcut@CWnd@@UAEJUtagVARIANT@@PAPA_W@Z
	DD	FLAT:?get_accFocus@CWnd@@UAEJPAUtagVARIANT@@@Z
	DD	FLAT:?get_accSelection@CWnd@@UAEJPAUtagVARIANT@@@Z
	DD	FLAT:?get_accDefaultAction@CWnd@@UAEJUtagVARIANT@@PAPA_W@Z
	DD	FLAT:?accSelect@CWnd@@UAEJJUtagVARIANT@@@Z
	DD	FLAT:?accLocation@CWnd@@UAEJPAJ000UtagVARIANT@@@Z
	DD	FLAT:?accNavigate@CWnd@@UAEJJUtagVARIANT@@PAU2@@Z
	DD	FLAT:?accHitTest@CWnd@@UAEJJJPAUtagVARIANT@@@Z
	DD	FLAT:?accDoDefaultAction@CWnd@@UAEJUtagVARIANT@@@Z
	DD	FLAT:?put_accName@CWnd@@UAEJUtagVARIANT@@PA_W@Z
	DD	FLAT:?put_accValue@CWnd@@UAEJUtagVARIANT@@PA_W@Z
	DD	FLAT:?SetProxy@CWnd@@UAEJPAUIAccessibleProxy@@@Z
	DD	FLAT:?CreateAccessibleProxy@CWnd@@UAEJIJPAJ@Z
	DD	FLAT:?OnCommand@CWnd@@MAEHIJ@Z
	DD	FLAT:?OnNotify@CWnd@@MAEHIJPAJ@Z
	DD	FLAT:?GetSuperWndProcAddr@CWnd@@MAEPAP6GJPAUHWND__@@IIJ@ZXZ
	DD	FLAT:?DoDataExchange@CWnd@@MAEXPAVCDataExchange@@@Z
	DD	FLAT:?BeginModalState@CWnd@@UAEXXZ
	DD	FLAT:?EndModalState@CWnd@@UAEXXZ
	DD	FLAT:?PreTranslateMessage@CDialog@@UAEHPAUtagMSG@@@Z
	DD	FLAT:?OnAmbientProperty@CWnd@@UAEHPAVCOleControlSite@@JPAUtagVARIANT@@@Z
	DD	FLAT:?WindowProc@CWnd@@MAEJIIJ@Z
	DD	FLAT:?OnWndMsg@CWnd@@MAEHIIJPAJ@Z
	DD	FLAT:?DefWindowProcA@CWnd@@MAEJIIJ@Z
	DD	FLAT:?PostNcDestroy@CWnd@@MAEXXZ
	DD	FLAT:?OnChildNotify@CWnd@@MAEHIIJPAJ@Z
	DD	FLAT:?OnTouchInputs@CWnd@@MAEHIPAUtagTOUCHINPUT@@@Z
	DD	FLAT:?OnTouchInput@CWnd@@MAEHVCPoint@@HHPAUtagTOUCHINPUT@@@Z
	DD	FLAT:?GetGestureStatus@CWnd@@MAEKVCPoint@@@Z
	DD	FLAT:?OnGestureZoom@CWnd@@MAEHVCPoint@@J@Z
	DD	FLAT:?OnGesturePan@CWnd@@MAEHVCPoint@@0@Z
	DD	FLAT:?OnGestureRotate@CWnd@@MAEHVCPoint@@N@Z
	DD	FLAT:?OnGestureTwoFingerTap@CWnd@@MAEHVCPoint@@@Z
	DD	FLAT:?OnGesturePressAndTap@CWnd@@MAEHVCPoint@@J@Z
	DD	FLAT:?ResizeDynamicLayout@CWnd@@MAEXXZ
	DD	FLAT:?CheckAutoCenter@CDialog@@UAEHXZ
	DD	FLAT:?IsFrameWnd@CWnd@@UBEHXZ
	DD	FLAT:?CreateControlContainer@CWnd@@MAEHPAPAVCOleControlContainer@@@Z
	DD	FLAT:?CreateControlSite@CWnd@@MAEHPAVCOleControlContainer@@PAPAVCOleControlSite@@IABU_GUID@@@Z
	DD	FLAT:?SetOccDialogInfo@CDialog@@MAEHPAU_AFX_OCC_DIALOG_INFO@@@Z
	DD	FLAT:?GetOccDialogInfo@CDialog@@MAEPAU_AFX_OCC_DIALOG_INFO@@XZ
	DD	FLAT:?Create@CDialog@@UAEHIPAVCWnd@@@Z
	DD	FLAT:?Create@CDialog@@UAEHPBDPAVCWnd@@@Z
	DD	FLAT:?CreateIndirect@CDialog@@UAEHPAXPAVCWnd@@@Z
	DD	FLAT:?CreateIndirect@CDialog@@UAEHPBUDLGTEMPLATE@@PAVCWnd@@PAX@Z
	DD	FLAT:?DoModal@CDialog@@UAEHXZ
	DD	FLAT:?OnInitDialog@CDialog@@UAEHXZ
	DD	FLAT:?OnSetFont@CDialog@@UAEXPAVCFont@@@Z
	DD	FLAT:?OnOK@CCommonDialog@@MAEXXZ
	DD	FLAT:?OnCancel@CCommonDialog@@MAEXXZ
	DD	FLAT:?PreInitDialog@CDialog@@MAEXXZ
CONST	ENDS
;	COMDAT ??_7CEdit@@6B@
CONST	SEGMENT
??_7CEdit@@6B@ DD FLAT:??_R4CEdit@@6B@			; CEdit::`vftable'
	DD	FLAT:?GetRuntimeClass@CEdit@@UBEPAUCRuntimeClass@@XZ
	DD	FLAT:??_ECEdit@@UAEPAXI@Z
	DD	FLAT:?Serialize@CObject@@UAEXAAVCArchive@@@Z
	DD	FLAT:?AssertValid@CObject@@UBEXXZ
	DD	FLAT:?Dump@CObject@@UBEXAAVCDumpContext@@@Z
	DD	FLAT:?OnCmdMsg@CCmdTarget@@UAEHIHPAXPAUAFX_CMDHANDLERINFO@@@Z
	DD	FLAT:?OnFinalRelease@CWnd@@UAEXXZ
	DD	FLAT:?IsInvokeAllowed@CCmdTarget@@UAEHJ@Z
	DD	FLAT:?GetDispatchIID@CCmdTarget@@UAEHPAU_GUID@@@Z
	DD	FLAT:?GetTypeInfoCount@CCmdTarget@@UAEIXZ
	DD	FLAT:?GetTypeLibCache@CCmdTarget@@UAEPAVCTypeLibCache@@XZ
	DD	FLAT:?GetTypeLib@CCmdTarget@@UAEJKPAPAUITypeLib@@@Z
	DD	FLAT:?GetMessageMap@CWnd@@MBEPBUAFX_MSGMAP@@XZ
	DD	FLAT:?GetCommandMap@CCmdTarget@@MBEPBUAFX_OLECMDMAP@@XZ
	DD	FLAT:?GetDispatchMap@CCmdTarget@@MBEPBUAFX_DISPMAP@@XZ
	DD	FLAT:?GetConnectionMap@CCmdTarget@@MBEPBUAFX_CONNECTIONMAP@@XZ
	DD	FLAT:?GetInterfaceMap@CWnd@@MBEPBUAFX_INTERFACEMAP@@XZ
	DD	FLAT:?GetEventSinkMap@CCmdTarget@@MBEPBUAFX_EVENTSINKMAP@@XZ
	DD	FLAT:?OnCreateAggregates@CCmdTarget@@UAEHXZ
	DD	FLAT:?GetInterfaceHook@CCmdTarget@@UAEPAUIUnknown@@PBX@Z
	DD	FLAT:?GetExtraConnectionPoints@CCmdTarget@@MAEHPAVCPtrArray@@@Z
	DD	FLAT:?GetConnectionHook@CCmdTarget@@MAEPAUIConnectionPoint@@ABU_GUID@@@Z
	DD	FLAT:?PreSubclassWindow@CWnd@@UAEXXZ
	DD	FLAT:?Create@CWnd@@UAEHPBD0KABUtagRECT@@PAV1@IPAUCCreateContext@@@Z
	DD	FLAT:?CreateEx@CWnd@@UAEHKPBD0KABUtagRECT@@PAV1@IPAX@Z
	DD	FLAT:?CreateEx@CWnd@@UAEHKPBD0KHHHHPAUHWND__@@PAUHMENU__@@PAX@Z
	DD	FLAT:?DestroyWindow@CWnd@@UAEHXZ
	DD	FLAT:?PreCreateWindow@CWnd@@UAEHAAUtagCREATESTRUCTA@@@Z
	DD	FLAT:?CalcWindowRect@CWnd@@UAEXPAUtagRECT@@I@Z
	DD	FLAT:?GetMenu@CWnd@@UBEPAVCMenu@@XZ
	DD	FLAT:?SetMenu@CWnd@@UAEHPAVCMenu@@@Z
	DD	FLAT:?OnToolHitTest@CWnd@@UBEHVCPoint@@PAUtagTOOLINFOA@@@Z
	DD	FLAT:?GetScrollBarCtrl@CWnd@@UBEPAVCScrollBar@@H@Z
	DD	FLAT:?WinHelpA@CWnd@@UAEXKI@Z
	DD	FLAT:?HtmlHelpA@CWnd@@UAEXKI@Z
	DD	FLAT:?WinHelpInternal@CWnd@@UAEXKI@Z
	DD	FLAT:?ContinueModal@CWnd@@UAEHXZ
	DD	FLAT:?EndModalLoop@CWnd@@UAEXH@Z
	DD	FLAT:?OnDrawIconicThumbnailOrLivePreview@CWnd@@UAEXAAVCDC@@VCRect@@VCSize@@HAAH@Z
	DD	FLAT:?EnsureStdObj@CWnd@@UAEJXZ
	DD	FLAT:?get_accParent@CWnd@@UAEJPAPAUIDispatch@@@Z
	DD	FLAT:?get_accChildCount@CWnd@@UAEJPAJ@Z
	DD	FLAT:?get_accChild@CWnd@@UAEJUtagVARIANT@@PAPAUIDispatch@@@Z
	DD	FLAT:?get_accName@CWnd@@UAEJUtagVARIANT@@PAPA_W@Z
	DD	FLAT:?get_accValue@CWnd@@UAEJUtagVARIANT@@PAPA_W@Z
	DD	FLAT:?get_accDescription@CWnd@@UAEJUtagVARIANT@@PAPA_W@Z
	DD	FLAT:?get_accRole@CWnd@@UAEJUtagVARIANT@@PAU2@@Z
	DD	FLAT:?get_accState@CWnd@@UAEJUtagVARIANT@@PAU2@@Z
	DD	FLAT:?get_accHelp@CWnd@@UAEJUtagVARIANT@@PAPA_W@Z
	DD	FLAT:?get_accHelpTopic@CWnd@@UAEJPAPA_WUtagVARIANT@@PAJ@Z
	DD	FLAT:?get_accKeyboardShortcut@CWnd@@UAEJUtagVARIANT@@PAPA_W@Z
	DD	FLAT:?get_accFocus@CWnd@@UAEJPAUtagVARIANT@@@Z
	DD	FLAT:?get_accSelection@CWnd@@UAEJPAUtagVARIANT@@@Z
	DD	FLAT:?get_accDefaultAction@CWnd@@UAEJUtagVARIANT@@PAPA_W@Z
	DD	FLAT:?accSelect@CWnd@@UAEJJUtagVARIANT@@@Z
	DD	FLAT:?accLocation@CWnd@@UAEJPAJ000UtagVARIANT@@@Z
	DD	FLAT:?accNavigate@CWnd@@UAEJJUtagVARIANT@@PAU2@@Z
	DD	FLAT:?accHitTest@CWnd@@UAEJJJPAUtagVARIANT@@@Z
	DD	FLAT:?accDoDefaultAction@CWnd@@UAEJUtagVARIANT@@@Z
	DD	FLAT:?put_accName@CWnd@@UAEJUtagVARIANT@@PA_W@Z
	DD	FLAT:?put_accValue@CWnd@@UAEJUtagVARIANT@@PA_W@Z
	DD	FLAT:?SetProxy@CWnd@@UAEJPAUIAccessibleProxy@@@Z
	DD	FLAT:?CreateAccessibleProxy@CWnd@@UAEJIJPAJ@Z
	DD	FLAT:?OnCommand@CWnd@@MAEHIJ@Z
	DD	FLAT:?OnNotify@CWnd@@MAEHIJPAJ@Z
	DD	FLAT:?GetSuperWndProcAddr@CWnd@@MAEPAP6GJPAUHWND__@@IIJ@ZXZ
	DD	FLAT:?DoDataExchange@CWnd@@MAEXPAVCDataExchange@@@Z
	DD	FLAT:?BeginModalState@CWnd@@UAEXXZ
	DD	FLAT:?EndModalState@CWnd@@UAEXXZ
	DD	FLAT:?PreTranslateMessage@CWnd@@UAEHPAUtagMSG@@@Z
	DD	FLAT:?OnAmbientProperty@CWnd@@UAEHPAVCOleControlSite@@JPAUtagVARIANT@@@Z
	DD	FLAT:?WindowProc@CWnd@@MAEJIIJ@Z
	DD	FLAT:?OnWndMsg@CWnd@@MAEHIIJPAJ@Z
	DD	FLAT:?DefWindowProcA@CWnd@@MAEJIIJ@Z
	DD	FLAT:?PostNcDestroy@CWnd@@MAEXXZ
	DD	FLAT:?OnChildNotify@CWnd@@MAEHIIJPAJ@Z
	DD	FLAT:?OnTouchInputs@CWnd@@MAEHIPAUtagTOUCHINPUT@@@Z
	DD	FLAT:?OnTouchInput@CWnd@@MAEHVCPoint@@HHPAUtagTOUCHINPUT@@@Z
	DD	FLAT:?GetGestureStatus@CWnd@@MAEKVCPoint@@@Z
	DD	FLAT:?OnGestureZoom@CWnd@@MAEHVCPoint@@J@Z
	DD	FLAT:?OnGesturePan@CWnd@@MAEHVCPoint@@0@Z
	DD	FLAT:?OnGestureRotate@CWnd@@MAEHVCPoint@@N@Z
	DD	FLAT:?OnGestureTwoFingerTap@CWnd@@MAEHVCPoint@@@Z
	DD	FLAT:?OnGesturePressAndTap@CWnd@@MAEHVCPoint@@J@Z
	DD	FLAT:?ResizeDynamicLayout@CWnd@@MAEXXZ
	DD	FLAT:?CheckAutoCenter@CWnd@@UAEHXZ
	DD	FLAT:?IsFrameWnd@CWnd@@UBEHXZ
	DD	FLAT:?CreateControlContainer@CWnd@@MAEHPAPAVCOleControlContainer@@@Z
	DD	FLAT:?CreateControlSite@CWnd@@MAEHPAVCOleControlContainer@@PAPAVCOleControlSite@@IABU_GUID@@@Z
	DD	FLAT:?SetOccDialogInfo@CWnd@@MAEHPAU_AFX_OCC_DIALOG_INFO@@@Z
	DD	FLAT:?GetOccDialogInfo@CWnd@@MAEPAU_AFX_OCC_DIALOG_INFO@@XZ
CONST	ENDS
;	COMDAT ??_7CComboBox@@6B@
CONST	SEGMENT
??_7CComboBox@@6B@ DD FLAT:??_R4CComboBox@@6B@		; CComboBox::`vftable'
	DD	FLAT:?GetRuntimeClass@CComboBox@@UBEPAUCRuntimeClass@@XZ
	DD	FLAT:??_ECComboBox@@UAEPAXI@Z
	DD	FLAT:?Serialize@CObject@@UAEXAAVCArchive@@@Z
	DD	FLAT:?AssertValid@CObject@@UBEXXZ
	DD	FLAT:?Dump@CObject@@UBEXAAVCDumpContext@@@Z
	DD	FLAT:?OnCmdMsg@CCmdTarget@@UAEHIHPAXPAUAFX_CMDHANDLERINFO@@@Z
	DD	FLAT:?OnFinalRelease@CWnd@@UAEXXZ
	DD	FLAT:?IsInvokeAllowed@CCmdTarget@@UAEHJ@Z
	DD	FLAT:?GetDispatchIID@CCmdTarget@@UAEHPAU_GUID@@@Z
	DD	FLAT:?GetTypeInfoCount@CCmdTarget@@UAEIXZ
	DD	FLAT:?GetTypeLibCache@CCmdTarget@@UAEPAVCTypeLibCache@@XZ
	DD	FLAT:?GetTypeLib@CCmdTarget@@UAEJKPAPAUITypeLib@@@Z
	DD	FLAT:?GetMessageMap@CWnd@@MBEPBUAFX_MSGMAP@@XZ
	DD	FLAT:?GetCommandMap@CCmdTarget@@MBEPBUAFX_OLECMDMAP@@XZ
	DD	FLAT:?GetDispatchMap@CCmdTarget@@MBEPBUAFX_DISPMAP@@XZ
	DD	FLAT:?GetConnectionMap@CCmdTarget@@MBEPBUAFX_CONNECTIONMAP@@XZ
	DD	FLAT:?GetInterfaceMap@CWnd@@MBEPBUAFX_INTERFACEMAP@@XZ
	DD	FLAT:?GetEventSinkMap@CCmdTarget@@MBEPBUAFX_EVENTSINKMAP@@XZ
	DD	FLAT:?OnCreateAggregates@CCmdTarget@@UAEHXZ
	DD	FLAT:?GetInterfaceHook@CCmdTarget@@UAEPAUIUnknown@@PBX@Z
	DD	FLAT:?GetExtraConnectionPoints@CCmdTarget@@MAEHPAVCPtrArray@@@Z
	DD	FLAT:?GetConnectionHook@CCmdTarget@@MAEPAUIConnectionPoint@@ABU_GUID@@@Z
	DD	FLAT:?PreSubclassWindow@CWnd@@UAEXXZ
	DD	FLAT:?Create@CWnd@@UAEHPBD0KABUtagRECT@@PAV1@IPAUCCreateContext@@@Z
	DD	FLAT:?CreateEx@CWnd@@UAEHKPBD0KABUtagRECT@@PAV1@IPAX@Z
	DD	FLAT:?CreateEx@CWnd@@UAEHKPBD0KHHHHPAUHWND__@@PAUHMENU__@@PAX@Z
	DD	FLAT:?DestroyWindow@CWnd@@UAEHXZ
	DD	FLAT:?PreCreateWindow@CWnd@@UAEHAAUtagCREATESTRUCTA@@@Z
	DD	FLAT:?CalcWindowRect@CWnd@@UAEXPAUtagRECT@@I@Z
	DD	FLAT:?GetMenu@CWnd@@UBEPAVCMenu@@XZ
	DD	FLAT:?SetMenu@CWnd@@UAEHPAVCMenu@@@Z
	DD	FLAT:?OnToolHitTest@CWnd@@UBEHVCPoint@@PAUtagTOOLINFOA@@@Z
	DD	FLAT:?GetScrollBarCtrl@CWnd@@UBEPAVCScrollBar@@H@Z
	DD	FLAT:?WinHelpA@CWnd@@UAEXKI@Z
	DD	FLAT:?HtmlHelpA@CWnd@@UAEXKI@Z
	DD	FLAT:?WinHelpInternal@CWnd@@UAEXKI@Z
	DD	FLAT:?ContinueModal@CWnd@@UAEHXZ
	DD	FLAT:?EndModalLoop@CWnd@@UAEXH@Z
	DD	FLAT:?OnDrawIconicThumbnailOrLivePreview@CWnd@@UAEXAAVCDC@@VCRect@@VCSize@@HAAH@Z
	DD	FLAT:?EnsureStdObj@CWnd@@UAEJXZ
	DD	FLAT:?get_accParent@CWnd@@UAEJPAPAUIDispatch@@@Z
	DD	FLAT:?get_accChildCount@CWnd@@UAEJPAJ@Z
	DD	FLAT:?get_accChild@CWnd@@UAEJUtagVARIANT@@PAPAUIDispatch@@@Z
	DD	FLAT:?get_accName@CWnd@@UAEJUtagVARIANT@@PAPA_W@Z
	DD	FLAT:?get_accValue@CWnd@@UAEJUtagVARIANT@@PAPA_W@Z
	DD	FLAT:?get_accDescription@CWnd@@UAEJUtagVARIANT@@PAPA_W@Z
	DD	FLAT:?get_accRole@CWnd@@UAEJUtagVARIANT@@PAU2@@Z
	DD	FLAT:?get_accState@CWnd@@UAEJUtagVARIANT@@PAU2@@Z
	DD	FLAT:?get_accHelp@CWnd@@UAEJUtagVARIANT@@PAPA_W@Z
	DD	FLAT:?get_accHelpTopic@CWnd@@UAEJPAPA_WUtagVARIANT@@PAJ@Z
	DD	FLAT:?get_accKeyboardShortcut@CWnd@@UAEJUtagVARIANT@@PAPA_W@Z
	DD	FLAT:?get_accFocus@CWnd@@UAEJPAUtagVARIANT@@@Z
	DD	FLAT:?get_accSelection@CWnd@@UAEJPAUtagVARIANT@@@Z
	DD	FLAT:?get_accDefaultAction@CWnd@@UAEJUtagVARIANT@@PAPA_W@Z
	DD	FLAT:?accSelect@CWnd@@UAEJJUtagVARIANT@@@Z
	DD	FLAT:?accLocation@CWnd@@UAEJPAJ000UtagVARIANT@@@Z
	DD	FLAT:?accNavigate@CWnd@@UAEJJUtagVARIANT@@PAU2@@Z
	DD	FLAT:?accHitTest@CWnd@@UAEJJJPAUtagVARIANT@@@Z
	DD	FLAT:?accDoDefaultAction@CWnd@@UAEJUtagVARIANT@@@Z
	DD	FLAT:?put_accName@CWnd@@UAEJUtagVARIANT@@PA_W@Z
	DD	FLAT:?put_accValue@CWnd@@UAEJUtagVARIANT@@PA_W@Z
	DD	FLAT:?SetProxy@CWnd@@UAEJPAUIAccessibleProxy@@@Z
	DD	FLAT:?CreateAccessibleProxy@CWnd@@UAEJIJPAJ@Z
	DD	FLAT:?OnCommand@CWnd@@MAEHIJ@Z
	DD	FLAT:?OnNotify@CWnd@@MAEHIJPAJ@Z
	DD	FLAT:?GetSuperWndProcAddr@CWnd@@MAEPAP6GJPAUHWND__@@IIJ@ZXZ
	DD	FLAT:?DoDataExchange@CWnd@@MAEXPAVCDataExchange@@@Z
	DD	FLAT:?BeginModalState@CWnd@@UAEXXZ
	DD	FLAT:?EndModalState@CWnd@@UAEXXZ
	DD	FLAT:?PreTranslateMessage@CWnd@@UAEHPAUtagMSG@@@Z
	DD	FLAT:?OnAmbientProperty@CWnd@@UAEHPAVCOleControlSite@@JPAUtagVARIANT@@@Z
	DD	FLAT:?WindowProc@CWnd@@MAEJIIJ@Z
	DD	FLAT:?OnWndMsg@CWnd@@MAEHIIJPAJ@Z
	DD	FLAT:?DefWindowProcA@CWnd@@MAEJIIJ@Z
	DD	FLAT:?PostNcDestroy@CWnd@@MAEXXZ
	DD	FLAT:?OnChildNotify@CComboBox@@MAEHIIJPAJ@Z
	DD	FLAT:?OnTouchInputs@CWnd@@MAEHIPAUtagTOUCHINPUT@@@Z
	DD	FLAT:?OnTouchInput@CWnd@@MAEHVCPoint@@HHPAUtagTOUCHINPUT@@@Z
	DD	FLAT:?GetGestureStatus@CWnd@@MAEKVCPoint@@@Z
	DD	FLAT:?OnGestureZoom@CWnd@@MAEHVCPoint@@J@Z
	DD	FLAT:?OnGesturePan@CWnd@@MAEHVCPoint@@0@Z
	DD	FLAT:?OnGestureRotate@CWnd@@MAEHVCPoint@@N@Z
	DD	FLAT:?OnGestureTwoFingerTap@CWnd@@MAEHVCPoint@@@Z
	DD	FLAT:?OnGesturePressAndTap@CWnd@@MAEHVCPoint@@J@Z
	DD	FLAT:?ResizeDynamicLayout@CWnd@@MAEXXZ
	DD	FLAT:?CheckAutoCenter@CWnd@@UAEHXZ
	DD	FLAT:?IsFrameWnd@CWnd@@UBEHXZ
	DD	FLAT:?CreateControlContainer@CWnd@@MAEHPAPAVCOleControlContainer@@@Z
	DD	FLAT:?CreateControlSite@CWnd@@MAEHPAVCOleControlContainer@@PAPAVCOleControlSite@@IABU_GUID@@@Z
	DD	FLAT:?SetOccDialogInfo@CWnd@@MAEHPAU_AFX_OCC_DIALOG_INFO@@@Z
	DD	FLAT:?GetOccDialogInfo@CWnd@@MAEPAU_AFX_OCC_DIALOG_INFO@@XZ
	DD	FLAT:?Create@CComboBox@@UAEHKABUtagRECT@@PAVCWnd@@I@Z
	DD	FLAT:?DrawItem@CComboBox@@UAEXPAUtagDRAWITEMSTRUCT@@@Z
	DD	FLAT:?MeasureItem@CComboBox@@UAEXPAUtagMEASUREITEMSTRUCT@@@Z
	DD	FLAT:?CompareItem@CComboBox@@UAEHPAUtagCOMPAREITEMSTRUCT@@@Z
	DD	FLAT:?DeleteItem@CComboBox@@UAEXPAUtagDELETEITEMSTRUCT@@@Z
CONST	ENDS
;	COMDAT ??_7CButton@@6B@
CONST	SEGMENT
??_7CButton@@6B@ DD FLAT:??_R4CButton@@6B@		; CButton::`vftable'
	DD	FLAT:?GetRuntimeClass@CButton@@UBEPAUCRuntimeClass@@XZ
	DD	FLAT:??_ECButton@@UAEPAXI@Z
	DD	FLAT:?Serialize@CObject@@UAEXAAVCArchive@@@Z
	DD	FLAT:?AssertValid@CObject@@UBEXXZ
	DD	FLAT:?Dump@CObject@@UBEXAAVCDumpContext@@@Z
	DD	FLAT:?OnCmdMsg@CCmdTarget@@UAEHIHPAXPAUAFX_CMDHANDLERINFO@@@Z
	DD	FLAT:?OnFinalRelease@CWnd@@UAEXXZ
	DD	FLAT:?IsInvokeAllowed@CCmdTarget@@UAEHJ@Z
	DD	FLAT:?GetDispatchIID@CCmdTarget@@UAEHPAU_GUID@@@Z
	DD	FLAT:?GetTypeInfoCount@CCmdTarget@@UAEIXZ
	DD	FLAT:?GetTypeLibCache@CCmdTarget@@UAEPAVCTypeLibCache@@XZ
	DD	FLAT:?GetTypeLib@CCmdTarget@@UAEJKPAPAUITypeLib@@@Z
	DD	FLAT:?GetMessageMap@CWnd@@MBEPBUAFX_MSGMAP@@XZ
	DD	FLAT:?GetCommandMap@CCmdTarget@@MBEPBUAFX_OLECMDMAP@@XZ
	DD	FLAT:?GetDispatchMap@CCmdTarget@@MBEPBUAFX_DISPMAP@@XZ
	DD	FLAT:?GetConnectionMap@CCmdTarget@@MBEPBUAFX_CONNECTIONMAP@@XZ
	DD	FLAT:?GetInterfaceMap@CWnd@@MBEPBUAFX_INTERFACEMAP@@XZ
	DD	FLAT:?GetEventSinkMap@CCmdTarget@@MBEPBUAFX_EVENTSINKMAP@@XZ
	DD	FLAT:?OnCreateAggregates@CCmdTarget@@UAEHXZ
	DD	FLAT:?GetInterfaceHook@CCmdTarget@@UAEPAUIUnknown@@PBX@Z
	DD	FLAT:?GetExtraConnectionPoints@CCmdTarget@@MAEHPAVCPtrArray@@@Z
	DD	FLAT:?GetConnectionHook@CCmdTarget@@MAEPAUIConnectionPoint@@ABU_GUID@@@Z
	DD	FLAT:?PreSubclassWindow@CWnd@@UAEXXZ
	DD	FLAT:?Create@CWnd@@UAEHPBD0KABUtagRECT@@PAV1@IPAUCCreateContext@@@Z
	DD	FLAT:?CreateEx@CWnd@@UAEHKPBD0KABUtagRECT@@PAV1@IPAX@Z
	DD	FLAT:?CreateEx@CWnd@@UAEHKPBD0KHHHHPAUHWND__@@PAUHMENU__@@PAX@Z
	DD	FLAT:?DestroyWindow@CWnd@@UAEHXZ
	DD	FLAT:?PreCreateWindow@CWnd@@UAEHAAUtagCREATESTRUCTA@@@Z
	DD	FLAT:?CalcWindowRect@CWnd@@UAEXPAUtagRECT@@I@Z
	DD	FLAT:?GetMenu@CWnd@@UBEPAVCMenu@@XZ
	DD	FLAT:?SetMenu@CWnd@@UAEHPAVCMenu@@@Z
	DD	FLAT:?OnToolHitTest@CWnd@@UBEHVCPoint@@PAUtagTOOLINFOA@@@Z
	DD	FLAT:?GetScrollBarCtrl@CWnd@@UBEPAVCScrollBar@@H@Z
	DD	FLAT:?WinHelpA@CWnd@@UAEXKI@Z
	DD	FLAT:?HtmlHelpA@CWnd@@UAEXKI@Z
	DD	FLAT:?WinHelpInternal@CWnd@@UAEXKI@Z
	DD	FLAT:?ContinueModal@CWnd@@UAEHXZ
	DD	FLAT:?EndModalLoop@CWnd@@UAEXH@Z
	DD	FLAT:?OnDrawIconicThumbnailOrLivePreview@CWnd@@UAEXAAVCDC@@VCRect@@VCSize@@HAAH@Z
	DD	FLAT:?EnsureStdObj@CWnd@@UAEJXZ
	DD	FLAT:?get_accParent@CWnd@@UAEJPAPAUIDispatch@@@Z
	DD	FLAT:?get_accChildCount@CWnd@@UAEJPAJ@Z
	DD	FLAT:?get_accChild@CWnd@@UAEJUtagVARIANT@@PAPAUIDispatch@@@Z
	DD	FLAT:?get_accName@CWnd@@UAEJUtagVARIANT@@PAPA_W@Z
	DD	FLAT:?get_accValue@CWnd@@UAEJUtagVARIANT@@PAPA_W@Z
	DD	FLAT:?get_accDescription@CWnd@@UAEJUtagVARIANT@@PAPA_W@Z
	DD	FLAT:?get_accRole@CWnd@@UAEJUtagVARIANT@@PAU2@@Z
	DD	FLAT:?get_accState@CWnd@@UAEJUtagVARIANT@@PAU2@@Z
	DD	FLAT:?get_accHelp@CWnd@@UAEJUtagVARIANT@@PAPA_W@Z
	DD	FLAT:?get_accHelpTopic@CWnd@@UAEJPAPA_WUtagVARIANT@@PAJ@Z
	DD	FLAT:?get_accKeyboardShortcut@CWnd@@UAEJUtagVARIANT@@PAPA_W@Z
	DD	FLAT:?get_accFocus@CWnd@@UAEJPAUtagVARIANT@@@Z
	DD	FLAT:?get_accSelection@CWnd@@UAEJPAUtagVARIANT@@@Z
	DD	FLAT:?get_accDefaultAction@CWnd@@UAEJUtagVARIANT@@PAPA_W@Z
	DD	FLAT:?accSelect@CWnd@@UAEJJUtagVARIANT@@@Z
	DD	FLAT:?accLocation@CWnd@@UAEJPAJ000UtagVARIANT@@@Z
	DD	FLAT:?accNavigate@CWnd@@UAEJJUtagVARIANT@@PAU2@@Z
	DD	FLAT:?accHitTest@CWnd@@UAEJJJPAUtagVARIANT@@@Z
	DD	FLAT:?accDoDefaultAction@CWnd@@UAEJUtagVARIANT@@@Z
	DD	FLAT:?put_accName@CWnd@@UAEJUtagVARIANT@@PA_W@Z
	DD	FLAT:?put_accValue@CWnd@@UAEJUtagVARIANT@@PA_W@Z
	DD	FLAT:?SetProxy@CWnd@@UAEJPAUIAccessibleProxy@@@Z
	DD	FLAT:?CreateAccessibleProxy@CWnd@@UAEJIJPAJ@Z
	DD	FLAT:?OnCommand@CWnd@@MAEHIJ@Z
	DD	FLAT:?OnNotify@CWnd@@MAEHIJPAJ@Z
	DD	FLAT:?GetSuperWndProcAddr@CWnd@@MAEPAP6GJPAUHWND__@@IIJ@ZXZ
	DD	FLAT:?DoDataExchange@CWnd@@MAEXPAVCDataExchange@@@Z
	DD	FLAT:?BeginModalState@CWnd@@UAEXXZ
	DD	FLAT:?EndModalState@CWnd@@UAEXXZ
	DD	FLAT:?PreTranslateMessage@CWnd@@UAEHPAUtagMSG@@@Z
	DD	FLAT:?OnAmbientProperty@CWnd@@UAEHPAVCOleControlSite@@JPAUtagVARIANT@@@Z
	DD	FLAT:?WindowProc@CWnd@@MAEJIIJ@Z
	DD	FLAT:?OnWndMsg@CWnd@@MAEHIIJPAJ@Z
	DD	FLAT:?DefWindowProcA@CWnd@@MAEJIIJ@Z
	DD	FLAT:?PostNcDestroy@CWnd@@MAEXXZ
	DD	FLAT:?OnChildNotify@CButton@@MAEHIIJPAJ@Z
	DD	FLAT:?OnTouchInputs@CWnd@@MAEHIPAUtagTOUCHINPUT@@@Z
	DD	FLAT:?OnTouchInput@CWnd@@MAEHVCPoint@@HHPAUtagTOUCHINPUT@@@Z
	DD	FLAT:?GetGestureStatus@CWnd@@MAEKVCPoint@@@Z
	DD	FLAT:?OnGestureZoom@CWnd@@MAEHVCPoint@@J@Z
	DD	FLAT:?OnGesturePan@CWnd@@MAEHVCPoint@@0@Z
	DD	FLAT:?OnGestureRotate@CWnd@@MAEHVCPoint@@N@Z
	DD	FLAT:?OnGestureTwoFingerTap@CWnd@@MAEHVCPoint@@@Z
	DD	FLAT:?OnGesturePressAndTap@CWnd@@MAEHVCPoint@@J@Z
	DD	FLAT:?ResizeDynamicLayout@CWnd@@MAEXXZ
	DD	FLAT:?CheckAutoCenter@CWnd@@UAEHXZ
	DD	FLAT:?IsFrameWnd@CWnd@@UBEHXZ
	DD	FLAT:?CreateControlContainer@CWnd@@MAEHPAPAVCOleControlContainer@@@Z
	DD	FLAT:?CreateControlSite@CWnd@@MAEHPAVCOleControlContainer@@PAPAVCOleControlSite@@IABU_GUID@@@Z
	DD	FLAT:?SetOccDialogInfo@CWnd@@MAEHPAU_AFX_OCC_DIALOG_INFO@@@Z
	DD	FLAT:?GetOccDialogInfo@CWnd@@MAEPAU_AFX_OCC_DIALOG_INFO@@XZ
	DD	FLAT:?Create@CButton@@UAEHPBDKABUtagRECT@@PAVCWnd@@I@Z
	DD	FLAT:?DrawItem@CButton@@UAEXPAUtagDRAWITEMSTRUCT@@@Z
CONST	ENDS
;	COMDAT ??_7CStatic@@6B@
CONST	SEGMENT
??_7CStatic@@6B@ DD FLAT:??_R4CStatic@@6B@		; CStatic::`vftable'
	DD	FLAT:?GetRuntimeClass@CStatic@@UBEPAUCRuntimeClass@@XZ
	DD	FLAT:??_ECStatic@@UAEPAXI@Z
	DD	FLAT:?Serialize@CObject@@UAEXAAVCArchive@@@Z
	DD	FLAT:?AssertValid@CObject@@UBEXXZ
	DD	FLAT:?Dump@CObject@@UBEXAAVCDumpContext@@@Z
	DD	FLAT:?OnCmdMsg@CCmdTarget@@UAEHIHPAXPAUAFX_CMDHANDLERINFO@@@Z
	DD	FLAT:?OnFinalRelease@CWnd@@UAEXXZ
	DD	FLAT:?IsInvokeAllowed@CCmdTarget@@UAEHJ@Z
	DD	FLAT:?GetDispatchIID@CCmdTarget@@UAEHPAU_GUID@@@Z
	DD	FLAT:?GetTypeInfoCount@CCmdTarget@@UAEIXZ
	DD	FLAT:?GetTypeLibCache@CCmdTarget@@UAEPAVCTypeLibCache@@XZ
	DD	FLAT:?GetTypeLib@CCmdTarget@@UAEJKPAPAUITypeLib@@@Z
	DD	FLAT:?GetMessageMap@CWnd@@MBEPBUAFX_MSGMAP@@XZ
	DD	FLAT:?GetCommandMap@CCmdTarget@@MBEPBUAFX_OLECMDMAP@@XZ
	DD	FLAT:?GetDispatchMap@CCmdTarget@@MBEPBUAFX_DISPMAP@@XZ
	DD	FLAT:?GetConnectionMap@CCmdTarget@@MBEPBUAFX_CONNECTIONMAP@@XZ
	DD	FLAT:?GetInterfaceMap@CWnd@@MBEPBUAFX_INTERFACEMAP@@XZ
	DD	FLAT:?GetEventSinkMap@CCmdTarget@@MBEPBUAFX_EVENTSINKMAP@@XZ
	DD	FLAT:?OnCreateAggregates@CCmdTarget@@UAEHXZ
	DD	FLAT:?GetInterfaceHook@CCmdTarget@@UAEPAUIUnknown@@PBX@Z
	DD	FLAT:?GetExtraConnectionPoints@CCmdTarget@@MAEHPAVCPtrArray@@@Z
	DD	FLAT:?GetConnectionHook@CCmdTarget@@MAEPAUIConnectionPoint@@ABU_GUID@@@Z
	DD	FLAT:?PreSubclassWindow@CWnd@@UAEXXZ
	DD	FLAT:?Create@CWnd@@UAEHPBD0KABUtagRECT@@PAV1@IPAUCCreateContext@@@Z
	DD	FLAT:?CreateEx@CWnd@@UAEHKPBD0KABUtagRECT@@PAV1@IPAX@Z
	DD	FLAT:?CreateEx@CWnd@@UAEHKPBD0KHHHHPAUHWND__@@PAUHMENU__@@PAX@Z
	DD	FLAT:?DestroyWindow@CWnd@@UAEHXZ
	DD	FLAT:?PreCreateWindow@CWnd@@UAEHAAUtagCREATESTRUCTA@@@Z
	DD	FLAT:?CalcWindowRect@CWnd@@UAEXPAUtagRECT@@I@Z
	DD	FLAT:?GetMenu@CWnd@@UBEPAVCMenu@@XZ
	DD	FLAT:?SetMenu@CWnd@@UAEHPAVCMenu@@@Z
	DD	FLAT:?OnToolHitTest@CWnd@@UBEHVCPoint@@PAUtagTOOLINFOA@@@Z
	DD	FLAT:?GetScrollBarCtrl@CWnd@@UBEPAVCScrollBar@@H@Z
	DD	FLAT:?WinHelpA@CWnd@@UAEXKI@Z
	DD	FLAT:?HtmlHelpA@CWnd@@UAEXKI@Z
	DD	FLAT:?WinHelpInternal@CWnd@@UAEXKI@Z
	DD	FLAT:?ContinueModal@CWnd@@UAEHXZ
	DD	FLAT:?EndModalLoop@CWnd@@UAEXH@Z
	DD	FLAT:?OnDrawIconicThumbnailOrLivePreview@CWnd@@UAEXAAVCDC@@VCRect@@VCSize@@HAAH@Z
	DD	FLAT:?EnsureStdObj@CWnd@@UAEJXZ
	DD	FLAT:?get_accParent@CWnd@@UAEJPAPAUIDispatch@@@Z
	DD	FLAT:?get_accChildCount@CWnd@@UAEJPAJ@Z
	DD	FLAT:?get_accChild@CWnd@@UAEJUtagVARIANT@@PAPAUIDispatch@@@Z
	DD	FLAT:?get_accName@CWnd@@UAEJUtagVARIANT@@PAPA_W@Z
	DD	FLAT:?get_accValue@CWnd@@UAEJUtagVARIANT@@PAPA_W@Z
	DD	FLAT:?get_accDescription@CWnd@@UAEJUtagVARIANT@@PAPA_W@Z
	DD	FLAT:?get_accRole@CWnd@@UAEJUtagVARIANT@@PAU2@@Z
	DD	FLAT:?get_accState@CWnd@@UAEJUtagVARIANT@@PAU2@@Z
	DD	FLAT:?get_accHelp@CWnd@@UAEJUtagVARIANT@@PAPA_W@Z
	DD	FLAT:?get_accHelpTopic@CWnd@@UAEJPAPA_WUtagVARIANT@@PAJ@Z
	DD	FLAT:?get_accKeyboardShortcut@CWnd@@UAEJUtagVARIANT@@PAPA_W@Z
	DD	FLAT:?get_accFocus@CWnd@@UAEJPAUtagVARIANT@@@Z
	DD	FLAT:?get_accSelection@CWnd@@UAEJPAUtagVARIANT@@@Z
	DD	FLAT:?get_accDefaultAction@CWnd@@UAEJUtagVARIANT@@PAPA_W@Z
	DD	FLAT:?accSelect@CWnd@@UAEJJUtagVARIANT@@@Z
	DD	FLAT:?accLocation@CWnd@@UAEJPAJ000UtagVARIANT@@@Z
	DD	FLAT:?accNavigate@CWnd@@UAEJJUtagVARIANT@@PAU2@@Z
	DD	FLAT:?accHitTest@CWnd@@UAEJJJPAUtagVARIANT@@@Z
	DD	FLAT:?accDoDefaultAction@CWnd@@UAEJUtagVARIANT@@@Z
	DD	FLAT:?put_accName@CWnd@@UAEJUtagVARIANT@@PA_W@Z
	DD	FLAT:?put_accValue@CWnd@@UAEJUtagVARIANT@@PA_W@Z
	DD	FLAT:?SetProxy@CWnd@@UAEJPAUIAccessibleProxy@@@Z
	DD	FLAT:?CreateAccessibleProxy@CWnd@@UAEJIJPAJ@Z
	DD	FLAT:?OnCommand@CWnd@@MAEHIJ@Z
	DD	FLAT:?OnNotify@CWnd@@MAEHIJPAJ@Z
	DD	FLAT:?GetSuperWndProcAddr@CWnd@@MAEPAP6GJPAUHWND__@@IIJ@ZXZ
	DD	FLAT:?DoDataExchange@CWnd@@MAEXPAVCDataExchange@@@Z
	DD	FLAT:?BeginModalState@CWnd@@UAEXXZ
	DD	FLAT:?EndModalState@CWnd@@UAEXXZ
	DD	FLAT:?PreTranslateMessage@CWnd@@UAEHPAUtagMSG@@@Z
	DD	FLAT:?OnAmbientProperty@CWnd@@UAEHPAVCOleControlSite@@JPAUtagVARIANT@@@Z
	DD	FLAT:?WindowProc@CWnd@@MAEJIIJ@Z
	DD	FLAT:?OnWndMsg@CWnd@@MAEHIIJPAJ@Z
	DD	FLAT:?DefWindowProcA@CWnd@@MAEJIIJ@Z
	DD	FLAT:?PostNcDestroy@CWnd@@MAEXXZ
	DD	FLAT:?OnChildNotify@CStatic@@MAEHIIJPAJ@Z
	DD	FLAT:?OnTouchInputs@CWnd@@MAEHIPAUtagTOUCHINPUT@@@Z
	DD	FLAT:?OnTouchInput@CWnd@@MAEHVCPoint@@HHPAUtagTOUCHINPUT@@@Z
	DD	FLAT:?GetGestureStatus@CWnd@@MAEKVCPoint@@@Z
	DD	FLAT:?OnGestureZoom@CWnd@@MAEHVCPoint@@J@Z
	DD	FLAT:?OnGesturePan@CWnd@@MAEHVCPoint@@0@Z
	DD	FLAT:?OnGestureRotate@CWnd@@MAEHVCPoint@@N@Z
	DD	FLAT:?OnGestureTwoFingerTap@CWnd@@MAEHVCPoint@@@Z
	DD	FLAT:?OnGesturePressAndTap@CWnd@@MAEHVCPoint@@J@Z
	DD	FLAT:?ResizeDynamicLayout@CWnd@@MAEXXZ
	DD	FLAT:?CheckAutoCenter@CWnd@@UAEHXZ
	DD	FLAT:?IsFrameWnd@CWnd@@UBEHXZ
	DD	FLAT:?CreateControlContainer@CWnd@@MAEHPAPAVCOleControlContainer@@@Z
	DD	FLAT:?CreateControlSite@CWnd@@MAEHPAVCOleControlContainer@@PAPAVCOleControlSite@@IABU_GUID@@@Z
	DD	FLAT:?SetOccDialogInfo@CWnd@@MAEHPAU_AFX_OCC_DIALOG_INFO@@@Z
	DD	FLAT:?GetOccDialogInfo@CWnd@@MAEPAU_AFX_OCC_DIALOG_INFO@@XZ
	DD	FLAT:?Create@CStatic@@UAEHPBDKABUtagRECT@@PAVCWnd@@I@Z
	DD	FLAT:?DrawItem@CStatic@@UAEXPAUtagDRAWITEMSTRUCT@@@Z
CONST	ENDS
;	COMDAT ??_C@_00CNPNBAHC@@
CONST	SEGMENT
??_C@_00CNPNBAHC@@ DB 00H				; `string'
CONST	ENDS
;	COMDAT xdata$x
xdata$x	SEGMENT
__unwindtable$?OnSelchangeHorizontalList@CSetting_Common_Type_A@@IAEXXZ DD 0ffffffffH
	DD	FLAT:__unwindfunclet$?OnSelchangeHorizontalList@CSetting_Common_Type_A@@IAEXXZ$0
__ehfuncinfo$?OnSelchangeHorizontalList@CSetting_Common_Type_A@@IAEXXZ DD 019930522H
	DD	01H
	DD	FLAT:__unwindtable$?OnSelchangeHorizontalList@CSetting_Common_Type_A@@IAEXXZ
	DD	2 DUP(00H)
	DD	2 DUP(00H)
	DD	00H
	DD	01H
xdata$x	ENDS
;	COMDAT xdata$x
xdata$x	SEGMENT
__unwindtable$?OnBtnDown1@CSetting_Common_Type_A@@IAEXXZ DD 0ffffffffH
	DD	FLAT:__unwindfunclet$?OnBtnDown1@CSetting_Common_Type_A@@IAEXXZ$0
	DD	00H
	DD	FLAT:__unwindfunclet$?OnBtnDown1@CSetting_Common_Type_A@@IAEXXZ$1
	DD	00H
	DD	FLAT:___std_terminate
__ehfuncinfo$?OnBtnDown1@CSetting_Common_Type_A@@IAEXXZ DD 019930522H
	DD	03H
	DD	FLAT:__unwindtable$?OnBtnDown1@CSetting_Common_Type_A@@IAEXXZ
	DD	2 DUP(00H)
	DD	2 DUP(00H)
	DD	00H
	DD	01H
xdata$x	ENDS
;	COMDAT xdata$x
xdata$x	SEGMENT
__unwindtable$?OnBtnUp1@CSetting_Common_Type_A@@IAEXXZ DD 0ffffffffH
	DD	FLAT:__unwindfunclet$?OnBtnUp1@CSetting_Common_Type_A@@IAEXXZ$0
	DD	00H
	DD	FLAT:__unwindfunclet$?OnBtnUp1@CSetting_Common_Type_A@@IAEXXZ$1
	DD	00H
	DD	FLAT:___std_terminate
__ehfuncinfo$?OnBtnUp1@CSetting_Common_Type_A@@IAEXXZ DD 019930522H
	DD	03H
	DD	FLAT:__unwindtable$?OnBtnUp1@CSetting_Common_Type_A@@IAEXXZ
	DD	2 DUP(00H)
	DD	2 DUP(00H)
	DD	00H
	DD	01H
xdata$x	ENDS
;	COMDAT xdata$x
xdata$x	SEGMENT
__unwindtable$?OnBtnSteadyColor@CSetting_Common_Type_A@@IAEXXZ DD 0ffffffffH
	DD	FLAT:__unwindfunclet$?OnBtnSteadyColor@CSetting_Common_Type_A@@IAEXXZ$0
__ehfuncinfo$?OnBtnSteadyColor@CSetting_Common_Type_A@@IAEXXZ DD 019930522H
	DD	01H
	DD	FLAT:__unwindtable$?OnBtnSteadyColor@CSetting_Common_Type_A@@IAEXXZ
	DD	2 DUP(00H)
	DD	2 DUP(00H)
	DD	00H
	DD	01H
xdata$x	ENDS
;	COMDAT xdata$x
xdata$x	SEGMENT
__unwindtable$?OnBtnDownColor@CSetting_Common_Type_A@@IAEXXZ DD 0ffffffffH
	DD	FLAT:__unwindfunclet$?OnBtnDownColor@CSetting_Common_Type_A@@IAEXXZ$0
__ehfuncinfo$?OnBtnDownColor@CSetting_Common_Type_A@@IAEXXZ DD 019930522H
	DD	01H
	DD	FLAT:__unwindtable$?OnBtnDownColor@CSetting_Common_Type_A@@IAEXXZ
	DD	2 DUP(00H)
	DD	2 DUP(00H)
	DD	00H
	DD	01H
xdata$x	ENDS
;	COMDAT xdata$x
xdata$x	SEGMENT
__unwindtable$?OnBtnUpColor@CSetting_Common_Type_A@@IAEXXZ DD 0ffffffffH
	DD	FLAT:__unwindfunclet$?OnBtnUpColor@CSetting_Common_Type_A@@IAEXXZ$0
__ehfuncinfo$?OnBtnUpColor@CSetting_Common_Type_A@@IAEXXZ DD 019930522H
	DD	01H
	DD	FLAT:__unwindtable$?OnBtnUpColor@CSetting_Common_Type_A@@IAEXXZ
	DD	2 DUP(00H)
	DD	2 DUP(00H)
	DD	00H
	DD	01H
xdata$x	ENDS
;	COMDAT xdata$x
xdata$x	SEGMENT
__unwindtable$?OnColorButton@CSetting_Common_Type_A@@IAEXXZ DD 0ffffffffH
	DD	FLAT:__unwindfunclet$?OnColorButton@CSetting_Common_Type_A@@IAEXXZ$0
__ehfuncinfo$?OnColorButton@CSetting_Common_Type_A@@IAEXXZ DD 019930522H
	DD	01H
	DD	FLAT:__unwindtable$?OnColorButton@CSetting_Common_Type_A@@IAEXXZ
	DD	2 DUP(00H)
	DD	2 DUP(00H)
	DD	00H
	DD	01H
xdata$x	ENDS
;	COMDAT xdata$x
xdata$x	SEGMENT
__ehfuncinfo$?OnInsert@CSetting_Common_Type_A@@IAEXXZ DD 019930522H
	DD	06H
	DD	FLAT:__unwindtable$?OnInsert@CSetting_Common_Type_A@@IAEXXZ
	DD	2 DUP(00H)
	DD	2 DUP(00H)
	DD	00H
	DD	01H
__unwindtable$?OnInsert@CSetting_Common_Type_A@@IAEXXZ DD 0ffffffffH
	DD	FLAT:__unwindfunclet$?OnInsert@CSetting_Common_Type_A@@IAEXXZ$0
	DD	00H
	DD	FLAT:__unwindfunclet$?OnInsert@CSetting_Common_Type_A@@IAEXXZ$1
	DD	01H
	DD	FLAT:__unwindfunclet$?OnInsert@CSetting_Common_Type_A@@IAEXXZ$2
	DD	02H
	DD	FLAT:__unwindfunclet$?OnInsert@CSetting_Common_Type_A@@IAEXXZ$3
	DD	01H
	DD	FLAT:__unwindfunclet$?OnInsert@CSetting_Common_Type_A@@IAEXXZ$5
	DD	01H
	DD	FLAT:__unwindfunclet$?OnInsert@CSetting_Common_Type_A@@IAEXXZ$6
xdata$x	ENDS
;	COMDAT xdata$x
xdata$x	SEGMENT
__unwindtable$?OnSelchangeCmbThickness@CSetting_Common_Type_A@@IAEXXZ DD 0ffffffffH
	DD	FLAT:__unwindfunclet$?OnSelchangeCmbThickness@CSetting_Common_Type_A@@IAEXXZ$0
	DD	0ffffffffH
	DD	FLAT:___std_terminate
__ehfuncinfo$?OnSelchangeCmbThickness@CSetting_Common_Type_A@@IAEXXZ DD 019930522H
	DD	02H
	DD	FLAT:__unwindtable$?OnSelchangeCmbThickness@CSetting_Common_Type_A@@IAEXXZ
	DD	2 DUP(00H)
	DD	2 DUP(00H)
	DD	00H
	DD	01H
xdata$x	ENDS
;	COMDAT xdata$x
xdata$x	SEGMENT
__unwindtable$?OnSelchangeCmbLinetype@CSetting_Common_Type_A@@IAEXXZ DD 0ffffffffH
	DD	FLAT:__unwindfunclet$?OnSelchangeCmbLinetype@CSetting_Common_Type_A@@IAEXXZ$0
	DD	0ffffffffH
	DD	FLAT:___std_terminate
__ehfuncinfo$?OnSelchangeCmbLinetype@CSetting_Common_Type_A@@IAEXXZ DD 019930522H
	DD	02H
	DD	FLAT:__unwindtable$?OnSelchangeCmbLinetype@CSetting_Common_Type_A@@IAEXXZ
	DD	2 DUP(00H)
	DD	2 DUP(00H)
	DD	00H
	DD	01H
xdata$x	ENDS
;	COMDAT xdata$x
xdata$x	SEGMENT
__unwindtable$?OnBtnCompositionColor@CSetting_Common_Type_A@@IAEXXZ DD 0ffffffffH
	DD	FLAT:__unwindfunclet$?OnBtnCompositionColor@CSetting_Common_Type_A@@IAEXXZ$0
	DD	00H
	DD	FLAT:__unwindfunclet$?OnBtnCompositionColor@CSetting_Common_Type_A@@IAEXXZ$1
	DD	00H
	DD	FLAT:___std_terminate
__ehfuncinfo$?OnBtnCompositionColor@CSetting_Common_Type_A@@IAEXXZ DD 019930522H
	DD	03H
	DD	FLAT:__unwindtable$?OnBtnCompositionColor@CSetting_Common_Type_A@@IAEXXZ
	DD	2 DUP(00H)
	DD	2 DUP(00H)
	DD	00H
	DD	01H
xdata$x	ENDS
;	COMDAT xdata$x
xdata$x	SEGMENT
__unwindtable$?OnInitDialog@CSetting_Common_Type_A@@MAEHXZ DD 0ffffffffH
	DD	FLAT:__unwindfunclet$?OnInitDialog@CSetting_Common_Type_A@@MAEHXZ$0
	DD	00H
	DD	FLAT:__unwindfunclet$?OnInitDialog@CSetting_Common_Type_A@@MAEHXZ$1
	DD	01H
	DD	FLAT:__unwindfunclet$?OnInitDialog@CSetting_Common_Type_A@@MAEHXZ$2
	DD	02H
	DD	FLAT:__unwindfunclet$?OnInitDialog@CSetting_Common_Type_A@@MAEHXZ$5
__ehfuncinfo$?OnInitDialog@CSetting_Common_Type_A@@MAEHXZ DD 019930522H
	DD	04H
	DD	FLAT:__unwindtable$?OnInitDialog@CSetting_Common_Type_A@@MAEHXZ
	DD	2 DUP(00H)
	DD	2 DUP(00H)
	DD	00H
	DD	01H
xdata$x	ENDS
;	COMDAT xdata$x
xdata$x	SEGMENT
__unwindtable$?IsShowBaseLineList@CSetting_Common_Type_A@@ABE_NXZ DD 0ffffffffH
	DD	FLAT:__unwindfunclet$?IsShowBaseLineList@CSetting_Common_Type_A@@ABE_NXZ$0
	DD	0ffffffffH
	DD	FLAT:___std_terminate
__ehfuncinfo$?IsShowBaseLineList@CSetting_Common_Type_A@@ABE_NXZ DD 019930522H
	DD	02H
	DD	FLAT:__unwindtable$?IsShowBaseLineList@CSetting_Common_Type_A@@ABE_NXZ
	DD	2 DUP(00H)
	DD	2 DUP(00H)
	DD	00H
	DD	01H
xdata$x	ENDS
;	COMDAT xdata$x
xdata$x	SEGMENT
__unwindtable$?GetFirstValue@CSetting_Common_Type_A@@AAENABV?$CStringT@DV?$StrTraitMFC_DLL@DV?$ChTraitsCRT@D@ATL@@@@@ATL@@@Z DD 0ffffffffH
	DD	FLAT:__unwindfunclet$?GetFirstValue@CSetting_Common_Type_A@@AAENABV?$CStringT@DV?$StrTraitMFC_DLL@DV?$ChTraitsCRT@D@ATL@@@@@ATL@@@Z$0
	DD	00H
	DD	FLAT:__unwindfunclet$?GetFirstValue@CSetting_Common_Type_A@@AAENABV?$CStringT@DV?$StrTraitMFC_DLL@DV?$ChTraitsCRT@D@ATL@@@@@ATL@@@Z$1
__ehfuncinfo$?GetFirstValue@CSetting_Common_Type_A@@AAENABV?$CStringT@DV?$StrTraitMFC_DLL@DV?$ChTraitsCRT@D@ATL@@@@@ATL@@@Z DD 019930522H
	DD	02H
	DD	FLAT:__unwindtable$?GetFirstValue@CSetting_Common_Type_A@@AAENABV?$CStringT@DV?$StrTraitMFC_DLL@DV?$ChTraitsCRT@D@ATL@@@@@ATL@@@Z
	DD	2 DUP(00H)
	DD	2 DUP(00H)
	DD	00H
	DD	01H
xdata$x	ENDS
;	COMDAT xdata$x
xdata$x	SEGMENT
__unwindtable$?OnApplyBaseLine@CSetting_Common_Type_A@@AAEXXZ DD 0ffffffffH
	DD	FLAT:__unwindfunclet$?OnApplyBaseLine@CSetting_Common_Type_A@@AAEXXZ$0
	DD	00H
	DD	FLAT:__unwindfunclet$?OnApplyBaseLine@CSetting_Common_Type_A@@AAEXXZ$1
	DD	01H
	DD	FLAT:__unwindfunclet$?OnApplyBaseLine@CSetting_Common_Type_A@@AAEXXZ$2
	DD	02H
	DD	FLAT:__unwindfunclet$?OnApplyBaseLine@CSetting_Common_Type_A@@AAEXXZ$3
__ehfuncinfo$?OnApplyBaseLine@CSetting_Common_Type_A@@AAEXXZ DD 019930522H
	DD	04H
	DD	FLAT:__unwindtable$?OnApplyBaseLine@CSetting_Common_Type_A@@AAEXXZ
	DD	2 DUP(00H)
	DD	2 DUP(00H)
	DD	00H
	DD	01H
xdata$x	ENDS
;	COMDAT xdata$x
xdata$x	SEGMENT
__ehfuncinfo$?OnApplySubGraphData@CSetting_Common_Type_A@@AAEXXZ DD 019930522H
	DD	05H
	DD	FLAT:__unwindtable$?OnApplySubGraphData@CSetting_Common_Type_A@@AAEXXZ
	DD	2 DUP(00H)
	DD	2 DUP(00H)
	DD	00H
	DD	01H
__unwindtable$?OnApplySubGraphData@CSetting_Common_Type_A@@AAEXXZ DD 0ffffffffH
	DD	FLAT:__unwindfunclet$?OnApplySubGraphData@CSetting_Common_Type_A@@AAEXXZ$0
	DD	00H
	DD	FLAT:__unwindfunclet$?OnApplySubGraphData@CSetting_Common_Type_A@@AAEXXZ$1
	DD	00H
	DD	FLAT:__unwindfunclet$?OnApplySubGraphData@CSetting_Common_Type_A@@AAEXXZ$2
	DD	00H
	DD	FLAT:___std_terminate
	DD	0ffffffffH
	DD	FLAT:___std_terminate
xdata$x	ENDS
;	COMDAT xdata$x
xdata$x	SEGMENT
__unwindtable$?Init_BaseLine_Group_Title@CSetting_Common_Type_A@@AAEXXZ DD 0ffffffffH
	DD	FLAT:__unwindfunclet$?Init_BaseLine_Group_Title@CSetting_Common_Type_A@@AAEXXZ$0
	DD	0ffffffffH
	DD	FLAT:___std_terminate
__ehfuncinfo$?Init_BaseLine_Group_Title@CSetting_Common_Type_A@@AAEXXZ DD 019930522H
	DD	02H
	DD	FLAT:__unwindtable$?Init_BaseLine_Group_Title@CSetting_Common_Type_A@@AAEXXZ
	DD	2 DUP(00H)
	DD	2 DUP(00H)
	DD	00H
	DD	01H
xdata$x	ENDS
;	COMDAT xdata$x
xdata$x	SEGMENT
__unwindtable$?Init_Composition_Group_SubGraphColor_BoxType@CSetting_Common_Type_A@@AAE_NH@Z DD 0ffffffffH
	DD	FLAT:__unwindfunclet$?Init_Composition_Group_SubGraphColor_BoxType@CSetting_Common_Type_A@@AAE_NH@Z$0
__ehfuncinfo$?Init_Composition_Group_SubGraphColor_BoxType@CSetting_Common_Type_A@@AAE_NH@Z DD 019930522H
	DD	01H
	DD	FLAT:__unwindtable$?Init_Composition_Group_SubGraphColor_BoxType@CSetting_Common_Type_A@@AAE_NH@Z
	DD	2 DUP(00H)
	DD	2 DUP(00H)
	DD	00H
	DD	01H
xdata$x	ENDS
;	COMDAT xdata$x
xdata$x	SEGMENT
__unwindtable$?Init_Composition_Group_SubGraphColor_LineType@CSetting_Common_Type_A@@AAE_NH@Z DD 0ffffffffH
	DD	FLAT:__unwindfunclet$?Init_Composition_Group_SubGraphColor_LineType@CSetting_Common_Type_A@@AAE_NH@Z$0
__ehfuncinfo$?Init_Composition_Group_SubGraphColor_LineType@CSetting_Common_Type_A@@AAE_NH@Z DD 019930522H
	DD	01H
	DD	FLAT:__unwindtable$?Init_Composition_Group_SubGraphColor_LineType@CSetting_Common_Type_A@@AAE_NH@Z
	DD	2 DUP(00H)
	DD	2 DUP(00H)
	DD	00H
	DD	01H
xdata$x	ENDS
;	COMDAT xdata$x
xdata$x	SEGMENT
__unwindtable$?Init_Composition_Group_SubGraphTitle@CSetting_Common_Type_A@@AAEXH@Z DD 0ffffffffH
	DD	FLAT:__unwindfunclet$?Init_Composition_Group_SubGraphTitle@CSetting_Common_Type_A@@AAEXH@Z$0
	DD	00H
	DD	FLAT:__unwindfunclet$?Init_Composition_Group_SubGraphTitle@CSetting_Common_Type_A@@AAEXH@Z$1
	DD	0ffffffffH
	DD	FLAT:___std_terminate
__ehfuncinfo$?Init_Composition_Group_SubGraphTitle@CSetting_Common_Type_A@@AAEXH@Z DD 019930522H
	DD	03H
	DD	FLAT:__unwindtable$?Init_Composition_Group_SubGraphTitle@CSetting_Common_Type_A@@AAEXH@Z
	DD	2 DUP(00H)
	DD	2 DUP(00H)
	DD	00H
	DD	01H
xdata$x	ENDS
;	COMDAT xdata$x
xdata$x	SEGMENT
__unwindtable$?Init_Composition_Group_SubGraphItem@CSetting_Common_Type_A@@AAEXXZ DD 0ffffffffH
	DD	FLAT:__unwindfunclet$?Init_Composition_Group_SubGraphItem@CSetting_Common_Type_A@@AAEXXZ$0
	DD	00H
	DD	FLAT:__unwindfunclet$?Init_Composition_Group_SubGraphItem@CSetting_Common_Type_A@@AAEXXZ$1
	DD	0ffffffffH
	DD	FLAT:___std_terminate
__ehfuncinfo$?Init_Composition_Group_SubGraphItem@CSetting_Common_Type_A@@AAEXXZ DD 019930522H
	DD	03H
	DD	FLAT:__unwindtable$?Init_Composition_Group_SubGraphItem@CSetting_Common_Type_A@@AAEXXZ
	DD	2 DUP(00H)
	DD	2 DUP(00H)
	DD	00H
	DD	01H
xdata$x	ENDS
;	COMDAT xdata$x
xdata$x	SEGMENT
__ehfuncinfo$?Init_Composition_Group@CSetting_Common_Type_A@@AAEXXZ DD 019930522H
	DD	06H
	DD	FLAT:__unwindtable$?Init_Composition_Group@CSetting_Common_Type_A@@AAEXXZ
	DD	2 DUP(00H)
	DD	2 DUP(00H)
	DD	00H
	DD	01H
__unwindtable$?Init_Composition_Group@CSetting_Common_Type_A@@AAEXXZ DD 0ffffffffH
	DD	FLAT:__unwindfunclet$?Init_Composition_Group@CSetting_Common_Type_A@@AAEXXZ$0
	DD	00H
	DD	FLAT:__unwindfunclet$?Init_Composition_Group@CSetting_Common_Type_A@@AAEXXZ$1
	DD	0ffffffffH
	DD	FLAT:___std_terminate
	DD	0ffffffffH
	DD	FLAT:__unwindfunclet$?Init_Composition_Group@CSetting_Common_Type_A@@AAEXXZ$3
	DD	03H
	DD	FLAT:__unwindfunclet$?Init_Composition_Group@CSetting_Common_Type_A@@AAEXXZ$4
	DD	0ffffffffH
	DD	FLAT:___std_terminate
xdata$x	ENDS
;	COMDAT xdata$x
xdata$x	SEGMENT
__ehfuncinfo$?Init_Variable_Group_Title@CSetting_Common_Type_A@@AAEXH@Z DD 019930522H
	DD	07H
	DD	FLAT:__unwindtable$?Init_Variable_Group_Title@CSetting_Common_Type_A@@AAEXH@Z
	DD	2 DUP(00H)
	DD	2 DUP(00H)
	DD	00H
	DD	01H
__unwindtable$?Init_Variable_Group_Title@CSetting_Common_Type_A@@AAEXH@Z DD 0ffffffffH
	DD	FLAT:__unwindfunclet$?Init_Variable_Group_Title@CSetting_Common_Type_A@@AAEXH@Z$0
	DD	00H
	DD	FLAT:__unwindfunclet$?Init_Variable_Group_Title@CSetting_Common_Type_A@@AAEXH@Z$1
	DD	00H
	DD	FLAT:__unwindfunclet$?Init_Variable_Group_Title@CSetting_Common_Type_A@@AAEXH@Z$2
	DD	00H
	DD	FLAT:__unwindfunclet$?Init_Variable_Group_Title@CSetting_Common_Type_A@@AAEXH@Z$3
	DD	00H
	DD	FLAT:__unwindfunclet$?Init_Variable_Group_Title@CSetting_Common_Type_A@@AAEXH@Z$4
	DD	00H
	DD	FLAT:__unwindfunclet$?Init_Variable_Group_Title@CSetting_Common_Type_A@@AAEXH@Z$5
	DD	0ffffffffH
	DD	FLAT:___std_terminate
xdata$x	ENDS
;	COMDAT xdata$x
xdata$x	SEGMENT
__ehfuncinfo$?UseSubColorBtn@CSetting_Common_Type_A@@AAEXHV?$CStringT@DV?$StrTraitMFC_DLL@DV?$ChTraitsCRT@D@ATL@@@@@ATL@@H@Z DD 019930522H
	DD	05H
	DD	FLAT:__unwindtable$?UseSubColorBtn@CSetting_Common_Type_A@@AAEXHV?$CStringT@DV?$StrTraitMFC_DLL@DV?$ChTraitsCRT@D@ATL@@@@@ATL@@H@Z
	DD	2 DUP(00H)
	DD	2 DUP(00H)
	DD	00H
	DD	01H
__unwindtable$?UseSubColorBtn@CSetting_Common_Type_A@@AAEXHV?$CStringT@DV?$StrTraitMFC_DLL@DV?$ChTraitsCRT@D@ATL@@@@@ATL@@H@Z DD 0ffffffffH
	DD	FLAT:__unwindfunclet$?UseSubColorBtn@CSetting_Common_Type_A@@AAEXHV?$CStringT@DV?$StrTraitMFC_DLL@DV?$ChTraitsCRT@D@ATL@@@@@ATL@@H@Z$0
	DD	00H
	DD	FLAT:__unwindfunclet$?UseSubColorBtn@CSetting_Common_Type_A@@AAEXHV?$CStringT@DV?$StrTraitMFC_DLL@DV?$ChTraitsCRT@D@ATL@@@@@ATL@@H@Z$3
	DD	01H
	DD	FLAT:__unwindfunclet$?UseSubColorBtn@CSetting_Common_Type_A@@AAEXHV?$CStringT@DV?$StrTraitMFC_DLL@DV?$ChTraitsCRT@D@ATL@@@@@ATL@@H@Z$4
	DD	02H
	DD	FLAT:__unwindfunclet$?UseSubColorBtn@CSetting_Common_Type_A@@AAEXHV?$CStringT@DV?$StrTraitMFC_DLL@DV?$ChTraitsCRT@D@ATL@@@@@ATL@@H@Z$5
	DD	00H
	DD	FLAT:___std_terminate
xdata$x	ENDS
;	COMDAT xdata$x
xdata$x	SEGMENT
__unwindtable$?UseCompositionGroup@CSetting_Common_Type_A@@AAEXH@Z DD 0ffffffffH
	DD	FLAT:__unwindfunclet$?UseCompositionGroup@CSetting_Common_Type_A@@AAEXH@Z$0
	DD	0ffffffffH
	DD	FLAT:___std_terminate
__ehfuncinfo$?UseCompositionGroup@CSetting_Common_Type_A@@AAEXH@Z DD 019930522H
	DD	02H
	DD	FLAT:__unwindtable$?UseCompositionGroup@CSetting_Common_Type_A@@AAEXH@Z
	DD	2 DUP(00H)
	DD	2 DUP(00H)
	DD	00H
	DD	01H
xdata$x	ENDS
;	COMDAT xdata$x
xdata$x	SEGMENT
__ehfuncinfo$?UseValueGroup@CSetting_Common_Type_A@@AAEXH@Z DD 019930522H
	DD	07H
	DD	FLAT:__unwindtable$?UseValueGroup@CSetting_Common_Type_A@@AAEXH@Z
	DD	2 DUP(00H)
	DD	2 DUP(00H)
	DD	00H
	DD	01H
__unwindtable$?UseValueGroup@CSetting_Common_Type_A@@AAEXH@Z DD 0ffffffffH
	DD	FLAT:__unwindfunclet$?UseValueGroup@CSetting_Common_Type_A@@AAEXH@Z$0
	DD	00H
	DD	FLAT:__unwindfunclet$?UseValueGroup@CSetting_Common_Type_A@@AAEXH@Z$1
	DD	01H
	DD	FLAT:__unwindfunclet$?UseValueGroup@CSetting_Common_Type_A@@AAEXH@Z$2
	DD	02H
	DD	FLAT:__unwindfunclet$?UseValueGroup@CSetting_Common_Type_A@@AAEXH@Z$3
	DD	01H
	DD	FLAT:___std_terminate
	DD	00H
	DD	FLAT:___std_terminate
	DD	0ffffffffH
	DD	FLAT:___std_terminate
xdata$x	ENDS
;	COMDAT xdata$x
xdata$x	SEGMENT
__ehfuncinfo$?Initial@CSetting_Common_Type_A@@UAEXPAUIGraphInfo135914@@@Z DD 019930522H
	DD	0bH
	DD	FLAT:__unwindtable$?Initial@CSetting_Common_Type_A@@UAEXPAUIGraphInfo135914@@@Z
	DD	2 DUP(00H)
	DD	2 DUP(00H)
	DD	00H
	DD	01H
__unwindtable$?Initial@CSetting_Common_Type_A@@UAEXPAUIGraphInfo135914@@@Z DD 0ffffffffH
	DD	FLAT:__unwindfunclet$?Initial@CSetting_Common_Type_A@@UAEXPAUIGraphInfo135914@@@Z$0
	DD	00H
	DD	FLAT:__unwindfunclet$?Initial@CSetting_Common_Type_A@@UAEXPAUIGraphInfo135914@@@Z$3
	DD	01H
	DD	FLAT:__unwindfunclet$?Initial@CSetting_Common_Type_A@@UAEXPAUIGraphInfo135914@@@Z$5
	DD	01H
	DD	FLAT:___std_terminate
	DD	01H
	DD	FLAT:__unwindfunclet$?Initial@CSetting_Common_Type_A@@UAEXPAUIGraphInfo135914@@@Z$6
	DD	04H
	DD	FLAT:__unwindfunclet$?Initial@CSetting_Common_Type_A@@UAEXPAUIGraphInfo135914@@@Z$9
	DD	04H
	DD	FLAT:___std_terminate
	DD	04H
	DD	FLAT:___std_terminate
	DD	04H
	DD	FLAT:__unwindfunclet$?Initial@CSetting_Common_Type_A@@UAEXPAUIGraphInfo135914@@@Z$7
	DD	04H
	DD	FLAT:___std_terminate
	DD	01H
	DD	FLAT:___std_terminate
xdata$x	ENDS
;	COMDAT xdata$x
xdata$x	SEGMENT
__ehfuncinfo$??0CSetting_Common_Type_A@@QAE@PAUIChartOCX135914@@PAVCWnd@@1@Z DD 019930522H
	DD	027H
	DD	FLAT:__unwindtable$??0CSetting_Common_Type_A@@QAE@PAUIChartOCX135914@@PAVCWnd@@1@Z
	DD	2 DUP(00H)
	DD	2 DUP(00H)
	DD	00H
	DD	01H
__unwindtable$??0CSetting_Common_Type_A@@QAE@PAUIChartOCX135914@@PAVCWnd@@1@Z DD 0ffffffffH
	DD	FLAT:__unwindfunclet$??0CSetting_Common_Type_A@@QAE@PAUIChartOCX135914@@PAVCWnd@@1@Z$0
	DD	00H
	DD	FLAT:__unwindfunclet$??0CSetting_Common_Type_A@@QAE@PAUIChartOCX135914@@PAVCWnd@@1@Z$1
	DD	01H
	DD	FLAT:__unwindfunclet$??0CSetting_Common_Type_A@@QAE@PAUIChartOCX135914@@PAVCWnd@@1@Z$2
	DD	02H
	DD	FLAT:__unwindfunclet$??0CSetting_Common_Type_A@@QAE@PAUIChartOCX135914@@PAVCWnd@@1@Z$3
	DD	03H
	DD	FLAT:__unwindfunclet$??0CSetting_Common_Type_A@@QAE@PAUIChartOCX135914@@PAVCWnd@@1@Z$4
	DD	04H
	DD	FLAT:__unwindfunclet$??0CSetting_Common_Type_A@@QAE@PAUIChartOCX135914@@PAVCWnd@@1@Z$5
	DD	05H
	DD	FLAT:__unwindfunclet$??0CSetting_Common_Type_A@@QAE@PAUIChartOCX135914@@PAVCWnd@@1@Z$6
	DD	06H
	DD	FLAT:__unwindfunclet$??0CSetting_Common_Type_A@@QAE@PAUIChartOCX135914@@PAVCWnd@@1@Z$7
	DD	07H
	DD	FLAT:__unwindfunclet$??0CSetting_Common_Type_A@@QAE@PAUIChartOCX135914@@PAVCWnd@@1@Z$8
	DD	08H
	DD	FLAT:__unwindfunclet$??0CSetting_Common_Type_A@@QAE@PAUIChartOCX135914@@PAVCWnd@@1@Z$9
	DD	09H
	DD	FLAT:__unwindfunclet$??0CSetting_Common_Type_A@@QAE@PAUIChartOCX135914@@PAVCWnd@@1@Z$10
	DD	0aH
	DD	FLAT:__unwindfunclet$??0CSetting_Common_Type_A@@QAE@PAUIChartOCX135914@@PAVCWnd@@1@Z$11
	DD	0bH
	DD	FLAT:__unwindfunclet$??0CSetting_Common_Type_A@@QAE@PAUIChartOCX135914@@PAVCWnd@@1@Z$12
	DD	0cH
	DD	FLAT:__unwindfunclet$??0CSetting_Common_Type_A@@QAE@PAUIChartOCX135914@@PAVCWnd@@1@Z$13
	DD	0dH
	DD	FLAT:__unwindfunclet$??0CSetting_Common_Type_A@@QAE@PAUIChartOCX135914@@PAVCWnd@@1@Z$14
	DD	0eH
	DD	FLAT:__unwindfunclet$??0CSetting_Common_Type_A@@QAE@PAUIChartOCX135914@@PAVCWnd@@1@Z$15
	DD	0fH
	DD	FLAT:__unwindfunclet$??0CSetting_Common_Type_A@@QAE@PAUIChartOCX135914@@PAVCWnd@@1@Z$16
	DD	010H
	DD	FLAT:__unwindfunclet$??0CSetting_Common_Type_A@@QAE@PAUIChartOCX135914@@PAVCWnd@@1@Z$17
	DD	011H
	DD	FLAT:__unwindfunclet$??0CSetting_Common_Type_A@@QAE@PAUIChartOCX135914@@PAVCWnd@@1@Z$18
	DD	012H
	DD	FLAT:__unwindfunclet$??0CSetting_Common_Type_A@@QAE@PAUIChartOCX135914@@PAVCWnd@@1@Z$19
	DD	013H
	DD	FLAT:__unwindfunclet$??0CSetting_Common_Type_A@@QAE@PAUIChartOCX135914@@PAVCWnd@@1@Z$20
	DD	014H
	DD	FLAT:__unwindfunclet$??0CSetting_Common_Type_A@@QAE@PAUIChartOCX135914@@PAVCWnd@@1@Z$21
	DD	015H
	DD	FLAT:__unwindfunclet$??0CSetting_Common_Type_A@@QAE@PAUIChartOCX135914@@PAVCWnd@@1@Z$22
	DD	016H
	DD	FLAT:__unwindfunclet$??0CSetting_Common_Type_A@@QAE@PAUIChartOCX135914@@PAVCWnd@@1@Z$23
	DD	017H
	DD	FLAT:__unwindfunclet$??0CSetting_Common_Type_A@@QAE@PAUIChartOCX135914@@PAVCWnd@@1@Z$24
	DD	018H
	DD	FLAT:__unwindfunclet$??0CSetting_Common_Type_A@@QAE@PAUIChartOCX135914@@PAVCWnd@@1@Z$25
	DD	019H
	DD	FLAT:__unwindfunclet$??0CSetting_Common_Type_A@@QAE@PAUIChartOCX135914@@PAVCWnd@@1@Z$26
	DD	01aH
	DD	FLAT:__unwindfunclet$??0CSetting_Common_Type_A@@QAE@PAUIChartOCX135914@@PAVCWnd@@1@Z$27
	DD	01bH
	DD	FLAT:__unwindfunclet$??0CSetting_Common_Type_A@@QAE@PAUIChartOCX135914@@PAVCWnd@@1@Z$28
	DD	01cH
	DD	FLAT:__unwindfunclet$??0CSetting_Common_Type_A@@QAE@PAUIChartOCX135914@@PAVCWnd@@1@Z$29
	DD	01dH
	DD	FLAT:__unwindfunclet$??0CSetting_Common_Type_A@@QAE@PAUIChartOCX135914@@PAVCWnd@@1@Z$30
	DD	01eH
	DD	FLAT:__unwindfunclet$??0CSetting_Common_Type_A@@QAE@PAUIChartOCX135914@@PAVCWnd@@1@Z$31
	DD	01fH
	DD	FLAT:__unwindfunclet$??0CSetting_Common_Type_A@@QAE@PAUIChartOCX135914@@PAVCWnd@@1@Z$32
	DD	020H
	DD	FLAT:__unwindfunclet$??0CSetting_Common_Type_A@@QAE@PAUIChartOCX135914@@PAVCWnd@@1@Z$33
	DD	021H
	DD	FLAT:__unwindfunclet$??0CSetting_Common_Type_A@@QAE@PAUIChartOCX135914@@PAVCWnd@@1@Z$34
	DD	022H
	DD	FLAT:__unwindfunclet$??0CSetting_Common_Type_A@@QAE@PAUIChartOCX135914@@PAVCWnd@@1@Z$35
	DD	023H
	DD	FLAT:__unwindfunclet$??0CSetting_Common_Type_A@@QAE@PAUIChartOCX135914@@PAVCWnd@@1@Z$36
	DD	024H
	DD	FLAT:__unwindfunclet$??0CSetting_Common_Type_A@@QAE@PAUIChartOCX135914@@PAVCWnd@@1@Z$37
	DD	025H
	DD	FLAT:__unwindfunclet$??0CSetting_Common_Type_A@@QAE@PAUIChartOCX135914@@PAVCWnd@@1@Z$38
xdata$x	ENDS
;	COMDAT xdata$x
xdata$x	SEGMENT
__ehfuncinfo$??1ILPCSTR135914@@QAE@XZ DD 019930522H
	DD	00H
	DD	00H
	DD	2 DUP(00H)
	DD	2 DUP(00H)
	DD	00H
	DD	05H
xdata$x	ENDS
; Function compile flags: /Ogtp
; File C:\Program Files (x86)\Microsoft Visual Studio\2019\Community\VC\Tools\MSVC\14.29.30133\atlmfc\include\afx.inl
;	COMDAT ??_GCSetting_Common_Type_A@@UAEPAXI@Z
_TEXT	SEGMENT
___flags$ = 8						; size = 4
??_GCSetting_Common_Type_A@@UAEPAXI@Z PROC		; CSetting_Common_Type_A::`scalar deleting destructor', COMDAT
; _this$ = ecx
  00000	55		 push	 ebp
  00001	8b ec		 mov	 ebp, esp
  00003	56		 push	 esi
  00004	8b f1		 mov	 esi, ecx
  00006	e8 00 00 00 00	 call	 ??1CSetting_Common_Type_A@@UAE@XZ ; CSetting_Common_Type_A::~CSetting_Common_Type_A
  0000b	8b 45 08	 mov	 eax, DWORD PTR ___flags$[ebp]
  0000e	a8 01		 test	 al, 1
  00010	74 22		 je	 SHORT $LN9@scalar
  00012	a8 04		 test	 al, 4
  00014	75 10		 jne	 SHORT $LN3@scalar

; 112  : 	{ ::operator delete(p); }

  00016	56		 push	 esi
  00017	e8 00 00 00 00	 call	 ??3@YAXPAX@Z		; operator delete
  0001c	83 c4 04	 add	 esp, 4
  0001f	8b c6		 mov	 eax, esi
  00021	5e		 pop	 esi
  00022	5d		 pop	 ebp
  00023	c2 04 00	 ret	 4
$LN3@scalar:
  00026	68 e0 14 00 00	 push	 5344			; 000014e0H
  0002b	56		 push	 esi
  0002c	e8 00 00 00 00	 call	 ?__global_delete@@YAXPAXI@Z ; __global_delete
  00031	83 c4 08	 add	 esp, 8
$LN9@scalar:
  00034	8b c6		 mov	 eax, esi
  00036	5e		 pop	 esi
  00037	5d		 pop	 ebp
  00038	c2 04 00	 ret	 4
??_GCSetting_Common_Type_A@@UAEPAXI@Z ENDP		; CSetting_Common_Type_A::`scalar deleting destructor'
_TEXT	ENDS
; Function compile flags: /Ogtp
; File D:\git\src\IBK\IBK_DRFN\ProjSrc\SrcChartEx\ChartAddIn\ChartEnvSetupDlgAddIn\ChartEnvSetupDlgAddIn\Setting_Common_Type_A.cpp
;	COMDAT ?GetMessageMap@CSetting_Common_Type_A@@MBEPBUAFX_MSGMAP@@XZ
_TEXT	SEGMENT
?GetMessageMap@CSetting_Common_Type_A@@MBEPBUAFX_MSGMAP@@XZ PROC ; CSetting_Common_Type_A::GetMessageMap, COMDAT
; _this$ = ecx

; 95   : BEGIN_MESSAGE_MAP(CSetting_Common_Type_A, CDialog)

  00000	b8 00 00 00 00	 mov	 eax, OFFSET ?messageMap@?1??GetThisMessageMap@CSetting_Common_Type_A@@KGPBUAFX_MSGMAP@@XZ@4U3@B
  00005	c3		 ret	 0
?GetMessageMap@CSetting_Common_Type_A@@MBEPBUAFX_MSGMAP@@XZ ENDP ; CSetting_Common_Type_A::GetMessageMap
_TEXT	ENDS
; Function compile flags: /Ogtp
; File D:\git\src\IBK\IBK_DRFN\ProjSrc\SrcChartEx\ChartAddIn\ChartEnvSetupDlgAddIn\ChartEnvSetupDlgAddIn\Setting_Common_Type_A.cpp
;	COMDAT ?GetThisMessageMap@CSetting_Common_Type_A@@KGPBUAFX_MSGMAP@@XZ
_TEXT	SEGMENT
?GetThisMessageMap@CSetting_Common_Type_A@@KGPBUAFX_MSGMAP@@XZ PROC ; CSetting_Common_Type_A::GetThisMessageMap, COMDAT

; 96   : 	//{{AFX_MSG_MAP(CSetting_Common_Type_A)
; 97   : 	ON_BN_CLICKED(IDC_BTN_COMPOSITION_COLOR, OnBtnCompositionColor)
; 98   : 	ON_NOTIFY(LVN_ITEMCHANGED, IDC_LIST_COMPOSITION, OnItemchangedListComposition)
; 99   : 	ON_NOTIFY(NM_CLICK, IDC_LIST_COMPOSITION, OnClickListComposition)
; 100  : 	ON_CBN_SELCHANGE(IDC_CMB_LINETYPE, OnSelchangeCmbLinetype)
; 101  : 	ON_CBN_SELCHANGE(IDC_CMB_THICKNESS, OnSelchangeCmbThickness)
; 102  : 	ON_BN_CLICKED(IDC_INSERT, OnInsert)
; 103  : 	ON_BN_CLICKED(IDC_DELETE, OnDelete)
; 104  : 	ON_BN_CLICKED(IDC_ALLDELETE, OnAlldelete)
; 105  : 	ON_BN_CLICKED(IDC_COLOR_BUTTON, OnColorButton)
; 106  : 	ON_BN_CLICKED(IDC_BTN_UP_COLOR, OnBtnUpColor)
; 107  : 	ON_BN_CLICKED(IDC_BTN_DOWN_COLOR, OnBtnDownColor)
; 108  : 	ON_BN_CLICKED(IDC_BTN_STEADY_COLOR, OnBtnSteadyColor)
; 109  : 	ON_BN_CLICKED(IDC_BTN_UP1, OnBtnUp1)
; 110  : 	ON_BN_CLICKED(IDC_BTN_DOWN1, OnBtnDown1)
; 111  : 	ON_BN_CLICKED(IDC_CHK_FILL_COLOR, OnChkFillColor)
; 112  : 	ON_CBN_SELCHANGE(IDC_CMB_THICKNESS2, OnSelchangeCmbThickness2)
; 113  : 	ON_CBN_SELCHANGE(IDC_CMB_LINETYPE2, OnSelchangeCmbLinetype2)
; 114  : 	ON_LBN_SELCHANGE(IDC_HORIZONTAL_LIST, OnSelchangeHorizontalList)
; 115  : 	//}}AFX_MSG_MAP
; 116  : END_MESSAGE_MAP()

  00000	b8 00 00 00 00	 mov	 eax, OFFSET ?messageMap@?1??GetThisMessageMap@CSetting_Common_Type_A@@KGPBUAFX_MSGMAP@@XZ@4U3@B
  00005	c3		 ret	 0
?GetThisMessageMap@CSetting_Common_Type_A@@KGPBUAFX_MSGMAP@@XZ ENDP ; CSetting_Common_Type_A::GetThisMessageMap
_TEXT	ENDS
; Function compile flags: /Ogtp
; File D:\git\src\IBK\IBK_DRFN\ProjSrc\SrcChartEx\ChartAddIn\ChartEnvSetupDlgAddIn\ChartEnvSetupDlgAddIn\Setting_Common_Type_A.cpp
; File C:\Program Files (x86)\Microsoft Visual Studio\2019\Community\VC\Tools\MSVC\14.29.30133\atlmfc\include\afxwin2.inl
; File D:\git\src\IBK\IBK_DRFN\ProjSrc\SrcChartEx\ChartAddIn\ChartEnvSetupDlgAddIn\ChartEnvSetupDlgAddIn\Setting_Common_Type_A.cpp
;	COMDAT ?OnSelchangeHorizontalList@CSetting_Common_Type_A@@IAEXXZ
_TEXT	SEGMENT
_strSelection$ = -16					; size = 4
__$EHRec$ = -12						; size = 12
?OnSelchangeHorizontalList@CSetting_Common_Type_A@@IAEXXZ PROC ; CSetting_Common_Type_A::OnSelchangeHorizontalList, COMDAT
; _this$ = ecx

; 1813 : {

  00000	55		 push	 ebp
  00001	8b ec		 mov	 ebp, esp
  00003	6a ff		 push	 -1
  00005	68 00 00 00 00	 push	 __ehhandler$?OnSelchangeHorizontalList@CSetting_Common_Type_A@@IAEXXZ
  0000a	64 a1 00 00 00
	00		 mov	 eax, DWORD PTR fs:0
  00010	50		 push	 eax
  00011	51		 push	 ecx
  00012	56		 push	 esi
  00013	a1 00 00 00 00	 mov	 eax, DWORD PTR ___security_cookie
  00018	33 c5		 xor	 eax, ebp
  0001a	50		 push	 eax
  0001b	8d 45 f4	 lea	 eax, DWORD PTR __$EHRec$[ebp]
  0001e	64 a3 00 00 00
	00		 mov	 DWORD PTR fs:0, eax
  00024	8b f1		 mov	 esi, ecx

; 1814 : 	// TODO: Add your control notification handler code here
; 1815 : 	CString strSelection;

  00026	8d 4d f0	 lea	 ecx, DWORD PTR _strSelection$[ebp]
  00029	ff 15 00 00 00
	00		 call	 DWORD PTR __imp_??0?$CStringT@DV?$StrTraitMFC_DLL@DV?$ChTraitsCRT@D@ATL@@@@@ATL@@QAE@XZ

; 1816 : 	m_HorizonLine_ListBox.GetText(m_HorizonLine_ListBox.GetCurSel(), strSelection);

  0002f	8d 45 f0	 lea	 eax, DWORD PTR _strSelection$[ebp]
  00032	c7 45 fc 00 00
	00 00		 mov	 DWORD PTR __$EHRec$[ebp+8], 0
  00039	50		 push	 eax
; File C:\Program Files (x86)\Microsoft Visual Studio\2019\Community\VC\Tools\MSVC\14.29.30133\atlmfc\include\afxwin2.inl

; 666  : 	{ ASSERT(::IsWindow(m_hWnd)); return (int)::SendMessage(m_hWnd, LB_GETCURSEL, 0, 0); }

  0003a	6a 00		 push	 0
  0003c	6a 00		 push	 0
  0003e	68 88 01 00 00	 push	 392			; 00000188H
  00043	ff b6 c0 05 00
	00		 push	 DWORD PTR [esi+1472]
  00049	ff 15 00 00 00
	00		 call	 DWORD PTR __imp__SendMessageA@16
; File D:\git\src\IBK\IBK_DRFN\ProjSrc\SrcChartEx\ChartAddIn\ChartEnvSetupDlgAddIn\ChartEnvSetupDlgAddIn\Setting_Common_Type_A.cpp

; 1816 : 	m_HorizonLine_ListBox.GetText(m_HorizonLine_ListBox.GetCurSel(), strSelection);

  0004f	50		 push	 eax
  00050	8d 8e a0 05 00
	00		 lea	 ecx, DWORD PTR [esi+1440]
  00056	e8 00 00 00 00	 call	 ?GetText@CListBox@@QBEXHAAV?$CStringT@DV?$StrTraitMFC_DLL@DV?$ChTraitsCRT@D@ATL@@@@@ATL@@@Z ; CListBox::GetText

; 1817 : 	m_Horizon_Edit.SetWindowText(strSelection);

  0005b	ff 75 f0	 push	 DWORD PTR _strSelection$[ebp]
  0005e	8d 8e 20 06 00
	00		 lea	 ecx, DWORD PTR [esi+1568]
  00064	e8 00 00 00 00	 call	 ?SetWindowTextA@CWnd@@QAEXPBD@Z ; CWnd::SetWindowTextA

; 1818 : }

  00069	8d 4d f0	 lea	 ecx, DWORD PTR _strSelection$[ebp]
  0006c	ff 15 00 00 00
	00		 call	 DWORD PTR __imp_??1?$CStringT@DV?$StrTraitMFC_DLL@DV?$ChTraitsCRT@D@ATL@@@@@ATL@@QAE@XZ
  00072	8b 4d f4	 mov	 ecx, DWORD PTR __$EHRec$[ebp]
  00075	64 89 0d 00 00
	00 00		 mov	 DWORD PTR fs:0, ecx
  0007c	59		 pop	 ecx
  0007d	5e		 pop	 esi
  0007e	8b e5		 mov	 esp, ebp
  00080	5d		 pop	 ebp
  00081	c3		 ret	 0
_TEXT	ENDS
;	COMDAT text$x
text$x	SEGMENT
__unwindfunclet$?OnSelchangeHorizontalList@CSetting_Common_Type_A@@IAEXXZ$0:
  00000	8d 4d f0	 lea	 ecx, DWORD PTR _strSelection$[ebp]
  00003	ff 25 00 00 00
	00		 jmp	 DWORD PTR __imp_??1?$CStringT@DV?$StrTraitMFC_DLL@DV?$ChTraitsCRT@D@ATL@@@@@ATL@@QAE@XZ
  00009	cc		 int	 3
  0000a	cc		 int	 3
  0000b	cc		 int	 3
  0000c	cc		 int	 3
  0000d	cc		 int	 3
__ehhandler$?OnSelchangeHorizontalList@CSetting_Common_Type_A@@IAEXXZ:
  0000e	90		 npad	 1
  0000f	90		 npad	 1
  00010	8b 54 24 08	 mov	 edx, DWORD PTR [esp+8]
  00014	8d 42 0c	 lea	 eax, DWORD PTR [edx+12]
  00017	8b 4a f4	 mov	 ecx, DWORD PTR [edx-12]
  0001a	33 c8		 xor	 ecx, eax
  0001c	e8 00 00 00 00	 call	 @__security_check_cookie@4
  00021	b8 00 00 00 00	 mov	 eax, OFFSET __ehfuncinfo$?OnSelchangeHorizontalList@CSetting_Common_Type_A@@IAEXXZ
  00026	e9 00 00 00 00	 jmp	 ___CxxFrameHandler3
text$x	ENDS
?OnSelchangeHorizontalList@CSetting_Common_Type_A@@IAEXXZ ENDP ; CSetting_Common_Type_A::OnSelchangeHorizontalList
; Function compile flags: /Ogtp
; File D:\git\src\IBK\IBK_DRFN\ProjSrc\SrcChartEx\ChartAddIn\ChartEnvSetupDlgAddIn\ChartEnvSetupDlgAddIn\Setting_Common_Type_A.cpp
; File C:\Program Files (x86)\Microsoft Visual Studio\2019\Community\VC\Tools\MSVC\14.29.30133\atlmfc\include\afxwin2.inl
; File D:\git\src\IBK\IBK_DRFN\ProjSrc\SrcChartEx\ChartAddIn\ChartEnvSetupDlgAddIn\ChartEnvSetupDlgAddIn\Setting_Common_Type_A.cpp
; File C:\Program Files (x86)\Microsoft Visual Studio\2019\Community\VC\Tools\MSVC\14.29.30133\atlmfc\include\afxwin2.inl
; File D:\git\src\IBK\IBK_DRFN\ProjSrc\SrcChartEx\ChartAddIn\ChartEnvSetupDlgAddIn\ChartEnvSetupDlgAddIn\Setting_Common_Type_A.cpp
; File C:\Program Files (x86)\Microsoft Visual Studio\2019\Community\VC\Tools\MSVC\14.29.30133\atlmfc\include\afxwin2.inl
; File D:\git\src\IBK\IBK_DRFN\ProjSrc\SrcChartEx\ChartAddIn\ChartEnvSetupDlgAddIn\ChartEnvSetupDlgAddIn\Setting_Common_Type_A.cpp
; File C:\Program Files (x86)\Microsoft Visual Studio\2019\Community\VC\Tools\MSVC\14.29.30133\atlmfc\include\afxwin2.inl
; File D:\git\src\IBK\IBK_DRFN\ProjSrc\SrcChartEx\ChartAddIn\ChartEnvSetupDlgAddIn\ChartEnvSetupDlgAddIn\Setting_Common_Type_A.cpp
;	COMDAT ?OnSelchangeCmbLinetype2@CSetting_Common_Type_A@@IAEXXZ
_TEXT	SEGMENT
?OnSelchangeCmbLinetype2@CSetting_Common_Type_A@@IAEXXZ PROC ; CSetting_Common_Type_A::OnSelchangeCmbLinetype2, COMDAT
; _this$ = ecx

; 1800 : {

  00000	56		 push	 esi
  00001	57		 push	 edi
; File C:\Program Files (x86)\Microsoft Visual Studio\2019\Community\VC\Tools\MSVC\14.29.30133\atlmfc\include\afxwin2.inl

; 765  : 	{ ASSERT(::IsWindow(m_hWnd)); return (int)::SendMessage(m_hWnd, CB_GETCURSEL, 0, 0); }

  00002	8b 3d 00 00 00
	00		 mov	 edi, DWORD PTR __imp__SendMessageA@16
; File D:\git\src\IBK\IBK_DRFN\ProjSrc\SrcChartEx\ChartAddIn\ChartEnvSetupDlgAddIn\ChartEnvSetupDlgAddIn\Setting_Common_Type_A.cpp

; 1800 : {

  00008	8b f1		 mov	 esi, ecx
; File C:\Program Files (x86)\Microsoft Visual Studio\2019\Community\VC\Tools\MSVC\14.29.30133\atlmfc\include\afxwin2.inl

; 765  : 	{ ASSERT(::IsWindow(m_hWnd)); return (int)::SendMessage(m_hWnd, CB_GETCURSEL, 0, 0); }

  0000a	6a 00		 push	 0
  0000c	6a 00		 push	 0
  0000e	68 47 01 00 00	 push	 327			; 00000147H
  00013	ff b6 60 14 00
	00		 push	 DWORD PTR [esi+5216]
  00019	ff d7		 call	 edi
; File D:\git\src\IBK\IBK_DRFN\ProjSrc\SrcChartEx\ChartAddIn\ChartEnvSetupDlgAddIn\ChartEnvSetupDlgAddIn\Setting_Common_Type_A.cpp

; 1801 : 	if(m_cmbLineType2.GetCurSel() != 0 && m_cmbThickness2.GetCurSel() != 0 )

  0001b	85 c0		 test	 eax, eax
  0001d	74 35		 je	 SHORT $LN2@OnSelchang
; File C:\Program Files (x86)\Microsoft Visual Studio\2019\Community\VC\Tools\MSVC\14.29.30133\atlmfc\include\afxwin2.inl

; 765  : 	{ ASSERT(::IsWindow(m_hWnd)); return (int)::SendMessage(m_hWnd, CB_GETCURSEL, 0, 0); }

  0001f	6a 00		 push	 0
  00021	6a 00		 push	 0
  00023	68 47 01 00 00	 push	 327			; 00000147H
  00028	ff b6 d8 13 00
	00		 push	 DWORD PTR [esi+5080]
  0002e	ff d7		 call	 edi
; File D:\git\src\IBK\IBK_DRFN\ProjSrc\SrcChartEx\ChartAddIn\ChartEnvSetupDlgAddIn\ChartEnvSetupDlgAddIn\Setting_Common_Type_A.cpp

; 1801 : 	if(m_cmbLineType2.GetCurSel() != 0 && m_cmbThickness2.GetCurSel() != 0 )

  00030	85 c0		 test	 eax, eax
  00032	74 20		 je	 SHORT $LN2@OnSelchang

; 1802 : 	{
; 1803 : // 2008.01.25 by LYH >>
; 1804 : 		//AfxMessageBox(" \"\"     .");
; 1805 : 		AfxMessageBox(m_strMsgLineThick);

  00034	6a 00		 push	 0
  00036	6a 00		 push	 0
  00038	ff b6 dc 00 00
	00		 push	 DWORD PTR [esi+220]
  0003e	e8 00 00 00 00	 call	 ?AfxMessageBox@@YGHPBDII@Z ; AfxMessageBox
; File C:\Program Files (x86)\Microsoft Visual Studio\2019\Community\VC\Tools\MSVC\14.29.30133\atlmfc\include\afxwin2.inl

; 767  : 	{ ASSERT(::IsWindow(m_hWnd)); return (int)::SendMessage(m_hWnd, CB_SETCURSEL, nSelect, 0); }

  00043	6a 00		 push	 0
  00045	6a 00		 push	 0
  00047	68 4e 01 00 00	 push	 334			; 0000014eH
  0004c	ff b6 60 14 00
	00		 push	 DWORD PTR [esi+5216]
  00052	ff d7		 call	 edi
$LN2@OnSelchang:
  00054	5f		 pop	 edi
; File D:\git\src\IBK\IBK_DRFN\ProjSrc\SrcChartEx\ChartAddIn\ChartEnvSetupDlgAddIn\ChartEnvSetupDlgAddIn\Setting_Common_Type_A.cpp

; 1809 : }

  00055	5e		 pop	 esi
  00056	c3		 ret	 0
?OnSelchangeCmbLinetype2@CSetting_Common_Type_A@@IAEXXZ ENDP ; CSetting_Common_Type_A::OnSelchangeCmbLinetype2
_TEXT	ENDS
; Function compile flags: /Ogtp
; File D:\git\src\IBK\IBK_DRFN\ProjSrc\SrcChartEx\ChartAddIn\ChartEnvSetupDlgAddIn\ChartEnvSetupDlgAddIn\Setting_Common_Type_A.cpp
; File C:\Program Files (x86)\Microsoft Visual Studio\2019\Community\VC\Tools\MSVC\14.29.30133\atlmfc\include\afxwin2.inl
; File D:\git\src\IBK\IBK_DRFN\ProjSrc\SrcChartEx\ChartAddIn\ChartEnvSetupDlgAddIn\ChartEnvSetupDlgAddIn\Setting_Common_Type_A.cpp
; File C:\Program Files (x86)\Microsoft Visual Studio\2019\Community\VC\Tools\MSVC\14.29.30133\atlmfc\include\afxwin2.inl
; File D:\git\src\IBK\IBK_DRFN\ProjSrc\SrcChartEx\ChartAddIn\ChartEnvSetupDlgAddIn\ChartEnvSetupDlgAddIn\Setting_Common_Type_A.cpp
; File C:\Program Files (x86)\Microsoft Visual Studio\2019\Community\VC\Tools\MSVC\14.29.30133\atlmfc\include\afxwin2.inl
; File D:\git\src\IBK\IBK_DRFN\ProjSrc\SrcChartEx\ChartAddIn\ChartEnvSetupDlgAddIn\ChartEnvSetupDlgAddIn\Setting_Common_Type_A.cpp
; File C:\Program Files (x86)\Microsoft Visual Studio\2019\Community\VC\Tools\MSVC\14.29.30133\atlmfc\include\afxwin2.inl
; File D:\git\src\IBK\IBK_DRFN\ProjSrc\SrcChartEx\ChartAddIn\ChartEnvSetupDlgAddIn\ChartEnvSetupDlgAddIn\Setting_Common_Type_A.cpp
;	COMDAT ?OnSelchangeCmbThickness2@CSetting_Common_Type_A@@IAEXXZ
_TEXT	SEGMENT
?OnSelchangeCmbThickness2@CSetting_Common_Type_A@@IAEXXZ PROC ; CSetting_Common_Type_A::OnSelchangeCmbThickness2, COMDAT
; _this$ = ecx

; 1788 : {

  00000	56		 push	 esi
  00001	57		 push	 edi
; File C:\Program Files (x86)\Microsoft Visual Studio\2019\Community\VC\Tools\MSVC\14.29.30133\atlmfc\include\afxwin2.inl

; 765  : 	{ ASSERT(::IsWindow(m_hWnd)); return (int)::SendMessage(m_hWnd, CB_GETCURSEL, 0, 0); }

  00002	8b 3d 00 00 00
	00		 mov	 edi, DWORD PTR __imp__SendMessageA@16
; File D:\git\src\IBK\IBK_DRFN\ProjSrc\SrcChartEx\ChartAddIn\ChartEnvSetupDlgAddIn\ChartEnvSetupDlgAddIn\Setting_Common_Type_A.cpp

; 1788 : {

  00008	8b f1		 mov	 esi, ecx
; File C:\Program Files (x86)\Microsoft Visual Studio\2019\Community\VC\Tools\MSVC\14.29.30133\atlmfc\include\afxwin2.inl

; 765  : 	{ ASSERT(::IsWindow(m_hWnd)); return (int)::SendMessage(m_hWnd, CB_GETCURSEL, 0, 0); }

  0000a	6a 00		 push	 0
  0000c	6a 00		 push	 0
  0000e	68 47 01 00 00	 push	 327			; 00000147H
  00013	ff b6 60 14 00
	00		 push	 DWORD PTR [esi+5216]
  00019	ff d7		 call	 edi
; File D:\git\src\IBK\IBK_DRFN\ProjSrc\SrcChartEx\ChartAddIn\ChartEnvSetupDlgAddIn\ChartEnvSetupDlgAddIn\Setting_Common_Type_A.cpp

; 1789 : 	if(m_cmbLineType2.GetCurSel() != 0 && m_cmbThickness2.GetCurSel() != 0 )

  0001b	85 c0		 test	 eax, eax
  0001d	74 35		 je	 SHORT $LN2@OnSelchang
; File C:\Program Files (x86)\Microsoft Visual Studio\2019\Community\VC\Tools\MSVC\14.29.30133\atlmfc\include\afxwin2.inl

; 765  : 	{ ASSERT(::IsWindow(m_hWnd)); return (int)::SendMessage(m_hWnd, CB_GETCURSEL, 0, 0); }

  0001f	6a 00		 push	 0
  00021	6a 00		 push	 0
  00023	68 47 01 00 00	 push	 327			; 00000147H
  00028	ff b6 d8 13 00
	00		 push	 DWORD PTR [esi+5080]
  0002e	ff d7		 call	 edi
; File D:\git\src\IBK\IBK_DRFN\ProjSrc\SrcChartEx\ChartAddIn\ChartEnvSetupDlgAddIn\ChartEnvSetupDlgAddIn\Setting_Common_Type_A.cpp

; 1789 : 	if(m_cmbLineType2.GetCurSel() != 0 && m_cmbThickness2.GetCurSel() != 0 )

  00030	85 c0		 test	 eax, eax
  00032	74 20		 je	 SHORT $LN2@OnSelchang

; 1790 : 	{
; 1791 : // 2008.01.25 by LYH >>
; 1792 : 		//AfxMessageBox(" \"\"     .");
; 1793 : 		AfxMessageBox(m_strMsgLineThick);

  00034	6a 00		 push	 0
  00036	6a 00		 push	 0
  00038	ff b6 dc 00 00
	00		 push	 DWORD PTR [esi+220]
  0003e	e8 00 00 00 00	 call	 ?AfxMessageBox@@YGHPBDII@Z ; AfxMessageBox
; File C:\Program Files (x86)\Microsoft Visual Studio\2019\Community\VC\Tools\MSVC\14.29.30133\atlmfc\include\afxwin2.inl

; 767  : 	{ ASSERT(::IsWindow(m_hWnd)); return (int)::SendMessage(m_hWnd, CB_SETCURSEL, nSelect, 0); }

  00043	6a 00		 push	 0
  00045	6a 00		 push	 0
  00047	68 4e 01 00 00	 push	 334			; 0000014eH
  0004c	ff b6 d8 13 00
	00		 push	 DWORD PTR [esi+5080]
  00052	ff d7		 call	 edi
$LN2@OnSelchang:
  00054	5f		 pop	 edi
; File D:\git\src\IBK\IBK_DRFN\ProjSrc\SrcChartEx\ChartAddIn\ChartEnvSetupDlgAddIn\ChartEnvSetupDlgAddIn\Setting_Common_Type_A.cpp

; 1797 : }

  00055	5e		 pop	 esi
  00056	c3		 ret	 0
?OnSelchangeCmbThickness2@CSetting_Common_Type_A@@IAEXXZ ENDP ; CSetting_Common_Type_A::OnSelchangeCmbThickness2
_TEXT	ENDS
; Function compile flags: /Ogtp
; File D:\git\src\IBK\IBK_DRFN\ProjSrc\SrcChartEx\ChartAddIn\ChartEnvSetupDlgAddIn\ChartEnvSetupDlgAddIn\Setting_Common_Type_A.cpp
;	COMDAT ?OnChkFillColor@CSetting_Common_Type_A@@IAEXXZ
_TEXT	SEGMENT
?OnChkFillColor@CSetting_Common_Type_A@@IAEXXZ PROC	; CSetting_Common_Type_A::OnChkFillColor, COMDAT
; _this$ = ecx

; 1783 : 	// TODO: Add your control notification handler code here
; 1784 : // 	m_btnFillColor.SetCheck( )
; 1785 : }

  00000	c2 00 00	 ret	 0
?OnChkFillColor@CSetting_Common_Type_A@@IAEXXZ ENDP	; CSetting_Common_Type_A::OnChkFillColor
_TEXT	ENDS
; Function compile flags: /Ogtp
; File D:\git\src\IBK\IBK_DRFN\ProjSrc\SrcChartEx\ChartAddIn\ChartEnvSetupDlgAddIn\ChartEnvSetupDlgAddIn\Setting_Common_Type_A.cpp
; File D:\git\src\IBK\IBK_DRFN\ProjSrc\SrcChartEx\ChartAddIn\ChartEnvSetupDlgAddIn\Include_AddIn_135914\I135914\_IString.h
; File D:\git\src\IBK\IBK_DRFN\ProjSrc\SrcChartEx\ChartAddIn\ChartEnvSetupDlgAddIn\ChartEnvSetupDlgAddIn\Setting_Common_Type_A.cpp
; File D:\git\src\IBK\IBK_DRFN\ProjSrc\SrcChartEx\ChartAddIn\ChartEnvSetupDlgAddIn\Include_AddIn_135914\I135914\_IString.h
; File C:\Program Files (x86)\Microsoft Visual Studio\2019\Community\VC\Tools\MSVC\14.29.30133\atlmfc\include\afxwin2.inl
; File C:\Program Files (x86)\Microsoft Visual Studio\2019\Community\VC\Tools\MSVC\14.29.30133\atlmfc\include\afxdlgs.h
; File D:\git\src\IBK\IBK_DRFN\ProjSrc\SrcChartEx\ChartAddIn\ChartEnvSetupDlgAddIn\ChartEnvSetupDlgAddIn\Setting_Common_Type_A.cpp
;	COMDAT ?OnBtnDown1@CSetting_Common_Type_A@@IAEXXZ
_TEXT	SEGMENT
_color$ = -232						; size = 208
_szGraphName$2 = -24					; size = 8
$T3 = -16						; size = 4
__$EHRec$ = -12						; size = 12
?OnBtnDown1@CSetting_Common_Type_A@@IAEXXZ PROC		; CSetting_Common_Type_A::OnBtnDown1, COMDAT
; _this$ = ecx

; 1748 : {

  00000	55		 push	 ebp
  00001	8b ec		 mov	 ebp, esp
  00003	6a ff		 push	 -1
  00005	68 00 00 00 00	 push	 __ehhandler$?OnBtnDown1@CSetting_Common_Type_A@@IAEXXZ
  0000a	64 a1 00 00 00
	00		 mov	 eax, DWORD PTR fs:0
  00010	50		 push	 eax
  00011	81 ec dc 00 00
	00		 sub	 esp, 220		; 000000dcH
  00017	53		 push	 ebx
  00018	56		 push	 esi
  00019	57		 push	 edi
  0001a	a1 00 00 00 00	 mov	 eax, DWORD PTR ___security_cookie
  0001f	33 c5		 xor	 eax, ebp
  00021	50		 push	 eax
  00022	8d 45 f4	 lea	 eax, DWORD PTR __$EHRec$[ebp]
  00025	64 a3 00 00 00
	00		 mov	 DWORD PTR fs:0, eax
  0002b	8b f1		 mov	 esi, ecx

; 1749 : 	// TODO: Add your control notification handler code here
; 1750 : 	if(m_nSubGraphIndex < 0) return;

  0002d	83 be cc 14 00
	00 00		 cmp	 DWORD PTR [esi+5324], 0
  00034	0f 8c 24 01 00
	00		 jl	 $LN23@OnBtnDown1

; 1751 : 	
; 1752 : 	COLORREF crColor = m_btnDown1Color.GetColor();

  0003a	8d 8e f8 01 00
	00		 lea	 ecx, DWORD PTR [esi+504]
  00040	e8 00 00 00 00	 call	 ?GetColor@CColorButton@@QAEKXZ ; CColorButton::GetColor

; 1753 : 	CColorDialog color(crColor, CC_FULLOPEN);

  00045	6a 00		 push	 0
  00047	6a 02		 push	 2
  00049	50		 push	 eax
  0004a	8d 8d 18 ff ff
	ff		 lea	 ecx, DWORD PTR _color$[ebp]
  00050	e8 00 00 00 00	 call	 ??0CColorDialog@@QAE@KKPAVCWnd@@@Z ; CColorDialog::CColorDialog

; 1754 : 	if(color.DoModal() == IDOK) 

  00055	8d 8d 18 ff ff
	ff		 lea	 ecx, DWORD PTR _color$[ebp]
  0005b	c7 45 fc 00 00
	00 00		 mov	 DWORD PTR __$EHRec$[ebp+8], 0
  00062	e8 00 00 00 00	 call	 ?DoModal@CColorDialog@@UAEHXZ ; CColorDialog::DoModal
  00067	83 f8 01	 cmp	 eax, 1
  0006a	0f 85 c9 00 00
	00		 jne	 $LN14@OnBtnDown1

; 1759 : 		ILPCSTR szGraphName = m_pIGraphInfo->GetGraphNameString();

  00070	8b 8e c4 00 00
	00		 mov	 ecx, DWORD PTR [esi+196]
  00076	8b 01		 mov	 eax, DWORD PTR [ecx]
  00078	ff 90 a0 00 00
	00		 call	 DWORD PTR [eax+160]
; File D:\git\src\IBK\IBK_DRFN\ProjSrc\SrcChartEx\ChartAddIn\ChartEnvSetupDlgAddIn\Include_AddIn_135914\I135914\_IString.h

; 39   : 		m_pIStrData = p_pIString;	// Do not AddRef(). Because It must be Return Value.

  0007e	8b f8		 mov	 edi, eax
  00080	89 7d ec	 mov	 DWORD PTR _szGraphName$2[ebp+4], edi

; 40   : 		if( m_pIStrData) m_szData = m_pIStrData->GetData();

  00083	85 ff		 test	 edi, edi
  00085	74 0b		 je	 SHORT $LN10@OnBtnDown1
  00087	8b 17		 mov	 edx, DWORD PTR [edi]
  00089	8b cf		 mov	 ecx, edi
  0008b	ff 52 10	 call	 DWORD PTR [edx+16]
  0008e	8b c8		 mov	 ecx, eax
  00090	eb 02		 jmp	 SHORT $LN30@OnBtnDown1
$LN10@OnBtnDown1:

; 41   : 		else m_szData = NULL;

  00092	33 c9		 xor	 ecx, ecx
$LN30@OnBtnDown1:
; File D:\git\src\IBK\IBK_DRFN\ProjSrc\SrcChartEx\ChartAddIn\ChartEnvSetupDlgAddIn\ChartEnvSetupDlgAddIn\Setting_Common_Type_A.cpp

; 1759 : 		ILPCSTR szGraphName = m_pIGraphInfo->GetGraphNameString();

  00094	89 4d e8	 mov	 DWORD PTR _szGraphName$2[ebp], ecx

; 1760 : // 2008.01.25 by LYH >>
; 1761 : //		if( !strcmp( szGraphName, ""))
; 1762 : 		if( !strcmp( szGraphName,  _MTEXT( C2_RAINBOW_CHART )))

  00097	a1 54 00 00 00	 mov	 eax, DWORD PTR ?g_iMetaTable@@3VIMetaTable@@A+84
  0009c	c6 45 fc 01	 mov	 BYTE PTR __$EHRec$[ebp+8], 1
  000a0	8b 80 30 03 00
	00		 mov	 eax, DWORD PTR [eax+816]
$LL25@OnBtnDown1:
  000a6	8a 11		 mov	 dl, BYTE PTR [ecx]
  000a8	3a 10		 cmp	 dl, BYTE PTR [eax]
  000aa	75 1a		 jne	 SHORT $LN26@OnBtnDown1
  000ac	84 d2		 test	 dl, dl
  000ae	74 12		 je	 SHORT $LN27@OnBtnDown1
  000b0	8a 51 01	 mov	 dl, BYTE PTR [ecx+1]
  000b3	3a 50 01	 cmp	 dl, BYTE PTR [eax+1]
  000b6	75 0e		 jne	 SHORT $LN26@OnBtnDown1
  000b8	83 c1 02	 add	 ecx, 2
  000bb	83 c0 02	 add	 eax, 2
  000be	84 d2		 test	 dl, dl
  000c0	75 e4		 jne	 SHORT $LL25@OnBtnDown1
$LN27@OnBtnDown1:
  000c2	33 c0		 xor	 eax, eax
  000c4	eb 05		 jmp	 SHORT $LN28@OnBtnDown1
$LN26@OnBtnDown1:
  000c6	1b c0		 sbb	 eax, eax
  000c8	83 c8 01	 or	 eax, 1
$LN28@OnBtnDown1:
  000cb	8b 8e c4 00 00
	00		 mov	 ecx, DWORD PTR [esi+196]
  000d1	8b 9e cc 14 00
	00		 mov	 ebx, DWORD PTR [esi+5324]
  000d7	ff 75 cc	 push	 DWORD PTR _color$[ebp+180]
  000da	8b 11		 mov	 edx, DWORD PTR [ecx]
  000dc	85 c0		 test	 eax, eax
  000de	75 0a		 jne	 SHORT $LN4@OnBtnDown1

; 1763 : // 2008.01.25 by LYH <<
; 1764 : 		{
; 1765 : 			m_pIGraphInfo->SetSubGraphColor( m_nSubGraphIndex, 2, color.GetColor());

  000e0	6a 02		 push	 2
  000e2	53		 push	 ebx
  000e3	ff 52 6c	 call	 DWORD PTR [edx+108]

; 1766 : 			m_btnDown1Color.SetColor( m_pIGraphInfo->GetSubGraphColor( m_nSubGraphIndex, 2));

  000e6	6a 02		 push	 2

; 1767 : 		}

  000e8	eb 1e		 jmp	 SHORT $LN31@OnBtnDown1
$LN4@OnBtnDown1:

; 1768 : 
; 1769 : 		else
; 1770 : 		{
; 1771 : 			m_pIGraphInfo->SetSubGraphColor( m_nSubGraphIndex, 3, color.GetColor());

  000ea	6a 03		 push	 3
  000ec	53		 push	 ebx
  000ed	ff 52 6c	 call	 DWORD PTR [edx+108]

; 1772 : 			m_pIGraphInfo->SetSubGraphColor( m_nSubGraphIndex, 4, color.GetColor());

  000f0	8b 8e c4 00 00
	00		 mov	 ecx, DWORD PTR [esi+196]
  000f6	ff 75 cc	 push	 DWORD PTR _color$[ebp+180]
  000f9	6a 04		 push	 4
  000fb	8b 01		 mov	 eax, DWORD PTR [ecx]
  000fd	ff b6 cc 14 00
	00		 push	 DWORD PTR [esi+5324]
  00103	ff 50 6c	 call	 DWORD PTR [eax+108]

; 1773 : 			m_btnDown1Color.SetColor( m_pIGraphInfo->GetSubGraphColor( m_nSubGraphIndex, 3));

  00106	6a 03		 push	 3
$LN31@OnBtnDown1:
; File D:\git\src\IBK\IBK_DRFN\ProjSrc\SrcChartEx\ChartAddIn\ChartEnvSetupDlgAddIn\Include_AddIn_135914\I135914\_IString.h

; 44   : 	{

  00108	8b 8e c4 00 00
	00		 mov	 ecx, DWORD PTR [esi+196]
  0010e	ff b6 cc 14 00
	00		 push	 DWORD PTR [esi+5324]
  00114	8b 01		 mov	 eax, DWORD PTR [ecx]
  00116	ff 50 64	 call	 DWORD PTR [eax+100]
  00119	89 45 f0	 mov	 DWORD PTR $T3[ebp], eax
  0011c	8d 8e f8 01 00
	00		 lea	 ecx, DWORD PTR [esi+504]
  00122	8d 45 f0	 lea	 eax, DWORD PTR $T3[ebp]
  00125	50		 push	 eax
  00126	e8 00 00 00 00	 call	 ?SetColor@CColorButton@@QAEXABK@Z ; CColorButton::SetColor
  0012b	c6 45 fc 02	 mov	 BYTE PTR __$EHRec$[ebp+8], 2

; 45   : 		if( m_pIStrData)

  0012f	85 ff		 test	 edi, edi
  00131	74 06		 je	 SHORT $LN14@OnBtnDown1

; 46   : 		{
; 47   : 			m_pIStrData->Release();

  00133	8b 07		 mov	 eax, DWORD PTR [edi]
  00135	57		 push	 edi
  00136	ff 50 08	 call	 DWORD PTR [eax+8]
$LN14@OnBtnDown1:
; File C:\Program Files (x86)\Microsoft Visual Studio\2019\Community\VC\Tools\MSVC\14.29.30133\atlmfc\include\afxwin2.inl

; 114  : 	{ ASSERT(::IsWindow(m_hWnd)); ::InvalidateRect(m_hWnd, NULL, bErase); }

  00139	6a 01		 push	 1
  0013b	6a 00		 push	 0
  0013d	ff b6 18 02 00
	00		 push	 DWORD PTR [esi+536]
  00143	ff 15 00 00 00
	00		 call	 DWORD PTR __imp__InvalidateRect@12
; File C:\Program Files (x86)\Microsoft Visual Studio\2019\Community\VC\Tools\MSVC\14.29.30133\atlmfc\include\afxdlgs.h

; 110  :     virtual ~CCommonDialog() {};

  00149	8d 8d 18 ff ff
	ff		 lea	 ecx, DWORD PTR _color$[ebp]
  0014f	c7 85 18 ff ff
	ff 00 00 00 00	 mov	 DWORD PTR _color$[ebp], OFFSET ??_7CCommonDialog@@6B@
  00159	e8 00 00 00 00	 call	 ??1CDialog@@UAE@XZ	; CDialog::~CDialog
$LN23@OnBtnDown1:
; File D:\git\src\IBK\IBK_DRFN\ProjSrc\SrcChartEx\ChartAddIn\ChartEnvSetupDlgAddIn\ChartEnvSetupDlgAddIn\Setting_Common_Type_A.cpp

; 1779 : }

  0015e	8b 4d f4	 mov	 ecx, DWORD PTR __$EHRec$[ebp]
  00161	64 89 0d 00 00
	00 00		 mov	 DWORD PTR fs:0, ecx
  00168	59		 pop	 ecx
  00169	5f		 pop	 edi
  0016a	5e		 pop	 esi
  0016b	5b		 pop	 ebx
  0016c	8b e5		 mov	 esp, ebp
  0016e	5d		 pop	 ebp
  0016f	c3		 ret	 0
_TEXT	ENDS
;	COMDAT text$x
text$x	SEGMENT
__unwindfunclet$?OnBtnDown1@CSetting_Common_Type_A@@IAEXXZ$0:
  00000	8d 8d 18 ff ff
	ff		 lea	 ecx, DWORD PTR _color$[ebp]
  00006	e9 00 00 00 00	 jmp	 ??1CColorDialog@@UAE@XZ
__unwindfunclet$?OnBtnDown1@CSetting_Common_Type_A@@IAEXXZ$1:
  0000b	8d 4d e8	 lea	 ecx, DWORD PTR _szGraphName$2[ebp]
  0000e	e9 00 00 00 00	 jmp	 ??1ILPCSTR135914@@QAE@XZ ; ILPCSTR135914::~ILPCSTR135914
  00013	cc		 int	 3
  00014	cc		 int	 3
  00015	cc		 int	 3
  00016	cc		 int	 3
  00017	cc		 int	 3
__ehhandler$?OnBtnDown1@CSetting_Common_Type_A@@IAEXXZ:
  00018	90		 npad	 1
  00019	90		 npad	 1
  0001a	8b 54 24 08	 mov	 edx, DWORD PTR [esp+8]
  0001e	8d 42 0c	 lea	 eax, DWORD PTR [edx+12]
  00021	8b 8a 14 ff ff
	ff		 mov	 ecx, DWORD PTR [edx-236]
  00027	33 c8		 xor	 ecx, eax
  00029	e8 00 00 00 00	 call	 @__security_check_cookie@4
  0002e	b8 00 00 00 00	 mov	 eax, OFFSET __ehfuncinfo$?OnBtnDown1@CSetting_Common_Type_A@@IAEXXZ
  00033	e9 00 00 00 00	 jmp	 ___CxxFrameHandler3
text$x	ENDS
?OnBtnDown1@CSetting_Common_Type_A@@IAEXXZ ENDP		; CSetting_Common_Type_A::OnBtnDown1
; Function compile flags: /Ogtp
; File D:\git\src\IBK\IBK_DRFN\ProjSrc\SrcChartEx\ChartAddIn\ChartEnvSetupDlgAddIn\ChartEnvSetupDlgAddIn\Setting_Common_Type_A.cpp
; File D:\git\src\IBK\IBK_DRFN\ProjSrc\SrcChartEx\ChartAddIn\ChartEnvSetupDlgAddIn\Include_AddIn_135914\I135914\_IString.h
; File D:\git\src\IBK\IBK_DRFN\ProjSrc\SrcChartEx\ChartAddIn\ChartEnvSetupDlgAddIn\ChartEnvSetupDlgAddIn\Setting_Common_Type_A.cpp
; File D:\git\src\IBK\IBK_DRFN\ProjSrc\SrcChartEx\ChartAddIn\ChartEnvSetupDlgAddIn\Include_AddIn_135914\I135914\_IString.h
; File C:\Program Files (x86)\Microsoft Visual Studio\2019\Community\VC\Tools\MSVC\14.29.30133\atlmfc\include\afxwin2.inl
; File C:\Program Files (x86)\Microsoft Visual Studio\2019\Community\VC\Tools\MSVC\14.29.30133\atlmfc\include\afxdlgs.h
; File D:\git\src\IBK\IBK_DRFN\ProjSrc\SrcChartEx\ChartAddIn\ChartEnvSetupDlgAddIn\ChartEnvSetupDlgAddIn\Setting_Common_Type_A.cpp
;	COMDAT ?OnBtnUp1@CSetting_Common_Type_A@@IAEXXZ
_TEXT	SEGMENT
_color$ = -232						; size = 208
_szGraphName$2 = -24					; size = 8
$T3 = -16						; size = 4
__$EHRec$ = -12						; size = 12
?OnBtnUp1@CSetting_Common_Type_A@@IAEXXZ PROC		; CSetting_Common_Type_A::OnBtnUp1, COMDAT
; _this$ = ecx

; 1710 : {

  00000	55		 push	 ebp
  00001	8b ec		 mov	 ebp, esp
  00003	6a ff		 push	 -1
  00005	68 00 00 00 00	 push	 __ehhandler$?OnBtnUp1@CSetting_Common_Type_A@@IAEXXZ
  0000a	64 a1 00 00 00
	00		 mov	 eax, DWORD PTR fs:0
  00010	50		 push	 eax
  00011	81 ec dc 00 00
	00		 sub	 esp, 220		; 000000dcH
  00017	53		 push	 ebx
  00018	56		 push	 esi
  00019	57		 push	 edi
  0001a	a1 00 00 00 00	 mov	 eax, DWORD PTR ___security_cookie
  0001f	33 c5		 xor	 eax, ebp
  00021	50		 push	 eax
  00022	8d 45 f4	 lea	 eax, DWORD PTR __$EHRec$[ebp]
  00025	64 a3 00 00 00
	00		 mov	 DWORD PTR fs:0, eax
  0002b	8b f1		 mov	 esi, ecx

; 1711 : 	// TODO: Add your control notification handler code here
; 1712 : 	if(m_nSubGraphIndex < 0) return;

  0002d	83 be cc 14 00
	00 00		 cmp	 DWORD PTR [esi+5324], 0
  00034	0f 8c 1f 01 00
	00		 jl	 $LN23@OnBtnUp1

; 1713 : 	
; 1714 : 	COLORREF crColor = m_btnUp1Color.GetColor();

  0003a	8d 8e 80 02 00
	00		 lea	 ecx, DWORD PTR [esi+640]
  00040	e8 00 00 00 00	 call	 ?GetColor@CColorButton@@QAEKXZ ; CColorButton::GetColor

; 1715 : 	CColorDialog color(crColor, CC_FULLOPEN);

  00045	6a 00		 push	 0
  00047	6a 02		 push	 2
  00049	50		 push	 eax
  0004a	8d 8d 18 ff ff
	ff		 lea	 ecx, DWORD PTR _color$[ebp]
  00050	e8 00 00 00 00	 call	 ??0CColorDialog@@QAE@KKPAVCWnd@@@Z ; CColorDialog::CColorDialog

; 1716 : 	if(color.DoModal() == IDOK) 

  00055	8d 8d 18 ff ff
	ff		 lea	 ecx, DWORD PTR _color$[ebp]
  0005b	c7 45 fc 00 00
	00 00		 mov	 DWORD PTR __$EHRec$[ebp+8], 0
  00062	e8 00 00 00 00	 call	 ?DoModal@CColorDialog@@UAEHXZ ; CColorDialog::DoModal
  00067	83 f8 01	 cmp	 eax, 1
  0006a	0f 85 c4 00 00
	00		 jne	 $LN14@OnBtnUp1

; 1721 : 		ILPCSTR szGraphName = m_pIGraphInfo->GetGraphNameString();

  00070	8b 8e c4 00 00
	00		 mov	 ecx, DWORD PTR [esi+196]
  00076	8b 01		 mov	 eax, DWORD PTR [ecx]
  00078	ff 90 a0 00 00
	00		 call	 DWORD PTR [eax+160]
; File D:\git\src\IBK\IBK_DRFN\ProjSrc\SrcChartEx\ChartAddIn\ChartEnvSetupDlgAddIn\Include_AddIn_135914\I135914\_IString.h

; 39   : 		m_pIStrData = p_pIString;	// Do not AddRef(). Because It must be Return Value.

  0007e	8b f8		 mov	 edi, eax
  00080	89 7d ec	 mov	 DWORD PTR _szGraphName$2[ebp+4], edi

; 40   : 		if( m_pIStrData) m_szData = m_pIStrData->GetData();

  00083	85 ff		 test	 edi, edi
  00085	74 0b		 je	 SHORT $LN10@OnBtnUp1
  00087	8b 17		 mov	 edx, DWORD PTR [edi]
  00089	8b cf		 mov	 ecx, edi
  0008b	ff 52 10	 call	 DWORD PTR [edx+16]
  0008e	8b c8		 mov	 ecx, eax
  00090	eb 02		 jmp	 SHORT $LN30@OnBtnUp1
$LN10@OnBtnUp1:

; 41   : 		else m_szData = NULL;

  00092	33 c9		 xor	 ecx, ecx
$LN30@OnBtnUp1:
; File D:\git\src\IBK\IBK_DRFN\ProjSrc\SrcChartEx\ChartAddIn\ChartEnvSetupDlgAddIn\ChartEnvSetupDlgAddIn\Setting_Common_Type_A.cpp

; 1721 : 		ILPCSTR szGraphName = m_pIGraphInfo->GetGraphNameString();

  00094	89 4d e8	 mov	 DWORD PTR _szGraphName$2[ebp], ecx

; 1722 : // 2008.01.25 by LYH >>
; 1723 : 		//if( !strcmp( szGraphName, ""))
; 1724 : 		if( !strcmp( szGraphName,  _MTEXT( C2_RAINBOW_CHART )))

  00097	a1 54 00 00 00	 mov	 eax, DWORD PTR ?g_iMetaTable@@3VIMetaTable@@A+84
  0009c	c6 45 fc 01	 mov	 BYTE PTR __$EHRec$[ebp+8], 1
  000a0	8b 80 30 03 00
	00		 mov	 eax, DWORD PTR [eax+816]
$LL25@OnBtnUp1:
  000a6	8a 11		 mov	 dl, BYTE PTR [ecx]
  000a8	3a 10		 cmp	 dl, BYTE PTR [eax]
  000aa	75 1a		 jne	 SHORT $LN26@OnBtnUp1
  000ac	84 d2		 test	 dl, dl
  000ae	74 12		 je	 SHORT $LN27@OnBtnUp1
  000b0	8a 51 01	 mov	 dl, BYTE PTR [ecx+1]
  000b3	3a 50 01	 cmp	 dl, BYTE PTR [eax+1]
  000b6	75 0e		 jne	 SHORT $LN26@OnBtnUp1
  000b8	83 c1 02	 add	 ecx, 2
  000bb	83 c0 02	 add	 eax, 2
  000be	84 d2		 test	 dl, dl
  000c0	75 e4		 jne	 SHORT $LL25@OnBtnUp1
$LN27@OnBtnUp1:
  000c2	33 c0		 xor	 eax, eax
  000c4	eb 05		 jmp	 SHORT $LN28@OnBtnUp1
$LN26@OnBtnUp1:
  000c6	1b c0		 sbb	 eax, eax
  000c8	83 c8 01	 or	 eax, 1
$LN28@OnBtnUp1:
  000cb	8b 8e c4 00 00
	00		 mov	 ecx, DWORD PTR [esi+196]
  000d1	8b 9e cc 14 00
	00		 mov	 ebx, DWORD PTR [esi+5324]
  000d7	ff 75 cc	 push	 DWORD PTR _color$[ebp+180]
  000da	8b 11		 mov	 edx, DWORD PTR [ecx]
  000dc	6a 01		 push	 1
  000de	53		 push	 ebx
  000df	85 c0		 test	 eax, eax
  000e1	75 05		 jne	 SHORT $LN4@OnBtnUp1

; 1725 : // 2008.01.25 by LYH <<
; 1726 : 			m_pIGraphInfo->SetSubGraphColor( m_nSubGraphIndex, 1, color.GetColor());

  000e3	ff 52 6c	 call	 DWORD PTR [edx+108]
  000e6	eb 19		 jmp	 SHORT $LN5@OnBtnUp1
$LN4@OnBtnUp1:

; 1727 : 		else
; 1728 : 		{
; 1729 : 			m_pIGraphInfo->SetSubGraphColor( m_nSubGraphIndex, 1, color.GetColor());

  000e8	ff 52 6c	 call	 DWORD PTR [edx+108]

; 1730 : 			m_pIGraphInfo->SetSubGraphColor( m_nSubGraphIndex, 2, color.GetColor());

  000eb	8b 8e c4 00 00
	00		 mov	 ecx, DWORD PTR [esi+196]
  000f1	ff 75 cc	 push	 DWORD PTR _color$[ebp+180]
  000f4	6a 02		 push	 2
  000f6	8b 01		 mov	 eax, DWORD PTR [ecx]
  000f8	ff b6 cc 14 00
	00		 push	 DWORD PTR [esi+5324]
  000fe	ff 50 6c	 call	 DWORD PTR [eax+108]
$LN5@OnBtnUp1:

; 1731 : 		}
; 1732 : 
; 1733 : 		m_btnUp1Color.SetColor( m_pIGraphInfo->GetSubGraphColor( m_nSubGraphIndex, 1));

  00101	8b 8e c4 00 00
	00		 mov	 ecx, DWORD PTR [esi+196]
  00107	6a 01		 push	 1
  00109	ff b6 cc 14 00
	00		 push	 DWORD PTR [esi+5324]
  0010f	8b 01		 mov	 eax, DWORD PTR [ecx]
  00111	ff 50 64	 call	 DWORD PTR [eax+100]
  00114	89 45 f0	 mov	 DWORD PTR $T3[ebp], eax
  00117	8d 8e 80 02 00
	00		 lea	 ecx, DWORD PTR [esi+640]
  0011d	8d 45 f0	 lea	 eax, DWORD PTR $T3[ebp]
  00120	50		 push	 eax
  00121	e8 00 00 00 00	 call	 ?SetColor@CColorButton@@QAEXABK@Z ; CColorButton::SetColor
; File D:\git\src\IBK\IBK_DRFN\ProjSrc\SrcChartEx\ChartAddIn\ChartEnvSetupDlgAddIn\Include_AddIn_135914\I135914\_IString.h

; 44   : 	{

  00126	c6 45 fc 02	 mov	 BYTE PTR __$EHRec$[ebp+8], 2

; 45   : 		if( m_pIStrData)

  0012a	85 ff		 test	 edi, edi
  0012c	74 06		 je	 SHORT $LN14@OnBtnUp1

; 46   : 		{
; 47   : 			m_pIStrData->Release();

  0012e	8b 07		 mov	 eax, DWORD PTR [edi]
  00130	57		 push	 edi
  00131	ff 50 08	 call	 DWORD PTR [eax+8]
$LN14@OnBtnUp1:
; File C:\Program Files (x86)\Microsoft Visual Studio\2019\Community\VC\Tools\MSVC\14.29.30133\atlmfc\include\afxwin2.inl

; 114  : 	{ ASSERT(::IsWindow(m_hWnd)); ::InvalidateRect(m_hWnd, NULL, bErase); }

  00134	6a 01		 push	 1
  00136	6a 00		 push	 0
  00138	ff b6 a0 02 00
	00		 push	 DWORD PTR [esi+672]
  0013e	ff 15 00 00 00
	00		 call	 DWORD PTR __imp__InvalidateRect@12
; File C:\Program Files (x86)\Microsoft Visual Studio\2019\Community\VC\Tools\MSVC\14.29.30133\atlmfc\include\afxdlgs.h

; 110  :     virtual ~CCommonDialog() {};

  00144	8d 8d 18 ff ff
	ff		 lea	 ecx, DWORD PTR _color$[ebp]
  0014a	c7 85 18 ff ff
	ff 00 00 00 00	 mov	 DWORD PTR _color$[ebp], OFFSET ??_7CCommonDialog@@6B@
  00154	e8 00 00 00 00	 call	 ??1CDialog@@UAE@XZ	; CDialog::~CDialog
$LN23@OnBtnUp1:
; File D:\git\src\IBK\IBK_DRFN\ProjSrc\SrcChartEx\ChartAddIn\ChartEnvSetupDlgAddIn\ChartEnvSetupDlgAddIn\Setting_Common_Type_A.cpp

; 1738 : }

  00159	8b 4d f4	 mov	 ecx, DWORD PTR __$EHRec$[ebp]
  0015c	64 89 0d 00 00
	00 00		 mov	 DWORD PTR fs:0, ecx
  00163	59		 pop	 ecx
  00164	5f		 pop	 edi
  00165	5e		 pop	 esi
  00166	5b		 pop	 ebx
  00167	8b e5		 mov	 esp, ebp
  00169	5d		 pop	 ebp
  0016a	c3		 ret	 0
_TEXT	ENDS
;	COMDAT text$x
text$x	SEGMENT
__unwindfunclet$?OnBtnUp1@CSetting_Common_Type_A@@IAEXXZ$0:
  00000	8d 8d 18 ff ff
	ff		 lea	 ecx, DWORD PTR _color$[ebp]
  00006	e9 00 00 00 00	 jmp	 ??1CColorDialog@@UAE@XZ
__unwindfunclet$?OnBtnUp1@CSetting_Common_Type_A@@IAEXXZ$1:
  0000b	8d 4d e8	 lea	 ecx, DWORD PTR _szGraphName$2[ebp]
  0000e	e9 00 00 00 00	 jmp	 ??1ILPCSTR135914@@QAE@XZ ; ILPCSTR135914::~ILPCSTR135914
  00013	cc		 int	 3
  00014	cc		 int	 3
  00015	cc		 int	 3
  00016	cc		 int	 3
  00017	cc		 int	 3
__ehhandler$?OnBtnUp1@CSetting_Common_Type_A@@IAEXXZ:
  00018	90		 npad	 1
  00019	90		 npad	 1
  0001a	8b 54 24 08	 mov	 edx, DWORD PTR [esp+8]
  0001e	8d 42 0c	 lea	 eax, DWORD PTR [edx+12]
  00021	8b 8a 14 ff ff
	ff		 mov	 ecx, DWORD PTR [edx-236]
  00027	33 c8		 xor	 ecx, eax
  00029	e8 00 00 00 00	 call	 @__security_check_cookie@4
  0002e	b8 00 00 00 00	 mov	 eax, OFFSET __ehfuncinfo$?OnBtnUp1@CSetting_Common_Type_A@@IAEXXZ
  00033	e9 00 00 00 00	 jmp	 ___CxxFrameHandler3
text$x	ENDS
?OnBtnUp1@CSetting_Common_Type_A@@IAEXXZ ENDP		; CSetting_Common_Type_A::OnBtnUp1
; Function compile flags: /Ogtp
; File D:\git\src\IBK\IBK_DRFN\ProjSrc\SrcChartEx\ChartAddIn\ChartEnvSetupDlgAddIn\ChartEnvSetupDlgAddIn\Setting_Common_Type_A.cpp
; File C:\Program Files (x86)\Microsoft Visual Studio\2019\Community\VC\Tools\MSVC\14.29.30133\atlmfc\include\afxwin2.inl
; File C:\Program Files (x86)\Microsoft Visual Studio\2019\Community\VC\Tools\MSVC\14.29.30133\atlmfc\include\afxdlgs.h
; File D:\git\src\IBK\IBK_DRFN\ProjSrc\SrcChartEx\ChartAddIn\ChartEnvSetupDlgAddIn\ChartEnvSetupDlgAddIn\Setting_Common_Type_A.cpp
;	COMDAT ?OnBtnSteadyColor@CSetting_Common_Type_A@@IAEXXZ
_TEXT	SEGMENT
_color$ = -224						; size = 208
$T2 = -16						; size = 4
__$EHRec$ = -12						; size = 12
?OnBtnSteadyColor@CSetting_Common_Type_A@@IAEXXZ PROC	; CSetting_Common_Type_A::OnBtnSteadyColor, COMDAT
; _this$ = ecx

; 1671 : {

  00000	55		 push	 ebp
  00001	8b ec		 mov	 ebp, esp
  00003	6a ff		 push	 -1
  00005	68 00 00 00 00	 push	 __ehhandler$?OnBtnSteadyColor@CSetting_Common_Type_A@@IAEXXZ
  0000a	64 a1 00 00 00
	00		 mov	 eax, DWORD PTR fs:0
  00010	50		 push	 eax
  00011	81 ec d4 00 00
	00		 sub	 esp, 212		; 000000d4H
  00017	56		 push	 esi
  00018	57		 push	 edi
  00019	a1 00 00 00 00	 mov	 eax, DWORD PTR ___security_cookie
  0001e	33 c5		 xor	 eax, ebp
  00020	50		 push	 eax
  00021	8d 45 f4	 lea	 eax, DWORD PTR __$EHRec$[ebp]
  00024	64 a3 00 00 00
	00		 mov	 DWORD PTR fs:0, eax
  0002a	8b f1		 mov	 esi, ecx

; 1672 : 	// TODO: Add your control notification handler code here
; 1673 : 	if(m_nSubGraphIndex < 0) return;

  0002c	83 be cc 14 00
	00 00		 cmp	 DWORD PTR [esi+5324], 0
  00033	0f 8c ce 00 00
	00		 jl	 $LN15@OnBtnStead

; 1674 : 	
; 1675 : 	COLORREF crColor = m_btnSteadyColor.GetColor();

  00039	8d 8e 90 03 00
	00		 lea	 ecx, DWORD PTR [esi+912]
  0003f	e8 00 00 00 00	 call	 ?GetColor@CColorButton@@QAEKXZ ; CColorButton::GetColor

; 1676 : 	CColorDialog color(crColor, CC_FULLOPEN);

  00044	6a 00		 push	 0
  00046	6a 02		 push	 2
  00048	50		 push	 eax
  00049	8d 8d 20 ff ff
	ff		 lea	 ecx, DWORD PTR _color$[ebp]
  0004f	e8 00 00 00 00	 call	 ??0CColorDialog@@QAE@KKPAVCWnd@@@Z ; CColorDialog::CColorDialog

; 1677 : 	if(color.DoModal() == IDOK) 

  00054	8d 8d 20 ff ff
	ff		 lea	 ecx, DWORD PTR _color$[ebp]
  0005a	c7 45 fc 00 00
	00 00		 mov	 DWORD PTR __$EHRec$[ebp+8], 0
  00061	e8 00 00 00 00	 call	 ?DoModal@CColorDialog@@UAEHXZ ; CColorDialog::DoModal
  00066	83 f8 01	 cmp	 eax, 1
  00069	75 77		 jne	 SHORT $LN6@OnBtnStead

; 1678 : 	{
; 1679 : 		//   ""       .
; 1680 : 		if( m_pIGraphInfo->GetSubGraphStyle( m_nSubGraphIndex) ==  CGraphBaseData::FillLine )

  0006b	8b 8e c4 00 00
	00		 mov	 ecx, DWORD PTR [esi+196]
  00071	ff b6 cc 14 00
	00		 push	 DWORD PTR [esi+5324]
  00077	8b 01		 mov	 eax, DWORD PTR [ecx]
  00079	ff 50 54	 call	 DWORD PTR [eax+84]
  0007c	8b 8e c4 00 00
	00		 mov	 ecx, DWORD PTR [esi+196]
  00082	8b 11		 mov	 edx, DWORD PTR [ecx]
  00084	83 f8 01	 cmp	 eax, 1
  00087	75 10		 jne	 SHORT $LN4@OnBtnStead

; 1681 : 		{
; 1682 : 			m_pIGraphInfo->SetSubGraphColor( m_nSubGraphIndex, 5, color.GetColor());

  00089	ff 75 d4	 push	 DWORD PTR _color$[ebp+180]
  0008c	6a 05		 push	 5
  0008e	ff b6 cc 14 00
	00		 push	 DWORD PTR [esi+5324]
  00094	ff 52 6c	 call	 DWORD PTR [edx+108]

; 1683 : 
; 1684 : // (2009/10/8 - Seung-Won, Bae) why? only psychological line? how about rsi?
; 1685 : //			ILPCSTR szGraphName = m_pIGraphInfo->GetGraphNameString();
; 1686 : //			if( strcmp( szGraphName, "Psychological Line"))
; 1687 : //				m_pIGraphInfo->SetSubGraphColor( m_nSubGraphIndex, 6, color.GetColor());
; 1688 : 			
; 1689 : 			m_btnSteadyColor.SetColor( m_pIGraphInfo->GetSubGraphColor( m_nSubGraphIndex, 5));
; 1690 : 		}

  00097	eb 24		 jmp	 SHORT $LN18@OnBtnStead
$LN4@OnBtnStead:

; 1691 : 
; 1692 : 		else if( m_pIGraphInfo->GetSubGraphStyle( m_nSubGraphIndex) ==  CGraphBaseData::BoxBar )

  00099	ff b6 cc 14 00
	00		 push	 DWORD PTR [esi+5324]
  0009f	ff 52 54	 call	 DWORD PTR [edx+84]
  000a2	83 f8 04	 cmp	 eax, 4
  000a5	75 3b		 jne	 SHORT $LN6@OnBtnStead

; 1693 : 		{
; 1694 : 			m_pIGraphInfo->SetSubGraphColor( m_nSubGraphIndex, 5, color.GetColor());

  000a7	8b 8e c4 00 00
	00		 mov	 ecx, DWORD PTR [esi+196]
  000ad	ff 75 d4	 push	 DWORD PTR _color$[ebp+180]
  000b0	6a 05		 push	 5
  000b2	8b 01		 mov	 eax, DWORD PTR [ecx]
  000b4	ff b6 cc 14 00
	00		 push	 DWORD PTR [esi+5324]
  000ba	ff 50 6c	 call	 DWORD PTR [eax+108]
$LN18@OnBtnStead:
; File C:\Program Files (x86)\Microsoft Visual Studio\2019\Community\VC\Tools\MSVC\14.29.30133\atlmfc\include\afxwin2.inl

; 114  : 	{ ASSERT(::IsWindow(m_hWnd)); ::InvalidateRect(m_hWnd, NULL, bErase); }

  000bd	8b 8e c4 00 00
	00		 mov	 ecx, DWORD PTR [esi+196]
  000c3	6a 05		 push	 5
  000c5	ff b6 cc 14 00
	00		 push	 DWORD PTR [esi+5324]
  000cb	8b 01		 mov	 eax, DWORD PTR [ecx]
  000cd	ff 50 64	 call	 DWORD PTR [eax+100]
  000d0	89 45 f0	 mov	 DWORD PTR $T2[ebp], eax
  000d3	8d 8e 90 03 00
	00		 lea	 ecx, DWORD PTR [esi+912]
  000d9	8d 45 f0	 lea	 eax, DWORD PTR $T2[ebp]
  000dc	50		 push	 eax
  000dd	e8 00 00 00 00	 call	 ?SetColor@CColorButton@@QAEXABK@Z ; CColorButton::SetColor
$LN6@OnBtnStead:
  000e2	6a 01		 push	 1
  000e4	6a 00		 push	 0
  000e6	ff b6 b0 03 00
	00		 push	 DWORD PTR [esi+944]
  000ec	ff 15 00 00 00
	00		 call	 DWORD PTR __imp__InvalidateRect@12
; File C:\Program Files (x86)\Microsoft Visual Studio\2019\Community\VC\Tools\MSVC\14.29.30133\atlmfc\include\afxdlgs.h

; 110  :     virtual ~CCommonDialog() {};

  000f2	8d 8d 20 ff ff
	ff		 lea	 ecx, DWORD PTR _color$[ebp]
  000f8	c7 85 20 ff ff
	ff 00 00 00 00	 mov	 DWORD PTR _color$[ebp], OFFSET ??_7CCommonDialog@@6B@
  00102	e8 00 00 00 00	 call	 ??1CDialog@@UAE@XZ	; CDialog::~CDialog
$LN15@OnBtnStead:
; File D:\git\src\IBK\IBK_DRFN\ProjSrc\SrcChartEx\ChartAddIn\ChartEnvSetupDlgAddIn\ChartEnvSetupDlgAddIn\Setting_Common_Type_A.cpp

; 1700 : }

  00107	8b 4d f4	 mov	 ecx, DWORD PTR __$EHRec$[ebp]
  0010a	64 89 0d 00 00
	00 00		 mov	 DWORD PTR fs:0, ecx
  00111	59		 pop	 ecx
  00112	5f		 pop	 edi
  00113	5e		 pop	 esi
  00114	8b e5		 mov	 esp, ebp
  00116	5d		 pop	 ebp
  00117	c3		 ret	 0
_TEXT	ENDS
;	COMDAT text$x
text$x	SEGMENT
__unwindfunclet$?OnBtnSteadyColor@CSetting_Common_Type_A@@IAEXXZ$0:
  00000	8d 8d 20 ff ff
	ff		 lea	 ecx, DWORD PTR _color$[ebp]
  00006	e9 00 00 00 00	 jmp	 ??1CColorDialog@@UAE@XZ
  0000b	cc		 int	 3
  0000c	cc		 int	 3
  0000d	cc		 int	 3
  0000e	cc		 int	 3
  0000f	cc		 int	 3
__ehhandler$?OnBtnSteadyColor@CSetting_Common_Type_A@@IAEXXZ:
  00010	90		 npad	 1
  00011	90		 npad	 1
  00012	8b 54 24 08	 mov	 edx, DWORD PTR [esp+8]
  00016	8d 42 0c	 lea	 eax, DWORD PTR [edx+12]
  00019	8b 8a 20 ff ff
	ff		 mov	 ecx, DWORD PTR [edx-224]
  0001f	33 c8		 xor	 ecx, eax
  00021	e8 00 00 00 00	 call	 @__security_check_cookie@4
  00026	b8 00 00 00 00	 mov	 eax, OFFSET __ehfuncinfo$?OnBtnSteadyColor@CSetting_Common_Type_A@@IAEXXZ
  0002b	e9 00 00 00 00	 jmp	 ___CxxFrameHandler3
text$x	ENDS
?OnBtnSteadyColor@CSetting_Common_Type_A@@IAEXXZ ENDP	; CSetting_Common_Type_A::OnBtnSteadyColor
; Function compile flags: /Ogtp
; File D:\git\src\IBK\IBK_DRFN\ProjSrc\SrcChartEx\ChartAddIn\ChartEnvSetupDlgAddIn\ChartEnvSetupDlgAddIn\Setting_Common_Type_A.cpp
; File C:\Program Files (x86)\Microsoft Visual Studio\2019\Community\VC\Tools\MSVC\14.29.30133\atlmfc\include\afxwin2.inl
; File C:\Program Files (x86)\Microsoft Visual Studio\2019\Community\VC\Tools\MSVC\14.29.30133\atlmfc\include\afxdlgs.h
; File D:\git\src\IBK\IBK_DRFN\ProjSrc\SrcChartEx\ChartAddIn\ChartEnvSetupDlgAddIn\ChartEnvSetupDlgAddIn\Setting_Common_Type_A.cpp
;	COMDAT ?OnBtnDownColor@CSetting_Common_Type_A@@IAEXXZ
_TEXT	SEGMENT
_color$ = -224						; size = 208
$T2 = -16						; size = 4
__$EHRec$ = -12						; size = 12
?OnBtnDownColor@CSetting_Common_Type_A@@IAEXXZ PROC	; CSetting_Common_Type_A::OnBtnDownColor, COMDAT
; _this$ = ecx

; 1647 : {

  00000	55		 push	 ebp
  00001	8b ec		 mov	 ebp, esp
  00003	6a ff		 push	 -1
  00005	68 00 00 00 00	 push	 __ehhandler$?OnBtnDownColor@CSetting_Common_Type_A@@IAEXXZ
  0000a	64 a1 00 00 00
	00		 mov	 eax, DWORD PTR fs:0
  00010	50		 push	 eax
  00011	81 ec d4 00 00
	00		 sub	 esp, 212		; 000000d4H
  00017	56		 push	 esi
  00018	57		 push	 edi
  00019	a1 00 00 00 00	 mov	 eax, DWORD PTR ___security_cookie
  0001e	33 c5		 xor	 eax, ebp
  00020	50		 push	 eax
  00021	8d 45 f4	 lea	 eax, DWORD PTR __$EHRec$[ebp]
  00024	64 a3 00 00 00
	00		 mov	 DWORD PTR fs:0, eax
  0002a	8b f1		 mov	 esi, ecx

; 1648 : 	// TODO: Add your control notification handler code here
; 1649 : 	if(m_nSubGraphIndex < 0) return;

  0002c	83 be cc 14 00
	00 00		 cmp	 DWORD PTR [esi+5324], 0
  00033	0f 8c a8 00 00
	00		 jl	 $LN12@OnBtnDownC

; 1650 : 	
; 1651 : 	COLORREF crColor = m_btnDownColor.GetColor();

  00039	8d 8e 18 04 00
	00		 lea	 ecx, DWORD PTR [esi+1048]
  0003f	e8 00 00 00 00	 call	 ?GetColor@CColorButton@@QAEKXZ ; CColorButton::GetColor

; 1652 : 	CColorDialog color(crColor, CC_FULLOPEN);

  00044	6a 00		 push	 0
  00046	6a 02		 push	 2
  00048	50		 push	 eax
  00049	8d 8d 20 ff ff
	ff		 lea	 ecx, DWORD PTR _color$[ebp]
  0004f	e8 00 00 00 00	 call	 ??0CColorDialog@@QAE@KKPAVCWnd@@@Z ; CColorDialog::CColorDialog

; 1653 : 	if(color.DoModal() == IDOK) 

  00054	8d 8d 20 ff ff
	ff		 lea	 ecx, DWORD PTR _color$[ebp]
  0005a	c7 45 fc 00 00
	00 00		 mov	 DWORD PTR __$EHRec$[ebp+8], 0
  00061	e8 00 00 00 00	 call	 ?DoModal@CColorDialog@@UAEHXZ ; CColorDialog::DoModal
  00066	83 f8 01	 cmp	 eax, 1
  00069	75 51		 jne	 SHORT $LN3@OnBtnDownC

; 1654 : 	{
; 1655 : 		m_pIGraphInfo->SetSubGraphColor( m_nSubGraphIndex, 3, color.GetColor());

  0006b	8b 8e c4 00 00
	00		 mov	 ecx, DWORD PTR [esi+196]
  00071	ff 75 d4	 push	 DWORD PTR _color$[ebp+180]
  00074	6a 03		 push	 3
  00076	8b 01		 mov	 eax, DWORD PTR [ecx]
  00078	ff b6 cc 14 00
	00		 push	 DWORD PTR [esi+5324]
  0007e	ff 50 6c	 call	 DWORD PTR [eax+108]

; 1656 : 		m_pIGraphInfo->SetSubGraphColor( m_nSubGraphIndex, 4, color.GetColor());

  00081	8b 8e c4 00 00
	00		 mov	 ecx, DWORD PTR [esi+196]
  00087	ff 75 d4	 push	 DWORD PTR _color$[ebp+180]
  0008a	6a 04		 push	 4
  0008c	8b 01		 mov	 eax, DWORD PTR [ecx]
  0008e	ff b6 cc 14 00
	00		 push	 DWORD PTR [esi+5324]
  00094	ff 50 6c	 call	 DWORD PTR [eax+108]

; 1657 : 		m_btnDownColor.SetColor( m_pIGraphInfo->GetSubGraphColor( m_nSubGraphIndex, 3));

  00097	8b 8e c4 00 00
	00		 mov	 ecx, DWORD PTR [esi+196]
  0009d	6a 03		 push	 3
  0009f	ff b6 cc 14 00
	00		 push	 DWORD PTR [esi+5324]
  000a5	8b 01		 mov	 eax, DWORD PTR [ecx]
  000a7	ff 50 64	 call	 DWORD PTR [eax+100]
  000aa	89 45 f0	 mov	 DWORD PTR $T2[ebp], eax
  000ad	8d 8e 18 04 00
	00		 lea	 ecx, DWORD PTR [esi+1048]
  000b3	8d 45 f0	 lea	 eax, DWORD PTR $T2[ebp]
  000b6	50		 push	 eax
  000b7	e8 00 00 00 00	 call	 ?SetColor@CColorButton@@QAEXABK@Z ; CColorButton::SetColor
$LN3@OnBtnDownC:
; File C:\Program Files (x86)\Microsoft Visual Studio\2019\Community\VC\Tools\MSVC\14.29.30133\atlmfc\include\afxwin2.inl

; 114  : 	{ ASSERT(::IsWindow(m_hWnd)); ::InvalidateRect(m_hWnd, NULL, bErase); }

  000bc	6a 01		 push	 1
  000be	6a 00		 push	 0
  000c0	ff b6 38 04 00
	00		 push	 DWORD PTR [esi+1080]
  000c6	ff 15 00 00 00
	00		 call	 DWORD PTR __imp__InvalidateRect@12
; File C:\Program Files (x86)\Microsoft Visual Studio\2019\Community\VC\Tools\MSVC\14.29.30133\atlmfc\include\afxdlgs.h

; 110  :     virtual ~CCommonDialog() {};

  000cc	8d 8d 20 ff ff
	ff		 lea	 ecx, DWORD PTR _color$[ebp]
  000d2	c7 85 20 ff ff
	ff 00 00 00 00	 mov	 DWORD PTR _color$[ebp], OFFSET ??_7CCommonDialog@@6B@
  000dc	e8 00 00 00 00	 call	 ??1CDialog@@UAE@XZ	; CDialog::~CDialog
$LN12@OnBtnDownC:
; File D:\git\src\IBK\IBK_DRFN\ProjSrc\SrcChartEx\ChartAddIn\ChartEnvSetupDlgAddIn\ChartEnvSetupDlgAddIn\Setting_Common_Type_A.cpp

; 1661 : }

  000e1	8b 4d f4	 mov	 ecx, DWORD PTR __$EHRec$[ebp]
  000e4	64 89 0d 00 00
	00 00		 mov	 DWORD PTR fs:0, ecx
  000eb	59		 pop	 ecx
  000ec	5f		 pop	 edi
  000ed	5e		 pop	 esi
  000ee	8b e5		 mov	 esp, ebp
  000f0	5d		 pop	 ebp
  000f1	c3		 ret	 0
_TEXT	ENDS
;	COMDAT text$x
text$x	SEGMENT
__unwindfunclet$?OnBtnDownColor@CSetting_Common_Type_A@@IAEXXZ$0:
  00000	8d 8d 20 ff ff
	ff		 lea	 ecx, DWORD PTR _color$[ebp]
  00006	e9 00 00 00 00	 jmp	 ??1CColorDialog@@UAE@XZ
  0000b	cc		 int	 3
  0000c	cc		 int	 3
  0000d	cc		 int	 3
  0000e	cc		 int	 3
  0000f	cc		 int	 3
__ehhandler$?OnBtnDownColor@CSetting_Common_Type_A@@IAEXXZ:
  00010	90		 npad	 1
  00011	90		 npad	 1
  00012	8b 54 24 08	 mov	 edx, DWORD PTR [esp+8]
  00016	8d 42 0c	 lea	 eax, DWORD PTR [edx+12]
  00019	8b 8a 20 ff ff
	ff		 mov	 ecx, DWORD PTR [edx-224]
  0001f	33 c8		 xor	 ecx, eax
  00021	e8 00 00 00 00	 call	 @__security_check_cookie@4
  00026	b8 00 00 00 00	 mov	 eax, OFFSET __ehfuncinfo$?OnBtnDownColor@CSetting_Common_Type_A@@IAEXXZ
  0002b	e9 00 00 00 00	 jmp	 ___CxxFrameHandler3
text$x	ENDS
?OnBtnDownColor@CSetting_Common_Type_A@@IAEXXZ ENDP	; CSetting_Common_Type_A::OnBtnDownColor
; Function compile flags: /Ogtp
; File D:\git\src\IBK\IBK_DRFN\ProjSrc\SrcChartEx\ChartAddIn\ChartEnvSetupDlgAddIn\ChartEnvSetupDlgAddIn\Setting_Common_Type_A.cpp
; File C:\Program Files (x86)\Microsoft Visual Studio\2019\Community\VC\Tools\MSVC\14.29.30133\atlmfc\include\afxwin2.inl
; File C:\Program Files (x86)\Microsoft Visual Studio\2019\Community\VC\Tools\MSVC\14.29.30133\atlmfc\include\afxdlgs.h
; File D:\git\src\IBK\IBK_DRFN\ProjSrc\SrcChartEx\ChartAddIn\ChartEnvSetupDlgAddIn\ChartEnvSetupDlgAddIn\Setting_Common_Type_A.cpp
;	COMDAT ?OnBtnUpColor@CSetting_Common_Type_A@@IAEXXZ
_TEXT	SEGMENT
_color$ = -224						; size = 208
$T2 = -16						; size = 4
__$EHRec$ = -12						; size = 12
?OnBtnUpColor@CSetting_Common_Type_A@@IAEXXZ PROC	; CSetting_Common_Type_A::OnBtnUpColor, COMDAT
; _this$ = ecx

; 1623 : {

  00000	55		 push	 ebp
  00001	8b ec		 mov	 ebp, esp
  00003	6a ff		 push	 -1
  00005	68 00 00 00 00	 push	 __ehhandler$?OnBtnUpColor@CSetting_Common_Type_A@@IAEXXZ
  0000a	64 a1 00 00 00
	00		 mov	 eax, DWORD PTR fs:0
  00010	50		 push	 eax
  00011	81 ec d4 00 00
	00		 sub	 esp, 212		; 000000d4H
  00017	56		 push	 esi
  00018	57		 push	 edi
  00019	a1 00 00 00 00	 mov	 eax, DWORD PTR ___security_cookie
  0001e	33 c5		 xor	 eax, ebp
  00020	50		 push	 eax
  00021	8d 45 f4	 lea	 eax, DWORD PTR __$EHRec$[ebp]
  00024	64 a3 00 00 00
	00		 mov	 DWORD PTR fs:0, eax
  0002a	8b f1		 mov	 esi, ecx

; 1624 : 	// TODO: Add your control notification handler code here
; 1625 : 	if(m_nSubGraphIndex < 0) return;

  0002c	83 be cc 14 00
	00 00		 cmp	 DWORD PTR [esi+5324], 0
  00033	0f 8c a8 00 00
	00		 jl	 $LN12@OnBtnUpCol

; 1626 : 	
; 1627 : 	COLORREF crColor = m_btnUpColor.GetColor();

  00039	8d 8e 08 03 00
	00		 lea	 ecx, DWORD PTR [esi+776]
  0003f	e8 00 00 00 00	 call	 ?GetColor@CColorButton@@QAEKXZ ; CColorButton::GetColor

; 1628 : 	CColorDialog color(crColor, CC_FULLOPEN);

  00044	6a 00		 push	 0
  00046	6a 02		 push	 2
  00048	50		 push	 eax
  00049	8d 8d 20 ff ff
	ff		 lea	 ecx, DWORD PTR _color$[ebp]
  0004f	e8 00 00 00 00	 call	 ??0CColorDialog@@QAE@KKPAVCWnd@@@Z ; CColorDialog::CColorDialog

; 1629 : 	if(color.DoModal() == IDOK) 

  00054	8d 8d 20 ff ff
	ff		 lea	 ecx, DWORD PTR _color$[ebp]
  0005a	c7 45 fc 00 00
	00 00		 mov	 DWORD PTR __$EHRec$[ebp+8], 0
  00061	e8 00 00 00 00	 call	 ?DoModal@CColorDialog@@UAEHXZ ; CColorDialog::DoModal
  00066	83 f8 01	 cmp	 eax, 1
  00069	75 51		 jne	 SHORT $LN3@OnBtnUpCol

; 1630 : 	{
; 1631 : 		m_pIGraphInfo->SetSubGraphColor( m_nSubGraphIndex, 1, color.GetColor());

  0006b	8b 8e c4 00 00
	00		 mov	 ecx, DWORD PTR [esi+196]
  00071	ff 75 d4	 push	 DWORD PTR _color$[ebp+180]
  00074	6a 01		 push	 1
  00076	8b 01		 mov	 eax, DWORD PTR [ecx]
  00078	ff b6 cc 14 00
	00		 push	 DWORD PTR [esi+5324]
  0007e	ff 50 6c	 call	 DWORD PTR [eax+108]

; 1632 : 		m_pIGraphInfo->SetSubGraphColor( m_nSubGraphIndex, 2, color.GetColor());

  00081	8b 8e c4 00 00
	00		 mov	 ecx, DWORD PTR [esi+196]
  00087	ff 75 d4	 push	 DWORD PTR _color$[ebp+180]
  0008a	6a 02		 push	 2
  0008c	8b 01		 mov	 eax, DWORD PTR [ecx]
  0008e	ff b6 cc 14 00
	00		 push	 DWORD PTR [esi+5324]
  00094	ff 50 6c	 call	 DWORD PTR [eax+108]

; 1633 : 		m_btnUpColor.SetColor( m_pIGraphInfo->GetSubGraphColor( m_nSubGraphIndex, 1));

  00097	8b 8e c4 00 00
	00		 mov	 ecx, DWORD PTR [esi+196]
  0009d	6a 01		 push	 1
  0009f	ff b6 cc 14 00
	00		 push	 DWORD PTR [esi+5324]
  000a5	8b 01		 mov	 eax, DWORD PTR [ecx]
  000a7	ff 50 64	 call	 DWORD PTR [eax+100]
  000aa	89 45 f0	 mov	 DWORD PTR $T2[ebp], eax
  000ad	8d 8e 08 03 00
	00		 lea	 ecx, DWORD PTR [esi+776]
  000b3	8d 45 f0	 lea	 eax, DWORD PTR $T2[ebp]
  000b6	50		 push	 eax
  000b7	e8 00 00 00 00	 call	 ?SetColor@CColorButton@@QAEXABK@Z ; CColorButton::SetColor
$LN3@OnBtnUpCol:
; File C:\Program Files (x86)\Microsoft Visual Studio\2019\Community\VC\Tools\MSVC\14.29.30133\atlmfc\include\afxwin2.inl

; 114  : 	{ ASSERT(::IsWindow(m_hWnd)); ::InvalidateRect(m_hWnd, NULL, bErase); }

  000bc	6a 01		 push	 1
  000be	6a 00		 push	 0
  000c0	ff b6 28 03 00
	00		 push	 DWORD PTR [esi+808]
  000c6	ff 15 00 00 00
	00		 call	 DWORD PTR __imp__InvalidateRect@12
; File C:\Program Files (x86)\Microsoft Visual Studio\2019\Community\VC\Tools\MSVC\14.29.30133\atlmfc\include\afxdlgs.h

; 110  :     virtual ~CCommonDialog() {};

  000cc	8d 8d 20 ff ff
	ff		 lea	 ecx, DWORD PTR _color$[ebp]
  000d2	c7 85 20 ff ff
	ff 00 00 00 00	 mov	 DWORD PTR _color$[ebp], OFFSET ??_7CCommonDialog@@6B@
  000dc	e8 00 00 00 00	 call	 ??1CDialog@@UAE@XZ	; CDialog::~CDialog
$LN12@OnBtnUpCol:
; File D:\git\src\IBK\IBK_DRFN\ProjSrc\SrcChartEx\ChartAddIn\ChartEnvSetupDlgAddIn\ChartEnvSetupDlgAddIn\Setting_Common_Type_A.cpp

; 1637 : }

  000e1	8b 4d f4	 mov	 ecx, DWORD PTR __$EHRec$[ebp]
  000e4	64 89 0d 00 00
	00 00		 mov	 DWORD PTR fs:0, ecx
  000eb	59		 pop	 ecx
  000ec	5f		 pop	 edi
  000ed	5e		 pop	 esi
  000ee	8b e5		 mov	 esp, ebp
  000f0	5d		 pop	 ebp
  000f1	c3		 ret	 0
_TEXT	ENDS
;	COMDAT text$x
text$x	SEGMENT
__unwindfunclet$?OnBtnUpColor@CSetting_Common_Type_A@@IAEXXZ$0:
  00000	8d 8d 20 ff ff
	ff		 lea	 ecx, DWORD PTR _color$[ebp]
  00006	e9 00 00 00 00	 jmp	 ??1CColorDialog@@UAE@XZ
  0000b	cc		 int	 3
  0000c	cc		 int	 3
  0000d	cc		 int	 3
  0000e	cc		 int	 3
  0000f	cc		 int	 3
__ehhandler$?OnBtnUpColor@CSetting_Common_Type_A@@IAEXXZ:
  00010	90		 npad	 1
  00011	90		 npad	 1
  00012	8b 54 24 08	 mov	 edx, DWORD PTR [esp+8]
  00016	8d 42 0c	 lea	 eax, DWORD PTR [edx+12]
  00019	8b 8a 20 ff ff
	ff		 mov	 ecx, DWORD PTR [edx-224]
  0001f	33 c8		 xor	 ecx, eax
  00021	e8 00 00 00 00	 call	 @__security_check_cookie@4
  00026	b8 00 00 00 00	 mov	 eax, OFFSET __ehfuncinfo$?OnBtnUpColor@CSetting_Common_Type_A@@IAEXXZ
  0002b	e9 00 00 00 00	 jmp	 ___CxxFrameHandler3
text$x	ENDS
?OnBtnUpColor@CSetting_Common_Type_A@@IAEXXZ ENDP	; CSetting_Common_Type_A::OnBtnUpColor
; Function compile flags: /Ogtp
; File D:\git\src\IBK\IBK_DRFN\ProjSrc\SrcChartEx\ChartAddIn\ChartEnvSetupDlgAddIn\ChartEnvSetupDlgAddIn\Setting_Common_Type_A.cpp
; File C:\Program Files (x86)\Microsoft Visual Studio\2019\Community\VC\Tools\MSVC\14.29.30133\atlmfc\include\afxwin2.inl
; File C:\Program Files (x86)\Microsoft Visual Studio\2019\Community\VC\Tools\MSVC\14.29.30133\atlmfc\include\afxdlgs.h
; File D:\git\src\IBK\IBK_DRFN\ProjSrc\SrcChartEx\ChartAddIn\ChartEnvSetupDlgAddIn\ChartEnvSetupDlgAddIn\Setting_Common_Type_A.cpp
;	COMDAT ?OnColorButton@CSetting_Common_Type_A@@IAEXXZ
_TEXT	SEGMENT
_color$ = -224						; size = 208
$T2 = -16						; size = 4
__$EHRec$ = -12						; size = 12
?OnColorButton@CSetting_Common_Type_A@@IAEXXZ PROC	; CSetting_Common_Type_A::OnColorButton, COMDAT
; _this$ = ecx

; 1566 : {

  00000	55		 push	 ebp
  00001	8b ec		 mov	 ebp, esp
  00003	6a ff		 push	 -1
  00005	68 00 00 00 00	 push	 __ehhandler$?OnColorButton@CSetting_Common_Type_A@@IAEXXZ
  0000a	64 a1 00 00 00
	00		 mov	 eax, DWORD PTR fs:0
  00010	50		 push	 eax
  00011	81 ec d4 00 00
	00		 sub	 esp, 212		; 000000d4H
  00017	53		 push	 ebx
  00018	56		 push	 esi
  00019	57		 push	 edi
  0001a	a1 00 00 00 00	 mov	 eax, DWORD PTR ___security_cookie
  0001f	33 c5		 xor	 eax, ebp
  00021	50		 push	 eax
  00022	8d 45 f4	 lea	 eax, DWORD PTR __$EHRec$[ebp]
  00025	64 a3 00 00 00
	00		 mov	 DWORD PTR fs:0, eax
  0002b	8b f9		 mov	 edi, ecx

; 1567 : 	// TODO: Add your control notification handler code here
; 1568 : 	COLORREF crColor = m_Color_Bt.GetColor();

  0002d	8d 8f c8 06 00
	00		 lea	 ecx, DWORD PTR [edi+1736]
  00033	e8 00 00 00 00	 call	 ?GetColor@CColorButton@@QAEKXZ ; CColorButton::GetColor

; 1569 : 	CColorDialog color(crColor, CC_FULLOPEN);

  00038	6a 00		 push	 0
  0003a	6a 02		 push	 2
  0003c	50		 push	 eax
  0003d	8d 8d 20 ff ff
	ff		 lea	 ecx, DWORD PTR _color$[ebp]
  00043	e8 00 00 00 00	 call	 ??0CColorDialog@@QAE@KKPAVCWnd@@@Z ; CColorDialog::CColorDialog

; 1570 : 	if(color.DoModal() != IDOK)

  00048	8d 8d 20 ff ff
	ff		 lea	 ecx, DWORD PTR _color$[ebp]
  0004e	c7 45 fc 00 00
	00 00		 mov	 DWORD PTR __$EHRec$[ebp+8], 0
  00055	e8 00 00 00 00	 call	 ?DoModal@CColorDialog@@UAEHXZ ; CColorDialog::DoModal
  0005a	83 f8 01	 cmp	 eax, 1
  0005d	75 63		 jne	 SHORT $LN8@OnColorBut

; 1571 : 		return;
; 1572 : 
; 1573 : 	for(int i = 0; i < m_pIGraphInfo->GetSubGraphCount(); i++)

  0005f	8b 8f c4 00 00
	00		 mov	 ecx, DWORD PTR [edi+196]
  00065	33 f6		 xor	 esi, esi
  00067	8b 01		 mov	 eax, DWORD PTR [ecx]
  00069	ff 50 2c	 call	 DWORD PTR [eax+44]
  0006c	85 c0		 test	 eax, eax
  0006e	7e 21		 jle	 SHORT $LN3@OnColorBut
$LL4@OnColorBut:

; 1574 : 		m_pIGraphInfo->SetSubGraphColor( i, 6, color.GetColor());

  00070	8b 8f c4 00 00
	00		 mov	 ecx, DWORD PTR [edi+196]
  00076	ff 75 d4	 push	 DWORD PTR _color$[ebp+180]
  00079	6a 06		 push	 6
  0007b	8b 01		 mov	 eax, DWORD PTR [ecx]
  0007d	56		 push	 esi
  0007e	ff 50 6c	 call	 DWORD PTR [eax+108]
  00081	8b 8f c4 00 00
	00		 mov	 ecx, DWORD PTR [edi+196]
  00087	46		 inc	 esi
  00088	8b 01		 mov	 eax, DWORD PTR [ecx]
  0008a	ff 50 2c	 call	 DWORD PTR [eax+44]
  0008d	3b f0		 cmp	 esi, eax
  0008f	7c df		 jl	 SHORT $LL4@OnColorBut
$LN3@OnColorBut:

; 1575 : 	
; 1576 : 	m_Color_Bt.SetColor( m_pIGraphInfo->GetSubGraphColor( 0, 6));

  00091	8b 8f c4 00 00
	00		 mov	 ecx, DWORD PTR [edi+196]
  00097	6a 06		 push	 6
  00099	6a 00		 push	 0
  0009b	8b 01		 mov	 eax, DWORD PTR [ecx]
  0009d	ff 50 64	 call	 DWORD PTR [eax+100]
  000a0	89 45 f0	 mov	 DWORD PTR $T2[ebp], eax
  000a3	8d 8f c8 06 00
	00		 lea	 ecx, DWORD PTR [edi+1736]
  000a9	8d 45 f0	 lea	 eax, DWORD PTR $T2[ebp]
  000ac	50		 push	 eax
  000ad	e8 00 00 00 00	 call	 ?SetColor@CColorButton@@QAEXABK@Z ; CColorButton::SetColor
; File C:\Program Files (x86)\Microsoft Visual Studio\2019\Community\VC\Tools\MSVC\14.29.30133\atlmfc\include\afxwin2.inl

; 114  : 	{ ASSERT(::IsWindow(m_hWnd)); ::InvalidateRect(m_hWnd, NULL, bErase); }

  000b2	6a 01		 push	 1
  000b4	6a 00		 push	 0
  000b6	ff b7 e8 06 00
	00		 push	 DWORD PTR [edi+1768]
  000bc	ff 15 00 00 00
	00		 call	 DWORD PTR __imp__InvalidateRect@12
$LN8@OnColorBut:
; File C:\Program Files (x86)\Microsoft Visual Studio\2019\Community\VC\Tools\MSVC\14.29.30133\atlmfc\include\afxdlgs.h

; 110  :     virtual ~CCommonDialog() {};

  000c2	8d 8d 20 ff ff
	ff		 lea	 ecx, DWORD PTR _color$[ebp]
  000c8	c7 85 20 ff ff
	ff 00 00 00 00	 mov	 DWORD PTR _color$[ebp], OFFSET ??_7CCommonDialog@@6B@
  000d2	e8 00 00 00 00	 call	 ??1CDialog@@UAE@XZ	; CDialog::~CDialog
; File D:\git\src\IBK\IBK_DRFN\ProjSrc\SrcChartEx\ChartAddIn\ChartEnvSetupDlgAddIn\ChartEnvSetupDlgAddIn\Setting_Common_Type_A.cpp

; 1578 : }

  000d7	8b 4d f4	 mov	 ecx, DWORD PTR __$EHRec$[ebp]
  000da	64 89 0d 00 00
	00 00		 mov	 DWORD PTR fs:0, ecx
  000e1	59		 pop	 ecx
  000e2	5f		 pop	 edi
  000e3	5e		 pop	 esi
  000e4	5b		 pop	 ebx
  000e5	8b e5		 mov	 esp, ebp
  000e7	5d		 pop	 ebp
  000e8	c3		 ret	 0
_TEXT	ENDS
;	COMDAT text$x
text$x	SEGMENT
__unwindfunclet$?OnColorButton@CSetting_Common_Type_A@@IAEXXZ$0:
  00000	8d 8d 20 ff ff
	ff		 lea	 ecx, DWORD PTR _color$[ebp]
  00006	e9 00 00 00 00	 jmp	 ??1CColorDialog@@UAE@XZ
  0000b	cc		 int	 3
  0000c	cc		 int	 3
  0000d	cc		 int	 3
  0000e	cc		 int	 3
  0000f	cc		 int	 3
__ehhandler$?OnColorButton@CSetting_Common_Type_A@@IAEXXZ:
  00010	90		 npad	 1
  00011	90		 npad	 1
  00012	8b 54 24 08	 mov	 edx, DWORD PTR [esp+8]
  00016	8d 42 0c	 lea	 eax, DWORD PTR [edx+12]
  00019	8b 8a 1c ff ff
	ff		 mov	 ecx, DWORD PTR [edx-228]
  0001f	33 c8		 xor	 ecx, eax
  00021	e8 00 00 00 00	 call	 @__security_check_cookie@4
  00026	b8 00 00 00 00	 mov	 eax, OFFSET __ehfuncinfo$?OnColorButton@CSetting_Common_Type_A@@IAEXXZ
  0002b	e9 00 00 00 00	 jmp	 ___CxxFrameHandler3
text$x	ENDS
?OnColorButton@CSetting_Common_Type_A@@IAEXXZ ENDP	; CSetting_Common_Type_A::OnColorButton
; Function compile flags: /Ogtp
; File D:\git\src\IBK\IBK_DRFN\ProjSrc\SrcChartEx\ChartAddIn\ChartEnvSetupDlgAddIn\ChartEnvSetupDlgAddIn\Setting_Common_Type_A.cpp
; File C:\Program Files (x86)\Microsoft Visual Studio\2019\Community\VC\Tools\MSVC\14.29.30133\atlmfc\include\afxwin2.inl
; File D:\git\src\IBK\IBK_DRFN\ProjSrc\SrcChartEx\ChartAddIn\ChartEnvSetupDlgAddIn\ChartEnvSetupDlgAddIn\Setting_Common_Type_A.cpp
; File C:\Program Files (x86)\Microsoft Visual Studio\2019\Community\VC\Tools\MSVC\14.29.30133\atlmfc\include\afxwin2.inl
; File D:\git\src\IBK\IBK_DRFN\ProjSrc\SrcChartEx\ChartAddIn\ChartEnvSetupDlgAddIn\ChartEnvSetupDlgAddIn\Setting_Common_Type_A.cpp
; File C:\Program Files (x86)\Microsoft Visual Studio\2019\Community\VC\Tools\MSVC\14.29.30133\atlmfc\include\afxwin2.inl
; File D:\git\src\IBK\IBK_DRFN\ProjSrc\SrcChartEx\ChartAddIn\ChartEnvSetupDlgAddIn\ChartEnvSetupDlgAddIn\Setting_Common_Type_A.cpp
; File C:\Program Files (x86)\Microsoft Visual Studio\2019\Community\VC\Tools\MSVC\14.29.30133\atlmfc\include\afxwin2.inl
; File D:\git\src\IBK\IBK_DRFN\ProjSrc\SrcChartEx\ChartAddIn\ChartEnvSetupDlgAddIn\ChartEnvSetupDlgAddIn\Setting_Common_Type_A.cpp
; File C:\Program Files (x86)\Microsoft Visual Studio\2019\Community\VC\Tools\MSVC\14.29.30133\atlmfc\include\afxwin2.inl
; File D:\git\src\IBK\IBK_DRFN\ProjSrc\SrcChartEx\ChartAddIn\ChartEnvSetupDlgAddIn\ChartEnvSetupDlgAddIn\Setting_Common_Type_A.cpp
;	COMDAT ?OnAlldelete@CSetting_Common_Type_A@@IAEXXZ
_TEXT	SEGMENT
?OnAlldelete@CSetting_Common_Type_A@@IAEXXZ PROC	; CSetting_Common_Type_A::OnAlldelete, COMDAT
; _this$ = ecx

; 1551 : {

  00000	53		 push	 ebx
; File C:\Program Files (x86)\Microsoft Visual Studio\2019\Community\VC\Tools\MSVC\14.29.30133\atlmfc\include\afxwin2.inl

; 664  : 	{ ASSERT(::IsWindow(m_hWnd)); return (int)::SendMessage(m_hWnd, LB_GETCOUNT, 0, 0); }

  00001	8b 1d 00 00 00
	00		 mov	 ebx, DWORD PTR __imp__SendMessageA@16
; File D:\git\src\IBK\IBK_DRFN\ProjSrc\SrcChartEx\ChartAddIn\ChartEnvSetupDlgAddIn\ChartEnvSetupDlgAddIn\Setting_Common_Type_A.cpp

; 1551 : {

  00007	56		 push	 esi
  00008	57		 push	 edi

; 1171 : 	for(int i = 0 ; i< m_HorizonLine_ListBox.GetCount() ; i++)

  00009	33 f6		 xor	 esi, esi

; 1551 : {

  0000b	8b f9		 mov	 edi, ecx
; File C:\Program Files (x86)\Microsoft Visual Studio\2019\Community\VC\Tools\MSVC\14.29.30133\atlmfc\include\afxwin2.inl

; 664  : 	{ ASSERT(::IsWindow(m_hWnd)); return (int)::SendMessage(m_hWnd, LB_GETCOUNT, 0, 0); }

  0000d	56		 push	 esi
  0000e	56		 push	 esi
  0000f	68 8b 01 00 00	 push	 395			; 0000018bH
  00014	ff b7 c0 05 00
	00		 push	 DWORD PTR [edi+1472]
  0001a	ff d3		 call	 ebx
; File D:\git\src\IBK\IBK_DRFN\ProjSrc\SrcChartEx\ChartAddIn\ChartEnvSetupDlgAddIn\ChartEnvSetupDlgAddIn\Setting_Common_Type_A.cpp

; 1171 : 	for(int i = 0 ; i< m_HorizonLine_ListBox.GetCount() ; i++)

  0001c	85 c0		 test	 eax, eax
  0001e	7e 26		 jle	 SHORT $LN6@OnAlldelet
$LL7@OnAlldelet:
; File C:\Program Files (x86)\Microsoft Visual Studio\2019\Community\VC\Tools\MSVC\14.29.30133\atlmfc\include\afxwin2.inl

; 727  : 	{ ASSERT(::IsWindow(m_hWnd)); return (int)::SendMessage(m_hWnd, LB_DELETESTRING, nIndex, 0); }

  00020	6a 00		 push	 0
  00022	56		 push	 esi
  00023	68 82 01 00 00	 push	 386			; 00000182H
  00028	ff b7 c0 05 00
	00		 push	 DWORD PTR [edi+1472]
  0002e	ff d3		 call	 ebx

; 664  : 	{ ASSERT(::IsWindow(m_hWnd)); return (int)::SendMessage(m_hWnd, LB_GETCOUNT, 0, 0); }

  00030	6a 00		 push	 0
  00032	6a 00		 push	 0
  00034	68 8b 01 00 00	 push	 395			; 0000018bH
  00039	ff b7 c0 05 00
	00		 push	 DWORD PTR [edi+1472]
; File D:\git\src\IBK\IBK_DRFN\ProjSrc\SrcChartEx\ChartAddIn\ChartEnvSetupDlgAddIn\ChartEnvSetupDlgAddIn\Setting_Common_Type_A.cpp

; 1171 : 	for(int i = 0 ; i< m_HorizonLine_ListBox.GetCount() ; i++)

  0003f	46		 inc	 esi
; File C:\Program Files (x86)\Microsoft Visual Studio\2019\Community\VC\Tools\MSVC\14.29.30133\atlmfc\include\afxwin2.inl

; 664  : 	{ ASSERT(::IsWindow(m_hWnd)); return (int)::SendMessage(m_hWnd, LB_GETCOUNT, 0, 0); }

  00040	ff d3		 call	 ebx
; File D:\git\src\IBK\IBK_DRFN\ProjSrc\SrcChartEx\ChartAddIn\ChartEnvSetupDlgAddIn\ChartEnvSetupDlgAddIn\Setting_Common_Type_A.cpp

; 1171 : 	for(int i = 0 ; i< m_HorizonLine_ListBox.GetCount() ; i++)

  00042	3b f0		 cmp	 esi, eax
  00044	7c da		 jl	 SHORT $LL7@OnAlldelet
$LN6@OnAlldelet:
; File C:\Program Files (x86)\Microsoft Visual Studio\2019\Community\VC\Tools\MSVC\14.29.30133\atlmfc\include\afxwin2.inl

; 731  : 	{ ASSERT(::IsWindow(m_hWnd)); ::SendMessage(m_hWnd, LB_RESETCONTENT, 0, 0); }

  00046	6a 00		 push	 0
  00048	6a 00		 push	 0
  0004a	68 84 01 00 00	 push	 388			; 00000184H
  0004f	ff b7 c0 05 00
	00		 push	 DWORD PTR [edi+1472]
  00055	ff d3		 call	 ebx
; File D:\git\src\IBK\IBK_DRFN\ProjSrc\SrcChartEx\ChartAddIn\ChartEnvSetupDlgAddIn\ChartEnvSetupDlgAddIn\Setting_Common_Type_A.cpp

; 1554 : 	IDoubleList *pIDblBase = m_pIGraphInfo->GetBaseLineList();

  00057	8b 8f c4 00 00
	00		 mov	 ecx, DWORD PTR [edi+196]
  0005d	8b 01		 mov	 eax, DWORD PTR [ecx]
  0005f	ff 50 28	 call	 DWORD PTR [eax+40]
  00062	8b f0		 mov	 esi, eax

; 1555 : 	if( pIDblBase)

  00064	85 f6		 test	 esi, esi
  00066	74 0d		 je	 SHORT $LN2@OnAlldelet

; 1556 : 	{
; 1557 : 		pIDblBase->RemoveAll();

  00068	8b 16		 mov	 edx, DWORD PTR [esi]
  0006a	8b ce		 mov	 ecx, esi
  0006c	ff 52 30	 call	 DWORD PTR [edx+48]

; 1558 : 		pIDblBase->Release();

  0006f	8b 0e		 mov	 ecx, DWORD PTR [esi]
  00071	56		 push	 esi
  00072	ff 51 08	 call	 DWORD PTR [ecx+8]
$LN2@OnAlldelet:

; 1559 : 	}
; 1560 : 
; 1561 : 	m_Horizon_Edit.SetValue( 0);	

  00075	8b 87 20 06 00
	00		 mov	 eax, DWORD PTR [edi+1568]
  0007b	8d 8f 20 06 00
	00		 lea	 ecx, DWORD PTR [edi+1568]
  00081	83 ec 08	 sub	 esp, 8
  00084	0f 57 c0	 xorps	 xmm0, xmm0
  00087	f2 0f 11 04 24	 movsd	 QWORD PTR [esp], xmm0
  0008c	ff 90 90 01 00
	00		 call	 DWORD PTR [eax+400]
  00092	5f		 pop	 edi
  00093	5e		 pop	 esi
  00094	5b		 pop	 ebx

; 1562 : }

  00095	c3		 ret	 0
?OnAlldelete@CSetting_Common_Type_A@@IAEXXZ ENDP	; CSetting_Common_Type_A::OnAlldelete
_TEXT	ENDS
; Function compile flags: /Ogtp
; File D:\git\src\IBK\IBK_DRFN\ProjSrc\SrcChartEx\ChartAddIn\ChartEnvSetupDlgAddIn\ChartEnvSetupDlgAddIn\Setting_Common_Type_A.cpp
; File C:\Program Files (x86)\Microsoft Visual Studio\2019\Community\VC\Tools\MSVC\14.29.30133\atlmfc\include\afxwin2.inl
; File D:\git\src\IBK\IBK_DRFN\ProjSrc\SrcChartEx\ChartAddIn\ChartEnvSetupDlgAddIn\ChartEnvSetupDlgAddIn\Setting_Common_Type_A.cpp
; File C:\Program Files (x86)\Microsoft Visual Studio\2019\Community\VC\Tools\MSVC\14.29.30133\atlmfc\include\afxwin2.inl
; File D:\git\src\IBK\IBK_DRFN\ProjSrc\SrcChartEx\ChartAddIn\ChartEnvSetupDlgAddIn\ChartEnvSetupDlgAddIn\Setting_Common_Type_A.cpp
;	COMDAT ?OnDelete@CSetting_Common_Type_A@@IAEXXZ
_TEXT	SEGMENT
?OnDelete@CSetting_Common_Type_A@@IAEXXZ PROC		; CSetting_Common_Type_A::OnDelete, COMDAT
; _this$ = ecx

; 1544 : {

  00000	57		 push	 edi
; File C:\Program Files (x86)\Microsoft Visual Studio\2019\Community\VC\Tools\MSVC\14.29.30133\atlmfc\include\afxwin2.inl

; 666  : 	{ ASSERT(::IsWindow(m_hWnd)); return (int)::SendMessage(m_hWnd, LB_GETCURSEL, 0, 0); }

  00001	6a 00		 push	 0
; File D:\git\src\IBK\IBK_DRFN\ProjSrc\SrcChartEx\ChartAddIn\ChartEnvSetupDlgAddIn\ChartEnvSetupDlgAddIn\Setting_Common_Type_A.cpp

; 1544 : {

  00003	8b f9		 mov	 edi, ecx
; File C:\Program Files (x86)\Microsoft Visual Studio\2019\Community\VC\Tools\MSVC\14.29.30133\atlmfc\include\afxwin2.inl

; 666  : 	{ ASSERT(::IsWindow(m_hWnd)); return (int)::SendMessage(m_hWnd, LB_GETCURSEL, 0, 0); }

  00005	6a 00		 push	 0
  00007	68 88 01 00 00	 push	 392			; 00000188H
  0000c	ff b7 c0 05 00
	00		 push	 DWORD PTR [edi+1472]
  00012	ff 15 00 00 00
	00		 call	 DWORD PTR __imp__SendMessageA@16

; 727  : 	{ ASSERT(::IsWindow(m_hWnd)); return (int)::SendMessage(m_hWnd, LB_DELETESTRING, nIndex, 0); }

  00018	6a 00		 push	 0
  0001a	50		 push	 eax
  0001b	68 82 01 00 00	 push	 386			; 00000182H
  00020	ff b7 c0 05 00
	00		 push	 DWORD PTR [edi+1472]
  00026	ff 15 00 00 00
	00		 call	 DWORD PTR __imp__SendMessageA@16
  0002c	5f		 pop	 edi
; File D:\git\src\IBK\IBK_DRFN\ProjSrc\SrcChartEx\ChartAddIn\ChartEnvSetupDlgAddIn\ChartEnvSetupDlgAddIn\Setting_Common_Type_A.cpp

; 1547 : }

  0002d	c3		 ret	 0
?OnDelete@CSetting_Common_Type_A@@IAEXXZ ENDP		; CSetting_Common_Type_A::OnDelete
_TEXT	ENDS
; Function compile flags: /Ogtp
; File D:\git\src\IBK\IBK_DRFN\ProjSrc\SrcChartEx\ChartAddIn\ChartEnvSetupDlgAddIn\ChartEnvSetupDlgAddIn\Setting_Common_Type_A.cpp
; File C:\Program Files (x86)\Microsoft Visual Studio\2019\Community\VC\Tools\MSVC\14.29.30133\atlmfc\include\cstringt.h
; File D:\git\src\IBK\IBK_DRFN\ProjSrc\SrcChartEx\ChartAddIn\ChartEnvSetupDlgAddIn\ChartEnvSetupDlgAddIn\Setting_Common_Type_A.cpp
; File C:\Program Files (x86)\Microsoft Visual Studio\2019\Community\VC\Tools\MSVC\14.29.30133\atlmfc\include\afxwin2.inl
; File D:\git\src\IBK\IBK_DRFN\ProjSrc\SrcChartEx\ChartAddIn\ChartEnvSetupDlgAddIn\ChartEnvSetupDlgAddIn\Setting_Common_Type_A.cpp
; File D:\git\src\IBK\IBK_DRFN\ProjSrc\SrcChartEx\ChartAddIn\ChartEnvSetupDlgAddIn\Include_Chart\Conversion.h
; File D:\git\src\IBK\IBK_DRFN\ProjSrc\SrcChartEx\ChartAddIn\ChartEnvSetupDlgAddIn\ChartEnvSetupDlgAddIn\Setting_Common_Type_A.cpp
; File D:\git\src\IBK\IBK_DRFN\ProjSrc\SrcChartEx\ChartAddIn\ChartEnvSetupDlgAddIn\Include_Chart\Conversion.h
; File D:\git\src\IBK\IBK_DRFN\ProjSrc\SrcChartEx\ChartAddIn\ChartEnvSetupDlgAddIn\ChartEnvSetupDlgAddIn\Setting_Common_Type_A.cpp
; File D:\git\src\IBK\IBK_DRFN\ProjSrc\SrcChartEx\ChartAddIn\ChartEnvSetupDlgAddIn\Include_Chart\Conversion.h
; File D:\git\src\IBK\IBK_DRFN\ProjSrc\SrcChartEx\ChartAddIn\ChartEnvSetupDlgAddIn\ChartEnvSetupDlgAddIn\Setting_Common_Type_A.cpp
; File C:\Program Files (x86)\Microsoft Visual Studio\2019\Community\VC\Tools\MSVC\14.29.30133\atlmfc\include\cstringt.h
; File D:\git\src\IBK\IBK_DRFN\ProjSrc\SrcChartEx\ChartAddIn\ChartEnvSetupDlgAddIn\ChartEnvSetupDlgAddIn\Setting_Common_Type_A.cpp
; File C:\Program Files (x86)\Microsoft Visual Studio\2019\Community\VC\Tools\MSVC\14.29.30133\atlmfc\include\afxwin2.inl
; File D:\git\src\IBK\IBK_DRFN\ProjSrc\SrcChartEx\ChartAddIn\ChartEnvSetupDlgAddIn\ChartEnvSetupDlgAddIn\Setting_Common_Type_A.cpp
;	COMDAT ?OnInsert@CSetting_Common_Type_A@@IAEXXZ
_TEXT	SEGMENT
$T2 = -40						; size = 8
$T3 = -32						; size = 4
_szText$ = -28						; size = 4
$T4 = -24						; size = 4
_strOutput$5 = -24					; size = 4
_strType$ = -20						; size = 4
_temp$ = -16						; size = 4
__$EHRec$ = -12						; size = 12
?OnInsert@CSetting_Common_Type_A@@IAEXXZ PROC		; CSetting_Common_Type_A::OnInsert, COMDAT
; _this$ = ecx

; 1471 : {

  00000	55		 push	 ebp
  00001	8b ec		 mov	 ebp, esp
  00003	6a ff		 push	 -1
  00005	68 00 00 00 00	 push	 __ehhandler$?OnInsert@CSetting_Common_Type_A@@IAEXXZ
  0000a	64 a1 00 00 00
	00		 mov	 eax, DWORD PTR fs:0
  00010	50		 push	 eax
  00011	83 ec 1c	 sub	 esp, 28			; 0000001cH
  00014	53		 push	 ebx
  00015	56		 push	 esi
  00016	57		 push	 edi
  00017	a1 00 00 00 00	 mov	 eax, DWORD PTR ___security_cookie
  0001c	33 c5		 xor	 eax, ebp
  0001e	50		 push	 eax
  0001f	8d 45 f4	 lea	 eax, DWORD PTR __$EHRec$[ebp]
  00022	64 a3 00 00 00
	00		 mov	 DWORD PTR fs:0, eax
  00028	8b f9		 mov	 edi, ecx

; 1472 : 	// TODO: Add your control notification handler code here
; 1473 : 	// 20081014  >>
; 1474 : 	CString temp;

  0002a	8d 4d f0	 lea	 ecx, DWORD PTR _temp$[ebp]
  0002d	ff 15 00 00 00
	00		 call	 DWORD PTR __imp_??0?$CStringT@DV?$StrTraitMFC_DLL@DV?$ChTraitsCRT@D@ATL@@@@@ATL@@QAE@XZ

; 1475 : 	UpdateData(TRUE);

  00033	6a 01		 push	 1
  00035	8b cf		 mov	 ecx, edi
  00037	c7 45 fc 00 00
	00 00		 mov	 DWORD PTR __$EHRec$[ebp+8], 0
  0003e	e8 00 00 00 00	 call	 ?UpdateData@CWnd@@QAEHH@Z ; CWnd::UpdateData

; 1476 : 
; 1477 : 	CString strType = GetPacketType();

  00043	8d 45 ec	 lea	 eax, DWORD PTR _strType$[ebp]
  00046	8b cf		 mov	 ecx, edi
  00048	50		 push	 eax
  00049	e8 00 00 00 00	 call	 ?GetPacketType@CBaseDialog@@QAE?AV?$CStringT@DV?$StrTraitMFC_DLL@DV?$ChTraitsCRT@D@ATL@@@@@ATL@@XZ ; CBaseDialog::GetPacketType

; 1478 : 
; 1479 : 	//  ,   - ojtaso (20071213)
; 1480 : 	//temp.Format("%f",m_dHorizonValue);
; 1481 : 
; 1482 : 	temp = m_strHorizonValue;

  0004e	8d 87 c8 14 00
	00		 lea	 eax, DWORD PTR [edi+5320]
  00054	c6 45 fc 01	 mov	 BYTE PTR __$EHRec$[ebp+8], 1
  00058	50		 push	 eax
  00059	8d 4d f0	 lea	 ecx, DWORD PTR _temp$[ebp]
  0005c	ff 15 00 00 00
	00		 call	 DWORD PTR __imp_??4?$CStringT@DV?$StrTraitMFC_DLL@DV?$ChTraitsCRT@D@ATL@@@@@ATL@@QAEAAV01@ABV01@@Z

; 1483 : 	
; 1484 : 	//     .
; 1485 : 	temp.TrimLeft(); temp.TrimRight();

  00062	8d 4d f0	 lea	 ecx, DWORD PTR _temp$[ebp]
  00065	ff 15 00 00 00
	00		 call	 DWORD PTR __imp_?TrimLeft@?$CStringT@DV?$StrTraitMFC_DLL@DV?$ChTraitsCRT@D@ATL@@@@@ATL@@QAEAAV12@XZ
  0006b	8d 4d f0	 lea	 ecx, DWORD PTR _temp$[ebp]
  0006e	ff 15 00 00 00
	00		 call	 DWORD PTR __imp_?TrimRight@?$CStringT@DV?$StrTraitMFC_DLL@DV?$ChTraitsCRT@D@ATL@@@@@ATL@@QAEAAV12@XZ
; File C:\Program Files (x86)\Microsoft Visual Studio\2019\Community\VC\Tools\MSVC\14.29.30133\atlmfc\include\cstringt.h

; 2486 : 		return(str1.Compare(psz2) == 0);

  00074	68 00 00 00 00	 push	 OFFSET ??_C@_00CNPNBAHC@@
  00079	8d 4d f0	 lea	 ecx, DWORD PTR _temp$[ebp]
  0007c	ff 15 00 00 00
	00		 call	 DWORD PTR __imp_?Compare@?$CStringT@DV?$StrTraitMFC_DLL@DV?$ChTraitsCRT@D@ATL@@@@@ATL@@QBEHPBD@Z
  00082	85 c0		 test	 eax, eax
; File D:\git\src\IBK\IBK_DRFN\ProjSrc\SrcChartEx\ChartAddIn\ChartEnvSetupDlgAddIn\ChartEnvSetupDlgAddIn\Setting_Common_Type_A.cpp

; 1486 : 	if(temp == "")

  00084	0f 84 c9 01 00
	00		 je	 $LN21@OnInsert
; File C:\Program Files (x86)\Microsoft Visual Studio\2019\Community\VC\Tools\MSVC\14.29.30133\atlmfc\include\afxwin2.inl

; 664  : 	{ ASSERT(::IsWindow(m_hWnd)); return (int)::SendMessage(m_hWnd, LB_GETCOUNT, 0, 0); }

  0008a	6a 00		 push	 0
  0008c	6a 00		 push	 0
  0008e	68 8b 01 00 00	 push	 395			; 0000018bH
  00093	ff b7 c0 05 00
	00		 push	 DWORD PTR [edi+1472]
  00099	ff 15 00 00 00
	00		 call	 DWORD PTR __imp__SendMessageA@16
; File D:\git\src\IBK\IBK_DRFN\ProjSrc\SrcChartEx\ChartAddIn\ChartEnvSetupDlgAddIn\ChartEnvSetupDlgAddIn\Setting_Common_Type_A.cpp

; 1490 : 	int nCount = m_HorizonLine_ListBox.GetCount();

  0009f	8b d8		 mov	 ebx, eax

; 1491 : 
; 1492 : 	// 20081017  >>
; 1493 : 	if(CDataConversion::IsBaseFormat(strType)) 

  000a1	8d 45 ec	 lea	 eax, DWORD PTR _strType$[ebp]
  000a4	50		 push	 eax
  000a5	e8 00 00 00 00	 call	 ?IsBaseFormat@CDataConversion@@SA_NABV?$CStringT@DV?$StrTraitMFC_DLL@DV?$ChTraitsCRT@D@ATL@@@@@ATL@@@Z ; CDataConversion::IsBaseFormat
  000aa	83 c4 04	 add	 esp, 4
  000ad	84 c0		 test	 al, al
  000af	74 69		 je	 SHORT $LN6@OnInsert

; 1494 : 	{								
; 1495 : 		CString strOutput;

  000b1	8d 4d e8	 lea	 ecx, DWORD PTR _strOutput$5[ebp]
  000b4	ff 15 00 00 00
	00		 call	 DWORD PTR __imp_??0?$CStringT@DV?$StrTraitMFC_DLL@DV?$ChTraitsCRT@D@ATL@@@@@ATL@@QAE@XZ

; 1496 : 		if(!CDataConversion::GetDataToDec(temp, strType, strOutput)) 

  000ba	8d 45 e8	 lea	 eax, DWORD PTR _strOutput$5[ebp]
  000bd	c6 45 fc 02	 mov	 BYTE PTR __$EHRec$[ebp+8], 2
  000c1	50		 push	 eax
  000c2	51		 push	 ecx
  000c3	8d 45 ec	 lea	 eax, DWORD PTR _strType$[ebp]
  000c6	89 65 e0	 mov	 DWORD PTR $T3[ebp], esp
  000c9	8b cc		 mov	 ecx, esp
  000cb	50		 push	 eax
  000cc	ff 15 00 00 00
	00		 call	 DWORD PTR __imp_??0?$CStringT@DV?$StrTraitMFC_DLL@DV?$ChTraitsCRT@D@ATL@@@@@ATL@@QAE@ABV01@@Z
  000d2	51		 push	 ecx
  000d3	8d 45 f0	 lea	 eax, DWORD PTR _temp$[ebp]
  000d6	c6 45 fc 03	 mov	 BYTE PTR __$EHRec$[ebp+8], 3
  000da	8b cc		 mov	 ecx, esp
  000dc	50		 push	 eax
  000dd	ff 15 00 00 00
	00		 call	 DWORD PTR __imp_??0?$CStringT@DV?$StrTraitMFC_DLL@DV?$ChTraitsCRT@D@ATL@@@@@ATL@@QAE@ABV01@@Z
  000e3	c6 45 fc 02	 mov	 BYTE PTR __$EHRec$[ebp+8], 2
  000e7	e8 00 00 00 00	 call	 ?GetDataToDec@CDataConversion@@SAHV?$CStringT@DV?$StrTraitMFC_DLL@DV?$ChTraitsCRT@D@ATL@@@@@ATL@@0AAV23@@Z ; CDataConversion::GetDataToDec
  000ec	83 c4 0c	 add	 esp, 12			; 0000000cH
  000ef	8d 4d f0	 lea	 ecx, DWORD PTR _temp$[ebp]
  000f2	85 c0		 test	 eax, eax
  000f4	75 0d		 jne	 SHORT $LN7@OnInsert

; 1497 : 			temp = "0";

  000f6	68 00 00 00 00	 push	 OFFSET ??_C@_01GBGANLPD@0@
  000fb	ff 15 00 00 00
	00		 call	 DWORD PTR __imp_??4?$CStringT@DV?$StrTraitMFC_DLL@DV?$ChTraitsCRT@D@ATL@@@@@ATL@@QAEAAV01@PBD@Z
  00101	eb 0a		 jmp	 SHORT $LN8@OnInsert
$LN7@OnInsert:

; 1498 : 		else
; 1499 : 			temp = strOutput;

  00103	8d 45 e8	 lea	 eax, DWORD PTR _strOutput$5[ebp]
  00106	50		 push	 eax
  00107	ff 15 00 00 00
	00		 call	 DWORD PTR __imp_??4?$CStringT@DV?$StrTraitMFC_DLL@DV?$ChTraitsCRT@D@ATL@@@@@ATL@@QAEAAV01@ABV01@@Z
$LN8@OnInsert:

; 1500 : 	}

  0010d	8d 4d e8	 lea	 ecx, DWORD PTR _strOutput$5[ebp]
  00110	c6 45 fc 01	 mov	 BYTE PTR __$EHRec$[ebp+8], 1
  00114	ff 15 00 00 00
	00		 call	 DWORD PTR __imp_??1?$CStringT@DV?$StrTraitMFC_DLL@DV?$ChTraitsCRT@D@ATL@@@@@ATL@@QAE@XZ
$LN6@OnInsert:
; File D:\git\src\IBK\IBK_DRFN\ProjSrc\SrcChartEx\ChartAddIn\ChartEnvSetupDlgAddIn\Include_Chart\Conversion.h

; 27   : 		{	m_hOcxWnd = p_hOcxWnd;	m_eChartMode = p_eChartMode;	}

  0011a	8b 87 d8 00 00
	00		 mov	 eax, DWORD PTR [edi+216]
; File D:\git\src\IBK\IBK_DRFN\ProjSrc\SrcChartEx\ChartAddIn\ChartEnvSetupDlgAddIn\ChartEnvSetupDlgAddIn\Setting_Common_Type_A.cpp

; 1501 : 	temp = CDataConversion( m_hOcxWnd, m_eChartMode).GetStringFormatTrans(temp, strType);

  00120	8b 8f f0 00 00
	00		 mov	 ecx, DWORD PTR [edi+240]
; File D:\git\src\IBK\IBK_DRFN\ProjSrc\SrcChartEx\ChartAddIn\ChartEnvSetupDlgAddIn\Include_Chart\Conversion.h

; 27   : 		{	m_hOcxWnd = p_hOcxWnd;	m_eChartMode = p_eChartMode;	}

  00126	89 45 d8	 mov	 DWORD PTR $T2[ebp], eax
; File D:\git\src\IBK\IBK_DRFN\ProjSrc\SrcChartEx\ChartAddIn\ChartEnvSetupDlgAddIn\ChartEnvSetupDlgAddIn\Setting_Common_Type_A.cpp

; 1501 : 	temp = CDataConversion( m_hOcxWnd, m_eChartMode).GetStringFormatTrans(temp, strType);

  00129	8d 45 ec	 lea	 eax, DWORD PTR _strType$[ebp]
  0012c	50		 push	 eax
  0012d	8d 45 f0	 lea	 eax, DWORD PTR _temp$[ebp]
; File D:\git\src\IBK\IBK_DRFN\ProjSrc\SrcChartEx\ChartAddIn\ChartEnvSetupDlgAddIn\Include_Chart\Conversion.h

; 27   : 		{	m_hOcxWnd = p_hOcxWnd;	m_eChartMode = p_eChartMode;	}

  00130	89 4d dc	 mov	 DWORD PTR $T2[ebp+4], ecx
; File D:\git\src\IBK\IBK_DRFN\ProjSrc\SrcChartEx\ChartAddIn\ChartEnvSetupDlgAddIn\ChartEnvSetupDlgAddIn\Setting_Common_Type_A.cpp

; 1501 : 	temp = CDataConversion( m_hOcxWnd, m_eChartMode).GetStringFormatTrans(temp, strType);

  00133	50		 push	 eax
  00134	8d 45 e8	 lea	 eax, DWORD PTR $T4[ebp]
  00137	50		 push	 eax
  00138	8d 4d d8	 lea	 ecx, DWORD PTR $T2[ebp]
  0013b	e8 00 00 00 00	 call	 ?GetStringFormatTrans@CDataConversion@@QAE?AV?$CStringT@DV?$StrTraitMFC_DLL@DV?$ChTraitsCRT@D@ATL@@@@@ATL@@ABV23@0@Z ; CDataConversion::GetStringFormatTrans
  00140	50		 push	 eax
  00141	8d 4d f0	 lea	 ecx, DWORD PTR _temp$[ebp]
  00144	c6 45 fc 04	 mov	 BYTE PTR __$EHRec$[ebp+8], 4
  00148	ff 15 00 00 00
	00		 call	 DWORD PTR __imp_??4?$CStringT@DV?$StrTraitMFC_DLL@DV?$ChTraitsCRT@D@ATL@@@@@ATL@@QAEAAV01@ABV01@@Z
  0014e	8d 4d e8	 lea	 ecx, DWORD PTR $T4[ebp]
  00151	c6 45 fc 01	 mov	 BYTE PTR __$EHRec$[ebp+8], 1
  00155	ff 15 00 00 00
	00		 call	 DWORD PTR __imp_??1?$CStringT@DV?$StrTraitMFC_DLL@DV?$ChTraitsCRT@D@ATL@@@@@ATL@@QAE@XZ

; 1502 : 	// 20081017  <<
; 1503 : 	
; 1504 : 	// 20081030  >>
; 1505 : 	temp.Remove('%');

  0015b	6a 25		 push	 37			; 00000025H
  0015d	8d 4d f0	 lea	 ecx, DWORD PTR _temp$[ebp]
  00160	ff 15 00 00 00
	00		 call	 DWORD PTR __imp_?Remove@?$CStringT@DV?$StrTraitMFC_DLL@DV?$ChTraitsCRT@D@ATL@@@@@ATL@@QAEHD@Z

; 1506 : 	// 20081030  <<
; 1507 : 
; 1508 : 	CString szText = "";

  00166	68 00 00 00 00	 push	 OFFSET ??_C@_00CNPNBAHC@@
  0016b	8d 4d e4	 lea	 ecx, DWORD PTR _szText$[ebp]
  0016e	ff 15 00 00 00
	00		 call	 DWORD PTR __imp_??0?$CStringT@DV?$StrTraitMFC_DLL@DV?$ChTraitsCRT@D@ATL@@@@@ATL@@QAE@PBD@Z

; 1509 : 	for( int i = 0 ; i < nCount ; i++ )

  00174	33 f6		 xor	 esi, esi
  00176	c6 45 fc 05	 mov	 BYTE PTR __$EHRec$[ebp+8], 5
  0017a	85 db		 test	 ebx, ebx
  0017c	7e 31		 jle	 SHORT $LN3@OnInsert
  0017e	8d 87 a0 05 00
	00		 lea	 eax, DWORD PTR [edi+1440]
$LL4@OnInsert:

; 1510 : 	{
; 1511 : 		m_HorizonLine_ListBox.GetText( i, szText );

  00184	8d 4d e4	 lea	 ecx, DWORD PTR _szText$[ebp]
  00187	51		 push	 ecx
  00188	56		 push	 esi
  00189	8b c8		 mov	 ecx, eax
  0018b	e8 00 00 00 00	 call	 ?GetText@CListBox@@QBEXHAAV?$CStringT@DV?$StrTraitMFC_DLL@DV?$ChTraitsCRT@D@ATL@@@@@ATL@@@Z ; CListBox::GetText
; File C:\Program Files (x86)\Microsoft Visual Studio\2019\Community\VC\Tools\MSVC\14.29.30133\atlmfc\include\cstringt.h

; 2479 : 		return(str1.Compare(str2) == 0);

  00190	ff 75 f0	 push	 DWORD PTR _temp$[ebp]
  00193	8d 4d e4	 lea	 ecx, DWORD PTR _szText$[ebp]
  00196	ff 15 00 00 00
	00		 call	 DWORD PTR __imp_?Compare@?$CStringT@DV?$StrTraitMFC_DLL@DV?$ChTraitsCRT@D@ATL@@@@@ATL@@QBEHPBD@Z
  0019c	85 c0		 test	 eax, eax
; File D:\git\src\IBK\IBK_DRFN\ProjSrc\SrcChartEx\ChartAddIn\ChartEnvSetupDlgAddIn\ChartEnvSetupDlgAddIn\Setting_Common_Type_A.cpp

; 1512 : 		if( szText == temp )

  0019e	0f 84 a6 00 00
	00		 je	 $LN23@OnInsert

; 1509 : 	for( int i = 0 ; i < nCount ; i++ )

  001a4	46		 inc	 esi
  001a5	8d 87 a0 05 00
	00		 lea	 eax, DWORD PTR [edi+1440]
  001ab	3b f3		 cmp	 esi, ebx
  001ad	7c d5		 jl	 SHORT $LL4@OnInsert
$LN3@OnInsert:

; 1513 : 			return;
; 1514 : 	}
; 1515 : 
; 1516 : 	// 20081014  >>
; 1517 : 	//m_HorizonLine_ListBox.AddString(TrimStringWhenDecimalDataIsZero(temp));
; 1518 : 
; 1519 : 	if(CDataConversion::IsBaseFormat(strType))

  001af	8d 45 ec	 lea	 eax, DWORD PTR _strType$[ebp]
  001b2	50		 push	 eax
  001b3	e8 00 00 00 00	 call	 ?IsBaseFormat@CDataConversion@@SA_NABV?$CStringT@DV?$StrTraitMFC_DLL@DV?$ChTraitsCRT@D@ATL@@@@@ATL@@@Z ; CDataConversion::IsBaseFormat
  001b8	83 c4 04	 add	 esp, 4
  001bb	84 c0		 test	 al, al
  001bd	74 5a		 je	 SHORT $LN11@OnInsert

; 1520 : 	{
; 1521 : 		//      .
; 1522 : 		BOOL bResult = CDataConversion::IsValid8_32(temp);

  001bf	51		 push	 ecx
  001c0	8d 45 f0	 lea	 eax, DWORD PTR _temp$[ebp]
  001c3	8b cc		 mov	 ecx, esp
  001c5	50		 push	 eax
  001c6	ff 15 00 00 00
	00		 call	 DWORD PTR __imp_??0?$CStringT@DV?$StrTraitMFC_DLL@DV?$ChTraitsCRT@D@ATL@@@@@ATL@@QAE@ABV01@@Z
  001cc	e8 00 00 00 00	 call	 ?IsValid8_32@CDataConversion@@SAHV?$CStringT@DV?$StrTraitMFC_DLL@DV?$ChTraitsCRT@D@ATL@@@@@ATL@@@Z ; CDataConversion::IsValid8_32
  001d1	83 c4 04	 add	 esp, 4

; 1523 : 
; 1524 : 		//       .
; 1525 : 		if(!bResult)

  001d4	85 c0		 test	 eax, eax
  001d6	75 41		 jne	 SHORT $LN11@OnInsert

; 1526 : 		{
; 1527 : 			AfxMessageBox("    .");

  001d8	50		 push	 eax
  001d9	50		 push	 eax
  001da	68 00 00 00 00	 push	 OFFSET ??_C@_0CI@DCNEOPPA@?$MA?T?$LH?B?$LF?H?5?$LJ?$KO?$MA?Z?$LP?$KN?$MA?L?5?$LO?K?$LI?B?$MA?$LK?5?A?x?$LJ?$PN?$MA?L?5?$LO@
  001df	e8 00 00 00 00	 call	 ?AfxMessageBox@@YGHPBDII@Z ; AfxMessageBox

; 1528 : 			m_Horizon_Edit.SetFocus();

  001e4	8d 8f 20 06 00
	00		 lea	 ecx, DWORD PTR [edi+1568]
  001ea	e8 00 00 00 00	 call	 ?SetFocus@CWnd@@QAEPAV1@XZ ; CWnd::SetFocus
; File C:\Program Files (x86)\Microsoft Visual Studio\2019\Community\VC\Tools\MSVC\14.29.30133\atlmfc\include\afxwin2.inl

; 909  : 	{ ASSERT(::IsWindow(m_hWnd)); ::SendMessage(m_hWnd, EM_SETSEL, nStartChar, nEndChar);

  001ef	8b 35 00 00 00
	00		 mov	 esi, DWORD PTR __imp__SendMessageA@16
  001f5	6a ff		 push	 -1
  001f7	6a 00		 push	 0
  001f9	68 b1 00 00 00	 push	 177			; 000000b1H
  001fe	ff b7 40 06 00
	00		 push	 DWORD PTR [edi+1600]
  00204	ff d6		 call	 esi

; 910  : 	  if (!bNoScroll)
; 911  : 		::SendMessage(m_hWnd, EM_SCROLLCARET, 0, 0); }

  00206	6a 00		 push	 0
  00208	6a 00		 push	 0
  0020a	68 b7 00 00 00	 push	 183			; 000000b7H
  0020f	ff b7 40 06 00
	00		 push	 DWORD PTR [edi+1600]
  00215	ff d6		 call	 esi
  00217	eb 31		 jmp	 SHORT $LN23@OnInsert
$LN11@OnInsert:

; 725  : 	{ ASSERT(::IsWindow(m_hWnd)); return (int)::SendMessage(m_hWnd, LB_ADDSTRING, 0, (LPARAM)lpszItem); }

  00219	ff 75 f0	 push	 DWORD PTR _temp$[ebp]
  0021c	8b 35 00 00 00
	00		 mov	 esi, DWORD PTR __imp__SendMessageA@16
  00222	6a 00		 push	 0
  00224	68 80 01 00 00	 push	 384			; 00000180H
  00229	ff b7 c0 05 00
	00		 push	 DWORD PTR [edi+1472]
  0022f	ff d6		 call	 esi
; File D:\git\src\IBK\IBK_DRFN\ProjSrc\SrcChartEx\ChartAddIn\ChartEnvSetupDlgAddIn\ChartEnvSetupDlgAddIn\Setting_Common_Type_A.cpp

; 1537 : 	m_strHorizonValue = temp;

  00231	8d 45 f0	 lea	 eax, DWORD PTR _temp$[ebp]
  00234	50		 push	 eax
  00235	8d 8f c8 14 00
	00		 lea	 ecx, DWORD PTR [edi+5320]
  0023b	ff 15 00 00 00
	00		 call	 DWORD PTR __imp_??4?$CStringT@DV?$StrTraitMFC_DLL@DV?$ChTraitsCRT@D@ATL@@@@@ATL@@QAEAAV01@ABV01@@Z

; 1538 : 	UpdateData(FALSE);

  00241	6a 00		 push	 0
  00243	8b cf		 mov	 ecx, edi
  00245	e8 00 00 00 00	 call	 ?UpdateData@CWnd@@QAEHH@Z ; CWnd::UpdateData
$LN23@OnInsert:

; 1539 : 	// 20081017  <<
; 1540 : }

  0024a	8d 4d e4	 lea	 ecx, DWORD PTR _szText$[ebp]
  0024d	ff 15 00 00 00
	00		 call	 DWORD PTR __imp_??1?$CStringT@DV?$StrTraitMFC_DLL@DV?$ChTraitsCRT@D@ATL@@@@@ATL@@QAE@XZ
$LN21@OnInsert:
  00253	8d 4d ec	 lea	 ecx, DWORD PTR _strType$[ebp]
  00256	ff 15 00 00 00
	00		 call	 DWORD PTR __imp_??1?$CStringT@DV?$StrTraitMFC_DLL@DV?$ChTraitsCRT@D@ATL@@@@@ATL@@QAE@XZ
  0025c	8d 4d f0	 lea	 ecx, DWORD PTR _temp$[ebp]
  0025f	ff 15 00 00 00
	00		 call	 DWORD PTR __imp_??1?$CStringT@DV?$StrTraitMFC_DLL@DV?$ChTraitsCRT@D@ATL@@@@@ATL@@QAE@XZ
  00265	8b 4d f4	 mov	 ecx, DWORD PTR __$EHRec$[ebp]
  00268	64 89 0d 00 00
	00 00		 mov	 DWORD PTR fs:0, ecx
  0026f	59		 pop	 ecx
  00270	5f		 pop	 edi
  00271	5e		 pop	 esi
  00272	5b		 pop	 ebx
  00273	8b e5		 mov	 esp, ebp
  00275	5d		 pop	 ebp
  00276	c3		 ret	 0
_TEXT	ENDS
;	COMDAT text$x
text$x	SEGMENT
__unwindfunclet$?OnInsert@CSetting_Common_Type_A@@IAEXXZ$0:
  00000	8d 4d f0	 lea	 ecx, DWORD PTR _temp$[ebp]
  00003	ff 25 00 00 00
	00		 jmp	 DWORD PTR __imp_??1?$CStringT@DV?$StrTraitMFC_DLL@DV?$ChTraitsCRT@D@ATL@@@@@ATL@@QAE@XZ
__unwindfunclet$?OnInsert@CSetting_Common_Type_A@@IAEXXZ$1:
  00009	8d 4d ec	 lea	 ecx, DWORD PTR _strType$[ebp]
  0000c	ff 25 00 00 00
	00		 jmp	 DWORD PTR __imp_??1?$CStringT@DV?$StrTraitMFC_DLL@DV?$ChTraitsCRT@D@ATL@@@@@ATL@@QAE@XZ
__unwindfunclet$?OnInsert@CSetting_Common_Type_A@@IAEXXZ$2:
  00012	8d 4d e8	 lea	 ecx, DWORD PTR _strOutput$5[ebp]
  00015	ff 25 00 00 00
	00		 jmp	 DWORD PTR __imp_??1?$CStringT@DV?$StrTraitMFC_DLL@DV?$ChTraitsCRT@D@ATL@@@@@ATL@@QAE@XZ
__unwindfunclet$?OnInsert@CSetting_Common_Type_A@@IAEXXZ$3:
  0001b	8b 4d e0	 mov	 ecx, DWORD PTR $T3[ebp]
  0001e	ff 25 00 00 00
	00		 jmp	 DWORD PTR __imp_??1?$CStringT@DV?$StrTraitMFC_DLL@DV?$ChTraitsCRT@D@ATL@@@@@ATL@@QAE@XZ
__unwindfunclet$?OnInsert@CSetting_Common_Type_A@@IAEXXZ$5:
  00024	8d 4d e8	 lea	 ecx, DWORD PTR $T4[ebp]
  00027	ff 25 00 00 00
	00		 jmp	 DWORD PTR __imp_??1?$CStringT@DV?$StrTraitMFC_DLL@DV?$ChTraitsCRT@D@ATL@@@@@ATL@@QAE@XZ
__unwindfunclet$?OnInsert@CSetting_Common_Type_A@@IAEXXZ$6:
  0002d	8d 4d e4	 lea	 ecx, DWORD PTR _szText$[ebp]
  00030	ff 25 00 00 00
	00		 jmp	 DWORD PTR __imp_??1?$CStringT@DV?$StrTraitMFC_DLL@DV?$ChTraitsCRT@D@ATL@@@@@ATL@@QAE@XZ
  00036	cc		 int	 3
  00037	cc		 int	 3
  00038	cc		 int	 3
  00039	cc		 int	 3
  0003a	cc		 int	 3
__ehhandler$?OnInsert@CSetting_Common_Type_A@@IAEXXZ:
  0003b	90		 npad	 1
  0003c	90		 npad	 1
  0003d	8b 54 24 08	 mov	 edx, DWORD PTR [esp+8]
  00041	8d 42 0c	 lea	 eax, DWORD PTR [edx+12]
  00044	8b 4a d4	 mov	 ecx, DWORD PTR [edx-44]
  00047	33 c8		 xor	 ecx, eax
  00049	e8 00 00 00 00	 call	 @__security_check_cookie@4
  0004e	b8 00 00 00 00	 mov	 eax, OFFSET __ehfuncinfo$?OnInsert@CSetting_Common_Type_A@@IAEXXZ
  00053	e9 00 00 00 00	 jmp	 ___CxxFrameHandler3
text$x	ENDS
?OnInsert@CSetting_Common_Type_A@@IAEXXZ ENDP		; CSetting_Common_Type_A::OnInsert
; Function compile flags: /Ogtp
; File D:\git\src\IBK\IBK_DRFN\ProjSrc\SrcChartEx\ChartAddIn\ChartEnvSetupDlgAddIn\ChartEnvSetupDlgAddIn\Setting_Common_Type_A.cpp
; File C:\Program Files (x86)\Microsoft Visual Studio\2019\Community\VC\Tools\MSVC\14.29.30133\atlmfc\include\afxwin2.inl
; File D:\git\src\IBK\IBK_DRFN\ProjSrc\SrcChartEx\ChartAddIn\ChartEnvSetupDlgAddIn\ChartEnvSetupDlgAddIn\Setting_Common_Type_A.cpp
; File C:\Program Files (x86)\Microsoft Visual Studio\2019\Community\VC\Tools\MSVC\14.29.30133\atlmfc\include\afxwin2.inl
; File D:\git\src\IBK\IBK_DRFN\ProjSrc\SrcChartEx\ChartAddIn\ChartEnvSetupDlgAddIn\ChartEnvSetupDlgAddIn\Setting_Common_Type_A.cpp
; File D:\git\src\IBK\IBK_DRFN\ProjSrc\SrcChartEx\ChartAddIn\ChartEnvSetupDlgAddIn\Include_AddIn_135914\I135914\_IString.h
; File D:\git\src\IBK\IBK_DRFN\ProjSrc\SrcChartEx\ChartAddIn\ChartEnvSetupDlgAddIn\ChartEnvSetupDlgAddIn\Setting_Common_Type_A.cpp
; File C:\Program Files (x86)\Microsoft Visual Studio\2019\Community\VC\Tools\MSVC\14.29.30133\atlmfc\include\afxwin2.inl
; File D:\git\src\IBK\IBK_DRFN\ProjSrc\SrcChartEx\ChartAddIn\ChartEnvSetupDlgAddIn\ChartEnvSetupDlgAddIn\Setting_Common_Type_A.cpp
; File D:\git\src\IBK\IBK_DRFN\ProjSrc\SrcChartEx\ChartAddIn\ChartEnvSetupDlgAddIn\Include_AddIn_135914\I135914\_IString.h
; File D:\git\src\IBK\IBK_DRFN\ProjSrc\SrcChartEx\ChartAddIn\ChartEnvSetupDlgAddIn\ChartEnvSetupDlgAddIn\Setting_Common_Type_A.cpp
;	COMDAT ?OnSelchangeCmbThickness@CSetting_Common_Type_A@@IAEXXZ
_TEXT	SEGMENT
_szGraphName$2 = -20					; size = 8
__$EHRec$ = -12						; size = 12
?OnSelchangeCmbThickness@CSetting_Common_Type_A@@IAEXXZ PROC ; CSetting_Common_Type_A::OnSelchangeCmbThickness, COMDAT
; _this$ = ecx

; 1438 : {

  00000	55		 push	 ebp
  00001	8b ec		 mov	 ebp, esp
  00003	6a ff		 push	 -1
  00005	68 00 00 00 00	 push	 __ehhandler$?OnSelchangeCmbThickness@CSetting_Common_Type_A@@IAEXXZ
  0000a	64 a1 00 00 00
	00		 mov	 eax, DWORD PTR fs:0
  00010	50		 push	 eax
  00011	83 ec 08	 sub	 esp, 8
  00014	53		 push	 ebx
  00015	56		 push	 esi
  00016	57		 push	 edi
  00017	a1 00 00 00 00	 mov	 eax, DWORD PTR ___security_cookie
  0001c	33 c5		 xor	 eax, ebp
  0001e	50		 push	 eax
  0001f	8d 45 f4	 lea	 eax, DWORD PTR __$EHRec$[ebp]
  00022	64 a3 00 00 00
	00		 mov	 DWORD PTR fs:0, eax
  00028	8b f1		 mov	 esi, ecx
; File C:\Program Files (x86)\Microsoft Visual Studio\2019\Community\VC\Tools\MSVC\14.29.30133\atlmfc\include\afxwin2.inl

; 765  : 	{ ASSERT(::IsWindow(m_hWnd)); return (int)::SendMessage(m_hWnd, CB_GETCURSEL, 0, 0); }

  0002a	8b 1d 00 00 00
	00		 mov	 ebx, DWORD PTR __imp__SendMessageA@16
  00030	6a 00		 push	 0
  00032	6a 00		 push	 0
  00034	68 47 01 00 00	 push	 327			; 00000147H
  00039	ff b6 b8 10 00
	00		 push	 DWORD PTR [esi+4280]
  0003f	ff d3		 call	 ebx
; File D:\git\src\IBK\IBK_DRFN\ProjSrc\SrcChartEx\ChartAddIn\ChartEnvSetupDlgAddIn\ChartEnvSetupDlgAddIn\Setting_Common_Type_A.cpp

; 1440 : 	if( m_cmbThickness.GetCurSel() != 0 && m_cmbLineType.GetCurSel() != 0 )

  00041	85 c0		 test	 eax, eax
  00043	0f 84 48 01 00
	00		 je	 $LN2@OnSelchang
; File C:\Program Files (x86)\Microsoft Visual Studio\2019\Community\VC\Tools\MSVC\14.29.30133\atlmfc\include\afxwin2.inl

; 765  : 	{ ASSERT(::IsWindow(m_hWnd)); return (int)::SendMessage(m_hWnd, CB_GETCURSEL, 0, 0); }

  00049	6a 00		 push	 0
  0004b	6a 00		 push	 0
  0004d	68 47 01 00 00	 push	 327			; 00000147H
  00052	ff b6 40 11 00
	00		 push	 DWORD PTR [esi+4416]
  00058	ff d3		 call	 ebx
; File D:\git\src\IBK\IBK_DRFN\ProjSrc\SrcChartEx\ChartAddIn\ChartEnvSetupDlgAddIn\ChartEnvSetupDlgAddIn\Setting_Common_Type_A.cpp

; 1440 : 	if( m_cmbThickness.GetCurSel() != 0 && m_cmbLineType.GetCurSel() != 0 )

  0005a	85 c0		 test	 eax, eax
  0005c	0f 84 2f 01 00
	00		 je	 $LN2@OnSelchang

; 1445 : 		ILPCSTR szGraphName = m_pIGraphInfo->GetGraphNameString();

  00062	8b 8e c4 00 00
	00		 mov	 ecx, DWORD PTR [esi+196]
  00068	8b 01		 mov	 eax, DWORD PTR [ecx]
  0006a	ff 90 a0 00 00
	00		 call	 DWORD PTR [eax+160]
; File D:\git\src\IBK\IBK_DRFN\ProjSrc\SrcChartEx\ChartAddIn\ChartEnvSetupDlgAddIn\Include_AddIn_135914\I135914\_IString.h

; 39   : 		m_pIStrData = p_pIString;	// Do not AddRef(). Because It must be Return Value.

  00070	8b f8		 mov	 edi, eax
  00072	89 7d f0	 mov	 DWORD PTR _szGraphName$2[ebp+4], edi

; 40   : 		if( m_pIStrData) m_szData = m_pIStrData->GetData();

  00075	85 ff		 test	 edi, edi
  00077	74 0b		 je	 SHORT $LN15@OnSelchang
  00079	8b 17		 mov	 edx, DWORD PTR [edi]
  0007b	8b cf		 mov	 ecx, edi
  0007d	ff 52 10	 call	 DWORD PTR [edx+16]
  00080	8b c8		 mov	 ecx, eax
  00082	eb 02		 jmp	 SHORT $LN39@OnSelchang
$LN15@OnSelchang:

; 41   : 		else m_szData = NULL;

  00084	33 c9		 xor	 ecx, ecx
$LN39@OnSelchang:
; File D:\git\src\IBK\IBK_DRFN\ProjSrc\SrcChartEx\ChartAddIn\ChartEnvSetupDlgAddIn\ChartEnvSetupDlgAddIn\Setting_Common_Type_A.cpp

; 1445 : 		ILPCSTR szGraphName = m_pIGraphInfo->GetGraphNameString();

  00086	89 4d ec	 mov	 DWORD PTR _szGraphName$2[ebp], ecx

; 1446 : // 2008.01.25 by LYH >>
; 1447 : 		//if( strcmp( szGraphName, "") && strcmp( szGraphName, "Box Chart"))
; 1448 : 
; 1449 : 		if(!strcmp( szGraphName,  _MTEXT( C2_LINE_PRICE_MA )))

  00089	8b 15 54 00 00
	00		 mov	 edx, DWORD PTR ?g_iMetaTable@@3VIMetaTable@@A+84
  0008f	8b c1		 mov	 eax, ecx
  00091	c7 45 fc 00 00
	00 00		 mov	 DWORD PTR __$EHRec$[ebp+8], 0
  00098	8b 92 40 0d 00
	00		 mov	 edx, DWORD PTR [edx+3392]
  0009e	66 90		 npad	 2
$LL26@OnSelchang:
  000a0	8a 18		 mov	 bl, BYTE PTR [eax]
  000a2	3a 1a		 cmp	 bl, BYTE PTR [edx]
  000a4	75 1a		 jne	 SHORT $LN27@OnSelchang
  000a6	84 db		 test	 bl, bl
  000a8	74 12		 je	 SHORT $LN28@OnSelchang
  000aa	8a 58 01	 mov	 bl, BYTE PTR [eax+1]
  000ad	3a 5a 01	 cmp	 bl, BYTE PTR [edx+1]
  000b0	75 0e		 jne	 SHORT $LN27@OnSelchang
  000b2	83 c0 02	 add	 eax, 2
  000b5	83 c2 02	 add	 edx, 2
  000b8	84 db		 test	 bl, bl
  000ba	75 e4		 jne	 SHORT $LL26@OnSelchang
$LN28@OnSelchang:
  000bc	33 c0		 xor	 eax, eax
  000be	eb 05		 jmp	 SHORT $LN29@OnSelchang
$LN27@OnSelchang:
  000c0	1b c0		 sbb	 eax, eax
  000c2	83 c8 01	 or	 eax, 1
$LN29@OnSelchang:
  000c5	85 c0		 test	 eax, eax
  000c7	75 07		 jne	 SHORT $LN4@OnSelchang

; 1450 : 		{
; 1451 : 			m_cmbLineType.EnableWindow(TRUE);

  000c9	6a 01		 push	 1
  000cb	e9 93 00 00 00	 jmp	 $LN40@OnSelchang
$LN4@OnSelchang:

; 1452 : 			return;
; 1453 : 		}
; 1454 : 		else if( strcmp( szGraphName,  _MTEXT( C2_RAINBOW_CHART )) && strcmp( szGraphName,  _MTEXT( C2_BOX_CHART )))

  000d0	a1 54 00 00 00	 mov	 eax, DWORD PTR ?g_iMetaTable@@3VIMetaTable@@A+84
  000d5	8b 90 30 03 00
	00		 mov	 edx, DWORD PTR [eax+816]
  000db	8b c1		 mov	 eax, ecx
  000dd	0f 1f 00	 npad	 3
$LL30@OnSelchang:
  000e0	8a 18		 mov	 bl, BYTE PTR [eax]
  000e2	3a 1a		 cmp	 bl, BYTE PTR [edx]
  000e4	75 1a		 jne	 SHORT $LN31@OnSelchang
  000e6	84 db		 test	 bl, bl
  000e8	74 12		 je	 SHORT $LN32@OnSelchang
  000ea	8a 58 01	 mov	 bl, BYTE PTR [eax+1]
  000ed	3a 5a 01	 cmp	 bl, BYTE PTR [edx+1]
  000f0	75 0e		 jne	 SHORT $LN31@OnSelchang
  000f2	83 c0 02	 add	 eax, 2
  000f5	83 c2 02	 add	 edx, 2
  000f8	84 db		 test	 bl, bl
  000fa	75 e4		 jne	 SHORT $LL30@OnSelchang
$LN32@OnSelchang:
  000fc	33 c0		 xor	 eax, eax
  000fe	eb 05		 jmp	 SHORT $LN33@OnSelchang
$LN31@OnSelchang:
  00100	1b c0		 sbb	 eax, eax
  00102	83 c8 01	 or	 eax, 1
$LN33@OnSelchang:
  00105	85 c0		 test	 eax, eax
  00107	74 43		 je	 SHORT $LN6@OnSelchang
  00109	a1 54 00 00 00	 mov	 eax, DWORD PTR ?g_iMetaTable@@3VIMetaTable@@A+84
  0010e	8b 80 40 03 00
	00		 mov	 eax, DWORD PTR [eax+832]
$LL34@OnSelchang:
  00114	8a 11		 mov	 dl, BYTE PTR [ecx]
  00116	3a 10		 cmp	 dl, BYTE PTR [eax]
  00118	75 1a		 jne	 SHORT $LN35@OnSelchang
  0011a	84 d2		 test	 dl, dl
  0011c	74 12		 je	 SHORT $LN36@OnSelchang
  0011e	8a 51 01	 mov	 dl, BYTE PTR [ecx+1]
  00121	3a 50 01	 cmp	 dl, BYTE PTR [eax+1]
  00124	75 0e		 jne	 SHORT $LN35@OnSelchang
  00126	83 c1 02	 add	 ecx, 2
  00129	83 c0 02	 add	 eax, 2
  0012c	84 d2		 test	 dl, dl
  0012e	75 e4		 jne	 SHORT $LL34@OnSelchang
$LN36@OnSelchang:
  00130	33 c0		 xor	 eax, eax
  00132	eb 05		 jmp	 SHORT $LN37@OnSelchang
$LN35@OnSelchang:
  00134	1b c0		 sbb	 eax, eax
  00136	83 c8 01	 or	 eax, 1
$LN37@OnSelchang:
  00139	85 c0		 test	 eax, eax
  0013b	74 0f		 je	 SHORT $LN6@OnSelchang

; 1455 : 			//AfxMessageBox(" \"1pt\"     .");
; 1456 : 			AfxMessageBox(m_strMsgLineShape);

  0013d	6a 00		 push	 0
  0013f	6a 00		 push	 0
  00141	ff b6 e0 00 00
	00		 push	 DWORD PTR [esi+224]
  00147	e8 00 00 00 00	 call	 ?AfxMessageBox@@YGHPBDII@Z ; AfxMessageBox
$LN6@OnSelchang:
; File C:\Program Files (x86)\Microsoft Visual Studio\2019\Community\VC\Tools\MSVC\14.29.30133\atlmfc\include\afxwin2.inl

; 767  : 	{ ASSERT(::IsWindow(m_hWnd)); return (int)::SendMessage(m_hWnd, CB_SETCURSEL, nSelect, 0); }

  0014c	6a 00		 push	 0
  0014e	6a 00		 push	 0
  00150	68 4e 01 00 00	 push	 334			; 0000014eH
  00155	ff b6 40 11 00
	00		 push	 DWORD PTR [esi+4416]
  0015b	ff 15 00 00 00
	00		 call	 DWORD PTR __imp__SendMessageA@16
; File D:\git\src\IBK\IBK_DRFN\ProjSrc\SrcChartEx\ChartAddIn\ChartEnvSetupDlgAddIn\ChartEnvSetupDlgAddIn\Setting_Common_Type_A.cpp

; 1461 : 		m_cmbLineType.EnableWindow(FALSE);

  00161	6a 00		 push	 0
$LN40@OnSelchang:
; File D:\git\src\IBK\IBK_DRFN\ProjSrc\SrcChartEx\ChartAddIn\ChartEnvSetupDlgAddIn\Include_AddIn_135914\I135914\_IString.h

; 44   : 	{

  00163	8d 8e 20 11 00
	00		 lea	 ecx, DWORD PTR [esi+4384]
  00169	e8 00 00 00 00	 call	 ?EnableWindow@CWnd@@QAEHH@Z ; CWnd::EnableWindow
  0016e	c7 45 fc 01 00
	00 00		 mov	 DWORD PTR __$EHRec$[ebp+8], 1

; 45   : 		if( m_pIStrData)

  00175	85 ff		 test	 edi, edi
  00177	74 25		 je	 SHORT $LN3@OnSelchang

; 46   : 		{
; 47   : 			m_pIStrData->Release();

  00179	8b 07		 mov	 eax, DWORD PTR [edi]
  0017b	57		 push	 edi
  0017c	ff 50 08	 call	 DWORD PTR [eax+8]
; File D:\git\src\IBK\IBK_DRFN\ProjSrc\SrcChartEx\ChartAddIn\ChartEnvSetupDlgAddIn\ChartEnvSetupDlgAddIn\Setting_Common_Type_A.cpp

; 1467 : }

  0017f	8b 4d f4	 mov	 ecx, DWORD PTR __$EHRec$[ebp]
  00182	64 89 0d 00 00
	00 00		 mov	 DWORD PTR fs:0, ecx
  00189	59		 pop	 ecx
  0018a	5f		 pop	 edi
  0018b	5e		 pop	 esi
  0018c	5b		 pop	 ebx
  0018d	8b e5		 mov	 esp, ebp
  0018f	5d		 pop	 ebp
  00190	c3		 ret	 0
$LN2@OnSelchang:

; 1462 : 		return;
; 1463 : 	}	
; 1464 : 
; 1465 : 	else
; 1466 : 		m_cmbLineType.EnableWindow(TRUE);	

  00191	6a 01		 push	 1
  00193	8d 8e 20 11 00
	00		 lea	 ecx, DWORD PTR [esi+4384]
  00199	e8 00 00 00 00	 call	 ?EnableWindow@CWnd@@QAEHH@Z ; CWnd::EnableWindow
$LN3@OnSelchang:

; 1467 : }

  0019e	8b 4d f4	 mov	 ecx, DWORD PTR __$EHRec$[ebp]
  001a1	64 89 0d 00 00
	00 00		 mov	 DWORD PTR fs:0, ecx
  001a8	59		 pop	 ecx
  001a9	5f		 pop	 edi
  001aa	5e		 pop	 esi
  001ab	5b		 pop	 ebx
  001ac	8b e5		 mov	 esp, ebp
  001ae	5d		 pop	 ebp
  001af	c3		 ret	 0
_TEXT	ENDS
;	COMDAT text$x
text$x	SEGMENT
__unwindfunclet$?OnSelchangeCmbThickness@CSetting_Common_Type_A@@IAEXXZ$0:
  00000	8d 4d ec	 lea	 ecx, DWORD PTR _szGraphName$2[ebp]
  00003	e9 00 00 00 00	 jmp	 ??1ILPCSTR135914@@QAE@XZ ; ILPCSTR135914::~ILPCSTR135914
  00008	cc		 int	 3
  00009	cc		 int	 3
  0000a	cc		 int	 3
  0000b	cc		 int	 3
  0000c	cc		 int	 3
__ehhandler$?OnSelchangeCmbThickness@CSetting_Common_Type_A@@IAEXXZ:
  0000d	90		 npad	 1
  0000e	90		 npad	 1
  0000f	8b 54 24 08	 mov	 edx, DWORD PTR [esp+8]
  00013	8d 42 0c	 lea	 eax, DWORD PTR [edx+12]
  00016	8b 4a e8	 mov	 ecx, DWORD PTR [edx-24]
  00019	33 c8		 xor	 ecx, eax
  0001b	e8 00 00 00 00	 call	 @__security_check_cookie@4
  00020	b8 00 00 00 00	 mov	 eax, OFFSET __ehfuncinfo$?OnSelchangeCmbThickness@CSetting_Common_Type_A@@IAEXXZ
  00025	e9 00 00 00 00	 jmp	 ___CxxFrameHandler3
text$x	ENDS
?OnSelchangeCmbThickness@CSetting_Common_Type_A@@IAEXXZ ENDP ; CSetting_Common_Type_A::OnSelchangeCmbThickness
; Function compile flags: /Ogtp
; File D:\git\src\IBK\IBK_DRFN\ProjSrc\SrcChartEx\ChartAddIn\ChartEnvSetupDlgAddIn\ChartEnvSetupDlgAddIn\Setting_Common_Type_A.cpp
; File C:\Program Files (x86)\Microsoft Visual Studio\2019\Community\VC\Tools\MSVC\14.29.30133\atlmfc\include\afxwin2.inl
; File D:\git\src\IBK\IBK_DRFN\ProjSrc\SrcChartEx\ChartAddIn\ChartEnvSetupDlgAddIn\ChartEnvSetupDlgAddIn\Setting_Common_Type_A.cpp
; File C:\Program Files (x86)\Microsoft Visual Studio\2019\Community\VC\Tools\MSVC\14.29.30133\atlmfc\include\afxwin2.inl
; File D:\git\src\IBK\IBK_DRFN\ProjSrc\SrcChartEx\ChartAddIn\ChartEnvSetupDlgAddIn\ChartEnvSetupDlgAddIn\Setting_Common_Type_A.cpp
; File D:\git\src\IBK\IBK_DRFN\ProjSrc\SrcChartEx\ChartAddIn\ChartEnvSetupDlgAddIn\Include_AddIn_135914\I135914\_IString.h
; File D:\git\src\IBK\IBK_DRFN\ProjSrc\SrcChartEx\ChartAddIn\ChartEnvSetupDlgAddIn\ChartEnvSetupDlgAddIn\Setting_Common_Type_A.cpp
; File C:\Program Files (x86)\Microsoft Visual Studio\2019\Community\VC\Tools\MSVC\14.29.30133\atlmfc\include\afxwin2.inl
; File D:\git\src\IBK\IBK_DRFN\ProjSrc\SrcChartEx\ChartAddIn\ChartEnvSetupDlgAddIn\ChartEnvSetupDlgAddIn\Setting_Common_Type_A.cpp
; File D:\git\src\IBK\IBK_DRFN\ProjSrc\SrcChartEx\ChartAddIn\ChartEnvSetupDlgAddIn\Include_AddIn_135914\I135914\_IString.h
; File D:\git\src\IBK\IBK_DRFN\ProjSrc\SrcChartEx\ChartAddIn\ChartEnvSetupDlgAddIn\ChartEnvSetupDlgAddIn\Setting_Common_Type_A.cpp
;	COMDAT ?OnSelchangeCmbLinetype@CSetting_Common_Type_A@@IAEXXZ
_TEXT	SEGMENT
_szGraphName$2 = -20					; size = 8
__$EHRec$ = -12						; size = 12
?OnSelchangeCmbLinetype@CSetting_Common_Type_A@@IAEXXZ PROC ; CSetting_Common_Type_A::OnSelchangeCmbLinetype, COMDAT
; _this$ = ecx

; 1407 : {

  00000	55		 push	 ebp
  00001	8b ec		 mov	 ebp, esp
  00003	6a ff		 push	 -1
  00005	68 00 00 00 00	 push	 __ehhandler$?OnSelchangeCmbLinetype@CSetting_Common_Type_A@@IAEXXZ
  0000a	64 a1 00 00 00
	00		 mov	 eax, DWORD PTR fs:0
  00010	50		 push	 eax
  00011	83 ec 08	 sub	 esp, 8
  00014	53		 push	 ebx
  00015	56		 push	 esi
  00016	57		 push	 edi
  00017	a1 00 00 00 00	 mov	 eax, DWORD PTR ___security_cookie
  0001c	33 c5		 xor	 eax, ebp
  0001e	50		 push	 eax
  0001f	8d 45 f4	 lea	 eax, DWORD PTR __$EHRec$[ebp]
  00022	64 a3 00 00 00
	00		 mov	 DWORD PTR fs:0, eax
  00028	8b f1		 mov	 esi, ecx
; File C:\Program Files (x86)\Microsoft Visual Studio\2019\Community\VC\Tools\MSVC\14.29.30133\atlmfc\include\afxwin2.inl

; 765  : 	{ ASSERT(::IsWindow(m_hWnd)); return (int)::SendMessage(m_hWnd, CB_GETCURSEL, 0, 0); }

  0002a	8b 1d 00 00 00
	00		 mov	 ebx, DWORD PTR __imp__SendMessageA@16
  00030	6a 00		 push	 0
  00032	6a 00		 push	 0
  00034	68 47 01 00 00	 push	 327			; 00000147H
  00039	ff b6 b8 10 00
	00		 push	 DWORD PTR [esi+4280]
  0003f	ff d3		 call	 ebx
; File D:\git\src\IBK\IBK_DRFN\ProjSrc\SrcChartEx\ChartAddIn\ChartEnvSetupDlgAddIn\ChartEnvSetupDlgAddIn\Setting_Common_Type_A.cpp

; 1409 : 	if( m_cmbThickness.GetCurSel() != 0 && m_cmbLineType.GetCurSel() != 0 )

  00041	85 c0		 test	 eax, eax
  00043	0f 84 14 01 00
	00		 je	 $LN2@OnSelchang
; File C:\Program Files (x86)\Microsoft Visual Studio\2019\Community\VC\Tools\MSVC\14.29.30133\atlmfc\include\afxwin2.inl

; 765  : 	{ ASSERT(::IsWindow(m_hWnd)); return (int)::SendMessage(m_hWnd, CB_GETCURSEL, 0, 0); }

  00049	6a 00		 push	 0
  0004b	6a 00		 push	 0
  0004d	68 47 01 00 00	 push	 327			; 00000147H
  00052	ff b6 40 11 00
	00		 push	 DWORD PTR [esi+4416]
  00058	ff d3		 call	 ebx
; File D:\git\src\IBK\IBK_DRFN\ProjSrc\SrcChartEx\ChartAddIn\ChartEnvSetupDlgAddIn\ChartEnvSetupDlgAddIn\Setting_Common_Type_A.cpp

; 1409 : 	if( m_cmbThickness.GetCurSel() != 0 && m_cmbLineType.GetCurSel() != 0 )

  0005a	85 c0		 test	 eax, eax
  0005c	0f 84 fb 00 00
	00		 je	 $LN2@OnSelchang

; 1414 : 		ILPCSTR szGraphName = m_pIGraphInfo->GetGraphNameString();

  00062	8b 8e c4 00 00
	00		 mov	 ecx, DWORD PTR [esi+196]
  00068	8b 01		 mov	 eax, DWORD PTR [ecx]
  0006a	ff 90 a0 00 00
	00		 call	 DWORD PTR [eax+160]
; File D:\git\src\IBK\IBK_DRFN\ProjSrc\SrcChartEx\ChartAddIn\ChartEnvSetupDlgAddIn\Include_AddIn_135914\I135914\_IString.h

; 39   : 		m_pIStrData = p_pIString;	// Do not AddRef(). Because It must be Return Value.

  00070	8b f8		 mov	 edi, eax
  00072	89 7d f0	 mov	 DWORD PTR _szGraphName$2[ebp+4], edi

; 40   : 		if( m_pIStrData) m_szData = m_pIStrData->GetData();

  00075	85 ff		 test	 edi, edi
  00077	74 09		 je	 SHORT $LN15@OnSelchang
  00079	8b 17		 mov	 edx, DWORD PTR [edi]
  0007b	8b cf		 mov	 ecx, edi
  0007d	ff 52 10	 call	 DWORD PTR [edx+16]
  00080	eb 02		 jmp	 SHORT $LN35@OnSelchang
$LN15@OnSelchang:

; 41   : 		else m_szData = NULL;

  00082	33 c0		 xor	 eax, eax
$LN35@OnSelchang:
; File D:\git\src\IBK\IBK_DRFN\ProjSrc\SrcChartEx\ChartAddIn\ChartEnvSetupDlgAddIn\ChartEnvSetupDlgAddIn\Setting_Common_Type_A.cpp

; 1414 : 		ILPCSTR szGraphName = m_pIGraphInfo->GetGraphNameString();

  00084	89 45 ec	 mov	 DWORD PTR _szGraphName$2[ebp], eax

; 1415 : // 2008.01.25 by LYH >>
; 1416 : //		if( strcmp( szGraphName, "")) 
; 1417 : 		if(!strcmp( szGraphName,  _MTEXT( C2_LINE_PRICE_MA )))

  00087	8b 15 54 00 00
	00		 mov	 edx, DWORD PTR ?g_iMetaTable@@3VIMetaTable@@A+84
  0008d	8b c8		 mov	 ecx, eax
  0008f	c7 45 fc 00 00
	00 00		 mov	 DWORD PTR __$EHRec$[ebp+8], 0
  00096	8b 92 40 0d 00
	00		 mov	 edx, DWORD PTR [edx+3392]
  0009c	0f 1f 40 00	 npad	 4
$LL26@OnSelchang:
  000a0	8a 19		 mov	 bl, BYTE PTR [ecx]
  000a2	3a 1a		 cmp	 bl, BYTE PTR [edx]
  000a4	75 1a		 jne	 SHORT $LN27@OnSelchang
  000a6	84 db		 test	 bl, bl
  000a8	74 12		 je	 SHORT $LN28@OnSelchang
  000aa	8a 59 01	 mov	 bl, BYTE PTR [ecx+1]
  000ad	3a 5a 01	 cmp	 bl, BYTE PTR [edx+1]
  000b0	75 0e		 jne	 SHORT $LN27@OnSelchang
  000b2	83 c1 02	 add	 ecx, 2
  000b5	83 c2 02	 add	 edx, 2
  000b8	84 db		 test	 bl, bl
  000ba	75 e4		 jne	 SHORT $LL26@OnSelchang
$LN28@OnSelchang:
  000bc	33 c9		 xor	 ecx, ecx
  000be	eb 05		 jmp	 SHORT $LN29@OnSelchang
$LN27@OnSelchang:
  000c0	1b c9		 sbb	 ecx, ecx
  000c2	83 c9 01	 or	 ecx, 1
$LN29@OnSelchang:
  000c5	85 c9		 test	 ecx, ecx
  000c7	75 04		 jne	 SHORT $LN4@OnSelchang

; 1418 : 		{
; 1419 : 			m_cmbThickness.EnableWindow(TRUE);

  000c9	6a 01		 push	 1
  000cb	eb 62		 jmp	 SHORT $LN36@OnSelchang
$LN4@OnSelchang:

; 1420 : 			return;
; 1421 : 		}
; 1422 : 		else if( strcmp( szGraphName,  _MTEXT( C2_RAINBOW_CHART )))

  000cd	8b 0d 54 00 00
	00		 mov	 ecx, DWORD PTR ?g_iMetaTable@@3VIMetaTable@@A+84
  000d3	8b 89 30 03 00
	00		 mov	 ecx, DWORD PTR [ecx+816]
  000d9	0f 1f 80 00 00
	00 00		 npad	 7
$LL30@OnSelchang:
  000e0	8a 10		 mov	 dl, BYTE PTR [eax]
  000e2	3a 11		 cmp	 dl, BYTE PTR [ecx]
  000e4	75 1a		 jne	 SHORT $LN31@OnSelchang
  000e6	84 d2		 test	 dl, dl
  000e8	74 12		 je	 SHORT $LN32@OnSelchang
  000ea	8a 50 01	 mov	 dl, BYTE PTR [eax+1]
  000ed	3a 51 01	 cmp	 dl, BYTE PTR [ecx+1]
  000f0	75 0e		 jne	 SHORT $LN31@OnSelchang
  000f2	83 c0 02	 add	 eax, 2
  000f5	83 c1 02	 add	 ecx, 2
  000f8	84 d2		 test	 dl, dl
  000fa	75 e4		 jne	 SHORT $LL30@OnSelchang
$LN32@OnSelchang:
  000fc	33 c0		 xor	 eax, eax
  000fe	eb 05		 jmp	 SHORT $LN33@OnSelchang
$LN31@OnSelchang:
  00100	1b c0		 sbb	 eax, eax
  00102	83 c8 01	 or	 eax, 1
$LN33@OnSelchang:
  00105	85 c0		 test	 eax, eax
  00107	74 0f		 je	 SHORT $LN6@OnSelchang

; 1423 : 			//AfxMessageBox(" \"\"     .");
; 1424 : 			AfxMessageBox(m_strMsgLineThick);

  00109	6a 00		 push	 0
  0010b	6a 00		 push	 0
  0010d	ff b6 dc 00 00
	00		 push	 DWORD PTR [esi+220]
  00113	e8 00 00 00 00	 call	 ?AfxMessageBox@@YGHPBDII@Z ; AfxMessageBox
$LN6@OnSelchang:
; File C:\Program Files (x86)\Microsoft Visual Studio\2019\Community\VC\Tools\MSVC\14.29.30133\atlmfc\include\afxwin2.inl

; 767  : 	{ ASSERT(::IsWindow(m_hWnd)); return (int)::SendMessage(m_hWnd, CB_SETCURSEL, nSelect, 0); }

  00118	6a 00		 push	 0
  0011a	6a 00		 push	 0
  0011c	68 4e 01 00 00	 push	 334			; 0000014eH
  00121	ff b6 b8 10 00
	00		 push	 DWORD PTR [esi+4280]
  00127	ff 15 00 00 00
	00		 call	 DWORD PTR __imp__SendMessageA@16
; File D:\git\src\IBK\IBK_DRFN\ProjSrc\SrcChartEx\ChartAddIn\ChartEnvSetupDlgAddIn\ChartEnvSetupDlgAddIn\Setting_Common_Type_A.cpp

; 1429 : 		m_cmbThickness.EnableWindow(FALSE);

  0012d	6a 00		 push	 0
$LN36@OnSelchang:
; File D:\git\src\IBK\IBK_DRFN\ProjSrc\SrcChartEx\ChartAddIn\ChartEnvSetupDlgAddIn\Include_AddIn_135914\I135914\_IString.h

; 44   : 	{

  0012f	8d 8e 98 10 00
	00		 lea	 ecx, DWORD PTR [esi+4248]
  00135	e8 00 00 00 00	 call	 ?EnableWindow@CWnd@@QAEHH@Z ; CWnd::EnableWindow
  0013a	c7 45 fc 01 00
	00 00		 mov	 DWORD PTR __$EHRec$[ebp+8], 1

; 45   : 		if( m_pIStrData)

  00141	85 ff		 test	 edi, edi
  00143	74 25		 je	 SHORT $LN3@OnSelchang

; 46   : 		{
; 47   : 			m_pIStrData->Release();

  00145	8b 07		 mov	 eax, DWORD PTR [edi]
  00147	57		 push	 edi
  00148	ff 50 08	 call	 DWORD PTR [eax+8]
; File D:\git\src\IBK\IBK_DRFN\ProjSrc\SrcChartEx\ChartAddIn\ChartEnvSetupDlgAddIn\ChartEnvSetupDlgAddIn\Setting_Common_Type_A.cpp

; 1435 : }

  0014b	8b 4d f4	 mov	 ecx, DWORD PTR __$EHRec$[ebp]
  0014e	64 89 0d 00 00
	00 00		 mov	 DWORD PTR fs:0, ecx
  00155	59		 pop	 ecx
  00156	5f		 pop	 edi
  00157	5e		 pop	 esi
  00158	5b		 pop	 ebx
  00159	8b e5		 mov	 esp, ebp
  0015b	5d		 pop	 ebp
  0015c	c3		 ret	 0
$LN2@OnSelchang:

; 1430 : 		return;
; 1431 : 	}
; 1432 : 
; 1433 : 	else
; 1434 : 		m_cmbThickness.EnableWindow(TRUE);

  0015d	6a 01		 push	 1
  0015f	8d 8e 98 10 00
	00		 lea	 ecx, DWORD PTR [esi+4248]
  00165	e8 00 00 00 00	 call	 ?EnableWindow@CWnd@@QAEHH@Z ; CWnd::EnableWindow
$LN3@OnSelchang:

; 1435 : }

  0016a	8b 4d f4	 mov	 ecx, DWORD PTR __$EHRec$[ebp]
  0016d	64 89 0d 00 00
	00 00		 mov	 DWORD PTR fs:0, ecx
  00174	59		 pop	 ecx
  00175	5f		 pop	 edi
  00176	5e		 pop	 esi
  00177	5b		 pop	 ebx
  00178	8b e5		 mov	 esp, ebp
  0017a	5d		 pop	 ebp
  0017b	c3		 ret	 0
_TEXT	ENDS
;	COMDAT text$x
text$x	SEGMENT
__unwindfunclet$?OnSelchangeCmbLinetype@CSetting_Common_Type_A@@IAEXXZ$0:
  00000	8d 4d ec	 lea	 ecx, DWORD PTR _szGraphName$2[ebp]
  00003	e9 00 00 00 00	 jmp	 ??1ILPCSTR135914@@QAE@XZ ; ILPCSTR135914::~ILPCSTR135914
  00008	cc		 int	 3
  00009	cc		 int	 3
  0000a	cc		 int	 3
  0000b	cc		 int	 3
  0000c	cc		 int	 3
__ehhandler$?OnSelchangeCmbLinetype@CSetting_Common_Type_A@@IAEXXZ:
  0000d	90		 npad	 1
  0000e	90		 npad	 1
  0000f	8b 54 24 08	 mov	 edx, DWORD PTR [esp+8]
  00013	8d 42 0c	 lea	 eax, DWORD PTR [edx+12]
  00016	8b 4a e8	 mov	 ecx, DWORD PTR [edx-24]
  00019	33 c8		 xor	 ecx, eax
  0001b	e8 00 00 00 00	 call	 @__security_check_cookie@4
  00020	b8 00 00 00 00	 mov	 eax, OFFSET __ehfuncinfo$?OnSelchangeCmbLinetype@CSetting_Common_Type_A@@IAEXXZ
  00025	e9 00 00 00 00	 jmp	 ___CxxFrameHandler3
text$x	ENDS
?OnSelchangeCmbLinetype@CSetting_Common_Type_A@@IAEXXZ ENDP ; CSetting_Common_Type_A::OnSelchangeCmbLinetype
; Function compile flags: /Ogtp
; File D:\git\src\IBK\IBK_DRFN\ProjSrc\SrcChartEx\ChartAddIn\ChartEnvSetupDlgAddIn\ChartEnvSetupDlgAddIn\Setting_Common_Type_A.cpp
;	COMDAT ?OnClickListComposition@CSetting_Common_Type_A@@IAEXPAUtagNMHDR@@PAJ@Z
_TEXT	SEGMENT
_pNMHDR$ = 8						; size = 4
_pResult$ = 12						; size = 4
?OnClickListComposition@CSetting_Common_Type_A@@IAEXPAUtagNMHDR@@PAJ@Z PROC ; CSetting_Common_Type_A::OnClickListComposition, COMDAT
; _this$ = ecx

; 1220 : {

  00000	55		 push	 ebp
  00001	8b ec		 mov	 ebp, esp
  00003	56		 push	 esi
  00004	8b f1		 mov	 esi, ecx

; 1221 : 	NM_LISTVIEW* pNMListView = (NM_LISTVIEW*)pNMHDR;
; 1222 : 	// TODO: Add your control notification handler code here
; 1223 : 
; 1224 : //	m_lstComposition.SetItemState(pNMListView->iItem, LVIS_SELECTED, LVIF_STATE); 
; 1225 : 	
; 1226 : 	// 1.        .
; 1227 : 	OnApplySubGraphData();

  00006	e8 00 00 00 00	 call	 ?OnApplySubGraphData@CSetting_Common_Type_A@@AAEXXZ ; CSetting_Common_Type_A::OnApplySubGraphData

; 1228 : 	Initial_SubGraphData( pNMListView->iItem );

  0000b	8b 45 08	 mov	 eax, DWORD PTR _pNMHDR$[ebp]
  0000e	8b ce		 mov	 ecx, esi
  00010	ff 70 0c	 push	 DWORD PTR [eax+12]
  00013	e8 00 00 00 00	 call	 ?Initial_SubGraphData@CSetting_Common_Type_A@@AAEXH@Z ; CSetting_Common_Type_A::Initial_SubGraphData

; 1229 : 	
; 1230 : 	*pResult = 0;

  00018	8b 45 0c	 mov	 eax, DWORD PTR _pResult$[ebp]
  0001b	5e		 pop	 esi
  0001c	c7 00 00 00 00
	00		 mov	 DWORD PTR [eax], 0

; 1231 : }

  00022	5d		 pop	 ebp
  00023	c2 08 00	 ret	 8
?OnClickListComposition@CSetting_Common_Type_A@@IAEXPAUtagNMHDR@@PAJ@Z ENDP ; CSetting_Common_Type_A::OnClickListComposition
_TEXT	ENDS
; Function compile flags: /Ogtp
; File D:\git\src\IBK\IBK_DRFN\ProjSrc\SrcChartEx\ChartAddIn\ChartEnvSetupDlgAddIn\ChartEnvSetupDlgAddIn\Setting_Common_Type_A.cpp
; File C:\Program Files (x86)\Microsoft Visual Studio\2019\Community\VC\Tools\MSVC\14.29.30133\atlmfc\include\afxcmn.inl
; File D:\git\src\IBK\IBK_DRFN\ProjSrc\SrcChartEx\ChartAddIn\ChartEnvSetupDlgAddIn\ChartEnvSetupDlgAddIn\Setting_Common_Type_A.cpp
; File C:\Program Files (x86)\Microsoft Visual Studio\2019\Community\VC\Tools\MSVC\14.29.30133\atlmfc\include\afxcmn.inl
; File D:\git\src\IBK\IBK_DRFN\ProjSrc\SrcChartEx\ChartAddIn\ChartEnvSetupDlgAddIn\ChartEnvSetupDlgAddIn\Setting_Common_Type_A.cpp
; File C:\Program Files (x86)\Microsoft Visual Studio\2019\Community\VC\Tools\MSVC\14.29.30133\atlmfc\include\afxcmn2.inl
; File D:\git\src\IBK\IBK_DRFN\ProjSrc\SrcChartEx\ChartAddIn\ChartEnvSetupDlgAddIn\ChartEnvSetupDlgAddIn\Setting_Common_Type_A.cpp
;	COMDAT ?OnItemchangedListComposition@CSetting_Common_Type_A@@IAEXPAUtagNMHDR@@PAJ@Z
_TEXT	SEGMENT
tv547 = -12						; size = 4
tv550 = -8						; size = 4
_this$1$ = -4						; size = 4
_pNMHDR$ = 8						; size = 4
_pResult$ = 12						; size = 4
?OnItemchangedListComposition@CSetting_Common_Type_A@@IAEXPAUtagNMHDR@@PAJ@Z PROC ; CSetting_Common_Type_A::OnItemchangedListComposition, COMDAT
; _this$ = ecx

; 1335 : {

  00000	55		 push	 ebp
  00001	8b ec		 mov	 ebp, esp
  00003	83 ec 0c	 sub	 esp, 12			; 0000000cH

; 1336 : 	NM_LISTVIEW* pNMListView = (NM_LISTVIEW*)pNMHDR;
; 1337 : 	// TODO: Add your control notification handler code here
; 1338 : 	*pResult = 0;

  00006	8b 45 0c	 mov	 eax, DWORD PTR _pResult$[ebp]
  00009	56		 push	 esi
  0000a	57		 push	 edi

; 1339 : 
; 1340 : 	if(pNMListView->uOldState == 0 && pNMListView->uNewState == 0)

  0000b	8b 7d 08	 mov	 edi, DWORD PTR _pNMHDR$[ebp]
  0000e	8b f1		 mov	 esi, ecx
  00010	c7 00 00 00 00
	00		 mov	 DWORD PTR [eax], 0
  00016	89 75 fc	 mov	 DWORD PTR _this$1$[ebp], esi
  00019	8b 57 18	 mov	 edx, DWORD PTR [edi+24]
  0001c	85 d2		 test	 edx, edx
  0001e	75 09		 jne	 SHORT $LN30@OnItemchan
  00020	39 57 14	 cmp	 DWORD PTR [edi+20], edx
  00023	0f 84 3f 01 00
	00		 je	 $LN16@OnItemchan
$LN30@OnItemchan:

; 1341 : 		return;	// No change
; 1342 : 
; 1343 : 	// Old check box state
; 1344 : 	BOOL bPrevState = (BOOL)(((pNMListView->uOldState & LVIS_STATEIMAGEMASK)>>12)-1);   // Old check box state
; 1345 : 	if (bPrevState < 0)			// On startup there's no previous state 
; 1346 : 		bPrevState = 0;			// so assign as false (unchecked)
; 1347 : 
; 1348 : 	// New check box state
; 1349 : 	BOOL bChecked=(BOOL)(((pNMListView->uNewState & LVIS_STATEIMAGEMASK)>>12)-1);   

  00029	8b 4f 14	 mov	 ecx, DWORD PTR [edi+20]
  0002c	c1 ea 0c	 shr	 edx, 12			; 0000000cH
  0002f	83 e2 0f	 and	 edx, 15			; 0000000fH
  00032	53		 push	 ebx
  00033	33 db		 xor	 ebx, ebx
  00035	83 fa 01	 cmp	 edx, 1
  00038	8d 42 ff	 lea	 eax, DWORD PTR [edx-1]
  0003b	0f 43 d8	 cmovae	 ebx, eax
  0003e	c1 e9 0c	 shr	 ecx, 12			; 0000000cH
  00041	83 e1 0f	 and	 ecx, 15			; 0000000fH

; 1350 : 	if (bChecked < 0)		// On non-checkbox notifications assume false
; 1351 : 		bChecked = 0; 
; 1352 : 
; 1353 : 	if (bPrevState == bChecked) // No change in check box

  00044	33 d2		 xor	 edx, edx
  00046	83 f9 01	 cmp	 ecx, 1
  00049	8d 41 ff	 lea	 eax, DWORD PTR [ecx-1]
  0004c	0f 43 d0	 cmovae	 edx, eax
  0004f	89 55 f4	 mov	 DWORD PTR tv547[ebp], edx
  00052	3b da		 cmp	 ebx, edx
  00054	0f 84 0d 01 00
	00		 je	 $LN34@OnItemchan

; 1354 : 		return;
; 1355 : 
; 1356 : 	if( pNMListView->iItem < 0 )

  0005a	83 7f 0c 00	 cmp	 DWORD PTR [edi+12], 0
  0005e	7d 07		 jge	 SHORT $LN9@OnItemchan

; 1357 : 		pNMListView->iItem = 0;

  00060	c7 47 0c 00 00
	00 00		 mov	 DWORD PTR [edi+12], 0
$LN9@OnItemchan:

; 1358 : 
; 1359 : 	BOOL bReCheck = FALSE;
; 1360 : 	//   Item  .
; 1361 : 	if( bPrevState == 1 && bChecked == 0 )

  00067	83 fb 01	 cmp	 ebx, 1
  0006a	0f 85 bd 00 00
	00		 jne	 $LN33@OnItemchan
  00070	85 d2		 test	 edx, edx
  00072	0f 85 b5 00 00
	00		 jne	 $LN33@OnItemchan
; File C:\Program Files (x86)\Microsoft Visual Studio\2019\Community\VC\Tools\MSVC\14.29.30133\atlmfc\include\afxcmn.inl

; 155  : 	{ ASSERT(::IsWindow(m_hWnd)); return (int) ::SendMessage(m_hWnd, LVM_GETITEMCOUNT, 0, 0L); }

  00078	52		 push	 edx
  00079	52		 push	 edx
  0007a	68 04 10 00 00	 push	 4100			; 00001004H
  0007f	ff b6 50 13 00
	00		 push	 DWORD PTR [esi+4944]
  00085	ff 15 00 00 00
	00		 call	 DWORD PTR __imp__SendMessageA@16
  0008b	8b 4d fc	 mov	 ecx, DWORD PTR _this$1$[ebp]
; File D:\git\src\IBK\IBK_DRFN\ProjSrc\SrcChartEx\ChartAddIn\ChartEnvSetupDlgAddIn\ChartEnvSetupDlgAddIn\Setting_Common_Type_A.cpp

; 1364 : 		int nChecked = 0;

  0008e	33 db		 xor	 ebx, ebx
; File C:\Program Files (x86)\Microsoft Visual Studio\2019\Community\VC\Tools\MSVC\14.29.30133\atlmfc\include\afxcmn.inl

; 155  : 	{ ASSERT(::IsWindow(m_hWnd)); return (int) ::SendMessage(m_hWnd, LVM_GETITEMCOUNT, 0, 0L); }

  00090	81 c1 30 13 00
	00		 add	 ecx, 4912		; 00001330H
  00096	33 f6		 xor	 esi, esi
  00098	89 4d f8	 mov	 DWORD PTR tv550[ebp], ecx
; File D:\git\src\IBK\IBK_DRFN\ProjSrc\SrcChartEx\ChartAddIn\ChartEnvSetupDlgAddIn\ChartEnvSetupDlgAddIn\Setting_Common_Type_A.cpp

; 1365 : 		for( int nItem = 0 ; nItem < nCount ; nItem++ )

  0009b	85 c0		 test	 eax, eax
  0009d	7e 19		 jle	 SHORT $LN28@OnItemchan
  0009f	8b f8		 mov	 edi, eax
$LL4@OnItemchan:

; 1366 : 		{
; 1367 : 			if( m_lstComposition.GetCheck( nItem ) == TRUE )

  000a1	56		 push	 esi
  000a2	e8 00 00 00 00	 call	 ?GetCheck@CListCtrl@@QBEHH@Z ; CListCtrl::GetCheck
  000a7	83 f8 01	 cmp	 eax, 1
  000aa	75 01		 jne	 SHORT $LN2@OnItemchan

; 1368 : 				nChecked++;

  000ac	43		 inc	 ebx
$LN2@OnItemchan:

; 1365 : 		for( int nItem = 0 ; nItem < nCount ; nItem++ )

  000ad	8b 4d f8	 mov	 ecx, DWORD PTR tv550[ebp]
  000b0	46		 inc	 esi
  000b1	3b f7		 cmp	 esi, edi
  000b3	7c ec		 jl	 SHORT $LL4@OnItemchan
  000b5	8b 7d 08	 mov	 edi, DWORD PTR _pNMHDR$[ebp]
$LN28@OnItemchan:

; 1369 : 		}
; 1370 : 
; 1371 : 		m_pIGraphInfo->SetSubGraphShowFlag( pNMListView->iItem, FALSE);

  000b8	8b 75 fc	 mov	 esi, DWORD PTR _this$1$[ebp]
  000bb	6a 00		 push	 0
  000bd	ff 77 0c	 push	 DWORD PTR [edi+12]
  000c0	8b 8e c4 00 00
	00		 mov	 ecx, DWORD PTR [esi+196]
  000c6	8b 01		 mov	 eax, DWORD PTR [ecx]
  000c8	ff 50 38	 call	 DWORD PTR [eax+56]

; 1372 : 		if( nChecked < 1 )

  000cb	83 fb 01	 cmp	 ebx, 1
  000ce	7d 5d		 jge	 SHORT $LN33@OnItemchan

; 1373 : 		{
; 1374 : // 2008.01.25 by LYH >>
; 1375 : 			//AfxMessageBox("     .");
; 1376 : 			AfxMessageBox(m_strMsgExistMin);

  000d0	6a 00		 push	 0
  000d2	6a 00		 push	 0
  000d4	ff b6 e4 00 00
	00		 push	 DWORD PTR [esi+228]
  000da	e8 00 00 00 00	 call	 ?AfxMessageBox@@YGHPBDII@Z ; AfxMessageBox

; 1377 : // 2008.01.25 by LYH <<
; 1378 : 			m_lstComposition.SetCheck( pNMListView->iItem );

  000df	6a 01		 push	 1
  000e1	ff 77 0c	 push	 DWORD PTR [edi+12]
  000e4	8d 8e 30 13 00
	00		 lea	 ecx, DWORD PTR [esi+4912]
  000ea	e8 00 00 00 00	 call	 ?SetCheck@CListCtrl@@QAEHHH@Z ; CListCtrl::SetCheck

; 1379 : 			m_pIGraphInfo->SetSubGraphShowFlag( pNMListView->iItem, TRUE);

  000ef	8b 8e c4 00 00
	00		 mov	 ecx, DWORD PTR [esi+196]
  000f5	6a 01		 push	 1
  000f7	ff 77 0c	 push	 DWORD PTR [edi+12]
  000fa	8b 01		 mov	 eax, DWORD PTR [ecx]
  000fc	ff 50 38	 call	 DWORD PTR [eax+56]
; File C:\Program Files (x86)\Microsoft Visual Studio\2019\Community\VC\Tools\MSVC\14.29.30133\atlmfc\include\afxcmn2.inl

; 121  : 	{ ASSERT(::IsWindow(m_hWnd)); return (int) ::SendMessage(m_hWnd, LVM_SETHOTITEM, (WPARAM) iIndex, 0); }

  000ff	6a 00		 push	 0
  00101	ff 77 0c	 push	 DWORD PTR [edi+12]
  00104	68 3c 10 00 00	 push	 4156			; 0000103cH
  00109	ff b6 50 13 00
	00		 push	 DWORD PTR [esi+4944]
  0010f	ff 15 00 00 00
	00		 call	 DWORD PTR __imp__SendMessageA@16
; File D:\git\src\IBK\IBK_DRFN\ProjSrc\SrcChartEx\ChartAddIn\ChartEnvSetupDlgAddIn\ChartEnvSetupDlgAddIn\Setting_Common_Type_A.cpp

; 1382 : 			OnApplySubGraphData();

  00115	8b ce		 mov	 ecx, esi
  00117	e8 00 00 00 00	 call	 ?OnApplySubGraphData@CSetting_Common_Type_A@@AAEXXZ ; CSetting_Common_Type_A::OnApplySubGraphData

; 1383 : 			Initial_SubGraphData( pNMListView->iItem );

  0011c	ff 77 0c	 push	 DWORD PTR [edi+12]
  0011f	8b ce		 mov	 ecx, esi
  00121	e8 00 00 00 00	 call	 ?Initial_SubGraphData@CSetting_Common_Type_A@@AAEXH@Z ; CSetting_Common_Type_A::Initial_SubGraphData

; 1384 : 			bReCheck = TRUE;

  00126	bb 01 00 00 00	 mov	 ebx, 1
  0012b	eb 02		 jmp	 SHORT $LN12@OnItemchan
$LN33@OnItemchan:

; 1385 : 		}
; 1386 : 	}
; 1387 : 
; 1388 : 	if(!m_bInitComplite)

  0012d	33 db		 xor	 ebx, ebx
$LN12@OnItemchan:
  0012f	83 be d8 14 00
	00 00		 cmp	 DWORD PTR [esi+5336], 0
  00136	75 2f		 jne	 SHORT $LN34@OnItemchan

; 1389 : 	{
; 1390 : 		//  
; 1391 : 		if(bChecked) m_pIGraphInfo->SetSubGraphShowFlag( pNMListView->iItem, TRUE);

  00138	83 7d f4 00	 cmp	 DWORD PTR tv547[ebp], 0
  0013c	8b 8e c4 00 00
	00		 mov	 ecx, DWORD PTR [esi+196]
  00142	8b 57 0c	 mov	 edx, DWORD PTR [edi+12]
  00145	8b 01		 mov	 eax, DWORD PTR [ecx]
  00147	74 04		 je	 SHORT $LN14@OnItemchan
  00149	6a 01		 push	 1
  0014b	eb 02		 jmp	 SHORT $LN36@OnItemchan
$LN14@OnItemchan:

; 1392 : 		//  
; 1393 : 		else m_pIGraphInfo->SetSubGraphShowFlag( pNMListView->iItem, FALSE);

  0014d	6a 00		 push	 0
$LN36@OnItemchan:

; 1394 : 
; 1395 : 		if( bReCheck) m_pIGraphInfo->SetSubGraphShowFlag( pNMListView->iItem, TRUE);

  0014f	52		 push	 edx
  00150	ff 50 38	 call	 DWORD PTR [eax+56]
  00153	85 db		 test	 ebx, ebx
  00155	74 10		 je	 SHORT $LN34@OnItemchan
  00157	8b 8e c4 00 00
	00		 mov	 ecx, DWORD PTR [esi+196]
  0015d	6a 01		 push	 1
  0015f	ff 77 0c	 push	 DWORD PTR [edi+12]
  00162	8b 01		 mov	 eax, DWORD PTR [ecx]
  00164	ff 50 38	 call	 DWORD PTR [eax+56]
$LN34@OnItemchan:
  00167	5b		 pop	 ebx
$LN16@OnItemchan:
  00168	5f		 pop	 edi

; 1396 : 	}
; 1397 : }

  00169	5e		 pop	 esi
  0016a	8b e5		 mov	 esp, ebp
  0016c	5d		 pop	 ebp
  0016d	c2 08 00	 ret	 8
?OnItemchangedListComposition@CSetting_Common_Type_A@@IAEXPAUtagNMHDR@@PAJ@Z ENDP ; CSetting_Common_Type_A::OnItemchangedListComposition
_TEXT	ENDS
; Function compile flags: /Ogtp
; File D:\git\src\IBK\IBK_DRFN\ProjSrc\SrcChartEx\ChartAddIn\ChartEnvSetupDlgAddIn\ChartEnvSetupDlgAddIn\Setting_Common_Type_A.cpp
; File D:\git\src\IBK\IBK_DRFN\ProjSrc\SrcChartEx\ChartAddIn\ChartEnvSetupDlgAddIn\Include_AddIn_135914\I135914\_IString.h
; File D:\git\src\IBK\IBK_DRFN\ProjSrc\SrcChartEx\ChartAddIn\ChartEnvSetupDlgAddIn\ChartEnvSetupDlgAddIn\Setting_Common_Type_A.cpp
; File D:\git\src\IBK\IBK_DRFN\ProjSrc\SrcChartEx\ChartAddIn\ChartEnvSetupDlgAddIn\Include_AddIn_135914\I135914\_IString.h
; File C:\Program Files (x86)\Microsoft Visual Studio\2019\Community\VC\Tools\MSVC\14.29.30133\atlmfc\include\afxwin2.inl
; File C:\Program Files (x86)\Microsoft Visual Studio\2019\Community\VC\Tools\MSVC\14.29.30133\atlmfc\include\afxdlgs.h
; File D:\git\src\IBK\IBK_DRFN\ProjSrc\SrcChartEx\ChartAddIn\ChartEnvSetupDlgAddIn\ChartEnvSetupDlgAddIn\Setting_Common_Type_A.cpp
;	COMDAT ?OnBtnCompositionColor@CSetting_Common_Type_A@@IAEXXZ
_TEXT	SEGMENT
_color$ = -232						; size = 208
_szGraphName$2 = -24					; size = 8
$T3 = -16						; size = 4
$T4 = -16						; size = 4
__$EHRec$ = -12						; size = 12
?OnBtnCompositionColor@CSetting_Common_Type_A@@IAEXXZ PROC ; CSetting_Common_Type_A::OnBtnCompositionColor, COMDAT
; _this$ = ecx

; 1183 : {

  00000	55		 push	 ebp
  00001	8b ec		 mov	 ebp, esp
  00003	6a ff		 push	 -1
  00005	68 00 00 00 00	 push	 __ehhandler$?OnBtnCompositionColor@CSetting_Common_Type_A@@IAEXXZ
  0000a	64 a1 00 00 00
	00		 mov	 eax, DWORD PTR fs:0
  00010	50		 push	 eax
  00011	81 ec dc 00 00
	00		 sub	 esp, 220		; 000000dcH
  00017	53		 push	 ebx
  00018	56		 push	 esi
  00019	57		 push	 edi
  0001a	a1 00 00 00 00	 mov	 eax, DWORD PTR ___security_cookie
  0001f	33 c5		 xor	 eax, ebp
  00021	50		 push	 eax
  00022	8d 45 f4	 lea	 eax, DWORD PTR __$EHRec$[ebp]
  00025	64 a3 00 00 00
	00		 mov	 DWORD PTR fs:0, eax
  0002b	8b f1		 mov	 esi, ecx

; 1184 : 	// TODO: Add your control notification handler code here
; 1185 : 	if(m_nSubGraphIndex < 0) return;

  0002d	83 be cc 14 00
	00 00		 cmp	 DWORD PTR [esi+5324], 0
  00034	0f 8c 89 01 00
	00		 jl	 $LN24@OnBtnCompo

; 1186 : 	
; 1187 : 	COLORREF crColor = m_btnComositionColor.GetColor();

  0003a	8d 8e a8 12 00
	00		 lea	 ecx, DWORD PTR [esi+4776]
  00040	e8 00 00 00 00	 call	 ?GetColor@CColorButton@@QAEKXZ ; CColorButton::GetColor

; 1188 : 	CColorDialog color(crColor, CC_FULLOPEN);

  00045	6a 00		 push	 0
  00047	6a 02		 push	 2
  00049	50		 push	 eax
  0004a	8d 8d 18 ff ff
	ff		 lea	 ecx, DWORD PTR _color$[ebp]
  00050	e8 00 00 00 00	 call	 ??0CColorDialog@@QAE@KKPAVCWnd@@@Z ; CColorDialog::CColorDialog

; 1189 : 	if(color.DoModal() == IDOK) 

  00055	8d 8d 18 ff ff
	ff		 lea	 ecx, DWORD PTR _color$[ebp]
  0005b	c7 45 fc 00 00
	00 00		 mov	 DWORD PTR __$EHRec$[ebp+8], 0
  00062	e8 00 00 00 00	 call	 ?DoModal@CColorDialog@@UAEHXZ ; CColorDialog::DoModal
  00067	83 f8 01	 cmp	 eax, 1
  0006a	0f 85 3e 01 00
	00		 jne	 $LN3@OnBtnCompo

; 1190 : 	{
; 1191 : 		//   ""       .
; 1192 : 		if( m_pIGraphInfo->GetSubGraphStyle( m_nSubGraphIndex) ==  CGraphBaseData::FillLine )

  00070	8b 8e c4 00 00
	00		 mov	 ecx, DWORD PTR [esi+196]
  00076	ff b6 cc 14 00
	00		 push	 DWORD PTR [esi+5324]
  0007c	8b 01		 mov	 eax, DWORD PTR [ecx]
  0007e	ff 50 54	 call	 DWORD PTR [eax+84]
  00081	8b 8e c4 00 00
	00		 mov	 ecx, DWORD PTR [esi+196]
  00087	8b be cc 14 00
	00		 mov	 edi, DWORD PTR [esi+5324]
  0008d	ff 75 cc	 push	 DWORD PTR _color$[ebp+180]
  00090	8b 11		 mov	 edx, DWORD PTR [ecx]
  00092	83 f8 01	 cmp	 eax, 1
  00095	75 20		 jne	 SHORT $LN4@OnBtnCompo

; 1193 : 		{
; 1194 : 			m_pIGraphInfo->SetSubGraphColor( m_nSubGraphIndex, 5, color.GetColor());

  00097	6a 05		 push	 5
  00099	57		 push	 edi
  0009a	ff 52 6c	 call	 DWORD PTR [edx+108]

; 1195 : 			m_btnComositionColor.SetColor( color.GetColor());

  0009d	8b 45 cc	 mov	 eax, DWORD PTR _color$[ebp+180]
  000a0	8d 8e a8 12 00
	00		 lea	 ecx, DWORD PTR [esi+4776]
  000a6	89 45 f0	 mov	 DWORD PTR $T4[ebp], eax
  000a9	8d 45 f0	 lea	 eax, DWORD PTR $T4[ebp]
  000ac	50		 push	 eax
  000ad	e8 00 00 00 00	 call	 ?SetColor@CColorButton@@QAEXABK@Z ; CColorButton::SetColor

; 1196 : 		}		

  000b2	e9 e7 00 00 00	 jmp	 $LN15@OnBtnCompo
$LN4@OnBtnCompo:

; 1197 : 		else
; 1198 : 		{
; 1199 : 			m_pIGraphInfo->SetSubGraphColor( m_nSubGraphIndex, 1, color.GetColor());

  000b7	6a 01		 push	 1
  000b9	57		 push	 edi
  000ba	ff 52 6c	 call	 DWORD PTR [edx+108]

; 1200 : 
; 1201 : 			// Fill.
; 1202 : 			m_pIGraphInfo->SetSubGraphColor( m_nSubGraphIndex, 2, color.GetColor());

  000bd	8b 8e c4 00 00
	00		 mov	 ecx, DWORD PTR [esi+196]
  000c3	ff 75 cc	 push	 DWORD PTR _color$[ebp+180]
  000c6	6a 02		 push	 2
  000c8	8b 01		 mov	 eax, DWORD PTR [ecx]
  000ca	ff b6 cc 14 00
	00		 push	 DWORD PTR [esi+5324]
  000d0	ff 50 6c	 call	 DWORD PTR [eax+108]

; 1204 : 			ILPCSTR szGraphName = m_pIGraphInfo->GetGraphNameString();

  000d3	8b 8e c4 00 00
	00		 mov	 ecx, DWORD PTR [esi+196]
  000d9	8b 01		 mov	 eax, DWORD PTR [ecx]
  000db	ff 90 a0 00 00
	00		 call	 DWORD PTR [eax+160]
; File D:\git\src\IBK\IBK_DRFN\ProjSrc\SrcChartEx\ChartAddIn\ChartEnvSetupDlgAddIn\Include_AddIn_135914\I135914\_IString.h

; 39   : 		m_pIStrData = p_pIString;	// Do not AddRef(). Because It must be Return Value.

  000e1	8b f8		 mov	 edi, eax
  000e3	89 7d ec	 mov	 DWORD PTR _szGraphName$2[ebp+4], edi

; 40   : 		if( m_pIStrData) m_szData = m_pIStrData->GetData();

  000e6	85 ff		 test	 edi, edi
  000e8	74 0b		 je	 SHORT $LN11@OnBtnCompo
  000ea	8b 17		 mov	 edx, DWORD PTR [edi]
  000ec	8b cf		 mov	 ecx, edi
  000ee	ff 52 10	 call	 DWORD PTR [edx+16]
  000f1	8b c8		 mov	 ecx, eax
  000f3	eb 02		 jmp	 SHORT $LN31@OnBtnCompo
$LN11@OnBtnCompo:

; 41   : 		else m_szData = NULL;

  000f5	33 c9		 xor	 ecx, ecx
$LN31@OnBtnCompo:
; File D:\git\src\IBK\IBK_DRFN\ProjSrc\SrcChartEx\ChartAddIn\ChartEnvSetupDlgAddIn\ChartEnvSetupDlgAddIn\Setting_Common_Type_A.cpp

; 1204 : 			ILPCSTR szGraphName = m_pIGraphInfo->GetGraphNameString();

  000f7	89 4d e8	 mov	 DWORD PTR _szGraphName$2[ebp], ecx

; 1205 : 			if(!strcmp( szGraphName,  _MTEXT( C2_LINE_PRICE_MA )))

  000fa	a1 54 00 00 00	 mov	 eax, DWORD PTR ?g_iMetaTable@@3VIMetaTable@@A+84
  000ff	c6 45 fc 01	 mov	 BYTE PTR __$EHRec$[ebp+8], 1
  00103	8b 80 40 0d 00
	00		 mov	 eax, DWORD PTR [eax+3392]
  00109	0f 1f 80 00 00
	00 00		 npad	 7
$LL26@OnBtnCompo:
  00110	8a 11		 mov	 dl, BYTE PTR [ecx]
  00112	3a 10		 cmp	 dl, BYTE PTR [eax]
  00114	75 1a		 jne	 SHORT $LN27@OnBtnCompo
  00116	84 d2		 test	 dl, dl
  00118	74 12		 je	 SHORT $LN28@OnBtnCompo
  0011a	8a 51 01	 mov	 dl, BYTE PTR [ecx+1]
  0011d	3a 50 01	 cmp	 dl, BYTE PTR [eax+1]
  00120	75 0e		 jne	 SHORT $LN27@OnBtnCompo
  00122	83 c1 02	 add	 ecx, 2
  00125	83 c0 02	 add	 eax, 2
  00128	84 d2		 test	 dl, dl
  0012a	75 e4		 jne	 SHORT $LL26@OnBtnCompo
$LN28@OnBtnCompo:
  0012c	33 c0		 xor	 eax, eax
  0012e	eb 05		 jmp	 SHORT $LN29@OnBtnCompo
$LN27@OnBtnCompo:
  00130	1b c0		 sbb	 eax, eax
  00132	83 c8 01	 or	 eax, 1
$LN29@OnBtnCompo:
  00135	85 c0		 test	 eax, eax
  00137	75 42		 jne	 SHORT $LN6@OnBtnCompo

; 1206 : 			{
; 1207 : 				m_pIGraphInfo->SetSubGraphColor( m_nSubGraphIndex, 3, color.GetColor());

  00139	8b 8e c4 00 00
	00		 mov	 ecx, DWORD PTR [esi+196]
  0013f	ff 75 cc	 push	 DWORD PTR _color$[ebp+180]
  00142	6a 03		 push	 3
  00144	8b 01		 mov	 eax, DWORD PTR [ecx]
  00146	ff b6 cc 14 00
	00		 push	 DWORD PTR [esi+5324]
  0014c	ff 50 6c	 call	 DWORD PTR [eax+108]

; 1208 : 				m_pIGraphInfo->SetSubGraphColor( m_nSubGraphIndex, 5, color.GetColor());

  0014f	8b 8e c4 00 00
	00		 mov	 ecx, DWORD PTR [esi+196]
  00155	ff 75 cc	 push	 DWORD PTR _color$[ebp+180]
  00158	6a 05		 push	 5
  0015a	8b 01		 mov	 eax, DWORD PTR [ecx]
  0015c	ff b6 cc 14 00
	00		 push	 DWORD PTR [esi+5324]
  00162	ff 50 6c	 call	 DWORD PTR [eax+108]

; 1209 : 				m_pIGraphInfo->SetSubGraphColor( m_nSubGraphIndex, 6, color.GetColor());

  00165	8b 8e c4 00 00
	00		 mov	 ecx, DWORD PTR [esi+196]
  0016b	ff 75 cc	 push	 DWORD PTR _color$[ebp+180]
  0016e	6a 06		 push	 6
  00170	8b 01		 mov	 eax, DWORD PTR [ecx]
  00172	ff b6 cc 14 00
	00		 push	 DWORD PTR [esi+5324]
  00178	ff 50 6c	 call	 DWORD PTR [eax+108]
$LN6@OnBtnCompo:

; 1210 : 			}
; 1211 : 			m_btnComositionColor.SetColor( color.GetColor());

  0017b	8b 45 cc	 mov	 eax, DWORD PTR _color$[ebp+180]
  0017e	8d 8e a8 12 00
	00		 lea	 ecx, DWORD PTR [esi+4776]
  00184	89 45 f0	 mov	 DWORD PTR $T3[ebp], eax
  00187	8d 45 f0	 lea	 eax, DWORD PTR $T3[ebp]
  0018a	50		 push	 eax
  0018b	e8 00 00 00 00	 call	 ?SetColor@CColorButton@@QAEXABK@Z ; CColorButton::SetColor
; File D:\git\src\IBK\IBK_DRFN\ProjSrc\SrcChartEx\ChartAddIn\ChartEnvSetupDlgAddIn\Include_AddIn_135914\I135914\_IString.h

; 44   : 	{

  00190	c6 45 fc 02	 mov	 BYTE PTR __$EHRec$[ebp+8], 2

; 45   : 		if( m_pIStrData)

  00194	85 ff		 test	 edi, edi
  00196	74 06		 je	 SHORT $LN15@OnBtnCompo

; 46   : 		{
; 47   : 			m_pIStrData->Release();

  00198	8b 07		 mov	 eax, DWORD PTR [edi]
  0019a	57		 push	 edi
  0019b	ff 50 08	 call	 DWORD PTR [eax+8]
$LN15@OnBtnCompo:
; File C:\Program Files (x86)\Microsoft Visual Studio\2019\Community\VC\Tools\MSVC\14.29.30133\atlmfc\include\afxwin2.inl

; 114  : 	{ ASSERT(::IsWindow(m_hWnd)); ::InvalidateRect(m_hWnd, NULL, bErase); }

  0019e	6a 01		 push	 1
  001a0	6a 00		 push	 0
  001a2	ff b6 c8 12 00
	00		 push	 DWORD PTR [esi+4808]
  001a8	ff 15 00 00 00
	00		 call	 DWORD PTR __imp__InvalidateRect@12
$LN3@OnBtnCompo:
; File C:\Program Files (x86)\Microsoft Visual Studio\2019\Community\VC\Tools\MSVC\14.29.30133\atlmfc\include\afxdlgs.h

; 110  :     virtual ~CCommonDialog() {};

  001ae	8d 8d 18 ff ff
	ff		 lea	 ecx, DWORD PTR _color$[ebp]
  001b4	c7 85 18 ff ff
	ff 00 00 00 00	 mov	 DWORD PTR _color$[ebp], OFFSET ??_7CCommonDialog@@6B@
  001be	e8 00 00 00 00	 call	 ??1CDialog@@UAE@XZ	; CDialog::~CDialog
$LN24@OnBtnCompo:
; File D:\git\src\IBK\IBK_DRFN\ProjSrc\SrcChartEx\ChartAddIn\ChartEnvSetupDlgAddIn\ChartEnvSetupDlgAddIn\Setting_Common_Type_A.cpp

; 1216 : }

  001c3	8b 4d f4	 mov	 ecx, DWORD PTR __$EHRec$[ebp]
  001c6	64 89 0d 00 00
	00 00		 mov	 DWORD PTR fs:0, ecx
  001cd	59		 pop	 ecx
  001ce	5f		 pop	 edi
  001cf	5e		 pop	 esi
  001d0	5b		 pop	 ebx
  001d1	8b e5		 mov	 esp, ebp
  001d3	5d		 pop	 ebp
  001d4	c3		 ret	 0
_TEXT	ENDS
;	COMDAT text$x
text$x	SEGMENT
__unwindfunclet$?OnBtnCompositionColor@CSetting_Common_Type_A@@IAEXXZ$0:
  00000	8d 8d 18 ff ff
	ff		 lea	 ecx, DWORD PTR _color$[ebp]
  00006	e9 00 00 00 00	 jmp	 ??1CColorDialog@@UAE@XZ
__unwindfunclet$?OnBtnCompositionColor@CSetting_Common_Type_A@@IAEXXZ$1:
  0000b	8d 4d e8	 lea	 ecx, DWORD PTR _szGraphName$2[ebp]
  0000e	e9 00 00 00 00	 jmp	 ??1ILPCSTR135914@@QAE@XZ ; ILPCSTR135914::~ILPCSTR135914
  00013	cc		 int	 3
  00014	cc		 int	 3
  00015	cc		 int	 3
  00016	cc		 int	 3
  00017	cc		 int	 3
__ehhandler$?OnBtnCompositionColor@CSetting_Common_Type_A@@IAEXXZ:
  00018	90		 npad	 1
  00019	90		 npad	 1
  0001a	8b 54 24 08	 mov	 edx, DWORD PTR [esp+8]
  0001e	8d 42 0c	 lea	 eax, DWORD PTR [edx+12]
  00021	8b 8a 14 ff ff
	ff		 mov	 ecx, DWORD PTR [edx-236]
  00027	33 c8		 xor	 ecx, eax
  00029	e8 00 00 00 00	 call	 @__security_check_cookie@4
  0002e	b8 00 00 00 00	 mov	 eax, OFFSET __ehfuncinfo$?OnBtnCompositionColor@CSetting_Common_Type_A@@IAEXXZ
  00033	e9 00 00 00 00	 jmp	 ___CxxFrameHandler3
text$x	ENDS
?OnBtnCompositionColor@CSetting_Common_Type_A@@IAEXXZ ENDP ; CSetting_Common_Type_A::OnBtnCompositionColor
; Function compile flags: /Ogtp
; File D:\git\src\IBK\IBK_DRFN\ProjSrc\SrcChartEx\ChartAddIn\ChartEnvSetupDlgAddIn\ChartEnvSetupDlgAddIn\Setting_Common_Type_A.cpp
; File C:\Program Files (x86)\Microsoft Visual Studio\2019\Community\VC\Tools\MSVC\14.29.30133\atlmfc\include\afxcmn.inl
; File C:\Program Files (x86)\Microsoft Visual Studio\2019\Community\VC\Tools\MSVC\14.29.30133\atlmfc\include\afxcmn2.inl
; File C:\Program Files (x86)\Microsoft Visual Studio\2019\Community\VC\Tools\MSVC\14.29.30133\atlmfc\include\afxwin2.inl
; File D:\git\src\IBK\IBK_DRFN\ProjSrc\SrcChartEx\ChartAddIn\ChartEnvSetupDlgAddIn\ChartEnvSetupDlgAddIn\Setting_Common_Type_A.cpp
; File C:\Program Files (x86)\Microsoft Visual Studio\2019\Community\VC\Tools\MSVC\14.29.30133\atlmfc\include\afxwin2.inl
; File D:\git\src\IBK\IBK_DRFN\ProjSrc\SrcChartEx\ChartAddIn\ChartEnvSetupDlgAddIn\ChartEnvSetupDlgAddIn\Setting_Common_Type_A.cpp
; File C:\Program Files (x86)\Microsoft Visual Studio\2019\Community\VC\Tools\MSVC\14.29.30133\atlmfc\include\afxwin2.inl
; File D:\git\src\IBK\IBK_DRFN\ProjSrc\SrcChartEx\ChartAddIn\ChartEnvSetupDlgAddIn\ChartEnvSetupDlgAddIn\Setting_Common_Type_A.cpp
; File C:\Program Files (x86)\Microsoft Visual Studio\2019\Community\VC\Tools\MSVC\14.29.30133\atlmfc\include\afxwin2.inl
; File D:\git\src\IBK\IBK_DRFN\ProjSrc\SrcChartEx\ChartAddIn\ChartEnvSetupDlgAddIn\ChartEnvSetupDlgAddIn\Setting_Common_Type_A.cpp
; File C:\Program Files (x86)\Microsoft Visual Studio\2019\Community\VC\Tools\MSVC\14.29.30133\atlmfc\include\afxwin2.inl
; File D:\git\src\IBK\IBK_DRFN\ProjSrc\SrcChartEx\ChartAddIn\ChartEnvSetupDlgAddIn\ChartEnvSetupDlgAddIn\Setting_Common_Type_A.cpp
; File C:\Program Files (x86)\Microsoft Visual Studio\2019\Community\VC\Tools\MSVC\14.29.30133\atlmfc\include\afxwin2.inl
; File D:\git\src\IBK\IBK_DRFN\ProjSrc\SrcChartEx\ChartAddIn\ChartEnvSetupDlgAddIn\ChartEnvSetupDlgAddIn\Setting_Common_Type_A.cpp
;	COMDAT ?OnInitDialog@CSetting_Common_Type_A@@MAEHXZ
_TEXT	SEGMENT
_strResult$ = -28					; size = 4
_strStdHL$ = -24					; size = 4
_strStdHLC$ = -20					; size = 4
_strType$ = -16						; size = 4
__$EHRec$ = -12						; size = 12
?OnInitDialog@CSetting_Common_Type_A@@MAEHXZ PROC	; CSetting_Common_Type_A::OnInitDialog, COMDAT
; _this$ = ecx

; 127  : {

  00000	55		 push	 ebp
  00001	8b ec		 mov	 ebp, esp
  00003	6a ff		 push	 -1
  00005	68 00 00 00 00	 push	 __ehhandler$?OnInitDialog@CSetting_Common_Type_A@@MAEHXZ
  0000a	64 a1 00 00 00
	00		 mov	 eax, DWORD PTR fs:0
  00010	50		 push	 eax
  00011	83 ec 14	 sub	 esp, 20			; 00000014H
  00014	56		 push	 esi
  00015	57		 push	 edi
  00016	a1 00 00 00 00	 mov	 eax, DWORD PTR ___security_cookie
  0001b	33 c5		 xor	 eax, ebp
  0001d	50		 push	 eax
  0001e	8d 45 f4	 lea	 eax, DWORD PTR __$EHRec$[ebp]
  00021	64 a3 00 00 00
	00		 mov	 DWORD PTR fs:0, eax
  00027	8b f9		 mov	 edi, ecx

; 128  : 	CDialog::OnInitDialog();

  00029	e8 00 00 00 00	 call	 ?OnInitDialog@CDialog@@UAEHXZ ; CDialog::OnInitDialog

; 129  : 	
; 130  : 	// 1.  Column 
; 131  : 	m_lstComposition.InsertColumn( 0, "", LVCFMT_LEFT, 100 );

  0002e	6a ff		 push	 -1
  00030	6a 64		 push	 100			; 00000064H
  00032	6a 00		 push	 0
  00034	68 00 00 00 00	 push	 OFFSET ??_C@_00CNPNBAHC@@
  00039	6a 00		 push	 0
  0003b	8d 8f 30 13 00
	00		 lea	 ecx, DWORD PTR [edi+4912]
  00041	e8 00 00 00 00	 call	 ?InsertColumn@CListCtrl@@QAEHHPBDHHH@Z ; CListCtrl::InsertColumn
; File C:\Program Files (x86)\Microsoft Visual Studio\2019\Community\VC\Tools\MSVC\14.29.30133\atlmfc\include\afxcmn.inl

; 215  : 	{ ASSERT(::IsWindow(m_hWnd)); return (BOOL) ::SendMessage(m_hWnd, LVM_SETCOLUMNWIDTH, nCol, MAKELPARAM(cx, 0)); }

  00046	8b 35 00 00 00
	00		 mov	 esi, DWORD PTR __imp__SendMessageA@16
  0004c	68 fe ff 00 00	 push	 65534			; 0000fffeH
  00051	6a 00		 push	 0
  00053	68 1e 10 00 00	 push	 4126			; 0000101eH
  00058	ff b7 50 13 00
	00		 push	 DWORD PTR [edi+4944]
  0005e	ff d6		 call	 esi
; File C:\Program Files (x86)\Microsoft Visual Studio\2019\Community\VC\Tools\MSVC\14.29.30133\atlmfc\include\afxcmn2.inl

; 117  : 	{ ASSERT(::IsWindow(m_hWnd)); return (DWORD) ::SendMessage(m_hWnd, LVM_SETEXTENDEDLISTVIEWSTYLE, 0, (LPARAM) dwNewStyle); }

  00060	6a 24		 push	 36			; 00000024H
  00062	6a 00		 push	 0
  00064	68 36 10 00 00	 push	 4150			; 00001036H
  00069	ff b7 50 13 00
	00		 push	 DWORD PTR [edi+4944]
  0006f	ff d6		 call	 esi
; File C:\Program Files (x86)\Microsoft Visual Studio\2019\Community\VC\Tools\MSVC\14.29.30133\atlmfc\include\afxwin2.inl

; 801  : 	{ ASSERT(::IsWindow(m_hWnd)); ::SendMessage(m_hWnd, CB_RESETCONTENT, 0, 0); }

  00071	6a 00		 push	 0
  00073	6a 00		 push	 0
  00075	68 4b 01 00 00	 push	 331			; 0000014bH
  0007a	ff b7 48 12 00
	00		 push	 DWORD PTR [edi+4680]
  00080	ff d6		 call	 esi
; File D:\git\src\IBK\IBK_DRFN\ProjSrc\SrcChartEx\ChartAddIn\ChartEnvSetupDlgAddIn\ChartEnvSetupDlgAddIn\Setting_Common_Type_A.cpp

; 136  : 	m_cmbData.AddString( _LTEXT0( C0_OPEN));

  00082	a1 54 00 00 00	 mov	 eax, DWORD PTR ?g_iMetaTable@@3VIMetaTable@@A+84
  00087	b9 00 00 00 00	 mov	 ecx, OFFSET ?g_iMetaTable@@3VIMetaTable@@A ; g_iMetaTable
  0008c	6a 00		 push	 0
  0008e	ff 70 08	 push	 DWORD PTR [eax+8]
  00091	6a 00		 push	 0
  00093	ff b7 d8 00 00
	00		 push	 DWORD PTR [edi+216]
  00099	e8 00 00 00 00	 call	 ?GetLanguageText@IMetaTable@@QAEPBDPAUHWND__@@W4E_CODEPAGE@1@PBDH@Z ; IMetaTable::GetLanguageText
; File C:\Program Files (x86)\Microsoft Visual Studio\2019\Community\VC\Tools\MSVC\14.29.30133\atlmfc\include\afxwin2.inl

; 795  : 	{ ASSERT(::IsWindow(m_hWnd)); return (int)::SendMessage(m_hWnd, CB_ADDSTRING, 0, (LPARAM)lpszString); }

  0009e	50		 push	 eax
  0009f	6a 00		 push	 0
  000a1	68 43 01 00 00	 push	 323			; 00000143H
  000a6	ff b7 48 12 00
	00		 push	 DWORD PTR [edi+4680]
  000ac	ff d6		 call	 esi
; File D:\git\src\IBK\IBK_DRFN\ProjSrc\SrcChartEx\ChartAddIn\ChartEnvSetupDlgAddIn\ChartEnvSetupDlgAddIn\Setting_Common_Type_A.cpp

; 137  : 	m_cmbData.AddString( _LTEXT0( C0_HIGH));

  000ae	a1 54 00 00 00	 mov	 eax, DWORD PTR ?g_iMetaTable@@3VIMetaTable@@A+84
  000b3	b9 00 00 00 00	 mov	 ecx, OFFSET ?g_iMetaTable@@3VIMetaTable@@A ; g_iMetaTable
  000b8	6a 00		 push	 0
  000ba	ff 70 0c	 push	 DWORD PTR [eax+12]
  000bd	6a 00		 push	 0
  000bf	ff b7 d8 00 00
	00		 push	 DWORD PTR [edi+216]
  000c5	e8 00 00 00 00	 call	 ?GetLanguageText@IMetaTable@@QAEPBDPAUHWND__@@W4E_CODEPAGE@1@PBDH@Z ; IMetaTable::GetLanguageText
; File C:\Program Files (x86)\Microsoft Visual Studio\2019\Community\VC\Tools\MSVC\14.29.30133\atlmfc\include\afxwin2.inl

; 795  : 	{ ASSERT(::IsWindow(m_hWnd)); return (int)::SendMessage(m_hWnd, CB_ADDSTRING, 0, (LPARAM)lpszString); }

  000ca	50		 push	 eax
  000cb	6a 00		 push	 0
  000cd	68 43 01 00 00	 push	 323			; 00000143H
  000d2	ff b7 48 12 00
	00		 push	 DWORD PTR [edi+4680]
  000d8	ff d6		 call	 esi
; File D:\git\src\IBK\IBK_DRFN\ProjSrc\SrcChartEx\ChartAddIn\ChartEnvSetupDlgAddIn\ChartEnvSetupDlgAddIn\Setting_Common_Type_A.cpp

; 138  : 	m_cmbData.AddString( _LTEXT0( C0_LOW));

  000da	a1 54 00 00 00	 mov	 eax, DWORD PTR ?g_iMetaTable@@3VIMetaTable@@A+84
  000df	b9 00 00 00 00	 mov	 ecx, OFFSET ?g_iMetaTable@@3VIMetaTable@@A ; g_iMetaTable
  000e4	6a 00		 push	 0
  000e6	ff 70 10	 push	 DWORD PTR [eax+16]
  000e9	6a 00		 push	 0
  000eb	ff b7 d8 00 00
	00		 push	 DWORD PTR [edi+216]
  000f1	e8 00 00 00 00	 call	 ?GetLanguageText@IMetaTable@@QAEPBDPAUHWND__@@W4E_CODEPAGE@1@PBDH@Z ; IMetaTable::GetLanguageText
; File C:\Program Files (x86)\Microsoft Visual Studio\2019\Community\VC\Tools\MSVC\14.29.30133\atlmfc\include\afxwin2.inl

; 795  : 	{ ASSERT(::IsWindow(m_hWnd)); return (int)::SendMessage(m_hWnd, CB_ADDSTRING, 0, (LPARAM)lpszString); }

  000f6	50		 push	 eax
  000f7	6a 00		 push	 0
  000f9	68 43 01 00 00	 push	 323			; 00000143H
  000fe	ff b7 48 12 00
	00		 push	 DWORD PTR [edi+4680]
  00104	ff d6		 call	 esi
; File D:\git\src\IBK\IBK_DRFN\ProjSrc\SrcChartEx\ChartAddIn\ChartEnvSetupDlgAddIn\ChartEnvSetupDlgAddIn\Setting_Common_Type_A.cpp

; 139  : 	m_cmbData.AddString( _LTEXT0( C0_CLOSE));

  00106	a1 54 00 00 00	 mov	 eax, DWORD PTR ?g_iMetaTable@@3VIMetaTable@@A+84
  0010b	b9 00 00 00 00	 mov	 ecx, OFFSET ?g_iMetaTable@@3VIMetaTable@@A ; g_iMetaTable
  00110	6a 00		 push	 0
  00112	ff 70 14	 push	 DWORD PTR [eax+20]
  00115	6a 00		 push	 0
  00117	ff b7 d8 00 00
	00		 push	 DWORD PTR [edi+216]
  0011d	e8 00 00 00 00	 call	 ?GetLanguageText@IMetaTable@@QAEPBDPAUHWND__@@W4E_CODEPAGE@1@PBDH@Z ; IMetaTable::GetLanguageText
; File C:\Program Files (x86)\Microsoft Visual Studio\2019\Community\VC\Tools\MSVC\14.29.30133\atlmfc\include\afxwin2.inl

; 795  : 	{ ASSERT(::IsWindow(m_hWnd)); return (int)::SendMessage(m_hWnd, CB_ADDSTRING, 0, (LPARAM)lpszString); }

  00122	50		 push	 eax
  00123	6a 00		 push	 0
  00125	68 43 01 00 00	 push	 323			; 00000143H
  0012a	ff b7 48 12 00
	00		 push	 DWORD PTR [edi+4680]
  00130	ff d6		 call	 esi
; File D:\git\src\IBK\IBK_DRFN\ProjSrc\SrcChartEx\ChartAddIn\ChartEnvSetupDlgAddIn\ChartEnvSetupDlgAddIn\Setting_Common_Type_A.cpp

; 140  : 	CString strStdHL, strStdHLC;

  00132	8d 4d e8	 lea	 ecx, DWORD PTR _strStdHL$[ebp]
  00135	ff 15 00 00 00
	00		 call	 DWORD PTR __imp_??0?$CStringT@DV?$StrTraitMFC_DLL@DV?$ChTraitsCRT@D@ATL@@@@@ATL@@QAE@XZ
  0013b	8d 4d ec	 lea	 ecx, DWORD PTR _strStdHLC$[ebp]
  0013e	c7 45 fc 00 00
	00 00		 mov	 DWORD PTR __$EHRec$[ebp+8], 0
  00145	ff 15 00 00 00
	00		 call	 DWORD PTR __imp_??0?$CStringT@DV?$StrTraitMFC_DLL@DV?$ChTraitsCRT@D@ATL@@@@@ATL@@QAE@XZ
  0014b	c6 45 fc 01	 mov	 BYTE PTR __$EHRec$[ebp+8], 1

; 141  : 	strStdHL.LoadString( IDS_STANDART_HL);

  0014f	6a 0a		 push	 10			; 0000000aH
  00151	8d 4d e8	 lea	 ecx, DWORD PTR _strStdHL$[ebp]
  00154	ff 15 00 00 00
	00		 call	 DWORD PTR __imp_?LoadStringA@?$CStringT@DV?$StrTraitMFC_DLL@DV?$ChTraitsCRT@D@ATL@@@@@ATL@@QAEHI@Z

; 142  : 	strStdHLC.LoadString( IDS_STANDART_HLC);

  0015a	6a 0b		 push	 11			; 0000000bH
  0015c	8d 4d ec	 lea	 ecx, DWORD PTR _strStdHLC$[ebp]
  0015f	ff 15 00 00 00
	00		 call	 DWORD PTR __imp_?LoadStringA@?$CStringT@DV?$StrTraitMFC_DLL@DV?$ChTraitsCRT@D@ATL@@@@@ATL@@QAEHI@Z
; File C:\Program Files (x86)\Microsoft Visual Studio\2019\Community\VC\Tools\MSVC\14.29.30133\atlmfc\include\afxwin2.inl

; 795  : 	{ ASSERT(::IsWindow(m_hWnd)); return (int)::SendMessage(m_hWnd, CB_ADDSTRING, 0, (LPARAM)lpszString); }

  00165	ff 75 e8	 push	 DWORD PTR _strStdHL$[ebp]
  00168	6a 00		 push	 0
  0016a	68 43 01 00 00	 push	 323			; 00000143H
  0016f	ff b7 48 12 00
	00		 push	 DWORD PTR [edi+4680]
  00175	ff d6		 call	 esi
  00177	ff 75 ec	 push	 DWORD PTR _strStdHLC$[ebp]
  0017a	6a 00		 push	 0
  0017c	68 43 01 00 00	 push	 323			; 00000143H
  00181	ff b7 48 12 00
	00		 push	 DWORD PTR [edi+4680]
  00187	ff d6		 call	 esi
; File D:\git\src\IBK\IBK_DRFN\ProjSrc\SrcChartEx\ChartAddIn\ChartEnvSetupDlgAddIn\ChartEnvSetupDlgAddIn\Setting_Common_Type_A.cpp

; 147  : 	CString strType = GetPacketType();

  00189	8d 45 f0	 lea	 eax, DWORD PTR _strType$[ebp]
  0018c	8b cf		 mov	 ecx, edi
  0018e	50		 push	 eax
  0018f	e8 00 00 00 00	 call	 ?GetPacketType@CBaseDialog@@QAE?AV?$CStringT@DV?$StrTraitMFC_DLL@DV?$ChTraitsCRT@D@ATL@@@@@ATL@@XZ ; CBaseDialog::GetPacketType

; 148  : 
; 149  : 	//  .
; 150  : 	m_Horizon_Edit.SetPacketType(strType);

  00194	51		 push	 ecx
  00195	8d 45 f0	 lea	 eax, DWORD PTR _strType$[ebp]
  00198	c6 45 fc 02	 mov	 BYTE PTR __$EHRec$[ebp+8], 2
  0019c	8b cc		 mov	 ecx, esp
  0019e	50		 push	 eax
  0019f	ff 15 00 00 00
	00		 call	 DWORD PTR __imp_??0?$CStringT@DV?$StrTraitMFC_DLL@DV?$ChTraitsCRT@D@ATL@@@@@ATL@@QAE@ABV01@@Z
  001a5	8b 87 20 06 00
	00		 mov	 eax, DWORD PTR [edi+1568]
  001ab	8d 8f 20 06 00
	00		 lea	 ecx, DWORD PTR [edi+1568]
  001b1	ff 90 a0 01 00
	00		 call	 DWORD PTR [eax+416]

; 151  : 
; 152  : 	//       .
; 153  : 	CString strResult = CDataConversion::GetMinimumValue(strType);

  001b7	51		 push	 ecx
  001b8	8d 45 f0	 lea	 eax, DWORD PTR _strType$[ebp]
  001bb	8b cc		 mov	 ecx, esp
  001bd	50		 push	 eax
  001be	ff 15 00 00 00
	00		 call	 DWORD PTR __imp_??0?$CStringT@DV?$StrTraitMFC_DLL@DV?$ChTraitsCRT@D@ATL@@@@@ATL@@QAE@ABV01@@Z
  001c4	8d 45 e4	 lea	 eax, DWORD PTR _strResult$[ebp]
  001c7	50		 push	 eax
  001c8	e8 00 00 00 00	 call	 ?GetMinimumValue@CDataConversion@@SA?AV?$CStringT@DV?$StrTraitMFC_DLL@DV?$ChTraitsCRT@D@ATL@@@@@ATL@@V23@@Z ; CDataConversion::GetMinimumValue

; 154  : 
; 155  : 	m_Horizon_Edit.SetDeltaMinimum(strResult);

  001cd	83 c4 04	 add	 esp, 4
  001d0	c6 45 fc 03	 mov	 BYTE PTR __$EHRec$[ebp+8], 3
  001d4	8d 45 e4	 lea	 eax, DWORD PTR _strResult$[ebp]
  001d7	8b cc		 mov	 ecx, esp
  001d9	50		 push	 eax
  001da	ff 15 00 00 00
	00		 call	 DWORD PTR __imp_??0?$CStringT@DV?$StrTraitMFC_DLL@DV?$ChTraitsCRT@D@ATL@@@@@ATL@@QAE@ABV01@@Z
  001e0	8b 87 20 06 00
	00		 mov	 eax, DWORD PTR [edi+1568]
  001e6	8d 8f 20 06 00
	00		 lea	 ecx, DWORD PTR [edi+1568]
  001ec	ff 90 98 01 00
	00		 call	 DWORD PTR [eax+408]

; 156  : 	//20081014  <<
; 157  : 
; 158  : 	if( !m_pIGraphInfo) return TRUE;

  001f2	83 bf c4 00 00
	00 00		 cmp	 DWORD PTR [edi+196], 0
  001f9	74 0c		 je	 SHORT $LN11@OnInitDial

; 159  : 	Initial( NULL);

  001fb	8b 07		 mov	 eax, DWORD PTR [edi]
  001fd	8b cf		 mov	 ecx, edi
  001ff	6a 00		 push	 0
  00201	ff 90 94 01 00
	00		 call	 DWORD PTR [eax+404]
$LN11@OnInitDial:

; 160  : 
; 161  : 	return TRUE;  // return TRUE unless you set the focus to a control

  00207	8d 4d e4	 lea	 ecx, DWORD PTR _strResult$[ebp]
  0020a	ff 15 00 00 00
	00		 call	 DWORD PTR __imp_??1?$CStringT@DV?$StrTraitMFC_DLL@DV?$ChTraitsCRT@D@ATL@@@@@ATL@@QAE@XZ
  00210	8d 4d f0	 lea	 ecx, DWORD PTR _strType$[ebp]
  00213	ff 15 00 00 00
	00		 call	 DWORD PTR __imp_??1?$CStringT@DV?$StrTraitMFC_DLL@DV?$ChTraitsCRT@D@ATL@@@@@ATL@@QAE@XZ
  00219	8d 4d ec	 lea	 ecx, DWORD PTR _strStdHLC$[ebp]
  0021c	ff 15 00 00 00
	00		 call	 DWORD PTR __imp_??1?$CStringT@DV?$StrTraitMFC_DLL@DV?$ChTraitsCRT@D@ATL@@@@@ATL@@QAE@XZ
  00222	8d 4d e8	 lea	 ecx, DWORD PTR _strStdHL$[ebp]
  00225	ff 15 00 00 00
	00		 call	 DWORD PTR __imp_??1?$CStringT@DV?$StrTraitMFC_DLL@DV?$ChTraitsCRT@D@ATL@@@@@ATL@@QAE@XZ
  0022b	b8 01 00 00 00	 mov	 eax, 1

; 162  : 	              // EXCEPTION: OCX Property Pages should return FALSE
; 163  : }

  00230	8b 4d f4	 mov	 ecx, DWORD PTR __$EHRec$[ebp]
  00233	64 89 0d 00 00
	00 00		 mov	 DWORD PTR fs:0, ecx
  0023a	59		 pop	 ecx
  0023b	5f		 pop	 edi
  0023c	5e		 pop	 esi
  0023d	8b e5		 mov	 esp, ebp
  0023f	5d		 pop	 ebp
  00240	c3		 ret	 0
_TEXT	ENDS
;	COMDAT text$x
text$x	SEGMENT
__unwindfunclet$?OnInitDialog@CSetting_Common_Type_A@@MAEHXZ$0:
  00000	8d 4d e8	 lea	 ecx, DWORD PTR _strStdHL$[ebp]
  00003	ff 25 00 00 00
	00		 jmp	 DWORD PTR __imp_??1?$CStringT@DV?$StrTraitMFC_DLL@DV?$ChTraitsCRT@D@ATL@@@@@ATL@@QAE@XZ
__unwindfunclet$?OnInitDialog@CSetting_Common_Type_A@@MAEHXZ$1:
  00009	8d 4d ec	 lea	 ecx, DWORD PTR _strStdHLC$[ebp]
  0000c	ff 25 00 00 00
	00		 jmp	 DWORD PTR __imp_??1?$CStringT@DV?$StrTraitMFC_DLL@DV?$ChTraitsCRT@D@ATL@@@@@ATL@@QAE@XZ
__unwindfunclet$?OnInitDialog@CSetting_Common_Type_A@@MAEHXZ$2:
  00012	8d 4d f0	 lea	 ecx, DWORD PTR _strType$[ebp]
  00015	ff 25 00 00 00
	00		 jmp	 DWORD PTR __imp_??1?$CStringT@DV?$StrTraitMFC_DLL@DV?$ChTraitsCRT@D@ATL@@@@@ATL@@QAE@XZ
__unwindfunclet$?OnInitDialog@CSetting_Common_Type_A@@MAEHXZ$5:
  0001b	8d 4d e4	 lea	 ecx, DWORD PTR _strResult$[ebp]
  0001e	ff 25 00 00 00
	00		 jmp	 DWORD PTR __imp_??1?$CStringT@DV?$StrTraitMFC_DLL@DV?$ChTraitsCRT@D@ATL@@@@@ATL@@QAE@XZ
  00024	cc		 int	 3
  00025	cc		 int	 3
  00026	cc		 int	 3
  00027	cc		 int	 3
  00028	cc		 int	 3
__ehhandler$?OnInitDialog@CSetting_Common_Type_A@@MAEHXZ:
  00029	90		 npad	 1
  0002a	90		 npad	 1
  0002b	8b 54 24 08	 mov	 edx, DWORD PTR [esp+8]
  0002f	8d 42 0c	 lea	 eax, DWORD PTR [edx+12]
  00032	8b 4a e0	 mov	 ecx, DWORD PTR [edx-32]
  00035	33 c8		 xor	 ecx, eax
  00037	e8 00 00 00 00	 call	 @__security_check_cookie@4
  0003c	b8 00 00 00 00	 mov	 eax, OFFSET __ehfuncinfo$?OnInitDialog@CSetting_Common_Type_A@@MAEHXZ
  00041	e9 00 00 00 00	 jmp	 ___CxxFrameHandler3
text$x	ENDS
?OnInitDialog@CSetting_Common_Type_A@@MAEHXZ ENDP	; CSetting_Common_Type_A::OnInitDialog
; Function compile flags: /Ogtp
; File D:\git\src\IBK\IBK_DRFN\ProjSrc\SrcChartEx\ChartAddIn\ChartEnvSetupDlgAddIn\ChartEnvSetupDlgAddIn\Setting_Common_Type_A.cpp
; File D:\git\src\IBK\IBK_DRFN\ProjSrc\SrcChartEx\ChartAddIn\ChartEnvSetupDlgAddIn\Include_AddIn_135914\I135914\_IString.h
; File D:\git\src\IBK\IBK_DRFN\ProjSrc\SrcChartEx\ChartAddIn\ChartEnvSetupDlgAddIn\ChartEnvSetupDlgAddIn\Setting_Common_Type_A.cpp
; File D:\git\src\IBK\IBK_DRFN\ProjSrc\SrcChartEx\ChartAddIn\ChartEnvSetupDlgAddIn\Include_AddIn_135914\I135914\_IString.h
; File D:\git\src\IBK\IBK_DRFN\ProjSrc\SrcChartEx\ChartAddIn\ChartEnvSetupDlgAddIn\ChartEnvSetupDlgAddIn\Setting_Common_Type_A.cpp
;	COMDAT ?IsShowBaseLineList@CSetting_Common_Type_A@@ABE_NXZ
_TEXT	SEGMENT
_szIndicatorName$ = -24					; size = 8
_nCount$2$ = -16					; size = 4
__$EHRec$ = -12						; size = 12
?IsShowBaseLineList@CSetting_Common_Type_A@@ABE_NXZ PROC ; CSetting_Common_Type_A::IsShowBaseLineList, COMDAT
; _this$ = ecx

; 760  : {

  00000	55		 push	 ebp
  00001	8b ec		 mov	 ebp, esp
  00003	6a ff		 push	 -1
  00005	68 00 00 00 00	 push	 __ehhandler$?IsShowBaseLineList@CSetting_Common_Type_A@@ABE_NXZ
  0000a	64 a1 00 00 00
	00		 mov	 eax, DWORD PTR fs:0
  00010	50		 push	 eax
  00011	83 ec 0c	 sub	 esp, 12			; 0000000cH
  00014	53		 push	 ebx
  00015	56		 push	 esi
  00016	57		 push	 edi
  00017	a1 00 00 00 00	 mov	 eax, DWORD PTR ___security_cookie
  0001c	33 c5		 xor	 eax, ebp
  0001e	50		 push	 eax
  0001f	8d 45 f4	 lea	 eax, DWORD PTR __$EHRec$[ebp]
  00022	64 a3 00 00 00
	00		 mov	 DWORD PTR fs:0, eax
  00028	8b d9		 mov	 ebx, ecx

; 761  : 	IDoubleList *pIDblBase = m_pIGraphInfo->GetBaseLineList();

  0002a	8b 8b c4 00 00
	00		 mov	 ecx, DWORD PTR [ebx+196]
  00030	8b 01		 mov	 eax, DWORD PTR [ecx]
  00032	ff 50 28	 call	 DWORD PTR [eax+40]
  00035	8b f8		 mov	 edi, eax

; 762  : 	int nCount = 0;
; 763  : 	if( pIDblBase)

  00037	85 ff		 test	 edi, edi
  00039	74 27		 je	 SHORT $LN3@IsShowBase

; 764  : 	{
; 765  : 		nCount = pIDblBase->GetCount();

  0003b	8b 17		 mov	 edx, DWORD PTR [edi]
  0003d	8b cf		 mov	 ecx, edi
  0003f	ff 52 10	 call	 DWORD PTR [edx+16]

; 766  : 		pIDblBase->Release();

  00042	8b 0f		 mov	 ecx, DWORD PTR [edi]
  00044	8b f0		 mov	 esi, eax
  00046	57		 push	 edi
  00047	ff 51 08	 call	 DWORD PTR [ecx+8]

; 767  : 		if( nCount) return TRUE;

  0004a	85 f6		 test	 esi, esi
  0004c	74 14		 je	 SHORT $LN3@IsShowBase
  0004e	b0 01		 mov	 al, 1

; 786  : }

  00050	8b 4d f4	 mov	 ecx, DWORD PTR __$EHRec$[ebp]
  00053	64 89 0d 00 00
	00 00		 mov	 DWORD PTR fs:0, ecx
  0005a	59		 pop	 ecx
  0005b	5f		 pop	 edi
  0005c	5e		 pop	 esi
  0005d	5b		 pop	 ebx
  0005e	8b e5		 mov	 esp, ebp
  00060	5d		 pop	 ebp
  00061	c3		 ret	 0
$LN3@IsShowBase:

; 773  : 	ILPCSTR szIndicatorName = m_pIGraphInfo->GetIndicatorNameString();

  00062	8b 8b c4 00 00
	00		 mov	 ecx, DWORD PTR [ebx+196]
  00068	8b 01		 mov	 eax, DWORD PTR [ecx]
  0006a	ff 90 a4 00 00
	00		 call	 DWORD PTR [eax+164]
; File D:\git\src\IBK\IBK_DRFN\ProjSrc\SrcChartEx\ChartAddIn\ChartEnvSetupDlgAddIn\Include_AddIn_135914\I135914\_IString.h

; 39   : 		m_pIStrData = p_pIString;	// Do not AddRef(). Because It must be Return Value.

  00070	8b f0		 mov	 esi, eax
  00072	89 75 ec	 mov	 DWORD PTR _szIndicatorName$[ebp+4], esi

; 40   : 		if( m_pIStrData) m_szData = m_pIStrData->GetData();

  00075	85 f6		 test	 esi, esi
  00077	74 0b		 je	 SHORT $LN10@IsShowBase
  00079	8b 16		 mov	 edx, DWORD PTR [esi]
  0007b	8b ce		 mov	 ecx, esi
  0007d	ff 52 10	 call	 DWORD PTR [edx+16]
  00080	8b d0		 mov	 edx, eax
  00082	eb 02		 jmp	 SHORT $LN18@IsShowBase
$LN10@IsShowBase:

; 41   : 		else m_szData = NULL;

  00084	33 d2		 xor	 edx, edx
$LN18@IsShowBase:
; File D:\git\src\IBK\IBK_DRFN\ProjSrc\SrcChartEx\ChartAddIn\ChartEnvSetupDlgAddIn\ChartEnvSetupDlgAddIn\Setting_Common_Type_A.cpp

; 773  : 	ILPCSTR szIndicatorName = m_pIGraphInfo->GetIndicatorNameString();

  00086	89 55 e8	 mov	 DWORD PTR _szIndicatorName$[ebp], edx

; 774  : 	IGraphInfo* pDefaultInfo = m_pIGraphInfoManager->GetIndicatorInfo( IGraphInfoManager::IEILT_SITE_DEFAULT, szIndicatorName, IGraphInfoManager::IEIIGT_WITH_DEFAULT_GET);

  00089	8b 8b bc 00 00
	00		 mov	 ecx, DWORD PTR [ebx+188]
  0008f	6a 01		 push	 1
  00091	52		 push	 edx
  00092	6a 00		 push	 0
  00094	8b 01		 mov	 eax, DWORD PTR [ecx]
  00096	c7 45 fc 00 00
	00 00		 mov	 DWORD PTR __$EHRec$[ebp+8], 0
  0009d	ff 50 18	 call	 DWORD PTR [eax+24]
  000a0	8b f8		 mov	 edi, eax

; 775  : 	// 20081014  <<
; 776  : 	if( !pDefaultInfo) return FALSE;

  000a2	85 ff		 test	 edi, edi
  000a4	75 04		 jne	 SHORT $LN4@IsShowBase
  000a6	32 db		 xor	 bl, bl
  000a8	eb 31		 jmp	 SHORT $LN8@IsShowBase
$LN4@IsShowBase:

; 777  : 	pIDblBase = pDefaultInfo->GetBaseLineList();

  000aa	8b 07		 mov	 eax, DWORD PTR [edi]
  000ac	8b cf		 mov	 ecx, edi
  000ae	ff 50 28	 call	 DWORD PTR [eax+40]
  000b1	8b d8		 mov	 ebx, eax

; 778  : 	nCount = 0;

  000b3	c7 45 f0 00 00
	00 00		 mov	 DWORD PTR _nCount$2$[ebp], 0

; 779  : 	if( pIDblBase)

  000ba	85 db		 test	 ebx, ebx
  000bc	74 10		 je	 SHORT $LN5@IsShowBase

; 780  : 	{
; 781  : 		nCount = pIDblBase->GetCount();

  000be	8b 13		 mov	 edx, DWORD PTR [ebx]
  000c0	8b cb		 mov	 ecx, ebx
  000c2	ff 52 10	 call	 DWORD PTR [edx+16]

; 782  : 		pIDblBase->Release();

  000c5	8b 0b		 mov	 ecx, DWORD PTR [ebx]
  000c7	53		 push	 ebx
  000c8	89 45 f0	 mov	 DWORD PTR _nCount$2$[ebp], eax
  000cb	ff 51 08	 call	 DWORD PTR [ecx+8]
$LN5@IsShowBase:

; 783  : 	}
; 784  : 	pDefaultInfo->Release();

  000ce	8b 0f		 mov	 ecx, DWORD PTR [edi]
  000d0	57		 push	 edi
  000d1	ff 51 08	 call	 DWORD PTR [ecx+8]

; 785  : 	return 0 < nCount;

  000d4	83 7d f0 00	 cmp	 DWORD PTR _nCount$2$[ebp], 0
  000d8	0f 9f c3	 setg	 bl
$LN8@IsShowBase:
; File D:\git\src\IBK\IBK_DRFN\ProjSrc\SrcChartEx\ChartAddIn\ChartEnvSetupDlgAddIn\Include_AddIn_135914\I135914\_IString.h

; 44   : 	{

  000db	c7 45 fc 01 00
	00 00		 mov	 DWORD PTR __$EHRec$[ebp+8], 1

; 45   : 		if( m_pIStrData)

  000e2	85 f6		 test	 esi, esi
  000e4	74 06		 je	 SHORT $LN14@IsShowBase

; 46   : 		{
; 47   : 			m_pIStrData->Release();

  000e6	8b 0e		 mov	 ecx, DWORD PTR [esi]
  000e8	56		 push	 esi
  000e9	ff 51 08	 call	 DWORD PTR [ecx+8]
$LN14@IsShowBase:
; File D:\git\src\IBK\IBK_DRFN\ProjSrc\SrcChartEx\ChartAddIn\ChartEnvSetupDlgAddIn\ChartEnvSetupDlgAddIn\Setting_Common_Type_A.cpp

; 785  : 	return 0 < nCount;

  000ec	8a c3		 mov	 al, bl

; 786  : }

  000ee	8b 4d f4	 mov	 ecx, DWORD PTR __$EHRec$[ebp]
  000f1	64 89 0d 00 00
	00 00		 mov	 DWORD PTR fs:0, ecx
  000f8	59		 pop	 ecx
  000f9	5f		 pop	 edi
  000fa	5e		 pop	 esi
  000fb	5b		 pop	 ebx
  000fc	8b e5		 mov	 esp, ebp
  000fe	5d		 pop	 ebp
  000ff	c3		 ret	 0
_TEXT	ENDS
;	COMDAT text$x
text$x	SEGMENT
__unwindfunclet$?IsShowBaseLineList@CSetting_Common_Type_A@@ABE_NXZ$0:
  00000	8d 4d e8	 lea	 ecx, DWORD PTR _szIndicatorName$[ebp]
  00003	e9 00 00 00 00	 jmp	 ??1ILPCSTR135914@@QAE@XZ ; ILPCSTR135914::~ILPCSTR135914
  00008	cc		 int	 3
  00009	cc		 int	 3
  0000a	cc		 int	 3
  0000b	cc		 int	 3
  0000c	cc		 int	 3
__ehhandler$?IsShowBaseLineList@CSetting_Common_Type_A@@ABE_NXZ:
  0000d	90		 npad	 1
  0000e	90		 npad	 1
  0000f	8b 54 24 08	 mov	 edx, DWORD PTR [esp+8]
  00013	8d 42 0c	 lea	 eax, DWORD PTR [edx+12]
  00016	8b 4a e4	 mov	 ecx, DWORD PTR [edx-28]
  00019	33 c8		 xor	 ecx, eax
  0001b	e8 00 00 00 00	 call	 @__security_check_cookie@4
  00020	b8 00 00 00 00	 mov	 eax, OFFSET __ehfuncinfo$?IsShowBaseLineList@CSetting_Common_Type_A@@ABE_NXZ
  00025	e9 00 00 00 00	 jmp	 ___CxxFrameHandler3
text$x	ENDS
?IsShowBaseLineList@CSetting_Common_Type_A@@ABE_NXZ ENDP ; CSetting_Common_Type_A::IsShowBaseLineList
; Function compile flags: /Ogtp
; File D:\git\src\IBK\IBK_DRFN\ProjSrc\SrcChartEx\ChartAddIn\ChartEnvSetupDlgAddIn\ChartEnvSetupDlgAddIn\Setting_Common_Type_A.cpp
;	COMDAT ?GetFirstValue@CSetting_Common_Type_A@@AAENABV?$CStringT@DV?$StrTraitMFC_DLL@DV?$ChTraitsCRT@D@ATL@@@@@ATL@@@Z
_TEXT	SEGMENT
$T2 = -28						; size = 8
$T3 = -20						; size = 4
_horizon$ = -16						; size = 4
__$EHRec$ = -12						; size = 12
$T4 = 8							; size = 4
_data$ = 8						; size = 4
?GetFirstValue@CSetting_Common_Type_A@@AAENABV?$CStringT@DV?$StrTraitMFC_DLL@DV?$ChTraitsCRT@D@ATL@@@@@ATL@@@Z PROC ; CSetting_Common_Type_A::GetFirstValue, COMDAT
; _this$ = ecx

; 1164 : {

  00000	55		 push	 ebp
  00001	8b ec		 mov	 ebp, esp
  00003	6a ff		 push	 -1
  00005	68 00 00 00 00	 push	 __ehhandler$?GetFirstValue@CSetting_Common_Type_A@@AAENABV?$CStringT@DV?$StrTraitMFC_DLL@DV?$ChTraitsCRT@D@ATL@@@@@ATL@@@Z
  0000a	64 a1 00 00 00
	00		 mov	 eax, DWORD PTR fs:0
  00010	50		 push	 eax
  00011	83 ec 10	 sub	 esp, 16			; 00000010H
  00014	a1 00 00 00 00	 mov	 eax, DWORD PTR ___security_cookie
  00019	33 c5		 xor	 eax, ebp
  0001b	50		 push	 eax
  0001c	8d 45 f4	 lea	 eax, DWORD PTR __$EHRec$[ebp]
  0001f	64 a3 00 00 00
	00		 mov	 DWORD PTR fs:0, eax

; 1165 : 	CString horizon = data;

  00025	ff 75 08	 push	 DWORD PTR _data$[ebp]
  00028	8d 4d f0	 lea	 ecx, DWORD PTR _horizon$[ebp]
  0002b	ff 15 00 00 00
	00		 call	 DWORD PTR __imp_??0?$CStringT@DV?$StrTraitMFC_DLL@DV?$ChTraitsCRT@D@ATL@@@@@ATL@@QAE@ABV01@@Z

; 1166 : 	return atof(CDataConversion::GetStringData(horizon, ","));

  00031	68 00 00 00 00	 push	 OFFSET ??_C@_01IHBHIGKO@?0@
  00036	8d 4d 08	 lea	 ecx, DWORD PTR $T4[ebp]
  00039	c7 45 fc 00 00
	00 00		 mov	 DWORD PTR __$EHRec$[ebp+8], 0
  00040	ff 15 00 00 00
	00		 call	 DWORD PTR __imp_??0?$CStringT@DV?$StrTraitMFC_DLL@DV?$ChTraitsCRT@D@ATL@@@@@ATL@@QAE@PBD@Z
  00046	6a 01		 push	 1
  00048	8d 45 08	 lea	 eax, DWORD PTR $T4[ebp]
  0004b	c6 45 fc 01	 mov	 BYTE PTR __$EHRec$[ebp+8], 1
  0004f	50		 push	 eax
  00050	8d 45 f0	 lea	 eax, DWORD PTR _horizon$[ebp]
  00053	50		 push	 eax
  00054	8d 45 ec	 lea	 eax, DWORD PTR $T3[ebp]
  00057	50		 push	 eax
  00058	e8 00 00 00 00	 call	 ?GetStringData@CDataConversion@@SA?AV?$CStringT@DV?$StrTraitMFC_DLL@DV?$ChTraitsCRT@D@ATL@@@@@ATL@@AAV23@ABV23@_N@Z ; CDataConversion::GetStringData
  0005d	ff 30		 push	 DWORD PTR [eax]
  0005f	ff 15 00 00 00
	00		 call	 DWORD PTR __imp__atof
  00065	83 c4 14	 add	 esp, 20			; 00000014H
  00068	8d 4d ec	 lea	 ecx, DWORD PTR $T3[ebp]
  0006b	dd 5d e4	 fstp	 QWORD PTR $T2[ebp]
  0006e	ff 15 00 00 00
	00		 call	 DWORD PTR __imp_??1?$CStringT@DV?$StrTraitMFC_DLL@DV?$ChTraitsCRT@D@ATL@@@@@ATL@@QAE@XZ
  00074	8d 4d 08	 lea	 ecx, DWORD PTR $T4[ebp]
  00077	ff 15 00 00 00
	00		 call	 DWORD PTR __imp_??1?$CStringT@DV?$StrTraitMFC_DLL@DV?$ChTraitsCRT@D@ATL@@@@@ATL@@QAE@XZ
  0007d	8d 4d f0	 lea	 ecx, DWORD PTR _horizon$[ebp]
  00080	ff 15 00 00 00
	00		 call	 DWORD PTR __imp_??1?$CStringT@DV?$StrTraitMFC_DLL@DV?$ChTraitsCRT@D@ATL@@@@@ATL@@QAE@XZ
  00086	dd 45 e4	 fld	 QWORD PTR $T2[ebp]

; 1167 : }

  00089	8b 4d f4	 mov	 ecx, DWORD PTR __$EHRec$[ebp]
  0008c	64 89 0d 00 00
	00 00		 mov	 DWORD PTR fs:0, ecx
  00093	59		 pop	 ecx
  00094	8b e5		 mov	 esp, ebp
  00096	5d		 pop	 ebp
  00097	c2 04 00	 ret	 4
_TEXT	ENDS
;	COMDAT text$x
text$x	SEGMENT
__unwindfunclet$?GetFirstValue@CSetting_Common_Type_A@@AAENABV?$CStringT@DV?$StrTraitMFC_DLL@DV?$ChTraitsCRT@D@ATL@@@@@ATL@@@Z$0:
  00000	8d 4d f0	 lea	 ecx, DWORD PTR _horizon$[ebp]
  00003	ff 25 00 00 00
	00		 jmp	 DWORD PTR __imp_??1?$CStringT@DV?$StrTraitMFC_DLL@DV?$ChTraitsCRT@D@ATL@@@@@ATL@@QAE@XZ
__unwindfunclet$?GetFirstValue@CSetting_Common_Type_A@@AAENABV?$CStringT@DV?$StrTraitMFC_DLL@DV?$ChTraitsCRT@D@ATL@@@@@ATL@@@Z$1:
  00009	8d 4d 08	 lea	 ecx, DWORD PTR $T4[ebp]
  0000c	ff 25 00 00 00
	00		 jmp	 DWORD PTR __imp_??1?$CStringT@DV?$StrTraitMFC_DLL@DV?$ChTraitsCRT@D@ATL@@@@@ATL@@QAE@XZ
  00012	cc		 int	 3
  00013	cc		 int	 3
  00014	cc		 int	 3
  00015	cc		 int	 3
  00016	cc		 int	 3
__ehhandler$?GetFirstValue@CSetting_Common_Type_A@@AAENABV?$CStringT@DV?$StrTraitMFC_DLL@DV?$ChTraitsCRT@D@ATL@@@@@ATL@@@Z:
  00017	90		 npad	 1
  00018	90		 npad	 1
  00019	8b 54 24 08	 mov	 edx, DWORD PTR [esp+8]
  0001d	8d 42 0c	 lea	 eax, DWORD PTR [edx+12]
  00020	8b 4a ec	 mov	 ecx, DWORD PTR [edx-20]
  00023	33 c8		 xor	 ecx, eax
  00025	e8 00 00 00 00	 call	 @__security_check_cookie@4
  0002a	b8 00 00 00 00	 mov	 eax, OFFSET __ehfuncinfo$?GetFirstValue@CSetting_Common_Type_A@@AAENABV?$CStringT@DV?$StrTraitMFC_DLL@DV?$ChTraitsCRT@D@ATL@@@@@ATL@@@Z
  0002f	e9 00 00 00 00	 jmp	 ___CxxFrameHandler3
text$x	ENDS
?GetFirstValue@CSetting_Common_Type_A@@AAENABV?$CStringT@DV?$StrTraitMFC_DLL@DV?$ChTraitsCRT@D@ATL@@@@@ATL@@@Z ENDP ; CSetting_Common_Type_A::GetFirstValue
; Function compile flags: /Ogtp
; File D:\git\src\IBK\IBK_DRFN\ProjSrc\SrcChartEx\ChartAddIn\ChartEnvSetupDlgAddIn\ChartEnvSetupDlgAddIn\Setting_Common_Type_A.cpp
; File C:\Program Files (x86)\Microsoft Visual Studio\2019\Community\VC\Tools\MSVC\14.29.30133\atlmfc\include\afxwin2.inl
; File D:\git\src\IBK\IBK_DRFN\ProjSrc\SrcChartEx\ChartAddIn\ChartEnvSetupDlgAddIn\ChartEnvSetupDlgAddIn\Setting_Common_Type_A.cpp
; File C:\Program Files (x86)\Microsoft Visual Studio\2019\Community\VC\Tools\MSVC\14.29.30133\atlmfc\include\afxwin2.inl
; File D:\git\src\IBK\IBK_DRFN\ProjSrc\SrcChartEx\ChartAddIn\ChartEnvSetupDlgAddIn\ChartEnvSetupDlgAddIn\Setting_Common_Type_A.cpp
; File C:\Program Files (x86)\Microsoft Visual Studio\2019\Community\VC\Tools\MSVC\14.29.30133\atlmfc\include\afxwin2.inl
; File D:\git\src\IBK\IBK_DRFN\ProjSrc\SrcChartEx\ChartAddIn\ChartEnvSetupDlgAddIn\ChartEnvSetupDlgAddIn\Setting_Common_Type_A.cpp
; File C:\Program Files (x86)\Microsoft Visual Studio\2019\Community\VC\Tools\MSVC\14.29.30133\atlmfc\include\afxwin2.inl
; File D:\git\src\IBK\IBK_DRFN\ProjSrc\SrcChartEx\ChartAddIn\ChartEnvSetupDlgAddIn\ChartEnvSetupDlgAddIn\Setting_Common_Type_A.cpp
; File C:\Program Files (x86)\Microsoft Visual Studio\2019\Community\VC\Tools\MSVC\14.29.30133\atlmfc\include\afxwin2.inl
; File D:\git\src\IBK\IBK_DRFN\ProjSrc\SrcChartEx\ChartAddIn\ChartEnvSetupDlgAddIn\ChartEnvSetupDlgAddIn\Setting_Common_Type_A.cpp
;	COMDAT ?DeleteString_ListBox@CSetting_Common_Type_A@@AAEXXZ
_TEXT	SEGMENT
?DeleteString_ListBox@CSetting_Common_Type_A@@AAEXXZ PROC ; CSetting_Common_Type_A::DeleteString_ListBox, COMDAT
; _this$ = ecx

; 1170 : {

  00000	53		 push	 ebx
; File C:\Program Files (x86)\Microsoft Visual Studio\2019\Community\VC\Tools\MSVC\14.29.30133\atlmfc\include\afxwin2.inl

; 664  : 	{ ASSERT(::IsWindow(m_hWnd)); return (int)::SendMessage(m_hWnd, LB_GETCOUNT, 0, 0); }

  00001	8b 1d 00 00 00
	00		 mov	 ebx, DWORD PTR __imp__SendMessageA@16
; File D:\git\src\IBK\IBK_DRFN\ProjSrc\SrcChartEx\ChartAddIn\ChartEnvSetupDlgAddIn\ChartEnvSetupDlgAddIn\Setting_Common_Type_A.cpp

; 1170 : {

  00007	56		 push	 esi
  00008	57		 push	 edi

; 1171 : 	for(int i = 0 ; i< m_HorizonLine_ListBox.GetCount() ; i++)

  00009	33 f6		 xor	 esi, esi
  0000b	8b f9		 mov	 edi, ecx
; File C:\Program Files (x86)\Microsoft Visual Studio\2019\Community\VC\Tools\MSVC\14.29.30133\atlmfc\include\afxwin2.inl

; 664  : 	{ ASSERT(::IsWindow(m_hWnd)); return (int)::SendMessage(m_hWnd, LB_GETCOUNT, 0, 0); }

  0000d	56		 push	 esi
  0000e	56		 push	 esi
  0000f	68 8b 01 00 00	 push	 395			; 0000018bH
  00014	ff b7 c0 05 00
	00		 push	 DWORD PTR [edi+1472]
  0001a	ff d3		 call	 ebx
; File D:\git\src\IBK\IBK_DRFN\ProjSrc\SrcChartEx\ChartAddIn\ChartEnvSetupDlgAddIn\ChartEnvSetupDlgAddIn\Setting_Common_Type_A.cpp

; 1171 : 	for(int i = 0 ; i< m_HorizonLine_ListBox.GetCount() ; i++)

  0001c	85 c0		 test	 eax, eax
  0001e	7e 26		 jle	 SHORT $LN3@DeleteStri
$LL4@DeleteStri:
; File C:\Program Files (x86)\Microsoft Visual Studio\2019\Community\VC\Tools\MSVC\14.29.30133\atlmfc\include\afxwin2.inl

; 727  : 	{ ASSERT(::IsWindow(m_hWnd)); return (int)::SendMessage(m_hWnd, LB_DELETESTRING, nIndex, 0); }

  00020	6a 00		 push	 0
  00022	56		 push	 esi
  00023	68 82 01 00 00	 push	 386			; 00000182H
  00028	ff b7 c0 05 00
	00		 push	 DWORD PTR [edi+1472]
  0002e	ff d3		 call	 ebx

; 664  : 	{ ASSERT(::IsWindow(m_hWnd)); return (int)::SendMessage(m_hWnd, LB_GETCOUNT, 0, 0); }

  00030	6a 00		 push	 0
  00032	6a 00		 push	 0
  00034	68 8b 01 00 00	 push	 395			; 0000018bH
  00039	ff b7 c0 05 00
	00		 push	 DWORD PTR [edi+1472]
; File D:\git\src\IBK\IBK_DRFN\ProjSrc\SrcChartEx\ChartAddIn\ChartEnvSetupDlgAddIn\ChartEnvSetupDlgAddIn\Setting_Common_Type_A.cpp

; 1171 : 	for(int i = 0 ; i< m_HorizonLine_ListBox.GetCount() ; i++)

  0003f	46		 inc	 esi
; File C:\Program Files (x86)\Microsoft Visual Studio\2019\Community\VC\Tools\MSVC\14.29.30133\atlmfc\include\afxwin2.inl

; 664  : 	{ ASSERT(::IsWindow(m_hWnd)); return (int)::SendMessage(m_hWnd, LB_GETCOUNT, 0, 0); }

  00040	ff d3		 call	 ebx
; File D:\git\src\IBK\IBK_DRFN\ProjSrc\SrcChartEx\ChartAddIn\ChartEnvSetupDlgAddIn\ChartEnvSetupDlgAddIn\Setting_Common_Type_A.cpp

; 1171 : 	for(int i = 0 ; i< m_HorizonLine_ListBox.GetCount() ; i++)

  00042	3b f0		 cmp	 esi, eax
  00044	7c da		 jl	 SHORT $LL4@DeleteStri
$LN3@DeleteStri:
; File C:\Program Files (x86)\Microsoft Visual Studio\2019\Community\VC\Tools\MSVC\14.29.30133\atlmfc\include\afxwin2.inl

; 731  : 	{ ASSERT(::IsWindow(m_hWnd)); ::SendMessage(m_hWnd, LB_RESETCONTENT, 0, 0); }

  00046	6a 00		 push	 0
  00048	6a 00		 push	 0
  0004a	68 84 01 00 00	 push	 388			; 00000184H
  0004f	ff b7 c0 05 00
	00		 push	 DWORD PTR [edi+1472]
  00055	ff d3		 call	 ebx
  00057	5f		 pop	 edi
  00058	5e		 pop	 esi
  00059	5b		 pop	 ebx
; File D:\git\src\IBK\IBK_DRFN\ProjSrc\SrcChartEx\ChartAddIn\ChartEnvSetupDlgAddIn\ChartEnvSetupDlgAddIn\Setting_Common_Type_A.cpp

; 1174 : }

  0005a	c3		 ret	 0
?DeleteString_ListBox@CSetting_Common_Type_A@@AAEXXZ ENDP ; CSetting_Common_Type_A::DeleteString_ListBox
_TEXT	ENDS
; Function compile flags: /Ogtp
; File D:\git\src\IBK\IBK_DRFN\ProjSrc\SrcChartEx\ChartAddIn\ChartEnvSetupDlgAddIn\ChartEnvSetupDlgAddIn\Setting_Common_Type_A.cpp
; File C:\Program Files (x86)\Microsoft Visual Studio\2019\Community\VC\Tools\MSVC\14.29.30133\atlmfc\include\afxwin2.inl
; File D:\git\src\IBK\IBK_DRFN\ProjSrc\SrcChartEx\ChartAddIn\ChartEnvSetupDlgAddIn\ChartEnvSetupDlgAddIn\Setting_Common_Type_A.cpp
;	COMDAT ?OnApplyPaintStyle@CSetting_Common_Type_A@@AAEXXZ
_TEXT	SEGMENT
?OnApplyPaintStyle@CSetting_Common_Type_A@@AAEXXZ PROC	; CSetting_Common_Type_A::OnApplyPaintStyle, COMDAT
; _this$ = ecx

; 490  : {

  00000	56		 push	 esi
  00001	8b f1		 mov	 esi, ecx

; 491  : 	if( m_pIGraphInfo->GetSubGraphType( m_nSubGraphIndex) != CGraphBaseData::Bar_Type) return;

  00003	8b 8e c4 00 00
	00		 mov	 ecx, DWORD PTR [esi+196]
  00009	ff b6 cc 14 00
	00		 push	 DWORD PTR [esi+5324]
  0000f	8b 01		 mov	 eax, DWORD PTR [ecx]
  00011	ff 50 50	 call	 DWORD PTR [eax+80]
  00014	83 f8 02	 cmp	 eax, 2
  00017	75 2a		 jne	 SHORT $LN1@OnApplyPai
; File C:\Program Files (x86)\Microsoft Visual Studio\2019\Community\VC\Tools\MSVC\14.29.30133\atlmfc\include\afxwin2.inl

; 765  : 	{ ASSERT(::IsWindow(m_hWnd)); return (int)::SendMessage(m_hWnd, CB_GETCURSEL, 0, 0); }

  00019	6a 00		 push	 0
  0001b	6a 00		 push	 0
  0001d	68 47 01 00 00	 push	 327			; 00000147H
  00022	ff b6 18 01 00
	00		 push	 DWORD PTR [esi+280]
  00028	ff 15 00 00 00
	00		 call	 DWORD PTR __imp__SendMessageA@16
; File D:\git\src\IBK\IBK_DRFN\ProjSrc\SrcChartEx\ChartAddIn\ChartEnvSetupDlgAddIn\ChartEnvSetupDlgAddIn\Setting_Common_Type_A.cpp

; 494  : 	m_pIGraphInfo->SetSubGraphPaintStyle(m_nSubGraphIndex, nPaintStyle);

  0002e	8b 8e c4 00 00
	00		 mov	 ecx, DWORD PTR [esi+196]
  00034	50		 push	 eax
  00035	ff b6 cc 14 00
	00		 push	 DWORD PTR [esi+5324]
  0003b	8b 11		 mov	 edx, DWORD PTR [ecx]
  0003d	ff 92 cc 00 00
	00		 call	 DWORD PTR [edx+204]
$LN1@OnApplyPai:

; 495  : }

  00043	5e		 pop	 esi
  00044	c3		 ret	 0
?OnApplyPaintStyle@CSetting_Common_Type_A@@AAEXXZ ENDP	; CSetting_Common_Type_A::OnApplyPaintStyle
_TEXT	ENDS
; Function compile flags: /Ogtp
; File D:\git\src\IBK\IBK_DRFN\ProjSrc\SrcChartEx\ChartAddIn\ChartEnvSetupDlgAddIn\ChartEnvSetupDlgAddIn\Setting_Common_Type_A.cpp
; File C:\Program Files (x86)\Microsoft Visual Studio\2019\Community\VC\Tools\MSVC\14.29.30133\atlmfc\include\afxwin2.inl
; File D:\git\src\IBK\IBK_DRFN\ProjSrc\SrcChartEx\ChartAddIn\ChartEnvSetupDlgAddIn\ChartEnvSetupDlgAddIn\Setting_Common_Type_A.cpp
; File C:\Program Files (x86)\Microsoft Visual Studio\2019\Community\VC\Tools\MSVC\14.29.30133\atlmfc\include\afxwin2.inl
; File D:\git\src\IBK\IBK_DRFN\ProjSrc\SrcChartEx\ChartAddIn\ChartEnvSetupDlgAddIn\ChartEnvSetupDlgAddIn\Setting_Common_Type_A.cpp
;	COMDAT ?OnApplySignal@CSetting_Common_Type_A@@AAEXPAUIGraphInfo135914@@@Z
_TEXT	SEGMENT
_bShowSignal$ = -4					; size = 4
_bValidFalg$ = 8					; size = 4
_p_pIGraphInfo$ = 8					; size = 4
?OnApplySignal@CSetting_Common_Type_A@@AAEXPAUIGraphInfo135914@@@Z PROC ; CSetting_Common_Type_A::OnApplySignal, COMDAT
; _this$ = ecx

; 351  : {

  00000	55		 push	 ebp
  00001	8b ec		 mov	 ebp, esp
  00003	51		 push	 ecx

; 352  : 	if(p_pIGraphInfo == NULL || !m_Signal_Bt.IsWindowVisible()) return;

  00004	83 7d 08 00	 cmp	 DWORD PTR _p_pIGraphInfo$[ebp], 0
  00008	56		 push	 esi
  00009	8b f1		 mov	 esi, ecx
  0000b	74 61		 je	 SHORT $LN3@OnApplySig
; File C:\Program Files (x86)\Microsoft Visual Studio\2019\Community\VC\Tools\MSVC\14.29.30133\atlmfc\include\afxwin2.inl

; 124  : 	{ ASSERT(::IsWindow(m_hWnd)); return ::IsWindowVisible(m_hWnd); }

  0000d	ff b6 40 05 00
	00		 push	 DWORD PTR [esi+1344]
  00013	ff 15 00 00 00
	00		 call	 DWORD PTR __imp__IsWindowVisible@4
; File D:\git\src\IBK\IBK_DRFN\ProjSrc\SrcChartEx\ChartAddIn\ChartEnvSetupDlgAddIn\ChartEnvSetupDlgAddIn\Setting_Common_Type_A.cpp

; 352  : 	if(p_pIGraphInfo == NULL || !m_Signal_Bt.IsWindowVisible()) return;

  00019	85 c0		 test	 eax, eax
  0001b	74 51		 je	 SHORT $LN3@OnApplySig

; 353  : 
; 354  : 	//   signal .
; 355  : 	BOOL bValidFalg = FALSE, bShowSignal = FALSE;
; 356  : 	m_pIGraphInfo->GetSignalShowFlag( bValidFalg, bShowSignal);

  0001d	8b 8e c4 00 00
	00		 mov	 ecx, DWORD PTR [esi+196]
  00023	8d 55 fc	 lea	 edx, DWORD PTR _bShowSignal$[ebp]
  00026	c7 45 08 00 00
	00 00		 mov	 DWORD PTR _bValidFalg$[ebp], 0
  0002d	c7 45 fc 00 00
	00 00		 mov	 DWORD PTR _bShowSignal$[ebp], 0
  00034	52		 push	 edx
  00035	8b 01		 mov	 eax, DWORD PTR [ecx]
  00037	8d 55 08	 lea	 edx, DWORD PTR _bValidFalg$[ebp]
  0003a	52		 push	 edx
  0003b	ff 90 b4 00 00
	00		 call	 DWORD PTR [eax+180]

; 357  : 	if( !bValidFalg) return;

  00041	83 7d 08 00	 cmp	 DWORD PTR _bValidFalg$[ebp], 0
  00045	74 27		 je	 SHORT $LN3@OnApplySig
; File C:\Program Files (x86)\Microsoft Visual Studio\2019\Community\VC\Tools\MSVC\14.29.30133\atlmfc\include\afxwin2.inl

; 628  : 	{ ASSERT(::IsWindow(m_hWnd)); return (int)::SendMessage(m_hWnd, BM_GETCHECK, 0, 0); }

  00047	6a 00		 push	 0
  00049	6a 00		 push	 0
  0004b	68 f0 00 00 00	 push	 240			; 000000f0H
  00050	ff b6 40 05 00
	00		 push	 DWORD PTR [esi+1344]
  00056	ff 15 00 00 00
	00		 call	 DWORD PTR __imp__SendMessageA@16
; File D:\git\src\IBK\IBK_DRFN\ProjSrc\SrcChartEx\ChartAddIn\ChartEnvSetupDlgAddIn\ChartEnvSetupDlgAddIn\Setting_Common_Type_A.cpp

; 360  : 	m_pIGraphInfo->SetSignalShowFlag( bValidFalg, m_Signal_Bt.GetCheck());

  0005c	8b 8e c4 00 00
	00		 mov	 ecx, DWORD PTR [esi+196]
  00062	50		 push	 eax
  00063	ff 75 08	 push	 DWORD PTR _bValidFalg$[ebp]
  00066	8b 11		 mov	 edx, DWORD PTR [ecx]
  00068	ff 92 b8 00 00
	00		 call	 DWORD PTR [edx+184]
$LN3@OnApplySig:
  0006e	5e		 pop	 esi

; 361  : }

  0006f	8b e5		 mov	 esp, ebp
  00071	5d		 pop	 ebp
  00072	c2 04 00	 ret	 4
?OnApplySignal@CSetting_Common_Type_A@@AAEXPAUIGraphInfo135914@@@Z ENDP ; CSetting_Common_Type_A::OnApplySignal
_TEXT	ENDS
; Function compile flags: /Ogtp
; File D:\git\src\IBK\IBK_DRFN\ProjSrc\SrcChartEx\ChartAddIn\ChartEnvSetupDlgAddIn\ChartEnvSetupDlgAddIn\Setting_Common_Type_A.cpp
; File C:\Program Files (x86)\Microsoft Visual Studio\2019\Community\VC\Tools\MSVC\14.29.30133\atlmfc\include\afxwin2.inl
; File D:\git\src\IBK\IBK_DRFN\ProjSrc\SrcChartEx\ChartAddIn\ChartEnvSetupDlgAddIn\ChartEnvSetupDlgAddIn\Setting_Common_Type_A.cpp
; File C:\Program Files (x86)\Microsoft Visual Studio\2019\Community\VC\Tools\MSVC\14.29.30133\atlmfc\include\afxwin2.inl
; File D:\git\src\IBK\IBK_DRFN\ProjSrc\SrcChartEx\ChartAddIn\ChartEnvSetupDlgAddIn\ChartEnvSetupDlgAddIn\Setting_Common_Type_A.cpp
; File C:\Program Files (x86)\Microsoft Visual Studio\2019\Community\VC\Tools\MSVC\14.29.30133\atlmfc\include\afxwin2.inl
; File D:\git\src\IBK\IBK_DRFN\ProjSrc\SrcChartEx\ChartAddIn\ChartEnvSetupDlgAddIn\ChartEnvSetupDlgAddIn\Setting_Common_Type_A.cpp
; File C:\Program Files (x86)\Microsoft Visual Studio\2019\Community\VC\Tools\MSVC\14.29.30133\atlmfc\include\afxwin2.inl
; File D:\git\src\IBK\IBK_DRFN\ProjSrc\SrcChartEx\ChartAddIn\ChartEnvSetupDlgAddIn\ChartEnvSetupDlgAddIn\Setting_Common_Type_A.cpp
; File C:\Program Files (x86)\Microsoft Visual Studio\2019\Community\VC\Tools\MSVC\14.29.30133\atlmfc\include\afxwin2.inl
; File D:\git\src\IBK\IBK_DRFN\ProjSrc\SrcChartEx\ChartAddIn\ChartEnvSetupDlgAddIn\ChartEnvSetupDlgAddIn\Setting_Common_Type_A.cpp
; File C:\Program Files (x86)\Microsoft Visual Studio\2019\Community\VC\Tools\MSVC\14.29.30133\atlmfc\include\afxwin2.inl
; File D:\git\src\IBK\IBK_DRFN\ProjSrc\SrcChartEx\ChartAddIn\ChartEnvSetupDlgAddIn\ChartEnvSetupDlgAddIn\Setting_Common_Type_A.cpp
; File C:\Program Files (x86)\Microsoft Visual Studio\2019\Community\VC\Tools\MSVC\14.29.30133\atlmfc\include\afxwin2.inl
; File D:\git\src\IBK\IBK_DRFN\ProjSrc\SrcChartEx\ChartAddIn\ChartEnvSetupDlgAddIn\ChartEnvSetupDlgAddIn\Setting_Common_Type_A.cpp
;	COMDAT ?OnApplyBaseLine@CSetting_Common_Type_A@@AAEXXZ
_TEXT	SEGMENT
tv488 = -28						; size = 4
_bShowSignal$2 = -28					; size = 4
$T3 = -28						; size = 4
_strType$4 = -24					; size = 4
_nIndex$1$ = -20					; size = 4
_bValidFalg$5 = -20					; size = 4
_strOutput$6 = -20					; size = 4
_data$7 = -16						; size = 4
__$EHRec$ = -12						; size = 12
?OnApplyBaseLine@CSetting_Common_Type_A@@AAEXXZ PROC	; CSetting_Common_Type_A::OnApplyBaseLine, COMDAT
; _this$ = ecx

; 434  : {

  00000	55		 push	 ebp
  00001	8b ec		 mov	 ebp, esp
  00003	6a ff		 push	 -1
  00005	68 00 00 00 00	 push	 __ehhandler$?OnApplyBaseLine@CSetting_Common_Type_A@@AAEXXZ
  0000a	64 a1 00 00 00
	00		 mov	 eax, DWORD PTR fs:0
  00010	50		 push	 eax
  00011	83 ec 14	 sub	 esp, 20			; 00000014H
  00014	53		 push	 ebx
  00015	56		 push	 esi
  00016	57		 push	 edi
  00017	a1 00 00 00 00	 mov	 eax, DWORD PTR ___security_cookie
  0001c	33 c5		 xor	 eax, ebp
  0001e	50		 push	 eax
  0001f	8d 45 f4	 lea	 eax, DWORD PTR __$EHRec$[ebp]
  00022	64 a3 00 00 00
	00		 mov	 DWORD PTR fs:0, eax
  00028	8b f9		 mov	 edi, ecx

; 435  : 	if(m_pIGraphInfo == NULL) return;

  0002a	8b 8f c4 00 00
	00		 mov	 ecx, DWORD PTR [edi+196]
  00030	85 c9		 test	 ecx, ecx
  00032	0f 84 3e 02 00
	00		 je	 $LN35@OnApplyBas

; 436  : 	
; 437  : 	IDoubleList *pIDblList = m_pIGraphInfo->GetBaseLineList();

  00038	8b 01		 mov	 eax, DWORD PTR [ecx]
  0003a	ff 50 28	 call	 DWORD PTR [eax+40]

; 438  : 	if( pIDblList)

  0003d	8b 35 00 00 00
	00		 mov	 esi, DWORD PTR __imp__SendMessageA@16
  00043	8b d8		 mov	 ebx, eax
  00045	85 db		 test	 ebx, ebx
  00047	0f 84 80 01 00
	00		 je	 $LN12@OnApplyBas

; 439  : 	{
; 440  : 		pIDblList->RemoveAll();

  0004d	8b 13		 mov	 edx, DWORD PTR [ebx]
  0004f	8b cb		 mov	 ecx, ebx
  00051	ff 52 30	 call	 DWORD PTR [edx+48]

; 441  : 		CString data;

  00054	8d 4d f0	 lea	 ecx, DWORD PTR _data$7[ebp]
  00057	ff 15 00 00 00
	00		 call	 DWORD PTR __imp_??0?$CStringT@DV?$StrTraitMFC_DLL@DV?$ChTraitsCRT@D@ATL@@@@@ATL@@QAE@XZ

; 442  : 
; 443  : 		// 20081014     . >>
; 444  : 		CString strType = GetPacketType();

  0005d	8d 45 e8	 lea	 eax, DWORD PTR _strType$4[ebp]
  00060	c7 45 fc 00 00
	00 00		 mov	 DWORD PTR __$EHRec$[ebp+8], 0
  00067	50		 push	 eax
  00068	8b cf		 mov	 ecx, edi
  0006a	e8 00 00 00 00	 call	 ?GetPacketType@CBaseDialog@@QAE?AV?$CStringT@DV?$StrTraitMFC_DLL@DV?$ChTraitsCRT@D@ATL@@@@@ATL@@XZ ; CBaseDialog::GetPacketType

; 445  : 		
; 446  : 		if(CDataConversion::IsBaseFormat(strType))

  0006f	8d 45 e8	 lea	 eax, DWORD PTR _strType$4[ebp]
  00072	c6 45 fc 01	 mov	 BYTE PTR __$EHRec$[ebp+8], 1
  00076	50		 push	 eax
  00077	e8 00 00 00 00	 call	 ?IsBaseFormat@CDataConversion@@SA_NABV?$CStringT@DV?$StrTraitMFC_DLL@DV?$ChTraitsCRT@D@ATL@@@@@ATL@@@Z ; CDataConversion::IsBaseFormat
  0007c	8b 8f c0 05 00
	00		 mov	 ecx, DWORD PTR [edi+1472]
  00082	83 c4 04	 add	 esp, 4
  00085	6a 00		 push	 0
  00087	6a 00		 push	 0
  00089	68 8b 01 00 00	 push	 395			; 0000018bH
  0008e	51		 push	 ecx
  0008f	84 c0		 test	 al, al
  00091	0f 84 bb 00 00
	00		 je	 $LN13@OnApplyBas

; 449  : 			for(int nIndex = 0 ; nIndex < m_HorizonLine_ListBox.GetCount(); nIndex++) 

  00097	33 f6		 xor	 esi, esi
; File C:\Program Files (x86)\Microsoft Visual Studio\2019\Community\VC\Tools\MSVC\14.29.30133\atlmfc\include\afxwin2.inl

; 664  : 	{ ASSERT(::IsWindow(m_hWnd)); return (int)::SendMessage(m_hWnd, LB_GETCOUNT, 0, 0); }

  00099	ff 15 00 00 00
	00		 call	 DWORD PTR __imp__SendMessageA@16
; File D:\git\src\IBK\IBK_DRFN\ProjSrc\SrcChartEx\ChartAddIn\ChartEnvSetupDlgAddIn\ChartEnvSetupDlgAddIn\Setting_Common_Type_A.cpp

; 449  : 			for(int nIndex = 0 ; nIndex < m_HorizonLine_ListBox.GetCount(); nIndex++) 

  0009f	85 c0		 test	 eax, eax
  000a1	0f 8e 07 01 00
	00		 jle	 $LN6@OnApplyBas
  000a7	8d 87 a0 05 00
	00		 lea	 eax, DWORD PTR [edi+1440]
  000ad	0f 1f 00	 npad	 3
$LL4@OnApplyBas:

; 450  : 			{
; 451  : 				m_HorizonLine_ListBox.GetText(nIndex, data);

  000b0	8d 4d f0	 lea	 ecx, DWORD PTR _data$7[ebp]
  000b3	51		 push	 ecx
  000b4	56		 push	 esi
  000b5	8b c8		 mov	 ecx, eax
  000b7	e8 00 00 00 00	 call	 ?GetText@CListBox@@QBEXHAAV?$CStringT@DV?$StrTraitMFC_DLL@DV?$ChTraitsCRT@D@ATL@@@@@ATL@@@Z ; CListBox::GetText

; 452  : 
; 453  : 				//  10 .
; 454  : 				CString strOutput;

  000bc	8d 4d ec	 lea	 ecx, DWORD PTR _strOutput$6[ebp]
  000bf	ff 15 00 00 00
	00		 call	 DWORD PTR __imp_??0?$CStringT@DV?$StrTraitMFC_DLL@DV?$ChTraitsCRT@D@ATL@@@@@ATL@@QAE@XZ

; 455  : 				BOOL bResult = CDataConversion::GetDataToDec(data, strType, strOutput);

  000c5	8d 45 ec	 lea	 eax, DWORD PTR _strOutput$6[ebp]
  000c8	c6 45 fc 02	 mov	 BYTE PTR __$EHRec$[ebp+8], 2
  000cc	50		 push	 eax
  000cd	51		 push	 ecx
  000ce	8d 45 e8	 lea	 eax, DWORD PTR _strType$4[ebp]
  000d1	89 65 e4	 mov	 DWORD PTR $T3[ebp], esp
  000d4	8b cc		 mov	 ecx, esp
  000d6	50		 push	 eax
  000d7	ff 15 00 00 00
	00		 call	 DWORD PTR __imp_??0?$CStringT@DV?$StrTraitMFC_DLL@DV?$ChTraitsCRT@D@ATL@@@@@ATL@@QAE@ABV01@@Z
  000dd	51		 push	 ecx
  000de	8d 45 f0	 lea	 eax, DWORD PTR _data$7[ebp]
  000e1	c6 45 fc 03	 mov	 BYTE PTR __$EHRec$[ebp+8], 3
  000e5	8b cc		 mov	 ecx, esp
  000e7	50		 push	 eax
  000e8	ff 15 00 00 00
	00		 call	 DWORD PTR __imp_??0?$CStringT@DV?$StrTraitMFC_DLL@DV?$ChTraitsCRT@D@ATL@@@@@ATL@@QAE@ABV01@@Z
  000ee	c6 45 fc 02	 mov	 BYTE PTR __$EHRec$[ebp+8], 2
  000f2	e8 00 00 00 00	 call	 ?GetDataToDec@CDataConversion@@SAHV?$CStringT@DV?$StrTraitMFC_DLL@DV?$ChTraitsCRT@D@ATL@@@@@ATL@@0AAV23@@Z ; CDataConversion::GetDataToDec
  000f7	8b 0b		 mov	 ecx, DWORD PTR [ebx]
  000f9	83 c4 0c	 add	 esp, 12			; 0000000cH
  000fc	83 c1 2c	 add	 ecx, 44			; 0000002cH
  000ff	89 4d e4	 mov	 DWORD PTR tv488[ebp], ecx

; 456  : 
; 457  : 				if(bResult)

  00102	85 c0		 test	 eax, eax
  00104	74 05		 je	 SHORT $LN15@OnApplyBas

; 458  : 					pIDblList->AddTail( atof(strOutput));

  00106	ff 75 ec	 push	 DWORD PTR _strOutput$6[ebp]
  00109	eb 03		 jmp	 SHORT $LN55@OnApplyBas
$LN15@OnApplyBas:

; 459  : 				else
; 460  : 					pIDblList->AddTail( atof(data));

  0010b	ff 75 f0	 push	 DWORD PTR _data$7[ebp]
$LN55@OnApplyBas:

; 461  : 			}

  0010e	ff 15 00 00 00
	00		 call	 DWORD PTR __imp__atof
  00114	8b 45 e4	 mov	 eax, DWORD PTR tv488[ebp]
  00117	51		 push	 ecx
  00118	8b cb		 mov	 ecx, ebx
  0011a	dd 1c 24	 fstp	 QWORD PTR [esp]
  0011d	ff 10		 call	 DWORD PTR [eax]
  0011f	8d 4d ec	 lea	 ecx, DWORD PTR _strOutput$6[ebp]
  00122	c6 45 fc 01	 mov	 BYTE PTR __$EHRec$[ebp+8], 1
  00126	ff 15 00 00 00
	00		 call	 DWORD PTR __imp_??1?$CStringT@DV?$StrTraitMFC_DLL@DV?$ChTraitsCRT@D@ATL@@@@@ATL@@QAE@XZ
; File C:\Program Files (x86)\Microsoft Visual Studio\2019\Community\VC\Tools\MSVC\14.29.30133\atlmfc\include\afxwin2.inl

; 664  : 	{ ASSERT(::IsWindow(m_hWnd)); return (int)::SendMessage(m_hWnd, LB_GETCOUNT, 0, 0); }

  0012c	6a 00		 push	 0
  0012e	6a 00		 push	 0
  00130	68 8b 01 00 00	 push	 395			; 0000018bH
  00135	ff b7 c0 05 00
	00		 push	 DWORD PTR [edi+1472]
; File D:\git\src\IBK\IBK_DRFN\ProjSrc\SrcChartEx\ChartAddIn\ChartEnvSetupDlgAddIn\ChartEnvSetupDlgAddIn\Setting_Common_Type_A.cpp

; 449  : 			for(int nIndex = 0 ; nIndex < m_HorizonLine_ListBox.GetCount(); nIndex++) 

  0013b	46		 inc	 esi
; File C:\Program Files (x86)\Microsoft Visual Studio\2019\Community\VC\Tools\MSVC\14.29.30133\atlmfc\include\afxwin2.inl

; 664  : 	{ ASSERT(::IsWindow(m_hWnd)); return (int)::SendMessage(m_hWnd, LB_GETCOUNT, 0, 0); }

  0013c	ff 15 00 00 00
	00		 call	 DWORD PTR __imp__SendMessageA@16
; File D:\git\src\IBK\IBK_DRFN\ProjSrc\SrcChartEx\ChartAddIn\ChartEnvSetupDlgAddIn\ChartEnvSetupDlgAddIn\Setting_Common_Type_A.cpp

; 449  : 			for(int nIndex = 0 ; nIndex < m_HorizonLine_ListBox.GetCount(); nIndex++) 

  00142	3b f0		 cmp	 esi, eax
  00144	8d 87 a0 05 00
	00		 lea	 eax, DWORD PTR [edi+1440]
  0014a	0f 8c 60 ff ff
	ff		 jl	 $LL4@OnApplyBas

; 462  : 		}

  00150	eb 5c		 jmp	 SHORT $LN6@OnApplyBas
$LN13@OnApplyBas:

; 466  : 			for(int nIndex = 0 ; nIndex < m_HorizonLine_ListBox.GetCount(); nIndex++) 

  00152	c7 45 ec 00 00
	00 00		 mov	 DWORD PTR _nIndex$1$[ebp], 0
; File C:\Program Files (x86)\Microsoft Visual Studio\2019\Community\VC\Tools\MSVC\14.29.30133\atlmfc\include\afxwin2.inl

; 664  : 	{ ASSERT(::IsWindow(m_hWnd)); return (int)::SendMessage(m_hWnd, LB_GETCOUNT, 0, 0); }

  00159	ff d6		 call	 esi
; File D:\git\src\IBK\IBK_DRFN\ProjSrc\SrcChartEx\ChartAddIn\ChartEnvSetupDlgAddIn\ChartEnvSetupDlgAddIn\Setting_Common_Type_A.cpp

; 466  : 			for(int nIndex = 0 ; nIndex < m_HorizonLine_ListBox.GetCount(); nIndex++) 

  0015b	85 c0		 test	 eax, eax
  0015d	7e 4f		 jle	 SHORT $LN6@OnApplyBas
  0015f	8d 87 a0 05 00
	00		 lea	 eax, DWORD PTR [edi+1440]
  00165	33 c9		 xor	 ecx, ecx
$LL7@OnApplyBas:

; 467  : 			{
; 468  : 				m_HorizonLine_ListBox.GetText(nIndex, data);

  00167	8d 55 f0	 lea	 edx, DWORD PTR _data$7[ebp]
  0016a	52		 push	 edx
  0016b	51		 push	 ecx
  0016c	8b c8		 mov	 ecx, eax
  0016e	e8 00 00 00 00	 call	 ?GetText@CListBox@@QBEXHAAV?$CStringT@DV?$StrTraitMFC_DLL@DV?$ChTraitsCRT@D@ATL@@@@@ATL@@@Z ; CListBox::GetText

; 469  : 				pIDblList->AddTail( atof( data));

  00173	ff 75 f0	 push	 DWORD PTR _data$7[ebp]
  00176	8b 33		 mov	 esi, DWORD PTR [ebx]
  00178	ff 15 00 00 00
	00		 call	 DWORD PTR __imp__atof
  0017e	51		 push	 ecx
  0017f	8b cb		 mov	 ecx, ebx
  00181	dd 1c 24	 fstp	 QWORD PTR [esp]
  00184	ff 56 2c	 call	 DWORD PTR [esi+44]
  00187	ff 45 ec	 inc	 DWORD PTR _nIndex$1$[ebp]
; File C:\Program Files (x86)\Microsoft Visual Studio\2019\Community\VC\Tools\MSVC\14.29.30133\atlmfc\include\afxwin2.inl

; 664  : 	{ ASSERT(::IsWindow(m_hWnd)); return (int)::SendMessage(m_hWnd, LB_GETCOUNT, 0, 0); }

  0018a	8b 35 00 00 00
	00		 mov	 esi, DWORD PTR __imp__SendMessageA@16
  00190	6a 00		 push	 0
  00192	6a 00		 push	 0
  00194	68 8b 01 00 00	 push	 395			; 0000018bH
  00199	ff b7 c0 05 00
	00		 push	 DWORD PTR [edi+1472]
  0019f	ff d6		 call	 esi
; File D:\git\src\IBK\IBK_DRFN\ProjSrc\SrcChartEx\ChartAddIn\ChartEnvSetupDlgAddIn\ChartEnvSetupDlgAddIn\Setting_Common_Type_A.cpp

; 466  : 			for(int nIndex = 0 ; nIndex < m_HorizonLine_ListBox.GetCount(); nIndex++) 

  001a1	8b 4d ec	 mov	 ecx, DWORD PTR _nIndex$1$[ebp]
  001a4	3b c8		 cmp	 ecx, eax
  001a6	8d 87 a0 05 00
	00		 lea	 eax, DWORD PTR [edi+1440]
  001ac	7c b9		 jl	 SHORT $LL7@OnApplyBas
$LN6@OnApplyBas:

; 470  : 			}
; 471  : 		}
; 472  : 		// 20081014  <<
; 473  : 
; 474  : 		pIDblList->Release();

  001ae	8b 03		 mov	 eax, DWORD PTR [ebx]
  001b0	53		 push	 ebx
  001b1	ff 50 08	 call	 DWORD PTR [eax+8]

; 475  : 	}

  001b4	8d 4d e8	 lea	 ecx, DWORD PTR _strType$4[ebp]
  001b7	ff 15 00 00 00
	00		 call	 DWORD PTR __imp_??1?$CStringT@DV?$StrTraitMFC_DLL@DV?$ChTraitsCRT@D@ATL@@@@@ATL@@QAE@XZ
  001bd	8d 4d f0	 lea	 ecx, DWORD PTR _data$7[ebp]
  001c0	c7 45 fc ff ff
	ff ff		 mov	 DWORD PTR __$EHRec$[ebp+8], -1
  001c7	ff 15 00 00 00
	00		 call	 DWORD PTR __imp_??1?$CStringT@DV?$StrTraitMFC_DLL@DV?$ChTraitsCRT@D@ATL@@@@@ATL@@QAE@XZ
$LN12@OnApplyBas:

; 476  : 
; 477  : 	//  ,   - ojtaso (20071213)
; 478  : 	for(int i = 0; i < m_pIGraphInfo->GetSubGraphCount(); i++)

  001cd	8b 8f c4 00 00
	00		 mov	 ecx, DWORD PTR [edi+196]
  001d3	33 f6		 xor	 esi, esi
  001d5	8b 01		 mov	 eax, DWORD PTR [ecx]
  001d7	ff 50 2c	 call	 DWORD PTR [eax+44]
  001da	85 c0		 test	 eax, eax
  001dc	7e 2e		 jle	 SHORT $LN9@OnApplyBas
  001de	8d 9f b8 13 00
	00		 lea	 ebx, DWORD PTR [edi+5048]
$LL10@OnApplyBas:

; 479  : 	{
; 480  : 		OnApply_BaseLineThickness( i, m_cmbThickness2);

  001e4	53		 push	 ebx
  001e5	56		 push	 esi
  001e6	8b cf		 mov	 ecx, edi
  001e8	e8 00 00 00 00	 call	 ?OnApply_BaseLineThickness@CBaseDialog@@IAEXHAAVCBitmapItemComboBox@@@Z ; CBaseDialog::OnApply_BaseLineThickness

; 481  : 		OnApply_BaseLineDrawStyle( i, m_cmbLineType2);

  001ed	8d 87 40 14 00
	00		 lea	 eax, DWORD PTR [edi+5184]
  001f3	8b cf		 mov	 ecx, edi
  001f5	50		 push	 eax
  001f6	56		 push	 esi
  001f7	e8 00 00 00 00	 call	 ?OnApply_BaseLineDrawStyle@CBaseDialog@@IAEXHAAVCBitmapItemComboBox@@@Z ; CBaseDialog::OnApply_BaseLineDrawStyle
  001fc	8b 8f c4 00 00
	00		 mov	 ecx, DWORD PTR [edi+196]
  00202	46		 inc	 esi
  00203	8b 01		 mov	 eax, DWORD PTR [ecx]
  00205	ff 50 2c	 call	 DWORD PTR [eax+44]
  00208	3b f0		 cmp	 esi, eax
  0020a	7c d8		 jl	 SHORT $LL10@OnApplyBas
$LN9@OnApplyBas:

; 352  : 	if(p_pIGraphInfo == NULL || !m_Signal_Bt.IsWindowVisible()) return;

  0020c	83 bf c4 00 00
	00 00		 cmp	 DWORD PTR [edi+196], 0
  00213	74 61		 je	 SHORT $LN35@OnApplyBas
; File C:\Program Files (x86)\Microsoft Visual Studio\2019\Community\VC\Tools\MSVC\14.29.30133\atlmfc\include\afxwin2.inl

; 124  : 	{ ASSERT(::IsWindow(m_hWnd)); return ::IsWindowVisible(m_hWnd); }

  00215	ff b7 40 05 00
	00		 push	 DWORD PTR [edi+1344]
  0021b	ff 15 00 00 00
	00		 call	 DWORD PTR __imp__IsWindowVisible@4
; File D:\git\src\IBK\IBK_DRFN\ProjSrc\SrcChartEx\ChartAddIn\ChartEnvSetupDlgAddIn\ChartEnvSetupDlgAddIn\Setting_Common_Type_A.cpp

; 352  : 	if(p_pIGraphInfo == NULL || !m_Signal_Bt.IsWindowVisible()) return;

  00221	85 c0		 test	 eax, eax
  00223	74 51		 je	 SHORT $LN35@OnApplyBas

; 353  : 
; 354  : 	//   signal .
; 355  : 	BOOL bValidFalg = FALSE, bShowSignal = FALSE;
; 356  : 	m_pIGraphInfo->GetSignalShowFlag( bValidFalg, bShowSignal);

  00225	8b 8f c4 00 00
	00		 mov	 ecx, DWORD PTR [edi+196]
  0022b	8d 55 e4	 lea	 edx, DWORD PTR _bShowSignal$2[ebp]
  0022e	c7 45 ec 00 00
	00 00		 mov	 DWORD PTR _bValidFalg$5[ebp], 0
  00235	c7 45 e4 00 00
	00 00		 mov	 DWORD PTR _bShowSignal$2[ebp], 0
  0023c	52		 push	 edx
  0023d	8b 01		 mov	 eax, DWORD PTR [ecx]
  0023f	8d 55 ec	 lea	 edx, DWORD PTR _bValidFalg$5[ebp]
  00242	52		 push	 edx
  00243	ff 90 b4 00 00
	00		 call	 DWORD PTR [eax+180]

; 357  : 	if( !bValidFalg) return;

  00249	83 7d ec 00	 cmp	 DWORD PTR _bValidFalg$5[ebp], 0
  0024d	74 27		 je	 SHORT $LN35@OnApplyBas
; File C:\Program Files (x86)\Microsoft Visual Studio\2019\Community\VC\Tools\MSVC\14.29.30133\atlmfc\include\afxwin2.inl

; 628  : 	{ ASSERT(::IsWindow(m_hWnd)); return (int)::SendMessage(m_hWnd, BM_GETCHECK, 0, 0); }

  0024f	6a 00		 push	 0
  00251	6a 00		 push	 0
  00253	68 f0 00 00 00	 push	 240			; 000000f0H
  00258	ff b7 40 05 00
	00		 push	 DWORD PTR [edi+1344]
  0025e	ff 15 00 00 00
	00		 call	 DWORD PTR __imp__SendMessageA@16
; File D:\git\src\IBK\IBK_DRFN\ProjSrc\SrcChartEx\ChartAddIn\ChartEnvSetupDlgAddIn\ChartEnvSetupDlgAddIn\Setting_Common_Type_A.cpp

; 360  : 	m_pIGraphInfo->SetSignalShowFlag( bValidFalg, m_Signal_Bt.GetCheck());

  00264	8b 8f c4 00 00
	00		 mov	 ecx, DWORD PTR [edi+196]
  0026a	50		 push	 eax
  0026b	ff 75 ec	 push	 DWORD PTR _bValidFalg$5[ebp]
  0026e	8b 11		 mov	 edx, DWORD PTR [ecx]
  00270	ff 92 b8 00 00
	00		 call	 DWORD PTR [edx+184]
$LN35@OnApplyBas:

; 482  : 	}
; 483  : 
; 484  : 	//sy 2006.04.17.
; 485  : 	OnApplySignal(m_pIGraphInfo);
; 486  : }

  00276	8b 4d f4	 mov	 ecx, DWORD PTR __$EHRec$[ebp]
  00279	64 89 0d 00 00
	00 00		 mov	 DWORD PTR fs:0, ecx
  00280	59		 pop	 ecx
  00281	5f		 pop	 edi
  00282	5e		 pop	 esi
  00283	5b		 pop	 ebx
  00284	8b e5		 mov	 esp, ebp
  00286	5d		 pop	 ebp
  00287	c3		 ret	 0
_TEXT	ENDS
;	COMDAT text$x
text$x	SEGMENT
__unwindfunclet$?OnApplyBaseLine@CSetting_Common_Type_A@@AAEXXZ$0:
  00000	8d 4d f0	 lea	 ecx, DWORD PTR _data$7[ebp]
  00003	ff 25 00 00 00
	00		 jmp	 DWORD PTR __imp_??1?$CStringT@DV?$StrTraitMFC_DLL@DV?$ChTraitsCRT@D@ATL@@@@@ATL@@QAE@XZ
__unwindfunclet$?OnApplyBaseLine@CSetting_Common_Type_A@@AAEXXZ$1:
  00009	8d 4d e8	 lea	 ecx, DWORD PTR _strType$4[ebp]
  0000c	ff 25 00 00 00
	00		 jmp	 DWORD PTR __imp_??1?$CStringT@DV?$StrTraitMFC_DLL@DV?$ChTraitsCRT@D@ATL@@@@@ATL@@QAE@XZ
__unwindfunclet$?OnApplyBaseLine@CSetting_Common_Type_A@@AAEXXZ$2:
  00012	8d 4d ec	 lea	 ecx, DWORD PTR _strOutput$6[ebp]
  00015	ff 25 00 00 00
	00		 jmp	 DWORD PTR __imp_??1?$CStringT@DV?$StrTraitMFC_DLL@DV?$ChTraitsCRT@D@ATL@@@@@ATL@@QAE@XZ
__unwindfunclet$?OnApplyBaseLine@CSetting_Common_Type_A@@AAEXXZ$3:
  0001b	8b 4d e4	 mov	 ecx, DWORD PTR $T3[ebp]
  0001e	ff 25 00 00 00
	00		 jmp	 DWORD PTR __imp_??1?$CStringT@DV?$StrTraitMFC_DLL@DV?$ChTraitsCRT@D@ATL@@@@@ATL@@QAE@XZ
  00024	cc		 int	 3
  00025	cc		 int	 3
  00026	cc		 int	 3
  00027	cc		 int	 3
  00028	cc		 int	 3
__ehhandler$?OnApplyBaseLine@CSetting_Common_Type_A@@AAEXXZ:
  00029	90		 npad	 1
  0002a	90		 npad	 1
  0002b	8b 54 24 08	 mov	 edx, DWORD PTR [esp+8]
  0002f	8d 42 0c	 lea	 eax, DWORD PTR [edx+12]
  00032	8b 4a dc	 mov	 ecx, DWORD PTR [edx-36]
  00035	33 c8		 xor	 ecx, eax
  00037	e8 00 00 00 00	 call	 @__security_check_cookie@4
  0003c	b8 00 00 00 00	 mov	 eax, OFFSET __ehfuncinfo$?OnApplyBaseLine@CSetting_Common_Type_A@@AAEXXZ
  00041	e9 00 00 00 00	 jmp	 ___CxxFrameHandler3
text$x	ENDS
?OnApplyBaseLine@CSetting_Common_Type_A@@AAEXXZ ENDP	; CSetting_Common_Type_A::OnApplyBaseLine
; Function compile flags: /Ogtp
; File D:\git\src\IBK\IBK_DRFN\ProjSrc\SrcChartEx\ChartAddIn\ChartEnvSetupDlgAddIn\ChartEnvSetupDlgAddIn\Setting_Common_Type_A.cpp
; File C:\Program Files (x86)\Microsoft Visual Studio\2019\Community\VC\Tools\MSVC\14.29.30133\atlmfc\include\afxwin2.inl
; File D:\git\src\IBK\IBK_DRFN\ProjSrc\SrcChartEx\ChartAddIn\ChartEnvSetupDlgAddIn\ChartEnvSetupDlgAddIn\Setting_Common_Type_A.cpp
; File D:\git\src\IBK\IBK_DRFN\ProjSrc\SrcChartEx\ChartAddIn\ChartEnvSetupDlgAddIn\Include_AddIn_135914\I135914\_IString.h
; File D:\git\src\IBK\IBK_DRFN\ProjSrc\SrcChartEx\ChartAddIn\ChartEnvSetupDlgAddIn\ChartEnvSetupDlgAddIn\Setting_Common_Type_A.cpp
; File D:\git\src\IBK\IBK_DRFN\ProjSrc\SrcChartEx\ChartAddIn\ChartEnvSetupDlgAddIn\Include_AddIn_135914\I135914\_IString.h
; File D:\git\src\IBK\IBK_DRFN\ProjSrc\SrcChartEx\ChartAddIn\ChartEnvSetupDlgAddIn\ChartEnvSetupDlgAddIn\Setting_Common_Type_A.cpp
; File D:\git\src\IBK\IBK_DRFN\ProjSrc\SrcChartEx\ChartAddIn\ChartEnvSetupDlgAddIn\Include_AddIn_135914\I135914\_IString.h
; File D:\git\src\IBK\IBK_DRFN\ProjSrc\SrcChartEx\ChartAddIn\ChartEnvSetupDlgAddIn\ChartEnvSetupDlgAddIn\Setting_Common_Type_A.cpp
; File D:\git\src\IBK\IBK_DRFN\ProjSrc\SrcChartEx\ChartAddIn\ChartEnvSetupDlgAddIn\Include_AddIn_135914\I135914\_IString.h
; File D:\git\src\IBK\IBK_DRFN\ProjSrc\SrcChartEx\ChartAddIn\ChartEnvSetupDlgAddIn\ChartEnvSetupDlgAddIn\Setting_Common_Type_A.cpp
; File D:\git\src\IBK\IBK_DRFN\ProjSrc\SrcChartEx\ChartAddIn\ChartEnvSetupDlgAddIn\Include_AddIn_135914\I135914\_IString.h
; File D:\git\src\IBK\IBK_DRFN\ProjSrc\SrcChartEx\ChartAddIn\ChartEnvSetupDlgAddIn\ChartEnvSetupDlgAddIn\Setting_Common_Type_A.cpp
; File C:\Program Files (x86)\Microsoft Visual Studio\2019\Community\VC\Tools\MSVC\14.29.30133\atlmfc\include\afxwin2.inl
; File D:\git\src\IBK\IBK_DRFN\ProjSrc\SrcChartEx\ChartAddIn\ChartEnvSetupDlgAddIn\ChartEnvSetupDlgAddIn\Setting_Common_Type_A.cpp
; File D:\git\src\IBK\IBK_DRFN\ProjSrc\SrcChartEx\ChartAddIn\ChartEnvSetupDlgAddIn\Include_AddIn_135914\I135914\_IString.h
; File D:\git\src\IBK\IBK_DRFN\ProjSrc\SrcChartEx\ChartAddIn\ChartEnvSetupDlgAddIn\ChartEnvSetupDlgAddIn\Setting_Common_Type_A.cpp
;	COMDAT ?OnApplySubGraphData@CSetting_Common_Type_A@@AAEXXZ
_TEXT	SEGMENT
_dNewData$2 = -72					; size = 8
_szIndicatorName$ = -64					; size = 8
_szSubPacketName$3 = -56				; size = 8
_dData$4 = -56						; size = 8
_psnBack$1$ = -48					; size = 4
_psnCnd$5 = -44						; size = 4
_strData$6 = -40					; size = 4
_pNEdit$7 = -36						; size = 20
__$ArrayPad$ = -16					; size = 4
__$EHRec$ = -12						; size = 12
?OnApplySubGraphData@CSetting_Common_Type_A@@AAEXXZ PROC ; CSetting_Common_Type_A::OnApplySubGraphData, COMDAT
; _this$ = ecx

; 1241 : {

  00000	55		 push	 ebp
  00001	8b ec		 mov	 ebp, esp
  00003	6a ff		 push	 -1
  00005	68 00 00 00 00	 push	 __ehhandler$?OnApplySubGraphData@CSetting_Common_Type_A@@AAEXXZ
  0000a	64 a1 00 00 00
	00		 mov	 eax, DWORD PTR fs:0
  00010	50		 push	 eax
  00011	83 ec 3c	 sub	 esp, 60			; 0000003cH
  00014	a1 00 00 00 00	 mov	 eax, DWORD PTR ___security_cookie
  00019	33 c5		 xor	 eax, ebp
  0001b	89 45 f0	 mov	 DWORD PTR __$ArrayPad$[ebp], eax
  0001e	53		 push	 ebx
  0001f	56		 push	 esi
  00020	57		 push	 edi
  00021	50		 push	 eax
  00022	8d 45 f4	 lea	 eax, DWORD PTR __$EHRec$[ebp]
  00025	64 a3 00 00 00
	00		 mov	 DWORD PTR fs:0, eax
  0002b	8b f9		 mov	 edi, ecx

; 1242 : 	//  OnCompositioncolor  
; 1243 : 	m_pIGraphInfo->SetSubGraphShowFlag( m_nSubGraphIndex, m_lstComposition.GetCheck( m_nSubGraphIndex));

  0002d	8b 87 c4 00 00
	00		 mov	 eax, DWORD PTR [edi+196]
  00033	8d 8f 30 13 00
	00		 lea	 ecx, DWORD PTR [edi+4912]
  00039	ff b7 cc 14 00
	00		 push	 DWORD PTR [edi+5324]
  0003f	8b 30		 mov	 esi, DWORD PTR [eax]
  00041	e8 00 00 00 00	 call	 ?GetCheck@CListCtrl@@QBEHH@Z ; CListCtrl::GetCheck
  00046	8b 8f c4 00 00
	00		 mov	 ecx, DWORD PTR [edi+196]
  0004c	50		 push	 eax
  0004d	ff b7 cc 14 00
	00		 push	 DWORD PTR [edi+5324]
  00053	ff 56 38	 call	 DWORD PTR [esi+56]

; 1244 : 
; 1245 : 	OnApply_Title( m_nSubGraphIndex, m_edtCompositionTitleData);

  00056	8d 87 18 10 00
	00		 lea	 eax, DWORD PTR [edi+4120]
  0005c	8b cf		 mov	 ecx, edi
  0005e	50		 push	 eax
  0005f	ff b7 cc 14 00
	00		 push	 DWORD PTR [edi+5324]
  00065	e8 00 00 00 00	 call	 ?OnApply_Title@CBaseDialog@@IAEXHAAVCEdit@@@Z ; CBaseDialog::OnApply_Title

; 1246 : 	OnApply_DrawStyle( m_nSubGraphIndex, m_cmbLineType);

  0006a	8d 87 20 11 00
	00		 lea	 eax, DWORD PTR [edi+4384]
  00070	8b cf		 mov	 ecx, edi
  00072	50		 push	 eax
  00073	ff b7 cc 14 00
	00		 push	 DWORD PTR [edi+5324]
  00079	e8 00 00 00 00	 call	 ?OnApply_DrawStyle@CBaseDialog@@IAEXHAAVCBitmapItemComboBox@@@Z ; CBaseDialog::OnApply_DrawStyle

; 1247 : 	OnApply_Thickness( m_nSubGraphIndex, m_cmbThickness);

  0007e	8d 87 98 10 00
	00		 lea	 eax, DWORD PTR [edi+4248]
  00084	8b cf		 mov	 ecx, edi
  00086	50		 push	 eax
  00087	ff b7 cc 14 00
	00		 push	 DWORD PTR [edi+5324]
  0008d	e8 00 00 00 00	 call	 ?OnApply_Thickness@CBaseDialog@@IAEXHAAVCBitmapItemComboBox@@@Z ; CBaseDialog::OnApply_Thickness
; File C:\Program Files (x86)\Microsoft Visual Studio\2019\Community\VC\Tools\MSVC\14.29.30133\atlmfc\include\afxwin2.inl

; 124  : 	{ ASSERT(::IsWindow(m_hWnd)); return ::IsWindowVisible(m_hWnd); }

  00092	ff b7 98 01 00
	00		 push	 DWORD PTR [edi+408]
  00098	ff 15 00 00 00
	00		 call	 DWORD PTR __imp__IsWindowVisible@4
; File D:\git\src\IBK\IBK_DRFN\ProjSrc\SrcChartEx\ChartAddIn\ChartEnvSetupDlgAddIn\ChartEnvSetupDlgAddIn\Setting_Common_Type_A.cpp

; 1249 : 	if( m_btnFillColor.IsWindowVisible() == TRUE )

  0009e	83 f8 01	 cmp	 eax, 1
  000a1	75 22		 jne	 SHORT $LN4@OnApplySub

; 1250 : 	{
; 1251 : 		OnApply_FillUp( m_nSubGraphIndex, m_btnFillColor );

  000a3	8d b7 78 01 00
	00		 lea	 esi, DWORD PTR [edi+376]
  000a9	8b cf		 mov	 ecx, edi
  000ab	56		 push	 esi
  000ac	ff b7 cc 14 00
	00		 push	 DWORD PTR [edi+5324]
  000b2	e8 00 00 00 00	 call	 ?OnApply_FillUp@CBaseDialog@@IAEXHAAVCButton@@@Z ; CBaseDialog::OnApply_FillUp

; 1252 : 		OnApply_FillDown( m_nSubGraphIndex, m_btnFillColor );

  000b7	56		 push	 esi
  000b8	ff b7 cc 14 00
	00		 push	 DWORD PTR [edi+5324]
  000be	8b cf		 mov	 ecx, edi
  000c0	e8 00 00 00 00	 call	 ?OnApply_FillDown@CBaseDialog@@IAEXHAAVCButton@@@Z ; CBaseDialog::OnApply_FillDown
$LN4@OnApplySub:

; 1255 : 	ILPCSTR szIndicatorName = m_pIGraphInfo->GetIndicatorNameString();

  000c5	8b 8f c4 00 00
	00		 mov	 ecx, DWORD PTR [edi+196]
  000cb	8b 01		 mov	 eax, DWORD PTR [ecx]
  000cd	ff 90 a4 00 00
	00		 call	 DWORD PTR [eax+164]
; File D:\git\src\IBK\IBK_DRFN\ProjSrc\SrcChartEx\ChartAddIn\ChartEnvSetupDlgAddIn\Include_AddIn_135914\I135914\_IString.h

; 39   : 		m_pIStrData = p_pIString;	// Do not AddRef(). Because It must be Return Value.

  000d3	8b d8		 mov	 ebx, eax
  000d5	89 5d c4	 mov	 DWORD PTR _szIndicatorName$[ebp+4], ebx

; 40   : 		if( m_pIStrData) m_szData = m_pIStrData->GetData();

  000d8	85 db		 test	 ebx, ebx
  000da	74 0b		 je	 SHORT $LN21@OnApplySub
  000dc	8b 13		 mov	 edx, DWORD PTR [ebx]
  000de	8b cb		 mov	 ecx, ebx
  000e0	ff 52 10	 call	 DWORD PTR [edx+16]
  000e3	8b c8		 mov	 ecx, eax
  000e5	eb 02		 jmp	 SHORT $LN59@OnApplySub
$LN21@OnApplySub:

; 41   : 		else m_szData = NULL;

  000e7	33 c9		 xor	 ecx, ecx
$LN59@OnApplySub:
; File D:\git\src\IBK\IBK_DRFN\ProjSrc\SrcChartEx\ChartAddIn\ChartEnvSetupDlgAddIn\ChartEnvSetupDlgAddIn\Setting_Common_Type_A.cpp

; 1255 : 	ILPCSTR szIndicatorName = m_pIGraphInfo->GetIndicatorNameString();

  000e9	89 4d c0	 mov	 DWORD PTR _szIndicatorName$[ebp], ecx

; 1256 : // 2008.01.25 by LYH >>
; 1257 : //	if( !strcmp( szIndicatorName, "")) return;
; 1258 : 	if( !strcmp( szIndicatorName, _MTEXT(C2_COMPARISON_CHART))) return;

  000ec	a1 54 00 00 00	 mov	 eax, DWORD PTR ?g_iMetaTable@@3VIMetaTable@@A+84
  000f1	c7 45 fc 00 00
	00 00		 mov	 DWORD PTR __$EHRec$[ebp+8], 0
  000f8	8b 80 88 0c 00
	00		 mov	 eax, DWORD PTR [eax+3208]
  000fe	66 90		 npad	 2
$LL53@OnApplySub:
  00100	8a 11		 mov	 dl, BYTE PTR [ecx]
  00102	3a 10		 cmp	 dl, BYTE PTR [eax]
  00104	75 1a		 jne	 SHORT $LN54@OnApplySub
  00106	84 d2		 test	 dl, dl
  00108	74 12		 je	 SHORT $LN55@OnApplySub
  0010a	8a 51 01	 mov	 dl, BYTE PTR [ecx+1]
  0010d	3a 50 01	 cmp	 dl, BYTE PTR [eax+1]
  00110	75 0e		 jne	 SHORT $LN54@OnApplySub
  00112	83 c1 02	 add	 ecx, 2
  00115	83 c0 02	 add	 eax, 2
  00118	84 d2		 test	 dl, dl
  0011a	75 e4		 jne	 SHORT $LL53@OnApplySub
$LN55@OnApplySub:
  0011c	33 c0		 xor	 eax, eax
  0011e	eb 05		 jmp	 SHORT $LN56@OnApplySub
$LN54@OnApplySub:
  00120	1b c0		 sbb	 eax, eax
  00122	83 c8 01	 or	 eax, 1
$LN56@OnApplySub:
  00125	85 c0		 test	 eax, eax
  00127	0f 84 af 01 00
	00		 je	 $LN37@OnApplySub

; 1259 : // 2008.01.25 by LYH <<
; 1260 : 
; 1261 : 	IDoubleList *pIDblCnd = m_pIGraphInfo->GetCommonCalculateConditionList();

  0012d	8b 8f c4 00 00
	00		 mov	 ecx, DWORD PTR [edi+196]
  00133	8b 01		 mov	 eax, DWORD PTR [ecx]
  00135	ff 50 10	 call	 DWORD PTR [eax+16]
  00138	8b f0		 mov	 esi, eax

; 1262 : 	if( pIDblCnd)

  0013a	85 f6		 test	 esi, esi
  0013c	0f 84 e1 00 00
	00		 je	 $LN6@OnApplySub

; 1263 : 	{
; 1264 : 		CString strData;

  00142	8d 4d d8	 lea	 ecx, DWORD PTR _strData$6[ebp]
  00145	ff 15 00 00 00
	00		 call	 DWORD PTR __imp_??0?$CStringT@DV?$StrTraitMFC_DLL@DV?$ChTraitsCRT@D@ATL@@@@@ATL@@QAE@XZ

; 1265 : 		double dData = 0, dNewData = 0;
; 1266 : 		int i = 0;
; 1267 : 		CNumEdit *pNEdit[ 5] = { &m_edtValue1, &m_edtValue2, &m_edtValue3, &m_edtValue4, &m_edtValue5	};

  0014b	8d 87 f0 0e 00
	00		 lea	 eax, DWORD PTR [edi+3824]
  00151	c6 45 fc 01	 mov	 BYTE PTR __$EHRec$[ebp+8], 1
  00155	89 45 dc	 mov	 DWORD PTR _pNEdit$7[ebp], eax
  00158	0f 57 c0	 xorps	 xmm0, xmm0
  0015b	8d 87 48 0e 00
	00		 lea	 eax, DWORD PTR [edi+3656]
  00161	f2 0f 11 45 c8	 movsd	 QWORD PTR _dData$4[ebp], xmm0
  00166	89 45 e0	 mov	 DWORD PTR _pNEdit$7[ebp+4], eax

; 1268 : 		POSITION psnCnd = pIDblCnd->GetHeadPosition(), psnBack = NULL;

  00169	8b ce		 mov	 ecx, esi
  0016b	8d 87 a0 0d 00
	00		 lea	 eax, DWORD PTR [edi+3488]
  00171	33 db		 xor	 ebx, ebx
  00173	89 45 e4	 mov	 DWORD PTR _pNEdit$7[ebp+8], eax
  00176	8d 87 f8 0c 00
	00		 lea	 eax, DWORD PTR [edi+3320]
  0017c	89 45 e8	 mov	 DWORD PTR _pNEdit$7[ebp+12], eax
  0017f	8d 87 50 0c 00
	00		 lea	 eax, DWORD PTR [edi+3152]
  00185	89 45 ec	 mov	 DWORD PTR _pNEdit$7[ebp+16], eax
  00188	8b 06		 mov	 eax, DWORD PTR [esi]
  0018a	ff 50 34	 call	 DWORD PTR [eax+52]
  0018d	89 45 d0	 mov	 DWORD PTR _psnBack$1$[ebp], eax
  00190	89 45 d4	 mov	 DWORD PTR _psnCnd$5[ebp], eax

; 1269 : 		while( psnCnd && i < 5)

  00193	85 c0		 test	 eax, eax
  00195	74 76		 je	 SHORT $LN57@OnApplySub
$LL2@OnApplySub:
  00197	83 fb 05	 cmp	 ebx, 5
  0019a	7d 71		 jge	 SHORT $LN57@OnApplySub

; 1270 : 		{
; 1271 : 			psnBack = psnCnd;
; 1272 : 			pIDblCnd->GetNext( psnCnd, dData);

  0019c	8b 06		 mov	 eax, DWORD PTR [esi]
  0019e	8d 4d c8	 lea	 ecx, DWORD PTR _dData$4[ebp]
  001a1	51		 push	 ecx
  001a2	8d 4d d4	 lea	 ecx, DWORD PTR _psnCnd$5[ebp]
  001a5	51		 push	 ecx
  001a6	8b ce		 mov	 ecx, esi
  001a8	ff 50 3c	 call	 DWORD PTR [eax+60]

; 1273 : 
; 1274 : 			pNEdit[ i]->GetWindowText( strData);

  001ab	8b 4c 9d dc	 mov	 ecx, DWORD PTR _pNEdit$7[ebp+ebx*4]
  001af	8d 45 d8	 lea	 eax, DWORD PTR _strData$6[ebp]
  001b2	50		 push	 eax
  001b3	e8 00 00 00 00	 call	 ?GetWindowTextA@CWnd@@QBEXAAV?$CStringT@DV?$StrTraitMFC_DLL@DV?$ChTraitsCRT@D@ATL@@@@@ATL@@@Z ; CWnd::GetWindowTextA

; 1275 : 			i++;
; 1276 : 
; 1277 : 			dNewData = atof( strData);

  001b8	ff 75 d8	 push	 DWORD PTR _strData$6[ebp]
  001bb	43		 inc	 ebx
  001bc	ff 15 00 00 00
	00		 call	 DWORD PTR __imp__atof
  001c2	dd 5d b8	 fstp	 QWORD PTR _dNewData$2[ebp]

; 1278 : 			if(!CBaseDialog::m_bDoCalculate) CBaseDialog::m_bDoCalculate = ( dData != dNewData);

  001c5	f2 0f 10 4d b8	 movsd	 xmm1, QWORD PTR _dNewData$2[ebp]
  001ca	83 c4 04	 add	 esp, 4
  001cd	80 bf c9 00 00
	00 00		 cmp	 BYTE PTR [edi+201], 0
  001d4	75 1b		 jne	 SHORT $LN51@OnApplySub
  001d6	f2 0f 10 45 c8	 movsd	 xmm0, QWORD PTR _dData$4[ebp]
  001db	66 0f 2e c1	 ucomisd xmm0, xmm1
  001df	9f		 lahf
  001e0	f6 c4 44	 test	 ah, 68			; 00000044H
  001e3	7b 04		 jnp	 SHORT $LN12@OnApplySub
  001e5	b0 01		 mov	 al, 1
  001e7	eb 02		 jmp	 SHORT $LN13@OnApplySub
$LN12@OnApplySub:
  001e9	32 c0		 xor	 al, al
$LN13@OnApplySub:
  001eb	88 87 c9 00 00
	00		 mov	 BYTE PTR [edi+201], al
$LN51@OnApplySub:

; 1279 : 			pIDblCnd->SetAt( psnBack, dNewData);

  001f1	8b 06		 mov	 eax, DWORD PTR [esi]
  001f3	83 ec 08	 sub	 esp, 8
  001f6	8b ce		 mov	 ecx, esi
  001f8	f2 0f 11 0c 24	 movsd	 QWORD PTR [esp], xmm1
  001fd	ff 75 d0	 push	 DWORD PTR _psnBack$1$[ebp]
  00200	ff 50 48	 call	 DWORD PTR [eax+72]
  00203	8b 45 d4	 mov	 eax, DWORD PTR _psnCnd$5[ebp]
  00206	89 45 d0	 mov	 DWORD PTR _psnBack$1$[ebp], eax
  00209	85 c0		 test	 eax, eax
  0020b	75 8a		 jne	 SHORT $LL2@OnApplySub
$LN57@OnApplySub:

; 1280 : 		}
; 1281 : 
; 1282 : 		pIDblCnd->Release();

  0020d	8b 06		 mov	 eax, DWORD PTR [esi]
  0020f	56		 push	 esi
  00210	ff 50 08	 call	 DWORD PTR [eax+8]

; 1283 : 	}

  00213	8d 4d d8	 lea	 ecx, DWORD PTR _strData$6[ebp]
  00216	c6 45 fc 00	 mov	 BYTE PTR __$EHRec$[ebp+8], 0
  0021a	ff 15 00 00 00
	00		 call	 DWORD PTR __imp_??1?$CStringT@DV?$StrTraitMFC_DLL@DV?$ChTraitsCRT@D@ATL@@@@@ATL@@QAE@XZ
  00220	8b 5d c4	 mov	 ebx, DWORD PTR _szIndicatorName$[ebp+4]
$LN6@OnApplySub:

; 1284 : 
; 1285 : 	if( !m_bUseMultiplePriceData)

  00223	80 bf c8 00 00
	00 00		 cmp	 BYTE PTR [edi+200], 0
  0022a	75 69		 jne	 SHORT $LN35@OnApplySub

; 1287 : 		ILPCSTR szSubPacketName = m_pIGraphInfo->GetSubGraphPacketNameString( 0);

  0022c	8b 8f c4 00 00
	00		 mov	 ecx, DWORD PTR [edi+196]
  00232	6a 00		 push	 0
  00234	8b 01		 mov	 eax, DWORD PTR [ecx]
  00236	ff 50 40	 call	 DWORD PTR [eax+64]
; File D:\git\src\IBK\IBK_DRFN\ProjSrc\SrcChartEx\ChartAddIn\ChartEnvSetupDlgAddIn\Include_AddIn_135914\I135914\_IString.h

; 39   : 		m_pIStrData = p_pIString;	// Do not AddRef(). Because It must be Return Value.

  00239	8b f0		 mov	 esi, eax
  0023b	89 75 cc	 mov	 DWORD PTR _szSubPacketName$3[ebp+4], esi

; 40   : 		if( m_pIStrData) m_szData = m_pIStrData->GetData();

  0023e	85 f6		 test	 esi, esi
  00240	74 09		 je	 SHORT $LN27@OnApplySub
  00242	8b 16		 mov	 edx, DWORD PTR [esi]
  00244	8b ce		 mov	 ecx, esi
  00246	ff 52 10	 call	 DWORD PTR [edx+16]
  00249	eb 02		 jmp	 SHORT $LN60@OnApplySub
$LN27@OnApplySub:

; 41   : 		else m_szData = NULL;

  0024b	33 c0		 xor	 eax, eax
$LN60@OnApplySub:
; File D:\git\src\IBK\IBK_DRFN\ProjSrc\SrcChartEx\ChartAddIn\ChartEnvSetupDlgAddIn\ChartEnvSetupDlgAddIn\Setting_Common_Type_A.cpp

; 1287 : 		ILPCSTR szSubPacketName = m_pIGraphInfo->GetSubGraphPacketNameString( 0);

  0024d	89 45 c8	 mov	 DWORD PTR _szSubPacketName$3[ebp], eax
; File D:\git\src\IBK\IBK_DRFN\ProjSrc\SrcChartEx\ChartAddIn\ChartEnvSetupDlgAddIn\Include_AddIn_135914\I135914\_IString.h

; 57   : 		if( !m_szData) return TRUE;

  00250	8b 97 c4 00 00
	00		 mov	 edx, DWORD PTR [edi+196]
  00256	8d 8f 28 12 00
	00		 lea	 ecx, DWORD PTR [edi+4648]
; File D:\git\src\IBK\IBK_DRFN\ProjSrc\SrcChartEx\ChartAddIn\ChartEnvSetupDlgAddIn\ChartEnvSetupDlgAddIn\Setting_Common_Type_A.cpp

; 1287 : 		ILPCSTR szSubPacketName = m_pIGraphInfo->GetSubGraphPacketNameString( 0);

  0025c	c6 45 fc 02	 mov	 BYTE PTR __$EHRec$[ebp+8], 2
; File D:\git\src\IBK\IBK_DRFN\ProjSrc\SrcChartEx\ChartAddIn\ChartEnvSetupDlgAddIn\Include_AddIn_135914\I135914\_IString.h

; 57   : 		if( !m_szData) return TRUE;

  00260	85 c0		 test	 eax, eax
  00262	74 05		 je	 SHORT $LN52@OnApplySub
; File D:\git\src\IBK\IBK_DRFN\ProjSrc\SrcChartEx\ChartAddIn\ChartEnvSetupDlgAddIn\ChartEnvSetupDlgAddIn\Setting_Common_Type_A.cpp

; 1288 : 		if( szSubPacketName.IsEmpty()) OnApply_PacketData( m_cmbData, m_pIGraphInfo );

  00264	80 38 00	 cmp	 BYTE PTR [eax], 0
  00267	75 0b		 jne	 SHORT $LN9@OnApplySub
$LN52@OnApplySub:
  00269	52		 push	 edx
  0026a	51		 push	 ecx
  0026b	8b cf		 mov	 ecx, edi
  0026d	e8 00 00 00 00	 call	 ?OnApply_PacketData@CBaseDialog@@IAEXAAVCComboBox@@PAUIGraphInfo135914@@@Z ; CBaseDialog::OnApply_PacketData
  00272	eb 0f		 jmp	 SHORT $LN10@OnApplySub
$LN9@OnApplySub:

; 1289 : 		else  OnApply_SubPacketData(m_cmbData, m_pIGraphInfo, m_nSubGraphIndex);

  00274	ff b7 cc 14 00
	00		 push	 DWORD PTR [edi+5324]
  0027a	52		 push	 edx
  0027b	51		 push	 ecx
  0027c	8b cf		 mov	 ecx, edi
  0027e	e8 00 00 00 00	 call	 ?OnApply_SubPacketData@CBaseDialog@@IAEXAAVCComboBox@@PAUIGraphInfo135914@@H@Z ; CBaseDialog::OnApply_SubPacketData
$LN10@OnApplySub:
; File D:\git\src\IBK\IBK_DRFN\ProjSrc\SrcChartEx\ChartAddIn\ChartEnvSetupDlgAddIn\Include_AddIn_135914\I135914\_IString.h

; 44   : 	{

  00283	c6 45 fc 03	 mov	 BYTE PTR __$EHRec$[ebp+8], 3

; 45   : 		if( m_pIStrData)

  00287	85 f6		 test	 esi, esi
  00289	74 06		 je	 SHORT $LN34@OnApplySub

; 46   : 		{
; 47   : 			m_pIStrData->Release();

  0028b	8b 06		 mov	 eax, DWORD PTR [esi]
  0028d	56		 push	 esi
  0028e	ff 50 08	 call	 DWORD PTR [eax+8]
$LN34@OnApplySub:

; 48   : 			m_pIStrData = NULL;
; 49   : 			m_szData = NULL;
; 50   : 		}
; 51   : 	}

  00291	c6 45 fc 00	 mov	 BYTE PTR __$EHRec$[ebp+8], 0
$LN35@OnApplySub:
; File D:\git\src\IBK\IBK_DRFN\ProjSrc\SrcChartEx\ChartAddIn\ChartEnvSetupDlgAddIn\ChartEnvSetupDlgAddIn\Setting_Common_Type_A.cpp

; 1293 : 	OnApplyBaseLine();

  00295	8b cf		 mov	 ecx, edi
  00297	e8 00 00 00 00	 call	 ?OnApplyBaseLine@CSetting_Common_Type_A@@AAEXXZ ; CSetting_Common_Type_A::OnApplyBaseLine

; 491  : 	if( m_pIGraphInfo->GetSubGraphType( m_nSubGraphIndex) != CGraphBaseData::Bar_Type) return;

  0029c	8b 8f c4 00 00
	00		 mov	 ecx, DWORD PTR [edi+196]
  002a2	ff b7 cc 14 00
	00		 push	 DWORD PTR [edi+5324]
  002a8	8b 01		 mov	 eax, DWORD PTR [ecx]
  002aa	ff 50 50	 call	 DWORD PTR [eax+80]
  002ad	83 f8 02	 cmp	 eax, 2
  002b0	75 2a		 jne	 SHORT $LN37@OnApplySub
; File C:\Program Files (x86)\Microsoft Visual Studio\2019\Community\VC\Tools\MSVC\14.29.30133\atlmfc\include\afxwin2.inl

; 765  : 	{ ASSERT(::IsWindow(m_hWnd)); return (int)::SendMessage(m_hWnd, CB_GETCURSEL, 0, 0); }

  002b2	6a 00		 push	 0
  002b4	6a 00		 push	 0
  002b6	68 47 01 00 00	 push	 327			; 00000147H
  002bb	ff b7 18 01 00
	00		 push	 DWORD PTR [edi+280]
  002c1	ff 15 00 00 00
	00		 call	 DWORD PTR __imp__SendMessageA@16
; File D:\git\src\IBK\IBK_DRFN\ProjSrc\SrcChartEx\ChartAddIn\ChartEnvSetupDlgAddIn\ChartEnvSetupDlgAddIn\Setting_Common_Type_A.cpp

; 494  : 	m_pIGraphInfo->SetSubGraphPaintStyle(m_nSubGraphIndex, nPaintStyle);

  002c7	8b 8f c4 00 00
	00		 mov	 ecx, DWORD PTR [edi+196]
  002cd	50		 push	 eax
  002ce	ff b7 cc 14 00
	00		 push	 DWORD PTR [edi+5324]
  002d4	8b 11		 mov	 edx, DWORD PTR [ecx]
  002d6	ff 92 cc 00 00
	00		 call	 DWORD PTR [edx+204]
$LN37@OnApplySub:
; File D:\git\src\IBK\IBK_DRFN\ProjSrc\SrcChartEx\ChartAddIn\ChartEnvSetupDlgAddIn\Include_AddIn_135914\I135914\_IString.h

; 44   : 	{

  002dc	c7 45 fc 04 00
	00 00		 mov	 DWORD PTR __$EHRec$[ebp+8], 4

; 45   : 		if( m_pIStrData)

  002e3	85 db		 test	 ebx, ebx
  002e5	74 06		 je	 SHORT $LN43@OnApplySub

; 46   : 		{
; 47   : 			m_pIStrData->Release();

  002e7	8b 03		 mov	 eax, DWORD PTR [ebx]
  002e9	53		 push	 ebx
  002ea	ff 50 08	 call	 DWORD PTR [eax+8]
$LN43@OnApplySub:
; File D:\git\src\IBK\IBK_DRFN\ProjSrc\SrcChartEx\ChartAddIn\ChartEnvSetupDlgAddIn\ChartEnvSetupDlgAddIn\Setting_Common_Type_A.cpp

; 1297 : }

  002ed	8b 4d f4	 mov	 ecx, DWORD PTR __$EHRec$[ebp]
  002f0	64 89 0d 00 00
	00 00		 mov	 DWORD PTR fs:0, ecx
  002f7	59		 pop	 ecx
  002f8	5f		 pop	 edi
  002f9	5e		 pop	 esi
  002fa	5b		 pop	 ebx
  002fb	8b 4d f0	 mov	 ecx, DWORD PTR __$ArrayPad$[ebp]
  002fe	33 cd		 xor	 ecx, ebp
  00300	e8 00 00 00 00	 call	 @__security_check_cookie@4
  00305	8b e5		 mov	 esp, ebp
  00307	5d		 pop	 ebp
  00308	c3		 ret	 0
_TEXT	ENDS
;	COMDAT text$x
text$x	SEGMENT
__unwindfunclet$?OnApplySubGraphData@CSetting_Common_Type_A@@AAEXXZ$0:
  00000	8d 4d c0	 lea	 ecx, DWORD PTR _szIndicatorName$[ebp]
  00003	e9 00 00 00 00	 jmp	 ??1ILPCSTR135914@@QAE@XZ ; ILPCSTR135914::~ILPCSTR135914
__unwindfunclet$?OnApplySubGraphData@CSetting_Common_Type_A@@AAEXXZ$1:
  00008	8d 4d d8	 lea	 ecx, DWORD PTR _strData$6[ebp]
  0000b	ff 25 00 00 00
	00		 jmp	 DWORD PTR __imp_??1?$CStringT@DV?$StrTraitMFC_DLL@DV?$ChTraitsCRT@D@ATL@@@@@ATL@@QAE@XZ
__unwindfunclet$?OnApplySubGraphData@CSetting_Common_Type_A@@AAEXXZ$2:
  00011	8d 4d c8	 lea	 ecx, DWORD PTR _szSubPacketName$3[ebp]
  00014	e9 00 00 00 00	 jmp	 ??1ILPCSTR135914@@QAE@XZ ; ILPCSTR135914::~ILPCSTR135914
  00019	cc		 int	 3
  0001a	cc		 int	 3
  0001b	cc		 int	 3
  0001c	cc		 int	 3
  0001d	cc		 int	 3
__ehhandler$?OnApplySubGraphData@CSetting_Common_Type_A@@AAEXXZ:
  0001e	90		 npad	 1
  0001f	90		 npad	 1
  00020	8b 54 24 08	 mov	 edx, DWORD PTR [esp+8]
  00024	8d 42 0c	 lea	 eax, DWORD PTR [edx+12]
  00027	8b 4a b4	 mov	 ecx, DWORD PTR [edx-76]
  0002a	33 c8		 xor	 ecx, eax
  0002c	e8 00 00 00 00	 call	 @__security_check_cookie@4
  00031	8b 4a fc	 mov	 ecx, DWORD PTR [edx-4]
  00034	33 c8		 xor	 ecx, eax
  00036	e8 00 00 00 00	 call	 @__security_check_cookie@4
  0003b	b8 00 00 00 00	 mov	 eax, OFFSET __ehfuncinfo$?OnApplySubGraphData@CSetting_Common_Type_A@@AAEXXZ
  00040	e9 00 00 00 00	 jmp	 ___CxxFrameHandler3
text$x	ENDS
?OnApplySubGraphData@CSetting_Common_Type_A@@AAEXXZ ENDP ; CSetting_Common_Type_A::OnApplySubGraphData
; Function compile flags: /Ogtp
; File D:\git\src\IBK\IBK_DRFN\ProjSrc\SrcChartEx\ChartAddIn\ChartEnvSetupDlgAddIn\ChartEnvSetupDlgAddIn\Setting_Common_Type_A.cpp
; File C:\Program Files (x86)\Microsoft Visual Studio\2019\Community\VC\Tools\MSVC\14.29.30133\atlmfc\include\afxwin2.inl
; File D:\git\src\IBK\IBK_DRFN\ProjSrc\SrcChartEx\ChartAddIn\ChartEnvSetupDlgAddIn\ChartEnvSetupDlgAddIn\Setting_Common_Type_A.cpp
; File C:\Program Files (x86)\Microsoft Visual Studio\2019\Community\VC\Tools\MSVC\14.29.30133\atlmfc\include\afxwin2.inl
; File D:\git\src\IBK\IBK_DRFN\ProjSrc\SrcChartEx\ChartAddIn\ChartEnvSetupDlgAddIn\ChartEnvSetupDlgAddIn\Setting_Common_Type_A.cpp
;	COMDAT ?Initial_SubGraphData@CSetting_Common_Type_A@@AAEXH@Z
_TEXT	SEGMENT
_nIndex$ = 8						; size = 4
?Initial_SubGraphData@CSetting_Common_Type_A@@AAEXH@Z PROC ; CSetting_Common_Type_A::Initial_SubGraphData, COMDAT
; _this$ = ecx

; 1307 : {

  00000	55		 push	 ebp
  00001	8b ec		 mov	 ebp, esp
  00003	56		 push	 esi
  00004	8b f1		 mov	 esi, ecx

; 1308 : 	if( m_pIGraphInfo == NULL ) return;

  00006	8b 8e c4 00 00
	00		 mov	 ecx, DWORD PTR [esi+196]
  0000c	85 c9		 test	 ecx, ecx
  0000e	0f 84 b0 00 00
	00		 je	 $LN1@Initial_Su

; 1309 : 
; 1310 : 	int nOldSubGraphIndex = m_nSubGraphIndex;
; 1311 : 	if( nIndex > m_pIGraphInfo->GetSubGraphCount() - 1 ) m_nSubGraphIndex = m_pIGraphInfo->GetSubGraphCount() - 1;

  00014	8b 01		 mov	 eax, DWORD PTR [ecx]
  00016	57		 push	 edi
  00017	8b be cc 14 00
	00		 mov	 edi, DWORD PTR [esi+5324]
  0001d	ff 50 2c	 call	 DWORD PTR [eax+44]
  00020	8b 4d 08	 mov	 ecx, DWORD PTR _nIndex$[ebp]
  00023	48		 dec	 eax
  00024	3b c8		 cmp	 ecx, eax
  00026	7e 10		 jle	 SHORT $LN3@Initial_Su
  00028	8b 8e c4 00 00
	00		 mov	 ecx, DWORD PTR [esi+196]
  0002e	8b 01		 mov	 eax, DWORD PTR [ecx]
  00030	ff 50 2c	 call	 DWORD PTR [eax+44]
  00033	8d 48 ff	 lea	 ecx, DWORD PTR [eax-1]
  00036	eb 07		 jmp	 SHORT $LN4@Initial_Su
$LN3@Initial_Su:

; 1312 : 	else m_nSubGraphIndex = ( nIndex < 0 ? 0 : nIndex);

  00038	33 c0		 xor	 eax, eax
  0003a	85 c9		 test	 ecx, ecx
  0003c	0f 48 c8	 cmovs	 ecx, eax
$LN4@Initial_Su:

; 1313 : 
; 1314 : 	if( 0 <= nOldSubGraphIndex && nOldSubGraphIndex == m_nSubGraphIndex) return ;

  0003f	89 8e cc 14 00
	00		 mov	 DWORD PTR [esi+5324], ecx
  00045	85 ff		 test	 edi, edi
  00047	78 04		 js	 SHORT $LN5@Initial_Su
  00049	3b f9		 cmp	 edi, ecx
  0004b	74 76		 je	 SHORT $LN9@Initial_Su
$LN5@Initial_Su:

; 1315 : 	
; 1316 : 	Initial_Title( m_nSubGraphIndex, m_edtCompositionTitleData);

  0004d	8d 86 18 10 00
	00		 lea	 eax, DWORD PTR [esi+4120]
  00053	50		 push	 eax
  00054	51		 push	 ecx
  00055	8b ce		 mov	 ecx, esi
  00057	e8 00 00 00 00	 call	 ?Initial_Title@CBaseDialog@@IAEXHAAVCEdit@@@Z ; CBaseDialog::Initial_Title

; 1317 : 	Initial_DrawStyleComboBox(m_nSubGraphIndex, m_cmbLineType);

  0005c	8d 86 20 11 00
	00		 lea	 eax, DWORD PTR [esi+4384]
  00062	8b ce		 mov	 ecx, esi
  00064	50		 push	 eax
  00065	ff b6 cc 14 00
	00		 push	 DWORD PTR [esi+5324]
  0006b	e8 00 00 00 00	 call	 ?Initial_DrawStyleComboBox@CBaseDialog@@IAEXHAAVCBitmapItemComboBox@@@Z ; CBaseDialog::Initial_DrawStyleComboBox

; 1318 : 	SetStatePacketCombo( m_pIGraphInfo, m_cmbData, m_stcDataTitle);

  00070	8d 86 98 0f 00
	00		 lea	 eax, DWORD PTR [esi+3992]
  00076	8b ce		 mov	 ecx, esi
  00078	50		 push	 eax
  00079	8d 86 28 12 00
	00		 lea	 eax, DWORD PTR [esi+4648]
  0007f	50		 push	 eax
  00080	ff b6 c4 00 00
	00		 push	 DWORD PTR [esi+196]
  00086	e8 00 00 00 00	 call	 ?SetStatePacketCombo@CBaseDialog@@IAEHPAUIGraphInfo135914@@AAVCComboBox@@AAVCStatic@@@Z ; CBaseDialog::SetStatePacketCombo

; 1319 : 	m_cmbThickness.SetCurSel( m_pIGraphInfo->GetSubGraphPenThickness( m_nSubGraphIndex, 1) - 1);

  0008b	8b 8e c4 00 00
	00		 mov	 ecx, DWORD PTR [esi+196]
  00091	6a 01		 push	 1
  00093	ff b6 cc 14 00
	00		 push	 DWORD PTR [esi+5324]
  00099	8b 01		 mov	 eax, DWORD PTR [ecx]
  0009b	ff 90 80 00 00
	00		 call	 DWORD PTR [eax+128]
; File C:\Program Files (x86)\Microsoft Visual Studio\2019\Community\VC\Tools\MSVC\14.29.30133\atlmfc\include\afxwin2.inl

; 767  : 	{ ASSERT(::IsWindow(m_hWnd)); return (int)::SendMessage(m_hWnd, CB_SETCURSEL, nSelect, 0); }

  000a1	6a 00		 push	 0
; File D:\git\src\IBK\IBK_DRFN\ProjSrc\SrcChartEx\ChartAddIn\ChartEnvSetupDlgAddIn\ChartEnvSetupDlgAddIn\Setting_Common_Type_A.cpp

; 1319 : 	m_cmbThickness.SetCurSel( m_pIGraphInfo->GetSubGraphPenThickness( m_nSubGraphIndex, 1) - 1);

  000a3	48		 dec	 eax
; File C:\Program Files (x86)\Microsoft Visual Studio\2019\Community\VC\Tools\MSVC\14.29.30133\atlmfc\include\afxwin2.inl

; 767  : 	{ ASSERT(::IsWindow(m_hWnd)); return (int)::SendMessage(m_hWnd, CB_SETCURSEL, nSelect, 0); }

  000a4	50		 push	 eax
  000a5	68 4e 01 00 00	 push	 334			; 0000014eH
  000aa	ff b6 b8 10 00
	00		 push	 DWORD PTR [esi+4280]
  000b0	ff 15 00 00 00
	00		 call	 DWORD PTR __imp__SendMessageA@16
; File D:\git\src\IBK\IBK_DRFN\ProjSrc\SrcChartEx\ChartAddIn\ChartEnvSetupDlgAddIn\ChartEnvSetupDlgAddIn\Setting_Common_Type_A.cpp

; 1322 : 	Init_Composition_Group_SubGraphColor(m_nSubGraphIndex);

  000b6	ff b6 cc 14 00
	00		 push	 DWORD PTR [esi+5324]
  000bc	8b ce		 mov	 ecx, esi
  000be	e8 00 00 00 00	 call	 ?Init_Composition_Group_SubGraphColor@CSetting_Common_Type_A@@AAEXH@Z ; CSetting_Common_Type_A::Init_Composition_Group_SubGraphColor
$LN9@Initial_Su:
  000c3	5f		 pop	 edi
$LN1@Initial_Su:
  000c4	5e		 pop	 esi

; 1323 : }

  000c5	5d		 pop	 ebp
  000c6	c2 04 00	 ret	 4
?Initial_SubGraphData@CSetting_Common_Type_A@@AAEXH@Z ENDP ; CSetting_Common_Type_A::Initial_SubGraphData
_TEXT	ENDS
; Function compile flags: /Ogtp
; File D:\git\src\IBK\IBK_DRFN\ProjSrc\SrcChartEx\ChartAddIn\ChartEnvSetupDlgAddIn\ChartEnvSetupDlgAddIn\Setting_Common_Type_A.cpp
; File C:\Program Files (x86)\Microsoft Visual Studio\2019\Community\VC\Tools\MSVC\14.29.30133\atlmfc\include\afxwin2.inl
; File D:\git\src\IBK\IBK_DRFN\ProjSrc\SrcChartEx\ChartAddIn\ChartEnvSetupDlgAddIn\ChartEnvSetupDlgAddIn\Setting_Common_Type_A.cpp
; File C:\Program Files (x86)\Microsoft Visual Studio\2019\Community\VC\Tools\MSVC\14.29.30133\atlmfc\include\afxwin2.inl
; File D:\git\src\IBK\IBK_DRFN\ProjSrc\SrcChartEx\ChartAddIn\ChartEnvSetupDlgAddIn\ChartEnvSetupDlgAddIn\Setting_Common_Type_A.cpp
; File C:\Program Files (x86)\Microsoft Visual Studio\2019\Community\VC\Tools\MSVC\14.29.30133\atlmfc\include\afxwin2.inl
; File D:\git\src\IBK\IBK_DRFN\ProjSrc\SrcChartEx\ChartAddIn\ChartEnvSetupDlgAddIn\ChartEnvSetupDlgAddIn\Setting_Common_Type_A.cpp
; File C:\Program Files (x86)\Microsoft Visual Studio\2019\Community\VC\Tools\MSVC\14.29.30133\atlmfc\include\afxwin2.inl
; File D:\git\src\IBK\IBK_DRFN\ProjSrc\SrcChartEx\ChartAddIn\ChartEnvSetupDlgAddIn\ChartEnvSetupDlgAddIn\Setting_Common_Type_A.cpp
;	COMDAT ?Init_Composition_Group_BaseLine@CSetting_Common_Type_A@@AAEXH@Z
_TEXT	SEGMENT
_nSubGraphIndex$ = 8					; size = 4
?Init_Composition_Group_BaseLine@CSetting_Common_Type_A@@AAEXH@Z PROC ; CSetting_Common_Type_A::Init_Composition_Group_BaseLine, COMDAT
; _this$ = ecx

; 868  : {

  00000	55		 push	 ebp
  00001	8b ec		 mov	 ebp, esp
  00003	56		 push	 esi
  00004	57		 push	 edi

; 869  : 	if(nSubGraphIndex < 0) return;

  00005	8b 7d 08	 mov	 edi, DWORD PTR _nSubGraphIndex$[ebp]
  00008	8b f1		 mov	 esi, ecx
  0000a	85 ff		 test	 edi, edi
  0000c	0f 88 9c 00 00
	00		 js	 $LN6@Init_Compo
; File C:\Program Files (x86)\Microsoft Visual Studio\2019\Community\VC\Tools\MSVC\14.29.30133\atlmfc\include\afxwin2.inl

; 763  : 	{ ASSERT(::IsWindow(m_hWnd)); return (int)::SendMessage(m_hWnd, CB_GETCOUNT, 0, 0); }

  00012	53		 push	 ebx
  00013	8b 1d 00 00 00
	00		 mov	 ebx, DWORD PTR __imp__SendMessageA@16
  00019	6a 00		 push	 0
  0001b	6a 00		 push	 0
  0001d	68 46 01 00 00	 push	 326			; 00000146H
  00022	ff b6 d8 13 00
	00		 push	 DWORD PTR [esi+5080]
  00028	ff d3		 call	 ebx
; File D:\git\src\IBK\IBK_DRFN\ProjSrc\SrcChartEx\ChartAddIn\ChartEnvSetupDlgAddIn\ChartEnvSetupDlgAddIn\Setting_Common_Type_A.cpp

; 872  : 	if( m_cmbThickness2.GetCount() == 0 )

  0002a	85 c0		 test	 eax, eax
  0002c	75 13		 jne	 SHORT $LN3@Init_Compo

; 873  : 		Initial_BaseLineThicknessComboBox( nSubGraphIndex, 0, m_cmbThickness2 );

  0002e	8d 86 b8 13 00
	00		 lea	 eax, DWORD PTR [esi+5048]
  00034	8b ce		 mov	 ecx, esi
  00036	50		 push	 eax
  00037	6a 00		 push	 0
  00039	57		 push	 edi
  0003a	e8 00 00 00 00	 call	 ?Initial_BaseLineThicknessComboBox@CBaseDialog@@IAEXHHAAVCBitmapItemComboBox@@@Z ; CBaseDialog::Initial_BaseLineThicknessComboBox
  0003f	eb 22		 jmp	 SHORT $LN4@Init_Compo
$LN3@Init_Compo:

; 875  : 		m_cmbThickness2.SetCurSel( m_pIGraphInfo->GetBaseLinePenThickness( nSubGraphIndex, 1) - 1);

  00041	8b 8e c4 00 00
	00		 mov	 ecx, DWORD PTR [esi+196]
  00047	6a 01		 push	 1
  00049	57		 push	 edi
  0004a	8b 01		 mov	 eax, DWORD PTR [ecx]
  0004c	ff 90 88 00 00
	00		 call	 DWORD PTR [eax+136]
; File C:\Program Files (x86)\Microsoft Visual Studio\2019\Community\VC\Tools\MSVC\14.29.30133\atlmfc\include\afxwin2.inl

; 767  : 	{ ASSERT(::IsWindow(m_hWnd)); return (int)::SendMessage(m_hWnd, CB_SETCURSEL, nSelect, 0); }

  00052	6a 00		 push	 0
; File D:\git\src\IBK\IBK_DRFN\ProjSrc\SrcChartEx\ChartAddIn\ChartEnvSetupDlgAddIn\ChartEnvSetupDlgAddIn\Setting_Common_Type_A.cpp

; 875  : 		m_cmbThickness2.SetCurSel( m_pIGraphInfo->GetBaseLinePenThickness( nSubGraphIndex, 1) - 1);

  00054	48		 dec	 eax
; File C:\Program Files (x86)\Microsoft Visual Studio\2019\Community\VC\Tools\MSVC\14.29.30133\atlmfc\include\afxwin2.inl

; 767  : 	{ ASSERT(::IsWindow(m_hWnd)); return (int)::SendMessage(m_hWnd, CB_SETCURSEL, nSelect, 0); }

  00055	50		 push	 eax
  00056	68 4e 01 00 00	 push	 334			; 0000014eH
  0005b	ff b6 d8 13 00
	00		 push	 DWORD PTR [esi+5080]
  00061	ff d3		 call	 ebx
$LN4@Init_Compo:

; 763  : 	{ ASSERT(::IsWindow(m_hWnd)); return (int)::SendMessage(m_hWnd, CB_GETCOUNT, 0, 0); }

  00063	6a 00		 push	 0
  00065	6a 00		 push	 0
  00067	68 46 01 00 00	 push	 326			; 00000146H
  0006c	ff b6 60 14 00
	00		 push	 DWORD PTR [esi+5216]
  00072	ff d3		 call	 ebx
; File D:\git\src\IBK\IBK_DRFN\ProjSrc\SrcChartEx\ChartAddIn\ChartEnvSetupDlgAddIn\ChartEnvSetupDlgAddIn\Setting_Common_Type_A.cpp

; 878  : 	if( m_cmbLineType2.GetCount() == 0 )

  00074	85 c0		 test	 eax, eax
  00076	75 16		 jne	 SHORT $LN5@Init_Compo

; 879  : 		Initial_DrawBaseLineStyleComboBox( nSubGraphIndex, m_cmbLineType2 );

  00078	8d 86 40 14 00
	00		 lea	 eax, DWORD PTR [esi+5184]
  0007e	8b ce		 mov	 ecx, esi
  00080	50		 push	 eax
  00081	57		 push	 edi
  00082	e8 00 00 00 00	 call	 ?Initial_DrawBaseLineStyleComboBox@CBaseDialog@@IAEXHAAVCBitmapItemComboBox@@@Z ; CBaseDialog::Initial_DrawBaseLineStyleComboBox
  00087	5b		 pop	 ebx
  00088	5f		 pop	 edi

; 882  : }

  00089	5e		 pop	 esi
  0008a	5d		 pop	 ebp
  0008b	c2 04 00	 ret	 4
$LN5@Init_Compo:

; 880  : 	else
; 881  : 		m_cmbLineType2.SetCurSel( m_pIGraphInfo->GetSubGraphDrawBaseLineStyle( nSubGraphIndex));

  0008e	8b 8e c4 00 00
	00		 mov	 ecx, DWORD PTR [esi+196]
  00094	57		 push	 edi
  00095	8b 01		 mov	 eax, DWORD PTR [ecx]
  00097	ff 90 90 00 00
	00		 call	 DWORD PTR [eax+144]
; File C:\Program Files (x86)\Microsoft Visual Studio\2019\Community\VC\Tools\MSVC\14.29.30133\atlmfc\include\afxwin2.inl

; 767  : 	{ ASSERT(::IsWindow(m_hWnd)); return (int)::SendMessage(m_hWnd, CB_SETCURSEL, nSelect, 0); }

  0009d	6a 00		 push	 0
  0009f	50		 push	 eax
  000a0	68 4e 01 00 00	 push	 334			; 0000014eH
  000a5	ff b6 60 14 00
	00		 push	 DWORD PTR [esi+5216]
  000ab	ff d3		 call	 ebx
  000ad	5b		 pop	 ebx
$LN6@Init_Compo:
  000ae	5f		 pop	 edi
; File D:\git\src\IBK\IBK_DRFN\ProjSrc\SrcChartEx\ChartAddIn\ChartEnvSetupDlgAddIn\ChartEnvSetupDlgAddIn\Setting_Common_Type_A.cpp

; 882  : }

  000af	5e		 pop	 esi
  000b0	5d		 pop	 ebp
  000b1	c2 04 00	 ret	 4
?Init_Composition_Group_BaseLine@CSetting_Common_Type_A@@AAEXH@Z ENDP ; CSetting_Common_Type_A::Init_Composition_Group_BaseLine
_TEXT	ENDS
; Function compile flags: /Ogtp
; File D:\git\src\IBK\IBK_DRFN\ProjSrc\SrcChartEx\ChartAddIn\ChartEnvSetupDlgAddIn\ChartEnvSetupDlgAddIn\Setting_Common_Type_A.cpp
; File C:\Program Files (x86)\Microsoft Visual Studio\2019\Community\VC\Tools\MSVC\14.29.30133\atlmfc\include\afxwin2.inl
; File D:\git\src\IBK\IBK_DRFN\ProjSrc\SrcChartEx\ChartAddIn\ChartEnvSetupDlgAddIn\ChartEnvSetupDlgAddIn\Setting_Common_Type_A.cpp
;	COMDAT ?Init_BarGraphCompareColor@CSetting_Common_Type_A@@AAEXXZ
_TEXT	SEGMENT
?Init_BarGraphCompareColor@CSetting_Common_Type_A@@AAEXXZ PROC ; CSetting_Common_Type_A::Init_BarGraphCompareColor, COMDAT
; _this$ = ecx

; 1149 : {

  00000	56		 push	 esi
  00001	8b f1		 mov	 esi, ecx

; 1150 : 	if( m_pIGraphInfo->GetSubGraphType( m_nSubGraphIndex) != CGraphBaseData::Bar_Type) 

  00003	8b 8e c4 00 00
	00		 mov	 ecx, DWORD PTR [esi+196]
  00009	ff b6 cc 14 00
	00		 push	 DWORD PTR [esi+5324]
  0000f	8b 01		 mov	 eax, DWORD PTR [ecx]
  00011	ff 50 50	 call	 DWORD PTR [eax+80]
  00014	83 f8 02	 cmp	 eax, 2
  00017	74 24		 je	 SHORT $LN2@Init_BarGr

; 1106 : 		GetDlgItem( IDC_STATIC_COMPCOLOR )->ShowWindow( SW_HIDE );

  00019	6a 00		 push	 0
  0001b	68 62 1f 00 00	 push	 8034			; 00001f62H
  00020	8b ce		 mov	 ecx, esi
  00022	e8 00 00 00 00	 call	 ?GetDlgItem@CWnd@@QBEPAV1@H@Z ; CWnd::GetDlgItem
  00027	8b c8		 mov	 ecx, eax
  00029	e8 00 00 00 00	 call	 ?ShowWindow@CWnd@@QAEHH@Z ; CWnd::ShowWindow

; 1107 : 		m_cmbCompColor.ShowWindow( SW_HIDE );

  0002e	6a 00		 push	 0
  00030	8d 8e f8 00 00
	00		 lea	 ecx, DWORD PTR [esi+248]
  00036	e8 00 00 00 00	 call	 ?ShowWindow@CWnd@@QAEHH@Z ; CWnd::ShowWindow
  0003b	5e		 pop	 esi

; 1161 : }

  0003c	c3		 ret	 0
$LN2@Init_BarGr:

; 1151 : 	{
; 1152 : 		UseCompColorCtrl(FALSE);
; 1153 : 		return;
; 1154 : 	}
; 1155 : 
; 1156 : 	int nPaintStyle = m_pIGraphInfo->GetSubGraphPaintStyle(m_nSubGraphIndex);

  0003d	8b 8e c4 00 00
	00		 mov	 ecx, DWORD PTR [esi+196]
  00043	ff b6 cc 14 00
	00		 push	 DWORD PTR [esi+5324]
  00049	8b 01		 mov	 eax, DWORD PTR [ecx]
  0004b	ff 90 c8 00 00
	00		 call	 DWORD PTR [eax+200]

; 1157 : 	if(m_bUseMultiplePriceData || nPaintStyle < 0)

  00051	80 be c8 00 00
	00 00		 cmp	 BYTE PTR [esi+200], 0
  00058	75 04		 jne	 SHORT $LN4@Init_BarGr
  0005a	85 c0		 test	 eax, eax
  0005c	79 05		 jns	 SHORT $LN3@Init_BarGr
$LN4@Init_BarGr:

; 1158 : 		nPaintStyle = 1;		//  

  0005e	b8 01 00 00 00	 mov	 eax, 1
$LN3@Init_BarGr:
; File C:\Program Files (x86)\Microsoft Visual Studio\2019\Community\VC\Tools\MSVC\14.29.30133\atlmfc\include\afxwin2.inl

; 767  : 	{ ASSERT(::IsWindow(m_hWnd)); return (int)::SendMessage(m_hWnd, CB_SETCURSEL, nSelect, 0); }

  00063	6a 00		 push	 0
  00065	50		 push	 eax
  00066	68 4e 01 00 00	 push	 334			; 0000014eH
  0006b	ff b6 18 01 00
	00		 push	 DWORD PTR [esi+280]
  00071	ff 15 00 00 00
	00		 call	 DWORD PTR __imp__SendMessageA@16
  00077	5e		 pop	 esi
; File D:\git\src\IBK\IBK_DRFN\ProjSrc\SrcChartEx\ChartAddIn\ChartEnvSetupDlgAddIn\ChartEnvSetupDlgAddIn\Setting_Common_Type_A.cpp

; 1161 : }

  00078	c3		 ret	 0
?Init_BarGraphCompareColor@CSetting_Common_Type_A@@AAEXXZ ENDP ; CSetting_Common_Type_A::Init_BarGraphCompareColor
_TEXT	ENDS
; Function compile flags: /Ogtp
; File D:\git\src\IBK\IBK_DRFN\ProjSrc\SrcChartEx\ChartAddIn\ChartEnvSetupDlgAddIn\ChartEnvSetupDlgAddIn\Setting_Common_Type_A.cpp
; File C:\Program Files (x86)\Microsoft Visual Studio\2019\Community\VC\Tools\MSVC\14.29.30133\atlmfc\include\afxwin2.inl
; File D:\git\src\IBK\IBK_DRFN\ProjSrc\SrcChartEx\ChartAddIn\ChartEnvSetupDlgAddIn\ChartEnvSetupDlgAddIn\Setting_Common_Type_A.cpp
;	COMDAT ?Initial_Signal@CSetting_Common_Type_A@@AAEXPAUIGraphInfo135914@@@Z
_TEXT	SEGMENT
_bShowSignal$ = -4					; size = 4
_bValidFalg$ = 8					; size = 4
_p_pIGraphInfo$ = 8					; size = 4
?Initial_Signal@CSetting_Common_Type_A@@AAEXPAUIGraphInfo135914@@@Z PROC ; CSetting_Common_Type_A::Initial_Signal, COMDAT
; _this$ = ecx

; 364  : {

  00000	55		 push	 ebp
  00001	8b ec		 mov	 ebp, esp
  00003	51		 push	 ecx

; 365  : 	if(p_pIGraphInfo == NULL) return;

  00004	83 7d 08 00	 cmp	 DWORD PTR _p_pIGraphInfo$[ebp], 0
  00008	56		 push	 esi
  00009	8b f1		 mov	 esi, ecx
  0000b	74 40		 je	 SHORT $LN1@Initial_Si

; 366  : 	BOOL bValidFalg = FALSE, bShowSignal = FALSE;
; 367  : 	m_pIGraphInfo->GetSignalShowFlag( bValidFalg, bShowSignal);

  0000d	8b 8e c4 00 00
	00		 mov	 ecx, DWORD PTR [esi+196]
  00013	8d 55 fc	 lea	 edx, DWORD PTR _bShowSignal$[ebp]
  00016	c7 45 08 00 00
	00 00		 mov	 DWORD PTR _bValidFalg$[ebp], 0
  0001d	c7 45 fc 00 00
	00 00		 mov	 DWORD PTR _bShowSignal$[ebp], 0
  00024	52		 push	 edx
  00025	8b 01		 mov	 eax, DWORD PTR [ecx]
  00027	8d 55 08	 lea	 edx, DWORD PTR _bValidFalg$[ebp]
  0002a	52		 push	 edx
  0002b	ff 90 b4 00 00
	00		 call	 DWORD PTR [eax+180]

; 368  : 	if( !bValidFalg) return;

  00031	83 7d 08 00	 cmp	 DWORD PTR _bValidFalg$[ebp], 0
  00035	74 16		 je	 SHORT $LN1@Initial_Si
; File C:\Program Files (x86)\Microsoft Visual Studio\2019\Community\VC\Tools\MSVC\14.29.30133\atlmfc\include\afxwin2.inl

; 630  : 	{ ASSERT(::IsWindow(m_hWnd)); ::SendMessage(m_hWnd, BM_SETCHECK, nCheck, 0); }

  00037	6a 00		 push	 0
  00039	ff 75 fc	 push	 DWORD PTR _bShowSignal$[ebp]
  0003c	68 f1 00 00 00	 push	 241			; 000000f1H
  00041	ff b6 40 05 00
	00		 push	 DWORD PTR [esi+1344]
  00047	ff 15 00 00 00
	00		 call	 DWORD PTR __imp__SendMessageA@16
$LN1@Initial_Si:
  0004d	5e		 pop	 esi
; File D:\git\src\IBK\IBK_DRFN\ProjSrc\SrcChartEx\ChartAddIn\ChartEnvSetupDlgAddIn\ChartEnvSetupDlgAddIn\Setting_Common_Type_A.cpp

; 372  : }

  0004e	8b e5		 mov	 esp, ebp
  00050	5d		 pop	 ebp
  00051	c2 04 00	 ret	 4
?Initial_Signal@CSetting_Common_Type_A@@AAEXPAUIGraphInfo135914@@@Z ENDP ; CSetting_Common_Type_A::Initial_Signal
_TEXT	ENDS
; Function compile flags: /Ogtp
; File D:\git\src\IBK\IBK_DRFN\ProjSrc\SrcChartEx\ChartAddIn\ChartEnvSetupDlgAddIn\ChartEnvSetupDlgAddIn\Setting_Common_Type_A.cpp
; File C:\Program Files (x86)\Microsoft Visual Studio\2019\Community\VC\Tools\MSVC\14.29.30133\atlmfc\include\afxwin2.inl
; File D:\git\src\IBK\IBK_DRFN\ProjSrc\SrcChartEx\ChartAddIn\ChartEnvSetupDlgAddIn\ChartEnvSetupDlgAddIn\Setting_Common_Type_A.cpp
; File C:\Program Files (x86)\Microsoft Visual Studio\2019\Community\VC\Tools\MSVC\14.29.30133\atlmfc\include\afxwin2.inl
; File D:\git\src\IBK\IBK_DRFN\ProjSrc\SrcChartEx\ChartAddIn\ChartEnvSetupDlgAddIn\ChartEnvSetupDlgAddIn\Setting_Common_Type_A.cpp
; File C:\Program Files (x86)\Microsoft Visual Studio\2019\Community\VC\Tools\MSVC\14.29.30133\atlmfc\include\afxwin2.inl
; File D:\git\src\IBK\IBK_DRFN\ProjSrc\SrcChartEx\ChartAddIn\ChartEnvSetupDlgAddIn\ChartEnvSetupDlgAddIn\Setting_Common_Type_A.cpp
; File C:\Program Files (x86)\Microsoft Visual Studio\2019\Community\VC\Tools\MSVC\14.29.30133\atlmfc\include\afxwin2.inl
; File D:\git\src\IBK\IBK_DRFN\ProjSrc\SrcChartEx\ChartAddIn\ChartEnvSetupDlgAddIn\ChartEnvSetupDlgAddIn\Setting_Common_Type_A.cpp
; File C:\Program Files (x86)\Microsoft Visual Studio\2019\Community\VC\Tools\MSVC\14.29.30133\atlmfc\include\afxwin2.inl
; File D:\git\src\IBK\IBK_DRFN\ProjSrc\SrcChartEx\ChartAddIn\ChartEnvSetupDlgAddIn\ChartEnvSetupDlgAddIn\Setting_Common_Type_A.cpp
; File D:\git\src\IBK\IBK_DRFN\ProjSrc\SrcChartEx\ChartAddIn\ChartEnvSetupDlgAddIn\Include_AddIn_135914\I135914\_IString.h
; File D:\git\src\IBK\IBK_DRFN\ProjSrc\SrcChartEx\ChartAddIn\ChartEnvSetupDlgAddIn\ChartEnvSetupDlgAddIn\Setting_Common_Type_A.cpp
; File C:\Program Files (x86)\Microsoft Visual Studio\2019\Community\VC\Tools\MSVC\14.29.30133\atlmfc\include\afxwin2.inl
; File D:\git\src\IBK\IBK_DRFN\ProjSrc\SrcChartEx\ChartAddIn\ChartEnvSetupDlgAddIn\Include_AddIn_135914\I135914\_IString.h
; File D:\git\src\IBK\IBK_DRFN\ProjSrc\SrcChartEx\ChartAddIn\ChartEnvSetupDlgAddIn\ChartEnvSetupDlgAddIn\Setting_Common_Type_A.cpp
;	COMDAT ?Init_BaseLine_Group_Title@CSetting_Common_Type_A@@AAEXXZ
_TEXT	SEGMENT
_szIndicatorName$ = -36					; size = 8
_dFirst$ = -28						; size = 8
_bShowSignal$2 = -20					; size = 4
$T3 = -20						; size = 4
_bValidFalg$4 = -16					; size = 4
__$EHRec$ = -12						; size = 12
?Init_BaseLine_Group_Title@CSetting_Common_Type_A@@AAEXXZ PROC ; CSetting_Common_Type_A::Init_BaseLine_Group_Title, COMDAT
; _this$ = ecx

; 1119 : {

  00000	55		 push	 ebp
  00001	8b ec		 mov	 ebp, esp
  00003	6a ff		 push	 -1
  00005	68 00 00 00 00	 push	 __ehhandler$?Init_BaseLine_Group_Title@CSetting_Common_Type_A@@AAEXXZ
  0000a	64 a1 00 00 00
	00		 mov	 eax, DWORD PTR fs:0
  00010	50		 push	 eax
  00011	83 ec 18	 sub	 esp, 24			; 00000018H
  00014	53		 push	 ebx
  00015	56		 push	 esi
  00016	57		 push	 edi
  00017	a1 00 00 00 00	 mov	 eax, DWORD PTR ___security_cookie
  0001c	33 c5		 xor	 eax, ebp
  0001e	50		 push	 eax
  0001f	8d 45 f4	 lea	 eax, DWORD PTR __$EHRec$[ebp]
  00022	64 a3 00 00 00
	00		 mov	 DWORD PTR fs:0, eax
  00028	8b f9		 mov	 edi, ecx
; File C:\Program Files (x86)\Microsoft Visual Studio\2019\Community\VC\Tools\MSVC\14.29.30133\atlmfc\include\afxwin2.inl

; 664  : 	{ ASSERT(::IsWindow(m_hWnd)); return (int)::SendMessage(m_hWnd, LB_GETCOUNT, 0, 0); }

  0002a	8b 1d 00 00 00
	00		 mov	 ebx, DWORD PTR __imp__SendMessageA@16
; File D:\git\src\IBK\IBK_DRFN\ProjSrc\SrcChartEx\ChartAddIn\ChartEnvSetupDlgAddIn\ChartEnvSetupDlgAddIn\Setting_Common_Type_A.cpp

; 1120 : 	for(int i = 0 ; i< m_HorizonLine_ListBox.GetCount() ; i++)

  00030	33 f6		 xor	 esi, esi
; File C:\Program Files (x86)\Microsoft Visual Studio\2019\Community\VC\Tools\MSVC\14.29.30133\atlmfc\include\afxwin2.inl

; 664  : 	{ ASSERT(::IsWindow(m_hWnd)); return (int)::SendMessage(m_hWnd, LB_GETCOUNT, 0, 0); }

  00032	56		 push	 esi
  00033	56		 push	 esi
  00034	68 8b 01 00 00	 push	 395			; 0000018bH
  00039	ff b7 c0 05 00
	00		 push	 DWORD PTR [edi+1472]
  0003f	ff d3		 call	 ebx
; File D:\git\src\IBK\IBK_DRFN\ProjSrc\SrcChartEx\ChartAddIn\ChartEnvSetupDlgAddIn\ChartEnvSetupDlgAddIn\Setting_Common_Type_A.cpp

; 1120 : 	for(int i = 0 ; i< m_HorizonLine_ListBox.GetCount() ; i++)

  00041	85 c0		 test	 eax, eax
  00043	7e 26		 jle	 SHORT $LN3@Init_BaseL
$LL4@Init_BaseL:
; File C:\Program Files (x86)\Microsoft Visual Studio\2019\Community\VC\Tools\MSVC\14.29.30133\atlmfc\include\afxwin2.inl

; 727  : 	{ ASSERT(::IsWindow(m_hWnd)); return (int)::SendMessage(m_hWnd, LB_DELETESTRING, nIndex, 0); }

  00045	6a 00		 push	 0
  00047	56		 push	 esi
  00048	68 82 01 00 00	 push	 386			; 00000182H
  0004d	ff b7 c0 05 00
	00		 push	 DWORD PTR [edi+1472]
  00053	ff d3		 call	 ebx

; 664  : 	{ ASSERT(::IsWindow(m_hWnd)); return (int)::SendMessage(m_hWnd, LB_GETCOUNT, 0, 0); }

  00055	6a 00		 push	 0
  00057	6a 00		 push	 0
  00059	68 8b 01 00 00	 push	 395			; 0000018bH
  0005e	ff b7 c0 05 00
	00		 push	 DWORD PTR [edi+1472]
; File D:\git\src\IBK\IBK_DRFN\ProjSrc\SrcChartEx\ChartAddIn\ChartEnvSetupDlgAddIn\ChartEnvSetupDlgAddIn\Setting_Common_Type_A.cpp

; 1120 : 	for(int i = 0 ; i< m_HorizonLine_ListBox.GetCount() ; i++)

  00064	46		 inc	 esi
; File C:\Program Files (x86)\Microsoft Visual Studio\2019\Community\VC\Tools\MSVC\14.29.30133\atlmfc\include\afxwin2.inl

; 664  : 	{ ASSERT(::IsWindow(m_hWnd)); return (int)::SendMessage(m_hWnd, LB_GETCOUNT, 0, 0); }

  00065	ff d3		 call	 ebx
; File D:\git\src\IBK\IBK_DRFN\ProjSrc\SrcChartEx\ChartAddIn\ChartEnvSetupDlgAddIn\ChartEnvSetupDlgAddIn\Setting_Common_Type_A.cpp

; 1120 : 	for(int i = 0 ; i< m_HorizonLine_ListBox.GetCount() ; i++)

  00067	3b f0		 cmp	 esi, eax
  00069	7c da		 jl	 SHORT $LL4@Init_BaseL
$LN3@Init_BaseL:
; File C:\Program Files (x86)\Microsoft Visual Studio\2019\Community\VC\Tools\MSVC\14.29.30133\atlmfc\include\afxwin2.inl

; 731  : 	{ ASSERT(::IsWindow(m_hWnd)); ::SendMessage(m_hWnd, LB_RESETCONTENT, 0, 0); }

  0006b	6a 00		 push	 0
  0006d	6a 00		 push	 0
  0006f	68 84 01 00 00	 push	 388			; 00000184H
  00074	ff b7 c0 05 00
	00		 push	 DWORD PTR [edi+1472]
  0007a	ff d3		 call	 ebx
; File D:\git\src\IBK\IBK_DRFN\ProjSrc\SrcChartEx\ChartAddIn\ChartEnvSetupDlgAddIn\ChartEnvSetupDlgAddIn\Setting_Common_Type_A.cpp

; 1125 : 	IDoubleList *pIDblBase = m_pIGraphInfo->GetBaseLineList();

  0007c	8b 8f c4 00 00
	00		 mov	 ecx, DWORD PTR [edi+196]
  00082	0f 57 c0	 xorps	 xmm0, xmm0
  00085	f2 0f 11 45 e4	 movsd	 QWORD PTR _dFirst$[ebp], xmm0
  0008a	8b 01		 mov	 eax, DWORD PTR [ecx]
  0008c	ff 50 28	 call	 DWORD PTR [eax+40]
  0008f	8b f0		 mov	 esi, eax

; 1126 : 	if( pIDblBase)

  00091	85 f6		 test	 esi, esi
  00093	74 2b		 je	 SHORT $LN5@Init_BaseL

; 1127 : 	{
; 1128 : 		Initial_ListBox(  pIDblBase, m_HorizonLine_ListBox);

  00095	8d 8f a0 05 00
	00		 lea	 ecx, DWORD PTR [edi+1440]
  0009b	51		 push	 ecx
  0009c	56		 push	 esi
  0009d	8b cf		 mov	 ecx, edi
  0009f	e8 00 00 00 00	 call	 ?Initial_ListBox@CBaseDialog@@IAEXPAUIDoubleList135914@@AAVCBaseListBox@@@Z ; CBaseDialog::Initial_ListBox

; 1129 : 
; 1130 : 		if( !pIDblBase->IsEmpty()) pIDblBase->GetHead( dFirst);

  000a4	8b 16		 mov	 edx, DWORD PTR [esi]
  000a6	8b ce		 mov	 ecx, esi
  000a8	ff 52 14	 call	 DWORD PTR [edx+20]
  000ab	85 c0		 test	 eax, eax
  000ad	75 0b		 jne	 SHORT $LN6@Init_BaseL
  000af	8b 06		 mov	 eax, DWORD PTR [esi]
  000b1	8d 4d e4	 lea	 ecx, DWORD PTR _dFirst$[ebp]
  000b4	51		 push	 ecx
  000b5	8b ce		 mov	 ecx, esi
  000b7	ff 50 18	 call	 DWORD PTR [eax+24]
$LN6@Init_BaseL:

; 1131 : 		pIDblBase->Release();

  000ba	8b 06		 mov	 eax, DWORD PTR [esi]
  000bc	56		 push	 esi
  000bd	ff 50 08	 call	 DWORD PTR [eax+8]
$LN5@Init_BaseL:

; 1134 : 	ILPCSTR szIndicatorName = m_pIGraphInfo->GetGraphNameString();

  000c0	8b 8f c4 00 00
	00		 mov	 ecx, DWORD PTR [edi+196]
  000c6	8b 01		 mov	 eax, DWORD PTR [ecx]
  000c8	ff 90 a0 00 00
	00		 call	 DWORD PTR [eax+160]
; File D:\git\src\IBK\IBK_DRFN\ProjSrc\SrcChartEx\ChartAddIn\ChartEnvSetupDlgAddIn\Include_AddIn_135914\I135914\_IString.h

; 39   : 		m_pIStrData = p_pIString;	// Do not AddRef(). Because It must be Return Value.

  000ce	89 45 e0	 mov	 DWORD PTR _szIndicatorName$[ebp+4], eax

; 40   : 		if( m_pIStrData) m_szData = m_pIStrData->GetData();

  000d1	85 c0		 test	 eax, eax
  000d3	74 09		 je	 SHORT $LN20@Init_BaseL
  000d5	8b 10		 mov	 edx, DWORD PTR [eax]
  000d7	8b c8		 mov	 ecx, eax
  000d9	ff 52 10	 call	 DWORD PTR [edx+16]
  000dc	eb 02		 jmp	 SHORT $LN38@Init_BaseL
$LN20@Init_BaseL:

; 41   : 		else m_szData = NULL;

  000de	33 c0		 xor	 eax, eax
$LN38@Init_BaseL:
; File D:\git\src\IBK\IBK_DRFN\ProjSrc\SrcChartEx\ChartAddIn\ChartEnvSetupDlgAddIn\ChartEnvSetupDlgAddIn\Setting_Common_Type_A.cpp

; 1134 : 	ILPCSTR szIndicatorName = m_pIGraphInfo->GetGraphNameString();

  000e0	89 45 dc	 mov	 DWORD PTR _szIndicatorName$[ebp], eax

; 1135 : 	CBaseData::LIMITHORIZONTALLINE type = CFindType::FindLimitValueofHorizontalLine( szIndicatorName);

  000e3	50		 push	 eax
  000e4	c7 45 fc 00 00
	00 00		 mov	 DWORD PTR __$EHRec$[ebp+8], 0
  000eb	e8 00 00 00 00	 call	 ?FindLimitValueofHorizontalLine@CFindType@@SA?AW4LIMITHORIZONTALLINE@CBaseData@@PBD@Z ; CFindType::FindLimitValueofHorizontalLine
  000f0	83 c4 04	 add	 esp, 4
  000f3	8d 8f 20 06 00
	00		 lea	 ecx, DWORD PTR [edi+1568]

; 1136 : 	if(type == CBaseData::ZeroToOneZeroZero)			Initial_Spin(m_Horizon_Spin, m_Horizon_Edit, dFirst, 0, 100, 1);

  000f9	83 ec 14	 sub	 esp, 20			; 00000014H
  000fc	8d 97 a0 04 00
	00		 lea	 edx, DWORD PTR [edi+1184]
  00102	c7 44 24 10 00
	00 80 3f	 mov	 DWORD PTR [esp+16], 1065353216 ; 3f800000H
  0010a	85 c0		 test	 eax, eax
  0010c	75 0e		 jne	 SHORT $LN7@Init_BaseL
  0010e	c7 44 24 0c 00
	00 c8 42	 mov	 DWORD PTR [esp+12], 1120403456 ; 42c80000H
  00116	89 44 24 08	 mov	 DWORD PTR [esp+8], eax
  0011a	eb 27		 jmp	 SHORT $LN39@Init_BaseL
$LN7@Init_BaseL:

; 1137 : 	else if(type == CBaseData::MinusZeroToOneZeroZero)	Initial_Spin(m_Horizon_Spin, m_Horizon_Edit, dFirst, -100, -1, 1);

  0011c	83 f8 01	 cmp	 eax, 1
  0011f	75 12		 jne	 SHORT $LN9@Init_BaseL
  00121	c7 44 24 0c 00
	00 80 bf	 mov	 DWORD PTR [esp+12], -1082130432 ; bf800000H
  00129	c7 44 24 08 00
	00 c8 c2	 mov	 DWORD PTR [esp+8], -1027080192 ; c2c80000H
  00131	eb 10		 jmp	 SHORT $LN39@Init_BaseL
$LN9@Init_BaseL:

; 1138 : 	else												Initial_Spin(m_Horizon_Spin, m_Horizon_Edit, dFirst, -999999, 999999, 1);

  00133	c7 44 24 0c f0
	23 74 49	 mov	 DWORD PTR [esp+12], 1232348144 ; 497423f0H
  0013b	c7 44 24 08 f0
	23 74 c9	 mov	 DWORD PTR [esp+8], -915135504 ; c97423f0H
$LN39@Init_BaseL:

; 1139 : 	
; 1140 : 	//      .
; 1141 : 	m_Color_Bt.SetColor( m_pIGraphInfo->GetSubGraphColor( m_pIGraphInfo->GetSubGraphCount() - 1, 6));

  00143	f2 0f 10 45 e4	 movsd	 xmm0, QWORD PTR _dFirst$[ebp]
  00148	f2 0f 11 04 24	 movsd	 QWORD PTR [esp], xmm0
  0014d	51		 push	 ecx
  0014e	52		 push	 edx
  0014f	8b cf		 mov	 ecx, edi
  00151	e8 00 00 00 00	 call	 ?Initial_Spin@CBaseDialog@@IAEXAAVCNumSpinCtrl@@AAVCNumEdit@@NMMM@Z ; CBaseDialog::Initial_Spin
  00156	8b 8f c4 00 00
	00		 mov	 ecx, DWORD PTR [edi+196]
  0015c	6a 06		 push	 6
  0015e	8b 31		 mov	 esi, DWORD PTR [ecx]
  00160	ff 56 2c	 call	 DWORD PTR [esi+44]
  00163	8b 8f c4 00 00
	00		 mov	 ecx, DWORD PTR [edi+196]
  00169	48		 dec	 eax
  0016a	50		 push	 eax
  0016b	ff 56 64	 call	 DWORD PTR [esi+100]
  0016e	89 45 ec	 mov	 DWORD PTR $T3[ebp], eax
  00171	8d 8f c8 06 00
	00		 lea	 ecx, DWORD PTR [edi+1736]
  00177	8d 45 ec	 lea	 eax, DWORD PTR $T3[ebp]
  0017a	50		 push	 eax
  0017b	e8 00 00 00 00	 call	 ?SetColor@CColorButton@@QAEXABK@Z ; CColorButton::SetColor

; 1142 : 
; 1143 : 	//sy 2006.04.17.
; 1144 : 	Initial_Signal(m_pIGraphInfo);

  00180	8b 8f c4 00 00
	00		 mov	 ecx, DWORD PTR [edi+196]

; 365  : 	if(p_pIGraphInfo == NULL) return;

  00186	85 c9		 test	 ecx, ecx
  00188	74 36		 je	 SHORT $LN23@Init_BaseL

; 366  : 	BOOL bValidFalg = FALSE, bShowSignal = FALSE;
; 367  : 	m_pIGraphInfo->GetSignalShowFlag( bValidFalg, bShowSignal);

  0018a	8d 55 ec	 lea	 edx, DWORD PTR _bShowSignal$2[ebp]
  0018d	c7 45 f0 00 00
	00 00		 mov	 DWORD PTR _bValidFalg$4[ebp], 0
  00194	c7 45 ec 00 00
	00 00		 mov	 DWORD PTR _bShowSignal$2[ebp], 0
  0019b	8b 01		 mov	 eax, DWORD PTR [ecx]
  0019d	52		 push	 edx
  0019e	8d 55 f0	 lea	 edx, DWORD PTR _bValidFalg$4[ebp]
  001a1	52		 push	 edx
  001a2	ff 90 b4 00 00
	00		 call	 DWORD PTR [eax+180]

; 368  : 	if( !bValidFalg) return;

  001a8	83 7d f0 00	 cmp	 DWORD PTR _bValidFalg$4[ebp], 0
  001ac	74 12		 je	 SHORT $LN23@Init_BaseL
; File C:\Program Files (x86)\Microsoft Visual Studio\2019\Community\VC\Tools\MSVC\14.29.30133\atlmfc\include\afxwin2.inl

; 630  : 	{ ASSERT(::IsWindow(m_hWnd)); ::SendMessage(m_hWnd, BM_SETCHECK, nCheck, 0); }

  001ae	6a 00		 push	 0
  001b0	ff 75 ec	 push	 DWORD PTR _bShowSignal$2[ebp]
  001b3	68 f1 00 00 00	 push	 241			; 000000f1H
  001b8	ff b7 40 05 00
	00		 push	 DWORD PTR [edi+1344]
  001be	ff d3		 call	 ebx
$LN23@Init_BaseL:
; File D:\git\src\IBK\IBK_DRFN\ProjSrc\SrcChartEx\ChartAddIn\ChartEnvSetupDlgAddIn\Include_AddIn_135914\I135914\_IString.h

; 45   : 		if( m_pIStrData)

  001c0	8b 4d e0	 mov	 ecx, DWORD PTR _szIndicatorName$[ebp+4]
  001c3	c7 45 fc 01 00
	00 00		 mov	 DWORD PTR __$EHRec$[ebp+8], 1
  001ca	85 c9		 test	 ecx, ecx
  001cc	74 06		 je	 SHORT $LN30@Init_BaseL

; 46   : 		{
; 47   : 			m_pIStrData->Release();

  001ce	8b 01		 mov	 eax, DWORD PTR [ecx]
  001d0	51		 push	 ecx
  001d1	ff 50 08	 call	 DWORD PTR [eax+8]
$LN30@Init_BaseL:
; File D:\git\src\IBK\IBK_DRFN\ProjSrc\SrcChartEx\ChartAddIn\ChartEnvSetupDlgAddIn\ChartEnvSetupDlgAddIn\Setting_Common_Type_A.cpp

; 1145 : }

  001d4	8b 4d f4	 mov	 ecx, DWORD PTR __$EHRec$[ebp]
  001d7	64 89 0d 00 00
	00 00		 mov	 DWORD PTR fs:0, ecx
  001de	59		 pop	 ecx
  001df	5f		 pop	 edi
  001e0	5e		 pop	 esi
  001e1	5b		 pop	 ebx
  001e2	8b e5		 mov	 esp, ebp
  001e4	5d		 pop	 ebp
  001e5	c3		 ret	 0
_TEXT	ENDS
;	COMDAT text$x
text$x	SEGMENT
__unwindfunclet$?Init_BaseLine_Group_Title@CSetting_Common_Type_A@@AAEXXZ$0:
  00000	8d 4d dc	 lea	 ecx, DWORD PTR _szIndicatorName$[ebp]
  00003	e9 00 00 00 00	 jmp	 ??1ILPCSTR135914@@QAE@XZ ; ILPCSTR135914::~ILPCSTR135914
  00008	cc		 int	 3
  00009	cc		 int	 3
  0000a	cc		 int	 3
  0000b	cc		 int	 3
  0000c	cc		 int	 3
__ehhandler$?Init_BaseLine_Group_Title@CSetting_Common_Type_A@@AAEXXZ:
  0000d	90		 npad	 1
  0000e	90		 npad	 1
  0000f	8b 54 24 08	 mov	 edx, DWORD PTR [esp+8]
  00013	8d 42 0c	 lea	 eax, DWORD PTR [edx+12]
  00016	8b 4a d8	 mov	 ecx, DWORD PTR [edx-40]
  00019	33 c8		 xor	 ecx, eax
  0001b	e8 00 00 00 00	 call	 @__security_check_cookie@4
  00020	b8 00 00 00 00	 mov	 eax, OFFSET __ehfuncinfo$?Init_BaseLine_Group_Title@CSetting_Common_Type_A@@AAEXXZ
  00025	e9 00 00 00 00	 jmp	 ___CxxFrameHandler3
text$x	ENDS
?Init_BaseLine_Group_Title@CSetting_Common_Type_A@@AAEXXZ ENDP ; CSetting_Common_Type_A::Init_BaseLine_Group_Title
; Function compile flags: /Ogtp
; File D:\git\src\IBK\IBK_DRFN\ProjSrc\SrcChartEx\ChartAddIn\ChartEnvSetupDlgAddIn\ChartEnvSetupDlgAddIn\Setting_Common_Type_A.cpp
; File C:\Program Files (x86)\Microsoft Visual Studio\2019\Community\VC\Tools\MSVC\14.29.30133\atlmfc\include\afxwin2.inl
; File D:\git\src\IBK\IBK_DRFN\ProjSrc\SrcChartEx\ChartAddIn\ChartEnvSetupDlgAddIn\ChartEnvSetupDlgAddIn\Setting_Common_Type_A.cpp
;	COMDAT ?SetBottonColor@CSetting_Common_Type_A@@AAEXAAVCColorButton@@ABK@Z
_TEXT	SEGMENT
_colorButton$ = 8					; size = 4
_color$ = 12						; size = 4
?SetBottonColor@CSetting_Common_Type_A@@AAEXAAVCColorButton@@ABK@Z PROC ; CSetting_Common_Type_A::SetBottonColor, COMDAT
; _this$ = ecx

; 995  : {

  00000	55		 push	 ebp
  00001	8b ec		 mov	 ebp, esp
  00003	56		 push	 esi

; 996  : 	colorButton.SetColor(color);

  00004	ff 75 0c	 push	 DWORD PTR _color$[ebp]
  00007	8b 75 08	 mov	 esi, DWORD PTR _colorButton$[ebp]
  0000a	8b ce		 mov	 ecx, esi
  0000c	e8 00 00 00 00	 call	 ?SetColor@CColorButton@@QAEXABK@Z ; CColorButton::SetColor
; File C:\Program Files (x86)\Microsoft Visual Studio\2019\Community\VC\Tools\MSVC\14.29.30133\atlmfc\include\afxwin2.inl

; 114  : 	{ ASSERT(::IsWindow(m_hWnd)); ::InvalidateRect(m_hWnd, NULL, bErase); }

  00011	6a 01		 push	 1
  00013	6a 00		 push	 0
  00015	ff 76 20	 push	 DWORD PTR [esi+32]
  00018	ff 15 00 00 00
	00		 call	 DWORD PTR __imp__InvalidateRect@12
  0001e	5e		 pop	 esi
; File D:\git\src\IBK\IBK_DRFN\ProjSrc\SrcChartEx\ChartAddIn\ChartEnvSetupDlgAddIn\ChartEnvSetupDlgAddIn\Setting_Common_Type_A.cpp

; 998  : }

  0001f	5d		 pop	 ebp
  00020	c2 08 00	 ret	 8
?SetBottonColor@CSetting_Common_Type_A@@AAEXAAVCColorButton@@ABK@Z ENDP ; CSetting_Common_Type_A::SetBottonColor
_TEXT	ENDS
; Function compile flags: /Ogtp
; File D:\git\src\IBK\IBK_DRFN\ProjSrc\SrcChartEx\ChartAddIn\ChartEnvSetupDlgAddIn\ChartEnvSetupDlgAddIn\Setting_Common_Type_A.cpp
; File C:\Program Files (x86)\Microsoft Visual Studio\2019\Community\VC\Tools\MSVC\14.29.30133\atlmfc\include\afxwin2.inl
; File D:\git\src\IBK\IBK_DRFN\ProjSrc\SrcChartEx\ChartAddIn\ChartEnvSetupDlgAddIn\ChartEnvSetupDlgAddIn\Setting_Common_Type_A.cpp
; File C:\Program Files (x86)\Microsoft Visual Studio\2019\Community\VC\Tools\MSVC\14.29.30133\atlmfc\include\afxwin2.inl
; File D:\git\src\IBK\IBK_DRFN\ProjSrc\SrcChartEx\ChartAddIn\ChartEnvSetupDlgAddIn\ChartEnvSetupDlgAddIn\Setting_Common_Type_A.cpp
; File C:\Program Files (x86)\Microsoft Visual Studio\2019\Community\VC\Tools\MSVC\14.29.30133\atlmfc\include\afxwin2.inl
; File D:\git\src\IBK\IBK_DRFN\ProjSrc\SrcChartEx\ChartAddIn\ChartEnvSetupDlgAddIn\ChartEnvSetupDlgAddIn\Setting_Common_Type_A.cpp
; File C:\Program Files (x86)\Microsoft Visual Studio\2019\Community\VC\Tools\MSVC\14.29.30133\atlmfc\include\afxwin2.inl
; File D:\git\src\IBK\IBK_DRFN\ProjSrc\SrcChartEx\ChartAddIn\ChartEnvSetupDlgAddIn\ChartEnvSetupDlgAddIn\Setting_Common_Type_A.cpp
; File C:\Program Files (x86)\Microsoft Visual Studio\2019\Community\VC\Tools\MSVC\14.29.30133\atlmfc\include\afxwin2.inl
; File D:\git\src\IBK\IBK_DRFN\ProjSrc\SrcChartEx\ChartAddIn\ChartEnvSetupDlgAddIn\ChartEnvSetupDlgAddIn\Setting_Common_Type_A.cpp
;	COMDAT ?Init_Composition_Group_SubGraphColor_BoxType@CSetting_Common_Type_A@@AAE_NH@Z
_TEXT	SEGMENT
$T2 = -20						; size = 4
$T3 = -20						; size = 4
$T4 = -20						; size = 4
$T5 = -20						; size = 4
_strSteady$6 = -16					; size = 4
__$EHRec$ = -12						; size = 12
$T7 = 8							; size = 4
$T8 = 8							; size = 4
_nSubGraphIndex$ = 8					; size = 4
?Init_Composition_Group_SubGraphColor_BoxType@CSetting_Common_Type_A@@AAE_NH@Z PROC ; CSetting_Common_Type_A::Init_Composition_Group_SubGraphColor_BoxType, COMDAT
; _this$ = ecx

; 958  : {

  00000	55		 push	 ebp
  00001	8b ec		 mov	 ebp, esp
  00003	6a ff		 push	 -1
  00005	68 00 00 00 00	 push	 __ehhandler$?Init_Composition_Group_SubGraphColor_BoxType@CSetting_Common_Type_A@@AAE_NH@Z
  0000a	64 a1 00 00 00
	00		 mov	 eax, DWORD PTR fs:0
  00010	50		 push	 eax
  00011	83 ec 08	 sub	 esp, 8
  00014	53		 push	 ebx
  00015	56		 push	 esi
  00016	57		 push	 edi
  00017	a1 00 00 00 00	 mov	 eax, DWORD PTR ___security_cookie
  0001c	33 c5		 xor	 eax, ebp
  0001e	50		 push	 eax
  0001f	8d 45 f4	 lea	 eax, DWORD PTR __$EHRec$[ebp]
  00022	64 a3 00 00 00
	00		 mov	 DWORD PTR fs:0, eax
  00028	8b d9		 mov	 ebx, ecx

; 959  : 	if( m_pIGraphInfo->GetSubGraphType( nSubGraphIndex) != CGraphBaseData::Bar_Type) return false;

  0002a	8b 8b c4 00 00
	00		 mov	 ecx, DWORD PTR [ebx+196]
  00030	8b 75 08	 mov	 esi, DWORD PTR _nSubGraphIndex$[ebp]
  00033	56		 push	 esi
  00034	8b 01		 mov	 eax, DWORD PTR [ecx]
  00036	ff 50 50	 call	 DWORD PTR [eax+80]
  00039	83 f8 02	 cmp	 eax, 2
  0003c	74 16		 je	 SHORT $LN2@Init_Compo
  0003e	32 c0		 xor	 al, al

; 992  : }

  00040	8b 4d f4	 mov	 ecx, DWORD PTR __$EHRec$[ebp]
  00043	64 89 0d 00 00
	00 00		 mov	 DWORD PTR fs:0, ecx
  0004a	59		 pop	 ecx
  0004b	5f		 pop	 edi
  0004c	5e		 pop	 esi
  0004d	5b		 pop	 ebx
  0004e	8b e5		 mov	 esp, ebp
  00050	5d		 pop	 ebp
  00051	c2 04 00	 ret	 4
$LN2@Init_Compo:

; 960  : 
; 961  : 	CGraphBaseData::BARSTYLE eBarStyle = ( CGraphBaseData::BARSTYLE)m_pIGraphInfo->GetSubGraphStyle( nSubGraphIndex);

  00054	8b 8b c4 00 00
	00		 mov	 ecx, DWORD PTR [ebx+196]
  0005a	56		 push	 esi
  0005b	8b 01		 mov	 eax, DWORD PTR [ecx]
  0005d	ff 50 54	 call	 DWORD PTR [eax+84]

; 962  : 	
; 963  : 	//   ""      .
; 964  : 	if( eBarStyle ==  CGraphBaseData::BoxBar)

  00060	83 f8 04	 cmp	 eax, 4
  00063	0f 85 cf 00 00
	00		 jne	 $LN3@Init_Compo

; 965  : 	{
; 966  : // 2008.01.25 by LYH >>
; 967  : 		//UseSubColorBtn( TRUE, "" );
; 968  : 		CString strSteady;

  00069	8d 4d f0	 lea	 ecx, DWORD PTR _strSteady$6[ebp]
  0006c	ff 15 00 00 00
	00		 call	 DWORD PTR __imp_??0?$CStringT@DV?$StrTraitMFC_DLL@DV?$ChTraitsCRT@D@ATL@@@@@ATL@@QAE@XZ

; 969  : 		strSteady.LoadString(IDS_STRING_STEADY);

  00072	6a 18		 push	 24			; 00000018H
  00074	8d 4d f0	 lea	 ecx, DWORD PTR _strSteady$6[ebp]
  00077	c7 45 fc 00 00
	00 00		 mov	 DWORD PTR __$EHRec$[ebp+8], 0
  0007e	ff 15 00 00 00
	00		 call	 DWORD PTR __imp_?LoadStringA@?$CStringT@DV?$StrTraitMFC_DLL@DV?$ChTraitsCRT@D@ATL@@@@@ATL@@QAEHI@Z

; 970  : 		UseSubColorBtn( TRUE, strSteady );

  00084	6a 01		 push	 1
  00086	51		 push	 ecx
  00087	8d 45 f0	 lea	 eax, DWORD PTR _strSteady$6[ebp]
  0008a	8b cc		 mov	 ecx, esp
  0008c	50		 push	 eax
  0008d	ff 15 00 00 00
	00		 call	 DWORD PTR __imp_??0?$CStringT@DV?$StrTraitMFC_DLL@DV?$ChTraitsCRT@D@ATL@@@@@ATL@@QAE@ABV01@@Z
  00093	6a 01		 push	 1
  00095	8b cb		 mov	 ecx, ebx
  00097	e8 00 00 00 00	 call	 ?UseSubColorBtn@CSetting_Common_Type_A@@AAEXHV?$CStringT@DV?$StrTraitMFC_DLL@DV?$ChTraitsCRT@D@ATL@@@@@ATL@@H@Z ; CSetting_Common_Type_A::UseSubColorBtn

; 971  : // 2008.01.25 by LYH <<
; 972  : 		SetBottonColor(m_btnUpColor, m_pIGraphInfo->GetSubGraphColor( nSubGraphIndex, 1));

  0009c	8b 8b c4 00 00
	00		 mov	 ecx, DWORD PTR [ebx+196]
  000a2	6a 01		 push	 1
  000a4	56		 push	 esi
  000a5	8b 01		 mov	 eax, DWORD PTR [ecx]
  000a7	ff 50 64	 call	 DWORD PTR [eax+100]
  000aa	89 45 ec	 mov	 DWORD PTR $T5[ebp], eax

; 996  : 	colorButton.SetColor(color);

  000ad	8d 8b 08 03 00
	00		 lea	 ecx, DWORD PTR [ebx+776]
  000b3	8d 45 ec	 lea	 eax, DWORD PTR $T5[ebp]
  000b6	50		 push	 eax
  000b7	e8 00 00 00 00	 call	 ?SetColor@CColorButton@@QAEXABK@Z ; CColorButton::SetColor
; File C:\Program Files (x86)\Microsoft Visual Studio\2019\Community\VC\Tools\MSVC\14.29.30133\atlmfc\include\afxwin2.inl

; 114  : 	{ ASSERT(::IsWindow(m_hWnd)); ::InvalidateRect(m_hWnd, NULL, bErase); }

  000bc	8b 3d 00 00 00
	00		 mov	 edi, DWORD PTR __imp__InvalidateRect@12
  000c2	6a 01		 push	 1
  000c4	6a 00		 push	 0
  000c6	ff b3 28 03 00
	00		 push	 DWORD PTR [ebx+808]
  000cc	ff d7		 call	 edi
; File D:\git\src\IBK\IBK_DRFN\ProjSrc\SrcChartEx\ChartAddIn\ChartEnvSetupDlgAddIn\ChartEnvSetupDlgAddIn\Setting_Common_Type_A.cpp

; 973  : 		SetBottonColor(m_btnDownColor, m_pIGraphInfo->GetSubGraphColor( nSubGraphIndex, 3));

  000ce	8b 8b c4 00 00
	00		 mov	 ecx, DWORD PTR [ebx+196]
  000d4	6a 03		 push	 3
  000d6	ff 75 08	 push	 DWORD PTR _nSubGraphIndex$[ebp]
  000d9	8b 01		 mov	 eax, DWORD PTR [ecx]
  000db	ff 50 64	 call	 DWORD PTR [eax+100]
  000de	89 45 ec	 mov	 DWORD PTR $T4[ebp], eax

; 996  : 	colorButton.SetColor(color);

  000e1	8d 8b 18 04 00
	00		 lea	 ecx, DWORD PTR [ebx+1048]
  000e7	8d 45 ec	 lea	 eax, DWORD PTR $T4[ebp]
  000ea	50		 push	 eax
  000eb	e8 00 00 00 00	 call	 ?SetColor@CColorButton@@QAEXABK@Z ; CColorButton::SetColor
; File C:\Program Files (x86)\Microsoft Visual Studio\2019\Community\VC\Tools\MSVC\14.29.30133\atlmfc\include\afxwin2.inl

; 114  : 	{ ASSERT(::IsWindow(m_hWnd)); ::InvalidateRect(m_hWnd, NULL, bErase); }

  000f0	6a 01		 push	 1
  000f2	6a 00		 push	 0
  000f4	ff b3 38 04 00
	00		 push	 DWORD PTR [ebx+1080]
  000fa	ff d7		 call	 edi
; File D:\git\src\IBK\IBK_DRFN\ProjSrc\SrcChartEx\ChartAddIn\ChartEnvSetupDlgAddIn\ChartEnvSetupDlgAddIn\Setting_Common_Type_A.cpp

; 974  : 		SetBottonColor(m_btnSteadyColor, m_pIGraphInfo->GetSubGraphColor( nSubGraphIndex, 5));

  000fc	8b 8b c4 00 00
	00		 mov	 ecx, DWORD PTR [ebx+196]
  00102	6a 05		 push	 5
  00104	ff 75 08	 push	 DWORD PTR _nSubGraphIndex$[ebp]
  00107	8b 01		 mov	 eax, DWORD PTR [ecx]
  00109	ff 50 64	 call	 DWORD PTR [eax+100]
  0010c	89 45 08	 mov	 DWORD PTR $T8[ebp], eax

; 996  : 	colorButton.SetColor(color);

  0010f	8d 8b 90 03 00
	00		 lea	 ecx, DWORD PTR [ebx+912]
  00115	8d 45 08	 lea	 eax, DWORD PTR $T8[ebp]
  00118	50		 push	 eax
  00119	e8 00 00 00 00	 call	 ?SetColor@CColorButton@@QAEXABK@Z ; CColorButton::SetColor
; File C:\Program Files (x86)\Microsoft Visual Studio\2019\Community\VC\Tools\MSVC\14.29.30133\atlmfc\include\afxwin2.inl

; 114  : 	{ ASSERT(::IsWindow(m_hWnd)); ::InvalidateRect(m_hWnd, NULL, bErase); }

  0011e	6a 01		 push	 1
  00120	6a 00		 push	 0
  00122	ff b3 b0 03 00
	00		 push	 DWORD PTR [ebx+944]
  00128	ff d7		 call	 edi
; File D:\git\src\IBK\IBK_DRFN\ProjSrc\SrcChartEx\ChartAddIn\ChartEnvSetupDlgAddIn\ChartEnvSetupDlgAddIn\Setting_Common_Type_A.cpp

; 975  : 	}

  0012a	8d 4d f0	 lea	 ecx, DWORD PTR _strSteady$6[ebp]
  0012d	ff 15 00 00 00
	00		 call	 DWORD PTR __imp_??1?$CStringT@DV?$StrTraitMFC_DLL@DV?$ChTraitsCRT@D@ATL@@@@@ATL@@QAE@XZ
  00133	e9 c4 00 00 00	 jmp	 $LN6@Init_Compo
$LN3@Init_Compo:

; 976  : 
; 977  : 	//   "Dot"      .
; 978  : 	//   - ojtaso (20080603)
; 979  : 	else if( eBarStyle ==  CGraphBaseData::DotBar || eBarStyle ==  CGraphBaseData::UpDownBar || eBarStyle ==  CGraphBaseData::FixedRateUpDownBar)

  00138	83 f8 05	 cmp	 eax, 5
  0013b	74 48		 je	 SHORT $LN7@Init_Compo
  0013d	83 f8 02	 cmp	 eax, 2
  00140	74 43		 je	 SHORT $LN7@Init_Compo
  00142	83 f8 10	 cmp	 eax, 16			; 00000010H
  00145	74 3e		 je	 SHORT $LN7@Init_Compo

; 984  : 	}
; 985  : 	else
; 986  : 	{
; 987  : 		UseSubColorBtn( FALSE );

  00147	6a 01		 push	 1
  00149	51		 push	 ecx
  0014a	8b cc		 mov	 ecx, esp
  0014c	68 00 00 00 00	 push	 OFFSET ??_C@_00CNPNBAHC@@
  00151	ff 15 00 00 00
	00		 call	 DWORD PTR __imp_??0?$CStringT@DV?$StrTraitMFC_DLL@DV?$ChTraitsCRT@D@ATL@@@@@ATL@@QAE@PBD@Z
  00157	6a 00		 push	 0
  00159	8b cb		 mov	 ecx, ebx
  0015b	e8 00 00 00 00	 call	 ?UseSubColorBtn@CSetting_Common_Type_A@@AAEXHV?$CStringT@DV?$StrTraitMFC_DLL@DV?$ChTraitsCRT@D@ATL@@@@@ATL@@H@Z ; CSetting_Common_Type_A::UseSubColorBtn

; 988  : 		SetBottonColor(m_btnComositionColor, m_pIGraphInfo->GetSubGraphColor( nSubGraphIndex, 1));

  00160	8b 8b c4 00 00
	00		 mov	 ecx, DWORD PTR [ebx+196]
  00166	6a 01		 push	 1
  00168	56		 push	 esi
  00169	8b 01		 mov	 eax, DWORD PTR [ecx]
  0016b	ff 50 64	 call	 DWORD PTR [eax+100]
  0016e	89 45 08	 mov	 DWORD PTR $T7[ebp], eax
  00171	8b cb		 mov	 ecx, ebx
  00173	8d 45 08	 lea	 eax, DWORD PTR $T7[ebp]
  00176	50		 push	 eax
  00177	8d 83 a8 12 00
	00		 lea	 eax, DWORD PTR [ebx+4776]
  0017d	50		 push	 eax
  0017e	e8 00 00 00 00	 call	 ?SetBottonColor@CSetting_Common_Type_A@@AAEXAAVCColorButton@@ABK@Z ; CSetting_Common_Type_A::SetBottonColor
  00183	eb 77		 jmp	 SHORT $LN6@Init_Compo
$LN7@Init_Compo:

; 980  : 	{
; 981  : 		UseSubColorBtn( TRUE, "", FALSE );

  00185	6a 00		 push	 0
  00187	51		 push	 ecx
  00188	8b cc		 mov	 ecx, esp
  0018a	68 00 00 00 00	 push	 OFFSET ??_C@_00CNPNBAHC@@
  0018f	ff 15 00 00 00
	00		 call	 DWORD PTR __imp_??0?$CStringT@DV?$StrTraitMFC_DLL@DV?$ChTraitsCRT@D@ATL@@@@@ATL@@QAE@PBD@Z
  00195	6a 01		 push	 1
  00197	8b cb		 mov	 ecx, ebx
  00199	e8 00 00 00 00	 call	 ?UseSubColorBtn@CSetting_Common_Type_A@@AAEXHV?$CStringT@DV?$StrTraitMFC_DLL@DV?$ChTraitsCRT@D@ATL@@@@@ATL@@H@Z ; CSetting_Common_Type_A::UseSubColorBtn

; 982  : 		SetBottonColor(m_btnUp1Color, m_pIGraphInfo->GetSubGraphColor( nSubGraphIndex, 1));

  0019e	8b 8b c4 00 00
	00		 mov	 ecx, DWORD PTR [ebx+196]
  001a4	6a 01		 push	 1
  001a6	56		 push	 esi
  001a7	8b 01		 mov	 eax, DWORD PTR [ecx]
  001a9	ff 50 64	 call	 DWORD PTR [eax+100]
  001ac	89 45 ec	 mov	 DWORD PTR $T3[ebp], eax

; 996  : 	colorButton.SetColor(color);

  001af	8d 8b 80 02 00
	00		 lea	 ecx, DWORD PTR [ebx+640]
  001b5	8d 45 ec	 lea	 eax, DWORD PTR $T3[ebp]
  001b8	50		 push	 eax
  001b9	e8 00 00 00 00	 call	 ?SetColor@CColorButton@@QAEXABK@Z ; CColorButton::SetColor
; File C:\Program Files (x86)\Microsoft Visual Studio\2019\Community\VC\Tools\MSVC\14.29.30133\atlmfc\include\afxwin2.inl

; 114  : 	{ ASSERT(::IsWindow(m_hWnd)); ::InvalidateRect(m_hWnd, NULL, bErase); }

  001be	8b 3d 00 00 00
	00		 mov	 edi, DWORD PTR __imp__InvalidateRect@12
  001c4	6a 01		 push	 1
  001c6	6a 00		 push	 0
  001c8	ff b3 a0 02 00
	00		 push	 DWORD PTR [ebx+672]
  001ce	ff d7		 call	 edi
; File D:\git\src\IBK\IBK_DRFN\ProjSrc\SrcChartEx\ChartAddIn\ChartEnvSetupDlgAddIn\ChartEnvSetupDlgAddIn\Setting_Common_Type_A.cpp

; 983  : 		SetBottonColor(m_btnDown1Color, m_pIGraphInfo->GetSubGraphColor( nSubGraphIndex, 3));

  001d0	8b 8b c4 00 00
	00		 mov	 ecx, DWORD PTR [ebx+196]
  001d6	6a 03		 push	 3
  001d8	56		 push	 esi
  001d9	8b 01		 mov	 eax, DWORD PTR [ecx]
  001db	ff 50 64	 call	 DWORD PTR [eax+100]
  001de	89 45 ec	 mov	 DWORD PTR $T2[ebp], eax

; 996  : 	colorButton.SetColor(color);

  001e1	8d 8b f8 01 00
	00		 lea	 ecx, DWORD PTR [ebx+504]
  001e7	8d 45 ec	 lea	 eax, DWORD PTR $T2[ebp]
  001ea	50		 push	 eax
  001eb	e8 00 00 00 00	 call	 ?SetColor@CColorButton@@QAEXABK@Z ; CColorButton::SetColor
; File C:\Program Files (x86)\Microsoft Visual Studio\2019\Community\VC\Tools\MSVC\14.29.30133\atlmfc\include\afxwin2.inl

; 114  : 	{ ASSERT(::IsWindow(m_hWnd)); ::InvalidateRect(m_hWnd, NULL, bErase); }

  001f0	6a 01		 push	 1
  001f2	6a 00		 push	 0
  001f4	ff b3 18 02 00
	00		 push	 DWORD PTR [ebx+536]
  001fa	ff d7		 call	 edi
$LN6@Init_Compo:
; File D:\git\src\IBK\IBK_DRFN\ProjSrc\SrcChartEx\ChartAddIn\ChartEnvSetupDlgAddIn\ChartEnvSetupDlgAddIn\Setting_Common_Type_A.cpp

; 991  : 	return true;

  001fc	b0 01		 mov	 al, 1

; 992  : }

  001fe	8b 4d f4	 mov	 ecx, DWORD PTR __$EHRec$[ebp]
  00201	64 89 0d 00 00
	00 00		 mov	 DWORD PTR fs:0, ecx
  00208	59		 pop	 ecx
  00209	5f		 pop	 edi
  0020a	5e		 pop	 esi
  0020b	5b		 pop	 ebx
  0020c	8b e5		 mov	 esp, ebp
  0020e	5d		 pop	 ebp
  0020f	c2 04 00	 ret	 4
_TEXT	ENDS
;	COMDAT text$x
text$x	SEGMENT
__unwindfunclet$?Init_Composition_Group_SubGraphColor_BoxType@CSetting_Common_Type_A@@AAE_NH@Z$0:
  00000	8d 4d f0	 lea	 ecx, DWORD PTR _strSteady$6[ebp]
  00003	ff 25 00 00 00
	00		 jmp	 DWORD PTR __imp_??1?$CStringT@DV?$StrTraitMFC_DLL@DV?$ChTraitsCRT@D@ATL@@@@@ATL@@QAE@XZ
  00009	cc		 int	 3
  0000a	cc		 int	 3
  0000b	cc		 int	 3
  0000c	cc		 int	 3
  0000d	cc		 int	 3
__ehhandler$?Init_Composition_Group_SubGraphColor_BoxType@CSetting_Common_Type_A@@AAE_NH@Z:
  0000e	90		 npad	 1
  0000f	90		 npad	 1
  00010	8b 54 24 08	 mov	 edx, DWORD PTR [esp+8]
  00014	8d 42 0c	 lea	 eax, DWORD PTR [edx+12]
  00017	8b 4a e8	 mov	 ecx, DWORD PTR [edx-24]
  0001a	33 c8		 xor	 ecx, eax
  0001c	e8 00 00 00 00	 call	 @__security_check_cookie@4
  00021	b8 00 00 00 00	 mov	 eax, OFFSET __ehfuncinfo$?Init_Composition_Group_SubGraphColor_BoxType@CSetting_Common_Type_A@@AAE_NH@Z
  00026	e9 00 00 00 00	 jmp	 ___CxxFrameHandler3
text$x	ENDS
?Init_Composition_Group_SubGraphColor_BoxType@CSetting_Common_Type_A@@AAE_NH@Z ENDP ; CSetting_Common_Type_A::Init_Composition_Group_SubGraphColor_BoxType
; Function compile flags: /Ogtp
; File D:\git\src\IBK\IBK_DRFN\ProjSrc\SrcChartEx\ChartAddIn\ChartEnvSetupDlgAddIn\ChartEnvSetupDlgAddIn\Setting_Common_Type_A.cpp
; File C:\Program Files (x86)\Microsoft Visual Studio\2019\Community\VC\Tools\MSVC\14.29.30133\atlmfc\include\afxwin2.inl
; File D:\git\src\IBK\IBK_DRFN\ProjSrc\SrcChartEx\ChartAddIn\ChartEnvSetupDlgAddIn\ChartEnvSetupDlgAddIn\Setting_Common_Type_A.cpp
; File C:\Program Files (x86)\Microsoft Visual Studio\2019\Community\VC\Tools\MSVC\14.29.30133\atlmfc\include\afxwin2.inl
; File D:\git\src\IBK\IBK_DRFN\ProjSrc\SrcChartEx\ChartAddIn\ChartEnvSetupDlgAddIn\ChartEnvSetupDlgAddIn\Setting_Common_Type_A.cpp
; File C:\Program Files (x86)\Microsoft Visual Studio\2019\Community\VC\Tools\MSVC\14.29.30133\atlmfc\include\afxwin2.inl
; File D:\git\src\IBK\IBK_DRFN\ProjSrc\SrcChartEx\ChartAddIn\ChartEnvSetupDlgAddIn\ChartEnvSetupDlgAddIn\Setting_Common_Type_A.cpp
; File C:\Program Files (x86)\Microsoft Visual Studio\2019\Community\VC\Tools\MSVC\14.29.30133\atlmfc\include\afxwin2.inl
; File D:\git\src\IBK\IBK_DRFN\ProjSrc\SrcChartEx\ChartAddIn\ChartEnvSetupDlgAddIn\ChartEnvSetupDlgAddIn\Setting_Common_Type_A.cpp
; File C:\Program Files (x86)\Microsoft Visual Studio\2019\Community\VC\Tools\MSVC\14.29.30133\atlmfc\include\afxwin2.inl
; File D:\git\src\IBK\IBK_DRFN\ProjSrc\SrcChartEx\ChartAddIn\ChartEnvSetupDlgAddIn\ChartEnvSetupDlgAddIn\Setting_Common_Type_A.cpp
;	COMDAT ?Init_Composition_Group_SubGraphColor_LineType@CSetting_Common_Type_A@@AAE_NH@Z
_TEXT	SEGMENT
$T2 = -20						; size = 4
$T3 = -20						; size = 4
$T4 = -20						; size = 4
$T5 = -20						; size = 4
$T6 = -16						; size = 4
_strColor$7 = -16					; size = 4
__$EHRec$ = -12						; size = 12
$T8 = 8							; size = 4
$T9 = 8							; size = 4
$T10 = 8						; size = 4
_nSubGraphIndex$ = 8					; size = 4
?Init_Composition_Group_SubGraphColor_LineType@CSetting_Common_Type_A@@AAE_NH@Z PROC ; CSetting_Common_Type_A::Init_Composition_Group_SubGraphColor_LineType, COMDAT
; _this$ = ecx

; 902  : {

  00000	55		 push	 ebp
  00001	8b ec		 mov	 ebp, esp
  00003	6a ff		 push	 -1
  00005	68 00 00 00 00	 push	 __ehhandler$?Init_Composition_Group_SubGraphColor_LineType@CSetting_Common_Type_A@@AAE_NH@Z
  0000a	64 a1 00 00 00
	00		 mov	 eax, DWORD PTR fs:0
  00010	50		 push	 eax
  00011	83 ec 08	 sub	 esp, 8
  00014	53		 push	 ebx
  00015	56		 push	 esi
  00016	57		 push	 edi
  00017	a1 00 00 00 00	 mov	 eax, DWORD PTR ___security_cookie
  0001c	33 c5		 xor	 eax, ebp
  0001e	50		 push	 eax
  0001f	8d 45 f4	 lea	 eax, DWORD PTR __$EHRec$[ebp]
  00022	64 a3 00 00 00
	00		 mov	 DWORD PTR fs:0, eax
  00028	8b d9		 mov	 ebx, ecx

; 903  : 	if( m_pIGraphInfo->GetSubGraphType( nSubGraphIndex) != CGraphBaseData::Line_Type) return false;

  0002a	8b 8b c4 00 00
	00		 mov	 ecx, DWORD PTR [ebx+196]
  00030	8b 75 08	 mov	 esi, DWORD PTR _nSubGraphIndex$[ebp]
  00033	56		 push	 esi
  00034	8b 01		 mov	 eax, DWORD PTR [ecx]
  00036	ff 50 50	 call	 DWORD PTR [eax+80]
  00039	83 f8 01	 cmp	 eax, 1
  0003c	74 16		 je	 SHORT $LN2@Init_Compo
  0003e	32 c0		 xor	 al, al

; 955  : }

  00040	8b 4d f4	 mov	 ecx, DWORD PTR __$EHRec$[ebp]
  00043	64 89 0d 00 00
	00 00		 mov	 DWORD PTR fs:0, ecx
  0004a	59		 pop	 ecx
  0004b	5f		 pop	 edi
  0004c	5e		 pop	 esi
  0004d	5b		 pop	 ebx
  0004e	8b e5		 mov	 esp, ebp
  00050	5d		 pop	 ebp
  00051	c2 04 00	 ret	 4
$LN2@Init_Compo:

; 904  : 
; 905  : 	CGraphBaseData::LINESTYLE eLineStyle = ( CGraphBaseData::LINESTYLE)m_pIGraphInfo->GetSubGraphStyle( nSubGraphIndex);

  00054	8b 8b c4 00 00
	00		 mov	 ecx, DWORD PTR [ebx+196]
  0005a	56		 push	 esi
  0005b	8b 01		 mov	 eax, DWORD PTR [ecx]
  0005d	ff 50 54	 call	 DWORD PTR [eax+84]

; 906  : 	
; 907  : 	//   ""      .
; 908  : 	if( eLineStyle ==  CGraphBaseData::FillLine)

  00060	83 f8 01	 cmp	 eax, 1
  00063	0f 85 f5 00 00
	00		 jne	 $LN3@Init_Compo

; 909  : 	{
; 910  : // 2008.01.25 by LYH >>
; 911  : 		//UseSubColorBtn( TRUE, "" );
; 912  : 		CString strColor;

  00069	8d 4d f0	 lea	 ecx, DWORD PTR _strColor$7[ebp]
  0006c	ff 15 00 00 00
	00		 call	 DWORD PTR __imp_??0?$CStringT@DV?$StrTraitMFC_DLL@DV?$ChTraitsCRT@D@ATL@@@@@ATL@@QAE@XZ

; 913  : 		strColor.LoadString(IDS_LINE_COLOR);

  00072	6a 23		 push	 35			; 00000023H
  00074	8d 4d f0	 lea	 ecx, DWORD PTR _strColor$7[ebp]
  00077	c7 45 fc 00 00
	00 00		 mov	 DWORD PTR __$EHRec$[ebp+8], 0
  0007e	ff 15 00 00 00
	00		 call	 DWORD PTR __imp_?LoadStringA@?$CStringT@DV?$StrTraitMFC_DLL@DV?$ChTraitsCRT@D@ATL@@@@@ATL@@QAEHI@Z

; 914  : 		UseSubColorBtn( TRUE, strColor );

  00084	6a 01		 push	 1
  00086	51		 push	 ecx
  00087	8d 45 f0	 lea	 eax, DWORD PTR _strColor$7[ebp]
  0008a	8b cc		 mov	 ecx, esp
  0008c	50		 push	 eax
  0008d	ff 15 00 00 00
	00		 call	 DWORD PTR __imp_??0?$CStringT@DV?$StrTraitMFC_DLL@DV?$ChTraitsCRT@D@ATL@@@@@ATL@@QAE@ABV01@@Z
  00093	6a 01		 push	 1
  00095	8b cb		 mov	 ecx, ebx
  00097	e8 00 00 00 00	 call	 ?UseSubColorBtn@CSetting_Common_Type_A@@AAEXHV?$CStringT@DV?$StrTraitMFC_DLL@DV?$ChTraitsCRT@D@ATL@@@@@ATL@@H@Z ; CSetting_Common_Type_A::UseSubColorBtn

; 1090 : 		GetDlgItem( IDC_CHK_FILL_COLOR )->ShowWindow( SW_SHOW );

  0009c	6a 05		 push	 5
  0009e	68 0b 18 00 00	 push	 6155			; 0000180bH
  000a3	8b cb		 mov	 ecx, ebx
  000a5	e8 00 00 00 00	 call	 ?GetDlgItem@CWnd@@QBEPAV1@H@Z ; CWnd::GetDlgItem
  000aa	8b c8		 mov	 ecx, eax
  000ac	e8 00 00 00 00	 call	 ?ShowWindow@CWnd@@QAEHH@Z ; CWnd::ShowWindow

; 915  : // 2008.01.25 by LYH <<
; 916  : 
; 917  : 		UseFillColorBtn( TRUE );
; 918  : 		SetBottonColor(m_btnUpColor, m_pIGraphInfo->GetSubGraphColor( nSubGraphIndex, 1));

  000b1	8b 8b c4 00 00
	00		 mov	 ecx, DWORD PTR [ebx+196]
  000b7	6a 01		 push	 1
  000b9	56		 push	 esi
  000ba	8b 01		 mov	 eax, DWORD PTR [ecx]
  000bc	ff 50 64	 call	 DWORD PTR [eax+100]
  000bf	89 45 ec	 mov	 DWORD PTR $T5[ebp], eax

; 996  : 	colorButton.SetColor(color);

  000c2	8d 8b 08 03 00
	00		 lea	 ecx, DWORD PTR [ebx+776]
  000c8	8d 45 ec	 lea	 eax, DWORD PTR $T5[ebp]
  000cb	50		 push	 eax
  000cc	e8 00 00 00 00	 call	 ?SetColor@CColorButton@@QAEXABK@Z ; CColorButton::SetColor
; File C:\Program Files (x86)\Microsoft Visual Studio\2019\Community\VC\Tools\MSVC\14.29.30133\atlmfc\include\afxwin2.inl

; 114  : 	{ ASSERT(::IsWindow(m_hWnd)); ::InvalidateRect(m_hWnd, NULL, bErase); }

  000d1	8b 3d 00 00 00
	00		 mov	 edi, DWORD PTR __imp__InvalidateRect@12
  000d7	6a 01		 push	 1
  000d9	6a 00		 push	 0
  000db	ff b3 28 03 00
	00		 push	 DWORD PTR [ebx+808]
  000e1	ff d7		 call	 edi
; File D:\git\src\IBK\IBK_DRFN\ProjSrc\SrcChartEx\ChartAddIn\ChartEnvSetupDlgAddIn\ChartEnvSetupDlgAddIn\Setting_Common_Type_A.cpp

; 919  : 		SetBottonColor(m_btnDownColor, m_pIGraphInfo->GetSubGraphColor( nSubGraphIndex, 3));

  000e3	8b 8b c4 00 00
	00		 mov	 ecx, DWORD PTR [ebx+196]
  000e9	6a 03		 push	 3
  000eb	ff 75 08	 push	 DWORD PTR _nSubGraphIndex$[ebp]
  000ee	8b 01		 mov	 eax, DWORD PTR [ecx]
  000f0	ff 50 64	 call	 DWORD PTR [eax+100]
  000f3	89 45 ec	 mov	 DWORD PTR $T4[ebp], eax

; 996  : 	colorButton.SetColor(color);

  000f6	8d 8b 18 04 00
	00		 lea	 ecx, DWORD PTR [ebx+1048]
  000fc	8d 45 ec	 lea	 eax, DWORD PTR $T4[ebp]
  000ff	50		 push	 eax
  00100	e8 00 00 00 00	 call	 ?SetColor@CColorButton@@QAEXABK@Z ; CColorButton::SetColor
; File C:\Program Files (x86)\Microsoft Visual Studio\2019\Community\VC\Tools\MSVC\14.29.30133\atlmfc\include\afxwin2.inl

; 114  : 	{ ASSERT(::IsWindow(m_hWnd)); ::InvalidateRect(m_hWnd, NULL, bErase); }

  00105	6a 01		 push	 1
  00107	6a 00		 push	 0
  00109	ff b3 38 04 00
	00		 push	 DWORD PTR [ebx+1080]
  0010f	ff d7		 call	 edi
; File D:\git\src\IBK\IBK_DRFN\ProjSrc\SrcChartEx\ChartAddIn\ChartEnvSetupDlgAddIn\ChartEnvSetupDlgAddIn\Setting_Common_Type_A.cpp

; 920  : 		SetBottonColor(m_btnSteadyColor, m_pIGraphInfo->GetSubGraphColor( nSubGraphIndex, 5));

  00111	8b 8b c4 00 00
	00		 mov	 ecx, DWORD PTR [ebx+196]
  00117	6a 05		 push	 5
  00119	ff 75 08	 push	 DWORD PTR _nSubGraphIndex$[ebp]
  0011c	8b 01		 mov	 eax, DWORD PTR [ecx]
  0011e	ff 50 64	 call	 DWORD PTR [eax+100]
  00121	89 45 ec	 mov	 DWORD PTR $T3[ebp], eax

; 996  : 	colorButton.SetColor(color);

  00124	8d 8b 90 03 00
	00		 lea	 ecx, DWORD PTR [ebx+912]
  0012a	8d 45 ec	 lea	 eax, DWORD PTR $T3[ebp]
  0012d	50		 push	 eax
  0012e	e8 00 00 00 00	 call	 ?SetColor@CColorButton@@QAEXABK@Z ; CColorButton::SetColor
; File C:\Program Files (x86)\Microsoft Visual Studio\2019\Community\VC\Tools\MSVC\14.29.30133\atlmfc\include\afxwin2.inl

; 114  : 	{ ASSERT(::IsWindow(m_hWnd)); ::InvalidateRect(m_hWnd, NULL, bErase); }

  00133	6a 01		 push	 1
  00135	6a 00		 push	 0
  00137	ff b3 b0 03 00
	00		 push	 DWORD PTR [ebx+944]
  0013d	ff d7		 call	 edi
; File D:\git\src\IBK\IBK_DRFN\ProjSrc\SrcChartEx\ChartAddIn\ChartEnvSetupDlgAddIn\ChartEnvSetupDlgAddIn\Setting_Common_Type_A.cpp

; 923  : 		Initial_FillUp( nSubGraphIndex, m_btnFillColor );

  0013f	8d 83 78 01 00
	00		 lea	 eax, DWORD PTR [ebx+376]
  00145	8b cb		 mov	 ecx, ebx
  00147	50		 push	 eax
  00148	ff 75 08	 push	 DWORD PTR _nSubGraphIndex$[ebp]
  0014b	e8 00 00 00 00	 call	 ?Initial_FillUp@CBaseDialog@@IAEXHAAVCButton@@@Z ; CBaseDialog::Initial_FillUp

; 924  : 	}

  00150	8d 4d f0	 lea	 ecx, DWORD PTR _strColor$7[ebp]
  00153	ff 15 00 00 00
	00		 call	 DWORD PTR __imp_??1?$CStringT@DV?$StrTraitMFC_DLL@DV?$ChTraitsCRT@D@ATL@@@@@ATL@@QAE@XZ
  00159	e9 72 01 00 00	 jmp	 $LN9@Init_Compo
$LN3@Init_Compo:

; 925  : 
; 926  : 	//   "", ""       .
; 927  : 	else if( eLineStyle == CGraphBaseData::LineCloudLine || eLineStyle == CGraphBaseData::CloudLine )

  0015e	83 f8 09	 cmp	 eax, 9
  00161	0f 84 dd 00 00
	00		 je	 $LN7@Init_Compo
  00167	83 f8 02	 cmp	 eax, 2
  0016a	0f 84 d4 00 00
	00		 je	 $LN7@Init_Compo

; 933  : 	}
; 934  : 
; 935  : 	// Sang-Woo, Cho		2006 / 06 / 07
; 936  : 	// ""    .
; 937  : 	// Begin
; 938  : 	else if( eLineStyle == CGraphBaseData::RainbowLine )

  00170	83 f8 07	 cmp	 eax, 7
  00173	75 79		 jne	 SHORT $LN8@Init_Compo

; 939  : 	{
; 940  : 		UseSubColorBtn( TRUE, "", FALSE );

  00175	6a 00		 push	 0
  00177	51		 push	 ecx
  00178	8b cc		 mov	 ecx, esp
  0017a	68 00 00 00 00	 push	 OFFSET ??_C@_00CNPNBAHC@@
  0017f	ff 15 00 00 00
	00		 call	 DWORD PTR __imp_??0?$CStringT@DV?$StrTraitMFC_DLL@DV?$ChTraitsCRT@D@ATL@@@@@ATL@@QAE@PBD@Z
  00185	6a 01		 push	 1
  00187	8b cb		 mov	 ecx, ebx
  00189	e8 00 00 00 00	 call	 ?UseSubColorBtn@CSetting_Common_Type_A@@AAEXHV?$CStringT@DV?$StrTraitMFC_DLL@DV?$ChTraitsCRT@D@ATL@@@@@ATL@@H@Z ; CSetting_Common_Type_A::UseSubColorBtn

; 1093 : 		GetDlgItem( IDC_CHK_FILL_COLOR )->ShowWindow( SW_HIDE );

  0018e	6a 00		 push	 0
  00190	68 0b 18 00 00	 push	 6155			; 0000180bH
  00195	8b cb		 mov	 ecx, ebx
  00197	e8 00 00 00 00	 call	 ?GetDlgItem@CWnd@@QBEPAV1@H@Z ; CWnd::GetDlgItem
  0019c	8b c8		 mov	 ecx, eax
  0019e	e8 00 00 00 00	 call	 ?ShowWindow@CWnd@@QAEHH@Z ; CWnd::ShowWindow

; 941  : 		UseFillColorBtn( FALSE );
; 942  : 		SetBottonColor(m_btnUp1Color, m_pIGraphInfo->GetSubGraphColor( nSubGraphIndex, 1));

  001a3	8b 8b c4 00 00
	00		 mov	 ecx, DWORD PTR [ebx+196]
  001a9	6a 01		 push	 1
  001ab	56		 push	 esi
  001ac	8b 01		 mov	 eax, DWORD PTR [ecx]
  001ae	ff 50 64	 call	 DWORD PTR [eax+100]
  001b1	89 45 08	 mov	 DWORD PTR $T9[ebp], eax
  001b4	8b cb		 mov	 ecx, ebx
  001b6	8d 45 08	 lea	 eax, DWORD PTR $T9[ebp]
  001b9	50		 push	 eax
  001ba	8d 83 80 02 00
	00		 lea	 eax, DWORD PTR [ebx+640]
  001c0	50		 push	 eax
  001c1	e8 00 00 00 00	 call	 ?SetBottonColor@CSetting_Common_Type_A@@AAEXAAVCColorButton@@ABK@Z ; CSetting_Common_Type_A::SetBottonColor

; 943  : 		SetBottonColor(m_btnDown1Color, m_pIGraphInfo->GetSubGraphColor( nSubGraphIndex, 2));

  001c6	8b 8b c4 00 00
	00		 mov	 ecx, DWORD PTR [ebx+196]
  001cc	6a 02		 push	 2
  001ce	56		 push	 esi
  001cf	8b 01		 mov	 eax, DWORD PTR [ecx]
  001d1	ff 50 64	 call	 DWORD PTR [eax+100]
  001d4	89 45 08	 mov	 DWORD PTR $T8[ebp], eax
  001d7	8b cb		 mov	 ecx, ebx
  001d9	8d 45 08	 lea	 eax, DWORD PTR $T8[ebp]
  001dc	50		 push	 eax
  001dd	8d 83 f8 01 00
	00		 lea	 eax, DWORD PTR [ebx+504]
  001e3	50		 push	 eax
  001e4	e8 00 00 00 00	 call	 ?SetBottonColor@CSetting_Common_Type_A@@AAEXAAVCColorButton@@ABK@Z ; CSetting_Common_Type_A::SetBottonColor

; 944  : 	}

  001e9	e9 e2 00 00 00	 jmp	 $LN9@Init_Compo
$LN8@Init_Compo:

; 945  : 	// End
; 946  : 	
; 947  : 	else
; 948  : 	{
; 949  : 		UseSubColorBtn( FALSE );

  001ee	6a 01		 push	 1
  001f0	51		 push	 ecx
  001f1	8b cc		 mov	 ecx, esp
  001f3	68 00 00 00 00	 push	 OFFSET ??_C@_00CNPNBAHC@@
  001f8	ff 15 00 00 00
	00		 call	 DWORD PTR __imp_??0?$CStringT@DV?$StrTraitMFC_DLL@DV?$ChTraitsCRT@D@ATL@@@@@ATL@@QAE@PBD@Z
  001fe	6a 00		 push	 0
  00200	8b cb		 mov	 ecx, ebx
  00202	e8 00 00 00 00	 call	 ?UseSubColorBtn@CSetting_Common_Type_A@@AAEXHV?$CStringT@DV?$StrTraitMFC_DLL@DV?$ChTraitsCRT@D@ATL@@@@@ATL@@H@Z ; CSetting_Common_Type_A::UseSubColorBtn

; 1093 : 		GetDlgItem( IDC_CHK_FILL_COLOR )->ShowWindow( SW_HIDE );

  00207	6a 00		 push	 0
  00209	68 0b 18 00 00	 push	 6155			; 0000180bH
  0020e	8b cb		 mov	 ecx, ebx
  00210	e8 00 00 00 00	 call	 ?GetDlgItem@CWnd@@QBEPAV1@H@Z ; CWnd::GetDlgItem
  00215	8b c8		 mov	 ecx, eax
  00217	e8 00 00 00 00	 call	 ?ShowWindow@CWnd@@QAEHH@Z ; CWnd::ShowWindow

; 950  : 		UseFillColorBtn( FALSE );
; 951  : 		SetBottonColor(m_btnComositionColor, m_pIGraphInfo->GetSubGraphColor( nSubGraphIndex, 1));

  0021c	8b 8b c4 00 00
	00		 mov	 ecx, DWORD PTR [ebx+196]
  00222	6a 01		 push	 1
  00224	56		 push	 esi
  00225	8b 01		 mov	 eax, DWORD PTR [ecx]
  00227	ff 50 64	 call	 DWORD PTR [eax+100]
  0022a	89 45 ec	 mov	 DWORD PTR $T2[ebp], eax
  0022d	8b cb		 mov	 ecx, ebx
  0022f	8d 45 ec	 lea	 eax, DWORD PTR $T2[ebp]
  00232	50		 push	 eax
  00233	8d 83 a8 12 00
	00		 lea	 eax, DWORD PTR [ebx+4776]
  00239	50		 push	 eax
  0023a	e8 00 00 00 00	 call	 ?SetBottonColor@CSetting_Common_Type_A@@AAEXAAVCColorButton@@ABK@Z ; CSetting_Common_Type_A::SetBottonColor
  0023f	e9 8c 00 00 00	 jmp	 $LN9@Init_Compo
$LN7@Init_Compo:

; 928  : 	{
; 929  : 		UseSubColorBtn( TRUE, "", FALSE );

  00244	6a 00		 push	 0
  00246	51		 push	 ecx
  00247	8b cc		 mov	 ecx, esp
  00249	68 00 00 00 00	 push	 OFFSET ??_C@_00CNPNBAHC@@
  0024e	ff 15 00 00 00
	00		 call	 DWORD PTR __imp_??0?$CStringT@DV?$StrTraitMFC_DLL@DV?$ChTraitsCRT@D@ATL@@@@@ATL@@QAE@PBD@Z
  00254	6a 01		 push	 1
  00256	8b cb		 mov	 ecx, ebx
  00258	e8 00 00 00 00	 call	 ?UseSubColorBtn@CSetting_Common_Type_A@@AAEXHV?$CStringT@DV?$StrTraitMFC_DLL@DV?$ChTraitsCRT@D@ATL@@@@@ATL@@H@Z ; CSetting_Common_Type_A::UseSubColorBtn

; 1093 : 		GetDlgItem( IDC_CHK_FILL_COLOR )->ShowWindow( SW_HIDE );

  0025d	6a 00		 push	 0
  0025f	68 0b 18 00 00	 push	 6155			; 0000180bH
  00264	8b cb		 mov	 ecx, ebx
  00266	e8 00 00 00 00	 call	 ?GetDlgItem@CWnd@@QBEPAV1@H@Z ; CWnd::GetDlgItem
  0026b	8b c8		 mov	 ecx, eax
  0026d	e8 00 00 00 00	 call	 ?ShowWindow@CWnd@@QAEHH@Z ; CWnd::ShowWindow

; 930  : 		UseFillColorBtn( FALSE );
; 931  : 		SetBottonColor(m_btnUp1Color, m_pIGraphInfo->GetSubGraphColor( nSubGraphIndex, 1));

  00272	8b 8b c4 00 00
	00		 mov	 ecx, DWORD PTR [ebx+196]
  00278	6a 01		 push	 1
  0027a	56		 push	 esi
  0027b	8b 01		 mov	 eax, DWORD PTR [ecx]
  0027d	ff 50 64	 call	 DWORD PTR [eax+100]
  00280	89 45 f0	 mov	 DWORD PTR $T6[ebp], eax

; 996  : 	colorButton.SetColor(color);

  00283	8d 8b 80 02 00
	00		 lea	 ecx, DWORD PTR [ebx+640]
  00289	8d 45 f0	 lea	 eax, DWORD PTR $T6[ebp]
  0028c	50		 push	 eax
  0028d	e8 00 00 00 00	 call	 ?SetColor@CColorButton@@QAEXABK@Z ; CColorButton::SetColor
; File C:\Program Files (x86)\Microsoft Visual Studio\2019\Community\VC\Tools\MSVC\14.29.30133\atlmfc\include\afxwin2.inl

; 114  : 	{ ASSERT(::IsWindow(m_hWnd)); ::InvalidateRect(m_hWnd, NULL, bErase); }

  00292	8b 3d 00 00 00
	00		 mov	 edi, DWORD PTR __imp__InvalidateRect@12
  00298	6a 01		 push	 1
  0029a	6a 00		 push	 0
  0029c	ff b3 a0 02 00
	00		 push	 DWORD PTR [ebx+672]
  002a2	ff d7		 call	 edi
; File D:\git\src\IBK\IBK_DRFN\ProjSrc\SrcChartEx\ChartAddIn\ChartEnvSetupDlgAddIn\ChartEnvSetupDlgAddIn\Setting_Common_Type_A.cpp

; 932  : 		SetBottonColor(m_btnDown1Color, m_pIGraphInfo->GetSubGraphColor( nSubGraphIndex, 3));

  002a4	8b 8b c4 00 00
	00		 mov	 ecx, DWORD PTR [ebx+196]
  002aa	6a 03		 push	 3
  002ac	56		 push	 esi
  002ad	8b 01		 mov	 eax, DWORD PTR [ecx]
  002af	ff 50 64	 call	 DWORD PTR [eax+100]
  002b2	89 45 08	 mov	 DWORD PTR $T10[ebp], eax

; 996  : 	colorButton.SetColor(color);

  002b5	8d 8b f8 01 00
	00		 lea	 ecx, DWORD PTR [ebx+504]
  002bb	8d 45 08	 lea	 eax, DWORD PTR $T10[ebp]
  002be	50		 push	 eax
  002bf	e8 00 00 00 00	 call	 ?SetColor@CColorButton@@QAEXABK@Z ; CColorButton::SetColor
; File C:\Program Files (x86)\Microsoft Visual Studio\2019\Community\VC\Tools\MSVC\14.29.30133\atlmfc\include\afxwin2.inl

; 114  : 	{ ASSERT(::IsWindow(m_hWnd)); ::InvalidateRect(m_hWnd, NULL, bErase); }

  002c4	6a 01		 push	 1
  002c6	6a 00		 push	 0
  002c8	ff b3 18 02 00
	00		 push	 DWORD PTR [ebx+536]
  002ce	ff d7		 call	 edi
$LN9@Init_Compo:
; File D:\git\src\IBK\IBK_DRFN\ProjSrc\SrcChartEx\ChartAddIn\ChartEnvSetupDlgAddIn\ChartEnvSetupDlgAddIn\Setting_Common_Type_A.cpp

; 954  : 	return true;

  002d0	b0 01		 mov	 al, 1

; 955  : }

  002d2	8b 4d f4	 mov	 ecx, DWORD PTR __$EHRec$[ebp]
  002d5	64 89 0d 00 00
	00 00		 mov	 DWORD PTR fs:0, ecx
  002dc	59		 pop	 ecx
  002dd	5f		 pop	 edi
  002de	5e		 pop	 esi
  002df	5b		 pop	 ebx
  002e0	8b e5		 mov	 esp, ebp
  002e2	5d		 pop	 ebp
  002e3	c2 04 00	 ret	 4
_TEXT	ENDS
;	COMDAT text$x
text$x	SEGMENT
__unwindfunclet$?Init_Composition_Group_SubGraphColor_LineType@CSetting_Common_Type_A@@AAE_NH@Z$0:
  00000	8d 4d f0	 lea	 ecx, DWORD PTR _strColor$7[ebp]
  00003	ff 25 00 00 00
	00		 jmp	 DWORD PTR __imp_??1?$CStringT@DV?$StrTraitMFC_DLL@DV?$ChTraitsCRT@D@ATL@@@@@ATL@@QAE@XZ
  00009	cc		 int	 3
  0000a	cc		 int	 3
  0000b	cc		 int	 3
  0000c	cc		 int	 3
  0000d	cc		 int	 3
__ehhandler$?Init_Composition_Group_SubGraphColor_LineType@CSetting_Common_Type_A@@AAE_NH@Z:
  0000e	90		 npad	 1
  0000f	90		 npad	 1
  00010	8b 54 24 08	 mov	 edx, DWORD PTR [esp+8]
  00014	8d 42 0c	 lea	 eax, DWORD PTR [edx+12]
  00017	8b 4a e8	 mov	 ecx, DWORD PTR [edx-24]
  0001a	33 c8		 xor	 ecx, eax
  0001c	e8 00 00 00 00	 call	 @__security_check_cookie@4
  00021	b8 00 00 00 00	 mov	 eax, OFFSET __ehfuncinfo$?Init_Composition_Group_SubGraphColor_LineType@CSetting_Common_Type_A@@AAE_NH@Z
  00026	e9 00 00 00 00	 jmp	 ___CxxFrameHandler3
text$x	ENDS
?Init_Composition_Group_SubGraphColor_LineType@CSetting_Common_Type_A@@AAE_NH@Z ENDP ; CSetting_Common_Type_A::Init_Composition_Group_SubGraphColor_LineType
; Function compile flags: /Ogtp
; File D:\git\src\IBK\IBK_DRFN\ProjSrc\SrcChartEx\ChartAddIn\ChartEnvSetupDlgAddIn\ChartEnvSetupDlgAddIn\Setting_Common_Type_A.cpp
; File C:\Program Files (x86)\Microsoft Visual Studio\2019\Community\VC\Tools\MSVC\14.29.30133\atlmfc\include\afxwin2.inl
; File D:\git\src\IBK\IBK_DRFN\ProjSrc\SrcChartEx\ChartAddIn\ChartEnvSetupDlgAddIn\ChartEnvSetupDlgAddIn\Setting_Common_Type_A.cpp
;	COMDAT ?Init_Composition_Group_SubGraphColor@CSetting_Common_Type_A@@AAEXH@Z
_TEXT	SEGMENT
$T1 = 8							; size = 4
_nSubGraphIndex$ = 8					; size = 4
?Init_Composition_Group_SubGraphColor@CSetting_Common_Type_A@@AAEXH@Z PROC ; CSetting_Common_Type_A::Init_Composition_Group_SubGraphColor, COMDAT
; _this$ = ecx

; 885  : {

  00000	55		 push	 ebp
  00001	8b ec		 mov	 ebp, esp
  00003	56		 push	 esi

; 886  : 	if(nSubGraphIndex < 0) return;

  00004	8b 75 08	 mov	 esi, DWORD PTR _nSubGraphIndex$[ebp]
  00007	57		 push	 edi
  00008	8b f9		 mov	 edi, ecx
  0000a	85 f6		 test	 esi, esi
  0000c	78 5f		 js	 SHORT $LN1@Init_Compo

; 887  : 
; 888  : 	// ""
; 889  : 	if(Init_Composition_Group_SubGraphColor_LineType( nSubGraphIndex ))

  0000e	56		 push	 esi
  0000f	e8 00 00 00 00	 call	 ?Init_Composition_Group_SubGraphColor_LineType@CSetting_Common_Type_A@@AAE_NH@Z ; CSetting_Common_Type_A::Init_Composition_Group_SubGraphColor_LineType
  00014	84 c0		 test	 al, al
  00016	75 55		 jne	 SHORT $LN1@Init_Compo

; 890  : 		return;
; 891  : 
; 892  : 	// ""
; 893  : 	if(Init_Composition_Group_SubGraphColor_BoxType( nSubGraphIndex ))

  00018	56		 push	 esi
  00019	8b cf		 mov	 ecx, edi
  0001b	e8 00 00 00 00	 call	 ?Init_Composition_Group_SubGraphColor_BoxType@CSetting_Common_Type_A@@AAE_NH@Z ; CSetting_Common_Type_A::Init_Composition_Group_SubGraphColor_BoxType
  00020	84 c0		 test	 al, al
  00022	75 49		 jne	 SHORT $LN1@Init_Compo

; 894  : 		return;
; 895  : 
; 896  : 	UseSubColorBtn( FALSE );

  00024	6a 01		 push	 1
  00026	51		 push	 ecx
  00027	8b cc		 mov	 ecx, esp
  00029	68 00 00 00 00	 push	 OFFSET ??_C@_00CNPNBAHC@@
  0002e	ff 15 00 00 00
	00		 call	 DWORD PTR __imp_??0?$CStringT@DV?$StrTraitMFC_DLL@DV?$ChTraitsCRT@D@ATL@@@@@ATL@@QAE@PBD@Z
  00034	6a 00		 push	 0
  00036	8b cf		 mov	 ecx, edi
  00038	e8 00 00 00 00	 call	 ?UseSubColorBtn@CSetting_Common_Type_A@@AAEXHV?$CStringT@DV?$StrTraitMFC_DLL@DV?$ChTraitsCRT@D@ATL@@@@@ATL@@H@Z ; CSetting_Common_Type_A::UseSubColorBtn

; 897  : 	SetBottonColor(m_btnComositionColor, m_pIGraphInfo->GetSubGraphColor( nSubGraphIndex, 1));

  0003d	8b 8f c4 00 00
	00		 mov	 ecx, DWORD PTR [edi+196]
  00043	6a 01		 push	 1
  00045	56		 push	 esi
  00046	8b 01		 mov	 eax, DWORD PTR [ecx]
  00048	ff 50 64	 call	 DWORD PTR [eax+100]
  0004b	89 45 08	 mov	 DWORD PTR $T1[ebp], eax

; 996  : 	colorButton.SetColor(color);

  0004e	8d 8f a8 12 00
	00		 lea	 ecx, DWORD PTR [edi+4776]
  00054	8d 45 08	 lea	 eax, DWORD PTR $T1[ebp]
  00057	50		 push	 eax
  00058	e8 00 00 00 00	 call	 ?SetColor@CColorButton@@QAEXABK@Z ; CColorButton::SetColor
; File C:\Program Files (x86)\Microsoft Visual Studio\2019\Community\VC\Tools\MSVC\14.29.30133\atlmfc\include\afxwin2.inl

; 114  : 	{ ASSERT(::IsWindow(m_hWnd)); ::InvalidateRect(m_hWnd, NULL, bErase); }

  0005d	6a 01		 push	 1
  0005f	6a 00		 push	 0
  00061	ff b7 c8 12 00
	00		 push	 DWORD PTR [edi+4808]
  00067	ff 15 00 00 00
	00		 call	 DWORD PTR __imp__InvalidateRect@12
$LN1@Init_Compo:
; File D:\git\src\IBK\IBK_DRFN\ProjSrc\SrcChartEx\ChartAddIn\ChartEnvSetupDlgAddIn\ChartEnvSetupDlgAddIn\Setting_Common_Type_A.cpp

; 898  : }

  0006d	5f		 pop	 edi
  0006e	5e		 pop	 esi
  0006f	5d		 pop	 ebp
  00070	c2 04 00	 ret	 4
?Init_Composition_Group_SubGraphColor@CSetting_Common_Type_A@@AAEXH@Z ENDP ; CSetting_Common_Type_A::Init_Composition_Group_SubGraphColor
_TEXT	ENDS
; Function compile flags: /Ogtp
; File D:\git\src\IBK\IBK_DRFN\ProjSrc\SrcChartEx\ChartAddIn\ChartEnvSetupDlgAddIn\ChartEnvSetupDlgAddIn\Setting_Common_Type_A.cpp
; File C:\Program Files (x86)\Microsoft Visual Studio\2019\Community\VC\Tools\MSVC\14.29.30133\atlmfc\include\afxwin2.inl
; File D:\git\src\IBK\IBK_DRFN\ProjSrc\SrcChartEx\ChartAddIn\ChartEnvSetupDlgAddIn\ChartEnvSetupDlgAddIn\Setting_Common_Type_A.cpp
; File C:\Program Files (x86)\Microsoft Visual Studio\2019\Community\VC\Tools\MSVC\14.29.30133\atlmfc\include\afxwin2.inl
; File D:\git\src\IBK\IBK_DRFN\ProjSrc\SrcChartEx\ChartAddIn\ChartEnvSetupDlgAddIn\ChartEnvSetupDlgAddIn\Setting_Common_Type_A.cpp
; File C:\Program Files (x86)\Microsoft Visual Studio\2019\Community\VC\Tools\MSVC\14.29.30133\atlmfc\include\afxwin2.inl
; File D:\git\src\IBK\IBK_DRFN\ProjSrc\SrcChartEx\ChartAddIn\ChartEnvSetupDlgAddIn\ChartEnvSetupDlgAddIn\Setting_Common_Type_A.cpp
; File C:\Program Files (x86)\Microsoft Visual Studio\2019\Community\VC\Tools\MSVC\14.29.30133\atlmfc\include\afxwin2.inl
; File D:\git\src\IBK\IBK_DRFN\ProjSrc\SrcChartEx\ChartAddIn\ChartEnvSetupDlgAddIn\ChartEnvSetupDlgAddIn\Setting_Common_Type_A.cpp
;	COMDAT ?Init_Composition_Group_SubGraphLine@CSetting_Common_Type_A@@AAEXH@Z
_TEXT	SEGMENT
_nSubGraphIndex$ = 8					; size = 4
?Init_Composition_Group_SubGraphLine@CSetting_Common_Type_A@@AAEXH@Z PROC ; CSetting_Common_Type_A::Init_Composition_Group_SubGraphLine, COMDAT
; _this$ = ecx

; 850  : {

  00000	55		 push	 ebp
  00001	8b ec		 mov	 ebp, esp
  00003	56		 push	 esi
  00004	57		 push	 edi

; 851  : 	if(nSubGraphIndex < 0) return;

  00005	8b 7d 08	 mov	 edi, DWORD PTR _nSubGraphIndex$[ebp]
  00008	8b f1		 mov	 esi, ecx
  0000a	85 ff		 test	 edi, edi
  0000c	0f 88 99 00 00
	00		 js	 $LN6@Init_Compo
; File C:\Program Files (x86)\Microsoft Visual Studio\2019\Community\VC\Tools\MSVC\14.29.30133\atlmfc\include\afxwin2.inl

; 763  : 	{ ASSERT(::IsWindow(m_hWnd)); return (int)::SendMessage(m_hWnd, CB_GETCOUNT, 0, 0); }

  00012	53		 push	 ebx
  00013	8b 1d 00 00 00
	00		 mov	 ebx, DWORD PTR __imp__SendMessageA@16
  00019	6a 00		 push	 0
  0001b	6a 00		 push	 0
  0001d	68 46 01 00 00	 push	 326			; 00000146H
  00022	ff b6 b8 10 00
	00		 push	 DWORD PTR [esi+4280]
  00028	ff d3		 call	 ebx
; File D:\git\src\IBK\IBK_DRFN\ProjSrc\SrcChartEx\ChartAddIn\ChartEnvSetupDlgAddIn\ChartEnvSetupDlgAddIn\Setting_Common_Type_A.cpp

; 854  : 	if( m_cmbThickness.GetCount() == 0 )

  0002a	85 c0		 test	 eax, eax
  0002c	75 13		 jne	 SHORT $LN3@Init_Compo

; 855  : 		Initial_ThicknessComboBox( nSubGraphIndex, 0, m_cmbThickness );

  0002e	8d 86 98 10 00
	00		 lea	 eax, DWORD PTR [esi+4248]
  00034	8b ce		 mov	 ecx, esi
  00036	50		 push	 eax
  00037	6a 00		 push	 0
  00039	57		 push	 edi
  0003a	e8 00 00 00 00	 call	 ?Initial_ThicknessComboBox@CBaseDialog@@IAEXHHAAVCBitmapItemComboBox@@@Z ; CBaseDialog::Initial_ThicknessComboBox
  0003f	eb 22		 jmp	 SHORT $LN4@Init_Compo
$LN3@Init_Compo:

; 857  : 		m_cmbThickness.SetCurSel( m_pIGraphInfo->GetSubGraphPenThickness( nSubGraphIndex, 1) - 1);

  00041	8b 8e c4 00 00
	00		 mov	 ecx, DWORD PTR [esi+196]
  00047	6a 01		 push	 1
  00049	57		 push	 edi
  0004a	8b 01		 mov	 eax, DWORD PTR [ecx]
  0004c	ff 90 80 00 00
	00		 call	 DWORD PTR [eax+128]
; File C:\Program Files (x86)\Microsoft Visual Studio\2019\Community\VC\Tools\MSVC\14.29.30133\atlmfc\include\afxwin2.inl

; 767  : 	{ ASSERT(::IsWindow(m_hWnd)); return (int)::SendMessage(m_hWnd, CB_SETCURSEL, nSelect, 0); }

  00052	6a 00		 push	 0
; File D:\git\src\IBK\IBK_DRFN\ProjSrc\SrcChartEx\ChartAddIn\ChartEnvSetupDlgAddIn\ChartEnvSetupDlgAddIn\Setting_Common_Type_A.cpp

; 857  : 		m_cmbThickness.SetCurSel( m_pIGraphInfo->GetSubGraphPenThickness( nSubGraphIndex, 1) - 1);

  00054	48		 dec	 eax
; File C:\Program Files (x86)\Microsoft Visual Studio\2019\Community\VC\Tools\MSVC\14.29.30133\atlmfc\include\afxwin2.inl

; 767  : 	{ ASSERT(::IsWindow(m_hWnd)); return (int)::SendMessage(m_hWnd, CB_SETCURSEL, nSelect, 0); }

  00055	50		 push	 eax
  00056	68 4e 01 00 00	 push	 334			; 0000014eH
  0005b	ff b6 b8 10 00
	00		 push	 DWORD PTR [esi+4280]
  00061	ff d3		 call	 ebx
$LN4@Init_Compo:

; 763  : 	{ ASSERT(::IsWindow(m_hWnd)); return (int)::SendMessage(m_hWnd, CB_GETCOUNT, 0, 0); }

  00063	6a 00		 push	 0
  00065	6a 00		 push	 0
  00067	68 46 01 00 00	 push	 326			; 00000146H
  0006c	ff b6 40 11 00
	00		 push	 DWORD PTR [esi+4416]
  00072	ff d3		 call	 ebx
; File D:\git\src\IBK\IBK_DRFN\ProjSrc\SrcChartEx\ChartAddIn\ChartEnvSetupDlgAddIn\ChartEnvSetupDlgAddIn\Setting_Common_Type_A.cpp

; 860  : 	if( m_cmbLineType.GetCount() == 0 )

  00074	85 c0		 test	 eax, eax
  00076	75 16		 jne	 SHORT $LN5@Init_Compo

; 861  : 		Initial_DrawStyleComboBox( nSubGraphIndex, m_cmbLineType );

  00078	8d 86 20 11 00
	00		 lea	 eax, DWORD PTR [esi+4384]
  0007e	8b ce		 mov	 ecx, esi
  00080	50		 push	 eax
  00081	57		 push	 edi
  00082	e8 00 00 00 00	 call	 ?Initial_DrawStyleComboBox@CBaseDialog@@IAEXHAAVCBitmapItemComboBox@@@Z ; CBaseDialog::Initial_DrawStyleComboBox
  00087	5b		 pop	 ebx
  00088	5f		 pop	 edi

; 864  : }

  00089	5e		 pop	 esi
  0008a	5d		 pop	 ebp
  0008b	c2 04 00	 ret	 4
$LN5@Init_Compo:

; 862  : 	else
; 863  : 		m_cmbLineType.SetCurSel( m_pIGraphInfo->GetSubGraphDrawStyle( nSubGraphIndex));

  0008e	8b 8e c4 00 00
	00		 mov	 ecx, DWORD PTR [esi+196]
  00094	57		 push	 edi
  00095	8b 01		 mov	 eax, DWORD PTR [ecx]
  00097	ff 50 5c	 call	 DWORD PTR [eax+92]
; File C:\Program Files (x86)\Microsoft Visual Studio\2019\Community\VC\Tools\MSVC\14.29.30133\atlmfc\include\afxwin2.inl

; 767  : 	{ ASSERT(::IsWindow(m_hWnd)); return (int)::SendMessage(m_hWnd, CB_SETCURSEL, nSelect, 0); }

  0009a	6a 00		 push	 0
  0009c	50		 push	 eax
  0009d	68 4e 01 00 00	 push	 334			; 0000014eH
  000a2	ff b6 40 11 00
	00		 push	 DWORD PTR [esi+4416]
  000a8	ff d3		 call	 ebx
  000aa	5b		 pop	 ebx
$LN6@Init_Compo:
  000ab	5f		 pop	 edi
; File D:\git\src\IBK\IBK_DRFN\ProjSrc\SrcChartEx\ChartAddIn\ChartEnvSetupDlgAddIn\ChartEnvSetupDlgAddIn\Setting_Common_Type_A.cpp

; 864  : }

  000ac	5e		 pop	 esi
  000ad	5d		 pop	 ebp
  000ae	c2 04 00	 ret	 4
?Init_Composition_Group_SubGraphLine@CSetting_Common_Type_A@@AAEXH@Z ENDP ; CSetting_Common_Type_A::Init_Composition_Group_SubGraphLine
_TEXT	ENDS
; Function compile flags: /Ogtp
; File D:\git\src\IBK\IBK_DRFN\ProjSrc\SrcChartEx\ChartAddIn\ChartEnvSetupDlgAddIn\ChartEnvSetupDlgAddIn\Setting_Common_Type_A.cpp
; File D:\git\src\IBK\IBK_DRFN\ProjSrc\SrcChartEx\ChartAddIn\ChartEnvSetupDlgAddIn\Include_AddIn_135914\I135914\_IString.h
; File D:\git\src\IBK\IBK_DRFN\ProjSrc\SrcChartEx\ChartAddIn\ChartEnvSetupDlgAddIn\ChartEnvSetupDlgAddIn\Setting_Common_Type_A.cpp
; File C:\Program Files (x86)\Microsoft Visual Studio\2019\Community\VC\Tools\MSVC\14.29.30133\atlmfc\include\atlsimpstr.h
; File D:\git\src\IBK\IBK_DRFN\ProjSrc\SrcChartEx\ChartAddIn\ChartEnvSetupDlgAddIn\ChartEnvSetupDlgAddIn\Setting_Common_Type_A.cpp
; File C:\Program Files (x86)\Microsoft Visual Studio\2019\Community\VC\Tools\MSVC\14.29.30133\atlmfc\include\atlsimpstr.h
; File D:\git\src\IBK\IBK_DRFN\ProjSrc\SrcChartEx\ChartAddIn\ChartEnvSetupDlgAddIn\ChartEnvSetupDlgAddIn\Setting_Common_Type_A.cpp
; File D:\git\src\IBK\IBK_DRFN\ProjSrc\SrcChartEx\ChartAddIn\ChartEnvSetupDlgAddIn\Include_AddIn_135914\I135914\_IString.h
; File D:\git\src\IBK\IBK_DRFN\ProjSrc\SrcChartEx\ChartAddIn\ChartEnvSetupDlgAddIn\ChartEnvSetupDlgAddIn\Setting_Common_Type_A.cpp
;	COMDAT ?Init_Composition_Group_SubGraphTitle@CSetting_Common_Type_A@@AAEXH@Z
_TEXT	SEGMENT
_szSubGraphTitle$ = -20					; size = 8
__$EHRec$ = -12						; size = 12
_strUIText$ = 8						; size = 4
_nSubGraphIndex$ = 8					; size = 4
?Init_Composition_Group_SubGraphTitle@CSetting_Common_Type_A@@AAEXH@Z PROC ; CSetting_Common_Type_A::Init_Composition_Group_SubGraphTitle, COMDAT
; _this$ = ecx

; 835  : {

  00000	55		 push	 ebp
  00001	8b ec		 mov	 ebp, esp
  00003	6a ff		 push	 -1
  00005	68 00 00 00 00	 push	 __ehhandler$?Init_Composition_Group_SubGraphTitle@CSetting_Common_Type_A@@AAEXH@Z
  0000a	64 a1 00 00 00
	00		 mov	 eax, DWORD PTR fs:0
  00010	50		 push	 eax
  00011	83 ec 08	 sub	 esp, 8
  00014	53		 push	 ebx
  00015	56		 push	 esi
  00016	57		 push	 edi
  00017	a1 00 00 00 00	 mov	 eax, DWORD PTR ___security_cookie
  0001c	33 c5		 xor	 eax, ebp
  0001e	50		 push	 eax
  0001f	8d 45 f4	 lea	 eax, DWORD PTR __$EHRec$[ebp]
  00022	64 a3 00 00 00
	00		 mov	 DWORD PTR fs:0, eax
  00028	8b d9		 mov	 ebx, ecx

; 836  : 	if(nSubGraphIndex < 0) return;

  0002a	8b 55 08	 mov	 edx, DWORD PTR _nSubGraphIndex$[ebp]
  0002d	85 d2		 test	 edx, edx
  0002f	0f 88 a0 00 00
	00		 js	 $LN20@Init_Compo

; 839  : 	ILPCSTR szSubGraphTitle = m_pIGraphInfo->GetSubGraphTitleString( nSubGraphIndex);

  00035	8b 8b c4 00 00
	00		 mov	 ecx, DWORD PTR [ebx+196]
  0003b	52		 push	 edx
  0003c	8b 01		 mov	 eax, DWORD PTR [ecx]
  0003e	ff 50 48	 call	 DWORD PTR [eax+72]
; File D:\git\src\IBK\IBK_DRFN\ProjSrc\SrcChartEx\ChartAddIn\ChartEnvSetupDlgAddIn\Include_AddIn_135914\I135914\_IString.h

; 39   : 		m_pIStrData = p_pIString;	// Do not AddRef(). Because It must be Return Value.

  00041	8b f0		 mov	 esi, eax
  00043	89 75 f0	 mov	 DWORD PTR _szSubGraphTitle$[ebp+4], esi

; 40   : 		if( m_pIStrData) m_szData = m_pIStrData->GetData();

  00046	85 f6		 test	 esi, esi
  00048	74 0b		 je	 SHORT $LN8@Init_Compo
  0004a	8b 16		 mov	 edx, DWORD PTR [esi]
  0004c	8b ce		 mov	 ecx, esi
  0004e	ff 52 10	 call	 DWORD PTR [edx+16]
  00051	8b f8		 mov	 edi, eax
  00053	eb 02		 jmp	 SHORT $LN24@Init_Compo
$LN8@Init_Compo:

; 41   : 		else m_szData = NULL;

  00055	33 ff		 xor	 edi, edi
$LN24@Init_Compo:
; File D:\git\src\IBK\IBK_DRFN\ProjSrc\SrcChartEx\ChartAddIn\ChartEnvSetupDlgAddIn\ChartEnvSetupDlgAddIn\Setting_Common_Type_A.cpp

; 839  : 	ILPCSTR szSubGraphTitle = m_pIGraphInfo->GetSubGraphTitleString( nSubGraphIndex);

  00057	89 7d ec	 mov	 DWORD PTR _szSubGraphTitle$[ebp], edi

; 842  : 	CString strUIText = _MTOL1_N( szSubGraphTitle); 

  0005a	6a 01		 push	 1
  0005c	57		 push	 edi
  0005d	6a 01		 push	 1
  0005f	ff b3 d8 00 00
	00		 push	 DWORD PTR [ebx+216]
  00065	b9 00 00 00 00	 mov	 ecx, OFFSET ?g_iMetaTable@@3VIMetaTable@@A ; g_iMetaTable
  0006a	c7 45 fc 00 00
	00 00		 mov	 DWORD PTR __$EHRec$[ebp+8], 0
  00071	e8 00 00 00 00	 call	 ?GetLanguageText@IMetaTable@@QAEPBDPAUHWND__@@W4E_CODEPAGE@1@PBDH@Z ; IMetaTable::GetLanguageText
  00076	50		 push	 eax
  00077	8d 4d 08	 lea	 ecx, DWORD PTR _strUIText$[ebp]
  0007a	ff 15 00 00 00
	00		 call	 DWORD PTR __imp_??0?$CStringT@DV?$StrTraitMFC_DLL@DV?$ChTraitsCRT@D@ATL@@@@@ATL@@QAE@PBD@Z
; File C:\Program Files (x86)\Microsoft Visual Studio\2019\Community\VC\Tools\MSVC\14.29.30133\atlmfc\include\atlsimpstr.h

; 519  : 		return( GetData()->nDataLength );

  00080	8b 45 08	 mov	 eax, DWORD PTR _strUIText$[ebp]
; File D:\git\src\IBK\IBK_DRFN\ProjSrc\SrcChartEx\ChartAddIn\ChartEnvSetupDlgAddIn\ChartEnvSetupDlgAddIn\Setting_Common_Type_A.cpp

; 842  : 	CString strUIText = _MTOL1_N( szSubGraphTitle); 

  00083	c6 45 fc 01	 mov	 BYTE PTR __$EHRec$[ebp+8], 1
; File C:\Program Files (x86)\Microsoft Visual Studio\2019\Community\VC\Tools\MSVC\14.29.30133\atlmfc\include\atlsimpstr.h

; 533  : 		return( GetLength() == 0 );

  00087	83 78 f4 00	 cmp	 DWORD PTR [eax-12], 0
; File D:\git\src\IBK\IBK_DRFN\ProjSrc\SrcChartEx\ChartAddIn\ChartEnvSetupDlgAddIn\ChartEnvSetupDlgAddIn\Setting_Common_Type_A.cpp

; 843  : 	if( strUIText.IsEmpty()) strUIText = _MTOL3( szSubGraphTitle);

  0008b	75 22		 jne	 SHORT $LN3@Init_Compo
  0008d	6a 00		 push	 0
  0008f	57		 push	 edi
  00090	6a 03		 push	 3
  00092	ff b3 d8 00 00
	00		 push	 DWORD PTR [ebx+216]
  00098	b9 00 00 00 00	 mov	 ecx, OFFSET ?g_iMetaTable@@3VIMetaTable@@A ; g_iMetaTable
  0009d	e8 00 00 00 00	 call	 ?GetLanguageText@IMetaTable@@QAEPBDPAUHWND__@@W4E_CODEPAGE@1@PBDH@Z ; IMetaTable::GetLanguageText
  000a2	50		 push	 eax
  000a3	8d 4d 08	 lea	 ecx, DWORD PTR _strUIText$[ebp]
  000a6	ff 15 00 00 00
	00		 call	 DWORD PTR __imp_??4?$CStringT@DV?$StrTraitMFC_DLL@DV?$ChTraitsCRT@D@ATL@@@@@ATL@@QAEAAV01@PBD@Z
  000ac	8b 45 08	 mov	 eax, DWORD PTR _strUIText$[ebp]
$LN3@Init_Compo:

; 844  : 
; 845  : 	m_edtCompositionTitleData.SetWindowText( strUIText );

  000af	50		 push	 eax
  000b0	8d 8b 18 10 00
	00		 lea	 ecx, DWORD PTR [ebx+4120]
  000b6	e8 00 00 00 00	 call	 ?SetWindowTextA@CWnd@@QAEXPBD@Z ; CWnd::SetWindowTextA

; 847  : }

  000bb	8d 4d 08	 lea	 ecx, DWORD PTR _strUIText$[ebp]
  000be	ff 15 00 00 00
	00		 call	 DWORD PTR __imp_??1?$CStringT@DV?$StrTraitMFC_DLL@DV?$ChTraitsCRT@D@ATL@@@@@ATL@@QAE@XZ
; File D:\git\src\IBK\IBK_DRFN\ProjSrc\SrcChartEx\ChartAddIn\ChartEnvSetupDlgAddIn\Include_AddIn_135914\I135914\_IString.h

; 44   : 	{

  000c4	c7 45 fc 02 00
	00 00		 mov	 DWORD PTR __$EHRec$[ebp+8], 2

; 45   : 		if( m_pIStrData)

  000cb	85 f6		 test	 esi, esi
  000cd	74 06		 je	 SHORT $LN20@Init_Compo

; 46   : 		{
; 47   : 			m_pIStrData->Release();

  000cf	8b 06		 mov	 eax, DWORD PTR [esi]
  000d1	56		 push	 esi
  000d2	ff 50 08	 call	 DWORD PTR [eax+8]
$LN20@Init_Compo:
; File D:\git\src\IBK\IBK_DRFN\ProjSrc\SrcChartEx\ChartAddIn\ChartEnvSetupDlgAddIn\ChartEnvSetupDlgAddIn\Setting_Common_Type_A.cpp

; 847  : }

  000d5	8b 4d f4	 mov	 ecx, DWORD PTR __$EHRec$[ebp]
  000d8	64 89 0d 00 00
	00 00		 mov	 DWORD PTR fs:0, ecx
  000df	59		 pop	 ecx
  000e0	5f		 pop	 edi
  000e1	5e		 pop	 esi
  000e2	5b		 pop	 ebx
  000e3	8b e5		 mov	 esp, ebp
  000e5	5d		 pop	 ebp
  000e6	c2 04 00	 ret	 4
_TEXT	ENDS
;	COMDAT text$x
text$x	SEGMENT
__unwindfunclet$?Init_Composition_Group_SubGraphTitle@CSetting_Common_Type_A@@AAEXH@Z$0:
  00000	8d 4d ec	 lea	 ecx, DWORD PTR _szSubGraphTitle$[ebp]
  00003	e9 00 00 00 00	 jmp	 ??1ILPCSTR135914@@QAE@XZ ; ILPCSTR135914::~ILPCSTR135914
__unwindfunclet$?Init_Composition_Group_SubGraphTitle@CSetting_Common_Type_A@@AAEXH@Z$1:
  00008	8d 4d 08	 lea	 ecx, DWORD PTR _strUIText$[ebp]
  0000b	ff 25 00 00 00
	00		 jmp	 DWORD PTR __imp_??1?$CStringT@DV?$StrTraitMFC_DLL@DV?$ChTraitsCRT@D@ATL@@@@@ATL@@QAE@XZ
  00011	cc		 int	 3
  00012	cc		 int	 3
  00013	cc		 int	 3
  00014	cc		 int	 3
  00015	cc		 int	 3
__ehhandler$?Init_Composition_Group_SubGraphTitle@CSetting_Common_Type_A@@AAEXH@Z:
  00016	90		 npad	 1
  00017	90		 npad	 1
  00018	8b 54 24 08	 mov	 edx, DWORD PTR [esp+8]
  0001c	8d 42 0c	 lea	 eax, DWORD PTR [edx+12]
  0001f	8b 4a e8	 mov	 ecx, DWORD PTR [edx-24]
  00022	33 c8		 xor	 ecx, eax
  00024	e8 00 00 00 00	 call	 @__security_check_cookie@4
  00029	b8 00 00 00 00	 mov	 eax, OFFSET __ehfuncinfo$?Init_Composition_Group_SubGraphTitle@CSetting_Common_Type_A@@AAEXH@Z
  0002e	e9 00 00 00 00	 jmp	 ___CxxFrameHandler3
text$x	ENDS
?Init_Composition_Group_SubGraphTitle@CSetting_Common_Type_A@@AAEXH@Z ENDP ; CSetting_Common_Type_A::Init_Composition_Group_SubGraphTitle
; Function compile flags: /Ogtp
; File D:\git\src\IBK\IBK_DRFN\ProjSrc\SrcChartEx\ChartAddIn\ChartEnvSetupDlgAddIn\ChartEnvSetupDlgAddIn\Setting_Common_Type_A.cpp
; File C:\Program Files (x86)\Microsoft Visual Studio\2019\Community\VC\Tools\MSVC\14.29.30133\atlmfc\include\afxcmn.inl
; File D:\git\src\IBK\IBK_DRFN\ProjSrc\SrcChartEx\ChartAddIn\ChartEnvSetupDlgAddIn\Include_AddIn_135914\I135914\_IString.h
; File D:\git\src\IBK\IBK_DRFN\ProjSrc\SrcChartEx\ChartAddIn\ChartEnvSetupDlgAddIn\ChartEnvSetupDlgAddIn\Setting_Common_Type_A.cpp
; File D:\git\src\IBK\IBK_DRFN\ProjSrc\SrcChartEx\ChartAddIn\ChartEnvSetupDlgAddIn\Include_AddIn_135914\I135914\_IString.h
; File D:\git\src\IBK\IBK_DRFN\ProjSrc\SrcChartEx\ChartAddIn\ChartEnvSetupDlgAddIn\ChartEnvSetupDlgAddIn\Setting_Common_Type_A.cpp
; File D:\git\src\IBK\IBK_DRFN\ProjSrc\SrcChartEx\ChartAddIn\ChartEnvSetupDlgAddIn\Include_AddIn_135914\I135914\_IString.h
; File D:\git\src\IBK\IBK_DRFN\ProjSrc\SrcChartEx\ChartAddIn\ChartEnvSetupDlgAddIn\ChartEnvSetupDlgAddIn\Setting_Common_Type_A.cpp
; File C:\Program Files (x86)\Microsoft Visual Studio\2019\Community\VC\Tools\MSVC\14.29.30133\atlmfc\include\afxcmn.inl
; File D:\git\src\IBK\IBK_DRFN\ProjSrc\SrcChartEx\ChartAddIn\ChartEnvSetupDlgAddIn\ChartEnvSetupDlgAddIn\Setting_Common_Type_A.cpp
; File D:\git\src\IBK\IBK_DRFN\ProjSrc\SrcChartEx\ChartAddIn\ChartEnvSetupDlgAddIn\Include_AddIn_135914\I135914\_IString.h
; File D:\git\src\IBK\IBK_DRFN\ProjSrc\SrcChartEx\ChartAddIn\ChartEnvSetupDlgAddIn\ChartEnvSetupDlgAddIn\Setting_Common_Type_A.cpp
;	COMDAT ?Init_Composition_Group_SubGraphItem@CSetting_Common_Type_A@@AAEXXZ
_TEXT	SEGMENT
_szSubGraphName$ = -36					; size = 8
_this$1$ = -28						; size = 4
_nCount$1$ = -24					; size = 4
_bShowFlag$ = -20					; size = 4
_strUIText$ = -16					; size = 4
__$EHRec$ = -12						; size = 12
?Init_Composition_Group_SubGraphItem@CSetting_Common_Type_A@@AAEXXZ PROC ; CSetting_Common_Type_A::Init_Composition_Group_SubGraphItem, COMDAT
; _this$ = ecx

; 809  : {

  00000	55		 push	 ebp
  00001	8b ec		 mov	 ebp, esp
  00003	6a ff		 push	 -1
  00005	68 00 00 00 00	 push	 __ehhandler$?Init_Composition_Group_SubGraphItem@CSetting_Common_Type_A@@AAEXXZ
  0000a	64 a1 00 00 00
	00		 mov	 eax, DWORD PTR fs:0
  00010	50		 push	 eax
  00011	83 ec 18	 sub	 esp, 24			; 00000018H
  00014	53		 push	 ebx
  00015	56		 push	 esi
  00016	57		 push	 edi
  00017	a1 00 00 00 00	 mov	 eax, DWORD PTR ___security_cookie
  0001c	33 c5		 xor	 eax, ebp
  0001e	50		 push	 eax
  0001f	8d 45 f4	 lea	 eax, DWORD PTR __$EHRec$[ebp]
  00022	64 a3 00 00 00
	00		 mov	 DWORD PTR fs:0, eax
  00028	8b f1		 mov	 esi, ecx
  0002a	89 75 e4	 mov	 DWORD PTR _this$1$[ebp], esi
; File C:\Program Files (x86)\Microsoft Visual Studio\2019\Community\VC\Tools\MSVC\14.29.30133\atlmfc\include\afxcmn.inl

; 171  : 	{ ASSERT(::IsWindow(m_hWnd)); return (BOOL) ::SendMessage(m_hWnd, LVM_DELETEALLITEMS, 0, 0L); }

  0002d	6a 00		 push	 0
  0002f	6a 00		 push	 0
  00031	68 09 10 00 00	 push	 4105			; 00001009H
  00036	ff b6 50 13 00
	00		 push	 DWORD PTR [esi+4944]
  0003c	ff 15 00 00 00
	00		 call	 DWORD PTR __imp__SendMessageA@16
; File D:\git\src\IBK\IBK_DRFN\ProjSrc\SrcChartEx\ChartAddIn\ChartEnvSetupDlgAddIn\Include_AddIn_135914\I135914\_IString.h

; 39   : 		m_pIStrData = p_pIString;	// Do not AddRef(). Because It must be Return Value.

  00042	33 ff		 xor	 edi, edi
; File D:\git\src\IBK\IBK_DRFN\ProjSrc\SrcChartEx\ChartAddIn\ChartEnvSetupDlgAddIn\ChartEnvSetupDlgAddIn\Setting_Common_Type_A.cpp

; 813  : 	BOOL bShowFlag = FALSE;

  00044	c7 45 ec 00 00
	00 00		 mov	 DWORD PTR _bShowFlag$[ebp], 0
; File D:\git\src\IBK\IBK_DRFN\ProjSrc\SrcChartEx\ChartAddIn\ChartEnvSetupDlgAddIn\Include_AddIn_135914\I135914\_IString.h

; 39   : 		m_pIStrData = p_pIString;	// Do not AddRef(). Because It must be Return Value.

  0004b	89 7d e0	 mov	 DWORD PTR _szSubGraphName$[ebp+4], edi

; 40   : 		if( m_pIStrData) m_szData = m_pIStrData->GetData();
; 41   : 		else m_szData = NULL;

  0004e	89 7d dc	 mov	 DWORD PTR _szSubGraphName$[ebp], edi
; File D:\git\src\IBK\IBK_DRFN\ProjSrc\SrcChartEx\ChartAddIn\ChartEnvSetupDlgAddIn\ChartEnvSetupDlgAddIn\Setting_Common_Type_A.cpp

; 815  : 	int nCount = m_pIGraphInfo->GetSubGraphCount();

  00051	8b 8e c4 00 00
	00		 mov	 ecx, DWORD PTR [esi+196]
  00057	89 7d fc	 mov	 DWORD PTR __$EHRec$[ebp+8], edi
  0005a	8b 01		 mov	 eax, DWORD PTR [ecx]
  0005c	ff 50 2c	 call	 DWORD PTR [eax+44]

; 816  : // 2008.01.25 by LYH >>
; 817  : 	CString strUIText;

  0005f	8d 4d f0	 lea	 ecx, DWORD PTR _strUIText$[ebp]
  00062	89 45 e8	 mov	 DWORD PTR _nCount$1$[ebp], eax
  00065	ff 15 00 00 00
	00		 call	 DWORD PTR __imp_??0?$CStringT@DV?$StrTraitMFC_DLL@DV?$ChTraitsCRT@D@ATL@@@@@ATL@@QAE@XZ
  0006b	33 db		 xor	 ebx, ebx
  0006d	c6 45 fc 01	 mov	 BYTE PTR __$EHRec$[ebp+8], 1

; 818  : // 2008.01.25 by LYH <<
; 819  : 	
; 820  : 	for( int nItem = 0 ; nItem < nCount; nItem++ )

  00071	39 5d e8	 cmp	 DWORD PTR _nCount$1$[ebp], ebx
  00074	0f 8e 99 00 00
	00		 jle	 $LN3@Init_Compo
  0007a	66 0f 1f 44 00
	00		 npad	 6
$LL4@Init_Compo:

; 821  : 	{
; 822  : 		szSubGraphName = m_pIGraphInfo->GetSubGraphNameString( nItem);

  00080	8b 8e c4 00 00
	00		 mov	 ecx, DWORD PTR [esi+196]
  00086	53		 push	 ebx
  00087	8b 01		 mov	 eax, DWORD PTR [ecx]
  00089	ff 50 3c	 call	 DWORD PTR [eax+60]
  0008c	8b f0		 mov	 esi, eax
; File D:\git\src\IBK\IBK_DRFN\ProjSrc\SrcChartEx\ChartAddIn\ChartEnvSetupDlgAddIn\Include_AddIn_135914\I135914\_IString.h

; 67   : 		if( m_pIStrData) m_pIStrData->Release();

  0008e	85 ff		 test	 edi, edi
  00090	74 06		 je	 SHORT $LN15@Init_Compo
  00092	8b 07		 mov	 eax, DWORD PTR [edi]
  00094	57		 push	 edi
  00095	ff 50 08	 call	 DWORD PTR [eax+8]
$LN15@Init_Compo:

; 68   : 		m_pIStrData = stringSrc;	// Do not AddRef(). Because It must be Return Value.

  00098	8b fe		 mov	 edi, esi
  0009a	89 7d e0	 mov	 DWORD PTR _szSubGraphName$[ebp+4], edi
  0009d	85 f6		 test	 esi, esi

; 69   : 		if( m_pIStrData) m_szData = m_pIStrData->GetData();

  0009f	74 09		 je	 SHORT $LN16@Init_Compo
  000a1	8b 06		 mov	 eax, DWORD PTR [esi]
  000a3	8b ce		 mov	 ecx, esi
  000a5	ff 50 10	 call	 DWORD PTR [eax+16]
  000a8	eb 02		 jmp	 SHORT $LN32@Init_Compo
$LN16@Init_Compo:

; 70   : 		else m_szData = NULL;

  000aa	33 c0		 xor	 eax, eax
$LN32@Init_Compo:
; File D:\git\src\IBK\IBK_DRFN\ProjSrc\SrcChartEx\ChartAddIn\ChartEnvSetupDlgAddIn\ChartEnvSetupDlgAddIn\Setting_Common_Type_A.cpp

; 825  : 		strUIText = _MTOL3( szSubGraphName);

  000ac	8b 75 e4	 mov	 esi, DWORD PTR _this$1$[ebp]
  000af	b9 00 00 00 00	 mov	 ecx, OFFSET ?g_iMetaTable@@3VIMetaTable@@A ; g_iMetaTable
  000b4	6a 00		 push	 0
  000b6	50		 push	 eax
  000b7	6a 03		 push	 3
  000b9	ff b6 d8 00 00
	00		 push	 DWORD PTR [esi+216]
  000bf	89 45 dc	 mov	 DWORD PTR _szSubGraphName$[ebp], eax
  000c2	e8 00 00 00 00	 call	 ?GetLanguageText@IMetaTable@@QAEPBDPAUHWND__@@W4E_CODEPAGE@1@PBDH@Z ; IMetaTable::GetLanguageText
  000c7	50		 push	 eax
  000c8	8d 4d f0	 lea	 ecx, DWORD PTR _strUIText$[ebp]
  000cb	ff 15 00 00 00
	00		 call	 DWORD PTR __imp_??4?$CStringT@DV?$StrTraitMFC_DLL@DV?$ChTraitsCRT@D@ATL@@@@@ATL@@QAEAAV01@PBD@Z
; File C:\Program Files (x86)\Microsoft Visual Studio\2019\Community\VC\Tools\MSVC\14.29.30133\atlmfc\include\afxcmn.inl

; 165  : 	{ ASSERT(::IsWindow(m_hWnd)); return InsertItem(LVIF_TEXT, nItem, lpszItem, 0, 0, 0, 0); }

  000d1	6a 00		 push	 0
  000d3	6a 00		 push	 0
  000d5	6a 00		 push	 0
  000d7	6a 00		 push	 0
  000d9	ff 75 f0	 push	 DWORD PTR _strUIText$[ebp]
  000dc	8d 8e 30 13 00
	00		 lea	 ecx, DWORD PTR [esi+4912]
  000e2	53		 push	 ebx
  000e3	6a 01		 push	 1
  000e5	e8 00 00 00 00	 call	 ?InsertItem@CListCtrl@@QAEHIHPBDIIHJ@Z ; CListCtrl::InsertItem
; File D:\git\src\IBK\IBK_DRFN\ProjSrc\SrcChartEx\ChartAddIn\ChartEnvSetupDlgAddIn\ChartEnvSetupDlgAddIn\Setting_Common_Type_A.cpp

; 829  : 		m_pIGraphInfo->GetSubGraphShowFlag( nItem, bShowFlag);

  000ea	8b 8e c4 00 00
	00		 mov	 ecx, DWORD PTR [esi+196]
  000f0	8d 55 ec	 lea	 edx, DWORD PTR _bShowFlag$[ebp]
  000f3	52		 push	 edx
  000f4	53		 push	 ebx
  000f5	8b 01		 mov	 eax, DWORD PTR [ecx]
  000f7	ff 50 34	 call	 DWORD PTR [eax+52]

; 830  : 		m_lstComposition.SetCheck( nItem, bShowFlag);

  000fa	ff 75 ec	 push	 DWORD PTR _bShowFlag$[ebp]
  000fd	8d 8e 30 13 00
	00		 lea	 ecx, DWORD PTR [esi+4912]
  00103	53		 push	 ebx
  00104	e8 00 00 00 00	 call	 ?SetCheck@CListCtrl@@QAEHHH@Z ; CListCtrl::SetCheck
  00109	43		 inc	 ebx
  0010a	3b 5d e8	 cmp	 ebx, DWORD PTR _nCount$1$[ebp]
  0010d	0f 8c 6d ff ff
	ff		 jl	 $LL4@Init_Compo
$LN3@Init_Compo:

; 832  : }

  00113	8d 4d f0	 lea	 ecx, DWORD PTR _strUIText$[ebp]
  00116	ff 15 00 00 00
	00		 call	 DWORD PTR __imp_??1?$CStringT@DV?$StrTraitMFC_DLL@DV?$ChTraitsCRT@D@ATL@@@@@ATL@@QAE@XZ
; File D:\git\src\IBK\IBK_DRFN\ProjSrc\SrcChartEx\ChartAddIn\ChartEnvSetupDlgAddIn\Include_AddIn_135914\I135914\_IString.h

; 44   : 	{

  0011c	c7 45 fc 02 00
	00 00		 mov	 DWORD PTR __$EHRec$[ebp+8], 2

; 45   : 		if( m_pIStrData)

  00123	85 ff		 test	 edi, edi
  00125	74 06		 je	 SHORT $LN24@Init_Compo

; 46   : 		{
; 47   : 			m_pIStrData->Release();

  00127	8b 07		 mov	 eax, DWORD PTR [edi]
  00129	57		 push	 edi
  0012a	ff 50 08	 call	 DWORD PTR [eax+8]
$LN24@Init_Compo:
; File D:\git\src\IBK\IBK_DRFN\ProjSrc\SrcChartEx\ChartAddIn\ChartEnvSetupDlgAddIn\ChartEnvSetupDlgAddIn\Setting_Common_Type_A.cpp

; 832  : }

  0012d	8b 4d f4	 mov	 ecx, DWORD PTR __$EHRec$[ebp]
  00130	64 89 0d 00 00
	00 00		 mov	 DWORD PTR fs:0, ecx
  00137	59		 pop	 ecx
  00138	5f		 pop	 edi
  00139	5e		 pop	 esi
  0013a	5b		 pop	 ebx
  0013b	8b e5		 mov	 esp, ebp
  0013d	5d		 pop	 ebp
  0013e	c3		 ret	 0
_TEXT	ENDS
;	COMDAT text$x
text$x	SEGMENT
__unwindfunclet$?Init_Composition_Group_SubGraphItem@CSetting_Common_Type_A@@AAEXXZ$0:
  00000	8d 4d dc	 lea	 ecx, DWORD PTR _szSubGraphName$[ebp]
  00003	e9 00 00 00 00	 jmp	 ??1ILPCSTR135914@@QAE@XZ ; ILPCSTR135914::~ILPCSTR135914
__unwindfunclet$?Init_Composition_Group_SubGraphItem@CSetting_Common_Type_A@@AAEXXZ$1:
  00008	8d 4d f0	 lea	 ecx, DWORD PTR _strUIText$[ebp]
  0000b	ff 25 00 00 00
	00		 jmp	 DWORD PTR __imp_??1?$CStringT@DV?$StrTraitMFC_DLL@DV?$ChTraitsCRT@D@ATL@@@@@ATL@@QAE@XZ
  00011	cc		 int	 3
  00012	cc		 int	 3
  00013	cc		 int	 3
  00014	cc		 int	 3
  00015	cc		 int	 3
__ehhandler$?Init_Composition_Group_SubGraphItem@CSetting_Common_Type_A@@AAEXXZ:
  00016	90		 npad	 1
  00017	90		 npad	 1
  00018	8b 54 24 08	 mov	 edx, DWORD PTR [esp+8]
  0001c	8d 42 0c	 lea	 eax, DWORD PTR [edx+12]
  0001f	8b 4a d8	 mov	 ecx, DWORD PTR [edx-40]
  00022	33 c8		 xor	 ecx, eax
  00024	e8 00 00 00 00	 call	 @__security_check_cookie@4
  00029	b8 00 00 00 00	 mov	 eax, OFFSET __ehfuncinfo$?Init_Composition_Group_SubGraphItem@CSetting_Common_Type_A@@AAEXXZ
  0002e	e9 00 00 00 00	 jmp	 ___CxxFrameHandler3
text$x	ENDS
?Init_Composition_Group_SubGraphItem@CSetting_Common_Type_A@@AAEXXZ ENDP ; CSetting_Common_Type_A::Init_Composition_Group_SubGraphItem
; Function compile flags: /Ogtp
; File D:\git\src\IBK\IBK_DRFN\ProjSrc\SrcChartEx\ChartAddIn\ChartEnvSetupDlgAddIn\ChartEnvSetupDlgAddIn\Setting_Common_Type_A.cpp
; File C:\Program Files (x86)\Microsoft Visual Studio\2019\Community\VC\Tools\MSVC\14.29.30133\atlmfc\include\afxcmn.inl
; File D:\git\src\IBK\IBK_DRFN\ProjSrc\SrcChartEx\ChartAddIn\ChartEnvSetupDlgAddIn\Include_AddIn_135914\I135914\_IString.h
; File D:\git\src\IBK\IBK_DRFN\ProjSrc\SrcChartEx\ChartAddIn\ChartEnvSetupDlgAddIn\ChartEnvSetupDlgAddIn\Setting_Common_Type_A.cpp
; File D:\git\src\IBK\IBK_DRFN\ProjSrc\SrcChartEx\ChartAddIn\ChartEnvSetupDlgAddIn\Include_AddIn_135914\I135914\_IString.h
; File D:\git\src\IBK\IBK_DRFN\ProjSrc\SrcChartEx\ChartAddIn\ChartEnvSetupDlgAddIn\ChartEnvSetupDlgAddIn\Setting_Common_Type_A.cpp
; File D:\git\src\IBK\IBK_DRFN\ProjSrc\SrcChartEx\ChartAddIn\ChartEnvSetupDlgAddIn\Include_AddIn_135914\I135914\_IString.h
; File D:\git\src\IBK\IBK_DRFN\ProjSrc\SrcChartEx\ChartAddIn\ChartEnvSetupDlgAddIn\ChartEnvSetupDlgAddIn\Setting_Common_Type_A.cpp
; File C:\Program Files (x86)\Microsoft Visual Studio\2019\Community\VC\Tools\MSVC\14.29.30133\atlmfc\include\afxcmn.inl
; File D:\git\src\IBK\IBK_DRFN\ProjSrc\SrcChartEx\ChartAddIn\ChartEnvSetupDlgAddIn\ChartEnvSetupDlgAddIn\Setting_Common_Type_A.cpp
; File D:\git\src\IBK\IBK_DRFN\ProjSrc\SrcChartEx\ChartAddIn\ChartEnvSetupDlgAddIn\Include_AddIn_135914\I135914\_IString.h
; File D:\git\src\IBK\IBK_DRFN\ProjSrc\SrcChartEx\ChartAddIn\ChartEnvSetupDlgAddIn\ChartEnvSetupDlgAddIn\Setting_Common_Type_A.cpp
; File D:\git\src\IBK\IBK_DRFN\ProjSrc\SrcChartEx\ChartAddIn\ChartEnvSetupDlgAddIn\Include_AddIn_135914\I135914\_IString.h
; File D:\git\src\IBK\IBK_DRFN\ProjSrc\SrcChartEx\ChartAddIn\ChartEnvSetupDlgAddIn\ChartEnvSetupDlgAddIn\Setting_Common_Type_A.cpp
; File D:\git\src\IBK\IBK_DRFN\ProjSrc\SrcChartEx\ChartAddIn\ChartEnvSetupDlgAddIn\Include_AddIn_135914\I135914\_IString.h
; File D:\git\src\IBK\IBK_DRFN\ProjSrc\SrcChartEx\ChartAddIn\ChartEnvSetupDlgAddIn\ChartEnvSetupDlgAddIn\Setting_Common_Type_A.cpp
; File C:\Program Files (x86)\Microsoft Visual Studio\2019\Community\VC\Tools\MSVC\14.29.30133\atlmfc\include\atlsimpstr.h
; File D:\git\src\IBK\IBK_DRFN\ProjSrc\SrcChartEx\ChartAddIn\ChartEnvSetupDlgAddIn\ChartEnvSetupDlgAddIn\Setting_Common_Type_A.cpp
; File C:\Program Files (x86)\Microsoft Visual Studio\2019\Community\VC\Tools\MSVC\14.29.30133\atlmfc\include\atlsimpstr.h
; File D:\git\src\IBK\IBK_DRFN\ProjSrc\SrcChartEx\ChartAddIn\ChartEnvSetupDlgAddIn\ChartEnvSetupDlgAddIn\Setting_Common_Type_A.cpp
; File D:\git\src\IBK\IBK_DRFN\ProjSrc\SrcChartEx\ChartAddIn\ChartEnvSetupDlgAddIn\Include_AddIn_135914\I135914\_IString.h
; File D:\git\src\IBK\IBK_DRFN\ProjSrc\SrcChartEx\ChartAddIn\ChartEnvSetupDlgAddIn\ChartEnvSetupDlgAddIn\Setting_Common_Type_A.cpp
; File C:\Program Files (x86)\Microsoft Visual Studio\2019\Community\VC\Tools\MSVC\14.29.30133\atlmfc\include\afxwin2.inl
; File D:\git\src\IBK\IBK_DRFN\ProjSrc\SrcChartEx\ChartAddIn\ChartEnvSetupDlgAddIn\ChartEnvSetupDlgAddIn\Setting_Common_Type_A.cpp
; File C:\Program Files (x86)\Microsoft Visual Studio\2019\Community\VC\Tools\MSVC\14.29.30133\atlmfc\include\afxwin2.inl
; File D:\git\src\IBK\IBK_DRFN\ProjSrc\SrcChartEx\ChartAddIn\ChartEnvSetupDlgAddIn\ChartEnvSetupDlgAddIn\Setting_Common_Type_A.cpp
; File C:\Program Files (x86)\Microsoft Visual Studio\2019\Community\VC\Tools\MSVC\14.29.30133\atlmfc\include\afxwin2.inl
; File D:\git\src\IBK\IBK_DRFN\ProjSrc\SrcChartEx\ChartAddIn\ChartEnvSetupDlgAddIn\ChartEnvSetupDlgAddIn\Setting_Common_Type_A.cpp
; File C:\Program Files (x86)\Microsoft Visual Studio\2019\Community\VC\Tools\MSVC\14.29.30133\atlmfc\include\afxwin2.inl
; File D:\git\src\IBK\IBK_DRFN\ProjSrc\SrcChartEx\ChartAddIn\ChartEnvSetupDlgAddIn\ChartEnvSetupDlgAddIn\Setting_Common_Type_A.cpp
; File C:\Program Files (x86)\Microsoft Visual Studio\2019\Community\VC\Tools\MSVC\14.29.30133\atlmfc\include\afxwin2.inl
; File D:\git\src\IBK\IBK_DRFN\ProjSrc\SrcChartEx\ChartAddIn\ChartEnvSetupDlgAddIn\ChartEnvSetupDlgAddIn\Setting_Common_Type_A.cpp
; File C:\Program Files (x86)\Microsoft Visual Studio\2019\Community\VC\Tools\MSVC\14.29.30133\atlmfc\include\afxwin2.inl
; File D:\git\src\IBK\IBK_DRFN\ProjSrc\SrcChartEx\ChartAddIn\ChartEnvSetupDlgAddIn\ChartEnvSetupDlgAddIn\Setting_Common_Type_A.cpp
; File C:\Program Files (x86)\Microsoft Visual Studio\2019\Community\VC\Tools\MSVC\14.29.30133\atlmfc\include\afxwin2.inl
; File D:\git\src\IBK\IBK_DRFN\ProjSrc\SrcChartEx\ChartAddIn\ChartEnvSetupDlgAddIn\ChartEnvSetupDlgAddIn\Setting_Common_Type_A.cpp
; File C:\Program Files (x86)\Microsoft Visual Studio\2019\Community\VC\Tools\MSVC\14.29.30133\atlmfc\include\afxwin2.inl
; File D:\git\src\IBK\IBK_DRFN\ProjSrc\SrcChartEx\ChartAddIn\ChartEnvSetupDlgAddIn\ChartEnvSetupDlgAddIn\Setting_Common_Type_A.cpp
;	COMDAT ?Init_Composition_Group@CSetting_Common_Type_A@@AAEXXZ
_TEXT	SEGMENT
_szSubGraphTitle$2 = -36				; size = 8
_szSubGraphName$3 = -36					; size = 8
_nCount$1$ = -28					; size = 4
_nItem$1$ = -24						; size = 4
_bShowFlag$4 = -20					; size = 4
_strUIText$5 = -16					; size = 4
_strUIText$6 = -16					; size = 4
__$EHRec$ = -12						; size = 12
?Init_Composition_Group@CSetting_Common_Type_A@@AAEXXZ PROC ; CSetting_Common_Type_A::Init_Composition_Group, COMDAT
; _this$ = ecx

; 799  : {

  00000	55		 push	 ebp
  00001	8b ec		 mov	 ebp, esp
  00003	6a ff		 push	 -1
  00005	68 00 00 00 00	 push	 __ehhandler$?Init_Composition_Group@CSetting_Common_Type_A@@AAEXXZ
  0000a	64 a1 00 00 00
	00		 mov	 eax, DWORD PTR fs:0
  00010	50		 push	 eax
  00011	83 ec 18	 sub	 esp, 24			; 00000018H
  00014	53		 push	 ebx
  00015	56		 push	 esi
  00016	57		 push	 edi
  00017	a1 00 00 00 00	 mov	 eax, DWORD PTR ___security_cookie
  0001c	33 c5		 xor	 eax, ebp
  0001e	50		 push	 eax
  0001f	8d 45 f4	 lea	 eax, DWORD PTR __$EHRec$[ebp]
  00022	64 a3 00 00 00
	00		 mov	 DWORD PTR fs:0, eax
  00028	8b f1		 mov	 esi, ecx
; File C:\Program Files (x86)\Microsoft Visual Studio\2019\Community\VC\Tools\MSVC\14.29.30133\atlmfc\include\afxcmn.inl

; 171  : 	{ ASSERT(::IsWindow(m_hWnd)); return (BOOL) ::SendMessage(m_hWnd, LVM_DELETEALLITEMS, 0, 0L); }

  0002a	6a 00		 push	 0
  0002c	6a 00		 push	 0
  0002e	68 09 10 00 00	 push	 4105			; 00001009H
  00033	ff b6 50 13 00
	00		 push	 DWORD PTR [esi+4944]
  00039	ff 15 00 00 00
	00		 call	 DWORD PTR __imp__SendMessageA@16
; File D:\git\src\IBK\IBK_DRFN\ProjSrc\SrcChartEx\ChartAddIn\ChartEnvSetupDlgAddIn\Include_AddIn_135914\I135914\_IString.h

; 39   : 		m_pIStrData = p_pIString;	// Do not AddRef(). Because It must be Return Value.

  0003f	33 ff		 xor	 edi, edi
; File D:\git\src\IBK\IBK_DRFN\ProjSrc\SrcChartEx\ChartAddIn\ChartEnvSetupDlgAddIn\ChartEnvSetupDlgAddIn\Setting_Common_Type_A.cpp

; 813  : 	BOOL bShowFlag = FALSE;

  00041	c7 45 ec 00 00
	00 00		 mov	 DWORD PTR _bShowFlag$4[ebp], 0
; File D:\git\src\IBK\IBK_DRFN\ProjSrc\SrcChartEx\ChartAddIn\ChartEnvSetupDlgAddIn\Include_AddIn_135914\I135914\_IString.h

; 39   : 		m_pIStrData = p_pIString;	// Do not AddRef(). Because It must be Return Value.

  00048	89 7d e0	 mov	 DWORD PTR _szSubGraphName$3[ebp+4], edi

; 41   : 		else m_szData = NULL;

  0004b	89 7d dc	 mov	 DWORD PTR _szSubGraphName$3[ebp], edi
; File D:\git\src\IBK\IBK_DRFN\ProjSrc\SrcChartEx\ChartAddIn\ChartEnvSetupDlgAddIn\ChartEnvSetupDlgAddIn\Setting_Common_Type_A.cpp

; 815  : 	int nCount = m_pIGraphInfo->GetSubGraphCount();

  0004e	8b 8e c4 00 00
	00		 mov	 ecx, DWORD PTR [esi+196]
  00054	89 7d fc	 mov	 DWORD PTR __$EHRec$[ebp+8], edi
  00057	8b 01		 mov	 eax, DWORD PTR [ecx]
  00059	ff 50 2c	 call	 DWORD PTR [eax+44]

; 816  : // 2008.01.25 by LYH >>
; 817  : 	CString strUIText;

  0005c	8d 4d f0	 lea	 ecx, DWORD PTR _strUIText$6[ebp]
  0005f	89 45 e4	 mov	 DWORD PTR _nCount$1$[ebp], eax
  00062	ff 15 00 00 00
	00		 call	 DWORD PTR __imp_??0?$CStringT@DV?$StrTraitMFC_DLL@DV?$ChTraitsCRT@D@ATL@@@@@ATL@@QAE@XZ
  00068	33 db		 xor	 ebx, ebx
  0006a	c6 45 fc 01	 mov	 BYTE PTR __$EHRec$[ebp+8], 1
  0006e	89 5d e8	 mov	 DWORD PTR _nItem$1$[ebp], ebx

; 818  : // 2008.01.25 by LYH <<
; 819  : 	
; 820  : 	for( int nItem = 0 ; nItem < nCount; nItem++ )

  00071	39 5d e4	 cmp	 DWORD PTR _nCount$1$[ebp], ebx
  00074	0f 8e 9c 00 00
	00		 jle	 $LN5@Init_Compo
  0007a	66 0f 1f 44 00
	00		 npad	 6
$LL6@Init_Compo:

; 821  : 	{
; 822  : 		szSubGraphName = m_pIGraphInfo->GetSubGraphNameString( nItem);

  00080	8b 8e c4 00 00
	00		 mov	 ecx, DWORD PTR [esi+196]
  00086	53		 push	 ebx
  00087	8b 01		 mov	 eax, DWORD PTR [ecx]
  00089	ff 50 3c	 call	 DWORD PTR [eax+60]
  0008c	8b d8		 mov	 ebx, eax
; File D:\git\src\IBK\IBK_DRFN\ProjSrc\SrcChartEx\ChartAddIn\ChartEnvSetupDlgAddIn\Include_AddIn_135914\I135914\_IString.h

; 67   : 		if( m_pIStrData) m_pIStrData->Release();

  0008e	85 ff		 test	 edi, edi
  00090	74 06		 je	 SHORT $LN17@Init_Compo
  00092	8b 0f		 mov	 ecx, DWORD PTR [edi]
  00094	57		 push	 edi
  00095	ff 51 08	 call	 DWORD PTR [ecx+8]
$LN17@Init_Compo:

; 68   : 		m_pIStrData = stringSrc;	// Do not AddRef(). Because It must be Return Value.

  00098	8b fb		 mov	 edi, ebx
  0009a	89 7d e0	 mov	 DWORD PTR _szSubGraphName$3[ebp+4], edi
  0009d	85 db		 test	 ebx, ebx

; 69   : 		if( m_pIStrData) m_szData = m_pIStrData->GetData();

  0009f	74 09		 je	 SHORT $LN18@Init_Compo
  000a1	8b 03		 mov	 eax, DWORD PTR [ebx]
  000a3	8b cb		 mov	 ecx, ebx
  000a5	ff 50 10	 call	 DWORD PTR [eax+16]
  000a8	eb 02		 jmp	 SHORT $LN87@Init_Compo
$LN18@Init_Compo:

; 70   : 		else m_szData = NULL;

  000aa	33 c0		 xor	 eax, eax
$LN87@Init_Compo:
; File D:\git\src\IBK\IBK_DRFN\ProjSrc\SrcChartEx\ChartAddIn\ChartEnvSetupDlgAddIn\ChartEnvSetupDlgAddIn\Setting_Common_Type_A.cpp

; 825  : 		strUIText = _MTOL3( szSubGraphName);

  000ac	6a 00		 push	 0
  000ae	50		 push	 eax
  000af	6a 03		 push	 3
  000b1	ff b6 d8 00 00
	00		 push	 DWORD PTR [esi+216]
  000b7	b9 00 00 00 00	 mov	 ecx, OFFSET ?g_iMetaTable@@3VIMetaTable@@A ; g_iMetaTable
  000bc	89 45 dc	 mov	 DWORD PTR _szSubGraphName$3[ebp], eax
  000bf	e8 00 00 00 00	 call	 ?GetLanguageText@IMetaTable@@QAEPBDPAUHWND__@@W4E_CODEPAGE@1@PBDH@Z ; IMetaTable::GetLanguageText
  000c4	50		 push	 eax
  000c5	8d 4d f0	 lea	 ecx, DWORD PTR _strUIText$6[ebp]
  000c8	ff 15 00 00 00
	00		 call	 DWORD PTR __imp_??4?$CStringT@DV?$StrTraitMFC_DLL@DV?$ChTraitsCRT@D@ATL@@@@@ATL@@QAEAAV01@PBD@Z
; File C:\Program Files (x86)\Microsoft Visual Studio\2019\Community\VC\Tools\MSVC\14.29.30133\atlmfc\include\afxcmn.inl

; 165  : 	{ ASSERT(::IsWindow(m_hWnd)); return InsertItem(LVIF_TEXT, nItem, lpszItem, 0, 0, 0, 0); }

  000ce	8b 5d e8	 mov	 ebx, DWORD PTR _nItem$1$[ebp]
  000d1	8d 8e 30 13 00
	00		 lea	 ecx, DWORD PTR [esi+4912]
  000d7	6a 00		 push	 0
  000d9	6a 00		 push	 0
  000db	6a 00		 push	 0
  000dd	6a 00		 push	 0
  000df	ff 75 f0	 push	 DWORD PTR _strUIText$6[ebp]
  000e2	53		 push	 ebx
  000e3	6a 01		 push	 1
  000e5	e8 00 00 00 00	 call	 ?InsertItem@CListCtrl@@QAEHIHPBDIIHJ@Z ; CListCtrl::InsertItem
; File D:\git\src\IBK\IBK_DRFN\ProjSrc\SrcChartEx\ChartAddIn\ChartEnvSetupDlgAddIn\ChartEnvSetupDlgAddIn\Setting_Common_Type_A.cpp

; 829  : 		m_pIGraphInfo->GetSubGraphShowFlag( nItem, bShowFlag);

  000ea	8b 8e c4 00 00
	00		 mov	 ecx, DWORD PTR [esi+196]
  000f0	8d 55 ec	 lea	 edx, DWORD PTR _bShowFlag$4[ebp]
  000f3	52		 push	 edx
  000f4	53		 push	 ebx
  000f5	8b 01		 mov	 eax, DWORD PTR [ecx]
  000f7	ff 50 34	 call	 DWORD PTR [eax+52]

; 830  : 		m_lstComposition.SetCheck( nItem, bShowFlag);

  000fa	ff 75 ec	 push	 DWORD PTR _bShowFlag$4[ebp]
  000fd	8d 8e 30 13 00
	00		 lea	 ecx, DWORD PTR [esi+4912]
  00103	53		 push	 ebx
  00104	e8 00 00 00 00	 call	 ?SetCheck@CListCtrl@@QAEHHH@Z ; CListCtrl::SetCheck
  00109	43		 inc	 ebx
  0010a	89 5d e8	 mov	 DWORD PTR _nItem$1$[ebp], ebx
  0010d	3b 5d e4	 cmp	 ebx, DWORD PTR _nCount$1$[ebp]
  00110	0f 8c 6a ff ff
	ff		 jl	 $LL6@Init_Compo
$LN5@Init_Compo:

; 831  : 	}
; 832  : }

  00116	8d 4d f0	 lea	 ecx, DWORD PTR _strUIText$6[ebp]
  00119	ff 15 00 00 00
	00		 call	 DWORD PTR __imp_??1?$CStringT@DV?$StrTraitMFC_DLL@DV?$ChTraitsCRT@D@ATL@@@@@ATL@@QAE@XZ
; File D:\git\src\IBK\IBK_DRFN\ProjSrc\SrcChartEx\ChartAddIn\ChartEnvSetupDlgAddIn\Include_AddIn_135914\I135914\_IString.h

; 44   : 	{

  0011f	c7 45 fc 02 00
	00 00		 mov	 DWORD PTR __$EHRec$[ebp+8], 2

; 45   : 		if( m_pIStrData)

  00126	85 ff		 test	 edi, edi
  00128	74 06		 je	 SHORT $LN26@Init_Compo

; 46   : 		{
; 47   : 			m_pIStrData->Release();

  0012a	8b 07		 mov	 eax, DWORD PTR [edi]
  0012c	57		 push	 edi
  0012d	ff 50 08	 call	 DWORD PTR [eax+8]
$LN26@Init_Compo:
; File D:\git\src\IBK\IBK_DRFN\ProjSrc\SrcChartEx\ChartAddIn\ChartEnvSetupDlgAddIn\ChartEnvSetupDlgAddIn\Setting_Common_Type_A.cpp

; 801  : 	Init_Composition_Group_SubGraphTitle(m_nSubGraphIndex);

  00130	8b be cc 14 00
	00		 mov	 edi, DWORD PTR [esi+5324]
; File D:\git\src\IBK\IBK_DRFN\ProjSrc\SrcChartEx\ChartAddIn\ChartEnvSetupDlgAddIn\Include_AddIn_135914\I135914\_IString.h

; 51   : 	}

  00136	c7 45 fc ff ff
	ff ff		 mov	 DWORD PTR __$EHRec$[ebp+8], -1
; File D:\git\src\IBK\IBK_DRFN\ProjSrc\SrcChartEx\ChartAddIn\ChartEnvSetupDlgAddIn\ChartEnvSetupDlgAddIn\Setting_Common_Type_A.cpp

; 836  : 	if(nSubGraphIndex < 0) return;

  0013d	85 ff		 test	 edi, edi
  0013f	0f 88 49 01 00
	00		 js	 $LN85@Init_Compo

; 839  : 	ILPCSTR szSubGraphTitle = m_pIGraphInfo->GetSubGraphTitleString( nSubGraphIndex);

  00145	8b 8e c4 00 00
	00		 mov	 ecx, DWORD PTR [esi+196]
  0014b	57		 push	 edi
  0014c	8b 01		 mov	 eax, DWORD PTR [ecx]
  0014e	ff 50 48	 call	 DWORD PTR [eax+72]
; File D:\git\src\IBK\IBK_DRFN\ProjSrc\SrcChartEx\ChartAddIn\ChartEnvSetupDlgAddIn\Include_AddIn_135914\I135914\_IString.h

; 39   : 		m_pIStrData = p_pIString;	// Do not AddRef(). Because It must be Return Value.

  00151	8b f8		 mov	 edi, eax
  00153	89 7d e0	 mov	 DWORD PTR _szSubGraphTitle$2[ebp+4], edi

; 40   : 		if( m_pIStrData) m_szData = m_pIStrData->GetData();

  00156	85 ff		 test	 edi, edi
  00158	74 0b		 je	 SHORT $LN36@Init_Compo
  0015a	8b 17		 mov	 edx, DWORD PTR [edi]
  0015c	8b cf		 mov	 ecx, edi
  0015e	ff 52 10	 call	 DWORD PTR [edx+16]
  00161	8b d8		 mov	 ebx, eax
  00163	eb 02		 jmp	 SHORT $LN89@Init_Compo
$LN36@Init_Compo:

; 41   : 		else m_szData = NULL;

  00165	33 db		 xor	 ebx, ebx
$LN89@Init_Compo:
; File D:\git\src\IBK\IBK_DRFN\ProjSrc\SrcChartEx\ChartAddIn\ChartEnvSetupDlgAddIn\ChartEnvSetupDlgAddIn\Setting_Common_Type_A.cpp

; 839  : 	ILPCSTR szSubGraphTitle = m_pIGraphInfo->GetSubGraphTitleString( nSubGraphIndex);

  00167	89 5d dc	 mov	 DWORD PTR _szSubGraphTitle$2[ebp], ebx

; 842  : 	CString strUIText = _MTOL1_N( szSubGraphTitle); 

  0016a	6a 01		 push	 1
  0016c	53		 push	 ebx
  0016d	6a 01		 push	 1
  0016f	ff b6 d8 00 00
	00		 push	 DWORD PTR [esi+216]
  00175	b9 00 00 00 00	 mov	 ecx, OFFSET ?g_iMetaTable@@3VIMetaTable@@A ; g_iMetaTable
  0017a	c7 45 fc 03 00
	00 00		 mov	 DWORD PTR __$EHRec$[ebp+8], 3
  00181	e8 00 00 00 00	 call	 ?GetLanguageText@IMetaTable@@QAEPBDPAUHWND__@@W4E_CODEPAGE@1@PBDH@Z ; IMetaTable::GetLanguageText
  00186	50		 push	 eax
  00187	8d 4d f0	 lea	 ecx, DWORD PTR _strUIText$5[ebp]
  0018a	ff 15 00 00 00
	00		 call	 DWORD PTR __imp_??0?$CStringT@DV?$StrTraitMFC_DLL@DV?$ChTraitsCRT@D@ATL@@@@@ATL@@QAE@PBD@Z
; File C:\Program Files (x86)\Microsoft Visual Studio\2019\Community\VC\Tools\MSVC\14.29.30133\atlmfc\include\atlsimpstr.h

; 519  : 		return( GetData()->nDataLength );

  00190	8b 45 f0	 mov	 eax, DWORD PTR _strUIText$5[ebp]
; File D:\git\src\IBK\IBK_DRFN\ProjSrc\SrcChartEx\ChartAddIn\ChartEnvSetupDlgAddIn\ChartEnvSetupDlgAddIn\Setting_Common_Type_A.cpp

; 842  : 	CString strUIText = _MTOL1_N( szSubGraphTitle); 

  00193	c6 45 fc 04	 mov	 BYTE PTR __$EHRec$[ebp+8], 4
; File C:\Program Files (x86)\Microsoft Visual Studio\2019\Community\VC\Tools\MSVC\14.29.30133\atlmfc\include\atlsimpstr.h

; 533  : 		return( GetLength() == 0 );

  00197	83 78 f4 00	 cmp	 DWORD PTR [eax-12], 0
; File D:\git\src\IBK\IBK_DRFN\ProjSrc\SrcChartEx\ChartAddIn\ChartEnvSetupDlgAddIn\ChartEnvSetupDlgAddIn\Setting_Common_Type_A.cpp

; 843  : 	if( strUIText.IsEmpty()) strUIText = _MTOL3( szSubGraphTitle);

  0019b	75 22		 jne	 SHORT $LN31@Init_Compo
  0019d	6a 00		 push	 0
  0019f	53		 push	 ebx
  001a0	6a 03		 push	 3
  001a2	ff b6 d8 00 00
	00		 push	 DWORD PTR [esi+216]
  001a8	b9 00 00 00 00	 mov	 ecx, OFFSET ?g_iMetaTable@@3VIMetaTable@@A ; g_iMetaTable
  001ad	e8 00 00 00 00	 call	 ?GetLanguageText@IMetaTable@@QAEPBDPAUHWND__@@W4E_CODEPAGE@1@PBDH@Z ; IMetaTable::GetLanguageText
  001b2	50		 push	 eax
  001b3	8d 4d f0	 lea	 ecx, DWORD PTR _strUIText$5[ebp]
  001b6	ff 15 00 00 00
	00		 call	 DWORD PTR __imp_??4?$CStringT@DV?$StrTraitMFC_DLL@DV?$ChTraitsCRT@D@ATL@@@@@ATL@@QAEAAV01@PBD@Z
  001bc	8b 45 f0	 mov	 eax, DWORD PTR _strUIText$5[ebp]
$LN31@Init_Compo:

; 844  : 
; 845  : 	m_edtCompositionTitleData.SetWindowText( strUIText );

  001bf	50		 push	 eax
  001c0	8d 8e 18 10 00
	00		 lea	 ecx, DWORD PTR [esi+4120]
  001c6	e8 00 00 00 00	 call	 ?SetWindowTextA@CWnd@@QAEXPBD@Z ; CWnd::SetWindowTextA

; 846  : // 2008.01.25 by LYH <<
; 847  : }

  001cb	8d 4d f0	 lea	 ecx, DWORD PTR _strUIText$5[ebp]
  001ce	ff 15 00 00 00
	00		 call	 DWORD PTR __imp_??1?$CStringT@DV?$StrTraitMFC_DLL@DV?$ChTraitsCRT@D@ATL@@@@@ATL@@QAE@XZ
; File D:\git\src\IBK\IBK_DRFN\ProjSrc\SrcChartEx\ChartAddIn\ChartEnvSetupDlgAddIn\Include_AddIn_135914\I135914\_IString.h

; 44   : 	{

  001d4	c7 45 fc 05 00
	00 00		 mov	 DWORD PTR __$EHRec$[ebp+8], 5

; 45   : 		if( m_pIStrData)

  001db	85 ff		 test	 edi, edi
  001dd	74 06		 je	 SHORT $LN48@Init_Compo

; 46   : 		{
; 47   : 			m_pIStrData->Release();

  001df	8b 07		 mov	 eax, DWORD PTR [edi]
  001e1	57		 push	 edi
  001e2	ff 50 08	 call	 DWORD PTR [eax+8]
$LN48@Init_Compo:

; 51   : 	}

  001e5	8b be cc 14 00
	00		 mov	 edi, DWORD PTR [esi+5324]
  001eb	c7 45 fc ff ff
	ff ff		 mov	 DWORD PTR __$EHRec$[ebp+8], -1
; File D:\git\src\IBK\IBK_DRFN\ProjSrc\SrcChartEx\ChartAddIn\ChartEnvSetupDlgAddIn\ChartEnvSetupDlgAddIn\Setting_Common_Type_A.cpp

; 851  : 	if(nSubGraphIndex < 0) return;

  001f2	85 ff		 test	 edi, edi
  001f4	0f 88 94 00 00
	00		 js	 $LN85@Init_Compo
; File C:\Program Files (x86)\Microsoft Visual Studio\2019\Community\VC\Tools\MSVC\14.29.30133\atlmfc\include\afxwin2.inl

; 763  : 	{ ASSERT(::IsWindow(m_hWnd)); return (int)::SendMessage(m_hWnd, CB_GETCOUNT, 0, 0); }

  001fa	8b 1d 00 00 00
	00		 mov	 ebx, DWORD PTR __imp__SendMessageA@16
  00200	6a 00		 push	 0
  00202	6a 00		 push	 0
  00204	68 46 01 00 00	 push	 326			; 00000146H
  00209	ff b6 b8 10 00
	00		 push	 DWORD PTR [esi+4280]
  0020f	ff d3		 call	 ebx
; File D:\git\src\IBK\IBK_DRFN\ProjSrc\SrcChartEx\ChartAddIn\ChartEnvSetupDlgAddIn\ChartEnvSetupDlgAddIn\Setting_Common_Type_A.cpp

; 854  : 	if( m_cmbThickness.GetCount() == 0 )

  00211	85 c0		 test	 eax, eax
  00213	75 13		 jne	 SHORT $LN53@Init_Compo

; 855  : 		Initial_ThicknessComboBox( nSubGraphIndex, 0, m_cmbThickness );

  00215	8d 86 98 10 00
	00		 lea	 eax, DWORD PTR [esi+4248]
  0021b	8b ce		 mov	 ecx, esi
  0021d	50		 push	 eax
  0021e	6a 00		 push	 0
  00220	57		 push	 edi
  00221	e8 00 00 00 00	 call	 ?Initial_ThicknessComboBox@CBaseDialog@@IAEXHHAAVCBitmapItemComboBox@@@Z ; CBaseDialog::Initial_ThicknessComboBox
  00226	eb 22		 jmp	 SHORT $LN54@Init_Compo
$LN53@Init_Compo:

; 857  : 		m_cmbThickness.SetCurSel( m_pIGraphInfo->GetSubGraphPenThickness( nSubGraphIndex, 1) - 1);

  00228	8b 8e c4 00 00
	00		 mov	 ecx, DWORD PTR [esi+196]
  0022e	6a 01		 push	 1
  00230	57		 push	 edi
  00231	8b 01		 mov	 eax, DWORD PTR [ecx]
  00233	ff 90 80 00 00
	00		 call	 DWORD PTR [eax+128]
; File C:\Program Files (x86)\Microsoft Visual Studio\2019\Community\VC\Tools\MSVC\14.29.30133\atlmfc\include\afxwin2.inl

; 767  : 	{ ASSERT(::IsWindow(m_hWnd)); return (int)::SendMessage(m_hWnd, CB_SETCURSEL, nSelect, 0); }

  00239	6a 00		 push	 0
; File D:\git\src\IBK\IBK_DRFN\ProjSrc\SrcChartEx\ChartAddIn\ChartEnvSetupDlgAddIn\ChartEnvSetupDlgAddIn\Setting_Common_Type_A.cpp

; 857  : 		m_cmbThickness.SetCurSel( m_pIGraphInfo->GetSubGraphPenThickness( nSubGraphIndex, 1) - 1);

  0023b	48		 dec	 eax
; File C:\Program Files (x86)\Microsoft Visual Studio\2019\Community\VC\Tools\MSVC\14.29.30133\atlmfc\include\afxwin2.inl

; 767  : 	{ ASSERT(::IsWindow(m_hWnd)); return (int)::SendMessage(m_hWnd, CB_SETCURSEL, nSelect, 0); }

  0023c	50		 push	 eax
  0023d	68 4e 01 00 00	 push	 334			; 0000014eH
  00242	ff b6 b8 10 00
	00		 push	 DWORD PTR [esi+4280]
  00248	ff d3		 call	 ebx
$LN54@Init_Compo:

; 763  : 	{ ASSERT(::IsWindow(m_hWnd)); return (int)::SendMessage(m_hWnd, CB_GETCOUNT, 0, 0); }

  0024a	6a 00		 push	 0
  0024c	6a 00		 push	 0
  0024e	68 46 01 00 00	 push	 326			; 00000146H
  00253	ff b6 40 11 00
	00		 push	 DWORD PTR [esi+4416]
  00259	ff d3		 call	 ebx
; File D:\git\src\IBK\IBK_DRFN\ProjSrc\SrcChartEx\ChartAddIn\ChartEnvSetupDlgAddIn\ChartEnvSetupDlgAddIn\Setting_Common_Type_A.cpp

; 860  : 	if( m_cmbLineType.GetCount() == 0 )

  0025b	85 c0		 test	 eax, eax
  0025d	75 11		 jne	 SHORT $LN55@Init_Compo

; 861  : 		Initial_DrawStyleComboBox( nSubGraphIndex, m_cmbLineType );

  0025f	8d 86 20 11 00
	00		 lea	 eax, DWORD PTR [esi+4384]
  00265	8b ce		 mov	 ecx, esi
  00267	50		 push	 eax
  00268	57		 push	 edi
  00269	e8 00 00 00 00	 call	 ?Initial_DrawStyleComboBox@CBaseDialog@@IAEXHAAVCBitmapItemComboBox@@@Z ; CBaseDialog::Initial_DrawStyleComboBox
  0026e	eb 24		 jmp	 SHORT $LN56@Init_Compo
$LN55@Init_Compo:

; 862  : 	else
; 863  : 		m_cmbLineType.SetCurSel( m_pIGraphInfo->GetSubGraphDrawStyle( nSubGraphIndex));

  00270	8b 8e c4 00 00
	00		 mov	 ecx, DWORD PTR [esi+196]
  00276	57		 push	 edi
  00277	8b 01		 mov	 eax, DWORD PTR [ecx]
  00279	ff 50 5c	 call	 DWORD PTR [eax+92]
; File C:\Program Files (x86)\Microsoft Visual Studio\2019\Community\VC\Tools\MSVC\14.29.30133\atlmfc\include\afxwin2.inl

; 767  : 	{ ASSERT(::IsWindow(m_hWnd)); return (int)::SendMessage(m_hWnd, CB_SETCURSEL, nSelect, 0); }

  0027c	6a 00		 push	 0
  0027e	50		 push	 eax
  0027f	68 4e 01 00 00	 push	 334			; 0000014eH
  00284	ff b6 40 11 00
	00		 push	 DWORD PTR [esi+4416]
  0028a	ff d3		 call	 ebx
; File D:\git\src\IBK\IBK_DRFN\ProjSrc\SrcChartEx\ChartAddIn\ChartEnvSetupDlgAddIn\ChartEnvSetupDlgAddIn\Setting_Common_Type_A.cpp

; 851  : 	if(nSubGraphIndex < 0) return;

  0028c	eb 06		 jmp	 SHORT $LN56@Init_Compo
$LN85@Init_Compo:
  0028e	8b 1d 00 00 00
	00		 mov	 ebx, DWORD PTR __imp__SendMessageA@16
$LN56@Init_Compo:

; 802  : 	Init_Composition_Group_SubGraphLine(m_nSubGraphIndex);
; 803  : 	Init_Composition_Group_SubGraphColor(m_nSubGraphIndex);

  00294	ff b6 cc 14 00
	00		 push	 DWORD PTR [esi+5324]
  0029a	8b ce		 mov	 ecx, esi
  0029c	e8 00 00 00 00	 call	 ?Init_Composition_Group_SubGraphColor@CSetting_Common_Type_A@@AAEXH@Z ; CSetting_Common_Type_A::Init_Composition_Group_SubGraphColor

; 804  : 	//  ,   - ojtaso (20071213)
; 805  : 	Init_Composition_Group_BaseLine(m_nSubGraphIndex);

  002a1	8b be cc 14 00
	00		 mov	 edi, DWORD PTR [esi+5324]

; 869  : 	if(nSubGraphIndex < 0) return;

  002a7	85 ff		 test	 edi, edi
  002a9	0f 88 9f 00 00
	00		 js	 $LN71@Init_Compo
; File C:\Program Files (x86)\Microsoft Visual Studio\2019\Community\VC\Tools\MSVC\14.29.30133\atlmfc\include\afxwin2.inl

; 763  : 	{ ASSERT(::IsWindow(m_hWnd)); return (int)::SendMessage(m_hWnd, CB_GETCOUNT, 0, 0); }

  002af	6a 00		 push	 0
  002b1	6a 00		 push	 0
  002b3	68 46 01 00 00	 push	 326			; 00000146H
  002b8	ff b6 d8 13 00
	00		 push	 DWORD PTR [esi+5080]
  002be	ff d3		 call	 ebx
; File D:\git\src\IBK\IBK_DRFN\ProjSrc\SrcChartEx\ChartAddIn\ChartEnvSetupDlgAddIn\ChartEnvSetupDlgAddIn\Setting_Common_Type_A.cpp

; 872  : 	if( m_cmbThickness2.GetCount() == 0 )

  002c0	85 c0		 test	 eax, eax
  002c2	75 13		 jne	 SHORT $LN68@Init_Compo

; 873  : 		Initial_BaseLineThicknessComboBox( nSubGraphIndex, 0, m_cmbThickness2 );

  002c4	8d 86 b8 13 00
	00		 lea	 eax, DWORD PTR [esi+5048]
  002ca	8b ce		 mov	 ecx, esi
  002cc	50		 push	 eax
  002cd	6a 00		 push	 0
  002cf	57		 push	 edi
  002d0	e8 00 00 00 00	 call	 ?Initial_BaseLineThicknessComboBox@CBaseDialog@@IAEXHHAAVCBitmapItemComboBox@@@Z ; CBaseDialog::Initial_BaseLineThicknessComboBox
  002d5	eb 22		 jmp	 SHORT $LN69@Init_Compo
$LN68@Init_Compo:

; 875  : 		m_cmbThickness2.SetCurSel( m_pIGraphInfo->GetBaseLinePenThickness( nSubGraphIndex, 1) - 1);

  002d7	8b 8e c4 00 00
	00		 mov	 ecx, DWORD PTR [esi+196]
  002dd	6a 01		 push	 1
  002df	57		 push	 edi
  002e0	8b 01		 mov	 eax, DWORD PTR [ecx]
  002e2	ff 90 88 00 00
	00		 call	 DWORD PTR [eax+136]
; File C:\Program Files (x86)\Microsoft Visual Studio\2019\Community\VC\Tools\MSVC\14.29.30133\atlmfc\include\afxwin2.inl

; 767  : 	{ ASSERT(::IsWindow(m_hWnd)); return (int)::SendMessage(m_hWnd, CB_SETCURSEL, nSelect, 0); }

  002e8	6a 00		 push	 0
; File D:\git\src\IBK\IBK_DRFN\ProjSrc\SrcChartEx\ChartAddIn\ChartEnvSetupDlgAddIn\ChartEnvSetupDlgAddIn\Setting_Common_Type_A.cpp

; 875  : 		m_cmbThickness2.SetCurSel( m_pIGraphInfo->GetBaseLinePenThickness( nSubGraphIndex, 1) - 1);

  002ea	48		 dec	 eax
; File C:\Program Files (x86)\Microsoft Visual Studio\2019\Community\VC\Tools\MSVC\14.29.30133\atlmfc\include\afxwin2.inl

; 767  : 	{ ASSERT(::IsWindow(m_hWnd)); return (int)::SendMessage(m_hWnd, CB_SETCURSEL, nSelect, 0); }

  002eb	50		 push	 eax
  002ec	68 4e 01 00 00	 push	 334			; 0000014eH
  002f1	ff b6 d8 13 00
	00		 push	 DWORD PTR [esi+5080]
  002f7	ff d3		 call	 ebx
$LN69@Init_Compo:

; 763  : 	{ ASSERT(::IsWindow(m_hWnd)); return (int)::SendMessage(m_hWnd, CB_GETCOUNT, 0, 0); }

  002f9	6a 00		 push	 0
  002fb	6a 00		 push	 0
  002fd	68 46 01 00 00	 push	 326			; 00000146H
  00302	ff b6 60 14 00
	00		 push	 DWORD PTR [esi+5216]
  00308	ff d3		 call	 ebx
; File D:\git\src\IBK\IBK_DRFN\ProjSrc\SrcChartEx\ChartAddIn\ChartEnvSetupDlgAddIn\ChartEnvSetupDlgAddIn\Setting_Common_Type_A.cpp

; 878  : 	if( m_cmbLineType2.GetCount() == 0 )

  0030a	85 c0		 test	 eax, eax
  0030c	75 21		 jne	 SHORT $LN70@Init_Compo

; 879  : 		Initial_DrawBaseLineStyleComboBox( nSubGraphIndex, m_cmbLineType2 );

  0030e	8d 86 40 14 00
	00		 lea	 eax, DWORD PTR [esi+5184]
  00314	8b ce		 mov	 ecx, esi
  00316	50		 push	 eax
  00317	57		 push	 edi
  00318	e8 00 00 00 00	 call	 ?Initial_DrawBaseLineStyleComboBox@CBaseDialog@@IAEXHAAVCBitmapItemComboBox@@@Z ; CBaseDialog::Initial_DrawBaseLineStyleComboBox

; 806  : }

  0031d	8b 4d f4	 mov	 ecx, DWORD PTR __$EHRec$[ebp]
  00320	64 89 0d 00 00
	00 00		 mov	 DWORD PTR fs:0, ecx
  00327	59		 pop	 ecx
  00328	5f		 pop	 edi
  00329	5e		 pop	 esi
  0032a	5b		 pop	 ebx
  0032b	8b e5		 mov	 esp, ebp
  0032d	5d		 pop	 ebp
  0032e	c3		 ret	 0
$LN70@Init_Compo:

; 881  : 		m_cmbLineType2.SetCurSel( m_pIGraphInfo->GetSubGraphDrawBaseLineStyle( nSubGraphIndex));

  0032f	8b 8e c4 00 00
	00		 mov	 ecx, DWORD PTR [esi+196]
  00335	57		 push	 edi
  00336	8b 01		 mov	 eax, DWORD PTR [ecx]
  00338	ff 90 90 00 00
	00		 call	 DWORD PTR [eax+144]
; File C:\Program Files (x86)\Microsoft Visual Studio\2019\Community\VC\Tools\MSVC\14.29.30133\atlmfc\include\afxwin2.inl

; 767  : 	{ ASSERT(::IsWindow(m_hWnd)); return (int)::SendMessage(m_hWnd, CB_SETCURSEL, nSelect, 0); }

  0033e	6a 00		 push	 0
  00340	50		 push	 eax
  00341	68 4e 01 00 00	 push	 334			; 0000014eH
  00346	ff b6 60 14 00
	00		 push	 DWORD PTR [esi+5216]
  0034c	ff d3		 call	 ebx
$LN71@Init_Compo:
; File D:\git\src\IBK\IBK_DRFN\ProjSrc\SrcChartEx\ChartAddIn\ChartEnvSetupDlgAddIn\ChartEnvSetupDlgAddIn\Setting_Common_Type_A.cpp

; 806  : }

  0034e	8b 4d f4	 mov	 ecx, DWORD PTR __$EHRec$[ebp]
  00351	64 89 0d 00 00
	00 00		 mov	 DWORD PTR fs:0, ecx
  00358	59		 pop	 ecx
  00359	5f		 pop	 edi
  0035a	5e		 pop	 esi
  0035b	5b		 pop	 ebx
  0035c	8b e5		 mov	 esp, ebp
  0035e	5d		 pop	 ebp
  0035f	c3		 ret	 0
_TEXT	ENDS
;	COMDAT text$x
text$x	SEGMENT
__unwindfunclet$?Init_Composition_Group@CSetting_Common_Type_A@@AAEXXZ$0:
  00000	8d 4d dc	 lea	 ecx, DWORD PTR _szSubGraphName$3[ebp]
  00003	e9 00 00 00 00	 jmp	 ??1ILPCSTR135914@@QAE@XZ ; ILPCSTR135914::~ILPCSTR135914
__unwindfunclet$?Init_Composition_Group@CSetting_Common_Type_A@@AAEXXZ$1:
  00008	8d 4d f0	 lea	 ecx, DWORD PTR _strUIText$6[ebp]
  0000b	ff 25 00 00 00
	00		 jmp	 DWORD PTR __imp_??1?$CStringT@DV?$StrTraitMFC_DLL@DV?$ChTraitsCRT@D@ATL@@@@@ATL@@QAE@XZ
__unwindfunclet$?Init_Composition_Group@CSetting_Common_Type_A@@AAEXXZ$3:
  00011	8d 4d dc	 lea	 ecx, DWORD PTR _szSubGraphTitle$2[ebp]
  00014	e9 00 00 00 00	 jmp	 ??1ILPCSTR135914@@QAE@XZ ; ILPCSTR135914::~ILPCSTR135914
__unwindfunclet$?Init_Composition_Group@CSetting_Common_Type_A@@AAEXXZ$4:
  00019	8d 4d f0	 lea	 ecx, DWORD PTR _strUIText$5[ebp]
  0001c	ff 25 00 00 00
	00		 jmp	 DWORD PTR __imp_??1?$CStringT@DV?$StrTraitMFC_DLL@DV?$ChTraitsCRT@D@ATL@@@@@ATL@@QAE@XZ
  00022	cc		 int	 3
  00023	cc		 int	 3
  00024	cc		 int	 3
  00025	cc		 int	 3
  00026	cc		 int	 3
__ehhandler$?Init_Composition_Group@CSetting_Common_Type_A@@AAEXXZ:
  00027	90		 npad	 1
  00028	90		 npad	 1
  00029	8b 54 24 08	 mov	 edx, DWORD PTR [esp+8]
  0002d	8d 42 0c	 lea	 eax, DWORD PTR [edx+12]
  00030	8b 4a d8	 mov	 ecx, DWORD PTR [edx-40]
  00033	33 c8		 xor	 ecx, eax
  00035	e8 00 00 00 00	 call	 @__security_check_cookie@4
  0003a	b8 00 00 00 00	 mov	 eax, OFFSET __ehfuncinfo$?Init_Composition_Group@CSetting_Common_Type_A@@AAEXXZ
  0003f	e9 00 00 00 00	 jmp	 ___CxxFrameHandler3
text$x	ENDS
?Init_Composition_Group@CSetting_Common_Type_A@@AAEXXZ ENDP ; CSetting_Common_Type_A::Init_Composition_Group
; Function compile flags: /Ogtp
; File D:\git\src\IBK\IBK_DRFN\ProjSrc\SrcChartEx\ChartAddIn\ChartEnvSetupDlgAddIn\ChartEnvSetupDlgAddIn\Setting_Common_Type_A.cpp
; File D:\git\src\IBK\IBK_DRFN\ProjSrc\SrcChartEx\ChartAddIn\ChartEnvSetupDlgAddIn\Include_AddIn_135914\I135914\_IString.h
; File D:\git\src\IBK\IBK_DRFN\ProjSrc\SrcChartEx\ChartAddIn\ChartEnvSetupDlgAddIn\ChartEnvSetupDlgAddIn\Setting_Common_Type_A.cpp
; File D:\git\src\IBK\IBK_DRFN\ProjSrc\SrcChartEx\ChartAddIn\ChartEnvSetupDlgAddIn\Include_AddIn_135914\I135914\_IString.h
; File D:\git\src\IBK\IBK_DRFN\ProjSrc\SrcChartEx\ChartAddIn\ChartEnvSetupDlgAddIn\ChartEnvSetupDlgAddIn\Setting_Common_Type_A.cpp
;	COMDAT ?Init_Variable_Group_Title@CSetting_Common_Type_A@@AAEXH@Z
_TEXT	SEGMENT
_szGraphName$2 = -40					; size = 8
$T3 = -32						; size = 4
$T4 = -28						; size = 4
$T5 = -24						; size = 4
$T6 = -20						; size = 4
$T7 = -16						; size = 4
__$EHRec$ = -12						; size = 12
_p_nCndCount$ = 8					; size = 4
?Init_Variable_Group_Title@CSetting_Common_Type_A@@AAEXH@Z PROC ; CSetting_Common_Type_A::Init_Variable_Group_Title, COMDAT
; _this$ = ecx

; 298  : {

  00000	55		 push	 ebp
  00001	8b ec		 mov	 ebp, esp
  00003	6a ff		 push	 -1
  00005	68 00 00 00 00	 push	 __ehhandler$?Init_Variable_Group_Title@CSetting_Common_Type_A@@AAEXH@Z
  0000a	64 a1 00 00 00
	00		 mov	 eax, DWORD PTR fs:0
  00010	50		 push	 eax
  00011	83 ec 1c	 sub	 esp, 28			; 0000001cH
  00014	53		 push	 ebx
  00015	56		 push	 esi
  00016	57		 push	 edi
  00017	a1 00 00 00 00	 mov	 eax, DWORD PTR ___security_cookie
  0001c	33 c5		 xor	 eax, ebp
  0001e	50		 push	 eax
  0001f	8d 45 f4	 lea	 eax, DWORD PTR __$EHRec$[ebp]
  00022	64 a3 00 00 00
	00		 mov	 DWORD PTR fs:0, eax
  00028	8b f1		 mov	 esi, ecx

; 562  : 		GetDlgItem( IDC_STATIC_VALUE1 )->ShowWindow( SW_HIDE );

  0002a	6a 00		 push	 0
  0002c	68 d6 17 00 00	 push	 6102			; 000017d6H
  00031	e8 00 00 00 00	 call	 ?GetDlgItem@CWnd@@QBEPAV1@H@Z ; CWnd::GetDlgItem
  00036	8b c8		 mov	 ecx, eax
  00038	e8 00 00 00 00	 call	 ?ShowWindow@CWnd@@QAEHH@Z ; CWnd::ShowWindow

; 563  : 		GetDlgItem( IDC_EDIT_VALUE1 )->ShowWindow( SW_HIDE );

  0003d	6a 00		 push	 0
  0003f	68 d0 17 00 00	 push	 6096			; 000017d0H
  00044	8b ce		 mov	 ecx, esi
  00046	e8 00 00 00 00	 call	 ?GetDlgItem@CWnd@@QBEPAV1@H@Z ; CWnd::GetDlgItem
  0004b	8b c8		 mov	 ecx, eax
  0004d	e8 00 00 00 00	 call	 ?ShowWindow@CWnd@@QAEHH@Z ; CWnd::ShowWindow

; 564  : 		GetDlgItem( IDC_SPIN_VALUE1 )->ShowWindow( SW_HIDE );

  00052	6a 00		 push	 0
  00054	68 db 17 00 00	 push	 6107			; 000017dbH
  00059	8b ce		 mov	 ecx, esi
  0005b	e8 00 00 00 00	 call	 ?GetDlgItem@CWnd@@QBEPAV1@H@Z ; CWnd::GetDlgItem
  00060	8b c8		 mov	 ecx, eax
  00062	e8 00 00 00 00	 call	 ?ShowWindow@CWnd@@QAEHH@Z ; CWnd::ShowWindow

; 586  : 		GetDlgItem( IDC_STATIC_VALUE2 )->ShowWindow( SW_HIDE );

  00067	6a 00		 push	 0
  00069	68 d7 17 00 00	 push	 6103			; 000017d7H
  0006e	8b ce		 mov	 ecx, esi
  00070	e8 00 00 00 00	 call	 ?GetDlgItem@CWnd@@QBEPAV1@H@Z ; CWnd::GetDlgItem
  00075	8b c8		 mov	 ecx, eax
  00077	e8 00 00 00 00	 call	 ?ShowWindow@CWnd@@QAEHH@Z ; CWnd::ShowWindow

; 587  : 		GetDlgItem( IDC_EDIT_VALUE2 )->ShowWindow( SW_HIDE );

  0007c	6a 00		 push	 0
  0007e	68 d1 17 00 00	 push	 6097			; 000017d1H
  00083	8b ce		 mov	 ecx, esi
  00085	e8 00 00 00 00	 call	 ?GetDlgItem@CWnd@@QBEPAV1@H@Z ; CWnd::GetDlgItem
  0008a	8b c8		 mov	 ecx, eax
  0008c	e8 00 00 00 00	 call	 ?ShowWindow@CWnd@@QAEHH@Z ; CWnd::ShowWindow

; 588  : 		GetDlgItem( IDC_SPIN_VALUE2 )->ShowWindow( SW_HIDE );

  00091	6a 00		 push	 0
  00093	68 dc 17 00 00	 push	 6108			; 000017dcH
  00098	8b ce		 mov	 ecx, esi
  0009a	e8 00 00 00 00	 call	 ?GetDlgItem@CWnd@@QBEPAV1@H@Z ; CWnd::GetDlgItem
  0009f	8b c8		 mov	 ecx, eax
  000a1	e8 00 00 00 00	 call	 ?ShowWindow@CWnd@@QAEHH@Z ; CWnd::ShowWindow

; 610  : 		GetDlgItem( IDC_STATIC_VALUE3 )->ShowWindow( SW_HIDE );

  000a6	6a 00		 push	 0
  000a8	68 d8 17 00 00	 push	 6104			; 000017d8H
  000ad	8b ce		 mov	 ecx, esi
  000af	e8 00 00 00 00	 call	 ?GetDlgItem@CWnd@@QBEPAV1@H@Z ; CWnd::GetDlgItem
  000b4	8b c8		 mov	 ecx, eax
  000b6	e8 00 00 00 00	 call	 ?ShowWindow@CWnd@@QAEHH@Z ; CWnd::ShowWindow

; 611  : 		GetDlgItem( IDC_EDIT_VALUE3 )->ShowWindow( SW_HIDE );

  000bb	6a 00		 push	 0
  000bd	68 d2 17 00 00	 push	 6098			; 000017d2H
  000c2	8b ce		 mov	 ecx, esi
  000c4	e8 00 00 00 00	 call	 ?GetDlgItem@CWnd@@QBEPAV1@H@Z ; CWnd::GetDlgItem
  000c9	8b c8		 mov	 ecx, eax
  000cb	e8 00 00 00 00	 call	 ?ShowWindow@CWnd@@QAEHH@Z ; CWnd::ShowWindow

; 612  : 		GetDlgItem( IDC_SPIN_VALUE3 )->ShowWindow( SW_HIDE );

  000d0	6a 00		 push	 0
  000d2	68 dd 17 00 00	 push	 6109			; 000017ddH
  000d7	8b ce		 mov	 ecx, esi
  000d9	e8 00 00 00 00	 call	 ?GetDlgItem@CWnd@@QBEPAV1@H@Z ; CWnd::GetDlgItem
  000de	8b c8		 mov	 ecx, eax
  000e0	e8 00 00 00 00	 call	 ?ShowWindow@CWnd@@QAEHH@Z ; CWnd::ShowWindow

; 634  : 		GetDlgItem( IDC_STATIC_VALUE4 )->ShowWindow( SW_HIDE );

  000e5	6a 00		 push	 0
  000e7	68 d9 17 00 00	 push	 6105			; 000017d9H
  000ec	8b ce		 mov	 ecx, esi
  000ee	e8 00 00 00 00	 call	 ?GetDlgItem@CWnd@@QBEPAV1@H@Z ; CWnd::GetDlgItem
  000f3	8b c8		 mov	 ecx, eax
  000f5	e8 00 00 00 00	 call	 ?ShowWindow@CWnd@@QAEHH@Z ; CWnd::ShowWindow

; 635  : 		GetDlgItem( IDC_EDIT_VALUE4 )->ShowWindow( SW_HIDE );

  000fa	6a 00		 push	 0
  000fc	68 d3 17 00 00	 push	 6099			; 000017d3H
  00101	8b ce		 mov	 ecx, esi
  00103	e8 00 00 00 00	 call	 ?GetDlgItem@CWnd@@QBEPAV1@H@Z ; CWnd::GetDlgItem
  00108	8b c8		 mov	 ecx, eax
  0010a	e8 00 00 00 00	 call	 ?ShowWindow@CWnd@@QAEHH@Z ; CWnd::ShowWindow

; 636  : 		GetDlgItem( IDC_SPIN_VALUE4 )->ShowWindow( SW_HIDE );

  0010f	6a 00		 push	 0
  00111	68 de 17 00 00	 push	 6110			; 000017deH
  00116	8b ce		 mov	 ecx, esi
  00118	e8 00 00 00 00	 call	 ?GetDlgItem@CWnd@@QBEPAV1@H@Z ; CWnd::GetDlgItem
  0011d	8b c8		 mov	 ecx, eax
  0011f	e8 00 00 00 00	 call	 ?ShowWindow@CWnd@@QAEHH@Z ; CWnd::ShowWindow

; 658  : 		GetDlgItem( IDC_STATIC_VALUE5 )->ShowWindow( SW_HIDE );

  00124	6a 00		 push	 0
  00126	68 da 17 00 00	 push	 6106			; 000017daH
  0012b	8b ce		 mov	 ecx, esi
  0012d	e8 00 00 00 00	 call	 ?GetDlgItem@CWnd@@QBEPAV1@H@Z ; CWnd::GetDlgItem
  00132	8b c8		 mov	 ecx, eax
  00134	e8 00 00 00 00	 call	 ?ShowWindow@CWnd@@QAEHH@Z ; CWnd::ShowWindow

; 659  : 		GetDlgItem( IDC_EDIT_VALUE5 )->ShowWindow( SW_HIDE );

  00139	6a 00		 push	 0
  0013b	68 d4 17 00 00	 push	 6100			; 000017d4H
  00140	8b ce		 mov	 ecx, esi
  00142	e8 00 00 00 00	 call	 ?GetDlgItem@CWnd@@QBEPAV1@H@Z ; CWnd::GetDlgItem
  00147	8b c8		 mov	 ecx, eax
  00149	e8 00 00 00 00	 call	 ?ShowWindow@CWnd@@QAEHH@Z ; CWnd::ShowWindow

; 660  : 		GetDlgItem( IDC_SPIN_VALUE5 )->ShowWindow( SW_HIDE );

  0014e	6a 00		 push	 0
  00150	68 df 17 00 00	 push	 6111			; 000017dfH
  00155	8b ce		 mov	 ecx, esi
  00157	e8 00 00 00 00	 call	 ?GetDlgItem@CWnd@@QBEPAV1@H@Z ; CWnd::GetDlgItem
  0015c	8b c8		 mov	 ecx, eax
  0015e	e8 00 00 00 00	 call	 ?ShowWindow@CWnd@@QAEHH@Z ; CWnd::ShowWindow

; 299  : 	UseValue1(FALSE);
; 300  : 	UseValue2(FALSE);
; 301  : 	UseValue3(FALSE);
; 302  : 	UseValue4(FALSE);
; 303  : 	UseValue5(FALSE);
; 304  : 	
; 305  : 	if( p_nCndCount == 0 )

  00163	8b 45 08	 mov	 eax, DWORD PTR _p_nCndCount$[ebp]
  00166	85 c0		 test	 eax, eax
  00168	75 28		 jne	 SHORT $LN7@Init_Varia

; 306  : 	{
; 307  : 		GetDlgItem( IDC_STATIC_VALUE )->ShowWindow( SW_HIDE);

  0016a	50		 push	 eax
  0016b	68 a7 17 00 00	 push	 6055			; 000017a7H
  00170	8b ce		 mov	 ecx, esi
  00172	e8 00 00 00 00	 call	 ?GetDlgItem@CWnd@@QBEPAV1@H@Z ; CWnd::GetDlgItem
  00177	8b c8		 mov	 ecx, eax
  00179	e8 00 00 00 00	 call	 ?ShowWindow@CWnd@@QAEHH@Z ; CWnd::ShowWindow

; 347  : }

  0017e	8b 4d f4	 mov	 ecx, DWORD PTR __$EHRec$[ebp]
  00181	64 89 0d 00 00
	00 00		 mov	 DWORD PTR fs:0, ecx
  00188	59		 pop	 ecx
  00189	5f		 pop	 edi
  0018a	5e		 pop	 esi
  0018b	5b		 pop	 ebx
  0018c	8b e5		 mov	 esp, ebp
  0018e	5d		 pop	 ebp
  0018f	c2 04 00	 ret	 4
$LN7@Init_Varia:

; 308  : 		return;
; 309  : 	}
; 310  : 
; 311  : 	if( 0 < p_nCndCount && p_nCndCount < 6 )

  00192	48		 dec	 eax
  00193	83 f8 04	 cmp	 eax, 4
  00196	0f 87 84 02 00
	00		 ja	 $LN76@Init_Varia

; 313  : 		ILPCSTR szGraphName = m_pIGraphInfo->GetGraphNameString();

  0019c	8b 8e c4 00 00
	00		 mov	 ecx, DWORD PTR [esi+196]
  001a2	8b 01		 mov	 eax, DWORD PTR [ecx]
  001a4	ff 90 a0 00 00
	00		 call	 DWORD PTR [eax+160]
; File D:\git\src\IBK\IBK_DRFN\ProjSrc\SrcChartEx\ChartAddIn\ChartEnvSetupDlgAddIn\Include_AddIn_135914\I135914\_IString.h

; 39   : 		m_pIStrData = p_pIString;	// Do not AddRef(). Because It must be Return Value.

  001aa	8b d8		 mov	 ebx, eax
  001ac	89 5d dc	 mov	 DWORD PTR _szGraphName$2[ebp+4], ebx

; 40   : 		if( m_pIStrData) m_szData = m_pIStrData->GetData();

  001af	85 db		 test	 ebx, ebx
  001b1	74 0c		 je	 SHORT $LN42@Init_Varia
  001b3	8b 13		 mov	 edx, DWORD PTR [ebx]
  001b5	8b cb		 mov	 ecx, ebx
  001b7	ff 52 10	 call	 DWORD PTR [edx+16]
  001ba	89 45 d8	 mov	 DWORD PTR _szGraphName$2[ebp], eax
  001bd	eb 07		 jmp	 SHORT $LN43@Init_Varia
$LN42@Init_Varia:

; 41   : 		else m_szData = NULL;

  001bf	c7 45 d8 00 00
	00 00		 mov	 DWORD PTR _szGraphName$2[ebp], 0
$LN43@Init_Varia:
; File D:\git\src\IBK\IBK_DRFN\ProjSrc\SrcChartEx\ChartAddIn\ChartEnvSetupDlgAddIn\ChartEnvSetupDlgAddIn\Setting_Common_Type_A.cpp

; 313  : 		ILPCSTR szGraphName = m_pIGraphInfo->GetGraphNameString();

  001c6	8b 5d d8	 mov	 ebx, DWORD PTR _szGraphName$2[ebp]

; 314  : 		for( int i = 0 ; i < p_nCndCount ; i++ )

  001c9	33 ff		 xor	 edi, edi
  001cb	8b 45 08	 mov	 eax, DWORD PTR _p_nCndCount$[ebp]
  001ce	c7 45 fc 00 00
	00 00		 mov	 DWORD PTR __$EHRec$[ebp+8], 0
$LL4@Init_Varia:

; 315  : 		{
; 316  : 			switch( i )

  001d5	83 ff 04	 cmp	 edi, 4
  001d8	0f 87 0a 02 00
	00		 ja	 $LN2@Init_Varia
  001de	ff 24 bd 00 00
	00 00		 jmp	 DWORD PTR $LN83@Init_Varia[edi*4]
$LN9@Init_Varia:

; 555  : 		GetDlgItem( IDC_STATIC_VALUE1 )->ShowWindow( SW_SHOW );

  001e5	6a 05		 push	 5
  001e7	68 d6 17 00 00	 push	 6102			; 000017d6H
  001ec	8b ce		 mov	 ecx, esi
  001ee	e8 00 00 00 00	 call	 ?GetDlgItem@CWnd@@QBEPAV1@H@Z ; CWnd::GetDlgItem
  001f3	8b c8		 mov	 ecx, eax
  001f5	e8 00 00 00 00	 call	 ?ShowWindow@CWnd@@QAEHH@Z ; CWnd::ShowWindow

; 556  : 		GetDlgItem( IDC_EDIT_VALUE1 )->ShowWindow( SW_SHOW );

  001fa	6a 05		 push	 5
  001fc	68 d0 17 00 00	 push	 6096			; 000017d0H
  00201	8b ce		 mov	 ecx, esi
  00203	e8 00 00 00 00	 call	 ?GetDlgItem@CWnd@@QBEPAV1@H@Z ; CWnd::GetDlgItem
  00208	8b c8		 mov	 ecx, eax
  0020a	e8 00 00 00 00	 call	 ?ShowWindow@CWnd@@QAEHH@Z ; CWnd::ShowWindow

; 557  : 		GetDlgItem( IDC_SPIN_VALUE1 )->ShowWindow( SW_SHOW );

  0020f	6a 05		 push	 5
  00211	68 db 17 00 00	 push	 6107			; 000017dbH
  00216	8b ce		 mov	 ecx, esi
  00218	e8 00 00 00 00	 call	 ?GetDlgItem@CWnd@@QBEPAV1@H@Z ; CWnd::GetDlgItem
  0021d	8b c8		 mov	 ecx, eax
  0021f	e8 00 00 00 00	 call	 ?ShowWindow@CWnd@@QAEHH@Z ; CWnd::ShowWindow

; 317  : 			{
; 318  : 				case 0:
; 319  : 					UseValue1( TRUE );
; 320  : 					m_stcValue1.SetWindowText( GetConditionTitle( szGraphName, i+1 ) );

  00224	6a 01		 push	 1
  00226	53		 push	 ebx
  00227	8d 45 f0	 lea	 eax, DWORD PTR $T7[ebp]
  0022a	8b ce		 mov	 ecx, esi
  0022c	50		 push	 eax
  0022d	e8 00 00 00 00	 call	 ?GetConditionTitle@CBaseDialog@@IAE?AV?$CStringT@DV?$StrTraitMFC_DLL@DV?$ChTraitsCRT@D@ATL@@@@@ATL@@PBDH@Z ; CBaseDialog::GetConditionTitle
  00232	ff 30		 push	 DWORD PTR [eax]
  00234	8d 8e 50 09 00
	00		 lea	 ecx, DWORD PTR [esi+2384]
  0023a	c6 45 fc 01	 mov	 BYTE PTR __$EHRec$[ebp+8], 1
  0023e	e8 00 00 00 00	 call	 ?SetWindowTextA@CWnd@@QAEXPBD@Z ; CWnd::SetWindowTextA
  00243	8d 4d f0	 lea	 ecx, DWORD PTR $T7[ebp]

; 321  : 					break;

  00246	e9 90 01 00 00	 jmp	 $LN85@Init_Varia
$LN10@Init_Varia:

; 579  : 		GetDlgItem( IDC_STATIC_VALUE2 )->ShowWindow( SW_SHOW );

  0024b	6a 05		 push	 5
  0024d	68 d7 17 00 00	 push	 6103			; 000017d7H
  00252	8b ce		 mov	 ecx, esi
  00254	e8 00 00 00 00	 call	 ?GetDlgItem@CWnd@@QBEPAV1@H@Z ; CWnd::GetDlgItem
  00259	8b c8		 mov	 ecx, eax
  0025b	e8 00 00 00 00	 call	 ?ShowWindow@CWnd@@QAEHH@Z ; CWnd::ShowWindow

; 580  : 		GetDlgItem( IDC_EDIT_VALUE2 )->ShowWindow( SW_SHOW );

  00260	6a 05		 push	 5
  00262	68 d1 17 00 00	 push	 6097			; 000017d1H
  00267	8b ce		 mov	 ecx, esi
  00269	e8 00 00 00 00	 call	 ?GetDlgItem@CWnd@@QBEPAV1@H@Z ; CWnd::GetDlgItem
  0026e	8b c8		 mov	 ecx, eax
  00270	e8 00 00 00 00	 call	 ?ShowWindow@CWnd@@QAEHH@Z ; CWnd::ShowWindow

; 581  : 		GetDlgItem( IDC_SPIN_VALUE2 )->ShowWindow( SW_SHOW );

  00275	6a 05		 push	 5
  00277	68 dc 17 00 00	 push	 6108			; 000017dcH
  0027c	8b ce		 mov	 ecx, esi
  0027e	e8 00 00 00 00	 call	 ?GetDlgItem@CWnd@@QBEPAV1@H@Z ; CWnd::GetDlgItem
  00283	8b c8		 mov	 ecx, eax
  00285	e8 00 00 00 00	 call	 ?ShowWindow@CWnd@@QAEHH@Z ; CWnd::ShowWindow

; 322  : 				
; 323  : 				case 1:
; 324  : 					UseValue2( TRUE );
; 325  : 					m_stcValue2.SetWindowText( GetConditionTitle( szGraphName, i+1 ) );

  0028a	6a 02		 push	 2
  0028c	53		 push	 ebx
  0028d	8d 45 ec	 lea	 eax, DWORD PTR $T6[ebp]
  00290	8b ce		 mov	 ecx, esi
  00292	50		 push	 eax
  00293	e8 00 00 00 00	 call	 ?GetConditionTitle@CBaseDialog@@IAE?AV?$CStringT@DV?$StrTraitMFC_DLL@DV?$ChTraitsCRT@D@ATL@@@@@ATL@@PBDH@Z ; CBaseDialog::GetConditionTitle
  00298	ff 30		 push	 DWORD PTR [eax]
  0029a	8d 8e d0 08 00
	00		 lea	 ecx, DWORD PTR [esi+2256]
  002a0	c6 45 fc 02	 mov	 BYTE PTR __$EHRec$[ebp+8], 2
  002a4	e8 00 00 00 00	 call	 ?SetWindowTextA@CWnd@@QAEXPBD@Z ; CWnd::SetWindowTextA
  002a9	8d 4d ec	 lea	 ecx, DWORD PTR $T6[ebp]

; 326  : 					break;

  002ac	e9 2a 01 00 00	 jmp	 $LN85@Init_Varia
$LN11@Init_Varia:

; 603  : 		GetDlgItem( IDC_STATIC_VALUE3 )->ShowWindow( SW_SHOW );

  002b1	6a 05		 push	 5
  002b3	68 d8 17 00 00	 push	 6104			; 000017d8H
  002b8	8b ce		 mov	 ecx, esi
  002ba	e8 00 00 00 00	 call	 ?GetDlgItem@CWnd@@QBEPAV1@H@Z ; CWnd::GetDlgItem
  002bf	8b c8		 mov	 ecx, eax
  002c1	e8 00 00 00 00	 call	 ?ShowWindow@CWnd@@QAEHH@Z ; CWnd::ShowWindow

; 604  : 		GetDlgItem( IDC_EDIT_VALUE3 )->ShowWindow( SW_SHOW );

  002c6	6a 05		 push	 5
  002c8	68 d2 17 00 00	 push	 6098			; 000017d2H
  002cd	8b ce		 mov	 ecx, esi
  002cf	e8 00 00 00 00	 call	 ?GetDlgItem@CWnd@@QBEPAV1@H@Z ; CWnd::GetDlgItem
  002d4	8b c8		 mov	 ecx, eax
  002d6	e8 00 00 00 00	 call	 ?ShowWindow@CWnd@@QAEHH@Z ; CWnd::ShowWindow

; 605  : 		GetDlgItem( IDC_SPIN_VALUE3 )->ShowWindow( SW_SHOW );

  002db	6a 05		 push	 5
  002dd	68 dd 17 00 00	 push	 6109			; 000017ddH
  002e2	8b ce		 mov	 ecx, esi
  002e4	e8 00 00 00 00	 call	 ?GetDlgItem@CWnd@@QBEPAV1@H@Z ; CWnd::GetDlgItem
  002e9	8b c8		 mov	 ecx, eax
  002eb	e8 00 00 00 00	 call	 ?ShowWindow@CWnd@@QAEHH@Z ; CWnd::ShowWindow

; 327  : 						
; 328  : 				case 2:
; 329  : 					UseValue3( TRUE );
; 330  : 					m_stcValue3.SetWindowText( GetConditionTitle( szGraphName, i+1 ) );

  002f0	6a 03		 push	 3
  002f2	53		 push	 ebx
  002f3	8d 45 e8	 lea	 eax, DWORD PTR $T5[ebp]
  002f6	8b ce		 mov	 ecx, esi
  002f8	50		 push	 eax
  002f9	e8 00 00 00 00	 call	 ?GetConditionTitle@CBaseDialog@@IAE?AV?$CStringT@DV?$StrTraitMFC_DLL@DV?$ChTraitsCRT@D@ATL@@@@@ATL@@PBDH@Z ; CBaseDialog::GetConditionTitle
  002fe	ff 30		 push	 DWORD PTR [eax]
  00300	8d 8e 50 08 00
	00		 lea	 ecx, DWORD PTR [esi+2128]
  00306	c6 45 fc 03	 mov	 BYTE PTR __$EHRec$[ebp+8], 3
  0030a	e8 00 00 00 00	 call	 ?SetWindowTextA@CWnd@@QAEXPBD@Z ; CWnd::SetWindowTextA
  0030f	8d 4d e8	 lea	 ecx, DWORD PTR $T5[ebp]

; 331  : 					break;

  00312	e9 c4 00 00 00	 jmp	 $LN85@Init_Varia
$LN12@Init_Varia:

; 627  : 		GetDlgItem( IDC_STATIC_VALUE4 )->ShowWindow( SW_SHOW );

  00317	6a 05		 push	 5
  00319	68 d9 17 00 00	 push	 6105			; 000017d9H
  0031e	8b ce		 mov	 ecx, esi
  00320	e8 00 00 00 00	 call	 ?GetDlgItem@CWnd@@QBEPAV1@H@Z ; CWnd::GetDlgItem
  00325	8b c8		 mov	 ecx, eax
  00327	e8 00 00 00 00	 call	 ?ShowWindow@CWnd@@QAEHH@Z ; CWnd::ShowWindow

; 628  : 		GetDlgItem( IDC_EDIT_VALUE4 )->ShowWindow( SW_SHOW );

  0032c	6a 05		 push	 5
  0032e	68 d3 17 00 00	 push	 6099			; 000017d3H
  00333	8b ce		 mov	 ecx, esi
  00335	e8 00 00 00 00	 call	 ?GetDlgItem@CWnd@@QBEPAV1@H@Z ; CWnd::GetDlgItem
  0033a	8b c8		 mov	 ecx, eax
  0033c	e8 00 00 00 00	 call	 ?ShowWindow@CWnd@@QAEHH@Z ; CWnd::ShowWindow

; 629  : 		GetDlgItem( IDC_SPIN_VALUE4 )->ShowWindow( SW_SHOW );

  00341	6a 05		 push	 5
  00343	68 de 17 00 00	 push	 6110			; 000017deH
  00348	8b ce		 mov	 ecx, esi
  0034a	e8 00 00 00 00	 call	 ?GetDlgItem@CWnd@@QBEPAV1@H@Z ; CWnd::GetDlgItem
  0034f	8b c8		 mov	 ecx, eax
  00351	e8 00 00 00 00	 call	 ?ShowWindow@CWnd@@QAEHH@Z ; CWnd::ShowWindow

; 332  : 							
; 333  : 				case 3:
; 334  : 					UseValue4( TRUE );
; 335  : 					m_stcValue4.SetWindowText( GetConditionTitle( szGraphName, i+1 ) );

  00356	6a 04		 push	 4
  00358	53		 push	 ebx
  00359	8d 45 e4	 lea	 eax, DWORD PTR $T4[ebp]
  0035c	8b ce		 mov	 ecx, esi
  0035e	50		 push	 eax
  0035f	e8 00 00 00 00	 call	 ?GetConditionTitle@CBaseDialog@@IAE?AV?$CStringT@DV?$StrTraitMFC_DLL@DV?$ChTraitsCRT@D@ATL@@@@@ATL@@PBDH@Z ; CBaseDialog::GetConditionTitle
  00364	ff 30		 push	 DWORD PTR [eax]
  00366	8d 8e d0 07 00
	00		 lea	 ecx, DWORD PTR [esi+2000]
  0036c	c6 45 fc 04	 mov	 BYTE PTR __$EHRec$[ebp+8], 4
  00370	e8 00 00 00 00	 call	 ?SetWindowTextA@CWnd@@QAEXPBD@Z ; CWnd::SetWindowTextA
  00375	8d 4d e4	 lea	 ecx, DWORD PTR $T4[ebp]

; 336  : 					break;

  00378	eb 61		 jmp	 SHORT $LN85@Init_Varia
$LN13@Init_Varia:

; 651  : 		GetDlgItem( IDC_STATIC_VALUE5 )->ShowWindow( SW_SHOW );

  0037a	6a 05		 push	 5
  0037c	68 da 17 00 00	 push	 6106			; 000017daH
  00381	8b ce		 mov	 ecx, esi
  00383	e8 00 00 00 00	 call	 ?GetDlgItem@CWnd@@QBEPAV1@H@Z ; CWnd::GetDlgItem
  00388	8b c8		 mov	 ecx, eax
  0038a	e8 00 00 00 00	 call	 ?ShowWindow@CWnd@@QAEHH@Z ; CWnd::ShowWindow

; 652  : 		GetDlgItem( IDC_EDIT_VALUE5 )->ShowWindow( SW_SHOW );

  0038f	6a 05		 push	 5
  00391	68 d4 17 00 00	 push	 6100			; 000017d4H
  00396	8b ce		 mov	 ecx, esi
  00398	e8 00 00 00 00	 call	 ?GetDlgItem@CWnd@@QBEPAV1@H@Z ; CWnd::GetDlgItem
  0039d	8b c8		 mov	 ecx, eax
  0039f	e8 00 00 00 00	 call	 ?ShowWindow@CWnd@@QAEHH@Z ; CWnd::ShowWindow

; 653  : 		GetDlgItem( IDC_SPIN_VALUE5 )->ShowWindow( SW_SHOW );

  003a4	6a 05		 push	 5
  003a6	68 df 17 00 00	 push	 6111			; 000017dfH
  003ab	8b ce		 mov	 ecx, esi
  003ad	e8 00 00 00 00	 call	 ?GetDlgItem@CWnd@@QBEPAV1@H@Z ; CWnd::GetDlgItem
  003b2	8b c8		 mov	 ecx, eax
  003b4	e8 00 00 00 00	 call	 ?ShowWindow@CWnd@@QAEHH@Z ; CWnd::ShowWindow

; 337  : 					
; 338  : 				case 4:
; 339  : 					UseValue5( TRUE );
; 340  : 					m_stcValue5.SetWindowText( GetConditionTitle( szGraphName, i+1 ) );

  003b9	6a 05		 push	 5
  003bb	53		 push	 ebx
  003bc	8d 45 e0	 lea	 eax, DWORD PTR $T3[ebp]
  003bf	8b ce		 mov	 ecx, esi
  003c1	50		 push	 eax
  003c2	e8 00 00 00 00	 call	 ?GetConditionTitle@CBaseDialog@@IAE?AV?$CStringT@DV?$StrTraitMFC_DLL@DV?$ChTraitsCRT@D@ATL@@@@@ATL@@PBDH@Z ; CBaseDialog::GetConditionTitle
  003c7	ff 30		 push	 DWORD PTR [eax]
  003c9	8d 8e 50 07 00
	00		 lea	 ecx, DWORD PTR [esi+1872]
  003cf	c6 45 fc 05	 mov	 BYTE PTR __$EHRec$[ebp+8], 5
  003d3	e8 00 00 00 00	 call	 ?SetWindowTextA@CWnd@@QAEXPBD@Z ; CWnd::SetWindowTextA
  003d8	8d 4d e0	 lea	 ecx, DWORD PTR $T3[ebp]
$LN85@Init_Varia:

; 314  : 		for( int i = 0 ; i < p_nCndCount ; i++ )

  003db	c6 45 fc 00	 mov	 BYTE PTR __$EHRec$[ebp+8], 0
  003df	ff 15 00 00 00
	00		 call	 DWORD PTR __imp_??1?$CStringT@DV?$StrTraitMFC_DLL@DV?$ChTraitsCRT@D@ATL@@@@@ATL@@QAE@XZ
  003e5	8b 45 08	 mov	 eax, DWORD PTR _p_nCndCount$[ebp]
$LN2@Init_Varia:
  003e8	47		 inc	 edi
  003e9	3b f8		 cmp	 edi, eax
  003eb	0f 8c e4 fd ff
	ff		 jl	 $LL4@Init_Varia

; 341  : 					break;
; 342  : 			}
; 343  : 		}
; 344  : 			
; 345  : 		SetStatePacketCombo( m_pIGraphInfo, m_cmbData, m_stcDataTitle);

  003f1	8d 86 98 0f 00
	00		 lea	 eax, DWORD PTR [esi+3992]
  003f7	8b ce		 mov	 ecx, esi
  003f9	50		 push	 eax
  003fa	8d 86 28 12 00
	00		 lea	 eax, DWORD PTR [esi+4648]
  00400	50		 push	 eax
  00401	ff b6 c4 00 00
	00		 push	 DWORD PTR [esi+196]
  00407	e8 00 00 00 00	 call	 ?SetStatePacketCombo@CBaseDialog@@IAEHPAUIGraphInfo135914@@AAVCComboBox@@AAVCStatic@@@Z ; CBaseDialog::SetStatePacketCombo
; File D:\git\src\IBK\IBK_DRFN\ProjSrc\SrcChartEx\ChartAddIn\ChartEnvSetupDlgAddIn\Include_AddIn_135914\I135914\_IString.h

; 45   : 		if( m_pIStrData)

  0040c	8b 5d dc	 mov	 ebx, DWORD PTR _szGraphName$2[ebp+4]
  0040f	c7 45 fc 06 00
	00 00		 mov	 DWORD PTR __$EHRec$[ebp+8], 6
  00416	85 db		 test	 ebx, ebx
  00418	74 06		 je	 SHORT $LN76@Init_Varia

; 46   : 		{
; 47   : 			m_pIStrData->Release();

  0041a	8b 03		 mov	 eax, DWORD PTR [ebx]
  0041c	53		 push	 ebx
  0041d	ff 50 08	 call	 DWORD PTR [eax+8]
$LN76@Init_Varia:
; File D:\git\src\IBK\IBK_DRFN\ProjSrc\SrcChartEx\ChartAddIn\ChartEnvSetupDlgAddIn\ChartEnvSetupDlgAddIn\Setting_Common_Type_A.cpp

; 347  : }

  00420	8b 4d f4	 mov	 ecx, DWORD PTR __$EHRec$[ebp]
  00423	64 89 0d 00 00
	00 00		 mov	 DWORD PTR fs:0, ecx
  0042a	59		 pop	 ecx
  0042b	5f		 pop	 edi
  0042c	5e		 pop	 esi
  0042d	5b		 pop	 ebx
  0042e	8b e5		 mov	 esp, ebp
  00430	5d		 pop	 ebp
  00431	c2 04 00	 ret	 4
$LN83@Init_Varia:
  00434	00 00 00 00	 DD	 $LN9@Init_Varia
  00438	00 00 00 00	 DD	 $LN10@Init_Varia
  0043c	00 00 00 00	 DD	 $LN11@Init_Varia
  00440	00 00 00 00	 DD	 $LN12@Init_Varia
  00444	00 00 00 00	 DD	 $LN13@Init_Varia
_TEXT	ENDS
;	COMDAT text$x
text$x	SEGMENT
__unwindfunclet$?Init_Variable_Group_Title@CSetting_Common_Type_A@@AAEXH@Z$0:
  00000	8d 4d d8	 lea	 ecx, DWORD PTR _szGraphName$2[ebp]
  00003	e9 00 00 00 00	 jmp	 ??1ILPCSTR135914@@QAE@XZ ; ILPCSTR135914::~ILPCSTR135914
__unwindfunclet$?Init_Variable_Group_Title@CSetting_Common_Type_A@@AAEXH@Z$1:
  00008	8d 4d f0	 lea	 ecx, DWORD PTR $T7[ebp]
  0000b	ff 25 00 00 00
	00		 jmp	 DWORD PTR __imp_??1?$CStringT@DV?$StrTraitMFC_DLL@DV?$ChTraitsCRT@D@ATL@@@@@ATL@@QAE@XZ
__unwindfunclet$?Init_Variable_Group_Title@CSetting_Common_Type_A@@AAEXH@Z$2:
  00011	8d 4d ec	 lea	 ecx, DWORD PTR $T6[ebp]
  00014	ff 25 00 00 00
	00		 jmp	 DWORD PTR __imp_??1?$CStringT@DV?$StrTraitMFC_DLL@DV?$ChTraitsCRT@D@ATL@@@@@ATL@@QAE@XZ
__unwindfunclet$?Init_Variable_Group_Title@CSetting_Common_Type_A@@AAEXH@Z$3:
  0001a	8d 4d e8	 lea	 ecx, DWORD PTR $T5[ebp]
  0001d	ff 25 00 00 00
	00		 jmp	 DWORD PTR __imp_??1?$CStringT@DV?$StrTraitMFC_DLL@DV?$ChTraitsCRT@D@ATL@@@@@ATL@@QAE@XZ
__unwindfunclet$?Init_Variable_Group_Title@CSetting_Common_Type_A@@AAEXH@Z$4:
  00023	8d 4d e4	 lea	 ecx, DWORD PTR $T4[ebp]
  00026	ff 25 00 00 00
	00		 jmp	 DWORD PTR __imp_??1?$CStringT@DV?$StrTraitMFC_DLL@DV?$ChTraitsCRT@D@ATL@@@@@ATL@@QAE@XZ
__unwindfunclet$?Init_Variable_Group_Title@CSetting_Common_Type_A@@AAEXH@Z$5:
  0002c	8d 4d e0	 lea	 ecx, DWORD PTR $T3[ebp]
  0002f	ff 25 00 00 00
	00		 jmp	 DWORD PTR __imp_??1?$CStringT@DV?$StrTraitMFC_DLL@DV?$ChTraitsCRT@D@ATL@@@@@ATL@@QAE@XZ
  00035	cc		 int	 3
  00036	cc		 int	 3
  00037	cc		 int	 3
  00038	cc		 int	 3
  00039	cc		 int	 3
__ehhandler$?Init_Variable_Group_Title@CSetting_Common_Type_A@@AAEXH@Z:
  0003a	90		 npad	 1
  0003b	90		 npad	 1
  0003c	8b 54 24 08	 mov	 edx, DWORD PTR [esp+8]
  00040	8d 42 0c	 lea	 eax, DWORD PTR [edx+12]
  00043	8b 4a d4	 mov	 ecx, DWORD PTR [edx-44]
  00046	33 c8		 xor	 ecx, eax
  00048	e8 00 00 00 00	 call	 @__security_check_cookie@4
  0004d	b8 00 00 00 00	 mov	 eax, OFFSET __ehfuncinfo$?Init_Variable_Group_Title@CSetting_Common_Type_A@@AAEXH@Z
  00052	e9 00 00 00 00	 jmp	 ___CxxFrameHandler3
text$x	ENDS
?Init_Variable_Group_Title@CSetting_Common_Type_A@@AAEXH@Z ENDP ; CSetting_Common_Type_A::Init_Variable_Group_Title
; Function compile flags: /Ogtp
; File D:\git\src\IBK\IBK_DRFN\ProjSrc\SrcChartEx\ChartAddIn\ChartEnvSetupDlgAddIn\ChartEnvSetupDlgAddIn\Setting_Common_Type_A.cpp
;	COMDAT ?CheckSpecialCond@CSetting_Common_Type_A@@AAEHPBD@Z
_TEXT	SEGMENT
_p_szIndicatorName$ = 8					; size = 4
?CheckSpecialCond@CSetting_Common_Type_A@@AAEHPBD@Z PROC ; CSetting_Common_Type_A::CheckSpecialCond, COMDAT
; _this$ = ecx

; 376  : {

  00000	55		 push	 ebp
  00001	8b ec		 mov	 ebp, esp

; 377  : // 2008.01.25 by LYH >>
; 378  : //	if( !strcmp( p_szIndicatorName, ""))
; 379  : 	if( !strcmp( p_szIndicatorName, _MTEXT(C2_COMPARISON_CHART)))

  00003	a1 54 00 00 00	 mov	 eax, DWORD PTR ?g_iMetaTable@@3VIMetaTable@@A+84
  00008	8b 55 08	 mov	 edx, DWORD PTR _p_szIndicatorName$[ebp]
  0000b	56		 push	 esi
  0000c	8b f1		 mov	 esi, ecx
  0000e	8b 80 88 0c 00
	00		 mov	 eax, DWORD PTR [eax+3208]
$LL30@CheckSpeci:
  00014	8a 0a		 mov	 cl, BYTE PTR [edx]
  00016	3a 08		 cmp	 cl, BYTE PTR [eax]
  00018	75 1a		 jne	 SHORT $LN31@CheckSpeci
  0001a	84 c9		 test	 cl, cl
  0001c	74 12		 je	 SHORT $LN32@CheckSpeci
  0001e	8a 4a 01	 mov	 cl, BYTE PTR [edx+1]
  00021	3a 48 01	 cmp	 cl, BYTE PTR [eax+1]
  00024	75 0e		 jne	 SHORT $LN31@CheckSpeci
  00026	83 c2 02	 add	 edx, 2
  00029	83 c0 02	 add	 eax, 2
  0002c	84 c9		 test	 cl, cl
  0002e	75 e4		 jne	 SHORT $LL30@CheckSpeci
$LN32@CheckSpeci:
  00030	33 c0		 xor	 eax, eax
  00032	eb 05		 jmp	 SHORT $LN33@CheckSpeci
$LN31@CheckSpeci:
  00034	1b c0		 sbb	 eax, eax
  00036	83 c8 01	 or	 eax, 1
$LN33@CheckSpeci:
  00039	85 c0		 test	 eax, eax
  0003b	0f 85 cc 01 00
	00		 jne	 $LN2@CheckSpeci

; 380  : // 2008.01.25 by LYH <<
; 381  : 	{
; 382  : 		GetDlgItem( IDC_EDIT_COMPOSITION_TITLEDATA )->EnableWindow( FALSE );

  00041	50		 push	 eax
  00042	68 cf 17 00 00	 push	 6095			; 000017cfH
  00047	8b ce		 mov	 ecx, esi
  00049	e8 00 00 00 00	 call	 ?GetDlgItem@CWnd@@QBEPAV1@H@Z ; CWnd::GetDlgItem
  0004e	8b c8		 mov	 ecx, eax
  00050	e8 00 00 00 00	 call	 ?EnableWindow@CWnd@@QAEHH@Z ; CWnd::EnableWindow

; 383  : 
; 384  : 		UseValueGroup( FALSE );

  00055	6a 00		 push	 0
  00057	8b ce		 mov	 ecx, esi
  00059	e8 00 00 00 00	 call	 ?UseValueGroup@CSetting_Common_Type_A@@AAEXH@Z ; CSetting_Common_Type_A::UseValueGroup

; 562  : 		GetDlgItem( IDC_STATIC_VALUE1 )->ShowWindow( SW_HIDE );

  0005e	6a 00		 push	 0
  00060	68 d6 17 00 00	 push	 6102			; 000017d6H
  00065	8b ce		 mov	 ecx, esi
  00067	e8 00 00 00 00	 call	 ?GetDlgItem@CWnd@@QBEPAV1@H@Z ; CWnd::GetDlgItem
  0006c	8b c8		 mov	 ecx, eax
  0006e	e8 00 00 00 00	 call	 ?ShowWindow@CWnd@@QAEHH@Z ; CWnd::ShowWindow

; 563  : 		GetDlgItem( IDC_EDIT_VALUE1 )->ShowWindow( SW_HIDE );

  00073	6a 00		 push	 0
  00075	68 d0 17 00 00	 push	 6096			; 000017d0H
  0007a	8b ce		 mov	 ecx, esi
  0007c	e8 00 00 00 00	 call	 ?GetDlgItem@CWnd@@QBEPAV1@H@Z ; CWnd::GetDlgItem
  00081	8b c8		 mov	 ecx, eax
  00083	e8 00 00 00 00	 call	 ?ShowWindow@CWnd@@QAEHH@Z ; CWnd::ShowWindow

; 564  : 		GetDlgItem( IDC_SPIN_VALUE1 )->ShowWindow( SW_HIDE );

  00088	6a 00		 push	 0
  0008a	68 db 17 00 00	 push	 6107			; 000017dbH
  0008f	8b ce		 mov	 ecx, esi
  00091	e8 00 00 00 00	 call	 ?GetDlgItem@CWnd@@QBEPAV1@H@Z ; CWnd::GetDlgItem
  00096	8b c8		 mov	 ecx, eax
  00098	e8 00 00 00 00	 call	 ?ShowWindow@CWnd@@QAEHH@Z ; CWnd::ShowWindow

; 586  : 		GetDlgItem( IDC_STATIC_VALUE2 )->ShowWindow( SW_HIDE );

  0009d	6a 00		 push	 0
  0009f	68 d7 17 00 00	 push	 6103			; 000017d7H
  000a4	8b ce		 mov	 ecx, esi
  000a6	e8 00 00 00 00	 call	 ?GetDlgItem@CWnd@@QBEPAV1@H@Z ; CWnd::GetDlgItem
  000ab	8b c8		 mov	 ecx, eax
  000ad	e8 00 00 00 00	 call	 ?ShowWindow@CWnd@@QAEHH@Z ; CWnd::ShowWindow

; 587  : 		GetDlgItem( IDC_EDIT_VALUE2 )->ShowWindow( SW_HIDE );

  000b2	6a 00		 push	 0
  000b4	68 d1 17 00 00	 push	 6097			; 000017d1H
  000b9	8b ce		 mov	 ecx, esi
  000bb	e8 00 00 00 00	 call	 ?GetDlgItem@CWnd@@QBEPAV1@H@Z ; CWnd::GetDlgItem
  000c0	8b c8		 mov	 ecx, eax
  000c2	e8 00 00 00 00	 call	 ?ShowWindow@CWnd@@QAEHH@Z ; CWnd::ShowWindow

; 588  : 		GetDlgItem( IDC_SPIN_VALUE2 )->ShowWindow( SW_HIDE );

  000c7	6a 00		 push	 0
  000c9	68 dc 17 00 00	 push	 6108			; 000017dcH
  000ce	8b ce		 mov	 ecx, esi
  000d0	e8 00 00 00 00	 call	 ?GetDlgItem@CWnd@@QBEPAV1@H@Z ; CWnd::GetDlgItem
  000d5	8b c8		 mov	 ecx, eax
  000d7	e8 00 00 00 00	 call	 ?ShowWindow@CWnd@@QAEHH@Z ; CWnd::ShowWindow

; 610  : 		GetDlgItem( IDC_STATIC_VALUE3 )->ShowWindow( SW_HIDE );

  000dc	6a 00		 push	 0
  000de	68 d8 17 00 00	 push	 6104			; 000017d8H
  000e3	8b ce		 mov	 ecx, esi
  000e5	e8 00 00 00 00	 call	 ?GetDlgItem@CWnd@@QBEPAV1@H@Z ; CWnd::GetDlgItem
  000ea	8b c8		 mov	 ecx, eax
  000ec	e8 00 00 00 00	 call	 ?ShowWindow@CWnd@@QAEHH@Z ; CWnd::ShowWindow

; 611  : 		GetDlgItem( IDC_EDIT_VALUE3 )->ShowWindow( SW_HIDE );

  000f1	6a 00		 push	 0
  000f3	68 d2 17 00 00	 push	 6098			; 000017d2H
  000f8	8b ce		 mov	 ecx, esi
  000fa	e8 00 00 00 00	 call	 ?GetDlgItem@CWnd@@QBEPAV1@H@Z ; CWnd::GetDlgItem
  000ff	8b c8		 mov	 ecx, eax
  00101	e8 00 00 00 00	 call	 ?ShowWindow@CWnd@@QAEHH@Z ; CWnd::ShowWindow

; 612  : 		GetDlgItem( IDC_SPIN_VALUE3 )->ShowWindow( SW_HIDE );

  00106	6a 00		 push	 0
  00108	68 dd 17 00 00	 push	 6109			; 000017ddH
  0010d	8b ce		 mov	 ecx, esi
  0010f	e8 00 00 00 00	 call	 ?GetDlgItem@CWnd@@QBEPAV1@H@Z ; CWnd::GetDlgItem
  00114	8b c8		 mov	 ecx, eax
  00116	e8 00 00 00 00	 call	 ?ShowWindow@CWnd@@QAEHH@Z ; CWnd::ShowWindow

; 634  : 		GetDlgItem( IDC_STATIC_VALUE4 )->ShowWindow( SW_HIDE );

  0011b	6a 00		 push	 0
  0011d	68 d9 17 00 00	 push	 6105			; 000017d9H
  00122	8b ce		 mov	 ecx, esi
  00124	e8 00 00 00 00	 call	 ?GetDlgItem@CWnd@@QBEPAV1@H@Z ; CWnd::GetDlgItem
  00129	8b c8		 mov	 ecx, eax
  0012b	e8 00 00 00 00	 call	 ?ShowWindow@CWnd@@QAEHH@Z ; CWnd::ShowWindow

; 635  : 		GetDlgItem( IDC_EDIT_VALUE4 )->ShowWindow( SW_HIDE );

  00130	6a 00		 push	 0
  00132	68 d3 17 00 00	 push	 6099			; 000017d3H
  00137	8b ce		 mov	 ecx, esi
  00139	e8 00 00 00 00	 call	 ?GetDlgItem@CWnd@@QBEPAV1@H@Z ; CWnd::GetDlgItem
  0013e	8b c8		 mov	 ecx, eax
  00140	e8 00 00 00 00	 call	 ?ShowWindow@CWnd@@QAEHH@Z ; CWnd::ShowWindow

; 636  : 		GetDlgItem( IDC_SPIN_VALUE4 )->ShowWindow( SW_HIDE );

  00145	6a 00		 push	 0
  00147	68 de 17 00 00	 push	 6110			; 000017deH
  0014c	8b ce		 mov	 ecx, esi
  0014e	e8 00 00 00 00	 call	 ?GetDlgItem@CWnd@@QBEPAV1@H@Z ; CWnd::GetDlgItem
  00153	8b c8		 mov	 ecx, eax
  00155	e8 00 00 00 00	 call	 ?ShowWindow@CWnd@@QAEHH@Z ; CWnd::ShowWindow

; 658  : 		GetDlgItem( IDC_STATIC_VALUE5 )->ShowWindow( SW_HIDE );

  0015a	6a 00		 push	 0
  0015c	68 da 17 00 00	 push	 6106			; 000017daH
  00161	8b ce		 mov	 ecx, esi
  00163	e8 00 00 00 00	 call	 ?GetDlgItem@CWnd@@QBEPAV1@H@Z ; CWnd::GetDlgItem
  00168	8b c8		 mov	 ecx, eax
  0016a	e8 00 00 00 00	 call	 ?ShowWindow@CWnd@@QAEHH@Z ; CWnd::ShowWindow

; 659  : 		GetDlgItem( IDC_EDIT_VALUE5 )->ShowWindow( SW_HIDE );

  0016f	6a 00		 push	 0
  00171	68 d4 17 00 00	 push	 6100			; 000017d4H
  00176	8b ce		 mov	 ecx, esi
  00178	e8 00 00 00 00	 call	 ?GetDlgItem@CWnd@@QBEPAV1@H@Z ; CWnd::GetDlgItem
  0017d	8b c8		 mov	 ecx, eax
  0017f	e8 00 00 00 00	 call	 ?ShowWindow@CWnd@@QAEHH@Z ; CWnd::ShowWindow

; 660  : 		GetDlgItem( IDC_SPIN_VALUE5 )->ShowWindow( SW_HIDE );

  00184	6a 00		 push	 0
  00186	68 df 17 00 00	 push	 6111			; 000017dfH
  0018b	8b ce		 mov	 ecx, esi
  0018d	e8 00 00 00 00	 call	 ?GetDlgItem@CWnd@@QBEPAV1@H@Z ; CWnd::GetDlgItem
  00192	8b c8		 mov	 ecx, eax
  00194	e8 00 00 00 00	 call	 ?ShowWindow@CWnd@@QAEHH@Z ; CWnd::ShowWindow

; 537  : 	GetDlgItem( IDC_STATIC_DATA_TITLE )->ShowWindow( ( bUsePacket ? FALSE : TRUE ) );

  00199	6a 00		 push	 0
  0019b	68 a9 17 00 00	 push	 6057			; 000017a9H
  001a0	8b ce		 mov	 ecx, esi
  001a2	e8 00 00 00 00	 call	 ?GetDlgItem@CWnd@@QBEPAV1@H@Z ; CWnd::GetDlgItem
  001a7	8b c8		 mov	 ecx, eax
  001a9	e8 00 00 00 00	 call	 ?ShowWindow@CWnd@@QAEHH@Z ; CWnd::ShowWindow

; 538  : 	GetDlgItem( IDC_CMB_DATA )->ShowWindow( ( bUsePacket ? FALSE : TRUE ) );

  001ae	6a 00		 push	 0
  001b0	68 ab 17 00 00	 push	 6059			; 000017abH
  001b5	8b ce		 mov	 ecx, esi
  001b7	e8 00 00 00 00	 call	 ?GetDlgItem@CWnd@@QBEPAV1@H@Z ; CWnd::GetDlgItem
  001bc	8b c8		 mov	 ecx, eax
  001be	e8 00 00 00 00	 call	 ?ShowWindow@CWnd@@QAEHH@Z ; CWnd::ShowWindow

; 1106 : 		GetDlgItem( IDC_STATIC_COMPCOLOR )->ShowWindow( SW_HIDE );

  001c3	68 62 1f 00 00	 push	 8034			; 00001f62H
  001c8	8b ce		 mov	 ecx, esi
  001ca	e8 00 00 00 00	 call	 ?GetDlgItem@CWnd@@QBEPAV1@H@Z ; CWnd::GetDlgItem

; 385  : 		UseValue1(FALSE);
; 386  : 		UseValue2(FALSE);
; 387  : 		UseValue3(FALSE);
; 388  : 		UseValue4(FALSE);
; 389  : 		UseValue5(FALSE);
; 390  : 		
; 391  : 		UsePacketData( true );
; 392  : 		
; 393  : 		GetDlgItem( IDC_STATIC_VALUE )->ShowWindow(SW_HIDE);

  001cf	6a 00		 push	 0
  001d1	8b c8		 mov	 ecx, eax
  001d3	e8 00 00 00 00	 call	 ?ShowWindow@CWnd@@QAEHH@Z ; CWnd::ShowWindow
  001d8	6a 00		 push	 0

; 538  : 	GetDlgItem( IDC_CMB_DATA )->ShowWindow( ( bUsePacket ? FALSE : TRUE ) );

  001da	8d 8e f8 00 00
	00		 lea	 ecx, DWORD PTR [esi+248]

; 385  : 		UseValue1(FALSE);
; 386  : 		UseValue2(FALSE);
; 387  : 		UseValue3(FALSE);
; 388  : 		UseValue4(FALSE);
; 389  : 		UseValue5(FALSE);
; 390  : 		
; 391  : 		UsePacketData( true );
; 392  : 		
; 393  : 		GetDlgItem( IDC_STATIC_VALUE )->ShowWindow(SW_HIDE);

  001e0	e8 00 00 00 00	 call	 ?ShowWindow@CWnd@@QAEHH@Z ; CWnd::ShowWindow
  001e5	6a 00		 push	 0
  001e7	68 a7 17 00 00	 push	 6055			; 000017a7H
  001ec	8b ce		 mov	 ecx, esi
  001ee	e8 00 00 00 00	 call	 ?GetDlgItem@CWnd@@QBEPAV1@H@Z ; CWnd::GetDlgItem
  001f3	8b c8		 mov	 ecx, eax
  001f5	e8 00 00 00 00	 call	 ?ShowWindow@CWnd@@QAEHH@Z ; CWnd::ShowWindow

; 394  : 		
; 395  : 		UseBaseLineGroup(FALSE);

  001fa	6a 00		 push	 0
  001fc	8b ce		 mov	 ecx, esi
  001fe	e8 00 00 00 00	 call	 ?UseBaseLineGroup@CSetting_Common_Type_A@@AAEXH@Z ; CSetting_Common_Type_A::UseBaseLineGroup

; 396  : 
; 397  : 		return TRUE;

  00203	b8 01 00 00 00	 mov	 eax, 1
  00208	5e		 pop	 esi

; 401  : }

  00209	5d		 pop	 ebp
  0020a	c2 04 00	 ret	 4
$LN2@CheckSpeci:

; 398  : 	}
; 399  : 
; 400  : 	return FALSE;

  0020d	33 c0		 xor	 eax, eax
  0020f	5e		 pop	 esi

; 401  : }

  00210	5d		 pop	 ebp
  00211	c2 04 00	 ret	 4
?CheckSpecialCond@CSetting_Common_Type_A@@AAEHPBD@Z ENDP ; CSetting_Common_Type_A::CheckSpecialCond
_TEXT	ENDS
; Function compile flags: /Ogtp
; File D:\git\src\IBK\IBK_DRFN\ProjSrc\SrcChartEx\ChartAddIn\ChartEnvSetupDlgAddIn\ChartEnvSetupDlgAddIn\Setting_Common_Type_A.cpp
;	COMDAT ?UseCompColorCtrl@CSetting_Common_Type_A@@AAEXH@Z
_TEXT	SEGMENT
_bUseCompColorCtrl$ = 8					; size = 4
?UseCompColorCtrl@CSetting_Common_Type_A@@AAEXH@Z PROC	; CSetting_Common_Type_A::UseCompColorCtrl, COMDAT
; _this$ = ecx

; 1098 : {

  00000	55		 push	 ebp
  00001	8b ec		 mov	 ebp, esp
  00003	56		 push	 esi

; 1099 : 	if( bUseCompColorCtrl == TRUE )
; 1100 : 	{
; 1101 : 		GetDlgItem( IDC_STATIC_COMPCOLOR )->ShowWindow( SW_SHOW );
; 1102 : 		m_cmbCompColor.ShowWindow( SW_SHOW );
; 1103 : 	}
; 1104 : 	else
; 1105 : 	{
; 1106 : 		GetDlgItem( IDC_STATIC_COMPCOLOR )->ShowWindow( SW_HIDE );
; 1107 : 		m_cmbCompColor.ShowWindow( SW_HIDE );
; 1108 : 	}
; 1109 : }

  00004	33 c0		 xor	 eax, eax
  00006	be 05 00 00 00	 mov	 esi, 5
  0000b	83 7d 08 01	 cmp	 DWORD PTR _bUseCompColorCtrl$[ebp], 1
  0000f	57		 push	 edi
  00010	68 62 1f 00 00	 push	 8034			; 00001f62H
  00015	8b f9		 mov	 edi, ecx
  00017	0f 45 f0	 cmovne	 esi, eax
  0001a	e8 00 00 00 00	 call	 ?GetDlgItem@CWnd@@QBEPAV1@H@Z ; CWnd::GetDlgItem
  0001f	56		 push	 esi
  00020	8b c8		 mov	 ecx, eax
  00022	e8 00 00 00 00	 call	 ?ShowWindow@CWnd@@QAEHH@Z ; CWnd::ShowWindow
  00027	56		 push	 esi
  00028	8d 8f f8 00 00
	00		 lea	 ecx, DWORD PTR [edi+248]
  0002e	e8 00 00 00 00	 call	 ?ShowWindow@CWnd@@QAEHH@Z ; CWnd::ShowWindow
  00033	5f		 pop	 edi
  00034	5e		 pop	 esi
  00035	5d		 pop	 ebp
  00036	c2 04 00	 ret	 4
?UseCompColorCtrl@CSetting_Common_Type_A@@AAEXH@Z ENDP	; CSetting_Common_Type_A::UseCompColorCtrl
_TEXT	ENDS
; Function compile flags: /Ogtp
; File D:\git\src\IBK\IBK_DRFN\ProjSrc\SrcChartEx\ChartAddIn\ChartEnvSetupDlgAddIn\ChartEnvSetupDlgAddIn\Setting_Common_Type_A.cpp
;	COMDAT ?UseBaseLineGroup@CSetting_Common_Type_A@@AAEXH@Z
_TEXT	SEGMENT
$T1 = 8							; size = 4
_bUseBaseLine$ = 8					; size = 4
?UseBaseLineGroup@CSetting_Common_Type_A@@AAEXH@Z PROC	; CSetting_Common_Type_A::UseBaseLineGroup, COMDAT
; _this$ = ecx

; 724  : {

  00000	55		 push	 ebp
  00001	8b ec		 mov	 ebp, esp

; 725  : 	m_bUseBaseLine = bUseBaseLine;

  00003	8b 45 08	 mov	 eax, DWORD PTR _bUseBaseLine$[ebp]
  00006	53		 push	 ebx
  00007	56		 push	 esi
  00008	8b f1		 mov	 esi, ecx
  0000a	57		 push	 edi
  0000b	89 86 d4 14 00
	00		 mov	 DWORD PTR [esi+5332], eax

; 726  : 
; 727  : 	if( bUseBaseLine == TRUE )

  00011	83 f8 01	 cmp	 eax, 1
  00014	0f 85 99 00 00
	00		 jne	 $LN2@UseBaseLin

; 728  : 	{
; 729  : 		GetDlgItem( IDC_HORIZONTAL )->ShowWindow( SW_SHOW );

  0001a	6a 05		 push	 5
  0001c	68 e8 03 00 00	 push	 1000			; 000003e8H
  00021	e8 00 00 00 00	 call	 ?GetDlgItem@CWnd@@QBEPAV1@H@Z ; CWnd::GetDlgItem
  00026	8b c8		 mov	 ecx, eax
  00028	e8 00 00 00 00	 call	 ?ShowWindow@CWnd@@QAEHH@Z ; CWnd::ShowWindow

; 730  : 		GetDlgItem( IDC_HORIZONTAL_LIST )->ShowWindow( SW_SHOW );

  0002d	6a 05		 push	 5
  0002f	68 f4 03 00 00	 push	 1012			; 000003f4H
  00034	8b ce		 mov	 ecx, esi
  00036	e8 00 00 00 00	 call	 ?GetDlgItem@CWnd@@QBEPAV1@H@Z ; CWnd::GetDlgItem
  0003b	8b c8		 mov	 ecx, eax
  0003d	e8 00 00 00 00	 call	 ?ShowWindow@CWnd@@QAEHH@Z ; CWnd::ShowWindow

; 731  : 		GetDlgItem( IDC_SPIN )->ShowWindow( SW_SHOW );

  00042	6a 05		 push	 5
  00044	68 fa 03 00 00	 push	 1018			; 000003faH
  00049	8b ce		 mov	 ecx, esi
  0004b	e8 00 00 00 00	 call	 ?GetDlgItem@CWnd@@QBEPAV1@H@Z ; CWnd::GetDlgItem
  00050	8b c8		 mov	 ecx, eax
  00052	e8 00 00 00 00	 call	 ?ShowWindow@CWnd@@QAEHH@Z ; CWnd::ShowWindow

; 732  : 		GetDlgItem( IDC_INSERT )->ShowWindow( SW_SHOW );

  00057	6a 05		 push	 5
  00059	68 ef 03 00 00	 push	 1007			; 000003efH
  0005e	8b ce		 mov	 ecx, esi
  00060	e8 00 00 00 00	 call	 ?GetDlgItem@CWnd@@QBEPAV1@H@Z ; CWnd::GetDlgItem
  00065	8b c8		 mov	 ecx, eax
  00067	e8 00 00 00 00	 call	 ?ShowWindow@CWnd@@QAEHH@Z ; CWnd::ShowWindow

; 733  : 		GetDlgItem( IDC_DELETE )->ShowWindow( SW_SHOW );

  0006c	6a 05		 push	 5
  0006e	68 f0 03 00 00	 push	 1008			; 000003f0H
  00073	8b ce		 mov	 ecx, esi
  00075	e8 00 00 00 00	 call	 ?GetDlgItem@CWnd@@QBEPAV1@H@Z ; CWnd::GetDlgItem
  0007a	8b c8		 mov	 ecx, eax
  0007c	e8 00 00 00 00	 call	 ?ShowWindow@CWnd@@QAEHH@Z ; CWnd::ShowWindow

; 734  : 		GetDlgItem( IDC_ALLDELETE )->ShowWindow( SW_SHOW );

  00081	6a 05		 push	 5
  00083	68 f1 03 00 00	 push	 1009			; 000003f1H
  00088	8b ce		 mov	 ecx, esi
  0008a	e8 00 00 00 00	 call	 ?GetDlgItem@CWnd@@QBEPAV1@H@Z ; CWnd::GetDlgItem
  0008f	8b c8		 mov	 ecx, eax
  00091	e8 00 00 00 00	 call	 ?ShowWindow@CWnd@@QAEHH@Z ; CWnd::ShowWindow

; 735  : 		GetDlgItem( IDC_COLOR_BUTTON )->ShowWindow( SW_SHOW );
; 736  : 		GetDlgItem( IDC_BASELINE )->ShowWindow( SW_SHOW );
; 737  : 		//  ,   - ojtaso (20071213)
; 738  : 		GetDlgItem( IDC_CMB_THICKNESS2 )->ShowWindow( SW_SHOW );
; 739  : 		GetDlgItem( IDC_CMB_LINETYPE2 )->ShowWindow( SW_SHOW );

  00096	bf 05 00 00 00	 mov	 edi, 5
  0009b	8b ce		 mov	 ecx, esi
  0009d	68 0e 04 00 00	 push	 1038			; 0000040eH
  000a2	8b de		 mov	 ebx, esi
  000a4	89 7d 08	 mov	 DWORD PTR $T1[ebp], edi
  000a7	e8 00 00 00 00	 call	 ?GetDlgItem@CWnd@@QBEPAV1@H@Z ; CWnd::GetDlgItem
  000ac	8b cf		 mov	 ecx, edi

; 740  : 	}

  000ae	e9 91 00 00 00	 jmp	 $LN3@UseBaseLin
$LN2@UseBaseLin:

; 741  : 
; 742  : 	else
; 743  : 	{
; 744  : 		GetDlgItem( IDC_HORIZONTAL )->ShowWindow( SW_HIDE );

  000b3	6a 00		 push	 0
  000b5	68 e8 03 00 00	 push	 1000			; 000003e8H
  000ba	e8 00 00 00 00	 call	 ?GetDlgItem@CWnd@@QBEPAV1@H@Z ; CWnd::GetDlgItem
  000bf	8b c8		 mov	 ecx, eax
  000c1	e8 00 00 00 00	 call	 ?ShowWindow@CWnd@@QAEHH@Z ; CWnd::ShowWindow

; 745  : 		GetDlgItem( IDC_HORIZONTAL_LIST )->ShowWindow( SW_HIDE );

  000c6	6a 00		 push	 0
  000c8	68 f4 03 00 00	 push	 1012			; 000003f4H
  000cd	8b ce		 mov	 ecx, esi
  000cf	e8 00 00 00 00	 call	 ?GetDlgItem@CWnd@@QBEPAV1@H@Z ; CWnd::GetDlgItem
  000d4	8b c8		 mov	 ecx, eax
  000d6	e8 00 00 00 00	 call	 ?ShowWindow@CWnd@@QAEHH@Z ; CWnd::ShowWindow

; 746  : 		GetDlgItem( IDC_SPIN )->ShowWindow( SW_HIDE );

  000db	6a 00		 push	 0
  000dd	68 fa 03 00 00	 push	 1018			; 000003faH
  000e2	8b ce		 mov	 ecx, esi
  000e4	e8 00 00 00 00	 call	 ?GetDlgItem@CWnd@@QBEPAV1@H@Z ; CWnd::GetDlgItem
  000e9	8b c8		 mov	 ecx, eax
  000eb	e8 00 00 00 00	 call	 ?ShowWindow@CWnd@@QAEHH@Z ; CWnd::ShowWindow

; 747  : 		GetDlgItem( IDC_INSERT )->ShowWindow( SW_HIDE );

  000f0	6a 00		 push	 0
  000f2	68 ef 03 00 00	 push	 1007			; 000003efH
  000f7	8b ce		 mov	 ecx, esi
  000f9	e8 00 00 00 00	 call	 ?GetDlgItem@CWnd@@QBEPAV1@H@Z ; CWnd::GetDlgItem
  000fe	8b c8		 mov	 ecx, eax
  00100	e8 00 00 00 00	 call	 ?ShowWindow@CWnd@@QAEHH@Z ; CWnd::ShowWindow

; 748  : 		GetDlgItem( IDC_DELETE )->ShowWindow( SW_HIDE );

  00105	6a 00		 push	 0
  00107	68 f0 03 00 00	 push	 1008			; 000003f0H
  0010c	8b ce		 mov	 ecx, esi
  0010e	e8 00 00 00 00	 call	 ?GetDlgItem@CWnd@@QBEPAV1@H@Z ; CWnd::GetDlgItem
  00113	8b c8		 mov	 ecx, eax
  00115	e8 00 00 00 00	 call	 ?ShowWindow@CWnd@@QAEHH@Z ; CWnd::ShowWindow

; 749  : 		GetDlgItem( IDC_ALLDELETE )->ShowWindow( SW_HIDE );

  0011a	6a 00		 push	 0
  0011c	68 f1 03 00 00	 push	 1009			; 000003f1H
  00121	8b ce		 mov	 ecx, esi
  00123	e8 00 00 00 00	 call	 ?GetDlgItem@CWnd@@QBEPAV1@H@Z ; CWnd::GetDlgItem
  00128	8b c8		 mov	 ecx, eax
  0012a	e8 00 00 00 00	 call	 ?ShowWindow@CWnd@@QAEHH@Z ; CWnd::ShowWindow

; 750  : 		GetDlgItem( IDC_COLOR_BUTTON )->ShowWindow( SW_HIDE );
; 751  : 		GetDlgItem( IDC_BASELINE )->ShowWindow( SW_HIDE );
; 752  : 		//  ,   - ojtaso (20071213)
; 753  : 		GetDlgItem( IDC_CMB_THICKNESS2 )->ShowWindow( SW_HIDE );
; 754  : 		GetDlgItem( IDC_CMB_LINETYPE2 )->ShowWindow( SW_HIDE );

  0012f	33 ff		 xor	 edi, edi
  00131	8b ce		 mov	 ecx, esi
  00133	68 0e 04 00 00	 push	 1038			; 0000040eH
  00138	8b de		 mov	 ebx, esi
  0013a	89 7d 08	 mov	 DWORD PTR $T1[ebp], edi
  0013d	e8 00 00 00 00	 call	 ?GetDlgItem@CWnd@@QBEPAV1@H@Z ; CWnd::GetDlgItem
  00142	33 c9		 xor	 ecx, ecx
$LN3@UseBaseLin:

; 755  : 	}
; 756  : }

  00144	51		 push	 ecx
  00145	8b c8		 mov	 ecx, eax
  00147	e8 00 00 00 00	 call	 ?ShowWindow@CWnd@@QAEHH@Z ; CWnd::ShowWindow
  0014c	68 b8 17 00 00	 push	 6072			; 000017b8H
  00151	8b ce		 mov	 ecx, esi
  00153	e8 00 00 00 00	 call	 ?GetDlgItem@CWnd@@QBEPAV1@H@Z ; CWnd::GetDlgItem
  00158	ff 75 08	 push	 DWORD PTR $T1[ebp]
  0015b	8b c8		 mov	 ecx, eax
  0015d	e8 00 00 00 00	 call	 ?ShowWindow@CWnd@@QAEHH@Z ; CWnd::ShowWindow
  00162	68 b9 17 00 00	 push	 6073			; 000017b9H
  00167	8b cb		 mov	 ecx, ebx
  00169	e8 00 00 00 00	 call	 ?GetDlgItem@CWnd@@QBEPAV1@H@Z ; CWnd::GetDlgItem
  0016e	57		 push	 edi
  0016f	8b c8		 mov	 ecx, eax
  00171	e8 00 00 00 00	 call	 ?ShowWindow@CWnd@@QAEHH@Z ; CWnd::ShowWindow
  00176	68 ba 17 00 00	 push	 6074			; 000017baH
  0017b	8b ce		 mov	 ecx, esi
  0017d	e8 00 00 00 00	 call	 ?GetDlgItem@CWnd@@QBEPAV1@H@Z ; CWnd::GetDlgItem
  00182	57		 push	 edi
  00183	8b c8		 mov	 ecx, eax
  00185	e8 00 00 00 00	 call	 ?ShowWindow@CWnd@@QAEHH@Z ; CWnd::ShowWindow
  0018a	5f		 pop	 edi
  0018b	5e		 pop	 esi
  0018c	5b		 pop	 ebx
  0018d	5d		 pop	 ebp
  0018e	c2 04 00	 ret	 4
?UseBaseLineGroup@CSetting_Common_Type_A@@AAEXH@Z ENDP	; CSetting_Common_Type_A::UseBaseLineGroup
_TEXT	ENDS
; Function compile flags: /Ogtp
; File D:\git\src\IBK\IBK_DRFN\ProjSrc\SrcChartEx\ChartAddIn\ChartEnvSetupDlgAddIn\ChartEnvSetupDlgAddIn\Setting_Common_Type_A.cpp
;	COMDAT ?UseFillColorBtn@CSetting_Common_Type_A@@AAEXH@Z
_TEXT	SEGMENT
_bUseFillColorBtn$ = 8					; size = 4
?UseFillColorBtn@CSetting_Common_Type_A@@AAEXH@Z PROC	; CSetting_Common_Type_A::UseFillColorBtn, COMDAT
; _this$ = ecx

; 1088 : {

  00000	55		 push	 ebp
  00001	8b ec		 mov	 ebp, esp

; 1089 : 	if( bUseFillColorBtn == TRUE )
; 1090 : 		GetDlgItem( IDC_CHK_FILL_COLOR )->ShowWindow( SW_SHOW );
; 1091 : 
; 1092 : 	else
; 1093 : 		GetDlgItem( IDC_CHK_FILL_COLOR )->ShowWindow( SW_HIDE );
; 1094 : }

  00003	68 0b 18 00 00	 push	 6155			; 0000180bH
  00008	e8 00 00 00 00	 call	 ?GetDlgItem@CWnd@@QBEPAV1@H@Z ; CWnd::GetDlgItem
  0000d	33 d2		 xor	 edx, edx
  0000f	b9 05 00 00 00	 mov	 ecx, 5
  00014	83 7d 08 01	 cmp	 DWORD PTR _bUseFillColorBtn$[ebp], 1
  00018	0f 45 ca	 cmovne	 ecx, edx
  0001b	89 4d 08	 mov	 DWORD PTR _bUseFillColorBtn$[ebp], ecx
  0001e	8b c8		 mov	 ecx, eax
  00020	5d		 pop	 ebp
  00021	e9 00 00 00 00	 jmp	 ?ShowWindow@CWnd@@QAEHH@Z ; CWnd::ShowWindow
?UseFillColorBtn@CSetting_Common_Type_A@@AAEXH@Z ENDP	; CSetting_Common_Type_A::UseFillColorBtn
_TEXT	ENDS
; Function compile flags: /Ogtp
; File D:\git\src\IBK\IBK_DRFN\ProjSrc\SrcChartEx\ChartAddIn\ChartEnvSetupDlgAddIn\ChartEnvSetupDlgAddIn\Setting_Common_Type_A.cpp
; File D:\git\src\IBK\IBK_DRFN\ProjSrc\SrcChartEx\ChartAddIn\ChartEnvSetupDlgAddIn\Include_AddIn_135914\I135914\_IString.h
; File D:\git\src\IBK\IBK_DRFN\ProjSrc\SrcChartEx\ChartAddIn\ChartEnvSetupDlgAddIn\ChartEnvSetupDlgAddIn\Setting_Common_Type_A.cpp
; File D:\git\src\IBK\IBK_DRFN\ProjSrc\SrcChartEx\ChartAddIn\ChartEnvSetupDlgAddIn\Include_AddIn_135914\I135914\_IString.h
; File D:\git\src\IBK\IBK_DRFN\ProjSrc\SrcChartEx\ChartAddIn\ChartEnvSetupDlgAddIn\ChartEnvSetupDlgAddIn\Setting_Common_Type_A.cpp
;	COMDAT ?UseSubColorBtn@CSetting_Common_Type_A@@AAEXHV?$CStringT@DV?$StrTraitMFC_DLL@DV?$ChTraitsCRT@D@ATL@@@@@ATL@@H@Z
_TEXT	SEGMENT
_szGraphName$ = -32					; size = 8
$T2 = -20						; size = 4
_strStart$3 = -20					; size = 4
_strEnd$4 = -16						; size = 4
__$EHRec$ = -12						; size = 12
$T5 = 8							; size = 4
_bUseSubColorBtn$ = 8					; size = 4
_szBtnText$ = 12					; size = 4
$T6 = 16						; size = 4
_bUseThirdBtn$ = 16					; size = 4
?UseSubColorBtn@CSetting_Common_Type_A@@AAEXHV?$CStringT@DV?$StrTraitMFC_DLL@DV?$ChTraitsCRT@D@ATL@@@@@ATL@@H@Z PROC ; CSetting_Common_Type_A::UseSubColorBtn, COMDAT
; _this$ = ecx

; 1010 : {

  00000	55		 push	 ebp
  00001	8b ec		 mov	 ebp, esp
  00003	6a ff		 push	 -1
  00005	68 00 00 00 00	 push	 __ehhandler$?UseSubColorBtn@CSetting_Common_Type_A@@AAEXHV?$CStringT@DV?$StrTraitMFC_DLL@DV?$ChTraitsCRT@D@ATL@@@@@ATL@@H@Z
  0000a	64 a1 00 00 00
	00		 mov	 eax, DWORD PTR fs:0
  00010	50		 push	 eax
  00011	83 ec 14	 sub	 esp, 20			; 00000014H
  00014	53		 push	 ebx
  00015	56		 push	 esi
  00016	57		 push	 edi
  00017	a1 00 00 00 00	 mov	 eax, DWORD PTR ___security_cookie
  0001c	33 c5		 xor	 eax, ebp
  0001e	50		 push	 eax
  0001f	8d 45 f4	 lea	 eax, DWORD PTR __$EHRec$[ebp]
  00022	64 a3 00 00 00
	00		 mov	 DWORD PTR fs:0, eax
  00028	8b f1		 mov	 esi, ecx

; 1011 : // 2008.01.25 by LYH >>
; 1012 : 	//m_btnUpColor.SetText( "" );
; 1013 : 	//m_btnDownColor.SetText( "" );
; 1014 : 	m_btnUpColor.SetText( m_strUp );

  0002a	51		 push	 ecx
  0002b	8d 9e e8 00 00
	00		 lea	 ebx, DWORD PTR [esi+232]
  00031	c7 45 fc 00 00
	00 00		 mov	 DWORD PTR __$EHRec$[ebp+8], 0
  00038	8b cc		 mov	 ecx, esp
  0003a	53		 push	 ebx
  0003b	ff 15 00 00 00
	00		 call	 DWORD PTR __imp_??0?$CStringT@DV?$StrTraitMFC_DLL@DV?$ChTraitsCRT@D@ATL@@@@@ATL@@QAE@ABV01@@Z
  00041	8d 8e 08 03 00
	00		 lea	 ecx, DWORD PTR [esi+776]
  00047	e8 00 00 00 00	 call	 ?SetText@CColorButton@@QAEXV?$CStringT@DV?$StrTraitMFC_DLL@DV?$ChTraitsCRT@D@ATL@@@@@ATL@@@Z ; CColorButton::SetText

; 1015 : 	m_btnDownColor.SetText( m_strDown );

  0004c	51		 push	 ecx
  0004d	8d 86 ec 00 00
	00		 lea	 eax, DWORD PTR [esi+236]
  00053	8b cc		 mov	 ecx, esp
  00055	50		 push	 eax
  00056	ff 15 00 00 00
	00		 call	 DWORD PTR __imp_??0?$CStringT@DV?$StrTraitMFC_DLL@DV?$ChTraitsCRT@D@ATL@@@@@ATL@@QAE@ABV01@@Z
  0005c	8d 8e 18 04 00
	00		 lea	 ecx, DWORD PTR [esi+1048]
  00062	e8 00 00 00 00	 call	 ?SetText@CColorButton@@QAEXV?$CStringT@DV?$StrTraitMFC_DLL@DV?$ChTraitsCRT@D@ATL@@@@@ATL@@@Z ; CColorButton::SetText

; 1021 : 	ILPCSTR szGraphName = m_pIGraphInfo->GetIndicatorNameString();

  00067	8b 8e c4 00 00
	00		 mov	 ecx, DWORD PTR [esi+196]
  0006d	8b 01		 mov	 eax, DWORD PTR [ecx]
  0006f	ff 90 a4 00 00
	00		 call	 DWORD PTR [eax+164]
; File D:\git\src\IBK\IBK_DRFN\ProjSrc\SrcChartEx\ChartAddIn\ChartEnvSetupDlgAddIn\Include_AddIn_135914\I135914\_IString.h

; 39   : 		m_pIStrData = p_pIString;	// Do not AddRef(). Because It must be Return Value.

  00075	8b f8		 mov	 edi, eax
  00077	89 7d e4	 mov	 DWORD PTR _szGraphName$[ebp+4], edi

; 40   : 		if( m_pIStrData) m_szData = m_pIStrData->GetData();

  0007a	85 ff		 test	 edi, edi
  0007c	74 0b		 je	 SHORT $LN21@UseSubColo
  0007e	8b 17		 mov	 edx, DWORD PTR [edi]
  00080	8b cf		 mov	 ecx, edi
  00082	ff 52 10	 call	 DWORD PTR [edx+16]
  00085	8b c8		 mov	 ecx, eax
  00087	eb 02		 jmp	 SHORT $LN33@UseSubColo
$LN21@UseSubColo:

; 41   : 		else m_szData = NULL;

  00089	33 c9		 xor	 ecx, ecx
$LN33@UseSubColo:
; File D:\git\src\IBK\IBK_DRFN\ProjSrc\SrcChartEx\ChartAddIn\ChartEnvSetupDlgAddIn\ChartEnvSetupDlgAddIn\Setting_Common_Type_A.cpp

; 1021 : 	ILPCSTR szGraphName = m_pIGraphInfo->GetIndicatorNameString();

  0008b	89 4d e0	 mov	 DWORD PTR _szGraphName$[ebp], ecx

; 1022 : // 2008.01.25 by LYH >>
; 1023 : 	//if( !strcmp( szGraphName, ""))
; 1024 : 	if( !strcmp( szGraphName, _MTEXT( C2_RAINBOW_CHART )))

  0008e	a1 54 00 00 00	 mov	 eax, DWORD PTR ?g_iMetaTable@@3VIMetaTable@@A+84
  00093	c6 45 fc 01	 mov	 BYTE PTR __$EHRec$[ebp+8], 1
  00097	8b 80 30 03 00
	00		 mov	 eax, DWORD PTR [eax+816]
  0009d	0f 1f 00	 npad	 3
$LL28@UseSubColo:
  000a0	8a 11		 mov	 dl, BYTE PTR [ecx]
  000a2	3a 10		 cmp	 dl, BYTE PTR [eax]
  000a4	75 1a		 jne	 SHORT $LN29@UseSubColo
  000a6	84 d2		 test	 dl, dl
  000a8	74 12		 je	 SHORT $LN30@UseSubColo
  000aa	8a 51 01	 mov	 dl, BYTE PTR [ecx+1]
  000ad	3a 50 01	 cmp	 dl, BYTE PTR [eax+1]
  000b0	75 0e		 jne	 SHORT $LN29@UseSubColo
  000b2	83 c1 02	 add	 ecx, 2
  000b5	83 c0 02	 add	 eax, 2
  000b8	84 d2		 test	 dl, dl
  000ba	75 e4		 jne	 SHORT $LL28@UseSubColo
$LN30@UseSubColo:
  000bc	33 c0		 xor	 eax, eax
  000be	eb 05		 jmp	 SHORT $LN31@UseSubColo
$LN29@UseSubColo:
  000c0	1b c0		 sbb	 eax, eax
  000c2	83 c8 01	 or	 eax, 1
$LN31@UseSubColo:
  000c5	85 c0		 test	 eax, eax
  000c7	75 74		 jne	 SHORT $LN2@UseSubColo

; 1025 : 	{
; 1026 : //		m_btnUp1Color.SetText( "" );
; 1027 : //		m_btnDown1Color.SetText( "" );
; 1028 : 		CString strStart, strEnd;

  000c9	8d 4d ec	 lea	 ecx, DWORD PTR _strStart$3[ebp]
  000cc	ff 15 00 00 00
	00		 call	 DWORD PTR __imp_??0?$CStringT@DV?$StrTraitMFC_DLL@DV?$ChTraitsCRT@D@ATL@@@@@ATL@@QAE@XZ
  000d2	8d 4d f0	 lea	 ecx, DWORD PTR _strEnd$4[ebp]
  000d5	ff 15 00 00 00
	00		 call	 DWORD PTR __imp_??0?$CStringT@DV?$StrTraitMFC_DLL@DV?$ChTraitsCRT@D@ATL@@@@@ATL@@QAE@XZ

; 1029 : 		strStart.LoadString(IDS_COLOR_START);

  000db	6a 08		 push	 8
  000dd	8d 4d ec	 lea	 ecx, DWORD PTR _strStart$3[ebp]
  000e0	c6 45 fc 03	 mov	 BYTE PTR __$EHRec$[ebp+8], 3
  000e4	ff 15 00 00 00
	00		 call	 DWORD PTR __imp_?LoadStringA@?$CStringT@DV?$StrTraitMFC_DLL@DV?$ChTraitsCRT@D@ATL@@@@@ATL@@QAEHI@Z

; 1030 : 		strEnd.LoadString(IDS_COLOR_END);

  000ea	6a 09		 push	 9
  000ec	8d 4d f0	 lea	 ecx, DWORD PTR _strEnd$4[ebp]
  000ef	ff 15 00 00 00
	00		 call	 DWORD PTR __imp_?LoadStringA@?$CStringT@DV?$StrTraitMFC_DLL@DV?$ChTraitsCRT@D@ATL@@@@@ATL@@QAEHI@Z

; 1031 : 		m_btnUp1Color.SetText( strStart );

  000f5	51		 push	 ecx
  000f6	8d 45 ec	 lea	 eax, DWORD PTR _strStart$3[ebp]
  000f9	8b cc		 mov	 ecx, esp
  000fb	50		 push	 eax
  000fc	ff 15 00 00 00
	00		 call	 DWORD PTR __imp_??0?$CStringT@DV?$StrTraitMFC_DLL@DV?$ChTraitsCRT@D@ATL@@@@@ATL@@QAE@ABV01@@Z
  00102	8d 8e 80 02 00
	00		 lea	 ecx, DWORD PTR [esi+640]
  00108	e8 00 00 00 00	 call	 ?SetText@CColorButton@@QAEXV?$CStringT@DV?$StrTraitMFC_DLL@DV?$ChTraitsCRT@D@ATL@@@@@ATL@@@Z ; CColorButton::SetText

; 1032 : 		m_btnDown1Color.SetText( strEnd );

  0010d	51		 push	 ecx
  0010e	8d 45 f0	 lea	 eax, DWORD PTR _strEnd$4[ebp]
  00111	8b cc		 mov	 ecx, esp
  00113	50		 push	 eax
  00114	ff 15 00 00 00
	00		 call	 DWORD PTR __imp_??0?$CStringT@DV?$StrTraitMFC_DLL@DV?$ChTraitsCRT@D@ATL@@@@@ATL@@QAE@ABV01@@Z
  0011a	8d 8e f8 01 00
	00		 lea	 ecx, DWORD PTR [esi+504]
  00120	e8 00 00 00 00	 call	 ?SetText@CColorButton@@QAEXV?$CStringT@DV?$StrTraitMFC_DLL@DV?$ChTraitsCRT@D@ATL@@@@@ATL@@@Z ; CColorButton::SetText

; 1033 : 	}

  00125	8d 4d f0	 lea	 ecx, DWORD PTR _strEnd$4[ebp]
  00128	ff 15 00 00 00
	00		 call	 DWORD PTR __imp_??1?$CStringT@DV?$StrTraitMFC_DLL@DV?$ChTraitsCRT@D@ATL@@@@@ATL@@QAE@XZ
  0012e	8d 4d ec	 lea	 ecx, DWORD PTR _strStart$3[ebp]
  00131	c6 45 fc 01	 mov	 BYTE PTR __$EHRec$[ebp+8], 1
  00135	ff 15 00 00 00
	00		 call	 DWORD PTR __imp_??1?$CStringT@DV?$StrTraitMFC_DLL@DV?$ChTraitsCRT@D@ATL@@@@@ATL@@QAE@XZ
  0013b	eb 30		 jmp	 SHORT $LN3@UseSubColo
$LN2@UseSubColo:

; 1034 : 	else
; 1035 : 	{
; 1036 : 		//m_btnUp1Color.SetText( "" );
; 1037 : 		//m_btnDown1Color.SetText( "" );
; 1038 : 		m_btnUp1Color.SetText( m_strUp );

  0013d	51		 push	 ecx
  0013e	8b cc		 mov	 ecx, esp
  00140	53		 push	 ebx
  00141	ff 15 00 00 00
	00		 call	 DWORD PTR __imp_??0?$CStringT@DV?$StrTraitMFC_DLL@DV?$ChTraitsCRT@D@ATL@@@@@ATL@@QAE@ABV01@@Z
  00147	8d 8e 80 02 00
	00		 lea	 ecx, DWORD PTR [esi+640]
  0014d	e8 00 00 00 00	 call	 ?SetText@CColorButton@@QAEXV?$CStringT@DV?$StrTraitMFC_DLL@DV?$ChTraitsCRT@D@ATL@@@@@ATL@@@Z ; CColorButton::SetText

; 1039 : 		m_btnDown1Color.SetText( m_strDown );

  00152	51		 push	 ecx
  00153	8d 86 ec 00 00
	00		 lea	 eax, DWORD PTR [esi+236]
  00159	8b cc		 mov	 ecx, esp
  0015b	50		 push	 eax
  0015c	ff 15 00 00 00
	00		 call	 DWORD PTR __imp_??0?$CStringT@DV?$StrTraitMFC_DLL@DV?$ChTraitsCRT@D@ATL@@@@@ATL@@QAE@ABV01@@Z
  00162	8d 8e f8 01 00
	00		 lea	 ecx, DWORD PTR [esi+504]
  00168	e8 00 00 00 00	 call	 ?SetText@CColorButton@@QAEXV?$CStringT@DV?$StrTraitMFC_DLL@DV?$ChTraitsCRT@D@ATL@@@@@ATL@@@Z ; CColorButton::SetText
$LN3@UseSubColo:

; 1040 : 	}
; 1041 : // 2008.01.25 by LYH <<
; 1042 : 	// End
; 1043 : 
; 1044 : 	m_btnSteadyColor.SetText( szBtnText );

  0016d	51		 push	 ecx
  0016e	8d 45 0c	 lea	 eax, DWORD PTR _szBtnText$[ebp]
  00171	8b cc		 mov	 ecx, esp
  00173	50		 push	 eax
  00174	ff 15 00 00 00
	00		 call	 DWORD PTR __imp_??0?$CStringT@DV?$StrTraitMFC_DLL@DV?$ChTraitsCRT@D@ATL@@@@@ATL@@QAE@ABV01@@Z
  0017a	8d 8e 90 03 00
	00		 lea	 ecx, DWORD PTR [esi+912]
  00180	e8 00 00 00 00	 call	 ?SetText@CColorButton@@QAEXV?$CStringT@DV?$StrTraitMFC_DLL@DV?$ChTraitsCRT@D@ATL@@@@@ATL@@@Z ; CColorButton::SetText

; 1045 : 
; 1046 : 	if( bUseSubColorBtn )

  00185	83 7d 08 00	 cmp	 DWORD PTR _bUseSubColorBtn$[ebp], 0
  00189	8b ce		 mov	 ecx, esi
  0018b	0f 84 da 00 00
	00		 je	 $LN4@UseSubColo

; 1047 : 	{
; 1048 : 		GetDlgItem(IDC_COMPOSITION_LINETITLE)->ShowWindow( SW_HIDE );

  00191	6a 00		 push	 0
  00193	68 cc 17 00 00	 push	 6092			; 000017ccH
  00198	e8 00 00 00 00	 call	 ?GetDlgItem@CWnd@@QBEPAV1@H@Z ; CWnd::GetDlgItem
  0019d	8b c8		 mov	 ecx, eax
  0019f	e8 00 00 00 00	 call	 ?ShowWindow@CWnd@@QAEHH@Z ; CWnd::ShowWindow

; 1049 : 		GetDlgItem(IDC_BTN_COMPOSITION_COLOR)->ShowWindow( SW_HIDE );

  001a4	6a 00		 push	 0
  001a6	68 b5 17 00 00	 push	 6069			; 000017b5H
  001ab	8b ce		 mov	 ecx, esi
  001ad	e8 00 00 00 00	 call	 ?GetDlgItem@CWnd@@QBEPAV1@H@Z ; CWnd::GetDlgItem
  001b2	8b c8		 mov	 ecx, eax
  001b4	e8 00 00 00 00	 call	 ?ShowWindow@CWnd@@QAEHH@Z ; CWnd::ShowWindow

; 1050 : 		
; 1051 : 		if( bUseThirdBtn )

  001b9	83 7d 10 00	 cmp	 DWORD PTR _bUseThirdBtn$[ebp], 0
  001bd	8b ce		 mov	 ecx, esi
  001bf	6a 00		 push	 0
  001c1	74 32		 je	 SHORT $LN6@UseSubColo

; 1052 : 		{
; 1053 : 			GetDlgItem(IDC_BTN_UP1)->ShowWindow( SW_HIDE );

  001c3	68 ff 17 00 00	 push	 6143			; 000017ffH
  001c8	e8 00 00 00 00	 call	 ?GetDlgItem@CWnd@@QBEPAV1@H@Z ; CWnd::GetDlgItem
  001cd	8b c8		 mov	 ecx, eax
  001cf	e8 00 00 00 00	 call	 ?ShowWindow@CWnd@@QAEHH@Z ; CWnd::ShowWindow

; 1054 : 			GetDlgItem(IDC_BTN_DOWN1)->ShowWindow( SW_HIDE );
; 1055 : 
; 1056 : 			GetDlgItem(IDC_BTN_UP_COLOR)->ShowWindow(SW_SHOW);
; 1057 : 			GetDlgItem(IDC_BTN_DOWN_COLOR)->ShowWindow(SW_SHOW);
; 1058 : 			GetDlgItem( IDC_BTN_STEADY_COLOR)->ShowWindow(SW_SHOW);

  001d4	bb fe 17 00 00	 mov	 ebx, 6142		; 000017feH
  001d9	c7 45 ec fd 17
	00 00		 mov	 DWORD PTR $T2[ebp], 6141 ; 000017fdH
  001e0	c7 45 10 05 00
	00 00		 mov	 DWORD PTR $T6[ebp], 5
  001e7	c7 45 08 fc 17
	00 00		 mov	 DWORD PTR $T5[ebp], 6140 ; 000017fcH
  001ee	68 00 18 00 00	 push	 6144			; 00001800H

; 1059 : 		}

  001f3	eb 30		 jmp	 SHORT $LN34@UseSubColo
$LN6@UseSubColo:

; 1060 : 					
; 1061 : 		else
; 1062 : 		{
; 1063 : 			GetDlgItem(IDC_BTN_UP_COLOR)->ShowWindow(SW_HIDE);

  001f5	68 fc 17 00 00	 push	 6140			; 000017fcH
  001fa	e8 00 00 00 00	 call	 ?GetDlgItem@CWnd@@QBEPAV1@H@Z ; CWnd::GetDlgItem
  001ff	8b c8		 mov	 ecx, eax
  00201	e8 00 00 00 00	 call	 ?ShowWindow@CWnd@@QAEHH@Z ; CWnd::ShowWindow

; 1064 : 			GetDlgItem(IDC_BTN_DOWN_COLOR)->ShowWindow(SW_HIDE);
; 1065 : 			GetDlgItem( IDC_BTN_STEADY_COLOR)->ShowWindow(SW_HIDE);
; 1066 : 
; 1067 : 			GetDlgItem(IDC_BTN_UP1)->ShowWindow( SW_SHOW );
; 1068 : 			GetDlgItem(IDC_BTN_DOWN1)->ShowWindow( SW_SHOW );

  00206	bb 00 18 00 00	 mov	 ebx, 6144		; 00001800H
  0020b	c7 45 ec ff 17
	00 00		 mov	 DWORD PTR $T2[ebp], 6143 ; 000017ffH
  00212	c7 45 10 00 00
	00 00		 mov	 DWORD PTR $T6[ebp], 0
  00219	c7 45 08 fe 17
	00 00		 mov	 DWORD PTR $T5[ebp], 6142 ; 000017feH
  00220	68 fd 17 00 00	 push	 6141			; 000017fdH
$LN34@UseSubColo:

; 1069 : 		}
; 1070 : 	}

  00225	8b ce		 mov	 ecx, esi
  00227	e8 00 00 00 00	 call	 ?GetDlgItem@CWnd@@QBEPAV1@H@Z ; CWnd::GetDlgItem
  0022c	6a 00		 push	 0
  0022e	8b c8		 mov	 ecx, eax
  00230	e8 00 00 00 00	 call	 ?ShowWindow@CWnd@@QAEHH@Z ; CWnd::ShowWindow
  00235	ff 75 08	 push	 DWORD PTR $T5[ebp]
  00238	8b ce		 mov	 ecx, esi
  0023a	e8 00 00 00 00	 call	 ?GetDlgItem@CWnd@@QBEPAV1@H@Z ; CWnd::GetDlgItem
  0023f	ff 75 10	 push	 DWORD PTR $T6[ebp]
  00242	8b c8		 mov	 ecx, eax
  00244	e8 00 00 00 00	 call	 ?ShowWindow@CWnd@@QAEHH@Z ; CWnd::ShowWindow
  00249	ff 75 ec	 push	 DWORD PTR $T2[ebp]
  0024c	8b ce		 mov	 ecx, esi
  0024e	e8 00 00 00 00	 call	 ?GetDlgItem@CWnd@@QBEPAV1@H@Z ; CWnd::GetDlgItem
  00253	6a 05		 push	 5
  00255	8b c8		 mov	 ecx, eax
  00257	e8 00 00 00 00	 call	 ?ShowWindow@CWnd@@QAEHH@Z ; CWnd::ShowWindow
  0025c	53		 push	 ebx
  0025d	8b ce		 mov	 ecx, esi
  0025f	e8 00 00 00 00	 call	 ?GetDlgItem@CWnd@@QBEPAV1@H@Z ; CWnd::GetDlgItem
  00264	6a 05		 push	 5
  00266	e9 8a 00 00 00	 jmp	 $LN35@UseSubColo
$LN4@UseSubColo:

; 1071 : 
; 1072 : 	else
; 1073 : 	{
; 1074 : 		GetDlgItem(IDC_COMPOSITION_LINETITLE)->ShowWindow( SW_SHOW );

  0026b	6a 05		 push	 5
  0026d	68 cc 17 00 00	 push	 6092			; 000017ccH
  00272	e8 00 00 00 00	 call	 ?GetDlgItem@CWnd@@QBEPAV1@H@Z ; CWnd::GetDlgItem
  00277	8b c8		 mov	 ecx, eax
  00279	e8 00 00 00 00	 call	 ?ShowWindow@CWnd@@QAEHH@Z ; CWnd::ShowWindow

; 1075 : 		GetDlgItem(IDC_BTN_COMPOSITION_COLOR)->ShowWindow( SW_SHOW );

  0027e	6a 05		 push	 5
  00280	68 b5 17 00 00	 push	 6069			; 000017b5H
  00285	8b ce		 mov	 ecx, esi
  00287	e8 00 00 00 00	 call	 ?GetDlgItem@CWnd@@QBEPAV1@H@Z ; CWnd::GetDlgItem
  0028c	8b c8		 mov	 ecx, eax
  0028e	e8 00 00 00 00	 call	 ?ShowWindow@CWnd@@QAEHH@Z ; CWnd::ShowWindow

; 1076 : 
; 1077 : 		GetDlgItem(IDC_BTN_UP_COLOR)->ShowWindow(SW_HIDE);

  00293	6a 00		 push	 0
  00295	68 fc 17 00 00	 push	 6140			; 000017fcH
  0029a	8b ce		 mov	 ecx, esi
  0029c	e8 00 00 00 00	 call	 ?GetDlgItem@CWnd@@QBEPAV1@H@Z ; CWnd::GetDlgItem
  002a1	8b c8		 mov	 ecx, eax
  002a3	e8 00 00 00 00	 call	 ?ShowWindow@CWnd@@QAEHH@Z ; CWnd::ShowWindow

; 1078 : 		GetDlgItem(IDC_BTN_DOWN_COLOR)->ShowWindow(SW_HIDE);

  002a8	6a 00		 push	 0
  002aa	68 fd 17 00 00	 push	 6141			; 000017fdH
  002af	8b ce		 mov	 ecx, esi
  002b1	e8 00 00 00 00	 call	 ?GetDlgItem@CWnd@@QBEPAV1@H@Z ; CWnd::GetDlgItem
  002b6	8b c8		 mov	 ecx, eax
  002b8	e8 00 00 00 00	 call	 ?ShowWindow@CWnd@@QAEHH@Z ; CWnd::ShowWindow

; 1079 : 		GetDlgItem( IDC_BTN_STEADY_COLOR)->ShowWindow(SW_HIDE);

  002bd	6a 00		 push	 0
  002bf	68 fe 17 00 00	 push	 6142			; 000017feH
  002c4	8b ce		 mov	 ecx, esi
  002c6	e8 00 00 00 00	 call	 ?GetDlgItem@CWnd@@QBEPAV1@H@Z ; CWnd::GetDlgItem
  002cb	8b c8		 mov	 ecx, eax
  002cd	e8 00 00 00 00	 call	 ?ShowWindow@CWnd@@QAEHH@Z ; CWnd::ShowWindow

; 1080 : 
; 1081 : 		GetDlgItem(IDC_BTN_UP1)->ShowWindow( SW_HIDE );

  002d2	6a 00		 push	 0
  002d4	68 ff 17 00 00	 push	 6143			; 000017ffH
  002d9	8b ce		 mov	 ecx, esi
  002db	e8 00 00 00 00	 call	 ?GetDlgItem@CWnd@@QBEPAV1@H@Z ; CWnd::GetDlgItem
  002e0	8b c8		 mov	 ecx, eax
  002e2	e8 00 00 00 00	 call	 ?ShowWindow@CWnd@@QAEHH@Z ; CWnd::ShowWindow

; 1082 : 		GetDlgItem(IDC_BTN_DOWN1)->ShowWindow( SW_HIDE );

  002e7	6a 00		 push	 0
  002e9	68 00 18 00 00	 push	 6144			; 00001800H
  002ee	8b ce		 mov	 ecx, esi
  002f0	e8 00 00 00 00	 call	 ?GetDlgItem@CWnd@@QBEPAV1@H@Z ; CWnd::GetDlgItem
$LN35@UseSubColo:
; File D:\git\src\IBK\IBK_DRFN\ProjSrc\SrcChartEx\ChartAddIn\ChartEnvSetupDlgAddIn\Include_AddIn_135914\I135914\_IString.h

; 44   : 	{

  002f5	8b c8		 mov	 ecx, eax
  002f7	e8 00 00 00 00	 call	 ?ShowWindow@CWnd@@QAEHH@Z ; CWnd::ShowWindow
  002fc	c6 45 fc 04	 mov	 BYTE PTR __$EHRec$[ebp+8], 4

; 45   : 		if( m_pIStrData)

  00300	85 ff		 test	 edi, edi
  00302	74 06		 je	 SHORT $LN25@UseSubColo

; 46   : 		{
; 47   : 			m_pIStrData->Release();

  00304	8b 07		 mov	 eax, DWORD PTR [edi]
  00306	57		 push	 edi
  00307	ff 50 08	 call	 DWORD PTR [eax+8]
$LN25@UseSubColo:
; File D:\git\src\IBK\IBK_DRFN\ProjSrc\SrcChartEx\ChartAddIn\ChartEnvSetupDlgAddIn\ChartEnvSetupDlgAddIn\Setting_Common_Type_A.cpp

; 1084 : }

  0030a	8d 4d 0c	 lea	 ecx, DWORD PTR _szBtnText$[ebp]
  0030d	ff 15 00 00 00
	00		 call	 DWORD PTR __imp_??1?$CStringT@DV?$StrTraitMFC_DLL@DV?$ChTraitsCRT@D@ATL@@@@@ATL@@QAE@XZ
  00313	8b 4d f4	 mov	 ecx, DWORD PTR __$EHRec$[ebp]
  00316	64 89 0d 00 00
	00 00		 mov	 DWORD PTR fs:0, ecx
  0031d	59		 pop	 ecx
  0031e	5f		 pop	 edi
  0031f	5e		 pop	 esi
  00320	5b		 pop	 ebx
  00321	8b e5		 mov	 esp, ebp
  00323	5d		 pop	 ebp
  00324	c2 0c 00	 ret	 12			; 0000000cH
_TEXT	ENDS
;	COMDAT text$x
text$x	SEGMENT
__unwindfunclet$?UseSubColorBtn@CSetting_Common_Type_A@@AAEXHV?$CStringT@DV?$StrTraitMFC_DLL@DV?$ChTraitsCRT@D@ATL@@@@@ATL@@H@Z$0:
  00000	8d 4d 0c	 lea	 ecx, DWORD PTR _szBtnText$[ebp]
  00003	ff 25 00 00 00
	00		 jmp	 DWORD PTR __imp_??1?$CStringT@DV?$StrTraitMFC_DLL@DV?$ChTraitsCRT@D@ATL@@@@@ATL@@QAE@XZ
__unwindfunclet$?UseSubColorBtn@CSetting_Common_Type_A@@AAEXHV?$CStringT@DV?$StrTraitMFC_DLL@DV?$ChTraitsCRT@D@ATL@@@@@ATL@@H@Z$3:
  00009	8d 4d e0	 lea	 ecx, DWORD PTR _szGraphName$[ebp]
  0000c	e9 00 00 00 00	 jmp	 ??1ILPCSTR135914@@QAE@XZ ; ILPCSTR135914::~ILPCSTR135914
__unwindfunclet$?UseSubColorBtn@CSetting_Common_Type_A@@AAEXHV?$CStringT@DV?$StrTraitMFC_DLL@DV?$ChTraitsCRT@D@ATL@@@@@ATL@@H@Z$4:
  00011	8d 4d ec	 lea	 ecx, DWORD PTR _strStart$3[ebp]
  00014	ff 25 00 00 00
	00		 jmp	 DWORD PTR __imp_??1?$CStringT@DV?$StrTraitMFC_DLL@DV?$ChTraitsCRT@D@ATL@@@@@ATL@@QAE@XZ
__unwindfunclet$?UseSubColorBtn@CSetting_Common_Type_A@@AAEXHV?$CStringT@DV?$StrTraitMFC_DLL@DV?$ChTraitsCRT@D@ATL@@@@@ATL@@H@Z$5:
  0001a	8d 4d f0	 lea	 ecx, DWORD PTR _strEnd$4[ebp]
  0001d	ff 25 00 00 00
	00		 jmp	 DWORD PTR __imp_??1?$CStringT@DV?$StrTraitMFC_DLL@DV?$ChTraitsCRT@D@ATL@@@@@ATL@@QAE@XZ
  00023	cc		 int	 3
  00024	cc		 int	 3
  00025	cc		 int	 3
  00026	cc		 int	 3
  00027	cc		 int	 3
__ehhandler$?UseSubColorBtn@CSetting_Common_Type_A@@AAEXHV?$CStringT@DV?$StrTraitMFC_DLL@DV?$ChTraitsCRT@D@ATL@@@@@ATL@@H@Z:
  00028	90		 npad	 1
  00029	90		 npad	 1
  0002a	8b 54 24 08	 mov	 edx, DWORD PTR [esp+8]
  0002e	8d 42 0c	 lea	 eax, DWORD PTR [edx+12]
  00031	8b 4a dc	 mov	 ecx, DWORD PTR [edx-36]
  00034	33 c8		 xor	 ecx, eax
  00036	e8 00 00 00 00	 call	 @__security_check_cookie@4
  0003b	b8 00 00 00 00	 mov	 eax, OFFSET __ehfuncinfo$?UseSubColorBtn@CSetting_Common_Type_A@@AAEXHV?$CStringT@DV?$StrTraitMFC_DLL@DV?$ChTraitsCRT@D@ATL@@@@@ATL@@H@Z
  00040	e9 00 00 00 00	 jmp	 ___CxxFrameHandler3
text$x	ENDS
?UseSubColorBtn@CSetting_Common_Type_A@@AAEXHV?$CStringT@DV?$StrTraitMFC_DLL@DV?$ChTraitsCRT@D@ATL@@@@@ATL@@H@Z ENDP ; CSetting_Common_Type_A::UseSubColorBtn
; Function compile flags: /Ogtp
; File D:\git\src\IBK\IBK_DRFN\ProjSrc\SrcChartEx\ChartAddIn\ChartEnvSetupDlgAddIn\ChartEnvSetupDlgAddIn\Setting_Common_Type_A.cpp
; File D:\git\src\IBK\IBK_DRFN\ProjSrc\SrcChartEx\ChartAddIn\ChartEnvSetupDlgAddIn\Include_AddIn_135914\I135914\_IString.h
; File D:\git\src\IBK\IBK_DRFN\ProjSrc\SrcChartEx\ChartAddIn\ChartEnvSetupDlgAddIn\ChartEnvSetupDlgAddIn\Setting_Common_Type_A.cpp
; File D:\git\src\IBK\IBK_DRFN\ProjSrc\SrcChartEx\ChartAddIn\ChartEnvSetupDlgAddIn\Include_AddIn_135914\I135914\_IString.h
; File D:\git\src\IBK\IBK_DRFN\ProjSrc\SrcChartEx\ChartAddIn\ChartEnvSetupDlgAddIn\ChartEnvSetupDlgAddIn\Setting_Common_Type_A.cpp
;	COMDAT ?UseCompositionGroup@CSetting_Common_Type_A@@AAEXH@Z
_TEXT	SEGMENT
_szGraphName$2 = -20					; size = 8
__$EHRec$ = -12						; size = 12
_bUseComposition$ = 8					; size = 4
?UseCompositionGroup@CSetting_Common_Type_A@@AAEXH@Z PROC ; CSetting_Common_Type_A::UseCompositionGroup, COMDAT
; _this$ = ecx

; 672  : {

  00000	55		 push	 ebp
  00001	8b ec		 mov	 ebp, esp
  00003	6a ff		 push	 -1
  00005	68 00 00 00 00	 push	 __ehhandler$?UseCompositionGroup@CSetting_Common_Type_A@@AAEXH@Z
  0000a	64 a1 00 00 00
	00		 mov	 eax, DWORD PTR fs:0
  00010	50		 push	 eax
  00011	83 ec 08	 sub	 esp, 8
  00014	53		 push	 ebx
  00015	56		 push	 esi
  00016	57		 push	 edi
  00017	a1 00 00 00 00	 mov	 eax, DWORD PTR ___security_cookie
  0001c	33 c5		 xor	 eax, ebp
  0001e	50		 push	 eax
  0001f	8d 45 f4	 lea	 eax, DWORD PTR __$EHRec$[ebp]
  00022	64 a3 00 00 00
	00		 mov	 DWORD PTR fs:0, eax
  00028	8b f9		 mov	 edi, ecx

; 673  : 	m_bUseComposition = bUseComposition;

  0002a	8b 45 08	 mov	 eax, DWORD PTR _bUseComposition$[ebp]
  0002d	89 87 d0 14 00
	00		 mov	 DWORD PTR [edi+5328], eax

; 674  : 	
; 675  : 	if( bUseComposition)

  00033	85 c0		 test	 eax, eax
  00035	0f 84 f3 01 00
	00		 je	 $LN2@UseComposi

; 676  : 	{
; 677  : 		GetDlgItem( IDC_COMPOSITION )->ShowWindow( SW_SHOW );			// GroupBox

  0003b	6a 05		 push	 5
  0003d	68 ac 17 00 00	 push	 6060			; 000017acH
  00042	e8 00 00 00 00	 call	 ?GetDlgItem@CWnd@@QBEPAV1@H@Z ; CWnd::GetDlgItem
  00047	8b c8		 mov	 ecx, eax
  00049	e8 00 00 00 00	 call	 ?ShowWindow@CWnd@@QAEHH@Z ; CWnd::ShowWindow

; 678  : 		GetDlgItem( IDC_LIST_COMPOSITION )->ShowWindow( SW_SHOW );		// List

  0004e	6a 05		 push	 5
  00050	68 d5 17 00 00	 push	 6101			; 000017d5H
  00055	8b cf		 mov	 ecx, edi
  00057	e8 00 00 00 00	 call	 ?GetDlgItem@CWnd@@QBEPAV1@H@Z ; CWnd::GetDlgItem
  0005c	8b c8		 mov	 ecx, eax
  0005e	e8 00 00 00 00	 call	 ?ShowWindow@CWnd@@QAEHH@Z ; CWnd::ShowWindow

; 679  : 		GetDlgItem( IDC_COMPOSITION_EACH )->ShowWindow( SW_SHOW );		// sub GroupBox

  00063	6a 05		 push	 5
  00065	68 ae 17 00 00	 push	 6062			; 000017aeH
  0006a	8b cf		 mov	 ecx, edi
  0006c	e8 00 00 00 00	 call	 ?GetDlgItem@CWnd@@QBEPAV1@H@Z ; CWnd::GetDlgItem
  00071	8b c8		 mov	 ecx, eax
  00073	e8 00 00 00 00	 call	 ?ShowWindow@CWnd@@QAEHH@Z ; CWnd::ShowWindow

; 680  : 		GetDlgItem( IDC_COMPOSITION_TITLE )->ShowWindow( SW_SHOW );

  00078	6a 05		 push	 5
  0007a	68 af 17 00 00	 push	 6063			; 000017afH
  0007f	8b cf		 mov	 ecx, edi
  00081	e8 00 00 00 00	 call	 ?GetDlgItem@CWnd@@QBEPAV1@H@Z ; CWnd::GetDlgItem
  00086	8b c8		 mov	 ecx, eax
  00088	e8 00 00 00 00	 call	 ?ShowWindow@CWnd@@QAEHH@Z ; CWnd::ShowWindow

; 681  : 		GetDlgItem( IDC_EDIT_COMPOSITION_TITLEDATA )->ShowWindow( SW_SHOW );

  0008d	6a 05		 push	 5
  0008f	68 cf 17 00 00	 push	 6095			; 000017cfH
  00094	8b cf		 mov	 ecx, edi
  00096	e8 00 00 00 00	 call	 ?GetDlgItem@CWnd@@QBEPAV1@H@Z ; CWnd::GetDlgItem
  0009b	8b c8		 mov	 ecx, eax
  0009d	e8 00 00 00 00	 call	 ?ShowWindow@CWnd@@QAEHH@Z ; CWnd::ShowWindow

; 682  : 		GetDlgItem( IDC_COMPOSITION_LINETITLE )->ShowWindow( SW_SHOW );

  000a2	6a 05		 push	 5
  000a4	68 cc 17 00 00	 push	 6092			; 000017ccH
  000a9	8b cf		 mov	 ecx, edi
  000ab	e8 00 00 00 00	 call	 ?GetDlgItem@CWnd@@QBEPAV1@H@Z ; CWnd::GetDlgItem
  000b0	8b c8		 mov	 ecx, eax
  000b2	e8 00 00 00 00	 call	 ?ShowWindow@CWnd@@QAEHH@Z ; CWnd::ShowWindow

; 683  : 		GetDlgItem( IDC_BTN_COMPOSITION_COLOR )->ShowWindow( SW_SHOW );

  000b7	6a 05		 push	 5
  000b9	68 b5 17 00 00	 push	 6069			; 000017b5H
  000be	8b cf		 mov	 ecx, edi
  000c0	e8 00 00 00 00	 call	 ?GetDlgItem@CWnd@@QBEPAV1@H@Z ; CWnd::GetDlgItem
  000c5	8b c8		 mov	 ecx, eax
  000c7	e8 00 00 00 00	 call	 ?ShowWindow@CWnd@@QAEHH@Z ; CWnd::ShowWindow

; 688  : 		ILPCSTR szGraphName = m_pIGraphInfo->GetIndicatorNameString();

  000cc	8b 8f c4 00 00
	00		 mov	 ecx, DWORD PTR [edi+196]
  000d2	8b 01		 mov	 eax, DWORD PTR [ecx]
  000d4	ff 90 a4 00 00
	00		 call	 DWORD PTR [eax+164]
; File D:\git\src\IBK\IBK_DRFN\ProjSrc\SrcChartEx\ChartAddIn\ChartEnvSetupDlgAddIn\Include_AddIn_135914\I135914\_IString.h

; 39   : 		m_pIStrData = p_pIString;	// Do not AddRef(). Because It must be Return Value.

  000da	89 45 f0	 mov	 DWORD PTR _szGraphName$2[ebp+4], eax

; 40   : 		if( m_pIStrData) m_szData = m_pIStrData->GetData();

  000dd	85 c0		 test	 eax, eax
  000df	74 0b		 je	 SHORT $LN11@UseComposi
  000e1	8b 10		 mov	 edx, DWORD PTR [eax]
  000e3	8b c8		 mov	 ecx, eax
  000e5	ff 52 10	 call	 DWORD PTR [edx+16]
  000e8	8b f0		 mov	 esi, eax
  000ea	eb 02		 jmp	 SHORT $LN35@UseComposi
$LN11@UseComposi:

; 41   : 		else m_szData = NULL;

  000ec	33 f6		 xor	 esi, esi
$LN35@UseComposi:
; File D:\git\src\IBK\IBK_DRFN\ProjSrc\SrcChartEx\ChartAddIn\ChartEnvSetupDlgAddIn\ChartEnvSetupDlgAddIn\Setting_Common_Type_A.cpp

; 688  : 		ILPCSTR szGraphName = m_pIGraphInfo->GetIndicatorNameString();

  000ee	89 75 ec	 mov	 DWORD PTR _szGraphName$2[ebp], esi

; 689  : 		// ""    .
; 690  : 		// (2006/8/14 - Seung-Won, Bae) Do not support Pen Thickness and Draw Style in Parabolic SAR
; 691  : 		if( strcmp( szGraphName, _MTEXT( C2_RAINBOW_CHART )) && strcmp( szGraphName, _MTEXT( C2_PARABOLIC_SAR) ))

  000f1	8b 1d 54 00 00
	00		 mov	 ebx, DWORD PTR ?g_iMetaTable@@3VIMetaTable@@A+84
  000f7	8b c6		 mov	 eax, esi
  000f9	c7 45 fc 00 00
	00 00		 mov	 DWORD PTR __$EHRec$[ebp+8], 0
  00100	8b 8b 30 03 00
	00		 mov	 ecx, DWORD PTR [ebx+816]
$LL18@UseComposi:
  00106	8a 10		 mov	 dl, BYTE PTR [eax]
  00108	3a 11		 cmp	 dl, BYTE PTR [ecx]
  0010a	75 1a		 jne	 SHORT $LN19@UseComposi
  0010c	84 d2		 test	 dl, dl
  0010e	74 12		 je	 SHORT $LN20@UseComposi
  00110	8a 50 01	 mov	 dl, BYTE PTR [eax+1]
  00113	3a 51 01	 cmp	 dl, BYTE PTR [ecx+1]
  00116	75 0e		 jne	 SHORT $LN19@UseComposi
  00118	83 c0 02	 add	 eax, 2
  0011b	83 c1 02	 add	 ecx, 2
  0011e	84 d2		 test	 dl, dl
  00120	75 e4		 jne	 SHORT $LL18@UseComposi
$LN20@UseComposi:
  00122	33 c0		 xor	 eax, eax
  00124	eb 05		 jmp	 SHORT $LN21@UseComposi
$LN19@UseComposi:
  00126	1b c0		 sbb	 eax, eax
  00128	83 c8 01	 or	 eax, 1
$LN21@UseComposi:
  0012b	85 c0		 test	 eax, eax
  0012d	74 38		 je	 SHORT $LN4@UseComposi
  0012f	8b 8b 54 03 00
	00		 mov	 ecx, DWORD PTR [ebx+852]
  00135	8b c6		 mov	 eax, esi
$LL22@UseComposi:
  00137	8a 10		 mov	 dl, BYTE PTR [eax]
  00139	3a 11		 cmp	 dl, BYTE PTR [ecx]
  0013b	75 1a		 jne	 SHORT $LN23@UseComposi
  0013d	84 d2		 test	 dl, dl
  0013f	74 12		 je	 SHORT $LN24@UseComposi
  00141	8a 50 01	 mov	 dl, BYTE PTR [eax+1]
  00144	3a 51 01	 cmp	 dl, BYTE PTR [ecx+1]
  00147	75 0e		 jne	 SHORT $LN23@UseComposi
  00149	83 c0 02	 add	 eax, 2
  0014c	83 c1 02	 add	 ecx, 2
  0014f	84 d2		 test	 dl, dl
  00151	75 e4		 jne	 SHORT $LL22@UseComposi
$LN24@UseComposi:
  00153	33 c0		 xor	 eax, eax
  00155	eb 05		 jmp	 SHORT $LN25@UseComposi
$LN23@UseComposi:
  00157	1b c0		 sbb	 eax, eax
  00159	83 c8 01	 or	 eax, 1
$LN25@UseComposi:
  0015c	85 c0		 test	 eax, eax
  0015e	74 07		 je	 SHORT $LN4@UseComposi

; 692  : 			GetDlgItem( IDC_CMB_THICKNESS )->ShowWindow( SW_SHOW);

  00160	bb 05 00 00 00	 mov	 ebx, 5
  00165	eb 02		 jmp	 SHORT $LN5@UseComposi
$LN4@UseComposi:

; 693  : 		else GetDlgItem( IDC_CMB_THICKNESS )->ShowWindow( SW_HIDE);

  00167	33 db		 xor	 ebx, ebx
$LN5@UseComposi:

; 694  : 		
; 695  : 		// "Box Chart"  Type Box   Line Type .
; 696  : 		if( strcmp( szGraphName, _MTEXT( C2_BOX_CHART )) && strcmp( szGraphName, _MTEXT( C2_PARABOLIC_SAR )))

  00169	68 b6 17 00 00	 push	 6070			; 000017b6H
  0016e	8b cf		 mov	 ecx, edi
  00170	e8 00 00 00 00	 call	 ?GetDlgItem@CWnd@@QBEPAV1@H@Z ; CWnd::GetDlgItem
  00175	53		 push	 ebx
  00176	8b c8		 mov	 ecx, eax
  00178	e8 00 00 00 00	 call	 ?ShowWindow@CWnd@@QAEHH@Z ; CWnd::ShowWindow
  0017d	8b 1d 54 00 00
	00		 mov	 ebx, DWORD PTR ?g_iMetaTable@@3VIMetaTable@@A+84
  00183	8b c6		 mov	 eax, esi
  00185	8b 8b 40 03 00
	00		 mov	 ecx, DWORD PTR [ebx+832]
  0018b	0f 1f 44 00 00	 npad	 5
$LL26@UseComposi:
  00190	8a 10		 mov	 dl, BYTE PTR [eax]
  00192	3a 11		 cmp	 dl, BYTE PTR [ecx]
  00194	75 1a		 jne	 SHORT $LN27@UseComposi
  00196	84 d2		 test	 dl, dl
  00198	74 12		 je	 SHORT $LN28@UseComposi
  0019a	8a 50 01	 mov	 dl, BYTE PTR [eax+1]
  0019d	3a 51 01	 cmp	 dl, BYTE PTR [ecx+1]
  001a0	75 0e		 jne	 SHORT $LN27@UseComposi
  001a2	83 c0 02	 add	 eax, 2
  001a5	83 c1 02	 add	 ecx, 2
  001a8	84 d2		 test	 dl, dl
  001aa	75 e4		 jne	 SHORT $LL26@UseComposi
$LN28@UseComposi:
  001ac	33 c0		 xor	 eax, eax
  001ae	eb 05		 jmp	 SHORT $LN29@UseComposi
$LN27@UseComposi:
  001b0	1b c0		 sbb	 eax, eax
  001b2	83 c8 01	 or	 eax, 1
$LN29@UseComposi:
  001b5	85 c0		 test	 eax, eax
  001b7	74 34		 je	 SHORT $LN6@UseComposi
  001b9	8b 83 54 03 00
	00		 mov	 eax, DWORD PTR [ebx+852]
  001bf	90		 npad	 1
$LL30@UseComposi:
  001c0	8a 0e		 mov	 cl, BYTE PTR [esi]
  001c2	3a 08		 cmp	 cl, BYTE PTR [eax]
  001c4	75 1a		 jne	 SHORT $LN31@UseComposi
  001c6	84 c9		 test	 cl, cl
  001c8	74 12		 je	 SHORT $LN32@UseComposi
  001ca	8a 4e 01	 mov	 cl, BYTE PTR [esi+1]
  001cd	3a 48 01	 cmp	 cl, BYTE PTR [eax+1]
  001d0	75 0e		 jne	 SHORT $LN31@UseComposi
  001d2	83 c6 02	 add	 esi, 2
  001d5	83 c0 02	 add	 eax, 2
  001d8	84 c9		 test	 cl, cl
  001da	75 e4		 jne	 SHORT $LL30@UseComposi
$LN32@UseComposi:
  001dc	33 c0		 xor	 eax, eax
  001de	eb 05		 jmp	 SHORT $LN33@UseComposi
$LN31@UseComposi:
  001e0	1b c0		 sbb	 eax, eax
  001e2	83 c8 01	 or	 eax, 1
$LN33@UseComposi:
  001e5	85 c0		 test	 eax, eax
  001e7	74 04		 je	 SHORT $LN6@UseComposi

; 697  : 			GetDlgItem( IDC_CMB_LINETYPE )->ShowWindow( SW_SHOW);

  001e9	6a 05		 push	 5
  001eb	eb 02		 jmp	 SHORT $LN36@UseComposi
$LN6@UseComposi:

; 698  : 		else GetDlgItem( IDC_CMB_LINETYPE )->ShowWindow( SW_HIDE);

  001ed	6a 00		 push	 0
$LN36@UseComposi:
; File D:\git\src\IBK\IBK_DRFN\ProjSrc\SrcChartEx\ChartAddIn\ChartEnvSetupDlgAddIn\Include_AddIn_135914\I135914\_IString.h

; 44   : 	{

  001ef	68 b7 17 00 00	 push	 6071			; 000017b7H
  001f4	8b cf		 mov	 ecx, edi
  001f6	e8 00 00 00 00	 call	 ?GetDlgItem@CWnd@@QBEPAV1@H@Z ; CWnd::GetDlgItem
  001fb	8b c8		 mov	 ecx, eax
  001fd	e8 00 00 00 00	 call	 ?ShowWindow@CWnd@@QAEHH@Z ; CWnd::ShowWindow

; 45   : 		if( m_pIStrData)

  00202	8b 4d f0	 mov	 ecx, DWORD PTR _szGraphName$2[ebp+4]
  00205	c7 45 fc 01 00
	00 00		 mov	 DWORD PTR __$EHRec$[ebp+8], 1
  0020c	85 c9		 test	 ecx, ecx
  0020e	0f 84 d5 00 00
	00		 je	 $LN3@UseComposi

; 46   : 		{
; 47   : 			m_pIStrData->Release();

  00214	8b 01		 mov	 eax, DWORD PTR [ecx]
  00216	51		 push	 ecx
  00217	ff 50 08	 call	 DWORD PTR [eax+8]
; File D:\git\src\IBK\IBK_DRFN\ProjSrc\SrcChartEx\ChartAddIn\ChartEnvSetupDlgAddIn\ChartEnvSetupDlgAddIn\Setting_Common_Type_A.cpp

; 714  : }

  0021a	8b 4d f4	 mov	 ecx, DWORD PTR __$EHRec$[ebp]
  0021d	64 89 0d 00 00
	00 00		 mov	 DWORD PTR fs:0, ecx
  00224	59		 pop	 ecx
  00225	5f		 pop	 edi
  00226	5e		 pop	 esi
  00227	5b		 pop	 ebx
  00228	8b e5		 mov	 esp, ebp
  0022a	5d		 pop	 ebp
  0022b	c2 04 00	 ret	 4
$LN2@UseComposi:

; 699  : 		// End
; 700  : 	}
; 701  : 
; 702  : 	else
; 703  : 	{
; 704  : 		GetDlgItem( IDC_COMPOSITION )->ShowWindow( SW_HIDE );

  0022e	6a 00		 push	 0
  00230	68 ac 17 00 00	 push	 6060			; 000017acH
  00235	e8 00 00 00 00	 call	 ?GetDlgItem@CWnd@@QBEPAV1@H@Z ; CWnd::GetDlgItem
  0023a	8b c8		 mov	 ecx, eax
  0023c	e8 00 00 00 00	 call	 ?ShowWindow@CWnd@@QAEHH@Z ; CWnd::ShowWindow

; 705  : 		GetDlgItem( IDC_LIST_COMPOSITION )->ShowWindow( SW_HIDE );

  00241	6a 00		 push	 0
  00243	68 d5 17 00 00	 push	 6101			; 000017d5H
  00248	8b cf		 mov	 ecx, edi
  0024a	e8 00 00 00 00	 call	 ?GetDlgItem@CWnd@@QBEPAV1@H@Z ; CWnd::GetDlgItem
  0024f	8b c8		 mov	 ecx, eax
  00251	e8 00 00 00 00	 call	 ?ShowWindow@CWnd@@QAEHH@Z ; CWnd::ShowWindow

; 706  : 		GetDlgItem( IDC_COMPOSITION_EACH )->ShowWindow( SW_HIDE );

  00256	6a 00		 push	 0
  00258	68 ae 17 00 00	 push	 6062			; 000017aeH
  0025d	8b cf		 mov	 ecx, edi
  0025f	e8 00 00 00 00	 call	 ?GetDlgItem@CWnd@@QBEPAV1@H@Z ; CWnd::GetDlgItem
  00264	8b c8		 mov	 ecx, eax
  00266	e8 00 00 00 00	 call	 ?ShowWindow@CWnd@@QAEHH@Z ; CWnd::ShowWindow

; 707  : 		GetDlgItem( IDC_COMPOSITION_TITLE )->ShowWindow( SW_HIDE );

  0026b	6a 00		 push	 0
  0026d	68 af 17 00 00	 push	 6063			; 000017afH
  00272	8b cf		 mov	 ecx, edi
  00274	e8 00 00 00 00	 call	 ?GetDlgItem@CWnd@@QBEPAV1@H@Z ; CWnd::GetDlgItem
  00279	8b c8		 mov	 ecx, eax
  0027b	e8 00 00 00 00	 call	 ?ShowWindow@CWnd@@QAEHH@Z ; CWnd::ShowWindow

; 708  : 		GetDlgItem( IDC_EDIT_COMPOSITION_TITLEDATA )->ShowWindow( SW_HIDE );

  00280	6a 00		 push	 0
  00282	68 cf 17 00 00	 push	 6095			; 000017cfH
  00287	8b cf		 mov	 ecx, edi
  00289	e8 00 00 00 00	 call	 ?GetDlgItem@CWnd@@QBEPAV1@H@Z ; CWnd::GetDlgItem
  0028e	8b c8		 mov	 ecx, eax
  00290	e8 00 00 00 00	 call	 ?ShowWindow@CWnd@@QAEHH@Z ; CWnd::ShowWindow

; 709  : 		GetDlgItem( IDC_COMPOSITION_LINETITLE )->ShowWindow( SW_HIDE );

  00295	6a 00		 push	 0
  00297	68 cc 17 00 00	 push	 6092			; 000017ccH
  0029c	8b cf		 mov	 ecx, edi
  0029e	e8 00 00 00 00	 call	 ?GetDlgItem@CWnd@@QBEPAV1@H@Z ; CWnd::GetDlgItem
  002a3	8b c8		 mov	 ecx, eax
  002a5	e8 00 00 00 00	 call	 ?ShowWindow@CWnd@@QAEHH@Z ; CWnd::ShowWindow

; 710  : 		GetDlgItem( IDC_BTN_COMPOSITION_COLOR )->ShowWindow( SW_HIDE );

  002aa	6a 00		 push	 0
  002ac	68 b5 17 00 00	 push	 6069			; 000017b5H
  002b1	8b cf		 mov	 ecx, edi
  002b3	e8 00 00 00 00	 call	 ?GetDlgItem@CWnd@@QBEPAV1@H@Z ; CWnd::GetDlgItem
  002b8	8b c8		 mov	 ecx, eax
  002ba	e8 00 00 00 00	 call	 ?ShowWindow@CWnd@@QAEHH@Z ; CWnd::ShowWindow

; 711  : 		GetDlgItem( IDC_CMB_THICKNESS )->ShowWindow( SW_HIDE );

  002bf	6a 00		 push	 0
  002c1	68 b6 17 00 00	 push	 6070			; 000017b6H
  002c6	8b cf		 mov	 ecx, edi
  002c8	e8 00 00 00 00	 call	 ?GetDlgItem@CWnd@@QBEPAV1@H@Z ; CWnd::GetDlgItem
  002cd	8b c8		 mov	 ecx, eax
  002cf	e8 00 00 00 00	 call	 ?ShowWindow@CWnd@@QAEHH@Z ; CWnd::ShowWindow

; 712  : 		GetDlgItem( IDC_CMB_LINETYPE )->ShowWindow( SW_HIDE );

  002d4	6a 00		 push	 0
  002d6	68 b7 17 00 00	 push	 6071			; 000017b7H
  002db	8b cf		 mov	 ecx, edi
  002dd	e8 00 00 00 00	 call	 ?GetDlgItem@CWnd@@QBEPAV1@H@Z ; CWnd::GetDlgItem
  002e2	8b c8		 mov	 ecx, eax
  002e4	e8 00 00 00 00	 call	 ?ShowWindow@CWnd@@QAEHH@Z ; CWnd::ShowWindow
$LN3@UseComposi:

; 714  : }

  002e9	8b 4d f4	 mov	 ecx, DWORD PTR __$EHRec$[ebp]
  002ec	64 89 0d 00 00
	00 00		 mov	 DWORD PTR fs:0, ecx
  002f3	59		 pop	 ecx
  002f4	5f		 pop	 edi
  002f5	5e		 pop	 esi
  002f6	5b		 pop	 ebx
  002f7	8b e5		 mov	 esp, ebp
  002f9	5d		 pop	 ebp
  002fa	c2 04 00	 ret	 4
_TEXT	ENDS
;	COMDAT text$x
text$x	SEGMENT
__unwindfunclet$?UseCompositionGroup@CSetting_Common_Type_A@@AAEXH@Z$0:
  00000	8d 4d ec	 lea	 ecx, DWORD PTR _szGraphName$2[ebp]
  00003	e9 00 00 00 00	 jmp	 ??1ILPCSTR135914@@QAE@XZ ; ILPCSTR135914::~ILPCSTR135914
  00008	cc		 int	 3
  00009	cc		 int	 3
  0000a	cc		 int	 3
  0000b	cc		 int	 3
  0000c	cc		 int	 3
__ehhandler$?UseCompositionGroup@CSetting_Common_Type_A@@AAEXH@Z:
  0000d	90		 npad	 1
  0000e	90		 npad	 1
  0000f	8b 54 24 08	 mov	 edx, DWORD PTR [esp+8]
  00013	8d 42 0c	 lea	 eax, DWORD PTR [edx+12]
  00016	8b 4a e8	 mov	 ecx, DWORD PTR [edx-24]
  00019	33 c8		 xor	 ecx, eax
  0001b	e8 00 00 00 00	 call	 @__security_check_cookie@4
  00020	b8 00 00 00 00	 mov	 eax, OFFSET __ehfuncinfo$?UseCompositionGroup@CSetting_Common_Type_A@@AAEXH@Z
  00025	e9 00 00 00 00	 jmp	 ___CxxFrameHandler3
text$x	ENDS
?UseCompositionGroup@CSetting_Common_Type_A@@AAEXH@Z ENDP ; CSetting_Common_Type_A::UseCompositionGroup
; Function compile flags: /Ogtp
; File D:\git\src\IBK\IBK_DRFN\ProjSrc\SrcChartEx\ChartAddIn\ChartEnvSetupDlgAddIn\ChartEnvSetupDlgAddIn\Setting_Common_Type_A.cpp
;	COMDAT ?UsePacketData@CSetting_Common_Type_A@@AAEX_N@Z
_TEXT	SEGMENT
_bUsePacket$ = 8					; size = 1
?UsePacketData@CSetting_Common_Type_A@@AAEX_N@Z PROC	; CSetting_Common_Type_A::UsePacketData, COMDAT
; _this$ = ecx

; 536  : {

  00000	55		 push	 ebp
  00001	8b ec		 mov	 ebp, esp
  00003	53		 push	 ebx

; 537  : 	GetDlgItem( IDC_STATIC_DATA_TITLE )->ShowWindow( ( bUsePacket ? FALSE : TRUE ) );

  00004	8a 5d 08	 mov	 bl, BYTE PTR _bUsePacket$[ebp]
  00007	56		 push	 esi
  00008	57		 push	 edi
  00009	0f b6 f3	 movzx	 esi, bl
  0000c	8b f9		 mov	 edi, ecx
  0000e	83 f6 01	 xor	 esi, 1
  00011	56		 push	 esi
  00012	68 a9 17 00 00	 push	 6057			; 000017a9H
  00017	e8 00 00 00 00	 call	 ?GetDlgItem@CWnd@@QBEPAV1@H@Z ; CWnd::GetDlgItem
  0001c	8b c8		 mov	 ecx, eax
  0001e	e8 00 00 00 00	 call	 ?ShowWindow@CWnd@@QAEHH@Z ; CWnd::ShowWindow

; 538  : 	GetDlgItem( IDC_CMB_DATA )->ShowWindow( ( bUsePacket ? FALSE : TRUE ) );

  00023	56		 push	 esi
  00024	68 ab 17 00 00	 push	 6059			; 000017abH
  00029	8b cf		 mov	 ecx, edi
  0002b	e8 00 00 00 00	 call	 ?GetDlgItem@CWnd@@QBEPAV1@H@Z ; CWnd::GetDlgItem
  00030	8b c8		 mov	 ecx, eax
  00032	e8 00 00 00 00	 call	 ?ShowWindow@CWnd@@QAEHH@Z ; CWnd::ShowWindow

; 539  : 
; 540  : 	// Singbar Graph    - ojtaso (20071121)
; 541  : 	UseCompColorCtrl(bUsePacket ? FALSE : TRUE);
; 542  : }

  00037	33 c0		 xor	 eax, eax
  00039	be 05 00 00 00	 mov	 esi, 5
  0003e	84 db		 test	 bl, bl
  00040	8b cf		 mov	 ecx, edi
  00042	68 62 1f 00 00	 push	 8034			; 00001f62H
  00047	0f 45 f0	 cmovne	 esi, eax
  0004a	e8 00 00 00 00	 call	 ?GetDlgItem@CWnd@@QBEPAV1@H@Z ; CWnd::GetDlgItem
  0004f	56		 push	 esi
  00050	8b c8		 mov	 ecx, eax
  00052	e8 00 00 00 00	 call	 ?ShowWindow@CWnd@@QAEHH@Z ; CWnd::ShowWindow
  00057	56		 push	 esi
  00058	8d 8f f8 00 00
	00		 lea	 ecx, DWORD PTR [edi+248]
  0005e	e8 00 00 00 00	 call	 ?ShowWindow@CWnd@@QAEHH@Z ; CWnd::ShowWindow
  00063	5f		 pop	 edi
  00064	5e		 pop	 esi
  00065	5b		 pop	 ebx
  00066	5d		 pop	 ebp
  00067	c2 04 00	 ret	 4
?UsePacketData@CSetting_Common_Type_A@@AAEX_N@Z ENDP	; CSetting_Common_Type_A::UsePacketData
_TEXT	ENDS
; Function compile flags: /Ogtp
; File D:\git\src\IBK\IBK_DRFN\ProjSrc\SrcChartEx\ChartAddIn\ChartEnvSetupDlgAddIn\ChartEnvSetupDlgAddIn\Setting_Common_Type_A.cpp
;	COMDAT ?UseValue5@CSetting_Common_Type_A@@AAEXH@Z
_TEXT	SEGMENT
$T1 = 8							; size = 4
_bUseValue5$ = 8					; size = 4
?UseValue5@CSetting_Common_Type_A@@AAEXH@Z PROC		; CSetting_Common_Type_A::UseValue5, COMDAT
; _this$ = ecx

; 648  : {

  00000	55		 push	 ebp
  00001	8b ec		 mov	 ebp, esp

; 649  : 	if( bUseValue5 == TRUE )

  00003	83 7d 08 01	 cmp	 DWORD PTR _bUseValue5$[ebp], 1
  00007	53		 push	 ebx
  00008	56		 push	 esi
  00009	57		 push	 edi
  0000a	8b f1		 mov	 esi, ecx
  0000c	75 09		 jne	 SHORT $LN2@UseValue5

; 650  : 	{
; 651  : 		GetDlgItem( IDC_STATIC_VALUE5 )->ShowWindow( SW_SHOW );
; 652  : 		GetDlgItem( IDC_EDIT_VALUE5 )->ShowWindow( SW_SHOW );
; 653  : 		GetDlgItem( IDC_SPIN_VALUE5 )->ShowWindow( SW_SHOW );

  0000e	bf 05 00 00 00	 mov	 edi, 5
  00013	8b de		 mov	 ebx, esi

; 654  : 	}

  00015	eb 04		 jmp	 SHORT $LN5@UseValue5
$LN2@UseValue5:

; 655  : 
; 656  : 	else
; 657  : 	{
; 658  : 		GetDlgItem( IDC_STATIC_VALUE5 )->ShowWindow( SW_HIDE );
; 659  : 		GetDlgItem( IDC_EDIT_VALUE5 )->ShowWindow( SW_HIDE );
; 660  : 		GetDlgItem( IDC_SPIN_VALUE5 )->ShowWindow( SW_HIDE );

  00017	33 ff		 xor	 edi, edi
  00019	8b d9		 mov	 ebx, ecx
$LN5@UseValue5:

; 661  : 	}
; 662  : }

  0001b	68 da 17 00 00	 push	 6106			; 000017daH
  00020	89 7d 08	 mov	 DWORD PTR $T1[ebp], edi
  00023	e8 00 00 00 00	 call	 ?GetDlgItem@CWnd@@QBEPAV1@H@Z ; CWnd::GetDlgItem
  00028	57		 push	 edi
  00029	8b c8		 mov	 ecx, eax
  0002b	e8 00 00 00 00	 call	 ?ShowWindow@CWnd@@QAEHH@Z ; CWnd::ShowWindow
  00030	68 d4 17 00 00	 push	 6100			; 000017d4H
  00035	8b cb		 mov	 ecx, ebx
  00037	e8 00 00 00 00	 call	 ?GetDlgItem@CWnd@@QBEPAV1@H@Z ; CWnd::GetDlgItem
  0003c	57		 push	 edi
  0003d	8b c8		 mov	 ecx, eax
  0003f	e8 00 00 00 00	 call	 ?ShowWindow@CWnd@@QAEHH@Z ; CWnd::ShowWindow
  00044	68 df 17 00 00	 push	 6111			; 000017dfH
  00049	8b ce		 mov	 ecx, esi
  0004b	e8 00 00 00 00	 call	 ?GetDlgItem@CWnd@@QBEPAV1@H@Z ; CWnd::GetDlgItem
  00050	57		 push	 edi
  00051	8b c8		 mov	 ecx, eax
  00053	e8 00 00 00 00	 call	 ?ShowWindow@CWnd@@QAEHH@Z ; CWnd::ShowWindow
  00058	5f		 pop	 edi
  00059	5e		 pop	 esi
  0005a	5b		 pop	 ebx
  0005b	5d		 pop	 ebp
  0005c	c2 04 00	 ret	 4
?UseValue5@CSetting_Common_Type_A@@AAEXH@Z ENDP		; CSetting_Common_Type_A::UseValue5
_TEXT	ENDS
; Function compile flags: /Ogtp
; File D:\git\src\IBK\IBK_DRFN\ProjSrc\SrcChartEx\ChartAddIn\ChartEnvSetupDlgAddIn\ChartEnvSetupDlgAddIn\Setting_Common_Type_A.cpp
;	COMDAT ?UseValue4@CSetting_Common_Type_A@@AAEXH@Z
_TEXT	SEGMENT
$T1 = 8							; size = 4
_bUseValue4$ = 8					; size = 4
?UseValue4@CSetting_Common_Type_A@@AAEXH@Z PROC		; CSetting_Common_Type_A::UseValue4, COMDAT
; _this$ = ecx

; 624  : {

  00000	55		 push	 ebp
  00001	8b ec		 mov	 ebp, esp

; 625  : 	if( bUseValue4 == TRUE )

  00003	83 7d 08 01	 cmp	 DWORD PTR _bUseValue4$[ebp], 1
  00007	53		 push	 ebx
  00008	56		 push	 esi
  00009	57		 push	 edi
  0000a	8b f1		 mov	 esi, ecx
  0000c	75 09		 jne	 SHORT $LN2@UseValue4

; 626  : 	{
; 627  : 		GetDlgItem( IDC_STATIC_VALUE4 )->ShowWindow( SW_SHOW );
; 628  : 		GetDlgItem( IDC_EDIT_VALUE4 )->ShowWindow( SW_SHOW );
; 629  : 		GetDlgItem( IDC_SPIN_VALUE4 )->ShowWindow( SW_SHOW );

  0000e	bf 05 00 00 00	 mov	 edi, 5
  00013	8b de		 mov	 ebx, esi

; 630  : 	}

  00015	eb 04		 jmp	 SHORT $LN5@UseValue4
$LN2@UseValue4:

; 631  : 
; 632  : 	else
; 633  : 	{
; 634  : 		GetDlgItem( IDC_STATIC_VALUE4 )->ShowWindow( SW_HIDE );
; 635  : 		GetDlgItem( IDC_EDIT_VALUE4 )->ShowWindow( SW_HIDE );
; 636  : 		GetDlgItem( IDC_SPIN_VALUE4 )->ShowWindow( SW_HIDE );

  00017	33 ff		 xor	 edi, edi
  00019	8b d9		 mov	 ebx, ecx
$LN5@UseValue4:

; 637  : 	}
; 638  : }

  0001b	68 d9 17 00 00	 push	 6105			; 000017d9H
  00020	89 7d 08	 mov	 DWORD PTR $T1[ebp], edi
  00023	e8 00 00 00 00	 call	 ?GetDlgItem@CWnd@@QBEPAV1@H@Z ; CWnd::GetDlgItem
  00028	57		 push	 edi
  00029	8b c8		 mov	 ecx, eax
  0002b	e8 00 00 00 00	 call	 ?ShowWindow@CWnd@@QAEHH@Z ; CWnd::ShowWindow
  00030	68 d3 17 00 00	 push	 6099			; 000017d3H
  00035	8b cb		 mov	 ecx, ebx
  00037	e8 00 00 00 00	 call	 ?GetDlgItem@CWnd@@QBEPAV1@H@Z ; CWnd::GetDlgItem
  0003c	57		 push	 edi
  0003d	8b c8		 mov	 ecx, eax
  0003f	e8 00 00 00 00	 call	 ?ShowWindow@CWnd@@QAEHH@Z ; CWnd::ShowWindow
  00044	68 de 17 00 00	 push	 6110			; 000017deH
  00049	8b ce		 mov	 ecx, esi
  0004b	e8 00 00 00 00	 call	 ?GetDlgItem@CWnd@@QBEPAV1@H@Z ; CWnd::GetDlgItem
  00050	57		 push	 edi
  00051	8b c8		 mov	 ecx, eax
  00053	e8 00 00 00 00	 call	 ?ShowWindow@CWnd@@QAEHH@Z ; CWnd::ShowWindow
  00058	5f		 pop	 edi
  00059	5e		 pop	 esi
  0005a	5b		 pop	 ebx
  0005b	5d		 pop	 ebp
  0005c	c2 04 00	 ret	 4
?UseValue4@CSetting_Common_Type_A@@AAEXH@Z ENDP		; CSetting_Common_Type_A::UseValue4
_TEXT	ENDS
; Function compile flags: /Ogtp
; File D:\git\src\IBK\IBK_DRFN\ProjSrc\SrcChartEx\ChartAddIn\ChartEnvSetupDlgAddIn\ChartEnvSetupDlgAddIn\Setting_Common_Type_A.cpp
;	COMDAT ?UseValue3@CSetting_Common_Type_A@@AAEXH@Z
_TEXT	SEGMENT
$T1 = 8							; size = 4
_bUseValue3$ = 8					; size = 4
?UseValue3@CSetting_Common_Type_A@@AAEXH@Z PROC		; CSetting_Common_Type_A::UseValue3, COMDAT
; _this$ = ecx

; 600  : {

  00000	55		 push	 ebp
  00001	8b ec		 mov	 ebp, esp

; 601  : 	if( bUseValue3 == TRUE )

  00003	83 7d 08 01	 cmp	 DWORD PTR _bUseValue3$[ebp], 1
  00007	53		 push	 ebx
  00008	56		 push	 esi
  00009	57		 push	 edi
  0000a	8b f1		 mov	 esi, ecx
  0000c	75 09		 jne	 SHORT $LN2@UseValue3

; 602  : 	{
; 603  : 		GetDlgItem( IDC_STATIC_VALUE3 )->ShowWindow( SW_SHOW );
; 604  : 		GetDlgItem( IDC_EDIT_VALUE3 )->ShowWindow( SW_SHOW );
; 605  : 		GetDlgItem( IDC_SPIN_VALUE3 )->ShowWindow( SW_SHOW );

  0000e	bf 05 00 00 00	 mov	 edi, 5
  00013	8b de		 mov	 ebx, esi

; 606  : 	}

  00015	eb 04		 jmp	 SHORT $LN5@UseValue3
$LN2@UseValue3:

; 607  : 
; 608  : 	else
; 609  : 	{
; 610  : 		GetDlgItem( IDC_STATIC_VALUE3 )->ShowWindow( SW_HIDE );
; 611  : 		GetDlgItem( IDC_EDIT_VALUE3 )->ShowWindow( SW_HIDE );
; 612  : 		GetDlgItem( IDC_SPIN_VALUE3 )->ShowWindow( SW_HIDE );

  00017	33 ff		 xor	 edi, edi
  00019	8b d9		 mov	 ebx, ecx
$LN5@UseValue3:

; 613  : 	}
; 614  : }

  0001b	68 d8 17 00 00	 push	 6104			; 000017d8H
  00020	89 7d 08	 mov	 DWORD PTR $T1[ebp], edi
  00023	e8 00 00 00 00	 call	 ?GetDlgItem@CWnd@@QBEPAV1@H@Z ; CWnd::GetDlgItem
  00028	57		 push	 edi
  00029	8b c8		 mov	 ecx, eax
  0002b	e8 00 00 00 00	 call	 ?ShowWindow@CWnd@@QAEHH@Z ; CWnd::ShowWindow
  00030	68 d2 17 00 00	 push	 6098			; 000017d2H
  00035	8b cb		 mov	 ecx, ebx
  00037	e8 00 00 00 00	 call	 ?GetDlgItem@CWnd@@QBEPAV1@H@Z ; CWnd::GetDlgItem
  0003c	57		 push	 edi
  0003d	8b c8		 mov	 ecx, eax
  0003f	e8 00 00 00 00	 call	 ?ShowWindow@CWnd@@QAEHH@Z ; CWnd::ShowWindow
  00044	68 dd 17 00 00	 push	 6109			; 000017ddH
  00049	8b ce		 mov	 ecx, esi
  0004b	e8 00 00 00 00	 call	 ?GetDlgItem@CWnd@@QBEPAV1@H@Z ; CWnd::GetDlgItem
  00050	57		 push	 edi
  00051	8b c8		 mov	 ecx, eax
  00053	e8 00 00 00 00	 call	 ?ShowWindow@CWnd@@QAEHH@Z ; CWnd::ShowWindow
  00058	5f		 pop	 edi
  00059	5e		 pop	 esi
  0005a	5b		 pop	 ebx
  0005b	5d		 pop	 ebp
  0005c	c2 04 00	 ret	 4
?UseValue3@CSetting_Common_Type_A@@AAEXH@Z ENDP		; CSetting_Common_Type_A::UseValue3
_TEXT	ENDS
; Function compile flags: /Ogtp
; File D:\git\src\IBK\IBK_DRFN\ProjSrc\SrcChartEx\ChartAddIn\ChartEnvSetupDlgAddIn\ChartEnvSetupDlgAddIn\Setting_Common_Type_A.cpp
;	COMDAT ?UseValue2@CSetting_Common_Type_A@@AAEXH@Z
_TEXT	SEGMENT
$T1 = 8							; size = 4
_bUseValue2$ = 8					; size = 4
?UseValue2@CSetting_Common_Type_A@@AAEXH@Z PROC		; CSetting_Common_Type_A::UseValue2, COMDAT
; _this$ = ecx

; 576  : {

  00000	55		 push	 ebp
  00001	8b ec		 mov	 ebp, esp

; 577  : 	if( bUseValue2 == TRUE )

  00003	83 7d 08 01	 cmp	 DWORD PTR _bUseValue2$[ebp], 1
  00007	53		 push	 ebx
  00008	56		 push	 esi
  00009	57		 push	 edi
  0000a	8b f1		 mov	 esi, ecx
  0000c	75 09		 jne	 SHORT $LN2@UseValue2

; 578  : 	{
; 579  : 		GetDlgItem( IDC_STATIC_VALUE2 )->ShowWindow( SW_SHOW );
; 580  : 		GetDlgItem( IDC_EDIT_VALUE2 )->ShowWindow( SW_SHOW );
; 581  : 		GetDlgItem( IDC_SPIN_VALUE2 )->ShowWindow( SW_SHOW );

  0000e	bf 05 00 00 00	 mov	 edi, 5
  00013	8b de		 mov	 ebx, esi

; 582  : 	}

  00015	eb 04		 jmp	 SHORT $LN5@UseValue2
$LN2@UseValue2:

; 583  : 
; 584  : 	else
; 585  : 	{
; 586  : 		GetDlgItem( IDC_STATIC_VALUE2 )->ShowWindow( SW_HIDE );
; 587  : 		GetDlgItem( IDC_EDIT_VALUE2 )->ShowWindow( SW_HIDE );
; 588  : 		GetDlgItem( IDC_SPIN_VALUE2 )->ShowWindow( SW_HIDE );

  00017	33 ff		 xor	 edi, edi
  00019	8b d9		 mov	 ebx, ecx
$LN5@UseValue2:

; 589  : 	}
; 590  : }

  0001b	68 d7 17 00 00	 push	 6103			; 000017d7H
  00020	89 7d 08	 mov	 DWORD PTR $T1[ebp], edi
  00023	e8 00 00 00 00	 call	 ?GetDlgItem@CWnd@@QBEPAV1@H@Z ; CWnd::GetDlgItem
  00028	57		 push	 edi
  00029	8b c8		 mov	 ecx, eax
  0002b	e8 00 00 00 00	 call	 ?ShowWindow@CWnd@@QAEHH@Z ; CWnd::ShowWindow
  00030	68 d1 17 00 00	 push	 6097			; 000017d1H
  00035	8b cb		 mov	 ecx, ebx
  00037	e8 00 00 00 00	 call	 ?GetDlgItem@CWnd@@QBEPAV1@H@Z ; CWnd::GetDlgItem
  0003c	57		 push	 edi
  0003d	8b c8		 mov	 ecx, eax
  0003f	e8 00 00 00 00	 call	 ?ShowWindow@CWnd@@QAEHH@Z ; CWnd::ShowWindow
  00044	68 dc 17 00 00	 push	 6108			; 000017dcH
  00049	8b ce		 mov	 ecx, esi
  0004b	e8 00 00 00 00	 call	 ?GetDlgItem@CWnd@@QBEPAV1@H@Z ; CWnd::GetDlgItem
  00050	57		 push	 edi
  00051	8b c8		 mov	 ecx, eax
  00053	e8 00 00 00 00	 call	 ?ShowWindow@CWnd@@QAEHH@Z ; CWnd::ShowWindow
  00058	5f		 pop	 edi
  00059	5e		 pop	 esi
  0005a	5b		 pop	 ebx
  0005b	5d		 pop	 ebp
  0005c	c2 04 00	 ret	 4
?UseValue2@CSetting_Common_Type_A@@AAEXH@Z ENDP		; CSetting_Common_Type_A::UseValue2
_TEXT	ENDS
; Function compile flags: /Ogtp
; File D:\git\src\IBK\IBK_DRFN\ProjSrc\SrcChartEx\ChartAddIn\ChartEnvSetupDlgAddIn\ChartEnvSetupDlgAddIn\Setting_Common_Type_A.cpp
;	COMDAT ?UseValue1@CSetting_Common_Type_A@@AAEXH@Z
_TEXT	SEGMENT
$T1 = 8							; size = 4
_bUseValue1$ = 8					; size = 4
?UseValue1@CSetting_Common_Type_A@@AAEXH@Z PROC		; CSetting_Common_Type_A::UseValue1, COMDAT
; _this$ = ecx

; 552  : {

  00000	55		 push	 ebp
  00001	8b ec		 mov	 ebp, esp

; 553  : 	if( bUseValue1 == TRUE )

  00003	83 7d 08 01	 cmp	 DWORD PTR _bUseValue1$[ebp], 1
  00007	53		 push	 ebx
  00008	56		 push	 esi
  00009	57		 push	 edi
  0000a	8b f1		 mov	 esi, ecx
  0000c	75 09		 jne	 SHORT $LN2@UseValue1

; 554  : 	{
; 555  : 		GetDlgItem( IDC_STATIC_VALUE1 )->ShowWindow( SW_SHOW );
; 556  : 		GetDlgItem( IDC_EDIT_VALUE1 )->ShowWindow( SW_SHOW );
; 557  : 		GetDlgItem( IDC_SPIN_VALUE1 )->ShowWindow( SW_SHOW );

  0000e	bf 05 00 00 00	 mov	 edi, 5
  00013	8b de		 mov	 ebx, esi

; 558  : 	}

  00015	eb 04		 jmp	 SHORT $LN5@UseValue1
$LN2@UseValue1:

; 559  : 
; 560  : 	else
; 561  : 	{
; 562  : 		GetDlgItem( IDC_STATIC_VALUE1 )->ShowWindow( SW_HIDE );
; 563  : 		GetDlgItem( IDC_EDIT_VALUE1 )->ShowWindow( SW_HIDE );
; 564  : 		GetDlgItem( IDC_SPIN_VALUE1 )->ShowWindow( SW_HIDE );

  00017	33 ff		 xor	 edi, edi
  00019	8b d9		 mov	 ebx, ecx
$LN5@UseValue1:

; 565  : 	}
; 566  : }

  0001b	68 d6 17 00 00	 push	 6102			; 000017d6H
  00020	89 7d 08	 mov	 DWORD PTR $T1[ebp], edi
  00023	e8 00 00 00 00	 call	 ?GetDlgItem@CWnd@@QBEPAV1@H@Z ; CWnd::GetDlgItem
  00028	57		 push	 edi
  00029	8b c8		 mov	 ecx, eax
  0002b	e8 00 00 00 00	 call	 ?ShowWindow@CWnd@@QAEHH@Z ; CWnd::ShowWindow
  00030	68 d0 17 00 00	 push	 6096			; 000017d0H
  00035	8b cb		 mov	 ecx, ebx
  00037	e8 00 00 00 00	 call	 ?GetDlgItem@CWnd@@QBEPAV1@H@Z ; CWnd::GetDlgItem
  0003c	57		 push	 edi
  0003d	8b c8		 mov	 ecx, eax
  0003f	e8 00 00 00 00	 call	 ?ShowWindow@CWnd@@QAEHH@Z ; CWnd::ShowWindow
  00044	68 db 17 00 00	 push	 6107			; 000017dbH
  00049	8b ce		 mov	 ecx, esi
  0004b	e8 00 00 00 00	 call	 ?GetDlgItem@CWnd@@QBEPAV1@H@Z ; CWnd::GetDlgItem
  00050	57		 push	 edi
  00051	8b c8		 mov	 ecx, eax
  00053	e8 00 00 00 00	 call	 ?ShowWindow@CWnd@@QAEHH@Z ; CWnd::ShowWindow
  00058	5f		 pop	 edi
  00059	5e		 pop	 esi
  0005a	5b		 pop	 ebx
  0005b	5d		 pop	 ebp
  0005c	c2 04 00	 ret	 4
?UseValue1@CSetting_Common_Type_A@@AAEXH@Z ENDP		; CSetting_Common_Type_A::UseValue1
_TEXT	ENDS
; Function compile flags: /Ogtp
; File D:\git\src\IBK\IBK_DRFN\ProjSrc\SrcChartEx\ChartAddIn\ChartEnvSetupDlgAddIn\ChartEnvSetupDlgAddIn\Setting_Common_Type_A.cpp
; File D:\git\src\IBK\IBK_DRFN\ProjSrc\SrcChartEx\ChartAddIn\ChartEnvSetupDlgAddIn\Include_AddIn_135914\I135914\_IString.h
; File D:\git\src\IBK\IBK_DRFN\ProjSrc\SrcChartEx\ChartAddIn\ChartEnvSetupDlgAddIn\ChartEnvSetupDlgAddIn\Setting_Common_Type_A.cpp
; File D:\git\src\IBK\IBK_DRFN\ProjSrc\SrcChartEx\ChartAddIn\ChartEnvSetupDlgAddIn\Include_AddIn_135914\I135914\_IString.h
; File D:\git\src\IBK\IBK_DRFN\ProjSrc\SrcChartEx\ChartAddIn\ChartEnvSetupDlgAddIn\ChartEnvSetupDlgAddIn\Setting_Common_Type_A.cpp
; File D:\git\src\IBK\IBK_DRFN\ProjSrc\SrcChartEx\ChartAddIn\ChartEnvSetupDlgAddIn\Include_AddIn_135914\I135914\_IString.h
; File D:\git\src\IBK\IBK_DRFN\ProjSrc\SrcChartEx\ChartAddIn\ChartEnvSetupDlgAddIn\ChartEnvSetupDlgAddIn\Setting_Common_Type_A.cpp
; File D:\git\src\IBK\IBK_DRFN\ProjSrc\SrcChartEx\ChartAddIn\ChartEnvSetupDlgAddIn\Include_AddIn_135914\I135914\_IString.h
; File D:\git\src\IBK\IBK_DRFN\ProjSrc\SrcChartEx\ChartAddIn\ChartEnvSetupDlgAddIn\ChartEnvSetupDlgAddIn\Setting_Common_Type_A.cpp
; File D:\git\src\IBK\IBK_DRFN\ProjSrc\SrcChartEx\ChartAddIn\ChartEnvSetupDlgAddIn\Include_AddIn_135914\I135914\_IString.h
; File D:\git\src\IBK\IBK_DRFN\ProjSrc\SrcChartEx\ChartAddIn\ChartEnvSetupDlgAddIn\ChartEnvSetupDlgAddIn\Setting_Common_Type_A.cpp
; File D:\git\src\IBK\IBK_DRFN\ProjSrc\SrcChartEx\ChartAddIn\ChartEnvSetupDlgAddIn\Include_AddIn_135914\I135914\_IString.h
; File D:\git\src\IBK\IBK_DRFN\ProjSrc\SrcChartEx\ChartAddIn\ChartEnvSetupDlgAddIn\ChartEnvSetupDlgAddIn\Setting_Common_Type_A.cpp
;	COMDAT ?UseValueGroup@CSetting_Common_Type_A@@AAEXH@Z
_TEXT	SEGMENT
_szPacketName$2 = -36					; size = 8
_szGroupName$ = -28					; size = 8
_szIndicatorName$ = -20					; size = 8
__$EHRec$ = -12						; size = 12
_strPacketName$3 = 8					; size = 4
_bUseValue$ = 8						; size = 4
$T4 = 11						; size = 1
?UseValueGroup@CSetting_Common_Type_A@@AAEXH@Z PROC	; CSetting_Common_Type_A::UseValueGroup, COMDAT
; _this$ = ecx

; 504  : {

  00000	55		 push	 ebp
  00001	8b ec		 mov	 ebp, esp
  00003	6a ff		 push	 -1
  00005	68 00 00 00 00	 push	 __ehhandler$?UseValueGroup@CSetting_Common_Type_A@@AAEXH@Z
  0000a	64 a1 00 00 00
	00		 mov	 eax, DWORD PTR fs:0
  00010	50		 push	 eax
  00011	83 ec 18	 sub	 esp, 24			; 00000018H
  00014	53		 push	 ebx
  00015	56		 push	 esi
  00016	57		 push	 edi
  00017	a1 00 00 00 00	 mov	 eax, DWORD PTR ___security_cookie
  0001c	33 c5		 xor	 eax, ebp
  0001e	50		 push	 eax
  0001f	8d 45 f4	 lea	 eax, DWORD PTR __$EHRec$[ebp]
  00022	64 a3 00 00 00
	00		 mov	 DWORD PTR fs:0, eax
  00028	8b f9		 mov	 edi, ecx

; 505  : 	IDoubleList *pIDblCnd = m_pIGraphInfo->GetCommonCalculateConditionList();

  0002a	8b 8f c4 00 00
	00		 mov	 ecx, DWORD PTR [edi+196]
  00030	8b 01		 mov	 eax, DWORD PTR [ecx]
  00032	ff 50 10	 call	 DWORD PTR [eax+16]
  00035	8b d8		 mov	 ebx, eax

; 506  : 	if( !pIDblCnd) return;

  00037	85 db		 test	 ebx, ebx
  00039	0f 84 d1 01 00
	00		 je	 $LN48@UseValueGr

; 507  : 	
; 508  : 	int nValueCount = pIDblCnd->GetCount();

  0003f	8b 13		 mov	 edx, DWORD PTR [ebx]
  00041	8b cb		 mov	 ecx, ebx
  00043	ff 52 10	 call	 DWORD PTR [edx+16]

; 509  : 	pIDblCnd->Release();

  00046	8b 0b		 mov	 ecx, DWORD PTR [ebx]
  00048	8b f0		 mov	 esi, eax
  0004a	53		 push	 ebx
  0004b	ff 51 08	 call	 DWORD PTR [ecx+8]

; 510  : 
; 511  : 	switch( nValueCount)

  0004e	8d 46 ff	 lea	 eax, DWORD PTR [esi-1]
  00051	83 f8 04	 cmp	 eax, 4
  00054	77 32		 ja	 SHORT $LN2@UseValueGr
  00056	8b 75 08	 mov	 esi, DWORD PTR _bUseValue$[ebp]
  00059	ff 24 85 00 00
	00 00		 jmp	 DWORD PTR $LN51@UseValueGr[eax*4]
$LN5@UseValueGr:

; 512  : 	{
; 513  : 		case 5 :	UseValue5(bUseValue);

  00060	56		 push	 esi
  00061	8b cf		 mov	 ecx, edi
  00063	e8 00 00 00 00	 call	 ?UseValue5@CSetting_Common_Type_A@@AAEXH@Z ; CSetting_Common_Type_A::UseValue5
$LN6@UseValueGr:

; 514  : 		case 4 :	UseValue4(bUseValue);

  00068	56		 push	 esi
  00069	8b cf		 mov	 ecx, edi
  0006b	e8 00 00 00 00	 call	 ?UseValue4@CSetting_Common_Type_A@@AAEXH@Z ; CSetting_Common_Type_A::UseValue4
$LN7@UseValueGr:

; 515  : 		case 3 :	UseValue3(bUseValue);

  00070	56		 push	 esi
  00071	8b cf		 mov	 ecx, edi
  00073	e8 00 00 00 00	 call	 ?UseValue3@CSetting_Common_Type_A@@AAEXH@Z ; CSetting_Common_Type_A::UseValue3
$LN8@UseValueGr:

; 516  : 		case 2 :	UseValue2(bUseValue);

  00078	56		 push	 esi
  00079	8b cf		 mov	 ecx, edi
  0007b	e8 00 00 00 00	 call	 ?UseValue2@CSetting_Common_Type_A@@AAEXH@Z ; CSetting_Common_Type_A::UseValue2
$LN9@UseValueGr:

; 517  : 		case 1 :	UseValue1(bUseValue);

  00080	56		 push	 esi
  00081	8b cf		 mov	 ecx, edi
  00083	e8 00 00 00 00	 call	 ?UseValue1@CSetting_Common_Type_A@@AAEXH@Z ; CSetting_Common_Type_A::UseValue1
$LN2@UseValueGr:

; 521  : 	ILPCSTR szGroupName = m_pIGraphInfo->GetIndicatorGroupNameString();

  00088	8b 8f c4 00 00
	00		 mov	 ecx, DWORD PTR [edi+196]
  0008e	8b 01		 mov	 eax, DWORD PTR [ecx]
  00090	ff 90 a8 00 00
	00		 call	 DWORD PTR [eax+168]
; File D:\git\src\IBK\IBK_DRFN\ProjSrc\SrcChartEx\ChartAddIn\ChartEnvSetupDlgAddIn\Include_AddIn_135914\I135914\_IString.h

; 39   : 		m_pIStrData = p_pIString;	// Do not AddRef(). Because It must be Return Value.

  00096	8b f0		 mov	 esi, eax
  00098	89 75 e8	 mov	 DWORD PTR _szGroupName$[ebp+4], esi

; 40   : 		if( m_pIStrData) m_szData = m_pIStrData->GetData();

  0009b	85 f6		 test	 esi, esi
  0009d	74 0b		 je	 SHORT $LN19@UseValueGr
  0009f	8b 16		 mov	 edx, DWORD PTR [esi]
  000a1	8b ce		 mov	 ecx, esi
  000a3	ff 52 10	 call	 DWORD PTR [edx+16]
  000a6	8b d8		 mov	 ebx, eax
  000a8	eb 02		 jmp	 SHORT $LN53@UseValueGr
$LN19@UseValueGr:

; 41   : 		else m_szData = NULL;

  000aa	33 db		 xor	 ebx, ebx
$LN53@UseValueGr:
; File D:\git\src\IBK\IBK_DRFN\ProjSrc\SrcChartEx\ChartAddIn\ChartEnvSetupDlgAddIn\ChartEnvSetupDlgAddIn\Setting_Common_Type_A.cpp

; 521  : 	ILPCSTR szGroupName = m_pIGraphInfo->GetIndicatorGroupNameString();

  000ac	89 5d e4	 mov	 DWORD PTR _szGroupName$[ebp], ebx

; 522  : 	ILPCSTR szIndicatorName = m_pIGraphInfo->GetIndicatorNameString();

  000af	8b 8f c4 00 00
	00		 mov	 ecx, DWORD PTR [edi+196]
  000b5	c7 45 fc 00 00
	00 00		 mov	 DWORD PTR __$EHRec$[ebp+8], 0
  000bc	8b 01		 mov	 eax, DWORD PTR [ecx]
  000be	ff 90 a4 00 00
	00		 call	 DWORD PTR [eax+164]
; File D:\git\src\IBK\IBK_DRFN\ProjSrc\SrcChartEx\ChartAddIn\ChartEnvSetupDlgAddIn\Include_AddIn_135914\I135914\_IString.h

; 39   : 		m_pIStrData = p_pIString;	// Do not AddRef(). Because It must be Return Value.

  000c4	89 45 f0	 mov	 DWORD PTR _szIndicatorName$[ebp+4], eax

; 40   : 		if( m_pIStrData) m_szData = m_pIStrData->GetData();

  000c7	85 c0		 test	 eax, eax
  000c9	74 0b		 je	 SHORT $LN23@UseValueGr
  000cb	8b 10		 mov	 edx, DWORD PTR [eax]
  000cd	8b c8		 mov	 ecx, eax
  000cf	ff 52 10	 call	 DWORD PTR [edx+16]
  000d2	8b d0		 mov	 edx, eax
  000d4	eb 02		 jmp	 SHORT $LN54@UseValueGr
$LN23@UseValueGr:

; 41   : 		else m_szData = NULL;

  000d6	33 d2		 xor	 edx, edx
$LN54@UseValueGr:
; File D:\git\src\IBK\IBK_DRFN\ProjSrc\SrcChartEx\ChartAddIn\ChartEnvSetupDlgAddIn\ChartEnvSetupDlgAddIn\Setting_Common_Type_A.cpp

; 522  : 	ILPCSTR szIndicatorName = m_pIGraphInfo->GetIndicatorNameString();

  000d8	89 55 ec	 mov	 DWORD PTR _szIndicatorName$[ebp], edx
  000db	c6 45 fc 01	 mov	 BYTE PTR __$EHRec$[ebp+8], 1
; File D:\git\src\IBK\IBK_DRFN\ProjSrc\SrcChartEx\ChartAddIn\ChartEnvSetupDlgAddIn\Include_AddIn_135914\I135914\_IString.h

; 57   : 		if( !m_szData) return TRUE;

  000df	85 d2		 test	 edx, edx
  000e1	0f 84 8d 00 00
	00		 je	 $LN12@UseValueGr
; File D:\git\src\IBK\IBK_DRFN\ProjSrc\SrcChartEx\ChartAddIn\ChartEnvSetupDlgAddIn\ChartEnvSetupDlgAddIn\Setting_Common_Type_A.cpp

; 523  : 	if( szIndicatorName.IsEmpty() || m_pIChartOCX->IsTRIndicator( szGroupName, szIndicatorName))	m_bUseMultiplePriceData = TRUE;

  000e7	80 3a 00	 cmp	 BYTE PTR [edx], 0
  000ea	0f 84 84 00 00
	00		 je	 $LN12@UseValueGr
  000f0	8b 8f b0 00 00
	00		 mov	 ecx, DWORD PTR [edi+176]
  000f6	52		 push	 edx
  000f7	53		 push	 ebx
  000f8	8b 01		 mov	 eax, DWORD PTR [ecx]
  000fa	ff 90 d0 00 00
	00		 call	 DWORD PTR [eax+208]
  00100	85 c0		 test	 eax, eax
  00102	75 70		 jne	 SHORT $LN12@UseValueGr

; 526  : 		ILPCSTR szPacketName = m_pIGraphInfo->GetPacketNameString();

  00104	8b 8f c4 00 00
	00		 mov	 ecx, DWORD PTR [edi+196]
  0010a	8b 01		 mov	 eax, DWORD PTR [ecx]
  0010c	ff 50 20	 call	 DWORD PTR [eax+32]
; File D:\git\src\IBK\IBK_DRFN\ProjSrc\SrcChartEx\ChartAddIn\ChartEnvSetupDlgAddIn\Include_AddIn_135914\I135914\_IString.h

; 39   : 		m_pIStrData = p_pIString;	// Do not AddRef(). Because It must be Return Value.

  0010f	8b d8		 mov	 ebx, eax
  00111	89 5d e0	 mov	 DWORD PTR _szPacketName$2[ebp+4], ebx

; 40   : 		if( m_pIStrData) m_szData = m_pIStrData->GetData();

  00114	85 db		 test	 ebx, ebx
  00116	74 09		 je	 SHORT $LN30@UseValueGr
  00118	8b 13		 mov	 edx, DWORD PTR [ebx]
  0011a	8b cb		 mov	 ecx, ebx
  0011c	ff 52 10	 call	 DWORD PTR [edx+16]
  0011f	eb 02		 jmp	 SHORT $LN55@UseValueGr
$LN30@UseValueGr:

; 41   : 		else m_szData = NULL;

  00121	33 c0		 xor	 eax, eax
$LN55@UseValueGr:
; File D:\git\src\IBK\IBK_DRFN\ProjSrc\SrcChartEx\ChartAddIn\ChartEnvSetupDlgAddIn\ChartEnvSetupDlgAddIn\Setting_Common_Type_A.cpp

; 526  : 		ILPCSTR szPacketName = m_pIGraphInfo->GetPacketNameString();

  00123	89 45 dc	 mov	 DWORD PTR _szPacketName$2[ebp], eax

; 527  : 		CString strPacketName( szPacketName);

  00126	50		 push	 eax
  00127	8d 4d 08	 lea	 ecx, DWORD PTR _strPacketName$3[ebp]
  0012a	c6 45 fc 02	 mov	 BYTE PTR __$EHRec$[ebp+8], 2
  0012e	ff 15 00 00 00
	00		 call	 DWORD PTR __imp_??0?$CStringT@DV?$StrTraitMFC_DLL@DV?$ChTraitsCRT@D@ATL@@@@@ATL@@QAE@PBD@Z

; 528  : 		m_bUseMultiplePriceData = ( 1 < strPacketName.Replace( ',', ' '));

  00134	6a 20		 push	 32			; 00000020H
  00136	6a 2c		 push	 44			; 0000002cH
  00138	8d 4d 08	 lea	 ecx, DWORD PTR _strPacketName$3[ebp]
  0013b	c6 45 fc 03	 mov	 BYTE PTR __$EHRec$[ebp+8], 3
  0013f	ff 15 00 00 00
	00		 call	 DWORD PTR __imp_?Replace@?$CStringT@DV?$StrTraitMFC_DLL@DV?$ChTraitsCRT@D@ATL@@@@@ATL@@QAEHDD@Z
  00145	83 f8 01	 cmp	 eax, 1

; 529  : 	}

  00148	8d 4d 08	 lea	 ecx, DWORD PTR _strPacketName$3[ebp]
  0014b	0f 9f c0	 setg	 al
  0014e	88 87 c8 00 00
	00		 mov	 BYTE PTR [edi+200], al
  00154	ff 15 00 00 00
	00		 call	 DWORD PTR __imp_??1?$CStringT@DV?$StrTraitMFC_DLL@DV?$ChTraitsCRT@D@ATL@@@@@ATL@@QAE@XZ
; File D:\git\src\IBK\IBK_DRFN\ProjSrc\SrcChartEx\ChartAddIn\ChartEnvSetupDlgAddIn\Include_AddIn_135914\I135914\_IString.h

; 44   : 	{

  0015a	c6 45 fc 04	 mov	 BYTE PTR __$EHRec$[ebp+8], 4

; 45   : 		if( m_pIStrData)

  0015e	85 db		 test	 ebx, ebx
  00160	74 06		 je	 SHORT $LN34@UseValueGr

; 46   : 		{
; 47   : 			m_pIStrData->Release();

  00162	8b 03		 mov	 eax, DWORD PTR [ebx]
  00164	53		 push	 ebx
  00165	ff 50 08	 call	 DWORD PTR [eax+8]
$LN34@UseValueGr:

; 48   : 			m_pIStrData = NULL;
; 49   : 			m_szData = NULL;
; 50   : 		}
; 51   : 	}

  00168	8a 87 c8 00 00
	00		 mov	 al, BYTE PTR [edi+200]
  0016e	c6 45 fc 01	 mov	 BYTE PTR __$EHRec$[ebp+8], 1
  00172	eb 09		 jmp	 SHORT $LN56@UseValueGr
$LN12@UseValueGr:
; File D:\git\src\IBK\IBK_DRFN\ProjSrc\SrcChartEx\ChartAddIn\ChartEnvSetupDlgAddIn\ChartEnvSetupDlgAddIn\Setting_Common_Type_A.cpp

; 523  : 	if( szIndicatorName.IsEmpty() || m_pIChartOCX->IsTRIndicator( szGroupName, szIndicatorName))	m_bUseMultiplePriceData = TRUE;

  00174	c6 87 c8 00 00
	00 01		 mov	 BYTE PTR [edi+200], 1
  0017b	b0 01		 mov	 al, 1
$LN56@UseValueGr:

; 537  : 	GetDlgItem( IDC_STATIC_DATA_TITLE )->ShowWindow( ( bUsePacket ? FALSE : TRUE ) );

  0017d	33 db		 xor	 ebx, ebx
  0017f	88 45 0b	 mov	 BYTE PTR $T4[ebp], al
  00182	84 c0		 test	 al, al
  00184	8b cf		 mov	 ecx, edi
  00186	0f 94 c3	 sete	 bl
  00189	53		 push	 ebx
  0018a	68 a9 17 00 00	 push	 6057			; 000017a9H
  0018f	e8 00 00 00 00	 call	 ?GetDlgItem@CWnd@@QBEPAV1@H@Z ; CWnd::GetDlgItem
  00194	8b c8		 mov	 ecx, eax
  00196	e8 00 00 00 00	 call	 ?ShowWindow@CWnd@@QAEHH@Z ; CWnd::ShowWindow

; 538  : 	GetDlgItem( IDC_CMB_DATA )->ShowWindow( ( bUsePacket ? FALSE : TRUE ) );

  0019b	53		 push	 ebx
  0019c	68 ab 17 00 00	 push	 6059			; 000017abH
  001a1	8b cf		 mov	 ecx, edi
  001a3	e8 00 00 00 00	 call	 ?GetDlgItem@CWnd@@QBEPAV1@H@Z ; CWnd::GetDlgItem
  001a8	8b c8		 mov	 ecx, eax
  001aa	e8 00 00 00 00	 call	 ?ShowWindow@CWnd@@QAEHH@Z ; CWnd::ShowWindow

; 539  : 
; 540  : 	// Singbar Graph    - ojtaso (20071121)
; 541  : 	UseCompColorCtrl(bUsePacket ? FALSE : TRUE);

  001af	80 7d 0b 00	 cmp	 BYTE PTR $T4[ebp], 0

; 1099 : 	if( bUseCompColorCtrl == TRUE )

  001b3	8b cf		 mov	 ecx, edi
  001b5	75 17		 jne	 SHORT $LN40@UseValueGr

; 1100 : 	{
; 1101 : 		GetDlgItem( IDC_STATIC_COMPCOLOR )->ShowWindow( SW_SHOW );

  001b7	6a 05		 push	 5
  001b9	68 62 1f 00 00	 push	 8034			; 00001f62H
  001be	e8 00 00 00 00	 call	 ?GetDlgItem@CWnd@@QBEPAV1@H@Z ; CWnd::GetDlgItem
  001c3	8b c8		 mov	 ecx, eax
  001c5	e8 00 00 00 00	 call	 ?ShowWindow@CWnd@@QAEHH@Z ; CWnd::ShowWindow

; 1102 : 		m_cmbCompColor.ShowWindow( SW_SHOW );

  001ca	6a 05		 push	 5

; 1103 : 	}

  001cc	eb 15		 jmp	 SHORT $LN57@UseValueGr
$LN40@UseValueGr:

; 1104 : 	else
; 1105 : 	{
; 1106 : 		GetDlgItem( IDC_STATIC_COMPCOLOR )->ShowWindow( SW_HIDE );

  001ce	6a 00		 push	 0
  001d0	68 62 1f 00 00	 push	 8034			; 00001f62H
  001d5	e8 00 00 00 00	 call	 ?GetDlgItem@CWnd@@QBEPAV1@H@Z ; CWnd::GetDlgItem
  001da	8b c8		 mov	 ecx, eax
  001dc	e8 00 00 00 00	 call	 ?ShowWindow@CWnd@@QAEHH@Z ; CWnd::ShowWindow

; 1107 : 		m_cmbCompColor.ShowWindow( SW_HIDE );

  001e1	6a 00		 push	 0
$LN57@UseValueGr:
; File D:\git\src\IBK\IBK_DRFN\ProjSrc\SrcChartEx\ChartAddIn\ChartEnvSetupDlgAddIn\Include_AddIn_135914\I135914\_IString.h

; 44   : 	{

  001e3	8d 8f f8 00 00
	00		 lea	 ecx, DWORD PTR [edi+248]
  001e9	e8 00 00 00 00	 call	 ?ShowWindow@CWnd@@QAEHH@Z ; CWnd::ShowWindow

; 45   : 		if( m_pIStrData)

  001ee	8b 4d f0	 mov	 ecx, DWORD PTR _szIndicatorName$[ebp+4]
  001f1	c6 45 fc 05	 mov	 BYTE PTR __$EHRec$[ebp+8], 5
  001f5	85 c9		 test	 ecx, ecx
  001f7	74 06		 je	 SHORT $LN44@UseValueGr

; 46   : 		{
; 47   : 			m_pIStrData->Release();

  001f9	8b 01		 mov	 eax, DWORD PTR [ecx]
  001fb	51		 push	 ecx
  001fc	ff 50 08	 call	 DWORD PTR [eax+8]
$LN44@UseValueGr:

; 44   : 	{

  001ff	c7 45 fc 06 00
	00 00		 mov	 DWORD PTR __$EHRec$[ebp+8], 6

; 45   : 		if( m_pIStrData)

  00206	85 f6		 test	 esi, esi
  00208	74 06		 je	 SHORT $LN48@UseValueGr

; 46   : 		{
; 47   : 			m_pIStrData->Release();

  0020a	8b 06		 mov	 eax, DWORD PTR [esi]
  0020c	56		 push	 esi
  0020d	ff 50 08	 call	 DWORD PTR [eax+8]
$LN48@UseValueGr:
; File D:\git\src\IBK\IBK_DRFN\ProjSrc\SrcChartEx\ChartAddIn\ChartEnvSetupDlgAddIn\ChartEnvSetupDlgAddIn\Setting_Common_Type_A.cpp

; 532  : }

  00210	8b 4d f4	 mov	 ecx, DWORD PTR __$EHRec$[ebp]
  00213	64 89 0d 00 00
	00 00		 mov	 DWORD PTR fs:0, ecx
  0021a	59		 pop	 ecx
  0021b	5f		 pop	 edi
  0021c	5e		 pop	 esi
  0021d	5b		 pop	 ebx
  0021e	8b e5		 mov	 esp, ebp
  00220	5d		 pop	 ebp
  00221	c2 04 00	 ret	 4
$LN51@UseValueGr:
  00224	00 00 00 00	 DD	 $LN9@UseValueGr
  00228	00 00 00 00	 DD	 $LN8@UseValueGr
  0022c	00 00 00 00	 DD	 $LN7@UseValueGr
  00230	00 00 00 00	 DD	 $LN6@UseValueGr
  00234	00 00 00 00	 DD	 $LN5@UseValueGr
_TEXT	ENDS
;	COMDAT text$x
text$x	SEGMENT
__unwindfunclet$?UseValueGroup@CSetting_Common_Type_A@@AAEXH@Z$0:
  00000	8d 4d e4	 lea	 ecx, DWORD PTR _szGroupName$[ebp]
  00003	e9 00 00 00 00	 jmp	 ??1ILPCSTR135914@@QAE@XZ ; ILPCSTR135914::~ILPCSTR135914
__unwindfunclet$?UseValueGroup@CSetting_Common_Type_A@@AAEXH@Z$1:
  00008	8d 4d ec	 lea	 ecx, DWORD PTR _szIndicatorName$[ebp]
  0000b	e9 00 00 00 00	 jmp	 ??1ILPCSTR135914@@QAE@XZ ; ILPCSTR135914::~ILPCSTR135914
__unwindfunclet$?UseValueGroup@CSetting_Common_Type_A@@AAEXH@Z$2:
  00010	8d 4d dc	 lea	 ecx, DWORD PTR _szPacketName$2[ebp]
  00013	e9 00 00 00 00	 jmp	 ??1ILPCSTR135914@@QAE@XZ ; ILPCSTR135914::~ILPCSTR135914
__unwindfunclet$?UseValueGroup@CSetting_Common_Type_A@@AAEXH@Z$3:
  00018	8d 4d 08	 lea	 ecx, DWORD PTR _strPacketName$3[ebp]
  0001b	ff 25 00 00 00
	00		 jmp	 DWORD PTR __imp_??1?$CStringT@DV?$StrTraitMFC_DLL@DV?$ChTraitsCRT@D@ATL@@@@@ATL@@QAE@XZ
  00021	cc		 int	 3
  00022	cc		 int	 3
  00023	cc		 int	 3
  00024	cc		 int	 3
  00025	cc		 int	 3
__ehhandler$?UseValueGroup@CSetting_Common_Type_A@@AAEXH@Z:
  00026	90		 npad	 1
  00027	90		 npad	 1
  00028	8b 54 24 08	 mov	 edx, DWORD PTR [esp+8]
  0002c	8d 42 0c	 lea	 eax, DWORD PTR [edx+12]
  0002f	8b 4a d8	 mov	 ecx, DWORD PTR [edx-40]
  00032	33 c8		 xor	 ecx, eax
  00034	e8 00 00 00 00	 call	 @__security_check_cookie@4
  00039	b8 00 00 00 00	 mov	 eax, OFFSET __ehfuncinfo$?UseValueGroup@CSetting_Common_Type_A@@AAEXH@Z
  0003e	e9 00 00 00 00	 jmp	 ___CxxFrameHandler3
text$x	ENDS
?UseValueGroup@CSetting_Common_Type_A@@AAEXH@Z ENDP	; CSetting_Common_Type_A::UseValueGroup
; Function compile flags: /Ogtp
; File D:\git\src\IBK\IBK_DRFN\ProjSrc\SrcChartEx\ChartAddIn\ChartEnvSetupDlgAddIn\ChartEnvSetupDlgAddIn\Setting_Common_Type_A.cpp
;	COMDAT ?DoDataExchange@CSetting_Common_Type_A@@MAEXPAVCDataExchange@@@Z
_TEXT	SEGMENT
_pDX$ = 8						; size = 4
?DoDataExchange@CSetting_Common_Type_A@@MAEXPAVCDataExchange@@@Z PROC ; CSetting_Common_Type_A::DoDataExchange, COMDAT
; _this$ = ecx

; 51   : {

  00000	55		 push	 ebp
  00001	8b ec		 mov	 ebp, esp
  00003	56		 push	 esi

; 52   : 	CDialog::DoDataExchange(pDX);
; 53   : 	//{{AFX_DATA_MAP(CSetting_Common_Type_A)
; 54   : 	DDX_Control(pDX, IDC_CMB_COMPCOLOR, m_cmbCompColor);

  00004	8b 75 08	 mov	 esi, DWORD PTR _pDX$[ebp]
  00007	57		 push	 edi
  00008	8b f9		 mov	 edi, ecx
  0000a	8d 87 f8 00 00
	00		 lea	 eax, DWORD PTR [edi+248]
  00010	50		 push	 eax
  00011	68 61 1f 00 00	 push	 8033			; 00001f61H
  00016	56		 push	 esi
  00017	e8 00 00 00 00	 call	 ?DDX_Control@@YGXPAVCDataExchange@@HAAVCWnd@@@Z ; DDX_Control

; 55   : 	DDX_Control(pDX, IDC_CHK_FILL_COLOR, m_btnFillColor);

  0001c	8d 87 78 01 00
	00		 lea	 eax, DWORD PTR [edi+376]
  00022	50		 push	 eax
  00023	68 0b 18 00 00	 push	 6155			; 0000180bH
  00028	56		 push	 esi
  00029	e8 00 00 00 00	 call	 ?DDX_Control@@YGXPAVCDataExchange@@HAAVCWnd@@@Z ; DDX_Control

; 56   : 	DDX_Control(pDX, IDC_BTN_DOWN1, m_btnDown1Color);

  0002e	8d 87 f8 01 00
	00		 lea	 eax, DWORD PTR [edi+504]
  00034	50		 push	 eax
  00035	68 00 18 00 00	 push	 6144			; 00001800H
  0003a	56		 push	 esi
  0003b	e8 00 00 00 00	 call	 ?DDX_Control@@YGXPAVCDataExchange@@HAAVCWnd@@@Z ; DDX_Control

; 57   : 	DDX_Control(pDX, IDC_BTN_UP1, m_btnUp1Color);

  00040	8d 87 80 02 00
	00		 lea	 eax, DWORD PTR [edi+640]
  00046	50		 push	 eax
  00047	68 ff 17 00 00	 push	 6143			; 000017ffH
  0004c	56		 push	 esi
  0004d	e8 00 00 00 00	 call	 ?DDX_Control@@YGXPAVCDataExchange@@HAAVCWnd@@@Z ; DDX_Control

; 58   : 	DDX_Control(pDX, IDC_BTN_UP_COLOR, m_btnUpColor);

  00052	8d 87 08 03 00
	00		 lea	 eax, DWORD PTR [edi+776]
  00058	50		 push	 eax
  00059	68 fc 17 00 00	 push	 6140			; 000017fcH
  0005e	56		 push	 esi
  0005f	e8 00 00 00 00	 call	 ?DDX_Control@@YGXPAVCDataExchange@@HAAVCWnd@@@Z ; DDX_Control

; 59   : 	DDX_Control(pDX, IDC_BTN_STEADY_COLOR, m_btnSteadyColor);

  00064	8d 87 90 03 00
	00		 lea	 eax, DWORD PTR [edi+912]
  0006a	50		 push	 eax
  0006b	68 fe 17 00 00	 push	 6142			; 000017feH
  00070	56		 push	 esi
  00071	e8 00 00 00 00	 call	 ?DDX_Control@@YGXPAVCDataExchange@@HAAVCWnd@@@Z ; DDX_Control

; 60   : 	DDX_Control(pDX, IDC_BTN_DOWN_COLOR, m_btnDownColor);

  00076	8d 87 18 04 00
	00		 lea	 eax, DWORD PTR [edi+1048]
  0007c	50		 push	 eax
  0007d	68 fd 17 00 00	 push	 6141			; 000017fdH
  00082	56		 push	 esi
  00083	e8 00 00 00 00	 call	 ?DDX_Control@@YGXPAVCDataExchange@@HAAVCWnd@@@Z ; DDX_Control

; 61   : 	DDX_Control(pDX, IDC_SPIN, m_Horizon_Spin);

  00088	8d 87 a0 04 00
	00		 lea	 eax, DWORD PTR [edi+1184]
  0008e	50		 push	 eax
  0008f	68 fa 03 00 00	 push	 1018			; 000003faH
  00094	56		 push	 esi
  00095	e8 00 00 00 00	 call	 ?DDX_Control@@YGXPAVCDataExchange@@HAAVCWnd@@@Z ; DDX_Control

; 62   : 	DDX_Control(pDX, IDC_SIGNAL, m_Signal_Bt);

  0009a	8d 87 20 05 00
	00		 lea	 eax, DWORD PTR [edi+1312]
  000a0	50		 push	 eax
  000a1	68 0f 04 00 00	 push	 1039			; 0000040fH
  000a6	56		 push	 esi
  000a7	e8 00 00 00 00	 call	 ?DDX_Control@@YGXPAVCDataExchange@@HAAVCWnd@@@Z ; DDX_Control

; 63   : 	DDX_Control(pDX, IDC_HORIZONTAL_LIST, m_HorizonLine_ListBox);

  000ac	8d 87 a0 05 00
	00		 lea	 eax, DWORD PTR [edi+1440]
  000b2	50		 push	 eax
  000b3	68 f4 03 00 00	 push	 1012			; 000003f4H
  000b8	56		 push	 esi
  000b9	e8 00 00 00 00	 call	 ?DDX_Control@@YGXPAVCDataExchange@@HAAVCWnd@@@Z ; DDX_Control

; 64   : 	DDX_Control(pDX, IDC_HORIZONTAL, m_Horizon_Edit);

  000be	8d 87 20 06 00
	00		 lea	 eax, DWORD PTR [edi+1568]
  000c4	50		 push	 eax
  000c5	68 e8 03 00 00	 push	 1000			; 000003e8H
  000ca	56		 push	 esi
  000cb	e8 00 00 00 00	 call	 ?DDX_Control@@YGXPAVCDataExchange@@HAAVCWnd@@@Z ; DDX_Control

; 65   : 	DDX_Control(pDX, IDC_COLOR_BUTTON, m_Color_Bt);

  000d0	8d 87 c8 06 00
	00		 lea	 eax, DWORD PTR [edi+1736]
  000d6	50		 push	 eax
  000d7	68 0e 04 00 00	 push	 1038			; 0000040eH
  000dc	56		 push	 esi
  000dd	e8 00 00 00 00	 call	 ?DDX_Control@@YGXPAVCDataExchange@@HAAVCWnd@@@Z ; DDX_Control

; 66   : 	DDX_Control(pDX, IDC_STATIC_VALUE5, m_stcValue5);

  000e2	8d 87 50 07 00
	00		 lea	 eax, DWORD PTR [edi+1872]
  000e8	50		 push	 eax
  000e9	68 da 17 00 00	 push	 6106			; 000017daH
  000ee	56		 push	 esi
  000ef	e8 00 00 00 00	 call	 ?DDX_Control@@YGXPAVCDataExchange@@HAAVCWnd@@@Z ; DDX_Control

; 67   : 	DDX_Control(pDX, IDC_STATIC_VALUE4, m_stcValue4);

  000f4	8d 87 d0 07 00
	00		 lea	 eax, DWORD PTR [edi+2000]
  000fa	50		 push	 eax
  000fb	68 d9 17 00 00	 push	 6105			; 000017d9H
  00100	56		 push	 esi
  00101	e8 00 00 00 00	 call	 ?DDX_Control@@YGXPAVCDataExchange@@HAAVCWnd@@@Z ; DDX_Control

; 68   : 	DDX_Control(pDX, IDC_STATIC_VALUE3, m_stcValue3);

  00106	8d 87 50 08 00
	00		 lea	 eax, DWORD PTR [edi+2128]
  0010c	50		 push	 eax
  0010d	68 d8 17 00 00	 push	 6104			; 000017d8H
  00112	56		 push	 esi
  00113	e8 00 00 00 00	 call	 ?DDX_Control@@YGXPAVCDataExchange@@HAAVCWnd@@@Z ; DDX_Control

; 69   : 	DDX_Control(pDX, IDC_STATIC_VALUE2, m_stcValue2);

  00118	8d 87 d0 08 00
	00		 lea	 eax, DWORD PTR [edi+2256]
  0011e	50		 push	 eax
  0011f	68 d7 17 00 00	 push	 6103			; 000017d7H
  00124	56		 push	 esi
  00125	e8 00 00 00 00	 call	 ?DDX_Control@@YGXPAVCDataExchange@@HAAVCWnd@@@Z ; DDX_Control

; 70   : 	DDX_Control(pDX, IDC_STATIC_VALUE1, m_stcValue1);

  0012a	8d 87 50 09 00
	00		 lea	 eax, DWORD PTR [edi+2384]
  00130	50		 push	 eax
  00131	68 d6 17 00 00	 push	 6102			; 000017d6H
  00136	56		 push	 esi
  00137	e8 00 00 00 00	 call	 ?DDX_Control@@YGXPAVCDataExchange@@HAAVCWnd@@@Z ; DDX_Control

; 71   : 	DDX_Control(pDX, IDC_SPIN_VALUE5, m_spnValue5);

  0013c	8d 87 d0 09 00
	00		 lea	 eax, DWORD PTR [edi+2512]
  00142	50		 push	 eax
  00143	68 df 17 00 00	 push	 6111			; 000017dfH
  00148	56		 push	 esi
  00149	e8 00 00 00 00	 call	 ?DDX_Control@@YGXPAVCDataExchange@@HAAVCWnd@@@Z ; DDX_Control

; 72   : 	DDX_Control(pDX, IDC_SPIN_VALUE4, m_spnValue4);

  0014e	8d 87 50 0a 00
	00		 lea	 eax, DWORD PTR [edi+2640]
  00154	50		 push	 eax
  00155	68 de 17 00 00	 push	 6110			; 000017deH
  0015a	56		 push	 esi
  0015b	e8 00 00 00 00	 call	 ?DDX_Control@@YGXPAVCDataExchange@@HAAVCWnd@@@Z ; DDX_Control

; 73   : 	DDX_Control(pDX, IDC_SPIN_VALUE3, m_spnValue3);

  00160	8d 87 d0 0a 00
	00		 lea	 eax, DWORD PTR [edi+2768]
  00166	50		 push	 eax
  00167	68 dd 17 00 00	 push	 6109			; 000017ddH
  0016c	56		 push	 esi
  0016d	e8 00 00 00 00	 call	 ?DDX_Control@@YGXPAVCDataExchange@@HAAVCWnd@@@Z ; DDX_Control

; 74   : 	DDX_Control(pDX, IDC_SPIN_VALUE2, m_spnValue2);

  00172	8d 87 50 0b 00
	00		 lea	 eax, DWORD PTR [edi+2896]
  00178	50		 push	 eax
  00179	68 dc 17 00 00	 push	 6108			; 000017dcH
  0017e	56		 push	 esi
  0017f	e8 00 00 00 00	 call	 ?DDX_Control@@YGXPAVCDataExchange@@HAAVCWnd@@@Z ; DDX_Control

; 75   : 	DDX_Control(pDX, IDC_SPIN_VALUE1, m_spnValue1);

  00184	8d 87 d0 0b 00
	00		 lea	 eax, DWORD PTR [edi+3024]
  0018a	50		 push	 eax
  0018b	68 db 17 00 00	 push	 6107			; 000017dbH
  00190	56		 push	 esi
  00191	e8 00 00 00 00	 call	 ?DDX_Control@@YGXPAVCDataExchange@@HAAVCWnd@@@Z ; DDX_Control

; 76   : 	DDX_Control(pDX, IDC_EDIT_VALUE5, m_edtValue5);

  00196	8d 87 50 0c 00
	00		 lea	 eax, DWORD PTR [edi+3152]
  0019c	50		 push	 eax
  0019d	68 d4 17 00 00	 push	 6100			; 000017d4H
  001a2	56		 push	 esi
  001a3	e8 00 00 00 00	 call	 ?DDX_Control@@YGXPAVCDataExchange@@HAAVCWnd@@@Z ; DDX_Control

; 77   : 	DDX_Control(pDX, IDC_EDIT_VALUE4, m_edtValue4);

  001a8	8d 87 f8 0c 00
	00		 lea	 eax, DWORD PTR [edi+3320]
  001ae	50		 push	 eax
  001af	68 d3 17 00 00	 push	 6099			; 000017d3H
  001b4	56		 push	 esi
  001b5	e8 00 00 00 00	 call	 ?DDX_Control@@YGXPAVCDataExchange@@HAAVCWnd@@@Z ; DDX_Control

; 78   : 	DDX_Control(pDX, IDC_EDIT_VALUE3, m_edtValue3);

  001ba	8d 87 a0 0d 00
	00		 lea	 eax, DWORD PTR [edi+3488]
  001c0	50		 push	 eax
  001c1	68 d2 17 00 00	 push	 6098			; 000017d2H
  001c6	56		 push	 esi
  001c7	e8 00 00 00 00	 call	 ?DDX_Control@@YGXPAVCDataExchange@@HAAVCWnd@@@Z ; DDX_Control

; 79   : 	DDX_Control(pDX, IDC_EDIT_VALUE2, m_edtValue2);

  001cc	8d 87 48 0e 00
	00		 lea	 eax, DWORD PTR [edi+3656]
  001d2	50		 push	 eax
  001d3	68 d1 17 00 00	 push	 6097			; 000017d1H
  001d8	56		 push	 esi
  001d9	e8 00 00 00 00	 call	 ?DDX_Control@@YGXPAVCDataExchange@@HAAVCWnd@@@Z ; DDX_Control

; 80   : 	DDX_Control(pDX, IDC_EDIT_VALUE1, m_edtValue1);

  001de	8d 87 f0 0e 00
	00		 lea	 eax, DWORD PTR [edi+3824]
  001e4	50		 push	 eax
  001e5	68 d0 17 00 00	 push	 6096			; 000017d0H
  001ea	56		 push	 esi
  001eb	e8 00 00 00 00	 call	 ?DDX_Control@@YGXPAVCDataExchange@@HAAVCWnd@@@Z ; DDX_Control

; 81   : 	DDX_Control(pDX, IDC_STATIC_DATA_TITLE, m_stcDataTitle);

  001f0	8d 87 98 0f 00
	00		 lea	 eax, DWORD PTR [edi+3992]
  001f6	50		 push	 eax
  001f7	68 a9 17 00 00	 push	 6057			; 000017a9H
  001fc	56		 push	 esi
  001fd	e8 00 00 00 00	 call	 ?DDX_Control@@YGXPAVCDataExchange@@HAAVCWnd@@@Z ; DDX_Control

; 82   : 	DDX_Control(pDX, IDC_EDIT_COMPOSITION_TITLEDATA, m_edtCompositionTitleData);

  00202	8d 87 18 10 00
	00		 lea	 eax, DWORD PTR [edi+4120]
  00208	50		 push	 eax
  00209	68 cf 17 00 00	 push	 6095			; 000017cfH
  0020e	56		 push	 esi
  0020f	e8 00 00 00 00	 call	 ?DDX_Control@@YGXPAVCDataExchange@@HAAVCWnd@@@Z ; DDX_Control

; 83   : 	DDX_Control(pDX, IDC_CMB_THICKNESS, m_cmbThickness);

  00214	8d 87 98 10 00
	00		 lea	 eax, DWORD PTR [edi+4248]
  0021a	50		 push	 eax
  0021b	68 b6 17 00 00	 push	 6070			; 000017b6H
  00220	56		 push	 esi
  00221	e8 00 00 00 00	 call	 ?DDX_Control@@YGXPAVCDataExchange@@HAAVCWnd@@@Z ; DDX_Control

; 84   : 	DDX_Control(pDX, IDC_CMB_LINETYPE, m_cmbLineType);

  00226	8d 87 20 11 00
	00		 lea	 eax, DWORD PTR [edi+4384]
  0022c	50		 push	 eax
  0022d	68 b7 17 00 00	 push	 6071			; 000017b7H
  00232	56		 push	 esi
  00233	e8 00 00 00 00	 call	 ?DDX_Control@@YGXPAVCDataExchange@@HAAVCWnd@@@Z ; DDX_Control

; 85   : 	DDX_Control(pDX, IDC_CMB_DATA, m_cmbData);

  00238	8d 87 28 12 00
	00		 lea	 eax, DWORD PTR [edi+4648]
  0023e	50		 push	 eax
  0023f	68 ab 17 00 00	 push	 6059			; 000017abH
  00244	56		 push	 esi
  00245	e8 00 00 00 00	 call	 ?DDX_Control@@YGXPAVCDataExchange@@HAAVCWnd@@@Z ; DDX_Control

; 86   : 	DDX_Control(pDX, IDC_BTN_COMPOSITION_COLOR, m_btnComositionColor);

  0024a	8d 87 a8 12 00
	00		 lea	 eax, DWORD PTR [edi+4776]
  00250	50		 push	 eax
  00251	68 b5 17 00 00	 push	 6069			; 000017b5H
  00256	56		 push	 esi
  00257	e8 00 00 00 00	 call	 ?DDX_Control@@YGXPAVCDataExchange@@HAAVCWnd@@@Z ; DDX_Control

; 87   : 	DDX_Control(pDX, IDC_LIST_COMPOSITION, m_lstComposition);

  0025c	8d 87 30 13 00
	00		 lea	 eax, DWORD PTR [edi+4912]
  00262	50		 push	 eax
  00263	68 d5 17 00 00	 push	 6101			; 000017d5H
  00268	56		 push	 esi
  00269	e8 00 00 00 00	 call	 ?DDX_Control@@YGXPAVCDataExchange@@HAAVCWnd@@@Z ; DDX_Control

; 88   : 	DDX_Control(pDX, IDC_CMB_THICKNESS2, m_cmbThickness2);

  0026e	8d 87 b8 13 00
	00		 lea	 eax, DWORD PTR [edi+5048]
  00274	50		 push	 eax
  00275	68 b9 17 00 00	 push	 6073			; 000017b9H
  0027a	56		 push	 esi
  0027b	e8 00 00 00 00	 call	 ?DDX_Control@@YGXPAVCDataExchange@@HAAVCWnd@@@Z ; DDX_Control

; 89   : 	DDX_Control(pDX, IDC_CMB_LINETYPE2, m_cmbLineType2);

  00280	8d 87 40 14 00
	00		 lea	 eax, DWORD PTR [edi+5184]
  00286	50		 push	 eax
  00287	68 ba 17 00 00	 push	 6074			; 000017baH
  0028c	56		 push	 esi
  0028d	e8 00 00 00 00	 call	 ?DDX_Control@@YGXPAVCDataExchange@@HAAVCWnd@@@Z ; DDX_Control

; 90   : 	DDX_Text(pDX, IDC_HORIZONTAL, m_strHorizonValue);

  00292	8d 87 c8 14 00
	00		 lea	 eax, DWORD PTR [edi+5320]
  00298	50		 push	 eax
  00299	68 e8 03 00 00	 push	 1000			; 000003e8H
  0029e	56		 push	 esi
  0029f	e8 00 00 00 00	 call	 ?DDX_Text@@YGXPAVCDataExchange@@HAAV?$CStringT@DV?$StrTraitMFC_DLL@DV?$ChTraitsCRT@D@ATL@@@@@ATL@@@Z ; DDX_Text
  002a4	5f		 pop	 edi
  002a5	5e		 pop	 esi

; 91   : 	//}}AFX_DATA_MAP
; 92   : }

  002a6	5d		 pop	 ebp
  002a7	c2 04 00	 ret	 4
?DoDataExchange@CSetting_Common_Type_A@@MAEXPAVCDataExchange@@@Z ENDP ; CSetting_Common_Type_A::DoDataExchange
_TEXT	ENDS
; Function compile flags: /Ogtp
; File D:\git\src\IBK\IBK_DRFN\ProjSrc\SrcChartEx\ChartAddIn\ChartEnvSetupDlgAddIn\ChartEnvSetupDlgAddIn\Setting_Common_Type_A.cpp
; File D:\git\src\IBK\IBK_DRFN\ProjSrc\SrcChartEx\ChartAddIn\ChartEnvSetupDlgAddIn\ChartEnvSetupDlgAddIn\DlgEnvSetUpAll.h
; File D:\git\src\IBK\IBK_DRFN\ProjSrc\SrcChartEx\ChartAddIn\ChartEnvSetupDlgAddIn\ChartEnvSetupDlgAddIn\Setting_Common_Type_A.cpp
; File D:\git\src\IBK\IBK_DRFN\ProjSrc\SrcChartEx\ChartAddIn\ChartEnvSetupDlgAddIn\ChartEnvSetupDlgAddIn\GraphSetting.h
; File D:\git\src\IBK\IBK_DRFN\ProjSrc\SrcChartEx\ChartAddIn\ChartEnvSetupDlgAddIn\ChartEnvSetupDlgAddIn\Setting_Common_Type_A.cpp
; File D:\git\src\IBK\IBK_DRFN\ProjSrc\SrcChartEx\ChartAddIn\ChartEnvSetupDlgAddIn\ChartEnvSetupDlgAddIn\DlgEnvSetUpAll.h
; File D:\git\src\IBK\IBK_DRFN\ProjSrc\SrcChartEx\ChartAddIn\ChartEnvSetupDlgAddIn\ChartEnvSetupDlgAddIn\Setting_Common_Type_A.cpp
; File D:\git\src\IBK\IBK_DRFN\ProjSrc\SrcChartEx\ChartAddIn\ChartEnvSetupDlgAddIn\ChartEnvSetupDlgAddIn\GraphSetting.h
; File D:\git\src\IBK\IBK_DRFN\ProjSrc\SrcChartEx\ChartAddIn\ChartEnvSetupDlgAddIn\ChartEnvSetupDlgAddIn\Setting_Common_Type_A.cpp
;	COMDAT ?PreTranslateMessage@CSetting_Common_Type_A@@UAEHPAUtagMSG@@@Z
_TEXT	SEGMENT
_pMsg$ = 8						; size = 4
?PreTranslateMessage@CSetting_Common_Type_A@@UAEHPAUtagMSG@@@Z PROC ; CSetting_Common_Type_A::PreTranslateMessage, COMDAT
; _this$ = ecx

; 1582 : {

  00000	55		 push	 ebp
  00001	8b ec		 mov	 ebp, esp
  00003	56		 push	 esi
  00004	57		 push	 edi

; 1583 : 	// TODO: Add your specialized code here and/or call the base class
; 1584 : 	if(pMsg->message == WM_KEYDOWN)

  00005	8b 7d 08	 mov	 edi, DWORD PTR _pMsg$[ebp]
  00008	8b f1		 mov	 esi, ecx
  0000a	81 7f 04 00 01
	00 00		 cmp	 DWORD PTR [edi+4], 256	; 00000100H
  00011	75 62		 jne	 SHORT $LN10@PreTransla

; 1585 : 	{
; 1586 : 		if(pMsg->wParam == VK_RETURN)

  00013	83 7f 08 0d	 cmp	 DWORD PTR [edi+8], 13	; 0000000dH
  00017	75 22		 jne	 SHORT $LN6@PreTransla

; 1587 : 		{
; 1588 : 			if( m_pParentWnd != NULL )

  00019	8b 8e 94 00 00
	00		 mov	 ecx, DWORD PTR [esi+148]
  0001f	85 c9		 test	 ecx, ecx
  00021	74 18		 je	 SHORT $LN6@PreTransla

; 1589 : 			{
; 1590 : 				if( m_pTopWnd != NULL )

  00023	8b 96 d0 00 00
	00		 mov	 edx, DWORD PTR [esi+208]
  00029	85 d2		 test	 edx, edx
  0002b	74 06		 je	 SHORT $LN5@PreTransla
; File D:\git\src\IBK\IBK_DRFN\ProjSrc\SrcChartEx\ChartAddIn\ChartEnvSetupDlgAddIn\ChartEnvSetupDlgAddIn\DlgEnvSetUpAll.h

; 60   : 	void OK( void )			{ OnOK(); };

  0002d	8b 02		 mov	 eax, DWORD PTR [edx]
  0002f	8b ca		 mov	 ecx, edx
; File D:\git\src\IBK\IBK_DRFN\ProjSrc\SrcChartEx\ChartAddIn\ChartEnvSetupDlgAddIn\ChartEnvSetupDlgAddIn\Setting_Common_Type_A.cpp

; 1591 : 					( (CDlgEnvSetUpAll *)m_pTopWnd)->OK();

  00031	eb 02		 jmp	 SHORT $LN20@PreTransla
$LN5@PreTransla:
; File D:\git\src\IBK\IBK_DRFN\ProjSrc\SrcChartEx\ChartAddIn\ChartEnvSetupDlgAddIn\ChartEnvSetupDlgAddIn\GraphSetting.h

; 36   : 	void OK( void )			{ OnOK(); };

  00033	8b 01		 mov	 eax, DWORD PTR [ecx]
$LN20@PreTransla:
; File D:\git\src\IBK\IBK_DRFN\ProjSrc\SrcChartEx\ChartAddIn\ChartEnvSetupDlgAddIn\ChartEnvSetupDlgAddIn\Setting_Common_Type_A.cpp

; 1598 : 		if( pMsg->wParam == VK_ESCAPE )

  00035	ff 90 88 01 00
	00		 call	 DWORD PTR [eax+392]
$LN6@PreTransla:
  0003b	83 7f 08 1b	 cmp	 DWORD PTR [edi+8], 27	; 0000001bH
  0003f	75 34		 jne	 SHORT $LN10@PreTransla

; 1599 : 		{
; 1600 : 			if( m_pParentWnd != NULL )

  00041	8b 8e 94 00 00
	00		 mov	 ecx, DWORD PTR [esi+148]
  00047	85 c9		 test	 ecx, ecx
  00049	74 2a		 je	 SHORT $LN10@PreTransla

; 1601 : 			{
; 1602 : 				if( m_pTopWnd != NULL )

  0004b	8b 96 d0 00 00
	00		 mov	 edx, DWORD PTR [esi+208]
  00051	85 d2		 test	 edx, edx
  00053	74 18		 je	 SHORT $LN9@PreTransla
; File D:\git\src\IBK\IBK_DRFN\ProjSrc\SrcChartEx\ChartAddIn\ChartEnvSetupDlgAddIn\ChartEnvSetupDlgAddIn\DlgEnvSetUpAll.h

; 61   : 	void Cancel( void )		{ OnCancel(); };

  00055	8b 02		 mov	 eax, DWORD PTR [edx]
  00057	8b ca		 mov	 ecx, edx
; File D:\git\src\IBK\IBK_DRFN\ProjSrc\SrcChartEx\ChartAddIn\ChartEnvSetupDlgAddIn\ChartEnvSetupDlgAddIn\Setting_Common_Type_A.cpp

; 1612 : 	return CDialog::PreTranslateMessage(pMsg);

  00059	ff 90 8c 01 00
	00		 call	 DWORD PTR [eax+396]
  0005f	57		 push	 edi
  00060	8b ce		 mov	 ecx, esi
  00062	e8 00 00 00 00	 call	 ?PreTranslateMessage@CDialog@@UAEHPAUtagMSG@@@Z ; CDialog::PreTranslateMessage
  00067	5f		 pop	 edi
  00068	5e		 pop	 esi

; 1613 : }

  00069	5d		 pop	 ebp
  0006a	c2 04 00	 ret	 4
$LN9@PreTransla:
; File D:\git\src\IBK\IBK_DRFN\ProjSrc\SrcChartEx\ChartAddIn\ChartEnvSetupDlgAddIn\ChartEnvSetupDlgAddIn\GraphSetting.h

; 37   : 	void Cancel( void )		{ OnCancel(); };

  0006d	8b 01		 mov	 eax, DWORD PTR [ecx]
; File D:\git\src\IBK\IBK_DRFN\ProjSrc\SrcChartEx\ChartAddIn\ChartEnvSetupDlgAddIn\ChartEnvSetupDlgAddIn\Setting_Common_Type_A.cpp

; 1612 : 	return CDialog::PreTranslateMessage(pMsg);

  0006f	ff 90 8c 01 00
	00		 call	 DWORD PTR [eax+396]
$LN10@PreTransla:
  00075	57		 push	 edi
  00076	8b ce		 mov	 ecx, esi
  00078	e8 00 00 00 00	 call	 ?PreTranslateMessage@CDialog@@UAEHPAUtagMSG@@@Z ; CDialog::PreTranslateMessage
  0007d	5f		 pop	 edi
  0007e	5e		 pop	 esi

; 1613 : }

  0007f	5d		 pop	 ebp
  00080	c2 04 00	 ret	 4
?PreTranslateMessage@CSetting_Common_Type_A@@UAEHPAUtagMSG@@@Z ENDP ; CSetting_Common_Type_A::PreTranslateMessage
_TEXT	ENDS
; Function compile flags: /Ogtp
; File D:\git\src\IBK\IBK_DRFN\ProjSrc\SrcChartEx\ChartAddIn\ChartEnvSetupDlgAddIn\ChartEnvSetupDlgAddIn\Setting_Common_Type_A.cpp
;	COMDAT ?OnApply@CSetting_Common_Type_A@@UAEHPAUIGraphInfo135914@@@Z
_TEXT	SEGMENT
_p_pIGraphInfo$ = 8					; size = 4
?OnApply@CSetting_Common_Type_A@@UAEHPAUIGraphInfo135914@@@Z PROC ; CSetting_Common_Type_A::OnApply, COMDAT
; _this$ = ecx

; 414  : {

  00000	55		 push	 ebp
  00001	8b ec		 mov	 ebp, esp
  00003	56		 push	 esi

; 415  : 	if(p_pIGraphInfo == NULL)

  00004	8b 75 08	 mov	 esi, DWORD PTR _p_pIGraphInfo$[ebp]
  00007	57		 push	 edi
  00008	8b f9		 mov	 edi, ecx
  0000a	85 f6		 test	 esi, esi
  0000c	75 08		 jne	 SHORT $LN2@OnApply

; 416  : 		return FALSE;

  0000e	5f		 pop	 edi
  0000f	33 c0		 xor	 eax, eax

; 425  : }

  00011	5e		 pop	 esi
  00012	5d		 pop	 ebp
  00013	c2 04 00	 ret	 4
$LN2@OnApply:

; 417  : 	
; 418  : 	UpdateData();

  00016	6a 01		 push	 1
  00018	e8 00 00 00 00	 call	 ?UpdateData@CWnd@@QAEHH@Z ; CWnd::UpdateData

; 419  : 	
; 420  : 	OnApplySubGraphData();

  0001d	8b cf		 mov	 ecx, edi
  0001f	e8 00 00 00 00	 call	 ?OnApplySubGraphData@CSetting_Common_Type_A@@AAEXXZ ; CSetting_Common_Type_A::OnApplySubGraphData

; 421  : 
; 422  : 	p_pIGraphInfo->GetCopyDataFrom(m_pIGraphInfo);

  00024	8b 06		 mov	 eax, DWORD PTR [esi]
  00026	8b ce		 mov	 ecx, esi
  00028	ff b7 c4 00 00
	00		 push	 DWORD PTR [edi+196]
  0002e	ff 90 c0 00 00
	00		 call	 DWORD PTR [eax+192]
  00034	5f		 pop	 edi

; 423  : 
; 424  : 	return TRUE;

  00035	b8 01 00 00 00	 mov	 eax, 1

; 425  : }

  0003a	5e		 pop	 esi
  0003b	5d		 pop	 ebp
  0003c	c2 04 00	 ret	 4
?OnApply@CSetting_Common_Type_A@@UAEHPAUIGraphInfo135914@@@Z ENDP ; CSetting_Common_Type_A::OnApply
_TEXT	ENDS
; Function compile flags: /Ogtp
; File D:\git\src\IBK\IBK_DRFN\ProjSrc\SrcChartEx\ChartAddIn\ChartEnvSetupDlgAddIn\ChartEnvSetupDlgAddIn\Setting_Common_Type_A.cpp
; File D:\git\src\IBK\IBK_DRFN\ProjSrc\SrcChartEx\ChartAddIn\ChartEnvSetupDlgAddIn\Include_AddIn_135914\I135914\_IString.h
; File D:\git\src\IBK\IBK_DRFN\ProjSrc\SrcChartEx\ChartAddIn\ChartEnvSetupDlgAddIn\ChartEnvSetupDlgAddIn\Setting_Common_Type_A.cpp
; File D:\git\src\IBK\IBK_DRFN\ProjSrc\SrcChartEx\ChartAddIn\ChartEnvSetupDlgAddIn\Include_AddIn_135914\I135914\_IString.h
; File D:\git\src\IBK\IBK_DRFN\ProjSrc\SrcChartEx\ChartAddIn\ChartEnvSetupDlgAddIn\ChartEnvSetupDlgAddIn\Setting_Common_Type_A.cpp
; File D:\git\src\IBK\IBK_DRFN\ProjSrc\SrcChartEx\ChartAddIn\ChartEnvSetupDlgAddIn\Include_AddIn_135914\I135914\_IString.h
; File D:\git\src\IBK\IBK_DRFN\ProjSrc\SrcChartEx\ChartAddIn\ChartEnvSetupDlgAddIn\ChartEnvSetupDlgAddIn\Setting_Common_Type_A.cpp
; File D:\git\src\IBK\IBK_DRFN\ProjSrc\SrcChartEx\ChartAddIn\ChartEnvSetupDlgAddIn\Include_AddIn_135914\I135914\_IString.h
; File D:\git\src\IBK\IBK_DRFN\ProjSrc\SrcChartEx\ChartAddIn\ChartEnvSetupDlgAddIn\ChartEnvSetupDlgAddIn\Setting_Common_Type_A.cpp
; File D:\git\src\IBK\IBK_DRFN\ProjSrc\SrcChartEx\ChartAddIn\ChartEnvSetupDlgAddIn\Include_AddIn_135914\I135914\_IString.h
; File D:\git\src\IBK\IBK_DRFN\ProjSrc\SrcChartEx\ChartAddIn\ChartEnvSetupDlgAddIn\ChartEnvSetupDlgAddIn\Setting_Common_Type_A.cpp
; File D:\git\src\IBK\IBK_DRFN\ProjSrc\SrcChartEx\ChartAddIn\ChartEnvSetupDlgAddIn\Include_AddIn_135914\I135914\_IString.h
; File D:\git\src\IBK\IBK_DRFN\ProjSrc\SrcChartEx\ChartAddIn\ChartEnvSetupDlgAddIn\ChartEnvSetupDlgAddIn\Setting_Common_Type_A.cpp
; File C:\Program Files (x86)\Microsoft Visual Studio\2019\Community\VC\Tools\MSVC\14.29.30133\atlmfc\include\afxwin2.inl
; File D:\git\src\IBK\IBK_DRFN\ProjSrc\SrcChartEx\ChartAddIn\ChartEnvSetupDlgAddIn\ChartEnvSetupDlgAddIn\Setting_Common_Type_A.cpp
; File D:\git\src\IBK\IBK_DRFN\ProjSrc\SrcChartEx\ChartAddIn\ChartEnvSetupDlgAddIn\Include_AddIn_135914\I135914\_IString.h
; File D:\git\src\IBK\IBK_DRFN\ProjSrc\SrcChartEx\ChartAddIn\ChartEnvSetupDlgAddIn\ChartEnvSetupDlgAddIn\Setting_Common_Type_A.cpp
; File D:\git\src\IBK\IBK_DRFN\ProjSrc\SrcChartEx\ChartAddIn\ChartEnvSetupDlgAddIn\Include_AddIn_135914\I135914\_IString.h
; File D:\git\src\IBK\IBK_DRFN\ProjSrc\SrcChartEx\ChartAddIn\ChartEnvSetupDlgAddIn\ChartEnvSetupDlgAddIn\Setting_Common_Type_A.cpp
;	COMDAT ?Initial@CSetting_Common_Type_A@@UAEXPAUIGraphInfo135914@@@Z
_TEXT	SEGMENT
_bShowSignal$ = -116					; size = 4
_szIndicatorName$2 = -112				; size = 8
_szGraphName$ = -112					; size = 8
_strResult$ = -104					; size = 4
_bValidFalg$ = -100					; size = 4
_szIndicatorName$ = -96					; size = 8
_szIndicatorName$3 = -96				; size = 8
_strType$ = -88						; size = 4
_nCount$2$ = -84					; size = 4
_pIDblBase$1$ = -84					; size = 4
_pIDblCnd$2$ = -84					; size = 4
_dData$4 = -80						; size = 8
_pDefaultInfo$1$ = -76					; size = 4
_pIDblBase$2$ = -72					; size = 4
_psnCnd$5 = -72						; size = 4
tv1129 = -65						; size = 1
tv1128 = -65						; size = 1
_pedtValue$6 = -64					; size = 28
_pspnValue$7 = -36					; size = 20
__$ArrayPad$ = -16					; size = 4
__$EHRec$ = -12						; size = 12
_p_pIGraphInfo$ = 8					; size = 4
?Initial@CSetting_Common_Type_A@@UAEXPAUIGraphInfo135914@@@Z PROC ; CSetting_Common_Type_A::Initial, COMDAT
; _this$ = ecx

; 173  : {

  00000	55		 push	 ebp
  00001	8b ec		 mov	 ebp, esp
  00003	6a ff		 push	 -1
  00005	68 00 00 00 00	 push	 __ehhandler$?Initial@CSetting_Common_Type_A@@UAEXPAUIGraphInfo135914@@@Z
  0000a	64 a1 00 00 00
	00		 mov	 eax, DWORD PTR fs:0
  00010	50		 push	 eax
  00011	83 ec 68	 sub	 esp, 104		; 00000068H
  00014	a1 00 00 00 00	 mov	 eax, DWORD PTR ___security_cookie
  00019	33 c5		 xor	 eax, ebp
  0001b	89 45 f0	 mov	 DWORD PTR __$ArrayPad$[ebp], eax
  0001e	53		 push	 ebx
  0001f	56		 push	 esi
  00020	57		 push	 edi
  00021	50		 push	 eax
  00022	8d 45 f4	 lea	 eax, DWORD PTR __$EHRec$[ebp]
  00025	64 a3 00 00 00
	00		 mov	 DWORD PTR fs:0, eax
  0002b	8b f9		 mov	 edi, ecx

; 174  : 	if( m_pIGraphInfo)

  0002d	8b 8f c4 00 00
	00		 mov	 ecx, DWORD PTR [edi+196]
  00033	85 c9		 test	 ecx, ecx
  00035	74 17		 je	 SHORT $LN4@Initial

; 175  : 	{
; 176  : 		OnApply( m_pIGraphInfo);

  00037	8b 07		 mov	 eax, DWORD PTR [edi]
  00039	51		 push	 ecx
  0003a	8b cf		 mov	 ecx, edi
  0003c	ff 90 98 01 00
	00		 call	 DWORD PTR [eax+408]

; 177  : 		m_pIGraphInfo->Release();

  00042	8b 87 c4 00 00
	00		 mov	 eax, DWORD PTR [edi+196]
  00048	50		 push	 eax
  00049	8b 08		 mov	 ecx, DWORD PTR [eax]
  0004b	ff 51 08	 call	 DWORD PTR [ecx+8]
$LN4@Initial:

; 178  : 	}
; 179  : 	m_pIGraphInfo = p_pIGraphInfo;

  0004e	8b 4d 08	 mov	 ecx, DWORD PTR _p_pIGraphInfo$[ebp]
  00051	89 8f c4 00 00
	00		 mov	 DWORD PTR [edi+196], ecx

; 180  : 	if( m_pIGraphInfo) m_pIGraphInfo->AddRef();

  00057	85 c9		 test	 ecx, ecx
  00059	0f 84 76 06 00
	00		 je	 $LN5@Initial
  0005f	8b 01		 mov	 eax, DWORD PTR [ecx]
  00061	51		 push	 ecx
  00062	ff 50 04	 call	 DWORD PTR [eax+4]

; 181  : 	else return;
; 182  : 
; 183  : 	//20081014  >>
; 184  : 	CString strType = GetPacketType();

  00065	8d 45 a8	 lea	 eax, DWORD PTR _strType$[ebp]
  00068	8b cf		 mov	 ecx, edi
  0006a	50		 push	 eax
  0006b	e8 00 00 00 00	 call	 ?GetPacketType@CBaseDialog@@QAE?AV?$CStringT@DV?$StrTraitMFC_DLL@DV?$ChTraitsCRT@D@ATL@@@@@ATL@@XZ ; CBaseDialog::GetPacketType

; 185  : 
; 186  : 	//  .
; 187  : 	m_Horizon_Edit.SetPacketType(strType);

  00070	51		 push	 ecx
  00071	8d 45 a8	 lea	 eax, DWORD PTR _strType$[ebp]
  00074	c7 45 fc 00 00
	00 00		 mov	 DWORD PTR __$EHRec$[ebp+8], 0
  0007b	8b cc		 mov	 ecx, esp
  0007d	50		 push	 eax
  0007e	ff 15 00 00 00
	00		 call	 DWORD PTR __imp_??0?$CStringT@DV?$StrTraitMFC_DLL@DV?$ChTraitsCRT@D@ATL@@@@@ATL@@QAE@ABV01@@Z
  00084	8b 87 20 06 00
	00		 mov	 eax, DWORD PTR [edi+1568]
  0008a	8d 8f 20 06 00
	00		 lea	 ecx, DWORD PTR [edi+1568]
  00090	ff 90 a0 01 00
	00		 call	 DWORD PTR [eax+416]

; 188  : 
; 189  : 	//       .
; 190  : 	CString strResult = CDataConversion::GetMinimumValue(strType);

  00096	51		 push	 ecx
  00097	8d 45 a8	 lea	 eax, DWORD PTR _strType$[ebp]
  0009a	8b cc		 mov	 ecx, esp
  0009c	50		 push	 eax
  0009d	ff 15 00 00 00
	00		 call	 DWORD PTR __imp_??0?$CStringT@DV?$StrTraitMFC_DLL@DV?$ChTraitsCRT@D@ATL@@@@@ATL@@QAE@ABV01@@Z
  000a3	8d 45 98	 lea	 eax, DWORD PTR _strResult$[ebp]
  000a6	50		 push	 eax
  000a7	e8 00 00 00 00	 call	 ?GetMinimumValue@CDataConversion@@SA?AV?$CStringT@DV?$StrTraitMFC_DLL@DV?$ChTraitsCRT@D@ATL@@@@@ATL@@V23@@Z ; CDataConversion::GetMinimumValue

; 191  : 
; 192  : 	m_Horizon_Edit.SetDeltaMinimum(strResult);

  000ac	83 c4 04	 add	 esp, 4
  000af	c6 45 fc 01	 mov	 BYTE PTR __$EHRec$[ebp+8], 1
  000b3	8d 45 98	 lea	 eax, DWORD PTR _strResult$[ebp]
  000b6	8b cc		 mov	 ecx, esp
  000b8	50		 push	 eax
  000b9	ff 15 00 00 00
	00		 call	 DWORD PTR __imp_??0?$CStringT@DV?$StrTraitMFC_DLL@DV?$ChTraitsCRT@D@ATL@@@@@ATL@@QAE@ABV01@@Z
  000bf	8b 87 20 06 00
	00		 mov	 eax, DWORD PTR [edi+1568]
  000c5	8d 8f 20 06 00
	00		 lea	 ecx, DWORD PTR [edi+1568]
  000cb	ff 90 98 01 00
	00		 call	 DWORD PTR [eax+408]

; 193  : 	//20081014  <<
; 194  : 
; 195  : 	// (2007/4/23 - Seung-Won, Bae) Init SubGraph Index before Init_Composition_Group()
; 196  : 	m_nSubGraphIndex = 0;
; 197  : 
; 198  : 	// 1.  Dialog  Setting
; 199  : 	UseCompositionGroup( m_pIGraphInfo->GetSubGraphCount());

  000d1	8b 8f c4 00 00
	00		 mov	 ecx, DWORD PTR [edi+196]
  000d7	c7 87 cc 14 00
	00 00 00 00 00	 mov	 DWORD PTR [edi+5324], 0
  000e1	8b 01		 mov	 eax, DWORD PTR [ecx]
  000e3	ff 50 2c	 call	 DWORD PTR [eax+44]
  000e6	50		 push	 eax
  000e7	8b cf		 mov	 ecx, edi
  000e9	e8 00 00 00 00	 call	 ?UseCompositionGroup@CSetting_Common_Type_A@@AAEXH@Z ; CSetting_Common_Type_A::UseCompositionGroup

; 200  : 	Init_Composition_Group( );

  000ee	8b cf		 mov	 ecx, edi
  000f0	e8 00 00 00 00	 call	 ?Init_Composition_Group@CSetting_Common_Type_A@@AAEXXZ ; CSetting_Common_Type_A::Init_Composition_Group

; 201  : 
; 202  : 	// 2.   Group
; 203  : 	int nCount = 0;
; 204  : 	IDoubleList *pIDblCnd = m_pIGraphInfo->GetCommonCalculateConditionList();

  000f5	8b 8f c4 00 00
	00		 mov	 ecx, DWORD PTR [edi+196]
  000fb	33 db		 xor	 ebx, ebx
  000fd	8b 01		 mov	 eax, DWORD PTR [ecx]
  000ff	ff 50 10	 call	 DWORD PTR [eax+16]
  00102	8b f0		 mov	 esi, eax

; 205  : 	if( pIDblCnd)

  00104	85 f6		 test	 esi, esi
  00106	74 24		 je	 SHORT $LN7@Initial

; 206  : 	{
; 207  : 		nCount = pIDblCnd->GetCount();

  00108	8b 06		 mov	 eax, DWORD PTR [esi]
  0010a	8b ce		 mov	 ecx, esi
  0010c	ff 50 10	 call	 DWORD PTR [eax+16]
  0010f	8b d8		 mov	 ebx, eax

; 208  : 		UseValueGroup( 0 < nCount && nCount <= 5);

  00111	b8 04 00 00 00	 mov	 eax, 4
  00116	8d 4b ff	 lea	 ecx, DWORD PTR [ebx-1]
  00119	3b c1		 cmp	 eax, ecx
  0011b	1b c9		 sbb	 ecx, ecx
  0011d	41		 inc	 ecx
  0011e	51		 push	 ecx
  0011f	8b cf		 mov	 ecx, edi
  00121	e8 00 00 00 00	 call	 ?UseValueGroup@CSetting_Common_Type_A@@AAEXH@Z ; CSetting_Common_Type_A::UseValueGroup

; 209  : 		pIDblCnd->Release();

  00126	8b 0e		 mov	 ecx, DWORD PTR [esi]
  00128	56		 push	 esi
  00129	ff 51 08	 call	 DWORD PTR [ecx+8]
$LN7@Initial:

; 210  : 	}
; 211  : 	Init_Variable_Group_Title( nCount);

  0012c	53		 push	 ebx
  0012d	8b cf		 mov	 ecx, edi
  0012f	e8 00 00 00 00	 call	 ?Init_Variable_Group_Title@CSetting_Common_Type_A@@AAEXH@Z ; CSetting_Common_Type_A::Init_Variable_Group_Title

; 212  : 	
; 213  : 	//sy 2006.04.17.
; 214  : 	// 4.  show/hide
; 215  : 	BOOL bValidFalg = FALSE, bShowSignal = FALSE;
; 216  : 	m_pIGraphInfo->GetSignalShowFlag( bValidFalg, bShowSignal);

  00134	8b 8f c4 00 00
	00		 mov	 ecx, DWORD PTR [edi+196]
  0013a	8d 55 8c	 lea	 edx, DWORD PTR _bShowSignal$[ebp]
  0013d	c7 45 9c 00 00
	00 00		 mov	 DWORD PTR _bValidFalg$[ebp], 0
  00144	c7 45 8c 00 00
	00 00		 mov	 DWORD PTR _bShowSignal$[ebp], 0
  0014b	52		 push	 edx
  0014c	8b 01		 mov	 eax, DWORD PTR [ecx]
  0014e	8d 55 9c	 lea	 edx, DWORD PTR _bValidFalg$[ebp]
  00151	52		 push	 edx
  00152	ff 90 b4 00 00
	00		 call	 DWORD PTR [eax+180]

; 217  : 	//signal   , 
; 218  : 	m_Signal_Bt.ShowWindow( bValidFalg ? SW_SHOW : SW_HIDE);

  00158	8b 45 9c	 mov	 eax, DWORD PTR _bValidFalg$[ebp]
  0015b	8d 8f 20 05 00
	00		 lea	 ecx, DWORD PTR [edi+1312]
  00161	f7 d8		 neg	 eax
  00163	1b c0		 sbb	 eax, eax
  00165	83 e0 05	 and	 eax, 5
  00168	50		 push	 eax
  00169	e8 00 00 00 00	 call	 ?ShowWindow@CWnd@@QAEHH@Z ; CWnd::ShowWindow

; 219  : 
; 220  : 	// 1.   Group
; 221  : 	pIDblCnd = m_pIGraphInfo->GetCommonCalculateConditionList();

  0016e	8b 8f c4 00 00
	00		 mov	 ecx, DWORD PTR [edi+196]
  00174	8b 01		 mov	 eax, DWORD PTR [ecx]
  00176	ff 50 10	 call	 DWORD PTR [eax+16]
  00179	8b d8		 mov	 ebx, eax
  0017b	89 5d ac	 mov	 DWORD PTR _pIDblCnd$2$[ebp], ebx

; 222  : 	if( pIDblCnd)

  0017e	85 db		 test	 ebx, ebx
  00180	0f 84 f5 02 00
	00		 je	 $LN38@Initial

; 223  : 	{
; 224  : 		double dData = 0;
; 225  : 		POSITION psnCnd = pIDblCnd->GetHeadPosition();

  00186	8b 13		 mov	 edx, DWORD PTR [ebx]
  00188	0f 57 c0	 xorps	 xmm0, xmm0
  0018b	8b cb		 mov	 ecx, ebx
  0018d	f2 0f 11 45 b0	 movsd	 QWORD PTR _dData$4[ebp], xmm0
  00192	ff 52 34	 call	 DWORD PTR [edx+52]
  00195	89 45 b8	 mov	 DWORD PTR _psnCnd$5[ebp], eax
  00198	0f 57 c0	 xorps	 xmm0, xmm0

; 231  : 		ILPCSTR szIndicatorName = m_pIGraphInfo->GetIndicatorNameString();

  0019b	8b 8f c4 00 00
	00		 mov	 ecx, DWORD PTR [edi+196]
  001a1	8d 87 d0 0b 00
	00		 lea	 eax, DWORD PTR [edi+3024]
  001a7	89 45 dc	 mov	 DWORD PTR _pspnValue$7[ebp], eax
  001aa	8d 87 50 0b 00
	00		 lea	 eax, DWORD PTR [edi+2896]
  001b0	89 45 e0	 mov	 DWORD PTR _pspnValue$7[ebp+4], eax
  001b3	8d 87 d0 0a 00
	00		 lea	 eax, DWORD PTR [edi+2768]
  001b9	89 45 e4	 mov	 DWORD PTR _pspnValue$7[ebp+8], eax
  001bc	8d 87 50 0a 00
	00		 lea	 eax, DWORD PTR [edi+2640]
  001c2	89 45 e8	 mov	 DWORD PTR _pspnValue$7[ebp+12], eax
  001c5	8d 87 d0 09 00
	00		 lea	 eax, DWORD PTR [edi+2512]
  001cb	89 45 ec	 mov	 DWORD PTR _pspnValue$7[ebp+16], eax
  001ce	8d 87 f0 0e 00
	00		 lea	 eax, DWORD PTR [edi+3824]
  001d4	89 45 c0	 mov	 DWORD PTR _pedtValue$6[ebp], eax
  001d7	8d 87 48 0e 00
	00		 lea	 eax, DWORD PTR [edi+3656]
  001dd	89 45 c4	 mov	 DWORD PTR _pedtValue$6[ebp+4], eax
  001e0	8d 87 a0 0d 00
	00		 lea	 eax, DWORD PTR [edi+3488]
  001e6	89 45 c8	 mov	 DWORD PTR _pedtValue$6[ebp+8], eax
  001e9	8d 87 f8 0c 00
	00		 lea	 eax, DWORD PTR [edi+3320]
  001ef	89 45 cc	 mov	 DWORD PTR _pedtValue$6[ebp+12], eax
  001f2	8d 87 50 0c 00
	00		 lea	 eax, DWORD PTR [edi+3152]
  001f8	89 45 d0	 mov	 DWORD PTR _pedtValue$6[ebp+16], eax
  001fb	8b 01		 mov	 eax, DWORD PTR [ecx]
  001fd	66 0f d6 45 d4	 movq	 QWORD PTR _pedtValue$6[ebp+20], xmm0
  00202	ff 90 a4 00 00
	00		 call	 DWORD PTR [eax+164]
; File D:\git\src\IBK\IBK_DRFN\ProjSrc\SrcChartEx\ChartAddIn\ChartEnvSetupDlgAddIn\Include_AddIn_135914\I135914\_IString.h

; 39   : 		m_pIStrData = p_pIString;	// Do not AddRef(). Because It must be Return Value.

  00208	8b f0		 mov	 esi, eax
  0020a	89 75 a4	 mov	 DWORD PTR _szIndicatorName$3[ebp+4], esi

; 40   : 		if( m_pIStrData) m_szData = m_pIStrData->GetData();

  0020d	85 f6		 test	 esi, esi
  0020f	74 09		 je	 SHORT $LN33@Initial
  00211	8b 16		 mov	 edx, DWORD PTR [esi]
  00213	8b ce		 mov	 ecx, esi
  00215	ff 52 10	 call	 DWORD PTR [edx+16]
  00218	eb 02		 jmp	 SHORT $LN104@Initial
$LN33@Initial:

; 41   : 		else m_szData = NULL;

  0021a	33 c0		 xor	 eax, eax
$LN104@Initial:
; File D:\git\src\IBK\IBK_DRFN\ProjSrc\SrcChartEx\ChartAddIn\ChartEnvSetupDlgAddIn\ChartEnvSetupDlgAddIn\Setting_Common_Type_A.cpp

; 231  : 		ILPCSTR szIndicatorName = m_pIGraphInfo->GetIndicatorNameString();

  0021c	89 45 a0	 mov	 DWORD PTR _szIndicatorName$3[ebp], eax

; 232  : //>> vntsorl(20090828)
; 233  : 		if( !strcmp( szIndicatorName, _MTEXT( C2_ENVELOPE))) 

  0021f	8b 15 54 00 00
	00		 mov	 edx, DWORD PTR ?g_iMetaTable@@3VIMetaTable@@A+84
  00225	8b c8		 mov	 ecx, eax
  00227	c6 45 fc 02	 mov	 BYTE PTR __$EHRec$[ebp+8], 2
  0022b	8b 92 4c 03 00
	00		 mov	 edx, DWORD PTR [edx+844]
$LL90@Initial:
  00231	8a 19		 mov	 bl, BYTE PTR [ecx]
  00233	3a 1a		 cmp	 bl, BYTE PTR [edx]
  00235	88 5d bf	 mov	 BYTE PTR tv1128[ebp], bl
  00238	8b 5d ac	 mov	 ebx, DWORD PTR _pIDblCnd$2$[ebp]
  0023b	75 24		 jne	 SHORT $LN91@Initial
  0023d	80 7d bf 00	 cmp	 BYTE PTR tv1128[ebp], 0
  00241	74 1a		 je	 SHORT $LN92@Initial
  00243	8a 59 01	 mov	 bl, BYTE PTR [ecx+1]
  00246	3a 5a 01	 cmp	 bl, BYTE PTR [edx+1]
  00249	88 5d bf	 mov	 BYTE PTR tv1129[ebp], bl
  0024c	8b 5d ac	 mov	 ebx, DWORD PTR _pIDblCnd$2$[ebp]
  0024f	75 10		 jne	 SHORT $LN91@Initial
  00251	83 c1 02	 add	 ecx, 2
  00254	83 c2 02	 add	 edx, 2
  00257	80 7d bf 00	 cmp	 BYTE PTR tv1129[ebp], 0
  0025b	75 d4		 jne	 SHORT $LL90@Initial
$LN92@Initial:
  0025d	33 c9		 xor	 ecx, ecx
  0025f	eb 05		 jmp	 SHORT $LN93@Initial
$LN91@Initial:
  00261	1b c9		 sbb	 ecx, ecx
  00263	83 c9 01	 or	 ecx, 1
$LN93@Initial:
  00266	85 c9		 test	 ecx, ecx
  00268	0f 85 d9 00 00
	00		 jne	 $LN9@Initial

; 234  : 		{
; 235  : 			if( psnCnd) pIDblCnd->GetNext( psnCnd, dData);

  0026e	39 4d b8	 cmp	 DWORD PTR _psnCnd$5[ebp], ecx
  00271	74 0f		 je	 SHORT $LN11@Initial
  00273	8b 03		 mov	 eax, DWORD PTR [ebx]
  00275	8d 4d b0	 lea	 ecx, DWORD PTR _dData$4[ebp]
  00278	51		 push	 ecx
  00279	8d 4d b8	 lea	 ecx, DWORD PTR _psnCnd$5[ebp]
  0027c	51		 push	 ecx
  0027d	8b cb		 mov	 ecx, ebx
  0027f	ff 50 3c	 call	 DWORD PTR [eax+60]
$LN11@Initial:

; 236  : 			Initial_Spin( *pspnValue[ 0],  *pedtValue[ 0], dData);

  00282	f2 0f 10 45 b0	 movsd	 xmm0, QWORD PTR _dData$4[ebp]
  00287	8d 87 f0 0e 00
	00		 lea	 eax, DWORD PTR [edi+3824]
  0028d	83 ec 08	 sub	 esp, 8
  00290	8b cf		 mov	 ecx, edi
  00292	f2 0f 11 04 24	 movsd	 QWORD PTR [esp], xmm0
  00297	50		 push	 eax
  00298	8d 87 d0 0b 00
	00		 lea	 eax, DWORD PTR [edi+3024]
  0029e	50		 push	 eax
  0029f	e8 00 00 00 00	 call	 ?Initial_Spin@CBaseDialog@@IAEXAAVCNumSpinCtrl@@AAVCNumEdit@@N@Z ; CBaseDialog::Initial_Spin

; 237  : 			if( psnCnd) pIDblCnd->GetNext( psnCnd, dData);

  002a4	83 7d b8 00	 cmp	 DWORD PTR _psnCnd$5[ebp], 0
  002a8	74 0f		 je	 SHORT $LN12@Initial
  002aa	8b 03		 mov	 eax, DWORD PTR [ebx]
  002ac	8d 4d b0	 lea	 ecx, DWORD PTR _dData$4[ebp]
  002af	51		 push	 ecx
  002b0	8d 4d b8	 lea	 ecx, DWORD PTR _psnCnd$5[ebp]
  002b3	51		 push	 ecx
  002b4	8b cb		 mov	 ecx, ebx
  002b6	ff 50 3c	 call	 DWORD PTR [eax+60]
$LN12@Initial:

; 238  : 			Initial_Spin( *pspnValue[ 1],  *pedtValue[ 1], dData, 0, (float)100, (float)0.1);

  002b9	f2 0f 10 45 b0	 movsd	 xmm0, QWORD PTR _dData$4[ebp]
  002be	8d 87 48 0e 00
	00		 lea	 eax, DWORD PTR [edi+3656]
  002c4	83 ec 14	 sub	 esp, 20			; 00000014H
  002c7	8b cf		 mov	 ecx, edi
  002c9	c7 44 24 10 cd
	cc cc 3d	 mov	 DWORD PTR [esp+16], 1036831949 ; 3dcccccdH
  002d1	c7 44 24 0c 00
	00 c8 42	 mov	 DWORD PTR [esp+12], 1120403456 ; 42c80000H
  002d9	c7 44 24 08 00
	00 00 00	 mov	 DWORD PTR [esp+8], 0
  002e1	f2 0f 11 04 24	 movsd	 QWORD PTR [esp], xmm0
  002e6	50		 push	 eax
  002e7	8d 87 50 0b 00
	00		 lea	 eax, DWORD PTR [edi+2896]
  002ed	50		 push	 eax
  002ee	e8 00 00 00 00	 call	 ?Initial_Spin@CBaseDialog@@IAEXAAVCNumSpinCtrl@@AAVCNumEdit@@NMMM@Z ; CBaseDialog::Initial_Spin

; 239  : 			if( psnCnd) pIDblCnd->GetNext( psnCnd, dData);

  002f3	83 7d b8 00	 cmp	 DWORD PTR _psnCnd$5[ebp], 0
  002f7	74 0f		 je	 SHORT $LN13@Initial
  002f9	8b 03		 mov	 eax, DWORD PTR [ebx]
  002fb	8d 4d b0	 lea	 ecx, DWORD PTR _dData$4[ebp]
  002fe	51		 push	 ecx
  002ff	8d 4d b8	 lea	 ecx, DWORD PTR _psnCnd$5[ebp]
  00302	51		 push	 ecx
  00303	8b cb		 mov	 ecx, ebx
  00305	ff 50 3c	 call	 DWORD PTR [eax+60]
$LN13@Initial:

; 240  : 			Initial_Spin( *pspnValue[ 2],  *pedtValue[ 2], dData, 0, (float)100, (float)0.1);

  00308	f2 0f 10 45 b0	 movsd	 xmm0, QWORD PTR _dData$4[ebp]
  0030d	8d 87 a0 0d 00
	00		 lea	 eax, DWORD PTR [edi+3488]
  00313	83 ec 14	 sub	 esp, 20			; 00000014H
  00316	8b cf		 mov	 ecx, edi
  00318	c7 44 24 10 cd
	cc cc 3d	 mov	 DWORD PTR [esp+16], 1036831949 ; 3dcccccdH
  00320	c7 44 24 0c 00
	00 c8 42	 mov	 DWORD PTR [esp+12], 1120403456 ; 42c80000H
  00328	c7 44 24 08 00
	00 00 00	 mov	 DWORD PTR [esp+8], 0
  00330	f2 0f 11 04 24	 movsd	 QWORD PTR [esp], xmm0
  00335	50		 push	 eax
  00336	8d 87 d0 0a 00
	00		 lea	 eax, DWORD PTR [edi+2768]
  0033c	50		 push	 eax
  0033d	e8 00 00 00 00	 call	 ?Initial_Spin@CBaseDialog@@IAEXAAVCNumSpinCtrl@@AAVCNumEdit@@NMMM@Z ; CBaseDialog::Initial_Spin

; 241  : 		}

  00342	e9 1c 01 00 00	 jmp	 $LN3@Initial
$LN9@Initial:

; 242  : 		else if( !strcmp( szIndicatorName, _MTEXT( C2_PARABOLIC_SAR)))

  00347	8b 0d 54 00 00
	00		 mov	 ecx, DWORD PTR ?g_iMetaTable@@3VIMetaTable@@A+84
  0034d	8b 89 54 03 00
	00		 mov	 ecx, DWORD PTR [ecx+852]
$LL94@Initial:
  00353	8a 10		 mov	 dl, BYTE PTR [eax]
  00355	3a 11		 cmp	 dl, BYTE PTR [ecx]
  00357	75 1a		 jne	 SHORT $LN95@Initial
  00359	84 d2		 test	 dl, dl
  0035b	74 12		 je	 SHORT $LN96@Initial
  0035d	8a 50 01	 mov	 dl, BYTE PTR [eax+1]
  00360	3a 51 01	 cmp	 dl, BYTE PTR [ecx+1]
  00363	75 0e		 jne	 SHORT $LN95@Initial
  00365	83 c0 02	 add	 eax, 2
  00368	83 c1 02	 add	 ecx, 2
  0036b	84 d2		 test	 dl, dl
  0036d	75 e4		 jne	 SHORT $LL94@Initial
$LN96@Initial:
  0036f	33 c0		 xor	 eax, eax
  00371	eb 05		 jmp	 SHORT $LN97@Initial
$LN95@Initial:
  00373	1b c0		 sbb	 eax, eax
  00375	83 c8 01	 or	 eax, 1
$LN97@Initial:
  00378	85 c0		 test	 eax, eax
  0037a	0f 85 9f 00 00
	00		 jne	 $LN86@Initial

; 243  : 		{
; 244  : 			if( psnCnd) pIDblCnd->GetNext( psnCnd, dData);

  00380	39 45 b8	 cmp	 DWORD PTR _psnCnd$5[ebp], eax
  00383	74 0f		 je	 SHORT $LN16@Initial
  00385	8b 03		 mov	 eax, DWORD PTR [ebx]
  00387	8d 4d b0	 lea	 ecx, DWORD PTR _dData$4[ebp]
  0038a	51		 push	 ecx
  0038b	8d 4d b8	 lea	 ecx, DWORD PTR _psnCnd$5[ebp]
  0038e	51		 push	 ecx
  0038f	8b cb		 mov	 ecx, ebx
  00391	ff 50 3c	 call	 DWORD PTR [eax+60]
$LN16@Initial:

; 245  : 			Initial_Spin( *pspnValue[ 0],  *pedtValue[ 0], dData, 0, (float)100, (float)0.02);

  00394	f2 0f 10 45 b0	 movsd	 xmm0, QWORD PTR _dData$4[ebp]
  00399	8d 87 f0 0e 00
	00		 lea	 eax, DWORD PTR [edi+3824]
  0039f	83 ec 14	 sub	 esp, 20			; 00000014H
  003a2	8b cf		 mov	 ecx, edi
  003a4	c7 44 24 10 0a
	d7 a3 3c	 mov	 DWORD PTR [esp+16], 1017370378 ; 3ca3d70aH
  003ac	c7 44 24 0c 00
	00 c8 42	 mov	 DWORD PTR [esp+12], 1120403456 ; 42c80000H
  003b4	c7 44 24 08 00
	00 00 00	 mov	 DWORD PTR [esp+8], 0
  003bc	f2 0f 11 04 24	 movsd	 QWORD PTR [esp], xmm0
  003c1	50		 push	 eax
  003c2	8d 87 d0 0b 00
	00		 lea	 eax, DWORD PTR [edi+3024]
  003c8	50		 push	 eax
  003c9	e8 00 00 00 00	 call	 ?Initial_Spin@CBaseDialog@@IAEXAAVCNumSpinCtrl@@AAVCNumEdit@@NMMM@Z ; CBaseDialog::Initial_Spin

; 246  : 			if( psnCnd) pIDblCnd->GetNext( psnCnd, dData);

  003ce	83 7d b8 00	 cmp	 DWORD PTR _psnCnd$5[ebp], 0
  003d2	74 0f		 je	 SHORT $LN17@Initial
  003d4	8b 03		 mov	 eax, DWORD PTR [ebx]
  003d6	8d 4d b0	 lea	 ecx, DWORD PTR _dData$4[ebp]
  003d9	51		 push	 ecx
  003da	8d 4d b8	 lea	 ecx, DWORD PTR _psnCnd$5[ebp]
  003dd	51		 push	 ecx
  003de	8b cb		 mov	 ecx, ebx
  003e0	ff 50 3c	 call	 DWORD PTR [eax+60]
$LN17@Initial:

; 247  : 			Initial_Spin( *pspnValue[ 1],  *pedtValue[ 1], dData, 0, (float)100, (float)1);

  003e3	f2 0f 10 45 b0	 movsd	 xmm0, QWORD PTR _dData$4[ebp]
  003e8	8d 87 48 0e 00
	00		 lea	 eax, DWORD PTR [edi+3656]
  003ee	83 ec 14	 sub	 esp, 20			; 00000014H
  003f1	8b cf		 mov	 ecx, edi
  003f3	c7 44 24 10 00
	00 80 3f	 mov	 DWORD PTR [esp+16], 1065353216 ; 3f800000H
  003fb	c7 44 24 0c 00
	00 c8 42	 mov	 DWORD PTR [esp+12], 1120403456 ; 42c80000H
  00403	c7 44 24 08 00
	00 00 00	 mov	 DWORD PTR [esp+8], 0
  0040b	f2 0f 11 04 24	 movsd	 QWORD PTR [esp], xmm0
  00410	50		 push	 eax
  00411	8d 87 50 0b 00
	00		 lea	 eax, DWORD PTR [edi+2896]
  00417	50		 push	 eax
  00418	e8 00 00 00 00	 call	 ?Initial_Spin@CBaseDialog@@IAEXAAVCNumSpinCtrl@@AAVCNumEdit@@NMMM@Z ; CBaseDialog::Initial_Spin

; 248  : 		}

  0041d	eb 44		 jmp	 SHORT $LN3@Initial
$LN86@Initial:

; 249  : 		else
; 250  : 		{
; 251  : 			while( psnCnd && i < 5)

  0041f	83 7d b8 00	 cmp	 DWORD PTR _psnCnd$5[ebp], 0
  00423	74 3e		 je	 SHORT $LN3@Initial
  00425	33 f6		 xor	 esi, esi
$LL2@Initial:
  00427	83 fe 14	 cmp	 esi, 20			; 00000014H
  0042a	7d 34		 jge	 SHORT $LN102@Initial

; 252  : 			{
; 253  : 				pIDblCnd->GetNext( psnCnd, dData);

  0042c	8b 03		 mov	 eax, DWORD PTR [ebx]
  0042e	8d 4d b0	 lea	 ecx, DWORD PTR _dData$4[ebp]
  00431	51		 push	 ecx
  00432	8d 4d b8	 lea	 ecx, DWORD PTR _psnCnd$5[ebp]
  00435	51		 push	 ecx
  00436	8b cb		 mov	 ecx, ebx
  00438	ff 50 3c	 call	 DWORD PTR [eax+60]

; 254  : 				Initial_Spin( *pspnValue[ i],  *pedtValue[ i], dData);

  0043b	f2 0f 10 45 b0	 movsd	 xmm0, QWORD PTR _dData$4[ebp]
  00440	83 ec 08	 sub	 esp, 8
  00443	8b cf		 mov	 ecx, edi
  00445	f2 0f 11 04 24	 movsd	 QWORD PTR [esp], xmm0
  0044a	ff 74 35 c0	 push	 DWORD PTR _pedtValue$6[ebp+esi]
  0044e	ff 74 35 dc	 push	 DWORD PTR _pspnValue$7[ebp+esi]
  00452	e8 00 00 00 00	 call	 ?Initial_Spin@CBaseDialog@@IAEXAAVCNumSpinCtrl@@AAVCNumEdit@@N@Z ; CBaseDialog::Initial_Spin

; 255  : 				i++;

  00457	83 c6 04	 add	 esi, 4
  0045a	83 7d b8 00	 cmp	 DWORD PTR _psnCnd$5[ebp], 0
  0045e	75 c7		 jne	 SHORT $LL2@Initial
$LN102@Initial:
  00460	8b 75 a4	 mov	 esi, DWORD PTR _szIndicatorName$3[ebp+4]
$LN3@Initial:

; 256  : 			}
; 257  : 		}
; 258  : //<< vntsorl(20090828)
; 259  : 		pIDblCnd->Release();

  00463	8b 03		 mov	 eax, DWORD PTR [ebx]
  00465	53		 push	 ebx
  00466	ff 50 08	 call	 DWORD PTR [eax+8]
; File D:\git\src\IBK\IBK_DRFN\ProjSrc\SrcChartEx\ChartAddIn\ChartEnvSetupDlgAddIn\Include_AddIn_135914\I135914\_IString.h

; 44   : 	{

  00469	c6 45 fc 03	 mov	 BYTE PTR __$EHRec$[ebp+8], 3

; 45   : 		if( m_pIStrData)

  0046d	85 f6		 test	 esi, esi
  0046f	74 06		 je	 SHORT $LN37@Initial

; 46   : 		{
; 47   : 			m_pIStrData->Release();

  00471	8b 06		 mov	 eax, DWORD PTR [esi]
  00473	56		 push	 esi
  00474	ff 50 08	 call	 DWORD PTR [eax+8]
$LN37@Initial:

; 48   : 			m_pIStrData = NULL;
; 49   : 			m_szData = NULL;
; 50   : 		}
; 51   : 	}

  00477	c6 45 fc 01	 mov	 BYTE PTR __$EHRec$[ebp+8], 1
$LN38@Initial:
; File D:\git\src\IBK\IBK_DRFN\ProjSrc\SrcChartEx\ChartAddIn\ChartEnvSetupDlgAddIn\ChartEnvSetupDlgAddIn\Setting_Common_Type_A.cpp

; 262  : 	SetStatePacketCombo( m_pIGraphInfo, m_cmbData, m_stcDataTitle);

  0047b	8d 87 98 0f 00
	00		 lea	 eax, DWORD PTR [edi+3992]
  00481	8b cf		 mov	 ecx, edi
  00483	50		 push	 eax
  00484	8d 87 28 12 00
	00		 lea	 eax, DWORD PTR [edi+4648]
  0048a	50		 push	 eax
  0048b	ff b7 c4 00 00
	00		 push	 DWORD PTR [edi+196]
  00491	e8 00 00 00 00	 call	 ?SetStatePacketCombo@CBaseDialog@@IAEHPAUIGraphInfo135914@@AAVCComboBox@@AAVCStatic@@@Z ; CBaseDialog::SetStatePacketCombo

; 263  : 
; 264  : 	// 2.  Dialog  Setting
; 265  : 	Init_Composition_Group();

  00496	8b cf		 mov	 ecx, edi
  00498	e8 00 00 00 00	 call	 ?Init_Composition_Group@CSetting_Common_Type_A@@AAEXXZ ; CSetting_Common_Type_A::Init_Composition_Group

; 267  : 	ILPCSTR szIndicatorName = m_pIGraphInfo->GetIndicatorNameString();

  0049d	8b 8f c4 00 00
	00		 mov	 ecx, DWORD PTR [edi+196]
  004a3	8b 01		 mov	 eax, DWORD PTR [ecx]
  004a5	ff 90 a4 00 00
	00		 call	 DWORD PTR [eax+164]
; File D:\git\src\IBK\IBK_DRFN\ProjSrc\SrcChartEx\ChartAddIn\ChartEnvSetupDlgAddIn\Include_AddIn_135914\I135914\_IString.h

; 39   : 		m_pIStrData = p_pIString;	// Do not AddRef(). Because It must be Return Value.

  004ab	8b d8		 mov	 ebx, eax
  004ad	89 5d a4	 mov	 DWORD PTR _szIndicatorName$[ebp+4], ebx

; 40   : 		if( m_pIStrData) m_szData = m_pIStrData->GetData();

  004b0	85 db		 test	 ebx, ebx
  004b2	74 09		 je	 SHORT $LN41@Initial
  004b4	8b 13		 mov	 edx, DWORD PTR [ebx]
  004b6	8b cb		 mov	 ecx, ebx
  004b8	ff 52 10	 call	 DWORD PTR [edx+16]
  004bb	eb 02		 jmp	 SHORT $LN105@Initial
$LN41@Initial:

; 41   : 		else m_szData = NULL;

  004bd	33 c0		 xor	 eax, eax
$LN105@Initial:
; File D:\git\src\IBK\IBK_DRFN\ProjSrc\SrcChartEx\ChartAddIn\ChartEnvSetupDlgAddIn\ChartEnvSetupDlgAddIn\Setting_Common_Type_A.cpp

; 267  : 	ILPCSTR szIndicatorName = m_pIGraphInfo->GetIndicatorNameString();

  004bf	89 45 a0	 mov	 DWORD PTR _szIndicatorName$[ebp], eax

; 268  : 	if( CheckSpecialCond( szIndicatorName))

  004c2	50		 push	 eax
  004c3	8b cf		 mov	 ecx, edi
  004c5	c6 45 fc 04	 mov	 BYTE PTR __$EHRec$[ebp+8], 4
  004c9	e8 00 00 00 00	 call	 ?CheckSpecialCond@CSetting_Common_Type_A@@AAEHPBD@Z ; CSetting_Common_Type_A::CheckSpecialCond
  004ce	8b cf		 mov	 ecx, edi
  004d0	85 c0		 test	 eax, eax
  004d2	74 0c		 je	 SHORT $LN18@Initial

; 269  : 	{
; 270  : 		UpdateData(FALSE);

  004d4	6a 00		 push	 0
  004d6	e8 00 00 00 00	 call	 ?UpdateData@CWnd@@QAEHH@Z ; CWnd::UpdateData
  004db	e9 d5 01 00 00	 jmp	 $LN79@Initial
$LN18@Initial:

; 271  : 		return;
; 272  : 	}
; 273  : 
; 274  : 	// 3.   Dialog  Setting
; 275  : 	Init_BaseLine_Group_Title();

  004e0	e8 00 00 00 00	 call	 ?Init_BaseLine_Group_Title@CSetting_Common_Type_A@@AAEXXZ ; CSetting_Common_Type_A::Init_BaseLine_Group_Title

; 761  : 	IDoubleList *pIDblBase = m_pIGraphInfo->GetBaseLineList();

  004e5	8b 8f c4 00 00
	00		 mov	 ecx, DWORD PTR [edi+196]
  004eb	8b 01		 mov	 eax, DWORD PTR [ecx]
  004ed	ff 50 28	 call	 DWORD PTR [eax+40]
  004f0	89 45 ac	 mov	 DWORD PTR _pIDblBase$1$[ebp], eax

; 762  : 	int nCount = 0;
; 763  : 	if( pIDblBase)

  004f3	85 c0		 test	 eax, eax
  004f5	74 20		 je	 SHORT $LN46@Initial

; 764  : 	{
; 765  : 		nCount = pIDblBase->GetCount();

  004f7	8b 10		 mov	 edx, DWORD PTR [eax]
  004f9	8b c8		 mov	 ecx, eax
  004fb	ff 52 10	 call	 DWORD PTR [edx+16]
  004fe	8b f0		 mov	 esi, eax

; 766  : 		pIDblBase->Release();

  00500	8b 45 ac	 mov	 eax, DWORD PTR _pIDblBase$1$[ebp]
  00503	50		 push	 eax
  00504	8b 08		 mov	 ecx, DWORD PTR [eax]
  00506	ff 51 08	 call	 DWORD PTR [ecx+8]

; 767  : 		if( nCount) return TRUE;

  00509	85 f6		 test	 esi, esi
  0050b	74 0a		 je	 SHORT $LN46@Initial
  0050d	b8 01 00 00 00	 mov	 eax, 1
  00512	e9 9f 00 00 00	 jmp	 $LN44@Initial
$LN46@Initial:

; 773  : 	ILPCSTR szIndicatorName = m_pIGraphInfo->GetIndicatorNameString();

  00517	8b 8f c4 00 00
	00		 mov	 ecx, DWORD PTR [edi+196]
  0051d	8b 01		 mov	 eax, DWORD PTR [ecx]
  0051f	ff 90 a4 00 00
	00		 call	 DWORD PTR [eax+164]
; File D:\git\src\IBK\IBK_DRFN\ProjSrc\SrcChartEx\ChartAddIn\ChartEnvSetupDlgAddIn\Include_AddIn_135914\I135914\_IString.h

; 39   : 		m_pIStrData = p_pIString;	// Do not AddRef(). Because It must be Return Value.

  00525	8b f0		 mov	 esi, eax
  00527	89 75 94	 mov	 DWORD PTR _szIndicatorName$2[ebp+4], esi

; 40   : 		if( m_pIStrData) m_szData = m_pIStrData->GetData();

  0052a	85 f6		 test	 esi, esi
  0052c	74 0b		 je	 SHORT $LN52@Initial
  0052e	8b 16		 mov	 edx, DWORD PTR [esi]
  00530	8b ce		 mov	 ecx, esi
  00532	ff 52 10	 call	 DWORD PTR [edx+16]
  00535	8b d0		 mov	 edx, eax
  00537	eb 02		 jmp	 SHORT $LN106@Initial
$LN52@Initial:

; 41   : 		else m_szData = NULL;

  00539	33 d2		 xor	 edx, edx
$LN106@Initial:
; File D:\git\src\IBK\IBK_DRFN\ProjSrc\SrcChartEx\ChartAddIn\ChartEnvSetupDlgAddIn\ChartEnvSetupDlgAddIn\Setting_Common_Type_A.cpp

; 773  : 	ILPCSTR szIndicatorName = m_pIGraphInfo->GetIndicatorNameString();

  0053b	89 55 90	 mov	 DWORD PTR _szIndicatorName$2[ebp], edx

; 774  : 	IGraphInfo* pDefaultInfo = m_pIGraphInfoManager->GetIndicatorInfo( IGraphInfoManager::IEILT_SITE_DEFAULT, szIndicatorName, IGraphInfoManager::IEIIGT_WITH_DEFAULT_GET);

  0053e	8b 8f bc 00 00
	00		 mov	 ecx, DWORD PTR [edi+188]
  00544	6a 01		 push	 1
  00546	52		 push	 edx
  00547	6a 00		 push	 0
  00549	8b 01		 mov	 eax, DWORD PTR [ecx]
  0054b	c6 45 fc 05	 mov	 BYTE PTR __$EHRec$[ebp+8], 5
  0054f	ff 50 18	 call	 DWORD PTR [eax+24]
  00552	8b c8		 mov	 ecx, eax
  00554	89 4d b4	 mov	 DWORD PTR _pDefaultInfo$1$[ebp], ecx

; 776  : 	if( !pDefaultInfo) return FALSE;

  00557	85 c9		 test	 ecx, ecx
  00559	75 12		 jne	 SHORT $LN47@Initial
; File D:\git\src\IBK\IBK_DRFN\ProjSrc\SrcChartEx\ChartAddIn\ChartEnvSetupDlgAddIn\Include_AddIn_135914\I135914\_IString.h

; 44   : 	{

  0055b	c6 45 fc 06	 mov	 BYTE PTR __$EHRec$[ebp+8], 6

; 45   : 		if( m_pIStrData)

  0055f	85 f6		 test	 esi, esi
  00561	74 06		 je	 SHORT $LN56@Initial

; 46   : 		{
; 47   : 			m_pIStrData->Release();

  00563	8b 06		 mov	 eax, DWORD PTR [esi]
  00565	56		 push	 esi
  00566	ff 50 08	 call	 DWORD PTR [eax+8]
$LN56@Initial:
; File D:\git\src\IBK\IBK_DRFN\ProjSrc\SrcChartEx\ChartAddIn\ChartEnvSetupDlgAddIn\ChartEnvSetupDlgAddIn\Setting_Common_Type_A.cpp

; 776  : 	if( !pDefaultInfo) return FALSE;

  00569	33 c0		 xor	 eax, eax
  0056b	eb 45		 jmp	 SHORT $LN107@Initial
$LN47@Initial:

; 777  : 	pIDblBase = pDefaultInfo->GetBaseLineList();

  0056d	8b 01		 mov	 eax, DWORD PTR [ecx]
  0056f	ff 50 28	 call	 DWORD PTR [eax+40]
  00572	89 45 b8	 mov	 DWORD PTR _pIDblBase$2$[ebp], eax

; 778  : 	nCount = 0;

  00575	c7 45 ac 00 00
	00 00		 mov	 DWORD PTR _nCount$2$[ebp], 0

; 779  : 	if( pIDblBase)

  0057c	85 c0		 test	 eax, eax
  0057e	74 13		 je	 SHORT $LN48@Initial

; 780  : 	{
; 781  : 		nCount = pIDblBase->GetCount();

  00580	8b 10		 mov	 edx, DWORD PTR [eax]
  00582	8b c8		 mov	 ecx, eax
  00584	ff 52 10	 call	 DWORD PTR [edx+16]
  00587	89 45 ac	 mov	 DWORD PTR _nCount$2$[ebp], eax

; 782  : 		pIDblBase->Release();

  0058a	8b 45 b8	 mov	 eax, DWORD PTR _pIDblBase$2$[ebp]
  0058d	50		 push	 eax
  0058e	8b 08		 mov	 ecx, DWORD PTR [eax]
  00590	ff 51 08	 call	 DWORD PTR [ecx+8]
$LN48@Initial:

; 783  : 	}
; 784  : 	pDefaultInfo->Release();

  00593	8b 45 b4	 mov	 eax, DWORD PTR _pDefaultInfo$1$[ebp]
  00596	50		 push	 eax
  00597	8b 08		 mov	 ecx, DWORD PTR [eax]
  00599	ff 51 08	 call	 DWORD PTR [ecx+8]
; File D:\git\src\IBK\IBK_DRFN\ProjSrc\SrcChartEx\ChartAddIn\ChartEnvSetupDlgAddIn\Include_AddIn_135914\I135914\_IString.h

; 44   : 	{

  0059c	c6 45 fc 07	 mov	 BYTE PTR __$EHRec$[ebp+8], 7

; 45   : 		if( m_pIStrData)

  005a0	85 f6		 test	 esi, esi
  005a2	74 06		 je	 SHORT $LN60@Initial

; 46   : 		{
; 47   : 			m_pIStrData->Release();

  005a4	8b 06		 mov	 eax, DWORD PTR [esi]
  005a6	56		 push	 esi
  005a7	ff 50 08	 call	 DWORD PTR [eax+8]
$LN60@Initial:
; File D:\git\src\IBK\IBK_DRFN\ProjSrc\SrcChartEx\ChartAddIn\ChartEnvSetupDlgAddIn\ChartEnvSetupDlgAddIn\Setting_Common_Type_A.cpp

; 785  : 	return 0 < nCount;

  005aa	33 c0		 xor	 eax, eax
  005ac	39 45 ac	 cmp	 DWORD PTR _nCount$2$[ebp], eax
  005af	0f 9f c0	 setg	 al
$LN107@Initial:

; 276  : 	UseBaseLineGroup( IsShowBaseLineList());

  005b2	c6 45 fc 04	 mov	 BYTE PTR __$EHRec$[ebp+8], 4
$LN44@Initial:
  005b6	50		 push	 eax
  005b7	8b cf		 mov	 ecx, edi
  005b9	e8 00 00 00 00	 call	 ?UseBaseLineGroup@CSetting_Common_Type_A@@AAEXH@Z ; CSetting_Common_Type_A::UseBaseLineGroup

; 1150 : 	if( m_pIGraphInfo->GetSubGraphType( m_nSubGraphIndex) != CGraphBaseData::Bar_Type) 

  005be	8b 8f c4 00 00
	00		 mov	 ecx, DWORD PTR [edi+196]
  005c4	ff b7 cc 14 00
	00		 push	 DWORD PTR [edi+5324]
  005ca	8b 01		 mov	 eax, DWORD PTR [ecx]
  005cc	ff 50 50	 call	 DWORD PTR [eax+80]
  005cf	83 f8 02	 cmp	 eax, 2
  005d2	74 24		 je	 SHORT $LN64@Initial

; 1106 : 		GetDlgItem( IDC_STATIC_COMPCOLOR )->ShowWindow( SW_HIDE );

  005d4	6a 00		 push	 0
  005d6	68 62 1f 00 00	 push	 8034			; 00001f62H
  005db	8b cf		 mov	 ecx, edi
  005dd	e8 00 00 00 00	 call	 ?GetDlgItem@CWnd@@QBEPAV1@H@Z ; CWnd::GetDlgItem
  005e2	8b c8		 mov	 ecx, eax
  005e4	e8 00 00 00 00	 call	 ?ShowWindow@CWnd@@QAEHH@Z ; CWnd::ShowWindow

; 1107 : 		m_cmbCompColor.ShowWindow( SW_HIDE );

  005e9	6a 00		 push	 0
  005eb	8d 8f f8 00 00
	00		 lea	 ecx, DWORD PTR [edi+248]
  005f1	e8 00 00 00 00	 call	 ?ShowWindow@CWnd@@QAEHH@Z ; CWnd::ShowWindow

; 1153 : 		return;

  005f6	eb 3a		 jmp	 SHORT $LN63@Initial
$LN64@Initial:

; 1154 : 	}
; 1155 : 
; 1156 : 	int nPaintStyle = m_pIGraphInfo->GetSubGraphPaintStyle(m_nSubGraphIndex);

  005f8	8b 8f c4 00 00
	00		 mov	 ecx, DWORD PTR [edi+196]
  005fe	ff b7 cc 14 00
	00		 push	 DWORD PTR [edi+5324]
  00604	8b 01		 mov	 eax, DWORD PTR [ecx]
  00606	ff 90 c8 00 00
	00		 call	 DWORD PTR [eax+200]

; 1157 : 	if(m_bUseMultiplePriceData || nPaintStyle < 0)

  0060c	80 bf c8 00 00
	00 00		 cmp	 BYTE PTR [edi+200], 0
  00613	75 04		 jne	 SHORT $LN66@Initial
  00615	85 c0		 test	 eax, eax
  00617	79 05		 jns	 SHORT $LN65@Initial
$LN66@Initial:

; 1158 : 		nPaintStyle = 1;		//  

  00619	b8 01 00 00 00	 mov	 eax, 1
$LN65@Initial:
; File C:\Program Files (x86)\Microsoft Visual Studio\2019\Community\VC\Tools\MSVC\14.29.30133\atlmfc\include\afxwin2.inl

; 767  : 	{ ASSERT(::IsWindow(m_hWnd)); return (int)::SendMessage(m_hWnd, CB_SETCURSEL, nSelect, 0); }

  0061e	6a 00		 push	 0
  00620	50		 push	 eax
  00621	68 4e 01 00 00	 push	 334			; 0000014eH
  00626	ff b7 18 01 00
	00		 push	 DWORD PTR [edi+280]
  0062c	ff 15 00 00 00
	00		 call	 DWORD PTR __imp__SendMessageA@16
$LN63@Initial:
; File D:\git\src\IBK\IBK_DRFN\ProjSrc\SrcChartEx\ChartAddIn\ChartEnvSetupDlgAddIn\ChartEnvSetupDlgAddIn\Setting_Common_Type_A.cpp

; 281  : 	ILPCSTR szGraphName = m_pIGraphInfo->GetGraphNameString();

  00632	8b 8f c4 00 00
	00		 mov	 ecx, DWORD PTR [edi+196]
  00638	8b 01		 mov	 eax, DWORD PTR [ecx]
  0063a	ff 90 a0 00 00
	00		 call	 DWORD PTR [eax+160]
; File D:\git\src\IBK\IBK_DRFN\ProjSrc\SrcChartEx\ChartAddIn\ChartEnvSetupDlgAddIn\Include_AddIn_135914\I135914\_IString.h

; 39   : 		m_pIStrData = p_pIString;	// Do not AddRef(). Because It must be Return Value.

  00640	8b f0		 mov	 esi, eax
  00642	89 75 94	 mov	 DWORD PTR _szGraphName$[ebp+4], esi

; 40   : 		if( m_pIStrData) m_szData = m_pIStrData->GetData();

  00645	85 f6		 test	 esi, esi
  00647	74 0b		 je	 SHORT $LN75@Initial
  00649	8b 16		 mov	 edx, DWORD PTR [esi]
  0064b	8b ce		 mov	 ecx, esi
  0064d	ff 52 10	 call	 DWORD PTR [edx+16]
  00650	8b c8		 mov	 ecx, eax
  00652	eb 02		 jmp	 SHORT $LN108@Initial
$LN75@Initial:

; 41   : 		else m_szData = NULL;

  00654	33 c9		 xor	 ecx, ecx
$LN108@Initial:
; File D:\git\src\IBK\IBK_DRFN\ProjSrc\SrcChartEx\ChartAddIn\ChartEnvSetupDlgAddIn\ChartEnvSetupDlgAddIn\Setting_Common_Type_A.cpp

; 281  : 	ILPCSTR szGraphName = m_pIGraphInfo->GetGraphNameString();

  00656	89 4d 90	 mov	 DWORD PTR _szGraphName$[ebp], ecx

; 282  : 	if(!strcmp( szGraphName,  _MTEXT( C2_LINE_PRICE_MA )))

  00659	a1 54 00 00 00	 mov	 eax, DWORD PTR ?g_iMetaTable@@3VIMetaTable@@A+84
  0065e	c6 45 fc 08	 mov	 BYTE PTR __$EHRec$[ebp+8], 8
  00662	8b 80 40 0d 00
	00		 mov	 eax, DWORD PTR [eax+3392]
$LL98@Initial:
  00668	8a 11		 mov	 dl, BYTE PTR [ecx]
  0066a	3a 10		 cmp	 dl, BYTE PTR [eax]
  0066c	75 1a		 jne	 SHORT $LN99@Initial
  0066e	84 d2		 test	 dl, dl
  00670	74 12		 je	 SHORT $LN100@Initial
  00672	8a 51 01	 mov	 dl, BYTE PTR [ecx+1]
  00675	3a 50 01	 cmp	 dl, BYTE PTR [eax+1]
  00678	75 0e		 jne	 SHORT $LN99@Initial
  0067a	83 c1 02	 add	 ecx, 2
  0067d	83 c0 02	 add	 eax, 2
  00680	84 d2		 test	 dl, dl
  00682	75 e4		 jne	 SHORT $LL98@Initial
$LN100@Initial:
  00684	33 c0		 xor	 eax, eax
  00686	eb 05		 jmp	 SHORT $LN101@Initial
$LN99@Initial:
  00688	1b c0		 sbb	 eax, eax
  0068a	83 c8 01	 or	 eax, 1
$LN101@Initial:
  0068d	85 c0		 test	 eax, eax
  0068f	75 0d		 jne	 SHORT $LN19@Initial

; 283  : 		m_cmbLineType.EnableWindow(TRUE);

  00691	6a 01		 push	 1
  00693	8d 8f 20 11 00
	00		 lea	 ecx, DWORD PTR [edi+4384]
  00699	e8 00 00 00 00	 call	 ?EnableWindow@CWnd@@QAEHH@Z ; CWnd::EnableWindow
$LN19@Initial:

; 284  : 
; 285  : 	UpdateData(FALSE);

  0069e	6a 00		 push	 0
  006a0	8b cf		 mov	 ecx, edi
  006a2	e8 00 00 00 00	 call	 ?UpdateData@CWnd@@QAEHH@Z ; CWnd::UpdateData
; File D:\git\src\IBK\IBK_DRFN\ProjSrc\SrcChartEx\ChartAddIn\ChartEnvSetupDlgAddIn\Include_AddIn_135914\I135914\_IString.h

; 44   : 	{

  006a7	c6 45 fc 09	 mov	 BYTE PTR __$EHRec$[ebp+8], 9

; 45   : 		if( m_pIStrData)

  006ab	85 f6		 test	 esi, esi
  006ad	74 06		 je	 SHORT $LN79@Initial

; 46   : 		{
; 47   : 			m_pIStrData->Release();

  006af	8b 06		 mov	 eax, DWORD PTR [esi]
  006b1	56		 push	 esi
  006b2	ff 50 08	 call	 DWORD PTR [eax+8]
$LN79@Initial:

; 44   : 	{

  006b5	c6 45 fc 0a	 mov	 BYTE PTR __$EHRec$[ebp+8], 10 ; 0000000aH

; 45   : 		if( m_pIStrData)

  006b9	85 db		 test	 ebx, ebx
  006bb	74 06		 je	 SHORT $LN83@Initial

; 46   : 		{
; 47   : 			m_pIStrData->Release();

  006bd	8b 03		 mov	 eax, DWORD PTR [ebx]
  006bf	53		 push	 ebx
  006c0	ff 50 08	 call	 DWORD PTR [eax+8]
$LN83@Initial:
; File D:\git\src\IBK\IBK_DRFN\ProjSrc\SrcChartEx\ChartAddIn\ChartEnvSetupDlgAddIn\ChartEnvSetupDlgAddIn\Setting_Common_Type_A.cpp

; 286  : }

  006c3	8d 4d 98	 lea	 ecx, DWORD PTR _strResult$[ebp]
  006c6	ff 15 00 00 00
	00		 call	 DWORD PTR __imp_??1?$CStringT@DV?$StrTraitMFC_DLL@DV?$ChTraitsCRT@D@ATL@@@@@ATL@@QAE@XZ
  006cc	8d 4d a8	 lea	 ecx, DWORD PTR _strType$[ebp]
  006cf	ff 15 00 00 00
	00		 call	 DWORD PTR __imp_??1?$CStringT@DV?$StrTraitMFC_DLL@DV?$ChTraitsCRT@D@ATL@@@@@ATL@@QAE@XZ
$LN5@Initial:
  006d5	8b 4d f4	 mov	 ecx, DWORD PTR __$EHRec$[ebp]
  006d8	64 89 0d 00 00
	00 00		 mov	 DWORD PTR fs:0, ecx
  006df	59		 pop	 ecx
  006e0	5f		 pop	 edi
  006e1	5e		 pop	 esi
  006e2	5b		 pop	 ebx
  006e3	8b 4d f0	 mov	 ecx, DWORD PTR __$ArrayPad$[ebp]
  006e6	33 cd		 xor	 ecx, ebp
  006e8	e8 00 00 00 00	 call	 @__security_check_cookie@4
  006ed	8b e5		 mov	 esp, ebp
  006ef	5d		 pop	 ebp
  006f0	c2 04 00	 ret	 4
_TEXT	ENDS
;	COMDAT text$x
text$x	SEGMENT
__unwindfunclet$?Initial@CSetting_Common_Type_A@@UAEXPAUIGraphInfo135914@@@Z$0:
  00000	8d 4d a8	 lea	 ecx, DWORD PTR _strType$[ebp]
  00003	ff 25 00 00 00
	00		 jmp	 DWORD PTR __imp_??1?$CStringT@DV?$StrTraitMFC_DLL@DV?$ChTraitsCRT@D@ATL@@@@@ATL@@QAE@XZ
__unwindfunclet$?Initial@CSetting_Common_Type_A@@UAEXPAUIGraphInfo135914@@@Z$3:
  00009	8d 4d 98	 lea	 ecx, DWORD PTR _strResult$[ebp]
  0000c	ff 25 00 00 00
	00		 jmp	 DWORD PTR __imp_??1?$CStringT@DV?$StrTraitMFC_DLL@DV?$ChTraitsCRT@D@ATL@@@@@ATL@@QAE@XZ
__unwindfunclet$?Initial@CSetting_Common_Type_A@@UAEXPAUIGraphInfo135914@@@Z$5:
  00012	8d 4d a0	 lea	 ecx, DWORD PTR _szIndicatorName$3[ebp]
  00015	e9 00 00 00 00	 jmp	 ??1ILPCSTR135914@@QAE@XZ ; ILPCSTR135914::~ILPCSTR135914
__unwindfunclet$?Initial@CSetting_Common_Type_A@@UAEXPAUIGraphInfo135914@@@Z$6:
  0001a	8d 4d a0	 lea	 ecx, DWORD PTR _szIndicatorName$[ebp]
  0001d	e9 00 00 00 00	 jmp	 ??1ILPCSTR135914@@QAE@XZ ; ILPCSTR135914::~ILPCSTR135914
__unwindfunclet$?Initial@CSetting_Common_Type_A@@UAEXPAUIGraphInfo135914@@@Z$9:
  00022	8d 4d 90	 lea	 ecx, DWORD PTR _szIndicatorName$2[ebp]
  00025	e9 00 00 00 00	 jmp	 ??1ILPCSTR135914@@QAE@XZ ; ILPCSTR135914::~ILPCSTR135914
__unwindfunclet$?Initial@CSetting_Common_Type_A@@UAEXPAUIGraphInfo135914@@@Z$7:
  0002a	8d 4d 90	 lea	 ecx, DWORD PTR _szGraphName$[ebp]
  0002d	e9 00 00 00 00	 jmp	 ??1ILPCSTR135914@@QAE@XZ ; ILPCSTR135914::~ILPCSTR135914
  00032	cc		 int	 3
  00033	cc		 int	 3
  00034	cc		 int	 3
  00035	cc		 int	 3
  00036	cc		 int	 3
__ehhandler$?Initial@CSetting_Common_Type_A@@UAEXPAUIGraphInfo135914@@@Z:
  00037	90		 npad	 1
  00038	90		 npad	 1
  00039	8b 54 24 08	 mov	 edx, DWORD PTR [esp+8]
  0003d	8d 42 0c	 lea	 eax, DWORD PTR [edx+12]
  00040	8b 4a 88	 mov	 ecx, DWORD PTR [edx-120]
  00043	33 c8		 xor	 ecx, eax
  00045	e8 00 00 00 00	 call	 @__security_check_cookie@4
  0004a	8b 4a fc	 mov	 ecx, DWORD PTR [edx-4]
  0004d	33 c8		 xor	 ecx, eax
  0004f	e8 00 00 00 00	 call	 @__security_check_cookie@4
  00054	b8 00 00 00 00	 mov	 eax, OFFSET __ehfuncinfo$?Initial@CSetting_Common_Type_A@@UAEXPAUIGraphInfo135914@@@Z
  00059	e9 00 00 00 00	 jmp	 ___CxxFrameHandler3
text$x	ENDS
?Initial@CSetting_Common_Type_A@@UAEXPAUIGraphInfo135914@@@Z ENDP ; CSetting_Common_Type_A::Initial
; Function compile flags: /Ogtp
; File D:\git\src\IBK\IBK_DRFN\ProjSrc\SrcChartEx\ChartAddIn\ChartEnvSetupDlgAddIn\ChartEnvSetupDlgAddIn\Setting_Common_Type_A.cpp
;	COMDAT ??1CSetting_Common_Type_A@@UAE@XZ
_TEXT	SEGMENT
??1CSetting_Common_Type_A@@UAE@XZ PROC			; CSetting_Common_Type_A::~CSetting_Common_Type_A, COMDAT
; _this$ = ecx

; 46   : {

  00000	56		 push	 esi
  00001	8b f1		 mov	 esi, ecx

; 47   : }

  00003	8d 8e c8 14 00
	00		 lea	 ecx, DWORD PTR [esi+5320]
  00009	c7 06 00 00 00
	00		 mov	 DWORD PTR [esi], OFFSET ??_7CSetting_Common_Type_A@@6B@
  0000f	ff 15 00 00 00
	00		 call	 DWORD PTR __imp_??1?$CStringT@DV?$StrTraitMFC_DLL@DV?$ChTraitsCRT@D@ATL@@@@@ATL@@QAE@XZ
  00015	8d 8e 40 14 00
	00		 lea	 ecx, DWORD PTR [esi+5184]
  0001b	e8 00 00 00 00	 call	 ??1CBitmapItemComboBox@@UAE@XZ ; CBitmapItemComboBox::~CBitmapItemComboBox
  00020	8d 8e b8 13 00
	00		 lea	 ecx, DWORD PTR [esi+5048]
  00026	e8 00 00 00 00	 call	 ??1CBitmapItemComboBox@@UAE@XZ ; CBitmapItemComboBox::~CBitmapItemComboBox
  0002b	8d 8e 30 13 00
	00		 lea	 ecx, DWORD PTR [esi+4912]
  00031	e8 00 00 00 00	 call	 ??1CListCtrl@@UAE@XZ	; CListCtrl::~CListCtrl
  00036	8d 8e a8 12 00
	00		 lea	 ecx, DWORD PTR [esi+4776]
  0003c	e8 00 00 00 00	 call	 ??1CColorButton@@UAE@XZ	; CColorButton::~CColorButton
  00041	8d 8e 28 12 00
	00		 lea	 ecx, DWORD PTR [esi+4648]
  00047	e8 00 00 00 00	 call	 ??1CComboBox@@UAE@XZ	; CComboBox::~CComboBox
  0004c	8d 8e a8 11 00
	00		 lea	 ecx, DWORD PTR [esi+4520]
  00052	e8 00 00 00 00	 call	 ??1CStatic@@UAE@XZ	; CStatic::~CStatic
  00057	8d 8e 20 11 00
	00		 lea	 ecx, DWORD PTR [esi+4384]
  0005d	e8 00 00 00 00	 call	 ??1CBitmapItemComboBox@@UAE@XZ ; CBitmapItemComboBox::~CBitmapItemComboBox
  00062	8d 8e 98 10 00
	00		 lea	 ecx, DWORD PTR [esi+4248]
  00068	e8 00 00 00 00	 call	 ??1CBitmapItemComboBox@@UAE@XZ ; CBitmapItemComboBox::~CBitmapItemComboBox
  0006d	8d 8e 18 10 00
	00		 lea	 ecx, DWORD PTR [esi+4120]
  00073	e8 00 00 00 00	 call	 ??1CEdit@@UAE@XZ	; CEdit::~CEdit
  00078	8d 8e 98 0f 00
	00		 lea	 ecx, DWORD PTR [esi+3992]
  0007e	e8 00 00 00 00	 call	 ??1CStatic@@UAE@XZ	; CStatic::~CStatic
  00083	8d 8e f0 0e 00
	00		 lea	 ecx, DWORD PTR [esi+3824]
  00089	e8 00 00 00 00	 call	 ??1CNumEdit@@UAE@XZ	; CNumEdit::~CNumEdit
  0008e	8d 8e 48 0e 00
	00		 lea	 ecx, DWORD PTR [esi+3656]
  00094	e8 00 00 00 00	 call	 ??1CNumEdit@@UAE@XZ	; CNumEdit::~CNumEdit
  00099	8d 8e a0 0d 00
	00		 lea	 ecx, DWORD PTR [esi+3488]
  0009f	e8 00 00 00 00	 call	 ??1CNumEdit@@UAE@XZ	; CNumEdit::~CNumEdit
  000a4	8d 8e f8 0c 00
	00		 lea	 ecx, DWORD PTR [esi+3320]
  000aa	e8 00 00 00 00	 call	 ??1CNumEdit@@UAE@XZ	; CNumEdit::~CNumEdit
  000af	8d 8e 50 0c 00
	00		 lea	 ecx, DWORD PTR [esi+3152]
  000b5	e8 00 00 00 00	 call	 ??1CNumEdit@@UAE@XZ	; CNumEdit::~CNumEdit
  000ba	8d 8e d0 0b 00
	00		 lea	 ecx, DWORD PTR [esi+3024]
  000c0	e8 00 00 00 00	 call	 ??1CNumSpinCtrl@@UAE@XZ	; CNumSpinCtrl::~CNumSpinCtrl
  000c5	8d 8e 50 0b 00
	00		 lea	 ecx, DWORD PTR [esi+2896]
  000cb	e8 00 00 00 00	 call	 ??1CNumSpinCtrl@@UAE@XZ	; CNumSpinCtrl::~CNumSpinCtrl
  000d0	8d 8e d0 0a 00
	00		 lea	 ecx, DWORD PTR [esi+2768]
  000d6	e8 00 00 00 00	 call	 ??1CNumSpinCtrl@@UAE@XZ	; CNumSpinCtrl::~CNumSpinCtrl
  000db	8d 8e 50 0a 00
	00		 lea	 ecx, DWORD PTR [esi+2640]
  000e1	e8 00 00 00 00	 call	 ??1CNumSpinCtrl@@UAE@XZ	; CNumSpinCtrl::~CNumSpinCtrl
  000e6	8d 8e d0 09 00
	00		 lea	 ecx, DWORD PTR [esi+2512]
  000ec	e8 00 00 00 00	 call	 ??1CNumSpinCtrl@@UAE@XZ	; CNumSpinCtrl::~CNumSpinCtrl
  000f1	8d 8e 50 09 00
	00		 lea	 ecx, DWORD PTR [esi+2384]
  000f7	e8 00 00 00 00	 call	 ??1CStatic@@UAE@XZ	; CStatic::~CStatic
  000fc	8d 8e d0 08 00
	00		 lea	 ecx, DWORD PTR [esi+2256]
  00102	e8 00 00 00 00	 call	 ??1CStatic@@UAE@XZ	; CStatic::~CStatic
  00107	8d 8e 50 08 00
	00		 lea	 ecx, DWORD PTR [esi+2128]
  0010d	e8 00 00 00 00	 call	 ??1CStatic@@UAE@XZ	; CStatic::~CStatic
  00112	8d 8e d0 07 00
	00		 lea	 ecx, DWORD PTR [esi+2000]
  00118	e8 00 00 00 00	 call	 ??1CStatic@@UAE@XZ	; CStatic::~CStatic
  0011d	8d 8e 50 07 00
	00		 lea	 ecx, DWORD PTR [esi+1872]
  00123	e8 00 00 00 00	 call	 ??1CStatic@@UAE@XZ	; CStatic::~CStatic
  00128	8d 8e c8 06 00
	00		 lea	 ecx, DWORD PTR [esi+1736]
  0012e	e8 00 00 00 00	 call	 ??1CColorButton@@UAE@XZ	; CColorButton::~CColorButton
  00133	8d 8e 20 06 00
	00		 lea	 ecx, DWORD PTR [esi+1568]
  00139	e8 00 00 00 00	 call	 ??1CNumEdit@@UAE@XZ	; CNumEdit::~CNumEdit
  0013e	8d 8e a0 05 00
	00		 lea	 ecx, DWORD PTR [esi+1440]
  00144	e8 00 00 00 00	 call	 ??1CBaseListBox@@UAE@XZ	; CBaseListBox::~CBaseListBox
  00149	8d 8e 20 05 00
	00		 lea	 ecx, DWORD PTR [esi+1312]
  0014f	e8 00 00 00 00	 call	 ??1CButton@@UAE@XZ	; CButton::~CButton
  00154	8d 8e a0 04 00
	00		 lea	 ecx, DWORD PTR [esi+1184]
  0015a	e8 00 00 00 00	 call	 ??1CNumSpinCtrl@@UAE@XZ	; CNumSpinCtrl::~CNumSpinCtrl
  0015f	8d 8e 18 04 00
	00		 lea	 ecx, DWORD PTR [esi+1048]
  00165	e8 00 00 00 00	 call	 ??1CColorButton@@UAE@XZ	; CColorButton::~CColorButton
  0016a	8d 8e 90 03 00
	00		 lea	 ecx, DWORD PTR [esi+912]
  00170	e8 00 00 00 00	 call	 ??1CColorButton@@UAE@XZ	; CColorButton::~CColorButton
  00175	8d 8e 08 03 00
	00		 lea	 ecx, DWORD PTR [esi+776]
  0017b	e8 00 00 00 00	 call	 ??1CColorButton@@UAE@XZ	; CColorButton::~CColorButton
  00180	8d 8e 80 02 00
	00		 lea	 ecx, DWORD PTR [esi+640]
  00186	e8 00 00 00 00	 call	 ??1CColorButton@@UAE@XZ	; CColorButton::~CColorButton
  0018b	8d 8e f8 01 00
	00		 lea	 ecx, DWORD PTR [esi+504]
  00191	e8 00 00 00 00	 call	 ??1CColorButton@@UAE@XZ	; CColorButton::~CColorButton
  00196	8d 8e 78 01 00
	00		 lea	 ecx, DWORD PTR [esi+376]
  0019c	e8 00 00 00 00	 call	 ??1CButton@@UAE@XZ	; CButton::~CButton
  001a1	8d 8e f8 00 00
	00		 lea	 ecx, DWORD PTR [esi+248]
  001a7	e8 00 00 00 00	 call	 ??1CComboBox@@UAE@XZ	; CComboBox::~CComboBox
  001ac	8b ce		 mov	 ecx, esi
  001ae	5e		 pop	 esi
  001af	e9 00 00 00 00	 jmp	 ??1CBaseDialog@@UAE@XZ	; CBaseDialog::~CBaseDialog
??1CSetting_Common_Type_A@@UAE@XZ ENDP			; CSetting_Common_Type_A::~CSetting_Common_Type_A
_TEXT	ENDS
; Function compile flags: /Ogtp
; File D:\git\src\IBK\IBK_DRFN\ProjSrc\SrcChartEx\ChartAddIn\ChartEnvSetupDlgAddIn\ChartEnvSetupDlgAddIn\Setting_Common_Type_A.cpp
; File C:\Program Files (x86)\Microsoft Visual Studio\2019\Community\VC\Tools\MSVC\14.29.30133\atlmfc\include\afxwin2.inl
; File D:\git\src\IBK\IBK_DRFN\ProjSrc\SrcChartEx\ChartAddIn\ChartEnvSetupDlgAddIn\ChartEnvSetupDlgAddIn\Setting_Common_Type_A.cpp
; File C:\Program Files (x86)\Microsoft Visual Studio\2019\Community\VC\Tools\MSVC\14.29.30133\atlmfc\include\afxwin2.inl
; File D:\git\src\IBK\IBK_DRFN\ProjSrc\SrcChartEx\ChartAddIn\ChartEnvSetupDlgAddIn\ChartEnvSetupDlgAddIn\Setting_Common_Type_A.cpp
; File C:\Program Files (x86)\Microsoft Visual Studio\2019\Community\VC\Tools\MSVC\14.29.30133\atlmfc\include\afxwin2.inl
; File D:\git\src\IBK\IBK_DRFN\ProjSrc\SrcChartEx\ChartAddIn\ChartEnvSetupDlgAddIn\ChartEnvSetupDlgAddIn\Setting_Common_Type_A.cpp
; File C:\Program Files (x86)\Microsoft Visual Studio\2019\Community\VC\Tools\MSVC\14.29.30133\atlmfc\include\afxwin2.inl
; File D:\git\src\IBK\IBK_DRFN\ProjSrc\SrcChartEx\ChartAddIn\ChartEnvSetupDlgAddIn\ChartEnvSetupDlgAddIn\Setting_Common_Type_A.cpp
; File C:\Program Files (x86)\Microsoft Visual Studio\2019\Community\VC\Tools\MSVC\14.29.30133\atlmfc\include\afxwin2.inl
; File D:\git\src\IBK\IBK_DRFN\ProjSrc\SrcChartEx\ChartAddIn\ChartEnvSetupDlgAddIn\ChartEnvSetupDlgAddIn\Setting_Common_Type_A.cpp
; File C:\Program Files (x86)\Microsoft Visual Studio\2019\Community\VC\Tools\MSVC\14.29.30133\atlmfc\include\afxwin2.inl
; File D:\git\src\IBK\IBK_DRFN\ProjSrc\SrcChartEx\ChartAddIn\ChartEnvSetupDlgAddIn\ChartEnvSetupDlgAddIn\Setting_Common_Type_A.cpp
; File C:\Program Files (x86)\Microsoft Visual Studio\2019\Community\VC\Tools\MSVC\14.29.30133\atlmfc\include\afxwin2.inl
; File D:\git\src\IBK\IBK_DRFN\ProjSrc\SrcChartEx\ChartAddIn\ChartEnvSetupDlgAddIn\ChartEnvSetupDlgAddIn\Setting_Common_Type_A.cpp
; File C:\Program Files (x86)\Microsoft Visual Studio\2019\Community\VC\Tools\MSVC\14.29.30133\atlmfc\include\afxwin2.inl
; File D:\git\src\IBK\IBK_DRFN\ProjSrc\SrcChartEx\ChartAddIn\ChartEnvSetupDlgAddIn\ChartEnvSetupDlgAddIn\Setting_Common_Type_A.cpp
; File C:\Program Files (x86)\Microsoft Visual Studio\2019\Community\VC\Tools\MSVC\14.29.30133\atlmfc\include\afxwin2.inl
; File D:\git\src\IBK\IBK_DRFN\ProjSrc\SrcChartEx\ChartAddIn\ChartEnvSetupDlgAddIn\ChartEnvSetupDlgAddIn\Setting_Common_Type_A.cpp
; File C:\Program Files (x86)\Microsoft Visual Studio\2019\Community\VC\Tools\MSVC\14.29.30133\atlmfc\include\afxwin2.inl
; File D:\git\src\IBK\IBK_DRFN\ProjSrc\SrcChartEx\ChartAddIn\ChartEnvSetupDlgAddIn\ChartEnvSetupDlgAddIn\Setting_Common_Type_A.cpp
; File C:\Program Files (x86)\Microsoft Visual Studio\2019\Community\VC\Tools\MSVC\14.29.30133\atlmfc\include\afxwin2.inl
; File D:\git\src\IBK\IBK_DRFN\ProjSrc\SrcChartEx\ChartAddIn\ChartEnvSetupDlgAddIn\ChartEnvSetupDlgAddIn\Setting_Common_Type_A.cpp
; File C:\Program Files (x86)\Microsoft Visual Studio\2019\Community\VC\Tools\MSVC\14.29.30133\atlmfc\include\afxwin2.inl
; File D:\git\src\IBK\IBK_DRFN\ProjSrc\SrcChartEx\ChartAddIn\ChartEnvSetupDlgAddIn\ChartEnvSetupDlgAddIn\Setting_Common_Type_A.cpp
; File C:\Program Files (x86)\Microsoft Visual Studio\2019\Community\VC\Tools\MSVC\14.29.30133\atlmfc\include\afxwin2.inl
; File D:\git\src\IBK\IBK_DRFN\ProjSrc\SrcChartEx\ChartAddIn\ChartEnvSetupDlgAddIn\ChartEnvSetupDlgAddIn\Setting_Common_Type_A.cpp
; File C:\Program Files (x86)\Microsoft Visual Studio\2019\Community\VC\Tools\MSVC\14.29.30133\atlmfc\include\afxwin2.inl
; File D:\git\src\IBK\IBK_DRFN\ProjSrc\SrcChartEx\ChartAddIn\ChartEnvSetupDlgAddIn\ChartEnvSetupDlgAddIn\Setting_Common_Type_A.cpp
; File C:\Program Files (x86)\Microsoft Visual Studio\2019\Community\VC\Tools\MSVC\14.29.30133\atlmfc\include\afxwin2.inl
; File D:\git\src\IBK\IBK_DRFN\ProjSrc\SrcChartEx\ChartAddIn\ChartEnvSetupDlgAddIn\ChartEnvSetupDlgAddIn\Setting_Common_Type_A.cpp
; File C:\Program Files (x86)\Microsoft Visual Studio\2019\Community\VC\Tools\MSVC\14.29.30133\atlmfc\include\afxwin2.inl
; File D:\git\src\IBK\IBK_DRFN\ProjSrc\SrcChartEx\ChartAddIn\ChartEnvSetupDlgAddIn\ChartEnvSetupDlgAddIn\Setting_Common_Type_A.cpp
; File C:\Program Files (x86)\Microsoft Visual Studio\2019\Community\VC\Tools\MSVC\14.29.30133\atlmfc\include\afxwin2.inl
; File D:\git\src\IBK\IBK_DRFN\ProjSrc\SrcChartEx\ChartAddIn\ChartEnvSetupDlgAddIn\ChartEnvSetupDlgAddIn\Setting_Common_Type_A.cpp
; File C:\Program Files (x86)\Microsoft Visual Studio\2019\Community\VC\Tools\MSVC\14.29.30133\atlmfc\include\afxwin2.inl
; File D:\git\src\IBK\IBK_DRFN\ProjSrc\SrcChartEx\ChartAddIn\ChartEnvSetupDlgAddIn\ChartEnvSetupDlgAddIn\Setting_Common_Type_A.cpp
; File C:\Program Files (x86)\Microsoft Visual Studio\2019\Community\VC\Tools\MSVC\14.29.30133\atlmfc\include\afxwin2.inl
; File D:\git\src\IBK\IBK_DRFN\ProjSrc\SrcChartEx\ChartAddIn\ChartEnvSetupDlgAddIn\ChartEnvSetupDlgAddIn\Setting_Common_Type_A.cpp
; File C:\Program Files (x86)\Microsoft Visual Studio\2019\Community\VC\Tools\MSVC\14.29.30133\atlmfc\include\afxwin2.inl
; File D:\git\src\IBK\IBK_DRFN\ProjSrc\SrcChartEx\ChartAddIn\ChartEnvSetupDlgAddIn\ChartEnvSetupDlgAddIn\Setting_Common_Type_A.cpp
; File C:\Program Files (x86)\Microsoft Visual Studio\2019\Community\VC\Tools\MSVC\14.29.30133\atlmfc\include\afxwin2.inl
; File D:\git\src\IBK\IBK_DRFN\ProjSrc\SrcChartEx\ChartAddIn\ChartEnvSetupDlgAddIn\ChartEnvSetupDlgAddIn\Setting_Common_Type_A.cpp
; File C:\Program Files (x86)\Microsoft Visual Studio\2019\Community\VC\Tools\MSVC\14.29.30133\atlmfc\include\afxwin2.inl
; File D:\git\src\IBK\IBK_DRFN\ProjSrc\SrcChartEx\ChartAddIn\ChartEnvSetupDlgAddIn\ChartEnvSetupDlgAddIn\Setting_Common_Type_A.cpp
; File C:\Program Files (x86)\Microsoft Visual Studio\2019\Community\VC\Tools\MSVC\14.29.30133\atlmfc\include\afxwin2.inl
; File D:\git\src\IBK\IBK_DRFN\ProjSrc\SrcChartEx\ChartAddIn\ChartEnvSetupDlgAddIn\ChartEnvSetupDlgAddIn\Setting_Common_Type_A.cpp
; File C:\Program Files (x86)\Microsoft Visual Studio\2019\Community\VC\Tools\MSVC\14.29.30133\atlmfc\include\afxcmn.inl
; File D:\git\src\IBK\IBK_DRFN\ProjSrc\SrcChartEx\ChartAddIn\ChartEnvSetupDlgAddIn\ChartEnvSetupDlgAddIn\Setting_Common_Type_A.cpp
; File C:\Program Files (x86)\Microsoft Visual Studio\2019\Community\VC\Tools\MSVC\14.29.30133\atlmfc\include\afxcmn.inl
; File D:\git\src\IBK\IBK_DRFN\ProjSrc\SrcChartEx\ChartAddIn\ChartEnvSetupDlgAddIn\ChartEnvSetupDlgAddIn\Setting_Common_Type_A.cpp
;	COMDAT ??0CSetting_Common_Type_A@@QAE@PAUIChartOCX135914@@PAVCWnd@@1@Z
_TEXT	SEGMENT
_this$ = -16						; size = 4
__$EHRec$ = -12						; size = 12
_p_pIChartOCX$ = 8					; size = 4
_pParent$ = 12						; size = 4
_this$ = 16						; size = 4
_this$ = 16						; size = 4
_this$ = 16						; size = 4
_this$ = 16						; size = 4
_this$ = 16						; size = 4
_this$ = 16						; size = 4
_this$ = 16						; size = 4
_this$ = 16						; size = 4
_this$ = 16						; size = 4
_this$ = 16						; size = 4
_this$ = 16						; size = 4
_this$ = 16						; size = 4
_this$ = 16						; size = 4
_pTopWnd$ = 16						; size = 4
??0CSetting_Common_Type_A@@QAE@PAUIChartOCX135914@@PAVCWnd@@1@Z PROC ; CSetting_Common_Type_A::CSetting_Common_Type_A, COMDAT
; _this$ = ecx

; 30   : {

  00000	55		 push	 ebp
  00001	8b ec		 mov	 ebp, esp
  00003	6a ff		 push	 -1
  00005	68 00 00 00 00	 push	 __ehhandler$??0CSetting_Common_Type_A@@QAE@PAUIChartOCX135914@@PAVCWnd@@1@Z
  0000a	64 a1 00 00 00
	00		 mov	 eax, DWORD PTR fs:0
  00010	50		 push	 eax
  00011	51		 push	 ecx
  00012	56		 push	 esi
  00013	57		 push	 edi
  00014	a1 00 00 00 00	 mov	 eax, DWORD PTR ___security_cookie
  00019	33 c5		 xor	 eax, ebp
  0001b	50		 push	 eax
  0001c	8d 45 f4	 lea	 eax, DWORD PTR __$EHRec$[ebp]
  0001f	64 a3 00 00 00
	00		 mov	 DWORD PTR fs:0, eax
  00025	8b f9		 mov	 edi, ecx
  00027	89 7d f0	 mov	 DWORD PTR _this$[ebp], edi

; 29   : 	: CBaseDialog( CSetting_Common_Type_A::IDD, pParent, p_pIChartOCX, pTopWnd)

  0002a	ff 75 10	 push	 DWORD PTR _pTopWnd$[ebp]
  0002d	ff 75 08	 push	 DWORD PTR _p_pIChartOCX$[ebp]
  00030	ff 75 0c	 push	 DWORD PTR _pParent$[ebp]
  00033	68 7f 17 00 00	 push	 6015			; 0000177fH
  00038	e8 00 00 00 00	 call	 ??0CBaseDialog@@QAE@IPAVCWnd@@PAUIChartOCX135914@@0@Z ; CBaseDialog::CBaseDialog

; 30   : {

  0003d	8d b7 f8 00 00
	00		 lea	 esi, DWORD PTR [edi+248]
  00043	c7 45 fc 00 00
	00 00		 mov	 DWORD PTR __$EHRec$[ebp+8], 0
; File C:\Program Files (x86)\Microsoft Visual Studio\2019\Community\VC\Tools\MSVC\14.29.30133\atlmfc\include\afxwin2.inl

; 761  : 	{ }

  0004a	8b ce		 mov	 ecx, esi
; File D:\git\src\IBK\IBK_DRFN\ProjSrc\SrcChartEx\ChartAddIn\ChartEnvSetupDlgAddIn\ChartEnvSetupDlgAddIn\Setting_Common_Type_A.cpp

; 30   : {

  0004c	c7 07 00 00 00
	00		 mov	 DWORD PTR [edi], OFFSET ??_7CSetting_Common_Type_A@@6B@
  00052	89 75 10	 mov	 DWORD PTR _this$[ebp], esi
; File C:\Program Files (x86)\Microsoft Visual Studio\2019\Community\VC\Tools\MSVC\14.29.30133\atlmfc\include\afxwin2.inl

; 761  : 	{ }

  00055	e8 00 00 00 00	 call	 ??0CWnd@@QAE@XZ		; CWnd::CWnd
  0005a	c7 06 00 00 00
	00		 mov	 DWORD PTR [esi], OFFSET ??_7CComboBox@@6B@
; File D:\git\src\IBK\IBK_DRFN\ProjSrc\SrcChartEx\ChartAddIn\ChartEnvSetupDlgAddIn\ChartEnvSetupDlgAddIn\Setting_Common_Type_A.cpp

; 30   : {

  00060	8d b7 78 01 00
	00		 lea	 esi, DWORD PTR [edi+376]
  00066	c6 45 fc 01	 mov	 BYTE PTR __$EHRec$[ebp+8], 1
; File C:\Program Files (x86)\Microsoft Visual Studio\2019\Community\VC\Tools\MSVC\14.29.30133\atlmfc\include\afxwin2.inl

; 622  : 	{ }

  0006a	8b ce		 mov	 ecx, esi
; File D:\git\src\IBK\IBK_DRFN\ProjSrc\SrcChartEx\ChartAddIn\ChartEnvSetupDlgAddIn\ChartEnvSetupDlgAddIn\Setting_Common_Type_A.cpp

; 30   : {

  0006c	89 75 10	 mov	 DWORD PTR _this$[ebp], esi
; File C:\Program Files (x86)\Microsoft Visual Studio\2019\Community\VC\Tools\MSVC\14.29.30133\atlmfc\include\afxwin2.inl

; 622  : 	{ }

  0006f	e8 00 00 00 00	 call	 ??0CWnd@@QAE@XZ		; CWnd::CWnd
  00074	c7 06 00 00 00
	00		 mov	 DWORD PTR [esi], OFFSET ??_7CButton@@6B@
; File D:\git\src\IBK\IBK_DRFN\ProjSrc\SrcChartEx\ChartAddIn\ChartEnvSetupDlgAddIn\ChartEnvSetupDlgAddIn\Setting_Common_Type_A.cpp

; 30   : {

  0007a	8d 8f f8 01 00
	00		 lea	 ecx, DWORD PTR [edi+504]
  00080	c6 45 fc 02	 mov	 BYTE PTR __$EHRec$[ebp+8], 2
  00084	e8 00 00 00 00	 call	 ??0CColorButton@@QAE@XZ	; CColorButton::CColorButton
  00089	8d 8f 80 02 00
	00		 lea	 ecx, DWORD PTR [edi+640]
  0008f	c6 45 fc 03	 mov	 BYTE PTR __$EHRec$[ebp+8], 3
  00093	e8 00 00 00 00	 call	 ??0CColorButton@@QAE@XZ	; CColorButton::CColorButton
  00098	8d 8f 08 03 00
	00		 lea	 ecx, DWORD PTR [edi+776]
  0009e	c6 45 fc 04	 mov	 BYTE PTR __$EHRec$[ebp+8], 4
  000a2	e8 00 00 00 00	 call	 ??0CColorButton@@QAE@XZ	; CColorButton::CColorButton
  000a7	8d 8f 90 03 00
	00		 lea	 ecx, DWORD PTR [edi+912]
  000ad	c6 45 fc 05	 mov	 BYTE PTR __$EHRec$[ebp+8], 5
  000b1	e8 00 00 00 00	 call	 ??0CColorButton@@QAE@XZ	; CColorButton::CColorButton
  000b6	8d 8f 18 04 00
	00		 lea	 ecx, DWORD PTR [edi+1048]
  000bc	c6 45 fc 06	 mov	 BYTE PTR __$EHRec$[ebp+8], 6
  000c0	e8 00 00 00 00	 call	 ??0CColorButton@@QAE@XZ	; CColorButton::CColorButton
  000c5	8d 8f a0 04 00
	00		 lea	 ecx, DWORD PTR [edi+1184]
  000cb	c6 45 fc 07	 mov	 BYTE PTR __$EHRec$[ebp+8], 7
  000cf	e8 00 00 00 00	 call	 ??0CNumSpinCtrl@@QAE@XZ	; CNumSpinCtrl::CNumSpinCtrl
  000d4	8d b7 20 05 00
	00		 lea	 esi, DWORD PTR [edi+1312]
  000da	c6 45 fc 08	 mov	 BYTE PTR __$EHRec$[ebp+8], 8
; File C:\Program Files (x86)\Microsoft Visual Studio\2019\Community\VC\Tools\MSVC\14.29.30133\atlmfc\include\afxwin2.inl

; 622  : 	{ }

  000de	8b ce		 mov	 ecx, esi
; File D:\git\src\IBK\IBK_DRFN\ProjSrc\SrcChartEx\ChartAddIn\ChartEnvSetupDlgAddIn\ChartEnvSetupDlgAddIn\Setting_Common_Type_A.cpp

; 30   : {

  000e0	89 75 10	 mov	 DWORD PTR _this$[ebp], esi
; File C:\Program Files (x86)\Microsoft Visual Studio\2019\Community\VC\Tools\MSVC\14.29.30133\atlmfc\include\afxwin2.inl

; 622  : 	{ }

  000e3	e8 00 00 00 00	 call	 ??0CWnd@@QAE@XZ		; CWnd::CWnd
  000e8	c7 06 00 00 00
	00		 mov	 DWORD PTR [esi], OFFSET ??_7CButton@@6B@
; File D:\git\src\IBK\IBK_DRFN\ProjSrc\SrcChartEx\ChartAddIn\ChartEnvSetupDlgAddIn\ChartEnvSetupDlgAddIn\Setting_Common_Type_A.cpp

; 30   : {

  000ee	8d 8f a0 05 00
	00		 lea	 ecx, DWORD PTR [edi+1440]
  000f4	c6 45 fc 09	 mov	 BYTE PTR __$EHRec$[ebp+8], 9
  000f8	e8 00 00 00 00	 call	 ??0CBaseListBox@@QAE@XZ	; CBaseListBox::CBaseListBox
  000fd	8d 8f 20 06 00
	00		 lea	 ecx, DWORD PTR [edi+1568]
  00103	c6 45 fc 0a	 mov	 BYTE PTR __$EHRec$[ebp+8], 10 ; 0000000aH
  00107	e8 00 00 00 00	 call	 ??0CNumEdit@@QAE@XZ	; CNumEdit::CNumEdit
  0010c	8d 8f c8 06 00
	00		 lea	 ecx, DWORD PTR [edi+1736]
  00112	c6 45 fc 0b	 mov	 BYTE PTR __$EHRec$[ebp+8], 11 ; 0000000bH
  00116	e8 00 00 00 00	 call	 ??0CColorButton@@QAE@XZ	; CColorButton::CColorButton
  0011b	8d b7 50 07 00
	00		 lea	 esi, DWORD PTR [edi+1872]
  00121	c6 45 fc 0c	 mov	 BYTE PTR __$EHRec$[ebp+8], 12 ; 0000000cH
; File C:\Program Files (x86)\Microsoft Visual Studio\2019\Community\VC\Tools\MSVC\14.29.30133\atlmfc\include\afxwin2.inl

; 603  : 	{ }

  00125	8b ce		 mov	 ecx, esi
; File D:\git\src\IBK\IBK_DRFN\ProjSrc\SrcChartEx\ChartAddIn\ChartEnvSetupDlgAddIn\ChartEnvSetupDlgAddIn\Setting_Common_Type_A.cpp

; 30   : {

  00127	89 75 10	 mov	 DWORD PTR _this$[ebp], esi
; File C:\Program Files (x86)\Microsoft Visual Studio\2019\Community\VC\Tools\MSVC\14.29.30133\atlmfc\include\afxwin2.inl

; 603  : 	{ }

  0012a	e8 00 00 00 00	 call	 ??0CWnd@@QAE@XZ		; CWnd::CWnd
  0012f	c7 06 00 00 00
	00		 mov	 DWORD PTR [esi], OFFSET ??_7CStatic@@6B@
; File D:\git\src\IBK\IBK_DRFN\ProjSrc\SrcChartEx\ChartAddIn\ChartEnvSetupDlgAddIn\ChartEnvSetupDlgAddIn\Setting_Common_Type_A.cpp

; 30   : {

  00135	8d b7 d0 07 00
	00		 lea	 esi, DWORD PTR [edi+2000]
  0013b	c6 45 fc 0d	 mov	 BYTE PTR __$EHRec$[ebp+8], 13 ; 0000000dH
; File C:\Program Files (x86)\Microsoft Visual Studio\2019\Community\VC\Tools\MSVC\14.29.30133\atlmfc\include\afxwin2.inl

; 603  : 	{ }

  0013f	8b ce		 mov	 ecx, esi
; File D:\git\src\IBK\IBK_DRFN\ProjSrc\SrcChartEx\ChartAddIn\ChartEnvSetupDlgAddIn\ChartEnvSetupDlgAddIn\Setting_Common_Type_A.cpp

; 30   : {

  00141	89 75 10	 mov	 DWORD PTR _this$[ebp], esi
; File C:\Program Files (x86)\Microsoft Visual Studio\2019\Community\VC\Tools\MSVC\14.29.30133\atlmfc\include\afxwin2.inl

; 603  : 	{ }

  00144	e8 00 00 00 00	 call	 ??0CWnd@@QAE@XZ		; CWnd::CWnd
  00149	c7 06 00 00 00
	00		 mov	 DWORD PTR [esi], OFFSET ??_7CStatic@@6B@
; File D:\git\src\IBK\IBK_DRFN\ProjSrc\SrcChartEx\ChartAddIn\ChartEnvSetupDlgAddIn\ChartEnvSetupDlgAddIn\Setting_Common_Type_A.cpp

; 30   : {

  0014f	8d b7 50 08 00
	00		 lea	 esi, DWORD PTR [edi+2128]
  00155	c6 45 fc 0e	 mov	 BYTE PTR __$EHRec$[ebp+8], 14 ; 0000000eH
  00159	89 75 10	 mov	 DWORD PTR _this$[ebp], esi
; File C:\Program Files (x86)\Microsoft Visual Studio\2019\Community\VC\Tools\MSVC\14.29.30133\atlmfc\include\afxwin2.inl

; 603  : 	{ }

  0015c	8b ce		 mov	 ecx, esi
  0015e	e8 00 00 00 00	 call	 ??0CWnd@@QAE@XZ		; CWnd::CWnd
  00163	c7 06 00 00 00
	00		 mov	 DWORD PTR [esi], OFFSET ??_7CStatic@@6B@
; File D:\git\src\IBK\IBK_DRFN\ProjSrc\SrcChartEx\ChartAddIn\ChartEnvSetupDlgAddIn\ChartEnvSetupDlgAddIn\Setting_Common_Type_A.cpp

; 30   : {

  00169	8d b7 d0 08 00
	00		 lea	 esi, DWORD PTR [edi+2256]
  0016f	c6 45 fc 0f	 mov	 BYTE PTR __$EHRec$[ebp+8], 15 ; 0000000fH
; File C:\Program Files (x86)\Microsoft Visual Studio\2019\Community\VC\Tools\MSVC\14.29.30133\atlmfc\include\afxwin2.inl

; 603  : 	{ }

  00173	8b ce		 mov	 ecx, esi
; File D:\git\src\IBK\IBK_DRFN\ProjSrc\SrcChartEx\ChartAddIn\ChartEnvSetupDlgAddIn\ChartEnvSetupDlgAddIn\Setting_Common_Type_A.cpp

; 30   : {

  00175	89 75 10	 mov	 DWORD PTR _this$[ebp], esi
; File C:\Program Files (x86)\Microsoft Visual Studio\2019\Community\VC\Tools\MSVC\14.29.30133\atlmfc\include\afxwin2.inl

; 603  : 	{ }

  00178	e8 00 00 00 00	 call	 ??0CWnd@@QAE@XZ		; CWnd::CWnd
  0017d	c7 06 00 00 00
	00		 mov	 DWORD PTR [esi], OFFSET ??_7CStatic@@6B@
; File D:\git\src\IBK\IBK_DRFN\ProjSrc\SrcChartEx\ChartAddIn\ChartEnvSetupDlgAddIn\ChartEnvSetupDlgAddIn\Setting_Common_Type_A.cpp

; 30   : {

  00183	8d b7 50 09 00
	00		 lea	 esi, DWORD PTR [edi+2384]
  00189	c6 45 fc 10	 mov	 BYTE PTR __$EHRec$[ebp+8], 16 ; 00000010H
; File C:\Program Files (x86)\Microsoft Visual Studio\2019\Community\VC\Tools\MSVC\14.29.30133\atlmfc\include\afxwin2.inl

; 603  : 	{ }

  0018d	8b ce		 mov	 ecx, esi
; File D:\git\src\IBK\IBK_DRFN\ProjSrc\SrcChartEx\ChartAddIn\ChartEnvSetupDlgAddIn\ChartEnvSetupDlgAddIn\Setting_Common_Type_A.cpp

; 30   : {

  0018f	89 75 10	 mov	 DWORD PTR _this$[ebp], esi
; File C:\Program Files (x86)\Microsoft Visual Studio\2019\Community\VC\Tools\MSVC\14.29.30133\atlmfc\include\afxwin2.inl

; 603  : 	{ }

  00192	e8 00 00 00 00	 call	 ??0CWnd@@QAE@XZ		; CWnd::CWnd
  00197	c7 06 00 00 00
	00		 mov	 DWORD PTR [esi], OFFSET ??_7CStatic@@6B@
; File D:\git\src\IBK\IBK_DRFN\ProjSrc\SrcChartEx\ChartAddIn\ChartEnvSetupDlgAddIn\ChartEnvSetupDlgAddIn\Setting_Common_Type_A.cpp

; 30   : {

  0019d	8d 8f d0 09 00
	00		 lea	 ecx, DWORD PTR [edi+2512]
  001a3	c6 45 fc 11	 mov	 BYTE PTR __$EHRec$[ebp+8], 17 ; 00000011H
  001a7	e8 00 00 00 00	 call	 ??0CNumSpinCtrl@@QAE@XZ	; CNumSpinCtrl::CNumSpinCtrl
  001ac	8d 8f 50 0a 00
	00		 lea	 ecx, DWORD PTR [edi+2640]
  001b2	c6 45 fc 12	 mov	 BYTE PTR __$EHRec$[ebp+8], 18 ; 00000012H
  001b6	e8 00 00 00 00	 call	 ??0CNumSpinCtrl@@QAE@XZ	; CNumSpinCtrl::CNumSpinCtrl
  001bb	8d 8f d0 0a 00
	00		 lea	 ecx, DWORD PTR [edi+2768]
  001c1	c6 45 fc 13	 mov	 BYTE PTR __$EHRec$[ebp+8], 19 ; 00000013H
  001c5	e8 00 00 00 00	 call	 ??0CNumSpinCtrl@@QAE@XZ	; CNumSpinCtrl::CNumSpinCtrl
  001ca	8d 8f 50 0b 00
	00		 lea	 ecx, DWORD PTR [edi+2896]
  001d0	c6 45 fc 14	 mov	 BYTE PTR __$EHRec$[ebp+8], 20 ; 00000014H
  001d4	e8 00 00 00 00	 call	 ??0CNumSpinCtrl@@QAE@XZ	; CNumSpinCtrl::CNumSpinCtrl
  001d9	8d 8f d0 0b 00
	00		 lea	 ecx, DWORD PTR [edi+3024]
  001df	c6 45 fc 15	 mov	 BYTE PTR __$EHRec$[ebp+8], 21 ; 00000015H
  001e3	e8 00 00 00 00	 call	 ??0CNumSpinCtrl@@QAE@XZ	; CNumSpinCtrl::CNumSpinCtrl
  001e8	8d 8f 50 0c 00
	00		 lea	 ecx, DWORD PTR [edi+3152]
  001ee	c6 45 fc 16	 mov	 BYTE PTR __$EHRec$[ebp+8], 22 ; 00000016H
  001f2	e8 00 00 00 00	 call	 ??0CNumEdit@@QAE@XZ	; CNumEdit::CNumEdit
  001f7	8d 8f f8 0c 00
	00		 lea	 ecx, DWORD PTR [edi+3320]
  001fd	c6 45 fc 17	 mov	 BYTE PTR __$EHRec$[ebp+8], 23 ; 00000017H
  00201	e8 00 00 00 00	 call	 ??0CNumEdit@@QAE@XZ	; CNumEdit::CNumEdit
  00206	8d 8f a0 0d 00
	00		 lea	 ecx, DWORD PTR [edi+3488]
  0020c	c6 45 fc 18	 mov	 BYTE PTR __$EHRec$[ebp+8], 24 ; 00000018H
  00210	e8 00 00 00 00	 call	 ??0CNumEdit@@QAE@XZ	; CNumEdit::CNumEdit
  00215	8d 8f 48 0e 00
	00		 lea	 ecx, DWORD PTR [edi+3656]
  0021b	c6 45 fc 19	 mov	 BYTE PTR __$EHRec$[ebp+8], 25 ; 00000019H
  0021f	e8 00 00 00 00	 call	 ??0CNumEdit@@QAE@XZ	; CNumEdit::CNumEdit
  00224	8d 8f f0 0e 00
	00		 lea	 ecx, DWORD PTR [edi+3824]
  0022a	c6 45 fc 1a	 mov	 BYTE PTR __$EHRec$[ebp+8], 26 ; 0000001aH
  0022e	e8 00 00 00 00	 call	 ??0CNumEdit@@QAE@XZ	; CNumEdit::CNumEdit
  00233	8d b7 98 0f 00
	00		 lea	 esi, DWORD PTR [edi+3992]
  00239	c6 45 fc 1b	 mov	 BYTE PTR __$EHRec$[ebp+8], 27 ; 0000001bH
; File C:\Program Files (x86)\Microsoft Visual Studio\2019\Community\VC\Tools\MSVC\14.29.30133\atlmfc\include\afxwin2.inl

; 603  : 	{ }

  0023d	8b ce		 mov	 ecx, esi
; File D:\git\src\IBK\IBK_DRFN\ProjSrc\SrcChartEx\ChartAddIn\ChartEnvSetupDlgAddIn\ChartEnvSetupDlgAddIn\Setting_Common_Type_A.cpp

; 30   : {

  0023f	89 75 10	 mov	 DWORD PTR _this$[ebp], esi
; File C:\Program Files (x86)\Microsoft Visual Studio\2019\Community\VC\Tools\MSVC\14.29.30133\atlmfc\include\afxwin2.inl

; 603  : 	{ }

  00242	e8 00 00 00 00	 call	 ??0CWnd@@QAE@XZ		; CWnd::CWnd
  00247	c7 06 00 00 00
	00		 mov	 DWORD PTR [esi], OFFSET ??_7CStatic@@6B@
; File D:\git\src\IBK\IBK_DRFN\ProjSrc\SrcChartEx\ChartAddIn\ChartEnvSetupDlgAddIn\ChartEnvSetupDlgAddIn\Setting_Common_Type_A.cpp

; 30   : {

  0024d	8d b7 18 10 00
	00		 lea	 esi, DWORD PTR [edi+4120]
  00253	c6 45 fc 1c	 mov	 BYTE PTR __$EHRec$[ebp+8], 28 ; 0000001cH
; File C:\Program Files (x86)\Microsoft Visual Studio\2019\Community\VC\Tools\MSVC\14.29.30133\atlmfc\include\afxwin2.inl

; 851  : 	{ }

  00257	8b ce		 mov	 ecx, esi
; File D:\git\src\IBK\IBK_DRFN\ProjSrc\SrcChartEx\ChartAddIn\ChartEnvSetupDlgAddIn\ChartEnvSetupDlgAddIn\Setting_Common_Type_A.cpp

; 30   : {

  00259	89 75 10	 mov	 DWORD PTR _this$[ebp], esi
; File C:\Program Files (x86)\Microsoft Visual Studio\2019\Community\VC\Tools\MSVC\14.29.30133\atlmfc\include\afxwin2.inl

; 851  : 	{ }

  0025c	e8 00 00 00 00	 call	 ??0CWnd@@QAE@XZ		; CWnd::CWnd
  00261	c7 06 00 00 00
	00		 mov	 DWORD PTR [esi], OFFSET ??_7CEdit@@6B@
; File D:\git\src\IBK\IBK_DRFN\ProjSrc\SrcChartEx\ChartAddIn\ChartEnvSetupDlgAddIn\ChartEnvSetupDlgAddIn\Setting_Common_Type_A.cpp

; 30   : {

  00267	8d 8f 98 10 00
	00		 lea	 ecx, DWORD PTR [edi+4248]
  0026d	c6 45 fc 1d	 mov	 BYTE PTR __$EHRec$[ebp+8], 29 ; 0000001dH
  00271	e8 00 00 00 00	 call	 ??0CBitmapItemComboBox@@QAE@XZ ; CBitmapItemComboBox::CBitmapItemComboBox
  00276	8d 8f 20 11 00
	00		 lea	 ecx, DWORD PTR [edi+4384]
  0027c	c6 45 fc 1e	 mov	 BYTE PTR __$EHRec$[ebp+8], 30 ; 0000001eH
  00280	e8 00 00 00 00	 call	 ??0CBitmapItemComboBox@@QAE@XZ ; CBitmapItemComboBox::CBitmapItemComboBox
  00285	c6 45 fc 1f	 mov	 BYTE PTR __$EHRec$[ebp+8], 31 ; 0000001fH
  00289	8d b7 a8 11 00
	00		 lea	 esi, DWORD PTR [edi+4520]
; File C:\Program Files (x86)\Microsoft Visual Studio\2019\Community\VC\Tools\MSVC\14.29.30133\atlmfc\include\afxwin2.inl

; 603  : 	{ }

  0028f	8b ce		 mov	 ecx, esi
; File D:\git\src\IBK\IBK_DRFN\ProjSrc\SrcChartEx\ChartAddIn\ChartEnvSetupDlgAddIn\ChartEnvSetupDlgAddIn\Setting_Common_Type_A.cpp

; 30   : {

  00291	89 75 10	 mov	 DWORD PTR _this$[ebp], esi
; File C:\Program Files (x86)\Microsoft Visual Studio\2019\Community\VC\Tools\MSVC\14.29.30133\atlmfc\include\afxwin2.inl

; 603  : 	{ }

  00294	e8 00 00 00 00	 call	 ??0CWnd@@QAE@XZ		; CWnd::CWnd
  00299	c7 06 00 00 00
	00		 mov	 DWORD PTR [esi], OFFSET ??_7CStatic@@6B@
; File D:\git\src\IBK\IBK_DRFN\ProjSrc\SrcChartEx\ChartAddIn\ChartEnvSetupDlgAddIn\ChartEnvSetupDlgAddIn\Setting_Common_Type_A.cpp

; 30   : {

  0029f	8d b7 28 12 00
	00		 lea	 esi, DWORD PTR [edi+4648]
  002a5	c6 45 fc 20	 mov	 BYTE PTR __$EHRec$[ebp+8], 32 ; 00000020H
; File C:\Program Files (x86)\Microsoft Visual Studio\2019\Community\VC\Tools\MSVC\14.29.30133\atlmfc\include\afxwin2.inl

; 761  : 	{ }

  002a9	8b ce		 mov	 ecx, esi
; File D:\git\src\IBK\IBK_DRFN\ProjSrc\SrcChartEx\ChartAddIn\ChartEnvSetupDlgAddIn\ChartEnvSetupDlgAddIn\Setting_Common_Type_A.cpp

; 30   : {

  002ab	89 75 10	 mov	 DWORD PTR _this$[ebp], esi
; File C:\Program Files (x86)\Microsoft Visual Studio\2019\Community\VC\Tools\MSVC\14.29.30133\atlmfc\include\afxwin2.inl

; 761  : 	{ }

  002ae	e8 00 00 00 00	 call	 ??0CWnd@@QAE@XZ		; CWnd::CWnd
  002b3	c7 06 00 00 00
	00		 mov	 DWORD PTR [esi], OFFSET ??_7CComboBox@@6B@
; File D:\git\src\IBK\IBK_DRFN\ProjSrc\SrcChartEx\ChartAddIn\ChartEnvSetupDlgAddIn\ChartEnvSetupDlgAddIn\Setting_Common_Type_A.cpp

; 30   : {

  002b9	8d 8f a8 12 00
	00		 lea	 ecx, DWORD PTR [edi+4776]
  002bf	c6 45 fc 21	 mov	 BYTE PTR __$EHRec$[ebp+8], 33 ; 00000021H
  002c3	e8 00 00 00 00	 call	 ??0CColorButton@@QAE@XZ	; CColorButton::CColorButton
  002c8	8d b7 30 13 00
	00		 lea	 esi, DWORD PTR [edi+4912]
  002ce	c6 45 fc 22	 mov	 BYTE PTR __$EHRec$[ebp+8], 34 ; 00000022H
; File C:\Program Files (x86)\Microsoft Visual Studio\2019\Community\VC\Tools\MSVC\14.29.30133\atlmfc\include\afxcmn.inl

; 141  : 	{ }

  002d2	8b ce		 mov	 ecx, esi
; File D:\git\src\IBK\IBK_DRFN\ProjSrc\SrcChartEx\ChartAddIn\ChartEnvSetupDlgAddIn\ChartEnvSetupDlgAddIn\Setting_Common_Type_A.cpp

; 30   : {

  002d4	89 75 10	 mov	 DWORD PTR _this$[ebp], esi
; File C:\Program Files (x86)\Microsoft Visual Studio\2019\Community\VC\Tools\MSVC\14.29.30133\atlmfc\include\afxcmn.inl

; 141  : 	{ }

  002d7	e8 00 00 00 00	 call	 ??0CWnd@@QAE@XZ		; CWnd::CWnd
  002dc	c7 06 00 00 00
	00		 mov	 DWORD PTR [esi], OFFSET ??_7CListCtrl@@6B@
; File D:\git\src\IBK\IBK_DRFN\ProjSrc\SrcChartEx\ChartAddIn\ChartEnvSetupDlgAddIn\ChartEnvSetupDlgAddIn\Setting_Common_Type_A.cpp

; 30   : {

  002e2	8d 8f b8 13 00
	00		 lea	 ecx, DWORD PTR [edi+5048]
  002e8	c6 45 fc 23	 mov	 BYTE PTR __$EHRec$[ebp+8], 35 ; 00000023H
  002ec	e8 00 00 00 00	 call	 ??0CBitmapItemComboBox@@QAE@XZ ; CBitmapItemComboBox::CBitmapItemComboBox
  002f1	8d 8f 40 14 00
	00		 lea	 ecx, DWORD PTR [edi+5184]
  002f7	c6 45 fc 24	 mov	 BYTE PTR __$EHRec$[ebp+8], 36 ; 00000024H
  002fb	e8 00 00 00 00	 call	 ??0CBitmapItemComboBox@@QAE@XZ ; CBitmapItemComboBox::CBitmapItemComboBox
  00300	8d 8f c8 14 00
	00		 lea	 ecx, DWORD PTR [edi+5320]
  00306	ff 15 00 00 00
	00		 call	 DWORD PTR __imp_??0?$CStringT@DV?$StrTraitMFC_DLL@DV?$ChTraitsCRT@D@ATL@@@@@ATL@@QAE@XZ

; 31   : 	//{{AFX_DATA_INIT(CSetting_Common_Type_A)
; 32   : 	m_nCompositionLineType = -1;
; 33   : 	m_strHorizonValue = _T("");

  0030c	68 00 00 00 00	 push	 OFFSET ??_C@_00CNPNBAHC@@
  00311	8d 8f c8 14 00
	00		 lea	 ecx, DWORD PTR [edi+5320]
  00317	c6 45 fc 26	 mov	 BYTE PTR __$EHRec$[ebp+8], 38 ; 00000026H
  0031b	c7 87 b0 13 00
	00 ff ff ff ff	 mov	 DWORD PTR [edi+5040], -1
  00325	ff 15 00 00 00
	00		 call	 DWORD PTR __imp_??4?$CStringT@DV?$StrTraitMFC_DLL@DV?$ChTraitsCRT@D@ATL@@@@@ATL@@QAEAAV01@PBD@Z

; 34   : 	//}}AFX_DATA_INIT
; 35   : 
; 36   : 	m_nSubGraphIndex = -1;

  0032b	c7 87 cc 14 00
	00 ff ff ff ff	 mov	 DWORD PTR [edi+5324], -1

; 37   : 
; 38   : 	m_bUseComposition = FALSE;
; 39   : 	m_bUseBaseLine = FALSE;
; 40   : 	m_bInitComplite = FALSE;
; 41   : 	m_bUsePacket = FALSE;
; 42   : }

  00335	8b c7		 mov	 eax, edi
  00337	c7 87 d0 14 00
	00 00 00 00 00	 mov	 DWORD PTR [edi+5328], 0
  00341	c7 87 d4 14 00
	00 00 00 00 00	 mov	 DWORD PTR [edi+5332], 0
  0034b	c7 87 d8 14 00
	00 00 00 00 00	 mov	 DWORD PTR [edi+5336], 0
  00355	c6 87 dc 14 00
	00 00		 mov	 BYTE PTR [edi+5340], 0
  0035c	8b 4d f4	 mov	 ecx, DWORD PTR __$EHRec$[ebp]
  0035f	64 89 0d 00 00
	00 00		 mov	 DWORD PTR fs:0, ecx
  00366	59		 pop	 ecx
  00367	5f		 pop	 edi
  00368	5e		 pop	 esi
  00369	8b e5		 mov	 esp, ebp
  0036b	5d		 pop	 ebp
  0036c	c2 0c 00	 ret	 12			; 0000000cH
_TEXT	ENDS
;	COMDAT text$x
text$x	SEGMENT
__unwindfunclet$??0CSetting_Common_Type_A@@QAE@PAUIChartOCX135914@@PAVCWnd@@1@Z$0:
  00000	8b 4d f0	 mov	 ecx, DWORD PTR _this$[ebp]
  00003	e9 00 00 00 00	 jmp	 ??1CBaseDialog@@UAE@XZ	; CBaseDialog::~CBaseDialog
__unwindfunclet$??0CSetting_Common_Type_A@@QAE@PAUIChartOCX135914@@PAVCWnd@@1@Z$1:
  00008	8b 4d f0	 mov	 ecx, DWORD PTR _this$[ebp]
  0000b	81 c1 f8 00 00
	00		 add	 ecx, 248		; 000000f8H
  00011	e9 00 00 00 00	 jmp	 ??1CComboBox@@UAE@XZ	; CComboBox::~CComboBox
__unwindfunclet$??0CSetting_Common_Type_A@@QAE@PAUIChartOCX135914@@PAVCWnd@@1@Z$2:
  00016	8b 4d f0	 mov	 ecx, DWORD PTR _this$[ebp]
  00019	81 c1 78 01 00
	00		 add	 ecx, 376		; 00000178H
  0001f	e9 00 00 00 00	 jmp	 ??1CButton@@UAE@XZ	; CButton::~CButton
__unwindfunclet$??0CSetting_Common_Type_A@@QAE@PAUIChartOCX135914@@PAVCWnd@@1@Z$3:
  00024	8b 4d f0	 mov	 ecx, DWORD PTR _this$[ebp]
  00027	81 c1 f8 01 00
	00		 add	 ecx, 504		; 000001f8H
  0002d	e9 00 00 00 00	 jmp	 ??1CColorButton@@UAE@XZ	; CColorButton::~CColorButton
__unwindfunclet$??0CSetting_Common_Type_A@@QAE@PAUIChartOCX135914@@PAVCWnd@@1@Z$4:
  00032	8b 4d f0	 mov	 ecx, DWORD PTR _this$[ebp]
  00035	81 c1 80 02 00
	00		 add	 ecx, 640		; 00000280H
  0003b	e9 00 00 00 00	 jmp	 ??1CColorButton@@UAE@XZ	; CColorButton::~CColorButton
__unwindfunclet$??0CSetting_Common_Type_A@@QAE@PAUIChartOCX135914@@PAVCWnd@@1@Z$5:
  00040	8b 4d f0	 mov	 ecx, DWORD PTR _this$[ebp]
  00043	81 c1 08 03 00
	00		 add	 ecx, 776		; 00000308H
  00049	e9 00 00 00 00	 jmp	 ??1CColorButton@@UAE@XZ	; CColorButton::~CColorButton
__unwindfunclet$??0CSetting_Common_Type_A@@QAE@PAUIChartOCX135914@@PAVCWnd@@1@Z$6:
  0004e	8b 4d f0	 mov	 ecx, DWORD PTR _this$[ebp]
  00051	81 c1 90 03 00
	00		 add	 ecx, 912		; 00000390H
  00057	e9 00 00 00 00	 jmp	 ??1CColorButton@@UAE@XZ	; CColorButton::~CColorButton
__unwindfunclet$??0CSetting_Common_Type_A@@QAE@PAUIChartOCX135914@@PAVCWnd@@1@Z$7:
  0005c	8b 4d f0	 mov	 ecx, DWORD PTR _this$[ebp]
  0005f	81 c1 18 04 00
	00		 add	 ecx, 1048		; 00000418H
  00065	e9 00 00 00 00	 jmp	 ??1CColorButton@@UAE@XZ	; CColorButton::~CColorButton
__unwindfunclet$??0CSetting_Common_Type_A@@QAE@PAUIChartOCX135914@@PAVCWnd@@1@Z$8:
  0006a	8b 4d f0	 mov	 ecx, DWORD PTR _this$[ebp]
  0006d	81 c1 a0 04 00
	00		 add	 ecx, 1184		; 000004a0H
  00073	e9 00 00 00 00	 jmp	 ??1CNumSpinCtrl@@UAE@XZ	; CNumSpinCtrl::~CNumSpinCtrl
__unwindfunclet$??0CSetting_Common_Type_A@@QAE@PAUIChartOCX135914@@PAVCWnd@@1@Z$9:
  00078	8b 4d f0	 mov	 ecx, DWORD PTR _this$[ebp]
  0007b	81 c1 20 05 00
	00		 add	 ecx, 1312		; 00000520H
  00081	e9 00 00 00 00	 jmp	 ??1CButton@@UAE@XZ	; CButton::~CButton
__unwindfunclet$??0CSetting_Common_Type_A@@QAE@PAUIChartOCX135914@@PAVCWnd@@1@Z$10:
  00086	8b 4d f0	 mov	 ecx, DWORD PTR _this$[ebp]
  00089	81 c1 a0 05 00
	00		 add	 ecx, 1440		; 000005a0H
  0008f	e9 00 00 00 00	 jmp	 ??1CBaseListBox@@UAE@XZ	; CBaseListBox::~CBaseListBox
__unwindfunclet$??0CSetting_Common_Type_A@@QAE@PAUIChartOCX135914@@PAVCWnd@@1@Z$11:
  00094	8b 4d f0	 mov	 ecx, DWORD PTR _this$[ebp]
  00097	81 c1 20 06 00
	00		 add	 ecx, 1568		; 00000620H
  0009d	e9 00 00 00 00	 jmp	 ??1CNumEdit@@UAE@XZ	; CNumEdit::~CNumEdit
__unwindfunclet$??0CSetting_Common_Type_A@@QAE@PAUIChartOCX135914@@PAVCWnd@@1@Z$12:
  000a2	8b 4d f0	 mov	 ecx, DWORD PTR _this$[ebp]
  000a5	81 c1 c8 06 00
	00		 add	 ecx, 1736		; 000006c8H
  000ab	e9 00 00 00 00	 jmp	 ??1CColorButton@@UAE@XZ	; CColorButton::~CColorButton
__unwindfunclet$??0CSetting_Common_Type_A@@QAE@PAUIChartOCX135914@@PAVCWnd@@1@Z$13:
  000b0	8b 4d f0	 mov	 ecx, DWORD PTR _this$[ebp]
  000b3	81 c1 50 07 00
	00		 add	 ecx, 1872		; 00000750H
  000b9	e9 00 00 00 00	 jmp	 ??1CStatic@@UAE@XZ	; CStatic::~CStatic
__unwindfunclet$??0CSetting_Common_Type_A@@QAE@PAUIChartOCX135914@@PAVCWnd@@1@Z$14:
  000be	8b 4d f0	 mov	 ecx, DWORD PTR _this$[ebp]
  000c1	81 c1 d0 07 00
	00		 add	 ecx, 2000		; 000007d0H
  000c7	e9 00 00 00 00	 jmp	 ??1CStatic@@UAE@XZ	; CStatic::~CStatic
__unwindfunclet$??0CSetting_Common_Type_A@@QAE@PAUIChartOCX135914@@PAVCWnd@@1@Z$15:
  000cc	8b 4d f0	 mov	 ecx, DWORD PTR _this$[ebp]
  000cf	81 c1 50 08 00
	00		 add	 ecx, 2128		; 00000850H
  000d5	e9 00 00 00 00	 jmp	 ??1CStatic@@UAE@XZ	; CStatic::~CStatic
__unwindfunclet$??0CSetting_Common_Type_A@@QAE@PAUIChartOCX135914@@PAVCWnd@@1@Z$16:
  000da	8b 4d f0	 mov	 ecx, DWORD PTR _this$[ebp]
  000dd	81 c1 d0 08 00
	00		 add	 ecx, 2256		; 000008d0H
  000e3	e9 00 00 00 00	 jmp	 ??1CStatic@@UAE@XZ	; CStatic::~CStatic
__unwindfunclet$??0CSetting_Common_Type_A@@QAE@PAUIChartOCX135914@@PAVCWnd@@1@Z$17:
  000e8	8b 4d f0	 mov	 ecx, DWORD PTR _this$[ebp]
  000eb	81 c1 50 09 00
	00		 add	 ecx, 2384		; 00000950H
  000f1	e9 00 00 00 00	 jmp	 ??1CStatic@@UAE@XZ	; CStatic::~CStatic
__unwindfunclet$??0CSetting_Common_Type_A@@QAE@PAUIChartOCX135914@@PAVCWnd@@1@Z$18:
  000f6	8b 4d f0	 mov	 ecx, DWORD PTR _this$[ebp]
  000f9	81 c1 d0 09 00
	00		 add	 ecx, 2512		; 000009d0H
  000ff	e9 00 00 00 00	 jmp	 ??1CNumSpinCtrl@@UAE@XZ	; CNumSpinCtrl::~CNumSpinCtrl
__unwindfunclet$??0CSetting_Common_Type_A@@QAE@PAUIChartOCX135914@@PAVCWnd@@1@Z$19:
  00104	8b 4d f0	 mov	 ecx, DWORD PTR _this$[ebp]
  00107	81 c1 50 0a 00
	00		 add	 ecx, 2640		; 00000a50H
  0010d	e9 00 00 00 00	 jmp	 ??1CNumSpinCtrl@@UAE@XZ	; CNumSpinCtrl::~CNumSpinCtrl
__unwindfunclet$??0CSetting_Common_Type_A@@QAE@PAUIChartOCX135914@@PAVCWnd@@1@Z$20:
  00112	8b 4d f0	 mov	 ecx, DWORD PTR _this$[ebp]
  00115	81 c1 d0 0a 00
	00		 add	 ecx, 2768		; 00000ad0H
  0011b	e9 00 00 00 00	 jmp	 ??1CNumSpinCtrl@@UAE@XZ	; CNumSpinCtrl::~CNumSpinCtrl
__unwindfunclet$??0CSetting_Common_Type_A@@QAE@PAUIChartOCX135914@@PAVCWnd@@1@Z$21:
  00120	8b 4d f0	 mov	 ecx, DWORD PTR _this$[ebp]
  00123	81 c1 50 0b 00
	00		 add	 ecx, 2896		; 00000b50H
  00129	e9 00 00 00 00	 jmp	 ??1CNumSpinCtrl@@UAE@XZ	; CNumSpinCtrl::~CNumSpinCtrl
__unwindfunclet$??0CSetting_Common_Type_A@@QAE@PAUIChartOCX135914@@PAVCWnd@@1@Z$22:
  0012e	8b 4d f0	 mov	 ecx, DWORD PTR _this$[ebp]
  00131	81 c1 d0 0b 00
	00		 add	 ecx, 3024		; 00000bd0H
  00137	e9 00 00 00 00	 jmp	 ??1CNumSpinCtrl@@UAE@XZ	; CNumSpinCtrl::~CNumSpinCtrl
__unwindfunclet$??0CSetting_Common_Type_A@@QAE@PAUIChartOCX135914@@PAVCWnd@@1@Z$23:
  0013c	8b 4d f0	 mov	 ecx, DWORD PTR _this$[ebp]
  0013f	81 c1 50 0c 00
	00		 add	 ecx, 3152		; 00000c50H
  00145	e9 00 00 00 00	 jmp	 ??1CNumEdit@@UAE@XZ	; CNumEdit::~CNumEdit
__unwindfunclet$??0CSetting_Common_Type_A@@QAE@PAUIChartOCX135914@@PAVCWnd@@1@Z$24:
  0014a	8b 4d f0	 mov	 ecx, DWORD PTR _this$[ebp]
  0014d	81 c1 f8 0c 00
	00		 add	 ecx, 3320		; 00000cf8H
  00153	e9 00 00 00 00	 jmp	 ??1CNumEdit@@UAE@XZ	; CNumEdit::~CNumEdit
__unwindfunclet$??0CSetting_Common_Type_A@@QAE@PAUIChartOCX135914@@PAVCWnd@@1@Z$25:
  00158	8b 4d f0	 mov	 ecx, DWORD PTR _this$[ebp]
  0015b	81 c1 a0 0d 00
	00		 add	 ecx, 3488		; 00000da0H
  00161	e9 00 00 00 00	 jmp	 ??1CNumEdit@@UAE@XZ	; CNumEdit::~CNumEdit
__unwindfunclet$??0CSetting_Common_Type_A@@QAE@PAUIChartOCX135914@@PAVCWnd@@1@Z$26:
  00166	8b 4d f0	 mov	 ecx, DWORD PTR _this$[ebp]
  00169	81 c1 48 0e 00
	00		 add	 ecx, 3656		; 00000e48H
  0016f	e9 00 00 00 00	 jmp	 ??1CNumEdit@@UAE@XZ	; CNumEdit::~CNumEdit
__unwindfunclet$??0CSetting_Common_Type_A@@QAE@PAUIChartOCX135914@@PAVCWnd@@1@Z$27:
  00174	8b 4d f0	 mov	 ecx, DWORD PTR _this$[ebp]
  00177	81 c1 f0 0e 00
	00		 add	 ecx, 3824		; 00000ef0H
  0017d	e9 00 00 00 00	 jmp	 ??1CNumEdit@@UAE@XZ	; CNumEdit::~CNumEdit
__unwindfunclet$??0CSetting_Common_Type_A@@QAE@PAUIChartOCX135914@@PAVCWnd@@1@Z$28:
  00182	8b 4d f0	 mov	 ecx, DWORD PTR _this$[ebp]
  00185	81 c1 98 0f 00
	00		 add	 ecx, 3992		; 00000f98H
  0018b	e9 00 00 00 00	 jmp	 ??1CStatic@@UAE@XZ	; CStatic::~CStatic
__unwindfunclet$??0CSetting_Common_Type_A@@QAE@PAUIChartOCX135914@@PAVCWnd@@1@Z$29:
  00190	8b 4d f0	 mov	 ecx, DWORD PTR _this$[ebp]
  00193	81 c1 18 10 00
	00		 add	 ecx, 4120		; 00001018H
  00199	e9 00 00 00 00	 jmp	 ??1CEdit@@UAE@XZ	; CEdit::~CEdit
__unwindfunclet$??0CSetting_Common_Type_A@@QAE@PAUIChartOCX135914@@PAVCWnd@@1@Z$30:
  0019e	8b 4d f0	 mov	 ecx, DWORD PTR _this$[ebp]
  001a1	81 c1 98 10 00
	00		 add	 ecx, 4248		; 00001098H
  001a7	e9 00 00 00 00	 jmp	 ??1CBitmapItemComboBox@@UAE@XZ ; CBitmapItemComboBox::~CBitmapItemComboBox
__unwindfunclet$??0CSetting_Common_Type_A@@QAE@PAUIChartOCX135914@@PAVCWnd@@1@Z$31:
  001ac	8b 4d f0	 mov	 ecx, DWORD PTR _this$[ebp]
  001af	81 c1 20 11 00
	00		 add	 ecx, 4384		; 00001120H
  001b5	e9 00 00 00 00	 jmp	 ??1CBitmapItemComboBox@@UAE@XZ ; CBitmapItemComboBox::~CBitmapItemComboBox
__unwindfunclet$??0CSetting_Common_Type_A@@QAE@PAUIChartOCX135914@@PAVCWnd@@1@Z$32:
  001ba	8b 4d f0	 mov	 ecx, DWORD PTR _this$[ebp]
  001bd	81 c1 a8 11 00
	00		 add	 ecx, 4520		; 000011a8H
  001c3	e9 00 00 00 00	 jmp	 ??1CStatic@@UAE@XZ	; CStatic::~CStatic
__unwindfunclet$??0CSetting_Common_Type_A@@QAE@PAUIChartOCX135914@@PAVCWnd@@1@Z$33:
  001c8	8b 4d f0	 mov	 ecx, DWORD PTR _this$[ebp]
  001cb	81 c1 28 12 00
	00		 add	 ecx, 4648		; 00001228H
  001d1	e9 00 00 00 00	 jmp	 ??1CComboBox@@UAE@XZ	; CComboBox::~CComboBox
__unwindfunclet$??0CSetting_Common_Type_A@@QAE@PAUIChartOCX135914@@PAVCWnd@@1@Z$34:
  001d6	8b 4d f0	 mov	 ecx, DWORD PTR _this$[ebp]
  001d9	81 c1 a8 12 00
	00		 add	 ecx, 4776		; 000012a8H
  001df	e9 00 00 00 00	 jmp	 ??1CColorButton@@UAE@XZ	; CColorButton::~CColorButton
__unwindfunclet$??0CSetting_Common_Type_A@@QAE@PAUIChartOCX135914@@PAVCWnd@@1@Z$35:
  001e4	8b 4d f0	 mov	 ecx, DWORD PTR _this$[ebp]
  001e7	81 c1 30 13 00
	00		 add	 ecx, 4912		; 00001330H
  001ed	e9 00 00 00 00	 jmp	 ??1CListCtrl@@UAE@XZ	; CListCtrl::~CListCtrl
__unwindfunclet$??0CSetting_Common_Type_A@@QAE@PAUIChartOCX135914@@PAVCWnd@@1@Z$36:
  001f2	8b 4d f0	 mov	 ecx, DWORD PTR _this$[ebp]
  001f5	81 c1 b8 13 00
	00		 add	 ecx, 5048		; 000013b8H
  001fb	e9 00 00 00 00	 jmp	 ??1CBitmapItemComboBox@@UAE@XZ ; CBitmapItemComboBox::~CBitmapItemComboBox
__unwindfunclet$??0CSetting_Common_Type_A@@QAE@PAUIChartOCX135914@@PAVCWnd@@1@Z$37:
  00200	8b 4d f0	 mov	 ecx, DWORD PTR _this$[ebp]
  00203	81 c1 40 14 00
	00		 add	 ecx, 5184		; 00001440H
  00209	e9 00 00 00 00	 jmp	 ??1CBitmapItemComboBox@@UAE@XZ ; CBitmapItemComboBox::~CBitmapItemComboBox
__unwindfunclet$??0CSetting_Common_Type_A@@QAE@PAUIChartOCX135914@@PAVCWnd@@1@Z$38:
  0020e	8b 4d f0	 mov	 ecx, DWORD PTR _this$[ebp]
  00211	81 c1 c8 14 00
	00		 add	 ecx, 5320		; 000014c8H
  00217	ff 25 00 00 00
	00		 jmp	 DWORD PTR __imp_??1?$CStringT@DV?$StrTraitMFC_DLL@DV?$ChTraitsCRT@D@ATL@@@@@ATL@@QAE@XZ
  0021d	cc		 int	 3
  0021e	cc		 int	 3
  0021f	cc		 int	 3
  00220	cc		 int	 3
  00221	cc		 int	 3
__ehhandler$??0CSetting_Common_Type_A@@QAE@PAUIChartOCX135914@@PAVCWnd@@1@Z:
  00222	90		 npad	 1
  00223	90		 npad	 1
  00224	8b 54 24 08	 mov	 edx, DWORD PTR [esp+8]
  00228	8d 42 0c	 lea	 eax, DWORD PTR [edx+12]
  0022b	8b 4a f0	 mov	 ecx, DWORD PTR [edx-16]
  0022e	33 c8		 xor	 ecx, eax
  00230	e8 00 00 00 00	 call	 @__security_check_cookie@4
  00235	b8 00 00 00 00	 mov	 eax, OFFSET __ehfuncinfo$??0CSetting_Common_Type_A@@QAE@PAUIChartOCX135914@@PAVCWnd@@1@Z
  0023a	e9 00 00 00 00	 jmp	 ___CxxFrameHandler3
text$x	ENDS
??0CSetting_Common_Type_A@@QAE@PAUIChartOCX135914@@PAVCWnd@@1@Z ENDP ; CSetting_Common_Type_A::CSetting_Common_Type_A
; Function compile flags: /Ogtp
; File D:\git\src\IBK\IBK_DRFN\ProjSrc\SrcChartEx\ChartAddIn\ChartEnvSetupDlgAddIn\Include_AddIn_135914\I135914\_IString.h
;	COMDAT ??1ILPCSTR135914@@QAE@XZ
_TEXT	SEGMENT
__$EHRec$ = -12						; size = 12
??1ILPCSTR135914@@QAE@XZ PROC				; ILPCSTR135914::~ILPCSTR135914, COMDAT
; _this$ = ecx

; 44   : 	{

  00000	55		 push	 ebp
  00001	8b ec		 mov	 ebp, esp
  00003	6a ff		 push	 -1
  00005	68 00 00 00 00	 push	 __ehhandler$??1ILPCSTR135914@@QAE@XZ
  0000a	64 a1 00 00 00
	00		 mov	 eax, DWORD PTR fs:0
  00010	50		 push	 eax
  00011	56		 push	 esi
  00012	a1 00 00 00 00	 mov	 eax, DWORD PTR ___security_cookie
  00017	33 c5		 xor	 eax, ebp
  00019	50		 push	 eax
  0001a	8d 45 f4	 lea	 eax, DWORD PTR __$EHRec$[ebp]
  0001d	64 a3 00 00 00
	00		 mov	 DWORD PTR fs:0, eax
  00023	8b f1		 mov	 esi, ecx

; 45   : 		if( m_pIStrData)

  00025	8b 4e 04	 mov	 ecx, DWORD PTR [esi+4]
  00028	85 c9		 test	 ecx, ecx
  0002a	74 13		 je	 SHORT $LN2@ILPCSTR135

; 46   : 		{
; 47   : 			m_pIStrData->Release();

  0002c	8b 01		 mov	 eax, DWORD PTR [ecx]
  0002e	51		 push	 ecx
  0002f	ff 50 08	 call	 DWORD PTR [eax+8]

; 48   : 			m_pIStrData = NULL;

  00032	c7 46 04 00 00
	00 00		 mov	 DWORD PTR [esi+4], 0

; 49   : 			m_szData = NULL;

  00039	c7 06 00 00 00
	00		 mov	 DWORD PTR [esi], 0
$LN2@ILPCSTR135:

; 50   : 		}
; 51   : 	}

  0003f	8b 4d f4	 mov	 ecx, DWORD PTR __$EHRec$[ebp]
  00042	64 89 0d 00 00
	00 00		 mov	 DWORD PTR fs:0, ecx
  00049	59		 pop	 ecx
  0004a	5e		 pop	 esi
  0004b	8b e5		 mov	 esp, ebp
  0004d	5d		 pop	 ebp
  0004e	c3		 ret	 0
  0004f	cc		 int	 3
  00050	cc		 int	 3
  00051	cc		 int	 3
  00052	cc		 int	 3
  00053	cc		 int	 3
_TEXT	ENDS
;	COMDAT text$x
text$x	SEGMENT
__ehhandler$??1ILPCSTR135914@@QAE@XZ:
  00000	90		 npad	 1
  00001	90		 npad	 1
  00002	8b 54 24 08	 mov	 edx, DWORD PTR [esp+8]
  00006	8d 42 0c	 lea	 eax, DWORD PTR [edx+12]
  00009	8b 4a f8	 mov	 ecx, DWORD PTR [edx-8]
  0000c	33 c8		 xor	 ecx, eax
  0000e	e8 00 00 00 00	 call	 @__security_check_cookie@4
  00013	b8 00 00 00 00	 mov	 eax, OFFSET __ehfuncinfo$??1ILPCSTR135914@@QAE@XZ
  00018	e9 00 00 00 00	 jmp	 ___CxxFrameHandler3
text$x	ENDS
??1ILPCSTR135914@@QAE@XZ ENDP				; ILPCSTR135914::~ILPCSTR135914
; Function compile flags: /Ogtp
; File C:\Program Files (x86)\Microsoft Visual Studio\2019\Community\VC\Tools\MSVC\14.29.30133\atlmfc\include\afx.inl
;	COMDAT ??_GCListCtrl@@UAEPAXI@Z
_TEXT	SEGMENT
___flags$ = 8						; size = 4
??_GCListCtrl@@UAEPAXI@Z PROC				; CListCtrl::`scalar deleting destructor', COMDAT
; _this$ = ecx
  00000	55		 push	 ebp
  00001	8b ec		 mov	 ebp, esp
  00003	56		 push	 esi
  00004	8b f1		 mov	 esi, ecx
  00006	e8 00 00 00 00	 call	 ??1CListCtrl@@UAE@XZ	; CListCtrl::~CListCtrl
  0000b	8b 45 08	 mov	 eax, DWORD PTR ___flags$[ebp]
  0000e	a8 01		 test	 al, 1
  00010	74 22		 je	 SHORT $LN9@scalar
  00012	a8 04		 test	 al, 4
  00014	75 10		 jne	 SHORT $LN3@scalar

; 112  : 	{ ::operator delete(p); }

  00016	56		 push	 esi
  00017	e8 00 00 00 00	 call	 ??3@YAXPAX@Z		; operator delete
  0001c	83 c4 04	 add	 esp, 4
  0001f	8b c6		 mov	 eax, esi
  00021	5e		 pop	 esi
  00022	5d		 pop	 ebp
  00023	c2 04 00	 ret	 4
$LN3@scalar:
  00026	68 80 00 00 00	 push	 128			; 00000080H
  0002b	56		 push	 esi
  0002c	e8 00 00 00 00	 call	 ?__global_delete@@YAXPAXI@Z ; __global_delete
  00031	83 c4 08	 add	 esp, 8
$LN9@scalar:
  00034	8b c6		 mov	 eax, esi
  00036	5e		 pop	 esi
  00037	5d		 pop	 ebp
  00038	c2 04 00	 ret	 4
??_GCListCtrl@@UAEPAXI@Z ENDP				; CListCtrl::`scalar deleting destructor'
_TEXT	ENDS
; Function compile flags: /Ogtp
; File C:\Program Files (x86)\Microsoft Visual Studio\2019\Community\VC\Tools\MSVC\14.29.30133\atlmfc\include\afxdlgs.h
;	COMDAT ??1CColorDialog@@UAE@XZ
_TEXT	SEGMENT
??1CColorDialog@@UAE@XZ PROC				; CColorDialog::~CColorDialog, COMDAT
; _this$ = ecx

; 110  :     virtual ~CCommonDialog() {};

  00000	c7 01 00 00 00
	00		 mov	 DWORD PTR [ecx], OFFSET ??_7CCommonDialog@@6B@
  00006	e9 00 00 00 00	 jmp	 ??1CDialog@@UAE@XZ	; CDialog::~CDialog
??1CColorDialog@@UAE@XZ ENDP				; CColorDialog::~CColorDialog
_TEXT	ENDS
; Function compile flags: /Ogtp
; File C:\Program Files (x86)\Microsoft Visual Studio\2019\Community\VC\Tools\MSVC\14.29.30133\atlmfc\include\afxdlgs.h
; File C:\Program Files (x86)\Microsoft Visual Studio\2019\Community\VC\Tools\MSVC\14.29.30133\atlmfc\include\afx.inl
;	COMDAT ??_GCCommonDialog@@UAEPAXI@Z
_TEXT	SEGMENT
___flags$ = 8						; size = 4
??_GCCommonDialog@@UAEPAXI@Z PROC			; CCommonDialog::`scalar deleting destructor', COMDAT
; _this$ = ecx
  00000	55		 push	 ebp
  00001	8b ec		 mov	 ebp, esp
; File C:\Program Files (x86)\Microsoft Visual Studio\2019\Community\VC\Tools\MSVC\14.29.30133\atlmfc\include\afxdlgs.h

; 110  :     virtual ~CCommonDialog() {};

  00003	56		 push	 esi
  00004	8b f1		 mov	 esi, ecx
  00006	c7 06 00 00 00
	00		 mov	 DWORD PTR [esi], OFFSET ??_7CCommonDialog@@6B@
  0000c	e8 00 00 00 00	 call	 ??1CDialog@@UAE@XZ	; CDialog::~CDialog
  00011	8b 45 08	 mov	 eax, DWORD PTR ___flags$[ebp]
  00014	a8 01		 test	 al, 1
  00016	74 22		 je	 SHORT $LN12@scalar
  00018	a8 04		 test	 al, 4
  0001a	75 10		 jne	 SHORT $LN3@scalar
; File C:\Program Files (x86)\Microsoft Visual Studio\2019\Community\VC\Tools\MSVC\14.29.30133\atlmfc\include\afx.inl

; 112  : 	{ ::operator delete(p); }

  0001c	56		 push	 esi
  0001d	e8 00 00 00 00	 call	 ??3@YAXPAX@Z		; operator delete
  00022	83 c4 04	 add	 esp, 4
  00025	8b c6		 mov	 eax, esi
  00027	5e		 pop	 esi
  00028	5d		 pop	 ebp
  00029	c2 04 00	 ret	 4
$LN3@scalar:
  0002c	68 a8 00 00 00	 push	 168			; 000000a8H
  00031	56		 push	 esi
  00032	e8 00 00 00 00	 call	 ?__global_delete@@YAXPAXI@Z ; __global_delete
  00037	83 c4 08	 add	 esp, 8
$LN12@scalar:
  0003a	8b c6		 mov	 eax, esi
  0003c	5e		 pop	 esi
  0003d	5d		 pop	 ebp
  0003e	c2 04 00	 ret	 4
??_GCCommonDialog@@UAEPAXI@Z ENDP			; CCommonDialog::`scalar deleting destructor'
_TEXT	ENDS
; Function compile flags: /Ogtp
; File C:\Program Files (x86)\Microsoft Visual Studio\2019\Community\VC\Tools\MSVC\14.29.30133\atlmfc\include\afxdlgs.h
;	COMDAT ??1CCommonDialog@@UAE@XZ
_TEXT	SEGMENT
??1CCommonDialog@@UAE@XZ PROC				; CCommonDialog::~CCommonDialog, COMDAT
; _this$ = ecx

; 110  :     virtual ~CCommonDialog() {};

  00000	c7 01 00 00 00
	00		 mov	 DWORD PTR [ecx], OFFSET ??_7CCommonDialog@@6B@
  00006	e9 00 00 00 00	 jmp	 ??1CDialog@@UAE@XZ	; CDialog::~CDialog
??1CCommonDialog@@UAE@XZ ENDP				; CCommonDialog::~CCommonDialog
_TEXT	ENDS
; Function compile flags: /Ogtp
; File C:\Program Files (x86)\Microsoft Visual Studio\2019\Community\VC\Tools\MSVC\14.29.30133\atlmfc\include\afx.inl
;	COMDAT ??_GCEdit@@UAEPAXI@Z
_TEXT	SEGMENT
___flags$ = 8						; size = 4
??_GCEdit@@UAEPAXI@Z PROC				; CEdit::`scalar deleting destructor', COMDAT
; _this$ = ecx
  00000	55		 push	 ebp
  00001	8b ec		 mov	 ebp, esp
  00003	56		 push	 esi
  00004	8b f1		 mov	 esi, ecx
  00006	e8 00 00 00 00	 call	 ??1CEdit@@UAE@XZ	; CEdit::~CEdit
  0000b	8b 45 08	 mov	 eax, DWORD PTR ___flags$[ebp]
  0000e	a8 01		 test	 al, 1
  00010	74 22		 je	 SHORT $LN9@scalar
  00012	a8 04		 test	 al, 4
  00014	75 10		 jne	 SHORT $LN3@scalar

; 112  : 	{ ::operator delete(p); }

  00016	56		 push	 esi
  00017	e8 00 00 00 00	 call	 ??3@YAXPAX@Z		; operator delete
  0001c	83 c4 04	 add	 esp, 4
  0001f	8b c6		 mov	 eax, esi
  00021	5e		 pop	 esi
  00022	5d		 pop	 ebp
  00023	c2 04 00	 ret	 4
$LN3@scalar:
  00026	68 80 00 00 00	 push	 128			; 00000080H
  0002b	56		 push	 esi
  0002c	e8 00 00 00 00	 call	 ?__global_delete@@YAXPAXI@Z ; __global_delete
  00031	83 c4 08	 add	 esp, 8
$LN9@scalar:
  00034	8b c6		 mov	 eax, esi
  00036	5e		 pop	 esi
  00037	5d		 pop	 ebp
  00038	c2 04 00	 ret	 4
??_GCEdit@@UAEPAXI@Z ENDP				; CEdit::`scalar deleting destructor'
_TEXT	ENDS
; Function compile flags: /Ogtp
; File C:\Program Files (x86)\Microsoft Visual Studio\2019\Community\VC\Tools\MSVC\14.29.30133\atlmfc\include\afx.inl
;	COMDAT ??_GCComboBox@@UAEPAXI@Z
_TEXT	SEGMENT
___flags$ = 8						; size = 4
??_GCComboBox@@UAEPAXI@Z PROC				; CComboBox::`scalar deleting destructor', COMDAT
; _this$ = ecx
  00000	55		 push	 ebp
  00001	8b ec		 mov	 ebp, esp
  00003	56		 push	 esi
  00004	8b f1		 mov	 esi, ecx
  00006	e8 00 00 00 00	 call	 ??1CComboBox@@UAE@XZ	; CComboBox::~CComboBox
  0000b	8b 45 08	 mov	 eax, DWORD PTR ___flags$[ebp]
  0000e	a8 01		 test	 al, 1
  00010	74 22		 je	 SHORT $LN9@scalar
  00012	a8 04		 test	 al, 4
  00014	75 10		 jne	 SHORT $LN3@scalar

; 112  : 	{ ::operator delete(p); }

  00016	56		 push	 esi
  00017	e8 00 00 00 00	 call	 ??3@YAXPAX@Z		; operator delete
  0001c	83 c4 04	 add	 esp, 4
  0001f	8b c6		 mov	 eax, esi
  00021	5e		 pop	 esi
  00022	5d		 pop	 ebp
  00023	c2 04 00	 ret	 4
$LN3@scalar:
  00026	68 80 00 00 00	 push	 128			; 00000080H
  0002b	56		 push	 esi
  0002c	e8 00 00 00 00	 call	 ?__global_delete@@YAXPAXI@Z ; __global_delete
  00031	83 c4 08	 add	 esp, 8
$LN9@scalar:
  00034	8b c6		 mov	 eax, esi
  00036	5e		 pop	 esi
  00037	5d		 pop	 ebp
  00038	c2 04 00	 ret	 4
??_GCComboBox@@UAEPAXI@Z ENDP				; CComboBox::`scalar deleting destructor'
_TEXT	ENDS
; Function compile flags: /Ogtp
; File C:\Program Files (x86)\Microsoft Visual Studio\2019\Community\VC\Tools\MSVC\14.29.30133\atlmfc\include\afx.inl
;	COMDAT ??_GCButton@@UAEPAXI@Z
_TEXT	SEGMENT
___flags$ = 8						; size = 4
??_GCButton@@UAEPAXI@Z PROC				; CButton::`scalar deleting destructor', COMDAT
; _this$ = ecx
  00000	55		 push	 ebp
  00001	8b ec		 mov	 ebp, esp
  00003	56		 push	 esi
  00004	8b f1		 mov	 esi, ecx
  00006	e8 00 00 00 00	 call	 ??1CButton@@UAE@XZ	; CButton::~CButton
  0000b	8b 45 08	 mov	 eax, DWORD PTR ___flags$[ebp]
  0000e	a8 01		 test	 al, 1
  00010	74 22		 je	 SHORT $LN9@scalar
  00012	a8 04		 test	 al, 4
  00014	75 10		 jne	 SHORT $LN3@scalar

; 112  : 	{ ::operator delete(p); }

  00016	56		 push	 esi
  00017	e8 00 00 00 00	 call	 ??3@YAXPAX@Z		; operator delete
  0001c	83 c4 04	 add	 esp, 4
  0001f	8b c6		 mov	 eax, esi
  00021	5e		 pop	 esi
  00022	5d		 pop	 ebp
  00023	c2 04 00	 ret	 4
$LN3@scalar:
  00026	68 80 00 00 00	 push	 128			; 00000080H
  0002b	56		 push	 esi
  0002c	e8 00 00 00 00	 call	 ?__global_delete@@YAXPAXI@Z ; __global_delete
  00031	83 c4 08	 add	 esp, 8
$LN9@scalar:
  00034	8b c6		 mov	 eax, esi
  00036	5e		 pop	 esi
  00037	5d		 pop	 ebp
  00038	c2 04 00	 ret	 4
??_GCButton@@UAEPAXI@Z ENDP				; CButton::`scalar deleting destructor'
_TEXT	ENDS
; Function compile flags: /Ogtp
; File C:\Program Files (x86)\Microsoft Visual Studio\2019\Community\VC\Tools\MSVC\14.29.30133\atlmfc\include\afx.inl
;	COMDAT ??_GCStatic@@UAEPAXI@Z
_TEXT	SEGMENT
___flags$ = 8						; size = 4
??_GCStatic@@UAEPAXI@Z PROC				; CStatic::`scalar deleting destructor', COMDAT
; _this$ = ecx
  00000	55		 push	 ebp
  00001	8b ec		 mov	 ebp, esp
  00003	56		 push	 esi
  00004	8b f1		 mov	 esi, ecx
  00006	e8 00 00 00 00	 call	 ??1CStatic@@UAE@XZ	; CStatic::~CStatic
  0000b	8b 45 08	 mov	 eax, DWORD PTR ___flags$[ebp]
  0000e	a8 01		 test	 al, 1
  00010	74 22		 je	 SHORT $LN9@scalar
  00012	a8 04		 test	 al, 4
  00014	75 10		 jne	 SHORT $LN3@scalar

; 112  : 	{ ::operator delete(p); }

  00016	56		 push	 esi
  00017	e8 00 00 00 00	 call	 ??3@YAXPAX@Z		; operator delete
  0001c	83 c4 04	 add	 esp, 4
  0001f	8b c6		 mov	 eax, esi
  00021	5e		 pop	 esi
  00022	5d		 pop	 ebp
  00023	c2 04 00	 ret	 4
$LN3@scalar:
  00026	68 80 00 00 00	 push	 128			; 00000080H
  0002b	56		 push	 esi
  0002c	e8 00 00 00 00	 call	 ?__global_delete@@YAXPAXI@Z ; __global_delete
  00031	83 c4 08	 add	 esp, 8
$LN9@scalar:
  00034	8b c6		 mov	 eax, esi
  00036	5e		 pop	 esi
  00037	5d		 pop	 ebp
  00038	c2 04 00	 ret	 4
??_GCStatic@@UAEPAXI@Z ENDP				; CStatic::`scalar deleting destructor'
_TEXT	ENDS
; Function compile flags: /Ogtp
; File C:\Program Files (x86)\Microsoft Visual Studio\2019\Community\VC\Tools\MSVC\14.29.30133\atlmfc\include\afxwin2.inl
;	COMDAT ?Create@CDialog@@UAEHIPAVCWnd@@@Z
_TEXT	SEGMENT
_nIDTemplate$ = 8					; size = 4
_pParentWnd$ = 12					; size = 4
?Create@CDialog@@UAEHIPAVCWnd@@@Z PROC			; CDialog::Create, COMDAT
; _this$ = ecx

; 585  : 	{ return CDialog::Create(ATL_MAKEINTRESOURCE(nIDTemplate), pParentWnd); }

  00000	55		 push	 ebp
  00001	8b ec		 mov	 ebp, esp
  00003	0f b7 45 08	 movzx	 eax, WORD PTR _nIDTemplate$[ebp]
  00007	89 45 08	 mov	 DWORD PTR _nIDTemplate$[ebp], eax
  0000a	5d		 pop	 ebp
  0000b	e9 00 00 00 00	 jmp	 ?Create@CDialog@@UAEHPBDPAVCWnd@@@Z ; CDialog::Create
?Create@CDialog@@UAEHIPAVCWnd@@@Z ENDP			; CDialog::Create
_TEXT	ENDS
; Function compile flags: /Ogtp
; File C:\Program Files (x86)\Microsoft Visual Studio\2019\Community\VC\Tools\MSVC\14.29.30133\atlmfc\include\afxwin2.inl
;	COMDAT ?EndModalState@CWnd@@UAEXXZ
_TEXT	SEGMENT
?EndModalState@CWnd@@UAEXXZ PROC			; CWnd::EndModalState, COMDAT
; _this$ = ecx

; 567  : 	{ ::EnableWindow(m_hWnd, TRUE); }

  00000	6a 01		 push	 1
  00002	ff 71 20	 push	 DWORD PTR [ecx+32]
  00005	ff 15 00 00 00
	00		 call	 DWORD PTR __imp__EnableWindow@8
  0000b	c3		 ret	 0
?EndModalState@CWnd@@UAEXXZ ENDP			; CWnd::EndModalState
_TEXT	ENDS
; Function compile flags: /Ogtp
; File C:\Program Files (x86)\Microsoft Visual Studio\2019\Community\VC\Tools\MSVC\14.29.30133\atlmfc\include\afxwin2.inl
;	COMDAT ?BeginModalState@CWnd@@UAEXXZ
_TEXT	SEGMENT
?BeginModalState@CWnd@@UAEXXZ PROC			; CWnd::BeginModalState, COMDAT
; _this$ = ecx

; 565  : 	{ ::EnableWindow(m_hWnd, FALSE); }

  00000	6a 00		 push	 0
  00002	ff 71 20	 push	 DWORD PTR [ecx+32]
  00005	ff 15 00 00 00
	00		 call	 DWORD PTR __imp__EnableWindow@8
  0000b	c3		 ret	 0
?BeginModalState@CWnd@@UAEXXZ ENDP			; CWnd::BeginModalState
_TEXT	ENDS
; Function compile flags: /Ogtp
; File C:\Program Files (x86)\Microsoft Visual Studio\2019\Community\VC\Tools\MSVC\14.29.30133\atlmfc\include\afxwin2.inl
;	COMDAT ?DoDataExchange@CWnd@@MAEXPAVCDataExchange@@@Z
_TEXT	SEGMENT
___formal$ = 8						; size = 4
?DoDataExchange@CWnd@@MAEXPAVCDataExchange@@@Z PROC	; CWnd::DoDataExchange, COMDAT
; _this$ = ecx

; 561  : 	{ } // default does nothing

  00000	c2 04 00	 ret	 4
?DoDataExchange@CWnd@@MAEXPAVCDataExchange@@@Z ENDP	; CWnd::DoDataExchange
_TEXT	ENDS
; Function compile flags: /Ogtp
; File C:\Program Files (x86)\Microsoft Visual Studio\2019\Community\VC\Tools\MSVC\14.29.30133\atlmfc\include\afx.inl
;	COMDAT ?Dump@CObject@@UBEXAAVCDumpContext@@@Z
_TEXT	SEGMENT
___formal$ = 8						; size = 4
?Dump@CObject@@UBEXAAVCDumpContext@@@Z PROC		; CObject::Dump, COMDAT
; _this$ = ecx

; 122  : 	{ /* no dumping in release builds */ }

  00000	c2 04 00	 ret	 4
?Dump@CObject@@UBEXAAVCDumpContext@@@Z ENDP		; CObject::Dump
_TEXT	ENDS
; Function compile flags: /Ogtp
; File C:\Program Files (x86)\Microsoft Visual Studio\2019\Community\VC\Tools\MSVC\14.29.30133\atlmfc\include\afx.inl
;	COMDAT ?AssertValid@CObject@@UBEXXZ
_TEXT	SEGMENT
?AssertValid@CObject@@UBEXXZ PROC			; CObject::AssertValid, COMDAT
; _this$ = ecx

; 120  : 	{ /* no asserts in release builds */ }

  00000	c2 00 00	 ret	 0
?AssertValid@CObject@@UBEXXZ ENDP			; CObject::AssertValid
_TEXT	ENDS
; Function compile flags: /Ogtp
; File C:\Program Files (x86)\Microsoft Visual Studio\2019\Community\VC\Tools\MSVC\14.29.30133\atlmfc\include\afx.inl
;	COMDAT ?Serialize@CObject@@UAEXAAVCArchive@@@Z
_TEXT	SEGMENT
___formal$ = 8						; size = 4
?Serialize@CObject@@UAEXAAVCArchive@@@Z PROC		; CObject::Serialize, COMDAT
; _this$ = ecx

; 106  : 	{ /* CObject does not serialize anything by default */ }

  00000	c2 04 00	 ret	 4
?Serialize@CObject@@UAEXAAVCArchive@@@Z ENDP		; CObject::Serialize
_TEXT	ENDS
; Function compile flags: /Ogtp
; File D:\git\src\IBK\IBK_DRFN\ProjSrc\SrcChartEx\ChartAddIn\ChartEnvSetupDlgAddIn\ChartEnvSetupDlgAddIn\Setting_Common_Type_A.cpp
;	COMDAT ?__empty_global_delete@@YAXPAXI@Z
_TEXT	SEGMENT
___formal$ = 8						; size = 4
___formal$ = 12						; size = 4
?__empty_global_delete@@YAXPAXI@Z PROC			; __empty_global_delete, COMDAT

  00000	c2 00 00	 ret	 0
?__empty_global_delete@@YAXPAXI@Z ENDP			; __empty_global_delete
_TEXT	ENDS
; Function compile flags: /Ogtp
; File D:\git\src\IBK\IBK_DRFN\ProjSrc\SrcChartEx\ChartAddIn\ChartEnvSetupDlgAddIn\ChartEnvSetupDlgAddIn\Setting_Common_Type_A.cpp
;	COMDAT ?__empty_global_delete@@YAXPAX@Z
_TEXT	SEGMENT
___formal$ = 8						; size = 4
?__empty_global_delete@@YAXPAX@Z PROC			; __empty_global_delete, COMDAT

  00000	c2 00 00	 ret	 0
?__empty_global_delete@@YAXPAX@Z ENDP			; __empty_global_delete
_TEXT	ENDS
END
