; Listing generated by Microsoft (R) Optimizing Compiler Version 19.29.30145.0 

	TITLE	D:\git\src\IBK\IBK_DRFN\#DRfn-CS\_Obj\ChartEnvSetupDlgAddIn\Setting_Special_Type_C.obj
	.686P
	.XMM
	include listing.inc
	.model	flat

INCLUDELIB MSVCRT
INCLUDELIB OLDNAMES

PUBLIC	??_C@_01GBGANLPD@0@				; `string'
PUBLIC	??_C@_01HIHLOKLC@1@				; `string'
PUBLIC	??_C@_01FDFGLJHB@2@				; `string'
PUBLIC	??_C@_01EKENIIDA@3@				; `string'
PUBLIC	??_C@_01FAMBOPH@4@				; `string'
PUBLIC	??_C@_01BMBHCPLG@5@				; `string'
PUBLIC	??_C@_01DHDKHMHF@6@				; `string'
PUBLIC	??_C@_01COCBENDE@7@				; `string'
PUBLIC	??_C@_01KJLJFBPL@8@				; `string'
PUBLIC	??_C@_01LAKCGALK@9@				; `string'
PUBLIC	??_C@_02PKFBJPLJ@10@				; `string'
PUBLIC	??_C@_02ODEKKOPI@11@				; `string'
PUBLIC	??_C@_02MIGHPNDL@12@				; `string'
PUBLIC	??_C@_02NBHMMMHK@13@				; `string'
PUBLIC	??_C@_02JODNFKLN@14@				; `string'
PUBLIC	??_C@_02IHCGGLPM@15@				; `string'
PUBLIC	??_C@_02KMALDIDP@16@				; `string'
PUBLIC	??_C@_02LFBAAJHO@17@				; `string'
PUBLIC	??_C@_02DCIIBFLB@18@				; `string'
PUBLIC	??_C@_02CLJDCEPA@19@				; `string'
PUBLIC	??_C@_02PIBHCBOA@20@				; `string'
PUBLIC	??_C@_02OBAMBAKB@21@				; `string'
PUBLIC	??_C@_02MKCBEDGC@22@				; `string'
PUBLIC	??_C@_02NDDKHCCD@23@				; `string'
PUBLIC	??_C@_02JMHLOEOE@24@				; `string'
;	COMDAT ??_C@_02JMHLOEOE@24@
CONST	SEGMENT
??_C@_02JMHLOEOE@24@ DB '24', 00H			; `string'
CONST	ENDS
;	COMDAT ??_C@_02NDDKHCCD@23@
CONST	SEGMENT
??_C@_02NDDKHCCD@23@ DB '23', 00H			; `string'
CONST	ENDS
;	COMDAT ??_C@_02MKCBEDGC@22@
CONST	SEGMENT
??_C@_02MKCBEDGC@22@ DB '22', 00H			; `string'
CONST	ENDS
;	COMDAT ??_C@_02OBAMBAKB@21@
CONST	SEGMENT
??_C@_02OBAMBAKB@21@ DB '21', 00H			; `string'
CONST	ENDS
;	COMDAT ??_C@_02PIBHCBOA@20@
CONST	SEGMENT
??_C@_02PIBHCBOA@20@ DB '20', 00H			; `string'
CONST	ENDS
;	COMDAT ??_C@_02CLJDCEPA@19@
CONST	SEGMENT
??_C@_02CLJDCEPA@19@ DB '19', 00H			; `string'
CONST	ENDS
;	COMDAT ??_C@_02DCIIBFLB@18@
CONST	SEGMENT
??_C@_02DCIIBFLB@18@ DB '18', 00H			; `string'
CONST	ENDS
;	COMDAT ??_C@_02LFBAAJHO@17@
CONST	SEGMENT
??_C@_02LFBAAJHO@17@ DB '17', 00H			; `string'
CONST	ENDS
;	COMDAT ??_C@_02KMALDIDP@16@
CONST	SEGMENT
??_C@_02KMALDIDP@16@ DB '16', 00H			; `string'
CONST	ENDS
;	COMDAT ??_C@_02IHCGGLPM@15@
CONST	SEGMENT
??_C@_02IHCGGLPM@15@ DB '15', 00H			; `string'
CONST	ENDS
;	COMDAT ??_C@_02JODNFKLN@14@
CONST	SEGMENT
??_C@_02JODNFKLN@14@ DB '14', 00H			; `string'
CONST	ENDS
;	COMDAT ??_C@_02NBHMMMHK@13@
CONST	SEGMENT
??_C@_02NBHMMMHK@13@ DB '13', 00H			; `string'
CONST	ENDS
;	COMDAT ??_C@_02MIGHPNDL@12@
CONST	SEGMENT
??_C@_02MIGHPNDL@12@ DB '12', 00H			; `string'
CONST	ENDS
;	COMDAT ??_C@_02ODEKKOPI@11@
CONST	SEGMENT
??_C@_02ODEKKOPI@11@ DB '11', 00H			; `string'
CONST	ENDS
;	COMDAT ??_C@_02PKFBJPLJ@10@
CONST	SEGMENT
??_C@_02PKFBJPLJ@10@ DB '10', 00H			; `string'
CONST	ENDS
;	COMDAT ??_C@_01LAKCGALK@9@
CONST	SEGMENT
??_C@_01LAKCGALK@9@ DB '9', 00H				; `string'
CONST	ENDS
;	COMDAT ??_C@_01KJLJFBPL@8@
CONST	SEGMENT
??_C@_01KJLJFBPL@8@ DB '8', 00H				; `string'
CONST	ENDS
;	COMDAT ??_C@_01COCBENDE@7@
CONST	SEGMENT
??_C@_01COCBENDE@7@ DB '7', 00H				; `string'
CONST	ENDS
;	COMDAT ??_C@_01DHDKHMHF@6@
CONST	SEGMENT
??_C@_01DHDKHMHF@6@ DB '6', 00H				; `string'
CONST	ENDS
;	COMDAT ??_C@_01BMBHCPLG@5@
CONST	SEGMENT
??_C@_01BMBHCPLG@5@ DB '5', 00H				; `string'
CONST	ENDS
;	COMDAT ??_C@_01FAMBOPH@4@
CONST	SEGMENT
??_C@_01FAMBOPH@4@ DB '4', 00H				; `string'
CONST	ENDS
;	COMDAT ??_C@_01EKENIIDA@3@
CONST	SEGMENT
??_C@_01EKENIIDA@3@ DB '3', 00H				; `string'
CONST	ENDS
;	COMDAT ??_C@_01FDFGLJHB@2@
CONST	SEGMENT
??_C@_01FDFGLJHB@2@ DB '2', 00H				; `string'
CONST	ENDS
;	COMDAT ??_C@_01HIHLOKLC@1@
CONST	SEGMENT
??_C@_01HIHLOKLC@1@ DB '1', 00H				; `string'
CONST	ENDS
;	COMDAT ??_C@_01GBGANLPD@0@
CONST	SEGMENT
??_C@_01GBGANLPD@0@ DB '0', 00H				; `string'
CONST	ENDS
PUBLIC	?__empty_global_delete@@YAXPAX@Z		; __empty_global_delete
PUBLIC	?__empty_global_delete@@YAXPAXI@Z		; __empty_global_delete
PUBLIC	?Serialize@CObject@@UAEXAAVCArchive@@@Z		; CObject::Serialize
PUBLIC	?AssertValid@CObject@@UBEXXZ			; CObject::AssertValid
PUBLIC	?Dump@CObject@@UBEXAAVCDumpContext@@@Z		; CObject::Dump
PUBLIC	?DoDataExchange@CWnd@@MAEXPAVCDataExchange@@@Z	; CWnd::DoDataExchange
PUBLIC	?BeginModalState@CWnd@@UAEXXZ			; CWnd::BeginModalState
PUBLIC	?EndModalState@CWnd@@UAEXXZ			; CWnd::EndModalState
PUBLIC	?Create@CDialog@@UAEHIPAVCWnd@@@Z		; CDialog::Create
PUBLIC	??1CCommonDialog@@UAE@XZ			; CCommonDialog::~CCommonDialog
PUBLIC	??_GCCommonDialog@@UAEPAXI@Z			; CCommonDialog::`scalar deleting destructor'
PUBLIC	??1CColorDialog@@UAE@XZ				; CColorDialog::~CColorDialog
PUBLIC	??1ILPCSTR135914@@QAE@XZ			; ILPCSTR135914::~ILPCSTR135914
PUBLIC	??0CSetting_Special_Type_C@@QAE@PAUIChartOCX135914@@PAVCWnd@@1@Z ; CSetting_Special_Type_C::CSetting_Special_Type_C
PUBLIC	?PreTranslateMessage@CSetting_Special_Type_C@@UAEHPAUtagMSG@@@Z ; CSetting_Special_Type_C::PreTranslateMessage
PUBLIC	?DoDataExchange@CSetting_Special_Type_C@@MAEXPAVCDataExchange@@@Z ; CSetting_Special_Type_C::DoDataExchange
PUBLIC	?Initial@CSetting_Special_Type_C@@UAEXPAUIGraphInfo135914@@@Z ; CSetting_Special_Type_C::Initial
PUBLIC	?OnApply@CSetting_Special_Type_C@@UAEHPAUIGraphInfo135914@@@Z ; CSetting_Special_Type_C::OnApply
PUBLIC	?OnBtnUp@CSetting_Special_Type_C@@IAEXXZ	; CSetting_Special_Type_C::OnBtnUp
PUBLIC	?OnBtnDown@CSetting_Special_Type_C@@IAEXXZ	; CSetting_Special_Type_C::OnBtnDown
PUBLIC	?OnInitDialog@CSetting_Special_Type_C@@MAEHXZ	; CSetting_Special_Type_C::OnInitDialog
PUBLIC	?GetThisMessageMap@CSetting_Special_Type_C@@KGPBUAFX_MSGMAP@@XZ ; CSetting_Special_Type_C::GetThisMessageMap
PUBLIC	?GetMessageMap@CSetting_Special_Type_C@@MBEPBUAFX_MSGMAP@@XZ ; CSetting_Special_Type_C::GetMessageMap
PUBLIC	??_GCSetting_Special_Type_C@@UAEPAXI@Z		; CSetting_Special_Type_C::`scalar deleting destructor'
PUBLIC	??_C@_00CNPNBAHC@@				; `string'
PUBLIC	??_7CCommonDialog@@6B@				; CCommonDialog::`vftable'
PUBLIC	??_R0?AVCObject@@@8				; CObject `RTTI Type Descriptor'
PUBLIC	??_R3CObject@@8					; CObject::`RTTI Class Hierarchy Descriptor'
PUBLIC	??_R2CObject@@8					; CObject::`RTTI Base Class Array'
PUBLIC	??_R1A@?0A@EA@CObject@@8			; CObject::`RTTI Base Class Descriptor at (0,-1,0,64)'
PUBLIC	??_R1A@?0A@EA@CWnd@@8				; CWnd::`RTTI Base Class Descriptor at (0,-1,0,64)'
PUBLIC	??_R0?AVCWnd@@@8				; CWnd `RTTI Type Descriptor'
PUBLIC	??_R3CWnd@@8					; CWnd::`RTTI Class Hierarchy Descriptor'
PUBLIC	??_R2CWnd@@8					; CWnd::`RTTI Base Class Array'
PUBLIC	??_R1A@?0A@EA@CCmdTarget@@8			; CCmdTarget::`RTTI Base Class Descriptor at (0,-1,0,64)'
PUBLIC	??_R0?AVCCmdTarget@@@8				; CCmdTarget `RTTI Type Descriptor'
PUBLIC	??_R3CCmdTarget@@8				; CCmdTarget::`RTTI Class Hierarchy Descriptor'
PUBLIC	??_R2CCmdTarget@@8				; CCmdTarget::`RTTI Base Class Array'
PUBLIC	??_R4CCommonDialog@@6B@				; CCommonDialog::`RTTI Complete Object Locator'
PUBLIC	??_R0?AVCCommonDialog@@@8			; CCommonDialog `RTTI Type Descriptor'
PUBLIC	??_R3CCommonDialog@@8				; CCommonDialog::`RTTI Class Hierarchy Descriptor'
PUBLIC	??_R2CCommonDialog@@8				; CCommonDialog::`RTTI Base Class Array'
PUBLIC	??_R1A@?0A@EA@CCommonDialog@@8			; CCommonDialog::`RTTI Base Class Descriptor at (0,-1,0,64)'
PUBLIC	??_R1A@?0A@EA@CDialog@@8			; CDialog::`RTTI Base Class Descriptor at (0,-1,0,64)'
PUBLIC	??_R0?AVCDialog@@@8				; CDialog `RTTI Type Descriptor'
PUBLIC	??_R3CDialog@@8					; CDialog::`RTTI Class Hierarchy Descriptor'
PUBLIC	??_R2CDialog@@8					; CDialog::`RTTI Base Class Array'
PUBLIC	??_7CSetting_Special_Type_C@@6B@		; CSetting_Special_Type_C::`vftable'
PUBLIC	??_C@_04HGGMHPIM@?$CF?4?$CKf@			; `string'
PUBLIC	??_C@_0CI@DCNEOPPA@?$MA?T?$LH?B?$LF?H?5?$LJ?$KO?$MA?Z?$LP?$KN?$MA?L?5?$LO?K?$LI?B?$MA?$LK?5?A?x?$LJ?$PN?$MA?L?5?$LO@ ; `string'
PUBLIC	??_R4CSetting_Special_Type_C@@6B@		; CSetting_Special_Type_C::`RTTI Complete Object Locator'
PUBLIC	??_R0?AVCSetting_Special_Type_C@@@8		; CSetting_Special_Type_C `RTTI Type Descriptor'
PUBLIC	??_R3CSetting_Special_Type_C@@8			; CSetting_Special_Type_C::`RTTI Class Hierarchy Descriptor'
PUBLIC	??_R2CSetting_Special_Type_C@@8			; CSetting_Special_Type_C::`RTTI Base Class Array'
PUBLIC	??_R1A@?0A@EA@CSetting_Special_Type_C@@8	; CSetting_Special_Type_C::`RTTI Base Class Descriptor at (0,-1,0,64)'
PUBLIC	??_R1A@?0A@EA@CBaseDialog@@8			; CBaseDialog::`RTTI Base Class Descriptor at (0,-1,0,64)'
PUBLIC	??_R0?AVCBaseDialog@@@8				; CBaseDialog `RTTI Type Descriptor'
PUBLIC	??_R3CBaseDialog@@8				; CBaseDialog::`RTTI Class Hierarchy Descriptor'
PUBLIC	??_R2CBaseDialog@@8				; CBaseDialog::`RTTI Base Class Array'
EXTRN	??3@YAXPAX@Z:PROC				; operator delete
EXTRN	?__global_delete@@YAXPAXI@Z:PROC		; __global_delete
EXTRN	___std_terminate:PROC
EXTRN	__imp__IsWindow@4:PROC
EXTRN	__imp__EnableWindow@8:PROC
EXTRN	__imp__InvalidateRect@12:PROC
EXTRN	__imp__atof:PROC
EXTRN	__imp_??0?$CStringT@DV?$StrTraitMFC_DLL@DV?$ChTraitsCRT@D@ATL@@@@@ATL@@QAE@XZ:PROC
EXTRN	__imp_??0?$CStringT@DV?$StrTraitMFC_DLL@DV?$ChTraitsCRT@D@ATL@@@@@ATL@@QAE@ABV01@@Z:PROC
EXTRN	__imp_??1?$CStringT@DV?$StrTraitMFC_DLL@DV?$ChTraitsCRT@D@ATL@@@@@ATL@@QAE@XZ:PROC
EXTRN	__imp_??4?$CStringT@DV?$StrTraitMFC_DLL@DV?$ChTraitsCRT@D@ATL@@@@@ATL@@QAEAAV01@ABV01@@Z:PROC
EXTRN	__imp_??4?$CStringT@DV?$StrTraitMFC_DLL@DV?$ChTraitsCRT@D@ATL@@@@@ATL@@QAEAAV01@PBD@Z:PROC
EXTRN	__imp_?Compare@?$CStringT@DV?$StrTraitMFC_DLL@DV?$ChTraitsCRT@D@ATL@@@@@ATL@@QBEHPBD@Z:PROC
EXTRN	__imp_?Remove@?$CStringT@DV?$StrTraitMFC_DLL@DV?$ChTraitsCRT@D@ATL@@@@@ATL@@QAEHD@Z:PROC
EXTRN	__imp_?Find@?$CStringT@DV?$StrTraitMFC_DLL@DV?$ChTraitsCRT@D@ATL@@@@@ATL@@QBEHDH@Z:PROC
EXTRN	__imp_?Mid@?$CStringT@DV?$StrTraitMFC_DLL@DV?$ChTraitsCRT@D@ATL@@@@@ATL@@QBE?AV12@H@Z:PROC
EXTRN	__imp_?Format@?$CStringT@DV?$StrTraitMFC_DLL@DV?$ChTraitsCRT@D@ATL@@@@@ATL@@QAAXPBDZZ:PROC
EXTRN	?DDX_Text@@YGXPAVCDataExchange@@HAAV?$CStringT@DV?$StrTraitMFC_DLL@DV?$ChTraitsCRT@D@ATL@@@@@ATL@@@Z:PROC ; DDX_Text
EXTRN	?DDX_Control@@YGXPAVCDataExchange@@HAAVCWnd@@@Z:PROC ; DDX_Control
EXTRN	?IsInvokeAllowed@CCmdTarget@@UAEHJ@Z:PROC	; CCmdTarget::IsInvokeAllowed
EXTRN	?GetDispatchIID@CCmdTarget@@UAEHPAU_GUID@@@Z:PROC ; CCmdTarget::GetDispatchIID
EXTRN	?GetTypeInfoCount@CCmdTarget@@UAEIXZ:PROC	; CCmdTarget::GetTypeInfoCount
EXTRN	?GetTypeLibCache@CCmdTarget@@UAEPAVCTypeLibCache@@XZ:PROC ; CCmdTarget::GetTypeLibCache
EXTRN	?GetTypeLib@CCmdTarget@@UAEJKPAPAUITypeLib@@@Z:PROC ; CCmdTarget::GetTypeLib
EXTRN	?GetCommandMap@CCmdTarget@@MBEPBUAFX_OLECMDMAP@@XZ:PROC ; CCmdTarget::GetCommandMap
EXTRN	?GetDispatchMap@CCmdTarget@@MBEPBUAFX_DISPMAP@@XZ:PROC ; CCmdTarget::GetDispatchMap
EXTRN	?GetConnectionMap@CCmdTarget@@MBEPBUAFX_CONNECTIONMAP@@XZ:PROC ; CCmdTarget::GetConnectionMap
EXTRN	?GetEventSinkMap@CCmdTarget@@MBEPBUAFX_EVENTSINKMAP@@XZ:PROC ; CCmdTarget::GetEventSinkMap
EXTRN	?OnCreateAggregates@CCmdTarget@@UAEHXZ:PROC	; CCmdTarget::OnCreateAggregates
EXTRN	?GetInterfaceHook@CCmdTarget@@UAEPAUIUnknown@@PBX@Z:PROC ; CCmdTarget::GetInterfaceHook
EXTRN	?GetExtraConnectionPoints@CCmdTarget@@MAEHPAVCPtrArray@@@Z:PROC ; CCmdTarget::GetExtraConnectionPoints
EXTRN	?GetConnectionHook@CCmdTarget@@MAEPAUIConnectionPoint@@ABU_GUID@@@Z:PROC ; CCmdTarget::GetConnectionHook
EXTRN	?PreSubclassWindow@CWnd@@UAEXXZ:PROC		; CWnd::PreSubclassWindow
EXTRN	?Create@CWnd@@UAEHPBD0KABUtagRECT@@PAV1@IPAUCCreateContext@@@Z:PROC ; CWnd::Create
EXTRN	?CreateEx@CWnd@@UAEHKPBD0KHHHHPAUHWND__@@PAUHMENU__@@PAX@Z:PROC ; CWnd::CreateEx
EXTRN	?CreateEx@CWnd@@UAEHKPBD0KABUtagRECT@@PAV1@IPAX@Z:PROC ; CWnd::CreateEx
EXTRN	?DestroyWindow@CWnd@@UAEHXZ:PROC		; CWnd::DestroyWindow
EXTRN	?PreCreateWindow@CWnd@@UAEHAAUtagCREATESTRUCTA@@@Z:PROC ; CWnd::PreCreateWindow
EXTRN	?CalcWindowRect@CWnd@@UAEXPAUtagRECT@@I@Z:PROC	; CWnd::CalcWindowRect
EXTRN	?GetDlgItem@CWnd@@QBEPAV1@H@Z:PROC		; CWnd::GetDlgItem
EXTRN	?SetWindowTextA@CWnd@@QAEXPBD@Z:PROC		; CWnd::SetWindowTextA
EXTRN	?GetMenu@CWnd@@UBEPAVCMenu@@XZ:PROC		; CWnd::GetMenu
EXTRN	?SetMenu@CWnd@@UAEHPAVCMenu@@@Z:PROC		; CWnd::SetMenu
EXTRN	?ShowWindow@CWnd@@QAEHH@Z:PROC			; CWnd::ShowWindow
EXTRN	?OnToolHitTest@CWnd@@UBEHVCPoint@@PAUtagTOOLINFOA@@@Z:PROC ; CWnd::OnToolHitTest
EXTRN	?SetFocus@CWnd@@QAEPAV1@XZ:PROC			; CWnd::SetFocus
EXTRN	?GetScrollBarCtrl@CWnd@@UBEPAVCScrollBar@@H@Z:PROC ; CWnd::GetScrollBarCtrl
EXTRN	?UpdateData@CWnd@@QAEHH@Z:PROC			; CWnd::UpdateData
EXTRN	?WinHelpA@CWnd@@UAEXKI@Z:PROC			; CWnd::WinHelpA
EXTRN	?HtmlHelpA@CWnd@@UAEXKI@Z:PROC			; CWnd::HtmlHelpA
EXTRN	?WinHelpInternal@CWnd@@UAEXKI@Z:PROC		; CWnd::WinHelpInternal
EXTRN	?ContinueModal@CWnd@@UAEHXZ:PROC		; CWnd::ContinueModal
EXTRN	?EndModalLoop@CWnd@@UAEXH@Z:PROC		; CWnd::EndModalLoop
EXTRN	?OnDrawIconicThumbnailOrLivePreview@CWnd@@UAEXAAVCDC@@VCRect@@VCSize@@HAAH@Z:PROC ; CWnd::OnDrawIconicThumbnailOrLivePreview
EXTRN	?GetInterfaceMap@CWnd@@MBEPBUAFX_INTERFACEMAP@@XZ:PROC ; CWnd::GetInterfaceMap
EXTRN	?EnsureStdObj@CWnd@@UAEJXZ:PROC			; CWnd::EnsureStdObj
EXTRN	?get_accParent@CWnd@@UAEJPAPAUIDispatch@@@Z:PROC ; CWnd::get_accParent
EXTRN	?get_accChildCount@CWnd@@UAEJPAJ@Z:PROC		; CWnd::get_accChildCount
EXTRN	?get_accChild@CWnd@@UAEJUtagVARIANT@@PAPAUIDispatch@@@Z:PROC ; CWnd::get_accChild
EXTRN	?get_accName@CWnd@@UAEJUtagVARIANT@@PAPA_W@Z:PROC ; CWnd::get_accName
EXTRN	?get_accValue@CWnd@@UAEJUtagVARIANT@@PAPA_W@Z:PROC ; CWnd::get_accValue
EXTRN	?get_accDescription@CWnd@@UAEJUtagVARIANT@@PAPA_W@Z:PROC ; CWnd::get_accDescription
EXTRN	?get_accRole@CWnd@@UAEJUtagVARIANT@@PAU2@@Z:PROC ; CWnd::get_accRole
EXTRN	?get_accState@CWnd@@UAEJUtagVARIANT@@PAU2@@Z:PROC ; CWnd::get_accState
EXTRN	?get_accHelp@CWnd@@UAEJUtagVARIANT@@PAPA_W@Z:PROC ; CWnd::get_accHelp
EXTRN	?get_accHelpTopic@CWnd@@UAEJPAPA_WUtagVARIANT@@PAJ@Z:PROC ; CWnd::get_accHelpTopic
EXTRN	?get_accKeyboardShortcut@CWnd@@UAEJUtagVARIANT@@PAPA_W@Z:PROC ; CWnd::get_accKeyboardShortcut
EXTRN	?get_accFocus@CWnd@@UAEJPAUtagVARIANT@@@Z:PROC	; CWnd::get_accFocus
EXTRN	?get_accSelection@CWnd@@UAEJPAUtagVARIANT@@@Z:PROC ; CWnd::get_accSelection
EXTRN	?get_accDefaultAction@CWnd@@UAEJUtagVARIANT@@PAPA_W@Z:PROC ; CWnd::get_accDefaultAction
EXTRN	?accSelect@CWnd@@UAEJJUtagVARIANT@@@Z:PROC	; CWnd::accSelect
EXTRN	?accLocation@CWnd@@UAEJPAJ000UtagVARIANT@@@Z:PROC ; CWnd::accLocation
EXTRN	?accNavigate@CWnd@@UAEJJUtagVARIANT@@PAU2@@Z:PROC ; CWnd::accNavigate
EXTRN	?accHitTest@CWnd@@UAEJJJPAUtagVARIANT@@@Z:PROC	; CWnd::accHitTest
EXTRN	?accDoDefaultAction@CWnd@@UAEJUtagVARIANT@@@Z:PROC ; CWnd::accDoDefaultAction
EXTRN	?put_accName@CWnd@@UAEJUtagVARIANT@@PA_W@Z:PROC	; CWnd::put_accName
EXTRN	?put_accValue@CWnd@@UAEJUtagVARIANT@@PA_W@Z:PROC ; CWnd::put_accValue
EXTRN	?SetProxy@CWnd@@UAEJPAUIAccessibleProxy@@@Z:PROC ; CWnd::SetProxy
EXTRN	?CreateAccessibleProxy@CWnd@@UAEJIJPAJ@Z:PROC	; CWnd::CreateAccessibleProxy
EXTRN	?OnCommand@CWnd@@MAEHIJ@Z:PROC			; CWnd::OnCommand
EXTRN	?OnNotify@CWnd@@MAEHIJPAJ@Z:PROC		; CWnd::OnNotify
EXTRN	?GetSuperWndProcAddr@CWnd@@MAEPAP6GJPAUHWND__@@IIJ@ZXZ:PROC ; CWnd::GetSuperWndProcAddr
EXTRN	?OnAmbientProperty@CWnd@@UAEHPAVCOleControlSite@@JPAUtagVARIANT@@@Z:PROC ; CWnd::OnAmbientProperty
EXTRN	?WindowProc@CWnd@@MAEJIIJ@Z:PROC		; CWnd::WindowProc
EXTRN	?OnWndMsg@CWnd@@MAEHIIJPAJ@Z:PROC		; CWnd::OnWndMsg
EXTRN	?DefWindowProcA@CWnd@@MAEJIIJ@Z:PROC		; CWnd::DefWindowProcA
EXTRN	?PostNcDestroy@CWnd@@MAEXXZ:PROC		; CWnd::PostNcDestroy
EXTRN	?OnChildNotify@CWnd@@MAEHIIJPAJ@Z:PROC		; CWnd::OnChildNotify
EXTRN	?OnTouchInputs@CWnd@@MAEHIPAUtagTOUCHINPUT@@@Z:PROC ; CWnd::OnTouchInputs
EXTRN	?OnTouchInput@CWnd@@MAEHVCPoint@@HHPAUtagTOUCHINPUT@@@Z:PROC ; CWnd::OnTouchInput
EXTRN	?GetGestureStatus@CWnd@@MAEKVCPoint@@@Z:PROC	; CWnd::GetGestureStatus
EXTRN	?OnGestureZoom@CWnd@@MAEHVCPoint@@J@Z:PROC	; CWnd::OnGestureZoom
EXTRN	?OnGesturePan@CWnd@@MAEHVCPoint@@0@Z:PROC	; CWnd::OnGesturePan
EXTRN	?OnGestureRotate@CWnd@@MAEHVCPoint@@N@Z:PROC	; CWnd::OnGestureRotate
EXTRN	?OnGestureTwoFingerTap@CWnd@@MAEHVCPoint@@@Z:PROC ; CWnd::OnGestureTwoFingerTap
EXTRN	?OnGesturePressAndTap@CWnd@@MAEHVCPoint@@J@Z:PROC ; CWnd::OnGesturePressAndTap
EXTRN	?ResizeDynamicLayout@CWnd@@MAEXXZ:PROC		; CWnd::ResizeDynamicLayout
EXTRN	?IsFrameWnd@CWnd@@UBEHXZ:PROC			; CWnd::IsFrameWnd
EXTRN	?OnFinalRelease@CWnd@@UAEXXZ:PROC		; CWnd::OnFinalRelease
EXTRN	?CreateControlContainer@CWnd@@MAEHPAPAVCOleControlContainer@@@Z:PROC ; CWnd::CreateControlContainer
EXTRN	?CreateControlSite@CWnd@@MAEHPAVCOleControlContainer@@PAPAVCOleControlSite@@IABU_GUID@@@Z:PROC ; CWnd::CreateControlSite
EXTRN	?GetRuntimeClass@CDialog@@UBEPAUCRuntimeClass@@XZ:PROC ; CDialog::GetRuntimeClass
EXTRN	?Create@CDialog@@UAEHPBDPAVCWnd@@@Z:PROC	; CDialog::Create
EXTRN	?CreateIndirect@CDialog@@UAEHPBUDLGTEMPLATE@@PAVCWnd@@PAX@Z:PROC ; CDialog::CreateIndirect
EXTRN	?CreateIndirect@CDialog@@UAEHPAXPAVCWnd@@@Z:PROC ; CDialog::CreateIndirect
EXTRN	?DoModal@CDialog@@UAEHXZ:PROC			; CDialog::DoModal
EXTRN	?OnInitDialog@CDialog@@UAEHXZ:PROC		; CDialog::OnInitDialog
EXTRN	?OnSetFont@CDialog@@UAEXPAVCFont@@@Z:PROC	; CDialog::OnSetFont
EXTRN	?OnOK@CDialog@@MAEXXZ:PROC			; CDialog::OnOK
EXTRN	?OnCancel@CDialog@@MAEXXZ:PROC			; CDialog::OnCancel
EXTRN	??1CDialog@@UAE@XZ:PROC				; CDialog::~CDialog
EXTRN	?PreTranslateMessage@CDialog@@UAEHPAUtagMSG@@@Z:PROC ; CDialog::PreTranslateMessage
EXTRN	?OnCmdMsg@CDialog@@UAEHIHPAXPAUAFX_CMDHANDLERINFO@@@Z:PROC ; CDialog::OnCmdMsg
EXTRN	?CheckAutoCenter@CDialog@@UAEHXZ:PROC		; CDialog::CheckAutoCenter
EXTRN	?SetOccDialogInfo@CDialog@@MAEHPAU_AFX_OCC_DIALOG_INFO@@@Z:PROC ; CDialog::SetOccDialogInfo
EXTRN	?GetOccDialogInfo@CDialog@@MAEPAU_AFX_OCC_DIALOG_INFO@@XZ:PROC ; CDialog::GetOccDialogInfo
EXTRN	?PreInitDialog@CDialog@@MAEXXZ:PROC		; CDialog::PreInitDialog
EXTRN	?GetThisMessageMap@CDialog@@KGPBUAFX_MSGMAP@@XZ:PROC ; CDialog::GetThisMessageMap
EXTRN	?AfxMessageBox@@YGHPBDII@Z:PROC			; AfxMessageBox
EXTRN	?GetRuntimeClass@CCommonDialog@@UBEPAUCRuntimeClass@@XZ:PROC ; CCommonDialog::GetRuntimeClass
EXTRN	?OnOK@CCommonDialog@@MAEXXZ:PROC		; CCommonDialog::OnOK
EXTRN	?OnCancel@CCommonDialog@@MAEXXZ:PROC		; CCommonDialog::OnCancel
EXTRN	?GetMessageMap@CCommonDialog@@MBEPBUAFX_MSGMAP@@XZ:PROC ; CCommonDialog::GetMessageMap
EXTRN	??_ECCommonDialog@@UAEPAXI@Z:PROC		; CCommonDialog::`vector deleting destructor'
EXTRN	??0CColorDialog@@QAE@KKPAVCWnd@@@Z:PROC		; CColorDialog::CColorDialog
EXTRN	?DoModal@CColorDialog@@UAEHXZ:PROC		; CColorDialog::DoModal
EXTRN	??0CNumEdit@@QAE@XZ:PROC			; CNumEdit::CNumEdit
EXTRN	??1CNumEdit@@UAE@XZ:PROC			; CNumEdit::~CNumEdit
EXTRN	??0CNumSpinCtrl@@QAE@XZ:PROC			; CNumSpinCtrl::CNumSpinCtrl
EXTRN	??1CNumSpinCtrl@@UAE@XZ:PROC			; CNumSpinCtrl::~CNumSpinCtrl
EXTRN	??0CBaseDialog@@QAE@IPAVCWnd@@PAUIChartOCX135914@@0@Z:PROC ; CBaseDialog::CBaseDialog
EXTRN	??1CBaseDialog@@UAE@XZ:PROC			; CBaseDialog::~CBaseDialog
EXTRN	?SetTitle@CBaseDialog@@UAEXHABV?$CStringT@DV?$StrTraitMFC_DLL@DV?$ChTraitsCRT@D@ATL@@@@@ATL@@@Z:PROC ; CBaseDialog::SetTitle
EXTRN	?DoCalculate@CBaseDialog@@UAE_NXZ:PROC		; CBaseDialog::DoCalculate
EXTRN	?GetPacketType@CBaseDialog@@QAE?AV?$CStringT@DV?$StrTraitMFC_DLL@DV?$ChTraitsCRT@D@ATL@@@@@ATL@@XZ:PROC ; CBaseDialog::GetPacketType
EXTRN	?DoesEqualDoubleList@CBaseDialog@@IBEHPAUIDoubleList135914@@0@Z:PROC ; CBaseDialog::DoesEqualDoubleList
EXTRN	??0CColorButton@@QAE@XZ:PROC			; CColorButton::CColorButton
EXTRN	??1CColorButton@@UAE@XZ:PROC			; CColorButton::~CColorButton
EXTRN	?GetColor@CColorButton@@QAEKXZ:PROC		; CColorButton::GetColor
EXTRN	?SetColor@CColorButton@@QAEXABK@Z:PROC		; CColorButton::SetColor
EXTRN	??_ECSetting_Special_Type_C@@UAEPAXI@Z:PROC	; CSetting_Special_Type_C::`vector deleting destructor'
EXTRN	?GetStringThousandFormat@CDataConversion@@SA?AV?$CStringT@DV?$StrTraitMFC_DLL@DV?$ChTraitsCRT@D@ATL@@@@@ATL@@ABNABV23@@Z:PROC ; CDataConversion::GetStringThousandFormat
EXTRN	?IsBaseFormat@CDataConversion@@SA_NABV?$CStringT@DV?$StrTraitMFC_DLL@DV?$ChTraitsCRT@D@ATL@@@@@ATL@@@Z:PROC ; CDataConversion::IsBaseFormat
EXTRN	?GetDataToDec@CDataConversion@@SAHV?$CStringT@DV?$StrTraitMFC_DLL@DV?$ChTraitsCRT@D@ATL@@@@@ATL@@0AAV23@@Z:PROC ; CDataConversion::GetDataToDec
EXTRN	?IsValid8_32@CDataConversion@@SAHV?$CStringT@DV?$StrTraitMFC_DLL@DV?$ChTraitsCRT@D@ATL@@@@@ATL@@@Z:PROC ; CDataConversion::IsValid8_32
EXTRN	@__security_check_cookie@4:PROC
EXTRN	___CxxFrameHandler3:PROC
EXTRN	??_7type_info@@6B@:QWORD			; type_info::`vftable'
EXTRN	?g_iMetaTable@@3VIMetaTable@@A:BYTE		; g_iMetaTable
EXTRN	___security_cookie:DWORD
EXTRN	__fltused:DWORD
;	COMDAT ??_R2CBaseDialog@@8
rdata$r	SEGMENT
??_R2CBaseDialog@@8 DD FLAT:??_R1A@?0A@EA@CBaseDialog@@8 ; CBaseDialog::`RTTI Base Class Array'
	DD	FLAT:??_R1A@?0A@EA@CDialog@@8
	DD	FLAT:??_R1A@?0A@EA@CWnd@@8
	DD	FLAT:??_R1A@?0A@EA@CCmdTarget@@8
	DD	FLAT:??_R1A@?0A@EA@CObject@@8
rdata$r	ENDS
;	COMDAT ??_R3CBaseDialog@@8
rdata$r	SEGMENT
??_R3CBaseDialog@@8 DD 00H				; CBaseDialog::`RTTI Class Hierarchy Descriptor'
	DD	00H
	DD	05H
	DD	FLAT:??_R2CBaseDialog@@8
rdata$r	ENDS
;	COMDAT ??_R0?AVCBaseDialog@@@8
data$rs	SEGMENT
??_R0?AVCBaseDialog@@@8 DD FLAT:??_7type_info@@6B@	; CBaseDialog `RTTI Type Descriptor'
	DD	00H
	DB	'.?AVCBaseDialog@@', 00H
data$rs	ENDS
;	COMDAT ??_R1A@?0A@EA@CBaseDialog@@8
rdata$r	SEGMENT
??_R1A@?0A@EA@CBaseDialog@@8 DD FLAT:??_R0?AVCBaseDialog@@@8 ; CBaseDialog::`RTTI Base Class Descriptor at (0,-1,0,64)'
	DD	04H
	DD	00H
	DD	0ffffffffH
	DD	00H
	DD	040H
	DD	FLAT:??_R3CBaseDialog@@8
rdata$r	ENDS
;	COMDAT ??_R1A@?0A@EA@CSetting_Special_Type_C@@8
rdata$r	SEGMENT
??_R1A@?0A@EA@CSetting_Special_Type_C@@8 DD FLAT:??_R0?AVCSetting_Special_Type_C@@@8 ; CSetting_Special_Type_C::`RTTI Base Class Descriptor at (0,-1,0,64)'
	DD	05H
	DD	00H
	DD	0ffffffffH
	DD	00H
	DD	040H
	DD	FLAT:??_R3CSetting_Special_Type_C@@8
rdata$r	ENDS
;	COMDAT ??_R2CSetting_Special_Type_C@@8
rdata$r	SEGMENT
??_R2CSetting_Special_Type_C@@8 DD FLAT:??_R1A@?0A@EA@CSetting_Special_Type_C@@8 ; CSetting_Special_Type_C::`RTTI Base Class Array'
	DD	FLAT:??_R1A@?0A@EA@CBaseDialog@@8
	DD	FLAT:??_R1A@?0A@EA@CDialog@@8
	DD	FLAT:??_R1A@?0A@EA@CWnd@@8
	DD	FLAT:??_R1A@?0A@EA@CCmdTarget@@8
	DD	FLAT:??_R1A@?0A@EA@CObject@@8
rdata$r	ENDS
;	COMDAT ??_R3CSetting_Special_Type_C@@8
rdata$r	SEGMENT
??_R3CSetting_Special_Type_C@@8 DD 00H			; CSetting_Special_Type_C::`RTTI Class Hierarchy Descriptor'
	DD	00H
	DD	06H
	DD	FLAT:??_R2CSetting_Special_Type_C@@8
rdata$r	ENDS
;	COMDAT ??_R0?AVCSetting_Special_Type_C@@@8
data$rs	SEGMENT
??_R0?AVCSetting_Special_Type_C@@@8 DD FLAT:??_7type_info@@6B@ ; CSetting_Special_Type_C `RTTI Type Descriptor'
	DD	00H
	DB	'.?AVCSetting_Special_Type_C@@', 00H
data$rs	ENDS
;	COMDAT ??_R4CSetting_Special_Type_C@@6B@
rdata$r	SEGMENT
??_R4CSetting_Special_Type_C@@6B@ DD 00H		; CSetting_Special_Type_C::`RTTI Complete Object Locator'
	DD	00H
	DD	00H
	DD	FLAT:??_R0?AVCSetting_Special_Type_C@@@8
	DD	FLAT:??_R3CSetting_Special_Type_C@@8
rdata$r	ENDS
;	COMDAT ??_C@_0CI@DCNEOPPA@?$MA?T?$LH?B?$LF?H?5?$LJ?$KO?$MA?Z?$LP?$KN?$MA?L?5?$LO?K?$LI?B?$MA?$LK?5?A?x?$LJ?$PN?$MA?L?5?$LO@
CONST	SEGMENT
??_C@_0CI@DCNEOPPA@?$MA?T?$LH?B?$LF?H?5?$LJ?$KO?$MA?Z?$LP?$KN?$MA?L?5?$LO?K?$LI?B?$MA?$LK?5?A?x?$LJ?$PN?$MA?L?5?$LO@ DB 0c0H
	DB	0d4H, 0b7H, 0c2H, 0b5H, 0c8H, ' ', 0b9H, 0aeH, 0c0H, 0daH, 0bfH
	DB	0adH, 0c0H, 0ccH, ' ', 0beH, 0cbH, 0b8H, 0c2H, 0c0H, 0baH, ' ', 0c1H
	DB	0f8H, 0b9H, 0fdH, 0c0H, 0ccH, ' ', 0beH, 0c6H, 0b4H, 0d5H, 0b4H
	DB	0cfH, 0b4H, 0d9H, '.', 00H			; `string'
CONST	ENDS
;	COMDAT ??_C@_04HGGMHPIM@?$CF?4?$CKf@
CONST	SEGMENT
??_C@_04HGGMHPIM@?$CF?4?$CKf@ DB '%.*f', 00H		; `string'
CONST	ENDS
;	COMDAT ?messageMap@?1??GetThisMessageMap@CSetting_Special_Type_C@@KGPBUAFX_MSGMAP@@XZ@4U3@B
CONST	SEGMENT
?messageMap@?1??GetThisMessageMap@CSetting_Special_Type_C@@KGPBUAFX_MSGMAP@@XZ@4U3@B DD FLAT:?GetThisMessageMap@CDialog@@KGPBUAFX_MSGMAP@@XZ ; `CSetting_Special_Type_C::GetThisMessageMap'::`2'::messageMap
	DD	FLAT:?_messageEntries@?1??GetThisMessageMap@CSetting_Special_Type_C@@KGPBUAFX_MSGMAP@@XZ@4QBUAFX_MSGMAP_ENTRY@@B
CONST	ENDS
;	COMDAT ?_messageEntries@?1??GetThisMessageMap@CSetting_Special_Type_C@@KGPBUAFX_MSGMAP@@XZ@4QBUAFX_MSGMAP_ENTRY@@B
CONST	SEGMENT
?_messageEntries@?1??GetThisMessageMap@CSetting_Special_Type_C@@KGPBUAFX_MSGMAP@@XZ@4QBUAFX_MSGMAP_ENTRY@@B DD 0111H ; `CSetting_Special_Type_C::GetThisMessageMap'::`2'::_messageEntries
	DD	00H
	DD	01794H
	DD	01794H
	DD	03aH
	DD	FLAT:?OnBtnUp@CSetting_Special_Type_C@@IAEXXZ
	DD	0111H
	DD	00H
	DD	01795H
	DD	01795H
	DD	03aH
	DD	FLAT:?OnBtnDown@CSetting_Special_Type_C@@IAEXXZ
	DD	00H
	DD	00H
	DD	00H
	DD	00H
	DD	00H
	DD	00H
CONST	ENDS
;	COMDAT ??_7CSetting_Special_Type_C@@6B@
CONST	SEGMENT
??_7CSetting_Special_Type_C@@6B@ DD FLAT:??_R4CSetting_Special_Type_C@@6B@ ; CSetting_Special_Type_C::`vftable'
	DD	FLAT:?GetRuntimeClass@CDialog@@UBEPAUCRuntimeClass@@XZ
	DD	FLAT:??_ECSetting_Special_Type_C@@UAEPAXI@Z
	DD	FLAT:?Serialize@CObject@@UAEXAAVCArchive@@@Z
	DD	FLAT:?AssertValid@CObject@@UBEXXZ
	DD	FLAT:?Dump@CObject@@UBEXAAVCDumpContext@@@Z
	DD	FLAT:?OnCmdMsg@CDialog@@UAEHIHPAXPAUAFX_CMDHANDLERINFO@@@Z
	DD	FLAT:?OnFinalRelease@CWnd@@UAEXXZ
	DD	FLAT:?IsInvokeAllowed@CCmdTarget@@UAEHJ@Z
	DD	FLAT:?GetDispatchIID@CCmdTarget@@UAEHPAU_GUID@@@Z
	DD	FLAT:?GetTypeInfoCount@CCmdTarget@@UAEIXZ
	DD	FLAT:?GetTypeLibCache@CCmdTarget@@UAEPAVCTypeLibCache@@XZ
	DD	FLAT:?GetTypeLib@CCmdTarget@@UAEJKPAPAUITypeLib@@@Z
	DD	FLAT:?GetMessageMap@CSetting_Special_Type_C@@MBEPBUAFX_MSGMAP@@XZ
	DD	FLAT:?GetCommandMap@CCmdTarget@@MBEPBUAFX_OLECMDMAP@@XZ
	DD	FLAT:?GetDispatchMap@CCmdTarget@@MBEPBUAFX_DISPMAP@@XZ
	DD	FLAT:?GetConnectionMap@CCmdTarget@@MBEPBUAFX_CONNECTIONMAP@@XZ
	DD	FLAT:?GetInterfaceMap@CWnd@@MBEPBUAFX_INTERFACEMAP@@XZ
	DD	FLAT:?GetEventSinkMap@CCmdTarget@@MBEPBUAFX_EVENTSINKMAP@@XZ
	DD	FLAT:?OnCreateAggregates@CCmdTarget@@UAEHXZ
	DD	FLAT:?GetInterfaceHook@CCmdTarget@@UAEPAUIUnknown@@PBX@Z
	DD	FLAT:?GetExtraConnectionPoints@CCmdTarget@@MAEHPAVCPtrArray@@@Z
	DD	FLAT:?GetConnectionHook@CCmdTarget@@MAEPAUIConnectionPoint@@ABU_GUID@@@Z
	DD	FLAT:?PreSubclassWindow@CWnd@@UAEXXZ
	DD	FLAT:?Create@CWnd@@UAEHPBD0KABUtagRECT@@PAV1@IPAUCCreateContext@@@Z
	DD	FLAT:?CreateEx@CWnd@@UAEHKPBD0KABUtagRECT@@PAV1@IPAX@Z
	DD	FLAT:?CreateEx@CWnd@@UAEHKPBD0KHHHHPAUHWND__@@PAUHMENU__@@PAX@Z
	DD	FLAT:?DestroyWindow@CWnd@@UAEHXZ
	DD	FLAT:?PreCreateWindow@CWnd@@UAEHAAUtagCREATESTRUCTA@@@Z
	DD	FLAT:?CalcWindowRect@CWnd@@UAEXPAUtagRECT@@I@Z
	DD	FLAT:?GetMenu@CWnd@@UBEPAVCMenu@@XZ
	DD	FLAT:?SetMenu@CWnd@@UAEHPAVCMenu@@@Z
	DD	FLAT:?OnToolHitTest@CWnd@@UBEHVCPoint@@PAUtagTOOLINFOA@@@Z
	DD	FLAT:?GetScrollBarCtrl@CWnd@@UBEPAVCScrollBar@@H@Z
	DD	FLAT:?WinHelpA@CWnd@@UAEXKI@Z
	DD	FLAT:?HtmlHelpA@CWnd@@UAEXKI@Z
	DD	FLAT:?WinHelpInternal@CWnd@@UAEXKI@Z
	DD	FLAT:?ContinueModal@CWnd@@UAEHXZ
	DD	FLAT:?EndModalLoop@CWnd@@UAEXH@Z
	DD	FLAT:?OnDrawIconicThumbnailOrLivePreview@CWnd@@UAEXAAVCDC@@VCRect@@VCSize@@HAAH@Z
	DD	FLAT:?EnsureStdObj@CWnd@@UAEJXZ
	DD	FLAT:?get_accParent@CWnd@@UAEJPAPAUIDispatch@@@Z
	DD	FLAT:?get_accChildCount@CWnd@@UAEJPAJ@Z
	DD	FLAT:?get_accChild@CWnd@@UAEJUtagVARIANT@@PAPAUIDispatch@@@Z
	DD	FLAT:?get_accName@CWnd@@UAEJUtagVARIANT@@PAPA_W@Z
	DD	FLAT:?get_accValue@CWnd@@UAEJUtagVARIANT@@PAPA_W@Z
	DD	FLAT:?get_accDescription@CWnd@@UAEJUtagVARIANT@@PAPA_W@Z
	DD	FLAT:?get_accRole@CWnd@@UAEJUtagVARIANT@@PAU2@@Z
	DD	FLAT:?get_accState@CWnd@@UAEJUtagVARIANT@@PAU2@@Z
	DD	FLAT:?get_accHelp@CWnd@@UAEJUtagVARIANT@@PAPA_W@Z
	DD	FLAT:?get_accHelpTopic@CWnd@@UAEJPAPA_WUtagVARIANT@@PAJ@Z
	DD	FLAT:?get_accKeyboardShortcut@CWnd@@UAEJUtagVARIANT@@PAPA_W@Z
	DD	FLAT:?get_accFocus@CWnd@@UAEJPAUtagVARIANT@@@Z
	DD	FLAT:?get_accSelection@CWnd@@UAEJPAUtagVARIANT@@@Z
	DD	FLAT:?get_accDefaultAction@CWnd@@UAEJUtagVARIANT@@PAPA_W@Z
	DD	FLAT:?accSelect@CWnd@@UAEJJUtagVARIANT@@@Z
	DD	FLAT:?accLocation@CWnd@@UAEJPAJ000UtagVARIANT@@@Z
	DD	FLAT:?accNavigate@CWnd@@UAEJJUtagVARIANT@@PAU2@@Z
	DD	FLAT:?accHitTest@CWnd@@UAEJJJPAUtagVARIANT@@@Z
	DD	FLAT:?accDoDefaultAction@CWnd@@UAEJUtagVARIANT@@@Z
	DD	FLAT:?put_accName@CWnd@@UAEJUtagVARIANT@@PA_W@Z
	DD	FLAT:?put_accValue@CWnd@@UAEJUtagVARIANT@@PA_W@Z
	DD	FLAT:?SetProxy@CWnd@@UAEJPAUIAccessibleProxy@@@Z
	DD	FLAT:?CreateAccessibleProxy@CWnd@@UAEJIJPAJ@Z
	DD	FLAT:?OnCommand@CWnd@@MAEHIJ@Z
	DD	FLAT:?OnNotify@CWnd@@MAEHIJPAJ@Z
	DD	FLAT:?GetSuperWndProcAddr@CWnd@@MAEPAP6GJPAUHWND__@@IIJ@ZXZ
	DD	FLAT:?DoDataExchange@CSetting_Special_Type_C@@MAEXPAVCDataExchange@@@Z
	DD	FLAT:?BeginModalState@CWnd@@UAEXXZ
	DD	FLAT:?EndModalState@CWnd@@UAEXXZ
	DD	FLAT:?PreTranslateMessage@CSetting_Special_Type_C@@UAEHPAUtagMSG@@@Z
	DD	FLAT:?OnAmbientProperty@CWnd@@UAEHPAVCOleControlSite@@JPAUtagVARIANT@@@Z
	DD	FLAT:?WindowProc@CWnd@@MAEJIIJ@Z
	DD	FLAT:?OnWndMsg@CWnd@@MAEHIIJPAJ@Z
	DD	FLAT:?DefWindowProcA@CWnd@@MAEJIIJ@Z
	DD	FLAT:?PostNcDestroy@CWnd@@MAEXXZ
	DD	FLAT:?OnChildNotify@CWnd@@MAEHIIJPAJ@Z
	DD	FLAT:?OnTouchInputs@CWnd@@MAEHIPAUtagTOUCHINPUT@@@Z
	DD	FLAT:?OnTouchInput@CWnd@@MAEHVCPoint@@HHPAUtagTOUCHINPUT@@@Z
	DD	FLAT:?GetGestureStatus@CWnd@@MAEKVCPoint@@@Z
	DD	FLAT:?OnGestureZoom@CWnd@@MAEHVCPoint@@J@Z
	DD	FLAT:?OnGesturePan@CWnd@@MAEHVCPoint@@0@Z
	DD	FLAT:?OnGestureRotate@CWnd@@MAEHVCPoint@@N@Z
	DD	FLAT:?OnGestureTwoFingerTap@CWnd@@MAEHVCPoint@@@Z
	DD	FLAT:?OnGesturePressAndTap@CWnd@@MAEHVCPoint@@J@Z
	DD	FLAT:?ResizeDynamicLayout@CWnd@@MAEXXZ
	DD	FLAT:?CheckAutoCenter@CDialog@@UAEHXZ
	DD	FLAT:?IsFrameWnd@CWnd@@UBEHXZ
	DD	FLAT:?CreateControlContainer@CWnd@@MAEHPAPAVCOleControlContainer@@@Z
	DD	FLAT:?CreateControlSite@CWnd@@MAEHPAVCOleControlContainer@@PAPAVCOleControlSite@@IABU_GUID@@@Z
	DD	FLAT:?SetOccDialogInfo@CDialog@@MAEHPAU_AFX_OCC_DIALOG_INFO@@@Z
	DD	FLAT:?GetOccDialogInfo@CDialog@@MAEPAU_AFX_OCC_DIALOG_INFO@@XZ
	DD	FLAT:?Create@CDialog@@UAEHIPAVCWnd@@@Z
	DD	FLAT:?Create@CDialog@@UAEHPBDPAVCWnd@@@Z
	DD	FLAT:?CreateIndirect@CDialog@@UAEHPAXPAVCWnd@@@Z
	DD	FLAT:?CreateIndirect@CDialog@@UAEHPBUDLGTEMPLATE@@PAVCWnd@@PAX@Z
	DD	FLAT:?DoModal@CDialog@@UAEHXZ
	DD	FLAT:?OnInitDialog@CSetting_Special_Type_C@@MAEHXZ
	DD	FLAT:?OnSetFont@CDialog@@UAEXPAVCFont@@@Z
	DD	FLAT:?OnOK@CDialog@@MAEXXZ
	DD	FLAT:?OnCancel@CDialog@@MAEXXZ
	DD	FLAT:?PreInitDialog@CDialog@@MAEXXZ
	DD	FLAT:?Initial@CSetting_Special_Type_C@@UAEXPAUIGraphInfo135914@@@Z
	DD	FLAT:?OnApply@CSetting_Special_Type_C@@UAEHPAUIGraphInfo135914@@@Z
	DD	FLAT:?SetTitle@CBaseDialog@@UAEXHABV?$CStringT@DV?$StrTraitMFC_DLL@DV?$ChTraitsCRT@D@ATL@@@@@ATL@@@Z
	DD	FLAT:?DoCalculate@CBaseDialog@@UAE_NXZ
CONST	ENDS
;	COMDAT ??_R2CDialog@@8
rdata$r	SEGMENT
??_R2CDialog@@8 DD FLAT:??_R1A@?0A@EA@CDialog@@8	; CDialog::`RTTI Base Class Array'
	DD	FLAT:??_R1A@?0A@EA@CWnd@@8
	DD	FLAT:??_R1A@?0A@EA@CCmdTarget@@8
	DD	FLAT:??_R1A@?0A@EA@CObject@@8
rdata$r	ENDS
;	COMDAT ??_R3CDialog@@8
rdata$r	SEGMENT
??_R3CDialog@@8 DD 00H					; CDialog::`RTTI Class Hierarchy Descriptor'
	DD	00H
	DD	04H
	DD	FLAT:??_R2CDialog@@8
rdata$r	ENDS
;	COMDAT ??_R0?AVCDialog@@@8
data$rs	SEGMENT
??_R0?AVCDialog@@@8 DD FLAT:??_7type_info@@6B@		; CDialog `RTTI Type Descriptor'
	DD	00H
	DB	'.?AVCDialog@@', 00H
data$rs	ENDS
;	COMDAT ??_R1A@?0A@EA@CDialog@@8
rdata$r	SEGMENT
??_R1A@?0A@EA@CDialog@@8 DD FLAT:??_R0?AVCDialog@@@8	; CDialog::`RTTI Base Class Descriptor at (0,-1,0,64)'
	DD	03H
	DD	00H
	DD	0ffffffffH
	DD	00H
	DD	040H
	DD	FLAT:??_R3CDialog@@8
rdata$r	ENDS
;	COMDAT ??_R1A@?0A@EA@CCommonDialog@@8
rdata$r	SEGMENT
??_R1A@?0A@EA@CCommonDialog@@8 DD FLAT:??_R0?AVCCommonDialog@@@8 ; CCommonDialog::`RTTI Base Class Descriptor at (0,-1,0,64)'
	DD	04H
	DD	00H
	DD	0ffffffffH
	DD	00H
	DD	040H
	DD	FLAT:??_R3CCommonDialog@@8
rdata$r	ENDS
;	COMDAT ??_R2CCommonDialog@@8
rdata$r	SEGMENT
??_R2CCommonDialog@@8 DD FLAT:??_R1A@?0A@EA@CCommonDialog@@8 ; CCommonDialog::`RTTI Base Class Array'
	DD	FLAT:??_R1A@?0A@EA@CDialog@@8
	DD	FLAT:??_R1A@?0A@EA@CWnd@@8
	DD	FLAT:??_R1A@?0A@EA@CCmdTarget@@8
	DD	FLAT:??_R1A@?0A@EA@CObject@@8
rdata$r	ENDS
;	COMDAT ??_R3CCommonDialog@@8
rdata$r	SEGMENT
??_R3CCommonDialog@@8 DD 00H				; CCommonDialog::`RTTI Class Hierarchy Descriptor'
	DD	00H
	DD	05H
	DD	FLAT:??_R2CCommonDialog@@8
rdata$r	ENDS
;	COMDAT ??_R0?AVCCommonDialog@@@8
data$rs	SEGMENT
??_R0?AVCCommonDialog@@@8 DD FLAT:??_7type_info@@6B@	; CCommonDialog `RTTI Type Descriptor'
	DD	00H
	DB	'.?AVCCommonDialog@@', 00H
data$rs	ENDS
;	COMDAT ??_R4CCommonDialog@@6B@
rdata$r	SEGMENT
??_R4CCommonDialog@@6B@ DD 00H				; CCommonDialog::`RTTI Complete Object Locator'
	DD	00H
	DD	00H
	DD	FLAT:??_R0?AVCCommonDialog@@@8
	DD	FLAT:??_R3CCommonDialog@@8
rdata$r	ENDS
;	COMDAT ??_R2CCmdTarget@@8
rdata$r	SEGMENT
??_R2CCmdTarget@@8 DD FLAT:??_R1A@?0A@EA@CCmdTarget@@8	; CCmdTarget::`RTTI Base Class Array'
	DD	FLAT:??_R1A@?0A@EA@CObject@@8
rdata$r	ENDS
;	COMDAT ??_R3CCmdTarget@@8
rdata$r	SEGMENT
??_R3CCmdTarget@@8 DD 00H				; CCmdTarget::`RTTI Class Hierarchy Descriptor'
	DD	00H
	DD	02H
	DD	FLAT:??_R2CCmdTarget@@8
rdata$r	ENDS
;	COMDAT ??_R0?AVCCmdTarget@@@8
data$rs	SEGMENT
??_R0?AVCCmdTarget@@@8 DD FLAT:??_7type_info@@6B@	; CCmdTarget `RTTI Type Descriptor'
	DD	00H
	DB	'.?AVCCmdTarget@@', 00H
data$rs	ENDS
;	COMDAT ??_R1A@?0A@EA@CCmdTarget@@8
rdata$r	SEGMENT
??_R1A@?0A@EA@CCmdTarget@@8 DD FLAT:??_R0?AVCCmdTarget@@@8 ; CCmdTarget::`RTTI Base Class Descriptor at (0,-1,0,64)'
	DD	01H
	DD	00H
	DD	0ffffffffH
	DD	00H
	DD	040H
	DD	FLAT:??_R3CCmdTarget@@8
rdata$r	ENDS
;	COMDAT ??_R2CWnd@@8
rdata$r	SEGMENT
??_R2CWnd@@8 DD	FLAT:??_R1A@?0A@EA@CWnd@@8		; CWnd::`RTTI Base Class Array'
	DD	FLAT:??_R1A@?0A@EA@CCmdTarget@@8
	DD	FLAT:??_R1A@?0A@EA@CObject@@8
rdata$r	ENDS
;	COMDAT ??_R3CWnd@@8
rdata$r	SEGMENT
??_R3CWnd@@8 DD	00H					; CWnd::`RTTI Class Hierarchy Descriptor'
	DD	00H
	DD	03H
	DD	FLAT:??_R2CWnd@@8
rdata$r	ENDS
;	COMDAT ??_R0?AVCWnd@@@8
data$rs	SEGMENT
??_R0?AVCWnd@@@8 DD FLAT:??_7type_info@@6B@		; CWnd `RTTI Type Descriptor'
	DD	00H
	DB	'.?AVCWnd@@', 00H
data$rs	ENDS
;	COMDAT ??_R1A@?0A@EA@CWnd@@8
rdata$r	SEGMENT
??_R1A@?0A@EA@CWnd@@8 DD FLAT:??_R0?AVCWnd@@@8		; CWnd::`RTTI Base Class Descriptor at (0,-1,0,64)'
	DD	02H
	DD	00H
	DD	0ffffffffH
	DD	00H
	DD	040H
	DD	FLAT:??_R3CWnd@@8
rdata$r	ENDS
;	COMDAT ??_R1A@?0A@EA@CObject@@8
rdata$r	SEGMENT
??_R1A@?0A@EA@CObject@@8 DD FLAT:??_R0?AVCObject@@@8	; CObject::`RTTI Base Class Descriptor at (0,-1,0,64)'
	DD	00H
	DD	00H
	DD	0ffffffffH
	DD	00H
	DD	040H
	DD	FLAT:??_R3CObject@@8
rdata$r	ENDS
;	COMDAT ??_R2CObject@@8
rdata$r	SEGMENT
??_R2CObject@@8 DD FLAT:??_R1A@?0A@EA@CObject@@8	; CObject::`RTTI Base Class Array'
rdata$r	ENDS
;	COMDAT ??_R3CObject@@8
rdata$r	SEGMENT
??_R3CObject@@8 DD 00H					; CObject::`RTTI Class Hierarchy Descriptor'
	DD	00H
	DD	01H
	DD	FLAT:??_R2CObject@@8
rdata$r	ENDS
;	COMDAT ??_R0?AVCObject@@@8
data$rs	SEGMENT
??_R0?AVCObject@@@8 DD FLAT:??_7type_info@@6B@		; CObject `RTTI Type Descriptor'
	DD	00H
	DB	'.?AVCObject@@', 00H
data$rs	ENDS
;	COMDAT ??_7CCommonDialog@@6B@
CONST	SEGMENT
??_7CCommonDialog@@6B@ DD FLAT:??_R4CCommonDialog@@6B@	; CCommonDialog::`vftable'
	DD	FLAT:?GetRuntimeClass@CCommonDialog@@UBEPAUCRuntimeClass@@XZ
	DD	FLAT:??_ECCommonDialog@@UAEPAXI@Z
	DD	FLAT:?Serialize@CObject@@UAEXAAVCArchive@@@Z
	DD	FLAT:?AssertValid@CObject@@UBEXXZ
	DD	FLAT:?Dump@CObject@@UBEXAAVCDumpContext@@@Z
	DD	FLAT:?OnCmdMsg@CDialog@@UAEHIHPAXPAUAFX_CMDHANDLERINFO@@@Z
	DD	FLAT:?OnFinalRelease@CWnd@@UAEXXZ
	DD	FLAT:?IsInvokeAllowed@CCmdTarget@@UAEHJ@Z
	DD	FLAT:?GetDispatchIID@CCmdTarget@@UAEHPAU_GUID@@@Z
	DD	FLAT:?GetTypeInfoCount@CCmdTarget@@UAEIXZ
	DD	FLAT:?GetTypeLibCache@CCmdTarget@@UAEPAVCTypeLibCache@@XZ
	DD	FLAT:?GetTypeLib@CCmdTarget@@UAEJKPAPAUITypeLib@@@Z
	DD	FLAT:?GetMessageMap@CCommonDialog@@MBEPBUAFX_MSGMAP@@XZ
	DD	FLAT:?GetCommandMap@CCmdTarget@@MBEPBUAFX_OLECMDMAP@@XZ
	DD	FLAT:?GetDispatchMap@CCmdTarget@@MBEPBUAFX_DISPMAP@@XZ
	DD	FLAT:?GetConnectionMap@CCmdTarget@@MBEPBUAFX_CONNECTIONMAP@@XZ
	DD	FLAT:?GetInterfaceMap@CWnd@@MBEPBUAFX_INTERFACEMAP@@XZ
	DD	FLAT:?GetEventSinkMap@CCmdTarget@@MBEPBUAFX_EVENTSINKMAP@@XZ
	DD	FLAT:?OnCreateAggregates@CCmdTarget@@UAEHXZ
	DD	FLAT:?GetInterfaceHook@CCmdTarget@@UAEPAUIUnknown@@PBX@Z
	DD	FLAT:?GetExtraConnectionPoints@CCmdTarget@@MAEHPAVCPtrArray@@@Z
	DD	FLAT:?GetConnectionHook@CCmdTarget@@MAEPAUIConnectionPoint@@ABU_GUID@@@Z
	DD	FLAT:?PreSubclassWindow@CWnd@@UAEXXZ
	DD	FLAT:?Create@CWnd@@UAEHPBD0KABUtagRECT@@PAV1@IPAUCCreateContext@@@Z
	DD	FLAT:?CreateEx@CWnd@@UAEHKPBD0KABUtagRECT@@PAV1@IPAX@Z
	DD	FLAT:?CreateEx@CWnd@@UAEHKPBD0KHHHHPAUHWND__@@PAUHMENU__@@PAX@Z
	DD	FLAT:?DestroyWindow@CWnd@@UAEHXZ
	DD	FLAT:?PreCreateWindow@CWnd@@UAEHAAUtagCREATESTRUCTA@@@Z
	DD	FLAT:?CalcWindowRect@CWnd@@UAEXPAUtagRECT@@I@Z
	DD	FLAT:?GetMenu@CWnd@@UBEPAVCMenu@@XZ
	DD	FLAT:?SetMenu@CWnd@@UAEHPAVCMenu@@@Z
	DD	FLAT:?OnToolHitTest@CWnd@@UBEHVCPoint@@PAUtagTOOLINFOA@@@Z
	DD	FLAT:?GetScrollBarCtrl@CWnd@@UBEPAVCScrollBar@@H@Z
	DD	FLAT:?WinHelpA@CWnd@@UAEXKI@Z
	DD	FLAT:?HtmlHelpA@CWnd@@UAEXKI@Z
	DD	FLAT:?WinHelpInternal@CWnd@@UAEXKI@Z
	DD	FLAT:?ContinueModal@CWnd@@UAEHXZ
	DD	FLAT:?EndModalLoop@CWnd@@UAEXH@Z
	DD	FLAT:?OnDrawIconicThumbnailOrLivePreview@CWnd@@UAEXAAVCDC@@VCRect@@VCSize@@HAAH@Z
	DD	FLAT:?EnsureStdObj@CWnd@@UAEJXZ
	DD	FLAT:?get_accParent@CWnd@@UAEJPAPAUIDispatch@@@Z
	DD	FLAT:?get_accChildCount@CWnd@@UAEJPAJ@Z
	DD	FLAT:?get_accChild@CWnd@@UAEJUtagVARIANT@@PAPAUIDispatch@@@Z
	DD	FLAT:?get_accName@CWnd@@UAEJUtagVARIANT@@PAPA_W@Z
	DD	FLAT:?get_accValue@CWnd@@UAEJUtagVARIANT@@PAPA_W@Z
	DD	FLAT:?get_accDescription@CWnd@@UAEJUtagVARIANT@@PAPA_W@Z
	DD	FLAT:?get_accRole@CWnd@@UAEJUtagVARIANT@@PAU2@@Z
	DD	FLAT:?get_accState@CWnd@@UAEJUtagVARIANT@@PAU2@@Z
	DD	FLAT:?get_accHelp@CWnd@@UAEJUtagVARIANT@@PAPA_W@Z
	DD	FLAT:?get_accHelpTopic@CWnd@@UAEJPAPA_WUtagVARIANT@@PAJ@Z
	DD	FLAT:?get_accKeyboardShortcut@CWnd@@UAEJUtagVARIANT@@PAPA_W@Z
	DD	FLAT:?get_accFocus@CWnd@@UAEJPAUtagVARIANT@@@Z
	DD	FLAT:?get_accSelection@CWnd@@UAEJPAUtagVARIANT@@@Z
	DD	FLAT:?get_accDefaultAction@CWnd@@UAEJUtagVARIANT@@PAPA_W@Z
	DD	FLAT:?accSelect@CWnd@@UAEJJUtagVARIANT@@@Z
	DD	FLAT:?accLocation@CWnd@@UAEJPAJ000UtagVARIANT@@@Z
	DD	FLAT:?accNavigate@CWnd@@UAEJJUtagVARIANT@@PAU2@@Z
	DD	FLAT:?accHitTest@CWnd@@UAEJJJPAUtagVARIANT@@@Z
	DD	FLAT:?accDoDefaultAction@CWnd@@UAEJUtagVARIANT@@@Z
	DD	FLAT:?put_accName@CWnd@@UAEJUtagVARIANT@@PA_W@Z
	DD	FLAT:?put_accValue@CWnd@@UAEJUtagVARIANT@@PA_W@Z
	DD	FLAT:?SetProxy@CWnd@@UAEJPAUIAccessibleProxy@@@Z
	DD	FLAT:?CreateAccessibleProxy@CWnd@@UAEJIJPAJ@Z
	DD	FLAT:?OnCommand@CWnd@@MAEHIJ@Z
	DD	FLAT:?OnNotify@CWnd@@MAEHIJPAJ@Z
	DD	FLAT:?GetSuperWndProcAddr@CWnd@@MAEPAP6GJPAUHWND__@@IIJ@ZXZ
	DD	FLAT:?DoDataExchange@CWnd@@MAEXPAVCDataExchange@@@Z
	DD	FLAT:?BeginModalState@CWnd@@UAEXXZ
	DD	FLAT:?EndModalState@CWnd@@UAEXXZ
	DD	FLAT:?PreTranslateMessage@CDialog@@UAEHPAUtagMSG@@@Z
	DD	FLAT:?OnAmbientProperty@CWnd@@UAEHPAVCOleControlSite@@JPAUtagVARIANT@@@Z
	DD	FLAT:?WindowProc@CWnd@@MAEJIIJ@Z
	DD	FLAT:?OnWndMsg@CWnd@@MAEHIIJPAJ@Z
	DD	FLAT:?DefWindowProcA@CWnd@@MAEJIIJ@Z
	DD	FLAT:?PostNcDestroy@CWnd@@MAEXXZ
	DD	FLAT:?OnChildNotify@CWnd@@MAEHIIJPAJ@Z
	DD	FLAT:?OnTouchInputs@CWnd@@MAEHIPAUtagTOUCHINPUT@@@Z
	DD	FLAT:?OnTouchInput@CWnd@@MAEHVCPoint@@HHPAUtagTOUCHINPUT@@@Z
	DD	FLAT:?GetGestureStatus@CWnd@@MAEKVCPoint@@@Z
	DD	FLAT:?OnGestureZoom@CWnd@@MAEHVCPoint@@J@Z
	DD	FLAT:?OnGesturePan@CWnd@@MAEHVCPoint@@0@Z
	DD	FLAT:?OnGestureRotate@CWnd@@MAEHVCPoint@@N@Z
	DD	FLAT:?OnGestureTwoFingerTap@CWnd@@MAEHVCPoint@@@Z
	DD	FLAT:?OnGesturePressAndTap@CWnd@@MAEHVCPoint@@J@Z
	DD	FLAT:?ResizeDynamicLayout@CWnd@@MAEXXZ
	DD	FLAT:?CheckAutoCenter@CDialog@@UAEHXZ
	DD	FLAT:?IsFrameWnd@CWnd@@UBEHXZ
	DD	FLAT:?CreateControlContainer@CWnd@@MAEHPAPAVCOleControlContainer@@@Z
	DD	FLAT:?CreateControlSite@CWnd@@MAEHPAVCOleControlContainer@@PAPAVCOleControlSite@@IABU_GUID@@@Z
	DD	FLAT:?SetOccDialogInfo@CDialog@@MAEHPAU_AFX_OCC_DIALOG_INFO@@@Z
	DD	FLAT:?GetOccDialogInfo@CDialog@@MAEPAU_AFX_OCC_DIALOG_INFO@@XZ
	DD	FLAT:?Create@CDialog@@UAEHIPAVCWnd@@@Z
	DD	FLAT:?Create@CDialog@@UAEHPBDPAVCWnd@@@Z
	DD	FLAT:?CreateIndirect@CDialog@@UAEHPAXPAVCWnd@@@Z
	DD	FLAT:?CreateIndirect@CDialog@@UAEHPBUDLGTEMPLATE@@PAVCWnd@@PAX@Z
	DD	FLAT:?DoModal@CDialog@@UAEHXZ
	DD	FLAT:?OnInitDialog@CDialog@@UAEHXZ
	DD	FLAT:?OnSetFont@CDialog@@UAEXPAVCFont@@@Z
	DD	FLAT:?OnOK@CCommonDialog@@MAEXXZ
	DD	FLAT:?OnCancel@CCommonDialog@@MAEXXZ
	DD	FLAT:?PreInitDialog@CDialog@@MAEXXZ
CONST	ENDS
;	COMDAT ??_C@_00CNPNBAHC@@
CONST	SEGMENT
??_C@_00CNPNBAHC@@ DB 00H				; `string'
CONST	ENDS
;	COMDAT xdata$x
xdata$x	SEGMENT
__unwindtable$?OnBtnDown@CSetting_Special_Type_C@@IAEXXZ DD 0ffffffffH
	DD	FLAT:__unwindfunclet$?OnBtnDown@CSetting_Special_Type_C@@IAEXXZ$0
__ehfuncinfo$?OnBtnDown@CSetting_Special_Type_C@@IAEXXZ DD 019930522H
	DD	01H
	DD	FLAT:__unwindtable$?OnBtnDown@CSetting_Special_Type_C@@IAEXXZ
	DD	2 DUP(00H)
	DD	2 DUP(00H)
	DD	00H
	DD	01H
xdata$x	ENDS
;	COMDAT xdata$x
xdata$x	SEGMENT
__unwindtable$?OnBtnUp@CSetting_Special_Type_C@@IAEXXZ DD 0ffffffffH
	DD	FLAT:__unwindfunclet$?OnBtnUp@CSetting_Special_Type_C@@IAEXXZ$0
__ehfuncinfo$?OnBtnUp@CSetting_Special_Type_C@@IAEXXZ DD 019930522H
	DD	01H
	DD	FLAT:__unwindtable$?OnBtnUp@CSetting_Special_Type_C@@IAEXXZ
	DD	2 DUP(00H)
	DD	2 DUP(00H)
	DD	00H
	DD	01H
xdata$x	ENDS
;	COMDAT xdata$x
xdata$x	SEGMENT
__ehfuncinfo$?OnApply@CSetting_Special_Type_C@@UAEHPAUIGraphInfo135914@@@Z DD 019930522H
	DD	05H
	DD	FLAT:__unwindtable$?OnApply@CSetting_Special_Type_C@@UAEHPAUIGraphInfo135914@@@Z
	DD	2 DUP(00H)
	DD	2 DUP(00H)
	DD	00H
	DD	01H
__unwindtable$?OnApply@CSetting_Special_Type_C@@UAEHPAUIGraphInfo135914@@@Z DD 0ffffffffH
	DD	FLAT:__unwindfunclet$?OnApply@CSetting_Special_Type_C@@UAEHPAUIGraphInfo135914@@@Z$0
	DD	00H
	DD	FLAT:__unwindfunclet$?OnApply@CSetting_Special_Type_C@@UAEHPAUIGraphInfo135914@@@Z$1
	DD	01H
	DD	FLAT:__unwindfunclet$?OnApply@CSetting_Special_Type_C@@UAEHPAUIGraphInfo135914@@@Z$3
	DD	02H
	DD	FLAT:__unwindfunclet$?OnApply@CSetting_Special_Type_C@@UAEHPAUIGraphInfo135914@@@Z$4
	DD	00H
	DD	FLAT:___std_terminate
xdata$x	ENDS
;	COMDAT xdata$x
xdata$x	SEGMENT
__ehfuncinfo$?Initial@CSetting_Special_Type_C@@UAEXPAUIGraphInfo135914@@@Z DD 019930522H
	DD	05H
	DD	FLAT:__unwindtable$?Initial@CSetting_Special_Type_C@@UAEXPAUIGraphInfo135914@@@Z
	DD	2 DUP(00H)
	DD	2 DUP(00H)
	DD	00H
	DD	01H
__unwindtable$?Initial@CSetting_Special_Type_C@@UAEXPAUIGraphInfo135914@@@Z DD 0ffffffffH
	DD	FLAT:__unwindfunclet$?Initial@CSetting_Special_Type_C@@UAEXPAUIGraphInfo135914@@@Z$0
	DD	00H
	DD	FLAT:__unwindfunclet$?Initial@CSetting_Special_Type_C@@UAEXPAUIGraphInfo135914@@@Z$1
	DD	01H
	DD	FLAT:__unwindfunclet$?Initial@CSetting_Special_Type_C@@UAEXPAUIGraphInfo135914@@@Z$2
	DD	01H
	DD	FLAT:__unwindfunclet$?Initial@CSetting_Special_Type_C@@UAEXPAUIGraphInfo135914@@@Z$3
	DD	00H
	DD	FLAT:___std_terminate
xdata$x	ENDS
;	COMDAT xdata$x
xdata$x	SEGMENT
__ehfuncinfo$??0CSetting_Special_Type_C@@QAE@PAUIChartOCX135914@@PAVCWnd@@1@Z DD 019930522H
	DD	06H
	DD	FLAT:__unwindtable$??0CSetting_Special_Type_C@@QAE@PAUIChartOCX135914@@PAVCWnd@@1@Z
	DD	2 DUP(00H)
	DD	2 DUP(00H)
	DD	00H
	DD	01H
__unwindtable$??0CSetting_Special_Type_C@@QAE@PAUIChartOCX135914@@PAVCWnd@@1@Z DD 0ffffffffH
	DD	FLAT:__unwindfunclet$??0CSetting_Special_Type_C@@QAE@PAUIChartOCX135914@@PAVCWnd@@1@Z$0
	DD	00H
	DD	FLAT:__unwindfunclet$??0CSetting_Special_Type_C@@QAE@PAUIChartOCX135914@@PAVCWnd@@1@Z$1
	DD	01H
	DD	FLAT:__unwindfunclet$??0CSetting_Special_Type_C@@QAE@PAUIChartOCX135914@@PAVCWnd@@1@Z$2
	DD	02H
	DD	FLAT:__unwindfunclet$??0CSetting_Special_Type_C@@QAE@PAUIChartOCX135914@@PAVCWnd@@1@Z$3
	DD	03H
	DD	FLAT:__unwindfunclet$??0CSetting_Special_Type_C@@QAE@PAUIChartOCX135914@@PAVCWnd@@1@Z$4
	DD	04H
	DD	FLAT:__unwindfunclet$??0CSetting_Special_Type_C@@QAE@PAUIChartOCX135914@@PAVCWnd@@1@Z$5
xdata$x	ENDS
;	COMDAT xdata$x
xdata$x	SEGMENT
__ehfuncinfo$??1ILPCSTR135914@@QAE@XZ DD 019930522H
	DD	00H
	DD	00H
	DD	2 DUP(00H)
	DD	2 DUP(00H)
	DD	00H
	DD	05H
xdata$x	ENDS
; Function compile flags: /Ogtp
; File C:\Program Files (x86)\Microsoft Visual Studio\2019\Community\VC\Tools\MSVC\14.29.30133\atlmfc\include\afx.inl
;	COMDAT ??_GCSetting_Special_Type_C@@UAEPAXI@Z
_TEXT	SEGMENT
___flags$ = 8						; size = 4
??_GCSetting_Special_Type_C@@UAEPAXI@Z PROC		; CSetting_Special_Type_C::`scalar deleting destructor', COMDAT
; _this$ = ecx
  00000	55		 push	 ebp
  00001	8b ec		 mov	 ebp, esp
  00003	56		 push	 esi
  00004	8b f1		 mov	 esi, ecx
  00006	8d 8e 30 03 00
	00		 lea	 ecx, DWORD PTR [esi+816]
  0000c	ff 15 00 00 00
	00		 call	 DWORD PTR __imp_??1?$CStringT@DV?$StrTraitMFC_DLL@DV?$ChTraitsCRT@D@ATL@@@@@ATL@@QAE@XZ
  00012	8d 8e 88 02 00
	00		 lea	 ecx, DWORD PTR [esi+648]
  00018	e8 00 00 00 00	 call	 ??1CNumEdit@@UAE@XZ	; CNumEdit::~CNumEdit
  0001d	8d 8e 08 02 00
	00		 lea	 ecx, DWORD PTR [esi+520]
  00023	e8 00 00 00 00	 call	 ??1CNumSpinCtrl@@UAE@XZ	; CNumSpinCtrl::~CNumSpinCtrl
  00028	8d 8e 80 01 00
	00		 lea	 ecx, DWORD PTR [esi+384]
  0002e	e8 00 00 00 00	 call	 ??1CColorButton@@UAE@XZ	; CColorButton::~CColorButton
  00033	8d 8e f8 00 00
	00		 lea	 ecx, DWORD PTR [esi+248]
  00039	e8 00 00 00 00	 call	 ??1CColorButton@@UAE@XZ	; CColorButton::~CColorButton
  0003e	8b ce		 mov	 ecx, esi
  00040	e8 00 00 00 00	 call	 ??1CBaseDialog@@UAE@XZ	; CBaseDialog::~CBaseDialog
  00045	8b 45 08	 mov	 eax, DWORD PTR ___flags$[ebp]
  00048	a8 01		 test	 al, 1
  0004a	74 22		 je	 SHORT $LN12@scalar
  0004c	a8 04		 test	 al, 4
  0004e	75 10		 jne	 SHORT $LN3@scalar

; 112  : 	{ ::operator delete(p); }

  00050	56		 push	 esi
  00051	e8 00 00 00 00	 call	 ??3@YAXPAX@Z		; operator delete
  00056	83 c4 04	 add	 esp, 4
  00059	8b c6		 mov	 eax, esi
  0005b	5e		 pop	 esi
  0005c	5d		 pop	 ebp
  0005d	c2 04 00	 ret	 4
$LN3@scalar:
  00060	68 38 03 00 00	 push	 824			; 00000338H
  00065	56		 push	 esi
  00066	e8 00 00 00 00	 call	 ?__global_delete@@YAXPAXI@Z ; __global_delete
  0006b	83 c4 08	 add	 esp, 8
$LN12@scalar:
  0006e	8b c6		 mov	 eax, esi
  00070	5e		 pop	 esi
  00071	5d		 pop	 ebp
  00072	c2 04 00	 ret	 4
??_GCSetting_Special_Type_C@@UAEPAXI@Z ENDP		; CSetting_Special_Type_C::`scalar deleting destructor'
_TEXT	ENDS
; Function compile flags: /Ogtp
; File D:\git\src\IBK\IBK_DRFN\ProjSrc\SrcChartEx\ChartAddIn\ChartEnvSetupDlgAddIn\ChartEnvSetupDlgAddIn\Setting_Special_Type_C.cpp
;	COMDAT ?GetMessageMap@CSetting_Special_Type_C@@MBEPBUAFX_MSGMAP@@XZ
_TEXT	SEGMENT
?GetMessageMap@CSetting_Special_Type_C@@MBEPBUAFX_MSGMAP@@XZ PROC ; CSetting_Special_Type_C::GetMessageMap, COMDAT
; _this$ = ecx

; 56   : BEGIN_MESSAGE_MAP(CSetting_Special_Type_C, CBaseDialog)

  00000	b8 00 00 00 00	 mov	 eax, OFFSET ?messageMap@?1??GetThisMessageMap@CSetting_Special_Type_C@@KGPBUAFX_MSGMAP@@XZ@4U3@B
  00005	c3		 ret	 0
?GetMessageMap@CSetting_Special_Type_C@@MBEPBUAFX_MSGMAP@@XZ ENDP ; CSetting_Special_Type_C::GetMessageMap
_TEXT	ENDS
; Function compile flags: /Ogtp
; File D:\git\src\IBK\IBK_DRFN\ProjSrc\SrcChartEx\ChartAddIn\ChartEnvSetupDlgAddIn\ChartEnvSetupDlgAddIn\Setting_Special_Type_C.cpp
;	COMDAT ?GetThisMessageMap@CSetting_Special_Type_C@@KGPBUAFX_MSGMAP@@XZ
_TEXT	SEGMENT
?GetThisMessageMap@CSetting_Special_Type_C@@KGPBUAFX_MSGMAP@@XZ PROC ; CSetting_Special_Type_C::GetThisMessageMap, COMDAT

; 57   : 	//{{AFX_MSG_MAP(CSetting_Special_Type_C)
; 58   : 	ON_BN_CLICKED(IDC_BTN_UP, OnBtnUp)
; 59   : 	ON_BN_CLICKED(IDC_BTN_DOWN, OnBtnDown)
; 60   : 	//}}AFX_MSG_MAP
; 61   : END_MESSAGE_MAP()

  00000	b8 00 00 00 00	 mov	 eax, OFFSET ?messageMap@?1??GetThisMessageMap@CSetting_Special_Type_C@@KGPBUAFX_MSGMAP@@XZ@4U3@B
  00005	c3		 ret	 0
?GetThisMessageMap@CSetting_Special_Type_C@@KGPBUAFX_MSGMAP@@XZ ENDP ; CSetting_Special_Type_C::GetThisMessageMap
_TEXT	ENDS
; Function compile flags: /Ogtp
; File D:\git\src\IBK\IBK_DRFN\ProjSrc\SrcChartEx\ChartAddIn\ChartEnvSetupDlgAddIn\ChartEnvSetupDlgAddIn\Setting_Special_Type_C.cpp
;	COMDAT ?OnInitDialog@CSetting_Special_Type_C@@MAEHXZ
_TEXT	SEGMENT
?OnInitDialog@CSetting_Special_Type_C@@MAEHXZ PROC	; CSetting_Special_Type_C::OnInitDialog, COMDAT
; _this$ = ecx

; 72   : {

  00000	56		 push	 esi
  00001	8b f1		 mov	 esi, ecx

; 73   : 	CDialog::OnInitDialog();

  00003	e8 00 00 00 00	 call	 ?OnInitDialog@CDialog@@UAEHXZ ; CDialog::OnInitDialog

; 74   : 	
; 75   : 	// TODO: Add extra initialization here
; 76   : 	if( !m_pIGraphInfo) return TRUE;

  00008	83 be c4 00 00
	00 00		 cmp	 DWORD PTR [esi+196], 0
  0000f	74 0c		 je	 SHORT $LN4@OnInitDial

; 77   : 	Initial( NULL);

  00011	8b 06		 mov	 eax, DWORD PTR [esi]
  00013	8b ce		 mov	 ecx, esi
  00015	6a 00		 push	 0
  00017	ff 90 94 01 00
	00		 call	 DWORD PTR [eax+404]
$LN4@OnInitDial:

; 78   : 
; 79   : 	return TRUE;  // return TRUE unless you set the focus to a control
; 80   : 	              // EXCEPTION: OCX Property Pages should return FALSE
; 81   : }

  0001d	b8 01 00 00 00	 mov	 eax, 1
  00022	5e		 pop	 esi
  00023	c3		 ret	 0
?OnInitDialog@CSetting_Special_Type_C@@MAEHXZ ENDP	; CSetting_Special_Type_C::OnInitDialog
_TEXT	ENDS
; Function compile flags: /Ogtp
; File D:\git\src\IBK\IBK_DRFN\ProjSrc\SrcChartEx\ChartAddIn\ChartEnvSetupDlgAddIn\ChartEnvSetupDlgAddIn\Setting_Special_Type_C.cpp
; File C:\Program Files (x86)\Microsoft Visual Studio\2019\Community\VC\Tools\MSVC\14.29.30133\atlmfc\include\afxwin2.inl
; File C:\Program Files (x86)\Microsoft Visual Studio\2019\Community\VC\Tools\MSVC\14.29.30133\atlmfc\include\afxdlgs.h
; File D:\git\src\IBK\IBK_DRFN\ProjSrc\SrcChartEx\ChartAddIn\ChartEnvSetupDlgAddIn\ChartEnvSetupDlgAddIn\Setting_Special_Type_C.cpp
;	COMDAT ?OnBtnDown@CSetting_Special_Type_C@@IAEXXZ
_TEXT	SEGMENT
_color$ = -224						; size = 208
$T2 = -16						; size = 4
__$EHRec$ = -12						; size = 12
?OnBtnDown@CSetting_Special_Type_C@@IAEXXZ PROC		; CSetting_Special_Type_C::OnBtnDown, COMDAT
; _this$ = ecx

; 202  : {

  00000	55		 push	 ebp
  00001	8b ec		 mov	 ebp, esp
  00003	6a ff		 push	 -1
  00005	68 00 00 00 00	 push	 __ehhandler$?OnBtnDown@CSetting_Special_Type_C@@IAEXXZ
  0000a	64 a1 00 00 00
	00		 mov	 eax, DWORD PTR fs:0
  00010	50		 push	 eax
  00011	81 ec d4 00 00
	00		 sub	 esp, 212		; 000000d4H
  00017	56		 push	 esi
  00018	57		 push	 edi
  00019	a1 00 00 00 00	 mov	 eax, DWORD PTR ___security_cookie
  0001e	33 c5		 xor	 eax, ebp
  00020	50		 push	 eax
  00021	8d 45 f4	 lea	 eax, DWORD PTR __$EHRec$[ebp]
  00024	64 a3 00 00 00
	00		 mov	 DWORD PTR fs:0, eax
  0002a	8b f1		 mov	 esi, ecx

; 203  : 	// TODO: Add your control notification handler code here
; 204  : 	if(m_nSubGraphIndex < 0) return;

  0002c	83 be 34 03 00
	00 00		 cmp	 DWORD PTR [esi+820], 0
  00033	0f 8c 98 00 00
	00		 jl	 $LN19@OnBtnDown

; 205  : 	
; 206  : 	COLORREF crColor = m_btnDown.GetColor();

  00039	8d 8e 80 01 00
	00		 lea	 ecx, DWORD PTR [esi+384]
  0003f	e8 00 00 00 00	 call	 ?GetColor@CColorButton@@QAEKXZ ; CColorButton::GetColor

; 207  : 	CColorDialog color(crColor, CC_FULLOPEN);

  00044	6a 00		 push	 0
  00046	6a 02		 push	 2
  00048	50		 push	 eax
  00049	8d 8d 20 ff ff
	ff		 lea	 ecx, DWORD PTR _color$[ebp]
  0004f	e8 00 00 00 00	 call	 ??0CColorDialog@@QAE@KKPAVCWnd@@@Z ; CColorDialog::CColorDialog

; 208  : 	if(color.DoModal() != IDOK) 

  00054	8d 8d 20 ff ff
	ff		 lea	 ecx, DWORD PTR _color$[ebp]
  0005a	c7 45 fc 00 00
	00 00		 mov	 DWORD PTR __$EHRec$[ebp+8], 0
  00061	e8 00 00 00 00	 call	 ?DoModal@CColorDialog@@UAEHXZ ; CColorDialog::DoModal
  00066	83 f8 01	 cmp	 eax, 1
  00069	75 51		 jne	 SHORT $LN6@OnBtnDown

; 209  : 		return;
; 210  : 
; 211  : 	m_pIGraphInfo->SetSubGraphColor( m_nSubGraphIndex, 3, color.GetColor());

  0006b	8b 8e c4 00 00
	00		 mov	 ecx, DWORD PTR [esi+196]
  00071	ff 75 d4	 push	 DWORD PTR _color$[ebp+180]
  00074	6a 03		 push	 3
  00076	8b 01		 mov	 eax, DWORD PTR [ecx]
  00078	ff b6 34 03 00
	00		 push	 DWORD PTR [esi+820]
  0007e	ff 50 6c	 call	 DWORD PTR [eax+108]

; 212  : 	m_pIGraphInfo->SetSubGraphColor( m_nSubGraphIndex, 4, color.GetColor());

  00081	8b 8e c4 00 00
	00		 mov	 ecx, DWORD PTR [esi+196]
  00087	ff 75 d4	 push	 DWORD PTR _color$[ebp+180]
  0008a	6a 04		 push	 4
  0008c	8b 01		 mov	 eax, DWORD PTR [ecx]
  0008e	ff b6 34 03 00
	00		 push	 DWORD PTR [esi+820]
  00094	ff 50 6c	 call	 DWORD PTR [eax+108]

; 213  : 
; 214  : 	m_btnDown.SetColor( color.GetColor() );

  00097	8b 45 d4	 mov	 eax, DWORD PTR _color$[ebp+180]
  0009a	8d 8e 80 01 00
	00		 lea	 ecx, DWORD PTR [esi+384]
  000a0	89 45 f0	 mov	 DWORD PTR $T2[ebp], eax
  000a3	8d 45 f0	 lea	 eax, DWORD PTR $T2[ebp]
  000a6	50		 push	 eax
  000a7	e8 00 00 00 00	 call	 ?SetColor@CColorButton@@QAEXABK@Z ; CColorButton::SetColor
; File C:\Program Files (x86)\Microsoft Visual Studio\2019\Community\VC\Tools\MSVC\14.29.30133\atlmfc\include\afxwin2.inl

; 114  : 	{ ASSERT(::IsWindow(m_hWnd)); ::InvalidateRect(m_hWnd, NULL, bErase); }

  000ac	6a 01		 push	 1
  000ae	6a 00		 push	 0
  000b0	ff b6 a0 01 00
	00		 push	 DWORD PTR [esi+416]
  000b6	ff 15 00 00 00
	00		 call	 DWORD PTR __imp__InvalidateRect@12
$LN6@OnBtnDown:
; File C:\Program Files (x86)\Microsoft Visual Studio\2019\Community\VC\Tools\MSVC\14.29.30133\atlmfc\include\afxdlgs.h

; 110  :     virtual ~CCommonDialog() {};

  000bc	8d 8d 20 ff ff
	ff		 lea	 ecx, DWORD PTR _color$[ebp]
  000c2	c7 85 20 ff ff
	ff 00 00 00 00	 mov	 DWORD PTR _color$[ebp], OFFSET ??_7CCommonDialog@@6B@
  000cc	e8 00 00 00 00	 call	 ??1CDialog@@UAE@XZ	; CDialog::~CDialog
$LN19@OnBtnDown:
; File D:\git\src\IBK\IBK_DRFN\ProjSrc\SrcChartEx\ChartAddIn\ChartEnvSetupDlgAddIn\ChartEnvSetupDlgAddIn\Setting_Special_Type_C.cpp

; 216  : }

  000d1	8b 4d f4	 mov	 ecx, DWORD PTR __$EHRec$[ebp]
  000d4	64 89 0d 00 00
	00 00		 mov	 DWORD PTR fs:0, ecx
  000db	59		 pop	 ecx
  000dc	5f		 pop	 edi
  000dd	5e		 pop	 esi
  000de	8b e5		 mov	 esp, ebp
  000e0	5d		 pop	 ebp
  000e1	c3		 ret	 0
_TEXT	ENDS
;	COMDAT text$x
text$x	SEGMENT
__unwindfunclet$?OnBtnDown@CSetting_Special_Type_C@@IAEXXZ$0:
  00000	8d 8d 20 ff ff
	ff		 lea	 ecx, DWORD PTR _color$[ebp]
  00006	e9 00 00 00 00	 jmp	 ??1CColorDialog@@UAE@XZ
  0000b	cc		 int	 3
  0000c	cc		 int	 3
  0000d	cc		 int	 3
  0000e	cc		 int	 3
  0000f	cc		 int	 3
__ehhandler$?OnBtnDown@CSetting_Special_Type_C@@IAEXXZ:
  00010	90		 npad	 1
  00011	90		 npad	 1
  00012	8b 54 24 08	 mov	 edx, DWORD PTR [esp+8]
  00016	8d 42 0c	 lea	 eax, DWORD PTR [edx+12]
  00019	8b 8a 20 ff ff
	ff		 mov	 ecx, DWORD PTR [edx-224]
  0001f	33 c8		 xor	 ecx, eax
  00021	e8 00 00 00 00	 call	 @__security_check_cookie@4
  00026	b8 00 00 00 00	 mov	 eax, OFFSET __ehfuncinfo$?OnBtnDown@CSetting_Special_Type_C@@IAEXXZ
  0002b	e9 00 00 00 00	 jmp	 ___CxxFrameHandler3
text$x	ENDS
?OnBtnDown@CSetting_Special_Type_C@@IAEXXZ ENDP		; CSetting_Special_Type_C::OnBtnDown
; Function compile flags: /Ogtp
; File D:\git\src\IBK\IBK_DRFN\ProjSrc\SrcChartEx\ChartAddIn\ChartEnvSetupDlgAddIn\ChartEnvSetupDlgAddIn\Setting_Special_Type_C.cpp
; File C:\Program Files (x86)\Microsoft Visual Studio\2019\Community\VC\Tools\MSVC\14.29.30133\atlmfc\include\afxwin2.inl
; File C:\Program Files (x86)\Microsoft Visual Studio\2019\Community\VC\Tools\MSVC\14.29.30133\atlmfc\include\afxdlgs.h
; File D:\git\src\IBK\IBK_DRFN\ProjSrc\SrcChartEx\ChartAddIn\ChartEnvSetupDlgAddIn\ChartEnvSetupDlgAddIn\Setting_Special_Type_C.cpp
;	COMDAT ?OnBtnUp@CSetting_Special_Type_C@@IAEXXZ
_TEXT	SEGMENT
_color$ = -224						; size = 208
$T2 = -16						; size = 4
__$EHRec$ = -12						; size = 12
?OnBtnUp@CSetting_Special_Type_C@@IAEXXZ PROC		; CSetting_Special_Type_C::OnBtnUp, COMDAT
; _this$ = ecx

; 178  : {

  00000	55		 push	 ebp
  00001	8b ec		 mov	 ebp, esp
  00003	6a ff		 push	 -1
  00005	68 00 00 00 00	 push	 __ehhandler$?OnBtnUp@CSetting_Special_Type_C@@IAEXXZ
  0000a	64 a1 00 00 00
	00		 mov	 eax, DWORD PTR fs:0
  00010	50		 push	 eax
  00011	81 ec d4 00 00
	00		 sub	 esp, 212		; 000000d4H
  00017	56		 push	 esi
  00018	57		 push	 edi
  00019	a1 00 00 00 00	 mov	 eax, DWORD PTR ___security_cookie
  0001e	33 c5		 xor	 eax, ebp
  00020	50		 push	 eax
  00021	8d 45 f4	 lea	 eax, DWORD PTR __$EHRec$[ebp]
  00024	64 a3 00 00 00
	00		 mov	 DWORD PTR fs:0, eax
  0002a	8b f1		 mov	 esi, ecx

; 179  : 	// TODO: Add your control notification handler code here
; 180  : 	if(m_nSubGraphIndex < 0)

  0002c	83 be 34 03 00
	00 00		 cmp	 DWORD PTR [esi+820], 0
  00033	0f 8c 98 00 00
	00		 jl	 $LN19@OnBtnUp

; 181  : 		return;
; 182  : 	
; 183  : 	COLORREF crColor = m_btnUp.GetColor();

  00039	8d 8e f8 00 00
	00		 lea	 ecx, DWORD PTR [esi+248]
  0003f	e8 00 00 00 00	 call	 ?GetColor@CColorButton@@QAEKXZ ; CColorButton::GetColor

; 184  : 	CColorDialog color(crColor, CC_FULLOPEN);

  00044	6a 00		 push	 0
  00046	6a 02		 push	 2
  00048	50		 push	 eax
  00049	8d 8d 20 ff ff
	ff		 lea	 ecx, DWORD PTR _color$[ebp]
  0004f	e8 00 00 00 00	 call	 ??0CColorDialog@@QAE@KKPAVCWnd@@@Z ; CColorDialog::CColorDialog

; 185  : 	if(color.DoModal() != IDOK) 

  00054	8d 8d 20 ff ff
	ff		 lea	 ecx, DWORD PTR _color$[ebp]
  0005a	c7 45 fc 00 00
	00 00		 mov	 DWORD PTR __$EHRec$[ebp+8], 0
  00061	e8 00 00 00 00	 call	 ?DoModal@CColorDialog@@UAEHXZ ; CColorDialog::DoModal
  00066	83 f8 01	 cmp	 eax, 1
  00069	75 51		 jne	 SHORT $LN6@OnBtnUp

; 186  : 		return;
; 187  : 
; 188  : 	m_pIGraphInfo->SetSubGraphColor( m_nSubGraphIndex, 1, color.GetColor());

  0006b	8b 8e c4 00 00
	00		 mov	 ecx, DWORD PTR [esi+196]
  00071	ff 75 d4	 push	 DWORD PTR _color$[ebp+180]
  00074	6a 01		 push	 1
  00076	8b 01		 mov	 eax, DWORD PTR [ecx]
  00078	ff b6 34 03 00
	00		 push	 DWORD PTR [esi+820]
  0007e	ff 50 6c	 call	 DWORD PTR [eax+108]

; 189  : 	m_pIGraphInfo->SetSubGraphColor( m_nSubGraphIndex, 2, color.GetColor());

  00081	8b 8e c4 00 00
	00		 mov	 ecx, DWORD PTR [esi+196]
  00087	ff 75 d4	 push	 DWORD PTR _color$[ebp+180]
  0008a	6a 02		 push	 2
  0008c	8b 01		 mov	 eax, DWORD PTR [ecx]
  0008e	ff b6 34 03 00
	00		 push	 DWORD PTR [esi+820]
  00094	ff 50 6c	 call	 DWORD PTR [eax+108]

; 190  : 
; 191  : 	m_btnUp.SetColor( color.GetColor() );

  00097	8b 45 d4	 mov	 eax, DWORD PTR _color$[ebp+180]
  0009a	8d 8e f8 00 00
	00		 lea	 ecx, DWORD PTR [esi+248]
  000a0	89 45 f0	 mov	 DWORD PTR $T2[ebp], eax
  000a3	8d 45 f0	 lea	 eax, DWORD PTR $T2[ebp]
  000a6	50		 push	 eax
  000a7	e8 00 00 00 00	 call	 ?SetColor@CColorButton@@QAEXABK@Z ; CColorButton::SetColor
; File C:\Program Files (x86)\Microsoft Visual Studio\2019\Community\VC\Tools\MSVC\14.29.30133\atlmfc\include\afxwin2.inl

; 114  : 	{ ASSERT(::IsWindow(m_hWnd)); ::InvalidateRect(m_hWnd, NULL, bErase); }

  000ac	6a 01		 push	 1
  000ae	6a 00		 push	 0
  000b0	ff b6 18 01 00
	00		 push	 DWORD PTR [esi+280]
  000b6	ff 15 00 00 00
	00		 call	 DWORD PTR __imp__InvalidateRect@12
$LN6@OnBtnUp:
; File C:\Program Files (x86)\Microsoft Visual Studio\2019\Community\VC\Tools\MSVC\14.29.30133\atlmfc\include\afxdlgs.h

; 110  :     virtual ~CCommonDialog() {};

  000bc	8d 8d 20 ff ff
	ff		 lea	 ecx, DWORD PTR _color$[ebp]
  000c2	c7 85 20 ff ff
	ff 00 00 00 00	 mov	 DWORD PTR _color$[ebp], OFFSET ??_7CCommonDialog@@6B@
  000cc	e8 00 00 00 00	 call	 ??1CDialog@@UAE@XZ	; CDialog::~CDialog
$LN19@OnBtnUp:
; File D:\git\src\IBK\IBK_DRFN\ProjSrc\SrcChartEx\ChartAddIn\ChartEnvSetupDlgAddIn\ChartEnvSetupDlgAddIn\Setting_Special_Type_C.cpp

; 193  : }

  000d1	8b 4d f4	 mov	 ecx, DWORD PTR __$EHRec$[ebp]
  000d4	64 89 0d 00 00
	00 00		 mov	 DWORD PTR fs:0, ecx
  000db	59		 pop	 ecx
  000dc	5f		 pop	 edi
  000dd	5e		 pop	 esi
  000de	8b e5		 mov	 esp, ebp
  000e0	5d		 pop	 ebp
  000e1	c3		 ret	 0
_TEXT	ENDS
;	COMDAT text$x
text$x	SEGMENT
__unwindfunclet$?OnBtnUp@CSetting_Special_Type_C@@IAEXXZ$0:
  00000	8d 8d 20 ff ff
	ff		 lea	 ecx, DWORD PTR _color$[ebp]
  00006	e9 00 00 00 00	 jmp	 ??1CColorDialog@@UAE@XZ
  0000b	cc		 int	 3
  0000c	cc		 int	 3
  0000d	cc		 int	 3
  0000e	cc		 int	 3
  0000f	cc		 int	 3
__ehhandler$?OnBtnUp@CSetting_Special_Type_C@@IAEXXZ:
  00010	90		 npad	 1
  00011	90		 npad	 1
  00012	8b 54 24 08	 mov	 edx, DWORD PTR [esp+8]
  00016	8d 42 0c	 lea	 eax, DWORD PTR [edx+12]
  00019	8b 8a 20 ff ff
	ff		 mov	 ecx, DWORD PTR [edx-224]
  0001f	33 c8		 xor	 ecx, eax
  00021	e8 00 00 00 00	 call	 @__security_check_cookie@4
  00026	b8 00 00 00 00	 mov	 eax, OFFSET __ehfuncinfo$?OnBtnUp@CSetting_Special_Type_C@@IAEXXZ
  0002b	e9 00 00 00 00	 jmp	 ___CxxFrameHandler3
text$x	ENDS
?OnBtnUp@CSetting_Special_Type_C@@IAEXXZ ENDP		; CSetting_Special_Type_C::OnBtnUp
; Function compile flags: /Ogtp
; File D:\git\src\IBK\IBK_DRFN\ProjSrc\SrcChartEx\ChartAddIn\ChartEnvSetupDlgAddIn\ChartEnvSetupDlgAddIn\Setting_Special_Type_C.cpp
; File D:\git\src\IBK\IBK_DRFN\ProjSrc\SrcChartEx\ChartAddIn\ChartEnvSetupDlgAddIn\Include_AddIn_135914\I135914\_IString.h
; File D:\git\src\IBK\IBK_DRFN\ProjSrc\SrcChartEx\ChartAddIn\ChartEnvSetupDlgAddIn\ChartEnvSetupDlgAddIn\Setting_Special_Type_C.cpp
; File C:\Program Files (x86)\Microsoft Visual Studio\2019\Community\VC\Tools\MSVC\14.29.30133\atlmfc\include\cstringt.h
; File D:\git\src\IBK\IBK_DRFN\ProjSrc\SrcChartEx\ChartAddIn\ChartEnvSetupDlgAddIn\ChartEnvSetupDlgAddIn\Setting_Special_Type_C.cpp
; File D:\git\src\IBK\IBK_DRFN\ProjSrc\SrcChartEx\ChartAddIn\ChartEnvSetupDlgAddIn\Include_AddIn_135914\I135914\_IString.h
; File D:\git\src\IBK\IBK_DRFN\ProjSrc\SrcChartEx\ChartAddIn\ChartEnvSetupDlgAddIn\ChartEnvSetupDlgAddIn\Setting_Special_Type_C.cpp
;	COMDAT ?OnApply@CSetting_Special_Type_C@@UAEHPAUIGraphInfo135914@@@Z
_TEXT	SEGMENT
_d$2 = -48						; size = 8
_szGraphName$ = -40					; size = 8
_psnCnd$1$ = -28					; size = 4
_bResult$1$ = -28					; size = 4
$T3 = -28						; size = 4
_strPacketType$ = -24					; size = 4
_pIDrawCalCnd$1$ = -20					; size = 4
_psnCnd$1$ = -20					; size = 4
_strOutput$4 = -16					; size = 4
__$EHRec$ = -12						; size = 12
_pICalCndOrg$1$ = 8					; size = 4
_p_pIGraphInfo$ = 8					; size = 4
?OnApply@CSetting_Special_Type_C@@UAEHPAUIGraphInfo135914@@@Z PROC ; CSetting_Special_Type_C::OnApply, COMDAT
; _this$ = ecx

; 231  : {

  00000	55		 push	 ebp
  00001	8b ec		 mov	 ebp, esp
  00003	6a ff		 push	 -1
  00005	68 00 00 00 00	 push	 __ehhandler$?OnApply@CSetting_Special_Type_C@@UAEHPAUIGraphInfo135914@@@Z
  0000a	64 a1 00 00 00
	00		 mov	 eax, DWORD PTR fs:0
  00010	50		 push	 eax
  00011	83 ec 24	 sub	 esp, 36			; 00000024H
  00014	53		 push	 ebx
  00015	56		 push	 esi
  00016	57		 push	 edi
  00017	a1 00 00 00 00	 mov	 eax, DWORD PTR ___security_cookie
  0001c	33 c5		 xor	 eax, ebp
  0001e	50		 push	 eax
  0001f	8d 45 f4	 lea	 eax, DWORD PTR __$EHRec$[ebp]
  00022	64 a3 00 00 00
	00		 mov	 DWORD PTR fs:0, eax
  00028	8b f9		 mov	 edi, ecx

; 232  : 	if(p_pIGraphInfo == NULL)

  0002a	8b 5d 08	 mov	 ebx, DWORD PTR _p_pIGraphInfo$[ebp]
  0002d	85 db		 test	 ebx, ebx
  0002f	75 16		 jne	 SHORT $LN2@OnApply

; 233  : 		return FALSE;

  00031	33 c0		 xor	 eax, eax

; 326  : }

  00033	8b 4d f4	 mov	 ecx, DWORD PTR __$EHRec$[ebp]
  00036	64 89 0d 00 00
	00 00		 mov	 DWORD PTR fs:0, ecx
  0003d	59		 pop	 ecx
  0003e	5f		 pop	 edi
  0003f	5e		 pop	 esi
  00040	5b		 pop	 ebx
  00041	8b e5		 mov	 esp, ebp
  00043	5d		 pop	 ebp
  00044	c2 04 00	 ret	 4
$LN2@OnApply:

; 234  : 	
; 235  : //	OnApply_Thickness( m_nSubGraphIndex, m_cmbThickness);
; 236  : 
; 237  : 	// 20081028   . >>
; 238  : 	CString strPacketType = GetPacketType();

  00047	8d 45 e8	 lea	 eax, DWORD PTR _strPacketType$[ebp]
  0004a	50		 push	 eax
  0004b	e8 00 00 00 00	 call	 ?GetPacketType@CBaseDialog@@QAE?AV?$CStringT@DV?$StrTraitMFC_DLL@DV?$ChTraitsCRT@D@ATL@@@@@ATL@@XZ ; CBaseDialog::GetPacketType

; 242  : 	ILPCSTR szGraphName = m_pIGraphInfo->GetIndicatorNameString();

  00050	8b 8f c4 00 00
	00		 mov	 ecx, DWORD PTR [edi+196]
  00056	c7 45 fc 00 00
	00 00		 mov	 DWORD PTR __$EHRec$[ebp+8], 0
  0005d	8b 01		 mov	 eax, DWORD PTR [ecx]
  0005f	ff 90 a4 00 00
	00		 call	 DWORD PTR [eax+164]
; File D:\git\src\IBK\IBK_DRFN\ProjSrc\SrcChartEx\ChartAddIn\ChartEnvSetupDlgAddIn\Include_AddIn_135914\I135914\_IString.h

; 39   : 		m_pIStrData = p_pIString;	// Do not AddRef(). Because It must be Return Value.

  00065	89 45 dc	 mov	 DWORD PTR _szGraphName$[ebp+4], eax

; 40   : 		if( m_pIStrData) m_szData = m_pIStrData->GetData();

  00068	85 c0		 test	 eax, eax
  0006a	74 0b		 je	 SHORT $LN27@OnApply
  0006c	8b 10		 mov	 edx, DWORD PTR [eax]
  0006e	8b c8		 mov	 ecx, eax
  00070	ff 52 10	 call	 DWORD PTR [edx+16]
  00073	8b c8		 mov	 ecx, eax
  00075	eb 02		 jmp	 SHORT $LN53@OnApply
$LN27@OnApply:

; 41   : 		else m_szData = NULL;

  00077	33 c9		 xor	 ecx, ecx
$LN53@OnApply:
; File D:\git\src\IBK\IBK_DRFN\ProjSrc\SrcChartEx\ChartAddIn\ChartEnvSetupDlgAddIn\ChartEnvSetupDlgAddIn\Setting_Special_Type_C.cpp

; 242  : 	ILPCSTR szGraphName = m_pIGraphInfo->GetIndicatorNameString();

  00079	89 4d d8	 mov	 DWORD PTR _szGraphName$[ebp], ecx

; 243  : 	if( !strcmp( szGraphName, _MTEXT( C2_RENKO_CHART )))

  0007c	a1 54 00 00 00	 mov	 eax, DWORD PTR ?g_iMetaTable@@3VIMetaTable@@A+84
  00081	c6 45 fc 01	 mov	 BYTE PTR __$EHRec$[ebp+8], 1
  00085	8b 80 9c 04 00
	00		 mov	 eax, DWORD PTR [eax+1180]
  0008b	0f 1f 44 00 00	 npad	 5
$LL47@OnApply:
  00090	8a 11		 mov	 dl, BYTE PTR [ecx]
  00092	3a 10		 cmp	 dl, BYTE PTR [eax]
  00094	75 1a		 jne	 SHORT $LN48@OnApply
  00096	84 d2		 test	 dl, dl
  00098	74 12		 je	 SHORT $LN49@OnApply
  0009a	8a 51 01	 mov	 dl, BYTE PTR [ecx+1]
  0009d	3a 50 01	 cmp	 dl, BYTE PTR [eax+1]
  000a0	75 0e		 jne	 SHORT $LN48@OnApply
  000a2	83 c1 02	 add	 ecx, 2
  000a5	83 c0 02	 add	 eax, 2
  000a8	84 d2		 test	 dl, dl
  000aa	75 e4		 jne	 SHORT $LL47@OnApply
$LN49@OnApply:
  000ac	33 c0		 xor	 eax, eax
  000ae	eb 05		 jmp	 SHORT $LN50@OnApply
$LN48@OnApply:
  000b0	1b c0		 sbb	 eax, eax
  000b2	83 c8 01	 or	 eax, 1
$LN50@OnApply:
  000b5	85 c0		 test	 eax, eax
  000b7	0f 85 f1 01 00
	00		 jne	 $LN3@OnApply

; 244  : 	{
; 245  : 		IDoubleList *pICalCnd = m_pIGraphInfo->GetCommonCalculateConditionList();

  000bd	8b 8f c4 00 00
	00		 mov	 ecx, DWORD PTR [edi+196]
  000c3	8b 01		 mov	 eax, DWORD PTR [ecx]
  000c5	ff 50 10	 call	 DWORD PTR [eax+16]
  000c8	8b d8		 mov	 ebx, eax

; 246  : 		if( pICalCnd)

  000ca	85 db		 test	 ebx, ebx
  000cc	0f 84 3a 01 00
	00		 je	 $LN6@OnApply

; 247  : 		{
; 248  : 			POSITION psnCnd = pICalCnd->GetHeadPosition();

  000d2	8b 13		 mov	 edx, DWORD PTR [ebx]
  000d4	8b cb		 mov	 ecx, ebx
  000d6	ff 52 34	 call	 DWORD PTR [edx+52]
  000d9	89 45 ec	 mov	 DWORD PTR _psnCnd$1$[ebp], eax

; 249  : 			if( psnCnd)

  000dc	85 c0		 test	 eax, eax
  000de	0f 84 28 01 00
	00		 je	 $LN6@OnApply

; 250  : 			{
; 251  : 				UpdateData();

  000e4	6a 01		 push	 1
  000e6	8b cf		 mov	 ecx, edi
  000e8	e8 00 00 00 00	 call	 ?UpdateData@CWnd@@QAEHH@Z ; CWnd::UpdateData

; 252  : 
; 253  : 				// 20081028  >>
; 254  : 				//pICalCnd->SetAt( psnCnd, atof( m_strBlockChange));
; 255  : 				if(CDataConversion::IsBaseFormat(strPacketType))

  000ed	8d 45 e8	 lea	 eax, DWORD PTR _strPacketType$[ebp]
  000f0	50		 push	 eax
  000f1	8d b7 30 03 00
	00		 lea	 esi, DWORD PTR [edi+816]
  000f7	e8 00 00 00 00	 call	 ?IsBaseFormat@CDataConversion@@SA_NABV?$CStringT@DV?$StrTraitMFC_DLL@DV?$ChTraitsCRT@D@ATL@@@@@ATL@@@Z ; CDataConversion::IsBaseFormat
  000fc	83 c4 04	 add	 esp, 4
  000ff	84 c0		 test	 al, al
  00101	0f 84 e0 00 00
	00		 je	 $LN7@OnApply

; 256  : 				{
; 257  : 					//     . >>
; 258  : 					BOOL bResult = CDataConversion::IsValid8_32(m_strBlockChange);

  00107	51		 push	 ecx
  00108	8b cc		 mov	 ecx, esp
  0010a	56		 push	 esi
  0010b	ff 15 00 00 00
	00		 call	 DWORD PTR __imp_??0?$CStringT@DV?$StrTraitMFC_DLL@DV?$ChTraitsCRT@D@ATL@@@@@ATL@@QAE@ABV01@@Z
  00111	e8 00 00 00 00	 call	 ?IsValid8_32@CDataConversion@@SAHV?$CStringT@DV?$StrTraitMFC_DLL@DV?$ChTraitsCRT@D@ATL@@@@@ATL@@@Z ; CDataConversion::IsValid8_32
  00116	83 c4 04	 add	 esp, 4
  00119	89 45 e4	 mov	 DWORD PTR _bResult$1$[ebp], eax
; File C:\Program Files (x86)\Microsoft Visual Studio\2019\Community\VC\Tools\MSVC\14.29.30133\atlmfc\include\cstringt.h

; 2486 : 		return(str1.Compare(psz2) == 0);

  0011c	8b ce		 mov	 ecx, esi
  0011e	68 00 00 00 00	 push	 OFFSET ??_C@_01GBGANLPD@0@
  00123	ff 15 00 00 00
	00		 call	 DWORD PTR __imp_?Compare@?$CStringT@DV?$StrTraitMFC_DLL@DV?$ChTraitsCRT@D@ATL@@@@@ATL@@QBEHPBD@Z
  00129	85 c0		 test	 eax, eax
; File D:\git\src\IBK\IBK_DRFN\ProjSrc\SrcChartEx\ChartAddIn\ChartEnvSetupDlgAddIn\ChartEnvSetupDlgAddIn\Setting_Special_Type_C.cpp

; 259  : 					if(m_strBlockChange == "0") bResult = FALSE;

  0012b	74 73		 je	 SHORT $LN46@OnApply

; 260  : 
; 261  : 					if(!bResult)

  0012d	83 7d e4 00	 cmp	 DWORD PTR _bResult$1$[ebp], 0
  00131	74 6d		 je	 SHORT $LN46@OnApply

; 270  : 						}
; 271  : 						return FALSE;
; 272  : 					}
; 273  : 
; 274  : 					//  ...   .
; 275  : 					CString strOutput;

  00133	8d 4d f0	 lea	 ecx, DWORD PTR _strOutput$4[ebp]
  00136	ff 15 00 00 00
	00		 call	 DWORD PTR __imp_??0?$CStringT@DV?$StrTraitMFC_DLL@DV?$ChTraitsCRT@D@ATL@@@@@ATL@@QAE@XZ

; 276  : 					bResult = CDataConversion::GetDataToDec(m_strBlockChange, strPacketType, strOutput);

  0013c	8d 45 f0	 lea	 eax, DWORD PTR _strOutput$4[ebp]
  0013f	c6 45 fc 02	 mov	 BYTE PTR __$EHRec$[ebp+8], 2
  00143	50		 push	 eax
  00144	51		 push	 ecx
  00145	8d 45 e8	 lea	 eax, DWORD PTR _strPacketType$[ebp]
  00148	89 65 e4	 mov	 DWORD PTR $T3[ebp], esp
  0014b	8b cc		 mov	 ecx, esp
  0014d	50		 push	 eax
  0014e	ff 15 00 00 00
	00		 call	 DWORD PTR __imp_??0?$CStringT@DV?$StrTraitMFC_DLL@DV?$ChTraitsCRT@D@ATL@@@@@ATL@@QAE@ABV01@@Z
  00154	51		 push	 ecx
  00155	8b cc		 mov	 ecx, esp
  00157	c6 45 fc 03	 mov	 BYTE PTR __$EHRec$[ebp+8], 3
  0015b	56		 push	 esi
  0015c	ff 15 00 00 00
	00		 call	 DWORD PTR __imp_??0?$CStringT@DV?$StrTraitMFC_DLL@DV?$ChTraitsCRT@D@ATL@@@@@ATL@@QAE@ABV01@@Z
  00162	c6 45 fc 02	 mov	 BYTE PTR __$EHRec$[ebp+8], 2
  00166	e8 00 00 00 00	 call	 ?GetDataToDec@CDataConversion@@SAHV?$CStringT@DV?$StrTraitMFC_DLL@DV?$ChTraitsCRT@D@ATL@@@@@ATL@@0AAV23@@Z ; CDataConversion::GetDataToDec

; 277  : 
; 278  : 					if(bResult)

  0016b	8b 33		 mov	 esi, DWORD PTR [ebx]
  0016d	83 c4 0c	 add	 esp, 12			; 0000000cH
  00170	85 c0		 test	 eax, eax
  00172	74 05		 je	 SHORT $LN12@OnApply

; 279  : 						pICalCnd->SetAt(psnCnd, atof(strOutput));

  00174	ff 75 f0	 push	 DWORD PTR _strOutput$4[ebp]
  00177	eb 06		 jmp	 SHORT $LN54@OnApply
$LN12@OnApply:

; 280  : 					else
; 281  : 						pICalCnd->SetAt( psnCnd, atof( m_strBlockChange));

  00179	ff b7 30 03 00
	00		 push	 DWORD PTR [edi+816]
$LN54@OnApply:

; 282  : 				}

  0017f	ff 15 00 00 00
	00		 call	 DWORD PTR __imp__atof
  00185	51		 push	 ecx
  00186	dd 1c 24	 fstp	 QWORD PTR [esp]
  00189	ff 75 ec	 push	 DWORD PTR _psnCnd$1$[ebp]
  0018c	8b cb		 mov	 ecx, ebx
  0018e	ff 56 48	 call	 DWORD PTR [esi+72]
  00191	8d 4d f0	 lea	 ecx, DWORD PTR _strOutput$4[ebp]
  00194	c6 45 fc 01	 mov	 BYTE PTR __$EHRec$[ebp+8], 1
  00198	ff 15 00 00 00
	00		 call	 DWORD PTR __imp_??1?$CStringT@DV?$StrTraitMFC_DLL@DV?$ChTraitsCRT@D@ATL@@@@@ATL@@QAE@XZ
  0019e	eb 61		 jmp	 SHORT $LN8@OnApply
$LN46@OnApply:

; 262  : 					{
; 263  : 						AfxMessageBox("    .");

  001a0	6a 00		 push	 0
  001a2	6a 00		 push	 0
  001a4	68 00 00 00 00	 push	 OFFSET ??_C@_0CI@DCNEOPPA@?$MA?T?$LH?B?$LF?H?5?$LJ?$KO?$MA?Z?$LP?$KN?$MA?L?5?$LO?K?$LI?B?$MA?$LK?5?A?x?$LJ?$PN?$MA?L?5?$LO@
  001a9	e8 00 00 00 00	 call	 ?AfxMessageBox@@YGHPBDII@Z ; AfxMessageBox

; 264  : 						
; 265  : 						CWnd *pWnd = GetDlgItem(IDC_EDIT_BLOCKCHANGE);

  001ae	68 19 18 00 00	 push	 6169			; 00001819H
  001b3	8b cf		 mov	 ecx, edi
  001b5	e8 00 00 00 00	 call	 ?GetDlgItem@CWnd@@QBEPAV1@H@Z ; CWnd::GetDlgItem
  001ba	8b f0		 mov	 esi, eax

; 266  : 						if(pWnd && IsWindow(pWnd->GetSafeHwnd()))

  001bc	85 f6		 test	 esi, esi
  001be	74 20		 je	 SHORT $LN11@OnApply
  001c0	ff 76 20	 push	 DWORD PTR [esi+32]
  001c3	ff 15 00 00 00
	00		 call	 DWORD PTR __imp__IsWindow@4
  001c9	85 c0		 test	 eax, eax
  001cb	74 13		 je	 SHORT $LN11@OnApply

; 267  : 						{
; 268  : 							pWnd->SetWindowText("");

  001cd	68 00 00 00 00	 push	 OFFSET ??_C@_00CNPNBAHC@@
  001d2	8b ce		 mov	 ecx, esi
  001d4	e8 00 00 00 00	 call	 ?SetWindowTextA@CWnd@@QAEXPBD@Z ; CWnd::SetWindowTextA

; 269  : 							pWnd->SetFocus();

  001d9	8b ce		 mov	 ecx, esi
  001db	e8 00 00 00 00	 call	 ?SetFocus@CWnd@@QAEPAV1@XZ ; CWnd::SetFocus
$LN11@OnApply:
  001e0	33 f6		 xor	 esi, esi
  001e2	e9 dc 00 00 00	 jmp	 $LN25@OnApply
$LN7@OnApply:

; 283  : 				else
; 284  : 				{
; 285  : 					//  ...
; 286  : 					pICalCnd->SetAt( psnCnd, atof( m_strBlockChange));

  001e7	ff b7 30 03 00
	00		 push	 DWORD PTR [edi+816]
  001ed	8b 33		 mov	 esi, DWORD PTR [ebx]
  001ef	ff 15 00 00 00
	00		 call	 DWORD PTR __imp__atof
  001f5	51		 push	 ecx
  001f6	dd 1c 24	 fstp	 QWORD PTR [esp]
  001f9	ff 75 ec	 push	 DWORD PTR _psnCnd$1$[ebp]
  001fc	8b cb		 mov	 ecx, ebx
  001fe	ff 56 48	 call	 DWORD PTR [esi+72]
$LN8@OnApply:

; 287  : 				}
; 288  : 				// 20081028  <<
; 289  : 
; 290  : 				double d;
; 291  : 				pICalCnd->GetHead(d);

  00201	8b 03		 mov	 eax, DWORD PTR [ebx]
  00203	8d 4d d0	 lea	 ecx, DWORD PTR _d$2[ebp]
  00206	51		 push	 ecx
  00207	8b cb		 mov	 ecx, ebx
  00209	ff 50 18	 call	 DWORD PTR [eax+24]
$LN6@OnApply:

; 292  : 				
; 293  : 			}
; 294  : 		}
; 295  : 
; 296  : 		// (2008/10/27 - Seung-Won, Bae) for Auto Condition.
; 297  : 		IDoubleList *pIDrawCalCnd = m_pIGraphInfo->GetDrawConditionList();

  0020c	8b 8f c4 00 00
	00		 mov	 ecx, DWORD PTR [edi+196]
  00212	8b 01		 mov	 eax, DWORD PTR [ecx]
  00214	ff 50 14	 call	 DWORD PTR [eax+20]
  00217	8b f0		 mov	 esi, eax
  00219	89 75 ec	 mov	 DWORD PTR _pIDrawCalCnd$1$[ebp], esi

; 298  : 		if( pIDrawCalCnd)

  0021c	85 f6		 test	 esi, esi
  0021e	74 2b		 je	 SHORT $LN15@OnApply

; 299  : 		{
; 300  : 			double dData = 0;
; 301  : 			POSITION psnCnd = pIDrawCalCnd->GetHeadPosition();

  00220	8b 16		 mov	 edx, DWORD PTR [esi]
  00222	8b ce		 mov	 ecx, esi
  00224	ff 52 34	 call	 DWORD PTR [edx+52]
  00227	89 45 e4	 mov	 DWORD PTR _psnCnd$1$[ebp], eax

; 302  : 			if( psnCnd) pIDrawCalCnd->SetAt( psnCnd, atof( "1"));

  0022a	85 c0		 test	 eax, eax
  0022c	74 1d		 je	 SHORT $LN15@OnApply
  0022e	8b 36		 mov	 esi, DWORD PTR [esi]
  00230	68 00 00 00 00	 push	 OFFSET ??_C@_01HIHLOKLC@1@
  00235	ff 15 00 00 00
	00		 call	 DWORD PTR __imp__atof
  0023b	51		 push	 ecx
  0023c	8b 4d ec	 mov	 ecx, DWORD PTR _pIDrawCalCnd$1$[ebp]
  0023f	dd 1c 24	 fstp	 QWORD PTR [esp]
  00242	ff 75 e4	 push	 DWORD PTR _psnCnd$1$[ebp]
  00245	ff 56 48	 call	 DWORD PTR [esi+72]
  00248	8b 75 ec	 mov	 esi, DWORD PTR _pIDrawCalCnd$1$[ebp]
$LN15@OnApply:

; 303  : 		}
; 304  : 		pIDrawCalCnd->Release();

  0024b	8b 06		 mov	 eax, DWORD PTR [esi]
  0024d	56		 push	 esi
  0024e	ff 50 08	 call	 DWORD PTR [eax+8]

; 305  : 		
; 306  : 		if( !CBaseDialog::m_bDoCalculate)

  00251	80 bf c9 00 00
	00 00		 cmp	 BYTE PTR [edi+201], 0
  00258	8b 75 08	 mov	 esi, DWORD PTR _p_pIGraphInfo$[ebp]
  0025b	75 2b		 jne	 SHORT $LN17@OnApply

; 307  : 		{
; 308  : 			IDoubleList *pICalCndOrg = p_pIGraphInfo->GetCommonCalculateConditionList();

  0025d	8b 06		 mov	 eax, DWORD PTR [esi]
  0025f	8b ce		 mov	 ecx, esi
  00261	ff 50 10	 call	 DWORD PTR [eax+16]
  00264	89 45 08	 mov	 DWORD PTR _pICalCndOrg$1$[ebp], eax

; 309  : 			if( pICalCndOrg)

  00267	85 c0		 test	 eax, eax
  00269	74 1d		 je	 SHORT $LN17@OnApply

; 310  : 			{
; 311  : 				CBaseDialog::m_bDoCalculate = !DoesEqualDoubleList( pICalCndOrg, pICalCnd);

  0026b	53		 push	 ebx
  0026c	50		 push	 eax
  0026d	8b cf		 mov	 ecx, edi
  0026f	e8 00 00 00 00	 call	 ?DoesEqualDoubleList@CBaseDialog@@IBEHPAUIDoubleList135914@@0@Z ; CBaseDialog::DoesEqualDoubleList
  00274	85 c0		 test	 eax, eax
  00276	0f 94 c1	 sete	 cl
  00279	88 8f c9 00 00
	00		 mov	 BYTE PTR [edi+201], cl

; 312  : 				pICalCndOrg->Release();

  0027f	8b 4d 08	 mov	 ecx, DWORD PTR _pICalCndOrg$1$[ebp]
  00282	51		 push	 ecx
  00283	8b 01		 mov	 eax, DWORD PTR [ecx]
  00285	ff 50 08	 call	 DWORD PTR [eax+8]
$LN17@OnApply:

; 313  : 			}
; 314  : 		}
; 315  : 		
; 316  : 		pICalCnd->Release();

  00288	8b 03		 mov	 eax, DWORD PTR [ebx]
  0028a	53		 push	 ebx
  0028b	ff 50 08	 call	 DWORD PTR [eax+8]

; 317  : 
; 318  : 		p_pIGraphInfo->GetCopyDataFrom(m_pIGraphInfo);

  0028e	8b 06		 mov	 eax, DWORD PTR [esi]
  00290	8b ce		 mov	 ecx, esi
  00292	ff b7 c4 00 00
	00		 push	 DWORD PTR [edi+196]
  00298	ff 90 c0 00 00
	00		 call	 DWORD PTR [eax+192]

; 319  : 
; 320  : 		m_pIChartOCX->ReCalculateIndicator();

  0029e	8b 8f b0 00 00
	00		 mov	 ecx, DWORD PTR [edi+176]
  002a4	8b 01		 mov	 eax, DWORD PTR [ecx]
  002a6	ff 90 10 02 00
	00		 call	 DWORD PTR [eax+528]

; 321  : 	}

  002ac	eb 10		 jmp	 SHORT $LN4@OnApply
$LN3@OnApply:

; 322  : 	else
; 323  : 		p_pIGraphInfo->GetCopyDataFrom(m_pIGraphInfo);

  002ae	8b 03		 mov	 eax, DWORD PTR [ebx]
  002b0	8b cb		 mov	 ecx, ebx
  002b2	ff b7 c4 00 00
	00		 push	 DWORD PTR [edi+196]
  002b8	ff 90 c0 00 00
	00		 call	 DWORD PTR [eax+192]
$LN4@OnApply:

; 325  : 	return TRUE;

  002be	be 01 00 00 00	 mov	 esi, 1
$LN25@OnApply:
; File D:\git\src\IBK\IBK_DRFN\ProjSrc\SrcChartEx\ChartAddIn\ChartEnvSetupDlgAddIn\Include_AddIn_135914\I135914\_IString.h

; 45   : 		if( m_pIStrData)

  002c3	8b 45 dc	 mov	 eax, DWORD PTR _szGraphName$[ebp+4]
  002c6	c6 45 fc 04	 mov	 BYTE PTR __$EHRec$[ebp+8], 4
  002ca	85 c0		 test	 eax, eax
  002cc	74 06		 je	 SHORT $LN43@OnApply

; 46   : 		{
; 47   : 			m_pIStrData->Release();

  002ce	8b 08		 mov	 ecx, DWORD PTR [eax]
  002d0	50		 push	 eax
  002d1	ff 51 08	 call	 DWORD PTR [ecx+8]
$LN43@OnApply:
; File D:\git\src\IBK\IBK_DRFN\ProjSrc\SrcChartEx\ChartAddIn\ChartEnvSetupDlgAddIn\ChartEnvSetupDlgAddIn\Setting_Special_Type_C.cpp

; 325  : 	return TRUE;

  002d4	8d 4d e8	 lea	 ecx, DWORD PTR _strPacketType$[ebp]
  002d7	ff 15 00 00 00
	00		 call	 DWORD PTR __imp_??1?$CStringT@DV?$StrTraitMFC_DLL@DV?$ChTraitsCRT@D@ATL@@@@@ATL@@QAE@XZ
  002dd	8b c6		 mov	 eax, esi

; 326  : }

  002df	8b 4d f4	 mov	 ecx, DWORD PTR __$EHRec$[ebp]
  002e2	64 89 0d 00 00
	00 00		 mov	 DWORD PTR fs:0, ecx
  002e9	59		 pop	 ecx
  002ea	5f		 pop	 edi
  002eb	5e		 pop	 esi
  002ec	5b		 pop	 ebx
  002ed	8b e5		 mov	 esp, ebp
  002ef	5d		 pop	 ebp
  002f0	c2 04 00	 ret	 4
_TEXT	ENDS
;	COMDAT text$x
text$x	SEGMENT
__unwindfunclet$?OnApply@CSetting_Special_Type_C@@UAEHPAUIGraphInfo135914@@@Z$0:
  00000	8d 4d e8	 lea	 ecx, DWORD PTR _strPacketType$[ebp]
  00003	ff 25 00 00 00
	00		 jmp	 DWORD PTR __imp_??1?$CStringT@DV?$StrTraitMFC_DLL@DV?$ChTraitsCRT@D@ATL@@@@@ATL@@QAE@XZ
__unwindfunclet$?OnApply@CSetting_Special_Type_C@@UAEHPAUIGraphInfo135914@@@Z$1:
  00009	8d 4d d8	 lea	 ecx, DWORD PTR _szGraphName$[ebp]
  0000c	e9 00 00 00 00	 jmp	 ??1ILPCSTR135914@@QAE@XZ ; ILPCSTR135914::~ILPCSTR135914
__unwindfunclet$?OnApply@CSetting_Special_Type_C@@UAEHPAUIGraphInfo135914@@@Z$3:
  00011	8d 4d f0	 lea	 ecx, DWORD PTR _strOutput$4[ebp]
  00014	ff 25 00 00 00
	00		 jmp	 DWORD PTR __imp_??1?$CStringT@DV?$StrTraitMFC_DLL@DV?$ChTraitsCRT@D@ATL@@@@@ATL@@QAE@XZ
__unwindfunclet$?OnApply@CSetting_Special_Type_C@@UAEHPAUIGraphInfo135914@@@Z$4:
  0001a	8b 4d e4	 mov	 ecx, DWORD PTR $T3[ebp]
  0001d	ff 25 00 00 00
	00		 jmp	 DWORD PTR __imp_??1?$CStringT@DV?$StrTraitMFC_DLL@DV?$ChTraitsCRT@D@ATL@@@@@ATL@@QAE@XZ
  00023	cc		 int	 3
  00024	cc		 int	 3
  00025	cc		 int	 3
  00026	cc		 int	 3
  00027	cc		 int	 3
__ehhandler$?OnApply@CSetting_Special_Type_C@@UAEHPAUIGraphInfo135914@@@Z:
  00028	90		 npad	 1
  00029	90		 npad	 1
  0002a	8b 54 24 08	 mov	 edx, DWORD PTR [esp+8]
  0002e	8d 42 0c	 lea	 eax, DWORD PTR [edx+12]
  00031	8b 4a cc	 mov	 ecx, DWORD PTR [edx-52]
  00034	33 c8		 xor	 ecx, eax
  00036	e8 00 00 00 00	 call	 @__security_check_cookie@4
  0003b	b8 00 00 00 00	 mov	 eax, OFFSET __ehfuncinfo$?OnApply@CSetting_Special_Type_C@@UAEHPAUIGraphInfo135914@@@Z
  00040	e9 00 00 00 00	 jmp	 ___CxxFrameHandler3
text$x	ENDS
?OnApply@CSetting_Special_Type_C@@UAEHPAUIGraphInfo135914@@@Z ENDP ; CSetting_Special_Type_C::OnApply
; Function compile flags: /Ogtp
; File D:\git\src\IBK\IBK_DRFN\ProjSrc\SrcChartEx\ChartAddIn\ChartEnvSetupDlgAddIn\ChartEnvSetupDlgAddIn\Setting_Special_Type_C.cpp
; File C:\Program Files (x86)\Microsoft Visual Studio\2019\Community\VC\Tools\MSVC\14.29.30133\atlmfc\include\afxwin2.inl
; File D:\git\src\IBK\IBK_DRFN\ProjSrc\SrcChartEx\ChartAddIn\ChartEnvSetupDlgAddIn\ChartEnvSetupDlgAddIn\Setting_Special_Type_C.cpp
; File C:\Program Files (x86)\Microsoft Visual Studio\2019\Community\VC\Tools\MSVC\14.29.30133\atlmfc\include\afxwin2.inl
; File D:\git\src\IBK\IBK_DRFN\ProjSrc\SrcChartEx\ChartAddIn\ChartEnvSetupDlgAddIn\ChartEnvSetupDlgAddIn\Setting_Special_Type_C.cpp
; File D:\git\src\IBK\IBK_DRFN\ProjSrc\SrcChartEx\ChartAddIn\ChartEnvSetupDlgAddIn\Include_AddIn_135914\I135914\_IString.h
; File D:\git\src\IBK\IBK_DRFN\ProjSrc\SrcChartEx\ChartAddIn\ChartEnvSetupDlgAddIn\ChartEnvSetupDlgAddIn\Setting_Special_Type_C.cpp
; File C:\Program Files (x86)\Microsoft Visual Studio\2019\Community\VC\Tools\MSVC\14.29.30133\atlmfc\include\atlsimpstr.h
; File D:\git\src\IBK\IBK_DRFN\ProjSrc\SrcChartEx\ChartAddIn\ChartEnvSetupDlgAddIn\ChartEnvSetupDlgAddIn\Setting_Special_Type_C.cpp
; File C:\Program Files (x86)\Microsoft Visual Studio\2019\Community\VC\Tools\MSVC\14.29.30133\atlmfc\include\atlsimpstr.h
; File D:\git\src\IBK\IBK_DRFN\ProjSrc\SrcChartEx\ChartAddIn\ChartEnvSetupDlgAddIn\ChartEnvSetupDlgAddIn\Setting_Special_Type_C.cpp
; File D:\git\src\IBK\IBK_DRFN\ProjSrc\SrcChartEx\ChartAddIn\ChartEnvSetupDlgAddIn\Include_AddIn_135914\I135914\_IString.h
; File D:\git\src\IBK\IBK_DRFN\ProjSrc\SrcChartEx\ChartAddIn\ChartEnvSetupDlgAddIn\ChartEnvSetupDlgAddIn\Setting_Special_Type_C.cpp
;	COMDAT ?Initial@CSetting_Special_Type_C@@UAEXPAUIGraphInfo135914@@@Z
_TEXT	SEGMENT
_szGraphName$ = -44					; size = 8
_dData$2 = -36						; size = 8
_psnCnd$3 = -28						; size = 4
_nPoint$1$ = -24					; size = 4
$T4 = -24						; size = 4
$T5 = -24						; size = 4
_strPoint$6 = -20					; size = 4
_strPacketType$ = -16					; size = 4
__$EHRec$ = -12						; size = 12
_strValue$7 = 8						; size = 4
_strData$8 = 8						; size = 4
_p_pIGraphInfo$ = 8					; size = 4
?Initial@CSetting_Special_Type_C@@UAEXPAUIGraphInfo135914@@@Z PROC ; CSetting_Special_Type_C::Initial, COMDAT
; _this$ = ecx

; 90   : {

  00000	55		 push	 ebp
  00001	8b ec		 mov	 ebp, esp
  00003	6a ff		 push	 -1
  00005	68 00 00 00 00	 push	 __ehhandler$?Initial@CSetting_Special_Type_C@@UAEXPAUIGraphInfo135914@@@Z
  0000a	64 a1 00 00 00
	00		 mov	 eax, DWORD PTR fs:0
  00010	50		 push	 eax
  00011	83 ec 20	 sub	 esp, 32			; 00000020H
  00014	53		 push	 ebx
  00015	56		 push	 esi
  00016	57		 push	 edi
  00017	a1 00 00 00 00	 mov	 eax, DWORD PTR ___security_cookie
  0001c	33 c5		 xor	 eax, ebp
  0001e	50		 push	 eax
  0001f	8d 45 f4	 lea	 eax, DWORD PTR __$EHRec$[ebp]
  00022	64 a3 00 00 00
	00		 mov	 DWORD PTR fs:0, eax
  00028	8b f9		 mov	 edi, ecx

; 91   : 	if( m_pIGraphInfo)

  0002a	8b 8f c4 00 00
	00		 mov	 ecx, DWORD PTR [edi+196]
  00030	85 c9		 test	 ecx, ecx
  00032	74 17		 je	 SHORT $LN2@Initial

; 92   : 	{
; 93   : 		OnApply( m_pIGraphInfo);

  00034	8b 07		 mov	 eax, DWORD PTR [edi]
  00036	51		 push	 ecx
  00037	8b cf		 mov	 ecx, edi
  00039	ff 90 98 01 00
	00		 call	 DWORD PTR [eax+408]

; 94   : 		m_pIGraphInfo->Release();

  0003f	8b 87 c4 00 00
	00		 mov	 eax, DWORD PTR [edi+196]
  00045	50		 push	 eax
  00046	8b 08		 mov	 ecx, DWORD PTR [eax]
  00048	ff 51 08	 call	 DWORD PTR [ecx+8]
$LN2@Initial:

; 95   : 	}
; 96   : 	m_pIGraphInfo = p_pIGraphInfo;

  0004b	8b 4d 08	 mov	 ecx, DWORD PTR _p_pIGraphInfo$[ebp]
  0004e	89 8f c4 00 00
	00		 mov	 DWORD PTR [edi+196], ecx

; 97   : 	if( m_pIGraphInfo) m_pIGraphInfo->AddRef();

  00054	85 c9		 test	 ecx, ecx
  00056	0f 84 5e 02 00
	00		 je	 $LN3@Initial
  0005c	8b 01		 mov	 eax, DWORD PTR [ecx]
  0005e	51		 push	 ecx
  0005f	ff 50 04	 call	 DWORD PTR [eax+4]

; 98   : 	else return;
; 99   : 
; 100  : 	m_nSubGraphIndex = 0;
; 101  : 
; 102  : 	m_btnUp.SetColor( m_pIGraphInfo->GetSubGraphColor( m_nSubGraphIndex, 1));

  00062	8b 8f c4 00 00
	00		 mov	 ecx, DWORD PTR [edi+196]
  00068	c7 87 34 03 00
	00 00 00 00 00	 mov	 DWORD PTR [edi+820], 0
  00072	6a 01		 push	 1
  00074	6a 00		 push	 0
  00076	8b 01		 mov	 eax, DWORD PTR [ecx]
  00078	ff 50 64	 call	 DWORD PTR [eax+100]
  0007b	89 45 e8	 mov	 DWORD PTR $T5[ebp], eax
  0007e	8d 8f f8 00 00
	00		 lea	 ecx, DWORD PTR [edi+248]
  00084	8d 45 e8	 lea	 eax, DWORD PTR $T5[ebp]
  00087	50		 push	 eax
  00088	e8 00 00 00 00	 call	 ?SetColor@CColorButton@@QAEXABK@Z ; CColorButton::SetColor
; File C:\Program Files (x86)\Microsoft Visual Studio\2019\Community\VC\Tools\MSVC\14.29.30133\atlmfc\include\afxwin2.inl

; 114  : 	{ ASSERT(::IsWindow(m_hWnd)); ::InvalidateRect(m_hWnd, NULL, bErase); }

  0008d	8b 35 00 00 00
	00		 mov	 esi, DWORD PTR __imp__InvalidateRect@12
  00093	6a 01		 push	 1
  00095	6a 00		 push	 0
  00097	ff b7 18 01 00
	00		 push	 DWORD PTR [edi+280]
  0009d	ff d6		 call	 esi
; File D:\git\src\IBK\IBK_DRFN\ProjSrc\SrcChartEx\ChartAddIn\ChartEnvSetupDlgAddIn\ChartEnvSetupDlgAddIn\Setting_Special_Type_C.cpp

; 105  : 	m_btnDown.SetColor( m_pIGraphInfo->GetSubGraphColor( m_nSubGraphIndex, 3));

  0009f	8b 8f c4 00 00
	00		 mov	 ecx, DWORD PTR [edi+196]
  000a5	6a 03		 push	 3
  000a7	ff b7 34 03 00
	00		 push	 DWORD PTR [edi+820]
  000ad	8b 01		 mov	 eax, DWORD PTR [ecx]
  000af	ff 50 64	 call	 DWORD PTR [eax+100]
  000b2	89 45 e8	 mov	 DWORD PTR $T4[ebp], eax
  000b5	8d 8f 80 01 00
	00		 lea	 ecx, DWORD PTR [edi+384]
  000bb	8d 45 e8	 lea	 eax, DWORD PTR $T4[ebp]
  000be	50		 push	 eax
  000bf	e8 00 00 00 00	 call	 ?SetColor@CColorButton@@QAEXABK@Z ; CColorButton::SetColor
; File C:\Program Files (x86)\Microsoft Visual Studio\2019\Community\VC\Tools\MSVC\14.29.30133\atlmfc\include\afxwin2.inl

; 114  : 	{ ASSERT(::IsWindow(m_hWnd)); ::InvalidateRect(m_hWnd, NULL, bErase); }

  000c4	6a 01		 push	 1
  000c6	6a 00		 push	 0
  000c8	ff b7 a0 01 00
	00		 push	 DWORD PTR [edi+416]
  000ce	ff d6		 call	 esi
; File D:\git\src\IBK\IBK_DRFN\ProjSrc\SrcChartEx\ChartAddIn\ChartEnvSetupDlgAddIn\ChartEnvSetupDlgAddIn\Setting_Special_Type_C.cpp

; 111  : 	CString strPacketType = GetPacketType();

  000d0	8d 45 f0	 lea	 eax, DWORD PTR _strPacketType$[ebp]
  000d3	8b cf		 mov	 ecx, edi
  000d5	50		 push	 eax
  000d6	e8 00 00 00 00	 call	 ?GetPacketType@CBaseDialog@@QAE?AV?$CStringT@DV?$StrTraitMFC_DLL@DV?$ChTraitsCRT@D@ATL@@@@@ATL@@XZ ; CBaseDialog::GetPacketType

; 115  : 	ILPCSTR szGraphName = m_pIGraphInfo->GetIndicatorNameString();

  000db	8b 8f c4 00 00
	00		 mov	 ecx, DWORD PTR [edi+196]
  000e1	c7 45 fc 00 00
	00 00		 mov	 DWORD PTR __$EHRec$[ebp+8], 0
  000e8	8b 01		 mov	 eax, DWORD PTR [ecx]
  000ea	ff 90 a4 00 00
	00		 call	 DWORD PTR [eax+164]
; File D:\git\src\IBK\IBK_DRFN\ProjSrc\SrcChartEx\ChartAddIn\ChartEnvSetupDlgAddIn\Include_AddIn_135914\I135914\_IString.h

; 39   : 		m_pIStrData = p_pIString;	// Do not AddRef(). Because It must be Return Value.

  000f0	8b d8		 mov	 ebx, eax
  000f2	89 5d d8	 mov	 DWORD PTR _szGraphName$[ebp+4], ebx

; 40   : 		if( m_pIStrData) m_szData = m_pIStrData->GetData();

  000f5	85 db		 test	 ebx, ebx
  000f7	74 0b		 je	 SHORT $LN23@Initial
  000f9	8b 13		 mov	 edx, DWORD PTR [ebx]
  000fb	8b cb		 mov	 ecx, ebx
  000fd	ff 52 10	 call	 DWORD PTR [edx+16]
  00100	8b c8		 mov	 ecx, eax
  00102	eb 02		 jmp	 SHORT $LN39@Initial
$LN23@Initial:

; 41   : 		else m_szData = NULL;

  00104	33 c9		 xor	 ecx, ecx
$LN39@Initial:
; File D:\git\src\IBK\IBK_DRFN\ProjSrc\SrcChartEx\ChartAddIn\ChartEnvSetupDlgAddIn\ChartEnvSetupDlgAddIn\Setting_Special_Type_C.cpp

; 115  : 	ILPCSTR szGraphName = m_pIGraphInfo->GetIndicatorNameString();

  00106	89 4d d4	 mov	 DWORD PTR _szGraphName$[ebp], ecx

; 116  : 	if( !strcmp( szGraphName, _MTEXT( C2_RENKO_CHART )))

  00109	a1 54 00 00 00	 mov	 eax, DWORD PTR ?g_iMetaTable@@3VIMetaTable@@A+84
  0010e	c6 45 fc 01	 mov	 BYTE PTR __$EHRec$[ebp+8], 1
  00112	8b 80 9c 04 00
	00		 mov	 eax, DWORD PTR [eax+1180]
$LL34@Initial:
  00118	8a 11		 mov	 dl, BYTE PTR [ecx]
  0011a	3a 10		 cmp	 dl, BYTE PTR [eax]
  0011c	75 1a		 jne	 SHORT $LN35@Initial
  0011e	84 d2		 test	 dl, dl
  00120	74 12		 je	 SHORT $LN36@Initial
  00122	8a 51 01	 mov	 dl, BYTE PTR [ecx+1]
  00125	3a 50 01	 cmp	 dl, BYTE PTR [eax+1]
  00128	75 0e		 jne	 SHORT $LN35@Initial
  0012a	83 c1 02	 add	 ecx, 2
  0012d	83 c0 02	 add	 eax, 2
  00130	84 d2		 test	 dl, dl
  00132	75 e4		 jne	 SHORT $LL34@Initial
$LN36@Initial:
  00134	33 c0		 xor	 eax, eax
  00136	eb 05		 jmp	 SHORT $LN37@Initial
$LN35@Initial:
  00138	1b c0		 sbb	 eax, eax
  0013a	83 c8 01	 or	 eax, 1
$LN37@Initial:
  0013d	8b cf		 mov	 ecx, edi
  0013f	85 c0		 test	 eax, eax
  00141	0f 85 2b 01 00
	00		 jne	 $LN5@Initial

; 117  : 	{
; 118  : 		GetDlgItem( IDC_STATIC_BLOCKCHANGE)->ShowWindow(SW_SHOW);

  00147	6a 05		 push	 5
  00149	68 1a 18 00 00	 push	 6170			; 0000181aH
  0014e	e8 00 00 00 00	 call	 ?GetDlgItem@CWnd@@QBEPAV1@H@Z ; CWnd::GetDlgItem
  00153	8b c8		 mov	 ecx, eax
  00155	e8 00 00 00 00	 call	 ?ShowWindow@CWnd@@QAEHH@Z ; CWnd::ShowWindow

; 119  : 		GetDlgItem( IDC_EDIT_BLOCKCHANGE)->ShowWindow(SW_SHOW);

  0015a	6a 05		 push	 5
  0015c	68 19 18 00 00	 push	 6169			; 00001819H
  00161	8b cf		 mov	 ecx, edi
  00163	e8 00 00 00 00	 call	 ?GetDlgItem@CWnd@@QBEPAV1@H@Z ; CWnd::GetDlgItem
  00168	8b c8		 mov	 ecx, eax
  0016a	e8 00 00 00 00	 call	 ?ShowWindow@CWnd@@QAEHH@Z ; CWnd::ShowWindow

; 120  : 
; 121  : 		IDoubleList *pICalCnd = m_pIGraphInfo->GetCommonCalculateConditionList();

  0016f	8b 8f c4 00 00
	00		 mov	 ecx, DWORD PTR [edi+196]
  00175	8b 01		 mov	 eax, DWORD PTR [ecx]
  00177	ff 50 10	 call	 DWORD PTR [eax+16]
  0017a	8b f0		 mov	 esi, eax

; 122  : 		if(pICalCnd)

  0017c	85 f6		 test	 esi, esi
  0017e	0f 84 e6 00 00
	00		 je	 $LN10@Initial

; 123  : 		{
; 124  : 			POSITION psnCnd = pICalCnd->GetHeadPosition();

  00184	8b 16		 mov	 edx, DWORD PTR [esi]
  00186	8b ce		 mov	 ecx, esi
  00188	ff 52 34	 call	 DWORD PTR [edx+52]
  0018b	89 45 e4	 mov	 DWORD PTR _psnCnd$3[ebp], eax

; 125  : 			if( psnCnd)

  0018e	85 c0		 test	 eax, eax
  00190	0f 84 d4 00 00
	00		 je	 $LN10@Initial

; 126  : 			{
; 127  : 				double dData = 0;
; 128  : 				pICalCnd->GetNext( psnCnd, dData);

  00196	8b 06		 mov	 eax, DWORD PTR [esi]
  00198	8d 4d dc	 lea	 ecx, DWORD PTR _dData$2[ebp]
  0019b	51		 push	 ecx
  0019c	8d 4d e4	 lea	 ecx, DWORD PTR _psnCnd$3[ebp]
  0019f	0f 57 c0	 xorps	 xmm0, xmm0
  001a2	51		 push	 ecx
  001a3	8b ce		 mov	 ecx, esi
  001a5	f2 0f 11 45 dc	 movsd	 QWORD PTR _dData$2[ebp], xmm0
  001aa	ff 50 3c	 call	 DWORD PTR [eax+60]

; 129  : 
; 130  : 				// 20081028     . >>
; 131  : 				//m_strBlockSize.Format("%.1f",dData);
; 132  : 				if(CDataConversion::IsBaseFormat(strPacketType))

  001ad	8d 45 f0	 lea	 eax, DWORD PTR _strPacketType$[ebp]
  001b0	50		 push	 eax
  001b1	e8 00 00 00 00	 call	 ?IsBaseFormat@CDataConversion@@SA_NABV?$CStringT@DV?$StrTraitMFC_DLL@DV?$ChTraitsCRT@D@ATL@@@@@ATL@@@Z ; CDataConversion::IsBaseFormat
  001b6	83 c4 04	 add	 esp, 4
  001b9	84 c0		 test	 al, al
  001bb	8d 45 f0	 lea	 eax, DWORD PTR _strPacketType$[ebp]
  001be	50		 push	 eax
  001bf	74 26		 je	 SHORT $LN9@Initial

; 133  : 				{
; 134  : 					//  ...   .
; 135  : 					CString strData = CDataConversion::GetStringThousandFormat(dData, strPacketType);

  001c1	8d 45 dc	 lea	 eax, DWORD PTR _dData$2[ebp]
  001c4	50		 push	 eax
  001c5	8d 45 08	 lea	 eax, DWORD PTR _strData$8[ebp]
  001c8	50		 push	 eax
  001c9	e8 00 00 00 00	 call	 ?GetStringThousandFormat@CDataConversion@@SA?AV?$CStringT@DV?$StrTraitMFC_DLL@DV?$ChTraitsCRT@D@ATL@@@@@ATL@@ABNABV23@@Z ; CDataConversion::GetStringThousandFormat
  001ce	83 c4 0c	 add	 esp, 12			; 0000000cH

; 136  : 					m_strBlockChange = strData;

  001d1	8d 45 08	 lea	 eax, DWORD PTR _strData$8[ebp]
  001d4	c6 45 fc 02	 mov	 BYTE PTR __$EHRec$[ebp+8], 2
  001d8	50		 push	 eax
  001d9	8d 8f 30 03 00
	00		 lea	 ecx, DWORD PTR [edi+816]
  001df	ff 15 00 00 00
	00		 call	 DWORD PTR __imp_??4?$CStringT@DV?$StrTraitMFC_DLL@DV?$ChTraitsCRT@D@ATL@@@@@ATL@@QAEAAV01@ABV01@@Z

; 137  : 				}

  001e5	eb 76		 jmp	 SHORT $LN40@Initial
$LN9@Initial:

; 138  : 				else
; 139  : 				{
; 140  : 					//   ...
; 141  : 
; 142  : 					//    .
; 143  : 					CString strValue = strPacketType;

  001e7	8d 4d 08	 lea	 ecx, DWORD PTR _strValue$7[ebp]
  001ea	ff 15 00 00 00
	00		 call	 DWORD PTR __imp_??0?$CStringT@DV?$StrTraitMFC_DLL@DV?$ChTraitsCRT@D@ATL@@@@@ATL@@QAE@ABV01@@Z

; 144  : 					strValue.Remove('%');

  001f0	6a 25		 push	 37			; 00000025H
  001f2	8d 4d 08	 lea	 ecx, DWORD PTR _strValue$7[ebp]
  001f5	c6 45 fc 03	 mov	 BYTE PTR __$EHRec$[ebp+8], 3
  001f9	ff 15 00 00 00
	00		 call	 DWORD PTR __imp_?Remove@?$CStringT@DV?$StrTraitMFC_DLL@DV?$ChTraitsCRT@D@ATL@@@@@ATL@@QAEHD@Z

; 145  : 
; 146  : 					int nPoint=0;
; 147  : 					int nPos = strValue.Find('.');

  001ff	6a 00		 push	 0
  00201	6a 2e		 push	 46			; 0000002eH
  00203	8d 4d 08	 lea	 ecx, DWORD PTR _strValue$7[ebp]
  00206	c7 45 e8 00 00
	00 00		 mov	 DWORD PTR _nPoint$1$[ebp], 0
  0020d	ff 15 00 00 00
	00		 call	 DWORD PTR __imp_?Find@?$CStringT@DV?$StrTraitMFC_DLL@DV?$ChTraitsCRT@D@ATL@@@@@ATL@@QBEHDH@Z

; 148  : 					if(nPos >= 0)

  00213	85 c0		 test	 eax, eax
  00215	78 21		 js	 SHORT $LN11@Initial

; 149  : 					{
; 150  : 						CString strPoint = strValue.Mid(nPos+1);

  00217	40		 inc	 eax
  00218	8d 4d 08	 lea	 ecx, DWORD PTR _strValue$7[ebp]
  0021b	50		 push	 eax
  0021c	8d 45 ec	 lea	 eax, DWORD PTR _strPoint$6[ebp]
  0021f	50		 push	 eax
  00220	ff 15 00 00 00
	00		 call	 DWORD PTR __imp_?Mid@?$CStringT@DV?$StrTraitMFC_DLL@DV?$ChTraitsCRT@D@ATL@@@@@ATL@@QBE?AV12@H@Z
; File C:\Program Files (x86)\Microsoft Visual Studio\2019\Community\VC\Tools\MSVC\14.29.30133\atlmfc\include\atlsimpstr.h

; 519  : 		return( GetData()->nDataLength );

  00226	8b 45 ec	 mov	 eax, DWORD PTR _strPoint$6[ebp]
; File D:\git\src\IBK\IBK_DRFN\ProjSrc\SrcChartEx\ChartAddIn\ChartEnvSetupDlgAddIn\ChartEnvSetupDlgAddIn\Setting_Special_Type_C.cpp

; 152  : 					}

  00229	8d 4d ec	 lea	 ecx, DWORD PTR _strPoint$6[ebp]
; File C:\Program Files (x86)\Microsoft Visual Studio\2019\Community\VC\Tools\MSVC\14.29.30133\atlmfc\include\atlsimpstr.h

; 519  : 		return( GetData()->nDataLength );

  0022c	8b 40 f4	 mov	 eax, DWORD PTR [eax-12]
  0022f	89 45 e8	 mov	 DWORD PTR _nPoint$1$[ebp], eax
; File D:\git\src\IBK\IBK_DRFN\ProjSrc\SrcChartEx\ChartAddIn\ChartEnvSetupDlgAddIn\ChartEnvSetupDlgAddIn\Setting_Special_Type_C.cpp

; 152  : 					}

  00232	ff 15 00 00 00
	00		 call	 DWORD PTR __imp_??1?$CStringT@DV?$StrTraitMFC_DLL@DV?$ChTraitsCRT@D@ATL@@@@@ATL@@QAE@XZ
$LN11@Initial:

; 153  : 
; 154  : 					m_strBlockChange.Format("%.*f", nPoint, dData);

  00238	f2 0f 10 45 dc	 movsd	 xmm0, QWORD PTR _dData$2[ebp]
  0023d	8d 87 30 03 00
	00		 lea	 eax, DWORD PTR [edi+816]
  00243	83 ec 08	 sub	 esp, 8
  00246	f2 0f 11 04 24	 movsd	 QWORD PTR [esp], xmm0
  0024b	ff 75 e8	 push	 DWORD PTR _nPoint$1$[ebp]
  0024e	68 00 00 00 00	 push	 OFFSET ??_C@_04HGGMHPIM@?$CF?4?$CKf@
  00253	50		 push	 eax
  00254	ff 15 00 00 00
	00		 call	 DWORD PTR __imp_?Format@?$CStringT@DV?$StrTraitMFC_DLL@DV?$ChTraitsCRT@D@ATL@@@@@ATL@@QAAXPBDZZ
  0025a	83 c4 14	 add	 esp, 20			; 00000014H
$LN40@Initial:

; 155  : 				}
; 156  : 				//m_strBlockChange.Format("%.0f",dData);
; 157  : 				// 20081028  <<
; 158  : 			}
; 159  : 		}
; 160  : 		pICalCnd->Release();

  0025d	8d 4d 08	 lea	 ecx, DWORD PTR _strValue$7[ebp]
  00260	c6 45 fc 01	 mov	 BYTE PTR __$EHRec$[ebp+8], 1
  00264	ff 15 00 00 00
	00		 call	 DWORD PTR __imp_??1?$CStringT@DV?$StrTraitMFC_DLL@DV?$ChTraitsCRT@D@ATL@@@@@ATL@@QAE@XZ
$LN10@Initial:
  0026a	8b 06		 mov	 eax, DWORD PTR [esi]
  0026c	56		 push	 esi
  0026d	ff 50 08	 call	 DWORD PTR [eax+8]

; 161  : 	}

  00270	eb 28		 jmp	 SHORT $LN6@Initial
$LN5@Initial:

; 162  : 	else
; 163  : 	{
; 164  : 		GetDlgItem( IDC_STATIC_BLOCKCHANGE)->ShowWindow(	SW_HIDE);

  00272	6a 00		 push	 0
  00274	68 1a 18 00 00	 push	 6170			; 0000181aH
  00279	e8 00 00 00 00	 call	 ?GetDlgItem@CWnd@@QBEPAV1@H@Z ; CWnd::GetDlgItem
  0027e	8b c8		 mov	 ecx, eax
  00280	e8 00 00 00 00	 call	 ?ShowWindow@CWnd@@QAEHH@Z ; CWnd::ShowWindow

; 165  : 		GetDlgItem( IDC_EDIT_BLOCKCHANGE)->ShowWindow(		SW_HIDE);

  00285	6a 00		 push	 0
  00287	68 19 18 00 00	 push	 6169			; 00001819H
  0028c	8b cf		 mov	 ecx, edi
  0028e	e8 00 00 00 00	 call	 ?GetDlgItem@CWnd@@QBEPAV1@H@Z ; CWnd::GetDlgItem
  00293	8b c8		 mov	 ecx, eax
  00295	e8 00 00 00 00	 call	 ?ShowWindow@CWnd@@QAEHH@Z ; CWnd::ShowWindow
$LN6@Initial:

; 166  : 	}
; 167  : 
; 168  : 	UpdateData(FALSE);

  0029a	6a 00		 push	 0
  0029c	8b cf		 mov	 ecx, edi
  0029e	e8 00 00 00 00	 call	 ?UpdateData@CWnd@@QAEHH@Z ; CWnd::UpdateData
; File D:\git\src\IBK\IBK_DRFN\ProjSrc\SrcChartEx\ChartAddIn\ChartEnvSetupDlgAddIn\Include_AddIn_135914\I135914\_IString.h

; 44   : 	{

  002a3	c6 45 fc 04	 mov	 BYTE PTR __$EHRec$[ebp+8], 4

; 45   : 		if( m_pIStrData)

  002a7	85 db		 test	 ebx, ebx
  002a9	74 06		 je	 SHORT $LN31@Initial

; 46   : 		{
; 47   : 			m_pIStrData->Release();

  002ab	8b 03		 mov	 eax, DWORD PTR [ebx]
  002ad	53		 push	 ebx
  002ae	ff 50 08	 call	 DWORD PTR [eax+8]
$LN31@Initial:
; File D:\git\src\IBK\IBK_DRFN\ProjSrc\SrcChartEx\ChartAddIn\ChartEnvSetupDlgAddIn\ChartEnvSetupDlgAddIn\Setting_Special_Type_C.cpp

; 169  : }

  002b1	8d 4d f0	 lea	 ecx, DWORD PTR _strPacketType$[ebp]
  002b4	ff 15 00 00 00
	00		 call	 DWORD PTR __imp_??1?$CStringT@DV?$StrTraitMFC_DLL@DV?$ChTraitsCRT@D@ATL@@@@@ATL@@QAE@XZ
$LN3@Initial:
  002ba	8b 4d f4	 mov	 ecx, DWORD PTR __$EHRec$[ebp]
  002bd	64 89 0d 00 00
	00 00		 mov	 DWORD PTR fs:0, ecx
  002c4	59		 pop	 ecx
  002c5	5f		 pop	 edi
  002c6	5e		 pop	 esi
  002c7	5b		 pop	 ebx
  002c8	8b e5		 mov	 esp, ebp
  002ca	5d		 pop	 ebp
  002cb	c2 04 00	 ret	 4
_TEXT	ENDS
;	COMDAT text$x
text$x	SEGMENT
__unwindfunclet$?Initial@CSetting_Special_Type_C@@UAEXPAUIGraphInfo135914@@@Z$0:
  00000	8d 4d f0	 lea	 ecx, DWORD PTR _strPacketType$[ebp]
  00003	ff 25 00 00 00
	00		 jmp	 DWORD PTR __imp_??1?$CStringT@DV?$StrTraitMFC_DLL@DV?$ChTraitsCRT@D@ATL@@@@@ATL@@QAE@XZ
__unwindfunclet$?Initial@CSetting_Special_Type_C@@UAEXPAUIGraphInfo135914@@@Z$1:
  00009	8d 4d d4	 lea	 ecx, DWORD PTR _szGraphName$[ebp]
  0000c	e9 00 00 00 00	 jmp	 ??1ILPCSTR135914@@QAE@XZ ; ILPCSTR135914::~ILPCSTR135914
__unwindfunclet$?Initial@CSetting_Special_Type_C@@UAEXPAUIGraphInfo135914@@@Z$2:
  00011	8d 4d 08	 lea	 ecx, DWORD PTR _strData$8[ebp]
  00014	ff 25 00 00 00
	00		 jmp	 DWORD PTR __imp_??1?$CStringT@DV?$StrTraitMFC_DLL@DV?$ChTraitsCRT@D@ATL@@@@@ATL@@QAE@XZ
__unwindfunclet$?Initial@CSetting_Special_Type_C@@UAEXPAUIGraphInfo135914@@@Z$3:
  0001a	8d 4d 08	 lea	 ecx, DWORD PTR _strValue$7[ebp]
  0001d	ff 25 00 00 00
	00		 jmp	 DWORD PTR __imp_??1?$CStringT@DV?$StrTraitMFC_DLL@DV?$ChTraitsCRT@D@ATL@@@@@ATL@@QAE@XZ
  00023	cc		 int	 3
  00024	cc		 int	 3
  00025	cc		 int	 3
  00026	cc		 int	 3
  00027	cc		 int	 3
__ehhandler$?Initial@CSetting_Special_Type_C@@UAEXPAUIGraphInfo135914@@@Z:
  00028	90		 npad	 1
  00029	90		 npad	 1
  0002a	8b 54 24 08	 mov	 edx, DWORD PTR [esp+8]
  0002e	8d 42 0c	 lea	 eax, DWORD PTR [edx+12]
  00031	8b 4a d0	 mov	 ecx, DWORD PTR [edx-48]
  00034	33 c8		 xor	 ecx, eax
  00036	e8 00 00 00 00	 call	 @__security_check_cookie@4
  0003b	b8 00 00 00 00	 mov	 eax, OFFSET __ehfuncinfo$?Initial@CSetting_Special_Type_C@@UAEXPAUIGraphInfo135914@@@Z
  00040	e9 00 00 00 00	 jmp	 ___CxxFrameHandler3
text$x	ENDS
?Initial@CSetting_Special_Type_C@@UAEXPAUIGraphInfo135914@@@Z ENDP ; CSetting_Special_Type_C::Initial
; Function compile flags: /Ogtp
; File D:\git\src\IBK\IBK_DRFN\ProjSrc\SrcChartEx\ChartAddIn\ChartEnvSetupDlgAddIn\ChartEnvSetupDlgAddIn\Setting_Special_Type_C.cpp
;	COMDAT ?DoDataExchange@CSetting_Special_Type_C@@MAEXPAVCDataExchange@@@Z
_TEXT	SEGMENT
_pDX$ = 8						; size = 4
?DoDataExchange@CSetting_Special_Type_C@@MAEXPAVCDataExchange@@@Z PROC ; CSetting_Special_Type_C::DoDataExchange, COMDAT
; _this$ = ecx

; 43   : {

  00000	55		 push	 ebp
  00001	8b ec		 mov	 ebp, esp
  00003	56		 push	 esi

; 44   : 	CDialog::DoDataExchange(pDX);
; 45   : 	//{{AFX_DATA_MAP(CSetting_Special_Type_C)
; 46   : 	DDX_Control(pDX, IDC_BTN_UP, m_btnUp);

  00004	8b 75 08	 mov	 esi, DWORD PTR _pDX$[ebp]
  00007	57		 push	 edi
  00008	8b f9		 mov	 edi, ecx
  0000a	8d 87 f8 00 00
	00		 lea	 eax, DWORD PTR [edi+248]
  00010	50		 push	 eax
  00011	68 94 17 00 00	 push	 6036			; 00001794H
  00016	56		 push	 esi
  00017	e8 00 00 00 00	 call	 ?DDX_Control@@YGXPAVCDataExchange@@HAAVCWnd@@@Z ; DDX_Control

; 47   : 	DDX_Control(pDX, IDC_BTN_DOWN, m_btnDown);

  0001c	8d 87 80 01 00
	00		 lea	 eax, DWORD PTR [edi+384]
  00022	50		 push	 eax
  00023	68 95 17 00 00	 push	 6037			; 00001795H
  00028	56		 push	 esi
  00029	e8 00 00 00 00	 call	 ?DDX_Control@@YGXPAVCDataExchange@@HAAVCWnd@@@Z ; DDX_Control

; 48   : 	DDX_Control(pDX, IDC_SPIN1, m_spnCond1);

  0002e	8d 87 08 02 00
	00		 lea	 eax, DWORD PTR [edi+520]
  00034	50		 push	 eax
  00035	68 ec 03 00 00	 push	 1004			; 000003ecH
  0003a	56		 push	 esi
  0003b	e8 00 00 00 00	 call	 ?DDX_Control@@YGXPAVCDataExchange@@HAAVCWnd@@@Z ; DDX_Control

; 49   : 	DDX_Control(pDX, IDC_EDIT1, m_edtCond1);

  00040	8d 87 88 02 00
	00		 lea	 eax, DWORD PTR [edi+648]
  00046	50		 push	 eax
  00047	68 0d 18 00 00	 push	 6157			; 0000180dH
  0004c	56		 push	 esi
  0004d	e8 00 00 00 00	 call	 ?DDX_Control@@YGXPAVCDataExchange@@HAAVCWnd@@@Z ; DDX_Control

; 50   : 	DDX_Text(pDX, IDC_EDIT_BLOCKCHANGE, m_strBlockChange);

  00052	8d 87 30 03 00
	00		 lea	 eax, DWORD PTR [edi+816]
  00058	50		 push	 eax
  00059	68 19 18 00 00	 push	 6169			; 00001819H
  0005e	56		 push	 esi
  0005f	e8 00 00 00 00	 call	 ?DDX_Text@@YGXPAVCDataExchange@@HAAV?$CStringT@DV?$StrTraitMFC_DLL@DV?$ChTraitsCRT@D@ATL@@@@@ATL@@@Z ; DDX_Text
  00064	5f		 pop	 edi
  00065	5e		 pop	 esi

; 51   : 	//}}AFX_DATA_MAP
; 52   : //	DDX_Control(pDX, IDC_THICKNESS, m_cmbThickness);
; 53   : }

  00066	5d		 pop	 ebp
  00067	c2 04 00	 ret	 4
?DoDataExchange@CSetting_Special_Type_C@@MAEXPAVCDataExchange@@@Z ENDP ; CSetting_Special_Type_C::DoDataExchange
_TEXT	ENDS
; Function compile flags: /Ogtp
; File D:\git\src\IBK\IBK_DRFN\ProjSrc\SrcChartEx\ChartAddIn\ChartEnvSetupDlgAddIn\ChartEnvSetupDlgAddIn\Setting_Special_Type_C.cpp
; File D:\git\src\IBK\IBK_DRFN\ProjSrc\SrcChartEx\ChartAddIn\ChartEnvSetupDlgAddIn\ChartEnvSetupDlgAddIn\DlgEnvSetUpAll.h
; File D:\git\src\IBK\IBK_DRFN\ProjSrc\SrcChartEx\ChartAddIn\ChartEnvSetupDlgAddIn\ChartEnvSetupDlgAddIn\Setting_Special_Type_C.cpp
; File D:\git\src\IBK\IBK_DRFN\ProjSrc\SrcChartEx\ChartAddIn\ChartEnvSetupDlgAddIn\ChartEnvSetupDlgAddIn\GraphSetting.h
; File D:\git\src\IBK\IBK_DRFN\ProjSrc\SrcChartEx\ChartAddIn\ChartEnvSetupDlgAddIn\ChartEnvSetupDlgAddIn\Setting_Special_Type_C.cpp
; File D:\git\src\IBK\IBK_DRFN\ProjSrc\SrcChartEx\ChartAddIn\ChartEnvSetupDlgAddIn\ChartEnvSetupDlgAddIn\DlgEnvSetUpAll.h
; File D:\git\src\IBK\IBK_DRFN\ProjSrc\SrcChartEx\ChartAddIn\ChartEnvSetupDlgAddIn\ChartEnvSetupDlgAddIn\Setting_Special_Type_C.cpp
; File D:\git\src\IBK\IBK_DRFN\ProjSrc\SrcChartEx\ChartAddIn\ChartEnvSetupDlgAddIn\ChartEnvSetupDlgAddIn\GraphSetting.h
; File D:\git\src\IBK\IBK_DRFN\ProjSrc\SrcChartEx\ChartAddIn\ChartEnvSetupDlgAddIn\ChartEnvSetupDlgAddIn\Setting_Special_Type_C.cpp
;	COMDAT ?PreTranslateMessage@CSetting_Special_Type_C@@UAEHPAUtagMSG@@@Z
_TEXT	SEGMENT
_pMsg$ = 8						; size = 4
?PreTranslateMessage@CSetting_Special_Type_C@@UAEHPAUtagMSG@@@Z PROC ; CSetting_Special_Type_C::PreTranslateMessage, COMDAT
; _this$ = ecx

; 329  : {

  00000	55		 push	 ebp
  00001	8b ec		 mov	 ebp, esp
  00003	56		 push	 esi
  00004	57		 push	 edi

; 330  : 	// TODO: Add your specialized code here and/or call the base class
; 331  : 	if(pMsg->message == WM_KEYDOWN)

  00005	8b 7d 08	 mov	 edi, DWORD PTR _pMsg$[ebp]
  00008	8b f1		 mov	 esi, ecx
  0000a	81 7f 04 00 01
	00 00		 cmp	 DWORD PTR [edi+4], 256	; 00000100H
  00011	75 62		 jne	 SHORT $LN10@PreTransla

; 332  : 	{
; 333  : 		if(pMsg->wParam == VK_RETURN)

  00013	83 7f 08 0d	 cmp	 DWORD PTR [edi+8], 13	; 0000000dH
  00017	75 22		 jne	 SHORT $LN6@PreTransla

; 334  : 		{
; 335  : 			if( m_pParentWnd != NULL )

  00019	8b 8e 94 00 00
	00		 mov	 ecx, DWORD PTR [esi+148]
  0001f	85 c9		 test	 ecx, ecx
  00021	74 18		 je	 SHORT $LN6@PreTransla

; 336  : 			{
; 337  : 				if( m_pTopWnd != NULL )

  00023	8b 96 d0 00 00
	00		 mov	 edx, DWORD PTR [esi+208]
  00029	85 d2		 test	 edx, edx
  0002b	74 06		 je	 SHORT $LN5@PreTransla
; File D:\git\src\IBK\IBK_DRFN\ProjSrc\SrcChartEx\ChartAddIn\ChartEnvSetupDlgAddIn\ChartEnvSetupDlgAddIn\DlgEnvSetUpAll.h

; 60   : 	void OK( void )			{ OnOK(); };

  0002d	8b 02		 mov	 eax, DWORD PTR [edx]
  0002f	8b ca		 mov	 ecx, edx
; File D:\git\src\IBK\IBK_DRFN\ProjSrc\SrcChartEx\ChartAddIn\ChartEnvSetupDlgAddIn\ChartEnvSetupDlgAddIn\Setting_Special_Type_C.cpp

; 338  : 					( (CDlgEnvSetUpAll *)m_pTopWnd)->OK();

  00031	eb 02		 jmp	 SHORT $LN20@PreTransla
$LN5@PreTransla:
; File D:\git\src\IBK\IBK_DRFN\ProjSrc\SrcChartEx\ChartAddIn\ChartEnvSetupDlgAddIn\ChartEnvSetupDlgAddIn\GraphSetting.h

; 36   : 	void OK( void )			{ OnOK(); };

  00033	8b 01		 mov	 eax, DWORD PTR [ecx]
$LN20@PreTransla:
; File D:\git\src\IBK\IBK_DRFN\ProjSrc\SrcChartEx\ChartAddIn\ChartEnvSetupDlgAddIn\ChartEnvSetupDlgAddIn\Setting_Special_Type_C.cpp

; 346  : 		if( pMsg->wParam == VK_ESCAPE )

  00035	ff 90 88 01 00
	00		 call	 DWORD PTR [eax+392]
$LN6@PreTransla:
  0003b	83 7f 08 1b	 cmp	 DWORD PTR [edi+8], 27	; 0000001bH
  0003f	75 34		 jne	 SHORT $LN10@PreTransla

; 347  : 		{
; 348  : 			if( m_pParentWnd != NULL )

  00041	8b 8e 94 00 00
	00		 mov	 ecx, DWORD PTR [esi+148]
  00047	85 c9		 test	 ecx, ecx
  00049	74 2a		 je	 SHORT $LN10@PreTransla

; 349  : 			{
; 350  : 				if( m_pTopWnd != NULL )

  0004b	8b 96 d0 00 00
	00		 mov	 edx, DWORD PTR [esi+208]
  00051	85 d2		 test	 edx, edx
  00053	74 18		 je	 SHORT $LN9@PreTransla
; File D:\git\src\IBK\IBK_DRFN\ProjSrc\SrcChartEx\ChartAddIn\ChartEnvSetupDlgAddIn\ChartEnvSetupDlgAddIn\DlgEnvSetUpAll.h

; 61   : 	void Cancel( void )		{ OnCancel(); };

  00055	8b 02		 mov	 eax, DWORD PTR [edx]
  00057	8b ca		 mov	 ecx, edx
; File D:\git\src\IBK\IBK_DRFN\ProjSrc\SrcChartEx\ChartAddIn\ChartEnvSetupDlgAddIn\ChartEnvSetupDlgAddIn\Setting_Special_Type_C.cpp

; 359  : 	return CBaseDialog::PreTranslateMessage(pMsg);

  00059	ff 90 8c 01 00
	00		 call	 DWORD PTR [eax+396]
  0005f	57		 push	 edi
  00060	8b ce		 mov	 ecx, esi
  00062	e8 00 00 00 00	 call	 ?PreTranslateMessage@CDialog@@UAEHPAUtagMSG@@@Z ; CDialog::PreTranslateMessage
  00067	5f		 pop	 edi
  00068	5e		 pop	 esi

; 360  : }

  00069	5d		 pop	 ebp
  0006a	c2 04 00	 ret	 4
$LN9@PreTransla:
; File D:\git\src\IBK\IBK_DRFN\ProjSrc\SrcChartEx\ChartAddIn\ChartEnvSetupDlgAddIn\ChartEnvSetupDlgAddIn\GraphSetting.h

; 37   : 	void Cancel( void )		{ OnCancel(); };

  0006d	8b 01		 mov	 eax, DWORD PTR [ecx]
; File D:\git\src\IBK\IBK_DRFN\ProjSrc\SrcChartEx\ChartAddIn\ChartEnvSetupDlgAddIn\ChartEnvSetupDlgAddIn\Setting_Special_Type_C.cpp

; 359  : 	return CBaseDialog::PreTranslateMessage(pMsg);

  0006f	ff 90 8c 01 00
	00		 call	 DWORD PTR [eax+396]
$LN10@PreTransla:
  00075	57		 push	 edi
  00076	8b ce		 mov	 ecx, esi
  00078	e8 00 00 00 00	 call	 ?PreTranslateMessage@CDialog@@UAEHPAUtagMSG@@@Z ; CDialog::PreTranslateMessage
  0007d	5f		 pop	 edi
  0007e	5e		 pop	 esi

; 360  : }

  0007f	5d		 pop	 ebp
  00080	c2 04 00	 ret	 4
?PreTranslateMessage@CSetting_Special_Type_C@@UAEHPAUtagMSG@@@Z ENDP ; CSetting_Special_Type_C::PreTranslateMessage
_TEXT	ENDS
; Function compile flags: /Ogtp
; File D:\git\src\IBK\IBK_DRFN\ProjSrc\SrcChartEx\ChartAddIn\ChartEnvSetupDlgAddIn\ChartEnvSetupDlgAddIn\Setting_Special_Type_C.cpp
;	COMDAT ??0CSetting_Special_Type_C@@QAE@PAUIChartOCX135914@@PAVCWnd@@1@Z
_TEXT	SEGMENT
_this$ = -16						; size = 4
__$EHRec$ = -12						; size = 12
_p_pIChartOCX$ = 8					; size = 4
_pParent$ = 12						; size = 4
_pTopWnd$ = 16						; size = 4
??0CSetting_Special_Type_C@@QAE@PAUIChartOCX135914@@PAVCWnd@@1@Z PROC ; CSetting_Special_Type_C::CSetting_Special_Type_C, COMDAT
; _this$ = ecx

; 33   : {

  00000	55		 push	 ebp
  00001	8b ec		 mov	 ebp, esp
  00003	6a ff		 push	 -1
  00005	68 00 00 00 00	 push	 __ehhandler$??0CSetting_Special_Type_C@@QAE@PAUIChartOCX135914@@PAVCWnd@@1@Z
  0000a	64 a1 00 00 00
	00		 mov	 eax, DWORD PTR fs:0
  00010	50		 push	 eax
  00011	51		 push	 ecx
  00012	56		 push	 esi
  00013	57		 push	 edi
  00014	a1 00 00 00 00	 mov	 eax, DWORD PTR ___security_cookie
  00019	33 c5		 xor	 eax, ebp
  0001b	50		 push	 eax
  0001c	8d 45 f4	 lea	 eax, DWORD PTR __$EHRec$[ebp]
  0001f	64 a3 00 00 00
	00		 mov	 DWORD PTR fs:0, eax
  00025	8b f9		 mov	 edi, ecx
  00027	89 7d f0	 mov	 DWORD PTR _this$[ebp], edi

; 32   : 	: CBaseDialog(CSetting_Special_Type_C::IDD, pParent, p_pIChartOCX, pTopWnd)

  0002a	ff 75 10	 push	 DWORD PTR _pTopWnd$[ebp]
  0002d	ff 75 08	 push	 DWORD PTR _p_pIChartOCX$[ebp]
  00030	ff 75 0c	 push	 DWORD PTR _pParent$[ebp]
  00033	68 8a 17 00 00	 push	 6026			; 0000178aH
  00038	e8 00 00 00 00	 call	 ??0CBaseDialog@@QAE@IPAVCWnd@@PAUIChartOCX135914@@0@Z ; CBaseDialog::CBaseDialog

; 33   : {

  0003d	8d 8f f8 00 00
	00		 lea	 ecx, DWORD PTR [edi+248]
  00043	c7 45 fc 00 00
	00 00		 mov	 DWORD PTR __$EHRec$[ebp+8], 0
  0004a	c7 07 00 00 00
	00		 mov	 DWORD PTR [edi], OFFSET ??_7CSetting_Special_Type_C@@6B@
  00050	e8 00 00 00 00	 call	 ??0CColorButton@@QAE@XZ	; CColorButton::CColorButton
  00055	8d 8f 80 01 00
	00		 lea	 ecx, DWORD PTR [edi+384]
  0005b	c6 45 fc 01	 mov	 BYTE PTR __$EHRec$[ebp+8], 1
  0005f	e8 00 00 00 00	 call	 ??0CColorButton@@QAE@XZ	; CColorButton::CColorButton
  00064	8d 8f 08 02 00
	00		 lea	 ecx, DWORD PTR [edi+520]
  0006a	c6 45 fc 02	 mov	 BYTE PTR __$EHRec$[ebp+8], 2
  0006e	e8 00 00 00 00	 call	 ??0CNumSpinCtrl@@QAE@XZ	; CNumSpinCtrl::CNumSpinCtrl
  00073	8d 8f 88 02 00
	00		 lea	 ecx, DWORD PTR [edi+648]
  00079	c6 45 fc 03	 mov	 BYTE PTR __$EHRec$[ebp+8], 3
  0007d	e8 00 00 00 00	 call	 ??0CNumEdit@@QAE@XZ	; CNumEdit::CNumEdit
  00082	8d 8f 30 03 00
	00		 lea	 ecx, DWORD PTR [edi+816]
  00088	ff 15 00 00 00
	00		 call	 DWORD PTR __imp_??0?$CStringT@DV?$StrTraitMFC_DLL@DV?$ChTraitsCRT@D@ATL@@@@@ATL@@QAE@XZ

; 34   : 	//{{AFX_DATA_INIT(CSetting_Special_Type_C)
; 35   : 	m_strBlockChange = _T("");

  0008e	68 00 00 00 00	 push	 OFFSET ??_C@_00CNPNBAHC@@
  00093	8d 8f 30 03 00
	00		 lea	 ecx, DWORD PTR [edi+816]
  00099	c6 45 fc 05	 mov	 BYTE PTR __$EHRec$[ebp+8], 5
  0009d	ff 15 00 00 00
	00		 call	 DWORD PTR __imp_??4?$CStringT@DV?$StrTraitMFC_DLL@DV?$ChTraitsCRT@D@ATL@@@@@ATL@@QAEAAV01@PBD@Z

; 36   : 	//}}AFX_DATA_INIT
; 37   : 
; 38   : 	m_nSubGraphIndex = -1;

  000a3	c7 87 34 03 00
	00 ff ff ff ff	 mov	 DWORD PTR [edi+820], -1

; 39   : }

  000ad	8b c7		 mov	 eax, edi
  000af	8b 4d f4	 mov	 ecx, DWORD PTR __$EHRec$[ebp]
  000b2	64 89 0d 00 00
	00 00		 mov	 DWORD PTR fs:0, ecx
  000b9	59		 pop	 ecx
  000ba	5f		 pop	 edi
  000bb	5e		 pop	 esi
  000bc	8b e5		 mov	 esp, ebp
  000be	5d		 pop	 ebp
  000bf	c2 0c 00	 ret	 12			; 0000000cH
_TEXT	ENDS
;	COMDAT text$x
text$x	SEGMENT
__unwindfunclet$??0CSetting_Special_Type_C@@QAE@PAUIChartOCX135914@@PAVCWnd@@1@Z$0:
  00000	8b 4d f0	 mov	 ecx, DWORD PTR _this$[ebp]
  00003	e9 00 00 00 00	 jmp	 ??1CBaseDialog@@UAE@XZ	; CBaseDialog::~CBaseDialog
__unwindfunclet$??0CSetting_Special_Type_C@@QAE@PAUIChartOCX135914@@PAVCWnd@@1@Z$1:
  00008	8b 4d f0	 mov	 ecx, DWORD PTR _this$[ebp]
  0000b	81 c1 f8 00 00
	00		 add	 ecx, 248		; 000000f8H
  00011	e9 00 00 00 00	 jmp	 ??1CColorButton@@UAE@XZ	; CColorButton::~CColorButton
__unwindfunclet$??0CSetting_Special_Type_C@@QAE@PAUIChartOCX135914@@PAVCWnd@@1@Z$2:
  00016	8b 4d f0	 mov	 ecx, DWORD PTR _this$[ebp]
  00019	81 c1 80 01 00
	00		 add	 ecx, 384		; 00000180H
  0001f	e9 00 00 00 00	 jmp	 ??1CColorButton@@UAE@XZ	; CColorButton::~CColorButton
__unwindfunclet$??0CSetting_Special_Type_C@@QAE@PAUIChartOCX135914@@PAVCWnd@@1@Z$3:
  00024	8b 4d f0	 mov	 ecx, DWORD PTR _this$[ebp]
  00027	81 c1 08 02 00
	00		 add	 ecx, 520		; 00000208H
  0002d	e9 00 00 00 00	 jmp	 ??1CNumSpinCtrl@@UAE@XZ	; CNumSpinCtrl::~CNumSpinCtrl
__unwindfunclet$??0CSetting_Special_Type_C@@QAE@PAUIChartOCX135914@@PAVCWnd@@1@Z$4:
  00032	8b 4d f0	 mov	 ecx, DWORD PTR _this$[ebp]
  00035	81 c1 88 02 00
	00		 add	 ecx, 648		; 00000288H
  0003b	e9 00 00 00 00	 jmp	 ??1CNumEdit@@UAE@XZ	; CNumEdit::~CNumEdit
__unwindfunclet$??0CSetting_Special_Type_C@@QAE@PAUIChartOCX135914@@PAVCWnd@@1@Z$5:
  00040	8b 4d f0	 mov	 ecx, DWORD PTR _this$[ebp]
  00043	81 c1 30 03 00
	00		 add	 ecx, 816		; 00000330H
  00049	ff 25 00 00 00
	00		 jmp	 DWORD PTR __imp_??1?$CStringT@DV?$StrTraitMFC_DLL@DV?$ChTraitsCRT@D@ATL@@@@@ATL@@QAE@XZ
  0004f	cc		 int	 3
  00050	cc		 int	 3
  00051	cc		 int	 3
  00052	cc		 int	 3
  00053	cc		 int	 3
__ehhandler$??0CSetting_Special_Type_C@@QAE@PAUIChartOCX135914@@PAVCWnd@@1@Z:
  00054	90		 npad	 1
  00055	90		 npad	 1
  00056	8b 54 24 08	 mov	 edx, DWORD PTR [esp+8]
  0005a	8d 42 0c	 lea	 eax, DWORD PTR [edx+12]
  0005d	8b 4a f0	 mov	 ecx, DWORD PTR [edx-16]
  00060	33 c8		 xor	 ecx, eax
  00062	e8 00 00 00 00	 call	 @__security_check_cookie@4
  00067	b8 00 00 00 00	 mov	 eax, OFFSET __ehfuncinfo$??0CSetting_Special_Type_C@@QAE@PAUIChartOCX135914@@PAVCWnd@@1@Z
  0006c	e9 00 00 00 00	 jmp	 ___CxxFrameHandler3
text$x	ENDS
??0CSetting_Special_Type_C@@QAE@PAUIChartOCX135914@@PAVCWnd@@1@Z ENDP ; CSetting_Special_Type_C::CSetting_Special_Type_C
; Function compile flags: /Ogtp
; File D:\git\src\IBK\IBK_DRFN\ProjSrc\SrcChartEx\ChartAddIn\ChartEnvSetupDlgAddIn\Include_AddIn_135914\I135914\_IString.h
;	COMDAT ??1ILPCSTR135914@@QAE@XZ
_TEXT	SEGMENT
__$EHRec$ = -12						; size = 12
??1ILPCSTR135914@@QAE@XZ PROC				; ILPCSTR135914::~ILPCSTR135914, COMDAT
; _this$ = ecx

; 44   : 	{

  00000	55		 push	 ebp
  00001	8b ec		 mov	 ebp, esp
  00003	6a ff		 push	 -1
  00005	68 00 00 00 00	 push	 __ehhandler$??1ILPCSTR135914@@QAE@XZ
  0000a	64 a1 00 00 00
	00		 mov	 eax, DWORD PTR fs:0
  00010	50		 push	 eax
  00011	56		 push	 esi
  00012	a1 00 00 00 00	 mov	 eax, DWORD PTR ___security_cookie
  00017	33 c5		 xor	 eax, ebp
  00019	50		 push	 eax
  0001a	8d 45 f4	 lea	 eax, DWORD PTR __$EHRec$[ebp]
  0001d	64 a3 00 00 00
	00		 mov	 DWORD PTR fs:0, eax
  00023	8b f1		 mov	 esi, ecx

; 45   : 		if( m_pIStrData)

  00025	8b 4e 04	 mov	 ecx, DWORD PTR [esi+4]
  00028	85 c9		 test	 ecx, ecx
  0002a	74 13		 je	 SHORT $LN2@ILPCSTR135

; 46   : 		{
; 47   : 			m_pIStrData->Release();

  0002c	8b 01		 mov	 eax, DWORD PTR [ecx]
  0002e	51		 push	 ecx
  0002f	ff 50 08	 call	 DWORD PTR [eax+8]

; 48   : 			m_pIStrData = NULL;

  00032	c7 46 04 00 00
	00 00		 mov	 DWORD PTR [esi+4], 0

; 49   : 			m_szData = NULL;

  00039	c7 06 00 00 00
	00		 mov	 DWORD PTR [esi], 0
$LN2@ILPCSTR135:

; 50   : 		}
; 51   : 	}

  0003f	8b 4d f4	 mov	 ecx, DWORD PTR __$EHRec$[ebp]
  00042	64 89 0d 00 00
	00 00		 mov	 DWORD PTR fs:0, ecx
  00049	59		 pop	 ecx
  0004a	5e		 pop	 esi
  0004b	8b e5		 mov	 esp, ebp
  0004d	5d		 pop	 ebp
  0004e	c3		 ret	 0
  0004f	cc		 int	 3
  00050	cc		 int	 3
  00051	cc		 int	 3
  00052	cc		 int	 3
  00053	cc		 int	 3
_TEXT	ENDS
;	COMDAT text$x
text$x	SEGMENT
__ehhandler$??1ILPCSTR135914@@QAE@XZ:
  00000	90		 npad	 1
  00001	90		 npad	 1
  00002	8b 54 24 08	 mov	 edx, DWORD PTR [esp+8]
  00006	8d 42 0c	 lea	 eax, DWORD PTR [edx+12]
  00009	8b 4a f8	 mov	 ecx, DWORD PTR [edx-8]
  0000c	33 c8		 xor	 ecx, eax
  0000e	e8 00 00 00 00	 call	 @__security_check_cookie@4
  00013	b8 00 00 00 00	 mov	 eax, OFFSET __ehfuncinfo$??1ILPCSTR135914@@QAE@XZ
  00018	e9 00 00 00 00	 jmp	 ___CxxFrameHandler3
text$x	ENDS
??1ILPCSTR135914@@QAE@XZ ENDP				; ILPCSTR135914::~ILPCSTR135914
; Function compile flags: /Ogtp
; File C:\Program Files (x86)\Microsoft Visual Studio\2019\Community\VC\Tools\MSVC\14.29.30133\atlmfc\include\afxdlgs.h
;	COMDAT ??1CColorDialog@@UAE@XZ
_TEXT	SEGMENT
??1CColorDialog@@UAE@XZ PROC				; CColorDialog::~CColorDialog, COMDAT
; _this$ = ecx

; 110  :     virtual ~CCommonDialog() {};

  00000	c7 01 00 00 00
	00		 mov	 DWORD PTR [ecx], OFFSET ??_7CCommonDialog@@6B@
  00006	e9 00 00 00 00	 jmp	 ??1CDialog@@UAE@XZ	; CDialog::~CDialog
??1CColorDialog@@UAE@XZ ENDP				; CColorDialog::~CColorDialog
_TEXT	ENDS
; Function compile flags: /Ogtp
; File C:\Program Files (x86)\Microsoft Visual Studio\2019\Community\VC\Tools\MSVC\14.29.30133\atlmfc\include\afxdlgs.h
; File C:\Program Files (x86)\Microsoft Visual Studio\2019\Community\VC\Tools\MSVC\14.29.30133\atlmfc\include\afx.inl
;	COMDAT ??_GCCommonDialog@@UAEPAXI@Z
_TEXT	SEGMENT
___flags$ = 8						; size = 4
??_GCCommonDialog@@UAEPAXI@Z PROC			; CCommonDialog::`scalar deleting destructor', COMDAT
; _this$ = ecx
  00000	55		 push	 ebp
  00001	8b ec		 mov	 ebp, esp
; File C:\Program Files (x86)\Microsoft Visual Studio\2019\Community\VC\Tools\MSVC\14.29.30133\atlmfc\include\afxdlgs.h

; 110  :     virtual ~CCommonDialog() {};

  00003	56		 push	 esi
  00004	8b f1		 mov	 esi, ecx
  00006	c7 06 00 00 00
	00		 mov	 DWORD PTR [esi], OFFSET ??_7CCommonDialog@@6B@
  0000c	e8 00 00 00 00	 call	 ??1CDialog@@UAE@XZ	; CDialog::~CDialog
  00011	8b 45 08	 mov	 eax, DWORD PTR ___flags$[ebp]
  00014	a8 01		 test	 al, 1
  00016	74 22		 je	 SHORT $LN12@scalar
  00018	a8 04		 test	 al, 4
  0001a	75 10		 jne	 SHORT $LN3@scalar
; File C:\Program Files (x86)\Microsoft Visual Studio\2019\Community\VC\Tools\MSVC\14.29.30133\atlmfc\include\afx.inl

; 112  : 	{ ::operator delete(p); }

  0001c	56		 push	 esi
  0001d	e8 00 00 00 00	 call	 ??3@YAXPAX@Z		; operator delete
  00022	83 c4 04	 add	 esp, 4
  00025	8b c6		 mov	 eax, esi
  00027	5e		 pop	 esi
  00028	5d		 pop	 ebp
  00029	c2 04 00	 ret	 4
$LN3@scalar:
  0002c	68 a8 00 00 00	 push	 168			; 000000a8H
  00031	56		 push	 esi
  00032	e8 00 00 00 00	 call	 ?__global_delete@@YAXPAXI@Z ; __global_delete
  00037	83 c4 08	 add	 esp, 8
$LN12@scalar:
  0003a	8b c6		 mov	 eax, esi
  0003c	5e		 pop	 esi
  0003d	5d		 pop	 ebp
  0003e	c2 04 00	 ret	 4
??_GCCommonDialog@@UAEPAXI@Z ENDP			; CCommonDialog::`scalar deleting destructor'
_TEXT	ENDS
; Function compile flags: /Ogtp
; File C:\Program Files (x86)\Microsoft Visual Studio\2019\Community\VC\Tools\MSVC\14.29.30133\atlmfc\include\afxdlgs.h
;	COMDAT ??1CCommonDialog@@UAE@XZ
_TEXT	SEGMENT
??1CCommonDialog@@UAE@XZ PROC				; CCommonDialog::~CCommonDialog, COMDAT
; _this$ = ecx

; 110  :     virtual ~CCommonDialog() {};

  00000	c7 01 00 00 00
	00		 mov	 DWORD PTR [ecx], OFFSET ??_7CCommonDialog@@6B@
  00006	e9 00 00 00 00	 jmp	 ??1CDialog@@UAE@XZ	; CDialog::~CDialog
??1CCommonDialog@@UAE@XZ ENDP				; CCommonDialog::~CCommonDialog
_TEXT	ENDS
; Function compile flags: /Ogtp
; File C:\Program Files (x86)\Microsoft Visual Studio\2019\Community\VC\Tools\MSVC\14.29.30133\atlmfc\include\afxwin2.inl
;	COMDAT ?Create@CDialog@@UAEHIPAVCWnd@@@Z
_TEXT	SEGMENT
_nIDTemplate$ = 8					; size = 4
_pParentWnd$ = 12					; size = 4
?Create@CDialog@@UAEHIPAVCWnd@@@Z PROC			; CDialog::Create, COMDAT
; _this$ = ecx

; 585  : 	{ return CDialog::Create(ATL_MAKEINTRESOURCE(nIDTemplate), pParentWnd); }

  00000	55		 push	 ebp
  00001	8b ec		 mov	 ebp, esp
  00003	0f b7 45 08	 movzx	 eax, WORD PTR _nIDTemplate$[ebp]
  00007	89 45 08	 mov	 DWORD PTR _nIDTemplate$[ebp], eax
  0000a	5d		 pop	 ebp
  0000b	e9 00 00 00 00	 jmp	 ?Create@CDialog@@UAEHPBDPAVCWnd@@@Z ; CDialog::Create
?Create@CDialog@@UAEHIPAVCWnd@@@Z ENDP			; CDialog::Create
_TEXT	ENDS
; Function compile flags: /Ogtp
; File C:\Program Files (x86)\Microsoft Visual Studio\2019\Community\VC\Tools\MSVC\14.29.30133\atlmfc\include\afxwin2.inl
;	COMDAT ?EndModalState@CWnd@@UAEXXZ
_TEXT	SEGMENT
?EndModalState@CWnd@@UAEXXZ PROC			; CWnd::EndModalState, COMDAT
; _this$ = ecx

; 567  : 	{ ::EnableWindow(m_hWnd, TRUE); }

  00000	6a 01		 push	 1
  00002	ff 71 20	 push	 DWORD PTR [ecx+32]
  00005	ff 15 00 00 00
	00		 call	 DWORD PTR __imp__EnableWindow@8
  0000b	c3		 ret	 0
?EndModalState@CWnd@@UAEXXZ ENDP			; CWnd::EndModalState
_TEXT	ENDS
; Function compile flags: /Ogtp
; File C:\Program Files (x86)\Microsoft Visual Studio\2019\Community\VC\Tools\MSVC\14.29.30133\atlmfc\include\afxwin2.inl
;	COMDAT ?BeginModalState@CWnd@@UAEXXZ
_TEXT	SEGMENT
?BeginModalState@CWnd@@UAEXXZ PROC			; CWnd::BeginModalState, COMDAT
; _this$ = ecx

; 565  : 	{ ::EnableWindow(m_hWnd, FALSE); }

  00000	6a 00		 push	 0
  00002	ff 71 20	 push	 DWORD PTR [ecx+32]
  00005	ff 15 00 00 00
	00		 call	 DWORD PTR __imp__EnableWindow@8
  0000b	c3		 ret	 0
?BeginModalState@CWnd@@UAEXXZ ENDP			; CWnd::BeginModalState
_TEXT	ENDS
; Function compile flags: /Ogtp
; File C:\Program Files (x86)\Microsoft Visual Studio\2019\Community\VC\Tools\MSVC\14.29.30133\atlmfc\include\afxwin2.inl
;	COMDAT ?DoDataExchange@CWnd@@MAEXPAVCDataExchange@@@Z
_TEXT	SEGMENT
___formal$ = 8						; size = 4
?DoDataExchange@CWnd@@MAEXPAVCDataExchange@@@Z PROC	; CWnd::DoDataExchange, COMDAT
; _this$ = ecx

; 561  : 	{ } // default does nothing

  00000	c2 04 00	 ret	 4
?DoDataExchange@CWnd@@MAEXPAVCDataExchange@@@Z ENDP	; CWnd::DoDataExchange
_TEXT	ENDS
; Function compile flags: /Ogtp
; File C:\Program Files (x86)\Microsoft Visual Studio\2019\Community\VC\Tools\MSVC\14.29.30133\atlmfc\include\afx.inl
;	COMDAT ?Dump@CObject@@UBEXAAVCDumpContext@@@Z
_TEXT	SEGMENT
___formal$ = 8						; size = 4
?Dump@CObject@@UBEXAAVCDumpContext@@@Z PROC		; CObject::Dump, COMDAT
; _this$ = ecx

; 122  : 	{ /* no dumping in release builds */ }

  00000	c2 04 00	 ret	 4
?Dump@CObject@@UBEXAAVCDumpContext@@@Z ENDP		; CObject::Dump
_TEXT	ENDS
; Function compile flags: /Ogtp
; File C:\Program Files (x86)\Microsoft Visual Studio\2019\Community\VC\Tools\MSVC\14.29.30133\atlmfc\include\afx.inl
;	COMDAT ?AssertValid@CObject@@UBEXXZ
_TEXT	SEGMENT
?AssertValid@CObject@@UBEXXZ PROC			; CObject::AssertValid, COMDAT
; _this$ = ecx

; 120  : 	{ /* no asserts in release builds */ }

  00000	c2 00 00	 ret	 0
?AssertValid@CObject@@UBEXXZ ENDP			; CObject::AssertValid
_TEXT	ENDS
; Function compile flags: /Ogtp
; File C:\Program Files (x86)\Microsoft Visual Studio\2019\Community\VC\Tools\MSVC\14.29.30133\atlmfc\include\afx.inl
;	COMDAT ?Serialize@CObject@@UAEXAAVCArchive@@@Z
_TEXT	SEGMENT
___formal$ = 8						; size = 4
?Serialize@CObject@@UAEXAAVCArchive@@@Z PROC		; CObject::Serialize, COMDAT
; _this$ = ecx

; 106  : 	{ /* CObject does not serialize anything by default */ }

  00000	c2 04 00	 ret	 4
?Serialize@CObject@@UAEXAAVCArchive@@@Z ENDP		; CObject::Serialize
_TEXT	ENDS
; Function compile flags: /Ogtp
; File D:\git\src\IBK\IBK_DRFN\ProjSrc\SrcChartEx\ChartAddIn\ChartEnvSetupDlgAddIn\ChartEnvSetupDlgAddIn\Setting_Special_Type_C.cpp
;	COMDAT ?__empty_global_delete@@YAXPAXI@Z
_TEXT	SEGMENT
___formal$ = 8						; size = 4
___formal$ = 12						; size = 4
?__empty_global_delete@@YAXPAXI@Z PROC			; __empty_global_delete, COMDAT

  00000	c2 00 00	 ret	 0
?__empty_global_delete@@YAXPAXI@Z ENDP			; __empty_global_delete
_TEXT	ENDS
; Function compile flags: /Ogtp
; File D:\git\src\IBK\IBK_DRFN\ProjSrc\SrcChartEx\ChartAddIn\ChartEnvSetupDlgAddIn\ChartEnvSetupDlgAddIn\Setting_Special_Type_C.cpp
;	COMDAT ?__empty_global_delete@@YAXPAX@Z
_TEXT	SEGMENT
___formal$ = 8						; size = 4
?__empty_global_delete@@YAXPAX@Z PROC			; __empty_global_delete, COMDAT

  00000	c2 00 00	 ret	 0
?__empty_global_delete@@YAXPAX@Z ENDP			; __empty_global_delete
_TEXT	ENDS
END
