; Listing generated by Microsoft (R) Optimizing Compiler Version 19.29.30145.0 

	TITLE	D:\git\src\IBK\IBK_DRFN\#DRfn-CS\_Obj\ChartEnvSetupDlgAddIn\StdAfx.obj
	.686P
	.XMM
	include listing.inc
	.model	flat

INCLUDELIB MSVCRT
INCLUDELIB OLDNAMES

PUBLIC	___@@_PchSym_@00@UtrgUhixUrypUrypPwiumUKxwwiumRxhUPlyqUxszigvmehvgfkwotzwwrmUhgwzucOlyq@4B2008FD98C1DD4
PUBLIC	?_pAtlAutoThreadModule@ATL@@3PAUIAtlAutoThreadModule@1@A ; ATL::_pAtlAutoThreadModule
PUBLIC	??_R4CWin32Heap@ATL@@6B@			; ATL::CWin32Heap::`RTTI Complete Object Locator'
PUBLIC	??_R0?AVCWin32Heap@ATL@@@8			; ATL::CWin32Heap `RTTI Type Descriptor'
PUBLIC	??_R3CWin32Heap@ATL@@8				; ATL::CWin32Heap::`RTTI Class Hierarchy Descriptor'
PUBLIC	??_R2CWin32Heap@ATL@@8				; ATL::CWin32Heap::`RTTI Base Class Array'
PUBLIC	??_R1A@?0A@EA@CWin32Heap@ATL@@8			; ATL::CWin32Heap::`RTTI Base Class Descriptor at (0,-1,0,64)'
PUBLIC	??_R1A@?0A@EA@IAtlMemMgr@ATL@@8			; ATL::IAtlMemMgr::`RTTI Base Class Descriptor at (0,-1,0,64)'
PUBLIC	??_R0?AUIAtlMemMgr@ATL@@@8			; ATL::IAtlMemMgr `RTTI Type Descriptor'
PUBLIC	??_R3IAtlMemMgr@ATL@@8				; ATL::IAtlMemMgr::`RTTI Class Hierarchy Descriptor'
PUBLIC	??_R2IAtlMemMgr@ATL@@8				; ATL::IAtlMemMgr::`RTTI Base Class Array'
PUBLIC	??_R1A@?0A@EA@IAtlStringMgr@ATL@@8		; ATL::IAtlStringMgr::`RTTI Base Class Descriptor at (0,-1,0,64)'
PUBLIC	??_R0?AUIAtlStringMgr@ATL@@@8			; ATL::IAtlStringMgr `RTTI Type Descriptor'
PUBLIC	??_R3IAtlStringMgr@ATL@@8			; ATL::IAtlStringMgr::`RTTI Class Hierarchy Descriptor'
PUBLIC	??_R2IAtlStringMgr@ATL@@8			; ATL::IAtlStringMgr::`RTTI Base Class Array'
PUBLIC	??_R4CAtlStringMgr@ATL@@6B@			; ATL::CAtlStringMgr::`RTTI Complete Object Locator'
PUBLIC	??_R0?AVCAtlStringMgr@ATL@@@8			; ATL::CAtlStringMgr `RTTI Type Descriptor'
PUBLIC	??_R3CAtlStringMgr@ATL@@8			; ATL::CAtlStringMgr::`RTTI Class Hierarchy Descriptor'
PUBLIC	??_R2CAtlStringMgr@ATL@@8			; ATL::CAtlStringMgr::`RTTI Base Class Array'
PUBLIC	??_R1A@?0A@EA@CAtlStringMgr@ATL@@8		; ATL::CAtlStringMgr::`RTTI Base Class Descriptor at (0,-1,0,64)'
PUBLIC	?chDirSep@ATL@@3DB				; ATL::chDirSep
PUBLIC	?chRightBracket@ATL@@3DB			; ATL::chRightBracket
PUBLIC	?chLeftBracket@ATL@@3DB				; ATL::chLeftBracket
PUBLIC	?chQuote@ATL@@3DB				; ATL::chQuote
PUBLIC	?chEquals@ATL@@3DB				; ATL::chEquals
PUBLIC	?szStringVal@ATL@@3QBDB				; ATL::szStringVal
PUBLIC	??_C@_01CPLAODJH@S@				; `string'
PUBLIC	?multiszStringVal@ATL@@3QBDB			; ATL::multiszStringVal
PUBLIC	??_C@_01PLPBNMEI@M@				; `string'
PUBLIC	?szDwordVal@ATL@@3QBDB				; ATL::szDwordVal
PUBLIC	??_C@_01CKDDGHAB@D@				; `string'
PUBLIC	?szBinaryVal@ATL@@3QBDB				; ATL::szBinaryVal
PUBLIC	??_C@_01HMGJMAIH@B@				; `string'
PUBLIC	?szValToken@ATL@@3QBDB				; ATL::szValToken
PUBLIC	??_C@_03LAIAPFCB@Val@				; `string'
PUBLIC	?szForceRemove@ATL@@3QBDB			; ATL::szForceRemove
PUBLIC	??_C@_0M@DBGDLGLL@ForceRemove@			; `string'
PUBLIC	?szNoRemove@ATL@@3QBDB				; ATL::szNoRemove
PUBLIC	??_C@_08KAAPDIAN@NoRemove@			; `string'
PUBLIC	?szDelete@ATL@@3QBDB				; ATL::szDelete
PUBLIC	??_C@_06JBKGCNBB@Delete@			; `string'
PUBLIC	?m_bInitFailed@CAtlBaseModule@ATL@@2_NA		; ATL::CAtlBaseModule::m_bInitFailed
PUBLIC	_c_DwmMaxQueuedBuffers
PUBLIC	_c_DwmMaxMonitors
PUBLIC	_c_DwmMaxAdapters
PUBLIC	?szInvalidDateTime@ATL@@3QBDB			; ATL::szInvalidDateTime
PUBLIC	??_C@_0BB@KEKMKJPM@Invalid?5DateTime@		; `string'
PUBLIC	?szInvalidDateTimeSpan@ATL@@3QBDB		; ATL::szInvalidDateTimeSpan
PUBLIC	??_C@_0BF@GPPHKJFN@Invalid?5DateTimeSpan@	; `string'
PUBLIC	?Allocate@CWin32Heap@ATL@@UAEPAXI@Z		; ATL::CWin32Heap::Allocate
PUBLIC	?Free@CWin32Heap@ATL@@UAEXPAX@Z			; ATL::CWin32Heap::Free
PUBLIC	?Reallocate@CWin32Heap@ATL@@UAEPAXPAXI@Z	; ATL::CWin32Heap::Reallocate
PUBLIC	?GetSize@CWin32Heap@ATL@@UAEIPAX@Z		; ATL::CWin32Heap::GetSize
PUBLIC	??_7CWin32Heap@ATL@@6B@				; ATL::CWin32Heap::`vftable'
PUBLIC	??_GCWin32Heap@ATL@@UAEPAXI@Z			; ATL::CWin32Heap::`scalar deleting destructor'
PUBLIC	??_C@_0BA@MKMIKKJB@atlTraceGeneral@		; `string'
PUBLIC	??_C@_0M@DGPFJEBB@atlTraceCOM@			; `string'
PUBLIC	??_C@_0L@LHELAKBP@atlTraceQI@			; `string'
PUBLIC	??_C@_0BC@MALHFBAO@atlTraceRegistrar@		; `string'
PUBLIC	??_C@_0BB@ILPPDKFL@atlTraceRefcount@		; `string'
PUBLIC	??_C@_0BC@DGHHNKDC@atlTraceWindowing@		; `string'
PUBLIC	??_C@_0BB@GHKJKKIE@atlTraceControls@		; `string'
PUBLIC	??_C@_0BA@DKOAAGGM@atlTraceHosting@		; `string'
PUBLIC	??_C@_0BB@BEBMGMDO@atlTraceDBClient@		; `string'
PUBLIC	??_C@_0BD@KOADKDIA@atlTraceDBProvider@		; `string'
PUBLIC	??_C@_0P@LNEGBOLO@atlTraceSnapin@		; `string'
PUBLIC	??_C@_0BA@MCBFIDIC@atlTraceNotImpl@		; `string'
PUBLIC	??_C@_0BD@PJPCCAKP@atlTraceAllocation@		; `string'
PUBLIC	??_C@_0BC@PGMFNIFA@atlTraceException@		; `string'
PUBLIC	??_C@_0N@BNNILHBE@atlTraceTime@			; `string'
PUBLIC	??_C@_0O@MEOJAOKK@atlTraceCache@		; `string'
PUBLIC	??_C@_0BA@IDBKCKK@atlTraceStencil@		; `string'
PUBLIC	??_C@_0P@MBNHGHMI@atlTraceString@		; `string'
PUBLIC	??_C@_0M@IOBBMAHG@atlTraceMap@			; `string'
PUBLIC	??_C@_0N@FEAAACHD@atlTraceUtil@			; `string'
PUBLIC	??_C@_0BB@DNJDADMG@atlTraceSecurity@		; `string'
PUBLIC	?_AfxInitManaged@@YAHXZ				; _AfxInitManaged
PUBLIC	??_C@_0N@KLPNCFEE@atlTraceSync@			; `string'
PUBLIC	??_C@_0O@KHOBHOBJ@atlTraceISAPI@		; `string'
PUBLIC	_CLSID_Registrar
PUBLIC	_IID_IRegistrar
PUBLIC	_IID_IDocHostUIHandlerDispatch
PUBLIC	_IID_IAxWinHostWindow
PUBLIC	_IID_IAxWinHostWindowLic
PUBLIC	_IID_IAxWinAmbientDispatch
PUBLIC	?Allocate@CAtlStringMgr@ATL@@UAEPAUCStringData@2@HH@Z ; ATL::CAtlStringMgr::Allocate
PUBLIC	?Free@CAtlStringMgr@ATL@@UAEXPAUCStringData@2@@Z ; ATL::CAtlStringMgr::Free
PUBLIC	?Reallocate@CAtlStringMgr@ATL@@UAEPAUCStringData@2@PAU32@HH@Z ; ATL::CAtlStringMgr::Reallocate
PUBLIC	?GetNilString@CAtlStringMgr@ATL@@UAEPAUCStringData@2@XZ ; ATL::CAtlStringMgr::GetNilString
PUBLIC	?Clone@CAtlStringMgr@ATL@@UAEPAUIAtlStringMgr@2@XZ ; ATL::CAtlStringMgr::Clone
PUBLIC	??_7CAtlStringMgr@ATL@@6B@			; ATL::CAtlStringMgr::`vftable'
PUBLIC	??_GCAtlStringMgr@ATL@@UAEPAXI@Z		; ATL::CAtlStringMgr::`scalar deleting destructor'
PUBLIC	?strHeap@?1??GetInstance@CAtlStringMgr@ATL@@SAPAUIAtlStringMgr@3@XZ@4VCWin32Heap@3@A ; `ATL::CAtlStringMgr::GetInstance'::`2'::strHeap
PUBLIC	?$TSS0@?1??GetInstance@CAtlStringMgr@ATL@@SAPAUIAtlStringMgr@3@XZ@4HA ; `ATL::CAtlStringMgr::GetInstance'::`2'::$TSS0
PUBLIC	?strMgr@?1??GetInstance@CAtlStringMgr@ATL@@SAPAUIAtlStringMgr@3@XZ@4V23@A ; `ATL::CAtlStringMgr::GetInstance'::`2'::strMgr
PUBLIC	?$TSS1@?1??GetInstance@CAtlStringMgr@ATL@@SAPAUIAtlStringMgr@3@XZ@4HA ; `ATL::CAtlStringMgr::GetInstance'::`2'::$TSS1
PUBLIC	_IID_IAxWinAmbientDispatchEx
PUBLIC	_IID_IInternalConnection
PUBLIC	?CLSID_WinFormsControl@@3U_GUID@@B		; CLSID_WinFormsControl
PUBLIC	_LIBID_ATLLib
PUBLIC	___pobjMapEntryFirst
PUBLIC	___pobjMapEntryLast
PUBLIC	?_pPerfRegFunc@ATL@@3P6AJPAUHINSTANCE__@@@ZA	; ATL::_pPerfRegFunc
PUBLIC	?_pPerfUnRegFunc@ATL@@3P6AJXZA			; ATL::_pPerfUnRegFunc
PUBLIC	?_AtlRegisterPerUser@ATL@@3_NA			; ATL::_AtlRegisterPerUser
PUBLIC	__pIncludeInitManaged
PUBLIC	?_pAtlModule@ATL@@3PAVCAtlModule@1@A		; ATL::_pAtlModule
PUBLIC	?_pModule@ATL@@3PAVCComModule@1@A		; ATL::_pModule
EXTRN	__Init_thread_epoch:DWORD
EXTRN	?_AtlBaseModule@ATL@@3VCAtlBaseModule@1@A:BYTE	; ATL::_AtlBaseModule
EXTRN	??_ECWin32Heap@ATL@@UAEPAXI@Z:PROC		; ATL::CWin32Heap::`vector deleting destructor'
EXTRN	??_ECAtlStringMgr@ATL@@UAEPAXI@Z:PROC		; ATL::CAtlStringMgr::`vector deleting destructor'
EXTRN	??_7type_info@@6B@:QWORD			; type_info::`vftable'
EXTRN	___ImageBase:ZWORD
;	COMDAT ___@@_PchSym_@00@UtrgUhixUrypUrypPwiumUKxwwiumRxhUPlyqUxszigvmehvgfkwotzwwrmUhgwzucOlyq@4B2008FD98C1DD4
_BSS	SEGMENT
___@@_PchSym_@00@UtrgUhixUrypUrypPwiumUKxwwiumRxhUPlyqUxszigvmehvgfkwotzwwrmUhgwzucOlyq@4B2008FD98C1DD4 DD 01H DUP (?)
_BSS	ENDS
;	COMDAT ?_pAtlAutoThreadModule@ATL@@3PAUIAtlAutoThreadModule@1@A
_BSS	SEGMENT
?_pAtlAutoThreadModule@ATL@@3PAUIAtlAutoThreadModule@1@A DD 01H DUP (?) ; ATL::_pAtlAutoThreadModule
_BSS	ENDS
;	COMDAT ?m_bInitFailed@CAtlBaseModule@ATL@@2_NA
_BSS	SEGMENT
?m_bInitFailed@CAtlBaseModule@ATL@@2_NA DB 01H DUP (?)	; ATL::CAtlBaseModule::m_bInitFailed
_BSS	ENDS
;	COMDAT ?strHeap@?1??GetInstance@CAtlStringMgr@ATL@@SAPAUIAtlStringMgr@3@XZ@4VCWin32Heap@3@A
_BSS	SEGMENT
?strHeap@?1??GetInstance@CAtlStringMgr@ATL@@SAPAUIAtlStringMgr@3@XZ@4VCWin32Heap@3@A DB 0cH DUP (?) ; `ATL::CAtlStringMgr::GetInstance'::`2'::strHeap
_BSS	ENDS
;	COMDAT ?$TSS0@?1??GetInstance@CAtlStringMgr@ATL@@SAPAUIAtlStringMgr@3@XZ@4HA
_BSS	SEGMENT
?$TSS0@?1??GetInstance@CAtlStringMgr@ATL@@SAPAUIAtlStringMgr@3@XZ@4HA DD 01H DUP (?) ; `ATL::CAtlStringMgr::GetInstance'::`2'::$TSS0
_BSS	ENDS
;	COMDAT ?strMgr@?1??GetInstance@CAtlStringMgr@ATL@@SAPAUIAtlStringMgr@3@XZ@4V23@A
_BSS	SEGMENT
?strMgr@?1??GetInstance@CAtlStringMgr@ATL@@SAPAUIAtlStringMgr@3@XZ@4V23@A DB 01cH DUP (?) ; `ATL::CAtlStringMgr::GetInstance'::`2'::strMgr
_BSS	ENDS
;	COMDAT ?$TSS1@?1??GetInstance@CAtlStringMgr@ATL@@SAPAUIAtlStringMgr@3@XZ@4HA
_BSS	SEGMENT
?$TSS1@?1??GetInstance@CAtlStringMgr@ATL@@SAPAUIAtlStringMgr@3@XZ@4HA DD 01H DUP (?) ; `ATL::CAtlStringMgr::GetInstance'::`2'::$TSS1
_BSS	ENDS
;	COMDAT ?_pPerfRegFunc@ATL@@3P6AJPAUHINSTANCE__@@@ZA
_BSS	SEGMENT
?_pPerfRegFunc@ATL@@3P6AJPAUHINSTANCE__@@@ZA DD 01H DUP (?) ; ATL::_pPerfRegFunc
_BSS	ENDS
;	COMDAT ?_pPerfUnRegFunc@ATL@@3P6AJXZA
_BSS	SEGMENT
?_pPerfUnRegFunc@ATL@@3P6AJXZA DD 01H DUP (?)		; ATL::_pPerfUnRegFunc
_BSS	ENDS
;	COMDAT ?_AtlRegisterPerUser@ATL@@3_NA
_BSS	SEGMENT
?_AtlRegisterPerUser@ATL@@3_NA DB 01H DUP (?)		; ATL::_AtlRegisterPerUser
_BSS	ENDS
;	COMDAT ?_pAtlModule@ATL@@3PAVCAtlModule@1@A
_BSS	SEGMENT
?_pAtlModule@ATL@@3PAVCAtlModule@1@A DD 01H DUP (?)	; ATL::_pAtlModule
_BSS	ENDS
;	COMDAT ?_pModule@ATL@@3PAVCComModule@1@A
_BSS	SEGMENT
?_pModule@ATL@@3PAVCComModule@1@A DD 01H DUP (?)	; ATL::_pModule
_BSS	ENDS
;	COMDAT __pIncludeInitManaged
_DATA	SEGMENT
__pIncludeInitManaged DD FLAT:?_AfxInitManaged@@YAHXZ
_DATA	ENDS
;	COMDAT ___pobjMapEntryLast
ATL$__z	SEGMENT
___pobjMapEntryLast DD 00H
ATL$__z	ENDS
;	COMDAT ___pobjMapEntryFirst
ATL$__a	SEGMENT
___pobjMapEntryFirst DD 00H
ATL$__a	ENDS
;	COMDAT _LIBID_ATLLib
CONST	SEGMENT
_LIBID_ATLLib DD 044ec0535H
	DW	0400fH
	DW	011d0H
	DB	09dH
	DB	0cdH
	DB	00H
	DB	0a0H
	DB	0c9H
	DB	03H
	DB	091H
	DB	0d3H
CONST	ENDS
;	COMDAT ?CLSID_WinFormsControl@@3U_GUID@@B
CONST	SEGMENT
?CLSID_WinFormsControl@@3U_GUID@@B DD 0b7e7a666H	; CLSID_WinFormsControl
	DW	0d623H
	DW	0457fH
	DB	0a3H
	DB	0aH
	DB	06aH
	DB	049H
	DB	0a3H
	DB	0e5H
	DB	0b4H
	DB	070H
CONST	ENDS
;	COMDAT _IID_IInternalConnection
CONST	SEGMENT
_IID_IInternalConnection DD 072ad0770H
	DW	06a9fH
	DW	011d1H
	DB	0bcH
	DB	0ecH
	DB	00H
	DB	060H
	DB	08H
	DB	08fH
	DB	044H
	DB	04eH
CONST	ENDS
;	COMDAT _IID_IAxWinAmbientDispatchEx
CONST	SEGMENT
_IID_IAxWinAmbientDispatchEx DD 0b2d0778bH
	DW	0ac99H
	DW	04c58H
	DB	0a5H
	DB	0c8H
	DB	0e7H
	DB	072H
	DB	04eH
	DB	053H
	DB	016H
	DB	0b5H
CONST	ENDS
;	COMDAT ??_7CAtlStringMgr@ATL@@6B@
CONST	SEGMENT
??_7CAtlStringMgr@ATL@@6B@ DD FLAT:??_R4CAtlStringMgr@ATL@@6B@ ; ATL::CAtlStringMgr::`vftable'
	DD	FLAT:?Allocate@CAtlStringMgr@ATL@@UAEPAUCStringData@2@HH@Z
	DD	FLAT:?Free@CAtlStringMgr@ATL@@UAEXPAUCStringData@2@@Z
	DD	FLAT:?Reallocate@CAtlStringMgr@ATL@@UAEPAUCStringData@2@PAU32@HH@Z
	DD	FLAT:?GetNilString@CAtlStringMgr@ATL@@UAEPAUCStringData@2@XZ
	DD	FLAT:?Clone@CAtlStringMgr@ATL@@UAEPAUIAtlStringMgr@2@XZ
	DD	FLAT:??_ECAtlStringMgr@ATL@@UAEPAXI@Z
CONST	ENDS
;	COMDAT _IID_IAxWinAmbientDispatch
CONST	SEGMENT
_IID_IAxWinAmbientDispatch DD 0b6ea2051H
	DW	048aH
	DW	011d1H
	DB	082H
	DB	0b9H
	DB	00H
	DB	0c0H
	DB	04fH
	DB	0b9H
	DB	094H
	DB	02eH
CONST	ENDS
;	COMDAT _IID_IAxWinHostWindowLic
CONST	SEGMENT
_IID_IAxWinHostWindowLic DD 03935bda8H
	DW	04ed9H
	DW	0495cH
	DB	086H
	DB	050H
	DB	0e0H
	DB	01fH
	DB	0c1H
	DB	0e3H
	DB	08aH
	DB	04bH
CONST	ENDS
;	COMDAT _IID_IAxWinHostWindow
CONST	SEGMENT
_IID_IAxWinHostWindow DD 0b6ea2050H
	DW	048aH
	DW	011d1H
	DB	082H
	DB	0b9H
	DB	00H
	DB	0c0H
	DB	04fH
	DB	0b9H
	DB	094H
	DB	02eH
CONST	ENDS
;	COMDAT _IID_IDocHostUIHandlerDispatch
CONST	SEGMENT
_IID_IDocHostUIHandlerDispatch DD 0425b5af0H
	DW	065f1H
	DW	011d1H
	DB	096H
	DB	011H
	DB	00H
	DB	00H
	DB	0f8H
	DB	01eH
	DB	0dH
	DB	0dH
CONST	ENDS
;	COMDAT _IID_IRegistrar
CONST	SEGMENT
_IID_IRegistrar DD 044ec053bH
	DW	0400fH
	DW	011d0H
	DB	09dH
	DB	0cdH
	DB	00H
	DB	0a0H
	DB	0c9H
	DB	03H
	DB	091H
	DB	0d3H
CONST	ENDS
;	COMDAT _CLSID_Registrar
CONST	SEGMENT
_CLSID_Registrar DD 044ec053aH
	DW	0400fH
	DW	011d0H
	DB	09dH
	DB	0cdH
	DB	00H
	DB	0a0H
	DB	0c9H
	DB	03H
	DB	091H
	DB	0d3H
CONST	ENDS
;	COMDAT ??_C@_0O@KHOBHOBJ@atlTraceISAPI@
CONST	SEGMENT
??_C@_0O@KHOBHOBJ@atlTraceISAPI@ DB 'atlTraceISAPI', 00H ; `string'
CONST	ENDS
;	COMDAT ??_C@_0N@KLPNCFEE@atlTraceSync@
CONST	SEGMENT
??_C@_0N@KLPNCFEE@atlTraceSync@ DB 'atlTraceSync', 00H	; `string'
CONST	ENDS
;	COMDAT ??_C@_0BB@DNJDADMG@atlTraceSecurity@
CONST	SEGMENT
??_C@_0BB@DNJDADMG@atlTraceSecurity@ DB 'atlTraceSecurity', 00H ; `string'
CONST	ENDS
;	COMDAT ??_C@_0N@FEAAACHD@atlTraceUtil@
CONST	SEGMENT
??_C@_0N@FEAAACHD@atlTraceUtil@ DB 'atlTraceUtil', 00H	; `string'
CONST	ENDS
;	COMDAT ??_C@_0M@IOBBMAHG@atlTraceMap@
CONST	SEGMENT
??_C@_0M@IOBBMAHG@atlTraceMap@ DB 'atlTraceMap', 00H	; `string'
CONST	ENDS
;	COMDAT ??_C@_0P@MBNHGHMI@atlTraceString@
CONST	SEGMENT
??_C@_0P@MBNHGHMI@atlTraceString@ DB 'atlTraceString', 00H ; `string'
CONST	ENDS
;	COMDAT ??_C@_0BA@IDBKCKK@atlTraceStencil@
CONST	SEGMENT
??_C@_0BA@IDBKCKK@atlTraceStencil@ DB 'atlTraceStencil', 00H ; `string'
CONST	ENDS
;	COMDAT ??_C@_0O@MEOJAOKK@atlTraceCache@
CONST	SEGMENT
??_C@_0O@MEOJAOKK@atlTraceCache@ DB 'atlTraceCache', 00H ; `string'
CONST	ENDS
;	COMDAT ??_C@_0N@BNNILHBE@atlTraceTime@
CONST	SEGMENT
??_C@_0N@BNNILHBE@atlTraceTime@ DB 'atlTraceTime', 00H	; `string'
CONST	ENDS
;	COMDAT ??_C@_0BC@PGMFNIFA@atlTraceException@
CONST	SEGMENT
??_C@_0BC@PGMFNIFA@atlTraceException@ DB 'atlTraceException', 00H ; `string'
CONST	ENDS
;	COMDAT ??_C@_0BD@PJPCCAKP@atlTraceAllocation@
CONST	SEGMENT
??_C@_0BD@PJPCCAKP@atlTraceAllocation@ DB 'atlTraceAllocation', 00H ; `string'
CONST	ENDS
;	COMDAT ??_C@_0BA@MCBFIDIC@atlTraceNotImpl@
CONST	SEGMENT
??_C@_0BA@MCBFIDIC@atlTraceNotImpl@ DB 'atlTraceNotImpl', 00H ; `string'
CONST	ENDS
;	COMDAT ??_C@_0P@LNEGBOLO@atlTraceSnapin@
CONST	SEGMENT
??_C@_0P@LNEGBOLO@atlTraceSnapin@ DB 'atlTraceSnapin', 00H ; `string'
CONST	ENDS
;	COMDAT ??_C@_0BD@KOADKDIA@atlTraceDBProvider@
CONST	SEGMENT
??_C@_0BD@KOADKDIA@atlTraceDBProvider@ DB 'atlTraceDBProvider', 00H ; `string'
CONST	ENDS
;	COMDAT ??_C@_0BB@BEBMGMDO@atlTraceDBClient@
CONST	SEGMENT
??_C@_0BB@BEBMGMDO@atlTraceDBClient@ DB 'atlTraceDBClient', 00H ; `string'
CONST	ENDS
;	COMDAT ??_C@_0BA@DKOAAGGM@atlTraceHosting@
CONST	SEGMENT
??_C@_0BA@DKOAAGGM@atlTraceHosting@ DB 'atlTraceHosting', 00H ; `string'
CONST	ENDS
;	COMDAT ??_C@_0BB@GHKJKKIE@atlTraceControls@
CONST	SEGMENT
??_C@_0BB@GHKJKKIE@atlTraceControls@ DB 'atlTraceControls', 00H ; `string'
CONST	ENDS
;	COMDAT ??_C@_0BC@DGHHNKDC@atlTraceWindowing@
CONST	SEGMENT
??_C@_0BC@DGHHNKDC@atlTraceWindowing@ DB 'atlTraceWindowing', 00H ; `string'
CONST	ENDS
;	COMDAT ??_C@_0BB@ILPPDKFL@atlTraceRefcount@
CONST	SEGMENT
??_C@_0BB@ILPPDKFL@atlTraceRefcount@ DB 'atlTraceRefcount', 00H ; `string'
CONST	ENDS
;	COMDAT ??_C@_0BC@MALHFBAO@atlTraceRegistrar@
CONST	SEGMENT
??_C@_0BC@MALHFBAO@atlTraceRegistrar@ DB 'atlTraceRegistrar', 00H ; `string'
CONST	ENDS
;	COMDAT ??_C@_0L@LHELAKBP@atlTraceQI@
CONST	SEGMENT
??_C@_0L@LHELAKBP@atlTraceQI@ DB 'atlTraceQI', 00H	; `string'
CONST	ENDS
;	COMDAT ??_C@_0M@DGPFJEBB@atlTraceCOM@
CONST	SEGMENT
??_C@_0M@DGPFJEBB@atlTraceCOM@ DB 'atlTraceCOM', 00H	; `string'
CONST	ENDS
;	COMDAT ??_C@_0BA@MKMIKKJB@atlTraceGeneral@
CONST	SEGMENT
??_C@_0BA@MKMIKKJB@atlTraceGeneral@ DB 'atlTraceGeneral', 00H ; `string'
CONST	ENDS
;	COMDAT ??_7CWin32Heap@ATL@@6B@
CONST	SEGMENT
??_7CWin32Heap@ATL@@6B@ DD FLAT:??_R4CWin32Heap@ATL@@6B@ ; ATL::CWin32Heap::`vftable'
	DD	FLAT:?Allocate@CWin32Heap@ATL@@UAEPAXI@Z
	DD	FLAT:?Free@CWin32Heap@ATL@@UAEXPAX@Z
	DD	FLAT:?Reallocate@CWin32Heap@ATL@@UAEPAXPAXI@Z
	DD	FLAT:?GetSize@CWin32Heap@ATL@@UAEIPAX@Z
	DD	FLAT:??_ECWin32Heap@ATL@@UAEPAXI@Z
CONST	ENDS
;	COMDAT ??_C@_0BF@GPPHKJFN@Invalid?5DateTimeSpan@
CONST	SEGMENT
??_C@_0BF@GPPHKJFN@Invalid?5DateTimeSpan@ DB 'Invalid DateTimeSpan', 00H ; `string'
CONST	ENDS
;	COMDAT ?szInvalidDateTimeSpan@ATL@@3QBDB
CONST	SEGMENT
?szInvalidDateTimeSpan@ATL@@3QBDB DD FLAT:??_C@_0BF@GPPHKJFN@Invalid?5DateTimeSpan@ ; ATL::szInvalidDateTimeSpan
CONST	ENDS
;	COMDAT ??_C@_0BB@KEKMKJPM@Invalid?5DateTime@
CONST	SEGMENT
??_C@_0BB@KEKMKJPM@Invalid?5DateTime@ DB 'Invalid DateTime', 00H ; `string'
CONST	ENDS
;	COMDAT ?szInvalidDateTime@ATL@@3QBDB
CONST	SEGMENT
?szInvalidDateTime@ATL@@3QBDB DD FLAT:??_C@_0BB@KEKMKJPM@Invalid?5DateTime@ ; ATL::szInvalidDateTime
CONST	ENDS
;	COMDAT _c_DwmMaxAdapters
CONST	SEGMENT
_c_DwmMaxAdapters DD 010H
CONST	ENDS
;	COMDAT _c_DwmMaxMonitors
CONST	SEGMENT
_c_DwmMaxMonitors DD 010H
CONST	ENDS
;	COMDAT _c_DwmMaxQueuedBuffers
CONST	SEGMENT
_c_DwmMaxQueuedBuffers DD 08H
CONST	ENDS
;	COMDAT ??_C@_06JBKGCNBB@Delete@
CONST	SEGMENT
??_C@_06JBKGCNBB@Delete@ DB 'Delete', 00H		; `string'
CONST	ENDS
;	COMDAT ?szDelete@ATL@@3QBDB
CONST	SEGMENT
?szDelete@ATL@@3QBDB DD FLAT:??_C@_06JBKGCNBB@Delete@	; ATL::szDelete
CONST	ENDS
;	COMDAT ??_C@_08KAAPDIAN@NoRemove@
CONST	SEGMENT
??_C@_08KAAPDIAN@NoRemove@ DB 'NoRemove', 00H		; `string'
CONST	ENDS
;	COMDAT ?szNoRemove@ATL@@3QBDB
CONST	SEGMENT
?szNoRemove@ATL@@3QBDB DD FLAT:??_C@_08KAAPDIAN@NoRemove@ ; ATL::szNoRemove
CONST	ENDS
;	COMDAT ??_C@_0M@DBGDLGLL@ForceRemove@
CONST	SEGMENT
??_C@_0M@DBGDLGLL@ForceRemove@ DB 'ForceRemove', 00H	; `string'
CONST	ENDS
;	COMDAT ?szForceRemove@ATL@@3QBDB
CONST	SEGMENT
?szForceRemove@ATL@@3QBDB DD FLAT:??_C@_0M@DBGDLGLL@ForceRemove@ ; ATL::szForceRemove
CONST	ENDS
;	COMDAT ??_C@_03LAIAPFCB@Val@
CONST	SEGMENT
??_C@_03LAIAPFCB@Val@ DB 'Val', 00H			; `string'
CONST	ENDS
;	COMDAT ?szValToken@ATL@@3QBDB
CONST	SEGMENT
?szValToken@ATL@@3QBDB DD FLAT:??_C@_03LAIAPFCB@Val@	; ATL::szValToken
CONST	ENDS
;	COMDAT ??_C@_01HMGJMAIH@B@
CONST	SEGMENT
??_C@_01HMGJMAIH@B@ DB 'B', 00H				; `string'
CONST	ENDS
;	COMDAT ?szBinaryVal@ATL@@3QBDB
CONST	SEGMENT
?szBinaryVal@ATL@@3QBDB DD FLAT:??_C@_01HMGJMAIH@B@	; ATL::szBinaryVal
CONST	ENDS
;	COMDAT ??_C@_01CKDDGHAB@D@
CONST	SEGMENT
??_C@_01CKDDGHAB@D@ DB 'D', 00H				; `string'
CONST	ENDS
;	COMDAT ?szDwordVal@ATL@@3QBDB
CONST	SEGMENT
?szDwordVal@ATL@@3QBDB DD FLAT:??_C@_01CKDDGHAB@D@	; ATL::szDwordVal
CONST	ENDS
;	COMDAT ??_C@_01PLPBNMEI@M@
CONST	SEGMENT
??_C@_01PLPBNMEI@M@ DB 'M', 00H				; `string'
CONST	ENDS
;	COMDAT ?multiszStringVal@ATL@@3QBDB
CONST	SEGMENT
?multiszStringVal@ATL@@3QBDB DD FLAT:??_C@_01PLPBNMEI@M@ ; ATL::multiszStringVal
CONST	ENDS
;	COMDAT ??_C@_01CPLAODJH@S@
CONST	SEGMENT
??_C@_01CPLAODJH@S@ DB 'S', 00H				; `string'
CONST	ENDS
;	COMDAT ?szStringVal@ATL@@3QBDB
CONST	SEGMENT
?szStringVal@ATL@@3QBDB DD FLAT:??_C@_01CPLAODJH@S@	; ATL::szStringVal
CONST	ENDS
;	COMDAT ?chEquals@ATL@@3DB
CONST	SEGMENT
?chEquals@ATL@@3DB DB 03dH				; ATL::chEquals
CONST	ENDS
;	COMDAT ?chQuote@ATL@@3DB
CONST	SEGMENT
?chQuote@ATL@@3DB DB 027H				; ATL::chQuote
CONST	ENDS
;	COMDAT ?chLeftBracket@ATL@@3DB
CONST	SEGMENT
?chLeftBracket@ATL@@3DB DB 07bH				; ATL::chLeftBracket
CONST	ENDS
;	COMDAT ?chRightBracket@ATL@@3DB
CONST	SEGMENT
?chRightBracket@ATL@@3DB DB 07dH			; ATL::chRightBracket
CONST	ENDS
;	COMDAT ?chDirSep@ATL@@3DB
CONST	SEGMENT
?chDirSep@ATL@@3DB DB 05cH				; ATL::chDirSep
CONST	ENDS
;	COMDAT ??_R1A@?0A@EA@CAtlStringMgr@ATL@@8
rdata$r	SEGMENT
??_R1A@?0A@EA@CAtlStringMgr@ATL@@8 DD FLAT:??_R0?AVCAtlStringMgr@ATL@@@8 ; ATL::CAtlStringMgr::`RTTI Base Class Descriptor at (0,-1,0,64)'
	DD	01H
	DD	00H
	DD	0ffffffffH
	DD	00H
	DD	040H
	DD	FLAT:??_R3CAtlStringMgr@ATL@@8
rdata$r	ENDS
;	COMDAT ??_R2CAtlStringMgr@ATL@@8
rdata$r	SEGMENT
??_R2CAtlStringMgr@ATL@@8 DD FLAT:??_R1A@?0A@EA@CAtlStringMgr@ATL@@8 ; ATL::CAtlStringMgr::`RTTI Base Class Array'
	DD	FLAT:??_R1A@?0A@EA@IAtlStringMgr@ATL@@8
rdata$r	ENDS
;	COMDAT ??_R3CAtlStringMgr@ATL@@8
rdata$r	SEGMENT
??_R3CAtlStringMgr@ATL@@8 DD 00H			; ATL::CAtlStringMgr::`RTTI Class Hierarchy Descriptor'
	DD	00H
	DD	02H
	DD	FLAT:??_R2CAtlStringMgr@ATL@@8
rdata$r	ENDS
;	COMDAT ??_R0?AVCAtlStringMgr@ATL@@@8
data$rs	SEGMENT
??_R0?AVCAtlStringMgr@ATL@@@8 DD FLAT:??_7type_info@@6B@ ; ATL::CAtlStringMgr `RTTI Type Descriptor'
	DD	00H
	DB	'.?AVCAtlStringMgr@ATL@@', 00H
data$rs	ENDS
;	COMDAT ??_R4CAtlStringMgr@ATL@@6B@
rdata$r	SEGMENT
??_R4CAtlStringMgr@ATL@@6B@ DD 00H			; ATL::CAtlStringMgr::`RTTI Complete Object Locator'
	DD	00H
	DD	00H
	DD	FLAT:??_R0?AVCAtlStringMgr@ATL@@@8
	DD	FLAT:??_R3CAtlStringMgr@ATL@@8
rdata$r	ENDS
;	COMDAT ??_R2IAtlStringMgr@ATL@@8
rdata$r	SEGMENT
??_R2IAtlStringMgr@ATL@@8 DD FLAT:??_R1A@?0A@EA@IAtlStringMgr@ATL@@8 ; ATL::IAtlStringMgr::`RTTI Base Class Array'
rdata$r	ENDS
;	COMDAT ??_R3IAtlStringMgr@ATL@@8
rdata$r	SEGMENT
??_R3IAtlStringMgr@ATL@@8 DD 00H			; ATL::IAtlStringMgr::`RTTI Class Hierarchy Descriptor'
	DD	00H
	DD	01H
	DD	FLAT:??_R2IAtlStringMgr@ATL@@8
rdata$r	ENDS
;	COMDAT ??_R0?AUIAtlStringMgr@ATL@@@8
data$rs	SEGMENT
??_R0?AUIAtlStringMgr@ATL@@@8 DD FLAT:??_7type_info@@6B@ ; ATL::IAtlStringMgr `RTTI Type Descriptor'
	DD	00H
	DB	'.?AUIAtlStringMgr@ATL@@', 00H
data$rs	ENDS
;	COMDAT ??_R1A@?0A@EA@IAtlStringMgr@ATL@@8
rdata$r	SEGMENT
??_R1A@?0A@EA@IAtlStringMgr@ATL@@8 DD FLAT:??_R0?AUIAtlStringMgr@ATL@@@8 ; ATL::IAtlStringMgr::`RTTI Base Class Descriptor at (0,-1,0,64)'
	DD	00H
	DD	00H
	DD	0ffffffffH
	DD	00H
	DD	040H
	DD	FLAT:??_R3IAtlStringMgr@ATL@@8
rdata$r	ENDS
;	COMDAT ??_R2IAtlMemMgr@ATL@@8
rdata$r	SEGMENT
??_R2IAtlMemMgr@ATL@@8 DD FLAT:??_R1A@?0A@EA@IAtlMemMgr@ATL@@8 ; ATL::IAtlMemMgr::`RTTI Base Class Array'
rdata$r	ENDS
;	COMDAT ??_R3IAtlMemMgr@ATL@@8
rdata$r	SEGMENT
??_R3IAtlMemMgr@ATL@@8 DD 00H				; ATL::IAtlMemMgr::`RTTI Class Hierarchy Descriptor'
	DD	00H
	DD	01H
	DD	FLAT:??_R2IAtlMemMgr@ATL@@8
rdata$r	ENDS
;	COMDAT ??_R0?AUIAtlMemMgr@ATL@@@8
data$rs	SEGMENT
??_R0?AUIAtlMemMgr@ATL@@@8 DD FLAT:??_7type_info@@6B@	; ATL::IAtlMemMgr `RTTI Type Descriptor'
	DD	00H
	DB	'.?AUIAtlMemMgr@ATL@@', 00H
data$rs	ENDS
;	COMDAT ??_R1A@?0A@EA@IAtlMemMgr@ATL@@8
rdata$r	SEGMENT
??_R1A@?0A@EA@IAtlMemMgr@ATL@@8 DD FLAT:??_R0?AUIAtlMemMgr@ATL@@@8 ; ATL::IAtlMemMgr::`RTTI Base Class Descriptor at (0,-1,0,64)'
	DD	00H
	DD	00H
	DD	0ffffffffH
	DD	00H
	DD	040H
	DD	FLAT:??_R3IAtlMemMgr@ATL@@8
rdata$r	ENDS
;	COMDAT ??_R1A@?0A@EA@CWin32Heap@ATL@@8
rdata$r	SEGMENT
??_R1A@?0A@EA@CWin32Heap@ATL@@8 DD FLAT:??_R0?AVCWin32Heap@ATL@@@8 ; ATL::CWin32Heap::`RTTI Base Class Descriptor at (0,-1,0,64)'
	DD	01H
	DD	00H
	DD	0ffffffffH
	DD	00H
	DD	040H
	DD	FLAT:??_R3CWin32Heap@ATL@@8
rdata$r	ENDS
;	COMDAT ??_R2CWin32Heap@ATL@@8
rdata$r	SEGMENT
??_R2CWin32Heap@ATL@@8 DD FLAT:??_R1A@?0A@EA@CWin32Heap@ATL@@8 ; ATL::CWin32Heap::`RTTI Base Class Array'
	DD	FLAT:??_R1A@?0A@EA@IAtlMemMgr@ATL@@8
rdata$r	ENDS
;	COMDAT ??_R3CWin32Heap@ATL@@8
rdata$r	SEGMENT
??_R3CWin32Heap@ATL@@8 DD 00H				; ATL::CWin32Heap::`RTTI Class Hierarchy Descriptor'
	DD	00H
	DD	02H
	DD	FLAT:??_R2CWin32Heap@ATL@@8
rdata$r	ENDS
;	COMDAT ??_R0?AVCWin32Heap@ATL@@@8
data$rs	SEGMENT
??_R0?AVCWin32Heap@ATL@@@8 DD FLAT:??_7type_info@@6B@	; ATL::CWin32Heap `RTTI Type Descriptor'
	DD	00H
	DB	'.?AVCWin32Heap@ATL@@', 00H
data$rs	ENDS
;	COMDAT ??_R4CWin32Heap@ATL@@6B@
rdata$r	SEGMENT
??_R4CWin32Heap@ATL@@6B@ DD 00H				; ATL::CWin32Heap::`RTTI Complete Object Locator'
	DD	00H
	DD	00H
	DD	FLAT:??_R0?AVCWin32Heap@ATL@@@8
	DD	FLAT:??_R3CWin32Heap@ATL@@8
rdata$r	ENDS
PUBLIC	??_H@YGXPAXIIP6EPAX0@Z@Z			; `vector constructor iterator'
PUBLIC	?__empty_global_delete@@YAXPAX@Z		; __empty_global_delete
PUBLIC	?__empty_global_delete@@YAXPAXI@Z		; __empty_global_delete
PUBLIC	?_AtlRaiseException@ATL@@YAXKK@Z		; ATL::_AtlRaiseException
PUBLIC	?_AtlInitializeCriticalSectionEx@ATL@@YAHPAU_RTL_CRITICAL_SECTION@@KK@Z ; ATL::_AtlInitializeCriticalSectionEx
PUBLIC	??1CWin32Heap@ATL@@UAE@XZ			; ATL::CWin32Heap::~CWin32Heap
PUBLIC	??1CAtlStringMgr@ATL@@UAE@XZ			; ATL::CAtlStringMgr::~CAtlStringMgr
PUBLIC	??__FstrHeap@?1??GetInstance@CAtlStringMgr@ATL@@SAPAUIAtlStringMgr@2@XZ@YAXXZ ; `ATL::CAtlStringMgr::GetInstance'::`2'::`dynamic atexit destructor for 'strHeap''
PUBLIC	??__FstrMgr@?1??GetInstance@CAtlStringMgr@ATL@@SAPAUIAtlStringMgr@2@XZ@YAXXZ ; `ATL::CAtlStringMgr::GetInstance'::`2'::`dynamic atexit destructor for 'strMgr''
PUBLIC	?EnsureLinked@CAtlStringMgrStaticInitializer@ATLImplementationDetails@ATL@@QAEPAXXZ ; ATL::ATLImplementationDetails::CAtlStringMgrStaticInitializer::EnsureLinked
PUBLIC	?atlTraceGeneral@ATL@@3V?$CTraceCategoryEx@$00$0A@@1@A ; ATL::atlTraceGeneral
PUBLIC	?atlTraceCOM@ATL@@3V?$CTraceCategoryEx@$01$0A@@1@A ; ATL::atlTraceCOM
PUBLIC	?atlTraceQI@ATL@@3V?$CTraceCategoryEx@$03$0A@@1@A ; ATL::atlTraceQI
PUBLIC	?atlTraceRegistrar@ATL@@3V?$CTraceCategoryEx@$07$0A@@1@A ; ATL::atlTraceRegistrar
PUBLIC	?atlTraceRefcount@ATL@@3V?$CTraceCategoryEx@$0BA@$0A@@1@A ; ATL::atlTraceRefcount
PUBLIC	?atlTraceWindowing@ATL@@3V?$CTraceCategoryEx@$0CA@$0A@@1@A ; ATL::atlTraceWindowing
PUBLIC	?atlTraceControls@ATL@@3V?$CTraceCategoryEx@$0EA@$0A@@1@A ; ATL::atlTraceControls
PUBLIC	?atlTraceHosting@ATL@@3V?$CTraceCategoryEx@$0IA@$0A@@1@A ; ATL::atlTraceHosting
PUBLIC	?atlTraceDBClient@ATL@@3V?$CTraceCategoryEx@$0BAA@$0A@@1@A ; ATL::atlTraceDBClient
PUBLIC	?atlTraceDBProvider@ATL@@3V?$CTraceCategoryEx@$0CAA@$0A@@1@A ; ATL::atlTraceDBProvider
PUBLIC	?atlTraceSnapin@ATL@@3V?$CTraceCategoryEx@$0EAA@$0A@@1@A ; ATL::atlTraceSnapin
PUBLIC	?atlTraceNotImpl@ATL@@3V?$CTraceCategoryEx@$0IAA@$0A@@1@A ; ATL::atlTraceNotImpl
PUBLIC	?atlTraceAllocation@ATL@@3V?$CTraceCategoryEx@$0BAAA@$0A@@1@A ; ATL::atlTraceAllocation
PUBLIC	?atlTraceException@ATL@@3V?$CTraceCategoryEx@$0CAAA@$0A@@1@A ; ATL::atlTraceException
PUBLIC	?atlTraceTime@ATL@@3V?$CTraceCategoryEx@$0EAAA@$0A@@1@A ; ATL::atlTraceTime
PUBLIC	?atlTraceCache@ATL@@3V?$CTraceCategoryEx@$0IAAA@$0A@@1@A ; ATL::atlTraceCache
PUBLIC	?atlTraceStencil@ATL@@3V?$CTraceCategoryEx@$0BAAAA@$0A@@1@A ; ATL::atlTraceStencil
PUBLIC	?atlTraceString@ATL@@3V?$CTraceCategoryEx@$0CAAAA@$0A@@1@A ; ATL::atlTraceString
PUBLIC	?atlTraceMap@ATL@@3V?$CTraceCategoryEx@$0EAAAA@$0A@@1@A ; ATL::atlTraceMap
PUBLIC	?atlTraceUtil@ATL@@3V?$CTraceCategoryEx@$0IAAAA@$0A@@1@A ; ATL::atlTraceUtil
PUBLIC	?atlTraceSecurity@ATL@@3V?$CTraceCategoryEx@$0BAAAAA@$0A@@1@A ; ATL::atlTraceSecurity
PUBLIC	?atlTraceSync@ATL@@3V?$CTraceCategoryEx@$0CAAAAA@$0A@@1@A ; ATL::atlTraceSync
PUBLIC	?atlTraceISAPI@ATL@@3V?$CTraceCategoryEx@$0EAAAAA@$0A@@1@A ; ATL::atlTraceISAPI
PUBLIC	?_AtlComModule@ATL@@3VCAtlComModule@1@A		; ATL::_AtlComModule
PUBLIC	?_AtlWinModule@ATL@@3VCAtlWinModule@1@A		; ATL::_AtlWinModule
PUBLIC	?isInitialized@CAtlStringMgr@ATL@@0_NA		; ATL::CAtlStringMgr::isInitialized
PUBLIC	?InitializeCAtlStringMgr@ATLImplementationDetails@ATL@@3UCAtlStringMgrStaticInitializer@12@A ; ATL::ATLImplementationDetails::InitializeCAtlStringMgr
EXTRN	??3@YAXPAXI@Z:PROC				; operator delete
EXTRN	_atexit:PROC
EXTRN	__Init_thread_header:PROC
EXTRN	__Init_thread_footer:PROC
EXTRN	___std_terminate:PROC
EXTRN	__imp__DecodePointer@4:PROC
EXTRN	__imp__RaiseException@16:PROC
EXTRN	__imp__GetLastError@0:PROC
EXTRN	__imp__HeapDestroy@4:PROC
EXTRN	__imp__HeapAlloc@12:PROC
EXTRN	__imp__HeapReAlloc@16:PROC
EXTRN	__imp__HeapFree@12:PROC
EXTRN	__imp__HeapSize@12:PROC
EXTRN	__imp__GetProcessHeap@0:PROC
EXTRN	__imp__InitializeCriticalSectionEx@12:PROC
EXTRN	__imp__DeleteCriticalSection@4:PROC
EXTRN	__imp__UnregisterClassA@8:PROC
EXTRN	__imp__free:PROC
EXTRN	@__security_check_cookie@4:PROC
EXTRN	___CxxFrameHandler3:PROC
EXTRN	___security_cookie:DWORD
EXTRN	__tls_array:DWORD
EXTRN	__tls_index:DWORD
;	COMDAT ?atlTraceGeneral@ATL@@3V?$CTraceCategoryEx@$00$0A@@1@A
_BSS	SEGMENT
?atlTraceGeneral@ATL@@3V?$CTraceCategoryEx@$00$0A@@1@A DD 01H DUP (?) ; ATL::atlTraceGeneral
_BSS	ENDS
;	COMDAT ?atlTraceCOM@ATL@@3V?$CTraceCategoryEx@$01$0A@@1@A
_BSS	SEGMENT
?atlTraceCOM@ATL@@3V?$CTraceCategoryEx@$01$0A@@1@A DD 01H DUP (?) ; ATL::atlTraceCOM
_BSS	ENDS
;	COMDAT ?atlTraceQI@ATL@@3V?$CTraceCategoryEx@$03$0A@@1@A
_BSS	SEGMENT
?atlTraceQI@ATL@@3V?$CTraceCategoryEx@$03$0A@@1@A DD 01H DUP (?) ; ATL::atlTraceQI
_BSS	ENDS
;	COMDAT ?atlTraceRegistrar@ATL@@3V?$CTraceCategoryEx@$07$0A@@1@A
_BSS	SEGMENT
?atlTraceRegistrar@ATL@@3V?$CTraceCategoryEx@$07$0A@@1@A DD 01H DUP (?) ; ATL::atlTraceRegistrar
_BSS	ENDS
;	COMDAT ?atlTraceRefcount@ATL@@3V?$CTraceCategoryEx@$0BA@$0A@@1@A
_BSS	SEGMENT
?atlTraceRefcount@ATL@@3V?$CTraceCategoryEx@$0BA@$0A@@1@A DD 01H DUP (?) ; ATL::atlTraceRefcount
_BSS	ENDS
;	COMDAT ?atlTraceWindowing@ATL@@3V?$CTraceCategoryEx@$0CA@$0A@@1@A
_BSS	SEGMENT
?atlTraceWindowing@ATL@@3V?$CTraceCategoryEx@$0CA@$0A@@1@A DD 01H DUP (?) ; ATL::atlTraceWindowing
_BSS	ENDS
;	COMDAT ?atlTraceControls@ATL@@3V?$CTraceCategoryEx@$0EA@$0A@@1@A
_BSS	SEGMENT
?atlTraceControls@ATL@@3V?$CTraceCategoryEx@$0EA@$0A@@1@A DD 01H DUP (?) ; ATL::atlTraceControls
_BSS	ENDS
;	COMDAT ?atlTraceHosting@ATL@@3V?$CTraceCategoryEx@$0IA@$0A@@1@A
_BSS	SEGMENT
?atlTraceHosting@ATL@@3V?$CTraceCategoryEx@$0IA@$0A@@1@A DD 01H DUP (?) ; ATL::atlTraceHosting
_BSS	ENDS
;	COMDAT ?atlTraceDBClient@ATL@@3V?$CTraceCategoryEx@$0BAA@$0A@@1@A
_BSS	SEGMENT
?atlTraceDBClient@ATL@@3V?$CTraceCategoryEx@$0BAA@$0A@@1@A DD 01H DUP (?) ; ATL::atlTraceDBClient
_BSS	ENDS
;	COMDAT ?atlTraceDBProvider@ATL@@3V?$CTraceCategoryEx@$0CAA@$0A@@1@A
_BSS	SEGMENT
?atlTraceDBProvider@ATL@@3V?$CTraceCategoryEx@$0CAA@$0A@@1@A DD 01H DUP (?) ; ATL::atlTraceDBProvider
_BSS	ENDS
;	COMDAT ?atlTraceSnapin@ATL@@3V?$CTraceCategoryEx@$0EAA@$0A@@1@A
_BSS	SEGMENT
?atlTraceSnapin@ATL@@3V?$CTraceCategoryEx@$0EAA@$0A@@1@A DD 01H DUP (?) ; ATL::atlTraceSnapin
_BSS	ENDS
;	COMDAT ?atlTraceNotImpl@ATL@@3V?$CTraceCategoryEx@$0IAA@$0A@@1@A
_BSS	SEGMENT
?atlTraceNotImpl@ATL@@3V?$CTraceCategoryEx@$0IAA@$0A@@1@A DD 01H DUP (?) ; ATL::atlTraceNotImpl
_BSS	ENDS
;	COMDAT ?atlTraceAllocation@ATL@@3V?$CTraceCategoryEx@$0BAAA@$0A@@1@A
_BSS	SEGMENT
?atlTraceAllocation@ATL@@3V?$CTraceCategoryEx@$0BAAA@$0A@@1@A DD 01H DUP (?) ; ATL::atlTraceAllocation
_BSS	ENDS
;	COMDAT ?atlTraceException@ATL@@3V?$CTraceCategoryEx@$0CAAA@$0A@@1@A
_BSS	SEGMENT
?atlTraceException@ATL@@3V?$CTraceCategoryEx@$0CAAA@$0A@@1@A DD 01H DUP (?) ; ATL::atlTraceException
_BSS	ENDS
;	COMDAT ?atlTraceTime@ATL@@3V?$CTraceCategoryEx@$0EAAA@$0A@@1@A
_BSS	SEGMENT
?atlTraceTime@ATL@@3V?$CTraceCategoryEx@$0EAAA@$0A@@1@A DD 01H DUP (?) ; ATL::atlTraceTime
_BSS	ENDS
;	COMDAT ?atlTraceCache@ATL@@3V?$CTraceCategoryEx@$0IAAA@$0A@@1@A
_BSS	SEGMENT
?atlTraceCache@ATL@@3V?$CTraceCategoryEx@$0IAAA@$0A@@1@A DD 01H DUP (?) ; ATL::atlTraceCache
_BSS	ENDS
;	COMDAT ?atlTraceStencil@ATL@@3V?$CTraceCategoryEx@$0BAAAA@$0A@@1@A
_BSS	SEGMENT
?atlTraceStencil@ATL@@3V?$CTraceCategoryEx@$0BAAAA@$0A@@1@A DD 01H DUP (?) ; ATL::atlTraceStencil
_BSS	ENDS
;	COMDAT ?atlTraceString@ATL@@3V?$CTraceCategoryEx@$0CAAAA@$0A@@1@A
_BSS	SEGMENT
?atlTraceString@ATL@@3V?$CTraceCategoryEx@$0CAAAA@$0A@@1@A DD 01H DUP (?) ; ATL::atlTraceString
_BSS	ENDS
;	COMDAT ?atlTraceMap@ATL@@3V?$CTraceCategoryEx@$0EAAAA@$0A@@1@A
_BSS	SEGMENT
?atlTraceMap@ATL@@3V?$CTraceCategoryEx@$0EAAAA@$0A@@1@A DD 01H DUP (?) ; ATL::atlTraceMap
_BSS	ENDS
;	COMDAT ?atlTraceUtil@ATL@@3V?$CTraceCategoryEx@$0IAAAA@$0A@@1@A
_BSS	SEGMENT
?atlTraceUtil@ATL@@3V?$CTraceCategoryEx@$0IAAAA@$0A@@1@A DD 01H DUP (?) ; ATL::atlTraceUtil
_BSS	ENDS
;	COMDAT ?atlTraceSecurity@ATL@@3V?$CTraceCategoryEx@$0BAAAAA@$0A@@1@A
_BSS	SEGMENT
?atlTraceSecurity@ATL@@3V?$CTraceCategoryEx@$0BAAAAA@$0A@@1@A DD 01H DUP (?) ; ATL::atlTraceSecurity
_BSS	ENDS
;	COMDAT ?atlTraceSync@ATL@@3V?$CTraceCategoryEx@$0CAAAAA@$0A@@1@A
_BSS	SEGMENT
?atlTraceSync@ATL@@3V?$CTraceCategoryEx@$0CAAAAA@$0A@@1@A DD 01H DUP (?) ; ATL::atlTraceSync
_BSS	ENDS
;	COMDAT ?atlTraceISAPI@ATL@@3V?$CTraceCategoryEx@$0EAAAAA@$0A@@1@A
_BSS	SEGMENT
?atlTraceISAPI@ATL@@3V?$CTraceCategoryEx@$0EAAAAA@$0A@@1@A DD 01H DUP (?) ; ATL::atlTraceISAPI
_BSS	ENDS
;	COMDAT ?isInitialized@CAtlStringMgr@ATL@@0_NA
_BSS	SEGMENT
?isInitialized@CAtlStringMgr@ATL@@0_NA DB 01H DUP (?)	; ATL::CAtlStringMgr::isInitialized
_BSS	ENDS
;	COMDAT ?InitializeCAtlStringMgr@ATLImplementationDetails@ATL@@3UCAtlStringMgrStaticInitializer@12@A
_BSS	SEGMENT
?InitializeCAtlStringMgr@ATLImplementationDetails@ATL@@3UCAtlStringMgrStaticInitializer@12@A DB 01H DUP (?) ; ATL::ATLImplementationDetails::InitializeCAtlStringMgr
_BSS	ENDS
;	COMDAT CRT$XCU
CRT$XCU	SEGMENT
?_AtlComModule$initializer$@ATL@@3P6AXXZA DD FLAT:??__E_AtlComModule@ATL@@YAXXZ ; ATL::_AtlComModule$initializer$
CRT$XCU	ENDS
;	COMDAT ?_AtlWinModule@ATL@@3VCAtlWinModule@1@A
_DATA	SEGMENT
?_AtlWinModule@ATL@@3VCAtlWinModule@1@A DD 02cH		; ATL::_AtlWinModule
	DB	24 DUP(00H)
	DD	00H
_DATA	ENDS
;	COMDAT ?_AtlComModule@ATL@@3VCAtlComModule@1@A
_DATA	SEGMENT
?_AtlComModule@ATL@@3VCAtlComModule@1@A DB 04H DUP (?)
	DD	FLAT:___ImageBase			; ATL::_AtlComModule
	DD	FLAT:___pobjMapEntryFirst+4
	DD	FLAT:___pobjMapEntryLast
_DATA	ENDS
;	COMDAT xdata$x
xdata$x	SEGMENT
__unwindtable$??__F_AtlComModule@ATL@@YAXXZ DD 0ffffffffH
	DD	FLAT:___std_terminate
__ehfuncinfo$??__F_AtlComModule@ATL@@YAXXZ DD 019930522H
	DD	01H
	DD	FLAT:__unwindtable$??__F_AtlComModule@ATL@@YAXXZ
	DD	2 DUP(00H)
	DD	2 DUP(00H)
	DD	00H
	DD	01H
xdata$x	ENDS
;	COMDAT xdata$x
xdata$x	SEGMENT
__ehfuncinfo$??1CAtlComModule@ATL@@QAE@XZ DD 019930522H
	DD	00H
	DD	00H
	DD	2 DUP(00H)
	DD	2 DUP(00H)
	DD	00H
	DD	05H
xdata$x	ENDS
;	COMDAT CRT$XCU
CRT$XCU	SEGMENT
?_AtlWinModule$initializer$@ATL@@3P6AXXZA DD FLAT:??__E_AtlWinModule@ATL@@YAXXZ ; ATL::_AtlWinModule$initializer$
CRT$XCU	ENDS
;	COMDAT CRT$XCU
CRT$XCU	SEGMENT
?InitializeCAtlStringMgr$initializer$@ATLImplementationDetails@ATL@@3P6AXXZA DD FLAT:??__EInitializeCAtlStringMgr@ATLImplementationDetails@ATL@@YAXXZ ; ATL::ATLImplementationDetails::InitializeCAtlStringMgr$initializer$
CRT$XCU	ENDS
;	COMDAT CRT$XCU
CRT$XCU	SEGMENT
??isInitialized$initializer$@CAtlStringMgr@ATL@@0P6AXXZA@@3P6AXXZA DD FLAT:??__E?isInitialized@CAtlStringMgr@ATL@@0_NA@@YAXXZ ; ??isInitialized$initializer$@CAtlStringMgr@ATL@@0P6AXXZA@@3P6AXXZA
CRT$XCU	ENDS
; Function compile flags: /Ogtp
; File C:\Program Files (x86)\Microsoft Visual Studio\2019\Community\VC\Tools\MSVC\14.29.30133\atlmfc\include\atlstr.h
;	COMDAT ??__E?isInitialized@CAtlStringMgr@ATL@@0_NA@@YAXXZ
text$di	SEGMENT
??__E?isInitialized@CAtlStringMgr@ATL@@0_NA@@YAXXZ PROC	; `dynamic initializer for 'ATL::CAtlStringMgr::isInitialized'', COMDAT

; 178  : __declspec(selectany) bool CAtlStringMgr::isInitialized = ATLImplementationDetails::InitializeCAtlStringMgr.EnsureLinked() != nullptr;

  00000	b9 00 00 00 00	 mov	 ecx, OFFSET ?InitializeCAtlStringMgr@ATLImplementationDetails@ATL@@3UCAtlStringMgrStaticInitializer@12@A ; ATL::ATLImplementationDetails::InitializeCAtlStringMgr
  00005	e8 00 00 00 00	 call	 ?EnsureLinked@CAtlStringMgrStaticInitializer@ATLImplementationDetails@ATL@@QAEPAXXZ ; ATL::ATLImplementationDetails::CAtlStringMgrStaticInitializer::EnsureLinked
  0000a	85 c0		 test	 eax, eax
  0000c	0f 95 05 00 00
	00 00		 setne	 BYTE PTR ?isInitialized@CAtlStringMgr@ATL@@0_NA ; ATL::CAtlStringMgr::isInitialized
  00013	c3		 ret	 0
??__E?isInitialized@CAtlStringMgr@ATL@@0_NA@@YAXXZ ENDP	; `dynamic initializer for 'ATL::CAtlStringMgr::isInitialized''
text$di	ENDS
; Function compile flags: /Ogtp
; File C:\Program Files (x86)\Microsoft Visual Studio\2019\Community\VC\Tools\MSVC\14.29.30133\atlmfc\include\atlstr.h
; File C:\Program Files (x86)\Microsoft Visual Studio\2019\Community\VC\Tools\MSVC\14.29.30133\atlmfc\include\atlmem.h
; File C:\Program Files (x86)\Microsoft Visual Studio\2019\Community\VC\Tools\MSVC\14.29.30133\atlmfc\include\atlstr.h
; File C:\Program Files (x86)\Microsoft Visual Studio\2019\Community\VC\Tools\MSVC\14.29.30133\atlmfc\include\atlsimpstr.h
; File C:\Program Files (x86)\Microsoft Visual Studio\2019\Community\VC\Tools\MSVC\14.29.30133\atlmfc\include\atlstr.h
; File C:\Program Files (x86)\Microsoft Visual Studio\2019\Community\VC\Tools\MSVC\14.29.30133\atlmfc\include\atlsimpstr.h
; File C:\Program Files (x86)\Microsoft Visual Studio\2019\Community\VC\Tools\MSVC\14.29.30133\atlmfc\include\atlstr.h
;	COMDAT ??__EInitializeCAtlStringMgr@ATLImplementationDetails@ATL@@YAXXZ
text$di	SEGMENT
??__EInitializeCAtlStringMgr@ATLImplementationDetails@ATL@@YAXXZ PROC ; ATL::ATLImplementationDetails::`dynamic initializer for 'InitializeCAtlStringMgr'', COMDAT

; 57   : 		static CWin32Heap strHeap( ::GetProcessHeap() );

  00000	64 a1 00 00 00
	00		 mov	 eax, DWORD PTR fs:__tls_array
  00006	8b 0d 00 00 00
	00		 mov	 ecx, DWORD PTR __tls_index

; 175  : __declspec(selectany) CAtlStringMgrStaticInitializer InitializeCAtlStringMgr;

  0000c	56		 push	 esi

; 57   : 		static CWin32Heap strHeap( ::GetProcessHeap() );

  0000d	8b 34 88	 mov	 esi, DWORD PTR [eax+ecx*4]
  00010	a1 00 00 00 00	 mov	 eax, DWORD PTR ?$TSS0@?1??GetInstance@CAtlStringMgr@ATL@@SAPAUIAtlStringMgr@3@XZ@4HA ; `ATL::CAtlStringMgr::GetInstance'::`2'::$TSS0
  00015	3b 86 00 00 00
	00		 cmp	 eax, DWORD PTR __Init_thread_epoch[esi]
  0001b	7f 0f		 jg	 SHORT $LN16@dynamic
$LN6@dynamic:

; 58   : 		static CAtlStringMgr strMgr(&strHeap);

  0001d	a1 00 00 00 00	 mov	 eax, DWORD PTR ?$TSS1@?1??GetInstance@CAtlStringMgr@ATL@@SAPAUIAtlStringMgr@3@XZ@4HA ; `ATL::CAtlStringMgr::GetInstance'::`2'::$TSS1
  00022	3b 86 00 00 00
	00		 cmp	 eax, DWORD PTR __Init_thread_epoch[esi]
  00028	5e		 pop	 esi
  00029	7f 4c		 jg	 SHORT $LN17@dynamic
$LN7@dynamic:

; 175  : __declspec(selectany) CAtlStringMgrStaticInitializer InitializeCAtlStringMgr;

  0002b	c3		 ret	 0
$LN16@dynamic:

; 57   : 		static CWin32Heap strHeap( ::GetProcessHeap() );

  0002c	68 00 00 00 00	 push	 OFFSET ?$TSS0@?1??GetInstance@CAtlStringMgr@ATL@@SAPAUIAtlStringMgr@3@XZ@4HA ; `ATL::CAtlStringMgr::GetInstance'::`2'::$TSS0
  00031	e8 00 00 00 00	 call	 __Init_thread_header
  00036	83 c4 04	 add	 esp, 4
  00039	83 3d 00 00 00
	00 ff		 cmp	 DWORD PTR ?$TSS0@?1??GetInstance@CAtlStringMgr@ATL@@SAPAUIAtlStringMgr@3@XZ@4HA, -1 ; `ATL::CAtlStringMgr::GetInstance'::`2'::$TSS0
  00040	75 db		 jne	 SHORT $LN6@dynamic
  00042	ff 15 00 00 00
	00		 call	 DWORD PTR __imp__GetProcessHeap@0
  00048	68 00 00 00 00	 push	 OFFSET ??__FstrHeap@?1??GetInstance@CAtlStringMgr@ATL@@SAPAUIAtlStringMgr@2@XZ@YAXXZ ; `ATL::CAtlStringMgr::GetInstance'::`2'::`dynamic atexit destructor for 'strHeap''
; File C:\Program Files (x86)\Microsoft Visual Studio\2019\Community\VC\Tools\MSVC\14.29.30133\atlmfc\include\atlmem.h

; 89   : 	{

  0004d	c7 05 00 00 00
	00 00 00 00 00	 mov	 DWORD PTR ?strHeap@?1??GetInstance@CAtlStringMgr@ATL@@SAPAUIAtlStringMgr@3@XZ@4VCWin32Heap@3@A, OFFSET ??_7CWin32Heap@ATL@@6B@
  00057	a3 04 00 00 00	 mov	 DWORD PTR ?strHeap@?1??GetInstance@CAtlStringMgr@ATL@@SAPAUIAtlStringMgr@3@XZ@4VCWin32Heap@3@A+4, eax
  0005c	c6 05 08 00 00
	00 00		 mov	 BYTE PTR ?strHeap@?1??GetInstance@CAtlStringMgr@ATL@@SAPAUIAtlStringMgr@3@XZ@4VCWin32Heap@3@A+8, 0
; File C:\Program Files (x86)\Microsoft Visual Studio\2019\Community\VC\Tools\MSVC\14.29.30133\atlmfc\include\atlstr.h

; 57   : 		static CWin32Heap strHeap( ::GetProcessHeap() );

  00063	e8 00 00 00 00	 call	 _atexit
  00068	68 00 00 00 00	 push	 OFFSET ?$TSS0@?1??GetInstance@CAtlStringMgr@ATL@@SAPAUIAtlStringMgr@3@XZ@4HA ; `ATL::CAtlStringMgr::GetInstance'::`2'::$TSS0
  0006d	e8 00 00 00 00	 call	 __Init_thread_footer
  00072	83 c4 08	 add	 esp, 8
  00075	eb a6		 jmp	 SHORT $LN6@dynamic
$LN17@dynamic:

; 58   : 		static CAtlStringMgr strMgr(&strHeap);

  00077	68 00 00 00 00	 push	 OFFSET ?$TSS1@?1??GetInstance@CAtlStringMgr@ATL@@SAPAUIAtlStringMgr@3@XZ@4HA ; `ATL::CAtlStringMgr::GetInstance'::`2'::$TSS1
  0007c	e8 00 00 00 00	 call	 __Init_thread_header
  00081	83 c4 04	 add	 esp, 4
  00084	83 3d 00 00 00
	00 ff		 cmp	 DWORD PTR ?$TSS1@?1??GetInstance@CAtlStringMgr@ATL@@SAPAUIAtlStringMgr@3@XZ@4HA, -1 ; `ATL::CAtlStringMgr::GetInstance'::`2'::$TSS1
  0008b	75 9e		 jne	 SHORT $LN7@dynamic
; File C:\Program Files (x86)\Microsoft Visual Studio\2019\Community\VC\Tools\MSVC\14.29.30133\atlmfc\include\atlsimpstr.h

; 118  : 		achNil[0] = 0;

  0008d	33 c0		 xor	 eax, eax
; File C:\Program Files (x86)\Microsoft Visual Studio\2019\Community\VC\Tools\MSVC\14.29.30133\atlmfc\include\atlstr.h

; 40   : 	{

  0008f	c7 05 00 00 00
	00 00 00 00 00	 mov	 DWORD PTR ?strMgr@?1??GetInstance@CAtlStringMgr@ATL@@SAPAUIAtlStringMgr@3@XZ@4V23@A, OFFSET ??_7CAtlStringMgr@ATL@@6B@

; 58   : 		static CAtlStringMgr strMgr(&strHeap);

  00099	68 00 00 00 00	 push	 OFFSET ??__FstrMgr@?1??GetInstance@CAtlStringMgr@ATL@@SAPAUIAtlStringMgr@2@XZ@YAXXZ ; `ATL::CAtlStringMgr::GetInstance'::`2'::`dynamic atexit destructor for 'strMgr''

; 39   : 		m_pMemMgr( pMemMgr )

  0009e	c7 05 04 00 00
	00 00 00 00 00	 mov	 DWORD PTR ?strMgr@?1??GetInstance@CAtlStringMgr@ATL@@SAPAUIAtlStringMgr@3@XZ@4V23@A+4, OFFSET ?strHeap@?1??GetInstance@CAtlStringMgr@ATL@@SAPAUIAtlStringMgr@3@XZ@4VCWin32Heap@3@A ; `ATL::CAtlStringMgr::GetInstance'::`2'::strHeap
; File C:\Program Files (x86)\Microsoft Visual Studio\2019\Community\VC\Tools\MSVC\14.29.30133\atlmfc\include\atlsimpstr.h

; 115  : 		nRefs = 2;  // Never gets freed by IAtlStringMgr

  000a8	c7 05 14 00 00
	00 02 00 00 00	 mov	 DWORD PTR ?strMgr@?1??GetInstance@CAtlStringMgr@ATL@@SAPAUIAtlStringMgr@3@XZ@4V23@A+20, 2

; 116  : 		nDataLength = 0;

  000b2	c7 05 0c 00 00
	00 00 00 00 00	 mov	 DWORD PTR ?strMgr@?1??GetInstance@CAtlStringMgr@ATL@@SAPAUIAtlStringMgr@3@XZ@4V23@A+12, 0

; 117  : 		nAllocLength = 0;

  000bc	c7 05 10 00 00
	00 00 00 00 00	 mov	 DWORD PTR ?strMgr@?1??GetInstance@CAtlStringMgr@ATL@@SAPAUIAtlStringMgr@3@XZ@4V23@A+16, 0

; 118  : 		achNil[0] = 0;

  000c6	a3 18 00 00 00	 mov	 DWORD PTR ?strMgr@?1??GetInstance@CAtlStringMgr@ATL@@SAPAUIAtlStringMgr@3@XZ@4V23@A+24, eax
; File C:\Program Files (x86)\Microsoft Visual Studio\2019\Community\VC\Tools\MSVC\14.29.30133\atlmfc\include\atlstr.h

; 41   : 		m_nil.SetManager( this );

  000cb	c7 05 08 00 00
	00 00 00 00 00	 mov	 DWORD PTR ?strMgr@?1??GetInstance@CAtlStringMgr@ATL@@SAPAUIAtlStringMgr@3@XZ@4V23@A+8, OFFSET ?strMgr@?1??GetInstance@CAtlStringMgr@ATL@@SAPAUIAtlStringMgr@3@XZ@4V23@A ; `ATL::CAtlStringMgr::GetInstance'::`2'::strMgr

; 58   : 		static CAtlStringMgr strMgr(&strHeap);

  000d5	e8 00 00 00 00	 call	 _atexit
  000da	68 00 00 00 00	 push	 OFFSET ?$TSS1@?1??GetInstance@CAtlStringMgr@ATL@@SAPAUIAtlStringMgr@3@XZ@4HA ; `ATL::CAtlStringMgr::GetInstance'::`2'::$TSS1
  000df	e8 00 00 00 00	 call	 __Init_thread_footer
  000e4	83 c4 08	 add	 esp, 8
  000e7	e9 3f ff ff ff	 jmp	 $LN7@dynamic
??__EInitializeCAtlStringMgr@ATLImplementationDetails@ATL@@YAXXZ ENDP ; ATL::ATLImplementationDetails::`dynamic initializer for 'InitializeCAtlStringMgr''
text$di	ENDS
; Function compile flags: /Ogtp
; File C:\Program Files (x86)\Microsoft Visual Studio\2019\Community\VC\Tools\MSVC\14.29.30133\atlmfc\include\atlstr.h
;	COMDAT ?EnsureLinked@CAtlStringMgrStaticInitializer@ATLImplementationDetails@ATL@@QAEPAXXZ
_TEXT	SEGMENT
?EnsureLinked@CAtlStringMgrStaticInitializer@ATLImplementationDetails@ATL@@QAEPAXXZ PROC ; ATL::ATLImplementationDetails::CAtlStringMgrStaticInitializer::EnsureLinked, COMDAT
; _this$ = ecx

; 171  : 		return this;

  00000	8b c1		 mov	 eax, ecx

; 172  : 	}

  00002	c3		 ret	 0
?EnsureLinked@CAtlStringMgrStaticInitializer@ATLImplementationDetails@ATL@@QAEPAXXZ ENDP ; ATL::ATLImplementationDetails::CAtlStringMgrStaticInitializer::EnsureLinked
_TEXT	ENDS
; Function compile flags: /Ogtp
; File C:\Program Files (x86)\Microsoft Visual Studio\2019\Community\VC\Tools\MSVC\14.29.30133\atlmfc\include\atlstr.h
;	COMDAT ??__FstrMgr@?1??GetInstance@CAtlStringMgr@ATL@@SAPAUIAtlStringMgr@2@XZ@YAXXZ
text$yd	SEGMENT
??__FstrMgr@?1??GetInstance@CAtlStringMgr@ATL@@SAPAUIAtlStringMgr@2@XZ@YAXXZ PROC ; `ATL::CAtlStringMgr::GetInstance'::`2'::`dynamic atexit destructor for 'strMgr'', COMDAT

; 44   : 	{

  00000	c7 05 00 00 00
	00 00 00 00 00	 mov	 DWORD PTR ?strMgr@?1??GetInstance@CAtlStringMgr@ATL@@SAPAUIAtlStringMgr@3@XZ@4V23@A, OFFSET ??_7CAtlStringMgr@ATL@@6B@

; 45   : 		isInitialized = false;

  0000a	c6 05 00 00 00
	00 00		 mov	 BYTE PTR ?isInitialized@CAtlStringMgr@ATL@@0_NA, 0 ; ATL::CAtlStringMgr::isInitialized
  00011	c3		 ret	 0
??__FstrMgr@?1??GetInstance@CAtlStringMgr@ATL@@SAPAUIAtlStringMgr@2@XZ@YAXXZ ENDP ; `ATL::CAtlStringMgr::GetInstance'::`2'::`dynamic atexit destructor for 'strMgr''
text$yd	ENDS
; Function compile flags: /Ogtp
; File C:\Program Files (x86)\Microsoft Visual Studio\2019\Community\VC\Tools\MSVC\14.29.30133\atlmfc\include\atlmem.h
;	COMDAT ??__FstrHeap@?1??GetInstance@CAtlStringMgr@ATL@@SAPAUIAtlStringMgr@2@XZ@YAXXZ
text$yd	SEGMENT
??__FstrHeap@?1??GetInstance@CAtlStringMgr@ATL@@SAPAUIAtlStringMgr@2@XZ@YAXXZ PROC ; `ATL::CAtlStringMgr::GetInstance'::`2'::`dynamic atexit destructor for 'strHeap'', COMDAT

; 111  : 		if( m_bOwnHeap && (m_hHeap != NULL) )

  00000	80 3d 08 00 00
	00 00		 cmp	 BYTE PTR ?strHeap@?1??GetInstance@CAtlStringMgr@ATL@@SAPAUIAtlStringMgr@3@XZ@4VCWin32Heap@3@A+8, 0
  00007	c7 05 00 00 00
	00 00 00 00 00	 mov	 DWORD PTR ?strHeap@?1??GetInstance@CAtlStringMgr@ATL@@SAPAUIAtlStringMgr@3@XZ@4VCWin32Heap@3@A, OFFSET ??_7CWin32Heap@ATL@@6B@
  00011	74 10		 je	 SHORT $LN4@dynamic
  00013	a1 04 00 00 00	 mov	 eax, DWORD PTR ?strHeap@?1??GetInstance@CAtlStringMgr@ATL@@SAPAUIAtlStringMgr@3@XZ@4VCWin32Heap@3@A+4
  00018	85 c0		 test	 eax, eax
  0001a	74 07		 je	 SHORT $LN4@dynamic

; 112  : 		{
; 113  : 			BOOL bSuccess;
; 114  : 
; 115  : 			bSuccess = ::HeapDestroy( m_hHeap );

  0001c	50		 push	 eax
  0001d	ff 15 00 00 00
	00		 call	 DWORD PTR __imp__HeapDestroy@4
$LN4@dynamic:
  00023	c3		 ret	 0
??__FstrHeap@?1??GetInstance@CAtlStringMgr@ATL@@SAPAUIAtlStringMgr@2@XZ@YAXXZ ENDP ; `ATL::CAtlStringMgr::GetInstance'::`2'::`dynamic atexit destructor for 'strHeap''
text$yd	ENDS
; Function compile flags: /Ogtp
; File C:\Program Files (x86)\Microsoft Visual Studio\2019\Community\VC\Tools\MSVC\14.29.30133\atlmfc\include\atlstr.h
;	COMDAT ??_GCAtlStringMgr@ATL@@UAEPAXI@Z
_TEXT	SEGMENT
___flags$ = 8						; size = 4
??_GCAtlStringMgr@ATL@@UAEPAXI@Z PROC			; ATL::CAtlStringMgr::`scalar deleting destructor', COMDAT
; _this$ = ecx
  00000	55		 push	 ebp
  00001	8b ec		 mov	 ebp, esp
  00003	f6 45 08 01	 test	 BYTE PTR ___flags$[ebp], 1

; 44   : 	{

  00007	56		 push	 esi
  00008	8b f1		 mov	 esi, ecx
  0000a	c7 06 00 00 00
	00		 mov	 DWORD PTR [esi], OFFSET ??_7CAtlStringMgr@ATL@@6B@

; 45   : 		isInitialized = false;

  00010	c6 05 00 00 00
	00 00		 mov	 BYTE PTR ?isInitialized@CAtlStringMgr@ATL@@0_NA, 0 ; ATL::CAtlStringMgr::isInitialized
  00017	74 0b		 je	 SHORT $LN6@scalar
  00019	6a 1c		 push	 28			; 0000001cH
  0001b	56		 push	 esi
  0001c	e8 00 00 00 00	 call	 ??3@YAXPAXI@Z		; operator delete
  00021	83 c4 08	 add	 esp, 8
$LN6@scalar:
  00024	8b c6		 mov	 eax, esi
  00026	5e		 pop	 esi
  00027	5d		 pop	 ebp
  00028	c2 04 00	 ret	 4
??_GCAtlStringMgr@ATL@@UAEPAXI@Z ENDP			; ATL::CAtlStringMgr::`scalar deleting destructor'
_TEXT	ENDS
; Function compile flags: /Ogtp
; File C:\Program Files (x86)\Microsoft Visual Studio\2019\Community\VC\Tools\MSVC\14.29.30133\atlmfc\include\atlstr.h
;	COMDAT ?Clone@CAtlStringMgr@ATL@@UAEPAUIAtlStringMgr@2@XZ
_TEXT	SEGMENT
?Clone@CAtlStringMgr@ATL@@UAEPAUIAtlStringMgr@2@XZ PROC	; ATL::CAtlStringMgr::Clone, COMDAT
; _this$ = ecx

; 148  : 		return this;

  00000	8b c1		 mov	 eax, ecx

; 149  : 	}

  00002	c3		 ret	 0
?Clone@CAtlStringMgr@ATL@@UAEPAUIAtlStringMgr@2@XZ ENDP	; ATL::CAtlStringMgr::Clone
_TEXT	ENDS
; Function compile flags: /Ogtp
; File C:\Program Files (x86)\Microsoft Visual Studio\2019\Community\VC\Tools\MSVC\14.29.30133\atlmfc\include\atlstr.h
; File C:\Program Files (x86)\Microsoft Visual Studio\2019\Community\VC\Tools\MSVC\14.29.30133\atlmfc\include\atlsimpstr.h
; File C:\Program Files (x86)\Microsoft Visual Studio\2019\Community\VC\Tools\MSVC\14.29.30133\atlmfc\include\atlstr.h
;	COMDAT ?GetNilString@CAtlStringMgr@ATL@@UAEPAUCStringData@2@XZ
_TEXT	SEGMENT
?GetNilString@CAtlStringMgr@ATL@@UAEPAUCStringData@2@XZ PROC ; ATL::CAtlStringMgr::GetNilString, COMDAT
; _this$ = ecx
; File C:\Program Files (x86)\Microsoft Visual Studio\2019\Community\VC\Tools\MSVC\14.29.30133\atlmfc\include\atlsimpstr.h

; 65   : 		_InterlockedIncrement(&nRefs);

  00000	f0 ff 41 14	 lock	  inc	 DWORD PTR [ecx+20]
; File C:\Program Files (x86)\Microsoft Visual Studio\2019\Community\VC\Tools\MSVC\14.29.30133\atlmfc\include\atlstr.h

; 144  : 		return &m_nil;

  00004	8d 41 08	 lea	 eax, DWORD PTR [ecx+8]

; 145  : 	}

  00007	c3		 ret	 0
?GetNilString@CAtlStringMgr@ATL@@UAEPAUCStringData@2@XZ ENDP ; ATL::CAtlStringMgr::GetNilString
_TEXT	ENDS
; Function compile flags: /Ogtp
; File C:\Program Files (x86)\Microsoft Visual Studio\2019\Community\VC\Tools\MSVC\14.29.30133\atlmfc\include\atlstr.h
; File C:\Program Files (x86)\Microsoft Visual Studio\2019\Community\VC\Tools\MSVC\14.29.30133\atlmfc\include\atlalloc.h
; File C:\Program Files (x86)\Microsoft Visual Studio\2019\Community\VC\Tools\MSVC\14.29.30133\atlmfc\include\atlmem.h
; File C:\Program Files (x86)\Microsoft Visual Studio\2019\Community\VC\Tools\MSVC\14.29.30133\atlmfc\include\atlstr.h
; File C:\Program Files (x86)\Microsoft Visual Studio\2019\Community\VC\Tools\MSVC\14.29.30133\atlmfc\include\atlalloc.h
; File C:\Program Files (x86)\Microsoft Visual Studio\2019\Community\VC\Tools\MSVC\14.29.30133\atlmfc\include\atlstr.h
; File C:\Program Files (x86)\Microsoft Visual Studio\2019\Community\VC\Tools\MSVC\14.29.30133\atlmfc\include\atlalloc.h
; File C:\Program Files (x86)\Microsoft Visual Studio\2019\Community\VC\Tools\MSVC\14.29.30133\atlmfc\include\atlstr.h
;	COMDAT ?Reallocate@CAtlStringMgr@ATL@@UAEPAUCStringData@2@PAU32@HH@Z
_TEXT	SEGMENT
_pData$ = 8						; size = 4
_nChars$ = 12						; size = 4
_nCharSize$ = 16					; size = 4
?Reallocate@CAtlStringMgr@ATL@@UAEPAUCStringData@2@PAU32@HH@Z PROC ; ATL::CAtlStringMgr::Reallocate, COMDAT
; _this$ = ecx

; 111  : 	{

  00000	55		 push	 ebp
  00001	8b ec		 mov	 ebp, esp

; 112  : 		ATLENSURE_RETURN_VAL( nChars>=0, NULL );

  00003	8b 55 0c	 mov	 edx, DWORD PTR _nChars$[ebp]
  00006	56		 push	 esi
  00007	85 d2		 test	 edx, edx
  00009	78 4a		 js	 SHORT $LN12@Reallocate
; File C:\Program Files (x86)\Microsoft Visual Studio\2019\Community\VC\Tools\MSVC\14.29.30133\atlmfc\include\atlalloc.h

; 85   : 	if(::ATL::AtlLimits<T>::_Max-tLeft < tRight)

  0000b	b8 ff ff ff 7f	 mov	 eax, 2147483647		; 7fffffffH
  00010	2b c2		 sub	 eax, edx
  00012	83 f8 01	 cmp	 eax, 1
  00015	7c 3e		 jl	 SHORT $LN12@Reallocate

; 89   : 	*ptResult= tLeft + tRight;

  00017	42		 inc	 edx
; File C:\Program Files (x86)\Microsoft Visual Studio\2019\Community\VC\Tools\MSVC\14.29.30133\atlmfc\include\atlmem.h

; 29   : 	return( N( (n+(nAlign-1))&~(N( nAlign )-1) ) );

  00018	8d 72 07	 lea	 esi, DWORD PTR [edx+7]
  0001b	83 e6 f8	 and	 esi, -8			; fffffff8H
; File C:\Program Files (x86)\Microsoft Visual Studio\2019\Community\VC\Tools\MSVC\14.29.30133\atlmfc\include\atlstr.h

; 125  : 		ATLENSURE_RETURN_VAL( nChars<=nAlignedChars, NULL );

  0001e	3b d6		 cmp	 edx, esi
  00020	7f 33		 jg	 SHORT $LN12@Reallocate
; File C:\Program Files (x86)\Microsoft Visual Studio\2019\Community\VC\Tools\MSVC\14.29.30133\atlmfc\include\atlalloc.h

; 166  : 	unsigned __int64 i64Result=static_cast<unsigned __int64>(iLeft) * static_cast<unsigned __int64>(iRight);

  00022	8b c6		 mov	 eax, esi
  00024	f7 65 10	 mul	 DWORD PTR _nCharSize$[ebp]

; 167  : 	if(i64Result>ULONG_MAX)

  00027	85 d2		 test	 edx, edx
  00029	77 2a		 ja	 SHORT $LN12@Reallocate
  0002b	72 05		 jb	 SHORT $LN41@Reallocate
  0002d	83 f8 ff	 cmp	 eax, -1
  00030	77 23		 ja	 SHORT $LN12@Reallocate
$LN41@Reallocate:

; 85   : 	if(::ATL::AtlLimits<T>::_Max-tLeft < tRight)

  00032	83 f8 ef	 cmp	 eax, -17		; ffffffefH
  00035	77 1e		 ja	 SHORT $LN12@Reallocate
; File C:\Program Files (x86)\Microsoft Visual Studio\2019\Community\VC\Tools\MSVC\14.29.30133\atlmfc\include\atlstr.h

; 132  : 		pNewData = static_cast< CStringData* >( m_pMemMgr->Reallocate( pData, nTotalSize ) );

  00037	8b 49 04	 mov	 ecx, DWORD PTR [ecx+4]
; File C:\Program Files (x86)\Microsoft Visual Studio\2019\Community\VC\Tools\MSVC\14.29.30133\atlmfc\include\atlalloc.h

; 89   : 	*ptResult= tLeft + tRight;

  0003a	83 c0 10	 add	 eax, 16			; 00000010H
; File C:\Program Files (x86)\Microsoft Visual Studio\2019\Community\VC\Tools\MSVC\14.29.30133\atlmfc\include\atlstr.h

; 132  : 		pNewData = static_cast< CStringData* >( m_pMemMgr->Reallocate( pData, nTotalSize ) );

  0003d	50		 push	 eax
  0003e	ff 75 08	 push	 DWORD PTR _pData$[ebp]
  00041	8b 11		 mov	 edx, DWORD PTR [ecx]
  00043	ff 52 08	 call	 DWORD PTR [edx+8]

; 133  : 		if( pNewData == NULL )

  00046	85 c0		 test	 eax, eax
  00048	74 0b		 je	 SHORT $LN12@Reallocate

; 134  : 		{
; 135  : 			return NULL;
; 136  : 		}
; 137  : 		pNewData->nAllocLength = nAlignedChars - 1;

  0004a	8d 4e ff	 lea	 ecx, DWORD PTR [esi-1]
  0004d	89 48 08	 mov	 DWORD PTR [eax+8], ecx
  00050	5e		 pop	 esi

; 138  : 
; 139  : 		return pNewData;
; 140  : 	}

  00051	5d		 pop	 ebp
  00052	c2 0c 00	 ret	 12			; 0000000cH
$LN12@Reallocate:

; 126  : 
; 127  : 		if(	FAILED(::ATL::AtlMultiply(&nDataBytes, static_cast<ULONG>(nAlignedChars), static_cast<ULONG>(nCharSize))) ||
; 128  : 			FAILED(::ATL::AtlAdd(&nTotalSize, static_cast<ULONG>(sizeof( CStringData )), nDataBytes)))
; 129  : 		{
; 130  : 			return NULL;

  00055	33 c0		 xor	 eax, eax
  00057	5e		 pop	 esi

; 138  : 
; 139  : 		return pNewData;
; 140  : 	}

  00058	5d		 pop	 ebp
  00059	c2 0c 00	 ret	 12			; 0000000cH
?Reallocate@CAtlStringMgr@ATL@@UAEPAUCStringData@2@PAU32@HH@Z ENDP ; ATL::CAtlStringMgr::Reallocate
_TEXT	ENDS
; Function compile flags: /Ogtp
; File C:\Program Files (x86)\Microsoft Visual Studio\2019\Community\VC\Tools\MSVC\14.29.30133\atlmfc\include\atlstr.h
;	COMDAT ?Free@CAtlStringMgr@ATL@@UAEXPAUCStringData@2@@Z
_TEXT	SEGMENT
_pData$ = 8						; size = 4
?Free@CAtlStringMgr@ATL@@UAEXPAUCStringData@2@@Z PROC	; ATL::CAtlStringMgr::Free, COMDAT
; _this$ = ecx

; 101  : 	{

  00000	55		 push	 ebp
  00001	8b ec		 mov	 ebp, esp

; 102  : 		ATLASSUME(pData != NULL);
; 103  : 		ATLASSERT(pData->pStringMgr == this);
; 104  : 
; 105  : 		m_pMemMgr->Free( pData );

  00003	8b 49 04	 mov	 ecx, DWORD PTR [ecx+4]
  00006	8b 01		 mov	 eax, DWORD PTR [ecx]

; 106  : 	}

  00008	5d		 pop	 ebp

; 102  : 		ATLASSUME(pData != NULL);
; 103  : 		ATLASSERT(pData->pStringMgr == this);
; 104  : 
; 105  : 		m_pMemMgr->Free( pData );

  00009	ff 60 04	 jmp	 DWORD PTR [eax+4]
?Free@CAtlStringMgr@ATL@@UAEXPAUCStringData@2@@Z ENDP	; ATL::CAtlStringMgr::Free
_TEXT	ENDS
; Function compile flags: /Ogtp
; File C:\Program Files (x86)\Microsoft Visual Studio\2019\Community\VC\Tools\MSVC\14.29.30133\atlmfc\include\atlstr.h
; File C:\Program Files (x86)\Microsoft Visual Studio\2019\Community\VC\Tools\MSVC\14.29.30133\atlmfc\include\atlalloc.h
; File C:\Program Files (x86)\Microsoft Visual Studio\2019\Community\VC\Tools\MSVC\14.29.30133\atlmfc\include\atlmem.h
; File C:\Program Files (x86)\Microsoft Visual Studio\2019\Community\VC\Tools\MSVC\14.29.30133\atlmfc\include\atlstr.h
; File C:\Program Files (x86)\Microsoft Visual Studio\2019\Community\VC\Tools\MSVC\14.29.30133\atlmfc\include\atlalloc.h
; File C:\Program Files (x86)\Microsoft Visual Studio\2019\Community\VC\Tools\MSVC\14.29.30133\atlmfc\include\atlstr.h
; File C:\Program Files (x86)\Microsoft Visual Studio\2019\Community\VC\Tools\MSVC\14.29.30133\atlmfc\include\atlalloc.h
; File C:\Program Files (x86)\Microsoft Visual Studio\2019\Community\VC\Tools\MSVC\14.29.30133\atlmfc\include\atlstr.h
;	COMDAT ?Allocate@CAtlStringMgr@ATL@@UAEPAUCStringData@2@HH@Z
_TEXT	SEGMENT
_nChars$ = 8						; size = 4
_nCharSize$ = 12					; size = 4
?Allocate@CAtlStringMgr@ATL@@UAEPAUCStringData@2@HH@Z PROC ; ATL::CAtlStringMgr::Allocate, COMDAT
; _this$ = ecx

; 68   : 	{

  00000	55		 push	 ebp
  00001	8b ec		 mov	 ebp, esp

; 69   : 		ATLENSURE_RETURN_VAL( nChars>=0, NULL );

  00003	8b 55 08	 mov	 edx, DWORD PTR _nChars$[ebp]
  00006	56		 push	 esi
  00007	57		 push	 edi
  00008	8b f9		 mov	 edi, ecx
  0000a	85 d2		 test	 edx, edx
  0000c	78 57		 js	 SHORT $LN12@Allocate
; File C:\Program Files (x86)\Microsoft Visual Studio\2019\Community\VC\Tools\MSVC\14.29.30133\atlmfc\include\atlalloc.h

; 85   : 	if(::ATL::AtlLimits<T>::_Max-tLeft < tRight)

  0000e	b8 ff ff ff 7f	 mov	 eax, 2147483647		; 7fffffffH
  00013	2b c2		 sub	 eax, edx
  00015	83 f8 01	 cmp	 eax, 1
  00018	7c 4b		 jl	 SHORT $LN12@Allocate

; 89   : 	*ptResult= tLeft + tRight;

  0001a	42		 inc	 edx
; File C:\Program Files (x86)\Microsoft Visual Studio\2019\Community\VC\Tools\MSVC\14.29.30133\atlmfc\include\atlmem.h

; 29   : 	return( N( (n+(nAlign-1))&~(N( nAlign )-1) ) );

  0001b	8d 72 07	 lea	 esi, DWORD PTR [edx+7]
  0001e	83 e6 f8	 and	 esi, -8			; fffffff8H
; File C:\Program Files (x86)\Microsoft Visual Studio\2019\Community\VC\Tools\MSVC\14.29.30133\atlmfc\include\atlstr.h

; 81   : 		ATLENSURE_RETURN_VAL( nChars<=nAlignedChars, NULL );

  00021	3b d6		 cmp	 edx, esi
  00023	7f 40		 jg	 SHORT $LN12@Allocate
; File C:\Program Files (x86)\Microsoft Visual Studio\2019\Community\VC\Tools\MSVC\14.29.30133\atlmfc\include\atlalloc.h

; 136  : 	unsigned __int64 i64Result=static_cast<unsigned __int64>(iLeft) * static_cast<unsigned __int64>(iRight);

  00025	8b c6		 mov	 eax, esi
  00027	f7 65 0c	 mul	 DWORD PTR _nCharSize$[ebp]

; 137  : 	if(i64Result>UINT_MAX)

  0002a	85 d2		 test	 edx, edx
  0002c	77 37		 ja	 SHORT $LN12@Allocate
  0002e	72 05		 jb	 SHORT $LN41@Allocate
  00030	83 f8 ff	 cmp	 eax, -1
  00033	77 30		 ja	 SHORT $LN12@Allocate
$LN41@Allocate:

; 85   : 	if(::ATL::AtlLimits<T>::_Max-tLeft < tRight)

  00035	83 f8 ef	 cmp	 eax, -17		; ffffffefH
  00038	77 2b		 ja	 SHORT $LN12@Allocate
; File C:\Program Files (x86)\Microsoft Visual Studio\2019\Community\VC\Tools\MSVC\14.29.30133\atlmfc\include\atlstr.h

; 88   : 		pData = static_cast< CStringData* >( m_pMemMgr->Allocate( nTotalSize ) );

  0003a	8b 4f 04	 mov	 ecx, DWORD PTR [edi+4]
; File C:\Program Files (x86)\Microsoft Visual Studio\2019\Community\VC\Tools\MSVC\14.29.30133\atlmfc\include\atlalloc.h

; 89   : 	*ptResult= tLeft + tRight;

  0003d	8d 50 10	 lea	 edx, DWORD PTR [eax+16]
; File C:\Program Files (x86)\Microsoft Visual Studio\2019\Community\VC\Tools\MSVC\14.29.30133\atlmfc\include\atlstr.h

; 88   : 		pData = static_cast< CStringData* >( m_pMemMgr->Allocate( nTotalSize ) );

  00040	52		 push	 edx
  00041	8b 01		 mov	 eax, DWORD PTR [ecx]
  00043	ff 10		 call	 DWORD PTR [eax]

; 89   : 		if( pData == NULL )

  00045	85 c0		 test	 eax, eax
  00047	74 1c		 je	 SHORT $LN12@Allocate

; 90   : 		{
; 91   : 			return( NULL );
; 92   : 		}
; 93   : 		pData->pStringMgr = this;

  00049	89 38		 mov	 DWORD PTR [eax], edi

; 94   : 		pData->nRefs = 1;
; 95   : 		pData->nAllocLength = nAlignedChars - 1;

  0004b	8d 4e ff	 lea	 ecx, DWORD PTR [esi-1]
  0004e	5f		 pop	 edi
  0004f	c7 40 0c 01 00
	00 00		 mov	 DWORD PTR [eax+12], 1
  00056	89 48 08	 mov	 DWORD PTR [eax+8], ecx

; 96   : 		pData->nDataLength = 0;

  00059	c7 40 04 00 00
	00 00		 mov	 DWORD PTR [eax+4], 0

; 97   : 
; 98   : 		return( pData );
; 99   : 	}

  00060	5e		 pop	 esi
  00061	5d		 pop	 ebp
  00062	c2 08 00	 ret	 8
$LN12@Allocate:
  00065	5f		 pop	 edi

; 82   : 
; 83   : 		if(	FAILED(::ATL::AtlMultiply(&nDataBytes, static_cast<size_t>(nAlignedChars), static_cast<size_t>(nCharSize))) ||
; 84   : 			FAILED(::ATL::AtlAdd(&nTotalSize, static_cast<size_t>(sizeof( CStringData )), nDataBytes)))
; 85   : 		{
; 86   : 			return NULL;

  00066	33 c0		 xor	 eax, eax

; 97   : 
; 98   : 		return( pData );
; 99   : 	}

  00068	5e		 pop	 esi
  00069	5d		 pop	 ebp
  0006a	c2 08 00	 ret	 8
?Allocate@CAtlStringMgr@ATL@@UAEPAUCStringData@2@HH@Z ENDP ; ATL::CAtlStringMgr::Allocate
_TEXT	ENDS
; Function compile flags: /Ogtp
; File C:\Program Files (x86)\Microsoft Visual Studio\2019\Community\VC\Tools\MSVC\14.29.30133\atlmfc\include\atlstr.h
;	COMDAT ??1CAtlStringMgr@ATL@@UAE@XZ
_TEXT	SEGMENT
??1CAtlStringMgr@ATL@@UAE@XZ PROC			; ATL::CAtlStringMgr::~CAtlStringMgr, COMDAT
; _this$ = ecx

; 44   : 	{

  00000	c7 01 00 00 00
	00		 mov	 DWORD PTR [ecx], OFFSET ??_7CAtlStringMgr@ATL@@6B@

; 45   : 		isInitialized = false;

  00006	c6 05 00 00 00
	00 00		 mov	 BYTE PTR ?isInitialized@CAtlStringMgr@ATL@@0_NA, 0 ; ATL::CAtlStringMgr::isInitialized

; 46   : 	}

  0000d	c3		 ret	 0
??1CAtlStringMgr@ATL@@UAE@XZ ENDP			; ATL::CAtlStringMgr::~CAtlStringMgr
_TEXT	ENDS
; Function compile flags: /Ogtp
; File C:\Program Files (x86)\Microsoft Visual Studio\2019\Community\VC\Tools\MSVC\14.29.30133\atlmfc\include\atlbase.h
; File C:\Program Files (x86)\Microsoft Visual Studio\2019\Community\VC\Tools\MSVC\14.29.30133\atlmfc\include\atlsimpcoll.h
; File C:\Program Files (x86)\Microsoft Visual Studio\2019\Community\VC\Tools\MSVC\14.29.30133\atlmfc\include\atlbase.h
; File C:\Program Files (x86)\Microsoft Visual Studio\2019\Community\VC\Tools\MSVC\14.29.30133\atlmfc\include\atlsimpcoll.h
; File C:\Program Files (x86)\Microsoft Visual Studio\2019\Community\VC\Tools\MSVC\14.29.30133\atlmfc\include\atlcore.h
; File C:\Program Files (x86)\Microsoft Visual Studio\2019\Community\VC\Tools\MSVC\14.29.30133\atlmfc\include\atlsimpcoll.h
; File C:\Program Files (x86)\Microsoft Visual Studio\2019\Community\VC\Tools\MSVC\14.29.30133\atlmfc\include\atlcore.h
; File C:\Program Files (x86)\Microsoft Visual Studio\2019\Community\VC\Tools\MSVC\14.29.30133\atlmfc\include\atlbase.h
; File C:\Program Files (x86)\Microsoft Visual Studio\2019\Community\VC\Tools\MSVC\14.29.30133\atlmfc\include\atlsimpcoll.h
;	COMDAT ??__F_AtlWinModule@ATL@@YAXXZ
text$yd	SEGMENT
??__F_AtlWinModule@ATL@@YAXXZ PROC			; ATL::`dynamic atexit destructor for '_AtlWinModule'', COMDAT
; File C:\Program Files (x86)\Microsoft Visual Studio\2019\Community\VC\Tools\MSVC\14.29.30133\atlmfc\include\atlbase.h

; 7655 : 	if (pWinModule->cbSize == 0)

  00000	a1 00 00 00 00	 mov	 eax, DWORD PTR ?_AtlWinModule@ATL@@3VCAtlWinModule@1@A
  00005	8b 0d 00 00 00
	00		 mov	 ecx, DWORD PTR __imp__free

; 2957 : 		AtlWinModuleTerm(this, _AtlBaseModule.GetModuleInstance());

  0000b	57		 push	 edi
  0000c	8b 3d 04 00 00
	00		 mov	 edi, DWORD PTR ?_AtlBaseModule@ATL@@3VCAtlBaseModule@1@A+4

; 7655 : 	if (pWinModule->cbSize == 0)

  00012	85 c0		 test	 eax, eax
  00014	0f 84 93 00 00
	00		 je	 $LN8@dynamic

; 7656 : 		return S_OK;
; 7657 : 	if (pWinModule->cbSize != sizeof(_ATL_WIN_MODULE))

  0001a	83 f8 2c	 cmp	 eax, 44			; 0000002cH
  0001d	0f 85 8a 00 00
	00		 jne	 $LN8@dynamic

; 7658 : 		return E_INVALIDARG;
; 7659 : 
; 7660 : 	for (int i = 0; i < pWinModule->m_rgWindowClassAtoms.GetSize(); i++)

  00023	a1 24 00 00 00	 mov	 eax, DWORD PTR ?_AtlWinModule@ATL@@3VCAtlWinModule@1@A+36
  00028	56		 push	 esi
  00029	33 f6		 xor	 esi, esi
  0002b	85 c0		 test	 eax, eax
  0002d	7e 35		 jle	 SHORT $LN10@dynamic
  0002f	53		 push	 ebx
  00030	8b 1d 00 00 00
	00		 mov	 ebx, DWORD PTR __imp__UnregisterClassA@8
$LL11@dynamic:
; File C:\Program Files (x86)\Microsoft Visual Studio\2019\Community\VC\Tools\MSVC\14.29.30133\atlmfc\include\atlsimpcoll.h

; 238  : 		if(nIndex < 0 || nIndex >= m_nSize)

  00036	85 f6		 test	 esi, esi
  00038	0f 88 9e 00 00
	00		 js	 $LN46@dynamic
  0003e	3b f0		 cmp	 esi, eax
  00040	0f 8d 96 00 00
	00		 jge	 $LN46@dynamic
; File C:\Program Files (x86)\Microsoft Visual Studio\2019\Community\VC\Tools\MSVC\14.29.30133\atlmfc\include\atlbase.h

; 7661 : 		UnregisterClass((LPCTSTR)pWinModule->m_rgWindowClassAtoms[i], hInst);

  00046	a1 20 00 00 00	 mov	 eax, DWORD PTR ?_AtlWinModule@ATL@@3VCAtlWinModule@1@A+32
  0004b	57		 push	 edi
  0004c	0f b7 04 70	 movzx	 eax, WORD PTR [eax+esi*2]
  00050	50		 push	 eax
  00051	ff d3		 call	 ebx
  00053	a1 24 00 00 00	 mov	 eax, DWORD PTR ?_AtlWinModule@ATL@@3VCAtlWinModule@1@A+36
  00058	46		 inc	 esi
  00059	3b f0		 cmp	 esi, eax
  0005b	7c d9		 jl	 SHORT $LL11@dynamic
; File C:\Program Files (x86)\Microsoft Visual Studio\2019\Community\VC\Tools\MSVC\14.29.30133\atlmfc\include\atlsimpcoll.h

; 238  : 		if(nIndex < 0 || nIndex >= m_nSize)

  0005d	8b 0d 00 00 00
	00		 mov	 ecx, DWORD PTR __imp__free
  00063	5b		 pop	 ebx
$LN10@dynamic:

; 216  : 		if(m_aT != NULL)

  00064	a1 20 00 00 00	 mov	 eax, DWORD PTR ?_AtlWinModule@ATL@@3VCAtlWinModule@1@A+32
  00069	5e		 pop	 esi
  0006a	85 c0		 test	 eax, eax
  0006c	74 10		 je	 SHORT $LN25@dynamic

; 217  : 		{
; 218  : 			for(int i = 0; i < m_nSize; i++)
; 219  : 				m_aT[i].~T();
; 220  : 			free(m_aT);

  0006e	50		 push	 eax
  0006f	ff d1		 call	 ecx
  00071	83 c4 04	 add	 esp, 4

; 221  : 			m_aT = NULL;

  00074	c7 05 20 00 00
	00 00 00 00 00	 mov	 DWORD PTR ?_AtlWinModule@ATL@@3VCAtlWinModule@1@A+32, 0
$LN25@dynamic:
; File C:\Program Files (x86)\Microsoft Visual Studio\2019\Community\VC\Tools\MSVC\14.29.30133\atlmfc\include\atlcore.h

; 155  : 		DeleteCriticalSection(&m_sec);

  0007e	68 04 00 00 00	 push	 OFFSET ?_AtlWinModule@ATL@@3VCAtlWinModule@1@A+4
; File C:\Program Files (x86)\Microsoft Visual Studio\2019\Community\VC\Tools\MSVC\14.29.30133\atlmfc\include\atlsimpcoll.h

; 223  : 		m_nSize = 0;

  00083	c7 05 24 00 00
	00 00 00 00 00	 mov	 DWORD PTR ?_AtlWinModule@ATL@@3VCAtlWinModule@1@A+36, 0

; 224  : 		m_nAllocSize = 0;

  0008d	c7 05 28 00 00
	00 00 00 00 00	 mov	 DWORD PTR ?_AtlWinModule@ATL@@3VCAtlWinModule@1@A+40, 0
; File C:\Program Files (x86)\Microsoft Visual Studio\2019\Community\VC\Tools\MSVC\14.29.30133\atlmfc\include\atlcore.h

; 155  : 		DeleteCriticalSection(&m_sec);

  00097	ff 15 00 00 00
	00		 call	 DWORD PTR __imp__DeleteCriticalSection@4
; File C:\Program Files (x86)\Microsoft Visual Studio\2019\Community\VC\Tools\MSVC\14.29.30133\atlmfc\include\atlbase.h

; 7664 : 	pWinModule->cbSize = 0;

  0009d	8b 0d 00 00 00
	00		 mov	 ecx, DWORD PTR __imp__free
  000a3	c7 05 00 00 00
	00 00 00 00 00	 mov	 DWORD PTR ?_AtlWinModule@ATL@@3VCAtlWinModule@1@A, 0
$LN8@dynamic:
; File C:\Program Files (x86)\Microsoft Visual Studio\2019\Community\VC\Tools\MSVC\14.29.30133\atlmfc\include\atlsimpcoll.h

; 216  : 		if(m_aT != NULL)

  000ad	a1 20 00 00 00	 mov	 eax, DWORD PTR ?_AtlWinModule@ATL@@3VCAtlWinModule@1@A+32
  000b2	5f		 pop	 edi
  000b3	85 c0		 test	 eax, eax
  000b5	74 10		 je	 SHORT $LN40@dynamic

; 217  : 		{
; 218  : 			for(int i = 0; i < m_nSize; i++)
; 219  : 				m_aT[i].~T();
; 220  : 			free(m_aT);

  000b7	50		 push	 eax
  000b8	ff d1		 call	 ecx
  000ba	83 c4 04	 add	 esp, 4

; 221  : 			m_aT = NULL;

  000bd	c7 05 20 00 00
	00 00 00 00 00	 mov	 DWORD PTR ?_AtlWinModule@ATL@@3VCAtlWinModule@1@A+32, 0
$LN40@dynamic:

; 223  : 		m_nSize = 0;

  000c7	c7 05 24 00 00
	00 00 00 00 00	 mov	 DWORD PTR ?_AtlWinModule@ATL@@3VCAtlWinModule@1@A+36, 0

; 224  : 		m_nAllocSize = 0;

  000d1	c7 05 28 00 00
	00 00 00 00 00	 mov	 DWORD PTR ?_AtlWinModule@ATL@@3VCAtlWinModule@1@A+40, 0
  000db	c3		 ret	 0
$LN46@dynamic:

; 240  : 			_AtlRaiseException((DWORD)EXCEPTION_ARRAY_BOUNDS_EXCEEDED);

  000dc	6a 01		 push	 1
  000de	68 8c 00 00 c0	 push	 -1073741684		; c000008cH
  000e3	e8 00 00 00 00	 call	 ?_AtlRaiseException@ATL@@YAXKK@Z ; ATL::_AtlRaiseException
$LN56@dynamic:
  000e8	cc		 int	 3
??__F_AtlWinModule@ATL@@YAXXZ ENDP			; ATL::`dynamic atexit destructor for '_AtlWinModule''
text$yd	ENDS
; Function compile flags: /Ogtp
; File C:\Program Files (x86)\Microsoft Visual Studio\2019\Community\VC\Tools\MSVC\14.29.30133\atlmfc\include\atlbase.h
; File C:\Program Files (x86)\Microsoft Visual Studio\2019\Community\VC\Tools\MSVC\14.29.30133\atlmfc\include\atlwinverapi.h
; File C:\Program Files (x86)\Microsoft Visual Studio\2019\Community\VC\Tools\MSVC\14.29.30133\atlmfc\include\atlcore.h
; File C:\Program Files (x86)\Windows Kits\10\Include\10.0.22000.0\shared\winerror.h
; File C:\Program Files (x86)\Microsoft Visual Studio\2019\Community\VC\Tools\MSVC\14.29.30133\atlmfc\include\atlbase.h
;	COMDAT ??__E_AtlWinModule@ATL@@YAXXZ
text$di	SEGMENT
??__E_AtlWinModule@ATL@@YAXXZ PROC			; ATL::`dynamic initializer for '_AtlWinModule'', COMDAT
; File C:\Program Files (x86)\Microsoft Visual Studio\2019\Community\VC\Tools\MSVC\14.29.30133\atlmfc\include\atlwinverapi.h

; 730  : 	return ::InitializeCriticalSectionEx(lpCriticalSection, dwSpinCount, Flags);

  00000	6a 00		 push	 0
  00002	6a 00		 push	 0
  00004	68 04 00 00 00	 push	 OFFSET ?_AtlWinModule@ATL@@3VCAtlWinModule@1@A+4
  00009	ff 15 00 00 00
	00		 call	 DWORD PTR __imp__InitializeCriticalSectionEx@12
; File C:\Program Files (x86)\Microsoft Visual Studio\2019\Community\VC\Tools\MSVC\14.29.30133\atlmfc\include\atlcore.h

; 145  : 		if (!_AtlInitializeCriticalSectionEx(&m_sec, 0, 0))

  0000f	85 c0		 test	 eax, eax
  00011	75 27		 jne	 SHORT $LN4@dynamic

; 146  : 		{
; 147  : 			hRes = HRESULT_FROM_WIN32(GetLastError());

  00013	ff 15 00 00 00
	00		 call	 DWORD PTR __imp__GetLastError@0
; File C:\Program Files (x86)\Windows Kits\10\Include\10.0.22000.0\shared\winerror.h

; 29673: FORCEINLINE _Translates_Win32_to_HRESULT_(x) HRESULT HRESULT_FROM_WIN32(unsigned long x) { return (HRESULT)(x) <= 0 ? (HRESULT)(x) : (HRESULT) (((x) & 0x0000FFFF) | (FACILITY_WIN32 << 16) | 0x80000000);}

  00019	85 c0		 test	 eax, eax
  0001b	7e 0a		 jle	 SHORT $LN26@dynamic
  0001d	0f b7 c0	 movzx	 eax, ax
  00020	0d 00 00 07 80	 or	 eax, -2147024896	; 80070000H
; File C:\Program Files (x86)\Microsoft Visual Studio\2019\Community\VC\Tools\MSVC\14.29.30133\atlmfc\include\atlbase.h

; 2941 : 		if (FAILED(hr))

  00025	85 c0		 test	 eax, eax
$LN26@dynamic:
  00027	79 11		 jns	 SHORT $LN4@dynamic

; 2942 : 		{
; 2943 : 			ATLASSERT(0);
; 2944 : 			CAtlBaseModule::m_bInitFailed = true;

  00029	c6 05 00 00 00
	00 01		 mov	 BYTE PTR ?m_bInitFailed@CAtlBaseModule@ATL@@2_NA, 1 ; ATL::CAtlBaseModule::m_bInitFailed

; 2945 : 			cbSize = 0;

  00030	c7 05 00 00 00
	00 00 00 00 00	 mov	 DWORD PTR ?_AtlWinModule@ATL@@3VCAtlWinModule@1@A, 0
$LN4@dynamic:

; 2972 : __declspec(selectany) CAtlWinModule _AtlWinModule;

  0003a	68 00 00 00 00	 push	 OFFSET ??__F_AtlWinModule@ATL@@YAXXZ ; ATL::`dynamic atexit destructor for '_AtlWinModule''
  0003f	e8 00 00 00 00	 call	 _atexit
  00044	59		 pop	 ecx
  00045	c3		 ret	 0
??__E_AtlWinModule@ATL@@YAXXZ ENDP			; ATL::`dynamic initializer for '_AtlWinModule''
text$di	ENDS
; Function compile flags: /Ogtp
; File C:\Program Files (x86)\Microsoft Visual Studio\2019\Community\VC\Tools\MSVC\14.29.30133\atlmfc\include\atlbase.h
; File C:\Program Files (x86)\Microsoft Visual Studio\2019\Community\VC\Tools\MSVC\14.29.30133\atlmfc\include\atlcore.h
; File C:\Program Files (x86)\Microsoft Visual Studio\2019\Community\VC\Tools\MSVC\14.29.30133\atlmfc\include\atlbase.h
;	COMDAT ??__F_AtlComModule@ATL@@YAXXZ
text$yd	SEGMENT
__$EHRec$ = -12						; size = 12
??__F_AtlComModule@ATL@@YAXXZ PROC			; ATL::`dynamic atexit destructor for '_AtlComModule'', COMDAT
  00000	55		 push	 ebp
  00001	8b ec		 mov	 ebp, esp
  00003	6a ff		 push	 -1
  00005	68 00 00 00 00	 push	 __ehhandler$??__F_AtlComModule@ATL@@YAXXZ
  0000a	64 a1 00 00 00
	00		 mov	 eax, DWORD PTR fs:0
  00010	50		 push	 eax
  00011	53		 push	 ebx
  00012	56		 push	 esi
  00013	57		 push	 edi
  00014	a1 00 00 00 00	 mov	 eax, DWORD PTR ___security_cookie
  00019	33 c5		 xor	 eax, ebp
  0001b	50		 push	 eax
  0001c	8d 45 f4	 lea	 eax, DWORD PTR __$EHRec$[ebp]
  0001f	64 a3 00 00 00
	00		 mov	 DWORD PTR fs:0, eax

; 2614 : 		if (cbSize == 0)

  00025	83 3d 00 00 00
	00 00		 cmp	 DWORD PTR ?_AtlComModule@ATL@@3VCAtlComModule@1@A, 0

; 2607 : 	{

  0002c	c7 45 fc 00 00
	00 00		 mov	 DWORD PTR __$EHRec$[ebp+8], 0

; 2614 : 		if (cbSize == 0)

  00033	74 5b		 je	 SHORT $LN6@dynamic

; 2615 : 			return;
; 2616 : 
; 2617 : 		for (_ATL_OBJMAP_ENTRY_EX** ppEntry = m_ppAutoObjMapFirst; ppEntry < m_ppAutoObjMapLast; ppEntry++)

  00035	8b 35 08 00 00
	00		 mov	 esi, DWORD PTR ?_AtlComModule@ATL@@3VCAtlComModule@1@A+8
  0003b	8b 0d 0c 00 00
	00		 mov	 ecx, DWORD PTR ?_AtlComModule@ATL@@3VCAtlComModule@1@A+12
  00041	3b f1		 cmp	 esi, ecx
  00043	73 36		 jae	 SHORT $LN8@dynamic
  00045	8b 1d 00 00 00
	00		 mov	 ebx, DWORD PTR __imp__DecodePointer@4
  0004b	0f 1f 44 00 00	 npad	 5
$LL9@dynamic:

; 2618 : 		{
; 2619 : 			if (*ppEntry != NULL)

  00050	8b 06		 mov	 eax, DWORD PTR [esi]
  00052	85 c0		 test	 eax, eax
  00054	74 1e		 je	 SHORT $LN7@dynamic

; 2620 : 			{
; 2621 : 				_ATL_OBJMAP_CACHE* pCache = (**ppEntry).pCache;

  00056	8b 78 10	 mov	 edi, DWORD PTR [eax+16]

; 2622 : 
; 2623 : 				if (pCache->pCF != NULL)

  00059	8b 07		 mov	 eax, DWORD PTR [edi]
  0005b	85 c0		 test	 eax, eax
  0005d	74 15		 je	 SHORT $LN7@dynamic

; 2624 : 				{
; 2625 : 					// Decode factory pointer if it's not null
; 2626 : 					IUnknown *factory = reinterpret_cast<IUnknown*>(::DecodePointer(pCache->pCF));

  0005f	50		 push	 eax
  00060	ff d3		 call	 ebx

; 2627 : 					_Analysis_assume_(factory != nullptr);
; 2628 : 					factory->Release();

  00062	50		 push	 eax
  00063	8b 08		 mov	 ecx, DWORD PTR [eax]
  00065	ff 51 08	 call	 DWORD PTR [ecx+8]

; 2629 : 					pCache->pCF = NULL;

  00068	c7 07 00 00 00
	00		 mov	 DWORD PTR [edi], 0
  0006e	8b 0d 0c 00 00
	00		 mov	 ecx, DWORD PTR ?_AtlComModule@ATL@@3VCAtlComModule@1@A+12
$LN7@dynamic:

; 2615 : 			return;
; 2616 : 
; 2617 : 		for (_ATL_OBJMAP_ENTRY_EX** ppEntry = m_ppAutoObjMapFirst; ppEntry < m_ppAutoObjMapLast; ppEntry++)

  00074	83 c6 04	 add	 esi, 4
  00077	3b f1		 cmp	 esi, ecx
  00079	72 d5		 jb	 SHORT $LL9@dynamic
$LN8@dynamic:
; File C:\Program Files (x86)\Microsoft Visual Studio\2019\Community\VC\Tools\MSVC\14.29.30133\atlmfc\include\atlcore.h

; 155  : 		DeleteCriticalSection(&m_sec);

  0007b	68 10 00 00 00	 push	 OFFSET ?_AtlComModule@ATL@@3VCAtlComModule@1@A+16
  00080	ff 15 00 00 00
	00		 call	 DWORD PTR __imp__DeleteCriticalSection@4
; File C:\Program Files (x86)\Microsoft Visual Studio\2019\Community\VC\Tools\MSVC\14.29.30133\atlmfc\include\atlbase.h

; 2637 : 		cbSize = 0;

  00086	c7 05 00 00 00
	00 00 00 00 00	 mov	 DWORD PTR ?_AtlComModule@ATL@@3VCAtlComModule@1@A, 0
$LN6@dynamic:
  00090	8b 4d f4	 mov	 ecx, DWORD PTR __$EHRec$[ebp]
  00093	64 89 0d 00 00
	00 00		 mov	 DWORD PTR fs:0, ecx
  0009a	59		 pop	 ecx
  0009b	5f		 pop	 edi
  0009c	5e		 pop	 esi
  0009d	5b		 pop	 ebx
  0009e	8b e5		 mov	 esp, ebp
  000a0	5d		 pop	 ebp
  000a1	c3		 ret	 0
  000a2	cc		 int	 3
  000a3	cc		 int	 3
  000a4	cc		 int	 3
  000a5	cc		 int	 3
  000a6	cc		 int	 3
text$yd	ENDS
;	COMDAT text$x
text$x	SEGMENT
__ehhandler$??__F_AtlComModule@ATL@@YAXXZ:
  00000	90		 npad	 1
  00001	90		 npad	 1
  00002	8b 54 24 08	 mov	 edx, DWORD PTR [esp+8]
  00006	8d 42 0c	 lea	 eax, DWORD PTR [edx+12]
  00009	8b 4a f0	 mov	 ecx, DWORD PTR [edx-16]
  0000c	33 c8		 xor	 ecx, eax
  0000e	e8 00 00 00 00	 call	 @__security_check_cookie@4
  00013	b8 00 00 00 00	 mov	 eax, OFFSET __ehfuncinfo$??__F_AtlComModule@ATL@@YAXXZ
  00018	e9 00 00 00 00	 jmp	 ___CxxFrameHandler3
text$x	ENDS
??__F_AtlComModule@ATL@@YAXXZ ENDP			; ATL::`dynamic atexit destructor for '_AtlComModule''
; Function compile flags: /Ogtp
; File C:\Program Files (x86)\Microsoft Visual Studio\2019\Community\VC\Tools\MSVC\14.29.30133\atlmfc\include\atlbase.h
; File C:\Program Files (x86)\Microsoft Visual Studio\2019\Community\VC\Tools\MSVC\14.29.30133\atlmfc\include\atlwinverapi.h
; File C:\Program Files (x86)\Microsoft Visual Studio\2019\Community\VC\Tools\MSVC\14.29.30133\atlmfc\include\atlcore.h
; File C:\Program Files (x86)\Windows Kits\10\Include\10.0.22000.0\shared\winerror.h
; File C:\Program Files (x86)\Microsoft Visual Studio\2019\Community\VC\Tools\MSVC\14.29.30133\atlmfc\include\atlbase.h
;	COMDAT ??__E_AtlComModule@ATL@@YAXXZ
text$di	SEGMENT
??__E_AtlComModule@ATL@@YAXXZ PROC			; ATL::`dynamic initializer for '_AtlComModule'', COMDAT
; File C:\Program Files (x86)\Microsoft Visual Studio\2019\Community\VC\Tools\MSVC\14.29.30133\atlmfc\include\atlwinverapi.h

; 730  : 	return ::InitializeCriticalSectionEx(lpCriticalSection, dwSpinCount, Flags);

  00000	6a 00		 push	 0
  00002	6a 00		 push	 0
  00004	68 10 00 00 00	 push	 OFFSET ?_AtlComModule@ATL@@3VCAtlComModule@1@A+16
  00009	ff 15 00 00 00
	00		 call	 DWORD PTR __imp__InitializeCriticalSectionEx@12
; File C:\Program Files (x86)\Microsoft Visual Studio\2019\Community\VC\Tools\MSVC\14.29.30133\atlmfc\include\atlcore.h

; 145  : 		if (!_AtlInitializeCriticalSectionEx(&m_sec, 0, 0))

  0000f	85 c0		 test	 eax, eax
  00011	75 29		 jne	 SHORT $LN4@dynamic

; 146  : 		{
; 147  : 			hRes = HRESULT_FROM_WIN32(GetLastError());

  00013	ff 15 00 00 00
	00		 call	 DWORD PTR __imp__GetLastError@0
; File C:\Program Files (x86)\Windows Kits\10\Include\10.0.22000.0\shared\winerror.h

; 29673: FORCEINLINE _Translates_Win32_to_HRESULT_(x) HRESULT HRESULT_FROM_WIN32(unsigned long x) { return (HRESULT)(x) <= 0 ? (HRESULT)(x) : (HRESULT) (((x) & 0x0000FFFF) | (FACILITY_WIN32 << 16) | 0x80000000);}

  00019	85 c0		 test	 eax, eax
  0001b	7e 0a		 jle	 SHORT $LN20@dynamic
  0001d	0f b7 c0	 movzx	 eax, ax
  00020	0d 00 00 07 80	 or	 eax, -2147024896	; 80070000H
; File C:\Program Files (x86)\Microsoft Visual Studio\2019\Community\VC\Tools\MSVC\14.29.30133\atlmfc\include\atlbase.h

; 2595 : 		if (FAILED(m_csObjMap.Init()))

  00025	85 c0		 test	 eax, eax
$LN20@dynamic:
  00027	79 13		 jns	 SHORT $LN4@dynamic

; 2716 : __declspec(selectany) CAtlComModule _AtlComModule;

  00029	68 00 00 00 00	 push	 OFFSET ??__F_AtlComModule@ATL@@YAXXZ ; ATL::`dynamic atexit destructor for '_AtlComModule''

; 2599 : 			CAtlBaseModule::m_bInitFailed = true;

  0002e	c6 05 00 00 00
	00 01		 mov	 BYTE PTR ?m_bInitFailed@CAtlBaseModule@ATL@@2_NA, 1 ; ATL::CAtlBaseModule::m_bInitFailed

; 2716 : __declspec(selectany) CAtlComModule _AtlComModule;

  00035	e8 00 00 00 00	 call	 _atexit
  0003a	59		 pop	 ecx
  0003b	c3		 ret	 0
$LN4@dynamic:
  0003c	68 00 00 00 00	 push	 OFFSET ??__F_AtlComModule@ATL@@YAXXZ ; ATL::`dynamic atexit destructor for '_AtlComModule''

; 2603 : 		cbSize = sizeof(_ATL_COM_MODULE);

  00041	c7 05 00 00 00
	00 28 00 00 00	 mov	 DWORD PTR ?_AtlComModule@ATL@@3VCAtlComModule@1@A, 40 ; 00000028H

; 2716 : __declspec(selectany) CAtlComModule _AtlComModule;

  0004b	e8 00 00 00 00	 call	 _atexit
  00050	59		 pop	 ecx
  00051	c3		 ret	 0
??__E_AtlComModule@ATL@@YAXXZ ENDP			; ATL::`dynamic initializer for '_AtlComModule''
text$di	ENDS
; Function compile flags: /Ogtp
; File C:\Program Files (x86)\Microsoft Visual Studio\2019\Community\VC\Tools\MSVC\14.29.30133\atlmfc\include\afx.inl
;	COMDAT ?_AfxInitManaged@@YAHXZ
_TEXT	SEGMENT
?_AfxInitManaged@@YAHXZ PROC				; _AfxInitManaged, COMDAT

; 87   : 	return 0;

  00000	33 c0		 xor	 eax, eax

; 88   : }

  00002	c3		 ret	 0
?_AfxInitManaged@@YAHXZ ENDP				; _AfxInitManaged
_TEXT	ENDS
; Function compile flags: /Ogtp
; File C:\Program Files (x86)\Microsoft Visual Studio\2019\Community\VC\Tools\MSVC\14.29.30133\atlmfc\include\atlmem.h
;	COMDAT ??_GCWin32Heap@ATL@@UAEPAXI@Z
_TEXT	SEGMENT
___flags$ = 8						; size = 4
??_GCWin32Heap@ATL@@UAEPAXI@Z PROC			; ATL::CWin32Heap::`scalar deleting destructor', COMDAT
; _this$ = ecx
  00000	55		 push	 ebp
  00001	8b ec		 mov	 ebp, esp

; 109  : 	{

  00003	56		 push	 esi
  00004	8b f1		 mov	 esi, ecx

; 110  : #ifdef _ATL_USE_WINAPI_FAMILY_DESKTOP_APP
; 111  : 		if( m_bOwnHeap && (m_hHeap != NULL) )

  00006	80 7e 08 00	 cmp	 BYTE PTR [esi+8], 0
  0000a	c7 06 00 00 00
	00		 mov	 DWORD PTR [esi], OFFSET ??_7CWin32Heap@ATL@@6B@
  00010	74 0e		 je	 SHORT $LN5@scalar
  00012	8b 46 04	 mov	 eax, DWORD PTR [esi+4]
  00015	85 c0		 test	 eax, eax
  00017	74 07		 je	 SHORT $LN5@scalar

; 112  : 		{
; 113  : 			BOOL bSuccess;
; 114  : 
; 115  : 			bSuccess = ::HeapDestroy( m_hHeap );

  00019	50		 push	 eax
  0001a	ff 15 00 00 00
	00		 call	 DWORD PTR __imp__HeapDestroy@4
$LN5@scalar:
  00020	f6 45 08 01	 test	 BYTE PTR ___flags$[ebp], 1
  00024	74 0b		 je	 SHORT $LN7@scalar
  00026	6a 0c		 push	 12			; 0000000cH
  00028	56		 push	 esi
  00029	e8 00 00 00 00	 call	 ??3@YAXPAXI@Z		; operator delete
  0002e	83 c4 08	 add	 esp, 8
$LN7@scalar:
  00031	8b c6		 mov	 eax, esi
  00033	5e		 pop	 esi
  00034	5d		 pop	 ebp
  00035	c2 04 00	 ret	 4
??_GCWin32Heap@ATL@@UAEPAXI@Z ENDP			; ATL::CWin32Heap::`scalar deleting destructor'
_TEXT	ENDS
; Function compile flags: /Ogtp
; File C:\Program Files (x86)\Microsoft Visual Studio\2019\Community\VC\Tools\MSVC\14.29.30133\atlmfc\include\atlmem.h
;	COMDAT ?GetSize@CWin32Heap@ATL@@UAEIPAX@Z
_TEXT	SEGMENT
_p$ = 8							; size = 4
?GetSize@CWin32Heap@ATL@@UAEIPAX@Z PROC			; ATL::CWin32Heap::GetSize, COMDAT
; _this$ = ecx

; 175  : 	{

  00000	55		 push	 ebp
  00001	8b ec		 mov	 ebp, esp

; 176  : 		return( ::HeapSize( m_hHeap, 0, p ) );

  00003	ff 75 08	 push	 DWORD PTR _p$[ebp]
  00006	6a 00		 push	 0
  00008	ff 71 04	 push	 DWORD PTR [ecx+4]
  0000b	ff 15 00 00 00
	00		 call	 DWORD PTR __imp__HeapSize@12

; 177  : 	}

  00011	5d		 pop	 ebp
  00012	c2 04 00	 ret	 4
?GetSize@CWin32Heap@ATL@@UAEIPAX@Z ENDP			; ATL::CWin32Heap::GetSize
_TEXT	ENDS
; Function compile flags: /Ogtp
; File C:\Program Files (x86)\Microsoft Visual Studio\2019\Community\VC\Tools\MSVC\14.29.30133\atlmfc\include\atlmem.h
;	COMDAT ?Reallocate@CWin32Heap@ATL@@UAEPAXPAXI@Z
_TEXT	SEGMENT
_p$ = 8							; size = 4
_nBytes$ = 12						; size = 4
?Reallocate@CWin32Heap@ATL@@UAEPAXPAXI@Z PROC		; ATL::CWin32Heap::Reallocate, COMDAT
; _this$ = ecx

; 160  : 	{

  00000	55		 push	 ebp
  00001	8b ec		 mov	 ebp, esp

; 161  : 		if( p == NULL )

  00003	8b 55 08	 mov	 edx, DWORD PTR _p$[ebp]
  00006	85 d2		 test	 edx, edx
  00008	75 0b		 jne	 SHORT $LN2@Reallocate

; 162  : 		{
; 163  : 			return( Allocate( nBytes ) );

  0000a	8b 01		 mov	 eax, DWORD PTR [ecx]
  0000c	ff 75 0c	 push	 DWORD PTR _nBytes$[ebp]
  0000f	ff 10		 call	 DWORD PTR [eax]

; 173  : 	}

  00011	5d		 pop	 ebp
  00012	c2 08 00	 ret	 8
$LN2@Reallocate:

; 164  : 		}
; 165  : 
; 166  : 		if (nBytes==0)

  00015	8b 45 0c	 mov	 eax, DWORD PTR _nBytes$[ebp]
  00018	85 c0		 test	 eax, eax
  0001a	75 0c		 jne	 SHORT $LN3@Reallocate

; 167  : 		{
; 168  : 			  Free(p);

  0001c	8b 01		 mov	 eax, DWORD PTR [ecx]
  0001e	52		 push	 edx
  0001f	ff 50 04	 call	 DWORD PTR [eax+4]

; 169  : 			  return NULL;

  00022	33 c0		 xor	 eax, eax

; 173  : 	}

  00024	5d		 pop	 ebp
  00025	c2 08 00	 ret	 8
$LN3@Reallocate:

; 170  : 		}
; 171  : 
; 172  : 		return( ::HeapReAlloc( m_hHeap, 0, p, nBytes ) );

  00028	50		 push	 eax
  00029	52		 push	 edx
  0002a	6a 00		 push	 0
  0002c	ff 71 04	 push	 DWORD PTR [ecx+4]
  0002f	ff 15 00 00 00
	00		 call	 DWORD PTR __imp__HeapReAlloc@16

; 173  : 	}

  00035	5d		 pop	 ebp
  00036	c2 08 00	 ret	 8
?Reallocate@CWin32Heap@ATL@@UAEPAXPAXI@Z ENDP		; ATL::CWin32Heap::Reallocate
_TEXT	ENDS
; Function compile flags: /Ogtp
; File C:\Program Files (x86)\Microsoft Visual Studio\2019\Community\VC\Tools\MSVC\14.29.30133\atlmfc\include\atlmem.h
;	COMDAT ?Free@CWin32Heap@ATL@@UAEXPAX@Z
_TEXT	SEGMENT
_p$ = 8							; size = 4
?Free@CWin32Heap@ATL@@UAEXPAX@Z PROC			; ATL::CWin32Heap::Free, COMDAT
; _this$ = ecx

; 148  : 	{

  00000	55		 push	 ebp
  00001	8b ec		 mov	 ebp, esp

; 149  : 		if( p != NULL )

  00003	8b 45 08	 mov	 eax, DWORD PTR _p$[ebp]
  00006	85 c0		 test	 eax, eax
  00008	74 0c		 je	 SHORT $LN2@Free

; 150  : 		{
; 151  : 			BOOL bSuccess;
; 152  : 
; 153  : 			bSuccess = ::HeapFree( m_hHeap, 0, p );

  0000a	50		 push	 eax
  0000b	6a 00		 push	 0
  0000d	ff 71 04	 push	 DWORD PTR [ecx+4]
  00010	ff 15 00 00 00
	00		 call	 DWORD PTR __imp__HeapFree@12
$LN2@Free:

; 154  : 			ATLASSERT( bSuccess );
; 155  : 		}
; 156  : 	}

  00016	5d		 pop	 ebp
  00017	c2 04 00	 ret	 4
?Free@CWin32Heap@ATL@@UAEXPAX@Z ENDP			; ATL::CWin32Heap::Free
_TEXT	ENDS
; Function compile flags: /Ogtp
; File C:\Program Files (x86)\Microsoft Visual Studio\2019\Community\VC\Tools\MSVC\14.29.30133\atlmfc\include\atlmem.h
;	COMDAT ?Allocate@CWin32Heap@ATL@@UAEPAXI@Z
_TEXT	SEGMENT
_nBytes$ = 8						; size = 4
?Allocate@CWin32Heap@ATL@@UAEPAXI@Z PROC		; ATL::CWin32Heap::Allocate, COMDAT
; _this$ = ecx

; 144  : 	{

  00000	55		 push	 ebp
  00001	8b ec		 mov	 ebp, esp

; 145  : 		return( ::HeapAlloc( m_hHeap, 0, nBytes ) );

  00003	ff 75 08	 push	 DWORD PTR _nBytes$[ebp]
  00006	6a 00		 push	 0
  00008	ff 71 04	 push	 DWORD PTR [ecx+4]
  0000b	ff 15 00 00 00
	00		 call	 DWORD PTR __imp__HeapAlloc@12

; 146  : 	}

  00011	5d		 pop	 ebp
  00012	c2 04 00	 ret	 4
?Allocate@CWin32Heap@ATL@@UAEPAXI@Z ENDP		; ATL::CWin32Heap::Allocate
_TEXT	ENDS
; Function compile flags: /Ogtp
; File C:\Program Files (x86)\Microsoft Visual Studio\2019\Community\VC\Tools\MSVC\14.29.30133\atlmfc\include\atlmem.h
;	COMDAT ??1CWin32Heap@ATL@@UAE@XZ
_TEXT	SEGMENT
??1CWin32Heap@ATL@@UAE@XZ PROC				; ATL::CWin32Heap::~CWin32Heap, COMDAT
; _this$ = ecx

; 110  : #ifdef _ATL_USE_WINAPI_FAMILY_DESKTOP_APP
; 111  : 		if( m_bOwnHeap && (m_hHeap != NULL) )

  00000	80 79 08 00	 cmp	 BYTE PTR [ecx+8], 0
  00004	c7 01 00 00 00
	00		 mov	 DWORD PTR [ecx], OFFSET ??_7CWin32Heap@ATL@@6B@
  0000a	74 0e		 je	 SHORT $LN2@CWin32Heap
  0000c	8b 41 04	 mov	 eax, DWORD PTR [ecx+4]
  0000f	85 c0		 test	 eax, eax
  00011	74 07		 je	 SHORT $LN2@CWin32Heap

; 112  : 		{
; 113  : 			BOOL bSuccess;
; 114  : 
; 115  : 			bSuccess = ::HeapDestroy( m_hHeap );

  00013	50		 push	 eax
  00014	ff 15 00 00 00
	00		 call	 DWORD PTR __imp__HeapDestroy@4
$LN2@CWin32Heap:

; 116  : 			ATLASSERT( bSuccess );
; 117  : 		}
; 118  : #endif
; 119  : 	}

  0001a	c3		 ret	 0
??1CWin32Heap@ATL@@UAE@XZ ENDP				; ATL::CWin32Heap::~CWin32Heap
_TEXT	ENDS
; Function compile flags: /Ogtp
; File C:\Program Files (x86)\Microsoft Visual Studio\2019\Community\VC\Tools\MSVC\14.29.30133\atlmfc\include\atlwinverapi.h
;	COMDAT ?_AtlInitializeCriticalSectionEx@ATL@@YAHPAU_RTL_CRITICAL_SECTION@@KK@Z
_TEXT	SEGMENT
_lpCriticalSection$ = 8					; size = 4
_dwSpinCount$ = 12					; size = 4
_Flags$ = 16						; size = 4
?_AtlInitializeCriticalSectionEx@ATL@@YAHPAU_RTL_CRITICAL_SECTION@@KK@Z PROC ; ATL::_AtlInitializeCriticalSectionEx, COMDAT

; 727  : {

  00000	55		 push	 ebp
  00001	8b ec		 mov	 ebp, esp

; 728  : #if (NTDDI_VERSION >= NTDDI_VISTA) && !defined(_USING_V110_SDK71_) && !defined(_ATL_XP_TARGETING)
; 729  : 	// InitializeCriticalSectionEx is available in Vista or later, desktop or store apps
; 730  : 	return ::InitializeCriticalSectionEx(lpCriticalSection, dwSpinCount, Flags);

  00003	ff 75 10	 push	 DWORD PTR _Flags$[ebp]
  00006	ff 75 0c	 push	 DWORD PTR _dwSpinCount$[ebp]
  00009	ff 75 08	 push	 DWORD PTR _lpCriticalSection$[ebp]
  0000c	ff 15 00 00 00
	00		 call	 DWORD PTR __imp__InitializeCriticalSectionEx@12

; 731  : #else
; 732  : 	UNREFERENCED_PARAMETER(Flags);
; 733  : 
; 734  : 	// ...otherwise fall back to using InitializeCriticalSectionAndSpinCount.
; 735  : 	return ::InitializeCriticalSectionAndSpinCount(lpCriticalSection, dwSpinCount);
; 736  : #endif
; 737  : }

  00012	5d		 pop	 ebp
  00013	c3		 ret	 0
?_AtlInitializeCriticalSectionEx@ATL@@YAHPAU_RTL_CRITICAL_SECTION@@KK@Z ENDP ; ATL::_AtlInitializeCriticalSectionEx
_TEXT	ENDS
; Function compile flags: /Ogtp
; File C:\Program Files (x86)\Microsoft Visual Studio\2019\Community\VC\Tools\MSVC\14.29.30133\atlmfc\include\atlexcept.h
;	COMDAT ?_AtlRaiseException@ATL@@YAXKK@Z
_TEXT	SEGMENT
_dwExceptionCode$ = 8					; size = 4
_dwExceptionFlags$ = 12					; size = 4
?_AtlRaiseException@ATL@@YAXKK@Z PROC			; ATL::_AtlRaiseException, COMDAT

; 30   : {

  00000	55		 push	 ebp
  00001	8b ec		 mov	 ebp, esp

; 31   : 	RaiseException( dwExceptionCode, dwExceptionFlags, 0, NULL );

  00003	6a 00		 push	 0
  00005	6a 00		 push	 0
  00007	ff 75 0c	 push	 DWORD PTR _dwExceptionFlags$[ebp]
  0000a	ff 75 08	 push	 DWORD PTR _dwExceptionCode$[ebp]
  0000d	ff 15 00 00 00
	00		 call	 DWORD PTR __imp__RaiseException@16

; 32   : }

  00013	5d		 pop	 ebp
  00014	c3		 ret	 0
?_AtlRaiseException@ATL@@YAXKK@Z ENDP			; ATL::_AtlRaiseException
_TEXT	ENDS
; Function compile flags: /Ogtp
; File D:\git\src\IBK\IBK_DRFN\ProjSrc\SrcChartEx\ChartAddIn\ChartEnvSetupDlgAddIn\ChartEnvSetupDlgAddIn\StdAfx.cpp
;	COMDAT ?__empty_global_delete@@YAXPAXI@Z
_TEXT	SEGMENT
___formal$ = 8						; size = 4
___formal$ = 12						; size = 4
?__empty_global_delete@@YAXPAXI@Z PROC			; __empty_global_delete, COMDAT

  00000	c2 00 00	 ret	 0
?__empty_global_delete@@YAXPAXI@Z ENDP			; __empty_global_delete
_TEXT	ENDS
; Function compile flags: /Ogtp
; File D:\git\src\IBK\IBK_DRFN\ProjSrc\SrcChartEx\ChartAddIn\ChartEnvSetupDlgAddIn\ChartEnvSetupDlgAddIn\StdAfx.cpp
;	COMDAT ?__empty_global_delete@@YAXPAX@Z
_TEXT	SEGMENT
___formal$ = 8						; size = 4
?__empty_global_delete@@YAXPAX@Z PROC			; __empty_global_delete, COMDAT

  00000	c2 00 00	 ret	 0
?__empty_global_delete@@YAXPAX@Z ENDP			; __empty_global_delete
_TEXT	ENDS
; Function compile flags: /Ogtp
;	COMDAT ??_H@YGXPAXIIP6EPAX0@Z@Z
_TEXT	SEGMENT
___t$ = 8						; size = 4
___s$ = 12						; size = 4
___n$ = 16						; size = 4
___f$ = 20						; size = 4
??_H@YGXPAXIIP6EPAX0@Z@Z PROC				; `vector constructor iterator', COMDAT
  00000	55		 push	 ebp
  00001	8b ec		 mov	 ebp, esp
  00003	56		 push	 esi
  00004	8b 75 10	 mov	 esi, DWORD PTR ___n$[ebp]
  00007	85 f6		 test	 esi, esi
  00009	74 16		 je	 SHORT $LN6@vector
  0000b	53		 push	 ebx
  0000c	8b 5d 14	 mov	 ebx, DWORD PTR ___f$[ebp]
  0000f	57		 push	 edi
  00010	8b 7d 08	 mov	 edi, DWORD PTR ___t$[ebp]
$LL2@vector:
  00013	8b cf		 mov	 ecx, edi
  00015	ff d3		 call	 ebx
  00017	03 7d 0c	 add	 edi, DWORD PTR ___s$[ebp]
  0001a	83 ee 01	 sub	 esi, 1
  0001d	75 f4		 jne	 SHORT $LL2@vector
  0001f	5f		 pop	 edi
  00020	5b		 pop	 ebx
$LN6@vector:
  00021	5e		 pop	 esi
  00022	5d		 pop	 ebp
  00023	c2 10 00	 ret	 16			; 00000010H
??_H@YGXPAXIIP6EPAX0@Z@Z ENDP				; `vector constructor iterator'
_TEXT	ENDS
END
