; Listing generated by Microsoft (R) Optimizing Compiler Version 19.29.30145.0 

	TITLE	D:\git\src\IBK\IBK_DRFN\#DRfn-CS\_Obj\ChartEnvSetupDlgAddIn\StyleDataManager.obj
	.686P
	.XMM
	include listing.inc
	.model	flat

INCLUDELIB MSVCRT
INCLUDELIB OLDNAMES

PUBLIC	?__empty_global_delete@@YAXPAX@Z		; __empty_global_delete
PUBLIC	?__empty_global_delete@@YAXPAXI@Z		; __empty_global_delete
PUBLIC	??1CObject@@UAE@XZ				; CObject::~CObject
PUBLIC	?Serialize@CObject@@UAEXAAVCArchive@@@Z		; CObject::Serialize
PUBLIC	?AssertValid@CObject@@UBEXXZ			; CObject::AssertValid
PUBLIC	?Dump@CObject@@UBEXAAVCDumpContext@@@Z		; CObject::Dump
PUBLIC	??1CGdiObject@@UAE@XZ				; CGdiObject::~CGdiObject
PUBLIC	??_GCGdiObject@@UAEPAXI@Z			; CGdiObject::`scalar deleting destructor'
PUBLIC	??1CPen@@UAE@XZ					; CPen::~CPen
PUBLIC	??_GCPen@@UAEPAXI@Z				; CPen::`scalar deleting destructor'
PUBLIC	??1CBrush@@UAE@XZ				; CBrush::~CBrush
PUBLIC	??_GCBrush@@UAEPAXI@Z				; CBrush::`scalar deleting destructor'
PUBLIC	??1ILPCSTR135914@@QAE@XZ			; ILPCSTR135914::~ILPCSTR135914
PUBLIC	??0CStyleDataManager@@QAE@XZ			; CStyleDataManager::CStyleDataManager
PUBLIC	??1CStyleDataManager@@UAE@XZ			; CStyleDataManager::~CStyleDataManager
PUBLIC	?RemoveAll@CStyleDataManager@@SAXXZ		; CStyleDataManager::RemoveAll
PUBLIC	?SetStyleDataToOCX@CStyleDataManager@@SAXAAVCStyleData@@PAUIChartOCX135914@@HHHH@Z ; CStyleDataManager::SetStyleDataToOCX
PUBLIC	?SetStyleDataToIndex@CStyleDataManager@@SAXAAVCStyleData@@PAUIChartOCX135914@@PBD@Z ; CStyleDataManager::SetStyleDataToIndex
PUBLIC	?Initialize@CStyleDataManager@@QAEHPAUIChartOCX135914@@H@Z ; CStyleDataManager::Initialize
PUBLIC	?GetDataCount@CStyleDataManager@@QAEHH@Z	; CStyleDataManager::GetDataCount
PUBLIC	?WriteStyleFile@CStyleDataManager@@QAEHPAUIChartOCX135914@@@Z ; CStyleDataManager::WriteStyleFile
PUBLIC	?RemoveStyleData@CStyleDataManager@@QAEHPBDH@Z	; CStyleDataManager::RemoveStyleData
PUBLIC	?CopyStyleDataListTo@CStyleDataManager@@QAEHAAV?$CList@PAVCStyleData@@PAV1@@@H@Z ; CStyleDataManager::CopyStyleDataListTo
PUBLIC	?CopyStyleDataListFrom@CStyleDataManager@@QAEHAAV?$CList@PAVCStyleData@@PAV1@@@H@Z ; CStyleDataManager::CopyStyleDataListFrom
PUBLIC	?AddStyleData@CStyleDataManager@@QAEXPAVCStyleData@@H@Z ; CStyleDataManager::AddStyleData
PUBLIC	?GetStyleData@CStyleDataManager@@QAEPAVCStyleData@@HH@Z ; CStyleDataManager::GetStyleData
PUBLIC	?GetStyleData@CStyleDataManager@@QAEPAVCStyleData@@PBDH@Z ; CStyleDataManager::GetStyleData
PUBLIC	?RemoveStyleDataIn@CStyleDataManager@@IAEHHH@Z	; CStyleDataManager::RemoveStyleDataIn
PUBLIC	?GetStyleDataList@CStyleDataManager@@IAEPAV?$CList@PAVCStyleData@@PAV1@@@H@Z ; CStyleDataManager::GetStyleDataList
PUBLIC	?CreateDummyUserStyle@CStyleDataManager@@QAEXPAUIChartOCX135914@@@Z ; CStyleDataManager::CreateDummyUserStyle
PUBLIC	?RemoveDummyUserStyle@CStyleDataManager@@QAEXXZ	; CStyleDataManager::RemoveDummyUserStyle
PUBLIC	?GetStyleDataFromOCX@CStyleDataManager@@QAEXAAVCStyleData@@PAUIChartOCX135914@@H@Z ; CStyleDataManager::GetStyleDataFromOCX
PUBLIC	?DrawSampleImage@CStyleDataManager@@QAEXPAVCDC@@VCRect@@PAVCStyleData@@W4CHART_MODE@CChartInfo@@PAVCFont@@PAUHWND__@@H@Z ; CStyleDataManager::DrawSampleImage
PUBLIC	?DrawScale@CStyleDataManager@@QAEXPAVCDC@@VCRect@@11PAVCStyleData@@PAVCFont@@W4CHART_MODE@CChartInfo@@N@Z ; CStyleDataManager::DrawScale
PUBLIC	?DrawGraph@CStyleDataManager@@QAEXPAVCDC@@VCRect@@1PAVCStyleData@@W4CHART_MODE@CChartInfo@@@Z ; CStyleDataManager::DrawGraph
PUBLIC	?DrawGraphGrid@CStyleDataManager@@QAEXPAVCDC@@VCRect@@1PAVCStyleData@@@Z ; CStyleDataManager::DrawGraphGrid
PUBLIC	?DrawScaleGrid@CStyleDataManager@@QAEXPAVCDC@@VCRect@@1PAVCStyleData@@W4CHART_MODE@CChartInfo@@N@Z ; CStyleDataManager::DrawScaleGrid
PUBLIC	?DrawTitle@CStyleDataManager@@QAEXPAVCDC@@VCRect@@1PAVCStyleData@@PAVCFont@@PAUHWND__@@W4CHART_MODE@CChartInfo@@@Z ; CStyleDataManager::DrawTitle
PUBLIC	?DrawBong@CStyleDataManager@@QAEXPAVCDC@@VCRect@@PAY03HKKKHHH@Z ; CStyleDataManager::DrawBong
PUBLIC	?DrawBar@CStyleDataManager@@QAEXPAVCDC@@VCRect@@PAHKKKHHH@Z ; CStyleDataManager::DrawBar
PUBLIC	?DrawLine@CStyleDataManager@@QAEXPAVCDC@@VCRect@@PAHKH@Z ; CStyleDataManager::DrawLine
PUBLIC	?DrawRect@CStyleDataManager@@QAEXPAVCDC@@VCRect@@@Z ; CStyleDataManager::DrawRect
PUBLIC	??_GCStyleDataManager@@UAEPAXI@Z		; CStyleDataManager::`scalar deleting destructor'
PUBLIC	?AddTail@?$CList@V?$CStringT@DV?$StrTraitMFC_DLL@DV?$ChTraitsCRT@D@ATL@@@@@ATL@@V12@@@QAEPAU__POSITION@@V?$CStringT@DV?$StrTraitMFC_DLL@DV?$ChTraitsCRT@D@ATL@@@@@ATL@@@Z ; CList<ATL::CStringT<char,StrTraitMFC_DLL<char,ATL::ChTraitsCRT<char> > >,ATL::CStringT<char,StrTraitMFC_DLL<char,ATL::ChTraitsCRT<char> > > >::AddTail
PUBLIC	?RemoveAll@?$CList@V?$CStringT@DV?$StrTraitMFC_DLL@DV?$ChTraitsCRT@D@ATL@@@@@ATL@@V12@@@QAEXXZ ; CList<ATL::CStringT<char,StrTraitMFC_DLL<char,ATL::ChTraitsCRT<char> > >,ATL::CStringT<char,StrTraitMFC_DLL<char,ATL::ChTraitsCRT<char> > > >::RemoveAll
PUBLIC	?NewNode@?$CList@V?$CStringT@DV?$StrTraitMFC_DLL@DV?$ChTraitsCRT@D@ATL@@@@@ATL@@V12@@@IAEPAUCNode@1@PAU21@0@Z ; CList<ATL::CStringT<char,StrTraitMFC_DLL<char,ATL::ChTraitsCRT<char> > >,ATL::CStringT<char,StrTraitMFC_DLL<char,ATL::ChTraitsCRT<char> > > >::NewNode
PUBLIC	??1?$CList@V?$CStringT@DV?$StrTraitMFC_DLL@DV?$ChTraitsCRT@D@ATL@@@@@ATL@@V12@@@UAE@XZ ; CList<ATL::CStringT<char,StrTraitMFC_DLL<char,ATL::ChTraitsCRT<char> > >,ATL::CStringT<char,StrTraitMFC_DLL<char,ATL::ChTraitsCRT<char> > > >::~CList<ATL::CStringT<char,StrTraitMFC_DLL<char,ATL::ChTraitsCRT<char> > >,ATL::CStringT<char,StrTraitMFC_DLL<char,ATL::ChTraitsCRT<char> > > >
PUBLIC	?Serialize@?$CList@V?$CStringT@DV?$StrTraitMFC_DLL@DV?$ChTraitsCRT@D@ATL@@@@@ATL@@V12@@@UAEXAAVCArchive@@@Z ; CList<ATL::CStringT<char,StrTraitMFC_DLL<char,ATL::ChTraitsCRT<char> > >,ATL::CStringT<char,StrTraitMFC_DLL<char,ATL::ChTraitsCRT<char> > > >::Serialize
PUBLIC	??_G?$CList@V?$CStringT@DV?$StrTraitMFC_DLL@DV?$ChTraitsCRT@D@ATL@@@@@ATL@@V12@@@UAEPAXI@Z ; CList<ATL::CStringT<char,StrTraitMFC_DLL<char,ATL::ChTraitsCRT<char> > >,ATL::CStringT<char,StrTraitMFC_DLL<char,ATL::ChTraitsCRT<char> > > >::`scalar deleting destructor'
PUBLIC	??1CStyleFileBuilder@@QAE@XZ			; CStyleFileBuilder::~CStyleFileBuilder
PUBLIC	??0?$CList@PAVCStyleData@@PAV1@@@QAE@H@Z	; CList<CStyleData *,CStyleData *>::CList<CStyleData *,CStyleData *>
PUBLIC	?RemoveHead@?$CList@PAVCStyleData@@PAV1@@@QAEPAVCStyleData@@XZ ; CList<CStyleData *,CStyleData *>::RemoveHead
PUBLIC	?AddTail@?$CList@PAVCStyleData@@PAV1@@@QAEPAU__POSITION@@PAVCStyleData@@@Z ; CList<CStyleData *,CStyleData *>::AddTail
PUBLIC	?AddTail@?$CList@PAVCStyleData@@PAV1@@@QAEXPAV1@@Z ; CList<CStyleData *,CStyleData *>::AddTail
PUBLIC	?RemoveAll@?$CList@PAVCStyleData@@PAV1@@@QAEXXZ	; CList<CStyleData *,CStyleData *>::RemoveAll
PUBLIC	?RemoveAt@?$CList@PAVCStyleData@@PAV1@@@QAEXPAU__POSITION@@@Z ; CList<CStyleData *,CStyleData *>::RemoveAt
PUBLIC	?FindIndex@?$CList@PAVCStyleData@@PAV1@@@QBEPAU__POSITION@@H@Z ; CList<CStyleData *,CStyleData *>::FindIndex
PUBLIC	?NewNode@?$CList@PAVCStyleData@@PAV1@@@IAEPAUCNode@1@PAU21@0@Z ; CList<CStyleData *,CStyleData *>::NewNode
PUBLIC	?FreeNode@?$CList@PAVCStyleData@@PAV1@@@IAEXPAUCNode@1@@Z ; CList<CStyleData *,CStyleData *>::FreeNode
PUBLIC	??1?$CList@PAVCStyleData@@PAV1@@@UAE@XZ		; CList<CStyleData *,CStyleData *>::~CList<CStyleData *,CStyleData *>
PUBLIC	?Serialize@?$CList@PAVCStyleData@@PAV1@@@UAEXAAVCArchive@@@Z ; CList<CStyleData *,CStyleData *>::Serialize
PUBLIC	??_G?$CList@PAVCStyleData@@PAV1@@@UAEPAXI@Z	; CList<CStyleData *,CStyleData *>::`scalar deleting destructor'
PUBLIC	??$SerializeElements@PAVCStyleData@@@@YGXAAVCArchive@@PAPAVCStyleData@@H@Z ; SerializeElements<CStyleData *>
PUBLIC	??_R0PAVCException@@@8				; CException * `RTTI Type Descriptor'
PUBLIC	??_7CGdiObject@@6B@				; CGdiObject::`vftable'
PUBLIC	??_7CPen@@6B@					; CPen::`vftable'
PUBLIC	??_7CBrush@@6B@					; CBrush::`vftable'
PUBLIC	??_C@_0HD@JJCHHHNK@C?3?2Program?5Files?5?$CIx86?$CJ?2Microsof@ ; `string'
PUBLIC	??_C@_0BP@OIEOKIDM@Exception?5thrown?5in?5destructor@ ; `string'
PUBLIC	??_C@_0BB@HBOOMJBF@?$CFTs?5?$CI?$CFTs?3?$CFd?$CJ?6?$CFTs@ ; `string'
PUBLIC	??_C@_0N@OMEMOKLE@?$CFTs?5?$CI?$CFTs?3?$CFd?$CJ@ ; `string'
PUBLIC	??_R0?AVCObject@@@8				; CObject `RTTI Type Descriptor'
PUBLIC	??_R3CObject@@8					; CObject::`RTTI Class Hierarchy Descriptor'
PUBLIC	??_R2CObject@@8					; CObject::`RTTI Base Class Array'
PUBLIC	??_R1A@?0A@EA@CObject@@8			; CObject::`RTTI Base Class Descriptor at (0,-1,0,64)'
PUBLIC	??_R4CGdiObject@@6B@				; CGdiObject::`RTTI Complete Object Locator'
PUBLIC	??_R0?AVCGdiObject@@@8				; CGdiObject `RTTI Type Descriptor'
PUBLIC	??_R3CGdiObject@@8				; CGdiObject::`RTTI Class Hierarchy Descriptor'
PUBLIC	??_R2CGdiObject@@8				; CGdiObject::`RTTI Base Class Array'
PUBLIC	??_R1A@?0A@EA@CGdiObject@@8			; CGdiObject::`RTTI Base Class Descriptor at (0,-1,0,64)'
PUBLIC	??_R4CPen@@6B@					; CPen::`RTTI Complete Object Locator'
PUBLIC	??_R0?AVCPen@@@8				; CPen `RTTI Type Descriptor'
PUBLIC	??_R3CPen@@8					; CPen::`RTTI Class Hierarchy Descriptor'
PUBLIC	??_R2CPen@@8					; CPen::`RTTI Base Class Array'
PUBLIC	??_R1A@?0A@EA@CPen@@8				; CPen::`RTTI Base Class Descriptor at (0,-1,0,64)'
PUBLIC	??_R4CBrush@@6B@				; CBrush::`RTTI Complete Object Locator'
PUBLIC	??_R0?AVCBrush@@@8				; CBrush `RTTI Type Descriptor'
PUBLIC	??_R3CBrush@@8					; CBrush::`RTTI Class Hierarchy Descriptor'
PUBLIC	??_R2CBrush@@8					; CBrush::`RTTI Base Class Array'
PUBLIC	??_R1A@?0A@EA@CBrush@@8				; CBrush::`RTTI Base Class Descriptor at (0,-1,0,64)'
PUBLIC	?m_lstStyleDefault@CStyleDataManager@@1V?$CList@PAVCStyleData@@PAV1@@@A ; CStyleDataManager::m_lstStyleDefault
PUBLIC	?m_lstStyleUser@CStyleDataManager@@1V?$CList@PAVCStyleData@@PAV1@@@A ; CStyleDataManager::m_lstStyleUser
PUBLIC	??_7CStyleDataManager@@6B@			; CStyleDataManager::`vftable'
PUBLIC	??_C@_0P@FOFNMHJI@GetIndicatorID@		; `string'
PUBLIC	??_7?$CList@V?$CStringT@DV?$StrTraitMFC_DLL@DV?$ChTraitsCRT@D@ATL@@@@@ATL@@V12@@@6B@ ; CList<ATL::CStringT<char,StrTraitMFC_DLL<char,ATL::ChTraitsCRT<char> > >,ATL::CStringT<char,StrTraitMFC_DLL<char,ATL::ChTraitsCRT<char> > > >::`vftable'
PUBLIC	??_7?$CList@PAVCStyleData@@PAV1@@@6B@		; CList<CStyleData *,CStyleData *>::`vftable'
PUBLIC	??_C@_02PKFBJPLJ@10@				; `string'
PUBLIC	??_C@_02ODEKKOPI@11@				; `string'
PUBLIC	??_C@_05GFAOKHH@3?0800@				; `string'
PUBLIC	??_C@_05FODDPKCB@3?0700@			; `string'
PUBLIC	??_C@_05OGIPJNEE@3?0600@			; `string'
PUBLIC	??_C@_05PEDKDCKK@3?0500@			; `string'
PUBLIC	??_C@_05EMIGFFMP@3?0400@			; `string'
PUBLIC	??_C@_05NBFBGNHG@3?0300@			; `string'
PUBLIC	??_C@_05GJONAKBD@3?0200@			; `string'
PUBLIC	??_C@_05LJPCJDKB@1?0500@			; `string'
PUBLIC	??_C@_05IOCMGDJD@1?0000@			; `string'
PUBLIC	??_C@_05LEIIKPJO@?5?5500@			; `string'
PUBLIC	??_C@_04ICAEMAEP@X100@				; `string'
PUBLIC	??_R4CStyleDataManager@@6B@			; CStyleDataManager::`RTTI Complete Object Locator'
PUBLIC	??_R0?AVCStyleDataManager@@@8			; CStyleDataManager `RTTI Type Descriptor'
PUBLIC	??_R3CStyleDataManager@@8			; CStyleDataManager::`RTTI Class Hierarchy Descriptor'
PUBLIC	??_R2CStyleDataManager@@8			; CStyleDataManager::`RTTI Base Class Array'
PUBLIC	??_R1A@?0A@EA@CStyleDataManager@@8		; CStyleDataManager::`RTTI Base Class Descriptor at (0,-1,0,64)'
PUBLIC	??_R4?$CList@PAVCStyleData@@PAV1@@@6B@		; CList<CStyleData *,CStyleData *>::`RTTI Complete Object Locator'
PUBLIC	??_R0?AV?$CList@PAVCStyleData@@PAV1@@@@8	; CList<CStyleData *,CStyleData *> `RTTI Type Descriptor'
PUBLIC	??_R3?$CList@PAVCStyleData@@PAV1@@@8		; CList<CStyleData *,CStyleData *>::`RTTI Class Hierarchy Descriptor'
PUBLIC	??_R2?$CList@PAVCStyleData@@PAV1@@@8		; CList<CStyleData *,CStyleData *>::`RTTI Base Class Array'
PUBLIC	??_R1A@?0A@EA@?$CList@PAVCStyleData@@PAV1@@@8	; CList<CStyleData *,CStyleData *>::`RTTI Base Class Descriptor at (0,-1,0,64)'
PUBLIC	??_R4?$CList@V?$CStringT@DV?$StrTraitMFC_DLL@DV?$ChTraitsCRT@D@ATL@@@@@ATL@@V12@@@6B@ ; CList<ATL::CStringT<char,StrTraitMFC_DLL<char,ATL::ChTraitsCRT<char> > >,ATL::CStringT<char,StrTraitMFC_DLL<char,ATL::ChTraitsCRT<char> > > >::`RTTI Complete Object Locator'
PUBLIC	??_R0?AV?$CList@V?$CStringT@DV?$StrTraitMFC_DLL@DV?$ChTraitsCRT@D@ATL@@@@@ATL@@V12@@@@8 ; CList<ATL::CStringT<char,StrTraitMFC_DLL<char,ATL::ChTraitsCRT<char> > >,ATL::CStringT<char,StrTraitMFC_DLL<char,ATL::ChTraitsCRT<char> > > > `RTTI Type Descriptor'
PUBLIC	??_R3?$CList@V?$CStringT@DV?$StrTraitMFC_DLL@DV?$ChTraitsCRT@D@ATL@@@@@ATL@@V12@@@8 ; CList<ATL::CStringT<char,StrTraitMFC_DLL<char,ATL::ChTraitsCRT<char> > >,ATL::CStringT<char,StrTraitMFC_DLL<char,ATL::ChTraitsCRT<char> > > >::`RTTI Class Hierarchy Descriptor'
PUBLIC	??_R2?$CList@V?$CStringT@DV?$StrTraitMFC_DLL@DV?$ChTraitsCRT@D@ATL@@@@@ATL@@V12@@@8 ; CList<ATL::CStringT<char,StrTraitMFC_DLL<char,ATL::ChTraitsCRT<char> > >,ATL::CStringT<char,StrTraitMFC_DLL<char,ATL::ChTraitsCRT<char> > > >::`RTTI Base Class Array'
PUBLIC	??_R1A@?0A@EA@?$CList@V?$CStringT@DV?$StrTraitMFC_DLL@DV?$ChTraitsCRT@D@ATL@@@@@ATL@@V12@@@8 ; CList<ATL::CStringT<char,StrTraitMFC_DLL<char,ATL::ChTraitsCRT<char> > >,ATL::CStringT<char,StrTraitMFC_DLL<char,ATL::ChTraitsCRT<char> > > >::`RTTI Base Class Descriptor at (0,-1,0,64)'
PUBLIC	__real@4014000000000000
PUBLIC	__real@4034000000000000
PUBLIC	__real@4044000000000000
PUBLIC	__real@404e000000000000
PUBLIC	__real@4052c00000000000
PUBLIC	__real@4054000000000000
PUBLIC	__real@4059000000000000
PUBLIC	__real@405e000000000000
PUBLIC	__real@4061800000000000
PUBLIC	__real@4063600000000000
PUBLIC	__real@4065400000000000
PUBLIC	__real@4070100000000000
PUBLIC	__real@c034000000000000
PUBLIC	__real@c070100000000000
PUBLIC	__static@77cc68482924f3b8f8f60c5b78343a09bafb54cafc3ccfd5c89c1c03a819a1ec
PUBLIC	__static@9f1ce107946bb4ffb917fa77c4eee34eb2dcf07061f32d7ec058c6da1572a6a4
PUBLIC	__xmm@0000000a000000270000002500000024
PUBLIC	__xmm@0000000c0000000a0000002a00000029
PUBLIC	__xmm@000000110000000f0000000e0000000c
PUBLIC	__xmm@00000011000000120000001100000012
PUBLIC	__xmm@00000012000000110000001200000012
PUBLIC	__xmm@00000012000000130000001600000013
PUBLIC	__xmm@00000013000000110000000f0000000e
PUBLIC	__xmm@0000001300000012000000100000002a
PUBLIC	__xmm@00000013000000150000001900000020
PUBLIC	__xmm@00000013000000160000001300000018
PUBLIC	__xmm@00000013000000170000001100000012
PUBLIC	__xmm@00000015000000130000001200000010
PUBLIC	__xmm@00000015000000190000002000000012
PUBLIC	__xmm@000000150000002d0000002c0000002a
PUBLIC	__xmm@00000016000000150000001400000013
PUBLIC	__xmm@00000016000000150000003800000035
PUBLIC	__xmm@00000016000000160000001200000013
PUBLIC	__xmm@00000017000000110000001200000013
PUBLIC	__xmm@00000017000000160000001500000014
PUBLIC	__xmm@000000170000004a0000004700000043
PUBLIC	__xmm@00000018000000160000001600000012
PUBLIC	__xmm@00000018000000170000001600000015
PUBLIC	__xmm@00000019000000170000005700000055
PUBLIC	__xmm@00000019000000180000001700000016
PUBLIC	__xmm@00000019000000180000001700000038
PUBLIC	__xmm@0000001a000000190000001700000016
PUBLIC	__xmm@0000001a000000190000001800000017
PUBLIC	__xmm@0000001b000000190000001800000017
PUBLIC	__xmm@0000001b0000001a0000001900000017
PUBLIC	__xmm@0000001c0000001b0000001900000018
PUBLIC	__xmm@0000001d0000001c0000001a00000019
PUBLIC	__xmm@0000001e0000001d0000001b0000001a
PUBLIC	__xmm@0000001e0000001d0000001c0000001a
PUBLIC	__xmm@0000001e0000001d0000001c0000001b
PUBLIC	__xmm@0000001e0000001e0000001d0000001b
PUBLIC	__xmm@0000001f0000001d0000001b00000019
PUBLIC	__xmm@0000001f0000001e0000001d0000001c
PUBLIC	__xmm@000000200000001f0000001d0000001c
PUBLIC	__xmm@00000021000000200000001f0000001e
PUBLIC	__xmm@000000220000001f0000001d0000001b
PUBLIC	__xmm@00000022000000200000001f0000001d
PUBLIC	__xmm@0000002200000020000000200000001f
PUBLIC	__xmm@00000022000000210000001f0000001e
PUBLIC	__xmm@0000002300000021000000200000001f
PUBLIC	__xmm@00000023000000220000002000000020
PUBLIC	__xmm@0000002300000022000000210000001f
PUBLIC	__xmm@00000026000000230000002000000057
PUBLIC	__xmm@00000027000000250000002400000022
PUBLIC	__xmm@00000027000000260000002400000022
PUBLIC	__xmm@00000027000000260000002400000023
PUBLIC	__xmm@00000028000000260000002500000023
PUBLIC	__xmm@00000028000000270000002600000024
PUBLIC	__xmm@00000029000000260000002300000020
PUBLIC	__xmm@00000029000000270000002500000023
PUBLIC	__xmm@00000029000000270000002600000024
PUBLIC	__xmm@00000029000000280000002600000025
PUBLIC	__xmm@0000002b000000290000002700000025
PUBLIC	__xmm@0000002d0000002c0000002a00000028
PUBLIC	__xmm@0000002f0000002d0000002b00000029
PUBLIC	__xmm@000000320000002f0000002d0000002b
PUBLIC	__xmm@00000033000000300000002c00000029
PUBLIC	__xmm@00000033000000300000002e0000002b
PUBLIC	__xmm@0000003500000033000000300000002e
PUBLIC	__xmm@0000003600000033000000300000002c
PUBLIC	__xmm@000000380000005b0000005900000058
PUBLIC	__xmm@0000003c000000380000003500000032
PUBLIC	__xmm@0000003c000000380000006600000065
PUBLIC	__xmm@0000003f0000003c0000003900000036
PUBLIC	__xmm@000000400000003c0000003800000035
PUBLIC	__xmm@000000420000003f0000003c00000039
PUBLIC	__xmm@0000004400000077000000730000006d
PUBLIC	__xmm@00000045000000420000003f0000003c
PUBLIC	__xmm@0000004700000045000000420000003f
PUBLIC	__xmm@0000004900000044000000800000007e
PUBLIC	__xmm@00000049000000490000004e00000054
PUBLIC	__xmm@0000004a000000470000004300000040
PUBLIC	__xmm@0000004a000000470000004500000042
PUBLIC	__xmm@0000004a0000004a0000004900000047
PUBLIC	__xmm@0000004b0000004a0000004a00000049
PUBLIC	__xmm@0000004c0000004a0000004700000045
PUBLIC	__xmm@0000004c0000004a0000004700000066
PUBLIC	__xmm@0000004d0000004c0000004a00000047
PUBLIC	__xmm@0000004d0000004d0000004d0000004e
PUBLIC	__xmm@0000004e00000049000000490000004e
PUBLIC	__xmm@0000004e0000004e0000004f0000004f
PUBLIC	__xmm@0000004e0000004f0000004f0000004d
PUBLIC	__xmm@0000004f0000004d0000004d0000004d
PUBLIC	__xmm@0000004f0000004e0000004c0000004b
PUBLIC	__xmm@000000500000004d0000004c00000049
PUBLIC	__xmm@000000500000004f0000004e0000004c
PUBLIC	__xmm@00000053000000510000004e0000004c
PUBLIC	__xmm@0000005400000052000000500000004f
PUBLIC	__xmm@00000054000000530000005200000050
PUBLIC	__xmm@000000540000005b0000006200000063
PUBLIC	__xmm@00000055000000500000004d0000004c
PUBLIC	__xmm@0000005500000053000000510000004e
PUBLIC	__xmm@00000055000000540000005500000056
PUBLIC	__xmm@00000056000000540000005300000052
PUBLIC	__xmm@00000056000000580000005800000056
PUBLIC	__xmm@00000057000000550000005400000055
PUBLIC	__xmm@00000058000000540000005200000050
PUBLIC	__xmm@00000058000000580000005600000055
PUBLIC	__xmm@0000005b000000520000004700000080
PUBLIC	__xmm@0000005b000000590000005800000056
PUBLIC	__xmm@0000005b000000620000006300000061
PUBLIC	__xmm@000000600000005b0000005900000057
PUBLIC	__xmm@000000610000005b0000005200000047
PUBLIC	__xmm@000000620000005f0000005b00000058
PUBLIC	__xmm@00000065000000620000005f0000005b
PUBLIC	__xmm@00000066000000600000005b00000059
PUBLIC	__xmm@0000006800000060000000560000004e
PUBLIC	__xmm@0000006d000000680000006000000056
PUBLIC	__xmm@00000077000000730000006d00000066
PUBLIC	__xmm@0000007b00000076000000720000006d
PUBLIC	__xmm@0000007e0000007b0000007600000072
EXTRN	??_L@YGXPAXIIP6EX0@Z1@Z:PROC			; `eh vector constructor iterator'
EXTRN	??_M@YGXPAXIIP6EX0@Z@Z:PROC			; `eh vector destructor iterator'
EXTRN	??2@YAPAXI@Z:PROC				; operator new
EXTRN	??3@YAXPAX@Z:PROC				; operator delete
EXTRN	??3@YAXPAXI@Z:PROC				; operator delete
EXTRN	?__global_delete@@YAXPAXI@Z:PROC		; __global_delete
EXTRN	_atexit:PROC
EXTRN	___std_terminate:PROC
EXTRN	__imp__GetProcAddress@8:PROC
EXTRN	__imp__GetCurrentObject@8:PROC
EXTRN	__imp__GetTextColor@4:PROC
EXTRN	__imp__Rectangle@20:PROC
EXTRN	?AfxThrowInvalidArgException@@YGXXZ:PROC	; AfxThrowInvalidArgException
EXTRN	?AfxThrowArchiveException@@YGXHPBD@Z:PROC	; AfxThrowArchiveException
EXTRN	?GetRuntimeClass@CObject@@UBEPAUCRuntimeClass@@XZ:PROC ; CObject::GetRuntimeClass
EXTRN	__imp_??0?$CStringT@DV?$StrTraitMFC_DLL@DV?$ChTraitsCRT@D@ATL@@@@@ATL@@QAE@XZ:PROC
EXTRN	__imp_??0?$CStringT@DV?$StrTraitMFC_DLL@DV?$ChTraitsCRT@D@ATL@@@@@ATL@@QAE@ABV01@@Z:PROC
EXTRN	__imp_??0?$CStringT@DV?$StrTraitMFC_DLL@DV?$ChTraitsCRT@D@ATL@@@@@ATL@@QAE@PBD@Z:PROC
EXTRN	__imp_??1?$CStringT@DV?$StrTraitMFC_DLL@DV?$ChTraitsCRT@D@ATL@@@@@ATL@@QAE@XZ:PROC
EXTRN	__imp_??4?$CStringT@DV?$StrTraitMFC_DLL@DV?$ChTraitsCRT@D@ATL@@@@@ATL@@QAEAAV01@ABV01@@Z:PROC
EXTRN	__imp_?Compare@?$CStringT@DV?$StrTraitMFC_DLL@DV?$ChTraitsCRT@D@ATL@@@@@ATL@@QBEHPBD@Z:PROC
EXTRN	__imp_?Format@?$CStringT@DV?$StrTraitMFC_DLL@DV?$ChTraitsCRT@D@ATL@@@@@ATL@@QAAXPBDZZ:PROC
EXTRN	__imp_?LoadStringA@?$CStringT@DV?$StrTraitMFC_DLL@DV?$ChTraitsCRT@D@ATL@@@@@ATL@@QAEHI@Z:PROC
EXTRN	?Read@CArchive@@QAEIPAXI@Z:PROC			; CArchive::Read
EXTRN	?Write@CArchive@@QAEXPBXI@Z:PROC		; CArchive::Write
EXTRN	?ReadCount@CArchive@@QAEKXZ:PROC		; CArchive::ReadCount
EXTRN	?WriteCount@CArchive@@QAEXK@Z:PROC		; CArchive::WriteCount
EXTRN	??1CDWordArray@@UAE@XZ:PROC			; CDWordArray::~CDWordArray
EXTRN	?Create@CPlex@@SGPAU1@AAPAU1@II@Z:PROC		; CPlex::Create
EXTRN	?FreeDataChain@CPlex@@QAEXXZ:PROC		; CPlex::FreeDataChain
EXTRN	??$SerializeElements@V?$CStringT@DV?$StrTraitMFC_DLL@DV?$ChTraitsCRT@D@ATL@@@@@ATL@@@@YGXAAVCArchive@@PAV?$CStringT@DV?$StrTraitMFC_DLL@DV?$ChTraitsCRT@D@ATL@@@@@ATL@@H@Z:PROC ; SerializeElements<ATL::CStringT<char,StrTraitMFC_DLL<char,ATL::ChTraitsCRT<char> > > >
EXTRN	?GetRuntimeClass@CGdiObject@@UBEPAUCRuntimeClass@@XZ:PROC ; CGdiObject::GetRuntimeClass
EXTRN	?FromHandle@CGdiObject@@SGPAV1@PAX@Z:PROC	; CGdiObject::FromHandle
EXTRN	?DeleteObject@CGdiObject@@QAEHXZ:PROC		; CGdiObject::DeleteObject
EXTRN	??_ECGdiObject@@UAEPAXI@Z:PROC			; CGdiObject::`vector deleting destructor'
EXTRN	?GetRuntimeClass@CPen@@UBEPAUCRuntimeClass@@XZ:PROC ; CPen::GetRuntimeClass
EXTRN	??0CPen@@QAE@HHK@Z:PROC				; CPen::CPen
EXTRN	??_ECPen@@UAEPAXI@Z:PROC			; CPen::`vector deleting destructor'
EXTRN	?GetRuntimeClass@CBrush@@UBEPAUCRuntimeClass@@XZ:PROC ; CBrush::GetRuntimeClass
EXTRN	??0CBrush@@QAE@K@Z:PROC				; CBrush::CBrush
EXTRN	??_ECBrush@@UAEPAXI@Z:PROC			; CBrush::`vector deleting destructor'
EXTRN	?SelectObject@CDC@@QAEPAVCPen@@PAV2@@Z:PROC	; CDC::SelectObject
EXTRN	?SelectObject@CDC@@QAEPAVCBrush@@PAV2@@Z:PROC	; CDC::SelectObject
EXTRN	?SetBkMode@CDC@@QAEHH@Z:PROC			; CDC::SetBkMode
EXTRN	?MoveTo@CDC@@QAE?AVCPoint@@HH@Z:PROC		; CDC::MoveTo
EXTRN	?LineTo@CDC@@QAEHHH@Z:PROC			; CDC::LineTo
EXTRN	?AfxMessageBox@@YGHPBDII@Z:PROC			; AfxMessageBox
EXTRN	??_ECStyleDataManager@@UAEPAXI@Z:PROC		; CStyleDataManager::`vector deleting destructor'
EXTRN	?GetLanguageText@IMetaTable@@QAEPBDPAUHWND__@@W4E_CODEPAGE@1@PBDH@Z:PROC ; IMetaTable::GetLanguageText
EXTRN	?GetPriceMATitleList_Pointer@CMATitleListData@@QAEPAV?$CList@V?$CStringT@DV?$StrTraitMFC_DLL@DV?$ChTraitsCRT@D@ATL@@@@@ATL@@V12@@@XZ:PROC ; CMATitleListData::GetPriceMATitleList_Pointer
EXTRN	?GetTradeMATitleList_Pointer@CMATitleListData@@QAEPAV?$CList@V?$CStringT@DV?$StrTraitMFC_DLL@DV?$ChTraitsCRT@D@ATL@@@@@ATL@@V12@@@XZ:PROC ; CMATitleListData::GetTradeMATitleList_Pointer
EXTRN	??_E?$CList@V?$CStringT@DV?$StrTraitMFC_DLL@DV?$ChTraitsCRT@D@ATL@@@@@ATL@@V12@@@UAEPAXI@Z:PROC ; CList<ATL::CStringT<char,StrTraitMFC_DLL<char,ATL::ChTraitsCRT<char> > >,ATL::CStringT<char,StrTraitMFC_DLL<char,ATL::ChTraitsCRT<char> > > >::`vector deleting destructor'
EXTRN	??0CStyleData@@QAE@XZ:PROC			; CStyleData::CStyleData
EXTRN	??0CStyleData@@QAE@ABV0@@Z:PROC			; CStyleData::CStyleData
EXTRN	?SetStyleName@CStyleData@@QAEXABV?$CStringT@DV?$StrTraitMFC_DLL@DV?$ChTraitsCRT@D@ATL@@@@@ATL@@@Z:PROC ; CStyleData::SetStyleName
EXTRN	?SetPriceUpColor@CStyleData@@QAEXABK@Z:PROC	; CStyleData::SetPriceUpColor
EXTRN	?SetPriceDownColor@CStyleData@@QAEXABK@Z:PROC	; CStyleData::SetPriceDownColor
EXTRN	?SetPriceEqualColor@CStyleData@@QAEXABK@Z:PROC	; CStyleData::SetPriceEqualColor
EXTRN	?SetPriceUpFill@CStyleData@@QAEXAB_N@Z:PROC	; CStyleData::SetPriceUpFill
EXTRN	?SetPriceDownFill@CStyleData@@QAEXAB_N@Z:PROC	; CStyleData::SetPriceDownFill
EXTRN	?SetTradeUpColor@CStyleData@@QAEXABK@Z:PROC	; CStyleData::SetTradeUpColor
EXTRN	?SetTradeDownColor@CStyleData@@QAEXABK@Z:PROC	; CStyleData::SetTradeDownColor
EXTRN	?SetTradeEqualColor@CStyleData@@QAEXABK@Z:PROC	; CStyleData::SetTradeEqualColor
EXTRN	?SetTradeUpFill@CStyleData@@QAEXAB_N@Z:PROC	; CStyleData::SetTradeUpFill
EXTRN	?SetTradeDownFill@CStyleData@@QAEXAB_N@Z:PROC	; CStyleData::SetTradeDownFill
EXTRN	?SetPriceMAColor@CStyleData@@QAEXHABK@Z:PROC	; CStyleData::SetPriceMAColor
EXTRN	?SetTradeMAColor@CStyleData@@QAEXHABK@Z:PROC	; CStyleData::SetTradeMAColor
EXTRN	?SetGraphBGColor@CStyleData@@QAEXABK@Z:PROC	; CStyleData::SetGraphBGColor
EXTRN	?SetGraphBorderColor@CStyleData@@QAEXABK@Z:PROC	; CStyleData::SetGraphBorderColor
EXTRN	?SetGraphGridColor@CStyleData@@QAEXABK@Z:PROC	; CStyleData::SetGraphGridColor
EXTRN	?SetScaleBGColor@CStyleData@@QAEXABK@Z:PROC	; CStyleData::SetScaleBGColor
EXTRN	?SetScaleBorderColor@CStyleData@@QAEXABK@Z:PROC	; CStyleData::SetScaleBorderColor
EXTRN	?SetScaleTextColor@CStyleData@@QAEXABK@Z:PROC	; CStyleData::SetScaleTextColor
EXTRN	?SetScaleGridColor@CStyleData@@QAEXABK@Z:PROC	; CStyleData::SetScaleGridColor
EXTRN	?SetGridWidth@CStyleData@@QAEXABH@Z:PROC	; CStyleData::SetGridWidth
EXTRN	?SetGridHeight@CStyleData@@QAEXABH@Z:PROC	; CStyleData::SetGridHeight
EXTRN	?SetDivideWidth@CStyleData@@QAEXABH@Z:PROC	; CStyleData::SetDivideWidth
EXTRN	?SetDivideHeight@CStyleData@@QAEXABH@Z:PROC	; CStyleData::SetDivideHeight
EXTRN	?SetAnalyzeColor@CStyleData@@QAEXK@Z:PROC	; CStyleData::SetAnalyzeColor
EXTRN	?SetNumericalColor@CStyleData@@QAEXK@Z:PROC	; CStyleData::SetNumericalColor
EXTRN	?GetStyleName@CStyleData@@QBE?AV?$CStringT@DV?$StrTraitMFC_DLL@DV?$ChTraitsCRT@D@ATL@@@@@ATL@@XZ:PROC ; CStyleData::GetStyleName
EXTRN	?GetPriceUpColor@CStyleData@@QBEKXZ:PROC	; CStyleData::GetPriceUpColor
EXTRN	?GetPriceDownColor@CStyleData@@QBEKXZ:PROC	; CStyleData::GetPriceDownColor
EXTRN	?GetPriceEqualColor@CStyleData@@QBEKXZ:PROC	; CStyleData::GetPriceEqualColor
EXTRN	?GetPriceUpFill@CStyleData@@QBE_NXZ:PROC	; CStyleData::GetPriceUpFill
EXTRN	?GetPriceDownFill@CStyleData@@QBE_NXZ:PROC	; CStyleData::GetPriceDownFill
EXTRN	?GetTradeUpColor@CStyleData@@QBEKXZ:PROC	; CStyleData::GetTradeUpColor
EXTRN	?GetTradeDownColor@CStyleData@@QBEKXZ:PROC	; CStyleData::GetTradeDownColor
EXTRN	?GetTradeEqualColor@CStyleData@@QBEKXZ:PROC	; CStyleData::GetTradeEqualColor
EXTRN	?GetTradeUpFill@CStyleData@@QBE_NXZ:PROC	; CStyleData::GetTradeUpFill
EXTRN	?GetTradeDownFill@CStyleData@@QBE_NXZ:PROC	; CStyleData::GetTradeDownFill
EXTRN	?GetPriceMACount@CStyleData@@QBEHXZ:PROC	; CStyleData::GetPriceMACount
EXTRN	?GetPriceMAColor@CStyleData@@QBEKH@Z:PROC	; CStyleData::GetPriceMAColor
EXTRN	?GetTradeMACount@CStyleData@@QBEHXZ:PROC	; CStyleData::GetTradeMACount
EXTRN	?GetTradeMAColor@CStyleData@@QBEKH@Z:PROC	; CStyleData::GetTradeMAColor
EXTRN	?GetGraphBGColor@CStyleData@@QBEKXZ:PROC	; CStyleData::GetGraphBGColor
EXTRN	?GetGraphBorderColor@CStyleData@@QBEKXZ:PROC	; CStyleData::GetGraphBorderColor
EXTRN	?GetGraphGridColor@CStyleData@@QBEKXZ:PROC	; CStyleData::GetGraphGridColor
EXTRN	?GetScaleBGColor@CStyleData@@QBEKXZ:PROC	; CStyleData::GetScaleBGColor
EXTRN	?GetScaleBorderColor@CStyleData@@QBEKXZ:PROC	; CStyleData::GetScaleBorderColor
EXTRN	?GetScaleTextColor@CStyleData@@QBEKXZ:PROC	; CStyleData::GetScaleTextColor
EXTRN	?GetScaleGridColor@CStyleData@@QBEKXZ:PROC	; CStyleData::GetScaleGridColor
EXTRN	?GetGridWidth@CStyleData@@QBEHXZ:PROC		; CStyleData::GetGridWidth
EXTRN	?GetGridHeight@CStyleData@@QBEHXZ:PROC		; CStyleData::GetGridHeight
EXTRN	?GetDivideWidth@CStyleData@@QBEHXZ:PROC		; CStyleData::GetDivideWidth
EXTRN	?GetDivideHeight@CStyleData@@QBEHXZ:PROC	; CStyleData::GetDivideHeight
EXTRN	?GetAnalyzeColor@CStyleData@@QBEKXZ:PROC	; CStyleData::GetAnalyzeColor
EXTRN	?GetNumericalColor@CStyleData@@QBEKXZ:PROC	; CStyleData::GetNumericalColor
EXTRN	?GetMATitleListData@CStyleData@@QAEAAVCMATitleListData@@XZ:PROC ; CStyleData::GetMATitleListData
EXTRN	?SetHScaleGridType_TimeGubun@CStyleData@@QAEXABHH@Z:PROC ; CStyleData::SetHScaleGridType_TimeGubun
EXTRN	?SetHScaleGridColor_TimeGubun@CStyleData@@QAEXABKH@Z:PROC ; CStyleData::SetHScaleGridColor_TimeGubun
EXTRN	?SetScaleLineThickness_TimeGubun@CStyleData@@QAEXHH@Z:PROC ; CStyleData::SetScaleLineThickness_TimeGubun
EXTRN	?IsSameWith@CStyleData@@QAEHAAV1@@Z:PROC	; CStyleData::IsSameWith
EXTRN	??0CStyleFileBuilder@@QAE@XZ:PROC		; CStyleFileBuilder::CStyleFileBuilder
EXTRN	?ReadStyleFile_Default@CStyleFileBuilder@@QAE_NPBDAAHAAV?$CList@PAVCStyleData@@PAV1@@@@Z:PROC ; CStyleFileBuilder::ReadStyleFile_Default
EXTRN	?ReadStyleFile_User@CStyleFileBuilder@@QAE_NPBDAAV?$CList@PAVCStyleData@@PAV1@@@@Z:PROC ; CStyleFileBuilder::ReadStyleFile_User
EXTRN	?WriteUserStyleFile@CStyleFileBuilder@@QAE_NPBDHAAV?$CList@PAVCStyleData@@PAV1@@@@Z:PROC ; CStyleFileBuilder::WriteUserStyleFile
EXTRN	??_E?$CList@PAVCStyleData@@PAV1@@@UAEPAXI@Z:PROC ; CList<CStyleData *,CStyleData *>::`vector deleting destructor'
EXTRN	@__security_check_cookie@4:PROC
EXTRN	___CxxFrameHandler3:PROC
EXTRN	??_7type_info@@6B@:QWORD			; type_info::`vftable'
EXTRN	?g_iMetaTable@@3VIMetaTable@@A:BYTE		; g_iMetaTable
EXTRN	___security_cookie:DWORD
EXTRN	__fltused:DWORD
CRT$XCU	SEGMENT
??m_lstStyleDefault$initializer$@CStyleDataManager@@1P6AXXZA@@3P6AXXZA DD FLAT:??__E?m_lstStyleDefault@CStyleDataManager@@1V?$CList@PAVCStyleData@@PAV1@@@A@@YAXXZ ; ??m_lstStyleDefault$initializer$@CStyleDataManager@@1P6AXXZA@@3P6AXXZA
CRT$XCU	ENDS
;	COMDAT __xmm@0000007e0000007b0000007600000072
CONST	SEGMENT
__xmm@0000007e0000007b0000007600000072 DB 'r', 00H, 00H, 00H, 'v', 00H, 00H
	DB	00H, '{', 00H, 00H, 00H, '~', 00H, 00H, 00H
CONST	ENDS
;	COMDAT __xmm@0000007b00000076000000720000006d
CONST	SEGMENT
__xmm@0000007b00000076000000720000006d DB 'm', 00H, 00H, 00H, 'r', 00H, 00H
	DB	00H, 'v', 00H, 00H, 00H, '{', 00H, 00H, 00H
CONST	ENDS
;	COMDAT __xmm@00000077000000730000006d00000066
CONST	SEGMENT
__xmm@00000077000000730000006d00000066 DB 'f', 00H, 00H, 00H, 'm', 00H, 00H
	DB	00H, 's', 00H, 00H, 00H, 'w', 00H, 00H, 00H
CONST	ENDS
;	COMDAT __xmm@0000006d000000680000006000000056
CONST	SEGMENT
__xmm@0000006d000000680000006000000056 DB 'V', 00H, 00H, 00H, '`', 00H, 00H
	DB	00H, 'h', 00H, 00H, 00H, 'm', 00H, 00H, 00H
CONST	ENDS
;	COMDAT __xmm@0000006800000060000000560000004e
CONST	SEGMENT
__xmm@0000006800000060000000560000004e DB 'N', 00H, 00H, 00H, 'V', 00H, 00H
	DB	00H, '`', 00H, 00H, 00H, 'h', 00H, 00H, 00H
CONST	ENDS
;	COMDAT __xmm@00000066000000600000005b00000059
CONST	SEGMENT
__xmm@00000066000000600000005b00000059 DB 'Y', 00H, 00H, 00H, '[', 00H, 00H
	DB	00H, '`', 00H, 00H, 00H, 'f', 00H, 00H, 00H
CONST	ENDS
;	COMDAT __xmm@00000065000000620000005f0000005b
CONST	SEGMENT
__xmm@00000065000000620000005f0000005b DB '[', 00H, 00H, 00H, '_', 00H, 00H
	DB	00H, 'b', 00H, 00H, 00H, 'e', 00H, 00H, 00H
CONST	ENDS
;	COMDAT __xmm@000000620000005f0000005b00000058
CONST	SEGMENT
__xmm@000000620000005f0000005b00000058 DB 'X', 00H, 00H, 00H, '[', 00H, 00H
	DB	00H, '_', 00H, 00H, 00H, 'b', 00H, 00H, 00H
CONST	ENDS
;	COMDAT __xmm@000000610000005b0000005200000047
CONST	SEGMENT
__xmm@000000610000005b0000005200000047 DB 'G', 00H, 00H, 00H, 'R', 00H, 00H
	DB	00H, '[', 00H, 00H, 00H, 'a', 00H, 00H, 00H
CONST	ENDS
;	COMDAT __xmm@000000600000005b0000005900000057
CONST	SEGMENT
__xmm@000000600000005b0000005900000057 DB 'W', 00H, 00H, 00H, 'Y', 00H, 00H
	DB	00H, '[', 00H, 00H, 00H, '`', 00H, 00H, 00H
CONST	ENDS
;	COMDAT __xmm@0000005b000000620000006300000061
CONST	SEGMENT
__xmm@0000005b000000620000006300000061 DB 'a', 00H, 00H, 00H, 'c', 00H, 00H
	DB	00H, 'b', 00H, 00H, 00H, '[', 00H, 00H, 00H
CONST	ENDS
;	COMDAT __xmm@0000005b000000590000005800000056
CONST	SEGMENT
__xmm@0000005b000000590000005800000056 DB 'V', 00H, 00H, 00H, 'X', 00H, 00H
	DB	00H, 'Y', 00H, 00H, 00H, '[', 00H, 00H, 00H
CONST	ENDS
;	COMDAT __xmm@0000005b000000520000004700000080
CONST	SEGMENT
__xmm@0000005b000000520000004700000080 DB 080H, 00H, 00H, 00H, 'G', 00H, 00H
	DB	00H, 'R', 00H, 00H, 00H, '[', 00H, 00H, 00H
CONST	ENDS
;	COMDAT __xmm@00000058000000580000005600000055
CONST	SEGMENT
__xmm@00000058000000580000005600000055 DB 'U', 00H, 00H, 00H, 'V', 00H, 00H
	DB	00H, 'X', 00H, 00H, 00H, 'X', 00H, 00H, 00H
CONST	ENDS
;	COMDAT __xmm@00000058000000540000005200000050
CONST	SEGMENT
__xmm@00000058000000540000005200000050 DB 'P', 00H, 00H, 00H, 'R', 00H, 00H
	DB	00H, 'T', 00H, 00H, 00H, 'X', 00H, 00H, 00H
CONST	ENDS
;	COMDAT __xmm@00000057000000550000005400000055
CONST	SEGMENT
__xmm@00000057000000550000005400000055 DB 'U', 00H, 00H, 00H, 'T', 00H, 00H
	DB	00H, 'U', 00H, 00H, 00H, 'W', 00H, 00H, 00H
CONST	ENDS
;	COMDAT __xmm@00000056000000580000005800000056
CONST	SEGMENT
__xmm@00000056000000580000005800000056 DB 'V', 00H, 00H, 00H, 'X', 00H, 00H
	DB	00H, 'X', 00H, 00H, 00H, 'V', 00H, 00H, 00H
CONST	ENDS
;	COMDAT __xmm@00000056000000540000005300000052
CONST	SEGMENT
__xmm@00000056000000540000005300000052 DB 'R', 00H, 00H, 00H, 'S', 00H, 00H
	DB	00H, 'T', 00H, 00H, 00H, 'V', 00H, 00H, 00H
CONST	ENDS
;	COMDAT __xmm@00000055000000540000005500000056
CONST	SEGMENT
__xmm@00000055000000540000005500000056 DB 'V', 00H, 00H, 00H, 'U', 00H, 00H
	DB	00H, 'T', 00H, 00H, 00H, 'U', 00H, 00H, 00H
CONST	ENDS
;	COMDAT __xmm@0000005500000053000000510000004e
CONST	SEGMENT
__xmm@0000005500000053000000510000004e DB 'N', 00H, 00H, 00H, 'Q', 00H, 00H
	DB	00H, 'S', 00H, 00H, 00H, 'U', 00H, 00H, 00H
CONST	ENDS
;	COMDAT __xmm@00000055000000500000004d0000004c
CONST	SEGMENT
__xmm@00000055000000500000004d0000004c DB 'L', 00H, 00H, 00H, 'M', 00H, 00H
	DB	00H, 'P', 00H, 00H, 00H, 'U', 00H, 00H, 00H
CONST	ENDS
;	COMDAT __xmm@000000540000005b0000006200000063
CONST	SEGMENT
__xmm@000000540000005b0000006200000063 DB 'c', 00H, 00H, 00H, 'b', 00H, 00H
	DB	00H, '[', 00H, 00H, 00H, 'T', 00H, 00H, 00H
CONST	ENDS
;	COMDAT __xmm@00000054000000530000005200000050
CONST	SEGMENT
__xmm@00000054000000530000005200000050 DB 'P', 00H, 00H, 00H, 'R', 00H, 00H
	DB	00H, 'S', 00H, 00H, 00H, 'T', 00H, 00H, 00H
CONST	ENDS
;	COMDAT __xmm@0000005400000052000000500000004f
CONST	SEGMENT
__xmm@0000005400000052000000500000004f DB 'O', 00H, 00H, 00H, 'P', 00H, 00H
	DB	00H, 'R', 00H, 00H, 00H, 'T', 00H, 00H, 00H
CONST	ENDS
;	COMDAT __xmm@00000053000000510000004e0000004c
CONST	SEGMENT
__xmm@00000053000000510000004e0000004c DB 'L', 00H, 00H, 00H, 'N', 00H, 00H
	DB	00H, 'Q', 00H, 00H, 00H, 'S', 00H, 00H, 00H
CONST	ENDS
;	COMDAT __xmm@000000500000004f0000004e0000004c
CONST	SEGMENT
__xmm@000000500000004f0000004e0000004c DB 'L', 00H, 00H, 00H, 'N', 00H, 00H
	DB	00H, 'O', 00H, 00H, 00H, 'P', 00H, 00H, 00H
CONST	ENDS
;	COMDAT __xmm@000000500000004d0000004c00000049
CONST	SEGMENT
__xmm@000000500000004d0000004c00000049 DB 'I', 00H, 00H, 00H, 'L', 00H, 00H
	DB	00H, 'M', 00H, 00H, 00H, 'P', 00H, 00H, 00H
CONST	ENDS
;	COMDAT __xmm@0000004f0000004e0000004c0000004b
CONST	SEGMENT
__xmm@0000004f0000004e0000004c0000004b DB 'K', 00H, 00H, 00H, 'L', 00H, 00H
	DB	00H, 'N', 00H, 00H, 00H, 'O', 00H, 00H, 00H
CONST	ENDS
;	COMDAT __xmm@0000004f0000004d0000004d0000004d
CONST	SEGMENT
__xmm@0000004f0000004d0000004d0000004d DB 'M', 00H, 00H, 00H, 'M', 00H, 00H
	DB	00H, 'M', 00H, 00H, 00H, 'O', 00H, 00H, 00H
CONST	ENDS
;	COMDAT __xmm@0000004e0000004f0000004f0000004d
CONST	SEGMENT
__xmm@0000004e0000004f0000004f0000004d DB 'M', 00H, 00H, 00H, 'O', 00H, 00H
	DB	00H, 'O', 00H, 00H, 00H, 'N', 00H, 00H, 00H
CONST	ENDS
;	COMDAT __xmm@0000004e0000004e0000004f0000004f
CONST	SEGMENT
__xmm@0000004e0000004e0000004f0000004f DB 'O', 00H, 00H, 00H, 'O', 00H, 00H
	DB	00H, 'N', 00H, 00H, 00H, 'N', 00H, 00H, 00H
CONST	ENDS
;	COMDAT __xmm@0000004e00000049000000490000004e
CONST	SEGMENT
__xmm@0000004e00000049000000490000004e DB 'N', 00H, 00H, 00H, 'I', 00H, 00H
	DB	00H, 'I', 00H, 00H, 00H, 'N', 00H, 00H, 00H
CONST	ENDS
;	COMDAT __xmm@0000004d0000004d0000004d0000004e
CONST	SEGMENT
__xmm@0000004d0000004d0000004d0000004e DB 'N', 00H, 00H, 00H, 'M', 00H, 00H
	DB	00H, 'M', 00H, 00H, 00H, 'M', 00H, 00H, 00H
CONST	ENDS
;	COMDAT __xmm@0000004d0000004c0000004a00000047
CONST	SEGMENT
__xmm@0000004d0000004c0000004a00000047 DB 'G', 00H, 00H, 00H, 'J', 00H, 00H
	DB	00H, 'L', 00H, 00H, 00H, 'M', 00H, 00H, 00H
CONST	ENDS
;	COMDAT __xmm@0000004c0000004a0000004700000066
CONST	SEGMENT
__xmm@0000004c0000004a0000004700000066 DB 'f', 00H, 00H, 00H, 'G', 00H, 00H
	DB	00H, 'J', 00H, 00H, 00H, 'L', 00H, 00H, 00H
CONST	ENDS
;	COMDAT __xmm@0000004c0000004a0000004700000045
CONST	SEGMENT
__xmm@0000004c0000004a0000004700000045 DB 'E', 00H, 00H, 00H, 'G', 00H, 00H
	DB	00H, 'J', 00H, 00H, 00H, 'L', 00H, 00H, 00H
CONST	ENDS
;	COMDAT __xmm@0000004b0000004a0000004a00000049
CONST	SEGMENT
__xmm@0000004b0000004a0000004a00000049 DB 'I', 00H, 00H, 00H, 'J', 00H, 00H
	DB	00H, 'J', 00H, 00H, 00H, 'K', 00H, 00H, 00H
CONST	ENDS
;	COMDAT __xmm@0000004a0000004a0000004900000047
CONST	SEGMENT
__xmm@0000004a0000004a0000004900000047 DB 'G', 00H, 00H, 00H, 'I', 00H, 00H
	DB	00H, 'J', 00H, 00H, 00H, 'J', 00H, 00H, 00H
CONST	ENDS
;	COMDAT __xmm@0000004a000000470000004500000042
CONST	SEGMENT
__xmm@0000004a000000470000004500000042 DB 'B', 00H, 00H, 00H, 'E', 00H, 00H
	DB	00H, 'G', 00H, 00H, 00H, 'J', 00H, 00H, 00H
CONST	ENDS
;	COMDAT __xmm@0000004a000000470000004300000040
CONST	SEGMENT
__xmm@0000004a000000470000004300000040 DB '@', 00H, 00H, 00H, 'C', 00H, 00H
	DB	00H, 'G', 00H, 00H, 00H, 'J', 00H, 00H, 00H
CONST	ENDS
;	COMDAT __xmm@00000049000000490000004e00000054
CONST	SEGMENT
__xmm@00000049000000490000004e00000054 DB 'T', 00H, 00H, 00H, 'N', 00H, 00H
	DB	00H, 'I', 00H, 00H, 00H, 'I', 00H, 00H, 00H
CONST	ENDS
;	COMDAT __xmm@0000004900000044000000800000007e
CONST	SEGMENT
__xmm@0000004900000044000000800000007e DB '~', 00H, 00H, 00H, 080H, 00H, 00H
	DB	00H, 'D', 00H, 00H, 00H, 'I', 00H, 00H, 00H
CONST	ENDS
;	COMDAT __xmm@0000004700000045000000420000003f
CONST	SEGMENT
__xmm@0000004700000045000000420000003f DB '?', 00H, 00H, 00H, 'B', 00H, 00H
	DB	00H, 'E', 00H, 00H, 00H, 'G', 00H, 00H, 00H
CONST	ENDS
;	COMDAT __xmm@00000045000000420000003f0000003c
CONST	SEGMENT
__xmm@00000045000000420000003f0000003c DB '<', 00H, 00H, 00H, '?', 00H, 00H
	DB	00H, 'B', 00H, 00H, 00H, 'E', 00H, 00H, 00H
CONST	ENDS
;	COMDAT __xmm@0000004400000077000000730000006d
CONST	SEGMENT
__xmm@0000004400000077000000730000006d DB 'm', 00H, 00H, 00H, 's', 00H, 00H
	DB	00H, 'w', 00H, 00H, 00H, 'D', 00H, 00H, 00H
CONST	ENDS
;	COMDAT __xmm@000000420000003f0000003c00000039
CONST	SEGMENT
__xmm@000000420000003f0000003c00000039 DB '9', 00H, 00H, 00H, '<', 00H, 00H
	DB	00H, '?', 00H, 00H, 00H, 'B', 00H, 00H, 00H
CONST	ENDS
;	COMDAT __xmm@000000400000003c0000003800000035
CONST	SEGMENT
__xmm@000000400000003c0000003800000035 DB '5', 00H, 00H, 00H, '8', 00H, 00H
	DB	00H, '<', 00H, 00H, 00H, '@', 00H, 00H, 00H
CONST	ENDS
;	COMDAT __xmm@0000003f0000003c0000003900000036
CONST	SEGMENT
__xmm@0000003f0000003c0000003900000036 DB '6', 00H, 00H, 00H, '9', 00H, 00H
	DB	00H, '<', 00H, 00H, 00H, '?', 00H, 00H, 00H
CONST	ENDS
;	COMDAT __xmm@0000003c000000380000006600000065
CONST	SEGMENT
__xmm@0000003c000000380000006600000065 DB 'e', 00H, 00H, 00H, 'f', 00H, 00H
	DB	00H, '8', 00H, 00H, 00H, '<', 00H, 00H, 00H
CONST	ENDS
;	COMDAT __xmm@0000003c000000380000003500000032
CONST	SEGMENT
__xmm@0000003c000000380000003500000032 DB '2', 00H, 00H, 00H, '5', 00H, 00H
	DB	00H, '8', 00H, 00H, 00H, '<', 00H, 00H, 00H
CONST	ENDS
;	COMDAT __xmm@000000380000005b0000005900000058
CONST	SEGMENT
__xmm@000000380000005b0000005900000058 DB 'X', 00H, 00H, 00H, 'Y', 00H, 00H
	DB	00H, '[', 00H, 00H, 00H, '8', 00H, 00H, 00H
CONST	ENDS
;	COMDAT __xmm@0000003600000033000000300000002c
CONST	SEGMENT
__xmm@0000003600000033000000300000002c DB ',', 00H, 00H, 00H, '0', 00H, 00H
	DB	00H, '3', 00H, 00H, 00H, '6', 00H, 00H, 00H
CONST	ENDS
;	COMDAT __xmm@0000003500000033000000300000002e
CONST	SEGMENT
__xmm@0000003500000033000000300000002e DB '.', 00H, 00H, 00H, '0', 00H, 00H
	DB	00H, '3', 00H, 00H, 00H, '5', 00H, 00H, 00H
CONST	ENDS
;	COMDAT __xmm@00000033000000300000002e0000002b
CONST	SEGMENT
__xmm@00000033000000300000002e0000002b DB '+', 00H, 00H, 00H, '.', 00H, 00H
	DB	00H, '0', 00H, 00H, 00H, '3', 00H, 00H, 00H
CONST	ENDS
;	COMDAT __xmm@00000033000000300000002c00000029
CONST	SEGMENT
__xmm@00000033000000300000002c00000029 DB ')', 00H, 00H, 00H, ',', 00H, 00H
	DB	00H, '0', 00H, 00H, 00H, '3', 00H, 00H, 00H
CONST	ENDS
;	COMDAT __xmm@000000320000002f0000002d0000002b
CONST	SEGMENT
__xmm@000000320000002f0000002d0000002b DB '+', 00H, 00H, 00H, '-', 00H, 00H
	DB	00H, '/', 00H, 00H, 00H, '2', 00H, 00H, 00H
CONST	ENDS
;	COMDAT __xmm@0000002f0000002d0000002b00000029
CONST	SEGMENT
__xmm@0000002f0000002d0000002b00000029 DB ')', 00H, 00H, 00H, '+', 00H, 00H
	DB	00H, '-', 00H, 00H, 00H, '/', 00H, 00H, 00H
CONST	ENDS
;	COMDAT __xmm@0000002d0000002c0000002a00000028
CONST	SEGMENT
__xmm@0000002d0000002c0000002a00000028 DB '(', 00H, 00H, 00H, '*', 00H, 00H
	DB	00H, ',', 00H, 00H, 00H, '-', 00H, 00H, 00H
CONST	ENDS
;	COMDAT __xmm@0000002b000000290000002700000025
CONST	SEGMENT
__xmm@0000002b000000290000002700000025 DB '%', 00H, 00H, 00H, '''', 00H, 00H
	DB	00H, ')', 00H, 00H, 00H, '+', 00H, 00H, 00H
CONST	ENDS
;	COMDAT __xmm@00000029000000280000002600000025
CONST	SEGMENT
__xmm@00000029000000280000002600000025 DB '%', 00H, 00H, 00H, '&', 00H, 00H
	DB	00H, '(', 00H, 00H, 00H, ')', 00H, 00H, 00H
CONST	ENDS
;	COMDAT __xmm@00000029000000270000002600000024
CONST	SEGMENT
__xmm@00000029000000270000002600000024 DB '$', 00H, 00H, 00H, '&', 00H, 00H
	DB	00H, '''', 00H, 00H, 00H, ')', 00H, 00H, 00H
CONST	ENDS
;	COMDAT __xmm@00000029000000270000002500000023
CONST	SEGMENT
__xmm@00000029000000270000002500000023 DB '#', 00H, 00H, 00H, '%', 00H, 00H
	DB	00H, '''', 00H, 00H, 00H, ')', 00H, 00H, 00H
CONST	ENDS
;	COMDAT __xmm@00000029000000260000002300000020
CONST	SEGMENT
__xmm@00000029000000260000002300000020 DB ' ', 00H, 00H, 00H, '#', 00H, 00H
	DB	00H, '&', 00H, 00H, 00H, ')', 00H, 00H, 00H
CONST	ENDS
;	COMDAT __xmm@00000028000000270000002600000024
CONST	SEGMENT
__xmm@00000028000000270000002600000024 DB '$', 00H, 00H, 00H, '&', 00H, 00H
	DB	00H, '''', 00H, 00H, 00H, '(', 00H, 00H, 00H
CONST	ENDS
;	COMDAT __xmm@00000028000000260000002500000023
CONST	SEGMENT
__xmm@00000028000000260000002500000023 DB '#', 00H, 00H, 00H, '%', 00H, 00H
	DB	00H, '&', 00H, 00H, 00H, '(', 00H, 00H, 00H
CONST	ENDS
;	COMDAT __xmm@00000027000000260000002400000023
CONST	SEGMENT
__xmm@00000027000000260000002400000023 DB '#', 00H, 00H, 00H, '$', 00H, 00H
	DB	00H, '&', 00H, 00H, 00H, '''', 00H, 00H, 00H
CONST	ENDS
;	COMDAT __xmm@00000027000000260000002400000022
CONST	SEGMENT
__xmm@00000027000000260000002400000022 DB '"', 00H, 00H, 00H, '$', 00H, 00H
	DB	00H, '&', 00H, 00H, 00H, '''', 00H, 00H, 00H
CONST	ENDS
;	COMDAT __xmm@00000027000000250000002400000022
CONST	SEGMENT
__xmm@00000027000000250000002400000022 DB '"', 00H, 00H, 00H, '$', 00H, 00H
	DB	00H, '%', 00H, 00H, 00H, '''', 00H, 00H, 00H
CONST	ENDS
;	COMDAT __xmm@00000026000000230000002000000057
CONST	SEGMENT
__xmm@00000026000000230000002000000057 DB 'W', 00H, 00H, 00H, ' ', 00H, 00H
	DB	00H, '#', 00H, 00H, 00H, '&', 00H, 00H, 00H
CONST	ENDS
;	COMDAT __xmm@0000002300000022000000210000001f
CONST	SEGMENT
__xmm@0000002300000022000000210000001f DB 01fH, 00H, 00H, 00H, '!', 00H, 00H
	DB	00H, '"', 00H, 00H, 00H, '#', 00H, 00H, 00H
CONST	ENDS
;	COMDAT __xmm@00000023000000220000002000000020
CONST	SEGMENT
__xmm@00000023000000220000002000000020 DB ' ', 00H, 00H, 00H, ' ', 00H, 00H
	DB	00H, '"', 00H, 00H, 00H, '#', 00H, 00H, 00H
CONST	ENDS
;	COMDAT __xmm@0000002300000021000000200000001f
CONST	SEGMENT
__xmm@0000002300000021000000200000001f DB 01fH, 00H, 00H, 00H, ' ', 00H, 00H
	DB	00H, '!', 00H, 00H, 00H, '#', 00H, 00H, 00H
CONST	ENDS
;	COMDAT __xmm@00000022000000210000001f0000001e
CONST	SEGMENT
__xmm@00000022000000210000001f0000001e DB 01eH, 00H, 00H, 00H, 01fH, 00H, 00H
	DB	00H, '!', 00H, 00H, 00H, '"', 00H, 00H, 00H
CONST	ENDS
;	COMDAT __xmm@0000002200000020000000200000001f
CONST	SEGMENT
__xmm@0000002200000020000000200000001f DB 01fH, 00H, 00H, 00H, ' ', 00H, 00H
	DB	00H, ' ', 00H, 00H, 00H, '"', 00H, 00H, 00H
CONST	ENDS
;	COMDAT __xmm@00000022000000200000001f0000001d
CONST	SEGMENT
__xmm@00000022000000200000001f0000001d DB 01dH, 00H, 00H, 00H, 01fH, 00H, 00H
	DB	00H, ' ', 00H, 00H, 00H, '"', 00H, 00H, 00H
CONST	ENDS
;	COMDAT __xmm@000000220000001f0000001d0000001b
CONST	SEGMENT
__xmm@000000220000001f0000001d0000001b DB 01bH, 00H, 00H, 00H, 01dH, 00H, 00H
	DB	00H, 01fH, 00H, 00H, 00H, '"', 00H, 00H, 00H
CONST	ENDS
;	COMDAT __xmm@00000021000000200000001f0000001e
CONST	SEGMENT
__xmm@00000021000000200000001f0000001e DB 01eH, 00H, 00H, 00H, 01fH, 00H, 00H
	DB	00H, ' ', 00H, 00H, 00H, '!', 00H, 00H, 00H
CONST	ENDS
;	COMDAT __xmm@000000200000001f0000001d0000001c
CONST	SEGMENT
__xmm@000000200000001f0000001d0000001c DB 01cH, 00H, 00H, 00H, 01dH, 00H, 00H
	DB	00H, 01fH, 00H, 00H, 00H, ' ', 00H, 00H, 00H
CONST	ENDS
;	COMDAT __xmm@0000001f0000001e0000001d0000001c
CONST	SEGMENT
__xmm@0000001f0000001e0000001d0000001c DB 01cH, 00H, 00H, 00H, 01dH, 00H, 00H
	DB	00H, 01eH, 00H, 00H, 00H, 01fH, 00H, 00H, 00H
CONST	ENDS
;	COMDAT __xmm@0000001f0000001d0000001b00000019
CONST	SEGMENT
__xmm@0000001f0000001d0000001b00000019 DB 019H, 00H, 00H, 00H, 01bH, 00H, 00H
	DB	00H, 01dH, 00H, 00H, 00H, 01fH, 00H, 00H, 00H
CONST	ENDS
;	COMDAT __xmm@0000001e0000001e0000001d0000001b
CONST	SEGMENT
__xmm@0000001e0000001e0000001d0000001b DB 01bH, 00H, 00H, 00H, 01dH, 00H, 00H
	DB	00H, 01eH, 00H, 00H, 00H, 01eH, 00H, 00H, 00H
CONST	ENDS
;	COMDAT __xmm@0000001e0000001d0000001c0000001b
CONST	SEGMENT
__xmm@0000001e0000001d0000001c0000001b DB 01bH, 00H, 00H, 00H, 01cH, 00H, 00H
	DB	00H, 01dH, 00H, 00H, 00H, 01eH, 00H, 00H, 00H
CONST	ENDS
;	COMDAT __xmm@0000001e0000001d0000001c0000001a
CONST	SEGMENT
__xmm@0000001e0000001d0000001c0000001a DB 01aH, 00H, 00H, 00H, 01cH, 00H, 00H
	DB	00H, 01dH, 00H, 00H, 00H, 01eH, 00H, 00H, 00H
CONST	ENDS
;	COMDAT __xmm@0000001e0000001d0000001b0000001a
CONST	SEGMENT
__xmm@0000001e0000001d0000001b0000001a DB 01aH, 00H, 00H, 00H, 01bH, 00H, 00H
	DB	00H, 01dH, 00H, 00H, 00H, 01eH, 00H, 00H, 00H
CONST	ENDS
;	COMDAT __xmm@0000001d0000001c0000001a00000019
CONST	SEGMENT
__xmm@0000001d0000001c0000001a00000019 DB 019H, 00H, 00H, 00H, 01aH, 00H, 00H
	DB	00H, 01cH, 00H, 00H, 00H, 01dH, 00H, 00H, 00H
CONST	ENDS
;	COMDAT __xmm@0000001c0000001b0000001900000018
CONST	SEGMENT
__xmm@0000001c0000001b0000001900000018 DB 018H, 00H, 00H, 00H, 019H, 00H, 00H
	DB	00H, 01bH, 00H, 00H, 00H, 01cH, 00H, 00H, 00H
CONST	ENDS
;	COMDAT __xmm@0000001b0000001a0000001900000017
CONST	SEGMENT
__xmm@0000001b0000001a0000001900000017 DB 017H, 00H, 00H, 00H, 019H, 00H, 00H
	DB	00H, 01aH, 00H, 00H, 00H, 01bH, 00H, 00H, 00H
CONST	ENDS
;	COMDAT __xmm@0000001b000000190000001800000017
CONST	SEGMENT
__xmm@0000001b000000190000001800000017 DB 017H, 00H, 00H, 00H, 018H, 00H, 00H
	DB	00H, 019H, 00H, 00H, 00H, 01bH, 00H, 00H, 00H
CONST	ENDS
;	COMDAT __xmm@0000001a000000190000001800000017
CONST	SEGMENT
__xmm@0000001a000000190000001800000017 DB 017H, 00H, 00H, 00H, 018H, 00H, 00H
	DB	00H, 019H, 00H, 00H, 00H, 01aH, 00H, 00H, 00H
CONST	ENDS
;	COMDAT __xmm@0000001a000000190000001700000016
CONST	SEGMENT
__xmm@0000001a000000190000001700000016 DB 016H, 00H, 00H, 00H, 017H, 00H, 00H
	DB	00H, 019H, 00H, 00H, 00H, 01aH, 00H, 00H, 00H
CONST	ENDS
;	COMDAT __xmm@00000019000000180000001700000038
CONST	SEGMENT
__xmm@00000019000000180000001700000038 DB '8', 00H, 00H, 00H, 017H, 00H, 00H
	DB	00H, 018H, 00H, 00H, 00H, 019H, 00H, 00H, 00H
CONST	ENDS
;	COMDAT __xmm@00000019000000180000001700000016
CONST	SEGMENT
__xmm@00000019000000180000001700000016 DB 016H, 00H, 00H, 00H, 017H, 00H, 00H
	DB	00H, 018H, 00H, 00H, 00H, 019H, 00H, 00H, 00H
CONST	ENDS
;	COMDAT __xmm@00000019000000170000005700000055
CONST	SEGMENT
__xmm@00000019000000170000005700000055 DB 'U', 00H, 00H, 00H, 'W', 00H, 00H
	DB	00H, 017H, 00H, 00H, 00H, 019H, 00H, 00H, 00H
CONST	ENDS
;	COMDAT __xmm@00000018000000170000001600000015
CONST	SEGMENT
__xmm@00000018000000170000001600000015 DB 015H, 00H, 00H, 00H, 016H, 00H, 00H
	DB	00H, 017H, 00H, 00H, 00H, 018H, 00H, 00H, 00H
CONST	ENDS
;	COMDAT __xmm@00000018000000160000001600000012
CONST	SEGMENT
__xmm@00000018000000160000001600000012 DB 012H, 00H, 00H, 00H, 016H, 00H, 00H
	DB	00H, 016H, 00H, 00H, 00H, 018H, 00H, 00H, 00H
CONST	ENDS
;	COMDAT __xmm@000000170000004a0000004700000043
CONST	SEGMENT
__xmm@000000170000004a0000004700000043 DB 'C', 00H, 00H, 00H, 'G', 00H, 00H
	DB	00H, 'J', 00H, 00H, 00H, 017H, 00H, 00H, 00H
CONST	ENDS
;	COMDAT __xmm@00000017000000160000001500000014
CONST	SEGMENT
__xmm@00000017000000160000001500000014 DB 014H, 00H, 00H, 00H, 015H, 00H, 00H
	DB	00H, 016H, 00H, 00H, 00H, 017H, 00H, 00H, 00H
CONST	ENDS
;	COMDAT __xmm@00000017000000110000001200000013
CONST	SEGMENT
__xmm@00000017000000110000001200000013 DB 013H, 00H, 00H, 00H, 012H, 00H, 00H
	DB	00H, 011H, 00H, 00H, 00H, 017H, 00H, 00H, 00H
CONST	ENDS
;	COMDAT __xmm@00000016000000160000001200000013
CONST	SEGMENT
__xmm@00000016000000160000001200000013 DB 013H, 00H, 00H, 00H, 012H, 00H, 00H
	DB	00H, 016H, 00H, 00H, 00H, 016H, 00H, 00H, 00H
CONST	ENDS
;	COMDAT __xmm@00000016000000150000003800000035
CONST	SEGMENT
__xmm@00000016000000150000003800000035 DB '5', 00H, 00H, 00H, '8', 00H, 00H
	DB	00H, 015H, 00H, 00H, 00H, 016H, 00H, 00H, 00H
CONST	ENDS
;	COMDAT __xmm@00000016000000150000001400000013
CONST	SEGMENT
__xmm@00000016000000150000001400000013 DB 013H, 00H, 00H, 00H, 014H, 00H, 00H
	DB	00H, 015H, 00H, 00H, 00H, 016H, 00H, 00H, 00H
CONST	ENDS
;	COMDAT __xmm@000000150000002d0000002c0000002a
CONST	SEGMENT
__xmm@000000150000002d0000002c0000002a DB '*', 00H, 00H, 00H, ',', 00H, 00H
	DB	00H, '-', 00H, 00H, 00H, 015H, 00H, 00H, 00H
CONST	ENDS
;	COMDAT __xmm@00000015000000190000002000000012
CONST	SEGMENT
__xmm@00000015000000190000002000000012 DB 012H, 00H, 00H, 00H, ' ', 00H, 00H
	DB	00H, 019H, 00H, 00H, 00H, 015H, 00H, 00H, 00H
CONST	ENDS
;	COMDAT __xmm@00000015000000130000001200000010
CONST	SEGMENT
__xmm@00000015000000130000001200000010 DB 010H, 00H, 00H, 00H, 012H, 00H, 00H
	DB	00H, 013H, 00H, 00H, 00H, 015H, 00H, 00H, 00H
CONST	ENDS
;	COMDAT __xmm@00000013000000170000001100000012
CONST	SEGMENT
__xmm@00000013000000170000001100000012 DB 012H, 00H, 00H, 00H, 011H, 00H, 00H
	DB	00H, 017H, 00H, 00H, 00H, 013H, 00H, 00H, 00H
CONST	ENDS
;	COMDAT __xmm@00000013000000160000001300000018
CONST	SEGMENT
__xmm@00000013000000160000001300000018 DB 018H, 00H, 00H, 00H, 013H, 00H, 00H
	DB	00H, 016H, 00H, 00H, 00H, 013H, 00H, 00H, 00H
CONST	ENDS
;	COMDAT __xmm@00000013000000150000001900000020
CONST	SEGMENT
__xmm@00000013000000150000001900000020 DB ' ', 00H, 00H, 00H, 019H, 00H, 00H
	DB	00H, 015H, 00H, 00H, 00H, 013H, 00H, 00H, 00H
CONST	ENDS
;	COMDAT __xmm@0000001300000012000000100000002a
CONST	SEGMENT
__xmm@0000001300000012000000100000002a DB '*', 00H, 00H, 00H, 010H, 00H, 00H
	DB	00H, 012H, 00H, 00H, 00H, 013H, 00H, 00H, 00H
CONST	ENDS
;	COMDAT __xmm@00000013000000110000000f0000000e
CONST	SEGMENT
__xmm@00000013000000110000000f0000000e DB 0eH, 00H, 00H, 00H, 0fH, 00H, 00H
	DB	00H, 011H, 00H, 00H, 00H, 013H, 00H, 00H, 00H
CONST	ENDS
;	COMDAT __xmm@00000012000000130000001600000013
CONST	SEGMENT
__xmm@00000012000000130000001600000013 DB 013H, 00H, 00H, 00H, 016H, 00H, 00H
	DB	00H, 013H, 00H, 00H, 00H, 012H, 00H, 00H, 00H
CONST	ENDS
;	COMDAT __xmm@00000012000000110000001200000012
CONST	SEGMENT
__xmm@00000012000000110000001200000012 DB 012H, 00H, 00H, 00H, 012H, 00H, 00H
	DB	00H, 011H, 00H, 00H, 00H, 012H, 00H, 00H, 00H
CONST	ENDS
;	COMDAT __xmm@00000011000000120000001100000012
CONST	SEGMENT
__xmm@00000011000000120000001100000012 DB 012H, 00H, 00H, 00H, 011H, 00H, 00H
	DB	00H, 012H, 00H, 00H, 00H, 011H, 00H, 00H, 00H
CONST	ENDS
;	COMDAT __xmm@000000110000000f0000000e0000000c
CONST	SEGMENT
__xmm@000000110000000f0000000e0000000c DB 0cH, 00H, 00H, 00H, 0eH, 00H, 00H
	DB	00H, 0fH, 00H, 00H, 00H, 011H, 00H, 00H, 00H
CONST	ENDS
;	COMDAT __xmm@0000000c0000000a0000002a00000029
CONST	SEGMENT
__xmm@0000000c0000000a0000002a00000029 DB ')', 00H, 00H, 00H, '*', 00H, 00H
	DB	00H, 0aH, 00H, 00H, 00H, 0cH, 00H, 00H, 00H
CONST	ENDS
;	COMDAT __xmm@0000000a000000270000002500000024
CONST	SEGMENT
__xmm@0000000a000000270000002500000024 DB '$', 00H, 00H, 00H, '%', 00H, 00H
	DB	00H, '''', 00H, 00H, 00H, 0aH, 00H, 00H, 00H
CONST	ENDS
;	COMDAT __static@9f1ce107946bb4ffb917fa77c4eee34eb2dcf07061f32d7ec058c6da1572a6a4
CONST	SEGMENT
__static@9f1ce107946bb4ffb917fa77c4eee34eb2dcf07061f32d7ec058c6da1572a6a4 DB '8'
	DB	00H, 00H, 00H, '0', 00H, 00H, 00H, 01aH, 00H, 00H, 00H, 016H, 00H
	DB	00H, 00H, 013H, 00H, 00H, 00H, 012H, 00H, 00H, 00H, 013H, 00H, 00H
	DB	00H, 014H, 00H, 00H, 00H, 014H, 00H, 00H, 00H, 014H, 00H, 00H, 00H
	DB	015H, 00H, 00H, 00H, 017H, 00H, 00H, 00H, 016H, 00H, 00H, 00H, 016H
	DB	00H, 00H, 00H, 014H, 00H, 00H, 00H, 014H, 00H, 00H, 00H, 012H, 00H
	DB	00H, 00H, 012H, 00H, 00H, 00H, 012H, 00H, 00H, 00H, 012H, 00H, 00H
	DB	00H, 012H, 00H, 00H, 00H, '8', 00H, 00H, 00H, '0', 00H, 00H, 00H
	DB	01aH, 00H, 00H, 00H, 016H, 00H, 00H, 00H, 013H, 00H, 00H, 00H, 012H
	DB	00H, 00H, 00H, 013H, 00H, 00H, 00H, 014H, 00H, 00H, 00H, 014H, 00H
	DB	00H, 00H, 014H, 00H, 00H, 00H, 015H, 00H, 00H, 00H, 017H, 00H, 00H
	DB	00H, 016H, 00H, 00H, 00H, 016H, 00H, 00H, 00H, 014H, 00H, 00H, 00H
	DB	014H, 00H, 00H, 00H, 012H, 00H, 00H, 00H, 012H, 00H, 00H, 00H, 012H
	DB	00H, 00H, 00H, 012H, 00H, 00H, 00H, 012H, 00H, 00H, 00H, '$', 00H
	DB	00H, 00H, '&', 00H, 00H, 00H, '&', 00H, 00H, 00H, '''', 00H, 00H
	DB	00H, '"', 00H, 00H, 00H, 016H, 00H, 00H, 00H, 015H, 00H, 00H, 00H
	DB	014H, 00H, 00H, 00H, 013H, 00H, 00H, 00H, 014H, 00H, 00H, 00H, 014H
	DB	00H, 00H, 00H, 015H, 00H, 00H, 00H, 015H, 00H, 00H, 00H, 015H, 00H
	DB	00H, 00H, 015H, 00H, 00H, 00H, 015H, 00H, 00H, 00H, 014H, 00H, 00H
	DB	00H, 013H, 00H, 00H, 00H, 013H, 00H, 00H, 00H, 012H, 00H, 00H, 00H
	DB	012H, 00H, 00H, 00H, '$', 00H, 00H, 00H, '&', 00H, 00H, 00H, '&'
	DB	00H, 00H, 00H, '''', 00H, 00H, 00H, '"', 00H, 00H, 00H, 016H, 00H
	DB	00H, 00H, 015H, 00H, 00H, 00H, 014H, 00H, 00H, 00H, 013H, 00H, 00H
	DB	00H, 014H, 00H, 00H, 00H, 014H, 00H, 00H, 00H, 015H, 00H, 00H, 00H
	DB	015H, 00H, 00H, 00H, 015H, 00H, 00H, 00H, 015H, 00H, 00H, 00H, 015H
	DB	00H, 00H, 00H, 014H, 00H, 00H, 00H, 013H, 00H, 00H, 00H, 013H, 00H
	DB	00H, 00H, 012H, 00H, 00H, 00H, 012H, 00H, 00H, 00H, 01eH, 00H, 00H
	DB	00H, 01eH, 00H, 00H, 00H, 01fH, 00H, 00H, 00H, 01fH, 00H, 00H, 00H
	DB	' ', 00H, 00H, 00H, ' ', 00H, 00H, 00H, ' ', 00H, 00H, 00H, 01dH
	DB	00H, 00H, 00H, 015H, 00H, 00H, 00H, 014H, 00H, 00H, 00H, 014H, 00H
	DB	00H, 00H, 014H, 00H, 00H, 00H, 014H, 00H, 00H, 00H, 015H, 00H, 00H
	DB	00H, 015H, 00H, 00H, 00H, 014H, 00H, 00H, 00H, 014H, 00H, 00H, 00H
	DB	014H, 00H, 00H, 00H, 014H, 00H, 00H, 00H, 013H, 00H, 00H, 00H, 013H
	DB	00H, 00H, 00H, 01eH, 00H, 00H, 00H, 01eH, 00H, 00H, 00H, 01fH, 00H
	DB	00H, 00H, 01fH, 00H, 00H, 00H, ' ', 00H, 00H, 00H, ' ', 00H, 00H
	DB	00H, ' ', 00H, 00H, 00H, 01dH, 00H, 00H, 00H, 015H, 00H, 00H, 00H
	DB	014H, 00H, 00H, 00H, 014H, 00H, 00H, 00H, 014H, 00H, 00H, 00H, 014H
	DB	00H, 00H, 00H, 015H, 00H, 00H, 00H, 015H, 00H, 00H, 00H, 014H, 00H
	DB	00H, 00H, 014H, 00H, 00H, 00H, 014H, 00H, 00H, 00H, 014H, 00H, 00H
	DB	00H, 013H, 00H, 00H, 00H, 013H, 00H, 00H, 00H, 01bH, 00H, 00H, 00H
	DB	01cH, 00H, 00H, 00H, 01cH, 00H, 00H, 00H, 01cH, 00H, 00H, 00H, 01cH
	DB	00H, 00H, 00H, 01cH, 00H, 00H, 00H, 01cH, 00H, 00H, 00H, 01dH, 00H
	DB	00H, 00H, 01dH, 00H, 00H, 00H, 01dH, 00H, 00H, 00H, 01bH, 00H, 00H
	DB	00H, 016H, 00H, 00H, 00H, 015H, 00H, 00H, 00H, 014H, 00H, 00H, 00H
	DB	014H, 00H, 00H, 00H, 014H, 00H, 00H, 00H, 014H, 00H, 00H, 00H, 014H
	DB	00H, 00H, 00H, 014H, 00H, 00H, 00H, 014H, 00H, 00H, 00H, 014H, 00H
	DB	00H, 00H, 01bH, 00H, 00H, 00H, 01cH, 00H, 00H, 00H, 01cH, 00H, 00H
	DB	00H, 01cH, 00H, 00H, 00H, 01cH, 00H, 00H, 00H, 01cH, 00H, 00H, 00H
	DB	01cH, 00H, 00H, 00H, 01dH, 00H, 00H, 00H, 01dH, 00H, 00H, 00H, 01dH
	DB	00H, 00H, 00H, 01bH, 00H, 00H, 00H, 016H, 00H, 00H, 00H, 015H, 00H
	DB	00H, 00H, 014H, 00H, 00H, 00H, 014H, 00H, 00H, 00H, 014H, 00H, 00H
	DB	00H, 014H, 00H, 00H, 00H, 014H, 00H, 00H, 00H, 014H, 00H, 00H, 00H
	DB	014H, 00H, 00H, 00H, 014H, 00H, 00H, 00H, 019H, 00H, 00H, 00H, 01aH
	DB	00H, 00H, 00H, 01aH, 00H, 00H, 00H, 01aH, 00H, 00H, 00H, 01aH, 00H
	DB	00H, 00H, 01aH, 00H, 00H, 00H, 01aH, 00H, 00H, 00H, 01aH, 00H, 00H
	DB	00H, 01aH, 00H, 00H, 00H, 01bH, 00H, 00H, 00H, 01bH, 00H, 00H, 00H
	DB	01cH, 00H, 00H, 00H, 01cH, 00H, 00H, 00H, 01aH, 00H, 00H, 00H, 015H
	DB	00H, 00H, 00H, 014H, 00H, 00H, 00H, 014H, 00H, 00H, 00H, 014H, 00H
	DB	00H, 00H, 014H, 00H, 00H, 00H, 014H, 00H, 00H, 00H, 014H, 00H, 00H
	DB	00H, 019H, 00H, 00H, 00H, 01aH, 00H, 00H, 00H, 01aH, 00H, 00H, 00H
	DB	01aH, 00H, 00H, 00H, 01aH, 00H, 00H, 00H, 01aH, 00H, 00H, 00H, 01aH
	DB	00H, 00H, 00H, 01aH, 00H, 00H, 00H, 01aH, 00H, 00H, 00H, 01bH, 00H
	DB	00H, 00H, 01bH, 00H, 00H, 00H, 01cH, 00H, 00H, 00H, 01cH, 00H, 00H
	DB	00H, 01aH, 00H, 00H, 00H, 015H, 00H, 00H, 00H, 014H, 00H, 00H, 00H
	DB	014H, 00H, 00H, 00H, 014H, 00H, 00H, 00H, 014H, 00H, 00H, 00H, 014H
	DB	00H, 00H, 00H, 014H, 00H, 00H, 00H, 018H, 00H, 00H, 00H, 018H, 00H
	DB	00H, 00H, 018H, 00H, 00H, 00H, 019H, 00H, 00H, 00H, 019H, 00H, 00H
	DB	00H, 019H, 00H, 00H, 00H, 019H, 00H, 00H, 00H, 019H, 00H, 00H, 00H
	DB	019H, 00H, 00H, 00H, 019H, 00H, 00H, 00H, 019H, 00H, 00H, 00H, 01aH
	DB	00H, 00H, 00H, 01aH, 00H, 00H, 00H, 01aH, 00H, 00H, 00H, 01aH, 00H
	DB	00H, 00H, 01aH, 00H, 00H, 00H, 019H, 00H, 00H, 00H, 015H, 00H, 00H
	DB	00H, 014H, 00H, 00H, 00H, 014H, 00H, 00H, 00H, 013H, 00H, 00H, 00H
	DB	018H, 00H, 00H, 00H, 018H, 00H, 00H, 00H, 018H, 00H, 00H, 00H, 019H
	DB	00H, 00H, 00H, 019H, 00H, 00H, 00H, 019H, 00H, 00H, 00H, 019H, 00H
	DB	00H, 00H, 019H, 00H, 00H, 00H, 019H, 00H, 00H, 00H, 019H, 00H, 00H
	DB	00H, 019H, 00H, 00H, 00H, 01aH, 00H, 00H, 00H, 01aH, 00H, 00H, 00H
	DB	01aH, 00H, 00H, 00H, 01aH, 00H, 00H, 00H, 01aH, 00H, 00H, 00H, 019H
	DB	00H, 00H, 00H, 015H, 00H, 00H, 00H, 014H, 00H, 00H, 00H, 014H, 00H
	DB	00H, 00H, 013H, 00H, 00H, 00H
CONST	ENDS
;	COMDAT __static@77cc68482924f3b8f8f60c5b78343a09bafb54cafc3ccfd5c89c1c03a819a1ec
CONST	SEGMENT
__static@77cc68482924f3b8f8f60c5b78343a09bafb54cafc3ccfd5c89c1c03a819a1ec DB ']'
	DB	00H, 00H, 00H, 'f', 00H, 00H, 00H, '[', 00H, 00H, 00H, 'b', 00H
	DB	00H, 00H, 'g', 00H, 00H, 00H, 'm', 00H, 00H, 00H, 'Z', 00H, 00H
	DB	00H, 'j', 00H, 00H, 00H, 'f', 00H, 00H, 00H, 'm', 00H, 00H, 00H
	DB	'a', 00H, 00H, 00H, 'e', 00H, 00H, 00H, 'd', 00H, 00H, 00H, 'h'
	DB	00H, 00H, 00H, 'U', 00H, 00H, 00H, '\', 00H, 00H, 00H, 'd', 00H
	DB	00H, 00H, 'm', 00H, 00H, 00H, '_', 00H, 00H, 00H, 'c', 00H, 00H
	DB	00H, '\', 00H, 00H, 00H, '`', 00H, 00H, 00H, 'V', 00H, 00H, 00H
	DB	'[', 00H, 00H, 00H, 'C', 00H, 00H, 00H, 'c', 00H, 00H, 00H, '@'
	DB	00H, 00H, 00H, 'F', 00H, 00H, 00H, '?', 00H, 00H, 00H, 'F', 00H
	DB	00H, 00H, ':', 00H, 00H, 00H, 'C', 00H, 00H, 00H, 'E', 00H, 00H
	DB	00H, 'K', 00H, 00H, 00H, '<', 00H, 00H, 00H, '@', 00H, 00H, 00H
	DB	'T', 00H, 00H, 00H, 'U', 00H, 00H, 00H, 'C', 00H, 00H, 00H, 'K'
	DB	00H, 00H, 00H, '[', 00H, 00H, 00H, ']', 00H, 00H, 00H, 'S', 00H
	DB	00H, 00H, 'Y', 00H, 00H, 00H, '^', 00H, 00H, 00H, 'a', 00H, 00H
	DB	00H, 'Y', 00H, 00H, 00H, '^', 00H, 00H, 00H, 'j', 00H, 00H, 00H
	DB	'o', 00H, 00H, 00H, 'X', 00H, 00H, 00H, 'm', 00H, 00H, 00H, 'u'
	DB	00H, 00H, 00H, 'v', 00H, 00H, 00H, 'h', 00H, 00H, 00H, 'p', 00H
	DB	00H, 00H, 's', 00H, 00H, 00H, 'z', 00H, 00H, 00H, 'q', 00H, 00H
	DB	00H, 'u', 00H, 00H, 00H, 'x', 00H, 00H, 00H, 'x', 00H, 00H, 00H
	DB	'f', 00H, 00H, 00H, 't', 00H, 00H, 00H, 'w', 00H, 00H, 00H, 'y'
	DB	00H, 00H, 00H, 'n', 00H, 00H, 00H, 't', 00H, 00H, 00H, 084H, 00H
	DB	00H, 00H, 086H, 00H, 00H, 00H, 'x', 00H, 00H, 00H, 080H, 00H, 00H
	DB	00H, 086H, 00H, 00H, 00H, 08aH, 00H, 00H, 00H, 081H, 00H, 00H, 00H
	DB	088H, 00H, 00H, 00H, 086H, 00H, 00H, 00H, 08cH, 00H, 00H, 00H, 082H
	DB	00H, 00H, 00H, 084H, 00H, 00H, 00H, 07fH, 00H, 00H, 00H, 084H, 00H
	DB	00H, 00H, 't', 00H, 00H, 00H, '}', 00H, 00H, 00H, 'u', 00H, 00H
	DB	00H, 'v', 00H, 00H, 00H, 'h', 00H, 00H, 00H, 'p', 00H, 00H, 00H
	DB	'j', 00H, 00H, 00H, 'o', 00H, 00H, 00H, 'X', 00H, 00H, 00H, 'm'
	DB	00H, 00H, 00H, ']', 00H, 00H, 00H, 'f', 00H, 00H, 00H, '[', 00H
	DB	00H, 00H, 'b', 00H, 00H, 00H, 'g', 00H, 00H, 00H, 'm', 00H, 00H
	DB	00H, 'Z', 00H, 00H, 00H, 'j', 00H, 00H, 00H, 'f', 00H, 00H, 00H
	DB	'm', 00H, 00H, 00H, 'a', 00H, 00H, 00H, 'e', 00H, 00H, 00H, 'd'
	DB	00H, 00H, 00H, 'm', 00H, 00H, 00H, '_', 00H, 00H, 00H, 'c', 00H
	DB	00H, 00H, 'C', 00H, 00H, 00H, 'c', 00H, 00H, 00H, '@', 00H, 00H
	DB	00H, 'F', 00H, 00H, 00H, '?', 00H, 00H, 00H, 'F', 00H, 00H, 00H
	DB	':', 00H, 00H, 00H, 'C', 00H, 00H, 00H, 'E', 00H, 00H, 00H, 'K'
	DB	00H, 00H, 00H, '<', 00H, 00H, 00H, '@', 00H, 00H, 00H, 'T', 00H
	DB	00H, 00H, 'U', 00H, 00H, 00H, 'C', 00H, 00H, 00H, 'K', 00H, 00H
	DB	00H, '[', 00H, 00H, 00H, ']', 00H, 00H, 00H, 'S', 00H, 00H, 00H
	DB	'Y', 00H, 00H, 00H, '^', 00H, 00H, 00H, 'a', 00H, 00H, 00H, 'Y'
	DB	00H, 00H, 00H, '^', 00H, 00H, 00H, 'j', 00H, 00H, 00H, 'o', 00H
	DB	00H, 00H, 'X', 00H, 00H, 00H, 'm', 00H, 00H, 00H, 'u', 00H, 00H
	DB	00H, 'v', 00H, 00H, 00H, 'h', 00H, 00H, 00H, 'p', 00H, 00H, 00H
	DB	's', 00H, 00H, 00H, 'z', 00H, 00H, 00H, 'q', 00H, 00H, 00H, 'u'
	DB	00H, 00H, 00H, 'x', 00H, 00H, 00H, 'x', 00H, 00H, 00H, 'f', 00H
	DB	00H, 00H, 't', 00H, 00H, 00H, 'w', 00H, 00H, 00H, 'y', 00H, 00H
	DB	00H, 'n', 00H, 00H, 00H, 't', 00H, 00H, 00H, 084H, 00H, 00H, 00H
	DB	086H, 00H, 00H, 00H, 'x', 00H, 00H, 00H, 080H, 00H, 00H, 00H, 086H
	DB	00H, 00H, 00H, 08aH, 00H, 00H, 00H, 081H, 00H, 00H, 00H, 088H, 00H
	DB	00H, 00H, 086H, 00H, 00H, 00H, 08cH, 00H, 00H, 00H, 082H, 00H, 00H
	DB	00H, 084H, 00H, 00H, 00H, 07fH, 00H, 00H, 00H, 084H, 00H, 00H, 00H
	DB	't', 00H, 00H, 00H, '}', 00H, 00H, 00H
CONST	ENDS
;	COMDAT __real@c070100000000000
CONST	SEGMENT
__real@c070100000000000 DQ 0c070100000000000r	; -257
CONST	ENDS
;	COMDAT __real@c034000000000000
CONST	SEGMENT
__real@c034000000000000 DQ 0c034000000000000r	; -20
CONST	ENDS
;	COMDAT __real@4070100000000000
CONST	SEGMENT
__real@4070100000000000 DQ 04070100000000000r	; 257
CONST	ENDS
;	COMDAT __real@4065400000000000
CONST	SEGMENT
__real@4065400000000000 DQ 04065400000000000r	; 170
CONST	ENDS
;	COMDAT __real@4063600000000000
CONST	SEGMENT
__real@4063600000000000 DQ 04063600000000000r	; 155
CONST	ENDS
;	COMDAT __real@4061800000000000
CONST	SEGMENT
__real@4061800000000000 DQ 04061800000000000r	; 140
CONST	ENDS
;	COMDAT __real@405e000000000000
CONST	SEGMENT
__real@405e000000000000 DQ 0405e000000000000r	; 120
CONST	ENDS
;	COMDAT __real@4059000000000000
CONST	SEGMENT
__real@4059000000000000 DQ 04059000000000000r	; 100
CONST	ENDS
;	COMDAT __real@4054000000000000
CONST	SEGMENT
__real@4054000000000000 DQ 04054000000000000r	; 80
CONST	ENDS
;	COMDAT __real@4052c00000000000
CONST	SEGMENT
__real@4052c00000000000 DQ 04052c00000000000r	; 75
CONST	ENDS
;	COMDAT __real@404e000000000000
CONST	SEGMENT
__real@404e000000000000 DQ 0404e000000000000r	; 60
CONST	ENDS
;	COMDAT __real@4044000000000000
CONST	SEGMENT
__real@4044000000000000 DQ 04044000000000000r	; 40
CONST	ENDS
;	COMDAT __real@4034000000000000
CONST	SEGMENT
__real@4034000000000000 DQ 04034000000000000r	; 20
CONST	ENDS
;	COMDAT __real@4014000000000000
CONST	SEGMENT
__real@4014000000000000 DQ 04014000000000000r	; 5
CONST	ENDS
;	COMDAT ??_R1A@?0A@EA@?$CList@V?$CStringT@DV?$StrTraitMFC_DLL@DV?$ChTraitsCRT@D@ATL@@@@@ATL@@V12@@@8
rdata$r	SEGMENT
??_R1A@?0A@EA@?$CList@V?$CStringT@DV?$StrTraitMFC_DLL@DV?$ChTraitsCRT@D@ATL@@@@@ATL@@V12@@@8 DD FLAT:??_R0?AV?$CList@V?$CStringT@DV?$StrTraitMFC_DLL@DV?$ChTraitsCRT@D@ATL@@@@@ATL@@V12@@@@8 ; CList<ATL::CStringT<char,StrTraitMFC_DLL<char,ATL::ChTraitsCRT<char> > >,ATL::CStringT<char,StrTraitMFC_DLL<char,ATL::ChTraitsCRT<char> > > >::`RTTI Base Class Descriptor at (0,-1,0,64)'
	DD	01H
	DD	00H
	DD	0ffffffffH
	DD	00H
	DD	040H
	DD	FLAT:??_R3?$CList@V?$CStringT@DV?$StrTraitMFC_DLL@DV?$ChTraitsCRT@D@ATL@@@@@ATL@@V12@@@8
rdata$r	ENDS
;	COMDAT ??_R2?$CList@V?$CStringT@DV?$StrTraitMFC_DLL@DV?$ChTraitsCRT@D@ATL@@@@@ATL@@V12@@@8
rdata$r	SEGMENT
??_R2?$CList@V?$CStringT@DV?$StrTraitMFC_DLL@DV?$ChTraitsCRT@D@ATL@@@@@ATL@@V12@@@8 DD FLAT:??_R1A@?0A@EA@?$CList@V?$CStringT@DV?$StrTraitMFC_DLL@DV?$ChTraitsCRT@D@ATL@@@@@ATL@@V12@@@8 ; CList<ATL::CStringT<char,StrTraitMFC_DLL<char,ATL::ChTraitsCRT<char> > >,ATL::CStringT<char,StrTraitMFC_DLL<char,ATL::ChTraitsCRT<char> > > >::`RTTI Base Class Array'
	DD	FLAT:??_R1A@?0A@EA@CObject@@8
rdata$r	ENDS
;	COMDAT ??_R3?$CList@V?$CStringT@DV?$StrTraitMFC_DLL@DV?$ChTraitsCRT@D@ATL@@@@@ATL@@V12@@@8
rdata$r	SEGMENT
??_R3?$CList@V?$CStringT@DV?$StrTraitMFC_DLL@DV?$ChTraitsCRT@D@ATL@@@@@ATL@@V12@@@8 DD 00H ; CList<ATL::CStringT<char,StrTraitMFC_DLL<char,ATL::ChTraitsCRT<char> > >,ATL::CStringT<char,StrTraitMFC_DLL<char,ATL::ChTraitsCRT<char> > > >::`RTTI Class Hierarchy Descriptor'
	DD	00H
	DD	02H
	DD	FLAT:??_R2?$CList@V?$CStringT@DV?$StrTraitMFC_DLL@DV?$ChTraitsCRT@D@ATL@@@@@ATL@@V12@@@8
rdata$r	ENDS
;	COMDAT ??_R0?AV?$CList@V?$CStringT@DV?$StrTraitMFC_DLL@DV?$ChTraitsCRT@D@ATL@@@@@ATL@@V12@@@@8
data$rs	SEGMENT
??_R0?AV?$CList@V?$CStringT@DV?$StrTraitMFC_DLL@DV?$ChTraitsCRT@D@ATL@@@@@ATL@@V12@@@@8 DD FLAT:??_7type_info@@6B@ ; CList<ATL::CStringT<char,StrTraitMFC_DLL<char,ATL::ChTraitsCRT<char> > >,ATL::CStringT<char,StrTraitMFC_DLL<char,ATL::ChTraitsCRT<char> > > > `RTTI Type Descriptor'
	DD	00H
	DB	'.?AV?$CList@V?$CStringT@DV?$StrTraitMFC_DLL@DV?$ChTraits'
	DB	'CRT@D@ATL@@@@@ATL@@V12@@@', 00H
data$rs	ENDS
;	COMDAT ??_R4?$CList@V?$CStringT@DV?$StrTraitMFC_DLL@DV?$ChTraitsCRT@D@ATL@@@@@ATL@@V12@@@6B@
rdata$r	SEGMENT
??_R4?$CList@V?$CStringT@DV?$StrTraitMFC_DLL@DV?$ChTraitsCRT@D@ATL@@@@@ATL@@V12@@@6B@ DD 00H ; CList<ATL::CStringT<char,StrTraitMFC_DLL<char,ATL::ChTraitsCRT<char> > >,ATL::CStringT<char,StrTraitMFC_DLL<char,ATL::ChTraitsCRT<char> > > >::`RTTI Complete Object Locator'
	DD	00H
	DD	00H
	DD	FLAT:??_R0?AV?$CList@V?$CStringT@DV?$StrTraitMFC_DLL@DV?$ChTraitsCRT@D@ATL@@@@@ATL@@V12@@@@8
	DD	FLAT:??_R3?$CList@V?$CStringT@DV?$StrTraitMFC_DLL@DV?$ChTraitsCRT@D@ATL@@@@@ATL@@V12@@@8
rdata$r	ENDS
;	COMDAT ??_R1A@?0A@EA@?$CList@PAVCStyleData@@PAV1@@@8
rdata$r	SEGMENT
??_R1A@?0A@EA@?$CList@PAVCStyleData@@PAV1@@@8 DD FLAT:??_R0?AV?$CList@PAVCStyleData@@PAV1@@@@8 ; CList<CStyleData *,CStyleData *>::`RTTI Base Class Descriptor at (0,-1,0,64)'
	DD	01H
	DD	00H
	DD	0ffffffffH
	DD	00H
	DD	040H
	DD	FLAT:??_R3?$CList@PAVCStyleData@@PAV1@@@8
rdata$r	ENDS
;	COMDAT ??_R2?$CList@PAVCStyleData@@PAV1@@@8
rdata$r	SEGMENT
??_R2?$CList@PAVCStyleData@@PAV1@@@8 DD FLAT:??_R1A@?0A@EA@?$CList@PAVCStyleData@@PAV1@@@8 ; CList<CStyleData *,CStyleData *>::`RTTI Base Class Array'
	DD	FLAT:??_R1A@?0A@EA@CObject@@8
rdata$r	ENDS
;	COMDAT ??_R3?$CList@PAVCStyleData@@PAV1@@@8
rdata$r	SEGMENT
??_R3?$CList@PAVCStyleData@@PAV1@@@8 DD 00H		; CList<CStyleData *,CStyleData *>::`RTTI Class Hierarchy Descriptor'
	DD	00H
	DD	02H
	DD	FLAT:??_R2?$CList@PAVCStyleData@@PAV1@@@8
rdata$r	ENDS
;	COMDAT ??_R0?AV?$CList@PAVCStyleData@@PAV1@@@@8
data$rs	SEGMENT
??_R0?AV?$CList@PAVCStyleData@@PAV1@@@@8 DD FLAT:??_7type_info@@6B@ ; CList<CStyleData *,CStyleData *> `RTTI Type Descriptor'
	DD	00H
	DB	'.?AV?$CList@PAVCStyleData@@PAV1@@@', 00H
data$rs	ENDS
;	COMDAT ??_R4?$CList@PAVCStyleData@@PAV1@@@6B@
rdata$r	SEGMENT
??_R4?$CList@PAVCStyleData@@PAV1@@@6B@ DD 00H		; CList<CStyleData *,CStyleData *>::`RTTI Complete Object Locator'
	DD	00H
	DD	00H
	DD	FLAT:??_R0?AV?$CList@PAVCStyleData@@PAV1@@@@8
	DD	FLAT:??_R3?$CList@PAVCStyleData@@PAV1@@@8
rdata$r	ENDS
;	COMDAT ??_R1A@?0A@EA@CStyleDataManager@@8
rdata$r	SEGMENT
??_R1A@?0A@EA@CStyleDataManager@@8 DD FLAT:??_R0?AVCStyleDataManager@@@8 ; CStyleDataManager::`RTTI Base Class Descriptor at (0,-1,0,64)'
	DD	01H
	DD	00H
	DD	0ffffffffH
	DD	00H
	DD	040H
	DD	FLAT:??_R3CStyleDataManager@@8
rdata$r	ENDS
;	COMDAT ??_R2CStyleDataManager@@8
rdata$r	SEGMENT
??_R2CStyleDataManager@@8 DD FLAT:??_R1A@?0A@EA@CStyleDataManager@@8 ; CStyleDataManager::`RTTI Base Class Array'
	DD	FLAT:??_R1A@?0A@EA@CObject@@8
rdata$r	ENDS
;	COMDAT ??_R3CStyleDataManager@@8
rdata$r	SEGMENT
??_R3CStyleDataManager@@8 DD 00H			; CStyleDataManager::`RTTI Class Hierarchy Descriptor'
	DD	00H
	DD	02H
	DD	FLAT:??_R2CStyleDataManager@@8
rdata$r	ENDS
;	COMDAT ??_R0?AVCStyleDataManager@@@8
data$rs	SEGMENT
??_R0?AVCStyleDataManager@@@8 DD FLAT:??_7type_info@@6B@ ; CStyleDataManager `RTTI Type Descriptor'
	DD	00H
	DB	'.?AVCStyleDataManager@@', 00H
data$rs	ENDS
;	COMDAT ??_R4CStyleDataManager@@6B@
rdata$r	SEGMENT
??_R4CStyleDataManager@@6B@ DD 00H			; CStyleDataManager::`RTTI Complete Object Locator'
	DD	00H
	DD	00H
	DD	FLAT:??_R0?AVCStyleDataManager@@@8
	DD	FLAT:??_R3CStyleDataManager@@8
rdata$r	ENDS
;	COMDAT ??_C@_04ICAEMAEP@X100@
CONST	SEGMENT
??_C@_04ICAEMAEP@X100@ DB 'X100', 00H			; `string'
CONST	ENDS
;	COMDAT ??_C@_05LEIIKPJO@?5?5500@
CONST	SEGMENT
??_C@_05LEIIKPJO@?5?5500@ DB '  500', 00H		; `string'
CONST	ENDS
;	COMDAT ??_C@_05IOCMGDJD@1?0000@
CONST	SEGMENT
??_C@_05IOCMGDJD@1?0000@ DB '1,000', 00H		; `string'
CONST	ENDS
;	COMDAT ??_C@_05LJPCJDKB@1?0500@
CONST	SEGMENT
??_C@_05LJPCJDKB@1?0500@ DB '1,500', 00H		; `string'
CONST	ENDS
;	COMDAT ??_C@_05GJONAKBD@3?0200@
CONST	SEGMENT
??_C@_05GJONAKBD@3?0200@ DB '3,200', 00H		; `string'
CONST	ENDS
;	COMDAT ??_C@_05NBFBGNHG@3?0300@
CONST	SEGMENT
??_C@_05NBFBGNHG@3?0300@ DB '3,300', 00H		; `string'
CONST	ENDS
;	COMDAT ??_C@_05EMIGFFMP@3?0400@
CONST	SEGMENT
??_C@_05EMIGFFMP@3?0400@ DB '3,400', 00H		; `string'
CONST	ENDS
;	COMDAT ??_C@_05PEDKDCKK@3?0500@
CONST	SEGMENT
??_C@_05PEDKDCKK@3?0500@ DB '3,500', 00H		; `string'
CONST	ENDS
;	COMDAT ??_C@_05OGIPJNEE@3?0600@
CONST	SEGMENT
??_C@_05OGIPJNEE@3?0600@ DB '3,600', 00H		; `string'
CONST	ENDS
;	COMDAT ??_C@_05FODDPKCB@3?0700@
CONST	SEGMENT
??_C@_05FODDPKCB@3?0700@ DB '3,700', 00H		; `string'
CONST	ENDS
;	COMDAT ??_C@_05GFAOKHH@3?0800@
CONST	SEGMENT
??_C@_05GFAOKHH@3?0800@ DB '3,800', 00H			; `string'
CONST	ENDS
;	COMDAT ??_C@_02ODEKKOPI@11@
CONST	SEGMENT
??_C@_02ODEKKOPI@11@ DB '11', 00H			; `string'
CONST	ENDS
;	COMDAT ??_C@_02PKFBJPLJ@10@
CONST	SEGMENT
??_C@_02PKFBJPLJ@10@ DB '10', 00H			; `string'
CONST	ENDS
;	COMDAT ??_7?$CList@PAVCStyleData@@PAV1@@@6B@
CONST	SEGMENT
??_7?$CList@PAVCStyleData@@PAV1@@@6B@ DD FLAT:??_R4?$CList@PAVCStyleData@@PAV1@@@6B@ ; CList<CStyleData *,CStyleData *>::`vftable'
	DD	FLAT:?GetRuntimeClass@CObject@@UBEPAUCRuntimeClass@@XZ
	DD	FLAT:??_E?$CList@PAVCStyleData@@PAV1@@@UAEPAXI@Z
	DD	FLAT:?Serialize@?$CList@PAVCStyleData@@PAV1@@@UAEXAAVCArchive@@@Z
	DD	FLAT:?AssertValid@CObject@@UBEXXZ
	DD	FLAT:?Dump@CObject@@UBEXAAVCDumpContext@@@Z
CONST	ENDS
;	COMDAT ??_7?$CList@V?$CStringT@DV?$StrTraitMFC_DLL@DV?$ChTraitsCRT@D@ATL@@@@@ATL@@V12@@@6B@
CONST	SEGMENT
??_7?$CList@V?$CStringT@DV?$StrTraitMFC_DLL@DV?$ChTraitsCRT@D@ATL@@@@@ATL@@V12@@@6B@ DD FLAT:??_R4?$CList@V?$CStringT@DV?$StrTraitMFC_DLL@DV?$ChTraitsCRT@D@ATL@@@@@ATL@@V12@@@6B@ ; CList<ATL::CStringT<char,StrTraitMFC_DLL<char,ATL::ChTraitsCRT<char> > >,ATL::CStringT<char,StrTraitMFC_DLL<char,ATL::ChTraitsCRT<char> > > >::`vftable'
	DD	FLAT:?GetRuntimeClass@CObject@@UBEPAUCRuntimeClass@@XZ
	DD	FLAT:??_E?$CList@V?$CStringT@DV?$StrTraitMFC_DLL@DV?$ChTraitsCRT@D@ATL@@@@@ATL@@V12@@@UAEPAXI@Z
	DD	FLAT:?Serialize@?$CList@V?$CStringT@DV?$StrTraitMFC_DLL@DV?$ChTraitsCRT@D@ATL@@@@@ATL@@V12@@@UAEXAAVCArchive@@@Z
	DD	FLAT:?AssertValid@CObject@@UBEXXZ
	DD	FLAT:?Dump@CObject@@UBEXAAVCDumpContext@@@Z
CONST	ENDS
;	COMDAT ??_C@_0P@FOFNMHJI@GetIndicatorID@
CONST	SEGMENT
??_C@_0P@FOFNMHJI@GetIndicatorID@ DB 'GetIndicatorID', 00H ; `string'
CONST	ENDS
;	COMDAT ??_7CStyleDataManager@@6B@
CONST	SEGMENT
??_7CStyleDataManager@@6B@ DD FLAT:??_R4CStyleDataManager@@6B@ ; CStyleDataManager::`vftable'
	DD	FLAT:?GetRuntimeClass@CObject@@UBEPAUCRuntimeClass@@XZ
	DD	FLAT:??_ECStyleDataManager@@UAEPAXI@Z
	DD	FLAT:?Serialize@CObject@@UAEXAAVCArchive@@@Z
	DD	FLAT:?AssertValid@CObject@@UBEXXZ
	DD	FLAT:?Dump@CObject@@UBEXAAVCDumpContext@@@Z
CONST	ENDS
_DATA	SEGMENT
?m_lstStyleDefault@CStyleDataManager@@1V?$CList@PAVCStyleData@@PAV1@@@A DD FLAT:??_7?$CList@PAVCStyleData@@PAV1@@@6B@ ; CStyleDataManager::m_lstStyleDefault
	DD	00H
	DD	00H
	DD	00H
	DD	00H
	DD	00H
	DD	0aH
?m_lstStyleUser@CStyleDataManager@@1V?$CList@PAVCStyleData@@PAV1@@@A DD FLAT:??_7?$CList@PAVCStyleData@@PAV1@@@6B@ ; CStyleDataManager::m_lstStyleUser
	DD	00H
	DD	00H
	DD	00H
	DD	00H
	DD	00H
	DD	0aH
_DATA	ENDS
;	COMDAT ??_R1A@?0A@EA@CBrush@@8
rdata$r	SEGMENT
??_R1A@?0A@EA@CBrush@@8 DD FLAT:??_R0?AVCBrush@@@8	; CBrush::`RTTI Base Class Descriptor at (0,-1,0,64)'
	DD	02H
	DD	00H
	DD	0ffffffffH
	DD	00H
	DD	040H
	DD	FLAT:??_R3CBrush@@8
rdata$r	ENDS
;	COMDAT ??_R2CBrush@@8
rdata$r	SEGMENT
??_R2CBrush@@8 DD FLAT:??_R1A@?0A@EA@CBrush@@8		; CBrush::`RTTI Base Class Array'
	DD	FLAT:??_R1A@?0A@EA@CGdiObject@@8
	DD	FLAT:??_R1A@?0A@EA@CObject@@8
rdata$r	ENDS
;	COMDAT ??_R3CBrush@@8
rdata$r	SEGMENT
??_R3CBrush@@8 DD 00H					; CBrush::`RTTI Class Hierarchy Descriptor'
	DD	00H
	DD	03H
	DD	FLAT:??_R2CBrush@@8
rdata$r	ENDS
;	COMDAT ??_R0?AVCBrush@@@8
data$rs	SEGMENT
??_R0?AVCBrush@@@8 DD FLAT:??_7type_info@@6B@		; CBrush `RTTI Type Descriptor'
	DD	00H
	DB	'.?AVCBrush@@', 00H
data$rs	ENDS
;	COMDAT ??_R4CBrush@@6B@
rdata$r	SEGMENT
??_R4CBrush@@6B@ DD 00H					; CBrush::`RTTI Complete Object Locator'
	DD	00H
	DD	00H
	DD	FLAT:??_R0?AVCBrush@@@8
	DD	FLAT:??_R3CBrush@@8
rdata$r	ENDS
;	COMDAT ??_R1A@?0A@EA@CPen@@8
rdata$r	SEGMENT
??_R1A@?0A@EA@CPen@@8 DD FLAT:??_R0?AVCPen@@@8		; CPen::`RTTI Base Class Descriptor at (0,-1,0,64)'
	DD	02H
	DD	00H
	DD	0ffffffffH
	DD	00H
	DD	040H
	DD	FLAT:??_R3CPen@@8
rdata$r	ENDS
;	COMDAT ??_R2CPen@@8
rdata$r	SEGMENT
??_R2CPen@@8 DD	FLAT:??_R1A@?0A@EA@CPen@@8		; CPen::`RTTI Base Class Array'
	DD	FLAT:??_R1A@?0A@EA@CGdiObject@@8
	DD	FLAT:??_R1A@?0A@EA@CObject@@8
rdata$r	ENDS
;	COMDAT ??_R3CPen@@8
rdata$r	SEGMENT
??_R3CPen@@8 DD	00H					; CPen::`RTTI Class Hierarchy Descriptor'
	DD	00H
	DD	03H
	DD	FLAT:??_R2CPen@@8
rdata$r	ENDS
;	COMDAT ??_R0?AVCPen@@@8
data$rs	SEGMENT
??_R0?AVCPen@@@8 DD FLAT:??_7type_info@@6B@		; CPen `RTTI Type Descriptor'
	DD	00H
	DB	'.?AVCPen@@', 00H
data$rs	ENDS
;	COMDAT ??_R4CPen@@6B@
rdata$r	SEGMENT
??_R4CPen@@6B@ DD 00H					; CPen::`RTTI Complete Object Locator'
	DD	00H
	DD	00H
	DD	FLAT:??_R0?AVCPen@@@8
	DD	FLAT:??_R3CPen@@8
rdata$r	ENDS
;	COMDAT ??_R1A@?0A@EA@CGdiObject@@8
rdata$r	SEGMENT
??_R1A@?0A@EA@CGdiObject@@8 DD FLAT:??_R0?AVCGdiObject@@@8 ; CGdiObject::`RTTI Base Class Descriptor at (0,-1,0,64)'
	DD	01H
	DD	00H
	DD	0ffffffffH
	DD	00H
	DD	040H
	DD	FLAT:??_R3CGdiObject@@8
rdata$r	ENDS
;	COMDAT ??_R2CGdiObject@@8
rdata$r	SEGMENT
??_R2CGdiObject@@8 DD FLAT:??_R1A@?0A@EA@CGdiObject@@8	; CGdiObject::`RTTI Base Class Array'
	DD	FLAT:??_R1A@?0A@EA@CObject@@8
rdata$r	ENDS
;	COMDAT ??_R3CGdiObject@@8
rdata$r	SEGMENT
??_R3CGdiObject@@8 DD 00H				; CGdiObject::`RTTI Class Hierarchy Descriptor'
	DD	00H
	DD	02H
	DD	FLAT:??_R2CGdiObject@@8
rdata$r	ENDS
;	COMDAT ??_R0?AVCGdiObject@@@8
data$rs	SEGMENT
??_R0?AVCGdiObject@@@8 DD FLAT:??_7type_info@@6B@	; CGdiObject `RTTI Type Descriptor'
	DD	00H
	DB	'.?AVCGdiObject@@', 00H
data$rs	ENDS
;	COMDAT ??_R4CGdiObject@@6B@
rdata$r	SEGMENT
??_R4CGdiObject@@6B@ DD 00H				; CGdiObject::`RTTI Complete Object Locator'
	DD	00H
	DD	00H
	DD	FLAT:??_R0?AVCGdiObject@@@8
	DD	FLAT:??_R3CGdiObject@@8
rdata$r	ENDS
;	COMDAT ??_R1A@?0A@EA@CObject@@8
rdata$r	SEGMENT
??_R1A@?0A@EA@CObject@@8 DD FLAT:??_R0?AVCObject@@@8	; CObject::`RTTI Base Class Descriptor at (0,-1,0,64)'
	DD	00H
	DD	00H
	DD	0ffffffffH
	DD	00H
	DD	040H
	DD	FLAT:??_R3CObject@@8
rdata$r	ENDS
;	COMDAT ??_R2CObject@@8
rdata$r	SEGMENT
??_R2CObject@@8 DD FLAT:??_R1A@?0A@EA@CObject@@8	; CObject::`RTTI Base Class Array'
rdata$r	ENDS
;	COMDAT ??_R3CObject@@8
rdata$r	SEGMENT
??_R3CObject@@8 DD 00H					; CObject::`RTTI Class Hierarchy Descriptor'
	DD	00H
	DD	01H
	DD	FLAT:??_R2CObject@@8
rdata$r	ENDS
;	COMDAT ??_R0?AVCObject@@@8
data$rs	SEGMENT
??_R0?AVCObject@@@8 DD FLAT:??_7type_info@@6B@		; CObject `RTTI Type Descriptor'
	DD	00H
	DB	'.?AVCObject@@', 00H
data$rs	ENDS
;	COMDAT ??_C@_0N@OMEMOKLE@?$CFTs?5?$CI?$CFTs?3?$CFd?$CJ@
CONST	SEGMENT
??_C@_0N@OMEMOKLE@?$CFTs?5?$CI?$CFTs?3?$CFd?$CJ@ DB '%Ts (%Ts:%d)', 00H ; `string'
CONST	ENDS
;	COMDAT ??_C@_0BB@HBOOMJBF@?$CFTs?5?$CI?$CFTs?3?$CFd?$CJ?6?$CFTs@
CONST	SEGMENT
??_C@_0BB@HBOOMJBF@?$CFTs?5?$CI?$CFTs?3?$CFd?$CJ?6?$CFTs@ DB '%Ts (%Ts:%d'
	DB	')', 0aH, '%Ts', 00H				; `string'
CONST	ENDS
;	COMDAT ??_C@_0BP@OIEOKIDM@Exception?5thrown?5in?5destructor@
CONST	SEGMENT
??_C@_0BP@OIEOKIDM@Exception?5thrown?5in?5destructor@ DB 'Exception throw'
	DB	'n in destructor', 00H			; `string'
CONST	ENDS
;	COMDAT ??_C@_0HD@JJCHHHNK@C?3?2Program?5Files?5?$CIx86?$CJ?2Microsof@
CONST	SEGMENT
??_C@_0HD@JJCHHHNK@C?3?2Program?5Files?5?$CIx86?$CJ?2Microsof@ DB 'C:\Pro'
	DB	'gram Files (x86)\Microsoft Visual Studio\2019\Community\VC\To'
	DB	'ols\MSVC\14.29.30133\atlmfc\include\afxwin1.inl', 00H ; `string'
CONST	ENDS
;	COMDAT ??_7CBrush@@6B@
CONST	SEGMENT
??_7CBrush@@6B@ DD FLAT:??_R4CBrush@@6B@		; CBrush::`vftable'
	DD	FLAT:?GetRuntimeClass@CBrush@@UBEPAUCRuntimeClass@@XZ
	DD	FLAT:??_ECBrush@@UAEPAXI@Z
	DD	FLAT:?Serialize@CObject@@UAEXAAVCArchive@@@Z
	DD	FLAT:?AssertValid@CObject@@UBEXXZ
	DD	FLAT:?Dump@CObject@@UBEXAAVCDumpContext@@@Z
CONST	ENDS
;	COMDAT ??_7CPen@@6B@
CONST	SEGMENT
??_7CPen@@6B@ DD FLAT:??_R4CPen@@6B@			; CPen::`vftable'
	DD	FLAT:?GetRuntimeClass@CPen@@UBEPAUCRuntimeClass@@XZ
	DD	FLAT:??_ECPen@@UAEPAXI@Z
	DD	FLAT:?Serialize@CObject@@UAEXAAVCArchive@@@Z
	DD	FLAT:?AssertValid@CObject@@UBEXXZ
	DD	FLAT:?Dump@CObject@@UBEXAAVCDumpContext@@@Z
CONST	ENDS
;	COMDAT ??_7CGdiObject@@6B@
CONST	SEGMENT
??_7CGdiObject@@6B@ DD FLAT:??_R4CGdiObject@@6B@	; CGdiObject::`vftable'
	DD	FLAT:?GetRuntimeClass@CGdiObject@@UBEPAUCRuntimeClass@@XZ
	DD	FLAT:??_ECGdiObject@@UAEPAXI@Z
	DD	FLAT:?Serialize@CObject@@UAEXAAVCArchive@@@Z
	DD	FLAT:?AssertValid@CObject@@UBEXXZ
	DD	FLAT:?Dump@CObject@@UBEXAAVCDumpContext@@@Z
CONST	ENDS
;	COMDAT ??_R0PAVCException@@@8
data$r	SEGMENT
??_R0PAVCException@@@8 DD FLAT:??_7type_info@@6B@	; CException * `RTTI Type Descriptor'
	DD	00H
	DB	'.PAVCException@@', 00H
data$r	ENDS
;	COMDAT xdata$x
xdata$x	SEGMENT
__unwindtable$??__F?m_lstStyleUser@CStyleDataManager@@1V?$CList@PAVCStyleData@@PAV1@@@A@@YAXXZ DD 0ffffffffH
	DD	FLAT:___std_terminate
__ehfuncinfo$??__F?m_lstStyleUser@CStyleDataManager@@1V?$CList@PAVCStyleData@@PAV1@@@A@@YAXXZ DD 019930522H
	DD	01H
	DD	FLAT:__unwindtable$??__F?m_lstStyleUser@CStyleDataManager@@1V?$CList@PAVCStyleData@@PAV1@@@A@@YAXXZ
	DD	2 DUP(00H)
	DD	2 DUP(00H)
	DD	00H
	DD	01H
xdata$x	ENDS
;	COMDAT xdata$x
xdata$x	SEGMENT
__unwindtable$??__F?m_lstStyleDefault@CStyleDataManager@@1V?$CList@PAVCStyleData@@PAV1@@@A@@YAXXZ DD 0ffffffffH
	DD	FLAT:___std_terminate
__ehfuncinfo$??__F?m_lstStyleDefault@CStyleDataManager@@1V?$CList@PAVCStyleData@@PAV1@@@A@@YAXXZ DD 019930522H
	DD	01H
	DD	FLAT:__unwindtable$??__F?m_lstStyleDefault@CStyleDataManager@@1V?$CList@PAVCStyleData@@PAV1@@@A@@YAXXZ
	DD	2 DUP(00H)
	DD	2 DUP(00H)
	DD	00H
	DD	01H
xdata$x	ENDS
;	COMDAT xdata$x
xdata$x	SEGMENT
__unwindtable$??_G?$CList@PAVCStyleData@@PAV1@@@UAEPAXI@Z DD 0ffffffffH
	DD	FLAT:___std_terminate
__ehfuncinfo$??_G?$CList@PAVCStyleData@@PAV1@@@UAEPAXI@Z DD 019930522H
	DD	01H
	DD	FLAT:__unwindtable$??_G?$CList@PAVCStyleData@@PAV1@@@UAEPAXI@Z
	DD	2 DUP(00H)
	DD	2 DUP(00H)
	DD	00H
	DD	05H
xdata$x	ENDS
;	COMDAT xdata$x
xdata$x	SEGMENT
__ehfuncinfo$??1?$CList@PAVCStyleData@@PAV1@@@UAE@XZ DD 019930522H
	DD	00H
	DD	00H
	DD	2 DUP(00H)
	DD	2 DUP(00H)
	DD	00H
	DD	05H
xdata$x	ENDS
;	COMDAT xdata$x
xdata$x	SEGMENT
__unwindtable$?Serialize@?$CList@V?$CStringT@DV?$StrTraitMFC_DLL@DV?$ChTraitsCRT@D@ATL@@@@@ATL@@V12@@@UAEXAAVCArchive@@@Z DD 0ffffffffH
	DD	FLAT:__unwindfunclet$?Serialize@?$CList@V?$CStringT@DV?$StrTraitMFC_DLL@DV?$ChTraitsCRT@D@ATL@@@@@ATL@@V12@@@UAEXAAVCArchive@@@Z$0
	DD	00H
	DD	FLAT:__unwindfunclet$?Serialize@?$CList@V?$CStringT@DV?$StrTraitMFC_DLL@DV?$ChTraitsCRT@D@ATL@@@@@ATL@@V12@@@UAEXAAVCArchive@@@Z$2
__ehfuncinfo$?Serialize@?$CList@V?$CStringT@DV?$StrTraitMFC_DLL@DV?$ChTraitsCRT@D@ATL@@@@@ATL@@V12@@@UAEXAAVCArchive@@@Z DD 019930522H
	DD	02H
	DD	FLAT:__unwindtable$?Serialize@?$CList@V?$CStringT@DV?$StrTraitMFC_DLL@DV?$ChTraitsCRT@D@ATL@@@@@ATL@@V12@@@UAEXAAVCArchive@@@Z
	DD	2 DUP(00H)
	DD	2 DUP(00H)
	DD	00H
	DD	01H
xdata$x	ENDS
;	COMDAT xdata$x
xdata$x	SEGMENT
__ehfuncinfo$??1?$CList@V?$CStringT@DV?$StrTraitMFC_DLL@DV?$ChTraitsCRT@D@ATL@@@@@ATL@@V12@@@UAE@XZ DD 019930522H
	DD	00H
	DD	00H
	DD	2 DUP(00H)
	DD	2 DUP(00H)
	DD	00H
	DD	05H
xdata$x	ENDS
;	COMDAT xdata$x
xdata$x	SEGMENT
__unwindtable$?AddTail@?$CList@V?$CStringT@DV?$StrTraitMFC_DLL@DV?$ChTraitsCRT@D@ATL@@@@@ATL@@V12@@@QAEPAU__POSITION@@V?$CStringT@DV?$StrTraitMFC_DLL@DV?$ChTraitsCRT@D@ATL@@@@@ATL@@@Z DD 0ffffffffH
	DD	FLAT:__unwindfunclet$?AddTail@?$CList@V?$CStringT@DV?$StrTraitMFC_DLL@DV?$ChTraitsCRT@D@ATL@@@@@ATL@@V12@@@QAEPAU__POSITION@@V?$CStringT@DV?$StrTraitMFC_DLL@DV?$ChTraitsCRT@D@ATL@@@@@ATL@@@Z$0
__ehfuncinfo$?AddTail@?$CList@V?$CStringT@DV?$StrTraitMFC_DLL@DV?$ChTraitsCRT@D@ATL@@@@@ATL@@V12@@@QAEPAU__POSITION@@V?$CStringT@DV?$StrTraitMFC_DLL@DV?$ChTraitsCRT@D@ATL@@@@@ATL@@@Z DD 019930522H
	DD	01H
	DD	FLAT:__unwindtable$?AddTail@?$CList@V?$CStringT@DV?$StrTraitMFC_DLL@DV?$ChTraitsCRT@D@ATL@@@@@ATL@@V12@@@QAEPAU__POSITION@@V?$CStringT@DV?$StrTraitMFC_DLL@DV?$ChTraitsCRT@D@ATL@@@@@ATL@@@Z
	DD	2 DUP(00H)
	DD	2 DUP(00H)
	DD	00H
	DD	01H
xdata$x	ENDS
;	COMDAT xdata$x
xdata$x	SEGMENT
__unwindtable$?DrawLine@CStyleDataManager@@QAEXPAVCDC@@VCRect@@PAHKH@Z DD 0ffffffffH
	DD	FLAT:__unwindfunclet$?DrawLine@CStyleDataManager@@QAEXPAVCDC@@VCRect@@PAHKH@Z$0
__ehfuncinfo$?DrawLine@CStyleDataManager@@QAEXPAVCDC@@VCRect@@PAHKH@Z DD 019930522H
	DD	01H
	DD	FLAT:__unwindtable$?DrawLine@CStyleDataManager@@QAEXPAVCDC@@VCRect@@PAHKH@Z
	DD	2 DUP(00H)
	DD	2 DUP(00H)
	DD	00H
	DD	01H
xdata$x	ENDS
;	COMDAT xdata$x
xdata$x	SEGMENT
__ehfuncinfo$?DrawBar@CStyleDataManager@@QAEXPAVCDC@@VCRect@@PAHKKKHHH@Z DD 019930522H
	DD	05H
	DD	FLAT:__unwindtable$?DrawBar@CStyleDataManager@@QAEXPAVCDC@@VCRect@@PAHKKKHHH@Z
	DD	2 DUP(00H)
	DD	2 DUP(00H)
	DD	00H
	DD	01H
__unwindtable$?DrawBar@CStyleDataManager@@QAEXPAVCDC@@VCRect@@PAHKKKHHH@Z DD 0ffffffffH
	DD	FLAT:__unwindfunclet$?DrawBar@CStyleDataManager@@QAEXPAVCDC@@VCRect@@PAHKKKHHH@Z$0
	DD	00H
	DD	FLAT:__unwindfunclet$?DrawBar@CStyleDataManager@@QAEXPAVCDC@@VCRect@@PAHKKKHHH@Z$1
	DD	01H
	DD	FLAT:__unwindfunclet$?DrawBar@CStyleDataManager@@QAEXPAVCDC@@VCRect@@PAHKKKHHH@Z$2
	DD	02H
	DD	FLAT:__unwindfunclet$?DrawBar@CStyleDataManager@@QAEXPAVCDC@@VCRect@@PAHKKKHHH@Z$3
	DD	03H
	DD	FLAT:__unwindfunclet$?DrawBar@CStyleDataManager@@QAEXPAVCDC@@VCRect@@PAHKKKHHH@Z$4
xdata$x	ENDS
;	COMDAT xdata$x
xdata$x	SEGMENT
__ehfuncinfo$?DrawBong@CStyleDataManager@@QAEXPAVCDC@@VCRect@@PAY03HKKKHHH@Z DD 019930522H
	DD	05H
	DD	FLAT:__unwindtable$?DrawBong@CStyleDataManager@@QAEXPAVCDC@@VCRect@@PAY03HKKKHHH@Z
	DD	2 DUP(00H)
	DD	2 DUP(00H)
	DD	00H
	DD	01H
__unwindtable$?DrawBong@CStyleDataManager@@QAEXPAVCDC@@VCRect@@PAY03HKKKHHH@Z DD 0ffffffffH
	DD	FLAT:__unwindfunclet$?DrawBong@CStyleDataManager@@QAEXPAVCDC@@VCRect@@PAY03HKKKHHH@Z$0
	DD	00H
	DD	FLAT:__unwindfunclet$?DrawBong@CStyleDataManager@@QAEXPAVCDC@@VCRect@@PAY03HKKKHHH@Z$1
	DD	01H
	DD	FLAT:__unwindfunclet$?DrawBong@CStyleDataManager@@QAEXPAVCDC@@VCRect@@PAY03HKKKHHH@Z$2
	DD	02H
	DD	FLAT:__unwindfunclet$?DrawBong@CStyleDataManager@@QAEXPAVCDC@@VCRect@@PAY03HKKKHHH@Z$3
	DD	03H
	DD	FLAT:__unwindfunclet$?DrawBong@CStyleDataManager@@QAEXPAVCDC@@VCRect@@PAY03HKKKHHH@Z$4
xdata$x	ENDS
;	COMDAT xdata$x
xdata$x	SEGMENT
__unwindtable$?DrawTitle@CStyleDataManager@@QAEXPAVCDC@@VCRect@@1PAVCStyleData@@PAVCFont@@PAUHWND__@@W4CHART_MODE@CChartInfo@@@Z DD 0ffffffffH
	DD	FLAT:__unwindfunclet$?DrawTitle@CStyleDataManager@@QAEXPAVCDC@@VCRect@@1PAVCStyleData@@PAVCFont@@PAUHWND__@@W4CHART_MODE@CChartInfo@@@Z$0
	DD	0ffffffffH
	DD	FLAT:__unwindfunclet$?DrawTitle@CStyleDataManager@@QAEXPAVCDC@@VCRect@@1PAVCStyleData@@PAVCFont@@PAUHWND__@@W4CHART_MODE@CChartInfo@@@Z$1
__ehfuncinfo$?DrawTitle@CStyleDataManager@@QAEXPAVCDC@@VCRect@@1PAVCStyleData@@PAVCFont@@PAUHWND__@@W4CHART_MODE@CChartInfo@@@Z DD 019930522H
	DD	02H
	DD	FLAT:__unwindtable$?DrawTitle@CStyleDataManager@@QAEXPAVCDC@@VCRect@@1PAVCStyleData@@PAVCFont@@PAUHWND__@@W4CHART_MODE@CChartInfo@@@Z
	DD	2 DUP(00H)
	DD	2 DUP(00H)
	DD	00H
	DD	01H
xdata$x	ENDS
;	COMDAT xdata$x
xdata$x	SEGMENT
__unwindtable$?DrawScaleGrid@CStyleDataManager@@QAEXPAVCDC@@VCRect@@1PAVCStyleData@@W4CHART_MODE@CChartInfo@@N@Z DD 0ffffffffH
	DD	FLAT:__unwindfunclet$?DrawScaleGrid@CStyleDataManager@@QAEXPAVCDC@@VCRect@@1PAVCStyleData@@W4CHART_MODE@CChartInfo@@N@Z$0
__ehfuncinfo$?DrawScaleGrid@CStyleDataManager@@QAEXPAVCDC@@VCRect@@1PAVCStyleData@@W4CHART_MODE@CChartInfo@@N@Z DD 019930522H
	DD	01H
	DD	FLAT:__unwindtable$?DrawScaleGrid@CStyleDataManager@@QAEXPAVCDC@@VCRect@@1PAVCStyleData@@W4CHART_MODE@CChartInfo@@N@Z
	DD	2 DUP(00H)
	DD	2 DUP(00H)
	DD	00H
	DD	01H
xdata$x	ENDS
;	COMDAT xdata$x
xdata$x	SEGMENT
__unwindtable$?DrawGraphGrid@CStyleDataManager@@QAEXPAVCDC@@VCRect@@1PAVCStyleData@@@Z DD 0ffffffffH
	DD	FLAT:__unwindfunclet$?DrawGraphGrid@CStyleDataManager@@QAEXPAVCDC@@VCRect@@1PAVCStyleData@@@Z$0
__ehfuncinfo$?DrawGraphGrid@CStyleDataManager@@QAEXPAVCDC@@VCRect@@1PAVCStyleData@@@Z DD 019930522H
	DD	01H
	DD	FLAT:__unwindtable$?DrawGraphGrid@CStyleDataManager@@QAEXPAVCDC@@VCRect@@1PAVCStyleData@@@Z
	DD	2 DUP(00H)
	DD	2 DUP(00H)
	DD	00H
	DD	01H
xdata$x	ENDS
;	COMDAT xdata$x
xdata$x	SEGMENT
__unwindtable$?DrawGraph@CStyleDataManager@@QAEXPAVCDC@@VCRect@@1PAVCStyleData@@W4CHART_MODE@CChartInfo@@@Z DD 0ffffffffH
	DD	FLAT:__unwindfunclet$?DrawGraph@CStyleDataManager@@QAEXPAVCDC@@VCRect@@1PAVCStyleData@@W4CHART_MODE@CChartInfo@@@Z$0
	DD	00H
	DD	FLAT:__unwindfunclet$?DrawGraph@CStyleDataManager@@QAEXPAVCDC@@VCRect@@1PAVCStyleData@@W4CHART_MODE@CChartInfo@@@Z$1
__ehfuncinfo$?DrawGraph@CStyleDataManager@@QAEXPAVCDC@@VCRect@@1PAVCStyleData@@W4CHART_MODE@CChartInfo@@@Z DD 019930522H
	DD	02H
	DD	FLAT:__unwindtable$?DrawGraph@CStyleDataManager@@QAEXPAVCDC@@VCRect@@1PAVCStyleData@@W4CHART_MODE@CChartInfo@@@Z
	DD	2 DUP(00H)
	DD	2 DUP(00H)
	DD	00H
	DD	01H
xdata$x	ENDS
;	COMDAT xdata$x
xdata$x	SEGMENT
__ehfuncinfo$?DrawScale@CStyleDataManager@@QAEXPAVCDC@@VCRect@@11PAVCStyleData@@PAVCFont@@W4CHART_MODE@CChartInfo@@N@Z DD 019930522H
	DD	0fH
	DD	FLAT:__unwindtable$?DrawScale@CStyleDataManager@@QAEXPAVCDC@@VCRect@@11PAVCStyleData@@PAVCFont@@W4CHART_MODE@CChartInfo@@N@Z
	DD	2 DUP(00H)
	DD	2 DUP(00H)
	DD	00H
	DD	01H
__unwindtable$?DrawScale@CStyleDataManager@@QAEXPAVCDC@@VCRect@@11PAVCStyleData@@PAVCFont@@W4CHART_MODE@CChartInfo@@N@Z DD 0ffffffffH
	DD	FLAT:__unwindfunclet$?DrawScale@CStyleDataManager@@QAEXPAVCDC@@VCRect@@11PAVCStyleData@@PAVCFont@@W4CHART_MODE@CChartInfo@@N@Z$0
	DD	00H
	DD	FLAT:__unwindfunclet$?DrawScale@CStyleDataManager@@QAEXPAVCDC@@VCRect@@11PAVCStyleData@@PAVCFont@@W4CHART_MODE@CChartInfo@@N@Z$1
	DD	01H
	DD	FLAT:__unwindfunclet$?DrawScale@CStyleDataManager@@QAEXPAVCDC@@VCRect@@11PAVCStyleData@@PAVCFont@@W4CHART_MODE@CChartInfo@@N@Z$2
	DD	01H
	DD	FLAT:__unwindfunclet$?DrawScale@CStyleDataManager@@QAEXPAVCDC@@VCRect@@11PAVCStyleData@@PAVCFont@@W4CHART_MODE@CChartInfo@@N@Z$3
	DD	01H
	DD	FLAT:__unwindfunclet$?DrawScale@CStyleDataManager@@QAEXPAVCDC@@VCRect@@11PAVCStyleData@@PAVCFont@@W4CHART_MODE@CChartInfo@@N@Z$4
	DD	01H
	DD	FLAT:__unwindfunclet$?DrawScale@CStyleDataManager@@QAEXPAVCDC@@VCRect@@11PAVCStyleData@@PAVCFont@@W4CHART_MODE@CChartInfo@@N@Z$5
	DD	01H
	DD	FLAT:__unwindfunclet$?DrawScale@CStyleDataManager@@QAEXPAVCDC@@VCRect@@11PAVCStyleData@@PAVCFont@@W4CHART_MODE@CChartInfo@@N@Z$6
	DD	01H
	DD	FLAT:__unwindfunclet$?DrawScale@CStyleDataManager@@QAEXPAVCDC@@VCRect@@11PAVCStyleData@@PAVCFont@@W4CHART_MODE@CChartInfo@@N@Z$7
	DD	01H
	DD	FLAT:__unwindfunclet$?DrawScale@CStyleDataManager@@QAEXPAVCDC@@VCRect@@11PAVCStyleData@@PAVCFont@@W4CHART_MODE@CChartInfo@@N@Z$8
	DD	01H
	DD	FLAT:__unwindfunclet$?DrawScale@CStyleDataManager@@QAEXPAVCDC@@VCRect@@11PAVCStyleData@@PAVCFont@@W4CHART_MODE@CChartInfo@@N@Z$9
	DD	01H
	DD	FLAT:__unwindfunclet$?DrawScale@CStyleDataManager@@QAEXPAVCDC@@VCRect@@11PAVCStyleData@@PAVCFont@@W4CHART_MODE@CChartInfo@@N@Z$10
	DD	01H
	DD	FLAT:__unwindfunclet$?DrawScale@CStyleDataManager@@QAEXPAVCDC@@VCRect@@11PAVCStyleData@@PAVCFont@@W4CHART_MODE@CChartInfo@@N@Z$11
	DD	01H
	DD	FLAT:__unwindfunclet$?DrawScale@CStyleDataManager@@QAEXPAVCDC@@VCRect@@11PAVCStyleData@@PAVCFont@@W4CHART_MODE@CChartInfo@@N@Z$12
	DD	01H
	DD	FLAT:__unwindfunclet$?DrawScale@CStyleDataManager@@QAEXPAVCDC@@VCRect@@11PAVCStyleData@@PAVCFont@@W4CHART_MODE@CChartInfo@@N@Z$13
	DD	01H
	DD	FLAT:__unwindfunclet$?DrawScale@CStyleDataManager@@QAEXPAVCDC@@VCRect@@11PAVCStyleData@@PAVCFont@@W4CHART_MODE@CChartInfo@@N@Z$14
xdata$x	ENDS
;	COMDAT xdata$x
xdata$x	SEGMENT
__unwindtable$?DrawSampleImage@CStyleDataManager@@QAEXPAVCDC@@VCRect@@PAVCStyleData@@W4CHART_MODE@CChartInfo@@PAVCFont@@PAUHWND__@@H@Z DD 0ffffffffH
	DD	FLAT:__unwindfunclet$?DrawSampleImage@CStyleDataManager@@QAEXPAVCDC@@VCRect@@PAVCStyleData@@W4CHART_MODE@CChartInfo@@PAVCFont@@PAUHWND__@@H@Z$0
	DD	00H
	DD	FLAT:__unwindfunclet$?DrawSampleImage@CStyleDataManager@@QAEXPAVCDC@@VCRect@@PAVCStyleData@@W4CHART_MODE@CChartInfo@@PAVCFont@@PAUHWND__@@H@Z$1
__ehfuncinfo$?DrawSampleImage@CStyleDataManager@@QAEXPAVCDC@@VCRect@@PAVCStyleData@@W4CHART_MODE@CChartInfo@@PAVCFont@@PAUHWND__@@H@Z DD 019930522H
	DD	02H
	DD	FLAT:__unwindtable$?DrawSampleImage@CStyleDataManager@@QAEXPAVCDC@@VCRect@@PAVCStyleData@@W4CHART_MODE@CChartInfo@@PAVCFont@@PAUHWND__@@H@Z
	DD	2 DUP(00H)
	DD	2 DUP(00H)
	DD	00H
	DD	01H
xdata$x	ENDS
;	COMDAT xdata$x
xdata$x	SEGMENT
__ehfuncinfo$?GetStyleDataFromOCX@CStyleDataManager@@QAEXAAVCStyleData@@PAUIChartOCX135914@@H@Z DD 019930522H
	DD	09H
	DD	FLAT:__unwindtable$?GetStyleDataFromOCX@CStyleDataManager@@QAEXAAVCStyleData@@PAUIChartOCX135914@@H@Z
	DD	2 DUP(00H)
	DD	2 DUP(00H)
	DD	00H
	DD	01H
__unwindtable$?GetStyleDataFromOCX@CStyleDataManager@@QAEXAAVCStyleData@@PAUIChartOCX135914@@H@Z DD 0ffffffffH
	DD	FLAT:__unwindfunclet$?GetStyleDataFromOCX@CStyleDataManager@@QAEXAAVCStyleData@@PAUIChartOCX135914@@H@Z$0
	DD	00H
	DD	FLAT:__unwindfunclet$?GetStyleDataFromOCX@CStyleDataManager@@QAEXAAVCStyleData@@PAUIChartOCX135914@@H@Z$1
	DD	01H
	DD	FLAT:__unwindfunclet$?GetStyleDataFromOCX@CStyleDataManager@@QAEXAAVCStyleData@@PAUIChartOCX135914@@H@Z$2
	DD	02H
	DD	FLAT:__unwindfunclet$?GetStyleDataFromOCX@CStyleDataManager@@QAEXAAVCStyleData@@PAUIChartOCX135914@@H@Z$3
	DD	02H
	DD	FLAT:___std_terminate
	DD	02H
	DD	FLAT:__unwindfunclet$?GetStyleDataFromOCX@CStyleDataManager@@QAEXAAVCStyleData@@PAUIChartOCX135914@@H@Z$5
	DD	02H
	DD	FLAT:___std_terminate
	DD	01H
	DD	FLAT:___std_terminate
	DD	00H
	DD	FLAT:___std_terminate
xdata$x	ENDS
;	COMDAT xdata$x
xdata$x	SEGMENT
__unwindtable$?RemoveDummyUserStyle@CStyleDataManager@@QAEXXZ DD 0ffffffffH
	DD	FLAT:__unwindfunclet$?RemoveDummyUserStyle@CStyleDataManager@@QAEXXZ$0
	DD	00H
	DD	FLAT:__unwindfunclet$?RemoveDummyUserStyle@CStyleDataManager@@QAEXXZ$1
	DD	01H
	DD	FLAT:__unwindfunclet$?RemoveDummyUserStyle@CStyleDataManager@@QAEXXZ$2
__ehfuncinfo$?RemoveDummyUserStyle@CStyleDataManager@@QAEXXZ DD 019930522H
	DD	03H
	DD	FLAT:__unwindtable$?RemoveDummyUserStyle@CStyleDataManager@@QAEXXZ
	DD	2 DUP(00H)
	DD	2 DUP(00H)
	DD	00H
	DD	01H
xdata$x	ENDS
;	COMDAT xdata$x
xdata$x	SEGMENT
__ehfuncinfo$?CreateDummyUserStyle@CStyleDataManager@@QAEXPAUIChartOCX135914@@@Z DD 019930522H
	DD	07H
	DD	FLAT:__unwindtable$?CreateDummyUserStyle@CStyleDataManager@@QAEXPAUIChartOCX135914@@@Z
	DD	2 DUP(00H)
	DD	2 DUP(00H)
	DD	00H
	DD	01H
__unwindtable$?CreateDummyUserStyle@CStyleDataManager@@QAEXPAUIChartOCX135914@@@Z DD 0ffffffffH
	DD	FLAT:__unwindfunclet$?CreateDummyUserStyle@CStyleDataManager@@QAEXPAUIChartOCX135914@@@Z$0
	DD	00H
	DD	FLAT:__unwindfunclet$?CreateDummyUserStyle@CStyleDataManager@@QAEXPAUIChartOCX135914@@@Z$1
	DD	01H
	DD	FLAT:__unwindfunclet$?CreateDummyUserStyle@CStyleDataManager@@QAEXPAUIChartOCX135914@@@Z$2
	DD	00H
	DD	FLAT:__unwindfunclet$?CreateDummyUserStyle@CStyleDataManager@@QAEXPAUIChartOCX135914@@@Z$3
	DD	00H
	DD	FLAT:__unwindfunclet$?CreateDummyUserStyle@CStyleDataManager@@QAEXPAUIChartOCX135914@@@Z$4
	DD	04H
	DD	FLAT:__unwindfunclet$?CreateDummyUserStyle@CStyleDataManager@@QAEXPAUIChartOCX135914@@@Z$5
	DD	0ffffffffH
	DD	FLAT:___std_terminate
xdata$x	ENDS
;	COMDAT xdata$x
xdata$x	SEGMENT
__unwindtable$?GetStyleData@CStyleDataManager@@QAEPAVCStyleData@@PBDH@Z DD 0ffffffffH
	DD	FLAT:__unwindfunclet$?GetStyleData@CStyleDataManager@@QAEPAVCStyleData@@PBDH@Z$0
__ehfuncinfo$?GetStyleData@CStyleDataManager@@QAEPAVCStyleData@@PBDH@Z DD 019930522H
	DD	01H
	DD	FLAT:__unwindtable$?GetStyleData@CStyleDataManager@@QAEPAVCStyleData@@PBDH@Z
	DD	2 DUP(00H)
	DD	2 DUP(00H)
	DD	00H
	DD	01H
xdata$x	ENDS
;	COMDAT xdata$x
xdata$x	SEGMENT
__unwindtable$?CopyStyleDataListFrom@CStyleDataManager@@QAEHAAV?$CList@PAVCStyleData@@PAV1@@@H@Z DD 0ffffffffH
	DD	FLAT:___std_terminate
	DD	0ffffffffH
	DD	FLAT:___std_terminate
	DD	0ffffffffH
	DD	FLAT:__unwindfunclet$?CopyStyleDataListFrom@CStyleDataManager@@QAEHAAV?$CList@PAVCStyleData@@PAV1@@@H@Z$0
__ehfuncinfo$?CopyStyleDataListFrom@CStyleDataManager@@QAEHAAV?$CList@PAVCStyleData@@PAV1@@@H@Z DD 019930522H
	DD	03H
	DD	FLAT:__unwindtable$?CopyStyleDataListFrom@CStyleDataManager@@QAEHAAV?$CList@PAVCStyleData@@PAV1@@@H@Z
	DD	2 DUP(00H)
	DD	2 DUP(00H)
	DD	00H
	DD	01H
xdata$x	ENDS
;	COMDAT xdata$x
xdata$x	SEGMENT
__unwindtable$?CopyStyleDataListTo@CStyleDataManager@@QAEHAAV?$CList@PAVCStyleData@@PAV1@@@H@Z DD 0ffffffffH
	DD	FLAT:__unwindfunclet$?CopyStyleDataListTo@CStyleDataManager@@QAEHAAV?$CList@PAVCStyleData@@PAV1@@@H@Z$0
__ehfuncinfo$?CopyStyleDataListTo@CStyleDataManager@@QAEHAAV?$CList@PAVCStyleData@@PAV1@@@H@Z DD 019930522H
	DD	01H
	DD	FLAT:__unwindtable$?CopyStyleDataListTo@CStyleDataManager@@QAEHAAV?$CList@PAVCStyleData@@PAV1@@@H@Z
	DD	2 DUP(00H)
	DD	2 DUP(00H)
	DD	00H
	DD	01H
xdata$x	ENDS
;	COMDAT xdata$x
xdata$x	SEGMENT
__unwindtable$?RemoveStyleData@CStyleDataManager@@QAEHPBDH@Z DD 0ffffffffH
	DD	FLAT:__unwindfunclet$?RemoveStyleData@CStyleDataManager@@QAEHPBDH@Z$0
__ehfuncinfo$?RemoveStyleData@CStyleDataManager@@QAEHPBDH@Z DD 019930522H
	DD	01H
	DD	FLAT:__unwindtable$?RemoveStyleData@CStyleDataManager@@QAEHPBDH@Z
	DD	2 DUP(00H)
	DD	2 DUP(00H)
	DD	00H
	DD	01H
xdata$x	ENDS
;	COMDAT xdata$x
xdata$x	SEGMENT
__unwindtable$?WriteStyleFile@CStyleDataManager@@QAEHPAUIChartOCX135914@@@Z DD 0ffffffffH
	DD	FLAT:__unwindfunclet$?WriteStyleFile@CStyleDataManager@@QAEHPAUIChartOCX135914@@@Z$0
	DD	00H
	DD	FLAT:__unwindfunclet$?WriteStyleFile@CStyleDataManager@@QAEHPAUIChartOCX135914@@@Z$1
	DD	0ffffffffH
	DD	FLAT:___std_terminate
__ehfuncinfo$?WriteStyleFile@CStyleDataManager@@QAEHPAUIChartOCX135914@@@Z DD 019930522H
	DD	03H
	DD	FLAT:__unwindtable$?WriteStyleFile@CStyleDataManager@@QAEHPAUIChartOCX135914@@@Z
	DD	2 DUP(00H)
	DD	2 DUP(00H)
	DD	00H
	DD	01H
xdata$x	ENDS
;	COMDAT xdata$x
xdata$x	SEGMENT
__ehfuncinfo$?Initialize@CStyleDataManager@@QAEHPAUIChartOCX135914@@H@Z DD 019930522H
	DD	06H
	DD	FLAT:__unwindtable$?Initialize@CStyleDataManager@@QAEHPAUIChartOCX135914@@H@Z
	DD	2 DUP(00H)
	DD	2 DUP(00H)
	DD	00H
	DD	01H
__unwindtable$?Initialize@CStyleDataManager@@QAEHPAUIChartOCX135914@@H@Z DD 0ffffffffH
	DD	FLAT:__unwindfunclet$?Initialize@CStyleDataManager@@QAEHPAUIChartOCX135914@@H@Z$0
	DD	00H
	DD	FLAT:__unwindfunclet$?Initialize@CStyleDataManager@@QAEHPAUIChartOCX135914@@H@Z$1
	DD	0ffffffffH
	DD	FLAT:___std_terminate
	DD	0ffffffffH
	DD	FLAT:__unwindfunclet$?Initialize@CStyleDataManager@@QAEHPAUIChartOCX135914@@H@Z$2
	DD	03H
	DD	FLAT:__unwindfunclet$?Initialize@CStyleDataManager@@QAEHPAUIChartOCX135914@@H@Z$3
	DD	0ffffffffH
	DD	FLAT:___std_terminate
xdata$x	ENDS
;	COMDAT xdata$x
xdata$x	SEGMENT
__unwindtable$?SetStyleDataToIndex@CStyleDataManager@@SAXAAVCStyleData@@PAUIChartOCX135914@@PBD@Z DD 0ffffffffH
	DD	FLAT:__unwindfunclet$?SetStyleDataToIndex@CStyleDataManager@@SAXAAVCStyleData@@PAUIChartOCX135914@@PBD@Z$0
	DD	0ffffffffH
	DD	FLAT:___std_terminate
__ehfuncinfo$?SetStyleDataToIndex@CStyleDataManager@@SAXAAVCStyleData@@PAUIChartOCX135914@@PBD@Z DD 019930522H
	DD	02H
	DD	FLAT:__unwindtable$?SetStyleDataToIndex@CStyleDataManager@@SAXAAVCStyleData@@PAUIChartOCX135914@@PBD@Z
	DD	2 DUP(00H)
	DD	2 DUP(00H)
	DD	00H
	DD	01H
xdata$x	ENDS
;	COMDAT xdata$x
xdata$x	SEGMENT
__unwindtable$?SetStyleDataToOCX@CStyleDataManager@@SAXAAVCStyleData@@PAUIChartOCX135914@@HHHH@Z DD 0ffffffffH
	DD	FLAT:__unwindfunclet$?SetStyleDataToOCX@CStyleDataManager@@SAXAAVCStyleData@@PAUIChartOCX135914@@HHHH@Z$0
	DD	00H
	DD	FLAT:__unwindfunclet$?SetStyleDataToOCX@CStyleDataManager@@SAXAAVCStyleData@@PAUIChartOCX135914@@HHHH@Z$1
	DD	00H
	DD	FLAT:___std_terminate
	DD	0ffffffffH
	DD	FLAT:___std_terminate
__ehfuncinfo$?SetStyleDataToOCX@CStyleDataManager@@SAXAAVCStyleData@@PAUIChartOCX135914@@HHHH@Z DD 019930522H
	DD	04H
	DD	FLAT:__unwindtable$?SetStyleDataToOCX@CStyleDataManager@@SAXAAVCStyleData@@PAUIChartOCX135914@@HHHH@Z
	DD	2 DUP(00H)
	DD	2 DUP(00H)
	DD	00H
	DD	01H
xdata$x	ENDS
;	COMDAT xdata$x
xdata$x	SEGMENT
__unwindtable$?RemoveAll@CStyleDataManager@@SAXXZ DD 0ffffffffH
	DD	FLAT:___std_terminate
	DD	0ffffffffH
	DD	FLAT:___std_terminate
	DD	0ffffffffH
	DD	FLAT:___std_terminate
	DD	0ffffffffH
	DD	FLAT:___std_terminate
__ehfuncinfo$?RemoveAll@CStyleDataManager@@SAXXZ DD 019930522H
	DD	04H
	DD	FLAT:__unwindtable$?RemoveAll@CStyleDataManager@@SAXXZ
	DD	2 DUP(00H)
	DD	2 DUP(00H)
	DD	00H
	DD	01H
xdata$x	ENDS
;	COMDAT xdata$x
xdata$x	SEGMENT
__ehfuncinfo$??1ILPCSTR135914@@QAE@XZ DD 019930522H
	DD	00H
	DD	00H
	DD	2 DUP(00H)
	DD	2 DUP(00H)
	DD	00H
	DD	05H
xdata$x	ENDS
;	COMDAT xdata$x
xdata$x	SEGMENT
__catchsym$??1CGdiObject@@UAE@XZ$3 DD 00H
	DD	FLAT:??_R0PAVCException@@@8
	DD	0fffffde4H
	DD	FLAT:__catch$??1CGdiObject@@UAE@XZ$0
__tryblocktable$??1CGdiObject@@UAE@XZ DD 00H
	DD	00H
	DD	02H
	DD	01H
	DD	FLAT:__catchsym$??1CGdiObject@@UAE@XZ$3
__unwindtable$??1CGdiObject@@UAE@XZ DD 0ffffffffH
	DD	00H
	DD	0ffffffffH
	DD	00H
	DD	01H
	DD	FLAT:__unwindfunclet$??1CGdiObject@@UAE@XZ$2
__ehfuncinfo$??1CGdiObject@@UAE@XZ DD 019930522H
	DD	03H
	DD	FLAT:__unwindtable$??1CGdiObject@@UAE@XZ
	DD	01H
	DD	FLAT:__tryblocktable$??1CGdiObject@@UAE@XZ
	DD	2 DUP(00H)
	DD	00H
	DD	05H
xdata$x	ENDS
CRT$XCU	SEGMENT
??m_lstStyleUser$initializer$@CStyleDataManager@@1P6AXXZA@@3P6AXXZA DD FLAT:??__E?m_lstStyleUser@CStyleDataManager@@1V?$CList@PAVCStyleData@@PAV1@@@A@@YAXXZ ; ??m_lstStyleUser$initializer$@CStyleDataManager@@1P6AXXZA@@3P6AXXZA
CRT$XCU	ENDS
; Function compile flags: /Ogtp
; File C:\Program Files (x86)\Microsoft Visual Studio\2019\Community\VC\Tools\MSVC\14.29.30133\atlmfc\include\afxtempl.h
; File C:\Program Files (x86)\Microsoft Visual Studio\2019\Community\VC\Tools\MSVC\14.29.30133\atlmfc\include\afx.inl
; File C:\Program Files (x86)\Microsoft Visual Studio\2019\Community\VC\Tools\MSVC\14.29.30133\atlmfc\include\afxtempl.h
; File C:\Program Files (x86)\Microsoft Visual Studio\2019\Community\VC\Tools\MSVC\14.29.30133\atlmfc\include\afx.inl
; File C:\Program Files (x86)\Microsoft Visual Studio\2019\Community\VC\Tools\MSVC\14.29.30133\atlmfc\include\afxtempl.h
; File C:\Program Files (x86)\Microsoft Visual Studio\2019\Community\VC\Tools\MSVC\14.29.30133\atlmfc\include\afx.inl
; File C:\Program Files (x86)\Microsoft Visual Studio\2019\Community\VC\Tools\MSVC\14.29.30133\atlmfc\include\afxtempl.h
;	COMDAT ??$SerializeElements@PAVCStyleData@@@@YGXAAVCArchive@@PAPAVCStyleData@@H@Z
_TEXT	SEGMENT
_ar$ = 8						; size = 4
_pElements$ = 12					; size = 4
_nCount$ = 16						; size = 4
??$SerializeElements@PAVCStyleData@@@@YGXAAVCArchive@@PAPAVCStyleData@@H@Z PROC ; SerializeElements<CStyleData *>, COMDAT

; 67   : {

  00000	55		 push	 ebp
  00001	8b ec		 mov	 ebp, esp

; 68   : 	ENSURE(nCount == 0 || pElements != NULL);

  00003	8b 4d 0c	 mov	 ecx, DWORD PTR _pElements$[ebp]
  00006	53		 push	 ebx
  00007	56		 push	 esi
  00008	8b 75 10	 mov	 esi, DWORD PTR _nCount$[ebp]
  0000b	57		 push	 edi
  0000c	85 f6		 test	 esi, esi
  0000e	74 08		 je	 SHORT $LN2@SerializeE
  00010	85 c9		 test	 ecx, ecx
  00012	0f 84 89 00 00
	00		 je	 $LN34@SerializeE
$LN2@SerializeE:
; File C:\Program Files (x86)\Microsoft Visual Studio\2019\Community\VC\Tools\MSVC\14.29.30133\atlmfc\include\afx.inl

; 212  : 	{ return (m_nMode & CArchive::load) == 0; }

  00018	8b 55 08	 mov	 edx, DWORD PTR _ar$[ebp]
  0001b	8b 42 18	 mov	 eax, DWORD PTR [edx+24]
  0001e	f7 d0		 not	 eax
  00020	a8 01		 test	 al, 1
; File C:\Program Files (x86)\Microsoft Visual Studio\2019\Community\VC\Tools\MSVC\14.29.30133\atlmfc\include\afxtempl.h

; 73   : 	if (ar.IsStoring())

  00022	74 3c		 je	 SHORT $LN10@SerializeE

; 74   : 	{
; 75   : 		TYPE* pData;
; 76   : 		UINT_PTR nElementsLeft;
; 77   : 
; 78   : 		nElementsLeft = nCount;
; 79   : 		pData = pElements;
; 80   : 		while( nElementsLeft > 0 )

  00024	85 f6		 test	 esi, esi
  00026	74 31		 je	 SHORT $LN8@SerializeE
  00028	0f 1f 84 00 00
	00 00 00	 npad	 8
$LL5@SerializeE:

; 81   : 		{
; 82   : 			UINT nElementsToWrite;
; 83   : 
; 84   : 			nElementsToWrite = UINT(__min(nElementsLeft, INT_MAX/sizeof(TYPE)));

  00030	bb ff ff ff 1f	 mov	 ebx, 536870911		; 1fffffffH
  00035	3b f3		 cmp	 esi, ebx
  00037	0f 42 de	 cmovb	 ebx, esi

; 85   : 			ar.Write(pData, nElementsToWrite*sizeof(TYPE));

  0003a	8d 3c 9d 00 00
	00 00		 lea	 edi, DWORD PTR [ebx*4]
  00041	57		 push	 edi
  00042	51		 push	 ecx
  00043	8b ca		 mov	 ecx, edx
  00045	e8 00 00 00 00	 call	 ?Write@CArchive@@QAEXPBXI@Z ; CArchive::Write

; 86   : 			nElementsLeft -= nElementsToWrite;
; 87   : 			pData += nElementsToWrite;

  0004a	8b 4d 0c	 mov	 ecx, DWORD PTR _pElements$[ebp]
  0004d	8b 55 08	 mov	 edx, DWORD PTR _ar$[ebp]
  00050	03 cf		 add	 ecx, edi
  00052	89 4d 0c	 mov	 DWORD PTR _pElements$[ebp], ecx
  00055	2b f3		 sub	 esi, ebx
  00057	75 d7		 jne	 SHORT $LL5@SerializeE
$LN8@SerializeE:
  00059	5f		 pop	 edi

; 105  : 		}
; 106  : 	}
; 107  : }

  0005a	5e		 pop	 esi
  0005b	5b		 pop	 ebx
  0005c	5d		 pop	 ebp
  0005d	c2 0c 00	 ret	 12			; 0000000cH
$LN10@SerializeE:

; 97   : 		while( nElementsLeft > 0 )

  00060	85 f6		 test	 esi, esi
  00062	74 f5		 je	 SHORT $LN8@SerializeE
$LL7@SerializeE:

; 98   : 		{
; 99   : 			UINT nElementsToRead;
; 100  : 
; 101  : 			nElementsToRead = UINT(__min(nElementsLeft, INT_MAX/sizeof(TYPE)));

  00064	bf ff ff ff 1f	 mov	 edi, 536870911		; 1fffffffH
  00069	3b f7		 cmp	 esi, edi
  0006b	0f 42 fe	 cmovb	 edi, esi

; 102  : 			ar.EnsureRead(pData, nElementsToRead*sizeof(TYPE));

  0006e	8d 1c bd 00 00
	00 00		 lea	 ebx, DWORD PTR [edi*4]
; File C:\Program Files (x86)\Microsoft Visual Studio\2019\Community\VC\Tools\MSVC\14.29.30133\atlmfc\include\afx.inl

; 399  : 	UINT nRead=Read(lpBuf, nCount);

  00075	53		 push	 ebx
  00076	51		 push	 ecx
  00077	8b ca		 mov	 ecx, edx
  00079	e8 00 00 00 00	 call	 ?Read@CArchive@@QAEIPAXI@Z ; CArchive::Read

; 400  : 	if(nRead!=nCount)

  0007e	3b c3		 cmp	 eax, ebx
  00080	75 16		 jne	 SHORT $LN23@SerializeE
; File C:\Program Files (x86)\Microsoft Visual Studio\2019\Community\VC\Tools\MSVC\14.29.30133\atlmfc\include\afxtempl.h

; 97   : 		while( nElementsLeft > 0 )

  00082	8b 4d 0c	 mov	 ecx, DWORD PTR _pElements$[ebp]
  00085	8b 55 08	 mov	 edx, DWORD PTR _ar$[ebp]

; 103  : 			nElementsLeft -= nElementsToRead;
; 104  : 			pData += nElementsToRead;

  00088	03 cb		 add	 ecx, ebx
  0008a	89 4d 0c	 mov	 DWORD PTR _pElements$[ebp], ecx
  0008d	2b f7		 sub	 esi, edi
  0008f	75 d3		 jne	 SHORT $LL7@SerializeE

; 105  : 		}
; 106  : 	}
; 107  : }

  00091	5f		 pop	 edi
  00092	5e		 pop	 esi
  00093	5b		 pop	 ebx
  00094	5d		 pop	 ebp
  00095	c2 0c 00	 ret	 12			; 0000000cH
$LN23@SerializeE:
; File C:\Program Files (x86)\Microsoft Visual Studio\2019\Community\VC\Tools\MSVC\14.29.30133\atlmfc\include\afx.inl

; 402  : 		AfxThrowArchiveException(CArchiveException::endOfFile);

  00098	6a 00		 push	 0
  0009a	6a 03		 push	 3
  0009c	e8 00 00 00 00	 call	 ?AfxThrowArchiveException@@YGXHPBD@Z ; AfxThrowArchiveException
$LN34@SerializeE:
; File C:\Program Files (x86)\Microsoft Visual Studio\2019\Community\VC\Tools\MSVC\14.29.30133\atlmfc\include\afxtempl.h

; 68   : 	ENSURE(nCount == 0 || pElements != NULL);

  000a1	e8 00 00 00 00	 call	 ?AfxThrowInvalidArgException@@YGXXZ ; AfxThrowInvalidArgException
$LN32@SerializeE:
  000a6	cc		 int	 3
??$SerializeElements@PAVCStyleData@@@@YGXAAVCArchive@@PAPAVCStyleData@@H@Z ENDP ; SerializeElements<CStyleData *>
_TEXT	ENDS
; Function compile flags: /Ogtp
; File C:\Program Files (x86)\Microsoft Visual Studio\2019\Community\VC\Tools\MSVC\14.29.30133\atlmfc\include\afxtempl.h
;	COMDAT ??__F?m_lstStyleUser@CStyleDataManager@@1V?$CList@PAVCStyleData@@PAV1@@@A@@YAXXZ
text$yd	SEGMENT
__$EHRec$ = -12						; size = 12
??__F?m_lstStyleUser@CStyleDataManager@@1V?$CList@PAVCStyleData@@PAV1@@@A@@YAXXZ PROC ; `dynamic atexit destructor for 'CStyleDataManager::m_lstStyleUser'', COMDAT
  00000	55		 push	 ebp
  00001	8b ec		 mov	 ebp, esp
  00003	6a ff		 push	 -1
  00005	68 00 00 00 00	 push	 __ehhandler$??__F?m_lstStyleUser@CStyleDataManager@@1V?$CList@PAVCStyleData@@PAV1@@@A@@YAXXZ
  0000a	64 a1 00 00 00
	00		 mov	 eax, DWORD PTR fs:0
  00010	50		 push	 eax
  00011	a1 00 00 00 00	 mov	 eax, DWORD PTR ___security_cookie
  00016	33 c5		 xor	 eax, ebp
  00018	50		 push	 eax
  00019	8d 45 f4	 lea	 eax, DWORD PTR __$EHRec$[ebp]
  0001c	64 a3 00 00 00
	00		 mov	 DWORD PTR fs:0, eax

; 872  : 	m_pBlocks->FreeDataChain();

  00022	8b 0d 14 00 00
	00		 mov	 ecx, DWORD PTR ?m_lstStyleUser@CStyleDataManager@@1V?$CList@PAVCStyleData@@PAV1@@@A+20

; 878  : {

  00028	c7 45 fc 00 00
	00 00		 mov	 DWORD PTR __$EHRec$[ebp+8], 0
  0002f	c7 05 00 00 00
	00 00 00 00 00	 mov	 DWORD PTR ?m_lstStyleUser@CStyleDataManager@@1V?$CList@PAVCStyleData@@PAV1@@@A, OFFSET ??_7?$CList@PAVCStyleData@@PAV1@@@6B@

; 870  : 	m_nCount = 0;

  00039	c7 05 0c 00 00
	00 00 00 00 00	 mov	 DWORD PTR ?m_lstStyleUser@CStyleDataManager@@1V?$CList@PAVCStyleData@@PAV1@@@A+12, 0

; 871  : 	m_pNodeHead = m_pNodeTail = m_pNodeFree = NULL;

  00043	c7 05 10 00 00
	00 00 00 00 00	 mov	 DWORD PTR ?m_lstStyleUser@CStyleDataManager@@1V?$CList@PAVCStyleData@@PAV1@@@A+16, 0
  0004d	c7 05 08 00 00
	00 00 00 00 00	 mov	 DWORD PTR ?m_lstStyleUser@CStyleDataManager@@1V?$CList@PAVCStyleData@@PAV1@@@A+8, 0
  00057	c7 05 04 00 00
	00 00 00 00 00	 mov	 DWORD PTR ?m_lstStyleUser@CStyleDataManager@@1V?$CList@PAVCStyleData@@PAV1@@@A+4, 0

; 872  : 	m_pBlocks->FreeDataChain();

  00061	e8 00 00 00 00	 call	 ?FreeDataChain@CPlex@@QAEXXZ ; CPlex::FreeDataChain

; 873  : 	m_pBlocks = NULL;

  00066	c7 05 14 00 00
	00 00 00 00 00	 mov	 DWORD PTR ?m_lstStyleUser@CStyleDataManager@@1V?$CList@PAVCStyleData@@PAV1@@@A+20, 0
  00070	8b 4d f4	 mov	 ecx, DWORD PTR __$EHRec$[ebp]
  00073	64 89 0d 00 00
	00 00		 mov	 DWORD PTR fs:0, ecx
  0007a	59		 pop	 ecx
  0007b	8b e5		 mov	 esp, ebp
  0007d	5d		 pop	 ebp
  0007e	c3		 ret	 0
  0007f	cc		 int	 3
  00080	cc		 int	 3
  00081	cc		 int	 3
  00082	cc		 int	 3
  00083	cc		 int	 3
text$yd	ENDS
;	COMDAT text$x
text$x	SEGMENT
__ehhandler$??__F?m_lstStyleUser@CStyleDataManager@@1V?$CList@PAVCStyleData@@PAV1@@@A@@YAXXZ:
  00000	90		 npad	 1
  00001	90		 npad	 1
  00002	8b 54 24 08	 mov	 edx, DWORD PTR [esp+8]
  00006	8d 42 0c	 lea	 eax, DWORD PTR [edx+12]
  00009	8b 4a fc	 mov	 ecx, DWORD PTR [edx-4]
  0000c	33 c8		 xor	 ecx, eax
  0000e	e8 00 00 00 00	 call	 @__security_check_cookie@4
  00013	b8 00 00 00 00	 mov	 eax, OFFSET __ehfuncinfo$??__F?m_lstStyleUser@CStyleDataManager@@1V?$CList@PAVCStyleData@@PAV1@@@A@@YAXXZ
  00018	e9 00 00 00 00	 jmp	 ___CxxFrameHandler3
text$x	ENDS
??__F?m_lstStyleUser@CStyleDataManager@@1V?$CList@PAVCStyleData@@PAV1@@@A@@YAXXZ ENDP ; `dynamic atexit destructor for 'CStyleDataManager::m_lstStyleUser''
; Function compile flags: /Ogtp
; File D:\git\src\IBK\IBK_DRFN\ProjSrc\SrcChartEx\ChartAddIn\ChartEnvSetupDlgAddIn\ChartEnvSetupDlgAddIn\StyleDataManager.cpp
;	COMDAT ??__E?m_lstStyleUser@CStyleDataManager@@1V?$CList@PAVCStyleData@@PAV1@@@A@@YAXXZ
text$di	SEGMENT
??__E?m_lstStyleUser@CStyleDataManager@@1V?$CList@PAVCStyleData@@PAV1@@@A@@YAXXZ PROC ; `dynamic initializer for 'CStyleDataManager::m_lstStyleUser'', COMDAT

; 38   : CList<CStyleData*, CStyleData*> CStyleDataManager::m_lstStyleUser;

  00000	68 00 00 00 00	 push	 OFFSET ??__F?m_lstStyleUser@CStyleDataManager@@1V?$CList@PAVCStyleData@@PAV1@@@A@@YAXXZ ; `dynamic atexit destructor for 'CStyleDataManager::m_lstStyleUser''
  00005	e8 00 00 00 00	 call	 _atexit
  0000a	59		 pop	 ecx
  0000b	c3		 ret	 0
??__E?m_lstStyleUser@CStyleDataManager@@1V?$CList@PAVCStyleData@@PAV1@@@A@@YAXXZ ENDP ; `dynamic initializer for 'CStyleDataManager::m_lstStyleUser''
text$di	ENDS
; Function compile flags: /Ogtp
; File C:\Program Files (x86)\Microsoft Visual Studio\2019\Community\VC\Tools\MSVC\14.29.30133\atlmfc\include\afxtempl.h
;	COMDAT ??__F?m_lstStyleDefault@CStyleDataManager@@1V?$CList@PAVCStyleData@@PAV1@@@A@@YAXXZ
text$yd	SEGMENT
__$EHRec$ = -12						; size = 12
??__F?m_lstStyleDefault@CStyleDataManager@@1V?$CList@PAVCStyleData@@PAV1@@@A@@YAXXZ PROC ; `dynamic atexit destructor for 'CStyleDataManager::m_lstStyleDefault'', COMDAT
  00000	55		 push	 ebp
  00001	8b ec		 mov	 ebp, esp
  00003	6a ff		 push	 -1
  00005	68 00 00 00 00	 push	 __ehhandler$??__F?m_lstStyleDefault@CStyleDataManager@@1V?$CList@PAVCStyleData@@PAV1@@@A@@YAXXZ
  0000a	64 a1 00 00 00
	00		 mov	 eax, DWORD PTR fs:0
  00010	50		 push	 eax
  00011	a1 00 00 00 00	 mov	 eax, DWORD PTR ___security_cookie
  00016	33 c5		 xor	 eax, ebp
  00018	50		 push	 eax
  00019	8d 45 f4	 lea	 eax, DWORD PTR __$EHRec$[ebp]
  0001c	64 a3 00 00 00
	00		 mov	 DWORD PTR fs:0, eax

; 872  : 	m_pBlocks->FreeDataChain();

  00022	8b 0d 14 00 00
	00		 mov	 ecx, DWORD PTR ?m_lstStyleDefault@CStyleDataManager@@1V?$CList@PAVCStyleData@@PAV1@@@A+20

; 878  : {

  00028	c7 45 fc 00 00
	00 00		 mov	 DWORD PTR __$EHRec$[ebp+8], 0
  0002f	c7 05 00 00 00
	00 00 00 00 00	 mov	 DWORD PTR ?m_lstStyleDefault@CStyleDataManager@@1V?$CList@PAVCStyleData@@PAV1@@@A, OFFSET ??_7?$CList@PAVCStyleData@@PAV1@@@6B@

; 870  : 	m_nCount = 0;

  00039	c7 05 0c 00 00
	00 00 00 00 00	 mov	 DWORD PTR ?m_lstStyleDefault@CStyleDataManager@@1V?$CList@PAVCStyleData@@PAV1@@@A+12, 0

; 871  : 	m_pNodeHead = m_pNodeTail = m_pNodeFree = NULL;

  00043	c7 05 10 00 00
	00 00 00 00 00	 mov	 DWORD PTR ?m_lstStyleDefault@CStyleDataManager@@1V?$CList@PAVCStyleData@@PAV1@@@A+16, 0
  0004d	c7 05 08 00 00
	00 00 00 00 00	 mov	 DWORD PTR ?m_lstStyleDefault@CStyleDataManager@@1V?$CList@PAVCStyleData@@PAV1@@@A+8, 0
  00057	c7 05 04 00 00
	00 00 00 00 00	 mov	 DWORD PTR ?m_lstStyleDefault@CStyleDataManager@@1V?$CList@PAVCStyleData@@PAV1@@@A+4, 0

; 872  : 	m_pBlocks->FreeDataChain();

  00061	e8 00 00 00 00	 call	 ?FreeDataChain@CPlex@@QAEXXZ ; CPlex::FreeDataChain

; 873  : 	m_pBlocks = NULL;

  00066	c7 05 14 00 00
	00 00 00 00 00	 mov	 DWORD PTR ?m_lstStyleDefault@CStyleDataManager@@1V?$CList@PAVCStyleData@@PAV1@@@A+20, 0
  00070	8b 4d f4	 mov	 ecx, DWORD PTR __$EHRec$[ebp]
  00073	64 89 0d 00 00
	00 00		 mov	 DWORD PTR fs:0, ecx
  0007a	59		 pop	 ecx
  0007b	8b e5		 mov	 esp, ebp
  0007d	5d		 pop	 ebp
  0007e	c3		 ret	 0
  0007f	cc		 int	 3
  00080	cc		 int	 3
  00081	cc		 int	 3
  00082	cc		 int	 3
  00083	cc		 int	 3
text$yd	ENDS
;	COMDAT text$x
text$x	SEGMENT
__ehhandler$??__F?m_lstStyleDefault@CStyleDataManager@@1V?$CList@PAVCStyleData@@PAV1@@@A@@YAXXZ:
  00000	90		 npad	 1
  00001	90		 npad	 1
  00002	8b 54 24 08	 mov	 edx, DWORD PTR [esp+8]
  00006	8d 42 0c	 lea	 eax, DWORD PTR [edx+12]
  00009	8b 4a fc	 mov	 ecx, DWORD PTR [edx-4]
  0000c	33 c8		 xor	 ecx, eax
  0000e	e8 00 00 00 00	 call	 @__security_check_cookie@4
  00013	b8 00 00 00 00	 mov	 eax, OFFSET __ehfuncinfo$??__F?m_lstStyleDefault@CStyleDataManager@@1V?$CList@PAVCStyleData@@PAV1@@@A@@YAXXZ
  00018	e9 00 00 00 00	 jmp	 ___CxxFrameHandler3
text$x	ENDS
??__F?m_lstStyleDefault@CStyleDataManager@@1V?$CList@PAVCStyleData@@PAV1@@@A@@YAXXZ ENDP ; `dynamic atexit destructor for 'CStyleDataManager::m_lstStyleDefault''
; Function compile flags: /Ogtp
; File D:\git\src\IBK\IBK_DRFN\ProjSrc\SrcChartEx\ChartAddIn\ChartEnvSetupDlgAddIn\ChartEnvSetupDlgAddIn\StyleDataManager.cpp
;	COMDAT ??__E?m_lstStyleDefault@CStyleDataManager@@1V?$CList@PAVCStyleData@@PAV1@@@A@@YAXXZ
text$di	SEGMENT
??__E?m_lstStyleDefault@CStyleDataManager@@1V?$CList@PAVCStyleData@@PAV1@@@A@@YAXXZ PROC ; `dynamic initializer for 'CStyleDataManager::m_lstStyleDefault'', COMDAT

; 37   : CList<CStyleData*, CStyleData*> CStyleDataManager::m_lstStyleDefault;

  00000	68 00 00 00 00	 push	 OFFSET ??__F?m_lstStyleDefault@CStyleDataManager@@1V?$CList@PAVCStyleData@@PAV1@@@A@@YAXXZ ; `dynamic atexit destructor for 'CStyleDataManager::m_lstStyleDefault''
  00005	e8 00 00 00 00	 call	 _atexit
  0000a	59		 pop	 ecx
  0000b	c3		 ret	 0
??__E?m_lstStyleDefault@CStyleDataManager@@1V?$CList@PAVCStyleData@@PAV1@@@A@@YAXXZ ENDP ; `dynamic initializer for 'CStyleDataManager::m_lstStyleDefault''
text$di	ENDS
; Function compile flags: /Ogtp
; File C:\Program Files (x86)\Microsoft Visual Studio\2019\Community\VC\Tools\MSVC\14.29.30133\atlmfc\include\afxtempl.h
; File C:\Program Files (x86)\Microsoft Visual Studio\2019\Community\VC\Tools\MSVC\14.29.30133\atlmfc\include\afx.inl
;	COMDAT ??_G?$CList@PAVCStyleData@@PAV1@@@UAEPAXI@Z
_TEXT	SEGMENT
__$EHRec$ = -12						; size = 12
___flags$ = 8						; size = 4
??_G?$CList@PAVCStyleData@@PAV1@@@UAEPAXI@Z PROC	; CList<CStyleData *,CStyleData *>::`scalar deleting destructor', COMDAT
; _this$ = ecx
  00000	55		 push	 ebp
  00001	8b ec		 mov	 ebp, esp
  00003	6a ff		 push	 -1
  00005	68 00 00 00 00	 push	 __ehhandler$??_G?$CList@PAVCStyleData@@PAV1@@@UAEPAXI@Z
  0000a	64 a1 00 00 00
	00		 mov	 eax, DWORD PTR fs:0
  00010	50		 push	 eax
  00011	56		 push	 esi
  00012	a1 00 00 00 00	 mov	 eax, DWORD PTR ___security_cookie
  00017	33 c5		 xor	 eax, ebp
  00019	50		 push	 eax
  0001a	8d 45 f4	 lea	 eax, DWORD PTR __$EHRec$[ebp]
  0001d	64 a3 00 00 00
	00		 mov	 DWORD PTR fs:0, eax
  00023	8b f1		 mov	 esi, ecx
; File C:\Program Files (x86)\Microsoft Visual Studio\2019\Community\VC\Tools\MSVC\14.29.30133\atlmfc\include\afxtempl.h

; 872  : 	m_pBlocks->FreeDataChain();

  00025	8b 4e 14	 mov	 ecx, DWORD PTR [esi+20]

; 878  : {

  00028	c7 45 fc 00 00
	00 00		 mov	 DWORD PTR __$EHRec$[ebp+8], 0
  0002f	c7 06 00 00 00
	00		 mov	 DWORD PTR [esi], OFFSET ??_7?$CList@PAVCStyleData@@PAV1@@@6B@

; 870  : 	m_nCount = 0;

  00035	c7 46 0c 00 00
	00 00		 mov	 DWORD PTR [esi+12], 0

; 871  : 	m_pNodeHead = m_pNodeTail = m_pNodeFree = NULL;

  0003c	c7 46 10 00 00
	00 00		 mov	 DWORD PTR [esi+16], 0
  00043	c7 46 08 00 00
	00 00		 mov	 DWORD PTR [esi+8], 0
  0004a	c7 46 04 00 00
	00 00		 mov	 DWORD PTR [esi+4], 0

; 872  : 	m_pBlocks->FreeDataChain();

  00051	e8 00 00 00 00	 call	 ?FreeDataChain@CPlex@@QAEXXZ ; CPlex::FreeDataChain

; 873  : 	m_pBlocks = NULL;

  00056	8b 45 08	 mov	 eax, DWORD PTR ___flags$[ebp]
  00059	c7 46 14 00 00
	00 00		 mov	 DWORD PTR [esi+20], 0
  00060	a8 01		 test	 al, 1
  00062	74 2c		 je	 SHORT $LN22@scalar
  00064	a8 04		 test	 al, 4
  00066	75 1d		 jne	 SHORT $LN3@scalar
; File C:\Program Files (x86)\Microsoft Visual Studio\2019\Community\VC\Tools\MSVC\14.29.30133\atlmfc\include\afx.inl

; 112  : 	{ ::operator delete(p); }

  00068	56		 push	 esi
  00069	e8 00 00 00 00	 call	 ??3@YAXPAX@Z		; operator delete
  0006e	83 c4 04	 add	 esp, 4
  00071	8b c6		 mov	 eax, esi
  00073	8b 4d f4	 mov	 ecx, DWORD PTR __$EHRec$[ebp]
  00076	64 89 0d 00 00
	00 00		 mov	 DWORD PTR fs:0, ecx
  0007d	59		 pop	 ecx
  0007e	5e		 pop	 esi
  0007f	8b e5		 mov	 esp, ebp
  00081	5d		 pop	 ebp
  00082	c2 04 00	 ret	 4
$LN3@scalar:
  00085	6a 1c		 push	 28			; 0000001cH
  00087	56		 push	 esi
  00088	e8 00 00 00 00	 call	 ?__global_delete@@YAXPAXI@Z ; __global_delete
  0008d	83 c4 08	 add	 esp, 8
$LN22@scalar:
  00090	8b c6		 mov	 eax, esi
  00092	8b 4d f4	 mov	 ecx, DWORD PTR __$EHRec$[ebp]
  00095	64 89 0d 00 00
	00 00		 mov	 DWORD PTR fs:0, ecx
  0009c	59		 pop	 ecx
  0009d	5e		 pop	 esi
  0009e	8b e5		 mov	 esp, ebp
  000a0	5d		 pop	 ebp
  000a1	c2 04 00	 ret	 4
  000a4	cc		 int	 3
  000a5	cc		 int	 3
  000a6	cc		 int	 3
  000a7	cc		 int	 3
  000a8	cc		 int	 3
_TEXT	ENDS
;	COMDAT text$x
text$x	SEGMENT
__ehhandler$??_G?$CList@PAVCStyleData@@PAV1@@@UAEPAXI@Z:
  00000	90		 npad	 1
  00001	90		 npad	 1
  00002	8b 54 24 08	 mov	 edx, DWORD PTR [esp+8]
  00006	8d 42 0c	 lea	 eax, DWORD PTR [edx+12]
  00009	8b 4a f8	 mov	 ecx, DWORD PTR [edx-8]
  0000c	33 c8		 xor	 ecx, eax
  0000e	e8 00 00 00 00	 call	 @__security_check_cookie@4
  00013	b8 00 00 00 00	 mov	 eax, OFFSET __ehfuncinfo$??_G?$CList@PAVCStyleData@@PAV1@@@UAEPAXI@Z
  00018	e9 00 00 00 00	 jmp	 ___CxxFrameHandler3
text$x	ENDS
??_G?$CList@PAVCStyleData@@PAV1@@@UAEPAXI@Z ENDP	; CList<CStyleData *,CStyleData *>::`scalar deleting destructor'
; Function compile flags: /Ogtp
; File C:\Program Files (x86)\Microsoft Visual Studio\2019\Community\VC\Tools\MSVC\14.29.30133\atlmfc\include\afxtempl.h
; File C:\Program Files (x86)\Microsoft Visual Studio\2019\Community\VC\Tools\MSVC\14.29.30133\atlmfc\include\afx.inl
; File C:\Program Files (x86)\Microsoft Visual Studio\2019\Community\VC\Tools\MSVC\14.29.30133\atlmfc\include\afxtempl.h
; File C:\Program Files (x86)\Microsoft Visual Studio\2019\Community\VC\Tools\MSVC\14.29.30133\atlmfc\include\afx.inl
; File C:\Program Files (x86)\Microsoft Visual Studio\2019\Community\VC\Tools\MSVC\14.29.30133\atlmfc\include\afxtempl.h
; File C:\Program Files (x86)\Microsoft Visual Studio\2019\Community\VC\Tools\MSVC\14.29.30133\atlmfc\include\afx.inl
; File C:\Program Files (x86)\Microsoft Visual Studio\2019\Community\VC\Tools\MSVC\14.29.30133\atlmfc\include\afxtempl.h
; File C:\Program Files (x86)\Microsoft Visual Studio\2019\Community\VC\Tools\MSVC\14.29.30133\atlmfc\include\afx.inl
; File C:\Program Files (x86)\Microsoft Visual Studio\2019\Community\VC\Tools\MSVC\14.29.30133\atlmfc\include\afxtempl.h
; File C:\Program Files (x86)\Microsoft Visual Studio\2019\Community\VC\Tools\MSVC\14.29.30133\atlmfc\include\afx.inl
; File C:\Program Files (x86)\Microsoft Visual Studio\2019\Community\VC\Tools\MSVC\14.29.30133\atlmfc\include\afxtempl.h
; File C:\Program Files (x86)\Microsoft Visual Studio\2019\Community\VC\Tools\MSVC\14.29.30133\atlmfc\include\afx.inl
; File C:\Program Files (x86)\Microsoft Visual Studio\2019\Community\VC\Tools\MSVC\14.29.30133\atlmfc\include\afxtempl.h
;	COMDAT ?Serialize@?$CList@PAVCStyleData@@PAV1@@@UAEXAAVCArchive@@@Z
_TEXT	SEGMENT
_nNewCount$1$ = -16					; size = 4
_newData$1 = -12					; size = 4
_pData$1$ = -8						; size = 4
_pNode$1$ = -8						; size = 4
_nElementsLeft$1$ = -4					; size = 4
_this$1$ = -4						; size = 4
_ar$ = 8						; size = 4
?Serialize@?$CList@PAVCStyleData@@PAV1@@@UAEXAAVCArchive@@@Z PROC ; CList<CStyleData *,CStyleData *>::Serialize, COMDAT
; _this$ = ecx

; 1169 : {

  00000	55		 push	 ebp
  00001	8b ec		 mov	 ebp, esp
  00003	83 ec 10	 sub	 esp, 16			; 00000010H
  00006	53		 push	 ebx
  00007	8b d9		 mov	 ebx, ecx
; File C:\Program Files (x86)\Microsoft Visual Studio\2019\Community\VC\Tools\MSVC\14.29.30133\atlmfc\include\afx.inl

; 212  : 	{ return (m_nMode & CArchive::load) == 0; }

  00009	8b 4d 08	 mov	 ecx, DWORD PTR _ar$[ebp]
; File C:\Program Files (x86)\Microsoft Visual Studio\2019\Community\VC\Tools\MSVC\14.29.30133\atlmfc\include\afxtempl.h

; 1169 : {

  0000c	56		 push	 esi
  0000d	57		 push	 edi
  0000e	89 5d fc	 mov	 DWORD PTR _this$1$[ebp], ebx
; File C:\Program Files (x86)\Microsoft Visual Studio\2019\Community\VC\Tools\MSVC\14.29.30133\atlmfc\include\afx.inl

; 212  : 	{ return (m_nMode & CArchive::load) == 0; }

  00011	8b 41 18	 mov	 eax, DWORD PTR [ecx+24]
  00014	f7 d0		 not	 eax
  00016	a8 01		 test	 al, 1
; File C:\Program Files (x86)\Microsoft Visual Studio\2019\Community\VC\Tools\MSVC\14.29.30133\atlmfc\include\afxtempl.h

; 1174 : 	if (ar.IsStoring())

  00018	0f 84 ae 00 00
	00		 je	 $LN7@Serialize

; 1175 : 	{
; 1176 : 		ar.WriteCount(m_nCount);

  0001e	ff 73 0c	 push	 DWORD PTR [ebx+12]
  00021	e8 00 00 00 00	 call	 ?WriteCount@CArchive@@QAEXK@Z ; CArchive::WriteCount

; 1177 : 		for (CNode* pNode = m_pNodeHead; pNode != NULL; pNode = pNode->pNext)

  00026	8b 43 04	 mov	 eax, DWORD PTR [ebx+4]
  00029	89 45 f8	 mov	 DWORD PTR _pNode$1$[ebp], eax
  0002c	85 c0		 test	 eax, eax
  0002e	0f 84 43 01 00
	00		 je	 $LN68@Serialize
$LL4@Serialize:

; 1178 : 		{
; 1179 : 			ASSERT(AfxIsValidAddress(pNode, sizeof(CNode)));
; 1180 : 			TYPE* pData;
; 1181 : 			/*
; 1182 : 			 * in some cases the & operator might be overloaded, and we cannot use it to obtain
; 1183 : 			 * the address of a given object.  We then use the following trick to get the address
; 1184 : 			 */
; 1185 : 			pData = reinterpret_cast< TYPE* >( &reinterpret_cast< int& >( static_cast< TYPE& >( pNode->data ) ) );

  00034	8d 70 08	 lea	 esi, DWORD PTR [eax+8]

; 68   : 	ENSURE(nCount == 0 || pElements != NULL);

  00037	85 f6		 test	 esi, esi
  00039	0f 84 4a 01 00
	00		 je	 $LN60@Serialize
; File C:\Program Files (x86)\Microsoft Visual Studio\2019\Community\VC\Tools\MSVC\14.29.30133\atlmfc\include\afx.inl

; 212  : 	{ return (m_nMode & CArchive::load) == 0; }

  0003f	8b 4d 08	 mov	 ecx, DWORD PTR _ar$[ebp]
  00042	8b 41 18	 mov	 eax, DWORD PTR [ecx+24]
  00045	f7 d0		 not	 eax
  00047	a8 01		 test	 al, 1
; File C:\Program Files (x86)\Microsoft Visual Studio\2019\Community\VC\Tools\MSVC\14.29.30133\atlmfc\include\afxtempl.h

; 73   : 	if (ar.IsStoring())

  00049	74 33		 je	 SHORT $LN21@Serialize

; 74   : 	{
; 75   : 		TYPE* pData;
; 76   : 		UINT_PTR nElementsLeft;
; 77   : 
; 78   : 		nElementsLeft = nCount;

  0004b	b8 01 00 00 00	 mov	 eax, 1
  00050	89 45 fc	 mov	 DWORD PTR _nElementsLeft$1$[ebp], eax
$LL16@Serialize:

; 80   : 		while( nElementsLeft > 0 )
; 81   : 		{
; 82   : 			UINT nElementsToWrite;
; 83   : 
; 84   : 			nElementsToWrite = UINT(__min(nElementsLeft, INT_MAX/sizeof(TYPE)));

  00053	bb ff ff ff 1f	 mov	 ebx, 536870911		; 1fffffffH
  00058	3b c3		 cmp	 eax, ebx
  0005a	0f 42 d8	 cmovb	 ebx, eax

; 85   : 			ar.Write(pData, nElementsToWrite*sizeof(TYPE));

  0005d	8d 3c 9d 00 00
	00 00		 lea	 edi, DWORD PTR [ebx*4]
  00064	57		 push	 edi
  00065	56		 push	 esi
  00066	e8 00 00 00 00	 call	 ?Write@CArchive@@QAEXPBXI@Z ; CArchive::Write

; 86   : 			nElementsLeft -= nElementsToWrite;

  0006b	8b 45 fc	 mov	 eax, DWORD PTR _nElementsLeft$1$[ebp]

; 87   : 			pData += nElementsToWrite;

  0006e	03 f7		 add	 esi, edi
  00070	8b 4d 08	 mov	 ecx, DWORD PTR _ar$[ebp]
  00073	2b c3		 sub	 eax, ebx
  00075	89 45 fc	 mov	 DWORD PTR _nElementsLeft$1$[ebp], eax
  00078	85 c0		 test	 eax, eax
  0007a	75 d7		 jne	 SHORT $LL16@Serialize

; 88   : 		}
; 89   : 	}

  0007c	eb 35		 jmp	 SHORT $LN2@Serialize
$LN21@Serialize:

; 90   : 	else
; 91   : 	{
; 92   : 		TYPE* pData;
; 93   : 		UINT_PTR nElementsLeft;
; 94   : 
; 95   : 		nElementsLeft = nCount;

  0007e	bf 01 00 00 00	 mov	 edi, 1
$LL18@Serialize:

; 98   : 		{
; 99   : 			UINT nElementsToRead;
; 100  : 
; 101  : 			nElementsToRead = UINT(__min(nElementsLeft, INT_MAX/sizeof(TYPE)));

  00083	bb ff ff ff 1f	 mov	 ebx, 536870911		; 1fffffffH
  00088	3b fb		 cmp	 edi, ebx
  0008a	0f 42 df	 cmovb	 ebx, edi

; 102  : 			ar.EnsureRead(pData, nElementsToRead*sizeof(TYPE));

  0008d	8d 04 9d 00 00
	00 00		 lea	 eax, DWORD PTR [ebx*4]
; File C:\Program Files (x86)\Microsoft Visual Studio\2019\Community\VC\Tools\MSVC\14.29.30133\atlmfc\include\afx.inl

; 399  : 	UINT nRead=Read(lpBuf, nCount);

  00094	50		 push	 eax
  00095	56		 push	 esi
  00096	e8 00 00 00 00	 call	 ?Read@CArchive@@QAEIPAXI@Z ; CArchive::Read

; 400  : 	if(nRead!=nCount)

  0009b	8d 0c 9d 00 00
	00 00		 lea	 ecx, DWORD PTR [ebx*4]
  000a2	3b c1		 cmp	 eax, ecx
  000a4	0f 85 d6 00 00
	00		 jne	 $LN59@Serialize
; File C:\Program Files (x86)\Microsoft Visual Studio\2019\Community\VC\Tools\MSVC\14.29.30133\atlmfc\include\afxtempl.h

; 97   : 		while( nElementsLeft > 0 )

  000aa	03 f1		 add	 esi, ecx
  000ac	8b 4d 08	 mov	 ecx, DWORD PTR _ar$[ebp]

; 103  : 			nElementsLeft -= nElementsToRead;

  000af	2b fb		 sub	 edi, ebx
  000b1	75 d0		 jne	 SHORT $LL18@Serialize
$LN2@Serialize:

; 1177 : 		for (CNode* pNode = m_pNodeHead; pNode != NULL; pNode = pNode->pNext)

  000b3	8b 45 f8	 mov	 eax, DWORD PTR _pNode$1$[ebp]
  000b6	8b 00		 mov	 eax, DWORD PTR [eax]
  000b8	89 45 f8	 mov	 DWORD PTR _pNode$1$[ebp], eax
  000bb	85 c0		 test	 eax, eax
  000bd	0f 85 71 ff ff
	ff		 jne	 $LL4@Serialize

; 1197 : 		}
; 1198 : 	}
; 1199 : }

  000c3	5f		 pop	 edi
  000c4	5e		 pop	 esi
  000c5	5b		 pop	 ebx
  000c6	8b e5		 mov	 esp, ebp
  000c8	5d		 pop	 ebp
  000c9	c2 04 00	 ret	 4
$LN7@Serialize:

; 1186 : 			SerializeElements<TYPE>(ar, pData, 1);
; 1187 : 		}
; 1188 : 	}
; 1189 : 	else
; 1190 : 	{
; 1191 : 		DWORD_PTR nNewCount = ar.ReadCount();

  000cc	e8 00 00 00 00	 call	 ?ReadCount@CArchive@@QAEKXZ ; CArchive::ReadCount

; 1192 : 		while (nNewCount--)

  000d1	85 c0		 test	 eax, eax
  000d3	0f 84 9e 00 00
	00		 je	 $LN68@Serialize
  000d9	0f 1f 80 00 00
	00 00		 npad	 7
$LL5@Serialize:
  000e0	48		 dec	 eax
  000e1	89 45 f0	 mov	 DWORD PTR _nNewCount$1$[ebp], eax
; File C:\Program Files (x86)\Microsoft Visual Studio\2019\Community\VC\Tools\MSVC\14.29.30133\atlmfc\include\afx.inl

; 212  : 	{ return (m_nMode & CArchive::load) == 0; }

  000e4	8b 45 08	 mov	 eax, DWORD PTR _ar$[ebp]
  000e7	8b 48 18	 mov	 ecx, DWORD PTR [eax+24]
  000ea	f7 d1		 not	 ecx
  000ec	f6 c1 01	 test	 cl, 1
; File C:\Program Files (x86)\Microsoft Visual Studio\2019\Community\VC\Tools\MSVC\14.29.30133\atlmfc\include\afxtempl.h

; 73   : 	if (ar.IsStoring())

  000ef	74 3a		 je	 SHORT $LN42@Serialize

; 79   : 		pData = pElements;

  000f1	8d 4d f4	 lea	 ecx, DWORD PTR _newData$1[ebp]
  000f4	bb 01 00 00 00	 mov	 ebx, 1
  000f9	89 4d f8	 mov	 DWORD PTR _pData$1$[ebp], ecx
  000fc	0f 1f 40 00	 npad	 4
$LL37@Serialize:

; 80   : 		while( nElementsLeft > 0 )
; 81   : 		{
; 82   : 			UINT nElementsToWrite;
; 83   : 
; 84   : 			nElementsToWrite = UINT(__min(nElementsLeft, INT_MAX/sizeof(TYPE)));

  00100	bf ff ff ff 1f	 mov	 edi, 536870911		; 1fffffffH
  00105	3b df		 cmp	 ebx, edi
  00107	0f 42 fb	 cmovb	 edi, ebx

; 85   : 			ar.Write(pData, nElementsToWrite*sizeof(TYPE));

  0010a	8d 34 bd 00 00
	00 00		 lea	 esi, DWORD PTR [edi*4]
  00111	56		 push	 esi
  00112	51		 push	 ecx
  00113	8b c8		 mov	 ecx, eax
  00115	e8 00 00 00 00	 call	 ?Write@CArchive@@QAEXPBXI@Z ; CArchive::Write

; 87   : 			pData += nElementsToWrite;

  0011a	8b 4d f8	 mov	 ecx, DWORD PTR _pData$1$[ebp]
  0011d	8b 45 08	 mov	 eax, DWORD PTR _ar$[ebp]
  00120	03 ce		 add	 ecx, esi
  00122	89 4d f8	 mov	 DWORD PTR _pData$1$[ebp], ecx
  00125	2b df		 sub	 ebx, edi
  00127	75 d7		 jne	 SHORT $LL37@Serialize

; 88   : 		}
; 89   : 	}

  00129	eb 36		 jmp	 SHORT $LN40@Serialize
$LN42@Serialize:

; 90   : 	else
; 91   : 	{
; 92   : 		TYPE* pData;
; 93   : 		UINT_PTR nElementsLeft;
; 94   : 
; 95   : 		nElementsLeft = nCount;

  0012b	be 01 00 00 00	 mov	 esi, 1

; 96   : 		pData = pElements;

  00130	8d 5d f4	 lea	 ebx, DWORD PTR _newData$1[ebp]
$LL39@Serialize:

; 98   : 		{
; 99   : 			UINT nElementsToRead;
; 100  : 
; 101  : 			nElementsToRead = UINT(__min(nElementsLeft, INT_MAX/sizeof(TYPE)));

  00133	bf ff ff ff 1f	 mov	 edi, 536870911		; 1fffffffH
  00138	3b f7		 cmp	 esi, edi
  0013a	0f 42 fe	 cmovb	 edi, esi

; 102  : 			ar.EnsureRead(pData, nElementsToRead*sizeof(TYPE));

  0013d	8d 0c bd 00 00
	00 00		 lea	 ecx, DWORD PTR [edi*4]
; File C:\Program Files (x86)\Microsoft Visual Studio\2019\Community\VC\Tools\MSVC\14.29.30133\atlmfc\include\afx.inl

; 399  : 	UINT nRead=Read(lpBuf, nCount);

  00144	51		 push	 ecx
  00145	53		 push	 ebx
  00146	8b c8		 mov	 ecx, eax
  00148	e8 00 00 00 00	 call	 ?Read@CArchive@@QAEIPAXI@Z ; CArchive::Read

; 400  : 	if(nRead!=nCount)

  0014d	8d 0c bd 00 00
	00 00		 lea	 ecx, DWORD PTR [edi*4]
  00154	3b c1		 cmp	 eax, ecx
  00156	75 28		 jne	 SHORT $LN59@Serialize
; File C:\Program Files (x86)\Microsoft Visual Studio\2019\Community\VC\Tools\MSVC\14.29.30133\atlmfc\include\afxtempl.h

; 104  : 			pData += nElementsToRead;

  00158	8b 45 08	 mov	 eax, DWORD PTR _ar$[ebp]
  0015b	03 d9		 add	 ebx, ecx
  0015d	2b f7		 sub	 esi, edi
  0015f	75 d2		 jne	 SHORT $LL39@Serialize
$LN40@Serialize:

; 1193 : 		{
; 1194 : 			TYPE newData[1];
; 1195 : 			SerializeElements<TYPE>(ar, newData, 1);
; 1196 : 			AddTail(newData[0]);

  00161	ff 75 f4	 push	 DWORD PTR _newData$1[ebp]
  00164	8b 4d fc	 mov	 ecx, DWORD PTR _this$1$[ebp]
  00167	e8 00 00 00 00	 call	 ?AddTail@?$CList@PAVCStyleData@@PAV1@@@QAEPAU__POSITION@@PAVCStyleData@@@Z ; CList<CStyleData *,CStyleData *>::AddTail
  0016c	8b 45 f0	 mov	 eax, DWORD PTR _nNewCount$1$[ebp]
  0016f	85 c0		 test	 eax, eax
  00171	0f 85 69 ff ff
	ff		 jne	 $LL5@Serialize
$LN68@Serialize:
  00177	5f		 pop	 edi

; 1197 : 		}
; 1198 : 	}
; 1199 : }

  00178	5e		 pop	 esi
  00179	5b		 pop	 ebx
  0017a	8b e5		 mov	 esp, ebp
  0017c	5d		 pop	 ebp
  0017d	c2 04 00	 ret	 4
$LN59@Serialize:
  00180	6a 00		 push	 0
  00182	6a 03		 push	 3
  00184	e8 00 00 00 00	 call	 ?AfxThrowArchiveException@@YGXHPBD@Z ; AfxThrowArchiveException
$LN60@Serialize:

; 68   : 	ENSURE(nCount == 0 || pElements != NULL);

  00189	e8 00 00 00 00	 call	 ?AfxThrowInvalidArgException@@YGXXZ ; AfxThrowInvalidArgException
$LN85@Serialize:
  0018e	cc		 int	 3
?Serialize@?$CList@PAVCStyleData@@PAV1@@@UAEXAAVCArchive@@@Z ENDP ; CList<CStyleData *,CStyleData *>::Serialize
_TEXT	ENDS
; Function compile flags: /Ogtp
; File C:\Program Files (x86)\Microsoft Visual Studio\2019\Community\VC\Tools\MSVC\14.29.30133\atlmfc\include\afxtempl.h
;	COMDAT ??1?$CList@PAVCStyleData@@PAV1@@@UAE@XZ
_TEXT	SEGMENT
__$EHRec$ = -12						; size = 12
??1?$CList@PAVCStyleData@@PAV1@@@UAE@XZ PROC		; CList<CStyleData *,CStyleData *>::~CList<CStyleData *,CStyleData *>, COMDAT
; _this$ = ecx

; 878  : {

  00000	55		 push	 ebp
  00001	8b ec		 mov	 ebp, esp
  00003	6a ff		 push	 -1
  00005	68 00 00 00 00	 push	 __ehhandler$??1?$CList@PAVCStyleData@@PAV1@@@UAE@XZ
  0000a	64 a1 00 00 00
	00		 mov	 eax, DWORD PTR fs:0
  00010	50		 push	 eax
  00011	56		 push	 esi
  00012	a1 00 00 00 00	 mov	 eax, DWORD PTR ___security_cookie
  00017	33 c5		 xor	 eax, ebp
  00019	50		 push	 eax
  0001a	8d 45 f4	 lea	 eax, DWORD PTR __$EHRec$[ebp]
  0001d	64 a3 00 00 00
	00		 mov	 DWORD PTR fs:0, eax
  00023	8b f1		 mov	 esi, ecx

; 872  : 	m_pBlocks->FreeDataChain();

  00025	8b 4e 14	 mov	 ecx, DWORD PTR [esi+20]

; 878  : {

  00028	c7 06 00 00 00
	00		 mov	 DWORD PTR [esi], OFFSET ??_7?$CList@PAVCStyleData@@PAV1@@@6B@

; 870  : 	m_nCount = 0;

  0002e	c7 46 0c 00 00
	00 00		 mov	 DWORD PTR [esi+12], 0

; 871  : 	m_pNodeHead = m_pNodeTail = m_pNodeFree = NULL;

  00035	c7 46 10 00 00
	00 00		 mov	 DWORD PTR [esi+16], 0
  0003c	c7 46 08 00 00
	00 00		 mov	 DWORD PTR [esi+8], 0
  00043	c7 46 04 00 00
	00 00		 mov	 DWORD PTR [esi+4], 0

; 872  : 	m_pBlocks->FreeDataChain();

  0004a	e8 00 00 00 00	 call	 ?FreeDataChain@CPlex@@QAEXXZ ; CPlex::FreeDataChain

; 873  : 	m_pBlocks = NULL;

  0004f	c7 46 14 00 00
	00 00		 mov	 DWORD PTR [esi+20], 0

; 879  : 	RemoveAll();
; 880  : 	ASSERT(m_nCount == 0);
; 881  : }

  00056	8b 4d f4	 mov	 ecx, DWORD PTR __$EHRec$[ebp]
  00059	64 89 0d 00 00
	00 00		 mov	 DWORD PTR fs:0, ecx
  00060	59		 pop	 ecx
  00061	5e		 pop	 esi
  00062	8b e5		 mov	 esp, ebp
  00064	5d		 pop	 ebp
  00065	c3		 ret	 0
  00066	cc		 int	 3
  00067	cc		 int	 3
  00068	cc		 int	 3
  00069	cc		 int	 3
  0006a	cc		 int	 3
_TEXT	ENDS
;	COMDAT text$x
text$x	SEGMENT
__ehhandler$??1?$CList@PAVCStyleData@@PAV1@@@UAE@XZ:
  00000	90		 npad	 1
  00001	90		 npad	 1
  00002	8b 54 24 08	 mov	 edx, DWORD PTR [esp+8]
  00006	8d 42 0c	 lea	 eax, DWORD PTR [edx+12]
  00009	8b 4a f8	 mov	 ecx, DWORD PTR [edx-8]
  0000c	33 c8		 xor	 ecx, eax
  0000e	e8 00 00 00 00	 call	 @__security_check_cookie@4
  00013	b8 00 00 00 00	 mov	 eax, OFFSET __ehfuncinfo$??1?$CList@PAVCStyleData@@PAV1@@@UAE@XZ
  00018	e9 00 00 00 00	 jmp	 ___CxxFrameHandler3
text$x	ENDS
??1?$CList@PAVCStyleData@@PAV1@@@UAE@XZ ENDP		; CList<CStyleData *,CStyleData *>::~CList<CStyleData *,CStyleData *>
; Function compile flags: /Ogtp
; File C:\Program Files (x86)\Microsoft Visual Studio\2019\Community\VC\Tools\MSVC\14.29.30133\atlmfc\include\afxtempl.h
;	COMDAT ?FreeNode@?$CList@PAVCStyleData@@PAV1@@@IAEXPAUCNode@1@@Z
_TEXT	SEGMENT
_pNode$ = 8						; size = 4
?FreeNode@?$CList@PAVCStyleData@@PAV1@@@IAEXPAUCNode@1@@Z PROC ; CList<CStyleData *,CStyleData *>::FreeNode, COMDAT
; _this$ = ecx

; 936  : {

  00000	55		 push	 ebp
  00001	8b ec		 mov	 ebp, esp

; 937  : 	pNode->data.~TYPE();
; 938  : 	pNode->pNext = m_pNodeFree;

  00003	8b 55 08	 mov	 edx, DWORD PTR _pNode$[ebp]
  00006	56		 push	 esi
  00007	8b f1		 mov	 esi, ecx
  00009	8b 46 10	 mov	 eax, DWORD PTR [esi+16]
  0000c	89 02		 mov	 DWORD PTR [edx], eax

; 939  : 	m_pNodeFree = pNode;
; 940  : 	m_nCount--;

  0000e	83 46 0c ff	 add	 DWORD PTR [esi+12], -1
  00012	89 56 10	 mov	 DWORD PTR [esi+16], edx

; 941  : 	ASSERT(m_nCount >= 0);  // make sure we don't underflow
; 942  : 
; 943  : 	// if no more elements, cleanup completely
; 944  : 	if (m_nCount == 0)

  00015	75 2b		 jne	 SHORT $LN2@FreeNode

; 872  : 	m_pBlocks->FreeDataChain();

  00017	8b 4e 14	 mov	 ecx, DWORD PTR [esi+20]
  0001a	c7 46 0c 00 00
	00 00		 mov	 DWORD PTR [esi+12], 0
  00021	c7 46 10 00 00
	00 00		 mov	 DWORD PTR [esi+16], 0
  00028	c7 46 08 00 00
	00 00		 mov	 DWORD PTR [esi+8], 0
  0002f	c7 46 04 00 00
	00 00		 mov	 DWORD PTR [esi+4], 0
  00036	e8 00 00 00 00	 call	 ?FreeDataChain@CPlex@@QAEXXZ ; CPlex::FreeDataChain

; 873  : 	m_pBlocks = NULL;

  0003b	c7 46 14 00 00
	00 00		 mov	 DWORD PTR [esi+20], 0
$LN2@FreeNode:
  00042	5e		 pop	 esi

; 945  : 		RemoveAll();
; 946  : }

  00043	5d		 pop	 ebp
  00044	c2 04 00	 ret	 4
?FreeNode@?$CList@PAVCStyleData@@PAV1@@@IAEXPAUCNode@1@@Z ENDP ; CList<CStyleData *,CStyleData *>::FreeNode
_TEXT	ENDS
; Function compile flags: /Ogtp
; File C:\Program Files (x86)\Microsoft Visual Studio\2019\Community\VC\Tools\MSVC\14.29.30133\atlmfc\include\afxtempl.h
;	COMDAT ?NewNode@?$CList@PAVCStyleData@@PAV1@@@IAEPAUCNode@1@PAU21@0@Z
_TEXT	SEGMENT
_pPrev$ = 8						; size = 4
_pNext$ = 12						; size = 4
?NewNode@?$CList@PAVCStyleData@@PAV1@@@IAEPAUCNode@1@PAU21@0@Z PROC ; CList<CStyleData *,CStyleData *>::NewNode, COMDAT
; _this$ = ecx

; 901  : {

  00000	55		 push	 ebp
  00001	8b ec		 mov	 ebp, esp
  00003	56		 push	 esi
  00004	8b f1		 mov	 esi, ecx

; 902  : 	if (m_pNodeFree == NULL)

  00006	83 7e 10 00	 cmp	 DWORD PTR [esi+16], 0
  0000a	75 34		 jne	 SHORT $LN7@NewNode

; 903  : 	{
; 904  : 		// add another block
; 905  : 		CPlex* pNewBlock = CPlex::Create(m_pBlocks, m_nBlockSize,

  0000c	6a 0c		 push	 12			; 0000000cH
  0000e	ff 76 18	 push	 DWORD PTR [esi+24]
  00011	8d 46 14	 lea	 eax, DWORD PTR [esi+20]
  00014	50		 push	 eax
  00015	e8 00 00 00 00	 call	 ?Create@CPlex@@SGPAU1@AAPAU1@II@Z ; CPlex::Create

; 906  : 				 sizeof(CNode));
; 907  : 
; 908  : 		// chain them into free list
; 909  : 		CNode* pNode = (CNode*) pNewBlock->data();
; 910  : 		// free in reverse order to make it easier to debug
; 911  : 		pNode += m_nBlockSize - 1;

  0001a	8b 56 18	 mov	 edx, DWORD PTR [esi+24]
  0001d	83 c0 08	 add	 eax, 8
  00020	8d 0c 52	 lea	 ecx, DWORD PTR [edx+edx*2]
  00023	8d 04 88	 lea	 eax, DWORD PTR [eax+ecx*4]
  00026	83 c0 f4	 add	 eax, -12		; fffffff4H

; 912  : 		for (INT_PTR i = m_nBlockSize-1; i >= 0; i--, pNode--)

  00029	83 c2 ff	 add	 edx, -1
  0002c	78 12		 js	 SHORT $LN7@NewNode
  0002e	66 90		 npad	 2
$LL4@NewNode:

; 913  : 		{
; 914  : 			pNode->pNext = m_pNodeFree;

  00030	8b 4e 10	 mov	 ecx, DWORD PTR [esi+16]
  00033	89 08		 mov	 DWORD PTR [eax], ecx

; 915  : 			m_pNodeFree = pNode;

  00035	89 46 10	 mov	 DWORD PTR [esi+16], eax
  00038	83 e8 0c	 sub	 eax, 12			; 0000000cH
  0003b	83 ea 01	 sub	 edx, 1
  0003e	79 f0		 jns	 SHORT $LL4@NewNode
$LN7@NewNode:

; 916  : 		}
; 917  : 	}
; 918  : 	ENSURE(m_pNodeFree != NULL);  // we must have something

  00040	8b 46 10	 mov	 eax, DWORD PTR [esi+16]
  00043	85 c0		 test	 eax, eax
  00045	74 18		 je	 SHORT $LN17@NewNode

; 919  : 
; 920  : 	CList::CNode* pNode = m_pNodeFree;
; 921  : 	m_pNodeFree = m_pNodeFree->pNext;

  00047	8b 08		 mov	 ecx, DWORD PTR [eax]
  00049	89 4e 10	 mov	 DWORD PTR [esi+16], ecx

; 922  : 	pNode->pPrev = pPrev;

  0004c	8b 4d 08	 mov	 ecx, DWORD PTR _pPrev$[ebp]
  0004f	89 48 04	 mov	 DWORD PTR [eax+4], ecx

; 923  : 	pNode->pNext = pNext;

  00052	8b 4d 0c	 mov	 ecx, DWORD PTR _pNext$[ebp]
  00055	89 08		 mov	 DWORD PTR [eax], ecx

; 924  : 	m_nCount++;

  00057	ff 46 0c	 inc	 DWORD PTR [esi+12]

; 925  : 	ASSERT(m_nCount > 0);  // make sure we don't overflow
; 926  : 
; 927  : #pragma push_macro("new")
; 928  : #undef new
; 929  : 	::new( (void*)( &pNode->data ) ) TYPE;
; 930  : #pragma pop_macro("new")
; 931  : 	return pNode;

  0005a	5e		 pop	 esi

; 932  : }

  0005b	5d		 pop	 ebp
  0005c	c2 08 00	 ret	 8
$LN17@NewNode:

; 916  : 		}
; 917  : 	}
; 918  : 	ENSURE(m_pNodeFree != NULL);  // we must have something

  0005f	e8 00 00 00 00	 call	 ?AfxThrowInvalidArgException@@YGXXZ ; AfxThrowInvalidArgException
$LN15@NewNode:
  00064	cc		 int	 3
?NewNode@?$CList@PAVCStyleData@@PAV1@@@IAEPAUCNode@1@PAU21@0@Z ENDP ; CList<CStyleData *,CStyleData *>::NewNode
_TEXT	ENDS
; Function compile flags: /Ogtp
; File C:\Program Files (x86)\Microsoft Visual Studio\2019\Community\VC\Tools\MSVC\14.29.30133\atlmfc\include\afxtempl.h
;	COMDAT ?FindIndex@?$CList@PAVCStyleData@@PAV1@@@QBEPAU__POSITION@@H@Z
_TEXT	SEGMENT
_nIndex$ = 8						; size = 4
?FindIndex@?$CList@PAVCStyleData@@PAV1@@@QBEPAU__POSITION@@H@Z PROC ; CList<CStyleData *,CStyleData *>::FindIndex, COMDAT
; _this$ = ecx

; 1130 : {

  00000	55		 push	 ebp
  00001	8b ec		 mov	 ebp, esp

; 1131 : 	ASSERT_VALID(this);
; 1132 : 
; 1133 : 	if (nIndex >= m_nCount || nIndex < 0)

  00003	8b 55 08	 mov	 edx, DWORD PTR _nIndex$[ebp]
  00006	3b 51 0c	 cmp	 edx, DWORD PTR [ecx+12]
  00009	7d 14		 jge	 SHORT $LN5@FindIndex
  0000b	85 d2		 test	 edx, edx
  0000d	78 10		 js	 SHORT $LN5@FindIndex

; 1135 : 
; 1136 : 	CNode* pNode = m_pNodeHead;

  0000f	8b 41 04	 mov	 eax, DWORD PTR [ecx+4]

; 1137 : 	while (nIndex--)

  00012	74 0d		 je	 SHORT $LN1@FindIndex
$LL2@FindIndex:

; 1138 : 	{
; 1139 : 		ASSERT(AfxIsValidAddress(pNode, sizeof(CNode)));
; 1140 : 		pNode = pNode->pNext;

  00014	8b 00		 mov	 eax, DWORD PTR [eax]
  00016	83 ea 01	 sub	 edx, 1
  00019	75 f9		 jne	 SHORT $LL2@FindIndex

; 1141 : 	}
; 1142 : 	return (POSITION) pNode;
; 1143 : }

  0001b	5d		 pop	 ebp
  0001c	c2 04 00	 ret	 4
$LN5@FindIndex:

; 1134 : 		return NULL;  // went too far

  0001f	33 c0		 xor	 eax, eax
$LN1@FindIndex:

; 1141 : 	}
; 1142 : 	return (POSITION) pNode;
; 1143 : }

  00021	5d		 pop	 ebp
  00022	c2 04 00	 ret	 4
?FindIndex@?$CList@PAVCStyleData@@PAV1@@@QBEPAU__POSITION@@H@Z ENDP ; CList<CStyleData *,CStyleData *>::FindIndex
_TEXT	ENDS
; Function compile flags: /Ogtp
; File C:\Program Files (x86)\Microsoft Visual Studio\2019\Community\VC\Tools\MSVC\14.29.30133\atlmfc\include\afxtempl.h
;	COMDAT ?RemoveAt@?$CList@PAVCStyleData@@PAV1@@@QAEXPAU__POSITION@@@Z
_TEXT	SEGMENT
_position$ = 8						; size = 4
?RemoveAt@?$CList@PAVCStyleData@@PAV1@@@QAEXPAU__POSITION@@@Z PROC ; CList<CStyleData *,CStyleData *>::RemoveAt, COMDAT
; _this$ = ecx

; 1100 : {

  00000	55		 push	 ebp
  00001	8b ec		 mov	 ebp, esp
  00003	56		 push	 esi
  00004	8b f1		 mov	 esi, ecx

; 1101 : 	ASSERT_VALID(this);
; 1102 : 
; 1103 : 	CNode* pOldNode = (CNode*) position;
; 1104 : 	ASSERT(AfxIsValidAddress(pOldNode, sizeof(CNode)));
; 1105 : 
; 1106 : 	// remove pOldNode from list
; 1107 : 	if (pOldNode == m_pNodeHead)

  00006	8b 4d 08	 mov	 ecx, DWORD PTR _position$[ebp]
  00009	8b 11		 mov	 edx, DWORD PTR [ecx]
  0000b	3b 4e 04	 cmp	 ecx, DWORD PTR [esi+4]
  0000e	75 05		 jne	 SHORT $LN2@RemoveAt

; 1108 : 	{
; 1109 : 		m_pNodeHead = pOldNode->pNext;

  00010	89 56 04	 mov	 DWORD PTR [esi+4], edx

; 1110 : 	}

  00013	eb 05		 jmp	 SHORT $LN3@RemoveAt
$LN2@RemoveAt:

; 1111 : 	else
; 1112 : 	{
; 1113 : 		ASSERT(AfxIsValidAddress(pOldNode->pPrev, sizeof(CNode)));
; 1114 : 		pOldNode->pPrev->pNext = pOldNode->pNext;

  00015	8b 41 04	 mov	 eax, DWORD PTR [ecx+4]
  00018	89 10		 mov	 DWORD PTR [eax], edx
$LN3@RemoveAt:

; 1115 : 	}
; 1116 : 	if (pOldNode == m_pNodeTail)

  0001a	8b 51 04	 mov	 edx, DWORD PTR [ecx+4]
  0001d	3b 4e 08	 cmp	 ecx, DWORD PTR [esi+8]
  00020	75 05		 jne	 SHORT $LN4@RemoveAt

; 1117 : 	{
; 1118 : 		m_pNodeTail = pOldNode->pPrev;

  00022	89 56 08	 mov	 DWORD PTR [esi+8], edx

; 1119 : 	}

  00025	eb 05		 jmp	 SHORT $LN5@RemoveAt
$LN4@RemoveAt:

; 1120 : 	else
; 1121 : 	{
; 1122 : 		ASSERT(AfxIsValidAddress(pOldNode->pNext, sizeof(CNode)));
; 1123 : 		pOldNode->pNext->pPrev = pOldNode->pPrev;

  00027	8b 01		 mov	 eax, DWORD PTR [ecx]
  00029	89 50 04	 mov	 DWORD PTR [eax+4], edx
$LN5@RemoveAt:

; 938  : 	pNode->pNext = m_pNodeFree;

  0002c	8b 46 10	 mov	 eax, DWORD PTR [esi+16]
  0002f	89 01		 mov	 DWORD PTR [ecx], eax

; 939  : 	m_pNodeFree = pNode;
; 940  : 	m_nCount--;

  00031	83 46 0c ff	 add	 DWORD PTR [esi+12], -1
  00035	89 4e 10	 mov	 DWORD PTR [esi+16], ecx

; 941  : 	ASSERT(m_nCount >= 0);  // make sure we don't underflow
; 942  : 
; 943  : 	// if no more elements, cleanup completely
; 944  : 	if (m_nCount == 0)

  00038	75 2b		 jne	 SHORT $LN8@RemoveAt

; 872  : 	m_pBlocks->FreeDataChain();

  0003a	8b 4e 14	 mov	 ecx, DWORD PTR [esi+20]
  0003d	c7 46 0c 00 00
	00 00		 mov	 DWORD PTR [esi+12], 0
  00044	c7 46 10 00 00
	00 00		 mov	 DWORD PTR [esi+16], 0
  0004b	c7 46 08 00 00
	00 00		 mov	 DWORD PTR [esi+8], 0
  00052	c7 46 04 00 00
	00 00		 mov	 DWORD PTR [esi+4], 0
  00059	e8 00 00 00 00	 call	 ?FreeDataChain@CPlex@@QAEXXZ ; CPlex::FreeDataChain

; 873  : 	m_pBlocks = NULL;

  0005e	c7 46 14 00 00
	00 00		 mov	 DWORD PTR [esi+20], 0
$LN8@RemoveAt:
  00065	5e		 pop	 esi

; 1124 : 	}
; 1125 : 	FreeNode(pOldNode);
; 1126 : }

  00066	5d		 pop	 ebp
  00067	c2 04 00	 ret	 4
?RemoveAt@?$CList@PAVCStyleData@@PAV1@@@QAEXPAU__POSITION@@@Z ENDP ; CList<CStyleData *,CStyleData *>::RemoveAt
_TEXT	ENDS
; Function compile flags: /Ogtp
; File C:\Program Files (x86)\Microsoft Visual Studio\2019\Community\VC\Tools\MSVC\14.29.30133\atlmfc\include\afxtempl.h
;	COMDAT ?RemoveAll@?$CList@PAVCStyleData@@PAV1@@@QAEXXZ
_TEXT	SEGMENT
?RemoveAll@?$CList@PAVCStyleData@@PAV1@@@QAEXXZ PROC	; CList<CStyleData *,CStyleData *>::RemoveAll, COMDAT
; _this$ = ecx

; 862  : {

  00000	56		 push	 esi
  00001	8b f1		 mov	 esi, ecx

; 863  : 	ASSERT_VALID(this);
; 864  : 
; 865  : 	// destroy elements
; 866  : 	CNode* pNode;
; 867  : 	for (pNode = m_pNodeHead; pNode != NULL; pNode = pNode->pNext)
; 868  : 		pNode->data.~TYPE();
; 869  : 
; 870  : 	m_nCount = 0;
; 871  : 	m_pNodeHead = m_pNodeTail = m_pNodeFree = NULL;
; 872  : 	m_pBlocks->FreeDataChain();

  00003	8b 4e 14	 mov	 ecx, DWORD PTR [esi+20]
  00006	c7 46 0c 00 00
	00 00		 mov	 DWORD PTR [esi+12], 0
  0000d	c7 46 10 00 00
	00 00		 mov	 DWORD PTR [esi+16], 0
  00014	c7 46 08 00 00
	00 00		 mov	 DWORD PTR [esi+8], 0
  0001b	c7 46 04 00 00
	00 00		 mov	 DWORD PTR [esi+4], 0
  00022	e8 00 00 00 00	 call	 ?FreeDataChain@CPlex@@QAEXXZ ; CPlex::FreeDataChain

; 873  : 	m_pBlocks = NULL;

  00027	c7 46 14 00 00
	00 00		 mov	 DWORD PTR [esi+20], 0
  0002e	5e		 pop	 esi

; 874  : }

  0002f	c3		 ret	 0
?RemoveAll@?$CList@PAVCStyleData@@PAV1@@@QAEXXZ ENDP	; CList<CStyleData *,CStyleData *>::RemoveAll
_TEXT	ENDS
; Function compile flags: /Ogtp
; File C:\Program Files (x86)\Microsoft Visual Studio\2019\Community\VC\Tools\MSVC\14.29.30133\atlmfc\include\afxtempl.h
;	COMDAT ?AddTail@?$CList@PAVCStyleData@@PAV1@@@QAEXPAV1@@Z
_TEXT	SEGMENT
_newElement$1$ = -4					; size = 4
$T1 = 8							; size = 4
_pNewList$ = 8						; size = 4
?AddTail@?$CList@PAVCStyleData@@PAV1@@@QAEXPAV1@@Z PROC	; CList<CStyleData *,CStyleData *>::AddTail, COMDAT
; _this$ = ecx

; 994  : {

  00000	55		 push	 ebp
  00001	8b ec		 mov	 ebp, esp
  00003	51		 push	 ecx
  00004	53		 push	 ebx

; 995  : 	ASSERT_VALID(this);
; 996  : 	ENSURE(pNewList != NULL);

  00005	8b 5d 08	 mov	 ebx, DWORD PTR _pNewList$[ebp]
  00008	56		 push	 esi
  00009	8b f1		 mov	 esi, ecx
  0000b	85 db		 test	 ebx, ebx
  0000d	0f 84 a1 00 00
	00		 je	 $LN29@AddTail

; 997  : 	ASSERT_VALID(pNewList);
; 998  : 
; 999  : 	// add a list of same elements
; 1000 : 	POSITION pos = pNewList->GetHeadPosition();

  00013	8b 5b 04	 mov	 ebx, DWORD PTR [ebx+4]

; 1001 : 	while (pos != NULL)

  00016	85 db		 test	 ebx, ebx
  00018	0f 84 8e 00 00
	00		 je	 $LN39@AddTail
  0001e	8b 4e 08	 mov	 ecx, DWORD PTR [esi+8]
  00021	89 4d 08	 mov	 DWORD PTR $T1[ebp], ecx
  00024	57		 push	 edi
$LL5@AddTail:

; 1002 : 		AddTail(pNewList->GetNext(pos));

  00025	8b 43 08	 mov	 eax, DWORD PTR [ebx+8]

; 902  : 	if (m_pNodeFree == NULL)

  00028	8b 56 10	 mov	 edx, DWORD PTR [esi+16]

; 813  : 		rPosition = (POSITION) pNode->pNext;

  0002b	8b 1b		 mov	 ebx, DWORD PTR [ebx]

; 1002 : 		AddTail(pNewList->GetNext(pos));

  0002d	89 45 fc	 mov	 DWORD PTR _newElement$1$[ebp], eax

; 902  : 	if (m_pNodeFree == NULL)

  00030	85 d2		 test	 edx, edx
  00032	75 42		 jne	 SHORT $LN37@AddTail

; 903  : 	{
; 904  : 		// add another block
; 905  : 		CPlex* pNewBlock = CPlex::Create(m_pBlocks, m_nBlockSize,

  00034	6a 0c		 push	 12			; 0000000cH
  00036	ff 76 18	 push	 DWORD PTR [esi+24]
  00039	8d 46 14	 lea	 eax, DWORD PTR [esi+20]
  0003c	50		 push	 eax
  0003d	e8 00 00 00 00	 call	 ?Create@CPlex@@SGPAU1@AAPAU1@II@Z ; CPlex::Create

; 906  : 				 sizeof(CNode));
; 907  : 
; 908  : 		// chain them into free list
; 909  : 		CNode* pNode = (CNode*) pNewBlock->data();
; 910  : 		// free in reverse order to make it easier to debug
; 911  : 		pNode += m_nBlockSize - 1;

  00042	8b 56 18	 mov	 edx, DWORD PTR [esi+24]
  00045	83 c0 08	 add	 eax, 8
  00048	8d 0c 52	 lea	 ecx, DWORD PTR [edx+edx*2]
  0004b	8d 04 88	 lea	 eax, DWORD PTR [eax+ecx*4]

; 912  : 		for (INT_PTR i = m_nBlockSize-1; i >= 0; i--, pNode--)

  0004e	8d 7a ff	 lea	 edi, DWORD PTR [edx-1]
  00051	83 c0 f4	 add	 eax, -12		; fffffff4H
  00054	85 ff		 test	 edi, edi
  00056	78 14		 js	 SHORT $LN38@AddTail
$LL18@AddTail:

; 913  : 		{
; 914  : 			pNode->pNext = m_pNodeFree;

  00058	8b 4e 10	 mov	 ecx, DWORD PTR [esi+16]
  0005b	8b d0		 mov	 edx, eax
  0005d	89 08		 mov	 DWORD PTR [eax], ecx

; 915  : 			m_pNodeFree = pNode;

  0005f	89 46 10	 mov	 DWORD PTR [esi+16], eax
  00062	83 e8 0c	 sub	 eax, 12			; 0000000cH
  00065	83 ef 01	 sub	 edi, 1
  00068	79 ee		 jns	 SHORT $LL18@AddTail
  0006a	eb 03		 jmp	 SHORT $LN21@AddTail
$LN38@AddTail:
  0006c	8b 56 10	 mov	 edx, DWORD PTR [esi+16]
$LN21@AddTail:

; 916  : 		}
; 917  : 	}
; 918  : 	ENSURE(m_pNodeFree != NULL);  // we must have something

  0006f	85 d2		 test	 edx, edx
  00071	74 41		 je	 SHORT $LN29@AddTail
  00073	8b 4d 08	 mov	 ecx, DWORD PTR $T1[ebp]
$LN37@AddTail:

; 919  : 
; 920  : 	CList::CNode* pNode = m_pNodeFree;
; 921  : 	m_pNodeFree = m_pNodeFree->pNext;

  00076	8b 02		 mov	 eax, DWORD PTR [edx]
  00078	89 46 10	 mov	 DWORD PTR [esi+16], eax

; 969  : 	pNewNode->data = newElement;

  0007b	8b 45 fc	 mov	 eax, DWORD PTR _newElement$1$[ebp]

; 922  : 	pNode->pPrev = pPrev;

  0007e	89 4a 04	 mov	 DWORD PTR [edx+4], ecx

; 923  : 	pNode->pNext = pNext;

  00081	c7 02 00 00 00
	00		 mov	 DWORD PTR [edx], 0

; 924  : 	m_nCount++;

  00087	ff 46 0c	 inc	 DWORD PTR [esi+12]

; 969  : 	pNewNode->data = newElement;

  0008a	89 42 08	 mov	 DWORD PTR [edx+8], eax

; 970  : 	if (m_pNodeTail != NULL)

  0008d	8b 46 08	 mov	 eax, DWORD PTR [esi+8]
  00090	85 c0		 test	 eax, eax
  00092	74 04		 je	 SHORT $LN12@AddTail

; 971  : 		m_pNodeTail->pNext = pNewNode;

  00094	89 10		 mov	 DWORD PTR [eax], edx
  00096	eb 03		 jmp	 SHORT $LN13@AddTail
$LN12@AddTail:

; 972  : 	else
; 973  : 		m_pNodeHead = pNewNode;

  00098	89 56 04	 mov	 DWORD PTR [esi+4], edx
$LN13@AddTail:

; 974  : 	m_pNodeTail = pNewNode;

  0009b	89 56 08	 mov	 DWORD PTR [esi+8], edx
  0009e	8b ca		 mov	 ecx, edx
  000a0	89 4d 08	 mov	 DWORD PTR $T1[ebp], ecx

; 1001 : 	while (pos != NULL)

  000a3	85 db		 test	 ebx, ebx
  000a5	0f 85 7a ff ff
	ff		 jne	 $LL5@AddTail
  000ab	5f		 pop	 edi
$LN39@AddTail:
  000ac	5e		 pop	 esi

; 1003 : }

  000ad	5b		 pop	 ebx
  000ae	8b e5		 mov	 esp, ebp
  000b0	5d		 pop	 ebp
  000b1	c2 04 00	 ret	 4
$LN29@AddTail:

; 918  : 	ENSURE(m_pNodeFree != NULL);  // we must have something

  000b4	e8 00 00 00 00	 call	 ?AfxThrowInvalidArgException@@YGXXZ ; AfxThrowInvalidArgException
$LN41@AddTail:
  000b9	cc		 int	 3
?AddTail@?$CList@PAVCStyleData@@PAV1@@@QAEXPAV1@@Z ENDP	; CList<CStyleData *,CStyleData *>::AddTail
_TEXT	ENDS
; Function compile flags: /Ogtp
; File C:\Program Files (x86)\Microsoft Visual Studio\2019\Community\VC\Tools\MSVC\14.29.30133\atlmfc\include\afxtempl.h
;	COMDAT ?AddTail@?$CList@PAVCStyleData@@PAV1@@@QAEPAU__POSITION@@PAVCStyleData@@@Z
_TEXT	SEGMENT
_newElement$ = 8					; size = 4
?AddTail@?$CList@PAVCStyleData@@PAV1@@@QAEPAU__POSITION@@PAVCStyleData@@@Z PROC ; CList<CStyleData *,CStyleData *>::AddTail, COMDAT
; _this$ = ecx

; 965  : {

  00000	55		 push	 ebp
  00001	8b ec		 mov	 ebp, esp
  00003	56		 push	 esi
  00004	8b f1		 mov	 esi, ecx
  00006	57		 push	 edi

; 902  : 	if (m_pNodeFree == NULL)

  00007	83 7e 10 00	 cmp	 DWORD PTR [esi+16], 0

; 966  : 	ASSERT_VALID(this);
; 967  : 
; 968  : 	CNode* pNewNode = NewNode(m_pNodeTail, NULL);

  0000b	8b 7e 08	 mov	 edi, DWORD PTR [esi+8]

; 902  : 	if (m_pNodeFree == NULL)

  0000e	75 32		 jne	 SHORT $LN11@AddTail

; 903  : 	{
; 904  : 		// add another block
; 905  : 		CPlex* pNewBlock = CPlex::Create(m_pBlocks, m_nBlockSize,

  00010	6a 0c		 push	 12			; 0000000cH
  00012	ff 76 18	 push	 DWORD PTR [esi+24]
  00015	8d 46 14	 lea	 eax, DWORD PTR [esi+20]
  00018	50		 push	 eax
  00019	e8 00 00 00 00	 call	 ?Create@CPlex@@SGPAU1@AAPAU1@II@Z ; CPlex::Create

; 906  : 				 sizeof(CNode));
; 907  : 
; 908  : 		// chain them into free list
; 909  : 		CNode* pNode = (CNode*) pNewBlock->data();
; 910  : 		// free in reverse order to make it easier to debug
; 911  : 		pNode += m_nBlockSize - 1;

  0001e	8b 56 18	 mov	 edx, DWORD PTR [esi+24]
  00021	83 c0 08	 add	 eax, 8
  00024	8d 4a ff	 lea	 ecx, DWORD PTR [edx-1]

; 912  : 		for (INT_PTR i = m_nBlockSize-1; i >= 0; i--, pNode--)

  00027	83 c2 ff	 add	 edx, -1
  0002a	8d 0c 49	 lea	 ecx, DWORD PTR [ecx+ecx*2]
  0002d	8d 0c 88	 lea	 ecx, DWORD PTR [eax+ecx*4]
  00030	78 10		 js	 SHORT $LN11@AddTail
$LL8@AddTail:

; 913  : 		{
; 914  : 			pNode->pNext = m_pNodeFree;

  00032	8b 46 10	 mov	 eax, DWORD PTR [esi+16]
  00035	89 01		 mov	 DWORD PTR [ecx], eax

; 915  : 			m_pNodeFree = pNode;

  00037	89 4e 10	 mov	 DWORD PTR [esi+16], ecx
  0003a	83 e9 0c	 sub	 ecx, 12			; 0000000cH
  0003d	83 ea 01	 sub	 edx, 1
  00040	79 f0		 jns	 SHORT $LL8@AddTail
$LN11@AddTail:

; 916  : 		}
; 917  : 	}
; 918  : 	ENSURE(m_pNodeFree != NULL);  // we must have something

  00042	8b 4e 10	 mov	 ecx, DWORD PTR [esi+16]
  00045	85 c9		 test	 ecx, ecx
  00047	74 39		 je	 SHORT $LN22@AddTail

; 919  : 
; 920  : 	CList::CNode* pNode = m_pNodeFree;
; 921  : 	m_pNodeFree = m_pNodeFree->pNext;

  00049	8b 01		 mov	 eax, DWORD PTR [ecx]
  0004b	89 46 10	 mov	 DWORD PTR [esi+16], eax

; 969  : 	pNewNode->data = newElement;

  0004e	8b 45 08	 mov	 eax, DWORD PTR _newElement$[ebp]

; 922  : 	pNode->pPrev = pPrev;

  00051	89 79 04	 mov	 DWORD PTR [ecx+4], edi

; 923  : 	pNode->pNext = pNext;

  00054	c7 01 00 00 00
	00		 mov	 DWORD PTR [ecx], 0

; 924  : 	m_nCount++;

  0005a	ff 46 0c	 inc	 DWORD PTR [esi+12]

; 969  : 	pNewNode->data = newElement;

  0005d	89 41 08	 mov	 DWORD PTR [ecx+8], eax

; 970  : 	if (m_pNodeTail != NULL)

  00060	8b 46 08	 mov	 eax, DWORD PTR [esi+8]
  00063	85 c0		 test	 eax, eax
  00065	74 0d		 je	 SHORT $LN2@AddTail

; 971  : 		m_pNodeTail->pNext = pNewNode;

  00067	89 08		 mov	 DWORD PTR [eax], ecx

; 972  : 	else
; 973  : 		m_pNodeHead = pNewNode;
; 974  : 	m_pNodeTail = pNewNode;
; 975  : 	return (POSITION) pNewNode;

  00069	8b c1		 mov	 eax, ecx
  0006b	5f		 pop	 edi
  0006c	89 4e 08	 mov	 DWORD PTR [esi+8], ecx
  0006f	5e		 pop	 esi

; 976  : }

  00070	5d		 pop	 ebp
  00071	c2 04 00	 ret	 4
$LN2@AddTail:

; 972  : 	else
; 973  : 		m_pNodeHead = pNewNode;
; 974  : 	m_pNodeTail = pNewNode;
; 975  : 	return (POSITION) pNewNode;

  00074	5f		 pop	 edi
  00075	89 4e 04	 mov	 DWORD PTR [esi+4], ecx
  00078	8b c1		 mov	 eax, ecx
  0007a	89 4e 08	 mov	 DWORD PTR [esi+8], ecx
  0007d	5e		 pop	 esi

; 976  : }

  0007e	5d		 pop	 ebp
  0007f	c2 04 00	 ret	 4
$LN22@AddTail:

; 918  : 	ENSURE(m_pNodeFree != NULL);  // we must have something

  00082	e8 00 00 00 00	 call	 ?AfxThrowInvalidArgException@@YGXXZ ; AfxThrowInvalidArgException
$LN20@AddTail:
  00087	cc		 int	 3
?AddTail@?$CList@PAVCStyleData@@PAV1@@@QAEPAU__POSITION@@PAVCStyleData@@@Z ENDP ; CList<CStyleData *,CStyleData *>::AddTail
_TEXT	ENDS
; Function compile flags: /Ogtp
; File C:\Program Files (x86)\Microsoft Visual Studio\2019\Community\VC\Tools\MSVC\14.29.30133\atlmfc\include\afxtempl.h
;	COMDAT ?RemoveHead@?$CList@PAVCStyleData@@PAV1@@@QAEPAVCStyleData@@XZ
_TEXT	SEGMENT
?RemoveHead@?$CList@PAVCStyleData@@PAV1@@@QAEPAVCStyleData@@XZ PROC ; CList<CStyleData *,CStyleData *>::RemoveHead, COMDAT
; _this$ = ecx

; 1007 : {

  00000	56		 push	 esi
  00001	8b f1		 mov	 esi, ecx
  00003	57		 push	 edi

; 1008 : 	ASSERT_VALID(this);
; 1009 : 	ENSURE(m_pNodeHead != NULL);  // don't call on empty list !!!

  00004	8b 4e 04	 mov	 ecx, DWORD PTR [esi+4]
  00007	85 c9		 test	 ecx, ecx
  00009	74 5a		 je	 SHORT $LN24@RemoveHead

; 1010 : 	ASSERT(AfxIsValidAddress(m_pNodeHead, sizeof(CNode)));
; 1011 : 
; 1012 : 	CNode* pOldNode = m_pNodeHead;
; 1013 : 	TYPE returnValue = pOldNode->data;
; 1014 : 
; 1015 : 	m_pNodeHead = pOldNode->pNext;

  0000b	8b 01		 mov	 eax, DWORD PTR [ecx]
  0000d	8b 79 08	 mov	 edi, DWORD PTR [ecx+8]
  00010	89 46 04	 mov	 DWORD PTR [esi+4], eax

; 1016 : 	if (m_pNodeHead != NULL)

  00013	85 c0		 test	 eax, eax
  00015	74 09		 je	 SHORT $LN6@RemoveHead

; 1017 : 		m_pNodeHead->pPrev = NULL;

  00017	c7 40 04 00 00
	00 00		 mov	 DWORD PTR [eax+4], 0
  0001e	eb 07		 jmp	 SHORT $LN7@RemoveHead
$LN6@RemoveHead:

; 1018 : 	else
; 1019 : 		m_pNodeTail = NULL;

  00020	c7 46 08 00 00
	00 00		 mov	 DWORD PTR [esi+8], 0
$LN7@RemoveHead:

; 938  : 	pNode->pNext = m_pNodeFree;

  00027	8b 46 10	 mov	 eax, DWORD PTR [esi+16]
  0002a	89 01		 mov	 DWORD PTR [ecx], eax

; 939  : 	m_pNodeFree = pNode;
; 940  : 	m_nCount--;

  0002c	83 46 0c ff	 add	 DWORD PTR [esi+12], -1
  00030	89 4e 10	 mov	 DWORD PTR [esi+16], ecx

; 941  : 	ASSERT(m_nCount >= 0);  // make sure we don't underflow
; 942  : 
; 943  : 	// if no more elements, cleanup completely
; 944  : 	if (m_nCount == 0)

  00033	75 2b		 jne	 SHORT $LN10@RemoveHead

; 872  : 	m_pBlocks->FreeDataChain();

  00035	8b 4e 14	 mov	 ecx, DWORD PTR [esi+20]
  00038	c7 46 0c 00 00
	00 00		 mov	 DWORD PTR [esi+12], 0
  0003f	c7 46 10 00 00
	00 00		 mov	 DWORD PTR [esi+16], 0
  00046	c7 46 08 00 00
	00 00		 mov	 DWORD PTR [esi+8], 0
  0004d	c7 46 04 00 00
	00 00		 mov	 DWORD PTR [esi+4], 0
  00054	e8 00 00 00 00	 call	 ?FreeDataChain@CPlex@@QAEXXZ ; CPlex::FreeDataChain

; 873  : 	m_pBlocks = NULL;

  00059	c7 46 14 00 00
	00 00		 mov	 DWORD PTR [esi+20], 0
$LN10@RemoveHead:

; 1020 : 	FreeNode(pOldNode);
; 1021 : 	return returnValue;

  00060	8b c7		 mov	 eax, edi
  00062	5f		 pop	 edi
  00063	5e		 pop	 esi

; 1022 : }

  00064	c3		 ret	 0
$LN24@RemoveHead:

; 1008 : 	ASSERT_VALID(this);
; 1009 : 	ENSURE(m_pNodeHead != NULL);  // don't call on empty list !!!

  00065	e8 00 00 00 00	 call	 ?AfxThrowInvalidArgException@@YGXXZ ; AfxThrowInvalidArgException
$LN22@RemoveHead:
  0006a	cc		 int	 3
?RemoveHead@?$CList@PAVCStyleData@@PAV1@@@QAEPAVCStyleData@@XZ ENDP ; CList<CStyleData *,CStyleData *>::RemoveHead
_TEXT	ENDS
; Function compile flags: /Ogtp
; File C:\Program Files (x86)\Microsoft Visual Studio\2019\Community\VC\Tools\MSVC\14.29.30133\atlmfc\include\afxtempl.h
;	COMDAT ??0?$CList@PAVCStyleData@@PAV1@@@QAE@H@Z
_TEXT	SEGMENT
_nBlockSize$ = 8					; size = 4
??0?$CList@PAVCStyleData@@PAV1@@@QAE@H@Z PROC		; CList<CStyleData *,CStyleData *>::CList<CStyleData *,CStyleData *>, COMDAT
; _this$ = ecx

; 851  : {

  00000	55		 push	 ebp
  00001	8b ec		 mov	 ebp, esp

; 852  : 	ASSERT(nBlockSize > 0);
; 853  : 
; 854  : 	m_nCount = 0;
; 855  : 	m_pNodeHead = m_pNodeTail = m_pNodeFree = NULL;
; 856  : 	m_pBlocks = NULL;
; 857  : 	m_nBlockSize = nBlockSize;

  00003	8b 45 08	 mov	 eax, DWORD PTR _nBlockSize$[ebp]
  00006	89 41 18	 mov	 DWORD PTR [ecx+24], eax

; 858  : }

  00009	8b c1		 mov	 eax, ecx
  0000b	c7 01 00 00 00
	00		 mov	 DWORD PTR [ecx], OFFSET ??_7?$CList@PAVCStyleData@@PAV1@@@6B@
  00011	c7 41 0c 00 00
	00 00		 mov	 DWORD PTR [ecx+12], 0
  00018	c7 41 10 00 00
	00 00		 mov	 DWORD PTR [ecx+16], 0
  0001f	c7 41 08 00 00
	00 00		 mov	 DWORD PTR [ecx+8], 0
  00026	c7 41 04 00 00
	00 00		 mov	 DWORD PTR [ecx+4], 0
  0002d	c7 41 14 00 00
	00 00		 mov	 DWORD PTR [ecx+20], 0
  00034	5d		 pop	 ebp
  00035	c2 04 00	 ret	 4
??0?$CList@PAVCStyleData@@PAV1@@@QAE@H@Z ENDP		; CList<CStyleData *,CStyleData *>::CList<CStyleData *,CStyleData *>
_TEXT	ENDS
; Function compile flags: /Ogtp
;	COMDAT ??1CStyleFileBuilder@@QAE@XZ
_TEXT	SEGMENT
??1CStyleFileBuilder@@QAE@XZ PROC			; CStyleFileBuilder::~CStyleFileBuilder, COMDAT
; _this$ = ecx
  00000	56		 push	 esi
  00001	8b f1		 mov	 esi, ecx
  00003	8d 4e 64	 lea	 ecx, DWORD PTR [esi+100]
  00006	ff 15 00 00 00
	00		 call	 DWORD PTR __imp_??1?$CStringT@DV?$StrTraitMFC_DLL@DV?$ChTraitsCRT@D@ATL@@@@@ATL@@QAE@XZ
  0000c	8d 4e 60	 lea	 ecx, DWORD PTR [esi+96]
  0000f	ff 15 00 00 00
	00		 call	 DWORD PTR __imp_??1?$CStringT@DV?$StrTraitMFC_DLL@DV?$ChTraitsCRT@D@ATL@@@@@ATL@@QAE@XZ
  00015	8d 4e 5c	 lea	 ecx, DWORD PTR [esi+92]
  00018	ff 15 00 00 00
	00		 call	 DWORD PTR __imp_??1?$CStringT@DV?$StrTraitMFC_DLL@DV?$ChTraitsCRT@D@ATL@@@@@ATL@@QAE@XZ
  0001e	8d 4e 58	 lea	 ecx, DWORD PTR [esi+88]
  00021	ff 15 00 00 00
	00		 call	 DWORD PTR __imp_??1?$CStringT@DV?$StrTraitMFC_DLL@DV?$ChTraitsCRT@D@ATL@@@@@ATL@@QAE@XZ
  00027	8d 4e 54	 lea	 ecx, DWORD PTR [esi+84]
  0002a	ff 15 00 00 00
	00		 call	 DWORD PTR __imp_??1?$CStringT@DV?$StrTraitMFC_DLL@DV?$ChTraitsCRT@D@ATL@@@@@ATL@@QAE@XZ
  00030	8d 4e 50	 lea	 ecx, DWORD PTR [esi+80]
  00033	ff 15 00 00 00
	00		 call	 DWORD PTR __imp_??1?$CStringT@DV?$StrTraitMFC_DLL@DV?$ChTraitsCRT@D@ATL@@@@@ATL@@QAE@XZ
  00039	8d 4e 4c	 lea	 ecx, DWORD PTR [esi+76]
  0003c	ff 15 00 00 00
	00		 call	 DWORD PTR __imp_??1?$CStringT@DV?$StrTraitMFC_DLL@DV?$ChTraitsCRT@D@ATL@@@@@ATL@@QAE@XZ
  00042	8d 4e 48	 lea	 ecx, DWORD PTR [esi+72]
  00045	ff 15 00 00 00
	00		 call	 DWORD PTR __imp_??1?$CStringT@DV?$StrTraitMFC_DLL@DV?$ChTraitsCRT@D@ATL@@@@@ATL@@QAE@XZ
  0004b	8d 4e 44	 lea	 ecx, DWORD PTR [esi+68]
  0004e	ff 15 00 00 00
	00		 call	 DWORD PTR __imp_??1?$CStringT@DV?$StrTraitMFC_DLL@DV?$ChTraitsCRT@D@ATL@@@@@ATL@@QAE@XZ
  00054	8d 4e 40	 lea	 ecx, DWORD PTR [esi+64]
  00057	ff 15 00 00 00
	00		 call	 DWORD PTR __imp_??1?$CStringT@DV?$StrTraitMFC_DLL@DV?$ChTraitsCRT@D@ATL@@@@@ATL@@QAE@XZ
  0005d	8d 4e 3c	 lea	 ecx, DWORD PTR [esi+60]
  00060	ff 15 00 00 00
	00		 call	 DWORD PTR __imp_??1?$CStringT@DV?$StrTraitMFC_DLL@DV?$ChTraitsCRT@D@ATL@@@@@ATL@@QAE@XZ
  00066	8d 4e 38	 lea	 ecx, DWORD PTR [esi+56]
  00069	ff 15 00 00 00
	00		 call	 DWORD PTR __imp_??1?$CStringT@DV?$StrTraitMFC_DLL@DV?$ChTraitsCRT@D@ATL@@@@@ATL@@QAE@XZ
  0006f	8d 4e 34	 lea	 ecx, DWORD PTR [esi+52]
  00072	ff 15 00 00 00
	00		 call	 DWORD PTR __imp_??1?$CStringT@DV?$StrTraitMFC_DLL@DV?$ChTraitsCRT@D@ATL@@@@@ATL@@QAE@XZ
  00078	8d 4e 30	 lea	 ecx, DWORD PTR [esi+48]
  0007b	ff 15 00 00 00
	00		 call	 DWORD PTR __imp_??1?$CStringT@DV?$StrTraitMFC_DLL@DV?$ChTraitsCRT@D@ATL@@@@@ATL@@QAE@XZ
  00081	8d 4e 2c	 lea	 ecx, DWORD PTR [esi+44]
  00084	ff 15 00 00 00
	00		 call	 DWORD PTR __imp_??1?$CStringT@DV?$StrTraitMFC_DLL@DV?$ChTraitsCRT@D@ATL@@@@@ATL@@QAE@XZ
  0008a	8d 4e 28	 lea	 ecx, DWORD PTR [esi+40]
  0008d	ff 15 00 00 00
	00		 call	 DWORD PTR __imp_??1?$CStringT@DV?$StrTraitMFC_DLL@DV?$ChTraitsCRT@D@ATL@@@@@ATL@@QAE@XZ
  00093	8d 4e 24	 lea	 ecx, DWORD PTR [esi+36]
  00096	ff 15 00 00 00
	00		 call	 DWORD PTR __imp_??1?$CStringT@DV?$StrTraitMFC_DLL@DV?$ChTraitsCRT@D@ATL@@@@@ATL@@QAE@XZ
  0009c	8d 4e 20	 lea	 ecx, DWORD PTR [esi+32]
  0009f	ff 15 00 00 00
	00		 call	 DWORD PTR __imp_??1?$CStringT@DV?$StrTraitMFC_DLL@DV?$ChTraitsCRT@D@ATL@@@@@ATL@@QAE@XZ
  000a5	8d 4e 1c	 lea	 ecx, DWORD PTR [esi+28]
  000a8	ff 15 00 00 00
	00		 call	 DWORD PTR __imp_??1?$CStringT@DV?$StrTraitMFC_DLL@DV?$ChTraitsCRT@D@ATL@@@@@ATL@@QAE@XZ
  000ae	8d 4e 18	 lea	 ecx, DWORD PTR [esi+24]
  000b1	ff 15 00 00 00
	00		 call	 DWORD PTR __imp_??1?$CStringT@DV?$StrTraitMFC_DLL@DV?$ChTraitsCRT@D@ATL@@@@@ATL@@QAE@XZ
  000b7	8d 4e 14	 lea	 ecx, DWORD PTR [esi+20]
  000ba	ff 15 00 00 00
	00		 call	 DWORD PTR __imp_??1?$CStringT@DV?$StrTraitMFC_DLL@DV?$ChTraitsCRT@D@ATL@@@@@ATL@@QAE@XZ
  000c0	8d 4e 10	 lea	 ecx, DWORD PTR [esi+16]
  000c3	ff 15 00 00 00
	00		 call	 DWORD PTR __imp_??1?$CStringT@DV?$StrTraitMFC_DLL@DV?$ChTraitsCRT@D@ATL@@@@@ATL@@QAE@XZ
  000c9	8d 4e 0c	 lea	 ecx, DWORD PTR [esi+12]
  000cc	ff 15 00 00 00
	00		 call	 DWORD PTR __imp_??1?$CStringT@DV?$StrTraitMFC_DLL@DV?$ChTraitsCRT@D@ATL@@@@@ATL@@QAE@XZ
  000d2	8d 4e 08	 lea	 ecx, DWORD PTR [esi+8]
  000d5	ff 15 00 00 00
	00		 call	 DWORD PTR __imp_??1?$CStringT@DV?$StrTraitMFC_DLL@DV?$ChTraitsCRT@D@ATL@@@@@ATL@@QAE@XZ
  000db	8d 4e 04	 lea	 ecx, DWORD PTR [esi+4]
  000de	ff 15 00 00 00
	00		 call	 DWORD PTR __imp_??1?$CStringT@DV?$StrTraitMFC_DLL@DV?$ChTraitsCRT@D@ATL@@@@@ATL@@QAE@XZ
  000e4	8b ce		 mov	 ecx, esi
  000e6	5e		 pop	 esi
  000e7	ff 25 00 00 00
	00		 jmp	 DWORD PTR __imp_??1?$CStringT@DV?$StrTraitMFC_DLL@DV?$ChTraitsCRT@D@ATL@@@@@ATL@@QAE@XZ
??1CStyleFileBuilder@@QAE@XZ ENDP			; CStyleFileBuilder::~CStyleFileBuilder
_TEXT	ENDS
; Function compile flags: /Ogtp
; File C:\Program Files (x86)\Microsoft Visual Studio\2019\Community\VC\Tools\MSVC\14.29.30133\atlmfc\include\afx.inl
;	COMDAT ??_G?$CList@V?$CStringT@DV?$StrTraitMFC_DLL@DV?$ChTraitsCRT@D@ATL@@@@@ATL@@V12@@@UAEPAXI@Z
_TEXT	SEGMENT
___flags$ = 8						; size = 4
??_G?$CList@V?$CStringT@DV?$StrTraitMFC_DLL@DV?$ChTraitsCRT@D@ATL@@@@@ATL@@V12@@@UAEPAXI@Z PROC ; CList<ATL::CStringT<char,StrTraitMFC_DLL<char,ATL::ChTraitsCRT<char> > >,ATL::CStringT<char,StrTraitMFC_DLL<char,ATL::ChTraitsCRT<char> > > >::`scalar deleting destructor', COMDAT
; _this$ = ecx
  00000	55		 push	 ebp
  00001	8b ec		 mov	 ebp, esp
  00003	56		 push	 esi
  00004	8b f1		 mov	 esi, ecx
  00006	e8 00 00 00 00	 call	 ??1?$CList@V?$CStringT@DV?$StrTraitMFC_DLL@DV?$ChTraitsCRT@D@ATL@@@@@ATL@@V12@@@UAE@XZ ; CList<ATL::CStringT<char,StrTraitMFC_DLL<char,ATL::ChTraitsCRT<char> > >,ATL::CStringT<char,StrTraitMFC_DLL<char,ATL::ChTraitsCRT<char> > > >::~CList<ATL::CStringT<char,StrTraitMFC_DLL<char,ATL::ChTraitsCRT<char> > >,ATL::CStringT<char,StrTraitMFC_DLL<char,ATL::ChTraitsCRT<char> > > >
  0000b	8b 45 08	 mov	 eax, DWORD PTR ___flags$[ebp]
  0000e	a8 01		 test	 al, 1
  00010	74 1f		 je	 SHORT $LN9@scalar
  00012	a8 04		 test	 al, 4
  00014	75 10		 jne	 SHORT $LN3@scalar

; 112  : 	{ ::operator delete(p); }

  00016	56		 push	 esi
  00017	e8 00 00 00 00	 call	 ??3@YAXPAX@Z		; operator delete
  0001c	83 c4 04	 add	 esp, 4
  0001f	8b c6		 mov	 eax, esi
  00021	5e		 pop	 esi
  00022	5d		 pop	 ebp
  00023	c2 04 00	 ret	 4
$LN3@scalar:
  00026	6a 1c		 push	 28			; 0000001cH
  00028	56		 push	 esi
  00029	e8 00 00 00 00	 call	 ?__global_delete@@YAXPAXI@Z ; __global_delete
  0002e	83 c4 08	 add	 esp, 8
$LN9@scalar:
  00031	8b c6		 mov	 eax, esi
  00033	5e		 pop	 esi
  00034	5d		 pop	 ebp
  00035	c2 04 00	 ret	 4
??_G?$CList@V?$CStringT@DV?$StrTraitMFC_DLL@DV?$ChTraitsCRT@D@ATL@@@@@ATL@@V12@@@UAEPAXI@Z ENDP ; CList<ATL::CStringT<char,StrTraitMFC_DLL<char,ATL::ChTraitsCRT<char> > >,ATL::CStringT<char,StrTraitMFC_DLL<char,ATL::ChTraitsCRT<char> > > >::`scalar deleting destructor'
_TEXT	ENDS
; Function compile flags: /Ogtp
; File C:\Program Files (x86)\Microsoft Visual Studio\2019\Community\VC\Tools\MSVC\14.29.30133\atlmfc\include\afxtempl.h
; File C:\Program Files (x86)\Microsoft Visual Studio\2019\Community\VC\Tools\MSVC\14.29.30133\atlmfc\include\afx.inl
; File C:\Program Files (x86)\Microsoft Visual Studio\2019\Community\VC\Tools\MSVC\14.29.30133\atlmfc\include\afxtempl.h
; File C:\Program Files (x86)\Microsoft Visual Studio\2019\Community\VC\Tools\MSVC\14.29.30133\atlmfc\include\afx.inl
; File C:\Program Files (x86)\Microsoft Visual Studio\2019\Community\VC\Tools\MSVC\14.29.30133\atlmfc\include\afxtempl.h
;	COMDAT ?Serialize@?$CList@V?$CStringT@DV?$StrTraitMFC_DLL@DV?$ChTraitsCRT@D@ATL@@@@@ATL@@V12@@@UAEXAAVCArchive@@@Z
_TEXT	SEGMENT
_nNewCount$1$ = -24					; size = 4
$T2 = -20						; size = 4
_newData$3 = -16					; size = 4
__$EHRec$ = -12						; size = 12
_ar$ = 8						; size = 4
?Serialize@?$CList@V?$CStringT@DV?$StrTraitMFC_DLL@DV?$ChTraitsCRT@D@ATL@@@@@ATL@@V12@@@UAEXAAVCArchive@@@Z PROC ; CList<ATL::CStringT<char,StrTraitMFC_DLL<char,ATL::ChTraitsCRT<char> > >,ATL::CStringT<char,StrTraitMFC_DLL<char,ATL::ChTraitsCRT<char> > > >::Serialize, COMDAT
; _this$ = ecx

; 1169 : {

  00000	55		 push	 ebp
  00001	8b ec		 mov	 ebp, esp
  00003	6a ff		 push	 -1
  00005	68 00 00 00 00	 push	 __ehhandler$?Serialize@?$CList@V?$CStringT@DV?$StrTraitMFC_DLL@DV?$ChTraitsCRT@D@ATL@@@@@ATL@@V12@@@UAEXAAVCArchive@@@Z
  0000a	64 a1 00 00 00
	00		 mov	 eax, DWORD PTR fs:0
  00010	50		 push	 eax
  00011	83 ec 0c	 sub	 esp, 12			; 0000000cH
  00014	53		 push	 ebx
  00015	56		 push	 esi
  00016	57		 push	 edi
  00017	a1 00 00 00 00	 mov	 eax, DWORD PTR ___security_cookie
  0001c	33 c5		 xor	 eax, ebp
  0001e	50		 push	 eax
  0001f	8d 45 f4	 lea	 eax, DWORD PTR __$EHRec$[ebp]
  00022	64 a3 00 00 00
	00		 mov	 DWORD PTR fs:0, eax
  00028	8b f9		 mov	 edi, ecx
; File C:\Program Files (x86)\Microsoft Visual Studio\2019\Community\VC\Tools\MSVC\14.29.30133\atlmfc\include\afx.inl

; 212  : 	{ return (m_nMode & CArchive::load) == 0; }

  0002a	8b 5d 08	 mov	 ebx, DWORD PTR _ar$[ebp]
; File C:\Program Files (x86)\Microsoft Visual Studio\2019\Community\VC\Tools\MSVC\14.29.30133\atlmfc\include\afxtempl.h

; 1174 : 	if (ar.IsStoring())

  0002d	8b cb		 mov	 ecx, ebx
; File C:\Program Files (x86)\Microsoft Visual Studio\2019\Community\VC\Tools\MSVC\14.29.30133\atlmfc\include\afx.inl

; 212  : 	{ return (m_nMode & CArchive::load) == 0; }

  0002f	8b 43 18	 mov	 eax, DWORD PTR [ebx+24]
  00032	f7 d0		 not	 eax
  00034	a8 01		 test	 al, 1
; File C:\Program Files (x86)\Microsoft Visual Studio\2019\Community\VC\Tools\MSVC\14.29.30133\atlmfc\include\afxtempl.h

; 1174 : 	if (ar.IsStoring())

  00036	74 35		 je	 SHORT $LN7@Serialize

; 1175 : 	{
; 1176 : 		ar.WriteCount(m_nCount);

  00038	ff 77 0c	 push	 DWORD PTR [edi+12]
  0003b	e8 00 00 00 00	 call	 ?WriteCount@CArchive@@QAEXK@Z ; CArchive::WriteCount

; 1177 : 		for (CNode* pNode = m_pNodeHead; pNode != NULL; pNode = pNode->pNext)

  00040	8b 77 04	 mov	 esi, DWORD PTR [edi+4]
  00043	85 f6		 test	 esi, esi
  00045	74 12		 je	 SHORT $LN48@Serialize
$LL4@Serialize:

; 1178 : 		{
; 1179 : 			ASSERT(AfxIsValidAddress(pNode, sizeof(CNode)));
; 1180 : 			TYPE* pData;
; 1181 : 			/*
; 1182 : 			 * in some cases the & operator might be overloaded, and we cannot use it to obtain
; 1183 : 			 * the address of a given object.  We then use the following trick to get the address
; 1184 : 			 */
; 1185 : 			pData = reinterpret_cast< TYPE* >( &reinterpret_cast< int& >( static_cast< TYPE& >( pNode->data ) ) );
; 1186 : 			SerializeElements<TYPE>(ar, pData, 1);

  00047	6a 01		 push	 1
  00049	8d 46 08	 lea	 eax, DWORD PTR [esi+8]
  0004c	50		 push	 eax
  0004d	53		 push	 ebx
  0004e	e8 00 00 00 00	 call	 ??$SerializeElements@V?$CStringT@DV?$StrTraitMFC_DLL@DV?$ChTraitsCRT@D@ATL@@@@@ATL@@@@YGXAAVCArchive@@PAV?$CStringT@DV?$StrTraitMFC_DLL@DV?$ChTraitsCRT@D@ATL@@@@@ATL@@H@Z ; SerializeElements<ATL::CStringT<char,StrTraitMFC_DLL<char,ATL::ChTraitsCRT<char> > > >
  00053	8b 36		 mov	 esi, DWORD PTR [esi]
  00055	85 f6		 test	 esi, esi
  00057	75 ee		 jne	 SHORT $LL4@Serialize
$LN48@Serialize:

; 1198 : 	}
; 1199 : }

  00059	8b 4d f4	 mov	 ecx, DWORD PTR __$EHRec$[ebp]
  0005c	64 89 0d 00 00
	00 00		 mov	 DWORD PTR fs:0, ecx
  00063	59		 pop	 ecx
  00064	5f		 pop	 edi
  00065	5e		 pop	 esi
  00066	5b		 pop	 ebx
  00067	8b e5		 mov	 esp, ebp
  00069	5d		 pop	 ebp
  0006a	c2 04 00	 ret	 4
$LN7@Serialize:

; 1187 : 		}
; 1188 : 	}
; 1189 : 	else
; 1190 : 	{
; 1191 : 		DWORD_PTR nNewCount = ar.ReadCount();

  0006d	e8 00 00 00 00	 call	 ?ReadCount@CArchive@@QAEKXZ ; CArchive::ReadCount

; 1192 : 		while (nNewCount--)

  00072	85 c0		 test	 eax, eax
  00074	74 e3		 je	 SHORT $LN48@Serialize
  00076	66 66 0f 1f 84
	00 00 00 00 00	 npad	 10
$LL5@Serialize:

; 1193 : 		{
; 1194 : 			TYPE newData[1];

  00080	ff 35 00 00 00
	00		 push	 DWORD PTR __imp_??1?$CStringT@DV?$StrTraitMFC_DLL@DV?$ChTraitsCRT@D@ATL@@@@@ATL@@QAE@XZ
  00086	48		 dec	 eax
  00087	ff 35 00 00 00
	00		 push	 DWORD PTR __imp_??0?$CStringT@DV?$StrTraitMFC_DLL@DV?$ChTraitsCRT@D@ATL@@@@@ATL@@QAE@XZ
  0008d	89 45 e8	 mov	 DWORD PTR _nNewCount$1$[ebp], eax
  00090	8d 45 f0	 lea	 eax, DWORD PTR _newData$3[ebp]
  00093	6a 01		 push	 1
  00095	6a 04		 push	 4
  00097	50		 push	 eax
  00098	e8 00 00 00 00	 call	 ??_L@YGXPAXIIP6EX0@Z1@Z

; 1195 : 			SerializeElements<TYPE>(ar, newData, 1);

  0009d	6a 01		 push	 1
  0009f	8d 45 f0	 lea	 eax, DWORD PTR _newData$3[ebp]
  000a2	c7 45 fc 00 00
	00 00		 mov	 DWORD PTR __$EHRec$[ebp+8], 0
  000a9	50		 push	 eax
  000aa	53		 push	 ebx
  000ab	e8 00 00 00 00	 call	 ??$SerializeElements@V?$CStringT@DV?$StrTraitMFC_DLL@DV?$ChTraitsCRT@D@ATL@@@@@ATL@@@@YGXAAVCArchive@@PAV?$CStringT@DV?$StrTraitMFC_DLL@DV?$ChTraitsCRT@D@ATL@@@@@ATL@@H@Z ; SerializeElements<ATL::CStringT<char,StrTraitMFC_DLL<char,ATL::ChTraitsCRT<char> > > >

; 1196 : 			AddTail(newData[0]);

  000b0	8d 45 f0	 lea	 eax, DWORD PTR _newData$3[ebp]
  000b3	50		 push	 eax
  000b4	8d 4d ec	 lea	 ecx, DWORD PTR $T2[ebp]
  000b7	ff 15 00 00 00
	00		 call	 DWORD PTR __imp_??0?$CStringT@DV?$StrTraitMFC_DLL@DV?$ChTraitsCRT@D@ATL@@@@@ATL@@QAE@ABV01@@Z

; 902  : 	if (m_pNodeFree == NULL)

  000bd	8b 5f 10	 mov	 ebx, DWORD PTR [edi+16]

; 968  : 	CNode* pNewNode = NewNode(m_pNodeTail, NULL);

  000c0	8b 77 08	 mov	 esi, DWORD PTR [edi+8]
  000c3	c6 45 fc 01	 mov	 BYTE PTR __$EHRec$[ebp+8], 1

; 902  : 	if (m_pNodeFree == NULL)

  000c7	85 db		 test	 ebx, ebx
  000c9	75 40		 jne	 SHORT $LN46@Serialize

; 903  : 	{
; 904  : 		// add another block
; 905  : 		CPlex* pNewBlock = CPlex::Create(m_pBlocks, m_nBlockSize,

  000cb	6a 0c		 push	 12			; 0000000cH
  000cd	ff 77 18	 push	 DWORD PTR [edi+24]
  000d0	8d 47 14	 lea	 eax, DWORD PTR [edi+20]
  000d3	50		 push	 eax
  000d4	e8 00 00 00 00	 call	 ?Create@CPlex@@SGPAU1@AAPAU1@II@Z ; CPlex::Create

; 906  : 				 sizeof(CNode));
; 907  : 
; 908  : 		// chain them into free list
; 909  : 		CNode* pNode = (CNode*) pNewBlock->data();
; 910  : 		// free in reverse order to make it easier to debug
; 911  : 		pNode += m_nBlockSize - 1;

  000d9	8b 57 18	 mov	 edx, DWORD PTR [edi+24]
  000dc	8d 0c 52	 lea	 ecx, DWORD PTR [edx+edx*2]
  000df	8d 04 88	 lea	 eax, DWORD PTR [eax+ecx*4]
  000e2	83 c0 fc	 add	 eax, -4			; fffffffcH

; 912  : 		for (INT_PTR i = m_nBlockSize-1; i >= 0; i--, pNode--)

  000e5	83 c2 ff	 add	 edx, -1
  000e8	78 1a		 js	 SHORT $LN47@Serialize
  000ea	66 0f 1f 44 00
	00		 npad	 6
$LL22@Serialize:

; 913  : 		{
; 914  : 			pNode->pNext = m_pNodeFree;

  000f0	8b 4f 10	 mov	 ecx, DWORD PTR [edi+16]
  000f3	8b d8		 mov	 ebx, eax
  000f5	89 08		 mov	 DWORD PTR [eax], ecx

; 915  : 			m_pNodeFree = pNode;

  000f7	89 47 10	 mov	 DWORD PTR [edi+16], eax
  000fa	83 e8 0c	 sub	 eax, 12			; 0000000cH
  000fd	83 ea 01	 sub	 edx, 1
  00100	79 ee		 jns	 SHORT $LL22@Serialize
  00102	eb 03		 jmp	 SHORT $LN25@Serialize
$LN47@Serialize:
  00104	8b 5f 10	 mov	 ebx, DWORD PTR [edi+16]
$LN25@Serialize:

; 916  : 		}
; 917  : 	}
; 918  : 	ENSURE(m_pNodeFree != NULL);  // we must have something

  00107	85 db		 test	 ebx, ebx
  00109	74 6e		 je	 SHORT $LN34@Serialize
$LN46@Serialize:

; 919  : 
; 920  : 	CList::CNode* pNode = m_pNodeFree;
; 921  : 	m_pNodeFree = m_pNodeFree->pNext;

  0010b	8b 03		 mov	 eax, DWORD PTR [ebx]

; 922  : 	pNode->pPrev = pPrev;
; 923  : 	pNode->pNext = pNext;
; 924  : 	m_nCount++;
; 925  : 	ASSERT(m_nCount > 0);  // make sure we don't overflow
; 926  : 
; 927  : #pragma push_macro("new")
; 928  : #undef new
; 929  : 	::new( (void*)( &pNode->data ) ) TYPE;

  0010d	8d 4b 08	 lea	 ecx, DWORD PTR [ebx+8]
  00110	89 47 10	 mov	 DWORD PTR [edi+16], eax
  00113	89 73 04	 mov	 DWORD PTR [ebx+4], esi
  00116	c7 03 00 00 00
	00		 mov	 DWORD PTR [ebx], 0
  0011c	ff 47 0c	 inc	 DWORD PTR [edi+12]
  0011f	ff 15 00 00 00
	00		 call	 DWORD PTR __imp_??0?$CStringT@DV?$StrTraitMFC_DLL@DV?$ChTraitsCRT@D@ATL@@@@@ATL@@QAE@XZ

; 969  : 	pNewNode->data = newElement;

  00125	8d 45 ec	 lea	 eax, DWORD PTR $T2[ebp]
  00128	50		 push	 eax
  00129	8d 4b 08	 lea	 ecx, DWORD PTR [ebx+8]
  0012c	ff 15 00 00 00
	00		 call	 DWORD PTR __imp_??4?$CStringT@DV?$StrTraitMFC_DLL@DV?$ChTraitsCRT@D@ATL@@@@@ATL@@QAEAAV01@ABV01@@Z

; 970  : 	if (m_pNodeTail != NULL)

  00132	8b 47 08	 mov	 eax, DWORD PTR [edi+8]
  00135	85 c0		 test	 eax, eax
  00137	74 04		 je	 SHORT $LN15@Serialize

; 971  : 		m_pNodeTail->pNext = pNewNode;

  00139	89 18		 mov	 DWORD PTR [eax], ebx
  0013b	eb 03		 jmp	 SHORT $LN16@Serialize
$LN15@Serialize:

; 972  : 	else
; 973  : 		m_pNodeHead = pNewNode;

  0013d	89 5f 04	 mov	 DWORD PTR [edi+4], ebx
$LN16@Serialize:

; 974  : 	m_pNodeTail = pNewNode;
; 975  : 	return (POSITION) pNewNode;

  00140	8d 4d ec	 lea	 ecx, DWORD PTR $T2[ebp]
  00143	89 5f 08	 mov	 DWORD PTR [edi+8], ebx
  00146	ff 15 00 00 00
	00		 call	 DWORD PTR __imp_??1?$CStringT@DV?$StrTraitMFC_DLL@DV?$ChTraitsCRT@D@ATL@@@@@ATL@@QAE@XZ

; 1197 : 		}

  0014c	ff 35 00 00 00
	00		 push	 DWORD PTR __imp_??1?$CStringT@DV?$StrTraitMFC_DLL@DV?$ChTraitsCRT@D@ATL@@@@@ATL@@QAE@XZ
  00152	8d 45 f0	 lea	 eax, DWORD PTR _newData$3[ebp]
  00155	c7 45 fc ff ff
	ff ff		 mov	 DWORD PTR __$EHRec$[ebp+8], -1
  0015c	6a 01		 push	 1
  0015e	6a 04		 push	 4
  00160	50		 push	 eax
  00161	e8 00 00 00 00	 call	 ??_M@YGXPAXIIP6EX0@Z@Z
  00166	8b 45 e8	 mov	 eax, DWORD PTR _nNewCount$1$[ebp]
  00169	85 c0		 test	 eax, eax
  0016b	0f 84 e8 fe ff
	ff		 je	 $LN48@Serialize

; 1192 : 		while (nNewCount--)

  00171	8b 5d 08	 mov	 ebx, DWORD PTR _ar$[ebp]
  00174	e9 07 ff ff ff	 jmp	 $LL5@Serialize
$LN34@Serialize:

; 918  : 	ENSURE(m_pNodeFree != NULL);  // we must have something

  00179	e8 00 00 00 00	 call	 ?AfxThrowInvalidArgException@@YGXXZ ; AfxThrowInvalidArgException
$LN50@Serialize:
  0017e	cc		 int	 3
_TEXT	ENDS
;	COMDAT text$x
text$x	SEGMENT
__unwindfunclet$?Serialize@?$CList@V?$CStringT@DV?$StrTraitMFC_DLL@DV?$ChTraitsCRT@D@ATL@@@@@ATL@@V12@@@UAEXAAVCArchive@@@Z$0:
  00000	a1 00 00 00 00	 mov	 eax, DWORD PTR __imp_??1?$CStringT@DV?$StrTraitMFC_DLL@DV?$ChTraitsCRT@D@ATL@@@@@ATL@@QAE@XZ
  00005	50		 push	 eax
  00006	6a 01		 push	 1
  00008	6a 04		 push	 4
  0000a	8d 45 f0	 lea	 eax, DWORD PTR _newData$3[ebp]
  0000d	50		 push	 eax
  0000e	e8 00 00 00 00	 call	 ??_M@YGXPAXIIP6EX0@Z@Z
  00013	c3		 ret	 0
__unwindfunclet$?Serialize@?$CList@V?$CStringT@DV?$StrTraitMFC_DLL@DV?$ChTraitsCRT@D@ATL@@@@@ATL@@V12@@@UAEXAAVCArchive@@@Z$2:
  00014	8d 4d ec	 lea	 ecx, DWORD PTR $T2[ebp]
  00017	ff 25 00 00 00
	00		 jmp	 DWORD PTR __imp_??1?$CStringT@DV?$StrTraitMFC_DLL@DV?$ChTraitsCRT@D@ATL@@@@@ATL@@QAE@XZ
  0001d	cc		 int	 3
  0001e	cc		 int	 3
  0001f	cc		 int	 3
  00020	cc		 int	 3
  00021	cc		 int	 3
__ehhandler$?Serialize@?$CList@V?$CStringT@DV?$StrTraitMFC_DLL@DV?$ChTraitsCRT@D@ATL@@@@@ATL@@V12@@@UAEXAAVCArchive@@@Z:
  00022	90		 npad	 1
  00023	90		 npad	 1
  00024	8b 54 24 08	 mov	 edx, DWORD PTR [esp+8]
  00028	8d 42 0c	 lea	 eax, DWORD PTR [edx+12]
  0002b	8b 4a e4	 mov	 ecx, DWORD PTR [edx-28]
  0002e	33 c8		 xor	 ecx, eax
  00030	e8 00 00 00 00	 call	 @__security_check_cookie@4
  00035	b8 00 00 00 00	 mov	 eax, OFFSET __ehfuncinfo$?Serialize@?$CList@V?$CStringT@DV?$StrTraitMFC_DLL@DV?$ChTraitsCRT@D@ATL@@@@@ATL@@V12@@@UAEXAAVCArchive@@@Z
  0003a	e9 00 00 00 00	 jmp	 ___CxxFrameHandler3
text$x	ENDS
?Serialize@?$CList@V?$CStringT@DV?$StrTraitMFC_DLL@DV?$ChTraitsCRT@D@ATL@@@@@ATL@@V12@@@UAEXAAVCArchive@@@Z ENDP ; CList<ATL::CStringT<char,StrTraitMFC_DLL<char,ATL::ChTraitsCRT<char> > >,ATL::CStringT<char,StrTraitMFC_DLL<char,ATL::ChTraitsCRT<char> > > >::Serialize
; Function compile flags: /Ogtp
; File C:\Program Files (x86)\Microsoft Visual Studio\2019\Community\VC\Tools\MSVC\14.29.30133\atlmfc\include\afxtempl.h
;	COMDAT ??1?$CList@V?$CStringT@DV?$StrTraitMFC_DLL@DV?$ChTraitsCRT@D@ATL@@@@@ATL@@V12@@@UAE@XZ
_TEXT	SEGMENT
__$EHRec$ = -12						; size = 12
??1?$CList@V?$CStringT@DV?$StrTraitMFC_DLL@DV?$ChTraitsCRT@D@ATL@@@@@ATL@@V12@@@UAE@XZ PROC ; CList<ATL::CStringT<char,StrTraitMFC_DLL<char,ATL::ChTraitsCRT<char> > >,ATL::CStringT<char,StrTraitMFC_DLL<char,ATL::ChTraitsCRT<char> > > >::~CList<ATL::CStringT<char,StrTraitMFC_DLL<char,ATL::ChTraitsCRT<char> > >,ATL::CStringT<char,StrTraitMFC_DLL<char,ATL::ChTraitsCRT<char> > > >, COMDAT
; _this$ = ecx

; 878  : {

  00000	55		 push	 ebp
  00001	8b ec		 mov	 ebp, esp
  00003	6a ff		 push	 -1
  00005	68 00 00 00 00	 push	 __ehhandler$??1?$CList@V?$CStringT@DV?$StrTraitMFC_DLL@DV?$ChTraitsCRT@D@ATL@@@@@ATL@@V12@@@UAE@XZ
  0000a	64 a1 00 00 00
	00		 mov	 eax, DWORD PTR fs:0
  00010	50		 push	 eax
  00011	56		 push	 esi
  00012	57		 push	 edi
  00013	a1 00 00 00 00	 mov	 eax, DWORD PTR ___security_cookie
  00018	33 c5		 xor	 eax, ebp
  0001a	50		 push	 eax
  0001b	8d 45 f4	 lea	 eax, DWORD PTR __$EHRec$[ebp]
  0001e	64 a3 00 00 00
	00		 mov	 DWORD PTR fs:0, eax
  00024	8b f9		 mov	 edi, ecx

; 867  : 	for (pNode = m_pNodeHead; pNode != NULL; pNode = pNode->pNext)

  00026	8b 77 04	 mov	 esi, DWORD PTR [edi+4]

; 878  : {

  00029	c7 07 00 00 00
	00		 mov	 DWORD PTR [edi], OFFSET ??_7?$CList@V?$CStringT@DV?$StrTraitMFC_DLL@DV?$ChTraitsCRT@D@ATL@@@@@ATL@@V12@@@6B@

; 867  : 	for (pNode = m_pNodeHead; pNode != NULL; pNode = pNode->pNext)

  0002f	85 f6		 test	 esi, esi
  00031	74 0f		 je	 SHORT $LN5@CList
$LL6@CList:

; 868  : 		pNode->data.~TYPE();

  00033	8d 4e 08	 lea	 ecx, DWORD PTR [esi+8]
  00036	ff 15 00 00 00
	00		 call	 DWORD PTR __imp_??1?$CStringT@DV?$StrTraitMFC_DLL@DV?$ChTraitsCRT@D@ATL@@@@@ATL@@QAE@XZ

; 867  : 	for (pNode = m_pNodeHead; pNode != NULL; pNode = pNode->pNext)

  0003c	8b 36		 mov	 esi, DWORD PTR [esi]
  0003e	85 f6		 test	 esi, esi
  00040	75 f1		 jne	 SHORT $LL6@CList
$LN5@CList:

; 869  : 
; 870  : 	m_nCount = 0;
; 871  : 	m_pNodeHead = m_pNodeTail = m_pNodeFree = NULL;
; 872  : 	m_pBlocks->FreeDataChain();

  00042	8b 4f 14	 mov	 ecx, DWORD PTR [edi+20]
  00045	c7 47 0c 00 00
	00 00		 mov	 DWORD PTR [edi+12], 0
  0004c	c7 47 10 00 00
	00 00		 mov	 DWORD PTR [edi+16], 0
  00053	c7 47 08 00 00
	00 00		 mov	 DWORD PTR [edi+8], 0
  0005a	c7 47 04 00 00
	00 00		 mov	 DWORD PTR [edi+4], 0
  00061	e8 00 00 00 00	 call	 ?FreeDataChain@CPlex@@QAEXXZ ; CPlex::FreeDataChain

; 873  : 	m_pBlocks = NULL;

  00066	c7 47 14 00 00
	00 00		 mov	 DWORD PTR [edi+20], 0

; 879  : 	RemoveAll();
; 880  : 	ASSERT(m_nCount == 0);
; 881  : }

  0006d	8b 4d f4	 mov	 ecx, DWORD PTR __$EHRec$[ebp]
  00070	64 89 0d 00 00
	00 00		 mov	 DWORD PTR fs:0, ecx
  00077	59		 pop	 ecx
  00078	5f		 pop	 edi
  00079	5e		 pop	 esi
  0007a	8b e5		 mov	 esp, ebp
  0007c	5d		 pop	 ebp
  0007d	c3		 ret	 0
  0007e	cc		 int	 3
  0007f	cc		 int	 3
  00080	cc		 int	 3
  00081	cc		 int	 3
  00082	cc		 int	 3
_TEXT	ENDS
;	COMDAT text$x
text$x	SEGMENT
__ehhandler$??1?$CList@V?$CStringT@DV?$StrTraitMFC_DLL@DV?$ChTraitsCRT@D@ATL@@@@@ATL@@V12@@@UAE@XZ:
  00000	90		 npad	 1
  00001	90		 npad	 1
  00002	8b 54 24 08	 mov	 edx, DWORD PTR [esp+8]
  00006	8d 42 0c	 lea	 eax, DWORD PTR [edx+12]
  00009	8b 4a f4	 mov	 ecx, DWORD PTR [edx-12]
  0000c	33 c8		 xor	 ecx, eax
  0000e	e8 00 00 00 00	 call	 @__security_check_cookie@4
  00013	b8 00 00 00 00	 mov	 eax, OFFSET __ehfuncinfo$??1?$CList@V?$CStringT@DV?$StrTraitMFC_DLL@DV?$ChTraitsCRT@D@ATL@@@@@ATL@@V12@@@UAE@XZ
  00018	e9 00 00 00 00	 jmp	 ___CxxFrameHandler3
text$x	ENDS
??1?$CList@V?$CStringT@DV?$StrTraitMFC_DLL@DV?$ChTraitsCRT@D@ATL@@@@@ATL@@V12@@@UAE@XZ ENDP ; CList<ATL::CStringT<char,StrTraitMFC_DLL<char,ATL::ChTraitsCRT<char> > >,ATL::CStringT<char,StrTraitMFC_DLL<char,ATL::ChTraitsCRT<char> > > >::~CList<ATL::CStringT<char,StrTraitMFC_DLL<char,ATL::ChTraitsCRT<char> > >,ATL::CStringT<char,StrTraitMFC_DLL<char,ATL::ChTraitsCRT<char> > > >
; Function compile flags: /Ogtp
; File C:\Program Files (x86)\Microsoft Visual Studio\2019\Community\VC\Tools\MSVC\14.29.30133\atlmfc\include\afxtempl.h
;	COMDAT ?NewNode@?$CList@V?$CStringT@DV?$StrTraitMFC_DLL@DV?$ChTraitsCRT@D@ATL@@@@@ATL@@V12@@@IAEPAUCNode@1@PAU21@0@Z
_TEXT	SEGMENT
_pPrev$ = 8						; size = 4
_pNext$ = 12						; size = 4
?NewNode@?$CList@V?$CStringT@DV?$StrTraitMFC_DLL@DV?$ChTraitsCRT@D@ATL@@@@@ATL@@V12@@@IAEPAUCNode@1@PAU21@0@Z PROC ; CList<ATL::CStringT<char,StrTraitMFC_DLL<char,ATL::ChTraitsCRT<char> > >,ATL::CStringT<char,StrTraitMFC_DLL<char,ATL::ChTraitsCRT<char> > > >::NewNode, COMDAT
; _this$ = ecx

; 901  : {

  00000	55		 push	 ebp
  00001	8b ec		 mov	 ebp, esp
  00003	56		 push	 esi
  00004	8b f1		 mov	 esi, ecx
  00006	57		 push	 edi

; 902  : 	if (m_pNodeFree == NULL)

  00007	83 7e 10 00	 cmp	 DWORD PTR [esi+16], 0
  0000b	75 33		 jne	 SHORT $LN7@NewNode

; 903  : 	{
; 904  : 		// add another block
; 905  : 		CPlex* pNewBlock = CPlex::Create(m_pBlocks, m_nBlockSize,

  0000d	6a 0c		 push	 12			; 0000000cH
  0000f	ff 76 18	 push	 DWORD PTR [esi+24]
  00012	8d 46 14	 lea	 eax, DWORD PTR [esi+20]
  00015	50		 push	 eax
  00016	e8 00 00 00 00	 call	 ?Create@CPlex@@SGPAU1@AAPAU1@II@Z ; CPlex::Create

; 906  : 				 sizeof(CNode));
; 907  : 
; 908  : 		// chain them into free list
; 909  : 		CNode* pNode = (CNode*) pNewBlock->data();
; 910  : 		// free in reverse order to make it easier to debug
; 911  : 		pNode += m_nBlockSize - 1;

  0001b	8b 56 18	 mov	 edx, DWORD PTR [esi+24]
  0001e	83 c0 08	 add	 eax, 8
  00021	8d 0c 52	 lea	 ecx, DWORD PTR [edx+edx*2]
  00024	8d 04 88	 lea	 eax, DWORD PTR [eax+ecx*4]
  00027	83 c0 f4	 add	 eax, -12		; fffffff4H

; 912  : 		for (INT_PTR i = m_nBlockSize-1; i >= 0; i--, pNode--)

  0002a	83 c2 ff	 add	 edx, -1
  0002d	78 11		 js	 SHORT $LN7@NewNode
  0002f	90		 npad	 1
$LL4@NewNode:

; 913  : 		{
; 914  : 			pNode->pNext = m_pNodeFree;

  00030	8b 4e 10	 mov	 ecx, DWORD PTR [esi+16]
  00033	89 08		 mov	 DWORD PTR [eax], ecx

; 915  : 			m_pNodeFree = pNode;

  00035	89 46 10	 mov	 DWORD PTR [esi+16], eax
  00038	83 e8 0c	 sub	 eax, 12			; 0000000cH
  0003b	83 ea 01	 sub	 edx, 1
  0003e	79 f0		 jns	 SHORT $LL4@NewNode
$LN7@NewNode:

; 916  : 		}
; 917  : 	}
; 918  : 	ENSURE(m_pNodeFree != NULL);  // we must have something

  00040	8b 7e 10	 mov	 edi, DWORD PTR [esi+16]
  00043	85 ff		 test	 edi, edi
  00045	74 24		 je	 SHORT $LN17@NewNode

; 919  : 
; 920  : 	CList::CNode* pNode = m_pNodeFree;
; 921  : 	m_pNodeFree = m_pNodeFree->pNext;

  00047	8b 07		 mov	 eax, DWORD PTR [edi]

; 922  : 	pNode->pPrev = pPrev;

  00049	8b 4d 08	 mov	 ecx, DWORD PTR _pPrev$[ebp]
  0004c	89 46 10	 mov	 DWORD PTR [esi+16], eax
  0004f	89 4f 04	 mov	 DWORD PTR [edi+4], ecx

; 923  : 	pNode->pNext = pNext;

  00052	8b 4d 0c	 mov	 ecx, DWORD PTR _pNext$[ebp]
  00055	89 0f		 mov	 DWORD PTR [edi], ecx

; 924  : 	m_nCount++;
; 925  : 	ASSERT(m_nCount > 0);  // make sure we don't overflow
; 926  : 
; 927  : #pragma push_macro("new")
; 928  : #undef new
; 929  : 	::new( (void*)( &pNode->data ) ) TYPE;

  00057	8d 4f 08	 lea	 ecx, DWORD PTR [edi+8]
  0005a	ff 46 0c	 inc	 DWORD PTR [esi+12]
  0005d	ff 15 00 00 00
	00		 call	 DWORD PTR __imp_??0?$CStringT@DV?$StrTraitMFC_DLL@DV?$ChTraitsCRT@D@ATL@@@@@ATL@@QAE@XZ

; 930  : #pragma pop_macro("new")
; 931  : 	return pNode;

  00063	8b c7		 mov	 eax, edi
  00065	5f		 pop	 edi
  00066	5e		 pop	 esi

; 932  : }

  00067	5d		 pop	 ebp
  00068	c2 08 00	 ret	 8
$LN17@NewNode:

; 916  : 		}
; 917  : 	}
; 918  : 	ENSURE(m_pNodeFree != NULL);  // we must have something

  0006b	e8 00 00 00 00	 call	 ?AfxThrowInvalidArgException@@YGXXZ ; AfxThrowInvalidArgException
$LN15@NewNode:
  00070	cc		 int	 3
?NewNode@?$CList@V?$CStringT@DV?$StrTraitMFC_DLL@DV?$ChTraitsCRT@D@ATL@@@@@ATL@@V12@@@IAEPAUCNode@1@PAU21@0@Z ENDP ; CList<ATL::CStringT<char,StrTraitMFC_DLL<char,ATL::ChTraitsCRT<char> > >,ATL::CStringT<char,StrTraitMFC_DLL<char,ATL::ChTraitsCRT<char> > > >::NewNode
_TEXT	ENDS
; Function compile flags: /Ogtp
; File C:\Program Files (x86)\Microsoft Visual Studio\2019\Community\VC\Tools\MSVC\14.29.30133\atlmfc\include\afxtempl.h
;	COMDAT ?RemoveAll@?$CList@V?$CStringT@DV?$StrTraitMFC_DLL@DV?$ChTraitsCRT@D@ATL@@@@@ATL@@V12@@@QAEXXZ
_TEXT	SEGMENT
?RemoveAll@?$CList@V?$CStringT@DV?$StrTraitMFC_DLL@DV?$ChTraitsCRT@D@ATL@@@@@ATL@@V12@@@QAEXXZ PROC ; CList<ATL::CStringT<char,StrTraitMFC_DLL<char,ATL::ChTraitsCRT<char> > >,ATL::CStringT<char,StrTraitMFC_DLL<char,ATL::ChTraitsCRT<char> > > >::RemoveAll, COMDAT
; _this$ = ecx

; 862  : {

  00000	56		 push	 esi
  00001	57		 push	 edi
  00002	8b f9		 mov	 edi, ecx

; 863  : 	ASSERT_VALID(this);
; 864  : 
; 865  : 	// destroy elements
; 866  : 	CNode* pNode;
; 867  : 	for (pNode = m_pNodeHead; pNode != NULL; pNode = pNode->pNext)

  00004	8b 77 04	 mov	 esi, DWORD PTR [edi+4]
  00007	85 f6		 test	 esi, esi
  00009	74 14		 je	 SHORT $LN3@RemoveAll
  0000b	0f 1f 44 00 00	 npad	 5
$LL4@RemoveAll:

; 868  : 		pNode->data.~TYPE();

  00010	8d 4e 08	 lea	 ecx, DWORD PTR [esi+8]
  00013	ff 15 00 00 00
	00		 call	 DWORD PTR __imp_??1?$CStringT@DV?$StrTraitMFC_DLL@DV?$ChTraitsCRT@D@ATL@@@@@ATL@@QAE@XZ
  00019	8b 36		 mov	 esi, DWORD PTR [esi]
  0001b	85 f6		 test	 esi, esi
  0001d	75 f1		 jne	 SHORT $LL4@RemoveAll
$LN3@RemoveAll:

; 869  : 
; 870  : 	m_nCount = 0;
; 871  : 	m_pNodeHead = m_pNodeTail = m_pNodeFree = NULL;
; 872  : 	m_pBlocks->FreeDataChain();

  0001f	8b 4f 14	 mov	 ecx, DWORD PTR [edi+20]
  00022	c7 47 0c 00 00
	00 00		 mov	 DWORD PTR [edi+12], 0
  00029	c7 47 10 00 00
	00 00		 mov	 DWORD PTR [edi+16], 0
  00030	c7 47 08 00 00
	00 00		 mov	 DWORD PTR [edi+8], 0
  00037	c7 47 04 00 00
	00 00		 mov	 DWORD PTR [edi+4], 0
  0003e	e8 00 00 00 00	 call	 ?FreeDataChain@CPlex@@QAEXXZ ; CPlex::FreeDataChain

; 873  : 	m_pBlocks = NULL;

  00043	c7 47 14 00 00
	00 00		 mov	 DWORD PTR [edi+20], 0
  0004a	5f		 pop	 edi
  0004b	5e		 pop	 esi

; 874  : }

  0004c	c3		 ret	 0
?RemoveAll@?$CList@V?$CStringT@DV?$StrTraitMFC_DLL@DV?$ChTraitsCRT@D@ATL@@@@@ATL@@V12@@@QAEXXZ ENDP ; CList<ATL::CStringT<char,StrTraitMFC_DLL<char,ATL::ChTraitsCRT<char> > >,ATL::CStringT<char,StrTraitMFC_DLL<char,ATL::ChTraitsCRT<char> > > >::RemoveAll
_TEXT	ENDS
; Function compile flags: /Ogtp
; File C:\Program Files (x86)\Microsoft Visual Studio\2019\Community\VC\Tools\MSVC\14.29.30133\atlmfc\include\afxtempl.h
;	COMDAT ?AddTail@?$CList@V?$CStringT@DV?$StrTraitMFC_DLL@DV?$ChTraitsCRT@D@ATL@@@@@ATL@@V12@@@QAEPAU__POSITION@@V?$CStringT@DV?$StrTraitMFC_DLL@DV?$ChTraitsCRT@D@ATL@@@@@ATL@@@Z
_TEXT	SEGMENT
__$EHRec$ = -12						; size = 12
_newElement$ = 8					; size = 4
?AddTail@?$CList@V?$CStringT@DV?$StrTraitMFC_DLL@DV?$ChTraitsCRT@D@ATL@@@@@ATL@@V12@@@QAEPAU__POSITION@@V?$CStringT@DV?$StrTraitMFC_DLL@DV?$ChTraitsCRT@D@ATL@@@@@ATL@@@Z PROC ; CList<ATL::CStringT<char,StrTraitMFC_DLL<char,ATL::ChTraitsCRT<char> > >,ATL::CStringT<char,StrTraitMFC_DLL<char,ATL::ChTraitsCRT<char> > > >::AddTail, COMDAT
; _this$ = ecx

; 965  : {

  00000	55		 push	 ebp
  00001	8b ec		 mov	 ebp, esp
  00003	6a ff		 push	 -1
  00005	68 00 00 00 00	 push	 __ehhandler$?AddTail@?$CList@V?$CStringT@DV?$StrTraitMFC_DLL@DV?$ChTraitsCRT@D@ATL@@@@@ATL@@V12@@@QAEPAU__POSITION@@V?$CStringT@DV?$StrTraitMFC_DLL@DV?$ChTraitsCRT@D@ATL@@@@@ATL@@@Z
  0000a	64 a1 00 00 00
	00		 mov	 eax, DWORD PTR fs:0
  00010	50		 push	 eax
  00011	53		 push	 ebx
  00012	56		 push	 esi
  00013	57		 push	 edi
  00014	a1 00 00 00 00	 mov	 eax, DWORD PTR ___security_cookie
  00019	33 c5		 xor	 eax, ebp
  0001b	50		 push	 eax
  0001c	8d 45 f4	 lea	 eax, DWORD PTR __$EHRec$[ebp]
  0001f	64 a3 00 00 00
	00		 mov	 DWORD PTR fs:0, eax
  00025	8b f1		 mov	 esi, ecx

; 902  : 	if (m_pNodeFree == NULL)

  00027	83 7e 10 00	 cmp	 DWORD PTR [esi+16], 0

; 966  : 	ASSERT_VALID(this);
; 967  : 
; 968  : 	CNode* pNewNode = NewNode(m_pNodeTail, NULL);

  0002b	8b 7e 08	 mov	 edi, DWORD PTR [esi+8]
  0002e	c7 45 fc 00 00
	00 00		 mov	 DWORD PTR __$EHRec$[ebp+8], 0

; 902  : 	if (m_pNodeFree == NULL)

  00035	75 39		 jne	 SHORT $LN12@AddTail

; 903  : 	{
; 904  : 		// add another block
; 905  : 		CPlex* pNewBlock = CPlex::Create(m_pBlocks, m_nBlockSize,

  00037	6a 0c		 push	 12			; 0000000cH
  00039	ff 76 18	 push	 DWORD PTR [esi+24]
  0003c	8d 46 14	 lea	 eax, DWORD PTR [esi+20]
  0003f	50		 push	 eax
  00040	e8 00 00 00 00	 call	 ?Create@CPlex@@SGPAU1@AAPAU1@II@Z ; CPlex::Create

; 906  : 				 sizeof(CNode));
; 907  : 
; 908  : 		// chain them into free list
; 909  : 		CNode* pNode = (CNode*) pNewBlock->data();
; 910  : 		// free in reverse order to make it easier to debug
; 911  : 		pNode += m_nBlockSize - 1;

  00045	8b 56 18	 mov	 edx, DWORD PTR [esi+24]
  00048	83 c0 08	 add	 eax, 8
  0004b	8d 4a ff	 lea	 ecx, DWORD PTR [edx-1]

; 912  : 		for (INT_PTR i = m_nBlockSize-1; i >= 0; i--, pNode--)

  0004e	83 c2 ff	 add	 edx, -1
  00051	8d 0c 49	 lea	 ecx, DWORD PTR [ecx+ecx*2]
  00054	8d 0c 88	 lea	 ecx, DWORD PTR [eax+ecx*4]
  00057	78 17		 js	 SHORT $LN12@AddTail
  00059	0f 1f 80 00 00
	00 00		 npad	 7
$LL9@AddTail:

; 913  : 		{
; 914  : 			pNode->pNext = m_pNodeFree;

  00060	8b 46 10	 mov	 eax, DWORD PTR [esi+16]
  00063	89 01		 mov	 DWORD PTR [ecx], eax

; 915  : 			m_pNodeFree = pNode;

  00065	89 4e 10	 mov	 DWORD PTR [esi+16], ecx
  00068	83 e9 0c	 sub	 ecx, 12			; 0000000cH
  0006b	83 ea 01	 sub	 edx, 1
  0006e	79 f0		 jns	 SHORT $LL9@AddTail
$LN12@AddTail:

; 916  : 		}
; 917  : 	}
; 918  : 	ENSURE(m_pNodeFree != NULL);  // we must have something

  00070	8b 5e 10	 mov	 ebx, DWORD PTR [esi+16]
  00073	85 db		 test	 ebx, ebx
  00075	74 57		 je	 SHORT $LN24@AddTail

; 919  : 
; 920  : 	CList::CNode* pNode = m_pNodeFree;
; 921  : 	m_pNodeFree = m_pNodeFree->pNext;

  00077	8b 03		 mov	 eax, DWORD PTR [ebx]

; 922  : 	pNode->pPrev = pPrev;
; 923  : 	pNode->pNext = pNext;
; 924  : 	m_nCount++;
; 925  : 	ASSERT(m_nCount > 0);  // make sure we don't overflow
; 926  : 
; 927  : #pragma push_macro("new")
; 928  : #undef new
; 929  : 	::new( (void*)( &pNode->data ) ) TYPE;

  00079	8d 4b 08	 lea	 ecx, DWORD PTR [ebx+8]
  0007c	89 46 10	 mov	 DWORD PTR [esi+16], eax
  0007f	89 7b 04	 mov	 DWORD PTR [ebx+4], edi
  00082	c7 03 00 00 00
	00		 mov	 DWORD PTR [ebx], 0
  00088	ff 46 0c	 inc	 DWORD PTR [esi+12]
  0008b	ff 15 00 00 00
	00		 call	 DWORD PTR __imp_??0?$CStringT@DV?$StrTraitMFC_DLL@DV?$ChTraitsCRT@D@ATL@@@@@ATL@@QAE@XZ

; 969  : 	pNewNode->data = newElement;

  00091	8d 45 08	 lea	 eax, DWORD PTR _newElement$[ebp]
  00094	50		 push	 eax
  00095	8d 4b 08	 lea	 ecx, DWORD PTR [ebx+8]
  00098	ff 15 00 00 00
	00		 call	 DWORD PTR __imp_??4?$CStringT@DV?$StrTraitMFC_DLL@DV?$ChTraitsCRT@D@ATL@@@@@ATL@@QAEAAV01@ABV01@@Z

; 970  : 	if (m_pNodeTail != NULL)

  0009e	8b 46 08	 mov	 eax, DWORD PTR [esi+8]
  000a1	85 c0		 test	 eax, eax
  000a3	74 04		 je	 SHORT $LN2@AddTail

; 971  : 		m_pNodeTail->pNext = pNewNode;

  000a5	89 18		 mov	 DWORD PTR [eax], ebx
  000a7	eb 03		 jmp	 SHORT $LN3@AddTail
$LN2@AddTail:

; 972  : 	else
; 973  : 		m_pNodeHead = pNewNode;

  000a9	89 5e 04	 mov	 DWORD PTR [esi+4], ebx
$LN3@AddTail:

; 974  : 	m_pNodeTail = pNewNode;
; 975  : 	return (POSITION) pNewNode;

  000ac	8d 4d 08	 lea	 ecx, DWORD PTR _newElement$[ebp]
  000af	89 5e 08	 mov	 DWORD PTR [esi+8], ebx
  000b2	ff 15 00 00 00
	00		 call	 DWORD PTR __imp_??1?$CStringT@DV?$StrTraitMFC_DLL@DV?$ChTraitsCRT@D@ATL@@@@@ATL@@QAE@XZ
  000b8	8b c3		 mov	 eax, ebx

; 976  : }

  000ba	8b 4d f4	 mov	 ecx, DWORD PTR __$EHRec$[ebp]
  000bd	64 89 0d 00 00
	00 00		 mov	 DWORD PTR fs:0, ecx
  000c4	59		 pop	 ecx
  000c5	5f		 pop	 edi
  000c6	5e		 pop	 esi
  000c7	5b		 pop	 ebx
  000c8	8b e5		 mov	 esp, ebp
  000ca	5d		 pop	 ebp
  000cb	c2 04 00	 ret	 4
$LN24@AddTail:

; 918  : 	ENSURE(m_pNodeFree != NULL);  // we must have something

  000ce	e8 00 00 00 00	 call	 ?AfxThrowInvalidArgException@@YGXXZ ; AfxThrowInvalidArgException
$LN22@AddTail:
  000d3	cc		 int	 3
_TEXT	ENDS
;	COMDAT text$x
text$x	SEGMENT
__unwindfunclet$?AddTail@?$CList@V?$CStringT@DV?$StrTraitMFC_DLL@DV?$ChTraitsCRT@D@ATL@@@@@ATL@@V12@@@QAEPAU__POSITION@@V?$CStringT@DV?$StrTraitMFC_DLL@DV?$ChTraitsCRT@D@ATL@@@@@ATL@@@Z$0:
  00000	8d 4d 08	 lea	 ecx, DWORD PTR _newElement$[ebp]
  00003	ff 25 00 00 00
	00		 jmp	 DWORD PTR __imp_??1?$CStringT@DV?$StrTraitMFC_DLL@DV?$ChTraitsCRT@D@ATL@@@@@ATL@@QAE@XZ
  00009	cc		 int	 3
  0000a	cc		 int	 3
  0000b	cc		 int	 3
  0000c	cc		 int	 3
  0000d	cc		 int	 3
__ehhandler$?AddTail@?$CList@V?$CStringT@DV?$StrTraitMFC_DLL@DV?$ChTraitsCRT@D@ATL@@@@@ATL@@V12@@@QAEPAU__POSITION@@V?$CStringT@DV?$StrTraitMFC_DLL@DV?$ChTraitsCRT@D@ATL@@@@@ATL@@@Z:
  0000e	90		 npad	 1
  0000f	90		 npad	 1
  00010	8b 54 24 08	 mov	 edx, DWORD PTR [esp+8]
  00014	8d 42 0c	 lea	 eax, DWORD PTR [edx+12]
  00017	8b 4a f0	 mov	 ecx, DWORD PTR [edx-16]
  0001a	33 c8		 xor	 ecx, eax
  0001c	e8 00 00 00 00	 call	 @__security_check_cookie@4
  00021	b8 00 00 00 00	 mov	 eax, OFFSET __ehfuncinfo$?AddTail@?$CList@V?$CStringT@DV?$StrTraitMFC_DLL@DV?$ChTraitsCRT@D@ATL@@@@@ATL@@V12@@@QAEPAU__POSITION@@V?$CStringT@DV?$StrTraitMFC_DLL@DV?$ChTraitsCRT@D@ATL@@@@@ATL@@@Z
  00026	e9 00 00 00 00	 jmp	 ___CxxFrameHandler3
text$x	ENDS
?AddTail@?$CList@V?$CStringT@DV?$StrTraitMFC_DLL@DV?$ChTraitsCRT@D@ATL@@@@@ATL@@V12@@@QAEPAU__POSITION@@V?$CStringT@DV?$StrTraitMFC_DLL@DV?$ChTraitsCRT@D@ATL@@@@@ATL@@@Z ENDP ; CList<ATL::CStringT<char,StrTraitMFC_DLL<char,ATL::ChTraitsCRT<char> > >,ATL::CStringT<char,StrTraitMFC_DLL<char,ATL::ChTraitsCRT<char> > > >::AddTail
; Function compile flags: /Ogtp
; File C:\Program Files (x86)\Microsoft Visual Studio\2019\Community\VC\Tools\MSVC\14.29.30133\atlmfc\include\afx.inl
;	COMDAT ??_GCStyleDataManager@@UAEPAXI@Z
_TEXT	SEGMENT
___flags$ = 8						; size = 4
??_GCStyleDataManager@@UAEPAXI@Z PROC			; CStyleDataManager::`scalar deleting destructor', COMDAT
; _this$ = ecx
  00000	55		 push	 ebp
  00001	8b ec		 mov	 ebp, esp
  00003	8b 45 08	 mov	 eax, DWORD PTR ___flags$[ebp]
  00006	56		 push	 esi
  00007	8b f1		 mov	 esi, ecx
  00009	c7 06 00 00 00
	00		 mov	 DWORD PTR [esi], OFFSET ??_7CStyleDataManager@@6B@
  0000f	a8 01		 test	 al, 1
  00011	74 1f		 je	 SHORT $LN9@scalar
  00013	a8 04		 test	 al, 4
  00015	75 10		 jne	 SHORT $LN3@scalar

; 112  : 	{ ::operator delete(p); }

  00017	56		 push	 esi
  00018	e8 00 00 00 00	 call	 ??3@YAXPAX@Z		; operator delete
  0001d	83 c4 04	 add	 esp, 4
  00020	8b c6		 mov	 eax, esi
  00022	5e		 pop	 esi
  00023	5d		 pop	 ebp
  00024	c2 04 00	 ret	 4
$LN3@scalar:
  00027	6a 04		 push	 4
  00029	56		 push	 esi
  0002a	e8 00 00 00 00	 call	 ?__global_delete@@YAXPAXI@Z ; __global_delete
  0002f	83 c4 08	 add	 esp, 8
$LN9@scalar:
  00032	8b c6		 mov	 eax, esi
  00034	5e		 pop	 esi
  00035	5d		 pop	 ebp
  00036	c2 04 00	 ret	 4
??_GCStyleDataManager@@UAEPAXI@Z ENDP			; CStyleDataManager::`scalar deleting destructor'
_TEXT	ENDS
; Function compile flags: /Ogtp
; File D:\git\src\IBK\IBK_DRFN\ProjSrc\SrcChartEx\ChartAddIn\ChartEnvSetupDlgAddIn\ChartEnvSetupDlgAddIn\StyleDataManager.cpp
; File C:\Program Files (x86)\Microsoft Visual Studio\2019\Community\VC\Tools\MSVC\14.29.30133\atlmfc\include\afxwin1.inl
; File D:\git\src\IBK\IBK_DRFN\ProjSrc\SrcChartEx\ChartAddIn\ChartEnvSetupDlgAddIn\ChartEnvSetupDlgAddIn\StyleDataManager.cpp
; File C:\Program Files (x86)\Microsoft Visual Studio\2019\Community\VC\Tools\MSVC\14.29.30133\atlmfc\include\afxwin1.inl
; File D:\git\src\IBK\IBK_DRFN\ProjSrc\SrcChartEx\ChartAddIn\ChartEnvSetupDlgAddIn\ChartEnvSetupDlgAddIn\StyleDataManager.cpp
;	COMDAT ?DrawRect@CStyleDataManager@@QAEXPAVCDC@@VCRect@@@Z
_TEXT	SEGMENT
_pDC$ = 8						; size = 4
_rect$ = 12						; size = 16
?DrawRect@CStyleDataManager@@QAEXPAVCDC@@VCRect@@@Z PROC ; CStyleDataManager::DrawRect, COMDAT
; _this$ = ecx

; 1233 : {

  00000	55		 push	 ebp
  00001	8b ec		 mov	 ebp, esp

; 1234 : 	rect.bottom += 1;

  00003	8b 45 18	 mov	 eax, DWORD PTR _rect$[ebp+12]
  00006	8b 4d 08	 mov	 ecx, DWORD PTR _pDC$[ebp]
  00009	40		 inc	 eax
; File C:\Program Files (x86)\Microsoft Visual Studio\2019\Community\VC\Tools\MSVC\14.29.30133\atlmfc\include\afxwin1.inl

; 541  : 	{ ASSERT(m_hDC != NULL); return ::Rectangle(m_hDC, lpRect->left, lpRect->top,

  0000a	50		 push	 eax
  0000b	ff 75 14	 push	 DWORD PTR _rect$[ebp+8]
; File D:\git\src\IBK\IBK_DRFN\ProjSrc\SrcChartEx\ChartAddIn\ChartEnvSetupDlgAddIn\ChartEnvSetupDlgAddIn\StyleDataManager.cpp

; 1234 : 	rect.bottom += 1;

  0000e	89 45 18	 mov	 DWORD PTR _rect$[ebp+12], eax
; File C:\Program Files (x86)\Microsoft Visual Studio\2019\Community\VC\Tools\MSVC\14.29.30133\atlmfc\include\afxwin1.inl

; 541  : 	{ ASSERT(m_hDC != NULL); return ::Rectangle(m_hDC, lpRect->left, lpRect->top,

  00011	ff 75 10	 push	 DWORD PTR _rect$[ebp+4]
  00014	ff 75 0c	 push	 DWORD PTR _rect$[ebp]
  00017	ff 71 04	 push	 DWORD PTR [ecx+4]
  0001a	ff 15 00 00 00
	00		 call	 DWORD PTR __imp__Rectangle@20
; File D:\git\src\IBK\IBK_DRFN\ProjSrc\SrcChartEx\ChartAddIn\ChartEnvSetupDlgAddIn\ChartEnvSetupDlgAddIn\StyleDataManager.cpp

; 1236 : }

  00020	5d		 pop	 ebp
  00021	c2 14 00	 ret	 20			; 00000014H
?DrawRect@CStyleDataManager@@QAEXPAVCDC@@VCRect@@@Z ENDP ; CStyleDataManager::DrawRect
_TEXT	ENDS
; Function compile flags: /Ogtp
; File D:\git\src\IBK\IBK_DRFN\ProjSrc\SrcChartEx\ChartAddIn\ChartEnvSetupDlgAddIn\ChartEnvSetupDlgAddIn\StyleDataManager.cpp
; File C:\Program Files (x86)\Microsoft Visual Studio\2019\Community\VC\Tools\MSVC\14.29.30133\atlmfc\include\atltypes.h
; File D:\git\src\IBK\IBK_DRFN\ProjSrc\SrcChartEx\ChartAddIn\ChartEnvSetupDlgAddIn\ChartEnvSetupDlgAddIn\StyleDataManager.cpp
; File C:\Program Files (x86)\Microsoft Visual Studio\2019\Community\VC\Tools\MSVC\14.29.30133\atlmfc\include\atltypes.h
; File D:\git\src\IBK\IBK_DRFN\ProjSrc\SrcChartEx\ChartAddIn\ChartEnvSetupDlgAddIn\ChartEnvSetupDlgAddIn\StyleDataManager.cpp
; File C:\Program Files (x86)\Microsoft Visual Studio\2019\Community\VC\Tools\MSVC\14.29.30133\atlmfc\include\afxwin1.inl
; File D:\git\src\IBK\IBK_DRFN\ProjSrc\SrcChartEx\ChartAddIn\ChartEnvSetupDlgAddIn\ChartEnvSetupDlgAddIn\StyleDataManager.cpp
; File C:\Program Files (x86)\Microsoft Visual Studio\2019\Community\VC\Tools\MSVC\14.29.30133\atlmfc\include\afxwin1.inl
; File D:\git\src\IBK\IBK_DRFN\ProjSrc\SrcChartEx\ChartAddIn\ChartEnvSetupDlgAddIn\ChartEnvSetupDlgAddIn\StyleDataManager.cpp
;	COMDAT ?DrawLine@CStyleDataManager@@QAEXPAVCDC@@VCRect@@PAHKH@Z
_TEXT	SEGMENT
$T5 = -32						; size = 8
_pen$ = -24						; size = 8
_pOldPen$1$ = -16					; size = 4
__$EHRec$ = -12						; size = 12
_pDC$ = 8						; size = 4
_rect$ = 12						; size = 16
_ave$ = 28						; size = 4
_curPt$1$sroa$187$1$ = 32				; size = 4
_color$ = 32						; size = 4
tv386 = 36						; size = 4
_p_nDrawCount$ = 36					; size = 4
?DrawLine@CStyleDataManager@@QAEXPAVCDC@@VCRect@@PAHKH@Z PROC ; CStyleDataManager::DrawLine, COMDAT
; _this$ = ecx

; 1195 : {

  00000	55		 push	 ebp
  00001	8b ec		 mov	 ebp, esp
  00003	6a ff		 push	 -1
  00005	68 00 00 00 00	 push	 __ehhandler$?DrawLine@CStyleDataManager@@QAEXPAVCDC@@VCRect@@PAHKH@Z
  0000a	64 a1 00 00 00
	00		 mov	 eax, DWORD PTR fs:0
  00010	50		 push	 eax
  00011	83 ec 14	 sub	 esp, 20			; 00000014H
  00014	53		 push	 ebx
  00015	56		 push	 esi
  00016	57		 push	 edi
  00017	a1 00 00 00 00	 mov	 eax, DWORD PTR ___security_cookie
  0001c	33 c5		 xor	 eax, ebp
  0001e	50		 push	 eax
  0001f	8d 45 f4	 lea	 eax, DWORD PTR __$EHRec$[ebp]
  00022	64 a3 00 00 00
	00		 mov	 DWORD PTR fs:0, eax

; 1196 : 	CPen pen(PS_SOLID, 1, color);

  00028	ff 75 20	 push	 DWORD PTR _color$[ebp]
  0002b	8d 4d e8	 lea	 ecx, DWORD PTR _pen$[ebp]
  0002e	6a 01		 push	 1
  00030	6a 00		 push	 0
  00032	e8 00 00 00 00	 call	 ??0CPen@@QAE@HHK@Z	; CPen::CPen

; 1197 : 	CPen* pOldPen = (CPen*) pDC->SelectObject(&pen);

  00037	8b 7d 08	 mov	 edi, DWORD PTR _pDC$[ebp]
  0003a	8d 45 e8	 lea	 eax, DWORD PTR _pen$[ebp]
  0003d	50		 push	 eax
  0003e	8b cf		 mov	 ecx, edi
  00040	c7 45 fc 00 00
	00 00		 mov	 DWORD PTR __$EHRec$[ebp+8], 0
  00047	e8 00 00 00 00	 call	 ?SelectObject@CDC@@QAEPAVCPen@@PAV2@@Z ; CDC::SelectObject

; 1198 : 
; 1199 : 	int	nWidth = 5, nGap = 1;
; 1200 : 	int nOrgPos_y = rect.bottom;

  0004c	8b 5d 18	 mov	 ebx, DWORD PTR _rect$[ebp+12]

; 1202 : 	for(int i = SAMPLE_BONG_COUNT - p_nDrawCount; i < SAMPLE_BONG_COUNT; i++)

  0004f	ba 2a 00 00 00	 mov	 edx, 42			; 0000002aH
  00054	2b 55 24	 sub	 edx, DWORD PTR _p_nDrawCount$[ebp]
; File C:\Program Files (x86)\Microsoft Visual Studio\2019\Community\VC\Tools\MSVC\14.29.30133\atlmfc\include\atltypes.h

; 409  : 	y = initY;

  00057	33 c9		 xor	 ecx, ecx
; File D:\git\src\IBK\IBK_DRFN\ProjSrc\SrcChartEx\ChartAddIn\ChartEnvSetupDlgAddIn\ChartEnvSetupDlgAddIn\StyleDataManager.cpp

; 1197 : 	CPen* pOldPen = (CPen*) pDC->SelectObject(&pen);

  00059	89 45 f0	 mov	 DWORD PTR _pOldPen$1$[ebp], eax
  0005c	8b f2		 mov	 esi, edx
; File C:\Program Files (x86)\Microsoft Visual Studio\2019\Community\VC\Tools\MSVC\14.29.30133\atlmfc\include\atltypes.h

; 408  : 	x = initX;

  0005e	33 c0		 xor	 eax, eax
; File D:\git\src\IBK\IBK_DRFN\ProjSrc\SrcChartEx\ChartAddIn\ChartEnvSetupDlgAddIn\ChartEnvSetupDlgAddIn\StyleDataManager.cpp

; 1202 : 	for(int i = SAMPLE_BONG_COUNT - p_nDrawCount; i < SAMPLE_BONG_COUNT; i++)

  00060	89 55 24	 mov	 DWORD PTR tv386[ebp], edx
  00063	83 fe 2a	 cmp	 esi, 42			; 0000002aH
  00066	7d 5a		 jge	 SHORT $LN3@DrawLine
$LL4@DrawLine:

; 1203 : 	{
; 1204 : 		if(i == ( SAMPLE_BONG_COUNT - p_nDrawCount))

  00068	3b f2		 cmp	 esi, edx
  0006a	75 10		 jne	 SHORT $LN5@DrawLine

; 1205 : 		{
; 1206 : 			prevPt.x = rect.left + 1 + nGap + nWidth/2;
; 1207 : 			prevPt.y = nOrgPos_y - ave[i];

  0006c	8b 7d 1c	 mov	 edi, DWORD PTR _ave$[ebp]
  0006f	8b cb		 mov	 ecx, ebx
  00071	8b 45 0c	 mov	 eax, DWORD PTR _rect$[ebp]
  00074	83 c0 04	 add	 eax, 4
  00077	2b 0c b7	 sub	 ecx, DWORD PTR [edi+esi*4]

; 1208 : 			continue;

  0007a	eb 3d		 jmp	 SHORT $LN2@DrawLine
$LN5@DrawLine:

; 1209 : 		}
; 1210 : 
; 1211 : 		CPoint curPt((prevPt.x + nGap + nWidth), (nOrgPos_y - ave[i]));

  0007c	8d 50 06	 lea	 edx, DWORD PTR [eax+6]
  0007f	8b fb		 mov	 edi, ebx
  00081	89 55 20	 mov	 DWORD PTR _curPt$1$sroa$187$1$[ebp], edx
  00084	8b 55 1c	 mov	 edx, DWORD PTR _ave$[ebp]
  00087	2b 3c b2	 sub	 edi, DWORD PTR [edx+esi*4]

; 1212 : 		if(prevPt.y < nOrgPos_y && curPt.y < nOrgPos_y)

  0008a	8b 55 20	 mov	 edx, DWORD PTR _curPt$1$sroa$187$1$[ebp]
  0008d	3b cb		 cmp	 ecx, ebx
  0008f	7d 21		 jge	 SHORT $LN6@DrawLine
  00091	3b fb		 cmp	 edi, ebx
  00093	7d 1d		 jge	 SHORT $LN6@DrawLine
; File C:\Program Files (x86)\Microsoft Visual Studio\2019\Community\VC\Tools\MSVC\14.29.30133\atlmfc\include\afxwin1.inl

; 464  : 	{ ASSERT(m_hDC != NULL); return MoveTo(point.x, point.y); }

  00095	51		 push	 ecx
  00096	8b 4d 08	 mov	 ecx, DWORD PTR _pDC$[ebp]
  00099	50		 push	 eax
  0009a	8d 45 e0	 lea	 eax, DWORD PTR $T5[ebp]
  0009d	50		 push	 eax
  0009e	e8 00 00 00 00	 call	 ?MoveTo@CDC@@QAE?AVCPoint@@HH@Z ; CDC::MoveTo

; 466  : 	{ ASSERT(m_hDC != NULL); return LineTo(point.x, point.y); }

  000a3	8b 4d 08	 mov	 ecx, DWORD PTR _pDC$[ebp]
  000a6	57		 push	 edi
  000a7	ff 75 20	 push	 DWORD PTR _curPt$1$sroa$187$1$[ebp]
  000aa	e8 00 00 00 00	 call	 ?LineTo@CDC@@QAEHHH@Z	; CDC::LineTo
  000af	8b 55 20	 mov	 edx, DWORD PTR _curPt$1$sroa$187$1$[ebp]
$LN6@DrawLine:
; File D:\git\src\IBK\IBK_DRFN\ProjSrc\SrcChartEx\ChartAddIn\ChartEnvSetupDlgAddIn\ChartEnvSetupDlgAddIn\StyleDataManager.cpp

; 1218 : 		prevPt = curPt;

  000b2	8b c2		 mov	 eax, edx
  000b4	8b cf		 mov	 ecx, edi
  000b6	8b 55 24	 mov	 edx, DWORD PTR tv386[ebp]
$LN2@DrawLine:

; 1202 : 	for(int i = SAMPLE_BONG_COUNT - p_nDrawCount; i < SAMPLE_BONG_COUNT; i++)

  000b9	46		 inc	 esi
  000ba	83 fe 2a	 cmp	 esi, 42			; 0000002aH
  000bd	7c a9		 jl	 SHORT $LL4@DrawLine
  000bf	8b 7d 08	 mov	 edi, DWORD PTR _pDC$[ebp]
$LN3@DrawLine:

; 1219 : 	}
; 1220 : 
; 1221 : 	pDC->SelectObject(pOldPen);

  000c2	ff 75 f0	 push	 DWORD PTR _pOldPen$1$[ebp]
  000c5	8b cf		 mov	 ecx, edi
  000c7	e8 00 00 00 00	 call	 ?SelectObject@CDC@@QAEPAVCPen@@PAV2@@Z ; CDC::SelectObject

; 1222 : 	pen.DeleteObject();

  000cc	8d 4d e8	 lea	 ecx, DWORD PTR _pen$[ebp]
  000cf	e8 00 00 00 00	 call	 ?DeleteObject@CGdiObject@@QAEHXZ ; CGdiObject::DeleteObject
; File C:\Program Files (x86)\Microsoft Visual Studio\2019\Community\VC\Tools\MSVC\14.29.30133\atlmfc\include\afxwin1.inl

; 106  : 	{ }

  000d4	8d 4d e8	 lea	 ecx, DWORD PTR _pen$[ebp]
  000d7	c7 45 e8 00 00
	00 00		 mov	 DWORD PTR _pen$[ebp], OFFSET ??_7CPen@@6B@
  000de	e8 00 00 00 00	 call	 ??1CGdiObject@@UAE@XZ	; CGdiObject::~CGdiObject
; File D:\git\src\IBK\IBK_DRFN\ProjSrc\SrcChartEx\ChartAddIn\ChartEnvSetupDlgAddIn\ChartEnvSetupDlgAddIn\StyleDataManager.cpp

; 1223 : }

  000e3	8b 4d f4	 mov	 ecx, DWORD PTR __$EHRec$[ebp]
  000e6	64 89 0d 00 00
	00 00		 mov	 DWORD PTR fs:0, ecx
  000ed	59		 pop	 ecx
  000ee	5f		 pop	 edi
  000ef	5e		 pop	 esi
  000f0	5b		 pop	 ebx
  000f1	8b e5		 mov	 esp, ebp
  000f3	5d		 pop	 ebp
  000f4	c2 20 00	 ret	 32			; 00000020H
_TEXT	ENDS
;	COMDAT text$x
text$x	SEGMENT
__unwindfunclet$?DrawLine@CStyleDataManager@@QAEXPAVCDC@@VCRect@@PAHKH@Z$0:
  00000	8d 4d e8	 lea	 ecx, DWORD PTR _pen$[ebp]
  00003	e9 00 00 00 00	 jmp	 ??1CPen@@UAE@XZ		; CPen::~CPen
  00008	cc		 int	 3
  00009	cc		 int	 3
  0000a	cc		 int	 3
  0000b	cc		 int	 3
  0000c	cc		 int	 3
__ehhandler$?DrawLine@CStyleDataManager@@QAEXPAVCDC@@VCRect@@PAHKH@Z:
  0000d	90		 npad	 1
  0000e	90		 npad	 1
  0000f	8b 54 24 08	 mov	 edx, DWORD PTR [esp+8]
  00013	8d 42 0c	 lea	 eax, DWORD PTR [edx+12]
  00016	8b 4a dc	 mov	 ecx, DWORD PTR [edx-36]
  00019	33 c8		 xor	 ecx, eax
  0001b	e8 00 00 00 00	 call	 @__security_check_cookie@4
  00020	b8 00 00 00 00	 mov	 eax, OFFSET __ehfuncinfo$?DrawLine@CStyleDataManager@@QAEXPAVCDC@@VCRect@@PAHKH@Z
  00025	e9 00 00 00 00	 jmp	 ___CxxFrameHandler3
text$x	ENDS
?DrawLine@CStyleDataManager@@QAEXPAVCDC@@VCRect@@PAHKH@Z ENDP ; CStyleDataManager::DrawLine
; Function compile flags: /Ogtp
; File D:\git\src\IBK\IBK_DRFN\ProjSrc\SrcChartEx\ChartAddIn\ChartEnvSetupDlgAddIn\ChartEnvSetupDlgAddIn\StyleDataManager.cpp
; File C:\Program Files (x86)\Microsoft Visual Studio\2019\Community\VC\Tools\MSVC\14.29.30133\atlmfc\include\atltypes.h
; File D:\git\src\IBK\IBK_DRFN\ProjSrc\SrcChartEx\ChartAddIn\ChartEnvSetupDlgAddIn\ChartEnvSetupDlgAddIn\StyleDataManager.cpp
; File C:\Program Files (x86)\Microsoft Visual Studio\2019\Community\VC\Tools\MSVC\14.29.30133\atlmfc\include\atltypes.h
; File D:\git\src\IBK\IBK_DRFN\ProjSrc\SrcChartEx\ChartAddIn\ChartEnvSetupDlgAddIn\ChartEnvSetupDlgAddIn\StyleDataManager.cpp
; File C:\Program Files (x86)\Microsoft Visual Studio\2019\Community\VC\Tools\MSVC\14.29.30133\atlmfc\include\afxwin1.inl
; File D:\git\src\IBK\IBK_DRFN\ProjSrc\SrcChartEx\ChartAddIn\ChartEnvSetupDlgAddIn\ChartEnvSetupDlgAddIn\StyleDataManager.cpp
; File C:\Program Files (x86)\Microsoft Visual Studio\2019\Community\VC\Tools\MSVC\14.29.30133\atlmfc\include\afxwin1.inl
; File D:\git\src\IBK\IBK_DRFN\ProjSrc\SrcChartEx\ChartAddIn\ChartEnvSetupDlgAddIn\ChartEnvSetupDlgAddIn\StyleDataManager.cpp
;	COMDAT ?DrawBar@CStyleDataManager@@QAEXPAVCDC@@VCRect@@PAHKKKHHH@Z
_TEXT	SEGMENT
_equalPen$ = -88					; size = 8
_pOldBrush$1$ = -80					; size = 4
_pOldPen$1$ = -76					; size = 4
tv577 = -72						; size = 4
tv579 = -68						; size = 4
tv578 = -64						; size = 4
tv567 = -60						; size = 4
_pDC$GSCopy$1$ = -56					; size = 4
_upPen$ = -52						; size = 8
_downPen$ = -44						; size = 8
_upBrush$ = -36						; size = 8
_downBrush$ = -28					; size = 8
tv569 = -20						; size = 4
_downColor$GSCopy$1$ = -20				; size = 4
__$ArrayPad$ = -16					; size = 4
__$EHRec$ = -12						; size = 12
_pDC$ = 8						; size = 4
_rect$ = 12						; size = 16
_trade$ = 28						; size = 4
_upColor$ = 32						; size = 4
_downColor$ = 36					; size = 4
_equalColor$ = 40					; size = 4
_bUpFill$ = 44						; size = 4
_bDownFill$ = 48					; size = 4
_p_nDrawCount$ = 52					; size = 4
?DrawBar@CStyleDataManager@@QAEXPAVCDC@@VCRect@@PAHKKKHHH@Z PROC ; CStyleDataManager::DrawBar, COMDAT
; _this$ = ecx

; 1145 : {

  00000	55		 push	 ebp
  00001	8b ec		 mov	 ebp, esp
  00003	6a ff		 push	 -1
  00005	68 00 00 00 00	 push	 __ehhandler$?DrawBar@CStyleDataManager@@QAEXPAVCDC@@VCRect@@PAHKKKHHH@Z
  0000a	64 a1 00 00 00
	00		 mov	 eax, DWORD PTR fs:0
  00010	50		 push	 eax
  00011	83 ec 4c	 sub	 esp, 76			; 0000004cH
  00014	a1 00 00 00 00	 mov	 eax, DWORD PTR ___security_cookie
  00019	33 c5		 xor	 eax, ebp
  0001b	89 45 f0	 mov	 DWORD PTR __$ArrayPad$[ebp], eax
  0001e	53		 push	 ebx
  0001f	56		 push	 esi
  00020	57		 push	 edi
  00021	50		 push	 eax
  00022	8d 45 f4	 lea	 eax, DWORD PTR __$EHRec$[ebp]
  00025	64 a3 00 00 00
	00		 mov	 DWORD PTR fs:0, eax
  0002b	8b 5d 20	 mov	 ebx, DWORD PTR _upColor$[ebp]

; 1146 : 	CPen upPen( PS_SOLID, 1, upColor ), downPen( PS_SOLID, 1, downColor ), equalPen( PS_SOLID, 1, equalColor );

  0002e	8d 4d cc	 lea	 ecx, DWORD PTR _upPen$[ebp]
  00031	8b 45 24	 mov	 eax, DWORD PTR _downColor$[ebp]
  00034	8b 75 08	 mov	 esi, DWORD PTR _pDC$[ebp]
  00037	8b 7d 28	 mov	 edi, DWORD PTR _equalColor$[ebp]
  0003a	53		 push	 ebx
  0003b	6a 01		 push	 1
  0003d	6a 00		 push	 0
  0003f	89 75 c8	 mov	 DWORD PTR _pDC$GSCopy$1$[ebp], esi
  00042	89 45 ec	 mov	 DWORD PTR _downColor$GSCopy$1$[ebp], eax
  00045	e8 00 00 00 00	 call	 ??0CPen@@QAE@HHK@Z	; CPen::CPen
  0004a	ff 75 ec	 push	 DWORD PTR _downColor$GSCopy$1$[ebp]
  0004d	8d 4d d4	 lea	 ecx, DWORD PTR _downPen$[ebp]
  00050	c7 45 fc 00 00
	00 00		 mov	 DWORD PTR __$EHRec$[ebp+8], 0
  00057	6a 01		 push	 1
  00059	6a 00		 push	 0
  0005b	e8 00 00 00 00	 call	 ??0CPen@@QAE@HHK@Z	; CPen::CPen
  00060	57		 push	 edi
  00061	6a 01		 push	 1
  00063	6a 00		 push	 0
  00065	8d 4d a8	 lea	 ecx, DWORD PTR _equalPen$[ebp]
  00068	c6 45 fc 01	 mov	 BYTE PTR __$EHRec$[ebp+8], 1
  0006c	e8 00 00 00 00	 call	 ??0CPen@@QAE@HHK@Z	; CPen::CPen

; 1147 : 	CPen *pOldPen = ( CPen * )pDC->SelectStockObject( NULL_PEN );

  00071	8b 06		 mov	 eax, DWORD PTR [esi]
  00073	8b ce		 mov	 ecx, esi
  00075	6a 08		 push	 8
  00077	c6 45 fc 02	 mov	 BYTE PTR __$EHRec$[ebp+8], 2
  0007b	ff 50 2c	 call	 DWORD PTR [eax+44]

; 1148 : 	CBrush upBrush( upColor ), downBrush( downColor );

  0007e	53		 push	 ebx
  0007f	8d 4d dc	 lea	 ecx, DWORD PTR _upBrush$[ebp]
  00082	89 45 b4	 mov	 DWORD PTR _pOldPen$1$[ebp], eax
  00085	e8 00 00 00 00	 call	 ??0CBrush@@QAE@K@Z	; CBrush::CBrush
  0008a	ff 75 ec	 push	 DWORD PTR _downColor$GSCopy$1$[ebp]
  0008d	8d 4d e4	 lea	 ecx, DWORD PTR _downBrush$[ebp]
  00090	c6 45 fc 03	 mov	 BYTE PTR __$EHRec$[ebp+8], 3
  00094	e8 00 00 00 00	 call	 ??0CBrush@@QAE@K@Z	; CBrush::CBrush

; 1149 : 	CBrush *pOldBrush = ( CBrush * )pDC->SelectStockObject( NULL_BRUSH );

  00099	8b 06		 mov	 eax, DWORD PTR [esi]
  0009b	8b ce		 mov	 ecx, esi
  0009d	6a 05		 push	 5
  0009f	c6 45 fc 04	 mov	 BYTE PTR __$EHRec$[ebp+8], 4
  000a3	ff 50 2c	 call	 DWORD PTR [eax+44]

; 1150 : 
; 1151 : 	int	nWidth = 5, nGap = 1;
; 1152 : 	int nOrgPos_y = rect.bottom;
; 1153 : 	int nPrevEnd_x = rect.left + 1 + nGap; // 1: graph   .

  000a6	8b 7d 0c	 mov	 edi, DWORD PTR _rect$[ebp]

; 1155 : 	for( int i = SAMPLE_BONG_COUNT - p_nDrawCount; i < SAMPLE_BONG_COUNT ; i++ )

  000a9	bb 2a 00 00 00	 mov	 ebx, 42			; 0000002aH
  000ae	2b 5d 34	 sub	 ebx, DWORD PTR _p_nDrawCount$[ebp]
  000b1	83 c7 02	 add	 edi, 2
  000b4	89 45 b0	 mov	 DWORD PTR _pOldBrush$1$[ebp], eax
  000b7	8b 45 18	 mov	 eax, DWORD PTR _rect$[ebp+12]
  000ba	89 45 ec	 mov	 DWORD PTR tv569[ebp], eax
  000bd	83 fb 2a	 cmp	 ebx, 42			; 0000002aH
  000c0	0f 8d a7 00 00
	00		 jge	 $LN3@DrawBar
$LL4@DrawBar:

; 1157 : 		CRect barRect( nPrevEnd_x, nOrgPos_y - 1, nPrevEnd_x + nWidth, nOrgPos_y - trade[ i ] );

  000c6	8b 4d 1c	 mov	 ecx, DWORD PTR _trade$[ebp]
; File C:\Program Files (x86)\Microsoft Visual Studio\2019\Community\VC\Tools\MSVC\14.29.30133\atlmfc\include\atltypes.h

; 541  : 	top = t;

  000c9	8d 47 05	 lea	 eax, DWORD PTR [edi+5]

; 890  : 	if (top > bottom)

  000cc	8b f0		 mov	 esi, eax
; File D:\git\src\IBK\IBK_DRFN\ProjSrc\SrcChartEx\ChartAddIn\ChartEnvSetupDlgAddIn\ChartEnvSetupDlgAddIn\StyleDataManager.cpp

; 1157 : 		CRect barRect( nPrevEnd_x, nOrgPos_y - 1, nPrevEnd_x + nWidth, nOrgPos_y - trade[ i ] );

  000ce	8b 14 99	 mov	 edx, DWORD PTR [ecx+ebx*4]
  000d1	8b 4d ec	 mov	 ecx, DWORD PTR tv569[ebp]
  000d4	2b ca		 sub	 ecx, edx
  000d6	89 55 c4	 mov	 DWORD PTR tv567[ebp], edx
; File C:\Program Files (x86)\Microsoft Visual Studio\2019\Community\VC\Tools\MSVC\14.29.30133\atlmfc\include\atltypes.h

; 890  : 	if (top > bottom)

  000d9	3b f8		 cmp	 edi, eax
  000db	0f 4e f7	 cmovle	 esi, edi
  000de	0f 4e f8	 cmovle	 edi, eax
  000e1	89 75 b8	 mov	 DWORD PTR tv577[ebp], esi
; File D:\git\src\IBK\IBK_DRFN\ProjSrc\SrcChartEx\ChartAddIn\ChartEnvSetupDlgAddIn\ChartEnvSetupDlgAddIn\StyleDataManager.cpp

; 1160 : 		if( i == 0 || trade[ i ] > trade[ i - 1 ] )

  000e4	8b c1		 mov	 eax, ecx
  000e6	8b 75 ec	 mov	 esi, DWORD PTR tv569[ebp]
  000e9	4e		 dec	 esi
  000ea	3b f1		 cmp	 esi, ecx
  000ec	0f 4e c6	 cmovle	 eax, esi
  000ef	89 45 bc	 mov	 DWORD PTR tv579[ebp], eax
  000f2	8b c6		 mov	 eax, esi
  000f4	8b 75 c8	 mov	 esi, DWORD PTR _pDC$GSCopy$1$[ebp]
  000f7	0f 4e c1	 cmovle	 eax, ecx
  000fa	89 45 c0	 mov	 DWORD PTR tv578[ebp], eax
  000fd	85 db		 test	 ebx, ebx
  000ff	74 27		 je	 SHORT $LN7@DrawBar
  00101	8b 45 1c	 mov	 eax, DWORD PTR _trade$[ebp]
  00104	3b 54 98 fc	 cmp	 edx, DWORD PTR [eax+ebx*4-4]
  00108	7f 1e		 jg	 SHORT $LN7@DrawBar

; 1164 : 			else			pDC->SelectStockObject( NULL_BRUSH);
; 1165 : 		}
; 1166 : 		else
; 1167 : 		{
; 1168 : 			pDC->SelectObject( &downPen );

  0010a	8d 45 d4	 lea	 eax, DWORD PTR _downPen$[ebp]
  0010d	8b ce		 mov	 ecx, esi
  0010f	50		 push	 eax
  00110	e8 00 00 00 00	 call	 ?SelectObject@CDC@@QAEPAVCPen@@PAV2@@Z ; CDC::SelectObject

; 1169 : 			if( bDownFill)	pDC->SelectObject( &downBrush);

  00115	83 7d 30 00	 cmp	 DWORD PTR _bDownFill$[ebp], 0
  00119	8b ce		 mov	 ecx, esi
  0011b	74 29		 je	 SHORT $LN10@DrawBar
  0011d	8d 45 e4	 lea	 eax, DWORD PTR _downBrush$[ebp]
  00120	50		 push	 eax
  00121	e8 00 00 00 00	 call	 ?SelectObject@CDC@@QAEPAVCBrush@@PAV2@@Z ; CDC::SelectObject
  00126	eb 25		 jmp	 SHORT $LN9@DrawBar
$LN7@DrawBar:

; 1161 : 		{
; 1162 : 			pDC->SelectObject( &upPen );

  00128	8d 45 cc	 lea	 eax, DWORD PTR _upPen$[ebp]
  0012b	8b ce		 mov	 ecx, esi
  0012d	50		 push	 eax
  0012e	e8 00 00 00 00	 call	 ?SelectObject@CDC@@QAEPAVCPen@@PAV2@@Z ; CDC::SelectObject

; 1163 : 			if( bUpFill )	pDC->SelectObject( &upBrush);

  00133	83 7d 2c 00	 cmp	 DWORD PTR _bUpFill$[ebp], 0
  00137	8b ce		 mov	 ecx, esi
  00139	74 0b		 je	 SHORT $LN10@DrawBar
  0013b	8d 45 dc	 lea	 eax, DWORD PTR _upBrush$[ebp]
  0013e	50		 push	 eax
  0013f	e8 00 00 00 00	 call	 ?SelectObject@CDC@@QAEPAVCBrush@@PAV2@@Z ; CDC::SelectObject
  00144	eb 07		 jmp	 SHORT $LN9@DrawBar
$LN10@DrawBar:

; 1234 : 	rect.bottom += 1;

  00146	8b 06		 mov	 eax, DWORD PTR [esi]
  00148	6a 05		 push	 5
  0014a	ff 50 2c	 call	 DWORD PTR [eax+44]
$LN9@DrawBar:
  0014d	8b 45 c0	 mov	 eax, DWORD PTR tv578[ebp]
  00150	40		 inc	 eax
; File C:\Program Files (x86)\Microsoft Visual Studio\2019\Community\VC\Tools\MSVC\14.29.30133\atlmfc\include\afxwin1.inl

; 541  : 	{ ASSERT(m_hDC != NULL); return ::Rectangle(m_hDC, lpRect->left, lpRect->top,

  00151	50		 push	 eax
  00152	57		 push	 edi
  00153	ff 75 bc	 push	 DWORD PTR tv579[ebp]
  00156	ff 75 b8	 push	 DWORD PTR tv577[ebp]
  00159	ff 76 04	 push	 DWORD PTR [esi+4]
  0015c	ff 15 00 00 00
	00		 call	 DWORD PTR __imp__Rectangle@20
; File D:\git\src\IBK\IBK_DRFN\ProjSrc\SrcChartEx\ChartAddIn\ChartEnvSetupDlgAddIn\ChartEnvSetupDlgAddIn\StyleDataManager.cpp

; 1155 : 	for( int i = SAMPLE_BONG_COUNT - p_nDrawCount; i < SAMPLE_BONG_COUNT ; i++ )

  00162	43		 inc	 ebx

; 1170 : 			else			pDC->SelectStockObject( NULL_BRUSH);
; 1171 : 		}
; 1172 : 		DrawRect( pDC, barRect );
; 1173 : 
; 1174 : 		nPrevEnd_x = barRect.right + nGap;

  00163	47		 inc	 edi
  00164	83 fb 2a	 cmp	 ebx, 42			; 0000002aH
  00167	0f 8c 59 ff ff
	ff		 jl	 $LL4@DrawBar
$LN3@DrawBar:

; 1175 : 	}
; 1176 : 	
; 1177 : 	pDC->SelectObject( pOldPen );

  0016d	ff 75 b4	 push	 DWORD PTR _pOldPen$1$[ebp]
  00170	8b ce		 mov	 ecx, esi
  00172	e8 00 00 00 00	 call	 ?SelectObject@CDC@@QAEPAVCPen@@PAV2@@Z ; CDC::SelectObject

; 1178 : 	pDC->SelectObject( pOldBrush );

  00177	ff 75 b0	 push	 DWORD PTR _pOldBrush$1$[ebp]
  0017a	8b ce		 mov	 ecx, esi
  0017c	e8 00 00 00 00	 call	 ?SelectObject@CDC@@QAEPAVCBrush@@PAV2@@Z ; CDC::SelectObject

; 1179 : 	upPen.DeleteObject();

  00181	8d 4d cc	 lea	 ecx, DWORD PTR _upPen$[ebp]
  00184	e8 00 00 00 00	 call	 ?DeleteObject@CGdiObject@@QAEHXZ ; CGdiObject::DeleteObject

; 1180 : 	downPen.DeleteObject();

  00189	8d 4d d4	 lea	 ecx, DWORD PTR _downPen$[ebp]
  0018c	e8 00 00 00 00	 call	 ?DeleteObject@CGdiObject@@QAEHXZ ; CGdiObject::DeleteObject

; 1181 : 	upBrush.DeleteObject();

  00191	8d 4d dc	 lea	 ecx, DWORD PTR _upBrush$[ebp]
  00194	e8 00 00 00 00	 call	 ?DeleteObject@CGdiObject@@QAEHXZ ; CGdiObject::DeleteObject

; 1182 : 	downBrush.DeleteObject();

  00199	8d 4d e4	 lea	 ecx, DWORD PTR _downBrush$[ebp]
  0019c	e8 00 00 00 00	 call	 ?DeleteObject@CGdiObject@@QAEHXZ ; CGdiObject::DeleteObject
; File C:\Program Files (x86)\Microsoft Visual Studio\2019\Community\VC\Tools\MSVC\14.29.30133\atlmfc\include\afxwin1.inl

; 130  : 	{ }

  001a1	8d 4d e4	 lea	 ecx, DWORD PTR _downBrush$[ebp]
  001a4	c7 45 e4 00 00
	00 00		 mov	 DWORD PTR _downBrush$[ebp], OFFSET ??_7CBrush@@6B@
  001ab	e8 00 00 00 00	 call	 ??1CGdiObject@@UAE@XZ	; CGdiObject::~CGdiObject
  001b0	8d 4d dc	 lea	 ecx, DWORD PTR _upBrush$[ebp]
  001b3	c7 45 dc 00 00
	00 00		 mov	 DWORD PTR _upBrush$[ebp], OFFSET ??_7CBrush@@6B@
  001ba	e8 00 00 00 00	 call	 ??1CGdiObject@@UAE@XZ	; CGdiObject::~CGdiObject

; 106  : 	{ }

  001bf	8d 4d a8	 lea	 ecx, DWORD PTR _equalPen$[ebp]
  001c2	c7 45 a8 00 00
	00 00		 mov	 DWORD PTR _equalPen$[ebp], OFFSET ??_7CPen@@6B@
  001c9	e8 00 00 00 00	 call	 ??1CGdiObject@@UAE@XZ	; CGdiObject::~CGdiObject
  001ce	8d 4d d4	 lea	 ecx, DWORD PTR _downPen$[ebp]
  001d1	c7 45 d4 00 00
	00 00		 mov	 DWORD PTR _downPen$[ebp], OFFSET ??_7CPen@@6B@
  001d8	e8 00 00 00 00	 call	 ??1CGdiObject@@UAE@XZ	; CGdiObject::~CGdiObject
  001dd	8d 4d cc	 lea	 ecx, DWORD PTR _upPen$[ebp]
  001e0	c7 45 cc 00 00
	00 00		 mov	 DWORD PTR _upPen$[ebp], OFFSET ??_7CPen@@6B@
  001e7	e8 00 00 00 00	 call	 ??1CGdiObject@@UAE@XZ	; CGdiObject::~CGdiObject
; File D:\git\src\IBK\IBK_DRFN\ProjSrc\SrcChartEx\ChartAddIn\ChartEnvSetupDlgAddIn\ChartEnvSetupDlgAddIn\StyleDataManager.cpp

; 1183 : }

  001ec	8b 4d f4	 mov	 ecx, DWORD PTR __$EHRec$[ebp]
  001ef	64 89 0d 00 00
	00 00		 mov	 DWORD PTR fs:0, ecx
  001f6	59		 pop	 ecx
  001f7	5f		 pop	 edi
  001f8	5e		 pop	 esi
  001f9	5b		 pop	 ebx
  001fa	8b 4d f0	 mov	 ecx, DWORD PTR __$ArrayPad$[ebp]
  001fd	33 cd		 xor	 ecx, ebp
  001ff	e8 00 00 00 00	 call	 @__security_check_cookie@4
  00204	8b e5		 mov	 esp, ebp
  00206	5d		 pop	 ebp
  00207	c2 30 00	 ret	 48			; 00000030H
_TEXT	ENDS
;	COMDAT text$x
text$x	SEGMENT
__unwindfunclet$?DrawBar@CStyleDataManager@@QAEXPAVCDC@@VCRect@@PAHKKKHHH@Z$0:
  00000	8d 4d cc	 lea	 ecx, DWORD PTR _upPen$[ebp]
  00003	e9 00 00 00 00	 jmp	 ??1CPen@@UAE@XZ		; CPen::~CPen
__unwindfunclet$?DrawBar@CStyleDataManager@@QAEXPAVCDC@@VCRect@@PAHKKKHHH@Z$1:
  00008	8d 4d d4	 lea	 ecx, DWORD PTR _downPen$[ebp]
  0000b	e9 00 00 00 00	 jmp	 ??1CPen@@UAE@XZ		; CPen::~CPen
__unwindfunclet$?DrawBar@CStyleDataManager@@QAEXPAVCDC@@VCRect@@PAHKKKHHH@Z$2:
  00010	8d 4d a8	 lea	 ecx, DWORD PTR _equalPen$[ebp]
  00013	e9 00 00 00 00	 jmp	 ??1CPen@@UAE@XZ		; CPen::~CPen
__unwindfunclet$?DrawBar@CStyleDataManager@@QAEXPAVCDC@@VCRect@@PAHKKKHHH@Z$3:
  00018	8d 4d dc	 lea	 ecx, DWORD PTR _upBrush$[ebp]
  0001b	e9 00 00 00 00	 jmp	 ??1CBrush@@UAE@XZ	; CBrush::~CBrush
__unwindfunclet$?DrawBar@CStyleDataManager@@QAEXPAVCDC@@VCRect@@PAHKKKHHH@Z$4:
  00020	8d 4d e4	 lea	 ecx, DWORD PTR _downBrush$[ebp]
  00023	e9 00 00 00 00	 jmp	 ??1CBrush@@UAE@XZ	; CBrush::~CBrush
  00028	cc		 int	 3
  00029	cc		 int	 3
  0002a	cc		 int	 3
  0002b	cc		 int	 3
  0002c	cc		 int	 3
__ehhandler$?DrawBar@CStyleDataManager@@QAEXPAVCDC@@VCRect@@PAHKKKHHH@Z:
  0002d	90		 npad	 1
  0002e	90		 npad	 1
  0002f	8b 54 24 08	 mov	 edx, DWORD PTR [esp+8]
  00033	8d 42 0c	 lea	 eax, DWORD PTR [edx+12]
  00036	8b 4a a4	 mov	 ecx, DWORD PTR [edx-92]
  00039	33 c8		 xor	 ecx, eax
  0003b	e8 00 00 00 00	 call	 @__security_check_cookie@4
  00040	8b 4a fc	 mov	 ecx, DWORD PTR [edx-4]
  00043	33 c8		 xor	 ecx, eax
  00045	e8 00 00 00 00	 call	 @__security_check_cookie@4
  0004a	b8 00 00 00 00	 mov	 eax, OFFSET __ehfuncinfo$?DrawBar@CStyleDataManager@@QAEXPAVCDC@@VCRect@@PAHKKKHHH@Z
  0004f	e9 00 00 00 00	 jmp	 ___CxxFrameHandler3
text$x	ENDS
?DrawBar@CStyleDataManager@@QAEXPAVCDC@@VCRect@@PAHKKKHHH@Z ENDP ; CStyleDataManager::DrawBar
; Function compile flags: /Ogtp
; File D:\git\src\IBK\IBK_DRFN\ProjSrc\SrcChartEx\ChartAddIn\ChartEnvSetupDlgAddIn\ChartEnvSetupDlgAddIn\StyleDataManager.cpp
; File C:\Program Files (x86)\Microsoft Visual Studio\2019\Community\VC\Tools\MSVC\14.29.30133\atlmfc\include\atltypes.h
; File D:\git\src\IBK\IBK_DRFN\ProjSrc\SrcChartEx\ChartAddIn\ChartEnvSetupDlgAddIn\ChartEnvSetupDlgAddIn\StyleDataManager.cpp
; File C:\Program Files (x86)\Microsoft Visual Studio\2019\Community\VC\Tools\MSVC\14.29.30133\atlmfc\include\atltypes.h
; File D:\git\src\IBK\IBK_DRFN\ProjSrc\SrcChartEx\ChartAddIn\ChartEnvSetupDlgAddIn\ChartEnvSetupDlgAddIn\StyleDataManager.cpp
; File C:\Program Files (x86)\Microsoft Visual Studio\2019\Community\VC\Tools\MSVC\14.29.30133\atlmfc\include\atltypes.h
; File D:\git\src\IBK\IBK_DRFN\ProjSrc\SrcChartEx\ChartAddIn\ChartEnvSetupDlgAddIn\ChartEnvSetupDlgAddIn\StyleDataManager.cpp
; File C:\Program Files (x86)\Microsoft Visual Studio\2019\Community\VC\Tools\MSVC\14.29.30133\atlmfc\include\atltypes.h
; File D:\git\src\IBK\IBK_DRFN\ProjSrc\SrcChartEx\ChartAddIn\ChartEnvSetupDlgAddIn\ChartEnvSetupDlgAddIn\StyleDataManager.cpp
; File C:\Program Files (x86)\Microsoft Visual Studio\2019\Community\VC\Tools\MSVC\14.29.30133\atlmfc\include\afxwin1.inl
; File D:\git\src\IBK\IBK_DRFN\ProjSrc\SrcChartEx\ChartAddIn\ChartEnvSetupDlgAddIn\ChartEnvSetupDlgAddIn\StyleDataManager.cpp
; File C:\Program Files (x86)\Microsoft Visual Studio\2019\Community\VC\Tools\MSVC\14.29.30133\atlmfc\include\atltypes.h
; File D:\git\src\IBK\IBK_DRFN\ProjSrc\SrcChartEx\ChartAddIn\ChartEnvSetupDlgAddIn\ChartEnvSetupDlgAddIn\StyleDataManager.cpp
; File C:\Program Files (x86)\Microsoft Visual Studio\2019\Community\VC\Tools\MSVC\14.29.30133\atlmfc\include\atltypes.h
; File D:\git\src\IBK\IBK_DRFN\ProjSrc\SrcChartEx\ChartAddIn\ChartEnvSetupDlgAddIn\ChartEnvSetupDlgAddIn\StyleDataManager.cpp
; File C:\Program Files (x86)\Microsoft Visual Studio\2019\Community\VC\Tools\MSVC\14.29.30133\atlmfc\include\atltypes.h
; File D:\git\src\IBK\IBK_DRFN\ProjSrc\SrcChartEx\ChartAddIn\ChartEnvSetupDlgAddIn\ChartEnvSetupDlgAddIn\StyleDataManager.cpp
; File C:\Program Files (x86)\Microsoft Visual Studio\2019\Community\VC\Tools\MSVC\14.29.30133\atlmfc\include\afxwin1.inl
; File D:\git\src\IBK\IBK_DRFN\ProjSrc\SrcChartEx\ChartAddIn\ChartEnvSetupDlgAddIn\ChartEnvSetupDlgAddIn\StyleDataManager.cpp
; File C:\Program Files (x86)\Microsoft Visual Studio\2019\Community\VC\Tools\MSVC\14.29.30133\atlmfc\include\atltypes.h
; File D:\git\src\IBK\IBK_DRFN\ProjSrc\SrcChartEx\ChartAddIn\ChartEnvSetupDlgAddIn\ChartEnvSetupDlgAddIn\StyleDataManager.cpp
; File C:\Program Files (x86)\Microsoft Visual Studio\2019\Community\VC\Tools\MSVC\14.29.30133\atlmfc\include\atltypes.h
; File D:\git\src\IBK\IBK_DRFN\ProjSrc\SrcChartEx\ChartAddIn\ChartEnvSetupDlgAddIn\ChartEnvSetupDlgAddIn\StyleDataManager.cpp
; File C:\Program Files (x86)\Microsoft Visual Studio\2019\Community\VC\Tools\MSVC\14.29.30133\atlmfc\include\atltypes.h
; File D:\git\src\IBK\IBK_DRFN\ProjSrc\SrcChartEx\ChartAddIn\ChartEnvSetupDlgAddIn\ChartEnvSetupDlgAddIn\StyleDataManager.cpp
; File C:\Program Files (x86)\Microsoft Visual Studio\2019\Community\VC\Tools\MSVC\14.29.30133\atlmfc\include\afxwin1.inl
; File D:\git\src\IBK\IBK_DRFN\ProjSrc\SrcChartEx\ChartAddIn\ChartEnvSetupDlgAddIn\ChartEnvSetupDlgAddIn\StyleDataManager.cpp
; File C:\Program Files (x86)\Microsoft Visual Studio\2019\Community\VC\Tools\MSVC\14.29.30133\atlmfc\include\afxwin1.inl
; File D:\git\src\IBK\IBK_DRFN\ProjSrc\SrcChartEx\ChartAddIn\ChartEnvSetupDlgAddIn\ChartEnvSetupDlgAddIn\StyleDataManager.cpp
;	COMDAT ?DrawBong@CStyleDataManager@@QAEXPAVCDC@@VCRect@@PAY03HKKKHHH@Z
_TEXT	SEGMENT
$T7 = -116						; size = 8
$T8 = -108						; size = 8
_equalPen$ = -100					; size = 8
_pOldBrush$1$ = -92					; size = 4
_pOldPen$1$ = -88					; size = 4
tv865 = -84						; size = 4
_upPen$ = -80						; size = 8
_downPen$ = -72						; size = 8
_upBrush$ = -64						; size = 8
_downBrush$ = -56					; size = 8
tv849 = -48						; size = 4
_bongRect$1$sroa$551$2$ = -44				; size = 4
_end$1$ = -40						; size = 4
_lowPoint$4$sroa$539$1$ = -36				; size = 4
_low$1$ = -36						; size = 4
_highPoint$2$sroa$543$1$ = -32				; size = 4
_high$1$ = -32						; size = 4
tv864 = -28						; size = 4
tv859 = -24						; size = 4
_downColor$GSCopy$1$ = -20				; size = 4
_start$1$ = -20						; size = 4
__$ArrayPad$ = -16					; size = 4
__$EHRec$ = -12						; size = 12
_pDC$ = 8						; size = 4
_rect$ = 12						; size = 16
_price$ = 28						; size = 4
_upColor$ = 32						; size = 4
_downColor$ = 36					; size = 4
_equalColor$ = 40					; size = 4
_bUpFill$ = 44						; size = 4
_bDownFill$ = 48					; size = 4
_p_nDrawCount$ = 52					; size = 4
?DrawBong@CStyleDataManager@@QAEXPAVCDC@@VCRect@@PAY03HKKKHHH@Z PROC ; CStyleDataManager::DrawBong, COMDAT
; _this$ = ecx

; 1052 : {

  00000	55		 push	 ebp
  00001	8b ec		 mov	 ebp, esp
  00003	6a ff		 push	 -1
  00005	68 00 00 00 00	 push	 __ehhandler$?DrawBong@CStyleDataManager@@QAEXPAVCDC@@VCRect@@PAY03HKKKHHH@Z
  0000a	64 a1 00 00 00
	00		 mov	 eax, DWORD PTR fs:0
  00010	50		 push	 eax
  00011	83 ec 68	 sub	 esp, 104		; 00000068H
  00014	a1 00 00 00 00	 mov	 eax, DWORD PTR ___security_cookie
  00019	33 c5		 xor	 eax, ebp
  0001b	89 45 f0	 mov	 DWORD PTR __$ArrayPad$[ebp], eax
  0001e	53		 push	 ebx
  0001f	56		 push	 esi
  00020	57		 push	 edi
  00021	50		 push	 eax
  00022	8d 45 f4	 lea	 eax, DWORD PTR __$EHRec$[ebp]
  00025	64 a3 00 00 00
	00		 mov	 DWORD PTR fs:0, eax
  0002b	8b 5d 20	 mov	 ebx, DWORD PTR _upColor$[ebp]

; 1053 : 	CPen upPen( PS_SOLID, 1, upColor ), downPen( PS_SOLID, 1, downColor ), equalPen( PS_SOLID, 1, equalColor );

  0002e	8d 4d b0	 lea	 ecx, DWORD PTR _upPen$[ebp]
  00031	8b 45 24	 mov	 eax, DWORD PTR _downColor$[ebp]
  00034	8b 75 08	 mov	 esi, DWORD PTR _pDC$[ebp]
  00037	8b 7d 28	 mov	 edi, DWORD PTR _equalColor$[ebp]
  0003a	53		 push	 ebx
  0003b	6a 01		 push	 1
  0003d	6a 00		 push	 0
  0003f	89 45 ec	 mov	 DWORD PTR _downColor$GSCopy$1$[ebp], eax
  00042	e8 00 00 00 00	 call	 ??0CPen@@QAE@HHK@Z	; CPen::CPen
  00047	ff 75 ec	 push	 DWORD PTR _downColor$GSCopy$1$[ebp]
  0004a	8d 4d b8	 lea	 ecx, DWORD PTR _downPen$[ebp]
  0004d	c7 45 fc 00 00
	00 00		 mov	 DWORD PTR __$EHRec$[ebp+8], 0
  00054	6a 01		 push	 1
  00056	6a 00		 push	 0
  00058	e8 00 00 00 00	 call	 ??0CPen@@QAE@HHK@Z	; CPen::CPen
  0005d	57		 push	 edi
  0005e	6a 01		 push	 1
  00060	6a 00		 push	 0
  00062	8d 4d 9c	 lea	 ecx, DWORD PTR _equalPen$[ebp]
  00065	c6 45 fc 01	 mov	 BYTE PTR __$EHRec$[ebp+8], 1
  00069	e8 00 00 00 00	 call	 ??0CPen@@QAE@HHK@Z	; CPen::CPen

; 1054 : 	CPen *pOldPen = ( CPen * )pDC->SelectStockObject( NULL_PEN );

  0006e	8b 06		 mov	 eax, DWORD PTR [esi]
  00070	8b ce		 mov	 ecx, esi
  00072	6a 08		 push	 8
  00074	c6 45 fc 02	 mov	 BYTE PTR __$EHRec$[ebp+8], 2
  00078	ff 50 2c	 call	 DWORD PTR [eax+44]

; 1055 : 	CBrush upBrush( upColor ), downBrush( downColor );

  0007b	53		 push	 ebx
  0007c	8d 4d c0	 lea	 ecx, DWORD PTR _upBrush$[ebp]
  0007f	89 45 a8	 mov	 DWORD PTR _pOldPen$1$[ebp], eax
  00082	e8 00 00 00 00	 call	 ??0CBrush@@QAE@K@Z	; CBrush::CBrush
  00087	ff 75 ec	 push	 DWORD PTR _downColor$GSCopy$1$[ebp]
  0008a	8d 4d c8	 lea	 ecx, DWORD PTR _downBrush$[ebp]
  0008d	c6 45 fc 03	 mov	 BYTE PTR __$EHRec$[ebp+8], 3
  00091	e8 00 00 00 00	 call	 ??0CBrush@@QAE@K@Z	; CBrush::CBrush

; 1056 : 	CBrush *pOldBrush = ( CBrush * )pDC->SelectStockObject( NULL_BRUSH );

  00096	8b 06		 mov	 eax, DWORD PTR [esi]
  00098	8b ce		 mov	 ecx, esi
  0009a	6a 05		 push	 5
  0009c	c6 45 fc 04	 mov	 BYTE PTR __$EHRec$[ebp+8], 4
  000a0	ff 50 2c	 call	 DWORD PTR [eax+44]

; 1057 : 
; 1058 : 	int	nWidth = 5, nGap = 1;
; 1059 : 	int nOrgPos_y = rect.bottom;
; 1060 : 	int nPrevEnd_x = rect.left + 1 + nGap; // 1: graph   .

  000a3	8b 7d 0c	 mov	 edi, DWORD PTR _rect$[ebp]

; 1061 : 	for( int i = SAMPLE_BONG_COUNT - p_nDrawCount; i < SAMPLE_BONG_COUNT ; i++ )

  000a6	b9 2a 00 00 00	 mov	 ecx, 42			; 0000002aH
  000ab	2b 4d 34	 sub	 ecx, DWORD PTR _p_nDrawCount$[ebp]
  000ae	83 c7 02	 add	 edi, 2
  000b1	89 45 a4	 mov	 DWORD PTR _pOldBrush$1$[ebp], eax
  000b4	8b 45 18	 mov	 eax, DWORD PTR _rect$[ebp+12]
  000b7	89 45 e8	 mov	 DWORD PTR tv859[ebp], eax
  000ba	83 f9 2a	 cmp	 ecx, 42			; 0000002aH
  000bd	0f 8d 4b 01 00
	00		 jge	 $LN3@DrawBong

; 1052 : {

  000c3	8b 45 1c	 mov	 eax, DWORD PTR _price$[ebp]
  000c6	c1 e1 04	 shl	 ecx, 4
  000c9	83 c0 08	 add	 eax, 8
  000cc	03 c1		 add	 eax, ecx
  000ce	89 45 d0	 mov	 DWORD PTR tv849[ebp], eax
$LL4@DrawBong:

; 1064 : 		int high	= price[i][1];

  000d1	8b 50 fc	 mov	 edx, DWORD PTR [eax-4]
  000d4	8b 48 f8	 mov	 ecx, DWORD PTR [eax-8]

; 1066 : 		int end		= price[i][3];

  000d7	8b 58 04	 mov	 ebx, DWORD PTR [eax+4]
  000da	89 55 e0	 mov	 DWORD PTR _high$1$[ebp], edx
  000dd	8b 10		 mov	 edx, DWORD PTR [eax]
; File C:\Program Files (x86)\Microsoft Visual Studio\2019\Community\VC\Tools\MSVC\14.29.30133\atlmfc\include\atltypes.h

; 541  : 	top = t;

  000df	8d 47 05	 lea	 eax, DWORD PTR [edi+5]
; File D:\git\src\IBK\IBK_DRFN\ProjSrc\SrcChartEx\ChartAddIn\ChartEnvSetupDlgAddIn\ChartEnvSetupDlgAddIn\StyleDataManager.cpp

; 1063 : 		int start	= price[i][0];

  000e2	89 4d ec	 mov	 DWORD PTR _start$1$[ebp], ecx

; 1065 : 		int low		= price[i][2];

  000e5	89 55 dc	 mov	 DWORD PTR _low$1$[ebp], edx

; 1067 : 
; 1068 : 		CRect bongRect( nPrevEnd_x, ( nOrgPos_y - start ), ( nPrevEnd_x + nWidth ), ( nOrgPos_y - end ) );

  000e8	8b 55 e8	 mov	 edx, DWORD PTR tv859[ebp]
  000eb	2b d1		 sub	 edx, ecx
  000ed	89 5d d8	 mov	 DWORD PTR _end$1$[ebp], ebx
  000f0	8b 4d e8	 mov	 ecx, DWORD PTR tv859[ebp]
  000f3	2b cb		 sub	 ecx, ebx
; File C:\Program Files (x86)\Microsoft Visual Studio\2019\Community\VC\Tools\MSVC\14.29.30133\atlmfc\include\atltypes.h

; 890  : 	if (top > bottom)

  000f5	3b f8		 cmp	 edi, eax
  000f7	8b d8		 mov	 ebx, eax
  000f9	0f 4e df	 cmovle	 ebx, edi
  000fc	0f 4e f8	 cmovle	 edi, eax
  000ff	3b d1		 cmp	 edx, ecx
  00101	89 5d e4	 mov	 DWORD PTR tv864[ebp], ebx
; File D:\git\src\IBK\IBK_DRFN\ProjSrc\SrcChartEx\ChartAddIn\ChartEnvSetupDlgAddIn\ChartEnvSetupDlgAddIn\StyleDataManager.cpp

; 1071 : 		if( start < end )

  00104	8b 5d e8	 mov	 ebx, DWORD PTR tv859[ebp]
; File C:\Program Files (x86)\Microsoft Visual Studio\2019\Community\VC\Tools\MSVC\14.29.30133\atlmfc\include\atltypes.h

; 890  : 	if (top > bottom)

  00107	8b c2		 mov	 eax, edx
  00109	0f 4f c1	 cmovg	 eax, ecx
; File D:\git\src\IBK\IBK_DRFN\ProjSrc\SrcChartEx\ChartAddIn\ChartEnvSetupDlgAddIn\ChartEnvSetupDlgAddIn\StyleDataManager.cpp

; 1071 : 		if( start < end )

  0010c	8b 4d d8	 mov	 ecx, DWORD PTR _end$1$[ebp]
; File C:\Program Files (x86)\Microsoft Visual Studio\2019\Community\VC\Tools\MSVC\14.29.30133\atlmfc\include\atltypes.h

; 890  : 	if (top > bottom)

  0010f	89 45 d4	 mov	 DWORD PTR _bongRect$1$sroa$551$2$[ebp], eax
; File D:\git\src\IBK\IBK_DRFN\ProjSrc\SrcChartEx\ChartAddIn\ChartEnvSetupDlgAddIn\ChartEnvSetupDlgAddIn\StyleDataManager.cpp

; 1071 : 		if( start < end )

  00112	8b 45 ec	 mov	 eax, DWORD PTR _start$1$[ebp]
  00115	0f 4e c1	 cmovle	 eax, ecx
  00118	2b d8		 sub	 ebx, eax
  0011a	39 4d ec	 cmp	 DWORD PTR _start$1$[ebp], ecx
  0011d	89 5d ac	 mov	 DWORD PTR tv865[ebp], ebx
  00120	8b ce		 mov	 ecx, esi
  00122	7d 1c		 jge	 SHORT $LN5@DrawBong

; 1072 : 		{
; 1073 : 			pDC->SelectObject( &upPen );

  00124	8d 45 b0	 lea	 eax, DWORD PTR _upPen$[ebp]
  00127	50		 push	 eax
  00128	e8 00 00 00 00	 call	 ?SelectObject@CDC@@QAEPAVCPen@@PAV2@@Z ; CDC::SelectObject

; 1074 : 			
; 1075 : 			if( bUpFill )

  0012d	83 7d 2c 00	 cmp	 DWORD PTR _bUpFill$[ebp], 0
  00131	8b ce		 mov	 ecx, esi
  00133	74 34		 je	 SHORT $LN7@DrawBong

; 1076 : 				pDC->SelectObject( &upBrush );

  00135	8d 45 c0	 lea	 eax, DWORD PTR _upBrush$[ebp]
  00138	50		 push	 eax
  00139	e8 00 00 00 00	 call	 ?SelectObject@CDC@@QAEPAVCBrush@@PAV2@@Z ; CDC::SelectObject
  0013e	eb 30		 jmp	 SHORT $LN12@DrawBong
$LN5@DrawBong:

; 1077 : 			
; 1078 : 			else
; 1079 : 				pDC->SelectStockObject( NULL_BRUSH );
; 1080 : 		}
; 1081 : 		
; 1082 : 		else if( start == end )

  00140	75 0b		 jne	 SHORT $LN9@DrawBong

; 1083 : 		{
; 1084 : 			pDC->SelectObject( &equalPen );

  00142	8d 45 9c	 lea	 eax, DWORD PTR _equalPen$[ebp]
  00145	50		 push	 eax
  00146	e8 00 00 00 00	 call	 ?SelectObject@CDC@@QAEPAVCPen@@PAV2@@Z ; CDC::SelectObject

; 1085 : 		} 

  0014b	eb 23		 jmp	 SHORT $LN12@DrawBong
$LN9@DrawBong:

; 1086 : 
; 1087 : 		else
; 1088 : 		{
; 1089 : 			pDC->SelectObject( &downPen );

  0014d	8d 45 b8	 lea	 eax, DWORD PTR _downPen$[ebp]
  00150	50		 push	 eax
  00151	e8 00 00 00 00	 call	 ?SelectObject@CDC@@QAEPAVCPen@@PAV2@@Z ; CDC::SelectObject

; 1090 : 			
; 1091 : 			if( bDownFill )

  00156	83 7d 30 00	 cmp	 DWORD PTR _bDownFill$[ebp], 0
  0015a	8b ce		 mov	 ecx, esi
  0015c	74 0b		 je	 SHORT $LN7@DrawBong

; 1092 : 				pDC->SelectObject( &downBrush );	

  0015e	8d 45 c8	 lea	 eax, DWORD PTR _downBrush$[ebp]
  00161	50		 push	 eax
  00162	e8 00 00 00 00	 call	 ?SelectObject@CDC@@QAEPAVCBrush@@PAV2@@Z ; CDC::SelectObject
  00167	eb 07		 jmp	 SHORT $LN12@DrawBong
$LN7@DrawBong:

; 1234 : 	rect.bottom += 1;

  00169	8b 06		 mov	 eax, DWORD PTR [esi]
  0016b	6a 05		 push	 5
  0016d	ff 50 2c	 call	 DWORD PTR [eax+44]
$LN12@DrawBong:
  00170	8d 43 01	 lea	 eax, DWORD PTR [ebx+1]
; File C:\Program Files (x86)\Microsoft Visual Studio\2019\Community\VC\Tools\MSVC\14.29.30133\atlmfc\include\afxwin1.inl

; 541  : 	{ ASSERT(m_hDC != NULL); return ::Rectangle(m_hDC, lpRect->left, lpRect->top,

  00173	8b 5d e4	 mov	 ebx, DWORD PTR tv864[ebp]
  00176	50		 push	 eax
  00177	57		 push	 edi
  00178	ff 75 d4	 push	 DWORD PTR _bongRect$1$sroa$551$2$[ebp]
  0017b	53		 push	 ebx
  0017c	ff 76 04	 push	 DWORD PTR [esi+4]
  0017f	ff 15 00 00 00
	00		 call	 DWORD PTR __imp__Rectangle@20
; File D:\git\src\IBK\IBK_DRFN\ProjSrc\SrcChartEx\ChartAddIn\ChartEnvSetupDlgAddIn\ChartEnvSetupDlgAddIn\StyleDataManager.cpp

; 1100 : 		if( high > end )

  00185	8b 4d e0	 mov	 ecx, DWORD PTR _high$1$[ebp]
  00188	3b 4d d8	 cmp	 ecx, DWORD PTR _end$1$[ebp]
  0018b	7e 34		 jle	 SHORT $LN14@DrawBong
; File C:\Program Files (x86)\Microsoft Visual Studio\2019\Community\VC\Tools\MSVC\14.29.30133\atlmfc\include\atltypes.h

; 611  : 	return CPoint((left+right)/2, (top+bottom)/2);

  0018d	8d 04 1f	 lea	 eax, DWORD PTR [edi+ebx]
  00190	99		 cdq
  00191	2b c2		 sub	 eax, edx
  00193	8b d8		 mov	 ebx, eax
; File D:\git\src\IBK\IBK_DRFN\ProjSrc\SrcChartEx\ChartAddIn\ChartEnvSetupDlgAddIn\ChartEnvSetupDlgAddIn\StyleDataManager.cpp

; 1102 : 			CPoint highPoint( bongRect.CenterPoint().x, nOrgPos_y - high );

  00195	8b 45 e8	 mov	 eax, DWORD PTR tv859[ebp]
  00198	2b c1		 sub	 eax, ecx
; File C:\Program Files (x86)\Microsoft Visual Studio\2019\Community\VC\Tools\MSVC\14.29.30133\atlmfc\include\atltypes.h

; 611  : 	return CPoint((left+right)/2, (top+bottom)/2);

  0019a	d1 fb		 sar	 ebx, 1

; 409  : 	y = initY;

  0019c	8b 4d d4	 mov	 ecx, DWORD PTR _bongRect$1$sroa$551$2$[ebp]
; File D:\git\src\IBK\IBK_DRFN\ProjSrc\SrcChartEx\ChartAddIn\ChartEnvSetupDlgAddIn\ChartEnvSetupDlgAddIn\StyleDataManager.cpp

; 1102 : 			CPoint highPoint( bongRect.CenterPoint().x, nOrgPos_y - high );

  0019f	89 45 e0	 mov	 DWORD PTR _highPoint$2$sroa$543$1$[ebp], eax
; File C:\Program Files (x86)\Microsoft Visual Studio\2019\Community\VC\Tools\MSVC\14.29.30133\atlmfc\include\atltypes.h

; 409  : 	y = initY;

  001a2	3b c1		 cmp	 eax, ecx
; File D:\git\src\IBK\IBK_DRFN\ProjSrc\SrcChartEx\ChartAddIn\ChartEnvSetupDlgAddIn\ChartEnvSetupDlgAddIn\StyleDataManager.cpp

; 1103 : 			if( highPoint.y < bongRect.top )

  001a4	7d 18		 jge	 SHORT $LN68@DrawBong

; 1104 : 			{
; 1105 : 				pDC->MoveTo(highPoint.x, bongRect.top);

  001a6	51		 push	 ecx
  001a7	53		 push	 ebx
  001a8	8d 45 94	 lea	 eax, DWORD PTR $T8[ebp]
  001ab	8b ce		 mov	 ecx, esi
  001ad	50		 push	 eax
  001ae	e8 00 00 00 00	 call	 ?MoveTo@CDC@@QAE?AVCPoint@@HH@Z ; CDC::MoveTo
; File C:\Program Files (x86)\Microsoft Visual Studio\2019\Community\VC\Tools\MSVC\14.29.30133\atlmfc\include\afxwin1.inl

; 466  : 	{ ASSERT(m_hDC != NULL); return LineTo(point.x, point.y); }

  001b3	ff 75 e0	 push	 DWORD PTR _highPoint$2$sroa$543$1$[ebp]
  001b6	8b ce		 mov	 ecx, esi
  001b8	53		 push	 ebx
  001b9	e8 00 00 00 00	 call	 ?LineTo@CDC@@QAEHHH@Z	; CDC::LineTo
$LN68@DrawBong:
; File D:\git\src\IBK\IBK_DRFN\ProjSrc\SrcChartEx\ChartAddIn\ChartEnvSetupDlgAddIn\ChartEnvSetupDlgAddIn\StyleDataManager.cpp

; 1110 : 		if( low < start )

  001be	8b 5d e4	 mov	 ebx, DWORD PTR tv864[ebp]
$LN14@DrawBong:
  001c1	8b 4d dc	 mov	 ecx, DWORD PTR _low$1$[ebp]
  001c4	3b 4d ec	 cmp	 ecx, DWORD PTR _start$1$[ebp]
  001c7	7d 31		 jge	 SHORT $LN16@DrawBong
; File C:\Program Files (x86)\Microsoft Visual Studio\2019\Community\VC\Tools\MSVC\14.29.30133\atlmfc\include\atltypes.h

; 611  : 	return CPoint((left+right)/2, (top+bottom)/2);

  001c9	8d 04 1f	 lea	 eax, DWORD PTR [edi+ebx]
  001cc	99		 cdq
  001cd	2b c2		 sub	 eax, edx
  001cf	8b d8		 mov	 ebx, eax
; File D:\git\src\IBK\IBK_DRFN\ProjSrc\SrcChartEx\ChartAddIn\ChartEnvSetupDlgAddIn\ChartEnvSetupDlgAddIn\StyleDataManager.cpp

; 1112 : 			CPoint lowPoint( bongRect.CenterPoint().x, nOrgPos_y - low );

  001d1	8b 45 e8	 mov	 eax, DWORD PTR tv859[ebp]
  001d4	2b c1		 sub	 eax, ecx
; File C:\Program Files (x86)\Microsoft Visual Studio\2019\Community\VC\Tools\MSVC\14.29.30133\atlmfc\include\atltypes.h

; 611  : 	return CPoint((left+right)/2, (top+bottom)/2);

  001d6	d1 fb		 sar	 ebx, 1

; 409  : 	y = initY;

  001d8	8b 4d ac	 mov	 ecx, DWORD PTR tv865[ebp]
; File D:\git\src\IBK\IBK_DRFN\ProjSrc\SrcChartEx\ChartAddIn\ChartEnvSetupDlgAddIn\ChartEnvSetupDlgAddIn\StyleDataManager.cpp

; 1112 : 			CPoint lowPoint( bongRect.CenterPoint().x, nOrgPos_y - low );

  001db	89 45 dc	 mov	 DWORD PTR _lowPoint$4$sroa$539$1$[ebp], eax
; File C:\Program Files (x86)\Microsoft Visual Studio\2019\Community\VC\Tools\MSVC\14.29.30133\atlmfc\include\atltypes.h

; 409  : 	y = initY;

  001de	3b c1		 cmp	 eax, ecx
; File D:\git\src\IBK\IBK_DRFN\ProjSrc\SrcChartEx\ChartAddIn\ChartEnvSetupDlgAddIn\ChartEnvSetupDlgAddIn\StyleDataManager.cpp

; 1113 : 			if(lowPoint.y > bongRect.bottom){

  001e0	7e 18		 jle	 SHORT $LN16@DrawBong

; 1114 : 				pDC->MoveTo(lowPoint.x, bongRect.bottom);

  001e2	51		 push	 ecx
  001e3	53		 push	 ebx
  001e4	8d 45 8c	 lea	 eax, DWORD PTR $T7[ebp]
  001e7	8b ce		 mov	 ecx, esi
  001e9	50		 push	 eax
  001ea	e8 00 00 00 00	 call	 ?MoveTo@CDC@@QAE?AVCPoint@@HH@Z ; CDC::MoveTo
; File C:\Program Files (x86)\Microsoft Visual Studio\2019\Community\VC\Tools\MSVC\14.29.30133\atlmfc\include\afxwin1.inl

; 466  : 	{ ASSERT(m_hDC != NULL); return LineTo(point.x, point.y); }

  001ef	ff 75 dc	 push	 DWORD PTR _lowPoint$4$sroa$539$1$[ebp]
  001f2	8b ce		 mov	 ecx, esi
  001f4	53		 push	 ebx
  001f5	e8 00 00 00 00	 call	 ?LineTo@CDC@@QAEHHH@Z	; CDC::LineTo
$LN16@DrawBong:
; File D:\git\src\IBK\IBK_DRFN\ProjSrc\SrcChartEx\ChartAddIn\ChartEnvSetupDlgAddIn\ChartEnvSetupDlgAddIn\StyleDataManager.cpp

; 1061 : 	for( int i = SAMPLE_BONG_COUNT - p_nDrawCount; i < SAMPLE_BONG_COUNT ; i++ )

  001fa	8b 45 d0	 mov	 eax, DWORD PTR tv849[ebp]

; 1115 : 				pDC->LineTo(lowPoint);
; 1116 : 			}
; 1117 : 		}
; 1118 : 
; 1119 : 		nPrevEnd_x = bongRect.right + nGap;

  001fd	47		 inc	 edi
  001fe	83 c0 10	 add	 eax, 16			; 00000010H
  00201	83 6d 34 01	 sub	 DWORD PTR _p_nDrawCount$[ebp], 1
  00205	89 45 d0	 mov	 DWORD PTR tv849[ebp], eax
  00208	0f 85 c3 fe ff
	ff		 jne	 $LL4@DrawBong
$LN3@DrawBong:

; 1120 : 	}
; 1121 : 	
; 1122 : 	pDC->SelectObject(pOldPen);

  0020e	ff 75 a8	 push	 DWORD PTR _pOldPen$1$[ebp]
  00211	8b ce		 mov	 ecx, esi
  00213	e8 00 00 00 00	 call	 ?SelectObject@CDC@@QAEPAVCPen@@PAV2@@Z ; CDC::SelectObject

; 1123 : 	pDC->SelectObject(pOldBrush);

  00218	ff 75 a4	 push	 DWORD PTR _pOldBrush$1$[ebp]
  0021b	8b ce		 mov	 ecx, esi
  0021d	e8 00 00 00 00	 call	 ?SelectObject@CDC@@QAEPAVCBrush@@PAV2@@Z ; CDC::SelectObject

; 1124 : 	upPen.DeleteObject();

  00222	8d 4d b0	 lea	 ecx, DWORD PTR _upPen$[ebp]
  00225	e8 00 00 00 00	 call	 ?DeleteObject@CGdiObject@@QAEHXZ ; CGdiObject::DeleteObject

; 1125 : 	downPen.DeleteObject();

  0022a	8d 4d b8	 lea	 ecx, DWORD PTR _downPen$[ebp]
  0022d	e8 00 00 00 00	 call	 ?DeleteObject@CGdiObject@@QAEHXZ ; CGdiObject::DeleteObject

; 1126 : 	upBrush.DeleteObject();

  00232	8d 4d c0	 lea	 ecx, DWORD PTR _upBrush$[ebp]
  00235	e8 00 00 00 00	 call	 ?DeleteObject@CGdiObject@@QAEHXZ ; CGdiObject::DeleteObject

; 1127 : 	downBrush.DeleteObject();

  0023a	8d 4d c8	 lea	 ecx, DWORD PTR _downBrush$[ebp]
  0023d	e8 00 00 00 00	 call	 ?DeleteObject@CGdiObject@@QAEHXZ ; CGdiObject::DeleteObject
; File C:\Program Files (x86)\Microsoft Visual Studio\2019\Community\VC\Tools\MSVC\14.29.30133\atlmfc\include\afxwin1.inl

; 130  : 	{ }

  00242	8d 4d c8	 lea	 ecx, DWORD PTR _downBrush$[ebp]
  00245	c7 45 c8 00 00
	00 00		 mov	 DWORD PTR _downBrush$[ebp], OFFSET ??_7CBrush@@6B@
  0024c	e8 00 00 00 00	 call	 ??1CGdiObject@@UAE@XZ	; CGdiObject::~CGdiObject
  00251	8d 4d c0	 lea	 ecx, DWORD PTR _upBrush$[ebp]
  00254	c7 45 c0 00 00
	00 00		 mov	 DWORD PTR _upBrush$[ebp], OFFSET ??_7CBrush@@6B@
  0025b	e8 00 00 00 00	 call	 ??1CGdiObject@@UAE@XZ	; CGdiObject::~CGdiObject

; 106  : 	{ }

  00260	8d 4d 9c	 lea	 ecx, DWORD PTR _equalPen$[ebp]
  00263	c7 45 9c 00 00
	00 00		 mov	 DWORD PTR _equalPen$[ebp], OFFSET ??_7CPen@@6B@
  0026a	e8 00 00 00 00	 call	 ??1CGdiObject@@UAE@XZ	; CGdiObject::~CGdiObject
  0026f	8d 4d b8	 lea	 ecx, DWORD PTR _downPen$[ebp]
  00272	c7 45 b8 00 00
	00 00		 mov	 DWORD PTR _downPen$[ebp], OFFSET ??_7CPen@@6B@
  00279	e8 00 00 00 00	 call	 ??1CGdiObject@@UAE@XZ	; CGdiObject::~CGdiObject
  0027e	8d 4d b0	 lea	 ecx, DWORD PTR _upPen$[ebp]
  00281	c7 45 b0 00 00
	00 00		 mov	 DWORD PTR _upPen$[ebp], OFFSET ??_7CPen@@6B@
  00288	e8 00 00 00 00	 call	 ??1CGdiObject@@UAE@XZ	; CGdiObject::~CGdiObject
; File D:\git\src\IBK\IBK_DRFN\ProjSrc\SrcChartEx\ChartAddIn\ChartEnvSetupDlgAddIn\ChartEnvSetupDlgAddIn\StyleDataManager.cpp

; 1128 : }

  0028d	8b 4d f4	 mov	 ecx, DWORD PTR __$EHRec$[ebp]
  00290	64 89 0d 00 00
	00 00		 mov	 DWORD PTR fs:0, ecx
  00297	59		 pop	 ecx
  00298	5f		 pop	 edi
  00299	5e		 pop	 esi
  0029a	5b		 pop	 ebx
  0029b	8b 4d f0	 mov	 ecx, DWORD PTR __$ArrayPad$[ebp]
  0029e	33 cd		 xor	 ecx, ebp
  002a0	e8 00 00 00 00	 call	 @__security_check_cookie@4
  002a5	8b e5		 mov	 esp, ebp
  002a7	5d		 pop	 ebp
  002a8	c2 30 00	 ret	 48			; 00000030H
_TEXT	ENDS
;	COMDAT text$x
text$x	SEGMENT
__unwindfunclet$?DrawBong@CStyleDataManager@@QAEXPAVCDC@@VCRect@@PAY03HKKKHHH@Z$0:
  00000	8d 4d b0	 lea	 ecx, DWORD PTR _upPen$[ebp]
  00003	e9 00 00 00 00	 jmp	 ??1CPen@@UAE@XZ		; CPen::~CPen
__unwindfunclet$?DrawBong@CStyleDataManager@@QAEXPAVCDC@@VCRect@@PAY03HKKKHHH@Z$1:
  00008	8d 4d b8	 lea	 ecx, DWORD PTR _downPen$[ebp]
  0000b	e9 00 00 00 00	 jmp	 ??1CPen@@UAE@XZ		; CPen::~CPen
__unwindfunclet$?DrawBong@CStyleDataManager@@QAEXPAVCDC@@VCRect@@PAY03HKKKHHH@Z$2:
  00010	8d 4d 9c	 lea	 ecx, DWORD PTR _equalPen$[ebp]
  00013	e9 00 00 00 00	 jmp	 ??1CPen@@UAE@XZ		; CPen::~CPen
__unwindfunclet$?DrawBong@CStyleDataManager@@QAEXPAVCDC@@VCRect@@PAY03HKKKHHH@Z$3:
  00018	8d 4d c0	 lea	 ecx, DWORD PTR _upBrush$[ebp]
  0001b	e9 00 00 00 00	 jmp	 ??1CBrush@@UAE@XZ	; CBrush::~CBrush
__unwindfunclet$?DrawBong@CStyleDataManager@@QAEXPAVCDC@@VCRect@@PAY03HKKKHHH@Z$4:
  00020	8d 4d c8	 lea	 ecx, DWORD PTR _downBrush$[ebp]
  00023	e9 00 00 00 00	 jmp	 ??1CBrush@@UAE@XZ	; CBrush::~CBrush
  00028	cc		 int	 3
  00029	cc		 int	 3
  0002a	cc		 int	 3
  0002b	cc		 int	 3
  0002c	cc		 int	 3
__ehhandler$?DrawBong@CStyleDataManager@@QAEXPAVCDC@@VCRect@@PAY03HKKKHHH@Z:
  0002d	90		 npad	 1
  0002e	90		 npad	 1
  0002f	8b 54 24 08	 mov	 edx, DWORD PTR [esp+8]
  00033	8d 42 0c	 lea	 eax, DWORD PTR [edx+12]
  00036	8b 4a 88	 mov	 ecx, DWORD PTR [edx-120]
  00039	33 c8		 xor	 ecx, eax
  0003b	e8 00 00 00 00	 call	 @__security_check_cookie@4
  00040	8b 4a fc	 mov	 ecx, DWORD PTR [edx-4]
  00043	33 c8		 xor	 ecx, eax
  00045	e8 00 00 00 00	 call	 @__security_check_cookie@4
  0004a	b8 00 00 00 00	 mov	 eax, OFFSET __ehfuncinfo$?DrawBong@CStyleDataManager@@QAEXPAVCDC@@VCRect@@PAY03HKKKHHH@Z
  0004f	e9 00 00 00 00	 jmp	 ___CxxFrameHandler3
text$x	ENDS
?DrawBong@CStyleDataManager@@QAEXPAVCDC@@VCRect@@PAY03HKKKHHH@Z ENDP ; CStyleDataManager::DrawBong
; Function compile flags: /Ogtp
; File D:\git\src\IBK\IBK_DRFN\ProjSrc\SrcChartEx\ChartAddIn\ChartEnvSetupDlgAddIn\ChartEnvSetupDlgAddIn\StyleDataManager.cpp
; File C:\Program Files (x86)\Microsoft Visual Studio\2019\Community\VC\Tools\MSVC\14.29.30133\atlmfc\include\afxwin1.inl
; File D:\git\src\IBK\IBK_DRFN\ProjSrc\SrcChartEx\ChartAddIn\ChartEnvSetupDlgAddIn\ChartEnvSetupDlgAddIn\StyleDataManager.cpp
; File C:\Program Files (x86)\Microsoft Visual Studio\2019\Community\VC\Tools\MSVC\14.29.30133\atlmfc\include\afxwin1.inl
; File D:\git\src\IBK\IBK_DRFN\ProjSrc\SrcChartEx\ChartAddIn\ChartEnvSetupDlgAddIn\ChartEnvSetupDlgAddIn\StyleDataManager.cpp
; File C:\Program Files (x86)\Microsoft Visual Studio\2019\Community\VC\Tools\MSVC\14.29.30133\atlmfc\include\afxwin1.inl
; File D:\git\src\IBK\IBK_DRFN\ProjSrc\SrcChartEx\ChartAddIn\ChartEnvSetupDlgAddIn\ChartEnvSetupDlgAddIn\StyleDataManager.cpp
; File C:\Program Files (x86)\Microsoft Visual Studio\2019\Community\VC\Tools\MSVC\14.29.30133\atlmfc\include\atlsimpstr.h
; File C:\Program Files (x86)\Microsoft Visual Studio\2019\Community\VC\Tools\MSVC\14.29.30133\atlmfc\include\afxwin1.inl
; File D:\git\src\IBK\IBK_DRFN\ProjSrc\SrcChartEx\ChartAddIn\ChartEnvSetupDlgAddIn\ChartEnvSetupDlgAddIn\StyleDataManager.cpp
; File C:\Program Files (x86)\Microsoft Visual Studio\2019\Community\VC\Tools\MSVC\14.29.30133\atlmfc\include\afxwin1.inl
; File D:\git\src\IBK\IBK_DRFN\ProjSrc\SrcChartEx\ChartAddIn\ChartEnvSetupDlgAddIn\ChartEnvSetupDlgAddIn\StyleDataManager.cpp
; File C:\Program Files (x86)\Microsoft Visual Studio\2019\Community\VC\Tools\MSVC\14.29.30133\atlmfc\include\afxwin1.inl
; File D:\git\src\IBK\IBK_DRFN\ProjSrc\SrcChartEx\ChartAddIn\ChartEnvSetupDlgAddIn\ChartEnvSetupDlgAddIn\StyleDataManager.cpp
; File C:\Program Files (x86)\Microsoft Visual Studio\2019\Community\VC\Tools\MSVC\14.29.30133\atlmfc\include\afxwin1.inl
; File D:\git\src\IBK\IBK_DRFN\ProjSrc\SrcChartEx\ChartAddIn\ChartEnvSetupDlgAddIn\ChartEnvSetupDlgAddIn\StyleDataManager.cpp
; File C:\Program Files (x86)\Microsoft Visual Studio\2019\Community\VC\Tools\MSVC\14.29.30133\atlmfc\include\atlsimpstr.h
; File C:\Program Files (x86)\Microsoft Visual Studio\2019\Community\VC\Tools\MSVC\14.29.30133\atlmfc\include\afxwin1.inl
; File D:\git\src\IBK\IBK_DRFN\ProjSrc\SrcChartEx\ChartAddIn\ChartEnvSetupDlgAddIn\ChartEnvSetupDlgAddIn\StyleDataManager.cpp
; File C:\Program Files (x86)\Microsoft Visual Studio\2019\Community\VC\Tools\MSVC\14.29.30133\atlmfc\include\afxwin1.inl
; File D:\git\src\IBK\IBK_DRFN\ProjSrc\SrcChartEx\ChartAddIn\ChartEnvSetupDlgAddIn\ChartEnvSetupDlgAddIn\StyleDataManager.cpp
; File C:\Program Files (x86)\Microsoft Visual Studio\2019\Community\VC\Tools\MSVC\14.29.30133\atlmfc\include\afxwin1.inl
; File D:\git\src\IBK\IBK_DRFN\ProjSrc\SrcChartEx\ChartAddIn\ChartEnvSetupDlgAddIn\ChartEnvSetupDlgAddIn\StyleDataManager.cpp
; File C:\Program Files (x86)\Microsoft Visual Studio\2019\Community\VC\Tools\MSVC\14.29.30133\atlmfc\include\afxwin1.inl
; File D:\git\src\IBK\IBK_DRFN\ProjSrc\SrcChartEx\ChartAddIn\ChartEnvSetupDlgAddIn\ChartEnvSetupDlgAddIn\StyleDataManager.cpp
;	COMDAT ?DrawTitle@CStyleDataManager@@QAEXPAVCDC@@VCRect@@1PAVCStyleData@@PAVCFont@@PAUHWND__@@W4CHART_MODE@CChartInfo@@@Z
_TEXT	SEGMENT
_pOldFont$1$ = -16					; size = 4
__$EHRec$ = -12						; size = 12
_ordColor$1$ = 8					; size = 4
_pDC$ = 8						; size = 4
_rect1$ = 12						; size = 16
_rect2$ = 28						; size = 16
$T2 = 44						; size = 4
_p_pStyleData$ = 44					; size = 4
_nOldMode$1$ = 48					; size = 4
_p_pTitleFont$ = 48					; size = 4
$T3 = 52						; size = 4
_p_hOcxWnd$ = 52					; size = 4
_p_eChartMode$ = 56					; size = 4
?DrawTitle@CStyleDataManager@@QAEXPAVCDC@@VCRect@@1PAVCStyleData@@PAVCFont@@PAUHWND__@@W4CHART_MODE@CChartInfo@@@Z PROC ; CStyleDataManager::DrawTitle, COMDAT
; _this$ = ecx

; 1017 : {

  00000	55		 push	 ebp
  00001	8b ec		 mov	 ebp, esp
  00003	6a ff		 push	 -1
  00005	68 00 00 00 00	 push	 __ehhandler$?DrawTitle@CStyleDataManager@@QAEXPAVCDC@@VCRect@@1PAVCStyleData@@PAVCFont@@PAUHWND__@@W4CHART_MODE@CChartInfo@@@Z
  0000a	64 a1 00 00 00
	00		 mov	 eax, DWORD PTR fs:0
  00010	50		 push	 eax
  00011	51		 push	 ecx
  00012	53		 push	 ebx
  00013	56		 push	 esi
  00014	57		 push	 edi
  00015	a1 00 00 00 00	 mov	 eax, DWORD PTR ___security_cookie
  0001a	33 c5		 xor	 eax, ebp
  0001c	50		 push	 eax
  0001d	8d 45 f4	 lea	 eax, DWORD PTR __$EHRec$[ebp]
  00020	64 a3 00 00 00
	00		 mov	 DWORD PTR fs:0, eax

; 1018 : 	COLORREF bgColor		= p_pStyleData->GetGraphBGColor();

  00026	8b 5d 2c	 mov	 ebx, DWORD PTR _p_pStyleData$[ebp]
  00029	8b cb		 mov	 ecx, ebx
  0002b	e8 00 00 00 00	 call	 ?GetGraphBGColor@CStyleData@@QBEKXZ ; CStyleData::GetGraphBGColor

; 1019 : 	COLORREF borderColor	= p_pStyleData->GetGraphBorderColor();

  00030	8b cb		 mov	 ecx, ebx
  00032	e8 00 00 00 00	 call	 ?GetGraphBorderColor@CStyleData@@QBEKXZ ; CStyleData::GetGraphBorderColor
; File C:\Program Files (x86)\Microsoft Visual Studio\2019\Community\VC\Tools\MSVC\14.29.30133\atlmfc\include\afxwin1.inl

; 796  : 	{ ASSERT(m_hAttribDC != NULL); return CFont::FromHandle((HFONT)::GetCurrentObject(m_hAttribDC, OBJ_FONT)); }

  00037	8b 7d 08	 mov	 edi, DWORD PTR _pDC$[ebp]
  0003a	6a 06		 push	 6
  0003c	ff 77 08	 push	 DWORD PTR [edi+8]
  0003f	ff 15 00 00 00
	00		 call	 DWORD PTR __imp__GetCurrentObject@8

; 151  : 	{ return (CFont*) CGdiObject::FromHandle(hFont); }

  00045	50		 push	 eax
  00046	e8 00 00 00 00	 call	 ?FromHandle@CGdiObject@@SGPAV1@PAX@Z ; CGdiObject::FromHandle
; File D:\git\src\IBK\IBK_DRFN\ProjSrc\SrcChartEx\ChartAddIn\ChartEnvSetupDlgAddIn\ChartEnvSetupDlgAddIn\StyleDataManager.cpp

; 1022 : 	if( p_pTitleFont != NULL)

  0004b	8b 4d 30	 mov	 ecx, DWORD PTR _p_pTitleFont$[ebp]
  0004e	89 45 f0	 mov	 DWORD PTR _pOldFont$1$[ebp], eax
  00051	85 c9		 test	 ecx, ecx
  00053	74 08		 je	 SHORT $LN2@DrawTitle

; 1023 : 		pDC->SelectObject(p_pTitleFont);

  00055	8b 17		 mov	 edx, DWORD PTR [edi]
  00057	51		 push	 ecx
  00058	8b cf		 mov	 ecx, edi
  0005a	ff 52 30	 call	 DWORD PTR [edx+48]
$LN2@DrawTitle:

; 1025 : 	int nOldMode = pDC->SetBkMode(TRANSPARENT);

  0005d	6a 01		 push	 1
  0005f	8b cf		 mov	 ecx, edi
  00061	e8 00 00 00 00	 call	 ?SetBkMode@CDC@@QAEHH@Z	; CDC::SetBkMode
; File C:\Program Files (x86)\Microsoft Visual Studio\2019\Community\VC\Tools\MSVC\14.29.30133\atlmfc\include\afxwin1.inl

; 384  : 	{ ASSERT(m_hAttribDC != NULL); return ::GetTextColor(m_hAttribDC); }

  00066	ff 77 08	 push	 DWORD PTR [edi+8]
; File D:\git\src\IBK\IBK_DRFN\ProjSrc\SrcChartEx\ChartAddIn\ChartEnvSetupDlgAddIn\ChartEnvSetupDlgAddIn\StyleDataManager.cpp

; 1025 : 	int nOldMode = pDC->SetBkMode(TRANSPARENT);

  00069	89 45 30	 mov	 DWORD PTR _nOldMode$1$[ebp], eax
; File C:\Program Files (x86)\Microsoft Visual Studio\2019\Community\VC\Tools\MSVC\14.29.30133\atlmfc\include\afxwin1.inl

; 384  : 	{ ASSERT(m_hAttribDC != NULL); return ::GetTextColor(m_hAttribDC); }

  0006c	ff 15 00 00 00
	00		 call	 DWORD PTR __imp__GetTextColor@4
; File D:\git\src\IBK\IBK_DRFN\ProjSrc\SrcChartEx\ChartAddIn\ChartEnvSetupDlgAddIn\ChartEnvSetupDlgAddIn\StyleDataManager.cpp

; 1029 : 	pDC->SetTextColor( p_pStyleData->GetPriceUpColor());

  00072	8b 37		 mov	 esi, DWORD PTR [edi]
  00074	8b cb		 mov	 ecx, ebx
  00076	89 45 08	 mov	 DWORD PTR _ordColor$1$[ebp], eax
  00079	e8 00 00 00 00	 call	 ?GetPriceUpColor@CStyleData@@QBEKXZ ; CStyleData::GetPriceUpColor
  0007e	50		 push	 eax
  0007f	8b cf		 mov	 ecx, edi
  00081	ff 56 38	 call	 DWORD PTR [esi+56]

; 1030 : 	pDC->TextOut( rect1.left + 4, rect1.top + 4, _LTEXT3(C3_PRICE));

  00084	a1 54 00 00 00	 mov	 eax, DWORD PTR ?g_iMetaTable@@3VIMetaTable@@A+84
  00089	b9 00 00 00 00	 mov	 ecx, OFFSET ?g_iMetaTable@@3VIMetaTable@@A ; g_iMetaTable
  0008e	6a 00		 push	 0
  00090	ff b0 b4 04 00
	00		 push	 DWORD PTR [eax+1204]
  00096	6a 03		 push	 3
  00098	ff 75 34	 push	 DWORD PTR _p_hOcxWnd$[ebp]
  0009b	e8 00 00 00 00	 call	 ?GetLanguageText@IMetaTable@@QAEPBDPAUHWND__@@W4E_CODEPAGE@1@PBDH@Z ; IMetaTable::GetLanguageText
  000a0	50		 push	 eax
  000a1	8d 4d 2c	 lea	 ecx, DWORD PTR $T2[ebp]
  000a4	ff 15 00 00 00
	00		 call	 DWORD PTR __imp_??0?$CStringT@DV?$StrTraitMFC_DLL@DV?$ChTraitsCRT@D@ATL@@@@@ATL@@QAE@PBD@Z
; File C:\Program Files (x86)\Microsoft Visual Studio\2019\Community\VC\Tools\MSVC\14.29.30133\atlmfc\include\atlsimpstr.h

; 519  : 		return( GetData()->nDataLength );

  000aa	8b 45 2c	 mov	 eax, DWORD PTR $T2[ebp]
; File C:\Program Files (x86)\Microsoft Visual Studio\2019\Community\VC\Tools\MSVC\14.29.30133\atlmfc\include\afxwin1.inl

; 574  : 	{ ASSERT(m_hDC != NULL); return TextOut(x, y, (LPCTSTR)str, (int)str.GetLength()); } // call virtual

  000ad	8b cf		 mov	 ecx, edi
  000af	8b 17		 mov	 edx, DWORD PTR [edi]
; File D:\git\src\IBK\IBK_DRFN\ProjSrc\SrcChartEx\ChartAddIn\ChartEnvSetupDlgAddIn\ChartEnvSetupDlgAddIn\StyleDataManager.cpp

; 1030 : 	pDC->TextOut( rect1.left + 4, rect1.top + 4, _LTEXT3(C3_PRICE));

  000b1	c7 45 fc 00 00
	00 00		 mov	 DWORD PTR __$EHRec$[ebp+8], 0
; File C:\Program Files (x86)\Microsoft Visual Studio\2019\Community\VC\Tools\MSVC\14.29.30133\atlmfc\include\afxwin1.inl

; 574  : 	{ ASSERT(m_hDC != NULL); return TextOut(x, y, (LPCTSTR)str, (int)str.GetLength()); } // call virtual

  000b8	ff 70 f4	 push	 DWORD PTR [eax-12]
  000bb	50		 push	 eax
; File D:\git\src\IBK\IBK_DRFN\ProjSrc\SrcChartEx\ChartAddIn\ChartEnvSetupDlgAddIn\ChartEnvSetupDlgAddIn\StyleDataManager.cpp

; 1030 : 	pDC->TextOut( rect1.left + 4, rect1.top + 4, _LTEXT3(C3_PRICE));

  000bc	8b 45 10	 mov	 eax, DWORD PTR _rect1$[ebp+4]
  000bf	83 c0 04	 add	 eax, 4
; File C:\Program Files (x86)\Microsoft Visual Studio\2019\Community\VC\Tools\MSVC\14.29.30133\atlmfc\include\afxwin1.inl

; 574  : 	{ ASSERT(m_hDC != NULL); return TextOut(x, y, (LPCTSTR)str, (int)str.GetLength()); } // call virtual

  000c2	50		 push	 eax
; File D:\git\src\IBK\IBK_DRFN\ProjSrc\SrcChartEx\ChartAddIn\ChartEnvSetupDlgAddIn\ChartEnvSetupDlgAddIn\StyleDataManager.cpp

; 1030 : 	pDC->TextOut( rect1.left + 4, rect1.top + 4, _LTEXT3(C3_PRICE));

  000c3	8b 45 0c	 mov	 eax, DWORD PTR _rect1$[ebp]
  000c6	83 c0 04	 add	 eax, 4
; File C:\Program Files (x86)\Microsoft Visual Studio\2019\Community\VC\Tools\MSVC\14.29.30133\atlmfc\include\afxwin1.inl

; 574  : 	{ ASSERT(m_hDC != NULL); return TextOut(x, y, (LPCTSTR)str, (int)str.GetLength()); } // call virtual

  000c9	50		 push	 eax
  000ca	ff 52 64	 call	 DWORD PTR [edx+100]
; File D:\git\src\IBK\IBK_DRFN\ProjSrc\SrcChartEx\ChartAddIn\ChartEnvSetupDlgAddIn\ChartEnvSetupDlgAddIn\StyleDataManager.cpp

; 1030 : 	pDC->TextOut( rect1.left + 4, rect1.top + 4, _LTEXT3(C3_PRICE));

  000cd	8d 4d 2c	 lea	 ecx, DWORD PTR $T2[ebp]
  000d0	c7 45 fc ff ff
	ff ff		 mov	 DWORD PTR __$EHRec$[ebp+8], -1
  000d7	ff 15 00 00 00
	00		 call	 DWORD PTR __imp_??1?$CStringT@DV?$StrTraitMFC_DLL@DV?$ChTraitsCRT@D@ATL@@@@@ATL@@QAE@XZ

; 1031 : 	// (2009/9/21 - Seung-Won, Bae) for FX
; 1032 : 	if( CChartInfo::FX != p_eChartMode)

  000dd	83 7d 38 02	 cmp	 DWORD PTR _p_eChartMode$[ebp], 2
  000e1	74 68		 je	 SHORT $LN3@DrawTitle

; 1033 : 	{
; 1034 : 		pDC->SetTextColor(p_pStyleData->GetTradeUpColor());

  000e3	8b 37		 mov	 esi, DWORD PTR [edi]
  000e5	8b cb		 mov	 ecx, ebx
  000e7	e8 00 00 00 00	 call	 ?GetTradeUpColor@CStyleData@@QBEKXZ ; CStyleData::GetTradeUpColor
  000ec	50		 push	 eax
  000ed	8b cf		 mov	 ecx, edi
  000ef	ff 56 38	 call	 DWORD PTR [esi+56]

; 1035 : 		pDC->TextOut(rect2.left + 4, rect2.top + 4, _LTEXT3(C3_VOLUME));

  000f2	a1 54 00 00 00	 mov	 eax, DWORD PTR ?g_iMetaTable@@3VIMetaTable@@A+84
  000f7	b9 00 00 00 00	 mov	 ecx, OFFSET ?g_iMetaTable@@3VIMetaTable@@A ; g_iMetaTable
  000fc	6a 00		 push	 0
  000fe	ff b0 c4 04 00
	00		 push	 DWORD PTR [eax+1220]
  00104	6a 03		 push	 3
  00106	ff 75 34	 push	 DWORD PTR _p_hOcxWnd$[ebp]
  00109	e8 00 00 00 00	 call	 ?GetLanguageText@IMetaTable@@QAEPBDPAUHWND__@@W4E_CODEPAGE@1@PBDH@Z ; IMetaTable::GetLanguageText
  0010e	50		 push	 eax
  0010f	8d 4d 34	 lea	 ecx, DWORD PTR $T3[ebp]
  00112	ff 15 00 00 00
	00		 call	 DWORD PTR __imp_??0?$CStringT@DV?$StrTraitMFC_DLL@DV?$ChTraitsCRT@D@ATL@@@@@ATL@@QAE@PBD@Z
; File C:\Program Files (x86)\Microsoft Visual Studio\2019\Community\VC\Tools\MSVC\14.29.30133\atlmfc\include\atlsimpstr.h

; 519  : 		return( GetData()->nDataLength );

  00118	8b 45 34	 mov	 eax, DWORD PTR $T3[ebp]
; File C:\Program Files (x86)\Microsoft Visual Studio\2019\Community\VC\Tools\MSVC\14.29.30133\atlmfc\include\afxwin1.inl

; 574  : 	{ ASSERT(m_hDC != NULL); return TextOut(x, y, (LPCTSTR)str, (int)str.GetLength()); } // call virtual

  0011b	8b cf		 mov	 ecx, edi
  0011d	8b 17		 mov	 edx, DWORD PTR [edi]
; File D:\git\src\IBK\IBK_DRFN\ProjSrc\SrcChartEx\ChartAddIn\ChartEnvSetupDlgAddIn\ChartEnvSetupDlgAddIn\StyleDataManager.cpp

; 1035 : 		pDC->TextOut(rect2.left + 4, rect2.top + 4, _LTEXT3(C3_VOLUME));

  0011f	c7 45 fc 01 00
	00 00		 mov	 DWORD PTR __$EHRec$[ebp+8], 1
; File C:\Program Files (x86)\Microsoft Visual Studio\2019\Community\VC\Tools\MSVC\14.29.30133\atlmfc\include\afxwin1.inl

; 574  : 	{ ASSERT(m_hDC != NULL); return TextOut(x, y, (LPCTSTR)str, (int)str.GetLength()); } // call virtual

  00126	ff 70 f4	 push	 DWORD PTR [eax-12]
  00129	50		 push	 eax
; File D:\git\src\IBK\IBK_DRFN\ProjSrc\SrcChartEx\ChartAddIn\ChartEnvSetupDlgAddIn\ChartEnvSetupDlgAddIn\StyleDataManager.cpp

; 1035 : 		pDC->TextOut(rect2.left + 4, rect2.top + 4, _LTEXT3(C3_VOLUME));

  0012a	8b 45 20	 mov	 eax, DWORD PTR _rect2$[ebp+4]
  0012d	83 c0 04	 add	 eax, 4
; File C:\Program Files (x86)\Microsoft Visual Studio\2019\Community\VC\Tools\MSVC\14.29.30133\atlmfc\include\afxwin1.inl

; 574  : 	{ ASSERT(m_hDC != NULL); return TextOut(x, y, (LPCTSTR)str, (int)str.GetLength()); } // call virtual

  00130	50		 push	 eax
; File D:\git\src\IBK\IBK_DRFN\ProjSrc\SrcChartEx\ChartAddIn\ChartEnvSetupDlgAddIn\ChartEnvSetupDlgAddIn\StyleDataManager.cpp

; 1035 : 		pDC->TextOut(rect2.left + 4, rect2.top + 4, _LTEXT3(C3_VOLUME));

  00131	8b 45 1c	 mov	 eax, DWORD PTR _rect2$[ebp]
  00134	83 c0 04	 add	 eax, 4
; File C:\Program Files (x86)\Microsoft Visual Studio\2019\Community\VC\Tools\MSVC\14.29.30133\atlmfc\include\afxwin1.inl

; 574  : 	{ ASSERT(m_hDC != NULL); return TextOut(x, y, (LPCTSTR)str, (int)str.GetLength()); } // call virtual

  00137	50		 push	 eax
  00138	ff 52 64	 call	 DWORD PTR [edx+100]
; File D:\git\src\IBK\IBK_DRFN\ProjSrc\SrcChartEx\ChartAddIn\ChartEnvSetupDlgAddIn\ChartEnvSetupDlgAddIn\StyleDataManager.cpp

; 1035 : 		pDC->TextOut(rect2.left + 4, rect2.top + 4, _LTEXT3(C3_VOLUME));

  0013b	8d 4d 34	 lea	 ecx, DWORD PTR $T3[ebp]
  0013e	c7 45 fc ff ff
	ff ff		 mov	 DWORD PTR __$EHRec$[ebp+8], -1
  00145	ff 15 00 00 00
	00		 call	 DWORD PTR __imp_??1?$CStringT@DV?$StrTraitMFC_DLL@DV?$ChTraitsCRT@D@ATL@@@@@ATL@@QAE@XZ
$LN3@DrawTitle:

; 1036 : 	}
; 1037 : 
; 1038 : 	pDC->SetTextColor(ordColor);

  0014b	8b 07		 mov	 eax, DWORD PTR [edi]
  0014d	8b cf		 mov	 ecx, edi
  0014f	ff 75 08	 push	 DWORD PTR _ordColor$1$[ebp]
  00152	ff 50 38	 call	 DWORD PTR [eax+56]

; 1039 : 	pDC->SetBkMode(nOldMode);

  00155	ff 75 30	 push	 DWORD PTR _nOldMode$1$[ebp]
  00158	8b cf		 mov	 ecx, edi
  0015a	e8 00 00 00 00	 call	 ?SetBkMode@CDC@@QAEHH@Z	; CDC::SetBkMode

; 1040 : 	pDC->SelectObject(pOldFont);

  0015f	8b 07		 mov	 eax, DWORD PTR [edi]
  00161	8b cf		 mov	 ecx, edi
  00163	ff 75 f0	 push	 DWORD PTR _pOldFont$1$[ebp]
  00166	ff 50 30	 call	 DWORD PTR [eax+48]

; 1041 : }

  00169	8b 4d f4	 mov	 ecx, DWORD PTR __$EHRec$[ebp]
  0016c	64 89 0d 00 00
	00 00		 mov	 DWORD PTR fs:0, ecx
  00173	59		 pop	 ecx
  00174	5f		 pop	 edi
  00175	5e		 pop	 esi
  00176	5b		 pop	 ebx
  00177	8b e5		 mov	 esp, ebp
  00179	5d		 pop	 ebp
  0017a	c2 34 00	 ret	 52			; 00000034H
_TEXT	ENDS
;	COMDAT text$x
text$x	SEGMENT
__unwindfunclet$?DrawTitle@CStyleDataManager@@QAEXPAVCDC@@VCRect@@1PAVCStyleData@@PAVCFont@@PAUHWND__@@W4CHART_MODE@CChartInfo@@@Z$0:
  00000	8d 4d 2c	 lea	 ecx, DWORD PTR $T2[ebp]
  00003	ff 25 00 00 00
	00		 jmp	 DWORD PTR __imp_??1?$CStringT@DV?$StrTraitMFC_DLL@DV?$ChTraitsCRT@D@ATL@@@@@ATL@@QAE@XZ
__unwindfunclet$?DrawTitle@CStyleDataManager@@QAEXPAVCDC@@VCRect@@1PAVCStyleData@@PAVCFont@@PAUHWND__@@W4CHART_MODE@CChartInfo@@@Z$1:
  00009	8d 4d 34	 lea	 ecx, DWORD PTR $T3[ebp]
  0000c	ff 25 00 00 00
	00		 jmp	 DWORD PTR __imp_??1?$CStringT@DV?$StrTraitMFC_DLL@DV?$ChTraitsCRT@D@ATL@@@@@ATL@@QAE@XZ
  00012	cc		 int	 3
  00013	cc		 int	 3
  00014	cc		 int	 3
  00015	cc		 int	 3
  00016	cc		 int	 3
__ehhandler$?DrawTitle@CStyleDataManager@@QAEXPAVCDC@@VCRect@@1PAVCStyleData@@PAVCFont@@PAUHWND__@@W4CHART_MODE@CChartInfo@@@Z:
  00017	90		 npad	 1
  00018	90		 npad	 1
  00019	8b 54 24 08	 mov	 edx, DWORD PTR [esp+8]
  0001d	8d 42 0c	 lea	 eax, DWORD PTR [edx+12]
  00020	8b 4a ec	 mov	 ecx, DWORD PTR [edx-20]
  00023	33 c8		 xor	 ecx, eax
  00025	e8 00 00 00 00	 call	 @__security_check_cookie@4
  0002a	b8 00 00 00 00	 mov	 eax, OFFSET __ehfuncinfo$?DrawTitle@CStyleDataManager@@QAEXPAVCDC@@VCRect@@1PAVCStyleData@@PAVCFont@@PAUHWND__@@W4CHART_MODE@CChartInfo@@@Z
  0002f	e9 00 00 00 00	 jmp	 ___CxxFrameHandler3
text$x	ENDS
?DrawTitle@CStyleDataManager@@QAEXPAVCDC@@VCRect@@1PAVCStyleData@@PAVCFont@@PAUHWND__@@W4CHART_MODE@CChartInfo@@@Z ENDP ; CStyleDataManager::DrawTitle
; Function compile flags: /Ogtp
; File D:\git\src\IBK\IBK_DRFN\ProjSrc\SrcChartEx\ChartAddIn\ChartEnvSetupDlgAddIn\ChartEnvSetupDlgAddIn\StyleDataManager.cpp
; File C:\Program Files (x86)\Microsoft Visual Studio\2019\Community\VC\Tools\MSVC\14.29.30133\atlmfc\include\afxwin1.inl
; File D:\git\src\IBK\IBK_DRFN\ProjSrc\SrcChartEx\ChartAddIn\ChartEnvSetupDlgAddIn\ChartEnvSetupDlgAddIn\StyleDataManager.cpp
;	COMDAT ?DrawScaleGrid@CStyleDataManager@@QAEXPAVCDC@@VCRect@@1PAVCStyleData@@W4CHART_MODE@CChartInfo@@N@Z
_TEXT	SEGMENT
$T2 = -44						; size = 8
$T3 = -44						; size = 8
_pen$ = -36						; size = 8
_pOldPen$1$ = -28					; size = 4
$T4 = -24						; size = 8
$T5 = -24						; size = 8
$T6 = -24						; size = 8
$T7 = -24						; size = 8
$T8 = -24						; size = 8
$T9 = -24						; size = 8
$T10 = -24						; size = 8
tv1088 = -20						; size = 4
_j$2$ = -20						; size = 4
tv1098 = -16						; size = 4
tv1097 = -16						; size = 4
_j$1$ = -16						; size = 4
__$EHRec$ = -12						; size = 12
tv1092 = 8						; size = 4
tv1090 = 8						; size = 4
tv1084 = 8						; size = 4
tv1044 = 8						; size = 4
_pDC$ = 8						; size = 4
_rect1$ = 12						; size = 16
_rect2$ = 28						; size = 16
tv1099 = 44						; size = 4
tv1091 = 44						; size = 4
tv1089 = 44						; size = 4
_j$3$ = 44						; size = 4
_p_pStyleData$ = 44					; size = 4
tv1087 = 48						; size = 4
tv1085 = 48						; size = 4
_p_eChartMode$ = 48					; size = 4
$T11 = 52						; size = 8
$T12 = 52						; size = 8
$T13 = 52						; size = 8
_p_dFactor$ = 52					; size = 8
?DrawScaleGrid@CStyleDataManager@@QAEXPAVCDC@@VCRect@@1PAVCStyleData@@W4CHART_MODE@CChartInfo@@N@Z PROC ; CStyleDataManager::DrawScaleGrid, COMDAT
; _this$ = ecx

; 835  : {

  00000	55		 push	 ebp
  00001	8b ec		 mov	 ebp, esp
  00003	6a ff		 push	 -1
  00005	68 00 00 00 00	 push	 __ehhandler$?DrawScaleGrid@CStyleDataManager@@QAEXPAVCDC@@VCRect@@1PAVCStyleData@@W4CHART_MODE@CChartInfo@@N@Z
  0000a	64 a1 00 00 00
	00		 mov	 eax, DWORD PTR fs:0
  00010	50		 push	 eax
  00011	83 ec 20	 sub	 esp, 32			; 00000020H
  00014	53		 push	 ebx
  00015	56		 push	 esi
  00016	57		 push	 edi
  00017	a1 00 00 00 00	 mov	 eax, DWORD PTR ___security_cookie
  0001c	33 c5		 xor	 eax, ebp
  0001e	50		 push	 eax
  0001f	8d 45 f4	 lea	 eax, DWORD PTR __$EHRec$[ebp]
  00022	64 a3 00 00 00
	00		 mov	 DWORD PTR fs:0, eax

; 836  : 	COLORREF color = p_pStyleData->GetScaleGridColor();

  00028	8b 5d 2c	 mov	 ebx, DWORD PTR _p_pStyleData$[ebp]
  0002b	8b cb		 mov	 ecx, ebx
  0002d	e8 00 00 00 00	 call	 ?GetScaleGridColor@CStyleData@@QBEKXZ ; CStyleData::GetScaleGridColor

; 837  : 
; 838  : 	CPen pen( PS_SOLID, 1, color );

  00032	50		 push	 eax
  00033	6a 01		 push	 1
  00035	6a 00		 push	 0
  00037	8d 4d dc	 lea	 ecx, DWORD PTR _pen$[ebp]
  0003a	e8 00 00 00 00	 call	 ??0CPen@@QAE@HHK@Z	; CPen::CPen

; 839  : 	CPen* pOldPen = pDC->SelectObject( &pen );

  0003f	8b 7d 08	 mov	 edi, DWORD PTR _pDC$[ebp]
  00042	8d 45 dc	 lea	 eax, DWORD PTR _pen$[ebp]
  00045	50		 push	 eax
  00046	8b cf		 mov	 ecx, edi
  00048	c7 45 fc 00 00
	00 00		 mov	 DWORD PTR __$EHRec$[ebp+8], 0
  0004f	e8 00 00 00 00	 call	 ?SelectObject@CDC@@QAEPAVCPen@@PAV2@@Z ; CDC::SelectObject

; 840  : 
; 841  : 	int	i, j, len, gap;
; 842  : 	int	left, bottom;
; 843  : 	
; 844  : 	if( ( p_pStyleData->GetDivideHeight() >=0 ) && ( p_pStyleData->GetDivideHeight() < 3 ) )

  00054	8b cb		 mov	 ecx, ebx
  00056	89 45 e4	 mov	 DWORD PTR _pOldPen$1$[ebp], eax
  00059	e8 00 00 00 00	 call	 ?GetDivideHeight@CStyleData@@QBEHXZ ; CStyleData::GetDivideHeight
  0005e	85 c0		 test	 eax, eax
  00060	0f 88 ce 01 00
	00		 js	 $LN12@DrawScaleG
  00066	8b cb		 mov	 ecx, ebx
  00068	e8 00 00 00 00	 call	 ?GetDivideHeight@CStyleData@@QBEHXZ ; CStyleData::GetDivideHeight
  0006d	83 f8 03	 cmp	 eax, 3
  00070	0f 8d be 01 00
	00		 jge	 $LN12@DrawScaleG

; 845  : 	{
; 846  : 		if( p_pStyleData->GetDivideHeight() == 0 )

  00076	8b cb		 mov	 ecx, ebx
  00078	e8 00 00 00 00	 call	 ?GetDivideHeight@CStyleData@@QBEHXZ ; CStyleData::GetDivideHeight
  0007d	85 c0		 test	 eax, eax
  0007f	75 59		 jne	 SHORT $LN45@DrawScaleG

; 847  : 		{
; 848  : 			pDC->MoveTo( rect1.left + 73, rect1.bottom - 1 );

  00081	8b 45 18	 mov	 eax, DWORD PTR _rect1$[ebp+12]
  00084	8b cf		 mov	 ecx, edi
  00086	48		 dec	 eax
  00087	50		 push	 eax
  00088	8b 45 0c	 mov	 eax, DWORD PTR _rect1$[ebp]
  0008b	83 c0 49	 add	 eax, 73			; 00000049H
  0008e	50		 push	 eax
  0008f	8d 45 e8	 lea	 eax, DWORD PTR $T10[ebp]
  00092	50		 push	 eax
  00093	e8 00 00 00 00	 call	 ?MoveTo@CDC@@QAE?AVCPoint@@HH@Z ; CDC::MoveTo

; 849  : 			pDC->LineTo( rect1.left + 73, rect1.top + 1 );

  00098	8b 45 10	 mov	 eax, DWORD PTR _rect1$[ebp+4]
  0009b	8b cf		 mov	 ecx, edi
  0009d	40		 inc	 eax
  0009e	50		 push	 eax
  0009f	8b 45 0c	 mov	 eax, DWORD PTR _rect1$[ebp]
  000a2	83 c0 49	 add	 eax, 73			; 00000049H
  000a5	50		 push	 eax
  000a6	e8 00 00 00 00	 call	 ?LineTo@CDC@@QAEHHH@Z	; CDC::LineTo

; 850  : 			pDC->MoveTo( rect2.left + 73, rect2.bottom - 1 );

  000ab	8b 45 28	 mov	 eax, DWORD PTR _rect2$[ebp+12]
  000ae	8b cf		 mov	 ecx, edi
  000b0	48		 dec	 eax
  000b1	50		 push	 eax
  000b2	8b 45 1c	 mov	 eax, DWORD PTR _rect2$[ebp]
  000b5	83 c0 49	 add	 eax, 73			; 00000049H
  000b8	50		 push	 eax
  000b9	8d 45 e8	 lea	 eax, DWORD PTR $T9[ebp]
  000bc	50		 push	 eax
  000bd	e8 00 00 00 00	 call	 ?MoveTo@CDC@@QAE?AVCPoint@@HH@Z ; CDC::MoveTo

; 851  : 			pDC->LineTo( rect2.left + 73, rect2.top + 1 );

  000c2	8b 45 20	 mov	 eax, DWORD PTR _rect2$[ebp+4]
  000c5	8b cf		 mov	 ecx, edi
  000c7	40		 inc	 eax
  000c8	50		 push	 eax
  000c9	8b 45 1c	 mov	 eax, DWORD PTR _rect2$[ebp]
  000cc	83 c0 49	 add	 eax, 73			; 00000049H
  000cf	50		 push	 eax
  000d0	e8 00 00 00 00	 call	 ?LineTo@CDC@@QAEHHH@Z	; CDC::LineTo

; 852  : 		}

  000d5	e9 5a 01 00 00	 jmp	 $LN12@DrawScaleG
$LN45@DrawScaleG:

; 853  : 		
; 854  : 		else if( p_pStyleData->GetDivideHeight() == 1 )

  000da	8b cb		 mov	 ecx, ebx
  000dc	e8 00 00 00 00	 call	 ?GetDivideHeight@CStyleData@@QBEHXZ ; CStyleData::GetDivideHeight
  000e1	83 f8 01	 cmp	 eax, 1
  000e4	0f 85 a4 00 00
	00		 jne	 $LN47@DrawScaleG

; 855  : 		{
; 856  : 			len = 3;
; 857  : 			gap = 3;
; 858  : 			
; 859  : 			for( bottom = rect1.bottom - 1 ; bottom > rect1.top + 1 ; bottom -= (len + gap) )

  000ea	8b 5d 18	 mov	 ebx, DWORD PTR _rect1$[ebp+12]
  000ed	8b 45 10	 mov	 eax, DWORD PTR _rect1$[ebp+4]
  000f0	4b		 dec	 ebx
  000f1	40		 inc	 eax
  000f2	3b d8		 cmp	 ebx, eax
  000f4	7e 43		 jle	 SHORT $LN3@DrawScaleG
  000f6	8d 73 fd	 lea	 esi, DWORD PTR [ebx-3]
  000f9	0f 1f 80 00 00
	00 00		 npad	 7
$LL4@DrawScaleG:

; 860  : 			{
; 861  : 				pDC->MoveTo( rect1.left + 73, bottom );

  00100	8b 45 0c	 mov	 eax, DWORD PTR _rect1$[ebp]
  00103	8b cf		 mov	 ecx, edi
  00105	53		 push	 ebx
  00106	83 c0 49	 add	 eax, 73			; 00000049H
  00109	50		 push	 eax
  0010a	8d 45 e8	 lea	 eax, DWORD PTR $T8[ebp]
  0010d	50		 push	 eax
  0010e	e8 00 00 00 00	 call	 ?MoveTo@CDC@@QAE?AVCPoint@@HH@Z ; CDC::MoveTo
  00113	8b 4d 10	 mov	 ecx, DWORD PTR _rect1$[ebp+4]

; 862  : 				if( ( bottom - len ) < ( rect1.top + 1 ) )

  00116	8b 45 0c	 mov	 eax, DWORD PTR _rect1$[ebp]
  00119	41		 inc	 ecx
  0011a	83 c0 49	 add	 eax, 73			; 00000049H
  0011d	3b f1		 cmp	 esi, ecx
  0011f	0f 4d ce	 cmovge	 ecx, esi
  00122	51		 push	 ecx
  00123	50		 push	 eax
  00124	8b cf		 mov	 ecx, edi
  00126	e8 00 00 00 00	 call	 ?LineTo@CDC@@QAEHHH@Z	; CDC::LineTo
  0012b	8b 45 10	 mov	 eax, DWORD PTR _rect1$[ebp+4]
  0012e	83 eb 06	 sub	 ebx, 6
  00131	40		 inc	 eax
  00132	83 ee 06	 sub	 esi, 6
  00135	3b d8		 cmp	 ebx, eax
  00137	7f c7		 jg	 SHORT $LL4@DrawScaleG
$LN3@DrawScaleG:

; 863  : 					pDC->LineTo( rect1.left + 73, rect1.top + 1 );
; 864  : 				
; 865  : 				else
; 866  : 					pDC->LineTo( rect1.left + 73, bottom - len );
; 867  : 			}
; 868  : 
; 869  : 			for( bottom = rect2.bottom - 1 ; bottom > rect2.top + 1 ; bottom -= ( len + gap ))

  00139	8b 5d 28	 mov	 ebx, DWORD PTR _rect2$[ebp+12]
  0013c	8b 45 20	 mov	 eax, DWORD PTR _rect2$[ebp+4]
  0013f	4b		 dec	 ebx
  00140	40		 inc	 eax
  00141	3b d8		 cmp	 ebx, eax
  00143	0f 8e e8 00 00
	00		 jle	 $LN140@DrawScaleG
  00149	8d 73 fd	 lea	 esi, DWORD PTR [ebx-3]
  0014c	0f 1f 40 00	 npad	 4
$LL7@DrawScaleG:

; 870  : 			{
; 871  : 				pDC->MoveTo( rect2.left + 73, bottom );

  00150	8b 45 1c	 mov	 eax, DWORD PTR _rect2$[ebp]
  00153	8b cf		 mov	 ecx, edi
  00155	53		 push	 ebx
  00156	83 c0 49	 add	 eax, 73			; 00000049H
  00159	50		 push	 eax
  0015a	8d 45 e8	 lea	 eax, DWORD PTR $T7[ebp]
  0015d	50		 push	 eax
  0015e	e8 00 00 00 00	 call	 ?MoveTo@CDC@@QAE?AVCPoint@@HH@Z ; CDC::MoveTo
  00163	8b 4d 20	 mov	 ecx, DWORD PTR _rect2$[ebp+4]

; 872  : 				if( ( bottom - len ) < ( rect2.top + 1 ) )

  00166	8b 45 1c	 mov	 eax, DWORD PTR _rect2$[ebp]
  00169	41		 inc	 ecx
  0016a	83 c0 49	 add	 eax, 73			; 00000049H
  0016d	3b f1		 cmp	 esi, ecx
  0016f	0f 4d ce	 cmovge	 ecx, esi
  00172	51		 push	 ecx
  00173	50		 push	 eax
  00174	8b cf		 mov	 ecx, edi
  00176	e8 00 00 00 00	 call	 ?LineTo@CDC@@QAEHHH@Z	; CDC::LineTo
  0017b	8b 45 20	 mov	 eax, DWORD PTR _rect2$[ebp+4]
  0017e	83 eb 06	 sub	 ebx, 6
  00181	40		 inc	 eax
  00182	83 ee 06	 sub	 esi, 6
  00185	3b d8		 cmp	 ebx, eax
  00187	7f c7		 jg	 SHORT $LL7@DrawScaleG

; 873  : 					pDC->LineTo( rect2.left + 73, rect2.top + 1 );
; 874  : 				
; 875  : 				else
; 876  : 					pDC->LineTo( rect2.left + 73, bottom - len );
; 877  : 			}
; 878  : 		}

  00189	e9 a3 00 00 00	 jmp	 $LN140@DrawScaleG
$LN47@DrawScaleG:

; 879  : 		
; 880  : 		else if( p_pStyleData->GetDivideHeight() == 2 )

  0018e	8b cb		 mov	 ecx, ebx
  00190	e8 00 00 00 00	 call	 ?GetDivideHeight@CStyleData@@QBEHXZ ; CStyleData::GetDivideHeight
  00195	83 f8 02	 cmp	 eax, 2
  00198	0f 85 96 00 00
	00		 jne	 $LN12@DrawScaleG

; 881  : 		{
; 882  : 			len = 1;
; 883  : 			gap = 3;
; 884  : 			
; 885  : 			for( bottom = rect1.bottom - 1 ; bottom > rect1.top + 1 ; bottom -= ( len + gap ) )

  0019e	8b 5d 18	 mov	 ebx, DWORD PTR _rect1$[ebp+12]
  001a1	8b 45 10	 mov	 eax, DWORD PTR _rect1$[ebp+4]
  001a4	4b		 dec	 ebx
  001a5	40		 inc	 eax
  001a6	3b d8		 cmp	 ebx, eax
  001a8	7e 3f		 jle	 SHORT $LN9@DrawScaleG
  001aa	8d 73 ff	 lea	 esi, DWORD PTR [ebx-1]
  001ad	0f 1f 00	 npad	 3
$LL10@DrawScaleG:

; 886  : 			{
; 887  : 				pDC->MoveTo( rect1.left + 73, bottom );

  001b0	8b 45 0c	 mov	 eax, DWORD PTR _rect1$[ebp]
  001b3	8b cf		 mov	 ecx, edi
  001b5	53		 push	 ebx
  001b6	83 c0 49	 add	 eax, 73			; 00000049H
  001b9	50		 push	 eax
  001ba	8d 45 e8	 lea	 eax, DWORD PTR $T6[ebp]
  001bd	50		 push	 eax
  001be	e8 00 00 00 00	 call	 ?MoveTo@CDC@@QAE?AVCPoint@@HH@Z ; CDC::MoveTo
  001c3	8b 4d 10	 mov	 ecx, DWORD PTR _rect1$[ebp+4]

; 888  : 				
; 889  : 				if( ( bottom - len ) < ( rect1.top + 1 ) )

  001c6	8b 45 0c	 mov	 eax, DWORD PTR _rect1$[ebp]
  001c9	41		 inc	 ecx
  001ca	83 c0 49	 add	 eax, 73			; 00000049H
  001cd	3b f1		 cmp	 esi, ecx
  001cf	0f 4d ce	 cmovge	 ecx, esi
  001d2	51		 push	 ecx
  001d3	50		 push	 eax
  001d4	8b cf		 mov	 ecx, edi
  001d6	e8 00 00 00 00	 call	 ?LineTo@CDC@@QAEHHH@Z	; CDC::LineTo
  001db	8b 45 10	 mov	 eax, DWORD PTR _rect1$[ebp+4]
  001de	83 eb 04	 sub	 ebx, 4
  001e1	40		 inc	 eax
  001e2	83 ee 04	 sub	 esi, 4
  001e5	3b d8		 cmp	 ebx, eax
  001e7	7f c7		 jg	 SHORT $LL10@DrawScaleG
$LN9@DrawScaleG:

; 890  : 					pDC->LineTo( rect1.left + 73, rect1.top + 1 );
; 891  : 				
; 892  : 				else
; 893  : 					pDC->LineTo( rect1.left + 73, bottom - len );
; 894  : 			}
; 895  : 			
; 896  : 			for( bottom = rect2.bottom - 1 ; bottom > rect2.top + 1 ; bottom -= ( len + gap ) )

  001e9	8b 5d 28	 mov	 ebx, DWORD PTR _rect2$[ebp+12]
  001ec	8b 45 20	 mov	 eax, DWORD PTR _rect2$[ebp+4]
  001ef	4b		 dec	 ebx
  001f0	40		 inc	 eax
  001f1	3b d8		 cmp	 ebx, eax
  001f3	7e 3c		 jle	 SHORT $LN140@DrawScaleG
  001f5	8d 73 ff	 lea	 esi, DWORD PTR [ebx-1]
$LL13@DrawScaleG:

; 897  : 			{
; 898  : 				pDC->MoveTo( rect2.left + 73, bottom );

  001f8	8b 45 1c	 mov	 eax, DWORD PTR _rect2$[ebp]
  001fb	8b cf		 mov	 ecx, edi
  001fd	53		 push	 ebx
  001fe	83 c0 49	 add	 eax, 73			; 00000049H
  00201	50		 push	 eax
  00202	8d 45 e8	 lea	 eax, DWORD PTR $T5[ebp]
  00205	50		 push	 eax
  00206	e8 00 00 00 00	 call	 ?MoveTo@CDC@@QAE?AVCPoint@@HH@Z ; CDC::MoveTo
  0020b	8b 4d 20	 mov	 ecx, DWORD PTR _rect2$[ebp+4]

; 899  : 				
; 900  : 				if( ( bottom - len ) < ( rect2.top + 1 ) )

  0020e	8b 45 1c	 mov	 eax, DWORD PTR _rect2$[ebp]
  00211	41		 inc	 ecx
  00212	83 c0 49	 add	 eax, 73			; 00000049H
  00215	3b f1		 cmp	 esi, ecx
  00217	0f 4d ce	 cmovge	 ecx, esi
  0021a	51		 push	 ecx
  0021b	50		 push	 eax
  0021c	8b cf		 mov	 ecx, edi
  0021e	e8 00 00 00 00	 call	 ?LineTo@CDC@@QAEHHH@Z	; CDC::LineTo
  00223	8b 45 20	 mov	 eax, DWORD PTR _rect2$[ebp+4]
  00226	83 eb 04	 sub	 ebx, 4
  00229	40		 inc	 eax
  0022a	83 ee 04	 sub	 esi, 4
  0022d	3b d8		 cmp	 ebx, eax
  0022f	7f c7		 jg	 SHORT $LL13@DrawScaleG
$LN140@DrawScaleG:

; 901  : 					pDC->LineTo( rect2.left + 73, rect2.top + 1 );
; 902  : 				
; 903  : 				else
; 904  : 					pDC->LineTo( rect2.left + 73, bottom - len );
; 905  : 			}
; 906  : 		}
; 907  : 	}
; 908  : 
; 909  : 	//   
; 910  : 	if( ( p_pStyleData->GetDivideWidth() >=0 ) && ( p_pStyleData->GetDivideWidth() < 3 ) )

  00231	8b 5d 2c	 mov	 ebx, DWORD PTR _p_pStyleData$[ebp]
$LN12@DrawScaleG:
  00234	8b cb		 mov	 ecx, ebx
  00236	e8 00 00 00 00	 call	 ?GetDivideWidth@CStyleData@@QBEHXZ ; CStyleData::GetDivideWidth
  0023b	85 c0		 test	 eax, eax
  0023d	0f 88 9c 03 00
	00		 js	 $LN39@DrawScaleG
  00243	8b cb		 mov	 ecx, ebx
  00245	e8 00 00 00 00	 call	 ?GetDivideWidth@CStyleData@@QBEHXZ ; CStyleData::GetDivideWidth
  0024a	83 f8 03	 cmp	 eax, 3
  0024d	0f 8d 8c 03 00
	00		 jge	 $LN39@DrawScaleG

; 911  : 	{
; 912  : 		if( p_pStyleData->GetDivideWidth() == 0 )

  00253	8b cb		 mov	 ecx, ebx
  00255	e8 00 00 00 00	 call	 ?GetDivideWidth@CStyleData@@QBEHXZ ; CStyleData::GetDivideWidth
  0025a	85 c0		 test	 eax, eax
  0025c	0f 85 f2 00 00
	00		 jne	 $LN59@DrawScaleG

; 913  : 		{
; 914  : 			for( i = int( p_dFactor * 20); i < int( p_dFactor * 155); i += int( p_dFactor * 20))

  00262	f2 0f 10 4d 34	 movsd	 xmm1, QWORD PTR _p_dFactor$[ebp]
  00267	f2 0f 10 15 00
	00 00 00	 movsd	 xmm2, QWORD PTR __real@c034000000000000
  0026f	0f 28 c1	 movaps	 xmm0, xmm1
  00272	f2 0f 59 05 00
	00 00 00	 mulsd	 xmm0, QWORD PTR __real@4034000000000000
  0027a	f2 0f 2c f0	 cvttsd2si esi, xmm0
  0027e	0f 28 c1	 movaps	 xmm0, xmm1
  00281	f2 0f 59 05 00
	00 00 00	 mulsd	 xmm0, QWORD PTR __real@4063600000000000
  00289	8b de		 mov	 ebx, esi
  0028b	89 75 f0	 mov	 DWORD PTR _j$1$[ebp], esi
  0028e	f2 0f 2c c0	 cvttsd2si eax, xmm0
  00292	89 45 2c	 mov	 DWORD PTR tv1099[ebp], eax
  00295	3b d8		 cmp	 ebx, eax
  00297	7d 56		 jge	 SHORT $LN122@DrawScaleG
  00299	8b 75 2c	 mov	 esi, DWORD PTR tv1099[ebp]
  0029c	0f 28 c1	 movaps	 xmm0, xmm1
  0029f	f2 0f 59 c2	 mulsd	 xmm0, xmm2
  002a3	f2 0f 2c c0	 cvttsd2si eax, xmm0
  002a7	89 45 08	 mov	 DWORD PTR tv1092[ebp], eax
  002aa	66 0f 1f 44 00
	00		 npad	 6
$LL16@DrawScaleG:

; 915  : 			{
; 916  : 				pDC->MoveTo( rect1.left + 1, rect1.bottom - i );

  002b0	8b 45 18	 mov	 eax, DWORD PTR _rect1$[ebp+12]
  002b3	8b cf		 mov	 ecx, edi
  002b5	2b c3		 sub	 eax, ebx
  002b7	50		 push	 eax
  002b8	8b 45 0c	 mov	 eax, DWORD PTR _rect1$[ebp]
  002bb	40		 inc	 eax
  002bc	50		 push	 eax
  002bd	8d 45 e8	 lea	 eax, DWORD PTR $T4[ebp]
  002c0	50		 push	 eax
  002c1	e8 00 00 00 00	 call	 ?MoveTo@CDC@@QAE?AVCPoint@@HH@Z ; CDC::MoveTo

; 917  : 				pDC->LineTo( rect1.right - 1, rect1.bottom - i );

  002c6	8b 45 18	 mov	 eax, DWORD PTR _rect1$[ebp+12]
  002c9	8b cf		 mov	 ecx, edi
  002cb	2b c3		 sub	 eax, ebx
  002cd	50		 push	 eax
  002ce	8b 45 14	 mov	 eax, DWORD PTR _rect1$[ebp+8]
  002d1	48		 dec	 eax
  002d2	50		 push	 eax
  002d3	e8 00 00 00 00	 call	 ?LineTo@CDC@@QAEHHH@Z	; CDC::LineTo
  002d8	2b 5d 08	 sub	 ebx, DWORD PTR tv1092[ebp]
  002db	3b de		 cmp	 ebx, esi
  002dd	7c d1		 jl	 SHORT $LL16@DrawScaleG
  002df	f2 0f 10 4d 34	 movsd	 xmm1, QWORD PTR _p_dFactor$[ebp]
  002e4	f2 0f 10 15 00
	00 00 00	 movsd	 xmm2, QWORD PTR __real@c034000000000000
  002ec	8b 75 f0	 mov	 esi, DWORD PTR _j$1$[ebp]
$LN122@DrawScaleG:

; 918  : 			}
; 919  : 
; 920  : 			// (2009/9/21 - Seung-Won, Bae) for FX
; 921  : 			if( CChartInfo::FX != p_eChartMode)

  002ef	83 7d 30 02	 cmp	 DWORD PTR _p_eChartMode$[ebp], 2
  002f3	0f 84 e6 02 00
	00		 je	 $LN39@DrawScaleG

; 922  : 				for( j = int( p_dFactor * 20) ; j < int( p_dFactor * 75) ; j += int( p_dFactor * 20))

  002f9	0f 28 c1	 movaps	 xmm0, xmm1
  002fc	f2 0f 59 05 00
	00 00 00	 mulsd	 xmm0, QWORD PTR __real@4052c00000000000
  00304	f2 0f 2c d8	 cvttsd2si ebx, xmm0
  00308	3b f3		 cmp	 esi, ebx
  0030a	0f 8d cf 02 00
	00		 jge	 $LN39@DrawScaleG
  00310	f2 0f 59 ca	 mulsd	 xmm1, xmm2
  00314	f2 0f 2c c1	 cvttsd2si eax, xmm1
  00318	89 45 2c	 mov	 DWORD PTR tv1091[ebp], eax
  0031b	0f 1f 44 00 00	 npad	 5
$LL19@DrawScaleG:

; 923  : 			{
; 924  : 				pDC->MoveTo( rect2.left + 1, rect2.bottom - j );

  00320	8b 45 28	 mov	 eax, DWORD PTR _rect2$[ebp+12]
  00323	8b cf		 mov	 ecx, edi
  00325	2b c6		 sub	 eax, esi
  00327	50		 push	 eax
  00328	8b 45 1c	 mov	 eax, DWORD PTR _rect2$[ebp]
  0032b	40		 inc	 eax
  0032c	50		 push	 eax
  0032d	8d 45 34	 lea	 eax, DWORD PTR $T13[ebp]
  00330	50		 push	 eax
  00331	e8 00 00 00 00	 call	 ?MoveTo@CDC@@QAE?AVCPoint@@HH@Z ; CDC::MoveTo

; 925  : 				pDC->LineTo( rect2.right - 1, rect2.bottom - j );

  00336	8b 45 28	 mov	 eax, DWORD PTR _rect2$[ebp+12]
  00339	8b cf		 mov	 ecx, edi
  0033b	2b c6		 sub	 eax, esi
  0033d	50		 push	 eax
  0033e	8b 45 24	 mov	 eax, DWORD PTR _rect2$[ebp+8]
  00341	48		 dec	 eax
  00342	50		 push	 eax
  00343	e8 00 00 00 00	 call	 ?LineTo@CDC@@QAEHHH@Z	; CDC::LineTo
  00348	2b 75 2c	 sub	 esi, DWORD PTR tv1091[ebp]
  0034b	3b f3		 cmp	 esi, ebx
  0034d	7c d1		 jl	 SHORT $LL19@DrawScaleG

; 926  : 			}
; 927  : 		}

  0034f	e9 8b 02 00 00	 jmp	 $LN39@DrawScaleG
$LN59@DrawScaleG:

; 928  : 
; 929  : 		else if( p_pStyleData->GetDivideWidth() == 1 )

  00354	8b cb		 mov	 ecx, ebx
  00356	e8 00 00 00 00	 call	 ?GetDivideWidth@CStyleData@@QBEHXZ ; CStyleData::GetDivideWidth
  0035b	83 f8 01	 cmp	 eax, 1
  0035e	0f 85 37 01 00
	00		 jne	 $LN62@DrawScaleG

; 930  : 		{
; 931  : 			len = 3;
; 932  : 			gap = 3;
; 933  : 			
; 934  : 			for( i = int( p_dFactor * 20); i < int( p_dFactor * 155); i += int( p_dFactor * 20))

  00364	f2 0f 10 4d 34	 movsd	 xmm1, QWORD PTR _p_dFactor$[ebp]
  00369	f2 0f 10 15 00
	00 00 00	 movsd	 xmm2, QWORD PTR __real@c034000000000000
  00371	0f 28 c1	 movaps	 xmm0, xmm1
  00374	f2 0f 59 05 00
	00 00 00	 mulsd	 xmm0, QWORD PTR __real@4034000000000000
  0037c	f2 0f 2c d8	 cvttsd2si ebx, xmm0
  00380	0f 28 c1	 movaps	 xmm0, xmm1
  00383	f2 0f 59 05 00
	00 00 00	 mulsd	 xmm0, QWORD PTR __real@4063600000000000
  0038b	8b c3		 mov	 eax, ebx
  0038d	89 5d ec	 mov	 DWORD PTR _j$2$[ebp], ebx
  00390	f2 0f 2c c8	 cvttsd2si ecx, xmm0
  00394	89 4d f0	 mov	 DWORD PTR tv1098[ebp], ecx
  00397	3b c1		 cmp	 eax, ecx
  00399	7d 73		 jge	 SHORT $LN123@DrawScaleG
  0039b	8b 4d 14	 mov	 ecx, DWORD PTR _rect1$[ebp+8]
  0039e	0f 28 c1	 movaps	 xmm0, xmm1
  003a1	f2 0f 59 c2	 mulsd	 xmm0, xmm2
  003a5	49		 dec	 ecx
  003a6	f2 0f 2c c0	 cvttsd2si eax, xmm0
  003aa	89 45 08	 mov	 DWORD PTR tv1090[ebp], eax
  003ad	0f 1f 00	 npad	 3
$LL22@DrawScaleG:

; 935  : 			{
; 936  : 				for( left = rect1.left + 1 ; left < rect1.right - 1 ; left += ( len + gap ) )

  003b0	8b 75 0c	 mov	 esi, DWORD PTR _rect1$[ebp]
  003b3	46		 inc	 esi
  003b4	3b f1		 cmp	 esi, ecx
  003b6	7d 3e		 jge	 SHORT $LN20@DrawScaleG
$LL25@DrawScaleG:

; 937  : 				{
; 938  : 					pDC->MoveTo( left, rect1.bottom - i );

  003b8	8b 45 18	 mov	 eax, DWORD PTR _rect1$[ebp+12]
  003bb	8b cf		 mov	 ecx, edi
  003bd	2b c3		 sub	 eax, ebx
  003bf	50		 push	 eax
  003c0	56		 push	 esi
  003c1	8d 45 d4	 lea	 eax, DWORD PTR $T3[ebp]
  003c4	50		 push	 eax
  003c5	e8 00 00 00 00	 call	 ?MoveTo@CDC@@QAE?AVCPoint@@HH@Z ; CDC::MoveTo

; 939  : 					
; 940  : 					if( ( left + len ) > ( rect1.right - 1 ) )
; 941  : 						pDC->LineTo( rect1.right - 1, rect1.bottom -i );

  003ca	8b 4d 18	 mov	 ecx, DWORD PTR _rect1$[ebp+12]
  003cd	83 c6 03	 add	 esi, 3
  003d0	8b 55 14	 mov	 edx, DWORD PTR _rect1$[ebp+8]
  003d3	8b c1		 mov	 eax, ecx
  003d5	4a		 dec	 edx

; 942  : 					
; 943  : 					else
; 944  : 						pDC->LineTo( left + len, rect1.bottom - i );

  003d6	2b cb		 sub	 ecx, ebx
  003d8	2b c3		 sub	 eax, ebx
  003da	3b f2		 cmp	 esi, edx
  003dc	0f 4f c8	 cmovg	 ecx, eax
  003df	0f 4e d6	 cmovle	 edx, esi
  003e2	51		 push	 ecx
  003e3	52		 push	 edx
  003e4	8b cf		 mov	 ecx, edi
  003e6	e8 00 00 00 00	 call	 ?LineTo@CDC@@QAEHHH@Z	; CDC::LineTo
  003eb	8b 4d 14	 mov	 ecx, DWORD PTR _rect1$[ebp+8]
  003ee	83 c6 03	 add	 esi, 3
  003f1	49		 dec	 ecx
  003f2	3b f1		 cmp	 esi, ecx
  003f4	7c c2		 jl	 SHORT $LL25@DrawScaleG
$LN20@DrawScaleG:

; 930  : 		{
; 931  : 			len = 3;
; 932  : 			gap = 3;
; 933  : 			
; 934  : 			for( i = int( p_dFactor * 20); i < int( p_dFactor * 155); i += int( p_dFactor * 20))

  003f6	2b 5d 08	 sub	 ebx, DWORD PTR tv1090[ebp]
  003f9	3b 5d f0	 cmp	 ebx, DWORD PTR tv1098[ebp]
  003fc	7c b2		 jl	 SHORT $LL22@DrawScaleG
  003fe	f2 0f 10 4d 34	 movsd	 xmm1, QWORD PTR _p_dFactor$[ebp]
  00403	f2 0f 10 15 00
	00 00 00	 movsd	 xmm2, QWORD PTR __real@c034000000000000
  0040b	8b 5d ec	 mov	 ebx, DWORD PTR _j$2$[ebp]
$LN123@DrawScaleG:

; 945  : 				}
; 946  : 			}
; 947  : 
; 948  : 			// (2009/9/21 - Seung-Won, Bae) for FX
; 949  : 			if( CChartInfo::FX != p_eChartMode)

  0040e	83 7d 30 02	 cmp	 DWORD PTR _p_eChartMode$[ebp], 2
  00412	0f 84 c7 01 00
	00		 je	 $LN39@DrawScaleG

; 950  : 				for( j = int( p_dFactor * 20) ; j < int( p_dFactor * 75) ; j += int( p_dFactor * 20))

  00418	0f 28 c1	 movaps	 xmm0, xmm1
  0041b	f2 0f 59 05 00
	00 00 00	 mulsd	 xmm0, QWORD PTR __real@4052c00000000000
  00423	f2 0f 2c c0	 cvttsd2si eax, xmm0
  00427	89 45 30	 mov	 DWORD PTR tv1085[ebp], eax
  0042a	3b d8		 cmp	 ebx, eax
  0042c	0f 8d ad 01 00
	00		 jge	 $LN39@DrawScaleG
  00432	8b 4d 24	 mov	 ecx, DWORD PTR _rect2$[ebp+8]
  00435	f2 0f 59 ca	 mulsd	 xmm1, xmm2
  00439	49		 dec	 ecx
  0043a	f2 0f 2c c1	 cvttsd2si eax, xmm1
  0043e	89 45 2c	 mov	 DWORD PTR tv1089[ebp], eax
$LL28@DrawScaleG:

; 951  : 			{
; 952  : 				for( left = rect2.left + 1 ; left < rect2.right - 1 ; left += ( len + gap ) )

  00441	8b 75 1c	 mov	 esi, DWORD PTR _rect2$[ebp]
  00444	46		 inc	 esi
  00445	3b f1		 cmp	 esi, ecx
  00447	7d 45		 jge	 SHORT $LN26@DrawScaleG
  00449	0f 1f 80 00 00
	00 00		 npad	 7
$LL31@DrawScaleG:

; 953  : 				{
; 954  : 					pDC->MoveTo( left, rect2.bottom - j );

  00450	8b 45 28	 mov	 eax, DWORD PTR _rect2$[ebp+12]
  00453	8b cf		 mov	 ecx, edi
  00455	2b c3		 sub	 eax, ebx
  00457	50		 push	 eax
  00458	56		 push	 esi
  00459	8d 45 34	 lea	 eax, DWORD PTR $T12[ebp]
  0045c	50		 push	 eax
  0045d	e8 00 00 00 00	 call	 ?MoveTo@CDC@@QAE?AVCPoint@@HH@Z ; CDC::MoveTo

; 955  : 				
; 956  : 					if( ( left + len ) > ( rect2.right - 1 ) )
; 957  : 						pDC->LineTo( rect2.right - 1, rect2.bottom - j );

  00462	8b 4d 28	 mov	 ecx, DWORD PTR _rect2$[ebp+12]
  00465	83 c6 03	 add	 esi, 3
  00468	8b 55 24	 mov	 edx, DWORD PTR _rect2$[ebp+8]
  0046b	8b c1		 mov	 eax, ecx
  0046d	4a		 dec	 edx

; 958  : 				
; 959  : 					else
; 960  : 						pDC->LineTo( left + len, rect2.bottom - j );

  0046e	2b cb		 sub	 ecx, ebx
  00470	2b c3		 sub	 eax, ebx
  00472	3b f2		 cmp	 esi, edx
  00474	0f 4f c8	 cmovg	 ecx, eax
  00477	0f 4e d6	 cmovle	 edx, esi
  0047a	51		 push	 ecx
  0047b	52		 push	 edx
  0047c	8b cf		 mov	 ecx, edi
  0047e	e8 00 00 00 00	 call	 ?LineTo@CDC@@QAEHHH@Z	; CDC::LineTo
  00483	8b 4d 24	 mov	 ecx, DWORD PTR _rect2$[ebp+8]
  00486	83 c6 03	 add	 esi, 3
  00489	49		 dec	 ecx
  0048a	3b f1		 cmp	 esi, ecx
  0048c	7c c2		 jl	 SHORT $LL31@DrawScaleG
$LN26@DrawScaleG:

; 950  : 				for( j = int( p_dFactor * 20) ; j < int( p_dFactor * 75) ; j += int( p_dFactor * 20))

  0048e	2b 5d 2c	 sub	 ebx, DWORD PTR tv1089[ebp]
  00491	3b 5d 30	 cmp	 ebx, DWORD PTR tv1085[ebp]
  00494	7c ab		 jl	 SHORT $LL28@DrawScaleG

; 961  : 				}
; 962  : 			}
; 963  : 		}

  00496	e9 44 01 00 00	 jmp	 $LN39@DrawScaleG
$LN62@DrawScaleG:

; 964  : 		
; 965  : 		else if( p_pStyleData->GetDivideWidth() == 2 )

  0049b	8b cb		 mov	 ecx, ebx
  0049d	e8 00 00 00 00	 call	 ?GetDivideWidth@CStyleData@@QBEHXZ ; CStyleData::GetDivideWidth
  004a2	83 f8 02	 cmp	 eax, 2
  004a5	0f 85 34 01 00
	00		 jne	 $LN39@DrawScaleG

; 966  : 		{
; 967  : 			len = 1;
; 968  : 			gap = 3;
; 969  : 			
; 970  : 			for( i = int( p_dFactor * 20); i < int( p_dFactor * 155); i += int( p_dFactor * 20))

  004ab	f2 0f 10 4d 34	 movsd	 xmm1, QWORD PTR _p_dFactor$[ebp]
  004b0	f2 0f 10 15 00
	00 00 00	 movsd	 xmm2, QWORD PTR __real@c034000000000000
  004b8	0f 28 c1	 movaps	 xmm0, xmm1
  004bb	f2 0f 59 05 00
	00 00 00	 mulsd	 xmm0, QWORD PTR __real@4034000000000000
  004c3	f2 0f 2c c8	 cvttsd2si ecx, xmm0
  004c7	0f 28 c1	 movaps	 xmm0, xmm1
  004ca	f2 0f 59 05 00
	00 00 00	 mulsd	 xmm0, QWORD PTR __real@4063600000000000
  004d2	8b d9		 mov	 ebx, ecx
  004d4	89 4d 2c	 mov	 DWORD PTR _j$3$[ebp], ecx
  004d7	f2 0f 2c c0	 cvttsd2si eax, xmm0
  004db	89 45 f0	 mov	 DWORD PTR tv1097[ebp], eax
  004de	3b d8		 cmp	 ebx, eax
  004e0	7d 79		 jge	 SHORT $LN124@DrawScaleG
  004e2	8b 4d 14	 mov	 ecx, DWORD PTR _rect1$[ebp+8]
  004e5	0f 28 c1	 movaps	 xmm0, xmm1
  004e8	f2 0f 59 c2	 mulsd	 xmm0, xmm2
  004ec	49		 dec	 ecx
  004ed	f2 0f 2c c0	 cvttsd2si eax, xmm0
  004f1	89 45 ec	 mov	 DWORD PTR tv1088[ebp], eax
$LL34@DrawScaleG:

; 971  : 			{
; 972  : 				for( left = rect1.left + 1 ; left < rect1.right - 1 ; left += ( len + gap ) )

  004f4	8b 75 0c	 mov	 esi, DWORD PTR _rect1$[ebp]
  004f7	46		 inc	 esi
  004f8	3b f1		 cmp	 esi, ecx
  004fa	7d 47		 jge	 SHORT $LN32@DrawScaleG
  004fc	8d 46 01	 lea	 eax, DWORD PTR [esi+1]
  004ff	89 45 08	 mov	 DWORD PTR tv1044[ebp], eax
$LL37@DrawScaleG:

; 973  : 				{
; 974  : 					pDC->MoveTo( left, rect1.bottom - i );

  00502	8b 45 18	 mov	 eax, DWORD PTR _rect1$[ebp+12]
  00505	8b cf		 mov	 ecx, edi
  00507	2b c3		 sub	 eax, ebx
  00509	50		 push	 eax
  0050a	56		 push	 esi
  0050b	8d 45 d4	 lea	 eax, DWORD PTR $T2[ebp]
  0050e	50		 push	 eax
  0050f	e8 00 00 00 00	 call	 ?MoveTo@CDC@@QAE?AVCPoint@@HH@Z ; CDC::MoveTo

; 975  : 					
; 976  : 					if( ( left + len ) > ( rect1.right - 1 ) )
; 977  : 						pDC->LineTo( rect1.right - 1, rect1.bottom - i );

  00514	8b 4d 18	 mov	 ecx, DWORD PTR _rect1$[ebp+12]
  00517	8b c1		 mov	 eax, ecx
  00519	8b 55 14	 mov	 edx, DWORD PTR _rect1$[ebp+8]

; 978  : 				
; 979  : 					else
; 980  : 						pDC->LineTo( left + len, rect1.bottom - i );

  0051c	2b cb		 sub	 ecx, ebx
  0051e	4a		 dec	 edx
  0051f	2b c3		 sub	 eax, ebx
  00521	39 55 08	 cmp	 DWORD PTR tv1044[ebp], edx
  00524	0f 4e 55 08	 cmovle	 edx, DWORD PTR tv1044[ebp]
  00528	0f 4f c8	 cmovg	 ecx, eax
  0052b	51		 push	 ecx
  0052c	52		 push	 edx
  0052d	8b cf		 mov	 ecx, edi
  0052f	e8 00 00 00 00	 call	 ?LineTo@CDC@@QAEHHH@Z	; CDC::LineTo
  00534	8b 4d 14	 mov	 ecx, DWORD PTR _rect1$[ebp+8]
  00537	83 c6 04	 add	 esi, 4
  0053a	83 45 08 04	 add	 DWORD PTR tv1044[ebp], 4
  0053e	49		 dec	 ecx
  0053f	3b f1		 cmp	 esi, ecx
  00541	7c bf		 jl	 SHORT $LL37@DrawScaleG
$LN32@DrawScaleG:

; 966  : 		{
; 967  : 			len = 1;
; 968  : 			gap = 3;
; 969  : 			
; 970  : 			for( i = int( p_dFactor * 20); i < int( p_dFactor * 155); i += int( p_dFactor * 20))

  00543	2b 5d ec	 sub	 ebx, DWORD PTR tv1088[ebp]
  00546	3b 5d f0	 cmp	 ebx, DWORD PTR tv1097[ebp]
  00549	7c a9		 jl	 SHORT $LL34@DrawScaleG
  0054b	f2 0f 10 4d 34	 movsd	 xmm1, QWORD PTR _p_dFactor$[ebp]
  00550	f2 0f 10 15 00
	00 00 00	 movsd	 xmm2, QWORD PTR __real@c034000000000000
  00558	8b 4d 2c	 mov	 ecx, DWORD PTR _j$3$[ebp]
$LN124@DrawScaleG:

; 981  : 				}
; 982  : 			}
; 983  : 
; 984  : 			// (2009/9/21 - Seung-Won, Bae) for FX
; 985  : 			if( CChartInfo::FX != p_eChartMode)

  0055b	83 7d 30 02	 cmp	 DWORD PTR _p_eChartMode$[ebp], 2
  0055f	74 7e		 je	 SHORT $LN39@DrawScaleG

; 986  : 				for( j = int( p_dFactor * 20) ; j < int( p_dFactor * 75) ; j += int( p_dFactor * 20))

  00561	0f 28 c1	 movaps	 xmm0, xmm1
  00564	f2 0f 59 05 00
	00 00 00	 mulsd	 xmm0, QWORD PTR __real@4052c00000000000
  0056c	f2 0f 2c c0	 cvttsd2si eax, xmm0
  00570	89 45 08	 mov	 DWORD PTR tv1084[ebp], eax
  00573	3b c8		 cmp	 ecx, eax
  00575	7d 68		 jge	 SHORT $LN39@DrawScaleG
  00577	8b 55 24	 mov	 edx, DWORD PTR _rect2$[ebp+8]
  0057a	f2 0f 59 ca	 mulsd	 xmm1, xmm2
  0057e	4a		 dec	 edx
  0057f	f2 0f 2c c1	 cvttsd2si eax, xmm1
  00583	89 45 30	 mov	 DWORD PTR tv1087[ebp], eax
$LL40@DrawScaleG:

; 987  : 			{
; 988  : 				for( left = rect2.left + 1 ; left < rect2.right - 1 ; left += ( len + gap ) )

  00586	8b 75 1c	 mov	 esi, DWORD PTR _rect2$[ebp]
  00589	46		 inc	 esi
  0058a	3b f2		 cmp	 esi, edx
  0058c	7d 46		 jge	 SHORT $LN38@DrawScaleG
  0058e	8d 5e 01	 lea	 ebx, DWORD PTR [esi+1]
$LL43@DrawScaleG:

; 989  : 				{
; 990  : 					pDC->MoveTo( left, rect2.bottom - j );

  00591	8b 45 28	 mov	 eax, DWORD PTR _rect2$[ebp+12]
  00594	2b c1		 sub	 eax, ecx
  00596	8b cf		 mov	 ecx, edi
  00598	50		 push	 eax
  00599	56		 push	 esi
  0059a	8d 45 34	 lea	 eax, DWORD PTR $T11[ebp]
  0059d	50		 push	 eax
  0059e	e8 00 00 00 00	 call	 ?MoveTo@CDC@@QAE?AVCPoint@@HH@Z ; CDC::MoveTo

; 991  : 					
; 992  : 					if( ( left + len ) > ( rect2.right - 1 ) )
; 993  : 						pDC->LineTo( rect2.right - 1, rect2.bottom - j );

  005a3	8b 4d 28	 mov	 ecx, DWORD PTR _rect2$[ebp+12]
  005a6	8b c1		 mov	 eax, ecx
  005a8	8b 55 24	 mov	 edx, DWORD PTR _rect2$[ebp+8]

; 994  : 					
; 995  : 					else
; 996  : 						pDC->LineTo( left + len, rect2.bottom - j );

  005ab	2b 4d 2c	 sub	 ecx, DWORD PTR _j$3$[ebp]
  005ae	4a		 dec	 edx
  005af	2b 45 2c	 sub	 eax, DWORD PTR _j$3$[ebp]
  005b2	3b da		 cmp	 ebx, edx
  005b4	0f 4f c8	 cmovg	 ecx, eax
  005b7	0f 4e d3	 cmovle	 edx, ebx
  005ba	51		 push	 ecx
  005bb	52		 push	 edx
  005bc	8b cf		 mov	 ecx, edi
  005be	e8 00 00 00 00	 call	 ?LineTo@CDC@@QAEHHH@Z	; CDC::LineTo
  005c3	8b 55 24	 mov	 edx, DWORD PTR _rect2$[ebp+8]
  005c6	83 c6 04	 add	 esi, 4
  005c9	8b 4d 2c	 mov	 ecx, DWORD PTR _j$3$[ebp]
  005cc	4a		 dec	 edx
  005cd	83 c3 04	 add	 ebx, 4
  005d0	3b f2		 cmp	 esi, edx
  005d2	7c bd		 jl	 SHORT $LL43@DrawScaleG
$LN38@DrawScaleG:

; 986  : 				for( j = int( p_dFactor * 20) ; j < int( p_dFactor * 75) ; j += int( p_dFactor * 20))

  005d4	2b 4d 30	 sub	 ecx, DWORD PTR tv1087[ebp]
  005d7	89 4d 2c	 mov	 DWORD PTR _j$3$[ebp], ecx
  005da	3b 4d 08	 cmp	 ecx, DWORD PTR tv1084[ebp]
  005dd	7c a7		 jl	 SHORT $LL40@DrawScaleG
$LN39@DrawScaleG:

; 997  : 				}
; 998  : 			}
; 999  : 		}
; 1000 : 	}
; 1001 : 
; 1002 : 	pDC->SelectObject( pOldPen );

  005df	ff 75 e4	 push	 DWORD PTR _pOldPen$1$[ebp]
  005e2	8b cf		 mov	 ecx, edi
  005e4	e8 00 00 00 00	 call	 ?SelectObject@CDC@@QAEPAVCPen@@PAV2@@Z ; CDC::SelectObject

; 1003 : 	pen.DeleteObject();

  005e9	8d 4d dc	 lea	 ecx, DWORD PTR _pen$[ebp]
  005ec	e8 00 00 00 00	 call	 ?DeleteObject@CGdiObject@@QAEHXZ ; CGdiObject::DeleteObject
; File C:\Program Files (x86)\Microsoft Visual Studio\2019\Community\VC\Tools\MSVC\14.29.30133\atlmfc\include\afxwin1.inl

; 106  : 	{ }

  005f1	8d 4d dc	 lea	 ecx, DWORD PTR _pen$[ebp]
  005f4	c7 45 dc 00 00
	00 00		 mov	 DWORD PTR _pen$[ebp], OFFSET ??_7CPen@@6B@
  005fb	e8 00 00 00 00	 call	 ??1CGdiObject@@UAE@XZ	; CGdiObject::~CGdiObject
; File D:\git\src\IBK\IBK_DRFN\ProjSrc\SrcChartEx\ChartAddIn\ChartEnvSetupDlgAddIn\ChartEnvSetupDlgAddIn\StyleDataManager.cpp

; 1004 : }

  00600	8b 4d f4	 mov	 ecx, DWORD PTR __$EHRec$[ebp]
  00603	64 89 0d 00 00
	00 00		 mov	 DWORD PTR fs:0, ecx
  0060a	59		 pop	 ecx
  0060b	5f		 pop	 edi
  0060c	5e		 pop	 esi
  0060d	5b		 pop	 ebx
  0060e	8b e5		 mov	 esp, ebp
  00610	5d		 pop	 ebp
  00611	c2 34 00	 ret	 52			; 00000034H
_TEXT	ENDS
;	COMDAT text$x
text$x	SEGMENT
__unwindfunclet$?DrawScaleGrid@CStyleDataManager@@QAEXPAVCDC@@VCRect@@1PAVCStyleData@@W4CHART_MODE@CChartInfo@@N@Z$0:
  00000	8d 4d dc	 lea	 ecx, DWORD PTR _pen$[ebp]
  00003	e9 00 00 00 00	 jmp	 ??1CPen@@UAE@XZ		; CPen::~CPen
  00008	cc		 int	 3
  00009	cc		 int	 3
  0000a	cc		 int	 3
  0000b	cc		 int	 3
  0000c	cc		 int	 3
__ehhandler$?DrawScaleGrid@CStyleDataManager@@QAEXPAVCDC@@VCRect@@1PAVCStyleData@@W4CHART_MODE@CChartInfo@@N@Z:
  0000d	90		 npad	 1
  0000e	90		 npad	 1
  0000f	8b 54 24 08	 mov	 edx, DWORD PTR [esp+8]
  00013	8d 42 0c	 lea	 eax, DWORD PTR [edx+12]
  00016	8b 4a d0	 mov	 ecx, DWORD PTR [edx-48]
  00019	33 c8		 xor	 ecx, eax
  0001b	e8 00 00 00 00	 call	 @__security_check_cookie@4
  00020	b8 00 00 00 00	 mov	 eax, OFFSET __ehfuncinfo$?DrawScaleGrid@CStyleDataManager@@QAEXPAVCDC@@VCRect@@1PAVCStyleData@@W4CHART_MODE@CChartInfo@@N@Z
  00025	e9 00 00 00 00	 jmp	 ___CxxFrameHandler3
text$x	ENDS
?DrawScaleGrid@CStyleDataManager@@QAEXPAVCDC@@VCRect@@1PAVCStyleData@@W4CHART_MODE@CChartInfo@@N@Z ENDP ; CStyleDataManager::DrawScaleGrid
; Function compile flags: /Ogtp
; File D:\git\src\IBK\IBK_DRFN\ProjSrc\SrcChartEx\ChartAddIn\ChartEnvSetupDlgAddIn\ChartEnvSetupDlgAddIn\StyleDataManager.cpp
; File C:\Program Files (x86)\Microsoft Visual Studio\2019\Community\VC\Tools\MSVC\14.29.30133\atlmfc\include\afxwin1.inl
; File D:\git\src\IBK\IBK_DRFN\ProjSrc\SrcChartEx\ChartAddIn\ChartEnvSetupDlgAddIn\ChartEnvSetupDlgAddIn\StyleDataManager.cpp
;	COMDAT ?DrawGraphGrid@CStyleDataManager@@QAEXPAVCDC@@VCRect@@1PAVCStyleData@@@Z
_TEXT	SEGMENT
$T2 = -28						; size = 8
$T3 = -28						; size = 8
$T4 = -28						; size = 8
$T5 = -28						; size = 8
_pen$ = -20						; size = 8
__$EHRec$ = -12						; size = 12
_pDC$ = 8						; size = 4
_rect1$ = 12						; size = 16
_rect2$ = 28						; size = 16
_pOldPen$1$ = 44					; size = 4
_p_pStyleData$ = 44					; size = 4
?DrawGraphGrid@CStyleDataManager@@QAEXPAVCDC@@VCRect@@1PAVCStyleData@@@Z PROC ; CStyleDataManager::DrawGraphGrid, COMDAT
; _this$ = ecx

; 779  : {

  00000	55		 push	 ebp
  00001	8b ec		 mov	 ebp, esp
  00003	6a ff		 push	 -1
  00005	68 00 00 00 00	 push	 __ehhandler$?DrawGraphGrid@CStyleDataManager@@QAEXPAVCDC@@VCRect@@1PAVCStyleData@@@Z
  0000a	64 a1 00 00 00
	00		 mov	 eax, DWORD PTR fs:0
  00010	50		 push	 eax
  00011	83 ec 10	 sub	 esp, 16			; 00000010H
  00014	53		 push	 ebx
  00015	56		 push	 esi
  00016	57		 push	 edi
  00017	a1 00 00 00 00	 mov	 eax, DWORD PTR ___security_cookie
  0001c	33 c5		 xor	 eax, ebp
  0001e	50		 push	 eax
  0001f	8d 45 f4	 lea	 eax, DWORD PTR __$EHRec$[ebp]
  00022	64 a3 00 00 00
	00		 mov	 DWORD PTR fs:0, eax

; 780  : 	COLORREF color = p_pStyleData->GetGraphGridColor();

  00028	8b 5d 2c	 mov	 ebx, DWORD PTR _p_pStyleData$[ebp]
  0002b	8b cb		 mov	 ecx, ebx
  0002d	e8 00 00 00 00	 call	 ?GetGraphGridColor@CStyleData@@QBEKXZ ; CStyleData::GetGraphGridColor

; 781  : 
; 782  : 	CPen pen( PS_SOLID, 1, color );

  00032	50		 push	 eax
  00033	6a 01		 push	 1
  00035	6a 00		 push	 0
  00037	8d 4d ec	 lea	 ecx, DWORD PTR _pen$[ebp]
  0003a	e8 00 00 00 00	 call	 ??0CPen@@QAE@HHK@Z	; CPen::CPen

; 783  : 	CPen *pOldPen = pDC->SelectObject( &pen );

  0003f	8b 75 08	 mov	 esi, DWORD PTR _pDC$[ebp]
  00042	8d 45 ec	 lea	 eax, DWORD PTR _pen$[ebp]
  00045	50		 push	 eax
  00046	8b ce		 mov	 ecx, esi
  00048	c7 45 fc 00 00
	00 00		 mov	 DWORD PTR __$EHRec$[ebp+8], 0
  0004f	e8 00 00 00 00	 call	 ?SelectObject@CDC@@QAEPAVCPen@@PAV2@@Z ; CDC::SelectObject

; 784  : 	int left = 0;
; 785  : 	// 1.  grid
; 786  : 	if( p_pStyleData->GetGridWidth() > 0 )

  00054	8b cb		 mov	 ecx, ebx
  00056	89 45 2c	 mov	 DWORD PTR _pOldPen$1$[ebp], eax
  00059	e8 00 00 00 00	 call	 ?GetGridWidth@CStyleData@@QBEHXZ ; CStyleData::GetGridWidth
  0005e	85 c0		 test	 eax, eax
  00060	7e 78		 jle	 SHORT $LN6@DrawGraphG

; 787  : 	{
; 788  : 		for( left = rect1.left + p_pStyleData->GetGridWidth() ; left < rect1.right ; left += p_pStyleData->GetGridWidth() )

  00062	8b cb		 mov	 ecx, ebx
  00064	e8 00 00 00 00	 call	 ?GetGridWidth@CStyleData@@QBEHXZ ; CStyleData::GetGridWidth
  00069	8b f8		 mov	 edi, eax
  0006b	03 7d 0c	 add	 edi, DWORD PTR _rect1$[ebp]
  0006e	3b 7d 14	 cmp	 edi, DWORD PTR _rect1$[ebp+8]
  00071	7d 2c		 jge	 SHORT $LN3@DrawGraphG
$LL4@DrawGraphG:

; 789  : 		{
; 790  : 			pDC->MoveTo( left, rect1.top + 1 );

  00073	8b 4d 10	 mov	 ecx, DWORD PTR _rect1$[ebp+4]
  00076	8d 45 e4	 lea	 eax, DWORD PTR $T5[ebp]
  00079	41		 inc	 ecx
  0007a	51		 push	 ecx
  0007b	57		 push	 edi
  0007c	50		 push	 eax
  0007d	8b ce		 mov	 ecx, esi
  0007f	e8 00 00 00 00	 call	 ?MoveTo@CDC@@QAE?AVCPoint@@HH@Z ; CDC::MoveTo

; 791  : 			pDC->LineTo( left, rect1.bottom + 1 );

  00084	8b 45 18	 mov	 eax, DWORD PTR _rect1$[ebp+12]
  00087	8b ce		 mov	 ecx, esi
  00089	40		 inc	 eax
  0008a	50		 push	 eax
  0008b	57		 push	 edi
  0008c	e8 00 00 00 00	 call	 ?LineTo@CDC@@QAEHHH@Z	; CDC::LineTo
  00091	8b cb		 mov	 ecx, ebx
  00093	e8 00 00 00 00	 call	 ?GetGridWidth@CStyleData@@QBEHXZ ; CStyleData::GetGridWidth
  00098	03 f8		 add	 edi, eax
  0009a	3b 7d 14	 cmp	 edi, DWORD PTR _rect1$[ebp+8]
  0009d	7c d4		 jl	 SHORT $LL4@DrawGraphG
$LN3@DrawGraphG:

; 792  : 		}
; 793  : 		left = rect2.left + p_pStyleData->GetGridWidth();

  0009f	8b cb		 mov	 ecx, ebx
  000a1	e8 00 00 00 00	 call	 ?GetGridWidth@CStyleData@@QBEHXZ ; CStyleData::GetGridWidth
  000a6	8b f8		 mov	 edi, eax
  000a8	03 7d 1c	 add	 edi, DWORD PTR _rect2$[ebp]

; 794  : 
; 795  : 		for( ; left < rect2.right ; left += p_pStyleData->GetGridWidth() )

  000ab	3b 7d 24	 cmp	 edi, DWORD PTR _rect2$[ebp+8]
  000ae	7d 2a		 jge	 SHORT $LN6@DrawGraphG
$LL7@DrawGraphG:

; 796  : 		{
; 797  : 			pDC->MoveTo( left, rect2.top + 1 );

  000b0	8b 4d 20	 mov	 ecx, DWORD PTR _rect2$[ebp+4]
  000b3	8d 45 e4	 lea	 eax, DWORD PTR $T4[ebp]
  000b6	41		 inc	 ecx
  000b7	51		 push	 ecx
  000b8	57		 push	 edi
  000b9	50		 push	 eax
  000ba	8b ce		 mov	 ecx, esi
  000bc	e8 00 00 00 00	 call	 ?MoveTo@CDC@@QAE?AVCPoint@@HH@Z ; CDC::MoveTo

; 798  : 			pDC->LineTo( left, rect2.bottom );

  000c1	ff 75 28	 push	 DWORD PTR _rect2$[ebp+12]
  000c4	8b ce		 mov	 ecx, esi
  000c6	57		 push	 edi
  000c7	e8 00 00 00 00	 call	 ?LineTo@CDC@@QAEHHH@Z	; CDC::LineTo
  000cc	8b cb		 mov	 ecx, ebx
  000ce	e8 00 00 00 00	 call	 ?GetGridWidth@CStyleData@@QBEHXZ ; CStyleData::GetGridWidth
  000d3	03 f8		 add	 edi, eax
  000d5	3b 7d 24	 cmp	 edi, DWORD PTR _rect2$[ebp+8]
  000d8	7c d6		 jl	 SHORT $LL7@DrawGraphG
$LN6@DrawGraphG:

; 799  : 		}
; 800  : 	}
; 801  : 
; 802  : 	// 2.  grid
; 803  : 	if( p_pStyleData->GetGridHeight() > 0 )

  000da	8b cb		 mov	 ecx, ebx
  000dc	e8 00 00 00 00	 call	 ?GetGridHeight@CStyleData@@QBEHXZ ; CStyleData::GetGridHeight
  000e1	85 c0		 test	 eax, eax
  000e3	7e 7a		 jle	 SHORT $LN12@DrawGraphG

; 804  : 	{
; 805  : 		int top = rect1.top + p_pStyleData->GetGridHeight();

  000e5	8b cb		 mov	 ecx, ebx
  000e7	e8 00 00 00 00	 call	 ?GetGridHeight@CStyleData@@QBEHXZ ; CStyleData::GetGridHeight
  000ec	8b f8		 mov	 edi, eax
  000ee	03 7d 10	 add	 edi, DWORD PTR _rect1$[ebp+4]

; 806  : 		for( ; top < rect1.bottom ; top += p_pStyleData->GetGridHeight() )

  000f1	3b 7d 18	 cmp	 edi, DWORD PTR _rect1$[ebp+12]
  000f4	7d 2c		 jge	 SHORT $LN9@DrawGraphG
$LL10@DrawGraphG:

; 807  : 		{
; 808  : 			pDC->MoveTo( rect1.left +1, top );

  000f6	8b 4d 0c	 mov	 ecx, DWORD PTR _rect1$[ebp]
  000f9	8d 45 e4	 lea	 eax, DWORD PTR $T3[ebp]
  000fc	57		 push	 edi
  000fd	41		 inc	 ecx
  000fe	51		 push	 ecx
  000ff	50		 push	 eax
  00100	8b ce		 mov	 ecx, esi
  00102	e8 00 00 00 00	 call	 ?MoveTo@CDC@@QAE?AVCPoint@@HH@Z ; CDC::MoveTo

; 809  : 			pDC->LineTo( rect1.right - 1, top );

  00107	8b 45 14	 mov	 eax, DWORD PTR _rect1$[ebp+8]
  0010a	8b ce		 mov	 ecx, esi
  0010c	57		 push	 edi
  0010d	48		 dec	 eax
  0010e	50		 push	 eax
  0010f	e8 00 00 00 00	 call	 ?LineTo@CDC@@QAEHHH@Z	; CDC::LineTo
  00114	8b cb		 mov	 ecx, ebx
  00116	e8 00 00 00 00	 call	 ?GetGridHeight@CStyleData@@QBEHXZ ; CStyleData::GetGridHeight
  0011b	03 f8		 add	 edi, eax
  0011d	3b 7d 18	 cmp	 edi, DWORD PTR _rect1$[ebp+12]
  00120	7c d4		 jl	 SHORT $LL10@DrawGraphG
$LN9@DrawGraphG:

; 810  : 		}
; 811  : 		top = rect2.top + p_pStyleData->GetGridHeight();

  00122	8b cb		 mov	 ecx, ebx
  00124	e8 00 00 00 00	 call	 ?GetGridHeight@CStyleData@@QBEHXZ ; CStyleData::GetGridHeight
  00129	8b f8		 mov	 edi, eax
  0012b	03 7d 20	 add	 edi, DWORD PTR _rect2$[ebp+4]

; 812  : 		
; 813  : 		for( ; top < rect2.bottom ; top += p_pStyleData->GetGridHeight() )

  0012e	3b 7d 28	 cmp	 edi, DWORD PTR _rect2$[ebp+12]
  00131	7d 2c		 jge	 SHORT $LN12@DrawGraphG
$LL13@DrawGraphG:

; 814  : 		{
; 815  : 			pDC->MoveTo( rect2.left + 1, top );

  00133	8b 4d 1c	 mov	 ecx, DWORD PTR _rect2$[ebp]
  00136	8d 45 e4	 lea	 eax, DWORD PTR $T2[ebp]
  00139	57		 push	 edi
  0013a	41		 inc	 ecx
  0013b	51		 push	 ecx
  0013c	50		 push	 eax
  0013d	8b ce		 mov	 ecx, esi
  0013f	e8 00 00 00 00	 call	 ?MoveTo@CDC@@QAE?AVCPoint@@HH@Z ; CDC::MoveTo

; 816  : 			pDC->LineTo( rect2.right - 1, top );

  00144	8b 45 24	 mov	 eax, DWORD PTR _rect2$[ebp+8]
  00147	8b ce		 mov	 ecx, esi
  00149	57		 push	 edi
  0014a	48		 dec	 eax
  0014b	50		 push	 eax
  0014c	e8 00 00 00 00	 call	 ?LineTo@CDC@@QAEHHH@Z	; CDC::LineTo
  00151	8b cb		 mov	 ecx, ebx
  00153	e8 00 00 00 00	 call	 ?GetGridHeight@CStyleData@@QBEHXZ ; CStyleData::GetGridHeight
  00158	03 f8		 add	 edi, eax
  0015a	3b 7d 28	 cmp	 edi, DWORD PTR _rect2$[ebp+12]
  0015d	7c d4		 jl	 SHORT $LL13@DrawGraphG
$LN12@DrawGraphG:

; 817  : 		}
; 818  : 	}
; 819  : 
; 820  : 	pDC->SelectObject( pOldPen );

  0015f	ff 75 2c	 push	 DWORD PTR _pOldPen$1$[ebp]
  00162	8b ce		 mov	 ecx, esi
  00164	e8 00 00 00 00	 call	 ?SelectObject@CDC@@QAEPAVCPen@@PAV2@@Z ; CDC::SelectObject

; 821  : 	pen.DeleteObject();

  00169	8d 4d ec	 lea	 ecx, DWORD PTR _pen$[ebp]
  0016c	e8 00 00 00 00	 call	 ?DeleteObject@CGdiObject@@QAEHXZ ; CGdiObject::DeleteObject
; File C:\Program Files (x86)\Microsoft Visual Studio\2019\Community\VC\Tools\MSVC\14.29.30133\atlmfc\include\afxwin1.inl

; 106  : 	{ }

  00171	8d 4d ec	 lea	 ecx, DWORD PTR _pen$[ebp]
  00174	c7 45 ec 00 00
	00 00		 mov	 DWORD PTR _pen$[ebp], OFFSET ??_7CPen@@6B@
  0017b	e8 00 00 00 00	 call	 ??1CGdiObject@@UAE@XZ	; CGdiObject::~CGdiObject
; File D:\git\src\IBK\IBK_DRFN\ProjSrc\SrcChartEx\ChartAddIn\ChartEnvSetupDlgAddIn\ChartEnvSetupDlgAddIn\StyleDataManager.cpp

; 822  : }

  00180	8b 4d f4	 mov	 ecx, DWORD PTR __$EHRec$[ebp]
  00183	64 89 0d 00 00
	00 00		 mov	 DWORD PTR fs:0, ecx
  0018a	59		 pop	 ecx
  0018b	5f		 pop	 edi
  0018c	5e		 pop	 esi
  0018d	5b		 pop	 ebx
  0018e	8b e5		 mov	 esp, ebp
  00190	5d		 pop	 ebp
  00191	c2 28 00	 ret	 40			; 00000028H
_TEXT	ENDS
;	COMDAT text$x
text$x	SEGMENT
__unwindfunclet$?DrawGraphGrid@CStyleDataManager@@QAEXPAVCDC@@VCRect@@1PAVCStyleData@@@Z$0:
  00000	8d 4d ec	 lea	 ecx, DWORD PTR _pen$[ebp]
  00003	e9 00 00 00 00	 jmp	 ??1CPen@@UAE@XZ		; CPen::~CPen
  00008	cc		 int	 3
  00009	cc		 int	 3
  0000a	cc		 int	 3
  0000b	cc		 int	 3
  0000c	cc		 int	 3
__ehhandler$?DrawGraphGrid@CStyleDataManager@@QAEXPAVCDC@@VCRect@@1PAVCStyleData@@@Z:
  0000d	90		 npad	 1
  0000e	90		 npad	 1
  0000f	8b 54 24 08	 mov	 edx, DWORD PTR [esp+8]
  00013	8d 42 0c	 lea	 eax, DWORD PTR [edx+12]
  00016	8b 4a e0	 mov	 ecx, DWORD PTR [edx-32]
  00019	33 c8		 xor	 ecx, eax
  0001b	e8 00 00 00 00	 call	 @__security_check_cookie@4
  00020	b8 00 00 00 00	 mov	 eax, OFFSET __ehfuncinfo$?DrawGraphGrid@CStyleDataManager@@QAEXPAVCDC@@VCRect@@1PAVCStyleData@@@Z
  00025	e9 00 00 00 00	 jmp	 ___CxxFrameHandler3
text$x	ENDS
?DrawGraphGrid@CStyleDataManager@@QAEXPAVCDC@@VCRect@@1PAVCStyleData@@@Z ENDP ; CStyleDataManager::DrawGraphGrid
; Function compile flags: /Ogtp
; File D:\git\src\IBK\IBK_DRFN\ProjSrc\SrcChartEx\ChartAddIn\ChartEnvSetupDlgAddIn\ChartEnvSetupDlgAddIn\StyleDataManager.cpp
; File C:\Program Files (x86)\Microsoft Visual Studio\2019\Community\VC\Tools\MSVC\14.29.30133\atlmfc\include\afxwin1.inl
; File D:\git\src\IBK\IBK_DRFN\ProjSrc\SrcChartEx\ChartAddIn\ChartEnvSetupDlgAddIn\ChartEnvSetupDlgAddIn\StyleDataManager.cpp
; File C:\Program Files (x86)\Microsoft Visual Studio\2019\Community\VC\Tools\MSVC\14.29.30133\atlmfc\include\afxwin1.inl
; File D:\git\src\IBK\IBK_DRFN\ProjSrc\SrcChartEx\ChartAddIn\ChartEnvSetupDlgAddIn\ChartEnvSetupDlgAddIn\StyleDataManager.cpp
; File C:\Program Files (x86)\Microsoft Visual Studio\2019\Community\VC\Tools\MSVC\14.29.30133\atlmfc\include\afxwin1.inl
; File D:\git\src\IBK\IBK_DRFN\ProjSrc\SrcChartEx\ChartAddIn\ChartEnvSetupDlgAddIn\ChartEnvSetupDlgAddIn\StyleDataManager.cpp
; File C:\Program Files (x86)\Microsoft Visual Studio\2019\Community\VC\Tools\MSVC\14.29.30133\atlmfc\include\afxwin1.inl
; File D:\git\src\IBK\IBK_DRFN\ProjSrc\SrcChartEx\ChartAddIn\ChartEnvSetupDlgAddIn\ChartEnvSetupDlgAddIn\StyleDataManager.cpp
;	COMDAT ?DrawGraph@CStyleDataManager@@QAEXPAVCDC@@VCRect@@1PAVCStyleData@@W4CHART_MODE@CChartInfo@@@Z
_TEXT	SEGMENT
_pen$ = -48						; size = 8
_brush$ = -40						; size = 8
_pDC$GSCopy$1$ = -32					; size = 4
_pOldBrush$1$ = -32					; size = 4
_rect$ = -28						; size = 16
_rect$ = -28						; size = 16
__$EHRec$ = -12						; size = 12
_pDC$ = 8						; size = 4
_rect1$ = 12						; size = 16
_rect2$ = 28						; size = 16
_p_pStyleData$ = 44					; size = 4
_p_eChartMode$ = 48					; size = 4
?DrawGraph@CStyleDataManager@@QAEXPAVCDC@@VCRect@@1PAVCStyleData@@W4CHART_MODE@CChartInfo@@@Z PROC ; CStyleDataManager::DrawGraph, COMDAT
; _this$ = ecx

; 747  : {

  00000	55		 push	 ebp
  00001	8b ec		 mov	 ebp, esp
  00003	6a ff		 push	 -1
  00005	68 00 00 00 00	 push	 __ehhandler$?DrawGraph@CStyleDataManager@@QAEXPAVCDC@@VCRect@@1PAVCStyleData@@W4CHART_MODE@CChartInfo@@@Z
  0000a	64 a1 00 00 00
	00		 mov	 eax, DWORD PTR fs:0
  00010	50		 push	 eax
  00011	83 ec 24	 sub	 esp, 36			; 00000024H
  00014	56		 push	 esi
  00015	57		 push	 edi
  00016	a1 00 00 00 00	 mov	 eax, DWORD PTR ___security_cookie
  0001b	33 c5		 xor	 eax, ebp
  0001d	50		 push	 eax
  0001e	8d 45 f4	 lea	 eax, DWORD PTR __$EHRec$[ebp]
  00021	64 a3 00 00 00
	00		 mov	 DWORD PTR fs:0, eax
  00027	8b 45 08	 mov	 eax, DWORD PTR _pDC$[ebp]
  0002a	8b 75 2c	 mov	 esi, DWORD PTR _p_pStyleData$[ebp]

; 748  : 	COLORREF bgColor		= p_pStyleData->GetGraphBGColor();

  0002d	8b ce		 mov	 ecx, esi
  0002f	89 45 e0	 mov	 DWORD PTR _pDC$GSCopy$1$[ebp], eax
  00032	e8 00 00 00 00	 call	 ?GetGraphBGColor@CStyleData@@QBEKXZ ; CStyleData::GetGraphBGColor

; 749  : 	COLORREF borderColor	= p_pStyleData->GetGraphBorderColor();

  00037	8b ce		 mov	 ecx, esi
  00039	8b f8		 mov	 edi, eax
  0003b	e8 00 00 00 00	 call	 ?GetGraphBorderColor@CStyleData@@QBEKXZ ; CStyleData::GetGraphBorderColor

; 750  : 
; 751  : 	CPen pen(PS_SOLID, 1, borderColor);

  00040	50		 push	 eax
  00041	6a 01		 push	 1
  00043	6a 00		 push	 0
  00045	8d 4d d0	 lea	 ecx, DWORD PTR _pen$[ebp]
  00048	e8 00 00 00 00	 call	 ??0CPen@@QAE@HHK@Z	; CPen::CPen

; 752  : 	CBrush brush(bgColor);

  0004d	57		 push	 edi
  0004e	8d 4d d8	 lea	 ecx, DWORD PTR _brush$[ebp]
  00051	c7 45 fc 00 00
	00 00		 mov	 DWORD PTR __$EHRec$[ebp+8], 0
  00058	e8 00 00 00 00	 call	 ??0CBrush@@QAE@K@Z	; CBrush::CBrush

; 753  : 	CPen* pOldPen = pDC->SelectObject(&pen);

  0005d	8b 75 e0	 mov	 esi, DWORD PTR _pDC$GSCopy$1$[ebp]
  00060	8d 45 d0	 lea	 eax, DWORD PTR _pen$[ebp]
  00063	50		 push	 eax
  00064	8b ce		 mov	 ecx, esi
  00066	c6 45 fc 01	 mov	 BYTE PTR __$EHRec$[ebp+8], 1
  0006a	e8 00 00 00 00	 call	 ?SelectObject@CDC@@QAEPAVCPen@@PAV2@@Z ; CDC::SelectObject
  0006f	8b f8		 mov	 edi, eax

; 754  : 	CBrush* pOldBrush = pDC->SelectObject(&brush);

  00071	8b ce		 mov	 ecx, esi
  00073	8d 45 d8	 lea	 eax, DWORD PTR _brush$[ebp]
  00076	50		 push	 eax
  00077	e8 00 00 00 00	 call	 ?SelectObject@CDC@@QAEPAVCBrush@@PAV2@@Z ; CDC::SelectObject

; 755  : 
; 756  : 	// 1. 2     .
; 757  : 	rect1.bottom += 1; 

  0007c	8b 4d 18	 mov	 ecx, DWORD PTR _rect1$[ebp+12]
  0007f	41		 inc	 ecx
  00080	89 45 e0	 mov	 DWORD PTR _pOldBrush$1$[ebp], eax
  00083	89 4d 18	 mov	 DWORD PTR _rect1$[ebp+12], ecx

; 758  : 	DrawRect( pDC, rect1 );

  00086	41		 inc	 ecx
  00087	0f 10 45 0c	 movups	 xmm0, XMMWORD PTR _rect1$[ebp]
; File C:\Program Files (x86)\Microsoft Visual Studio\2019\Community\VC\Tools\MSVC\14.29.30133\atlmfc\include\afxwin1.inl

; 541  : 	{ ASSERT(m_hDC != NULL); return ::Rectangle(m_hDC, lpRect->left, lpRect->top,

  0008b	51		 push	 ecx
; File D:\git\src\IBK\IBK_DRFN\ProjSrc\SrcChartEx\ChartAddIn\ChartEnvSetupDlgAddIn\ChartEnvSetupDlgAddIn\StyleDataManager.cpp

; 758  : 	DrawRect( pDC, rect1 );

  0008c	0f 11 45 e4	 movups	 XMMWORD PTR _rect$[ebp], xmm0
; File C:\Program Files (x86)\Microsoft Visual Studio\2019\Community\VC\Tools\MSVC\14.29.30133\atlmfc\include\afxwin1.inl

; 541  : 	{ ASSERT(m_hDC != NULL); return ::Rectangle(m_hDC, lpRect->left, lpRect->top,

  00090	ff 75 ec	 push	 DWORD PTR _rect$[ebp+8]
  00093	ff 75 e8	 push	 DWORD PTR _rect$[ebp+4]
  00096	ff 75 e4	 push	 DWORD PTR _rect$[ebp]
  00099	ff 76 04	 push	 DWORD PTR [esi+4]
  0009c	ff 15 00 00 00
	00		 call	 DWORD PTR __imp__Rectangle@20
; File D:\git\src\IBK\IBK_DRFN\ProjSrc\SrcChartEx\ChartAddIn\ChartEnvSetupDlgAddIn\ChartEnvSetupDlgAddIn\StyleDataManager.cpp

; 760  : 	if( CChartInfo::FX != p_eChartMode)

  000a2	83 7d 30 02	 cmp	 DWORD PTR _p_eChartMode$[ebp], 2
  000a6	74 25		 je	 SHORT $LN2@DrawGraph

; 761  : 		DrawRect( pDC, rect2 );

  000a8	0f 10 45 1c	 movups	 xmm0, XMMWORD PTR _rect2$[ebp]
  000ac	0f 11 45 e4	 movups	 XMMWORD PTR _rect$[ebp], xmm0

; 1234 : 	rect.bottom += 1;

  000b0	66 0f 73 d8 0c	 psrldq	 xmm0, 12		; 0000000cH
  000b5	66 0f 7e c0	 movd	 eax, xmm0
  000b9	40		 inc	 eax
; File C:\Program Files (x86)\Microsoft Visual Studio\2019\Community\VC\Tools\MSVC\14.29.30133\atlmfc\include\afxwin1.inl

; 541  : 	{ ASSERT(m_hDC != NULL); return ::Rectangle(m_hDC, lpRect->left, lpRect->top,

  000ba	50		 push	 eax
  000bb	ff 75 ec	 push	 DWORD PTR _rect$[ebp+8]
  000be	ff 75 e8	 push	 DWORD PTR _rect$[ebp+4]
  000c1	ff 75 e4	 push	 DWORD PTR _rect$[ebp]
  000c4	ff 76 04	 push	 DWORD PTR [esi+4]
  000c7	ff 15 00 00 00
	00		 call	 DWORD PTR __imp__Rectangle@20
$LN2@DrawGraph:
; File D:\git\src\IBK\IBK_DRFN\ProjSrc\SrcChartEx\ChartAddIn\ChartEnvSetupDlgAddIn\ChartEnvSetupDlgAddIn\StyleDataManager.cpp

; 763  : 	pDC->SelectObject( pOldPen );

  000cd	57		 push	 edi
  000ce	8b ce		 mov	 ecx, esi
  000d0	e8 00 00 00 00	 call	 ?SelectObject@CDC@@QAEPAVCPen@@PAV2@@Z ; CDC::SelectObject

; 764  : 	pDC->SelectObject( pOldBrush );

  000d5	ff 75 e0	 push	 DWORD PTR _pOldBrush$1$[ebp]
  000d8	8b ce		 mov	 ecx, esi
  000da	e8 00 00 00 00	 call	 ?SelectObject@CDC@@QAEPAVCBrush@@PAV2@@Z ; CDC::SelectObject

; 765  : 	pen.DeleteObject();

  000df	8d 4d d0	 lea	 ecx, DWORD PTR _pen$[ebp]
  000e2	e8 00 00 00 00	 call	 ?DeleteObject@CGdiObject@@QAEHXZ ; CGdiObject::DeleteObject

; 766  : 	brush.DeleteObject();

  000e7	8d 4d d8	 lea	 ecx, DWORD PTR _brush$[ebp]
  000ea	e8 00 00 00 00	 call	 ?DeleteObject@CGdiObject@@QAEHXZ ; CGdiObject::DeleteObject
; File C:\Program Files (x86)\Microsoft Visual Studio\2019\Community\VC\Tools\MSVC\14.29.30133\atlmfc\include\afxwin1.inl

; 130  : 	{ }

  000ef	8d 4d d8	 lea	 ecx, DWORD PTR _brush$[ebp]
  000f2	c7 45 d8 00 00
	00 00		 mov	 DWORD PTR _brush$[ebp], OFFSET ??_7CBrush@@6B@
  000f9	e8 00 00 00 00	 call	 ??1CGdiObject@@UAE@XZ	; CGdiObject::~CGdiObject

; 106  : 	{ }

  000fe	8d 4d d0	 lea	 ecx, DWORD PTR _pen$[ebp]
  00101	c7 45 d0 00 00
	00 00		 mov	 DWORD PTR _pen$[ebp], OFFSET ??_7CPen@@6B@
  00108	e8 00 00 00 00	 call	 ??1CGdiObject@@UAE@XZ	; CGdiObject::~CGdiObject
; File D:\git\src\IBK\IBK_DRFN\ProjSrc\SrcChartEx\ChartAddIn\ChartEnvSetupDlgAddIn\ChartEnvSetupDlgAddIn\StyleDataManager.cpp

; 767  : }

  0010d	8b 4d f4	 mov	 ecx, DWORD PTR __$EHRec$[ebp]
  00110	64 89 0d 00 00
	00 00		 mov	 DWORD PTR fs:0, ecx
  00117	59		 pop	 ecx
  00118	5f		 pop	 edi
  00119	5e		 pop	 esi
  0011a	8b e5		 mov	 esp, ebp
  0011c	5d		 pop	 ebp
  0011d	c2 2c 00	 ret	 44			; 0000002cH
_TEXT	ENDS
;	COMDAT text$x
text$x	SEGMENT
__unwindfunclet$?DrawGraph@CStyleDataManager@@QAEXPAVCDC@@VCRect@@1PAVCStyleData@@W4CHART_MODE@CChartInfo@@@Z$0:
  00000	8d 4d d0	 lea	 ecx, DWORD PTR _pen$[ebp]
  00003	e9 00 00 00 00	 jmp	 ??1CPen@@UAE@XZ		; CPen::~CPen
__unwindfunclet$?DrawGraph@CStyleDataManager@@QAEXPAVCDC@@VCRect@@1PAVCStyleData@@W4CHART_MODE@CChartInfo@@@Z$1:
  00008	8d 4d d8	 lea	 ecx, DWORD PTR _brush$[ebp]
  0000b	e9 00 00 00 00	 jmp	 ??1CBrush@@UAE@XZ	; CBrush::~CBrush
  00010	cc		 int	 3
  00011	cc		 int	 3
  00012	cc		 int	 3
  00013	cc		 int	 3
  00014	cc		 int	 3
__ehhandler$?DrawGraph@CStyleDataManager@@QAEXPAVCDC@@VCRect@@1PAVCStyleData@@W4CHART_MODE@CChartInfo@@@Z:
  00015	90		 npad	 1
  00016	90		 npad	 1
  00017	8b 54 24 08	 mov	 edx, DWORD PTR [esp+8]
  0001b	8d 42 0c	 lea	 eax, DWORD PTR [edx+12]
  0001e	8b 4a d0	 mov	 ecx, DWORD PTR [edx-48]
  00021	33 c8		 xor	 ecx, eax
  00023	e8 00 00 00 00	 call	 @__security_check_cookie@4
  00028	b8 00 00 00 00	 mov	 eax, OFFSET __ehfuncinfo$?DrawGraph@CStyleDataManager@@QAEXPAVCDC@@VCRect@@1PAVCStyleData@@W4CHART_MODE@CChartInfo@@@Z
  0002d	e9 00 00 00 00	 jmp	 ___CxxFrameHandler3
text$x	ENDS
?DrawGraph@CStyleDataManager@@QAEXPAVCDC@@VCRect@@1PAVCStyleData@@W4CHART_MODE@CChartInfo@@@Z ENDP ; CStyleDataManager::DrawGraph
; Function compile flags: /Ogtp
; File D:\git\src\IBK\IBK_DRFN\ProjSrc\SrcChartEx\ChartAddIn\ChartEnvSetupDlgAddIn\ChartEnvSetupDlgAddIn\StyleDataManager.cpp
; File C:\Program Files (x86)\Microsoft Visual Studio\2019\Community\VC\Tools\MSVC\14.29.30133\atlmfc\include\afxwin1.inl
; File D:\git\src\IBK\IBK_DRFN\ProjSrc\SrcChartEx\ChartAddIn\ChartEnvSetupDlgAddIn\ChartEnvSetupDlgAddIn\StyleDataManager.cpp
; File C:\Program Files (x86)\Microsoft Visual Studio\2019\Community\VC\Tools\MSVC\14.29.30133\atlmfc\include\afxwin1.inl
; File D:\git\src\IBK\IBK_DRFN\ProjSrc\SrcChartEx\ChartAddIn\ChartEnvSetupDlgAddIn\ChartEnvSetupDlgAddIn\StyleDataManager.cpp
; File C:\Program Files (x86)\Microsoft Visual Studio\2019\Community\VC\Tools\MSVC\14.29.30133\atlmfc\include\afxwin1.inl
; File D:\git\src\IBK\IBK_DRFN\ProjSrc\SrcChartEx\ChartAddIn\ChartEnvSetupDlgAddIn\ChartEnvSetupDlgAddIn\StyleDataManager.cpp
; File C:\Program Files (x86)\Microsoft Visual Studio\2019\Community\VC\Tools\MSVC\14.29.30133\atlmfc\include\afxwin1.inl
; File D:\git\src\IBK\IBK_DRFN\ProjSrc\SrcChartEx\ChartAddIn\ChartEnvSetupDlgAddIn\ChartEnvSetupDlgAddIn\StyleDataManager.cpp
; File C:\Program Files (x86)\Microsoft Visual Studio\2019\Community\VC\Tools\MSVC\14.29.30133\atlmfc\include\afxwin1.inl
; File D:\git\src\IBK\IBK_DRFN\ProjSrc\SrcChartEx\ChartAddIn\ChartEnvSetupDlgAddIn\ChartEnvSetupDlgAddIn\StyleDataManager.cpp
; File C:\Program Files (x86)\Microsoft Visual Studio\2019\Community\VC\Tools\MSVC\14.29.30133\atlmfc\include\atlsimpstr.h
; File C:\Program Files (x86)\Microsoft Visual Studio\2019\Community\VC\Tools\MSVC\14.29.30133\atlmfc\include\afxwin1.inl
; File D:\git\src\IBK\IBK_DRFN\ProjSrc\SrcChartEx\ChartAddIn\ChartEnvSetupDlgAddIn\ChartEnvSetupDlgAddIn\StyleDataManager.cpp
; File C:\Program Files (x86)\Microsoft Visual Studio\2019\Community\VC\Tools\MSVC\14.29.30133\atlmfc\include\afxwin1.inl
; File D:\git\src\IBK\IBK_DRFN\ProjSrc\SrcChartEx\ChartAddIn\ChartEnvSetupDlgAddIn\ChartEnvSetupDlgAddIn\StyleDataManager.cpp
; File C:\Program Files (x86)\Microsoft Visual Studio\2019\Community\VC\Tools\MSVC\14.29.30133\atlmfc\include\afxwin1.inl
; File D:\git\src\IBK\IBK_DRFN\ProjSrc\SrcChartEx\ChartAddIn\ChartEnvSetupDlgAddIn\ChartEnvSetupDlgAddIn\StyleDataManager.cpp
; File C:\Program Files (x86)\Microsoft Visual Studio\2019\Community\VC\Tools\MSVC\14.29.30133\atlmfc\include\afxwin1.inl
; File D:\git\src\IBK\IBK_DRFN\ProjSrc\SrcChartEx\ChartAddIn\ChartEnvSetupDlgAddIn\ChartEnvSetupDlgAddIn\StyleDataManager.cpp
; File C:\Program Files (x86)\Microsoft Visual Studio\2019\Community\VC\Tools\MSVC\14.29.30133\atlmfc\include\atlsimpstr.h
; File C:\Program Files (x86)\Microsoft Visual Studio\2019\Community\VC\Tools\MSVC\14.29.30133\atlmfc\include\afxwin1.inl
; File D:\git\src\IBK\IBK_DRFN\ProjSrc\SrcChartEx\ChartAddIn\ChartEnvSetupDlgAddIn\ChartEnvSetupDlgAddIn\StyleDataManager.cpp
; File C:\Program Files (x86)\Microsoft Visual Studio\2019\Community\VC\Tools\MSVC\14.29.30133\atlmfc\include\afxwin1.inl
; File D:\git\src\IBK\IBK_DRFN\ProjSrc\SrcChartEx\ChartAddIn\ChartEnvSetupDlgAddIn\ChartEnvSetupDlgAddIn\StyleDataManager.cpp
; File C:\Program Files (x86)\Microsoft Visual Studio\2019\Community\VC\Tools\MSVC\14.29.30133\atlmfc\include\afxwin1.inl
; File D:\git\src\IBK\IBK_DRFN\ProjSrc\SrcChartEx\ChartAddIn\ChartEnvSetupDlgAddIn\ChartEnvSetupDlgAddIn\StyleDataManager.cpp
; File C:\Program Files (x86)\Microsoft Visual Studio\2019\Community\VC\Tools\MSVC\14.29.30133\atlmfc\include\afxwin1.inl
; File D:\git\src\IBK\IBK_DRFN\ProjSrc\SrcChartEx\ChartAddIn\ChartEnvSetupDlgAddIn\ChartEnvSetupDlgAddIn\StyleDataManager.cpp
; File C:\Program Files (x86)\Microsoft Visual Studio\2019\Community\VC\Tools\MSVC\14.29.30133\atlmfc\include\atlsimpstr.h
; File D:\git\src\IBK\IBK_DRFN\ProjSrc\SrcChartEx\ChartAddIn\ChartEnvSetupDlgAddIn\ChartEnvSetupDlgAddIn\StyleDataManager.cpp
; File C:\Program Files (x86)\Microsoft Visual Studio\2019\Community\VC\Tools\MSVC\14.29.30133\atlmfc\include\afxwin1.inl
; File D:\git\src\IBK\IBK_DRFN\ProjSrc\SrcChartEx\ChartAddIn\ChartEnvSetupDlgAddIn\ChartEnvSetupDlgAddIn\StyleDataManager.cpp
; File C:\Program Files (x86)\Microsoft Visual Studio\2019\Community\VC\Tools\MSVC\14.29.30133\atlmfc\include\afxwin1.inl
; File D:\git\src\IBK\IBK_DRFN\ProjSrc\SrcChartEx\ChartAddIn\ChartEnvSetupDlgAddIn\ChartEnvSetupDlgAddIn\StyleDataManager.cpp
; File C:\Program Files (x86)\Microsoft Visual Studio\2019\Community\VC\Tools\MSVC\14.29.30133\atlmfc\include\atlsimpstr.h
; File D:\git\src\IBK\IBK_DRFN\ProjSrc\SrcChartEx\ChartAddIn\ChartEnvSetupDlgAddIn\ChartEnvSetupDlgAddIn\StyleDataManager.cpp
; File C:\Program Files (x86)\Microsoft Visual Studio\2019\Community\VC\Tools\MSVC\14.29.30133\atlmfc\include\afxwin1.inl
; File D:\git\src\IBK\IBK_DRFN\ProjSrc\SrcChartEx\ChartAddIn\ChartEnvSetupDlgAddIn\ChartEnvSetupDlgAddIn\StyleDataManager.cpp
; File C:\Program Files (x86)\Microsoft Visual Studio\2019\Community\VC\Tools\MSVC\14.29.30133\atlmfc\include\afxwin1.inl
; File D:\git\src\IBK\IBK_DRFN\ProjSrc\SrcChartEx\ChartAddIn\ChartEnvSetupDlgAddIn\ChartEnvSetupDlgAddIn\StyleDataManager.cpp
; File C:\Program Files (x86)\Microsoft Visual Studio\2019\Community\VC\Tools\MSVC\14.29.30133\atlmfc\include\afxwin1.inl
; File D:\git\src\IBK\IBK_DRFN\ProjSrc\SrcChartEx\ChartAddIn\ChartEnvSetupDlgAddIn\ChartEnvSetupDlgAddIn\StyleDataManager.cpp
; File C:\Program Files (x86)\Microsoft Visual Studio\2019\Community\VC\Tools\MSVC\14.29.30133\atlmfc\include\atlsimpstr.h
; File D:\git\src\IBK\IBK_DRFN\ProjSrc\SrcChartEx\ChartAddIn\ChartEnvSetupDlgAddIn\ChartEnvSetupDlgAddIn\StyleDataManager.cpp
; File C:\Program Files (x86)\Microsoft Visual Studio\2019\Community\VC\Tools\MSVC\14.29.30133\atlmfc\include\afxwin1.inl
; File D:\git\src\IBK\IBK_DRFN\ProjSrc\SrcChartEx\ChartAddIn\ChartEnvSetupDlgAddIn\ChartEnvSetupDlgAddIn\StyleDataManager.cpp
; File C:\Program Files (x86)\Microsoft Visual Studio\2019\Community\VC\Tools\MSVC\14.29.30133\atlmfc\include\afxwin1.inl
; File D:\git\src\IBK\IBK_DRFN\ProjSrc\SrcChartEx\ChartAddIn\ChartEnvSetupDlgAddIn\ChartEnvSetupDlgAddIn\StyleDataManager.cpp
; File C:\Program Files (x86)\Microsoft Visual Studio\2019\Community\VC\Tools\MSVC\14.29.30133\atlmfc\include\atlsimpstr.h
; File D:\git\src\IBK\IBK_DRFN\ProjSrc\SrcChartEx\ChartAddIn\ChartEnvSetupDlgAddIn\ChartEnvSetupDlgAddIn\StyleDataManager.cpp
; File C:\Program Files (x86)\Microsoft Visual Studio\2019\Community\VC\Tools\MSVC\14.29.30133\atlmfc\include\afxwin1.inl
; File D:\git\src\IBK\IBK_DRFN\ProjSrc\SrcChartEx\ChartAddIn\ChartEnvSetupDlgAddIn\ChartEnvSetupDlgAddIn\StyleDataManager.cpp
; File C:\Program Files (x86)\Microsoft Visual Studio\2019\Community\VC\Tools\MSVC\14.29.30133\atlmfc\include\afxwin1.inl
; File D:\git\src\IBK\IBK_DRFN\ProjSrc\SrcChartEx\ChartAddIn\ChartEnvSetupDlgAddIn\ChartEnvSetupDlgAddIn\StyleDataManager.cpp
; File C:\Program Files (x86)\Microsoft Visual Studio\2019\Community\VC\Tools\MSVC\14.29.30133\atlmfc\include\atlsimpstr.h
; File C:\Program Files (x86)\Microsoft Visual Studio\2019\Community\VC\Tools\MSVC\14.29.30133\atlmfc\include\afxwin1.inl
; File D:\git\src\IBK\IBK_DRFN\ProjSrc\SrcChartEx\ChartAddIn\ChartEnvSetupDlgAddIn\ChartEnvSetupDlgAddIn\StyleDataManager.cpp
; File C:\Program Files (x86)\Microsoft Visual Studio\2019\Community\VC\Tools\MSVC\14.29.30133\atlmfc\include\afxwin1.inl
; File D:\git\src\IBK\IBK_DRFN\ProjSrc\SrcChartEx\ChartAddIn\ChartEnvSetupDlgAddIn\ChartEnvSetupDlgAddIn\StyleDataManager.cpp
; File C:\Program Files (x86)\Microsoft Visual Studio\2019\Community\VC\Tools\MSVC\14.29.30133\atlmfc\include\afxwin1.inl
; File D:\git\src\IBK\IBK_DRFN\ProjSrc\SrcChartEx\ChartAddIn\ChartEnvSetupDlgAddIn\ChartEnvSetupDlgAddIn\StyleDataManager.cpp
; File C:\Program Files (x86)\Microsoft Visual Studio\2019\Community\VC\Tools\MSVC\14.29.30133\atlmfc\include\afxwin1.inl
; File D:\git\src\IBK\IBK_DRFN\ProjSrc\SrcChartEx\ChartAddIn\ChartEnvSetupDlgAddIn\ChartEnvSetupDlgAddIn\StyleDataManager.cpp
; File C:\Program Files (x86)\Microsoft Visual Studio\2019\Community\VC\Tools\MSVC\14.29.30133\atlmfc\include\afxwin1.inl
; File D:\git\src\IBK\IBK_DRFN\ProjSrc\SrcChartEx\ChartAddIn\ChartEnvSetupDlgAddIn\ChartEnvSetupDlgAddIn\StyleDataManager.cpp
; File C:\Program Files (x86)\Microsoft Visual Studio\2019\Community\VC\Tools\MSVC\14.29.30133\atlmfc\include\atlsimpstr.h
; File C:\Program Files (x86)\Microsoft Visual Studio\2019\Community\VC\Tools\MSVC\14.29.30133\atlmfc\include\afxwin1.inl
; File D:\git\src\IBK\IBK_DRFN\ProjSrc\SrcChartEx\ChartAddIn\ChartEnvSetupDlgAddIn\ChartEnvSetupDlgAddIn\StyleDataManager.cpp
; File C:\Program Files (x86)\Microsoft Visual Studio\2019\Community\VC\Tools\MSVC\14.29.30133\atlmfc\include\afxwin1.inl
; File D:\git\src\IBK\IBK_DRFN\ProjSrc\SrcChartEx\ChartAddIn\ChartEnvSetupDlgAddIn\ChartEnvSetupDlgAddIn\StyleDataManager.cpp
; File C:\Program Files (x86)\Microsoft Visual Studio\2019\Community\VC\Tools\MSVC\14.29.30133\atlmfc\include\afxwin1.inl
; File D:\git\src\IBK\IBK_DRFN\ProjSrc\SrcChartEx\ChartAddIn\ChartEnvSetupDlgAddIn\ChartEnvSetupDlgAddIn\StyleDataManager.cpp
; File C:\Program Files (x86)\Microsoft Visual Studio\2019\Community\VC\Tools\MSVC\14.29.30133\atlmfc\include\afxwin1.inl
; File D:\git\src\IBK\IBK_DRFN\ProjSrc\SrcChartEx\ChartAddIn\ChartEnvSetupDlgAddIn\ChartEnvSetupDlgAddIn\StyleDataManager.cpp
; File C:\Program Files (x86)\Microsoft Visual Studio\2019\Community\VC\Tools\MSVC\14.29.30133\atlmfc\include\afxwin1.inl
; File D:\git\src\IBK\IBK_DRFN\ProjSrc\SrcChartEx\ChartAddIn\ChartEnvSetupDlgAddIn\ChartEnvSetupDlgAddIn\StyleDataManager.cpp
; File C:\Program Files (x86)\Microsoft Visual Studio\2019\Community\VC\Tools\MSVC\14.29.30133\atlmfc\include\atlsimpstr.h
; File C:\Program Files (x86)\Microsoft Visual Studio\2019\Community\VC\Tools\MSVC\14.29.30133\atlmfc\include\afxwin1.inl
; File D:\git\src\IBK\IBK_DRFN\ProjSrc\SrcChartEx\ChartAddIn\ChartEnvSetupDlgAddIn\ChartEnvSetupDlgAddIn\StyleDataManager.cpp
; File C:\Program Files (x86)\Microsoft Visual Studio\2019\Community\VC\Tools\MSVC\14.29.30133\atlmfc\include\afxwin1.inl
; File D:\git\src\IBK\IBK_DRFN\ProjSrc\SrcChartEx\ChartAddIn\ChartEnvSetupDlgAddIn\ChartEnvSetupDlgAddIn\StyleDataManager.cpp
; File C:\Program Files (x86)\Microsoft Visual Studio\2019\Community\VC\Tools\MSVC\14.29.30133\atlmfc\include\afxwin1.inl
; File D:\git\src\IBK\IBK_DRFN\ProjSrc\SrcChartEx\ChartAddIn\ChartEnvSetupDlgAddIn\ChartEnvSetupDlgAddIn\StyleDataManager.cpp
; File C:\Program Files (x86)\Microsoft Visual Studio\2019\Community\VC\Tools\MSVC\14.29.30133\atlmfc\include\afxwin1.inl
; File D:\git\src\IBK\IBK_DRFN\ProjSrc\SrcChartEx\ChartAddIn\ChartEnvSetupDlgAddIn\ChartEnvSetupDlgAddIn\StyleDataManager.cpp
; File C:\Program Files (x86)\Microsoft Visual Studio\2019\Community\VC\Tools\MSVC\14.29.30133\atlmfc\include\afxwin1.inl
; File D:\git\src\IBK\IBK_DRFN\ProjSrc\SrcChartEx\ChartAddIn\ChartEnvSetupDlgAddIn\ChartEnvSetupDlgAddIn\StyleDataManager.cpp
; File C:\Program Files (x86)\Microsoft Visual Studio\2019\Community\VC\Tools\MSVC\14.29.30133\atlmfc\include\atlsimpstr.h
; File C:\Program Files (x86)\Microsoft Visual Studio\2019\Community\VC\Tools\MSVC\14.29.30133\atlmfc\include\afxwin1.inl
; File D:\git\src\IBK\IBK_DRFN\ProjSrc\SrcChartEx\ChartAddIn\ChartEnvSetupDlgAddIn\ChartEnvSetupDlgAddIn\StyleDataManager.cpp
; File C:\Program Files (x86)\Microsoft Visual Studio\2019\Community\VC\Tools\MSVC\14.29.30133\atlmfc\include\afxwin1.inl
; File D:\git\src\IBK\IBK_DRFN\ProjSrc\SrcChartEx\ChartAddIn\ChartEnvSetupDlgAddIn\ChartEnvSetupDlgAddIn\StyleDataManager.cpp
; File C:\Program Files (x86)\Microsoft Visual Studio\2019\Community\VC\Tools\MSVC\14.29.30133\atlmfc\include\afxwin1.inl
; File D:\git\src\IBK\IBK_DRFN\ProjSrc\SrcChartEx\ChartAddIn\ChartEnvSetupDlgAddIn\ChartEnvSetupDlgAddIn\StyleDataManager.cpp
; File C:\Program Files (x86)\Microsoft Visual Studio\2019\Community\VC\Tools\MSVC\14.29.30133\atlmfc\include\afxwin1.inl
; File D:\git\src\IBK\IBK_DRFN\ProjSrc\SrcChartEx\ChartAddIn\ChartEnvSetupDlgAddIn\ChartEnvSetupDlgAddIn\StyleDataManager.cpp
; File C:\Program Files (x86)\Microsoft Visual Studio\2019\Community\VC\Tools\MSVC\14.29.30133\atlmfc\include\atlsimpstr.h
; File C:\Program Files (x86)\Microsoft Visual Studio\2019\Community\VC\Tools\MSVC\14.29.30133\atlmfc\include\afxwin1.inl
; File D:\git\src\IBK\IBK_DRFN\ProjSrc\SrcChartEx\ChartAddIn\ChartEnvSetupDlgAddIn\ChartEnvSetupDlgAddIn\StyleDataManager.cpp
; File C:\Program Files (x86)\Microsoft Visual Studio\2019\Community\VC\Tools\MSVC\14.29.30133\atlmfc\include\afxwin1.inl
; File D:\git\src\IBK\IBK_DRFN\ProjSrc\SrcChartEx\ChartAddIn\ChartEnvSetupDlgAddIn\ChartEnvSetupDlgAddIn\StyleDataManager.cpp
; File C:\Program Files (x86)\Microsoft Visual Studio\2019\Community\VC\Tools\MSVC\14.29.30133\atlmfc\include\afxwin1.inl
; File D:\git\src\IBK\IBK_DRFN\ProjSrc\SrcChartEx\ChartAddIn\ChartEnvSetupDlgAddIn\ChartEnvSetupDlgAddIn\StyleDataManager.cpp
; File C:\Program Files (x86)\Microsoft Visual Studio\2019\Community\VC\Tools\MSVC\14.29.30133\atlmfc\include\afxwin1.inl
; File D:\git\src\IBK\IBK_DRFN\ProjSrc\SrcChartEx\ChartAddIn\ChartEnvSetupDlgAddIn\ChartEnvSetupDlgAddIn\StyleDataManager.cpp
; File C:\Program Files (x86)\Microsoft Visual Studio\2019\Community\VC\Tools\MSVC\14.29.30133\atlmfc\include\atlsimpstr.h
; File C:\Program Files (x86)\Microsoft Visual Studio\2019\Community\VC\Tools\MSVC\14.29.30133\atlmfc\include\afxwin1.inl
; File D:\git\src\IBK\IBK_DRFN\ProjSrc\SrcChartEx\ChartAddIn\ChartEnvSetupDlgAddIn\ChartEnvSetupDlgAddIn\StyleDataManager.cpp
; File C:\Program Files (x86)\Microsoft Visual Studio\2019\Community\VC\Tools\MSVC\14.29.30133\atlmfc\include\afxwin1.inl
; File D:\git\src\IBK\IBK_DRFN\ProjSrc\SrcChartEx\ChartAddIn\ChartEnvSetupDlgAddIn\ChartEnvSetupDlgAddIn\StyleDataManager.cpp
; File C:\Program Files (x86)\Microsoft Visual Studio\2019\Community\VC\Tools\MSVC\14.29.30133\atlmfc\include\afxwin1.inl
; File D:\git\src\IBK\IBK_DRFN\ProjSrc\SrcChartEx\ChartAddIn\ChartEnvSetupDlgAddIn\ChartEnvSetupDlgAddIn\StyleDataManager.cpp
; File C:\Program Files (x86)\Microsoft Visual Studio\2019\Community\VC\Tools\MSVC\14.29.30133\atlmfc\include\afxwin1.inl
; File D:\git\src\IBK\IBK_DRFN\ProjSrc\SrcChartEx\ChartAddIn\ChartEnvSetupDlgAddIn\ChartEnvSetupDlgAddIn\StyleDataManager.cpp
; File C:\Program Files (x86)\Microsoft Visual Studio\2019\Community\VC\Tools\MSVC\14.29.30133\atlmfc\include\atlsimpstr.h
; File D:\git\src\IBK\IBK_DRFN\ProjSrc\SrcChartEx\ChartAddIn\ChartEnvSetupDlgAddIn\ChartEnvSetupDlgAddIn\StyleDataManager.cpp
; File C:\Program Files (x86)\Microsoft Visual Studio\2019\Community\VC\Tools\MSVC\14.29.30133\atlmfc\include\afxwin1.inl
; File D:\git\src\IBK\IBK_DRFN\ProjSrc\SrcChartEx\ChartAddIn\ChartEnvSetupDlgAddIn\ChartEnvSetupDlgAddIn\StyleDataManager.cpp
; File C:\Program Files (x86)\Microsoft Visual Studio\2019\Community\VC\Tools\MSVC\14.29.30133\atlmfc\include\afxwin1.inl
; File D:\git\src\IBK\IBK_DRFN\ProjSrc\SrcChartEx\ChartAddIn\ChartEnvSetupDlgAddIn\ChartEnvSetupDlgAddIn\StyleDataManager.cpp
; File C:\Program Files (x86)\Microsoft Visual Studio\2019\Community\VC\Tools\MSVC\14.29.30133\atlmfc\include\afxwin1.inl
; File D:\git\src\IBK\IBK_DRFN\ProjSrc\SrcChartEx\ChartAddIn\ChartEnvSetupDlgAddIn\ChartEnvSetupDlgAddIn\StyleDataManager.cpp
;	COMDAT ?DrawScale@CStyleDataManager@@QAEXPAVCDC@@VCRect@@11PAVCStyleData@@PAVCFont@@W4CHART_MODE@CChartInfo@@N@Z
_TEXT	SEGMENT
_nOldMode$1$ = -72					; size = 4
_ordColor$1$ = -68					; size = 4
_pen$ = -64						; size = 8
_brush$ = -56						; size = 8
$T2 = -48						; size = 4
tv931 = -44						; size = 4
_textColor$1$ = -44					; size = 4
_p_pTitleFont$GSCopy$1$ = -40				; size = 4
tv930 = -40						; size = 4
tv929 = -36						; size = 4
_bgColor$1$ = -36					; size = 4
_pDC$GSCopy$1$ = -32					; size = 4
$T3 = -32						; size = 4
$T4 = -32						; size = 4
$T5 = -32						; size = 4
$T6 = -32						; size = 4
$T7 = -32						; size = 4
$T8 = -32						; size = 4
$T9 = -32						; size = 4
$T10 = -32						; size = 4
$T11 = -32						; size = 4
$T12 = -32						; size = 4
$T13 = -32						; size = 4
$T14 = -32						; size = 4
_rect$ = -28						; size = 16
__$EHRec$ = -12						; size = 12
_pDC$ = 8						; size = 4
_rect1$ = 12						; size = 16
_rect2$ = 28						; size = 16
_rect3$ = 44						; size = 16
_p_pStyleData$ = 60					; size = 4
_p_pTitleFont$ = 64					; size = 4
_p_eChartMode$ = 68					; size = 4
_p_dFactor$ = 72					; size = 8
?DrawScale@CStyleDataManager@@QAEXPAVCDC@@VCRect@@11PAVCStyleData@@PAVCFont@@W4CHART_MODE@CChartInfo@@N@Z PROC ; CStyleDataManager::DrawScale, COMDAT
; _this$ = ecx

; 682  : {

  00000	55		 push	 ebp
  00001	8b ec		 mov	 ebp, esp
  00003	6a ff		 push	 -1
  00005	68 00 00 00 00	 push	 __ehhandler$?DrawScale@CStyleDataManager@@QAEXPAVCDC@@VCRect@@11PAVCStyleData@@PAVCFont@@W4CHART_MODE@CChartInfo@@N@Z
  0000a	64 a1 00 00 00
	00		 mov	 eax, DWORD PTR fs:0
  00010	50		 push	 eax
  00011	83 ec 3c	 sub	 esp, 60			; 0000003cH
  00014	56		 push	 esi
  00015	57		 push	 edi
  00016	a1 00 00 00 00	 mov	 eax, DWORD PTR ___security_cookie
  0001b	33 c5		 xor	 eax, ebp
  0001d	50		 push	 eax
  0001e	8d 45 f4	 lea	 eax, DWORD PTR __$EHRec$[ebp]
  00021	64 a3 00 00 00
	00		 mov	 DWORD PTR fs:0, eax
  00027	8b 45 08	 mov	 eax, DWORD PTR _pDC$[ebp]
  0002a	8b 7d 3c	 mov	 edi, DWORD PTR _p_pStyleData$[ebp]

; 683  : 	COLORREF bgColor		= p_pStyleData->GetScaleBGColor();

  0002d	8b cf		 mov	 ecx, edi
  0002f	89 45 e0	 mov	 DWORD PTR _pDC$GSCopy$1$[ebp], eax
  00032	8b 45 40	 mov	 eax, DWORD PTR _p_pTitleFont$[ebp]
  00035	89 45 d8	 mov	 DWORD PTR _p_pTitleFont$GSCopy$1$[ebp], eax
  00038	e8 00 00 00 00	 call	 ?GetScaleBGColor@CStyleData@@QBEKXZ ; CStyleData::GetScaleBGColor

; 684  : 	COLORREF borderColor	= p_pStyleData->GetScaleBorderColor();

  0003d	8b cf		 mov	 ecx, edi
  0003f	89 45 dc	 mov	 DWORD PTR _bgColor$1$[ebp], eax
  00042	e8 00 00 00 00	 call	 ?GetScaleBorderColor@CStyleData@@QBEKXZ ; CStyleData::GetScaleBorderColor

; 685  : 	COLORREF textColor		= p_pStyleData->GetScaleTextColor();

  00047	8b cf		 mov	 ecx, edi
  00049	8b f0		 mov	 esi, eax
  0004b	e8 00 00 00 00	 call	 ?GetScaleTextColor@CStyleData@@QBEKXZ ; CStyleData::GetScaleTextColor

; 686  : 
; 687  : 	CPen pen( PS_SOLID, 1, borderColor );

  00050	56		 push	 esi
  00051	6a 01		 push	 1
  00053	6a 00		 push	 0
  00055	8d 4d c0	 lea	 ecx, DWORD PTR _pen$[ebp]
  00058	89 45 d4	 mov	 DWORD PTR _textColor$1$[ebp], eax
  0005b	e8 00 00 00 00	 call	 ??0CPen@@QAE@HHK@Z	; CPen::CPen

; 688  : 	CBrush brush( bgColor );

  00060	ff 75 dc	 push	 DWORD PTR _bgColor$1$[ebp]
  00063	8d 4d c8	 lea	 ecx, DWORD PTR _brush$[ebp]
  00066	c7 45 fc 00 00
	00 00		 mov	 DWORD PTR __$EHRec$[ebp+8], 0
  0006d	e8 00 00 00 00	 call	 ??0CBrush@@QAE@K@Z	; CBrush::CBrush

; 689  : 	CPen* pOldPen = pDC->SelectObject(&pen);

  00072	8b 4d e0	 mov	 ecx, DWORD PTR _pDC$GSCopy$1$[ebp]
  00075	8d 45 c0	 lea	 eax, DWORD PTR _pen$[ebp]
  00078	50		 push	 eax
  00079	c6 45 fc 01	 mov	 BYTE PTR __$EHRec$[ebp+8], 1
  0007d	e8 00 00 00 00	 call	 ?SelectObject@CDC@@QAEPAVCPen@@PAV2@@Z ; CDC::SelectObject

; 690  : 	CBrush* pOldBrush = pDC->SelectObject(&brush);

  00082	8b 4d e0	 mov	 ecx, DWORD PTR _pDC$GSCopy$1$[ebp]
  00085	8b f8		 mov	 edi, eax
  00087	8d 45 c8	 lea	 eax, DWORD PTR _brush$[ebp]
  0008a	50		 push	 eax
  0008b	e8 00 00 00 00	 call	 ?SelectObject@CDC@@QAEPAVCBrush@@PAV2@@Z ; CDC::SelectObject

; 692  : 	DrawRect(pDC, rect1);

  00090	0f 10 45 0c	 movups	 xmm0, XMMWORD PTR _rect1$[ebp]
  00094	8b f0		 mov	 esi, eax
; File C:\Program Files (x86)\Microsoft Visual Studio\2019\Community\VC\Tools\MSVC\14.29.30133\atlmfc\include\afxwin1.inl

; 541  : 	{ ASSERT(m_hDC != NULL); return ::Rectangle(m_hDC, lpRect->left, lpRect->top,

  00096	8b 45 e0	 mov	 eax, DWORD PTR _pDC$GSCopy$1$[ebp]
; File D:\git\src\IBK\IBK_DRFN\ProjSrc\SrcChartEx\ChartAddIn\ChartEnvSetupDlgAddIn\ChartEnvSetupDlgAddIn\StyleDataManager.cpp

; 692  : 	DrawRect(pDC, rect1);

  00099	0f 11 45 e4	 movups	 XMMWORD PTR _rect$[ebp], xmm0

; 1234 : 	rect.bottom += 1;

  0009d	66 0f 73 d8 0c	 psrldq	 xmm0, 12		; 0000000cH
  000a2	66 0f 7e c1	 movd	 ecx, xmm0
  000a6	41		 inc	 ecx
; File C:\Program Files (x86)\Microsoft Visual Studio\2019\Community\VC\Tools\MSVC\14.29.30133\atlmfc\include\afxwin1.inl

; 541  : 	{ ASSERT(m_hDC != NULL); return ::Rectangle(m_hDC, lpRect->left, lpRect->top,

  000a7	51		 push	 ecx
  000a8	ff 75 ec	 push	 DWORD PTR _rect$[ebp+8]
  000ab	ff 75 e8	 push	 DWORD PTR _rect$[ebp+4]
  000ae	ff 75 e4	 push	 DWORD PTR _rect$[ebp]
  000b1	ff 70 04	 push	 DWORD PTR [eax+4]
  000b4	ff 15 00 00 00
	00		 call	 DWORD PTR __imp__Rectangle@20
; File D:\git\src\IBK\IBK_DRFN\ProjSrc\SrcChartEx\ChartAddIn\ChartEnvSetupDlgAddIn\ChartEnvSetupDlgAddIn\StyleDataManager.cpp

; 693  : 	pDC->SelectObject(pOldPen);

  000ba	57		 push	 edi
  000bb	8b 7d e0	 mov	 edi, DWORD PTR _pDC$GSCopy$1$[ebp]
  000be	8b cf		 mov	 ecx, edi
  000c0	e8 00 00 00 00	 call	 ?SelectObject@CDC@@QAEPAVCPen@@PAV2@@Z ; CDC::SelectObject

; 694  : 	pDC->SelectObject(pOldBrush);

  000c5	56		 push	 esi
  000c6	8b cf		 mov	 ecx, edi
  000c8	e8 00 00 00 00	 call	 ?SelectObject@CDC@@QAEPAVCBrush@@PAV2@@Z ; CDC::SelectObject

; 695  : 	pen.DeleteObject();

  000cd	8d 4d c0	 lea	 ecx, DWORD PTR _pen$[ebp]
  000d0	e8 00 00 00 00	 call	 ?DeleteObject@CGdiObject@@QAEHXZ ; CGdiObject::DeleteObject

; 696  : 	brush.DeleteObject();

  000d5	8d 4d c8	 lea	 ecx, DWORD PTR _brush$[ebp]
  000d8	e8 00 00 00 00	 call	 ?DeleteObject@CGdiObject@@QAEHXZ ; CGdiObject::DeleteObject
; File C:\Program Files (x86)\Microsoft Visual Studio\2019\Community\VC\Tools\MSVC\14.29.30133\atlmfc\include\afxwin1.inl

; 796  : 	{ ASSERT(m_hAttribDC != NULL); return CFont::FromHandle((HFONT)::GetCurrentObject(m_hAttribDC, OBJ_FONT)); }

  000dd	6a 06		 push	 6
  000df	ff 77 08	 push	 DWORD PTR [edi+8]
  000e2	ff 15 00 00 00
	00		 call	 DWORD PTR __imp__GetCurrentObject@8

; 151  : 	{ return (CFont*) CGdiObject::FromHandle(hFont); }

  000e8	50		 push	 eax
  000e9	e8 00 00 00 00	 call	 ?FromHandle@CGdiObject@@SGPAV1@PAX@Z ; CGdiObject::FromHandle
; File D:\git\src\IBK\IBK_DRFN\ProjSrc\SrcChartEx\ChartAddIn\ChartEnvSetupDlgAddIn\ChartEnvSetupDlgAddIn\StyleDataManager.cpp

; 699  : 	CFont *pOldFont = pDC->GetCurrentFont();

  000ee	8b f0		 mov	 esi, eax

; 700  : 	if( p_pTitleFont != NULL )

  000f0	8b 45 d8	 mov	 eax, DWORD PTR _p_pTitleFont$GSCopy$1$[ebp]
  000f3	85 c0		 test	 eax, eax
  000f5	74 08		 je	 SHORT $LN2@DrawScale

; 701  : 		pDC->SelectObject( p_pTitleFont);

  000f7	8b 17		 mov	 edx, DWORD PTR [edi]
  000f9	8b cf		 mov	 ecx, edi
  000fb	50		 push	 eax
  000fc	ff 52 30	 call	 DWORD PTR [edx+48]
$LN2@DrawScale:

; 703  : 	int nOldMode = pDC->SetBkMode(TRANSPARENT);

  000ff	6a 01		 push	 1
  00101	8b cf		 mov	 ecx, edi
  00103	e8 00 00 00 00	 call	 ?SetBkMode@CDC@@QAEHH@Z	; CDC::SetBkMode
; File C:\Program Files (x86)\Microsoft Visual Studio\2019\Community\VC\Tools\MSVC\14.29.30133\atlmfc\include\afxwin1.inl

; 384  : 	{ ASSERT(m_hAttribDC != NULL); return ::GetTextColor(m_hAttribDC); }

  00108	ff 77 08	 push	 DWORD PTR [edi+8]
; File D:\git\src\IBK\IBK_DRFN\ProjSrc\SrcChartEx\ChartAddIn\ChartEnvSetupDlgAddIn\ChartEnvSetupDlgAddIn\StyleDataManager.cpp

; 703  : 	int nOldMode = pDC->SetBkMode(TRANSPARENT);

  0010b	89 45 b8	 mov	 DWORD PTR _nOldMode$1$[ebp], eax
; File C:\Program Files (x86)\Microsoft Visual Studio\2019\Community\VC\Tools\MSVC\14.29.30133\atlmfc\include\afxwin1.inl

; 384  : 	{ ASSERT(m_hAttribDC != NULL); return ::GetTextColor(m_hAttribDC); }

  0010e	ff 15 00 00 00
	00		 call	 DWORD PTR __imp__GetTextColor@4
; File D:\git\src\IBK\IBK_DRFN\ProjSrc\SrcChartEx\ChartAddIn\ChartEnvSetupDlgAddIn\ChartEnvSetupDlgAddIn\StyleDataManager.cpp

; 705  : 	pDC->SetTextColor( textColor );

  00114	8b 17		 mov	 edx, DWORD PTR [edi]
  00116	8b cf		 mov	 ecx, edi
  00118	ff 75 d4	 push	 DWORD PTR _textColor$1$[ebp]
  0011b	89 45 bc	 mov	 DWORD PTR _ordColor$1$[ebp], eax
  0011e	ff 52 38	 call	 DWORD PTR [edx+56]

; 708  : 	pDC->TextOut( rect1.left + 2, rect1.bottom - 14, "10" );

  00121	68 00 00 00 00	 push	 OFFSET ??_C@_02PKFBJPLJ@10@
  00126	8d 4d e0	 lea	 ecx, DWORD PTR $T14[ebp]
  00129	ff 15 00 00 00
	00		 call	 DWORD PTR __imp_??0?$CStringT@DV?$StrTraitMFC_DLL@DV?$ChTraitsCRT@D@ATL@@@@@ATL@@QAE@PBD@Z
; File C:\Program Files (x86)\Microsoft Visual Studio\2019\Community\VC\Tools\MSVC\14.29.30133\atlmfc\include\atlsimpstr.h

; 519  : 		return( GetData()->nDataLength );

  0012f	8b 45 e0	 mov	 eax, DWORD PTR $T14[ebp]
; File C:\Program Files (x86)\Microsoft Visual Studio\2019\Community\VC\Tools\MSVC\14.29.30133\atlmfc\include\afxwin1.inl

; 574  : 	{ ASSERT(m_hDC != NULL); return TextOut(x, y, (LPCTSTR)str, (int)str.GetLength()); } // call virtual

  00132	8b cf		 mov	 ecx, edi
  00134	8b 17		 mov	 edx, DWORD PTR [edi]
; File D:\git\src\IBK\IBK_DRFN\ProjSrc\SrcChartEx\ChartAddIn\ChartEnvSetupDlgAddIn\ChartEnvSetupDlgAddIn\StyleDataManager.cpp

; 708  : 	pDC->TextOut( rect1.left + 2, rect1.bottom - 14, "10" );

  00136	c6 45 fc 02	 mov	 BYTE PTR __$EHRec$[ebp+8], 2
; File C:\Program Files (x86)\Microsoft Visual Studio\2019\Community\VC\Tools\MSVC\14.29.30133\atlmfc\include\afxwin1.inl

; 574  : 	{ ASSERT(m_hDC != NULL); return TextOut(x, y, (LPCTSTR)str, (int)str.GetLength()); } // call virtual

  0013a	ff 70 f4	 push	 DWORD PTR [eax-12]
  0013d	50		 push	 eax
; File D:\git\src\IBK\IBK_DRFN\ProjSrc\SrcChartEx\ChartAddIn\ChartEnvSetupDlgAddIn\ChartEnvSetupDlgAddIn\StyleDataManager.cpp

; 708  : 	pDC->TextOut( rect1.left + 2, rect1.bottom - 14, "10" );

  0013e	8b 45 18	 mov	 eax, DWORD PTR _rect1$[ebp+12]
  00141	83 c0 f2	 add	 eax, -14		; fffffff2H
; File C:\Program Files (x86)\Microsoft Visual Studio\2019\Community\VC\Tools\MSVC\14.29.30133\atlmfc\include\afxwin1.inl

; 574  : 	{ ASSERT(m_hDC != NULL); return TextOut(x, y, (LPCTSTR)str, (int)str.GetLength()); } // call virtual

  00144	50		 push	 eax
; File D:\git\src\IBK\IBK_DRFN\ProjSrc\SrcChartEx\ChartAddIn\ChartEnvSetupDlgAddIn\ChartEnvSetupDlgAddIn\StyleDataManager.cpp

; 708  : 	pDC->TextOut( rect1.left + 2, rect1.bottom - 14, "10" );

  00145	8b 45 0c	 mov	 eax, DWORD PTR _rect1$[ebp]
  00148	83 c0 02	 add	 eax, 2
; File C:\Program Files (x86)\Microsoft Visual Studio\2019\Community\VC\Tools\MSVC\14.29.30133\atlmfc\include\afxwin1.inl

; 574  : 	{ ASSERT(m_hDC != NULL); return TextOut(x, y, (LPCTSTR)str, (int)str.GetLength()); } // call virtual

  0014b	50		 push	 eax
  0014c	ff 52 64	 call	 DWORD PTR [edx+100]
; File D:\git\src\IBK\IBK_DRFN\ProjSrc\SrcChartEx\ChartAddIn\ChartEnvSetupDlgAddIn\ChartEnvSetupDlgAddIn\StyleDataManager.cpp

; 708  : 	pDC->TextOut( rect1.left + 2, rect1.bottom - 14, "10" );

  0014f	8d 4d e0	 lea	 ecx, DWORD PTR $T14[ebp]
  00152	c6 45 fc 01	 mov	 BYTE PTR __$EHRec$[ebp+8], 1
  00156	ff 15 00 00 00
	00		 call	 DWORD PTR __imp_??1?$CStringT@DV?$StrTraitMFC_DLL@DV?$ChTraitsCRT@D@ATL@@@@@ATL@@QAE@XZ

; 709  : 	pDC->TextOut( rect1.left + 73, rect1.bottom - 14, "11" );

  0015c	68 00 00 00 00	 push	 OFFSET ??_C@_02ODEKKOPI@11@
  00161	8d 4d e0	 lea	 ecx, DWORD PTR $T13[ebp]
  00164	ff 15 00 00 00
	00		 call	 DWORD PTR __imp_??0?$CStringT@DV?$StrTraitMFC_DLL@DV?$ChTraitsCRT@D@ATL@@@@@ATL@@QAE@PBD@Z
; File C:\Program Files (x86)\Microsoft Visual Studio\2019\Community\VC\Tools\MSVC\14.29.30133\atlmfc\include\atlsimpstr.h

; 519  : 		return( GetData()->nDataLength );

  0016a	8b 45 e0	 mov	 eax, DWORD PTR $T13[ebp]
; File C:\Program Files (x86)\Microsoft Visual Studio\2019\Community\VC\Tools\MSVC\14.29.30133\atlmfc\include\afxwin1.inl

; 574  : 	{ ASSERT(m_hDC != NULL); return TextOut(x, y, (LPCTSTR)str, (int)str.GetLength()); } // call virtual

  0016d	8b cf		 mov	 ecx, edi
  0016f	8b 17		 mov	 edx, DWORD PTR [edi]
; File D:\git\src\IBK\IBK_DRFN\ProjSrc\SrcChartEx\ChartAddIn\ChartEnvSetupDlgAddIn\ChartEnvSetupDlgAddIn\StyleDataManager.cpp

; 709  : 	pDC->TextOut( rect1.left + 73, rect1.bottom - 14, "11" );

  00171	c6 45 fc 03	 mov	 BYTE PTR __$EHRec$[ebp+8], 3
; File C:\Program Files (x86)\Microsoft Visual Studio\2019\Community\VC\Tools\MSVC\14.29.30133\atlmfc\include\afxwin1.inl

; 574  : 	{ ASSERT(m_hDC != NULL); return TextOut(x, y, (LPCTSTR)str, (int)str.GetLength()); } // call virtual

  00175	ff 70 f4	 push	 DWORD PTR [eax-12]
  00178	50		 push	 eax
; File D:\git\src\IBK\IBK_DRFN\ProjSrc\SrcChartEx\ChartAddIn\ChartEnvSetupDlgAddIn\ChartEnvSetupDlgAddIn\StyleDataManager.cpp

; 709  : 	pDC->TextOut( rect1.left + 73, rect1.bottom - 14, "11" );

  00179	8b 45 18	 mov	 eax, DWORD PTR _rect1$[ebp+12]
  0017c	83 c0 f2	 add	 eax, -14		; fffffff2H
; File C:\Program Files (x86)\Microsoft Visual Studio\2019\Community\VC\Tools\MSVC\14.29.30133\atlmfc\include\afxwin1.inl

; 574  : 	{ ASSERT(m_hDC != NULL); return TextOut(x, y, (LPCTSTR)str, (int)str.GetLength()); } // call virtual

  0017f	50		 push	 eax
; File D:\git\src\IBK\IBK_DRFN\ProjSrc\SrcChartEx\ChartAddIn\ChartEnvSetupDlgAddIn\ChartEnvSetupDlgAddIn\StyleDataManager.cpp

; 709  : 	pDC->TextOut( rect1.left + 73, rect1.bottom - 14, "11" );

  00180	8b 45 0c	 mov	 eax, DWORD PTR _rect1$[ebp]
  00183	83 c0 49	 add	 eax, 73			; 00000049H
; File C:\Program Files (x86)\Microsoft Visual Studio\2019\Community\VC\Tools\MSVC\14.29.30133\atlmfc\include\afxwin1.inl

; 574  : 	{ ASSERT(m_hDC != NULL); return TextOut(x, y, (LPCTSTR)str, (int)str.GetLength()); } // call virtual

  00186	50		 push	 eax
  00187	ff 52 64	 call	 DWORD PTR [edx+100]
; File D:\git\src\IBK\IBK_DRFN\ProjSrc\SrcChartEx\ChartAddIn\ChartEnvSetupDlgAddIn\ChartEnvSetupDlgAddIn\StyleDataManager.cpp

; 709  : 	pDC->TextOut( rect1.left + 73, rect1.bottom - 14, "11" );

  0018a	8d 4d e0	 lea	 ecx, DWORD PTR $T13[ebp]
  0018d	c6 45 fc 01	 mov	 BYTE PTR __$EHRec$[ebp+8], 1
  00191	ff 15 00 00 00
	00		 call	 DWORD PTR __imp_??1?$CStringT@DV?$StrTraitMFC_DLL@DV?$ChTraitsCRT@D@ATL@@@@@ATL@@QAE@XZ

; 714  : 	pDC->TextOut( rect2.right + 3, rect2.bottom - int( p_dFactor * 140) - correct, "3,800" );

  00197	68 00 00 00 00	 push	 OFFSET ??_C@_05GFAOKHH@3?0800@
  0019c	8d 4d e0	 lea	 ecx, DWORD PTR $T12[ebp]
  0019f	ff 15 00 00 00
	00		 call	 DWORD PTR __imp_??0?$CStringT@DV?$StrTraitMFC_DLL@DV?$ChTraitsCRT@D@ATL@@@@@ATL@@QAE@PBD@Z
; File C:\Program Files (x86)\Microsoft Visual Studio\2019\Community\VC\Tools\MSVC\14.29.30133\atlmfc\include\atlsimpstr.h

; 519  : 		return( GetData()->nDataLength );

  001a5	8b 45 e0	 mov	 eax, DWORD PTR $T12[ebp]
; File D:\git\src\IBK\IBK_DRFN\ProjSrc\SrcChartEx\ChartAddIn\ChartEnvSetupDlgAddIn\ChartEnvSetupDlgAddIn\StyleDataManager.cpp

; 714  : 	pDC->TextOut( rect2.right + 3, rect2.bottom - int( p_dFactor * 140) - correct, "3,800" );

  001a8	f2 0f 10 45 48	 movsd	 xmm0, QWORD PTR _p_dFactor$[ebp]
  001ad	f2 0f 59 05 00
	00 00 00	 mulsd	 xmm0, QWORD PTR __real@4061800000000000
  001b5	8b 4d 28	 mov	 ecx, DWORD PTR _rect2$[ebp+12]
; File C:\Program Files (x86)\Microsoft Visual Studio\2019\Community\VC\Tools\MSVC\14.29.30133\atlmfc\include\afxwin1.inl

; 574  : 	{ ASSERT(m_hDC != NULL); return TextOut(x, y, (LPCTSTR)str, (int)str.GetLength()); } // call virtual

  001b8	ff 70 f4	 push	 DWORD PTR [eax-12]
  001bb	8b 17		 mov	 edx, DWORD PTR [edi]
  001bd	50		 push	 eax
; File D:\git\src\IBK\IBK_DRFN\ProjSrc\SrcChartEx\ChartAddIn\ChartEnvSetupDlgAddIn\ChartEnvSetupDlgAddIn\StyleDataManager.cpp

; 714  : 	pDC->TextOut( rect2.right + 3, rect2.bottom - int( p_dFactor * 140) - correct, "3,800" );

  001be	f2 0f 2c c0	 cvttsd2si eax, xmm0
  001c2	c6 45 fc 04	 mov	 BYTE PTR __$EHRec$[ebp+8], 4
  001c6	2b c8		 sub	 ecx, eax
  001c8	8b 45 24	 mov	 eax, DWORD PTR _rect2$[ebp+8]
  001cb	83 e9 05	 sub	 ecx, 5
  001ce	83 c0 03	 add	 eax, 3
; File C:\Program Files (x86)\Microsoft Visual Studio\2019\Community\VC\Tools\MSVC\14.29.30133\atlmfc\include\afxwin1.inl

; 574  : 	{ ASSERT(m_hDC != NULL); return TextOut(x, y, (LPCTSTR)str, (int)str.GetLength()); } // call virtual

  001d1	51		 push	 ecx
  001d2	50		 push	 eax
  001d3	8b cf		 mov	 ecx, edi
  001d5	ff 52 64	 call	 DWORD PTR [edx+100]
; File D:\git\src\IBK\IBK_DRFN\ProjSrc\SrcChartEx\ChartAddIn\ChartEnvSetupDlgAddIn\ChartEnvSetupDlgAddIn\StyleDataManager.cpp

; 714  : 	pDC->TextOut( rect2.right + 3, rect2.bottom - int( p_dFactor * 140) - correct, "3,800" );

  001d8	8d 4d e0	 lea	 ecx, DWORD PTR $T12[ebp]
  001db	c6 45 fc 01	 mov	 BYTE PTR __$EHRec$[ebp+8], 1
  001df	ff 15 00 00 00
	00		 call	 DWORD PTR __imp_??1?$CStringT@DV?$StrTraitMFC_DLL@DV?$ChTraitsCRT@D@ATL@@@@@ATL@@QAE@XZ

; 715  : 	pDC->TextOut( rect2.right + 3, rect2.bottom - int( p_dFactor * 120) - correct, "3,700" );

  001e5	68 00 00 00 00	 push	 OFFSET ??_C@_05FODDPKCB@3?0700@
  001ea	8d 4d e0	 lea	 ecx, DWORD PTR $T11[ebp]
  001ed	ff 15 00 00 00
	00		 call	 DWORD PTR __imp_??0?$CStringT@DV?$StrTraitMFC_DLL@DV?$ChTraitsCRT@D@ATL@@@@@ATL@@QAE@PBD@Z
; File C:\Program Files (x86)\Microsoft Visual Studio\2019\Community\VC\Tools\MSVC\14.29.30133\atlmfc\include\atlsimpstr.h

; 519  : 		return( GetData()->nDataLength );

  001f3	8b 45 e0	 mov	 eax, DWORD PTR $T11[ebp]
; File D:\git\src\IBK\IBK_DRFN\ProjSrc\SrcChartEx\ChartAddIn\ChartEnvSetupDlgAddIn\ChartEnvSetupDlgAddIn\StyleDataManager.cpp

; 715  : 	pDC->TextOut( rect2.right + 3, rect2.bottom - int( p_dFactor * 120) - correct, "3,700" );

  001f6	c6 45 fc 05	 mov	 BYTE PTR __$EHRec$[ebp+8], 5
; File C:\Program Files (x86)\Microsoft Visual Studio\2019\Community\VC\Tools\MSVC\14.29.30133\atlmfc\include\afxwin1.inl

; 574  : 	{ ASSERT(m_hDC != NULL); return TextOut(x, y, (LPCTSTR)str, (int)str.GetLength()); } // call virtual

  001fa	ff 70 f4	 push	 DWORD PTR [eax-12]
; File D:\git\src\IBK\IBK_DRFN\ProjSrc\SrcChartEx\ChartAddIn\ChartEnvSetupDlgAddIn\ChartEnvSetupDlgAddIn\StyleDataManager.cpp

; 715  : 	pDC->TextOut( rect2.right + 3, rect2.bottom - int( p_dFactor * 120) - correct, "3,700" );

  001fd	f2 0f 10 45 48	 movsd	 xmm0, QWORD PTR _p_dFactor$[ebp]
  00202	f2 0f 59 05 00
	00 00 00	 mulsd	 xmm0, QWORD PTR __real@405e000000000000
  0020a	8b 4d 28	 mov	 ecx, DWORD PTR _rect2$[ebp+12]
; File C:\Program Files (x86)\Microsoft Visual Studio\2019\Community\VC\Tools\MSVC\14.29.30133\atlmfc\include\afxwin1.inl

; 574  : 	{ ASSERT(m_hDC != NULL); return TextOut(x, y, (LPCTSTR)str, (int)str.GetLength()); } // call virtual

  0020d	8b 17		 mov	 edx, DWORD PTR [edi]
  0020f	50		 push	 eax
; File D:\git\src\IBK\IBK_DRFN\ProjSrc\SrcChartEx\ChartAddIn\ChartEnvSetupDlgAddIn\ChartEnvSetupDlgAddIn\StyleDataManager.cpp

; 715  : 	pDC->TextOut( rect2.right + 3, rect2.bottom - int( p_dFactor * 120) - correct, "3,700" );

  00210	f2 0f 2c c0	 cvttsd2si eax, xmm0
  00214	2b c8		 sub	 ecx, eax
  00216	8b 45 24	 mov	 eax, DWORD PTR _rect2$[ebp+8]
  00219	83 e9 05	 sub	 ecx, 5
  0021c	83 c0 03	 add	 eax, 3
; File C:\Program Files (x86)\Microsoft Visual Studio\2019\Community\VC\Tools\MSVC\14.29.30133\atlmfc\include\afxwin1.inl

; 574  : 	{ ASSERT(m_hDC != NULL); return TextOut(x, y, (LPCTSTR)str, (int)str.GetLength()); } // call virtual

  0021f	51		 push	 ecx
  00220	50		 push	 eax
  00221	8b cf		 mov	 ecx, edi
  00223	ff 52 64	 call	 DWORD PTR [edx+100]
; File D:\git\src\IBK\IBK_DRFN\ProjSrc\SrcChartEx\ChartAddIn\ChartEnvSetupDlgAddIn\ChartEnvSetupDlgAddIn\StyleDataManager.cpp

; 715  : 	pDC->TextOut( rect2.right + 3, rect2.bottom - int( p_dFactor * 120) - correct, "3,700" );

  00226	8d 4d e0	 lea	 ecx, DWORD PTR $T11[ebp]
  00229	c6 45 fc 01	 mov	 BYTE PTR __$EHRec$[ebp+8], 1
  0022d	ff 15 00 00 00
	00		 call	 DWORD PTR __imp_??1?$CStringT@DV?$StrTraitMFC_DLL@DV?$ChTraitsCRT@D@ATL@@@@@ATL@@QAE@XZ

; 716  : 	pDC->TextOut( rect2.right + 3, rect2.bottom - int( p_dFactor * 100) - correct, "3,600" );

  00233	68 00 00 00 00	 push	 OFFSET ??_C@_05OGIPJNEE@3?0600@
  00238	8d 4d e0	 lea	 ecx, DWORD PTR $T10[ebp]
  0023b	ff 15 00 00 00
	00		 call	 DWORD PTR __imp_??0?$CStringT@DV?$StrTraitMFC_DLL@DV?$ChTraitsCRT@D@ATL@@@@@ATL@@QAE@PBD@Z
; File C:\Program Files (x86)\Microsoft Visual Studio\2019\Community\VC\Tools\MSVC\14.29.30133\atlmfc\include\atlsimpstr.h

; 519  : 		return( GetData()->nDataLength );

  00241	8b 45 e0	 mov	 eax, DWORD PTR $T10[ebp]
; File D:\git\src\IBK\IBK_DRFN\ProjSrc\SrcChartEx\ChartAddIn\ChartEnvSetupDlgAddIn\ChartEnvSetupDlgAddIn\StyleDataManager.cpp

; 716  : 	pDC->TextOut( rect2.right + 3, rect2.bottom - int( p_dFactor * 100) - correct, "3,600" );

  00244	f2 0f 10 45 48	 movsd	 xmm0, QWORD PTR _p_dFactor$[ebp]
  00249	f2 0f 59 05 00
	00 00 00	 mulsd	 xmm0, QWORD PTR __real@4059000000000000
  00251	8b 4d 28	 mov	 ecx, DWORD PTR _rect2$[ebp+12]
; File C:\Program Files (x86)\Microsoft Visual Studio\2019\Community\VC\Tools\MSVC\14.29.30133\atlmfc\include\afxwin1.inl

; 574  : 	{ ASSERT(m_hDC != NULL); return TextOut(x, y, (LPCTSTR)str, (int)str.GetLength()); } // call virtual

  00254	ff 70 f4	 push	 DWORD PTR [eax-12]
  00257	8b 17		 mov	 edx, DWORD PTR [edi]
  00259	50		 push	 eax
; File D:\git\src\IBK\IBK_DRFN\ProjSrc\SrcChartEx\ChartAddIn\ChartEnvSetupDlgAddIn\ChartEnvSetupDlgAddIn\StyleDataManager.cpp

; 716  : 	pDC->TextOut( rect2.right + 3, rect2.bottom - int( p_dFactor * 100) - correct, "3,600" );

  0025a	f2 0f 2c c0	 cvttsd2si eax, xmm0
  0025e	c6 45 fc 06	 mov	 BYTE PTR __$EHRec$[ebp+8], 6
  00262	2b c8		 sub	 ecx, eax
  00264	8b 45 24	 mov	 eax, DWORD PTR _rect2$[ebp+8]
  00267	83 e9 05	 sub	 ecx, 5
  0026a	83 c0 03	 add	 eax, 3
; File C:\Program Files (x86)\Microsoft Visual Studio\2019\Community\VC\Tools\MSVC\14.29.30133\atlmfc\include\afxwin1.inl

; 574  : 	{ ASSERT(m_hDC != NULL); return TextOut(x, y, (LPCTSTR)str, (int)str.GetLength()); } // call virtual

  0026d	51		 push	 ecx
  0026e	50		 push	 eax
  0026f	8b cf		 mov	 ecx, edi
  00271	ff 52 64	 call	 DWORD PTR [edx+100]
; File D:\git\src\IBK\IBK_DRFN\ProjSrc\SrcChartEx\ChartAddIn\ChartEnvSetupDlgAddIn\ChartEnvSetupDlgAddIn\StyleDataManager.cpp

; 716  : 	pDC->TextOut( rect2.right + 3, rect2.bottom - int( p_dFactor * 100) - correct, "3,600" );

  00274	8d 4d e0	 lea	 ecx, DWORD PTR $T10[ebp]
  00277	c6 45 fc 01	 mov	 BYTE PTR __$EHRec$[ebp+8], 1
  0027b	ff 15 00 00 00
	00		 call	 DWORD PTR __imp_??1?$CStringT@DV?$StrTraitMFC_DLL@DV?$ChTraitsCRT@D@ATL@@@@@ATL@@QAE@XZ

; 717  : 	pDC->TextOut( rect2.right + 3, rect2.bottom - int( p_dFactor * 80) - correct, "3,500" );

  00281	68 00 00 00 00	 push	 OFFSET ??_C@_05PEDKDCKK@3?0500@
  00286	8d 4d e0	 lea	 ecx, DWORD PTR $T9[ebp]
  00289	ff 15 00 00 00
	00		 call	 DWORD PTR __imp_??0?$CStringT@DV?$StrTraitMFC_DLL@DV?$ChTraitsCRT@D@ATL@@@@@ATL@@QAE@PBD@Z
; File C:\Program Files (x86)\Microsoft Visual Studio\2019\Community\VC\Tools\MSVC\14.29.30133\atlmfc\include\atlsimpstr.h

; 519  : 		return( GetData()->nDataLength );

  0028f	8b 45 e0	 mov	 eax, DWORD PTR $T9[ebp]
; File D:\git\src\IBK\IBK_DRFN\ProjSrc\SrcChartEx\ChartAddIn\ChartEnvSetupDlgAddIn\ChartEnvSetupDlgAddIn\StyleDataManager.cpp

; 717  : 	pDC->TextOut( rect2.right + 3, rect2.bottom - int( p_dFactor * 80) - correct, "3,500" );

  00292	f2 0f 10 45 48	 movsd	 xmm0, QWORD PTR _p_dFactor$[ebp]
  00297	f2 0f 59 05 00
	00 00 00	 mulsd	 xmm0, QWORD PTR __real@4054000000000000
  0029f	8b 4d 28	 mov	 ecx, DWORD PTR _rect2$[ebp+12]
; File C:\Program Files (x86)\Microsoft Visual Studio\2019\Community\VC\Tools\MSVC\14.29.30133\atlmfc\include\afxwin1.inl

; 574  : 	{ ASSERT(m_hDC != NULL); return TextOut(x, y, (LPCTSTR)str, (int)str.GetLength()); } // call virtual

  002a2	ff 70 f4	 push	 DWORD PTR [eax-12]
  002a5	8b 17		 mov	 edx, DWORD PTR [edi]
  002a7	50		 push	 eax
; File D:\git\src\IBK\IBK_DRFN\ProjSrc\SrcChartEx\ChartAddIn\ChartEnvSetupDlgAddIn\ChartEnvSetupDlgAddIn\StyleDataManager.cpp

; 717  : 	pDC->TextOut( rect2.right + 3, rect2.bottom - int( p_dFactor * 80) - correct, "3,500" );

  002a8	f2 0f 2c c0	 cvttsd2si eax, xmm0
  002ac	c6 45 fc 07	 mov	 BYTE PTR __$EHRec$[ebp+8], 7
  002b0	2b c8		 sub	 ecx, eax
  002b2	8b 45 24	 mov	 eax, DWORD PTR _rect2$[ebp+8]
  002b5	83 e9 05	 sub	 ecx, 5
  002b8	83 c0 03	 add	 eax, 3
; File C:\Program Files (x86)\Microsoft Visual Studio\2019\Community\VC\Tools\MSVC\14.29.30133\atlmfc\include\afxwin1.inl

; 574  : 	{ ASSERT(m_hDC != NULL); return TextOut(x, y, (LPCTSTR)str, (int)str.GetLength()); } // call virtual

  002bb	51		 push	 ecx
  002bc	50		 push	 eax
  002bd	8b cf		 mov	 ecx, edi
  002bf	ff 52 64	 call	 DWORD PTR [edx+100]
; File D:\git\src\IBK\IBK_DRFN\ProjSrc\SrcChartEx\ChartAddIn\ChartEnvSetupDlgAddIn\ChartEnvSetupDlgAddIn\StyleDataManager.cpp

; 717  : 	pDC->TextOut( rect2.right + 3, rect2.bottom - int( p_dFactor * 80) - correct, "3,500" );

  002c2	8d 4d e0	 lea	 ecx, DWORD PTR $T9[ebp]
  002c5	c6 45 fc 01	 mov	 BYTE PTR __$EHRec$[ebp+8], 1
  002c9	ff 15 00 00 00
	00		 call	 DWORD PTR __imp_??1?$CStringT@DV?$StrTraitMFC_DLL@DV?$ChTraitsCRT@D@ATL@@@@@ATL@@QAE@XZ

; 718  : 	pDC->TextOut( rect2.right + 3, rect2.bottom - int( p_dFactor * 60) - correct, "3,400" );

  002cf	68 00 00 00 00	 push	 OFFSET ??_C@_05EMIGFFMP@3?0400@
  002d4	8d 4d e0	 lea	 ecx, DWORD PTR $T8[ebp]
  002d7	ff 15 00 00 00
	00		 call	 DWORD PTR __imp_??0?$CStringT@DV?$StrTraitMFC_DLL@DV?$ChTraitsCRT@D@ATL@@@@@ATL@@QAE@PBD@Z
  002dd	f2 0f 10 45 48	 movsd	 xmm0, QWORD PTR _p_dFactor$[ebp]
  002e2	f2 0f 59 05 00
	00 00 00	 mulsd	 xmm0, QWORD PTR __real@404e000000000000
; File C:\Program Files (x86)\Microsoft Visual Studio\2019\Community\VC\Tools\MSVC\14.29.30133\atlmfc\include\atlsimpstr.h

; 519  : 		return( GetData()->nDataLength );

  002ea	8b 45 e0	 mov	 eax, DWORD PTR $T8[ebp]
; File C:\Program Files (x86)\Microsoft Visual Studio\2019\Community\VC\Tools\MSVC\14.29.30133\atlmfc\include\afxwin1.inl

; 574  : 	{ ASSERT(m_hDC != NULL); return TextOut(x, y, (LPCTSTR)str, (int)str.GetLength()); } // call virtual

  002ed	8b 17		 mov	 edx, DWORD PTR [edi]
; File D:\git\src\IBK\IBK_DRFN\ProjSrc\SrcChartEx\ChartAddIn\ChartEnvSetupDlgAddIn\ChartEnvSetupDlgAddIn\StyleDataManager.cpp

; 718  : 	pDC->TextOut( rect2.right + 3, rect2.bottom - int( p_dFactor * 60) - correct, "3,400" );

  002ef	c6 45 fc 08	 mov	 BYTE PTR __$EHRec$[ebp+8], 8
; File C:\Program Files (x86)\Microsoft Visual Studio\2019\Community\VC\Tools\MSVC\14.29.30133\atlmfc\include\afxwin1.inl

; 574  : 	{ ASSERT(m_hDC != NULL); return TextOut(x, y, (LPCTSTR)str, (int)str.GetLength()); } // call virtual

  002f3	ff 70 f4	 push	 DWORD PTR [eax-12]
; File D:\git\src\IBK\IBK_DRFN\ProjSrc\SrcChartEx\ChartAddIn\ChartEnvSetupDlgAddIn\ChartEnvSetupDlgAddIn\StyleDataManager.cpp

; 718  : 	pDC->TextOut( rect2.right + 3, rect2.bottom - int( p_dFactor * 60) - correct, "3,400" );

  002f6	f2 0f 2c c8	 cvttsd2si ecx, xmm0
; File C:\Program Files (x86)\Microsoft Visual Studio\2019\Community\VC\Tools\MSVC\14.29.30133\atlmfc\include\afxwin1.inl

; 574  : 	{ ASSERT(m_hDC != NULL); return TextOut(x, y, (LPCTSTR)str, (int)str.GetLength()); } // call virtual

  002fa	50		 push	 eax
; File D:\git\src\IBK\IBK_DRFN\ProjSrc\SrcChartEx\ChartAddIn\ChartEnvSetupDlgAddIn\ChartEnvSetupDlgAddIn\StyleDataManager.cpp

; 718  : 	pDC->TextOut( rect2.right + 3, rect2.bottom - int( p_dFactor * 60) - correct, "3,400" );

  002fb	8b 45 28	 mov	 eax, DWORD PTR _rect2$[ebp+12]
  002fe	89 4d d4	 mov	 DWORD PTR tv931[ebp], ecx
  00301	2b c1		 sub	 eax, ecx
  00303	83 e8 05	 sub	 eax, 5
; File C:\Program Files (x86)\Microsoft Visual Studio\2019\Community\VC\Tools\MSVC\14.29.30133\atlmfc\include\afxwin1.inl

; 574  : 	{ ASSERT(m_hDC != NULL); return TextOut(x, y, (LPCTSTR)str, (int)str.GetLength()); } // call virtual

  00306	8b cf		 mov	 ecx, edi
  00308	50		 push	 eax
; File D:\git\src\IBK\IBK_DRFN\ProjSrc\SrcChartEx\ChartAddIn\ChartEnvSetupDlgAddIn\ChartEnvSetupDlgAddIn\StyleDataManager.cpp

; 718  : 	pDC->TextOut( rect2.right + 3, rect2.bottom - int( p_dFactor * 60) - correct, "3,400" );

  00309	8b 45 24	 mov	 eax, DWORD PTR _rect2$[ebp+8]
  0030c	83 c0 03	 add	 eax, 3
; File C:\Program Files (x86)\Microsoft Visual Studio\2019\Community\VC\Tools\MSVC\14.29.30133\atlmfc\include\afxwin1.inl

; 574  : 	{ ASSERT(m_hDC != NULL); return TextOut(x, y, (LPCTSTR)str, (int)str.GetLength()); } // call virtual

  0030f	50		 push	 eax
  00310	ff 52 64	 call	 DWORD PTR [edx+100]
; File D:\git\src\IBK\IBK_DRFN\ProjSrc\SrcChartEx\ChartAddIn\ChartEnvSetupDlgAddIn\ChartEnvSetupDlgAddIn\StyleDataManager.cpp

; 718  : 	pDC->TextOut( rect2.right + 3, rect2.bottom - int( p_dFactor * 60) - correct, "3,400" );

  00313	8d 4d e0	 lea	 ecx, DWORD PTR $T8[ebp]
  00316	c6 45 fc 01	 mov	 BYTE PTR __$EHRec$[ebp+8], 1
  0031a	ff 15 00 00 00
	00		 call	 DWORD PTR __imp_??1?$CStringT@DV?$StrTraitMFC_DLL@DV?$ChTraitsCRT@D@ATL@@@@@ATL@@QAE@XZ

; 719  : 	pDC->TextOut( rect2.right + 3, rect2.bottom - int( p_dFactor * 40) - correct, "3,300" );

  00320	68 00 00 00 00	 push	 OFFSET ??_C@_05NBFBGNHG@3?0300@
  00325	8d 4d e0	 lea	 ecx, DWORD PTR $T7[ebp]
  00328	ff 15 00 00 00
	00		 call	 DWORD PTR __imp_??0?$CStringT@DV?$StrTraitMFC_DLL@DV?$ChTraitsCRT@D@ATL@@@@@ATL@@QAE@PBD@Z
  0032e	f2 0f 10 45 48	 movsd	 xmm0, QWORD PTR _p_dFactor$[ebp]
  00333	f2 0f 59 05 00
	00 00 00	 mulsd	 xmm0, QWORD PTR __real@4044000000000000
; File C:\Program Files (x86)\Microsoft Visual Studio\2019\Community\VC\Tools\MSVC\14.29.30133\atlmfc\include\atlsimpstr.h

; 519  : 		return( GetData()->nDataLength );

  0033b	8b 45 e0	 mov	 eax, DWORD PTR $T7[ebp]
; File C:\Program Files (x86)\Microsoft Visual Studio\2019\Community\VC\Tools\MSVC\14.29.30133\atlmfc\include\afxwin1.inl

; 574  : 	{ ASSERT(m_hDC != NULL); return TextOut(x, y, (LPCTSTR)str, (int)str.GetLength()); } // call virtual

  0033e	8b 17		 mov	 edx, DWORD PTR [edi]
; File D:\git\src\IBK\IBK_DRFN\ProjSrc\SrcChartEx\ChartAddIn\ChartEnvSetupDlgAddIn\ChartEnvSetupDlgAddIn\StyleDataManager.cpp

; 719  : 	pDC->TextOut( rect2.right + 3, rect2.bottom - int( p_dFactor * 40) - correct, "3,300" );

  00340	c6 45 fc 09	 mov	 BYTE PTR __$EHRec$[ebp+8], 9
; File C:\Program Files (x86)\Microsoft Visual Studio\2019\Community\VC\Tools\MSVC\14.29.30133\atlmfc\include\afxwin1.inl

; 574  : 	{ ASSERT(m_hDC != NULL); return TextOut(x, y, (LPCTSTR)str, (int)str.GetLength()); } // call virtual

  00344	ff 70 f4	 push	 DWORD PTR [eax-12]
; File D:\git\src\IBK\IBK_DRFN\ProjSrc\SrcChartEx\ChartAddIn\ChartEnvSetupDlgAddIn\ChartEnvSetupDlgAddIn\StyleDataManager.cpp

; 719  : 	pDC->TextOut( rect2.right + 3, rect2.bottom - int( p_dFactor * 40) - correct, "3,300" );

  00347	f2 0f 2c c8	 cvttsd2si ecx, xmm0
; File C:\Program Files (x86)\Microsoft Visual Studio\2019\Community\VC\Tools\MSVC\14.29.30133\atlmfc\include\afxwin1.inl

; 574  : 	{ ASSERT(m_hDC != NULL); return TextOut(x, y, (LPCTSTR)str, (int)str.GetLength()); } // call virtual

  0034b	50		 push	 eax
; File D:\git\src\IBK\IBK_DRFN\ProjSrc\SrcChartEx\ChartAddIn\ChartEnvSetupDlgAddIn\ChartEnvSetupDlgAddIn\StyleDataManager.cpp

; 719  : 	pDC->TextOut( rect2.right + 3, rect2.bottom - int( p_dFactor * 40) - correct, "3,300" );

  0034c	8b 45 28	 mov	 eax, DWORD PTR _rect2$[ebp+12]
  0034f	2b c1		 sub	 eax, ecx
  00351	89 4d d8	 mov	 DWORD PTR tv930[ebp], ecx
  00354	83 e8 05	 sub	 eax, 5
; File C:\Program Files (x86)\Microsoft Visual Studio\2019\Community\VC\Tools\MSVC\14.29.30133\atlmfc\include\afxwin1.inl

; 574  : 	{ ASSERT(m_hDC != NULL); return TextOut(x, y, (LPCTSTR)str, (int)str.GetLength()); } // call virtual

  00357	8b cf		 mov	 ecx, edi
  00359	50		 push	 eax
; File D:\git\src\IBK\IBK_DRFN\ProjSrc\SrcChartEx\ChartAddIn\ChartEnvSetupDlgAddIn\ChartEnvSetupDlgAddIn\StyleDataManager.cpp

; 719  : 	pDC->TextOut( rect2.right + 3, rect2.bottom - int( p_dFactor * 40) - correct, "3,300" );

  0035a	8b 45 24	 mov	 eax, DWORD PTR _rect2$[ebp+8]
  0035d	83 c0 03	 add	 eax, 3
; File C:\Program Files (x86)\Microsoft Visual Studio\2019\Community\VC\Tools\MSVC\14.29.30133\atlmfc\include\afxwin1.inl

; 574  : 	{ ASSERT(m_hDC != NULL); return TextOut(x, y, (LPCTSTR)str, (int)str.GetLength()); } // call virtual

  00360	50		 push	 eax
  00361	ff 52 64	 call	 DWORD PTR [edx+100]
; File D:\git\src\IBK\IBK_DRFN\ProjSrc\SrcChartEx\ChartAddIn\ChartEnvSetupDlgAddIn\ChartEnvSetupDlgAddIn\StyleDataManager.cpp

; 719  : 	pDC->TextOut( rect2.right + 3, rect2.bottom - int( p_dFactor * 40) - correct, "3,300" );

  00364	8d 4d e0	 lea	 ecx, DWORD PTR $T7[ebp]
  00367	c6 45 fc 01	 mov	 BYTE PTR __$EHRec$[ebp+8], 1
  0036b	ff 15 00 00 00
	00		 call	 DWORD PTR __imp_??1?$CStringT@DV?$StrTraitMFC_DLL@DV?$ChTraitsCRT@D@ATL@@@@@ATL@@QAE@XZ

; 720  : 	pDC->TextOut( rect2.right + 3, rect2.bottom - int( p_dFactor * 20) - correct, "3,200" );

  00371	68 00 00 00 00	 push	 OFFSET ??_C@_05GJONAKBD@3?0200@
  00376	8d 4d e0	 lea	 ecx, DWORD PTR $T6[ebp]
  00379	ff 15 00 00 00
	00		 call	 DWORD PTR __imp_??0?$CStringT@DV?$StrTraitMFC_DLL@DV?$ChTraitsCRT@D@ATL@@@@@ATL@@QAE@PBD@Z
  0037f	f2 0f 10 45 48	 movsd	 xmm0, QWORD PTR _p_dFactor$[ebp]
  00384	f2 0f 59 05 00
	00 00 00	 mulsd	 xmm0, QWORD PTR __real@4034000000000000
; File C:\Program Files (x86)\Microsoft Visual Studio\2019\Community\VC\Tools\MSVC\14.29.30133\atlmfc\include\atlsimpstr.h

; 519  : 		return( GetData()->nDataLength );

  0038c	8b 45 e0	 mov	 eax, DWORD PTR $T6[ebp]
; File C:\Program Files (x86)\Microsoft Visual Studio\2019\Community\VC\Tools\MSVC\14.29.30133\atlmfc\include\afxwin1.inl

; 574  : 	{ ASSERT(m_hDC != NULL); return TextOut(x, y, (LPCTSTR)str, (int)str.GetLength()); } // call virtual

  0038f	8b 17		 mov	 edx, DWORD PTR [edi]
; File D:\git\src\IBK\IBK_DRFN\ProjSrc\SrcChartEx\ChartAddIn\ChartEnvSetupDlgAddIn\ChartEnvSetupDlgAddIn\StyleDataManager.cpp

; 720  : 	pDC->TextOut( rect2.right + 3, rect2.bottom - int( p_dFactor * 20) - correct, "3,200" );

  00391	c6 45 fc 0a	 mov	 BYTE PTR __$EHRec$[ebp+8], 10 ; 0000000aH
; File C:\Program Files (x86)\Microsoft Visual Studio\2019\Community\VC\Tools\MSVC\14.29.30133\atlmfc\include\afxwin1.inl

; 574  : 	{ ASSERT(m_hDC != NULL); return TextOut(x, y, (LPCTSTR)str, (int)str.GetLength()); } // call virtual

  00395	ff 70 f4	 push	 DWORD PTR [eax-12]
; File D:\git\src\IBK\IBK_DRFN\ProjSrc\SrcChartEx\ChartAddIn\ChartEnvSetupDlgAddIn\ChartEnvSetupDlgAddIn\StyleDataManager.cpp

; 720  : 	pDC->TextOut( rect2.right + 3, rect2.bottom - int( p_dFactor * 20) - correct, "3,200" );

  00398	f2 0f 2c c8	 cvttsd2si ecx, xmm0
; File C:\Program Files (x86)\Microsoft Visual Studio\2019\Community\VC\Tools\MSVC\14.29.30133\atlmfc\include\afxwin1.inl

; 574  : 	{ ASSERT(m_hDC != NULL); return TextOut(x, y, (LPCTSTR)str, (int)str.GetLength()); } // call virtual

  0039c	50		 push	 eax
; File D:\git\src\IBK\IBK_DRFN\ProjSrc\SrcChartEx\ChartAddIn\ChartEnvSetupDlgAddIn\ChartEnvSetupDlgAddIn\StyleDataManager.cpp

; 720  : 	pDC->TextOut( rect2.right + 3, rect2.bottom - int( p_dFactor * 20) - correct, "3,200" );

  0039d	8b 45 28	 mov	 eax, DWORD PTR _rect2$[ebp+12]
  003a0	2b c1		 sub	 eax, ecx
  003a2	89 4d dc	 mov	 DWORD PTR tv929[ebp], ecx
  003a5	83 e8 05	 sub	 eax, 5
; File C:\Program Files (x86)\Microsoft Visual Studio\2019\Community\VC\Tools\MSVC\14.29.30133\atlmfc\include\afxwin1.inl

; 574  : 	{ ASSERT(m_hDC != NULL); return TextOut(x, y, (LPCTSTR)str, (int)str.GetLength()); } // call virtual

  003a8	8b cf		 mov	 ecx, edi
  003aa	50		 push	 eax
; File D:\git\src\IBK\IBK_DRFN\ProjSrc\SrcChartEx\ChartAddIn\ChartEnvSetupDlgAddIn\ChartEnvSetupDlgAddIn\StyleDataManager.cpp

; 720  : 	pDC->TextOut( rect2.right + 3, rect2.bottom - int( p_dFactor * 20) - correct, "3,200" );

  003ab	8b 45 24	 mov	 eax, DWORD PTR _rect2$[ebp+8]
  003ae	83 c0 03	 add	 eax, 3
; File C:\Program Files (x86)\Microsoft Visual Studio\2019\Community\VC\Tools\MSVC\14.29.30133\atlmfc\include\afxwin1.inl

; 574  : 	{ ASSERT(m_hDC != NULL); return TextOut(x, y, (LPCTSTR)str, (int)str.GetLength()); } // call virtual

  003b1	50		 push	 eax
  003b2	ff 52 64	 call	 DWORD PTR [edx+100]
; File D:\git\src\IBK\IBK_DRFN\ProjSrc\SrcChartEx\ChartAddIn\ChartEnvSetupDlgAddIn\ChartEnvSetupDlgAddIn\StyleDataManager.cpp

; 720  : 	pDC->TextOut( rect2.right + 3, rect2.bottom - int( p_dFactor * 20) - correct, "3,200" );

  003b5	8d 4d e0	 lea	 ecx, DWORD PTR $T6[ebp]
  003b8	c6 45 fc 01	 mov	 BYTE PTR __$EHRec$[ebp+8], 1
  003bc	ff 15 00 00 00
	00		 call	 DWORD PTR __imp_??1?$CStringT@DV?$StrTraitMFC_DLL@DV?$ChTraitsCRT@D@ATL@@@@@ATL@@QAE@XZ

; 721  : 
; 722  : 	// (2009/9/21 - Seung-Won, Bae) for FX
; 723  : 	if( CChartInfo::FX != p_eChartMode)

  003c2	83 7d 44 02	 cmp	 DWORD PTR _p_eChartMode$[ebp], 2
  003c6	0f 84 08 01 00
	00		 je	 $LN3@DrawScale

; 725  : 		pDC->TextOut( rect3.right + 3, rect3.bottom - int( p_dFactor * 60) - correct, "1,500" );

  003cc	68 00 00 00 00	 push	 OFFSET ??_C@_05LJPCJDKB@1?0500@
  003d1	8d 4d e0	 lea	 ecx, DWORD PTR $T5[ebp]
  003d4	ff 15 00 00 00
	00		 call	 DWORD PTR __imp_??0?$CStringT@DV?$StrTraitMFC_DLL@DV?$ChTraitsCRT@D@ATL@@@@@ATL@@QAE@PBD@Z
; File C:\Program Files (x86)\Microsoft Visual Studio\2019\Community\VC\Tools\MSVC\14.29.30133\atlmfc\include\atlsimpstr.h

; 519  : 		return( GetData()->nDataLength );

  003da	8b 45 e0	 mov	 eax, DWORD PTR $T5[ebp]
; File C:\Program Files (x86)\Microsoft Visual Studio\2019\Community\VC\Tools\MSVC\14.29.30133\atlmfc\include\afxwin1.inl

; 574  : 	{ ASSERT(m_hDC != NULL); return TextOut(x, y, (LPCTSTR)str, (int)str.GetLength()); } // call virtual

  003dd	8b cf		 mov	 ecx, edi
  003df	8b 17		 mov	 edx, DWORD PTR [edi]
; File D:\git\src\IBK\IBK_DRFN\ProjSrc\SrcChartEx\ChartAddIn\ChartEnvSetupDlgAddIn\ChartEnvSetupDlgAddIn\StyleDataManager.cpp

; 725  : 		pDC->TextOut( rect3.right + 3, rect3.bottom - int( p_dFactor * 60) - correct, "1,500" );

  003e1	c6 45 fc 0b	 mov	 BYTE PTR __$EHRec$[ebp+8], 11 ; 0000000bH
; File C:\Program Files (x86)\Microsoft Visual Studio\2019\Community\VC\Tools\MSVC\14.29.30133\atlmfc\include\afxwin1.inl

; 574  : 	{ ASSERT(m_hDC != NULL); return TextOut(x, y, (LPCTSTR)str, (int)str.GetLength()); } // call virtual

  003e5	ff 70 f4	 push	 DWORD PTR [eax-12]
  003e8	50		 push	 eax
; File D:\git\src\IBK\IBK_DRFN\ProjSrc\SrcChartEx\ChartAddIn\ChartEnvSetupDlgAddIn\ChartEnvSetupDlgAddIn\StyleDataManager.cpp

; 725  : 		pDC->TextOut( rect3.right + 3, rect3.bottom - int( p_dFactor * 60) - correct, "1,500" );

  003e9	8b 45 38	 mov	 eax, DWORD PTR _rect3$[ebp+12]
  003ec	2b 45 d4	 sub	 eax, DWORD PTR tv931[ebp]
  003ef	83 e8 05	 sub	 eax, 5
; File C:\Program Files (x86)\Microsoft Visual Studio\2019\Community\VC\Tools\MSVC\14.29.30133\atlmfc\include\afxwin1.inl

; 574  : 	{ ASSERT(m_hDC != NULL); return TextOut(x, y, (LPCTSTR)str, (int)str.GetLength()); } // call virtual

  003f2	50		 push	 eax
; File D:\git\src\IBK\IBK_DRFN\ProjSrc\SrcChartEx\ChartAddIn\ChartEnvSetupDlgAddIn\ChartEnvSetupDlgAddIn\StyleDataManager.cpp

; 725  : 		pDC->TextOut( rect3.right + 3, rect3.bottom - int( p_dFactor * 60) - correct, "1,500" );

  003f3	8b 45 34	 mov	 eax, DWORD PTR _rect3$[ebp+8]
  003f6	83 c0 03	 add	 eax, 3
; File C:\Program Files (x86)\Microsoft Visual Studio\2019\Community\VC\Tools\MSVC\14.29.30133\atlmfc\include\afxwin1.inl

; 574  : 	{ ASSERT(m_hDC != NULL); return TextOut(x, y, (LPCTSTR)str, (int)str.GetLength()); } // call virtual

  003f9	50		 push	 eax
  003fa	ff 52 64	 call	 DWORD PTR [edx+100]
; File D:\git\src\IBK\IBK_DRFN\ProjSrc\SrcChartEx\ChartAddIn\ChartEnvSetupDlgAddIn\ChartEnvSetupDlgAddIn\StyleDataManager.cpp

; 725  : 		pDC->TextOut( rect3.right + 3, rect3.bottom - int( p_dFactor * 60) - correct, "1,500" );

  003fd	8d 4d e0	 lea	 ecx, DWORD PTR $T5[ebp]
  00400	c6 45 fc 01	 mov	 BYTE PTR __$EHRec$[ebp+8], 1
  00404	ff 15 00 00 00
	00		 call	 DWORD PTR __imp_??1?$CStringT@DV?$StrTraitMFC_DLL@DV?$ChTraitsCRT@D@ATL@@@@@ATL@@QAE@XZ

; 726  : 		pDC->TextOut( rect3.right + 3, rect3.bottom - int( p_dFactor * 40) - correct, "1,000" );

  0040a	68 00 00 00 00	 push	 OFFSET ??_C@_05IOCMGDJD@1?0000@
  0040f	8d 4d e0	 lea	 ecx, DWORD PTR $T4[ebp]
  00412	ff 15 00 00 00
	00		 call	 DWORD PTR __imp_??0?$CStringT@DV?$StrTraitMFC_DLL@DV?$ChTraitsCRT@D@ATL@@@@@ATL@@QAE@PBD@Z
; File C:\Program Files (x86)\Microsoft Visual Studio\2019\Community\VC\Tools\MSVC\14.29.30133\atlmfc\include\atlsimpstr.h

; 519  : 		return( GetData()->nDataLength );

  00418	8b 45 e0	 mov	 eax, DWORD PTR $T4[ebp]
; File C:\Program Files (x86)\Microsoft Visual Studio\2019\Community\VC\Tools\MSVC\14.29.30133\atlmfc\include\afxwin1.inl

; 574  : 	{ ASSERT(m_hDC != NULL); return TextOut(x, y, (LPCTSTR)str, (int)str.GetLength()); } // call virtual

  0041b	8b cf		 mov	 ecx, edi
  0041d	8b 17		 mov	 edx, DWORD PTR [edi]
; File D:\git\src\IBK\IBK_DRFN\ProjSrc\SrcChartEx\ChartAddIn\ChartEnvSetupDlgAddIn\ChartEnvSetupDlgAddIn\StyleDataManager.cpp

; 726  : 		pDC->TextOut( rect3.right + 3, rect3.bottom - int( p_dFactor * 40) - correct, "1,000" );

  0041f	c6 45 fc 0c	 mov	 BYTE PTR __$EHRec$[ebp+8], 12 ; 0000000cH
; File C:\Program Files (x86)\Microsoft Visual Studio\2019\Community\VC\Tools\MSVC\14.29.30133\atlmfc\include\afxwin1.inl

; 574  : 	{ ASSERT(m_hDC != NULL); return TextOut(x, y, (LPCTSTR)str, (int)str.GetLength()); } // call virtual

  00423	ff 70 f4	 push	 DWORD PTR [eax-12]
  00426	50		 push	 eax
; File D:\git\src\IBK\IBK_DRFN\ProjSrc\SrcChartEx\ChartAddIn\ChartEnvSetupDlgAddIn\ChartEnvSetupDlgAddIn\StyleDataManager.cpp

; 726  : 		pDC->TextOut( rect3.right + 3, rect3.bottom - int( p_dFactor * 40) - correct, "1,000" );

  00427	8b 45 38	 mov	 eax, DWORD PTR _rect3$[ebp+12]
  0042a	2b 45 d8	 sub	 eax, DWORD PTR tv930[ebp]
  0042d	83 e8 05	 sub	 eax, 5
; File C:\Program Files (x86)\Microsoft Visual Studio\2019\Community\VC\Tools\MSVC\14.29.30133\atlmfc\include\afxwin1.inl

; 574  : 	{ ASSERT(m_hDC != NULL); return TextOut(x, y, (LPCTSTR)str, (int)str.GetLength()); } // call virtual

  00430	50		 push	 eax
; File D:\git\src\IBK\IBK_DRFN\ProjSrc\SrcChartEx\ChartAddIn\ChartEnvSetupDlgAddIn\ChartEnvSetupDlgAddIn\StyleDataManager.cpp

; 726  : 		pDC->TextOut( rect3.right + 3, rect3.bottom - int( p_dFactor * 40) - correct, "1,000" );

  00431	8b 45 34	 mov	 eax, DWORD PTR _rect3$[ebp+8]
  00434	83 c0 03	 add	 eax, 3
; File C:\Program Files (x86)\Microsoft Visual Studio\2019\Community\VC\Tools\MSVC\14.29.30133\atlmfc\include\afxwin1.inl

; 574  : 	{ ASSERT(m_hDC != NULL); return TextOut(x, y, (LPCTSTR)str, (int)str.GetLength()); } // call virtual

  00437	50		 push	 eax
  00438	ff 52 64	 call	 DWORD PTR [edx+100]
; File D:\git\src\IBK\IBK_DRFN\ProjSrc\SrcChartEx\ChartAddIn\ChartEnvSetupDlgAddIn\ChartEnvSetupDlgAddIn\StyleDataManager.cpp

; 726  : 		pDC->TextOut( rect3.right + 3, rect3.bottom - int( p_dFactor * 40) - correct, "1,000" );

  0043b	8d 4d e0	 lea	 ecx, DWORD PTR $T4[ebp]
  0043e	c6 45 fc 01	 mov	 BYTE PTR __$EHRec$[ebp+8], 1
  00442	ff 15 00 00 00
	00		 call	 DWORD PTR __imp_??1?$CStringT@DV?$StrTraitMFC_DLL@DV?$ChTraitsCRT@D@ATL@@@@@ATL@@QAE@XZ

; 727  : 		pDC->TextOut( rect3.right + 3, rect3.bottom - int( p_dFactor * 20) - correct, "  500" );

  00448	68 00 00 00 00	 push	 OFFSET ??_C@_05LEIIKPJO@?5?5500@
  0044d	8d 4d e0	 lea	 ecx, DWORD PTR $T3[ebp]
  00450	ff 15 00 00 00
	00		 call	 DWORD PTR __imp_??0?$CStringT@DV?$StrTraitMFC_DLL@DV?$ChTraitsCRT@D@ATL@@@@@ATL@@QAE@PBD@Z
; File C:\Program Files (x86)\Microsoft Visual Studio\2019\Community\VC\Tools\MSVC\14.29.30133\atlmfc\include\atlsimpstr.h

; 519  : 		return( GetData()->nDataLength );

  00456	8b 45 e0	 mov	 eax, DWORD PTR $T3[ebp]
; File C:\Program Files (x86)\Microsoft Visual Studio\2019\Community\VC\Tools\MSVC\14.29.30133\atlmfc\include\afxwin1.inl

; 574  : 	{ ASSERT(m_hDC != NULL); return TextOut(x, y, (LPCTSTR)str, (int)str.GetLength()); } // call virtual

  00459	8b cf		 mov	 ecx, edi
  0045b	8b 17		 mov	 edx, DWORD PTR [edi]
; File D:\git\src\IBK\IBK_DRFN\ProjSrc\SrcChartEx\ChartAddIn\ChartEnvSetupDlgAddIn\ChartEnvSetupDlgAddIn\StyleDataManager.cpp

; 727  : 		pDC->TextOut( rect3.right + 3, rect3.bottom - int( p_dFactor * 20) - correct, "  500" );

  0045d	c6 45 fc 0d	 mov	 BYTE PTR __$EHRec$[ebp+8], 13 ; 0000000dH
; File C:\Program Files (x86)\Microsoft Visual Studio\2019\Community\VC\Tools\MSVC\14.29.30133\atlmfc\include\afxwin1.inl

; 574  : 	{ ASSERT(m_hDC != NULL); return TextOut(x, y, (LPCTSTR)str, (int)str.GetLength()); } // call virtual

  00461	ff 70 f4	 push	 DWORD PTR [eax-12]
  00464	50		 push	 eax
; File D:\git\src\IBK\IBK_DRFN\ProjSrc\SrcChartEx\ChartAddIn\ChartEnvSetupDlgAddIn\ChartEnvSetupDlgAddIn\StyleDataManager.cpp

; 727  : 		pDC->TextOut( rect3.right + 3, rect3.bottom - int( p_dFactor * 20) - correct, "  500" );

  00465	8b 45 38	 mov	 eax, DWORD PTR _rect3$[ebp+12]
  00468	2b 45 dc	 sub	 eax, DWORD PTR tv929[ebp]
  0046b	83 e8 05	 sub	 eax, 5
; File C:\Program Files (x86)\Microsoft Visual Studio\2019\Community\VC\Tools\MSVC\14.29.30133\atlmfc\include\afxwin1.inl

; 574  : 	{ ASSERT(m_hDC != NULL); return TextOut(x, y, (LPCTSTR)str, (int)str.GetLength()); } // call virtual

  0046e	50		 push	 eax
; File D:\git\src\IBK\IBK_DRFN\ProjSrc\SrcChartEx\ChartAddIn\ChartEnvSetupDlgAddIn\ChartEnvSetupDlgAddIn\StyleDataManager.cpp

; 727  : 		pDC->TextOut( rect3.right + 3, rect3.bottom - int( p_dFactor * 20) - correct, "  500" );

  0046f	8b 45 34	 mov	 eax, DWORD PTR _rect3$[ebp+8]
  00472	83 c0 03	 add	 eax, 3
; File C:\Program Files (x86)\Microsoft Visual Studio\2019\Community\VC\Tools\MSVC\14.29.30133\atlmfc\include\afxwin1.inl

; 574  : 	{ ASSERT(m_hDC != NULL); return TextOut(x, y, (LPCTSTR)str, (int)str.GetLength()); } // call virtual

  00475	50		 push	 eax
  00476	ff 52 64	 call	 DWORD PTR [edx+100]
; File D:\git\src\IBK\IBK_DRFN\ProjSrc\SrcChartEx\ChartAddIn\ChartEnvSetupDlgAddIn\ChartEnvSetupDlgAddIn\StyleDataManager.cpp

; 727  : 		pDC->TextOut( rect3.right + 3, rect3.bottom - int( p_dFactor * 20) - correct, "  500" );

  00479	8d 4d e0	 lea	 ecx, DWORD PTR $T3[ebp]
  0047c	c6 45 fc 01	 mov	 BYTE PTR __$EHRec$[ebp+8], 1
  00480	ff 15 00 00 00
	00		 call	 DWORD PTR __imp_??1?$CStringT@DV?$StrTraitMFC_DLL@DV?$ChTraitsCRT@D@ATL@@@@@ATL@@QAE@XZ

; 728  : 		pDC->TextOut( rect3.right + 3, rect3.bottom - int( p_dFactor * 5) - correct, "X100" );

  00486	68 00 00 00 00	 push	 OFFSET ??_C@_04ICAEMAEP@X100@
  0048b	8d 4d d0	 lea	 ecx, DWORD PTR $T2[ebp]
  0048e	ff 15 00 00 00
	00		 call	 DWORD PTR __imp_??0?$CStringT@DV?$StrTraitMFC_DLL@DV?$ChTraitsCRT@D@ATL@@@@@ATL@@QAE@PBD@Z
; File C:\Program Files (x86)\Microsoft Visual Studio\2019\Community\VC\Tools\MSVC\14.29.30133\atlmfc\include\atlsimpstr.h

; 519  : 		return( GetData()->nDataLength );

  00494	8b 45 d0	 mov	 eax, DWORD PTR $T2[ebp]
; File D:\git\src\IBK\IBK_DRFN\ProjSrc\SrcChartEx\ChartAddIn\ChartEnvSetupDlgAddIn\ChartEnvSetupDlgAddIn\StyleDataManager.cpp

; 728  : 		pDC->TextOut( rect3.right + 3, rect3.bottom - int( p_dFactor * 5) - correct, "X100" );

  00497	f2 0f 10 45 48	 movsd	 xmm0, QWORD PTR _p_dFactor$[ebp]
  0049c	f2 0f 59 05 00
	00 00 00	 mulsd	 xmm0, QWORD PTR __real@4014000000000000
  004a4	8b 4d 38	 mov	 ecx, DWORD PTR _rect3$[ebp+12]
; File C:\Program Files (x86)\Microsoft Visual Studio\2019\Community\VC\Tools\MSVC\14.29.30133\atlmfc\include\afxwin1.inl

; 574  : 	{ ASSERT(m_hDC != NULL); return TextOut(x, y, (LPCTSTR)str, (int)str.GetLength()); } // call virtual

  004a7	ff 70 f4	 push	 DWORD PTR [eax-12]
  004aa	8b 17		 mov	 edx, DWORD PTR [edi]
  004ac	50		 push	 eax
; File D:\git\src\IBK\IBK_DRFN\ProjSrc\SrcChartEx\ChartAddIn\ChartEnvSetupDlgAddIn\ChartEnvSetupDlgAddIn\StyleDataManager.cpp

; 728  : 		pDC->TextOut( rect3.right + 3, rect3.bottom - int( p_dFactor * 5) - correct, "X100" );

  004ad	f2 0f 2c c0	 cvttsd2si eax, xmm0
  004b1	c6 45 fc 0e	 mov	 BYTE PTR __$EHRec$[ebp+8], 14 ; 0000000eH
  004b5	2b c8		 sub	 ecx, eax
  004b7	8b 45 34	 mov	 eax, DWORD PTR _rect3$[ebp+8]
  004ba	83 e9 05	 sub	 ecx, 5
  004bd	83 c0 03	 add	 eax, 3
; File C:\Program Files (x86)\Microsoft Visual Studio\2019\Community\VC\Tools\MSVC\14.29.30133\atlmfc\include\afxwin1.inl

; 574  : 	{ ASSERT(m_hDC != NULL); return TextOut(x, y, (LPCTSTR)str, (int)str.GetLength()); } // call virtual

  004c0	51		 push	 ecx
  004c1	50		 push	 eax
  004c2	8b cf		 mov	 ecx, edi
  004c4	ff 52 64	 call	 DWORD PTR [edx+100]
; File D:\git\src\IBK\IBK_DRFN\ProjSrc\SrcChartEx\ChartAddIn\ChartEnvSetupDlgAddIn\ChartEnvSetupDlgAddIn\StyleDataManager.cpp

; 728  : 		pDC->TextOut( rect3.right + 3, rect3.bottom - int( p_dFactor * 5) - correct, "X100" );

  004c7	8d 4d d0	 lea	 ecx, DWORD PTR $T2[ebp]
  004ca	c6 45 fc 01	 mov	 BYTE PTR __$EHRec$[ebp+8], 1
  004ce	ff 15 00 00 00
	00		 call	 DWORD PTR __imp_??1?$CStringT@DV?$StrTraitMFC_DLL@DV?$ChTraitsCRT@D@ATL@@@@@ATL@@QAE@XZ
$LN3@DrawScale:

; 729  : 	}
; 730  : 
; 731  : 	pDC->SetTextColor( ordColor );

  004d4	8b 07		 mov	 eax, DWORD PTR [edi]
  004d6	8b cf		 mov	 ecx, edi
  004d8	ff 75 bc	 push	 DWORD PTR _ordColor$1$[ebp]
  004db	ff 50 38	 call	 DWORD PTR [eax+56]

; 732  : 	pDC->SetBkMode( nOldMode );

  004de	ff 75 b8	 push	 DWORD PTR _nOldMode$1$[ebp]
  004e1	8b cf		 mov	 ecx, edi
  004e3	e8 00 00 00 00	 call	 ?SetBkMode@CDC@@QAEHH@Z	; CDC::SetBkMode

; 733  : 	pDC->SelectObject( pOldFont );

  004e8	8b 07		 mov	 eax, DWORD PTR [edi]
  004ea	8b cf		 mov	 ecx, edi
  004ec	56		 push	 esi
  004ed	ff 50 30	 call	 DWORD PTR [eax+48]
; File C:\Program Files (x86)\Microsoft Visual Studio\2019\Community\VC\Tools\MSVC\14.29.30133\atlmfc\include\afxwin1.inl

; 130  : 	{ }

  004f0	8d 4d c8	 lea	 ecx, DWORD PTR _brush$[ebp]
  004f3	c7 45 c8 00 00
	00 00		 mov	 DWORD PTR _brush$[ebp], OFFSET ??_7CBrush@@6B@
  004fa	e8 00 00 00 00	 call	 ??1CGdiObject@@UAE@XZ	; CGdiObject::~CGdiObject

; 106  : 	{ }

  004ff	8d 4d c0	 lea	 ecx, DWORD PTR _pen$[ebp]
  00502	c7 45 c0 00 00
	00 00		 mov	 DWORD PTR _pen$[ebp], OFFSET ??_7CPen@@6B@
  00509	e8 00 00 00 00	 call	 ??1CGdiObject@@UAE@XZ	; CGdiObject::~CGdiObject
; File D:\git\src\IBK\IBK_DRFN\ProjSrc\SrcChartEx\ChartAddIn\ChartEnvSetupDlgAddIn\ChartEnvSetupDlgAddIn\StyleDataManager.cpp

; 734  : }

  0050e	8b 4d f4	 mov	 ecx, DWORD PTR __$EHRec$[ebp]
  00511	64 89 0d 00 00
	00 00		 mov	 DWORD PTR fs:0, ecx
  00518	59		 pop	 ecx
  00519	5f		 pop	 edi
  0051a	5e		 pop	 esi
  0051b	8b e5		 mov	 esp, ebp
  0051d	5d		 pop	 ebp
  0051e	c2 48 00	 ret	 72			; 00000048H
_TEXT	ENDS
;	COMDAT text$x
text$x	SEGMENT
__unwindfunclet$?DrawScale@CStyleDataManager@@QAEXPAVCDC@@VCRect@@11PAVCStyleData@@PAVCFont@@W4CHART_MODE@CChartInfo@@N@Z$0:
  00000	8d 4d c0	 lea	 ecx, DWORD PTR _pen$[ebp]
  00003	e9 00 00 00 00	 jmp	 ??1CPen@@UAE@XZ		; CPen::~CPen
__unwindfunclet$?DrawScale@CStyleDataManager@@QAEXPAVCDC@@VCRect@@11PAVCStyleData@@PAVCFont@@W4CHART_MODE@CChartInfo@@N@Z$1:
  00008	8d 4d c8	 lea	 ecx, DWORD PTR _brush$[ebp]
  0000b	e9 00 00 00 00	 jmp	 ??1CBrush@@UAE@XZ	; CBrush::~CBrush
__unwindfunclet$?DrawScale@CStyleDataManager@@QAEXPAVCDC@@VCRect@@11PAVCStyleData@@PAVCFont@@W4CHART_MODE@CChartInfo@@N@Z$2:
  00010	8d 4d e0	 lea	 ecx, DWORD PTR $T14[ebp]
  00013	ff 25 00 00 00
	00		 jmp	 DWORD PTR __imp_??1?$CStringT@DV?$StrTraitMFC_DLL@DV?$ChTraitsCRT@D@ATL@@@@@ATL@@QAE@XZ
__unwindfunclet$?DrawScale@CStyleDataManager@@QAEXPAVCDC@@VCRect@@11PAVCStyleData@@PAVCFont@@W4CHART_MODE@CChartInfo@@N@Z$3:
  00019	8d 4d e0	 lea	 ecx, DWORD PTR $T13[ebp]
  0001c	ff 25 00 00 00
	00		 jmp	 DWORD PTR __imp_??1?$CStringT@DV?$StrTraitMFC_DLL@DV?$ChTraitsCRT@D@ATL@@@@@ATL@@QAE@XZ
__unwindfunclet$?DrawScale@CStyleDataManager@@QAEXPAVCDC@@VCRect@@11PAVCStyleData@@PAVCFont@@W4CHART_MODE@CChartInfo@@N@Z$4:
  00022	8d 4d e0	 lea	 ecx, DWORD PTR $T12[ebp]
  00025	ff 25 00 00 00
	00		 jmp	 DWORD PTR __imp_??1?$CStringT@DV?$StrTraitMFC_DLL@DV?$ChTraitsCRT@D@ATL@@@@@ATL@@QAE@XZ
__unwindfunclet$?DrawScale@CStyleDataManager@@QAEXPAVCDC@@VCRect@@11PAVCStyleData@@PAVCFont@@W4CHART_MODE@CChartInfo@@N@Z$5:
  0002b	8d 4d e0	 lea	 ecx, DWORD PTR $T11[ebp]
  0002e	ff 25 00 00 00
	00		 jmp	 DWORD PTR __imp_??1?$CStringT@DV?$StrTraitMFC_DLL@DV?$ChTraitsCRT@D@ATL@@@@@ATL@@QAE@XZ
__unwindfunclet$?DrawScale@CStyleDataManager@@QAEXPAVCDC@@VCRect@@11PAVCStyleData@@PAVCFont@@W4CHART_MODE@CChartInfo@@N@Z$6:
  00034	8d 4d e0	 lea	 ecx, DWORD PTR $T10[ebp]
  00037	ff 25 00 00 00
	00		 jmp	 DWORD PTR __imp_??1?$CStringT@DV?$StrTraitMFC_DLL@DV?$ChTraitsCRT@D@ATL@@@@@ATL@@QAE@XZ
__unwindfunclet$?DrawScale@CStyleDataManager@@QAEXPAVCDC@@VCRect@@11PAVCStyleData@@PAVCFont@@W4CHART_MODE@CChartInfo@@N@Z$7:
  0003d	8d 4d e0	 lea	 ecx, DWORD PTR $T9[ebp]
  00040	ff 25 00 00 00
	00		 jmp	 DWORD PTR __imp_??1?$CStringT@DV?$StrTraitMFC_DLL@DV?$ChTraitsCRT@D@ATL@@@@@ATL@@QAE@XZ
__unwindfunclet$?DrawScale@CStyleDataManager@@QAEXPAVCDC@@VCRect@@11PAVCStyleData@@PAVCFont@@W4CHART_MODE@CChartInfo@@N@Z$8:
  00046	8d 4d e0	 lea	 ecx, DWORD PTR $T8[ebp]
  00049	ff 25 00 00 00
	00		 jmp	 DWORD PTR __imp_??1?$CStringT@DV?$StrTraitMFC_DLL@DV?$ChTraitsCRT@D@ATL@@@@@ATL@@QAE@XZ
__unwindfunclet$?DrawScale@CStyleDataManager@@QAEXPAVCDC@@VCRect@@11PAVCStyleData@@PAVCFont@@W4CHART_MODE@CChartInfo@@N@Z$9:
  0004f	8d 4d e0	 lea	 ecx, DWORD PTR $T7[ebp]
  00052	ff 25 00 00 00
	00		 jmp	 DWORD PTR __imp_??1?$CStringT@DV?$StrTraitMFC_DLL@DV?$ChTraitsCRT@D@ATL@@@@@ATL@@QAE@XZ
__unwindfunclet$?DrawScale@CStyleDataManager@@QAEXPAVCDC@@VCRect@@11PAVCStyleData@@PAVCFont@@W4CHART_MODE@CChartInfo@@N@Z$10:
  00058	8d 4d e0	 lea	 ecx, DWORD PTR $T6[ebp]
  0005b	ff 25 00 00 00
	00		 jmp	 DWORD PTR __imp_??1?$CStringT@DV?$StrTraitMFC_DLL@DV?$ChTraitsCRT@D@ATL@@@@@ATL@@QAE@XZ
__unwindfunclet$?DrawScale@CStyleDataManager@@QAEXPAVCDC@@VCRect@@11PAVCStyleData@@PAVCFont@@W4CHART_MODE@CChartInfo@@N@Z$11:
  00061	8d 4d e0	 lea	 ecx, DWORD PTR $T5[ebp]
  00064	ff 25 00 00 00
	00		 jmp	 DWORD PTR __imp_??1?$CStringT@DV?$StrTraitMFC_DLL@DV?$ChTraitsCRT@D@ATL@@@@@ATL@@QAE@XZ
__unwindfunclet$?DrawScale@CStyleDataManager@@QAEXPAVCDC@@VCRect@@11PAVCStyleData@@PAVCFont@@W4CHART_MODE@CChartInfo@@N@Z$12:
  0006a	8d 4d e0	 lea	 ecx, DWORD PTR $T4[ebp]
  0006d	ff 25 00 00 00
	00		 jmp	 DWORD PTR __imp_??1?$CStringT@DV?$StrTraitMFC_DLL@DV?$ChTraitsCRT@D@ATL@@@@@ATL@@QAE@XZ
__unwindfunclet$?DrawScale@CStyleDataManager@@QAEXPAVCDC@@VCRect@@11PAVCStyleData@@PAVCFont@@W4CHART_MODE@CChartInfo@@N@Z$13:
  00073	8d 4d e0	 lea	 ecx, DWORD PTR $T3[ebp]
  00076	ff 25 00 00 00
	00		 jmp	 DWORD PTR __imp_??1?$CStringT@DV?$StrTraitMFC_DLL@DV?$ChTraitsCRT@D@ATL@@@@@ATL@@QAE@XZ
__unwindfunclet$?DrawScale@CStyleDataManager@@QAEXPAVCDC@@VCRect@@11PAVCStyleData@@PAVCFont@@W4CHART_MODE@CChartInfo@@N@Z$14:
  0007c	8d 4d d0	 lea	 ecx, DWORD PTR $T2[ebp]
  0007f	ff 25 00 00 00
	00		 jmp	 DWORD PTR __imp_??1?$CStringT@DV?$StrTraitMFC_DLL@DV?$ChTraitsCRT@D@ATL@@@@@ATL@@QAE@XZ
  00085	cc		 int	 3
  00086	cc		 int	 3
  00087	cc		 int	 3
  00088	cc		 int	 3
  00089	cc		 int	 3
__ehhandler$?DrawScale@CStyleDataManager@@QAEXPAVCDC@@VCRect@@11PAVCStyleData@@PAVCFont@@W4CHART_MODE@CChartInfo@@N@Z:
  0008a	90		 npad	 1
  0008b	90		 npad	 1
  0008c	8b 54 24 08	 mov	 edx, DWORD PTR [esp+8]
  00090	8d 42 0c	 lea	 eax, DWORD PTR [edx+12]
  00093	8b 4a b8	 mov	 ecx, DWORD PTR [edx-72]
  00096	33 c8		 xor	 ecx, eax
  00098	e8 00 00 00 00	 call	 @__security_check_cookie@4
  0009d	b8 00 00 00 00	 mov	 eax, OFFSET __ehfuncinfo$?DrawScale@CStyleDataManager@@QAEXPAVCDC@@VCRect@@11PAVCStyleData@@PAVCFont@@W4CHART_MODE@CChartInfo@@N@Z
  000a2	e9 00 00 00 00	 jmp	 ___CxxFrameHandler3
text$x	ENDS
?DrawScale@CStyleDataManager@@QAEXPAVCDC@@VCRect@@11PAVCStyleData@@PAVCFont@@W4CHART_MODE@CChartInfo@@N@Z ENDP ; CStyleDataManager::DrawScale
; Function compile flags: /Ogtp
; File D:\git\src\IBK\IBK_DRFN\ProjSrc\SrcChartEx\ChartAddIn\ChartEnvSetupDlgAddIn\ChartEnvSetupDlgAddIn\StyleDataManager.cpp
; File C:\Program Files (x86)\Microsoft Visual Studio\2019\Community\VC\Tools\MSVC\14.29.30133\atlmfc\include\atltypes.h
; File D:\git\src\IBK\IBK_DRFN\ProjSrc\SrcChartEx\ChartAddIn\ChartEnvSetupDlgAddIn\ChartEnvSetupDlgAddIn\StyleDataManager.cpp
; File C:\Program Files (x86)\Microsoft Visual Studio\2019\Community\VC\Tools\MSVC\14.29.30133\atlmfc\include\atltypes.h
; File D:\git\src\IBK\IBK_DRFN\ProjSrc\SrcChartEx\ChartAddIn\ChartEnvSetupDlgAddIn\ChartEnvSetupDlgAddIn\StyleDataManager.cpp
; File C:\Program Files (x86)\Microsoft Visual Studio\2019\Community\VC\Tools\MSVC\14.29.30133\atlmfc\include\atltypes.h
; File D:\git\src\IBK\IBK_DRFN\ProjSrc\SrcChartEx\ChartAddIn\ChartEnvSetupDlgAddIn\ChartEnvSetupDlgAddIn\StyleDataManager.cpp
; File C:\Program Files (x86)\Microsoft Visual Studio\2019\Community\VC\Tools\MSVC\14.29.30133\atlmfc\include\atltypes.h
; File D:\git\src\IBK\IBK_DRFN\ProjSrc\SrcChartEx\ChartAddIn\ChartEnvSetupDlgAddIn\ChartEnvSetupDlgAddIn\StyleDataManager.cpp
; File C:\Program Files (x86)\Microsoft Visual Studio\2019\Community\VC\Tools\MSVC\14.29.30133\atlmfc\include\atltypes.h
; File D:\git\src\IBK\IBK_DRFN\ProjSrc\SrcChartEx\ChartAddIn\ChartEnvSetupDlgAddIn\ChartEnvSetupDlgAddIn\StyleDataManager.cpp
; File C:\Program Files (x86)\Microsoft Visual Studio\2019\Community\VC\Tools\MSVC\14.29.30133\atlmfc\include\atltypes.h
; File D:\git\src\IBK\IBK_DRFN\ProjSrc\SrcChartEx\ChartAddIn\ChartEnvSetupDlgAddIn\ChartEnvSetupDlgAddIn\StyleDataManager.cpp
; File C:\Program Files (x86)\Microsoft Visual Studio\2019\Community\VC\Tools\MSVC\14.29.30133\atlmfc\include\atltypes.h
; File D:\git\src\IBK\IBK_DRFN\ProjSrc\SrcChartEx\ChartAddIn\ChartEnvSetupDlgAddIn\ChartEnvSetupDlgAddIn\StyleDataManager.cpp
; File C:\Program Files (x86)\Microsoft Visual Studio\2019\Community\VC\Tools\MSVC\14.29.30133\atlmfc\include\atltypes.h
; File D:\git\src\IBK\IBK_DRFN\ProjSrc\SrcChartEx\ChartAddIn\ChartEnvSetupDlgAddIn\ChartEnvSetupDlgAddIn\StyleDataManager.cpp
; File C:\Program Files (x86)\Microsoft Visual Studio\2019\Community\VC\Tools\MSVC\14.29.30133\atlmfc\include\atltypes.h
; File D:\git\src\IBK\IBK_DRFN\ProjSrc\SrcChartEx\ChartAddIn\ChartEnvSetupDlgAddIn\ChartEnvSetupDlgAddIn\StyleDataManager.cpp
; File C:\Program Files (x86)\Microsoft Visual Studio\2019\Community\VC\Tools\MSVC\14.29.30133\atlmfc\include\afxwin1.inl
; File D:\git\src\IBK\IBK_DRFN\ProjSrc\SrcChartEx\ChartAddIn\ChartEnvSetupDlgAddIn\ChartEnvSetupDlgAddIn\StyleDataManager.cpp
; File C:\Program Files (x86)\Microsoft Visual Studio\2019\Community\VC\Tools\MSVC\14.29.30133\atlmfc\include\afxwin1.inl
; File D:\git\src\IBK\IBK_DRFN\ProjSrc\SrcChartEx\ChartAddIn\ChartEnvSetupDlgAddIn\ChartEnvSetupDlgAddIn\StyleDataManager.cpp
; File C:\Program Files (x86)\Microsoft Visual Studio\2019\Community\VC\Tools\MSVC\14.29.30133\atlmfc\include\afxwin1.inl
; File D:\git\src\IBK\IBK_DRFN\ProjSrc\SrcChartEx\ChartAddIn\ChartEnvSetupDlgAddIn\ChartEnvSetupDlgAddIn\StyleDataManager.cpp
; File C:\Program Files (x86)\Microsoft Visual Studio\2019\Community\VC\Tools\MSVC\14.29.30133\atlmfc\include\afxwin1.inl
; File D:\git\src\IBK\IBK_DRFN\ProjSrc\SrcChartEx\ChartAddIn\ChartEnvSetupDlgAddIn\ChartEnvSetupDlgAddIn\StyleDataManager.cpp
; File C:\Program Files (x86)\Microsoft Visual Studio\2019\Community\VC\Tools\MSVC\14.29.30133\atlmfc\include\afxwin1.inl
; File D:\git\src\IBK\IBK_DRFN\ProjSrc\SrcChartEx\ChartAddIn\ChartEnvSetupDlgAddIn\ChartEnvSetupDlgAddIn\StyleDataManager.cpp
; File C:\Program Files (x86)\Microsoft Visual Studio\2019\Community\VC\Tools\MSVC\14.29.30133\atlmfc\include\afxwin1.inl
; File D:\git\src\IBK\IBK_DRFN\ProjSrc\SrcChartEx\ChartAddIn\ChartEnvSetupDlgAddIn\ChartEnvSetupDlgAddIn\StyleDataManager.cpp
;	COMDAT ?DrawSampleImage@CStyleDataManager@@QAEXPAVCDC@@VCRect@@PAVCStyleData@@W4CHART_MODE@CChartInfo@@PAVCFont@@PAUHWND__@@H@Z
_TEXT	SEGMENT
_dFactor$1$ = -3648					; size = 8
_p_hOcxWnd$GSCopy$1$ = -3640				; size = 4
_b$1$ = -3636						; size = 4
tv2202 = -3632						; size = 4
_pen$2 = -3628						; size = 8
_brush$3 = -3620					; size = 8
_rectTrade$ = -3612					; size = 16
_rectPrice$ = -3596					; size = 16
_pOldPen$1$ = -3580					; size = 4
_p_pStyleData$GSCopy$1$ = -3580				; size = 4
_p_pTitleFont$GSCopy$1$ = -3576				; size = 4
_i$1$ = -3576						; size = 4
_i$1$ = -3576						; size = 4
_this$1$ = -3572					; size = 4
_pOldBrush$1$ = -3568					; size = 4
_pDC$GSCopy$1$ = -3568					; size = 4
_nMACount$4$ = -3568					; size = 4
_nMACount$2$ = -3568					; size = 4
_b$1$ = -3564						; size = 4
tv2142 = -3564						; size = 4
tv2141 = -3564						; size = 4
tv2140 = -3564						; size = 4
_rect$ = -3560						; size = 16
_rect$ = -3560						; size = 16
_rect1$ = -3560						; size = 16
_tAverage$ = -3544					; size = 1008
_price$ = -2536						; size = 672
_pAverage$ = -1864					; size = 1680
_trade$ = -184						; size = 168
__$ArrayPad$ = -16					; size = 4
__$EHRec$ = -12						; size = 12
_pDC$ = 8						; size = 4
_p_rctArea$ = 12					; size = 16
_p_pStyleData$ = 28					; size = 4
_p_eChartMode$ = 32					; size = 4
_p_pTitleFont$ = 36					; size = 4
_p_hOcxWnd$ = 40					; size = 4
_p_nDrawCount$ = 44					; size = 4
?DrawSampleImage@CStyleDataManager@@QAEXPAVCDC@@VCRect@@PAVCStyleData@@W4CHART_MODE@CChartInfo@@PAVCFont@@PAUHWND__@@H@Z PROC ; CStyleDataManager::DrawSampleImage, COMDAT
; _this$ = ecx

; 535  : {

  00000	55		 push	 ebp
  00001	8b ec		 mov	 ebp, esp
  00003	6a ff		 push	 -1
  00005	68 00 00 00 00	 push	 __ehhandler$?DrawSampleImage@CStyleDataManager@@QAEXPAVCDC@@VCRect@@PAVCStyleData@@W4CHART_MODE@CChartInfo@@PAVCFont@@PAUHWND__@@H@Z
  0000a	64 a1 00 00 00
	00		 mov	 eax, DWORD PTR fs:0
  00010	50		 push	 eax
  00011	81 ec 34 0e 00
	00		 sub	 esp, 3636		; 00000e34H
  00017	a1 00 00 00 00	 mov	 eax, DWORD PTR ___security_cookie
  0001c	33 c5		 xor	 eax, ebp
  0001e	89 45 f0	 mov	 DWORD PTR __$ArrayPad$[ebp], eax
  00021	56		 push	 esi
  00022	57		 push	 edi
  00023	50		 push	 eax
  00024	8d 45 f4	 lea	 eax, DWORD PTR __$EHRec$[ebp]
  00027	64 a3 00 00 00
	00		 mov	 DWORD PTR fs:0, eax
  0002d	89 8d 0c f2 ff
	ff		 mov	 DWORD PTR _this$1$[ebp], ecx
  00033	8b 45 08	 mov	 eax, DWORD PTR _pDC$[ebp]

; 538  : 	CRect rectPrice( p_rctArea.left, p_rctArea.top, p_rctArea.right - 37, p_rctArea.top + int( double( p_rctArea.Height() - 20) / 257 * 170));

  00036	8b 75 18	 mov	 esi, DWORD PTR _p_rctArea$[ebp+12]
  00039	8b 55 10	 mov	 edx, DWORD PTR _p_rctArea$[ebp+4]
  0003c	8b fa		 mov	 edi, edx
  0003e	89 85 10 f2 ff
	ff		 mov	 DWORD PTR _pDC$GSCopy$1$[ebp], eax
  00044	8b 45 1c	 mov	 eax, DWORD PTR _p_pStyleData$[ebp]
  00047	89 85 04 f2 ff
	ff		 mov	 DWORD PTR _p_pStyleData$GSCopy$1$[ebp], eax
  0004d	8b 45 24	 mov	 eax, DWORD PTR _p_pTitleFont$[ebp]
  00050	89 85 08 f2 ff
	ff		 mov	 DWORD PTR _p_pTitleFont$GSCopy$1$[ebp], eax
  00056	8b 45 28	 mov	 eax, DWORD PTR _p_hOcxWnd$[ebp]
  00059	89 85 c8 f1 ff
	ff		 mov	 DWORD PTR _p_hOcxWnd$GSCopy$1$[ebp], eax
  0005f	8b c6		 mov	 eax, esi
  00061	2b c2		 sub	 eax, edx
  00063	f2 0f 10 1d 00
	00 00 00	 movsd	 xmm3, QWORD PTR __real@4065400000000000
  0006b	83 e8 14	 sub	 eax, 20			; 00000014H
  0006e	8b 4d 14	 mov	 ecx, DWORD PTR _p_rctArea$[ebp+8]
; File C:\Program Files (x86)\Microsoft Visual Studio\2019\Community\VC\Tools\MSVC\14.29.30133\atlmfc\include\atltypes.h

; 541  : 	top = t;

  00071	89 95 f8 f1 ff
	ff		 mov	 DWORD PTR _rectPrice$[ebp+4], edx

; 543  : 	bottom = b;

  00077	8d 56 ec	 lea	 edx, DWORD PTR [esi-20]
; File D:\git\src\IBK\IBK_DRFN\ProjSrc\SrcChartEx\ChartAddIn\ChartEnvSetupDlgAddIn\ChartEnvSetupDlgAddIn\StyleDataManager.cpp

; 544  : 		{ 93, 102, 91, 98 }, 

  0007a	be 00 00 00 00	 mov	 esi, OFFSET __static@77cc68482924f3b8f8f60c5b78343a09bafb54cafc3ccfd5c89c1c03a819a1ec
; File C:\Program Files (x86)\Microsoft Visual Studio\2019\Community\VC\Tools\MSVC\14.29.30133\atlmfc\include\atltypes.h

; 543  : 	bottom = b;

  0007f	89 95 cc f1 ff
	ff		 mov	 DWORD PTR _b$1$[ebp], edx
  00085	89 95 f0 f1 ff
	ff		 mov	 DWORD PTR _rectTrade$[ebp+12], edx
  0008b	66 0f 6e d0	 movd	 xmm2, eax
; File D:\git\src\IBK\IBK_DRFN\ProjSrc\SrcChartEx\ChartAddIn\ChartEnvSetupDlgAddIn\ChartEnvSetupDlgAddIn\StyleDataManager.cpp

; 538  : 	CRect rectPrice( p_rctArea.left, p_rctArea.top, p_rctArea.right - 37, p_rctArea.top + int( double( p_rctArea.Height() - 20) / 257 * 170));

  0008f	f3 0f e6 d2	 cvtdq2pd xmm2, xmm2
  00093	0f 28 c2	 movaps	 xmm0, xmm2
  00096	f2 0f 5e 05 00
	00 00 00	 divsd	 xmm0, QWORD PTR __real@c070100000000000
  0009e	f2 0f 59 c3	 mulsd	 xmm0, xmm3
  000a2	f2 0f 2c c0	 cvttsd2si eax, xmm0

; 591  : 		{ 71,  82, 91, 97, 99, 98, 91, 84, 78, 73, 73, 78, 86, 96, 104, 109, 114, 118, 123, 126, 128, 71,  82, 91, 97, 99, 98, 91, 84, 78, 73, 73, 78, 86, 96, 104, 109, 114, 118, 123, 126, 128 },

  000a6	0f 28 05 00 00
	00 00		 movaps	 xmm0, XMMWORD PTR __xmm@000000610000005b0000005200000047
  000ad	0f 11 85 b8 f8
	ff ff		 movups	 XMMWORD PTR _pAverage$[ebp], xmm0
  000b4	2b f8		 sub	 edi, eax
; File C:\Program Files (x86)\Microsoft Visual Studio\2019\Community\VC\Tools\MSVC\14.29.30133\atlmfc\include\atltypes.h

; 540  : 	left = l;

  000b6	8b 45 0c	 mov	 eax, DWORD PTR _p_rctArea$[ebp]
; File D:\git\src\IBK\IBK_DRFN\ProjSrc\SrcChartEx\ChartAddIn\ChartEnvSetupDlgAddIn\ChartEnvSetupDlgAddIn\StyleDataManager.cpp

; 591  : 		{ 71,  82, 91, 97, 99, 98, 91, 84, 78, 73, 73, 78, 86, 96, 104, 109, 114, 118, 123, 126, 128, 71,  82, 91, 97, 99, 98, 91, 84, 78, 73, 73, 78, 86, 96, 104, 109, 114, 118, 123, 126, 128 },

  000b9	0f 28 05 00 00
	00 00		 movaps	 xmm0, XMMWORD PTR __xmm@000000540000005b0000006200000063
  000c0	83 c1 db	 add	 ecx, -37		; ffffffdbH
  000c3	0f 11 85 c8 f8
	ff ff		 movups	 XMMWORD PTR _pAverage$[ebp+16], xmm0
  000ca	89 bd 14 f2 ff
	ff		 mov	 DWORD PTR _b$1$[ebp], edi
  000d0	0f 28 05 00 00
	00 00		 movaps	 xmm0, XMMWORD PTR __xmm@0000004e00000049000000490000004e
  000d7	0f 11 85 d8 f8
	ff ff		 movups	 XMMWORD PTR _pAverage$[ebp+32], xmm0
; File C:\Program Files (x86)\Microsoft Visual Studio\2019\Community\VC\Tools\MSVC\14.29.30133\atlmfc\include\atltypes.h

; 542  : 	right = r;

  000de	89 8d fc f1 ff
	ff		 mov	 DWORD PTR _rectPrice$[ebp+8], ecx
; File D:\git\src\IBK\IBK_DRFN\ProjSrc\SrcChartEx\ChartAddIn\ChartEnvSetupDlgAddIn\ChartEnvSetupDlgAddIn\StyleDataManager.cpp

; 591  : 		{ 71,  82, 91, 97, 99, 98, 91, 84, 78, 73, 73, 78, 86, 96, 104, 109, 114, 118, 123, 126, 128, 71,  82, 91, 97, 99, 98, 91, 84, 78, 73, 73, 78, 86, 96, 104, 109, 114, 118, 123, 126, 128 },

  000e4	0f 28 05 00 00
	00 00		 movaps	 xmm0, XMMWORD PTR __xmm@0000006d000000680000006000000056
  000eb	0f 11 85 e8 f8
	ff ff		 movups	 XMMWORD PTR _pAverage$[ebp+48], xmm0
; File C:\Program Files (x86)\Microsoft Visual Studio\2019\Community\VC\Tools\MSVC\14.29.30133\atlmfc\include\atltypes.h

; 543  : 	bottom = b;

  000f2	89 bd 00 f2 ff
	ff		 mov	 DWORD PTR _rectPrice$[ebp+12], edi
; File D:\git\src\IBK\IBK_DRFN\ProjSrc\SrcChartEx\ChartAddIn\ChartEnvSetupDlgAddIn\ChartEnvSetupDlgAddIn\StyleDataManager.cpp

; 591  : 		{ 71,  82, 91, 97, 99, 98, 91, 84, 78, 73, 73, 78, 86, 96, 104, 109, 114, 118, 123, 126, 128, 71,  82, 91, 97, 99, 98, 91, 84, 78, 73, 73, 78, 86, 96, 104, 109, 114, 118, 123, 126, 128 },

  000f8	0f 28 05 00 00
	00 00		 movaps	 xmm0, XMMWORD PTR __xmm@0000007e0000007b0000007600000072
  000ff	0f 11 85 f8 f8
	ff ff		 movups	 XMMWORD PTR _pAverage$[ebp+64], xmm0
; File C:\Program Files (x86)\Microsoft Visual Studio\2019\Community\VC\Tools\MSVC\14.29.30133\atlmfc\include\atltypes.h

; 541  : 	top = t;

  00106	89 bd e8 f1 ff
	ff		 mov	 DWORD PTR _rectTrade$[ebp+4], edi
; File D:\git\src\IBK\IBK_DRFN\ProjSrc\SrcChartEx\ChartAddIn\ChartEnvSetupDlgAddIn\ChartEnvSetupDlgAddIn\StyleDataManager.cpp

; 544  : 		{ 93, 102, 91, 98 }, 

  0010c	8d bd 18 f6 ff
	ff		 lea	 edi, DWORD PTR _price$[ebp]

; 591  : 		{ 71,  82, 91, 97, 99, 98, 91, 84, 78, 73, 73, 78, 86, 96, 104, 109, 114, 118, 123, 126, 128, 71,  82, 91, 97, 99, 98, 91, 84, 78, 73, 73, 78, 86, 96, 104, 109, 114, 118, 123, 126, 128 },

  00112	0f 28 05 00 00
	00 00		 movaps	 xmm0, XMMWORD PTR __xmm@0000005b000000520000004700000080
  00119	0f 11 85 08 f9
	ff ff		 movups	 XMMWORD PTR _pAverage$[ebp+80], xmm0
; File C:\Program Files (x86)\Microsoft Visual Studio\2019\Community\VC\Tools\MSVC\14.29.30133\atlmfc\include\atltypes.h

; 542  : 	right = r;

  00120	89 8d ec f1 ff
	ff		 mov	 DWORD PTR _rectTrade$[ebp+8], ecx
; File D:\git\src\IBK\IBK_DRFN\ProjSrc\SrcChartEx\ChartAddIn\ChartEnvSetupDlgAddIn\ChartEnvSetupDlgAddIn\StyleDataManager.cpp

; 544  : 		{ 93, 102, 91, 98 }, 

  00126	b9 a8 00 00 00	 mov	 ecx, 168		; 000000a8H

; 591  : 		{ 71,  82, 91, 97, 99, 98, 91, 84, 78, 73, 73, 78, 86, 96, 104, 109, 114, 118, 123, 126, 128, 71,  82, 91, 97, 99, 98, 91, 84, 78, 73, 73, 78, 86, 96, 104, 109, 114, 118, 123, 126, 128 },

  0012b	0f 28 05 00 00
	00 00		 movaps	 xmm0, XMMWORD PTR __xmm@0000005b000000620000006300000061
  00132	0f 11 85 18 f9
	ff ff		 movups	 XMMWORD PTR _pAverage$[ebp+96], xmm0
; File C:\Program Files (x86)\Microsoft Visual Studio\2019\Community\VC\Tools\MSVC\14.29.30133\atlmfc\include\atltypes.h

; 540  : 	left = l;

  00139	89 85 f4 f1 ff
	ff		 mov	 DWORD PTR _rectPrice$[ebp], eax
; File D:\git\src\IBK\IBK_DRFN\ProjSrc\SrcChartEx\ChartAddIn\ChartEnvSetupDlgAddIn\ChartEnvSetupDlgAddIn\StyleDataManager.cpp

; 591  : 		{ 71,  82, 91, 97, 99, 98, 91, 84, 78, 73, 73, 78, 86, 96, 104, 109, 114, 118, 123, 126, 128, 71,  82, 91, 97, 99, 98, 91, 84, 78, 73, 73, 78, 86, 96, 104, 109, 114, 118, 123, 126, 128 },

  0013f	0f 28 05 00 00
	00 00		 movaps	 xmm0, XMMWORD PTR __xmm@00000049000000490000004e00000054
  00146	0f 11 85 28 f9
	ff ff		 movups	 XMMWORD PTR _pAverage$[ebp+112], xmm0
; File C:\Program Files (x86)\Microsoft Visual Studio\2019\Community\VC\Tools\MSVC\14.29.30133\atlmfc\include\atltypes.h

; 540  : 	left = l;

  0014d	89 85 e4 f1 ff
	ff		 mov	 DWORD PTR _rectTrade$[ebp], eax
; File D:\git\src\IBK\IBK_DRFN\ProjSrc\SrcChartEx\ChartAddIn\ChartEnvSetupDlgAddIn\ChartEnvSetupDlgAddIn\StyleDataManager.cpp

; 591  : 		{ 71,  82, 91, 97, 99, 98, 91, 84, 78, 73, 73, 78, 86, 96, 104, 109, 114, 118, 123, 126, 128, 71,  82, 91, 97, 99, 98, 91, 84, 78, 73, 73, 78, 86, 96, 104, 109, 114, 118, 123, 126, 128 },

  00153	0f 28 05 00 00
	00 00		 movaps	 xmm0, XMMWORD PTR __xmm@0000006800000060000000560000004e
  0015a	0f 11 85 38 f9
	ff ff		 movups	 XMMWORD PTR _pAverage$[ebp+128], xmm0
  00161	0f 28 05 00 00
	00 00		 movaps	 xmm0, XMMWORD PTR __xmm@0000007b00000076000000720000006d
  00168	0f 11 85 48 f9
	ff ff		 movups	 XMMWORD PTR _pAverage$[ebp+144], xmm0
  0016f	0f 28 05 00 00
	00 00		 movaps	 xmm0, XMMWORD PTR __xmm@0000004900000044000000800000007e
  00176	0f 11 85 58 f9
	ff ff		 movups	 XMMWORD PTR _pAverage$[ebp+160], xmm0

; 592  : 		{ 68, 73, 76, 77, 80, 85, 86, 88, 88, 86, 85, 84, 85, 87, 89, 91, 96, 102, 109, 115, 119, 68, 73, 76, 77, 80, 85, 86, 88, 88, 86, 85, 84, 85, 87, 89, 91, 96, 102, 109, 115, 119 },

  0017d	0f 28 05 00 00
	00 00		 movaps	 xmm0, XMMWORD PTR __xmm@00000055000000500000004d0000004c
  00184	0f 11 85 68 f9
	ff ff		 movups	 XMMWORD PTR _pAverage$[ebp+176], xmm0
  0018b	0f 28 05 00 00
	00 00		 movaps	 xmm0, XMMWORD PTR __xmm@00000056000000580000005800000056
  00192	0f 11 85 78 f9
	ff ff		 movups	 XMMWORD PTR _pAverage$[ebp+192], xmm0
  00199	0f 28 05 00 00
	00 00		 movaps	 xmm0, XMMWORD PTR __xmm@00000057000000550000005400000055
  001a0	0f 11 85 88 f9
	ff ff		 movups	 XMMWORD PTR _pAverage$[ebp+208], xmm0
  001a7	0f 28 05 00 00
	00 00		 movaps	 xmm0, XMMWORD PTR __xmm@00000066000000600000005b00000059
  001ae	0f 11 85 98 f9
	ff ff		 movups	 XMMWORD PTR _pAverage$[ebp+224], xmm0
  001b5	0f 28 05 00 00
	00 00		 movaps	 xmm0, XMMWORD PTR __xmm@0000004400000077000000730000006d
  001bc	0f 11 85 a8 f9
	ff ff		 movups	 XMMWORD PTR _pAverage$[ebp+240], xmm0
  001c3	0f 28 05 00 00
	00 00		 movaps	 xmm0, XMMWORD PTR __xmm@000000500000004d0000004c00000049
  001ca	0f 11 85 b8 f9
	ff ff		 movups	 XMMWORD PTR _pAverage$[ebp+256], xmm0
  001d1	0f 28 05 00 00
	00 00		 movaps	 xmm0, XMMWORD PTR __xmm@00000058000000580000005600000055
  001d8	0f 11 85 c8 f9
	ff ff		 movups	 XMMWORD PTR _pAverage$[ebp+272], xmm0
  001df	0f 28 05 00 00
	00 00		 movaps	 xmm0, XMMWORD PTR __xmm@00000055000000540000005500000056
  001e6	0f 11 85 d8 f9
	ff ff		 movups	 XMMWORD PTR _pAverage$[ebp+288], xmm0
  001ed	0f 28 05 00 00
	00 00		 movaps	 xmm0, XMMWORD PTR __xmm@000000600000005b0000005900000057
  001f4	0f 11 85 e8 f9
	ff ff		 movups	 XMMWORD PTR _pAverage$[ebp+304], xmm0
  001fb	0f 28 05 00 00
	00 00		 movaps	 xmm0, XMMWORD PTR __xmm@00000077000000730000006d00000066
  00202	f3 a5		 rep movsd
  00204	0f 11 85 f8 f9
	ff ff		 movups	 XMMWORD PTR _pAverage$[ebp+320], xmm0

; 593  : 		{ 71, 74, 76, 77, 79, 79, 78, 78, 77, 77, 77, 79, 80, 82, 84, 88, 91, 95, 98, 101, 102, 71, 74, 76, 77, 79, 79, 78, 78, 77, 77, 77, 79, 80, 82, 84, 88, 91, 95, 98, 101, 102 },

  0020b	0f 28 05 00 00
	00 00		 movaps	 xmm0, XMMWORD PTR __xmm@0000004d0000004c0000004a00000047
  00212	0f 11 85 08 fa
	ff ff		 movups	 XMMWORD PTR _pAverage$[ebp+336], xmm0
  00219	0f 28 05 00 00
	00 00		 movaps	 xmm0, XMMWORD PTR __xmm@0000004e0000004e0000004f0000004f
  00220	0f 11 85 18 fa
	ff ff		 movups	 XMMWORD PTR _pAverage$[ebp+352], xmm0
  00227	0f 28 05 00 00
	00 00		 movaps	 xmm0, XMMWORD PTR __xmm@0000004f0000004d0000004d0000004d
  0022e	0f 11 85 28 fa
	ff ff		 movups	 XMMWORD PTR _pAverage$[ebp+368], xmm0
  00235	0f 28 05 00 00
	00 00		 movaps	 xmm0, XMMWORD PTR __xmm@00000058000000540000005200000050
  0023c	0f 11 85 38 fa
	ff ff		 movups	 XMMWORD PTR _pAverage$[ebp+384], xmm0
  00243	0f 28 05 00 00
	00 00		 movaps	 xmm0, XMMWORD PTR __xmm@00000065000000620000005f0000005b
  0024a	0f 11 85 48 fa
	ff ff		 movups	 XMMWORD PTR _pAverage$[ebp+400], xmm0
  00251	0f 28 05 00 00
	00 00		 movaps	 xmm0, XMMWORD PTR __xmm@0000004c0000004a0000004700000066
  00258	0f 11 85 58 fa
	ff ff		 movups	 XMMWORD PTR _pAverage$[ebp+416], xmm0
  0025f	0f 28 05 00 00
	00 00		 movaps	 xmm0, XMMWORD PTR __xmm@0000004e0000004f0000004f0000004d
  00266	0f 11 85 68 fa
	ff ff		 movups	 XMMWORD PTR _pAverage$[ebp+432], xmm0
  0026d	0f 28 05 00 00
	00 00		 movaps	 xmm0, XMMWORD PTR __xmm@0000004d0000004d0000004d0000004e
  00274	0f 11 85 78 fa
	ff ff		 movups	 XMMWORD PTR _pAverage$[ebp+448], xmm0
  0027b	0f 28 05 00 00
	00 00		 movaps	 xmm0, XMMWORD PTR __xmm@0000005400000052000000500000004f
  00282	0f 11 85 88 fa
	ff ff		 movups	 XMMWORD PTR _pAverage$[ebp+464], xmm0
  00289	0f 28 05 00 00
	00 00		 movaps	 xmm0, XMMWORD PTR __xmm@000000620000005f0000005b00000058
  00290	0f 11 85 98 fa
	ff ff		 movups	 XMMWORD PTR _pAverage$[ebp+480], xmm0
  00297	0f 28 05 00 00
	00 00		 movaps	 xmm0, XMMWORD PTR __xmm@0000003c000000380000006600000065
  0029e	0f 11 85 a8 fa
	ff ff		 movups	 XMMWORD PTR _pAverage$[ebp+496], xmm0

; 594  : 		{ 56, 60, 63, 66, 69, 71, 73, 74, 74, 75, 76, 78, 79, 80, 82, 83, 84, 86, 88, 89, 91, 56, 60, 63, 66, 69, 71, 73, 74, 74, 75, 76, 78, 79, 80, 82, 83, 84, 86, 88, 89, 91 },

  002a5	0f 28 05 00 00
	00 00		 movaps	 xmm0, XMMWORD PTR __xmm@0000004700000045000000420000003f
  002ac	0f 11 85 b8 fa
	ff ff		 movups	 XMMWORD PTR _pAverage$[ebp+512], xmm0
  002b3	0f 28 05 00 00
	00 00		 movaps	 xmm0, XMMWORD PTR __xmm@0000004b0000004a0000004a00000049
  002ba	0f 11 85 c8 fa
	ff ff		 movups	 XMMWORD PTR _pAverage$[ebp+528], xmm0
  002c1	0f 28 05 00 00
	00 00		 movaps	 xmm0, XMMWORD PTR __xmm@000000500000004f0000004e0000004c
  002c8	0f 11 85 d8 fa
	ff ff		 movups	 XMMWORD PTR _pAverage$[ebp+544], xmm0
  002cf	0f 28 05 00 00
	00 00		 movaps	 xmm0, XMMWORD PTR __xmm@00000056000000540000005300000052
  002d6	0f 11 85 e8 fa
	ff ff		 movups	 XMMWORD PTR _pAverage$[ebp+560], xmm0
  002dd	0f 28 05 00 00
	00 00		 movaps	 xmm0, XMMWORD PTR __xmm@000000380000005b0000005900000058
  002e4	0f 11 85 f8 fa
	ff ff		 movups	 XMMWORD PTR _pAverage$[ebp+576], xmm0
  002eb	0f 28 05 00 00
	00 00		 movaps	 xmm0, XMMWORD PTR __xmm@00000045000000420000003f0000003c
  002f2	0f 11 85 08 fb
	ff ff		 movups	 XMMWORD PTR _pAverage$[ebp+592], xmm0
  002f9	0f 28 05 00 00
	00 00		 movaps	 xmm0, XMMWORD PTR __xmm@0000004a0000004a0000004900000047
  00300	0f 11 85 18 fb
	ff ff		 movups	 XMMWORD PTR _pAverage$[ebp+608], xmm0
  00307	0f 28 05 00 00
	00 00		 movaps	 xmm0, XMMWORD PTR __xmm@0000004f0000004e0000004c0000004b
  0030e	0f 11 85 28 fb
	ff ff		 movups	 XMMWORD PTR _pAverage$[ebp+624], xmm0
  00315	0f 28 05 00 00
	00 00		 movaps	 xmm0, XMMWORD PTR __xmm@00000054000000530000005200000050
  0031c	0f 11 85 38 fb
	ff ff		 movups	 XMMWORD PTR _pAverage$[ebp+640], xmm0
  00323	0f 28 05 00 00
	00 00		 movaps	 xmm0, XMMWORD PTR __xmm@0000005b000000590000005800000056
  0032a	0f 11 85 48 fb
	ff ff		 movups	 XMMWORD PTR _pAverage$[ebp+656], xmm0

; 595  : 		{ 32, 35, 38, 41, 44, 48, 51, 54, 57, 60, 63, 66, 69, 71, 74, 76, 78, 81, 83, 85, 87, 32, 35, 38, 41, 44, 48, 51, 54, 57, 60, 63, 66, 69, 71, 74, 76, 78, 81, 83, 85, 87 },

  00331	0f 28 05 00 00
	00 00		 movaps	 xmm0, XMMWORD PTR __xmm@00000029000000260000002300000020
  00338	0f 11 85 58 fb
	ff ff		 movups	 XMMWORD PTR _pAverage$[ebp+672], xmm0
  0033f	0f 28 05 00 00
	00 00		 movaps	 xmm0, XMMWORD PTR __xmm@0000003600000033000000300000002c
  00346	0f 11 85 68 fb
	ff ff		 movups	 XMMWORD PTR _pAverage$[ebp+688], xmm0
  0034d	0f 28 05 00 00
	00 00		 movaps	 xmm0, XMMWORD PTR __xmm@000000420000003f0000003c00000039
  00354	0f 11 85 78 fb
	ff ff		 movups	 XMMWORD PTR _pAverage$[ebp+704], xmm0
  0035b	0f 28 05 00 00
	00 00		 movaps	 xmm0, XMMWORD PTR __xmm@0000004c0000004a0000004700000045
  00362	0f 11 85 88 fb
	ff ff		 movups	 XMMWORD PTR _pAverage$[ebp+720], xmm0
  00369	0f 28 05 00 00
	00 00		 movaps	 xmm0, XMMWORD PTR __xmm@0000005500000053000000510000004e
  00370	0f 11 85 98 fb
	ff ff		 movups	 XMMWORD PTR _pAverage$[ebp+736], xmm0
  00377	0f 28 05 00 00
	00 00		 movaps	 xmm0, XMMWORD PTR __xmm@00000026000000230000002000000057
  0037e	0f 11 85 a8 fb
	ff ff		 movups	 XMMWORD PTR _pAverage$[ebp+752], xmm0
  00385	0f 28 05 00 00
	00 00		 movaps	 xmm0, XMMWORD PTR __xmm@00000033000000300000002c00000029
  0038c	0f 11 85 b8 fb
	ff ff		 movups	 XMMWORD PTR _pAverage$[ebp+768], xmm0
  00393	0f 28 05 00 00
	00 00		 movaps	 xmm0, XMMWORD PTR __xmm@0000003f0000003c0000003900000036
  0039a	0f 11 85 c8 fb
	ff ff		 movups	 XMMWORD PTR _pAverage$[ebp+784], xmm0
  003a1	0f 28 05 00 00
	00 00		 movaps	 xmm0, XMMWORD PTR __xmm@0000004a000000470000004500000042
  003a8	0f 11 85 d8 fb
	ff ff		 movups	 XMMWORD PTR _pAverage$[ebp+800], xmm0
  003af	0f 28 05 00 00
	00 00		 movaps	 xmm0, XMMWORD PTR __xmm@00000053000000510000004e0000004c
  003b6	0f 11 85 e8 fb
	ff ff		 movups	 XMMWORD PTR _pAverage$[ebp+816], xmm0
  003bd	0f 28 05 00 00
	00 00		 movaps	 xmm0, XMMWORD PTR __xmm@00000019000000170000005700000055
  003c4	0f 11 85 f8 fb
	ff ff		 movups	 XMMWORD PTR _pAverage$[ebp+832], xmm0

; 596  : 		{ 23, 25, 27, 29, 31, 34, 36, 38, 39, 41, 43, 45, 47, 50, 53, 56, 60, 64, 67, 71, 74, 23, 25, 27, 29, 31, 34, 36, 38, 39, 41, 43, 45, 47, 50, 53, 56, 60, 64, 67, 71, 74 },

  003cb	0f 28 05 00 00
	00 00		 movaps	 xmm0, XMMWORD PTR __xmm@000000220000001f0000001d0000001b
  003d2	0f 11 85 08 fc
	ff ff		 movups	 XMMWORD PTR _pAverage$[ebp+848], xmm0
  003d9	0f 28 05 00 00
	00 00		 movaps	 xmm0, XMMWORD PTR __xmm@00000029000000270000002600000024
  003e0	0f 11 85 18 fc
	ff ff		 movups	 XMMWORD PTR _pAverage$[ebp+864], xmm0
  003e7	0f 28 05 00 00
	00 00		 movaps	 xmm0, XMMWORD PTR __xmm@000000320000002f0000002d0000002b
  003ee	0f 11 85 28 fc
	ff ff		 movups	 XMMWORD PTR _pAverage$[ebp+880], xmm0
  003f5	0f 28 05 00 00
	00 00		 movaps	 xmm0, XMMWORD PTR __xmm@000000400000003c0000003800000035
  003fc	0f 11 85 38 fc
	ff ff		 movups	 XMMWORD PTR _pAverage$[ebp+896], xmm0
  00403	0f 28 05 00 00
	00 00		 movaps	 xmm0, XMMWORD PTR __xmm@000000170000004a0000004700000043
  0040a	0f 11 85 48 fc
	ff ff		 movups	 XMMWORD PTR _pAverage$[ebp+912], xmm0
  00411	0f 28 05 00 00
	00 00		 movaps	 xmm0, XMMWORD PTR __xmm@0000001f0000001d0000001b00000019
  00418	0f 11 85 58 fc
	ff ff		 movups	 XMMWORD PTR _pAverage$[ebp+928], xmm0
  0041f	0f 28 05 00 00
	00 00		 movaps	 xmm0, XMMWORD PTR __xmm@00000027000000260000002400000022
  00426	0f 11 85 68 fc
	ff ff		 movups	 XMMWORD PTR _pAverage$[ebp+944], xmm0
  0042d	0f 28 05 00 00
	00 00		 movaps	 xmm0, XMMWORD PTR __xmm@0000002f0000002d0000002b00000029
  00434	0f 11 85 78 fc
	ff ff		 movups	 XMMWORD PTR _pAverage$[ebp+960], xmm0
  0043b	0f 28 05 00 00
	00 00		 movaps	 xmm0, XMMWORD PTR __xmm@0000003c000000380000003500000032
  00442	0f 11 85 88 fc
	ff ff		 movups	 XMMWORD PTR _pAverage$[ebp+976], xmm0
  00449	0f 28 05 00 00
	00 00		 movaps	 xmm0, XMMWORD PTR __xmm@0000004a000000470000004300000040
  00450	0f 11 85 98 fc
	ff ff		 movups	 XMMWORD PTR _pAverage$[ebp+992], xmm0

; 597  : 		{ 23, 24, 25, 26, 27, 29, 30, 30, 31, 32, 33, 35, 37, 39, 41, 43, 46, 48, 51, 53, 56, 23, 24, 25, 26, 27, 29, 30, 30, 31, 32, 33, 35, 37, 39, 41, 43, 46, 48, 51, 53, 56 },

  00457	0f 28 05 00 00
	00 00		 movaps	 xmm0, XMMWORD PTR __xmm@0000001a000000190000001800000017
  0045e	0f 11 85 a8 fc
	ff ff		 movups	 XMMWORD PTR _pAverage$[ebp+1008], xmm0
  00465	0f 28 05 00 00
	00 00		 movaps	 xmm0, XMMWORD PTR __xmm@0000001e0000001e0000001d0000001b
  0046c	0f 11 85 b8 fc
	ff ff		 movups	 XMMWORD PTR _pAverage$[ebp+1024], xmm0
  00473	0f 28 05 00 00
	00 00		 movaps	 xmm0, XMMWORD PTR __xmm@0000002300000021000000200000001f
  0047a	0f 11 85 c8 fc
	ff ff		 movups	 XMMWORD PTR _pAverage$[ebp+1040], xmm0
  00481	0f 28 05 00 00
	00 00		 movaps	 xmm0, XMMWORD PTR __xmm@0000002b000000290000002700000025
  00488	0f 11 85 d8 fc
	ff ff		 movups	 XMMWORD PTR _pAverage$[ebp+1056], xmm0
  0048f	0f 28 05 00 00
	00 00		 movaps	 xmm0, XMMWORD PTR __xmm@0000003500000033000000300000002e
  00496	0f 11 85 e8 fc
	ff ff		 movups	 XMMWORD PTR _pAverage$[ebp+1072], xmm0
  0049d	0f 28 05 00 00
	00 00		 movaps	 xmm0, XMMWORD PTR __xmm@00000019000000180000001700000038
  004a4	0f 11 85 f8 fc
	ff ff		 movups	 XMMWORD PTR _pAverage$[ebp+1088], xmm0
  004ab	0f 28 05 00 00
	00 00		 movaps	 xmm0, XMMWORD PTR __xmm@0000001e0000001d0000001b0000001a
  004b2	0f 11 85 08 fd
	ff ff		 movups	 XMMWORD PTR _pAverage$[ebp+1104], xmm0
  004b9	0f 28 05 00 00
	00 00		 movaps	 xmm0, XMMWORD PTR __xmm@00000021000000200000001f0000001e
  004c0	0f 11 85 18 fd
	ff ff		 movups	 XMMWORD PTR _pAverage$[ebp+1120], xmm0
  004c7	0f 28 05 00 00
	00 00		 movaps	 xmm0, XMMWORD PTR __xmm@00000029000000270000002500000023
  004ce	0f 11 85 28 fd
	ff ff		 movups	 XMMWORD PTR _pAverage$[ebp+1136], xmm0
  004d5	0f 28 05 00 00
	00 00		 movaps	 xmm0, XMMWORD PTR __xmm@00000033000000300000002e0000002b
  004dc	0f 11 85 38 fd
	ff ff		 movups	 XMMWORD PTR _pAverage$[ebp+1152], xmm0
  004e3	0f 28 05 00 00
	00 00		 movaps	 xmm0, XMMWORD PTR __xmm@00000016000000150000003800000035
  004ea	0f 11 85 48 fd
	ff ff		 movups	 XMMWORD PTR _pAverage$[ebp+1168], xmm0

; 598  : 		{ 21, 22, 23, 25, 26, 27, 28, 29, 30, 31, 32, 32, 34, 35, 36, 38, 39, 40, 42, 44, 45, 21, 22, 23, 25, 26, 27, 28, 29, 30, 31, 32, 32, 34, 35, 36, 38, 39, 40, 42, 44, 45 },

  004f1	0f 28 05 00 00
	00 00		 movaps	 xmm0, XMMWORD PTR __xmm@0000001b0000001a0000001900000017
  004f8	0f 11 85 58 fd
	ff ff		 movups	 XMMWORD PTR _pAverage$[ebp+1184], xmm0
  004ff	0f 28 05 00 00
	00 00		 movaps	 xmm0, XMMWORD PTR __xmm@0000001f0000001e0000001d0000001c
  00506	0f 11 85 68 fd
	ff ff		 movups	 XMMWORD PTR _pAverage$[ebp+1200], xmm0
  0050d	0f 28 05 00 00
	00 00		 movaps	 xmm0, XMMWORD PTR __xmm@00000023000000220000002000000020
  00514	0f 11 85 78 fd
	ff ff		 movups	 XMMWORD PTR _pAverage$[ebp+1216], xmm0
  0051b	0f 28 05 00 00
	00 00		 movaps	 xmm0, XMMWORD PTR __xmm@00000028000000270000002600000024
  00522	0f 11 85 88 fd
	ff ff		 movups	 XMMWORD PTR _pAverage$[ebp+1232], xmm0
  00529	0f 28 05 00 00
	00 00		 movaps	 xmm0, XMMWORD PTR __xmm@000000150000002d0000002c0000002a
  00530	0f 11 85 98 fd
	ff ff		 movups	 XMMWORD PTR _pAverage$[ebp+1248], xmm0
  00537	0f 28 05 00 00
	00 00		 movaps	 xmm0, XMMWORD PTR __xmm@0000001a000000190000001700000016
  0053e	0f 11 85 a8 fd
	ff ff		 movups	 XMMWORD PTR _pAverage$[ebp+1264], xmm0
  00545	0f 28 05 00 00
	00 00		 movaps	 xmm0, XMMWORD PTR __xmm@0000001e0000001d0000001c0000001b
  0054c	0f 11 85 b8 fd
	ff ff		 movups	 XMMWORD PTR _pAverage$[ebp+1280], xmm0
  00553	0f 28 05 00 00
	00 00		 movaps	 xmm0, XMMWORD PTR __xmm@0000002200000020000000200000001f
  0055a	0f 11 85 c8 fd
	ff ff		 movups	 XMMWORD PTR _pAverage$[ebp+1296], xmm0
  00561	0f 28 05 00 00
	00 00		 movaps	 xmm0, XMMWORD PTR __xmm@00000027000000260000002400000023
  00568	0f 11 85 d8 fd
	ff ff		 movups	 XMMWORD PTR _pAverage$[ebp+1312], xmm0
  0056f	0f 28 05 00 00
	00 00		 movaps	 xmm0, XMMWORD PTR __xmm@0000002d0000002c0000002a00000028
  00576	0f 11 85 e8 fd
	ff ff		 movups	 XMMWORD PTR _pAverage$[ebp+1328], xmm0

; 599  : 		{ 16, 18, 19, 21, 22, 23, 24, 25, 26, 28, 29, 30, 31, 33, 34, 35, 37, 38, 40, 41, 42, 16, 18, 19, 21, 22, 23, 24, 25, 26, 28, 29, 30, 31, 33, 34, 35, 37, 38, 40, 41, 42 },

  0057d	0f 28 05 00 00
	00 00		 movaps	 xmm0, XMMWORD PTR __xmm@00000015000000130000001200000010
  00584	0f 11 85 f8 fd
	ff ff		 movups	 XMMWORD PTR _pAverage$[ebp+1344], xmm0
  0058b	0f 28 05 00 00
	00 00		 movaps	 xmm0, XMMWORD PTR __xmm@00000019000000180000001700000016
  00592	0f 11 85 08 fe
	ff ff		 movups	 XMMWORD PTR _pAverage$[ebp+1360], xmm0
  00599	0f 28 05 00 00
	00 00		 movaps	 xmm0, XMMWORD PTR __xmm@0000001e0000001d0000001c0000001a
  005a0	0f 11 85 18 fe
	ff ff		 movups	 XMMWORD PTR _pAverage$[ebp+1376], xmm0
  005a7	0f 28 05 00 00
	00 00		 movaps	 xmm0, XMMWORD PTR __xmm@0000002300000022000000210000001f
  005ae	0f 11 85 28 fe
	ff ff		 movups	 XMMWORD PTR _pAverage$[ebp+1392], xmm0
  005b5	0f 28 05 00 00
	00 00		 movaps	 xmm0, XMMWORD PTR __xmm@00000029000000280000002600000025
  005bc	0f 11 85 38 fe
	ff ff		 movups	 XMMWORD PTR _pAverage$[ebp+1408], xmm0
  005c3	0f 28 05 00 00
	00 00		 movaps	 xmm0, XMMWORD PTR __xmm@0000001300000012000000100000002a
  005ca	0f 11 85 48 fe
	ff ff		 movups	 XMMWORD PTR _pAverage$[ebp+1424], xmm0
  005d1	0f 28 05 00 00
	00 00		 movaps	 xmm0, XMMWORD PTR __xmm@00000018000000170000001600000015
  005d8	0f 11 85 58 fe
	ff ff		 movups	 XMMWORD PTR _pAverage$[ebp+1440], xmm0
  005df	0f 28 05 00 00
	00 00		 movaps	 xmm0, XMMWORD PTR __xmm@0000001d0000001c0000001a00000019
  005e6	0f 11 85 68 fe
	ff ff		 movups	 XMMWORD PTR _pAverage$[ebp+1456], xmm0
  005ed	0f 28 05 00 00
	00 00		 movaps	 xmm0, XMMWORD PTR __xmm@00000022000000210000001f0000001e
  005f4	0f 11 85 78 fe
	ff ff		 movups	 XMMWORD PTR _pAverage$[ebp+1472], xmm0
  005fb	0f 28 05 00 00
	00 00		 movaps	 xmm0, XMMWORD PTR __xmm@00000028000000260000002500000023
  00602	0f 11 85 88 fe
	ff ff		 movups	 XMMWORD PTR _pAverage$[ebp+1488], xmm0
  00609	0f 28 05 00 00
	00 00		 movaps	 xmm0, XMMWORD PTR __xmm@0000000c0000000a0000002a00000029
  00610	0f 11 85 98 fe
	ff ff		 movups	 XMMWORD PTR _pAverage$[ebp+1504], xmm0

; 600  : 		{ 10, 12, 14, 15, 17, 19, 20, 21, 22, 23, 24, 25, 27, 28, 29, 31, 32, 34, 36, 37, 39, 10, 12, 14, 15, 17, 19, 20, 21, 22, 23, 24, 25, 27, 28, 29, 31, 32, 34, 36, 37, 39 }

  00617	0f 28 05 00 00
	00 00		 movaps	 xmm0, XMMWORD PTR __xmm@00000013000000110000000f0000000e
  0061e	0f 11 85 a8 fe
	ff ff		 movups	 XMMWORD PTR _pAverage$[ebp+1520], xmm0
  00625	0f 28 05 00 00
	00 00		 movaps	 xmm0, XMMWORD PTR __xmm@00000017000000160000001500000014
  0062c	0f 11 85 b8 fe
	ff ff		 movups	 XMMWORD PTR _pAverage$[ebp+1536], xmm0
  00633	0f 28 05 00 00
	00 00		 movaps	 xmm0, XMMWORD PTR __xmm@0000001c0000001b0000001900000018
  0063a	0f 11 85 c8 fe
	ff ff		 movups	 XMMWORD PTR _pAverage$[ebp+1552], xmm0
  00641	0f 28 05 00 00
	00 00		 movaps	 xmm0, XMMWORD PTR __xmm@00000022000000200000001f0000001d
  00648	0f 11 85 d8 fe
	ff ff		 movups	 XMMWORD PTR _pAverage$[ebp+1568], xmm0
  0064f	0f 28 05 00 00
	00 00		 movaps	 xmm0, XMMWORD PTR __xmm@0000000a000000270000002500000024
  00656	0f 11 85 e8 fe
	ff ff		 movups	 XMMWORD PTR _pAverage$[ebp+1584], xmm0
  0065d	0f 28 05 00 00
	00 00		 movaps	 xmm0, XMMWORD PTR __xmm@000000110000000f0000000e0000000c
  00664	0f 11 85 f8 fe
	ff ff		 movups	 XMMWORD PTR _pAverage$[ebp+1600], xmm0
  0066b	0f 28 05 00 00
	00 00		 movaps	 xmm0, XMMWORD PTR __xmm@00000016000000150000001400000013

; 601  : 	};
; 602  : 
; 603  : 
; 604  : 	// 
; 605  : 	int	trade[SAMPLE_BONG_COUNT] = { 32, 25, 21, 19, 18, 17, 23, 19, 18, 22, 22, 24, 19, 22, 19, 18, 18, 17, 18, 17, 18,
; 606  : 					  32, 25, 21, 19, 18, 17, 23, 19, 18, 22, 22, 24, 19, 22, 19, 18, 18, 17, 18, 17, 18 };
; 607  : 
; 608  : 	//  
; 609  : 	int tAverage[6][SAMPLE_BONG_COUNT] =
; 610  : 	{
; 611  : 		{ 56, 48, 26, 22, 19, 18, 19, 20, 20, 20, 21, 23, 22, 22, 20, 20, 18, 18, 18, 18, 18, 56, 48, 26, 22, 19, 18, 19, 20, 20, 20, 21, 23, 22, 22, 20, 20, 18, 18, 18, 18, 18 },
; 612  : 		{ 36, 38, 38, 39, 34, 22, 21, 20, 19, 20, 20, 21, 21, 21, 21, 21, 20, 19, 19, 18, 18, 36, 38, 38, 39, 34, 22, 21, 20, 19, 20, 20, 21, 21, 21, 21, 21, 20, 19, 19, 18, 18 },
; 613  : 		{ 30, 30, 31, 31, 32, 32, 32, 29, 21, 20, 20, 20, 20, 21, 21, 20, 20, 20, 20, 19, 19, 30, 30, 31, 31, 32, 32, 32, 29, 21, 20, 20, 20, 20, 21, 21, 20, 20, 20, 20, 19, 19 },
; 614  : 		{ 27, 28, 28, 28, 28, 28, 28, 29, 29, 29, 27, 22, 21, 20, 20, 20, 20, 20, 20, 20, 20, 27, 28, 28, 28, 28, 28, 28, 29, 29, 29, 27, 22, 21, 20, 20, 20, 20, 20, 20, 20, 20 },
; 615  : 		{ 25, 26, 26, 26, 26, 26, 26, 26, 26, 27, 27, 28, 28, 26, 21, 20, 20, 20, 20, 20, 20, 25, 26, 26, 26, 26, 26, 26, 26, 26, 27, 27, 28, 28, 26, 21, 20, 20, 20, 20, 20, 20 },
; 616  : 		{ 24, 24, 24, 25, 25, 25, 25, 25, 25, 25, 25, 26, 26, 26, 26, 26, 25, 21, 20, 20, 19, 24, 24, 24, 25, 25, 25, 25, 25, 25, 25, 25, 26, 26, 26, 26, 26, 25, 21, 20, 20, 19 }
; 617  : 	};
; 618  : 
; 619  : 	// (2009/9/21 - Seung-Won, Bae) for FX
; 620  : 	double dFactor = double( p_rctArea.Height() - 20) / 257;
; 621  : 	if( CChartInfo::FX == p_eChartMode)

  00672	83 7d 20 02	 cmp	 DWORD PTR _p_eChartMode$[ebp], 2
  00676	8d bd 28 f2 ff
	ff		 lea	 edi, DWORD PTR _tAverage$[ebp]
  0067c	0f 28 ca	 movaps	 xmm1, xmm2
  0067f	c7 45 e8 11 00
	00 00		 mov	 DWORD PTR _trade$[ebp+160], 17 ; 00000011H
  00686	f2 0f 5e 0d 00
	00 00 00	 divsd	 xmm1, QWORD PTR __real@4070100000000000
  0068e	b9 fc 00 00 00	 mov	 ecx, 252		; 000000fcH
  00693	be 00 00 00 00	 mov	 esi, OFFSET __static@9f1ce107946bb4ffb917fa77c4eee34eb2dcf07061f32d7ec058c6da1572a6a4
  00698	c7 45 ec 12 00
	00 00		 mov	 DWORD PTR _trade$[ebp+164], 18 ; 00000012H
  0069f	0f 11 85 08 ff
	ff ff		 movups	 XMMWORD PTR _pAverage$[ebp+1616], xmm0
  006a6	0f 28 05 00 00
	00 00		 movaps	 xmm0, XMMWORD PTR __xmm@0000001b000000190000001800000017
  006ad	0f 11 85 18 ff
	ff ff		 movups	 XMMWORD PTR _pAverage$[ebp+1632], xmm0
  006b4	0f 28 05 00 00
	00 00		 movaps	 xmm0, XMMWORD PTR __xmm@000000200000001f0000001d0000001c
  006bb	0f 11 85 28 ff
	ff ff		 movups	 XMMWORD PTR _pAverage$[ebp+1648], xmm0
  006c2	0f 28 05 00 00
	00 00		 movaps	 xmm0, XMMWORD PTR __xmm@00000027000000250000002400000022
  006c9	0f 11 85 38 ff
	ff ff		 movups	 XMMWORD PTR _pAverage$[ebp+1664], xmm0
  006d0	0f 28 05 00 00
	00 00		 movaps	 xmm0, XMMWORD PTR __xmm@00000013000000150000001900000020
  006d7	0f 11 85 48 ff
	ff ff		 movups	 XMMWORD PTR _trade$[ebp], xmm0
  006de	0f 28 05 00 00
	00 00		 movaps	 xmm0, XMMWORD PTR __xmm@00000013000000170000001100000012
  006e5	0f 11 85 58 ff
	ff ff		 movups	 XMMWORD PTR _trade$[ebp+16], xmm0
  006ec	0f 28 05 00 00
	00 00		 movaps	 xmm0, XMMWORD PTR __xmm@00000018000000160000001600000012
  006f3	0f 11 85 68 ff
	ff ff		 movups	 XMMWORD PTR _trade$[ebp+32], xmm0
  006fa	0f 28 05 00 00
	00 00		 movaps	 xmm0, XMMWORD PTR __xmm@00000012000000130000001600000013
  00701	0f 11 85 78 ff
	ff ff		 movups	 XMMWORD PTR _trade$[ebp+48], xmm0
  00708	0f 28 05 00 00
	00 00		 movaps	 xmm0, XMMWORD PTR __xmm@00000011000000120000001100000012
  0070f	0f 11 45 88	 movups	 XMMWORD PTR _trade$[ebp+64], xmm0
  00713	0f 28 05 00 00
	00 00		 movaps	 xmm0, XMMWORD PTR __xmm@00000015000000190000002000000012
  0071a	0f 11 45 98	 movups	 XMMWORD PTR _trade$[ebp+80], xmm0
  0071e	0f 28 05 00 00
	00 00		 movaps	 xmm0, XMMWORD PTR __xmm@00000017000000110000001200000013
  00725	0f 11 45 a8	 movups	 XMMWORD PTR _trade$[ebp+96], xmm0
  00729	0f 28 05 00 00
	00 00		 movaps	 xmm0, XMMWORD PTR __xmm@00000016000000160000001200000013
  00730	0f 11 45 b8	 movups	 XMMWORD PTR _trade$[ebp+112], xmm0
  00734	0f 28 05 00 00
	00 00		 movaps	 xmm0, XMMWORD PTR __xmm@00000013000000160000001300000018
  0073b	0f 11 45 c8	 movups	 XMMWORD PTR _trade$[ebp+128], xmm0
  0073f	0f 28 05 00 00
	00 00		 movaps	 xmm0, XMMWORD PTR __xmm@00000012000000110000001200000012
  00746	0f 11 45 d8	 movups	 XMMWORD PTR _trade$[ebp+144], xmm0
  0074a	f3 a5		 rep movsd
  0074c	f2 0f 11 8d c0
	f1 ff ff	 movsd	 QWORD PTR _dFactor$1$[ebp], xmm1
  00754	75 1b		 jne	 SHORT $LN14@DrawSample

; 622  : 	{
; 623  : 		rectTrade.top = rectTrade.bottom;
; 624  : 		rectPrice.bottom = rectTrade.bottom;
; 625  : 		dFactor = double( p_rctArea.Height() - 20) / 170;

  00756	0f 28 ca	 movaps	 xmm1, xmm2
  00759	89 95 e8 f1 ff
	ff		 mov	 DWORD PTR _rectTrade$[ebp+4], edx
  0075f	f2 0f 5e cb	 divsd	 xmm1, xmm3
  00763	89 95 00 f2 ff
	ff		 mov	 DWORD PTR _rectPrice$[ebp+12], edx
  00769	f2 0f 11 8d c0
	f1 ff ff	 movsd	 QWORD PTR _dFactor$1$[ebp], xmm1
$LN14@DrawSample:

; 626  : 	}
; 627  : 
; 628  : 	for( int i = 0; i < SAMPLE_BONG_COUNT; i++)

  00771	8b ca		 mov	 ecx, edx
  00773	8d 85 18 f6 ff
	ff		 lea	 eax, DWORD PTR _price$[ebp]
  00779	0f 45 8d 14 f2
	ff ff		 cmovne	 ecx, DWORD PTR _b$1$[ebp]
  00780	33 ff		 xor	 edi, edi
  00782	89 8d d0 f1 ff
	ff		 mov	 DWORD PTR tv2202[ebp], ecx
  00788	89 85 14 f2 ff
	ff		 mov	 DWORD PTR tv2142[ebp], eax
  0078e	66 90		 npad	 2
$LL4@DrawSample:

; 629  : 	{
; 630  : 		for( int j = 0; j < 10; j++)

  00790	33 d2		 xor	 edx, edx
  00792	8b f0		 mov	 esi, eax
  00794	8b cf		 mov	 ecx, edi
$LL7@DrawSample:

; 631  : 		{
; 632  : 			if( j < 1) trade[ i] = int( dFactor * trade[ i]);

  00796	81 ff a8 00 00
	00		 cmp	 edi, 168		; 000000a8H
  0079c	7d 1e		 jge	 SHORT $LN15@DrawSample
  0079e	66 0f 6e 84 95
	48 ff ff ff	 movd	 xmm0, DWORD PTR _trade$[ebp+edx*4]
  007a7	f3 0f e6 c0	 cvtdq2pd xmm0, xmm0
  007ab	f2 0f 59 c1	 mulsd	 xmm0, xmm1
  007af	f2 0f 2c c0	 cvttsd2si eax, xmm0
  007b3	89 84 95 48 ff
	ff ff		 mov	 DWORD PTR _trade$[ebp+edx*4], eax
  007ba	eb 08		 jmp	 SHORT $LN71@DrawSample
$LN15@DrawSample:

; 633  : 			if( j < 4) price[ i][ j] = int( dFactor * price[ i][ j]);

  007bc	81 ff a0 02 00
	00		 cmp	 edi, 672		; 000002a0H
  007c2	7d 14		 jge	 SHORT $LN16@DrawSample
$LN71@DrawSample:
  007c4	66 0f 6e 06	 movd	 xmm0, DWORD PTR [esi]
  007c8	f3 0f e6 c0	 cvtdq2pd xmm0, xmm0
  007cc	f2 0f 59 c1	 mulsd	 xmm0, xmm1
  007d0	f2 0f 2c c0	 cvttsd2si eax, xmm0
  007d4	89 06		 mov	 DWORD PTR [esi], eax
  007d6	eb 08		 jmp	 SHORT $LN70@DrawSample
$LN16@DrawSample:

; 634  : 			if( j < 6) tAverage[ j][ i] = int( dFactor * tAverage[ j][ i]);

  007d8	81 ff f0 03 00
	00		 cmp	 edi, 1008		; 000003f0H
  007de	7d 1c		 jge	 SHORT $LN17@DrawSample
$LN70@DrawSample:
  007e0	66 0f 6e 84 0d
	28 f2 ff ff	 movd	 xmm0, DWORD PTR _tAverage$[ebp+ecx]
  007e9	f3 0f e6 c0	 cvtdq2pd xmm0, xmm0
  007ed	f2 0f 59 c1	 mulsd	 xmm0, xmm1
  007f1	f2 0f 2c c0	 cvttsd2si eax, xmm0
  007f5	89 84 0d 28 f2
	ff ff		 mov	 DWORD PTR _tAverage$[ebp+ecx], eax
$LN17@DrawSample:

; 629  : 	{
; 630  : 		for( int j = 0; j < 10; j++)

  007fc	66 0f 6e 84 0d
	b8 f8 ff ff	 movd	 xmm0, DWORD PTR _pAverage$[ebp+ecx]
  00805	42		 inc	 edx

; 635  : 			pAverage[ j][ i] = int( dFactor * pAverage[ j][ i]);

  00806	f3 0f e6 c0	 cvtdq2pd xmm0, xmm0
  0080a	83 c6 10	 add	 esi, 16			; 00000010H
  0080d	f2 0f 59 c1	 mulsd	 xmm0, xmm1
  00811	f2 0f 2c c0	 cvttsd2si eax, xmm0
  00815	89 84 0d b8 f8
	ff ff		 mov	 DWORD PTR _pAverage$[ebp+ecx], eax
  0081c	83 c1 04	 add	 ecx, 4
  0081f	83 fa 2a	 cmp	 edx, 42			; 0000002aH
  00822	0f 8c 6e ff ff
	ff		 jl	 $LL7@DrawSample

; 626  : 	}
; 627  : 
; 628  : 	for( int i = 0; i < SAMPLE_BONG_COUNT; i++)

  00828	8b 85 14 f2 ff
	ff		 mov	 eax, DWORD PTR tv2142[ebp]
  0082e	81 c7 a8 00 00
	00		 add	 edi, 168		; 000000a8H
  00834	83 c0 04	 add	 eax, 4
  00837	89 85 14 f2 ff
	ff		 mov	 DWORD PTR tv2142[ebp], eax
  0083d	81 ff 90 06 00
	00		 cmp	 edi, 1680		; 00000690H
  00843	0f 8c 47 ff ff
	ff		 jl	 $LL4@DrawSample

; 636  : 		}
; 637  : 	}
; 638  : 
; 639  : 	DrawScale( pDC, rectScale, rectPrice, rectTrade, p_pStyleData, p_pTitleFont, p_eChartMode, dFactor);

  00849	8b bd 04 f2 ff
	ff		 mov	 edi, DWORD PTR _p_pStyleData$GSCopy$1$[ebp]
  0084f	83 ec 08	 sub	 esp, 8
  00852	0f 10 85 e4 f1
	ff ff		 movups	 xmm0, XMMWORD PTR _rectTrade$[ebp]
  00859	8b 8d 0c f2 ff
	ff		 mov	 ecx, DWORD PTR _this$1$[ebp]
  0085f	f2 0f 11 0c 24	 movsd	 QWORD PTR [esp], xmm1
  00864	ff 75 20	 push	 DWORD PTR _p_eChartMode$[ebp]
  00867	ff b5 08 f2 ff
	ff		 push	 DWORD PTR _p_pTitleFont$GSCopy$1$[ebp]
  0086d	57		 push	 edi
  0086e	83 ec 10	 sub	 esp, 16			; 00000010H
  00871	8b c4		 mov	 eax, esp
  00873	83 ec 10	 sub	 esp, 16			; 00000010H
  00876	0f 11 00	 movups	 XMMWORD PTR [eax], xmm0
  00879	8b c4		 mov	 eax, esp
  0087b	83 ec 10	 sub	 esp, 16			; 00000010H
  0087e	0f 10 85 f4 f1
	ff ff		 movups	 xmm0, XMMWORD PTR _rectPrice$[ebp]
  00885	0f 11 00	 movups	 XMMWORD PTR [eax], xmm0
  00888	8b c4		 mov	 eax, esp
  0088a	0f 10 45 0c	 movups	 xmm0, XMMWORD PTR _p_rctArea$[ebp]
  0088e	ff b5 10 f2 ff
	ff		 push	 DWORD PTR _pDC$GSCopy$1$[ebp]
  00894	0f 11 00	 movups	 XMMWORD PTR [eax], xmm0
  00897	e8 00 00 00 00	 call	 ?DrawScale@CStyleDataManager@@QAEXPAVCDC@@VCRect@@11PAVCStyleData@@PAVCFont@@W4CHART_MODE@CChartInfo@@N@Z ; CStyleDataManager::DrawScale

; 640  : 	DrawGraph( pDC,  rectPrice, rectTrade, p_pStyleData, p_eChartMode);

  0089c	0f 10 85 f4 f1
	ff ff		 movups	 xmm0, XMMWORD PTR _rectPrice$[ebp]

; 748  : 	COLORREF bgColor		= p_pStyleData->GetGraphBGColor();

  008a3	8b cf		 mov	 ecx, edi

; 640  : 	DrawGraph( pDC,  rectPrice, rectTrade, p_pStyleData, p_eChartMode);

  008a5	0f 11 85 18 f2
	ff ff		 movups	 XMMWORD PTR _rect1$[ebp], xmm0

; 748  : 	COLORREF bgColor		= p_pStyleData->GetGraphBGColor();

  008ac	e8 00 00 00 00	 call	 ?GetGraphBGColor@CStyleData@@QBEKXZ ; CStyleData::GetGraphBGColor

; 749  : 	COLORREF borderColor	= p_pStyleData->GetGraphBorderColor();

  008b1	8b cf		 mov	 ecx, edi
  008b3	8b f0		 mov	 esi, eax
  008b5	e8 00 00 00 00	 call	 ?GetGraphBorderColor@CStyleData@@QBEKXZ ; CStyleData::GetGraphBorderColor

; 750  : 
; 751  : 	CPen pen(PS_SOLID, 1, borderColor);

  008ba	50		 push	 eax
  008bb	6a 01		 push	 1
  008bd	6a 00		 push	 0
  008bf	8d 8d d4 f1 ff
	ff		 lea	 ecx, DWORD PTR _pen$2[ebp]
  008c5	e8 00 00 00 00	 call	 ??0CPen@@QAE@HHK@Z	; CPen::CPen

; 752  : 	CBrush brush(bgColor);

  008ca	56		 push	 esi
  008cb	8d 8d dc f1 ff
	ff		 lea	 ecx, DWORD PTR _brush$3[ebp]
  008d1	c7 45 fc 00 00
	00 00		 mov	 DWORD PTR __$EHRec$[ebp+8], 0
  008d8	e8 00 00 00 00	 call	 ??0CBrush@@QAE@K@Z	; CBrush::CBrush

; 753  : 	CPen* pOldPen = pDC->SelectObject(&pen);

  008dd	8b b5 10 f2 ff
	ff		 mov	 esi, DWORD PTR _pDC$GSCopy$1$[ebp]
  008e3	8d 85 d4 f1 ff
	ff		 lea	 eax, DWORD PTR _pen$2[ebp]
  008e9	50		 push	 eax
  008ea	8b ce		 mov	 ecx, esi
  008ec	c6 45 fc 01	 mov	 BYTE PTR __$EHRec$[ebp+8], 1
  008f0	e8 00 00 00 00	 call	 ?SelectObject@CDC@@QAEPAVCPen@@PAV2@@Z ; CDC::SelectObject
  008f5	89 85 04 f2 ff
	ff		 mov	 DWORD PTR _pOldPen$1$[ebp], eax

; 754  : 	CBrush* pOldBrush = pDC->SelectObject(&brush);

  008fb	8b ce		 mov	 ecx, esi
  008fd	8d 85 dc f1 ff
	ff		 lea	 eax, DWORD PTR _brush$3[ebp]
  00903	50		 push	 eax
  00904	e8 00 00 00 00	 call	 ?SelectObject@CDC@@QAEPAVCBrush@@PAV2@@Z ; CDC::SelectObject

; 755  : 
; 756  : 	// 1. 2     .
; 757  : 	rect1.bottom += 1; 

  00909	8b 8d d0 f1 ff
	ff		 mov	 ecx, DWORD PTR tv2202[ebp]
  0090f	41		 inc	 ecx
  00910	89 85 10 f2 ff
	ff		 mov	 DWORD PTR _pOldBrush$1$[ebp], eax
  00916	89 8d 24 f2 ff
	ff		 mov	 DWORD PTR _rect1$[ebp+12], ecx

; 758  : 	DrawRect( pDC, rect1 );

  0091c	41		 inc	 ecx
  0091d	0f 10 85 18 f2
	ff ff		 movups	 xmm0, XMMWORD PTR _rect1$[ebp]
; File C:\Program Files (x86)\Microsoft Visual Studio\2019\Community\VC\Tools\MSVC\14.29.30133\atlmfc\include\afxwin1.inl

; 541  : 	{ ASSERT(m_hDC != NULL); return ::Rectangle(m_hDC, lpRect->left, lpRect->top,

  00924	51		 push	 ecx
; File D:\git\src\IBK\IBK_DRFN\ProjSrc\SrcChartEx\ChartAddIn\ChartEnvSetupDlgAddIn\ChartEnvSetupDlgAddIn\StyleDataManager.cpp

; 758  : 	DrawRect( pDC, rect1 );

  00925	0f 11 85 18 f2
	ff ff		 movups	 XMMWORD PTR _rect$[ebp], xmm0
; File C:\Program Files (x86)\Microsoft Visual Studio\2019\Community\VC\Tools\MSVC\14.29.30133\atlmfc\include\afxwin1.inl

; 541  : 	{ ASSERT(m_hDC != NULL); return ::Rectangle(m_hDC, lpRect->left, lpRect->top,

  0092c	ff b5 20 f2 ff
	ff		 push	 DWORD PTR _rect$[ebp+8]
  00932	ff b5 1c f2 ff
	ff		 push	 DWORD PTR _rect$[ebp+4]
  00938	ff b5 18 f2 ff
	ff		 push	 DWORD PTR _rect$[ebp]
  0093e	ff 76 04	 push	 DWORD PTR [esi+4]
  00941	ff 15 00 00 00
	00		 call	 DWORD PTR __imp__Rectangle@20
; File D:\git\src\IBK\IBK_DRFN\ProjSrc\SrcChartEx\ChartAddIn\ChartEnvSetupDlgAddIn\ChartEnvSetupDlgAddIn\StyleDataManager.cpp

; 760  : 	if( CChartInfo::FX != p_eChartMode)

  00947	83 7d 20 02	 cmp	 DWORD PTR _p_eChartMode$[ebp], 2
  0094b	74 31		 je	 SHORT $LN34@DrawSample

; 761  : 		DrawRect( pDC, rect2 );

  0094d	0f 10 85 e4 f1
	ff ff		 movups	 xmm0, XMMWORD PTR _rectTrade$[ebp]

; 1234 : 	rect.bottom += 1;

  00954	8b 85 cc f1 ff
	ff		 mov	 eax, DWORD PTR _b$1$[ebp]
  0095a	40		 inc	 eax
; File C:\Program Files (x86)\Microsoft Visual Studio\2019\Community\VC\Tools\MSVC\14.29.30133\atlmfc\include\afxwin1.inl

; 541  : 	{ ASSERT(m_hDC != NULL); return ::Rectangle(m_hDC, lpRect->left, lpRect->top,

  0095b	50		 push	 eax
; File D:\git\src\IBK\IBK_DRFN\ProjSrc\SrcChartEx\ChartAddIn\ChartEnvSetupDlgAddIn\ChartEnvSetupDlgAddIn\StyleDataManager.cpp

; 761  : 		DrawRect( pDC, rect2 );

  0095c	0f 11 85 18 f2
	ff ff		 movups	 XMMWORD PTR _rect$[ebp], xmm0
; File C:\Program Files (x86)\Microsoft Visual Studio\2019\Community\VC\Tools\MSVC\14.29.30133\atlmfc\include\afxwin1.inl

; 541  : 	{ ASSERT(m_hDC != NULL); return ::Rectangle(m_hDC, lpRect->left, lpRect->top,

  00963	ff b5 20 f2 ff
	ff		 push	 DWORD PTR _rect$[ebp+8]
  00969	ff b5 1c f2 ff
	ff		 push	 DWORD PTR _rect$[ebp+4]
  0096f	ff b5 18 f2 ff
	ff		 push	 DWORD PTR _rect$[ebp]
  00975	ff 76 04	 push	 DWORD PTR [esi+4]
  00978	ff 15 00 00 00
	00		 call	 DWORD PTR __imp__Rectangle@20
$LN34@DrawSample:
; File D:\git\src\IBK\IBK_DRFN\ProjSrc\SrcChartEx\ChartAddIn\ChartEnvSetupDlgAddIn\ChartEnvSetupDlgAddIn\StyleDataManager.cpp

; 763  : 	pDC->SelectObject( pOldPen );

  0097e	ff b5 04 f2 ff
	ff		 push	 DWORD PTR _pOldPen$1$[ebp]
  00984	8b ce		 mov	 ecx, esi
  00986	e8 00 00 00 00	 call	 ?SelectObject@CDC@@QAEPAVCPen@@PAV2@@Z ; CDC::SelectObject

; 764  : 	pDC->SelectObject( pOldBrush );

  0098b	ff b5 10 f2 ff
	ff		 push	 DWORD PTR _pOldBrush$1$[ebp]
  00991	8b ce		 mov	 ecx, esi
  00993	e8 00 00 00 00	 call	 ?SelectObject@CDC@@QAEPAVCBrush@@PAV2@@Z ; CDC::SelectObject

; 765  : 	pen.DeleteObject();

  00998	8d 8d d4 f1 ff
	ff		 lea	 ecx, DWORD PTR _pen$2[ebp]
  0099e	e8 00 00 00 00	 call	 ?DeleteObject@CGdiObject@@QAEHXZ ; CGdiObject::DeleteObject

; 766  : 	brush.DeleteObject();

  009a3	8d 8d dc f1 ff
	ff		 lea	 ecx, DWORD PTR _brush$3[ebp]
  009a9	e8 00 00 00 00	 call	 ?DeleteObject@CGdiObject@@QAEHXZ ; CGdiObject::DeleteObject
; File C:\Program Files (x86)\Microsoft Visual Studio\2019\Community\VC\Tools\MSVC\14.29.30133\atlmfc\include\afxwin1.inl

; 130  : 	{ }

  009ae	8d 8d dc f1 ff
	ff		 lea	 ecx, DWORD PTR _brush$3[ebp]
  009b4	c7 85 dc f1 ff
	ff 00 00 00 00	 mov	 DWORD PTR _brush$3[ebp], OFFSET ??_7CBrush@@6B@
  009be	e8 00 00 00 00	 call	 ??1CGdiObject@@UAE@XZ	; CGdiObject::~CGdiObject

; 106  : 	{ }

  009c3	8d 8d d4 f1 ff
	ff		 lea	 ecx, DWORD PTR _pen$2[ebp]
; File D:\git\src\IBK\IBK_DRFN\ProjSrc\SrcChartEx\ChartAddIn\ChartEnvSetupDlgAddIn\ChartEnvSetupDlgAddIn\StyleDataManager.cpp

; 767  : }

  009c9	c7 45 fc ff ff
	ff ff		 mov	 DWORD PTR __$EHRec$[ebp+8], -1
; File C:\Program Files (x86)\Microsoft Visual Studio\2019\Community\VC\Tools\MSVC\14.29.30133\atlmfc\include\afxwin1.inl

; 106  : 	{ }

  009d0	c7 85 d4 f1 ff
	ff 00 00 00 00	 mov	 DWORD PTR _pen$2[ebp], OFFSET ??_7CPen@@6B@
  009da	e8 00 00 00 00	 call	 ??1CGdiObject@@UAE@XZ	; CGdiObject::~CGdiObject
; File D:\git\src\IBK\IBK_DRFN\ProjSrc\SrcChartEx\ChartAddIn\ChartEnvSetupDlgAddIn\ChartEnvSetupDlgAddIn\StyleDataManager.cpp

; 641  : 	DrawGraphGrid( pDC,  rectPrice, rectTrade, p_pStyleData);

  009df	0f 10 85 e4 f1
	ff ff		 movups	 xmm0, XMMWORD PTR _rectTrade$[ebp]
  009e6	8b 8d 0c f2 ff
	ff		 mov	 ecx, DWORD PTR _this$1$[ebp]
  009ec	57		 push	 edi
  009ed	83 ec 10	 sub	 esp, 16			; 00000010H
  009f0	8b c4		 mov	 eax, esp
  009f2	83 ec 10	 sub	 esp, 16			; 00000010H
  009f5	0f 11 00	 movups	 XMMWORD PTR [eax], xmm0
  009f8	8b c4		 mov	 eax, esp
  009fa	0f 10 85 f4 f1
	ff ff		 movups	 xmm0, XMMWORD PTR _rectPrice$[ebp]
  00a01	56		 push	 esi
  00a02	0f 11 00	 movups	 XMMWORD PTR [eax], xmm0
  00a05	e8 00 00 00 00	 call	 ?DrawGraphGrid@CStyleDataManager@@QAEXPAVCDC@@VCRect@@1PAVCStyleData@@@Z ; CStyleDataManager::DrawGraphGrid

; 642  : 	DrawScaleGrid( pDC,  rectPrice, rectTrade, p_pStyleData, p_eChartMode, dFactor);

  00a0a	f2 0f 10 85 c0
	f1 ff ff	 movsd	 xmm0, QWORD PTR _dFactor$1$[ebp]
  00a12	83 ec 08	 sub	 esp, 8
  00a15	8b 8d 0c f2 ff
	ff		 mov	 ecx, DWORD PTR _this$1$[ebp]
  00a1b	f2 0f 11 04 24	 movsd	 QWORD PTR [esp], xmm0
  00a20	ff 75 20	 push	 DWORD PTR _p_eChartMode$[ebp]
  00a23	0f 10 85 e4 f1
	ff ff		 movups	 xmm0, XMMWORD PTR _rectTrade$[ebp]
  00a2a	57		 push	 edi
  00a2b	83 ec 10	 sub	 esp, 16			; 00000010H
  00a2e	8b c4		 mov	 eax, esp
  00a30	83 ec 10	 sub	 esp, 16			; 00000010H
  00a33	0f 11 00	 movups	 XMMWORD PTR [eax], xmm0
  00a36	8b c4		 mov	 eax, esp
  00a38	0f 10 85 f4 f1
	ff ff		 movups	 xmm0, XMMWORD PTR _rectPrice$[ebp]
  00a3f	56		 push	 esi
  00a40	0f 11 00	 movups	 XMMWORD PTR [eax], xmm0
  00a43	e8 00 00 00 00	 call	 ?DrawScaleGrid@CStyleDataManager@@QAEXPAVCDC@@VCRect@@1PAVCStyleData@@W4CHART_MODE@CChartInfo@@N@Z ; CStyleDataManager::DrawScaleGrid

; 643  : 	DrawTitle( pDC,  rectPrice, rectTrade, p_pStyleData, p_pTitleFont, p_hOcxWnd, p_eChartMode);

  00a48	ff 75 20	 push	 DWORD PTR _p_eChartMode$[ebp]
  00a4b	0f 10 85 e4 f1
	ff ff		 movups	 xmm0, XMMWORD PTR _rectTrade$[ebp]
  00a52	8b 8d 0c f2 ff
	ff		 mov	 ecx, DWORD PTR _this$1$[ebp]
  00a58	ff b5 c8 f1 ff
	ff		 push	 DWORD PTR _p_hOcxWnd$GSCopy$1$[ebp]
  00a5e	ff b5 08 f2 ff
	ff		 push	 DWORD PTR _p_pTitleFont$GSCopy$1$[ebp]
  00a64	57		 push	 edi
  00a65	83 ec 10	 sub	 esp, 16			; 00000010H
  00a68	8b c4		 mov	 eax, esp
  00a6a	83 ec 10	 sub	 esp, 16			; 00000010H
  00a6d	0f 11 00	 movups	 XMMWORD PTR [eax], xmm0
  00a70	8b c4		 mov	 eax, esp
  00a72	0f 10 85 f4 f1
	ff ff		 movups	 xmm0, XMMWORD PTR _rectPrice$[ebp]
  00a79	56		 push	 esi
  00a7a	0f 11 00	 movups	 XMMWORD PTR [eax], xmm0
  00a7d	e8 00 00 00 00	 call	 ?DrawTitle@CStyleDataManager@@QAEXPAVCDC@@VCRect@@1PAVCStyleData@@PAVCFont@@PAUHWND__@@W4CHART_MODE@CChartInfo@@@Z ; CStyleDataManager::DrawTitle

; 644  : 
; 645  : 	//sy 2005.04.19.
; 646  : 	DrawBong( pDC,  rectPrice, price,

  00a82	ff 75 2c	 push	 DWORD PTR _p_nDrawCount$[ebp]
  00a85	8b cf		 mov	 ecx, edi
  00a87	e8 00 00 00 00	 call	 ?GetPriceDownFill@CStyleData@@QBE_NXZ ; CStyleData::GetPriceDownFill
  00a8c	0f b6 c0	 movzx	 eax, al
  00a8f	8b cf		 mov	 ecx, edi
  00a91	50		 push	 eax
  00a92	e8 00 00 00 00	 call	 ?GetPriceUpFill@CStyleData@@QBE_NXZ ; CStyleData::GetPriceUpFill
  00a97	0f b6 c0	 movzx	 eax, al
  00a9a	8b cf		 mov	 ecx, edi
  00a9c	50		 push	 eax
  00a9d	e8 00 00 00 00	 call	 ?GetPriceEqualColor@CStyleData@@QBEKXZ ; CStyleData::GetPriceEqualColor
  00aa2	50		 push	 eax
  00aa3	8b cf		 mov	 ecx, edi
  00aa5	e8 00 00 00 00	 call	 ?GetPriceDownColor@CStyleData@@QBEKXZ ; CStyleData::GetPriceDownColor
  00aaa	50		 push	 eax
  00aab	8b cf		 mov	 ecx, edi
  00aad	e8 00 00 00 00	 call	 ?GetPriceUpColor@CStyleData@@QBEKXZ ; CStyleData::GetPriceUpColor
  00ab2	50		 push	 eax
  00ab3	8d 85 18 f6 ff
	ff		 lea	 eax, DWORD PTR _price$[ebp]
  00ab9	50		 push	 eax
  00aba	83 ec 10	 sub	 esp, 16			; 00000010H
  00abd	0f 10 85 f4 f1
	ff ff		 movups	 xmm0, XMMWORD PTR _rectPrice$[ebp]
  00ac4	8b 8d 0c f2 ff
	ff		 mov	 ecx, DWORD PTR _this$1$[ebp]
  00aca	8b c4		 mov	 eax, esp
  00acc	56		 push	 esi
  00acd	0f 11 00	 movups	 XMMWORD PTR [eax], xmm0
  00ad0	e8 00 00 00 00	 call	 ?DrawBong@CStyleDataManager@@QAEXPAVCDC@@VCRect@@PAY03HKKKHHH@Z ; CStyleDataManager::DrawBong

; 647  : 			p_pStyleData->GetPriceUpColor(), p_pStyleData->GetPriceDownColor(), p_pStyleData->GetPriceEqualColor(), 
; 648  : 			p_pStyleData->GetPriceUpFill(), p_pStyleData->GetPriceDownFill(), p_nDrawCount);
; 649  : 	// (2009/9/21 - Seung-Won, Bae) for FX
; 650  : 	if( CChartInfo::FX != p_eChartMode)

  00ad5	83 7d 20 02	 cmp	 DWORD PTR _p_eChartMode$[ebp], 2
  00ad9	74 53		 je	 SHORT $LN18@DrawSample

; 651  : 		DrawBar( pDC,  rectTrade, trade,

  00adb	ff 75 2c	 push	 DWORD PTR _p_nDrawCount$[ebp]
  00ade	8b cf		 mov	 ecx, edi
  00ae0	e8 00 00 00 00	 call	 ?GetTradeDownFill@CStyleData@@QBE_NXZ ; CStyleData::GetTradeDownFill
  00ae5	0f b6 c0	 movzx	 eax, al
  00ae8	8b cf		 mov	 ecx, edi
  00aea	50		 push	 eax
  00aeb	e8 00 00 00 00	 call	 ?GetTradeUpFill@CStyleData@@QBE_NXZ ; CStyleData::GetTradeUpFill
  00af0	0f b6 c0	 movzx	 eax, al
  00af3	8b cf		 mov	 ecx, edi
  00af5	50		 push	 eax
  00af6	e8 00 00 00 00	 call	 ?GetTradeEqualColor@CStyleData@@QBEKXZ ; CStyleData::GetTradeEqualColor
  00afb	50		 push	 eax
  00afc	8b cf		 mov	 ecx, edi
  00afe	e8 00 00 00 00	 call	 ?GetTradeDownColor@CStyleData@@QBEKXZ ; CStyleData::GetTradeDownColor
  00b03	50		 push	 eax
  00b04	8b cf		 mov	 ecx, edi
  00b06	e8 00 00 00 00	 call	 ?GetTradeUpColor@CStyleData@@QBEKXZ ; CStyleData::GetTradeUpColor
  00b0b	0f 10 85 e4 f1
	ff ff		 movups	 xmm0, XMMWORD PTR _rectTrade$[ebp]
  00b12	8b 8d 0c f2 ff
	ff		 mov	 ecx, DWORD PTR _this$1$[ebp]
  00b18	50		 push	 eax
  00b19	8d 85 48 ff ff
	ff		 lea	 eax, DWORD PTR _trade$[ebp]
  00b1f	50		 push	 eax
  00b20	83 ec 10	 sub	 esp, 16			; 00000010H
  00b23	8b c4		 mov	 eax, esp
  00b25	56		 push	 esi
  00b26	0f 11 00	 movups	 XMMWORD PTR [eax], xmm0
  00b29	e8 00 00 00 00	 call	 ?DrawBar@CStyleDataManager@@QAEXPAVCDC@@VCRect@@PAHKKKHHH@Z ; CStyleDataManager::DrawBar
$LN18@DrawSample:

; 652  : 				p_pStyleData->GetTradeUpColor(), p_pStyleData->GetTradeDownColor(), p_pStyleData->GetTradeEqualColor(),
; 653  : 				p_pStyleData->GetTradeUpFill(), p_pStyleData->GetTradeDownFill(), p_nDrawCount);
; 654  : 
; 655  : 	int nMACount = p_pStyleData->GetPriceMACount();

  00b2e	8b cf		 mov	 ecx, edi
  00b30	e8 00 00 00 00	 call	 ?GetPriceMACount@CStyleData@@QBEHXZ ; CStyleData::GetPriceMACount
  00b35	8b c8		 mov	 ecx, eax
  00b37	89 8d 10 f2 ff
	ff		 mov	 DWORD PTR _nMACount$2$[ebp], ecx

; 656  : 	if( 10 < nMACount) nMACount = 10;

  00b3d	83 f9 0a	 cmp	 ecx, 10			; 0000000aH
  00b40	7e 0c		 jle	 SHORT $LN19@DrawSample
  00b42	c7 85 10 f2 ff
	ff 0a 00 00 00	 mov	 DWORD PTR _nMACount$2$[ebp], 10 ; 0000000aH
  00b4c	eb 04		 jmp	 SHORT $LN69@DrawSample
$LN19@DrawSample:

; 657  : 	for(int i = 0; i < nMACount; i++) DrawLine( pDC, rectPrice, pAverage[ i], p_pStyleData->GetPriceMAColor( i), p_nDrawCount);

  00b4e	85 c9		 test	 ecx, ecx
  00b50	7e 60		 jle	 SHORT $LN9@DrawSample
$LN69@DrawSample:
  00b52	8d 85 b8 f8 ff
	ff		 lea	 eax, DWORD PTR _pAverage$[ebp]
  00b58	89 85 14 f2 ff
	ff		 mov	 DWORD PTR tv2141[ebp], eax
  00b5e	33 c0		 xor	 eax, eax
  00b60	89 85 08 f2 ff
	ff		 mov	 DWORD PTR _i$1$[ebp], eax
$LL10@DrawSample:
  00b66	ff 75 2c	 push	 DWORD PTR _p_nDrawCount$[ebp]
  00b69	8b cf		 mov	 ecx, edi
  00b6b	50		 push	 eax
  00b6c	e8 00 00 00 00	 call	 ?GetPriceMAColor@CStyleData@@QBEKH@Z ; CStyleData::GetPriceMAColor
  00b71	0f 10 85 f4 f1
	ff ff		 movups	 xmm0, XMMWORD PTR _rectPrice$[ebp]
  00b78	8b 8d 0c f2 ff
	ff		 mov	 ecx, DWORD PTR _this$1$[ebp]
  00b7e	50		 push	 eax
  00b7f	ff b5 14 f2 ff
	ff		 push	 DWORD PTR tv2141[ebp]
  00b85	83 ec 10	 sub	 esp, 16			; 00000010H
  00b88	8b c4		 mov	 eax, esp
  00b8a	56		 push	 esi
  00b8b	0f 11 00	 movups	 XMMWORD PTR [eax], xmm0
  00b8e	e8 00 00 00 00	 call	 ?DrawLine@CStyleDataManager@@QAEXPAVCDC@@VCRect@@PAHKH@Z ; CStyleDataManager::DrawLine
  00b93	8b 85 08 f2 ff
	ff		 mov	 eax, DWORD PTR _i$1$[ebp]
  00b99	81 85 14 f2 ff
	ff a8 00 00 00	 add	 DWORD PTR tv2141[ebp], 168 ; 000000a8H
  00ba3	40		 inc	 eax
  00ba4	89 85 08 f2 ff
	ff		 mov	 DWORD PTR _i$1$[ebp], eax
  00baa	3b 85 10 f2 ff
	ff		 cmp	 eax, DWORD PTR _nMACount$2$[ebp]
  00bb0	7c b4		 jl	 SHORT $LL10@DrawSample
$LN9@DrawSample:

; 658  : 
; 659  : 	// (2009/9/21 - Seung-Won, Bae) for FX
; 660  : 	if( CChartInfo::FX != p_eChartMode)

  00bb2	83 7d 20 02	 cmp	 DWORD PTR _p_eChartMode$[ebp], 2
  00bb6	0f 84 84 00 00
	00		 je	 $LN12@DrawSample

; 661  : 	{
; 662  : 		nMACount = p_pStyleData->GetTradeMACount();

  00bbc	8b cf		 mov	 ecx, edi
  00bbe	e8 00 00 00 00	 call	 ?GetTradeMACount@CStyleData@@QBEHXZ ; CStyleData::GetTradeMACount
  00bc3	8b c8		 mov	 ecx, eax
  00bc5	89 8d 10 f2 ff
	ff		 mov	 DWORD PTR _nMACount$4$[ebp], ecx

; 663  : 		if( 6 < nMACount) nMACount = 6;

  00bcb	83 f9 06	 cmp	 ecx, 6
  00bce	7e 0c		 jle	 SHORT $LN21@DrawSample
  00bd0	c7 85 10 f2 ff
	ff 06 00 00 00	 mov	 DWORD PTR _nMACount$4$[ebp], 6
  00bda	eb 04		 jmp	 SHORT $LN68@DrawSample
$LN21@DrawSample:

; 664  : 		for(int i = 0; i < nMACount; i++) DrawLine( pDC, rectTrade, tAverage[ i], p_pStyleData->GetTradeMAColor( i), p_nDrawCount);

  00bdc	85 c9		 test	 ecx, ecx
  00bde	7e 60		 jle	 SHORT $LN12@DrawSample
$LN68@DrawSample:
  00be0	8d 85 28 f2 ff
	ff		 lea	 eax, DWORD PTR _tAverage$[ebp]
  00be6	89 85 14 f2 ff
	ff		 mov	 DWORD PTR tv2140[ebp], eax
  00bec	33 c0		 xor	 eax, eax
  00bee	89 85 08 f2 ff
	ff		 mov	 DWORD PTR _i$1$[ebp], eax
$LL13@DrawSample:
  00bf4	ff 75 2c	 push	 DWORD PTR _p_nDrawCount$[ebp]
  00bf7	8b cf		 mov	 ecx, edi
  00bf9	50		 push	 eax
  00bfa	e8 00 00 00 00	 call	 ?GetTradeMAColor@CStyleData@@QBEKH@Z ; CStyleData::GetTradeMAColor
  00bff	0f 10 85 e4 f1
	ff ff		 movups	 xmm0, XMMWORD PTR _rectTrade$[ebp]
  00c06	8b 8d 0c f2 ff
	ff		 mov	 ecx, DWORD PTR _this$1$[ebp]
  00c0c	50		 push	 eax
  00c0d	ff b5 14 f2 ff
	ff		 push	 DWORD PTR tv2140[ebp]
  00c13	83 ec 10	 sub	 esp, 16			; 00000010H
  00c16	8b c4		 mov	 eax, esp
  00c18	56		 push	 esi
  00c19	0f 11 00	 movups	 XMMWORD PTR [eax], xmm0
  00c1c	e8 00 00 00 00	 call	 ?DrawLine@CStyleDataManager@@QAEXPAVCDC@@VCRect@@PAHKH@Z ; CStyleDataManager::DrawLine
  00c21	8b 85 08 f2 ff
	ff		 mov	 eax, DWORD PTR _i$1$[ebp]
  00c27	81 85 14 f2 ff
	ff a8 00 00 00	 add	 DWORD PTR tv2140[ebp], 168 ; 000000a8H
  00c31	40		 inc	 eax
  00c32	89 85 08 f2 ff
	ff		 mov	 DWORD PTR _i$1$[ebp], eax
  00c38	3b 85 10 f2 ff
	ff		 cmp	 eax, DWORD PTR _nMACount$4$[ebp]
  00c3e	7c b4		 jl	 SHORT $LL13@DrawSample
$LN12@DrawSample:

; 665  : 	}
; 666  : }

  00c40	8b 4d f4	 mov	 ecx, DWORD PTR __$EHRec$[ebp]
  00c43	64 89 0d 00 00
	00 00		 mov	 DWORD PTR fs:0, ecx
  00c4a	59		 pop	 ecx
  00c4b	5f		 pop	 edi
  00c4c	5e		 pop	 esi
  00c4d	8b 4d f0	 mov	 ecx, DWORD PTR __$ArrayPad$[ebp]
  00c50	33 cd		 xor	 ecx, ebp
  00c52	e8 00 00 00 00	 call	 @__security_check_cookie@4
  00c57	8b e5		 mov	 esp, ebp
  00c59	5d		 pop	 ebp
  00c5a	c2 28 00	 ret	 40			; 00000028H
_TEXT	ENDS
;	COMDAT text$x
text$x	SEGMENT
__unwindfunclet$?DrawSampleImage@CStyleDataManager@@QAEXPAVCDC@@VCRect@@PAVCStyleData@@W4CHART_MODE@CChartInfo@@PAVCFont@@PAUHWND__@@H@Z$0:
  00000	8d 8d d4 f1 ff
	ff		 lea	 ecx, DWORD PTR _pen$2[ebp]
  00006	e9 00 00 00 00	 jmp	 ??1CPen@@UAE@XZ		; CPen::~CPen
__unwindfunclet$?DrawSampleImage@CStyleDataManager@@QAEXPAVCDC@@VCRect@@PAVCStyleData@@W4CHART_MODE@CChartInfo@@PAVCFont@@PAUHWND__@@H@Z$1:
  0000b	8d 8d dc f1 ff
	ff		 lea	 ecx, DWORD PTR _brush$3[ebp]
  00011	e9 00 00 00 00	 jmp	 ??1CBrush@@UAE@XZ	; CBrush::~CBrush
  00016	cc		 int	 3
  00017	cc		 int	 3
  00018	cc		 int	 3
  00019	cc		 int	 3
  0001a	cc		 int	 3
__ehhandler$?DrawSampleImage@CStyleDataManager@@QAEXPAVCDC@@VCRect@@PAVCStyleData@@W4CHART_MODE@CChartInfo@@PAVCFont@@PAUHWND__@@H@Z:
  0001b	90		 npad	 1
  0001c	90		 npad	 1
  0001d	8b 54 24 08	 mov	 edx, DWORD PTR [esp+8]
  00021	8d 42 0c	 lea	 eax, DWORD PTR [edx+12]
  00024	8b 8a c0 f1 ff
	ff		 mov	 ecx, DWORD PTR [edx-3648]
  0002a	33 c8		 xor	 ecx, eax
  0002c	e8 00 00 00 00	 call	 @__security_check_cookie@4
  00031	8b 4a fc	 mov	 ecx, DWORD PTR [edx-4]
  00034	33 c8		 xor	 ecx, eax
  00036	e8 00 00 00 00	 call	 @__security_check_cookie@4
  0003b	b8 00 00 00 00	 mov	 eax, OFFSET __ehfuncinfo$?DrawSampleImage@CStyleDataManager@@QAEXPAVCDC@@VCRect@@PAVCStyleData@@W4CHART_MODE@CChartInfo@@PAVCFont@@PAUHWND__@@H@Z
  00040	e9 00 00 00 00	 jmp	 ___CxxFrameHandler3
text$x	ENDS
?DrawSampleImage@CStyleDataManager@@QAEXPAVCDC@@VCRect@@PAVCStyleData@@W4CHART_MODE@CChartInfo@@PAVCFont@@PAUHWND__@@H@Z ENDP ; CStyleDataManager::DrawSampleImage
; Function compile flags: /Ogtp
; File D:\git\src\IBK\IBK_DRFN\ProjSrc\SrcChartEx\ChartAddIn\ChartEnvSetupDlgAddIn\ChartEnvSetupDlgAddIn\StyleDataManager.cpp
; File D:\git\src\IBK\IBK_DRFN\ProjSrc\SrcChartEx\ChartAddIn\ChartEnvSetupDlgAddIn\Include_AddIn_135914\I135914\_IString.h
; File D:\git\src\IBK\IBK_DRFN\ProjSrc\SrcChartEx\ChartAddIn\ChartEnvSetupDlgAddIn\ChartEnvSetupDlgAddIn\StyleDataManager.cpp
; File D:\git\src\IBK\IBK_DRFN\ProjSrc\SrcChartEx\ChartAddIn\ChartEnvSetupDlgAddIn\Include_AddIn_135914\I135914\_IString.h
; File D:\git\src\IBK\IBK_DRFN\ProjSrc\SrcChartEx\ChartAddIn\ChartEnvSetupDlgAddIn\ChartEnvSetupDlgAddIn\StyleDataManager.cpp
; File D:\git\src\IBK\IBK_DRFN\ProjSrc\SrcChartEx\ChartAddIn\ChartEnvSetupDlgAddIn\Include_AddIn_135914\I135914\_IString.h
; File D:\git\src\IBK\IBK_DRFN\ProjSrc\SrcChartEx\ChartAddIn\ChartEnvSetupDlgAddIn\ChartEnvSetupDlgAddIn\StyleDataManager.cpp
; File D:\git\src\IBK\IBK_DRFN\ProjSrc\SrcChartEx\ChartAddIn\ChartEnvSetupDlgAddIn\Include_AddIn_135914\I135914\_IString.h
; File D:\git\src\IBK\IBK_DRFN\ProjSrc\SrcChartEx\ChartAddIn\ChartEnvSetupDlgAddIn\ChartEnvSetupDlgAddIn\StyleDataManager.cpp
; File D:\git\src\IBK\IBK_DRFN\ProjSrc\SrcChartEx\ChartAddIn\ChartEnvSetupDlgAddIn\Include_AddIn_135914\I135914\_IString.h
; File D:\git\src\IBK\IBK_DRFN\ProjSrc\SrcChartEx\ChartAddIn\ChartEnvSetupDlgAddIn\ChartEnvSetupDlgAddIn\StyleDataManager.cpp
; File D:\git\src\IBK\IBK_DRFN\ProjSrc\SrcChartEx\ChartAddIn\ChartEnvSetupDlgAddIn\Include_AddIn_135914\I135914\_IString.h
; File D:\git\src\IBK\IBK_DRFN\ProjSrc\SrcChartEx\ChartAddIn\ChartEnvSetupDlgAddIn\ChartEnvSetupDlgAddIn\StyleDataManager.cpp
; File D:\git\src\IBK\IBK_DRFN\ProjSrc\SrcChartEx\ChartAddIn\ChartEnvSetupDlgAddIn\Include_AddIn_135914\I135914\_IString.h
; File D:\git\src\IBK\IBK_DRFN\ProjSrc\SrcChartEx\ChartAddIn\ChartEnvSetupDlgAddIn\ChartEnvSetupDlgAddIn\StyleDataManager.cpp
; File D:\git\src\IBK\IBK_DRFN\ProjSrc\SrcChartEx\ChartAddIn\ChartEnvSetupDlgAddIn\Include_AddIn_135914\I135914\_IString.h
; File D:\git\src\IBK\IBK_DRFN\ProjSrc\SrcChartEx\ChartAddIn\ChartEnvSetupDlgAddIn\ChartEnvSetupDlgAddIn\StyleDataManager.cpp
; File D:\git\src\IBK\IBK_DRFN\ProjSrc\SrcChartEx\ChartAddIn\ChartEnvSetupDlgAddIn\Include_AddIn_135914\I135914\_IString.h
; File D:\git\src\IBK\IBK_DRFN\ProjSrc\SrcChartEx\ChartAddIn\ChartEnvSetupDlgAddIn\ChartEnvSetupDlgAddIn\StyleDataManager.cpp
; File D:\git\src\IBK\IBK_DRFN\ProjSrc\SrcChartEx\ChartAddIn\ChartEnvSetupDlgAddIn\Include_AddIn_135914\I135914\_IString.h
; File D:\git\src\IBK\IBK_DRFN\ProjSrc\SrcChartEx\ChartAddIn\ChartEnvSetupDlgAddIn\ChartEnvSetupDlgAddIn\StyleDataManager.cpp
; File D:\git\src\IBK\IBK_DRFN\ProjSrc\SrcChartEx\ChartAddIn\ChartEnvSetupDlgAddIn\Include_AddIn_135914\I135914\_IString.h
; File D:\git\src\IBK\IBK_DRFN\ProjSrc\SrcChartEx\ChartAddIn\ChartEnvSetupDlgAddIn\ChartEnvSetupDlgAddIn\StyleDataManager.cpp
; File D:\git\src\IBK\IBK_DRFN\ProjSrc\SrcChartEx\ChartAddIn\ChartEnvSetupDlgAddIn\Include_AddIn_135914\I135914\_IString.h
; File D:\git\src\IBK\IBK_DRFN\ProjSrc\SrcChartEx\ChartAddIn\ChartEnvSetupDlgAddIn\ChartEnvSetupDlgAddIn\StyleDataManager.cpp
; File D:\git\src\IBK\IBK_DRFN\ProjSrc\SrcChartEx\ChartAddIn\ChartEnvSetupDlgAddIn\Include_AddIn_135914\I135914\_IString.h
; File D:\git\src\IBK\IBK_DRFN\ProjSrc\SrcChartEx\ChartAddIn\ChartEnvSetupDlgAddIn\ChartEnvSetupDlgAddIn\StyleDataManager.cpp
; File D:\git\src\IBK\IBK_DRFN\ProjSrc\SrcChartEx\ChartAddIn\ChartEnvSetupDlgAddIn\Include_AddIn_135914\I135914\_IString.h
; File D:\git\src\IBK\IBK_DRFN\ProjSrc\SrcChartEx\ChartAddIn\ChartEnvSetupDlgAddIn\ChartEnvSetupDlgAddIn\StyleDataManager.cpp
; File D:\git\src\IBK\IBK_DRFN\ProjSrc\SrcChartEx\ChartAddIn\ChartEnvSetupDlgAddIn\Include_AddIn_135914\I135914\_IString.h
; File D:\git\src\IBK\IBK_DRFN\ProjSrc\SrcChartEx\ChartAddIn\ChartEnvSetupDlgAddIn\ChartEnvSetupDlgAddIn\StyleDataManager.cpp
; File D:\git\src\IBK\IBK_DRFN\ProjSrc\SrcChartEx\ChartAddIn\ChartEnvSetupDlgAddIn\Include_AddIn_135914\I135914\_IString.h
; File D:\git\src\IBK\IBK_DRFN\ProjSrc\SrcChartEx\ChartAddIn\ChartEnvSetupDlgAddIn\ChartEnvSetupDlgAddIn\StyleDataManager.cpp
; File D:\git\src\IBK\IBK_DRFN\ProjSrc\SrcChartEx\ChartAddIn\ChartEnvSetupDlgAddIn\Include_AddIn_135914\I135914\_IString.h
; File D:\git\src\IBK\IBK_DRFN\ProjSrc\SrcChartEx\ChartAddIn\ChartEnvSetupDlgAddIn\ChartEnvSetupDlgAddIn\StyleDataManager.cpp
; File D:\git\src\IBK\IBK_DRFN\ProjSrc\SrcChartEx\ChartAddIn\ChartEnvSetupDlgAddIn\Include_AddIn_135914\I135914\_IString.h
; File D:\git\src\IBK\IBK_DRFN\ProjSrc\SrcChartEx\ChartAddIn\ChartEnvSetupDlgAddIn\ChartEnvSetupDlgAddIn\StyleDataManager.cpp
; File D:\git\src\IBK\IBK_DRFN\ProjSrc\SrcChartEx\ChartAddIn\ChartEnvSetupDlgAddIn\Include_AddIn_135914\I135914\_IString.h
; File D:\git\src\IBK\IBK_DRFN\ProjSrc\SrcChartEx\ChartAddIn\ChartEnvSetupDlgAddIn\ChartEnvSetupDlgAddIn\StyleDataManager.cpp
; File D:\git\src\IBK\IBK_DRFN\ProjSrc\SrcChartEx\ChartAddIn\ChartEnvSetupDlgAddIn\Include_AddIn_135914\I135914\_IString.h
; File D:\git\src\IBK\IBK_DRFN\ProjSrc\SrcChartEx\ChartAddIn\ChartEnvSetupDlgAddIn\ChartEnvSetupDlgAddIn\StyleDataManager.cpp
;	COMDAT ?GetStyleDataFromOCX@CStyleDataManager@@QAEXAAVCStyleData@@PAUIChartOCX135914@@H@Z
_TEXT	SEGMENT
_szRQ$ = -96						; size = 8
_szGraphName$ = -88					; size = 8
_pTitleList$1$ = -80					; size = 4
$T2 = -80						; size = 4
_clrTradeUp2$3 = -80					; size = 4
_stringSrc$1$ = -76					; size = 4
_pTitleList$1$ = -76					; size = 4
_clrTradeEqual2$4 = -76					; size = 4
$T5 = -76						; size = 4
_clrPriceUp2$6 = -76					; size = 4
_stringSrc$1$ = -72					; size = 4
_clrTradeDown2$7 = -72					; size = 4
_clrPriceDown2$8 = -72					; size = 4
_pIChartManager$1$ = -68				; size = 4
$T9 = -68						; size = 4
$T10 = -68						; size = 4
$T11 = -68						; size = 4
$T12 = -68						; size = 4
$T13 = -68						; size = 4
$T14 = -68						; size = 4
$T15 = -68						; size = 4
$T16 = -68						; size = 4
$T17 = -68						; size = 4
$T18 = -68						; size = 4
$T19 = -68						; size = 4
$T20 = -68						; size = 4
$T21 = -68						; size = 4
$T22 = -68						; size = 4
$T23 = -68						; size = 4
$T24 = -68						; size = 4
$T25 = -68						; size = 4
$T26 = -68						; size = 4
$T27 = -68						; size = 4
$T28 = -68						; size = 4
_szTitle$29 = -64					; size = 8
_szTitle$30 = -64					; size = 8
_stringSrc$1$ = -60					; size = 4
_clrPriceEqual2$31 = -60				; size = 4
_i$1$ = -56						; size = 4
_pIGraphInfo$1$ = -56					; size = 4
_clrTradeUp1$32 = -56					; size = 4
_clrTradeDown1$33 = -52					; size = 4
_bPriceDownFill$34 = -52				; size = 4
_clrTradeEqual1$35 = -48				; size = 4
_bPriceUpFill$36 = -48					; size = 4
_bTradeUpFill$37 = -44					; size = 4
_clrPriceEqual1$38 = -44				; size = 4
_bTradeDownFill$39 = -40				; size = 4
_clrPriceDown1$40 = -40					; size = 4
_pIGraphInfo$3$ = -36					; size = 4
_clrPriceUp1$41 = -36					; size = 4
_strStyle$ = -32					; size = 4
_nR$ = -28						; size = 4
_nC$ = -24						; size = 4
_nV$ = -20						; size = 4
_nG$ = -16						; size = 4
__$EHRec$ = -12						; size = 12
_i$1$ = 8						; size = 4
_p_styleData$ = 8					; size = 4
_nMACount$1$ = 12					; size = 4
_nMACount$1$ = 12					; size = 4
_p_pIChartOCX$ = 12					; size = 4
$T42 = 15						; size = 1
$T43 = 15						; size = 1
$T44 = 15						; size = 1
$T45 = 15						; size = 1
_pIGraphInfoManager$1$ = 16				; size = 4
_p_bWithIndex$ = 16					; size = 4
?GetStyleDataFromOCX@CStyleDataManager@@QAEXAAVCStyleData@@PAUIChartOCX135914@@H@Z PROC ; CStyleDataManager::GetStyleDataFromOCX, COMDAT
; _this$ = ecx

; 392  : {

  00000	55		 push	 ebp
  00001	8b ec		 mov	 ebp, esp
  00003	6a ff		 push	 -1
  00005	68 00 00 00 00	 push	 __ehhandler$?GetStyleDataFromOCX@CStyleDataManager@@QAEXAAVCStyleData@@PAUIChartOCX135914@@H@Z
  0000a	64 a1 00 00 00
	00		 mov	 eax, DWORD PTR fs:0
  00010	50		 push	 eax
  00011	83 ec 54	 sub	 esp, 84			; 00000054H
  00014	53		 push	 ebx
  00015	56		 push	 esi
  00016	57		 push	 edi
  00017	a1 00 00 00 00	 mov	 eax, DWORD PTR ___security_cookie
  0001c	33 c5		 xor	 eax, ebp
  0001e	50		 push	 eax
  0001f	8d 45 f4	 lea	 eax, DWORD PTR __$EHRec$[ebp]
  00022	64 a3 00 00 00
	00		 mov	 DWORD PTR fs:0, eax

; 393  : // 2008.01.25 by LYH >>
; 394  : 	//p_styleData.SetStyleName("");
; 395  : 	CString strStyle;

  00028	8d 4d e0	 lea	 ecx, DWORD PTR _strStyle$[ebp]
  0002b	ff 15 00 00 00
	00		 call	 DWORD PTR __imp_??0?$CStringT@DV?$StrTraitMFC_DLL@DV?$ChTraitsCRT@D@ATL@@@@@ATL@@QAE@XZ

; 396  : 	strStyle.LoadString(IDS_CURRENT_STYLE);

  00031	6a 15		 push	 21			; 00000015H
  00033	8d 4d e0	 lea	 ecx, DWORD PTR _strStyle$[ebp]
  00036	c7 45 fc 00 00
	00 00		 mov	 DWORD PTR __$EHRec$[ebp+8], 0
  0003d	ff 15 00 00 00
	00		 call	 DWORD PTR __imp_?LoadStringA@?$CStringT@DV?$StrTraitMFC_DLL@DV?$ChTraitsCRT@D@ATL@@@@@ATL@@QAEHI@Z

; 397  : 	p_styleData.SetStyleName(strStyle);

  00043	8b 75 08	 mov	 esi, DWORD PTR _p_styleData$[ebp]
  00046	8d 45 e0	 lea	 eax, DWORD PTR _strStyle$[ebp]
  00049	50		 push	 eax
  0004a	8b ce		 mov	 ecx, esi
  0004c	e8 00 00 00 00	 call	 ?SetStyleName@CStyleData@@QAEXABV?$CStringT@DV?$StrTraitMFC_DLL@DV?$ChTraitsCRT@D@ATL@@@@@ATL@@@Z ; CStyleData::SetStyleName

; 398  : // 2008.01.25 by LYH <<
; 399  : 
; 400  : 	// Graph Region Color
; 401  : 	p_styleData.SetGraphBGColor(		p_pIChartOCX->GetStyleValueGraphBGColor());

  00051	8b 7d 0c	 mov	 edi, DWORD PTR _p_pIChartOCX$[ebp]
  00054	8b cf		 mov	 ecx, edi
  00056	8b 07		 mov	 eax, DWORD PTR [edi]
  00058	ff 90 88 01 00
	00		 call	 DWORD PTR [eax+392]
  0005e	89 45 bc	 mov	 DWORD PTR $T28[ebp], eax
  00061	8b ce		 mov	 ecx, esi
  00063	8d 45 bc	 lea	 eax, DWORD PTR $T28[ebp]
  00066	50		 push	 eax
  00067	e8 00 00 00 00	 call	 ?SetGraphBGColor@CStyleData@@QAEXABK@Z ; CStyleData::SetGraphBGColor

; 402  : 	p_styleData.SetGraphBorderColor(	p_pIChartOCX->GetStyleValueGraphBorderColor());

  0006c	8b 07		 mov	 eax, DWORD PTR [edi]
  0006e	8b cf		 mov	 ecx, edi
  00070	ff 90 8c 01 00
	00		 call	 DWORD PTR [eax+396]
  00076	89 45 bc	 mov	 DWORD PTR $T27[ebp], eax
  00079	8b ce		 mov	 ecx, esi
  0007b	8d 45 bc	 lea	 eax, DWORD PTR $T27[ebp]
  0007e	50		 push	 eax
  0007f	e8 00 00 00 00	 call	 ?SetGraphBorderColor@CStyleData@@QAEXABK@Z ; CStyleData::SetGraphBorderColor

; 403  : 	p_styleData.SetGraphGridColor(		p_pIChartOCX->GetStyleValueGraphGridColor());

  00084	8b 07		 mov	 eax, DWORD PTR [edi]
  00086	8b cf		 mov	 ecx, edi
  00088	ff 90 90 01 00
	00		 call	 DWORD PTR [eax+400]
  0008e	89 45 bc	 mov	 DWORD PTR $T26[ebp], eax
  00091	8b ce		 mov	 ecx, esi
  00093	8d 45 bc	 lea	 eax, DWORD PTR $T26[ebp]
  00096	50		 push	 eax
  00097	e8 00 00 00 00	 call	 ?SetGraphGridColor@CStyleData@@QAEXABK@Z ; CStyleData::SetGraphGridColor

; 404  : 	p_styleData.SetGridHeight(			p_pIChartOCX->GetStyleValueGridHeight());

  0009c	8b 07		 mov	 eax, DWORD PTR [edi]
  0009e	8b cf		 mov	 ecx, edi
  000a0	ff 90 94 01 00
	00		 call	 DWORD PTR [eax+404]
  000a6	89 45 bc	 mov	 DWORD PTR $T25[ebp], eax
  000a9	8b ce		 mov	 ecx, esi
  000ab	8d 45 bc	 lea	 eax, DWORD PTR $T25[ebp]
  000ae	50		 push	 eax
  000af	e8 00 00 00 00	 call	 ?SetGridHeight@CStyleData@@QAEXABH@Z ; CStyleData::SetGridHeight

; 405  : 	p_styleData.SetGridWidth(			p_pIChartOCX->GetStyleValueGridWidth());

  000b4	8b 07		 mov	 eax, DWORD PTR [edi]
  000b6	8b cf		 mov	 ecx, edi
  000b8	ff 90 98 01 00
	00		 call	 DWORD PTR [eax+408]
  000be	89 45 bc	 mov	 DWORD PTR $T24[ebp], eax
  000c1	8b ce		 mov	 ecx, esi
  000c3	8d 45 bc	 lea	 eax, DWORD PTR $T24[ebp]
  000c6	50		 push	 eax
  000c7	e8 00 00 00 00	 call	 ?SetGridWidth@CStyleData@@QAEXABH@Z ; CStyleData::SetGridWidth

; 406  : 	p_styleData.SetScaleGridColor(		p_pIChartOCX->GetStyleValueGridHLineColor());

  000cc	8b 07		 mov	 eax, DWORD PTR [edi]
  000ce	8b cf		 mov	 ecx, edi
  000d0	ff 90 9c 01 00
	00		 call	 DWORD PTR [eax+412]
  000d6	89 45 bc	 mov	 DWORD PTR $T23[ebp], eax
  000d9	8b ce		 mov	 ecx, esi
  000db	8d 45 bc	 lea	 eax, DWORD PTR $T23[ebp]
  000de	50		 push	 eax
  000df	e8 00 00 00 00	 call	 ?SetScaleGridColor@CStyleData@@QAEXABK@Z ; CStyleData::SetScaleGridColor

; 407  : 	p_styleData.SetScaleGridColor(		p_pIChartOCX->GetStyleValueGridVLineColor());

  000e4	8b 07		 mov	 eax, DWORD PTR [edi]
  000e6	8b cf		 mov	 ecx, edi
  000e8	ff 90 a0 01 00
	00		 call	 DWORD PTR [eax+416]
  000ee	89 45 bc	 mov	 DWORD PTR $T22[ebp], eax
  000f1	8b ce		 mov	 ecx, esi
  000f3	8d 45 bc	 lea	 eax, DWORD PTR $T22[ebp]
  000f6	50		 push	 eax
  000f7	e8 00 00 00 00	 call	 ?SetScaleGridColor@CStyleData@@QAEXABK@Z ; CStyleData::SetScaleGridColor

; 408  : 	p_styleData.SetScaleTextColor(		p_pIChartOCX->GetStyleValueScaleTextColor());

  000fc	8b 07		 mov	 eax, DWORD PTR [edi]
  000fe	8b cf		 mov	 ecx, edi
  00100	ff 90 a4 01 00
	00		 call	 DWORD PTR [eax+420]
  00106	89 45 bc	 mov	 DWORD PTR $T21[ebp], eax
  00109	8b ce		 mov	 ecx, esi
  0010b	8d 45 bc	 lea	 eax, DWORD PTR $T21[ebp]
  0010e	50		 push	 eax
  0010f	e8 00 00 00 00	 call	 ?SetScaleTextColor@CStyleData@@QAEXABK@Z ; CStyleData::SetScaleTextColor

; 409  : 	//scale type
; 410  : 	p_styleData.SetDivideWidth(			p_pIChartOCX->GetFirstBlockHGridLineType());

  00114	8b 07		 mov	 eax, DWORD PTR [edi]
  00116	8b cf		 mov	 ecx, edi
  00118	ff 90 a8 01 00
	00		 call	 DWORD PTR [eax+424]
  0011e	89 45 bc	 mov	 DWORD PTR $T20[ebp], eax
  00121	8d 45 bc	 lea	 eax, DWORD PTR $T20[ebp]
  00124	8b ce		 mov	 ecx, esi
  00126	50		 push	 eax
  00127	e8 00 00 00 00	 call	 ?SetDivideWidth@CStyleData@@QAEXABH@Z ; CStyleData::SetDivideWidth

; 411  : 	p_styleData.SetDivideHeight(		p_pIChartOCX->GetFirstBlockVGridLineType());

  0012c	8b 07		 mov	 eax, DWORD PTR [edi]
  0012e	8b cf		 mov	 ecx, edi
  00130	ff 90 ac 01 00
	00		 call	 DWORD PTR [eax+428]
  00136	89 45 bc	 mov	 DWORD PTR $T19[ebp], eax
  00139	8b ce		 mov	 ecx, esi
  0013b	8d 45 bc	 lea	 eax, DWORD PTR $T19[ebp]
  0013e	50		 push	 eax
  0013f	e8 00 00 00 00	 call	 ?SetDivideHeight@CStyleData@@QAEXABH@Z ; CStyleData::SetDivideHeight

; 412  : 
; 413  : 	//scale   : Update in OnDraw
; 414  : 	p_styleData.SetScaleBGColor(		p_pIChartOCX->GetStyleValueScaleBGColor());

  00144	8b 07		 mov	 eax, DWORD PTR [edi]
  00146	8b cf		 mov	 ecx, edi
  00148	ff 90 b0 01 00
	00		 call	 DWORD PTR [eax+432]
  0014e	89 45 bc	 mov	 DWORD PTR $T18[ebp], eax
  00151	8b ce		 mov	 ecx, esi
  00153	8d 45 bc	 lea	 eax, DWORD PTR $T18[ebp]
  00156	50		 push	 eax
  00157	e8 00 00 00 00	 call	 ?SetScaleBGColor@CStyleData@@QAEXABK@Z ; CStyleData::SetScaleBGColor

; 415  : 	p_styleData.SetScaleBorderColor(	p_pIChartOCX->GetStyleValueScaleBorderColor());

  0015c	8b 07		 mov	 eax, DWORD PTR [edi]
  0015e	8b cf		 mov	 ecx, edi
  00160	ff 90 b4 01 00
	00		 call	 DWORD PTR [eax+436]
  00166	89 45 bc	 mov	 DWORD PTR $T17[ebp], eax
  00169	8b ce		 mov	 ecx, esi
  0016b	8d 45 bc	 lea	 eax, DWORD PTR $T17[ebp]
  0016e	50		 push	 eax
  0016f	e8 00 00 00 00	 call	 ?SetScaleBorderColor@CStyleData@@QAEXABK@Z ; CStyleData::SetScaleBorderColor

; 416  : 
; 417  : 	//KHD : 
; 418  : 	// 
; 419  : 	p_styleData.SetHScaleGridType_TimeGubun(		p_pIChartOCX->GetFirstBlockHScaleGridType_TimeGubun(CScaleBaseData::MINTICK_DAY_GUBUN), CScaleBaseData::MINTICK_DAY_GUBUN);

  00174	8b 07		 mov	 eax, DWORD PTR [edi]
  00176	8b cf		 mov	 ecx, edi
  00178	6a 00		 push	 0
  0017a	ff 90 3c 02 00
	00		 call	 DWORD PTR [eax+572]
  00180	89 45 bc	 mov	 DWORD PTR $T16[ebp], eax
  00183	8b ce		 mov	 ecx, esi
  00185	6a 00		 push	 0
  00187	8d 45 bc	 lea	 eax, DWORD PTR $T16[ebp]
  0018a	50		 push	 eax
  0018b	e8 00 00 00 00	 call	 ?SetHScaleGridType_TimeGubun@CStyleData@@QAEXABHH@Z ; CStyleData::SetHScaleGridType_TimeGubun

; 420  : 	p_styleData.SetHScaleGridType_TimeGubun(		p_pIChartOCX->GetFirstBlockHScaleGridType_TimeGubun(CScaleBaseData::DAYCHART_WEEK_GUBUN), CScaleBaseData::DAYCHART_WEEK_GUBUN);

  00190	8b 07		 mov	 eax, DWORD PTR [edi]
  00192	8b cf		 mov	 ecx, edi
  00194	6a 01		 push	 1
  00196	ff 90 3c 02 00
	00		 call	 DWORD PTR [eax+572]
  0019c	89 45 bc	 mov	 DWORD PTR $T15[ebp], eax
  0019f	8b ce		 mov	 ecx, esi
  001a1	6a 01		 push	 1
  001a3	8d 45 bc	 lea	 eax, DWORD PTR $T15[ebp]
  001a6	50		 push	 eax
  001a7	e8 00 00 00 00	 call	 ?SetHScaleGridType_TimeGubun@CStyleData@@QAEXABHH@Z ; CStyleData::SetHScaleGridType_TimeGubun

; 421  : 	p_styleData.SetHScaleGridType_TimeGubun(		p_pIChartOCX->GetFirstBlockHScaleGridType_TimeGubun(CScaleBaseData::DAYCHART_MON_GUBUN), CScaleBaseData::DAYCHART_MON_GUBUN);

  001ac	8b 07		 mov	 eax, DWORD PTR [edi]
  001ae	8b cf		 mov	 ecx, edi
  001b0	6a 02		 push	 2
  001b2	ff 90 3c 02 00
	00		 call	 DWORD PTR [eax+572]
  001b8	89 45 bc	 mov	 DWORD PTR $T14[ebp], eax
  001bb	8b ce		 mov	 ecx, esi
  001bd	6a 02		 push	 2
  001bf	8d 45 bc	 lea	 eax, DWORD PTR $T14[ebp]
  001c2	50		 push	 eax
  001c3	e8 00 00 00 00	 call	 ?SetHScaleGridType_TimeGubun@CStyleData@@QAEXABHH@Z ; CStyleData::SetHScaleGridType_TimeGubun

; 422  : 	p_styleData.SetHScaleGridType_TimeGubun(		p_pIChartOCX->GetFirstBlockHScaleGridType_TimeGubun(CScaleBaseData::DAYCHART_YEAR_GUBUN), CScaleBaseData::DAYCHART_YEAR_GUBUN);

  001c8	8b 07		 mov	 eax, DWORD PTR [edi]
  001ca	8b cf		 mov	 ecx, edi
  001cc	6a 03		 push	 3
  001ce	ff 90 3c 02 00
	00		 call	 DWORD PTR [eax+572]
  001d4	89 45 bc	 mov	 DWORD PTR $T13[ebp], eax
  001d7	8b ce		 mov	 ecx, esi
  001d9	6a 03		 push	 3
  001db	8d 45 bc	 lea	 eax, DWORD PTR $T13[ebp]
  001de	50		 push	 eax
  001df	e8 00 00 00 00	 call	 ?SetHScaleGridType_TimeGubun@CStyleData@@QAEXABHH@Z ; CStyleData::SetHScaleGridType_TimeGubun

; 423  : 
; 424  : 	//
; 425  : 	p_styleData.SetHScaleGridColor_TimeGubun(		p_pIChartOCX->GetStyleValueHScaleGridColor_TimeGubun(CScaleBaseData::MINTICK_DAY_GUBUN), CScaleBaseData::MINTICK_DAY_GUBUN);

  001e4	8b 07		 mov	 eax, DWORD PTR [edi]
  001e6	8b cf		 mov	 ecx, edi
  001e8	6a 00		 push	 0
  001ea	ff 90 44 02 00
	00		 call	 DWORD PTR [eax+580]
  001f0	89 45 bc	 mov	 DWORD PTR $T12[ebp], eax
  001f3	8b ce		 mov	 ecx, esi
  001f5	6a 00		 push	 0
  001f7	8d 45 bc	 lea	 eax, DWORD PTR $T12[ebp]
  001fa	50		 push	 eax
  001fb	e8 00 00 00 00	 call	 ?SetHScaleGridColor_TimeGubun@CStyleData@@QAEXABKH@Z ; CStyleData::SetHScaleGridColor_TimeGubun

; 426  : 	p_styleData.SetHScaleGridColor_TimeGubun(		p_pIChartOCX->GetStyleValueHScaleGridColor_TimeGubun(CScaleBaseData::DAYCHART_WEEK_GUBUN), CScaleBaseData::DAYCHART_WEEK_GUBUN);

  00200	8b 07		 mov	 eax, DWORD PTR [edi]
  00202	8b cf		 mov	 ecx, edi
  00204	6a 01		 push	 1
  00206	ff 90 44 02 00
	00		 call	 DWORD PTR [eax+580]
  0020c	89 45 bc	 mov	 DWORD PTR $T11[ebp], eax
  0020f	8b ce		 mov	 ecx, esi
  00211	6a 01		 push	 1
  00213	8d 45 bc	 lea	 eax, DWORD PTR $T11[ebp]
  00216	50		 push	 eax
  00217	e8 00 00 00 00	 call	 ?SetHScaleGridColor_TimeGubun@CStyleData@@QAEXABKH@Z ; CStyleData::SetHScaleGridColor_TimeGubun

; 427  : 	p_styleData.SetHScaleGridColor_TimeGubun(		p_pIChartOCX->GetStyleValueHScaleGridColor_TimeGubun(CScaleBaseData::DAYCHART_MON_GUBUN), CScaleBaseData::DAYCHART_MON_GUBUN);

  0021c	8b 07		 mov	 eax, DWORD PTR [edi]
  0021e	8b cf		 mov	 ecx, edi
  00220	6a 02		 push	 2
  00222	ff 90 44 02 00
	00		 call	 DWORD PTR [eax+580]
  00228	89 45 bc	 mov	 DWORD PTR $T10[ebp], eax
  0022b	8b ce		 mov	 ecx, esi
  0022d	6a 02		 push	 2
  0022f	8d 45 bc	 lea	 eax, DWORD PTR $T10[ebp]
  00232	50		 push	 eax
  00233	e8 00 00 00 00	 call	 ?SetHScaleGridColor_TimeGubun@CStyleData@@QAEXABKH@Z ; CStyleData::SetHScaleGridColor_TimeGubun

; 428  : 	p_styleData.SetHScaleGridColor_TimeGubun(		p_pIChartOCX->GetStyleValueHScaleGridColor_TimeGubun(CScaleBaseData::DAYCHART_YEAR_GUBUN), CScaleBaseData::DAYCHART_YEAR_GUBUN);

  00238	8b 07		 mov	 eax, DWORD PTR [edi]
  0023a	8b cf		 mov	 ecx, edi
  0023c	6a 03		 push	 3
  0023e	ff 90 44 02 00
	00		 call	 DWORD PTR [eax+580]
  00244	89 45 bc	 mov	 DWORD PTR $T9[ebp], eax
  00247	8b ce		 mov	 ecx, esi
  00249	6a 03		 push	 3
  0024b	8d 45 bc	 lea	 eax, DWORD PTR $T9[ebp]
  0024e	50		 push	 eax
  0024f	e8 00 00 00 00	 call	 ?SetHScaleGridColor_TimeGubun@CStyleData@@QAEXABKH@Z ; CStyleData::SetHScaleGridColor_TimeGubun

; 429  : 
; 430  : 	//
; 431  : 	p_styleData.SetScaleLineThickness_TimeGubun(	CScaleBaseData::MINTICK_DAY_GUBUN, p_pIChartOCX->GetStyleValueScaleLineThickness_TimeGubun(CScaleBaseData::MINTICK_DAY_GUBUN));

  00254	8b 07		 mov	 eax, DWORD PTR [edi]
  00256	8b cf		 mov	 ecx, edi
  00258	6a 00		 push	 0
  0025a	ff 90 48 02 00
	00		 call	 DWORD PTR [eax+584]
  00260	50		 push	 eax
  00261	6a 00		 push	 0
  00263	8b ce		 mov	 ecx, esi
  00265	e8 00 00 00 00	 call	 ?SetScaleLineThickness_TimeGubun@CStyleData@@QAEXHH@Z ; CStyleData::SetScaleLineThickness_TimeGubun

; 432  : 	p_styleData.SetScaleLineThickness_TimeGubun(	CScaleBaseData::DAYCHART_WEEK_GUBUN, p_pIChartOCX->GetStyleValueScaleLineThickness_TimeGubun(CScaleBaseData::DAYCHART_WEEK_GUBUN));

  0026a	8b 07		 mov	 eax, DWORD PTR [edi]
  0026c	8b cf		 mov	 ecx, edi
  0026e	6a 01		 push	 1
  00270	ff 90 48 02 00
	00		 call	 DWORD PTR [eax+584]
  00276	50		 push	 eax
  00277	6a 01		 push	 1
  00279	8b ce		 mov	 ecx, esi
  0027b	e8 00 00 00 00	 call	 ?SetScaleLineThickness_TimeGubun@CStyleData@@QAEXHH@Z ; CStyleData::SetScaleLineThickness_TimeGubun

; 433  : 	p_styleData.SetScaleLineThickness_TimeGubun(	CScaleBaseData::DAYCHART_MON_GUBUN, p_pIChartOCX->GetStyleValueScaleLineThickness_TimeGubun(CScaleBaseData::DAYCHART_MON_GUBUN));

  00280	8b 07		 mov	 eax, DWORD PTR [edi]
  00282	8b cf		 mov	 ecx, edi
  00284	6a 02		 push	 2
  00286	ff 90 48 02 00
	00		 call	 DWORD PTR [eax+584]
  0028c	50		 push	 eax
  0028d	6a 02		 push	 2
  0028f	8b ce		 mov	 ecx, esi
  00291	e8 00 00 00 00	 call	 ?SetScaleLineThickness_TimeGubun@CStyleData@@QAEXHH@Z ; CStyleData::SetScaleLineThickness_TimeGubun

; 434  : 	p_styleData.SetScaleLineThickness_TimeGubun(	CScaleBaseData::DAYCHART_YEAR_GUBUN, p_pIChartOCX->GetStyleValueScaleLineThickness_TimeGubun(CScaleBaseData::DAYCHART_YEAR_GUBUN));

  00296	8b 07		 mov	 eax, DWORD PTR [edi]
  00298	8b cf		 mov	 ecx, edi
  0029a	6a 03		 push	 3
  0029c	ff 90 48 02 00
	00		 call	 DWORD PTR [eax+584]
  002a2	50		 push	 eax
  002a3	6a 03		 push	 3
  002a5	8b ce		 mov	 ecx, esi
  002a7	e8 00 00 00 00	 call	 ?SetScaleLineThickness_TimeGubun@CStyleData@@QAEXHH@Z ; CStyleData::SetScaleLineThickness_TimeGubun

; 435  : 
; 436  : 	//Analysis tool	: Update in EAI_ALL_APPLY_STYLE
; 437  : 	p_styleData.SetAnalyzeColor(		p_pIChartOCX->GetStyleValueAnalysisToolColor());

  002ac	8b 07		 mov	 eax, DWORD PTR [edi]
  002ae	8b cf		 mov	 ecx, edi
  002b0	ff 90 b8 01 00
	00		 call	 DWORD PTR [eax+440]
  002b6	50		 push	 eax
  002b7	8b ce		 mov	 ecx, esi
  002b9	e8 00 00 00 00	 call	 ?SetAnalyzeColor@CStyleData@@QAEXK@Z ; CStyleData::SetAnalyzeColor

; 438  : 	// .	: Update in EAI_ALL_APPLY_STYLE
; 439  : 	p_styleData.SetNumericalColor(		p_pIChartOCX->GetStyleValueNIDLGColor());

  002be	8b 07		 mov	 eax, DWORD PTR [edi]
  002c0	8b cf		 mov	 ecx, edi
  002c2	ff 90 bc 01 00
	00		 call	 DWORD PTR [eax+444]
  002c8	50		 push	 eax
  002c9	8b ce		 mov	 ecx, esi
  002cb	e8 00 00 00 00	 call	 ?SetNumericalColor@CStyleData@@QAEXK@Z ; CStyleData::SetNumericalColor

; 440  : 
; 441  : 	if( !p_bWithIndex) return;

  002d0	83 7d 10 00	 cmp	 DWORD PTR _p_bWithIndex$[ebp], 0
  002d4	0f 84 bb 05 00
	00		 je	 $LN106@GetStyleDa

; 442  : 
; 443  : 	IGraphInfoManager *pIGraphInfoManager = p_pIChartOCX->GetIGraphInfoManager();

  002da	8b 07		 mov	 eax, DWORD PTR [edi]
  002dc	8b cf		 mov	 ecx, edi
  002de	ff 50 20	 call	 DWORD PTR [eax+32]
  002e1	8b d8		 mov	 ebx, eax
  002e3	89 5d 10	 mov	 DWORD PTR _pIGraphInfoManager$1$[ebp], ebx

; 444  : 	if( !pIGraphInfoManager) return;

  002e6	85 db		 test	 ebx, ebx
  002e8	0f 84 a7 05 00
	00		 je	 $LN106@GetStyleDa

; 445  : 	IChartManager *pIChartManager = p_pIChartOCX->GetIChartManager();

  002ee	8b 17		 mov	 edx, DWORD PTR [edi]
  002f0	8b cf		 mov	 ecx, edi
  002f2	ff 52 18	 call	 DWORD PTR [edx+24]
  002f5	8b f8		 mov	 edi, eax
  002f7	89 7d bc	 mov	 DWORD PTR _pIChartManager$1$[ebp], edi

; 446  : 	if( !pIChartManager)

  002fa	85 ff		 test	 edi, edi
  002fc	75 08		 jne	 SHORT $LN16@GetStyleDa

; 447  : 	{
; 448  : 		pIGraphInfoManager->Release();

  002fe	8b 03		 mov	 eax, DWORD PTR [ebx]
  00300	53		 push	 ebx
  00301	e9 8c 05 00 00	 jmp	 $LN131@GetStyleDa
$LN16@GetStyleDa:

; 453  : 	ILPCSTR szRQ = p_pIChartOCX->GetCurrentRQ();

  00306	8b 4d 0c	 mov	 ecx, DWORD PTR _p_pIChartOCX$[ebp]
  00309	8b 01		 mov	 eax, DWORD PTR [ecx]
  0030b	ff 90 28 02 00
	00		 call	 DWORD PTR [eax+552]
; File D:\git\src\IBK\IBK_DRFN\ProjSrc\SrcChartEx\ChartAddIn\ChartEnvSetupDlgAddIn\Include_AddIn_135914\I135914\_IString.h

; 39   : 		m_pIStrData = p_pIString;	// Do not AddRef(). Because It must be Return Value.

  00311	89 45 a4	 mov	 DWORD PTR _szRQ$[ebp+4], eax

; 40   : 		if( m_pIStrData) m_szData = m_pIStrData->GetData();

  00314	85 c0		 test	 eax, eax
  00316	74 09		 je	 SHORT $LN41@GetStyleDa
  00318	8b 10		 mov	 edx, DWORD PTR [eax]
  0031a	8b c8		 mov	 ecx, eax
  0031c	ff 52 10	 call	 DWORD PTR [edx+16]
  0031f	eb 02		 jmp	 SHORT $LN132@GetStyleDa
$LN41@GetStyleDa:

; 41   : 		else m_szData = NULL;

  00321	33 c0		 xor	 eax, eax
$LN132@GetStyleDa:
; File D:\git\src\IBK\IBK_DRFN\ProjSrc\SrcChartEx\ChartAddIn\ChartEnvSetupDlgAddIn\ChartEnvSetupDlgAddIn\StyleDataManager.cpp

; 453  : 	ILPCSTR szRQ = p_pIChartOCX->GetCurrentRQ();

  00323	89 45 a0	 mov	 DWORD PTR _szRQ$[ebp], eax

; 457  : 	ILPCSTR szGraphName = pIChartManager->FindFirstIndicator( _MTEXT( C2_PRICE_CHART), nR, nC, nV, nG, szRQ);

  00326	50		 push	 eax
  00327	8d 45 f0	 lea	 eax, DWORD PTR _nG$[ebp]
  0032a	c7 45 e4 ff ff
	ff ff		 mov	 DWORD PTR _nR$[ebp], -1
  00331	50		 push	 eax
  00332	8d 45 ec	 lea	 eax, DWORD PTR _nV$[ebp]
  00335	c7 45 e8 ff ff
	ff ff		 mov	 DWORD PTR _nC$[ebp], -1
  0033c	50		 push	 eax
  0033d	8d 45 e8	 lea	 eax, DWORD PTR _nC$[ebp]
  00340	c7 45 ec ff ff
	ff ff		 mov	 DWORD PTR _nV$[ebp], -1
  00347	50		 push	 eax
  00348	8d 45 e4	 lea	 eax, DWORD PTR _nR$[ebp]
  0034b	c7 45 f0 ff ff
	ff ff		 mov	 DWORD PTR _nG$[ebp], -1
  00352	8b 17		 mov	 edx, DWORD PTR [edi]
  00354	8b cf		 mov	 ecx, edi
  00356	50		 push	 eax
  00357	a1 54 00 00 00	 mov	 eax, DWORD PTR ?g_iMetaTable@@3VIMetaTable@@A+84
  0035c	c6 45 fc 01	 mov	 BYTE PTR __$EHRec$[ebp+8], 1
  00360	ff b0 28 03 00
	00		 push	 DWORD PTR [eax+808]
  00366	ff 52 58	 call	 DWORD PTR [edx+88]
; File D:\git\src\IBK\IBK_DRFN\ProjSrc\SrcChartEx\ChartAddIn\ChartEnvSetupDlgAddIn\Include_AddIn_135914\I135914\_IString.h

; 39   : 		m_pIStrData = p_pIString;	// Do not AddRef(). Because It must be Return Value.

  00369	89 45 ac	 mov	 DWORD PTR _szGraphName$[ebp+4], eax

; 40   : 		if( m_pIStrData) m_szData = m_pIStrData->GetData();

  0036c	85 c0		 test	 eax, eax
  0036e	74 09		 je	 SHORT $LN45@GetStyleDa
  00370	8b 10		 mov	 edx, DWORD PTR [eax]
  00372	8b c8		 mov	 ecx, eax
  00374	ff 52 10	 call	 DWORD PTR [edx+16]
  00377	eb 02		 jmp	 SHORT $LN133@GetStyleDa
$LN45@GetStyleDa:

; 41   : 		else m_szData = NULL;

  00379	33 c0		 xor	 eax, eax
$LN133@GetStyleDa:
; File D:\git\src\IBK\IBK_DRFN\ProjSrc\SrcChartEx\ChartAddIn\ChartEnvSetupDlgAddIn\ChartEnvSetupDlgAddIn\StyleDataManager.cpp

; 457  : 	ILPCSTR szGraphName = pIChartManager->FindFirstIndicator( _MTEXT( C2_PRICE_CHART), nR, nC, nV, nG, szRQ);

  0037b	89 45 a8	 mov	 DWORD PTR _szGraphName$[ebp], eax
; File D:\git\src\IBK\IBK_DRFN\ProjSrc\SrcChartEx\ChartAddIn\ChartEnvSetupDlgAddIn\Include_AddIn_135914\I135914\_IString.h

; 57   : 		if( !m_szData) return TRUE;

  0037e	8b 13		 mov	 edx, DWORD PTR [ebx]
; File D:\git\src\IBK\IBK_DRFN\ProjSrc\SrcChartEx\ChartAddIn\ChartEnvSetupDlgAddIn\ChartEnvSetupDlgAddIn\StyleDataManager.cpp

; 457  : 	ILPCSTR szGraphName = pIChartManager->FindFirstIndicator( _MTEXT( C2_PRICE_CHART), nR, nC, nV, nG, szRQ);

  00380	c6 45 fc 02	 mov	 BYTE PTR __$EHRec$[ebp+8], 2
; File D:\git\src\IBK\IBK_DRFN\ProjSrc\SrcChartEx\ChartAddIn\ChartEnvSetupDlgAddIn\Include_AddIn_135914\I135914\_IString.h

; 57   : 		if( !m_szData) return TRUE;

  00384	85 c0		 test	 eax, eax
  00386	74 05		 je	 SHORT $LN129@GetStyleDa
; File D:\git\src\IBK\IBK_DRFN\ProjSrc\SrcChartEx\ChartAddIn\ChartEnvSetupDlgAddIn\ChartEnvSetupDlgAddIn\StyleDataManager.cpp

; 458  : 	if( szGraphName.IsEmpty())

  00388	80 38 00	 cmp	 BYTE PTR [eax], 0
  0038b	75 1b		 jne	 SHORT $LN17@GetStyleDa
$LN129@GetStyleDa:

; 459  : 			pIGraphInfo = pIGraphInfoManager->GetIndicatorInfo( IGraphInfoManager::IEILT_SITE_DEFAULT, _MTEXT( C2_PRICE_CHART), IGraphInfoManager::IEIIGT_WITH_DEFAULT_GET);

  0038d	a1 54 00 00 00	 mov	 eax, DWORD PTR ?g_iMetaTable@@3VIMetaTable@@A+84
  00392	8b cb		 mov	 ecx, ebx
  00394	6a 01		 push	 1
  00396	ff b0 28 03 00
	00		 push	 DWORD PTR [eax+808]
  0039c	6a 00		 push	 0
  0039e	ff 52 18	 call	 DWORD PTR [edx+24]
  003a1	8b c8		 mov	 ecx, eax
  003a3	89 4d c8	 mov	 DWORD PTR _pIGraphInfo$1$[ebp], ecx
  003a6	eb 0d		 jmp	 SHORT $LN18@GetStyleDa
$LN17@GetStyleDa:

; 460  : 	else	pIGraphInfo = pIGraphInfoManager->GetGraphInfo( IGraphInfoManager::IEILT_USER, szGraphName);

  003a8	50		 push	 eax
  003a9	6a 03		 push	 3
  003ab	8b cb		 mov	 ecx, ebx
  003ad	ff 52 14	 call	 DWORD PTR [edx+20]
  003b0	8b c8		 mov	 ecx, eax
  003b2	89 45 c8	 mov	 DWORD PTR _pIGraphInfo$1$[ebp], eax
$LN18@GetStyleDa:

; 461  : 	if( pIGraphInfo)

  003b5	85 c9		 test	 ecx, ecx
  003b7	0f 84 af 00 00
	00		 je	 $LN19@GetStyleDa

; 462  : 	{
; 463  : 		COLORREF clrPriceUp1 = 0, clrPriceUp2 = 0, clrPriceDown1 = 0, clrPriceDown2 = 0, clrPriceEqual1 = 0, clrPriceEqual2 = 0;
; 464  : 		BOOL bPriceUpFill = FALSE, bPriceDownFill = FALSE;
; 465  : 		pIGraphInfo->GetSubGraphColorAndFillFlag( 0, clrPriceUp1, clrPriceUp2, clrPriceDown1, clrPriceDown2, clrPriceEqual1, clrPriceEqual2, bPriceUpFill, bPriceDownFill);

  003bd	8b 01		 mov	 eax, DWORD PTR [ecx]
  003bf	8d 55 cc	 lea	 edx, DWORD PTR _bPriceDownFill$34[ebp]
  003c2	52		 push	 edx
  003c3	8d 55 d0	 lea	 edx, DWORD PTR _bPriceUpFill$36[ebp]
  003c6	c7 45 dc 00 00
	00 00		 mov	 DWORD PTR _clrPriceUp1$41[ebp], 0
  003cd	52		 push	 edx
  003ce	8d 55 c4	 lea	 edx, DWORD PTR _clrPriceEqual2$31[ebp]
  003d1	c7 45 b4 00 00
	00 00		 mov	 DWORD PTR _clrPriceUp2$6[ebp], 0
  003d8	52		 push	 edx
  003d9	8d 55 d4	 lea	 edx, DWORD PTR _clrPriceEqual1$38[ebp]
  003dc	c7 45 d8 00 00
	00 00		 mov	 DWORD PTR _clrPriceDown1$40[ebp], 0
  003e3	52		 push	 edx
  003e4	8d 55 b8	 lea	 edx, DWORD PTR _clrPriceDown2$8[ebp]
  003e7	c7 45 b8 00 00
	00 00		 mov	 DWORD PTR _clrPriceDown2$8[ebp], 0
  003ee	52		 push	 edx
  003ef	8d 55 d8	 lea	 edx, DWORD PTR _clrPriceDown1$40[ebp]
  003f2	c7 45 d4 00 00
	00 00		 mov	 DWORD PTR _clrPriceEqual1$38[ebp], 0
  003f9	52		 push	 edx
  003fa	8d 55 b4	 lea	 edx, DWORD PTR _clrPriceUp2$6[ebp]
  003fd	c7 45 c4 00 00
	00 00		 mov	 DWORD PTR _clrPriceEqual2$31[ebp], 0
  00404	52		 push	 edx
  00405	8d 55 dc	 lea	 edx, DWORD PTR _clrPriceUp1$41[ebp]
  00408	c7 45 d0 00 00
	00 00		 mov	 DWORD PTR _bPriceUpFill$36[ebp], 0
  0040f	52		 push	 edx
  00410	6a 00		 push	 0
  00412	c7 45 cc 00 00
	00 00		 mov	 DWORD PTR _bPriceDownFill$34[ebp], 0
  00419	ff 50 70	 call	 DWORD PTR [eax+112]

; 466  : 		p_styleData.SetPriceUpColor(		clrPriceUp1);

  0041c	8d 45 dc	 lea	 eax, DWORD PTR _clrPriceUp1$41[ebp]
  0041f	8b ce		 mov	 ecx, esi
  00421	50		 push	 eax
  00422	e8 00 00 00 00	 call	 ?SetPriceUpColor@CStyleData@@QAEXABK@Z ; CStyleData::SetPriceUpColor

; 467  : 		p_styleData.SetPriceDownColor(		clrPriceDown1);

  00427	8d 45 d8	 lea	 eax, DWORD PTR _clrPriceDown1$40[ebp]
  0042a	8b ce		 mov	 ecx, esi
  0042c	50		 push	 eax
  0042d	e8 00 00 00 00	 call	 ?SetPriceDownColor@CStyleData@@QAEXABK@Z ; CStyleData::SetPriceDownColor

; 468  : 		p_styleData.SetPriceEqualColor(	clrPriceEqual1);

  00432	8d 45 d4	 lea	 eax, DWORD PTR _clrPriceEqual1$38[ebp]
  00435	8b ce		 mov	 ecx, esi
  00437	50		 push	 eax
  00438	e8 00 00 00 00	 call	 ?SetPriceEqualColor@CStyleData@@QAEXABK@Z ; CStyleData::SetPriceEqualColor

; 469  : 		p_styleData.SetPriceUpFill(		bPriceUpFill ? true : false);

  0043d	83 7d d0 00	 cmp	 DWORD PTR _bPriceUpFill$36[ebp], 0
  00441	8d 45 0f	 lea	 eax, DWORD PTR $T45[ebp]
  00444	50		 push	 eax
  00445	8b ce		 mov	 ecx, esi
  00447	0f 95 45 0f	 setne	 BYTE PTR $T45[ebp]
  0044b	e8 00 00 00 00	 call	 ?SetPriceUpFill@CStyleData@@QAEXAB_N@Z ; CStyleData::SetPriceUpFill

; 470  : 		p_styleData.SetPriceDownFill(		bPriceDownFill ? true : false);

  00450	83 7d cc 00	 cmp	 DWORD PTR _bPriceDownFill$34[ebp], 0
  00454	8d 45 0f	 lea	 eax, DWORD PTR $T44[ebp]
  00457	50		 push	 eax
  00458	8b ce		 mov	 ecx, esi
  0045a	0f 95 45 0f	 setne	 BYTE PTR $T44[ebp]
  0045e	e8 00 00 00 00	 call	 ?SetPriceDownFill@CStyleData@@QAEXAB_N@Z ; CStyleData::SetPriceDownFill

; 471  : 		pIGraphInfo->Release();

  00463	8b 4d c8	 mov	 ecx, DWORD PTR _pIGraphInfo$1$[ebp]
  00466	51		 push	 ecx
  00467	8b 01		 mov	 eax, DWORD PTR [ecx]
  00469	ff 50 08	 call	 DWORD PTR [eax+8]
$LN19@GetStyleDa:

; 474  : 	szGraphName = pIChartManager->FindFirstIndicator( _MTEXT( C2_PRICE_MA), nR, nC, nV, nG, szRQ);

  0046c	ff 75 a0	 push	 DWORD PTR _szRQ$[ebp]
  0046f	8b 17		 mov	 edx, DWORD PTR [edi]
  00471	8d 45 f0	 lea	 eax, DWORD PTR _nG$[ebp]
  00474	50		 push	 eax
  00475	8d 45 ec	 lea	 eax, DWORD PTR _nV$[ebp]
  00478	8b cf		 mov	 ecx, edi
  0047a	50		 push	 eax
  0047b	8d 45 e8	 lea	 eax, DWORD PTR _nC$[ebp]
  0047e	50		 push	 eax
  0047f	8d 45 e4	 lea	 eax, DWORD PTR _nR$[ebp]
  00482	50		 push	 eax
  00483	a1 54 00 00 00	 mov	 eax, DWORD PTR ?g_iMetaTable@@3VIMetaTable@@A+84
  00488	ff b0 20 03 00
	00		 push	 DWORD PTR [eax+800]
  0048e	ff 52 58	 call	 DWORD PTR [edx+88]
  00491	8b f8		 mov	 edi, eax
; File D:\git\src\IBK\IBK_DRFN\ProjSrc\SrcChartEx\ChartAddIn\ChartEnvSetupDlgAddIn\Include_AddIn_135914\I135914\_IString.h

; 67   : 		if( m_pIStrData) m_pIStrData->Release();

  00493	8b 45 ac	 mov	 eax, DWORD PTR _szGraphName$[ebp+4]
; File D:\git\src\IBK\IBK_DRFN\ProjSrc\SrcChartEx\ChartAddIn\ChartEnvSetupDlgAddIn\ChartEnvSetupDlgAddIn\StyleDataManager.cpp

; 474  : 	szGraphName = pIChartManager->FindFirstIndicator( _MTEXT( C2_PRICE_MA), nR, nC, nV, nG, szRQ);

  00496	89 7d b8	 mov	 DWORD PTR _stringSrc$1$[ebp], edi
; File D:\git\src\IBK\IBK_DRFN\ProjSrc\SrcChartEx\ChartAddIn\ChartEnvSetupDlgAddIn\Include_AddIn_135914\I135914\_IString.h

; 67   : 		if( m_pIStrData) m_pIStrData->Release();

  00499	85 c0		 test	 eax, eax
  0049b	74 06		 je	 SHORT $LN52@GetStyleDa
  0049d	8b 08		 mov	 ecx, DWORD PTR [eax]
  0049f	50		 push	 eax
  004a0	ff 51 08	 call	 DWORD PTR [ecx+8]
$LN52@GetStyleDa:

; 68   : 		m_pIStrData = stringSrc;	// Do not AddRef(). Because It must be Return Value.

  004a3	89 7d ac	 mov	 DWORD PTR _szGraphName$[ebp+4], edi
  004a6	85 ff		 test	 edi, edi

; 69   : 		if( m_pIStrData) m_szData = m_pIStrData->GetData();

  004a8	74 17		 je	 SHORT $LN53@GetStyleDa
  004aa	8b 07		 mov	 eax, DWORD PTR [edi]
  004ac	8b cf		 mov	 ecx, edi
  004ae	ff 50 10	 call	 DWORD PTR [eax+16]
  004b1	89 45 a8	 mov	 DWORD PTR _szGraphName$[ebp], eax

; 57   : 		if( !m_szData) return TRUE;

  004b4	85 c0		 test	 eax, eax
  004b6	74 0e		 je	 SHORT $LN125@GetStyleDa

; 58   : 		return !*m_szData;

  004b8	33 c9		 xor	 ecx, ecx
  004ba	38 08		 cmp	 BYTE PTR [eax], cl
  004bc	0f 94 c1	 sete	 cl
  004bf	eb 0a		 jmp	 SHORT $LN56@GetStyleDa
$LN53@GetStyleDa:

; 70   : 		else m_szData = NULL;

  004c1	33 c0		 xor	 eax, eax
  004c3	89 45 a8	 mov	 DWORD PTR _szGraphName$[ebp], eax
$LN125@GetStyleDa:

; 57   : 		if( !m_szData) return TRUE;

  004c6	b9 01 00 00 00	 mov	 ecx, 1
$LN56@GetStyleDa:
; File D:\git\src\IBK\IBK_DRFN\ProjSrc\SrcChartEx\ChartAddIn\ChartEnvSetupDlgAddIn\ChartEnvSetupDlgAddIn\StyleDataManager.cpp

; 475  : 	if( szGraphName.IsEmpty())

  004cb	8b 13		 mov	 edx, DWORD PTR [ebx]
  004cd	85 c9		 test	 ecx, ecx
  004cf	8b cb		 mov	 ecx, ebx
  004d1	74 14		 je	 SHORT $LN20@GetStyleDa

; 476  : 			pIGraphInfo = pIGraphInfoManager->GetIndicatorInfo( IGraphInfoManager::IEILT_SITE_DEFAULT, _MTEXT( C2_PRICE_MA), IGraphInfoManager::IEIIGT_WITH_DEFAULT_GET);

  004d3	a1 54 00 00 00	 mov	 eax, DWORD PTR ?g_iMetaTable@@3VIMetaTable@@A+84
  004d8	6a 01		 push	 1
  004da	ff b0 20 03 00
	00		 push	 DWORD PTR [eax+800]
  004e0	6a 00		 push	 0
  004e2	ff 52 18	 call	 DWORD PTR [edx+24]
  004e5	eb 06		 jmp	 SHORT $LN134@GetStyleDa
$LN20@GetStyleDa:

; 477  : 	else	pIGraphInfo = pIGraphInfoManager->GetGraphInfo( IGraphInfoManager::IEILT_USER, szGraphName);

  004e7	50		 push	 eax
  004e8	6a 03		 push	 3
  004ea	ff 52 14	 call	 DWORD PTR [edx+20]
$LN134@GetStyleDa:

; 478  : 	if( pIGraphInfo)

  004ed	8b f8		 mov	 edi, eax
  004ef	85 ff		 test	 edi, edi
  004f1	0f 84 d0 00 00
	00		 je	 $LN70@GetStyleDa

; 479  : 	{
; 480  : 		int nMACount = pIGraphInfo->GetSubGraphCount();

  004f7	8b 07		 mov	 eax, DWORD PTR [edi]
  004f9	8b cf		 mov	 ecx, edi
  004fb	ff 50 2c	 call	 DWORD PTR [eax+44]
  004fe	33 f6		 xor	 esi, esi
  00500	89 45 0c	 mov	 DWORD PTR _nMACount$1$[ebp], eax

; 481  : 		for( int i = 0; i < nMACount; i++) p_styleData.SetPriceMAColor( i, pIGraphInfo->GetSubGraphColor( i, 1));

  00503	85 c0		 test	 eax, eax
  00505	7e 2b		 jle	 SHORT $LN3@GetStyleDa
  00507	8b d8		 mov	 ebx, eax
  00509	0f 1f 80 00 00
	00 00		 npad	 7
$LL4@GetStyleDa:
  00510	8b 17		 mov	 edx, DWORD PTR [edi]
  00512	8b cf		 mov	 ecx, edi
  00514	6a 01		 push	 1
  00516	56		 push	 esi
  00517	ff 52 64	 call	 DWORD PTR [edx+100]
  0051a	8b 4d 08	 mov	 ecx, DWORD PTR _p_styleData$[ebp]
  0051d	89 45 b4	 mov	 DWORD PTR $T5[ebp], eax
  00520	8d 45 b4	 lea	 eax, DWORD PTR $T5[ebp]
  00523	50		 push	 eax
  00524	56		 push	 esi
  00525	e8 00 00 00 00	 call	 ?SetPriceMAColor@CStyleData@@QAEXHABK@Z ; CStyleData::SetPriceMAColor
  0052a	46		 inc	 esi
  0052b	3b f3		 cmp	 esi, ebx
  0052d	7c e1		 jl	 SHORT $LL4@GetStyleDa
  0052f	8b 5d 10	 mov	 ebx, DWORD PTR _pIGraphInfoManager$1$[ebp]
$LN3@GetStyleDa:

; 483  : 		CList<CString, CString> *pTitleList = p_styleData.GetMATitleListData().GetPriceMATitleList_Pointer();

  00532	8b 4d 08	 mov	 ecx, DWORD PTR _p_styleData$[ebp]
  00535	e8 00 00 00 00	 call	 ?GetMATitleListData@CStyleData@@QAEAAVCMATitleListData@@XZ ; CStyleData::GetMATitleListData
  0053a	8b c8		 mov	 ecx, eax
  0053c	e8 00 00 00 00	 call	 ?GetPriceMATitleList_Pointer@CMATitleListData@@QAEPAV?$CList@V?$CStringT@DV?$StrTraitMFC_DLL@DV?$ChTraitsCRT@D@ATL@@@@@ATL@@V12@@@XZ ; CMATitleListData::GetPriceMATitleList_Pointer
; File D:\git\src\IBK\IBK_DRFN\ProjSrc\SrcChartEx\ChartAddIn\ChartEnvSetupDlgAddIn\Include_AddIn_135914\I135914\_IString.h

; 39   : 		m_pIStrData = p_pIString;	// Do not AddRef(). Because It must be Return Value.

  00541	33 f6		 xor	 esi, esi
; File D:\git\src\IBK\IBK_DRFN\ProjSrc\SrcChartEx\ChartAddIn\ChartEnvSetupDlgAddIn\ChartEnvSetupDlgAddIn\StyleDataManager.cpp

; 483  : 		CList<CString, CString> *pTitleList = p_styleData.GetMATitleListData().GetPriceMATitleList_Pointer();

  00543	89 45 b4	 mov	 DWORD PTR _pTitleList$1$[ebp], eax
; File D:\git\src\IBK\IBK_DRFN\ProjSrc\SrcChartEx\ChartAddIn\ChartEnvSetupDlgAddIn\Include_AddIn_135914\I135914\_IString.h

; 39   : 		m_pIStrData = p_pIString;	// Do not AddRef(). Because It must be Return Value.

  00546	89 75 c4	 mov	 DWORD PTR _szTitle$30[ebp+4], esi

; 41   : 		else m_szData = NULL;

  00549	89 75 c0	 mov	 DWORD PTR _szTitle$30[ebp], esi
; File D:\git\src\IBK\IBK_DRFN\ProjSrc\SrcChartEx\ChartAddIn\ChartEnvSetupDlgAddIn\ChartEnvSetupDlgAddIn\StyleDataManager.cpp

; 484  : 		ILPCSTR szTitle = NULL;

  0054c	33 c9		 xor	 ecx, ecx
  0054e	c6 45 fc 03	 mov	 BYTE PTR __$EHRec$[ebp+8], 3
  00552	89 4d c8	 mov	 DWORD PTR _i$1$[ebp], ecx

; 485  : 		for(int  i = 0; i < nMACount; i++) 

  00555	39 4d 0c	 cmp	 DWORD PTR _nMACount$1$[ebp], ecx
  00558	7e 52		 jle	 SHORT $LN6@GetStyleDa
  0055a	66 0f 1f 44 00
	00		 npad	 6
$LL7@GetStyleDa:

; 486  : 		{
; 487  : 			szTitle = pIGraphInfo->GetSubGraphTitleString( i);

  00560	8b 07		 mov	 eax, DWORD PTR [edi]
  00562	51		 push	 ecx
  00563	8b cf		 mov	 ecx, edi
  00565	ff 50 48	 call	 DWORD PTR [eax+72]
  00568	8b d8		 mov	 ebx, eax
; File D:\git\src\IBK\IBK_DRFN\ProjSrc\SrcChartEx\ChartAddIn\ChartEnvSetupDlgAddIn\Include_AddIn_135914\I135914\_IString.h

; 67   : 		if( m_pIStrData) m_pIStrData->Release();

  0056a	85 f6		 test	 esi, esi
  0056c	74 06		 je	 SHORT $LN64@GetStyleDa
  0056e	8b 0e		 mov	 ecx, DWORD PTR [esi]
  00570	56		 push	 esi
  00571	ff 51 08	 call	 DWORD PTR [ecx+8]
$LN64@GetStyleDa:

; 68   : 		m_pIStrData = stringSrc;	// Do not AddRef(). Because It must be Return Value.

  00574	8b f3		 mov	 esi, ebx
  00576	89 75 c4	 mov	 DWORD PTR _szTitle$30[ebp+4], esi
  00579	85 db		 test	 ebx, ebx

; 69   : 		if( m_pIStrData) m_szData = m_pIStrData->GetData();

  0057b	74 09		 je	 SHORT $LN65@GetStyleDa
  0057d	8b 03		 mov	 eax, DWORD PTR [ebx]
  0057f	8b cb		 mov	 ecx, ebx
  00581	ff 50 10	 call	 DWORD PTR [eax+16]
  00584	eb 02		 jmp	 SHORT $LN135@GetStyleDa
$LN65@GetStyleDa:

; 70   : 		else m_szData = NULL;

  00586	33 c0		 xor	 eax, eax
$LN135@GetStyleDa:
; File D:\git\src\IBK\IBK_DRFN\ProjSrc\SrcChartEx\ChartAddIn\ChartEnvSetupDlgAddIn\ChartEnvSetupDlgAddIn\StyleDataManager.cpp

; 488  : 			pTitleList->AddTail( ( const char *)szTitle);

  00588	51		 push	 ecx
  00589	8b cc		 mov	 ecx, esp
  0058b	89 45 c0	 mov	 DWORD PTR _szTitle$30[ebp], eax
  0058e	50		 push	 eax
  0058f	ff 15 00 00 00
	00		 call	 DWORD PTR __imp_??0?$CStringT@DV?$StrTraitMFC_DLL@DV?$ChTraitsCRT@D@ATL@@@@@ATL@@QAE@PBD@Z
  00595	8b 4d b4	 mov	 ecx, DWORD PTR _pTitleList$1$[ebp]
  00598	e8 00 00 00 00	 call	 ?AddTail@?$CList@V?$CStringT@DV?$StrTraitMFC_DLL@DV?$ChTraitsCRT@D@ATL@@@@@ATL@@V12@@@QAEPAU__POSITION@@V?$CStringT@DV?$StrTraitMFC_DLL@DV?$ChTraitsCRT@D@ATL@@@@@ATL@@@Z ; CList<ATL::CStringT<char,StrTraitMFC_DLL<char,ATL::ChTraitsCRT<char> > >,ATL::CStringT<char,StrTraitMFC_DLL<char,ATL::ChTraitsCRT<char> > > >::AddTail
  0059d	8b 4d c8	 mov	 ecx, DWORD PTR _i$1$[ebp]
  005a0	41		 inc	 ecx
  005a1	89 4d c8	 mov	 DWORD PTR _i$1$[ebp], ecx
  005a4	3b 4d 0c	 cmp	 ecx, DWORD PTR _nMACount$1$[ebp]
  005a7	7c b7		 jl	 SHORT $LL7@GetStyleDa
  005a9	8b 5d 10	 mov	 ebx, DWORD PTR _pIGraphInfoManager$1$[ebp]
$LN6@GetStyleDa:

; 489  : 		}
; 490  : 
; 491  : 		pIGraphInfo->Release();

  005ac	8b 07		 mov	 eax, DWORD PTR [edi]
  005ae	57		 push	 edi
  005af	ff 50 08	 call	 DWORD PTR [eax+8]
; File D:\git\src\IBK\IBK_DRFN\ProjSrc\SrcChartEx\ChartAddIn\ChartEnvSetupDlgAddIn\Include_AddIn_135914\I135914\_IString.h

; 44   : 	{

  005b2	c6 45 fc 04	 mov	 BYTE PTR __$EHRec$[ebp+8], 4

; 45   : 		if( m_pIStrData)

  005b6	85 f6		 test	 esi, esi
  005b8	74 06		 je	 SHORT $LN69@GetStyleDa

; 46   : 		{
; 47   : 			m_pIStrData->Release();

  005ba	8b 06		 mov	 eax, DWORD PTR [esi]
  005bc	56		 push	 esi
  005bd	ff 50 08	 call	 DWORD PTR [eax+8]
$LN69@GetStyleDa:

; 48   : 			m_pIStrData = NULL;
; 49   : 			m_szData = NULL;
; 50   : 		}
; 51   : 	}

  005c0	8b 75 08	 mov	 esi, DWORD PTR _p_styleData$[ebp]
  005c3	c6 45 fc 02	 mov	 BYTE PTR __$EHRec$[ebp+8], 2
$LN70@GetStyleDa:
; File D:\git\src\IBK\IBK_DRFN\ProjSrc\SrcChartEx\ChartAddIn\ChartEnvSetupDlgAddIn\ChartEnvSetupDlgAddIn\StyleDataManager.cpp

; 494  : 	szGraphName = pIChartManager->FindFirstIndicator( _MTEXT( C2_VOLUME_CHART), nR, nC, nV, nG, szRQ);

  005c7	ff 75 a0	 push	 DWORD PTR _szRQ$[ebp]
  005ca	8b 7d bc	 mov	 edi, DWORD PTR _pIChartManager$1$[ebp]
  005cd	8d 45 f0	 lea	 eax, DWORD PTR _nG$[ebp]
  005d0	50		 push	 eax
  005d1	8d 45 ec	 lea	 eax, DWORD PTR _nV$[ebp]
  005d4	8b cf		 mov	 ecx, edi
  005d6	50		 push	 eax
  005d7	8b 17		 mov	 edx, DWORD PTR [edi]
  005d9	8d 45 e8	 lea	 eax, DWORD PTR _nC$[ebp]
  005dc	50		 push	 eax
  005dd	8d 45 e4	 lea	 eax, DWORD PTR _nR$[ebp]
  005e0	50		 push	 eax
  005e1	a1 54 00 00 00	 mov	 eax, DWORD PTR ?g_iMetaTable@@3VIMetaTable@@A+84
  005e6	ff b0 2c 03 00
	00		 push	 DWORD PTR [eax+812]
  005ec	ff 52 58	 call	 DWORD PTR [edx+88]
  005ef	8b c8		 mov	 ecx, eax
; File D:\git\src\IBK\IBK_DRFN\ProjSrc\SrcChartEx\ChartAddIn\ChartEnvSetupDlgAddIn\Include_AddIn_135914\I135914\_IString.h

; 67   : 		if( m_pIStrData) m_pIStrData->Release();

  005f1	8b 45 b8	 mov	 eax, DWORD PTR _stringSrc$1$[ebp]
; File D:\git\src\IBK\IBK_DRFN\ProjSrc\SrcChartEx\ChartAddIn\ChartEnvSetupDlgAddIn\ChartEnvSetupDlgAddIn\StyleDataManager.cpp

; 494  : 	szGraphName = pIChartManager->FindFirstIndicator( _MTEXT( C2_VOLUME_CHART), nR, nC, nV, nG, szRQ);

  005f4	89 4d c4	 mov	 DWORD PTR _stringSrc$1$[ebp], ecx
; File D:\git\src\IBK\IBK_DRFN\ProjSrc\SrcChartEx\ChartAddIn\ChartEnvSetupDlgAddIn\Include_AddIn_135914\I135914\_IString.h

; 67   : 		if( m_pIStrData) m_pIStrData->Release();

  005f7	85 c0		 test	 eax, eax
  005f9	74 09		 je	 SHORT $LN73@GetStyleDa
  005fb	8b 08		 mov	 ecx, DWORD PTR [eax]
  005fd	50		 push	 eax
  005fe	ff 51 08	 call	 DWORD PTR [ecx+8]
  00601	8b 4d c4	 mov	 ecx, DWORD PTR _stringSrc$1$[ebp]
$LN73@GetStyleDa:

; 68   : 		m_pIStrData = stringSrc;	// Do not AddRef(). Because It must be Return Value.

  00604	89 4d ac	 mov	 DWORD PTR _szGraphName$[ebp+4], ecx
  00607	85 c9		 test	 ecx, ecx

; 69   : 		if( m_pIStrData) m_szData = m_pIStrData->GetData();

  00609	74 15		 je	 SHORT $LN74@GetStyleDa
  0060b	8b 01		 mov	 eax, DWORD PTR [ecx]
  0060d	ff 50 10	 call	 DWORD PTR [eax+16]
  00610	89 45 a8	 mov	 DWORD PTR _szGraphName$[ebp], eax

; 57   : 		if( !m_szData) return TRUE;

  00613	85 c0		 test	 eax, eax
  00615	74 0e		 je	 SHORT $LN126@GetStyleDa

; 58   : 		return !*m_szData;

  00617	33 c9		 xor	 ecx, ecx
  00619	38 08		 cmp	 BYTE PTR [eax], cl
  0061b	0f 94 c1	 sete	 cl
  0061e	eb 0a		 jmp	 SHORT $LN77@GetStyleDa
$LN74@GetStyleDa:

; 70   : 		else m_szData = NULL;

  00620	33 c0		 xor	 eax, eax
  00622	89 45 a8	 mov	 DWORD PTR _szGraphName$[ebp], eax
$LN126@GetStyleDa:

; 57   : 		if( !m_szData) return TRUE;

  00625	b9 01 00 00 00	 mov	 ecx, 1
$LN77@GetStyleDa:
; File D:\git\src\IBK\IBK_DRFN\ProjSrc\SrcChartEx\ChartAddIn\ChartEnvSetupDlgAddIn\ChartEnvSetupDlgAddIn\StyleDataManager.cpp

; 495  : 	if( szGraphName.IsEmpty())

  0062a	8b 13		 mov	 edx, DWORD PTR [ebx]
  0062c	85 c9		 test	 ecx, ecx
  0062e	8b cb		 mov	 ecx, ebx
  00630	74 19		 je	 SHORT $LN23@GetStyleDa

; 496  : 			pIGraphInfo = pIGraphInfoManager->GetIndicatorInfo( IGraphInfoManager::IEILT_SITE_DEFAULT, _MTEXT( C2_VOLUME_CHART), IGraphInfoManager::IEIIGT_WITH_DEFAULT_GET);

  00632	a1 54 00 00 00	 mov	 eax, DWORD PTR ?g_iMetaTable@@3VIMetaTable@@A+84
  00637	6a 01		 push	 1
  00639	ff b0 2c 03 00
	00		 push	 DWORD PTR [eax+812]
  0063f	6a 00		 push	 0
  00641	ff 52 18	 call	 DWORD PTR [edx+24]
  00644	8b c8		 mov	 ecx, eax
  00646	89 4d dc	 mov	 DWORD PTR _pIGraphInfo$3$[ebp], ecx
  00649	eb 0b		 jmp	 SHORT $LN24@GetStyleDa
$LN23@GetStyleDa:

; 497  : 	else	pIGraphInfo = pIGraphInfoManager->GetGraphInfo( IGraphInfoManager::IEILT_USER, szGraphName);

  0064b	50		 push	 eax
  0064c	6a 03		 push	 3
  0064e	ff 52 14	 call	 DWORD PTR [edx+20]
  00651	8b c8		 mov	 ecx, eax
  00653	89 45 dc	 mov	 DWORD PTR _pIGraphInfo$3$[ebp], eax
$LN24@GetStyleDa:

; 498  : 	if( pIGraphInfo)

  00656	85 c9		 test	 ecx, ecx
  00658	0f 84 af 00 00
	00		 je	 $LN25@GetStyleDa

; 499  : 	{
; 500  : 		COLORREF clrTradeUp1 = 0, clrTradeUp2 = 0, clrTradeDown1 = 0, clrTradeDown2 = 0, clrTradeEqual1 = 0, clrTradeEqual2 = 0;
; 501  : 		BOOL bTradeUpFill = FALSE, bTradeDownFill = FALSE;
; 502  : 		pIGraphInfo->GetSubGraphColorAndFillFlag( 0, clrTradeUp1, clrTradeUp2, clrTradeDown1, clrTradeDown2, clrTradeEqual1, clrTradeEqual2, bTradeUpFill, bTradeDownFill);

  0065e	8b 01		 mov	 eax, DWORD PTR [ecx]
  00660	8d 55 d8	 lea	 edx, DWORD PTR _bTradeDownFill$39[ebp]
  00663	52		 push	 edx
  00664	8d 55 d4	 lea	 edx, DWORD PTR _bTradeUpFill$37[ebp]
  00667	c7 45 c8 00 00
	00 00		 mov	 DWORD PTR _clrTradeUp1$32[ebp], 0
  0066e	52		 push	 edx
  0066f	8d 55 b4	 lea	 edx, DWORD PTR _clrTradeEqual2$4[ebp]
  00672	c7 45 b0 00 00
	00 00		 mov	 DWORD PTR _clrTradeUp2$3[ebp], 0
  00679	52		 push	 edx
  0067a	8d 55 d0	 lea	 edx, DWORD PTR _clrTradeEqual1$35[ebp]
  0067d	c7 45 cc 00 00
	00 00		 mov	 DWORD PTR _clrTradeDown1$33[ebp], 0
  00684	52		 push	 edx
  00685	8d 55 b8	 lea	 edx, DWORD PTR _clrTradeDown2$7[ebp]
  00688	c7 45 b8 00 00
	00 00		 mov	 DWORD PTR _clrTradeDown2$7[ebp], 0
  0068f	52		 push	 edx
  00690	8d 55 cc	 lea	 edx, DWORD PTR _clrTradeDown1$33[ebp]
  00693	c7 45 d0 00 00
	00 00		 mov	 DWORD PTR _clrTradeEqual1$35[ebp], 0
  0069a	52		 push	 edx
  0069b	8d 55 b0	 lea	 edx, DWORD PTR _clrTradeUp2$3[ebp]
  0069e	c7 45 b4 00 00
	00 00		 mov	 DWORD PTR _clrTradeEqual2$4[ebp], 0
  006a5	52		 push	 edx
  006a6	8d 55 c8	 lea	 edx, DWORD PTR _clrTradeUp1$32[ebp]
  006a9	c7 45 d4 00 00
	00 00		 mov	 DWORD PTR _bTradeUpFill$37[ebp], 0
  006b0	52		 push	 edx
  006b1	6a 00		 push	 0
  006b3	c7 45 d8 00 00
	00 00		 mov	 DWORD PTR _bTradeDownFill$39[ebp], 0
  006ba	ff 50 70	 call	 DWORD PTR [eax+112]

; 503  : 		p_styleData.SetTradeUpColor(		clrTradeUp1);	

  006bd	8d 45 c8	 lea	 eax, DWORD PTR _clrTradeUp1$32[ebp]
  006c0	8b ce		 mov	 ecx, esi
  006c2	50		 push	 eax
  006c3	e8 00 00 00 00	 call	 ?SetTradeUpColor@CStyleData@@QAEXABK@Z ; CStyleData::SetTradeUpColor

; 504  : 		p_styleData.SetTradeDownColor(		clrTradeDown1);

  006c8	8d 45 cc	 lea	 eax, DWORD PTR _clrTradeDown1$33[ebp]
  006cb	8b ce		 mov	 ecx, esi
  006cd	50		 push	 eax
  006ce	e8 00 00 00 00	 call	 ?SetTradeDownColor@CStyleData@@QAEXABK@Z ; CStyleData::SetTradeDownColor

; 505  : 		p_styleData.SetTradeEqualColor(		clrTradeEqual1);

  006d3	8d 45 d0	 lea	 eax, DWORD PTR _clrTradeEqual1$35[ebp]
  006d6	8b ce		 mov	 ecx, esi
  006d8	50		 push	 eax
  006d9	e8 00 00 00 00	 call	 ?SetTradeEqualColor@CStyleData@@QAEXABK@Z ; CStyleData::SetTradeEqualColor

; 506  : 		p_styleData.SetTradeUpFill(			bTradeUpFill ? true : false);

  006de	83 7d d4 00	 cmp	 DWORD PTR _bTradeUpFill$37[ebp], 0
  006e2	8d 45 0f	 lea	 eax, DWORD PTR $T43[ebp]
  006e5	50		 push	 eax
  006e6	8b ce		 mov	 ecx, esi
  006e8	0f 95 45 0f	 setne	 BYTE PTR $T43[ebp]
  006ec	e8 00 00 00 00	 call	 ?SetTradeUpFill@CStyleData@@QAEXAB_N@Z ; CStyleData::SetTradeUpFill

; 507  : 		p_styleData.SetTradeDownFill(		bTradeDownFill ? true : false);

  006f1	83 7d d8 00	 cmp	 DWORD PTR _bTradeDownFill$39[ebp], 0
  006f5	8d 45 0f	 lea	 eax, DWORD PTR $T42[ebp]
  006f8	50		 push	 eax
  006f9	8b ce		 mov	 ecx, esi
  006fb	0f 95 45 0f	 setne	 BYTE PTR $T42[ebp]
  006ff	e8 00 00 00 00	 call	 ?SetTradeDownFill@CStyleData@@QAEXAB_N@Z ; CStyleData::SetTradeDownFill

; 508  : 		pIGraphInfo->Release();

  00704	8b 4d dc	 mov	 ecx, DWORD PTR _pIGraphInfo$3$[ebp]
  00707	51		 push	 ecx
  00708	8b 01		 mov	 eax, DWORD PTR [ecx]
  0070a	ff 50 08	 call	 DWORD PTR [eax+8]
$LN25@GetStyleDa:

; 511  : 	szGraphName = pIChartManager->FindFirstIndicator( _MTEXT( C2_VOLUME_MA), nR, nC, nV, nG, szRQ);

  0070d	ff 75 a0	 push	 DWORD PTR _szRQ$[ebp]
  00710	8b 17		 mov	 edx, DWORD PTR [edi]
  00712	8d 45 f0	 lea	 eax, DWORD PTR _nG$[ebp]
  00715	50		 push	 eax
  00716	8d 45 ec	 lea	 eax, DWORD PTR _nV$[ebp]
  00719	8b cf		 mov	 ecx, edi
  0071b	50		 push	 eax
  0071c	8d 45 e8	 lea	 eax, DWORD PTR _nC$[ebp]
  0071f	50		 push	 eax
  00720	8d 45 e4	 lea	 eax, DWORD PTR _nR$[ebp]
  00723	50		 push	 eax
  00724	a1 54 00 00 00	 mov	 eax, DWORD PTR ?g_iMetaTable@@3VIMetaTable@@A+84
  00729	ff b0 24 03 00
	00		 push	 DWORD PTR [eax+804]
  0072f	ff 52 58	 call	 DWORD PTR [edx+88]
  00732	8b f0		 mov	 esi, eax
; File D:\git\src\IBK\IBK_DRFN\ProjSrc\SrcChartEx\ChartAddIn\ChartEnvSetupDlgAddIn\Include_AddIn_135914\I135914\_IString.h

; 67   : 		if( m_pIStrData) m_pIStrData->Release();

  00734	8b 45 c4	 mov	 eax, DWORD PTR _stringSrc$1$[ebp]
; File D:\git\src\IBK\IBK_DRFN\ProjSrc\SrcChartEx\ChartAddIn\ChartEnvSetupDlgAddIn\ChartEnvSetupDlgAddIn\StyleDataManager.cpp

; 511  : 	szGraphName = pIChartManager->FindFirstIndicator( _MTEXT( C2_VOLUME_MA), nR, nC, nV, nG, szRQ);

  00737	89 75 b4	 mov	 DWORD PTR _stringSrc$1$[ebp], esi
; File D:\git\src\IBK\IBK_DRFN\ProjSrc\SrcChartEx\ChartAddIn\ChartEnvSetupDlgAddIn\Include_AddIn_135914\I135914\_IString.h

; 67   : 		if( m_pIStrData) m_pIStrData->Release();

  0073a	85 c0		 test	 eax, eax
  0073c	74 06		 je	 SHORT $LN81@GetStyleDa
  0073e	8b 08		 mov	 ecx, DWORD PTR [eax]
  00740	50		 push	 eax
  00741	ff 51 08	 call	 DWORD PTR [ecx+8]
$LN81@GetStyleDa:

; 68   : 		m_pIStrData = stringSrc;	// Do not AddRef(). Because It must be Return Value.

  00744	89 75 ac	 mov	 DWORD PTR _szGraphName$[ebp+4], esi
  00747	85 f6		 test	 esi, esi

; 69   : 		if( m_pIStrData) m_szData = m_pIStrData->GetData();

  00749	74 29		 je	 SHORT $LN82@GetStyleDa
  0074b	8b 06		 mov	 eax, DWORD PTR [esi]
  0074d	8b ce		 mov	 ecx, esi
  0074f	ff 50 10	 call	 DWORD PTR [eax+16]
  00752	89 45 a8	 mov	 DWORD PTR _szGraphName$[ebp], eax

; 57   : 		if( !m_szData) return TRUE;

  00755	85 c0		 test	 eax, eax
  00757	74 22		 je	 SHORT $LN127@GetStyleDa
; File D:\git\src\IBK\IBK_DRFN\ProjSrc\SrcChartEx\ChartAddIn\ChartEnvSetupDlgAddIn\ChartEnvSetupDlgAddIn\StyleDataManager.cpp

; 512  : 	if( szGraphName.IsEmpty())

  00759	80 38 00	 cmp	 BYTE PTR [eax], 0
  0075c	8b 13		 mov	 edx, DWORD PTR [ebx]
  0075e	74 1d		 je	 SHORT $LN128@GetStyleDa

; 514  : 	else	pIGraphInfo = pIGraphInfoManager->GetGraphInfo( IGraphInfoManager::IEILT_USER, _MTEXT( C2_VOLUME_MA ));

  00760	a1 54 00 00 00	 mov	 eax, DWORD PTR ?g_iMetaTable@@3VIMetaTable@@A+84
  00765	8b cb		 mov	 ecx, ebx
  00767	ff b0 24 03 00
	00		 push	 DWORD PTR [eax+804]
  0076d	6a 03		 push	 3
  0076f	ff 52 14	 call	 DWORD PTR [edx+20]
  00772	eb 1d		 jmp	 SHORT $LN136@GetStyleDa
$LN82@GetStyleDa:
; File D:\git\src\IBK\IBK_DRFN\ProjSrc\SrcChartEx\ChartAddIn\ChartEnvSetupDlgAddIn\Include_AddIn_135914\I135914\_IString.h

; 70   : 		else m_szData = NULL;

  00774	c7 45 a8 00 00
	00 00		 mov	 DWORD PTR _szGraphName$[ebp], 0
$LN127@GetStyleDa:

; 57   : 		if( !m_szData) return TRUE;

  0077b	8b 13		 mov	 edx, DWORD PTR [ebx]
$LN128@GetStyleDa:
; File D:\git\src\IBK\IBK_DRFN\ProjSrc\SrcChartEx\ChartAddIn\ChartEnvSetupDlgAddIn\ChartEnvSetupDlgAddIn\StyleDataManager.cpp

; 513  : 			pIGraphInfo = pIGraphInfoManager->GetIndicatorInfo( IGraphInfoManager::IEILT_SITE_DEFAULT, _MTEXT( C2_VOLUME_MA), IGraphInfoManager::IEIIGT_WITH_DEFAULT_GET);

  0077d	a1 54 00 00 00	 mov	 eax, DWORD PTR ?g_iMetaTable@@3VIMetaTable@@A+84
  00782	8b cb		 mov	 ecx, ebx
  00784	6a 01		 push	 1
  00786	ff b0 24 03 00
	00		 push	 DWORD PTR [eax+804]
  0078c	6a 00		 push	 0
  0078e	ff 52 18	 call	 DWORD PTR [edx+24]
$LN136@GetStyleDa:

; 515  : 	if( pIGraphInfo)

  00791	8b f0		 mov	 esi, eax
  00793	85 f6		 test	 esi, esi
  00795	0f 84 cc 00 00
	00		 je	 $LN99@GetStyleDa

; 516  : 	{
; 517  : 		int nMACount = pIGraphInfo->GetSubGraphCount();

  0079b	8b 06		 mov	 eax, DWORD PTR [esi]
  0079d	8b ce		 mov	 ecx, esi
  0079f	ff 50 2c	 call	 DWORD PTR [eax+44]
  007a2	33 ff		 xor	 edi, edi
  007a4	89 45 0c	 mov	 DWORD PTR _nMACount$1$[ebp], eax

; 518  : 		for( int i = 0; i < nMACount; i++) p_styleData.SetTradeMAColor( i, pIGraphInfo->GetSubGraphColor( i, 1));

  007a7	85 c0		 test	 eax, eax
  007a9	7e 27		 jle	 SHORT $LN9@GetStyleDa
  007ab	8b d8		 mov	 ebx, eax
  007ad	0f 1f 00	 npad	 3
$LL10@GetStyleDa:
  007b0	8b 16		 mov	 edx, DWORD PTR [esi]
  007b2	8b ce		 mov	 ecx, esi
  007b4	6a 01		 push	 1
  007b6	57		 push	 edi
  007b7	ff 52 64	 call	 DWORD PTR [edx+100]
  007ba	8b 4d 08	 mov	 ecx, DWORD PTR _p_styleData$[ebp]
  007bd	89 45 b0	 mov	 DWORD PTR $T2[ebp], eax
  007c0	8d 45 b0	 lea	 eax, DWORD PTR $T2[ebp]
  007c3	50		 push	 eax
  007c4	57		 push	 edi
  007c5	e8 00 00 00 00	 call	 ?SetTradeMAColor@CStyleData@@QAEXHABK@Z ; CStyleData::SetTradeMAColor
  007ca	47		 inc	 edi
  007cb	3b fb		 cmp	 edi, ebx
  007cd	7c e1		 jl	 SHORT $LL10@GetStyleDa
  007cf	8b 5d 10	 mov	 ebx, DWORD PTR _pIGraphInfoManager$1$[ebp]
$LN9@GetStyleDa:

; 520  : 		CList<CString, CString> *pTitleList = p_styleData.GetMATitleListData().GetTradeMATitleList_Pointer();

  007d2	8b 4d 08	 mov	 ecx, DWORD PTR _p_styleData$[ebp]
  007d5	e8 00 00 00 00	 call	 ?GetMATitleListData@CStyleData@@QAEAAVCMATitleListData@@XZ ; CStyleData::GetMATitleListData
  007da	8b c8		 mov	 ecx, eax
  007dc	e8 00 00 00 00	 call	 ?GetTradeMATitleList_Pointer@CMATitleListData@@QAEPAV?$CList@V?$CStringT@DV?$StrTraitMFC_DLL@DV?$ChTraitsCRT@D@ATL@@@@@ATL@@V12@@@XZ ; CMATitleListData::GetTradeMATitleList_Pointer
; File D:\git\src\IBK\IBK_DRFN\ProjSrc\SrcChartEx\ChartAddIn\ChartEnvSetupDlgAddIn\Include_AddIn_135914\I135914\_IString.h

; 39   : 		m_pIStrData = p_pIString;	// Do not AddRef(). Because It must be Return Value.

  007e1	33 ff		 xor	 edi, edi
; File D:\git\src\IBK\IBK_DRFN\ProjSrc\SrcChartEx\ChartAddIn\ChartEnvSetupDlgAddIn\ChartEnvSetupDlgAddIn\StyleDataManager.cpp

; 520  : 		CList<CString, CString> *pTitleList = p_styleData.GetMATitleListData().GetTradeMATitleList_Pointer();

  007e3	89 45 b0	 mov	 DWORD PTR _pTitleList$1$[ebp], eax
; File D:\git\src\IBK\IBK_DRFN\ProjSrc\SrcChartEx\ChartAddIn\ChartEnvSetupDlgAddIn\Include_AddIn_135914\I135914\_IString.h

; 39   : 		m_pIStrData = p_pIString;	// Do not AddRef(). Because It must be Return Value.

  007e6	89 7d c4	 mov	 DWORD PTR _szTitle$29[ebp+4], edi

; 41   : 		else m_szData = NULL;

  007e9	89 7d c0	 mov	 DWORD PTR _szTitle$29[ebp], edi
; File D:\git\src\IBK\IBK_DRFN\ProjSrc\SrcChartEx\ChartAddIn\ChartEnvSetupDlgAddIn\ChartEnvSetupDlgAddIn\StyleDataManager.cpp

; 521  : 		ILPCSTR szTitle = NULL;

  007ec	33 c9		 xor	 ecx, ecx
  007ee	c6 45 fc 05	 mov	 BYTE PTR __$EHRec$[ebp+8], 5
  007f2	89 4d 08	 mov	 DWORD PTR _i$1$[ebp], ecx

; 522  : 		for(int i = 0; i < nMACount; i++) 

  007f5	39 4d 0c	 cmp	 DWORD PTR _nMACount$1$[ebp], ecx
  007f8	7e 52		 jle	 SHORT $LN12@GetStyleDa
  007fa	66 0f 1f 44 00
	00		 npad	 6
$LL13@GetStyleDa:

; 523  : 		{
; 524  : 			szTitle = pIGraphInfo->GetSubGraphTitleString( i);

  00800	8b 06		 mov	 eax, DWORD PTR [esi]
  00802	51		 push	 ecx
  00803	8b ce		 mov	 ecx, esi
  00805	ff 50 48	 call	 DWORD PTR [eax+72]
  00808	8b d8		 mov	 ebx, eax
; File D:\git\src\IBK\IBK_DRFN\ProjSrc\SrcChartEx\ChartAddIn\ChartEnvSetupDlgAddIn\Include_AddIn_135914\I135914\_IString.h

; 67   : 		if( m_pIStrData) m_pIStrData->Release();

  0080a	85 ff		 test	 edi, edi
  0080c	74 06		 je	 SHORT $LN93@GetStyleDa
  0080e	8b 0f		 mov	 ecx, DWORD PTR [edi]
  00810	57		 push	 edi
  00811	ff 51 08	 call	 DWORD PTR [ecx+8]
$LN93@GetStyleDa:

; 68   : 		m_pIStrData = stringSrc;	// Do not AddRef(). Because It must be Return Value.

  00814	8b fb		 mov	 edi, ebx
  00816	89 7d c4	 mov	 DWORD PTR _szTitle$29[ebp+4], edi
  00819	85 db		 test	 ebx, ebx

; 69   : 		if( m_pIStrData) m_szData = m_pIStrData->GetData();

  0081b	74 09		 je	 SHORT $LN94@GetStyleDa
  0081d	8b 03		 mov	 eax, DWORD PTR [ebx]
  0081f	8b cb		 mov	 ecx, ebx
  00821	ff 50 10	 call	 DWORD PTR [eax+16]
  00824	eb 02		 jmp	 SHORT $LN137@GetStyleDa
$LN94@GetStyleDa:

; 70   : 		else m_szData = NULL;

  00826	33 c0		 xor	 eax, eax
$LN137@GetStyleDa:
; File D:\git\src\IBK\IBK_DRFN\ProjSrc\SrcChartEx\ChartAddIn\ChartEnvSetupDlgAddIn\ChartEnvSetupDlgAddIn\StyleDataManager.cpp

; 525  : 			pTitleList->AddTail( ( const char *)szTitle);

  00828	51		 push	 ecx
  00829	8b cc		 mov	 ecx, esp
  0082b	89 45 c0	 mov	 DWORD PTR _szTitle$29[ebp], eax
  0082e	50		 push	 eax
  0082f	ff 15 00 00 00
	00		 call	 DWORD PTR __imp_??0?$CStringT@DV?$StrTraitMFC_DLL@DV?$ChTraitsCRT@D@ATL@@@@@ATL@@QAE@PBD@Z
  00835	8b 4d b0	 mov	 ecx, DWORD PTR _pTitleList$1$[ebp]
  00838	e8 00 00 00 00	 call	 ?AddTail@?$CList@V?$CStringT@DV?$StrTraitMFC_DLL@DV?$ChTraitsCRT@D@ATL@@@@@ATL@@V12@@@QAEPAU__POSITION@@V?$CStringT@DV?$StrTraitMFC_DLL@DV?$ChTraitsCRT@D@ATL@@@@@ATL@@@Z ; CList<ATL::CStringT<char,StrTraitMFC_DLL<char,ATL::ChTraitsCRT<char> > >,ATL::CStringT<char,StrTraitMFC_DLL<char,ATL::ChTraitsCRT<char> > > >::AddTail
  0083d	8b 4d 08	 mov	 ecx, DWORD PTR _i$1$[ebp]
  00840	41		 inc	 ecx
  00841	89 4d 08	 mov	 DWORD PTR _i$1$[ebp], ecx
  00844	3b 4d 0c	 cmp	 ecx, DWORD PTR _nMACount$1$[ebp]
  00847	7c b7		 jl	 SHORT $LL13@GetStyleDa
  00849	8b 5d 10	 mov	 ebx, DWORD PTR _pIGraphInfoManager$1$[ebp]
$LN12@GetStyleDa:

; 526  : 		}
; 527  : 
; 528  : 		pIGraphInfo->Release();

  0084c	8b 06		 mov	 eax, DWORD PTR [esi]
  0084e	56		 push	 esi
  0084f	ff 50 08	 call	 DWORD PTR [eax+8]
; File D:\git\src\IBK\IBK_DRFN\ProjSrc\SrcChartEx\ChartAddIn\ChartEnvSetupDlgAddIn\Include_AddIn_135914\I135914\_IString.h

; 44   : 	{

  00852	c6 45 fc 06	 mov	 BYTE PTR __$EHRec$[ebp+8], 6

; 45   : 		if( m_pIStrData)

  00856	85 ff		 test	 edi, edi
  00858	74 06		 je	 SHORT $LN98@GetStyleDa

; 46   : 		{
; 47   : 			m_pIStrData->Release();

  0085a	8b 07		 mov	 eax, DWORD PTR [edi]
  0085c	57		 push	 edi
  0085d	ff 50 08	 call	 DWORD PTR [eax+8]
$LN98@GetStyleDa:
  00860	8b 7d bc	 mov	 edi, DWORD PTR _pIChartManager$1$[ebp]

; 48   : 			m_pIStrData = NULL;
; 49   : 			m_szData = NULL;
; 50   : 		}
; 51   : 	}

  00863	c6 45 fc 02	 mov	 BYTE PTR __$EHRec$[ebp+8], 2
$LN99@GetStyleDa:
; File D:\git\src\IBK\IBK_DRFN\ProjSrc\SrcChartEx\ChartAddIn\ChartEnvSetupDlgAddIn\ChartEnvSetupDlgAddIn\StyleDataManager.cpp

; 530  : 	pIChartManager->Release();

  00867	8b 07		 mov	 eax, DWORD PTR [edi]
  00869	57		 push	 edi
  0086a	ff 50 08	 call	 DWORD PTR [eax+8]

; 531  : 	pIGraphInfoManager->Release();

  0086d	8b 03		 mov	 eax, DWORD PTR [ebx]
  0086f	53		 push	 ebx
  00870	ff 50 08	 call	 DWORD PTR [eax+8]
; File D:\git\src\IBK\IBK_DRFN\ProjSrc\SrcChartEx\ChartAddIn\ChartEnvSetupDlgAddIn\Include_AddIn_135914\I135914\_IString.h

; 45   : 		if( m_pIStrData)

  00873	8b 4d b4	 mov	 ecx, DWORD PTR _stringSrc$1$[ebp]
  00876	c6 45 fc 07	 mov	 BYTE PTR __$EHRec$[ebp+8], 7
  0087a	85 c9		 test	 ecx, ecx
  0087c	74 06		 je	 SHORT $LN102@GetStyleDa

; 46   : 		{
; 47   : 			m_pIStrData->Release();

  0087e	8b 01		 mov	 eax, DWORD PTR [ecx]
  00880	51		 push	 ecx
  00881	ff 50 08	 call	 DWORD PTR [eax+8]
$LN102@GetStyleDa:

; 45   : 		if( m_pIStrData)

  00884	8b 4d a4	 mov	 ecx, DWORD PTR _szRQ$[ebp+4]
  00887	c6 45 fc 08	 mov	 BYTE PTR __$EHRec$[ebp+8], 8
  0088b	85 c9		 test	 ecx, ecx
  0088d	74 06		 je	 SHORT $LN106@GetStyleDa

; 46   : 		{
; 47   : 			m_pIStrData->Release();

  0088f	8b 01		 mov	 eax, DWORD PTR [ecx]
  00891	51		 push	 ecx
$LN131@GetStyleDa:
; File D:\git\src\IBK\IBK_DRFN\ProjSrc\SrcChartEx\ChartAddIn\ChartEnvSetupDlgAddIn\ChartEnvSetupDlgAddIn\StyleDataManager.cpp

; 532  : }

  00892	ff 50 08	 call	 DWORD PTR [eax+8]
$LN106@GetStyleDa:
  00895	8d 4d e0	 lea	 ecx, DWORD PTR _strStyle$[ebp]
  00898	ff 15 00 00 00
	00		 call	 DWORD PTR __imp_??1?$CStringT@DV?$StrTraitMFC_DLL@DV?$ChTraitsCRT@D@ATL@@@@@ATL@@QAE@XZ
  0089e	8b 4d f4	 mov	 ecx, DWORD PTR __$EHRec$[ebp]
  008a1	64 89 0d 00 00
	00 00		 mov	 DWORD PTR fs:0, ecx
  008a8	59		 pop	 ecx
  008a9	5f		 pop	 edi
  008aa	5e		 pop	 esi
  008ab	5b		 pop	 ebx
  008ac	8b e5		 mov	 esp, ebp
  008ae	5d		 pop	 ebp
  008af	c2 0c 00	 ret	 12			; 0000000cH
_TEXT	ENDS
;	COMDAT text$x
text$x	SEGMENT
__unwindfunclet$?GetStyleDataFromOCX@CStyleDataManager@@QAEXAAVCStyleData@@PAUIChartOCX135914@@H@Z$0:
  00000	8d 4d e0	 lea	 ecx, DWORD PTR _strStyle$[ebp]
  00003	ff 25 00 00 00
	00		 jmp	 DWORD PTR __imp_??1?$CStringT@DV?$StrTraitMFC_DLL@DV?$ChTraitsCRT@D@ATL@@@@@ATL@@QAE@XZ
__unwindfunclet$?GetStyleDataFromOCX@CStyleDataManager@@QAEXAAVCStyleData@@PAUIChartOCX135914@@H@Z$1:
  00009	8d 4d a0	 lea	 ecx, DWORD PTR _szRQ$[ebp]
  0000c	e9 00 00 00 00	 jmp	 ??1ILPCSTR135914@@QAE@XZ ; ILPCSTR135914::~ILPCSTR135914
__unwindfunclet$?GetStyleDataFromOCX@CStyleDataManager@@QAEXAAVCStyleData@@PAUIChartOCX135914@@H@Z$2:
  00011	8d 4d a8	 lea	 ecx, DWORD PTR _szGraphName$[ebp]
  00014	e9 00 00 00 00	 jmp	 ??1ILPCSTR135914@@QAE@XZ ; ILPCSTR135914::~ILPCSTR135914
__unwindfunclet$?GetStyleDataFromOCX@CStyleDataManager@@QAEXAAVCStyleData@@PAUIChartOCX135914@@H@Z$3:
  00019	8d 4d c0	 lea	 ecx, DWORD PTR _szTitle$30[ebp]
  0001c	e9 00 00 00 00	 jmp	 ??1ILPCSTR135914@@QAE@XZ ; ILPCSTR135914::~ILPCSTR135914
__unwindfunclet$?GetStyleDataFromOCX@CStyleDataManager@@QAEXAAVCStyleData@@PAUIChartOCX135914@@H@Z$5:
  00021	8d 4d c0	 lea	 ecx, DWORD PTR _szTitle$29[ebp]
  00024	e9 00 00 00 00	 jmp	 ??1ILPCSTR135914@@QAE@XZ ; ILPCSTR135914::~ILPCSTR135914
  00029	cc		 int	 3
  0002a	cc		 int	 3
  0002b	cc		 int	 3
  0002c	cc		 int	 3
  0002d	cc		 int	 3
__ehhandler$?GetStyleDataFromOCX@CStyleDataManager@@QAEXAAVCStyleData@@PAUIChartOCX135914@@H@Z:
  0002e	90		 npad	 1
  0002f	90		 npad	 1
  00030	8b 54 24 08	 mov	 edx, DWORD PTR [esp+8]
  00034	8d 42 0c	 lea	 eax, DWORD PTR [edx+12]
  00037	8b 4a 9c	 mov	 ecx, DWORD PTR [edx-100]
  0003a	33 c8		 xor	 ecx, eax
  0003c	e8 00 00 00 00	 call	 @__security_check_cookie@4
  00041	b8 00 00 00 00	 mov	 eax, OFFSET __ehfuncinfo$?GetStyleDataFromOCX@CStyleDataManager@@QAEXAAVCStyleData@@PAUIChartOCX135914@@H@Z
  00046	e9 00 00 00 00	 jmp	 ___CxxFrameHandler3
text$x	ENDS
?GetStyleDataFromOCX@CStyleDataManager@@QAEXAAVCStyleData@@PAUIChartOCX135914@@H@Z ENDP ; CStyleDataManager::GetStyleDataFromOCX
; Function compile flags: /Ogtp
; File D:\git\src\IBK\IBK_DRFN\ProjSrc\SrcChartEx\ChartAddIn\ChartEnvSetupDlgAddIn\ChartEnvSetupDlgAddIn\StyleDataManager.cpp
; File C:\Program Files (x86)\Microsoft Visual Studio\2019\Community\VC\Tools\MSVC\14.29.30133\atlmfc\include\afxtempl.h
; File D:\git\src\IBK\IBK_DRFN\ProjSrc\SrcChartEx\ChartAddIn\ChartEnvSetupDlgAddIn\ChartEnvSetupDlgAddIn\StyleDataManager.cpp
; File C:\Program Files (x86)\Microsoft Visual Studio\2019\Community\VC\Tools\MSVC\14.29.30133\atlmfc\include\atlsimpstr.h
; File D:\git\src\IBK\IBK_DRFN\ProjSrc\SrcChartEx\ChartAddIn\ChartEnvSetupDlgAddIn\ChartEnvSetupDlgAddIn\StyleDataManager.cpp
; File C:\Program Files (x86)\Microsoft Visual Studio\2019\Community\VC\Tools\MSVC\14.29.30133\atlmfc\include\atlsimpstr.h
; File D:\git\src\IBK\IBK_DRFN\ProjSrc\SrcChartEx\ChartAddIn\ChartEnvSetupDlgAddIn\ChartEnvSetupDlgAddIn\StyleDataManager.cpp
; File C:\Program Files (x86)\Microsoft Visual Studio\2019\Community\VC\Tools\MSVC\14.29.30133\atlmfc\include\afxtempl.h
; File D:\git\src\IBK\IBK_DRFN\ProjSrc\SrcChartEx\ChartAddIn\ChartEnvSetupDlgAddIn\ChartEnvSetupDlgAddIn\StyleDataManager.cpp
; File C:\Program Files (x86)\Microsoft Visual Studio\2019\Community\VC\Tools\MSVC\14.29.30133\atlmfc\include\atlsimpstr.h
; File D:\git\src\IBK\IBK_DRFN\ProjSrc\SrcChartEx\ChartAddIn\ChartEnvSetupDlgAddIn\ChartEnvSetupDlgAddIn\StyleDataManager.cpp
; File C:\Program Files (x86)\Microsoft Visual Studio\2019\Community\VC\Tools\MSVC\14.29.30133\atlmfc\include\afxtempl.h
; File D:\git\src\IBK\IBK_DRFN\ProjSrc\SrcChartEx\ChartAddIn\ChartEnvSetupDlgAddIn\ChartEnvSetupDlgAddIn\StyleDataManager.cpp
;	COMDAT ?RemoveDummyUserStyle@CStyleDataManager@@QAEXXZ
_TEXT	SEGMENT
_posUser$1$ = -28					; size = 4
$T2 = -24						; size = 4
_strStyle$ = -20					; size = 4
_strStyleName$ = -16					; size = 4
__$EHRec$ = -12						; size = 12
?RemoveDummyUserStyle@CStyleDataManager@@QAEXXZ PROC	; CStyleDataManager::RemoveDummyUserStyle, COMDAT
; _this$ = ecx

; 362  : {

  00000	55		 push	 ebp
  00001	8b ec		 mov	 ebp, esp
  00003	6a ff		 push	 -1
  00005	68 00 00 00 00	 push	 __ehhandler$?RemoveDummyUserStyle@CStyleDataManager@@QAEXXZ
  0000a	64 a1 00 00 00
	00		 mov	 eax, DWORD PTR fs:0
  00010	50		 push	 eax
  00011	83 ec 10	 sub	 esp, 16			; 00000010H
  00014	53		 push	 ebx
  00015	56		 push	 esi
  00016	57		 push	 edi
  00017	a1 00 00 00 00	 mov	 eax, DWORD PTR ___security_cookie
  0001c	33 c5		 xor	 eax, ebp
  0001e	50		 push	 eax
  0001f	8d 45 f4	 lea	 eax, DWORD PTR __$EHRec$[ebp]
  00022	64 a3 00 00 00
	00		 mov	 DWORD PTR fs:0, eax
  00028	8b f1		 mov	 esi, ecx

; 363  : 	//m_styleDataManager.RemoveStyleData( "");
; 364  : 	CString strStyle;

  0002a	8d 4d ec	 lea	 ecx, DWORD PTR _strStyle$[ebp]
  0002d	ff 15 00 00 00
	00		 call	 DWORD PTR __imp_??0?$CStringT@DV?$StrTraitMFC_DLL@DV?$ChTraitsCRT@D@ATL@@@@@ATL@@QAE@XZ

; 365  : 	strStyle.LoadString(IDS_CURRENT_STYLE);

  00033	6a 15		 push	 21			; 00000015H
  00035	8d 4d ec	 lea	 ecx, DWORD PTR _strStyle$[ebp]
  00038	c7 45 fc 00 00
	00 00		 mov	 DWORD PTR __$EHRec$[ebp+8], 0
  0003f	ff 15 00 00 00
	00		 call	 DWORD PTR __imp_?LoadStringA@?$CStringT@DV?$StrTraitMFC_DLL@DV?$ChTraitsCRT@D@ATL@@@@@ATL@@QAEHI@Z

; 366  : 	RemoveStyleData( strStyle);

  00045	6a 00		 push	 0
  00047	ff 75 ec	 push	 DWORD PTR _strStyle$[ebp]
  0004a	8b ce		 mov	 ecx, esi
  0004c	e8 00 00 00 00	 call	 ?RemoveStyleData@CStyleDataManager@@QAEHPBDH@Z ; CStyleDataManager::RemoveStyleData

; 367  : 
; 368  : 	CString strStyleName;

  00051	8d 4d f0	 lea	 ecx, DWORD PTR _strStyleName$[ebp]
  00054	ff 15 00 00 00
	00		 call	 DWORD PTR __imp_??0?$CStringT@DV?$StrTraitMFC_DLL@DV?$ChTraitsCRT@D@ATL@@@@@ATL@@QAE@XZ

; 369  : 	POSITION posUser = m_lstStyleUser.GetHeadPosition();

  0005a	8b 0d 04 00 00
	00		 mov	 ecx, DWORD PTR ?m_lstStyleUser@CStyleDataManager@@1V?$CList@PAVCStyleData@@PAV1@@@A+4
  00060	c6 45 fc 01	 mov	 BYTE PTR __$EHRec$[ebp+8], 1

; 370  : 	while( posUser != NULL)

  00064	85 c9		 test	 ecx, ecx
  00066	0f 84 39 01 00
	00		 je	 $LN3@RemoveDumm
  0006c	0f 1f 40 00	 npad	 4
$LL2@RemoveDumm:

; 371  : 	{
; 372  : 		POSITION curPosUser = posUser;
; 373  : 		CStyleData* pUserStyleData = m_lstStyleUser.GetNext( posUser);

  00070	8b 59 08	 mov	 ebx, DWORD PTR [ecx+8]

; 374  : 		strStyleName = pUserStyleData->GetStyleName();

  00073	8d 45 e8	 lea	 eax, DWORD PTR $T2[ebp]
  00076	8b f9		 mov	 edi, ecx
; File C:\Program Files (x86)\Microsoft Visual Studio\2019\Community\VC\Tools\MSVC\14.29.30133\atlmfc\include\afxtempl.h

; 813  : 		rPosition = (POSITION) pNode->pNext;

  00078	8b 09		 mov	 ecx, DWORD PTR [ecx]
  0007a	89 4d e4	 mov	 DWORD PTR _posUser$1$[ebp], ecx
; File D:\git\src\IBK\IBK_DRFN\ProjSrc\SrcChartEx\ChartAddIn\ChartEnvSetupDlgAddIn\ChartEnvSetupDlgAddIn\StyleDataManager.cpp

; 374  : 		strStyleName = pUserStyleData->GetStyleName();

  0007d	8b cb		 mov	 ecx, ebx
  0007f	50		 push	 eax
  00080	e8 00 00 00 00	 call	 ?GetStyleName@CStyleData@@QBE?AV?$CStringT@DV?$StrTraitMFC_DLL@DV?$ChTraitsCRT@D@ATL@@@@@ATL@@XZ ; CStyleData::GetStyleName
  00085	50		 push	 eax
  00086	8d 4d f0	 lea	 ecx, DWORD PTR _strStyleName$[ebp]
  00089	c6 45 fc 02	 mov	 BYTE PTR __$EHRec$[ebp+8], 2
  0008d	ff 15 00 00 00
	00		 call	 DWORD PTR __imp_??4?$CStringT@DV?$StrTraitMFC_DLL@DV?$ChTraitsCRT@D@ATL@@@@@ATL@@QAEAAV01@ABV01@@Z
  00093	8d 4d e8	 lea	 ecx, DWORD PTR $T2[ebp]
  00096	c6 45 fc 01	 mov	 BYTE PTR __$EHRec$[ebp+8], 1
  0009a	ff 15 00 00 00
	00		 call	 DWORD PTR __imp_??1?$CStringT@DV?$StrTraitMFC_DLL@DV?$ChTraitsCRT@D@ATL@@@@@ATL@@QAE@XZ
; File C:\Program Files (x86)\Microsoft Visual Studio\2019\Community\VC\Tools\MSVC\14.29.30133\atlmfc\include\atlsimpstr.h

; 533  : 		return( GetLength() == 0 );

  000a0	8b 45 f0	 mov	 eax, DWORD PTR _strStyleName$[ebp]
; File D:\git\src\IBK\IBK_DRFN\ProjSrc\SrcChartEx\ChartAddIn\ChartEnvSetupDlgAddIn\ChartEnvSetupDlgAddIn\StyleDataManager.cpp

; 376  : 		POSITION posDefault = m_lstStyleDefault.GetHeadPosition();

  000a3	8b 35 04 00 00
	00		 mov	 esi, DWORD PTR ?m_lstStyleDefault@CStyleDataManager@@1V?$CList@PAVCStyleData@@PAV1@@@A+4
; File C:\Program Files (x86)\Microsoft Visual Studio\2019\Community\VC\Tools\MSVC\14.29.30133\atlmfc\include\atlsimpstr.h

; 533  : 		return( GetLength() == 0 );

  000a9	83 78 f4 00	 cmp	 DWORD PTR [eax-12], 0
; File D:\git\src\IBK\IBK_DRFN\ProjSrc\SrcChartEx\ChartAddIn\ChartEnvSetupDlgAddIn\ChartEnvSetupDlgAddIn\StyleDataManager.cpp

; 377  : 		while( !strStyleName.IsEmpty() && posDefault)

  000ad	0f 84 e7 00 00
	00		 je	 $LN41@RemoveDumm
$LL4@RemoveDumm:
  000b3	85 f6		 test	 esi, esi
  000b5	0f 84 df 00 00
	00		 je	 $LN41@RemoveDumm

; 380  : 			if( pDefaultStyleData->IsSameWith( *pUserStyleData))

  000bb	8b 4e 08	 mov	 ecx, DWORD PTR [esi+8]
; File C:\Program Files (x86)\Microsoft Visual Studio\2019\Community\VC\Tools\MSVC\14.29.30133\atlmfc\include\afxtempl.h

; 813  : 		rPosition = (POSITION) pNode->pNext;

  000be	8b 36		 mov	 esi, DWORD PTR [esi]
; File D:\git\src\IBK\IBK_DRFN\ProjSrc\SrcChartEx\ChartAddIn\ChartEnvSetupDlgAddIn\ChartEnvSetupDlgAddIn\StyleDataManager.cpp

; 380  : 			if( pDefaultStyleData->IsSameWith( *pUserStyleData))

  000c0	53		 push	 ebx
  000c1	e8 00 00 00 00	 call	 ?IsSameWith@CStyleData@@QAEHAAV1@@Z ; CStyleData::IsSameWith
  000c6	85 c0		 test	 eax, eax
  000c8	75 0e		 jne	 SHORT $LN51@RemoveDumm
; File C:\Program Files (x86)\Microsoft Visual Studio\2019\Community\VC\Tools\MSVC\14.29.30133\atlmfc\include\atlsimpstr.h

; 533  : 		return( GetLength() == 0 );

  000ca	8b 45 f0	 mov	 eax, DWORD PTR _strStyleName$[ebp]
  000cd	83 78 f4 00	 cmp	 DWORD PTR [eax-12], 0
; File D:\git\src\IBK\IBK_DRFN\ProjSrc\SrcChartEx\ChartAddIn\ChartEnvSetupDlgAddIn\ChartEnvSetupDlgAddIn\StyleDataManager.cpp

; 377  : 		while( !strStyleName.IsEmpty() && posDefault)

  000d1	75 e0		 jne	 SHORT $LL4@RemoveDumm

; 380  : 			if( pDefaultStyleData->IsSameWith( *pUserStyleData))

  000d3	e9 c2 00 00 00	 jmp	 $LN41@RemoveDumm
$LN51@RemoveDumm:

; 381  : 			{
; 382  : 				delete pUserStyleData;

  000d8	85 db		 test	 ebx, ebx
  000da	74 3c		 je	 SHORT $LN26@RemoveDumm
  000dc	8d 8b 9c 00 00
	00		 lea	 ecx, DWORD PTR [ebx+156]
  000e2	e8 00 00 00 00	 call	 ??1?$CList@V?$CStringT@DV?$StrTraitMFC_DLL@DV?$ChTraitsCRT@D@ATL@@@@@ATL@@V12@@@UAE@XZ ; CList<ATL::CStringT<char,StrTraitMFC_DLL<char,ATL::ChTraitsCRT<char> > >,ATL::CStringT<char,StrTraitMFC_DLL<char,ATL::ChTraitsCRT<char> > > >::~CList<ATL::CStringT<char,StrTraitMFC_DLL<char,ATL::ChTraitsCRT<char> > >,ATL::CStringT<char,StrTraitMFC_DLL<char,ATL::ChTraitsCRT<char> > > >
  000e7	8d 8b 80 00 00
	00		 lea	 ecx, DWORD PTR [ebx+128]
  000ed	e8 00 00 00 00	 call	 ??1?$CList@V?$CStringT@DV?$StrTraitMFC_DLL@DV?$ChTraitsCRT@D@ATL@@@@@ATL@@V12@@@UAE@XZ ; CList<ATL::CStringT<char,StrTraitMFC_DLL<char,ATL::ChTraitsCRT<char> > >,ATL::CStringT<char,StrTraitMFC_DLL<char,ATL::ChTraitsCRT<char> > > >::~CList<ATL::CStringT<char,StrTraitMFC_DLL<char,ATL::ChTraitsCRT<char> > >,ATL::CStringT<char,StrTraitMFC_DLL<char,ATL::ChTraitsCRT<char> > > >
  000f2	8d 4b 38	 lea	 ecx, DWORD PTR [ebx+56]
  000f5	e8 00 00 00 00	 call	 ??1CDWordArray@@UAE@XZ	; CDWordArray::~CDWordArray
  000fa	8d 4b 24	 lea	 ecx, DWORD PTR [ebx+36]
  000fd	e8 00 00 00 00	 call	 ??1CDWordArray@@UAE@XZ	; CDWordArray::~CDWordArray
  00102	8b cb		 mov	 ecx, ebx
  00104	ff 15 00 00 00
	00		 call	 DWORD PTR __imp_??1?$CStringT@DV?$StrTraitMFC_DLL@DV?$ChTraitsCRT@D@ATL@@@@@ATL@@QAE@XZ
  0010a	68 e8 00 00 00	 push	 232			; 000000e8H
  0010f	53		 push	 ebx
  00110	e8 00 00 00 00	 call	 ??3@YAXPAXI@Z		; operator delete
  00115	83 c4 08	 add	 esp, 8
$LN26@RemoveDumm:
; File C:\Program Files (x86)\Microsoft Visual Studio\2019\Community\VC\Tools\MSVC\14.29.30133\atlmfc\include\afxtempl.h

; 1103 : 	CNode* pOldNode = (CNode*) position;

  00118	8b 0f		 mov	 ecx, DWORD PTR [edi]

; 1104 : 	ASSERT(AfxIsValidAddress(pOldNode, sizeof(CNode)));
; 1105 : 
; 1106 : 	// remove pOldNode from list
; 1107 : 	if (pOldNode == m_pNodeHead)

  0011a	3b 3d 04 00 00
	00		 cmp	 edi, DWORD PTR ?m_lstStyleUser@CStyleDataManager@@1V?$CList@PAVCStyleData@@PAV1@@@A+4
  00120	75 08		 jne	 SHORT $LN35@RemoveDumm

; 1108 : 	{
; 1109 : 		m_pNodeHead = pOldNode->pNext;

  00122	89 0d 04 00 00
	00		 mov	 DWORD PTR ?m_lstStyleUser@CStyleDataManager@@1V?$CList@PAVCStyleData@@PAV1@@@A+4, ecx

; 1110 : 	}

  00128	eb 05		 jmp	 SHORT $LN36@RemoveDumm
$LN35@RemoveDumm:

; 1111 : 	else
; 1112 : 	{
; 1113 : 		ASSERT(AfxIsValidAddress(pOldNode->pPrev, sizeof(CNode)));
; 1114 : 		pOldNode->pPrev->pNext = pOldNode->pNext;

  0012a	8b 47 04	 mov	 eax, DWORD PTR [edi+4]
  0012d	89 08		 mov	 DWORD PTR [eax], ecx
$LN36@RemoveDumm:

; 1115 : 	}
; 1116 : 	if (pOldNode == m_pNodeTail)

  0012f	8b 4f 04	 mov	 ecx, DWORD PTR [edi+4]
  00132	3b 3d 08 00 00
	00		 cmp	 edi, DWORD PTR ?m_lstStyleUser@CStyleDataManager@@1V?$CList@PAVCStyleData@@PAV1@@@A+8
  00138	75 08		 jne	 SHORT $LN37@RemoveDumm

; 1117 : 	{
; 1118 : 		m_pNodeTail = pOldNode->pPrev;

  0013a	89 0d 08 00 00
	00		 mov	 DWORD PTR ?m_lstStyleUser@CStyleDataManager@@1V?$CList@PAVCStyleData@@PAV1@@@A+8, ecx

; 1119 : 	}

  00140	eb 05		 jmp	 SHORT $LN38@RemoveDumm
$LN37@RemoveDumm:

; 1120 : 	else
; 1121 : 	{
; 1122 : 		ASSERT(AfxIsValidAddress(pOldNode->pNext, sizeof(CNode)));
; 1123 : 		pOldNode->pNext->pPrev = pOldNode->pPrev;

  00142	8b 07		 mov	 eax, DWORD PTR [edi]
  00144	89 48 04	 mov	 DWORD PTR [eax+4], ecx
$LN38@RemoveDumm:

; 938  : 	pNode->pNext = m_pNodeFree;

  00147	a1 10 00 00 00	 mov	 eax, DWORD PTR ?m_lstStyleUser@CStyleDataManager@@1V?$CList@PAVCStyleData@@PAV1@@@A+16
  0014c	89 07		 mov	 DWORD PTR [edi], eax

; 939  : 	m_pNodeFree = pNode;
; 940  : 	m_nCount--;

  0014e	83 2d 0c 00 00
	00 01		 sub	 DWORD PTR ?m_lstStyleUser@CStyleDataManager@@1V?$CList@PAVCStyleData@@PAV1@@@A+12, 1
  00155	89 3d 10 00 00
	00		 mov	 DWORD PTR ?m_lstStyleUser@CStyleDataManager@@1V?$CList@PAVCStyleData@@PAV1@@@A+16, edi

; 941  : 	ASSERT(m_nCount >= 0);  // make sure we don't underflow
; 942  : 
; 943  : 	// if no more elements, cleanup completely
; 944  : 	if (m_nCount == 0)

  0015b	75 3d		 jne	 SHORT $LN41@RemoveDumm

; 872  : 	m_pBlocks->FreeDataChain();

  0015d	8b 0d 14 00 00
	00		 mov	 ecx, DWORD PTR ?m_lstStyleUser@CStyleDataManager@@1V?$CList@PAVCStyleData@@PAV1@@@A+20
  00163	c7 05 0c 00 00
	00 00 00 00 00	 mov	 DWORD PTR ?m_lstStyleUser@CStyleDataManager@@1V?$CList@PAVCStyleData@@PAV1@@@A+12, 0
  0016d	c7 05 10 00 00
	00 00 00 00 00	 mov	 DWORD PTR ?m_lstStyleUser@CStyleDataManager@@1V?$CList@PAVCStyleData@@PAV1@@@A+16, 0
  00177	c7 05 08 00 00
	00 00 00 00 00	 mov	 DWORD PTR ?m_lstStyleUser@CStyleDataManager@@1V?$CList@PAVCStyleData@@PAV1@@@A+8, 0
  00181	c7 05 04 00 00
	00 00 00 00 00	 mov	 DWORD PTR ?m_lstStyleUser@CStyleDataManager@@1V?$CList@PAVCStyleData@@PAV1@@@A+4, 0
  0018b	e8 00 00 00 00	 call	 ?FreeDataChain@CPlex@@QAEXXZ ; CPlex::FreeDataChain

; 873  : 	m_pBlocks = NULL;

  00190	c7 05 14 00 00
	00 00 00 00 00	 mov	 DWORD PTR ?m_lstStyleUser@CStyleDataManager@@1V?$CList@PAVCStyleData@@PAV1@@@A+20, 0
$LN41@RemoveDumm:
; File D:\git\src\IBK\IBK_DRFN\ProjSrc\SrcChartEx\ChartAddIn\ChartEnvSetupDlgAddIn\ChartEnvSetupDlgAddIn\StyleDataManager.cpp

; 370  : 	while( posUser != NULL)

  0019a	8b 4d e4	 mov	 ecx, DWORD PTR _posUser$1$[ebp]
  0019d	85 c9		 test	 ecx, ecx
  0019f	0f 85 cb fe ff
	ff		 jne	 $LL2@RemoveDumm
$LN3@RemoveDumm:

; 383  : 				m_lstStyleUser.RemoveAt( curPosUser);
; 384  : 				break;
; 385  : 			}
; 386  : 		}
; 387  : 	}
; 388  : }

  001a5	8d 4d f0	 lea	 ecx, DWORD PTR _strStyleName$[ebp]
  001a8	ff 15 00 00 00
	00		 call	 DWORD PTR __imp_??1?$CStringT@DV?$StrTraitMFC_DLL@DV?$ChTraitsCRT@D@ATL@@@@@ATL@@QAE@XZ
  001ae	8d 4d ec	 lea	 ecx, DWORD PTR _strStyle$[ebp]
  001b1	ff 15 00 00 00
	00		 call	 DWORD PTR __imp_??1?$CStringT@DV?$StrTraitMFC_DLL@DV?$ChTraitsCRT@D@ATL@@@@@ATL@@QAE@XZ
  001b7	8b 4d f4	 mov	 ecx, DWORD PTR __$EHRec$[ebp]
  001ba	64 89 0d 00 00
	00 00		 mov	 DWORD PTR fs:0, ecx
  001c1	59		 pop	 ecx
  001c2	5f		 pop	 edi
  001c3	5e		 pop	 esi
  001c4	5b		 pop	 ebx
  001c5	8b e5		 mov	 esp, ebp
  001c7	5d		 pop	 ebp
  001c8	c3		 ret	 0
_TEXT	ENDS
;	COMDAT text$x
text$x	SEGMENT
__unwindfunclet$?RemoveDummyUserStyle@CStyleDataManager@@QAEXXZ$0:
  00000	8d 4d ec	 lea	 ecx, DWORD PTR _strStyle$[ebp]
  00003	ff 25 00 00 00
	00		 jmp	 DWORD PTR __imp_??1?$CStringT@DV?$StrTraitMFC_DLL@DV?$ChTraitsCRT@D@ATL@@@@@ATL@@QAE@XZ
__unwindfunclet$?RemoveDummyUserStyle@CStyleDataManager@@QAEXXZ$1:
  00009	8d 4d f0	 lea	 ecx, DWORD PTR _strStyleName$[ebp]
  0000c	ff 25 00 00 00
	00		 jmp	 DWORD PTR __imp_??1?$CStringT@DV?$StrTraitMFC_DLL@DV?$ChTraitsCRT@D@ATL@@@@@ATL@@QAE@XZ
__unwindfunclet$?RemoveDummyUserStyle@CStyleDataManager@@QAEXXZ$2:
  00012	8d 4d e8	 lea	 ecx, DWORD PTR $T2[ebp]
  00015	ff 25 00 00 00
	00		 jmp	 DWORD PTR __imp_??1?$CStringT@DV?$StrTraitMFC_DLL@DV?$ChTraitsCRT@D@ATL@@@@@ATL@@QAE@XZ
  0001b	cc		 int	 3
  0001c	cc		 int	 3
  0001d	cc		 int	 3
  0001e	cc		 int	 3
  0001f	cc		 int	 3
__ehhandler$?RemoveDummyUserStyle@CStyleDataManager@@QAEXXZ:
  00020	90		 npad	 1
  00021	90		 npad	 1
  00022	8b 54 24 08	 mov	 edx, DWORD PTR [esp+8]
  00026	8d 42 0c	 lea	 eax, DWORD PTR [edx+12]
  00029	8b 4a e0	 mov	 ecx, DWORD PTR [edx-32]
  0002c	33 c8		 xor	 ecx, eax
  0002e	e8 00 00 00 00	 call	 @__security_check_cookie@4
  00033	b8 00 00 00 00	 mov	 eax, OFFSET __ehfuncinfo$?RemoveDummyUserStyle@CStyleDataManager@@QAEXXZ
  00038	e9 00 00 00 00	 jmp	 ___CxxFrameHandler3
text$x	ENDS
?RemoveDummyUserStyle@CStyleDataManager@@QAEXXZ ENDP	; CStyleDataManager::RemoveDummyUserStyle
; Function compile flags: /Ogtp
; File D:\git\src\IBK\IBK_DRFN\ProjSrc\SrcChartEx\ChartAddIn\ChartEnvSetupDlgAddIn\ChartEnvSetupDlgAddIn\StyleDataManager.cpp
; File C:\Program Files (x86)\Microsoft Visual Studio\2019\Community\VC\Tools\MSVC\14.29.30133\atlmfc\include\afxtempl.h
; File D:\git\src\IBK\IBK_DRFN\ProjSrc\SrcChartEx\ChartAddIn\ChartEnvSetupDlgAddIn\ChartEnvSetupDlgAddIn\StyleDataManager.cpp
; File C:\Program Files (x86)\Microsoft Visual Studio\2019\Community\VC\Tools\MSVC\14.29.30133\atlmfc\include\afxtempl.h
; File D:\git\src\IBK\IBK_DRFN\ProjSrc\SrcChartEx\ChartAddIn\ChartEnvSetupDlgAddIn\ChartEnvSetupDlgAddIn\StyleDataManager.cpp
; File C:\Program Files (x86)\Microsoft Visual Studio\2019\Community\VC\Tools\MSVC\14.29.30133\atlmfc\include\afxtempl.h
; File D:\git\src\IBK\IBK_DRFN\ProjSrc\SrcChartEx\ChartAddIn\ChartEnvSetupDlgAddIn\ChartEnvSetupDlgAddIn\StyleDataManager.cpp
; File C:\Program Files (x86)\Microsoft Visual Studio\2019\Community\VC\Tools\MSVC\14.29.30133\atlmfc\include\afxtempl.h
; File D:\git\src\IBK\IBK_DRFN\ProjSrc\SrcChartEx\ChartAddIn\ChartEnvSetupDlgAddIn\ChartEnvSetupDlgAddIn\StyleDataManager.cpp
; File C:\Program Files (x86)\Microsoft Visual Studio\2019\Community\VC\Tools\MSVC\14.29.30133\atlmfc\include\afxtempl.h
; File D:\git\src\IBK\IBK_DRFN\ProjSrc\SrcChartEx\ChartAddIn\ChartEnvSetupDlgAddIn\ChartEnvSetupDlgAddIn\StyleDataManager.cpp
; File C:\Program Files (x86)\Microsoft Visual Studio\2019\Community\VC\Tools\MSVC\14.29.30133\atlmfc\include\afxtempl.h
; File D:\git\src\IBK\IBK_DRFN\ProjSrc\SrcChartEx\ChartAddIn\ChartEnvSetupDlgAddIn\ChartEnvSetupDlgAddIn\StyleDataManager.cpp
; File C:\Program Files (x86)\Microsoft Visual Studio\2019\Community\VC\Tools\MSVC\14.29.30133\atlmfc\include\cstringt.h
; File D:\git\src\IBK\IBK_DRFN\ProjSrc\SrcChartEx\ChartAddIn\ChartEnvSetupDlgAddIn\ChartEnvSetupDlgAddIn\StyleDataManager.cpp
; File C:\Program Files (x86)\Microsoft Visual Studio\2019\Community\VC\Tools\MSVC\14.29.30133\atlmfc\include\cstringt.h
; File D:\git\src\IBK\IBK_DRFN\ProjSrc\SrcChartEx\ChartAddIn\ChartEnvSetupDlgAddIn\ChartEnvSetupDlgAddIn\StyleDataManager.cpp
; File C:\Program Files (x86)\Microsoft Visual Studio\2019\Community\VC\Tools\MSVC\14.29.30133\atlmfc\include\cstringt.h
; File D:\git\src\IBK\IBK_DRFN\ProjSrc\SrcChartEx\ChartAddIn\ChartEnvSetupDlgAddIn\ChartEnvSetupDlgAddIn\StyleDataManager.cpp
; File C:\Program Files (x86)\Microsoft Visual Studio\2019\Community\VC\Tools\MSVC\14.29.30133\atlmfc\include\afxtempl.h
; File D:\git\src\IBK\IBK_DRFN\ProjSrc\SrcChartEx\ChartAddIn\ChartEnvSetupDlgAddIn\ChartEnvSetupDlgAddIn\StyleDataManager.cpp
; File C:\Program Files (x86)\Microsoft Visual Studio\2019\Community\VC\Tools\MSVC\14.29.30133\atlmfc\include\afxtempl.h
; File D:\git\src\IBK\IBK_DRFN\ProjSrc\SrcChartEx\ChartAddIn\ChartEnvSetupDlgAddIn\ChartEnvSetupDlgAddIn\StyleDataManager.cpp
; File C:\Program Files (x86)\Microsoft Visual Studio\2019\Community\VC\Tools\MSVC\14.29.30133\atlmfc\include\afxtempl.h
; File D:\git\src\IBK\IBK_DRFN\ProjSrc\SrcChartEx\ChartAddIn\ChartEnvSetupDlgAddIn\ChartEnvSetupDlgAddIn\StyleDataManager.cpp
; File C:\Program Files (x86)\Microsoft Visual Studio\2019\Community\VC\Tools\MSVC\14.29.30133\atlmfc\include\afxtempl.h
; File D:\git\src\IBK\IBK_DRFN\ProjSrc\SrcChartEx\ChartAddIn\ChartEnvSetupDlgAddIn\ChartEnvSetupDlgAddIn\StyleDataManager.cpp
;	COMDAT ?CreateDummyUserStyle@CStyleDataManager@@QAEXPAUIChartOCX135914@@@Z
_TEXT	SEGMENT
_lstStyleUserNew$ = -72					; size = 28
$T2 = -44						; size = 4
$T3 = -44						; size = 4
_this$1$ = -40						; size = 4
_pUserStyleData$1$ = -36				; size = 4
$T4 = -32						; size = 4
$T5 = -28						; size = 4
_pDefaultStyleData$1$ = -24				; size = 4
_strStyle$ = -20					; size = 4
_psnDefault$1$ = -16					; size = 4
__$EHRec$ = -12						; size = 12
_p_pIChartOCX$ = 8					; size = 4
?CreateDummyUserStyle@CStyleDataManager@@QAEXPAUIChartOCX135914@@@Z PROC ; CStyleDataManager::CreateDummyUserStyle, COMDAT
; _this$ = ecx

; 321  : {

  00000	55		 push	 ebp
  00001	8b ec		 mov	 ebp, esp
  00003	6a ff		 push	 -1
  00005	68 00 00 00 00	 push	 __ehhandler$?CreateDummyUserStyle@CStyleDataManager@@QAEXPAUIChartOCX135914@@@Z
  0000a	64 a1 00 00 00
	00		 mov	 eax, DWORD PTR fs:0
  00010	50		 push	 eax
  00011	83 ec 3c	 sub	 esp, 60			; 0000003cH
  00014	53		 push	 ebx
  00015	56		 push	 esi
  00016	57		 push	 edi
  00017	a1 00 00 00 00	 mov	 eax, DWORD PTR ___security_cookie
  0001c	33 c5		 xor	 eax, ebp
  0001e	50		 push	 eax
  0001f	8d 45 f4	 lea	 eax, DWORD PTR __$EHRec$[ebp]
  00022	64 a3 00 00 00
	00		 mov	 DWORD PTR fs:0, eax
  00028	89 4d d8	 mov	 DWORD PTR _this$1$[ebp], ecx
; File C:\Program Files (x86)\Microsoft Visual Studio\2019\Community\VC\Tools\MSVC\14.29.30133\atlmfc\include\afxtempl.h

; 851  : {

  0002b	c7 45 b8 00 00
	00 00		 mov	 DWORD PTR _lstStyleUserNew$[ebp], OFFSET ??_7?$CList@PAVCStyleData@@PAV1@@@6B@

; 852  : 	ASSERT(nBlockSize > 0);
; 853  : 
; 854  : 	m_nCount = 0;

  00032	c7 45 c4 00 00
	00 00		 mov	 DWORD PTR _lstStyleUserNew$[ebp+12], 0

; 855  : 	m_pNodeHead = m_pNodeTail = m_pNodeFree = NULL;

  00039	c7 45 c8 00 00
	00 00		 mov	 DWORD PTR _lstStyleUserNew$[ebp+16], 0
  00040	c7 45 c0 00 00
	00 00		 mov	 DWORD PTR _lstStyleUserNew$[ebp+8], 0
  00047	c7 45 bc 00 00
	00 00		 mov	 DWORD PTR _lstStyleUserNew$[ebp+4], 0

; 856  : 	m_pBlocks = NULL;

  0004e	c7 45 cc 00 00
	00 00		 mov	 DWORD PTR _lstStyleUserNew$[ebp+20], 0

; 857  : 	m_nBlockSize = nBlockSize;

  00055	c7 45 d0 0a 00
	00 00		 mov	 DWORD PTR _lstStyleUserNew$[ebp+24], 10 ; 0000000aH
; File D:\git\src\IBK\IBK_DRFN\ProjSrc\SrcChartEx\ChartAddIn\ChartEnvSetupDlgAddIn\ChartEnvSetupDlgAddIn\StyleDataManager.cpp

; 323  : 	lstStyleUserNew.AddTail( &m_lstStyleUser);

  0005c	68 00 00 00 00	 push	 OFFSET ?m_lstStyleUser@CStyleDataManager@@1V?$CList@PAVCStyleData@@PAV1@@@A ; CStyleDataManager::m_lstStyleUser
  00061	8d 4d b8	 lea	 ecx, DWORD PTR _lstStyleUserNew$[ebp]
  00064	c7 45 fc 00 00
	00 00		 mov	 DWORD PTR __$EHRec$[ebp+8], 0
  0006b	e8 00 00 00 00	 call	 ?AddTail@?$CList@PAVCStyleData@@PAV1@@@QAEXPAV1@@Z ; CList<CStyleData *,CStyleData *>::AddTail
; File C:\Program Files (x86)\Microsoft Visual Studio\2019\Community\VC\Tools\MSVC\14.29.30133\atlmfc\include\afxtempl.h

; 872  : 	m_pBlocks->FreeDataChain();

  00070	8b 0d 14 00 00
	00		 mov	 ecx, DWORD PTR ?m_lstStyleUser@CStyleDataManager@@1V?$CList@PAVCStyleData@@PAV1@@@A+20
  00076	c7 05 0c 00 00
	00 00 00 00 00	 mov	 DWORD PTR ?m_lstStyleUser@CStyleDataManager@@1V?$CList@PAVCStyleData@@PAV1@@@A+12, 0
  00080	c7 05 10 00 00
	00 00 00 00 00	 mov	 DWORD PTR ?m_lstStyleUser@CStyleDataManager@@1V?$CList@PAVCStyleData@@PAV1@@@A+16, 0
  0008a	c7 05 08 00 00
	00 00 00 00 00	 mov	 DWORD PTR ?m_lstStyleUser@CStyleDataManager@@1V?$CList@PAVCStyleData@@PAV1@@@A+8, 0
  00094	c7 05 04 00 00
	00 00 00 00 00	 mov	 DWORD PTR ?m_lstStyleUser@CStyleDataManager@@1V?$CList@PAVCStyleData@@PAV1@@@A+4, 0
  0009e	e8 00 00 00 00	 call	 ?FreeDataChain@CPlex@@QAEXXZ ; CPlex::FreeDataChain
; File D:\git\src\IBK\IBK_DRFN\ProjSrc\SrcChartEx\ChartAddIn\ChartEnvSetupDlgAddIn\ChartEnvSetupDlgAddIn\StyleDataManager.cpp

; 326  : 	POSITION psnDefault = m_lstStyleDefault.GetHeadPosition();

  000a3	a1 04 00 00 00	 mov	 eax, DWORD PTR ?m_lstStyleDefault@CStyleDataManager@@1V?$CList@PAVCStyleData@@PAV1@@@A+4
; File C:\Program Files (x86)\Microsoft Visual Studio\2019\Community\VC\Tools\MSVC\14.29.30133\atlmfc\include\afxtempl.h

; 873  : 	m_pBlocks = NULL;

  000a8	c7 05 14 00 00
	00 00 00 00 00	 mov	 DWORD PTR ?m_lstStyleUser@CStyleDataManager@@1V?$CList@PAVCStyleData@@PAV1@@@A+20, 0
; File D:\git\src\IBK\IBK_DRFN\ProjSrc\SrcChartEx\ChartAddIn\ChartEnvSetupDlgAddIn\ChartEnvSetupDlgAddIn\StyleDataManager.cpp

; 326  : 	POSITION psnDefault = m_lstStyleDefault.GetHeadPosition();

  000b2	89 45 f0	 mov	 DWORD PTR _psnDefault$1$[ebp], eax

; 327  : 	while( psnDefault)

  000b5	85 c0		 test	 eax, eax
  000b7	0f 84 36 01 00
	00		 je	 $LN53@CreateDumm
  000bd	0f 1f 00	 npad	 3
$LL2@CreateDumm:
; File C:\Program Files (x86)\Microsoft Visual Studio\2019\Community\VC\Tools\MSVC\14.29.30133\atlmfc\include\afxtempl.h

; 813  : 		rPosition = (POSITION) pNode->pNext;

  000c0	8b 4d f0	 mov	 ecx, DWORD PTR _psnDefault$1$[ebp]
; File D:\git\src\IBK\IBK_DRFN\ProjSrc\SrcChartEx\ChartAddIn\ChartEnvSetupDlgAddIn\ChartEnvSetupDlgAddIn\StyleDataManager.cpp

; 329  : 		CStyleData *pDefaultStyleData = m_lstStyleDefault.GetNext( psnDefault);

  000c3	8b 40 08	 mov	 eax, DWORD PTR [eax+8]
  000c6	89 45 e8	 mov	 DWORD PTR _pDefaultStyleData$1$[ebp], eax
; File C:\Program Files (x86)\Microsoft Visual Studio\2019\Community\VC\Tools\MSVC\14.29.30133\atlmfc\include\afxtempl.h

; 813  : 		rPosition = (POSITION) pNode->pNext;

  000c9	8b 09		 mov	 ecx, DWORD PTR [ecx]
  000cb	89 4d f0	 mov	 DWORD PTR _psnDefault$1$[ebp], ecx
; File D:\git\src\IBK\IBK_DRFN\ProjSrc\SrcChartEx\ChartAddIn\ChartEnvSetupDlgAddIn\ChartEnvSetupDlgAddIn\StyleDataManager.cpp

; 330  : 		if( !pDefaultStyleData) continue;

  000ce	85 c0		 test	 eax, eax
  000d0	0f 84 12 01 00
	00		 je	 $LN9@CreateDumm

; 331  : 
; 332  : 		CStyleData *pUserStyleData = NULL;
; 333  : 		BOOL bFound = FALSE;
; 334  : 		POSITION psnUserPrev = NULL, psnUser = lstStyleUserNew.GetHeadPosition();

  000d6	8b 75 bc	 mov	 esi, DWORD PTR _lstStyleUserNew$[ebp+4]
  000d9	33 c0		 xor	 eax, eax
  000db	33 ff		 xor	 edi, edi
  000dd	33 db		 xor	 ebx, ebx
  000df	85 f6		 test	 esi, esi

; 335  : 		while( psnUser && !bFound)

  000e1	0f 84 cc 00 00
	00		 je	 $LN8@CreateDumm
$LL4@CreateDumm:
  000e7	85 ff		 test	 edi, edi
  000e9	75 5f		 jne	 SHORT $LN121@CreateDumm

; 338  : 			pUserStyleData = lstStyleUserNew.GetNext( psnUser);

  000eb	8b 46 08	 mov	 eax, DWORD PTR [esi+8]
  000ee	8b de		 mov	 ebx, esi
; File C:\Program Files (x86)\Microsoft Visual Studio\2019\Community\VC\Tools\MSVC\14.29.30133\atlmfc\include\afxtempl.h

; 813  : 		rPosition = (POSITION) pNode->pNext;

  000f0	8b 36		 mov	 esi, DWORD PTR [esi]
; File D:\git\src\IBK\IBK_DRFN\ProjSrc\SrcChartEx\ChartAddIn\ChartEnvSetupDlgAddIn\ChartEnvSetupDlgAddIn\StyleDataManager.cpp

; 338  : 			pUserStyleData = lstStyleUserNew.GetNext( psnUser);

  000f2	89 45 dc	 mov	 DWORD PTR _pUserStyleData$1$[ebp], eax

; 339  : 			if( !pUserStyleData) continue;

  000f5	85 c0		 test	 eax, eax
  000f7	74 49		 je	 SHORT $LN101@CreateDumm

; 340  : 			bFound = ( pDefaultStyleData->GetStyleName() == pUserStyleData->GetStyleName());

  000f9	8d 4d e0	 lea	 ecx, DWORD PTR $T4[ebp]
  000fc	51		 push	 ecx
  000fd	8b c8		 mov	 ecx, eax
  000ff	e8 00 00 00 00	 call	 ?GetStyleName@CStyleData@@QBE?AV?$CStringT@DV?$StrTraitMFC_DLL@DV?$ChTraitsCRT@D@ATL@@@@@ATL@@XZ ; CStyleData::GetStyleName
  00104	8b f8		 mov	 edi, eax
  00106	8b 4d e8	 mov	 ecx, DWORD PTR _pDefaultStyleData$1$[ebp]
  00109	8d 45 e4	 lea	 eax, DWORD PTR $T5[ebp]
  0010c	50		 push	 eax
  0010d	c6 45 fc 01	 mov	 BYTE PTR __$EHRec$[ebp+8], 1
  00111	e8 00 00 00 00	 call	 ?GetStyleName@CStyleData@@QBE?AV?$CStringT@DV?$StrTraitMFC_DLL@DV?$ChTraitsCRT@D@ATL@@@@@ATL@@XZ ; CStyleData::GetStyleName
; File C:\Program Files (x86)\Microsoft Visual Studio\2019\Community\VC\Tools\MSVC\14.29.30133\atlmfc\include\cstringt.h

; 2479 : 		return(str1.Compare(str2) == 0);

  00116	ff 37		 push	 DWORD PTR [edi]
  00118	8b c8		 mov	 ecx, eax
; File D:\git\src\IBK\IBK_DRFN\ProjSrc\SrcChartEx\ChartAddIn\ChartEnvSetupDlgAddIn\ChartEnvSetupDlgAddIn\StyleDataManager.cpp

; 340  : 			bFound = ( pDefaultStyleData->GetStyleName() == pUserStyleData->GetStyleName());

  0011a	c6 45 fc 02	 mov	 BYTE PTR __$EHRec$[ebp+8], 2
; File C:\Program Files (x86)\Microsoft Visual Studio\2019\Community\VC\Tools\MSVC\14.29.30133\atlmfc\include\cstringt.h

; 2479 : 		return(str1.Compare(str2) == 0);

  0011e	ff 15 00 00 00
	00		 call	 DWORD PTR __imp_?Compare@?$CStringT@DV?$StrTraitMFC_DLL@DV?$ChTraitsCRT@D@ATL@@@@@ATL@@QBEHPBD@Z
  00124	f7 d8		 neg	 eax
; File D:\git\src\IBK\IBK_DRFN\ProjSrc\SrcChartEx\ChartAddIn\ChartEnvSetupDlgAddIn\ChartEnvSetupDlgAddIn\StyleDataManager.cpp

; 340  : 			bFound = ( pDefaultStyleData->GetStyleName() == pUserStyleData->GetStyleName());

  00126	8d 4d e4	 lea	 ecx, DWORD PTR $T5[ebp]
; File C:\Program Files (x86)\Microsoft Visual Studio\2019\Community\VC\Tools\MSVC\14.29.30133\atlmfc\include\cstringt.h

; 2479 : 		return(str1.Compare(str2) == 0);

  00129	1b ff		 sbb	 edi, edi
  0012b	47		 inc	 edi
; File D:\git\src\IBK\IBK_DRFN\ProjSrc\SrcChartEx\ChartAddIn\ChartEnvSetupDlgAddIn\ChartEnvSetupDlgAddIn\StyleDataManager.cpp

; 340  : 			bFound = ( pDefaultStyleData->GetStyleName() == pUserStyleData->GetStyleName());

  0012c	ff 15 00 00 00
	00		 call	 DWORD PTR __imp_??1?$CStringT@DV?$StrTraitMFC_DLL@DV?$ChTraitsCRT@D@ATL@@@@@ATL@@QAE@XZ
  00132	8d 4d e0	 lea	 ecx, DWORD PTR $T4[ebp]
  00135	c6 45 fc 00	 mov	 BYTE PTR __$EHRec$[ebp+8], 0
  00139	ff 15 00 00 00
	00		 call	 DWORD PTR __imp_??1?$CStringT@DV?$StrTraitMFC_DLL@DV?$ChTraitsCRT@D@ATL@@@@@ATL@@QAE@XZ
  0013f	8b 45 dc	 mov	 eax, DWORD PTR _pUserStyleData$1$[ebp]
$LN101@CreateDumm:

; 335  : 		while( psnUser && !bFound)

  00142	85 f6		 test	 esi, esi
  00144	75 a1		 jne	 SHORT $LL4@CreateDumm

; 341  : 		}
; 342  : 
; 343  : 		if(	bFound)

  00146	85 ff		 test	 edi, edi
  00148	74 69		 je	 SHORT $LN8@CreateDumm
$LN121@CreateDumm:

; 344  : 		{
; 345  : 			m_lstStyleUser.AddTail( pUserStyleData);

  0014a	50		 push	 eax
  0014b	b9 00 00 00 00	 mov	 ecx, OFFSET ?m_lstStyleUser@CStyleDataManager@@1V?$CList@PAVCStyleData@@PAV1@@@A ; CStyleDataManager::m_lstStyleUser
  00150	e8 00 00 00 00	 call	 ?AddTail@?$CList@PAVCStyleData@@PAV1@@@QAEPAU__POSITION@@PAVCStyleData@@@Z ; CList<CStyleData *,CStyleData *>::AddTail
; File C:\Program Files (x86)\Microsoft Visual Studio\2019\Community\VC\Tools\MSVC\14.29.30133\atlmfc\include\afxtempl.h

; 1103 : 	CNode* pOldNode = (CNode*) position;

  00155	8b 0b		 mov	 ecx, DWORD PTR [ebx]

; 1104 : 	ASSERT(AfxIsValidAddress(pOldNode, sizeof(CNode)));
; 1105 : 
; 1106 : 	// remove pOldNode from list
; 1107 : 	if (pOldNode == m_pNodeHead)

  00157	3b 5d bc	 cmp	 ebx, DWORD PTR _lstStyleUserNew$[ebp+4]
  0015a	75 05		 jne	 SHORT $LN37@CreateDumm

; 1108 : 	{
; 1109 : 		m_pNodeHead = pOldNode->pNext;

  0015c	89 4d bc	 mov	 DWORD PTR _lstStyleUserNew$[ebp+4], ecx

; 1110 : 	}

  0015f	eb 05		 jmp	 SHORT $LN38@CreateDumm
$LN37@CreateDumm:

; 1111 : 	else
; 1112 : 	{
; 1113 : 		ASSERT(AfxIsValidAddress(pOldNode->pPrev, sizeof(CNode)));
; 1114 : 		pOldNode->pPrev->pNext = pOldNode->pNext;

  00161	8b 43 04	 mov	 eax, DWORD PTR [ebx+4]
  00164	89 08		 mov	 DWORD PTR [eax], ecx
$LN38@CreateDumm:

; 1115 : 	}
; 1116 : 	if (pOldNode == m_pNodeTail)

  00166	8b 4b 04	 mov	 ecx, DWORD PTR [ebx+4]
  00169	3b 5d c0	 cmp	 ebx, DWORD PTR _lstStyleUserNew$[ebp+8]
  0016c	75 05		 jne	 SHORT $LN39@CreateDumm

; 1117 : 	{
; 1118 : 		m_pNodeTail = pOldNode->pPrev;

  0016e	89 4d c0	 mov	 DWORD PTR _lstStyleUserNew$[ebp+8], ecx

; 1119 : 	}

  00171	eb 05		 jmp	 SHORT $LN40@CreateDumm
$LN39@CreateDumm:

; 1120 : 	else
; 1121 : 	{
; 1122 : 		ASSERT(AfxIsValidAddress(pOldNode->pNext, sizeof(CNode)));
; 1123 : 		pOldNode->pNext->pPrev = pOldNode->pPrev;

  00173	8b 03		 mov	 eax, DWORD PTR [ebx]
  00175	89 48 04	 mov	 DWORD PTR [eax+4], ecx
$LN40@CreateDumm:

; 938  : 	pNode->pNext = m_pNodeFree;

  00178	8b 45 c8	 mov	 eax, DWORD PTR _lstStyleUserNew$[ebp+16]
  0017b	89 03		 mov	 DWORD PTR [ebx], eax

; 939  : 	m_pNodeFree = pNode;
; 940  : 	m_nCount--;

  0017d	83 6d c4 01	 sub	 DWORD PTR _lstStyleUserNew$[ebp+12], 1
  00181	89 5d c8	 mov	 DWORD PTR _lstStyleUserNew$[ebp+16], ebx

; 941  : 	ASSERT(m_nCount >= 0);  // make sure we don't underflow
; 942  : 
; 943  : 	// if no more elements, cleanup completely
; 944  : 	if (m_nCount == 0)

  00184	75 62		 jne	 SHORT $LN9@CreateDumm

; 872  : 	m_pBlocks->FreeDataChain();

  00186	8b 4d cc	 mov	 ecx, DWORD PTR _lstStyleUserNew$[ebp+20]
  00189	c7 45 c4 00 00
	00 00		 mov	 DWORD PTR _lstStyleUserNew$[ebp+12], 0
  00190	c7 45 c8 00 00
	00 00		 mov	 DWORD PTR _lstStyleUserNew$[ebp+16], 0
  00197	c7 45 c0 00 00
	00 00		 mov	 DWORD PTR _lstStyleUserNew$[ebp+8], 0
  0019e	c7 45 bc 00 00
	00 00		 mov	 DWORD PTR _lstStyleUserNew$[ebp+4], 0
  001a5	e8 00 00 00 00	 call	 ?FreeDataChain@CPlex@@QAEXXZ ; CPlex::FreeDataChain

; 873  : 	m_pBlocks = NULL;

  001aa	c7 45 cc 00 00
	00 00		 mov	 DWORD PTR _lstStyleUserNew$[ebp+20], 0
; File D:\git\src\IBK\IBK_DRFN\ProjSrc\SrcChartEx\ChartAddIn\ChartEnvSetupDlgAddIn\ChartEnvSetupDlgAddIn\StyleDataManager.cpp

; 347  : 		}

  001b1	eb 35		 jmp	 SHORT $LN9@CreateDumm
$LN8@CreateDumm:

; 348  : 		else m_lstStyleUser.AddTail( new CStyleData( *pDefaultStyleData));

  001b3	68 e8 00 00 00	 push	 232			; 000000e8H
  001b8	e8 00 00 00 00	 call	 ??2@YAPAXI@Z		; operator new
  001bd	83 c4 04	 add	 esp, 4
  001c0	89 45 d4	 mov	 DWORD PTR $T3[ebp], eax
  001c3	c6 45 fc 03	 mov	 BYTE PTR __$EHRec$[ebp+8], 3
  001c7	85 c0		 test	 eax, eax
  001c9	74 0c		 je	 SHORT $LN11@CreateDumm
  001cb	ff 75 e8	 push	 DWORD PTR _pDefaultStyleData$1$[ebp]
  001ce	8b c8		 mov	 ecx, eax
  001d0	e8 00 00 00 00	 call	 ??0CStyleData@@QAE@ABV0@@Z ; CStyleData::CStyleData
  001d5	eb 02		 jmp	 SHORT $LN12@CreateDumm
$LN11@CreateDumm:
  001d7	33 c0		 xor	 eax, eax
$LN12@CreateDumm:
  001d9	50		 push	 eax
  001da	b9 00 00 00 00	 mov	 ecx, OFFSET ?m_lstStyleUser@CStyleDataManager@@1V?$CList@PAVCStyleData@@PAV1@@@A ; CStyleDataManager::m_lstStyleUser
  001df	c6 45 fc 00	 mov	 BYTE PTR __$EHRec$[ebp+8], 0
  001e3	e8 00 00 00 00	 call	 ?AddTail@?$CList@PAVCStyleData@@PAV1@@@QAEPAU__POSITION@@PAVCStyleData@@@Z ; CList<CStyleData *,CStyleData *>::AddTail
$LN9@CreateDumm:

; 327  : 	while( psnDefault)

  001e8	8b 45 f0	 mov	 eax, DWORD PTR _psnDefault$1$[ebp]
  001eb	85 c0		 test	 eax, eax
  001ed	0f 85 cd fe ff
	ff		 jne	 $LL2@CreateDumm
$LN53@CreateDumm:
; File C:\Program Files (x86)\Microsoft Visual Studio\2019\Community\VC\Tools\MSVC\14.29.30133\atlmfc\include\afxtempl.h

; 1000 : 	POSITION pos = pNewList->GetHeadPosition();

  001f3	8b 75 bc	 mov	 esi, DWORD PTR _lstStyleUserNew$[ebp+4]
  001f6	85 f6		 test	 esi, esi

; 1001 : 	while (pos != NULL)

  001f8	0f 84 97 00 00
	00		 je	 $LN125@CreateDumm
  001fe	8b 0d 08 00 00
	00		 mov	 ecx, DWORD PTR ?m_lstStyleUser@CStyleDataManager@@1V?$CList@PAVCStyleData@@PAV1@@@A+8
$LL54@CreateDumm:

; 1002 : 		AddTail(pNewList->GetNext(pos));

  00204	8b 7e 08	 mov	 edi, DWORD PTR [esi+8]

; 968  : 	CNode* pNewNode = NewNode(m_pNodeTail, NULL);

  00207	8b d9		 mov	 ebx, ecx

; 902  : 	if (m_pNodeFree == NULL)

  00209	8b 0d 10 00 00
	00		 mov	 ecx, DWORD PTR ?m_lstStyleUser@CStyleDataManager@@1V?$CList@PAVCStyleData@@PAV1@@@A+16

; 813  : 		rPosition = (POSITION) pNode->pNext;

  0020f	8b 36		 mov	 esi, DWORD PTR [esi]

; 902  : 	if (m_pNodeFree == NULL)

  00211	85 c9		 test	 ecx, ecx
  00213	75 46		 jne	 SHORT $LN120@CreateDumm

; 903  : 	{
; 904  : 		// add another block
; 905  : 		CPlex* pNewBlock = CPlex::Create(m_pBlocks, m_nBlockSize,

  00215	6a 0c		 push	 12			; 0000000cH
  00217	ff 35 18 00 00
	00		 push	 DWORD PTR ?m_lstStyleUser@CStyleDataManager@@1V?$CList@PAVCStyleData@@PAV1@@@A+24
  0021d	68 14 00 00 00	 push	 OFFSET ?m_lstStyleUser@CStyleDataManager@@1V?$CList@PAVCStyleData@@PAV1@@@A+20
  00222	e8 00 00 00 00	 call	 ?Create@CPlex@@SGPAU1@AAPAU1@II@Z ; CPlex::Create

; 906  : 				 sizeof(CNode));
; 907  : 
; 908  : 		// chain them into free list
; 909  : 		CNode* pNode = (CNode*) pNewBlock->data();
; 910  : 		// free in reverse order to make it easier to debug
; 911  : 		pNode += m_nBlockSize - 1;

  00227	8b 15 18 00 00
	00		 mov	 edx, DWORD PTR ?m_lstStyleUser@CStyleDataManager@@1V?$CList@PAVCStyleData@@PAV1@@@A+24
  0022d	8d 0c 52	 lea	 ecx, DWORD PTR [edx+edx*2]
  00230	8d 04 88	 lea	 eax, DWORD PTR [eax+ecx*4]

; 912  : 		for (INT_PTR i = m_nBlockSize-1; i >= 0; i--, pNode--)

  00233	8b 0d 10 00 00
	00		 mov	 ecx, DWORD PTR ?m_lstStyleUser@CStyleDataManager@@1V?$CList@PAVCStyleData@@PAV1@@@A+16
  00239	83 c0 fc	 add	 eax, -4			; fffffffcH
  0023c	83 c2 ff	 add	 edx, -1
  0023f	78 12		 js	 SHORT $LN70@CreateDumm
$LL67@CreateDumm:

; 913  : 		{
; 914  : 			pNode->pNext = m_pNodeFree;

  00241	89 08		 mov	 DWORD PTR [eax], ecx

; 915  : 			m_pNodeFree = pNode;

  00243	8b c8		 mov	 ecx, eax
  00245	83 e8 0c	 sub	 eax, 12			; 0000000cH
  00248	89 0d 10 00 00
	00		 mov	 DWORD PTR ?m_lstStyleUser@CStyleDataManager@@1V?$CList@PAVCStyleData@@PAV1@@@A+16, ecx
  0024e	83 ea 01	 sub	 edx, 1
  00251	79 ee		 jns	 SHORT $LL67@CreateDumm
$LN70@CreateDumm:

; 918  : 	ENSURE(m_pNodeFree != NULL);  // we must have something

  00253	85 c9		 test	 ecx, ecx
  00255	0f 84 f1 00 00
	00		 je	 $LN99@CreateDumm
$LN120@CreateDumm:

; 919  : 
; 920  : 	CList::CNode* pNode = m_pNodeFree;
; 921  : 	m_pNodeFree = m_pNodeFree->pNext;

  0025b	8b 01		 mov	 eax, DWORD PTR [ecx]
  0025d	a3 10 00 00 00	 mov	 DWORD PTR ?m_lstStyleUser@CStyleDataManager@@1V?$CList@PAVCStyleData@@PAV1@@@A+16, eax

; 922  : 	pNode->pPrev = pPrev;

  00262	89 59 04	 mov	 DWORD PTR [ecx+4], ebx

; 923  : 	pNode->pNext = pNext;

  00265	c7 01 00 00 00
	00		 mov	 DWORD PTR [ecx], 0

; 924  : 	m_nCount++;

  0026b	ff 05 0c 00 00
	00		 inc	 DWORD PTR ?m_lstStyleUser@CStyleDataManager@@1V?$CList@PAVCStyleData@@PAV1@@@A+12

; 969  : 	pNewNode->data = newElement;

  00271	89 79 08	 mov	 DWORD PTR [ecx+8], edi

; 970  : 	if (m_pNodeTail != NULL)

  00274	a1 08 00 00 00	 mov	 eax, DWORD PTR ?m_lstStyleUser@CStyleDataManager@@1V?$CList@PAVCStyleData@@PAV1@@@A+8
  00279	85 c0		 test	 eax, eax
  0027b	74 04		 je	 SHORT $LN61@CreateDumm

; 971  : 		m_pNodeTail->pNext = pNewNode;

  0027d	89 08		 mov	 DWORD PTR [eax], ecx
  0027f	eb 06		 jmp	 SHORT $LN62@CreateDumm
$LN61@CreateDumm:

; 972  : 	else
; 973  : 		m_pNodeHead = pNewNode;

  00281	89 0d 04 00 00
	00		 mov	 DWORD PTR ?m_lstStyleUser@CStyleDataManager@@1V?$CList@PAVCStyleData@@PAV1@@@A+4, ecx
$LN62@CreateDumm:

; 974  : 	m_pNodeTail = pNewNode;

  00287	89 0d 08 00 00
	00		 mov	 DWORD PTR ?m_lstStyleUser@CStyleDataManager@@1V?$CList@PAVCStyleData@@PAV1@@@A+8, ecx

; 1001 : 	while (pos != NULL)

  0028d	85 f6		 test	 esi, esi
  0028f	0f 85 6f ff ff
	ff		 jne	 $LL54@CreateDumm
$LN125@CreateDumm:
; File D:\git\src\IBK\IBK_DRFN\ProjSrc\SrcChartEx\ChartAddIn\ChartEnvSetupDlgAddIn\ChartEnvSetupDlgAddIn\StyleDataManager.cpp

; 353  : 	CString strStyle;

  00295	8d 4d ec	 lea	 ecx, DWORD PTR _strStyle$[ebp]
  00298	ff 15 00 00 00
	00		 call	 DWORD PTR __imp_??0?$CStringT@DV?$StrTraitMFC_DLL@DV?$ChTraitsCRT@D@ATL@@@@@ATL@@QAE@XZ

; 354  : 	strStyle.LoadString(IDS_CURRENT_STYLE);

  0029e	6a 15		 push	 21			; 00000015H
  002a0	8d 4d ec	 lea	 ecx, DWORD PTR _strStyle$[ebp]
  002a3	c6 45 fc 04	 mov	 BYTE PTR __$EHRec$[ebp+8], 4
  002a7	ff 15 00 00 00
	00		 call	 DWORD PTR __imp_?LoadStringA@?$CStringT@DV?$StrTraitMFC_DLL@DV?$ChTraitsCRT@D@ATL@@@@@ATL@@QAEHI@Z

; 355  : 	RemoveStyleData( strStyle);

  002ad	8b 7d d8	 mov	 edi, DWORD PTR _this$1$[ebp]
  002b0	8b cf		 mov	 ecx, edi
  002b2	6a 00		 push	 0
  002b4	ff 75 ec	 push	 DWORD PTR _strStyle$[ebp]
  002b7	e8 00 00 00 00	 call	 ?RemoveStyleData@CStyleDataManager@@QAEHPBDH@Z ; CStyleDataManager::RemoveStyleData

; 356  : 	CStyleData *pStyleData = new CStyleData;

  002bc	68 e8 00 00 00	 push	 232			; 000000e8H
  002c1	e8 00 00 00 00	 call	 ??2@YAPAXI@Z		; operator new
  002c6	83 c4 04	 add	 esp, 4
  002c9	89 45 d4	 mov	 DWORD PTR $T2[ebp], eax
  002cc	c6 45 fc 05	 mov	 BYTE PTR __$EHRec$[ebp+8], 5
  002d0	85 c0		 test	 eax, eax
  002d2	74 0b		 je	 SHORT $LN13@CreateDumm
  002d4	8b c8		 mov	 ecx, eax
  002d6	e8 00 00 00 00	 call	 ??0CStyleData@@QAE@XZ	; CStyleData::CStyleData
  002db	8b f0		 mov	 esi, eax
  002dd	eb 02		 jmp	 SHORT $LN14@CreateDumm
$LN13@CreateDumm:
  002df	33 f6		 xor	 esi, esi
$LN14@CreateDumm:

; 357  : 	GetStyleDataFromOCX( *pStyleData, p_pIChartOCX);

  002e1	6a 01		 push	 1
  002e3	ff 75 08	 push	 DWORD PTR _p_pIChartOCX$[ebp]
  002e6	8b cf		 mov	 ecx, edi
  002e8	c6 45 fc 04	 mov	 BYTE PTR __$EHRec$[ebp+8], 4
  002ec	56		 push	 esi
  002ed	e8 00 00 00 00	 call	 ?GetStyleDataFromOCX@CStyleDataManager@@QAEXAAVCStyleData@@PAUIChartOCX135914@@H@Z ; CStyleDataManager::GetStyleDataFromOCX

; 261  : 	m_lstStyleUser.AddTail( p_pStyleData);

  002f2	56		 push	 esi
  002f3	b9 00 00 00 00	 mov	 ecx, OFFSET ?m_lstStyleUser@CStyleDataManager@@1V?$CList@PAVCStyleData@@PAV1@@@A ; CStyleDataManager::m_lstStyleUser
  002f8	e8 00 00 00 00	 call	 ?AddTail@?$CList@PAVCStyleData@@PAV1@@@QAEPAU__POSITION@@PAVCStyleData@@@Z ; CList<CStyleData *,CStyleData *>::AddTail

; 359  : }

  002fd	8d 4d ec	 lea	 ecx, DWORD PTR _strStyle$[ebp]
  00300	ff 15 00 00 00
	00		 call	 DWORD PTR __imp_??1?$CStringT@DV?$StrTraitMFC_DLL@DV?$ChTraitsCRT@D@ATL@@@@@ATL@@QAE@XZ
; File C:\Program Files (x86)\Microsoft Visual Studio\2019\Community\VC\Tools\MSVC\14.29.30133\atlmfc\include\afxtempl.h

; 872  : 	m_pBlocks->FreeDataChain();

  00306	8b 4d cc	 mov	 ecx, DWORD PTR _lstStyleUserNew$[ebp+20]

; 878  : {

  00309	c7 45 fc 06 00
	00 00		 mov	 DWORD PTR __$EHRec$[ebp+8], 6
  00310	c7 45 b8 00 00
	00 00		 mov	 DWORD PTR _lstStyleUserNew$[ebp], OFFSET ??_7?$CList@PAVCStyleData@@PAV1@@@6B@

; 870  : 	m_nCount = 0;

  00317	c7 45 c4 00 00
	00 00		 mov	 DWORD PTR _lstStyleUserNew$[ebp+12], 0

; 871  : 	m_pNodeHead = m_pNodeTail = m_pNodeFree = NULL;

  0031e	c7 45 c8 00 00
	00 00		 mov	 DWORD PTR _lstStyleUserNew$[ebp+16], 0
  00325	c7 45 c0 00 00
	00 00		 mov	 DWORD PTR _lstStyleUserNew$[ebp+8], 0
  0032c	c7 45 bc 00 00
	00 00		 mov	 DWORD PTR _lstStyleUserNew$[ebp+4], 0

; 872  : 	m_pBlocks->FreeDataChain();

  00333	e8 00 00 00 00	 call	 ?FreeDataChain@CPlex@@QAEXXZ ; CPlex::FreeDataChain
; File D:\git\src\IBK\IBK_DRFN\ProjSrc\SrcChartEx\ChartAddIn\ChartEnvSetupDlgAddIn\ChartEnvSetupDlgAddIn\StyleDataManager.cpp

; 359  : }

  00338	8b 4d f4	 mov	 ecx, DWORD PTR __$EHRec$[ebp]
  0033b	64 89 0d 00 00
	00 00		 mov	 DWORD PTR fs:0, ecx
  00342	59		 pop	 ecx
  00343	5f		 pop	 edi
  00344	5e		 pop	 esi
  00345	5b		 pop	 ebx
  00346	8b e5		 mov	 esp, ebp
  00348	5d		 pop	 ebp
  00349	c2 04 00	 ret	 4
$LN99@CreateDumm:
; File C:\Program Files (x86)\Microsoft Visual Studio\2019\Community\VC\Tools\MSVC\14.29.30133\atlmfc\include\afxtempl.h

; 918  : 	ENSURE(m_pNodeFree != NULL);  // we must have something

  0034c	e8 00 00 00 00	 call	 ?AfxThrowInvalidArgException@@YGXXZ ; AfxThrowInvalidArgException
$LN128@CreateDumm:
  00351	cc		 int	 3
_TEXT	ENDS
;	COMDAT text$x
text$x	SEGMENT
__unwindfunclet$?CreateDummyUserStyle@CStyleDataManager@@QAEXPAUIChartOCX135914@@@Z$0:
  00000	8d 4d b8	 lea	 ecx, DWORD PTR _lstStyleUserNew$[ebp]
  00003	e9 00 00 00 00	 jmp	 ??1?$CList@PAVCStyleData@@PAV1@@@UAE@XZ ; CList<CStyleData *,CStyleData *>::~CList<CStyleData *,CStyleData *>
__unwindfunclet$?CreateDummyUserStyle@CStyleDataManager@@QAEXPAUIChartOCX135914@@@Z$1:
  00008	8d 4d e0	 lea	 ecx, DWORD PTR $T4[ebp]
  0000b	ff 25 00 00 00
	00		 jmp	 DWORD PTR __imp_??1?$CStringT@DV?$StrTraitMFC_DLL@DV?$ChTraitsCRT@D@ATL@@@@@ATL@@QAE@XZ
__unwindfunclet$?CreateDummyUserStyle@CStyleDataManager@@QAEXPAUIChartOCX135914@@@Z$2:
  00011	8d 4d e4	 lea	 ecx, DWORD PTR $T5[ebp]
  00014	ff 25 00 00 00
	00		 jmp	 DWORD PTR __imp_??1?$CStringT@DV?$StrTraitMFC_DLL@DV?$ChTraitsCRT@D@ATL@@@@@ATL@@QAE@XZ
__unwindfunclet$?CreateDummyUserStyle@CStyleDataManager@@QAEXPAUIChartOCX135914@@@Z$3:
  0001a	68 e8 00 00 00	 push	 232			; 000000e8H
  0001f	8b 45 d4	 mov	 eax, DWORD PTR $T3[ebp]
  00022	50		 push	 eax
  00023	e8 00 00 00 00	 call	 ??3@YAXPAXI@Z		; operator delete
  00028	83 c4 08	 add	 esp, 8
  0002b	c3		 ret	 0
__unwindfunclet$?CreateDummyUserStyle@CStyleDataManager@@QAEXPAUIChartOCX135914@@@Z$4:
  0002c	8d 4d ec	 lea	 ecx, DWORD PTR _strStyle$[ebp]
  0002f	ff 25 00 00 00
	00		 jmp	 DWORD PTR __imp_??1?$CStringT@DV?$StrTraitMFC_DLL@DV?$ChTraitsCRT@D@ATL@@@@@ATL@@QAE@XZ
__unwindfunclet$?CreateDummyUserStyle@CStyleDataManager@@QAEXPAUIChartOCX135914@@@Z$5:
  00035	68 e8 00 00 00	 push	 232			; 000000e8H
  0003a	8b 45 d4	 mov	 eax, DWORD PTR $T2[ebp]
  0003d	50		 push	 eax
  0003e	e8 00 00 00 00	 call	 ??3@YAXPAXI@Z		; operator delete
  00043	83 c4 08	 add	 esp, 8
  00046	c3		 ret	 0
  00047	cc		 int	 3
  00048	cc		 int	 3
  00049	cc		 int	 3
  0004a	cc		 int	 3
  0004b	cc		 int	 3
__ehhandler$?CreateDummyUserStyle@CStyleDataManager@@QAEXPAUIChartOCX135914@@@Z:
  0004c	90		 npad	 1
  0004d	90		 npad	 1
  0004e	8b 54 24 08	 mov	 edx, DWORD PTR [esp+8]
  00052	8d 42 0c	 lea	 eax, DWORD PTR [edx+12]
  00055	8b 4a b4	 mov	 ecx, DWORD PTR [edx-76]
  00058	33 c8		 xor	 ecx, eax
  0005a	e8 00 00 00 00	 call	 @__security_check_cookie@4
  0005f	b8 00 00 00 00	 mov	 eax, OFFSET __ehfuncinfo$?CreateDummyUserStyle@CStyleDataManager@@QAEXPAUIChartOCX135914@@@Z
  00064	e9 00 00 00 00	 jmp	 ___CxxFrameHandler3
text$x	ENDS
?CreateDummyUserStyle@CStyleDataManager@@QAEXPAUIChartOCX135914@@@Z ENDP ; CStyleDataManager::CreateDummyUserStyle
; Function compile flags: /Ogtp
; File D:\git\src\IBK\IBK_DRFN\ProjSrc\SrcChartEx\ChartAddIn\ChartEnvSetupDlgAddIn\ChartEnvSetupDlgAddIn\StyleDataManager.cpp
;	COMDAT ?GetStyleDataList@CStyleDataManager@@IAEPAV?$CList@PAVCStyleData@@PAV1@@@H@Z
_TEXT	SEGMENT
_p_bDefaultData$ = 8					; size = 4
?GetStyleDataList@CStyleDataManager@@IAEPAV?$CList@PAVCStyleData@@PAV1@@@H@Z PROC ; CStyleDataManager::GetStyleDataList, COMDAT
; _this$ = ecx

; 315  : {

  00000	55		 push	 ebp
  00001	8b ec		 mov	 ebp, esp

; 316  : 	if( p_bDefaultData) return &m_lstStyleDefault;

  00003	83 7d 08 00	 cmp	 DWORD PTR _p_bDefaultData$[ebp], 0
  00007	b8 00 00 00 00	 mov	 eax, OFFSET ?m_lstStyleDefault@CStyleDataManager@@1V?$CList@PAVCStyleData@@PAV1@@@A ; CStyleDataManager::m_lstStyleDefault
  0000c	b9 00 00 00 00	 mov	 ecx, OFFSET ?m_lstStyleUser@CStyleDataManager@@1V?$CList@PAVCStyleData@@PAV1@@@A ; CStyleDataManager::m_lstStyleUser
  00011	0f 44 c1	 cmove	 eax, ecx

; 317  : 	return &m_lstStyleUser;
; 318  : }

  00014	5d		 pop	 ebp
  00015	c2 04 00	 ret	 4
?GetStyleDataList@CStyleDataManager@@IAEPAV?$CList@PAVCStyleData@@PAV1@@@H@Z ENDP ; CStyleDataManager::GetStyleDataList
_TEXT	ENDS
; Function compile flags: /Ogtp
; File D:\git\src\IBK\IBK_DRFN\ProjSrc\SrcChartEx\ChartAddIn\ChartEnvSetupDlgAddIn\ChartEnvSetupDlgAddIn\StyleDataManager.cpp
; File C:\Program Files (x86)\Microsoft Visual Studio\2019\Community\VC\Tools\MSVC\14.29.30133\atlmfc\include\afxtempl.h
; File D:\git\src\IBK\IBK_DRFN\ProjSrc\SrcChartEx\ChartAddIn\ChartEnvSetupDlgAddIn\ChartEnvSetupDlgAddIn\StyleDataManager.cpp
;	COMDAT ?RemoveStyleDataIn@CStyleDataManager@@IAEHHH@Z
_TEXT	SEGMENT
_p_nIndex$ = 8						; size = 4
_p_bDefaultData$ = 12					; size = 4
?RemoveStyleDataIn@CStyleDataManager@@IAEHHH@Z PROC	; CStyleDataManager::RemoveStyleDataIn, COMDAT
; _this$ = ecx

; 301  : {

  00000	55		 push	 ebp
  00001	8b ec		 mov	 ebp, esp

; 302  : 	if( p_bDefaultData) return FALSE;

  00003	83 7d 0c 00	 cmp	 DWORD PTR _p_bDefaultData$[ebp], 0
  00007	74 06		 je	 SHORT $LN2@RemoveStyl
  00009	33 c0		 xor	 eax, eax

; 312  : }

  0000b	5d		 pop	 ebp
  0000c	c2 08 00	 ret	 8
$LN2@RemoveStyl:

; 303  : 
; 304  : 	POSITION pos = m_lstStyleUser.FindIndex( p_nIndex);

  0000f	8b 45 08	 mov	 eax, DWORD PTR _p_nIndex$[ebp]
; File C:\Program Files (x86)\Microsoft Visual Studio\2019\Community\VC\Tools\MSVC\14.29.30133\atlmfc\include\afxtempl.h

; 1133 : 	if (nIndex >= m_nCount || nIndex < 0)

  00012	3b 05 0c 00 00
	00		 cmp	 eax, DWORD PTR ?m_lstStyleUser@CStyleDataManager@@1V?$CList@PAVCStyleData@@PAV1@@@A+12
  00018	7d 69		 jge	 SHORT $LN14@RemoveStyl
  0001a	85 c0		 test	 eax, eax
  0001c	78 65		 js	 SHORT $LN14@RemoveStyl

; 1134 : 		return NULL;  // went too far
; 1135 : 
; 1136 : 	CNode* pNode = m_pNodeHead;

  0001e	8b 0d 04 00 00
	00		 mov	 ecx, DWORD PTR ?m_lstStyleUser@CStyleDataManager@@1V?$CList@PAVCStyleData@@PAV1@@@A+4

; 1137 : 	while (nIndex--)

  00024	74 07		 je	 SHORT $LN23@RemoveStyl
$LL8@RemoveStyl:

; 1138 : 	{
; 1139 : 		ASSERT(AfxIsValidAddress(pNode, sizeof(CNode)));
; 1140 : 		pNode = pNode->pNext;

  00026	8b 09		 mov	 ecx, DWORD PTR [ecx]
  00028	83 e8 01	 sub	 eax, 1
  0002b	75 f9		 jne	 SHORT $LL8@RemoveStyl
$LN23@RemoveStyl:
; File D:\git\src\IBK\IBK_DRFN\ProjSrc\SrcChartEx\ChartAddIn\ChartEnvSetupDlgAddIn\ChartEnvSetupDlgAddIn\StyleDataManager.cpp

; 305  : 	if(pos == NULL) return TRUE;

  0002d	85 c9		 test	 ecx, ecx
  0002f	74 52		 je	 SHORT $LN14@RemoveStyl

; 306  : 
; 307  : 	CStyleData* pStyleData = m_lstStyleUser.GetAt( pos);

  00031	57		 push	 edi
  00032	8b 79 08	 mov	 edi, DWORD PTR [ecx+8]

; 308  : 	m_lstStyleUser.RemoveAt( pos);

  00035	51		 push	 ecx
  00036	b9 00 00 00 00	 mov	 ecx, OFFSET ?m_lstStyleUser@CStyleDataManager@@1V?$CList@PAVCStyleData@@PAV1@@@A ; CStyleDataManager::m_lstStyleUser
  0003b	e8 00 00 00 00	 call	 ?RemoveAt@?$CList@PAVCStyleData@@PAV1@@@QAEXPAU__POSITION@@@Z ; CList<CStyleData *,CStyleData *>::RemoveAt

; 309  : 	delete pStyleData;

  00040	85 ff		 test	 edi, edi
  00042	74 3e		 je	 SHORT $LN28@RemoveStyl
  00044	56		 push	 esi
  00045	8d 8f 9c 00 00
	00		 lea	 ecx, DWORD PTR [edi+156]
  0004b	e8 00 00 00 00	 call	 ??1?$CList@V?$CStringT@DV?$StrTraitMFC_DLL@DV?$ChTraitsCRT@D@ATL@@@@@ATL@@V12@@@UAE@XZ ; CList<ATL::CStringT<char,StrTraitMFC_DLL<char,ATL::ChTraitsCRT<char> > >,ATL::CStringT<char,StrTraitMFC_DLL<char,ATL::ChTraitsCRT<char> > > >::~CList<ATL::CStringT<char,StrTraitMFC_DLL<char,ATL::ChTraitsCRT<char> > >,ATL::CStringT<char,StrTraitMFC_DLL<char,ATL::ChTraitsCRT<char> > > >
  00050	8d 8f 80 00 00
	00		 lea	 ecx, DWORD PTR [edi+128]
  00056	e8 00 00 00 00	 call	 ??1?$CList@V?$CStringT@DV?$StrTraitMFC_DLL@DV?$ChTraitsCRT@D@ATL@@@@@ATL@@V12@@@UAE@XZ ; CList<ATL::CStringT<char,StrTraitMFC_DLL<char,ATL::ChTraitsCRT<char> > >,ATL::CStringT<char,StrTraitMFC_DLL<char,ATL::ChTraitsCRT<char> > > >::~CList<ATL::CStringT<char,StrTraitMFC_DLL<char,ATL::ChTraitsCRT<char> > >,ATL::CStringT<char,StrTraitMFC_DLL<char,ATL::ChTraitsCRT<char> > > >
  0005b	8d 4f 38	 lea	 ecx, DWORD PTR [edi+56]
  0005e	e8 00 00 00 00	 call	 ??1CDWordArray@@UAE@XZ	; CDWordArray::~CDWordArray
  00063	8d 4f 24	 lea	 ecx, DWORD PTR [edi+36]
  00066	e8 00 00 00 00	 call	 ??1CDWordArray@@UAE@XZ	; CDWordArray::~CDWordArray
  0006b	8b cf		 mov	 ecx, edi
  0006d	ff 15 00 00 00
	00		 call	 DWORD PTR __imp_??1?$CStringT@DV?$StrTraitMFC_DLL@DV?$ChTraitsCRT@D@ATL@@@@@ATL@@QAE@XZ
  00073	68 e8 00 00 00	 push	 232			; 000000e8H
  00078	57		 push	 edi
  00079	e8 00 00 00 00	 call	 ??3@YAXPAXI@Z		; operator delete
  0007e	83 c4 08	 add	 esp, 8
  00081	5e		 pop	 esi
$LN28@RemoveStyl:
  00082	5f		 pop	 edi
$LN14@RemoveStyl:

; 310  : 
; 311  : 	return TRUE;

  00083	b8 01 00 00 00	 mov	 eax, 1

; 312  : }

  00088	5d		 pop	 ebp
  00089	c2 08 00	 ret	 8
?RemoveStyleDataIn@CStyleDataManager@@IAEHHH@Z ENDP	; CStyleDataManager::RemoveStyleDataIn
_TEXT	ENDS
; Function compile flags: /Ogtp
; File D:\git\src\IBK\IBK_DRFN\ProjSrc\SrcChartEx\ChartAddIn\ChartEnvSetupDlgAddIn\ChartEnvSetupDlgAddIn\StyleDataManager.cpp
; File C:\Program Files (x86)\Microsoft Visual Studio\2019\Community\VC\Tools\MSVC\14.29.30133\atlmfc\include\afxtempl.h
; File D:\git\src\IBK\IBK_DRFN\ProjSrc\SrcChartEx\ChartAddIn\ChartEnvSetupDlgAddIn\ChartEnvSetupDlgAddIn\StyleDataManager.cpp
; File C:\Program Files (x86)\Microsoft Visual Studio\2019\Community\VC\Tools\MSVC\14.29.30133\atlmfc\include\cstringt.h
; File D:\git\src\IBK\IBK_DRFN\ProjSrc\SrcChartEx\ChartAddIn\ChartEnvSetupDlgAddIn\ChartEnvSetupDlgAddIn\StyleDataManager.cpp
; File C:\Program Files (x86)\Microsoft Visual Studio\2019\Community\VC\Tools\MSVC\14.29.30133\atlmfc\include\cstringt.h
; File D:\git\src\IBK\IBK_DRFN\ProjSrc\SrcChartEx\ChartAddIn\ChartEnvSetupDlgAddIn\ChartEnvSetupDlgAddIn\StyleDataManager.cpp
; File C:\Program Files (x86)\Microsoft Visual Studio\2019\Community\VC\Tools\MSVC\14.29.30133\atlmfc\include\cstringt.h
; File D:\git\src\IBK\IBK_DRFN\ProjSrc\SrcChartEx\ChartAddIn\ChartEnvSetupDlgAddIn\ChartEnvSetupDlgAddIn\StyleDataManager.cpp
;	COMDAT ?GetStyleData@CStyleDataManager@@QAEPAVCStyleData@@PBDH@Z
_TEXT	SEGMENT
__$EHRec$ = -12						; size = 12
_p_szStyleName$ = 8					; size = 4
$T2 = 12						; size = 4
_p_bDefaultData$ = 12					; size = 4
?GetStyleData@CStyleDataManager@@QAEPAVCStyleData@@PBDH@Z PROC ; CStyleDataManager::GetStyleData, COMDAT
; _this$ = ecx

; 285  : {

  00000	55		 push	 ebp
  00001	8b ec		 mov	 ebp, esp
  00003	6a ff		 push	 -1
  00005	68 00 00 00 00	 push	 __ehhandler$?GetStyleData@CStyleDataManager@@QAEPAVCStyleData@@PBDH@Z
  0000a	64 a1 00 00 00
	00		 mov	 eax, DWORD PTR fs:0
  00010	50		 push	 eax
  00011	53		 push	 ebx
  00012	56		 push	 esi
  00013	57		 push	 edi
  00014	a1 00 00 00 00	 mov	 eax, DWORD PTR ___security_cookie
  00019	33 c5		 xor	 eax, ebp
  0001b	50		 push	 eax
  0001c	8d 45 f4	 lea	 eax, DWORD PTR __$EHRec$[ebp]
  0001f	64 a3 00 00 00
	00		 mov	 DWORD PTR fs:0, eax

; 286  : 	CList<CStyleData*, CStyleData*> *pStyleDataList = NULL;
; 287  : 	if( p_bDefaultData) pStyleDataList = &m_lstStyleDefault;
; 288  : 	else pStyleDataList = &m_lstStyleUser;
; 289  : 	
; 290  : 	CStyleData *pStyleData = NULL;
; 291  : 	POSITION psnStyle = pStyleDataList->GetHeadPosition();

  00025	83 7d 0c 00	 cmp	 DWORD PTR _p_bDefaultData$[ebp], 0
  00029	8b 35 04 00 00
	00		 mov	 esi, DWORD PTR ?m_lstStyleDefault@CStyleDataManager@@1V?$CList@PAVCStyleData@@PAV1@@@A+4
  0002f	0f 44 35 04 00
	00 00		 cmove	 esi, DWORD PTR ?m_lstStyleUser@CStyleDataManager@@1V?$CList@PAVCStyleData@@PAV1@@@A+4

; 292  : 	while( psnStyle)

  00036	85 f6		 test	 esi, esi
  00038	74 42		 je	 SHORT $LN3@GetStyleDa
  0003a	66 0f 1f 44 00
	00		 npad	 6
$LL2@GetStyleDa:

; 293  : 	{
; 294  : 		pStyleData = pStyleDataList->GetNext( psnStyle);

  00040	8b 5e 08	 mov	 ebx, DWORD PTR [esi+8]

; 295  : 		if( pStyleData->GetStyleName() == p_szStyleName) return pStyleData;

  00043	8d 45 0c	 lea	 eax, DWORD PTR $T2[ebp]
; File C:\Program Files (x86)\Microsoft Visual Studio\2019\Community\VC\Tools\MSVC\14.29.30133\atlmfc\include\afxtempl.h

; 813  : 		rPosition = (POSITION) pNode->pNext;

  00046	8b 36		 mov	 esi, DWORD PTR [esi]
; File D:\git\src\IBK\IBK_DRFN\ProjSrc\SrcChartEx\ChartAddIn\ChartEnvSetupDlgAddIn\ChartEnvSetupDlgAddIn\StyleDataManager.cpp

; 295  : 		if( pStyleData->GetStyleName() == p_szStyleName) return pStyleData;

  00048	8b cb		 mov	 ecx, ebx
  0004a	50		 push	 eax
  0004b	e8 00 00 00 00	 call	 ?GetStyleName@CStyleData@@QBE?AV?$CStringT@DV?$StrTraitMFC_DLL@DV?$ChTraitsCRT@D@ATL@@@@@ATL@@XZ ; CStyleData::GetStyleName
; File C:\Program Files (x86)\Microsoft Visual Studio\2019\Community\VC\Tools\MSVC\14.29.30133\atlmfc\include\cstringt.h

; 2486 : 		return(str1.Compare(psz2) == 0);

  00050	ff 75 08	 push	 DWORD PTR _p_szStyleName$[ebp]
  00053	8b c8		 mov	 ecx, eax
; File D:\git\src\IBK\IBK_DRFN\ProjSrc\SrcChartEx\ChartAddIn\ChartEnvSetupDlgAddIn\ChartEnvSetupDlgAddIn\StyleDataManager.cpp

; 295  : 		if( pStyleData->GetStyleName() == p_szStyleName) return pStyleData;

  00055	c7 45 fc 00 00
	00 00		 mov	 DWORD PTR __$EHRec$[ebp+8], 0
; File C:\Program Files (x86)\Microsoft Visual Studio\2019\Community\VC\Tools\MSVC\14.29.30133\atlmfc\include\cstringt.h

; 2486 : 		return(str1.Compare(psz2) == 0);

  0005c	ff 15 00 00 00
	00		 call	 DWORD PTR __imp_?Compare@?$CStringT@DV?$StrTraitMFC_DLL@DV?$ChTraitsCRT@D@ATL@@@@@ATL@@QBEHPBD@Z
; File D:\git\src\IBK\IBK_DRFN\ProjSrc\SrcChartEx\ChartAddIn\ChartEnvSetupDlgAddIn\ChartEnvSetupDlgAddIn\StyleDataManager.cpp

; 295  : 		if( pStyleData->GetStyleName() == p_szStyleName) return pStyleData;

  00062	8d 4d 0c	 lea	 ecx, DWORD PTR $T2[ebp]
  00065	c7 45 fc ff ff
	ff ff		 mov	 DWORD PTR __$EHRec$[ebp+8], -1
; File C:\Program Files (x86)\Microsoft Visual Studio\2019\Community\VC\Tools\MSVC\14.29.30133\atlmfc\include\cstringt.h

; 2486 : 		return(str1.Compare(psz2) == 0);

  0006c	8b f8		 mov	 edi, eax
; File D:\git\src\IBK\IBK_DRFN\ProjSrc\SrcChartEx\ChartAddIn\ChartEnvSetupDlgAddIn\ChartEnvSetupDlgAddIn\StyleDataManager.cpp

; 295  : 		if( pStyleData->GetStyleName() == p_szStyleName) return pStyleData;

  0006e	ff 15 00 00 00
	00		 call	 DWORD PTR __imp_??1?$CStringT@DV?$StrTraitMFC_DLL@DV?$ChTraitsCRT@D@ATL@@@@@ATL@@QAE@XZ
  00074	85 ff		 test	 edi, edi
  00076	74 1a		 je	 SHORT $LN14@GetStyleDa

; 292  : 	while( psnStyle)

  00078	85 f6		 test	 esi, esi
  0007a	75 c4		 jne	 SHORT $LL2@GetStyleDa
$LN3@GetStyleDa:

; 296  : 	}
; 297  : 	return NULL;

  0007c	33 c0		 xor	 eax, eax

; 298  : }

  0007e	8b 4d f4	 mov	 ecx, DWORD PTR __$EHRec$[ebp]
  00081	64 89 0d 00 00
	00 00		 mov	 DWORD PTR fs:0, ecx
  00088	59		 pop	 ecx
  00089	5f		 pop	 edi
  0008a	5e		 pop	 esi
  0008b	5b		 pop	 ebx
  0008c	8b e5		 mov	 esp, ebp
  0008e	5d		 pop	 ebp
  0008f	c2 08 00	 ret	 8
$LN14@GetStyleDa:

; 295  : 		if( pStyleData->GetStyleName() == p_szStyleName) return pStyleData;

  00092	8b c3		 mov	 eax, ebx

; 298  : }

  00094	8b 4d f4	 mov	 ecx, DWORD PTR __$EHRec$[ebp]
  00097	64 89 0d 00 00
	00 00		 mov	 DWORD PTR fs:0, ecx
  0009e	59		 pop	 ecx
  0009f	5f		 pop	 edi
  000a0	5e		 pop	 esi
  000a1	5b		 pop	 ebx
  000a2	8b e5		 mov	 esp, ebp
  000a4	5d		 pop	 ebp
  000a5	c2 08 00	 ret	 8
_TEXT	ENDS
;	COMDAT text$x
text$x	SEGMENT
__unwindfunclet$?GetStyleData@CStyleDataManager@@QAEPAVCStyleData@@PBDH@Z$0:
  00000	8d 4d 0c	 lea	 ecx, DWORD PTR $T2[ebp]
  00003	ff 25 00 00 00
	00		 jmp	 DWORD PTR __imp_??1?$CStringT@DV?$StrTraitMFC_DLL@DV?$ChTraitsCRT@D@ATL@@@@@ATL@@QAE@XZ
  00009	cc		 int	 3
  0000a	cc		 int	 3
  0000b	cc		 int	 3
  0000c	cc		 int	 3
  0000d	cc		 int	 3
__ehhandler$?GetStyleData@CStyleDataManager@@QAEPAVCStyleData@@PBDH@Z:
  0000e	90		 npad	 1
  0000f	90		 npad	 1
  00010	8b 54 24 08	 mov	 edx, DWORD PTR [esp+8]
  00014	8d 42 0c	 lea	 eax, DWORD PTR [edx+12]
  00017	8b 4a f0	 mov	 ecx, DWORD PTR [edx-16]
  0001a	33 c8		 xor	 ecx, eax
  0001c	e8 00 00 00 00	 call	 @__security_check_cookie@4
  00021	b8 00 00 00 00	 mov	 eax, OFFSET __ehfuncinfo$?GetStyleData@CStyleDataManager@@QAEPAVCStyleData@@PBDH@Z
  00026	e9 00 00 00 00	 jmp	 ___CxxFrameHandler3
text$x	ENDS
?GetStyleData@CStyleDataManager@@QAEPAVCStyleData@@PBDH@Z ENDP ; CStyleDataManager::GetStyleData
; Function compile flags: /Ogtp
; File D:\git\src\IBK\IBK_DRFN\ProjSrc\SrcChartEx\ChartAddIn\ChartEnvSetupDlgAddIn\ChartEnvSetupDlgAddIn\StyleDataManager.cpp
; File C:\Program Files (x86)\Microsoft Visual Studio\2019\Community\VC\Tools\MSVC\14.29.30133\atlmfc\include\afxtempl.h
; File D:\git\src\IBK\IBK_DRFN\ProjSrc\SrcChartEx\ChartAddIn\ChartEnvSetupDlgAddIn\ChartEnvSetupDlgAddIn\StyleDataManager.cpp
; File C:\Program Files (x86)\Microsoft Visual Studio\2019\Community\VC\Tools\MSVC\14.29.30133\atlmfc\include\afxtempl.h
; File D:\git\src\IBK\IBK_DRFN\ProjSrc\SrcChartEx\ChartAddIn\ChartEnvSetupDlgAddIn\ChartEnvSetupDlgAddIn\StyleDataManager.cpp
;	COMDAT ?GetStyleData@CStyleDataManager@@QAEPAVCStyleData@@HH@Z
_TEXT	SEGMENT
_p_nIndex$ = 8						; size = 4
_p_bDefaultData$ = 12					; size = 4
?GetStyleData@CStyleDataManager@@QAEPAVCStyleData@@HH@Z PROC ; CStyleDataManager::GetStyleData, COMDAT
; _this$ = ecx

; 265  : {

  00000	55		 push	 ebp
  00001	8b ec		 mov	 ebp, esp

; 266  : 	if( p_nIndex < 0) return NULL;

  00003	8b 45 08	 mov	 eax, DWORD PTR _p_nIndex$[ebp]
  00006	85 c0		 test	 eax, eax
  00008	78 4d		 js	 SHORT $LN21@GetStyleDa

; 267  : 
; 268  : 	CList<CStyleData*, CStyleData*> *pStyleDataList = NULL;
; 269  : 	if( p_bDefaultData)

  0000a	83 7d 0c 00	 cmp	 DWORD PTR _p_bDefaultData$[ebp], 0
  0000e	74 11		 je	 SHORT $LN3@GetStyleDa

; 270  : 	{
; 271  : 		if( m_lstStyleDefault.GetCount() <= p_nIndex) return NULL;

  00010	8b 0d 0c 00 00
	00		 mov	 ecx, DWORD PTR ?m_lstStyleDefault@CStyleDataManager@@1V?$CList@PAVCStyleData@@PAV1@@@A+12
  00016	3b c8		 cmp	 ecx, eax
  00018	7e 3d		 jle	 SHORT $LN21@GetStyleDa

; 272  : 		else pStyleDataList = &m_lstStyleDefault;

  0001a	ba 04 00 00 00	 mov	 edx, OFFSET ?m_lstStyleDefault@CStyleDataManager@@1V?$CList@PAVCStyleData@@PAV1@@@A+4

; 273  : 	}

  0001f	eb 0f		 jmp	 SHORT $LN8@GetStyleDa
$LN3@GetStyleDa:

; 274  : 	else
; 275  : 	{
; 276  : 		if(	m_lstStyleUser.GetCount() <= p_nIndex) return NULL;

  00021	8b 0d 0c 00 00
	00		 mov	 ecx, DWORD PTR ?m_lstStyleUser@CStyleDataManager@@1V?$CList@PAVCStyleData@@PAV1@@@A+12
  00027	3b c8		 cmp	 ecx, eax
  00029	7e 2c		 jle	 SHORT $LN21@GetStyleDa

; 277  : 		else pStyleDataList = &m_lstStyleUser;

  0002b	ba 04 00 00 00	 mov	 edx, OFFSET ?m_lstStyleUser@CStyleDataManager@@1V?$CList@PAVCStyleData@@PAV1@@@A+4
$LN8@GetStyleDa:
; File C:\Program Files (x86)\Microsoft Visual Studio\2019\Community\VC\Tools\MSVC\14.29.30133\atlmfc\include\afxtempl.h

; 1133 : 	if (nIndex >= m_nCount || nIndex < 0)

  00030	3b c1		 cmp	 eax, ecx
  00032	7d 1a		 jge	 SHORT $LN14@GetStyleDa

; 1135 : 
; 1136 : 	CNode* pNode = m_pNodeHead;

  00034	8b 0a		 mov	 ecx, DWORD PTR [edx]

; 1137 : 	while (nIndex--)

  00036	85 c0		 test	 eax, eax
  00038	74 16		 je	 SHORT $LN10@GetStyleDa
  0003a	66 0f 1f 44 00
	00		 npad	 6
$LL11@GetStyleDa:

; 1138 : 	{
; 1139 : 		ASSERT(AfxIsValidAddress(pNode, sizeof(CNode)));
; 1140 : 		pNode = pNode->pNext;

  00040	8b 09		 mov	 ecx, DWORD PTR [ecx]
  00042	83 e8 01	 sub	 eax, 1
  00045	75 f9		 jne	 SHORT $LL11@GetStyleDa
; File D:\git\src\IBK\IBK_DRFN\ProjSrc\SrcChartEx\ChartAddIn\ChartEnvSetupDlgAddIn\ChartEnvSetupDlgAddIn\StyleDataManager.cpp

; 281  : 	return pStyleDataList->GetAt( psnStyle);

  00047	8b 41 08	 mov	 eax, DWORD PTR [ecx+8]

; 282  : }

  0004a	5d		 pop	 ebp
  0004b	c2 08 00	 ret	 8
$LN14@GetStyleDa:
; File C:\Program Files (x86)\Microsoft Visual Studio\2019\Community\VC\Tools\MSVC\14.29.30133\atlmfc\include\afxtempl.h

; 1134 : 		return NULL;  // went too far

  0004e	33 c9		 xor	 ecx, ecx
$LN10@GetStyleDa:
; File D:\git\src\IBK\IBK_DRFN\ProjSrc\SrcChartEx\ChartAddIn\ChartEnvSetupDlgAddIn\ChartEnvSetupDlgAddIn\StyleDataManager.cpp

; 281  : 	return pStyleDataList->GetAt( psnStyle);

  00050	8b 41 08	 mov	 eax, DWORD PTR [ecx+8]

; 282  : }

  00053	5d		 pop	 ebp
  00054	c2 08 00	 ret	 8
$LN21@GetStyleDa:

; 274  : 	else
; 275  : 	{
; 276  : 		if(	m_lstStyleUser.GetCount() <= p_nIndex) return NULL;

  00057	33 c0		 xor	 eax, eax

; 282  : }

  00059	5d		 pop	 ebp
  0005a	c2 08 00	 ret	 8
?GetStyleData@CStyleDataManager@@QAEPAVCStyleData@@HH@Z ENDP ; CStyleDataManager::GetStyleData
_TEXT	ENDS
; Function compile flags: /Ogtp
; File D:\git\src\IBK\IBK_DRFN\ProjSrc\SrcChartEx\ChartAddIn\ChartEnvSetupDlgAddIn\ChartEnvSetupDlgAddIn\StyleDataManager.cpp
;	COMDAT ?AddStyleData@CStyleDataManager@@QAEXPAVCStyleData@@H@Z
_TEXT	SEGMENT
_p_pStyleData$ = 8					; size = 4
_p_bDefaultData$ = 12					; size = 4
?AddStyleData@CStyleDataManager@@QAEXPAVCStyleData@@H@Z PROC ; CStyleDataManager::AddStyleData, COMDAT
; _this$ = ecx

; 259  : {

  00000	55		 push	 ebp
  00001	8b ec		 mov	 ebp, esp

; 260  : 	if( p_bDefaultData) return;

  00003	83 7d 0c 00	 cmp	 DWORD PTR _p_bDefaultData$[ebp], 0
  00007	75 0d		 jne	 SHORT $LN1@AddStyleDa

; 261  : 	m_lstStyleUser.AddTail( p_pStyleData);

  00009	ff 75 08	 push	 DWORD PTR _p_pStyleData$[ebp]
  0000c	b9 00 00 00 00	 mov	 ecx, OFFSET ?m_lstStyleUser@CStyleDataManager@@1V?$CList@PAVCStyleData@@PAV1@@@A ; CStyleDataManager::m_lstStyleUser
  00011	e8 00 00 00 00	 call	 ?AddTail@?$CList@PAVCStyleData@@PAV1@@@QAEPAU__POSITION@@PAVCStyleData@@@Z ; CList<CStyleData *,CStyleData *>::AddTail
$LN1@AddStyleDa:

; 262  : }

  00016	5d		 pop	 ebp
  00017	c2 08 00	 ret	 8
?AddStyleData@CStyleDataManager@@QAEXPAVCStyleData@@H@Z ENDP ; CStyleDataManager::AddStyleData
_TEXT	ENDS
; Function compile flags: /Ogtp
; File D:\git\src\IBK\IBK_DRFN\ProjSrc\SrcChartEx\ChartAddIn\ChartEnvSetupDlgAddIn\ChartEnvSetupDlgAddIn\StyleDataManager.cpp
; File C:\Program Files (x86)\Microsoft Visual Studio\2019\Community\VC\Tools\MSVC\14.29.30133\atlmfc\include\afxtempl.h
; File D:\git\src\IBK\IBK_DRFN\ProjSrc\SrcChartEx\ChartAddIn\ChartEnvSetupDlgAddIn\ChartEnvSetupDlgAddIn\StyleDataManager.cpp
; File C:\Program Files (x86)\Microsoft Visual Studio\2019\Community\VC\Tools\MSVC\14.29.30133\atlmfc\include\afxtempl.h
; File D:\git\src\IBK\IBK_DRFN\ProjSrc\SrcChartEx\ChartAddIn\ChartEnvSetupDlgAddIn\ChartEnvSetupDlgAddIn\StyleDataManager.cpp
; File C:\Program Files (x86)\Microsoft Visual Studio\2019\Community\VC\Tools\MSVC\14.29.30133\atlmfc\include\afxtempl.h
; File D:\git\src\IBK\IBK_DRFN\ProjSrc\SrcChartEx\ChartAddIn\ChartEnvSetupDlgAddIn\ChartEnvSetupDlgAddIn\StyleDataManager.cpp
; File C:\Program Files (x86)\Microsoft Visual Studio\2019\Community\VC\Tools\MSVC\14.29.30133\atlmfc\include\afxtempl.h
; File D:\git\src\IBK\IBK_DRFN\ProjSrc\SrcChartEx\ChartAddIn\ChartEnvSetupDlgAddIn\ChartEnvSetupDlgAddIn\StyleDataManager.cpp
; File C:\Program Files (x86)\Microsoft Visual Studio\2019\Community\VC\Tools\MSVC\14.29.30133\atlmfc\include\afxtempl.h
; File D:\git\src\IBK\IBK_DRFN\ProjSrc\SrcChartEx\ChartAddIn\ChartEnvSetupDlgAddIn\ChartEnvSetupDlgAddIn\StyleDataManager.cpp
; File C:\Program Files (x86)\Microsoft Visual Studio\2019\Community\VC\Tools\MSVC\14.29.30133\atlmfc\include\afxtempl.h
; File D:\git\src\IBK\IBK_DRFN\ProjSrc\SrcChartEx\ChartAddIn\ChartEnvSetupDlgAddIn\ChartEnvSetupDlgAddIn\StyleDataManager.cpp
; File C:\Program Files (x86)\Microsoft Visual Studio\2019\Community\VC\Tools\MSVC\14.29.30133\atlmfc\include\afxtempl.h
; File D:\git\src\IBK\IBK_DRFN\ProjSrc\SrcChartEx\ChartAddIn\ChartEnvSetupDlgAddIn\ChartEnvSetupDlgAddIn\StyleDataManager.cpp
;	COMDAT ?CopyStyleDataListFrom@CStyleDataManager@@QAEHAAV?$CList@PAVCStyleData@@PAV1@@@H@Z
_TEXT	SEGMENT
$T2 = -28						; size = 4
_pPrev$1$ = -24						; size = 4
tv737 = -20						; size = 4
$T3 = -20						; size = 4
tv738 = -16						; size = 4
__$EHRec$ = -12						; size = 12
tv734 = 8						; size = 4
_p_lstStyleDataList$ = 8				; size = 4
_p_bDefaultData$ = 12					; size = 4
?CopyStyleDataListFrom@CStyleDataManager@@QAEHAAV?$CList@PAVCStyleData@@PAV1@@@H@Z PROC ; CStyleDataManager::CopyStyleDataListFrom, COMDAT
; _this$ = ecx

; 241  : {

  00000	55		 push	 ebp
  00001	8b ec		 mov	 ebp, esp
  00003	6a ff		 push	 -1
  00005	68 00 00 00 00	 push	 __ehhandler$?CopyStyleDataListFrom@CStyleDataManager@@QAEHAAV?$CList@PAVCStyleData@@PAV1@@@H@Z
  0000a	64 a1 00 00 00
	00		 mov	 eax, DWORD PTR fs:0
  00010	50		 push	 eax
  00011	83 ec 10	 sub	 esp, 16			; 00000010H
  00014	53		 push	 ebx
  00015	56		 push	 esi
  00016	57		 push	 edi
  00017	a1 00 00 00 00	 mov	 eax, DWORD PTR ___security_cookie
  0001c	33 c5		 xor	 eax, ebp
  0001e	50		 push	 eax
  0001f	8d 45 f4	 lea	 eax, DWORD PTR __$EHRec$[ebp]
  00022	64 a3 00 00 00
	00		 mov	 DWORD PTR fs:0, eax
  00028	8b 55 0c	 mov	 edx, DWORD PTR _p_bDefaultData$[ebp]
; File C:\Program Files (x86)\Microsoft Visual Studio\2019\Community\VC\Tools\MSVC\14.29.30133\atlmfc\include\afxtempl.h

; 786  : 	{ return m_nCount == 0; }

  0002b	be 0c 00 00 00	 mov	 esi, OFFSET ?m_lstStyleUser@CStyleDataManager@@1V?$CList@PAVCStyleData@@PAV1@@@A+12
  00030	85 d2		 test	 edx, edx
  00032	b8 0c 00 00 00	 mov	 eax, OFFSET ?m_lstStyleDefault@CStyleDataManager@@1V?$CList@PAVCStyleData@@PAV1@@@A+12
  00037	bf 04 00 00 00	 mov	 edi, OFFSET ?m_lstStyleDefault@CStyleDataManager@@1V?$CList@PAVCStyleData@@PAV1@@@A+4
  0003c	b9 08 00 00 00	 mov	 ecx, OFFSET ?m_lstStyleUser@CStyleDataManager@@1V?$CList@PAVCStyleData@@PAV1@@@A+8
  00041	0f 45 f0	 cmovne	 esi, eax
  00044	bb 10 00 00 00	 mov	 ebx, OFFSET ?m_lstStyleUser@CStyleDataManager@@1V?$CList@PAVCStyleData@@PAV1@@@A+16
  00049	89 75 f0	 mov	 DWORD PTR tv738[ebp], esi
  0004c	83 3e 00	 cmp	 DWORD PTR [esi], 0
; File D:\git\src\IBK\IBK_DRFN\ProjSrc\SrcChartEx\ChartAddIn\ChartEnvSetupDlgAddIn\ChartEnvSetupDlgAddIn\StyleDataManager.cpp

; 246  : 	while( !pStyleDataList->IsEmpty()) delete pStyleDataList->RemoveHead();

  0004f	0f 84 cb 01 00
	00		 je	 $LN3@CopyStyleD
  00055	85 d2		 test	 edx, edx
  00057	b8 04 00 00 00	 mov	 eax, OFFSET ?m_lstStyleUser@CStyleDataManager@@1V?$CList@PAVCStyleData@@PAV1@@@A+4
  0005c	0f 45 c7	 cmovne	 eax, edi
  0005f	89 45 ec	 mov	 DWORD PTR tv737[ebp], eax
$LL2@CopyStyleD:
; File C:\Program Files (x86)\Microsoft Visual Studio\2019\Community\VC\Tools\MSVC\14.29.30133\atlmfc\include\afxtempl.h

; 1009 : 	ENSURE(m_pNodeHead != NULL);  // don't call on empty list !!!

  00062	8b 08		 mov	 ecx, DWORD PTR [eax]
  00064	85 c9		 test	 ecx, ecx
  00066	0f 84 d6 02 00
	00		 je	 $LN88@CopyStyleD

; 1010 : 	ASSERT(AfxIsValidAddress(m_pNodeHead, sizeof(CNode)));
; 1011 : 
; 1012 : 	CNode* pOldNode = m_pNodeHead;
; 1013 : 	TYPE returnValue = pOldNode->data;
; 1014 : 
; 1015 : 	m_pNodeHead = pOldNode->pNext;

  0006c	8b 75 ec	 mov	 esi, DWORD PTR tv737[ebp]
  0006f	8b 01		 mov	 eax, DWORD PTR [ecx]
  00071	8b 79 08	 mov	 edi, DWORD PTR [ecx+8]
  00074	89 06		 mov	 DWORD PTR [esi], eax

; 1016 : 	if (m_pNodeHead != NULL)

  00076	85 c0		 test	 eax, eax
  00078	74 09		 je	 SHORT $LN21@CopyStyleD

; 1017 : 		m_pNodeHead->pPrev = NULL;

  0007a	c7 40 04 00 00
	00 00		 mov	 DWORD PTR [eax+4], 0
  00081	eb 15		 jmp	 SHORT $LN22@CopyStyleD
$LN21@CopyStyleD:

; 1018 : 	else
; 1019 : 		m_pNodeTail = NULL;

  00083	85 d2		 test	 edx, edx
  00085	b8 08 00 00 00	 mov	 eax, OFFSET ?m_lstStyleUser@CStyleDataManager@@1V?$CList@PAVCStyleData@@PAV1@@@A+8
  0008a	ba 08 00 00 00	 mov	 edx, OFFSET ?m_lstStyleDefault@CStyleDataManager@@1V?$CList@PAVCStyleData@@PAV1@@@A+8
  0008f	0f 45 c2	 cmovne	 eax, edx
  00092	c7 00 00 00 00
	00		 mov	 DWORD PTR [eax], 0
$LN22@CopyStyleD:

; 938  : 	pNode->pNext = m_pNodeFree;

  00098	83 7d 0c 00	 cmp	 DWORD PTR _p_bDefaultData$[ebp], 0
  0009c	b8 10 00 00 00	 mov	 eax, OFFSET ?m_lstStyleDefault@CStyleDataManager@@1V?$CList@PAVCStyleData@@PAV1@@@A+16

; 939  : 	m_pNodeFree = pNode;
; 940  : 	m_nCount--;

  000a1	8b 75 f0	 mov	 esi, DWORD PTR tv738[ebp]
  000a4	8b d3		 mov	 edx, ebx
  000a6	0f 45 d0	 cmovne	 edx, eax
  000a9	8b 02		 mov	 eax, DWORD PTR [edx]
  000ab	89 01		 mov	 DWORD PTR [ecx], eax
  000ad	83 06 ff	 add	 DWORD PTR [esi], -1
  000b0	89 0a		 mov	 DWORD PTR [edx], ecx

; 941  : 	ASSERT(m_nCount >= 0);  // make sure we don't underflow
; 942  : 
; 943  : 	// if no more elements, cleanup completely
; 944  : 	if (m_nCount == 0)

  000b2	75 4a		 jne	 SHORT $LN25@CopyStyleD

; 871  : 	m_pNodeHead = m_pNodeTail = m_pNodeFree = NULL;

  000b4	8b 4d 0c	 mov	 ecx, DWORD PTR _p_bDefaultData$[ebp]
  000b7	b8 08 00 00 00	 mov	 eax, OFFSET ?m_lstStyleUser@CStyleDataManager@@1V?$CList@PAVCStyleData@@PAV1@@@A+8
  000bc	85 c9		 test	 ecx, ecx
  000be	c7 02 00 00 00
	00		 mov	 DWORD PTR [edx], 0
  000c4	ba 08 00 00 00	 mov	 edx, OFFSET ?m_lstStyleDefault@CStyleDataManager@@1V?$CList@PAVCStyleData@@PAV1@@@A+8
  000c9	c7 06 00 00 00
	00		 mov	 DWORD PTR [esi], 0
  000cf	0f 45 c2	 cmovne	 eax, edx

; 872  : 	m_pBlocks->FreeDataChain();

  000d2	be 14 00 00 00	 mov	 esi, OFFSET ?m_lstStyleUser@CStyleDataManager@@1V?$CList@PAVCStyleData@@PAV1@@@A+20
  000d7	c7 00 00 00 00
	00		 mov	 DWORD PTR [eax], 0
  000dd	8b 45 ec	 mov	 eax, DWORD PTR tv737[ebp]
  000e0	c7 00 00 00 00
	00		 mov	 DWORD PTR [eax], 0
  000e6	b8 14 00 00 00	 mov	 eax, OFFSET ?m_lstStyleDefault@CStyleDataManager@@1V?$CList@PAVCStyleData@@PAV1@@@A+20
  000eb	0f 45 f0	 cmovne	 esi, eax
  000ee	8b 0e		 mov	 ecx, DWORD PTR [esi]
  000f0	e8 00 00 00 00	 call	 ?FreeDataChain@CPlex@@QAEXXZ ; CPlex::FreeDataChain

; 873  : 	m_pBlocks = NULL;

  000f5	c7 06 00 00 00
	00		 mov	 DWORD PTR [esi], 0
  000fb	8b 75 f0	 mov	 esi, DWORD PTR tv738[ebp]
$LN25@CopyStyleD:
; File D:\git\src\IBK\IBK_DRFN\ProjSrc\SrcChartEx\ChartAddIn\ChartEnvSetupDlgAddIn\ChartEnvSetupDlgAddIn\StyleDataManager.cpp

; 246  : 	while( !pStyleDataList->IsEmpty()) delete pStyleDataList->RemoveHead();

  000fe	85 ff		 test	 edi, edi
  00100	0f 84 06 01 00
	00		 je	 $LN34@CopyStyleD
; File C:\Program Files (x86)\Microsoft Visual Studio\2019\Community\VC\Tools\MSVC\14.29.30133\atlmfc\include\afxtempl.h

; 867  : 	for (pNode = m_pNodeHead; pNode != NULL; pNode = pNode->pNext)

  00106	8b b7 a0 00 00
	00		 mov	 esi, DWORD PTR [edi+160]

; 878  : {

  0010c	c7 45 fc 00 00
	00 00		 mov	 DWORD PTR __$EHRec$[ebp+8], 0
  00113	c7 87 9c 00 00
	00 00 00 00 00	 mov	 DWORD PTR [edi+156], OFFSET ??_7?$CList@V?$CStringT@DV?$StrTraitMFC_DLL@DV?$ChTraitsCRT@D@ATL@@@@@ATL@@V12@@@6B@

; 867  : 	for (pNode = m_pNodeHead; pNode != NULL; pNode = pNode->pNext)

  0011d	85 f6		 test	 esi, esi
  0011f	74 0f		 je	 SHORT $LN47@CopyStyleD
$LL48@CopyStyleD:

; 868  : 		pNode->data.~TYPE();

  00121	8d 4e 08	 lea	 ecx, DWORD PTR [esi+8]
  00124	ff 15 00 00 00
	00		 call	 DWORD PTR __imp_??1?$CStringT@DV?$StrTraitMFC_DLL@DV?$ChTraitsCRT@D@ATL@@@@@ATL@@QAE@XZ

; 867  : 	for (pNode = m_pNodeHead; pNode != NULL; pNode = pNode->pNext)

  0012a	8b 36		 mov	 esi, DWORD PTR [esi]
  0012c	85 f6		 test	 esi, esi
  0012e	75 f1		 jne	 SHORT $LL48@CopyStyleD
$LN47@CopyStyleD:

; 872  : 	m_pBlocks->FreeDataChain();

  00130	8b 8f b0 00 00
	00		 mov	 ecx, DWORD PTR [edi+176]
  00136	c7 87 a8 00 00
	00 00 00 00 00	 mov	 DWORD PTR [edi+168], 0
  00140	c7 87 ac 00 00
	00 00 00 00 00	 mov	 DWORD PTR [edi+172], 0
  0014a	c7 87 a4 00 00
	00 00 00 00 00	 mov	 DWORD PTR [edi+164], 0
  00154	c7 87 a0 00 00
	00 00 00 00 00	 mov	 DWORD PTR [edi+160], 0
  0015e	e8 00 00 00 00	 call	 ?FreeDataChain@CPlex@@QAEXXZ ; CPlex::FreeDataChain

; 873  : 	m_pBlocks = NULL;

  00163	c7 87 b0 00 00
	00 00 00 00 00	 mov	 DWORD PTR [edi+176], 0

; 867  : 	for (pNode = m_pNodeHead; pNode != NULL; pNode = pNode->pNext)

  0016d	8b b7 84 00 00
	00		 mov	 esi, DWORD PTR [edi+132]

; 878  : {

  00173	c7 45 fc 01 00
	00 00		 mov	 DWORD PTR __$EHRec$[ebp+8], 1
  0017a	c7 87 80 00 00
	00 00 00 00 00	 mov	 DWORD PTR [edi+128], OFFSET ??_7?$CList@V?$CStringT@DV?$StrTraitMFC_DLL@DV?$ChTraitsCRT@D@ATL@@@@@ATL@@V12@@@6B@

; 867  : 	for (pNode = m_pNodeHead; pNode != NULL; pNode = pNode->pNext)

  00184	85 f6		 test	 esi, esi
  00186	74 17		 je	 SHORT $LN58@CopyStyleD
  00188	0f 1f 84 00 00
	00 00 00	 npad	 8
$LL59@CopyStyleD:

; 868  : 		pNode->data.~TYPE();

  00190	8d 4e 08	 lea	 ecx, DWORD PTR [esi+8]
  00193	ff 15 00 00 00
	00		 call	 DWORD PTR __imp_??1?$CStringT@DV?$StrTraitMFC_DLL@DV?$ChTraitsCRT@D@ATL@@@@@ATL@@QAE@XZ

; 867  : 	for (pNode = m_pNodeHead; pNode != NULL; pNode = pNode->pNext)

  00199	8b 36		 mov	 esi, DWORD PTR [esi]
  0019b	85 f6		 test	 esi, esi
  0019d	75 f1		 jne	 SHORT $LL59@CopyStyleD
$LN58@CopyStyleD:

; 872  : 	m_pBlocks->FreeDataChain();

  0019f	8b 8f 94 00 00
	00		 mov	 ecx, DWORD PTR [edi+148]
  001a5	c7 87 8c 00 00
	00 00 00 00 00	 mov	 DWORD PTR [edi+140], 0
  001af	c7 87 90 00 00
	00 00 00 00 00	 mov	 DWORD PTR [edi+144], 0
  001b9	c7 87 88 00 00
	00 00 00 00 00	 mov	 DWORD PTR [edi+136], 0
  001c3	c7 87 84 00 00
	00 00 00 00 00	 mov	 DWORD PTR [edi+132], 0
  001cd	e8 00 00 00 00	 call	 ?FreeDataChain@CPlex@@QAEXXZ ; CPlex::FreeDataChain
  001d2	8d 4f 38	 lea	 ecx, DWORD PTR [edi+56]

; 873  : 	m_pBlocks = NULL;

  001d5	c7 87 94 00 00
	00 00 00 00 00	 mov	 DWORD PTR [edi+148], 0

; 881  : }

  001df	c7 45 fc ff ff
	ff ff		 mov	 DWORD PTR __$EHRec$[ebp+8], -1
  001e6	e8 00 00 00 00	 call	 ??1CDWordArray@@UAE@XZ	; CDWordArray::~CDWordArray
  001eb	8d 4f 24	 lea	 ecx, DWORD PTR [edi+36]
  001ee	e8 00 00 00 00	 call	 ??1CDWordArray@@UAE@XZ	; CDWordArray::~CDWordArray
  001f3	8b cf		 mov	 ecx, edi
  001f5	ff 15 00 00 00
	00		 call	 DWORD PTR __imp_??1?$CStringT@DV?$StrTraitMFC_DLL@DV?$ChTraitsCRT@D@ATL@@@@@ATL@@QAE@XZ
  001fb	68 e8 00 00 00	 push	 232			; 000000e8H
  00200	57		 push	 edi
  00201	e8 00 00 00 00	 call	 ??3@YAXPAXI@Z		; operator delete
  00206	8b 75 f0	 mov	 esi, DWORD PTR tv738[ebp]
  00209	83 c4 08	 add	 esp, 8
$LN34@CopyStyleD:

; 786  : 	{ return m_nCount == 0; }

  0020c	83 3e 00	 cmp	 DWORD PTR [esi], 0
; File D:\git\src\IBK\IBK_DRFN\ProjSrc\SrcChartEx\ChartAddIn\ChartEnvSetupDlgAddIn\ChartEnvSetupDlgAddIn\StyleDataManager.cpp

; 246  : 	while( !pStyleDataList->IsEmpty()) delete pStyleDataList->RemoveHead();

  0020f	8b 55 0c	 mov	 edx, DWORD PTR _p_bDefaultData$[ebp]
  00212	8b 45 ec	 mov	 eax, DWORD PTR tv737[ebp]
  00215	0f 85 47 fe ff
	ff		 jne	 $LL2@CopyStyleD
  0021b	b9 08 00 00 00	 mov	 ecx, OFFSET ?m_lstStyleUser@CStyleDataManager@@1V?$CList@PAVCStyleData@@PAV1@@@A+8
$LN3@CopyStyleD:

; 247  : 
; 248  : 	CStyleData *pStyleData = NULL;
; 249  : 	POSITION psnStyle = p_lstStyleDataList.GetHeadPosition();

  00220	8b 45 08	 mov	 eax, DWORD PTR _p_lstStyleDataList$[ebp]
  00223	8b 78 04	 mov	 edi, DWORD PTR [eax+4]

; 250  : 	while( psnStyle)

  00226	85 ff		 test	 edi, edi
  00228	0f 84 fb 00 00
	00		 je	 $LN110@CopyStyleD
  0022e	85 d2		 test	 edx, edx
  00230	b8 10 00 00 00	 mov	 eax, OFFSET ?m_lstStyleDefault@CStyleDataManager@@1V?$CList@PAVCStyleData@@PAV1@@@A+16
  00235	0f 45 d8	 cmovne	 ebx, eax
  00238	b8 08 00 00 00	 mov	 eax, OFFSET ?m_lstStyleDefault@CStyleDataManager@@1V?$CList@PAVCStyleData@@PAV1@@@A+8
  0023d	0f 45 c8	 cmovne	 ecx, eax
  00240	89 4d 08	 mov	 DWORD PTR tv734[ebp], ecx
$LL4@CopyStyleD:

; 251  : 	{
; 252  : 		pStyleData = p_lstStyleDataList.GetNext( psnStyle);

  00243	8b 77 08	 mov	 esi, DWORD PTR [edi+8]
; File C:\Program Files (x86)\Microsoft Visual Studio\2019\Community\VC\Tools\MSVC\14.29.30133\atlmfc\include\afxtempl.h

; 813  : 		rPosition = (POSITION) pNode->pNext;

  00246	8b 3f		 mov	 edi, DWORD PTR [edi]
; File D:\git\src\IBK\IBK_DRFN\ProjSrc\SrcChartEx\ChartAddIn\ChartEnvSetupDlgAddIn\ChartEnvSetupDlgAddIn\StyleDataManager.cpp

; 253  : 		pStyleDataList->AddTail( new CStyleData( *pStyleData));

  00248	68 e8 00 00 00	 push	 232			; 000000e8H
  0024d	e8 00 00 00 00	 call	 ??2@YAPAXI@Z		; operator new
  00252	83 c4 04	 add	 esp, 4
  00255	89 45 e4	 mov	 DWORD PTR $T2[ebp], eax
  00258	c7 45 fc 02 00
	00 00		 mov	 DWORD PTR __$EHRec$[ebp+8], 2
  0025f	85 c0		 test	 eax, eax
  00261	74 0d		 je	 SHORT $LN11@CopyStyleD
  00263	56		 push	 esi
  00264	8b c8		 mov	 ecx, eax
  00266	e8 00 00 00 00	 call	 ??0CStyleData@@QAE@ABV0@@Z ; CStyleData::CStyleData
  0026b	89 45 ec	 mov	 DWORD PTR $T3[ebp], eax
  0026e	eb 07		 jmp	 SHORT $LN12@CopyStyleD
$LN11@CopyStyleD:
  00270	c7 45 ec 00 00
	00 00		 mov	 DWORD PTR $T3[ebp], 0
$LN12@CopyStyleD:
; File C:\Program Files (x86)\Microsoft Visual Studio\2019\Community\VC\Tools\MSVC\14.29.30133\atlmfc\include\afxtempl.h

; 968  : 	CNode* pNewNode = NewNode(m_pNodeTail, NULL);

  00277	8b 4d 08	 mov	 ecx, DWORD PTR tv734[ebp]

; 902  : 	if (m_pNodeFree == NULL)

  0027a	8b 13		 mov	 edx, DWORD PTR [ebx]
; File D:\git\src\IBK\IBK_DRFN\ProjSrc\SrcChartEx\ChartAddIn\ChartEnvSetupDlgAddIn\ChartEnvSetupDlgAddIn\StyleDataManager.cpp

; 253  : 		pStyleDataList->AddTail( new CStyleData( *pStyleData));

  0027c	c7 45 fc ff ff
	ff ff		 mov	 DWORD PTR __$EHRec$[ebp+8], -1
; File C:\Program Files (x86)\Microsoft Visual Studio\2019\Community\VC\Tools\MSVC\14.29.30133\atlmfc\include\afxtempl.h

; 968  : 	CNode* pNewNode = NewNode(m_pNodeTail, NULL);

  00283	8b 01		 mov	 eax, DWORD PTR [ecx]
  00285	89 45 e8	 mov	 DWORD PTR _pPrev$1$[ebp], eax

; 902  : 	if (m_pNodeFree == NULL)

  00288	85 d2		 test	 edx, edx
  0028a	75 5f		 jne	 SHORT $LN107@CopyStyleD

; 903  : 	{
; 904  : 		// add another block
; 905  : 		CPlex* pNewBlock = CPlex::Create(m_pBlocks, m_nBlockSize,

  0028c	8b 4d 0c	 mov	 ecx, DWORD PTR _p_bDefaultData$[ebp]
  0028f	b8 18 00 00 00	 mov	 eax, OFFSET ?m_lstStyleDefault@CStyleDataManager@@1V?$CList@PAVCStyleData@@PAV1@@@A+24
  00294	85 c9		 test	 ecx, ecx
  00296	be 18 00 00 00	 mov	 esi, OFFSET ?m_lstStyleUser@CStyleDataManager@@1V?$CList@PAVCStyleData@@PAV1@@@A+24
  0029b	6a 0c		 push	 12			; 0000000cH
  0029d	0f 45 f0	 cmovne	 esi, eax
  002a0	b9 14 00 00 00	 mov	 ecx, OFFSET ?m_lstStyleDefault@CStyleDataManager@@1V?$CList@PAVCStyleData@@PAV1@@@A+20
  002a5	b8 14 00 00 00	 mov	 eax, OFFSET ?m_lstStyleUser@CStyleDataManager@@1V?$CList@PAVCStyleData@@PAV1@@@A+20
  002aa	0f 45 c1	 cmovne	 eax, ecx
  002ad	ff 36		 push	 DWORD PTR [esi]
  002af	50		 push	 eax
  002b0	e8 00 00 00 00	 call	 ?Create@CPlex@@SGPAU1@AAPAU1@II@Z ; CPlex::Create

; 906  : 				 sizeof(CNode));
; 907  : 
; 908  : 		// chain them into free list
; 909  : 		CNode* pNode = (CNode*) pNewBlock->data();
; 910  : 		// free in reverse order to make it easier to debug
; 911  : 		pNode += m_nBlockSize - 1;

  002b5	8b 16		 mov	 edx, DWORD PTR [esi]
  002b7	83 c0 08	 add	 eax, 8
  002ba	8d 0c 52	 lea	 ecx, DWORD PTR [edx+edx*2]
  002bd	8d 04 88	 lea	 eax, DWORD PTR [eax+ecx*4]

; 912  : 		for (INT_PTR i = m_nBlockSize-1; i >= 0; i--, pNode--)

  002c0	8d 72 ff	 lea	 esi, DWORD PTR [edx-1]
  002c3	83 c0 f4	 add	 eax, -12		; fffffff4H
  002c6	85 f6		 test	 esi, esi
  002c8	78 18		 js	 SHORT $LN108@CopyStyleD
  002ca	66 0f 1f 44 00
	00		 npad	 6
$LL73@CopyStyleD:

; 913  : 		{
; 914  : 			pNode->pNext = m_pNodeFree;

  002d0	8b 0b		 mov	 ecx, DWORD PTR [ebx]
  002d2	8b d0		 mov	 edx, eax
  002d4	89 08		 mov	 DWORD PTR [eax], ecx

; 915  : 			m_pNodeFree = pNode;

  002d6	89 03		 mov	 DWORD PTR [ebx], eax
  002d8	83 e8 0c	 sub	 eax, 12			; 0000000cH
  002db	83 ee 01	 sub	 esi, 1
  002de	79 f0		 jns	 SHORT $LL73@CopyStyleD
  002e0	eb 02		 jmp	 SHORT $LN76@CopyStyleD
$LN108@CopyStyleD:
  002e2	8b 13		 mov	 edx, DWORD PTR [ebx]
$LN76@CopyStyleD:

; 918  : 	ENSURE(m_pNodeFree != NULL);  // we must have something

  002e4	85 d2		 test	 edx, edx
  002e6	74 5a		 je	 SHORT $LN88@CopyStyleD
  002e8	8b 4d 08	 mov	 ecx, DWORD PTR tv734[ebp]
$LN107@CopyStyleD:

; 919  : 
; 920  : 	CList::CNode* pNode = m_pNodeFree;
; 921  : 	m_pNodeFree = m_pNodeFree->pNext;

  002eb	8b 02		 mov	 eax, DWORD PTR [edx]
  002ed	89 03		 mov	 DWORD PTR [ebx], eax

; 922  : 	pNode->pPrev = pPrev;

  002ef	8b 45 e8	 mov	 eax, DWORD PTR _pPrev$1$[ebp]
  002f2	89 42 04	 mov	 DWORD PTR [edx+4], eax

; 923  : 	pNode->pNext = pNext;
; 924  : 	m_nCount++;

  002f5	8b 45 f0	 mov	 eax, DWORD PTR tv738[ebp]
  002f8	c7 02 00 00 00
	00		 mov	 DWORD PTR [edx], 0
  002fe	ff 00		 inc	 DWORD PTR [eax]

; 969  : 	pNewNode->data = newElement;

  00300	8b 45 ec	 mov	 eax, DWORD PTR $T3[ebp]
  00303	89 42 08	 mov	 DWORD PTR [edx+8], eax

; 970  : 	if (m_pNodeTail != NULL)

  00306	8b 01		 mov	 eax, DWORD PTR [ecx]
  00308	85 c0		 test	 eax, eax
  0030a	75 11		 jne	 SHORT $LN113@CopyStyleD

; 971  : 		m_pNodeTail->pNext = pNewNode;
; 972  : 	else
; 973  : 		m_pNodeHead = pNewNode;

  0030c	83 7d 0c 00	 cmp	 DWORD PTR _p_bDefaultData$[ebp], 0
  00310	b8 04 00 00 00	 mov	 eax, OFFSET ?m_lstStyleUser@CStyleDataManager@@1V?$CList@PAVCStyleData@@PAV1@@@A+4
  00315	be 04 00 00 00	 mov	 esi, OFFSET ?m_lstStyleDefault@CStyleDataManager@@1V?$CList@PAVCStyleData@@PAV1@@@A+4
  0031a	0f 45 c6	 cmovne	 eax, esi
$LN113@CopyStyleD:

; 974  : 	m_pNodeTail = pNewNode;

  0031d	89 10		 mov	 DWORD PTR [eax], edx
  0031f	89 11		 mov	 DWORD PTR [ecx], edx
; File D:\git\src\IBK\IBK_DRFN\ProjSrc\SrcChartEx\ChartAddIn\ChartEnvSetupDlgAddIn\ChartEnvSetupDlgAddIn\StyleDataManager.cpp

; 250  : 	while( psnStyle)

  00321	85 ff		 test	 edi, edi
  00323	0f 85 1a ff ff
	ff		 jne	 $LL4@CopyStyleD
$LN110@CopyStyleD:

; 254  : 	}
; 255  : 	return TRUE;

  00329	b8 01 00 00 00	 mov	 eax, 1

; 256  : }

  0032e	8b 4d f4	 mov	 ecx, DWORD PTR __$EHRec$[ebp]
  00331	64 89 0d 00 00
	00 00		 mov	 DWORD PTR fs:0, ecx
  00338	59		 pop	 ecx
  00339	5f		 pop	 edi
  0033a	5e		 pop	 esi
  0033b	5b		 pop	 ebx
  0033c	8b e5		 mov	 esp, ebp
  0033e	5d		 pop	 ebp
  0033f	c2 08 00	 ret	 8
$LN88@CopyStyleD:
; File C:\Program Files (x86)\Microsoft Visual Studio\2019\Community\VC\Tools\MSVC\14.29.30133\atlmfc\include\afxtempl.h

; 918  : 	ENSURE(m_pNodeFree != NULL);  // we must have something

  00342	e8 00 00 00 00	 call	 ?AfxThrowInvalidArgException@@YGXXZ ; AfxThrowInvalidArgException
$LN112@CopyStyleD:
  00347	cc		 int	 3
_TEXT	ENDS
;	COMDAT text$x
text$x	SEGMENT
__unwindfunclet$?CopyStyleDataListFrom@CStyleDataManager@@QAEHAAV?$CList@PAVCStyleData@@PAV1@@@H@Z$0:
  00000	68 e8 00 00 00	 push	 232			; 000000e8H
  00005	8b 45 e4	 mov	 eax, DWORD PTR $T2[ebp]
  00008	50		 push	 eax
  00009	e8 00 00 00 00	 call	 ??3@YAXPAXI@Z		; operator delete
  0000e	83 c4 08	 add	 esp, 8
  00011	c3		 ret	 0
  00012	cc		 int	 3
  00013	cc		 int	 3
  00014	cc		 int	 3
  00015	cc		 int	 3
  00016	cc		 int	 3
__ehhandler$?CopyStyleDataListFrom@CStyleDataManager@@QAEHAAV?$CList@PAVCStyleData@@PAV1@@@H@Z:
  00017	90		 npad	 1
  00018	90		 npad	 1
  00019	8b 54 24 08	 mov	 edx, DWORD PTR [esp+8]
  0001d	8d 42 0c	 lea	 eax, DWORD PTR [edx+12]
  00020	8b 4a e0	 mov	 ecx, DWORD PTR [edx-32]
  00023	33 c8		 xor	 ecx, eax
  00025	e8 00 00 00 00	 call	 @__security_check_cookie@4
  0002a	b8 00 00 00 00	 mov	 eax, OFFSET __ehfuncinfo$?CopyStyleDataListFrom@CStyleDataManager@@QAEHAAV?$CList@PAVCStyleData@@PAV1@@@H@Z
  0002f	e9 00 00 00 00	 jmp	 ___CxxFrameHandler3
text$x	ENDS
?CopyStyleDataListFrom@CStyleDataManager@@QAEHAAV?$CList@PAVCStyleData@@PAV1@@@H@Z ENDP ; CStyleDataManager::CopyStyleDataListFrom
; Function compile flags: /Ogtp
; File D:\git\src\IBK\IBK_DRFN\ProjSrc\SrcChartEx\ChartAddIn\ChartEnvSetupDlgAddIn\ChartEnvSetupDlgAddIn\StyleDataManager.cpp
; File C:\Program Files (x86)\Microsoft Visual Studio\2019\Community\VC\Tools\MSVC\14.29.30133\atlmfc\include\afxtempl.h
; File D:\git\src\IBK\IBK_DRFN\ProjSrc\SrcChartEx\ChartAddIn\ChartEnvSetupDlgAddIn\ChartEnvSetupDlgAddIn\StyleDataManager.cpp
; File C:\Program Files (x86)\Microsoft Visual Studio\2019\Community\VC\Tools\MSVC\14.29.30133\atlmfc\include\afxtempl.h
; File D:\git\src\IBK\IBK_DRFN\ProjSrc\SrcChartEx\ChartAddIn\ChartEnvSetupDlgAddIn\ChartEnvSetupDlgAddIn\StyleDataManager.cpp
; File C:\Program Files (x86)\Microsoft Visual Studio\2019\Community\VC\Tools\MSVC\14.29.30133\atlmfc\include\afxtempl.h
; File D:\git\src\IBK\IBK_DRFN\ProjSrc\SrcChartEx\ChartAddIn\ChartEnvSetupDlgAddIn\ChartEnvSetupDlgAddIn\StyleDataManager.cpp
; File C:\Program Files (x86)\Microsoft Visual Studio\2019\Community\VC\Tools\MSVC\14.29.30133\atlmfc\include\afxtempl.h
; File D:\git\src\IBK\IBK_DRFN\ProjSrc\SrcChartEx\ChartAddIn\ChartEnvSetupDlgAddIn\ChartEnvSetupDlgAddIn\StyleDataManager.cpp
;	COMDAT ?CopyStyleDataListTo@CStyleDataManager@@QAEHAAV?$CList@PAVCStyleData@@PAV1@@@H@Z
_TEXT	SEGMENT
$T2 = -16						; size = 4
__$EHRec$ = -12						; size = 12
_pPrev$1$ = 8						; size = 4
_p_lstStyleDataList$ = 8				; size = 4
$T3 = 12						; size = 4
_p_bDefaultData$ = 12					; size = 4
?CopyStyleDataListTo@CStyleDataManager@@QAEHAAV?$CList@PAVCStyleData@@PAV1@@@H@Z PROC ; CStyleDataManager::CopyStyleDataListTo, COMDAT
; _this$ = ecx

; 225  : {

  00000	55		 push	 ebp
  00001	8b ec		 mov	 ebp, esp
  00003	6a ff		 push	 -1
  00005	68 00 00 00 00	 push	 __ehhandler$?CopyStyleDataListTo@CStyleDataManager@@QAEHAAV?$CList@PAVCStyleData@@PAV1@@@H@Z
  0000a	64 a1 00 00 00
	00		 mov	 eax, DWORD PTR fs:0
  00010	50		 push	 eax
  00011	51		 push	 ecx
  00012	53		 push	 ebx
  00013	56		 push	 esi
  00014	57		 push	 edi
  00015	a1 00 00 00 00	 mov	 eax, DWORD PTR ___security_cookie
  0001a	33 c5		 xor	 eax, ebp
  0001c	50		 push	 eax
  0001d	8d 45 f4	 lea	 eax, DWORD PTR __$EHRec$[ebp]
  00020	64 a3 00 00 00
	00		 mov	 DWORD PTR fs:0, eax

; 226  : 	CList<CStyleData*, CStyleData*> *pStyleDataList = NULL;
; 227  : 	if( p_bDefaultData) pStyleDataList = &m_lstStyleDefault;
; 228  : 	else pStyleDataList = &m_lstStyleUser;
; 229  : 	
; 230  : 	CStyleData *pStyleData = NULL;
; 231  : 	POSITION psnStyle = pStyleDataList->GetHeadPosition();

  00026	83 7d 0c 00	 cmp	 DWORD PTR _p_bDefaultData$[ebp], 0
  0002a	8b 1d 04 00 00
	00		 mov	 ebx, DWORD PTR ?m_lstStyleDefault@CStyleDataManager@@1V?$CList@PAVCStyleData@@PAV1@@@A+4
  00030	0f 44 1d 04 00
	00 00		 cmove	 ebx, DWORD PTR ?m_lstStyleUser@CStyleDataManager@@1V?$CList@PAVCStyleData@@PAV1@@@A+4

; 232  : 	while( psnStyle)

  00037	85 db		 test	 ebx, ebx
  00039	0f 84 bf 00 00
	00		 je	 $LN40@CopyStyleD
  0003f	8b 75 08	 mov	 esi, DWORD PTR _p_lstStyleDataList$[ebp]
$LL2@CopyStyleD:

; 233  : 	{
; 234  : 		pStyleData = pStyleDataList->GetNext( psnStyle);

  00042	8b 7b 08	 mov	 edi, DWORD PTR [ebx+8]
; File C:\Program Files (x86)\Microsoft Visual Studio\2019\Community\VC\Tools\MSVC\14.29.30133\atlmfc\include\afxtempl.h

; 813  : 		rPosition = (POSITION) pNode->pNext;

  00045	8b 1b		 mov	 ebx, DWORD PTR [ebx]
; File D:\git\src\IBK\IBK_DRFN\ProjSrc\SrcChartEx\ChartAddIn\ChartEnvSetupDlgAddIn\ChartEnvSetupDlgAddIn\StyleDataManager.cpp

; 235  : 		p_lstStyleDataList.AddTail( new CStyleData( *pStyleData));

  00047	68 e8 00 00 00	 push	 232			; 000000e8H
  0004c	e8 00 00 00 00	 call	 ??2@YAPAXI@Z		; operator new
  00051	83 c4 04	 add	 esp, 4
  00054	89 45 f0	 mov	 DWORD PTR $T2[ebp], eax
  00057	c7 45 fc 00 00
	00 00		 mov	 DWORD PTR __$EHRec$[ebp+8], 0
  0005e	85 c0		 test	 eax, eax
  00060	74 0d		 je	 SHORT $LN7@CopyStyleD
  00062	57		 push	 edi
  00063	8b c8		 mov	 ecx, eax
  00065	e8 00 00 00 00	 call	 ??0CStyleData@@QAE@ABV0@@Z ; CStyleData::CStyleData
  0006a	89 45 0c	 mov	 DWORD PTR $T3[ebp], eax
  0006d	eb 07		 jmp	 SHORT $LN8@CopyStyleD
$LN7@CopyStyleD:
  0006f	c7 45 0c 00 00
	00 00		 mov	 DWORD PTR $T3[ebp], 0
$LN8@CopyStyleD:
; File C:\Program Files (x86)\Microsoft Visual Studio\2019\Community\VC\Tools\MSVC\14.29.30133\atlmfc\include\afxtempl.h

; 902  : 	if (m_pNodeFree == NULL)

  00076	8b 56 10	 mov	 edx, DWORD PTR [esi+16]

; 968  : 	CNode* pNewNode = NewNode(m_pNodeTail, NULL);

  00079	8b 46 08	 mov	 eax, DWORD PTR [esi+8]
; File D:\git\src\IBK\IBK_DRFN\ProjSrc\SrcChartEx\ChartAddIn\ChartEnvSetupDlgAddIn\ChartEnvSetupDlgAddIn\StyleDataManager.cpp

; 235  : 		p_lstStyleDataList.AddTail( new CStyleData( *pStyleData));

  0007c	c7 45 fc ff ff
	ff ff		 mov	 DWORD PTR __$EHRec$[ebp+8], -1
; File C:\Program Files (x86)\Microsoft Visual Studio\2019\Community\VC\Tools\MSVC\14.29.30133\atlmfc\include\afxtempl.h

; 968  : 	CNode* pNewNode = NewNode(m_pNodeTail, NULL);

  00083	89 45 08	 mov	 DWORD PTR _pPrev$1$[ebp], eax

; 902  : 	if (m_pNodeFree == NULL)

  00086	85 d2		 test	 edx, edx
  00088	75 41		 jne	 SHORT $LN38@CopyStyleD

; 903  : 	{
; 904  : 		// add another block
; 905  : 		CPlex* pNewBlock = CPlex::Create(m_pBlocks, m_nBlockSize,

  0008a	6a 0c		 push	 12			; 0000000cH
  0008c	ff 76 18	 push	 DWORD PTR [esi+24]
  0008f	8d 46 14	 lea	 eax, DWORD PTR [esi+20]
  00092	50		 push	 eax
  00093	e8 00 00 00 00	 call	 ?Create@CPlex@@SGPAU1@AAPAU1@II@Z ; CPlex::Create

; 906  : 				 sizeof(CNode));
; 907  : 
; 908  : 		// chain them into free list
; 909  : 		CNode* pNode = (CNode*) pNewBlock->data();
; 910  : 		// free in reverse order to make it easier to debug
; 911  : 		pNode += m_nBlockSize - 1;

  00098	8b 56 18	 mov	 edx, DWORD PTR [esi+24]
  0009b	83 c0 08	 add	 eax, 8
  0009e	8d 0c 52	 lea	 ecx, DWORD PTR [edx+edx*2]
  000a1	8d 04 88	 lea	 eax, DWORD PTR [eax+ecx*4]

; 912  : 		for (INT_PTR i = m_nBlockSize-1; i >= 0; i--, pNode--)

  000a4	8d 7a ff	 lea	 edi, DWORD PTR [edx-1]
  000a7	83 c0 f4	 add	 eax, -12		; fffffff4H
  000aa	85 ff		 test	 edi, edi
  000ac	78 16		 js	 SHORT $LN39@CopyStyleD
  000ae	66 90		 npad	 2
$LL19@CopyStyleD:

; 913  : 		{
; 914  : 			pNode->pNext = m_pNodeFree;

  000b0	8b 4e 10	 mov	 ecx, DWORD PTR [esi+16]
  000b3	8b d0		 mov	 edx, eax
  000b5	89 08		 mov	 DWORD PTR [eax], ecx

; 915  : 			m_pNodeFree = pNode;

  000b7	89 46 10	 mov	 DWORD PTR [esi+16], eax
  000ba	83 e8 0c	 sub	 eax, 12			; 0000000cH
  000bd	83 ef 01	 sub	 edi, 1
  000c0	79 ee		 jns	 SHORT $LL19@CopyStyleD
  000c2	eb 03		 jmp	 SHORT $LN22@CopyStyleD
$LN39@CopyStyleD:
  000c4	8b 56 10	 mov	 edx, DWORD PTR [esi+16]
$LN22@CopyStyleD:

; 918  : 	ENSURE(m_pNodeFree != NULL);  // we must have something

  000c7	85 d2		 test	 edx, edx
  000c9	74 4c		 je	 SHORT $LN30@CopyStyleD
$LN38@CopyStyleD:

; 919  : 
; 920  : 	CList::CNode* pNode = m_pNodeFree;
; 921  : 	m_pNodeFree = m_pNodeFree->pNext;

  000cb	8b 02		 mov	 eax, DWORD PTR [edx]
  000cd	89 46 10	 mov	 DWORD PTR [esi+16], eax

; 922  : 	pNode->pPrev = pPrev;

  000d0	8b 45 08	 mov	 eax, DWORD PTR _pPrev$1$[ebp]
  000d3	89 42 04	 mov	 DWORD PTR [edx+4], eax

; 969  : 	pNewNode->data = newElement;

  000d6	8b 45 0c	 mov	 eax, DWORD PTR $T3[ebp]

; 923  : 	pNode->pNext = pNext;

  000d9	c7 02 00 00 00
	00		 mov	 DWORD PTR [edx], 0

; 924  : 	m_nCount++;

  000df	ff 46 0c	 inc	 DWORD PTR [esi+12]

; 969  : 	pNewNode->data = newElement;

  000e2	89 42 08	 mov	 DWORD PTR [edx+8], eax

; 970  : 	if (m_pNodeTail != NULL)

  000e5	8b 46 08	 mov	 eax, DWORD PTR [esi+8]
  000e8	85 c0		 test	 eax, eax
  000ea	74 04		 je	 SHORT $LN13@CopyStyleD

; 971  : 		m_pNodeTail->pNext = pNewNode;

  000ec	89 10		 mov	 DWORD PTR [eax], edx
  000ee	eb 03		 jmp	 SHORT $LN14@CopyStyleD
$LN13@CopyStyleD:

; 972  : 	else
; 973  : 		m_pNodeHead = pNewNode;

  000f0	89 56 04	 mov	 DWORD PTR [esi+4], edx
$LN14@CopyStyleD:

; 974  : 	m_pNodeTail = pNewNode;

  000f3	89 56 08	 mov	 DWORD PTR [esi+8], edx
; File D:\git\src\IBK\IBK_DRFN\ProjSrc\SrcChartEx\ChartAddIn\ChartEnvSetupDlgAddIn\ChartEnvSetupDlgAddIn\StyleDataManager.cpp

; 232  : 	while( psnStyle)

  000f6	85 db		 test	 ebx, ebx
  000f8	0f 85 44 ff ff
	ff		 jne	 $LL2@CopyStyleD
$LN40@CopyStyleD:

; 236  : 	}
; 237  : 	return TRUE;

  000fe	b8 01 00 00 00	 mov	 eax, 1

; 238  : }

  00103	8b 4d f4	 mov	 ecx, DWORD PTR __$EHRec$[ebp]
  00106	64 89 0d 00 00
	00 00		 mov	 DWORD PTR fs:0, ecx
  0010d	59		 pop	 ecx
  0010e	5f		 pop	 edi
  0010f	5e		 pop	 esi
  00110	5b		 pop	 ebx
  00111	8b e5		 mov	 esp, ebp
  00113	5d		 pop	 ebp
  00114	c2 08 00	 ret	 8
$LN30@CopyStyleD:
; File C:\Program Files (x86)\Microsoft Visual Studio\2019\Community\VC\Tools\MSVC\14.29.30133\atlmfc\include\afxtempl.h

; 918  : 	ENSURE(m_pNodeFree != NULL);  // we must have something

  00117	e8 00 00 00 00	 call	 ?AfxThrowInvalidArgException@@YGXXZ ; AfxThrowInvalidArgException
$LN42@CopyStyleD:
  0011c	cc		 int	 3
_TEXT	ENDS
;	COMDAT text$x
text$x	SEGMENT
__unwindfunclet$?CopyStyleDataListTo@CStyleDataManager@@QAEHAAV?$CList@PAVCStyleData@@PAV1@@@H@Z$0:
  00000	68 e8 00 00 00	 push	 232			; 000000e8H
  00005	8b 45 f0	 mov	 eax, DWORD PTR $T2[ebp]
  00008	50		 push	 eax
  00009	e8 00 00 00 00	 call	 ??3@YAXPAXI@Z		; operator delete
  0000e	83 c4 08	 add	 esp, 8
  00011	c3		 ret	 0
  00012	cc		 int	 3
  00013	cc		 int	 3
  00014	cc		 int	 3
  00015	cc		 int	 3
  00016	cc		 int	 3
__ehhandler$?CopyStyleDataListTo@CStyleDataManager@@QAEHAAV?$CList@PAVCStyleData@@PAV1@@@H@Z:
  00017	90		 npad	 1
  00018	90		 npad	 1
  00019	8b 54 24 08	 mov	 edx, DWORD PTR [esp+8]
  0001d	8d 42 0c	 lea	 eax, DWORD PTR [edx+12]
  00020	8b 4a ec	 mov	 ecx, DWORD PTR [edx-20]
  00023	33 c8		 xor	 ecx, eax
  00025	e8 00 00 00 00	 call	 @__security_check_cookie@4
  0002a	b8 00 00 00 00	 mov	 eax, OFFSET __ehfuncinfo$?CopyStyleDataListTo@CStyleDataManager@@QAEHAAV?$CList@PAVCStyleData@@PAV1@@@H@Z
  0002f	e9 00 00 00 00	 jmp	 ___CxxFrameHandler3
text$x	ENDS
?CopyStyleDataListTo@CStyleDataManager@@QAEHAAV?$CList@PAVCStyleData@@PAV1@@@H@Z ENDP ; CStyleDataManager::CopyStyleDataListTo
; Function compile flags: /Ogtp
; File D:\git\src\IBK\IBK_DRFN\ProjSrc\SrcChartEx\ChartAddIn\ChartEnvSetupDlgAddIn\ChartEnvSetupDlgAddIn\StyleDataManager.cpp
; File C:\Program Files (x86)\Microsoft Visual Studio\2019\Community\VC\Tools\MSVC\14.29.30133\atlmfc\include\afxtempl.h
; File D:\git\src\IBK\IBK_DRFN\ProjSrc\SrcChartEx\ChartAddIn\ChartEnvSetupDlgAddIn\ChartEnvSetupDlgAddIn\StyleDataManager.cpp
; File C:\Program Files (x86)\Microsoft Visual Studio\2019\Community\VC\Tools\MSVC\14.29.30133\atlmfc\include\cstringt.h
; File D:\git\src\IBK\IBK_DRFN\ProjSrc\SrcChartEx\ChartAddIn\ChartEnvSetupDlgAddIn\ChartEnvSetupDlgAddIn\StyleDataManager.cpp
; File C:\Program Files (x86)\Microsoft Visual Studio\2019\Community\VC\Tools\MSVC\14.29.30133\atlmfc\include\cstringt.h
; File D:\git\src\IBK\IBK_DRFN\ProjSrc\SrcChartEx\ChartAddIn\ChartEnvSetupDlgAddIn\ChartEnvSetupDlgAddIn\StyleDataManager.cpp
; File C:\Program Files (x86)\Microsoft Visual Studio\2019\Community\VC\Tools\MSVC\14.29.30133\atlmfc\include\cstringt.h
; File D:\git\src\IBK\IBK_DRFN\ProjSrc\SrcChartEx\ChartAddIn\ChartEnvSetupDlgAddIn\ChartEnvSetupDlgAddIn\StyleDataManager.cpp
;	COMDAT ?RemoveStyleData@CStyleDataManager@@QAEHPBDH@Z
_TEXT	SEGMENT
_curPos$1$ = -16					; size = 4
__$EHRec$ = -12						; size = 12
_p_szStyleName$ = 8					; size = 4
$T2 = 12						; size = 4
_p_bDefaultData$ = 12					; size = 4
?RemoveStyleData@CStyleDataManager@@QAEHPBDH@Z PROC	; CStyleDataManager::RemoveStyleData, COMDAT
; _this$ = ecx

; 204  : {

  00000	55		 push	 ebp
  00001	8b ec		 mov	 ebp, esp
  00003	6a ff		 push	 -1
  00005	68 00 00 00 00	 push	 __ehhandler$?RemoveStyleData@CStyleDataManager@@QAEHPBDH@Z
  0000a	64 a1 00 00 00
	00		 mov	 eax, DWORD PTR fs:0
  00010	50		 push	 eax
  00011	51		 push	 ecx
  00012	53		 push	 ebx
  00013	56		 push	 esi
  00014	57		 push	 edi
  00015	a1 00 00 00 00	 mov	 eax, DWORD PTR ___security_cookie
  0001a	33 c5		 xor	 eax, ebp
  0001c	50		 push	 eax
  0001d	8d 45 f4	 lea	 eax, DWORD PTR __$EHRec$[ebp]
  00020	64 a3 00 00 00
	00		 mov	 DWORD PTR fs:0, eax

; 205  : 	if( p_bDefaultData) return FALSE;

  00026	83 7d 0c 00	 cmp	 DWORD PTR _p_bDefaultData$[ebp], 0
  0002a	75 49		 jne	 SHORT $LN3@RemoveStyl

; 206  : 
; 207  : 	POSITION pos = m_lstStyleUser.GetHeadPosition();

  0002c	8b 3d 04 00 00
	00		 mov	 edi, DWORD PTR ?m_lstStyleUser@CStyleDataManager@@1V?$CList@PAVCStyleData@@PAV1@@@A+4

; 208  : 	while(pos != NULL)

  00032	85 ff		 test	 edi, edi
  00034	74 3f		 je	 SHORT $LN3@RemoveStyl
$LL2@RemoveStyl:

; 209  : 	{
; 210  : 		POSITION curPos = pos;
; 211  : 		CStyleData* pStyleData = m_lstStyleUser.GetNext(pos);

  00036	8b 5f 08	 mov	 ebx, DWORD PTR [edi+8]

; 213  : 		if(pStyleData->GetStyleName() == p_szStyleName)

  00039	8d 45 0c	 lea	 eax, DWORD PTR $T2[ebp]
  0003c	89 7d f0	 mov	 DWORD PTR _curPos$1$[ebp], edi
  0003f	8b cb		 mov	 ecx, ebx
; File C:\Program Files (x86)\Microsoft Visual Studio\2019\Community\VC\Tools\MSVC\14.29.30133\atlmfc\include\afxtempl.h

; 813  : 		rPosition = (POSITION) pNode->pNext;

  00041	8b 3f		 mov	 edi, DWORD PTR [edi]
; File D:\git\src\IBK\IBK_DRFN\ProjSrc\SrcChartEx\ChartAddIn\ChartEnvSetupDlgAddIn\ChartEnvSetupDlgAddIn\StyleDataManager.cpp

; 213  : 		if(pStyleData->GetStyleName() == p_szStyleName)

  00043	50		 push	 eax
  00044	e8 00 00 00 00	 call	 ?GetStyleName@CStyleData@@QBE?AV?$CStringT@DV?$StrTraitMFC_DLL@DV?$ChTraitsCRT@D@ATL@@@@@ATL@@XZ ; CStyleData::GetStyleName
; File C:\Program Files (x86)\Microsoft Visual Studio\2019\Community\VC\Tools\MSVC\14.29.30133\atlmfc\include\cstringt.h

; 2486 : 		return(str1.Compare(psz2) == 0);

  00049	ff 75 08	 push	 DWORD PTR _p_szStyleName$[ebp]
  0004c	8b c8		 mov	 ecx, eax
; File D:\git\src\IBK\IBK_DRFN\ProjSrc\SrcChartEx\ChartAddIn\ChartEnvSetupDlgAddIn\ChartEnvSetupDlgAddIn\StyleDataManager.cpp

; 213  : 		if(pStyleData->GetStyleName() == p_szStyleName)

  0004e	c7 45 fc 00 00
	00 00		 mov	 DWORD PTR __$EHRec$[ebp+8], 0
; File C:\Program Files (x86)\Microsoft Visual Studio\2019\Community\VC\Tools\MSVC\14.29.30133\atlmfc\include\cstringt.h

; 2486 : 		return(str1.Compare(psz2) == 0);

  00055	ff 15 00 00 00
	00		 call	 DWORD PTR __imp_?Compare@?$CStringT@DV?$StrTraitMFC_DLL@DV?$ChTraitsCRT@D@ATL@@@@@ATL@@QBEHPBD@Z
; File D:\git\src\IBK\IBK_DRFN\ProjSrc\SrcChartEx\ChartAddIn\ChartEnvSetupDlgAddIn\ChartEnvSetupDlgAddIn\StyleDataManager.cpp

; 213  : 		if(pStyleData->GetStyleName() == p_szStyleName)

  0005b	8d 4d 0c	 lea	 ecx, DWORD PTR $T2[ebp]
  0005e	c7 45 fc ff ff
	ff ff		 mov	 DWORD PTR __$EHRec$[ebp+8], -1
; File C:\Program Files (x86)\Microsoft Visual Studio\2019\Community\VC\Tools\MSVC\14.29.30133\atlmfc\include\cstringt.h

; 2486 : 		return(str1.Compare(psz2) == 0);

  00065	8b f0		 mov	 esi, eax
; File D:\git\src\IBK\IBK_DRFN\ProjSrc\SrcChartEx\ChartAddIn\ChartEnvSetupDlgAddIn\ChartEnvSetupDlgAddIn\StyleDataManager.cpp

; 213  : 		if(pStyleData->GetStyleName() == p_szStyleName)

  00067	ff 15 00 00 00
	00		 call	 DWORD PTR __imp_??1?$CStringT@DV?$StrTraitMFC_DLL@DV?$ChTraitsCRT@D@ATL@@@@@ATL@@QAE@XZ
  0006d	85 f6		 test	 esi, esi
  0006f	74 1a		 je	 SHORT $LN24@RemoveStyl

; 208  : 	while(pos != NULL)

  00071	85 ff		 test	 edi, edi
  00073	75 c1		 jne	 SHORT $LL2@RemoveStyl
$LN3@RemoveStyl:

; 218  : 		}
; 219  : 	}
; 220  : 
; 221  : 	return FALSE;

  00075	33 c0		 xor	 eax, eax

; 222  : }

  00077	8b 4d f4	 mov	 ecx, DWORD PTR __$EHRec$[ebp]
  0007a	64 89 0d 00 00
	00 00		 mov	 DWORD PTR fs:0, ecx
  00081	59		 pop	 ecx
  00082	5f		 pop	 edi
  00083	5e		 pop	 esi
  00084	5b		 pop	 ebx
  00085	8b e5		 mov	 esp, ebp
  00087	5d		 pop	 ebp
  00088	c2 08 00	 ret	 8
$LN24@RemoveStyl:

; 214  : 		{
; 215  : 			m_lstStyleUser.RemoveAt(curPos);

  0008b	ff 75 f0	 push	 DWORD PTR _curPos$1$[ebp]
  0008e	b9 00 00 00 00	 mov	 ecx, OFFSET ?m_lstStyleUser@CStyleDataManager@@1V?$CList@PAVCStyleData@@PAV1@@@A ; CStyleDataManager::m_lstStyleUser
  00093	e8 00 00 00 00	 call	 ?RemoveAt@?$CList@PAVCStyleData@@PAV1@@@QAEXPAU__POSITION@@@Z ; CList<CStyleData *,CStyleData *>::RemoveAt

; 216  : 			delete pStyleData;

  00098	85 db		 test	 ebx, ebx
  0009a	74 3c		 je	 SHORT $LN15@RemoveStyl
  0009c	8d 8b 9c 00 00
	00		 lea	 ecx, DWORD PTR [ebx+156]
  000a2	e8 00 00 00 00	 call	 ??1?$CList@V?$CStringT@DV?$StrTraitMFC_DLL@DV?$ChTraitsCRT@D@ATL@@@@@ATL@@V12@@@UAE@XZ ; CList<ATL::CStringT<char,StrTraitMFC_DLL<char,ATL::ChTraitsCRT<char> > >,ATL::CStringT<char,StrTraitMFC_DLL<char,ATL::ChTraitsCRT<char> > > >::~CList<ATL::CStringT<char,StrTraitMFC_DLL<char,ATL::ChTraitsCRT<char> > >,ATL::CStringT<char,StrTraitMFC_DLL<char,ATL::ChTraitsCRT<char> > > >
  000a7	8d 8b 80 00 00
	00		 lea	 ecx, DWORD PTR [ebx+128]
  000ad	e8 00 00 00 00	 call	 ??1?$CList@V?$CStringT@DV?$StrTraitMFC_DLL@DV?$ChTraitsCRT@D@ATL@@@@@ATL@@V12@@@UAE@XZ ; CList<ATL::CStringT<char,StrTraitMFC_DLL<char,ATL::ChTraitsCRT<char> > >,ATL::CStringT<char,StrTraitMFC_DLL<char,ATL::ChTraitsCRT<char> > > >::~CList<ATL::CStringT<char,StrTraitMFC_DLL<char,ATL::ChTraitsCRT<char> > >,ATL::CStringT<char,StrTraitMFC_DLL<char,ATL::ChTraitsCRT<char> > > >
  000b2	8d 4b 38	 lea	 ecx, DWORD PTR [ebx+56]
  000b5	e8 00 00 00 00	 call	 ??1CDWordArray@@UAE@XZ	; CDWordArray::~CDWordArray
  000ba	8d 4b 24	 lea	 ecx, DWORD PTR [ebx+36]
  000bd	e8 00 00 00 00	 call	 ??1CDWordArray@@UAE@XZ	; CDWordArray::~CDWordArray
  000c2	8b cb		 mov	 ecx, ebx
  000c4	ff 15 00 00 00
	00		 call	 DWORD PTR __imp_??1?$CStringT@DV?$StrTraitMFC_DLL@DV?$ChTraitsCRT@D@ATL@@@@@ATL@@QAE@XZ
  000ca	68 e8 00 00 00	 push	 232			; 000000e8H
  000cf	53		 push	 ebx
  000d0	e8 00 00 00 00	 call	 ??3@YAXPAXI@Z		; operator delete
  000d5	83 c4 08	 add	 esp, 8
$LN15@RemoveStyl:

; 217  : 			return TRUE;

  000d8	b8 01 00 00 00	 mov	 eax, 1

; 222  : }

  000dd	8b 4d f4	 mov	 ecx, DWORD PTR __$EHRec$[ebp]
  000e0	64 89 0d 00 00
	00 00		 mov	 DWORD PTR fs:0, ecx
  000e7	59		 pop	 ecx
  000e8	5f		 pop	 edi
  000e9	5e		 pop	 esi
  000ea	5b		 pop	 ebx
  000eb	8b e5		 mov	 esp, ebp
  000ed	5d		 pop	 ebp
  000ee	c2 08 00	 ret	 8
_TEXT	ENDS
;	COMDAT text$x
text$x	SEGMENT
__unwindfunclet$?RemoveStyleData@CStyleDataManager@@QAEHPBDH@Z$0:
  00000	8d 4d 0c	 lea	 ecx, DWORD PTR $T2[ebp]
  00003	ff 25 00 00 00
	00		 jmp	 DWORD PTR __imp_??1?$CStringT@DV?$StrTraitMFC_DLL@DV?$ChTraitsCRT@D@ATL@@@@@ATL@@QAE@XZ
  00009	cc		 int	 3
  0000a	cc		 int	 3
  0000b	cc		 int	 3
  0000c	cc		 int	 3
  0000d	cc		 int	 3
__ehhandler$?RemoveStyleData@CStyleDataManager@@QAEHPBDH@Z:
  0000e	90		 npad	 1
  0000f	90		 npad	 1
  00010	8b 54 24 08	 mov	 edx, DWORD PTR [esp+8]
  00014	8d 42 0c	 lea	 eax, DWORD PTR [edx+12]
  00017	8b 4a ec	 mov	 ecx, DWORD PTR [edx-20]
  0001a	33 c8		 xor	 ecx, eax
  0001c	e8 00 00 00 00	 call	 @__security_check_cookie@4
  00021	b8 00 00 00 00	 mov	 eax, OFFSET __ehfuncinfo$?RemoveStyleData@CStyleDataManager@@QAEHPBDH@Z
  00026	e9 00 00 00 00	 jmp	 ___CxxFrameHandler3
text$x	ENDS
?RemoveStyleData@CStyleDataManager@@QAEHPBDH@Z ENDP	; CStyleDataManager::RemoveStyleData
; Function compile flags: /Ogtp
; File D:\git\src\IBK\IBK_DRFN\ProjSrc\SrcChartEx\ChartAddIn\ChartEnvSetupDlgAddIn\ChartEnvSetupDlgAddIn\StyleDataManager.cpp
; File D:\git\src\IBK\IBK_DRFN\ProjSrc\SrcChartEx\ChartAddIn\ChartEnvSetupDlgAddIn\Include_AddIn_135914\I135914\_IString.h
; File D:\git\src\IBK\IBK_DRFN\ProjSrc\SrcChartEx\ChartAddIn\ChartEnvSetupDlgAddIn\ChartEnvSetupDlgAddIn\StyleDataManager.cpp
; File D:\git\src\IBK\IBK_DRFN\ProjSrc\SrcChartEx\ChartAddIn\ChartEnvSetupDlgAddIn\Include_AddIn_135914\I135914\_IString.h
; File D:\git\src\IBK\IBK_DRFN\ProjSrc\SrcChartEx\ChartAddIn\ChartEnvSetupDlgAddIn\ChartEnvSetupDlgAddIn\StyleDataManager.cpp
;	COMDAT ?WriteStyleFile@CStyleDataManager@@QAEHPAUIChartOCX135914@@@Z
_TEXT	SEGMENT
$T2 = -124						; size = 104
_szPath$ = -20						; size = 8
__$EHRec$ = -12						; size = 12
_p_pIChartOCX$ = 8					; size = 4
?WriteStyleFile@CStyleDataManager@@QAEHPAUIChartOCX135914@@@Z PROC ; CStyleDataManager::WriteStyleFile, COMDAT
; _this$ = ecx

; 198  : {

  00000	55		 push	 ebp
  00001	8b ec		 mov	 ebp, esp
  00003	6a ff		 push	 -1
  00005	68 00 00 00 00	 push	 __ehhandler$?WriteStyleFile@CStyleDataManager@@QAEHPAUIChartOCX135914@@@Z
  0000a	64 a1 00 00 00
	00		 mov	 eax, DWORD PTR fs:0
  00010	50		 push	 eax
  00011	83 ec 70	 sub	 esp, 112		; 00000070H
  00014	56		 push	 esi
  00015	57		 push	 edi
  00016	a1 00 00 00 00	 mov	 eax, DWORD PTR ___security_cookie
  0001b	33 c5		 xor	 eax, ebp
  0001d	50		 push	 eax
  0001e	8d 45 f4	 lea	 eax, DWORD PTR __$EHRec$[ebp]
  00021	64 a3 00 00 00
	00		 mov	 DWORD PTR fs:0, eax

; 199  : 	ILPCSTR szPath = p_pIChartOCX->GetUserFilePathString();

  00027	8b 4d 08	 mov	 ecx, DWORD PTR _p_pIChartOCX$[ebp]
  0002a	8b 01		 mov	 eax, DWORD PTR [ecx]
  0002c	ff 50 58	 call	 DWORD PTR [eax+88]
; File D:\git\src\IBK\IBK_DRFN\ProjSrc\SrcChartEx\ChartAddIn\ChartEnvSetupDlgAddIn\Include_AddIn_135914\I135914\_IString.h

; 39   : 		m_pIStrData = p_pIString;	// Do not AddRef(). Because It must be Return Value.

  0002f	8b f0		 mov	 esi, eax
  00031	89 75 f0	 mov	 DWORD PTR _szPath$[ebp+4], esi

; 40   : 		if( m_pIStrData) m_szData = m_pIStrData->GetData();

  00034	85 f6		 test	 esi, esi
  00036	74 0b		 je	 SHORT $LN6@WriteStyle
  00038	8b 16		 mov	 edx, DWORD PTR [esi]
  0003a	8b ce		 mov	 ecx, esi
  0003c	ff 52 10	 call	 DWORD PTR [edx+16]
  0003f	8b f8		 mov	 edi, eax
  00041	eb 02		 jmp	 SHORT $LN15@WriteStyle
$LN6@WriteStyle:

; 41   : 		else m_szData = NULL;

  00043	33 ff		 xor	 edi, edi
$LN15@WriteStyle:
; File D:\git\src\IBK\IBK_DRFN\ProjSrc\SrcChartEx\ChartAddIn\ChartEnvSetupDlgAddIn\ChartEnvSetupDlgAddIn\StyleDataManager.cpp

; 199  : 	ILPCSTR szPath = p_pIChartOCX->GetUserFilePathString();

  00045	89 7d ec	 mov	 DWORD PTR _szPath$[ebp], edi

; 200  : 	return CStyleFileBuilder().WriteUserStyleFile( szPath, m_lstStyleDefault.GetCount(), m_lstStyleUser);

  00048	8d 4d 84	 lea	 ecx, DWORD PTR $T2[ebp]
  0004b	c7 45 fc 00 00
	00 00		 mov	 DWORD PTR __$EHRec$[ebp+8], 0
  00052	e8 00 00 00 00	 call	 ??0CStyleFileBuilder@@QAE@XZ ; CStyleFileBuilder::CStyleFileBuilder
  00057	68 00 00 00 00	 push	 OFFSET ?m_lstStyleUser@CStyleDataManager@@1V?$CList@PAVCStyleData@@PAV1@@@A ; CStyleDataManager::m_lstStyleUser
  0005c	ff 35 0c 00 00
	00		 push	 DWORD PTR ?m_lstStyleDefault@CStyleDataManager@@1V?$CList@PAVCStyleData@@PAV1@@@A+12
  00062	8b c8		 mov	 ecx, eax
  00064	c6 45 fc 01	 mov	 BYTE PTR __$EHRec$[ebp+8], 1
  00068	57		 push	 edi
  00069	e8 00 00 00 00	 call	 ?WriteUserStyleFile@CStyleFileBuilder@@QAE_NPBDHAAV?$CList@PAVCStyleData@@PAV1@@@@Z ; CStyleFileBuilder::WriteUserStyleFile
  0006e	8d 4d 84	 lea	 ecx, DWORD PTR $T2[ebp]
  00071	0f b6 f8	 movzx	 edi, al
  00074	e8 00 00 00 00	 call	 ??1CStyleFileBuilder@@QAE@XZ
; File D:\git\src\IBK\IBK_DRFN\ProjSrc\SrcChartEx\ChartAddIn\ChartEnvSetupDlgAddIn\Include_AddIn_135914\I135914\_IString.h

; 44   : 	{

  00079	c7 45 fc 02 00
	00 00		 mov	 DWORD PTR __$EHRec$[ebp+8], 2

; 45   : 		if( m_pIStrData)

  00080	85 f6		 test	 esi, esi
  00082	74 06		 je	 SHORT $LN13@WriteStyle

; 46   : 		{
; 47   : 			m_pIStrData->Release();

  00084	8b 0e		 mov	 ecx, DWORD PTR [esi]
  00086	56		 push	 esi
  00087	ff 51 08	 call	 DWORD PTR [ecx+8]
$LN13@WriteStyle:
; File D:\git\src\IBK\IBK_DRFN\ProjSrc\SrcChartEx\ChartAddIn\ChartEnvSetupDlgAddIn\ChartEnvSetupDlgAddIn\StyleDataManager.cpp

; 201  : }

  0008a	8b c7		 mov	 eax, edi
  0008c	8b 4d f4	 mov	 ecx, DWORD PTR __$EHRec$[ebp]
  0008f	64 89 0d 00 00
	00 00		 mov	 DWORD PTR fs:0, ecx
  00096	59		 pop	 ecx
  00097	5f		 pop	 edi
  00098	5e		 pop	 esi
  00099	8b e5		 mov	 esp, ebp
  0009b	5d		 pop	 ebp
  0009c	c2 04 00	 ret	 4
_TEXT	ENDS
;	COMDAT text$x
text$x	SEGMENT
__unwindfunclet$?WriteStyleFile@CStyleDataManager@@QAEHPAUIChartOCX135914@@@Z$0:
  00000	8d 4d ec	 lea	 ecx, DWORD PTR _szPath$[ebp]
  00003	e9 00 00 00 00	 jmp	 ??1ILPCSTR135914@@QAE@XZ ; ILPCSTR135914::~ILPCSTR135914
__unwindfunclet$?WriteStyleFile@CStyleDataManager@@QAEHPAUIChartOCX135914@@@Z$1:
  00008	8d 4d 84	 lea	 ecx, DWORD PTR $T2[ebp]
  0000b	e9 00 00 00 00	 jmp	 ??1CStyleFileBuilder@@QAE@XZ
  00010	cc		 int	 3
  00011	cc		 int	 3
  00012	cc		 int	 3
  00013	cc		 int	 3
  00014	cc		 int	 3
__ehhandler$?WriteStyleFile@CStyleDataManager@@QAEHPAUIChartOCX135914@@@Z:
  00015	90		 npad	 1
  00016	90		 npad	 1
  00017	8b 54 24 08	 mov	 edx, DWORD PTR [esp+8]
  0001b	8d 42 0c	 lea	 eax, DWORD PTR [edx+12]
  0001e	8b 4a 84	 mov	 ecx, DWORD PTR [edx-124]
  00021	33 c8		 xor	 ecx, eax
  00023	e8 00 00 00 00	 call	 @__security_check_cookie@4
  00028	b8 00 00 00 00	 mov	 eax, OFFSET __ehfuncinfo$?WriteStyleFile@CStyleDataManager@@QAEHPAUIChartOCX135914@@@Z
  0002d	e9 00 00 00 00	 jmp	 ___CxxFrameHandler3
text$x	ENDS
?WriteStyleFile@CStyleDataManager@@QAEHPAUIChartOCX135914@@@Z ENDP ; CStyleDataManager::WriteStyleFile
; Function compile flags: /Ogtp
; File D:\git\src\IBK\IBK_DRFN\ProjSrc\SrcChartEx\ChartAddIn\ChartEnvSetupDlgAddIn\ChartEnvSetupDlgAddIn\StyleDataManager.cpp
;	COMDAT ?GetDataCount@CStyleDataManager@@QAEHH@Z
_TEXT	SEGMENT
_p_bDefaultData$ = 8					; size = 4
?GetDataCount@CStyleDataManager@@QAEHH@Z PROC		; CStyleDataManager::GetDataCount, COMDAT
; _this$ = ecx

; 192  : {

  00000	55		 push	 ebp
  00001	8b ec		 mov	 ebp, esp

; 193  : 	if( p_bDefaultData) return m_lstStyleDefault.GetCount();

  00003	83 7d 08 00	 cmp	 DWORD PTR _p_bDefaultData$[ebp], 0
  00007	a1 0c 00 00 00	 mov	 eax, DWORD PTR ?m_lstStyleUser@CStyleDataManager@@1V?$CList@PAVCStyleData@@PAV1@@@A+12
  0000c	0f 45 05 0c 00
	00 00		 cmovne	 eax, DWORD PTR ?m_lstStyleDefault@CStyleDataManager@@1V?$CList@PAVCStyleData@@PAV1@@@A+12

; 194  : 	return m_lstStyleUser.GetCount();
; 195  : }

  00013	5d		 pop	 ebp
  00014	c2 04 00	 ret	 4
?GetDataCount@CStyleDataManager@@QAEHH@Z ENDP		; CStyleDataManager::GetDataCount
_TEXT	ENDS
; Function compile flags: /Ogtp
; File D:\git\src\IBK\IBK_DRFN\ProjSrc\SrcChartEx\ChartAddIn\ChartEnvSetupDlgAddIn\ChartEnvSetupDlgAddIn\StyleDataManager.cpp
; File D:\git\src\IBK\IBK_DRFN\ProjSrc\SrcChartEx\ChartAddIn\ChartEnvSetupDlgAddIn\Include_AddIn_135914\I135914\_IString.h
; File D:\git\src\IBK\IBK_DRFN\ProjSrc\SrcChartEx\ChartAddIn\ChartEnvSetupDlgAddIn\ChartEnvSetupDlgAddIn\StyleDataManager.cpp
; File D:\git\src\IBK\IBK_DRFN\ProjSrc\SrcChartEx\ChartAddIn\ChartEnvSetupDlgAddIn\Include_AddIn_135914\I135914\_IString.h
; File D:\git\src\IBK\IBK_DRFN\ProjSrc\SrcChartEx\ChartAddIn\ChartEnvSetupDlgAddIn\ChartEnvSetupDlgAddIn\StyleDataManager.cpp
; File D:\git\src\IBK\IBK_DRFN\ProjSrc\SrcChartEx\ChartAddIn\ChartEnvSetupDlgAddIn\Include_AddIn_135914\I135914\_IString.h
; File D:\git\src\IBK\IBK_DRFN\ProjSrc\SrcChartEx\ChartAddIn\ChartEnvSetupDlgAddIn\ChartEnvSetupDlgAddIn\StyleDataManager.cpp
; File D:\git\src\IBK\IBK_DRFN\ProjSrc\SrcChartEx\ChartAddIn\ChartEnvSetupDlgAddIn\Include_AddIn_135914\I135914\_IString.h
; File D:\git\src\IBK\IBK_DRFN\ProjSrc\SrcChartEx\ChartAddIn\ChartEnvSetupDlgAddIn\ChartEnvSetupDlgAddIn\StyleDataManager.cpp
; File D:\git\src\IBK\IBK_DRFN\ProjSrc\SrcChartEx\ChartAddIn\ChartEnvSetupDlgAddIn\Include_AddIn_135914\I135914\_IString.h
; File D:\git\src\IBK\IBK_DRFN\ProjSrc\SrcChartEx\ChartAddIn\ChartEnvSetupDlgAddIn\ChartEnvSetupDlgAddIn\StyleDataManager.cpp
;	COMDAT ?Initialize@CStyleDataManager@@QAEHPAUIChartOCX135914@@H@Z
_TEXT	SEGMENT
$T2 = -128						; size = 104
$T3 = -128						; size = 104
_szPath$ = -24						; size = 8
_szPath$4 = -24						; size = 8
_nStyleCount$ = -16					; size = 4
__$EHRec$ = -12						; size = 12
_p_pIChartOCX$ = 8					; size = 4
_p_bDefaultData$ = 12					; size = 4
?Initialize@CStyleDataManager@@QAEHPAUIChartOCX135914@@H@Z PROC ; CStyleDataManager::Initialize, COMDAT
; _this$ = ecx

; 169  : {

  00000	55		 push	 ebp
  00001	8b ec		 mov	 ebp, esp
  00003	6a ff		 push	 -1
  00005	68 00 00 00 00	 push	 __ehhandler$?Initialize@CStyleDataManager@@QAEHPAUIChartOCX135914@@H@Z
  0000a	64 a1 00 00 00
	00		 mov	 eax, DWORD PTR fs:0
  00010	50		 push	 eax
  00011	83 ec 74	 sub	 esp, 116		; 00000074H
  00014	53		 push	 ebx
  00015	56		 push	 esi
  00016	57		 push	 edi
  00017	a1 00 00 00 00	 mov	 eax, DWORD PTR ___security_cookie
  0001c	33 c5		 xor	 eax, ebp
  0001e	50		 push	 eax
  0001f	8d 45 f4	 lea	 eax, DWORD PTR __$EHRec$[ebp]
  00022	64 a3 00 00 00
	00		 mov	 DWORD PTR fs:0, eax

; 170  : 	// 1. Read Default
; 171  : 	// Init Default (for User)
; 172  : 	int nStyleCount = m_lstStyleDefault.GetCount();
; 173  : 	if( p_bDefaultData && 0 < nStyleCount) return nStyleCount;

  00028	83 7d 0c 00	 cmp	 DWORD PTR _p_bDefaultData$[ebp], 0
  0002c	a1 0c 00 00 00	 mov	 eax, DWORD PTR ?m_lstStyleDefault@CStyleDataManager@@1V?$CList@PAVCStyleData@@PAV1@@@A+12
  00031	8b 7d 08	 mov	 edi, DWORD PTR _p_pIChartOCX$[ebp]
  00034	89 45 f0	 mov	 DWORD PTR _nStyleCount$[ebp], eax
  00037	74 18		 je	 SHORT $LN2@Initialize
  00039	85 c0		 test	 eax, eax
  0003b	7e 1c		 jle	 SHORT $LN27@Initialize

; 189  : }

  0003d	8b 4d f4	 mov	 ecx, DWORD PTR __$EHRec$[ebp]
  00040	64 89 0d 00 00
	00 00		 mov	 DWORD PTR fs:0, ecx
  00047	59		 pop	 ecx
  00048	5f		 pop	 edi
  00049	5e		 pop	 esi
  0004a	5b		 pop	 ebx
  0004b	8b e5		 mov	 esp, ebp
  0004d	5d		 pop	 ebp
  0004e	c2 08 00	 ret	 8
$LN2@Initialize:

; 174  : 	if( nStyleCount <= 0)

  00051	85 c0		 test	 eax, eax
  00053	0f 8f 81 00 00
	00		 jg	 $LN4@Initialize
$LN27@Initialize:

; 176  : 		ILPCSTR szPath = p_pIChartOCX->GetDefaultPathString();

  00059	8b 07		 mov	 eax, DWORD PTR [edi]
  0005b	8b cf		 mov	 ecx, edi
  0005d	ff 50 64	 call	 DWORD PTR [eax+100]
; File D:\git\src\IBK\IBK_DRFN\ProjSrc\SrcChartEx\ChartAddIn\ChartEnvSetupDlgAddIn\Include_AddIn_135914\I135914\_IString.h

; 39   : 		m_pIStrData = p_pIString;	// Do not AddRef(). Because It must be Return Value.

  00060	8b f0		 mov	 esi, eax
  00062	89 75 ec	 mov	 DWORD PTR _szPath$4[ebp+4], esi

; 40   : 		if( m_pIStrData) m_szData = m_pIStrData->GetData();

  00065	85 f6		 test	 esi, esi
  00067	74 0b		 je	 SHORT $LN12@Initialize
  00069	8b 06		 mov	 eax, DWORD PTR [esi]
  0006b	8b ce		 mov	 ecx, esi
  0006d	ff 50 10	 call	 DWORD PTR [eax+16]
  00070	8b d8		 mov	 ebx, eax
  00072	eb 02		 jmp	 SHORT $LN31@Initialize
$LN12@Initialize:

; 41   : 		else m_szData = NULL;

  00074	33 db		 xor	 ebx, ebx
$LN31@Initialize:
; File D:\git\src\IBK\IBK_DRFN\ProjSrc\SrcChartEx\ChartAddIn\ChartEnvSetupDlgAddIn\ChartEnvSetupDlgAddIn\StyleDataManager.cpp

; 176  : 		ILPCSTR szPath = p_pIChartOCX->GetDefaultPathString();

  00076	89 5d e8	 mov	 DWORD PTR _szPath$4[ebp], ebx

; 177  : 		CStyleFileBuilder().ReadStyleFile_Default( szPath, nStyleCount, m_lstStyleDefault);

  00079	8d 4d 80	 lea	 ecx, DWORD PTR $T3[ebp]
  0007c	c7 45 fc 00 00
	00 00		 mov	 DWORD PTR __$EHRec$[ebp+8], 0
  00083	e8 00 00 00 00	 call	 ??0CStyleFileBuilder@@QAE@XZ ; CStyleFileBuilder::CStyleFileBuilder
  00088	68 00 00 00 00	 push	 OFFSET ?m_lstStyleDefault@CStyleDataManager@@1V?$CList@PAVCStyleData@@PAV1@@@A ; CStyleDataManager::m_lstStyleDefault
  0008d	8d 4d f0	 lea	 ecx, DWORD PTR _nStyleCount$[ebp]
  00090	c6 45 fc 01	 mov	 BYTE PTR __$EHRec$[ebp+8], 1
  00094	51		 push	 ecx
  00095	53		 push	 ebx
  00096	8b c8		 mov	 ecx, eax
  00098	e8 00 00 00 00	 call	 ?ReadStyleFile_Default@CStyleFileBuilder@@QAE_NPBDAAHAAV?$CList@PAVCStyleData@@PAV1@@@@Z ; CStyleFileBuilder::ReadStyleFile_Default
  0009d	8d 4d 80	 lea	 ecx, DWORD PTR $T3[ebp]
  000a0	e8 00 00 00 00	 call	 ??1CStyleFileBuilder@@QAE@XZ
; File D:\git\src\IBK\IBK_DRFN\ProjSrc\SrcChartEx\ChartAddIn\ChartEnvSetupDlgAddIn\Include_AddIn_135914\I135914\_IString.h

; 44   : 	{

  000a5	c7 45 fc 02 00
	00 00		 mov	 DWORD PTR __$EHRec$[ebp+8], 2

; 45   : 		if( m_pIStrData)

  000ac	85 f6		 test	 esi, esi
  000ae	74 06		 je	 SHORT $LN16@Initialize

; 46   : 		{
; 47   : 			m_pIStrData->Release();

  000b0	8b 06		 mov	 eax, DWORD PTR [esi]
  000b2	56		 push	 esi
  000b3	ff 50 08	 call	 DWORD PTR [eax+8]
$LN16@Initialize:
; File D:\git\src\IBK\IBK_DRFN\ProjSrc\SrcChartEx\ChartAddIn\ChartEnvSetupDlgAddIn\ChartEnvSetupDlgAddIn\StyleDataManager.cpp

; 179  : 	if( p_bDefaultData) return nStyleCount;

  000b6	83 7d 0c 00	 cmp	 DWORD PTR _p_bDefaultData$[ebp], 0
; File D:\git\src\IBK\IBK_DRFN\ProjSrc\SrcChartEx\ChartAddIn\ChartEnvSetupDlgAddIn\Include_AddIn_135914\I135914\_IString.h

; 51   : 	}

  000ba	c7 45 fc ff ff
	ff ff		 mov	 DWORD PTR __$EHRec$[ebp+8], -1
; File D:\git\src\IBK\IBK_DRFN\ProjSrc\SrcChartEx\ChartAddIn\ChartEnvSetupDlgAddIn\ChartEnvSetupDlgAddIn\StyleDataManager.cpp

; 179  : 	if( p_bDefaultData) return nStyleCount;

  000c1	74 17		 je	 SHORT $LN4@Initialize
  000c3	8b 45 f0	 mov	 eax, DWORD PTR _nStyleCount$[ebp]

; 189  : }

  000c6	8b 4d f4	 mov	 ecx, DWORD PTR __$EHRec$[ebp]
  000c9	64 89 0d 00 00
	00 00		 mov	 DWORD PTR fs:0, ecx
  000d0	59		 pop	 ecx
  000d1	5f		 pop	 edi
  000d2	5e		 pop	 esi
  000d3	5b		 pop	 ebx
  000d4	8b e5		 mov	 esp, ebp
  000d6	5d		 pop	 ebp
  000d7	c2 08 00	 ret	 8
$LN4@Initialize:

; 180  : 
; 181  : 	// 2. Read User
; 182  : 	// 2.0 Check already read?
; 183  : 	nStyleCount = m_lstStyleUser.GetCount();

  000da	a1 0c 00 00 00	 mov	 eax, DWORD PTR ?m_lstStyleUser@CStyleDataManager@@1V?$CList@PAVCStyleData@@PAV1@@@A+12
  000df	89 45 f0	 mov	 DWORD PTR _nStyleCount$[ebp], eax

; 184  : 	if( 0 < nStyleCount) return nStyleCount;

  000e2	85 c0		 test	 eax, eax
  000e4	7f 61		 jg	 SHORT $LN1@Initialize

; 186  : 	ILPCSTR szPath = p_pIChartOCX->GetUserFilePathString();

  000e6	8b 07		 mov	 eax, DWORD PTR [edi]
  000e8	8b cf		 mov	 ecx, edi
  000ea	ff 50 58	 call	 DWORD PTR [eax+88]
; File D:\git\src\IBK\IBK_DRFN\ProjSrc\SrcChartEx\ChartAddIn\ChartEnvSetupDlgAddIn\Include_AddIn_135914\I135914\_IString.h

; 39   : 		m_pIStrData = p_pIString;	// Do not AddRef(). Because It must be Return Value.

  000ed	8b f0		 mov	 esi, eax
  000ef	89 75 ec	 mov	 DWORD PTR _szPath$[ebp+4], esi

; 40   : 		if( m_pIStrData) m_szData = m_pIStrData->GetData();

  000f2	85 f6		 test	 esi, esi
  000f4	74 0b		 je	 SHORT $LN20@Initialize
  000f6	8b 16		 mov	 edx, DWORD PTR [esi]
  000f8	8b ce		 mov	 ecx, esi
  000fa	ff 52 10	 call	 DWORD PTR [edx+16]
  000fd	8b f8		 mov	 edi, eax
  000ff	eb 02		 jmp	 SHORT $LN32@Initialize
$LN20@Initialize:

; 41   : 		else m_szData = NULL;

  00101	33 ff		 xor	 edi, edi
$LN32@Initialize:
; File D:\git\src\IBK\IBK_DRFN\ProjSrc\SrcChartEx\ChartAddIn\ChartEnvSetupDlgAddIn\ChartEnvSetupDlgAddIn\StyleDataManager.cpp

; 186  : 	ILPCSTR szPath = p_pIChartOCX->GetUserFilePathString();

  00103	89 7d e8	 mov	 DWORD PTR _szPath$[ebp], edi

; 187  : 	CStyleFileBuilder().ReadStyleFile_User( szPath, m_lstStyleUser);

  00106	8d 4d 80	 lea	 ecx, DWORD PTR $T2[ebp]
  00109	c7 45 fc 03 00
	00 00		 mov	 DWORD PTR __$EHRec$[ebp+8], 3
  00110	e8 00 00 00 00	 call	 ??0CStyleFileBuilder@@QAE@XZ ; CStyleFileBuilder::CStyleFileBuilder
  00115	68 00 00 00 00	 push	 OFFSET ?m_lstStyleUser@CStyleDataManager@@1V?$CList@PAVCStyleData@@PAV1@@@A ; CStyleDataManager::m_lstStyleUser
  0011a	57		 push	 edi
  0011b	8b c8		 mov	 ecx, eax
  0011d	c6 45 fc 04	 mov	 BYTE PTR __$EHRec$[ebp+8], 4
  00121	e8 00 00 00 00	 call	 ?ReadStyleFile_User@CStyleFileBuilder@@QAE_NPBDAAV?$CList@PAVCStyleData@@PAV1@@@@Z ; CStyleFileBuilder::ReadStyleFile_User
  00126	8d 4d 80	 lea	 ecx, DWORD PTR $T2[ebp]
  00129	e8 00 00 00 00	 call	 ??1CStyleFileBuilder@@QAE@XZ

; 188  : 	return m_lstStyleUser.GetCount();

  0012e	8b 3d 0c 00 00
	00		 mov	 edi, DWORD PTR ?m_lstStyleUser@CStyleDataManager@@1V?$CList@PAVCStyleData@@PAV1@@@A+12
; File D:\git\src\IBK\IBK_DRFN\ProjSrc\SrcChartEx\ChartAddIn\ChartEnvSetupDlgAddIn\Include_AddIn_135914\I135914\_IString.h

; 44   : 	{

  00134	c7 45 fc 05 00
	00 00		 mov	 DWORD PTR __$EHRec$[ebp+8], 5

; 45   : 		if( m_pIStrData)

  0013b	85 f6		 test	 esi, esi
  0013d	74 06		 je	 SHORT $LN24@Initialize

; 46   : 		{
; 47   : 			m_pIStrData->Release();

  0013f	8b 0e		 mov	 ecx, DWORD PTR [esi]
  00141	56		 push	 esi
  00142	ff 51 08	 call	 DWORD PTR [ecx+8]
$LN24@Initialize:
; File D:\git\src\IBK\IBK_DRFN\ProjSrc\SrcChartEx\ChartAddIn\ChartEnvSetupDlgAddIn\ChartEnvSetupDlgAddIn\StyleDataManager.cpp

; 188  : 	return m_lstStyleUser.GetCount();

  00145	8b c7		 mov	 eax, edi
$LN1@Initialize:

; 189  : }

  00147	8b 4d f4	 mov	 ecx, DWORD PTR __$EHRec$[ebp]
  0014a	64 89 0d 00 00
	00 00		 mov	 DWORD PTR fs:0, ecx
  00151	59		 pop	 ecx
  00152	5f		 pop	 edi
  00153	5e		 pop	 esi
  00154	5b		 pop	 ebx
  00155	8b e5		 mov	 esp, ebp
  00157	5d		 pop	 ebp
  00158	c2 08 00	 ret	 8
_TEXT	ENDS
;	COMDAT text$x
text$x	SEGMENT
__unwindfunclet$?Initialize@CStyleDataManager@@QAEHPAUIChartOCX135914@@H@Z$0:
  00000	8d 4d e8	 lea	 ecx, DWORD PTR _szPath$4[ebp]
  00003	e9 00 00 00 00	 jmp	 ??1ILPCSTR135914@@QAE@XZ ; ILPCSTR135914::~ILPCSTR135914
__unwindfunclet$?Initialize@CStyleDataManager@@QAEHPAUIChartOCX135914@@H@Z$1:
  00008	8d 4d 80	 lea	 ecx, DWORD PTR $T3[ebp]
  0000b	e9 00 00 00 00	 jmp	 ??1CStyleFileBuilder@@QAE@XZ
__unwindfunclet$?Initialize@CStyleDataManager@@QAEHPAUIChartOCX135914@@H@Z$2:
  00010	8d 4d e8	 lea	 ecx, DWORD PTR _szPath$[ebp]
  00013	e9 00 00 00 00	 jmp	 ??1ILPCSTR135914@@QAE@XZ ; ILPCSTR135914::~ILPCSTR135914
__unwindfunclet$?Initialize@CStyleDataManager@@QAEHPAUIChartOCX135914@@H@Z$3:
  00018	8d 4d 80	 lea	 ecx, DWORD PTR $T2[ebp]
  0001b	e9 00 00 00 00	 jmp	 ??1CStyleFileBuilder@@QAE@XZ
  00020	cc		 int	 3
  00021	cc		 int	 3
  00022	cc		 int	 3
  00023	cc		 int	 3
  00024	cc		 int	 3
__ehhandler$?Initialize@CStyleDataManager@@QAEHPAUIChartOCX135914@@H@Z:
  00025	90		 npad	 1
  00026	90		 npad	 1
  00027	8b 54 24 08	 mov	 edx, DWORD PTR [esp+8]
  0002b	8d 42 0c	 lea	 eax, DWORD PTR [edx+12]
  0002e	8b 8a 7c ff ff
	ff		 mov	 ecx, DWORD PTR [edx-132]
  00034	33 c8		 xor	 ecx, eax
  00036	e8 00 00 00 00	 call	 @__security_check_cookie@4
  0003b	b8 00 00 00 00	 mov	 eax, OFFSET __ehfuncinfo$?Initialize@CStyleDataManager@@QAEHPAUIChartOCX135914@@H@Z
  00040	e9 00 00 00 00	 jmp	 ___CxxFrameHandler3
text$x	ENDS
?Initialize@CStyleDataManager@@QAEHPAUIChartOCX135914@@H@Z ENDP ; CStyleDataManager::Initialize
; Function compile flags: /Ogtp
; File D:\git\src\IBK\IBK_DRFN\ProjSrc\SrcChartEx\ChartAddIn\ChartEnvSetupDlgAddIn\ChartEnvSetupDlgAddIn\StyleDataManager.cpp
; File D:\git\src\IBK\IBK_DRFN\ProjSrc\SrcChartEx\ChartAddIn\ChartEnvSetupDlgAddIn\Include_AddIn_135914\I135914\_IString.h
; File D:\git\src\IBK\IBK_DRFN\ProjSrc\SrcChartEx\ChartAddIn\ChartEnvSetupDlgAddIn\ChartEnvSetupDlgAddIn\StyleDataManager.cpp
; File D:\git\src\IBK\IBK_DRFN\ProjSrc\SrcChartEx\ChartAddIn\ChartEnvSetupDlgAddIn\Include_Chart\DLL_Load\IMetaTable.h
; File D:\git\src\IBK\IBK_DRFN\ProjSrc\SrcChartEx\ChartAddIn\ChartEnvSetupDlgAddIn\ChartEnvSetupDlgAddIn\StyleDataManager.cpp
; File D:\git\src\IBK\IBK_DRFN\ProjSrc\SrcChartEx\ChartAddIn\ChartEnvSetupDlgAddIn\Include_Chart\DLL_Load\IMetaTable.h
; File D:\git\src\IBK\IBK_DRFN\ProjSrc\SrcChartEx\ChartAddIn\ChartEnvSetupDlgAddIn\ChartEnvSetupDlgAddIn\StyleDataManager.cpp
; File D:\git\src\IBK\IBK_DRFN\ProjSrc\SrcChartEx\ChartAddIn\ChartEnvSetupDlgAddIn\Include_AddIn_135914\I135914\_IString.h
; File D:\git\src\IBK\IBK_DRFN\ProjSrc\SrcChartEx\ChartAddIn\ChartEnvSetupDlgAddIn\ChartEnvSetupDlgAddIn\StyleDataManager.cpp
;	COMDAT ?SetStyleDataToIndex@CStyleDataManager@@SAXAAVCStyleData@@PAUIChartOCX135914@@PBD@Z
_TEXT	SEGMENT
_szIndicatorName$2 = -28				; size = 8
_pIChartManager$1$ = -20				; size = 4
_nMACount$2$ = -16					; size = 4
_nMACount$1$ = -16					; size = 4
__$EHRec$ = -12						; size = 12
_p_styleData$ = 8					; size = 4
_pIGraphInfoManager$1$ = 12				; size = 4
_p_pIChartOCX$ = 12					; size = 4
_p_szGraphName$ = 16					; size = 4
?SetStyleDataToIndex@CStyleDataManager@@SAXAAVCStyleData@@PAUIChartOCX135914@@PBD@Z PROC ; CStyleDataManager::SetStyleDataToIndex, COMDAT

; 113  : {

  00000	55		 push	 ebp
  00001	8b ec		 mov	 ebp, esp
  00003	6a ff		 push	 -1
  00005	68 00 00 00 00	 push	 __ehhandler$?SetStyleDataToIndex@CStyleDataManager@@SAXAAVCStyleData@@PAUIChartOCX135914@@PBD@Z
  0000a	64 a1 00 00 00
	00		 mov	 eax, DWORD PTR fs:0
  00010	50		 push	 eax
  00011	83 ec 10	 sub	 esp, 16			; 00000010H
  00014	53		 push	 ebx
  00015	56		 push	 esi
  00016	57		 push	 edi
  00017	a1 00 00 00 00	 mov	 eax, DWORD PTR ___security_cookie
  0001c	33 c5		 xor	 eax, ebp
  0001e	50		 push	 eax
  0001f	8d 45 f4	 lea	 eax, DWORD PTR __$EHRec$[ebp]
  00022	64 a3 00 00 00
	00		 mov	 DWORD PTR fs:0, eax

; 114  : 	IGraphInfoManager *pIGraphInfoManager = p_pIChartOCX->GetIGraphInfoManager();

  00028	8b 7d 0c	 mov	 edi, DWORD PTR _p_pIChartOCX$[ebp]
  0002b	8b cf		 mov	 ecx, edi
  0002d	8b 07		 mov	 eax, DWORD PTR [edi]
  0002f	ff 50 20	 call	 DWORD PTR [eax+32]
  00032	8b f0		 mov	 esi, eax
  00034	89 75 0c	 mov	 DWORD PTR _pIGraphInfoManager$1$[ebp], esi

; 115  : 	if( !pIGraphInfoManager) return;

  00037	85 f6		 test	 esi, esi
  00039	0f 84 0a 02 00
	00		 je	 $LN1@SetStyleDa

; 116  : 
; 117  : 	IChartManager *pIChartManager = p_pIChartOCX->GetIChartManager();

  0003f	8b 17		 mov	 edx, DWORD PTR [edi]
  00041	8b cf		 mov	 ecx, edi
  00043	ff 52 18	 call	 DWORD PTR [edx+24]
  00046	8b f8		 mov	 edi, eax
  00048	8b 06		 mov	 eax, DWORD PTR [esi]
  0004a	89 7d ec	 mov	 DWORD PTR _pIChartManager$1$[ebp], edi

; 118  : 	if( !pIChartManager)

  0004d	85 ff		 test	 edi, edi
  0004f	75 06		 jne	 SHORT $LN11@SetStyleDa

; 119  : 	{
; 120  : 		pIGraphInfoManager->Release();

  00051	56		 push	 esi

; 121  : 		return;

  00052	e9 ef 01 00 00	 jmp	 $LN43@SetStyleDa
$LN11@SetStyleDa:

; 122  : 	}
; 123  : 
; 124  : 	IGraphInfo *pIGraphInfo = pIGraphInfoManager->GetGraphInfo( IGraphInfoManager::IEILT_USER, p_szGraphName);

  00057	ff 75 10	 push	 DWORD PTR _p_szGraphName$[ebp]
  0005a	8b ce		 mov	 ecx, esi
  0005c	6a 03		 push	 3
  0005e	ff 50 14	 call	 DWORD PTR [eax+20]
  00061	8b d8		 mov	 ebx, eax

; 125  : 	if( pIGraphInfo)

  00063	85 db		 test	 ebx, ebx
  00065	0f 84 d2 01 00
	00		 je	 $LN30@SetStyleDa

; 127  : 		ILPCSTR szIndicatorName = pIGraphInfo->GetIndicatorNameString();

  0006b	8b 13		 mov	 edx, DWORD PTR [ebx]
  0006d	8b cb		 mov	 ecx, ebx
  0006f	ff 92 a4 00 00
	00		 call	 DWORD PTR [edx+164]
; File D:\git\src\IBK\IBK_DRFN\ProjSrc\SrcChartEx\ChartAddIn\ChartEnvSetupDlgAddIn\Include_AddIn_135914\I135914\_IString.h

; 39   : 		m_pIStrData = p_pIString;	// Do not AddRef(). Because It must be Return Value.

  00075	89 45 e8	 mov	 DWORD PTR _szIndicatorName$2[ebp+4], eax

; 40   : 		if( m_pIStrData) m_szData = m_pIStrData->GetData();

  00078	85 c0		 test	 eax, eax
  0007a	74 0b		 je	 SHORT $LN20@SetStyleDa
  0007c	8b 10		 mov	 edx, DWORD PTR [eax]
  0007e	8b c8		 mov	 ecx, eax
  00080	ff 52 10	 call	 DWORD PTR [edx+16]
  00083	8b f8		 mov	 edi, eax
  00085	eb 02		 jmp	 SHORT $LN44@SetStyleDa
$LN20@SetStyleDa:

; 41   : 		else m_szData = NULL;

  00087	33 ff		 xor	 edi, edi
$LN44@SetStyleDa:
; File D:\git\src\IBK\IBK_DRFN\ProjSrc\SrcChartEx\ChartAddIn\ChartEnvSetupDlgAddIn\ChartEnvSetupDlgAddIn\StyleDataManager.cpp

; 127  : 		ILPCSTR szIndicatorName = pIGraphInfo->GetIndicatorNameString();

  00089	89 7d e4	 mov	 DWORD PTR _szIndicatorName$2[ebp], edi
; File D:\git\src\IBK\IBK_DRFN\ProjSrc\SrcChartEx\ChartAddIn\ChartEnvSetupDlgAddIn\Include_Chart\DLL_Load\IMetaTable.h

; 957  : 	DECLARE_FUNCTION1(	GetIndicatorID,					int, -1, const char *);

  0008c	a1 04 00 00 00	 mov	 eax, DWORD PTR ?g_iMetaTable@@3VIMetaTable@@A+4
; File D:\git\src\IBK\IBK_DRFN\ProjSrc\SrcChartEx\ChartAddIn\ChartEnvSetupDlgAddIn\ChartEnvSetupDlgAddIn\StyleDataManager.cpp

; 127  : 		ILPCSTR szIndicatorName = pIGraphInfo->GetIndicatorNameString();

  00091	c7 45 fc 00 00
	00 00		 mov	 DWORD PTR __$EHRec$[ebp+8], 0
; File D:\git\src\IBK\IBK_DRFN\ProjSrc\SrcChartEx\ChartAddIn\ChartEnvSetupDlgAddIn\Include_Chart\DLL_Load\IMetaTable.h

; 957  : 	DECLARE_FUNCTION1(	GetIndicatorID,					int, -1, const char *);

  00098	85 c0		 test	 eax, eax
  0009a	0f 84 6d 01 00
	00		 je	 $LN8@SetStyleDa
  000a0	b9 80 0d 00 00	 mov	 ecx, 3456		; 00000d80H
  000a5	66 3b 0d b0 00
	00 00		 cmp	 cx, WORD PTR ?g_iMetaTable@@3VIMetaTable@@A+176
  000ac	74 29		 je	 SHORT $LN41@SetStyleDa
  000ae	68 00 00 00 00	 push	 OFFSET ??_C@_0P@FOFNMHJI@GetIndicatorID@
  000b3	50		 push	 eax
  000b4	c7 05 ac 00 00
	00 00 00 00 00	 mov	 DWORD PTR ?g_iMetaTable@@3VIMetaTable@@A+172, 0
  000be	ff 15 00 00 00
	00		 call	 DWORD PTR __imp__GetProcAddress@8
  000c4	b9 80 0d 00 00	 mov	 ecx, 3456		; 00000d80H
  000c9	a3 ac 00 00 00	 mov	 DWORD PTR ?g_iMetaTable@@3VIMetaTable@@A+172, eax
  000ce	66 89 0d b0 00
	00 00		 mov	 WORD PTR ?g_iMetaTable@@3VIMetaTable@@A+176, cx
  000d5	eb 05		 jmp	 SHORT $LN25@SetStyleDa
$LN41@SetStyleDa:
  000d7	a1 ac 00 00 00	 mov	 eax, DWORD PTR ?g_iMetaTable@@3VIMetaTable@@A+172
$LN25@SetStyleDa:
  000dc	85 c0		 test	 eax, eax
  000de	0f 84 29 01 00
	00		 je	 $LN8@SetStyleDa
  000e4	57		 push	 edi
  000e5	ff d0		 call	 eax
  000e7	83 c4 04	 add	 esp, 4
; File D:\git\src\IBK\IBK_DRFN\ProjSrc\SrcChartEx\ChartAddIn\ChartEnvSetupDlgAddIn\ChartEnvSetupDlgAddIn\StyleDataManager.cpp

; 129  : 		switch( g_iMetaTable.GetIndicatorID( szIndicatorName))

  000ea	83 f8 03	 cmp	 eax, 3
  000ed	0f 87 1a 01 00
	00		 ja	 $LN8@SetStyleDa
  000f3	ff 24 85 00 00
	00 00		 jmp	 DWORD PTR $LN40@SetStyleDa[eax*4]
$LN13@SetStyleDa:

; 130  : 		{
; 131  : 			// Price Chart
; 132  : 			case IMetaTable::EDDC_PRICECHART:	pIGraphInfo->SetSubGraphColorAndFillFlag( 0, p_styleData.GetPriceUpColor(), p_styleData.GetPriceUpColor(),

  000fa	8b 75 08	 mov	 esi, DWORD PTR _p_styleData$[ebp]
  000fd	8b ce		 mov	 ecx, esi
  000ff	8b 3b		 mov	 edi, DWORD PTR [ebx]
  00101	e8 00 00 00 00	 call	 ?GetPriceDownFill@CStyleData@@QBE_NXZ ; CStyleData::GetPriceDownFill
  00106	0f b6 c0	 movzx	 eax, al
  00109	8b ce		 mov	 ecx, esi
  0010b	50		 push	 eax
  0010c	e8 00 00 00 00	 call	 ?GetPriceUpFill@CStyleData@@QBE_NXZ ; CStyleData::GetPriceUpFill
  00111	0f b6 c0	 movzx	 eax, al
  00114	8b ce		 mov	 ecx, esi
  00116	50		 push	 eax
  00117	e8 00 00 00 00	 call	 ?GetPriceEqualColor@CStyleData@@QBEKXZ ; CStyleData::GetPriceEqualColor
  0011c	50		 push	 eax
  0011d	8b ce		 mov	 ecx, esi
  0011f	e8 00 00 00 00	 call	 ?GetPriceEqualColor@CStyleData@@QBEKXZ ; CStyleData::GetPriceEqualColor
  00124	50		 push	 eax
  00125	8b ce		 mov	 ecx, esi
  00127	e8 00 00 00 00	 call	 ?GetPriceDownColor@CStyleData@@QBEKXZ ; CStyleData::GetPriceDownColor
  0012c	50		 push	 eax
  0012d	8b ce		 mov	 ecx, esi
  0012f	e8 00 00 00 00	 call	 ?GetPriceDownColor@CStyleData@@QBEKXZ ; CStyleData::GetPriceDownColor
  00134	50		 push	 eax
  00135	8b ce		 mov	 ecx, esi
  00137	e8 00 00 00 00	 call	 ?GetPriceUpColor@CStyleData@@QBEKXZ ; CStyleData::GetPriceUpColor
  0013c	50		 push	 eax
  0013d	8b ce		 mov	 ecx, esi
  0013f	e8 00 00 00 00	 call	 ?GetPriceUpColor@CStyleData@@QBEKXZ ; CStyleData::GetPriceUpColor
  00144	50		 push	 eax
  00145	6a 00		 push	 0
  00147	8b cb		 mov	 ecx, ebx
  00149	ff 57 74	 call	 DWORD PTR [edi+116]

; 133  : 													p_styleData.GetPriceDownColor(), p_styleData.GetPriceDownColor(), p_styleData.GetPriceEqualColor(),
; 134  : 													p_styleData.GetPriceEqualColor(), p_styleData.GetPriceUpFill(), p_styleData.GetPriceDownFill());
; 135  : 												break;

  0014c	e9 b9 00 00 00	 jmp	 $LN45@SetStyleDa
$LN14@SetStyleDa:

; 136  : 			// PriceMA Chart
; 137  : // vntsorl:[0003431] [7111]      
; 138  : // 			case IMetaTable::EDDC_ST_PRICEMACHART:	nMACount = p_styleData.GetPriceMACount();
; 139  : 			case IMetaTable::EDDC_OCX_PRICEMACHART:	nMACount = p_styleData.GetPriceMACount();

  00151	8b 4d 08	 mov	 ecx, DWORD PTR _p_styleData$[ebp]
  00154	e8 00 00 00 00	 call	 ?GetPriceMACount@CStyleData@@QBEHXZ ; CStyleData::GetPriceMACount
  00159	33 ff		 xor	 edi, edi
  0015b	89 45 f0	 mov	 DWORD PTR _nMACount$1$[ebp], eax

; 140  : 													for( i = 0; i < nMACount; i++) pIGraphInfo->SetSubGraphColor( i, 1, p_styleData.GetPriceMAColor( i));

  0015e	85 c0		 test	 eax, eax
  00160	0f 8e a7 00 00
	00		 jle	 $LN8@SetStyleDa
$LL6@SetStyleDa:
  00166	8b 4d 08	 mov	 ecx, DWORD PTR _p_styleData$[ebp]
  00169	8b 33		 mov	 esi, DWORD PTR [ebx]
  0016b	57		 push	 edi
  0016c	e8 00 00 00 00	 call	 ?GetPriceMAColor@CStyleData@@QBEKH@Z ; CStyleData::GetPriceMAColor
  00171	50		 push	 eax
  00172	6a 01		 push	 1
  00174	57		 push	 edi
  00175	8b cb		 mov	 ecx, ebx
  00177	ff 56 6c	 call	 DWORD PTR [esi+108]
  0017a	47		 inc	 edi
  0017b	3b 7d f0	 cmp	 edi, DWORD PTR _nMACount$1$[ebp]
  0017e	7c e6		 jl	 SHORT $LL6@SetStyleDa

; 141  : 													break;

  00180	e9 85 00 00 00	 jmp	 $LN45@SetStyleDa
$LN15@SetStyleDa:

; 142  : 			// Volume Chart
; 143  : 			case IMetaTable::EDDC_VOLUMECHART:	pIGraphInfo->SetSubGraphColorAndFillFlag( 0, p_styleData.GetTradeUpColor(), p_styleData.GetTradeUpColor(),

  00185	8b 75 08	 mov	 esi, DWORD PTR _p_styleData$[ebp]
  00188	8b ce		 mov	 ecx, esi
  0018a	8b 3b		 mov	 edi, DWORD PTR [ebx]
  0018c	e8 00 00 00 00	 call	 ?GetTradeDownFill@CStyleData@@QBE_NXZ ; CStyleData::GetTradeDownFill
  00191	0f b6 c0	 movzx	 eax, al
  00194	8b ce		 mov	 ecx, esi
  00196	50		 push	 eax
  00197	e8 00 00 00 00	 call	 ?GetTradeUpFill@CStyleData@@QBE_NXZ ; CStyleData::GetTradeUpFill
  0019c	0f b6 c0	 movzx	 eax, al
  0019f	8b ce		 mov	 ecx, esi
  001a1	50		 push	 eax
  001a2	e8 00 00 00 00	 call	 ?GetTradeEqualColor@CStyleData@@QBEKXZ ; CStyleData::GetTradeEqualColor
  001a7	50		 push	 eax
  001a8	8b ce		 mov	 ecx, esi
  001aa	e8 00 00 00 00	 call	 ?GetTradeEqualColor@CStyleData@@QBEKXZ ; CStyleData::GetTradeEqualColor
  001af	50		 push	 eax
  001b0	8b ce		 mov	 ecx, esi
  001b2	e8 00 00 00 00	 call	 ?GetTradeDownColor@CStyleData@@QBEKXZ ; CStyleData::GetTradeDownColor
  001b7	50		 push	 eax
  001b8	8b ce		 mov	 ecx, esi
  001ba	e8 00 00 00 00	 call	 ?GetTradeDownColor@CStyleData@@QBEKXZ ; CStyleData::GetTradeDownColor
  001bf	50		 push	 eax
  001c0	8b ce		 mov	 ecx, esi
  001c2	e8 00 00 00 00	 call	 ?GetTradeUpColor@CStyleData@@QBEKXZ ; CStyleData::GetTradeUpColor
  001c7	50		 push	 eax
  001c8	8b ce		 mov	 ecx, esi
  001ca	e8 00 00 00 00	 call	 ?GetTradeUpColor@CStyleData@@QBEKXZ ; CStyleData::GetTradeUpColor
  001cf	50		 push	 eax
  001d0	6a 00		 push	 0
  001d2	8b cb		 mov	 ecx, ebx
  001d4	ff 57 74	 call	 DWORD PTR [edi+116]

; 144  : 													p_styleData.GetTradeDownColor(), p_styleData.GetTradeDownColor(), p_styleData.GetTradeEqualColor(),
; 145  : 													p_styleData.GetTradeEqualColor(), p_styleData.GetTradeUpFill(), p_styleData.GetTradeDownFill());
; 146  : 												break;

  001d7	eb 31		 jmp	 SHORT $LN45@SetStyleDa
$LN16@SetStyleDa:

; 147  : 		// VolumeMA Chart
; 148  : // 			case IMetaTable::EDDC_ST_VOLUMEMACHART:	nMACount = p_styleData.GetTradeMACount();
; 149  : 			case IMetaTable::EDDC_OCX_VOLUMEMACHART:	nMACount = p_styleData.GetTradeMACount();

  001d9	8b 4d 08	 mov	 ecx, DWORD PTR _p_styleData$[ebp]
  001dc	e8 00 00 00 00	 call	 ?GetTradeMACount@CStyleData@@QBEHXZ ; CStyleData::GetTradeMACount
  001e1	33 ff		 xor	 edi, edi
  001e3	89 45 f0	 mov	 DWORD PTR _nMACount$2$[ebp], eax

; 150  : 													for( int i = 0; i < nMACount; i++) pIGraphInfo->SetSubGraphColor( i, 1, p_styleData.GetTradeMAColor( i));

  001e6	85 c0		 test	 eax, eax
  001e8	7e 23		 jle	 SHORT $LN8@SetStyleDa
  001ea	66 0f 1f 44 00
	00		 npad	 6
$LL9@SetStyleDa:
  001f0	8b 4d 08	 mov	 ecx, DWORD PTR _p_styleData$[ebp]
  001f3	8b 33		 mov	 esi, DWORD PTR [ebx]
  001f5	57		 push	 edi
  001f6	e8 00 00 00 00	 call	 ?GetTradeMAColor@CStyleData@@QBEKH@Z ; CStyleData::GetTradeMAColor
  001fb	50		 push	 eax
  001fc	6a 01		 push	 1
  001fe	57		 push	 edi
  001ff	8b cb		 mov	 ecx, ebx
  00201	ff 56 6c	 call	 DWORD PTR [esi+108]
  00204	47		 inc	 edi
  00205	3b 7d f0	 cmp	 edi, DWORD PTR _nMACount$2$[ebp]
  00208	7c e6		 jl	 SHORT $LL9@SetStyleDa
$LN45@SetStyleDa:

; 151  : 													break;
; 152  : 		}
; 153  : 
; 154  : 		pIGraphInfo->Release();

  0020a	8b 75 0c	 mov	 esi, DWORD PTR _pIGraphInfoManager$1$[ebp]
$LN8@SetStyleDa:
  0020d	8b 03		 mov	 eax, DWORD PTR [ebx]
  0020f	53		 push	 ebx
  00210	ff 50 08	 call	 DWORD PTR [eax+8]

; 155  : 		pIChartManager->ChangeGraphDataFromGraphInfo( p_szGraphName, FALSE);

  00213	8b 7d ec	 mov	 edi, DWORD PTR _pIChartManager$1$[ebp]
  00216	8b cf		 mov	 ecx, edi
  00218	6a 00		 push	 0
  0021a	ff 75 10	 push	 DWORD PTR _p_szGraphName$[ebp]
  0021d	8b 07		 mov	 eax, DWORD PTR [edi]
  0021f	ff 50 7c	 call	 DWORD PTR [eax+124]
; File D:\git\src\IBK\IBK_DRFN\ProjSrc\SrcChartEx\ChartAddIn\ChartEnvSetupDlgAddIn\Include_AddIn_135914\I135914\_IString.h

; 45   : 		if( m_pIStrData)

  00222	8b 4d e8	 mov	 ecx, DWORD PTR _szIndicatorName$2[ebp+4]
  00225	c7 45 fc 01 00
	00 00		 mov	 DWORD PTR __$EHRec$[ebp+8], 1
  0022c	85 c9		 test	 ecx, ecx
  0022e	74 06		 je	 SHORT $LN29@SetStyleDa

; 46   : 		{
; 47   : 			m_pIStrData->Release();

  00230	8b 01		 mov	 eax, DWORD PTR [ecx]
  00232	51		 push	 ecx
  00233	ff 50 08	 call	 DWORD PTR [eax+8]
$LN29@SetStyleDa:

; 48   : 			m_pIStrData = NULL;
; 49   : 			m_szData = NULL;
; 50   : 		}
; 51   : 	}

  00236	c7 45 fc ff ff
	ff ff		 mov	 DWORD PTR __$EHRec$[ebp+8], -1
$LN30@SetStyleDa:
; File D:\git\src\IBK\IBK_DRFN\ProjSrc\SrcChartEx\ChartAddIn\ChartEnvSetupDlgAddIn\ChartEnvSetupDlgAddIn\StyleDataManager.cpp

; 157  : 	pIGraphInfoManager->Release();

  0023d	8b 06		 mov	 eax, DWORD PTR [esi]
  0023f	56		 push	 esi
  00240	ff 50 08	 call	 DWORD PTR [eax+8]

; 158  : 	pIChartManager->Release();

  00243	8b 07		 mov	 eax, DWORD PTR [edi]
  00245	57		 push	 edi
$LN43@SetStyleDa:

; 159  : }

  00246	ff 50 08	 call	 DWORD PTR [eax+8]
$LN1@SetStyleDa:
  00249	8b 4d f4	 mov	 ecx, DWORD PTR __$EHRec$[ebp]
  0024c	64 89 0d 00 00
	00 00		 mov	 DWORD PTR fs:0, ecx
  00253	59		 pop	 ecx
  00254	5f		 pop	 edi
  00255	5e		 pop	 esi
  00256	5b		 pop	 ebx
  00257	8b e5		 mov	 esp, ebp
  00259	5d		 pop	 ebp
  0025a	c3		 ret	 0
  0025b	90		 npad	 1
$LN40@SetStyleDa:
  0025c	00 00 00 00	 DD	 $LN13@SetStyleDa
  00260	00 00 00 00	 DD	 $LN14@SetStyleDa
  00264	00 00 00 00	 DD	 $LN15@SetStyleDa
  00268	00 00 00 00	 DD	 $LN16@SetStyleDa
_TEXT	ENDS
;	COMDAT text$x
text$x	SEGMENT
__unwindfunclet$?SetStyleDataToIndex@CStyleDataManager@@SAXAAVCStyleData@@PAUIChartOCX135914@@PBD@Z$0:
  00000	8d 4d e4	 lea	 ecx, DWORD PTR _szIndicatorName$2[ebp]
  00003	e9 00 00 00 00	 jmp	 ??1ILPCSTR135914@@QAE@XZ ; ILPCSTR135914::~ILPCSTR135914
  00008	cc		 int	 3
  00009	cc		 int	 3
  0000a	cc		 int	 3
  0000b	cc		 int	 3
  0000c	cc		 int	 3
__ehhandler$?SetStyleDataToIndex@CStyleDataManager@@SAXAAVCStyleData@@PAUIChartOCX135914@@PBD@Z:
  0000d	90		 npad	 1
  0000e	90		 npad	 1
  0000f	8b 54 24 08	 mov	 edx, DWORD PTR [esp+8]
  00013	8d 42 0c	 lea	 eax, DWORD PTR [edx+12]
  00016	8b 4a e0	 mov	 ecx, DWORD PTR [edx-32]
  00019	33 c8		 xor	 ecx, eax
  0001b	e8 00 00 00 00	 call	 @__security_check_cookie@4
  00020	b8 00 00 00 00	 mov	 eax, OFFSET __ehfuncinfo$?SetStyleDataToIndex@CStyleDataManager@@SAXAAVCStyleData@@PAUIChartOCX135914@@PBD@Z
  00025	e9 00 00 00 00	 jmp	 ___CxxFrameHandler3
text$x	ENDS
?SetStyleDataToIndex@CStyleDataManager@@SAXAAVCStyleData@@PAUIChartOCX135914@@PBD@Z ENDP ; CStyleDataManager::SetStyleDataToIndex
; Function compile flags: /Ogtp
; File D:\git\src\IBK\IBK_DRFN\ProjSrc\SrcChartEx\ChartAddIn\ChartEnvSetupDlgAddIn\ChartEnvSetupDlgAddIn\StyleDataManager.cpp
; File D:\git\src\IBK\IBK_DRFN\ProjSrc\SrcChartEx\ChartAddIn\ChartEnvSetupDlgAddIn\Include_AddIn_135914\I135914\_IString.h
; File D:\git\src\IBK\IBK_DRFN\ProjSrc\SrcChartEx\ChartAddIn\ChartEnvSetupDlgAddIn\ChartEnvSetupDlgAddIn\StyleDataManager.cpp
; File D:\git\src\IBK\IBK_DRFN\ProjSrc\SrcChartEx\ChartAddIn\ChartEnvSetupDlgAddIn\Include_AddIn_135914\I135914\_IString.h
; File D:\git\src\IBK\IBK_DRFN\ProjSrc\SrcChartEx\ChartAddIn\ChartEnvSetupDlgAddIn\ChartEnvSetupDlgAddIn\StyleDataManager.cpp
; File D:\git\src\IBK\IBK_DRFN\ProjSrc\SrcChartEx\ChartAddIn\ChartEnvSetupDlgAddIn\Include_AddIn_135914\I135914\_IString.h
; File D:\git\src\IBK\IBK_DRFN\ProjSrc\SrcChartEx\ChartAddIn\ChartEnvSetupDlgAddIn\ChartEnvSetupDlgAddIn\StyleDataManager.cpp
; File D:\git\src\IBK\IBK_DRFN\ProjSrc\SrcChartEx\ChartAddIn\ChartEnvSetupDlgAddIn\Include_AddIn_135914\I135914\_IString.h
; File D:\git\src\IBK\IBK_DRFN\ProjSrc\SrcChartEx\ChartAddIn\ChartEnvSetupDlgAddIn\ChartEnvSetupDlgAddIn\StyleDataManager.cpp
; File D:\git\src\IBK\IBK_DRFN\ProjSrc\SrcChartEx\ChartAddIn\ChartEnvSetupDlgAddIn\Include_AddIn_135914\I135914\_IString.h
; File D:\git\src\IBK\IBK_DRFN\ProjSrc\SrcChartEx\ChartAddIn\ChartEnvSetupDlgAddIn\ChartEnvSetupDlgAddIn\StyleDataManager.cpp
; File D:\git\src\IBK\IBK_DRFN\ProjSrc\SrcChartEx\ChartAddIn\ChartEnvSetupDlgAddIn\Include_AddIn_135914\I135914\_IString.h
; File D:\git\src\IBK\IBK_DRFN\ProjSrc\SrcChartEx\ChartAddIn\ChartEnvSetupDlgAddIn\ChartEnvSetupDlgAddIn\StyleDataManager.cpp
; File D:\git\src\IBK\IBK_DRFN\ProjSrc\SrcChartEx\ChartAddIn\ChartEnvSetupDlgAddIn\Include_AddIn_135914\I135914\_IString.h
; File D:\git\src\IBK\IBK_DRFN\ProjSrc\SrcChartEx\ChartAddIn\ChartEnvSetupDlgAddIn\ChartEnvSetupDlgAddIn\StyleDataManager.cpp
; File D:\git\src\IBK\IBK_DRFN\ProjSrc\SrcChartEx\ChartAddIn\ChartEnvSetupDlgAddIn\Include_AddIn_135914\I135914\_IString.h
; File D:\git\src\IBK\IBK_DRFN\ProjSrc\SrcChartEx\ChartAddIn\ChartEnvSetupDlgAddIn\ChartEnvSetupDlgAddIn\StyleDataManager.cpp
; File D:\git\src\IBK\IBK_DRFN\ProjSrc\SrcChartEx\ChartAddIn\ChartEnvSetupDlgAddIn\Include_AddIn_135914\I135914\_IString.h
; File D:\git\src\IBK\IBK_DRFN\ProjSrc\SrcChartEx\ChartAddIn\ChartEnvSetupDlgAddIn\ChartEnvSetupDlgAddIn\StyleDataManager.cpp
; File D:\git\src\IBK\IBK_DRFN\ProjSrc\SrcChartEx\ChartAddIn\ChartEnvSetupDlgAddIn\Include_AddIn_135914\I135914\_IString.h
; File D:\git\src\IBK\IBK_DRFN\ProjSrc\SrcChartEx\ChartAddIn\ChartEnvSetupDlgAddIn\ChartEnvSetupDlgAddIn\StyleDataManager.cpp
; File D:\git\src\IBK\IBK_DRFN\ProjSrc\SrcChartEx\ChartAddIn\ChartEnvSetupDlgAddIn\Include_AddIn_135914\I135914\_IString.h
; File D:\git\src\IBK\IBK_DRFN\ProjSrc\SrcChartEx\ChartAddIn\ChartEnvSetupDlgAddIn\ChartEnvSetupDlgAddIn\StyleDataManager.cpp
; File D:\git\src\IBK\IBK_DRFN\ProjSrc\SrcChartEx\ChartAddIn\ChartEnvSetupDlgAddIn\Include_AddIn_135914\I135914\_IString.h
; File D:\git\src\IBK\IBK_DRFN\ProjSrc\SrcChartEx\ChartAddIn\ChartEnvSetupDlgAddIn\ChartEnvSetupDlgAddIn\StyleDataManager.cpp
; File D:\git\src\IBK\IBK_DRFN\ProjSrc\SrcChartEx\ChartAddIn\ChartEnvSetupDlgAddIn\Include_AddIn_135914\I135914\_IString.h
; File D:\git\src\IBK\IBK_DRFN\ProjSrc\SrcChartEx\ChartAddIn\ChartEnvSetupDlgAddIn\ChartEnvSetupDlgAddIn\StyleDataManager.cpp
;	COMDAT ?SetStyleDataToOCX@CStyleDataManager@@SAXAAVCStyleData@@PAUIChartOCX135914@@HHHH@Z
_TEXT	SEGMENT
_szRQ$ = -48						; size = 8
_szGraphName$ = -40					; size = 8
_stringSrc$1$ = -32					; size = 4
_stringSrc$1$ = -28					; size = 4
_stringSrc$1$ = -28					; size = 4
_nR$ = -24						; size = 4
_nC$ = -20						; size = 4
_nV$ = -16						; size = 4
__$EHRec$ = -12						; size = 12
_p_styleData$ = 8					; size = 4
_nG$ = 12						; size = 4
_p_pIChartOCX$ = 12					; size = 4
_p_bResetSaveCFG$ = 16					; size = 4
_p_bSkipAnalysisColor$ = 20				; size = 4
_p_bSkipVerticalScaleGrid$ = 24				; size = 4
_p_bSkipHorizontalScaleGrid$ = 28			; size = 4
?SetStyleDataToOCX@CStyleDataManager@@SAXAAVCStyleData@@PAUIChartOCX135914@@HHHH@Z PROC ; CStyleDataManager::SetStyleDataToOCX, COMDAT

; 47   : {

  00000	55		 push	 ebp
  00001	8b ec		 mov	 ebp, esp
  00003	6a ff		 push	 -1
  00005	68 00 00 00 00	 push	 __ehhandler$?SetStyleDataToOCX@CStyleDataManager@@SAXAAVCStyleData@@PAUIChartOCX135914@@HHHH@Z
  0000a	64 a1 00 00 00
	00		 mov	 eax, DWORD PTR fs:0
  00010	50		 push	 eax
  00011	83 ec 24	 sub	 esp, 36			; 00000024H
  00014	53		 push	 ebx
  00015	56		 push	 esi
  00016	57		 push	 edi
  00017	a1 00 00 00 00	 mov	 eax, DWORD PTR ___security_cookie
  0001c	33 c5		 xor	 eax, ebp
  0001e	50		 push	 eax
  0001f	8d 45 f4	 lea	 eax, DWORD PTR __$EHRec$[ebp]
  00022	64 a3 00 00 00
	00		 mov	 DWORD PTR fs:0, eax

; 48   : 	if( !p_pIChartOCX) return;

  00028	8b 7d 0c	 mov	 edi, DWORD PTR _p_pIChartOCX$[ebp]
  0002b	85 ff		 test	 edi, edi
  0002d	0f 84 ce 03 00
	00		 je	 $LN57@SetStyleDa

; 49   : 
; 50   : 	// Graph Region Color
; 51   : 	p_pIChartOCX->SetStyleValueGraphBGColor(		p_styleData.GetGraphBGColor());

  00033	8b 5d 08	 mov	 ebx, DWORD PTR _p_styleData$[ebp]
  00036	8b cb		 mov	 ecx, ebx
  00038	8b 37		 mov	 esi, DWORD PTR [edi]
  0003a	6a 00		 push	 0
  0003c	e8 00 00 00 00	 call	 ?GetGraphBGColor@CStyleData@@QBEKXZ ; CStyleData::GetGraphBGColor
  00041	50		 push	 eax
  00042	8b cf		 mov	 ecx, edi
  00044	ff 96 c0 01 00
	00		 call	 DWORD PTR [esi+448]

; 52   : 	p_pIChartOCX->SetStyleValueGraphBorderColor(	p_styleData.GetGraphBorderColor());

  0004a	8b 37		 mov	 esi, DWORD PTR [edi]
  0004c	8b cb		 mov	 ecx, ebx
  0004e	6a 00		 push	 0
  00050	e8 00 00 00 00	 call	 ?GetGraphBorderColor@CStyleData@@QBEKXZ ; CStyleData::GetGraphBorderColor
  00055	50		 push	 eax
  00056	8b cf		 mov	 ecx, edi
  00058	ff 96 c4 01 00
	00		 call	 DWORD PTR [esi+452]

; 53   : 	p_pIChartOCX->SetStyleValueGraphGridColor(		p_styleData.GetGraphGridColor(),	TRUE);

  0005e	8b 37		 mov	 esi, DWORD PTR [edi]
  00060	8b cb		 mov	 ecx, ebx
  00062	6a 01		 push	 1
  00064	e8 00 00 00 00	 call	 ?GetGraphGridColor@CStyleData@@QBEKXZ ; CStyleData::GetGraphGridColor
  00069	50		 push	 eax
  0006a	8b cf		 mov	 ecx, edi
  0006c	ff 96 c8 01 00
	00		 call	 DWORD PTR [esi+456]

; 54   : 	p_pIChartOCX->SetStyleValueGridHeight(			p_styleData.GetGridHeight());

  00072	8b 37		 mov	 esi, DWORD PTR [edi]
  00074	8b cb		 mov	 ecx, ebx
  00076	6a 00		 push	 0
  00078	e8 00 00 00 00	 call	 ?GetGridHeight@CStyleData@@QBEHXZ ; CStyleData::GetGridHeight
  0007d	50		 push	 eax
  0007e	8b cf		 mov	 ecx, edi
  00080	ff 96 cc 01 00
	00		 call	 DWORD PTR [esi+460]

; 55   : 	p_pIChartOCX->SetStyleValueGridWidth(			p_styleData.GetGridWidth(),			TRUE);

  00086	8b 37		 mov	 esi, DWORD PTR [edi]
  00088	8b cb		 mov	 ecx, ebx
  0008a	6a 01		 push	 1
  0008c	e8 00 00 00 00	 call	 ?GetGridWidth@CStyleData@@QBEHXZ ; CStyleData::GetGridWidth
  00091	50		 push	 eax
  00092	8b cf		 mov	 ecx, edi
  00094	ff 96 d0 01 00
	00		 call	 DWORD PTR [esi+464]

; 56   : 	p_pIChartOCX->SetStyleValueGridHLineColor(		p_styleData.GetScaleGridColor());

  0009a	8b 37		 mov	 esi, DWORD PTR [edi]
  0009c	8b cb		 mov	 ecx, ebx
  0009e	6a 00		 push	 0
  000a0	e8 00 00 00 00	 call	 ?GetScaleGridColor@CStyleData@@QBEKXZ ; CStyleData::GetScaleGridColor
  000a5	50		 push	 eax
  000a6	8b cf		 mov	 ecx, edi
  000a8	ff 96 d4 01 00
	00		 call	 DWORD PTR [esi+468]

; 57   : 	p_pIChartOCX->SetStyleValueGridVLineColor(		p_styleData.GetScaleGridColor());

  000ae	8b 37		 mov	 esi, DWORD PTR [edi]
  000b0	8b cb		 mov	 ecx, ebx
  000b2	6a 00		 push	 0
  000b4	e8 00 00 00 00	 call	 ?GetScaleGridColor@CStyleData@@QBEKXZ ; CStyleData::GetScaleGridColor
  000b9	50		 push	 eax
  000ba	8b cf		 mov	 ecx, edi
  000bc	ff 96 d8 01 00
	00		 call	 DWORD PTR [esi+472]

; 58   : 	p_pIChartOCX->SetStyleValueScaleTextColor(		p_styleData.GetScaleTextColor(),	TRUE);

  000c2	8b 37		 mov	 esi, DWORD PTR [edi]
  000c4	8b cb		 mov	 ecx, ebx
  000c6	6a 01		 push	 1
  000c8	e8 00 00 00 00	 call	 ?GetScaleTextColor@CStyleData@@QBEKXZ ; CStyleData::GetScaleTextColor
  000cd	50		 push	 eax
  000ce	8b cf		 mov	 ecx, edi
  000d0	ff 96 dc 01 00
	00		 call	 DWORD PTR [esi+476]

; 59   : 
; 60   : 	// (2007/7/3 - Seung-Won, Bae) Vertical & Horizontal Scale Grid Type Notify Skip Flag
; 61   : 	if( !p_bSkipVerticalScaleGrid)		p_pIChartOCX->SetAllVertScaleGridType(		p_styleData.GetDivideHeight(),		TRUE);

  000d6	83 7d 18 00	 cmp	 DWORD PTR _p_bSkipVerticalScaleGrid$[ebp], 0
  000da	75 14		 jne	 SHORT $LN3@SetStyleDa
  000dc	8b 37		 mov	 esi, DWORD PTR [edi]
  000de	8b cb		 mov	 ecx, ebx
  000e0	6a 01		 push	 1
  000e2	e8 00 00 00 00	 call	 ?GetDivideHeight@CStyleData@@QBEHXZ ; CStyleData::GetDivideHeight
  000e7	50		 push	 eax
  000e8	8b cf		 mov	 ecx, edi
  000ea	ff 96 e4 01 00
	00		 call	 DWORD PTR [esi+484]
$LN3@SetStyleDa:

; 62   : 	if( !p_bSkipHorizontalScaleGrid)	p_pIChartOCX->SetAllHorzScaleGridType(		p_styleData.GetDivideWidth(),		TRUE);

  000f0	83 7d 1c 00	 cmp	 DWORD PTR _p_bSkipHorizontalScaleGrid$[ebp], 0
  000f4	75 14		 jne	 SHORT $LN4@SetStyleDa
  000f6	8b 37		 mov	 esi, DWORD PTR [edi]
  000f8	8b cb		 mov	 ecx, ebx
  000fa	6a 01		 push	 1
  000fc	e8 00 00 00 00	 call	 ?GetDivideWidth@CStyleData@@QBEHXZ ; CStyleData::GetDivideWidth
  00101	50		 push	 eax
  00102	8b cf		 mov	 ecx, edi
  00104	ff 96 e0 01 00
	00		 call	 DWORD PTR [esi+480]
$LN4@SetStyleDa:

; 63   : 
; 64   : 	//scale   : Update in OnDraw
; 65   : 	p_pIChartOCX->SetStyleValueScaleBGColor(		p_styleData.GetScaleBGColor());

  0010a	8b 37		 mov	 esi, DWORD PTR [edi]
  0010c	8b cb		 mov	 ecx, ebx
  0010e	e8 00 00 00 00	 call	 ?GetScaleBGColor@CStyleData@@QBEKXZ ; CStyleData::GetScaleBGColor
  00113	50		 push	 eax
  00114	8b cf		 mov	 ecx, edi
  00116	ff 96 e8 01 00
	00		 call	 DWORD PTR [esi+488]

; 66   : 	p_pIChartOCX->SetStyleValueScaleBorderColor(	p_styleData.GetScaleBorderColor());

  0011c	8b 37		 mov	 esi, DWORD PTR [edi]
  0011e	8b cb		 mov	 ecx, ebx
  00120	e8 00 00 00 00	 call	 ?GetScaleBorderColor@CStyleData@@QBEKXZ ; CStyleData::GetScaleBorderColor
  00125	50		 push	 eax
  00126	8b cf		 mov	 ecx, edi
  00128	ff 96 ec 01 00
	00		 call	 DWORD PTR [esi+492]

; 67   : 
; 68   : 	//Analysis tool	: Update in EAI_ALL_APPLY_STYLE
; 69   : 	// (2007/5/2 - Seung-Won, Bae) Analysis Color Notify Skip Flag
; 70   : 	if( !p_bSkipAnalysisColor) p_pIChartOCX->SetStyleValueAnalysisToolColor(	p_styleData.GetAnalyzeColor());

  0012e	83 7d 14 00	 cmp	 DWORD PTR _p_bSkipAnalysisColor$[ebp], 0
  00132	75 12		 jne	 SHORT $LN5@SetStyleDa
  00134	8b 37		 mov	 esi, DWORD PTR [edi]
  00136	8b cb		 mov	 ecx, ebx
  00138	e8 00 00 00 00	 call	 ?GetAnalyzeColor@CStyleData@@QBEKXZ ; CStyleData::GetAnalyzeColor
  0013d	50		 push	 eax
  0013e	8b cf		 mov	 ecx, edi
  00140	ff 96 f0 01 00
	00		 call	 DWORD PTR [esi+496]
$LN5@SetStyleDa:

; 71   : 
; 72   : 
; 73   : 	////KHD : 
; 74   : 	p_pIChartOCX->SetStyleValueHScaleGridColor_TimeGubun(p_styleData.GetHScaleGridColor_Day(),p_styleData.GetHScaleGridColor_Week(),p_styleData.GetHScaleGridColor_Mon(),p_styleData.GetHScaleGridColor_Year(),		TRUE);// 

  00146	8b 07		 mov	 eax, DWORD PTR [edi]
  00148	8b cf		 mov	 ecx, edi
  0014a	6a 01		 push	 1
  0014c	ff b3 d4 00 00
	00		 push	 DWORD PTR [ebx+212]
  00152	ff b3 d0 00 00
	00		 push	 DWORD PTR [ebx+208]
  00158	ff b3 cc 00 00
	00		 push	 DWORD PTR [ebx+204]
  0015e	ff b3 c8 00 00
	00		 push	 DWORD PTR [ebx+200]
  00164	ff 90 50 02 00
	00		 call	 DWORD PTR [eax+592]

; 75   : 	//// 
; 76   : 	p_pIChartOCX->SetStyleValueScaleLineThickness_TimeGubun(CScaleBaseData::MINTICK_DAY_GUBUN,	p_styleData.GetScaleLineThickness_Day());

  0016a	ff b3 d8 00 00
	00		 push	 DWORD PTR [ebx+216]
  00170	8b 07		 mov	 eax, DWORD PTR [edi]
  00172	8b cf		 mov	 ecx, edi
  00174	6a 00		 push	 0
  00176	ff 90 54 02 00
	00		 call	 DWORD PTR [eax+596]

; 77   : 	p_pIChartOCX->SetStyleValueScaleLineThickness_TimeGubun(CScaleBaseData::DAYCHART_WEEK_GUBUN,	p_styleData.GetScaleLineThickness_Week());

  0017c	ff b3 dc 00 00
	00		 push	 DWORD PTR [ebx+220]
  00182	8b 07		 mov	 eax, DWORD PTR [edi]
  00184	8b cf		 mov	 ecx, edi
  00186	6a 01		 push	 1
  00188	ff 90 54 02 00
	00		 call	 DWORD PTR [eax+596]

; 78   : 	p_pIChartOCX->SetStyleValueScaleLineThickness_TimeGubun(CScaleBaseData::DAYCHART_MON_GUBUN,	p_styleData.GetScaleLineThickness_Mon());

  0018e	ff b3 e0 00 00
	00		 push	 DWORD PTR [ebx+224]
  00194	8b 07		 mov	 eax, DWORD PTR [edi]
  00196	8b cf		 mov	 ecx, edi
  00198	6a 02		 push	 2
  0019a	ff 90 54 02 00
	00		 call	 DWORD PTR [eax+596]

; 79   : 	p_pIChartOCX->SetStyleValueScaleLineThickness_TimeGubun(CScaleBaseData::DAYCHART_YEAR_GUBUN,	p_styleData.GetScaleLineThickness_Year());

  001a0	ff b3 e4 00 00
	00		 push	 DWORD PTR [ebx+228]
  001a6	8b 07		 mov	 eax, DWORD PTR [edi]
  001a8	8b cf		 mov	 ecx, edi
  001aa	6a 03		 push	 3
  001ac	ff 90 54 02 00
	00		 call	 DWORD PTR [eax+596]

; 80   : 	
; 81   : 	// .	: Update in EAI_ALL_APPLY_STYLE
; 82   : 	p_pIChartOCX->SetStyleValueNIDLGColor(			p_styleData.GetNumericalColor());

  001b2	8b 37		 mov	 esi, DWORD PTR [edi]
  001b4	8b cb		 mov	 ecx, ebx
  001b6	e8 00 00 00 00	 call	 ?GetNumericalColor@CStyleData@@QBEKXZ ; CStyleData::GetNumericalColor
  001bb	50		 push	 eax
  001bc	8b cf		 mov	 ecx, edi
  001be	ff 96 f4 01 00
	00		 call	 DWORD PTR [esi+500]

; 83   : 
; 84   : 	// (2009/9/22 - Seung-Won, Bae) Use SetStyleDataToIndex();
; 85   : 	ILPCSTR szRQ = p_pIChartOCX->GetCurrentRQ();

  001c4	8b 07		 mov	 eax, DWORD PTR [edi]
  001c6	8b cf		 mov	 ecx, edi
  001c8	ff 90 28 02 00
	00		 call	 DWORD PTR [eax+552]
; File D:\git\src\IBK\IBK_DRFN\ProjSrc\SrcChartEx\ChartAddIn\ChartEnvSetupDlgAddIn\Include_AddIn_135914\I135914\_IString.h

; 39   : 		m_pIStrData = p_pIString;	// Do not AddRef(). Because It must be Return Value.

  001ce	89 45 d4	 mov	 DWORD PTR _szRQ$[ebp+4], eax

; 40   : 		if( m_pIStrData) m_szData = m_pIStrData->GetData();

  001d1	85 c0		 test	 eax, eax
  001d3	74 0c		 je	 SHORT $LN18@SetStyleDa
  001d5	8b 10		 mov	 edx, DWORD PTR [eax]
  001d7	8b c8		 mov	 ecx, eax
  001d9	ff 52 10	 call	 DWORD PTR [edx+16]
  001dc	89 45 d0	 mov	 DWORD PTR _szRQ$[ebp], eax
  001df	eb 07		 jmp	 SHORT $LN19@SetStyleDa
$LN18@SetStyleDa:

; 41   : 		else m_szData = NULL;

  001e1	c7 45 d0 00 00
	00 00		 mov	 DWORD PTR _szRQ$[ebp], 0
$LN19@SetStyleDa:
; File D:\git\src\IBK\IBK_DRFN\ProjSrc\SrcChartEx\ChartAddIn\ChartEnvSetupDlgAddIn\ChartEnvSetupDlgAddIn\StyleDataManager.cpp

; 86   : 	IChartManager *pIChartManager = p_pIChartOCX->GetIChartManager();

  001e8	8b 07		 mov	 eax, DWORD PTR [edi]
  001ea	8b cf		 mov	 ecx, edi
  001ec	c7 45 fc 00 00
	00 00		 mov	 DWORD PTR __$EHRec$[ebp+8], 0
  001f3	ff 50 18	 call	 DWORD PTR [eax+24]
  001f6	8b f0		 mov	 esi, eax

; 87   : 	if( !pIChartManager) return;

  001f8	85 f6		 test	 esi, esi
  001fa	0f 84 ed 01 00
	00		 je	 $LN53@SetStyleDa

; 89   : 	ILPCSTR szGraphName = pIChartManager->FindFirstIndicator( _MTEXT( C2_PRICE_CHART), nR, nC, nV, nG, szRQ);

  00200	ff 75 d0	 push	 DWORD PTR _szRQ$[ebp]
  00203	8d 45 0c	 lea	 eax, DWORD PTR _nG$[ebp]
  00206	c7 45 e8 ff ff
	ff ff		 mov	 DWORD PTR _nR$[ebp], -1
  0020d	50		 push	 eax
  0020e	8d 45 f0	 lea	 eax, DWORD PTR _nV$[ebp]
  00211	c7 45 ec ff ff
	ff ff		 mov	 DWORD PTR _nC$[ebp], -1
  00218	50		 push	 eax
  00219	8d 45 ec	 lea	 eax, DWORD PTR _nC$[ebp]
  0021c	c7 45 f0 ff ff
	ff ff		 mov	 DWORD PTR _nV$[ebp], -1
  00223	50		 push	 eax
  00224	8d 45 e8	 lea	 eax, DWORD PTR _nR$[ebp]
  00227	c7 45 0c ff ff
	ff ff		 mov	 DWORD PTR _nG$[ebp], -1
  0022e	8b 16		 mov	 edx, DWORD PTR [esi]
  00230	8b ce		 mov	 ecx, esi
  00232	50		 push	 eax
  00233	a1 54 00 00 00	 mov	 eax, DWORD PTR ?g_iMetaTable@@3VIMetaTable@@A+84
  00238	ff b0 28 03 00
	00		 push	 DWORD PTR [eax+808]
  0023e	ff 52 58	 call	 DWORD PTR [edx+88]
; File D:\git\src\IBK\IBK_DRFN\ProjSrc\SrcChartEx\ChartAddIn\ChartEnvSetupDlgAddIn\Include_AddIn_135914\I135914\_IString.h

; 39   : 		m_pIStrData = p_pIString;	// Do not AddRef(). Because It must be Return Value.

  00241	89 45 dc	 mov	 DWORD PTR _szGraphName$[ebp+4], eax

; 40   : 		if( m_pIStrData) m_szData = m_pIStrData->GetData();

  00244	85 c0		 test	 eax, eax
  00246	74 09		 je	 SHORT $LN22@SetStyleDa
  00248	8b 10		 mov	 edx, DWORD PTR [eax]
  0024a	8b c8		 mov	 ecx, eax
  0024c	ff 52 10	 call	 DWORD PTR [edx+16]
  0024f	eb 02		 jmp	 SHORT $LN64@SetStyleDa
$LN22@SetStyleDa:

; 41   : 		else m_szData = NULL;

  00251	33 c0		 xor	 eax, eax
$LN64@SetStyleDa:
; File D:\git\src\IBK\IBK_DRFN\ProjSrc\SrcChartEx\ChartAddIn\ChartEnvSetupDlgAddIn\ChartEnvSetupDlgAddIn\StyleDataManager.cpp

; 89   : 	ILPCSTR szGraphName = pIChartManager->FindFirstIndicator( _MTEXT( C2_PRICE_CHART), nR, nC, nV, nG, szRQ);

  00253	89 45 d8	 mov	 DWORD PTR _szGraphName$[ebp], eax
  00256	c6 45 fc 01	 mov	 BYTE PTR __$EHRec$[ebp+8], 1
; File D:\git\src\IBK\IBK_DRFN\ProjSrc\SrcChartEx\ChartAddIn\ChartEnvSetupDlgAddIn\Include_AddIn_135914\I135914\_IString.h

; 57   : 		if( !m_szData) return TRUE;

  0025a	85 c0		 test	 eax, eax
  0025c	74 10		 je	 SHORT $LN7@SetStyleDa
; File D:\git\src\IBK\IBK_DRFN\ProjSrc\SrcChartEx\ChartAddIn\ChartEnvSetupDlgAddIn\ChartEnvSetupDlgAddIn\StyleDataManager.cpp

; 90   : 	if( !szGraphName.IsEmpty()) SetStyleDataToIndex( p_styleData, p_pIChartOCX, szGraphName);

  0025e	80 38 00	 cmp	 BYTE PTR [eax], 0
  00261	74 0b		 je	 SHORT $LN7@SetStyleDa
  00263	50		 push	 eax
  00264	57		 push	 edi
  00265	53		 push	 ebx
  00266	e8 00 00 00 00	 call	 ?SetStyleDataToIndex@CStyleDataManager@@SAXAAVCStyleData@@PAUIChartOCX135914@@PBD@Z ; CStyleDataManager::SetStyleDataToIndex
  0026b	83 c4 0c	 add	 esp, 12			; 0000000cH
$LN7@SetStyleDa:

; 91   : 	szGraphName = pIChartManager->FindFirstIndicator( _MTEXT( C2_PRICE_MA), nR, nC, nV, nG, szRQ);

  0026e	ff 75 d0	 push	 DWORD PTR _szRQ$[ebp]
  00271	8b 16		 mov	 edx, DWORD PTR [esi]
  00273	8d 45 0c	 lea	 eax, DWORD PTR _nG$[ebp]
  00276	50		 push	 eax
  00277	8d 45 f0	 lea	 eax, DWORD PTR _nV$[ebp]
  0027a	8b ce		 mov	 ecx, esi
  0027c	50		 push	 eax
  0027d	8d 45 ec	 lea	 eax, DWORD PTR _nC$[ebp]
  00280	50		 push	 eax
  00281	8d 45 e8	 lea	 eax, DWORD PTR _nR$[ebp]
  00284	50		 push	 eax
  00285	a1 54 00 00 00	 mov	 eax, DWORD PTR ?g_iMetaTable@@3VIMetaTable@@A+84
  0028a	ff b0 20 03 00
	00		 push	 DWORD PTR [eax+800]
  00290	ff 52 58	 call	 DWORD PTR [edx+88]
  00293	8b c8		 mov	 ecx, eax
; File D:\git\src\IBK\IBK_DRFN\ProjSrc\SrcChartEx\ChartAddIn\ChartEnvSetupDlgAddIn\Include_AddIn_135914\I135914\_IString.h

; 67   : 		if( m_pIStrData) m_pIStrData->Release();

  00295	8b 45 dc	 mov	 eax, DWORD PTR _szGraphName$[ebp+4]
; File D:\git\src\IBK\IBK_DRFN\ProjSrc\SrcChartEx\ChartAddIn\ChartEnvSetupDlgAddIn\ChartEnvSetupDlgAddIn\StyleDataManager.cpp

; 91   : 	szGraphName = pIChartManager->FindFirstIndicator( _MTEXT( C2_PRICE_MA), nR, nC, nV, nG, szRQ);

  00298	89 4d e4	 mov	 DWORD PTR _stringSrc$1$[ebp], ecx
; File D:\git\src\IBK\IBK_DRFN\ProjSrc\SrcChartEx\ChartAddIn\ChartEnvSetupDlgAddIn\Include_AddIn_135914\I135914\_IString.h

; 67   : 		if( m_pIStrData) m_pIStrData->Release();

  0029b	85 c0		 test	 eax, eax
  0029d	74 09		 je	 SHORT $LN29@SetStyleDa
  0029f	8b 08		 mov	 ecx, DWORD PTR [eax]
  002a1	50		 push	 eax
  002a2	ff 51 08	 call	 DWORD PTR [ecx+8]
  002a5	8b 4d e4	 mov	 ecx, DWORD PTR _stringSrc$1$[ebp]
$LN29@SetStyleDa:

; 68   : 		m_pIStrData = stringSrc;	// Do not AddRef(). Because It must be Return Value.

  002a8	89 4d dc	 mov	 DWORD PTR _szGraphName$[ebp+4], ecx
  002ab	85 c9		 test	 ecx, ecx

; 69   : 		if( m_pIStrData) m_szData = m_pIStrData->GetData();

  002ad	74 1e		 je	 SHORT $LN30@SetStyleDa
  002af	8b 01		 mov	 eax, DWORD PTR [ecx]
  002b1	ff 50 10	 call	 DWORD PTR [eax+16]
  002b4	89 45 d8	 mov	 DWORD PTR _szGraphName$[ebp], eax

; 57   : 		if( !m_szData) return TRUE;

  002b7	85 c0		 test	 eax, eax
  002b9	74 19		 je	 SHORT $LN8@SetStyleDa
; File D:\git\src\IBK\IBK_DRFN\ProjSrc\SrcChartEx\ChartAddIn\ChartEnvSetupDlgAddIn\ChartEnvSetupDlgAddIn\StyleDataManager.cpp

; 92   : 	if( !szGraphName.IsEmpty()) SetStyleDataToIndex( p_styleData, p_pIChartOCX, szGraphName);

  002bb	80 38 00	 cmp	 BYTE PTR [eax], 0
  002be	74 14		 je	 SHORT $LN8@SetStyleDa
  002c0	50		 push	 eax
  002c1	57		 push	 edi
  002c2	53		 push	 ebx
  002c3	e8 00 00 00 00	 call	 ?SetStyleDataToIndex@CStyleDataManager@@SAXAAVCStyleData@@PAUIChartOCX135914@@PBD@Z ; CStyleDataManager::SetStyleDataToIndex
  002c8	83 c4 0c	 add	 esp, 12			; 0000000cH
  002cb	eb 07		 jmp	 SHORT $LN8@SetStyleDa
$LN30@SetStyleDa:
; File D:\git\src\IBK\IBK_DRFN\ProjSrc\SrcChartEx\ChartAddIn\ChartEnvSetupDlgAddIn\Include_AddIn_135914\I135914\_IString.h

; 70   : 		else m_szData = NULL;

  002cd	c7 45 d8 00 00
	00 00		 mov	 DWORD PTR _szGraphName$[ebp], 0
$LN8@SetStyleDa:
; File D:\git\src\IBK\IBK_DRFN\ProjSrc\SrcChartEx\ChartAddIn\ChartEnvSetupDlgAddIn\ChartEnvSetupDlgAddIn\StyleDataManager.cpp

; 93   : 	szGraphName = pIChartManager->FindFirstIndicator( _MTEXT( C2_VOLUME_CHART), nR, nC, nV, nG, szRQ);

  002d4	ff 75 d0	 push	 DWORD PTR _szRQ$[ebp]
  002d7	8b 16		 mov	 edx, DWORD PTR [esi]
  002d9	8d 45 0c	 lea	 eax, DWORD PTR _nG$[ebp]
  002dc	50		 push	 eax
  002dd	8d 45 f0	 lea	 eax, DWORD PTR _nV$[ebp]
  002e0	8b ce		 mov	 ecx, esi
  002e2	50		 push	 eax
  002e3	8d 45 ec	 lea	 eax, DWORD PTR _nC$[ebp]
  002e6	50		 push	 eax
  002e7	8d 45 e8	 lea	 eax, DWORD PTR _nR$[ebp]
  002ea	50		 push	 eax
  002eb	a1 54 00 00 00	 mov	 eax, DWORD PTR ?g_iMetaTable@@3VIMetaTable@@A+84
  002f0	ff b0 2c 03 00
	00		 push	 DWORD PTR [eax+812]
  002f6	ff 52 58	 call	 DWORD PTR [edx+88]
  002f9	8b c8		 mov	 ecx, eax
; File D:\git\src\IBK\IBK_DRFN\ProjSrc\SrcChartEx\ChartAddIn\ChartEnvSetupDlgAddIn\Include_AddIn_135914\I135914\_IString.h

; 67   : 		if( m_pIStrData) m_pIStrData->Release();

  002fb	8b 45 e4	 mov	 eax, DWORD PTR _stringSrc$1$[ebp]
; File D:\git\src\IBK\IBK_DRFN\ProjSrc\SrcChartEx\ChartAddIn\ChartEnvSetupDlgAddIn\ChartEnvSetupDlgAddIn\StyleDataManager.cpp

; 93   : 	szGraphName = pIChartManager->FindFirstIndicator( _MTEXT( C2_VOLUME_CHART), nR, nC, nV, nG, szRQ);

  002fe	89 4d e0	 mov	 DWORD PTR _stringSrc$1$[ebp], ecx
; File D:\git\src\IBK\IBK_DRFN\ProjSrc\SrcChartEx\ChartAddIn\ChartEnvSetupDlgAddIn\Include_AddIn_135914\I135914\_IString.h

; 67   : 		if( m_pIStrData) m_pIStrData->Release();

  00301	85 c0		 test	 eax, eax
  00303	74 09		 je	 SHORT $LN37@SetStyleDa
  00305	8b 08		 mov	 ecx, DWORD PTR [eax]
  00307	50		 push	 eax
  00308	ff 51 08	 call	 DWORD PTR [ecx+8]
  0030b	8b 4d e0	 mov	 ecx, DWORD PTR _stringSrc$1$[ebp]
$LN37@SetStyleDa:

; 68   : 		m_pIStrData = stringSrc;	// Do not AddRef(). Because It must be Return Value.

  0030e	89 4d dc	 mov	 DWORD PTR _szGraphName$[ebp+4], ecx
  00311	85 c9		 test	 ecx, ecx

; 69   : 		if( m_pIStrData) m_szData = m_pIStrData->GetData();

  00313	74 1e		 je	 SHORT $LN38@SetStyleDa
  00315	8b 01		 mov	 eax, DWORD PTR [ecx]
  00317	ff 50 10	 call	 DWORD PTR [eax+16]
  0031a	89 45 d8	 mov	 DWORD PTR _szGraphName$[ebp], eax

; 57   : 		if( !m_szData) return TRUE;

  0031d	85 c0		 test	 eax, eax
  0031f	74 19		 je	 SHORT $LN9@SetStyleDa
; File D:\git\src\IBK\IBK_DRFN\ProjSrc\SrcChartEx\ChartAddIn\ChartEnvSetupDlgAddIn\ChartEnvSetupDlgAddIn\StyleDataManager.cpp

; 94   : 	if( !szGraphName.IsEmpty()) SetStyleDataToIndex( p_styleData, p_pIChartOCX, szGraphName);

  00321	80 38 00	 cmp	 BYTE PTR [eax], 0
  00324	74 14		 je	 SHORT $LN9@SetStyleDa
  00326	50		 push	 eax
  00327	57		 push	 edi
  00328	53		 push	 ebx
  00329	e8 00 00 00 00	 call	 ?SetStyleDataToIndex@CStyleDataManager@@SAXAAVCStyleData@@PAUIChartOCX135914@@PBD@Z ; CStyleDataManager::SetStyleDataToIndex
  0032e	83 c4 0c	 add	 esp, 12			; 0000000cH
  00331	eb 07		 jmp	 SHORT $LN9@SetStyleDa
$LN38@SetStyleDa:
; File D:\git\src\IBK\IBK_DRFN\ProjSrc\SrcChartEx\ChartAddIn\ChartEnvSetupDlgAddIn\Include_AddIn_135914\I135914\_IString.h

; 70   : 		else m_szData = NULL;

  00333	c7 45 d8 00 00
	00 00		 mov	 DWORD PTR _szGraphName$[ebp], 0
$LN9@SetStyleDa:
; File D:\git\src\IBK\IBK_DRFN\ProjSrc\SrcChartEx\ChartAddIn\ChartEnvSetupDlgAddIn\ChartEnvSetupDlgAddIn\StyleDataManager.cpp

; 95   : 	szGraphName = pIChartManager->FindFirstIndicator( _MTEXT( C2_VOLUME_MA), nR, nC, nV, nG, szRQ);

  0033a	ff 75 d0	 push	 DWORD PTR _szRQ$[ebp]
  0033d	8b 16		 mov	 edx, DWORD PTR [esi]
  0033f	8d 45 0c	 lea	 eax, DWORD PTR _nG$[ebp]
  00342	50		 push	 eax
  00343	8d 45 f0	 lea	 eax, DWORD PTR _nV$[ebp]
  00346	8b ce		 mov	 ecx, esi
  00348	50		 push	 eax
  00349	8d 45 ec	 lea	 eax, DWORD PTR _nC$[ebp]
  0034c	50		 push	 eax
  0034d	8d 45 e8	 lea	 eax, DWORD PTR _nR$[ebp]
  00350	50		 push	 eax
  00351	a1 54 00 00 00	 mov	 eax, DWORD PTR ?g_iMetaTable@@3VIMetaTable@@A+84
  00356	ff b0 24 03 00
	00		 push	 DWORD PTR [eax+804]
  0035c	ff 52 58	 call	 DWORD PTR [edx+88]
  0035f	8b c8		 mov	 ecx, eax
; File D:\git\src\IBK\IBK_DRFN\ProjSrc\SrcChartEx\ChartAddIn\ChartEnvSetupDlgAddIn\Include_AddIn_135914\I135914\_IString.h

; 67   : 		if( m_pIStrData) m_pIStrData->Release();

  00361	8b 45 e0	 mov	 eax, DWORD PTR _stringSrc$1$[ebp]
; File D:\git\src\IBK\IBK_DRFN\ProjSrc\SrcChartEx\ChartAddIn\ChartEnvSetupDlgAddIn\ChartEnvSetupDlgAddIn\StyleDataManager.cpp

; 95   : 	szGraphName = pIChartManager->FindFirstIndicator( _MTEXT( C2_VOLUME_MA), nR, nC, nV, nG, szRQ);

  00364	89 4d e4	 mov	 DWORD PTR _stringSrc$1$[ebp], ecx
; File D:\git\src\IBK\IBK_DRFN\ProjSrc\SrcChartEx\ChartAddIn\ChartEnvSetupDlgAddIn\Include_AddIn_135914\I135914\_IString.h

; 67   : 		if( m_pIStrData) m_pIStrData->Release();

  00367	85 c0		 test	 eax, eax
  00369	74 09		 je	 SHORT $LN45@SetStyleDa
  0036b	8b 08		 mov	 ecx, DWORD PTR [eax]
  0036d	50		 push	 eax
  0036e	ff 51 08	 call	 DWORD PTR [ecx+8]
  00371	8b 4d e4	 mov	 ecx, DWORD PTR _stringSrc$1$[ebp]
$LN45@SetStyleDa:

; 68   : 		m_pIStrData = stringSrc;	// Do not AddRef(). Because It must be Return Value.

  00374	89 4d dc	 mov	 DWORD PTR _szGraphName$[ebp+4], ecx
  00377	85 c9		 test	 ecx, ecx

; 69   : 		if( m_pIStrData) m_szData = m_pIStrData->GetData();

  00379	74 1e		 je	 SHORT $LN46@SetStyleDa
  0037b	8b 01		 mov	 eax, DWORD PTR [ecx]
  0037d	ff 50 10	 call	 DWORD PTR [eax+16]
  00380	89 45 d8	 mov	 DWORD PTR _szGraphName$[ebp], eax

; 57   : 		if( !m_szData) return TRUE;

  00383	85 c0		 test	 eax, eax
  00385	74 19		 je	 SHORT $LN10@SetStyleDa
; File D:\git\src\IBK\IBK_DRFN\ProjSrc\SrcChartEx\ChartAddIn\ChartEnvSetupDlgAddIn\ChartEnvSetupDlgAddIn\StyleDataManager.cpp

; 96   : 	if( !szGraphName.IsEmpty()) SetStyleDataToIndex( p_styleData, p_pIChartOCX, szGraphName);

  00387	80 38 00	 cmp	 BYTE PTR [eax], 0
  0038a	74 14		 je	 SHORT $LN10@SetStyleDa
  0038c	50		 push	 eax
  0038d	57		 push	 edi
  0038e	53		 push	 ebx
  0038f	e8 00 00 00 00	 call	 ?SetStyleDataToIndex@CStyleDataManager@@SAXAAVCStyleData@@PAUIChartOCX135914@@PBD@Z ; CStyleDataManager::SetStyleDataToIndex
  00394	83 c4 0c	 add	 esp, 12			; 0000000cH
  00397	eb 07		 jmp	 SHORT $LN10@SetStyleDa
$LN46@SetStyleDa:
; File D:\git\src\IBK\IBK_DRFN\ProjSrc\SrcChartEx\ChartAddIn\ChartEnvSetupDlgAddIn\Include_AddIn_135914\I135914\_IString.h

; 70   : 		else m_szData = NULL;

  00399	c7 45 d8 00 00
	00 00		 mov	 DWORD PTR _szGraphName$[ebp], 0
$LN10@SetStyleDa:
; File D:\git\src\IBK\IBK_DRFN\ProjSrc\SrcChartEx\ChartAddIn\ChartEnvSetupDlgAddIn\ChartEnvSetupDlgAddIn\StyleDataManager.cpp

; 97   : 	pIChartManager->Release();

  003a0	8b 06		 mov	 eax, DWORD PTR [esi]
  003a2	56		 push	 esi
  003a3	ff 50 08	 call	 DWORD PTR [eax+8]

; 98   : 
; 99   : 	if( p_bResetSaveCFG) p_pIChartOCX->SaveChartCFG_ResetWithCurrentStyle();

  003a6	83 7d 10 00	 cmp	 DWORD PTR _p_bResetSaveCFG$[ebp], 0
  003aa	74 0a		 je	 SHORT $LN11@SetStyleDa
  003ac	8b 07		 mov	 eax, DWORD PTR [edi]
  003ae	8b cf		 mov	 ecx, edi
  003b0	ff 90 04 02 00
	00		 call	 DWORD PTR [eax+516]
$LN11@SetStyleDa:

; 100  :  
; 101  : 	// (2006/1/26 - Seung-Won, Bae) Apply Style to AddIn Tools
; 102  : 	IAddInToolMgr *pIAddInToolMgr = p_pIChartOCX->GetIAddInToolMgr();

  003b6	8b 07		 mov	 eax, DWORD PTR [edi]
  003b8	8b cf		 mov	 ecx, edi
  003ba	ff 50 24	 call	 DWORD PTR [eax+36]
  003bd	8b f0		 mov	 esi, eax

; 103  : 	if( pIAddInToolMgr)

  003bf	85 f6		 test	 esi, esi
  003c1	74 12		 je	 SHORT $LN12@SetStyleDa

; 104  : 	{
; 105  : 		pIAddInToolMgr->OnAddInToolCommand( EAI_ALL_APPLY_STYLE);

  003c3	8b 16		 mov	 edx, DWORD PTR [esi]
  003c5	8b ce		 mov	 ecx, esi
  003c7	6a 18		 push	 24			; 00000018H
  003c9	ff 92 88 00 00
	00		 call	 DWORD PTR [edx+136]

; 106  : 		pIAddInToolMgr->Release();

  003cf	8b 16		 mov	 edx, DWORD PTR [esi]
  003d1	56		 push	 esi
  003d2	ff 52 08	 call	 DWORD PTR [edx+8]
$LN12@SetStyleDa:

; 107  : 	}
; 108  : 
; 109  : 	p_pIChartOCX->InvalidateControl();

  003d5	8b 07		 mov	 eax, DWORD PTR [edi]
  003d7	8b cf		 mov	 ecx, edi
  003d9	ff 50 38	 call	 DWORD PTR [eax+56]
; File D:\git\src\IBK\IBK_DRFN\ProjSrc\SrcChartEx\ChartAddIn\ChartEnvSetupDlgAddIn\Include_AddIn_135914\I135914\_IString.h

; 45   : 		if( m_pIStrData)

  003dc	8b 4d e4	 mov	 ecx, DWORD PTR _stringSrc$1$[ebp]
  003df	c6 45 fc 02	 mov	 BYTE PTR __$EHRec$[ebp+8], 2
  003e3	85 c9		 test	 ecx, ecx
  003e5	74 06		 je	 SHORT $LN53@SetStyleDa

; 46   : 		{
; 47   : 			m_pIStrData->Release();

  003e7	8b 01		 mov	 eax, DWORD PTR [ecx]
  003e9	51		 push	 ecx
  003ea	ff 50 08	 call	 DWORD PTR [eax+8]
$LN53@SetStyleDa:

; 45   : 		if( m_pIStrData)

  003ed	8b 4d d4	 mov	 ecx, DWORD PTR _szRQ$[ebp+4]
  003f0	c7 45 fc 03 00
	00 00		 mov	 DWORD PTR __$EHRec$[ebp+8], 3
  003f7	85 c9		 test	 ecx, ecx
  003f9	74 06		 je	 SHORT $LN57@SetStyleDa

; 46   : 		{
; 47   : 			m_pIStrData->Release();

  003fb	8b 01		 mov	 eax, DWORD PTR [ecx]
  003fd	51		 push	 ecx
  003fe	ff 50 08	 call	 DWORD PTR [eax+8]
$LN57@SetStyleDa:
; File D:\git\src\IBK\IBK_DRFN\ProjSrc\SrcChartEx\ChartAddIn\ChartEnvSetupDlgAddIn\ChartEnvSetupDlgAddIn\StyleDataManager.cpp

; 110  : }

  00401	8b 4d f4	 mov	 ecx, DWORD PTR __$EHRec$[ebp]
  00404	64 89 0d 00 00
	00 00		 mov	 DWORD PTR fs:0, ecx
  0040b	59		 pop	 ecx
  0040c	5f		 pop	 edi
  0040d	5e		 pop	 esi
  0040e	5b		 pop	 ebx
  0040f	8b e5		 mov	 esp, ebp
  00411	5d		 pop	 ebp
  00412	c3		 ret	 0
_TEXT	ENDS
;	COMDAT text$x
text$x	SEGMENT
__unwindfunclet$?SetStyleDataToOCX@CStyleDataManager@@SAXAAVCStyleData@@PAUIChartOCX135914@@HHHH@Z$0:
  00000	8d 4d d0	 lea	 ecx, DWORD PTR _szRQ$[ebp]
  00003	e9 00 00 00 00	 jmp	 ??1ILPCSTR135914@@QAE@XZ ; ILPCSTR135914::~ILPCSTR135914
__unwindfunclet$?SetStyleDataToOCX@CStyleDataManager@@SAXAAVCStyleData@@PAUIChartOCX135914@@HHHH@Z$1:
  00008	8d 4d d8	 lea	 ecx, DWORD PTR _szGraphName$[ebp]
  0000b	e9 00 00 00 00	 jmp	 ??1ILPCSTR135914@@QAE@XZ ; ILPCSTR135914::~ILPCSTR135914
  00010	cc		 int	 3
  00011	cc		 int	 3
  00012	cc		 int	 3
  00013	cc		 int	 3
  00014	cc		 int	 3
__ehhandler$?SetStyleDataToOCX@CStyleDataManager@@SAXAAVCStyleData@@PAUIChartOCX135914@@HHHH@Z:
  00015	90		 npad	 1
  00016	90		 npad	 1
  00017	8b 54 24 08	 mov	 edx, DWORD PTR [esp+8]
  0001b	8d 42 0c	 lea	 eax, DWORD PTR [edx+12]
  0001e	8b 4a cc	 mov	 ecx, DWORD PTR [edx-52]
  00021	33 c8		 xor	 ecx, eax
  00023	e8 00 00 00 00	 call	 @__security_check_cookie@4
  00028	b8 00 00 00 00	 mov	 eax, OFFSET __ehfuncinfo$?SetStyleDataToOCX@CStyleDataManager@@SAXAAVCStyleData@@PAUIChartOCX135914@@HHHH@Z
  0002d	e9 00 00 00 00	 jmp	 ___CxxFrameHandler3
text$x	ENDS
?SetStyleDataToOCX@CStyleDataManager@@SAXAAVCStyleData@@PAUIChartOCX135914@@HHHH@Z ENDP ; CStyleDataManager::SetStyleDataToOCX
; Function compile flags: /Ogtp
; File D:\git\src\IBK\IBK_DRFN\ProjSrc\SrcChartEx\ChartAddIn\ChartEnvSetupDlgAddIn\ChartEnvSetupDlgAddIn\StyleDataManager.cpp
; File C:\Program Files (x86)\Microsoft Visual Studio\2019\Community\VC\Tools\MSVC\14.29.30133\atlmfc\include\afxtempl.h
; File D:\git\src\IBK\IBK_DRFN\ProjSrc\SrcChartEx\ChartAddIn\ChartEnvSetupDlgAddIn\ChartEnvSetupDlgAddIn\StyleDataManager.cpp
; File C:\Program Files (x86)\Microsoft Visual Studio\2019\Community\VC\Tools\MSVC\14.29.30133\atlmfc\include\afxtempl.h
; File D:\git\src\IBK\IBK_DRFN\ProjSrc\SrcChartEx\ChartAddIn\ChartEnvSetupDlgAddIn\ChartEnvSetupDlgAddIn\StyleDataManager.cpp
; File C:\Program Files (x86)\Microsoft Visual Studio\2019\Community\VC\Tools\MSVC\14.29.30133\atlmfc\include\afxtempl.h
; File D:\git\src\IBK\IBK_DRFN\ProjSrc\SrcChartEx\ChartAddIn\ChartEnvSetupDlgAddIn\ChartEnvSetupDlgAddIn\StyleDataManager.cpp
; File C:\Program Files (x86)\Microsoft Visual Studio\2019\Community\VC\Tools\MSVC\14.29.30133\atlmfc\include\afxtempl.h
; File D:\git\src\IBK\IBK_DRFN\ProjSrc\SrcChartEx\ChartAddIn\ChartEnvSetupDlgAddIn\ChartEnvSetupDlgAddIn\StyleDataManager.cpp
; File C:\Program Files (x86)\Microsoft Visual Studio\2019\Community\VC\Tools\MSVC\14.29.30133\atlmfc\include\afxtempl.h
; File D:\git\src\IBK\IBK_DRFN\ProjSrc\SrcChartEx\ChartAddIn\ChartEnvSetupDlgAddIn\ChartEnvSetupDlgAddIn\StyleDataManager.cpp
; File C:\Program Files (x86)\Microsoft Visual Studio\2019\Community\VC\Tools\MSVC\14.29.30133\atlmfc\include\afxtempl.h
; File D:\git\src\IBK\IBK_DRFN\ProjSrc\SrcChartEx\ChartAddIn\ChartEnvSetupDlgAddIn\ChartEnvSetupDlgAddIn\StyleDataManager.cpp
; File C:\Program Files (x86)\Microsoft Visual Studio\2019\Community\VC\Tools\MSVC\14.29.30133\atlmfc\include\afxtempl.h
; File D:\git\src\IBK\IBK_DRFN\ProjSrc\SrcChartEx\ChartAddIn\ChartEnvSetupDlgAddIn\ChartEnvSetupDlgAddIn\StyleDataManager.cpp
;	COMDAT ?RemoveAll@CStyleDataManager@@SAXXZ
_TEXT	SEGMENT
__$EHRec$ = -12						; size = 12
?RemoveAll@CStyleDataManager@@SAXXZ PROC		; CStyleDataManager::RemoveAll, COMDAT

; 41   : {

  00000	55		 push	 ebp
  00001	8b ec		 mov	 ebp, esp
  00003	6a ff		 push	 -1
  00005	68 00 00 00 00	 push	 __ehhandler$?RemoveAll@CStyleDataManager@@SAXXZ
  0000a	64 a1 00 00 00
	00		 mov	 eax, DWORD PTR fs:0
  00010	50		 push	 eax
  00011	56		 push	 esi
  00012	57		 push	 edi
  00013	a1 00 00 00 00	 mov	 eax, DWORD PTR ___security_cookie
  00018	33 c5		 xor	 eax, ebp
  0001a	50		 push	 eax
  0001b	8d 45 f4	 lea	 eax, DWORD PTR __$EHRec$[ebp]
  0001e	64 a3 00 00 00
	00		 mov	 DWORD PTR fs:0, eax
; File C:\Program Files (x86)\Microsoft Visual Studio\2019\Community\VC\Tools\MSVC\14.29.30133\atlmfc\include\afxtempl.h

; 786  : 	{ return m_nCount == 0; }

  00024	83 3d 0c 00 00
	00 00		 cmp	 DWORD PTR ?m_lstStyleDefault@CStyleDataManager@@1V?$CList@PAVCStyleData@@PAV1@@@A+12, 0
; File D:\git\src\IBK\IBK_DRFN\ProjSrc\SrcChartEx\ChartAddIn\ChartEnvSetupDlgAddIn\ChartEnvSetupDlgAddIn\StyleDataManager.cpp

; 42   : 	while( !m_lstStyleDefault.IsEmpty())	delete m_lstStyleDefault.RemoveHead();

  0002b	0f 84 95 01 00
	00		 je	 $LN114@RemoveAll
$LL2@RemoveAll:
; File C:\Program Files (x86)\Microsoft Visual Studio\2019\Community\VC\Tools\MSVC\14.29.30133\atlmfc\include\afxtempl.h

; 1009 : 	ENSURE(m_pNodeHead != NULL);  // don't call on empty list !!!

  00031	8b 0d 04 00 00
	00		 mov	 ecx, DWORD PTR ?m_lstStyleDefault@CStyleDataManager@@1V?$CList@PAVCStyleData@@PAV1@@@A+4
  00037	85 c9		 test	 ecx, ecx
  00039	0f 84 48 03 00
	00		 je	 $LN119@RemoveAll

; 1010 : 	ASSERT(AfxIsValidAddress(m_pNodeHead, sizeof(CNode)));
; 1011 : 
; 1012 : 	CNode* pOldNode = m_pNodeHead;
; 1013 : 	TYPE returnValue = pOldNode->data;
; 1014 : 
; 1015 : 	m_pNodeHead = pOldNode->pNext;

  0003f	8b 01		 mov	 eax, DWORD PTR [ecx]
  00041	8b 79 08	 mov	 edi, DWORD PTR [ecx+8]
  00044	a3 04 00 00 00	 mov	 DWORD PTR ?m_lstStyleDefault@CStyleDataManager@@1V?$CList@PAVCStyleData@@PAV1@@@A+4, eax
  00049	85 c0		 test	 eax, eax

; 1016 : 	if (m_pNodeHead != NULL)

  0004b	74 09		 je	 SHORT $LN18@RemoveAll

; 1017 : 		m_pNodeHead->pPrev = NULL;

  0004d	c7 40 04 00 00
	00 00		 mov	 DWORD PTR [eax+4], 0
  00054	eb 0a		 jmp	 SHORT $LN19@RemoveAll
$LN18@RemoveAll:

; 1018 : 	else
; 1019 : 		m_pNodeTail = NULL;

  00056	c7 05 08 00 00
	00 00 00 00 00	 mov	 DWORD PTR ?m_lstStyleDefault@CStyleDataManager@@1V?$CList@PAVCStyleData@@PAV1@@@A+8, 0
$LN19@RemoveAll:

; 938  : 	pNode->pNext = m_pNodeFree;

  00060	a1 10 00 00 00	 mov	 eax, DWORD PTR ?m_lstStyleDefault@CStyleDataManager@@1V?$CList@PAVCStyleData@@PAV1@@@A+16
  00065	89 01		 mov	 DWORD PTR [ecx], eax

; 939  : 	m_pNodeFree = pNode;
; 940  : 	m_nCount--;

  00067	83 2d 0c 00 00
	00 01		 sub	 DWORD PTR ?m_lstStyleDefault@CStyleDataManager@@1V?$CList@PAVCStyleData@@PAV1@@@A+12, 1
  0006e	89 0d 10 00 00
	00		 mov	 DWORD PTR ?m_lstStyleDefault@CStyleDataManager@@1V?$CList@PAVCStyleData@@PAV1@@@A+16, ecx

; 941  : 	ASSERT(m_nCount >= 0);  // make sure we don't underflow
; 942  : 
; 943  : 	// if no more elements, cleanup completely
; 944  : 	if (m_nCount == 0)

  00074	75 3d		 jne	 SHORT $LN22@RemoveAll

; 872  : 	m_pBlocks->FreeDataChain();

  00076	8b 0d 14 00 00
	00		 mov	 ecx, DWORD PTR ?m_lstStyleDefault@CStyleDataManager@@1V?$CList@PAVCStyleData@@PAV1@@@A+20
  0007c	c7 05 0c 00 00
	00 00 00 00 00	 mov	 DWORD PTR ?m_lstStyleDefault@CStyleDataManager@@1V?$CList@PAVCStyleData@@PAV1@@@A+12, 0
  00086	c7 05 10 00 00
	00 00 00 00 00	 mov	 DWORD PTR ?m_lstStyleDefault@CStyleDataManager@@1V?$CList@PAVCStyleData@@PAV1@@@A+16, 0
  00090	c7 05 08 00 00
	00 00 00 00 00	 mov	 DWORD PTR ?m_lstStyleDefault@CStyleDataManager@@1V?$CList@PAVCStyleData@@PAV1@@@A+8, 0
  0009a	c7 05 04 00 00
	00 00 00 00 00	 mov	 DWORD PTR ?m_lstStyleDefault@CStyleDataManager@@1V?$CList@PAVCStyleData@@PAV1@@@A+4, 0
  000a4	e8 00 00 00 00	 call	 ?FreeDataChain@CPlex@@QAEXXZ ; CPlex::FreeDataChain

; 873  : 	m_pBlocks = NULL;

  000a9	c7 05 14 00 00
	00 00 00 00 00	 mov	 DWORD PTR ?m_lstStyleDefault@CStyleDataManager@@1V?$CList@PAVCStyleData@@PAV1@@@A+20, 0
$LN22@RemoveAll:
; File D:\git\src\IBK\IBK_DRFN\ProjSrc\SrcChartEx\ChartAddIn\ChartEnvSetupDlgAddIn\ChartEnvSetupDlgAddIn\StyleDataManager.cpp

; 42   : 	while( !m_lstStyleDefault.IsEmpty())	delete m_lstStyleDefault.RemoveHead();

  000b3	85 ff		 test	 edi, edi
  000b5	0f 84 fe 00 00
	00		 je	 $LN31@RemoveAll
; File C:\Program Files (x86)\Microsoft Visual Studio\2019\Community\VC\Tools\MSVC\14.29.30133\atlmfc\include\afxtempl.h

; 867  : 	for (pNode = m_pNodeHead; pNode != NULL; pNode = pNode->pNext)

  000bb	8b b7 a0 00 00
	00		 mov	 esi, DWORD PTR [edi+160]

; 878  : {

  000c1	c7 45 fc 00 00
	00 00		 mov	 DWORD PTR __$EHRec$[ebp+8], 0
  000c8	c7 87 9c 00 00
	00 00 00 00 00	 mov	 DWORD PTR [edi+156], OFFSET ??_7?$CList@V?$CStringT@DV?$StrTraitMFC_DLL@DV?$ChTraitsCRT@D@ATL@@@@@ATL@@V12@@@6B@

; 867  : 	for (pNode = m_pNodeHead; pNode != NULL; pNode = pNode->pNext)

  000d2	85 f6		 test	 esi, esi
  000d4	74 0f		 je	 SHORT $LN44@RemoveAll
$LL45@RemoveAll:

; 868  : 		pNode->data.~TYPE();

  000d6	8d 4e 08	 lea	 ecx, DWORD PTR [esi+8]
  000d9	ff 15 00 00 00
	00		 call	 DWORD PTR __imp_??1?$CStringT@DV?$StrTraitMFC_DLL@DV?$ChTraitsCRT@D@ATL@@@@@ATL@@QAE@XZ

; 867  : 	for (pNode = m_pNodeHead; pNode != NULL; pNode = pNode->pNext)

  000df	8b 36		 mov	 esi, DWORD PTR [esi]
  000e1	85 f6		 test	 esi, esi
  000e3	75 f1		 jne	 SHORT $LL45@RemoveAll
$LN44@RemoveAll:

; 869  : 
; 870  : 	m_nCount = 0;
; 871  : 	m_pNodeHead = m_pNodeTail = m_pNodeFree = NULL;
; 872  : 	m_pBlocks->FreeDataChain();

  000e5	8b 8f b0 00 00
	00		 mov	 ecx, DWORD PTR [edi+176]
  000eb	c7 87 a8 00 00
	00 00 00 00 00	 mov	 DWORD PTR [edi+168], 0
  000f5	c7 87 ac 00 00
	00 00 00 00 00	 mov	 DWORD PTR [edi+172], 0
  000ff	c7 87 a4 00 00
	00 00 00 00 00	 mov	 DWORD PTR [edi+164], 0
  00109	c7 87 a0 00 00
	00 00 00 00 00	 mov	 DWORD PTR [edi+160], 0
  00113	e8 00 00 00 00	 call	 ?FreeDataChain@CPlex@@QAEXXZ ; CPlex::FreeDataChain

; 873  : 	m_pBlocks = NULL;

  00118	c7 87 b0 00 00
	00 00 00 00 00	 mov	 DWORD PTR [edi+176], 0

; 867  : 	for (pNode = m_pNodeHead; pNode != NULL; pNode = pNode->pNext)

  00122	8b b7 84 00 00
	00		 mov	 esi, DWORD PTR [edi+132]

; 878  : {

  00128	c7 45 fc 01 00
	00 00		 mov	 DWORD PTR __$EHRec$[ebp+8], 1
  0012f	c7 87 80 00 00
	00 00 00 00 00	 mov	 DWORD PTR [edi+128], OFFSET ??_7?$CList@V?$CStringT@DV?$StrTraitMFC_DLL@DV?$ChTraitsCRT@D@ATL@@@@@ATL@@V12@@@6B@

; 867  : 	for (pNode = m_pNodeHead; pNode != NULL; pNode = pNode->pNext)

  00139	85 f6		 test	 esi, esi
  0013b	74 12		 je	 SHORT $LN55@RemoveAll
  0013d	0f 1f 00	 npad	 3
$LL56@RemoveAll:

; 868  : 		pNode->data.~TYPE();

  00140	8d 4e 08	 lea	 ecx, DWORD PTR [esi+8]
  00143	ff 15 00 00 00
	00		 call	 DWORD PTR __imp_??1?$CStringT@DV?$StrTraitMFC_DLL@DV?$ChTraitsCRT@D@ATL@@@@@ATL@@QAE@XZ

; 867  : 	for (pNode = m_pNodeHead; pNode != NULL; pNode = pNode->pNext)

  00149	8b 36		 mov	 esi, DWORD PTR [esi]
  0014b	85 f6		 test	 esi, esi
  0014d	75 f1		 jne	 SHORT $LL56@RemoveAll
$LN55@RemoveAll:

; 869  : 
; 870  : 	m_nCount = 0;
; 871  : 	m_pNodeHead = m_pNodeTail = m_pNodeFree = NULL;
; 872  : 	m_pBlocks->FreeDataChain();

  0014f	8b 8f 94 00 00
	00		 mov	 ecx, DWORD PTR [edi+148]
  00155	c7 87 8c 00 00
	00 00 00 00 00	 mov	 DWORD PTR [edi+140], 0
  0015f	c7 87 90 00 00
	00 00 00 00 00	 mov	 DWORD PTR [edi+144], 0
  00169	c7 87 88 00 00
	00 00 00 00 00	 mov	 DWORD PTR [edi+136], 0
  00173	c7 87 84 00 00
	00 00 00 00 00	 mov	 DWORD PTR [edi+132], 0
  0017d	e8 00 00 00 00	 call	 ?FreeDataChain@CPlex@@QAEXXZ ; CPlex::FreeDataChain
  00182	8d 4f 38	 lea	 ecx, DWORD PTR [edi+56]

; 873  : 	m_pBlocks = NULL;

  00185	c7 87 94 00 00
	00 00 00 00 00	 mov	 DWORD PTR [edi+148], 0

; 881  : }

  0018f	c7 45 fc ff ff
	ff ff		 mov	 DWORD PTR __$EHRec$[ebp+8], -1
  00196	e8 00 00 00 00	 call	 ??1CDWordArray@@UAE@XZ	; CDWordArray::~CDWordArray
  0019b	8d 4f 24	 lea	 ecx, DWORD PTR [edi+36]
  0019e	e8 00 00 00 00	 call	 ??1CDWordArray@@UAE@XZ	; CDWordArray::~CDWordArray
  001a3	8b cf		 mov	 ecx, edi
  001a5	ff 15 00 00 00
	00		 call	 DWORD PTR __imp_??1?$CStringT@DV?$StrTraitMFC_DLL@DV?$ChTraitsCRT@D@ATL@@@@@ATL@@QAE@XZ
  001ab	68 e8 00 00 00	 push	 232			; 000000e8H
  001b0	57		 push	 edi
  001b1	e8 00 00 00 00	 call	 ??3@YAXPAXI@Z		; operator delete
  001b6	83 c4 08	 add	 esp, 8
$LN31@RemoveAll:

; 786  : 	{ return m_nCount == 0; }

  001b9	83 3d 0c 00 00
	00 00		 cmp	 DWORD PTR ?m_lstStyleDefault@CStyleDataManager@@1V?$CList@PAVCStyleData@@PAV1@@@A+12, 0
; File D:\git\src\IBK\IBK_DRFN\ProjSrc\SrcChartEx\ChartAddIn\ChartEnvSetupDlgAddIn\ChartEnvSetupDlgAddIn\StyleDataManager.cpp

; 42   : 	while( !m_lstStyleDefault.IsEmpty())	delete m_lstStyleDefault.RemoveHead();

  001c0	0f 85 6b fe ff
	ff		 jne	 $LL2@RemoveAll
$LN114@RemoveAll:
; File C:\Program Files (x86)\Microsoft Visual Studio\2019\Community\VC\Tools\MSVC\14.29.30133\atlmfc\include\afxtempl.h

; 786  : 	{ return m_nCount == 0; }

  001c6	83 3d 0c 00 00
	00 00		 cmp	 DWORD PTR ?m_lstStyleUser@CStyleDataManager@@1V?$CList@PAVCStyleData@@PAV1@@@A+12, 0
; File D:\git\src\IBK\IBK_DRFN\ProjSrc\SrcChartEx\ChartAddIn\ChartEnvSetupDlgAddIn\ChartEnvSetupDlgAddIn\StyleDataManager.cpp

; 43   : 	while( !m_lstStyleUser.IsEmpty())		delete m_lstStyleUser.RemoveHead();

  001cd	0f 84 a3 01 00
	00		 je	 $LN5@RemoveAll
  001d3	0f 1f 40 00 66
	0f 1f 84 00 00
	00 00 00	 npad	 13
$LL4@RemoveAll:
; File C:\Program Files (x86)\Microsoft Visual Studio\2019\Community\VC\Tools\MSVC\14.29.30133\atlmfc\include\afxtempl.h

; 1009 : 	ENSURE(m_pNodeHead != NULL);  // don't call on empty list !!!

  001e0	8b 0d 04 00 00
	00		 mov	 ecx, DWORD PTR ?m_lstStyleUser@CStyleDataManager@@1V?$CList@PAVCStyleData@@PAV1@@@A+4
  001e6	85 c9		 test	 ecx, ecx
  001e8	0f 84 99 01 00
	00		 je	 $LN119@RemoveAll

; 1010 : 	ASSERT(AfxIsValidAddress(m_pNodeHead, sizeof(CNode)));
; 1011 : 
; 1012 : 	CNode* pOldNode = m_pNodeHead;
; 1013 : 	TYPE returnValue = pOldNode->data;
; 1014 : 
; 1015 : 	m_pNodeHead = pOldNode->pNext;

  001ee	8b 01		 mov	 eax, DWORD PTR [ecx]
  001f0	8b 79 08	 mov	 edi, DWORD PTR [ecx+8]
  001f3	a3 04 00 00 00	 mov	 DWORD PTR ?m_lstStyleUser@CStyleDataManager@@1V?$CList@PAVCStyleData@@PAV1@@@A+4, eax
  001f8	85 c0		 test	 eax, eax

; 1016 : 	if (m_pNodeHead != NULL)

  001fa	74 09		 je	 SHORT $LN68@RemoveAll

; 1017 : 		m_pNodeHead->pPrev = NULL;

  001fc	c7 40 04 00 00
	00 00		 mov	 DWORD PTR [eax+4], 0
  00203	eb 0a		 jmp	 SHORT $LN69@RemoveAll
$LN68@RemoveAll:

; 1018 : 	else
; 1019 : 		m_pNodeTail = NULL;

  00205	c7 05 08 00 00
	00 00 00 00 00	 mov	 DWORD PTR ?m_lstStyleUser@CStyleDataManager@@1V?$CList@PAVCStyleData@@PAV1@@@A+8, 0
$LN69@RemoveAll:

; 938  : 	pNode->pNext = m_pNodeFree;

  0020f	a1 10 00 00 00	 mov	 eax, DWORD PTR ?m_lstStyleUser@CStyleDataManager@@1V?$CList@PAVCStyleData@@PAV1@@@A+16
  00214	89 01		 mov	 DWORD PTR [ecx], eax

; 939  : 	m_pNodeFree = pNode;
; 940  : 	m_nCount--;

  00216	83 2d 0c 00 00
	00 01		 sub	 DWORD PTR ?m_lstStyleUser@CStyleDataManager@@1V?$CList@PAVCStyleData@@PAV1@@@A+12, 1
  0021d	89 0d 10 00 00
	00		 mov	 DWORD PTR ?m_lstStyleUser@CStyleDataManager@@1V?$CList@PAVCStyleData@@PAV1@@@A+16, ecx

; 941  : 	ASSERT(m_nCount >= 0);  // make sure we don't underflow
; 942  : 
; 943  : 	// if no more elements, cleanup completely
; 944  : 	if (m_nCount == 0)

  00223	75 3d		 jne	 SHORT $LN72@RemoveAll

; 872  : 	m_pBlocks->FreeDataChain();

  00225	8b 0d 14 00 00
	00		 mov	 ecx, DWORD PTR ?m_lstStyleUser@CStyleDataManager@@1V?$CList@PAVCStyleData@@PAV1@@@A+20
  0022b	c7 05 0c 00 00
	00 00 00 00 00	 mov	 DWORD PTR ?m_lstStyleUser@CStyleDataManager@@1V?$CList@PAVCStyleData@@PAV1@@@A+12, 0
  00235	c7 05 10 00 00
	00 00 00 00 00	 mov	 DWORD PTR ?m_lstStyleUser@CStyleDataManager@@1V?$CList@PAVCStyleData@@PAV1@@@A+16, 0
  0023f	c7 05 08 00 00
	00 00 00 00 00	 mov	 DWORD PTR ?m_lstStyleUser@CStyleDataManager@@1V?$CList@PAVCStyleData@@PAV1@@@A+8, 0
  00249	c7 05 04 00 00
	00 00 00 00 00	 mov	 DWORD PTR ?m_lstStyleUser@CStyleDataManager@@1V?$CList@PAVCStyleData@@PAV1@@@A+4, 0
  00253	e8 00 00 00 00	 call	 ?FreeDataChain@CPlex@@QAEXXZ ; CPlex::FreeDataChain

; 873  : 	m_pBlocks = NULL;

  00258	c7 05 14 00 00
	00 00 00 00 00	 mov	 DWORD PTR ?m_lstStyleUser@CStyleDataManager@@1V?$CList@PAVCStyleData@@PAV1@@@A+20, 0
$LN72@RemoveAll:
; File D:\git\src\IBK\IBK_DRFN\ProjSrc\SrcChartEx\ChartAddIn\ChartEnvSetupDlgAddIn\ChartEnvSetupDlgAddIn\StyleDataManager.cpp

; 43   : 	while( !m_lstStyleUser.IsEmpty())		delete m_lstStyleUser.RemoveHead();

  00262	85 ff		 test	 edi, edi
  00264	0f 84 ff 00 00
	00		 je	 $LN80@RemoveAll
; File C:\Program Files (x86)\Microsoft Visual Studio\2019\Community\VC\Tools\MSVC\14.29.30133\atlmfc\include\afxtempl.h

; 867  : 	for (pNode = m_pNodeHead; pNode != NULL; pNode = pNode->pNext)

  0026a	8b b7 a0 00 00
	00		 mov	 esi, DWORD PTR [edi+160]

; 878  : {

  00270	c7 45 fc 02 00
	00 00		 mov	 DWORD PTR __$EHRec$[ebp+8], 2
  00277	c7 87 9c 00 00
	00 00 00 00 00	 mov	 DWORD PTR [edi+156], OFFSET ??_7?$CList@V?$CStringT@DV?$StrTraitMFC_DLL@DV?$ChTraitsCRT@D@ATL@@@@@ATL@@V12@@@6B@

; 867  : 	for (pNode = m_pNodeHead; pNode != NULL; pNode = pNode->pNext)

  00281	85 f6		 test	 esi, esi
  00283	74 0f		 je	 SHORT $LN93@RemoveAll
$LL94@RemoveAll:

; 868  : 		pNode->data.~TYPE();

  00285	8d 4e 08	 lea	 ecx, DWORD PTR [esi+8]
  00288	ff 15 00 00 00
	00		 call	 DWORD PTR __imp_??1?$CStringT@DV?$StrTraitMFC_DLL@DV?$ChTraitsCRT@D@ATL@@@@@ATL@@QAE@XZ

; 867  : 	for (pNode = m_pNodeHead; pNode != NULL; pNode = pNode->pNext)

  0028e	8b 36		 mov	 esi, DWORD PTR [esi]
  00290	85 f6		 test	 esi, esi
  00292	75 f1		 jne	 SHORT $LL94@RemoveAll
$LN93@RemoveAll:

; 869  : 
; 870  : 	m_nCount = 0;
; 871  : 	m_pNodeHead = m_pNodeTail = m_pNodeFree = NULL;
; 872  : 	m_pBlocks->FreeDataChain();

  00294	8b 8f b0 00 00
	00		 mov	 ecx, DWORD PTR [edi+176]
  0029a	c7 87 a8 00 00
	00 00 00 00 00	 mov	 DWORD PTR [edi+168], 0
  002a4	c7 87 ac 00 00
	00 00 00 00 00	 mov	 DWORD PTR [edi+172], 0
  002ae	c7 87 a4 00 00
	00 00 00 00 00	 mov	 DWORD PTR [edi+164], 0
  002b8	c7 87 a0 00 00
	00 00 00 00 00	 mov	 DWORD PTR [edi+160], 0
  002c2	e8 00 00 00 00	 call	 ?FreeDataChain@CPlex@@QAEXXZ ; CPlex::FreeDataChain

; 873  : 	m_pBlocks = NULL;

  002c7	c7 87 b0 00 00
	00 00 00 00 00	 mov	 DWORD PTR [edi+176], 0

; 867  : 	for (pNode = m_pNodeHead; pNode != NULL; pNode = pNode->pNext)

  002d1	8b b7 84 00 00
	00		 mov	 esi, DWORD PTR [edi+132]

; 878  : {

  002d7	c7 45 fc 03 00
	00 00		 mov	 DWORD PTR __$EHRec$[ebp+8], 3
  002de	c7 87 80 00 00
	00 00 00 00 00	 mov	 DWORD PTR [edi+128], OFFSET ??_7?$CList@V?$CStringT@DV?$StrTraitMFC_DLL@DV?$ChTraitsCRT@D@ATL@@@@@ATL@@V12@@@6B@

; 867  : 	for (pNode = m_pNodeHead; pNode != NULL; pNode = pNode->pNext)

  002e8	85 f6		 test	 esi, esi
  002ea	74 13		 je	 SHORT $LN104@RemoveAll
  002ec	0f 1f 40 00	 npad	 4
$LL105@RemoveAll:

; 868  : 		pNode->data.~TYPE();

  002f0	8d 4e 08	 lea	 ecx, DWORD PTR [esi+8]
  002f3	ff 15 00 00 00
	00		 call	 DWORD PTR __imp_??1?$CStringT@DV?$StrTraitMFC_DLL@DV?$ChTraitsCRT@D@ATL@@@@@ATL@@QAE@XZ

; 867  : 	for (pNode = m_pNodeHead; pNode != NULL; pNode = pNode->pNext)

  002f9	8b 36		 mov	 esi, DWORD PTR [esi]
  002fb	85 f6		 test	 esi, esi
  002fd	75 f1		 jne	 SHORT $LL105@RemoveAll
$LN104@RemoveAll:

; 869  : 
; 870  : 	m_nCount = 0;
; 871  : 	m_pNodeHead = m_pNodeTail = m_pNodeFree = NULL;
; 872  : 	m_pBlocks->FreeDataChain();

  002ff	8b 8f 94 00 00
	00		 mov	 ecx, DWORD PTR [edi+148]
  00305	c7 87 8c 00 00
	00 00 00 00 00	 mov	 DWORD PTR [edi+140], 0
  0030f	c7 87 90 00 00
	00 00 00 00 00	 mov	 DWORD PTR [edi+144], 0
  00319	c7 87 88 00 00
	00 00 00 00 00	 mov	 DWORD PTR [edi+136], 0
  00323	c7 87 84 00 00
	00 00 00 00 00	 mov	 DWORD PTR [edi+132], 0
  0032d	e8 00 00 00 00	 call	 ?FreeDataChain@CPlex@@QAEXXZ ; CPlex::FreeDataChain
  00332	8d 4f 38	 lea	 ecx, DWORD PTR [edi+56]

; 873  : 	m_pBlocks = NULL;

  00335	c7 87 94 00 00
	00 00 00 00 00	 mov	 DWORD PTR [edi+148], 0

; 881  : }

  0033f	c7 45 fc ff ff
	ff ff		 mov	 DWORD PTR __$EHRec$[ebp+8], -1
  00346	e8 00 00 00 00	 call	 ??1CDWordArray@@UAE@XZ	; CDWordArray::~CDWordArray
  0034b	8d 4f 24	 lea	 ecx, DWORD PTR [edi+36]
  0034e	e8 00 00 00 00	 call	 ??1CDWordArray@@UAE@XZ	; CDWordArray::~CDWordArray
  00353	8b cf		 mov	 ecx, edi
  00355	ff 15 00 00 00
	00		 call	 DWORD PTR __imp_??1?$CStringT@DV?$StrTraitMFC_DLL@DV?$ChTraitsCRT@D@ATL@@@@@ATL@@QAE@XZ
  0035b	68 e8 00 00 00	 push	 232			; 000000e8H
  00360	57		 push	 edi
  00361	e8 00 00 00 00	 call	 ??3@YAXPAXI@Z		; operator delete
  00366	83 c4 08	 add	 esp, 8
$LN80@RemoveAll:

; 786  : 	{ return m_nCount == 0; }

  00369	83 3d 0c 00 00
	00 00		 cmp	 DWORD PTR ?m_lstStyleUser@CStyleDataManager@@1V?$CList@PAVCStyleData@@PAV1@@@A+12, 0
; File D:\git\src\IBK\IBK_DRFN\ProjSrc\SrcChartEx\ChartAddIn\ChartEnvSetupDlgAddIn\ChartEnvSetupDlgAddIn\StyleDataManager.cpp

; 43   : 	while( !m_lstStyleUser.IsEmpty())		delete m_lstStyleUser.RemoveHead();

  00370	0f 85 6a fe ff
	ff		 jne	 $LL4@RemoveAll
$LN5@RemoveAll:

; 44   : }

  00376	8b 4d f4	 mov	 ecx, DWORD PTR __$EHRec$[ebp]
  00379	64 89 0d 00 00
	00 00		 mov	 DWORD PTR fs:0, ecx
  00380	59		 pop	 ecx
  00381	5f		 pop	 edi
  00382	5e		 pop	 esi
  00383	8b e5		 mov	 esp, ebp
  00385	5d		 pop	 ebp
  00386	c3		 ret	 0
$LN119@RemoveAll:
; File C:\Program Files (x86)\Microsoft Visual Studio\2019\Community\VC\Tools\MSVC\14.29.30133\atlmfc\include\afxtempl.h

; 1009 : 	ENSURE(m_pNodeHead != NULL);  // don't call on empty list !!!

  00387	e8 00 00 00 00	 call	 ?AfxThrowInvalidArgException@@YGXXZ ; AfxThrowInvalidArgException
$LN145@RemoveAll:
  0038c	cc		 int	 3
  0038d	cc		 int	 3
  0038e	cc		 int	 3
  0038f	cc		 int	 3
  00390	cc		 int	 3
  00391	cc		 int	 3
_TEXT	ENDS
;	COMDAT text$x
text$x	SEGMENT
__ehhandler$?RemoveAll@CStyleDataManager@@SAXXZ:
  00000	90		 npad	 1
  00001	90		 npad	 1
  00002	8b 54 24 08	 mov	 edx, DWORD PTR [esp+8]
  00006	8d 42 0c	 lea	 eax, DWORD PTR [edx+12]
  00009	8b 4a f4	 mov	 ecx, DWORD PTR [edx-12]
  0000c	33 c8		 xor	 ecx, eax
  0000e	e8 00 00 00 00	 call	 @__security_check_cookie@4
  00013	b8 00 00 00 00	 mov	 eax, OFFSET __ehfuncinfo$?RemoveAll@CStyleDataManager@@SAXXZ
  00018	e9 00 00 00 00	 jmp	 ___CxxFrameHandler3
text$x	ENDS
?RemoveAll@CStyleDataManager@@SAXXZ ENDP		; CStyleDataManager::RemoveAll
; Function compile flags: /Ogtp
; File D:\git\src\IBK\IBK_DRFN\ProjSrc\SrcChartEx\ChartAddIn\ChartEnvSetupDlgAddIn\ChartEnvSetupDlgAddIn\StyleDataManager.cpp
;	COMDAT ??1CStyleDataManager@@UAE@XZ
_TEXT	SEGMENT
??1CStyleDataManager@@UAE@XZ PROC			; CStyleDataManager::~CStyleDataManager, COMDAT
; _this$ = ecx

; 31   : {

  00000	c7 01 00 00 00
	00		 mov	 DWORD PTR [ecx], OFFSET ??_7CStyleDataManager@@6B@

; 32   : }

  00006	c3		 ret	 0
??1CStyleDataManager@@UAE@XZ ENDP			; CStyleDataManager::~CStyleDataManager
_TEXT	ENDS
; Function compile flags: /Ogtp
; File D:\git\src\IBK\IBK_DRFN\ProjSrc\SrcChartEx\ChartAddIn\ChartEnvSetupDlgAddIn\ChartEnvSetupDlgAddIn\StyleDataManager.cpp
;	COMDAT ??0CStyleDataManager@@QAE@XZ
_TEXT	SEGMENT
??0CStyleDataManager@@QAE@XZ PROC			; CStyleDataManager::CStyleDataManager, COMDAT
; _this$ = ecx

; 26   : {

  00000	c7 01 00 00 00
	00		 mov	 DWORD PTR [ecx], OFFSET ??_7CStyleDataManager@@6B@

; 27   : 
; 28   : }

  00006	8b c1		 mov	 eax, ecx
  00008	c3		 ret	 0
??0CStyleDataManager@@QAE@XZ ENDP			; CStyleDataManager::CStyleDataManager
_TEXT	ENDS
; Function compile flags: /Ogtp
; File D:\git\src\IBK\IBK_DRFN\ProjSrc\SrcChartEx\ChartAddIn\ChartEnvSetupDlgAddIn\Include_AddIn_135914\I135914\_IString.h
;	COMDAT ??1ILPCSTR135914@@QAE@XZ
_TEXT	SEGMENT
__$EHRec$ = -12						; size = 12
??1ILPCSTR135914@@QAE@XZ PROC				; ILPCSTR135914::~ILPCSTR135914, COMDAT
; _this$ = ecx

; 44   : 	{

  00000	55		 push	 ebp
  00001	8b ec		 mov	 ebp, esp
  00003	6a ff		 push	 -1
  00005	68 00 00 00 00	 push	 __ehhandler$??1ILPCSTR135914@@QAE@XZ
  0000a	64 a1 00 00 00
	00		 mov	 eax, DWORD PTR fs:0
  00010	50		 push	 eax
  00011	56		 push	 esi
  00012	a1 00 00 00 00	 mov	 eax, DWORD PTR ___security_cookie
  00017	33 c5		 xor	 eax, ebp
  00019	50		 push	 eax
  0001a	8d 45 f4	 lea	 eax, DWORD PTR __$EHRec$[ebp]
  0001d	64 a3 00 00 00
	00		 mov	 DWORD PTR fs:0, eax
  00023	8b f1		 mov	 esi, ecx

; 45   : 		if( m_pIStrData)

  00025	8b 4e 04	 mov	 ecx, DWORD PTR [esi+4]
  00028	85 c9		 test	 ecx, ecx
  0002a	74 13		 je	 SHORT $LN2@ILPCSTR135

; 46   : 		{
; 47   : 			m_pIStrData->Release();

  0002c	8b 01		 mov	 eax, DWORD PTR [ecx]
  0002e	51		 push	 ecx
  0002f	ff 50 08	 call	 DWORD PTR [eax+8]

; 48   : 			m_pIStrData = NULL;

  00032	c7 46 04 00 00
	00 00		 mov	 DWORD PTR [esi+4], 0

; 49   : 			m_szData = NULL;

  00039	c7 06 00 00 00
	00		 mov	 DWORD PTR [esi], 0
$LN2@ILPCSTR135:

; 50   : 		}
; 51   : 	}

  0003f	8b 4d f4	 mov	 ecx, DWORD PTR __$EHRec$[ebp]
  00042	64 89 0d 00 00
	00 00		 mov	 DWORD PTR fs:0, ecx
  00049	59		 pop	 ecx
  0004a	5e		 pop	 esi
  0004b	8b e5		 mov	 esp, ebp
  0004d	5d		 pop	 ebp
  0004e	c3		 ret	 0
  0004f	cc		 int	 3
  00050	cc		 int	 3
  00051	cc		 int	 3
  00052	cc		 int	 3
  00053	cc		 int	 3
_TEXT	ENDS
;	COMDAT text$x
text$x	SEGMENT
__ehhandler$??1ILPCSTR135914@@QAE@XZ:
  00000	90		 npad	 1
  00001	90		 npad	 1
  00002	8b 54 24 08	 mov	 edx, DWORD PTR [esp+8]
  00006	8d 42 0c	 lea	 eax, DWORD PTR [edx+12]
  00009	8b 4a f8	 mov	 ecx, DWORD PTR [edx-8]
  0000c	33 c8		 xor	 ecx, eax
  0000e	e8 00 00 00 00	 call	 @__security_check_cookie@4
  00013	b8 00 00 00 00	 mov	 eax, OFFSET __ehfuncinfo$??1ILPCSTR135914@@QAE@XZ
  00018	e9 00 00 00 00	 jmp	 ___CxxFrameHandler3
text$x	ENDS
??1ILPCSTR135914@@QAE@XZ ENDP				; ILPCSTR135914::~ILPCSTR135914
; Function compile flags: /Ogtp
; File C:\Program Files (x86)\Microsoft Visual Studio\2019\Community\VC\Tools\MSVC\14.29.30133\atlmfc\include\afxwin1.inl
; File C:\Program Files (x86)\Microsoft Visual Studio\2019\Community\VC\Tools\MSVC\14.29.30133\atlmfc\include\afx.inl
;	COMDAT ??_GCBrush@@UAEPAXI@Z
_TEXT	SEGMENT
___flags$ = 8						; size = 4
??_GCBrush@@UAEPAXI@Z PROC				; CBrush::`scalar deleting destructor', COMDAT
; _this$ = ecx
  00000	55		 push	 ebp
  00001	8b ec		 mov	 ebp, esp
; File C:\Program Files (x86)\Microsoft Visual Studio\2019\Community\VC\Tools\MSVC\14.29.30133\atlmfc\include\afxwin1.inl

; 130  : 	{ }

  00003	56		 push	 esi
  00004	8b f1		 mov	 esi, ecx
  00006	c7 06 00 00 00
	00		 mov	 DWORD PTR [esi], OFFSET ??_7CBrush@@6B@
  0000c	e8 00 00 00 00	 call	 ??1CGdiObject@@UAE@XZ	; CGdiObject::~CGdiObject
  00011	8b 45 08	 mov	 eax, DWORD PTR ___flags$[ebp]
  00014	a8 01		 test	 al, 1
  00016	74 1f		 je	 SHORT $LN12@scalar
  00018	a8 04		 test	 al, 4
  0001a	75 10		 jne	 SHORT $LN3@scalar
; File C:\Program Files (x86)\Microsoft Visual Studio\2019\Community\VC\Tools\MSVC\14.29.30133\atlmfc\include\afx.inl

; 112  : 	{ ::operator delete(p); }

  0001c	56		 push	 esi
  0001d	e8 00 00 00 00	 call	 ??3@YAXPAX@Z		; operator delete
  00022	83 c4 04	 add	 esp, 4
  00025	8b c6		 mov	 eax, esi
  00027	5e		 pop	 esi
  00028	5d		 pop	 ebp
  00029	c2 04 00	 ret	 4
$LN3@scalar:
  0002c	6a 08		 push	 8
  0002e	56		 push	 esi
  0002f	e8 00 00 00 00	 call	 ?__global_delete@@YAXPAXI@Z ; __global_delete
  00034	83 c4 08	 add	 esp, 8
$LN12@scalar:
  00037	8b c6		 mov	 eax, esi
  00039	5e		 pop	 esi
  0003a	5d		 pop	 ebp
  0003b	c2 04 00	 ret	 4
??_GCBrush@@UAEPAXI@Z ENDP				; CBrush::`scalar deleting destructor'
_TEXT	ENDS
; Function compile flags: /Ogtp
; File C:\Program Files (x86)\Microsoft Visual Studio\2019\Community\VC\Tools\MSVC\14.29.30133\atlmfc\include\afxwin1.inl
;	COMDAT ??1CBrush@@UAE@XZ
_TEXT	SEGMENT
??1CBrush@@UAE@XZ PROC					; CBrush::~CBrush, COMDAT
; _this$ = ecx

; 130  : 	{ }

  00000	c7 01 00 00 00
	00		 mov	 DWORD PTR [ecx], OFFSET ??_7CBrush@@6B@
  00006	e9 00 00 00 00	 jmp	 ??1CGdiObject@@UAE@XZ	; CGdiObject::~CGdiObject
??1CBrush@@UAE@XZ ENDP					; CBrush::~CBrush
_TEXT	ENDS
; Function compile flags: /Ogtp
; File C:\Program Files (x86)\Microsoft Visual Studio\2019\Community\VC\Tools\MSVC\14.29.30133\atlmfc\include\afxwin1.inl
; File C:\Program Files (x86)\Microsoft Visual Studio\2019\Community\VC\Tools\MSVC\14.29.30133\atlmfc\include\afx.inl
;	COMDAT ??_GCPen@@UAEPAXI@Z
_TEXT	SEGMENT
___flags$ = 8						; size = 4
??_GCPen@@UAEPAXI@Z PROC				; CPen::`scalar deleting destructor', COMDAT
; _this$ = ecx
  00000	55		 push	 ebp
  00001	8b ec		 mov	 ebp, esp
; File C:\Program Files (x86)\Microsoft Visual Studio\2019\Community\VC\Tools\MSVC\14.29.30133\atlmfc\include\afxwin1.inl

; 106  : 	{ }

  00003	56		 push	 esi
  00004	8b f1		 mov	 esi, ecx
  00006	c7 06 00 00 00
	00		 mov	 DWORD PTR [esi], OFFSET ??_7CPen@@6B@
  0000c	e8 00 00 00 00	 call	 ??1CGdiObject@@UAE@XZ	; CGdiObject::~CGdiObject
  00011	8b 45 08	 mov	 eax, DWORD PTR ___flags$[ebp]
  00014	a8 01		 test	 al, 1
  00016	74 1f		 je	 SHORT $LN12@scalar
  00018	a8 04		 test	 al, 4
  0001a	75 10		 jne	 SHORT $LN3@scalar
; File C:\Program Files (x86)\Microsoft Visual Studio\2019\Community\VC\Tools\MSVC\14.29.30133\atlmfc\include\afx.inl

; 112  : 	{ ::operator delete(p); }

  0001c	56		 push	 esi
  0001d	e8 00 00 00 00	 call	 ??3@YAXPAX@Z		; operator delete
  00022	83 c4 04	 add	 esp, 4
  00025	8b c6		 mov	 eax, esi
  00027	5e		 pop	 esi
  00028	5d		 pop	 ebp
  00029	c2 04 00	 ret	 4
$LN3@scalar:
  0002c	6a 08		 push	 8
  0002e	56		 push	 esi
  0002f	e8 00 00 00 00	 call	 ?__global_delete@@YAXPAXI@Z ; __global_delete
  00034	83 c4 08	 add	 esp, 8
$LN12@scalar:
  00037	8b c6		 mov	 eax, esi
  00039	5e		 pop	 esi
  0003a	5d		 pop	 ebp
  0003b	c2 04 00	 ret	 4
??_GCPen@@UAEPAXI@Z ENDP				; CPen::`scalar deleting destructor'
_TEXT	ENDS
; Function compile flags: /Ogtp
; File C:\Program Files (x86)\Microsoft Visual Studio\2019\Community\VC\Tools\MSVC\14.29.30133\atlmfc\include\afxwin1.inl
;	COMDAT ??1CPen@@UAE@XZ
_TEXT	SEGMENT
??1CPen@@UAE@XZ PROC					; CPen::~CPen, COMDAT
; _this$ = ecx

; 106  : 	{ }

  00000	c7 01 00 00 00
	00		 mov	 DWORD PTR [ecx], OFFSET ??_7CPen@@6B@
  00006	e9 00 00 00 00	 jmp	 ??1CGdiObject@@UAE@XZ	; CGdiObject::~CGdiObject
??1CPen@@UAE@XZ ENDP					; CPen::~CPen
_TEXT	ENDS
; Function compile flags: /Ogtp
; File C:\Program Files (x86)\Microsoft Visual Studio\2019\Community\VC\Tools\MSVC\14.29.30133\atlmfc\include\afx.inl
;	COMDAT ??_GCGdiObject@@UAEPAXI@Z
_TEXT	SEGMENT
___flags$ = 8						; size = 4
??_GCGdiObject@@UAEPAXI@Z PROC				; CGdiObject::`scalar deleting destructor', COMDAT
; _this$ = ecx
  00000	55		 push	 ebp
  00001	8b ec		 mov	 ebp, esp
  00003	56		 push	 esi
  00004	8b f1		 mov	 esi, ecx
  00006	e8 00 00 00 00	 call	 ??1CGdiObject@@UAE@XZ	; CGdiObject::~CGdiObject
  0000b	8b 45 08	 mov	 eax, DWORD PTR ___flags$[ebp]
  0000e	a8 01		 test	 al, 1
  00010	74 1f		 je	 SHORT $LN9@scalar
  00012	a8 04		 test	 al, 4
  00014	75 10		 jne	 SHORT $LN3@scalar

; 112  : 	{ ::operator delete(p); }

  00016	56		 push	 esi
  00017	e8 00 00 00 00	 call	 ??3@YAXPAX@Z		; operator delete
  0001c	83 c4 04	 add	 esp, 4
  0001f	8b c6		 mov	 eax, esi
  00021	5e		 pop	 esi
  00022	5d		 pop	 ebp
  00023	c2 04 00	 ret	 4
$LN3@scalar:
  00026	6a 08		 push	 8
  00028	56		 push	 esi
  00029	e8 00 00 00 00	 call	 ?__global_delete@@YAXPAXI@Z ; __global_delete
  0002e	83 c4 08	 add	 esp, 8
$LN9@scalar:
  00031	8b c6		 mov	 eax, esi
  00033	5e		 pop	 esi
  00034	5d		 pop	 ebp
  00035	c2 04 00	 ret	 4
??_GCGdiObject@@UAEPAXI@Z ENDP				; CGdiObject::`scalar deleting destructor'
_TEXT	ENDS
; Function compile flags: /Ogtp
; File C:\Program Files (x86)\Microsoft Visual Studio\2019\Community\VC\Tools\MSVC\14.29.30133\atlmfc\include\afxwin1.inl
;	COMDAT ??1CGdiObject@@UAE@XZ
_TEXT	SEGMENT
_pException$2 = -540					; size = 4
_strMsg$3 = -536					; size = 4
_szErrorMessage$4 = -532				; size = 512
__$ArrayPad$ = -20					; size = 4
__$EHRec$ = -16						; size = 16
??1CGdiObject@@UAE@XZ PROC				; CGdiObject::~CGdiObject, COMDAT
; _this$ = ecx

; 74   : {

  00000	55		 push	 ebp
  00001	8b ec		 mov	 ebp, esp
  00003	6a ff		 push	 -1
  00005	68 00 00 00 00	 push	 __ehhandler$??1CGdiObject@@UAE@XZ
  0000a	64 a1 00 00 00
	00		 mov	 eax, DWORD PTR fs:0
  00010	50		 push	 eax
  00011	81 ec 10 02 00
	00		 sub	 esp, 528		; 00000210H
  00017	a1 00 00 00 00	 mov	 eax, DWORD PTR ___security_cookie
  0001c	33 c5		 xor	 eax, ebp
  0001e	89 45 ec	 mov	 DWORD PTR __$ArrayPad$[ebp], eax
  00021	53		 push	 ebx
  00022	56		 push	 esi
  00023	57		 push	 edi
  00024	50		 push	 eax
  00025	8d 45 f4	 lea	 eax, DWORD PTR __$EHRec$[ebp+4]
  00028	64 a3 00 00 00
	00		 mov	 DWORD PTR fs:0, eax
  0002e	89 65 f0	 mov	 DWORD PTR __$EHRec$[ebp], esp
  00031	c7 01 00 00 00
	00		 mov	 DWORD PTR [ecx], OFFSET ??_7CGdiObject@@6B@

; 75   : 	AFX_BEGIN_DESTRUCTOR

  00037	c7 45 fc 00 00
	00 00		 mov	 DWORD PTR __$EHRec$[ebp+12], 0

; 76   : 	DeleteObject();

  0003e	e8 00 00 00 00	 call	 ?DeleteObject@CGdiObject@@QAEHXZ ; CGdiObject::DeleteObject
$LN18@CGdiObject:

; 78   : }

  00043	8b 4d f4	 mov	 ecx, DWORD PTR __$EHRec$[ebp+4]
  00046	64 89 0d 00 00
	00 00		 mov	 DWORD PTR fs:0, ecx
  0004d	59		 pop	 ecx
  0004e	5f		 pop	 edi
  0004f	5e		 pop	 esi
  00050	5b		 pop	 ebx
  00051	8b 4d ec	 mov	 ecx, DWORD PTR __$ArrayPad$[ebp]
  00054	33 cd		 xor	 ecx, ebp
  00056	e8 00 00 00 00	 call	 @__security_check_cookie@4
  0005b	8b e5		 mov	 esp, ebp
  0005d	5d		 pop	 ebp
  0005e	c3		 ret	 0
__catch$??1CGdiObject@@UAE@XZ$0:

; 77   : 	AFX_END_DESTRUCTOR

  0005f	8d 8d e8 fd ff
	ff		 lea	 ecx, DWORD PTR _strMsg$3[ebp]
  00065	ff 15 00 00 00
	00		 call	 DWORD PTR __imp_??0?$CStringT@DV?$StrTraitMFC_DLL@DV?$ChTraitsCRT@D@ATL@@@@@ATL@@QAE@XZ
  0006b	8b b5 e4 fd ff
	ff		 mov	 esi, DWORD PTR _pException$2[ebp]
  00071	8d 8d ec fd ff
	ff		 lea	 ecx, DWORD PTR _szErrorMessage$4[ebp]
  00077	6a 00		 push	 0
  00079	68 00 02 00 00	 push	 512			; 00000200H
  0007e	51		 push	 ecx
  0007f	8b 06		 mov	 eax, DWORD PTR [esi]
  00081	8b ce		 mov	 ecx, esi
  00083	c6 45 fc 02	 mov	 BYTE PTR __$EHRec$[ebp+12], 2
  00087	ff 50 14	 call	 DWORD PTR [eax+20]
  0008a	85 c0		 test	 eax, eax
  0008c	74 2a		 je	 SHORT $LN9@CGdiObject
  0008e	8d 85 ec fd ff
	ff		 lea	 eax, DWORD PTR _szErrorMessage$4[ebp]
  00094	50		 push	 eax
  00095	6a 4d		 push	 77			; 0000004dH
  00097	68 00 00 00 00	 push	 OFFSET ??_C@_0HD@JJCHHHNK@C?3?2Program?5Files?5?$CIx86?$CJ?2Microsof@
  0009c	68 00 00 00 00	 push	 OFFSET ??_C@_0BP@OIEOKIDM@Exception?5thrown?5in?5destructor@
  000a1	8d 85 e8 fd ff
	ff		 lea	 eax, DWORD PTR _strMsg$3[ebp]
  000a7	68 00 00 00 00	 push	 OFFSET ??_C@_0BB@HBOOMJBF@?$CFTs?5?$CI?$CFTs?3?$CFd?$CJ?6?$CFTs@
  000ac	50		 push	 eax
  000ad	ff 15 00 00 00
	00		 call	 DWORD PTR __imp_?Format@?$CStringT@DV?$StrTraitMFC_DLL@DV?$ChTraitsCRT@D@ATL@@@@@ATL@@QAAXPBDZZ
  000b3	83 c4 18	 add	 esp, 24			; 00000018H
  000b6	eb 21		 jmp	 SHORT $LN10@CGdiObject
$LN9@CGdiObject:
  000b8	6a 4d		 push	 77			; 0000004dH
  000ba	68 00 00 00 00	 push	 OFFSET ??_C@_0HD@JJCHHHNK@C?3?2Program?5Files?5?$CIx86?$CJ?2Microsof@
  000bf	68 00 00 00 00	 push	 OFFSET ??_C@_0BP@OIEOKIDM@Exception?5thrown?5in?5destructor@
  000c4	8d 85 e8 fd ff
	ff		 lea	 eax, DWORD PTR _strMsg$3[ebp]
  000ca	68 00 00 00 00	 push	 OFFSET ??_C@_0N@OMEMOKLE@?$CFTs?5?$CI?$CFTs?3?$CFd?$CJ@
  000cf	50		 push	 eax
  000d0	ff 15 00 00 00
	00		 call	 DWORD PTR __imp_?Format@?$CStringT@DV?$StrTraitMFC_DLL@DV?$ChTraitsCRT@D@ATL@@@@@ATL@@QAAXPBDZZ
  000d6	83 c4 14	 add	 esp, 20			; 00000014H
$LN10@CGdiObject:
  000d9	6a 00		 push	 0
  000db	6a 00		 push	 0
  000dd	ff b5 e8 fd ff
	ff		 push	 DWORD PTR _strMsg$3[ebp]
  000e3	e8 00 00 00 00	 call	 ?AfxMessageBox@@YGHPBDII@Z ; AfxMessageBox
  000e8	8d 8d e8 fd ff
	ff		 lea	 ecx, DWORD PTR _strMsg$3[ebp]
  000ee	ff 15 00 00 00
	00		 call	 DWORD PTR __imp_??1?$CStringT@DV?$StrTraitMFC_DLL@DV?$ChTraitsCRT@D@ATL@@@@@ATL@@QAE@XZ
  000f4	8b 06		 mov	 eax, DWORD PTR [esi]
  000f6	8b ce		 mov	 ecx, esi
  000f8	6a 01		 push	 1
  000fa	ff 50 04	 call	 DWORD PTR [eax+4]
  000fd	b8 00 00 00 00	 mov	 eax, $LN18@CGdiObject
  00102	c3		 ret	 0
_TEXT	ENDS
;	COMDAT text$x
text$x	SEGMENT
__unwindfunclet$??1CGdiObject@@UAE@XZ$2:
  00000	8d 8d e8 fd ff
	ff		 lea	 ecx, DWORD PTR _strMsg$3[ebp]
  00006	ff 25 00 00 00
	00		 jmp	 DWORD PTR __imp_??1?$CStringT@DV?$StrTraitMFC_DLL@DV?$ChTraitsCRT@D@ATL@@@@@ATL@@QAE@XZ
  0000c	cc		 int	 3
  0000d	cc		 int	 3
  0000e	cc		 int	 3
  0000f	cc		 int	 3
  00010	cc		 int	 3
__ehhandler$??1CGdiObject@@UAE@XZ:
  00011	90		 npad	 1
  00012	90		 npad	 1
  00013	8b 54 24 08	 mov	 edx, DWORD PTR [esp+8]
  00017	8d 42 0c	 lea	 eax, DWORD PTR [edx+12]
  0001a	8b 8a e0 fd ff
	ff		 mov	 ecx, DWORD PTR [edx-544]
  00020	33 c8		 xor	 ecx, eax
  00022	e8 00 00 00 00	 call	 @__security_check_cookie@4
  00027	8b 4a f8	 mov	 ecx, DWORD PTR [edx-8]
  0002a	33 c8		 xor	 ecx, eax
  0002c	e8 00 00 00 00	 call	 @__security_check_cookie@4
  00031	b8 00 00 00 00	 mov	 eax, OFFSET __ehfuncinfo$??1CGdiObject@@UAE@XZ
  00036	e9 00 00 00 00	 jmp	 ___CxxFrameHandler3
text$x	ENDS
??1CGdiObject@@UAE@XZ ENDP				; CGdiObject::~CGdiObject
; Function compile flags: /Ogtp
; File C:\Program Files (x86)\Microsoft Visual Studio\2019\Community\VC\Tools\MSVC\14.29.30133\atlmfc\include\afx.inl
;	COMDAT ?Dump@CObject@@UBEXAAVCDumpContext@@@Z
_TEXT	SEGMENT
___formal$ = 8						; size = 4
?Dump@CObject@@UBEXAAVCDumpContext@@@Z PROC		; CObject::Dump, COMDAT
; _this$ = ecx

; 122  : 	{ /* no dumping in release builds */ }

  00000	c2 04 00	 ret	 4
?Dump@CObject@@UBEXAAVCDumpContext@@@Z ENDP		; CObject::Dump
_TEXT	ENDS
; Function compile flags: /Ogtp
; File C:\Program Files (x86)\Microsoft Visual Studio\2019\Community\VC\Tools\MSVC\14.29.30133\atlmfc\include\afx.inl
;	COMDAT ?AssertValid@CObject@@UBEXXZ
_TEXT	SEGMENT
?AssertValid@CObject@@UBEXXZ PROC			; CObject::AssertValid, COMDAT
; _this$ = ecx

; 120  : 	{ /* no asserts in release builds */ }

  00000	c2 00 00	 ret	 0
?AssertValid@CObject@@UBEXXZ ENDP			; CObject::AssertValid
_TEXT	ENDS
; Function compile flags: /Ogtp
; File C:\Program Files (x86)\Microsoft Visual Studio\2019\Community\VC\Tools\MSVC\14.29.30133\atlmfc\include\afx.inl
;	COMDAT ?Serialize@CObject@@UAEXAAVCArchive@@@Z
_TEXT	SEGMENT
___formal$ = 8						; size = 4
?Serialize@CObject@@UAEXAAVCArchive@@@Z PROC		; CObject::Serialize, COMDAT
; _this$ = ecx

; 106  : 	{ /* CObject does not serialize anything by default */ }

  00000	c2 04 00	 ret	 4
?Serialize@CObject@@UAEXAAVCArchive@@@Z ENDP		; CObject::Serialize
_TEXT	ENDS
; Function compile flags: /Ogtp
; File C:\Program Files (x86)\Microsoft Visual Studio\2019\Community\VC\Tools\MSVC\14.29.30133\atlmfc\include\afx.inl
;	COMDAT ??1CObject@@UAE@XZ
_TEXT	SEGMENT
??1CObject@@UAE@XZ PROC					; CObject::~CObject, COMDAT
; _this$ = ecx

; 104  : 	{ }

  00000	c2 00 00	 ret	 0
??1CObject@@UAE@XZ ENDP					; CObject::~CObject
_TEXT	ENDS
; Function compile flags: /Ogtp
; File D:\git\src\IBK\IBK_DRFN\ProjSrc\SrcChartEx\ChartAddIn\ChartEnvSetupDlgAddIn\ChartEnvSetupDlgAddIn\StyleDataManager.cpp
;	COMDAT ?__empty_global_delete@@YAXPAXI@Z
_TEXT	SEGMENT
___formal$ = 8						; size = 4
___formal$ = 12						; size = 4
?__empty_global_delete@@YAXPAXI@Z PROC			; __empty_global_delete, COMDAT

  00000	c2 00 00	 ret	 0
?__empty_global_delete@@YAXPAXI@Z ENDP			; __empty_global_delete
_TEXT	ENDS
; Function compile flags: /Ogtp
; File D:\git\src\IBK\IBK_DRFN\ProjSrc\SrcChartEx\ChartAddIn\ChartEnvSetupDlgAddIn\ChartEnvSetupDlgAddIn\StyleDataManager.cpp
;	COMDAT ?__empty_global_delete@@YAXPAX@Z
_TEXT	SEGMENT
___formal$ = 8						; size = 4
?__empty_global_delete@@YAXPAX@Z PROC			; __empty_global_delete, COMDAT

  00000	c2 00 00	 ret	 0
?__empty_global_delete@@YAXPAX@Z ENDP			; __empty_global_delete
_TEXT	ENDS
END
