; Listing generated by Microsoft (R) Optimizing Compiler Version 19.29.30145.0 

	TITLE	D:\git\src\IBK\IBK_DRFN\#DRfn-CS\_Obj\ChartEnvSetupDlgAddIn\TabMainChartEnvSetUp.obj
	.686P
	.XMM
	include listing.inc
	.model	flat

INCLUDELIB MSVCRT
INCLUDELIB OLDNAMES

PUBLIC	?__empty_global_delete@@YAXPAX@Z		; __empty_global_delete
PUBLIC	?__empty_global_delete@@YAXPAXI@Z		; __empty_global_delete
PUBLIC	??1CObject@@UAE@XZ				; CObject::~CObject
PUBLIC	??3CObject@@SGXPAX@Z				; CObject::operator delete
PUBLIC	?Serialize@CObject@@UAEXAAVCArchive@@@Z		; CObject::Serialize
PUBLIC	?AssertValid@CObject@@UBEXXZ			; CObject::AssertValid
PUBLIC	?Dump@CObject@@UBEXAAVCDumpContext@@@Z		; CObject::Dump
PUBLIC	?DoDataExchange@CWnd@@MAEXPAVCDataExchange@@@Z	; CWnd::DoDataExchange
PUBLIC	?BeginModalState@CWnd@@UAEXXZ			; CWnd::BeginModalState
PUBLIC	?EndModalState@CWnd@@UAEXXZ			; CWnd::EndModalState
PUBLIC	??_GCTabCtrl@@UAEPAXI@Z				; CTabCtrl::`scalar deleting destructor'
PUBLIC	??0CTabMainChartEnvSetUp@@QAE@XZ		; CTabMainChartEnvSetUp::CTabMainChartEnvSetUp
PUBLIC	??1CTabMainChartEnvSetUp@@UAE@XZ		; CTabMainChartEnvSetUp::~CTabMainChartEnvSetUp
PUBLIC	??0?$CList@HH@@QAE@H@Z				; CList<int,int>::CList<int,int>
PUBLIC	?AddTail@?$CList@HH@@QAEPAU__POSITION@@H@Z	; CList<int,int>::AddTail
PUBLIC	?RemoveAll@?$CList@HH@@QAEXXZ			; CList<int,int>::RemoveAll
PUBLIC	?RemoveAt@?$CList@HH@@QAEXPAU__POSITION@@@Z	; CList<int,int>::RemoveAt
PUBLIC	?Find@?$CList@HH@@QBEPAU__POSITION@@HPAU2@@Z	; CList<int,int>::Find
PUBLIC	?NewNode@?$CList@HH@@IAEPAUCNode@1@PAU21@0@Z	; CList<int,int>::NewNode
PUBLIC	?FreeNode@?$CList@HH@@IAEXPAUCNode@1@@Z		; CList<int,int>::FreeNode
PUBLIC	??1?$CList@HH@@UAE@XZ				; CList<int,int>::~CList<int,int>
PUBLIC	?Serialize@?$CList@HH@@UAEXAAVCArchive@@@Z	; CList<int,int>::Serialize
PUBLIC	??_G?$CList@HH@@UAEPAXI@Z			; CList<int,int>::`scalar deleting destructor'
PUBLIC	?PreTranslateMessage@CTabMainChartEnvSetUp@@UAEHPAUtagMSG@@@Z ; CTabMainChartEnvSetUp::PreTranslateMessage
PUBLIC	?Init@CTabMainChartEnvSetUp@@QAEHPAUIChartOCX135914@@PAVCDlgEnvSetUpAll@@HH@Z ; CTabMainChartEnvSetUp::Init
PUBLIC	?GetTabPages@CTabMainChartEnvSetUp@@QAEPAVCDialog@@H@Z ; CTabMainChartEnvSetUp::GetTabPages
PUBLIC	?CreateTabPage@CTabMainChartEnvSetUp@@AAEHXZ	; CTabMainChartEnvSetUp::CreateTabPage
PUBLIC	?SetTabPagePosition@CTabMainChartEnvSetUp@@AAEXXZ ; CTabMainChartEnvSetUp::SetTabPagePosition
PUBLIC	?ChangeDataInTab@CTabMainChartEnvSetUp@@AAE_NPAVCBaseTabDlg@@@Z ; CTabMainChartEnvSetUp::ChangeDataInTab
PUBLIC	?OnSelchange@CTabMainChartEnvSetUp@@IAEXPAUtagNMHDR@@PAJ@Z ; CTabMainChartEnvSetUp::OnSelchange
PUBLIC	?GetThisMessageMap@CTabMainChartEnvSetUp@@KGPBUAFX_MSGMAP@@XZ ; CTabMainChartEnvSetUp::GetThisMessageMap
PUBLIC	?GetMessageMap@CTabMainChartEnvSetUp@@MBEPBUAFX_MSGMAP@@XZ ; CTabMainChartEnvSetUp::GetMessageMap
PUBLIC	?TabPageMoveWindow@CTabMainChartEnvSetUp@@QAEXH@Z ; CTabMainChartEnvSetUp::TabPageMoveWindow
PUBLIC	?UpdateAnalysisColorInStyle@CTabMainChartEnvSetUp@@QAEXK@Z ; CTabMainChartEnvSetUp::UpdateAnalysisColorInStyle
PUBLIC	?UpdateAnalysisColorInAnalysisTool@CTabMainChartEnvSetUp@@QAEXK@Z ; CTabMainChartEnvSetUp::UpdateAnalysisColorInAnalysisTool
PUBLIC	?OnGraphDeleted@CTabMainChartEnvSetUp@@QAEXPBD0@Z ; CTabMainChartEnvSetUp::OnGraphDeleted
PUBLIC	?CheckPriceChart@CTabMainChartEnvSetUp@@QAEXXZ	; CTabMainChartEnvSetUp::CheckPriceChart
PUBLIC	??_GCTabMainChartEnvSetUp@@UAEPAXI@Z		; CTabMainChartEnvSetUp::`scalar deleting destructor'
PUBLIC	??$CompareElements@HH@@YGHPBH0@Z		; CompareElements<int,int>
PUBLIC	??$SerializeElements@H@@YGXAAVCArchive@@PAHH@Z	; SerializeElements<int>
PUBLIC	??_7CTabCtrl@@6B@				; CTabCtrl::`vftable'
PUBLIC	??_R0?AVCObject@@@8				; CObject `RTTI Type Descriptor'
PUBLIC	??_R3CObject@@8					; CObject::`RTTI Class Hierarchy Descriptor'
PUBLIC	??_R2CObject@@8					; CObject::`RTTI Base Class Array'
PUBLIC	??_R1A@?0A@EA@CObject@@8			; CObject::`RTTI Base Class Descriptor at (0,-1,0,64)'
PUBLIC	??_R1A@?0A@EA@CWnd@@8				; CWnd::`RTTI Base Class Descriptor at (0,-1,0,64)'
PUBLIC	??_R0?AVCWnd@@@8				; CWnd `RTTI Type Descriptor'
PUBLIC	??_R3CWnd@@8					; CWnd::`RTTI Class Hierarchy Descriptor'
PUBLIC	??_R2CWnd@@8					; CWnd::`RTTI Base Class Array'
PUBLIC	??_R1A@?0A@EA@CCmdTarget@@8			; CCmdTarget::`RTTI Base Class Descriptor at (0,-1,0,64)'
PUBLIC	??_R0?AVCCmdTarget@@@8				; CCmdTarget `RTTI Type Descriptor'
PUBLIC	??_R3CCmdTarget@@8				; CCmdTarget::`RTTI Class Hierarchy Descriptor'
PUBLIC	??_R2CCmdTarget@@8				; CCmdTarget::`RTTI Base Class Array'
PUBLIC	??_R4CTabCtrl@@6B@				; CTabCtrl::`RTTI Complete Object Locator'
PUBLIC	??_R0?AVCTabCtrl@@@8				; CTabCtrl `RTTI Type Descriptor'
PUBLIC	??_R3CTabCtrl@@8				; CTabCtrl::`RTTI Class Hierarchy Descriptor'
PUBLIC	??_R2CTabCtrl@@8				; CTabCtrl::`RTTI Base Class Array'
PUBLIC	??_R1A@?0A@EA@CTabCtrl@@8			; CTabCtrl::`RTTI Base Class Descriptor at (0,-1,0,64)'
PUBLIC	??_7?$CList@HH@@6B@				; CList<int,int>::`vftable'
PUBLIC	??_7CTabMainChartEnvSetUp@@6B@			; CTabMainChartEnvSetUp::`vftable'
PUBLIC	??_R4CTabMainChartEnvSetUp@@6B@			; CTabMainChartEnvSetUp::`RTTI Complete Object Locator'
PUBLIC	??_R0?AVCTabMainChartEnvSetUp@@@8		; CTabMainChartEnvSetUp `RTTI Type Descriptor'
PUBLIC	??_R3CTabMainChartEnvSetUp@@8			; CTabMainChartEnvSetUp::`RTTI Class Hierarchy Descriptor'
PUBLIC	??_R2CTabMainChartEnvSetUp@@8			; CTabMainChartEnvSetUp::`RTTI Base Class Array'
PUBLIC	??_R1A@?0A@EA@CTabMainChartEnvSetUp@@8		; CTabMainChartEnvSetUp::`RTTI Base Class Descriptor at (0,-1,0,64)'
PUBLIC	??_R4?$CList@HH@@6B@				; CList<int,int>::`RTTI Complete Object Locator'
PUBLIC	??_R0?AV?$CList@HH@@@8				; CList<int,int> `RTTI Type Descriptor'
PUBLIC	??_R3?$CList@HH@@8				; CList<int,int>::`RTTI Class Hierarchy Descriptor'
PUBLIC	??_R2?$CList@HH@@8				; CList<int,int>::`RTTI Base Class Array'
PUBLIC	??_R1A@?0A@EA@?$CList@HH@@8			; CList<int,int>::`RTTI Base Class Descriptor at (0,-1,0,64)'
EXTRN	??2@YAPAXI@Z:PROC				; operator new
EXTRN	??3@YAXPAX@Z:PROC				; operator delete
EXTRN	?__global_delete@@YAXPAXI@Z:PROC		; __global_delete
EXTRN	___std_terminate:PROC
EXTRN	__imp__SendMessageA@16:PROC
EXTRN	__imp__EnableWindow@8:PROC
EXTRN	__imp__GetClientRect@8:PROC
EXTRN	__imp__GetWindowRect@8:PROC
EXTRN	?AfxThrowInvalidArgException@@YGXXZ:PROC	; AfxThrowInvalidArgException
EXTRN	?AfxThrowArchiveException@@YGXHPBD@Z:PROC	; AfxThrowArchiveException
EXTRN	?GetRuntimeClass@CObject@@UBEPAUCRuntimeClass@@XZ:PROC ; CObject::GetRuntimeClass
EXTRN	?IsKindOf@CObject@@QBEHPBUCRuntimeClass@@@Z:PROC ; CObject::IsKindOf
EXTRN	__imp_??0?$CStringT@DV?$StrTraitMFC_DLL@DV?$ChTraitsCRT@D@ATL@@@@@ATL@@QAE@XZ:PROC
EXTRN	__imp_??1?$CStringT@DV?$StrTraitMFC_DLL@DV?$ChTraitsCRT@D@ATL@@@@@ATL@@QAE@XZ:PROC
EXTRN	__imp_?LoadStringA@?$CStringT@DV?$StrTraitMFC_DLL@DV?$ChTraitsCRT@D@ATL@@@@@ATL@@QAEHI@Z:PROC
EXTRN	?Read@CArchive@@QAEIPAXI@Z:PROC			; CArchive::Read
EXTRN	?Write@CArchive@@QAEXPBXI@Z:PROC		; CArchive::Write
EXTRN	?ReadCount@CArchive@@QAEKXZ:PROC		; CArchive::ReadCount
EXTRN	?WriteCount@CArchive@@QAEXK@Z:PROC		; CArchive::WriteCount
EXTRN	?Create@CPlex@@SGPAU1@AAPAU1@II@Z:PROC		; CPlex::Create
EXTRN	?FreeDataChain@CPlex@@QAEXXZ:PROC		; CPlex::FreeDataChain
EXTRN	?OnCmdMsg@CCmdTarget@@UAEHIHPAXPAUAFX_CMDHANDLERINFO@@@Z:PROC ; CCmdTarget::OnCmdMsg
EXTRN	?IsInvokeAllowed@CCmdTarget@@UAEHJ@Z:PROC	; CCmdTarget::IsInvokeAllowed
EXTRN	?GetDispatchIID@CCmdTarget@@UAEHPAU_GUID@@@Z:PROC ; CCmdTarget::GetDispatchIID
EXTRN	?GetTypeInfoCount@CCmdTarget@@UAEIXZ:PROC	; CCmdTarget::GetTypeInfoCount
EXTRN	?GetTypeLibCache@CCmdTarget@@UAEPAVCTypeLibCache@@XZ:PROC ; CCmdTarget::GetTypeLibCache
EXTRN	?GetTypeLib@CCmdTarget@@UAEJKPAPAUITypeLib@@@Z:PROC ; CCmdTarget::GetTypeLib
EXTRN	?GetCommandMap@CCmdTarget@@MBEPBUAFX_OLECMDMAP@@XZ:PROC ; CCmdTarget::GetCommandMap
EXTRN	?GetDispatchMap@CCmdTarget@@MBEPBUAFX_DISPMAP@@XZ:PROC ; CCmdTarget::GetDispatchMap
EXTRN	?GetConnectionMap@CCmdTarget@@MBEPBUAFX_CONNECTIONMAP@@XZ:PROC ; CCmdTarget::GetConnectionMap
EXTRN	?GetEventSinkMap@CCmdTarget@@MBEPBUAFX_EVENTSINKMAP@@XZ:PROC ; CCmdTarget::GetEventSinkMap
EXTRN	?OnCreateAggregates@CCmdTarget@@UAEHXZ:PROC	; CCmdTarget::OnCreateAggregates
EXTRN	?GetInterfaceHook@CCmdTarget@@UAEPAUIUnknown@@PBX@Z:PROC ; CCmdTarget::GetInterfaceHook
EXTRN	?GetExtraConnectionPoints@CCmdTarget@@MAEHPAVCPtrArray@@@Z:PROC ; CCmdTarget::GetExtraConnectionPoints
EXTRN	?GetConnectionHook@CCmdTarget@@MAEPAUIConnectionPoint@@ABU_GUID@@@Z:PROC ; CCmdTarget::GetConnectionHook
EXTRN	??0CWnd@@QAE@XZ:PROC				; CWnd::CWnd
EXTRN	?PreSubclassWindow@CWnd@@UAEXXZ:PROC		; CWnd::PreSubclassWindow
EXTRN	?Create@CWnd@@UAEHPBD0KABUtagRECT@@PAV1@IPAUCCreateContext@@@Z:PROC ; CWnd::Create
EXTRN	?CreateEx@CWnd@@UAEHKPBD0KHHHHPAUHWND__@@PAUHMENU__@@PAX@Z:PROC ; CWnd::CreateEx
EXTRN	?CreateEx@CWnd@@UAEHKPBD0KABUtagRECT@@PAV1@IPAX@Z:PROC ; CWnd::CreateEx
EXTRN	?DestroyWindow@CWnd@@UAEHXZ:PROC		; CWnd::DestroyWindow
EXTRN	?PreCreateWindow@CWnd@@UAEHAAUtagCREATESTRUCTA@@@Z:PROC ; CWnd::PreCreateWindow
EXTRN	?CalcWindowRect@CWnd@@UAEXPAUtagRECT@@I@Z:PROC	; CWnd::CalcWindowRect
EXTRN	?GetDlgItem@CWnd@@QBEPAV1@H@Z:PROC		; CWnd::GetDlgItem
EXTRN	?GetMenu@CWnd@@UBEPAVCMenu@@XZ:PROC		; CWnd::GetMenu
EXTRN	?SetMenu@CWnd@@UAEHPAVCMenu@@@Z:PROC		; CWnd::SetMenu
EXTRN	?MoveWindow@CWnd@@QAEXHHHHH@Z:PROC		; CWnd::MoveWindow
EXTRN	?SetWindowPos@CWnd@@QAEHPBV1@HHHHI@Z:PROC	; CWnd::SetWindowPos
EXTRN	?ScreenToClient@CWnd@@QBEXPAUtagRECT@@@Z:PROC	; CWnd::ScreenToClient
EXTRN	?ShowWindow@CWnd@@QAEHH@Z:PROC			; CWnd::ShowWindow
EXTRN	?OnToolHitTest@CWnd@@UBEHVCPoint@@PAUtagTOOLINFOA@@@Z:PROC ; CWnd::OnToolHitTest
EXTRN	?SetFocus@CWnd@@QAEPAV1@XZ:PROC			; CWnd::SetFocus
EXTRN	?GetScrollBarCtrl@CWnd@@UBEPAVCScrollBar@@H@Z:PROC ; CWnd::GetScrollBarCtrl
EXTRN	?WinHelpA@CWnd@@UAEXKI@Z:PROC			; CWnd::WinHelpA
EXTRN	?HtmlHelpA@CWnd@@UAEXKI@Z:PROC			; CWnd::HtmlHelpA
EXTRN	?WinHelpInternal@CWnd@@UAEXKI@Z:PROC		; CWnd::WinHelpInternal
EXTRN	?ContinueModal@CWnd@@UAEHXZ:PROC		; CWnd::ContinueModal
EXTRN	?EndModalLoop@CWnd@@UAEXH@Z:PROC		; CWnd::EndModalLoop
EXTRN	?OnDrawIconicThumbnailOrLivePreview@CWnd@@UAEXAAVCDC@@VCRect@@VCSize@@HAAH@Z:PROC ; CWnd::OnDrawIconicThumbnailOrLivePreview
EXTRN	?GetInterfaceMap@CWnd@@MBEPBUAFX_INTERFACEMAP@@XZ:PROC ; CWnd::GetInterfaceMap
EXTRN	?EnsureStdObj@CWnd@@UAEJXZ:PROC			; CWnd::EnsureStdObj
EXTRN	?get_accParent@CWnd@@UAEJPAPAUIDispatch@@@Z:PROC ; CWnd::get_accParent
EXTRN	?get_accChildCount@CWnd@@UAEJPAJ@Z:PROC		; CWnd::get_accChildCount
EXTRN	?get_accChild@CWnd@@UAEJUtagVARIANT@@PAPAUIDispatch@@@Z:PROC ; CWnd::get_accChild
EXTRN	?get_accName@CWnd@@UAEJUtagVARIANT@@PAPA_W@Z:PROC ; CWnd::get_accName
EXTRN	?get_accValue@CWnd@@UAEJUtagVARIANT@@PAPA_W@Z:PROC ; CWnd::get_accValue
EXTRN	?get_accDescription@CWnd@@UAEJUtagVARIANT@@PAPA_W@Z:PROC ; CWnd::get_accDescription
EXTRN	?get_accRole@CWnd@@UAEJUtagVARIANT@@PAU2@@Z:PROC ; CWnd::get_accRole
EXTRN	?get_accState@CWnd@@UAEJUtagVARIANT@@PAU2@@Z:PROC ; CWnd::get_accState
EXTRN	?get_accHelp@CWnd@@UAEJUtagVARIANT@@PAPA_W@Z:PROC ; CWnd::get_accHelp
EXTRN	?get_accHelpTopic@CWnd@@UAEJPAPA_WUtagVARIANT@@PAJ@Z:PROC ; CWnd::get_accHelpTopic
EXTRN	?get_accKeyboardShortcut@CWnd@@UAEJUtagVARIANT@@PAPA_W@Z:PROC ; CWnd::get_accKeyboardShortcut
EXTRN	?get_accFocus@CWnd@@UAEJPAUtagVARIANT@@@Z:PROC	; CWnd::get_accFocus
EXTRN	?get_accSelection@CWnd@@UAEJPAUtagVARIANT@@@Z:PROC ; CWnd::get_accSelection
EXTRN	?get_accDefaultAction@CWnd@@UAEJUtagVARIANT@@PAPA_W@Z:PROC ; CWnd::get_accDefaultAction
EXTRN	?accSelect@CWnd@@UAEJJUtagVARIANT@@@Z:PROC	; CWnd::accSelect
EXTRN	?accLocation@CWnd@@UAEJPAJ000UtagVARIANT@@@Z:PROC ; CWnd::accLocation
EXTRN	?accNavigate@CWnd@@UAEJJUtagVARIANT@@PAU2@@Z:PROC ; CWnd::accNavigate
EXTRN	?accHitTest@CWnd@@UAEJJJPAUtagVARIANT@@@Z:PROC	; CWnd::accHitTest
EXTRN	?accDoDefaultAction@CWnd@@UAEJUtagVARIANT@@@Z:PROC ; CWnd::accDoDefaultAction
EXTRN	?put_accName@CWnd@@UAEJUtagVARIANT@@PA_W@Z:PROC	; CWnd::put_accName
EXTRN	?put_accValue@CWnd@@UAEJUtagVARIANT@@PA_W@Z:PROC ; CWnd::put_accValue
EXTRN	?SetProxy@CWnd@@UAEJPAUIAccessibleProxy@@@Z:PROC ; CWnd::SetProxy
EXTRN	?CreateAccessibleProxy@CWnd@@UAEJIJPAJ@Z:PROC	; CWnd::CreateAccessibleProxy
EXTRN	?OnCommand@CWnd@@MAEHIJ@Z:PROC			; CWnd::OnCommand
EXTRN	?OnNotify@CWnd@@MAEHIJPAJ@Z:PROC		; CWnd::OnNotify
EXTRN	?GetSuperWndProcAddr@CWnd@@MAEPAP6GJPAUHWND__@@IIJ@ZXZ:PROC ; CWnd::GetSuperWndProcAddr
EXTRN	?PreTranslateMessage@CWnd@@UAEHPAUtagMSG@@@Z:PROC ; CWnd::PreTranslateMessage
EXTRN	?OnAmbientProperty@CWnd@@UAEHPAVCOleControlSite@@JPAUtagVARIANT@@@Z:PROC ; CWnd::OnAmbientProperty
EXTRN	?WindowProc@CWnd@@MAEJIIJ@Z:PROC		; CWnd::WindowProc
EXTRN	?OnWndMsg@CWnd@@MAEHIIJPAJ@Z:PROC		; CWnd::OnWndMsg
EXTRN	?DefWindowProcA@CWnd@@MAEJIIJ@Z:PROC		; CWnd::DefWindowProcA
EXTRN	?PostNcDestroy@CWnd@@MAEXXZ:PROC		; CWnd::PostNcDestroy
EXTRN	?OnTouchInputs@CWnd@@MAEHIPAUtagTOUCHINPUT@@@Z:PROC ; CWnd::OnTouchInputs
EXTRN	?OnTouchInput@CWnd@@MAEHVCPoint@@HHPAUtagTOUCHINPUT@@@Z:PROC ; CWnd::OnTouchInput
EXTRN	?GetGestureStatus@CWnd@@MAEKVCPoint@@@Z:PROC	; CWnd::GetGestureStatus
EXTRN	?OnGestureZoom@CWnd@@MAEHVCPoint@@J@Z:PROC	; CWnd::OnGestureZoom
EXTRN	?OnGesturePan@CWnd@@MAEHVCPoint@@0@Z:PROC	; CWnd::OnGesturePan
EXTRN	?OnGestureRotate@CWnd@@MAEHVCPoint@@N@Z:PROC	; CWnd::OnGestureRotate
EXTRN	?OnGestureTwoFingerTap@CWnd@@MAEHVCPoint@@@Z:PROC ; CWnd::OnGestureTwoFingerTap
EXTRN	?OnGesturePressAndTap@CWnd@@MAEHVCPoint@@J@Z:PROC ; CWnd::OnGesturePressAndTap
EXTRN	?ResizeDynamicLayout@CWnd@@MAEXXZ:PROC		; CWnd::ResizeDynamicLayout
EXTRN	?CheckAutoCenter@CWnd@@UAEHXZ:PROC		; CWnd::CheckAutoCenter
EXTRN	?IsFrameWnd@CWnd@@UBEHXZ:PROC			; CWnd::IsFrameWnd
EXTRN	?OnFinalRelease@CWnd@@UAEXXZ:PROC		; CWnd::OnFinalRelease
EXTRN	?CreateControlContainer@CWnd@@MAEHPAPAVCOleControlContainer@@@Z:PROC ; CWnd::CreateControlContainer
EXTRN	?CreateControlSite@CWnd@@MAEHPAVCOleControlContainer@@PAPAVCOleControlSite@@IABU_GUID@@@Z:PROC ; CWnd::CreateControlSite
EXTRN	?SetOccDialogInfo@CWnd@@MAEHPAU_AFX_OCC_DIALOG_INFO@@@Z:PROC ; CWnd::SetOccDialogInfo
EXTRN	?GetOccDialogInfo@CWnd@@MAEPAU_AFX_OCC_DIALOG_INFO@@XZ:PROC ; CWnd::GetOccDialogInfo
EXTRN	?GetRuntimeClass@CTabCtrl@@UBEPAUCRuntimeClass@@XZ:PROC ; CTabCtrl::GetRuntimeClass
EXTRN	?Create@CTabCtrl@@UAEHKABUtagRECT@@PAVCWnd@@I@Z:PROC ; CTabCtrl::Create
EXTRN	?CreateEx@CTabCtrl@@UAEHKKABUtagRECT@@PAVCWnd@@I@Z:PROC ; CTabCtrl::CreateEx
EXTRN	?InsertItem@CTabCtrl@@QAEJIHPBDHJ@Z:PROC	; CTabCtrl::InsertItem
EXTRN	?DrawItem@CTabCtrl@@UAEXPAUtagDRAWITEMSTRUCT@@@Z:PROC ; CTabCtrl::DrawItem
EXTRN	??1CTabCtrl@@UAE@XZ:PROC			; CTabCtrl::~CTabCtrl
EXTRN	?OnChildNotify@CTabCtrl@@MAEHIIJPAJ@Z:PROC	; CTabCtrl::OnChildNotify
EXTRN	?GetThisMessageMap@CTabCtrl@@KGPBUAFX_MSGMAP@@XZ:PROC ; CTabCtrl::GetThisMessageMap
EXTRN	?GetMessageMap@CTabCtrl@@MBEPBUAFX_MSGMAP@@XZ:PROC ; CTabCtrl::GetMessageMap
EXTRN	??_ECTabCtrl@@UAEPAXI@Z:PROC			; CTabCtrl::`vector deleting destructor'
EXTRN	??_E?$CList@HH@@UAEPAXI@Z:PROC			; CList<int,int>::`vector deleting destructor'
EXTRN	??_ECTabMainChartEnvSetUp@@UAEPAXI@Z:PROC	; CTabMainChartEnvSetUp::`vector deleting destructor'
EXTRN	?GetThisClass@CDlgMainTabIndicatorSetUp@@SGPAUCRuntimeClass@@XZ:PROC ; CDlgMainTabIndicatorSetUp::GetThisClass
EXTRN	??0CDlgMainTabIndicatorSetUp@@QAE@PAUIChartOCX135914@@PAVCWnd@@@Z:PROC ; CDlgMainTabIndicatorSetUp::CDlgMainTabIndicatorSetUp
EXTRN	?OnGraphDeleted@CDlgMainTabIndicatorSetUp@@QAEXPBD0@Z:PROC ; CDlgMainTabIndicatorSetUp::OnGraphDeleted
EXTRN	??0CDlgMainTabBaseEnvSetUp@@QAE@PAUIChartOCX135914@@PAVCWnd@@H@Z:PROC ; CDlgMainTabBaseEnvSetUp::CDlgMainTabBaseEnvSetUp
EXTRN	?GetThisClass@CDlgMainTabAnalysisSetUp@@SGPAUCRuntimeClass@@XZ:PROC ; CDlgMainTabAnalysisSetUp::GetThisClass
EXTRN	??0CDlgMainTabAnalysisSetUp@@QAE@PAUIChartOCX135914@@PAVCWnd@@@Z:PROC ; CDlgMainTabAnalysisSetUp::CDlgMainTabAnalysisSetUp
EXTRN	?UpdateAnalysisColor@CDlgMainTabAnalysisSetUp@@QAEXK@Z:PROC ; CDlgMainTabAnalysisSetUp::UpdateAnalysisColor
EXTRN	?GetThisClass@CDlgMainTabStyleSetUp@@SGPAUCRuntimeClass@@XZ:PROC ; CDlgMainTabStyleSetUp::GetThisClass
EXTRN	??0CDlgMainTabStyleSetUp@@QAE@PAUIChartOCX135914@@PAVCWnd@@@Z:PROC ; CDlgMainTabStyleSetUp::CDlgMainTabStyleSetUp
EXTRN	?UpdateAnalysisColor@CDlgMainTabStyleSetUp@@QAEXK@Z:PROC ; CDlgMainTabStyleSetUp::UpdateAnalysisColor
EXTRN	@__security_check_cookie@4:PROC
EXTRN	___CxxFrameHandler3:PROC
EXTRN	??_7type_info@@6B@:QWORD			; type_info::`vftable'
EXTRN	__imp_?wndTop@CWnd@@2V1@B:BYTE
EXTRN	?g_iMetaTable@@3VIMetaTable@@A:BYTE		; g_iMetaTable
EXTRN	___security_cookie:DWORD
;	COMDAT ??_R1A@?0A@EA@?$CList@HH@@8
rdata$r	SEGMENT
??_R1A@?0A@EA@?$CList@HH@@8 DD FLAT:??_R0?AV?$CList@HH@@@8 ; CList<int,int>::`RTTI Base Class Descriptor at (0,-1,0,64)'
	DD	01H
	DD	00H
	DD	0ffffffffH
	DD	00H
	DD	040H
	DD	FLAT:??_R3?$CList@HH@@8
rdata$r	ENDS
;	COMDAT ??_R2?$CList@HH@@8
rdata$r	SEGMENT
??_R2?$CList@HH@@8 DD FLAT:??_R1A@?0A@EA@?$CList@HH@@8	; CList<int,int>::`RTTI Base Class Array'
	DD	FLAT:??_R1A@?0A@EA@CObject@@8
rdata$r	ENDS
;	COMDAT ??_R3?$CList@HH@@8
rdata$r	SEGMENT
??_R3?$CList@HH@@8 DD 00H				; CList<int,int>::`RTTI Class Hierarchy Descriptor'
	DD	00H
	DD	02H
	DD	FLAT:??_R2?$CList@HH@@8
rdata$r	ENDS
;	COMDAT ??_R0?AV?$CList@HH@@@8
data$rs	SEGMENT
??_R0?AV?$CList@HH@@@8 DD FLAT:??_7type_info@@6B@	; CList<int,int> `RTTI Type Descriptor'
	DD	00H
	DB	'.?AV?$CList@HH@@', 00H
data$rs	ENDS
;	COMDAT ??_R4?$CList@HH@@6B@
rdata$r	SEGMENT
??_R4?$CList@HH@@6B@ DD 00H				; CList<int,int>::`RTTI Complete Object Locator'
	DD	00H
	DD	00H
	DD	FLAT:??_R0?AV?$CList@HH@@@8
	DD	FLAT:??_R3?$CList@HH@@8
rdata$r	ENDS
;	COMDAT ??_R1A@?0A@EA@CTabMainChartEnvSetUp@@8
rdata$r	SEGMENT
??_R1A@?0A@EA@CTabMainChartEnvSetUp@@8 DD FLAT:??_R0?AVCTabMainChartEnvSetUp@@@8 ; CTabMainChartEnvSetUp::`RTTI Base Class Descriptor at (0,-1,0,64)'
	DD	04H
	DD	00H
	DD	0ffffffffH
	DD	00H
	DD	040H
	DD	FLAT:??_R3CTabMainChartEnvSetUp@@8
rdata$r	ENDS
;	COMDAT ??_R2CTabMainChartEnvSetUp@@8
rdata$r	SEGMENT
??_R2CTabMainChartEnvSetUp@@8 DD FLAT:??_R1A@?0A@EA@CTabMainChartEnvSetUp@@8 ; CTabMainChartEnvSetUp::`RTTI Base Class Array'
	DD	FLAT:??_R1A@?0A@EA@CTabCtrl@@8
	DD	FLAT:??_R1A@?0A@EA@CWnd@@8
	DD	FLAT:??_R1A@?0A@EA@CCmdTarget@@8
	DD	FLAT:??_R1A@?0A@EA@CObject@@8
rdata$r	ENDS
;	COMDAT ??_R3CTabMainChartEnvSetUp@@8
rdata$r	SEGMENT
??_R3CTabMainChartEnvSetUp@@8 DD 00H			; CTabMainChartEnvSetUp::`RTTI Class Hierarchy Descriptor'
	DD	00H
	DD	05H
	DD	FLAT:??_R2CTabMainChartEnvSetUp@@8
rdata$r	ENDS
;	COMDAT ??_R0?AVCTabMainChartEnvSetUp@@@8
data$rs	SEGMENT
??_R0?AVCTabMainChartEnvSetUp@@@8 DD FLAT:??_7type_info@@6B@ ; CTabMainChartEnvSetUp `RTTI Type Descriptor'
	DD	00H
	DB	'.?AVCTabMainChartEnvSetUp@@', 00H
data$rs	ENDS
;	COMDAT ??_R4CTabMainChartEnvSetUp@@6B@
rdata$r	SEGMENT
??_R4CTabMainChartEnvSetUp@@6B@ DD 00H			; CTabMainChartEnvSetUp::`RTTI Complete Object Locator'
	DD	00H
	DD	00H
	DD	FLAT:??_R0?AVCTabMainChartEnvSetUp@@@8
	DD	FLAT:??_R3CTabMainChartEnvSetUp@@8
rdata$r	ENDS
;	COMDAT ?messageMap@?1??GetThisMessageMap@CTabMainChartEnvSetUp@@KGPBUAFX_MSGMAP@@XZ@4U3@B
CONST	SEGMENT
?messageMap@?1??GetThisMessageMap@CTabMainChartEnvSetUp@@KGPBUAFX_MSGMAP@@XZ@4U3@B DD FLAT:?GetThisMessageMap@CTabCtrl@@KGPBUAFX_MSGMAP@@XZ ; `CTabMainChartEnvSetUp::GetThisMessageMap'::`2'::messageMap
	DD	FLAT:?_messageEntries@?1??GetThisMessageMap@CTabMainChartEnvSetUp@@KGPBUAFX_MSGMAP@@XZ@4QBUAFX_MSGMAP_ENTRY@@B
CONST	ENDS
;	COMDAT ?_messageEntries@?1??GetThisMessageMap@CTabMainChartEnvSetUp@@KGPBUAFX_MSGMAP@@XZ@4QBUAFX_MSGMAP_ENTRY@@B
CONST	SEGMENT
?_messageEntries@?1??GetThisMessageMap@CTabMainChartEnvSetUp@@KGPBUAFX_MSGMAP@@XZ@4QBUAFX_MSGMAP_ENTRY@@B DD 0bc4eH ; `CTabMainChartEnvSetUp::GetThisMessageMap'::`2'::_messageEntries
	DD	0fdd9H
	DD	00H
	DD	00H
	DD	03eH
	DD	FLAT:?OnSelchange@CTabMainChartEnvSetUp@@IAEXPAUtagNMHDR@@PAJ@Z
	DD	00H
	DD	00H
	DD	00H
	DD	00H
	DD	00H
	DD	00H
CONST	ENDS
;	COMDAT ??_7CTabMainChartEnvSetUp@@6B@
CONST	SEGMENT
??_7CTabMainChartEnvSetUp@@6B@ DD FLAT:??_R4CTabMainChartEnvSetUp@@6B@ ; CTabMainChartEnvSetUp::`vftable'
	DD	FLAT:?GetRuntimeClass@CTabCtrl@@UBEPAUCRuntimeClass@@XZ
	DD	FLAT:??_ECTabMainChartEnvSetUp@@UAEPAXI@Z
	DD	FLAT:?Serialize@CObject@@UAEXAAVCArchive@@@Z
	DD	FLAT:?AssertValid@CObject@@UBEXXZ
	DD	FLAT:?Dump@CObject@@UBEXAAVCDumpContext@@@Z
	DD	FLAT:?OnCmdMsg@CCmdTarget@@UAEHIHPAXPAUAFX_CMDHANDLERINFO@@@Z
	DD	FLAT:?OnFinalRelease@CWnd@@UAEXXZ
	DD	FLAT:?IsInvokeAllowed@CCmdTarget@@UAEHJ@Z
	DD	FLAT:?GetDispatchIID@CCmdTarget@@UAEHPAU_GUID@@@Z
	DD	FLAT:?GetTypeInfoCount@CCmdTarget@@UAEIXZ
	DD	FLAT:?GetTypeLibCache@CCmdTarget@@UAEPAVCTypeLibCache@@XZ
	DD	FLAT:?GetTypeLib@CCmdTarget@@UAEJKPAPAUITypeLib@@@Z
	DD	FLAT:?GetMessageMap@CTabMainChartEnvSetUp@@MBEPBUAFX_MSGMAP@@XZ
	DD	FLAT:?GetCommandMap@CCmdTarget@@MBEPBUAFX_OLECMDMAP@@XZ
	DD	FLAT:?GetDispatchMap@CCmdTarget@@MBEPBUAFX_DISPMAP@@XZ
	DD	FLAT:?GetConnectionMap@CCmdTarget@@MBEPBUAFX_CONNECTIONMAP@@XZ
	DD	FLAT:?GetInterfaceMap@CWnd@@MBEPBUAFX_INTERFACEMAP@@XZ
	DD	FLAT:?GetEventSinkMap@CCmdTarget@@MBEPBUAFX_EVENTSINKMAP@@XZ
	DD	FLAT:?OnCreateAggregates@CCmdTarget@@UAEHXZ
	DD	FLAT:?GetInterfaceHook@CCmdTarget@@UAEPAUIUnknown@@PBX@Z
	DD	FLAT:?GetExtraConnectionPoints@CCmdTarget@@MAEHPAVCPtrArray@@@Z
	DD	FLAT:?GetConnectionHook@CCmdTarget@@MAEPAUIConnectionPoint@@ABU_GUID@@@Z
	DD	FLAT:?PreSubclassWindow@CWnd@@UAEXXZ
	DD	FLAT:?Create@CWnd@@UAEHPBD0KABUtagRECT@@PAV1@IPAUCCreateContext@@@Z
	DD	FLAT:?CreateEx@CWnd@@UAEHKPBD0KABUtagRECT@@PAV1@IPAX@Z
	DD	FLAT:?CreateEx@CWnd@@UAEHKPBD0KHHHHPAUHWND__@@PAUHMENU__@@PAX@Z
	DD	FLAT:?DestroyWindow@CWnd@@UAEHXZ
	DD	FLAT:?PreCreateWindow@CWnd@@UAEHAAUtagCREATESTRUCTA@@@Z
	DD	FLAT:?CalcWindowRect@CWnd@@UAEXPAUtagRECT@@I@Z
	DD	FLAT:?GetMenu@CWnd@@UBEPAVCMenu@@XZ
	DD	FLAT:?SetMenu@CWnd@@UAEHPAVCMenu@@@Z
	DD	FLAT:?OnToolHitTest@CWnd@@UBEHVCPoint@@PAUtagTOOLINFOA@@@Z
	DD	FLAT:?GetScrollBarCtrl@CWnd@@UBEPAVCScrollBar@@H@Z
	DD	FLAT:?WinHelpA@CWnd@@UAEXKI@Z
	DD	FLAT:?HtmlHelpA@CWnd@@UAEXKI@Z
	DD	FLAT:?WinHelpInternal@CWnd@@UAEXKI@Z
	DD	FLAT:?ContinueModal@CWnd@@UAEHXZ
	DD	FLAT:?EndModalLoop@CWnd@@UAEXH@Z
	DD	FLAT:?OnDrawIconicThumbnailOrLivePreview@CWnd@@UAEXAAVCDC@@VCRect@@VCSize@@HAAH@Z
	DD	FLAT:?EnsureStdObj@CWnd@@UAEJXZ
	DD	FLAT:?get_accParent@CWnd@@UAEJPAPAUIDispatch@@@Z
	DD	FLAT:?get_accChildCount@CWnd@@UAEJPAJ@Z
	DD	FLAT:?get_accChild@CWnd@@UAEJUtagVARIANT@@PAPAUIDispatch@@@Z
	DD	FLAT:?get_accName@CWnd@@UAEJUtagVARIANT@@PAPA_W@Z
	DD	FLAT:?get_accValue@CWnd@@UAEJUtagVARIANT@@PAPA_W@Z
	DD	FLAT:?get_accDescription@CWnd@@UAEJUtagVARIANT@@PAPA_W@Z
	DD	FLAT:?get_accRole@CWnd@@UAEJUtagVARIANT@@PAU2@@Z
	DD	FLAT:?get_accState@CWnd@@UAEJUtagVARIANT@@PAU2@@Z
	DD	FLAT:?get_accHelp@CWnd@@UAEJUtagVARIANT@@PAPA_W@Z
	DD	FLAT:?get_accHelpTopic@CWnd@@UAEJPAPA_WUtagVARIANT@@PAJ@Z
	DD	FLAT:?get_accKeyboardShortcut@CWnd@@UAEJUtagVARIANT@@PAPA_W@Z
	DD	FLAT:?get_accFocus@CWnd@@UAEJPAUtagVARIANT@@@Z
	DD	FLAT:?get_accSelection@CWnd@@UAEJPAUtagVARIANT@@@Z
	DD	FLAT:?get_accDefaultAction@CWnd@@UAEJUtagVARIANT@@PAPA_W@Z
	DD	FLAT:?accSelect@CWnd@@UAEJJUtagVARIANT@@@Z
	DD	FLAT:?accLocation@CWnd@@UAEJPAJ000UtagVARIANT@@@Z
	DD	FLAT:?accNavigate@CWnd@@UAEJJUtagVARIANT@@PAU2@@Z
	DD	FLAT:?accHitTest@CWnd@@UAEJJJPAUtagVARIANT@@@Z
	DD	FLAT:?accDoDefaultAction@CWnd@@UAEJUtagVARIANT@@@Z
	DD	FLAT:?put_accName@CWnd@@UAEJUtagVARIANT@@PA_W@Z
	DD	FLAT:?put_accValue@CWnd@@UAEJUtagVARIANT@@PA_W@Z
	DD	FLAT:?SetProxy@CWnd@@UAEJPAUIAccessibleProxy@@@Z
	DD	FLAT:?CreateAccessibleProxy@CWnd@@UAEJIJPAJ@Z
	DD	FLAT:?OnCommand@CWnd@@MAEHIJ@Z
	DD	FLAT:?OnNotify@CWnd@@MAEHIJPAJ@Z
	DD	FLAT:?GetSuperWndProcAddr@CWnd@@MAEPAP6GJPAUHWND__@@IIJ@ZXZ
	DD	FLAT:?DoDataExchange@CWnd@@MAEXPAVCDataExchange@@@Z
	DD	FLAT:?BeginModalState@CWnd@@UAEXXZ
	DD	FLAT:?EndModalState@CWnd@@UAEXXZ
	DD	FLAT:?PreTranslateMessage@CTabMainChartEnvSetUp@@UAEHPAUtagMSG@@@Z
	DD	FLAT:?OnAmbientProperty@CWnd@@UAEHPAVCOleControlSite@@JPAUtagVARIANT@@@Z
	DD	FLAT:?WindowProc@CWnd@@MAEJIIJ@Z
	DD	FLAT:?OnWndMsg@CWnd@@MAEHIIJPAJ@Z
	DD	FLAT:?DefWindowProcA@CWnd@@MAEJIIJ@Z
	DD	FLAT:?PostNcDestroy@CWnd@@MAEXXZ
	DD	FLAT:?OnChildNotify@CTabCtrl@@MAEHIIJPAJ@Z
	DD	FLAT:?OnTouchInputs@CWnd@@MAEHIPAUtagTOUCHINPUT@@@Z
	DD	FLAT:?OnTouchInput@CWnd@@MAEHVCPoint@@HHPAUtagTOUCHINPUT@@@Z
	DD	FLAT:?GetGestureStatus@CWnd@@MAEKVCPoint@@@Z
	DD	FLAT:?OnGestureZoom@CWnd@@MAEHVCPoint@@J@Z
	DD	FLAT:?OnGesturePan@CWnd@@MAEHVCPoint@@0@Z
	DD	FLAT:?OnGestureRotate@CWnd@@MAEHVCPoint@@N@Z
	DD	FLAT:?OnGestureTwoFingerTap@CWnd@@MAEHVCPoint@@@Z
	DD	FLAT:?OnGesturePressAndTap@CWnd@@MAEHVCPoint@@J@Z
	DD	FLAT:?ResizeDynamicLayout@CWnd@@MAEXXZ
	DD	FLAT:?CheckAutoCenter@CWnd@@UAEHXZ
	DD	FLAT:?IsFrameWnd@CWnd@@UBEHXZ
	DD	FLAT:?CreateControlContainer@CWnd@@MAEHPAPAVCOleControlContainer@@@Z
	DD	FLAT:?CreateControlSite@CWnd@@MAEHPAVCOleControlContainer@@PAPAVCOleControlSite@@IABU_GUID@@@Z
	DD	FLAT:?SetOccDialogInfo@CWnd@@MAEHPAU_AFX_OCC_DIALOG_INFO@@@Z
	DD	FLAT:?GetOccDialogInfo@CWnd@@MAEPAU_AFX_OCC_DIALOG_INFO@@XZ
	DD	FLAT:?Create@CTabCtrl@@UAEHKABUtagRECT@@PAVCWnd@@I@Z
	DD	FLAT:?CreateEx@CTabCtrl@@UAEHKKABUtagRECT@@PAVCWnd@@I@Z
	DD	FLAT:?DrawItem@CTabCtrl@@UAEXPAUtagDRAWITEMSTRUCT@@@Z
CONST	ENDS
;	COMDAT ??_7?$CList@HH@@6B@
CONST	SEGMENT
??_7?$CList@HH@@6B@ DD FLAT:??_R4?$CList@HH@@6B@	; CList<int,int>::`vftable'
	DD	FLAT:?GetRuntimeClass@CObject@@UBEPAUCRuntimeClass@@XZ
	DD	FLAT:??_E?$CList@HH@@UAEPAXI@Z
	DD	FLAT:?Serialize@?$CList@HH@@UAEXAAVCArchive@@@Z
	DD	FLAT:?AssertValid@CObject@@UBEXXZ
	DD	FLAT:?Dump@CObject@@UBEXAAVCDumpContext@@@Z
CONST	ENDS
;	COMDAT ??_R1A@?0A@EA@CTabCtrl@@8
rdata$r	SEGMENT
??_R1A@?0A@EA@CTabCtrl@@8 DD FLAT:??_R0?AVCTabCtrl@@@8	; CTabCtrl::`RTTI Base Class Descriptor at (0,-1,0,64)'
	DD	03H
	DD	00H
	DD	0ffffffffH
	DD	00H
	DD	040H
	DD	FLAT:??_R3CTabCtrl@@8
rdata$r	ENDS
;	COMDAT ??_R2CTabCtrl@@8
rdata$r	SEGMENT
??_R2CTabCtrl@@8 DD FLAT:??_R1A@?0A@EA@CTabCtrl@@8	; CTabCtrl::`RTTI Base Class Array'
	DD	FLAT:??_R1A@?0A@EA@CWnd@@8
	DD	FLAT:??_R1A@?0A@EA@CCmdTarget@@8
	DD	FLAT:??_R1A@?0A@EA@CObject@@8
rdata$r	ENDS
;	COMDAT ??_R3CTabCtrl@@8
rdata$r	SEGMENT
??_R3CTabCtrl@@8 DD 00H					; CTabCtrl::`RTTI Class Hierarchy Descriptor'
	DD	00H
	DD	04H
	DD	FLAT:??_R2CTabCtrl@@8
rdata$r	ENDS
;	COMDAT ??_R0?AVCTabCtrl@@@8
data$rs	SEGMENT
??_R0?AVCTabCtrl@@@8 DD FLAT:??_7type_info@@6B@		; CTabCtrl `RTTI Type Descriptor'
	DD	00H
	DB	'.?AVCTabCtrl@@', 00H
data$rs	ENDS
;	COMDAT ??_R4CTabCtrl@@6B@
rdata$r	SEGMENT
??_R4CTabCtrl@@6B@ DD 00H				; CTabCtrl::`RTTI Complete Object Locator'
	DD	00H
	DD	00H
	DD	FLAT:??_R0?AVCTabCtrl@@@8
	DD	FLAT:??_R3CTabCtrl@@8
rdata$r	ENDS
;	COMDAT ??_R2CCmdTarget@@8
rdata$r	SEGMENT
??_R2CCmdTarget@@8 DD FLAT:??_R1A@?0A@EA@CCmdTarget@@8	; CCmdTarget::`RTTI Base Class Array'
	DD	FLAT:??_R1A@?0A@EA@CObject@@8
rdata$r	ENDS
;	COMDAT ??_R3CCmdTarget@@8
rdata$r	SEGMENT
??_R3CCmdTarget@@8 DD 00H				; CCmdTarget::`RTTI Class Hierarchy Descriptor'
	DD	00H
	DD	02H
	DD	FLAT:??_R2CCmdTarget@@8
rdata$r	ENDS
;	COMDAT ??_R0?AVCCmdTarget@@@8
data$rs	SEGMENT
??_R0?AVCCmdTarget@@@8 DD FLAT:??_7type_info@@6B@	; CCmdTarget `RTTI Type Descriptor'
	DD	00H
	DB	'.?AVCCmdTarget@@', 00H
data$rs	ENDS
;	COMDAT ??_R1A@?0A@EA@CCmdTarget@@8
rdata$r	SEGMENT
??_R1A@?0A@EA@CCmdTarget@@8 DD FLAT:??_R0?AVCCmdTarget@@@8 ; CCmdTarget::`RTTI Base Class Descriptor at (0,-1,0,64)'
	DD	01H
	DD	00H
	DD	0ffffffffH
	DD	00H
	DD	040H
	DD	FLAT:??_R3CCmdTarget@@8
rdata$r	ENDS
;	COMDAT ??_R2CWnd@@8
rdata$r	SEGMENT
??_R2CWnd@@8 DD	FLAT:??_R1A@?0A@EA@CWnd@@8		; CWnd::`RTTI Base Class Array'
	DD	FLAT:??_R1A@?0A@EA@CCmdTarget@@8
	DD	FLAT:??_R1A@?0A@EA@CObject@@8
rdata$r	ENDS
;	COMDAT ??_R3CWnd@@8
rdata$r	SEGMENT
??_R3CWnd@@8 DD	00H					; CWnd::`RTTI Class Hierarchy Descriptor'
	DD	00H
	DD	03H
	DD	FLAT:??_R2CWnd@@8
rdata$r	ENDS
;	COMDAT ??_R0?AVCWnd@@@8
data$rs	SEGMENT
??_R0?AVCWnd@@@8 DD FLAT:??_7type_info@@6B@		; CWnd `RTTI Type Descriptor'
	DD	00H
	DB	'.?AVCWnd@@', 00H
data$rs	ENDS
;	COMDAT ??_R1A@?0A@EA@CWnd@@8
rdata$r	SEGMENT
??_R1A@?0A@EA@CWnd@@8 DD FLAT:??_R0?AVCWnd@@@8		; CWnd::`RTTI Base Class Descriptor at (0,-1,0,64)'
	DD	02H
	DD	00H
	DD	0ffffffffH
	DD	00H
	DD	040H
	DD	FLAT:??_R3CWnd@@8
rdata$r	ENDS
;	COMDAT ??_R1A@?0A@EA@CObject@@8
rdata$r	SEGMENT
??_R1A@?0A@EA@CObject@@8 DD FLAT:??_R0?AVCObject@@@8	; CObject::`RTTI Base Class Descriptor at (0,-1,0,64)'
	DD	00H
	DD	00H
	DD	0ffffffffH
	DD	00H
	DD	040H
	DD	FLAT:??_R3CObject@@8
rdata$r	ENDS
;	COMDAT ??_R2CObject@@8
rdata$r	SEGMENT
??_R2CObject@@8 DD FLAT:??_R1A@?0A@EA@CObject@@8	; CObject::`RTTI Base Class Array'
rdata$r	ENDS
;	COMDAT ??_R3CObject@@8
rdata$r	SEGMENT
??_R3CObject@@8 DD 00H					; CObject::`RTTI Class Hierarchy Descriptor'
	DD	00H
	DD	01H
	DD	FLAT:??_R2CObject@@8
rdata$r	ENDS
;	COMDAT ??_R0?AVCObject@@@8
data$rs	SEGMENT
??_R0?AVCObject@@@8 DD FLAT:??_7type_info@@6B@		; CObject `RTTI Type Descriptor'
	DD	00H
	DB	'.?AVCObject@@', 00H
data$rs	ENDS
;	COMDAT ??_7CTabCtrl@@6B@
CONST	SEGMENT
??_7CTabCtrl@@6B@ DD FLAT:??_R4CTabCtrl@@6B@		; CTabCtrl::`vftable'
	DD	FLAT:?GetRuntimeClass@CTabCtrl@@UBEPAUCRuntimeClass@@XZ
	DD	FLAT:??_ECTabCtrl@@UAEPAXI@Z
	DD	FLAT:?Serialize@CObject@@UAEXAAVCArchive@@@Z
	DD	FLAT:?AssertValid@CObject@@UBEXXZ
	DD	FLAT:?Dump@CObject@@UBEXAAVCDumpContext@@@Z
	DD	FLAT:?OnCmdMsg@CCmdTarget@@UAEHIHPAXPAUAFX_CMDHANDLERINFO@@@Z
	DD	FLAT:?OnFinalRelease@CWnd@@UAEXXZ
	DD	FLAT:?IsInvokeAllowed@CCmdTarget@@UAEHJ@Z
	DD	FLAT:?GetDispatchIID@CCmdTarget@@UAEHPAU_GUID@@@Z
	DD	FLAT:?GetTypeInfoCount@CCmdTarget@@UAEIXZ
	DD	FLAT:?GetTypeLibCache@CCmdTarget@@UAEPAVCTypeLibCache@@XZ
	DD	FLAT:?GetTypeLib@CCmdTarget@@UAEJKPAPAUITypeLib@@@Z
	DD	FLAT:?GetMessageMap@CTabCtrl@@MBEPBUAFX_MSGMAP@@XZ
	DD	FLAT:?GetCommandMap@CCmdTarget@@MBEPBUAFX_OLECMDMAP@@XZ
	DD	FLAT:?GetDispatchMap@CCmdTarget@@MBEPBUAFX_DISPMAP@@XZ
	DD	FLAT:?GetConnectionMap@CCmdTarget@@MBEPBUAFX_CONNECTIONMAP@@XZ
	DD	FLAT:?GetInterfaceMap@CWnd@@MBEPBUAFX_INTERFACEMAP@@XZ
	DD	FLAT:?GetEventSinkMap@CCmdTarget@@MBEPBUAFX_EVENTSINKMAP@@XZ
	DD	FLAT:?OnCreateAggregates@CCmdTarget@@UAEHXZ
	DD	FLAT:?GetInterfaceHook@CCmdTarget@@UAEPAUIUnknown@@PBX@Z
	DD	FLAT:?GetExtraConnectionPoints@CCmdTarget@@MAEHPAVCPtrArray@@@Z
	DD	FLAT:?GetConnectionHook@CCmdTarget@@MAEPAUIConnectionPoint@@ABU_GUID@@@Z
	DD	FLAT:?PreSubclassWindow@CWnd@@UAEXXZ
	DD	FLAT:?Create@CWnd@@UAEHPBD0KABUtagRECT@@PAV1@IPAUCCreateContext@@@Z
	DD	FLAT:?CreateEx@CWnd@@UAEHKPBD0KABUtagRECT@@PAV1@IPAX@Z
	DD	FLAT:?CreateEx@CWnd@@UAEHKPBD0KHHHHPAUHWND__@@PAUHMENU__@@PAX@Z
	DD	FLAT:?DestroyWindow@CWnd@@UAEHXZ
	DD	FLAT:?PreCreateWindow@CWnd@@UAEHAAUtagCREATESTRUCTA@@@Z
	DD	FLAT:?CalcWindowRect@CWnd@@UAEXPAUtagRECT@@I@Z
	DD	FLAT:?GetMenu@CWnd@@UBEPAVCMenu@@XZ
	DD	FLAT:?SetMenu@CWnd@@UAEHPAVCMenu@@@Z
	DD	FLAT:?OnToolHitTest@CWnd@@UBEHVCPoint@@PAUtagTOOLINFOA@@@Z
	DD	FLAT:?GetScrollBarCtrl@CWnd@@UBEPAVCScrollBar@@H@Z
	DD	FLAT:?WinHelpA@CWnd@@UAEXKI@Z
	DD	FLAT:?HtmlHelpA@CWnd@@UAEXKI@Z
	DD	FLAT:?WinHelpInternal@CWnd@@UAEXKI@Z
	DD	FLAT:?ContinueModal@CWnd@@UAEHXZ
	DD	FLAT:?EndModalLoop@CWnd@@UAEXH@Z
	DD	FLAT:?OnDrawIconicThumbnailOrLivePreview@CWnd@@UAEXAAVCDC@@VCRect@@VCSize@@HAAH@Z
	DD	FLAT:?EnsureStdObj@CWnd@@UAEJXZ
	DD	FLAT:?get_accParent@CWnd@@UAEJPAPAUIDispatch@@@Z
	DD	FLAT:?get_accChildCount@CWnd@@UAEJPAJ@Z
	DD	FLAT:?get_accChild@CWnd@@UAEJUtagVARIANT@@PAPAUIDispatch@@@Z
	DD	FLAT:?get_accName@CWnd@@UAEJUtagVARIANT@@PAPA_W@Z
	DD	FLAT:?get_accValue@CWnd@@UAEJUtagVARIANT@@PAPA_W@Z
	DD	FLAT:?get_accDescription@CWnd@@UAEJUtagVARIANT@@PAPA_W@Z
	DD	FLAT:?get_accRole@CWnd@@UAEJUtagVARIANT@@PAU2@@Z
	DD	FLAT:?get_accState@CWnd@@UAEJUtagVARIANT@@PAU2@@Z
	DD	FLAT:?get_accHelp@CWnd@@UAEJUtagVARIANT@@PAPA_W@Z
	DD	FLAT:?get_accHelpTopic@CWnd@@UAEJPAPA_WUtagVARIANT@@PAJ@Z
	DD	FLAT:?get_accKeyboardShortcut@CWnd@@UAEJUtagVARIANT@@PAPA_W@Z
	DD	FLAT:?get_accFocus@CWnd@@UAEJPAUtagVARIANT@@@Z
	DD	FLAT:?get_accSelection@CWnd@@UAEJPAUtagVARIANT@@@Z
	DD	FLAT:?get_accDefaultAction@CWnd@@UAEJUtagVARIANT@@PAPA_W@Z
	DD	FLAT:?accSelect@CWnd@@UAEJJUtagVARIANT@@@Z
	DD	FLAT:?accLocation@CWnd@@UAEJPAJ000UtagVARIANT@@@Z
	DD	FLAT:?accNavigate@CWnd@@UAEJJUtagVARIANT@@PAU2@@Z
	DD	FLAT:?accHitTest@CWnd@@UAEJJJPAUtagVARIANT@@@Z
	DD	FLAT:?accDoDefaultAction@CWnd@@UAEJUtagVARIANT@@@Z
	DD	FLAT:?put_accName@CWnd@@UAEJUtagVARIANT@@PA_W@Z
	DD	FLAT:?put_accValue@CWnd@@UAEJUtagVARIANT@@PA_W@Z
	DD	FLAT:?SetProxy@CWnd@@UAEJPAUIAccessibleProxy@@@Z
	DD	FLAT:?CreateAccessibleProxy@CWnd@@UAEJIJPAJ@Z
	DD	FLAT:?OnCommand@CWnd@@MAEHIJ@Z
	DD	FLAT:?OnNotify@CWnd@@MAEHIJPAJ@Z
	DD	FLAT:?GetSuperWndProcAddr@CWnd@@MAEPAP6GJPAUHWND__@@IIJ@ZXZ
	DD	FLAT:?DoDataExchange@CWnd@@MAEXPAVCDataExchange@@@Z
	DD	FLAT:?BeginModalState@CWnd@@UAEXXZ
	DD	FLAT:?EndModalState@CWnd@@UAEXXZ
	DD	FLAT:?PreTranslateMessage@CWnd@@UAEHPAUtagMSG@@@Z
	DD	FLAT:?OnAmbientProperty@CWnd@@UAEHPAVCOleControlSite@@JPAUtagVARIANT@@@Z
	DD	FLAT:?WindowProc@CWnd@@MAEJIIJ@Z
	DD	FLAT:?OnWndMsg@CWnd@@MAEHIIJPAJ@Z
	DD	FLAT:?DefWindowProcA@CWnd@@MAEJIIJ@Z
	DD	FLAT:?PostNcDestroy@CWnd@@MAEXXZ
	DD	FLAT:?OnChildNotify@CTabCtrl@@MAEHIIJPAJ@Z
	DD	FLAT:?OnTouchInputs@CWnd@@MAEHIPAUtagTOUCHINPUT@@@Z
	DD	FLAT:?OnTouchInput@CWnd@@MAEHVCPoint@@HHPAUtagTOUCHINPUT@@@Z
	DD	FLAT:?GetGestureStatus@CWnd@@MAEKVCPoint@@@Z
	DD	FLAT:?OnGestureZoom@CWnd@@MAEHVCPoint@@J@Z
	DD	FLAT:?OnGesturePan@CWnd@@MAEHVCPoint@@0@Z
	DD	FLAT:?OnGestureRotate@CWnd@@MAEHVCPoint@@N@Z
	DD	FLAT:?OnGestureTwoFingerTap@CWnd@@MAEHVCPoint@@@Z
	DD	FLAT:?OnGesturePressAndTap@CWnd@@MAEHVCPoint@@J@Z
	DD	FLAT:?ResizeDynamicLayout@CWnd@@MAEXXZ
	DD	FLAT:?CheckAutoCenter@CWnd@@UAEHXZ
	DD	FLAT:?IsFrameWnd@CWnd@@UBEHXZ
	DD	FLAT:?CreateControlContainer@CWnd@@MAEHPAPAVCOleControlContainer@@@Z
	DD	FLAT:?CreateControlSite@CWnd@@MAEHPAVCOleControlContainer@@PAPAVCOleControlSite@@IABU_GUID@@@Z
	DD	FLAT:?SetOccDialogInfo@CWnd@@MAEHPAU_AFX_OCC_DIALOG_INFO@@@Z
	DD	FLAT:?GetOccDialogInfo@CWnd@@MAEPAU_AFX_OCC_DIALOG_INFO@@XZ
	DD	FLAT:?Create@CTabCtrl@@UAEHKABUtagRECT@@PAVCWnd@@I@Z
	DD	FLAT:?CreateEx@CTabCtrl@@UAEHKKABUtagRECT@@PAVCWnd@@I@Z
	DD	FLAT:?DrawItem@CTabCtrl@@UAEXPAUtagDRAWITEMSTRUCT@@@Z
CONST	ENDS
;	COMDAT xdata$x
xdata$x	SEGMENT
__unwindtable$??_GCTabMainChartEnvSetUp@@UAEPAXI@Z DD 0ffffffffH
	DD	FLAT:___std_terminate
	DD	00H
	DD	FLAT:___std_terminate
__ehfuncinfo$??_GCTabMainChartEnvSetUp@@UAEPAXI@Z DD 019930522H
	DD	02H
	DD	FLAT:__unwindtable$??_GCTabMainChartEnvSetUp@@UAEPAXI@Z
	DD	2 DUP(00H)
	DD	2 DUP(00H)
	DD	00H
	DD	05H
xdata$x	ENDS
;	COMDAT xdata$x
xdata$x	SEGMENT
__unwindtable$?CheckPriceChart@CTabMainChartEnvSetUp@@QAEXXZ DD 0ffffffffH
	DD	FLAT:___std_terminate
__ehfuncinfo$?CheckPriceChart@CTabMainChartEnvSetUp@@QAEXXZ DD 019930522H
	DD	01H
	DD	FLAT:__unwindtable$?CheckPriceChart@CTabMainChartEnvSetUp@@QAEXXZ
	DD	2 DUP(00H)
	DD	2 DUP(00H)
	DD	00H
	DD	01H
xdata$x	ENDS
;	COMDAT xdata$x
xdata$x	SEGMENT
__ehfuncinfo$?CreateTabPage@CTabMainChartEnvSetUp@@AAEHXZ DD 019930522H
	DD	0bH
	DD	FLAT:__unwindtable$?CreateTabPage@CTabMainChartEnvSetUp@@AAEHXZ
	DD	2 DUP(00H)
	DD	2 DUP(00H)
	DD	00H
	DD	01H
__unwindtable$?CreateTabPage@CTabMainChartEnvSetUp@@AAEHXZ DD 0ffffffffH
	DD	FLAT:__unwindfunclet$?CreateTabPage@CTabMainChartEnvSetUp@@AAEHXZ$0
	DD	0ffffffffH
	DD	FLAT:__unwindfunclet$?CreateTabPage@CTabMainChartEnvSetUp@@AAEHXZ$1
	DD	0ffffffffH
	DD	FLAT:__unwindfunclet$?CreateTabPage@CTabMainChartEnvSetUp@@AAEHXZ$2
	DD	0ffffffffH
	DD	FLAT:__unwindfunclet$?CreateTabPage@CTabMainChartEnvSetUp@@AAEHXZ$3
	DD	0ffffffffH
	DD	FLAT:__unwindfunclet$?CreateTabPage@CTabMainChartEnvSetUp@@AAEHXZ$4
	DD	0ffffffffH
	DD	FLAT:__unwindfunclet$?CreateTabPage@CTabMainChartEnvSetUp@@AAEHXZ$5
	DD	0ffffffffH
	DD	FLAT:__unwindfunclet$?CreateTabPage@CTabMainChartEnvSetUp@@AAEHXZ$6
	DD	0ffffffffH
	DD	FLAT:__unwindfunclet$?CreateTabPage@CTabMainChartEnvSetUp@@AAEHXZ$7
	DD	0ffffffffH
	DD	FLAT:__unwindfunclet$?CreateTabPage@CTabMainChartEnvSetUp@@AAEHXZ$8
	DD	0ffffffffH
	DD	FLAT:__unwindfunclet$?CreateTabPage@CTabMainChartEnvSetUp@@AAEHXZ$9
	DD	0ffffffffH
	DD	FLAT:__unwindfunclet$?CreateTabPage@CTabMainChartEnvSetUp@@AAEHXZ$10
xdata$x	ENDS
;	COMDAT xdata$x
xdata$x	SEGMENT
__ehfuncinfo$?Init@CTabMainChartEnvSetUp@@QAEHPAUIChartOCX135914@@PAVCDlgEnvSetUpAll@@HH@Z DD 019930522H
	DD	05H
	DD	FLAT:__unwindtable$?Init@CTabMainChartEnvSetUp@@QAEHPAUIChartOCX135914@@PAVCDlgEnvSetUpAll@@HH@Z
	DD	2 DUP(00H)
	DD	2 DUP(00H)
	DD	00H
	DD	01H
__unwindtable$?Init@CTabMainChartEnvSetUp@@QAEHPAUIChartOCX135914@@PAVCDlgEnvSetUpAll@@HH@Z DD 0ffffffffH
	DD	FLAT:__unwindfunclet$?Init@CTabMainChartEnvSetUp@@QAEHPAUIChartOCX135914@@PAVCDlgEnvSetUpAll@@HH@Z$0
	DD	00H
	DD	FLAT:__unwindfunclet$?Init@CTabMainChartEnvSetUp@@QAEHPAUIChartOCX135914@@PAVCDlgEnvSetUpAll@@HH@Z$1
	DD	01H
	DD	FLAT:__unwindfunclet$?Init@CTabMainChartEnvSetUp@@QAEHPAUIChartOCX135914@@PAVCDlgEnvSetUpAll@@HH@Z$2
	DD	02H
	DD	FLAT:__unwindfunclet$?Init@CTabMainChartEnvSetUp@@QAEHPAUIChartOCX135914@@PAVCDlgEnvSetUpAll@@HH@Z$3
	DD	03H
	DD	FLAT:___std_terminate
xdata$x	ENDS
;	COMDAT xdata$x
xdata$x	SEGMENT
__unwindtable$??_G?$CList@HH@@UAEPAXI@Z DD 0ffffffffH
	DD	FLAT:___std_terminate
__ehfuncinfo$??_G?$CList@HH@@UAEPAXI@Z DD 019930522H
	DD	01H
	DD	FLAT:__unwindtable$??_G?$CList@HH@@UAEPAXI@Z
	DD	2 DUP(00H)
	DD	2 DUP(00H)
	DD	00H
	DD	05H
xdata$x	ENDS
;	COMDAT xdata$x
xdata$x	SEGMENT
__ehfuncinfo$??1?$CList@HH@@UAE@XZ DD 019930522H
	DD	00H
	DD	00H
	DD	2 DUP(00H)
	DD	2 DUP(00H)
	DD	00H
	DD	05H
xdata$x	ENDS
;	COMDAT xdata$x
xdata$x	SEGMENT
__unwindtable$??1CTabMainChartEnvSetUp@@UAE@XZ DD 0ffffffffH
	DD	FLAT:___std_terminate
__ehfuncinfo$??1CTabMainChartEnvSetUp@@UAE@XZ DD 019930522H
	DD	01H
	DD	FLAT:__unwindtable$??1CTabMainChartEnvSetUp@@UAE@XZ
	DD	2 DUP(00H)
	DD	2 DUP(00H)
	DD	00H
	DD	05H
xdata$x	ENDS
;	COMDAT xdata$x
xdata$x	SEGMENT
__unwindtable$??0CTabMainChartEnvSetUp@@QAE@XZ DD 0ffffffffH
	DD	FLAT:__unwindfunclet$??0CTabMainChartEnvSetUp@@QAE@XZ$0
	DD	00H
	DD	FLAT:__unwindfunclet$??0CTabMainChartEnvSetUp@@QAE@XZ$1
__ehfuncinfo$??0CTabMainChartEnvSetUp@@QAE@XZ DD 019930522H
	DD	02H
	DD	FLAT:__unwindtable$??0CTabMainChartEnvSetUp@@QAE@XZ
	DD	2 DUP(00H)
	DD	2 DUP(00H)
	DD	00H
	DD	01H
xdata$x	ENDS
;	COMDAT xdata$x
xdata$x	SEGMENT
__ehfuncinfo$??1ILPCSTR135914@@QAE@XZ DD 019930522H
	DD	00H
	DD	00H
	DD	2 DUP(00H)
	DD	2 DUP(00H)
	DD	00H
	DD	05H
xdata$x	ENDS
; Function compile flags: /Ogtp
; File C:\Program Files (x86)\Microsoft Visual Studio\2019\Community\VC\Tools\MSVC\14.29.30133\atlmfc\include\afxtempl.h
; File C:\Program Files (x86)\Microsoft Visual Studio\2019\Community\VC\Tools\MSVC\14.29.30133\atlmfc\include\afx.inl
; File C:\Program Files (x86)\Microsoft Visual Studio\2019\Community\VC\Tools\MSVC\14.29.30133\atlmfc\include\afxtempl.h
; File C:\Program Files (x86)\Microsoft Visual Studio\2019\Community\VC\Tools\MSVC\14.29.30133\atlmfc\include\afx.inl
; File C:\Program Files (x86)\Microsoft Visual Studio\2019\Community\VC\Tools\MSVC\14.29.30133\atlmfc\include\afxtempl.h
; File C:\Program Files (x86)\Microsoft Visual Studio\2019\Community\VC\Tools\MSVC\14.29.30133\atlmfc\include\afx.inl
; File C:\Program Files (x86)\Microsoft Visual Studio\2019\Community\VC\Tools\MSVC\14.29.30133\atlmfc\include\afxtempl.h
;	COMDAT ??$SerializeElements@H@@YGXAAVCArchive@@PAHH@Z
_TEXT	SEGMENT
_ar$ = 8						; size = 4
_pElements$ = 12					; size = 4
_nCount$ = 16						; size = 4
??$SerializeElements@H@@YGXAAVCArchive@@PAHH@Z PROC	; SerializeElements<int>, COMDAT

; 67   : {

  00000	55		 push	 ebp
  00001	8b ec		 mov	 ebp, esp

; 68   : 	ENSURE(nCount == 0 || pElements != NULL);

  00003	8b 4d 0c	 mov	 ecx, DWORD PTR _pElements$[ebp]
  00006	53		 push	 ebx
  00007	56		 push	 esi
  00008	8b 75 10	 mov	 esi, DWORD PTR _nCount$[ebp]
  0000b	57		 push	 edi
  0000c	85 f6		 test	 esi, esi
  0000e	74 08		 je	 SHORT $LN2@SerializeE
  00010	85 c9		 test	 ecx, ecx
  00012	0f 84 89 00 00
	00		 je	 $LN34@SerializeE
$LN2@SerializeE:
; File C:\Program Files (x86)\Microsoft Visual Studio\2019\Community\VC\Tools\MSVC\14.29.30133\atlmfc\include\afx.inl

; 212  : 	{ return (m_nMode & CArchive::load) == 0; }

  00018	8b 55 08	 mov	 edx, DWORD PTR _ar$[ebp]
  0001b	8b 42 18	 mov	 eax, DWORD PTR [edx+24]
  0001e	f7 d0		 not	 eax
  00020	a8 01		 test	 al, 1
; File C:\Program Files (x86)\Microsoft Visual Studio\2019\Community\VC\Tools\MSVC\14.29.30133\atlmfc\include\afxtempl.h

; 73   : 	if (ar.IsStoring())

  00022	74 3c		 je	 SHORT $LN10@SerializeE

; 74   : 	{
; 75   : 		TYPE* pData;
; 76   : 		UINT_PTR nElementsLeft;
; 77   : 
; 78   : 		nElementsLeft = nCount;
; 79   : 		pData = pElements;
; 80   : 		while( nElementsLeft > 0 )

  00024	85 f6		 test	 esi, esi
  00026	74 31		 je	 SHORT $LN8@SerializeE
  00028	0f 1f 84 00 00
	00 00 00	 npad	 8
$LL5@SerializeE:

; 81   : 		{
; 82   : 			UINT nElementsToWrite;
; 83   : 
; 84   : 			nElementsToWrite = UINT(__min(nElementsLeft, INT_MAX/sizeof(TYPE)));

  00030	bb ff ff ff 1f	 mov	 ebx, 536870911		; 1fffffffH
  00035	3b f3		 cmp	 esi, ebx
  00037	0f 42 de	 cmovb	 ebx, esi

; 85   : 			ar.Write(pData, nElementsToWrite*sizeof(TYPE));

  0003a	8d 3c 9d 00 00
	00 00		 lea	 edi, DWORD PTR [ebx*4]
  00041	57		 push	 edi
  00042	51		 push	 ecx
  00043	8b ca		 mov	 ecx, edx
  00045	e8 00 00 00 00	 call	 ?Write@CArchive@@QAEXPBXI@Z ; CArchive::Write

; 86   : 			nElementsLeft -= nElementsToWrite;
; 87   : 			pData += nElementsToWrite;

  0004a	8b 4d 0c	 mov	 ecx, DWORD PTR _pElements$[ebp]
  0004d	8b 55 08	 mov	 edx, DWORD PTR _ar$[ebp]
  00050	03 cf		 add	 ecx, edi
  00052	89 4d 0c	 mov	 DWORD PTR _pElements$[ebp], ecx
  00055	2b f3		 sub	 esi, ebx
  00057	75 d7		 jne	 SHORT $LL5@SerializeE
$LN8@SerializeE:
  00059	5f		 pop	 edi

; 105  : 		}
; 106  : 	}
; 107  : }

  0005a	5e		 pop	 esi
  0005b	5b		 pop	 ebx
  0005c	5d		 pop	 ebp
  0005d	c2 0c 00	 ret	 12			; 0000000cH
$LN10@SerializeE:

; 97   : 		while( nElementsLeft > 0 )

  00060	85 f6		 test	 esi, esi
  00062	74 f5		 je	 SHORT $LN8@SerializeE
$LL7@SerializeE:

; 98   : 		{
; 99   : 			UINT nElementsToRead;
; 100  : 
; 101  : 			nElementsToRead = UINT(__min(nElementsLeft, INT_MAX/sizeof(TYPE)));

  00064	bf ff ff ff 1f	 mov	 edi, 536870911		; 1fffffffH
  00069	3b f7		 cmp	 esi, edi
  0006b	0f 42 fe	 cmovb	 edi, esi

; 102  : 			ar.EnsureRead(pData, nElementsToRead*sizeof(TYPE));

  0006e	8d 1c bd 00 00
	00 00		 lea	 ebx, DWORD PTR [edi*4]
; File C:\Program Files (x86)\Microsoft Visual Studio\2019\Community\VC\Tools\MSVC\14.29.30133\atlmfc\include\afx.inl

; 399  : 	UINT nRead=Read(lpBuf, nCount);

  00075	53		 push	 ebx
  00076	51		 push	 ecx
  00077	8b ca		 mov	 ecx, edx
  00079	e8 00 00 00 00	 call	 ?Read@CArchive@@QAEIPAXI@Z ; CArchive::Read

; 400  : 	if(nRead!=nCount)

  0007e	3b c3		 cmp	 eax, ebx
  00080	75 16		 jne	 SHORT $LN23@SerializeE
; File C:\Program Files (x86)\Microsoft Visual Studio\2019\Community\VC\Tools\MSVC\14.29.30133\atlmfc\include\afxtempl.h

; 97   : 		while( nElementsLeft > 0 )

  00082	8b 4d 0c	 mov	 ecx, DWORD PTR _pElements$[ebp]
  00085	8b 55 08	 mov	 edx, DWORD PTR _ar$[ebp]

; 103  : 			nElementsLeft -= nElementsToRead;
; 104  : 			pData += nElementsToRead;

  00088	03 cb		 add	 ecx, ebx
  0008a	89 4d 0c	 mov	 DWORD PTR _pElements$[ebp], ecx
  0008d	2b f7		 sub	 esi, edi
  0008f	75 d3		 jne	 SHORT $LL7@SerializeE

; 105  : 		}
; 106  : 	}
; 107  : }

  00091	5f		 pop	 edi
  00092	5e		 pop	 esi
  00093	5b		 pop	 ebx
  00094	5d		 pop	 ebp
  00095	c2 0c 00	 ret	 12			; 0000000cH
$LN23@SerializeE:
; File C:\Program Files (x86)\Microsoft Visual Studio\2019\Community\VC\Tools\MSVC\14.29.30133\atlmfc\include\afx.inl

; 402  : 		AfxThrowArchiveException(CArchiveException::endOfFile);

  00098	6a 00		 push	 0
  0009a	6a 03		 push	 3
  0009c	e8 00 00 00 00	 call	 ?AfxThrowArchiveException@@YGXHPBD@Z ; AfxThrowArchiveException
$LN34@SerializeE:
; File C:\Program Files (x86)\Microsoft Visual Studio\2019\Community\VC\Tools\MSVC\14.29.30133\atlmfc\include\afxtempl.h

; 68   : 	ENSURE(nCount == 0 || pElements != NULL);

  000a1	e8 00 00 00 00	 call	 ?AfxThrowInvalidArgException@@YGXXZ ; AfxThrowInvalidArgException
$LN32@SerializeE:
  000a6	cc		 int	 3
??$SerializeElements@H@@YGXAAVCArchive@@PAHH@Z ENDP	; SerializeElements<int>
_TEXT	ENDS
; Function compile flags: /Ogtp
; File C:\Program Files (x86)\Microsoft Visual Studio\2019\Community\VC\Tools\MSVC\14.29.30133\atlmfc\include\afxtempl.h
;	COMDAT ??$CompareElements@HH@@YGHPBH0@Z
_TEXT	SEGMENT
_pElement1$ = 8						; size = 4
_pElement2$ = 12					; size = 4
??$CompareElements@HH@@YGHPBH0@Z PROC			; CompareElements<int,int>, COMDAT

; 151  : {

  00000	55		 push	 ebp
  00001	8b ec		 mov	 ebp, esp

; 152  : 	ENSURE(pElement1 != NULL && pElement2 != NULL);

  00003	8b 4d 08	 mov	 ecx, DWORD PTR _pElement1$[ebp]
  00006	85 c9		 test	 ecx, ecx
  00008	74 14		 je	 SHORT $LN7@CompareEle
  0000a	8b 55 0c	 mov	 edx, DWORD PTR _pElement2$[ebp]
  0000d	85 d2		 test	 edx, edx
  0000f	74 0d		 je	 SHORT $LN7@CompareEle

; 153  : 	ASSERT(AfxIsValidAddress(pElement1, sizeof(TYPE), FALSE));
; 154  : 	ASSERT(AfxIsValidAddress(pElement2, sizeof(ARG_TYPE), FALSE));
; 155  : 
; 156  : 	return *pElement1 == *pElement2;

  00011	8b 09		 mov	 ecx, DWORD PTR [ecx]
  00013	33 c0		 xor	 eax, eax
  00015	3b 0a		 cmp	 ecx, DWORD PTR [edx]
  00017	0f 94 c0	 sete	 al

; 157  : }

  0001a	5d		 pop	 ebp
  0001b	c2 08 00	 ret	 8
$LN7@CompareEle:

; 152  : 	ENSURE(pElement1 != NULL && pElement2 != NULL);

  0001e	e8 00 00 00 00	 call	 ?AfxThrowInvalidArgException@@YGXXZ ; AfxThrowInvalidArgException
$LN10@CompareEle:
  00023	cc		 int	 3
??$CompareElements@HH@@YGHPBH0@Z ENDP			; CompareElements<int,int>
_TEXT	ENDS
; Function compile flags: /Ogtp
; File D:\git\src\IBK\IBK_DRFN\ProjSrc\SrcChartEx\ChartAddIn\ChartEnvSetupDlgAddIn\ChartEnvSetupDlgAddIn\TabMainChartEnvSetUp.cpp
; File C:\Program Files (x86)\Microsoft Visual Studio\2019\Community\VC\Tools\MSVC\14.29.30133\atlmfc\include\afxtempl.h
; File D:\git\src\IBK\IBK_DRFN\ProjSrc\SrcChartEx\ChartAddIn\ChartEnvSetupDlgAddIn\ChartEnvSetupDlgAddIn\TabMainChartEnvSetUp.cpp
; File C:\Program Files (x86)\Microsoft Visual Studio\2019\Community\VC\Tools\MSVC\14.29.30133\atlmfc\include\afxtempl.h
; File D:\git\src\IBK\IBK_DRFN\ProjSrc\SrcChartEx\ChartAddIn\ChartEnvSetupDlgAddIn\ChartEnvSetupDlgAddIn\TabMainChartEnvSetUp.cpp
; File C:\Program Files (x86)\Microsoft Visual Studio\2019\Community\VC\Tools\MSVC\14.29.30133\atlmfc\include\afx.inl
;	COMDAT ??_GCTabMainChartEnvSetUp@@UAEPAXI@Z
_TEXT	SEGMENT
__$EHRec$ = -12						; size = 12
___flags$ = 8						; size = 4
??_GCTabMainChartEnvSetUp@@UAEPAXI@Z PROC		; CTabMainChartEnvSetUp::`scalar deleting destructor', COMDAT
; _this$ = ecx
  00000	55		 push	 ebp
  00001	8b ec		 mov	 ebp, esp
  00003	6a ff		 push	 -1
  00005	68 00 00 00 00	 push	 __ehhandler$??_GCTabMainChartEnvSetUp@@UAEPAXI@Z
  0000a	64 a1 00 00 00
	00		 mov	 eax, DWORD PTR fs:0
  00010	50		 push	 eax
  00011	53		 push	 ebx
  00012	56		 push	 esi
  00013	57		 push	 edi
  00014	a1 00 00 00 00	 mov	 eax, DWORD PTR ___security_cookie
  00019	33 c5		 xor	 eax, ebp
  0001b	50		 push	 eax
  0001c	8d 45 f4	 lea	 eax, DWORD PTR __$EHRec$[ebp]
  0001f	64 a3 00 00 00
	00		 mov	 DWORD PTR fs:0, eax
  00025	8b f1		 mov	 esi, ecx
; File D:\git\src\IBK\IBK_DRFN\ProjSrc\SrcChartEx\ChartAddIn\ChartEnvSetupDlgAddIn\ChartEnvSetupDlgAddIn\TabMainChartEnvSetUp.cpp

; 53   : 	for( int nCount = 0 ; nCount < m_nTotalTabPages ; nCount++ )

  00027	33 ff		 xor	 edi, edi
  00029	c7 45 fc 00 00
	00 00		 mov	 DWORD PTR __$EHRec$[ebp+8], 0
  00030	c7 06 00 00 00
	00		 mov	 DWORD PTR [esi], OFFSET ??_7CTabMainChartEnvSetUp@@6B@
  00036	39 be 80 00 00
	00		 cmp	 DWORD PTR [esi+128], edi
  0003c	7e 1f		 jle	 SHORT $LN9@scalar

; 52   : {

  0003e	8d 9e a8 00 00
	00		 lea	 ebx, DWORD PTR [esi+168]
$LL10@scalar:

; 54   : 	{
; 55   : 		if( m_aTabPages[nCount] != NULL)

  00044	8b 0b		 mov	 ecx, DWORD PTR [ebx]
  00046	85 c9		 test	 ecx, ecx
  00048	74 07		 je	 SHORT $LN8@scalar

; 56   : 			delete m_aTabPages[nCount];

  0004a	8b 01		 mov	 eax, DWORD PTR [ecx]
  0004c	6a 01		 push	 1
  0004e	ff 50 04	 call	 DWORD PTR [eax+4]
$LN8@scalar:

; 53   : 	for( int nCount = 0 ; nCount < m_nTotalTabPages ; nCount++ )

  00051	47		 inc	 edi
  00052	83 c3 04	 add	 ebx, 4
  00055	3b be 80 00 00
	00		 cmp	 edi, DWORD PTR [esi+128]
  0005b	7c e7		 jl	 SHORT $LL10@scalar
$LN9@scalar:

; 57   : 	}
; 58   : 
; 59   : 	if( m_pIChartOCX)

  0005d	8b 8e a4 00 00
	00		 mov	 ecx, DWORD PTR [esi+164]
  00063	85 c9		 test	 ecx, ecx
  00065	74 10		 je	 SHORT $LN12@scalar

; 60   : 	{
; 61   : 		m_pIChartOCX->Release();

  00067	8b 01		 mov	 eax, DWORD PTR [ecx]
  00069	51		 push	 ecx
  0006a	ff 50 08	 call	 DWORD PTR [eax+8]

; 62   : 		m_pIChartOCX = NULL;

  0006d	c7 86 a4 00 00
	00 00 00 00 00	 mov	 DWORD PTR [esi+164], 0
$LN12@scalar:
; File C:\Program Files (x86)\Microsoft Visual Studio\2019\Community\VC\Tools\MSVC\14.29.30133\atlmfc\include\afxtempl.h

; 872  : 	m_pBlocks->FreeDataChain();

  00077	8b 8e 9c 00 00
	00		 mov	 ecx, DWORD PTR [esi+156]

; 878  : {

  0007d	c6 45 fc 01	 mov	 BYTE PTR __$EHRec$[ebp+8], 1
  00081	c7 86 88 00 00
	00 00 00 00 00	 mov	 DWORD PTR [esi+136], OFFSET ??_7?$CList@HH@@6B@

; 870  : 	m_nCount = 0;

  0008b	c7 86 94 00 00
	00 00 00 00 00	 mov	 DWORD PTR [esi+148], 0

; 871  : 	m_pNodeHead = m_pNodeTail = m_pNodeFree = NULL;

  00095	c7 86 98 00 00
	00 00 00 00 00	 mov	 DWORD PTR [esi+152], 0
  0009f	c7 86 90 00 00
	00 00 00 00 00	 mov	 DWORD PTR [esi+144], 0
  000a9	c7 86 8c 00 00
	00 00 00 00 00	 mov	 DWORD PTR [esi+140], 0

; 872  : 	m_pBlocks->FreeDataChain();

  000b3	e8 00 00 00 00	 call	 ?FreeDataChain@CPlex@@QAEXXZ ; CPlex::FreeDataChain
; File D:\git\src\IBK\IBK_DRFN\ProjSrc\SrcChartEx\ChartAddIn\ChartEnvSetupDlgAddIn\ChartEnvSetupDlgAddIn\TabMainChartEnvSetUp.cpp

; 64   : }

  000b8	8b ce		 mov	 ecx, esi
; File C:\Program Files (x86)\Microsoft Visual Studio\2019\Community\VC\Tools\MSVC\14.29.30133\atlmfc\include\afxtempl.h

; 873  : 	m_pBlocks = NULL;

  000ba	c7 86 9c 00 00
	00 00 00 00 00	 mov	 DWORD PTR [esi+156], 0
; File D:\git\src\IBK\IBK_DRFN\ProjSrc\SrcChartEx\ChartAddIn\ChartEnvSetupDlgAddIn\ChartEnvSetupDlgAddIn\TabMainChartEnvSetUp.cpp

; 64   : }

  000c4	e8 00 00 00 00	 call	 ??1CTabCtrl@@UAE@XZ	; CTabCtrl::~CTabCtrl
  000c9	8b 45 08	 mov	 eax, DWORD PTR ___flags$[ebp]
  000cc	a8 01		 test	 al, 1
  000ce	74 1d		 je	 SHORT $LN36@scalar
  000d0	a8 04		 test	 al, 4
  000d2	75 0b		 jne	 SHORT $LN3@scalar
; File C:\Program Files (x86)\Microsoft Visual Studio\2019\Community\VC\Tools\MSVC\14.29.30133\atlmfc\include\afx.inl

; 112  : 	{ ::operator delete(p); }

  000d4	56		 push	 esi
  000d5	e8 00 00 00 00	 call	 ??3@YAXPAX@Z		; operator delete
  000da	83 c4 04	 add	 esp, 4
  000dd	eb 0e		 jmp	 SHORT $LN36@scalar
$LN3@scalar:
  000df	68 c8 00 00 00	 push	 200			; 000000c8H
  000e4	56		 push	 esi
  000e5	e8 00 00 00 00	 call	 ?__global_delete@@YAXPAXI@Z ; __global_delete
  000ea	83 c4 08	 add	 esp, 8
$LN36@scalar:
  000ed	8b c6		 mov	 eax, esi
  000ef	8b 4d f4	 mov	 ecx, DWORD PTR __$EHRec$[ebp]
  000f2	64 89 0d 00 00
	00 00		 mov	 DWORD PTR fs:0, ecx
  000f9	59		 pop	 ecx
  000fa	5f		 pop	 edi
  000fb	5e		 pop	 esi
  000fc	5b		 pop	 ebx
  000fd	8b e5		 mov	 esp, ebp
  000ff	5d		 pop	 ebp
  00100	c2 04 00	 ret	 4
  00103	cc		 int	 3
  00104	cc		 int	 3
  00105	cc		 int	 3
  00106	cc		 int	 3
  00107	cc		 int	 3
_TEXT	ENDS
;	COMDAT text$x
text$x	SEGMENT
__ehhandler$??_GCTabMainChartEnvSetUp@@UAEPAXI@Z:
  00000	90		 npad	 1
  00001	90		 npad	 1
  00002	8b 54 24 08	 mov	 edx, DWORD PTR [esp+8]
  00006	8d 42 0c	 lea	 eax, DWORD PTR [edx+12]
  00009	8b 4a f0	 mov	 ecx, DWORD PTR [edx-16]
  0000c	33 c8		 xor	 ecx, eax
  0000e	e8 00 00 00 00	 call	 @__security_check_cookie@4
  00013	b8 00 00 00 00	 mov	 eax, OFFSET __ehfuncinfo$??_GCTabMainChartEnvSetUp@@UAEPAXI@Z
  00018	e9 00 00 00 00	 jmp	 ___CxxFrameHandler3
text$x	ENDS
??_GCTabMainChartEnvSetUp@@UAEPAXI@Z ENDP		; CTabMainChartEnvSetUp::`scalar deleting destructor'
; Function compile flags: /Ogtp
; File D:\git\src\IBK\IBK_DRFN\ProjSrc\SrcChartEx\ChartAddIn\ChartEnvSetupDlgAddIn\ChartEnvSetupDlgAddIn\TabMainChartEnvSetUp.cpp
; File D:\git\src\IBK\IBK_DRFN\ProjSrc\SrcChartEx\ChartAddIn\ChartEnvSetupDlgAddIn\Include_AddIn_135914\I135914\_IString.h
; File D:\git\src\IBK\IBK_DRFN\ProjSrc\SrcChartEx\ChartAddIn\ChartEnvSetupDlgAddIn\ChartEnvSetupDlgAddIn\TabMainChartEnvSetUp.cpp
; File D:\git\src\IBK\IBK_DRFN\ProjSrc\SrcChartEx\ChartAddIn\ChartEnvSetupDlgAddIn\Include_AddIn_135914\I135914\_IString.h
; File D:\git\src\IBK\IBK_DRFN\ProjSrc\SrcChartEx\ChartAddIn\ChartEnvSetupDlgAddIn\ChartEnvSetupDlgAddIn\TabMainChartEnvSetUp.cpp
;	COMDAT ?CheckPriceChart@CTabMainChartEnvSetUp@@QAEXXZ
_TEXT	SEGMENT
_nR$ = -28						; size = 4
_nC$ = -24						; size = 4
_nV$ = -20						; size = 4
_nG$ = -16						; size = 4
__$EHRec$ = -12						; size = 12
?CheckPriceChart@CTabMainChartEnvSetUp@@QAEXXZ PROC	; CTabMainChartEnvSetUp::CheckPriceChart, COMDAT
; _this$ = ecx

; 528  : {

  00000	55		 push	 ebp
  00001	8b ec		 mov	 ebp, esp
  00003	6a ff		 push	 -1
  00005	68 00 00 00 00	 push	 __ehhandler$?CheckPriceChart@CTabMainChartEnvSetUp@@QAEXXZ
  0000a	64 a1 00 00 00
	00		 mov	 eax, DWORD PTR fs:0
  00010	50		 push	 eax
  00011	83 ec 10	 sub	 esp, 16			; 00000010H
  00014	56		 push	 esi
  00015	57		 push	 edi
  00016	a1 00 00 00 00	 mov	 eax, DWORD PTR ___security_cookie
  0001b	33 c5		 xor	 eax, ebp
  0001d	50		 push	 eax
  0001e	8d 45 f4	 lea	 eax, DWORD PTR __$EHRec$[ebp]
  00021	64 a3 00 00 00
	00		 mov	 DWORD PTR fs:0, eax
  00027	8b f9		 mov	 edi, ecx

; 529  : 	IChartManager *pIChartManager = m_pIChartOCX->GetIChartManager();

  00029	8b 8f a4 00 00
	00		 mov	 ecx, DWORD PTR [edi+164]
  0002f	8b 01		 mov	 eax, DWORD PTR [ecx]
  00031	ff 50 18	 call	 DWORD PTR [eax+24]
  00034	8b c8		 mov	 ecx, eax

; 530  : 
; 531  : 	m_bPriceChart = FALSE;

  00036	c7 87 c0 00 00
	00 00 00 00 00	 mov	 DWORD PTR [edi+192], 0

; 532  : 
; 533  : 	int nUpSpace = 0, nDownSpace = 0;
; 534  : 	int nR = 0, nC = 0, nV = 0, nG = 0;
; 535  : 	ILPCSTR szGraphName = pIChartManager->FindFirstIndicator( _MTEXT( C2_PRICE_CHART ), nR, nC, nV, nG, NULL);

  00040	6a 00		 push	 0
  00042	8d 45 f0	 lea	 eax, DWORD PTR _nG$[ebp]
  00045	c7 45 e4 00 00
	00 00		 mov	 DWORD PTR _nR$[ebp], 0
  0004c	50		 push	 eax
  0004d	8d 45 ec	 lea	 eax, DWORD PTR _nV$[ebp]
  00050	c7 45 e8 00 00
	00 00		 mov	 DWORD PTR _nC$[ebp], 0
  00057	50		 push	 eax
  00058	8d 45 e8	 lea	 eax, DWORD PTR _nC$[ebp]
  0005b	c7 45 ec 00 00
	00 00		 mov	 DWORD PTR _nV$[ebp], 0
  00062	50		 push	 eax
  00063	8d 45 e4	 lea	 eax, DWORD PTR _nR$[ebp]
  00066	c7 45 f0 00 00
	00 00		 mov	 DWORD PTR _nG$[ebp], 0
  0006d	8b 11		 mov	 edx, DWORD PTR [ecx]
  0006f	50		 push	 eax
  00070	a1 54 00 00 00	 mov	 eax, DWORD PTR ?g_iMetaTable@@3VIMetaTable@@A+84
  00075	ff b0 28 03 00
	00		 push	 DWORD PTR [eax+808]
  0007b	ff 52 58	 call	 DWORD PTR [edx+88]
; File D:\git\src\IBK\IBK_DRFN\ProjSrc\SrcChartEx\ChartAddIn\ChartEnvSetupDlgAddIn\Include_AddIn_135914\I135914\_IString.h

; 39   : 		m_pIStrData = p_pIString;	// Do not AddRef(). Because It must be Return Value.

  0007e	8b f0		 mov	 esi, eax

; 40   : 		if( m_pIStrData) m_szData = m_pIStrData->GetData();

  00080	85 f6		 test	 esi, esi
  00082	74 1a		 je	 SHORT $LN2@CheckPrice
  00084	8b 16		 mov	 edx, DWORD PTR [esi]
  00086	8b ce		 mov	 ecx, esi
  00088	ff 52 10	 call	 DWORD PTR [edx+16]

; 57   : 		if( !m_szData) return TRUE;

  0008b	85 c0		 test	 eax, eax
  0008d	74 0f		 je	 SHORT $LN2@CheckPrice
; File D:\git\src\IBK\IBK_DRFN\ProjSrc\SrcChartEx\ChartAddIn\ChartEnvSetupDlgAddIn\ChartEnvSetupDlgAddIn\TabMainChartEnvSetUp.cpp

; 536  : 	if( !szGraphName.IsEmpty())

  0008f	80 38 00	 cmp	 BYTE PTR [eax], 0
  00092	74 0a		 je	 SHORT $LN2@CheckPrice

; 537  : 	{
; 538  : 		m_bPriceChart = TRUE;

  00094	c7 87 c0 00 00
	00 01 00 00 00	 mov	 DWORD PTR [edi+192], 1
$LN2@CheckPrice:
; File D:\git\src\IBK\IBK_DRFN\ProjSrc\SrcChartEx\ChartAddIn\ChartEnvSetupDlgAddIn\Include_AddIn_135914\I135914\_IString.h

; 44   : 	{

  0009e	c7 45 fc 00 00
	00 00		 mov	 DWORD PTR __$EHRec$[ebp+8], 0

; 45   : 		if( m_pIStrData)

  000a5	85 f6		 test	 esi, esi
  000a7	74 06		 je	 SHORT $LN13@CheckPrice

; 46   : 		{
; 47   : 			m_pIStrData->Release();

  000a9	8b 06		 mov	 eax, DWORD PTR [esi]
  000ab	56		 push	 esi
  000ac	ff 50 08	 call	 DWORD PTR [eax+8]
$LN13@CheckPrice:
; File D:\git\src\IBK\IBK_DRFN\ProjSrc\SrcChartEx\ChartAddIn\ChartEnvSetupDlgAddIn\ChartEnvSetupDlgAddIn\TabMainChartEnvSetUp.cpp

; 540  : }

  000af	8b 4d f4	 mov	 ecx, DWORD PTR __$EHRec$[ebp]
  000b2	64 89 0d 00 00
	00 00		 mov	 DWORD PTR fs:0, ecx
  000b9	59		 pop	 ecx
  000ba	5f		 pop	 edi
  000bb	5e		 pop	 esi
  000bc	8b e5		 mov	 esp, ebp
  000be	5d		 pop	 ebp
  000bf	c3		 ret	 0
  000c0	cc		 int	 3
  000c1	cc		 int	 3
  000c2	cc		 int	 3
  000c3	cc		 int	 3
  000c4	cc		 int	 3
_TEXT	ENDS
;	COMDAT text$x
text$x	SEGMENT
__ehhandler$?CheckPriceChart@CTabMainChartEnvSetUp@@QAEXXZ:
  00000	90		 npad	 1
  00001	90		 npad	 1
  00002	8b 54 24 08	 mov	 edx, DWORD PTR [esp+8]
  00006	8d 42 0c	 lea	 eax, DWORD PTR [edx+12]
  00009	8b 4a e4	 mov	 ecx, DWORD PTR [edx-28]
  0000c	33 c8		 xor	 ecx, eax
  0000e	e8 00 00 00 00	 call	 @__security_check_cookie@4
  00013	b8 00 00 00 00	 mov	 eax, OFFSET __ehfuncinfo$?CheckPriceChart@CTabMainChartEnvSetUp@@QAEXXZ
  00018	e9 00 00 00 00	 jmp	 ___CxxFrameHandler3
text$x	ENDS
?CheckPriceChart@CTabMainChartEnvSetUp@@QAEXXZ ENDP	; CTabMainChartEnvSetUp::CheckPriceChart
; Function compile flags: /Ogtp
; File D:\git\src\IBK\IBK_DRFN\ProjSrc\SrcChartEx\ChartAddIn\ChartEnvSetupDlgAddIn\ChartEnvSetupDlgAddIn\TabMainChartEnvSetUp.cpp
;	COMDAT ?OnGraphDeleted@CTabMainChartEnvSetUp@@QAEXPBD0@Z
_TEXT	SEGMENT
_p_szGraphName$ = 8					; size = 4
_p_szIndicatorName$ = 12				; size = 4
?OnGraphDeleted@CTabMainChartEnvSetUp@@QAEXPBD0@Z PROC	; CTabMainChartEnvSetUp::OnGraphDeleted, COMDAT
; _this$ = ecx

; 519  : {

  00000	55		 push	 ebp
  00001	8b ec		 mov	 ebp, esp
  00003	56		 push	 esi
  00004	8b f1		 mov	 esi, ecx

; 520  : 	if( !m_aTabPages[ 0]) return;

  00006	83 be a8 00 00
	00 00		 cmp	 DWORD PTR [esi+168], 0
  0000d	74 26		 je	 SHORT $LN1@OnGraphDel

; 521  : 	if( !m_aTabPages[ 0]->IsKindOf( RUNTIME_CLASS( CDlgMainTabIndicatorSetUp))) return;

  0000f	e8 00 00 00 00	 call	 ?GetThisClass@CDlgMainTabIndicatorSetUp@@SGPAUCRuntimeClass@@XZ ; CDlgMainTabIndicatorSetUp::GetThisClass
  00014	8b 8e a8 00 00
	00		 mov	 ecx, DWORD PTR [esi+168]
  0001a	50		 push	 eax
  0001b	e8 00 00 00 00	 call	 ?IsKindOf@CObject@@QBEHPBUCRuntimeClass@@@Z ; CObject::IsKindOf
  00020	85 c0		 test	 eax, eax
  00022	74 11		 je	 SHORT $LN1@OnGraphDel

; 522  : 
; 523  : 	( ( CDlgMainTabIndicatorSetUp *)m_aTabPages[ 0])->OnGraphDeleted( p_szGraphName, p_szIndicatorName);

  00024	ff 75 0c	 push	 DWORD PTR _p_szIndicatorName$[ebp]
  00027	8b 8e a8 00 00
	00		 mov	 ecx, DWORD PTR [esi+168]
  0002d	ff 75 08	 push	 DWORD PTR _p_szGraphName$[ebp]
  00030	e8 00 00 00 00	 call	 ?OnGraphDeleted@CDlgMainTabIndicatorSetUp@@QAEXPBD0@Z ; CDlgMainTabIndicatorSetUp::OnGraphDeleted
$LN1@OnGraphDel:
  00035	5e		 pop	 esi

; 524  : }

  00036	5d		 pop	 ebp
  00037	c2 08 00	 ret	 8
?OnGraphDeleted@CTabMainChartEnvSetUp@@QAEXPBD0@Z ENDP	; CTabMainChartEnvSetUp::OnGraphDeleted
_TEXT	ENDS
; Function compile flags: /Ogtp
; File D:\git\src\IBK\IBK_DRFN\ProjSrc\SrcChartEx\ChartAddIn\ChartEnvSetupDlgAddIn\ChartEnvSetupDlgAddIn\TabMainChartEnvSetUp.cpp
;	COMDAT ?UpdateAnalysisColorInAnalysisTool@CTabMainChartEnvSetUp@@QAEXK@Z
_TEXT	SEGMENT
_p_clrAnalysis$ = 8					; size = 4
?UpdateAnalysisColorInAnalysisTool@CTabMainChartEnvSetUp@@QAEXK@Z PROC ; CTabMainChartEnvSetUp::UpdateAnalysisColorInAnalysisTool, COMDAT
; _this$ = ecx

; 457  : {

  00000	55		 push	 ebp
  00001	8b ec		 mov	 ebp, esp

; 458  : 	CBaseTabDlg *pStylePage = NULL;
; 459  : 	if( m_nTotalTabPages == 4) pStylePage = m_aTabPages[ 2];

  00003	83 b9 80 00 00
	00 04		 cmp	 DWORD PTR [ecx+128], 4
  0000a	56		 push	 esi
  0000b	75 08		 jne	 SHORT $LN2@UpdateAnal
  0000d	8b b1 b0 00 00
	00		 mov	 esi, DWORD PTR [ecx+176]
  00013	eb 06		 jmp	 SHORT $LN3@UpdateAnal
$LN2@UpdateAnal:

; 460  : 	else pStylePage = m_aTabPages[ 1];

  00015	8b b1 ac 00 00
	00		 mov	 esi, DWORD PTR [ecx+172]
$LN3@UpdateAnal:

; 461  : 	if( !pStylePage) return;

  0001b	85 f6		 test	 esi, esi
  0001d	74 1b		 je	 SHORT $LN5@UpdateAnal

; 462  : 	if( pStylePage->IsKindOf( RUNTIME_CLASS( CDlgMainTabAnalysisSetUp)))

  0001f	e8 00 00 00 00	 call	 ?GetThisClass@CDlgMainTabAnalysisSetUp@@SGPAUCRuntimeClass@@XZ ; CDlgMainTabAnalysisSetUp::GetThisClass
  00024	50		 push	 eax
  00025	8b ce		 mov	 ecx, esi
  00027	e8 00 00 00 00	 call	 ?IsKindOf@CObject@@QBEHPBUCRuntimeClass@@@Z ; CObject::IsKindOf
  0002c	85 c0		 test	 eax, eax
  0002e	74 0a		 je	 SHORT $LN5@UpdateAnal

; 463  : 		( ( CDlgMainTabAnalysisSetUp *)pStylePage)->UpdateAnalysisColor( p_clrAnalysis);

  00030	ff 75 08	 push	 DWORD PTR _p_clrAnalysis$[ebp]
  00033	8b ce		 mov	 ecx, esi
  00035	e8 00 00 00 00	 call	 ?UpdateAnalysisColor@CDlgMainTabAnalysisSetUp@@QAEXK@Z ; CDlgMainTabAnalysisSetUp::UpdateAnalysisColor
$LN5@UpdateAnal:
  0003a	5e		 pop	 esi

; 464  : }

  0003b	5d		 pop	 ebp
  0003c	c2 04 00	 ret	 4
?UpdateAnalysisColorInAnalysisTool@CTabMainChartEnvSetUp@@QAEXK@Z ENDP ; CTabMainChartEnvSetUp::UpdateAnalysisColorInAnalysisTool
_TEXT	ENDS
; Function compile flags: /Ogtp
; File D:\git\src\IBK\IBK_DRFN\ProjSrc\SrcChartEx\ChartAddIn\ChartEnvSetupDlgAddIn\ChartEnvSetupDlgAddIn\TabMainChartEnvSetUp.cpp
;	COMDAT ?UpdateAnalysisColorInStyle@CTabMainChartEnvSetUp@@QAEXK@Z
_TEXT	SEGMENT
_p_clrAnalysis$ = 8					; size = 4
?UpdateAnalysisColorInStyle@CTabMainChartEnvSetUp@@QAEXK@Z PROC ; CTabMainChartEnvSetUp::UpdateAnalysisColorInStyle, COMDAT
; _this$ = ecx

; 448  : {

  00000	55		 push	 ebp
  00001	8b ec		 mov	 ebp, esp

; 449  : 	CBaseTabDlg *pStylePage = NULL;
; 450  : 	if( m_nTotalTabPages == 4) pStylePage = m_aTabPages[ 3];

  00003	83 b9 80 00 00
	00 04		 cmp	 DWORD PTR [ecx+128], 4
  0000a	56		 push	 esi
  0000b	75 08		 jne	 SHORT $LN2@UpdateAnal
  0000d	8b b1 b4 00 00
	00		 mov	 esi, DWORD PTR [ecx+180]
  00013	eb 06		 jmp	 SHORT $LN3@UpdateAnal
$LN2@UpdateAnal:

; 451  : 	else pStylePage = m_aTabPages[ 4];

  00015	8b b1 b8 00 00
	00		 mov	 esi, DWORD PTR [ecx+184]
$LN3@UpdateAnal:

; 452  : 	if( !pStylePage) return;

  0001b	85 f6		 test	 esi, esi
  0001d	74 1b		 je	 SHORT $LN5@UpdateAnal

; 453  : 	if( pStylePage->IsKindOf( RUNTIME_CLASS( CDlgMainTabStyleSetUp)))

  0001f	e8 00 00 00 00	 call	 ?GetThisClass@CDlgMainTabStyleSetUp@@SGPAUCRuntimeClass@@XZ ; CDlgMainTabStyleSetUp::GetThisClass
  00024	50		 push	 eax
  00025	8b ce		 mov	 ecx, esi
  00027	e8 00 00 00 00	 call	 ?IsKindOf@CObject@@QBEHPBUCRuntimeClass@@@Z ; CObject::IsKindOf
  0002c	85 c0		 test	 eax, eax
  0002e	74 0a		 je	 SHORT $LN5@UpdateAnal

; 454  : 		( ( CDlgMainTabStyleSetUp *)pStylePage)->UpdateAnalysisColor( p_clrAnalysis);

  00030	ff 75 08	 push	 DWORD PTR _p_clrAnalysis$[ebp]
  00033	8b ce		 mov	 ecx, esi
  00035	e8 00 00 00 00	 call	 ?UpdateAnalysisColor@CDlgMainTabStyleSetUp@@QAEXK@Z ; CDlgMainTabStyleSetUp::UpdateAnalysisColor
$LN5@UpdateAnal:
  0003a	5e		 pop	 esi

; 455  : }

  0003b	5d		 pop	 ebp
  0003c	c2 04 00	 ret	 4
?UpdateAnalysisColorInStyle@CTabMainChartEnvSetUp@@QAEXK@Z ENDP ; CTabMainChartEnvSetUp::UpdateAnalysisColorInStyle
_TEXT	ENDS
; Function compile flags: /Ogtp
; File D:\git\src\IBK\IBK_DRFN\ProjSrc\SrcChartEx\ChartAddIn\ChartEnvSetupDlgAddIn\ChartEnvSetupDlgAddIn\TabMainChartEnvSetUp.cpp
; File C:\Program Files (x86)\Microsoft Visual Studio\2019\Community\VC\Tools\MSVC\14.29.30133\atlmfc\include\afxwin2.inl
; File D:\git\src\IBK\IBK_DRFN\ProjSrc\SrcChartEx\ChartAddIn\ChartEnvSetupDlgAddIn\ChartEnvSetupDlgAddIn\TabMainChartEnvSetUp.cpp
; File C:\Program Files (x86)\Microsoft Visual Studio\2019\Community\VC\Tools\MSVC\14.29.30133\atlmfc\include\afxwin2.inl
; File D:\git\src\IBK\IBK_DRFN\ProjSrc\SrcChartEx\ChartAddIn\ChartEnvSetupDlgAddIn\ChartEnvSetupDlgAddIn\TabMainChartEnvSetUp.cpp
; File C:\Program Files (x86)\Microsoft Visual Studio\2019\Community\VC\Tools\MSVC\14.29.30133\atlmfc\include\afxwin2.inl
; File C:\Program Files (x86)\Microsoft Visual Studio\2019\Community\VC\Tools\MSVC\14.29.30133\atlmfc\include\atltypes.h
; File C:\Program Files (x86)\Microsoft Visual Studio\2019\Community\VC\Tools\MSVC\14.29.30133\atlmfc\include\afxwin2.inl
; File D:\git\src\IBK\IBK_DRFN\ProjSrc\SrcChartEx\ChartAddIn\ChartEnvSetupDlgAddIn\ChartEnvSetupDlgAddIn\TabMainChartEnvSetUp.cpp
; File C:\Program Files (x86)\Microsoft Visual Studio\2019\Community\VC\Tools\MSVC\14.29.30133\atlmfc\include\afxwin2.inl
; File D:\git\src\IBK\IBK_DRFN\ProjSrc\SrcChartEx\ChartAddIn\ChartEnvSetupDlgAddIn\ChartEnvSetupDlgAddIn\TabMainChartEnvSetUp.cpp
; File C:\Program Files (x86)\Microsoft Visual Studio\2019\Community\VC\Tools\MSVC\14.29.30133\atlmfc\include\afxwin2.inl
; File D:\git\src\IBK\IBK_DRFN\ProjSrc\SrcChartEx\ChartAddIn\ChartEnvSetupDlgAddIn\ChartEnvSetupDlgAddIn\TabMainChartEnvSetUp.cpp
; File C:\Program Files (x86)\Microsoft Visual Studio\2019\Community\VC\Tools\MSVC\14.29.30133\atlmfc\include\afxwin2.inl
; File D:\git\src\IBK\IBK_DRFN\ProjSrc\SrcChartEx\ChartAddIn\ChartEnvSetupDlgAddIn\ChartEnvSetupDlgAddIn\TabMainChartEnvSetUp.cpp
; File C:\Program Files (x86)\Microsoft Visual Studio\2019\Community\VC\Tools\MSVC\14.29.30133\atlmfc\include\afxwin2.inl
; File D:\git\src\IBK\IBK_DRFN\ProjSrc\SrcChartEx\ChartAddIn\ChartEnvSetupDlgAddIn\ChartEnvSetupDlgAddIn\TabMainChartEnvSetUp.cpp
; File C:\Program Files (x86)\Microsoft Visual Studio\2019\Community\VC\Tools\MSVC\14.29.30133\atlmfc\include\atltypes.h
; File D:\git\src\IBK\IBK_DRFN\ProjSrc\SrcChartEx\ChartAddIn\ChartEnvSetupDlgAddIn\ChartEnvSetupDlgAddIn\TabMainChartEnvSetUp.cpp
; File C:\Program Files (x86)\Microsoft Visual Studio\2019\Community\VC\Tools\MSVC\14.29.30133\atlmfc\include\afxwin2.inl
; File D:\git\src\IBK\IBK_DRFN\ProjSrc\SrcChartEx\ChartAddIn\ChartEnvSetupDlgAddIn\ChartEnvSetupDlgAddIn\TabMainChartEnvSetUp.cpp
; File C:\Program Files (x86)\Microsoft Visual Studio\2019\Community\VC\Tools\MSVC\14.29.30133\atlmfc\include\afxwin2.inl
; File D:\git\src\IBK\IBK_DRFN\ProjSrc\SrcChartEx\ChartAddIn\ChartEnvSetupDlgAddIn\ChartEnvSetupDlgAddIn\TabMainChartEnvSetUp.cpp
; File C:\Program Files (x86)\Microsoft Visual Studio\2019\Community\VC\Tools\MSVC\14.29.30133\atlmfc\include\afxwin2.inl
; File D:\git\src\IBK\IBK_DRFN\ProjSrc\SrcChartEx\ChartAddIn\ChartEnvSetupDlgAddIn\ChartEnvSetupDlgAddIn\TabMainChartEnvSetUp.cpp
; File C:\Program Files (x86)\Microsoft Visual Studio\2019\Community\VC\Tools\MSVC\14.29.30133\atlmfc\include\afxwin2.inl
; File D:\git\src\IBK\IBK_DRFN\ProjSrc\SrcChartEx\ChartAddIn\ChartEnvSetupDlgAddIn\ChartEnvSetupDlgAddIn\TabMainChartEnvSetUp.cpp
; File C:\Program Files (x86)\Microsoft Visual Studio\2019\Community\VC\Tools\MSVC\14.29.30133\atlmfc\include\afxwin2.inl
; File D:\git\src\IBK\IBK_DRFN\ProjSrc\SrcChartEx\ChartAddIn\ChartEnvSetupDlgAddIn\ChartEnvSetupDlgAddIn\TabMainChartEnvSetUp.cpp
; File C:\Program Files (x86)\Microsoft Visual Studio\2019\Community\VC\Tools\MSVC\14.29.30133\atlmfc\include\afxwin2.inl
; File D:\git\src\IBK\IBK_DRFN\ProjSrc\SrcChartEx\ChartAddIn\ChartEnvSetupDlgAddIn\ChartEnvSetupDlgAddIn\TabMainChartEnvSetUp.cpp
; File C:\Program Files (x86)\Microsoft Visual Studio\2019\Community\VC\Tools\MSVC\14.29.30133\atlmfc\include\afxwin2.inl
; File D:\git\src\IBK\IBK_DRFN\ProjSrc\SrcChartEx\ChartAddIn\ChartEnvSetupDlgAddIn\ChartEnvSetupDlgAddIn\TabMainChartEnvSetUp.cpp
; File C:\Program Files (x86)\Microsoft Visual Studio\2019\Community\VC\Tools\MSVC\14.29.30133\atlmfc\include\afxwin2.inl
; File D:\git\src\IBK\IBK_DRFN\ProjSrc\SrcChartEx\ChartAddIn\ChartEnvSetupDlgAddIn\ChartEnvSetupDlgAddIn\TabMainChartEnvSetUp.cpp
; File C:\Program Files (x86)\Microsoft Visual Studio\2019\Community\VC\Tools\MSVC\14.29.30133\atlmfc\include\afxwin2.inl
; File D:\git\src\IBK\IBK_DRFN\ProjSrc\SrcChartEx\ChartAddIn\ChartEnvSetupDlgAddIn\ChartEnvSetupDlgAddIn\TabMainChartEnvSetUp.cpp
; File C:\Program Files (x86)\Microsoft Visual Studio\2019\Community\VC\Tools\MSVC\14.29.30133\atlmfc\include\afxwin2.inl
; File D:\git\src\IBK\IBK_DRFN\ProjSrc\SrcChartEx\ChartAddIn\ChartEnvSetupDlgAddIn\ChartEnvSetupDlgAddIn\TabMainChartEnvSetUp.cpp
; File C:\Program Files (x86)\Microsoft Visual Studio\2019\Community\VC\Tools\MSVC\14.29.30133\atlmfc\include\afxwin2.inl
; File D:\git\src\IBK\IBK_DRFN\ProjSrc\SrcChartEx\ChartAddIn\ChartEnvSetupDlgAddIn\ChartEnvSetupDlgAddIn\TabMainChartEnvSetUp.cpp
;	COMDAT ?TabPageMoveWindow@CTabMainChartEnvSetUp@@QAEXH@Z
_TEXT	SEGMENT
_pBtnPrev$1$ = -108					; size = 4
_this$GSCopy$1$ = -104					; size = 4
_rcPrev$ = -100						; size = 16
_rcCancel$ = -84					; size = 16
_rcTabPage$ = -68					; size = 16
_rcMainTab$ = -52					; size = 16
_rcDlgEndSetUtAll$ = -36				; size = 16
_rcOk$ = -20						; size = 16
__$ArrayPad$ = -4					; size = 4
_bResult$ = 8						; size = 4
?TabPageMoveWindow@CTabMainChartEnvSetUp@@QAEXH@Z PROC	; CTabMainChartEnvSetUp::TabPageMoveWindow, COMDAT
; _this$ = ecx

; 467  : {

  00000	55		 push	 ebp
  00001	8b ec		 mov	 ebp, esp
  00003	83 ec 6c	 sub	 esp, 108		; 0000006cH
  00006	a1 00 00 00 00	 mov	 eax, DWORD PTR ___security_cookie
  0000b	33 c5		 xor	 eax, ebp
  0000d	89 45 fc	 mov	 DWORD PTR __$ArrayPad$[ebp], eax
  00010	53		 push	 ebx
  00011	56		 push	 esi
; File C:\Program Files (x86)\Microsoft Visual Studio\2019\Community\VC\Tools\MSVC\14.29.30133\atlmfc\include\afxwin2.inl

; 84   : 	{ ASSERT(::IsWindow(m_hWnd)); ::GetWindowRect(m_hWnd, lpRect); }

  00012	8b 35 00 00 00
	00		 mov	 esi, DWORD PTR __imp__GetWindowRect@8
  00018	8d 45 cc	 lea	 eax, DWORD PTR _rcMainTab$[ebp]
; File D:\git\src\IBK\IBK_DRFN\ProjSrc\SrcChartEx\ChartAddIn\ChartEnvSetupDlgAddIn\ChartEnvSetupDlgAddIn\TabMainChartEnvSetUp.cpp

; 467  : {

  0001b	8b d9		 mov	 ebx, ecx
  0001d	0f 57 c0	 xorps	 xmm0, xmm0
  00020	57		 push	 edi
; File C:\Program Files (x86)\Microsoft Visual Studio\2019\Community\VC\Tools\MSVC\14.29.30133\atlmfc\include\afxwin2.inl

; 84   : 	{ ASSERT(::IsWindow(m_hWnd)); ::GetWindowRect(m_hWnd, lpRect); }

  00021	50		 push	 eax
; File D:\git\src\IBK\IBK_DRFN\ProjSrc\SrcChartEx\ChartAddIn\ChartEnvSetupDlgAddIn\ChartEnvSetupDlgAddIn\TabMainChartEnvSetUp.cpp

; 467  : {

  00022	89 5d 98	 mov	 DWORD PTR _this$GSCopy$1$[ebp], ebx
; File C:\Program Files (x86)\Microsoft Visual Studio\2019\Community\VC\Tools\MSVC\14.29.30133\atlmfc\include\afxwin2.inl

; 84   : 	{ ASSERT(::IsWindow(m_hWnd)); ::GetWindowRect(m_hWnd, lpRect); }

  00025	ff 73 20	 push	 DWORD PTR [ebx+32]
; File C:\Program Files (x86)\Microsoft Visual Studio\2019\Community\VC\Tools\MSVC\14.29.30133\atlmfc\include\atltypes.h

; 528  : 	left = 0;

  00028	0f 11 45 dc	 movups	 XMMWORD PTR _rcDlgEndSetUtAll$[ebp], xmm0
  0002c	0f 11 45 cc	 movups	 XMMWORD PTR _rcMainTab$[ebp], xmm0
  00030	0f 11 45 bc	 movups	 XMMWORD PTR _rcTabPage$[ebp], xmm0
; File C:\Program Files (x86)\Microsoft Visual Studio\2019\Community\VC\Tools\MSVC\14.29.30133\atlmfc\include\afxwin2.inl

; 84   : 	{ ASSERT(::IsWindow(m_hWnd)); ::GetWindowRect(m_hWnd, lpRect); }

  00034	ff d6		 call	 esi
  00036	8d 45 dc	 lea	 eax, DWORD PTR _rcDlgEndSetUtAll$[ebp]
  00039	50		 push	 eax
  0003a	8b 83 b8 00 00
	00		 mov	 eax, DWORD PTR [ebx+184]
  00040	ff 70 20	 push	 DWORD PTR [eax+32]
  00043	ff d6		 call	 esi
  00045	8d 45 bc	 lea	 eax, DWORD PTR _rcTabPage$[ebp]
  00048	50		 push	 eax
  00049	8b 83 84 00 00
	00		 mov	 eax, DWORD PTR [ebx+132]
  0004f	8b 84 83 a8 00
	00 00		 mov	 eax, DWORD PTR [ebx+eax*4+168]
  00056	ff 70 20	 push	 DWORD PTR [eax+32]
  00059	ff d6		 call	 esi

; 73   : 	{ MoveWindow(lpRect->left, lpRect->top, lpRect->right - lpRect->left,

  0005b	8b 4d e0	 mov	 ecx, DWORD PTR _rcDlgEndSetUtAll$[ebp+4]
  0005e	8b 45 e8	 mov	 eax, DWORD PTR _rcDlgEndSetUtAll$[ebp+12]
; File D:\git\src\IBK\IBK_DRFN\ProjSrc\SrcChartEx\ChartAddIn\ChartEnvSetupDlgAddIn\ChartEnvSetupDlgAddIn\TabMainChartEnvSetUp.cpp

; 481  : 	rcDlgEndSetUtAll.right = rcDlgEndSetUtAll.right + nMove;

  00061	8b 55 e4	 mov	 edx, DWORD PTR _rcDlgEndSetUtAll$[ebp+8]
; File C:\Program Files (x86)\Microsoft Visual Studio\2019\Community\VC\Tools\MSVC\14.29.30133\atlmfc\include\afxwin2.inl

; 73   : 	{ MoveWindow(lpRect->left, lpRect->top, lpRect->right - lpRect->left,

  00064	2b c1		 sub	 eax, ecx
  00066	6a 01		 push	 1
  00068	50		 push	 eax
  00069	8b 45 dc	 mov	 eax, DWORD PTR _rcDlgEndSetUtAll$[ebp]
; File D:\git\src\IBK\IBK_DRFN\ProjSrc\SrcChartEx\ChartAddIn\ChartEnvSetupDlgAddIn\ChartEnvSetupDlgAddIn\TabMainChartEnvSetUp.cpp

; 481  : 	rcDlgEndSetUtAll.right = rcDlgEndSetUtAll.right + nMove;

  0006c	89 55 e4	 mov	 DWORD PTR _rcDlgEndSetUtAll$[ebp+8], edx
; File C:\Program Files (x86)\Microsoft Visual Studio\2019\Community\VC\Tools\MSVC\14.29.30133\atlmfc\include\afxwin2.inl

; 73   : 	{ MoveWindow(lpRect->left, lpRect->top, lpRect->right - lpRect->left,

  0006f	2b d0		 sub	 edx, eax
  00071	52		 push	 edx
  00072	51		 push	 ecx
  00073	8b 8b b8 00 00
	00		 mov	 ecx, DWORD PTR [ebx+184]
  00079	50		 push	 eax
  0007a	e8 00 00 00 00	 call	 ?MoveWindow@CWnd@@QAEXHHHHH@Z ; CWnd::MoveWindow
; File D:\git\src\IBK\IBK_DRFN\ProjSrc\SrcChartEx\ChartAddIn\ChartEnvSetupDlgAddIn\ChartEnvSetupDlgAddIn\TabMainChartEnvSetUp.cpp

; 485  : 	m_pDlgEnvSetUpAll->ScreenToClient( rcMainTab);

  0007f	8b 8b b8 00 00
	00		 mov	 ecx, DWORD PTR [ebx+184]
  00085	8d 45 cc	 lea	 eax, DWORD PTR _rcMainTab$[ebp]
  00088	50		 push	 eax
  00089	e8 00 00 00 00	 call	 ?ScreenToClient@CWnd@@QBEXPAUtagRECT@@@Z ; CWnd::ScreenToClient
; File C:\Program Files (x86)\Microsoft Visual Studio\2019\Community\VC\Tools\MSVC\14.29.30133\atlmfc\include\afxwin2.inl

; 73   : 	{ MoveWindow(lpRect->left, lpRect->top, lpRect->right - lpRect->left,

  0008e	8b 45 d8	 mov	 eax, DWORD PTR _rcMainTab$[ebp+12]
  00091	8b 55 d0	 mov	 edx, DWORD PTR _rcMainTab$[ebp+4]
  00094	2b c2		 sub	 eax, edx
  00096	8b 4d cc	 mov	 ecx, DWORD PTR _rcMainTab$[ebp]
  00099	6a 01		 push	 1
  0009b	50		 push	 eax
  0009c	8b 45 d4	 mov	 eax, DWORD PTR _rcMainTab$[ebp+8]
  0009f	2b c1		 sub	 eax, ecx
  000a1	50		 push	 eax
  000a2	52		 push	 edx
  000a3	51		 push	 ecx
  000a4	8b cb		 mov	 ecx, ebx
  000a6	e8 00 00 00 00	 call	 ?MoveWindow@CWnd@@QAEXHHHHH@Z ; CWnd::MoveWindow
; File D:\git\src\IBK\IBK_DRFN\ProjSrc\SrcChartEx\ChartAddIn\ChartEnvSetupDlgAddIn\ChartEnvSetupDlgAddIn\TabMainChartEnvSetUp.cpp

; 489  : 	ScreenToClient( rcTabPage);

  000ab	8d 45 bc	 lea	 eax, DWORD PTR _rcTabPage$[ebp]
  000ae	8b cb		 mov	 ecx, ebx
  000b0	50		 push	 eax
  000b1	e8 00 00 00 00	 call	 ?ScreenToClient@CWnd@@QBEXPAUtagRECT@@@Z ; CWnd::ScreenToClient

; 491  : 	for( int i = 0; i < m_nTotalTabPages; i++)

  000b6	33 ff		 xor	 edi, edi
  000b8	39 bb 80 00 00
	00		 cmp	 DWORD PTR [ebx+128], edi
  000be	7e 2f		 jle	 SHORT $LN3@TabPageMov

; 467  : {

  000c0	8d b3 a8 00 00
	00		 lea	 esi, DWORD PTR [ebx+168]
$LL4@TabPageMov:
; File C:\Program Files (x86)\Microsoft Visual Studio\2019\Community\VC\Tools\MSVC\14.29.30133\atlmfc\include\afxwin2.inl

; 73   : 	{ MoveWindow(lpRect->left, lpRect->top, lpRect->right - lpRect->left,

  000c6	8b 45 c8	 mov	 eax, DWORD PTR _rcTabPage$[ebp+12]
  000c9	8b 55 c0	 mov	 edx, DWORD PTR _rcTabPage$[ebp+4]
  000cc	2b c2		 sub	 eax, edx
  000ce	8b 4d bc	 mov	 ecx, DWORD PTR _rcTabPage$[ebp]
  000d1	6a 01		 push	 1
  000d3	50		 push	 eax
  000d4	8b 45 c4	 mov	 eax, DWORD PTR _rcTabPage$[ebp+8]
  000d7	2b c1		 sub	 eax, ecx
  000d9	50		 push	 eax
  000da	52		 push	 edx
  000db	51		 push	 ecx
  000dc	8b 0e		 mov	 ecx, DWORD PTR [esi]
  000de	e8 00 00 00 00	 call	 ?MoveWindow@CWnd@@QAEXHHHHH@Z ; CWnd::MoveWindow
; File D:\git\src\IBK\IBK_DRFN\ProjSrc\SrcChartEx\ChartAddIn\ChartEnvSetupDlgAddIn\ChartEnvSetupDlgAddIn\TabMainChartEnvSetUp.cpp

; 491  : 	for( int i = 0; i < m_nTotalTabPages; i++)

  000e3	47		 inc	 edi
  000e4	8d 76 04	 lea	 esi, DWORD PTR [esi+4]
  000e7	3b bb 80 00 00
	00		 cmp	 edi, DWORD PTR [ebx+128]
  000ed	7c d7		 jl	 SHORT $LL4@TabPageMov
$LN3@TabPageMov:

; 495  : 	CButton *pBtnOk = (CButton *)m_pDlgEnvSetUpAll->GetDlgItem(IDOK);

  000ef	8b 8b b8 00 00
	00		 mov	 ecx, DWORD PTR [ebx+184]
  000f5	0f 57 c0	 xorps	 xmm0, xmm0
  000f8	6a 01		 push	 1
; File C:\Program Files (x86)\Microsoft Visual Studio\2019\Community\VC\Tools\MSVC\14.29.30133\atlmfc\include\atltypes.h

; 528  : 	left = 0;

  000fa	0f 11 45 ec	 movups	 XMMWORD PTR _rcOk$[ebp], xmm0
  000fe	0f 11 45 ac	 movups	 XMMWORD PTR _rcCancel$[ebp], xmm0
  00102	0f 11 45 9c	 movups	 XMMWORD PTR _rcPrev$[ebp], xmm0
; File D:\git\src\IBK\IBK_DRFN\ProjSrc\SrcChartEx\ChartAddIn\ChartEnvSetupDlgAddIn\ChartEnvSetupDlgAddIn\TabMainChartEnvSetUp.cpp

; 495  : 	CButton *pBtnOk = (CButton *)m_pDlgEnvSetUpAll->GetDlgItem(IDOK);

  00106	e8 00 00 00 00	 call	 ?GetDlgItem@CWnd@@QBEPAV1@H@Z ; CWnd::GetDlgItem

; 496  : 	CButton *pBtnCancel = (CButton *)m_pDlgEnvSetUpAll->GetDlgItem(IDCANCEL);

  0010b	8b 8b b8 00 00
	00		 mov	 ecx, DWORD PTR [ebx+184]
  00111	8b f8		 mov	 edi, eax
  00113	6a 02		 push	 2
  00115	e8 00 00 00 00	 call	 ?GetDlgItem@CWnd@@QBEPAV1@H@Z ; CWnd::GetDlgItem

; 497  : 	CButton *pBtnPrev = (CButton *)m_pDlgEnvSetUpAll->GetDlgItem(ID_BTN_PREVIEW);

  0011a	8b 4d 98	 mov	 ecx, DWORD PTR _this$GSCopy$1$[ebp]
  0011d	8b d8		 mov	 ebx, eax
  0011f	68 fa 17 00 00	 push	 6138			; 000017faH
  00124	8b 89 b8 00 00
	00		 mov	 ecx, DWORD PTR [ecx+184]
  0012a	e8 00 00 00 00	 call	 ?GetDlgItem@CWnd@@QBEPAV1@H@Z ; CWnd::GetDlgItem
  0012f	8b f0		 mov	 esi, eax
; File C:\Program Files (x86)\Microsoft Visual Studio\2019\Community\VC\Tools\MSVC\14.29.30133\atlmfc\include\afxwin2.inl

; 84   : 	{ ASSERT(::IsWindow(m_hWnd)); ::GetWindowRect(m_hWnd, lpRect); }

  00131	8d 45 ec	 lea	 eax, DWORD PTR _rcOk$[ebp]
  00134	50		 push	 eax
  00135	ff 77 20	 push	 DWORD PTR [edi+32]
; File D:\git\src\IBK\IBK_DRFN\ProjSrc\SrcChartEx\ChartAddIn\ChartEnvSetupDlgAddIn\ChartEnvSetupDlgAddIn\TabMainChartEnvSetUp.cpp

; 497  : 	CButton *pBtnPrev = (CButton *)m_pDlgEnvSetUpAll->GetDlgItem(ID_BTN_PREVIEW);

  00138	89 75 94	 mov	 DWORD PTR _pBtnPrev$1$[ebp], esi
; File C:\Program Files (x86)\Microsoft Visual Studio\2019\Community\VC\Tools\MSVC\14.29.30133\atlmfc\include\afxwin2.inl

; 84   : 	{ ASSERT(::IsWindow(m_hWnd)); ::GetWindowRect(m_hWnd, lpRect); }

  0013b	ff 15 00 00 00
	00		 call	 DWORD PTR __imp__GetWindowRect@8
; File D:\git\src\IBK\IBK_DRFN\ProjSrc\SrcChartEx\ChartAddIn\ChartEnvSetupDlgAddIn\ChartEnvSetupDlgAddIn\TabMainChartEnvSetUp.cpp

; 500  : 	m_pDlgEnvSetUpAll->ScreenToClient( &rcOk);

  00141	8d 45 ec	 lea	 eax, DWORD PTR _rcOk$[ebp]
  00144	50		 push	 eax
  00145	8b 45 98	 mov	 eax, DWORD PTR _this$GSCopy$1$[ebp]
  00148	8b 88 b8 00 00
	00		 mov	 ecx, DWORD PTR [eax+184]
  0014e	e8 00 00 00 00	 call	 ?ScreenToClient@CWnd@@QBEXPAUtagRECT@@@Z ; CWnd::ScreenToClient
; File C:\Program Files (x86)\Microsoft Visual Studio\2019\Community\VC\Tools\MSVC\14.29.30133\atlmfc\include\afxwin2.inl

; 84   : 	{ ASSERT(::IsWindow(m_hWnd)); ::GetWindowRect(m_hWnd, lpRect); }

  00153	8d 45 ac	 lea	 eax, DWORD PTR _rcCancel$[ebp]
  00156	50		 push	 eax
  00157	ff 73 20	 push	 DWORD PTR [ebx+32]
  0015a	ff 15 00 00 00
	00		 call	 DWORD PTR __imp__GetWindowRect@8
; File D:\git\src\IBK\IBK_DRFN\ProjSrc\SrcChartEx\ChartAddIn\ChartEnvSetupDlgAddIn\ChartEnvSetupDlgAddIn\TabMainChartEnvSetUp.cpp

; 502  : 	m_pDlgEnvSetUpAll->ScreenToClient( &rcCancel);

  00160	8d 45 ac	 lea	 eax, DWORD PTR _rcCancel$[ebp]
  00163	50		 push	 eax
  00164	8b 45 98	 mov	 eax, DWORD PTR _this$GSCopy$1$[ebp]
  00167	8b 88 b8 00 00
	00		 mov	 ecx, DWORD PTR [eax+184]
  0016d	e8 00 00 00 00	 call	 ?ScreenToClient@CWnd@@QBEXPAUtagRECT@@@Z ; CWnd::ScreenToClient
; File C:\Program Files (x86)\Microsoft Visual Studio\2019\Community\VC\Tools\MSVC\14.29.30133\atlmfc\include\afxwin2.inl

; 84   : 	{ ASSERT(::IsWindow(m_hWnd)); ::GetWindowRect(m_hWnd, lpRect); }

  00172	8d 45 9c	 lea	 eax, DWORD PTR _rcPrev$[ebp]
  00175	50		 push	 eax
  00176	ff 76 20	 push	 DWORD PTR [esi+32]
  00179	ff 15 00 00 00
	00		 call	 DWORD PTR __imp__GetWindowRect@8
; File D:\git\src\IBK\IBK_DRFN\ProjSrc\SrcChartEx\ChartAddIn\ChartEnvSetupDlgAddIn\ChartEnvSetupDlgAddIn\TabMainChartEnvSetUp.cpp

; 504  : 	m_pDlgEnvSetUpAll->ScreenToClient( &rcPrev);

  0017f	8d 45 9c	 lea	 eax, DWORD PTR _rcPrev$[ebp]
  00182	50		 push	 eax
  00183	8b 45 98	 mov	 eax, DWORD PTR _this$GSCopy$1$[ebp]
  00186	8b 88 b8 00 00
	00		 mov	 ecx, DWORD PTR [eax+184]
  0018c	e8 00 00 00 00	 call	 ?ScreenToClient@CWnd@@QBEXPAUtagRECT@@@Z ; CWnd::ScreenToClient
; File C:\Program Files (x86)\Microsoft Visual Studio\2019\Community\VC\Tools\MSVC\14.29.30133\atlmfc\include\afxwin2.inl

; 73   : 	{ MoveWindow(lpRect->left, lpRect->top, lpRect->right - lpRect->left,

  00191	8b 4d f0	 mov	 ecx, DWORD PTR _rcOk$[ebp+4]
  00194	8b 45 f8	 mov	 eax, DWORD PTR _rcOk$[ebp+12]
; File D:\git\src\IBK\IBK_DRFN\ProjSrc\SrcChartEx\ChartAddIn\ChartEnvSetupDlgAddIn\ChartEnvSetupDlgAddIn\TabMainChartEnvSetUp.cpp

; 506  : 	rcOk.left = rcOk.left + nMove;

  00197	8b 75 ec	 mov	 esi, DWORD PTR _rcOk$[ebp]
; File C:\Program Files (x86)\Microsoft Visual Studio\2019\Community\VC\Tools\MSVC\14.29.30133\atlmfc\include\afxwin2.inl

; 73   : 	{ MoveWindow(lpRect->left, lpRect->top, lpRect->right - lpRect->left,

  0019a	2b c1		 sub	 eax, ecx
; File D:\git\src\IBK\IBK_DRFN\ProjSrc\SrcChartEx\ChartAddIn\ChartEnvSetupDlgAddIn\ChartEnvSetupDlgAddIn\TabMainChartEnvSetUp.cpp

; 507  : 	rcOk.right = rcOk.right + nMove;

  0019c	8b 55 f4	 mov	 edx, DWORD PTR _rcOk$[ebp+8]
; File C:\Program Files (x86)\Microsoft Visual Studio\2019\Community\VC\Tools\MSVC\14.29.30133\atlmfc\include\afxwin2.inl

; 73   : 	{ MoveWindow(lpRect->left, lpRect->top, lpRect->right - lpRect->left,

  0019f	6a 01		 push	 1
  001a1	50		 push	 eax
; File D:\git\src\IBK\IBK_DRFN\ProjSrc\SrcChartEx\ChartAddIn\ChartEnvSetupDlgAddIn\ChartEnvSetupDlgAddIn\TabMainChartEnvSetUp.cpp

; 507  : 	rcOk.right = rcOk.right + nMove;

  001a2	89 55 f4	 mov	 DWORD PTR _rcOk$[ebp+8], edx
; File C:\Program Files (x86)\Microsoft Visual Studio\2019\Community\VC\Tools\MSVC\14.29.30133\atlmfc\include\afxwin2.inl

; 73   : 	{ MoveWindow(lpRect->left, lpRect->top, lpRect->right - lpRect->left,

  001a5	2b d6		 sub	 edx, esi
  001a7	52		 push	 edx
  001a8	51		 push	 ecx
  001a9	56		 push	 esi
  001aa	8b cf		 mov	 ecx, edi
; File D:\git\src\IBK\IBK_DRFN\ProjSrc\SrcChartEx\ChartAddIn\ChartEnvSetupDlgAddIn\ChartEnvSetupDlgAddIn\TabMainChartEnvSetUp.cpp

; 506  : 	rcOk.left = rcOk.left + nMove;

  001ac	89 75 ec	 mov	 DWORD PTR _rcOk$[ebp], esi
; File C:\Program Files (x86)\Microsoft Visual Studio\2019\Community\VC\Tools\MSVC\14.29.30133\atlmfc\include\afxwin2.inl

; 73   : 	{ MoveWindow(lpRect->left, lpRect->top, lpRect->right - lpRect->left,

  001af	e8 00 00 00 00	 call	 ?MoveWindow@CWnd@@QAEXHHHHH@Z ; CWnd::MoveWindow
  001b4	8b 45 b8	 mov	 eax, DWORD PTR _rcCancel$[ebp+12]
  001b7	8b 55 b0	 mov	 edx, DWORD PTR _rcCancel$[ebp+4]
  001ba	2b c2		 sub	 eax, edx
  001bc	8b 4d ac	 mov	 ecx, DWORD PTR _rcCancel$[ebp]
  001bf	6a 01		 push	 1
  001c1	50		 push	 eax
  001c2	8b 45 b4	 mov	 eax, DWORD PTR _rcCancel$[ebp+8]
  001c5	2b c1		 sub	 eax, ecx
  001c7	50		 push	 eax
  001c8	52		 push	 edx
  001c9	51		 push	 ecx
  001ca	8b cb		 mov	 ecx, ebx
  001cc	e8 00 00 00 00	 call	 ?MoveWindow@CWnd@@QAEXHHHHH@Z ; CWnd::MoveWindow
  001d1	8b 45 a8	 mov	 eax, DWORD PTR _rcPrev$[ebp+12]
  001d4	8b 55 a0	 mov	 edx, DWORD PTR _rcPrev$[ebp+4]
  001d7	2b c2		 sub	 eax, edx
  001d9	8b 4d 9c	 mov	 ecx, DWORD PTR _rcPrev$[ebp]
  001dc	6a 01		 push	 1
  001de	50		 push	 eax
  001df	8b 45 a4	 mov	 eax, DWORD PTR _rcPrev$[ebp+8]
  001e2	2b c1		 sub	 eax, ecx
  001e4	50		 push	 eax
  001e5	52		 push	 edx
  001e6	51		 push	 ecx
  001e7	8b 4d 94	 mov	 ecx, DWORD PTR _pBtnPrev$1$[ebp]
  001ea	e8 00 00 00 00	 call	 ?MoveWindow@CWnd@@QAEXHHHHH@Z ; CWnd::MoveWindow
; File D:\git\src\IBK\IBK_DRFN\ProjSrc\SrcChartEx\ChartAddIn\ChartEnvSetupDlgAddIn\ChartEnvSetupDlgAddIn\TabMainChartEnvSetUp.cpp

; 515  : }

  001ef	8b 4d fc	 mov	 ecx, DWORD PTR __$ArrayPad$[ebp]
; File C:\Program Files (x86)\Microsoft Visual Studio\2019\Community\VC\Tools\MSVC\14.29.30133\atlmfc\include\afxwin2.inl

; 73   : 	{ MoveWindow(lpRect->left, lpRect->top, lpRect->right - lpRect->left,

  001f2	5f		 pop	 edi
  001f3	5e		 pop	 esi
; File D:\git\src\IBK\IBK_DRFN\ProjSrc\SrcChartEx\ChartAddIn\ChartEnvSetupDlgAddIn\ChartEnvSetupDlgAddIn\TabMainChartEnvSetUp.cpp

; 515  : }

  001f4	33 cd		 xor	 ecx, ebp
; File C:\Program Files (x86)\Microsoft Visual Studio\2019\Community\VC\Tools\MSVC\14.29.30133\atlmfc\include\afxwin2.inl

; 73   : 	{ MoveWindow(lpRect->left, lpRect->top, lpRect->right - lpRect->left,

  001f6	5b		 pop	 ebx
; File D:\git\src\IBK\IBK_DRFN\ProjSrc\SrcChartEx\ChartAddIn\ChartEnvSetupDlgAddIn\ChartEnvSetupDlgAddIn\TabMainChartEnvSetUp.cpp

; 515  : }

  001f7	e8 00 00 00 00	 call	 @__security_check_cookie@4
  001fc	8b e5		 mov	 esp, ebp
  001fe	5d		 pop	 ebp
  001ff	c2 04 00	 ret	 4
?TabPageMoveWindow@CTabMainChartEnvSetUp@@QAEXH@Z ENDP	; CTabMainChartEnvSetUp::TabPageMoveWindow
_TEXT	ENDS
; Function compile flags: /Ogtp
; File D:\git\src\IBK\IBK_DRFN\ProjSrc\SrcChartEx\ChartAddIn\ChartEnvSetupDlgAddIn\ChartEnvSetupDlgAddIn\TabMainChartEnvSetUp.cpp
;	COMDAT ?GetMessageMap@CTabMainChartEnvSetUp@@MBEPBUAFX_MSGMAP@@XZ
_TEXT	SEGMENT
?GetMessageMap@CTabMainChartEnvSetUp@@MBEPBUAFX_MSGMAP@@XZ PROC ; CTabMainChartEnvSetUp::GetMessageMap, COMDAT
; _this$ = ecx

; 67   : BEGIN_MESSAGE_MAP(CTabMainChartEnvSetUp, CTabCtrl)

  00000	b8 00 00 00 00	 mov	 eax, OFFSET ?messageMap@?1??GetThisMessageMap@CTabMainChartEnvSetUp@@KGPBUAFX_MSGMAP@@XZ@4U3@B
  00005	c3		 ret	 0
?GetMessageMap@CTabMainChartEnvSetUp@@MBEPBUAFX_MSGMAP@@XZ ENDP ; CTabMainChartEnvSetUp::GetMessageMap
_TEXT	ENDS
; Function compile flags: /Ogtp
; File D:\git\src\IBK\IBK_DRFN\ProjSrc\SrcChartEx\ChartAddIn\ChartEnvSetupDlgAddIn\ChartEnvSetupDlgAddIn\TabMainChartEnvSetUp.cpp
;	COMDAT ?GetThisMessageMap@CTabMainChartEnvSetUp@@KGPBUAFX_MSGMAP@@XZ
_TEXT	SEGMENT
?GetThisMessageMap@CTabMainChartEnvSetUp@@KGPBUAFX_MSGMAP@@XZ PROC ; CTabMainChartEnvSetUp::GetThisMessageMap, COMDAT

; 68   : 	//{{AFX_MSG_MAP(CTabMainChartEnvSetUp)
; 69   : 	ON_NOTIFY_REFLECT(TCN_SELCHANGE, OnSelchange)
; 70   : 	//}}AFX_MSG_MAP
; 71   : END_MESSAGE_MAP()

  00000	b8 00 00 00 00	 mov	 eax, OFFSET ?messageMap@?1??GetThisMessageMap@CTabMainChartEnvSetUp@@KGPBUAFX_MSGMAP@@XZ@4U3@B
  00005	c3		 ret	 0
?GetThisMessageMap@CTabMainChartEnvSetUp@@KGPBUAFX_MSGMAP@@XZ ENDP ; CTabMainChartEnvSetUp::GetThisMessageMap
_TEXT	ENDS
; Function compile flags: /Ogtp
; File D:\git\src\IBK\IBK_DRFN\ProjSrc\SrcChartEx\ChartAddIn\ChartEnvSetupDlgAddIn\ChartEnvSetupDlgAddIn\TabMainChartEnvSetUp.cpp
; File C:\Program Files (x86)\Microsoft Visual Studio\2019\Community\VC\Tools\MSVC\14.29.30133\atlmfc\include\afxcmn.inl
; File D:\git\src\IBK\IBK_DRFN\ProjSrc\SrcChartEx\ChartAddIn\ChartEnvSetupDlgAddIn\ChartEnvSetupDlgAddIn\TabMainChartEnvSetUp.cpp
; File C:\Program Files (x86)\Microsoft Visual Studio\2019\Community\VC\Tools\MSVC\14.29.30133\atlmfc\include\afxcmn.inl
; File D:\git\src\IBK\IBK_DRFN\ProjSrc\SrcChartEx\ChartAddIn\ChartEnvSetupDlgAddIn\ChartEnvSetupDlgAddIn\TabMainChartEnvSetUp.cpp
; File C:\Program Files (x86)\Microsoft Visual Studio\2019\Community\VC\Tools\MSVC\14.29.30133\atlmfc\include\afxcmn.inl
; File D:\git\src\IBK\IBK_DRFN\ProjSrc\SrcChartEx\ChartAddIn\ChartEnvSetupDlgAddIn\ChartEnvSetupDlgAddIn\TabMainChartEnvSetUp.cpp
; File C:\Program Files (x86)\Microsoft Visual Studio\2019\Community\VC\Tools\MSVC\14.29.30133\atlmfc\include\afxtempl.h
; File D:\git\src\IBK\IBK_DRFN\ProjSrc\SrcChartEx\ChartAddIn\ChartEnvSetupDlgAddIn\ChartEnvSetupDlgAddIn\TabMainChartEnvSetUp.cpp
; File C:\Program Files (x86)\Microsoft Visual Studio\2019\Community\VC\Tools\MSVC\14.29.30133\atlmfc\include\afxtempl.h
; File D:\git\src\IBK\IBK_DRFN\ProjSrc\SrcChartEx\ChartAddIn\ChartEnvSetupDlgAddIn\ChartEnvSetupDlgAddIn\TabMainChartEnvSetUp.cpp
; File C:\Program Files (x86)\Microsoft Visual Studio\2019\Community\VC\Tools\MSVC\14.29.30133\atlmfc\include\afxtempl.h
; File D:\git\src\IBK\IBK_DRFN\ProjSrc\SrcChartEx\ChartAddIn\ChartEnvSetupDlgAddIn\ChartEnvSetupDlgAddIn\TabMainChartEnvSetUp.cpp
;	COMDAT ?OnSelchange@CTabMainChartEnvSetUp@@IAEXPAUtagNMHDR@@PAJ@Z
_TEXT	SEGMENT
_pPrevTabDlg$1$ = -4					; size = 4
_pNMHDR$ = 8						; size = 4
_pCurTabDlg$1$ = 12					; size = 4
_pResult$ = 12						; size = 4
?OnSelchange@CTabMainChartEnvSetUp@@IAEXPAUtagNMHDR@@PAJ@Z PROC ; CTabMainChartEnvSetUp::OnSelchange, COMDAT
; _this$ = ecx

; 356  : {

  00000	55		 push	 ebp
  00001	8b ec		 mov	 ebp, esp
  00003	51		 push	 ecx
  00004	56		 push	 esi
  00005	57		 push	 edi
; File C:\Program Files (x86)\Microsoft Visual Studio\2019\Community\VC\Tools\MSVC\14.29.30133\atlmfc\include\afxcmn.inl

; 586  : 	{ ASSERT(::IsWindow(m_hWnd)); return (int)::SendMessage(m_hWnd, TCM_GETCURSEL, 0, 0L); }

  00006	6a 00		 push	 0
; File D:\git\src\IBK\IBK_DRFN\ProjSrc\SrcChartEx\ChartAddIn\ChartEnvSetupDlgAddIn\ChartEnvSetupDlgAddIn\TabMainChartEnvSetUp.cpp

; 356  : {

  00008	8b f1		 mov	 esi, ecx
; File C:\Program Files (x86)\Microsoft Visual Studio\2019\Community\VC\Tools\MSVC\14.29.30133\atlmfc\include\afxcmn.inl

; 586  : 	{ ASSERT(::IsWindow(m_hWnd)); return (int)::SendMessage(m_hWnd, TCM_GETCURSEL, 0, 0L); }

  0000a	6a 00		 push	 0
  0000c	68 0b 13 00 00	 push	 4875			; 0000130bH
  00011	ff 76 20	 push	 DWORD PTR [esi+32]
; File D:\git\src\IBK\IBK_DRFN\ProjSrc\SrcChartEx\ChartAddIn\ChartEnvSetupDlgAddIn\ChartEnvSetupDlgAddIn\TabMainChartEnvSetUp.cpp

; 357  : 	int nPrevTabPageIndex = m_nCurTabPage;

  00014	8b be 84 00 00
	00		 mov	 edi, DWORD PTR [esi+132]
; File C:\Program Files (x86)\Microsoft Visual Studio\2019\Community\VC\Tools\MSVC\14.29.30133\atlmfc\include\afxcmn.inl

; 586  : 	{ ASSERT(::IsWindow(m_hWnd)); return (int)::SendMessage(m_hWnd, TCM_GETCURSEL, 0, 0L); }

  0001a	ff 15 00 00 00
	00		 call	 DWORD PTR __imp__SendMessageA@16
; File D:\git\src\IBK\IBK_DRFN\ProjSrc\SrcChartEx\ChartAddIn\ChartEnvSetupDlgAddIn\ChartEnvSetupDlgAddIn\TabMainChartEnvSetUp.cpp

; 358  : 	m_nCurTabPage = GetCurSel();

  00020	89 86 84 00 00
	00		 mov	 DWORD PTR [esi+132], eax

; 359  : 	*pResult = 0;

  00026	8b 45 0c	 mov	 eax, DWORD PTR _pResult$[ebp]
  00029	c7 00 00 00 00
	00		 mov	 DWORD PTR [eax], 0

; 360  : 
; 361  : 	if(nPrevTabPageIndex == m_nCurTabPage)

  0002f	8b 86 84 00 00
	00		 mov	 eax, DWORD PTR [esi+132]
  00035	3b f8		 cmp	 edi, eax
  00037	0f 84 c4 00 00
	00		 je	 $LN53@OnSelchang

; 362  : 		return;
; 363  : 
; 364  : 	CBaseTabDlg* pPrevTabDlg = m_aTabPages[nPrevTabPageIndex];

  0003d	53		 push	 ebx
  0003e	8b 9c be a8 00
	00 00		 mov	 ebx, DWORD PTR [esi+edi*4+168]
  00045	89 5d fc	 mov	 DWORD PTR _pPrevTabDlg$1$[ebp], ebx

; 366  : 	if(pPrevTabDlg == NULL || pCurTabDlg == NULL)

  00048	85 db		 test	 ebx, ebx
  0004a	0f 84 b0 00 00
	00		 je	 $LN54@OnSelchang

; 365  : 	CBaseTabDlg* pCurTabDlg = m_aTabPages[m_nCurTabPage];

  00050	8b 8c 86 a8 00
	00 00		 mov	 ecx, DWORD PTR [esi+eax*4+168]
  00057	89 4d 0c	 mov	 DWORD PTR _pCurTabDlg$1$[ebp], ecx

; 366  : 	if(pPrevTabDlg == NULL || pCurTabDlg == NULL)

  0005a	85 c9		 test	 ecx, ecx
  0005c	0f 84 9e 00 00
	00		 je	 $LN54@OnSelchang

; 367  : 		return;
; 368  : 
; 369  : 	if( nPrevTabPageIndex == 0 && m_nCurTabPage != 0 )

  00062	85 ff		 test	 edi, edi
  00064	75 07		 jne	 SHORT $LN50@OnSelchang
  00066	85 c0		 test	 eax, eax
  00068	74 10		 je	 SHORT $LN7@OnSelchang

; 370  : 		TabPageMoveWindow(FALSE);

  0006a	57		 push	 edi
  0006b	eb 06		 jmp	 SHORT $LN56@OnSelchang
$LN50@OnSelchang:

; 371  : 	else if( nPrevTabPageIndex != 0 && m_nCurTabPage == 0 )

  0006d	85 c0		 test	 eax, eax
  0006f	75 09		 jne	 SHORT $LN7@OnSelchang

; 372  : 		TabPageMoveWindow(TRUE);

  00071	6a 01		 push	 1
$LN56@OnSelchang:

; 375  : 	POSITION pos = m_lstTabActiveOrder.Find( m_nCurTabPage );

  00073	8b ce		 mov	 ecx, esi
  00075	e8 00 00 00 00	 call	 ?TabPageMoveWindow@CTabMainChartEnvSetUp@@QAEXH@Z ; CTabMainChartEnvSetUp::TabPageMoveWindow
$LN7@OnSelchang:
; File C:\Program Files (x86)\Microsoft Visual Studio\2019\Community\VC\Tools\MSVC\14.29.30133\atlmfc\include\afxtempl.h

; 1153 : 		pNode = m_pNodeHead;  // start at head

  0007a	8b 86 8c 00 00
	00		 mov	 eax, DWORD PTR [esi+140]
; File D:\git\src\IBK\IBK_DRFN\ProjSrc\SrcChartEx\ChartAddIn\ChartEnvSetupDlgAddIn\ChartEnvSetupDlgAddIn\TabMainChartEnvSetUp.cpp

; 375  : 	POSITION pos = m_lstTabActiveOrder.Find( m_nCurTabPage );

  00080	8b 96 84 00 00
	00		 mov	 edx, DWORD PTR [esi+132]
; File C:\Program Files (x86)\Microsoft Visual Studio\2019\Community\VC\Tools\MSVC\14.29.30133\atlmfc\include\afxtempl.h

; 1161 : 	for (; pNode != NULL; pNode = pNode->pNext)

  00086	85 c0		 test	 eax, eax
  00088	74 1b		 je	 SHORT $LN47@OnSelchang
  0008a	66 0f 1f 44 00
	00		 npad	 6
$LL15@OnSelchang:

; 1162 : 		if (CompareElements<TYPE>(&pNode->data, &searchValue))

  00090	8d 48 08	 lea	 ecx, DWORD PTR [eax+8]

; 152  : 	ENSURE(pElement1 != NULL && pElement2 != NULL);

  00093	85 c9		 test	 ecx, ecx
  00095	0f 84 82 00 00
	00		 je	 $LN40@OnSelchang

; 153  : 	ASSERT(AfxIsValidAddress(pElement1, sizeof(TYPE), FALSE));
; 154  : 	ASSERT(AfxIsValidAddress(pElement2, sizeof(ARG_TYPE), FALSE));
; 155  : 
; 156  : 	return *pElement1 == *pElement2;

  0009b	39 11		 cmp	 DWORD PTR [ecx], edx

; 1162 : 		if (CompareElements<TYPE>(&pNode->data, &searchValue))

  0009d	74 6a		 je	 SHORT $LN12@OnSelchang

; 1161 : 	for (; pNode != NULL; pNode = pNode->pNext)

  0009f	8b 00		 mov	 eax, DWORD PTR [eax]
  000a1	85 c0		 test	 eax, eax
  000a3	75 eb		 jne	 SHORT $LL15@OnSelchang
$LN47@OnSelchang:
; File D:\git\src\IBK\IBK_DRFN\ProjSrc\SrcChartEx\ChartAddIn\ChartEnvSetupDlgAddIn\ChartEnvSetupDlgAddIn\TabMainChartEnvSetUp.cpp

; 377  : 		m_lstTabActiveOrder.RemoveAt(pos);

  000a5	8d be 88 00 00
	00		 lea	 edi, DWORD PTR [esi+136]
$LN8@OnSelchang:

; 378  : 
; 379  : 	m_lstTabActiveOrder.AddTail(m_nCurTabPage);

  000ab	ff b6 84 00 00
	00		 push	 DWORD PTR [esi+132]
  000b1	8b cf		 mov	 ecx, edi
  000b3	e8 00 00 00 00	 call	 ?AddTail@?$CList@HH@@QAEPAU__POSITION@@H@Z ; CList<int,int>::AddTail

; 380  : 
; 381  : 	// tab 
; 382  : 	pPrevTabDlg->ShowWindow(SW_HIDE);

  000b8	6a 00		 push	 0
  000ba	8b cb		 mov	 ecx, ebx
  000bc	e8 00 00 00 00	 call	 ?ShowWindow@CWnd@@QAEHH@Z ; CWnd::ShowWindow

; 383  : 	pCurTabDlg->ShowWindow(SW_SHOW);

  000c1	8b 4d 0c	 mov	 ecx, DWORD PTR _pCurTabDlg$1$[ebp]
  000c4	6a 05		 push	 5
  000c6	e8 00 00 00 00	 call	 ?ShowWindow@CWnd@@QAEHH@Z ; CWnd::ShowWindow

; 384  : 	pCurTabDlg->SetFocus();

  000cb	8b 4d 0c	 mov	 ecx, DWORD PTR _pCurTabDlg$1$[ebp]
  000ce	e8 00 00 00 00	 call	 ?SetFocus@CWnd@@QAEPAV1@XZ ; CWnd::SetFocus

; 398  : 	for(int nIndex = 0; nIndex < m_nTotalTabPages; nIndex++)

  000d3	33 db		 xor	 ebx, ebx
  000d5	39 9e 80 00 00
	00		 cmp	 DWORD PTR [esi+128], ebx
  000db	7e 23		 jle	 SHORT $LN54@OnSelchang

; 378  : 
; 379  : 	m_lstTabActiveOrder.AddTail(m_nCurTabPage);

  000dd	8d be a8 00 00
	00		 lea	 edi, DWORD PTR [esi+168]
$LL33@OnSelchang:

; 400  : 		CBaseTabDlg* pTabDlg = m_aTabPages[nIndex];

  000e3	8b 0f		 mov	 ecx, DWORD PTR [edi]

; 401  : 		if(pTabDlg == NULL)

  000e5	85 c9		 test	 ecx, ecx
  000e7	74 17		 je	 SHORT $LN54@OnSelchang

; 402  : 			break;
; 403  : 
; 404  : 		if(pTabDlg->ChangeTabPage(pSourceTabDlg))

  000e9	8b 01		 mov	 eax, DWORD PTR [ecx]
  000eb	ff 75 fc	 push	 DWORD PTR _pPrevTabDlg$1$[ebp]
  000ee	ff 90 94 01 00
	00		 call	 DWORD PTR [eax+404]
  000f4	43		 inc	 ebx
  000f5	83 c7 04	 add	 edi, 4
  000f8	3b 9e 80 00 00
	00		 cmp	 ebx, DWORD PTR [esi+128]
  000fe	7c e3		 jl	 SHORT $LL33@OnSelchang
$LN54@OnSelchang:
  00100	5b		 pop	 ebx
$LN53@OnSelchang:
  00101	5f		 pop	 edi

; 388  : }

  00102	5e		 pop	 esi
  00103	8b e5		 mov	 esp, ebp
  00105	5d		 pop	 ebp
  00106	c2 08 00	 ret	 8
$LN12@OnSelchang:

; 376  : 	if( pos != NULL	)

  00109	85 c0		 test	 eax, eax
  0010b	74 98		 je	 SHORT $LN47@OnSelchang

; 377  : 		m_lstTabActiveOrder.RemoveAt(pos);

  0010d	8d be 88 00 00
	00		 lea	 edi, DWORD PTR [esi+136]
  00113	50		 push	 eax
  00114	8b cf		 mov	 ecx, edi
  00116	e8 00 00 00 00	 call	 ?RemoveAt@?$CList@HH@@QAEXPAU__POSITION@@@Z ; CList<int,int>::RemoveAt
  0011b	eb 8e		 jmp	 SHORT $LN8@OnSelchang
$LN40@OnSelchang:
; File C:\Program Files (x86)\Microsoft Visual Studio\2019\Community\VC\Tools\MSVC\14.29.30133\atlmfc\include\afxtempl.h

; 152  : 	ENSURE(pElement1 != NULL && pElement2 != NULL);

  0011d	e8 00 00 00 00	 call	 ?AfxThrowInvalidArgException@@YGXXZ ; AfxThrowInvalidArgException
$LN55@OnSelchang:
  00122	cc		 int	 3
?OnSelchange@CTabMainChartEnvSetUp@@IAEXPAUtagNMHDR@@PAJ@Z ENDP ; CTabMainChartEnvSetUp::OnSelchange
_TEXT	ENDS
; Function compile flags: /Ogtp
; File D:\git\src\IBK\IBK_DRFN\ProjSrc\SrcChartEx\ChartAddIn\ChartEnvSetupDlgAddIn\ChartEnvSetupDlgAddIn\TabMainChartEnvSetUp.cpp
;	COMDAT ?ChangeDataInTab@CTabMainChartEnvSetUp@@AAE_NPAVCBaseTabDlg@@@Z
_TEXT	SEGMENT
_this$1$ = -4						; size = 4
_pSourceTabDlg$ = 8					; size = 4
?ChangeDataInTab@CTabMainChartEnvSetUp@@AAE_NPAVCBaseTabDlg@@@Z PROC ; CTabMainChartEnvSetUp::ChangeDataInTab, COMDAT
; _this$ = ecx

; 392  : {

  00000	55		 push	 ebp
  00001	8b ec		 mov	 ebp, esp
  00003	51		 push	 ecx

; 393  : 	if(pSourceTabDlg == NULL)

  00004	8b 55 08	 mov	 edx, DWORD PTR _pSourceTabDlg$[ebp]
  00007	8b c1		 mov	 eax, ecx
  00009	89 45 fc	 mov	 DWORD PTR _this$1$[ebp], eax
  0000c	85 d2		 test	 edx, edx
  0000e	75 08		 jne	 SHORT $LN5@ChangeData

; 394  : 		return false;

  00010	32 c0		 xor	 al, al

; 409  : }

  00012	8b e5		 mov	 esp, ebp
  00014	5d		 pop	 ebp
  00015	c2 04 00	 ret	 4
$LN5@ChangeData:
  00018	53		 push	 ebx
  00019	57		 push	 edi

; 397  : 
; 398  : 	for(int nIndex = 0; nIndex < m_nTotalTabPages; nIndex++)

  0001a	33 ff		 xor	 edi, edi
  0001c	32 db		 xor	 bl, bl
  0001e	39 b8 80 00 00
	00		 cmp	 DWORD PTR [eax+128], edi
  00024	7e 3b		 jle	 SHORT $LN14@ChangeData

; 395  : 
; 396  : 	bool bResult = false;

  00026	56		 push	 esi
  00027	8d b0 a8 00 00
	00		 lea	 esi, DWORD PTR [eax+168]
  0002d	0f 1f 00	 npad	 3
$LL4@ChangeData:

; 399  : 	{
; 400  : 		CBaseTabDlg* pTabDlg = m_aTabPages[nIndex];

  00030	8b 0e		 mov	 ecx, DWORD PTR [esi]

; 401  : 		if(pTabDlg == NULL)

  00032	85 c9		 test	 ecx, ecx
  00034	74 2a		 je	 SHORT $LN15@ChangeData

; 402  : 			break;
; 403  : 
; 404  : 		if(pTabDlg->ChangeTabPage(pSourceTabDlg))

  00036	8b 01		 mov	 eax, DWORD PTR [ecx]
  00038	52		 push	 edx
  00039	8b 80 94 01 00
	00		 mov	 eax, DWORD PTR [eax+404]
  0003f	ff d0		 call	 eax
  00041	8b 55 08	 mov	 edx, DWORD PTR _pSourceTabDlg$[ebp]
  00044	84 c0		 test	 al, al
  00046	b8 01 00 00 00	 mov	 eax, 1
  0004b	0f b6 db	 movzx	 ebx, bl
  0004e	0f 45 d8	 cmovne	 ebx, eax
  00051	8b 45 fc	 mov	 eax, DWORD PTR _this$1$[ebp]
  00054	47		 inc	 edi
  00055	83 c6 04	 add	 esi, 4
  00058	3b b8 80 00 00
	00		 cmp	 edi, DWORD PTR [eax+128]
  0005e	7c d0		 jl	 SHORT $LL4@ChangeData
$LN15@ChangeData:
  00060	5e		 pop	 esi
$LN14@ChangeData:

; 405  : 			bResult = true;
; 406  : 	}
; 407  : 
; 408  : 	return bResult;

  00061	5f		 pop	 edi
  00062	8a c3		 mov	 al, bl
  00064	5b		 pop	 ebx

; 409  : }

  00065	8b e5		 mov	 esp, ebp
  00067	5d		 pop	 ebp
  00068	c2 04 00	 ret	 4
?ChangeDataInTab@CTabMainChartEnvSetUp@@AAE_NPAVCBaseTabDlg@@@Z ENDP ; CTabMainChartEnvSetUp::ChangeDataInTab
_TEXT	ENDS
; Function compile flags: /Ogtp
; File D:\git\src\IBK\IBK_DRFN\ProjSrc\SrcChartEx\ChartAddIn\ChartEnvSetupDlgAddIn\ChartEnvSetupDlgAddIn\TabMainChartEnvSetUp.cpp
; File C:\Program Files (x86)\Microsoft Visual Studio\2019\Community\VC\Tools\MSVC\14.29.30133\atlmfc\include\afxwin2.inl
; File C:\Program Files (x86)\Microsoft Visual Studio\2019\Community\VC\Tools\MSVC\14.29.30133\atlmfc\include\atltypes.h
; File C:\Program Files (x86)\Microsoft Visual Studio\2019\Community\VC\Tools\MSVC\14.29.30133\atlmfc\include\afxwin2.inl
; File C:\Program Files (x86)\Microsoft Visual Studio\2019\Community\VC\Tools\MSVC\14.29.30133\atlmfc\include\atltypes.h
; File C:\Program Files (x86)\Microsoft Visual Studio\2019\Community\VC\Tools\MSVC\14.29.30133\atlmfc\include\afxwin2.inl
; File C:\Program Files (x86)\Microsoft Visual Studio\2019\Community\VC\Tools\MSVC\14.29.30133\atlmfc\include\afxcmn.inl
; File D:\git\src\IBK\IBK_DRFN\ProjSrc\SrcChartEx\ChartAddIn\ChartEnvSetupDlgAddIn\ChartEnvSetupDlgAddIn\TabMainChartEnvSetUp.cpp
; File C:\Program Files (x86)\Microsoft Visual Studio\2019\Community\VC\Tools\MSVC\14.29.30133\atlmfc\include\afxcmn.inl
; File D:\git\src\IBK\IBK_DRFN\ProjSrc\SrcChartEx\ChartAddIn\ChartEnvSetupDlgAddIn\ChartEnvSetupDlgAddIn\TabMainChartEnvSetUp.cpp
; File C:\Program Files (x86)\Microsoft Visual Studio\2019\Community\VC\Tools\MSVC\14.29.30133\atlmfc\include\afxtempl.h
; File D:\git\src\IBK\IBK_DRFN\ProjSrc\SrcChartEx\ChartAddIn\ChartEnvSetupDlgAddIn\ChartEnvSetupDlgAddIn\TabMainChartEnvSetUp.cpp
; File C:\Program Files (x86)\Microsoft Visual Studio\2019\Community\VC\Tools\MSVC\14.29.30133\atlmfc\include\afxtempl.h
; File D:\git\src\IBK\IBK_DRFN\ProjSrc\SrcChartEx\ChartAddIn\ChartEnvSetupDlgAddIn\ChartEnvSetupDlgAddIn\TabMainChartEnvSetUp.cpp
; File C:\Program Files (x86)\Microsoft Visual Studio\2019\Community\VC\Tools\MSVC\14.29.30133\atlmfc\include\afxtempl.h
; File D:\git\src\IBK\IBK_DRFN\ProjSrc\SrcChartEx\ChartAddIn\ChartEnvSetupDlgAddIn\ChartEnvSetupDlgAddIn\TabMainChartEnvSetUp.cpp
;	COMDAT ?SetTabPagePosition@CTabMainChartEnvSetUp@@AAEXXZ
_TEXT	SEGMENT
_nX$1$ = -56						; size = 4
_nYc$1$ = -52						; size = 4
_nXc$1$ = -48						; size = 4
tv413 = -44						; size = 4
_nY$1$ = -40						; size = 4
_tabRect$ = -36						; size = 16
_itemRect$ = -20					; size = 16
__$ArrayPad$ = -4					; size = 4
?SetTabPagePosition@CTabMainChartEnvSetUp@@AAEXXZ PROC	; CTabMainChartEnvSetUp::SetTabPagePosition, COMDAT
; _this$ = ecx

; 313  : {

  00000	55		 push	 ebp
  00001	8b ec		 mov	 ebp, esp
  00003	83 ec 38	 sub	 esp, 56			; 00000038H
  00006	a1 00 00 00 00	 mov	 eax, DWORD PTR ___security_cookie
  0000b	33 c5		 xor	 eax, ebp
  0000d	89 45 fc	 mov	 DWORD PTR __$ArrayPad$[ebp], eax
  00010	53		 push	 ebx
  00011	56		 push	 esi
  00012	8b f1		 mov	 esi, ecx
; File C:\Program Files (x86)\Microsoft Visual Studio\2019\Community\VC\Tools\MSVC\14.29.30133\atlmfc\include\afxwin2.inl

; 86   : 	{ ASSERT(::IsWindow(m_hWnd)); ::GetClientRect(m_hWnd, lpRect); }

  00014	8d 45 dc	 lea	 eax, DWORD PTR _tabRect$[ebp]
  00017	50		 push	 eax
  00018	0f 57 c0	 xorps	 xmm0, xmm0
; File C:\Program Files (x86)\Microsoft Visual Studio\2019\Community\VC\Tools\MSVC\14.29.30133\atlmfc\include\atltypes.h

; 528  : 	left = 0;

  0001b	0f 11 45 dc	 movups	 XMMWORD PTR _tabRect$[ebp], xmm0
; File C:\Program Files (x86)\Microsoft Visual Studio\2019\Community\VC\Tools\MSVC\14.29.30133\atlmfc\include\afxwin2.inl

; 86   : 	{ ASSERT(::IsWindow(m_hWnd)); ::GetClientRect(m_hWnd, lpRect); }

  0001f	ff 76 20	 push	 DWORD PTR [esi+32]
; File C:\Program Files (x86)\Microsoft Visual Studio\2019\Community\VC\Tools\MSVC\14.29.30133\atlmfc\include\atltypes.h

; 528  : 	left = 0;

  00022	0f 11 45 ec	 movups	 XMMWORD PTR _itemRect$[ebp], xmm0
; File C:\Program Files (x86)\Microsoft Visual Studio\2019\Community\VC\Tools\MSVC\14.29.30133\atlmfc\include\afxwin2.inl

; 86   : 	{ ASSERT(::IsWindow(m_hWnd)); ::GetClientRect(m_hWnd, lpRect); }

  00026	ff 15 00 00 00
	00		 call	 DWORD PTR __imp__GetClientRect@8
; File C:\Program Files (x86)\Microsoft Visual Studio\2019\Community\VC\Tools\MSVC\14.29.30133\atlmfc\include\afxcmn.inl

; 584  : 	{ ASSERT(::IsWindow(m_hWnd)); return (BOOL)::SendMessage(m_hWnd, TCM_GETITEMRECT, nItem, (LPARAM)lpRect); }

  0002c	8d 45 ec	 lea	 eax, DWORD PTR _itemRect$[ebp]
  0002f	50		 push	 eax
  00030	6a 00		 push	 0
  00032	68 0a 13 00 00	 push	 4874			; 0000130aH
  00037	ff 76 20	 push	 DWORD PTR [esi+32]
  0003a	ff 15 00 00 00
	00		 call	 DWORD PTR __imp__SendMessageA@16
; File D:\git\src\IBK\IBK_DRFN\ProjSrc\SrcChartEx\ChartAddIn\ChartEnvSetupDlgAddIn\ChartEnvSetupDlgAddIn\TabMainChartEnvSetUp.cpp

; 322  : 	nY = itemRect.bottom + 1;

  00040	8b 5d f8	 mov	 ebx, DWORD PTR _itemRect$[ebp+12]
  00043	8b 55 ec	 mov	 edx, DWORD PTR _itemRect$[ebp]
  00046	43		 inc	 ebx

; 323  : 	nXc = tabRect.right - itemRect.left - 1;

  00047	8b 45 e4	 mov	 eax, DWORD PTR _tabRect$[ebp+8]

; 324  : 	nYc = tabRect.bottom - nY - 1;

  0004a	8b 4d e8	 mov	 ecx, DWORD PTR _tabRect$[ebp+12]
  0004d	2b c2		 sub	 eax, edx
  0004f	2b cb		 sub	 ecx, ebx
  00051	89 5d d8	 mov	 DWORD PTR _nY$1$[ebp], ebx
  00054	48		 dec	 eax
  00055	89 55 c8	 mov	 DWORD PTR _nX$1$[ebp], edx
  00058	49		 dec	 ecx
  00059	89 45 d0	 mov	 DWORD PTR _nXc$1$[ebp], eax

; 325  : 
; 326  : 	for( int nCount = 0 ; nCount < m_nTotalTabPages ; nCount++ )

  0005c	33 db		 xor	 ebx, ebx
  0005e	89 4d cc	 mov	 DWORD PTR _nYc$1$[ebp], ecx
  00061	39 9e 80 00 00
	00		 cmp	 DWORD PTR [esi+128], ebx
  00067	0f 8e c7 00 00
	00		 jle	 $LN3@SetTabPage

; 313  : {

  0006d	57		 push	 edi
  0006e	bf a8 00 00 00	 mov	 edi, 168		; 000000a8H
  00073	89 7d d4	 mov	 DWORD PTR tv413[ebp], edi
$LL4@SetTabPage:

; 327  : 	{
; 328  : 		if( nCount == m_nCurTabPage )

  00076	3b 9e 84 00 00
	00		 cmp	 ebx, DWORD PTR [esi+132]
  0007c	75 7f		 jne	 SHORT $LN5@SetTabPage
; File C:\Program Files (x86)\Microsoft Visual Studio\2019\Community\VC\Tools\MSVC\14.29.30133\atlmfc\include\afxcmn.inl

; 588  : 	{ ASSERT(::IsWindow(m_hWnd)); return (int)::SendMessage(m_hWnd, TCM_SETCURSEL, nItem, 0L); }

  0007e	6a 00		 push	 0
  00080	53		 push	 ebx
  00081	68 0c 13 00 00	 push	 4876			; 0000130cH
  00086	ff 76 20	 push	 DWORD PTR [esi+32]
  00089	ff 15 00 00 00
	00		 call	 DWORD PTR __imp__SendMessageA@16
; File D:\git\src\IBK\IBK_DRFN\ProjSrc\SrcChartEx\ChartAddIn\ChartEnvSetupDlgAddIn\ChartEnvSetupDlgAddIn\TabMainChartEnvSetUp.cpp

; 331  : 			m_aTabPages[nCount]->SetWindowPos( &wndTop, nX, nY, nXc, nYc, SWP_SHOWWINDOW );

  0008f	8b 0c 37	 mov	 ecx, DWORD PTR [edi+esi]
  00092	6a 40		 push	 64			; 00000040H
  00094	ff 75 cc	 push	 DWORD PTR _nYc$1$[ebp]
  00097	ff 75 d0	 push	 DWORD PTR _nXc$1$[ebp]
  0009a	ff 75 d8	 push	 DWORD PTR _nY$1$[ebp]
  0009d	ff 75 c8	 push	 DWORD PTR _nX$1$[ebp]
  000a0	ff 35 00 00 00
	00		 push	 DWORD PTR __imp_?wndTop@CWnd@@2V1@B
  000a6	e8 00 00 00 00	 call	 ?SetWindowPos@CWnd@@QAEHPBV1@HHHHI@Z ; CWnd::SetWindowPos
; File C:\Program Files (x86)\Microsoft Visual Studio\2019\Community\VC\Tools\MSVC\14.29.30133\atlmfc\include\afxtempl.h

; 1153 : 		pNode = m_pNodeHead;  // start at head

  000ab	8b 86 8c 00 00
	00		 mov	 eax, DWORD PTR [esi+140]
; File D:\git\src\IBK\IBK_DRFN\ProjSrc\SrcChartEx\ChartAddIn\ChartEnvSetupDlgAddIn\ChartEnvSetupDlgAddIn\TabMainChartEnvSetUp.cpp

; 334  : 			POSITION pos = m_lstTabActiveOrder.Find( m_nCurTabPage );

  000b1	8b 96 84 00 00
	00		 mov	 edx, DWORD PTR [esi+132]
; File C:\Program Files (x86)\Microsoft Visual Studio\2019\Community\VC\Tools\MSVC\14.29.30133\atlmfc\include\afxtempl.h

; 1161 : 	for (; pNode != NULL; pNode = pNode->pNext)

  000b7	85 c0		 test	 eax, eax
  000b9	74 16		 je	 SHORT $LN45@SetTabPage
  000bb	0f 1f 44 00 00	 npad	 5
$LL22@SetTabPage:

; 1162 : 		if (CompareElements<TYPE>(&pNode->data, &searchValue))

  000c0	8d 48 08	 lea	 ecx, DWORD PTR [eax+8]

; 152  : 	ENSURE(pElement1 != NULL && pElement2 != NULL);

  000c3	85 c9		 test	 ecx, ecx
  000c5	74 7d		 je	 SHORT $LN39@SetTabPage

; 153  : 	ASSERT(AfxIsValidAddress(pElement1, sizeof(TYPE), FALSE));
; 154  : 	ASSERT(AfxIsValidAddress(pElement2, sizeof(ARG_TYPE), FALSE));
; 155  : 
; 156  : 	return *pElement1 == *pElement2;

  000c7	39 11		 cmp	 DWORD PTR [ecx], edx

; 1162 : 		if (CompareElements<TYPE>(&pNode->data, &searchValue))

  000c9	74 1e		 je	 SHORT $LN19@SetTabPage

; 1161 : 	for (; pNode != NULL; pNode = pNode->pNext)

  000cb	8b 00		 mov	 eax, DWORD PTR [eax]
  000cd	85 c0		 test	 eax, eax
  000cf	75 ef		 jne	 SHORT $LL22@SetTabPage
$LN45@SetTabPage:
; File D:\git\src\IBK\IBK_DRFN\ProjSrc\SrcChartEx\ChartAddIn\ChartEnvSetupDlgAddIn\ChartEnvSetupDlgAddIn\TabMainChartEnvSetUp.cpp

; 336  : 				m_lstTabActiveOrder.RemoveAt(pos);

  000d1	8d be 88 00 00
	00		 lea	 edi, DWORD PTR [esi+136]
$LN7@SetTabPage:

; 337  : 			
; 338  : 			m_lstTabActiveOrder.AddTail(m_nCurTabPage);

  000d7	ff b6 84 00 00
	00		 push	 DWORD PTR [esi+132]
  000dd	8b cf		 mov	 ecx, edi
  000df	e8 00 00 00 00	 call	 ?AddTail@?$CList@HH@@QAEPAU__POSITION@@H@Z ; CList<int,int>::AddTail

; 339  : 		}

  000e4	8b 7d d4	 mov	 edi, DWORD PTR tv413[ebp]
  000e7	eb 2d		 jmp	 SHORT $LN2@SetTabPage
$LN19@SetTabPage:

; 335  : 			if( pos != NULL	)

  000e9	85 c0		 test	 eax, eax
  000eb	74 e4		 je	 SHORT $LN45@SetTabPage

; 336  : 				m_lstTabActiveOrder.RemoveAt(pos);

  000ed	8d be 88 00 00
	00		 lea	 edi, DWORD PTR [esi+136]
  000f3	50		 push	 eax
  000f4	8b cf		 mov	 ecx, edi
  000f6	e8 00 00 00 00	 call	 ?RemoveAt@?$CList@HH@@QAEXPAU__POSITION@@@Z ; CList<int,int>::RemoveAt
  000fb	eb da		 jmp	 SHORT $LN7@SetTabPage
$LN5@SetTabPage:

; 340  : 
; 341  : 		else
; 342  : 			m_aTabPages[nCount]->SetWindowPos( &wndTop, nX, nY, nXc, nYc, SWP_HIDEWINDOW );

  000fd	68 80 00 00 00	 push	 128			; 00000080H
  00102	51		 push	 ecx
  00103	8b 0c 37	 mov	 ecx, DWORD PTR [edi+esi]
  00106	50		 push	 eax
  00107	ff 75 d8	 push	 DWORD PTR _nY$1$[ebp]
  0010a	52		 push	 edx
  0010b	ff 35 00 00 00
	00		 push	 DWORD PTR __imp_?wndTop@CWnd@@2V1@B
  00111	e8 00 00 00 00	 call	 ?SetWindowPos@CWnd@@QAEHPBV1@HHHHI@Z ; CWnd::SetWindowPos
$LN2@SetTabPage:

; 325  : 
; 326  : 	for( int nCount = 0 ; nCount < m_nTotalTabPages ; nCount++ )

  00116	43		 inc	 ebx
  00117	83 c7 04	 add	 edi, 4
  0011a	89 7d d4	 mov	 DWORD PTR tv413[ebp], edi
  0011d	3b 9e 80 00 00
	00		 cmp	 ebx, DWORD PTR [esi+128]
  00123	7d 0e		 jge	 SHORT $LN51@SetTabPage
  00125	8b 45 d0	 mov	 eax, DWORD PTR _nXc$1$[ebp]
  00128	8b 4d cc	 mov	 ecx, DWORD PTR _nYc$1$[ebp]
  0012b	8b 55 c8	 mov	 edx, DWORD PTR _nX$1$[ebp]
  0012e	e9 43 ff ff ff	 jmp	 $LL4@SetTabPage
$LN51@SetTabPage:
  00133	5f		 pop	 edi
$LN3@SetTabPage:

; 344  : }

  00134	8b 4d fc	 mov	 ecx, DWORD PTR __$ArrayPad$[ebp]
  00137	5e		 pop	 esi
  00138	33 cd		 xor	 ecx, ebp
  0013a	5b		 pop	 ebx
  0013b	e8 00 00 00 00	 call	 @__security_check_cookie@4
  00140	8b e5		 mov	 esp, ebp
  00142	5d		 pop	 ebp
  00143	c3		 ret	 0
$LN39@SetTabPage:
; File C:\Program Files (x86)\Microsoft Visual Studio\2019\Community\VC\Tools\MSVC\14.29.30133\atlmfc\include\afxtempl.h

; 152  : 	ENSURE(pElement1 != NULL && pElement2 != NULL);

  00144	e8 00 00 00 00	 call	 ?AfxThrowInvalidArgException@@YGXXZ ; AfxThrowInvalidArgException
$LN52@SetTabPage:
  00149	cc		 int	 3
?SetTabPagePosition@CTabMainChartEnvSetUp@@AAEXXZ ENDP	; CTabMainChartEnvSetUp::SetTabPagePosition
_TEXT	ENDS
; Function compile flags: /Ogtp
; File D:\git\src\IBK\IBK_DRFN\ProjSrc\SrcChartEx\ChartAddIn\ChartEnvSetupDlgAddIn\ChartEnvSetupDlgAddIn\TabMainChartEnvSetUp.cpp
; File C:\Program Files (x86)\Microsoft Visual Studio\2019\Community\VC\Tools\MSVC\14.29.30133\atlmfc\include\afx.inl
; File D:\git\src\IBK\IBK_DRFN\ProjSrc\SrcChartEx\ChartAddIn\ChartEnvSetupDlgAddIn\ChartEnvSetupDlgAddIn\TabMainChartEnvSetUp.cpp
; File C:\Program Files (x86)\Microsoft Visual Studio\2019\Community\VC\Tools\MSVC\14.29.30133\atlmfc\include\afx.inl
; File D:\git\src\IBK\IBK_DRFN\ProjSrc\SrcChartEx\ChartAddIn\ChartEnvSetupDlgAddIn\ChartEnvSetupDlgAddIn\TabMainChartEnvSetUp.cpp
; File C:\Program Files (x86)\Microsoft Visual Studio\2019\Community\VC\Tools\MSVC\14.29.30133\atlmfc\include\afx.inl
; File D:\git\src\IBK\IBK_DRFN\ProjSrc\SrcChartEx\ChartAddIn\ChartEnvSetupDlgAddIn\ChartEnvSetupDlgAddIn\TabMainChartEnvSetUp.cpp
; File C:\Program Files (x86)\Microsoft Visual Studio\2019\Community\VC\Tools\MSVC\14.29.30133\atlmfc\include\afx.inl
; File D:\git\src\IBK\IBK_DRFN\ProjSrc\SrcChartEx\ChartAddIn\ChartEnvSetupDlgAddIn\ChartEnvSetupDlgAddIn\TabMainChartEnvSetUp.cpp
; File C:\Program Files (x86)\Microsoft Visual Studio\2019\Community\VC\Tools\MSVC\14.29.30133\atlmfc\include\afx.inl
; File D:\git\src\IBK\IBK_DRFN\ProjSrc\SrcChartEx\ChartAddIn\ChartEnvSetupDlgAddIn\ChartEnvSetupDlgAddIn\TabMainChartEnvSetUp.cpp
; File C:\Program Files (x86)\Microsoft Visual Studio\2019\Community\VC\Tools\MSVC\14.29.30133\atlmfc\include\afx.inl
; File D:\git\src\IBK\IBK_DRFN\ProjSrc\SrcChartEx\ChartAddIn\ChartEnvSetupDlgAddIn\ChartEnvSetupDlgAddIn\TabMainChartEnvSetUp.cpp
; File C:\Program Files (x86)\Microsoft Visual Studio\2019\Community\VC\Tools\MSVC\14.29.30133\atlmfc\include\afx.inl
; File D:\git\src\IBK\IBK_DRFN\ProjSrc\SrcChartEx\ChartAddIn\ChartEnvSetupDlgAddIn\ChartEnvSetupDlgAddIn\TabMainChartEnvSetUp.cpp
; File C:\Program Files (x86)\Microsoft Visual Studio\2019\Community\VC\Tools\MSVC\14.29.30133\atlmfc\include\afx.inl
; File D:\git\src\IBK\IBK_DRFN\ProjSrc\SrcChartEx\ChartAddIn\ChartEnvSetupDlgAddIn\ChartEnvSetupDlgAddIn\TabMainChartEnvSetUp.cpp
; File C:\Program Files (x86)\Microsoft Visual Studio\2019\Community\VC\Tools\MSVC\14.29.30133\atlmfc\include\afx.inl
; File D:\git\src\IBK\IBK_DRFN\ProjSrc\SrcChartEx\ChartAddIn\ChartEnvSetupDlgAddIn\ChartEnvSetupDlgAddIn\TabMainChartEnvSetUp.cpp
; File C:\Program Files (x86)\Microsoft Visual Studio\2019\Community\VC\Tools\MSVC\14.29.30133\atlmfc\include\afx.inl
; File D:\git\src\IBK\IBK_DRFN\ProjSrc\SrcChartEx\ChartAddIn\ChartEnvSetupDlgAddIn\ChartEnvSetupDlgAddIn\TabMainChartEnvSetUp.cpp
; File C:\Program Files (x86)\Microsoft Visual Studio\2019\Community\VC\Tools\MSVC\14.29.30133\atlmfc\include\afx.inl
; File D:\git\src\IBK\IBK_DRFN\ProjSrc\SrcChartEx\ChartAddIn\ChartEnvSetupDlgAddIn\ChartEnvSetupDlgAddIn\TabMainChartEnvSetUp.cpp
;	COMDAT ?CreateTabPage@CTabMainChartEnvSetUp@@AAEHXZ
_TEXT	SEGMENT
$T2 = -16						; size = 4
$T3 = -16						; size = 4
$T4 = -16						; size = 4
$T5 = -16						; size = 4
$T6 = -16						; size = 4
$T7 = -16						; size = 4
$T8 = -16						; size = 4
$T9 = -16						; size = 4
$T10 = -16						; size = 4
$T11 = -16						; size = 4
$T12 = -16						; size = 4
__$EHRec$ = -12						; size = 12
?CreateTabPage@CTabMainChartEnvSetUp@@AAEHXZ PROC	; CTabMainChartEnvSetUp::CreateTabPage, COMDAT
; _this$ = ecx

; 198  : {

  00000	55		 push	 ebp
  00001	8b ec		 mov	 ebp, esp
  00003	6a ff		 push	 -1
  00005	68 00 00 00 00	 push	 __ehhandler$?CreateTabPage@CTabMainChartEnvSetUp@@AAEHXZ
  0000a	64 a1 00 00 00
	00		 mov	 eax, DWORD PTR fs:0
  00010	50		 push	 eax
  00011	51		 push	 ecx
  00012	56		 push	 esi
  00013	57		 push	 edi
  00014	a1 00 00 00 00	 mov	 eax, DWORD PTR ___security_cookie
  00019	33 c5		 xor	 eax, ebp
  0001b	50		 push	 eax
  0001c	8d 45 f4	 lea	 eax, DWORD PTR __$EHRec$[ebp]
  0001f	64 a3 00 00 00
	00		 mov	 DWORD PTR fs:0, eax
  00025	8b f1		 mov	 esi, ecx

; 199  : 	// 1.   TabPage  m_tabPages[]  .
; 200  : 	for( int nCount = 0 ; nCount < m_nTotalTabPages ; nCount++ )

  00027	33 c0		 xor	 eax, eax
  00029	39 86 80 00 00
	00		 cmp	 DWORD PTR [esi+128], eax
  0002f	7e 21		 jle	 SHORT $LN3@CreateTabP
  00031	8d 8e a8 00 00
	00		 lea	 ecx, DWORD PTR [esi+168]
  00037	66 0f 1f 84 00
	00 00 00 00	 npad	 9
$LL4@CreateTabP:

; 201  : 	{
; 202  : 		m_aTabPages[ nCount ] = NULL;

  00040	c7 01 00 00 00
	00		 mov	 DWORD PTR [ecx], 0
  00046	8d 49 04	 lea	 ecx, DWORD PTR [ecx+4]
  00049	40		 inc	 eax
  0004a	3b 86 80 00 00
	00		 cmp	 eax, DWORD PTR [esi+128]
  00050	7c ee		 jl	 SHORT $LL4@CreateTabP
$LN3@CreateTabP:

; 203  : 	}
; 204  : 
; 205  : 	// (2009/9/1 - Seung-Won, Bae) Show UI Dialog of current chart mode.
; 206  : 	UINT nEnvType = IDD_MAINTAB_PAGE_BASE_ENV_HTS;
; 207  : 	if( m_pIChartOCX)

  00052	8b 8e a4 00 00
	00		 mov	 ecx, DWORD PTR [esi+164]
  00058	bf 65 00 00 00	 mov	 edi, 101		; 00000065H
  0005d	85 c9		 test	 ecx, ecx
  0005f	74 2a		 je	 SHORT $LN5@CreateTabP

; 208  : 	{
; 209  : 		switch( m_pIChartOCX->GetChartMode())

  00061	8b 01		 mov	 eax, DWORD PTR [ecx]
  00063	ff 90 24 02 00
	00		 call	 DWORD PTR [eax+548]
  00069	83 e8 00	 sub	 eax, 0
  0006c	74 18		 je	 SHORT $LN10@CreateTabP
  0006e	83 e8 02	 sub	 eax, 2
  00071	74 0c		 je	 SHORT $LN11@CreateTabP
  00073	83 e8 01	 sub	 eax, 1
  00076	75 13		 jne	 SHORT $LN5@CreateTabP

; 215  : 			case CChartInfo::WORLD_ON:	nEnvType = IDD_MAINTAB_PAGE_BASE_ENV_WORLDON;

  00078	bf 4b 1f 00 00	 mov	 edi, 8011		; 00001f4bH
  0007d	eb 0c		 jmp	 SHORT $LN5@CreateTabP
$LN11@CreateTabP:

; 212  : 										break;
; 213  : 			case CChartInfo::FX:		nEnvType = IDD_MAINTAB_PAGE_BASE_ENV_FX;

  0007f	bf 4a 1f 00 00	 mov	 edi, 8010		; 00001f4aH

; 214  : 										break;

  00084	eb 05		 jmp	 SHORT $LN5@CreateTabP
$LN10@CreateTabP:

; 210  : 		{
; 211  : 			case CChartInfo::DEVELOPER:	nEnvType = IDD_MAINTAB_PAGE_BASE_ENV_DEV;

  00086	bf 49 1f 00 00	 mov	 edi, 8009		; 00001f49H
$LN5@CreateTabP:

; 216  : 										break;
; 217  : 		}
; 218  : 	}
; 219  : 
; 220  : 	// 2.  TabPage .
; 221  : 	if( m_nUIType == LOAD_SETUP_ALL )

  0008b	8b 86 bc 00 00
	00		 mov	 eax, DWORD PTR [esi+188]
  00091	85 c0		 test	 eax, eax
  00093	0f 85 ce 01 00
	00		 jne	 $LN13@CreateTabP
; File C:\Program Files (x86)\Microsoft Visual Studio\2019\Community\VC\Tools\MSVC\14.29.30133\atlmfc\include\afx.inl

; 116  : 	{ return ::operator new(nSize); }

  00099	68 00 03 00 00	 push	 768			; 00000300H
  0009e	e8 00 00 00 00	 call	 ??2@YAPAXI@Z		; operator new
  000a3	83 c4 04	 add	 esp, 4
; File D:\git\src\IBK\IBK_DRFN\ProjSrc\SrcChartEx\ChartAddIn\ChartEnvSetupDlgAddIn\ChartEnvSetupDlgAddIn\TabMainChartEnvSetUp.cpp

; 223  : 		m_aTabPages[0] = new CDlgMainTabIndicatorSetUp( m_pIChartOCX, m_pDlgEnvSetUpAll );

  000a6	89 45 f0	 mov	 DWORD PTR $T12[ebp], eax
  000a9	c7 45 fc 00 00
	00 00		 mov	 DWORD PTR __$EHRec$[ebp+8], 0
  000b0	85 c0		 test	 eax, eax
  000b2	74 15		 je	 SHORT $LN44@CreateTabP
  000b4	ff b6 b8 00 00
	00		 push	 DWORD PTR [esi+184]
  000ba	8b c8		 mov	 ecx, eax
  000bc	ff b6 a4 00 00
	00		 push	 DWORD PTR [esi+164]
  000c2	e8 00 00 00 00	 call	 ??0CDlgMainTabIndicatorSetUp@@QAE@PAUIChartOCX135914@@PAVCWnd@@@Z ; CDlgMainTabIndicatorSetUp::CDlgMainTabIndicatorSetUp
  000c7	eb 02		 jmp	 SHORT $LN45@CreateTabP
$LN44@CreateTabP:
  000c9	33 c0		 xor	 eax, eax
$LN45@CreateTabP:
  000cb	c7 45 fc ff ff
	ff ff		 mov	 DWORD PTR __$EHRec$[ebp+8], -1
  000d2	89 86 a8 00 00
	00		 mov	 DWORD PTR [esi+168], eax

; 224  : 		if( !m_aTabPages[0] )		return FALSE;	//20100420_JS.Kim  

  000d8	85 c0		 test	 eax, eax
  000da	0f 84 01 02 00
	00		 je	 $LN103@CreateTabP
; File C:\Program Files (x86)\Microsoft Visual Studio\2019\Community\VC\Tools\MSVC\14.29.30133\atlmfc\include\afx.inl

; 116  : 	{ return ::operator new(nSize); }

  000e0	68 10 0a 00 00	 push	 2576			; 00000a10H
  000e5	e8 00 00 00 00	 call	 ??2@YAPAXI@Z		; operator new
  000ea	83 c4 04	 add	 esp, 4
; File D:\git\src\IBK\IBK_DRFN\ProjSrc\SrcChartEx\ChartAddIn\ChartEnvSetupDlgAddIn\ChartEnvSetupDlgAddIn\TabMainChartEnvSetUp.cpp

; 226  : 		m_aTabPages[1] = new CDlgMainTabBaseEnvSetUp( m_pIChartOCX, m_pDlgEnvSetUpAll, m_bPriceChart);

  000ed	89 45 f0	 mov	 DWORD PTR $T11[ebp], eax
  000f0	c7 45 fc 01 00
	00 00		 mov	 DWORD PTR __$EHRec$[ebp+8], 1
  000f7	85 c0		 test	 eax, eax
  000f9	74 1b		 je	 SHORT $LN46@CreateTabP
  000fb	ff b6 c0 00 00
	00		 push	 DWORD PTR [esi+192]
  00101	8b c8		 mov	 ecx, eax
  00103	ff b6 b8 00 00
	00		 push	 DWORD PTR [esi+184]
  00109	ff b6 a4 00 00
	00		 push	 DWORD PTR [esi+164]
  0010f	e8 00 00 00 00	 call	 ??0CDlgMainTabBaseEnvSetUp@@QAE@PAUIChartOCX135914@@PAVCWnd@@H@Z ; CDlgMainTabBaseEnvSetUp::CDlgMainTabBaseEnvSetUp
  00114	eb 02		 jmp	 SHORT $LN47@CreateTabP
$LN46@CreateTabP:
  00116	33 c0		 xor	 eax, eax
$LN47@CreateTabP:
  00118	c7 45 fc ff ff
	ff ff		 mov	 DWORD PTR __$EHRec$[ebp+8], -1
  0011f	89 86 ac 00 00
	00		 mov	 DWORD PTR [esi+172], eax

; 227  : 		if( !m_aTabPages[1] )		return FALSE;	//20100420_JS.Kim  

  00125	85 c0		 test	 eax, eax
  00127	0f 84 b4 01 00
	00		 je	 $LN103@CreateTabP
; File C:\Program Files (x86)\Microsoft Visual Studio\2019\Community\VC\Tools\MSVC\14.29.30133\atlmfc\include\afx.inl

; 116  : 	{ return ::operator new(nSize); }

  0012d	68 a0 01 00 00	 push	 416			; 000001a0H
  00132	e8 00 00 00 00	 call	 ??2@YAPAXI@Z		; operator new
  00137	83 c4 04	 add	 esp, 4
; File D:\git\src\IBK\IBK_DRFN\ProjSrc\SrcChartEx\ChartAddIn\ChartEnvSetupDlgAddIn\ChartEnvSetupDlgAddIn\TabMainChartEnvSetUp.cpp

; 228  : 		m_aTabPages[2] = new CDlgMainTabAnalysisSetUp( m_pIChartOCX, m_pDlgEnvSetUpAll );

  0013a	89 45 f0	 mov	 DWORD PTR $T10[ebp], eax
  0013d	c7 45 fc 02 00
	00 00		 mov	 DWORD PTR __$EHRec$[ebp+8], 2
  00144	85 c0		 test	 eax, eax
  00146	74 15		 je	 SHORT $LN48@CreateTabP
  00148	ff b6 b8 00 00
	00		 push	 DWORD PTR [esi+184]
  0014e	8b c8		 mov	 ecx, eax
  00150	ff b6 a4 00 00
	00		 push	 DWORD PTR [esi+164]
  00156	e8 00 00 00 00	 call	 ??0CDlgMainTabAnalysisSetUp@@QAE@PAUIChartOCX135914@@PAVCWnd@@@Z ; CDlgMainTabAnalysisSetUp::CDlgMainTabAnalysisSetUp
  0015b	eb 02		 jmp	 SHORT $LN49@CreateTabP
$LN48@CreateTabP:
  0015d	33 c0		 xor	 eax, eax
$LN49@CreateTabP:
  0015f	c7 45 fc ff ff
	ff ff		 mov	 DWORD PTR __$EHRec$[ebp+8], -1
  00166	89 86 b0 00 00
	00		 mov	 DWORD PTR [esi+176], eax

; 229  : 		if( !m_aTabPages[2] )		return FALSE;	//20100420_JS.Kim  

  0016c	85 c0		 test	 eax, eax
  0016e	0f 84 6d 01 00
	00		 je	 $LN103@CreateTabP
; File C:\Program Files (x86)\Microsoft Visual Studio\2019\Community\VC\Tools\MSVC\14.29.30133\atlmfc\include\afx.inl

; 116  : 	{ return ::operator new(nSize); }

  00174	68 60 12 00 00	 push	 4704			; 00001260H
  00179	e8 00 00 00 00	 call	 ??2@YAPAXI@Z		; operator new
  0017e	83 c4 04	 add	 esp, 4
; File D:\git\src\IBK\IBK_DRFN\ProjSrc\SrcChartEx\ChartAddIn\ChartEnvSetupDlgAddIn\ChartEnvSetupDlgAddIn\TabMainChartEnvSetUp.cpp

; 230  : 		m_aTabPages[3] = new CDlgMainTabStyleSetUp( m_pIChartOCX, m_pDlgEnvSetUpAll );

  00181	89 45 f0	 mov	 DWORD PTR $T9[ebp], eax
  00184	c7 45 fc 03 00
	00 00		 mov	 DWORD PTR __$EHRec$[ebp+8], 3
  0018b	85 c0		 test	 eax, eax
  0018d	74 15		 je	 SHORT $LN50@CreateTabP
  0018f	ff b6 b8 00 00
	00		 push	 DWORD PTR [esi+184]
  00195	8b c8		 mov	 ecx, eax
  00197	ff b6 a4 00 00
	00		 push	 DWORD PTR [esi+164]
  0019d	e8 00 00 00 00	 call	 ??0CDlgMainTabStyleSetUp@@QAE@PAUIChartOCX135914@@PAVCWnd@@@Z ; CDlgMainTabStyleSetUp::CDlgMainTabStyleSetUp
  001a2	eb 02		 jmp	 SHORT $LN51@CreateTabP
$LN50@CreateTabP:
  001a4	33 c0		 xor	 eax, eax
$LN51@CreateTabP:
  001a6	c7 45 fc ff ff
	ff ff		 mov	 DWORD PTR __$EHRec$[ebp+8], -1
  001ad	89 86 b4 00 00
	00		 mov	 DWORD PTR [esi+180], eax

; 231  : 		if( !m_aTabPages[3] )		return FALSE;	//20100420_JS.Kim  

  001b3	85 c0		 test	 eax, eax
  001b5	0f 84 26 01 00
	00		 je	 $LN103@CreateTabP

; 232  : 
; 233  : 		if( !m_aTabPages[0]->Create(IDD_MAINTAB_PAGE_INDICATOR, this) )

  001bb	8b 8e a8 00 00
	00		 mov	 ecx, DWORD PTR [esi+168]
  001c1	56		 push	 esi
  001c2	68 72 17 00 00	 push	 6002			; 00001772H
  001c7	8b 01		 mov	 eax, DWORD PTR [ecx]
  001c9	ff 90 6c 01 00
	00		 call	 DWORD PTR [eax+364]
  001cf	85 c0		 test	 eax, eax
  001d1	0f 84 0a 01 00
	00		 je	 $LN103@CreateTabP

; 234  : 			return FALSE;	//20100420_JS.Kim  
; 235  : 		if( !m_aTabPages[1]->Create( nEnvType, this) )

  001d7	8b 8e ac 00 00
	00		 mov	 ecx, DWORD PTR [esi+172]
  001dd	56		 push	 esi
  001de	57		 push	 edi
  001df	8b 01		 mov	 eax, DWORD PTR [ecx]
  001e1	ff 90 6c 01 00
	00		 call	 DWORD PTR [eax+364]
  001e7	85 c0		 test	 eax, eax
  001e9	0f 84 f2 00 00
	00		 je	 $LN103@CreateTabP

; 236  : 			return FALSE;	//20100420_JS.Kim  
; 237  : 		if( !m_aTabPages[2]->Create(IDD_MAINTAB_PAGE_ANALYSIS, this) )

  001ef	8b 8e b0 00 00
	00		 mov	 ecx, DWORD PTR [esi+176]
  001f5	56		 push	 esi
  001f6	68 78 17 00 00	 push	 6008			; 00001778H
  001fb	8b 01		 mov	 eax, DWORD PTR [ecx]
  001fd	ff 90 6c 01 00
	00		 call	 DWORD PTR [eax+364]
  00203	85 c0		 test	 eax, eax
  00205	0f 84 d6 00 00
	00		 je	 $LN103@CreateTabP

; 238  : 			return FALSE;	//20100420_JS.Kim  
; 239  : 		if( !m_aTabPages[3]->Create(IDD_MAINTAB_PAGE_STYLE, this) )

  0020b	8b 8e b4 00 00
	00		 mov	 ecx, DWORD PTR [esi+180]
  00211	56		 push	 esi
  00212	68 71 17 00 00	 push	 6001			; 00001771H
  00217	8b 01		 mov	 eax, DWORD PTR [ecx]
  00219	ff 90 6c 01 00
	00		 call	 DWORD PTR [eax+364]
  0021f	85 c0		 test	 eax, eax
  00221	0f 84 ba 00 00
	00		 je	 $LN103@CreateTabP

; 240  : 			return FALSE;	//20100420_JS.Kim  
; 241  : 
; 242  : 		m_lstTabActiveOrder.AddTail(0);

  00227	81 c6 88 00 00
	00		 add	 esi, 136		; 00000088H
  0022d	6a 00		 push	 0
  0022f	8b ce		 mov	 ecx, esi
  00231	e8 00 00 00 00	 call	 ?AddTail@?$CList@HH@@QAEPAU__POSITION@@H@Z ; CList<int,int>::AddTail

; 243  : 		m_lstTabActiveOrder.AddTail(1);

  00236	6a 01		 push	 1
  00238	8b ce		 mov	 ecx, esi
  0023a	e8 00 00 00 00	 call	 ?AddTail@?$CList@HH@@QAEPAU__POSITION@@H@Z ; CList<int,int>::AddTail

; 244  : 		m_lstTabActiveOrder.AddTail(2);

  0023f	6a 02		 push	 2
  00241	8b ce		 mov	 ecx, esi
  00243	e8 00 00 00 00	 call	 ?AddTail@?$CList@HH@@QAEPAU__POSITION@@H@Z ; CList<int,int>::AddTail

; 245  : 		m_lstTabActiveOrder.AddTail(3);

  00248	6a 03		 push	 3

; 302  : 	}
; 303  : 	return TRUE;

  0024a	8b ce		 mov	 ecx, esi
  0024c	e8 00 00 00 00	 call	 ?AddTail@?$CList@HH@@QAEPAU__POSITION@@H@Z ; CList<int,int>::AddTail
  00251	b8 01 00 00 00	 mov	 eax, 1

; 304  : }

  00256	8b 4d f4	 mov	 ecx, DWORD PTR __$EHRec$[ebp]
  00259	64 89 0d 00 00
	00 00		 mov	 DWORD PTR fs:0, ecx
  00260	59		 pop	 ecx
  00261	5f		 pop	 edi
  00262	5e		 pop	 esi
  00263	8b e5		 mov	 esp, ebp
  00265	5d		 pop	 ebp
  00266	c3		 ret	 0
$LN13@CreateTabP:

; 246  : 	}
; 247  : 	//     - ojtaso (20080109)
; 248  : 	else if(m_nUIType == LOAD_SEL_ITEM)

  00267	83 f8 03	 cmp	 eax, 3
  0026a	0f 85 ba 01 00
	00		 jne	 $LN23@CreateTabP

; 249  : 	{
; 250  : 		switch(m_nCurTabPage)

  00270	8b 86 84 00 00
	00		 mov	 eax, DWORD PTR [esi+132]
  00276	83 f8 03	 cmp	 eax, 3
  00279	0f 87 7b 01 00
	00		 ja	 $LN36@CreateTabP
  0027f	ff 24 85 00 00
	00 00		 jmp	 DWORD PTR $LN104@CreateTabP[eax*4]
$LN25@CreateTabP:
; File C:\Program Files (x86)\Microsoft Visual Studio\2019\Community\VC\Tools\MSVC\14.29.30133\atlmfc\include\afx.inl

; 116  : 	{ return ::operator new(nSize); }

  00286	68 00 03 00 00	 push	 768			; 00000300H
  0028b	e8 00 00 00 00	 call	 ??2@YAPAXI@Z		; operator new
  00290	83 c4 04	 add	 esp, 4
; File D:\git\src\IBK\IBK_DRFN\ProjSrc\SrcChartEx\ChartAddIn\ChartEnvSetupDlgAddIn\ChartEnvSetupDlgAddIn\TabMainChartEnvSetUp.cpp

; 253  : 			m_aTabPages[0] = new CDlgMainTabIndicatorSetUp( m_pIChartOCX, m_pDlgEnvSetUpAll );

  00293	89 45 f0	 mov	 DWORD PTR $T8[ebp], eax
  00296	c7 45 fc 04 00
	00 00		 mov	 DWORD PTR __$EHRec$[ebp+8], 4
  0029d	85 c0		 test	 eax, eax
  0029f	74 17		 je	 SHORT $LN52@CreateTabP
  002a1	ff b6 b8 00 00
	00		 push	 DWORD PTR [esi+184]
  002a7	8b c8		 mov	 ecx, eax
  002a9	ff b6 a4 00 00
	00		 push	 DWORD PTR [esi+164]
  002af	e8 00 00 00 00	 call	 ??0CDlgMainTabIndicatorSetUp@@QAE@PAUIChartOCX135914@@PAVCWnd@@@Z ; CDlgMainTabIndicatorSetUp::CDlgMainTabIndicatorSetUp
  002b4	8b c8		 mov	 ecx, eax
  002b6	eb 02		 jmp	 SHORT $LN53@CreateTabP
$LN52@CreateTabP:
  002b8	33 c9		 xor	 ecx, ecx
$LN53@CreateTabP:
  002ba	c7 45 fc ff ff
	ff ff		 mov	 DWORD PTR __$EHRec$[ebp+8], -1
  002c1	89 8e a8 00 00
	00		 mov	 DWORD PTR [esi+168], ecx

; 254  : 			if( !m_aTabPages[0] )		return FALSE;	//20100420_JS.Kim  

  002c7	85 c9		 test	 ecx, ecx
  002c9	74 16		 je	 SHORT $LN103@CreateTabP

; 255  : 			if( !m_aTabPages[0]->Create(IDD_MAINTAB_PAGE_INDICATOR, this) )

  002cb	8b 01		 mov	 eax, DWORD PTR [ecx]
  002cd	56		 push	 esi
  002ce	68 72 17 00 00	 push	 6002			; 00001772H
$LN107@CreateTabP:

; 297  : 			return FALSE;	//20100420_JS.Kim  

  002d3	ff 90 6c 01 00
	00		 call	 DWORD PTR [eax+364]
  002d9	85 c0		 test	 eax, eax
  002db	0f 85 19 01 00
	00		 jne	 $LN36@CreateTabP
$LN103@CreateTabP:
  002e1	33 c0		 xor	 eax, eax

; 304  : }

  002e3	8b 4d f4	 mov	 ecx, DWORD PTR __$EHRec$[ebp]
  002e6	64 89 0d 00 00
	00 00		 mov	 DWORD PTR fs:0, ecx
  002ed	59		 pop	 ecx
  002ee	5f		 pop	 edi
  002ef	5e		 pop	 esi
  002f0	8b e5		 mov	 esp, ebp
  002f2	5d		 pop	 ebp
  002f3	c3		 ret	 0
$LN28@CreateTabP:
; File C:\Program Files (x86)\Microsoft Visual Studio\2019\Community\VC\Tools\MSVC\14.29.30133\atlmfc\include\afx.inl

; 116  : 	{ return ::operator new(nSize); }

  002f4	68 10 0a 00 00	 push	 2576			; 00000a10H
  002f9	e8 00 00 00 00	 call	 ??2@YAPAXI@Z		; operator new
  002fe	83 c4 04	 add	 esp, 4
; File D:\git\src\IBK\IBK_DRFN\ProjSrc\SrcChartEx\ChartAddIn\ChartEnvSetupDlgAddIn\ChartEnvSetupDlgAddIn\TabMainChartEnvSetUp.cpp

; 260  : 			m_aTabPages[0] = new CDlgMainTabBaseEnvSetUp( m_pIChartOCX, m_pDlgEnvSetUpAll, m_bPriceChart);

  00301	89 45 f0	 mov	 DWORD PTR $T7[ebp], eax
  00304	c7 45 fc 05 00
	00 00		 mov	 DWORD PTR __$EHRec$[ebp+8], 5
  0030b	85 c0		 test	 eax, eax
  0030d	74 1d		 je	 SHORT $LN54@CreateTabP
  0030f	ff b6 c0 00 00
	00		 push	 DWORD PTR [esi+192]
  00315	8b c8		 mov	 ecx, eax
  00317	ff b6 b8 00 00
	00		 push	 DWORD PTR [esi+184]
  0031d	ff b6 a4 00 00
	00		 push	 DWORD PTR [esi+164]
  00323	e8 00 00 00 00	 call	 ??0CDlgMainTabBaseEnvSetUp@@QAE@PAUIChartOCX135914@@PAVCWnd@@H@Z ; CDlgMainTabBaseEnvSetUp::CDlgMainTabBaseEnvSetUp
  00328	8b c8		 mov	 ecx, eax
  0032a	eb 02		 jmp	 SHORT $LN55@CreateTabP
$LN54@CreateTabP:
  0032c	33 c9		 xor	 ecx, ecx
$LN55@CreateTabP:
  0032e	c7 45 fc ff ff
	ff ff		 mov	 DWORD PTR __$EHRec$[ebp+8], -1
  00335	89 8e a8 00 00
	00		 mov	 DWORD PTR [esi+168], ecx

; 261  : 			if( !m_aTabPages[0] )		return FALSE;	//20100420_JS.Kim  

  0033b	85 c9		 test	 ecx, ecx
  0033d	74 a2		 je	 SHORT $LN103@CreateTabP

; 262  : 			if(!m_aTabPages[0]->Create(nEnvType, this))

  0033f	8b 01		 mov	 eax, DWORD PTR [ecx]
  00341	56		 push	 esi
  00342	57		 push	 edi
  00343	eb 8e		 jmp	 SHORT $LN107@CreateTabP
$LN31@CreateTabP:
; File C:\Program Files (x86)\Microsoft Visual Studio\2019\Community\VC\Tools\MSVC\14.29.30133\atlmfc\include\afx.inl

; 116  : 	{ return ::operator new(nSize); }

  00345	68 a0 01 00 00	 push	 416			; 000001a0H
  0034a	e8 00 00 00 00	 call	 ??2@YAPAXI@Z		; operator new
  0034f	83 c4 04	 add	 esp, 4
; File D:\git\src\IBK\IBK_DRFN\ProjSrc\SrcChartEx\ChartAddIn\ChartEnvSetupDlgAddIn\ChartEnvSetupDlgAddIn\TabMainChartEnvSetUp.cpp

; 266  : 			m_aTabPages[0] = new CDlgMainTabAnalysisSetUp( m_pIChartOCX, m_pDlgEnvSetUpAll );

  00352	89 45 f0	 mov	 DWORD PTR $T6[ebp], eax
  00355	c7 45 fc 06 00
	00 00		 mov	 DWORD PTR __$EHRec$[ebp+8], 6
  0035c	85 c0		 test	 eax, eax
  0035e	74 17		 je	 SHORT $LN56@CreateTabP
  00360	ff b6 b8 00 00
	00		 push	 DWORD PTR [esi+184]
  00366	8b c8		 mov	 ecx, eax
  00368	ff b6 a4 00 00
	00		 push	 DWORD PTR [esi+164]
  0036e	e8 00 00 00 00	 call	 ??0CDlgMainTabAnalysisSetUp@@QAE@PAUIChartOCX135914@@PAVCWnd@@@Z ; CDlgMainTabAnalysisSetUp::CDlgMainTabAnalysisSetUp
  00373	8b c8		 mov	 ecx, eax
  00375	eb 02		 jmp	 SHORT $LN57@CreateTabP
$LN56@CreateTabP:
  00377	33 c9		 xor	 ecx, ecx
$LN57@CreateTabP:
  00379	c7 45 fc ff ff
	ff ff		 mov	 DWORD PTR __$EHRec$[ebp+8], -1
  00380	89 8e a8 00 00
	00		 mov	 DWORD PTR [esi+168], ecx

; 267  : 			if( !m_aTabPages[0] )		return FALSE;	//20100420_JS.Kim  

  00386	85 c9		 test	 ecx, ecx
  00388	0f 84 53 ff ff
	ff		 je	 $LN103@CreateTabP

; 268  : 			if(!m_aTabPages[0]->Create(IDD_MAINTAB_PAGE_ANALYSIS, this))

  0038e	8b 01		 mov	 eax, DWORD PTR [ecx]
  00390	56		 push	 esi
  00391	68 78 17 00 00	 push	 6008			; 00001778H
  00396	e9 38 ff ff ff	 jmp	 $LN107@CreateTabP
$LN34@CreateTabP:
; File C:\Program Files (x86)\Microsoft Visual Studio\2019\Community\VC\Tools\MSVC\14.29.30133\atlmfc\include\afx.inl

; 116  : 	{ return ::operator new(nSize); }

  0039b	68 60 12 00 00	 push	 4704			; 00001260H
  003a0	e8 00 00 00 00	 call	 ??2@YAPAXI@Z		; operator new
  003a5	83 c4 04	 add	 esp, 4
; File D:\git\src\IBK\IBK_DRFN\ProjSrc\SrcChartEx\ChartAddIn\ChartEnvSetupDlgAddIn\ChartEnvSetupDlgAddIn\TabMainChartEnvSetUp.cpp

; 272  : 			m_aTabPages[0] = new CDlgMainTabStyleSetUp( m_pIChartOCX, m_pDlgEnvSetUpAll );

  003a8	89 45 f0	 mov	 DWORD PTR $T5[ebp], eax
  003ab	c7 45 fc 07 00
	00 00		 mov	 DWORD PTR __$EHRec$[ebp+8], 7
  003b2	85 c0		 test	 eax, eax
  003b4	74 17		 je	 SHORT $LN58@CreateTabP
  003b6	ff b6 b8 00 00
	00		 push	 DWORD PTR [esi+184]
  003bc	8b c8		 mov	 ecx, eax
  003be	ff b6 a4 00 00
	00		 push	 DWORD PTR [esi+164]
  003c4	e8 00 00 00 00	 call	 ??0CDlgMainTabStyleSetUp@@QAE@PAUIChartOCX135914@@PAVCWnd@@@Z ; CDlgMainTabStyleSetUp::CDlgMainTabStyleSetUp
  003c9	8b c8		 mov	 ecx, eax
  003cb	eb 02		 jmp	 SHORT $LN59@CreateTabP
$LN58@CreateTabP:
  003cd	33 c9		 xor	 ecx, ecx
$LN59@CreateTabP:
  003cf	c7 45 fc ff ff
	ff ff		 mov	 DWORD PTR __$EHRec$[ebp+8], -1
  003d6	89 8e a8 00 00
	00		 mov	 DWORD PTR [esi+168], ecx

; 273  : 			if( !m_aTabPages[0] )		return FALSE;	//20100420_JS.Kim  

  003dc	85 c9		 test	 ecx, ecx
  003de	0f 84 fd fe ff
	ff		 je	 $LN103@CreateTabP

; 274  : 			if(!m_aTabPages[0]->Create(IDD_MAINTAB_PAGE_STYLE, this))

  003e4	8b 01		 mov	 eax, DWORD PTR [ecx]
  003e6	56		 push	 esi
  003e7	68 71 17 00 00	 push	 6001			; 00001771H
  003ec	ff 90 6c 01 00
	00		 call	 DWORD PTR [eax+364]
  003f2	85 c0		 test	 eax, eax
  003f4	0f 84 e7 fe ff
	ff		 je	 $LN103@CreateTabP
$LN36@CreateTabP:

; 275  : 				return FALSE;	//20100420_JS.Kim  
; 276  : 			break;
; 277  : 		}
; 278  : 		
; 279  : 		m_lstTabActiveOrder.AddTail(0);

  003fa	6a 00		 push	 0
  003fc	8d 8e 88 00 00
	00		 lea	 ecx, DWORD PTR [esi+136]
  00402	e8 00 00 00 00	 call	 ?AddTail@?$CList@HH@@QAEPAU__POSITION@@H@Z ; CList<int,int>::AddTail

; 280  : 		m_aTabPages[0]->ShowWindow(SW_SHOW);

  00407	8b 8e a8 00 00
	00		 mov	 ecx, DWORD PTR [esi+168]
  0040d	6a 05		 push	 5
  0040f	e8 00 00 00 00	 call	 ?ShowWindow@CWnd@@QAEHH@Z ; CWnd::ShowWindow

; 302  : 	}
; 303  : 	return TRUE;

  00414	b8 01 00 00 00	 mov	 eax, 1

; 304  : }

  00419	8b 4d f4	 mov	 ecx, DWORD PTR __$EHRec$[ebp]
  0041c	64 89 0d 00 00
	00 00		 mov	 DWORD PTR fs:0, ecx
  00423	59		 pop	 ecx
  00424	5f		 pop	 edi
  00425	5e		 pop	 esi
  00426	8b e5		 mov	 esp, ebp
  00428	5d		 pop	 ebp
  00429	c3		 ret	 0
$LN23@CreateTabP:
; File C:\Program Files (x86)\Microsoft Visual Studio\2019\Community\VC\Tools\MSVC\14.29.30133\atlmfc\include\afx.inl

; 116  : 	{ return ::operator new(nSize); }

  0042a	68 00 03 00 00	 push	 768			; 00000300H
  0042f	e8 00 00 00 00	 call	 ??2@YAPAXI@Z		; operator new
  00434	83 c4 04	 add	 esp, 4
; File D:\git\src\IBK\IBK_DRFN\ProjSrc\SrcChartEx\ChartAddIn\ChartEnvSetupDlgAddIn\ChartEnvSetupDlgAddIn\TabMainChartEnvSetUp.cpp

; 284  : 		m_aTabPages[0] = new CDlgMainTabIndicatorSetUp( m_pIChartOCX, m_pDlgEnvSetUpAll );

  00437	89 45 f0	 mov	 DWORD PTR $T4[ebp], eax
  0043a	c7 45 fc 08 00
	00 00		 mov	 DWORD PTR __$EHRec$[ebp+8], 8
  00441	85 c0		 test	 eax, eax
  00443	74 15		 je	 SHORT $LN60@CreateTabP
  00445	ff b6 b8 00 00
	00		 push	 DWORD PTR [esi+184]
  0044b	8b c8		 mov	 ecx, eax
  0044d	ff b6 a4 00 00
	00		 push	 DWORD PTR [esi+164]
  00453	e8 00 00 00 00	 call	 ??0CDlgMainTabIndicatorSetUp@@QAE@PAUIChartOCX135914@@PAVCWnd@@@Z ; CDlgMainTabIndicatorSetUp::CDlgMainTabIndicatorSetUp
  00458	eb 02		 jmp	 SHORT $LN61@CreateTabP
$LN60@CreateTabP:
  0045a	33 c0		 xor	 eax, eax
$LN61@CreateTabP:
  0045c	c7 45 fc ff ff
	ff ff		 mov	 DWORD PTR __$EHRec$[ebp+8], -1
  00463	89 86 a8 00 00
	00		 mov	 DWORD PTR [esi+168], eax

; 285  : 		if( !m_aTabPages[0] )		return FALSE;	//20100420_JS.Kim  

  00469	85 c0		 test	 eax, eax
  0046b	0f 84 70 fe ff
	ff		 je	 $LN103@CreateTabP
; File C:\Program Files (x86)\Microsoft Visual Studio\2019\Community\VC\Tools\MSVC\14.29.30133\atlmfc\include\afx.inl

; 116  : 	{ return ::operator new(nSize); }

  00471	68 10 0a 00 00	 push	 2576			; 00000a10H
  00476	e8 00 00 00 00	 call	 ??2@YAPAXI@Z		; operator new
  0047b	83 c4 04	 add	 esp, 4
; File D:\git\src\IBK\IBK_DRFN\ProjSrc\SrcChartEx\ChartAddIn\ChartEnvSetupDlgAddIn\ChartEnvSetupDlgAddIn\TabMainChartEnvSetUp.cpp

; 287  : 		m_aTabPages[1] = new CDlgMainTabBaseEnvSetUp( m_pIChartOCX, m_pDlgEnvSetUpAll, m_bPriceChart);

  0047e	89 45 f0	 mov	 DWORD PTR $T3[ebp], eax
  00481	c7 45 fc 09 00
	00 00		 mov	 DWORD PTR __$EHRec$[ebp+8], 9
  00488	85 c0		 test	 eax, eax
  0048a	74 1b		 je	 SHORT $LN62@CreateTabP
  0048c	ff b6 c0 00 00
	00		 push	 DWORD PTR [esi+192]
  00492	8b c8		 mov	 ecx, eax
  00494	ff b6 b8 00 00
	00		 push	 DWORD PTR [esi+184]
  0049a	ff b6 a4 00 00
	00		 push	 DWORD PTR [esi+164]
  004a0	e8 00 00 00 00	 call	 ??0CDlgMainTabBaseEnvSetUp@@QAE@PAUIChartOCX135914@@PAVCWnd@@H@Z ; CDlgMainTabBaseEnvSetUp::CDlgMainTabBaseEnvSetUp
  004a5	eb 02		 jmp	 SHORT $LN63@CreateTabP
$LN62@CreateTabP:
  004a7	33 c0		 xor	 eax, eax
$LN63@CreateTabP:
  004a9	c7 45 fc ff ff
	ff ff		 mov	 DWORD PTR __$EHRec$[ebp+8], -1
  004b0	89 86 ac 00 00
	00		 mov	 DWORD PTR [esi+172], eax

; 288  : 		if( !m_aTabPages[1] )		return FALSE;	//20100420_JS.Kim  

  004b6	85 c0		 test	 eax, eax
  004b8	0f 84 23 fe ff
	ff		 je	 $LN103@CreateTabP
; File C:\Program Files (x86)\Microsoft Visual Studio\2019\Community\VC\Tools\MSVC\14.29.30133\atlmfc\include\afx.inl

; 116  : 	{ return ::operator new(nSize); }

  004be	68 60 12 00 00	 push	 4704			; 00001260H
  004c3	e8 00 00 00 00	 call	 ??2@YAPAXI@Z		; operator new
  004c8	83 c4 04	 add	 esp, 4
; File D:\git\src\IBK\IBK_DRFN\ProjSrc\SrcChartEx\ChartAddIn\ChartEnvSetupDlgAddIn\ChartEnvSetupDlgAddIn\TabMainChartEnvSetUp.cpp

; 289  : 		m_aTabPages[2] = new CDlgMainTabStyleSetUp( m_pIChartOCX, m_pDlgEnvSetUpAll );

  004cb	89 45 f0	 mov	 DWORD PTR $T2[ebp], eax
  004ce	c7 45 fc 0a 00
	00 00		 mov	 DWORD PTR __$EHRec$[ebp+8], 10 ; 0000000aH
  004d5	85 c0		 test	 eax, eax
  004d7	74 15		 je	 SHORT $LN64@CreateTabP
  004d9	ff b6 b8 00 00
	00		 push	 DWORD PTR [esi+184]
  004df	8b c8		 mov	 ecx, eax
  004e1	ff b6 a4 00 00
	00		 push	 DWORD PTR [esi+164]
  004e7	e8 00 00 00 00	 call	 ??0CDlgMainTabStyleSetUp@@QAE@PAUIChartOCX135914@@PAVCWnd@@@Z ; CDlgMainTabStyleSetUp::CDlgMainTabStyleSetUp
  004ec	eb 02		 jmp	 SHORT $LN65@CreateTabP
$LN64@CreateTabP:
  004ee	33 c0		 xor	 eax, eax
$LN65@CreateTabP:
  004f0	c7 45 fc ff ff
	ff ff		 mov	 DWORD PTR __$EHRec$[ebp+8], -1
  004f7	89 86 b0 00 00
	00		 mov	 DWORD PTR [esi+176], eax

; 290  : 		if( !m_aTabPages[2] )		return FALSE;	//20100420_JS.Kim  

  004fd	85 c0		 test	 eax, eax
  004ff	0f 84 dc fd ff
	ff		 je	 $LN103@CreateTabP

; 291  : 
; 292  : 		if(!m_aTabPages[0]->Create(IDD_MAINTAB_PAGE_INDICATOR, this))

  00505	8b 8e a8 00 00
	00		 mov	 ecx, DWORD PTR [esi+168]
  0050b	56		 push	 esi
  0050c	68 72 17 00 00	 push	 6002			; 00001772H
  00511	8b 01		 mov	 eax, DWORD PTR [ecx]
  00513	ff 90 6c 01 00
	00		 call	 DWORD PTR [eax+364]
  00519	85 c0		 test	 eax, eax
  0051b	0f 84 c0 fd ff
	ff		 je	 $LN103@CreateTabP

; 293  : 			return FALSE;	//20100420_JS.Kim  
; 294  : 		if(!m_aTabPages[1]->Create( nEnvType, this))

  00521	8b 8e ac 00 00
	00		 mov	 ecx, DWORD PTR [esi+172]
  00527	56		 push	 esi
  00528	57		 push	 edi
  00529	8b 01		 mov	 eax, DWORD PTR [ecx]
  0052b	ff 90 6c 01 00
	00		 call	 DWORD PTR [eax+364]
  00531	85 c0		 test	 eax, eax
  00533	0f 84 a8 fd ff
	ff		 je	 $LN103@CreateTabP

; 295  : 			return FALSE;	//20100420_JS.Kim  
; 296  : 		if(!m_aTabPages[2]->Create(IDD_MAINTAB_PAGE_STYLE, this))

  00539	8b 8e b0 00 00
	00		 mov	 ecx, DWORD PTR [esi+176]
  0053f	56		 push	 esi
  00540	68 71 17 00 00	 push	 6001			; 00001771H
  00545	8b 01		 mov	 eax, DWORD PTR [ecx]
  00547	ff 90 6c 01 00
	00		 call	 DWORD PTR [eax+364]
  0054d	85 c0		 test	 eax, eax
  0054f	0f 84 8c fd ff
	ff		 je	 $LN103@CreateTabP

; 298  : 
; 299  : 		m_lstTabActiveOrder.AddTail(0);

  00555	81 c6 88 00 00
	00		 add	 esi, 136		; 00000088H
  0055b	6a 00		 push	 0
  0055d	8b ce		 mov	 ecx, esi
  0055f	e8 00 00 00 00	 call	 ?AddTail@?$CList@HH@@QAEPAU__POSITION@@H@Z ; CList<int,int>::AddTail

; 300  : 		m_lstTabActiveOrder.AddTail(1);

  00564	6a 01		 push	 1
  00566	8b ce		 mov	 ecx, esi
  00568	e8 00 00 00 00	 call	 ?AddTail@?$CList@HH@@QAEPAU__POSITION@@H@Z ; CList<int,int>::AddTail

; 301  : 		m_lstTabActiveOrder.AddTail(2);

  0056d	6a 02		 push	 2

; 302  : 	}
; 303  : 	return TRUE;

  0056f	8b ce		 mov	 ecx, esi
  00571	e8 00 00 00 00	 call	 ?AddTail@?$CList@HH@@QAEPAU__POSITION@@H@Z ; CList<int,int>::AddTail
  00576	b8 01 00 00 00	 mov	 eax, 1

; 304  : }

  0057b	8b 4d f4	 mov	 ecx, DWORD PTR __$EHRec$[ebp]
  0057e	64 89 0d 00 00
	00 00		 mov	 DWORD PTR fs:0, ecx
  00585	59		 pop	 ecx
  00586	5f		 pop	 edi
  00587	5e		 pop	 esi
  00588	8b e5		 mov	 esp, ebp
  0058a	5d		 pop	 ebp
  0058b	c3		 ret	 0
$LN104@CreateTabP:
  0058c	00 00 00 00	 DD	 $LN25@CreateTabP
  00590	00 00 00 00	 DD	 $LN28@CreateTabP
  00594	00 00 00 00	 DD	 $LN31@CreateTabP
  00598	00 00 00 00	 DD	 $LN34@CreateTabP
_TEXT	ENDS
;	COMDAT text$x
text$x	SEGMENT
__unwindfunclet$?CreateTabPage@CTabMainChartEnvSetUp@@AAEHXZ$0:
  00000	8b 45 f0	 mov	 eax, DWORD PTR $T12[ebp]
  00003	50		 push	 eax
  00004	e8 00 00 00 00	 call	 ??3CObject@@SGXPAX@Z	; CObject::operator delete
  00009	c3		 ret	 0
__unwindfunclet$?CreateTabPage@CTabMainChartEnvSetUp@@AAEHXZ$1:
  0000a	8b 45 f0	 mov	 eax, DWORD PTR $T11[ebp]
  0000d	50		 push	 eax
  0000e	e8 00 00 00 00	 call	 ??3CObject@@SGXPAX@Z	; CObject::operator delete
  00013	c3		 ret	 0
__unwindfunclet$?CreateTabPage@CTabMainChartEnvSetUp@@AAEHXZ$2:
  00014	8b 45 f0	 mov	 eax, DWORD PTR $T10[ebp]
  00017	50		 push	 eax
  00018	e8 00 00 00 00	 call	 ??3CObject@@SGXPAX@Z	; CObject::operator delete
  0001d	c3		 ret	 0
__unwindfunclet$?CreateTabPage@CTabMainChartEnvSetUp@@AAEHXZ$3:
  0001e	8b 45 f0	 mov	 eax, DWORD PTR $T9[ebp]
  00021	50		 push	 eax
  00022	e8 00 00 00 00	 call	 ??3CObject@@SGXPAX@Z	; CObject::operator delete
  00027	c3		 ret	 0
__unwindfunclet$?CreateTabPage@CTabMainChartEnvSetUp@@AAEHXZ$4:
  00028	8b 45 f0	 mov	 eax, DWORD PTR $T8[ebp]
  0002b	50		 push	 eax
  0002c	e8 00 00 00 00	 call	 ??3CObject@@SGXPAX@Z	; CObject::operator delete
  00031	c3		 ret	 0
__unwindfunclet$?CreateTabPage@CTabMainChartEnvSetUp@@AAEHXZ$5:
  00032	8b 45 f0	 mov	 eax, DWORD PTR $T7[ebp]
  00035	50		 push	 eax
  00036	e8 00 00 00 00	 call	 ??3CObject@@SGXPAX@Z	; CObject::operator delete
  0003b	c3		 ret	 0
__unwindfunclet$?CreateTabPage@CTabMainChartEnvSetUp@@AAEHXZ$6:
  0003c	8b 45 f0	 mov	 eax, DWORD PTR $T6[ebp]
  0003f	50		 push	 eax
  00040	e8 00 00 00 00	 call	 ??3CObject@@SGXPAX@Z	; CObject::operator delete
  00045	c3		 ret	 0
__unwindfunclet$?CreateTabPage@CTabMainChartEnvSetUp@@AAEHXZ$7:
  00046	8b 45 f0	 mov	 eax, DWORD PTR $T5[ebp]
  00049	50		 push	 eax
  0004a	e8 00 00 00 00	 call	 ??3CObject@@SGXPAX@Z	; CObject::operator delete
  0004f	c3		 ret	 0
__unwindfunclet$?CreateTabPage@CTabMainChartEnvSetUp@@AAEHXZ$8:
  00050	8b 45 f0	 mov	 eax, DWORD PTR $T4[ebp]
  00053	50		 push	 eax
  00054	e8 00 00 00 00	 call	 ??3CObject@@SGXPAX@Z	; CObject::operator delete
  00059	c3		 ret	 0
__unwindfunclet$?CreateTabPage@CTabMainChartEnvSetUp@@AAEHXZ$9:
  0005a	8b 45 f0	 mov	 eax, DWORD PTR $T3[ebp]
  0005d	50		 push	 eax
  0005e	e8 00 00 00 00	 call	 ??3CObject@@SGXPAX@Z	; CObject::operator delete
  00063	c3		 ret	 0
__unwindfunclet$?CreateTabPage@CTabMainChartEnvSetUp@@AAEHXZ$10:
  00064	8b 45 f0	 mov	 eax, DWORD PTR $T2[ebp]
  00067	50		 push	 eax
  00068	e8 00 00 00 00	 call	 ??3CObject@@SGXPAX@Z	; CObject::operator delete
  0006d	c3		 ret	 0
  0006e	cc		 int	 3
  0006f	cc		 int	 3
  00070	cc		 int	 3
  00071	cc		 int	 3
  00072	cc		 int	 3
__ehhandler$?CreateTabPage@CTabMainChartEnvSetUp@@AAEHXZ:
  00073	90		 npad	 1
  00074	90		 npad	 1
  00075	8b 54 24 08	 mov	 edx, DWORD PTR [esp+8]
  00079	8d 42 0c	 lea	 eax, DWORD PTR [edx+12]
  0007c	8b 4a f0	 mov	 ecx, DWORD PTR [edx-16]
  0007f	33 c8		 xor	 ecx, eax
  00081	e8 00 00 00 00	 call	 @__security_check_cookie@4
  00086	b8 00 00 00 00	 mov	 eax, OFFSET __ehfuncinfo$?CreateTabPage@CTabMainChartEnvSetUp@@AAEHXZ
  0008b	e9 00 00 00 00	 jmp	 ___CxxFrameHandler3
text$x	ENDS
?CreateTabPage@CTabMainChartEnvSetUp@@AAEHXZ ENDP	; CTabMainChartEnvSetUp::CreateTabPage
; Function compile flags: /Ogtp
; File D:\git\src\IBK\IBK_DRFN\ProjSrc\SrcChartEx\ChartAddIn\ChartEnvSetupDlgAddIn\ChartEnvSetupDlgAddIn\TabMainChartEnvSetUp.cpp
;	COMDAT ?GetTabPages@CTabMainChartEnvSetUp@@QAEPAVCDialog@@H@Z
_TEXT	SEGMENT
_index$ = 8						; size = 4
?GetTabPages@CTabMainChartEnvSetUp@@QAEPAVCDialog@@H@Z PROC ; CTabMainChartEnvSetUp::GetTabPages, COMDAT
; _this$ = ecx

; 419  : {

  00000	55		 push	 ebp
  00001	8b ec		 mov	 ebp, esp

; 420  : 	return m_aTabPages[index];

  00003	8b 45 08	 mov	 eax, DWORD PTR _index$[ebp]
  00006	8b 84 81 a8 00
	00 00		 mov	 eax, DWORD PTR [ecx+eax*4+168]

; 421  : }

  0000d	5d		 pop	 ebp
  0000e	c2 04 00	 ret	 4
?GetTabPages@CTabMainChartEnvSetUp@@QAEPAVCDialog@@H@Z ENDP ; CTabMainChartEnvSetUp::GetTabPages
_TEXT	ENDS
; Function compile flags: /Ogtp
; File D:\git\src\IBK\IBK_DRFN\ProjSrc\SrcChartEx\ChartAddIn\ChartEnvSetupDlgAddIn\ChartEnvSetupDlgAddIn\TabMainChartEnvSetUp.cpp
; File D:\git\src\IBK\IBK_DRFN\ProjSrc\SrcChartEx\ChartAddIn\ChartEnvSetupDlgAddIn\Include_AddIn_135914\I135914\_IString.h
; File D:\git\src\IBK\IBK_DRFN\ProjSrc\SrcChartEx\ChartAddIn\ChartEnvSetupDlgAddIn\ChartEnvSetupDlgAddIn\TabMainChartEnvSetUp.cpp
; File D:\git\src\IBK\IBK_DRFN\ProjSrc\SrcChartEx\ChartAddIn\ChartEnvSetupDlgAddIn\Include_AddIn_135914\I135914\_IString.h
; File D:\git\src\IBK\IBK_DRFN\ProjSrc\SrcChartEx\ChartAddIn\ChartEnvSetupDlgAddIn\ChartEnvSetupDlgAddIn\TabMainChartEnvSetUp.cpp
; File D:\git\src\IBK\IBK_DRFN\ProjSrc\SrcChartEx\ChartAddIn\ChartEnvSetupDlgAddIn\Include_AddIn_135914\I135914\_IString.h
; File D:\git\src\IBK\IBK_DRFN\ProjSrc\SrcChartEx\ChartAddIn\ChartEnvSetupDlgAddIn\ChartEnvSetupDlgAddIn\TabMainChartEnvSetUp.cpp
; File C:\Program Files (x86)\Microsoft Visual Studio\2019\Community\VC\Tools\MSVC\14.29.30133\atlmfc\include\afxcmn.inl
; File D:\git\src\IBK\IBK_DRFN\ProjSrc\SrcChartEx\ChartAddIn\ChartEnvSetupDlgAddIn\ChartEnvSetupDlgAddIn\TabMainChartEnvSetUp.cpp
; File C:\Program Files (x86)\Microsoft Visual Studio\2019\Community\VC\Tools\MSVC\14.29.30133\atlmfc\include\afxcmn.inl
; File D:\git\src\IBK\IBK_DRFN\ProjSrc\SrcChartEx\ChartAddIn\ChartEnvSetupDlgAddIn\ChartEnvSetupDlgAddIn\TabMainChartEnvSetUp.cpp
; File C:\Program Files (x86)\Microsoft Visual Studio\2019\Community\VC\Tools\MSVC\14.29.30133\atlmfc\include\afxcmn.inl
; File D:\git\src\IBK\IBK_DRFN\ProjSrc\SrcChartEx\ChartAddIn\ChartEnvSetupDlgAddIn\ChartEnvSetupDlgAddIn\TabMainChartEnvSetUp.cpp
; File C:\Program Files (x86)\Microsoft Visual Studio\2019\Community\VC\Tools\MSVC\14.29.30133\atlmfc\include\afxcmn.inl
; File D:\git\src\IBK\IBK_DRFN\ProjSrc\SrcChartEx\ChartAddIn\ChartEnvSetupDlgAddIn\ChartEnvSetupDlgAddIn\TabMainChartEnvSetUp.cpp
; File C:\Program Files (x86)\Microsoft Visual Studio\2019\Community\VC\Tools\MSVC\14.29.30133\atlmfc\include\afxcmn.inl
; File D:\git\src\IBK\IBK_DRFN\ProjSrc\SrcChartEx\ChartAddIn\ChartEnvSetupDlgAddIn\ChartEnvSetupDlgAddIn\TabMainChartEnvSetUp.cpp
; File C:\Program Files (x86)\Microsoft Visual Studio\2019\Community\VC\Tools\MSVC\14.29.30133\atlmfc\include\afxcmn.inl
; File D:\git\src\IBK\IBK_DRFN\ProjSrc\SrcChartEx\ChartAddIn\ChartEnvSetupDlgAddIn\ChartEnvSetupDlgAddIn\TabMainChartEnvSetUp.cpp
; File C:\Program Files (x86)\Microsoft Visual Studio\2019\Community\VC\Tools\MSVC\14.29.30133\atlmfc\include\afxwin2.inl
; File C:\Program Files (x86)\Microsoft Visual Studio\2019\Community\VC\Tools\MSVC\14.29.30133\atlmfc\include\atltypes.h
; File C:\Program Files (x86)\Microsoft Visual Studio\2019\Community\VC\Tools\MSVC\14.29.30133\atlmfc\include\afxwin2.inl
; File C:\Program Files (x86)\Microsoft Visual Studio\2019\Community\VC\Tools\MSVC\14.29.30133\atlmfc\include\afxcmn.inl
; File D:\git\src\IBK\IBK_DRFN\ProjSrc\SrcChartEx\ChartAddIn\ChartEnvSetupDlgAddIn\ChartEnvSetupDlgAddIn\TabMainChartEnvSetUp.cpp
; File C:\Program Files (x86)\Microsoft Visual Studio\2019\Community\VC\Tools\MSVC\14.29.30133\atlmfc\include\atltypes.h
; File D:\git\src\IBK\IBK_DRFN\ProjSrc\SrcChartEx\ChartAddIn\ChartEnvSetupDlgAddIn\ChartEnvSetupDlgAddIn\TabMainChartEnvSetUp.cpp
; File C:\Program Files (x86)\Microsoft Visual Studio\2019\Community\VC\Tools\MSVC\14.29.30133\atlmfc\include\afxcmn.inl
; File D:\git\src\IBK\IBK_DRFN\ProjSrc\SrcChartEx\ChartAddIn\ChartEnvSetupDlgAddIn\ChartEnvSetupDlgAddIn\TabMainChartEnvSetUp.cpp
; File C:\Program Files (x86)\Microsoft Visual Studio\2019\Community\VC\Tools\MSVC\14.29.30133\atlmfc\include\afxtempl.h
; File D:\git\src\IBK\IBK_DRFN\ProjSrc\SrcChartEx\ChartAddIn\ChartEnvSetupDlgAddIn\ChartEnvSetupDlgAddIn\TabMainChartEnvSetUp.cpp
; File C:\Program Files (x86)\Microsoft Visual Studio\2019\Community\VC\Tools\MSVC\14.29.30133\atlmfc\include\afxtempl.h
; File D:\git\src\IBK\IBK_DRFN\ProjSrc\SrcChartEx\ChartAddIn\ChartEnvSetupDlgAddIn\ChartEnvSetupDlgAddIn\TabMainChartEnvSetUp.cpp
; File C:\Program Files (x86)\Microsoft Visual Studio\2019\Community\VC\Tools\MSVC\14.29.30133\atlmfc\include\afxcmn.inl
; File D:\git\src\IBK\IBK_DRFN\ProjSrc\SrcChartEx\ChartAddIn\ChartEnvSetupDlgAddIn\ChartEnvSetupDlgAddIn\TabMainChartEnvSetUp.cpp
; File C:\Program Files (x86)\Microsoft Visual Studio\2019\Community\VC\Tools\MSVC\14.29.30133\atlmfc\include\afxcmn.inl
; File D:\git\src\IBK\IBK_DRFN\ProjSrc\SrcChartEx\ChartAddIn\ChartEnvSetupDlgAddIn\ChartEnvSetupDlgAddIn\TabMainChartEnvSetUp.cpp
; File C:\Program Files (x86)\Microsoft Visual Studio\2019\Community\VC\Tools\MSVC\14.29.30133\atlmfc\include\afxtempl.h
; File D:\git\src\IBK\IBK_DRFN\ProjSrc\SrcChartEx\ChartAddIn\ChartEnvSetupDlgAddIn\ChartEnvSetupDlgAddIn\TabMainChartEnvSetUp.cpp
; File C:\Program Files (x86)\Microsoft Visual Studio\2019\Community\VC\Tools\MSVC\14.29.30133\atlmfc\include\afxtempl.h
; File D:\git\src\IBK\IBK_DRFN\ProjSrc\SrcChartEx\ChartAddIn\ChartEnvSetupDlgAddIn\ChartEnvSetupDlgAddIn\TabMainChartEnvSetUp.cpp
;	COMDAT ?Init@CTabMainChartEnvSetUp@@QAEHPAUIChartOCX135914@@PAVCDlgEnvSetUpAll@@HH@Z
_TEXT	SEGMENT
_nY$1$ = -84						; size = 4
_nXc$1$ = -80						; size = 4
_nC$3 = -80						; size = 4
tv1153 = -76						; size = 4
_nR$4 = -76						; size = 4
_strTabAnal$ = -72					; size = 4
_strTabIndicator$ = -68					; size = 4
_strTabBase$ = -64					; size = 4
_strTabStyle$ = -60					; size = 4
_pCurTabDlg$1$ = -56					; size = 4
_nX$1$ = -56						; size = 4
_nG$5 = -56						; size = 4
_pPrevTabDlg$1$ = -52					; size = 4
_nYc$1$ = -52						; size = 4
_nV$6 = -52						; size = 4
_tabRect$7 = -48					; size = 16
_itemRect$8 = -32					; size = 16
__$ArrayPad$ = -16					; size = 4
__$EHRec$ = -12						; size = 12
_p_pIChartOCX$ = 8					; size = 4
_pParentDlg$ = 12					; size = 4
_nType$ = 16						; size = 4
_nActiveTabIdx$ = 20					; size = 4
?Init@CTabMainChartEnvSetUp@@QAEHPAUIChartOCX135914@@PAVCDlgEnvSetUpAll@@HH@Z PROC ; CTabMainChartEnvSetUp::Init, COMDAT
; _this$ = ecx

; 83   : {

  00000	55		 push	 ebp
  00001	8b ec		 mov	 ebp, esp
  00003	6a ff		 push	 -1
  00005	68 00 00 00 00	 push	 __ehhandler$?Init@CTabMainChartEnvSetUp@@QAEHPAUIChartOCX135914@@PAVCDlgEnvSetUpAll@@HH@Z
  0000a	64 a1 00 00 00
	00		 mov	 eax, DWORD PTR fs:0
  00010	50		 push	 eax
  00011	83 ec 48	 sub	 esp, 72			; 00000048H
  00014	a1 00 00 00 00	 mov	 eax, DWORD PTR ___security_cookie
  00019	33 c5		 xor	 eax, ebp
  0001b	89 45 f0	 mov	 DWORD PTR __$ArrayPad$[ebp], eax
  0001e	53		 push	 ebx
  0001f	56		 push	 esi
  00020	57		 push	 edi
  00021	50		 push	 eax
  00022	8d 45 f4	 lea	 eax, DWORD PTR __$EHRec$[ebp]
  00025	64 a3 00 00 00
	00		 mov	 DWORD PTR fs:0, eax
  0002b	8b f1		 mov	 esi, ecx

; 84   : 	if( p_pIChartOCX == NULL )

  0002d	8b 7d 08	 mov	 edi, DWORD PTR _p_pIChartOCX$[ebp]
  00030	85 ff		 test	 edi, edi
  00032	75 07		 jne	 SHORT $LN4@Init

; 85   : 		return FALSE;

  00034	33 c0		 xor	 eax, eax
  00036	e9 95 04 00 00	 jmp	 $LN1@Init
$LN4@Init:

; 86   : 
; 87   : 	// 1.     Member  .
; 88   : 	if( m_pIChartOCX) m_pIChartOCX->Release();

  0003b	8b 8e a4 00 00
	00		 mov	 ecx, DWORD PTR [esi+164]
  00041	85 c9		 test	 ecx, ecx
  00043	74 06		 je	 SHORT $LN5@Init
  00045	8b 01		 mov	 eax, DWORD PTR [ecx]
  00047	51		 push	 ecx
  00048	ff 50 08	 call	 DWORD PTR [eax+8]
$LN5@Init:

; 89   : 	m_pIChartOCX = p_pIChartOCX;

  0004b	89 be a4 00 00
	00		 mov	 DWORD PTR [esi+164], edi

; 90   : 	if( m_pIChartOCX) m_pIChartOCX->AddRef();

  00051	8b 07		 mov	 eax, DWORD PTR [edi]
  00053	57		 push	 edi
  00054	ff 50 04	 call	 DWORD PTR [eax+4]

; 91   : 
; 92   : 	// Sang-Woo, Cho	2005 / 11 / 02	
; 93   : 	m_pDlgEnvSetUpAll = pParentDlg;

  00057	8b 45 0c	 mov	 eax, DWORD PTR _pParentDlg$[ebp]

; 94   : 
; 95   : 	// ( 2006 / 10 / 31 - Sang-Woo, Cho ) 
; 96   : 	m_nUIType = nType;
; 97   : 
; 98   : // 2008.01.25 by LYH >>
; 99   : 	CString strTabIndicator, strTabBase, strTabAnal, strTabStyle;

  0005a	8d 4d bc	 lea	 ecx, DWORD PTR _strTabIndicator$[ebp]
  0005d	89 86 b8 00 00
	00		 mov	 DWORD PTR [esi+184], eax
  00063	8b 45 10	 mov	 eax, DWORD PTR _nType$[ebp]
  00066	89 86 bc 00 00
	00		 mov	 DWORD PTR [esi+188], eax
  0006c	ff 15 00 00 00
	00		 call	 DWORD PTR __imp_??0?$CStringT@DV?$StrTraitMFC_DLL@DV?$ChTraitsCRT@D@ATL@@@@@ATL@@QAE@XZ
  00072	8d 4d c0	 lea	 ecx, DWORD PTR _strTabBase$[ebp]
  00075	c7 45 fc 00 00
	00 00		 mov	 DWORD PTR __$EHRec$[ebp+8], 0
  0007c	ff 15 00 00 00
	00		 call	 DWORD PTR __imp_??0?$CStringT@DV?$StrTraitMFC_DLL@DV?$ChTraitsCRT@D@ATL@@@@@ATL@@QAE@XZ
  00082	8d 4d b8	 lea	 ecx, DWORD PTR _strTabAnal$[ebp]
  00085	ff 15 00 00 00
	00		 call	 DWORD PTR __imp_??0?$CStringT@DV?$StrTraitMFC_DLL@DV?$ChTraitsCRT@D@ATL@@@@@ATL@@QAE@XZ
  0008b	8d 4d c4	 lea	 ecx, DWORD PTR _strTabStyle$[ebp]
  0008e	ff 15 00 00 00
	00		 call	 DWORD PTR __imp_??0?$CStringT@DV?$StrTraitMFC_DLL@DV?$ChTraitsCRT@D@ATL@@@@@ATL@@QAE@XZ

; 100  : 	strTabIndicator.LoadString(IDS_TAB_INDICATOR_SET);

  00094	6a 1b		 push	 27			; 0000001bH
  00096	8d 4d bc	 lea	 ecx, DWORD PTR _strTabIndicator$[ebp]
  00099	c6 45 fc 03	 mov	 BYTE PTR __$EHRec$[ebp+8], 3
  0009d	ff 15 00 00 00
	00		 call	 DWORD PTR __imp_?LoadStringA@?$CStringT@DV?$StrTraitMFC_DLL@DV?$ChTraitsCRT@D@ATL@@@@@ATL@@QAEHI@Z

; 101  : 	strTabBase.LoadString(IDS_TAB_BASE_SET);

  000a3	6a 1c		 push	 28			; 0000001cH
  000a5	8d 4d c0	 lea	 ecx, DWORD PTR _strTabBase$[ebp]
  000a8	ff 15 00 00 00
	00		 call	 DWORD PTR __imp_?LoadStringA@?$CStringT@DV?$StrTraitMFC_DLL@DV?$ChTraitsCRT@D@ATL@@@@@ATL@@QAEHI@Z

; 102  : 	strTabAnal.LoadString(IDS_TAB_ANAL_SET);

  000ae	6a 1e		 push	 30			; 0000001eH
  000b0	8d 4d b8	 lea	 ecx, DWORD PTR _strTabAnal$[ebp]
  000b3	ff 15 00 00 00
	00		 call	 DWORD PTR __imp_?LoadStringA@?$CStringT@DV?$StrTraitMFC_DLL@DV?$ChTraitsCRT@D@ATL@@@@@ATL@@QAEHI@Z

; 103  : 	strTabStyle.LoadString(IDS_TAB_STYLE_SET);

  000b9	6a 1d		 push	 29			; 0000001dH
  000bb	8d 4d c4	 lea	 ecx, DWORD PTR _strTabStyle$[ebp]
  000be	ff 15 00 00 00
	00		 call	 DWORD PTR __imp_?LoadStringA@?$CStringT@DV?$StrTraitMFC_DLL@DV?$ChTraitsCRT@D@ATL@@@@@ATL@@QAEHI@Z

; 529  : 	IChartManager *pIChartManager = m_pIChartOCX->GetIChartManager();

  000c4	8b 8e a4 00 00
	00		 mov	 ecx, DWORD PTR [esi+164]
  000ca	8b 01		 mov	 eax, DWORD PTR [ecx]
  000cc	ff 50 18	 call	 DWORD PTR [eax+24]
  000cf	8b c8		 mov	 ecx, eax

; 530  : 
; 531  : 	m_bPriceChart = FALSE;

  000d1	c7 86 c0 00 00
	00 00 00 00 00	 mov	 DWORD PTR [esi+192], 0

; 532  : 
; 533  : 	int nUpSpace = 0, nDownSpace = 0;
; 534  : 	int nR = 0, nC = 0, nV = 0, nG = 0;
; 535  : 	ILPCSTR szGraphName = pIChartManager->FindFirstIndicator( _MTEXT( C2_PRICE_CHART ), nR, nC, nV, nG, NULL);

  000db	6a 00		 push	 0
  000dd	8d 45 c8	 lea	 eax, DWORD PTR _nG$5[ebp]
  000e0	c7 45 b4 00 00
	00 00		 mov	 DWORD PTR _nR$4[ebp], 0
  000e7	50		 push	 eax
  000e8	8d 45 cc	 lea	 eax, DWORD PTR _nV$6[ebp]
  000eb	c7 45 b0 00 00
	00 00		 mov	 DWORD PTR _nC$3[ebp], 0
  000f2	50		 push	 eax
  000f3	8d 45 b0	 lea	 eax, DWORD PTR _nC$3[ebp]
  000f6	c7 45 cc 00 00
	00 00		 mov	 DWORD PTR _nV$6[ebp], 0
  000fd	50		 push	 eax
  000fe	8d 45 b4	 lea	 eax, DWORD PTR _nR$4[ebp]
  00101	c7 45 c8 00 00
	00 00		 mov	 DWORD PTR _nG$5[ebp], 0
  00108	8b 11		 mov	 edx, DWORD PTR [ecx]
  0010a	50		 push	 eax
  0010b	a1 54 00 00 00	 mov	 eax, DWORD PTR ?g_iMetaTable@@3VIMetaTable@@A+84
  00110	ff b0 28 03 00
	00		 push	 DWORD PTR [eax+808]
  00116	ff 52 58	 call	 DWORD PTR [edx+88]
; File D:\git\src\IBK\IBK_DRFN\ProjSrc\SrcChartEx\ChartAddIn\ChartEnvSetupDlgAddIn\Include_AddIn_135914\I135914\_IString.h

; 39   : 		m_pIStrData = p_pIString;	// Do not AddRef(). Because It must be Return Value.

  00119	8b f8		 mov	 edi, eax

; 40   : 		if( m_pIStrData) m_szData = m_pIStrData->GetData();

  0011b	85 ff		 test	 edi, edi
  0011d	74 1a		 je	 SHORT $LN29@Init
  0011f	8b 17		 mov	 edx, DWORD PTR [edi]
  00121	8b cf		 mov	 ecx, edi
  00123	ff 52 10	 call	 DWORD PTR [edx+16]

; 57   : 		if( !m_szData) return TRUE;

  00126	85 c0		 test	 eax, eax
  00128	74 0f		 je	 SHORT $LN29@Init
; File D:\git\src\IBK\IBK_DRFN\ProjSrc\SrcChartEx\ChartAddIn\ChartEnvSetupDlgAddIn\ChartEnvSetupDlgAddIn\TabMainChartEnvSetUp.cpp

; 536  : 	if( !szGraphName.IsEmpty())

  0012a	80 38 00	 cmp	 BYTE PTR [eax], 0
  0012d	74 0a		 je	 SHORT $LN29@Init

; 537  : 	{
; 538  : 		m_bPriceChart = TRUE;

  0012f	c7 86 c0 00 00
	00 01 00 00 00	 mov	 DWORD PTR [esi+192], 1
$LN29@Init:
; File D:\git\src\IBK\IBK_DRFN\ProjSrc\SrcChartEx\ChartAddIn\ChartEnvSetupDlgAddIn\Include_AddIn_135914\I135914\_IString.h

; 44   : 	{

  00139	c6 45 fc 04	 mov	 BYTE PTR __$EHRec$[ebp+8], 4

; 45   : 		if( m_pIStrData)

  0013d	85 ff		 test	 edi, edi
  0013f	74 06		 je	 SHORT $LN40@Init

; 46   : 		{
; 47   : 			m_pIStrData->Release();

  00141	8b 07		 mov	 eax, DWORD PTR [edi]
  00143	57		 push	 edi
  00144	ff 50 08	 call	 DWORD PTR [eax+8]
$LN40@Init:
; File D:\git\src\IBK\IBK_DRFN\ProjSrc\SrcChartEx\ChartAddIn\ChartEnvSetupDlgAddIn\ChartEnvSetupDlgAddIn\TabMainChartEnvSetUp.cpp

; 111  : 	switch( m_nUIType )

  00147	8b 86 bc 00 00
	00		 mov	 eax, DWORD PTR [esi+188]
  0014d	8b 5d 14	 mov	 ebx, DWORD PTR _nActiveTabIdx$[ebp]
; File D:\git\src\IBK\IBK_DRFN\ProjSrc\SrcChartEx\ChartAddIn\ChartEnvSetupDlgAddIn\Include_AddIn_135914\I135914\_IString.h

; 51   : 	}

  00150	c6 45 fc 03	 mov	 BYTE PTR __$EHRec$[ebp+8], 3
; File D:\git\src\IBK\IBK_DRFN\ProjSrc\SrcChartEx\ChartAddIn\ChartEnvSetupDlgAddIn\ChartEnvSetupDlgAddIn\TabMainChartEnvSetUp.cpp

; 111  : 	switch( m_nUIType )

  00154	83 e8 00	 sub	 eax, 0
  00157	0f 84 9d 00 00
	00		 je	 $LN7@Init
  0015d	83 e8 01	 sub	 eax, 1
  00160	74 56		 je	 SHORT $LN8@Init
  00162	83 e8 02	 sub	 eax, 2
  00165	0f 85 e1 00 00
	00		 jne	 $LN2@Init

; 143  : 		}
; 144  : 		//     - ojtaso (20080109)
; 145  : 		case LOAD_SEL_ITEM:
; 146  : 		{
; 147  : 			if(nActiveTabIdx == 0)

  0016b	85 db		 test	 ebx, ebx
  0016d	75 07		 jne	 SHORT $LN10@Init
; File C:\Program Files (x86)\Microsoft Visual Studio\2019\Community\VC\Tools\MSVC\14.29.30133\atlmfc\include\afxcmn.inl

; 576  : 	{ ASSERT(::IsWindow(m_hWnd)); return CTabCtrl::InsertItem(TCIF_TEXT, nItem, lpszItem, 0, 0); }

  0016f	50		 push	 eax
  00170	50		 push	 eax
  00171	ff 75 bc	 push	 DWORD PTR _strTabIndicator$[ebp]
; File D:\git\src\IBK\IBK_DRFN\ProjSrc\SrcChartEx\ChartAddIn\ChartEnvSetupDlgAddIn\ChartEnvSetupDlgAddIn\TabMainChartEnvSetUp.cpp

; 148  : 				InsertItem( 0, strTabIndicator );

  00174	eb 28		 jmp	 SHORT $LN197@Init
$LN10@Init:

; 149  : 			else if(nActiveTabIdx == 1)

  00176	83 fb 01	 cmp	 ebx, 1
  00179	75 09		 jne	 SHORT $LN12@Init
; File C:\Program Files (x86)\Microsoft Visual Studio\2019\Community\VC\Tools\MSVC\14.29.30133\atlmfc\include\afxcmn.inl

; 576  : 	{ ASSERT(::IsWindow(m_hWnd)); return CTabCtrl::InsertItem(TCIF_TEXT, nItem, lpszItem, 0, 0); }

  0017b	6a 00		 push	 0
  0017d	6a 00		 push	 0
  0017f	ff 75 c0	 push	 DWORD PTR _strTabBase$[ebp]
; File D:\git\src\IBK\IBK_DRFN\ProjSrc\SrcChartEx\ChartAddIn\ChartEnvSetupDlgAddIn\ChartEnvSetupDlgAddIn\TabMainChartEnvSetUp.cpp

; 150  : 				InsertItem( 0, strTabBase );

  00182	eb 1a		 jmp	 SHORT $LN197@Init
$LN12@Init:

; 151  : 			else if(nActiveTabIdx == 2)

  00184	83 fb 02	 cmp	 ebx, 2
  00187	75 09		 jne	 SHORT $LN14@Init
; File C:\Program Files (x86)\Microsoft Visual Studio\2019\Community\VC\Tools\MSVC\14.29.30133\atlmfc\include\afxcmn.inl

; 576  : 	{ ASSERT(::IsWindow(m_hWnd)); return CTabCtrl::InsertItem(TCIF_TEXT, nItem, lpszItem, 0, 0); }

  00189	6a 00		 push	 0
  0018b	6a 00		 push	 0
  0018d	ff 75 b8	 push	 DWORD PTR _strTabAnal$[ebp]
; File D:\git\src\IBK\IBK_DRFN\ProjSrc\SrcChartEx\ChartAddIn\ChartEnvSetupDlgAddIn\ChartEnvSetupDlgAddIn\TabMainChartEnvSetUp.cpp

; 152  : 				InsertItem( 0, strTabAnal );

  00190	eb 0c		 jmp	 SHORT $LN197@Init
$LN14@Init:

; 153  : 			else if(nActiveTabIdx == 3)

  00192	83 fb 03	 cmp	 ebx, 3
  00195	75 12		 jne	 SHORT $LN16@Init
; File C:\Program Files (x86)\Microsoft Visual Studio\2019\Community\VC\Tools\MSVC\14.29.30133\atlmfc\include\afxcmn.inl

; 576  : 	{ ASSERT(::IsWindow(m_hWnd)); return CTabCtrl::InsertItem(TCIF_TEXT, nItem, lpszItem, 0, 0); }

  00197	6a 00		 push	 0
  00199	6a 00		 push	 0
  0019b	ff 75 c4	 push	 DWORD PTR _strTabStyle$[ebp]
$LN197@Init:
; File D:\git\src\IBK\IBK_DRFN\ProjSrc\SrcChartEx\ChartAddIn\ChartEnvSetupDlgAddIn\ChartEnvSetupDlgAddIn\TabMainChartEnvSetUp.cpp

; 156  : 			m_nTotalTabPages = 1;

  0019e	6a 00		 push	 0
  001a0	6a 01		 push	 1
  001a2	8b ce		 mov	 ecx, esi
  001a4	e8 00 00 00 00	 call	 ?InsertItem@CTabCtrl@@QAEJIHPBDHJ@Z ; CTabCtrl::InsertItem
$LN16@Init:
  001a9	c7 86 80 00 00
	00 01 00 00 00	 mov	 DWORD PTR [esi+128], 1
  001b3	e9 94 00 00 00	 jmp	 $LN2@Init
$LN8@Init:
; File C:\Program Files (x86)\Microsoft Visual Studio\2019\Community\VC\Tools\MSVC\14.29.30133\atlmfc\include\afxcmn.inl

; 576  : 	{ ASSERT(::IsWindow(m_hWnd)); return CTabCtrl::InsertItem(TCIF_TEXT, nItem, lpszItem, 0, 0); }

  001b8	6a 00		 push	 0
  001ba	6a 00		 push	 0
  001bc	ff 75 bc	 push	 DWORD PTR _strTabIndicator$[ebp]
  001bf	8b ce		 mov	 ecx, esi
  001c1	6a 00		 push	 0
  001c3	6a 01		 push	 1
  001c5	e8 00 00 00 00	 call	 ?InsertItem@CTabCtrl@@QAEJIHPBDHJ@Z ; CTabCtrl::InsertItem
  001ca	6a 00		 push	 0
  001cc	6a 00		 push	 0
  001ce	ff 75 c0	 push	 DWORD PTR _strTabBase$[ebp]
  001d1	8b ce		 mov	 ecx, esi
  001d3	6a 01		 push	 1
  001d5	6a 01		 push	 1
  001d7	e8 00 00 00 00	 call	 ?InsertItem@CTabCtrl@@QAEJIHPBDHJ@Z ; CTabCtrl::InsertItem
  001dc	6a 00		 push	 0
  001de	6a 00		 push	 0
  001e0	ff 75 c4	 push	 DWORD PTR _strTabStyle$[ebp]
  001e3	8b ce		 mov	 ecx, esi
  001e5	6a 02		 push	 2
  001e7	6a 01		 push	 1
  001e9	e8 00 00 00 00	 call	 ?InsertItem@CTabCtrl@@QAEJIHPBDHJ@Z ; CTabCtrl::InsertItem
; File D:\git\src\IBK\IBK_DRFN\ProjSrc\SrcChartEx\ChartAddIn\ChartEnvSetupDlgAddIn\ChartEnvSetupDlgAddIn\TabMainChartEnvSetUp.cpp

; 141  : 			m_nTotalTabPages = 3;

  001ee	c7 86 80 00 00
	00 03 00 00 00	 mov	 DWORD PTR [esi+128], 3

; 142  : 			break;

  001f8	eb 52		 jmp	 SHORT $LN2@Init
$LN7@Init:
; File C:\Program Files (x86)\Microsoft Visual Studio\2019\Community\VC\Tools\MSVC\14.29.30133\atlmfc\include\afxcmn.inl

; 576  : 	{ ASSERT(::IsWindow(m_hWnd)); return CTabCtrl::InsertItem(TCIF_TEXT, nItem, lpszItem, 0, 0); }

  001fa	6a 00		 push	 0
  001fc	6a 00		 push	 0
  001fe	ff 75 bc	 push	 DWORD PTR _strTabIndicator$[ebp]
  00201	8b ce		 mov	 ecx, esi
  00203	6a 00		 push	 0
  00205	6a 01		 push	 1
  00207	e8 00 00 00 00	 call	 ?InsertItem@CTabCtrl@@QAEJIHPBDHJ@Z ; CTabCtrl::InsertItem
  0020c	6a 00		 push	 0
  0020e	6a 00		 push	 0
  00210	ff 75 c0	 push	 DWORD PTR _strTabBase$[ebp]
  00213	8b ce		 mov	 ecx, esi
  00215	6a 01		 push	 1
  00217	6a 01		 push	 1
  00219	e8 00 00 00 00	 call	 ?InsertItem@CTabCtrl@@QAEJIHPBDHJ@Z ; CTabCtrl::InsertItem
  0021e	6a 00		 push	 0
  00220	6a 00		 push	 0
  00222	ff 75 b8	 push	 DWORD PTR _strTabAnal$[ebp]
  00225	8b ce		 mov	 ecx, esi
  00227	6a 02		 push	 2
  00229	6a 01		 push	 1
  0022b	e8 00 00 00 00	 call	 ?InsertItem@CTabCtrl@@QAEJIHPBDHJ@Z ; CTabCtrl::InsertItem
  00230	6a 00		 push	 0
  00232	6a 00		 push	 0
  00234	ff 75 c4	 push	 DWORD PTR _strTabStyle$[ebp]
  00237	8b ce		 mov	 ecx, esi
  00239	6a 03		 push	 3
  0023b	6a 01		 push	 1
  0023d	e8 00 00 00 00	 call	 ?InsertItem@CTabCtrl@@QAEJIHPBDHJ@Z ; CTabCtrl::InsertItem
; File D:\git\src\IBK\IBK_DRFN\ProjSrc\SrcChartEx\ChartAddIn\ChartEnvSetupDlgAddIn\ChartEnvSetupDlgAddIn\TabMainChartEnvSetUp.cpp

; 126  : 			m_nTotalTabPages = 4;

  00242	c7 86 80 00 00
	00 04 00 00 00	 mov	 DWORD PTR [esi+128], 4
$LN2@Init:

; 157  : 			break;
; 158  : 		}
; 159  : 	}
; 160  : 
; 161  : 	if( m_nUIType < 0 )
; 162  : 		m_nCurTabPage = 0;
; 163  : 	else
; 164  : 		m_nCurTabPage = nActiveTabIdx;
; 165  : 
; 166  : 	// 4. TabPage .
; 167  : 	//<<20100420_JS.Kim  
; 168  : 	//CreateTabPage();
; 169  : 	if( CreateTabPage() == FALSE )

  0024c	33 c0		 xor	 eax, eax
  0024e	8b ce		 mov	 ecx, esi
  00250	39 86 bc 00 00
	00		 cmp	 DWORD PTR [esi+188], eax
  00256	0f 4d c3	 cmovge	 eax, ebx
  00259	89 86 84 00 00
	00		 mov	 DWORD PTR [esi+132], eax
  0025f	e8 00 00 00 00	 call	 ?CreateTabPage@CTabMainChartEnvSetUp@@AAEHXZ ; CTabMainChartEnvSetUp::CreateTabPage
  00264	85 c0		 test	 eax, eax
  00266	75 07		 jne	 SHORT $LN19@Init
  00268	33 f6		 xor	 esi, esi
  0026a	e9 3b 02 00 00	 jmp	 $LN27@Init
$LN19@Init:

; 170  : 		return FALSE;
; 171  : 	//>>
; 172  : 	
; 173  : 	//     - ojtaso (20080109)
; 174  : 	if(m_nUIType == LOAD_SEL_ITEM)

  0026f	83 be bc 00 00
	00 03		 cmp	 DWORD PTR [esi+188], 3
  00276	75 0a		 jne	 SHORT $LN192@Init

; 175  : 		m_nCurTabPage = 0;

  00278	c7 86 84 00 00
	00 00 00 00 00	 mov	 DWORD PTR [esi+132], 0
$LN192@Init:
; File C:\Program Files (x86)\Microsoft Visual Studio\2019\Community\VC\Tools\MSVC\14.29.30133\atlmfc\include\afxwin2.inl

; 86   : 	{ ASSERT(::IsWindow(m_hWnd)); ::GetClientRect(m_hWnd, lpRect); }

  00282	8d 45 d0	 lea	 eax, DWORD PTR _tabRect$7[ebp]
  00285	0f 57 c0	 xorps	 xmm0, xmm0
  00288	50		 push	 eax
  00289	ff 76 20	 push	 DWORD PTR [esi+32]
; File C:\Program Files (x86)\Microsoft Visual Studio\2019\Community\VC\Tools\MSVC\14.29.30133\atlmfc\include\atltypes.h

; 528  : 	left = 0;

  0028c	0f 11 45 d0	 movups	 XMMWORD PTR _tabRect$7[ebp], xmm0
  00290	0f 11 45 e0	 movups	 XMMWORD PTR _itemRect$8[ebp], xmm0
; File C:\Program Files (x86)\Microsoft Visual Studio\2019\Community\VC\Tools\MSVC\14.29.30133\atlmfc\include\afxwin2.inl

; 86   : 	{ ASSERT(::IsWindow(m_hWnd)); ::GetClientRect(m_hWnd, lpRect); }

  00294	ff 15 00 00 00
	00		 call	 DWORD PTR __imp__GetClientRect@8
; File C:\Program Files (x86)\Microsoft Visual Studio\2019\Community\VC\Tools\MSVC\14.29.30133\atlmfc\include\afxcmn.inl

; 584  : 	{ ASSERT(::IsWindow(m_hWnd)); return (BOOL)::SendMessage(m_hWnd, TCM_GETITEMRECT, nItem, (LPARAM)lpRect); }

  0029a	8d 45 e0	 lea	 eax, DWORD PTR _itemRect$8[ebp]
  0029d	50		 push	 eax
  0029e	6a 00		 push	 0
  002a0	68 0a 13 00 00	 push	 4874			; 0000130aH
  002a5	ff 76 20	 push	 DWORD PTR [esi+32]
  002a8	ff 15 00 00 00
	00		 call	 DWORD PTR __imp__SendMessageA@16
; File D:\git\src\IBK\IBK_DRFN\ProjSrc\SrcChartEx\ChartAddIn\ChartEnvSetupDlgAddIn\ChartEnvSetupDlgAddIn\TabMainChartEnvSetUp.cpp

; 322  : 	nY = itemRect.bottom + 1;

  002ae	8b 5d ec	 mov	 ebx, DWORD PTR _itemRect$8[ebp+12]
  002b1	8b 55 e0	 mov	 edx, DWORD PTR _itemRect$8[ebp]
  002b4	43		 inc	 ebx

; 323  : 	nXc = tabRect.right - itemRect.left - 1;

  002b5	8b 45 d8	 mov	 eax, DWORD PTR _tabRect$7[ebp+8]

; 324  : 	nYc = tabRect.bottom - nY - 1;

  002b8	8b 4d dc	 mov	 ecx, DWORD PTR _tabRect$7[ebp+12]
  002bb	2b c2		 sub	 eax, edx
  002bd	2b cb		 sub	 ecx, ebx
  002bf	89 5d ac	 mov	 DWORD PTR _nY$1$[ebp], ebx
  002c2	48		 dec	 eax
  002c3	89 55 c8	 mov	 DWORD PTR _nX$1$[ebp], edx
  002c6	49		 dec	 ecx
  002c7	89 45 b0	 mov	 DWORD PTR _nXc$1$[ebp], eax

; 325  : 
; 326  : 	for( int nCount = 0 ; nCount < m_nTotalTabPages ; nCount++ )

  002ca	33 db		 xor	 ebx, ebx
  002cc	89 4d cc	 mov	 DWORD PTR _nYc$1$[ebp], ecx
  002cf	39 9e 80 00 00
	00		 cmp	 DWORD PTR [esi+128], ebx
  002d5	0f 8e cc 00 00
	00		 jle	 $LN89@Init
; File C:\Program Files (x86)\Microsoft Visual Studio\2019\Community\VC\Tools\MSVC\14.29.30133\atlmfc\include\atltypes.h

; 528  : 	left = 0;

  002db	bf a8 00 00 00	 mov	 edi, 168		; 000000a8H
  002e0	89 7d b4	 mov	 DWORD PTR tv1153[ebp], edi
$LL90@Init:
; File D:\git\src\IBK\IBK_DRFN\ProjSrc\SrcChartEx\ChartAddIn\ChartEnvSetupDlgAddIn\ChartEnvSetupDlgAddIn\TabMainChartEnvSetUp.cpp

; 328  : 		if( nCount == m_nCurTabPage )

  002e3	3b 9e 84 00 00
	00		 cmp	 ebx, DWORD PTR [esi+132]
  002e9	0f 85 82 00 00
	00		 jne	 $LN91@Init
; File C:\Program Files (x86)\Microsoft Visual Studio\2019\Community\VC\Tools\MSVC\14.29.30133\atlmfc\include\afxcmn.inl

; 588  : 	{ ASSERT(::IsWindow(m_hWnd)); return (int)::SendMessage(m_hWnd, TCM_SETCURSEL, nItem, 0L); }

  002ef	6a 00		 push	 0
  002f1	53		 push	 ebx
  002f2	68 0c 13 00 00	 push	 4876			; 0000130cH
  002f7	ff 76 20	 push	 DWORD PTR [esi+32]
  002fa	ff 15 00 00 00
	00		 call	 DWORD PTR __imp__SendMessageA@16
; File D:\git\src\IBK\IBK_DRFN\ProjSrc\SrcChartEx\ChartAddIn\ChartEnvSetupDlgAddIn\ChartEnvSetupDlgAddIn\TabMainChartEnvSetUp.cpp

; 331  : 			m_aTabPages[nCount]->SetWindowPos( &wndTop, nX, nY, nXc, nYc, SWP_SHOWWINDOW );

  00300	8b 0c 3e	 mov	 ecx, DWORD PTR [esi+edi]
  00303	6a 40		 push	 64			; 00000040H
  00305	ff 75 cc	 push	 DWORD PTR _nYc$1$[ebp]
  00308	ff 75 b0	 push	 DWORD PTR _nXc$1$[ebp]
  0030b	ff 75 ac	 push	 DWORD PTR _nY$1$[ebp]
  0030e	ff 75 c8	 push	 DWORD PTR _nX$1$[ebp]
  00311	ff 35 00 00 00
	00		 push	 DWORD PTR __imp_?wndTop@CWnd@@2V1@B
  00317	e8 00 00 00 00	 call	 ?SetWindowPos@CWnd@@QAEHPBV1@HHHHI@Z ; CWnd::SetWindowPos
; File C:\Program Files (x86)\Microsoft Visual Studio\2019\Community\VC\Tools\MSVC\14.29.30133\atlmfc\include\afxtempl.h

; 1153 : 		pNode = m_pNodeHead;  // start at head

  0031c	8b 86 8c 00 00
	00		 mov	 eax, DWORD PTR [esi+140]
; File D:\git\src\IBK\IBK_DRFN\ProjSrc\SrcChartEx\ChartAddIn\ChartEnvSetupDlgAddIn\ChartEnvSetupDlgAddIn\TabMainChartEnvSetUp.cpp

; 334  : 			POSITION pos = m_lstTabActiveOrder.Find( m_nCurTabPage );

  00322	8b 96 84 00 00
	00		 mov	 edx, DWORD PTR [esi+132]
; File C:\Program Files (x86)\Microsoft Visual Studio\2019\Community\VC\Tools\MSVC\14.29.30133\atlmfc\include\afxtempl.h

; 1161 : 	for (; pNode != NULL; pNode = pNode->pNext)

  00328	85 c0		 test	 eax, eax
  0032a	74 19		 je	 SHORT $LN193@Init
  0032c	0f 1f 40 00	 npad	 4
$LL108@Init:

; 1162 : 		if (CompareElements<TYPE>(&pNode->data, &searchValue))

  00330	8d 48 08	 lea	 ecx, DWORD PTR [eax+8]

; 152  : 	ENSURE(pElement1 != NULL && pElement2 != NULL);

  00333	85 c9		 test	 ecx, ecx
  00335	0f 84 b3 01 00
	00		 je	 $LN165@Init

; 153  : 	ASSERT(AfxIsValidAddress(pElement1, sizeof(TYPE), FALSE));
; 154  : 	ASSERT(AfxIsValidAddress(pElement2, sizeof(ARG_TYPE), FALSE));
; 155  : 
; 156  : 	return *pElement1 == *pElement2;

  0033b	39 11		 cmp	 DWORD PTR [ecx], edx

; 1162 : 		if (CompareElements<TYPE>(&pNode->data, &searchValue))

  0033d	74 1e		 je	 SHORT $LN105@Init

; 1161 : 	for (; pNode != NULL; pNode = pNode->pNext)

  0033f	8b 00		 mov	 eax, DWORD PTR [eax]
  00341	85 c0		 test	 eax, eax
  00343	75 eb		 jne	 SHORT $LL108@Init
$LN193@Init:
; File D:\git\src\IBK\IBK_DRFN\ProjSrc\SrcChartEx\ChartAddIn\ChartEnvSetupDlgAddIn\ChartEnvSetupDlgAddIn\TabMainChartEnvSetUp.cpp

; 336  : 				m_lstTabActiveOrder.RemoveAt(pos);

  00345	8d be 88 00 00
	00		 lea	 edi, DWORD PTR [esi+136]
$LN93@Init:

; 337  : 			
; 338  : 			m_lstTabActiveOrder.AddTail(m_nCurTabPage);

  0034b	ff b6 84 00 00
	00		 push	 DWORD PTR [esi+132]
  00351	8b cf		 mov	 ecx, edi
  00353	e8 00 00 00 00	 call	 ?AddTail@?$CList@HH@@QAEPAU__POSITION@@H@Z ; CList<int,int>::AddTail

; 339  : 		}

  00358	8b 7d b4	 mov	 edi, DWORD PTR tv1153[ebp]
  0035b	eb 2d		 jmp	 SHORT $LN88@Init
$LN105@Init:

; 335  : 			if( pos != NULL	)

  0035d	85 c0		 test	 eax, eax
  0035f	74 e4		 je	 SHORT $LN193@Init

; 336  : 				m_lstTabActiveOrder.RemoveAt(pos);

  00361	8d be 88 00 00
	00		 lea	 edi, DWORD PTR [esi+136]
  00367	50		 push	 eax
  00368	8b cf		 mov	 ecx, edi
  0036a	e8 00 00 00 00	 call	 ?RemoveAt@?$CList@HH@@QAEXPAU__POSITION@@@Z ; CList<int,int>::RemoveAt
  0036f	eb da		 jmp	 SHORT $LN93@Init
$LN91@Init:

; 340  : 
; 341  : 		else
; 342  : 			m_aTabPages[nCount]->SetWindowPos( &wndTop, nX, nY, nXc, nYc, SWP_HIDEWINDOW );

  00371	68 80 00 00 00	 push	 128			; 00000080H
  00376	51		 push	 ecx
  00377	8b 0c 3e	 mov	 ecx, DWORD PTR [esi+edi]
  0037a	50		 push	 eax
  0037b	ff 75 ac	 push	 DWORD PTR _nY$1$[ebp]
  0037e	52		 push	 edx
  0037f	ff 35 00 00 00
	00		 push	 DWORD PTR __imp_?wndTop@CWnd@@2V1@B
  00385	e8 00 00 00 00	 call	 ?SetWindowPos@CWnd@@QAEHPBV1@HHHHI@Z ; CWnd::SetWindowPos
$LN88@Init:

; 325  : 
; 326  : 	for( int nCount = 0 ; nCount < m_nTotalTabPages ; nCount++ )

  0038a	43		 inc	 ebx
  0038b	83 c7 04	 add	 edi, 4
  0038e	89 7d b4	 mov	 DWORD PTR tv1153[ebp], edi
  00391	3b 9e 80 00 00
	00		 cmp	 ebx, DWORD PTR [esi+128]
  00397	7d 0e		 jge	 SHORT $LN89@Init
  00399	8b 45 b0	 mov	 eax, DWORD PTR _nXc$1$[ebp]
  0039c	8b 4d cc	 mov	 ecx, DWORD PTR _nYc$1$[ebp]
  0039f	8b 55 c8	 mov	 edx, DWORD PTR _nX$1$[ebp]
  003a2	e9 3c ff ff ff	 jmp	 $LL90@Init
$LN89@Init:
; File C:\Program Files (x86)\Microsoft Visual Studio\2019\Community\VC\Tools\MSVC\14.29.30133\atlmfc\include\afxcmn.inl

; 586  : 	{ ASSERT(::IsWindow(m_hWnd)); return (int)::SendMessage(m_hWnd, TCM_GETCURSEL, 0, 0L); }

  003a7	6a 00		 push	 0
  003a9	6a 00		 push	 0
  003ab	68 0b 13 00 00	 push	 4875			; 0000130bH
  003b0	ff 76 20	 push	 DWORD PTR [esi+32]
; File D:\git\src\IBK\IBK_DRFN\ProjSrc\SrcChartEx\ChartAddIn\ChartEnvSetupDlgAddIn\ChartEnvSetupDlgAddIn\TabMainChartEnvSetUp.cpp

; 180  : 	m_nCurTabPage = 0;

  003b3	c7 86 84 00 00
	00 00 00 00 00	 mov	 DWORD PTR [esi+132], 0
; File C:\Program Files (x86)\Microsoft Visual Studio\2019\Community\VC\Tools\MSVC\14.29.30133\atlmfc\include\afxcmn.inl

; 586  : 	{ ASSERT(::IsWindow(m_hWnd)); return (int)::SendMessage(m_hWnd, TCM_GETCURSEL, 0, 0L); }

  003bd	ff 15 00 00 00
	00		 call	 DWORD PTR __imp__SendMessageA@16
; File D:\git\src\IBK\IBK_DRFN\ProjSrc\SrcChartEx\ChartAddIn\ChartEnvSetupDlgAddIn\ChartEnvSetupDlgAddIn\TabMainChartEnvSetUp.cpp

; 358  : 	m_nCurTabPage = GetCurSel();

  003c3	89 86 84 00 00
	00		 mov	 DWORD PTR [esi+132], eax

; 359  : 	*pResult = 0;
; 360  : 
; 361  : 	if(nPrevTabPageIndex == m_nCurTabPage)

  003c9	85 c0		 test	 eax, eax
  003cb	0f 84 bc 00 00
	00		 je	 $LN169@Init

; 362  : 		return;
; 363  : 
; 364  : 	CBaseTabDlg* pPrevTabDlg = m_aTabPages[nPrevTabPageIndex];

  003d1	8b 9e a8 00 00
	00		 mov	 ebx, DWORD PTR [esi+168]
  003d7	8d be a8 00 00
	00		 lea	 edi, DWORD PTR [esi+168]

; 365  : 	CBaseTabDlg* pCurTabDlg = m_aTabPages[m_nCurTabPage];

  003dd	8b 84 86 a8 00
	00 00		 mov	 eax, DWORD PTR [esi+eax*4+168]
  003e4	89 5d cc	 mov	 DWORD PTR _pPrevTabDlg$1$[ebp], ebx
  003e7	89 45 c8	 mov	 DWORD PTR _pCurTabDlg$1$[ebp], eax

; 366  : 	if(pPrevTabDlg == NULL || pCurTabDlg == NULL)

  003ea	85 db		 test	 ebx, ebx
  003ec	0f 84 9b 00 00
	00		 je	 $LN169@Init
  003f2	85 c0		 test	 eax, eax
  003f4	0f 84 93 00 00
	00		 je	 $LN169@Init

; 367  : 		return;
; 368  : 
; 369  : 	if( nPrevTabPageIndex == 0 && m_nCurTabPage != 0 )
; 370  : 		TabPageMoveWindow(FALSE);

  003fa	6a 00		 push	 0
  003fc	8b ce		 mov	 ecx, esi
  003fe	e8 00 00 00 00	 call	 ?TabPageMoveWindow@CTabMainChartEnvSetUp@@QAEXH@Z ; CTabMainChartEnvSetUp::TabPageMoveWindow
; File C:\Program Files (x86)\Microsoft Visual Studio\2019\Community\VC\Tools\MSVC\14.29.30133\atlmfc\include\afxtempl.h

; 1153 : 		pNode = m_pNodeHead;  // start at head

  00403	8b 86 8c 00 00
	00		 mov	 eax, DWORD PTR [esi+140]
; File D:\git\src\IBK\IBK_DRFN\ProjSrc\SrcChartEx\ChartAddIn\ChartEnvSetupDlgAddIn\ChartEnvSetupDlgAddIn\TabMainChartEnvSetUp.cpp

; 375  : 	POSITION pos = m_lstTabActiveOrder.Find( m_nCurTabPage );

  00409	8b 96 84 00 00
	00		 mov	 edx, DWORD PTR [esi+132]
; File C:\Program Files (x86)\Microsoft Visual Studio\2019\Community\VC\Tools\MSVC\14.29.30133\atlmfc\include\afxtempl.h

; 1161 : 	for (; pNode != NULL; pNode = pNode->pNext)

  0040f	85 c0		 test	 eax, eax
  00411	74 27		 je	 SHORT $LN180@Init
$LL138@Init:

; 1162 : 		if (CompareElements<TYPE>(&pNode->data, &searchValue))

  00413	8d 48 08	 lea	 ecx, DWORD PTR [eax+8]

; 152  : 	ENSURE(pElement1 != NULL && pElement2 != NULL);

  00416	85 c9		 test	 ecx, ecx
  00418	0f 84 d0 00 00
	00		 je	 $LN165@Init

; 153  : 	ASSERT(AfxIsValidAddress(pElement1, sizeof(TYPE), FALSE));
; 154  : 	ASSERT(AfxIsValidAddress(pElement2, sizeof(ARG_TYPE), FALSE));
; 155  : 
; 156  : 	return *pElement1 == *pElement2;

  0041e	39 11		 cmp	 DWORD PTR [ecx], edx

; 1162 : 		if (CompareElements<TYPE>(&pNode->data, &searchValue))

  00420	74 08		 je	 SHORT $LN135@Init

; 1161 : 	for (; pNode != NULL; pNode = pNode->pNext)

  00422	8b 00		 mov	 eax, DWORD PTR [eax]
  00424	85 c0		 test	 eax, eax
  00426	75 eb		 jne	 SHORT $LL138@Init
  00428	eb 10		 jmp	 SHORT $LN180@Init
$LN135@Init:
; File D:\git\src\IBK\IBK_DRFN\ProjSrc\SrcChartEx\ChartAddIn\ChartEnvSetupDlgAddIn\ChartEnvSetupDlgAddIn\TabMainChartEnvSetUp.cpp

; 376  : 	if( pos != NULL	)

  0042a	85 c0		 test	 eax, eax
  0042c	74 0c		 je	 SHORT $LN180@Init

; 377  : 		m_lstTabActiveOrder.RemoveAt(pos);

  0042e	8d 8e 88 00 00
	00		 lea	 ecx, DWORD PTR [esi+136]
  00434	50		 push	 eax
  00435	e8 00 00 00 00	 call	 ?RemoveAt@?$CList@HH@@QAEXPAU__POSITION@@@Z ; CList<int,int>::RemoveAt
$LN180@Init:

; 378  : 
; 379  : 	m_lstTabActiveOrder.AddTail(m_nCurTabPage);

  0043a	ff b6 84 00 00
	00		 push	 DWORD PTR [esi+132]
  00440	8d 8e 88 00 00
	00		 lea	 ecx, DWORD PTR [esi+136]
  00446	e8 00 00 00 00	 call	 ?AddTail@?$CList@HH@@QAEPAU__POSITION@@H@Z ; CList<int,int>::AddTail

; 380  : 
; 381  : 	// tab 
; 382  : 	pPrevTabDlg->ShowWindow(SW_HIDE);

  0044b	6a 00		 push	 0
  0044d	8b cb		 mov	 ecx, ebx
  0044f	e8 00 00 00 00	 call	 ?ShowWindow@CWnd@@QAEHH@Z ; CWnd::ShowWindow

; 383  : 	pCurTabDlg->ShowWindow(SW_SHOW);

  00454	8b 4d c8	 mov	 ecx, DWORD PTR _pCurTabDlg$1$[ebp]
  00457	6a 05		 push	 5
  00459	e8 00 00 00 00	 call	 ?ShowWindow@CWnd@@QAEHH@Z ; CWnd::ShowWindow

; 384  : 	pCurTabDlg->SetFocus();

  0045e	8b 4d c8	 mov	 ecx, DWORD PTR _pCurTabDlg$1$[ebp]
  00461	e8 00 00 00 00	 call	 ?SetFocus@CWnd@@QAEPAV1@XZ ; CWnd::SetFocus

; 398  : 	for(int nIndex = 0; nIndex < m_nTotalTabPages; nIndex++)

  00466	33 db		 xor	 ebx, ebx
  00468	39 9e 80 00 00
	00		 cmp	 DWORD PTR [esi+128], ebx
  0046e	7e 1d		 jle	 SHORT $LN169@Init
$LL156@Init:

; 399  : 	{
; 400  : 		CBaseTabDlg* pTabDlg = m_aTabPages[nIndex];

  00470	8b 0f		 mov	 ecx, DWORD PTR [edi]

; 401  : 		if(pTabDlg == NULL)

  00472	85 c9		 test	 ecx, ecx
  00474	74 17		 je	 SHORT $LN169@Init

; 402  : 			break;
; 403  : 
; 404  : 		if(pTabDlg->ChangeTabPage(pSourceTabDlg))

  00476	8b 01		 mov	 eax, DWORD PTR [ecx]
  00478	ff 75 cc	 push	 DWORD PTR _pPrevTabDlg$1$[ebp]
  0047b	ff 90 94 01 00
	00		 call	 DWORD PTR [eax+404]
  00481	43		 inc	 ebx
  00482	83 c7 04	 add	 edi, 4
  00485	3b 9e 80 00 00
	00		 cmp	 ebx, DWORD PTR [esi+128]
  0048b	7c e3		 jl	 SHORT $LL156@Init
$LN169@Init:

; 181  : 	OnSelchange( NULL, &lResult);
; 182  : 
; 183  : 	//     - ojtaso (20080109)
; 184  : 	if(m_nUIType == LOAD_SEL_ITEM && nActiveTabIdx)

  0048d	83 be bc 00 00
	00 03		 cmp	 DWORD PTR [esi+188], 3
  00494	75 0f		 jne	 SHORT $LN21@Init
  00496	83 7d 14 00	 cmp	 DWORD PTR _nActiveTabIdx$[ebp], 0
  0049a	74 09		 je	 SHORT $LN21@Init

; 185  : 		TabPageMoveWindow(FALSE);

  0049c	6a 00		 push	 0
  0049e	8b ce		 mov	 ecx, esi
  004a0	e8 00 00 00 00	 call	 ?TabPageMoveWindow@CTabMainChartEnvSetUp@@QAEXH@Z ; CTabMainChartEnvSetUp::TabPageMoveWindow
$LN21@Init:

; 186  : 
; 187  : 	return TRUE;

  004a5	be 01 00 00 00	 mov	 esi, 1
$LN27@Init:
  004aa	8d 4d c4	 lea	 ecx, DWORD PTR _strTabStyle$[ebp]
  004ad	ff 15 00 00 00
	00		 call	 DWORD PTR __imp_??1?$CStringT@DV?$StrTraitMFC_DLL@DV?$ChTraitsCRT@D@ATL@@@@@ATL@@QAE@XZ
  004b3	8d 4d b8	 lea	 ecx, DWORD PTR _strTabAnal$[ebp]
  004b6	ff 15 00 00 00
	00		 call	 DWORD PTR __imp_??1?$CStringT@DV?$StrTraitMFC_DLL@DV?$ChTraitsCRT@D@ATL@@@@@ATL@@QAE@XZ
  004bc	8d 4d c0	 lea	 ecx, DWORD PTR _strTabBase$[ebp]
  004bf	ff 15 00 00 00
	00		 call	 DWORD PTR __imp_??1?$CStringT@DV?$StrTraitMFC_DLL@DV?$ChTraitsCRT@D@ATL@@@@@ATL@@QAE@XZ
  004c5	8d 4d bc	 lea	 ecx, DWORD PTR _strTabIndicator$[ebp]
  004c8	ff 15 00 00 00
	00		 call	 DWORD PTR __imp_??1?$CStringT@DV?$StrTraitMFC_DLL@DV?$ChTraitsCRT@D@ATL@@@@@ATL@@QAE@XZ
  004ce	8b c6		 mov	 eax, esi
$LN1@Init:

; 188  : }

  004d0	8b 4d f4	 mov	 ecx, DWORD PTR __$EHRec$[ebp]
  004d3	64 89 0d 00 00
	00 00		 mov	 DWORD PTR fs:0, ecx
  004da	59		 pop	 ecx
  004db	5f		 pop	 edi
  004dc	5e		 pop	 esi
  004dd	5b		 pop	 ebx
  004de	8b 4d f0	 mov	 ecx, DWORD PTR __$ArrayPad$[ebp]
  004e1	33 cd		 xor	 ecx, ebp
  004e3	e8 00 00 00 00	 call	 @__security_check_cookie@4
  004e8	8b e5		 mov	 esp, ebp
  004ea	5d		 pop	 ebp
  004eb	c2 10 00	 ret	 16			; 00000010H
$LN165@Init:
  004ee	e8 00 00 00 00	 call	 ?AfxThrowInvalidArgException@@YGXXZ ; AfxThrowInvalidArgException
$LN196@Init:
  004f3	cc		 int	 3
_TEXT	ENDS
;	COMDAT text$x
text$x	SEGMENT
__unwindfunclet$?Init@CTabMainChartEnvSetUp@@QAEHPAUIChartOCX135914@@PAVCDlgEnvSetUpAll@@HH@Z$0:
  00000	8d 4d bc	 lea	 ecx, DWORD PTR _strTabIndicator$[ebp]
  00003	ff 25 00 00 00
	00		 jmp	 DWORD PTR __imp_??1?$CStringT@DV?$StrTraitMFC_DLL@DV?$ChTraitsCRT@D@ATL@@@@@ATL@@QAE@XZ
__unwindfunclet$?Init@CTabMainChartEnvSetUp@@QAEHPAUIChartOCX135914@@PAVCDlgEnvSetUpAll@@HH@Z$1:
  00009	8d 4d c0	 lea	 ecx, DWORD PTR _strTabBase$[ebp]
  0000c	ff 25 00 00 00
	00		 jmp	 DWORD PTR __imp_??1?$CStringT@DV?$StrTraitMFC_DLL@DV?$ChTraitsCRT@D@ATL@@@@@ATL@@QAE@XZ
__unwindfunclet$?Init@CTabMainChartEnvSetUp@@QAEHPAUIChartOCX135914@@PAVCDlgEnvSetUpAll@@HH@Z$2:
  00012	8d 4d b8	 lea	 ecx, DWORD PTR _strTabAnal$[ebp]
  00015	ff 25 00 00 00
	00		 jmp	 DWORD PTR __imp_??1?$CStringT@DV?$StrTraitMFC_DLL@DV?$ChTraitsCRT@D@ATL@@@@@ATL@@QAE@XZ
__unwindfunclet$?Init@CTabMainChartEnvSetUp@@QAEHPAUIChartOCX135914@@PAVCDlgEnvSetUpAll@@HH@Z$3:
  0001b	8d 4d c4	 lea	 ecx, DWORD PTR _strTabStyle$[ebp]
  0001e	ff 25 00 00 00
	00		 jmp	 DWORD PTR __imp_??1?$CStringT@DV?$StrTraitMFC_DLL@DV?$ChTraitsCRT@D@ATL@@@@@ATL@@QAE@XZ
  00024	cc		 int	 3
  00025	cc		 int	 3
  00026	cc		 int	 3
  00027	cc		 int	 3
  00028	cc		 int	 3
__ehhandler$?Init@CTabMainChartEnvSetUp@@QAEHPAUIChartOCX135914@@PAVCDlgEnvSetUpAll@@HH@Z:
  00029	90		 npad	 1
  0002a	90		 npad	 1
  0002b	8b 54 24 08	 mov	 edx, DWORD PTR [esp+8]
  0002f	8d 42 0c	 lea	 eax, DWORD PTR [edx+12]
  00032	8b 4a a8	 mov	 ecx, DWORD PTR [edx-88]
  00035	33 c8		 xor	 ecx, eax
  00037	e8 00 00 00 00	 call	 @__security_check_cookie@4
  0003c	8b 4a fc	 mov	 ecx, DWORD PTR [edx-4]
  0003f	33 c8		 xor	 ecx, eax
  00041	e8 00 00 00 00	 call	 @__security_check_cookie@4
  00046	b8 00 00 00 00	 mov	 eax, OFFSET __ehfuncinfo$?Init@CTabMainChartEnvSetUp@@QAEHPAUIChartOCX135914@@PAVCDlgEnvSetUpAll@@HH@Z
  0004b	e9 00 00 00 00	 jmp	 ___CxxFrameHandler3
text$x	ENDS
?Init@CTabMainChartEnvSetUp@@QAEHPAUIChartOCX135914@@PAVCDlgEnvSetUpAll@@HH@Z ENDP ; CTabMainChartEnvSetUp::Init
; Function compile flags: /Ogtp
; File D:\git\src\IBK\IBK_DRFN\ProjSrc\SrcChartEx\ChartAddIn\ChartEnvSetupDlgAddIn\ChartEnvSetupDlgAddIn\TabMainChartEnvSetUp.cpp
; File D:\git\src\IBK\IBK_DRFN\ProjSrc\SrcChartEx\ChartAddIn\ChartEnvSetupDlgAddIn\ChartEnvSetupDlgAddIn\DlgEnvSetUpAll.h
; File D:\git\src\IBK\IBK_DRFN\ProjSrc\SrcChartEx\ChartAddIn\ChartEnvSetupDlgAddIn\ChartEnvSetupDlgAddIn\TabMainChartEnvSetUp.cpp
; File D:\git\src\IBK\IBK_DRFN\ProjSrc\SrcChartEx\ChartAddIn\ChartEnvSetupDlgAddIn\ChartEnvSetupDlgAddIn\DlgEnvSetUpAll.h
; File D:\git\src\IBK\IBK_DRFN\ProjSrc\SrcChartEx\ChartAddIn\ChartEnvSetupDlgAddIn\ChartEnvSetupDlgAddIn\TabMainChartEnvSetUp.cpp
;	COMDAT ?PreTranslateMessage@CTabMainChartEnvSetUp@@UAEHPAUtagMSG@@@Z
_TEXT	SEGMENT
_pMsg$ = 8						; size = 4
?PreTranslateMessage@CTabMainChartEnvSetUp@@UAEHPAUtagMSG@@@Z PROC ; CTabMainChartEnvSetUp::PreTranslateMessage, COMDAT
; _this$ = ecx

; 425  : {

  00000	55		 push	 ebp
  00001	8b ec		 mov	 ebp, esp
  00003	56		 push	 esi

; 426  : 	// TODO: Add your specialized code here and/or call the base class
; 427  : 	if(pMsg->message == WM_KEYDOWN)

  00004	8b 75 08	 mov	 esi, DWORD PTR _pMsg$[ebp]
  00007	57		 push	 edi
  00008	8b f9		 mov	 edi, ecx
  0000a	81 7e 04 00 01
	00 00		 cmp	 DWORD PTR [esi+4], 256	; 00000100H
  00011	75 2c		 jne	 SHORT $LN4@PreTransla

; 428  : 	{
; 429  : 		if( pMsg->wParam == VK_RETURN )

  00013	8b 46 08	 mov	 eax, DWORD PTR [esi+8]
  00016	83 f8 0d	 cmp	 eax, 13			; 0000000dH
  00019	75 11		 jne	 SHORT $LN3@PreTransla

; 430  : 		{
; 431  : 			m_pDlgEnvSetUpAll->OK();

  0001b	8b 8f b8 00 00
	00		 mov	 ecx, DWORD PTR [edi+184]
; File D:\git\src\IBK\IBK_DRFN\ProjSrc\SrcChartEx\ChartAddIn\ChartEnvSetupDlgAddIn\ChartEnvSetupDlgAddIn\DlgEnvSetUpAll.h

; 60   : 	void OK( void )			{ OnOK(); };

  00021	8b 01		 mov	 eax, DWORD PTR [ecx]
  00023	ff 90 88 01 00
	00		 call	 DWORD PTR [eax+392]
  00029	8b 46 08	 mov	 eax, DWORD PTR [esi+8]
$LN3@PreTransla:
; File D:\git\src\IBK\IBK_DRFN\ProjSrc\SrcChartEx\ChartAddIn\ChartEnvSetupDlgAddIn\ChartEnvSetupDlgAddIn\TabMainChartEnvSetUp.cpp

; 434  : 		if( pMsg->wParam == VK_ESCAPE )

  0002c	83 f8 1b	 cmp	 eax, 27			; 0000001bH
  0002f	75 0e		 jne	 SHORT $LN4@PreTransla

; 435  : 		{
; 436  : 			m_pDlgEnvSetUpAll->Cancel();

  00031	8b 8f b8 00 00
	00		 mov	 ecx, DWORD PTR [edi+184]
; File D:\git\src\IBK\IBK_DRFN\ProjSrc\SrcChartEx\ChartAddIn\ChartEnvSetupDlgAddIn\ChartEnvSetupDlgAddIn\DlgEnvSetUpAll.h

; 61   : 	void Cancel( void )		{ OnCancel(); };

  00037	8b 01		 mov	 eax, DWORD PTR [ecx]
  00039	ff 90 8c 01 00
	00		 call	 DWORD PTR [eax+396]
$LN4@PreTransla:
; File D:\git\src\IBK\IBK_DRFN\ProjSrc\SrcChartEx\ChartAddIn\ChartEnvSetupDlgAddIn\ChartEnvSetupDlgAddIn\TabMainChartEnvSetUp.cpp

; 440  : 	return CTabCtrl::PreTranslateMessage(pMsg);

  0003f	56		 push	 esi
  00040	8b cf		 mov	 ecx, edi
  00042	e8 00 00 00 00	 call	 ?PreTranslateMessage@CWnd@@UAEHPAUtagMSG@@@Z ; CWnd::PreTranslateMessage
  00047	5f		 pop	 edi
  00048	5e		 pop	 esi

; 441  : }

  00049	5d		 pop	 ebp
  0004a	c2 04 00	 ret	 4
?PreTranslateMessage@CTabMainChartEnvSetUp@@UAEHPAUtagMSG@@@Z ENDP ; CTabMainChartEnvSetUp::PreTranslateMessage
_TEXT	ENDS
; Function compile flags: /Ogtp
; File C:\Program Files (x86)\Microsoft Visual Studio\2019\Community\VC\Tools\MSVC\14.29.30133\atlmfc\include\afxtempl.h
; File C:\Program Files (x86)\Microsoft Visual Studio\2019\Community\VC\Tools\MSVC\14.29.30133\atlmfc\include\afx.inl
;	COMDAT ??_G?$CList@HH@@UAEPAXI@Z
_TEXT	SEGMENT
__$EHRec$ = -12						; size = 12
___flags$ = 8						; size = 4
??_G?$CList@HH@@UAEPAXI@Z PROC				; CList<int,int>::`scalar deleting destructor', COMDAT
; _this$ = ecx
  00000	55		 push	 ebp
  00001	8b ec		 mov	 ebp, esp
  00003	6a ff		 push	 -1
  00005	68 00 00 00 00	 push	 __ehhandler$??_G?$CList@HH@@UAEPAXI@Z
  0000a	64 a1 00 00 00
	00		 mov	 eax, DWORD PTR fs:0
  00010	50		 push	 eax
  00011	56		 push	 esi
  00012	a1 00 00 00 00	 mov	 eax, DWORD PTR ___security_cookie
  00017	33 c5		 xor	 eax, ebp
  00019	50		 push	 eax
  0001a	8d 45 f4	 lea	 eax, DWORD PTR __$EHRec$[ebp]
  0001d	64 a3 00 00 00
	00		 mov	 DWORD PTR fs:0, eax
  00023	8b f1		 mov	 esi, ecx
; File C:\Program Files (x86)\Microsoft Visual Studio\2019\Community\VC\Tools\MSVC\14.29.30133\atlmfc\include\afxtempl.h

; 872  : 	m_pBlocks->FreeDataChain();

  00025	8b 4e 14	 mov	 ecx, DWORD PTR [esi+20]

; 878  : {

  00028	c7 45 fc 00 00
	00 00		 mov	 DWORD PTR __$EHRec$[ebp+8], 0
  0002f	c7 06 00 00 00
	00		 mov	 DWORD PTR [esi], OFFSET ??_7?$CList@HH@@6B@

; 870  : 	m_nCount = 0;

  00035	c7 46 0c 00 00
	00 00		 mov	 DWORD PTR [esi+12], 0

; 871  : 	m_pNodeHead = m_pNodeTail = m_pNodeFree = NULL;

  0003c	c7 46 10 00 00
	00 00		 mov	 DWORD PTR [esi+16], 0
  00043	c7 46 08 00 00
	00 00		 mov	 DWORD PTR [esi+8], 0
  0004a	c7 46 04 00 00
	00 00		 mov	 DWORD PTR [esi+4], 0

; 872  : 	m_pBlocks->FreeDataChain();

  00051	e8 00 00 00 00	 call	 ?FreeDataChain@CPlex@@QAEXXZ ; CPlex::FreeDataChain

; 873  : 	m_pBlocks = NULL;

  00056	8b 45 08	 mov	 eax, DWORD PTR ___flags$[ebp]
  00059	c7 46 14 00 00
	00 00		 mov	 DWORD PTR [esi+20], 0
  00060	a8 01		 test	 al, 1
  00062	74 2c		 je	 SHORT $LN22@scalar
  00064	a8 04		 test	 al, 4
  00066	75 1d		 jne	 SHORT $LN3@scalar
; File C:\Program Files (x86)\Microsoft Visual Studio\2019\Community\VC\Tools\MSVC\14.29.30133\atlmfc\include\afx.inl

; 112  : 	{ ::operator delete(p); }

  00068	56		 push	 esi
  00069	e8 00 00 00 00	 call	 ??3@YAXPAX@Z		; operator delete
  0006e	83 c4 04	 add	 esp, 4
  00071	8b c6		 mov	 eax, esi
  00073	8b 4d f4	 mov	 ecx, DWORD PTR __$EHRec$[ebp]
  00076	64 89 0d 00 00
	00 00		 mov	 DWORD PTR fs:0, ecx
  0007d	59		 pop	 ecx
  0007e	5e		 pop	 esi
  0007f	8b e5		 mov	 esp, ebp
  00081	5d		 pop	 ebp
  00082	c2 04 00	 ret	 4
$LN3@scalar:
  00085	6a 1c		 push	 28			; 0000001cH
  00087	56		 push	 esi
  00088	e8 00 00 00 00	 call	 ?__global_delete@@YAXPAXI@Z ; __global_delete
  0008d	83 c4 08	 add	 esp, 8
$LN22@scalar:
  00090	8b c6		 mov	 eax, esi
  00092	8b 4d f4	 mov	 ecx, DWORD PTR __$EHRec$[ebp]
  00095	64 89 0d 00 00
	00 00		 mov	 DWORD PTR fs:0, ecx
  0009c	59		 pop	 ecx
  0009d	5e		 pop	 esi
  0009e	8b e5		 mov	 esp, ebp
  000a0	5d		 pop	 ebp
  000a1	c2 04 00	 ret	 4
  000a4	cc		 int	 3
  000a5	cc		 int	 3
  000a6	cc		 int	 3
  000a7	cc		 int	 3
  000a8	cc		 int	 3
_TEXT	ENDS
;	COMDAT text$x
text$x	SEGMENT
__ehhandler$??_G?$CList@HH@@UAEPAXI@Z:
  00000	90		 npad	 1
  00001	90		 npad	 1
  00002	8b 54 24 08	 mov	 edx, DWORD PTR [esp+8]
  00006	8d 42 0c	 lea	 eax, DWORD PTR [edx+12]
  00009	8b 4a f8	 mov	 ecx, DWORD PTR [edx-8]
  0000c	33 c8		 xor	 ecx, eax
  0000e	e8 00 00 00 00	 call	 @__security_check_cookie@4
  00013	b8 00 00 00 00	 mov	 eax, OFFSET __ehfuncinfo$??_G?$CList@HH@@UAEPAXI@Z
  00018	e9 00 00 00 00	 jmp	 ___CxxFrameHandler3
text$x	ENDS
??_G?$CList@HH@@UAEPAXI@Z ENDP				; CList<int,int>::`scalar deleting destructor'
; Function compile flags: /Ogtp
; File C:\Program Files (x86)\Microsoft Visual Studio\2019\Community\VC\Tools\MSVC\14.29.30133\atlmfc\include\afxtempl.h
; File C:\Program Files (x86)\Microsoft Visual Studio\2019\Community\VC\Tools\MSVC\14.29.30133\atlmfc\include\afx.inl
; File C:\Program Files (x86)\Microsoft Visual Studio\2019\Community\VC\Tools\MSVC\14.29.30133\atlmfc\include\afxtempl.h
; File C:\Program Files (x86)\Microsoft Visual Studio\2019\Community\VC\Tools\MSVC\14.29.30133\atlmfc\include\afx.inl
; File C:\Program Files (x86)\Microsoft Visual Studio\2019\Community\VC\Tools\MSVC\14.29.30133\atlmfc\include\afxtempl.h
; File C:\Program Files (x86)\Microsoft Visual Studio\2019\Community\VC\Tools\MSVC\14.29.30133\atlmfc\include\afx.inl
; File C:\Program Files (x86)\Microsoft Visual Studio\2019\Community\VC\Tools\MSVC\14.29.30133\atlmfc\include\afxtempl.h
; File C:\Program Files (x86)\Microsoft Visual Studio\2019\Community\VC\Tools\MSVC\14.29.30133\atlmfc\include\afx.inl
; File C:\Program Files (x86)\Microsoft Visual Studio\2019\Community\VC\Tools\MSVC\14.29.30133\atlmfc\include\afxtempl.h
; File C:\Program Files (x86)\Microsoft Visual Studio\2019\Community\VC\Tools\MSVC\14.29.30133\atlmfc\include\afx.inl
; File C:\Program Files (x86)\Microsoft Visual Studio\2019\Community\VC\Tools\MSVC\14.29.30133\atlmfc\include\afxtempl.h
; File C:\Program Files (x86)\Microsoft Visual Studio\2019\Community\VC\Tools\MSVC\14.29.30133\atlmfc\include\afx.inl
; File C:\Program Files (x86)\Microsoft Visual Studio\2019\Community\VC\Tools\MSVC\14.29.30133\atlmfc\include\afxtempl.h
;	COMDAT ?Serialize@?$CList@HH@@UAEXAAVCArchive@@@Z
_TEXT	SEGMENT
_nNewCount$1$ = -16					; size = 4
_newData$1 = -12					; size = 4
_pData$1$ = -8						; size = 4
_pNode$1$ = -8						; size = 4
_nElementsLeft$1$ = -4					; size = 4
_this$1$ = -4						; size = 4
_ar$ = 8						; size = 4
?Serialize@?$CList@HH@@UAEXAAVCArchive@@@Z PROC		; CList<int,int>::Serialize, COMDAT
; _this$ = ecx

; 1169 : {

  00000	55		 push	 ebp
  00001	8b ec		 mov	 ebp, esp
  00003	83 ec 10	 sub	 esp, 16			; 00000010H
  00006	53		 push	 ebx
  00007	8b d9		 mov	 ebx, ecx
; File C:\Program Files (x86)\Microsoft Visual Studio\2019\Community\VC\Tools\MSVC\14.29.30133\atlmfc\include\afx.inl

; 212  : 	{ return (m_nMode & CArchive::load) == 0; }

  00009	8b 4d 08	 mov	 ecx, DWORD PTR _ar$[ebp]
; File C:\Program Files (x86)\Microsoft Visual Studio\2019\Community\VC\Tools\MSVC\14.29.30133\atlmfc\include\afxtempl.h

; 1169 : {

  0000c	56		 push	 esi
  0000d	57		 push	 edi
  0000e	89 5d fc	 mov	 DWORD PTR _this$1$[ebp], ebx
; File C:\Program Files (x86)\Microsoft Visual Studio\2019\Community\VC\Tools\MSVC\14.29.30133\atlmfc\include\afx.inl

; 212  : 	{ return (m_nMode & CArchive::load) == 0; }

  00011	8b 41 18	 mov	 eax, DWORD PTR [ecx+24]
  00014	f7 d0		 not	 eax
  00016	a8 01		 test	 al, 1
; File C:\Program Files (x86)\Microsoft Visual Studio\2019\Community\VC\Tools\MSVC\14.29.30133\atlmfc\include\afxtempl.h

; 1174 : 	if (ar.IsStoring())

  00018	0f 84 ae 00 00
	00		 je	 $LN7@Serialize

; 1175 : 	{
; 1176 : 		ar.WriteCount(m_nCount);

  0001e	ff 73 0c	 push	 DWORD PTR [ebx+12]
  00021	e8 00 00 00 00	 call	 ?WriteCount@CArchive@@QAEXK@Z ; CArchive::WriteCount

; 1177 : 		for (CNode* pNode = m_pNodeHead; pNode != NULL; pNode = pNode->pNext)

  00026	8b 43 04	 mov	 eax, DWORD PTR [ebx+4]
  00029	89 45 f8	 mov	 DWORD PTR _pNode$1$[ebp], eax
  0002c	85 c0		 test	 eax, eax
  0002e	0f 84 43 01 00
	00		 je	 $LN68@Serialize
$LL4@Serialize:

; 1178 : 		{
; 1179 : 			ASSERT(AfxIsValidAddress(pNode, sizeof(CNode)));
; 1180 : 			TYPE* pData;
; 1181 : 			/*
; 1182 : 			 * in some cases the & operator might be overloaded, and we cannot use it to obtain
; 1183 : 			 * the address of a given object.  We then use the following trick to get the address
; 1184 : 			 */
; 1185 : 			pData = reinterpret_cast< TYPE* >( &reinterpret_cast< int& >( static_cast< TYPE& >( pNode->data ) ) );

  00034	8d 70 08	 lea	 esi, DWORD PTR [eax+8]

; 68   : 	ENSURE(nCount == 0 || pElements != NULL);

  00037	85 f6		 test	 esi, esi
  00039	0f 84 4a 01 00
	00		 je	 $LN60@Serialize
; File C:\Program Files (x86)\Microsoft Visual Studio\2019\Community\VC\Tools\MSVC\14.29.30133\atlmfc\include\afx.inl

; 212  : 	{ return (m_nMode & CArchive::load) == 0; }

  0003f	8b 4d 08	 mov	 ecx, DWORD PTR _ar$[ebp]
  00042	8b 41 18	 mov	 eax, DWORD PTR [ecx+24]
  00045	f7 d0		 not	 eax
  00047	a8 01		 test	 al, 1
; File C:\Program Files (x86)\Microsoft Visual Studio\2019\Community\VC\Tools\MSVC\14.29.30133\atlmfc\include\afxtempl.h

; 73   : 	if (ar.IsStoring())

  00049	74 33		 je	 SHORT $LN21@Serialize

; 74   : 	{
; 75   : 		TYPE* pData;
; 76   : 		UINT_PTR nElementsLeft;
; 77   : 
; 78   : 		nElementsLeft = nCount;

  0004b	b8 01 00 00 00	 mov	 eax, 1
  00050	89 45 fc	 mov	 DWORD PTR _nElementsLeft$1$[ebp], eax
$LL16@Serialize:

; 80   : 		while( nElementsLeft > 0 )
; 81   : 		{
; 82   : 			UINT nElementsToWrite;
; 83   : 
; 84   : 			nElementsToWrite = UINT(__min(nElementsLeft, INT_MAX/sizeof(TYPE)));

  00053	bb ff ff ff 1f	 mov	 ebx, 536870911		; 1fffffffH
  00058	3b c3		 cmp	 eax, ebx
  0005a	0f 42 d8	 cmovb	 ebx, eax

; 85   : 			ar.Write(pData, nElementsToWrite*sizeof(TYPE));

  0005d	8d 3c 9d 00 00
	00 00		 lea	 edi, DWORD PTR [ebx*4]
  00064	57		 push	 edi
  00065	56		 push	 esi
  00066	e8 00 00 00 00	 call	 ?Write@CArchive@@QAEXPBXI@Z ; CArchive::Write

; 86   : 			nElementsLeft -= nElementsToWrite;

  0006b	8b 45 fc	 mov	 eax, DWORD PTR _nElementsLeft$1$[ebp]

; 87   : 			pData += nElementsToWrite;

  0006e	03 f7		 add	 esi, edi
  00070	8b 4d 08	 mov	 ecx, DWORD PTR _ar$[ebp]
  00073	2b c3		 sub	 eax, ebx
  00075	89 45 fc	 mov	 DWORD PTR _nElementsLeft$1$[ebp], eax
  00078	85 c0		 test	 eax, eax
  0007a	75 d7		 jne	 SHORT $LL16@Serialize

; 88   : 		}
; 89   : 	}

  0007c	eb 35		 jmp	 SHORT $LN2@Serialize
$LN21@Serialize:

; 90   : 	else
; 91   : 	{
; 92   : 		TYPE* pData;
; 93   : 		UINT_PTR nElementsLeft;
; 94   : 
; 95   : 		nElementsLeft = nCount;

  0007e	bf 01 00 00 00	 mov	 edi, 1
$LL18@Serialize:

; 98   : 		{
; 99   : 			UINT nElementsToRead;
; 100  : 
; 101  : 			nElementsToRead = UINT(__min(nElementsLeft, INT_MAX/sizeof(TYPE)));

  00083	bb ff ff ff 1f	 mov	 ebx, 536870911		; 1fffffffH
  00088	3b fb		 cmp	 edi, ebx
  0008a	0f 42 df	 cmovb	 ebx, edi

; 102  : 			ar.EnsureRead(pData, nElementsToRead*sizeof(TYPE));

  0008d	8d 04 9d 00 00
	00 00		 lea	 eax, DWORD PTR [ebx*4]
; File C:\Program Files (x86)\Microsoft Visual Studio\2019\Community\VC\Tools\MSVC\14.29.30133\atlmfc\include\afx.inl

; 399  : 	UINT nRead=Read(lpBuf, nCount);

  00094	50		 push	 eax
  00095	56		 push	 esi
  00096	e8 00 00 00 00	 call	 ?Read@CArchive@@QAEIPAXI@Z ; CArchive::Read

; 400  : 	if(nRead!=nCount)

  0009b	8d 0c 9d 00 00
	00 00		 lea	 ecx, DWORD PTR [ebx*4]
  000a2	3b c1		 cmp	 eax, ecx
  000a4	0f 85 d6 00 00
	00		 jne	 $LN59@Serialize
; File C:\Program Files (x86)\Microsoft Visual Studio\2019\Community\VC\Tools\MSVC\14.29.30133\atlmfc\include\afxtempl.h

; 97   : 		while( nElementsLeft > 0 )

  000aa	03 f1		 add	 esi, ecx
  000ac	8b 4d 08	 mov	 ecx, DWORD PTR _ar$[ebp]

; 103  : 			nElementsLeft -= nElementsToRead;

  000af	2b fb		 sub	 edi, ebx
  000b1	75 d0		 jne	 SHORT $LL18@Serialize
$LN2@Serialize:

; 1177 : 		for (CNode* pNode = m_pNodeHead; pNode != NULL; pNode = pNode->pNext)

  000b3	8b 45 f8	 mov	 eax, DWORD PTR _pNode$1$[ebp]
  000b6	8b 00		 mov	 eax, DWORD PTR [eax]
  000b8	89 45 f8	 mov	 DWORD PTR _pNode$1$[ebp], eax
  000bb	85 c0		 test	 eax, eax
  000bd	0f 85 71 ff ff
	ff		 jne	 $LL4@Serialize

; 1197 : 		}
; 1198 : 	}
; 1199 : }

  000c3	5f		 pop	 edi
  000c4	5e		 pop	 esi
  000c5	5b		 pop	 ebx
  000c6	8b e5		 mov	 esp, ebp
  000c8	5d		 pop	 ebp
  000c9	c2 04 00	 ret	 4
$LN7@Serialize:

; 1186 : 			SerializeElements<TYPE>(ar, pData, 1);
; 1187 : 		}
; 1188 : 	}
; 1189 : 	else
; 1190 : 	{
; 1191 : 		DWORD_PTR nNewCount = ar.ReadCount();

  000cc	e8 00 00 00 00	 call	 ?ReadCount@CArchive@@QAEKXZ ; CArchive::ReadCount

; 1192 : 		while (nNewCount--)

  000d1	85 c0		 test	 eax, eax
  000d3	0f 84 9e 00 00
	00		 je	 $LN68@Serialize
  000d9	0f 1f 80 00 00
	00 00		 npad	 7
$LL5@Serialize:
  000e0	48		 dec	 eax
  000e1	89 45 f0	 mov	 DWORD PTR _nNewCount$1$[ebp], eax
; File C:\Program Files (x86)\Microsoft Visual Studio\2019\Community\VC\Tools\MSVC\14.29.30133\atlmfc\include\afx.inl

; 212  : 	{ return (m_nMode & CArchive::load) == 0; }

  000e4	8b 45 08	 mov	 eax, DWORD PTR _ar$[ebp]
  000e7	8b 48 18	 mov	 ecx, DWORD PTR [eax+24]
  000ea	f7 d1		 not	 ecx
  000ec	f6 c1 01	 test	 cl, 1
; File C:\Program Files (x86)\Microsoft Visual Studio\2019\Community\VC\Tools\MSVC\14.29.30133\atlmfc\include\afxtempl.h

; 73   : 	if (ar.IsStoring())

  000ef	74 3a		 je	 SHORT $LN42@Serialize

; 79   : 		pData = pElements;

  000f1	8d 4d f4	 lea	 ecx, DWORD PTR _newData$1[ebp]
  000f4	bb 01 00 00 00	 mov	 ebx, 1
  000f9	89 4d f8	 mov	 DWORD PTR _pData$1$[ebp], ecx
  000fc	0f 1f 40 00	 npad	 4
$LL37@Serialize:

; 80   : 		while( nElementsLeft > 0 )
; 81   : 		{
; 82   : 			UINT nElementsToWrite;
; 83   : 
; 84   : 			nElementsToWrite = UINT(__min(nElementsLeft, INT_MAX/sizeof(TYPE)));

  00100	bf ff ff ff 1f	 mov	 edi, 536870911		; 1fffffffH
  00105	3b df		 cmp	 ebx, edi
  00107	0f 42 fb	 cmovb	 edi, ebx

; 85   : 			ar.Write(pData, nElementsToWrite*sizeof(TYPE));

  0010a	8d 34 bd 00 00
	00 00		 lea	 esi, DWORD PTR [edi*4]
  00111	56		 push	 esi
  00112	51		 push	 ecx
  00113	8b c8		 mov	 ecx, eax
  00115	e8 00 00 00 00	 call	 ?Write@CArchive@@QAEXPBXI@Z ; CArchive::Write

; 87   : 			pData += nElementsToWrite;

  0011a	8b 4d f8	 mov	 ecx, DWORD PTR _pData$1$[ebp]
  0011d	8b 45 08	 mov	 eax, DWORD PTR _ar$[ebp]
  00120	03 ce		 add	 ecx, esi
  00122	89 4d f8	 mov	 DWORD PTR _pData$1$[ebp], ecx
  00125	2b df		 sub	 ebx, edi
  00127	75 d7		 jne	 SHORT $LL37@Serialize

; 88   : 		}
; 89   : 	}

  00129	eb 36		 jmp	 SHORT $LN40@Serialize
$LN42@Serialize:

; 90   : 	else
; 91   : 	{
; 92   : 		TYPE* pData;
; 93   : 		UINT_PTR nElementsLeft;
; 94   : 
; 95   : 		nElementsLeft = nCount;

  0012b	be 01 00 00 00	 mov	 esi, 1

; 96   : 		pData = pElements;

  00130	8d 5d f4	 lea	 ebx, DWORD PTR _newData$1[ebp]
$LL39@Serialize:

; 98   : 		{
; 99   : 			UINT nElementsToRead;
; 100  : 
; 101  : 			nElementsToRead = UINT(__min(nElementsLeft, INT_MAX/sizeof(TYPE)));

  00133	bf ff ff ff 1f	 mov	 edi, 536870911		; 1fffffffH
  00138	3b f7		 cmp	 esi, edi
  0013a	0f 42 fe	 cmovb	 edi, esi

; 102  : 			ar.EnsureRead(pData, nElementsToRead*sizeof(TYPE));

  0013d	8d 0c bd 00 00
	00 00		 lea	 ecx, DWORD PTR [edi*4]
; File C:\Program Files (x86)\Microsoft Visual Studio\2019\Community\VC\Tools\MSVC\14.29.30133\atlmfc\include\afx.inl

; 399  : 	UINT nRead=Read(lpBuf, nCount);

  00144	51		 push	 ecx
  00145	53		 push	 ebx
  00146	8b c8		 mov	 ecx, eax
  00148	e8 00 00 00 00	 call	 ?Read@CArchive@@QAEIPAXI@Z ; CArchive::Read

; 400  : 	if(nRead!=nCount)

  0014d	8d 0c bd 00 00
	00 00		 lea	 ecx, DWORD PTR [edi*4]
  00154	3b c1		 cmp	 eax, ecx
  00156	75 28		 jne	 SHORT $LN59@Serialize
; File C:\Program Files (x86)\Microsoft Visual Studio\2019\Community\VC\Tools\MSVC\14.29.30133\atlmfc\include\afxtempl.h

; 104  : 			pData += nElementsToRead;

  00158	8b 45 08	 mov	 eax, DWORD PTR _ar$[ebp]
  0015b	03 d9		 add	 ebx, ecx
  0015d	2b f7		 sub	 esi, edi
  0015f	75 d2		 jne	 SHORT $LL39@Serialize
$LN40@Serialize:

; 1193 : 		{
; 1194 : 			TYPE newData[1];
; 1195 : 			SerializeElements<TYPE>(ar, newData, 1);
; 1196 : 			AddTail(newData[0]);

  00161	ff 75 f4	 push	 DWORD PTR _newData$1[ebp]
  00164	8b 4d fc	 mov	 ecx, DWORD PTR _this$1$[ebp]
  00167	e8 00 00 00 00	 call	 ?AddTail@?$CList@HH@@QAEPAU__POSITION@@H@Z ; CList<int,int>::AddTail
  0016c	8b 45 f0	 mov	 eax, DWORD PTR _nNewCount$1$[ebp]
  0016f	85 c0		 test	 eax, eax
  00171	0f 85 69 ff ff
	ff		 jne	 $LL5@Serialize
$LN68@Serialize:
  00177	5f		 pop	 edi

; 1197 : 		}
; 1198 : 	}
; 1199 : }

  00178	5e		 pop	 esi
  00179	5b		 pop	 ebx
  0017a	8b e5		 mov	 esp, ebp
  0017c	5d		 pop	 ebp
  0017d	c2 04 00	 ret	 4
$LN59@Serialize:
  00180	6a 00		 push	 0
  00182	6a 03		 push	 3
  00184	e8 00 00 00 00	 call	 ?AfxThrowArchiveException@@YGXHPBD@Z ; AfxThrowArchiveException
$LN60@Serialize:

; 68   : 	ENSURE(nCount == 0 || pElements != NULL);

  00189	e8 00 00 00 00	 call	 ?AfxThrowInvalidArgException@@YGXXZ ; AfxThrowInvalidArgException
$LN85@Serialize:
  0018e	cc		 int	 3
?Serialize@?$CList@HH@@UAEXAAVCArchive@@@Z ENDP		; CList<int,int>::Serialize
_TEXT	ENDS
; Function compile flags: /Ogtp
; File C:\Program Files (x86)\Microsoft Visual Studio\2019\Community\VC\Tools\MSVC\14.29.30133\atlmfc\include\afxtempl.h
;	COMDAT ??1?$CList@HH@@UAE@XZ
_TEXT	SEGMENT
__$EHRec$ = -12						; size = 12
??1?$CList@HH@@UAE@XZ PROC				; CList<int,int>::~CList<int,int>, COMDAT
; _this$ = ecx

; 878  : {

  00000	55		 push	 ebp
  00001	8b ec		 mov	 ebp, esp
  00003	6a ff		 push	 -1
  00005	68 00 00 00 00	 push	 __ehhandler$??1?$CList@HH@@UAE@XZ
  0000a	64 a1 00 00 00
	00		 mov	 eax, DWORD PTR fs:0
  00010	50		 push	 eax
  00011	56		 push	 esi
  00012	a1 00 00 00 00	 mov	 eax, DWORD PTR ___security_cookie
  00017	33 c5		 xor	 eax, ebp
  00019	50		 push	 eax
  0001a	8d 45 f4	 lea	 eax, DWORD PTR __$EHRec$[ebp]
  0001d	64 a3 00 00 00
	00		 mov	 DWORD PTR fs:0, eax
  00023	8b f1		 mov	 esi, ecx

; 872  : 	m_pBlocks->FreeDataChain();

  00025	8b 4e 14	 mov	 ecx, DWORD PTR [esi+20]

; 878  : {

  00028	c7 06 00 00 00
	00		 mov	 DWORD PTR [esi], OFFSET ??_7?$CList@HH@@6B@

; 870  : 	m_nCount = 0;

  0002e	c7 46 0c 00 00
	00 00		 mov	 DWORD PTR [esi+12], 0

; 871  : 	m_pNodeHead = m_pNodeTail = m_pNodeFree = NULL;

  00035	c7 46 10 00 00
	00 00		 mov	 DWORD PTR [esi+16], 0
  0003c	c7 46 08 00 00
	00 00		 mov	 DWORD PTR [esi+8], 0
  00043	c7 46 04 00 00
	00 00		 mov	 DWORD PTR [esi+4], 0

; 872  : 	m_pBlocks->FreeDataChain();

  0004a	e8 00 00 00 00	 call	 ?FreeDataChain@CPlex@@QAEXXZ ; CPlex::FreeDataChain

; 873  : 	m_pBlocks = NULL;

  0004f	c7 46 14 00 00
	00 00		 mov	 DWORD PTR [esi+20], 0

; 879  : 	RemoveAll();
; 880  : 	ASSERT(m_nCount == 0);
; 881  : }

  00056	8b 4d f4	 mov	 ecx, DWORD PTR __$EHRec$[ebp]
  00059	64 89 0d 00 00
	00 00		 mov	 DWORD PTR fs:0, ecx
  00060	59		 pop	 ecx
  00061	5e		 pop	 esi
  00062	8b e5		 mov	 esp, ebp
  00064	5d		 pop	 ebp
  00065	c3		 ret	 0
  00066	cc		 int	 3
  00067	cc		 int	 3
  00068	cc		 int	 3
  00069	cc		 int	 3
  0006a	cc		 int	 3
_TEXT	ENDS
;	COMDAT text$x
text$x	SEGMENT
__ehhandler$??1?$CList@HH@@UAE@XZ:
  00000	90		 npad	 1
  00001	90		 npad	 1
  00002	8b 54 24 08	 mov	 edx, DWORD PTR [esp+8]
  00006	8d 42 0c	 lea	 eax, DWORD PTR [edx+12]
  00009	8b 4a f8	 mov	 ecx, DWORD PTR [edx-8]
  0000c	33 c8		 xor	 ecx, eax
  0000e	e8 00 00 00 00	 call	 @__security_check_cookie@4
  00013	b8 00 00 00 00	 mov	 eax, OFFSET __ehfuncinfo$??1?$CList@HH@@UAE@XZ
  00018	e9 00 00 00 00	 jmp	 ___CxxFrameHandler3
text$x	ENDS
??1?$CList@HH@@UAE@XZ ENDP				; CList<int,int>::~CList<int,int>
; Function compile flags: /Ogtp
; File C:\Program Files (x86)\Microsoft Visual Studio\2019\Community\VC\Tools\MSVC\14.29.30133\atlmfc\include\afxtempl.h
;	COMDAT ?FreeNode@?$CList@HH@@IAEXPAUCNode@1@@Z
_TEXT	SEGMENT
_pNode$ = 8						; size = 4
?FreeNode@?$CList@HH@@IAEXPAUCNode@1@@Z PROC		; CList<int,int>::FreeNode, COMDAT
; _this$ = ecx

; 936  : {

  00000	55		 push	 ebp
  00001	8b ec		 mov	 ebp, esp

; 937  : 	pNode->data.~TYPE();
; 938  : 	pNode->pNext = m_pNodeFree;

  00003	8b 55 08	 mov	 edx, DWORD PTR _pNode$[ebp]
  00006	56		 push	 esi
  00007	8b f1		 mov	 esi, ecx
  00009	8b 46 10	 mov	 eax, DWORD PTR [esi+16]
  0000c	89 02		 mov	 DWORD PTR [edx], eax

; 939  : 	m_pNodeFree = pNode;
; 940  : 	m_nCount--;

  0000e	83 46 0c ff	 add	 DWORD PTR [esi+12], -1
  00012	89 56 10	 mov	 DWORD PTR [esi+16], edx

; 941  : 	ASSERT(m_nCount >= 0);  // make sure we don't underflow
; 942  : 
; 943  : 	// if no more elements, cleanup completely
; 944  : 	if (m_nCount == 0)

  00015	75 2b		 jne	 SHORT $LN2@FreeNode

; 872  : 	m_pBlocks->FreeDataChain();

  00017	8b 4e 14	 mov	 ecx, DWORD PTR [esi+20]
  0001a	c7 46 0c 00 00
	00 00		 mov	 DWORD PTR [esi+12], 0
  00021	c7 46 10 00 00
	00 00		 mov	 DWORD PTR [esi+16], 0
  00028	c7 46 08 00 00
	00 00		 mov	 DWORD PTR [esi+8], 0
  0002f	c7 46 04 00 00
	00 00		 mov	 DWORD PTR [esi+4], 0
  00036	e8 00 00 00 00	 call	 ?FreeDataChain@CPlex@@QAEXXZ ; CPlex::FreeDataChain

; 873  : 	m_pBlocks = NULL;

  0003b	c7 46 14 00 00
	00 00		 mov	 DWORD PTR [esi+20], 0
$LN2@FreeNode:
  00042	5e		 pop	 esi

; 945  : 		RemoveAll();
; 946  : }

  00043	5d		 pop	 ebp
  00044	c2 04 00	 ret	 4
?FreeNode@?$CList@HH@@IAEXPAUCNode@1@@Z ENDP		; CList<int,int>::FreeNode
_TEXT	ENDS
; Function compile flags: /Ogtp
; File C:\Program Files (x86)\Microsoft Visual Studio\2019\Community\VC\Tools\MSVC\14.29.30133\atlmfc\include\afxtempl.h
;	COMDAT ?NewNode@?$CList@HH@@IAEPAUCNode@1@PAU21@0@Z
_TEXT	SEGMENT
_pPrev$ = 8						; size = 4
_pNext$ = 12						; size = 4
?NewNode@?$CList@HH@@IAEPAUCNode@1@PAU21@0@Z PROC	; CList<int,int>::NewNode, COMDAT
; _this$ = ecx

; 901  : {

  00000	55		 push	 ebp
  00001	8b ec		 mov	 ebp, esp
  00003	56		 push	 esi
  00004	8b f1		 mov	 esi, ecx

; 902  : 	if (m_pNodeFree == NULL)

  00006	83 7e 10 00	 cmp	 DWORD PTR [esi+16], 0
  0000a	75 34		 jne	 SHORT $LN7@NewNode

; 903  : 	{
; 904  : 		// add another block
; 905  : 		CPlex* pNewBlock = CPlex::Create(m_pBlocks, m_nBlockSize,

  0000c	6a 0c		 push	 12			; 0000000cH
  0000e	ff 76 18	 push	 DWORD PTR [esi+24]
  00011	8d 46 14	 lea	 eax, DWORD PTR [esi+20]
  00014	50		 push	 eax
  00015	e8 00 00 00 00	 call	 ?Create@CPlex@@SGPAU1@AAPAU1@II@Z ; CPlex::Create

; 906  : 				 sizeof(CNode));
; 907  : 
; 908  : 		// chain them into free list
; 909  : 		CNode* pNode = (CNode*) pNewBlock->data();
; 910  : 		// free in reverse order to make it easier to debug
; 911  : 		pNode += m_nBlockSize - 1;

  0001a	8b 56 18	 mov	 edx, DWORD PTR [esi+24]
  0001d	83 c0 08	 add	 eax, 8
  00020	8d 0c 52	 lea	 ecx, DWORD PTR [edx+edx*2]
  00023	8d 04 88	 lea	 eax, DWORD PTR [eax+ecx*4]
  00026	83 c0 f4	 add	 eax, -12		; fffffff4H

; 912  : 		for (INT_PTR i = m_nBlockSize-1; i >= 0; i--, pNode--)

  00029	83 c2 ff	 add	 edx, -1
  0002c	78 12		 js	 SHORT $LN7@NewNode
  0002e	66 90		 npad	 2
$LL4@NewNode:

; 913  : 		{
; 914  : 			pNode->pNext = m_pNodeFree;

  00030	8b 4e 10	 mov	 ecx, DWORD PTR [esi+16]
  00033	89 08		 mov	 DWORD PTR [eax], ecx

; 915  : 			m_pNodeFree = pNode;

  00035	89 46 10	 mov	 DWORD PTR [esi+16], eax
  00038	83 e8 0c	 sub	 eax, 12			; 0000000cH
  0003b	83 ea 01	 sub	 edx, 1
  0003e	79 f0		 jns	 SHORT $LL4@NewNode
$LN7@NewNode:

; 916  : 		}
; 917  : 	}
; 918  : 	ENSURE(m_pNodeFree != NULL);  // we must have something

  00040	8b 46 10	 mov	 eax, DWORD PTR [esi+16]
  00043	85 c0		 test	 eax, eax
  00045	74 18		 je	 SHORT $LN17@NewNode

; 919  : 
; 920  : 	CList::CNode* pNode = m_pNodeFree;
; 921  : 	m_pNodeFree = m_pNodeFree->pNext;

  00047	8b 08		 mov	 ecx, DWORD PTR [eax]
  00049	89 4e 10	 mov	 DWORD PTR [esi+16], ecx

; 922  : 	pNode->pPrev = pPrev;

  0004c	8b 4d 08	 mov	 ecx, DWORD PTR _pPrev$[ebp]
  0004f	89 48 04	 mov	 DWORD PTR [eax+4], ecx

; 923  : 	pNode->pNext = pNext;

  00052	8b 4d 0c	 mov	 ecx, DWORD PTR _pNext$[ebp]
  00055	89 08		 mov	 DWORD PTR [eax], ecx

; 924  : 	m_nCount++;

  00057	ff 46 0c	 inc	 DWORD PTR [esi+12]

; 925  : 	ASSERT(m_nCount > 0);  // make sure we don't overflow
; 926  : 
; 927  : #pragma push_macro("new")
; 928  : #undef new
; 929  : 	::new( (void*)( &pNode->data ) ) TYPE;
; 930  : #pragma pop_macro("new")
; 931  : 	return pNode;

  0005a	5e		 pop	 esi

; 932  : }

  0005b	5d		 pop	 ebp
  0005c	c2 08 00	 ret	 8
$LN17@NewNode:

; 916  : 		}
; 917  : 	}
; 918  : 	ENSURE(m_pNodeFree != NULL);  // we must have something

  0005f	e8 00 00 00 00	 call	 ?AfxThrowInvalidArgException@@YGXXZ ; AfxThrowInvalidArgException
$LN15@NewNode:
  00064	cc		 int	 3
?NewNode@?$CList@HH@@IAEPAUCNode@1@PAU21@0@Z ENDP	; CList<int,int>::NewNode
_TEXT	ENDS
; Function compile flags: /Ogtp
; File C:\Program Files (x86)\Microsoft Visual Studio\2019\Community\VC\Tools\MSVC\14.29.30133\atlmfc\include\afxtempl.h
;	COMDAT ?Find@?$CList@HH@@QBEPAU__POSITION@@HPAU2@@Z
_TEXT	SEGMENT
_searchValue$ = 8					; size = 4
_startAfter$ = 12					; size = 4
?Find@?$CList@HH@@QBEPAU__POSITION@@HPAU2@@Z PROC	; CList<int,int>::Find, COMDAT
; _this$ = ecx

; 1147 : {

  00000	55		 push	 ebp
  00001	8b ec		 mov	 ebp, esp
  00003	8b 45 0c	 mov	 eax, DWORD PTR _startAfter$[ebp]

; 1148 : 	ASSERT_VALID(this);
; 1149 : 
; 1150 : 	CNode* pNode = (CNode*) startAfter;
; 1151 : 	if (pNode == NULL)

  00006	85 c0		 test	 eax, eax
  00008	75 03		 jne	 SHORT $LN6@Find

; 1152 : 	{
; 1153 : 		pNode = m_pNodeHead;  // start at head

  0000a	8d 41 04	 lea	 eax, DWORD PTR [ecx+4]
$LN6@Find:

; 1154 : 	}
; 1155 : 	else
; 1156 : 	{
; 1157 : 		ASSERT(AfxIsValidAddress(pNode, sizeof(CNode)));
; 1158 : 		pNode = pNode->pNext;  // start after the one specified
; 1159 : 	}
; 1160 : 
; 1161 : 	for (; pNode != NULL; pNode = pNode->pNext)

  0000d	8b 00		 mov	 eax, DWORD PTR [eax]
  0000f	85 c0		 test	 eax, eax
  00011	74 14		 je	 SHORT $LN3@Find
  00013	8b 55 08	 mov	 edx, DWORD PTR _searchValue$[ebp]
$LL4@Find:

; 1162 : 		if (CompareElements<TYPE>(&pNode->data, &searchValue))

  00016	8d 48 08	 lea	 ecx, DWORD PTR [eax+8]

; 152  : 	ENSURE(pElement1 != NULL && pElement2 != NULL);

  00019	85 c9		 test	 ecx, ecx
  0001b	74 10		 je	 SHORT $LN19@Find

; 153  : 	ASSERT(AfxIsValidAddress(pElement1, sizeof(TYPE), FALSE));
; 154  : 	ASSERT(AfxIsValidAddress(pElement2, sizeof(ARG_TYPE), FALSE));
; 155  : 
; 156  : 	return *pElement1 == *pElement2;

  0001d	39 11		 cmp	 DWORD PTR [ecx], edx

; 1162 : 		if (CompareElements<TYPE>(&pNode->data, &searchValue))

  0001f	74 08		 je	 SHORT $LN1@Find

; 1154 : 	}
; 1155 : 	else
; 1156 : 	{
; 1157 : 		ASSERT(AfxIsValidAddress(pNode, sizeof(CNode)));
; 1158 : 		pNode = pNode->pNext;  // start after the one specified
; 1159 : 	}
; 1160 : 
; 1161 : 	for (; pNode != NULL; pNode = pNode->pNext)

  00021	8b 00		 mov	 eax, DWORD PTR [eax]
  00023	85 c0		 test	 eax, eax
  00025	75 ef		 jne	 SHORT $LL4@Find
$LN3@Find:

; 1163 : 			return (POSITION)pNode;
; 1164 : 	return NULL;

  00027	33 c0		 xor	 eax, eax
$LN1@Find:

; 1165 : }

  00029	5d		 pop	 ebp
  0002a	c2 08 00	 ret	 8
$LN19@Find:

; 152  : 	ENSURE(pElement1 != NULL && pElement2 != NULL);

  0002d	e8 00 00 00 00	 call	 ?AfxThrowInvalidArgException@@YGXXZ ; AfxThrowInvalidArgException
$LN26@Find:
  00032	cc		 int	 3
?Find@?$CList@HH@@QBEPAU__POSITION@@HPAU2@@Z ENDP	; CList<int,int>::Find
_TEXT	ENDS
; Function compile flags: /Ogtp
; File C:\Program Files (x86)\Microsoft Visual Studio\2019\Community\VC\Tools\MSVC\14.29.30133\atlmfc\include\afxtempl.h
;	COMDAT ?RemoveAt@?$CList@HH@@QAEXPAU__POSITION@@@Z
_TEXT	SEGMENT
_position$ = 8						; size = 4
?RemoveAt@?$CList@HH@@QAEXPAU__POSITION@@@Z PROC	; CList<int,int>::RemoveAt, COMDAT
; _this$ = ecx

; 1100 : {

  00000	55		 push	 ebp
  00001	8b ec		 mov	 ebp, esp
  00003	56		 push	 esi
  00004	8b f1		 mov	 esi, ecx

; 1101 : 	ASSERT_VALID(this);
; 1102 : 
; 1103 : 	CNode* pOldNode = (CNode*) position;
; 1104 : 	ASSERT(AfxIsValidAddress(pOldNode, sizeof(CNode)));
; 1105 : 
; 1106 : 	// remove pOldNode from list
; 1107 : 	if (pOldNode == m_pNodeHead)

  00006	8b 4d 08	 mov	 ecx, DWORD PTR _position$[ebp]
  00009	8b 11		 mov	 edx, DWORD PTR [ecx]
  0000b	3b 4e 04	 cmp	 ecx, DWORD PTR [esi+4]
  0000e	75 05		 jne	 SHORT $LN2@RemoveAt

; 1108 : 	{
; 1109 : 		m_pNodeHead = pOldNode->pNext;

  00010	89 56 04	 mov	 DWORD PTR [esi+4], edx

; 1110 : 	}

  00013	eb 05		 jmp	 SHORT $LN3@RemoveAt
$LN2@RemoveAt:

; 1111 : 	else
; 1112 : 	{
; 1113 : 		ASSERT(AfxIsValidAddress(pOldNode->pPrev, sizeof(CNode)));
; 1114 : 		pOldNode->pPrev->pNext = pOldNode->pNext;

  00015	8b 41 04	 mov	 eax, DWORD PTR [ecx+4]
  00018	89 10		 mov	 DWORD PTR [eax], edx
$LN3@RemoveAt:

; 1115 : 	}
; 1116 : 	if (pOldNode == m_pNodeTail)

  0001a	8b 51 04	 mov	 edx, DWORD PTR [ecx+4]
  0001d	3b 4e 08	 cmp	 ecx, DWORD PTR [esi+8]
  00020	75 05		 jne	 SHORT $LN4@RemoveAt

; 1117 : 	{
; 1118 : 		m_pNodeTail = pOldNode->pPrev;

  00022	89 56 08	 mov	 DWORD PTR [esi+8], edx

; 1119 : 	}

  00025	eb 05		 jmp	 SHORT $LN5@RemoveAt
$LN4@RemoveAt:

; 1120 : 	else
; 1121 : 	{
; 1122 : 		ASSERT(AfxIsValidAddress(pOldNode->pNext, sizeof(CNode)));
; 1123 : 		pOldNode->pNext->pPrev = pOldNode->pPrev;

  00027	8b 01		 mov	 eax, DWORD PTR [ecx]
  00029	89 50 04	 mov	 DWORD PTR [eax+4], edx
$LN5@RemoveAt:

; 938  : 	pNode->pNext = m_pNodeFree;

  0002c	8b 46 10	 mov	 eax, DWORD PTR [esi+16]
  0002f	89 01		 mov	 DWORD PTR [ecx], eax

; 939  : 	m_pNodeFree = pNode;
; 940  : 	m_nCount--;

  00031	83 46 0c ff	 add	 DWORD PTR [esi+12], -1
  00035	89 4e 10	 mov	 DWORD PTR [esi+16], ecx

; 941  : 	ASSERT(m_nCount >= 0);  // make sure we don't underflow
; 942  : 
; 943  : 	// if no more elements, cleanup completely
; 944  : 	if (m_nCount == 0)

  00038	75 2b		 jne	 SHORT $LN8@RemoveAt

; 872  : 	m_pBlocks->FreeDataChain();

  0003a	8b 4e 14	 mov	 ecx, DWORD PTR [esi+20]
  0003d	c7 46 0c 00 00
	00 00		 mov	 DWORD PTR [esi+12], 0
  00044	c7 46 10 00 00
	00 00		 mov	 DWORD PTR [esi+16], 0
  0004b	c7 46 08 00 00
	00 00		 mov	 DWORD PTR [esi+8], 0
  00052	c7 46 04 00 00
	00 00		 mov	 DWORD PTR [esi+4], 0
  00059	e8 00 00 00 00	 call	 ?FreeDataChain@CPlex@@QAEXXZ ; CPlex::FreeDataChain

; 873  : 	m_pBlocks = NULL;

  0005e	c7 46 14 00 00
	00 00		 mov	 DWORD PTR [esi+20], 0
$LN8@RemoveAt:
  00065	5e		 pop	 esi

; 1124 : 	}
; 1125 : 	FreeNode(pOldNode);
; 1126 : }

  00066	5d		 pop	 ebp
  00067	c2 04 00	 ret	 4
?RemoveAt@?$CList@HH@@QAEXPAU__POSITION@@@Z ENDP	; CList<int,int>::RemoveAt
_TEXT	ENDS
; Function compile flags: /Ogtp
; File C:\Program Files (x86)\Microsoft Visual Studio\2019\Community\VC\Tools\MSVC\14.29.30133\atlmfc\include\afxtempl.h
;	COMDAT ?RemoveAll@?$CList@HH@@QAEXXZ
_TEXT	SEGMENT
?RemoveAll@?$CList@HH@@QAEXXZ PROC			; CList<int,int>::RemoveAll, COMDAT
; _this$ = ecx

; 862  : {

  00000	56		 push	 esi
  00001	8b f1		 mov	 esi, ecx

; 863  : 	ASSERT_VALID(this);
; 864  : 
; 865  : 	// destroy elements
; 866  : 	CNode* pNode;
; 867  : 	for (pNode = m_pNodeHead; pNode != NULL; pNode = pNode->pNext)
; 868  : 		pNode->data.~TYPE();
; 869  : 
; 870  : 	m_nCount = 0;
; 871  : 	m_pNodeHead = m_pNodeTail = m_pNodeFree = NULL;
; 872  : 	m_pBlocks->FreeDataChain();

  00003	8b 4e 14	 mov	 ecx, DWORD PTR [esi+20]
  00006	c7 46 0c 00 00
	00 00		 mov	 DWORD PTR [esi+12], 0
  0000d	c7 46 10 00 00
	00 00		 mov	 DWORD PTR [esi+16], 0
  00014	c7 46 08 00 00
	00 00		 mov	 DWORD PTR [esi+8], 0
  0001b	c7 46 04 00 00
	00 00		 mov	 DWORD PTR [esi+4], 0
  00022	e8 00 00 00 00	 call	 ?FreeDataChain@CPlex@@QAEXXZ ; CPlex::FreeDataChain

; 873  : 	m_pBlocks = NULL;

  00027	c7 46 14 00 00
	00 00		 mov	 DWORD PTR [esi+20], 0
  0002e	5e		 pop	 esi

; 874  : }

  0002f	c3		 ret	 0
?RemoveAll@?$CList@HH@@QAEXXZ ENDP			; CList<int,int>::RemoveAll
_TEXT	ENDS
; Function compile flags: /Ogtp
; File C:\Program Files (x86)\Microsoft Visual Studio\2019\Community\VC\Tools\MSVC\14.29.30133\atlmfc\include\afxtempl.h
;	COMDAT ?AddTail@?$CList@HH@@QAEPAU__POSITION@@H@Z
_TEXT	SEGMENT
_newElement$ = 8					; size = 4
?AddTail@?$CList@HH@@QAEPAU__POSITION@@H@Z PROC		; CList<int,int>::AddTail, COMDAT
; _this$ = ecx

; 965  : {

  00000	55		 push	 ebp
  00001	8b ec		 mov	 ebp, esp
  00003	56		 push	 esi
  00004	8b f1		 mov	 esi, ecx
  00006	57		 push	 edi

; 902  : 	if (m_pNodeFree == NULL)

  00007	83 7e 10 00	 cmp	 DWORD PTR [esi+16], 0

; 966  : 	ASSERT_VALID(this);
; 967  : 
; 968  : 	CNode* pNewNode = NewNode(m_pNodeTail, NULL);

  0000b	8b 7e 08	 mov	 edi, DWORD PTR [esi+8]

; 902  : 	if (m_pNodeFree == NULL)

  0000e	75 32		 jne	 SHORT $LN11@AddTail

; 903  : 	{
; 904  : 		// add another block
; 905  : 		CPlex* pNewBlock = CPlex::Create(m_pBlocks, m_nBlockSize,

  00010	6a 0c		 push	 12			; 0000000cH
  00012	ff 76 18	 push	 DWORD PTR [esi+24]
  00015	8d 46 14	 lea	 eax, DWORD PTR [esi+20]
  00018	50		 push	 eax
  00019	e8 00 00 00 00	 call	 ?Create@CPlex@@SGPAU1@AAPAU1@II@Z ; CPlex::Create

; 906  : 				 sizeof(CNode));
; 907  : 
; 908  : 		// chain them into free list
; 909  : 		CNode* pNode = (CNode*) pNewBlock->data();
; 910  : 		// free in reverse order to make it easier to debug
; 911  : 		pNode += m_nBlockSize - 1;

  0001e	8b 56 18	 mov	 edx, DWORD PTR [esi+24]
  00021	83 c0 08	 add	 eax, 8
  00024	8d 4a ff	 lea	 ecx, DWORD PTR [edx-1]

; 912  : 		for (INT_PTR i = m_nBlockSize-1; i >= 0; i--, pNode--)

  00027	83 c2 ff	 add	 edx, -1
  0002a	8d 0c 49	 lea	 ecx, DWORD PTR [ecx+ecx*2]
  0002d	8d 0c 88	 lea	 ecx, DWORD PTR [eax+ecx*4]
  00030	78 10		 js	 SHORT $LN11@AddTail
$LL8@AddTail:

; 913  : 		{
; 914  : 			pNode->pNext = m_pNodeFree;

  00032	8b 46 10	 mov	 eax, DWORD PTR [esi+16]
  00035	89 01		 mov	 DWORD PTR [ecx], eax

; 915  : 			m_pNodeFree = pNode;

  00037	89 4e 10	 mov	 DWORD PTR [esi+16], ecx
  0003a	83 e9 0c	 sub	 ecx, 12			; 0000000cH
  0003d	83 ea 01	 sub	 edx, 1
  00040	79 f0		 jns	 SHORT $LL8@AddTail
$LN11@AddTail:

; 916  : 		}
; 917  : 	}
; 918  : 	ENSURE(m_pNodeFree != NULL);  // we must have something

  00042	8b 4e 10	 mov	 ecx, DWORD PTR [esi+16]
  00045	85 c9		 test	 ecx, ecx
  00047	74 39		 je	 SHORT $LN22@AddTail

; 919  : 
; 920  : 	CList::CNode* pNode = m_pNodeFree;
; 921  : 	m_pNodeFree = m_pNodeFree->pNext;

  00049	8b 01		 mov	 eax, DWORD PTR [ecx]
  0004b	89 46 10	 mov	 DWORD PTR [esi+16], eax

; 969  : 	pNewNode->data = newElement;

  0004e	8b 45 08	 mov	 eax, DWORD PTR _newElement$[ebp]

; 922  : 	pNode->pPrev = pPrev;

  00051	89 79 04	 mov	 DWORD PTR [ecx+4], edi

; 923  : 	pNode->pNext = pNext;

  00054	c7 01 00 00 00
	00		 mov	 DWORD PTR [ecx], 0

; 924  : 	m_nCount++;

  0005a	ff 46 0c	 inc	 DWORD PTR [esi+12]

; 969  : 	pNewNode->data = newElement;

  0005d	89 41 08	 mov	 DWORD PTR [ecx+8], eax

; 970  : 	if (m_pNodeTail != NULL)

  00060	8b 46 08	 mov	 eax, DWORD PTR [esi+8]
  00063	85 c0		 test	 eax, eax
  00065	74 0d		 je	 SHORT $LN2@AddTail

; 971  : 		m_pNodeTail->pNext = pNewNode;

  00067	89 08		 mov	 DWORD PTR [eax], ecx

; 972  : 	else
; 973  : 		m_pNodeHead = pNewNode;
; 974  : 	m_pNodeTail = pNewNode;
; 975  : 	return (POSITION) pNewNode;

  00069	8b c1		 mov	 eax, ecx
  0006b	5f		 pop	 edi
  0006c	89 4e 08	 mov	 DWORD PTR [esi+8], ecx
  0006f	5e		 pop	 esi

; 976  : }

  00070	5d		 pop	 ebp
  00071	c2 04 00	 ret	 4
$LN2@AddTail:

; 972  : 	else
; 973  : 		m_pNodeHead = pNewNode;
; 974  : 	m_pNodeTail = pNewNode;
; 975  : 	return (POSITION) pNewNode;

  00074	5f		 pop	 edi
  00075	89 4e 04	 mov	 DWORD PTR [esi+4], ecx
  00078	8b c1		 mov	 eax, ecx
  0007a	89 4e 08	 mov	 DWORD PTR [esi+8], ecx
  0007d	5e		 pop	 esi

; 976  : }

  0007e	5d		 pop	 ebp
  0007f	c2 04 00	 ret	 4
$LN22@AddTail:

; 918  : 	ENSURE(m_pNodeFree != NULL);  // we must have something

  00082	e8 00 00 00 00	 call	 ?AfxThrowInvalidArgException@@YGXXZ ; AfxThrowInvalidArgException
$LN20@AddTail:
  00087	cc		 int	 3
?AddTail@?$CList@HH@@QAEPAU__POSITION@@H@Z ENDP		; CList<int,int>::AddTail
_TEXT	ENDS
; Function compile flags: /Ogtp
; File C:\Program Files (x86)\Microsoft Visual Studio\2019\Community\VC\Tools\MSVC\14.29.30133\atlmfc\include\afxtempl.h
;	COMDAT ??0?$CList@HH@@QAE@H@Z
_TEXT	SEGMENT
_nBlockSize$ = 8					; size = 4
??0?$CList@HH@@QAE@H@Z PROC				; CList<int,int>::CList<int,int>, COMDAT
; _this$ = ecx

; 851  : {

  00000	55		 push	 ebp
  00001	8b ec		 mov	 ebp, esp

; 852  : 	ASSERT(nBlockSize > 0);
; 853  : 
; 854  : 	m_nCount = 0;
; 855  : 	m_pNodeHead = m_pNodeTail = m_pNodeFree = NULL;
; 856  : 	m_pBlocks = NULL;
; 857  : 	m_nBlockSize = nBlockSize;

  00003	8b 45 08	 mov	 eax, DWORD PTR _nBlockSize$[ebp]
  00006	89 41 18	 mov	 DWORD PTR [ecx+24], eax

; 858  : }

  00009	8b c1		 mov	 eax, ecx
  0000b	c7 01 00 00 00
	00		 mov	 DWORD PTR [ecx], OFFSET ??_7?$CList@HH@@6B@
  00011	c7 41 0c 00 00
	00 00		 mov	 DWORD PTR [ecx+12], 0
  00018	c7 41 10 00 00
	00 00		 mov	 DWORD PTR [ecx+16], 0
  0001f	c7 41 08 00 00
	00 00		 mov	 DWORD PTR [ecx+8], 0
  00026	c7 41 04 00 00
	00 00		 mov	 DWORD PTR [ecx+4], 0
  0002d	c7 41 14 00 00
	00 00		 mov	 DWORD PTR [ecx+20], 0
  00034	5d		 pop	 ebp
  00035	c2 04 00	 ret	 4
??0?$CList@HH@@QAE@H@Z ENDP				; CList<int,int>::CList<int,int>
_TEXT	ENDS
; Function compile flags: /Ogtp
; File D:\git\src\IBK\IBK_DRFN\ProjSrc\SrcChartEx\ChartAddIn\ChartEnvSetupDlgAddIn\ChartEnvSetupDlgAddIn\TabMainChartEnvSetUp.cpp
; File C:\Program Files (x86)\Microsoft Visual Studio\2019\Community\VC\Tools\MSVC\14.29.30133\atlmfc\include\afxtempl.h
; File D:\git\src\IBK\IBK_DRFN\ProjSrc\SrcChartEx\ChartAddIn\ChartEnvSetupDlgAddIn\ChartEnvSetupDlgAddIn\TabMainChartEnvSetUp.cpp
; File C:\Program Files (x86)\Microsoft Visual Studio\2019\Community\VC\Tools\MSVC\14.29.30133\atlmfc\include\afxtempl.h
; File D:\git\src\IBK\IBK_DRFN\ProjSrc\SrcChartEx\ChartAddIn\ChartEnvSetupDlgAddIn\ChartEnvSetupDlgAddIn\TabMainChartEnvSetUp.cpp
;	COMDAT ??1CTabMainChartEnvSetUp@@UAE@XZ
_TEXT	SEGMENT
__$EHRec$ = -12						; size = 12
??1CTabMainChartEnvSetUp@@UAE@XZ PROC			; CTabMainChartEnvSetUp::~CTabMainChartEnvSetUp, COMDAT
; _this$ = ecx

; 52   : {

  00000	55		 push	 ebp
  00001	8b ec		 mov	 ebp, esp
  00003	6a ff		 push	 -1
  00005	68 00 00 00 00	 push	 __ehhandler$??1CTabMainChartEnvSetUp@@UAE@XZ
  0000a	64 a1 00 00 00
	00		 mov	 eax, DWORD PTR fs:0
  00010	50		 push	 eax
  00011	53		 push	 ebx
  00012	56		 push	 esi
  00013	57		 push	 edi
  00014	a1 00 00 00 00	 mov	 eax, DWORD PTR ___security_cookie
  00019	33 c5		 xor	 eax, ebp
  0001b	50		 push	 eax
  0001c	8d 45 f4	 lea	 eax, DWORD PTR __$EHRec$[ebp]
  0001f	64 a3 00 00 00
	00		 mov	 DWORD PTR fs:0, eax
  00025	8b f1		 mov	 esi, ecx

; 53   : 	for( int nCount = 0 ; nCount < m_nTotalTabPages ; nCount++ )

  00027	33 ff		 xor	 edi, edi
  00029	c7 06 00 00 00
	00		 mov	 DWORD PTR [esi], OFFSET ??_7CTabMainChartEnvSetUp@@6B@
  0002f	39 be 80 00 00
	00		 cmp	 DWORD PTR [esi+128], edi
  00035	7e 22		 jle	 SHORT $LN3@CTabMainCh
  00037	8d 9e a8 00 00
	00		 lea	 ebx, DWORD PTR [esi+168]
  0003d	0f 1f 00	 npad	 3
$LL4@CTabMainCh:

; 54   : 	{
; 55   : 		if( m_aTabPages[nCount] != NULL)

  00040	8b 0b		 mov	 ecx, DWORD PTR [ebx]
  00042	85 c9		 test	 ecx, ecx
  00044	74 07		 je	 SHORT $LN2@CTabMainCh

; 56   : 			delete m_aTabPages[nCount];

  00046	8b 01		 mov	 eax, DWORD PTR [ecx]
  00048	6a 01		 push	 1
  0004a	ff 50 04	 call	 DWORD PTR [eax+4]
$LN2@CTabMainCh:

; 53   : 	for( int nCount = 0 ; nCount < m_nTotalTabPages ; nCount++ )

  0004d	47		 inc	 edi
  0004e	83 c3 04	 add	 ebx, 4
  00051	3b be 80 00 00
	00		 cmp	 edi, DWORD PTR [esi+128]
  00057	7c e7		 jl	 SHORT $LL4@CTabMainCh
$LN3@CTabMainCh:

; 57   : 	}
; 58   : 
; 59   : 	if( m_pIChartOCX)

  00059	8b 8e a4 00 00
	00		 mov	 ecx, DWORD PTR [esi+164]
  0005f	85 c9		 test	 ecx, ecx
  00061	74 10		 je	 SHORT $LN6@CTabMainCh

; 60   : 	{
; 61   : 		m_pIChartOCX->Release();

  00063	8b 01		 mov	 eax, DWORD PTR [ecx]
  00065	51		 push	 ecx
  00066	ff 50 08	 call	 DWORD PTR [eax+8]

; 62   : 		m_pIChartOCX = NULL;

  00069	c7 86 a4 00 00
	00 00 00 00 00	 mov	 DWORD PTR [esi+164], 0
$LN6@CTabMainCh:
; File C:\Program Files (x86)\Microsoft Visual Studio\2019\Community\VC\Tools\MSVC\14.29.30133\atlmfc\include\afxtempl.h

; 872  : 	m_pBlocks->FreeDataChain();

  00073	8b 8e 9c 00 00
	00		 mov	 ecx, DWORD PTR [esi+156]

; 878  : {

  00079	c7 45 fc 00 00
	00 00		 mov	 DWORD PTR __$EHRec$[ebp+8], 0
  00080	c7 86 88 00 00
	00 00 00 00 00	 mov	 DWORD PTR [esi+136], OFFSET ??_7?$CList@HH@@6B@

; 870  : 	m_nCount = 0;

  0008a	c7 86 94 00 00
	00 00 00 00 00	 mov	 DWORD PTR [esi+148], 0

; 871  : 	m_pNodeHead = m_pNodeTail = m_pNodeFree = NULL;

  00094	c7 86 98 00 00
	00 00 00 00 00	 mov	 DWORD PTR [esi+152], 0
  0009e	c7 86 90 00 00
	00 00 00 00 00	 mov	 DWORD PTR [esi+144], 0
  000a8	c7 86 8c 00 00
	00 00 00 00 00	 mov	 DWORD PTR [esi+140], 0

; 872  : 	m_pBlocks->FreeDataChain();

  000b2	e8 00 00 00 00	 call	 ?FreeDataChain@CPlex@@QAEXXZ ; CPlex::FreeDataChain
; File D:\git\src\IBK\IBK_DRFN\ProjSrc\SrcChartEx\ChartAddIn\ChartEnvSetupDlgAddIn\ChartEnvSetupDlgAddIn\TabMainChartEnvSetUp.cpp

; 64   : }

  000b7	8b ce		 mov	 ecx, esi
; File C:\Program Files (x86)\Microsoft Visual Studio\2019\Community\VC\Tools\MSVC\14.29.30133\atlmfc\include\afxtempl.h

; 873  : 	m_pBlocks = NULL;

  000b9	c7 86 9c 00 00
	00 00 00 00 00	 mov	 DWORD PTR [esi+156], 0
; File D:\git\src\IBK\IBK_DRFN\ProjSrc\SrcChartEx\ChartAddIn\ChartEnvSetupDlgAddIn\ChartEnvSetupDlgAddIn\TabMainChartEnvSetUp.cpp

; 64   : }

  000c3	e8 00 00 00 00	 call	 ??1CTabCtrl@@UAE@XZ	; CTabCtrl::~CTabCtrl
  000c8	8b 4d f4	 mov	 ecx, DWORD PTR __$EHRec$[ebp]
  000cb	64 89 0d 00 00
	00 00		 mov	 DWORD PTR fs:0, ecx
  000d2	59		 pop	 ecx
  000d3	5f		 pop	 edi
  000d4	5e		 pop	 esi
  000d5	5b		 pop	 ebx
  000d6	8b e5		 mov	 esp, ebp
  000d8	5d		 pop	 ebp
  000d9	c3		 ret	 0
  000da	cc		 int	 3
  000db	cc		 int	 3
  000dc	cc		 int	 3
  000dd	cc		 int	 3
  000de	cc		 int	 3
_TEXT	ENDS
;	COMDAT text$x
text$x	SEGMENT
__ehhandler$??1CTabMainChartEnvSetUp@@UAE@XZ:
  00000	90		 npad	 1
  00001	90		 npad	 1
  00002	8b 54 24 08	 mov	 edx, DWORD PTR [esp+8]
  00006	8d 42 0c	 lea	 eax, DWORD PTR [edx+12]
  00009	8b 4a f0	 mov	 ecx, DWORD PTR [edx-16]
  0000c	33 c8		 xor	 ecx, eax
  0000e	e8 00 00 00 00	 call	 @__security_check_cookie@4
  00013	b8 00 00 00 00	 mov	 eax, OFFSET __ehfuncinfo$??1CTabMainChartEnvSetUp@@UAE@XZ
  00018	e9 00 00 00 00	 jmp	 ___CxxFrameHandler3
text$x	ENDS
??1CTabMainChartEnvSetUp@@UAE@XZ ENDP			; CTabMainChartEnvSetUp::~CTabMainChartEnvSetUp
; Function compile flags: /Ogtp
; File D:\git\src\IBK\IBK_DRFN\ProjSrc\SrcChartEx\ChartAddIn\ChartEnvSetupDlgAddIn\ChartEnvSetupDlgAddIn\TabMainChartEnvSetUp.cpp
; File C:\Program Files (x86)\Microsoft Visual Studio\2019\Community\VC\Tools\MSVC\14.29.30133\atlmfc\include\afxcmn.inl
; File D:\git\src\IBK\IBK_DRFN\ProjSrc\SrcChartEx\ChartAddIn\ChartEnvSetupDlgAddIn\ChartEnvSetupDlgAddIn\TabMainChartEnvSetUp.cpp
; File C:\Program Files (x86)\Microsoft Visual Studio\2019\Community\VC\Tools\MSVC\14.29.30133\atlmfc\include\afxtempl.h
; File D:\git\src\IBK\IBK_DRFN\ProjSrc\SrcChartEx\ChartAddIn\ChartEnvSetupDlgAddIn\ChartEnvSetupDlgAddIn\TabMainChartEnvSetUp.cpp
; File C:\Program Files (x86)\Microsoft Visual Studio\2019\Community\VC\Tools\MSVC\14.29.30133\atlmfc\include\afxtempl.h
; File D:\git\src\IBK\IBK_DRFN\ProjSrc\SrcChartEx\ChartAddIn\ChartEnvSetupDlgAddIn\ChartEnvSetupDlgAddIn\TabMainChartEnvSetUp.cpp
;	COMDAT ??0CTabMainChartEnvSetUp@@QAE@XZ
_TEXT	SEGMENT
_this$ = -16						; size = 4
__$EHRec$ = -12						; size = 12
??0CTabMainChartEnvSetUp@@QAE@XZ PROC			; CTabMainChartEnvSetUp::CTabMainChartEnvSetUp, COMDAT
; _this$ = ecx

; 32   : {

  00000	55		 push	 ebp
  00001	8b ec		 mov	 ebp, esp
  00003	6a ff		 push	 -1
  00005	68 00 00 00 00	 push	 __ehhandler$??0CTabMainChartEnvSetUp@@QAE@XZ
  0000a	64 a1 00 00 00
	00		 mov	 eax, DWORD PTR fs:0
  00010	50		 push	 eax
  00011	51		 push	 ecx
  00012	56		 push	 esi
  00013	a1 00 00 00 00	 mov	 eax, DWORD PTR ___security_cookie
  00018	33 c5		 xor	 eax, ebp
  0001a	50		 push	 eax
  0001b	8d 45 f4	 lea	 eax, DWORD PTR __$EHRec$[ebp]
  0001e	64 a3 00 00 00
	00		 mov	 DWORD PTR fs:0, eax
  00024	8b f1		 mov	 esi, ecx
  00026	89 75 f0	 mov	 DWORD PTR _this$[ebp], esi
; File C:\Program Files (x86)\Microsoft Visual Studio\2019\Community\VC\Tools\MSVC\14.29.30133\atlmfc\include\afxcmn.inl

; 558  : 	{ }

  00029	e8 00 00 00 00	 call	 ??0CWnd@@QAE@XZ		; CWnd::CWnd
; File D:\git\src\IBK\IBK_DRFN\ProjSrc\SrcChartEx\ChartAddIn\ChartEnvSetupDlgAddIn\ChartEnvSetupDlgAddIn\TabMainChartEnvSetUp.cpp

; 32   : {

  0002e	c7 06 00 00 00
	00		 mov	 DWORD PTR [esi], OFFSET ??_7CTabMainChartEnvSetUp@@6B@
  00034	c7 45 fc 00 00
	00 00		 mov	 DWORD PTR __$EHRec$[ebp+8], 0
; File C:\Program Files (x86)\Microsoft Visual Studio\2019\Community\VC\Tools\MSVC\14.29.30133\atlmfc\include\afxtempl.h

; 851  : {

  0003b	c7 86 88 00 00
	00 00 00 00 00	 mov	 DWORD PTR [esi+136], OFFSET ??_7?$CList@HH@@6B@

; 852  : 	ASSERT(nBlockSize > 0);
; 853  : 
; 854  : 	m_nCount = 0;

  00045	c7 86 94 00 00
	00 00 00 00 00	 mov	 DWORD PTR [esi+148], 0

; 855  : 	m_pNodeHead = m_pNodeTail = m_pNodeFree = NULL;

  0004f	c7 86 98 00 00
	00 00 00 00 00	 mov	 DWORD PTR [esi+152], 0
  00059	c7 86 90 00 00
	00 00 00 00 00	 mov	 DWORD PTR [esi+144], 0
  00063	c7 86 8c 00 00
	00 00 00 00 00	 mov	 DWORD PTR [esi+140], 0

; 856  : 	m_pBlocks = NULL;

  0006d	c7 86 9c 00 00
	00 00 00 00 00	 mov	 DWORD PTR [esi+156], 0

; 857  : 	m_nBlockSize = nBlockSize;

  00077	c7 86 a0 00 00
	00 0a 00 00 00	 mov	 DWORD PTR [esi+160], 10	; 0000000aH
; File D:\git\src\IBK\IBK_DRFN\ProjSrc\SrcChartEx\ChartAddIn\ChartEnvSetupDlgAddIn\ChartEnvSetupDlgAddIn\TabMainChartEnvSetUp.cpp

; 36   : 	if( m_lstTabActiveOrder.GetCount() > 0 )

  00081	83 be 94 00 00
	00 00		 cmp	 DWORD PTR [esi+148], 0
  00088	c6 45 fc 01	 mov	 BYTE PTR __$EHRec$[ebp+8], 1
  0008c	c7 86 a4 00 00
	00 00 00 00 00	 mov	 DWORD PTR [esi+164], 0
  00096	c7 86 b8 00 00
	00 00 00 00 00	 mov	 DWORD PTR [esi+184], 0
  000a0	7e 3d		 jle	 SHORT $LN2@CTabMainCh
; File C:\Program Files (x86)\Microsoft Visual Studio\2019\Community\VC\Tools\MSVC\14.29.30133\atlmfc\include\afxtempl.h

; 872  : 	m_pBlocks->FreeDataChain();

  000a2	8b 8e 9c 00 00
	00		 mov	 ecx, DWORD PTR [esi+156]
  000a8	c7 86 94 00 00
	00 00 00 00 00	 mov	 DWORD PTR [esi+148], 0
  000b2	c7 86 98 00 00
	00 00 00 00 00	 mov	 DWORD PTR [esi+152], 0
  000bc	c7 86 90 00 00
	00 00 00 00 00	 mov	 DWORD PTR [esi+144], 0
  000c6	c7 86 8c 00 00
	00 00 00 00 00	 mov	 DWORD PTR [esi+140], 0
  000d0	e8 00 00 00 00	 call	 ?FreeDataChain@CPlex@@QAEXXZ ; CPlex::FreeDataChain

; 873  : 	m_pBlocks = NULL;

  000d5	c7 86 9c 00 00
	00 00 00 00 00	 mov	 DWORD PTR [esi+156], 0
$LN2@CTabMainCh:
; File D:\git\src\IBK\IBK_DRFN\ProjSrc\SrcChartEx\ChartAddIn\ChartEnvSetupDlgAddIn\ChartEnvSetupDlgAddIn\TabMainChartEnvSetUp.cpp

; 39   : 	m_nUIType = 0;

  000df	c7 86 bc 00 00
	00 00 00 00 00	 mov	 DWORD PTR [esi+188], 0

; 40   : 
; 41   : // vntsorl_20110609:[A00000259]     
; 42   : 	m_bPriceChart = FALSE;
; 43   : }

  000e9	8b c6		 mov	 eax, esi
  000eb	c7 86 c0 00 00
	00 00 00 00 00	 mov	 DWORD PTR [esi+192], 0
  000f5	8b 4d f4	 mov	 ecx, DWORD PTR __$EHRec$[ebp]
  000f8	64 89 0d 00 00
	00 00		 mov	 DWORD PTR fs:0, ecx
  000ff	59		 pop	 ecx
  00100	5e		 pop	 esi
  00101	8b e5		 mov	 esp, ebp
  00103	5d		 pop	 ebp
  00104	c3		 ret	 0
_TEXT	ENDS
;	COMDAT text$x
text$x	SEGMENT
__unwindfunclet$??0CTabMainChartEnvSetUp@@QAE@XZ$0:
  00000	8b 4d f0	 mov	 ecx, DWORD PTR _this$[ebp]
  00003	e9 00 00 00 00	 jmp	 ??1CTabCtrl@@UAE@XZ	; CTabCtrl::~CTabCtrl
__unwindfunclet$??0CTabMainChartEnvSetUp@@QAE@XZ$1:
  00008	8b 4d f0	 mov	 ecx, DWORD PTR _this$[ebp]
  0000b	81 c1 88 00 00
	00		 add	 ecx, 136		; 00000088H
  00011	e9 00 00 00 00	 jmp	 ??1?$CList@HH@@UAE@XZ	; CList<int,int>::~CList<int,int>
  00016	cc		 int	 3
  00017	cc		 int	 3
  00018	cc		 int	 3
  00019	cc		 int	 3
  0001a	cc		 int	 3
__ehhandler$??0CTabMainChartEnvSetUp@@QAE@XZ:
  0001b	90		 npad	 1
  0001c	90		 npad	 1
  0001d	8b 54 24 08	 mov	 edx, DWORD PTR [esp+8]
  00021	8d 42 0c	 lea	 eax, DWORD PTR [edx+12]
  00024	8b 4a f4	 mov	 ecx, DWORD PTR [edx-12]
  00027	33 c8		 xor	 ecx, eax
  00029	e8 00 00 00 00	 call	 @__security_check_cookie@4
  0002e	b8 00 00 00 00	 mov	 eax, OFFSET __ehfuncinfo$??0CTabMainChartEnvSetUp@@QAE@XZ
  00033	e9 00 00 00 00	 jmp	 ___CxxFrameHandler3
text$x	ENDS
??0CTabMainChartEnvSetUp@@QAE@XZ ENDP			; CTabMainChartEnvSetUp::CTabMainChartEnvSetUp
; Function compile flags: /Ogtp
; File C:\Program Files (x86)\Microsoft Visual Studio\2019\Community\VC\Tools\MSVC\14.29.30133\atlmfc\include\afx.inl
;	COMDAT ??_GCTabCtrl@@UAEPAXI@Z
_TEXT	SEGMENT
___flags$ = 8						; size = 4
??_GCTabCtrl@@UAEPAXI@Z PROC				; CTabCtrl::`scalar deleting destructor', COMDAT
; _this$ = ecx
  00000	55		 push	 ebp
  00001	8b ec		 mov	 ebp, esp
  00003	56		 push	 esi
  00004	8b f1		 mov	 esi, ecx
  00006	e8 00 00 00 00	 call	 ??1CTabCtrl@@UAE@XZ	; CTabCtrl::~CTabCtrl
  0000b	8b 45 08	 mov	 eax, DWORD PTR ___flags$[ebp]
  0000e	a8 01		 test	 al, 1
  00010	74 22		 je	 SHORT $LN9@scalar
  00012	a8 04		 test	 al, 4
  00014	75 10		 jne	 SHORT $LN3@scalar

; 112  : 	{ ::operator delete(p); }

  00016	56		 push	 esi
  00017	e8 00 00 00 00	 call	 ??3@YAXPAX@Z		; operator delete
  0001c	83 c4 04	 add	 esp, 4
  0001f	8b c6		 mov	 eax, esi
  00021	5e		 pop	 esi
  00022	5d		 pop	 ebp
  00023	c2 04 00	 ret	 4
$LN3@scalar:
  00026	68 80 00 00 00	 push	 128			; 00000080H
  0002b	56		 push	 esi
  0002c	e8 00 00 00 00	 call	 ?__global_delete@@YAXPAXI@Z ; __global_delete
  00031	83 c4 08	 add	 esp, 8
$LN9@scalar:
  00034	8b c6		 mov	 eax, esi
  00036	5e		 pop	 esi
  00037	5d		 pop	 ebp
  00038	c2 04 00	 ret	 4
??_GCTabCtrl@@UAEPAXI@Z ENDP				; CTabCtrl::`scalar deleting destructor'
_TEXT	ENDS
; Function compile flags: /Ogtp
; File C:\Program Files (x86)\Microsoft Visual Studio\2019\Community\VC\Tools\MSVC\14.29.30133\atlmfc\include\afxwin2.inl
;	COMDAT ?EndModalState@CWnd@@UAEXXZ
_TEXT	SEGMENT
?EndModalState@CWnd@@UAEXXZ PROC			; CWnd::EndModalState, COMDAT
; _this$ = ecx

; 567  : 	{ ::EnableWindow(m_hWnd, TRUE); }

  00000	6a 01		 push	 1
  00002	ff 71 20	 push	 DWORD PTR [ecx+32]
  00005	ff 15 00 00 00
	00		 call	 DWORD PTR __imp__EnableWindow@8
  0000b	c3		 ret	 0
?EndModalState@CWnd@@UAEXXZ ENDP			; CWnd::EndModalState
_TEXT	ENDS
; Function compile flags: /Ogtp
; File C:\Program Files (x86)\Microsoft Visual Studio\2019\Community\VC\Tools\MSVC\14.29.30133\atlmfc\include\afxwin2.inl
;	COMDAT ?BeginModalState@CWnd@@UAEXXZ
_TEXT	SEGMENT
?BeginModalState@CWnd@@UAEXXZ PROC			; CWnd::BeginModalState, COMDAT
; _this$ = ecx

; 565  : 	{ ::EnableWindow(m_hWnd, FALSE); }

  00000	6a 00		 push	 0
  00002	ff 71 20	 push	 DWORD PTR [ecx+32]
  00005	ff 15 00 00 00
	00		 call	 DWORD PTR __imp__EnableWindow@8
  0000b	c3		 ret	 0
?BeginModalState@CWnd@@UAEXXZ ENDP			; CWnd::BeginModalState
_TEXT	ENDS
; Function compile flags: /Ogtp
; File C:\Program Files (x86)\Microsoft Visual Studio\2019\Community\VC\Tools\MSVC\14.29.30133\atlmfc\include\afxwin2.inl
;	COMDAT ?DoDataExchange@CWnd@@MAEXPAVCDataExchange@@@Z
_TEXT	SEGMENT
___formal$ = 8						; size = 4
?DoDataExchange@CWnd@@MAEXPAVCDataExchange@@@Z PROC	; CWnd::DoDataExchange, COMDAT
; _this$ = ecx

; 561  : 	{ } // default does nothing

  00000	c2 04 00	 ret	 4
?DoDataExchange@CWnd@@MAEXPAVCDataExchange@@@Z ENDP	; CWnd::DoDataExchange
_TEXT	ENDS
; Function compile flags: /Ogtp
; File C:\Program Files (x86)\Microsoft Visual Studio\2019\Community\VC\Tools\MSVC\14.29.30133\atlmfc\include\afx.inl
;	COMDAT ?Dump@CObject@@UBEXAAVCDumpContext@@@Z
_TEXT	SEGMENT
___formal$ = 8						; size = 4
?Dump@CObject@@UBEXAAVCDumpContext@@@Z PROC		; CObject::Dump, COMDAT
; _this$ = ecx

; 122  : 	{ /* no dumping in release builds */ }

  00000	c2 04 00	 ret	 4
?Dump@CObject@@UBEXAAVCDumpContext@@@Z ENDP		; CObject::Dump
_TEXT	ENDS
; Function compile flags: /Ogtp
; File C:\Program Files (x86)\Microsoft Visual Studio\2019\Community\VC\Tools\MSVC\14.29.30133\atlmfc\include\afx.inl
;	COMDAT ?AssertValid@CObject@@UBEXXZ
_TEXT	SEGMENT
?AssertValid@CObject@@UBEXXZ PROC			; CObject::AssertValid, COMDAT
; _this$ = ecx

; 120  : 	{ /* no asserts in release builds */ }

  00000	c2 00 00	 ret	 0
?AssertValid@CObject@@UBEXXZ ENDP			; CObject::AssertValid
_TEXT	ENDS
; Function compile flags: /Ogtp
; File C:\Program Files (x86)\Microsoft Visual Studio\2019\Community\VC\Tools\MSVC\14.29.30133\atlmfc\include\afx.inl
;	COMDAT ?Serialize@CObject@@UAEXAAVCArchive@@@Z
_TEXT	SEGMENT
___formal$ = 8						; size = 4
?Serialize@CObject@@UAEXAAVCArchive@@@Z PROC		; CObject::Serialize, COMDAT
; _this$ = ecx

; 106  : 	{ /* CObject does not serialize anything by default */ }

  00000	c2 04 00	 ret	 4
?Serialize@CObject@@UAEXAAVCArchive@@@Z ENDP		; CObject::Serialize
_TEXT	ENDS
; Function compile flags: /Ogtp
; File C:\Program Files (x86)\Microsoft Visual Studio\2019\Community\VC\Tools\MSVC\14.29.30133\atlmfc\include\afx.inl
;	COMDAT ??3CObject@@SGXPAX@Z
_TEXT	SEGMENT
_p$ = 8							; size = 4
??3CObject@@SGXPAX@Z PROC				; CObject::operator delete, COMDAT

; 112  : 	{ ::operator delete(p); }

  00000	55		 push	 ebp
  00001	8b ec		 mov	 ebp, esp
  00003	ff 75 08	 push	 DWORD PTR _p$[ebp]
  00006	e8 00 00 00 00	 call	 ??3@YAXPAX@Z		; operator delete
  0000b	83 c4 04	 add	 esp, 4
  0000e	5d		 pop	 ebp
  0000f	c2 04 00	 ret	 4
??3CObject@@SGXPAX@Z ENDP				; CObject::operator delete
_TEXT	ENDS
; Function compile flags: /Ogtp
; File C:\Program Files (x86)\Microsoft Visual Studio\2019\Community\VC\Tools\MSVC\14.29.30133\atlmfc\include\afx.inl
;	COMDAT ??1CObject@@UAE@XZ
_TEXT	SEGMENT
??1CObject@@UAE@XZ PROC					; CObject::~CObject, COMDAT
; _this$ = ecx

; 104  : 	{ }

  00000	c2 00 00	 ret	 0
??1CObject@@UAE@XZ ENDP					; CObject::~CObject
_TEXT	ENDS
; Function compile flags: /Ogtp
; File D:\git\src\IBK\IBK_DRFN\ProjSrc\SrcChartEx\ChartAddIn\ChartEnvSetupDlgAddIn\ChartEnvSetupDlgAddIn\TabMainChartEnvSetUp.cpp
;	COMDAT ?__empty_global_delete@@YAXPAXI@Z
_TEXT	SEGMENT
___formal$ = 8						; size = 4
___formal$ = 12						; size = 4
?__empty_global_delete@@YAXPAXI@Z PROC			; __empty_global_delete, COMDAT

  00000	c2 00 00	 ret	 0
?__empty_global_delete@@YAXPAXI@Z ENDP			; __empty_global_delete
_TEXT	ENDS
; Function compile flags: /Ogtp
; File D:\git\src\IBK\IBK_DRFN\ProjSrc\SrcChartEx\ChartAddIn\ChartEnvSetupDlgAddIn\ChartEnvSetupDlgAddIn\TabMainChartEnvSetUp.cpp
;	COMDAT ?__empty_global_delete@@YAXPAX@Z
_TEXT	SEGMENT
___formal$ = 8						; size = 4
?__empty_global_delete@@YAXPAX@Z PROC			; __empty_global_delete, COMDAT

  00000	c2 00 00	 ret	 0
?__empty_global_delete@@YAXPAX@Z ENDP			; __empty_global_delete
_TEXT	ENDS
END
