; Listing generated by Microsoft (R) Optimizing Compiler Version 19.29.30145.0 

	TITLE	D:\git\src\IBK\IBK_DRFN\#DRfn-CS\_Obj\ChartEnvSetupDlgAddIn\TabSubIndicatorSetUpCtrl.obj
	.686P
	.XMM
	include listing.inc
	.model	flat

INCLUDELIB MSVCRT
INCLUDELIB OLDNAMES

PUBLIC	??_C@_01GBGANLPD@0@				; `string'
PUBLIC	??_C@_01HIHLOKLC@1@				; `string'
PUBLIC	??_C@_01FDFGLJHB@2@				; `string'
PUBLIC	??_C@_01EKENIIDA@3@				; `string'
PUBLIC	??_C@_01FAMBOPH@4@				; `string'
PUBLIC	??_C@_01BMBHCPLG@5@				; `string'
PUBLIC	??_C@_01DHDKHMHF@6@				; `string'
PUBLIC	??_C@_01COCBENDE@7@				; `string'
PUBLIC	??_C@_01KJLJFBPL@8@				; `string'
PUBLIC	??_C@_01LAKCGALK@9@				; `string'
PUBLIC	??_C@_02PKFBJPLJ@10@				; `string'
PUBLIC	??_C@_02ODEKKOPI@11@				; `string'
PUBLIC	??_C@_02MIGHPNDL@12@				; `string'
PUBLIC	??_C@_02NBHMMMHK@13@				; `string'
PUBLIC	??_C@_02JODNFKLN@14@				; `string'
PUBLIC	??_C@_02IHCGGLPM@15@				; `string'
PUBLIC	??_C@_02KMALDIDP@16@				; `string'
PUBLIC	??_C@_02LFBAAJHO@17@				; `string'
PUBLIC	??_C@_02DCIIBFLB@18@				; `string'
PUBLIC	??_C@_02CLJDCEPA@19@				; `string'
PUBLIC	??_C@_02PIBHCBOA@20@				; `string'
PUBLIC	??_C@_02OBAMBAKB@21@				; `string'
PUBLIC	??_C@_02MKCBEDGC@22@				; `string'
PUBLIC	??_C@_02NDDKHCCD@23@				; `string'
PUBLIC	??_C@_02JMHLOEOE@24@				; `string'
;	COMDAT ??_C@_02JMHLOEOE@24@
CONST	SEGMENT
??_C@_02JMHLOEOE@24@ DB '24', 00H			; `string'
CONST	ENDS
;	COMDAT ??_C@_02NDDKHCCD@23@
CONST	SEGMENT
??_C@_02NDDKHCCD@23@ DB '23', 00H			; `string'
CONST	ENDS
;	COMDAT ??_C@_02MKCBEDGC@22@
CONST	SEGMENT
??_C@_02MKCBEDGC@22@ DB '22', 00H			; `string'
CONST	ENDS
;	COMDAT ??_C@_02OBAMBAKB@21@
CONST	SEGMENT
??_C@_02OBAMBAKB@21@ DB '21', 00H			; `string'
CONST	ENDS
;	COMDAT ??_C@_02PIBHCBOA@20@
CONST	SEGMENT
??_C@_02PIBHCBOA@20@ DB '20', 00H			; `string'
CONST	ENDS
;	COMDAT ??_C@_02CLJDCEPA@19@
CONST	SEGMENT
??_C@_02CLJDCEPA@19@ DB '19', 00H			; `string'
CONST	ENDS
;	COMDAT ??_C@_02DCIIBFLB@18@
CONST	SEGMENT
??_C@_02DCIIBFLB@18@ DB '18', 00H			; `string'
CONST	ENDS
;	COMDAT ??_C@_02LFBAAJHO@17@
CONST	SEGMENT
??_C@_02LFBAAJHO@17@ DB '17', 00H			; `string'
CONST	ENDS
;	COMDAT ??_C@_02KMALDIDP@16@
CONST	SEGMENT
??_C@_02KMALDIDP@16@ DB '16', 00H			; `string'
CONST	ENDS
;	COMDAT ??_C@_02IHCGGLPM@15@
CONST	SEGMENT
??_C@_02IHCGGLPM@15@ DB '15', 00H			; `string'
CONST	ENDS
;	COMDAT ??_C@_02JODNFKLN@14@
CONST	SEGMENT
??_C@_02JODNFKLN@14@ DB '14', 00H			; `string'
CONST	ENDS
;	COMDAT ??_C@_02NBHMMMHK@13@
CONST	SEGMENT
??_C@_02NBHMMMHK@13@ DB '13', 00H			; `string'
CONST	ENDS
;	COMDAT ??_C@_02MIGHPNDL@12@
CONST	SEGMENT
??_C@_02MIGHPNDL@12@ DB '12', 00H			; `string'
CONST	ENDS
;	COMDAT ??_C@_02ODEKKOPI@11@
CONST	SEGMENT
??_C@_02ODEKKOPI@11@ DB '11', 00H			; `string'
CONST	ENDS
;	COMDAT ??_C@_02PKFBJPLJ@10@
CONST	SEGMENT
??_C@_02PKFBJPLJ@10@ DB '10', 00H			; `string'
CONST	ENDS
;	COMDAT ??_C@_01LAKCGALK@9@
CONST	SEGMENT
??_C@_01LAKCGALK@9@ DB '9', 00H				; `string'
CONST	ENDS
;	COMDAT ??_C@_01KJLJFBPL@8@
CONST	SEGMENT
??_C@_01KJLJFBPL@8@ DB '8', 00H				; `string'
CONST	ENDS
;	COMDAT ??_C@_01COCBENDE@7@
CONST	SEGMENT
??_C@_01COCBENDE@7@ DB '7', 00H				; `string'
CONST	ENDS
;	COMDAT ??_C@_01DHDKHMHF@6@
CONST	SEGMENT
??_C@_01DHDKHMHF@6@ DB '6', 00H				; `string'
CONST	ENDS
;	COMDAT ??_C@_01BMBHCPLG@5@
CONST	SEGMENT
??_C@_01BMBHCPLG@5@ DB '5', 00H				; `string'
CONST	ENDS
;	COMDAT ??_C@_01FAMBOPH@4@
CONST	SEGMENT
??_C@_01FAMBOPH@4@ DB '4', 00H				; `string'
CONST	ENDS
;	COMDAT ??_C@_01EKENIIDA@3@
CONST	SEGMENT
??_C@_01EKENIIDA@3@ DB '3', 00H				; `string'
CONST	ENDS
;	COMDAT ??_C@_01FDFGLJHB@2@
CONST	SEGMENT
??_C@_01FDFGLJHB@2@ DB '2', 00H				; `string'
CONST	ENDS
;	COMDAT ??_C@_01HIHLOKLC@1@
CONST	SEGMENT
??_C@_01HIHLOKLC@1@ DB '1', 00H				; `string'
CONST	ENDS
;	COMDAT ??_C@_01GBGANLPD@0@
CONST	SEGMENT
??_C@_01GBGANLPD@0@ DB '0', 00H				; `string'
CONST	ENDS
PUBLIC	?__empty_global_delete@@YAXPAX@Z		; __empty_global_delete
PUBLIC	?__empty_global_delete@@YAXPAXI@Z		; __empty_global_delete
PUBLIC	??3CObject@@SGXPAX@Z				; CObject::operator delete
PUBLIC	?Serialize@CObject@@UAEXAAVCArchive@@@Z		; CObject::Serialize
PUBLIC	?AssertValid@CObject@@UBEXXZ			; CObject::AssertValid
PUBLIC	?Dump@CObject@@UBEXAAVCDumpContext@@@Z		; CObject::Dump
PUBLIC	?DoDataExchange@CWnd@@MAEXPAVCDataExchange@@@Z	; CWnd::DoDataExchange
PUBLIC	?BeginModalState@CWnd@@UAEXXZ			; CWnd::BeginModalState
PUBLIC	?EndModalState@CWnd@@UAEXXZ			; CWnd::EndModalState
PUBLIC	??_GCTabCtrl@@UAEPAXI@Z				; CTabCtrl::`scalar deleting destructor'
PUBLIC	??0CTabSubIndicatorSetUpCtrl@@QAE@XZ		; CTabSubIndicatorSetUpCtrl::CTabSubIndicatorSetUpCtrl
PUBLIC	?PreTranslateMessage@CTabSubIndicatorSetUpCtrl@@UAEHPAUtagMSG@@@Z ; CTabSubIndicatorSetUpCtrl::PreTranslateMessage
PUBLIC	??1CTabSubIndicatorSetUpCtrl@@UAE@XZ		; CTabSubIndicatorSetUpCtrl::~CTabSubIndicatorSetUpCtrl
PUBLIC	?Init@CTabSubIndicatorSetUpCtrl@@QAEXPAUIChartOCX135914@@PAVCTabParentDlg@@@Z ; CTabSubIndicatorSetUpCtrl::Init
PUBLIC	?GetSubTab@CTabSubIndicatorSetUpCtrl@@QAEPAVCWnd@@H@Z ; CTabSubIndicatorSetUpCtrl::GetSubTab
PUBLIC	?ReadIndicatorExpFile@CTabSubIndicatorSetUpCtrl@@QAEXXZ ; CTabSubIndicatorSetUpCtrl::ReadIndicatorExpFile
PUBLIC	?GetSubGraphName@CTabSubIndicatorSetUpCtrl@@QAE?AV?$CStringT@DV?$StrTraitMFC_DLL@DV?$ChTraitsCRT@D@ATL@@@@@ATL@@XZ ; CTabSubIndicatorSetUpCtrl::GetSubGraphName
PUBLIC	?SetSubGraphName@CTabSubIndicatorSetUpCtrl@@QAEXV?$CStringT@DV?$StrTraitMFC_DLL@DV?$ChTraitsCRT@D@ATL@@@@@ATL@@@Z ; CTabSubIndicatorSetUpCtrl::SetSubGraphName
PUBLIC	?CreateTabPage@CTabSubIndicatorSetUpCtrl@@AAEXPAUIChartOCX135914@@@Z ; CTabSubIndicatorSetUpCtrl::CreateTabPage
PUBLIC	?SetTabPagePosition@CTabSubIndicatorSetUpCtrl@@AAEXXZ ; CTabSubIndicatorSetUpCtrl::SetTabPagePosition
PUBLIC	?OnSelchange@CTabSubIndicatorSetUpCtrl@@IAEXPAUtagNMHDR@@PAJ@Z ; CTabSubIndicatorSetUpCtrl::OnSelchange
PUBLIC	?GetThisMessageMap@CTabSubIndicatorSetUpCtrl@@KGPBUAFX_MSGMAP@@XZ ; CTabSubIndicatorSetUpCtrl::GetThisMessageMap
PUBLIC	?GetMessageMap@CTabSubIndicatorSetUpCtrl@@MBEPBUAFX_MSGMAP@@XZ ; CTabSubIndicatorSetUpCtrl::GetMessageMap
PUBLIC	??_GCTabSubIndicatorSetUpCtrl@@UAEPAXI@Z	; CTabSubIndicatorSetUpCtrl::`scalar deleting destructor'
PUBLIC	??_7CTabCtrl@@6B@				; CTabCtrl::`vftable'
PUBLIC	??_R0?AVCObject@@@8				; CObject `RTTI Type Descriptor'
PUBLIC	??_R3CObject@@8					; CObject::`RTTI Class Hierarchy Descriptor'
PUBLIC	??_R2CObject@@8					; CObject::`RTTI Base Class Array'
PUBLIC	??_R1A@?0A@EA@CObject@@8			; CObject::`RTTI Base Class Descriptor at (0,-1,0,64)'
PUBLIC	??_R1A@?0A@EA@CWnd@@8				; CWnd::`RTTI Base Class Descriptor at (0,-1,0,64)'
PUBLIC	??_R0?AVCWnd@@@8				; CWnd `RTTI Type Descriptor'
PUBLIC	??_R3CWnd@@8					; CWnd::`RTTI Class Hierarchy Descriptor'
PUBLIC	??_R2CWnd@@8					; CWnd::`RTTI Base Class Array'
PUBLIC	??_R1A@?0A@EA@CCmdTarget@@8			; CCmdTarget::`RTTI Base Class Descriptor at (0,-1,0,64)'
PUBLIC	??_R0?AVCCmdTarget@@@8				; CCmdTarget `RTTI Type Descriptor'
PUBLIC	??_R3CCmdTarget@@8				; CCmdTarget::`RTTI Class Hierarchy Descriptor'
PUBLIC	??_R2CCmdTarget@@8				; CCmdTarget::`RTTI Base Class Array'
PUBLIC	??_R4CTabCtrl@@6B@				; CTabCtrl::`RTTI Complete Object Locator'
PUBLIC	??_R0?AVCTabCtrl@@@8				; CTabCtrl `RTTI Type Descriptor'
PUBLIC	??_R3CTabCtrl@@8				; CTabCtrl::`RTTI Class Hierarchy Descriptor'
PUBLIC	??_R2CTabCtrl@@8				; CTabCtrl::`RTTI Base Class Array'
PUBLIC	??_R1A@?0A@EA@CTabCtrl@@8			; CTabCtrl::`RTTI Base Class Descriptor at (0,-1,0,64)'
PUBLIC	??_7CTabSubIndicatorSetUpCtrl@@6B@		; CTabSubIndicatorSetUpCtrl::`vftable'
PUBLIC	??_R4CTabSubIndicatorSetUpCtrl@@6B@		; CTabSubIndicatorSetUpCtrl::`RTTI Complete Object Locator'
PUBLIC	??_R0?AVCTabSubIndicatorSetUpCtrl@@@8		; CTabSubIndicatorSetUpCtrl `RTTI Type Descriptor'
PUBLIC	??_R3CTabSubIndicatorSetUpCtrl@@8		; CTabSubIndicatorSetUpCtrl::`RTTI Class Hierarchy Descriptor'
PUBLIC	??_R2CTabSubIndicatorSetUpCtrl@@8		; CTabSubIndicatorSetUpCtrl::`RTTI Base Class Array'
PUBLIC	??_R1A@?0A@EA@CTabSubIndicatorSetUpCtrl@@8	; CTabSubIndicatorSetUpCtrl::`RTTI Base Class Descriptor at (0,-1,0,64)'
EXTRN	??2@YAPAXI@Z:PROC				; operator new
EXTRN	??3@YAXPAX@Z:PROC				; operator delete
EXTRN	?__global_delete@@YAXPAXI@Z:PROC		; __global_delete
EXTRN	___std_terminate:PROC
EXTRN	__imp__SendMessageA@16:PROC
EXTRN	__imp__EnableWindow@8:PROC
EXTRN	__imp__GetClientRect@8:PROC
EXTRN	__imp_??0?$CStringT@DV?$StrTraitMFC_DLL@DV?$ChTraitsCRT@D@ATL@@@@@ATL@@QAE@XZ:PROC
EXTRN	__imp_??0?$CStringT@DV?$StrTraitMFC_DLL@DV?$ChTraitsCRT@D@ATL@@@@@ATL@@QAE@ABV01@@Z:PROC
EXTRN	__imp_??1?$CStringT@DV?$StrTraitMFC_DLL@DV?$ChTraitsCRT@D@ATL@@@@@ATL@@QAE@XZ:PROC
EXTRN	__imp_??4?$CStringT@DV?$StrTraitMFC_DLL@DV?$ChTraitsCRT@D@ATL@@@@@ATL@@QAEAAV01@ABV01@@Z:PROC
EXTRN	__imp_?LoadStringA@?$CStringT@DV?$StrTraitMFC_DLL@DV?$ChTraitsCRT@D@ATL@@@@@ATL@@QAEHI@Z:PROC
EXTRN	?OnCmdMsg@CCmdTarget@@UAEHIHPAXPAUAFX_CMDHANDLERINFO@@@Z:PROC ; CCmdTarget::OnCmdMsg
EXTRN	?IsInvokeAllowed@CCmdTarget@@UAEHJ@Z:PROC	; CCmdTarget::IsInvokeAllowed
EXTRN	?GetDispatchIID@CCmdTarget@@UAEHPAU_GUID@@@Z:PROC ; CCmdTarget::GetDispatchIID
EXTRN	?GetTypeInfoCount@CCmdTarget@@UAEIXZ:PROC	; CCmdTarget::GetTypeInfoCount
EXTRN	?GetTypeLibCache@CCmdTarget@@UAEPAVCTypeLibCache@@XZ:PROC ; CCmdTarget::GetTypeLibCache
EXTRN	?GetTypeLib@CCmdTarget@@UAEJKPAPAUITypeLib@@@Z:PROC ; CCmdTarget::GetTypeLib
EXTRN	?GetCommandMap@CCmdTarget@@MBEPBUAFX_OLECMDMAP@@XZ:PROC ; CCmdTarget::GetCommandMap
EXTRN	?GetDispatchMap@CCmdTarget@@MBEPBUAFX_DISPMAP@@XZ:PROC ; CCmdTarget::GetDispatchMap
EXTRN	?GetConnectionMap@CCmdTarget@@MBEPBUAFX_CONNECTIONMAP@@XZ:PROC ; CCmdTarget::GetConnectionMap
EXTRN	?GetEventSinkMap@CCmdTarget@@MBEPBUAFX_EVENTSINKMAP@@XZ:PROC ; CCmdTarget::GetEventSinkMap
EXTRN	?OnCreateAggregates@CCmdTarget@@UAEHXZ:PROC	; CCmdTarget::OnCreateAggregates
EXTRN	?GetInterfaceHook@CCmdTarget@@UAEPAUIUnknown@@PBX@Z:PROC ; CCmdTarget::GetInterfaceHook
EXTRN	?GetExtraConnectionPoints@CCmdTarget@@MAEHPAVCPtrArray@@@Z:PROC ; CCmdTarget::GetExtraConnectionPoints
EXTRN	?GetConnectionHook@CCmdTarget@@MAEPAUIConnectionPoint@@ABU_GUID@@@Z:PROC ; CCmdTarget::GetConnectionHook
EXTRN	??0CWnd@@QAE@XZ:PROC				; CWnd::CWnd
EXTRN	?PreSubclassWindow@CWnd@@UAEXXZ:PROC		; CWnd::PreSubclassWindow
EXTRN	?Create@CWnd@@UAEHPBD0KABUtagRECT@@PAV1@IPAUCCreateContext@@@Z:PROC ; CWnd::Create
EXTRN	?CreateEx@CWnd@@UAEHKPBD0KHHHHPAUHWND__@@PAUHMENU__@@PAX@Z:PROC ; CWnd::CreateEx
EXTRN	?CreateEx@CWnd@@UAEHKPBD0KABUtagRECT@@PAV1@IPAX@Z:PROC ; CWnd::CreateEx
EXTRN	?DestroyWindow@CWnd@@UAEHXZ:PROC		; CWnd::DestroyWindow
EXTRN	?PreCreateWindow@CWnd@@UAEHAAUtagCREATESTRUCTA@@@Z:PROC ; CWnd::PreCreateWindow
EXTRN	?CalcWindowRect@CWnd@@UAEXPAUtagRECT@@I@Z:PROC	; CWnd::CalcWindowRect
EXTRN	?GetDlgItem@CWnd@@QBEPAV1@H@Z:PROC		; CWnd::GetDlgItem
EXTRN	?GetMenu@CWnd@@UBEPAVCMenu@@XZ:PROC		; CWnd::GetMenu
EXTRN	?SetMenu@CWnd@@UAEHPAVCMenu@@@Z:PROC		; CWnd::SetMenu
EXTRN	?SetWindowPos@CWnd@@QAEHPBV1@HHHHI@Z:PROC	; CWnd::SetWindowPos
EXTRN	?ShowWindow@CWnd@@QAEHH@Z:PROC			; CWnd::ShowWindow
EXTRN	?OnToolHitTest@CWnd@@UBEHVCPoint@@PAUtagTOOLINFOA@@@Z:PROC ; CWnd::OnToolHitTest
EXTRN	?SetFocus@CWnd@@QAEPAV1@XZ:PROC			; CWnd::SetFocus
EXTRN	?GetScrollBarCtrl@CWnd@@UBEPAVCScrollBar@@H@Z:PROC ; CWnd::GetScrollBarCtrl
EXTRN	?WinHelpA@CWnd@@UAEXKI@Z:PROC			; CWnd::WinHelpA
EXTRN	?HtmlHelpA@CWnd@@UAEXKI@Z:PROC			; CWnd::HtmlHelpA
EXTRN	?WinHelpInternal@CWnd@@UAEXKI@Z:PROC		; CWnd::WinHelpInternal
EXTRN	?ContinueModal@CWnd@@UAEHXZ:PROC		; CWnd::ContinueModal
EXTRN	?EndModalLoop@CWnd@@UAEXH@Z:PROC		; CWnd::EndModalLoop
EXTRN	?OnDrawIconicThumbnailOrLivePreview@CWnd@@UAEXAAVCDC@@VCRect@@VCSize@@HAAH@Z:PROC ; CWnd::OnDrawIconicThumbnailOrLivePreview
EXTRN	?GetInterfaceMap@CWnd@@MBEPBUAFX_INTERFACEMAP@@XZ:PROC ; CWnd::GetInterfaceMap
EXTRN	?EnsureStdObj@CWnd@@UAEJXZ:PROC			; CWnd::EnsureStdObj
EXTRN	?get_accParent@CWnd@@UAEJPAPAUIDispatch@@@Z:PROC ; CWnd::get_accParent
EXTRN	?get_accChildCount@CWnd@@UAEJPAJ@Z:PROC		; CWnd::get_accChildCount
EXTRN	?get_accChild@CWnd@@UAEJUtagVARIANT@@PAPAUIDispatch@@@Z:PROC ; CWnd::get_accChild
EXTRN	?get_accName@CWnd@@UAEJUtagVARIANT@@PAPA_W@Z:PROC ; CWnd::get_accName
EXTRN	?get_accValue@CWnd@@UAEJUtagVARIANT@@PAPA_W@Z:PROC ; CWnd::get_accValue
EXTRN	?get_accDescription@CWnd@@UAEJUtagVARIANT@@PAPA_W@Z:PROC ; CWnd::get_accDescription
EXTRN	?get_accRole@CWnd@@UAEJUtagVARIANT@@PAU2@@Z:PROC ; CWnd::get_accRole
EXTRN	?get_accState@CWnd@@UAEJUtagVARIANT@@PAU2@@Z:PROC ; CWnd::get_accState
EXTRN	?get_accHelp@CWnd@@UAEJUtagVARIANT@@PAPA_W@Z:PROC ; CWnd::get_accHelp
EXTRN	?get_accHelpTopic@CWnd@@UAEJPAPA_WUtagVARIANT@@PAJ@Z:PROC ; CWnd::get_accHelpTopic
EXTRN	?get_accKeyboardShortcut@CWnd@@UAEJUtagVARIANT@@PAPA_W@Z:PROC ; CWnd::get_accKeyboardShortcut
EXTRN	?get_accFocus@CWnd@@UAEJPAUtagVARIANT@@@Z:PROC	; CWnd::get_accFocus
EXTRN	?get_accSelection@CWnd@@UAEJPAUtagVARIANT@@@Z:PROC ; CWnd::get_accSelection
EXTRN	?get_accDefaultAction@CWnd@@UAEJUtagVARIANT@@PAPA_W@Z:PROC ; CWnd::get_accDefaultAction
EXTRN	?accSelect@CWnd@@UAEJJUtagVARIANT@@@Z:PROC	; CWnd::accSelect
EXTRN	?accLocation@CWnd@@UAEJPAJ000UtagVARIANT@@@Z:PROC ; CWnd::accLocation
EXTRN	?accNavigate@CWnd@@UAEJJUtagVARIANT@@PAU2@@Z:PROC ; CWnd::accNavigate
EXTRN	?accHitTest@CWnd@@UAEJJJPAUtagVARIANT@@@Z:PROC	; CWnd::accHitTest
EXTRN	?accDoDefaultAction@CWnd@@UAEJUtagVARIANT@@@Z:PROC ; CWnd::accDoDefaultAction
EXTRN	?put_accName@CWnd@@UAEJUtagVARIANT@@PA_W@Z:PROC	; CWnd::put_accName
EXTRN	?put_accValue@CWnd@@UAEJUtagVARIANT@@PA_W@Z:PROC ; CWnd::put_accValue
EXTRN	?SetProxy@CWnd@@UAEJPAUIAccessibleProxy@@@Z:PROC ; CWnd::SetProxy
EXTRN	?CreateAccessibleProxy@CWnd@@UAEJIJPAJ@Z:PROC	; CWnd::CreateAccessibleProxy
EXTRN	?OnCommand@CWnd@@MAEHIJ@Z:PROC			; CWnd::OnCommand
EXTRN	?OnNotify@CWnd@@MAEHIJPAJ@Z:PROC		; CWnd::OnNotify
EXTRN	?GetSuperWndProcAddr@CWnd@@MAEPAP6GJPAUHWND__@@IIJ@ZXZ:PROC ; CWnd::GetSuperWndProcAddr
EXTRN	?PreTranslateMessage@CWnd@@UAEHPAUtagMSG@@@Z:PROC ; CWnd::PreTranslateMessage
EXTRN	?OnAmbientProperty@CWnd@@UAEHPAVCOleControlSite@@JPAUtagVARIANT@@@Z:PROC ; CWnd::OnAmbientProperty
EXTRN	?WindowProc@CWnd@@MAEJIIJ@Z:PROC		; CWnd::WindowProc
EXTRN	?OnWndMsg@CWnd@@MAEHIIJPAJ@Z:PROC		; CWnd::OnWndMsg
EXTRN	?DefWindowProcA@CWnd@@MAEJIIJ@Z:PROC		; CWnd::DefWindowProcA
EXTRN	?PostNcDestroy@CWnd@@MAEXXZ:PROC		; CWnd::PostNcDestroy
EXTRN	?OnTouchInputs@CWnd@@MAEHIPAUtagTOUCHINPUT@@@Z:PROC ; CWnd::OnTouchInputs
EXTRN	?OnTouchInput@CWnd@@MAEHVCPoint@@HHPAUtagTOUCHINPUT@@@Z:PROC ; CWnd::OnTouchInput
EXTRN	?GetGestureStatus@CWnd@@MAEKVCPoint@@@Z:PROC	; CWnd::GetGestureStatus
EXTRN	?OnGestureZoom@CWnd@@MAEHVCPoint@@J@Z:PROC	; CWnd::OnGestureZoom
EXTRN	?OnGesturePan@CWnd@@MAEHVCPoint@@0@Z:PROC	; CWnd::OnGesturePan
EXTRN	?OnGestureRotate@CWnd@@MAEHVCPoint@@N@Z:PROC	; CWnd::OnGestureRotate
EXTRN	?OnGestureTwoFingerTap@CWnd@@MAEHVCPoint@@@Z:PROC ; CWnd::OnGestureTwoFingerTap
EXTRN	?OnGesturePressAndTap@CWnd@@MAEHVCPoint@@J@Z:PROC ; CWnd::OnGesturePressAndTap
EXTRN	?ResizeDynamicLayout@CWnd@@MAEXXZ:PROC		; CWnd::ResizeDynamicLayout
EXTRN	?CheckAutoCenter@CWnd@@UAEHXZ:PROC		; CWnd::CheckAutoCenter
EXTRN	?IsFrameWnd@CWnd@@UBEHXZ:PROC			; CWnd::IsFrameWnd
EXTRN	?OnFinalRelease@CWnd@@UAEXXZ:PROC		; CWnd::OnFinalRelease
EXTRN	?CreateControlContainer@CWnd@@MAEHPAPAVCOleControlContainer@@@Z:PROC ; CWnd::CreateControlContainer
EXTRN	?CreateControlSite@CWnd@@MAEHPAVCOleControlContainer@@PAPAVCOleControlSite@@IABU_GUID@@@Z:PROC ; CWnd::CreateControlSite
EXTRN	?SetOccDialogInfo@CWnd@@MAEHPAU_AFX_OCC_DIALOG_INFO@@@Z:PROC ; CWnd::SetOccDialogInfo
EXTRN	?GetOccDialogInfo@CWnd@@MAEPAU_AFX_OCC_DIALOG_INFO@@XZ:PROC ; CWnd::GetOccDialogInfo
EXTRN	??0CDialog@@QAE@IPAVCWnd@@@Z:PROC		; CDialog::CDialog
EXTRN	?GetRuntimeClass@CTabCtrl@@UBEPAUCRuntimeClass@@XZ:PROC ; CTabCtrl::GetRuntimeClass
EXTRN	?Create@CTabCtrl@@UAEHKABUtagRECT@@PAVCWnd@@I@Z:PROC ; CTabCtrl::Create
EXTRN	?CreateEx@CTabCtrl@@UAEHKKABUtagRECT@@PAVCWnd@@I@Z:PROC ; CTabCtrl::CreateEx
EXTRN	?InsertItem@CTabCtrl@@QAEJIHPBDHJ@Z:PROC	; CTabCtrl::InsertItem
EXTRN	?DrawItem@CTabCtrl@@UAEXPAUtagDRAWITEMSTRUCT@@@Z:PROC ; CTabCtrl::DrawItem
EXTRN	??1CTabCtrl@@UAE@XZ:PROC			; CTabCtrl::~CTabCtrl
EXTRN	?OnChildNotify@CTabCtrl@@MAEHIIJPAJ@Z:PROC	; CTabCtrl::OnChildNotify
EXTRN	?GetThisMessageMap@CTabCtrl@@KGPBUAFX_MSGMAP@@XZ:PROC ; CTabCtrl::GetThisMessageMap
EXTRN	?GetMessageMap@CTabCtrl@@MBEPBUAFX_MSGMAP@@XZ:PROC ; CTabCtrl::GetMessageMap
EXTRN	??_ECTabCtrl@@UAEPAXI@Z:PROC			; CTabCtrl::`vector deleting destructor'
EXTRN	_GetAddInIVersion:PROC
EXTRN	??_ECTabSubIndicatorSetUpCtrl@@UAEPAXI@Z:PROC	; CTabSubIndicatorSetUpCtrl::`vector deleting destructor'
EXTRN	?OK@CDlgMainTabIndicatorSetUp@@QAEXXZ:PROC	; CDlgMainTabIndicatorSetUp::OK
EXTRN	?Cancel@CDlgMainTabIndicatorSetUp@@QAEXXZ:PROC	; CDlgMainTabIndicatorSetUp::Cancel
EXTRN	??0CDlgSubTabIndicatorExp@@QAE@PAUIChartOCX135914@@PAVCWnd@@@Z:PROC ; CDlgSubTabIndicatorExp::CDlgSubTabIndicatorExp
EXTRN	?ReadIndicatorExpFile@CDlgSubTabIndicatorExp@@QAEXV?$CStringT@DV?$StrTraitMFC_DLL@DV?$ChTraitsCRT@D@ATL@@@@@ATL@@@Z:PROC ; CDlgSubTabIndicatorExp::ReadIndicatorExpFile
EXTRN	@__security_check_cookie@4:PROC
EXTRN	___CxxFrameHandler3:PROC
EXTRN	??_7type_info@@6B@:QWORD			; type_info::`vftable'
EXTRN	__imp_?wndTop@CWnd@@2V1@B:BYTE
EXTRN	___security_cookie:DWORD
;	COMDAT ??_R1A@?0A@EA@CTabSubIndicatorSetUpCtrl@@8
rdata$r	SEGMENT
??_R1A@?0A@EA@CTabSubIndicatorSetUpCtrl@@8 DD FLAT:??_R0?AVCTabSubIndicatorSetUpCtrl@@@8 ; CTabSubIndicatorSetUpCtrl::`RTTI Base Class Descriptor at (0,-1,0,64)'
	DD	04H
	DD	00H
	DD	0ffffffffH
	DD	00H
	DD	040H
	DD	FLAT:??_R3CTabSubIndicatorSetUpCtrl@@8
rdata$r	ENDS
;	COMDAT ??_R2CTabSubIndicatorSetUpCtrl@@8
rdata$r	SEGMENT
??_R2CTabSubIndicatorSetUpCtrl@@8 DD FLAT:??_R1A@?0A@EA@CTabSubIndicatorSetUpCtrl@@8 ; CTabSubIndicatorSetUpCtrl::`RTTI Base Class Array'
	DD	FLAT:??_R1A@?0A@EA@CTabCtrl@@8
	DD	FLAT:??_R1A@?0A@EA@CWnd@@8
	DD	FLAT:??_R1A@?0A@EA@CCmdTarget@@8
	DD	FLAT:??_R1A@?0A@EA@CObject@@8
rdata$r	ENDS
;	COMDAT ??_R3CTabSubIndicatorSetUpCtrl@@8
rdata$r	SEGMENT
??_R3CTabSubIndicatorSetUpCtrl@@8 DD 00H		; CTabSubIndicatorSetUpCtrl::`RTTI Class Hierarchy Descriptor'
	DD	00H
	DD	05H
	DD	FLAT:??_R2CTabSubIndicatorSetUpCtrl@@8
rdata$r	ENDS
;	COMDAT ??_R0?AVCTabSubIndicatorSetUpCtrl@@@8
data$rs	SEGMENT
??_R0?AVCTabSubIndicatorSetUpCtrl@@@8 DD FLAT:??_7type_info@@6B@ ; CTabSubIndicatorSetUpCtrl `RTTI Type Descriptor'
	DD	00H
	DB	'.?AVCTabSubIndicatorSetUpCtrl@@', 00H
data$rs	ENDS
;	COMDAT ??_R4CTabSubIndicatorSetUpCtrl@@6B@
rdata$r	SEGMENT
??_R4CTabSubIndicatorSetUpCtrl@@6B@ DD 00H		; CTabSubIndicatorSetUpCtrl::`RTTI Complete Object Locator'
	DD	00H
	DD	00H
	DD	FLAT:??_R0?AVCTabSubIndicatorSetUpCtrl@@@8
	DD	FLAT:??_R3CTabSubIndicatorSetUpCtrl@@8
rdata$r	ENDS
;	COMDAT ?messageMap@?1??GetThisMessageMap@CTabSubIndicatorSetUpCtrl@@KGPBUAFX_MSGMAP@@XZ@4U3@B
CONST	SEGMENT
?messageMap@?1??GetThisMessageMap@CTabSubIndicatorSetUpCtrl@@KGPBUAFX_MSGMAP@@XZ@4U3@B DD FLAT:?GetThisMessageMap@CTabCtrl@@KGPBUAFX_MSGMAP@@XZ ; `CTabSubIndicatorSetUpCtrl::GetThisMessageMap'::`2'::messageMap
	DD	FLAT:?_messageEntries@?1??GetThisMessageMap@CTabSubIndicatorSetUpCtrl@@KGPBUAFX_MSGMAP@@XZ@4QBUAFX_MSGMAP_ENTRY@@B
CONST	ENDS
;	COMDAT ?_messageEntries@?1??GetThisMessageMap@CTabSubIndicatorSetUpCtrl@@KGPBUAFX_MSGMAP@@XZ@4QBUAFX_MSGMAP_ENTRY@@B
CONST	SEGMENT
?_messageEntries@?1??GetThisMessageMap@CTabSubIndicatorSetUpCtrl@@KGPBUAFX_MSGMAP@@XZ@4QBUAFX_MSGMAP_ENTRY@@B DD 0bc4eH ; `CTabSubIndicatorSetUpCtrl::GetThisMessageMap'::`2'::_messageEntries
	DD	0fdd9H
	DD	00H
	DD	00H
	DD	03eH
	DD	FLAT:?OnSelchange@CTabSubIndicatorSetUpCtrl@@IAEXPAUtagNMHDR@@PAJ@Z
	DD	00H
	DD	00H
	DD	00H
	DD	00H
	DD	00H
	DD	00H
CONST	ENDS
;	COMDAT ??_7CTabSubIndicatorSetUpCtrl@@6B@
CONST	SEGMENT
??_7CTabSubIndicatorSetUpCtrl@@6B@ DD FLAT:??_R4CTabSubIndicatorSetUpCtrl@@6B@ ; CTabSubIndicatorSetUpCtrl::`vftable'
	DD	FLAT:?GetRuntimeClass@CTabCtrl@@UBEPAUCRuntimeClass@@XZ
	DD	FLAT:??_ECTabSubIndicatorSetUpCtrl@@UAEPAXI@Z
	DD	FLAT:?Serialize@CObject@@UAEXAAVCArchive@@@Z
	DD	FLAT:?AssertValid@CObject@@UBEXXZ
	DD	FLAT:?Dump@CObject@@UBEXAAVCDumpContext@@@Z
	DD	FLAT:?OnCmdMsg@CCmdTarget@@UAEHIHPAXPAUAFX_CMDHANDLERINFO@@@Z
	DD	FLAT:?OnFinalRelease@CWnd@@UAEXXZ
	DD	FLAT:?IsInvokeAllowed@CCmdTarget@@UAEHJ@Z
	DD	FLAT:?GetDispatchIID@CCmdTarget@@UAEHPAU_GUID@@@Z
	DD	FLAT:?GetTypeInfoCount@CCmdTarget@@UAEIXZ
	DD	FLAT:?GetTypeLibCache@CCmdTarget@@UAEPAVCTypeLibCache@@XZ
	DD	FLAT:?GetTypeLib@CCmdTarget@@UAEJKPAPAUITypeLib@@@Z
	DD	FLAT:?GetMessageMap@CTabSubIndicatorSetUpCtrl@@MBEPBUAFX_MSGMAP@@XZ
	DD	FLAT:?GetCommandMap@CCmdTarget@@MBEPBUAFX_OLECMDMAP@@XZ
	DD	FLAT:?GetDispatchMap@CCmdTarget@@MBEPBUAFX_DISPMAP@@XZ
	DD	FLAT:?GetConnectionMap@CCmdTarget@@MBEPBUAFX_CONNECTIONMAP@@XZ
	DD	FLAT:?GetInterfaceMap@CWnd@@MBEPBUAFX_INTERFACEMAP@@XZ
	DD	FLAT:?GetEventSinkMap@CCmdTarget@@MBEPBUAFX_EVENTSINKMAP@@XZ
	DD	FLAT:?OnCreateAggregates@CCmdTarget@@UAEHXZ
	DD	FLAT:?GetInterfaceHook@CCmdTarget@@UAEPAUIUnknown@@PBX@Z
	DD	FLAT:?GetExtraConnectionPoints@CCmdTarget@@MAEHPAVCPtrArray@@@Z
	DD	FLAT:?GetConnectionHook@CCmdTarget@@MAEPAUIConnectionPoint@@ABU_GUID@@@Z
	DD	FLAT:?PreSubclassWindow@CWnd@@UAEXXZ
	DD	FLAT:?Create@CWnd@@UAEHPBD0KABUtagRECT@@PAV1@IPAUCCreateContext@@@Z
	DD	FLAT:?CreateEx@CWnd@@UAEHKPBD0KABUtagRECT@@PAV1@IPAX@Z
	DD	FLAT:?CreateEx@CWnd@@UAEHKPBD0KHHHHPAUHWND__@@PAUHMENU__@@PAX@Z
	DD	FLAT:?DestroyWindow@CWnd@@UAEHXZ
	DD	FLAT:?PreCreateWindow@CWnd@@UAEHAAUtagCREATESTRUCTA@@@Z
	DD	FLAT:?CalcWindowRect@CWnd@@UAEXPAUtagRECT@@I@Z
	DD	FLAT:?GetMenu@CWnd@@UBEPAVCMenu@@XZ
	DD	FLAT:?SetMenu@CWnd@@UAEHPAVCMenu@@@Z
	DD	FLAT:?OnToolHitTest@CWnd@@UBEHVCPoint@@PAUtagTOOLINFOA@@@Z
	DD	FLAT:?GetScrollBarCtrl@CWnd@@UBEPAVCScrollBar@@H@Z
	DD	FLAT:?WinHelpA@CWnd@@UAEXKI@Z
	DD	FLAT:?HtmlHelpA@CWnd@@UAEXKI@Z
	DD	FLAT:?WinHelpInternal@CWnd@@UAEXKI@Z
	DD	FLAT:?ContinueModal@CWnd@@UAEHXZ
	DD	FLAT:?EndModalLoop@CWnd@@UAEXH@Z
	DD	FLAT:?OnDrawIconicThumbnailOrLivePreview@CWnd@@UAEXAAVCDC@@VCRect@@VCSize@@HAAH@Z
	DD	FLAT:?EnsureStdObj@CWnd@@UAEJXZ
	DD	FLAT:?get_accParent@CWnd@@UAEJPAPAUIDispatch@@@Z
	DD	FLAT:?get_accChildCount@CWnd@@UAEJPAJ@Z
	DD	FLAT:?get_accChild@CWnd@@UAEJUtagVARIANT@@PAPAUIDispatch@@@Z
	DD	FLAT:?get_accName@CWnd@@UAEJUtagVARIANT@@PAPA_W@Z
	DD	FLAT:?get_accValue@CWnd@@UAEJUtagVARIANT@@PAPA_W@Z
	DD	FLAT:?get_accDescription@CWnd@@UAEJUtagVARIANT@@PAPA_W@Z
	DD	FLAT:?get_accRole@CWnd@@UAEJUtagVARIANT@@PAU2@@Z
	DD	FLAT:?get_accState@CWnd@@UAEJUtagVARIANT@@PAU2@@Z
	DD	FLAT:?get_accHelp@CWnd@@UAEJUtagVARIANT@@PAPA_W@Z
	DD	FLAT:?get_accHelpTopic@CWnd@@UAEJPAPA_WUtagVARIANT@@PAJ@Z
	DD	FLAT:?get_accKeyboardShortcut@CWnd@@UAEJUtagVARIANT@@PAPA_W@Z
	DD	FLAT:?get_accFocus@CWnd@@UAEJPAUtagVARIANT@@@Z
	DD	FLAT:?get_accSelection@CWnd@@UAEJPAUtagVARIANT@@@Z
	DD	FLAT:?get_accDefaultAction@CWnd@@UAEJUtagVARIANT@@PAPA_W@Z
	DD	FLAT:?accSelect@CWnd@@UAEJJUtagVARIANT@@@Z
	DD	FLAT:?accLocation@CWnd@@UAEJPAJ000UtagVARIANT@@@Z
	DD	FLAT:?accNavigate@CWnd@@UAEJJUtagVARIANT@@PAU2@@Z
	DD	FLAT:?accHitTest@CWnd@@UAEJJJPAUtagVARIANT@@@Z
	DD	FLAT:?accDoDefaultAction@CWnd@@UAEJUtagVARIANT@@@Z
	DD	FLAT:?put_accName@CWnd@@UAEJUtagVARIANT@@PA_W@Z
	DD	FLAT:?put_accValue@CWnd@@UAEJUtagVARIANT@@PA_W@Z
	DD	FLAT:?SetProxy@CWnd@@UAEJPAUIAccessibleProxy@@@Z
	DD	FLAT:?CreateAccessibleProxy@CWnd@@UAEJIJPAJ@Z
	DD	FLAT:?OnCommand@CWnd@@MAEHIJ@Z
	DD	FLAT:?OnNotify@CWnd@@MAEHIJPAJ@Z
	DD	FLAT:?GetSuperWndProcAddr@CWnd@@MAEPAP6GJPAUHWND__@@IIJ@ZXZ
	DD	FLAT:?DoDataExchange@CWnd@@MAEXPAVCDataExchange@@@Z
	DD	FLAT:?BeginModalState@CWnd@@UAEXXZ
	DD	FLAT:?EndModalState@CWnd@@UAEXXZ
	DD	FLAT:?PreTranslateMessage@CTabSubIndicatorSetUpCtrl@@UAEHPAUtagMSG@@@Z
	DD	FLAT:?OnAmbientProperty@CWnd@@UAEHPAVCOleControlSite@@JPAUtagVARIANT@@@Z
	DD	FLAT:?WindowProc@CWnd@@MAEJIIJ@Z
	DD	FLAT:?OnWndMsg@CWnd@@MAEHIIJPAJ@Z
	DD	FLAT:?DefWindowProcA@CWnd@@MAEJIIJ@Z
	DD	FLAT:?PostNcDestroy@CWnd@@MAEXXZ
	DD	FLAT:?OnChildNotify@CTabCtrl@@MAEHIIJPAJ@Z
	DD	FLAT:?OnTouchInputs@CWnd@@MAEHIPAUtagTOUCHINPUT@@@Z
	DD	FLAT:?OnTouchInput@CWnd@@MAEHVCPoint@@HHPAUtagTOUCHINPUT@@@Z
	DD	FLAT:?GetGestureStatus@CWnd@@MAEKVCPoint@@@Z
	DD	FLAT:?OnGestureZoom@CWnd@@MAEHVCPoint@@J@Z
	DD	FLAT:?OnGesturePan@CWnd@@MAEHVCPoint@@0@Z
	DD	FLAT:?OnGestureRotate@CWnd@@MAEHVCPoint@@N@Z
	DD	FLAT:?OnGestureTwoFingerTap@CWnd@@MAEHVCPoint@@@Z
	DD	FLAT:?OnGesturePressAndTap@CWnd@@MAEHVCPoint@@J@Z
	DD	FLAT:?ResizeDynamicLayout@CWnd@@MAEXXZ
	DD	FLAT:?CheckAutoCenter@CWnd@@UAEHXZ
	DD	FLAT:?IsFrameWnd@CWnd@@UBEHXZ
	DD	FLAT:?CreateControlContainer@CWnd@@MAEHPAPAVCOleControlContainer@@@Z
	DD	FLAT:?CreateControlSite@CWnd@@MAEHPAVCOleControlContainer@@PAPAVCOleControlSite@@IABU_GUID@@@Z
	DD	FLAT:?SetOccDialogInfo@CWnd@@MAEHPAU_AFX_OCC_DIALOG_INFO@@@Z
	DD	FLAT:?GetOccDialogInfo@CWnd@@MAEPAU_AFX_OCC_DIALOG_INFO@@XZ
	DD	FLAT:?Create@CTabCtrl@@UAEHKABUtagRECT@@PAVCWnd@@I@Z
	DD	FLAT:?CreateEx@CTabCtrl@@UAEHKKABUtagRECT@@PAVCWnd@@I@Z
	DD	FLAT:?DrawItem@CTabCtrl@@UAEXPAUtagDRAWITEMSTRUCT@@@Z
CONST	ENDS
;	COMDAT ??_R1A@?0A@EA@CTabCtrl@@8
rdata$r	SEGMENT
??_R1A@?0A@EA@CTabCtrl@@8 DD FLAT:??_R0?AVCTabCtrl@@@8	; CTabCtrl::`RTTI Base Class Descriptor at (0,-1,0,64)'
	DD	03H
	DD	00H
	DD	0ffffffffH
	DD	00H
	DD	040H
	DD	FLAT:??_R3CTabCtrl@@8
rdata$r	ENDS
;	COMDAT ??_R2CTabCtrl@@8
rdata$r	SEGMENT
??_R2CTabCtrl@@8 DD FLAT:??_R1A@?0A@EA@CTabCtrl@@8	; CTabCtrl::`RTTI Base Class Array'
	DD	FLAT:??_R1A@?0A@EA@CWnd@@8
	DD	FLAT:??_R1A@?0A@EA@CCmdTarget@@8
	DD	FLAT:??_R1A@?0A@EA@CObject@@8
rdata$r	ENDS
;	COMDAT ??_R3CTabCtrl@@8
rdata$r	SEGMENT
??_R3CTabCtrl@@8 DD 00H					; CTabCtrl::`RTTI Class Hierarchy Descriptor'
	DD	00H
	DD	04H
	DD	FLAT:??_R2CTabCtrl@@8
rdata$r	ENDS
;	COMDAT ??_R0?AVCTabCtrl@@@8
data$rs	SEGMENT
??_R0?AVCTabCtrl@@@8 DD FLAT:??_7type_info@@6B@		; CTabCtrl `RTTI Type Descriptor'
	DD	00H
	DB	'.?AVCTabCtrl@@', 00H
data$rs	ENDS
;	COMDAT ??_R4CTabCtrl@@6B@
rdata$r	SEGMENT
??_R4CTabCtrl@@6B@ DD 00H				; CTabCtrl::`RTTI Complete Object Locator'
	DD	00H
	DD	00H
	DD	FLAT:??_R0?AVCTabCtrl@@@8
	DD	FLAT:??_R3CTabCtrl@@8
rdata$r	ENDS
;	COMDAT ??_R2CCmdTarget@@8
rdata$r	SEGMENT
??_R2CCmdTarget@@8 DD FLAT:??_R1A@?0A@EA@CCmdTarget@@8	; CCmdTarget::`RTTI Base Class Array'
	DD	FLAT:??_R1A@?0A@EA@CObject@@8
rdata$r	ENDS
;	COMDAT ??_R3CCmdTarget@@8
rdata$r	SEGMENT
??_R3CCmdTarget@@8 DD 00H				; CCmdTarget::`RTTI Class Hierarchy Descriptor'
	DD	00H
	DD	02H
	DD	FLAT:??_R2CCmdTarget@@8
rdata$r	ENDS
;	COMDAT ??_R0?AVCCmdTarget@@@8
data$rs	SEGMENT
??_R0?AVCCmdTarget@@@8 DD FLAT:??_7type_info@@6B@	; CCmdTarget `RTTI Type Descriptor'
	DD	00H
	DB	'.?AVCCmdTarget@@', 00H
data$rs	ENDS
;	COMDAT ??_R1A@?0A@EA@CCmdTarget@@8
rdata$r	SEGMENT
??_R1A@?0A@EA@CCmdTarget@@8 DD FLAT:??_R0?AVCCmdTarget@@@8 ; CCmdTarget::`RTTI Base Class Descriptor at (0,-1,0,64)'
	DD	01H
	DD	00H
	DD	0ffffffffH
	DD	00H
	DD	040H
	DD	FLAT:??_R3CCmdTarget@@8
rdata$r	ENDS
;	COMDAT ??_R2CWnd@@8
rdata$r	SEGMENT
??_R2CWnd@@8 DD	FLAT:??_R1A@?0A@EA@CWnd@@8		; CWnd::`RTTI Base Class Array'
	DD	FLAT:??_R1A@?0A@EA@CCmdTarget@@8
	DD	FLAT:??_R1A@?0A@EA@CObject@@8
rdata$r	ENDS
;	COMDAT ??_R3CWnd@@8
rdata$r	SEGMENT
??_R3CWnd@@8 DD	00H					; CWnd::`RTTI Class Hierarchy Descriptor'
	DD	00H
	DD	03H
	DD	FLAT:??_R2CWnd@@8
rdata$r	ENDS
;	COMDAT ??_R0?AVCWnd@@@8
data$rs	SEGMENT
??_R0?AVCWnd@@@8 DD FLAT:??_7type_info@@6B@		; CWnd `RTTI Type Descriptor'
	DD	00H
	DB	'.?AVCWnd@@', 00H
data$rs	ENDS
;	COMDAT ??_R1A@?0A@EA@CWnd@@8
rdata$r	SEGMENT
??_R1A@?0A@EA@CWnd@@8 DD FLAT:??_R0?AVCWnd@@@8		; CWnd::`RTTI Base Class Descriptor at (0,-1,0,64)'
	DD	02H
	DD	00H
	DD	0ffffffffH
	DD	00H
	DD	040H
	DD	FLAT:??_R3CWnd@@8
rdata$r	ENDS
;	COMDAT ??_R1A@?0A@EA@CObject@@8
rdata$r	SEGMENT
??_R1A@?0A@EA@CObject@@8 DD FLAT:??_R0?AVCObject@@@8	; CObject::`RTTI Base Class Descriptor at (0,-1,0,64)'
	DD	00H
	DD	00H
	DD	0ffffffffH
	DD	00H
	DD	040H
	DD	FLAT:??_R3CObject@@8
rdata$r	ENDS
;	COMDAT ??_R2CObject@@8
rdata$r	SEGMENT
??_R2CObject@@8 DD FLAT:??_R1A@?0A@EA@CObject@@8	; CObject::`RTTI Base Class Array'
rdata$r	ENDS
;	COMDAT ??_R3CObject@@8
rdata$r	SEGMENT
??_R3CObject@@8 DD 00H					; CObject::`RTTI Class Hierarchy Descriptor'
	DD	00H
	DD	01H
	DD	FLAT:??_R2CObject@@8
rdata$r	ENDS
;	COMDAT ??_R0?AVCObject@@@8
data$rs	SEGMENT
??_R0?AVCObject@@@8 DD FLAT:??_7type_info@@6B@		; CObject `RTTI Type Descriptor'
	DD	00H
	DB	'.?AVCObject@@', 00H
data$rs	ENDS
;	COMDAT ??_7CTabCtrl@@6B@
CONST	SEGMENT
??_7CTabCtrl@@6B@ DD FLAT:??_R4CTabCtrl@@6B@		; CTabCtrl::`vftable'
	DD	FLAT:?GetRuntimeClass@CTabCtrl@@UBEPAUCRuntimeClass@@XZ
	DD	FLAT:??_ECTabCtrl@@UAEPAXI@Z
	DD	FLAT:?Serialize@CObject@@UAEXAAVCArchive@@@Z
	DD	FLAT:?AssertValid@CObject@@UBEXXZ
	DD	FLAT:?Dump@CObject@@UBEXAAVCDumpContext@@@Z
	DD	FLAT:?OnCmdMsg@CCmdTarget@@UAEHIHPAXPAUAFX_CMDHANDLERINFO@@@Z
	DD	FLAT:?OnFinalRelease@CWnd@@UAEXXZ
	DD	FLAT:?IsInvokeAllowed@CCmdTarget@@UAEHJ@Z
	DD	FLAT:?GetDispatchIID@CCmdTarget@@UAEHPAU_GUID@@@Z
	DD	FLAT:?GetTypeInfoCount@CCmdTarget@@UAEIXZ
	DD	FLAT:?GetTypeLibCache@CCmdTarget@@UAEPAVCTypeLibCache@@XZ
	DD	FLAT:?GetTypeLib@CCmdTarget@@UAEJKPAPAUITypeLib@@@Z
	DD	FLAT:?GetMessageMap@CTabCtrl@@MBEPBUAFX_MSGMAP@@XZ
	DD	FLAT:?GetCommandMap@CCmdTarget@@MBEPBUAFX_OLECMDMAP@@XZ
	DD	FLAT:?GetDispatchMap@CCmdTarget@@MBEPBUAFX_DISPMAP@@XZ
	DD	FLAT:?GetConnectionMap@CCmdTarget@@MBEPBUAFX_CONNECTIONMAP@@XZ
	DD	FLAT:?GetInterfaceMap@CWnd@@MBEPBUAFX_INTERFACEMAP@@XZ
	DD	FLAT:?GetEventSinkMap@CCmdTarget@@MBEPBUAFX_EVENTSINKMAP@@XZ
	DD	FLAT:?OnCreateAggregates@CCmdTarget@@UAEHXZ
	DD	FLAT:?GetInterfaceHook@CCmdTarget@@UAEPAUIUnknown@@PBX@Z
	DD	FLAT:?GetExtraConnectionPoints@CCmdTarget@@MAEHPAVCPtrArray@@@Z
	DD	FLAT:?GetConnectionHook@CCmdTarget@@MAEPAUIConnectionPoint@@ABU_GUID@@@Z
	DD	FLAT:?PreSubclassWindow@CWnd@@UAEXXZ
	DD	FLAT:?Create@CWnd@@UAEHPBD0KABUtagRECT@@PAV1@IPAUCCreateContext@@@Z
	DD	FLAT:?CreateEx@CWnd@@UAEHKPBD0KABUtagRECT@@PAV1@IPAX@Z
	DD	FLAT:?CreateEx@CWnd@@UAEHKPBD0KHHHHPAUHWND__@@PAUHMENU__@@PAX@Z
	DD	FLAT:?DestroyWindow@CWnd@@UAEHXZ
	DD	FLAT:?PreCreateWindow@CWnd@@UAEHAAUtagCREATESTRUCTA@@@Z
	DD	FLAT:?CalcWindowRect@CWnd@@UAEXPAUtagRECT@@I@Z
	DD	FLAT:?GetMenu@CWnd@@UBEPAVCMenu@@XZ
	DD	FLAT:?SetMenu@CWnd@@UAEHPAVCMenu@@@Z
	DD	FLAT:?OnToolHitTest@CWnd@@UBEHVCPoint@@PAUtagTOOLINFOA@@@Z
	DD	FLAT:?GetScrollBarCtrl@CWnd@@UBEPAVCScrollBar@@H@Z
	DD	FLAT:?WinHelpA@CWnd@@UAEXKI@Z
	DD	FLAT:?HtmlHelpA@CWnd@@UAEXKI@Z
	DD	FLAT:?WinHelpInternal@CWnd@@UAEXKI@Z
	DD	FLAT:?ContinueModal@CWnd@@UAEHXZ
	DD	FLAT:?EndModalLoop@CWnd@@UAEXH@Z
	DD	FLAT:?OnDrawIconicThumbnailOrLivePreview@CWnd@@UAEXAAVCDC@@VCRect@@VCSize@@HAAH@Z
	DD	FLAT:?EnsureStdObj@CWnd@@UAEJXZ
	DD	FLAT:?get_accParent@CWnd@@UAEJPAPAUIDispatch@@@Z
	DD	FLAT:?get_accChildCount@CWnd@@UAEJPAJ@Z
	DD	FLAT:?get_accChild@CWnd@@UAEJUtagVARIANT@@PAPAUIDispatch@@@Z
	DD	FLAT:?get_accName@CWnd@@UAEJUtagVARIANT@@PAPA_W@Z
	DD	FLAT:?get_accValue@CWnd@@UAEJUtagVARIANT@@PAPA_W@Z
	DD	FLAT:?get_accDescription@CWnd@@UAEJUtagVARIANT@@PAPA_W@Z
	DD	FLAT:?get_accRole@CWnd@@UAEJUtagVARIANT@@PAU2@@Z
	DD	FLAT:?get_accState@CWnd@@UAEJUtagVARIANT@@PAU2@@Z
	DD	FLAT:?get_accHelp@CWnd@@UAEJUtagVARIANT@@PAPA_W@Z
	DD	FLAT:?get_accHelpTopic@CWnd@@UAEJPAPA_WUtagVARIANT@@PAJ@Z
	DD	FLAT:?get_accKeyboardShortcut@CWnd@@UAEJUtagVARIANT@@PAPA_W@Z
	DD	FLAT:?get_accFocus@CWnd@@UAEJPAUtagVARIANT@@@Z
	DD	FLAT:?get_accSelection@CWnd@@UAEJPAUtagVARIANT@@@Z
	DD	FLAT:?get_accDefaultAction@CWnd@@UAEJUtagVARIANT@@PAPA_W@Z
	DD	FLAT:?accSelect@CWnd@@UAEJJUtagVARIANT@@@Z
	DD	FLAT:?accLocation@CWnd@@UAEJPAJ000UtagVARIANT@@@Z
	DD	FLAT:?accNavigate@CWnd@@UAEJJUtagVARIANT@@PAU2@@Z
	DD	FLAT:?accHitTest@CWnd@@UAEJJJPAUtagVARIANT@@@Z
	DD	FLAT:?accDoDefaultAction@CWnd@@UAEJUtagVARIANT@@@Z
	DD	FLAT:?put_accName@CWnd@@UAEJUtagVARIANT@@PA_W@Z
	DD	FLAT:?put_accValue@CWnd@@UAEJUtagVARIANT@@PA_W@Z
	DD	FLAT:?SetProxy@CWnd@@UAEJPAUIAccessibleProxy@@@Z
	DD	FLAT:?CreateAccessibleProxy@CWnd@@UAEJIJPAJ@Z
	DD	FLAT:?OnCommand@CWnd@@MAEHIJ@Z
	DD	FLAT:?OnNotify@CWnd@@MAEHIJPAJ@Z
	DD	FLAT:?GetSuperWndProcAddr@CWnd@@MAEPAP6GJPAUHWND__@@IIJ@ZXZ
	DD	FLAT:?DoDataExchange@CWnd@@MAEXPAVCDataExchange@@@Z
	DD	FLAT:?BeginModalState@CWnd@@UAEXXZ
	DD	FLAT:?EndModalState@CWnd@@UAEXXZ
	DD	FLAT:?PreTranslateMessage@CWnd@@UAEHPAUtagMSG@@@Z
	DD	FLAT:?OnAmbientProperty@CWnd@@UAEHPAVCOleControlSite@@JPAUtagVARIANT@@@Z
	DD	FLAT:?WindowProc@CWnd@@MAEJIIJ@Z
	DD	FLAT:?OnWndMsg@CWnd@@MAEHIIJPAJ@Z
	DD	FLAT:?DefWindowProcA@CWnd@@MAEJIIJ@Z
	DD	FLAT:?PostNcDestroy@CWnd@@MAEXXZ
	DD	FLAT:?OnChildNotify@CTabCtrl@@MAEHIIJPAJ@Z
	DD	FLAT:?OnTouchInputs@CWnd@@MAEHIPAUtagTOUCHINPUT@@@Z
	DD	FLAT:?OnTouchInput@CWnd@@MAEHVCPoint@@HHPAUtagTOUCHINPUT@@@Z
	DD	FLAT:?GetGestureStatus@CWnd@@MAEKVCPoint@@@Z
	DD	FLAT:?OnGestureZoom@CWnd@@MAEHVCPoint@@J@Z
	DD	FLAT:?OnGesturePan@CWnd@@MAEHVCPoint@@0@Z
	DD	FLAT:?OnGestureRotate@CWnd@@MAEHVCPoint@@N@Z
	DD	FLAT:?OnGestureTwoFingerTap@CWnd@@MAEHVCPoint@@@Z
	DD	FLAT:?OnGesturePressAndTap@CWnd@@MAEHVCPoint@@J@Z
	DD	FLAT:?ResizeDynamicLayout@CWnd@@MAEXXZ
	DD	FLAT:?CheckAutoCenter@CWnd@@UAEHXZ
	DD	FLAT:?IsFrameWnd@CWnd@@UBEHXZ
	DD	FLAT:?CreateControlContainer@CWnd@@MAEHPAPAVCOleControlContainer@@@Z
	DD	FLAT:?CreateControlSite@CWnd@@MAEHPAVCOleControlContainer@@PAPAVCOleControlSite@@IABU_GUID@@@Z
	DD	FLAT:?SetOccDialogInfo@CWnd@@MAEHPAU_AFX_OCC_DIALOG_INFO@@@Z
	DD	FLAT:?GetOccDialogInfo@CWnd@@MAEPAU_AFX_OCC_DIALOG_INFO@@XZ
	DD	FLAT:?Create@CTabCtrl@@UAEHKABUtagRECT@@PAVCWnd@@I@Z
	DD	FLAT:?CreateEx@CTabCtrl@@UAEHKKABUtagRECT@@PAVCWnd@@I@Z
	DD	FLAT:?DrawItem@CTabCtrl@@UAEXPAUtagDRAWITEMSTRUCT@@@Z
CONST	ENDS
;	COMDAT xdata$x
xdata$x	SEGMENT
__unwindtable$??_GCTabSubIndicatorSetUpCtrl@@UAEPAXI@Z DD 0ffffffffH
	DD	FLAT:___std_terminate
__ehfuncinfo$??_GCTabSubIndicatorSetUpCtrl@@UAEPAXI@Z DD 019930522H
	DD	01H
	DD	FLAT:__unwindtable$??_GCTabSubIndicatorSetUpCtrl@@UAEPAXI@Z
	DD	2 DUP(00H)
	DD	2 DUP(00H)
	DD	00H
	DD	05H
xdata$x	ENDS
;	COMDAT xdata$x
xdata$x	SEGMENT
__unwindtable$?CreateTabPage@CTabSubIndicatorSetUpCtrl@@AAEXPAUIChartOCX135914@@@Z DD 0ffffffffH
	DD	FLAT:__unwindfunclet$?CreateTabPage@CTabSubIndicatorSetUpCtrl@@AAEXPAUIChartOCX135914@@@Z$0
	DD	0ffffffffH
	DD	FLAT:__unwindfunclet$?CreateTabPage@CTabSubIndicatorSetUpCtrl@@AAEXPAUIChartOCX135914@@@Z$1
__ehfuncinfo$?CreateTabPage@CTabSubIndicatorSetUpCtrl@@AAEXPAUIChartOCX135914@@@Z DD 019930522H
	DD	02H
	DD	FLAT:__unwindtable$?CreateTabPage@CTabSubIndicatorSetUpCtrl@@AAEXPAUIChartOCX135914@@@Z
	DD	2 DUP(00H)
	DD	2 DUP(00H)
	DD	00H
	DD	01H
xdata$x	ENDS
;	COMDAT xdata$x
xdata$x	SEGMENT
__unwindtable$?SetSubGraphName@CTabSubIndicatorSetUpCtrl@@QAEXV?$CStringT@DV?$StrTraitMFC_DLL@DV?$ChTraitsCRT@D@ATL@@@@@ATL@@@Z DD 0ffffffffH
	DD	FLAT:__unwindfunclet$?SetSubGraphName@CTabSubIndicatorSetUpCtrl@@QAEXV?$CStringT@DV?$StrTraitMFC_DLL@DV?$ChTraitsCRT@D@ATL@@@@@ATL@@@Z$0
__ehfuncinfo$?SetSubGraphName@CTabSubIndicatorSetUpCtrl@@QAEXV?$CStringT@DV?$StrTraitMFC_DLL@DV?$ChTraitsCRT@D@ATL@@@@@ATL@@@Z DD 019930522H
	DD	01H
	DD	FLAT:__unwindtable$?SetSubGraphName@CTabSubIndicatorSetUpCtrl@@QAEXV?$CStringT@DV?$StrTraitMFC_DLL@DV?$ChTraitsCRT@D@ATL@@@@@ATL@@@Z
	DD	2 DUP(00H)
	DD	2 DUP(00H)
	DD	00H
	DD	01H
xdata$x	ENDS
;	COMDAT xdata$x
xdata$x	SEGMENT
__unwindtable$?Init@CTabSubIndicatorSetUpCtrl@@QAEXPAUIChartOCX135914@@PAVCTabParentDlg@@@Z DD 0ffffffffH
	DD	FLAT:__unwindfunclet$?Init@CTabSubIndicatorSetUpCtrl@@QAEXPAUIChartOCX135914@@PAVCTabParentDlg@@@Z$0
	DD	00H
	DD	FLAT:__unwindfunclet$?Init@CTabSubIndicatorSetUpCtrl@@QAEXPAUIChartOCX135914@@PAVCTabParentDlg@@@Z$1
	DD	01H
	DD	FLAT:__unwindfunclet$?Init@CTabSubIndicatorSetUpCtrl@@QAEXPAUIChartOCX135914@@PAVCTabParentDlg@@@Z$2
	DD	01H
	DD	FLAT:__unwindfunclet$?Init@CTabSubIndicatorSetUpCtrl@@QAEXPAUIChartOCX135914@@PAVCTabParentDlg@@@Z$3
__ehfuncinfo$?Init@CTabSubIndicatorSetUpCtrl@@QAEXPAUIChartOCX135914@@PAVCTabParentDlg@@@Z DD 019930522H
	DD	04H
	DD	FLAT:__unwindtable$?Init@CTabSubIndicatorSetUpCtrl@@QAEXPAUIChartOCX135914@@PAVCTabParentDlg@@@Z
	DD	2 DUP(00H)
	DD	2 DUP(00H)
	DD	00H
	DD	01H
xdata$x	ENDS
;	COMDAT xdata$x
xdata$x	SEGMENT
__ehfuncinfo$??1CTabSubIndicatorSetUpCtrl@@UAE@XZ DD 019930522H
	DD	00H
	DD	00H
	DD	2 DUP(00H)
	DD	2 DUP(00H)
	DD	00H
	DD	05H
xdata$x	ENDS
; Function compile flags: /Ogtp
; File D:\git\src\IBK\IBK_DRFN\ProjSrc\SrcChartEx\ChartAddIn\ChartEnvSetupDlgAddIn\ChartEnvSetupDlgAddIn\TabSubIndicatorSetUpCtrl.cpp
; File C:\Program Files (x86)\Microsoft Visual Studio\2019\Community\VC\Tools\MSVC\14.29.30133\atlmfc\include\afx.inl
;	COMDAT ??_GCTabSubIndicatorSetUpCtrl@@UAEPAXI@Z
_TEXT	SEGMENT
__$EHRec$ = -12						; size = 12
___flags$ = 8						; size = 4
??_GCTabSubIndicatorSetUpCtrl@@UAEPAXI@Z PROC		; CTabSubIndicatorSetUpCtrl::`scalar deleting destructor', COMDAT
; _this$ = ecx
  00000	55		 push	 ebp
  00001	8b ec		 mov	 ebp, esp
  00003	6a ff		 push	 -1
  00005	68 00 00 00 00	 push	 __ehhandler$??_GCTabSubIndicatorSetUpCtrl@@UAEPAXI@Z
  0000a	64 a1 00 00 00
	00		 mov	 eax, DWORD PTR fs:0
  00010	50		 push	 eax
  00011	53		 push	 ebx
  00012	56		 push	 esi
  00013	57		 push	 edi
  00014	a1 00 00 00 00	 mov	 eax, DWORD PTR ___security_cookie
  00019	33 c5		 xor	 eax, ebp
  0001b	50		 push	 eax
  0001c	8d 45 f4	 lea	 eax, DWORD PTR __$EHRec$[ebp]
  0001f	64 a3 00 00 00
	00		 mov	 DWORD PTR fs:0, eax
  00025	8b f1		 mov	 esi, ecx
; File D:\git\src\IBK\IBK_DRFN\ProjSrc\SrcChartEx\ChartAddIn\ChartEnvSetupDlgAddIn\ChartEnvSetupDlgAddIn\TabSubIndicatorSetUpCtrl.cpp

; 32   : 	for( int nCount = 0 ; nCount < m_nTotalTabPages ; nCount++ )

  00027	33 db		 xor	 ebx, ebx
  00029	c7 45 fc 00 00
	00 00		 mov	 DWORD PTR __$EHRec$[ebp+8], 0
  00030	c7 06 00 00 00
	00		 mov	 DWORD PTR [esi], OFFSET ??_7CTabSubIndicatorSetUpCtrl@@6B@
  00036	39 9e 80 00 00
	00		 cmp	 DWORD PTR [esi+128], ebx
  0003c	7e 2a		 jle	 SHORT $LN9@scalar

; 31   : {

  0003e	8d be 88 00 00
	00		 lea	 edi, DWORD PTR [esi+136]
$LL10@scalar:

; 33   : 	{
; 34   : 		if( m_aTabPages[nCount] != NULL)

  00044	8b 0f		 mov	 ecx, DWORD PTR [edi]
  00046	85 c9		 test	 ecx, ecx
  00048	74 12		 je	 SHORT $LN8@scalar

; 35   : 		{
; 36   : 			m_aTabPages[nCount]->DestroyWindow();

  0004a	8b 01		 mov	 eax, DWORD PTR [ecx]
  0004c	ff 50 68	 call	 DWORD PTR [eax+104]

; 37   : 			delete m_aTabPages[nCount];

  0004f	8b 0f		 mov	 ecx, DWORD PTR [edi]
  00051	85 c9		 test	 ecx, ecx
  00053	74 07		 je	 SHORT $LN8@scalar
  00055	8b 01		 mov	 eax, DWORD PTR [ecx]
  00057	6a 01		 push	 1
  00059	ff 50 04	 call	 DWORD PTR [eax+4]
$LN8@scalar:

; 32   : 	for( int nCount = 0 ; nCount < m_nTotalTabPages ; nCount++ )

  0005c	43		 inc	 ebx
  0005d	83 c7 04	 add	 edi, 4
  00060	3b 9e 80 00 00
	00		 cmp	 ebx, DWORD PTR [esi+128]
  00066	7c dc		 jl	 SHORT $LL10@scalar
$LN9@scalar:

; 38   : 		}
; 39   : 	}
; 40   : }

  00068	8d 8e 90 00 00
	00		 lea	 ecx, DWORD PTR [esi+144]
  0006e	ff 15 00 00 00
	00		 call	 DWORD PTR __imp_??1?$CStringT@DV?$StrTraitMFC_DLL@DV?$ChTraitsCRT@D@ATL@@@@@ATL@@QAE@XZ
  00074	8b ce		 mov	 ecx, esi
  00076	e8 00 00 00 00	 call	 ??1CTabCtrl@@UAE@XZ	; CTabCtrl::~CTabCtrl
  0007b	8b 45 08	 mov	 eax, DWORD PTR ___flags$[ebp]
  0007e	a8 01		 test	 al, 1
  00080	74 1d		 je	 SHORT $LN22@scalar
  00082	a8 04		 test	 al, 4
  00084	75 0b		 jne	 SHORT $LN3@scalar
; File C:\Program Files (x86)\Microsoft Visual Studio\2019\Community\VC\Tools\MSVC\14.29.30133\atlmfc\include\afx.inl

; 112  : 	{ ::operator delete(p); }

  00086	56		 push	 esi
  00087	e8 00 00 00 00	 call	 ??3@YAXPAX@Z		; operator delete
  0008c	83 c4 04	 add	 esp, 4
  0008f	eb 0e		 jmp	 SHORT $LN22@scalar
$LN3@scalar:
  00091	68 98 00 00 00	 push	 152			; 00000098H
  00096	56		 push	 esi
  00097	e8 00 00 00 00	 call	 ?__global_delete@@YAXPAXI@Z ; __global_delete
  0009c	83 c4 08	 add	 esp, 8
$LN22@scalar:
  0009f	8b c6		 mov	 eax, esi
  000a1	8b 4d f4	 mov	 ecx, DWORD PTR __$EHRec$[ebp]
  000a4	64 89 0d 00 00
	00 00		 mov	 DWORD PTR fs:0, ecx
  000ab	59		 pop	 ecx
  000ac	5f		 pop	 edi
  000ad	5e		 pop	 esi
  000ae	5b		 pop	 ebx
  000af	8b e5		 mov	 esp, ebp
  000b1	5d		 pop	 ebp
  000b2	c2 04 00	 ret	 4
  000b5	cc		 int	 3
  000b6	cc		 int	 3
  000b7	cc		 int	 3
  000b8	cc		 int	 3
  000b9	cc		 int	 3
_TEXT	ENDS
;	COMDAT text$x
text$x	SEGMENT
__ehhandler$??_GCTabSubIndicatorSetUpCtrl@@UAEPAXI@Z:
  00000	90		 npad	 1
  00001	90		 npad	 1
  00002	8b 54 24 08	 mov	 edx, DWORD PTR [esp+8]
  00006	8d 42 0c	 lea	 eax, DWORD PTR [edx+12]
  00009	8b 4a f0	 mov	 ecx, DWORD PTR [edx-16]
  0000c	33 c8		 xor	 ecx, eax
  0000e	e8 00 00 00 00	 call	 @__security_check_cookie@4
  00013	b8 00 00 00 00	 mov	 eax, OFFSET __ehfuncinfo$??_GCTabSubIndicatorSetUpCtrl@@UAEPAXI@Z
  00018	e9 00 00 00 00	 jmp	 ___CxxFrameHandler3
text$x	ENDS
??_GCTabSubIndicatorSetUpCtrl@@UAEPAXI@Z ENDP		; CTabSubIndicatorSetUpCtrl::`scalar deleting destructor'
; Function compile flags: /Ogtp
; File D:\git\src\IBK\IBK_DRFN\ProjSrc\SrcChartEx\ChartAddIn\ChartEnvSetupDlgAddIn\ChartEnvSetupDlgAddIn\TabSubIndicatorSetUpCtrl.cpp
;	COMDAT ?GetMessageMap@CTabSubIndicatorSetUpCtrl@@MBEPBUAFX_MSGMAP@@XZ
_TEXT	SEGMENT
?GetMessageMap@CTabSubIndicatorSetUpCtrl@@MBEPBUAFX_MSGMAP@@XZ PROC ; CTabSubIndicatorSetUpCtrl::GetMessageMap, COMDAT
; _this$ = ecx

; 43   : BEGIN_MESSAGE_MAP(CTabSubIndicatorSetUpCtrl, CTabCtrl)

  00000	b8 00 00 00 00	 mov	 eax, OFFSET ?messageMap@?1??GetThisMessageMap@CTabSubIndicatorSetUpCtrl@@KGPBUAFX_MSGMAP@@XZ@4U3@B
  00005	c3		 ret	 0
?GetMessageMap@CTabSubIndicatorSetUpCtrl@@MBEPBUAFX_MSGMAP@@XZ ENDP ; CTabSubIndicatorSetUpCtrl::GetMessageMap
_TEXT	ENDS
; Function compile flags: /Ogtp
; File D:\git\src\IBK\IBK_DRFN\ProjSrc\SrcChartEx\ChartAddIn\ChartEnvSetupDlgAddIn\ChartEnvSetupDlgAddIn\TabSubIndicatorSetUpCtrl.cpp
;	COMDAT ?GetThisMessageMap@CTabSubIndicatorSetUpCtrl@@KGPBUAFX_MSGMAP@@XZ
_TEXT	SEGMENT
?GetThisMessageMap@CTabSubIndicatorSetUpCtrl@@KGPBUAFX_MSGMAP@@XZ PROC ; CTabSubIndicatorSetUpCtrl::GetThisMessageMap, COMDAT

; 44   : 	//{{AFX_MSG_MAP(CTabSubIndicatorSetUpCtrl)
; 45   : 	ON_NOTIFY_REFLECT(TCN_SELCHANGE, OnSelchange)
; 46   : 	//}}AFX_MSG_MAP
; 47   : END_MESSAGE_MAP()

  00000	b8 00 00 00 00	 mov	 eax, OFFSET ?messageMap@?1??GetThisMessageMap@CTabSubIndicatorSetUpCtrl@@KGPBUAFX_MSGMAP@@XZ@4U3@B
  00005	c3		 ret	 0
?GetThisMessageMap@CTabSubIndicatorSetUpCtrl@@KGPBUAFX_MSGMAP@@XZ ENDP ; CTabSubIndicatorSetUpCtrl::GetThisMessageMap
_TEXT	ENDS
; Function compile flags: /Ogtp
; File D:\git\src\IBK\IBK_DRFN\ProjSrc\SrcChartEx\ChartAddIn\ChartEnvSetupDlgAddIn\ChartEnvSetupDlgAddIn\TabSubIndicatorSetUpCtrl.cpp
; File C:\Program Files (x86)\Microsoft Visual Studio\2019\Community\VC\Tools\MSVC\14.29.30133\atlmfc\include\afxcmn.inl
; File D:\git\src\IBK\IBK_DRFN\ProjSrc\SrcChartEx\ChartAddIn\ChartEnvSetupDlgAddIn\ChartEnvSetupDlgAddIn\TabSubIndicatorSetUpCtrl.cpp
; File C:\Program Files (x86)\Microsoft Visual Studio\2019\Community\VC\Tools\MSVC\14.29.30133\atlmfc\include\afxcmn.inl
; File D:\git\src\IBK\IBK_DRFN\ProjSrc\SrcChartEx\ChartAddIn\ChartEnvSetupDlgAddIn\ChartEnvSetupDlgAddIn\TabSubIndicatorSetUpCtrl.cpp
; File C:\Program Files (x86)\Microsoft Visual Studio\2019\Community\VC\Tools\MSVC\14.29.30133\atlmfc\include\afxcmn.inl
; File D:\git\src\IBK\IBK_DRFN\ProjSrc\SrcChartEx\ChartAddIn\ChartEnvSetupDlgAddIn\ChartEnvSetupDlgAddIn\TabSubIndicatorSetUpCtrl.cpp
;	COMDAT ?OnSelchange@CTabSubIndicatorSetUpCtrl@@IAEXPAUtagNMHDR@@PAJ@Z
_TEXT	SEGMENT
_pNMHDR$ = 8						; size = 4
_pResult$ = 12						; size = 4
?OnSelchange@CTabSubIndicatorSetUpCtrl@@IAEXPAUtagNMHDR@@PAJ@Z PROC ; CTabSubIndicatorSetUpCtrl::OnSelchange, COMDAT
; _this$ = ecx

; 60   : {

  00000	55		 push	 ebp
  00001	8b ec		 mov	 ebp, esp
  00003	56		 push	 esi
  00004	57		 push	 edi
; File C:\Program Files (x86)\Microsoft Visual Studio\2019\Community\VC\Tools\MSVC\14.29.30133\atlmfc\include\afxcmn.inl

; 586  : 	{ ASSERT(::IsWindow(m_hWnd)); return (int)::SendMessage(m_hWnd, TCM_GETCURSEL, 0, 0L); }

  00005	6a 00		 push	 0
; File D:\git\src\IBK\IBK_DRFN\ProjSrc\SrcChartEx\ChartAddIn\ChartEnvSetupDlgAddIn\ChartEnvSetupDlgAddIn\TabSubIndicatorSetUpCtrl.cpp

; 60   : {

  00007	8b f1		 mov	 esi, ecx
; File C:\Program Files (x86)\Microsoft Visual Studio\2019\Community\VC\Tools\MSVC\14.29.30133\atlmfc\include\afxcmn.inl

; 586  : 	{ ASSERT(::IsWindow(m_hWnd)); return (int)::SendMessage(m_hWnd, TCM_GETCURSEL, 0, 0L); }

  00009	6a 00		 push	 0
  0000b	68 0b 13 00 00	 push	 4875			; 0000130bH
  00010	ff 76 20	 push	 DWORD PTR [esi+32]
; File D:\git\src\IBK\IBK_DRFN\ProjSrc\SrcChartEx\ChartAddIn\ChartEnvSetupDlgAddIn\ChartEnvSetupDlgAddIn\TabSubIndicatorSetUpCtrl.cpp

; 62   : 	int nPrevTabPageIndex = m_nCurTabPage;

  00013	8b be 84 00 00
	00		 mov	 edi, DWORD PTR [esi+132]
; File C:\Program Files (x86)\Microsoft Visual Studio\2019\Community\VC\Tools\MSVC\14.29.30133\atlmfc\include\afxcmn.inl

; 586  : 	{ ASSERT(::IsWindow(m_hWnd)); return (int)::SendMessage(m_hWnd, TCM_GETCURSEL, 0, 0L); }

  00019	ff 15 00 00 00
	00		 call	 DWORD PTR __imp__SendMessageA@16
; File D:\git\src\IBK\IBK_DRFN\ProjSrc\SrcChartEx\ChartAddIn\ChartEnvSetupDlgAddIn\ChartEnvSetupDlgAddIn\TabSubIndicatorSetUpCtrl.cpp

; 63   : 	m_nCurTabPage = GetCurSel();

  0001f	89 86 84 00 00
	00		 mov	 DWORD PTR [esi+132], eax

; 64   : 	*pResult = 0;

  00025	8b 45 0c	 mov	 eax, DWORD PTR _pResult$[ebp]
  00028	c7 00 00 00 00
	00		 mov	 DWORD PTR [eax], 0

; 65   : 	
; 66   : 	if(nPrevTabPageIndex == m_nCurTabPage)

  0002e	8b 86 84 00 00
	00		 mov	 eax, DWORD PTR [esi+132]
  00034	3b f8		 cmp	 edi, eax
  00036	0f 84 aa 00 00
	00		 je	 $LN5@OnSelchang

; 67   : 		return;
; 68   : 
; 69   : 	// 설명 Tab으로 전환
; 70   : 	if( nPrevTabPageIndex == 0 && m_nCurTabPage == 1 )

  0003c	85 ff		 test	 edi, edi
  0003e	75 63		 jne	 SHORT $LN3@OnSelchang
  00040	83 f8 01	 cmp	 eax, 1
  00043	0f 85 9d 00 00
	00		 jne	 $LN5@OnSelchang

; 71   : 	{
; 72   : 		m_pParentDlg->ShowChildDialog( FALSE );

  00049	8b 8e 94 00 00
	00		 mov	 ecx, DWORD PTR [esi+148]
  0004f	57		 push	 edi
  00050	8b 01		 mov	 eax, DWORD PTR [ecx]
  00052	ff 10		 call	 DWORD PTR [eax]

; 73   : 		m_aTabPages[0]->ShowWindow(SW_HIDE);

  00054	8b 8e 88 00 00
	00		 mov	 ecx, DWORD PTR [esi+136]
  0005a	57		 push	 edi
  0005b	e8 00 00 00 00	 call	 ?ShowWindow@CWnd@@QAEHH@Z ; CWnd::ShowWindow

; 74   : 		m_aTabPages[1]->ShowWindow(SW_SHOW);

  00060	8b 8e 8c 00 00
	00		 mov	 ecx, DWORD PTR [esi+140]
  00066	6a 05		 push	 5
  00068	e8 00 00 00 00	 call	 ?ShowWindow@CWnd@@QAEHH@Z ; CWnd::ShowWindow

; 182  : 	if( m_aTabPages[1] != NULL )

  0006d	8b 8e 8c 00 00
	00		 mov	 ecx, DWORD PTR [esi+140]
  00073	85 c9		 test	 ecx, ecx
  00075	74 6a		 je	 SHORT $LN10@OnSelchang

; 183  : 		((CDlgSubTabIndicatorExp *)m_aTabPages[1])->ReadIndicatorExpFile( m_strIndicatorName );

  00077	51		 push	 ecx
  00078	8d 86 90 00 00
	00		 lea	 eax, DWORD PTR [esi+144]
  0007e	8b cc		 mov	 ecx, esp
  00080	50		 push	 eax
  00081	ff 15 00 00 00
	00		 call	 DWORD PTR __imp_??0?$CStringT@DV?$StrTraitMFC_DLL@DV?$ChTraitsCRT@D@ATL@@@@@ATL@@QAE@ABV01@@Z
  00087	8b 8e 8c 00 00
	00		 mov	 ecx, DWORD PTR [esi+140]
  0008d	e8 00 00 00 00	 call	 ?ReadIndicatorExpFile@CDlgSubTabIndicatorExp@@QAEXV?$CStringT@DV?$StrTraitMFC_DLL@DV?$ChTraitsCRT@D@ATL@@@@@ATL@@@Z ; CDlgSubTabIndicatorExp::ReadIndicatorExpFile
  00092	8b 8e 8c 00 00
	00		 mov	 ecx, DWORD PTR [esi+140]

; 86   : 	}
; 87   : }

  00098	e8 00 00 00 00	 call	 ?SetFocus@CWnd@@QAEPAV1@XZ ; CWnd::SetFocus
  0009d	5f		 pop	 edi
  0009e	5e		 pop	 esi
  0009f	5d		 pop	 ebp
  000a0	c2 08 00	 ret	 8
$LN3@OnSelchang:

; 75   : 		ReadIndicatorExpFile();
; 76   : 		m_aTabPages[1]->SetFocus();
; 77   : 	}
; 78   : 
; 79   : 	else if( nPrevTabPageIndex == 1 && m_nCurTabPage == 0 )

  000a3	83 ff 01	 cmp	 edi, 1
  000a6	75 3e		 jne	 SHORT $LN5@OnSelchang
  000a8	85 c0		 test	 eax, eax
  000aa	75 3a		 jne	 SHORT $LN5@OnSelchang

; 80   : 	{
; 81   : 		m_aTabPages[1]->ShowWindow(SW_HIDE);

  000ac	8b 8e 8c 00 00
	00		 mov	 ecx, DWORD PTR [esi+140]
  000b2	50		 push	 eax
  000b3	e8 00 00 00 00	 call	 ?ShowWindow@CWnd@@QAEHH@Z ; CWnd::ShowWindow

; 82   : 		m_aTabPages[0]->ShowWindow(SW_SHOW);

  000b8	8b 8e 88 00 00
	00		 mov	 ecx, DWORD PTR [esi+136]
  000be	6a 05		 push	 5
  000c0	e8 00 00 00 00	 call	 ?ShowWindow@CWnd@@QAEHH@Z ; CWnd::ShowWindow

; 83   : 		m_pParentDlg->ShowChildDialog( TRUE );

  000c5	8b 8e 94 00 00
	00		 mov	 ecx, DWORD PTR [esi+148]
  000cb	57		 push	 edi
  000cc	8b 01		 mov	 eax, DWORD PTR [ecx]
  000ce	ff 10		 call	 DWORD PTR [eax]

; 84   : 		m_pParentDlg->ShowChildDialog( TRUE );

  000d0	8b 8e 94 00 00
	00		 mov	 ecx, DWORD PTR [esi+148]
  000d6	57		 push	 edi
  000d7	8b 01		 mov	 eax, DWORD PTR [ecx]
  000d9	ff 10		 call	 DWORD PTR [eax]

; 85   : 		m_aTabPages[0]->SetFocus();

  000db	8b 8e 88 00 00
	00		 mov	 ecx, DWORD PTR [esi+136]
$LN10@OnSelchang:

; 86   : 	}
; 87   : }

  000e1	e8 00 00 00 00	 call	 ?SetFocus@CWnd@@QAEPAV1@XZ ; CWnd::SetFocus
$LN5@OnSelchang:
  000e6	5f		 pop	 edi
  000e7	5e		 pop	 esi
  000e8	5d		 pop	 ebp
  000e9	c2 08 00	 ret	 8
?OnSelchange@CTabSubIndicatorSetUpCtrl@@IAEXPAUtagNMHDR@@PAJ@Z ENDP ; CTabSubIndicatorSetUpCtrl::OnSelchange
_TEXT	ENDS
; Function compile flags: /Ogtp
; File D:\git\src\IBK\IBK_DRFN\ProjSrc\SrcChartEx\ChartAddIn\ChartEnvSetupDlgAddIn\ChartEnvSetupDlgAddIn\TabSubIndicatorSetUpCtrl.cpp
; File C:\Program Files (x86)\Microsoft Visual Studio\2019\Community\VC\Tools\MSVC\14.29.30133\atlmfc\include\afxwin2.inl
; File C:\Program Files (x86)\Microsoft Visual Studio\2019\Community\VC\Tools\MSVC\14.29.30133\atlmfc\include\atltypes.h
; File C:\Program Files (x86)\Microsoft Visual Studio\2019\Community\VC\Tools\MSVC\14.29.30133\atlmfc\include\afxwin2.inl
; File C:\Program Files (x86)\Microsoft Visual Studio\2019\Community\VC\Tools\MSVC\14.29.30133\atlmfc\include\atltypes.h
; File C:\Program Files (x86)\Microsoft Visual Studio\2019\Community\VC\Tools\MSVC\14.29.30133\atlmfc\include\afxwin2.inl
; File C:\Program Files (x86)\Microsoft Visual Studio\2019\Community\VC\Tools\MSVC\14.29.30133\atlmfc\include\afxcmn.inl
; File D:\git\src\IBK\IBK_DRFN\ProjSrc\SrcChartEx\ChartAddIn\ChartEnvSetupDlgAddIn\ChartEnvSetupDlgAddIn\TabSubIndicatorSetUpCtrl.cpp
; File C:\Program Files (x86)\Microsoft Visual Studio\2019\Community\VC\Tools\MSVC\14.29.30133\atlmfc\include\afxcmn.inl
; File D:\git\src\IBK\IBK_DRFN\ProjSrc\SrcChartEx\ChartAddIn\ChartEnvSetupDlgAddIn\ChartEnvSetupDlgAddIn\TabSubIndicatorSetUpCtrl.cpp
;	COMDAT ?SetTabPagePosition@CTabSubIndicatorSetUpCtrl@@AAEXXZ
_TEXT	SEGMENT
_nX$1$ = -52						; size = 4
_nYc$1$ = -48						; size = 4
_nXc$1$ = -44						; size = 4
_nY$1$ = -40						; size = 4
_tabRect$ = -36						; size = 16
_itemRect$ = -20					; size = 16
__$ArrayPad$ = -4					; size = 4
?SetTabPagePosition@CTabSubIndicatorSetUpCtrl@@AAEXXZ PROC ; CTabSubIndicatorSetUpCtrl::SetTabPagePosition, COMDAT
; _this$ = ecx

; 153  : {

  00000	55		 push	 ebp
  00001	8b ec		 mov	 ebp, esp
  00003	83 ec 34	 sub	 esp, 52			; 00000034H
  00006	a1 00 00 00 00	 mov	 eax, DWORD PTR ___security_cookie
  0000b	33 c5		 xor	 eax, ebp
  0000d	89 45 fc	 mov	 DWORD PTR __$ArrayPad$[ebp], eax
  00010	53		 push	 ebx
  00011	56		 push	 esi
  00012	57		 push	 edi
  00013	8b f9		 mov	 edi, ecx
; File C:\Program Files (x86)\Microsoft Visual Studio\2019\Community\VC\Tools\MSVC\14.29.30133\atlmfc\include\afxwin2.inl

; 86   : 	{ ASSERT(::IsWindow(m_hWnd)); ::GetClientRect(m_hWnd, lpRect); }

  00015	8d 45 dc	 lea	 eax, DWORD PTR _tabRect$[ebp]
  00018	50		 push	 eax
  00019	0f 57 c0	 xorps	 xmm0, xmm0
; File C:\Program Files (x86)\Microsoft Visual Studio\2019\Community\VC\Tools\MSVC\14.29.30133\atlmfc\include\atltypes.h

; 528  : 	left = 0;

  0001c	0f 11 45 dc	 movups	 XMMWORD PTR _tabRect$[ebp], xmm0
; File C:\Program Files (x86)\Microsoft Visual Studio\2019\Community\VC\Tools\MSVC\14.29.30133\atlmfc\include\afxwin2.inl

; 86   : 	{ ASSERT(::IsWindow(m_hWnd)); ::GetClientRect(m_hWnd, lpRect); }

  00020	ff 77 20	 push	 DWORD PTR [edi+32]
; File C:\Program Files (x86)\Microsoft Visual Studio\2019\Community\VC\Tools\MSVC\14.29.30133\atlmfc\include\atltypes.h

; 528  : 	left = 0;

  00023	0f 11 45 ec	 movups	 XMMWORD PTR _itemRect$[ebp], xmm0
; File C:\Program Files (x86)\Microsoft Visual Studio\2019\Community\VC\Tools\MSVC\14.29.30133\atlmfc\include\afxwin2.inl

; 86   : 	{ ASSERT(::IsWindow(m_hWnd)); ::GetClientRect(m_hWnd, lpRect); }

  00027	ff 15 00 00 00
	00		 call	 DWORD PTR __imp__GetClientRect@8
; File C:\Program Files (x86)\Microsoft Visual Studio\2019\Community\VC\Tools\MSVC\14.29.30133\atlmfc\include\afxcmn.inl

; 584  : 	{ ASSERT(::IsWindow(m_hWnd)); return (BOOL)::SendMessage(m_hWnd, TCM_GETITEMRECT, nItem, (LPARAM)lpRect); }

  0002d	8d 45 ec	 lea	 eax, DWORD PTR _itemRect$[ebp]
  00030	50		 push	 eax
  00031	6a 00		 push	 0
  00033	68 0a 13 00 00	 push	 4874			; 0000130aH
  00038	ff 77 20	 push	 DWORD PTR [edi+32]
  0003b	ff 15 00 00 00
	00		 call	 DWORD PTR __imp__SendMessageA@16
; File D:\git\src\IBK\IBK_DRFN\ProjSrc\SrcChartEx\ChartAddIn\ChartEnvSetupDlgAddIn\ChartEnvSetupDlgAddIn\TabSubIndicatorSetUpCtrl.cpp

; 162  : 	nY = itemRect.bottom + 1;

  00041	8b 5d f8	 mov	 ebx, DWORD PTR _itemRect$[ebp+12]

; 163  : 	nXc = tabRect.right - itemRect.left - 1;
; 164  : 	nYc = tabRect.bottom - nY - 1;
; 165  : 
; 166  : 	for( int nCount = 0 ; nCount < m_nTotalTabPages ; nCount++ )

  00044	33 f6		 xor	 esi, esi
  00046	8b 55 ec	 mov	 edx, DWORD PTR _itemRect$[ebp]
  00049	43		 inc	 ebx
  0004a	8b 45 e4	 mov	 eax, DWORD PTR _tabRect$[ebp+8]
  0004d	8b 4d e8	 mov	 ecx, DWORD PTR _tabRect$[ebp+12]
  00050	2b c2		 sub	 eax, edx
  00052	2b cb		 sub	 ecx, ebx
  00054	89 55 cc	 mov	 DWORD PTR _nX$1$[ebp], edx
  00057	48		 dec	 eax
  00058	89 5d d8	 mov	 DWORD PTR _nY$1$[ebp], ebx
  0005b	49		 dec	 ecx
  0005c	89 45 d4	 mov	 DWORD PTR _nXc$1$[ebp], eax
  0005f	89 4d d0	 mov	 DWORD PTR _nYc$1$[ebp], ecx
  00062	39 b7 80 00 00
	00		 cmp	 DWORD PTR [edi+128], esi
  00068	7e 5d		 jle	 SHORT $LN3@SetTabPage

; 153  : {

  0006a	bb 88 00 00 00	 mov	 ebx, 136		; 00000088H
  0006f	90		 npad	 1
$LL4@SetTabPage:

; 167  : 	{
; 168  : 		if( nCount == m_nCurTabPage )

  00070	3b b7 84 00 00
	00		 cmp	 esi, DWORD PTR [edi+132]
  00076	75 21		 jne	 SHORT $LN5@SetTabPage
; File C:\Program Files (x86)\Microsoft Visual Studio\2019\Community\VC\Tools\MSVC\14.29.30133\atlmfc\include\afxcmn.inl

; 588  : 	{ ASSERT(::IsWindow(m_hWnd)); return (int)::SendMessage(m_hWnd, TCM_SETCURSEL, nItem, 0L); }

  00078	6a 00		 push	 0
  0007a	56		 push	 esi
  0007b	68 0c 13 00 00	 push	 4876			; 0000130cH
  00080	ff 77 20	 push	 DWORD PTR [edi+32]
  00083	ff 15 00 00 00
	00		 call	 DWORD PTR __imp__SendMessageA@16
; File D:\git\src\IBK\IBK_DRFN\ProjSrc\SrcChartEx\ChartAddIn\ChartEnvSetupDlgAddIn\ChartEnvSetupDlgAddIn\TabSubIndicatorSetUpCtrl.cpp

; 171  : 			m_aTabPages[nCount]->SetWindowPos( &wndTop, nX, nY, nXc, nYc, SWP_SHOWWINDOW );

  00089	6a 40		 push	 64			; 00000040H
  0008b	ff 75 d0	 push	 DWORD PTR _nYc$1$[ebp]
  0008e	ff 75 d4	 push	 DWORD PTR _nXc$1$[ebp]
  00091	ff 75 d8	 push	 DWORD PTR _nY$1$[ebp]
  00094	ff 75 cc	 push	 DWORD PTR _nX$1$[ebp]

; 172  : 		}

  00097	eb 0b		 jmp	 SHORT $LN22@SetTabPage
$LN5@SetTabPage:

; 173  : 
; 174  : 		else
; 175  : 			m_aTabPages[nCount]->SetWindowPos( &wndTop, nX, nY, nXc, nYc, SWP_HIDEWINDOW );

  00099	68 80 00 00 00	 push	 128			; 00000080H
  0009e	51		 push	 ecx
  0009f	50		 push	 eax
  000a0	ff 75 d8	 push	 DWORD PTR _nY$1$[ebp]
  000a3	52		 push	 edx
$LN22@SetTabPage:

; 163  : 	nXc = tabRect.right - itemRect.left - 1;
; 164  : 	nYc = tabRect.bottom - nY - 1;
; 165  : 
; 166  : 	for( int nCount = 0 ; nCount < m_nTotalTabPages ; nCount++ )

  000a4	ff 35 00 00 00
	00		 push	 DWORD PTR __imp_?wndTop@CWnd@@2V1@B
  000aa	8b 0c 3b	 mov	 ecx, DWORD PTR [ebx+edi]
  000ad	e8 00 00 00 00	 call	 ?SetWindowPos@CWnd@@QAEHPBV1@HHHHI@Z ; CWnd::SetWindowPos
  000b2	8b 45 d4	 mov	 eax, DWORD PTR _nXc$1$[ebp]
  000b5	46		 inc	 esi
  000b6	8b 4d d0	 mov	 ecx, DWORD PTR _nYc$1$[ebp]
  000b9	83 c3 04	 add	 ebx, 4
  000bc	8b 55 cc	 mov	 edx, DWORD PTR _nX$1$[ebp]
  000bf	3b b7 80 00 00
	00		 cmp	 esi, DWORD PTR [edi+128]
  000c5	7c a9		 jl	 SHORT $LL4@SetTabPage
$LN3@SetTabPage:

; 176  : 	}
; 177  : }

  000c7	8b 4d fc	 mov	 ecx, DWORD PTR __$ArrayPad$[ebp]
  000ca	5f		 pop	 edi
  000cb	5e		 pop	 esi
  000cc	33 cd		 xor	 ecx, ebp
  000ce	5b		 pop	 ebx
  000cf	e8 00 00 00 00	 call	 @__security_check_cookie@4
  000d4	8b e5		 mov	 esp, ebp
  000d6	5d		 pop	 ebp
  000d7	c3		 ret	 0
?SetTabPagePosition@CTabSubIndicatorSetUpCtrl@@AAEXXZ ENDP ; CTabSubIndicatorSetUpCtrl::SetTabPagePosition
_TEXT	ENDS
; Function compile flags: /Ogtp
; File D:\git\src\IBK\IBK_DRFN\ProjSrc\SrcChartEx\ChartAddIn\ChartEnvSetupDlgAddIn\ChartEnvSetupDlgAddIn\TabSubIndicatorSetUpCtrl.cpp
; File C:\Program Files (x86)\Microsoft Visual Studio\2019\Community\VC\Tools\MSVC\14.29.30133\atlmfc\include\afx.inl
; File D:\git\src\IBK\IBK_DRFN\ProjSrc\SrcChartEx\ChartAddIn\ChartEnvSetupDlgAddIn\ChartEnvSetupDlgAddIn\TabSubIndicatorSetUpCtrl.cpp
; File C:\Program Files (x86)\Microsoft Visual Studio\2019\Community\VC\Tools\MSVC\14.29.30133\atlmfc\include\afx.inl
; File D:\git\src\IBK\IBK_DRFN\ProjSrc\SrcChartEx\ChartAddIn\ChartEnvSetupDlgAddIn\ChartEnvSetupDlgAddIn\TabSubIndicatorSetUpCtrl.cpp
; File C:\Program Files (x86)\Microsoft Visual Studio\2019\Community\VC\Tools\MSVC\14.29.30133\atlmfc\include\afx.inl
; File D:\git\src\IBK\IBK_DRFN\ProjSrc\SrcChartEx\ChartAddIn\ChartEnvSetupDlgAddIn\ChartEnvSetupDlgAddIn\TabSubIndicatorSetUpCtrl.cpp
;	COMDAT ?CreateTabPage@CTabSubIndicatorSetUpCtrl@@AAEXPAUIChartOCX135914@@@Z
_TEXT	SEGMENT
$T2 = -16						; size = 4
$T3 = -16						; size = 4
__$EHRec$ = -12						; size = 12
_p_pIChartOCX$ = 8					; size = 4
?CreateTabPage@CTabSubIndicatorSetUpCtrl@@AAEXPAUIChartOCX135914@@@Z PROC ; CTabSubIndicatorSetUpCtrl::CreateTabPage, COMDAT
; _this$ = ecx

; 124  : {

  00000	55		 push	 ebp
  00001	8b ec		 mov	 ebp, esp
  00003	6a ff		 push	 -1
  00005	68 00 00 00 00	 push	 __ehhandler$?CreateTabPage@CTabSubIndicatorSetUpCtrl@@AAEXPAUIChartOCX135914@@@Z
  0000a	64 a1 00 00 00
	00		 mov	 eax, DWORD PTR fs:0
  00010	50		 push	 eax
  00011	51		 push	 ecx
  00012	56		 push	 esi
  00013	a1 00 00 00 00	 mov	 eax, DWORD PTR ___security_cookie
  00018	33 c5		 xor	 eax, ebp
  0001a	50		 push	 eax
  0001b	8d 45 f4	 lea	 eax, DWORD PTR __$EHRec$[ebp]
  0001e	64 a3 00 00 00
	00		 mov	 DWORD PTR fs:0, eax
  00024	8b f1		 mov	 esi, ecx
; File C:\Program Files (x86)\Microsoft Visual Studio\2019\Community\VC\Tools\MSVC\14.29.30133\atlmfc\include\afx.inl

; 116  : 	{ return ::operator new(nSize); }

  00026	68 a8 00 00 00	 push	 168			; 000000a8H
; File D:\git\src\IBK\IBK_DRFN\ProjSrc\SrcChartEx\ChartAddIn\ChartEnvSetupDlgAddIn\ChartEnvSetupDlgAddIn\TabSubIndicatorSetUpCtrl.cpp

; 126  : 	m_aTabPages[0] = NULL;

  0002b	c7 86 88 00 00
	00 00 00 00 00	 mov	 DWORD PTR [esi+136], 0

; 127  : 	m_aTabPages[1] = NULL;

  00035	c7 86 8c 00 00
	00 00 00 00 00	 mov	 DWORD PTR [esi+140], 0
; File C:\Program Files (x86)\Microsoft Visual Studio\2019\Community\VC\Tools\MSVC\14.29.30133\atlmfc\include\afx.inl

; 116  : 	{ return ::operator new(nSize); }

  0003f	e8 00 00 00 00	 call	 ??2@YAPAXI@Z		; operator new
  00044	83 c4 04	 add	 esp, 4
; File D:\git\src\IBK\IBK_DRFN\ProjSrc\SrcChartEx\ChartAddIn\ChartEnvSetupDlgAddIn\ChartEnvSetupDlgAddIn\TabSubIndicatorSetUpCtrl.cpp

; 131  : 	m_aTabPages[0] = new CDialog( IDD_SUBTAB_PAGE_SETUP, this);

  00047	89 45 f0	 mov	 DWORD PTR $T3[ebp], eax
  0004a	c7 45 fc 00 00
	00 00		 mov	 DWORD PTR __$EHRec$[ebp+8], 0
  00051	85 c0		 test	 eax, eax
  00053	74 11		 je	 SHORT $LN3@CreateTabP
  00055	56		 push	 esi
  00056	68 41 1f 00 00	 push	 8001			; 00001f41H
  0005b	8b c8		 mov	 ecx, eax
  0005d	e8 00 00 00 00	 call	 ??0CDialog@@QAE@IPAVCWnd@@@Z ; CDialog::CDialog
  00062	8b c8		 mov	 ecx, eax
  00064	eb 02		 jmp	 SHORT $LN4@CreateTabP
$LN3@CreateTabP:
  00066	33 c9		 xor	 ecx, ecx
$LN4@CreateTabP:
  00068	89 8e 88 00 00
	00		 mov	 DWORD PTR [esi+136], ecx

; 132  : 	m_aTabPages[0]->Create(IDD_SUBTAB_PAGE_SETUP, this);

  0006e	8b 01		 mov	 eax, DWORD PTR [ecx]
  00070	56		 push	 esi
  00071	68 41 1f 00 00	 push	 8001			; 00001f41H
  00076	c7 45 fc ff ff
	ff ff		 mov	 DWORD PTR __$EHRec$[ebp+8], -1
  0007d	ff 90 6c 01 00
	00		 call	 DWORD PTR [eax+364]
; File C:\Program Files (x86)\Microsoft Visual Studio\2019\Community\VC\Tools\MSVC\14.29.30133\atlmfc\include\afx.inl

; 116  : 	{ return ::operator new(nSize); }

  00083	68 c0 00 00 00	 push	 192			; 000000c0H
  00088	e8 00 00 00 00	 call	 ??2@YAPAXI@Z		; operator new
  0008d	83 c4 04	 add	 esp, 4
; File D:\git\src\IBK\IBK_DRFN\ProjSrc\SrcChartEx\ChartAddIn\ChartEnvSetupDlgAddIn\ChartEnvSetupDlgAddIn\TabSubIndicatorSetUpCtrl.cpp

; 134  : 	m_aTabPages[1] = new CDlgSubTabIndicatorExp( p_pIChartOCX);

  00090	89 45 f0	 mov	 DWORD PTR $T2[ebp], eax
  00093	c7 45 fc 01 00
	00 00		 mov	 DWORD PTR __$EHRec$[ebp+8], 1
  0009a	85 c0		 test	 eax, eax
  0009c	74 10		 je	 SHORT $LN5@CreateTabP
  0009e	6a 00		 push	 0
  000a0	ff 75 08	 push	 DWORD PTR _p_pIChartOCX$[ebp]
  000a3	8b c8		 mov	 ecx, eax
  000a5	e8 00 00 00 00	 call	 ??0CDlgSubTabIndicatorExp@@QAE@PAUIChartOCX135914@@PAVCWnd@@@Z ; CDlgSubTabIndicatorExp::CDlgSubTabIndicatorExp
  000aa	8b c8		 mov	 ecx, eax
  000ac	eb 02		 jmp	 SHORT $LN6@CreateTabP
$LN5@CreateTabP:
  000ae	33 c9		 xor	 ecx, ecx
$LN6@CreateTabP:
  000b0	89 8e 8c 00 00
	00		 mov	 DWORD PTR [esi+140], ecx

; 135  : 	m_aTabPages[1]->Create(IDD_SUBTAB_PAGE_EXP, this);

  000b6	8b 01		 mov	 eax, DWORD PTR [ecx]
  000b8	56		 push	 esi
  000b9	6a 69		 push	 105			; 00000069H
  000bb	c7 45 fc ff ff
	ff ff		 mov	 DWORD PTR __$EHRec$[ebp+8], -1
  000c2	ff 90 6c 01 00
	00		 call	 DWORD PTR [eax+364]

; 136  : }

  000c8	8b 4d f4	 mov	 ecx, DWORD PTR __$EHRec$[ebp]
  000cb	64 89 0d 00 00
	00 00		 mov	 DWORD PTR fs:0, ecx
  000d2	59		 pop	 ecx
  000d3	5e		 pop	 esi
  000d4	8b e5		 mov	 esp, ebp
  000d6	5d		 pop	 ebp
  000d7	c2 04 00	 ret	 4
_TEXT	ENDS
;	COMDAT text$x
text$x	SEGMENT
__unwindfunclet$?CreateTabPage@CTabSubIndicatorSetUpCtrl@@AAEXPAUIChartOCX135914@@@Z$0:
  00000	8b 45 f0	 mov	 eax, DWORD PTR $T3[ebp]
  00003	50		 push	 eax
  00004	e8 00 00 00 00	 call	 ??3CObject@@SGXPAX@Z	; CObject::operator delete
  00009	c3		 ret	 0
__unwindfunclet$?CreateTabPage@CTabSubIndicatorSetUpCtrl@@AAEXPAUIChartOCX135914@@@Z$1:
  0000a	8b 45 f0	 mov	 eax, DWORD PTR $T2[ebp]
  0000d	50		 push	 eax
  0000e	e8 00 00 00 00	 call	 ??3CObject@@SGXPAX@Z	; CObject::operator delete
  00013	c3		 ret	 0
  00014	cc		 int	 3
  00015	cc		 int	 3
  00016	cc		 int	 3
  00017	cc		 int	 3
  00018	cc		 int	 3
__ehhandler$?CreateTabPage@CTabSubIndicatorSetUpCtrl@@AAEXPAUIChartOCX135914@@@Z:
  00019	90		 npad	 1
  0001a	90		 npad	 1
  0001b	8b 54 24 08	 mov	 edx, DWORD PTR [esp+8]
  0001f	8d 42 0c	 lea	 eax, DWORD PTR [edx+12]
  00022	8b 4a f4	 mov	 ecx, DWORD PTR [edx-12]
  00025	33 c8		 xor	 ecx, eax
  00027	e8 00 00 00 00	 call	 @__security_check_cookie@4
  0002c	b8 00 00 00 00	 mov	 eax, OFFSET __ehfuncinfo$?CreateTabPage@CTabSubIndicatorSetUpCtrl@@AAEXPAUIChartOCX135914@@@Z
  00031	e9 00 00 00 00	 jmp	 ___CxxFrameHandler3
text$x	ENDS
?CreateTabPage@CTabSubIndicatorSetUpCtrl@@AAEXPAUIChartOCX135914@@@Z ENDP ; CTabSubIndicatorSetUpCtrl::CreateTabPage
; Function compile flags: /Ogtp
; File D:\git\src\IBK\IBK_DRFN\ProjSrc\SrcChartEx\ChartAddIn\ChartEnvSetupDlgAddIn\ChartEnvSetupDlgAddIn\TabSubIndicatorSetUpCtrl.cpp
;	COMDAT ?SetSubGraphName@CTabSubIndicatorSetUpCtrl@@QAEXV?$CStringT@DV?$StrTraitMFC_DLL@DV?$ChTraitsCRT@D@ATL@@@@@ATL@@@Z
_TEXT	SEGMENT
__$EHRec$ = -12						; size = 12
_strIndicatorName$ = 8					; size = 4
?SetSubGraphName@CTabSubIndicatorSetUpCtrl@@QAEXV?$CStringT@DV?$StrTraitMFC_DLL@DV?$ChTraitsCRT@D@ATL@@@@@ATL@@@Z PROC ; CTabSubIndicatorSetUpCtrl::SetSubGraphName, COMDAT
; _this$ = ecx

; 194  : {

  00000	55		 push	 ebp
  00001	8b ec		 mov	 ebp, esp
  00003	6a ff		 push	 -1
  00005	68 00 00 00 00	 push	 __ehhandler$?SetSubGraphName@CTabSubIndicatorSetUpCtrl@@QAEXV?$CStringT@DV?$StrTraitMFC_DLL@DV?$ChTraitsCRT@D@ATL@@@@@ATL@@@Z
  0000a	64 a1 00 00 00
	00		 mov	 eax, DWORD PTR fs:0
  00010	50		 push	 eax
  00011	a1 00 00 00 00	 mov	 eax, DWORD PTR ___security_cookie
  00016	33 c5		 xor	 eax, ebp
  00018	50		 push	 eax
  00019	8d 45 f4	 lea	 eax, DWORD PTR __$EHRec$[ebp]
  0001c	64 a3 00 00 00
	00		 mov	 DWORD PTR fs:0, eax

; 195  : 	m_strIndicatorName = strIndicatorName;

  00022	8d 45 08	 lea	 eax, DWORD PTR _strIndicatorName$[ebp]
  00025	c7 45 fc 00 00
	00 00		 mov	 DWORD PTR __$EHRec$[ebp+8], 0
  0002c	50		 push	 eax
  0002d	81 c1 90 00 00
	00		 add	 ecx, 144		; 00000090H
  00033	ff 15 00 00 00
	00		 call	 DWORD PTR __imp_??4?$CStringT@DV?$StrTraitMFC_DLL@DV?$ChTraitsCRT@D@ATL@@@@@ATL@@QAEAAV01@ABV01@@Z

; 196  : }

  00039	8d 4d 08	 lea	 ecx, DWORD PTR _strIndicatorName$[ebp]
  0003c	ff 15 00 00 00
	00		 call	 DWORD PTR __imp_??1?$CStringT@DV?$StrTraitMFC_DLL@DV?$ChTraitsCRT@D@ATL@@@@@ATL@@QAE@XZ
  00042	8b 4d f4	 mov	 ecx, DWORD PTR __$EHRec$[ebp]
  00045	64 89 0d 00 00
	00 00		 mov	 DWORD PTR fs:0, ecx
  0004c	59		 pop	 ecx
  0004d	8b e5		 mov	 esp, ebp
  0004f	5d		 pop	 ebp
  00050	c2 04 00	 ret	 4
_TEXT	ENDS
;	COMDAT text$x
text$x	SEGMENT
__unwindfunclet$?SetSubGraphName@CTabSubIndicatorSetUpCtrl@@QAEXV?$CStringT@DV?$StrTraitMFC_DLL@DV?$ChTraitsCRT@D@ATL@@@@@ATL@@@Z$0:
  00000	8d 4d 08	 lea	 ecx, DWORD PTR _strIndicatorName$[ebp]
  00003	ff 25 00 00 00
	00		 jmp	 DWORD PTR __imp_??1?$CStringT@DV?$StrTraitMFC_DLL@DV?$ChTraitsCRT@D@ATL@@@@@ATL@@QAE@XZ
  00009	cc		 int	 3
  0000a	cc		 int	 3
  0000b	cc		 int	 3
  0000c	cc		 int	 3
  0000d	cc		 int	 3
__ehhandler$?SetSubGraphName@CTabSubIndicatorSetUpCtrl@@QAEXV?$CStringT@DV?$StrTraitMFC_DLL@DV?$ChTraitsCRT@D@ATL@@@@@ATL@@@Z:
  0000e	90		 npad	 1
  0000f	90		 npad	 1
  00010	8b 54 24 08	 mov	 edx, DWORD PTR [esp+8]
  00014	8d 42 0c	 lea	 eax, DWORD PTR [edx+12]
  00017	8b 4a fc	 mov	 ecx, DWORD PTR [edx-4]
  0001a	33 c8		 xor	 ecx, eax
  0001c	e8 00 00 00 00	 call	 @__security_check_cookie@4
  00021	b8 00 00 00 00	 mov	 eax, OFFSET __ehfuncinfo$?SetSubGraphName@CTabSubIndicatorSetUpCtrl@@QAEXV?$CStringT@DV?$StrTraitMFC_DLL@DV?$ChTraitsCRT@D@ATL@@@@@ATL@@@Z
  00026	e9 00 00 00 00	 jmp	 ___CxxFrameHandler3
text$x	ENDS
?SetSubGraphName@CTabSubIndicatorSetUpCtrl@@QAEXV?$CStringT@DV?$StrTraitMFC_DLL@DV?$ChTraitsCRT@D@ATL@@@@@ATL@@@Z ENDP ; CTabSubIndicatorSetUpCtrl::SetSubGraphName
; Function compile flags: /Ogtp
; File D:\git\src\IBK\IBK_DRFN\ProjSrc\SrcChartEx\ChartAddIn\ChartEnvSetupDlgAddIn\ChartEnvSetupDlgAddIn\TabSubIndicatorSetUpCtrl.cpp
;	COMDAT ?GetSubGraphName@CTabSubIndicatorSetUpCtrl@@QAE?AV?$CStringT@DV?$StrTraitMFC_DLL@DV?$ChTraitsCRT@D@ATL@@@@@ATL@@XZ
_TEXT	SEGMENT
___$ReturnUdt$ = 8					; size = 4
?GetSubGraphName@CTabSubIndicatorSetUpCtrl@@QAE?AV?$CStringT@DV?$StrTraitMFC_DLL@DV?$ChTraitsCRT@D@ATL@@@@@ATL@@XZ PROC ; CTabSubIndicatorSetUpCtrl::GetSubGraphName, COMDAT
; _this$ = ecx

; 188  : {

  00000	55		 push	 ebp
  00001	8b ec		 mov	 ebp, esp

; 189  : 	return m_strIndicatorName;

  00003	8d 81 90 00 00
	00		 lea	 eax, DWORD PTR [ecx+144]
  00009	8b 4d 08	 mov	 ecx, DWORD PTR ___$ReturnUdt$[ebp]
  0000c	50		 push	 eax
  0000d	ff 15 00 00 00
	00		 call	 DWORD PTR __imp_??0?$CStringT@DV?$StrTraitMFC_DLL@DV?$ChTraitsCRT@D@ATL@@@@@ATL@@QAE@ABV01@@Z
  00013	8b 45 08	 mov	 eax, DWORD PTR ___$ReturnUdt$[ebp]

; 190  : }

  00016	5d		 pop	 ebp
  00017	c2 04 00	 ret	 4
?GetSubGraphName@CTabSubIndicatorSetUpCtrl@@QAE?AV?$CStringT@DV?$StrTraitMFC_DLL@DV?$ChTraitsCRT@D@ATL@@@@@ATL@@XZ ENDP ; CTabSubIndicatorSetUpCtrl::GetSubGraphName
_TEXT	ENDS
; Function compile flags: /Ogtp
; File D:\git\src\IBK\IBK_DRFN\ProjSrc\SrcChartEx\ChartAddIn\ChartEnvSetupDlgAddIn\ChartEnvSetupDlgAddIn\TabSubIndicatorSetUpCtrl.cpp
;	COMDAT ?ReadIndicatorExpFile@CTabSubIndicatorSetUpCtrl@@QAEXXZ
_TEXT	SEGMENT
?ReadIndicatorExpFile@CTabSubIndicatorSetUpCtrl@@QAEXXZ PROC ; CTabSubIndicatorSetUpCtrl::ReadIndicatorExpFile, COMDAT
; _this$ = ecx

; 181  : {

  00000	55		 push	 ebp
  00001	8b ec		 mov	 ebp, esp
  00003	51		 push	 ecx
  00004	56		 push	 esi
  00005	8b f1		 mov	 esi, ecx

; 182  : 	if( m_aTabPages[1] != NULL )

  00007	83 be 8c 00 00
	00 00		 cmp	 DWORD PTR [esi+140], 0
  0000e	74 1b		 je	 SHORT $LN2@ReadIndica

; 183  : 		((CDlgSubTabIndicatorExp *)m_aTabPages[1])->ReadIndicatorExpFile( m_strIndicatorName );

  00010	51		 push	 ecx
  00011	8d 86 90 00 00
	00		 lea	 eax, DWORD PTR [esi+144]
  00017	8b cc		 mov	 ecx, esp
  00019	50		 push	 eax
  0001a	ff 15 00 00 00
	00		 call	 DWORD PTR __imp_??0?$CStringT@DV?$StrTraitMFC_DLL@DV?$ChTraitsCRT@D@ATL@@@@@ATL@@QAE@ABV01@@Z
  00020	8b 8e 8c 00 00
	00		 mov	 ecx, DWORD PTR [esi+140]
  00026	e8 00 00 00 00	 call	 ?ReadIndicatorExpFile@CDlgSubTabIndicatorExp@@QAEXV?$CStringT@DV?$StrTraitMFC_DLL@DV?$ChTraitsCRT@D@ATL@@@@@ATL@@@Z ; CDlgSubTabIndicatorExp::ReadIndicatorExpFile
$LN2@ReadIndica:

; 184  : }

  0002b	5e		 pop	 esi
  0002c	8b e5		 mov	 esp, ebp
  0002e	5d		 pop	 ebp
  0002f	c3		 ret	 0
?ReadIndicatorExpFile@CTabSubIndicatorSetUpCtrl@@QAEXXZ ENDP ; CTabSubIndicatorSetUpCtrl::ReadIndicatorExpFile
_TEXT	ENDS
; Function compile flags: /Ogtp
; File D:\git\src\IBK\IBK_DRFN\ProjSrc\SrcChartEx\ChartAddIn\ChartEnvSetupDlgAddIn\ChartEnvSetupDlgAddIn\TabSubIndicatorSetUpCtrl.cpp
;	COMDAT ?GetSubTab@CTabSubIndicatorSetUpCtrl@@QAEPAVCWnd@@H@Z
_TEXT	SEGMENT
_nSubTabIdx$ = 8					; size = 4
?GetSubTab@CTabSubIndicatorSetUpCtrl@@QAEPAVCWnd@@H@Z PROC ; CTabSubIndicatorSetUpCtrl::GetSubTab, COMDAT
; _this$ = ecx

; 140  : {

  00000	55		 push	 ebp
  00001	8b ec		 mov	 ebp, esp

; 141  : 	if( m_aTabPages[nSubTabIdx] != NULL )

  00003	8b 45 08	 mov	 eax, DWORD PTR _nSubTabIdx$[ebp]
  00006	8b 8c 81 88 00
	00 00		 mov	 ecx, DWORD PTR [ecx+eax*4+136]
  0000d	85 c9		 test	 ecx, ecx
  0000f	74 0d		 je	 SHORT $LN2@GetSubTab

; 142  : 		return m_aTabPages[nSubTabIdx]->GetDlgItem( IDC_SUBDLG_SETUP );

  00011	c7 45 08 f6 17
	00 00		 mov	 DWORD PTR _nSubTabIdx$[ebp], 6134 ; 000017f6H

; 145  : }

  00018	5d		 pop	 ebp

; 142  : 		return m_aTabPages[nSubTabIdx]->GetDlgItem( IDC_SUBDLG_SETUP );

  00019	e9 00 00 00 00	 jmp	 ?GetDlgItem@CWnd@@QBEPAV1@H@Z ; CWnd::GetDlgItem
$LN2@GetSubTab:

; 143  : 
; 144  : 	return NULL;

  0001e	33 c0		 xor	 eax, eax

; 145  : }

  00020	5d		 pop	 ebp
  00021	c2 04 00	 ret	 4
?GetSubTab@CTabSubIndicatorSetUpCtrl@@QAEPAVCWnd@@H@Z ENDP ; CTabSubIndicatorSetUpCtrl::GetSubTab
_TEXT	ENDS
; Function compile flags: /Ogtp
; File D:\git\src\IBK\IBK_DRFN\ProjSrc\SrcChartEx\ChartAddIn\ChartEnvSetupDlgAddIn\ChartEnvSetupDlgAddIn\TabSubIndicatorSetUpCtrl.cpp
; File C:\Program Files (x86)\Microsoft Visual Studio\2019\Community\VC\Tools\MSVC\14.29.30133\atlmfc\include\afxcmn.inl
; File D:\git\src\IBK\IBK_DRFN\ProjSrc\SrcChartEx\ChartAddIn\ChartEnvSetupDlgAddIn\ChartEnvSetupDlgAddIn\TabSubIndicatorSetUpCtrl.cpp
; File C:\Program Files (x86)\Microsoft Visual Studio\2019\Community\VC\Tools\MSVC\14.29.30133\atlmfc\include\afxcmn.inl
; File D:\git\src\IBK\IBK_DRFN\ProjSrc\SrcChartEx\ChartAddIn\ChartEnvSetupDlgAddIn\ChartEnvSetupDlgAddIn\TabSubIndicatorSetUpCtrl.cpp
; File C:\Program Files (x86)\Microsoft Visual Studio\2019\Community\VC\Tools\MSVC\14.29.30133\atlmfc\include\afx.inl
; File D:\git\src\IBK\IBK_DRFN\ProjSrc\SrcChartEx\ChartAddIn\ChartEnvSetupDlgAddIn\ChartEnvSetupDlgAddIn\TabSubIndicatorSetUpCtrl.cpp
; File C:\Program Files (x86)\Microsoft Visual Studio\2019\Community\VC\Tools\MSVC\14.29.30133\atlmfc\include\afx.inl
; File D:\git\src\IBK\IBK_DRFN\ProjSrc\SrcChartEx\ChartAddIn\ChartEnvSetupDlgAddIn\ChartEnvSetupDlgAddIn\TabSubIndicatorSetUpCtrl.cpp
; File C:\Program Files (x86)\Microsoft Visual Studio\2019\Community\VC\Tools\MSVC\14.29.30133\atlmfc\include\afx.inl
; File D:\git\src\IBK\IBK_DRFN\ProjSrc\SrcChartEx\ChartAddIn\ChartEnvSetupDlgAddIn\ChartEnvSetupDlgAddIn\TabSubIndicatorSetUpCtrl.cpp
; File C:\Program Files (x86)\Microsoft Visual Studio\2019\Community\VC\Tools\MSVC\14.29.30133\atlmfc\include\afxwin2.inl
; File C:\Program Files (x86)\Microsoft Visual Studio\2019\Community\VC\Tools\MSVC\14.29.30133\atlmfc\include\atltypes.h
; File C:\Program Files (x86)\Microsoft Visual Studio\2019\Community\VC\Tools\MSVC\14.29.30133\atlmfc\include\afxwin2.inl
; File C:\Program Files (x86)\Microsoft Visual Studio\2019\Community\VC\Tools\MSVC\14.29.30133\atlmfc\include\afxcmn.inl
; File D:\git\src\IBK\IBK_DRFN\ProjSrc\SrcChartEx\ChartAddIn\ChartEnvSetupDlgAddIn\ChartEnvSetupDlgAddIn\TabSubIndicatorSetUpCtrl.cpp
; File C:\Program Files (x86)\Microsoft Visual Studio\2019\Community\VC\Tools\MSVC\14.29.30133\atlmfc\include\afxcmn.inl
; File D:\git\src\IBK\IBK_DRFN\ProjSrc\SrcChartEx\ChartAddIn\ChartEnvSetupDlgAddIn\ChartEnvSetupDlgAddIn\TabSubIndicatorSetUpCtrl.cpp
;	COMDAT ?Init@CTabSubIndicatorSetUpCtrl@@QAEXPAUIChartOCX135914@@PAVCTabParentDlg@@@Z
_TEXT	SEGMENT
_nYc$1$ = -72						; size = 4
_nXc$1$ = -68						; size = 4
_nY$1$ = -64						; size = 4
_strSetting$ = -60					; size = 4
_strDescript$ = -56					; size = 4
_nX$1$ = -52						; size = 4
$T2 = -52						; size = 4
$T3 = -52						; size = 4
_tabRect$4 = -48					; size = 16
_itemRect$5 = -32					; size = 16
__$ArrayPad$ = -16					; size = 4
__$EHRec$ = -12						; size = 12
_p_pIChartOCX$ = 8					; size = 4
_pParentDlg$ = 12					; size = 4
?Init@CTabSubIndicatorSetUpCtrl@@QAEXPAUIChartOCX135914@@PAVCTabParentDlg@@@Z PROC ; CTabSubIndicatorSetUpCtrl::Init, COMDAT
; _this$ = ecx

; 92   : {

  00000	55		 push	 ebp
  00001	8b ec		 mov	 ebp, esp
  00003	6a ff		 push	 -1
  00005	68 00 00 00 00	 push	 __ehhandler$?Init@CTabSubIndicatorSetUpCtrl@@QAEXPAUIChartOCX135914@@PAVCTabParentDlg@@@Z
  0000a	64 a1 00 00 00
	00		 mov	 eax, DWORD PTR fs:0
  00010	50		 push	 eax
  00011	83 ec 3c	 sub	 esp, 60			; 0000003cH
  00014	a1 00 00 00 00	 mov	 eax, DWORD PTR ___security_cookie
  00019	33 c5		 xor	 eax, ebp
  0001b	89 45 f0	 mov	 DWORD PTR __$ArrayPad$[ebp], eax
  0001e	53		 push	 ebx
  0001f	56		 push	 esi
  00020	57		 push	 edi
  00021	50		 push	 eax
  00022	8d 45 f4	 lea	 eax, DWORD PTR __$EHRec$[ebp]
  00025	64 a3 00 00 00
	00		 mov	 DWORD PTR fs:0, eax
  0002b	8b f1		 mov	 esi, ecx

; 93   : 	// pParentDlg의 값을 확인한다.
; 94   : 	if( pParentDlg == NULL )

  0002d	8b 45 0c	 mov	 eax, DWORD PTR _pParentDlg$[ebp]
  00030	8b 7d 08	 mov	 edi, DWORD PTR _p_pIChartOCX$[ebp]
  00033	85 c0		 test	 eax, eax
  00035	0f 84 ce 01 00
	00		 je	 $LN1@Init

; 95   : 		return;
; 96   : 
; 97   : 	m_pParentDlg = pParentDlg;
; 98   : 
; 99   : 	// 현재에는 TabPage의 개수가 2개로 정해져 있다.
; 100  : // 2008.01.25 by LYH >>
; 101  : //	InsertItem( 0, _T("설정") );
; 102  : 	CString strSetting, strDescript;

  0003b	8d 4d c4	 lea	 ecx, DWORD PTR _strSetting$[ebp]
  0003e	89 86 94 00 00
	00		 mov	 DWORD PTR [esi+148], eax
  00044	ff 15 00 00 00
	00		 call	 DWORD PTR __imp_??0?$CStringT@DV?$StrTraitMFC_DLL@DV?$ChTraitsCRT@D@ATL@@@@@ATL@@QAE@XZ
  0004a	8d 4d c8	 lea	 ecx, DWORD PTR _strDescript$[ebp]
  0004d	c7 45 fc 00 00
	00 00		 mov	 DWORD PTR __$EHRec$[ebp+8], 0
  00054	ff 15 00 00 00
	00		 call	 DWORD PTR __imp_??0?$CStringT@DV?$StrTraitMFC_DLL@DV?$ChTraitsCRT@D@ATL@@@@@ATL@@QAE@XZ

; 103  : 	strSetting.LoadString(IDS_STRING_SETTING);

  0005a	6a 13		 push	 19			; 00000013H
  0005c	8d 4d c4	 lea	 ecx, DWORD PTR _strSetting$[ebp]
  0005f	c6 45 fc 01	 mov	 BYTE PTR __$EHRec$[ebp+8], 1
  00063	ff 15 00 00 00
	00		 call	 DWORD PTR __imp_?LoadStringA@?$CStringT@DV?$StrTraitMFC_DLL@DV?$ChTraitsCRT@D@ATL@@@@@ATL@@QAEHI@Z

; 104  : 	strDescript.LoadString(IDS_STRING_DESCRIPT);

  00069	6a 14		 push	 20			; 00000014H
  0006b	8d 4d c8	 lea	 ecx, DWORD PTR _strDescript$[ebp]
  0006e	ff 15 00 00 00
	00		 call	 DWORD PTR __imp_?LoadStringA@?$CStringT@DV?$StrTraitMFC_DLL@DV?$ChTraitsCRT@D@ATL@@@@@ATL@@QAEHI@Z
; File C:\Program Files (x86)\Microsoft Visual Studio\2019\Community\VC\Tools\MSVC\14.29.30133\atlmfc\include\afxcmn.inl

; 576  : 	{ ASSERT(::IsWindow(m_hWnd)); return CTabCtrl::InsertItem(TCIF_TEXT, nItem, lpszItem, 0, 0); }

  00074	6a 00		 push	 0
  00076	6a 00		 push	 0
  00078	ff 75 c4	 push	 DWORD PTR _strSetting$[ebp]
  0007b	8b ce		 mov	 ecx, esi
  0007d	6a 00		 push	 0
  0007f	6a 01		 push	 1
  00081	e8 00 00 00 00	 call	 ?InsertItem@CTabCtrl@@QAEJIHPBDHJ@Z ; CTabCtrl::InsertItem
; File D:\git\src\IBK\IBK_DRFN\ProjSrc\SrcChartEx\ChartAddIn\ChartEnvSetupDlgAddIn\ChartEnvSetupDlgAddIn\TabSubIndicatorSetUpCtrl.cpp

; 109  : 	int nVersion = GetAddInIVersion();

  00086	e8 00 00 00 00	 call	 _GetAddInIVersion
; File C:\Program Files (x86)\Microsoft Visual Studio\2019\Community\VC\Tools\MSVC\14.29.30133\atlmfc\include\afxcmn.inl

; 576  : 	{ ASSERT(::IsWindow(m_hWnd)); return CTabCtrl::InsertItem(TCIF_TEXT, nItem, lpszItem, 0, 0); }

  0008b	6a 00		 push	 0
  0008d	6a 00		 push	 0
  0008f	ff 75 c8	 push	 DWORD PTR _strDescript$[ebp]
  00092	8b ce		 mov	 ecx, esi
  00094	6a 01		 push	 1
  00096	6a 01		 push	 1
  00098	e8 00 00 00 00	 call	 ?InsertItem@CTabCtrl@@QAEJIHPBDHJ@Z ; CTabCtrl::InsertItem
; File D:\git\src\IBK\IBK_DRFN\ProjSrc\SrcChartEx\ChartAddIn\ChartEnvSetupDlgAddIn\ChartEnvSetupDlgAddIn\TabSubIndicatorSetUpCtrl.cpp

; 112  : 	m_nTotalTabPages = 2;

  0009d	c7 86 80 00 00
	00 02 00 00 00	 mov	 DWORD PTR [esi+128], 2

; 113  : 
; 114  : 	// Active되어야 되는 Tab Page의 Index를 저장한다.
; 115  : 	m_nCurTabPage = 0;

  000a7	c7 86 84 00 00
	00 00 00 00 00	 mov	 DWORD PTR [esi+132], 0
; File C:\Program Files (x86)\Microsoft Visual Studio\2019\Community\VC\Tools\MSVC\14.29.30133\atlmfc\include\afx.inl

; 116  : 	{ return ::operator new(nSize); }

  000b1	68 a8 00 00 00	 push	 168			; 000000a8H
; File D:\git\src\IBK\IBK_DRFN\ProjSrc\SrcChartEx\ChartAddIn\ChartEnvSetupDlgAddIn\ChartEnvSetupDlgAddIn\TabSubIndicatorSetUpCtrl.cpp

; 126  : 	m_aTabPages[0] = NULL;

  000b6	c7 86 88 00 00
	00 00 00 00 00	 mov	 DWORD PTR [esi+136], 0

; 127  : 	m_aTabPages[1] = NULL;

  000c0	c7 86 8c 00 00
	00 00 00 00 00	 mov	 DWORD PTR [esi+140], 0
; File C:\Program Files (x86)\Microsoft Visual Studio\2019\Community\VC\Tools\MSVC\14.29.30133\atlmfc\include\afx.inl

; 116  : 	{ return ::operator new(nSize); }

  000ca	e8 00 00 00 00	 call	 ??2@YAPAXI@Z		; operator new
  000cf	83 c4 04	 add	 esp, 4
; File D:\git\src\IBK\IBK_DRFN\ProjSrc\SrcChartEx\ChartAddIn\ChartEnvSetupDlgAddIn\ChartEnvSetupDlgAddIn\TabSubIndicatorSetUpCtrl.cpp

; 131  : 	m_aTabPages[0] = new CDialog( IDD_SUBTAB_PAGE_SETUP, this);

  000d2	89 45 cc	 mov	 DWORD PTR $T3[ebp], eax
  000d5	c6 45 fc 02	 mov	 BYTE PTR __$EHRec$[ebp+8], 2
  000d9	85 c0		 test	 eax, eax
  000db	74 11		 je	 SHORT $LN16@Init
  000dd	56		 push	 esi
  000de	68 41 1f 00 00	 push	 8001			; 00001f41H
  000e3	8b c8		 mov	 ecx, eax
  000e5	e8 00 00 00 00	 call	 ??0CDialog@@QAE@IPAVCWnd@@@Z ; CDialog::CDialog
  000ea	8b c8		 mov	 ecx, eax
  000ec	eb 02		 jmp	 SHORT $LN17@Init
$LN16@Init:
  000ee	33 c9		 xor	 ecx, ecx
$LN17@Init:
  000f0	89 8e 88 00 00
	00		 mov	 DWORD PTR [esi+136], ecx

; 132  : 	m_aTabPages[0]->Create(IDD_SUBTAB_PAGE_SETUP, this);

  000f6	8b 01		 mov	 eax, DWORD PTR [ecx]
  000f8	56		 push	 esi
  000f9	68 41 1f 00 00	 push	 8001			; 00001f41H
  000fe	c6 45 fc 01	 mov	 BYTE PTR __$EHRec$[ebp+8], 1
  00102	ff 90 6c 01 00
	00		 call	 DWORD PTR [eax+364]
; File C:\Program Files (x86)\Microsoft Visual Studio\2019\Community\VC\Tools\MSVC\14.29.30133\atlmfc\include\afx.inl

; 116  : 	{ return ::operator new(nSize); }

  00108	68 c0 00 00 00	 push	 192			; 000000c0H
  0010d	e8 00 00 00 00	 call	 ??2@YAPAXI@Z		; operator new
  00112	83 c4 04	 add	 esp, 4
; File D:\git\src\IBK\IBK_DRFN\ProjSrc\SrcChartEx\ChartAddIn\ChartEnvSetupDlgAddIn\ChartEnvSetupDlgAddIn\TabSubIndicatorSetUpCtrl.cpp

; 134  : 	m_aTabPages[1] = new CDlgSubTabIndicatorExp( p_pIChartOCX);

  00115	89 45 cc	 mov	 DWORD PTR $T2[ebp], eax
  00118	c6 45 fc 03	 mov	 BYTE PTR __$EHRec$[ebp+8], 3
  0011c	85 c0		 test	 eax, eax
  0011e	74 0e		 je	 SHORT $LN18@Init
  00120	6a 00		 push	 0
  00122	57		 push	 edi
  00123	8b c8		 mov	 ecx, eax
  00125	e8 00 00 00 00	 call	 ??0CDlgSubTabIndicatorExp@@QAE@PAUIChartOCX135914@@PAVCWnd@@@Z ; CDlgSubTabIndicatorExp::CDlgSubTabIndicatorExp
  0012a	8b c8		 mov	 ecx, eax
  0012c	eb 02		 jmp	 SHORT $LN19@Init
$LN18@Init:
  0012e	33 c9		 xor	 ecx, ecx
$LN19@Init:
  00130	89 8e 8c 00 00
	00		 mov	 DWORD PTR [esi+140], ecx

; 135  : 	m_aTabPages[1]->Create(IDD_SUBTAB_PAGE_EXP, this);

  00136	8b 01		 mov	 eax, DWORD PTR [ecx]
  00138	56		 push	 esi
  00139	6a 69		 push	 105			; 00000069H
  0013b	c6 45 fc 01	 mov	 BYTE PTR __$EHRec$[ebp+8], 1
  0013f	ff 90 6c 01 00
	00		 call	 DWORD PTR [eax+364]
; File C:\Program Files (x86)\Microsoft Visual Studio\2019\Community\VC\Tools\MSVC\14.29.30133\atlmfc\include\afxwin2.inl

; 86   : 	{ ASSERT(::IsWindow(m_hWnd)); ::GetClientRect(m_hWnd, lpRect); }

  00145	8d 45 d0	 lea	 eax, DWORD PTR _tabRect$4[ebp]
  00148	0f 57 c0	 xorps	 xmm0, xmm0
  0014b	50		 push	 eax
  0014c	ff 76 20	 push	 DWORD PTR [esi+32]
; File C:\Program Files (x86)\Microsoft Visual Studio\2019\Community\VC\Tools\MSVC\14.29.30133\atlmfc\include\atltypes.h

; 528  : 	left = 0;

  0014f	0f 11 45 d0	 movups	 XMMWORD PTR _tabRect$4[ebp], xmm0
  00153	0f 11 45 e0	 movups	 XMMWORD PTR _itemRect$5[ebp], xmm0
; File C:\Program Files (x86)\Microsoft Visual Studio\2019\Community\VC\Tools\MSVC\14.29.30133\atlmfc\include\afxwin2.inl

; 86   : 	{ ASSERT(::IsWindow(m_hWnd)); ::GetClientRect(m_hWnd, lpRect); }

  00157	ff 15 00 00 00
	00		 call	 DWORD PTR __imp__GetClientRect@8
; File C:\Program Files (x86)\Microsoft Visual Studio\2019\Community\VC\Tools\MSVC\14.29.30133\atlmfc\include\afxcmn.inl

; 584  : 	{ ASSERT(::IsWindow(m_hWnd)); return (BOOL)::SendMessage(m_hWnd, TCM_GETITEMRECT, nItem, (LPARAM)lpRect); }

  0015d	8d 45 e0	 lea	 eax, DWORD PTR _itemRect$5[ebp]
  00160	50		 push	 eax
  00161	6a 00		 push	 0
  00163	68 0a 13 00 00	 push	 4874			; 0000130aH
  00168	ff 76 20	 push	 DWORD PTR [esi+32]
  0016b	ff 15 00 00 00
	00		 call	 DWORD PTR __imp__SendMessageA@16
; File D:\git\src\IBK\IBK_DRFN\ProjSrc\SrcChartEx\ChartAddIn\ChartEnvSetupDlgAddIn\ChartEnvSetupDlgAddIn\TabSubIndicatorSetUpCtrl.cpp

; 162  : 	nY = itemRect.bottom + 1;

  00171	8b 5d ec	 mov	 ebx, DWORD PTR _itemRect$5[ebp+12]

; 163  : 	nXc = tabRect.right - itemRect.left - 1;
; 164  : 	nYc = tabRect.bottom - nY - 1;
; 165  : 
; 166  : 	for( int nCount = 0 ; nCount < m_nTotalTabPages ; nCount++ )

  00174	33 ff		 xor	 edi, edi
  00176	8b 55 e0	 mov	 edx, DWORD PTR _itemRect$5[ebp]
  00179	43		 inc	 ebx
  0017a	8b 45 d8	 mov	 eax, DWORD PTR _tabRect$4[ebp+8]
  0017d	8b 4d dc	 mov	 ecx, DWORD PTR _tabRect$4[ebp+12]
  00180	2b c2		 sub	 eax, edx
  00182	2b cb		 sub	 ecx, ebx
  00184	89 55 cc	 mov	 DWORD PTR _nX$1$[ebp], edx
  00187	48		 dec	 eax
  00188	89 5d c0	 mov	 DWORD PTR _nY$1$[ebp], ebx
  0018b	49		 dec	 ecx
  0018c	89 45 bc	 mov	 DWORD PTR _nXc$1$[ebp], eax
  0018f	89 4d b8	 mov	 DWORD PTR _nYc$1$[ebp], ecx
  00192	39 be 80 00 00
	00		 cmp	 DWORD PTR [esi+128], edi
  00198	7e 5d		 jle	 SHORT $LN28@Init

; 134  : 	m_aTabPages[1] = new CDlgSubTabIndicatorExp( p_pIChartOCX);

  0019a	bb 88 00 00 00	 mov	 ebx, 136		; 00000088H
  0019f	90		 npad	 1
$LL29@Init:

; 168  : 		if( nCount == m_nCurTabPage )

  001a0	3b be 84 00 00
	00		 cmp	 edi, DWORD PTR [esi+132]
  001a6	75 21		 jne	 SHORT $LN30@Init
; File C:\Program Files (x86)\Microsoft Visual Studio\2019\Community\VC\Tools\MSVC\14.29.30133\atlmfc\include\afxcmn.inl

; 588  : 	{ ASSERT(::IsWindow(m_hWnd)); return (int)::SendMessage(m_hWnd, TCM_SETCURSEL, nItem, 0L); }

  001a8	6a 00		 push	 0
  001aa	57		 push	 edi
  001ab	68 0c 13 00 00	 push	 4876			; 0000130cH
  001b0	ff 76 20	 push	 DWORD PTR [esi+32]
  001b3	ff 15 00 00 00
	00		 call	 DWORD PTR __imp__SendMessageA@16
; File D:\git\src\IBK\IBK_DRFN\ProjSrc\SrcChartEx\ChartAddIn\ChartEnvSetupDlgAddIn\ChartEnvSetupDlgAddIn\TabSubIndicatorSetUpCtrl.cpp

; 171  : 			m_aTabPages[nCount]->SetWindowPos( &wndTop, nX, nY, nXc, nYc, SWP_SHOWWINDOW );

  001b9	6a 40		 push	 64			; 00000040H
  001bb	ff 75 b8	 push	 DWORD PTR _nYc$1$[ebp]
  001be	ff 75 bc	 push	 DWORD PTR _nXc$1$[ebp]
  001c1	ff 75 c0	 push	 DWORD PTR _nY$1$[ebp]
  001c4	ff 75 cc	 push	 DWORD PTR _nX$1$[ebp]

; 172  : 		}

  001c7	eb 0b		 jmp	 SHORT $LN48@Init
$LN30@Init:

; 173  : 
; 174  : 		else
; 175  : 			m_aTabPages[nCount]->SetWindowPos( &wndTop, nX, nY, nXc, nYc, SWP_HIDEWINDOW );

  001c9	68 80 00 00 00	 push	 128			; 00000080H
  001ce	51		 push	 ecx
  001cf	50		 push	 eax
  001d0	ff 75 c0	 push	 DWORD PTR _nY$1$[ebp]
  001d3	52		 push	 edx
$LN48@Init:

; 163  : 	nXc = tabRect.right - itemRect.left - 1;
; 164  : 	nYc = tabRect.bottom - nY - 1;
; 165  : 
; 166  : 	for( int nCount = 0 ; nCount < m_nTotalTabPages ; nCount++ )

  001d4	ff 35 00 00 00
	00		 push	 DWORD PTR __imp_?wndTop@CWnd@@2V1@B
  001da	8b 0c 33	 mov	 ecx, DWORD PTR [ebx+esi]
  001dd	e8 00 00 00 00	 call	 ?SetWindowPos@CWnd@@QAEHPBV1@HHHHI@Z ; CWnd::SetWindowPos
  001e2	8b 45 bc	 mov	 eax, DWORD PTR _nXc$1$[ebp]
  001e5	47		 inc	 edi
  001e6	8b 4d b8	 mov	 ecx, DWORD PTR _nYc$1$[ebp]
  001e9	83 c3 04	 add	 ebx, 4
  001ec	8b 55 cc	 mov	 edx, DWORD PTR _nX$1$[ebp]
  001ef	3b be 80 00 00
	00		 cmp	 edi, DWORD PTR [esi+128]
  001f5	7c a9		 jl	 SHORT $LL29@Init
$LN28@Init:

; 116  : 
; 117  : 	// Tab Page를 생성한다.
; 118  : 	CreateTabPage( p_pIChartOCX);
; 119  : 	SetTabPagePosition();
; 120  : }

  001f7	8d 4d c8	 lea	 ecx, DWORD PTR _strDescript$[ebp]
  001fa	ff 15 00 00 00
	00		 call	 DWORD PTR __imp_??1?$CStringT@DV?$StrTraitMFC_DLL@DV?$ChTraitsCRT@D@ATL@@@@@ATL@@QAE@XZ
  00200	8d 4d c4	 lea	 ecx, DWORD PTR _strSetting$[ebp]
  00203	ff 15 00 00 00
	00		 call	 DWORD PTR __imp_??1?$CStringT@DV?$StrTraitMFC_DLL@DV?$ChTraitsCRT@D@ATL@@@@@ATL@@QAE@XZ
$LN1@Init:
  00209	8b 4d f4	 mov	 ecx, DWORD PTR __$EHRec$[ebp]
  0020c	64 89 0d 00 00
	00 00		 mov	 DWORD PTR fs:0, ecx
  00213	59		 pop	 ecx
  00214	5f		 pop	 edi
  00215	5e		 pop	 esi
  00216	5b		 pop	 ebx
  00217	8b 4d f0	 mov	 ecx, DWORD PTR __$ArrayPad$[ebp]
  0021a	33 cd		 xor	 ecx, ebp
  0021c	e8 00 00 00 00	 call	 @__security_check_cookie@4
  00221	8b e5		 mov	 esp, ebp
  00223	5d		 pop	 ebp
  00224	c2 08 00	 ret	 8
_TEXT	ENDS
;	COMDAT text$x
text$x	SEGMENT
__unwindfunclet$?Init@CTabSubIndicatorSetUpCtrl@@QAEXPAUIChartOCX135914@@PAVCTabParentDlg@@@Z$0:
  00000	8d 4d c4	 lea	 ecx, DWORD PTR _strSetting$[ebp]
  00003	ff 25 00 00 00
	00		 jmp	 DWORD PTR __imp_??1?$CStringT@DV?$StrTraitMFC_DLL@DV?$ChTraitsCRT@D@ATL@@@@@ATL@@QAE@XZ
__unwindfunclet$?Init@CTabSubIndicatorSetUpCtrl@@QAEXPAUIChartOCX135914@@PAVCTabParentDlg@@@Z$1:
  00009	8d 4d c8	 lea	 ecx, DWORD PTR _strDescript$[ebp]
  0000c	ff 25 00 00 00
	00		 jmp	 DWORD PTR __imp_??1?$CStringT@DV?$StrTraitMFC_DLL@DV?$ChTraitsCRT@D@ATL@@@@@ATL@@QAE@XZ
__unwindfunclet$?Init@CTabSubIndicatorSetUpCtrl@@QAEXPAUIChartOCX135914@@PAVCTabParentDlg@@@Z$2:
  00012	8b 45 cc	 mov	 eax, DWORD PTR $T3[ebp]
  00015	50		 push	 eax
  00016	e8 00 00 00 00	 call	 ??3CObject@@SGXPAX@Z	; CObject::operator delete
  0001b	c3		 ret	 0
__unwindfunclet$?Init@CTabSubIndicatorSetUpCtrl@@QAEXPAUIChartOCX135914@@PAVCTabParentDlg@@@Z$3:
  0001c	8b 45 cc	 mov	 eax, DWORD PTR $T2[ebp]
  0001f	50		 push	 eax
  00020	e8 00 00 00 00	 call	 ??3CObject@@SGXPAX@Z	; CObject::operator delete
  00025	c3		 ret	 0
  00026	cc		 int	 3
  00027	cc		 int	 3
  00028	cc		 int	 3
  00029	cc		 int	 3
  0002a	cc		 int	 3
__ehhandler$?Init@CTabSubIndicatorSetUpCtrl@@QAEXPAUIChartOCX135914@@PAVCTabParentDlg@@@Z:
  0002b	90		 npad	 1
  0002c	90		 npad	 1
  0002d	8b 54 24 08	 mov	 edx, DWORD PTR [esp+8]
  00031	8d 42 0c	 lea	 eax, DWORD PTR [edx+12]
  00034	8b 4a b4	 mov	 ecx, DWORD PTR [edx-76]
  00037	33 c8		 xor	 ecx, eax
  00039	e8 00 00 00 00	 call	 @__security_check_cookie@4
  0003e	8b 4a fc	 mov	 ecx, DWORD PTR [edx-4]
  00041	33 c8		 xor	 ecx, eax
  00043	e8 00 00 00 00	 call	 @__security_check_cookie@4
  00048	b8 00 00 00 00	 mov	 eax, OFFSET __ehfuncinfo$?Init@CTabSubIndicatorSetUpCtrl@@QAEXPAUIChartOCX135914@@PAVCTabParentDlg@@@Z
  0004d	e9 00 00 00 00	 jmp	 ___CxxFrameHandler3
text$x	ENDS
?Init@CTabSubIndicatorSetUpCtrl@@QAEXPAUIChartOCX135914@@PAVCTabParentDlg@@@Z ENDP ; CTabSubIndicatorSetUpCtrl::Init
; Function compile flags: /Ogtp
; File D:\git\src\IBK\IBK_DRFN\ProjSrc\SrcChartEx\ChartAddIn\ChartEnvSetupDlgAddIn\ChartEnvSetupDlgAddIn\TabSubIndicatorSetUpCtrl.cpp
;	COMDAT ??1CTabSubIndicatorSetUpCtrl@@UAE@XZ
_TEXT	SEGMENT
__$EHRec$ = -12						; size = 12
??1CTabSubIndicatorSetUpCtrl@@UAE@XZ PROC		; CTabSubIndicatorSetUpCtrl::~CTabSubIndicatorSetUpCtrl, COMDAT
; _this$ = ecx

; 31   : {

  00000	55		 push	 ebp
  00001	8b ec		 mov	 ebp, esp
  00003	6a ff		 push	 -1
  00005	68 00 00 00 00	 push	 __ehhandler$??1CTabSubIndicatorSetUpCtrl@@UAE@XZ
  0000a	64 a1 00 00 00
	00		 mov	 eax, DWORD PTR fs:0
  00010	50		 push	 eax
  00011	53		 push	 ebx
  00012	56		 push	 esi
  00013	57		 push	 edi
  00014	a1 00 00 00 00	 mov	 eax, DWORD PTR ___security_cookie
  00019	33 c5		 xor	 eax, ebp
  0001b	50		 push	 eax
  0001c	8d 45 f4	 lea	 eax, DWORD PTR __$EHRec$[ebp]
  0001f	64 a3 00 00 00
	00		 mov	 DWORD PTR fs:0, eax
  00025	8b d9		 mov	 ebx, ecx

; 32   : 	for( int nCount = 0 ; nCount < m_nTotalTabPages ; nCount++ )

  00027	33 ff		 xor	 edi, edi
  00029	c7 03 00 00 00
	00		 mov	 DWORD PTR [ebx], OFFSET ??_7CTabSubIndicatorSetUpCtrl@@6B@
  0002f	39 bb 80 00 00
	00		 cmp	 DWORD PTR [ebx+128], edi
  00035	7e 2d		 jle	 SHORT $LN3@CTabSubInd
  00037	8d b3 88 00 00
	00		 lea	 esi, DWORD PTR [ebx+136]
  0003d	0f 1f 00	 npad	 3
$LL4@CTabSubInd:

; 33   : 	{
; 34   : 		if( m_aTabPages[nCount] != NULL)

  00040	8b 0e		 mov	 ecx, DWORD PTR [esi]
  00042	85 c9		 test	 ecx, ecx
  00044	74 12		 je	 SHORT $LN2@CTabSubInd

; 35   : 		{
; 36   : 			m_aTabPages[nCount]->DestroyWindow();

  00046	8b 01		 mov	 eax, DWORD PTR [ecx]
  00048	ff 50 68	 call	 DWORD PTR [eax+104]

; 37   : 			delete m_aTabPages[nCount];

  0004b	8b 0e		 mov	 ecx, DWORD PTR [esi]
  0004d	85 c9		 test	 ecx, ecx
  0004f	74 07		 je	 SHORT $LN2@CTabSubInd
  00051	8b 01		 mov	 eax, DWORD PTR [ecx]
  00053	6a 01		 push	 1
  00055	ff 50 04	 call	 DWORD PTR [eax+4]
$LN2@CTabSubInd:

; 32   : 	for( int nCount = 0 ; nCount < m_nTotalTabPages ; nCount++ )

  00058	47		 inc	 edi
  00059	83 c6 04	 add	 esi, 4
  0005c	3b bb 80 00 00
	00		 cmp	 edi, DWORD PTR [ebx+128]
  00062	7c dc		 jl	 SHORT $LL4@CTabSubInd
$LN3@CTabSubInd:

; 38   : 		}
; 39   : 	}
; 40   : }

  00064	8d 8b 90 00 00
	00		 lea	 ecx, DWORD PTR [ebx+144]
  0006a	ff 15 00 00 00
	00		 call	 DWORD PTR __imp_??1?$CStringT@DV?$StrTraitMFC_DLL@DV?$ChTraitsCRT@D@ATL@@@@@ATL@@QAE@XZ
  00070	8b cb		 mov	 ecx, ebx
  00072	e8 00 00 00 00	 call	 ??1CTabCtrl@@UAE@XZ	; CTabCtrl::~CTabCtrl
  00077	8b 4d f4	 mov	 ecx, DWORD PTR __$EHRec$[ebp]
  0007a	64 89 0d 00 00
	00 00		 mov	 DWORD PTR fs:0, ecx
  00081	59		 pop	 ecx
  00082	5f		 pop	 edi
  00083	5e		 pop	 esi
  00084	5b		 pop	 ebx
  00085	8b e5		 mov	 esp, ebp
  00087	5d		 pop	 ebp
  00088	c3		 ret	 0
  00089	cc		 int	 3
  0008a	cc		 int	 3
  0008b	cc		 int	 3
  0008c	cc		 int	 3
  0008d	cc		 int	 3
_TEXT	ENDS
;	COMDAT text$x
text$x	SEGMENT
__ehhandler$??1CTabSubIndicatorSetUpCtrl@@UAE@XZ:
  00000	90		 npad	 1
  00001	90		 npad	 1
  00002	8b 54 24 08	 mov	 edx, DWORD PTR [esp+8]
  00006	8d 42 0c	 lea	 eax, DWORD PTR [edx+12]
  00009	8b 4a f0	 mov	 ecx, DWORD PTR [edx-16]
  0000c	33 c8		 xor	 ecx, eax
  0000e	e8 00 00 00 00	 call	 @__security_check_cookie@4
  00013	b8 00 00 00 00	 mov	 eax, OFFSET __ehfuncinfo$??1CTabSubIndicatorSetUpCtrl@@UAE@XZ
  00018	e9 00 00 00 00	 jmp	 ___CxxFrameHandler3
text$x	ENDS
??1CTabSubIndicatorSetUpCtrl@@UAE@XZ ENDP		; CTabSubIndicatorSetUpCtrl::~CTabSubIndicatorSetUpCtrl
; Function compile flags: /Ogtp
; File D:\git\src\IBK\IBK_DRFN\ProjSrc\SrcChartEx\ChartAddIn\ChartEnvSetupDlgAddIn\ChartEnvSetupDlgAddIn\TabSubIndicatorSetUpCtrl.cpp
;	COMDAT ?PreTranslateMessage@CTabSubIndicatorSetUpCtrl@@UAEHPAUtagMSG@@@Z
_TEXT	SEGMENT
_pMsg$ = 8						; size = 4
?PreTranslateMessage@CTabSubIndicatorSetUpCtrl@@UAEHPAUtagMSG@@@Z PROC ; CTabSubIndicatorSetUpCtrl::PreTranslateMessage, COMDAT
; _this$ = ecx

; 200  : {

  00000	55		 push	 ebp
  00001	8b ec		 mov	 ebp, esp
  00003	56		 push	 esi

; 201  : 	// TODO: Add your specialized code here and/or call the base class
; 202  : 	if(pMsg->message == WM_KEYDOWN)

  00004	8b 75 08	 mov	 esi, DWORD PTR _pMsg$[ebp]
  00007	57		 push	 edi
  00008	8b f9		 mov	 edi, ecx
  0000a	81 7e 04 00 01
	00 00		 cmp	 DWORD PTR [esi+4], 256	; 00000100H
  00011	75 3a		 jne	 SHORT $LN6@PreTransla

; 203  : 	{
; 204  : 		if(pMsg->wParam == VK_RETURN)

  00013	8b 46 08	 mov	 eax, DWORD PTR [esi+8]
  00016	83 f8 0d	 cmp	 eax, 13			; 0000000dH
  00019	75 18		 jne	 SHORT $LN4@PreTransla

; 205  : 		{
; 206  : 			if( m_pParentDlg != NULL )

  0001b	8b 8f 94 00 00
	00		 mov	 ecx, DWORD PTR [edi+148]
  00021	85 c9		 test	 ecx, ecx
  00023	74 28		 je	 SHORT $LN6@PreTransla

; 207  : 			{
; 208  : 				((CDlgMainTabIndicatorSetUp *)m_pParentDlg)->OK();

  00025	81 c1 58 ff ff
	ff		 add	 ecx, -168		; ffffff58H
  0002b	e8 00 00 00 00	 call	 ?OK@CDlgMainTabIndicatorSetUp@@QAEXXZ ; CDlgMainTabIndicatorSetUp::OK
  00030	8b 46 08	 mov	 eax, DWORD PTR [esi+8]
$LN4@PreTransla:

; 209  : 			}
; 210  : 		}
; 211  : 		
; 212  : 		if( pMsg->wParam == VK_ESCAPE )

  00033	83 f8 1b	 cmp	 eax, 27			; 0000001bH
  00036	75 15		 jne	 SHORT $LN6@PreTransla

; 213  : 		{
; 214  : 			if( m_pParentDlg != NULL )

  00038	8b 8f 94 00 00
	00		 mov	 ecx, DWORD PTR [edi+148]
  0003e	85 c9		 test	 ecx, ecx
  00040	74 0b		 je	 SHORT $LN6@PreTransla

; 215  : 			{
; 216  : 				((CDlgMainTabIndicatorSetUp *)m_pParentDlg)->Cancel();

  00042	81 c1 58 ff ff
	ff		 add	 ecx, -168		; ffffff58H
  00048	e8 00 00 00 00	 call	 ?Cancel@CDlgMainTabIndicatorSetUp@@QAEXXZ ; CDlgMainTabIndicatorSetUp::Cancel
$LN6@PreTransla:

; 217  : 			}
; 218  : 		}
; 219  : 	}
; 220  : 	
; 221  : 	return CTabCtrl::PreTranslateMessage(pMsg);

  0004d	56		 push	 esi
  0004e	8b cf		 mov	 ecx, edi
  00050	e8 00 00 00 00	 call	 ?PreTranslateMessage@CWnd@@UAEHPAUtagMSG@@@Z ; CWnd::PreTranslateMessage
  00055	5f		 pop	 edi
  00056	5e		 pop	 esi

; 222  : }

  00057	5d		 pop	 ebp
  00058	c2 04 00	 ret	 4
?PreTranslateMessage@CTabSubIndicatorSetUpCtrl@@UAEHPAUtagMSG@@@Z ENDP ; CTabSubIndicatorSetUpCtrl::PreTranslateMessage
_TEXT	ENDS
; Function compile flags: /Ogtp
; File D:\git\src\IBK\IBK_DRFN\ProjSrc\SrcChartEx\ChartAddIn\ChartEnvSetupDlgAddIn\ChartEnvSetupDlgAddIn\TabSubIndicatorSetUpCtrl.cpp
; File C:\Program Files (x86)\Microsoft Visual Studio\2019\Community\VC\Tools\MSVC\14.29.30133\atlmfc\include\afxcmn.inl
; File D:\git\src\IBK\IBK_DRFN\ProjSrc\SrcChartEx\ChartAddIn\ChartEnvSetupDlgAddIn\ChartEnvSetupDlgAddIn\TabSubIndicatorSetUpCtrl.cpp
;	COMDAT ??0CTabSubIndicatorSetUpCtrl@@QAE@XZ
_TEXT	SEGMENT
_this$ = -4						; size = 4
??0CTabSubIndicatorSetUpCtrl@@QAE@XZ PROC		; CTabSubIndicatorSetUpCtrl::CTabSubIndicatorSetUpCtrl, COMDAT
; _this$ = ecx

; 25   : {

  00000	55		 push	 ebp
  00001	8b ec		 mov	 ebp, esp
  00003	51		 push	 ecx
  00004	56		 push	 esi
  00005	8b f1		 mov	 esi, ecx
  00007	89 75 fc	 mov	 DWORD PTR _this$[ebp], esi
; File C:\Program Files (x86)\Microsoft Visual Studio\2019\Community\VC\Tools\MSVC\14.29.30133\atlmfc\include\afxcmn.inl

; 558  : 	{ }

  0000a	e8 00 00 00 00	 call	 ??0CWnd@@QAE@XZ		; CWnd::CWnd
; File D:\git\src\IBK\IBK_DRFN\ProjSrc\SrcChartEx\ChartAddIn\ChartEnvSetupDlgAddIn\ChartEnvSetupDlgAddIn\TabSubIndicatorSetUpCtrl.cpp

; 25   : {

  0000f	8d 8e 90 00 00
	00		 lea	 ecx, DWORD PTR [esi+144]
  00015	c7 06 00 00 00
	00		 mov	 DWORD PTR [esi], OFFSET ??_7CTabSubIndicatorSetUpCtrl@@6B@
  0001b	ff 15 00 00 00
	00		 call	 DWORD PTR __imp_??0?$CStringT@DV?$StrTraitMFC_DLL@DV?$ChTraitsCRT@D@ATL@@@@@ATL@@QAE@XZ

; 26   : 	m_pParentDlg = NULL;

  00021	c7 86 94 00 00
	00 00 00 00 00	 mov	 DWORD PTR [esi+148], 0

; 27   : }

  0002b	8b c6		 mov	 eax, esi
  0002d	5e		 pop	 esi
  0002e	8b e5		 mov	 esp, ebp
  00030	5d		 pop	 ebp
  00031	c3		 ret	 0
??0CTabSubIndicatorSetUpCtrl@@QAE@XZ ENDP		; CTabSubIndicatorSetUpCtrl::CTabSubIndicatorSetUpCtrl
_TEXT	ENDS
; Function compile flags: /Ogtp
; File C:\Program Files (x86)\Microsoft Visual Studio\2019\Community\VC\Tools\MSVC\14.29.30133\atlmfc\include\afx.inl
;	COMDAT ??_GCTabCtrl@@UAEPAXI@Z
_TEXT	SEGMENT
___flags$ = 8						; size = 4
??_GCTabCtrl@@UAEPAXI@Z PROC				; CTabCtrl::`scalar deleting destructor', COMDAT
; _this$ = ecx
  00000	55		 push	 ebp
  00001	8b ec		 mov	 ebp, esp
  00003	56		 push	 esi
  00004	8b f1		 mov	 esi, ecx
  00006	e8 00 00 00 00	 call	 ??1CTabCtrl@@UAE@XZ	; CTabCtrl::~CTabCtrl
  0000b	8b 45 08	 mov	 eax, DWORD PTR ___flags$[ebp]
  0000e	a8 01		 test	 al, 1
  00010	74 22		 je	 SHORT $LN9@scalar
  00012	a8 04		 test	 al, 4
  00014	75 10		 jne	 SHORT $LN3@scalar

; 112  : 	{ ::operator delete(p); }

  00016	56		 push	 esi
  00017	e8 00 00 00 00	 call	 ??3@YAXPAX@Z		; operator delete
  0001c	83 c4 04	 add	 esp, 4
  0001f	8b c6		 mov	 eax, esi
  00021	5e		 pop	 esi
  00022	5d		 pop	 ebp
  00023	c2 04 00	 ret	 4
$LN3@scalar:
  00026	68 80 00 00 00	 push	 128			; 00000080H
  0002b	56		 push	 esi
  0002c	e8 00 00 00 00	 call	 ?__global_delete@@YAXPAXI@Z ; __global_delete
  00031	83 c4 08	 add	 esp, 8
$LN9@scalar:
  00034	8b c6		 mov	 eax, esi
  00036	5e		 pop	 esi
  00037	5d		 pop	 ebp
  00038	c2 04 00	 ret	 4
??_GCTabCtrl@@UAEPAXI@Z ENDP				; CTabCtrl::`scalar deleting destructor'
_TEXT	ENDS
; Function compile flags: /Ogtp
; File C:\Program Files (x86)\Microsoft Visual Studio\2019\Community\VC\Tools\MSVC\14.29.30133\atlmfc\include\afxwin2.inl
;	COMDAT ?EndModalState@CWnd@@UAEXXZ
_TEXT	SEGMENT
?EndModalState@CWnd@@UAEXXZ PROC			; CWnd::EndModalState, COMDAT
; _this$ = ecx

; 567  : 	{ ::EnableWindow(m_hWnd, TRUE); }

  00000	6a 01		 push	 1
  00002	ff 71 20	 push	 DWORD PTR [ecx+32]
  00005	ff 15 00 00 00
	00		 call	 DWORD PTR __imp__EnableWindow@8
  0000b	c3		 ret	 0
?EndModalState@CWnd@@UAEXXZ ENDP			; CWnd::EndModalState
_TEXT	ENDS
; Function compile flags: /Ogtp
; File C:\Program Files (x86)\Microsoft Visual Studio\2019\Community\VC\Tools\MSVC\14.29.30133\atlmfc\include\afxwin2.inl
;	COMDAT ?BeginModalState@CWnd@@UAEXXZ
_TEXT	SEGMENT
?BeginModalState@CWnd@@UAEXXZ PROC			; CWnd::BeginModalState, COMDAT
; _this$ = ecx

; 565  : 	{ ::EnableWindow(m_hWnd, FALSE); }

  00000	6a 00		 push	 0
  00002	ff 71 20	 push	 DWORD PTR [ecx+32]
  00005	ff 15 00 00 00
	00		 call	 DWORD PTR __imp__EnableWindow@8
  0000b	c3		 ret	 0
?BeginModalState@CWnd@@UAEXXZ ENDP			; CWnd::BeginModalState
_TEXT	ENDS
; Function compile flags: /Ogtp
; File C:\Program Files (x86)\Microsoft Visual Studio\2019\Community\VC\Tools\MSVC\14.29.30133\atlmfc\include\afxwin2.inl
;	COMDAT ?DoDataExchange@CWnd@@MAEXPAVCDataExchange@@@Z
_TEXT	SEGMENT
___formal$ = 8						; size = 4
?DoDataExchange@CWnd@@MAEXPAVCDataExchange@@@Z PROC	; CWnd::DoDataExchange, COMDAT
; _this$ = ecx

; 561  : 	{ } // default does nothing

  00000	c2 04 00	 ret	 4
?DoDataExchange@CWnd@@MAEXPAVCDataExchange@@@Z ENDP	; CWnd::DoDataExchange
_TEXT	ENDS
; Function compile flags: /Ogtp
; File C:\Program Files (x86)\Microsoft Visual Studio\2019\Community\VC\Tools\MSVC\14.29.30133\atlmfc\include\afx.inl
;	COMDAT ?Dump@CObject@@UBEXAAVCDumpContext@@@Z
_TEXT	SEGMENT
___formal$ = 8						; size = 4
?Dump@CObject@@UBEXAAVCDumpContext@@@Z PROC		; CObject::Dump, COMDAT
; _this$ = ecx

; 122  : 	{ /* no dumping in release builds */ }

  00000	c2 04 00	 ret	 4
?Dump@CObject@@UBEXAAVCDumpContext@@@Z ENDP		; CObject::Dump
_TEXT	ENDS
; Function compile flags: /Ogtp
; File C:\Program Files (x86)\Microsoft Visual Studio\2019\Community\VC\Tools\MSVC\14.29.30133\atlmfc\include\afx.inl
;	COMDAT ?AssertValid@CObject@@UBEXXZ
_TEXT	SEGMENT
?AssertValid@CObject@@UBEXXZ PROC			; CObject::AssertValid, COMDAT
; _this$ = ecx

; 120  : 	{ /* no asserts in release builds */ }

  00000	c2 00 00	 ret	 0
?AssertValid@CObject@@UBEXXZ ENDP			; CObject::AssertValid
_TEXT	ENDS
; Function compile flags: /Ogtp
; File C:\Program Files (x86)\Microsoft Visual Studio\2019\Community\VC\Tools\MSVC\14.29.30133\atlmfc\include\afx.inl
;	COMDAT ?Serialize@CObject@@UAEXAAVCArchive@@@Z
_TEXT	SEGMENT
___formal$ = 8						; size = 4
?Serialize@CObject@@UAEXAAVCArchive@@@Z PROC		; CObject::Serialize, COMDAT
; _this$ = ecx

; 106  : 	{ /* CObject does not serialize anything by default */ }

  00000	c2 04 00	 ret	 4
?Serialize@CObject@@UAEXAAVCArchive@@@Z ENDP		; CObject::Serialize
_TEXT	ENDS
; Function compile flags: /Ogtp
; File C:\Program Files (x86)\Microsoft Visual Studio\2019\Community\VC\Tools\MSVC\14.29.30133\atlmfc\include\afx.inl
;	COMDAT ??3CObject@@SGXPAX@Z
_TEXT	SEGMENT
_p$ = 8							; size = 4
??3CObject@@SGXPAX@Z PROC				; CObject::operator delete, COMDAT

; 112  : 	{ ::operator delete(p); }

  00000	55		 push	 ebp
  00001	8b ec		 mov	 ebp, esp
  00003	ff 75 08	 push	 DWORD PTR _p$[ebp]
  00006	e8 00 00 00 00	 call	 ??3@YAXPAX@Z		; operator delete
  0000b	83 c4 04	 add	 esp, 4
  0000e	5d		 pop	 ebp
  0000f	c2 04 00	 ret	 4
??3CObject@@SGXPAX@Z ENDP				; CObject::operator delete
_TEXT	ENDS
; Function compile flags: /Ogtp
; File D:\git\src\IBK\IBK_DRFN\ProjSrc\SrcChartEx\ChartAddIn\ChartEnvSetupDlgAddIn\ChartEnvSetupDlgAddIn\TabSubIndicatorSetUpCtrl.cpp
;	COMDAT ?__empty_global_delete@@YAXPAXI@Z
_TEXT	SEGMENT
___formal$ = 8						; size = 4
___formal$ = 12						; size = 4
?__empty_global_delete@@YAXPAXI@Z PROC			; __empty_global_delete, COMDAT

  00000	c2 00 00	 ret	 0
?__empty_global_delete@@YAXPAXI@Z ENDP			; __empty_global_delete
_TEXT	ENDS
; Function compile flags: /Ogtp
; File D:\git\src\IBK\IBK_DRFN\ProjSrc\SrcChartEx\ChartAddIn\ChartEnvSetupDlgAddIn\ChartEnvSetupDlgAddIn\TabSubIndicatorSetUpCtrl.cpp
;	COMDAT ?__empty_global_delete@@YAXPAX@Z
_TEXT	SEGMENT
___formal$ = 8						; size = 4
?__empty_global_delete@@YAXPAX@Z PROC			; __empty_global_delete, COMDAT

  00000	c2 00 00	 ret	 0
?__empty_global_delete@@YAXPAX@Z ENDP			; __empty_global_delete
_TEXT	ENDS
END
