; Listing generated by Microsoft (R) Optimizing Compiler Version 19.29.30145.0 

	TITLE	D:\git\src\IBK\IBK_DRFN\#DRfn-CS\_Obj\ChartToolBar\ButtonProperty.obj
	.686P
	.XMM
	include listing.inc
	.model	flat

INCLUDELIB MSVCRT
INCLUDELIB OLDNAMES

PUBLIC	?__empty_global_delete@@YAXPAX@Z		; __empty_global_delete
PUBLIC	?__empty_global_delete@@YAXPAXI@Z		; __empty_global_delete
PUBLIC	??0CButtonProperty@@QAE@PAVCWnd@@PAV?$CList@PAVCButtonEx@@PAV1@@@@Z ; CButtonProperty::CButtonProperty
PUBLIC	??1CButtonProperty@@UAE@XZ			; CButtonProperty::~CButtonProperty
PUBLIC	?ReleaseOtherButtonUI@CButtonProperty@@QAEHW4TOOLOPTION@CToolOptionInfo@@ABV?$CStringT@DV?$StrTraitMFC_DLL@DV?$ChTraitsCRT@D@ATL@@@@@ATL@@@Z ; CButtonProperty::ReleaseOtherButtonUI
PUBLIC	?ReleaseCaseZoom@CButtonProperty@@AAEXW4TOOLOPTION@CToolOptionInfo@@ABV?$CStringT@DV?$StrTraitMFC_DLL@DV?$ChTraitsCRT@D@ATL@@@@@ATL@@@Z ; CButtonProperty::ReleaseCaseZoom
PUBLIC	?ReleaseCaseSpecialChart@CButtonProperty@@AAEXW4TOOLOPTION@CToolOptionInfo@@@Z ; CButtonProperty::ReleaseCaseSpecialChart
PUBLIC	?ReleaseCaseDefault@CButtonProperty@@AAEXW4TOOLOPTION@CToolOptionInfo@@@Z ; CButtonProperty::ReleaseCaseDefault
PUBLIC	?ReleaseToolOption@CButtonProperty@@AAEXW4TOOLOPTION@CToolOptionInfo@@@Z ; CButtonProperty::ReleaseToolOption
PUBLIC	?IsModalessDialog@CButtonProperty@@AAE_NW4TOOLOPTION@CToolOptionInfo@@@Z ; CButtonProperty::IsModalessDialog
PUBLIC	??_GCButtonProperty@@UAEPAXI@Z			; CButtonProperty::`scalar deleting destructor'
PUBLIC	??_7CButtonProperty@@6B@			; CButtonProperty::`vftable'
PUBLIC	??_R4CButtonProperty@@6B@			; CButtonProperty::`RTTI Complete Object Locator'
PUBLIC	??_R0?AVCButtonProperty@@@8			; CButtonProperty `RTTI Type Descriptor'
PUBLIC	??_R3CButtonProperty@@8				; CButtonProperty::`RTTI Class Hierarchy Descriptor'
PUBLIC	??_R2CButtonProperty@@8				; CButtonProperty::`RTTI Base Class Array'
PUBLIC	??_R1A@?0A@EA@CButtonProperty@@8		; CButtonProperty::`RTTI Base Class Descriptor at (0,-1,0,64)'
EXTRN	??3@YAXPAXI@Z:PROC				; operator delete
EXTRN	__imp__InvalidateRect@12:PROC
EXTRN	__imp_?Compare@?$CStringT@DV?$StrTraitMFC_DLL@DV?$ChTraitsCRT@D@ATL@@@@@ATL@@QBEHPBD@Z:PROC
EXTRN	??_ECButtonProperty@@UAEPAXI@Z:PROC		; CButtonProperty::`vector deleting destructor'
EXTRN	?GetToolOptionInfo@CButtonEx@@QAE?AW4TOOLOPTION@CToolOptionInfo@@XZ:PROC ; CButtonEx::GetToolOptionInfo
EXTRN	?SetState@CButtonEx@@QAEX_N@Z:PROC		; CButtonEx::SetState
EXTRN	?GetState@CButtonEx@@QAE_NXZ:PROC		; CButtonEx::GetState
EXTRN	?ReleaseToolFunction@CToolBarDlg@@QAEXW4TOOLOPTION@CToolOptionInfo@@PAVCButtonEx@@J@Z:PROC ; CToolBarDlg::ReleaseToolFunction
EXTRN	?SetStateWholeView@CToolBarDlg@@QAEXH@Z:PROC	; CToolBarDlg::SetStateWholeView
EXTRN	??_7type_info@@6B@:QWORD			; type_info::`vftable'
EXTRN	?g_iMetaTable@@3VIMetaTable@@A:BYTE		; g_iMetaTable
;	COMDAT ??_R1A@?0A@EA@CButtonProperty@@8
rdata$r	SEGMENT
??_R1A@?0A@EA@CButtonProperty@@8 DD FLAT:??_R0?AVCButtonProperty@@@8 ; CButtonProperty::`RTTI Base Class Descriptor at (0,-1,0,64)'
	DD	00H
	DD	00H
	DD	0ffffffffH
	DD	00H
	DD	040H
	DD	FLAT:??_R3CButtonProperty@@8
rdata$r	ENDS
;	COMDAT ??_R2CButtonProperty@@8
rdata$r	SEGMENT
??_R2CButtonProperty@@8 DD FLAT:??_R1A@?0A@EA@CButtonProperty@@8 ; CButtonProperty::`RTTI Base Class Array'
rdata$r	ENDS
;	COMDAT ??_R3CButtonProperty@@8
rdata$r	SEGMENT
??_R3CButtonProperty@@8 DD 00H				; CButtonProperty::`RTTI Class Hierarchy Descriptor'
	DD	00H
	DD	01H
	DD	FLAT:??_R2CButtonProperty@@8
rdata$r	ENDS
;	COMDAT ??_R0?AVCButtonProperty@@@8
data$rs	SEGMENT
??_R0?AVCButtonProperty@@@8 DD FLAT:??_7type_info@@6B@	; CButtonProperty `RTTI Type Descriptor'
	DD	00H
	DB	'.?AVCButtonProperty@@', 00H
data$rs	ENDS
;	COMDAT ??_R4CButtonProperty@@6B@
rdata$r	SEGMENT
??_R4CButtonProperty@@6B@ DD 00H			; CButtonProperty::`RTTI Complete Object Locator'
	DD	00H
	DD	00H
	DD	FLAT:??_R0?AVCButtonProperty@@@8
	DD	FLAT:??_R3CButtonProperty@@8
rdata$r	ENDS
;	COMDAT ??_7CButtonProperty@@6B@
CONST	SEGMENT
??_7CButtonProperty@@6B@ DD FLAT:??_R4CButtonProperty@@6B@ ; CButtonProperty::`vftable'
	DD	FLAT:??_ECButtonProperty@@UAEPAXI@Z
CONST	ENDS
; Function compile flags: /Ogtp
;	COMDAT ??_GCButtonProperty@@UAEPAXI@Z
_TEXT	SEGMENT
___flags$ = 8						; size = 4
??_GCButtonProperty@@UAEPAXI@Z PROC			; CButtonProperty::`scalar deleting destructor', COMDAT
; _this$ = ecx
  00000	55		 push	 ebp
  00001	8b ec		 mov	 ebp, esp
  00003	f6 45 08 01	 test	 BYTE PTR ___flags$[ebp], 1
  00007	56		 push	 esi
  00008	8b f1		 mov	 esi, ecx
  0000a	c7 06 00 00 00
	00		 mov	 DWORD PTR [esi], OFFSET ??_7CButtonProperty@@6B@
  00010	74 0b		 je	 SHORT $LN4@scalar
  00012	6a 0c		 push	 12			; 0000000cH
  00014	56		 push	 esi
  00015	e8 00 00 00 00	 call	 ??3@YAXPAXI@Z		; operator delete
  0001a	83 c4 08	 add	 esp, 8
$LN4@scalar:
  0001d	8b c6		 mov	 eax, esi
  0001f	5e		 pop	 esi
  00020	5d		 pop	 ebp
  00021	c2 04 00	 ret	 4
??_GCButtonProperty@@UAEPAXI@Z ENDP			; CButtonProperty::`scalar deleting destructor'
_TEXT	ENDS
; Function compile flags: /Ogtp
; File D:\git\src\IBK\IBK_DRFN\ProjSrc\SrcChartEx\ChartOCX\ChartToolBar\ButtonProperty.cpp
;	COMDAT ?IsModalessDialog@CButtonProperty@@AAE_NW4TOOLOPTION@CToolOptionInfo@@@Z
_TEXT	SEGMENT
_enumToolOption$ = 8					; size = 4
?IsModalessDialog@CButtonProperty@@AAE_NW4TOOLOPTION@CToolOptionInfo@@@Z PROC ; CButtonProperty::IsModalessDialog, COMDAT
; _this$ = ecx

; 229  : {

  00000	55		 push	 ebp
  00001	8b ec		 mov	 ebp, esp

; 230  : 	switch(enumToolOption)

  00003	8b 45 08	 mov	 eax, DWORD PTR _enumToolOption$[ebp]
  00006	83 c0 e5	 add	 eax, -27		; ffffffe5H
  00009	83 f8 36	 cmp	 eax, 54			; 00000036H
  0000c	77 14		 ja	 SHORT $LN12@IsModaless
  0000e	0f b6 80 00 00
	00 00		 movzx	 eax, BYTE PTR $LN14@IsModaless[eax]
  00015	ff 24 85 00 00
	00 00		 jmp	 DWORD PTR $LN15@IsModaless[eax*4]
$LN4@IsModaless:

; 231  : 	{
; 232  : 	case CToolOptionInfo::T_SYMBOL_BULET:			// 기호Dlg
; 233  : 	case CToolOptionInfo::T_TRADER_REPORT:			// 모의매매
; 234  : 	case CToolOptionInfo::T_PRICE_FORCAST:			// 주가예측
; 235  : 	case CToolOptionInfo::T_MAKE_FORMULA:			// 공식추가
; 236  : 	case CToolOptionInfo::T_PATTERN:				// 봉패턴분석
; 237  : 	case CToolOptionInfo::T_MAGNIFYINGGLASS:		// 돋보기
; 238  : 	case CToolOptionInfo::T_RADAR:					// 레이더차트
; 239  : 	case CToolOptionInfo::T_TARGET_ANALYSIS:		// 목표치분석
; 240  : 		return true;

  0001c	b0 01		 mov	 al, 1

; 243  : 	}
; 244  : }

  0001e	5d		 pop	 ebp
  0001f	c2 04 00	 ret	 4
$LN12@IsModaless:

; 241  : 	default:
; 242  : 		return false;

  00022	32 c0		 xor	 al, al

; 243  : 	}
; 244  : }

  00024	5d		 pop	 ebp
  00025	c2 04 00	 ret	 4
$LN15@IsModaless:
  00028	00 00 00 00	 DD	 $LN4@IsModaless
  0002c	00 00 00 00	 DD	 $LN12@IsModaless
$LN14@IsModaless:
  00030	00		 DB	 0
  00031	01		 DB	 1
  00032	01		 DB	 1
  00033	01		 DB	 1
  00034	01		 DB	 1
  00035	01		 DB	 1
  00036	01		 DB	 1
  00037	01		 DB	 1
  00038	01		 DB	 1
  00039	01		 DB	 1
  0003a	01		 DB	 1
  0003b	01		 DB	 1
  0003c	01		 DB	 1
  0003d	01		 DB	 1
  0003e	01		 DB	 1
  0003f	01		 DB	 1
  00040	01		 DB	 1
  00041	01		 DB	 1
  00042	01		 DB	 1
  00043	01		 DB	 1
  00044	01		 DB	 1
  00045	01		 DB	 1
  00046	01		 DB	 1
  00047	01		 DB	 1
  00048	01		 DB	 1
  00049	01		 DB	 1
  0004a	01		 DB	 1
  0004b	01		 DB	 1
  0004c	01		 DB	 1
  0004d	01		 DB	 1
  0004e	01		 DB	 1
  0004f	01		 DB	 1
  00050	01		 DB	 1
  00051	01		 DB	 1
  00052	01		 DB	 1
  00053	00		 DB	 0
  00054	01		 DB	 1
  00055	00		 DB	 0
  00056	00		 DB	 0
  00057	00		 DB	 0
  00058	01		 DB	 1
  00059	01		 DB	 1
  0005a	01		 DB	 1
  0005b	01		 DB	 1
  0005c	01		 DB	 1
  0005d	01		 DB	 1
  0005e	01		 DB	 1
  0005f	01		 DB	 1
  00060	00		 DB	 0
  00061	00		 DB	 0
  00062	01		 DB	 1
  00063	01		 DB	 1
  00064	01		 DB	 1
  00065	01		 DB	 1
  00066	00		 DB	 0
?IsModalessDialog@CButtonProperty@@AAE_NW4TOOLOPTION@CToolOptionInfo@@@Z ENDP ; CButtonProperty::IsModalessDialog
_TEXT	ENDS
; Function compile flags: /Ogtp
; File D:\git\src\IBK\IBK_DRFN\ProjSrc\SrcChartEx\ChartOCX\ChartToolBar\ButtonProperty.cpp
;	COMDAT ?ReleaseToolOption@CButtonProperty@@AAEXW4TOOLOPTION@CToolOptionInfo@@@Z
_TEXT	SEGMENT
_enumToolOption$ = 8					; size = 4
?ReleaseToolOption@CButtonProperty@@AAEXW4TOOLOPTION@CToolOptionInfo@@@Z PROC ; CButtonProperty::ReleaseToolOption, COMDAT
; _this$ = ecx

; 255  : {

  00000	55		 push	 ebp
  00001	8b ec		 mov	 ebp, esp

; 256  : 	m_pParent->ReleaseToolFunction(enumToolOption);

  00003	8b 49 08	 mov	 ecx, DWORD PTR [ecx+8]
  00006	6a 00		 push	 0
  00008	6a 00		 push	 0
  0000a	ff 75 08	 push	 DWORD PTR _enumToolOption$[ebp]
  0000d	e8 00 00 00 00	 call	 ?ReleaseToolFunction@CToolBarDlg@@QAEXW4TOOLOPTION@CToolOptionInfo@@PAVCButtonEx@@J@Z ; CToolBarDlg::ReleaseToolFunction

; 257  : }

  00012	5d		 pop	 ebp
  00013	c2 04 00	 ret	 4
?ReleaseToolOption@CButtonProperty@@AAEXW4TOOLOPTION@CToolOptionInfo@@@Z ENDP ; CButtonProperty::ReleaseToolOption
_TEXT	ENDS
; Function compile flags: /Ogtp
; File D:\git\src\IBK\IBK_DRFN\ProjSrc\SrcChartEx\ChartOCX\ChartToolBar\ButtonProperty.cpp
; File C:\Program Files (x86)\Microsoft Visual Studio\2019\Community\VC\Tools\MSVC\14.29.30133\atlmfc\include\afxtempl.h
; File D:\git\src\IBK\IBK_DRFN\ProjSrc\SrcChartEx\ChartOCX\ChartToolBar\ButtonProperty.cpp
; File C:\Program Files (x86)\Microsoft Visual Studio\2019\Community\VC\Tools\MSVC\14.29.30133\atlmfc\include\afxwin2.inl
; File D:\git\src\IBK\IBK_DRFN\ProjSrc\SrcChartEx\ChartOCX\ChartToolBar\ButtonProperty.cpp
;	COMDAT ?ReleaseCaseDefault@CButtonProperty@@AAEXW4TOOLOPTION@CToolOptionInfo@@@Z
_TEXT	SEGMENT
_enumToolOption$ = 8					; size = 4
?ReleaseCaseDefault@CButtonProperty@@AAEXW4TOOLOPTION@CToolOptionInfo@@@Z PROC ; CButtonProperty::ReleaseCaseDefault, COMDAT
; _this$ = ecx

; 85   : {

  00000	55		 push	 ebp
  00001	8b ec		 mov	 ebp, esp
  00003	53		 push	 ebx
  00004	8b d9		 mov	 ebx, ecx
  00006	57		 push	 edi

; 86   : 	CToolOptionInfo::TOOLOPTION enumButtonToolOption = (CToolOptionInfo::TOOLOPTION)-1;
; 87   : 
; 88   : 	if(m_pButtonList == NULL)

  00007	8b 7b 04	 mov	 edi, DWORD PTR [ebx+4]
  0000a	85 ff		 test	 edi, edi
  0000c	74 66		 je	 SHORT $LN3@ReleaseCas

; 89   : 		return;
; 90   : 	
; 91   : 	POSITION pos = m_pButtonList->GetHeadPosition();

  0000e	8b 7f 04	 mov	 edi, DWORD PTR [edi+4]

; 92   : 	while(pos)

  00011	85 ff		 test	 edi, edi
  00013	74 5f		 je	 SHORT $LN3@ReleaseCas
  00015	56		 push	 esi
$LL2@ReleaseCas:

; 93   : 	{
; 94   : 		CButtonEx* pButton = m_pButtonList->GetNext(pos);

  00016	8b 77 08	 mov	 esi, DWORD PTR [edi+8]
; File C:\Program Files (x86)\Microsoft Visual Studio\2019\Community\VC\Tools\MSVC\14.29.30133\atlmfc\include\afxtempl.h

; 813  : 		rPosition = (POSITION) pNode->pNext;

  00019	8b 3f		 mov	 edi, DWORD PTR [edi]
; File D:\git\src\IBK\IBK_DRFN\ProjSrc\SrcChartEx\ChartOCX\ChartToolBar\ButtonProperty.cpp

; 95   : 		if( pButton == NULL) continue;

  0001b	85 f6		 test	 esi, esi
  0001d	74 50		 je	 SHORT $LN4@ReleaseCas

; 96   : 		// 버튼이 눌려져있고
; 97   : 		if( !pButton->GetState()) continue;

  0001f	8b ce		 mov	 ecx, esi
  00021	e8 00 00 00 00	 call	 ?GetState@CButtonEx@@QAE_NXZ ; CButtonEx::GetState
  00026	84 c0		 test	 al, al
  00028	74 45		 je	 SHORT $LN4@ReleaseCas

; 98   : 
; 99   : 		enumButtonToolOption = pButton->GetToolOptionInfo();

  0002a	8b ce		 mov	 ecx, esi
  0002c	e8 00 00 00 00	 call	 ?GetToolOptionInfo@CButtonEx@@QAE?AW4TOOLOPTION@CToolOptionInfo@@XZ ; CButtonEx::GetToolOptionInfo

; 100  : 		// 자기자신은 제외하고
; 101  : 		if( enumButtonToolOption == enumToolOption) continue;

  00031	3b 45 08	 cmp	 eax, DWORD PTR _enumToolOption$[ebp]
  00034	74 39		 je	 SHORT $LN4@ReleaseCas

; 102  : 
; 103  : 		switch( enumButtonToolOption)

  00036	8d 48 ff	 lea	 ecx, DWORD PTR [eax-1]
  00039	83 f9 5e	 cmp	 ecx, 94			; 0000005eH
  0003c	77 0e		 ja	 SHORT $LN19@ReleaseCas
  0003e	0f b6 89 00 00
	00 00		 movzx	 ecx, BYTE PTR $LN33@ReleaseCas[ecx]
  00045	ff 24 8d 00 00
	00 00		 jmp	 DWORD PTR $LN34@ReleaseCas[ecx*4]
$LN19@ReleaseCas:

; 256  : 	m_pParent->ReleaseToolFunction(enumToolOption);

  0004c	8b 4b 08	 mov	 ecx, DWORD PTR [ebx+8]
  0004f	6a 00		 push	 0
  00051	6a 00		 push	 0
  00053	50		 push	 eax
  00054	e8 00 00 00 00	 call	 ?ReleaseToolFunction@CToolBarDlg@@QAEXW4TOOLOPTION@CToolOptionInfo@@PAVCButtonEx@@J@Z ; CToolBarDlg::ReleaseToolFunction

; 104  : 		{
; 105  : 			case CToolOptionInfo::T_SHOW_OUTERTOOLBAR:	// 외부툴바 제외
; 106  : 			case CToolOptionInfo::T_WHOLEVIEW:			// 전체보기 제외
; 107  : 			case CToolOptionInfo::T_RADAR:				// 레이더차트 제외
; 108  : 			case CToolOptionInfo::T_CHART_BALANCE:		// 일목균형표 제외
; 109  : 			case CToolOptionInfo::T_MINMAX_FULLDATA:	// 전체최대최소보기 제외한 툴옵션 해제.
; 110  : 			// (2006/3/4 - Seung-Won, Bae) Do not release Numerical Inquiry DLG and Cross Line.
; 111  : 			//		Cross Line of Inner Toolbar control NumericalInquiryOption Value.
; 112  : 			case CToolOptionInfo::T_CROSSHAIRS_DRAG:
; 113  : 			case CToolOptionInfo::T_NIDLG_DRAG:
; 114  : 			// (2006/6/29 - Seung-Won, Bae) Over Tools
; 115  : 			case CToolOptionInfo::T_NIDLG_OVER:
; 116  : 			case CToolOptionInfo::T_CROSSHAIRS_OVER:
; 117  : 														break;
; 118  : 			default:	ReleaseToolOption( enumButtonToolOption);
; 119  : 						pButton->SetState(false);				// 버튼상태 다시 Invalidate를 해주고...

  00059	6a 00		 push	 0
  0005b	8b ce		 mov	 ecx, esi
  0005d	e8 00 00 00 00	 call	 ?SetState@CButtonEx@@QAEX_N@Z ; CButtonEx::SetState
; File C:\Program Files (x86)\Microsoft Visual Studio\2019\Community\VC\Tools\MSVC\14.29.30133\atlmfc\include\afxwin2.inl

; 114  : 	{ ASSERT(::IsWindow(m_hWnd)); ::InvalidateRect(m_hWnd, NULL, bErase); }

  00062	6a 01		 push	 1
  00064	6a 00		 push	 0
  00066	ff 76 20	 push	 DWORD PTR [esi+32]
  00069	ff 15 00 00 00
	00		 call	 DWORD PTR __imp__InvalidateRect@12
$LN4@ReleaseCas:
; File D:\git\src\IBK\IBK_DRFN\ProjSrc\SrcChartEx\ChartOCX\ChartToolBar\ButtonProperty.cpp

; 92   : 	while(pos)

  0006f	85 ff		 test	 edi, edi
  00071	75 a3		 jne	 SHORT $LL2@ReleaseCas
  00073	5e		 pop	 esi
$LN3@ReleaseCas:
  00074	5f		 pop	 edi

; 120  : 						pButton->Invalidate();
; 121  : 						break;
; 122  : 		}
; 123  : 	}//end of while(
; 124  : }

  00075	5b		 pop	 ebx
  00076	5d		 pop	 ebp
  00077	c2 04 00	 ret	 4
  0007a	66 90		 npad	 2
$LN34@ReleaseCas:
  0007c	00 00 00 00	 DD	 $LN4@ReleaseCas
  00080	00 00 00 00	 DD	 $LN19@ReleaseCas
$LN33@ReleaseCas:
  00084	00		 DB	 0
  00085	00		 DB	 0
  00086	01		 DB	 1
  00087	01		 DB	 1
  00088	01		 DB	 1
  00089	01		 DB	 1
  0008a	01		 DB	 1
  0008b	01		 DB	 1
  0008c	01		 DB	 1
  0008d	01		 DB	 1
  0008e	01		 DB	 1
  0008f	01		 DB	 1
  00090	01		 DB	 1
  00091	01		 DB	 1
  00092	01		 DB	 1
  00093	01		 DB	 1
  00094	01		 DB	 1
  00095	01		 DB	 1
  00096	01		 DB	 1
  00097	01		 DB	 1
  00098	01		 DB	 1
  00099	00		 DB	 0
  0009a	01		 DB	 1
  0009b	01		 DB	 1
  0009c	01		 DB	 1
  0009d	01		 DB	 1
  0009e	01		 DB	 1
  0009f	01		 DB	 1
  000a0	01		 DB	 1
  000a1	01		 DB	 1
  000a2	01		 DB	 1
  000a3	01		 DB	 1
  000a4	01		 DB	 1
  000a5	01		 DB	 1
  000a6	00		 DB	 0
  000a7	01		 DB	 1
  000a8	01		 DB	 1
  000a9	01		 DB	 1
  000aa	01		 DB	 1
  000ab	01		 DB	 1
  000ac	01		 DB	 1
  000ad	01		 DB	 1
  000ae	01		 DB	 1
  000af	01		 DB	 1
  000b0	01		 DB	 1
  000b1	01		 DB	 1
  000b2	01		 DB	 1
  000b3	01		 DB	 1
  000b4	01		 DB	 1
  000b5	01		 DB	 1
  000b6	01		 DB	 1
  000b7	01		 DB	 1
  000b8	01		 DB	 1
  000b9	01		 DB	 1
  000ba	01		 DB	 1
  000bb	01		 DB	 1
  000bc	01		 DB	 1
  000bd	01		 DB	 1
  000be	01		 DB	 1
  000bf	01		 DB	 1
  000c0	01		 DB	 1
  000c1	01		 DB	 1
  000c2	01		 DB	 1
  000c3	01		 DB	 1
  000c4	01		 DB	 1
  000c5	01		 DB	 1
  000c6	01		 DB	 1
  000c7	01		 DB	 1
  000c8	01		 DB	 1
  000c9	01		 DB	 1
  000ca	01		 DB	 1
  000cb	01		 DB	 1
  000cc	01		 DB	 1
  000cd	00		 DB	 0
  000ce	01		 DB	 1
  000cf	00		 DB	 0
  000d0	01		 DB	 1
  000d1	01		 DB	 1
  000d2	00		 DB	 0
  000d3	01		 DB	 1
  000d4	01		 DB	 1
  000d5	01		 DB	 1
  000d6	01		 DB	 1
  000d7	01		 DB	 1
  000d8	01		 DB	 1
  000d9	01		 DB	 1
  000da	01		 DB	 1
  000db	01		 DB	 1
  000dc	01		 DB	 1
  000dd	01		 DB	 1
  000de	01		 DB	 1
  000df	01		 DB	 1
  000e0	01		 DB	 1
  000e1	00		 DB	 0
  000e2	00		 DB	 0
?ReleaseCaseDefault@CButtonProperty@@AAEXW4TOOLOPTION@CToolOptionInfo@@@Z ENDP ; CButtonProperty::ReleaseCaseDefault
_TEXT	ENDS
; Function compile flags: /Ogtp
; File D:\git\src\IBK\IBK_DRFN\ProjSrc\SrcChartEx\ChartOCX\ChartToolBar\ButtonProperty.cpp
; File C:\Program Files (x86)\Microsoft Visual Studio\2019\Community\VC\Tools\MSVC\14.29.30133\atlmfc\include\afxtempl.h
; File D:\git\src\IBK\IBK_DRFN\ProjSrc\SrcChartEx\ChartOCX\ChartToolBar\ButtonProperty.cpp
; File C:\Program Files (x86)\Microsoft Visual Studio\2019\Community\VC\Tools\MSVC\14.29.30133\atlmfc\include\afxwin2.inl
; File D:\git\src\IBK\IBK_DRFN\ProjSrc\SrcChartEx\ChartOCX\ChartToolBar\ButtonProperty.cpp
;	COMDAT ?ReleaseCaseSpecialChart@CButtonProperty@@AAEXW4TOOLOPTION@CToolOptionInfo@@@Z
_TEXT	SEGMENT
_this$1$ = -4						; size = 4
_enumToolOption$ = 8					; size = 4
?ReleaseCaseSpecialChart@CButtonProperty@@AAEXW4TOOLOPTION@CToolOptionInfo@@@Z PROC ; CButtonProperty::ReleaseCaseSpecialChart, COMDAT
; _this$ = ecx

; 134  : {

  00000	55		 push	 ebp
  00001	8b ec		 mov	 ebp, esp
  00003	51		 push	 ecx
  00004	8b c1		 mov	 eax, ecx
  00006	57		 push	 edi
  00007	89 45 fc	 mov	 DWORD PTR _this$1$[ebp], eax

; 135  : 	CButtonEx* pButton = NULL;
; 136  : 	CToolOptionInfo::TOOLOPTION enumButtonToolOption = (CToolOptionInfo::TOOLOPTION)-1;
; 137  : 
; 138  : 	if(m_pButtonList == NULL)

  0000a	8b 78 04	 mov	 edi, DWORD PTR [eax+4]
  0000d	85 ff		 test	 edi, edi
  0000f	74 5e		 je	 SHORT $LN3@ReleaseCas

; 139  : 		return;
; 140  : 
; 141  : 	POSITION pos = m_pButtonList->GetHeadPosition();

  00011	8b 7f 04	 mov	 edi, DWORD PTR [edi+4]

; 142  : 	while(pos)

  00014	85 ff		 test	 edi, edi
  00016	74 57		 je	 SHORT $LN3@ReleaseCas
  00018	53		 push	 ebx
  00019	56		 push	 esi
  0001a	66 0f 1f 44 00
	00		 npad	 6
$LL2@ReleaseCas:

; 143  : 	{
; 144  : 		pButton = m_pButtonList->GetNext(pos);

  00020	8b 5f 08	 mov	 ebx, DWORD PTR [edi+8]

; 146  : 		enumButtonToolOption = pButton->GetToolOptionInfo();

  00023	8b cb		 mov	 ecx, ebx
; File C:\Program Files (x86)\Microsoft Visual Studio\2019\Community\VC\Tools\MSVC\14.29.30133\atlmfc\include\afxtempl.h

; 813  : 		rPosition = (POSITION) pNode->pNext;

  00025	8b 3f		 mov	 edi, DWORD PTR [edi]
; File D:\git\src\IBK\IBK_DRFN\ProjSrc\SrcChartEx\ChartOCX\ChartToolBar\ButtonProperty.cpp

; 146  : 		enumButtonToolOption = pButton->GetToolOptionInfo();

  00027	e8 00 00 00 00	 call	 ?GetToolOptionInfo@CButtonEx@@QAE?AW4TOOLOPTION@CToolOptionInfo@@XZ ; CButtonEx::GetToolOptionInfo

; 147  : 
; 148  : 		if(pButton->GetState() 
; 149  : 			&& enumButtonToolOption != enumToolOption 
; 150  : 			&& enumButtonToolOption != CToolOptionInfo::T_SHOW_OUTERTOOLBAR)

  0002c	8b cb		 mov	 ecx, ebx
  0002e	8b f0		 mov	 esi, eax
  00030	e8 00 00 00 00	 call	 ?GetState@CButtonEx@@QAE_NXZ ; CButtonEx::GetState
  00035	84 c0		 test	 al, al
  00037	74 30		 je	 SHORT $LN5@ReleaseCas
  00039	3b 75 08	 cmp	 esi, DWORD PTR _enumToolOption$[ebp]
  0003c	74 2b		 je	 SHORT $LN5@ReleaseCas
  0003e	83 fe 4f	 cmp	 esi, 79			; 0000004fH
  00041	74 26		 je	 SHORT $LN5@ReleaseCas

; 256  : 	m_pParent->ReleaseToolFunction(enumToolOption);

  00043	8b 45 fc	 mov	 eax, DWORD PTR _this$1$[ebp]
  00046	6a 00		 push	 0
  00048	6a 00		 push	 0
  0004a	56		 push	 esi
  0004b	8b 48 08	 mov	 ecx, DWORD PTR [eax+8]
  0004e	e8 00 00 00 00	 call	 ?ReleaseToolFunction@CToolBarDlg@@QAEXW4TOOLOPTION@CToolOptionInfo@@PAVCButtonEx@@J@Z ; CToolBarDlg::ReleaseToolFunction

; 151  : 		{
; 152  : 			ReleaseToolOption(enumButtonToolOption);
; 153  : 			pButton->SetState(false);				// 버튼상태 다시 Invalidate를 해주고...

  00053	6a 00		 push	 0
  00055	8b cb		 mov	 ecx, ebx
  00057	e8 00 00 00 00	 call	 ?SetState@CButtonEx@@QAEX_N@Z ; CButtonEx::SetState
; File C:\Program Files (x86)\Microsoft Visual Studio\2019\Community\VC\Tools\MSVC\14.29.30133\atlmfc\include\afxwin2.inl

; 114  : 	{ ASSERT(::IsWindow(m_hWnd)); ::InvalidateRect(m_hWnd, NULL, bErase); }

  0005c	6a 01		 push	 1
  0005e	6a 00		 push	 0
  00060	ff 73 20	 push	 DWORD PTR [ebx+32]
  00063	ff 15 00 00 00
	00		 call	 DWORD PTR __imp__InvalidateRect@12
$LN5@ReleaseCas:
; File D:\git\src\IBK\IBK_DRFN\ProjSrc\SrcChartEx\ChartOCX\ChartToolBar\ButtonProperty.cpp

; 142  : 	while(pos)

  00069	85 ff		 test	 edi, edi
  0006b	75 b3		 jne	 SHORT $LL2@ReleaseCas
  0006d	5e		 pop	 esi
  0006e	5b		 pop	 ebx
$LN3@ReleaseCas:
  0006f	5f		 pop	 edi

; 154  : 			pButton->Invalidate();
; 155  : 		}//end of if(..
; 156  : 	}//end of while(
; 157  : }

  00070	8b e5		 mov	 esp, ebp
  00072	5d		 pop	 ebp
  00073	c2 04 00	 ret	 4
?ReleaseCaseSpecialChart@CButtonProperty@@AAEXW4TOOLOPTION@CToolOptionInfo@@@Z ENDP ; CButtonProperty::ReleaseCaseSpecialChart
_TEXT	ENDS
; Function compile flags: /Ogtp
; File D:\git\src\IBK\IBK_DRFN\ProjSrc\SrcChartEx\ChartOCX\ChartToolBar\ButtonProperty.cpp
; File C:\Program Files (x86)\Microsoft Visual Studio\2019\Community\VC\Tools\MSVC\14.29.30133\atlmfc\include\afxtempl.h
; File D:\git\src\IBK\IBK_DRFN\ProjSrc\SrcChartEx\ChartOCX\ChartToolBar\ButtonProperty.cpp
; File C:\Program Files (x86)\Microsoft Visual Studio\2019\Community\VC\Tools\MSVC\14.29.30133\atlmfc\include\cstringt.h
; File D:\git\src\IBK\IBK_DRFN\ProjSrc\SrcChartEx\ChartOCX\ChartToolBar\ButtonProperty.cpp
; File C:\Program Files (x86)\Microsoft Visual Studio\2019\Community\VC\Tools\MSVC\14.29.30133\atlmfc\include\afxwin2.inl
; File D:\git\src\IBK\IBK_DRFN\ProjSrc\SrcChartEx\ChartOCX\ChartToolBar\ButtonProperty.cpp
;	COMDAT ?ReleaseCaseZoom@CButtonProperty@@AAEXW4TOOLOPTION@CToolOptionInfo@@ABV?$CStringT@DV?$StrTraitMFC_DLL@DV?$ChTraitsCRT@D@ATL@@@@@ATL@@@Z
_TEXT	SEGMENT
_this$1$ = -4						; size = 4
_enumToolOption$ = 8					; size = 4
_strParam$ = 12						; size = 4
?ReleaseCaseZoom@CButtonProperty@@AAEXW4TOOLOPTION@CToolOptionInfo@@ABV?$CStringT@DV?$StrTraitMFC_DLL@DV?$ChTraitsCRT@D@ATL@@@@@ATL@@@Z PROC ; CButtonProperty::ReleaseCaseZoom, COMDAT
; _this$ = ecx

; 171  : {

  00000	55		 push	 ebp
  00001	8b ec		 mov	 ebp, esp
  00003	51		 push	 ecx
  00004	8b c1		 mov	 eax, ecx
  00006	57		 push	 edi
  00007	89 45 fc	 mov	 DWORD PTR _this$1$[ebp], eax

; 172  : 	CButtonEx* pButton = NULL;
; 173  : 	CToolOptionInfo::TOOLOPTION enumButtonToolOption = (CToolOptionInfo::TOOLOPTION)-1;
; 174  : 
; 175  : 	if(m_pButtonList == NULL)

  0000a	8b 78 04	 mov	 edi, DWORD PTR [eax+4]
  0000d	85 ff		 test	 edi, edi
  0000f	0f 84 c4 00 00
	00		 je	 $LN3@ReleaseCas

; 176  : 		return;
; 177  : 
; 178  : 	POSITION pos = m_pButtonList->GetHeadPosition();

  00015	8b 7f 04	 mov	 edi, DWORD PTR [edi+4]

; 179  : 	while(pos)

  00018	85 ff		 test	 edi, edi
  0001a	0f 84 b9 00 00
	00		 je	 $LN3@ReleaseCas
  00020	53		 push	 ebx
  00021	56		 push	 esi
$LL2@ReleaseCas:

; 180  : 	{
; 181  : 		pButton = m_pButtonList->GetNext(pos);

  00022	8b 5f 08	 mov	 ebx, DWORD PTR [edi+8]

; 183  : 		enumButtonToolOption = pButton->GetToolOptionInfo();

  00025	8b cb		 mov	 ecx, ebx
; File C:\Program Files (x86)\Microsoft Visual Studio\2019\Community\VC\Tools\MSVC\14.29.30133\atlmfc\include\afxtempl.h

; 813  : 		rPosition = (POSITION) pNode->pNext;

  00027	8b 3f		 mov	 edi, DWORD PTR [edi]
; File D:\git\src\IBK\IBK_DRFN\ProjSrc\SrcChartEx\ChartOCX\ChartToolBar\ButtonProperty.cpp

; 183  : 		enumButtonToolOption = pButton->GetToolOptionInfo();

  00029	e8 00 00 00 00	 call	 ?GetToolOptionInfo@CButtonEx@@QAE?AW4TOOLOPTION@CToolOptionInfo@@XZ ; CButtonEx::GetToolOptionInfo

; 184  : 
; 185  : 		if( pButton->GetState()							// 눌려져있는 버튼에서	
; 186  : 			&& !IsModalessDialog( enumButtonToolOption) // 모달리스Dlg 제외하고
; 187  : 			&& enumButtonToolOption != enumToolOption)	// 자기자신 제외,

  0002e	8b cb		 mov	 ecx, ebx
  00030	8b f0		 mov	 esi, eax
  00032	e8 00 00 00 00	 call	 ?GetState@CButtonEx@@QAE_NXZ ; CButtonEx::GetState
  00037	84 c0		 test	 al, al
  00039	0f 84 90 00 00
	00		 je	 $LN4@ReleaseCas

; 230  : 	switch(enumToolOption)

  0003f	8d 46 e5	 lea	 eax, DWORD PTR [esi-27]
  00042	83 f8 36	 cmp	 eax, 54			; 00000036H
  00045	77 0e		 ja	 SHORT $LN36@ReleaseCas
  00047	0f b6 80 00 00
	00 00		 movzx	 eax, BYTE PTR $LN50@ReleaseCas[eax]
  0004e	ff 24 85 00 00
	00 00		 jmp	 DWORD PTR $LN51@ReleaseCas[eax*4]
$LN36@ReleaseCas:

; 184  : 
; 185  : 		if( pButton->GetState()							// 눌려져있는 버튼에서	
; 186  : 			&& !IsModalessDialog( enumButtonToolOption) // 모달리스Dlg 제외하고
; 187  : 			&& enumButtonToolOption != enumToolOption)	// 자기자신 제외,

  00055	3b 75 08	 cmp	 esi, DWORD PTR _enumToolOption$[ebp]
  00058	74 75		 je	 SHORT $LN4@ReleaseCas

; 188  : 			switch( enumButtonToolOption)

  0005a	8d 46 fe	 lea	 eax, DWORD PTR [esi-2]
  0005d	83 f8 5d	 cmp	 eax, 93			; 0000005dH
  00060	77 0e		 ja	 SHORT $LN16@ReleaseCas
  00062	0f b6 80 00 00
	00 00		 movzx	 eax, BYTE PTR $LN52@ReleaseCas[eax]
  00069	ff 24 85 00 00
	00 00		 jmp	 DWORD PTR $LN53@ReleaseCas[eax*4]
$LN16@ReleaseCas:

; 202  : 			default:	if(strParam == _MTEXT( C4_ZOOM_OUT))	// 축소버튼이면

  00070	a1 54 00 00 00	 mov	 eax, DWORD PTR ?g_iMetaTable@@3VIMetaTable@@A+84
; File C:\Program Files (x86)\Microsoft Visual Studio\2019\Community\VC\Tools\MSVC\14.29.30133\atlmfc\include\cstringt.h

; 2486 : 		return(str1.Compare(psz2) == 0);

  00075	8b 4d 0c	 mov	 ecx, DWORD PTR _strParam$[ebp]
  00078	ff b0 80 0e 00
	00		 push	 DWORD PTR [eax+3712]
  0007e	ff 15 00 00 00
	00		 call	 DWORD PTR __imp_?Compare@?$CStringT@DV?$StrTraitMFC_DLL@DV?$ChTraitsCRT@D@ATL@@@@@ATL@@QBEHPBD@Z
  00084	85 c0		 test	 eax, eax
; File D:\git\src\IBK\IBK_DRFN\ProjSrc\SrcChartEx\ChartOCX\ChartToolBar\ButtonProperty.cpp

; 202  : 			default:	if(strParam == _MTEXT( C4_ZOOM_OUT))	// 축소버튼이면

  00086	75 15		 jne	 SHORT $LN17@ReleaseCas

; 203  : 						{
; 204  : 							if(enumButtonToolOption != CToolOptionInfo::T_WHOLEVIEW)	// 전체보기도 제외한 

  00088	83 fe 01	 cmp	 esi, 1
  0008b	74 2c		 je	 SHORT $LN21@ReleaseCas

; 256  : 	m_pParent->ReleaseToolFunction(enumToolOption);

  0008d	50		 push	 eax
  0008e	50		 push	 eax
  0008f	8b 45 fc	 mov	 eax, DWORD PTR _this$1$[ebp]
  00092	56		 push	 esi
  00093	8b 48 08	 mov	 ecx, DWORD PTR [eax+8]
  00096	e8 00 00 00 00	 call	 ?ReleaseToolFunction@CToolBarDlg@@QAEXW4TOOLOPTION@CToolOptionInfo@@PAVCButtonEx@@J@Z ; CToolBarDlg::ReleaseToolFunction

; 205  : 								ReleaseToolOption(enumButtonToolOption);				// 놈들의 버튼을 푼다.
; 206  : 						}

  0009b	eb 1c		 jmp	 SHORT $LN21@ReleaseCas
$LN17@ReleaseCas:

; 207  : 						else									// 만약 확대버튼일때는
; 208  : 						{
; 209  : 							if(enumButtonToolOption != CToolOptionInfo::T_WHOLEVIEW)

  0009d	8b 45 fc	 mov	 eax, DWORD PTR _this$1$[ebp]
  000a0	6a 00		 push	 0
  000a2	8b 48 08	 mov	 ecx, DWORD PTR [eax+8]
  000a5	83 fe 01	 cmp	 esi, 1
  000a8	74 0a		 je	 SHORT $LN20@ReleaseCas

; 256  : 	m_pParent->ReleaseToolFunction(enumToolOption);

  000aa	6a 00		 push	 0
  000ac	56		 push	 esi
  000ad	e8 00 00 00 00	 call	 ?ReleaseToolFunction@CToolBarDlg@@QAEXW4TOOLOPTION@CToolOptionInfo@@PAVCButtonEx@@J@Z ; CToolBarDlg::ReleaseToolFunction

; 210  : 								ReleaseToolOption(enumButtonToolOption);

  000b2	eb 05		 jmp	 SHORT $LN21@ReleaseCas
$LN20@ReleaseCas:

; 211  : 							else								// 전체보기의 경우는 상태만 변경시킨다.
; 212  : 								m_pParent->SetStateWholeView(0);

  000b4	e8 00 00 00 00	 call	 ?SetStateWholeView@CToolBarDlg@@QAEXH@Z ; CToolBarDlg::SetStateWholeView
$LN21@ReleaseCas:

; 213  : 						}
; 214  : 						pButton->SetState(false);				// 버튼상태 다시 Invalidate를 해주고...

  000b9	6a 00		 push	 0
  000bb	8b cb		 mov	 ecx, ebx
  000bd	e8 00 00 00 00	 call	 ?SetState@CButtonEx@@QAEX_N@Z ; CButtonEx::SetState
; File C:\Program Files (x86)\Microsoft Visual Studio\2019\Community\VC\Tools\MSVC\14.29.30133\atlmfc\include\afxwin2.inl

; 114  : 	{ ASSERT(::IsWindow(m_hWnd)); ::InvalidateRect(m_hWnd, NULL, bErase); }

  000c2	6a 01		 push	 1
  000c4	6a 00		 push	 0
  000c6	ff 73 20	 push	 DWORD PTR [ebx+32]
  000c9	ff 15 00 00 00
	00		 call	 DWORD PTR __imp__InvalidateRect@12
$LN4@ReleaseCas:
; File D:\git\src\IBK\IBK_DRFN\ProjSrc\SrcChartEx\ChartOCX\ChartToolBar\ButtonProperty.cpp

; 179  : 	while(pos)

  000cf	85 ff		 test	 edi, edi
  000d1	0f 85 4b ff ff
	ff		 jne	 $LL2@ReleaseCas
  000d7	5e		 pop	 esi
  000d8	5b		 pop	 ebx
$LN3@ReleaseCas:
  000d9	5f		 pop	 edi

; 215  : 						pButton->Invalidate();
; 216  : 		}//end of if(.......) swtich
; 217  : 	}//end of while(
; 218  : }

  000da	8b e5		 mov	 esp, ebp
  000dc	5d		 pop	 ebp
  000dd	c2 08 00	 ret	 8
$LN51@ReleaseCas:
  000e0	00 00 00 00	 DD	 $LN4@ReleaseCas
  000e4	00 00 00 00	 DD	 $LN36@ReleaseCas
$LN50@ReleaseCas:
  000e8	00		 DB	 0
  000e9	01		 DB	 1
  000ea	01		 DB	 1
  000eb	01		 DB	 1
  000ec	01		 DB	 1
  000ed	01		 DB	 1
  000ee	01		 DB	 1
  000ef	01		 DB	 1
  000f0	01		 DB	 1
  000f1	01		 DB	 1
  000f2	01		 DB	 1
  000f3	01		 DB	 1
  000f4	01		 DB	 1
  000f5	01		 DB	 1
  000f6	01		 DB	 1
  000f7	01		 DB	 1
  000f8	01		 DB	 1
  000f9	01		 DB	 1
  000fa	01		 DB	 1
  000fb	01		 DB	 1
  000fc	01		 DB	 1
  000fd	01		 DB	 1
  000fe	01		 DB	 1
  000ff	01		 DB	 1
  00100	01		 DB	 1
  00101	01		 DB	 1
  00102	01		 DB	 1
  00103	01		 DB	 1
  00104	01		 DB	 1
  00105	01		 DB	 1
  00106	01		 DB	 1
  00107	01		 DB	 1
  00108	01		 DB	 1
  00109	01		 DB	 1
  0010a	01		 DB	 1
  0010b	00		 DB	 0
  0010c	01		 DB	 1
  0010d	00		 DB	 0
  0010e	00		 DB	 0
  0010f	00		 DB	 0
  00110	01		 DB	 1
  00111	01		 DB	 1
  00112	01		 DB	 1
  00113	01		 DB	 1
  00114	01		 DB	 1
  00115	01		 DB	 1
  00116	01		 DB	 1
  00117	01		 DB	 1
  00118	00		 DB	 0
  00119	00		 DB	 0
  0011a	01		 DB	 1
  0011b	01		 DB	 1
  0011c	01		 DB	 1
  0011d	01		 DB	 1
  0011e	00		 DB	 0
  0011f	90		 npad	 1
$LN53@ReleaseCas:
  00120	00 00 00 00	 DD	 $LN4@ReleaseCas
  00124	00 00 00 00	 DD	 $LN16@ReleaseCas
$LN52@ReleaseCas:
  00128	00		 DB	 0
  00129	01		 DB	 1
  0012a	01		 DB	 1
  0012b	01		 DB	 1
  0012c	01		 DB	 1
  0012d	01		 DB	 1
  0012e	01		 DB	 1
  0012f	01		 DB	 1
  00130	01		 DB	 1
  00131	01		 DB	 1
  00132	01		 DB	 1
  00133	01		 DB	 1
  00134	01		 DB	 1
  00135	01		 DB	 1
  00136	01		 DB	 1
  00137	01		 DB	 1
  00138	01		 DB	 1
  00139	01		 DB	 1
  0013a	01		 DB	 1
  0013b	01		 DB	 1
  0013c	00		 DB	 0
  0013d	01		 DB	 1
  0013e	01		 DB	 1
  0013f	01		 DB	 1
  00140	01		 DB	 1
  00141	01		 DB	 1
  00142	01		 DB	 1
  00143	01		 DB	 1
  00144	01		 DB	 1
  00145	01		 DB	 1
  00146	01		 DB	 1
  00147	01		 DB	 1
  00148	01		 DB	 1
  00149	00		 DB	 0
  0014a	01		 DB	 1
  0014b	01		 DB	 1
  0014c	01		 DB	 1
  0014d	01		 DB	 1
  0014e	01		 DB	 1
  0014f	01		 DB	 1
  00150	01		 DB	 1
  00151	01		 DB	 1
  00152	01		 DB	 1
  00153	01		 DB	 1
  00154	01		 DB	 1
  00155	01		 DB	 1
  00156	01		 DB	 1
  00157	01		 DB	 1
  00158	01		 DB	 1
  00159	01		 DB	 1
  0015a	01		 DB	 1
  0015b	01		 DB	 1
  0015c	01		 DB	 1
  0015d	01		 DB	 1
  0015e	01		 DB	 1
  0015f	01		 DB	 1
  00160	01		 DB	 1
  00161	01		 DB	 1
  00162	01		 DB	 1
  00163	01		 DB	 1
  00164	01		 DB	 1
  00165	01		 DB	 1
  00166	01		 DB	 1
  00167	01		 DB	 1
  00168	01		 DB	 1
  00169	01		 DB	 1
  0016a	01		 DB	 1
  0016b	01		 DB	 1
  0016c	01		 DB	 1
  0016d	01		 DB	 1
  0016e	01		 DB	 1
  0016f	01		 DB	 1
  00170	00		 DB	 0
  00171	01		 DB	 1
  00172	00		 DB	 0
  00173	01		 DB	 1
  00174	01		 DB	 1
  00175	00		 DB	 0
  00176	01		 DB	 1
  00177	01		 DB	 1
  00178	01		 DB	 1
  00179	01		 DB	 1
  0017a	01		 DB	 1
  0017b	01		 DB	 1
  0017c	01		 DB	 1
  0017d	01		 DB	 1
  0017e	01		 DB	 1
  0017f	01		 DB	 1
  00180	01		 DB	 1
  00181	01		 DB	 1
  00182	01		 DB	 1
  00183	01		 DB	 1
  00184	00		 DB	 0
  00185	00		 DB	 0
?ReleaseCaseZoom@CButtonProperty@@AAEXW4TOOLOPTION@CToolOptionInfo@@ABV?$CStringT@DV?$StrTraitMFC_DLL@DV?$ChTraitsCRT@D@ATL@@@@@ATL@@@Z ENDP ; CButtonProperty::ReleaseCaseZoom
_TEXT	ENDS
; Function compile flags: /Ogtp
; File D:\git\src\IBK\IBK_DRFN\ProjSrc\SrcChartEx\ChartOCX\ChartToolBar\ButtonProperty.cpp
; File C:\Program Files (x86)\Microsoft Visual Studio\2019\Community\VC\Tools\MSVC\14.29.30133\atlmfc\include\afxtempl.h
; File D:\git\src\IBK\IBK_DRFN\ProjSrc\SrcChartEx\ChartOCX\ChartToolBar\ButtonProperty.cpp
; File C:\Program Files (x86)\Microsoft Visual Studio\2019\Community\VC\Tools\MSVC\14.29.30133\atlmfc\include\cstringt.h
; File D:\git\src\IBK\IBK_DRFN\ProjSrc\SrcChartEx\ChartOCX\ChartToolBar\ButtonProperty.cpp
; File C:\Program Files (x86)\Microsoft Visual Studio\2019\Community\VC\Tools\MSVC\14.29.30133\atlmfc\include\afxwin2.inl
; File D:\git\src\IBK\IBK_DRFN\ProjSrc\SrcChartEx\ChartOCX\ChartToolBar\ButtonProperty.cpp
; File C:\Program Files (x86)\Microsoft Visual Studio\2019\Community\VC\Tools\MSVC\14.29.30133\atlmfc\include\afxtempl.h
; File D:\git\src\IBK\IBK_DRFN\ProjSrc\SrcChartEx\ChartOCX\ChartToolBar\ButtonProperty.cpp
; File C:\Program Files (x86)\Microsoft Visual Studio\2019\Community\VC\Tools\MSVC\14.29.30133\atlmfc\include\afxwin2.inl
; File D:\git\src\IBK\IBK_DRFN\ProjSrc\SrcChartEx\ChartOCX\ChartToolBar\ButtonProperty.cpp
; File C:\Program Files (x86)\Microsoft Visual Studio\2019\Community\VC\Tools\MSVC\14.29.30133\atlmfc\include\afxtempl.h
; File D:\git\src\IBK\IBK_DRFN\ProjSrc\SrcChartEx\ChartOCX\ChartToolBar\ButtonProperty.cpp
; File C:\Program Files (x86)\Microsoft Visual Studio\2019\Community\VC\Tools\MSVC\14.29.30133\atlmfc\include\afxwin2.inl
; File D:\git\src\IBK\IBK_DRFN\ProjSrc\SrcChartEx\ChartOCX\ChartToolBar\ButtonProperty.cpp
;	COMDAT ?ReleaseOtherButtonUI@CButtonProperty@@QAEHW4TOOLOPTION@CToolOptionInfo@@ABV?$CStringT@DV?$StrTraitMFC_DLL@DV?$ChTraitsCRT@D@ATL@@@@@ATL@@@Z
_TEXT	SEGMENT
_this$1$ = -4						; size = 4
_pos$1$ = 8						; size = 4
_enumToolOption$ = 8					; size = 4
_strParam$ = 12						; size = 4
?ReleaseOtherButtonUI@CButtonProperty@@QAEHW4TOOLOPTION@CToolOptionInfo@@ABV?$CStringT@DV?$StrTraitMFC_DLL@DV?$ChTraitsCRT@D@ATL@@@@@ATL@@@Z PROC ; CButtonProperty::ReleaseOtherButtonUI, COMDAT
; _this$ = ecx

; 43   : {

  00000	55		 push	 ebp
  00001	8b ec		 mov	 ebp, esp
  00003	51		 push	 ecx

; 44   : 	switch(enumToolOption) 

  00004	8b 45 08	 mov	 eax, DWORD PTR _enumToolOption$[ebp]
  00007	53		 push	 ebx
  00008	8b d9		 mov	 ebx, ecx
  0000a	89 5d fc	 mov	 DWORD PTR _this$1$[ebp], ebx
  0000d	56		 push	 esi
  0000e	57		 push	 edi
  0000f	83 f8 5f	 cmp	 eax, 95			; 0000005fH
  00012	0f 87 57 01 00
	00		 ja	 $LN13@ReleaseOth
  00018	0f b6 80 00 00
	00 00		 movzx	 eax, BYTE PTR $LN111@ReleaseOth[eax]
  0001f	ff 24 85 00 00
	00 00		 jmp	 DWORD PTR $LN112@ReleaseOth[eax*4]
$LN8@ReleaseOth:

; 175  : 	if(m_pButtonList == NULL)

  00026	8b 4b 04	 mov	 ecx, DWORD PTR [ebx+4]
  00029	85 c9		 test	 ecx, ecx
  0002b	0f 84 ac 01 00
	00		 je	 $LN74@ReleaseOth

; 176  : 		return;
; 177  : 
; 178  : 	POSITION pos = m_pButtonList->GetHeadPosition();

  00031	8b 49 04	 mov	 ecx, DWORD PTR [ecx+4]

; 179  : 	while(pos)

  00034	85 c9		 test	 ecx, ecx
  00036	0f 84 a1 01 00
	00		 je	 $LN74@ReleaseOth
  0003c	0f 1f 40 00	 npad	 4
$LL16@ReleaseOth:

; 180  : 	{
; 181  : 		pButton = m_pButtonList->GetNext(pos);

  00040	8b 79 08	 mov	 edi, DWORD PTR [ecx+8]
; File C:\Program Files (x86)\Microsoft Visual Studio\2019\Community\VC\Tools\MSVC\14.29.30133\atlmfc\include\afxtempl.h

; 813  : 		rPosition = (POSITION) pNode->pNext;

  00043	8b 09		 mov	 ecx, DWORD PTR [ecx]
  00045	89 4d 08	 mov	 DWORD PTR _pos$1$[ebp], ecx
; File D:\git\src\IBK\IBK_DRFN\ProjSrc\SrcChartEx\ChartOCX\ChartToolBar\ButtonProperty.cpp

; 183  : 		enumButtonToolOption = pButton->GetToolOptionInfo();

  00048	8b cf		 mov	 ecx, edi
  0004a	e8 00 00 00 00	 call	 ?GetToolOptionInfo@CButtonEx@@QAE?AW4TOOLOPTION@CToolOptionInfo@@XZ ; CButtonEx::GetToolOptionInfo

; 184  : 
; 185  : 		if( pButton->GetState()							// 눌려져있는 버튼에서	
; 186  : 			&& !IsModalessDialog( enumButtonToolOption) // 모달리스Dlg 제외하고
; 187  : 			&& enumButtonToolOption != enumToolOption)	// 자기자신 제외,

  0004f	8b cf		 mov	 ecx, edi
  00051	8b f0		 mov	 esi, eax
  00053	e8 00 00 00 00	 call	 ?GetState@CButtonEx@@QAE_NXZ ; CButtonEx::GetState
  00058	84 c0		 test	 al, al
  0005a	0f 84 89 00 00
	00		 je	 $LN18@ReleaseOth

; 230  : 	switch(enumToolOption)

  00060	8d 46 e5	 lea	 eax, DWORD PTR [esi-27]
  00063	83 f8 36	 cmp	 eax, 54			; 00000036H
  00066	77 0e		 ja	 SHORT $LN50@ReleaseOth
  00068	0f b6 80 00 00
	00 00		 movzx	 eax, BYTE PTR $LN113@ReleaseOth[eax]
  0006f	ff 24 85 00 00
	00 00		 jmp	 DWORD PTR $LN114@ReleaseOth[eax*4]
$LN50@ReleaseOth:

; 187  : 			&& enumButtonToolOption != enumToolOption)	// 자기자신 제외,

  00076	85 f6		 test	 esi, esi
  00078	74 6f		 je	 SHORT $LN18@ReleaseOth

; 188  : 			switch( enumButtonToolOption)

  0007a	8d 46 fe	 lea	 eax, DWORD PTR [esi-2]
  0007d	83 f8 5d	 cmp	 eax, 93			; 0000005dH
  00080	77 0e		 ja	 SHORT $LN30@ReleaseOth
  00082	0f b6 80 00 00
	00 00		 movzx	 eax, BYTE PTR $LN115@ReleaseOth[eax]
  00089	ff 24 85 00 00
	00 00		 jmp	 DWORD PTR $LN116@ReleaseOth[eax*4]
$LN30@ReleaseOth:

; 202  : 			default:	if(strParam == _MTEXT( C4_ZOOM_OUT))	// 축소버튼이면

  00090	a1 54 00 00 00	 mov	 eax, DWORD PTR ?g_iMetaTable@@3VIMetaTable@@A+84
; File C:\Program Files (x86)\Microsoft Visual Studio\2019\Community\VC\Tools\MSVC\14.29.30133\atlmfc\include\cstringt.h

; 2486 : 		return(str1.Compare(psz2) == 0);

  00095	8b 4d 0c	 mov	 ecx, DWORD PTR _strParam$[ebp]
  00098	ff b0 80 0e 00
	00		 push	 DWORD PTR [eax+3712]
  0009e	ff 15 00 00 00
	00		 call	 DWORD PTR __imp_?Compare@?$CStringT@DV?$StrTraitMFC_DLL@DV?$ChTraitsCRT@D@ATL@@@@@ATL@@QBEHPBD@Z
  000a4	85 c0		 test	 eax, eax
; File D:\git\src\IBK\IBK_DRFN\ProjSrc\SrcChartEx\ChartOCX\ChartToolBar\ButtonProperty.cpp

; 202  : 			default:	if(strParam == _MTEXT( C4_ZOOM_OUT))	// 축소버튼이면

  000a6	75 12		 jne	 SHORT $LN31@ReleaseOth

; 203  : 						{
; 204  : 							if(enumButtonToolOption != CToolOptionInfo::T_WHOLEVIEW)	// 전체보기도 제외한 

  000a8	83 fe 01	 cmp	 esi, 1
  000ab	74 26		 je	 SHORT $LN35@ReleaseOth

; 256  : 	m_pParent->ReleaseToolFunction(enumToolOption);

  000ad	8b 4b 08	 mov	 ecx, DWORD PTR [ebx+8]
  000b0	50		 push	 eax
  000b1	50		 push	 eax
  000b2	56		 push	 esi
  000b3	e8 00 00 00 00	 call	 ?ReleaseToolFunction@CToolBarDlg@@QAEXW4TOOLOPTION@CToolOptionInfo@@PAVCButtonEx@@J@Z ; CToolBarDlg::ReleaseToolFunction

; 206  : 						}

  000b8	eb 19		 jmp	 SHORT $LN35@ReleaseOth
$LN31@ReleaseOth:

; 207  : 						else									// 만약 확대버튼일때는
; 208  : 						{
; 209  : 							if(enumButtonToolOption != CToolOptionInfo::T_WHOLEVIEW)

  000ba	8b 4b 08	 mov	 ecx, DWORD PTR [ebx+8]
  000bd	6a 00		 push	 0
  000bf	83 fe 01	 cmp	 esi, 1
  000c2	74 0a		 je	 SHORT $LN34@ReleaseOth

; 256  : 	m_pParent->ReleaseToolFunction(enumToolOption);

  000c4	6a 00		 push	 0
  000c6	56		 push	 esi
  000c7	e8 00 00 00 00	 call	 ?ReleaseToolFunction@CToolBarDlg@@QAEXW4TOOLOPTION@CToolOptionInfo@@PAVCButtonEx@@J@Z ; CToolBarDlg::ReleaseToolFunction

; 210  : 								ReleaseToolOption(enumButtonToolOption);

  000cc	eb 05		 jmp	 SHORT $LN35@ReleaseOth
$LN34@ReleaseOth:

; 211  : 							else								// 전체보기의 경우는 상태만 변경시킨다.
; 212  : 								m_pParent->SetStateWholeView(0);

  000ce	e8 00 00 00 00	 call	 ?SetStateWholeView@CToolBarDlg@@QAEXH@Z ; CToolBarDlg::SetStateWholeView
$LN35@ReleaseOth:

; 213  : 						}
; 214  : 						pButton->SetState(false);				// 버튼상태 다시 Invalidate를 해주고...

  000d3	6a 00		 push	 0
  000d5	8b cf		 mov	 ecx, edi
  000d7	e8 00 00 00 00	 call	 ?SetState@CButtonEx@@QAEX_N@Z ; CButtonEx::SetState
; File C:\Program Files (x86)\Microsoft Visual Studio\2019\Community\VC\Tools\MSVC\14.29.30133\atlmfc\include\afxwin2.inl

; 114  : 	{ ASSERT(::IsWindow(m_hWnd)); ::InvalidateRect(m_hWnd, NULL, bErase); }

  000dc	6a 01		 push	 1
  000de	6a 00		 push	 0
  000e0	ff 77 20	 push	 DWORD PTR [edi+32]
  000e3	ff 15 00 00 00
	00		 call	 DWORD PTR __imp__InvalidateRect@12
$LN18@ReleaseOth:
; File D:\git\src\IBK\IBK_DRFN\ProjSrc\SrcChartEx\ChartOCX\ChartToolBar\ButtonProperty.cpp

; 179  : 	while(pos)

  000e9	8b 4d 08	 mov	 ecx, DWORD PTR _pos$1$[ebp]
  000ec	85 c9		 test	 ecx, ecx
  000ee	0f 85 4c ff ff
	ff		 jne	 $LL16@ReleaseOth

; 45   : 	{
; 46   : 		// (2006/3/4 - Seung-Won, Bae) Do not release Numerical Inquiry DLG and Cross Line.
; 47   : 		//		Cross Line of Inner Toolbar control NumericalInquiryOption Value.
; 48   : 		case CToolOptionInfo::T_NIDLG_DRAG:
; 49   : 		case CToolOptionInfo::T_CROSSHAIRS_DRAG:
; 50   : 		// (2006/6/29 - Seung-Won, Bae) Over Tools
; 51   : 		case CToolOptionInfo::T_NIDLG_OVER:
; 52   : 		case CToolOptionInfo::T_CROSSHAIRS_OVER:
; 53   : 													break;
; 54   : 
; 55   : 		case CToolOptionInfo::T_INFLATE:				// 확대/축소
; 56   : 			// 모달리스Dlg, 레이더, 전체최대최소보기, 외부툴바 제외시킴
; 57   : 			// (2006/6/23 - Seung-Won, Bae) Except the T_CROSSHAIRS_DRAG, T_NIDLG_DRAG
; 58   : 			ReleaseCaseZoom(enumToolOption, strParam);
; 59   : 			break;
; 60   : 		case CToolOptionInfo::T_CHART_PANDF:			// P&F
; 61   : 		case CToolOptionInfo::T_CHART_REVERSE:			// 역시계곡선
; 62   : 		case CToolOptionInfo::T_CHART_THREELINEBREAK:	// 삼선전환도
; 63   : 		case CToolOptionInfo::T_CHART_BARFORSALE:		// 대기매물
; 64   : 			// 외부툴바 제외시킴
; 65   : 			ReleaseCaseSpecialChart(enumToolOption);
; 66   : 			break;
; 67   : 		default:
; 68   : 			// 전체보기, 레이더차트, 전체최대최소보기, 외부툴바 제외시킴.
; 69   : 			ReleaseCaseDefault(enumToolOption);
; 70   : 			break;
; 71   : 	}
; 72   : 
; 73   : 	return 1;

  000f4	5f		 pop	 edi
  000f5	5e		 pop	 esi
  000f6	8d 41 01	 lea	 eax, DWORD PTR [ecx+1]
  000f9	5b		 pop	 ebx

; 74   : }

  000fa	8b e5		 mov	 esp, ebp
  000fc	5d		 pop	 ebp
  000fd	c2 08 00	 ret	 8
$LN9@ReleaseOth:

; 138  : 	if(m_pButtonList == NULL)

  00100	8b 7b 04	 mov	 edi, DWORD PTR [ebx+4]
  00103	85 ff		 test	 edi, edi
  00105	0f 84 d2 00 00
	00		 je	 $LN74@ReleaseOth

; 139  : 		return;
; 140  : 
; 141  : 	POSITION pos = m_pButtonList->GetHeadPosition();

  0010b	8b 7f 04	 mov	 edi, DWORD PTR [edi+4]

; 142  : 	while(pos)

  0010e	85 ff		 test	 edi, edi
  00110	0f 84 c7 00 00
	00		 je	 $LN74@ReleaseOth
$LL61@ReleaseOth:

; 143  : 	{
; 144  : 		pButton = m_pButtonList->GetNext(pos);

  00116	8b 5f 08	 mov	 ebx, DWORD PTR [edi+8]

; 146  : 		enumButtonToolOption = pButton->GetToolOptionInfo();

  00119	8b cb		 mov	 ecx, ebx
; File C:\Program Files (x86)\Microsoft Visual Studio\2019\Community\VC\Tools\MSVC\14.29.30133\atlmfc\include\afxtempl.h

; 813  : 		rPosition = (POSITION) pNode->pNext;

  0011b	8b 3f		 mov	 edi, DWORD PTR [edi]
; File D:\git\src\IBK\IBK_DRFN\ProjSrc\SrcChartEx\ChartOCX\ChartToolBar\ButtonProperty.cpp

; 146  : 		enumButtonToolOption = pButton->GetToolOptionInfo();

  0011d	e8 00 00 00 00	 call	 ?GetToolOptionInfo@CButtonEx@@QAE?AW4TOOLOPTION@CToolOptionInfo@@XZ ; CButtonEx::GetToolOptionInfo

; 147  : 
; 148  : 		if(pButton->GetState() 
; 149  : 			&& enumButtonToolOption != enumToolOption 
; 150  : 			&& enumButtonToolOption != CToolOptionInfo::T_SHOW_OUTERTOOLBAR)

  00122	8b cb		 mov	 ecx, ebx
  00124	8b f0		 mov	 esi, eax
  00126	e8 00 00 00 00	 call	 ?GetState@CButtonEx@@QAE_NXZ ; CButtonEx::GetState
  0012b	84 c0		 test	 al, al
  0012d	74 30		 je	 SHORT $LN64@ReleaseOth
  0012f	3b 75 08	 cmp	 esi, DWORD PTR _enumToolOption$[ebp]
  00132	74 2b		 je	 SHORT $LN64@ReleaseOth
  00134	83 fe 4f	 cmp	 esi, 79			; 0000004fH
  00137	74 26		 je	 SHORT $LN64@ReleaseOth

; 256  : 	m_pParent->ReleaseToolFunction(enumToolOption);

  00139	8b 45 fc	 mov	 eax, DWORD PTR _this$1$[ebp]
  0013c	6a 00		 push	 0
  0013e	6a 00		 push	 0
  00140	56		 push	 esi
  00141	8b 48 08	 mov	 ecx, DWORD PTR [eax+8]
  00144	e8 00 00 00 00	 call	 ?ReleaseToolFunction@CToolBarDlg@@QAEXW4TOOLOPTION@CToolOptionInfo@@PAVCButtonEx@@J@Z ; CToolBarDlg::ReleaseToolFunction

; 153  : 			pButton->SetState(false);				// 버튼상태 다시 Invalidate를 해주고...

  00149	6a 00		 push	 0
  0014b	8b cb		 mov	 ecx, ebx
  0014d	e8 00 00 00 00	 call	 ?SetState@CButtonEx@@QAEX_N@Z ; CButtonEx::SetState
; File C:\Program Files (x86)\Microsoft Visual Studio\2019\Community\VC\Tools\MSVC\14.29.30133\atlmfc\include\afxwin2.inl

; 114  : 	{ ASSERT(::IsWindow(m_hWnd)); ::InvalidateRect(m_hWnd, NULL, bErase); }

  00152	6a 01		 push	 1
  00154	6a 00		 push	 0
  00156	ff 73 20	 push	 DWORD PTR [ebx+32]
  00159	ff 15 00 00 00
	00		 call	 DWORD PTR __imp__InvalidateRect@12
$LN64@ReleaseOth:
; File D:\git\src\IBK\IBK_DRFN\ProjSrc\SrcChartEx\ChartOCX\ChartToolBar\ButtonProperty.cpp

; 142  : 	while(pos)

  0015f	85 ff		 test	 edi, edi
  00161	75 b3		 jne	 SHORT $LL61@ReleaseOth

; 45   : 	{
; 46   : 		// (2006/3/4 - Seung-Won, Bae) Do not release Numerical Inquiry DLG and Cross Line.
; 47   : 		//		Cross Line of Inner Toolbar control NumericalInquiryOption Value.
; 48   : 		case CToolOptionInfo::T_NIDLG_DRAG:
; 49   : 		case CToolOptionInfo::T_CROSSHAIRS_DRAG:
; 50   : 		// (2006/6/29 - Seung-Won, Bae) Over Tools
; 51   : 		case CToolOptionInfo::T_NIDLG_OVER:
; 52   : 		case CToolOptionInfo::T_CROSSHAIRS_OVER:
; 53   : 													break;
; 54   : 
; 55   : 		case CToolOptionInfo::T_INFLATE:				// 확대/축소
; 56   : 			// 모달리스Dlg, 레이더, 전체최대최소보기, 외부툴바 제외시킴
; 57   : 			// (2006/6/23 - Seung-Won, Bae) Except the T_CROSSHAIRS_DRAG, T_NIDLG_DRAG
; 58   : 			ReleaseCaseZoom(enumToolOption, strParam);
; 59   : 			break;
; 60   : 		case CToolOptionInfo::T_CHART_PANDF:			// P&F
; 61   : 		case CToolOptionInfo::T_CHART_REVERSE:			// 역시계곡선
; 62   : 		case CToolOptionInfo::T_CHART_THREELINEBREAK:	// 삼선전환도
; 63   : 		case CToolOptionInfo::T_CHART_BARFORSALE:		// 대기매물
; 64   : 			// 외부툴바 제외시킴
; 65   : 			ReleaseCaseSpecialChart(enumToolOption);
; 66   : 			break;
; 67   : 		default:
; 68   : 			// 전체보기, 레이더차트, 전체최대최소보기, 외부툴바 제외시킴.
; 69   : 			ReleaseCaseDefault(enumToolOption);
; 70   : 			break;
; 71   : 	}
; 72   : 
; 73   : 	return 1;

  00163	8d 47 01	 lea	 eax, DWORD PTR [edi+1]
  00166	5f		 pop	 edi
  00167	5e		 pop	 esi
  00168	5b		 pop	 ebx

; 74   : }

  00169	8b e5		 mov	 esp, ebp
  0016b	5d		 pop	 ebp
  0016c	c2 08 00	 ret	 8
$LN13@ReleaseOth:

; 88   : 	if(m_pButtonList == NULL)

  0016f	8b 7b 04	 mov	 edi, DWORD PTR [ebx+4]
  00172	85 ff		 test	 edi, edi
  00174	74 67		 je	 SHORT $LN74@ReleaseOth

; 89   : 		return;
; 90   : 	
; 91   : 	POSITION pos = m_pButtonList->GetHeadPosition();

  00176	8b 7f 04	 mov	 edi, DWORD PTR [edi+4]

; 92   : 	while(pos)

  00179	85 ff		 test	 edi, edi
  0017b	74 60		 je	 SHORT $LN74@ReleaseOth
  0017d	0f 1f 00	 npad	 3
$LL73@ReleaseOth:

; 93   : 	{
; 94   : 		CButtonEx* pButton = m_pButtonList->GetNext(pos);

  00180	8b 77 08	 mov	 esi, DWORD PTR [edi+8]
; File C:\Program Files (x86)\Microsoft Visual Studio\2019\Community\VC\Tools\MSVC\14.29.30133\atlmfc\include\afxtempl.h

; 813  : 		rPosition = (POSITION) pNode->pNext;

  00183	8b 3f		 mov	 edi, DWORD PTR [edi]
; File D:\git\src\IBK\IBK_DRFN\ProjSrc\SrcChartEx\ChartOCX\ChartToolBar\ButtonProperty.cpp

; 95   : 		if( pButton == NULL) continue;

  00185	85 f6		 test	 esi, esi
  00187	74 50		 je	 SHORT $LN75@ReleaseOth

; 96   : 		// 버튼이 눌려져있고
; 97   : 		if( !pButton->GetState()) continue;

  00189	8b ce		 mov	 ecx, esi
  0018b	e8 00 00 00 00	 call	 ?GetState@CButtonEx@@QAE_NXZ ; CButtonEx::GetState
  00190	84 c0		 test	 al, al
  00192	74 45		 je	 SHORT $LN75@ReleaseOth

; 98   : 
; 99   : 		enumButtonToolOption = pButton->GetToolOptionInfo();

  00194	8b ce		 mov	 ecx, esi
  00196	e8 00 00 00 00	 call	 ?GetToolOptionInfo@CButtonEx@@QAE?AW4TOOLOPTION@CToolOptionInfo@@XZ ; CButtonEx::GetToolOptionInfo

; 100  : 		// 자기자신은 제외하고
; 101  : 		if( enumButtonToolOption == enumToolOption) continue;

  0019b	3b 45 08	 cmp	 eax, DWORD PTR _enumToolOption$[ebp]
  0019e	74 39		 je	 SHORT $LN75@ReleaseOth

; 102  : 
; 103  : 		switch( enumButtonToolOption)

  001a0	8d 48 ff	 lea	 ecx, DWORD PTR [eax-1]
  001a3	83 f9 5e	 cmp	 ecx, 94			; 0000005eH
  001a6	77 0e		 ja	 SHORT $LN90@ReleaseOth
  001a8	0f b6 89 00 00
	00 00		 movzx	 ecx, BYTE PTR $LN117@ReleaseOth[ecx]
  001af	ff 24 8d 00 00
	00 00		 jmp	 DWORD PTR $LN118@ReleaseOth[ecx*4]
$LN90@ReleaseOth:

; 256  : 	m_pParent->ReleaseToolFunction(enumToolOption);

  001b6	8b 4b 08	 mov	 ecx, DWORD PTR [ebx+8]
  001b9	6a 00		 push	 0
  001bb	6a 00		 push	 0
  001bd	50		 push	 eax
  001be	e8 00 00 00 00	 call	 ?ReleaseToolFunction@CToolBarDlg@@QAEXW4TOOLOPTION@CToolOptionInfo@@PAVCButtonEx@@J@Z ; CToolBarDlg::ReleaseToolFunction

; 119  : 						pButton->SetState(false);				// 버튼상태 다시 Invalidate를 해주고...

  001c3	6a 00		 push	 0
  001c5	8b ce		 mov	 ecx, esi
  001c7	e8 00 00 00 00	 call	 ?SetState@CButtonEx@@QAEX_N@Z ; CButtonEx::SetState
; File C:\Program Files (x86)\Microsoft Visual Studio\2019\Community\VC\Tools\MSVC\14.29.30133\atlmfc\include\afxwin2.inl

; 114  : 	{ ASSERT(::IsWindow(m_hWnd)); ::InvalidateRect(m_hWnd, NULL, bErase); }

  001cc	6a 01		 push	 1
  001ce	6a 00		 push	 0
  001d0	ff 76 20	 push	 DWORD PTR [esi+32]
  001d3	ff 15 00 00 00
	00		 call	 DWORD PTR __imp__InvalidateRect@12
$LN75@ReleaseOth:
; File D:\git\src\IBK\IBK_DRFN\ProjSrc\SrcChartEx\ChartOCX\ChartToolBar\ButtonProperty.cpp

; 92   : 	while(pos)

  001d9	85 ff		 test	 edi, edi
  001db	75 a3		 jne	 SHORT $LL73@ReleaseOth
$LN74@ReleaseOth:

; 45   : 	{
; 46   : 		// (2006/3/4 - Seung-Won, Bae) Do not release Numerical Inquiry DLG and Cross Line.
; 47   : 		//		Cross Line of Inner Toolbar control NumericalInquiryOption Value.
; 48   : 		case CToolOptionInfo::T_NIDLG_DRAG:
; 49   : 		case CToolOptionInfo::T_CROSSHAIRS_DRAG:
; 50   : 		// (2006/6/29 - Seung-Won, Bae) Over Tools
; 51   : 		case CToolOptionInfo::T_NIDLG_OVER:
; 52   : 		case CToolOptionInfo::T_CROSSHAIRS_OVER:
; 53   : 													break;
; 54   : 
; 55   : 		case CToolOptionInfo::T_INFLATE:				// 확대/축소
; 56   : 			// 모달리스Dlg, 레이더, 전체최대최소보기, 외부툴바 제외시킴
; 57   : 			// (2006/6/23 - Seung-Won, Bae) Except the T_CROSSHAIRS_DRAG, T_NIDLG_DRAG
; 58   : 			ReleaseCaseZoom(enumToolOption, strParam);
; 59   : 			break;
; 60   : 		case CToolOptionInfo::T_CHART_PANDF:			// P&F
; 61   : 		case CToolOptionInfo::T_CHART_REVERSE:			// 역시계곡선
; 62   : 		case CToolOptionInfo::T_CHART_THREELINEBREAK:	// 삼선전환도
; 63   : 		case CToolOptionInfo::T_CHART_BARFORSALE:		// 대기매물
; 64   : 			// 외부툴바 제외시킴
; 65   : 			ReleaseCaseSpecialChart(enumToolOption);
; 66   : 			break;
; 67   : 		default:
; 68   : 			// 전체보기, 레이더차트, 전체최대최소보기, 외부툴바 제외시킴.
; 69   : 			ReleaseCaseDefault(enumToolOption);
; 70   : 			break;
; 71   : 	}
; 72   : 
; 73   : 	return 1;

  001dd	5f		 pop	 edi
  001de	5e		 pop	 esi
  001df	b8 01 00 00 00	 mov	 eax, 1
  001e4	5b		 pop	 ebx

; 74   : }

  001e5	8b e5		 mov	 esp, ebp
  001e7	5d		 pop	 ebp
  001e8	c2 08 00	 ret	 8
  001eb	90		 npad	 1
$LN112@ReleaseOth:
  001ec	00 00 00 00	 DD	 $LN8@ReleaseOth
  001f0	00 00 00 00	 DD	 $LN74@ReleaseOth
  001f4	00 00 00 00	 DD	 $LN9@ReleaseOth
  001f8	00 00 00 00	 DD	 $LN13@ReleaseOth
$LN111@ReleaseOth:
  001fc	00		 DB	 0
  001fd	03		 DB	 3
  001fe	01		 DB	 1
  001ff	03		 DB	 3
  00200	03		 DB	 3
  00201	03		 DB	 3
  00202	03		 DB	 3
  00203	03		 DB	 3
  00204	03		 DB	 3
  00205	03		 DB	 3
  00206	03		 DB	 3
  00207	03		 DB	 3
  00208	03		 DB	 3
  00209	03		 DB	 3
  0020a	03		 DB	 3
  0020b	03		 DB	 3
  0020c	03		 DB	 3
  0020d	03		 DB	 3
  0020e	03		 DB	 3
  0020f	03		 DB	 3
  00210	03		 DB	 3
  00211	03		 DB	 3
  00212	03		 DB	 3
  00213	02		 DB	 2
  00214	02		 DB	 2
  00215	02		 DB	 2
  00216	02		 DB	 2
  00217	03		 DB	 3
  00218	03		 DB	 3
  00219	03		 DB	 3
  0021a	03		 DB	 3
  0021b	03		 DB	 3
  0021c	03		 DB	 3
  0021d	03		 DB	 3
  0021e	03		 DB	 3
  0021f	01		 DB	 1
  00220	03		 DB	 3
  00221	03		 DB	 3
  00222	03		 DB	 3
  00223	03		 DB	 3
  00224	03		 DB	 3
  00225	03		 DB	 3
  00226	03		 DB	 3
  00227	03		 DB	 3
  00228	03		 DB	 3
  00229	03		 DB	 3
  0022a	03		 DB	 3
  0022b	03		 DB	 3
  0022c	03		 DB	 3
  0022d	03		 DB	 3
  0022e	03		 DB	 3
  0022f	03		 DB	 3
  00230	03		 DB	 3
  00231	03		 DB	 3
  00232	03		 DB	 3
  00233	03		 DB	 3
  00234	03		 DB	 3
  00235	03		 DB	 3
  00236	03		 DB	 3
  00237	03		 DB	 3
  00238	03		 DB	 3
  00239	03		 DB	 3
  0023a	03		 DB	 3
  0023b	03		 DB	 3
  0023c	03		 DB	 3
  0023d	03		 DB	 3
  0023e	03		 DB	 3
  0023f	03		 DB	 3
  00240	03		 DB	 3
  00241	03		 DB	 3
  00242	03		 DB	 3
  00243	03		 DB	 3
  00244	03		 DB	 3
  00245	03		 DB	 3
  00246	03		 DB	 3
  00247	03		 DB	 3
  00248	03		 DB	 3
  00249	03		 DB	 3
  0024a	03		 DB	 3
  0024b	03		 DB	 3
  0024c	03		 DB	 3
  0024d	03		 DB	 3
  0024e	03		 DB	 3
  0024f	03		 DB	 3
  00250	03		 DB	 3
  00251	03		 DB	 3
  00252	03		 DB	 3
  00253	03		 DB	 3
  00254	03		 DB	 3
  00255	03		 DB	 3
  00256	03		 DB	 3
  00257	03		 DB	 3
  00258	03		 DB	 3
  00259	03		 DB	 3
  0025a	01		 DB	 1
  0025b	01		 DB	 1
$LN114@ReleaseOth:
  0025c	00 00 00 00	 DD	 $LN18@ReleaseOth
  00260	00 00 00 00	 DD	 $LN50@ReleaseOth
$LN113@ReleaseOth:
  00264	00		 DB	 0
  00265	01		 DB	 1
  00266	01		 DB	 1
  00267	01		 DB	 1
  00268	01		 DB	 1
  00269	01		 DB	 1
  0026a	01		 DB	 1
  0026b	01		 DB	 1
  0026c	01		 DB	 1
  0026d	01		 DB	 1
  0026e	01		 DB	 1
  0026f	01		 DB	 1
  00270	01		 DB	 1
  00271	01		 DB	 1
  00272	01		 DB	 1
  00273	01		 DB	 1
  00274	01		 DB	 1
  00275	01		 DB	 1
  00276	01		 DB	 1
  00277	01		 DB	 1
  00278	01		 DB	 1
  00279	01		 DB	 1
  0027a	01		 DB	 1
  0027b	01		 DB	 1
  0027c	01		 DB	 1
  0027d	01		 DB	 1
  0027e	01		 DB	 1
  0027f	01		 DB	 1
  00280	01		 DB	 1
  00281	01		 DB	 1
  00282	01		 DB	 1
  00283	01		 DB	 1
  00284	01		 DB	 1
  00285	01		 DB	 1
  00286	01		 DB	 1
  00287	00		 DB	 0
  00288	01		 DB	 1
  00289	00		 DB	 0
  0028a	00		 DB	 0
  0028b	00		 DB	 0
  0028c	01		 DB	 1
  0028d	01		 DB	 1
  0028e	01		 DB	 1
  0028f	01		 DB	 1
  00290	01		 DB	 1
  00291	01		 DB	 1
  00292	01		 DB	 1
  00293	01		 DB	 1
  00294	00		 DB	 0
  00295	00		 DB	 0
  00296	01		 DB	 1
  00297	01		 DB	 1
  00298	01		 DB	 1
  00299	01		 DB	 1
  0029a	00		 DB	 0
  0029b	90		 npad	 1
$LN116@ReleaseOth:
  0029c	00 00 00 00	 DD	 $LN18@ReleaseOth
  002a0	00 00 00 00	 DD	 $LN30@ReleaseOth
$LN115@ReleaseOth:
  002a4	00		 DB	 0
  002a5	01		 DB	 1
  002a6	01		 DB	 1
  002a7	01		 DB	 1
  002a8	01		 DB	 1
  002a9	01		 DB	 1
  002aa	01		 DB	 1
  002ab	01		 DB	 1
  002ac	01		 DB	 1
  002ad	01		 DB	 1
  002ae	01		 DB	 1
  002af	01		 DB	 1
  002b0	01		 DB	 1
  002b1	01		 DB	 1
  002b2	01		 DB	 1
  002b3	01		 DB	 1
  002b4	01		 DB	 1
  002b5	01		 DB	 1
  002b6	01		 DB	 1
  002b7	01		 DB	 1
  002b8	00		 DB	 0
  002b9	01		 DB	 1
  002ba	01		 DB	 1
  002bb	01		 DB	 1
  002bc	01		 DB	 1
  002bd	01		 DB	 1
  002be	01		 DB	 1
  002bf	01		 DB	 1
  002c0	01		 DB	 1
  002c1	01		 DB	 1
  002c2	01		 DB	 1
  002c3	01		 DB	 1
  002c4	01		 DB	 1
  002c5	00		 DB	 0
  002c6	01		 DB	 1
  002c7	01		 DB	 1
  002c8	01		 DB	 1
  002c9	01		 DB	 1
  002ca	01		 DB	 1
  002cb	01		 DB	 1
  002cc	01		 DB	 1
  002cd	01		 DB	 1
  002ce	01		 DB	 1
  002cf	01		 DB	 1
  002d0	01		 DB	 1
  002d1	01		 DB	 1
  002d2	01		 DB	 1
  002d3	01		 DB	 1
  002d4	01		 DB	 1
  002d5	01		 DB	 1
  002d6	01		 DB	 1
  002d7	01		 DB	 1
  002d8	01		 DB	 1
  002d9	01		 DB	 1
  002da	01		 DB	 1
  002db	01		 DB	 1
  002dc	01		 DB	 1
  002dd	01		 DB	 1
  002de	01		 DB	 1
  002df	01		 DB	 1
  002e0	01		 DB	 1
  002e1	01		 DB	 1
  002e2	01		 DB	 1
  002e3	01		 DB	 1
  002e4	01		 DB	 1
  002e5	01		 DB	 1
  002e6	01		 DB	 1
  002e7	01		 DB	 1
  002e8	01		 DB	 1
  002e9	01		 DB	 1
  002ea	01		 DB	 1
  002eb	01		 DB	 1
  002ec	00		 DB	 0
  002ed	01		 DB	 1
  002ee	00		 DB	 0
  002ef	01		 DB	 1
  002f0	01		 DB	 1
  002f1	00		 DB	 0
  002f2	01		 DB	 1
  002f3	01		 DB	 1
  002f4	01		 DB	 1
  002f5	01		 DB	 1
  002f6	01		 DB	 1
  002f7	01		 DB	 1
  002f8	01		 DB	 1
  002f9	01		 DB	 1
  002fa	01		 DB	 1
  002fb	01		 DB	 1
  002fc	01		 DB	 1
  002fd	01		 DB	 1
  002fe	01		 DB	 1
  002ff	01		 DB	 1
  00300	00		 DB	 0
  00301	00		 DB	 0
  00302	66 90		 npad	 2
$LN118@ReleaseOth:
  00304	00 00 00 00	 DD	 $LN75@ReleaseOth
  00308	00 00 00 00	 DD	 $LN90@ReleaseOth
$LN117@ReleaseOth:
  0030c	00		 DB	 0
  0030d	00		 DB	 0
  0030e	01		 DB	 1
  0030f	01		 DB	 1
  00310	01		 DB	 1
  00311	01		 DB	 1
  00312	01		 DB	 1
  00313	01		 DB	 1
  00314	01		 DB	 1
  00315	01		 DB	 1
  00316	01		 DB	 1
  00317	01		 DB	 1
  00318	01		 DB	 1
  00319	01		 DB	 1
  0031a	01		 DB	 1
  0031b	01		 DB	 1
  0031c	01		 DB	 1
  0031d	01		 DB	 1
  0031e	01		 DB	 1
  0031f	01		 DB	 1
  00320	01		 DB	 1
  00321	00		 DB	 0
  00322	01		 DB	 1
  00323	01		 DB	 1
  00324	01		 DB	 1
  00325	01		 DB	 1
  00326	01		 DB	 1
  00327	01		 DB	 1
  00328	01		 DB	 1
  00329	01		 DB	 1
  0032a	01		 DB	 1
  0032b	01		 DB	 1
  0032c	01		 DB	 1
  0032d	01		 DB	 1
  0032e	00		 DB	 0
  0032f	01		 DB	 1
  00330	01		 DB	 1
  00331	01		 DB	 1
  00332	01		 DB	 1
  00333	01		 DB	 1
  00334	01		 DB	 1
  00335	01		 DB	 1
  00336	01		 DB	 1
  00337	01		 DB	 1
  00338	01		 DB	 1
  00339	01		 DB	 1
  0033a	01		 DB	 1
  0033b	01		 DB	 1
  0033c	01		 DB	 1
  0033d	01		 DB	 1
  0033e	01		 DB	 1
  0033f	01		 DB	 1
  00340	01		 DB	 1
  00341	01		 DB	 1
  00342	01		 DB	 1
  00343	01		 DB	 1
  00344	01		 DB	 1
  00345	01		 DB	 1
  00346	01		 DB	 1
  00347	01		 DB	 1
  00348	01		 DB	 1
  00349	01		 DB	 1
  0034a	01		 DB	 1
  0034b	01		 DB	 1
  0034c	01		 DB	 1
  0034d	01		 DB	 1
  0034e	01		 DB	 1
  0034f	01		 DB	 1
  00350	01		 DB	 1
  00351	01		 DB	 1
  00352	01		 DB	 1
  00353	01		 DB	 1
  00354	01		 DB	 1
  00355	00		 DB	 0
  00356	01		 DB	 1
  00357	00		 DB	 0
  00358	01		 DB	 1
  00359	01		 DB	 1
  0035a	00		 DB	 0
  0035b	01		 DB	 1
  0035c	01		 DB	 1
  0035d	01		 DB	 1
  0035e	01		 DB	 1
  0035f	01		 DB	 1
  00360	01		 DB	 1
  00361	01		 DB	 1
  00362	01		 DB	 1
  00363	01		 DB	 1
  00364	01		 DB	 1
  00365	01		 DB	 1
  00366	01		 DB	 1
  00367	01		 DB	 1
  00368	01		 DB	 1
  00369	00		 DB	 0
  0036a	00		 DB	 0
?ReleaseOtherButtonUI@CButtonProperty@@QAEHW4TOOLOPTION@CToolOptionInfo@@ABV?$CStringT@DV?$StrTraitMFC_DLL@DV?$ChTraitsCRT@D@ATL@@@@@ATL@@@Z ENDP ; CButtonProperty::ReleaseOtherButtonUI
_TEXT	ENDS
; Function compile flags: /Ogtp
; File D:\git\src\IBK\IBK_DRFN\ProjSrc\SrcChartEx\ChartOCX\ChartToolBar\ButtonProperty.cpp
;	COMDAT ??1CButtonProperty@@UAE@XZ
_TEXT	SEGMENT
??1CButtonProperty@@UAE@XZ PROC				; CButtonProperty::~CButtonProperty, COMDAT
; _this$ = ecx

; 30   : {

  00000	c7 01 00 00 00
	00		 mov	 DWORD PTR [ecx], OFFSET ??_7CButtonProperty@@6B@

; 31   : }

  00006	c3		 ret	 0
??1CButtonProperty@@UAE@XZ ENDP				; CButtonProperty::~CButtonProperty
_TEXT	ENDS
; Function compile flags: /Ogtp
; File D:\git\src\IBK\IBK_DRFN\ProjSrc\SrcChartEx\ChartOCX\ChartToolBar\ButtonProperty.cpp
;	COMDAT ??0CButtonProperty@@QAE@PAVCWnd@@PAV?$CList@PAVCButtonEx@@PAV1@@@@Z
_TEXT	SEGMENT
_pParent$ = 8						; size = 4
_pButtonList$ = 12					; size = 4
??0CButtonProperty@@QAE@PAVCWnd@@PAV?$CList@PAVCButtonEx@@PAV1@@@@Z PROC ; CButtonProperty::CButtonProperty, COMDAT
; _this$ = ecx

; 24   : {

  00000	55		 push	 ebp
  00001	8b ec		 mov	 ebp, esp

; 25   : 	m_pButtonList = pButtonList;

  00003	8b 45 0c	 mov	 eax, DWORD PTR _pButtonList$[ebp]
  00006	89 41 04	 mov	 DWORD PTR [ecx+4], eax

; 26   : 	m_pParent = (CToolBarDlg*) pParent;

  00009	8b 45 08	 mov	 eax, DWORD PTR _pParent$[ebp]
  0000c	89 41 08	 mov	 DWORD PTR [ecx+8], eax

; 27   : }

  0000f	8b c1		 mov	 eax, ecx
  00011	c7 01 00 00 00
	00		 mov	 DWORD PTR [ecx], OFFSET ??_7CButtonProperty@@6B@
  00017	5d		 pop	 ebp
  00018	c2 08 00	 ret	 8
??0CButtonProperty@@QAE@PAVCWnd@@PAV?$CList@PAVCButtonEx@@PAV1@@@@Z ENDP ; CButtonProperty::CButtonProperty
_TEXT	ENDS
; Function compile flags: /Ogtp
; File D:\git\src\IBK\IBK_DRFN\ProjSrc\SrcChartEx\ChartOCX\ChartToolBar\ButtonProperty.cpp
;	COMDAT ?__empty_global_delete@@YAXPAXI@Z
_TEXT	SEGMENT
___formal$ = 8						; size = 4
___formal$ = 12						; size = 4
?__empty_global_delete@@YAXPAXI@Z PROC			; __empty_global_delete, COMDAT

  00000	c2 00 00	 ret	 0
?__empty_global_delete@@YAXPAXI@Z ENDP			; __empty_global_delete
_TEXT	ENDS
; Function compile flags: /Ogtp
; File D:\git\src\IBK\IBK_DRFN\ProjSrc\SrcChartEx\ChartOCX\ChartToolBar\ButtonProperty.cpp
;	COMDAT ?__empty_global_delete@@YAXPAX@Z
_TEXT	SEGMENT
___formal$ = 8						; size = 4
?__empty_global_delete@@YAXPAX@Z PROC			; __empty_global_delete, COMDAT

  00000	c2 00 00	 ret	 0
?__empty_global_delete@@YAXPAX@Z ENDP			; __empty_global_delete
_TEXT	ENDS
END
