; Listing generated by Microsoft (R) Optimizing Compiler Version 19.29.30145.0 

	TITLE	D:\git\src\IBK\IBK_DRFN\#DRfn-CS\_Obj\ChartToolBar\CtrlFactory.obj
	.686P
	.XMM
	include listing.inc
	.model	flat

INCLUDELIB MSVCRT
INCLUDELIB OLDNAMES

PUBLIC	??_C@_01GBGANLPD@0@				; `string'
PUBLIC	??_C@_01HIHLOKLC@1@				; `string'
PUBLIC	??_C@_01FDFGLJHB@2@				; `string'
PUBLIC	??_C@_01EKENIIDA@3@				; `string'
PUBLIC	??_C@_01FAMBOPH@4@				; `string'
PUBLIC	??_C@_01BMBHCPLG@5@				; `string'
;	COMDAT ??_C@_01BMBHCPLG@5@
CONST	SEGMENT
??_C@_01BMBHCPLG@5@ DB '5', 00H				; `string'
CONST	ENDS
;	COMDAT ??_C@_01FAMBOPH@4@
CONST	SEGMENT
??_C@_01FAMBOPH@4@ DB '4', 00H				; `string'
CONST	ENDS
;	COMDAT ??_C@_01EKENIIDA@3@
CONST	SEGMENT
??_C@_01EKENIIDA@3@ DB '3', 00H				; `string'
CONST	ENDS
;	COMDAT ??_C@_01FDFGLJHB@2@
CONST	SEGMENT
??_C@_01FDFGLJHB@2@ DB '2', 00H				; `string'
CONST	ENDS
;	COMDAT ??_C@_01HIHLOKLC@1@
CONST	SEGMENT
??_C@_01HIHLOKLC@1@ DB '1', 00H				; `string'
CONST	ENDS
;	COMDAT ??_C@_01GBGANLPD@0@
CONST	SEGMENT
??_C@_01GBGANLPD@0@ DB '0', 00H				; `string'
CONST	ENDS
PUBLIC	?__empty_global_delete@@YAXPAX@Z		; __empty_global_delete
PUBLIC	?__empty_global_delete@@YAXPAXI@Z		; __empty_global_delete
PUBLIC	??3CObject@@SGXPAX@Z				; CObject::operator delete
PUBLIC	??0CCtrlFactory@@QAE@PAUIChartCtrl@@PAVCWnd@@VCRect@@_N3H3@Z ; CCtrlFactory::CCtrlFactory
PUBLIC	??1CCtrlFactory@@UAE@XZ				; CCtrlFactory::~CCtrlFactory
PUBLIC	?Initialize@CCtrlFactory@@QAEXXZ		; CCtrlFactory::Initialize
PUBLIC	?CreateScrollBar@CCtrlFactory@@QAEPAVCScrollBarEx@@XZ ; CCtrlFactory::CreateScrollBar
PUBLIC	?CreateSliderCtrl@CCtrlFactory@@QAEPAVCSliderCtrlEx@@XZ ; CCtrlFactory::CreateSliderCtrl
PUBLIC	?CreateGraphStyleCombo@CCtrlFactory@@QAEPAVCGraphStyleCombo@@ABV?$CStringT@DV?$StrTraitMFC_DLL@DV?$ChTraitsCRT@D@ATL@@@@@ATL@@@Z ; CCtrlFactory::CreateGraphStyleCombo
PUBLIC	?CreatreGraphLineThicknessCombo@CCtrlFactory@@QAEPAVCGraphLineThicknessCombo@@ABV?$CStringT@DV?$StrTraitMFC_DLL@DV?$ChTraitsCRT@D@ATL@@@@@ATL@@@Z ; CCtrlFactory::CreatreGraphLineThicknessCombo
PUBLIC	?CreateRadarControl@CCtrlFactory@@QAEPAVCRadarControl@@XZ ; CCtrlFactory::CreateRadarControl
PUBLIC	?CreateButton@CCtrlFactory@@QAEPAVCButtonEx@@PAVCObjTool@@ABV?$CStringT@DV?$StrTraitMFC_DLL@DV?$ChTraitsCRT@D@ATL@@@@@ATL@@@Z ; CCtrlFactory::CreateButton
PUBLIC	??_GCCtrlFactory@@UAEPAXI@Z			; CCtrlFactory::`scalar deleting destructor'
PUBLIC	??1CMultiLanguageResourceSetter@@QAE@XZ		; CMultiLanguageResourceSetter::~CMultiLanguageResourceSetter
PUBLIC	??_C@_01HMGJMAIH@B@				; `string'
PUBLIC	??_7CCtrlFactory@@6B@				; CCtrlFactory::`vftable'
PUBLIC	??_R4CCtrlFactory@@6B@				; CCtrlFactory::`RTTI Complete Object Locator'
PUBLIC	??_R0?AVCCtrlFactory@@@8			; CCtrlFactory `RTTI Type Descriptor'
PUBLIC	??_R3CCtrlFactory@@8				; CCtrlFactory::`RTTI Class Hierarchy Descriptor'
PUBLIC	??_R2CCtrlFactory@@8				; CCtrlFactory::`RTTI Base Class Array'
PUBLIC	??_R1A@?0A@EA@CCtrlFactory@@8			; CCtrlFactory::`RTTI Base Class Descriptor at (0,-1,0,64)'
EXTRN	??2@YAPAXI@Z:PROC				; operator new
EXTRN	??3@YAXPAX@Z:PROC				; operator delete
EXTRN	??3@YAXPAXI@Z:PROC				; operator delete
EXTRN	___std_terminate:PROC
EXTRN	__imp__SendMessageA@16:PROC
EXTRN	__imp__GetParent@4:PROC
EXTRN	__imp__LoadBitmapW@8:PROC
EXTRN	__imp_??0?$CStringT@DV?$StrTraitMFC_DLL@DV?$ChTraitsCRT@D@ATL@@@@@ATL@@QAE@PBD@Z:PROC
EXTRN	__imp_??1?$CStringT@DV?$StrTraitMFC_DLL@DV?$ChTraitsCRT@D@ATL@@@@@ATL@@QAE@XZ:PROC
EXTRN	?AfxGetModuleState@@YGPAVAFX_MODULE_STATE@@XZ:PROC ; AfxGetModuleState
EXTRN	?AfxGetStaticModuleState@@YGPAVAFX_MODULE_STATE@@XZ:PROC ; AfxGetStaticModuleState
EXTRN	?Attach@CGdiObject@@QAEHPAX@Z:PROC		; CGdiObject::Attach
EXTRN	?DeleteObject@CGdiObject@@QAEHXZ:PROC		; CGdiObject::DeleteObject
EXTRN	?FromHandle@CWnd@@SGPAV1@PAUHWND__@@@Z:PROC	; CWnd::FromHandle
EXTRN	?AfxFindResourceHandle@@YGPAUHINSTANCE__@@PBD0@Z:PROC ; AfxFindResourceHandle
EXTRN	??_ECCtrlFactory@@UAEPAXI@Z:PROC		; CCtrlFactory::`vector deleting destructor'
EXTRN	?GetLanguageText@IMetaTable@@QAEPBDPAUHWND__@@W4E_CODEPAGE@1@PBDH@Z:PROC ; IMetaTable::GetLanguageText
EXTRN	??0CScrollBarEx@@QAE@PAUIChartCtrl@@H@Z:PROC	; CScrollBarEx::CScrollBarEx
EXTRN	??0CSliderCtrlEx@@QAE@XZ:PROC			; CSliderCtrlEx::CSliderCtrlEx
EXTRN	?SetToolObject@CButtonEx@@QAEXPAVCObjTool@@ABV?$CStringT@DV?$StrTraitMFC_DLL@DV?$ChTraitsCRT@D@ATL@@@@@ATL@@@Z:PROC ; CButtonEx::SetToolObject
EXTRN	??0CToggleButton@@QAE@XZ:PROC			; CToggleButton::CToggleButton
EXTRN	??0CNotToggleButton@@QAE@XZ:PROC		; CNotToggleButton::CNotToggleButton
EXTRN	?SetToolTipText@CImageComboBox@@QAEXABV?$CStringT@DV?$StrTraitMFC_DLL@DV?$ChTraitsCRT@D@ATL@@@@@ATL@@@Z:PROC ; CImageComboBox::SetToolTipText
EXTRN	?GetBitmap@CImageComboBox@@QAEAAVCBitmap@@XZ:PROC ; CImageComboBox::GetBitmap
EXTRN	??0CGraphStyleCombo@@QAE@XZ:PROC		; CGraphStyleCombo::CGraphStyleCombo
EXTRN	?SetGraphType@CGraphStyleCombo@@QAEXW4GRAPHTYPE@CGraphBaseData@@H@Z:PROC ; CGraphStyleCombo::SetGraphType
EXTRN	??0CGraphLineThicknessCombo@@QAE@XZ:PROC	; CGraphLineThicknessCombo::CGraphLineThicknessCombo
EXTRN	?AddLineType@CGraphLineThicknessCombo@@QAEXH@Z:PROC ; CGraphLineThicknessCombo::AddLineType
EXTRN	??0CRadarControl@@QAE@XZ:PROC			; CRadarControl::CRadarControl
EXTRN	?Create@CRadarControl@@QAE_NPAVCWnd@@I@Z:PROC	; CRadarControl::Create
EXTRN	?IsToggleButton@@YA_NW4TOOLOPTION@CToolOptionInfo@@ABV?$CStringT@DV?$StrTraitMFC_DLL@DV?$ChTraitsCRT@D@ATL@@@@@ATL@@@Z:PROC ; IsToggleButton
EXTRN	@__security_check_cookie@4:PROC
EXTRN	___CxxFrameHandler3:PROC
EXTRN	??_7type_info@@6B@:QWORD			; type_info::`vftable'
EXTRN	?g_iMetaTable@@3VIMetaTable@@A:BYTE		; g_iMetaTable
EXTRN	___security_cookie:DWORD
;	COMDAT ??_R1A@?0A@EA@CCtrlFactory@@8
rdata$r	SEGMENT
??_R1A@?0A@EA@CCtrlFactory@@8 DD FLAT:??_R0?AVCCtrlFactory@@@8 ; CCtrlFactory::`RTTI Base Class Descriptor at (0,-1,0,64)'
	DD	00H
	DD	00H
	DD	0ffffffffH
	DD	00H
	DD	040H
	DD	FLAT:??_R3CCtrlFactory@@8
rdata$r	ENDS
;	COMDAT ??_R2CCtrlFactory@@8
rdata$r	SEGMENT
??_R2CCtrlFactory@@8 DD FLAT:??_R1A@?0A@EA@CCtrlFactory@@8 ; CCtrlFactory::`RTTI Base Class Array'
rdata$r	ENDS
;	COMDAT ??_R3CCtrlFactory@@8
rdata$r	SEGMENT
??_R3CCtrlFactory@@8 DD 00H				; CCtrlFactory::`RTTI Class Hierarchy Descriptor'
	DD	00H
	DD	01H
	DD	FLAT:??_R2CCtrlFactory@@8
rdata$r	ENDS
;	COMDAT ??_R0?AVCCtrlFactory@@@8
data$rs	SEGMENT
??_R0?AVCCtrlFactory@@@8 DD FLAT:??_7type_info@@6B@	; CCtrlFactory `RTTI Type Descriptor'
	DD	00H
	DB	'.?AVCCtrlFactory@@', 00H
data$rs	ENDS
;	COMDAT ??_R4CCtrlFactory@@6B@
rdata$r	SEGMENT
??_R4CCtrlFactory@@6B@ DD 00H				; CCtrlFactory::`RTTI Complete Object Locator'
	DD	00H
	DD	00H
	DD	FLAT:??_R0?AVCCtrlFactory@@@8
	DD	FLAT:??_R3CCtrlFactory@@8
rdata$r	ENDS
;	COMDAT ??_7CCtrlFactory@@6B@
CONST	SEGMENT
??_7CCtrlFactory@@6B@ DD FLAT:??_R4CCtrlFactory@@6B@	; CCtrlFactory::`vftable'
	DD	FLAT:??_ECCtrlFactory@@UAEPAXI@Z
CONST	ENDS
;	COMDAT ??_C@_01HMGJMAIH@B@
CONST	SEGMENT
??_C@_01HMGJMAIH@B@ DB 'B', 00H				; `string'
CONST	ENDS
;	COMDAT xdata$x
xdata$x	SEGMENT
__ehfuncinfo$??1CMultiLanguageResourceSetter@@QAE@XZ DD 019930522H
	DD	00H
	DD	00H
	DD	2 DUP(00H)
	DD	2 DUP(00H)
	DD	00H
	DD	05H
xdata$x	ENDS
;	COMDAT xdata$x
xdata$x	SEGMENT
__unwindtable$?CreateButton@CCtrlFactory@@QAEPAVCButtonEx@@PAVCObjTool@@ABV?$CStringT@DV?$StrTraitMFC_DLL@DV?$ChTraitsCRT@D@ATL@@@@@ATL@@@Z DD 0ffffffffH
	DD	FLAT:__unwindfunclet$?CreateButton@CCtrlFactory@@QAEPAVCButtonEx@@PAVCObjTool@@ABV?$CStringT@DV?$StrTraitMFC_DLL@DV?$ChTraitsCRT@D@ATL@@@@@ATL@@@Z$0
	DD	0ffffffffH
	DD	FLAT:__unwindfunclet$?CreateButton@CCtrlFactory@@QAEPAVCButtonEx@@PAVCObjTool@@ABV?$CStringT@DV?$StrTraitMFC_DLL@DV?$ChTraitsCRT@D@ATL@@@@@ATL@@@Z$1
__ehfuncinfo$?CreateButton@CCtrlFactory@@QAEPAVCButtonEx@@PAVCObjTool@@ABV?$CStringT@DV?$StrTraitMFC_DLL@DV?$ChTraitsCRT@D@ATL@@@@@ATL@@@Z DD 019930522H
	DD	02H
	DD	FLAT:__unwindtable$?CreateButton@CCtrlFactory@@QAEPAVCButtonEx@@PAVCObjTool@@ABV?$CStringT@DV?$StrTraitMFC_DLL@DV?$ChTraitsCRT@D@ATL@@@@@ATL@@@Z
	DD	2 DUP(00H)
	DD	2 DUP(00H)
	DD	00H
	DD	01H
xdata$x	ENDS
;	COMDAT xdata$x
xdata$x	SEGMENT
__unwindtable$?CreateRadarControl@CCtrlFactory@@QAEPAVCRadarControl@@XZ DD 0ffffffffH
	DD	FLAT:__unwindfunclet$?CreateRadarControl@CCtrlFactory@@QAEPAVCRadarControl@@XZ$0
__ehfuncinfo$?CreateRadarControl@CCtrlFactory@@QAEPAVCRadarControl@@XZ DD 019930522H
	DD	01H
	DD	FLAT:__unwindtable$?CreateRadarControl@CCtrlFactory@@QAEPAVCRadarControl@@XZ
	DD	2 DUP(00H)
	DD	2 DUP(00H)
	DD	00H
	DD	01H
xdata$x	ENDS
;	COMDAT xdata$x
xdata$x	SEGMENT
__ehfuncinfo$?CreatreGraphLineThicknessCombo@CCtrlFactory@@QAEPAVCGraphLineThicknessCombo@@ABV?$CStringT@DV?$StrTraitMFC_DLL@DV?$ChTraitsCRT@D@ATL@@@@@ATL@@@Z DD 019930522H
	DD	05H
	DD	FLAT:__unwindtable$?CreatreGraphLineThicknessCombo@CCtrlFactory@@QAEPAVCGraphLineThicknessCombo@@ABV?$CStringT@DV?$StrTraitMFC_DLL@DV?$ChTraitsCRT@D@ATL@@@@@ATL@@@Z
	DD	2 DUP(00H)
	DD	2 DUP(00H)
	DD	00H
	DD	01H
__unwindtable$?CreatreGraphLineThicknessCombo@CCtrlFactory@@QAEPAVCGraphLineThicknessCombo@@ABV?$CStringT@DV?$StrTraitMFC_DLL@DV?$ChTraitsCRT@D@ATL@@@@@ATL@@@Z DD 0ffffffffH
	DD	FLAT:__unwindfunclet$?CreatreGraphLineThicknessCombo@CCtrlFactory@@QAEPAVCGraphLineThicknessCombo@@ABV?$CStringT@DV?$StrTraitMFC_DLL@DV?$ChTraitsCRT@D@ATL@@@@@ATL@@@Z$0
	DD	0ffffffffH
	DD	FLAT:__unwindfunclet$?CreatreGraphLineThicknessCombo@CCtrlFactory@@QAEPAVCGraphLineThicknessCombo@@ABV?$CStringT@DV?$StrTraitMFC_DLL@DV?$ChTraitsCRT@D@ATL@@@@@ATL@@@Z$1
	DD	0ffffffffH
	DD	00H
	DD	01H
	DD	FLAT:__unwindfunclet$?CreatreGraphLineThicknessCombo@CCtrlFactory@@QAEPAVCGraphLineThicknessCombo@@ABV?$CStringT@DV?$StrTraitMFC_DLL@DV?$ChTraitsCRT@D@ATL@@@@@ATL@@@Z$2
	DD	0ffffffffH
	DD	FLAT:___std_terminate
xdata$x	ENDS
;	COMDAT xdata$x
xdata$x	SEGMENT
__ehfuncinfo$?CreateGraphStyleCombo@CCtrlFactory@@QAEPAVCGraphStyleCombo@@ABV?$CStringT@DV?$StrTraitMFC_DLL@DV?$ChTraitsCRT@D@ATL@@@@@ATL@@@Z DD 019930522H
	DD	05H
	DD	FLAT:__unwindtable$?CreateGraphStyleCombo@CCtrlFactory@@QAEPAVCGraphStyleCombo@@ABV?$CStringT@DV?$StrTraitMFC_DLL@DV?$ChTraitsCRT@D@ATL@@@@@ATL@@@Z
	DD	2 DUP(00H)
	DD	2 DUP(00H)
	DD	00H
	DD	01H
__unwindtable$?CreateGraphStyleCombo@CCtrlFactory@@QAEPAVCGraphStyleCombo@@ABV?$CStringT@DV?$StrTraitMFC_DLL@DV?$ChTraitsCRT@D@ATL@@@@@ATL@@@Z DD 0ffffffffH
	DD	FLAT:__unwindfunclet$?CreateGraphStyleCombo@CCtrlFactory@@QAEPAVCGraphStyleCombo@@ABV?$CStringT@DV?$StrTraitMFC_DLL@DV?$ChTraitsCRT@D@ATL@@@@@ATL@@@Z$0
	DD	0ffffffffH
	DD	FLAT:__unwindfunclet$?CreateGraphStyleCombo@CCtrlFactory@@QAEPAVCGraphStyleCombo@@ABV?$CStringT@DV?$StrTraitMFC_DLL@DV?$ChTraitsCRT@D@ATL@@@@@ATL@@@Z$1
	DD	0ffffffffH
	DD	00H
	DD	01H
	DD	FLAT:__unwindfunclet$?CreateGraphStyleCombo@CCtrlFactory@@QAEPAVCGraphStyleCombo@@ABV?$CStringT@DV?$StrTraitMFC_DLL@DV?$ChTraitsCRT@D@ATL@@@@@ATL@@@Z$2
	DD	0ffffffffH
	DD	FLAT:___std_terminate
xdata$x	ENDS
;	COMDAT xdata$x
xdata$x	SEGMENT
__unwindtable$?CreateSliderCtrl@CCtrlFactory@@QAEPAVCSliderCtrlEx@@XZ DD 0ffffffffH
	DD	FLAT:__unwindfunclet$?CreateSliderCtrl@CCtrlFactory@@QAEPAVCSliderCtrlEx@@XZ$0
__ehfuncinfo$?CreateSliderCtrl@CCtrlFactory@@QAEPAVCSliderCtrlEx@@XZ DD 019930522H
	DD	01H
	DD	FLAT:__unwindtable$?CreateSliderCtrl@CCtrlFactory@@QAEPAVCSliderCtrlEx@@XZ
	DD	2 DUP(00H)
	DD	2 DUP(00H)
	DD	00H
	DD	01H
xdata$x	ENDS
;	COMDAT xdata$x
xdata$x	SEGMENT
__unwindtable$?CreateScrollBar@CCtrlFactory@@QAEPAVCScrollBarEx@@XZ DD 0ffffffffH
	DD	FLAT:__unwindfunclet$?CreateScrollBar@CCtrlFactory@@QAEPAVCScrollBarEx@@XZ$0
__ehfuncinfo$?CreateScrollBar@CCtrlFactory@@QAEPAVCScrollBarEx@@XZ DD 019930522H
	DD	01H
	DD	FLAT:__unwindtable$?CreateScrollBar@CCtrlFactory@@QAEPAVCScrollBarEx@@XZ
	DD	2 DUP(00H)
	DD	2 DUP(00H)
	DD	00H
	DD	01H
xdata$x	ENDS
; Function compile flags: /Ogtp
; File D:\git\src\IBK\IBK_DRFN\ProjSrc\SrcChartEx\ChartOCX\Include_Chart\DLL_Load\IMetaTable.h
; File C:\Program Files (x86)\Microsoft Visual Studio\2019\Community\VC\Tools\MSVC\14.29.30133\atlmfc\include\afxwin1.inl
; File D:\git\src\IBK\IBK_DRFN\ProjSrc\SrcChartEx\ChartOCX\Include_Chart\DLL_Load\IMetaTable.h
;	COMDAT ??1CMultiLanguageResourceSetter@@QAE@XZ
_TEXT	SEGMENT
__$EHRec$ = -12						; size = 12
??1CMultiLanguageResourceSetter@@QAE@XZ PROC		; CMultiLanguageResourceSetter::~CMultiLanguageResourceSetter, COMDAT
; _this$ = ecx

; 1036 : 	{

  00000	55		 push	 ebp
  00001	8b ec		 mov	 ebp, esp
  00003	6a ff		 push	 -1
  00005	68 00 00 00 00	 push	 __ehhandler$??1CMultiLanguageResourceSetter@@QAE@XZ
  0000a	64 a1 00 00 00
	00		 mov	 eax, DWORD PTR fs:0
  00010	50		 push	 eax
  00011	56		 push	 esi
  00012	a1 00 00 00 00	 mov	 eax, DWORD PTR ___security_cookie
  00017	33 c5		 xor	 eax, ebp
  00019	50		 push	 eax
  0001a	8d 45 f4	 lea	 eax, DWORD PTR __$EHRec$[ebp]
  0001d	64 a3 00 00 00
	00		 mov	 DWORD PTR fs:0, eax

; 1037 : 		AfxSetResourceHandle( m_hInstance);

  00023	8b 31		 mov	 esi, DWORD PTR [ecx]
; File C:\Program Files (x86)\Microsoft Visual Studio\2019\Community\VC\Tools\MSVC\14.29.30133\atlmfc\include\afxwin1.inl

; 27   : 	{ ASSERT(hInstResource != NULL); afxCurrentResourceHandle = hInstResource; }

  00025	e8 00 00 00 00	 call	 ?AfxGetModuleState@@YGPAVAFX_MODULE_STATE@@XZ ; AfxGetModuleState
  0002a	89 70 0c	 mov	 DWORD PTR [eax+12], esi
; File D:\git\src\IBK\IBK_DRFN\ProjSrc\SrcChartEx\ChartOCX\Include_Chart\DLL_Load\IMetaTable.h

; 1038 : 	}

  0002d	8b 4d f4	 mov	 ecx, DWORD PTR __$EHRec$[ebp]
  00030	64 89 0d 00 00
	00 00		 mov	 DWORD PTR fs:0, ecx
  00037	59		 pop	 ecx
  00038	5e		 pop	 esi
  00039	8b e5		 mov	 esp, ebp
  0003b	5d		 pop	 ebp
  0003c	c3		 ret	 0
  0003d	cc		 int	 3
  0003e	cc		 int	 3
  0003f	cc		 int	 3
  00040	cc		 int	 3
  00041	cc		 int	 3
_TEXT	ENDS
;	COMDAT text$x
text$x	SEGMENT
__ehhandler$??1CMultiLanguageResourceSetter@@QAE@XZ:
  00000	90		 npad	 1
  00001	90		 npad	 1
  00002	8b 54 24 08	 mov	 edx, DWORD PTR [esp+8]
  00006	8d 42 0c	 lea	 eax, DWORD PTR [edx+12]
  00009	8b 4a f8	 mov	 ecx, DWORD PTR [edx-8]
  0000c	33 c8		 xor	 ecx, eax
  0000e	e8 00 00 00 00	 call	 @__security_check_cookie@4
  00013	b8 00 00 00 00	 mov	 eax, OFFSET __ehfuncinfo$??1CMultiLanguageResourceSetter@@QAE@XZ
  00018	e9 00 00 00 00	 jmp	 ___CxxFrameHandler3
text$x	ENDS
??1CMultiLanguageResourceSetter@@QAE@XZ ENDP		; CMultiLanguageResourceSetter::~CMultiLanguageResourceSetter
; Function compile flags: /Ogtp
;	COMDAT ??_GCCtrlFactory@@UAEPAXI@Z
_TEXT	SEGMENT
___flags$ = 8						; size = 4
??_GCCtrlFactory@@UAEPAXI@Z PROC			; CCtrlFactory::`scalar deleting destructor', COMDAT
; _this$ = ecx
  00000	55		 push	 ebp
  00001	8b ec		 mov	 ebp, esp
  00003	f6 45 08 01	 test	 BYTE PTR ___flags$[ebp], 1
  00007	56		 push	 esi
  00008	8b f1		 mov	 esi, ecx
  0000a	c7 06 00 00 00
	00		 mov	 DWORD PTR [esi], OFFSET ??_7CCtrlFactory@@6B@
  00010	74 0b		 je	 SHORT $LN4@scalar
  00012	6a 30		 push	 48			; 00000030H
  00014	56		 push	 esi
  00015	e8 00 00 00 00	 call	 ??3@YAXPAXI@Z		; operator delete
  0001a	83 c4 08	 add	 esp, 8
$LN4@scalar:
  0001d	8b c6		 mov	 eax, esi
  0001f	5e		 pop	 esi
  00020	5d		 pop	 ebp
  00021	c2 04 00	 ret	 4
??_GCCtrlFactory@@UAEPAXI@Z ENDP			; CCtrlFactory::`scalar deleting destructor'
_TEXT	ENDS
; Function compile flags: /Ogtp
; File D:\git\src\IBK\IBK_DRFN\ProjSrc\SrcChartEx\ChartOCX\ChartToolBar\CtrlFactory.cpp
; File C:\Program Files (x86)\Microsoft Visual Studio\2019\Community\VC\Tools\MSVC\14.29.30133\atlmfc\include\afx.inl
; File D:\git\src\IBK\IBK_DRFN\ProjSrc\SrcChartEx\ChartOCX\ChartToolBar\CtrlFactory.cpp
; File C:\Program Files (x86)\Microsoft Visual Studio\2019\Community\VC\Tools\MSVC\14.29.30133\atlmfc\include\afx.inl
; File D:\git\src\IBK\IBK_DRFN\ProjSrc\SrcChartEx\ChartOCX\ChartToolBar\CtrlFactory.cpp
; File C:\Program Files (x86)\Microsoft Visual Studio\2019\Community\VC\Tools\MSVC\14.29.30133\atlmfc\include\afxwin2.inl
; File D:\git\src\IBK\IBK_DRFN\ProjSrc\SrcChartEx\ChartOCX\ChartToolBar\CtrlFactory.cpp
;	COMDAT ?CreateButton@CCtrlFactory@@QAEPAVCButtonEx@@PAVCObjTool@@ABV?$CStringT@DV?$StrTraitMFC_DLL@DV?$ChTraitsCRT@D@ATL@@@@@ATL@@@Z
_TEXT	SEGMENT
__$EHRec$ = -12						; size = 12
_pObjTool$ = 8						; size = 4
$T2 = 12						; size = 4
$T3 = 12						; size = 4
_strParam$ = 12						; size = 4
?CreateButton@CCtrlFactory@@QAEPAVCButtonEx@@PAVCObjTool@@ABV?$CStringT@DV?$StrTraitMFC_DLL@DV?$ChTraitsCRT@D@ATL@@@@@ATL@@@Z PROC ; CCtrlFactory::CreateButton, COMDAT
; _this$ = ecx

; 209  : {

  00000	55		 push	 ebp
  00001	8b ec		 mov	 ebp, esp
  00003	6a ff		 push	 -1
  00005	68 00 00 00 00	 push	 __ehhandler$?CreateButton@CCtrlFactory@@QAEPAVCButtonEx@@PAVCObjTool@@ABV?$CStringT@DV?$StrTraitMFC_DLL@DV?$ChTraitsCRT@D@ATL@@@@@ATL@@@Z
  0000a	64 a1 00 00 00
	00		 mov	 eax, DWORD PTR fs:0
  00010	50		 push	 eax
  00011	53		 push	 ebx
  00012	56		 push	 esi
  00013	57		 push	 edi
  00014	a1 00 00 00 00	 mov	 eax, DWORD PTR ___security_cookie
  00019	33 c5		 xor	 eax, ebp
  0001b	50		 push	 eax
  0001c	8d 45 f4	 lea	 eax, DWORD PTR __$EHRec$[ebp]
  0001f	64 a3 00 00 00
	00		 mov	 DWORD PTR fs:0, eax
  00025	8b f9		 mov	 edi, ecx

; 210  : 	CButtonEx* pButton = NULL;
; 211  : 	
; 212  : 	// 토글여부에 따라 객체생성.
; 213  : 	if(IsToggleButton(pObjTool->GetType(), strParam))

  00027	8b 45 08	 mov	 eax, DWORD PTR _pObjTool$[ebp]
  0002a	8b 5d 0c	 mov	 ebx, DWORD PTR _strParam$[ebp]
  0002d	53		 push	 ebx
  0002e	ff 70 10	 push	 DWORD PTR [eax+16]
  00031	e8 00 00 00 00	 call	 ?IsToggleButton@@YA_NW4TOOLOPTION@CToolOptionInfo@@ABV?$CStringT@DV?$StrTraitMFC_DLL@DV?$ChTraitsCRT@D@ATL@@@@@ATL@@@Z ; IsToggleButton
  00036	83 c4 08	 add	 esp, 8
  00039	84 c0		 test	 al, al
  0003b	74 26		 je	 SHORT $LN2@CreateButt
; File C:\Program Files (x86)\Microsoft Visual Studio\2019\Community\VC\Tools\MSVC\14.29.30133\atlmfc\include\afx.inl

; 116  : 	{ return ::operator new(nSize); }

  0003d	68 40 01 00 00	 push	 320			; 00000140H
  00042	e8 00 00 00 00	 call	 ??2@YAPAXI@Z		; operator new
  00047	83 c4 04	 add	 esp, 4
; File D:\git\src\IBK\IBK_DRFN\ProjSrc\SrcChartEx\ChartOCX\ChartToolBar\CtrlFactory.cpp

; 214  : 		pButton = new CToggleButton();

  0004a	89 45 0c	 mov	 DWORD PTR $T3[ebp], eax
  0004d	c7 45 fc 00 00
	00 00		 mov	 DWORD PTR __$EHRec$[ebp+8], 0
  00054	85 c0		 test	 eax, eax
  00056	74 31		 je	 SHORT $LN9@CreateButt
  00058	8b c8		 mov	 ecx, eax
  0005a	e8 00 00 00 00	 call	 ??0CToggleButton@@QAE@XZ ; CToggleButton::CToggleButton
  0005f	8b f0		 mov	 esi, eax
  00061	eb 28		 jmp	 SHORT $LN10@CreateButt
$LN2@CreateButt:
; File C:\Program Files (x86)\Microsoft Visual Studio\2019\Community\VC\Tools\MSVC\14.29.30133\atlmfc\include\afx.inl

; 116  : 	{ return ::operator new(nSize); }

  00063	68 48 01 00 00	 push	 328			; 00000148H
  00068	e8 00 00 00 00	 call	 ??2@YAPAXI@Z		; operator new
  0006d	83 c4 04	 add	 esp, 4
; File D:\git\src\IBK\IBK_DRFN\ProjSrc\SrcChartEx\ChartOCX\ChartToolBar\CtrlFactory.cpp

; 216  : 		pButton = new CNotToggleButton();

  00070	89 45 0c	 mov	 DWORD PTR $T2[ebp], eax
  00073	c7 45 fc 01 00
	00 00		 mov	 DWORD PTR __$EHRec$[ebp+8], 1
  0007a	85 c0		 test	 eax, eax
  0007c	74 0b		 je	 SHORT $LN9@CreateButt
  0007e	8b c8		 mov	 ecx, eax
  00080	e8 00 00 00 00	 call	 ??0CNotToggleButton@@QAE@XZ ; CNotToggleButton::CNotToggleButton
  00085	8b f0		 mov	 esi, eax
  00087	eb 02		 jmp	 SHORT $LN10@CreateButt
$LN9@CreateButt:

; 217  : 
; 218  : 	pButton->SetParentWnd((CToolBarDlg*)m_pParent);

  00089	33 f6		 xor	 esi, esi
$LN10@CreateButt:
  0008b	8b 47 18	 mov	 eax, DWORD PTR [edi+24]

; 219  : 	
; 220  : 	pButton->SetToolObject(pObjTool, strParam);

  0008e	8b ce		 mov	 ecx, esi
  00090	53		 push	 ebx
  00091	ff 75 08	 push	 DWORD PTR _pObjTool$[ebp]
  00094	c7 45 fc ff ff
	ff ff		 mov	 DWORD PTR __$EHRec$[ebp+8], -1
  0009b	89 86 80 00 00
	00		 mov	 DWORD PTR [esi+128], eax
  000a1	e8 00 00 00 00	 call	 ?SetToolObject@CButtonEx@@QAEXPAVCObjTool@@ABV?$CStringT@DV?$StrTraitMFC_DLL@DV?$ChTraitsCRT@D@ATL@@@@@ATL@@@Z ; CButtonEx::SetToolObject

; 221  : 
; 222  : 	m_rectCtrl.right = m_rectCtrl.left + TB_BUTTON_WIDTH;
; 223  : 
; 224  : 	if(!pButton->Create(_T("B"), WS_CHILD | WS_VISIBLE | BS_PUSHLIKE | BS_AUTORADIOBUTTON | WS_GROUP/*BS_PUSHBUTTON*/, m_rectCtrl, m_pParent, m_nCtrlID))

  000a6	ff 77 1c	 push	 DWORD PTR [edi+28]
  000a9	8b 47 04	 mov	 eax, DWORD PTR [edi+4]
  000ac	8d 5f 04	 lea	 ebx, DWORD PTR [edi+4]
  000af	ff 77 18	 push	 DWORD PTR [edi+24]
  000b2	83 c0 12	 add	 eax, 18			; 00000012H
  000b5	8b ce		 mov	 ecx, esi
  000b7	53		 push	 ebx
  000b8	89 47 0c	 mov	 DWORD PTR [edi+12], eax
  000bb	8b 06		 mov	 eax, DWORD PTR [esi]
  000bd	68 09 10 02 50	 push	 1342312457		; 50021009H
  000c2	68 00 00 00 00	 push	 OFFSET ??_C@_01HMGJMAIH@B@
  000c7	ff 90 6c 01 00
	00		 call	 DWORD PTR [eax+364]
  000cd	85 c0		 test	 eax, eax
  000cf	75 1f		 jne	 SHORT $LN4@CreateButt

; 225  : 	{
; 226  : 		delete pButton;

  000d1	8b 06		 mov	 eax, DWORD PTR [esi]
  000d3	8b ce		 mov	 ecx, esi
  000d5	6a 01		 push	 1
  000d7	ff 50 04	 call	 DWORD PTR [eax+4]

; 227  : 		return NULL;

  000da	33 c0		 xor	 eax, eax

; 237  : }

  000dc	8b 4d f4	 mov	 ecx, DWORD PTR __$EHRec$[ebp]
  000df	64 89 0d 00 00
	00 00		 mov	 DWORD PTR fs:0, ecx
  000e6	59		 pop	 ecx
  000e7	5f		 pop	 edi
  000e8	5e		 pop	 esi
  000e9	5b		 pop	 ebx
  000ea	8b e5		 mov	 esp, ebp
  000ec	5d		 pop	 ebp
  000ed	c2 08 00	 ret	 8
$LN4@CreateButt:

; 228  : 	}
; 229  : 	
; 230  : 	if(m_bBitmap)	// 비트맵이 있으면 OWNER_DRAW로 버튼이미지를 그린다.

  000f0	80 7f 16 00	 cmp	 BYTE PTR [edi+22], 0
  000f4	74 12		 je	 SHORT $LN5@CreateButt
; File C:\Program Files (x86)\Microsoft Visual Studio\2019\Community\VC\Tools\MSVC\14.29.30133\atlmfc\include\afxwin2.inl

; 634  : 	{ ASSERT(::IsWindow(m_hWnd)); ::SendMessage(m_hWnd, BM_SETSTYLE, nStyle, (LPARAM)bRedraw); }

  000f6	6a 01		 push	 1
  000f8	6a 0b		 push	 11			; 0000000bH
  000fa	68 f4 00 00 00	 push	 244			; 000000f4H
  000ff	ff 76 20	 push	 DWORD PTR [esi+32]
  00102	ff 15 00 00 00
	00		 call	 DWORD PTR __imp__SendMessageA@16
$LN5@CreateButt:
; File D:\git\src\IBK\IBK_DRFN\ProjSrc\SrcChartEx\ChartOCX\ChartToolBar\CtrlFactory.cpp

; 234  : 	m_rectCtrl.left = m_rectCtrl.right;

  00108	8b 47 0c	 mov	 eax, DWORD PTR [edi+12]
  0010b	ff 47 1c	 inc	 DWORD PTR [edi+28]
  0010e	89 03		 mov	 DWORD PTR [ebx], eax

; 235  : 
; 236  : 	return pButton;

  00110	8b c6		 mov	 eax, esi

; 237  : }

  00112	8b 4d f4	 mov	 ecx, DWORD PTR __$EHRec$[ebp]
  00115	64 89 0d 00 00
	00 00		 mov	 DWORD PTR fs:0, ecx
  0011c	59		 pop	 ecx
  0011d	5f		 pop	 edi
  0011e	5e		 pop	 esi
  0011f	5b		 pop	 ebx
  00120	8b e5		 mov	 esp, ebp
  00122	5d		 pop	 ebp
  00123	c2 08 00	 ret	 8
_TEXT	ENDS
;	COMDAT text$x
text$x	SEGMENT
__unwindfunclet$?CreateButton@CCtrlFactory@@QAEPAVCButtonEx@@PAVCObjTool@@ABV?$CStringT@DV?$StrTraitMFC_DLL@DV?$ChTraitsCRT@D@ATL@@@@@ATL@@@Z$0:
  00000	8b 45 0c	 mov	 eax, DWORD PTR $T3[ebp]
  00003	50		 push	 eax
  00004	e8 00 00 00 00	 call	 ??3CObject@@SGXPAX@Z	; CObject::operator delete
  00009	c3		 ret	 0
__unwindfunclet$?CreateButton@CCtrlFactory@@QAEPAVCButtonEx@@PAVCObjTool@@ABV?$CStringT@DV?$StrTraitMFC_DLL@DV?$ChTraitsCRT@D@ATL@@@@@ATL@@@Z$1:
  0000a	8b 45 0c	 mov	 eax, DWORD PTR $T2[ebp]
  0000d	50		 push	 eax
  0000e	e8 00 00 00 00	 call	 ??3CObject@@SGXPAX@Z	; CObject::operator delete
  00013	c3		 ret	 0
  00014	cc		 int	 3
  00015	cc		 int	 3
  00016	cc		 int	 3
  00017	cc		 int	 3
  00018	cc		 int	 3
__ehhandler$?CreateButton@CCtrlFactory@@QAEPAVCButtonEx@@PAVCObjTool@@ABV?$CStringT@DV?$StrTraitMFC_DLL@DV?$ChTraitsCRT@D@ATL@@@@@ATL@@@Z:
  00019	90		 npad	 1
  0001a	90		 npad	 1
  0001b	8b 54 24 08	 mov	 edx, DWORD PTR [esp+8]
  0001f	8d 42 0c	 lea	 eax, DWORD PTR [edx+12]
  00022	8b 4a f0	 mov	 ecx, DWORD PTR [edx-16]
  00025	33 c8		 xor	 ecx, eax
  00027	e8 00 00 00 00	 call	 @__security_check_cookie@4
  0002c	b8 00 00 00 00	 mov	 eax, OFFSET __ehfuncinfo$?CreateButton@CCtrlFactory@@QAEPAVCButtonEx@@PAVCObjTool@@ABV?$CStringT@DV?$StrTraitMFC_DLL@DV?$ChTraitsCRT@D@ATL@@@@@ATL@@@Z
  00031	e9 00 00 00 00	 jmp	 ___CxxFrameHandler3
text$x	ENDS
?CreateButton@CCtrlFactory@@QAEPAVCButtonEx@@PAVCObjTool@@ABV?$CStringT@DV?$StrTraitMFC_DLL@DV?$ChTraitsCRT@D@ATL@@@@@ATL@@@Z ENDP ; CCtrlFactory::CreateButton
; Function compile flags: /Ogtp
; File D:\git\src\IBK\IBK_DRFN\ProjSrc\SrcChartEx\ChartOCX\ChartToolBar\CtrlFactory.cpp
;	COMDAT ?CreateRadarControl@CCtrlFactory@@QAEPAVCRadarControl@@XZ
_TEXT	SEGMENT
$T2 = -16						; size = 4
__$EHRec$ = -12						; size = 12
?CreateRadarControl@CCtrlFactory@@QAEPAVCRadarControl@@XZ PROC ; CCtrlFactory::CreateRadarControl, COMDAT
; _this$ = ecx

; 247  : {

  00000	55		 push	 ebp
  00001	8b ec		 mov	 ebp, esp
  00003	6a ff		 push	 -1
  00005	68 00 00 00 00	 push	 __ehhandler$?CreateRadarControl@CCtrlFactory@@QAEPAVCRadarControl@@XZ
  0000a	64 a1 00 00 00
	00		 mov	 eax, DWORD PTR fs:0
  00010	50		 push	 eax
  00011	51		 push	 ecx
  00012	56		 push	 esi
  00013	57		 push	 edi
  00014	a1 00 00 00 00	 mov	 eax, DWORD PTR ___security_cookie
  00019	33 c5		 xor	 eax, ebp
  0001b	50		 push	 eax
  0001c	8d 45 f4	 lea	 eax, DWORD PTR __$EHRec$[ebp]
  0001f	64 a3 00 00 00
	00		 mov	 DWORD PTR fs:0, eax
  00025	8b f9		 mov	 edi, ecx

; 248  : 	CRadarControl* pRadarControl = new CRadarControl();

  00027	6a 24		 push	 36			; 00000024H
  00029	e8 00 00 00 00	 call	 ??2@YAPAXI@Z		; operator new
  0002e	83 c4 04	 add	 esp, 4
  00031	89 45 f0	 mov	 DWORD PTR $T2[ebp], eax
  00034	c7 45 fc 00 00
	00 00		 mov	 DWORD PTR __$EHRec$[ebp+8], 0
  0003b	85 c0		 test	 eax, eax
  0003d	74 0b		 je	 SHORT $LN4@CreateRada
  0003f	8b c8		 mov	 ecx, eax
  00041	e8 00 00 00 00	 call	 ??0CRadarControl@@QAE@XZ ; CRadarControl::CRadarControl
  00046	8b f0		 mov	 esi, eax
  00048	eb 02		 jmp	 SHORT $LN5@CreateRada
$LN4@CreateRada:
  0004a	33 f6		 xor	 esi, esi
$LN5@CreateRada:

; 249  : 
; 250  : 	// Rect계산은 따로한다. 왜냐면 레이다차트는 맨 아랫줄에 쫘아악 생기는 특별한넘이므로
; 251  : 	// Create()함수부에서 계산한다.
; 252  : 	if(!pRadarControl->Create(m_pParent, IDC_RADAR))

  0004c	68 6c 42 00 00	 push	 17004			; 0000426cH
  00051	ff 77 18	 push	 DWORD PTR [edi+24]
  00054	8b ce		 mov	 ecx, esi
  00056	c7 45 fc ff ff
	ff ff		 mov	 DWORD PTR __$EHRec$[ebp+8], -1
  0005d	e8 00 00 00 00	 call	 ?Create@CRadarControl@@QAE_NPAVCWnd@@I@Z ; CRadarControl::Create
  00062	84 c0		 test	 al, al
  00064	75 1f		 jne	 SHORT $LN2@CreateRada

; 253  : 	{
; 254  : 		delete pRadarControl;

  00066	85 f6		 test	 esi, esi
  00068	74 08		 je	 SHORT $LN6@CreateRada
  0006a	8b 06		 mov	 eax, DWORD PTR [esi]
  0006c	8b ce		 mov	 ecx, esi
  0006e	6a 01		 push	 1
  00070	ff 10		 call	 DWORD PTR [eax]
$LN6@CreateRada:

; 255  : 		return NULL;

  00072	33 c0		 xor	 eax, eax

; 259  : }

  00074	8b 4d f4	 mov	 ecx, DWORD PTR __$EHRec$[ebp]
  00077	64 89 0d 00 00
	00 00		 mov	 DWORD PTR fs:0, ecx
  0007e	59		 pop	 ecx
  0007f	5f		 pop	 edi
  00080	5e		 pop	 esi
  00081	8b e5		 mov	 esp, ebp
  00083	5d		 pop	 ebp
  00084	c3		 ret	 0
$LN2@CreateRada:

; 256  : 	}
; 257  : 	
; 258  : 	return pRadarControl;

  00085	8b c6		 mov	 eax, esi

; 259  : }

  00087	8b 4d f4	 mov	 ecx, DWORD PTR __$EHRec$[ebp]
  0008a	64 89 0d 00 00
	00 00		 mov	 DWORD PTR fs:0, ecx
  00091	59		 pop	 ecx
  00092	5f		 pop	 edi
  00093	5e		 pop	 esi
  00094	8b e5		 mov	 esp, ebp
  00096	5d		 pop	 ebp
  00097	c3		 ret	 0
_TEXT	ENDS
;	COMDAT text$x
text$x	SEGMENT
__unwindfunclet$?CreateRadarControl@CCtrlFactory@@QAEPAVCRadarControl@@XZ$0:
  00000	6a 24		 push	 36			; 00000024H
  00002	8b 45 f0	 mov	 eax, DWORD PTR $T2[ebp]
  00005	50		 push	 eax
  00006	e8 00 00 00 00	 call	 ??3@YAXPAXI@Z		; operator delete
  0000b	83 c4 08	 add	 esp, 8
  0000e	c3		 ret	 0
  0000f	cc		 int	 3
  00010	cc		 int	 3
  00011	cc		 int	 3
  00012	cc		 int	 3
  00013	cc		 int	 3
__ehhandler$?CreateRadarControl@CCtrlFactory@@QAEPAVCRadarControl@@XZ:
  00014	90		 npad	 1
  00015	90		 npad	 1
  00016	8b 54 24 08	 mov	 edx, DWORD PTR [esp+8]
  0001a	8d 42 0c	 lea	 eax, DWORD PTR [edx+12]
  0001d	8b 4a f0	 mov	 ecx, DWORD PTR [edx-16]
  00020	33 c8		 xor	 ecx, eax
  00022	e8 00 00 00 00	 call	 @__security_check_cookie@4
  00027	b8 00 00 00 00	 mov	 eax, OFFSET __ehfuncinfo$?CreateRadarControl@CCtrlFactory@@QAEPAVCRadarControl@@XZ
  0002c	e9 00 00 00 00	 jmp	 ___CxxFrameHandler3
text$x	ENDS
?CreateRadarControl@CCtrlFactory@@QAEPAVCRadarControl@@XZ ENDP ; CCtrlFactory::CreateRadarControl
; Function compile flags: /Ogtp
; File D:\git\src\IBK\IBK_DRFN\ProjSrc\SrcChartEx\ChartOCX\ChartToolBar\CtrlFactory.cpp
; File C:\Program Files (x86)\Microsoft Visual Studio\2019\Community\VC\Tools\MSVC\14.29.30133\atlmfc\include\afx.inl
; File D:\git\src\IBK\IBK_DRFN\ProjSrc\SrcChartEx\ChartOCX\ChartToolBar\CtrlFactory.cpp
; File C:\Program Files (x86)\Microsoft Visual Studio\2019\Community\VC\Tools\MSVC\14.29.30133\atlmfc\include\afxwin1.inl
; File D:\git\src\IBK\IBK_DRFN\ProjSrc\SrcChartEx\ChartOCX\Include_Chart\DLL_Load\IMetaTable.h
; File C:\Program Files (x86)\Microsoft Visual Studio\2019\Community\VC\Tools\MSVC\14.29.30133\atlmfc\include\afxwin1.inl
; File D:\git\src\IBK\IBK_DRFN\ProjSrc\SrcChartEx\ChartOCX\ChartToolBar\CtrlFactory.cpp
; File C:\Program Files (x86)\Microsoft Visual Studio\2019\Community\VC\Tools\MSVC\14.29.30133\atlmfc\include\afxwin1.inl
; File D:\git\src\IBK\IBK_DRFN\ProjSrc\SrcChartEx\ChartOCX\ChartToolBar\CtrlFactory.cpp
; File C:\Program Files (x86)\Microsoft Visual Studio\2019\Community\VC\Tools\MSVC\14.29.30133\atlmfc\include\afxwin1.inl
; File D:\git\src\IBK\IBK_DRFN\ProjSrc\SrcChartEx\ChartOCX\ChartToolBar\CtrlFactory.cpp
; File C:\Program Files (x86)\Microsoft Visual Studio\2019\Community\VC\Tools\MSVC\14.29.30133\atlmfc\include\afxwin2.inl
; File C:\Program Files (x86)\Microsoft Visual Studio\2019\Community\VC\Tools\MSVC\14.29.30133\atlmfc\include\atlsimpstr.h
; File D:\git\src\IBK\IBK_DRFN\ProjSrc\SrcChartEx\ChartOCX\ChartToolBar\CtrlFactory.cpp
; File D:\git\src\IBK\IBK_DRFN\ProjSrc\SrcChartEx\ChartOCX\Include_Chart\DLL_Load\IMetaTable.h
; File C:\Program Files (x86)\Microsoft Visual Studio\2019\Community\VC\Tools\MSVC\14.29.30133\atlmfc\include\afxwin1.inl
; File D:\git\src\IBK\IBK_DRFN\ProjSrc\SrcChartEx\ChartOCX\ChartToolBar\CtrlFactory.cpp
;	COMDAT ?CreatreGraphLineThicknessCombo@CCtrlFactory@@QAEPAVCGraphLineThicknessCombo@@ABV?$CStringT@DV?$StrTraitMFC_DLL@DV?$ChTraitsCRT@D@ATL@@@@@ATL@@@Z
_TEXT	SEGMENT
___mlrs__$ = -20					; size = 4
$T2 = -20						; size = 4
_this$1$ = -16						; size = 4
__$EHRec$ = -12						; size = 12
$T3 = 8							; size = 4
_strName$ = 8						; size = 4
?CreatreGraphLineThicknessCombo@CCtrlFactory@@QAEPAVCGraphLineThicknessCombo@@ABV?$CStringT@DV?$StrTraitMFC_DLL@DV?$ChTraitsCRT@D@ATL@@@@@ATL@@@Z PROC ; CCtrlFactory::CreatreGraphLineThicknessCombo, COMDAT
; _this$ = ecx

; 166  : {

  00000	55		 push	 ebp
  00001	8b ec		 mov	 ebp, esp
  00003	6a ff		 push	 -1
  00005	68 00 00 00 00	 push	 __ehhandler$?CreatreGraphLineThicknessCombo@CCtrlFactory@@QAEPAVCGraphLineThicknessCombo@@ABV?$CStringT@DV?$StrTraitMFC_DLL@DV?$ChTraitsCRT@D@ATL@@@@@ATL@@@Z
  0000a	64 a1 00 00 00
	00		 mov	 eax, DWORD PTR fs:0
  00010	50		 push	 eax
  00011	83 ec 08	 sub	 esp, 8
  00014	53		 push	 ebx
  00015	56		 push	 esi
  00016	57		 push	 edi
  00017	a1 00 00 00 00	 mov	 eax, DWORD PTR ___security_cookie
  0001c	33 c5		 xor	 eax, ebp
  0001e	50		 push	 eax
  0001f	8d 45 f4	 lea	 eax, DWORD PTR __$EHRec$[ebp]
  00022	64 a3 00 00 00
	00		 mov	 DWORD PTR fs:0, eax
  00028	8b f1		 mov	 esi, ecx
  0002a	89 75 f0	 mov	 DWORD PTR _this$1$[ebp], esi
; File C:\Program Files (x86)\Microsoft Visual Studio\2019\Community\VC\Tools\MSVC\14.29.30133\atlmfc\include\afx.inl

; 116  : 	{ return ::operator new(nSize); }

  0002d	68 38 01 00 00	 push	 312			; 00000138H
  00032	e8 00 00 00 00	 call	 ??2@YAPAXI@Z		; operator new
  00037	83 c4 04	 add	 esp, 4
; File D:\git\src\IBK\IBK_DRFN\ProjSrc\SrcChartEx\ChartOCX\ChartToolBar\CtrlFactory.cpp

; 167  : 	CGraphLineThicknessCombo* pGraphLineCombo = new CGraphLineThicknessCombo();

  0003a	89 45 ec	 mov	 DWORD PTR $T2[ebp], eax
  0003d	c7 45 fc 00 00
	00 00		 mov	 DWORD PTR __$EHRec$[ebp+8], 0
  00044	85 c0		 test	 eax, eax
  00046	74 0b		 je	 SHORT $LN5@CreatreGra
  00048	8b c8		 mov	 ecx, eax
  0004a	e8 00 00 00 00	 call	 ??0CGraphLineThicknessCombo@@QAE@XZ ; CGraphLineThicknessCombo::CGraphLineThicknessCombo
  0004f	8b d8		 mov	 ebx, eax
  00051	eb 02		 jmp	 SHORT $LN6@CreatreGra
$LN5@CreatreGra:
  00053	33 db		 xor	 ebx, ebx
$LN6@CreatreGra:

; 168  : 
; 169  : 	m_rectCtrl.right = m_rectCtrl.left + TB_BUTTON_WIDTH * 3;

  00055	8b 46 04	 mov	 eax, DWORD PTR [esi+4]
  00058	8d 4e 04	 lea	 ecx, DWORD PTR [esi+4]

; 170  : 	m_rectCtrl.bottom += 200;

  0005b	81 46 10 c8 00
	00 00		 add	 DWORD PTR [esi+16], 200	; 000000c8H
  00062	83 c0 36	 add	 eax, 54			; 00000036H

; 171  : 
; 172  : 	if(!pGraphLineCombo->Create(WS_CHILD|WS_VISIBLE|CBS_DROPDOWNLIST|CBS_OWNERDRAWVARIABLE, m_rectCtrl, m_pParent, IDC_LINETHICKNESS_COMBO))

  00065	68 6b 42 00 00	 push	 17003			; 0000426bH
  0006a	ff 76 18	 push	 DWORD PTR [esi+24]
  0006d	89 46 0c	 mov	 DWORD PTR [esi+12], eax
  00070	8b 03		 mov	 eax, DWORD PTR [ebx]
  00072	51		 push	 ecx
  00073	68 23 00 00 50	 push	 1342177315		; 50000023H
  00078	8b cb		 mov	 ecx, ebx
  0007a	c7 45 fc ff ff
	ff ff		 mov	 DWORD PTR __$EHRec$[ebp+8], -1
  00081	ff 90 6c 01 00
	00		 call	 DWORD PTR [eax+364]
  00087	85 c0		 test	 eax, eax
  00089	75 1f		 jne	 SHORT $LN2@CreatreGra

; 173  : 	{
; 174  : 		delete pGraphLineCombo;

  0008b	8b 03		 mov	 eax, DWORD PTR [ebx]
  0008d	8b cb		 mov	 ecx, ebx
  0008f	6a 01		 push	 1
  00091	ff 50 04	 call	 DWORD PTR [eax+4]

; 175  : 		return NULL;

  00094	33 c0		 xor	 eax, eax

; 196  : }

  00096	8b 4d f4	 mov	 ecx, DWORD PTR __$EHRec$[ebp]
  00099	64 89 0d 00 00
	00 00		 mov	 DWORD PTR fs:0, ecx
  000a0	59		 pop	 ecx
  000a1	5f		 pop	 edi
  000a2	5e		 pop	 esi
  000a3	5b		 pop	 ebx
  000a4	8b e5		 mov	 esp, ebp
  000a6	5d		 pop	 ebp
  000a7	c2 04 00	 ret	 4
$LN2@CreatreGra:

; 176  : 	}
; 177  : 	
; 178  : 	pGraphLineCombo->SetParentWnd((CToolBarDlg*)m_pParent);

  000aa	8b 46 18	 mov	 eax, DWORD PTR [esi+24]
  000ad	89 83 30 01 00
	00		 mov	 DWORD PTR [ebx+304], eax

; 179  : 	
; 180  : 	ML_SET_DEFAULT_RES();

  000b3	e8 00 00 00 00	 call	 ?AfxGetStaticModuleState@@YGPAVAFX_MODULE_STATE@@XZ ; AfxGetStaticModuleState
  000b8	8b 78 08	 mov	 edi, DWORD PTR [eax+8]
; File C:\Program Files (x86)\Microsoft Visual Studio\2019\Community\VC\Tools\MSVC\14.29.30133\atlmfc\include\afxwin1.inl

; 25   : 		return afxCurrentResourceHandle; }

  000bb	e8 00 00 00 00	 call	 ?AfxGetModuleState@@YGPAVAFX_MODULE_STATE@@XZ ; AfxGetModuleState
; File D:\git\src\IBK\IBK_DRFN\ProjSrc\SrcChartEx\ChartOCX\Include_Chart\DLL_Load\IMetaTable.h

; 1032 : 		m_hInstance = AfxGetResourceHandle();

  000c0	8b 70 0c	 mov	 esi, DWORD PTR [eax+12]
  000c3	89 75 ec	 mov	 DWORD PTR ___mlrs__$[ebp], esi
; File C:\Program Files (x86)\Microsoft Visual Studio\2019\Community\VC\Tools\MSVC\14.29.30133\atlmfc\include\afxwin1.inl

; 27   : 	{ ASSERT(hInstResource != NULL); afxCurrentResourceHandle = hInstResource; }

  000c6	e8 00 00 00 00	 call	 ?AfxGetModuleState@@YGPAVAFX_MODULE_STATE@@XZ ; AfxGetModuleState
  000cb	89 78 0c	 mov	 DWORD PTR [eax+12], edi
; File D:\git\src\IBK\IBK_DRFN\ProjSrc\SrcChartEx\ChartOCX\ChartToolBar\CtrlFactory.cpp

; 181  : 	pGraphLineCombo->GetBitmap().DeleteObject();

  000ce	8b cb		 mov	 ecx, ebx
  000d0	c7 45 fc 01 00
	00 00		 mov	 DWORD PTR __$EHRec$[ebp+8], 1
  000d7	e8 00 00 00 00	 call	 ?GetBitmap@CImageComboBox@@QAEAAVCBitmap@@XZ ; CImageComboBox::GetBitmap
  000dc	8b c8		 mov	 ecx, eax
  000de	e8 00 00 00 00	 call	 ?DeleteObject@CGdiObject@@QAEHXZ ; CGdiObject::DeleteObject

; 182  : 	if(!pGraphLineCombo->GetBitmap().LoadBitmap(IDB_LINE_THICKNESS))

  000e3	8b cb		 mov	 ecx, ebx
  000e5	e8 00 00 00 00	 call	 ?GetBitmap@CImageComboBox@@QAEAAVCBitmap@@XZ ; CImageComboBox::GetBitmap
; File C:\Program Files (x86)\Microsoft Visual Studio\2019\Community\VC\Tools\MSVC\14.29.30133\atlmfc\include\afxwin1.inl

; 212  : 	{ return Attach(::LoadBitmapW(AfxFindResourceHandle(

  000ea	68 d0 00 00 00	 push	 208			; 000000d0H
  000ef	6a 02		 push	 2
  000f1	68 d0 00 00 00	 push	 208			; 000000d0H
; File D:\git\src\IBK\IBK_DRFN\ProjSrc\SrcChartEx\ChartOCX\ChartToolBar\CtrlFactory.cpp

; 182  : 	if(!pGraphLineCombo->GetBitmap().LoadBitmap(IDB_LINE_THICKNESS))

  000f6	8b f8		 mov	 edi, eax
; File C:\Program Files (x86)\Microsoft Visual Studio\2019\Community\VC\Tools\MSVC\14.29.30133\atlmfc\include\afxwin1.inl

; 212  : 	{ return Attach(::LoadBitmapW(AfxFindResourceHandle(

  000f8	e8 00 00 00 00	 call	 ?AfxFindResourceHandle@@YGPAUHINSTANCE__@@PBD0@Z ; AfxFindResourceHandle
  000fd	50		 push	 eax
  000fe	ff 15 00 00 00
	00		 call	 DWORD PTR __imp__LoadBitmapW@8
  00104	50		 push	 eax
  00105	8b cf		 mov	 ecx, edi
  00107	e8 00 00 00 00	 call	 ?Attach@CGdiObject@@QAEHPAX@Z ; CGdiObject::Attach
; File D:\git\src\IBK\IBK_DRFN\ProjSrc\SrcChartEx\ChartOCX\ChartToolBar\CtrlFactory.cpp

; 182  : 	if(!pGraphLineCombo->GetBitmap().LoadBitmap(IDB_LINE_THICKNESS))

  0010c	8b cb		 mov	 ecx, ebx
  0010e	85 c0		 test	 eax, eax
  00110	75 0b		 jne	 SHORT $LN3@CreatreGra

; 183  : 	{
; 184  : 		delete pGraphLineCombo;

  00112	8b 03		 mov	 eax, DWORD PTR [ebx]
  00114	6a 01		 push	 1
  00116	ff 50 04	 call	 DWORD PTR [eax+4]
  00119	33 db		 xor	 ebx, ebx
  0011b	eb 61		 jmp	 SHORT $LN14@CreatreGra
$LN3@CreatreGra:

; 185  : 		return NULL;
; 186  : 	}
; 187  : 	
; 188  : 	pGraphLineCombo->AddLineType(5);

  0011d	6a 05		 push	 5
  0011f	e8 00 00 00 00	 call	 ?AddLineType@CGraphLineThicknessCombo@@QAEXH@Z ; CGraphLineThicknessCombo::AddLineType
; File C:\Program Files (x86)\Microsoft Visual Studio\2019\Community\VC\Tools\MSVC\14.29.30133\atlmfc\include\afxwin2.inl

; 767  : 	{ ASSERT(::IsWindow(m_hWnd)); return (int)::SendMessage(m_hWnd, CB_SETCURSEL, nSelect, 0); }

  00124	6a 00		 push	 0
  00126	6a 00		 push	 0
  00128	68 4e 01 00 00	 push	 334			; 0000014eH
  0012d	ff 73 20	 push	 DWORD PTR [ebx+32]
  00130	ff 15 00 00 00
	00		 call	 DWORD PTR __imp__SendMessageA@16
; File C:\Program Files (x86)\Microsoft Visual Studio\2019\Community\VC\Tools\MSVC\14.29.30133\atlmfc\include\atlsimpstr.h

; 377  : 		return( m_pszData );

  00136	8b 45 08	 mov	 eax, DWORD PTR _strName$[ebp]
; File D:\git\src\IBK\IBK_DRFN\ProjSrc\SrcChartEx\ChartOCX\ChartToolBar\CtrlFactory.cpp

; 190  : 	pGraphLineCombo->SetToolTipText( _MTOL4( strName));

  00139	b9 00 00 00 00	 mov	 ecx, OFFSET ?g_iMetaTable@@3VIMetaTable@@A ; g_iMetaTable
  0013e	8b 7d f0	 mov	 edi, DWORD PTR _this$1$[ebp]
  00141	6a 00		 push	 0
  00143	ff 30		 push	 DWORD PTR [eax]
  00145	6a 04		 push	 4
  00147	ff 77 28	 push	 DWORD PTR [edi+40]
  0014a	e8 00 00 00 00	 call	 ?GetLanguageText@IMetaTable@@QAEPBDPAUHWND__@@W4E_CODEPAGE@1@PBDH@Z ; IMetaTable::GetLanguageText
  0014f	50		 push	 eax
  00150	8d 4d 08	 lea	 ecx, DWORD PTR $T3[ebp]
  00153	ff 15 00 00 00
	00		 call	 DWORD PTR __imp_??0?$CStringT@DV?$StrTraitMFC_DLL@DV?$ChTraitsCRT@D@ATL@@@@@ATL@@QAE@PBD@Z
  00159	8d 45 08	 lea	 eax, DWORD PTR $T3[ebp]
  0015c	c6 45 fc 03	 mov	 BYTE PTR __$EHRec$[ebp+8], 3
  00160	50		 push	 eax
  00161	8b cb		 mov	 ecx, ebx
  00163	e8 00 00 00 00	 call	 ?SetToolTipText@CImageComboBox@@QAEXABV?$CStringT@DV?$StrTraitMFC_DLL@DV?$ChTraitsCRT@D@ATL@@@@@ATL@@@Z ; CImageComboBox::SetToolTipText
  00168	8d 4d 08	 lea	 ecx, DWORD PTR $T3[ebp]
  0016b	ff 15 00 00 00
	00		 call	 DWORD PTR __imp_??1?$CStringT@DV?$StrTraitMFC_DLL@DV?$ChTraitsCRT@D@ATL@@@@@ATL@@QAE@XZ

; 191  : 
; 192  : 	m_rectCtrl.left = m_rectCtrl.right;

  00171	8b 4f 0c	 mov	 ecx, DWORD PTR [edi+12]

; 193  : 	m_rectCtrl.bottom -= 200;

  00174	81 47 10 38 ff
	ff ff		 add	 DWORD PTR [edi+16], -200 ; ffffff38H
  0017b	89 4f 04	 mov	 DWORD PTR [edi+4], ecx
$LN14@CreatreGra:
; File D:\git\src\IBK\IBK_DRFN\ProjSrc\SrcChartEx\ChartOCX\Include_Chart\DLL_Load\IMetaTable.h

; 1036 : 	{

  0017e	c7 45 fc 04 00
	00 00		 mov	 DWORD PTR __$EHRec$[ebp+8], 4
; File C:\Program Files (x86)\Microsoft Visual Studio\2019\Community\VC\Tools\MSVC\14.29.30133\atlmfc\include\afxwin1.inl

; 27   : 	{ ASSERT(hInstResource != NULL); afxCurrentResourceHandle = hInstResource; }

  00185	e8 00 00 00 00	 call	 ?AfxGetModuleState@@YGPAVAFX_MODULE_STATE@@XZ ; AfxGetModuleState
  0018a	89 70 0c	 mov	 DWORD PTR [eax+12], esi
; File D:\git\src\IBK\IBK_DRFN\ProjSrc\SrcChartEx\ChartOCX\ChartToolBar\CtrlFactory.cpp

; 195  : 	return pGraphLineCombo;

  0018d	8b c3		 mov	 eax, ebx

; 196  : }

  0018f	8b 4d f4	 mov	 ecx, DWORD PTR __$EHRec$[ebp]
  00192	64 89 0d 00 00
	00 00		 mov	 DWORD PTR fs:0, ecx
  00199	59		 pop	 ecx
  0019a	5f		 pop	 edi
  0019b	5e		 pop	 esi
  0019c	5b		 pop	 ebx
  0019d	8b e5		 mov	 esp, ebp
  0019f	5d		 pop	 ebp
  001a0	c2 04 00	 ret	 4
_TEXT	ENDS
;	COMDAT text$x
text$x	SEGMENT
__unwindfunclet$?CreatreGraphLineThicknessCombo@CCtrlFactory@@QAEPAVCGraphLineThicknessCombo@@ABV?$CStringT@DV?$StrTraitMFC_DLL@DV?$ChTraitsCRT@D@ATL@@@@@ATL@@@Z$0:
  00000	8b 45 ec	 mov	 eax, DWORD PTR $T2[ebp]
  00003	50		 push	 eax
  00004	e8 00 00 00 00	 call	 ??3CObject@@SGXPAX@Z	; CObject::operator delete
  00009	c3		 ret	 0
__unwindfunclet$?CreatreGraphLineThicknessCombo@CCtrlFactory@@QAEPAVCGraphLineThicknessCombo@@ABV?$CStringT@DV?$StrTraitMFC_DLL@DV?$ChTraitsCRT@D@ATL@@@@@ATL@@@Z$1:
  0000a	8d 4d ec	 lea	 ecx, DWORD PTR ___mlrs__$[ebp]
  0000d	e9 00 00 00 00	 jmp	 ??1CMultiLanguageResourceSetter@@QAE@XZ ; CMultiLanguageResourceSetter::~CMultiLanguageResourceSetter
__unwindfunclet$?CreatreGraphLineThicknessCombo@CCtrlFactory@@QAEPAVCGraphLineThicknessCombo@@ABV?$CStringT@DV?$StrTraitMFC_DLL@DV?$ChTraitsCRT@D@ATL@@@@@ATL@@@Z$2:
  00012	8d 4d 08	 lea	 ecx, DWORD PTR $T3[ebp]
  00015	ff 25 00 00 00
	00		 jmp	 DWORD PTR __imp_??1?$CStringT@DV?$StrTraitMFC_DLL@DV?$ChTraitsCRT@D@ATL@@@@@ATL@@QAE@XZ
  0001b	cc		 int	 3
  0001c	cc		 int	 3
  0001d	cc		 int	 3
  0001e	cc		 int	 3
  0001f	cc		 int	 3
__ehhandler$?CreatreGraphLineThicknessCombo@CCtrlFactory@@QAEPAVCGraphLineThicknessCombo@@ABV?$CStringT@DV?$StrTraitMFC_DLL@DV?$ChTraitsCRT@D@ATL@@@@@ATL@@@Z:
  00020	90		 npad	 1
  00021	90		 npad	 1
  00022	8b 54 24 08	 mov	 edx, DWORD PTR [esp+8]
  00026	8d 42 0c	 lea	 eax, DWORD PTR [edx+12]
  00029	8b 4a e8	 mov	 ecx, DWORD PTR [edx-24]
  0002c	33 c8		 xor	 ecx, eax
  0002e	e8 00 00 00 00	 call	 @__security_check_cookie@4
  00033	b8 00 00 00 00	 mov	 eax, OFFSET __ehfuncinfo$?CreatreGraphLineThicknessCombo@CCtrlFactory@@QAEPAVCGraphLineThicknessCombo@@ABV?$CStringT@DV?$StrTraitMFC_DLL@DV?$ChTraitsCRT@D@ATL@@@@@ATL@@@Z
  00038	e9 00 00 00 00	 jmp	 ___CxxFrameHandler3
text$x	ENDS
?CreatreGraphLineThicknessCombo@CCtrlFactory@@QAEPAVCGraphLineThicknessCombo@@ABV?$CStringT@DV?$StrTraitMFC_DLL@DV?$ChTraitsCRT@D@ATL@@@@@ATL@@@Z ENDP ; CCtrlFactory::CreatreGraphLineThicknessCombo
; Function compile flags: /Ogtp
; File D:\git\src\IBK\IBK_DRFN\ProjSrc\SrcChartEx\ChartOCX\ChartToolBar\CtrlFactory.cpp
; File C:\Program Files (x86)\Microsoft Visual Studio\2019\Community\VC\Tools\MSVC\14.29.30133\atlmfc\include\afx.inl
; File D:\git\src\IBK\IBK_DRFN\ProjSrc\SrcChartEx\ChartOCX\ChartToolBar\CtrlFactory.cpp
; File C:\Program Files (x86)\Microsoft Visual Studio\2019\Community\VC\Tools\MSVC\14.29.30133\atlmfc\include\afxwin1.inl
; File D:\git\src\IBK\IBK_DRFN\ProjSrc\SrcChartEx\ChartOCX\Include_Chart\DLL_Load\IMetaTable.h
; File C:\Program Files (x86)\Microsoft Visual Studio\2019\Community\VC\Tools\MSVC\14.29.30133\atlmfc\include\afxwin1.inl
; File D:\git\src\IBK\IBK_DRFN\ProjSrc\SrcChartEx\ChartOCX\ChartToolBar\CtrlFactory.cpp
; File C:\Program Files (x86)\Microsoft Visual Studio\2019\Community\VC\Tools\MSVC\14.29.30133\atlmfc\include\afxwin1.inl
; File D:\git\src\IBK\IBK_DRFN\ProjSrc\SrcChartEx\ChartOCX\ChartToolBar\CtrlFactory.cpp
; File C:\Program Files (x86)\Microsoft Visual Studio\2019\Community\VC\Tools\MSVC\14.29.30133\atlmfc\include\afxwin1.inl
; File D:\git\src\IBK\IBK_DRFN\ProjSrc\SrcChartEx\ChartOCX\ChartToolBar\CtrlFactory.cpp
; File C:\Program Files (x86)\Microsoft Visual Studio\2019\Community\VC\Tools\MSVC\14.29.30133\atlmfc\include\atlsimpstr.h
; File D:\git\src\IBK\IBK_DRFN\ProjSrc\SrcChartEx\ChartOCX\ChartToolBar\CtrlFactory.cpp
; File D:\git\src\IBK\IBK_DRFN\ProjSrc\SrcChartEx\ChartOCX\Include_Chart\DLL_Load\IMetaTable.h
; File C:\Program Files (x86)\Microsoft Visual Studio\2019\Community\VC\Tools\MSVC\14.29.30133\atlmfc\include\afxwin1.inl
; File D:\git\src\IBK\IBK_DRFN\ProjSrc\SrcChartEx\ChartOCX\ChartToolBar\CtrlFactory.cpp
;	COMDAT ?CreateGraphStyleCombo@CCtrlFactory@@QAEPAVCGraphStyleCombo@@ABV?$CStringT@DV?$StrTraitMFC_DLL@DV?$ChTraitsCRT@D@ATL@@@@@ATL@@@Z
_TEXT	SEGMENT
___mlrs__$ = -20					; size = 4
$T2 = -20						; size = 4
_this$1$ = -16						; size = 4
__$EHRec$ = -12						; size = 12
$T3 = 8							; size = 4
_strName$ = 8						; size = 4
?CreateGraphStyleCombo@CCtrlFactory@@QAEPAVCGraphStyleCombo@@ABV?$CStringT@DV?$StrTraitMFC_DLL@DV?$ChTraitsCRT@D@ATL@@@@@ATL@@@Z PROC ; CCtrlFactory::CreateGraphStyleCombo, COMDAT
; _this$ = ecx

; 129  : {

  00000	55		 push	 ebp
  00001	8b ec		 mov	 ebp, esp
  00003	6a ff		 push	 -1
  00005	68 00 00 00 00	 push	 __ehhandler$?CreateGraphStyleCombo@CCtrlFactory@@QAEPAVCGraphStyleCombo@@ABV?$CStringT@DV?$StrTraitMFC_DLL@DV?$ChTraitsCRT@D@ATL@@@@@ATL@@@Z
  0000a	64 a1 00 00 00
	00		 mov	 eax, DWORD PTR fs:0
  00010	50		 push	 eax
  00011	83 ec 08	 sub	 esp, 8
  00014	53		 push	 ebx
  00015	56		 push	 esi
  00016	57		 push	 edi
  00017	a1 00 00 00 00	 mov	 eax, DWORD PTR ___security_cookie
  0001c	33 c5		 xor	 eax, ebp
  0001e	50		 push	 eax
  0001f	8d 45 f4	 lea	 eax, DWORD PTR __$EHRec$[ebp]
  00022	64 a3 00 00 00
	00		 mov	 DWORD PTR fs:0, eax
  00028	8b f1		 mov	 esi, ecx
  0002a	89 75 f0	 mov	 DWORD PTR _this$1$[ebp], esi
; File C:\Program Files (x86)\Microsoft Visual Studio\2019\Community\VC\Tools\MSVC\14.29.30133\atlmfc\include\afx.inl

; 116  : 	{ return ::operator new(nSize); }

  0002d	68 38 01 00 00	 push	 312			; 00000138H
  00032	e8 00 00 00 00	 call	 ??2@YAPAXI@Z		; operator new
  00037	83 c4 04	 add	 esp, 4
; File D:\git\src\IBK\IBK_DRFN\ProjSrc\SrcChartEx\ChartOCX\ChartToolBar\CtrlFactory.cpp

; 130  : 	CGraphStyleCombo* pGraphStyleCombo = new CGraphStyleCombo();

  0003a	89 45 ec	 mov	 DWORD PTR $T2[ebp], eax
  0003d	c7 45 fc 00 00
	00 00		 mov	 DWORD PTR __$EHRec$[ebp+8], 0
  00044	85 c0		 test	 eax, eax
  00046	74 0b		 je	 SHORT $LN5@CreateGrap
  00048	8b c8		 mov	 ecx, eax
  0004a	e8 00 00 00 00	 call	 ??0CGraphStyleCombo@@QAE@XZ ; CGraphStyleCombo::CGraphStyleCombo
  0004f	8b d8		 mov	 ebx, eax
  00051	eb 02		 jmp	 SHORT $LN6@CreateGrap
$LN5@CreateGrap:
  00053	33 db		 xor	 ebx, ebx
$LN6@CreateGrap:

; 131  : 
; 132  : 	m_rectCtrl.right = m_rectCtrl.left + TB_BUTTON_WIDTH * 3;

  00055	8b 46 04	 mov	 eax, DWORD PTR [esi+4]
  00058	8d 7e 04	 lea	 edi, DWORD PTR [esi+4]

; 133  : 	m_rectCtrl.bottom += 100;

  0005b	83 46 10 64	 add	 DWORD PTR [esi+16], 100	; 00000064H
  0005f	83 c0 36	 add	 eax, 54			; 00000036H

; 134  : 
; 135  : 	if(!pGraphStyleCombo->Create(WS_CHILD|WS_VISIBLE|CBS_DROPDOWNLIST|CBS_OWNERDRAWVARIABLE, m_rectCtrl, m_pParent, IDC_GRAPHSTYLE_COMBO))

  00062	68 6a 42 00 00	 push	 17002			; 0000426aH
  00067	ff 76 18	 push	 DWORD PTR [esi+24]
  0006a	89 46 0c	 mov	 DWORD PTR [esi+12], eax
  0006d	8b cb		 mov	 ecx, ebx
  0006f	8b 03		 mov	 eax, DWORD PTR [ebx]
  00071	57		 push	 edi
  00072	68 23 00 00 50	 push	 1342177315		; 50000023H
  00077	c7 45 fc ff ff
	ff ff		 mov	 DWORD PTR __$EHRec$[ebp+8], -1
  0007e	ff 90 6c 01 00
	00		 call	 DWORD PTR [eax+364]
  00084	85 c0		 test	 eax, eax
  00086	75 1f		 jne	 SHORT $LN2@CreateGrap

; 136  : 	{
; 137  : 		delete pGraphStyleCombo;

  00088	8b 03		 mov	 eax, DWORD PTR [ebx]
  0008a	8b cb		 mov	 ecx, ebx
  0008c	6a 01		 push	 1
  0008e	ff 50 04	 call	 DWORD PTR [eax+4]

; 138  : 		return NULL;

  00091	33 c0		 xor	 eax, eax

; 157  : }

  00093	8b 4d f4	 mov	 ecx, DWORD PTR __$EHRec$[ebp]
  00096	64 89 0d 00 00
	00 00		 mov	 DWORD PTR fs:0, ecx
  0009d	59		 pop	 ecx
  0009e	5f		 pop	 edi
  0009f	5e		 pop	 esi
  000a0	5b		 pop	 ebx
  000a1	8b e5		 mov	 esp, ebp
  000a3	5d		 pop	 ebp
  000a4	c2 04 00	 ret	 4
$LN2@CreateGrap:

; 139  : 	}
; 140  : 	m_rectCtrl.left = m_rectCtrl.right;

  000a7	8b 46 0c	 mov	 eax, DWORD PTR [esi+12]

; 141  : 	m_rectCtrl.bottom -= 100;

  000aa	83 46 10 9c	 add	 DWORD PTR [esi+16], -100 ; ffffff9cH
  000ae	89 07		 mov	 DWORD PTR [edi], eax

; 142  : 	
; 143  : 	pGraphStyleCombo->SetParentWnd((CToolBarDlg*)m_pParent);

  000b0	8b 46 18	 mov	 eax, DWORD PTR [esi+24]
  000b3	89 83 30 01 00
	00		 mov	 DWORD PTR [ebx+304], eax

; 144  : 
; 145  : 	ML_SET_DEFAULT_RES();

  000b9	e8 00 00 00 00	 call	 ?AfxGetStaticModuleState@@YGPAVAFX_MODULE_STATE@@XZ ; AfxGetStaticModuleState
  000be	8b 78 08	 mov	 edi, DWORD PTR [eax+8]
; File C:\Program Files (x86)\Microsoft Visual Studio\2019\Community\VC\Tools\MSVC\14.29.30133\atlmfc\include\afxwin1.inl

; 25   : 		return afxCurrentResourceHandle; }

  000c1	e8 00 00 00 00	 call	 ?AfxGetModuleState@@YGPAVAFX_MODULE_STATE@@XZ ; AfxGetModuleState
; File D:\git\src\IBK\IBK_DRFN\ProjSrc\SrcChartEx\ChartOCX\Include_Chart\DLL_Load\IMetaTable.h

; 1032 : 		m_hInstance = AfxGetResourceHandle();

  000c6	8b 70 0c	 mov	 esi, DWORD PTR [eax+12]
  000c9	89 75 ec	 mov	 DWORD PTR ___mlrs__$[ebp], esi
; File C:\Program Files (x86)\Microsoft Visual Studio\2019\Community\VC\Tools\MSVC\14.29.30133\atlmfc\include\afxwin1.inl

; 27   : 	{ ASSERT(hInstResource != NULL); afxCurrentResourceHandle = hInstResource; }

  000cc	e8 00 00 00 00	 call	 ?AfxGetModuleState@@YGPAVAFX_MODULE_STATE@@XZ ; AfxGetModuleState
  000d1	89 78 0c	 mov	 DWORD PTR [eax+12], edi
; File D:\git\src\IBK\IBK_DRFN\ProjSrc\SrcChartEx\ChartOCX\ChartToolBar\CtrlFactory.cpp

; 146  : 	pGraphStyleCombo->GetBitmap().DeleteObject();

  000d4	8b cb		 mov	 ecx, ebx
  000d6	c7 45 fc 01 00
	00 00		 mov	 DWORD PTR __$EHRec$[ebp+8], 1
  000dd	e8 00 00 00 00	 call	 ?GetBitmap@CImageComboBox@@QAEAAVCBitmap@@XZ ; CImageComboBox::GetBitmap
  000e2	8b c8		 mov	 ecx, eax
  000e4	e8 00 00 00 00	 call	 ?DeleteObject@CGdiObject@@QAEHXZ ; CGdiObject::DeleteObject

; 147  : 	if(!pGraphStyleCombo->GetBitmap().LoadBitmap(IDB_LINE_STYLE))

  000e9	8b cb		 mov	 ecx, ebx
  000eb	e8 00 00 00 00	 call	 ?GetBitmap@CImageComboBox@@QAEAAVCBitmap@@XZ ; CImageComboBox::GetBitmap
; File C:\Program Files (x86)\Microsoft Visual Studio\2019\Community\VC\Tools\MSVC\14.29.30133\atlmfc\include\afxwin1.inl

; 212  : 	{ return Attach(::LoadBitmapW(AfxFindResourceHandle(

  000f0	68 cf 00 00 00	 push	 207			; 000000cfH
  000f5	6a 02		 push	 2
  000f7	68 cf 00 00 00	 push	 207			; 000000cfH
; File D:\git\src\IBK\IBK_DRFN\ProjSrc\SrcChartEx\ChartOCX\ChartToolBar\CtrlFactory.cpp

; 147  : 	if(!pGraphStyleCombo->GetBitmap().LoadBitmap(IDB_LINE_STYLE))

  000fc	8b f8		 mov	 edi, eax
; File C:\Program Files (x86)\Microsoft Visual Studio\2019\Community\VC\Tools\MSVC\14.29.30133\atlmfc\include\afxwin1.inl

; 212  : 	{ return Attach(::LoadBitmapW(AfxFindResourceHandle(

  000fe	e8 00 00 00 00	 call	 ?AfxFindResourceHandle@@YGPAUHINSTANCE__@@PBD0@Z ; AfxFindResourceHandle
  00103	50		 push	 eax
  00104	ff 15 00 00 00
	00		 call	 DWORD PTR __imp__LoadBitmapW@8
  0010a	50		 push	 eax
  0010b	8b cf		 mov	 ecx, edi
  0010d	e8 00 00 00 00	 call	 ?Attach@CGdiObject@@QAEHPAX@Z ; CGdiObject::Attach
; File D:\git\src\IBK\IBK_DRFN\ProjSrc\SrcChartEx\ChartOCX\ChartToolBar\CtrlFactory.cpp

; 147  : 	if(!pGraphStyleCombo->GetBitmap().LoadBitmap(IDB_LINE_STYLE))

  00112	8b cb		 mov	 ecx, ebx
  00114	85 c0		 test	 eax, eax
  00116	75 0b		 jne	 SHORT $LN3@CreateGrap

; 148  : 	{
; 149  : 		delete pGraphStyleCombo;

  00118	8b 03		 mov	 eax, DWORD PTR [ebx]
  0011a	6a 01		 push	 1
  0011c	ff 50 04	 call	 DWORD PTR [eax+4]
  0011f	33 db		 xor	 ebx, ebx
  00121	eb 44		 jmp	 SHORT $LN14@CreateGrap
$LN3@CreateGrap:

; 150  : 		return NULL;
; 151  : 	}	
; 152  : 
; 153  : 	pGraphStyleCombo->SetGraphType(CGraphBaseData::Line_Type, 0);

  00123	6a 00		 push	 0
  00125	6a 01		 push	 1
  00127	e8 00 00 00 00	 call	 ?SetGraphType@CGraphStyleCombo@@QAEXW4GRAPHTYPE@CGraphBaseData@@H@Z ; CGraphStyleCombo::SetGraphType
; File C:\Program Files (x86)\Microsoft Visual Studio\2019\Community\VC\Tools\MSVC\14.29.30133\atlmfc\include\atlsimpstr.h

; 377  : 		return( m_pszData );

  0012c	8b 45 08	 mov	 eax, DWORD PTR _strName$[ebp]
; File D:\git\src\IBK\IBK_DRFN\ProjSrc\SrcChartEx\ChartOCX\ChartToolBar\CtrlFactory.cpp

; 154  : 	pGraphStyleCombo->SetToolTipText( _MTOL4( strName));

  0012f	b9 00 00 00 00	 mov	 ecx, OFFSET ?g_iMetaTable@@3VIMetaTable@@A ; g_iMetaTable
  00134	6a 00		 push	 0
  00136	ff 30		 push	 DWORD PTR [eax]
  00138	8b 45 f0	 mov	 eax, DWORD PTR _this$1$[ebp]
  0013b	6a 04		 push	 4
  0013d	ff 70 28	 push	 DWORD PTR [eax+40]
  00140	e8 00 00 00 00	 call	 ?GetLanguageText@IMetaTable@@QAEPBDPAUHWND__@@W4E_CODEPAGE@1@PBDH@Z ; IMetaTable::GetLanguageText
  00145	50		 push	 eax
  00146	8d 4d 08	 lea	 ecx, DWORD PTR $T3[ebp]
  00149	ff 15 00 00 00
	00		 call	 DWORD PTR __imp_??0?$CStringT@DV?$StrTraitMFC_DLL@DV?$ChTraitsCRT@D@ATL@@@@@ATL@@QAE@PBD@Z
  0014f	8d 45 08	 lea	 eax, DWORD PTR $T3[ebp]
  00152	c6 45 fc 03	 mov	 BYTE PTR __$EHRec$[ebp+8], 3
  00156	50		 push	 eax
  00157	8b cb		 mov	 ecx, ebx
  00159	e8 00 00 00 00	 call	 ?SetToolTipText@CImageComboBox@@QAEXABV?$CStringT@DV?$StrTraitMFC_DLL@DV?$ChTraitsCRT@D@ATL@@@@@ATL@@@Z ; CImageComboBox::SetToolTipText
  0015e	8d 4d 08	 lea	 ecx, DWORD PTR $T3[ebp]
  00161	ff 15 00 00 00
	00		 call	 DWORD PTR __imp_??1?$CStringT@DV?$StrTraitMFC_DLL@DV?$ChTraitsCRT@D@ATL@@@@@ATL@@QAE@XZ
$LN14@CreateGrap:
; File D:\git\src\IBK\IBK_DRFN\ProjSrc\SrcChartEx\ChartOCX\Include_Chart\DLL_Load\IMetaTable.h

; 1036 : 	{

  00167	c7 45 fc 04 00
	00 00		 mov	 DWORD PTR __$EHRec$[ebp+8], 4
; File C:\Program Files (x86)\Microsoft Visual Studio\2019\Community\VC\Tools\MSVC\14.29.30133\atlmfc\include\afxwin1.inl

; 27   : 	{ ASSERT(hInstResource != NULL); afxCurrentResourceHandle = hInstResource; }

  0016e	e8 00 00 00 00	 call	 ?AfxGetModuleState@@YGPAVAFX_MODULE_STATE@@XZ ; AfxGetModuleState
  00173	89 70 0c	 mov	 DWORD PTR [eax+12], esi
; File D:\git\src\IBK\IBK_DRFN\ProjSrc\SrcChartEx\ChartOCX\ChartToolBar\CtrlFactory.cpp

; 156  : 	return pGraphStyleCombo;

  00176	8b c3		 mov	 eax, ebx

; 157  : }

  00178	8b 4d f4	 mov	 ecx, DWORD PTR __$EHRec$[ebp]
  0017b	64 89 0d 00 00
	00 00		 mov	 DWORD PTR fs:0, ecx
  00182	59		 pop	 ecx
  00183	5f		 pop	 edi
  00184	5e		 pop	 esi
  00185	5b		 pop	 ebx
  00186	8b e5		 mov	 esp, ebp
  00188	5d		 pop	 ebp
  00189	c2 04 00	 ret	 4
_TEXT	ENDS
;	COMDAT text$x
text$x	SEGMENT
__unwindfunclet$?CreateGraphStyleCombo@CCtrlFactory@@QAEPAVCGraphStyleCombo@@ABV?$CStringT@DV?$StrTraitMFC_DLL@DV?$ChTraitsCRT@D@ATL@@@@@ATL@@@Z$0:
  00000	8b 45 ec	 mov	 eax, DWORD PTR $T2[ebp]
  00003	50		 push	 eax
  00004	e8 00 00 00 00	 call	 ??3CObject@@SGXPAX@Z	; CObject::operator delete
  00009	c3		 ret	 0
__unwindfunclet$?CreateGraphStyleCombo@CCtrlFactory@@QAEPAVCGraphStyleCombo@@ABV?$CStringT@DV?$StrTraitMFC_DLL@DV?$ChTraitsCRT@D@ATL@@@@@ATL@@@Z$1:
  0000a	8d 4d ec	 lea	 ecx, DWORD PTR ___mlrs__$[ebp]
  0000d	e9 00 00 00 00	 jmp	 ??1CMultiLanguageResourceSetter@@QAE@XZ ; CMultiLanguageResourceSetter::~CMultiLanguageResourceSetter
__unwindfunclet$?CreateGraphStyleCombo@CCtrlFactory@@QAEPAVCGraphStyleCombo@@ABV?$CStringT@DV?$StrTraitMFC_DLL@DV?$ChTraitsCRT@D@ATL@@@@@ATL@@@Z$2:
  00012	8d 4d 08	 lea	 ecx, DWORD PTR $T3[ebp]
  00015	ff 25 00 00 00
	00		 jmp	 DWORD PTR __imp_??1?$CStringT@DV?$StrTraitMFC_DLL@DV?$ChTraitsCRT@D@ATL@@@@@ATL@@QAE@XZ
  0001b	cc		 int	 3
  0001c	cc		 int	 3
  0001d	cc		 int	 3
  0001e	cc		 int	 3
  0001f	cc		 int	 3
__ehhandler$?CreateGraphStyleCombo@CCtrlFactory@@QAEPAVCGraphStyleCombo@@ABV?$CStringT@DV?$StrTraitMFC_DLL@DV?$ChTraitsCRT@D@ATL@@@@@ATL@@@Z:
  00020	90		 npad	 1
  00021	90		 npad	 1
  00022	8b 54 24 08	 mov	 edx, DWORD PTR [esp+8]
  00026	8d 42 0c	 lea	 eax, DWORD PTR [edx+12]
  00029	8b 4a e8	 mov	 ecx, DWORD PTR [edx-24]
  0002c	33 c8		 xor	 ecx, eax
  0002e	e8 00 00 00 00	 call	 @__security_check_cookie@4
  00033	b8 00 00 00 00	 mov	 eax, OFFSET __ehfuncinfo$?CreateGraphStyleCombo@CCtrlFactory@@QAEPAVCGraphStyleCombo@@ABV?$CStringT@DV?$StrTraitMFC_DLL@DV?$ChTraitsCRT@D@ATL@@@@@ATL@@@Z
  00038	e9 00 00 00 00	 jmp	 ___CxxFrameHandler3
text$x	ENDS
?CreateGraphStyleCombo@CCtrlFactory@@QAEPAVCGraphStyleCombo@@ABV?$CStringT@DV?$StrTraitMFC_DLL@DV?$ChTraitsCRT@D@ATL@@@@@ATL@@@Z ENDP ; CCtrlFactory::CreateGraphStyleCombo
; Function compile flags: /Ogtp
; File D:\git\src\IBK\IBK_DRFN\ProjSrc\SrcChartEx\ChartOCX\ChartToolBar\CtrlFactory.cpp
; File C:\Program Files (x86)\Microsoft Visual Studio\2019\Community\VC\Tools\MSVC\14.29.30133\atlmfc\include\afx.inl
; File D:\git\src\IBK\IBK_DRFN\ProjSrc\SrcChartEx\ChartOCX\ChartToolBar\CtrlFactory.cpp
; File C:\Program Files (x86)\Microsoft Visual Studio\2019\Community\VC\Tools\MSVC\14.29.30133\atlmfc\include\afxcmn.inl
; File D:\git\src\IBK\IBK_DRFN\ProjSrc\SrcChartEx\ChartOCX\ChartToolBar\CtrlFactory.cpp
;	COMDAT ?CreateSliderCtrl@CCtrlFactory@@QAEPAVCSliderCtrlEx@@XZ
_TEXT	SEGMENT
$T2 = -16						; size = 4
__$EHRec$ = -12						; size = 12
?CreateSliderCtrl@CCtrlFactory@@QAEPAVCSliderCtrlEx@@XZ PROC ; CCtrlFactory::CreateSliderCtrl, COMDAT
; _this$ = ecx

; 103  : {

  00000	55		 push	 ebp
  00001	8b ec		 mov	 ebp, esp
  00003	6a ff		 push	 -1
  00005	68 00 00 00 00	 push	 __ehhandler$?CreateSliderCtrl@CCtrlFactory@@QAEPAVCSliderCtrlEx@@XZ
  0000a	64 a1 00 00 00
	00		 mov	 eax, DWORD PTR fs:0
  00010	50		 push	 eax
  00011	51		 push	 ecx
  00012	53		 push	 ebx
  00013	56		 push	 esi
  00014	57		 push	 edi
  00015	a1 00 00 00 00	 mov	 eax, DWORD PTR ___security_cookie
  0001a	33 c5		 xor	 eax, ebp
  0001c	50		 push	 eax
  0001d	8d 45 f4	 lea	 eax, DWORD PTR __$EHRec$[ebp]
  00020	64 a3 00 00 00
	00		 mov	 DWORD PTR fs:0, eax
  00026	8b f9		 mov	 edi, ecx
; File C:\Program Files (x86)\Microsoft Visual Studio\2019\Community\VC\Tools\MSVC\14.29.30133\atlmfc\include\afx.inl

; 116  : 	{ return ::operator new(nSize); }

  00028	68 90 00 00 00	 push	 144			; 00000090H
  0002d	e8 00 00 00 00	 call	 ??2@YAPAXI@Z		; operator new
  00032	83 c4 04	 add	 esp, 4
; File D:\git\src\IBK\IBK_DRFN\ProjSrc\SrcChartEx\ChartOCX\ChartToolBar\CtrlFactory.cpp

; 104  : 	CSliderCtrlEx* pSliderCtrl = new CSliderCtrlEx();

  00035	89 45 f0	 mov	 DWORD PTR $T2[ebp], eax
  00038	c7 45 fc 00 00
	00 00		 mov	 DWORD PTR __$EHRec$[ebp+8], 0
  0003f	85 c0		 test	 eax, eax
  00041	74 0b		 je	 SHORT $LN4@CreateSlid
  00043	8b c8		 mov	 ecx, eax
  00045	e8 00 00 00 00	 call	 ??0CSliderCtrlEx@@QAE@XZ ; CSliderCtrlEx::CSliderCtrlEx
  0004a	8b f0		 mov	 esi, eax
  0004c	eb 02		 jmp	 SHORT $LN5@CreateSlid
$LN4@CreateSlid:
  0004e	33 f6		 xor	 esi, esi
$LN5@CreateSlid:

; 105  : 
; 106  : 	m_rectCtrl.right = m_rectCtrl.left + TB_BUTTON_SLIDERBAR;

  00050	8b 47 04	 mov	 eax, DWORD PTR [edi+4]
  00053	8d 5f 04	 lea	 ebx, DWORD PTR [edi+4]

; 107  : 	
; 108  : 	if(!pSliderCtrl->Create(TBS_HORZ|TBS_AUTOTICKS|TBS_BOTTOM|TBS_TOOLTIPS|WS_VISIBLE, m_rectCtrl, m_pParent, IDC_SLIDER))

  00056	68 69 42 00 00	 push	 17001			; 00004269H
  0005b	ff 77 18	 push	 DWORD PTR [edi+24]
  0005e	83 c0 46	 add	 eax, 70			; 00000046H
  00061	c7 45 fc ff ff
	ff ff		 mov	 DWORD PTR __$EHRec$[ebp+8], -1
  00068	89 47 0c	 mov	 DWORD PTR [edi+12], eax
  0006b	8b ce		 mov	 ecx, esi
  0006d	8b 06		 mov	 eax, DWORD PTR [esi]
  0006f	53		 push	 ebx
  00070	68 01 01 00 10	 push	 268435713		; 10000101H
  00075	ff 90 6c 01 00
	00		 call	 DWORD PTR [eax+364]
  0007b	85 c0		 test	 eax, eax
  0007d	75 1d		 jne	 SHORT $LN2@CreateSlid

; 109  : 	{
; 110  : 		delete pSliderCtrl;

  0007f	8b 06		 mov	 eax, DWORD PTR [esi]
  00081	8b ce		 mov	 ecx, esi
  00083	6a 01		 push	 1
  00085	ff 50 04	 call	 DWORD PTR [eax+4]

; 111  : 		return NULL;

  00088	33 c0		 xor	 eax, eax

; 119  : }

  0008a	8b 4d f4	 mov	 ecx, DWORD PTR __$EHRec$[ebp]
  0008d	64 89 0d 00 00
	00 00		 mov	 DWORD PTR fs:0, ecx
  00094	59		 pop	 ecx
  00095	5f		 pop	 edi
  00096	5e		 pop	 esi
  00097	5b		 pop	 ebx
  00098	8b e5		 mov	 esp, ebp
  0009a	5d		 pop	 ebp
  0009b	c3		 ret	 0
$LN2@CreateSlid:
; File C:\Program Files (x86)\Microsoft Visual Studio\2019\Community\VC\Tools\MSVC\14.29.30133\atlmfc\include\afxcmn.inl

; 511  : 	{ ASSERT(::IsWindow(m_hWnd)); return (int)::SendMessage(m_hWnd, TBM_SETTIPSIDE, nLocation, 0L); }

  0009c	6a 00		 push	 0
  0009e	6a 00		 push	 0
  000a0	68 1f 04 00 00	 push	 1055			; 0000041fH
  000a5	ff 76 20	 push	 DWORD PTR [esi+32]
  000a8	ff 15 00 00 00
	00		 call	 DWORD PTR __imp__SendMessageA@16
; File D:\git\src\IBK\IBK_DRFN\ProjSrc\SrcChartEx\ChartOCX\ChartToolBar\CtrlFactory.cpp

; 116  : 	m_rectCtrl.left = m_rectCtrl.right;

  000ae	8b 47 0c	 mov	 eax, DWORD PTR [edi+12]
  000b1	89 03		 mov	 DWORD PTR [ebx], eax

; 117  : 
; 118  : 	return pSliderCtrl;

  000b3	8b c6		 mov	 eax, esi

; 119  : }

  000b5	8b 4d f4	 mov	 ecx, DWORD PTR __$EHRec$[ebp]
  000b8	64 89 0d 00 00
	00 00		 mov	 DWORD PTR fs:0, ecx
  000bf	59		 pop	 ecx
  000c0	5f		 pop	 edi
  000c1	5e		 pop	 esi
  000c2	5b		 pop	 ebx
  000c3	8b e5		 mov	 esp, ebp
  000c5	5d		 pop	 ebp
  000c6	c3		 ret	 0
_TEXT	ENDS
;	COMDAT text$x
text$x	SEGMENT
__unwindfunclet$?CreateSliderCtrl@CCtrlFactory@@QAEPAVCSliderCtrlEx@@XZ$0:
  00000	8b 45 f0	 mov	 eax, DWORD PTR $T2[ebp]
  00003	50		 push	 eax
  00004	e8 00 00 00 00	 call	 ??3CObject@@SGXPAX@Z	; CObject::operator delete
  00009	c3		 ret	 0
  0000a	cc		 int	 3
  0000b	cc		 int	 3
  0000c	cc		 int	 3
  0000d	cc		 int	 3
  0000e	cc		 int	 3
__ehhandler$?CreateSliderCtrl@CCtrlFactory@@QAEPAVCSliderCtrlEx@@XZ:
  0000f	90		 npad	 1
  00010	90		 npad	 1
  00011	8b 54 24 08	 mov	 edx, DWORD PTR [esp+8]
  00015	8d 42 0c	 lea	 eax, DWORD PTR [edx+12]
  00018	8b 4a ec	 mov	 ecx, DWORD PTR [edx-20]
  0001b	33 c8		 xor	 ecx, eax
  0001d	e8 00 00 00 00	 call	 @__security_check_cookie@4
  00022	b8 00 00 00 00	 mov	 eax, OFFSET __ehfuncinfo$?CreateSliderCtrl@CCtrlFactory@@QAEPAVCSliderCtrlEx@@XZ
  00027	e9 00 00 00 00	 jmp	 ___CxxFrameHandler3
text$x	ENDS
?CreateSliderCtrl@CCtrlFactory@@QAEPAVCSliderCtrlEx@@XZ ENDP ; CCtrlFactory::CreateSliderCtrl
; Function compile flags: /Ogtp
; File D:\git\src\IBK\IBK_DRFN\ProjSrc\SrcChartEx\ChartOCX\ChartToolBar\CtrlFactory.cpp
; File C:\Program Files (x86)\Microsoft Visual Studio\2019\Community\VC\Tools\MSVC\14.29.30133\atlmfc\include\afx.inl
; File D:\git\src\IBK\IBK_DRFN\ProjSrc\SrcChartEx\ChartOCX\ChartToolBar\CtrlFactory.cpp
;	COMDAT ?CreateScrollBar@CCtrlFactory@@QAEPAVCScrollBarEx@@XZ
_TEXT	SEGMENT
$T2 = -16						; size = 4
__$EHRec$ = -12						; size = 12
?CreateScrollBar@CCtrlFactory@@QAEPAVCScrollBarEx@@XZ PROC ; CCtrlFactory::CreateScrollBar, COMDAT
; _this$ = ecx

; 76   : {

  00000	55		 push	 ebp
  00001	8b ec		 mov	 ebp, esp
  00003	6a ff		 push	 -1
  00005	68 00 00 00 00	 push	 __ehhandler$?CreateScrollBar@CCtrlFactory@@QAEPAVCScrollBarEx@@XZ
  0000a	64 a1 00 00 00
	00		 mov	 eax, DWORD PTR fs:0
  00010	50		 push	 eax
  00011	51		 push	 ecx
  00012	53		 push	 ebx
  00013	56		 push	 esi
  00014	57		 push	 edi
  00015	a1 00 00 00 00	 mov	 eax, DWORD PTR ___security_cookie
  0001a	33 c5		 xor	 eax, ebp
  0001c	50		 push	 eax
  0001d	8d 45 f4	 lea	 eax, DWORD PTR __$EHRec$[ebp]
  00020	64 a3 00 00 00
	00		 mov	 DWORD PTR fs:0, eax
  00026	8b f9		 mov	 edi, ecx
; File C:\Program Files (x86)\Microsoft Visual Studio\2019\Community\VC\Tools\MSVC\14.29.30133\atlmfc\include\afx.inl

; 116  : 	{ return ::operator new(nSize); }

  00028	68 c8 00 00 00	 push	 200			; 000000c8H
  0002d	e8 00 00 00 00	 call	 ??2@YAPAXI@Z		; operator new
  00032	83 c4 04	 add	 esp, 4
; File D:\git\src\IBK\IBK_DRFN\ProjSrc\SrcChartEx\ChartOCX\ChartToolBar\CtrlFactory.cpp

; 77   : 	CScrollBarEx* pScrollBar = new CScrollBarEx( m_pIChartCtrl, m_nScrollWidth);

  00035	89 45 f0	 mov	 DWORD PTR $T2[ebp], eax
  00038	c7 45 fc 00 00
	00 00		 mov	 DWORD PTR __$EHRec$[ebp+8], 0
  0003f	85 c0		 test	 eax, eax
  00041	74 11		 je	 SHORT $LN4@CreateScro
  00043	ff 77 24	 push	 DWORD PTR [edi+36]
  00046	8b c8		 mov	 ecx, eax
  00048	ff 77 2c	 push	 DWORD PTR [edi+44]
  0004b	e8 00 00 00 00	 call	 ??0CScrollBarEx@@QAE@PAUIChartCtrl@@H@Z ; CScrollBarEx::CScrollBarEx
  00050	8b f0		 mov	 esi, eax
  00052	eb 02		 jmp	 SHORT $LN5@CreateScro
$LN4@CreateScro:
  00054	33 f6		 xor	 esi, esi
$LN5@CreateScro:

; 78   : 	
; 79   : //	m_nCtrlID++;
; 80   : 	m_rectCtrl.right = m_rectCtrl.left + m_nScrollWidth;

  00056	8b 47 24	 mov	 eax, DWORD PTR [edi+36]
  00059	8d 5f 04	 lea	 ebx, DWORD PTR [edi+4]
  0005c	03 03		 add	 eax, DWORD PTR [ebx]

; 81   : 	
; 82   : 	if(!pScrollBar->Create(SBS_HORZ|WS_VISIBLE|WS_CHILD, m_rectCtrl, m_pParent, IDC_SCROLL))

  0005e	8b ce		 mov	 ecx, esi
  00060	68 68 42 00 00	 push	 17000			; 00004268H
  00065	ff 77 18	 push	 DWORD PTR [edi+24]
  00068	89 47 0c	 mov	 DWORD PTR [edi+12], eax
  0006b	8b 06		 mov	 eax, DWORD PTR [esi]
  0006d	53		 push	 ebx
  0006e	68 00 00 00 50	 push	 1342177280		; 50000000H
  00073	c7 45 fc ff ff
	ff ff		 mov	 DWORD PTR __$EHRec$[ebp+8], -1
  0007a	ff 90 6c 01 00
	00		 call	 DWORD PTR [eax+364]
  00080	85 c0		 test	 eax, eax
  00082	75 1d		 jne	 SHORT $LN2@CreateScro

; 83   : 	{
; 84   : 		delete pScrollBar;

  00084	8b 06		 mov	 eax, DWORD PTR [esi]
  00086	8b ce		 mov	 ecx, esi
  00088	6a 01		 push	 1
  0008a	ff 50 04	 call	 DWORD PTR [eax+4]

; 85   : 		return NULL;

  0008d	33 c0		 xor	 eax, eax

; 93   : }

  0008f	8b 4d f4	 mov	 ecx, DWORD PTR __$EHRec$[ebp]
  00092	64 89 0d 00 00
	00 00		 mov	 DWORD PTR fs:0, ecx
  00099	59		 pop	 ecx
  0009a	5f		 pop	 edi
  0009b	5e		 pop	 esi
  0009c	5b		 pop	 ebx
  0009d	8b e5		 mov	 esp, ebp
  0009f	5d		 pop	 ebp
  000a0	c3		 ret	 0
$LN2@CreateScro:

; 86   : 	}
; 87   : 
; 88   : 	pScrollBar->SetParentWnd((CToolBarDlg*)m_pParent);

  000a1	8b 47 18	 mov	 eax, DWORD PTR [edi+24]
  000a4	89 86 80 00 00
	00		 mov	 DWORD PTR [esi+128], eax

; 89   : 
; 90   : 	m_rectCtrl.left = m_rectCtrl.right;

  000aa	8b 47 0c	 mov	 eax, DWORD PTR [edi+12]
  000ad	89 03		 mov	 DWORD PTR [ebx], eax

; 91   : 
; 92   : 	return pScrollBar;

  000af	8b c6		 mov	 eax, esi

; 93   : }

  000b1	8b 4d f4	 mov	 ecx, DWORD PTR __$EHRec$[ebp]
  000b4	64 89 0d 00 00
	00 00		 mov	 DWORD PTR fs:0, ecx
  000bb	59		 pop	 ecx
  000bc	5f		 pop	 edi
  000bd	5e		 pop	 esi
  000be	5b		 pop	 ebx
  000bf	8b e5		 mov	 esp, ebp
  000c1	5d		 pop	 ebp
  000c2	c3		 ret	 0
_TEXT	ENDS
;	COMDAT text$x
text$x	SEGMENT
__unwindfunclet$?CreateScrollBar@CCtrlFactory@@QAEPAVCScrollBarEx@@XZ$0:
  00000	8b 45 f0	 mov	 eax, DWORD PTR $T2[ebp]
  00003	50		 push	 eax
  00004	e8 00 00 00 00	 call	 ??3CObject@@SGXPAX@Z	; CObject::operator delete
  00009	c3		 ret	 0
  0000a	cc		 int	 3
  0000b	cc		 int	 3
  0000c	cc		 int	 3
  0000d	cc		 int	 3
  0000e	cc		 int	 3
__ehhandler$?CreateScrollBar@CCtrlFactory@@QAEPAVCScrollBarEx@@XZ:
  0000f	90		 npad	 1
  00010	90		 npad	 1
  00011	8b 54 24 08	 mov	 edx, DWORD PTR [esp+8]
  00015	8d 42 0c	 lea	 eax, DWORD PTR [edx+12]
  00018	8b 4a ec	 mov	 ecx, DWORD PTR [edx-20]
  0001b	33 c8		 xor	 ecx, eax
  0001d	e8 00 00 00 00	 call	 @__security_check_cookie@4
  00022	b8 00 00 00 00	 mov	 eax, OFFSET __ehfuncinfo$?CreateScrollBar@CCtrlFactory@@QAEPAVCScrollBarEx@@XZ
  00027	e9 00 00 00 00	 jmp	 ___CxxFrameHandler3
text$x	ENDS
?CreateScrollBar@CCtrlFactory@@QAEPAVCScrollBarEx@@XZ ENDP ; CCtrlFactory::CreateScrollBar
; Function compile flags: /Ogtp
; File D:\git\src\IBK\IBK_DRFN\ProjSrc\SrcChartEx\ChartOCX\ChartToolBar\CtrlFactory.cpp
;	COMDAT ?Initialize@CCtrlFactory@@QAEXXZ
_TEXT	SEGMENT
?Initialize@CCtrlFactory@@QAEXXZ PROC			; CCtrlFactory::Initialize, COMDAT
; _this$ = ecx

; 61   : 	m_rectCtrl.right = m_rectCtrl.left;
; 62   : 
; 63   : 	if(m_bStatusBar)	// 수치조회데이타보기(StatusBar)일 경우 StatusBar가 툴바 위에 생기므로...

  00000	80 79 14 00	 cmp	 BYTE PTR [ecx+20], 0
  00004	8b 41 04	 mov	 eax, DWORD PTR [ecx+4]
  00007	89 41 0c	 mov	 DWORD PTR [ecx+12], eax
  0000a	74 04		 je	 SHORT $LN2@Initialize

; 64   : 		m_rectCtrl.top += TB_BUTTON_HEIGHT;

  0000c	83 41 08 11	 add	 DWORD PTR [ecx+8], 17	; 00000011H
$LN2@Initialize:

; 65   : 	// Radar Chart는 툴바 아랫쪽에 생기므로 신경 안써줘도 .
; 66   : }

  00010	c3		 ret	 0
?Initialize@CCtrlFactory@@QAEXXZ ENDP			; CCtrlFactory::Initialize
_TEXT	ENDS
; Function compile flags: /Ogtp
; File D:\git\src\IBK\IBK_DRFN\ProjSrc\SrcChartEx\ChartOCX\ChartToolBar\CtrlFactory.cpp
;	COMDAT ??1CCtrlFactory@@UAE@XZ
_TEXT	SEGMENT
??1CCtrlFactory@@UAE@XZ PROC				; CCtrlFactory::~CCtrlFactory, COMDAT
; _this$ = ecx

; 47   : {

  00000	c7 01 00 00 00
	00		 mov	 DWORD PTR [ecx], OFFSET ??_7CCtrlFactory@@6B@

; 48   : 
; 49   : }

  00006	c3		 ret	 0
??1CCtrlFactory@@UAE@XZ ENDP				; CCtrlFactory::~CCtrlFactory
_TEXT	ENDS
; Function compile flags: /Ogtp
; File D:\git\src\IBK\IBK_DRFN\ProjSrc\SrcChartEx\ChartOCX\ChartToolBar\CtrlFactory.cpp
; File C:\Program Files (x86)\Microsoft Visual Studio\2019\Community\VC\Tools\MSVC\14.29.30133\atlmfc\include\atltypes.h
; File D:\git\src\IBK\IBK_DRFN\ProjSrc\SrcChartEx\ChartOCX\ChartToolBar\CtrlFactory.cpp
; File C:\Program Files (x86)\Microsoft Visual Studio\2019\Community\VC\Tools\MSVC\14.29.30133\atlmfc\include\atltypes.h
; File D:\git\src\IBK\IBK_DRFN\ProjSrc\SrcChartEx\ChartOCX\ChartToolBar\CtrlFactory.cpp
; File C:\Program Files (x86)\Microsoft Visual Studio\2019\Community\VC\Tools\MSVC\14.29.30133\atlmfc\include\afxwin2.inl
; File D:\git\src\IBK\IBK_DRFN\ProjSrc\SrcChartEx\ChartOCX\ChartToolBar\CtrlFactory.cpp
; File C:\Program Files (x86)\Microsoft Visual Studio\2019\Community\VC\Tools\MSVC\14.29.30133\atlmfc\include\afxwin2.inl
; File D:\git\src\IBK\IBK_DRFN\ProjSrc\SrcChartEx\ChartOCX\ChartToolBar\CtrlFactory.cpp
;	COMDAT ??0CCtrlFactory@@QAE@PAUIChartCtrl@@PAVCWnd@@VCRect@@_N3H3@Z
_TEXT	SEGMENT
_p_pIChartCtrl$ = 8					; size = 4
_pParent$ = 12						; size = 4
_rectToolBar$ = 16					; size = 16
_bStatusBar$ = 32					; size = 1
_bRadarChart$ = 36					; size = 1
_nScrollWidth$ = 40					; size = 4
_bBitmap$ = 44						; size = 1
??0CCtrlFactory@@QAE@PAUIChartCtrl@@PAVCWnd@@VCRect@@_N3H3@Z PROC ; CCtrlFactory::CCtrlFactory, COMDAT
; _this$ = ecx

; 32   : {

  00000	55		 push	 ebp
  00001	8b ec		 mov	 ebp, esp

; 33   : 	m_pIChartCtrl = p_pIChartCtrl;

  00003	8b 45 08	 mov	 eax, DWORD PTR _p_pIChartCtrl$[ebp]

; 34   : 	m_pParent = pParent;
; 35   : 	m_rectCtrl = rectToolBar;

  00006	0f 10 45 10	 movups	 xmm0, XMMWORD PTR _rectToolBar$[ebp]
  0000a	56		 push	 esi
  0000b	8b f1		 mov	 esi, ecx
  0000d	8b 4d 0c	 mov	 ecx, DWORD PTR _pParent$[ebp]
; File C:\Program Files (x86)\Microsoft Visual Studio\2019\Community\VC\Tools\MSVC\14.29.30133\atlmfc\include\atltypes.h

; 529  : 	top = 0;

  00010	c7 46 08 00 00
	00 00		 mov	 DWORD PTR [esi+8], 0

; 530  : 	right = 0;

  00017	c7 46 0c 00 00
	00 00		 mov	 DWORD PTR [esi+12], 0

; 531  : 	bottom = 0;

  0001e	c7 46 10 00 00
	00 00		 mov	 DWORD PTR [esi+16], 0
; File D:\git\src\IBK\IBK_DRFN\ProjSrc\SrcChartEx\ChartOCX\ChartToolBar\CtrlFactory.cpp

; 33   : 	m_pIChartCtrl = p_pIChartCtrl;

  00025	89 46 2c	 mov	 DWORD PTR [esi+44], eax

; 36   : 	m_bStatusBar = bStatusBar;

  00028	8a 45 20	 mov	 al, BYTE PTR _bStatusBar$[ebp]
  0002b	88 46 14	 mov	 BYTE PTR [esi+20], al

; 37   : 	m_bRadarChart = bRadarChart;

  0002e	8a 45 24	 mov	 al, BYTE PTR _bRadarChart$[ebp]
  00031	88 46 15	 mov	 BYTE PTR [esi+21], al

; 38   : 	m_nScrollWidth = nScrollWidth;

  00034	8b 45 28	 mov	 eax, DWORD PTR _nScrollWidth$[ebp]
  00037	89 46 24	 mov	 DWORD PTR [esi+36], eax
  0003a	c7 06 00 00 00
	00		 mov	 DWORD PTR [esi], OFFSET ??_7CCtrlFactory@@6B@
  00040	89 4e 18	 mov	 DWORD PTR [esi+24], ecx
  00043	0f 11 46 04	 movups	 XMMWORD PTR [esi+4], xmm0
; File C:\Program Files (x86)\Microsoft Visual Studio\2019\Community\VC\Tools\MSVC\14.29.30133\atlmfc\include\atltypes.h

; 576  : 	return right - left;

  00047	8b 46 0c	 mov	 eax, DWORD PTR [esi+12]
  0004a	2b 46 04	 sub	 eax, DWORD PTR [esi+4]
; File D:\git\src\IBK\IBK_DRFN\ProjSrc\SrcChartEx\ChartOCX\ChartToolBar\CtrlFactory.cpp

; 39   : 	m_nToolBarWidth = m_rectCtrl.Width();

  0004d	89 46 20	 mov	 DWORD PTR [esi+32], eax

; 40   : 	m_nCtrlID = TB_CTRL_INITIAL_ID;
; 41   : 	m_bBitmap = bBitmap;

  00050	8a 45 2c	 mov	 al, BYTE PTR _bBitmap$[ebp]
  00053	c7 46 1c 50 46
	00 00		 mov	 DWORD PTR [esi+28], 18000 ; 00004650H
  0005a	88 46 16	 mov	 BYTE PTR [esi+22], al
; File C:\Program Files (x86)\Microsoft Visual Studio\2019\Community\VC\Tools\MSVC\14.29.30133\atlmfc\include\afxwin2.inl

; 213  : 	{ ASSERT(::IsWindow(m_hWnd)); return CWnd::FromHandle(::GetParent(m_hWnd)); }

  0005d	ff 71 20	 push	 DWORD PTR [ecx+32]
  00060	ff 15 00 00 00
	00		 call	 DWORD PTR __imp__GetParent@4
  00066	50		 push	 eax
  00067	e8 00 00 00 00	 call	 ?FromHandle@CWnd@@SGPAV1@PAUHWND__@@@Z ; CWnd::FromHandle

; 25   : 	{ return this == NULL ? NULL : m_hWnd; }

  0006c	85 c0		 test	 eax, eax
  0006e	75 0a		 jne	 SHORT $LN11@CCtrlFacto
; File D:\git\src\IBK\IBK_DRFN\ProjSrc\SrcChartEx\ChartOCX\ChartToolBar\CtrlFactory.cpp

; 44   : }

  00070	89 46 28	 mov	 DWORD PTR [esi+40], eax
  00073	8b c6		 mov	 eax, esi
  00075	5e		 pop	 esi
  00076	5d		 pop	 ebp
  00077	c2 28 00	 ret	 40			; 00000028H
$LN11@CCtrlFacto:
; File C:\Program Files (x86)\Microsoft Visual Studio\2019\Community\VC\Tools\MSVC\14.29.30133\atlmfc\include\afxwin2.inl

; 25   : 	{ return this == NULL ? NULL : m_hWnd; }

  0007a	8b 40 20	 mov	 eax, DWORD PTR [eax+32]
; File D:\git\src\IBK\IBK_DRFN\ProjSrc\SrcChartEx\ChartOCX\ChartToolBar\CtrlFactory.cpp

; 43   : 	m_hOcxWnd = m_pParent->GetParent()->GetSafeHwnd();

  0007d	89 46 28	 mov	 DWORD PTR [esi+40], eax

; 44   : }

  00080	8b c6		 mov	 eax, esi
  00082	5e		 pop	 esi
  00083	5d		 pop	 ebp
  00084	c2 28 00	 ret	 40			; 00000028H
??0CCtrlFactory@@QAE@PAUIChartCtrl@@PAVCWnd@@VCRect@@_N3H3@Z ENDP ; CCtrlFactory::CCtrlFactory
_TEXT	ENDS
; Function compile flags: /Ogtp
; File C:\Program Files (x86)\Microsoft Visual Studio\2019\Community\VC\Tools\MSVC\14.29.30133\atlmfc\include\afx.inl
;	COMDAT ??3CObject@@SGXPAX@Z
_TEXT	SEGMENT
_p$ = 8							; size = 4
??3CObject@@SGXPAX@Z PROC				; CObject::operator delete, COMDAT

; 112  : 	{ ::operator delete(p); }

  00000	55		 push	 ebp
  00001	8b ec		 mov	 ebp, esp
  00003	ff 75 08	 push	 DWORD PTR _p$[ebp]
  00006	e8 00 00 00 00	 call	 ??3@YAXPAX@Z		; operator delete
  0000b	83 c4 04	 add	 esp, 4
  0000e	5d		 pop	 ebp
  0000f	c2 04 00	 ret	 4
??3CObject@@SGXPAX@Z ENDP				; CObject::operator delete
_TEXT	ENDS
; Function compile flags: /Ogtp
; File D:\git\src\IBK\IBK_DRFN\ProjSrc\SrcChartEx\ChartOCX\ChartToolBar\CtrlFactory.cpp
;	COMDAT ?__empty_global_delete@@YAXPAXI@Z
_TEXT	SEGMENT
___formal$ = 8						; size = 4
___formal$ = 12						; size = 4
?__empty_global_delete@@YAXPAXI@Z PROC			; __empty_global_delete, COMDAT

  00000	c2 00 00	 ret	 0
?__empty_global_delete@@YAXPAXI@Z ENDP			; __empty_global_delete
_TEXT	ENDS
; Function compile flags: /Ogtp
; File D:\git\src\IBK\IBK_DRFN\ProjSrc\SrcChartEx\ChartOCX\ChartToolBar\CtrlFactory.cpp
;	COMDAT ?__empty_global_delete@@YAXPAX@Z
_TEXT	SEGMENT
___formal$ = 8						; size = 4
?__empty_global_delete@@YAXPAX@Z PROC			; __empty_global_delete, COMDAT

  00000	c2 00 00	 ret	 0
?__empty_global_delete@@YAXPAX@Z ENDP			; __empty_global_delete
_TEXT	ENDS
END
