; Listing generated by Microsoft (R) Optimizing Compiler Version 19.29.30145.0 

	TITLE	D:\git\src\IBK\IBK_DRFN\#DRfn-CS\_Obj\ChartToolBar\ImageComboBox.obj
	.686P
	.XMM
	include listing.inc
	.model	flat

INCLUDELIB MSVCRT
INCLUDELIB OLDNAMES

PUBLIC	?__empty_global_delete@@YAXPAX@Z		; __empty_global_delete
PUBLIC	?__empty_global_delete@@YAXPAXI@Z		; __empty_global_delete
PUBLIC	??1CObject@@UAE@XZ				; CObject::~CObject
PUBLIC	?Serialize@CObject@@UAEXAAVCArchive@@@Z		; CObject::Serialize
PUBLIC	?AssertValid@CObject@@UBEXXZ			; CObject::AssertValid
PUBLIC	?Dump@CObject@@UBEXAAVCDumpContext@@@Z		; CObject::Dump
PUBLIC	??1CGdiObject@@UAE@XZ				; CGdiObject::~CGdiObject
PUBLIC	??_GCGdiObject@@UAEPAXI@Z			; CGdiObject::`scalar deleting destructor'
PUBLIC	??1CBrush@@UAE@XZ				; CBrush::~CBrush
PUBLIC	??_GCBrush@@UAEPAXI@Z				; CBrush::`scalar deleting destructor'
PUBLIC	??1CBitmap@@UAE@XZ				; CBitmap::~CBitmap
PUBLIC	??_GCBitmap@@UAEPAXI@Z				; CBitmap::`scalar deleting destructor'
PUBLIC	?DoDataExchange@CWnd@@MAEXPAVCDataExchange@@@Z	; CWnd::DoDataExchange
PUBLIC	?BeginModalState@CWnd@@UAEXXZ			; CWnd::BeginModalState
PUBLIC	?EndModalState@CWnd@@UAEXXZ			; CWnd::EndModalState
PUBLIC	??_GCComboBox@@UAEPAXI@Z			; CComboBox::`scalar deleting destructor'
PUBLIC	??0CImageComboBox@@QAE@XZ			; CImageComboBox::CImageComboBox
PUBLIC	??1CImageComboBox@@UAE@XZ			; CImageComboBox::~CImageComboBox
PUBLIC	?DrawItem@CImageComboBox@@UAEXPAUtagDRAWITEMSTRUCT@@@Z ; CImageComboBox::DrawItem
PUBLIC	?MeasureItem@CImageComboBox@@UAEXPAUtagMEASUREITEMSTRUCT@@@Z ; CImageComboBox::MeasureItem
PUBLIC	?OnMouseMove@CImageComboBox@@IAEXIVCPoint@@@Z	; CImageComboBox::OnMouseMove
PUBLIC	?OnLButtonUp@CImageComboBox@@IAEXIVCPoint@@@Z	; CImageComboBox::OnLButtonUp
PUBLIC	?OnSetFocus@CImageComboBox@@IAEXPAVCWnd@@@Z	; CImageComboBox::OnSetFocus
PUBLIC	?GetThisMessageMap@CImageComboBox@@KGPBUAFX_MSGMAP@@XZ ; CImageComboBox::GetThisMessageMap
PUBLIC	?GetMessageMap@CImageComboBox@@MBEPBUAFX_MSGMAP@@XZ ; CImageComboBox::GetMessageMap
PUBLIC	?SetToolTipText@CImageComboBox@@QAEXABV?$CStringT@DV?$StrTraitMFC_DLL@DV?$ChTraitsCRT@D@ATL@@@@@ATL@@@Z ; CImageComboBox::SetToolTipText
PUBLIC	?SetToolTipText@CImageComboBox@@QAEXABV?$CStringT@DV?$StrTraitMFC_DLL@DV?$ChTraitsCRT@D@ATL@@@@@ATL@@_N@Z ; CImageComboBox::SetToolTipText
PUBLIC	?GetBitmap@CImageComboBox@@QAEAAVCBitmap@@XZ	; CImageComboBox::GetBitmap
PUBLIC	?InitToolTip@CImageComboBox@@AAEXXZ		; CImageComboBox::InitToolTip
PUBLIC	?AddToolInTooltip@CImageComboBox@@AAEXABV?$CStringT@DV?$StrTraitMFC_DLL@DV?$ChTraitsCRT@D@ATL@@@@@ATL@@_N@Z ; CImageComboBox::AddToolInTooltip
PUBLIC	??_GCImageComboBox@@UAEPAXI@Z			; CImageComboBox::`scalar deleting destructor'
PUBLIC	??_R0PAVCException@@@8				; CException * `RTTI Type Descriptor'
PUBLIC	??_7CGdiObject@@6B@				; CGdiObject::`vftable'
PUBLIC	??_7CBrush@@6B@					; CBrush::`vftable'
PUBLIC	??_7CBitmap@@6B@				; CBitmap::`vftable'
PUBLIC	??_7CComboBox@@6B@				; CComboBox::`vftable'
PUBLIC	??_C@_0HD@JJCHHHNK@C?3?2Program?5Files?5?$CIx86?$CJ?2Microsof@ ; `string'
PUBLIC	??_C@_0BP@OIEOKIDM@Exception?5thrown?5in?5destructor@ ; `string'
PUBLIC	??_C@_0BB@HBOOMJBF@?$CFTs?5?$CI?$CFTs?3?$CFd?$CJ?6?$CFTs@ ; `string'
PUBLIC	??_C@_0N@OMEMOKLE@?$CFTs?5?$CI?$CFTs?3?$CFd?$CJ@ ; `string'
PUBLIC	??_R0?AVCObject@@@8				; CObject `RTTI Type Descriptor'
PUBLIC	??_R3CObject@@8					; CObject::`RTTI Class Hierarchy Descriptor'
PUBLIC	??_R2CObject@@8					; CObject::`RTTI Base Class Array'
PUBLIC	??_R1A@?0A@EA@CObject@@8			; CObject::`RTTI Base Class Descriptor at (0,-1,0,64)'
PUBLIC	??_R4CGdiObject@@6B@				; CGdiObject::`RTTI Complete Object Locator'
PUBLIC	??_R0?AVCGdiObject@@@8				; CGdiObject `RTTI Type Descriptor'
PUBLIC	??_R3CGdiObject@@8				; CGdiObject::`RTTI Class Hierarchy Descriptor'
PUBLIC	??_R2CGdiObject@@8				; CGdiObject::`RTTI Base Class Array'
PUBLIC	??_R1A@?0A@EA@CGdiObject@@8			; CGdiObject::`RTTI Base Class Descriptor at (0,-1,0,64)'
PUBLIC	??_R4CBrush@@6B@				; CBrush::`RTTI Complete Object Locator'
PUBLIC	??_R0?AVCBrush@@@8				; CBrush `RTTI Type Descriptor'
PUBLIC	??_R3CBrush@@8					; CBrush::`RTTI Class Hierarchy Descriptor'
PUBLIC	??_R2CBrush@@8					; CBrush::`RTTI Base Class Array'
PUBLIC	??_R1A@?0A@EA@CBrush@@8				; CBrush::`RTTI Base Class Descriptor at (0,-1,0,64)'
PUBLIC	??_R4CBitmap@@6B@				; CBitmap::`RTTI Complete Object Locator'
PUBLIC	??_R0?AVCBitmap@@@8				; CBitmap `RTTI Type Descriptor'
PUBLIC	??_R3CBitmap@@8					; CBitmap::`RTTI Class Hierarchy Descriptor'
PUBLIC	??_R2CBitmap@@8					; CBitmap::`RTTI Base Class Array'
PUBLIC	??_R1A@?0A@EA@CBitmap@@8			; CBitmap::`RTTI Base Class Descriptor at (0,-1,0,64)'
PUBLIC	??_R1A@?0A@EA@CWnd@@8				; CWnd::`RTTI Base Class Descriptor at (0,-1,0,64)'
PUBLIC	??_R0?AVCWnd@@@8				; CWnd `RTTI Type Descriptor'
PUBLIC	??_R3CWnd@@8					; CWnd::`RTTI Class Hierarchy Descriptor'
PUBLIC	??_R2CWnd@@8					; CWnd::`RTTI Base Class Array'
PUBLIC	??_R1A@?0A@EA@CCmdTarget@@8			; CCmdTarget::`RTTI Base Class Descriptor at (0,-1,0,64)'
PUBLIC	??_R0?AVCCmdTarget@@@8				; CCmdTarget `RTTI Type Descriptor'
PUBLIC	??_R3CCmdTarget@@8				; CCmdTarget::`RTTI Class Hierarchy Descriptor'
PUBLIC	??_R2CCmdTarget@@8				; CCmdTarget::`RTTI Base Class Array'
PUBLIC	??_R4CComboBox@@6B@				; CComboBox::`RTTI Complete Object Locator'
PUBLIC	??_R0?AVCComboBox@@@8				; CComboBox `RTTI Type Descriptor'
PUBLIC	??_R3CComboBox@@8				; CComboBox::`RTTI Class Hierarchy Descriptor'
PUBLIC	??_R2CComboBox@@8				; CComboBox::`RTTI Base Class Array'
PUBLIC	??_R1A@?0A@EA@CComboBox@@8			; CComboBox::`RTTI Base Class Descriptor at (0,-1,0,64)'
PUBLIC	??_7CImageComboBox@@6B@				; CImageComboBox::`vftable'
PUBLIC	??_R4CImageComboBox@@6B@			; CImageComboBox::`RTTI Complete Object Locator'
PUBLIC	??_R0?AVCImageComboBox@@@8			; CImageComboBox `RTTI Type Descriptor'
PUBLIC	??_R3CImageComboBox@@8				; CImageComboBox::`RTTI Class Hierarchy Descriptor'
PUBLIC	??_R2CImageComboBox@@8				; CImageComboBox::`RTTI Base Class Array'
PUBLIC	??_R1A@?0A@EA@CImageComboBox@@8			; CImageComboBox::`RTTI Base Class Descriptor at (0,-1,0,64)'
EXTRN	??3@YAXPAX@Z:PROC				; operator delete
EXTRN	?__global_delete@@YAXPAXI@Z:PROC		; __global_delete
EXTRN	__imp__BitBlt@36:PROC
EXTRN	__imp__CreateCompatibleDC@4:PROC
EXTRN	__imp__SendMessageA@16:PROC
EXTRN	__imp__EnableWindow@8:PROC
EXTRN	__imp__InvalidateRect@12:PROC
EXTRN	__imp__GetClientRect@8:PROC
EXTRN	__imp__FrameRect@12:PROC
EXTRN	__imp__CopyRect@8:PROC
EXTRN	__imp__GetParent@4:PROC
EXTRN	__imp__atof:PROC
EXTRN	__imp_??A?$CSimpleStringT@D$00@ATL@@QBEDH@Z:PROC
EXTRN	__imp_??0?$CStringT@DV?$StrTraitMFC_DLL@DV?$ChTraitsCRT@D@ATL@@@@@ATL@@QAE@XZ:PROC
EXTRN	__imp_??0?$CStringT@DV?$StrTraitMFC_DLL@DV?$ChTraitsCRT@D@ATL@@@@@ATL@@QAE@PBD@Z:PROC
EXTRN	__imp_??1?$CStringT@DV?$StrTraitMFC_DLL@DV?$ChTraitsCRT@D@ATL@@@@@ATL@@QAE@XZ:PROC
EXTRN	__imp_??4?$CStringT@DV?$StrTraitMFC_DLL@DV?$ChTraitsCRT@D@ATL@@@@@ATL@@QAEAAV01@ABV01@@Z:PROC
EXTRN	__imp_?Format@?$CStringT@DV?$StrTraitMFC_DLL@DV?$ChTraitsCRT@D@ATL@@@@@ATL@@QAAXPBDZZ:PROC
EXTRN	?GetRuntimeClass@CGdiObject@@UBEPAUCRuntimeClass@@XZ:PROC ; CGdiObject::GetRuntimeClass
EXTRN	?DeleteObject@CGdiObject@@QAEHXZ:PROC		; CGdiObject::DeleteObject
EXTRN	??_ECGdiObject@@UAEPAXI@Z:PROC			; CGdiObject::`vector deleting destructor'
EXTRN	?GetRuntimeClass@CBrush@@UBEPAUCRuntimeClass@@XZ:PROC ; CBrush::GetRuntimeClass
EXTRN	??0CBrush@@QAE@K@Z:PROC				; CBrush::CBrush
EXTRN	??_ECBrush@@UAEPAXI@Z:PROC			; CBrush::`vector deleting destructor'
EXTRN	?GetRuntimeClass@CBitmap@@UBEPAUCRuntimeClass@@XZ:PROC ; CBitmap::GetRuntimeClass
EXTRN	??_ECBitmap@@UAEPAXI@Z:PROC			; CBitmap::`vector deleting destructor'
EXTRN	?FromHandle@CDC@@SGPAV1@PAUHDC__@@@Z:PROC	; CDC::FromHandle
EXTRN	?Attach@CDC@@QAEHPAUHDC__@@@Z:PROC		; CDC::Attach
EXTRN	??0CDC@@QAE@XZ:PROC				; CDC::CDC
EXTRN	??1CDC@@UAE@XZ:PROC				; CDC::~CDC
EXTRN	?SelectGdiObject@CDC@@KGPAVCGdiObject@@PAUHDC__@@PAX@Z:PROC ; CDC::SelectGdiObject
EXTRN	?OnCmdMsg@CCmdTarget@@UAEHIHPAXPAUAFX_CMDHANDLERINFO@@@Z:PROC ; CCmdTarget::OnCmdMsg
EXTRN	?IsInvokeAllowed@CCmdTarget@@UAEHJ@Z:PROC	; CCmdTarget::IsInvokeAllowed
EXTRN	?GetDispatchIID@CCmdTarget@@UAEHPAU_GUID@@@Z:PROC ; CCmdTarget::GetDispatchIID
EXTRN	?GetTypeInfoCount@CCmdTarget@@UAEIXZ:PROC	; CCmdTarget::GetTypeInfoCount
EXTRN	?GetTypeLibCache@CCmdTarget@@UAEPAVCTypeLibCache@@XZ:PROC ; CCmdTarget::GetTypeLibCache
EXTRN	?GetTypeLib@CCmdTarget@@UAEJKPAPAUITypeLib@@@Z:PROC ; CCmdTarget::GetTypeLib
EXTRN	?GetCommandMap@CCmdTarget@@MBEPBUAFX_OLECMDMAP@@XZ:PROC ; CCmdTarget::GetCommandMap
EXTRN	?GetDispatchMap@CCmdTarget@@MBEPBUAFX_DISPMAP@@XZ:PROC ; CCmdTarget::GetDispatchMap
EXTRN	?GetConnectionMap@CCmdTarget@@MBEPBUAFX_CONNECTIONMAP@@XZ:PROC ; CCmdTarget::GetConnectionMap
EXTRN	?GetEventSinkMap@CCmdTarget@@MBEPBUAFX_EVENTSINKMAP@@XZ:PROC ; CCmdTarget::GetEventSinkMap
EXTRN	?OnCreateAggregates@CCmdTarget@@UAEHXZ:PROC	; CCmdTarget::OnCreateAggregates
EXTRN	?GetInterfaceHook@CCmdTarget@@UAEPAUIUnknown@@PBX@Z:PROC ; CCmdTarget::GetInterfaceHook
EXTRN	?GetExtraConnectionPoints@CCmdTarget@@MAEHPAVCPtrArray@@@Z:PROC ; CCmdTarget::GetExtraConnectionPoints
EXTRN	?GetConnectionHook@CCmdTarget@@MAEPAUIConnectionPoint@@ABU_GUID@@@Z:PROC ; CCmdTarget::GetConnectionHook
EXTRN	??0CWnd@@QAE@XZ:PROC				; CWnd::CWnd
EXTRN	?FromHandle@CWnd@@SGPAV1@PAUHWND__@@@Z:PROC	; CWnd::FromHandle
EXTRN	?PreSubclassWindow@CWnd@@UAEXXZ:PROC		; CWnd::PreSubclassWindow
EXTRN	?Create@CWnd@@UAEHPBD0KABUtagRECT@@PAV1@IPAUCCreateContext@@@Z:PROC ; CWnd::Create
EXTRN	?CreateEx@CWnd@@UAEHKPBD0KHHHHPAUHWND__@@PAUHMENU__@@PAX@Z:PROC ; CWnd::CreateEx
EXTRN	?CreateEx@CWnd@@UAEHKPBD0KABUtagRECT@@PAV1@IPAX@Z:PROC ; CWnd::CreateEx
EXTRN	?DestroyWindow@CWnd@@UAEHXZ:PROC		; CWnd::DestroyWindow
EXTRN	?PreCreateWindow@CWnd@@UAEHAAUtagCREATESTRUCTA@@@Z:PROC ; CWnd::PreCreateWindow
EXTRN	?CalcWindowRect@CWnd@@UAEXPAUtagRECT@@I@Z:PROC	; CWnd::CalcWindowRect
EXTRN	?GetMenu@CWnd@@UBEPAVCMenu@@XZ:PROC		; CWnd::GetMenu
EXTRN	?SetMenu@CWnd@@UAEHPAVCMenu@@@Z:PROC		; CWnd::SetMenu
EXTRN	?OnToolHitTest@CWnd@@UBEHVCPoint@@PAUtagTOOLINFOA@@@Z:PROC ; CWnd::OnToolHitTest
EXTRN	?SetFocus@CWnd@@QAEPAV1@XZ:PROC			; CWnd::SetFocus
EXTRN	?GetScrollBarCtrl@CWnd@@UBEPAVCScrollBar@@H@Z:PROC ; CWnd::GetScrollBarCtrl
EXTRN	?WinHelpA@CWnd@@UAEXKI@Z:PROC			; CWnd::WinHelpA
EXTRN	?HtmlHelpA@CWnd@@UAEXKI@Z:PROC			; CWnd::HtmlHelpA
EXTRN	?WinHelpInternal@CWnd@@UAEXKI@Z:PROC		; CWnd::WinHelpInternal
EXTRN	?ContinueModal@CWnd@@UAEHXZ:PROC		; CWnd::ContinueModal
EXTRN	?EndModalLoop@CWnd@@UAEXH@Z:PROC		; CWnd::EndModalLoop
EXTRN	?OnDrawIconicThumbnailOrLivePreview@CWnd@@UAEXAAVCDC@@VCRect@@VCSize@@HAAH@Z:PROC ; CWnd::OnDrawIconicThumbnailOrLivePreview
EXTRN	?GetInterfaceMap@CWnd@@MBEPBUAFX_INTERFACEMAP@@XZ:PROC ; CWnd::GetInterfaceMap
EXTRN	?EnsureStdObj@CWnd@@UAEJXZ:PROC			; CWnd::EnsureStdObj
EXTRN	?get_accParent@CWnd@@UAEJPAPAUIDispatch@@@Z:PROC ; CWnd::get_accParent
EXTRN	?get_accChildCount@CWnd@@UAEJPAJ@Z:PROC		; CWnd::get_accChildCount
EXTRN	?get_accChild@CWnd@@UAEJUtagVARIANT@@PAPAUIDispatch@@@Z:PROC ; CWnd::get_accChild
EXTRN	?get_accName@CWnd@@UAEJUtagVARIANT@@PAPA_W@Z:PROC ; CWnd::get_accName
EXTRN	?get_accValue@CWnd@@UAEJUtagVARIANT@@PAPA_W@Z:PROC ; CWnd::get_accValue
EXTRN	?get_accDescription@CWnd@@UAEJUtagVARIANT@@PAPA_W@Z:PROC ; CWnd::get_accDescription
EXTRN	?get_accRole@CWnd@@UAEJUtagVARIANT@@PAU2@@Z:PROC ; CWnd::get_accRole
EXTRN	?get_accState@CWnd@@UAEJUtagVARIANT@@PAU2@@Z:PROC ; CWnd::get_accState
EXTRN	?get_accHelp@CWnd@@UAEJUtagVARIANT@@PAPA_W@Z:PROC ; CWnd::get_accHelp
EXTRN	?get_accHelpTopic@CWnd@@UAEJPAPA_WUtagVARIANT@@PAJ@Z:PROC ; CWnd::get_accHelpTopic
EXTRN	?get_accKeyboardShortcut@CWnd@@UAEJUtagVARIANT@@PAPA_W@Z:PROC ; CWnd::get_accKeyboardShortcut
EXTRN	?get_accFocus@CWnd@@UAEJPAUtagVARIANT@@@Z:PROC	; CWnd::get_accFocus
EXTRN	?get_accSelection@CWnd@@UAEJPAUtagVARIANT@@@Z:PROC ; CWnd::get_accSelection
EXTRN	?get_accDefaultAction@CWnd@@UAEJUtagVARIANT@@PAPA_W@Z:PROC ; CWnd::get_accDefaultAction
EXTRN	?accSelect@CWnd@@UAEJJUtagVARIANT@@@Z:PROC	; CWnd::accSelect
EXTRN	?accLocation@CWnd@@UAEJPAJ000UtagVARIANT@@@Z:PROC ; CWnd::accLocation
EXTRN	?accNavigate@CWnd@@UAEJJUtagVARIANT@@PAU2@@Z:PROC ; CWnd::accNavigate
EXTRN	?accHitTest@CWnd@@UAEJJJPAUtagVARIANT@@@Z:PROC	; CWnd::accHitTest
EXTRN	?accDoDefaultAction@CWnd@@UAEJUtagVARIANT@@@Z:PROC ; CWnd::accDoDefaultAction
EXTRN	?put_accName@CWnd@@UAEJUtagVARIANT@@PA_W@Z:PROC	; CWnd::put_accName
EXTRN	?put_accValue@CWnd@@UAEJUtagVARIANT@@PA_W@Z:PROC ; CWnd::put_accValue
EXTRN	?SetProxy@CWnd@@UAEJPAUIAccessibleProxy@@@Z:PROC ; CWnd::SetProxy
EXTRN	?CreateAccessibleProxy@CWnd@@UAEJIJPAJ@Z:PROC	; CWnd::CreateAccessibleProxy
EXTRN	?OnCommand@CWnd@@MAEHIJ@Z:PROC			; CWnd::OnCommand
EXTRN	?OnNotify@CWnd@@MAEHIJPAJ@Z:PROC		; CWnd::OnNotify
EXTRN	?GetSuperWndProcAddr@CWnd@@MAEPAP6GJPAUHWND__@@IIJ@ZXZ:PROC ; CWnd::GetSuperWndProcAddr
EXTRN	?PreTranslateMessage@CWnd@@UAEHPAUtagMSG@@@Z:PROC ; CWnd::PreTranslateMessage
EXTRN	?OnAmbientProperty@CWnd@@UAEHPAVCOleControlSite@@JPAUtagVARIANT@@@Z:PROC ; CWnd::OnAmbientProperty
EXTRN	?WindowProc@CWnd@@MAEJIIJ@Z:PROC		; CWnd::WindowProc
EXTRN	?OnWndMsg@CWnd@@MAEHIIJPAJ@Z:PROC		; CWnd::OnWndMsg
EXTRN	?Default@CWnd@@IAEJXZ:PROC			; CWnd::Default
EXTRN	?DefWindowProcA@CWnd@@MAEJIIJ@Z:PROC		; CWnd::DefWindowProcA
EXTRN	?PostNcDestroy@CWnd@@MAEXXZ:PROC		; CWnd::PostNcDestroy
EXTRN	?OnTouchInputs@CWnd@@MAEHIPAUtagTOUCHINPUT@@@Z:PROC ; CWnd::OnTouchInputs
EXTRN	?OnTouchInput@CWnd@@MAEHVCPoint@@HHPAUtagTOUCHINPUT@@@Z:PROC ; CWnd::OnTouchInput
EXTRN	?GetGestureStatus@CWnd@@MAEKVCPoint@@@Z:PROC	; CWnd::GetGestureStatus
EXTRN	?OnGestureZoom@CWnd@@MAEHVCPoint@@J@Z:PROC	; CWnd::OnGestureZoom
EXTRN	?OnGesturePan@CWnd@@MAEHVCPoint@@0@Z:PROC	; CWnd::OnGesturePan
EXTRN	?OnGestureRotate@CWnd@@MAEHVCPoint@@N@Z:PROC	; CWnd::OnGestureRotate
EXTRN	?OnGestureTwoFingerTap@CWnd@@MAEHVCPoint@@@Z:PROC ; CWnd::OnGestureTwoFingerTap
EXTRN	?OnGesturePressAndTap@CWnd@@MAEHVCPoint@@J@Z:PROC ; CWnd::OnGesturePressAndTap
EXTRN	?ResizeDynamicLayout@CWnd@@MAEXXZ:PROC		; CWnd::ResizeDynamicLayout
EXTRN	?CheckAutoCenter@CWnd@@UAEHXZ:PROC		; CWnd::CheckAutoCenter
EXTRN	?IsFrameWnd@CWnd@@UBEHXZ:PROC			; CWnd::IsFrameWnd
EXTRN	?OnFinalRelease@CWnd@@UAEXXZ:PROC		; CWnd::OnFinalRelease
EXTRN	?CreateControlContainer@CWnd@@MAEHPAPAVCOleControlContainer@@@Z:PROC ; CWnd::CreateControlContainer
EXTRN	?CreateControlSite@CWnd@@MAEHPAVCOleControlContainer@@PAPAVCOleControlSite@@IABU_GUID@@@Z:PROC ; CWnd::CreateControlSite
EXTRN	?SetOccDialogInfo@CWnd@@MAEHPAU_AFX_OCC_DIALOG_INFO@@@Z:PROC ; CWnd::SetOccDialogInfo
EXTRN	?GetOccDialogInfo@CWnd@@MAEPAU_AFX_OCC_DIALOG_INFO@@XZ:PROC ; CWnd::GetOccDialogInfo
EXTRN	?GetThisMessageMap@CWnd@@KGPBUAFX_MSGMAP@@XZ:PROC ; CWnd::GetThisMessageMap
EXTRN	?GetMessageMap@CWnd@@MBEPBUAFX_MSGMAP@@XZ:PROC	; CWnd::GetMessageMap
EXTRN	?GetRuntimeClass@CComboBox@@UBEPAUCRuntimeClass@@XZ:PROC ; CComboBox::GetRuntimeClass
EXTRN	?Create@CComboBox@@UAEHKABUtagRECT@@PAVCWnd@@I@Z:PROC ; CComboBox::Create
EXTRN	?DrawItem@CComboBox@@UAEXPAUtagDRAWITEMSTRUCT@@@Z:PROC ; CComboBox::DrawItem
EXTRN	?MeasureItem@CComboBox@@UAEXPAUtagMEASUREITEMSTRUCT@@@Z:PROC ; CComboBox::MeasureItem
EXTRN	?CompareItem@CComboBox@@UAEHPAUtagCOMPAREITEMSTRUCT@@@Z:PROC ; CComboBox::CompareItem
EXTRN	?DeleteItem@CComboBox@@UAEXPAUtagDELETEITEMSTRUCT@@@Z:PROC ; CComboBox::DeleteItem
EXTRN	??1CComboBox@@UAE@XZ:PROC			; CComboBox::~CComboBox
EXTRN	?OnChildNotify@CComboBox@@MAEHIIJPAJ@Z:PROC	; CComboBox::OnChildNotify
EXTRN	??_ECComboBox@@UAEPAXI@Z:PROC			; CComboBox::`vector deleting destructor'
EXTRN	?AfxMessageBox@@YGHPBDII@Z:PROC			; AfxMessageBox
EXTRN	??0CToolTipCtrl@@QAE@XZ:PROC			; CToolTipCtrl::CToolTipCtrl
EXTRN	?AddTool@CToolTipCtrl@@QAEHPAVCWnd@@PBDPBUtagRECT@@I@Z:PROC ; CToolTipCtrl::AddTool
EXTRN	?UpdateTipText@CToolTipCtrl@@QAEXPBDPAVCWnd@@I@Z:PROC ; CToolTipCtrl::UpdateTipText
EXTRN	??1CToolTipCtrl@@UAE@XZ:PROC			; CToolTipCtrl::~CToolTipCtrl
EXTRN	??_ECImageComboBox@@UAEPAXI@Z:PROC		; CImageComboBox::`vector deleting destructor'
EXTRN	@__security_check_cookie@4:PROC
EXTRN	___CxxFrameHandler3:PROC
EXTRN	??_7type_info@@6B@:QWORD			; type_info::`vftable'
EXTRN	___security_cookie:DWORD
EXTRN	__fltused:DWORD
;	COMDAT ??_R1A@?0A@EA@CImageComboBox@@8
rdata$r	SEGMENT
??_R1A@?0A@EA@CImageComboBox@@8 DD FLAT:??_R0?AVCImageComboBox@@@8 ; CImageComboBox::`RTTI Base Class Descriptor at (0,-1,0,64)'
	DD	04H
	DD	00H
	DD	0ffffffffH
	DD	00H
	DD	040H
	DD	FLAT:??_R3CImageComboBox@@8
rdata$r	ENDS
;	COMDAT ??_R2CImageComboBox@@8
rdata$r	SEGMENT
??_R2CImageComboBox@@8 DD FLAT:??_R1A@?0A@EA@CImageComboBox@@8 ; CImageComboBox::`RTTI Base Class Array'
	DD	FLAT:??_R1A@?0A@EA@CComboBox@@8
	DD	FLAT:??_R1A@?0A@EA@CWnd@@8
	DD	FLAT:??_R1A@?0A@EA@CCmdTarget@@8
	DD	FLAT:??_R1A@?0A@EA@CObject@@8
rdata$r	ENDS
;	COMDAT ??_R3CImageComboBox@@8
rdata$r	SEGMENT
??_R3CImageComboBox@@8 DD 00H				; CImageComboBox::`RTTI Class Hierarchy Descriptor'
	DD	00H
	DD	05H
	DD	FLAT:??_R2CImageComboBox@@8
rdata$r	ENDS
;	COMDAT ??_R0?AVCImageComboBox@@@8
data$rs	SEGMENT
??_R0?AVCImageComboBox@@@8 DD FLAT:??_7type_info@@6B@	; CImageComboBox `RTTI Type Descriptor'
	DD	00H
	DB	'.?AVCImageComboBox@@', 00H
data$rs	ENDS
;	COMDAT ??_R4CImageComboBox@@6B@
rdata$r	SEGMENT
??_R4CImageComboBox@@6B@ DD 00H				; CImageComboBox::`RTTI Complete Object Locator'
	DD	00H
	DD	00H
	DD	FLAT:??_R0?AVCImageComboBox@@@8
	DD	FLAT:??_R3CImageComboBox@@8
rdata$r	ENDS
;	COMDAT ?messageMap@?1??GetThisMessageMap@CImageComboBox@@KGPBUAFX_MSGMAP@@XZ@4U3@B
CONST	SEGMENT
?messageMap@?1??GetThisMessageMap@CImageComboBox@@KGPBUAFX_MSGMAP@@XZ@4U3@B DD FLAT:?GetThisMessageMap@CWnd@@KGPBUAFX_MSGMAP@@XZ ; `CImageComboBox::GetThisMessageMap'::`2'::messageMap
	DD	FLAT:?_messageEntries@?1??GetThisMessageMap@CImageComboBox@@KGPBUAFX_MSGMAP@@XZ@4QBUAFX_MSGMAP_ENTRY@@B
CONST	ENDS
;	COMDAT ?_messageEntries@?1??GetThisMessageMap@CImageComboBox@@KGPBUAFX_MSGMAP@@XZ@4QBUAFX_MSGMAP_ENTRY@@B
CONST	SEGMENT
?_messageEntries@?1??GetThisMessageMap@CImageComboBox@@KGPBUAFX_MSGMAP@@XZ@4QBUAFX_MSGMAP_ENTRY@@B DD 0200H ; `CImageComboBox::GetThisMessageMap'::`2'::_messageEntries
	DD	00H
	DD	00H
	DD	00H
	DD	036H
	DD	FLAT:?OnMouseMove@CImageComboBox@@IAEXIVCPoint@@@Z
	DD	0202H
	DD	00H
	DD	00H
	DD	00H
	DD	036H
	DD	FLAT:?OnLButtonUp@CImageComboBox@@IAEXIVCPoint@@@Z
	DD	07H
	DD	00H
	DD	00H
	DD	00H
	DD	024H
	DD	FLAT:?OnSetFocus@CImageComboBox@@IAEXPAVCWnd@@@Z
	DD	00H
	DD	00H
	DD	00H
	DD	00H
	DD	00H
	DD	00H
CONST	ENDS
;	COMDAT ??_7CImageComboBox@@6B@
CONST	SEGMENT
??_7CImageComboBox@@6B@ DD FLAT:??_R4CImageComboBox@@6B@ ; CImageComboBox::`vftable'
	DD	FLAT:?GetRuntimeClass@CComboBox@@UBEPAUCRuntimeClass@@XZ
	DD	FLAT:??_ECImageComboBox@@UAEPAXI@Z
	DD	FLAT:?Serialize@CObject@@UAEXAAVCArchive@@@Z
	DD	FLAT:?AssertValid@CObject@@UBEXXZ
	DD	FLAT:?Dump@CObject@@UBEXAAVCDumpContext@@@Z
	DD	FLAT:?OnCmdMsg@CCmdTarget@@UAEHIHPAXPAUAFX_CMDHANDLERINFO@@@Z
	DD	FLAT:?OnFinalRelease@CWnd@@UAEXXZ
	DD	FLAT:?IsInvokeAllowed@CCmdTarget@@UAEHJ@Z
	DD	FLAT:?GetDispatchIID@CCmdTarget@@UAEHPAU_GUID@@@Z
	DD	FLAT:?GetTypeInfoCount@CCmdTarget@@UAEIXZ
	DD	FLAT:?GetTypeLibCache@CCmdTarget@@UAEPAVCTypeLibCache@@XZ
	DD	FLAT:?GetTypeLib@CCmdTarget@@UAEJKPAPAUITypeLib@@@Z
	DD	FLAT:?GetMessageMap@CImageComboBox@@MBEPBUAFX_MSGMAP@@XZ
	DD	FLAT:?GetCommandMap@CCmdTarget@@MBEPBUAFX_OLECMDMAP@@XZ
	DD	FLAT:?GetDispatchMap@CCmdTarget@@MBEPBUAFX_DISPMAP@@XZ
	DD	FLAT:?GetConnectionMap@CCmdTarget@@MBEPBUAFX_CONNECTIONMAP@@XZ
	DD	FLAT:?GetInterfaceMap@CWnd@@MBEPBUAFX_INTERFACEMAP@@XZ
	DD	FLAT:?GetEventSinkMap@CCmdTarget@@MBEPBUAFX_EVENTSINKMAP@@XZ
	DD	FLAT:?OnCreateAggregates@CCmdTarget@@UAEHXZ
	DD	FLAT:?GetInterfaceHook@CCmdTarget@@UAEPAUIUnknown@@PBX@Z
	DD	FLAT:?GetExtraConnectionPoints@CCmdTarget@@MAEHPAVCPtrArray@@@Z
	DD	FLAT:?GetConnectionHook@CCmdTarget@@MAEPAUIConnectionPoint@@ABU_GUID@@@Z
	DD	FLAT:?PreSubclassWindow@CWnd@@UAEXXZ
	DD	FLAT:?Create@CWnd@@UAEHPBD0KABUtagRECT@@PAV1@IPAUCCreateContext@@@Z
	DD	FLAT:?CreateEx@CWnd@@UAEHKPBD0KABUtagRECT@@PAV1@IPAX@Z
	DD	FLAT:?CreateEx@CWnd@@UAEHKPBD0KHHHHPAUHWND__@@PAUHMENU__@@PAX@Z
	DD	FLAT:?DestroyWindow@CWnd@@UAEHXZ
	DD	FLAT:?PreCreateWindow@CWnd@@UAEHAAUtagCREATESTRUCTA@@@Z
	DD	FLAT:?CalcWindowRect@CWnd@@UAEXPAUtagRECT@@I@Z
	DD	FLAT:?GetMenu@CWnd@@UBEPAVCMenu@@XZ
	DD	FLAT:?SetMenu@CWnd@@UAEHPAVCMenu@@@Z
	DD	FLAT:?OnToolHitTest@CWnd@@UBEHVCPoint@@PAUtagTOOLINFOA@@@Z
	DD	FLAT:?GetScrollBarCtrl@CWnd@@UBEPAVCScrollBar@@H@Z
	DD	FLAT:?WinHelpA@CWnd@@UAEXKI@Z
	DD	FLAT:?HtmlHelpA@CWnd@@UAEXKI@Z
	DD	FLAT:?WinHelpInternal@CWnd@@UAEXKI@Z
	DD	FLAT:?ContinueModal@CWnd@@UAEHXZ
	DD	FLAT:?EndModalLoop@CWnd@@UAEXH@Z
	DD	FLAT:?OnDrawIconicThumbnailOrLivePreview@CWnd@@UAEXAAVCDC@@VCRect@@VCSize@@HAAH@Z
	DD	FLAT:?EnsureStdObj@CWnd@@UAEJXZ
	DD	FLAT:?get_accParent@CWnd@@UAEJPAPAUIDispatch@@@Z
	DD	FLAT:?get_accChildCount@CWnd@@UAEJPAJ@Z
	DD	FLAT:?get_accChild@CWnd@@UAEJUtagVARIANT@@PAPAUIDispatch@@@Z
	DD	FLAT:?get_accName@CWnd@@UAEJUtagVARIANT@@PAPA_W@Z
	DD	FLAT:?get_accValue@CWnd@@UAEJUtagVARIANT@@PAPA_W@Z
	DD	FLAT:?get_accDescription@CWnd@@UAEJUtagVARIANT@@PAPA_W@Z
	DD	FLAT:?get_accRole@CWnd@@UAEJUtagVARIANT@@PAU2@@Z
	DD	FLAT:?get_accState@CWnd@@UAEJUtagVARIANT@@PAU2@@Z
	DD	FLAT:?get_accHelp@CWnd@@UAEJUtagVARIANT@@PAPA_W@Z
	DD	FLAT:?get_accHelpTopic@CWnd@@UAEJPAPA_WUtagVARIANT@@PAJ@Z
	DD	FLAT:?get_accKeyboardShortcut@CWnd@@UAEJUtagVARIANT@@PAPA_W@Z
	DD	FLAT:?get_accFocus@CWnd@@UAEJPAUtagVARIANT@@@Z
	DD	FLAT:?get_accSelection@CWnd@@UAEJPAUtagVARIANT@@@Z
	DD	FLAT:?get_accDefaultAction@CWnd@@UAEJUtagVARIANT@@PAPA_W@Z
	DD	FLAT:?accSelect@CWnd@@UAEJJUtagVARIANT@@@Z
	DD	FLAT:?accLocation@CWnd@@UAEJPAJ000UtagVARIANT@@@Z
	DD	FLAT:?accNavigate@CWnd@@UAEJJUtagVARIANT@@PAU2@@Z
	DD	FLAT:?accHitTest@CWnd@@UAEJJJPAUtagVARIANT@@@Z
	DD	FLAT:?accDoDefaultAction@CWnd@@UAEJUtagVARIANT@@@Z
	DD	FLAT:?put_accName@CWnd@@UAEJUtagVARIANT@@PA_W@Z
	DD	FLAT:?put_accValue@CWnd@@UAEJUtagVARIANT@@PA_W@Z
	DD	FLAT:?SetProxy@CWnd@@UAEJPAUIAccessibleProxy@@@Z
	DD	FLAT:?CreateAccessibleProxy@CWnd@@UAEJIJPAJ@Z
	DD	FLAT:?OnCommand@CWnd@@MAEHIJ@Z
	DD	FLAT:?OnNotify@CWnd@@MAEHIJPAJ@Z
	DD	FLAT:?GetSuperWndProcAddr@CWnd@@MAEPAP6GJPAUHWND__@@IIJ@ZXZ
	DD	FLAT:?DoDataExchange@CWnd@@MAEXPAVCDataExchange@@@Z
	DD	FLAT:?BeginModalState@CWnd@@UAEXXZ
	DD	FLAT:?EndModalState@CWnd@@UAEXXZ
	DD	FLAT:?PreTranslateMessage@CWnd@@UAEHPAUtagMSG@@@Z
	DD	FLAT:?OnAmbientProperty@CWnd@@UAEHPAVCOleControlSite@@JPAUtagVARIANT@@@Z
	DD	FLAT:?WindowProc@CWnd@@MAEJIIJ@Z
	DD	FLAT:?OnWndMsg@CWnd@@MAEHIIJPAJ@Z
	DD	FLAT:?DefWindowProcA@CWnd@@MAEJIIJ@Z
	DD	FLAT:?PostNcDestroy@CWnd@@MAEXXZ
	DD	FLAT:?OnChildNotify@CComboBox@@MAEHIIJPAJ@Z
	DD	FLAT:?OnTouchInputs@CWnd@@MAEHIPAUtagTOUCHINPUT@@@Z
	DD	FLAT:?OnTouchInput@CWnd@@MAEHVCPoint@@HHPAUtagTOUCHINPUT@@@Z
	DD	FLAT:?GetGestureStatus@CWnd@@MAEKVCPoint@@@Z
	DD	FLAT:?OnGestureZoom@CWnd@@MAEHVCPoint@@J@Z
	DD	FLAT:?OnGesturePan@CWnd@@MAEHVCPoint@@0@Z
	DD	FLAT:?OnGestureRotate@CWnd@@MAEHVCPoint@@N@Z
	DD	FLAT:?OnGestureTwoFingerTap@CWnd@@MAEHVCPoint@@@Z
	DD	FLAT:?OnGesturePressAndTap@CWnd@@MAEHVCPoint@@J@Z
	DD	FLAT:?ResizeDynamicLayout@CWnd@@MAEXXZ
	DD	FLAT:?CheckAutoCenter@CWnd@@UAEHXZ
	DD	FLAT:?IsFrameWnd@CWnd@@UBEHXZ
	DD	FLAT:?CreateControlContainer@CWnd@@MAEHPAPAVCOleControlContainer@@@Z
	DD	FLAT:?CreateControlSite@CWnd@@MAEHPAVCOleControlContainer@@PAPAVCOleControlSite@@IABU_GUID@@@Z
	DD	FLAT:?SetOccDialogInfo@CWnd@@MAEHPAU_AFX_OCC_DIALOG_INFO@@@Z
	DD	FLAT:?GetOccDialogInfo@CWnd@@MAEPAU_AFX_OCC_DIALOG_INFO@@XZ
	DD	FLAT:?Create@CComboBox@@UAEHKABUtagRECT@@PAVCWnd@@I@Z
	DD	FLAT:?DrawItem@CImageComboBox@@UAEXPAUtagDRAWITEMSTRUCT@@@Z
	DD	FLAT:?MeasureItem@CImageComboBox@@UAEXPAUtagMEASUREITEMSTRUCT@@@Z
	DD	FLAT:?CompareItem@CComboBox@@UAEHPAUtagCOMPAREITEMSTRUCT@@@Z
	DD	FLAT:?DeleteItem@CComboBox@@UAEXPAUtagDELETEITEMSTRUCT@@@Z
CONST	ENDS
;	COMDAT ??_R1A@?0A@EA@CComboBox@@8
rdata$r	SEGMENT
??_R1A@?0A@EA@CComboBox@@8 DD FLAT:??_R0?AVCComboBox@@@8 ; CComboBox::`RTTI Base Class Descriptor at (0,-1,0,64)'
	DD	03H
	DD	00H
	DD	0ffffffffH
	DD	00H
	DD	040H
	DD	FLAT:??_R3CComboBox@@8
rdata$r	ENDS
;	COMDAT ??_R2CComboBox@@8
rdata$r	SEGMENT
??_R2CComboBox@@8 DD FLAT:??_R1A@?0A@EA@CComboBox@@8	; CComboBox::`RTTI Base Class Array'
	DD	FLAT:??_R1A@?0A@EA@CWnd@@8
	DD	FLAT:??_R1A@?0A@EA@CCmdTarget@@8
	DD	FLAT:??_R1A@?0A@EA@CObject@@8
rdata$r	ENDS
;	COMDAT ??_R3CComboBox@@8
rdata$r	SEGMENT
??_R3CComboBox@@8 DD 00H				; CComboBox::`RTTI Class Hierarchy Descriptor'
	DD	00H
	DD	04H
	DD	FLAT:??_R2CComboBox@@8
rdata$r	ENDS
;	COMDAT ??_R0?AVCComboBox@@@8
data$rs	SEGMENT
??_R0?AVCComboBox@@@8 DD FLAT:??_7type_info@@6B@	; CComboBox `RTTI Type Descriptor'
	DD	00H
	DB	'.?AVCComboBox@@', 00H
data$rs	ENDS
;	COMDAT ??_R4CComboBox@@6B@
rdata$r	SEGMENT
??_R4CComboBox@@6B@ DD 00H				; CComboBox::`RTTI Complete Object Locator'
	DD	00H
	DD	00H
	DD	FLAT:??_R0?AVCComboBox@@@8
	DD	FLAT:??_R3CComboBox@@8
rdata$r	ENDS
;	COMDAT ??_R2CCmdTarget@@8
rdata$r	SEGMENT
??_R2CCmdTarget@@8 DD FLAT:??_R1A@?0A@EA@CCmdTarget@@8	; CCmdTarget::`RTTI Base Class Array'
	DD	FLAT:??_R1A@?0A@EA@CObject@@8
rdata$r	ENDS
;	COMDAT ??_R3CCmdTarget@@8
rdata$r	SEGMENT
??_R3CCmdTarget@@8 DD 00H				; CCmdTarget::`RTTI Class Hierarchy Descriptor'
	DD	00H
	DD	02H
	DD	FLAT:??_R2CCmdTarget@@8
rdata$r	ENDS
;	COMDAT ??_R0?AVCCmdTarget@@@8
data$rs	SEGMENT
??_R0?AVCCmdTarget@@@8 DD FLAT:??_7type_info@@6B@	; CCmdTarget `RTTI Type Descriptor'
	DD	00H
	DB	'.?AVCCmdTarget@@', 00H
data$rs	ENDS
;	COMDAT ??_R1A@?0A@EA@CCmdTarget@@8
rdata$r	SEGMENT
??_R1A@?0A@EA@CCmdTarget@@8 DD FLAT:??_R0?AVCCmdTarget@@@8 ; CCmdTarget::`RTTI Base Class Descriptor at (0,-1,0,64)'
	DD	01H
	DD	00H
	DD	0ffffffffH
	DD	00H
	DD	040H
	DD	FLAT:??_R3CCmdTarget@@8
rdata$r	ENDS
;	COMDAT ??_R2CWnd@@8
rdata$r	SEGMENT
??_R2CWnd@@8 DD	FLAT:??_R1A@?0A@EA@CWnd@@8		; CWnd::`RTTI Base Class Array'
	DD	FLAT:??_R1A@?0A@EA@CCmdTarget@@8
	DD	FLAT:??_R1A@?0A@EA@CObject@@8
rdata$r	ENDS
;	COMDAT ??_R3CWnd@@8
rdata$r	SEGMENT
??_R3CWnd@@8 DD	00H					; CWnd::`RTTI Class Hierarchy Descriptor'
	DD	00H
	DD	03H
	DD	FLAT:??_R2CWnd@@8
rdata$r	ENDS
;	COMDAT ??_R0?AVCWnd@@@8
data$rs	SEGMENT
??_R0?AVCWnd@@@8 DD FLAT:??_7type_info@@6B@		; CWnd `RTTI Type Descriptor'
	DD	00H
	DB	'.?AVCWnd@@', 00H
data$rs	ENDS
;	COMDAT ??_R1A@?0A@EA@CWnd@@8
rdata$r	SEGMENT
??_R1A@?0A@EA@CWnd@@8 DD FLAT:??_R0?AVCWnd@@@8		; CWnd::`RTTI Base Class Descriptor at (0,-1,0,64)'
	DD	02H
	DD	00H
	DD	0ffffffffH
	DD	00H
	DD	040H
	DD	FLAT:??_R3CWnd@@8
rdata$r	ENDS
;	COMDAT ??_R1A@?0A@EA@CBitmap@@8
rdata$r	SEGMENT
??_R1A@?0A@EA@CBitmap@@8 DD FLAT:??_R0?AVCBitmap@@@8	; CBitmap::`RTTI Base Class Descriptor at (0,-1,0,64)'
	DD	02H
	DD	00H
	DD	0ffffffffH
	DD	00H
	DD	040H
	DD	FLAT:??_R3CBitmap@@8
rdata$r	ENDS
;	COMDAT ??_R2CBitmap@@8
rdata$r	SEGMENT
??_R2CBitmap@@8 DD FLAT:??_R1A@?0A@EA@CBitmap@@8	; CBitmap::`RTTI Base Class Array'
	DD	FLAT:??_R1A@?0A@EA@CGdiObject@@8
	DD	FLAT:??_R1A@?0A@EA@CObject@@8
rdata$r	ENDS
;	COMDAT ??_R3CBitmap@@8
rdata$r	SEGMENT
??_R3CBitmap@@8 DD 00H					; CBitmap::`RTTI Class Hierarchy Descriptor'
	DD	00H
	DD	03H
	DD	FLAT:??_R2CBitmap@@8
rdata$r	ENDS
;	COMDAT ??_R0?AVCBitmap@@@8
data$rs	SEGMENT
??_R0?AVCBitmap@@@8 DD FLAT:??_7type_info@@6B@		; CBitmap `RTTI Type Descriptor'
	DD	00H
	DB	'.?AVCBitmap@@', 00H
data$rs	ENDS
;	COMDAT ??_R4CBitmap@@6B@
rdata$r	SEGMENT
??_R4CBitmap@@6B@ DD 00H				; CBitmap::`RTTI Complete Object Locator'
	DD	00H
	DD	00H
	DD	FLAT:??_R0?AVCBitmap@@@8
	DD	FLAT:??_R3CBitmap@@8
rdata$r	ENDS
;	COMDAT ??_R1A@?0A@EA@CBrush@@8
rdata$r	SEGMENT
??_R1A@?0A@EA@CBrush@@8 DD FLAT:??_R0?AVCBrush@@@8	; CBrush::`RTTI Base Class Descriptor at (0,-1,0,64)'
	DD	02H
	DD	00H
	DD	0ffffffffH
	DD	00H
	DD	040H
	DD	FLAT:??_R3CBrush@@8
rdata$r	ENDS
;	COMDAT ??_R2CBrush@@8
rdata$r	SEGMENT
??_R2CBrush@@8 DD FLAT:??_R1A@?0A@EA@CBrush@@8		; CBrush::`RTTI Base Class Array'
	DD	FLAT:??_R1A@?0A@EA@CGdiObject@@8
	DD	FLAT:??_R1A@?0A@EA@CObject@@8
rdata$r	ENDS
;	COMDAT ??_R3CBrush@@8
rdata$r	SEGMENT
??_R3CBrush@@8 DD 00H					; CBrush::`RTTI Class Hierarchy Descriptor'
	DD	00H
	DD	03H
	DD	FLAT:??_R2CBrush@@8
rdata$r	ENDS
;	COMDAT ??_R0?AVCBrush@@@8
data$rs	SEGMENT
??_R0?AVCBrush@@@8 DD FLAT:??_7type_info@@6B@		; CBrush `RTTI Type Descriptor'
	DD	00H
	DB	'.?AVCBrush@@', 00H
data$rs	ENDS
;	COMDAT ??_R4CBrush@@6B@
rdata$r	SEGMENT
??_R4CBrush@@6B@ DD 00H					; CBrush::`RTTI Complete Object Locator'
	DD	00H
	DD	00H
	DD	FLAT:??_R0?AVCBrush@@@8
	DD	FLAT:??_R3CBrush@@8
rdata$r	ENDS
;	COMDAT ??_R1A@?0A@EA@CGdiObject@@8
rdata$r	SEGMENT
??_R1A@?0A@EA@CGdiObject@@8 DD FLAT:??_R0?AVCGdiObject@@@8 ; CGdiObject::`RTTI Base Class Descriptor at (0,-1,0,64)'
	DD	01H
	DD	00H
	DD	0ffffffffH
	DD	00H
	DD	040H
	DD	FLAT:??_R3CGdiObject@@8
rdata$r	ENDS
;	COMDAT ??_R2CGdiObject@@8
rdata$r	SEGMENT
??_R2CGdiObject@@8 DD FLAT:??_R1A@?0A@EA@CGdiObject@@8	; CGdiObject::`RTTI Base Class Array'
	DD	FLAT:??_R1A@?0A@EA@CObject@@8
rdata$r	ENDS
;	COMDAT ??_R3CGdiObject@@8
rdata$r	SEGMENT
??_R3CGdiObject@@8 DD 00H				; CGdiObject::`RTTI Class Hierarchy Descriptor'
	DD	00H
	DD	02H
	DD	FLAT:??_R2CGdiObject@@8
rdata$r	ENDS
;	COMDAT ??_R0?AVCGdiObject@@@8
data$rs	SEGMENT
??_R0?AVCGdiObject@@@8 DD FLAT:??_7type_info@@6B@	; CGdiObject `RTTI Type Descriptor'
	DD	00H
	DB	'.?AVCGdiObject@@', 00H
data$rs	ENDS
;	COMDAT ??_R4CGdiObject@@6B@
rdata$r	SEGMENT
??_R4CGdiObject@@6B@ DD 00H				; CGdiObject::`RTTI Complete Object Locator'
	DD	00H
	DD	00H
	DD	FLAT:??_R0?AVCGdiObject@@@8
	DD	FLAT:??_R3CGdiObject@@8
rdata$r	ENDS
;	COMDAT ??_R1A@?0A@EA@CObject@@8
rdata$r	SEGMENT
??_R1A@?0A@EA@CObject@@8 DD FLAT:??_R0?AVCObject@@@8	; CObject::`RTTI Base Class Descriptor at (0,-1,0,64)'
	DD	00H
	DD	00H
	DD	0ffffffffH
	DD	00H
	DD	040H
	DD	FLAT:??_R3CObject@@8
rdata$r	ENDS
;	COMDAT ??_R2CObject@@8
rdata$r	SEGMENT
??_R2CObject@@8 DD FLAT:??_R1A@?0A@EA@CObject@@8	; CObject::`RTTI Base Class Array'
rdata$r	ENDS
;	COMDAT ??_R3CObject@@8
rdata$r	SEGMENT
??_R3CObject@@8 DD 00H					; CObject::`RTTI Class Hierarchy Descriptor'
	DD	00H
	DD	01H
	DD	FLAT:??_R2CObject@@8
rdata$r	ENDS
;	COMDAT ??_R0?AVCObject@@@8
data$rs	SEGMENT
??_R0?AVCObject@@@8 DD FLAT:??_7type_info@@6B@		; CObject `RTTI Type Descriptor'
	DD	00H
	DB	'.?AVCObject@@', 00H
data$rs	ENDS
;	COMDAT ??_C@_0N@OMEMOKLE@?$CFTs?5?$CI?$CFTs?3?$CFd?$CJ@
CONST	SEGMENT
??_C@_0N@OMEMOKLE@?$CFTs?5?$CI?$CFTs?3?$CFd?$CJ@ DB '%Ts (%Ts:%d)', 00H ; `string'
CONST	ENDS
;	COMDAT ??_C@_0BB@HBOOMJBF@?$CFTs?5?$CI?$CFTs?3?$CFd?$CJ?6?$CFTs@
CONST	SEGMENT
??_C@_0BB@HBOOMJBF@?$CFTs?5?$CI?$CFTs?3?$CFd?$CJ?6?$CFTs@ DB '%Ts (%Ts:%d'
	DB	')', 0aH, '%Ts', 00H				; `string'
CONST	ENDS
;	COMDAT ??_C@_0BP@OIEOKIDM@Exception?5thrown?5in?5destructor@
CONST	SEGMENT
??_C@_0BP@OIEOKIDM@Exception?5thrown?5in?5destructor@ DB 'Exception throw'
	DB	'n in destructor', 00H			; `string'
CONST	ENDS
;	COMDAT ??_C@_0HD@JJCHHHNK@C?3?2Program?5Files?5?$CIx86?$CJ?2Microsof@
CONST	SEGMENT
??_C@_0HD@JJCHHHNK@C?3?2Program?5Files?5?$CIx86?$CJ?2Microsof@ DB 'C:\Pro'
	DB	'gram Files (x86)\Microsoft Visual Studio\2019\Community\VC\To'
	DB	'ols\MSVC\14.29.30133\atlmfc\include\afxwin1.inl', 00H ; `string'
CONST	ENDS
;	COMDAT ??_7CComboBox@@6B@
CONST	SEGMENT
??_7CComboBox@@6B@ DD FLAT:??_R4CComboBox@@6B@		; CComboBox::`vftable'
	DD	FLAT:?GetRuntimeClass@CComboBox@@UBEPAUCRuntimeClass@@XZ
	DD	FLAT:??_ECComboBox@@UAEPAXI@Z
	DD	FLAT:?Serialize@CObject@@UAEXAAVCArchive@@@Z
	DD	FLAT:?AssertValid@CObject@@UBEXXZ
	DD	FLAT:?Dump@CObject@@UBEXAAVCDumpContext@@@Z
	DD	FLAT:?OnCmdMsg@CCmdTarget@@UAEHIHPAXPAUAFX_CMDHANDLERINFO@@@Z
	DD	FLAT:?OnFinalRelease@CWnd@@UAEXXZ
	DD	FLAT:?IsInvokeAllowed@CCmdTarget@@UAEHJ@Z
	DD	FLAT:?GetDispatchIID@CCmdTarget@@UAEHPAU_GUID@@@Z
	DD	FLAT:?GetTypeInfoCount@CCmdTarget@@UAEIXZ
	DD	FLAT:?GetTypeLibCache@CCmdTarget@@UAEPAVCTypeLibCache@@XZ
	DD	FLAT:?GetTypeLib@CCmdTarget@@UAEJKPAPAUITypeLib@@@Z
	DD	FLAT:?GetMessageMap@CWnd@@MBEPBUAFX_MSGMAP@@XZ
	DD	FLAT:?GetCommandMap@CCmdTarget@@MBEPBUAFX_OLECMDMAP@@XZ
	DD	FLAT:?GetDispatchMap@CCmdTarget@@MBEPBUAFX_DISPMAP@@XZ
	DD	FLAT:?GetConnectionMap@CCmdTarget@@MBEPBUAFX_CONNECTIONMAP@@XZ
	DD	FLAT:?GetInterfaceMap@CWnd@@MBEPBUAFX_INTERFACEMAP@@XZ
	DD	FLAT:?GetEventSinkMap@CCmdTarget@@MBEPBUAFX_EVENTSINKMAP@@XZ
	DD	FLAT:?OnCreateAggregates@CCmdTarget@@UAEHXZ
	DD	FLAT:?GetInterfaceHook@CCmdTarget@@UAEPAUIUnknown@@PBX@Z
	DD	FLAT:?GetExtraConnectionPoints@CCmdTarget@@MAEHPAVCPtrArray@@@Z
	DD	FLAT:?GetConnectionHook@CCmdTarget@@MAEPAUIConnectionPoint@@ABU_GUID@@@Z
	DD	FLAT:?PreSubclassWindow@CWnd@@UAEXXZ
	DD	FLAT:?Create@CWnd@@UAEHPBD0KABUtagRECT@@PAV1@IPAUCCreateContext@@@Z
	DD	FLAT:?CreateEx@CWnd@@UAEHKPBD0KABUtagRECT@@PAV1@IPAX@Z
	DD	FLAT:?CreateEx@CWnd@@UAEHKPBD0KHHHHPAUHWND__@@PAUHMENU__@@PAX@Z
	DD	FLAT:?DestroyWindow@CWnd@@UAEHXZ
	DD	FLAT:?PreCreateWindow@CWnd@@UAEHAAUtagCREATESTRUCTA@@@Z
	DD	FLAT:?CalcWindowRect@CWnd@@UAEXPAUtagRECT@@I@Z
	DD	FLAT:?GetMenu@CWnd@@UBEPAVCMenu@@XZ
	DD	FLAT:?SetMenu@CWnd@@UAEHPAVCMenu@@@Z
	DD	FLAT:?OnToolHitTest@CWnd@@UBEHVCPoint@@PAUtagTOOLINFOA@@@Z
	DD	FLAT:?GetScrollBarCtrl@CWnd@@UBEPAVCScrollBar@@H@Z
	DD	FLAT:?WinHelpA@CWnd@@UAEXKI@Z
	DD	FLAT:?HtmlHelpA@CWnd@@UAEXKI@Z
	DD	FLAT:?WinHelpInternal@CWnd@@UAEXKI@Z
	DD	FLAT:?ContinueModal@CWnd@@UAEHXZ
	DD	FLAT:?EndModalLoop@CWnd@@UAEXH@Z
	DD	FLAT:?OnDrawIconicThumbnailOrLivePreview@CWnd@@UAEXAAVCDC@@VCRect@@VCSize@@HAAH@Z
	DD	FLAT:?EnsureStdObj@CWnd@@UAEJXZ
	DD	FLAT:?get_accParent@CWnd@@UAEJPAPAUIDispatch@@@Z
	DD	FLAT:?get_accChildCount@CWnd@@UAEJPAJ@Z
	DD	FLAT:?get_accChild@CWnd@@UAEJUtagVARIANT@@PAPAUIDispatch@@@Z
	DD	FLAT:?get_accName@CWnd@@UAEJUtagVARIANT@@PAPA_W@Z
	DD	FLAT:?get_accValue@CWnd@@UAEJUtagVARIANT@@PAPA_W@Z
	DD	FLAT:?get_accDescription@CWnd@@UAEJUtagVARIANT@@PAPA_W@Z
	DD	FLAT:?get_accRole@CWnd@@UAEJUtagVARIANT@@PAU2@@Z
	DD	FLAT:?get_accState@CWnd@@UAEJUtagVARIANT@@PAU2@@Z
	DD	FLAT:?get_accHelp@CWnd@@UAEJUtagVARIANT@@PAPA_W@Z
	DD	FLAT:?get_accHelpTopic@CWnd@@UAEJPAPA_WUtagVARIANT@@PAJ@Z
	DD	FLAT:?get_accKeyboardShortcut@CWnd@@UAEJUtagVARIANT@@PAPA_W@Z
	DD	FLAT:?get_accFocus@CWnd@@UAEJPAUtagVARIANT@@@Z
	DD	FLAT:?get_accSelection@CWnd@@UAEJPAUtagVARIANT@@@Z
	DD	FLAT:?get_accDefaultAction@CWnd@@UAEJUtagVARIANT@@PAPA_W@Z
	DD	FLAT:?accSelect@CWnd@@UAEJJUtagVARIANT@@@Z
	DD	FLAT:?accLocation@CWnd@@UAEJPAJ000UtagVARIANT@@@Z
	DD	FLAT:?accNavigate@CWnd@@UAEJJUtagVARIANT@@PAU2@@Z
	DD	FLAT:?accHitTest@CWnd@@UAEJJJPAUtagVARIANT@@@Z
	DD	FLAT:?accDoDefaultAction@CWnd@@UAEJUtagVARIANT@@@Z
	DD	FLAT:?put_accName@CWnd@@UAEJUtagVARIANT@@PA_W@Z
	DD	FLAT:?put_accValue@CWnd@@UAEJUtagVARIANT@@PA_W@Z
	DD	FLAT:?SetProxy@CWnd@@UAEJPAUIAccessibleProxy@@@Z
	DD	FLAT:?CreateAccessibleProxy@CWnd@@UAEJIJPAJ@Z
	DD	FLAT:?OnCommand@CWnd@@MAEHIJ@Z
	DD	FLAT:?OnNotify@CWnd@@MAEHIJPAJ@Z
	DD	FLAT:?GetSuperWndProcAddr@CWnd@@MAEPAP6GJPAUHWND__@@IIJ@ZXZ
	DD	FLAT:?DoDataExchange@CWnd@@MAEXPAVCDataExchange@@@Z
	DD	FLAT:?BeginModalState@CWnd@@UAEXXZ
	DD	FLAT:?EndModalState@CWnd@@UAEXXZ
	DD	FLAT:?PreTranslateMessage@CWnd@@UAEHPAUtagMSG@@@Z
	DD	FLAT:?OnAmbientProperty@CWnd@@UAEHPAVCOleControlSite@@JPAUtagVARIANT@@@Z
	DD	FLAT:?WindowProc@CWnd@@MAEJIIJ@Z
	DD	FLAT:?OnWndMsg@CWnd@@MAEHIIJPAJ@Z
	DD	FLAT:?DefWindowProcA@CWnd@@MAEJIIJ@Z
	DD	FLAT:?PostNcDestroy@CWnd@@MAEXXZ
	DD	FLAT:?OnChildNotify@CComboBox@@MAEHIIJPAJ@Z
	DD	FLAT:?OnTouchInputs@CWnd@@MAEHIPAUtagTOUCHINPUT@@@Z
	DD	FLAT:?OnTouchInput@CWnd@@MAEHVCPoint@@HHPAUtagTOUCHINPUT@@@Z
	DD	FLAT:?GetGestureStatus@CWnd@@MAEKVCPoint@@@Z
	DD	FLAT:?OnGestureZoom@CWnd@@MAEHVCPoint@@J@Z
	DD	FLAT:?OnGesturePan@CWnd@@MAEHVCPoint@@0@Z
	DD	FLAT:?OnGestureRotate@CWnd@@MAEHVCPoint@@N@Z
	DD	FLAT:?OnGestureTwoFingerTap@CWnd@@MAEHVCPoint@@@Z
	DD	FLAT:?OnGesturePressAndTap@CWnd@@MAEHVCPoint@@J@Z
	DD	FLAT:?ResizeDynamicLayout@CWnd@@MAEXXZ
	DD	FLAT:?CheckAutoCenter@CWnd@@UAEHXZ
	DD	FLAT:?IsFrameWnd@CWnd@@UBEHXZ
	DD	FLAT:?CreateControlContainer@CWnd@@MAEHPAPAVCOleControlContainer@@@Z
	DD	FLAT:?CreateControlSite@CWnd@@MAEHPAVCOleControlContainer@@PAPAVCOleControlSite@@IABU_GUID@@@Z
	DD	FLAT:?SetOccDialogInfo@CWnd@@MAEHPAU_AFX_OCC_DIALOG_INFO@@@Z
	DD	FLAT:?GetOccDialogInfo@CWnd@@MAEPAU_AFX_OCC_DIALOG_INFO@@XZ
	DD	FLAT:?Create@CComboBox@@UAEHKABUtagRECT@@PAVCWnd@@I@Z
	DD	FLAT:?DrawItem@CComboBox@@UAEXPAUtagDRAWITEMSTRUCT@@@Z
	DD	FLAT:?MeasureItem@CComboBox@@UAEXPAUtagMEASUREITEMSTRUCT@@@Z
	DD	FLAT:?CompareItem@CComboBox@@UAEHPAUtagCOMPAREITEMSTRUCT@@@Z
	DD	FLAT:?DeleteItem@CComboBox@@UAEXPAUtagDELETEITEMSTRUCT@@@Z
CONST	ENDS
;	COMDAT ??_7CBitmap@@6B@
CONST	SEGMENT
??_7CBitmap@@6B@ DD FLAT:??_R4CBitmap@@6B@		; CBitmap::`vftable'
	DD	FLAT:?GetRuntimeClass@CBitmap@@UBEPAUCRuntimeClass@@XZ
	DD	FLAT:??_ECBitmap@@UAEPAXI@Z
	DD	FLAT:?Serialize@CObject@@UAEXAAVCArchive@@@Z
	DD	FLAT:?AssertValid@CObject@@UBEXXZ
	DD	FLAT:?Dump@CObject@@UBEXAAVCDumpContext@@@Z
CONST	ENDS
;	COMDAT ??_7CBrush@@6B@
CONST	SEGMENT
??_7CBrush@@6B@ DD FLAT:??_R4CBrush@@6B@		; CBrush::`vftable'
	DD	FLAT:?GetRuntimeClass@CBrush@@UBEPAUCRuntimeClass@@XZ
	DD	FLAT:??_ECBrush@@UAEPAXI@Z
	DD	FLAT:?Serialize@CObject@@UAEXAAVCArchive@@@Z
	DD	FLAT:?AssertValid@CObject@@UBEXXZ
	DD	FLAT:?Dump@CObject@@UBEXAAVCDumpContext@@@Z
CONST	ENDS
;	COMDAT ??_7CGdiObject@@6B@
CONST	SEGMENT
??_7CGdiObject@@6B@ DD FLAT:??_R4CGdiObject@@6B@	; CGdiObject::`vftable'
	DD	FLAT:?GetRuntimeClass@CGdiObject@@UBEPAUCRuntimeClass@@XZ
	DD	FLAT:??_ECGdiObject@@UAEPAXI@Z
	DD	FLAT:?Serialize@CObject@@UAEXAAVCArchive@@@Z
	DD	FLAT:?AssertValid@CObject@@UBEXXZ
	DD	FLAT:?Dump@CObject@@UBEXAAVCDumpContext@@@Z
CONST	ENDS
;	COMDAT ??_R0PAVCException@@@8
data$r	SEGMENT
??_R0PAVCException@@@8 DD FLAT:??_7type_info@@6B@	; CException * `RTTI Type Descriptor'
	DD	00H
	DB	'.PAVCException@@', 00H
data$r	ENDS
;	COMDAT xdata$x
xdata$x	SEGMENT
__unwindtable$?DrawItem@CImageComboBox@@UAEXPAUtagDRAWITEMSTRUCT@@@Z DD 0ffffffffH
	DD	FLAT:__unwindfunclet$?DrawItem@CImageComboBox@@UAEXPAUtagDRAWITEMSTRUCT@@@Z$0
	DD	00H
	DD	FLAT:__unwindfunclet$?DrawItem@CImageComboBox@@UAEXPAUtagDRAWITEMSTRUCT@@@Z$1
__ehfuncinfo$?DrawItem@CImageComboBox@@UAEXPAUtagDRAWITEMSTRUCT@@@Z DD 019930522H
	DD	02H
	DD	FLAT:__unwindtable$?DrawItem@CImageComboBox@@UAEXPAUtagDRAWITEMSTRUCT@@@Z
	DD	2 DUP(00H)
	DD	2 DUP(00H)
	DD	00H
	DD	01H
xdata$x	ENDS
;	COMDAT xdata$x
xdata$x	SEGMENT
__unwindtable$??0CImageComboBox@@QAE@XZ DD 0ffffffffH
	DD	FLAT:__unwindfunclet$??0CImageComboBox@@QAE@XZ$0
	DD	00H
	DD	FLAT:__unwindfunclet$??0CImageComboBox@@QAE@XZ$1
__ehfuncinfo$??0CImageComboBox@@QAE@XZ DD 019930522H
	DD	02H
	DD	FLAT:__unwindtable$??0CImageComboBox@@QAE@XZ
	DD	2 DUP(00H)
	DD	2 DUP(00H)
	DD	00H
	DD	01H
xdata$x	ENDS
;	COMDAT xdata$x
xdata$x	SEGMENT
__catchsym$??1CGdiObject@@UAE@XZ$3 DD 00H
	DD	FLAT:??_R0PAVCException@@@8
	DD	0fffffde4H
	DD	FLAT:__catch$??1CGdiObject@@UAE@XZ$0
__tryblocktable$??1CGdiObject@@UAE@XZ DD 00H
	DD	00H
	DD	02H
	DD	01H
	DD	FLAT:__catchsym$??1CGdiObject@@UAE@XZ$3
__unwindtable$??1CGdiObject@@UAE@XZ DD 0ffffffffH
	DD	00H
	DD	0ffffffffH
	DD	00H
	DD	01H
	DD	FLAT:__unwindfunclet$??1CGdiObject@@UAE@XZ$2
__ehfuncinfo$??1CGdiObject@@UAE@XZ DD 019930522H
	DD	03H
	DD	FLAT:__unwindtable$??1CGdiObject@@UAE@XZ
	DD	01H
	DD	FLAT:__tryblocktable$??1CGdiObject@@UAE@XZ
	DD	2 DUP(00H)
	DD	00H
	DD	05H
xdata$x	ENDS
; Function compile flags: /Ogtp
; File D:\git\src\IBK\IBK_DRFN\ProjSrc\SrcChartEx\ChartOCX\ChartToolBar\ImageComboBox.cpp
; File C:\Program Files (x86)\Microsoft Visual Studio\2019\Community\VC\Tools\MSVC\14.29.30133\atlmfc\include\afxwin1.inl
; File D:\git\src\IBK\IBK_DRFN\ProjSrc\SrcChartEx\ChartOCX\ChartToolBar\ImageComboBox.cpp
; File C:\Program Files (x86)\Microsoft Visual Studio\2019\Community\VC\Tools\MSVC\14.29.30133\atlmfc\include\afx.inl
;	COMDAT ??_GCImageComboBox@@UAEPAXI@Z
_TEXT	SEGMENT
___flags$ = 8						; size = 4
??_GCImageComboBox@@UAEPAXI@Z PROC			; CImageComboBox::`scalar deleting destructor', COMDAT
; _this$ = ecx
  00000	55		 push	 ebp
  00001	8b ec		 mov	 ebp, esp
; File D:\git\src\IBK\IBK_DRFN\ProjSrc\SrcChartEx\ChartOCX\ChartToolBar\ImageComboBox.cpp

; 24   : {

  00003	56		 push	 esi
  00004	8b f1		 mov	 esi, ecx

; 25   : }

  00006	8d 8e 28 01 00
	00		 lea	 ecx, DWORD PTR [esi+296]
  0000c	c7 06 00 00 00
	00		 mov	 DWORD PTR [esi], OFFSET ??_7CImageComboBox@@6B@
; File C:\Program Files (x86)\Microsoft Visual Studio\2019\Community\VC\Tools\MSVC\14.29.30133\atlmfc\include\afxwin1.inl

; 179  : 	{ }

  00012	c7 01 00 00 00
	00		 mov	 DWORD PTR [ecx], OFFSET ??_7CBitmap@@6B@
  00018	e8 00 00 00 00	 call	 ??1CGdiObject@@UAE@XZ	; CGdiObject::~CGdiObject
; File D:\git\src\IBK\IBK_DRFN\ProjSrc\SrcChartEx\ChartOCX\ChartToolBar\ImageComboBox.cpp

; 25   : }

  0001d	8d 8e 88 00 00
	00		 lea	 ecx, DWORD PTR [esi+136]
  00023	e8 00 00 00 00	 call	 ??1CToolTipCtrl@@UAE@XZ	; CToolTipCtrl::~CToolTipCtrl
  00028	8d 8e 80 00 00
	00		 lea	 ecx, DWORD PTR [esi+128]
  0002e	ff 15 00 00 00
	00		 call	 DWORD PTR __imp_??1?$CStringT@DV?$StrTraitMFC_DLL@DV?$ChTraitsCRT@D@ATL@@@@@ATL@@QAE@XZ
  00034	8b ce		 mov	 ecx, esi
  00036	e8 00 00 00 00	 call	 ??1CComboBox@@UAE@XZ	; CComboBox::~CComboBox
  0003b	8b 45 08	 mov	 eax, DWORD PTR ___flags$[ebp]
  0003e	a8 01		 test	 al, 1
  00040	74 22		 je	 SHORT $LN15@scalar
  00042	a8 04		 test	 al, 4
  00044	75 10		 jne	 SHORT $LN3@scalar
; File C:\Program Files (x86)\Microsoft Visual Studio\2019\Community\VC\Tools\MSVC\14.29.30133\atlmfc\include\afx.inl

; 112  : 	{ ::operator delete(p); }

  00046	56		 push	 esi
  00047	e8 00 00 00 00	 call	 ??3@YAXPAX@Z		; operator delete
  0004c	83 c4 04	 add	 esp, 4
  0004f	8b c6		 mov	 eax, esi
  00051	5e		 pop	 esi
  00052	5d		 pop	 ebp
  00053	c2 04 00	 ret	 4
$LN3@scalar:
  00056	68 30 01 00 00	 push	 304			; 00000130H
  0005b	56		 push	 esi
  0005c	e8 00 00 00 00	 call	 ?__global_delete@@YAXPAXI@Z ; __global_delete
  00061	83 c4 08	 add	 esp, 8
$LN15@scalar:
  00064	8b c6		 mov	 eax, esi
  00066	5e		 pop	 esi
  00067	5d		 pop	 ebp
  00068	c2 04 00	 ret	 4
??_GCImageComboBox@@UAEPAXI@Z ENDP			; CImageComboBox::`scalar deleting destructor'
_TEXT	ENDS
; Function compile flags: /Ogtp
; File D:\git\src\IBK\IBK_DRFN\ProjSrc\SrcChartEx\ChartOCX\ChartToolBar\ImageComboBox.cpp
; File C:\Program Files (x86)\Microsoft Visual Studio\2019\Community\VC\Tools\MSVC\14.29.30133\atlmfc\include\afxcmn.inl
; File D:\git\src\IBK\IBK_DRFN\ProjSrc\SrcChartEx\ChartOCX\ChartToolBar\ImageComboBox.cpp
; File C:\Program Files (x86)\Microsoft Visual Studio\2019\Community\VC\Tools\MSVC\14.29.30133\atlmfc\include\afxwin2.inl
; File C:\Program Files (x86)\Microsoft Visual Studio\2019\Community\VC\Tools\MSVC\14.29.30133\atlmfc\include\atltypes.h
; File C:\Program Files (x86)\Microsoft Visual Studio\2019\Community\VC\Tools\MSVC\14.29.30133\atlmfc\include\afxwin2.inl
; File D:\git\src\IBK\IBK_DRFN\ProjSrc\SrcChartEx\ChartOCX\ChartToolBar\ImageComboBox.cpp
; File C:\Program Files (x86)\Microsoft Visual Studio\2019\Community\VC\Tools\MSVC\14.29.30133\atlmfc\include\afxcmn.inl
; File D:\git\src\IBK\IBK_DRFN\ProjSrc\SrcChartEx\ChartOCX\ChartToolBar\ImageComboBox.cpp
; File C:\Program Files (x86)\Microsoft Visual Studio\2019\Community\VC\Tools\MSVC\14.29.30133\atlmfc\include\afxcmn.inl
; File D:\git\src\IBK\IBK_DRFN\ProjSrc\SrcChartEx\ChartOCX\ChartToolBar\ImageComboBox.cpp
; File C:\Program Files (x86)\Microsoft Visual Studio\2019\Community\VC\Tools\MSVC\14.29.30133\atlmfc\include\afxcmn.inl
; File D:\git\src\IBK\IBK_DRFN\ProjSrc\SrcChartEx\ChartOCX\ChartToolBar\ImageComboBox.cpp
;	COMDAT ?AddToolInTooltip@CImageComboBox@@AAEXABV?$CStringT@DV?$StrTraitMFC_DLL@DV?$ChTraitsCRT@D@ATL@@@@@ATL@@_N@Z
_TEXT	SEGMENT
_rectBtn$1 = -20					; size = 16
__$ArrayPad$ = -4					; size = 4
_strText$ = 8						; size = 4
_bActivate$ = 12					; size = 1
?AddToolInTooltip@CImageComboBox@@AAEXABV?$CStringT@DV?$StrTraitMFC_DLL@DV?$ChTraitsCRT@D@ATL@@@@@ATL@@_N@Z PROC ; CImageComboBox::AddToolInTooltip, COMDAT
; _this$ = ecx

; 147  : {

  00000	55		 push	 ebp
  00001	8b ec		 mov	 ebp, esp
  00003	83 ec 14	 sub	 esp, 20			; 00000014H
  00006	a1 00 00 00 00	 mov	 eax, DWORD PTR ___security_cookie
  0000b	33 c5		 xor	 eax, ebp
  0000d	89 45 fc	 mov	 DWORD PTR __$ArrayPad$[ebp], eax
  00010	53		 push	 ebx
  00011	56		 push	 esi
  00012	57		 push	 edi
  00013	8b 7d 08	 mov	 edi, DWORD PTR _strText$[ebp]
  00016	8b f1		 mov	 esi, ecx
; File C:\Program Files (x86)\Microsoft Visual Studio\2019\Community\VC\Tools\MSVC\14.29.30133\atlmfc\include\afxcmn.inl

; 431  : 	{ ASSERT(::IsWindow(m_hWnd));  return (int) ::SendMessage(m_hWnd, TTM_GETTOOLCOUNT, 0, 0L); }

  00018	6a 00		 push	 0
  0001a	6a 00		 push	 0
  0001c	68 0d 04 00 00	 push	 1037			; 0000040dH
  00021	ff b6 a8 00 00
	00		 push	 DWORD PTR [esi+168]
  00027	ff 15 00 00 00
	00		 call	 DWORD PTR __imp__SendMessageA@16
; File D:\git\src\IBK\IBK_DRFN\ProjSrc\SrcChartEx\ChartOCX\ChartToolBar\ImageComboBox.cpp

; 149  : 	if(m_ToolTip.GetToolCount() == 0)

  0002d	85 c0		 test	 eax, eax
  0002f	75 28		 jne	 SHORT $LN27@AddToolInT
; File C:\Program Files (x86)\Microsoft Visual Studio\2019\Community\VC\Tools\MSVC\14.29.30133\atlmfc\include\afxwin2.inl

; 86   : 	{ ASSERT(::IsWindow(m_hWnd)); ::GetClientRect(m_hWnd, lpRect); }

  00031	8d 45 ec	 lea	 eax, DWORD PTR _rectBtn$1[ebp]
  00034	0f 57 c0	 xorps	 xmm0, xmm0
  00037	50		 push	 eax
  00038	ff 76 20	 push	 DWORD PTR [esi+32]
; File C:\Program Files (x86)\Microsoft Visual Studio\2019\Community\VC\Tools\MSVC\14.29.30133\atlmfc\include\atltypes.h

; 528  : 	left = 0;

  0003b	0f 11 45 ec	 movups	 XMMWORD PTR _rectBtn$1[ebp], xmm0
; File C:\Program Files (x86)\Microsoft Visual Studio\2019\Community\VC\Tools\MSVC\14.29.30133\atlmfc\include\afxwin2.inl

; 86   : 	{ ASSERT(::IsWindow(m_hWnd)); ::GetClientRect(m_hWnd, lpRect); }

  0003f	ff 15 00 00 00
	00		 call	 DWORD PTR __imp__GetClientRect@8
; File D:\git\src\IBK\IBK_DRFN\ProjSrc\SrcChartEx\ChartOCX\ChartToolBar\ImageComboBox.cpp

; 153  : 		m_ToolTip.AddTool(this, (LPCTSTR)strText, rectBtn, 1);

  00045	6a 01		 push	 1
  00047	8d 45 ec	 lea	 eax, DWORD PTR _rectBtn$1[ebp]
  0004a	50		 push	 eax
  0004b	ff 37		 push	 DWORD PTR [edi]
  0004d	8d 8e 88 00 00
	00		 lea	 ecx, DWORD PTR [esi+136]
  00053	56		 push	 esi
  00054	e8 00 00 00 00	 call	 ?AddTool@CToolTipCtrl@@QAEHPAVCWnd@@PBDPBUtagRECT@@I@Z ; CToolTipCtrl::AddTool
$LN27@AddToolInT:

; 154  : 	}
; 155  : 
; 156  : 	// ooltip text ¸¦ set
; 157  : 	m_ToolTip.UpdateTipText((LPCTSTR)strText, this, 1);

  00059	6a 01		 push	 1
  0005b	56		 push	 esi
  0005c	ff 37		 push	 DWORD PTR [edi]
  0005e	8d 8e 88 00 00
	00		 lea	 ecx, DWORD PTR [esi+136]
  00064	e8 00 00 00 00	 call	 ?UpdateTipText@CToolTipCtrl@@QAEXPBDPAVCWnd@@I@Z ; CToolTipCtrl::UpdateTipText
; File C:\Program Files (x86)\Microsoft Visual Studio\2019\Community\VC\Tools\MSVC\14.29.30133\atlmfc\include\afxcmn.inl

; 425  : 	{ ASSERT(::IsWindow(m_hWnd));  ::SendMessage(m_hWnd, TTM_ACTIVATE, bActivate, 0L); }

  00069	0f b6 45 0c	 movzx	 eax, BYTE PTR _bActivate$[ebp]
  0006d	6a 00		 push	 0
  0006f	50		 push	 eax
  00070	68 01 04 00 00	 push	 1025			; 00000401H
  00075	ff b6 a8 00 00
	00		 push	 DWORD PTR [esi+168]
  0007b	ff 15 00 00 00
	00		 call	 DWORD PTR __imp__SendMessageA@16
; File D:\git\src\IBK\IBK_DRFN\ProjSrc\SrcChartEx\ChartOCX\ChartToolBar\ImageComboBox.cpp

; 159  : }

  00081	8b 4d fc	 mov	 ecx, DWORD PTR __$ArrayPad$[ebp]
; File C:\Program Files (x86)\Microsoft Visual Studio\2019\Community\VC\Tools\MSVC\14.29.30133\atlmfc\include\afxcmn.inl

; 425  : 	{ ASSERT(::IsWindow(m_hWnd));  ::SendMessage(m_hWnd, TTM_ACTIVATE, bActivate, 0L); }

  00084	5f		 pop	 edi
  00085	5e		 pop	 esi
; File D:\git\src\IBK\IBK_DRFN\ProjSrc\SrcChartEx\ChartOCX\ChartToolBar\ImageComboBox.cpp

; 159  : }

  00086	33 cd		 xor	 ecx, ebp
; File C:\Program Files (x86)\Microsoft Visual Studio\2019\Community\VC\Tools\MSVC\14.29.30133\atlmfc\include\afxcmn.inl

; 425  : 	{ ASSERT(::IsWindow(m_hWnd));  ::SendMessage(m_hWnd, TTM_ACTIVATE, bActivate, 0L); }

  00088	5b		 pop	 ebx
; File D:\git\src\IBK\IBK_DRFN\ProjSrc\SrcChartEx\ChartOCX\ChartToolBar\ImageComboBox.cpp

; 159  : }

  00089	e8 00 00 00 00	 call	 @__security_check_cookie@4
  0008e	8b e5		 mov	 esp, ebp
  00090	5d		 pop	 ebp
  00091	c2 08 00	 ret	 8
?AddToolInTooltip@CImageComboBox@@AAEXABV?$CStringT@DV?$StrTraitMFC_DLL@DV?$ChTraitsCRT@D@ATL@@@@@ATL@@_N@Z ENDP ; CImageComboBox::AddToolInTooltip
_TEXT	ENDS
; Function compile flags: /Ogtp
; File D:\git\src\IBK\IBK_DRFN\ProjSrc\SrcChartEx\ChartOCX\ChartToolBar\ImageComboBox.cpp
; File C:\Program Files (x86)\Microsoft Visual Studio\2019\Community\VC\Tools\MSVC\14.29.30133\atlmfc\include\afxcmn.inl
; File D:\git\src\IBK\IBK_DRFN\ProjSrc\SrcChartEx\ChartOCX\ChartToolBar\ImageComboBox.cpp
;	COMDAT ?InitToolTip@CImageComboBox@@AAEXXZ
_TEXT	SEGMENT
?InitToolTip@CImageComboBox@@AAEXXZ PROC		; CImageComboBox::InitToolTip, COMDAT
; _this$ = ecx

; 138  : {

  00000	56		 push	 esi
  00001	8b f1		 mov	 esi, ecx

; 139  : 	if(m_ToolTip.m_hWnd != NULL)

  00003	83 be a8 00 00
	00 00		 cmp	 DWORD PTR [esi+168], 0
  0000a	75 2a		 jne	 SHORT $LN1@InitToolTi

; 140  : 		return;
; 141  : 
; 142  : 	m_ToolTip.Create(this);

  0000c	8b 86 88 00 00
	00		 mov	 eax, DWORD PTR [esi+136]
  00012	8d 8e 88 00 00
	00		 lea	 ecx, DWORD PTR [esi+136]
  00018	6a 00		 push	 0
  0001a	56		 push	 esi
  0001b	ff 90 6c 01 00
	00		 call	 DWORD PTR [eax+364]
; File C:\Program Files (x86)\Microsoft Visual Studio\2019\Community\VC\Tools\MSVC\14.29.30133\atlmfc\include\afxcmn.inl

; 425  : 	{ ASSERT(::IsWindow(m_hWnd));  ::SendMessage(m_hWnd, TTM_ACTIVATE, bActivate, 0L); }

  00021	6a 00		 push	 0
  00023	6a 00		 push	 0
  00025	68 01 04 00 00	 push	 1025			; 00000401H
  0002a	ff b6 a8 00 00
	00		 push	 DWORD PTR [esi+168]
  00030	ff 15 00 00 00
	00		 call	 DWORD PTR __imp__SendMessageA@16
$LN1@InitToolTi:
  00036	5e		 pop	 esi
; File D:\git\src\IBK\IBK_DRFN\ProjSrc\SrcChartEx\ChartOCX\ChartToolBar\ImageComboBox.cpp

; 144  : }

  00037	c3		 ret	 0
?InitToolTip@CImageComboBox@@AAEXXZ ENDP		; CImageComboBox::InitToolTip
_TEXT	ENDS
; Function compile flags: /Ogtp
; File D:\git\src\IBK\IBK_DRFN\ProjSrc\SrcChartEx\ChartOCX\ChartToolBar\ImageComboBox.cpp
;	COMDAT ?GetBitmap@CImageComboBox@@QAEAAVCBitmap@@XZ
_TEXT	SEGMENT
?GetBitmap@CImageComboBox@@QAEAAVCBitmap@@XZ PROC	; CImageComboBox::GetBitmap, COMDAT
; _this$ = ecx

; 133  : 	return m_bitmap;

  00000	8d 81 28 01 00
	00		 lea	 eax, DWORD PTR [ecx+296]

; 134  : }

  00006	c3		 ret	 0
?GetBitmap@CImageComboBox@@QAEAAVCBitmap@@XZ ENDP	; CImageComboBox::GetBitmap
_TEXT	ENDS
; Function compile flags: /Ogtp
; File D:\git\src\IBK\IBK_DRFN\ProjSrc\SrcChartEx\ChartOCX\ChartToolBar\ImageComboBox.cpp
; File C:\Program Files (x86)\Microsoft Visual Studio\2019\Community\VC\Tools\MSVC\14.29.30133\atlmfc\include\atlsimpstr.h
; File D:\git\src\IBK\IBK_DRFN\ProjSrc\SrcChartEx\ChartOCX\ChartToolBar\ImageComboBox.cpp
; File C:\Program Files (x86)\Microsoft Visual Studio\2019\Community\VC\Tools\MSVC\14.29.30133\atlmfc\include\afxcmn.inl
; File D:\git\src\IBK\IBK_DRFN\ProjSrc\SrcChartEx\ChartOCX\ChartToolBar\ImageComboBox.cpp
; File C:\Program Files (x86)\Microsoft Visual Studio\2019\Community\VC\Tools\MSVC\14.29.30133\atlmfc\include\afxwin2.inl
; File C:\Program Files (x86)\Microsoft Visual Studio\2019\Community\VC\Tools\MSVC\14.29.30133\atlmfc\include\atltypes.h
; File C:\Program Files (x86)\Microsoft Visual Studio\2019\Community\VC\Tools\MSVC\14.29.30133\atlmfc\include\afxwin2.inl
; File D:\git\src\IBK\IBK_DRFN\ProjSrc\SrcChartEx\ChartOCX\ChartToolBar\ImageComboBox.cpp
; File C:\Program Files (x86)\Microsoft Visual Studio\2019\Community\VC\Tools\MSVC\14.29.30133\atlmfc\include\afxcmn.inl
; File D:\git\src\IBK\IBK_DRFN\ProjSrc\SrcChartEx\ChartOCX\ChartToolBar\ImageComboBox.cpp
;	COMDAT ?SetToolTipText@CImageComboBox@@QAEXABV?$CStringT@DV?$StrTraitMFC_DLL@DV?$ChTraitsCRT@D@ATL@@@@@ATL@@_N@Z
_TEXT	SEGMENT
_rectBtn$1 = -20					; size = 16
__$ArrayPad$ = -4					; size = 4
_strText$ = 8						; size = 4
_bActivate$ = 12					; size = 1
?SetToolTipText@CImageComboBox@@QAEXABV?$CStringT@DV?$StrTraitMFC_DLL@DV?$ChTraitsCRT@D@ATL@@@@@ATL@@_N@Z PROC ; CImageComboBox::SetToolTipText, COMDAT
; _this$ = ecx

; 122  : {

  00000	55		 push	 ebp
  00001	8b ec		 mov	 ebp, esp
  00003	83 ec 14	 sub	 esp, 20			; 00000014H
  00006	a1 00 00 00 00	 mov	 eax, DWORD PTR ___security_cookie
  0000b	33 c5		 xor	 eax, ebp
  0000d	89 45 fc	 mov	 DWORD PTR __$ArrayPad$[ebp], eax
  00010	53		 push	 ebx
  00011	8b 5d 08	 mov	 ebx, DWORD PTR _strText$[ebp]
  00014	56		 push	 esi
  00015	8b f1		 mov	 esi, ecx
; File C:\Program Files (x86)\Microsoft Visual Studio\2019\Community\VC\Tools\MSVC\14.29.30133\atlmfc\include\atlsimpstr.h

; 533  : 		return( GetLength() == 0 );

  00017	8b 03		 mov	 eax, DWORD PTR [ebx]
  00019	83 78 f4 00	 cmp	 DWORD PTR [eax-12], 0
; File D:\git\src\IBK\IBK_DRFN\ProjSrc\SrcChartEx\ChartOCX\ChartToolBar\ImageComboBox.cpp

; 123  : 	if(strText.IsEmpty())

  0001d	0f 84 a2 00 00
	00		 je	 $LN1@SetToolTip

; 139  : 	if(m_ToolTip.m_hWnd != NULL)

  00023	8b 86 a8 00 00
	00		 mov	 eax, DWORD PTR [esi+168]
  00029	57		 push	 edi
  0002a	85 c0		 test	 eax, eax
  0002c	75 31		 jne	 SHORT $LN41@SetToolTip

; 140  : 		return;
; 141  : 
; 142  : 	m_ToolTip.Create(this);

  0002e	8b 86 88 00 00
	00		 mov	 eax, DWORD PTR [esi+136]
  00034	8d 8e 88 00 00
	00		 lea	 ecx, DWORD PTR [esi+136]
  0003a	6a 00		 push	 0
  0003c	56		 push	 esi
  0003d	ff 90 6c 01 00
	00		 call	 DWORD PTR [eax+364]
; File C:\Program Files (x86)\Microsoft Visual Studio\2019\Community\VC\Tools\MSVC\14.29.30133\atlmfc\include\afxcmn.inl

; 425  : 	{ ASSERT(::IsWindow(m_hWnd));  ::SendMessage(m_hWnd, TTM_ACTIVATE, bActivate, 0L); }

  00043	a1 00 00 00 00	 mov	 eax, DWORD PTR __imp__SendMessageA@16
  00048	6a 00		 push	 0
  0004a	6a 00		 push	 0
  0004c	68 01 04 00 00	 push	 1025			; 00000401H
  00051	ff b6 a8 00 00
	00		 push	 DWORD PTR [esi+168]
  00057	ff d0		 call	 eax
  00059	8b 86 a8 00 00
	00		 mov	 eax, DWORD PTR [esi+168]
$LN41@SetToolTip:

; 431  : 	{ ASSERT(::IsWindow(m_hWnd));  return (int) ::SendMessage(m_hWnd, TTM_GETTOOLCOUNT, 0, 0L); }

  0005f	6a 00		 push	 0
  00061	6a 00		 push	 0
  00063	68 0d 04 00 00	 push	 1037			; 0000040dH
  00068	50		 push	 eax
  00069	ff 15 00 00 00
	00		 call	 DWORD PTR __imp__SendMessageA@16
; File D:\git\src\IBK\IBK_DRFN\ProjSrc\SrcChartEx\ChartOCX\ChartToolBar\ImageComboBox.cpp

; 149  : 	if(m_ToolTip.GetToolCount() == 0)

  0006f	85 c0		 test	 eax, eax
  00071	75 28		 jne	 SHORT $LN16@SetToolTip
; File C:\Program Files (x86)\Microsoft Visual Studio\2019\Community\VC\Tools\MSVC\14.29.30133\atlmfc\include\afxwin2.inl

; 86   : 	{ ASSERT(::IsWindow(m_hWnd)); ::GetClientRect(m_hWnd, lpRect); }

  00073	8d 45 ec	 lea	 eax, DWORD PTR _rectBtn$1[ebp]
  00076	0f 57 c0	 xorps	 xmm0, xmm0
  00079	50		 push	 eax
  0007a	ff 76 20	 push	 DWORD PTR [esi+32]
; File C:\Program Files (x86)\Microsoft Visual Studio\2019\Community\VC\Tools\MSVC\14.29.30133\atlmfc\include\atltypes.h

; 528  : 	left = 0;

  0007d	0f 11 45 ec	 movups	 XMMWORD PTR _rectBtn$1[ebp], xmm0
; File C:\Program Files (x86)\Microsoft Visual Studio\2019\Community\VC\Tools\MSVC\14.29.30133\atlmfc\include\afxwin2.inl

; 86   : 	{ ASSERT(::IsWindow(m_hWnd)); ::GetClientRect(m_hWnd, lpRect); }

  00081	ff 15 00 00 00
	00		 call	 DWORD PTR __imp__GetClientRect@8
; File D:\git\src\IBK\IBK_DRFN\ProjSrc\SrcChartEx\ChartOCX\ChartToolBar\ImageComboBox.cpp

; 153  : 		m_ToolTip.AddTool(this, (LPCTSTR)strText, rectBtn, 1);

  00087	6a 01		 push	 1
  00089	8d 45 ec	 lea	 eax, DWORD PTR _rectBtn$1[ebp]
  0008c	50		 push	 eax
  0008d	ff 33		 push	 DWORD PTR [ebx]
  0008f	8d 8e 88 00 00
	00		 lea	 ecx, DWORD PTR [esi+136]
  00095	56		 push	 esi
  00096	e8 00 00 00 00	 call	 ?AddTool@CToolTipCtrl@@QAEHPAVCWnd@@PBDPBUtagRECT@@I@Z ; CToolTipCtrl::AddTool
$LN16@SetToolTip:

; 154  : 	}
; 155  : 
; 156  : 	// ooltip text ¸¦ set
; 157  : 	m_ToolTip.UpdateTipText((LPCTSTR)strText, this, 1);

  0009b	6a 01		 push	 1
  0009d	56		 push	 esi
  0009e	ff 33		 push	 DWORD PTR [ebx]
  000a0	8d 8e 88 00 00
	00		 lea	 ecx, DWORD PTR [esi+136]
  000a6	e8 00 00 00 00	 call	 ?UpdateTipText@CToolTipCtrl@@QAEXPBDPAVCWnd@@I@Z ; CToolTipCtrl::UpdateTipText
; File C:\Program Files (x86)\Microsoft Visual Studio\2019\Community\VC\Tools\MSVC\14.29.30133\atlmfc\include\afxcmn.inl

; 425  : 	{ ASSERT(::IsWindow(m_hWnd));  ::SendMessage(m_hWnd, TTM_ACTIVATE, bActivate, 0L); }

  000ab	0f b6 45 0c	 movzx	 eax, BYTE PTR _bActivate$[ebp]
  000af	6a 00		 push	 0
  000b1	50		 push	 eax
  000b2	a1 00 00 00 00	 mov	 eax, DWORD PTR __imp__SendMessageA@16
  000b7	68 01 04 00 00	 push	 1025			; 00000401H
  000bc	ff b6 a8 00 00
	00		 push	 DWORD PTR [esi+168]
  000c2	ff d0		 call	 eax
  000c4	5f		 pop	 edi
$LN1@SetToolTip:
; File D:\git\src\IBK\IBK_DRFN\ProjSrc\SrcChartEx\ChartOCX\ChartToolBar\ImageComboBox.cpp

; 128  : }

  000c5	8b 4d fc	 mov	 ecx, DWORD PTR __$ArrayPad$[ebp]
  000c8	5e		 pop	 esi
  000c9	33 cd		 xor	 ecx, ebp
  000cb	5b		 pop	 ebx
  000cc	e8 00 00 00 00	 call	 @__security_check_cookie@4
  000d1	8b e5		 mov	 esp, ebp
  000d3	5d		 pop	 ebp
  000d4	c2 08 00	 ret	 8
?SetToolTipText@CImageComboBox@@QAEXABV?$CStringT@DV?$StrTraitMFC_DLL@DV?$ChTraitsCRT@D@ATL@@@@@ATL@@_N@Z ENDP ; CImageComboBox::SetToolTipText
_TEXT	ENDS
; Function compile flags: /Ogtp
; File D:\git\src\IBK\IBK_DRFN\ProjSrc\SrcChartEx\ChartOCX\ChartToolBar\ImageComboBox.cpp
;	COMDAT ?SetToolTipText@CImageComboBox@@QAEXABV?$CStringT@DV?$StrTraitMFC_DLL@DV?$ChTraitsCRT@D@ATL@@@@@ATL@@@Z
_TEXT	SEGMENT
_strText$ = 8						; size = 4
?SetToolTipText@CImageComboBox@@QAEXABV?$CStringT@DV?$StrTraitMFC_DLL@DV?$ChTraitsCRT@D@ATL@@@@@ATL@@@Z PROC ; CImageComboBox::SetToolTipText, COMDAT
; _this$ = ecx

; 116  : {

  00000	55		 push	 ebp
  00001	8b ec		 mov	 ebp, esp

; 117  : 	m_strToolTipText = strText;

  00003	83 e9 80	 sub	 ecx, -128		; ffffff80H

; 118  : }

  00006	5d		 pop	 ebp

; 117  : 	m_strToolTipText = strText;

  00007	ff 25 00 00 00
	00		 jmp	 DWORD PTR __imp_??4?$CStringT@DV?$StrTraitMFC_DLL@DV?$ChTraitsCRT@D@ATL@@@@@ATL@@QAEAAV01@ABV01@@Z
?SetToolTipText@CImageComboBox@@QAEXABV?$CStringT@DV?$StrTraitMFC_DLL@DV?$ChTraitsCRT@D@ATL@@@@@ATL@@@Z ENDP ; CImageComboBox::SetToolTipText
_TEXT	ENDS
; Function compile flags: /Ogtp
; File D:\git\src\IBK\IBK_DRFN\ProjSrc\SrcChartEx\ChartOCX\ChartToolBar\ImageComboBox.cpp
;	COMDAT ?GetMessageMap@CImageComboBox@@MBEPBUAFX_MSGMAP@@XZ
_TEXT	SEGMENT
?GetMessageMap@CImageComboBox@@MBEPBUAFX_MSGMAP@@XZ PROC ; CImageComboBox::GetMessageMap, COMDAT
; _this$ = ecx

; 28   : BEGIN_MESSAGE_MAP(CImageComboBox, CComboBox)

  00000	b8 00 00 00 00	 mov	 eax, OFFSET ?messageMap@?1??GetThisMessageMap@CImageComboBox@@KGPBUAFX_MSGMAP@@XZ@4U3@B
  00005	c3		 ret	 0
?GetMessageMap@CImageComboBox@@MBEPBUAFX_MSGMAP@@XZ ENDP ; CImageComboBox::GetMessageMap
_TEXT	ENDS
; Function compile flags: /Ogtp
; File D:\git\src\IBK\IBK_DRFN\ProjSrc\SrcChartEx\ChartOCX\ChartToolBar\ImageComboBox.cpp
;	COMDAT ?GetThisMessageMap@CImageComboBox@@KGPBUAFX_MSGMAP@@XZ
_TEXT	SEGMENT
?GetThisMessageMap@CImageComboBox@@KGPBUAFX_MSGMAP@@XZ PROC ; CImageComboBox::GetThisMessageMap, COMDAT

; 29   : 	//{{AFX_MSG_MAP(CImageComboBox)
; 30   : 	ON_WM_MOUSEMOVE()
; 31   : 	ON_WM_LBUTTONUP()
; 32   : 	ON_WM_SETFOCUS()
; 33   : 	//}}AFX_MSG_MAP
; 34   : END_MESSAGE_MAP()

  00000	b8 00 00 00 00	 mov	 eax, OFFSET ?messageMap@?1??GetThisMessageMap@CImageComboBox@@KGPBUAFX_MSGMAP@@XZ@4U3@B
  00005	c3		 ret	 0
?GetThisMessageMap@CImageComboBox@@KGPBUAFX_MSGMAP@@XZ ENDP ; CImageComboBox::GetThisMessageMap
_TEXT	ENDS
; Function compile flags: /Ogtp
; File D:\git\src\IBK\IBK_DRFN\ProjSrc\SrcChartEx\ChartOCX\ChartToolBar\ImageComboBox.cpp
; File C:\Program Files (x86)\Microsoft Visual Studio\2019\Community\VC\Tools\MSVC\14.29.30133\atlmfc\include\afxwin2.inl
; File D:\git\src\IBK\IBK_DRFN\ProjSrc\SrcChartEx\ChartOCX\ChartToolBar\ImageComboBox.cpp
; File C:\Program Files (x86)\Microsoft Visual Studio\2019\Community\VC\Tools\MSVC\14.29.30133\atlmfc\include\afxwin2.inl
; File D:\git\src\IBK\IBK_DRFN\ProjSrc\SrcChartEx\ChartOCX\ChartToolBar\ImageComboBox.cpp
;	COMDAT ?OnSetFocus@CImageComboBox@@IAEXPAVCWnd@@@Z
_TEXT	SEGMENT
_pOldWnd$ = 8						; size = 4
?OnSetFocus@CImageComboBox@@IAEXPAVCWnd@@@Z PROC	; CImageComboBox::OnSetFocus, COMDAT
; _this$ = ecx
; File C:\Program Files (x86)\Microsoft Visual Studio\2019\Community\VC\Tools\MSVC\14.29.30133\atlmfc\include\afxwin2.inl

; 213  : 	{ ASSERT(::IsWindow(m_hWnd)); return CWnd::FromHandle(::GetParent(m_hWnd)); }

  00000	ff 71 20	 push	 DWORD PTR [ecx+32]
  00003	ff 15 00 00 00
	00		 call	 DWORD PTR __imp__GetParent@4
  00009	50		 push	 eax
  0000a	e8 00 00 00 00	 call	 ?FromHandle@CWnd@@SGPAV1@PAUHWND__@@@Z ; CWnd::FromHandle
; File D:\git\src\IBK\IBK_DRFN\ProjSrc\SrcChartEx\ChartOCX\ChartToolBar\ImageComboBox.cpp

; 167  : 	if( pParent)

  0000f	85 c0		 test	 eax, eax
  00011	74 1a		 je	 SHORT $LN3@OnSetFocus
; File C:\Program Files (x86)\Microsoft Visual Studio\2019\Community\VC\Tools\MSVC\14.29.30133\atlmfc\include\afxwin2.inl

; 213  : 	{ ASSERT(::IsWindow(m_hWnd)); return CWnd::FromHandle(::GetParent(m_hWnd)); }

  00013	ff 70 20	 push	 DWORD PTR [eax+32]
  00016	ff 15 00 00 00
	00		 call	 DWORD PTR __imp__GetParent@4
  0001c	50		 push	 eax
  0001d	e8 00 00 00 00	 call	 ?FromHandle@CWnd@@SGPAV1@PAUHWND__@@@Z ; CWnd::FromHandle
; File D:\git\src\IBK\IBK_DRFN\ProjSrc\SrcChartEx\ChartOCX\ChartToolBar\ImageComboBox.cpp

; 170  : 		if( pParent) pParent->SetFocus();	// Getting Chart OCX

  00022	85 c0		 test	 eax, eax
  00024	74 07		 je	 SHORT $LN3@OnSetFocus
  00026	8b c8		 mov	 ecx, eax
  00028	e8 00 00 00 00	 call	 ?SetFocus@CWnd@@QAEPAV1@XZ ; CWnd::SetFocus
$LN3@OnSetFocus:

; 171  : 	}
; 172  : 	
; 173  : }

  0002d	c2 04 00	 ret	 4
?OnSetFocus@CImageComboBox@@IAEXPAVCWnd@@@Z ENDP	; CImageComboBox::OnSetFocus
_TEXT	ENDS
; Function compile flags: /Ogtp
; File D:\git\src\IBK\IBK_DRFN\ProjSrc\SrcChartEx\ChartOCX\ChartToolBar\ImageComboBox.cpp
; File C:\Program Files (x86)\Microsoft Visual Studio\2019\Community\VC\Tools\MSVC\14.29.30133\atlmfc\include\afxwin2.inl
; File D:\git\src\IBK\IBK_DRFN\ProjSrc\SrcChartEx\ChartOCX\ChartToolBar\ImageComboBox.cpp
;	COMDAT ?OnLButtonUp@CImageComboBox@@IAEXIVCPoint@@@Z
_TEXT	SEGMENT
_nFlags$ = 8						; size = 4
_point$ = 12						; size = 8
?OnLButtonUp@CImageComboBox@@IAEXIVCPoint@@@Z PROC	; CImageComboBox::OnLButtonUp, COMDAT
; _this$ = ecx

; 108  : {

  00000	56		 push	 esi
  00001	8b f1		 mov	 esi, ecx
; File C:\Program Files (x86)\Microsoft Visual Studio\2019\Community\VC\Tools\MSVC\14.29.30133\atlmfc\include\afxwin2.inl

; 114  : 	{ ASSERT(::IsWindow(m_hWnd)); ::InvalidateRect(m_hWnd, NULL, bErase); }

  00003	6a 01		 push	 1
  00005	6a 00		 push	 0
  00007	ff 76 20	 push	 DWORD PTR [esi+32]
  0000a	ff 15 00 00 00
	00		 call	 DWORD PTR __imp__InvalidateRect@12

; 434  : 	{ Default(); }

  00010	8b ce		 mov	 ecx, esi
  00012	e8 00 00 00 00	 call	 ?Default@CWnd@@IAEJXZ	; CWnd::Default
  00017	5e		 pop	 esi
; File D:\git\src\IBK\IBK_DRFN\ProjSrc\SrcChartEx\ChartOCX\ChartToolBar\ImageComboBox.cpp

; 111  : }

  00018	c2 0c 00	 ret	 12			; 0000000cH
?OnLButtonUp@CImageComboBox@@IAEXIVCPoint@@@Z ENDP	; CImageComboBox::OnLButtonUp
_TEXT	ENDS
; Function compile flags: /Ogtp
; File D:\git\src\IBK\IBK_DRFN\ProjSrc\SrcChartEx\ChartOCX\ChartToolBar\ImageComboBox.cpp
; File C:\Program Files (x86)\Microsoft Visual Studio\2019\Community\VC\Tools\MSVC\14.29.30133\atlmfc\include\atlsimpstr.h
; File D:\git\src\IBK\IBK_DRFN\ProjSrc\SrcChartEx\ChartOCX\ChartToolBar\ImageComboBox.cpp
; File C:\Program Files (x86)\Microsoft Visual Studio\2019\Community\VC\Tools\MSVC\14.29.30133\atlmfc\include\afxcmn.inl
; File D:\git\src\IBK\IBK_DRFN\ProjSrc\SrcChartEx\ChartOCX\ChartToolBar\ImageComboBox.cpp
; File C:\Program Files (x86)\Microsoft Visual Studio\2019\Community\VC\Tools\MSVC\14.29.30133\atlmfc\include\afxwin2.inl
; File C:\Program Files (x86)\Microsoft Visual Studio\2019\Community\VC\Tools\MSVC\14.29.30133\atlmfc\include\atltypes.h
; File C:\Program Files (x86)\Microsoft Visual Studio\2019\Community\VC\Tools\MSVC\14.29.30133\atlmfc\include\afxwin2.inl
; File D:\git\src\IBK\IBK_DRFN\ProjSrc\SrcChartEx\ChartOCX\ChartToolBar\ImageComboBox.cpp
; File C:\Program Files (x86)\Microsoft Visual Studio\2019\Community\VC\Tools\MSVC\14.29.30133\atlmfc\include\afxcmn.inl
; File D:\git\src\IBK\IBK_DRFN\ProjSrc\SrcChartEx\ChartOCX\ChartToolBar\ImageComboBox.cpp
; File C:\Program Files (x86)\Microsoft Visual Studio\2019\Community\VC\Tools\MSVC\14.29.30133\atlmfc\include\afxcmn.inl
; File D:\git\src\IBK\IBK_DRFN\ProjSrc\SrcChartEx\ChartOCX\ChartToolBar\ImageComboBox.cpp
; File C:\Program Files (x86)\Microsoft Visual Studio\2019\Community\VC\Tools\MSVC\14.29.30133\atlmfc\include\afxcmn.inl
; File C:\Program Files (x86)\Microsoft Visual Studio\2019\Community\VC\Tools\MSVC\14.29.30133\atlmfc\include\afxwin2.inl
; File D:\git\src\IBK\IBK_DRFN\ProjSrc\SrcChartEx\ChartOCX\ChartToolBar\ImageComboBox.cpp
;	COMDAT ?OnMouseMove@CImageComboBox@@IAEXIVCPoint@@@Z
_TEXT	SEGMENT
_msg$ = -48						; size = 28
_rectBtn$1 = -20					; size = 16
__$ArrayPad$ = -4					; size = 4
_nFlags$ = 8						; size = 4
_point$ = 12						; size = 8
?OnMouseMove@CImageComboBox@@IAEXIVCPoint@@@Z PROC	; CImageComboBox::OnMouseMove, COMDAT
; _this$ = ecx

; 90   : {

  00000	55		 push	 ebp
  00001	8b ec		 mov	 ebp, esp
  00003	83 ec 30	 sub	 esp, 48			; 00000030H
  00006	a1 00 00 00 00	 mov	 eax, DWORD PTR ___security_cookie
  0000b	33 c5		 xor	 eax, ebp
  0000d	89 45 fc	 mov	 DWORD PTR __$ArrayPad$[ebp], eax
  00010	56		 push	 esi
  00011	8b f1		 mov	 esi, ecx
; File C:\Program Files (x86)\Microsoft Visual Studio\2019\Community\VC\Tools\MSVC\14.29.30133\atlmfc\include\atlsimpstr.h

; 533  : 		return( GetLength() == 0 );

  00013	8b 86 80 00 00
	00		 mov	 eax, DWORD PTR [esi+128]
  00019	83 78 f4 00	 cmp	 DWORD PTR [eax-12], 0
; File D:\git\src\IBK\IBK_DRFN\ProjSrc\SrcChartEx\ChartOCX\ChartToolBar\ImageComboBox.cpp

; 91   : 	if(m_strToolTipText.IsEmpty())

  0001d	0f 84 da 00 00
	00		 je	 $LN1@OnMouseMov

; 92   : 		return;
; 93   : 
; 94   : 	if(m_ToolTip.m_hWnd == NULL)

  00023	8b 8e a8 00 00
	00		 mov	 ecx, DWORD PTR [esi+168]
  00029	57		 push	 edi
  0002a	8b 3d 00 00 00
	00		 mov	 edi, DWORD PTR __imp__SendMessageA@16
  00030	85 c9		 test	 ecx, ecx
  00032	0f 85 94 00 00
	00		 jne	 $LN11@OnMouseMov

; 142  : 	m_ToolTip.Create(this);

  00038	8b 86 88 00 00
	00		 mov	 eax, DWORD PTR [esi+136]
  0003e	8d 8e 88 00 00
	00		 lea	 ecx, DWORD PTR [esi+136]
  00044	53		 push	 ebx
  00045	6a 00		 push	 0
  00047	56		 push	 esi
  00048	ff 90 6c 01 00
	00		 call	 DWORD PTR [eax+364]
; File C:\Program Files (x86)\Microsoft Visual Studio\2019\Community\VC\Tools\MSVC\14.29.30133\atlmfc\include\afxcmn.inl

; 425  : 	{ ASSERT(::IsWindow(m_hWnd));  ::SendMessage(m_hWnd, TTM_ACTIVATE, bActivate, 0L); }

  0004e	6a 00		 push	 0
  00050	6a 00		 push	 0
  00052	68 01 04 00 00	 push	 1025			; 00000401H
  00057	ff b6 a8 00 00
	00		 push	 DWORD PTR [esi+168]
  0005d	ff d7		 call	 edi

; 431  : 	{ ASSERT(::IsWindow(m_hWnd));  return (int) ::SendMessage(m_hWnd, TTM_GETTOOLCOUNT, 0, 0L); }

  0005f	6a 00		 push	 0
  00061	6a 00		 push	 0
  00063	68 0d 04 00 00	 push	 1037			; 0000040dH
  00068	ff b6 a8 00 00
	00		 push	 DWORD PTR [esi+168]
  0006e	ff d7		 call	 edi
; File D:\git\src\IBK\IBK_DRFN\ProjSrc\SrcChartEx\ChartOCX\ChartToolBar\ImageComboBox.cpp

; 149  : 	if(m_ToolTip.GetToolCount() == 0)

  00070	85 c0		 test	 eax, eax
  00072	75 2c		 jne	 SHORT $LN26@OnMouseMov
; File C:\Program Files (x86)\Microsoft Visual Studio\2019\Community\VC\Tools\MSVC\14.29.30133\atlmfc\include\afxwin2.inl

; 86   : 	{ ASSERT(::IsWindow(m_hWnd)); ::GetClientRect(m_hWnd, lpRect); }

  00074	8d 45 ec	 lea	 eax, DWORD PTR _rectBtn$1[ebp]
  00077	0f 57 c0	 xorps	 xmm0, xmm0
  0007a	50		 push	 eax
  0007b	ff 76 20	 push	 DWORD PTR [esi+32]
; File C:\Program Files (x86)\Microsoft Visual Studio\2019\Community\VC\Tools\MSVC\14.29.30133\atlmfc\include\atltypes.h

; 528  : 	left = 0;

  0007e	0f 11 45 ec	 movups	 XMMWORD PTR _rectBtn$1[ebp], xmm0
; File C:\Program Files (x86)\Microsoft Visual Studio\2019\Community\VC\Tools\MSVC\14.29.30133\atlmfc\include\afxwin2.inl

; 86   : 	{ ASSERT(::IsWindow(m_hWnd)); ::GetClientRect(m_hWnd, lpRect); }

  00082	ff 15 00 00 00
	00		 call	 DWORD PTR __imp__GetClientRect@8
; File D:\git\src\IBK\IBK_DRFN\ProjSrc\SrcChartEx\ChartOCX\ChartToolBar\ImageComboBox.cpp

; 153  : 		m_ToolTip.AddTool(this, (LPCTSTR)strText, rectBtn, 1);

  00088	6a 01		 push	 1
  0008a	8d 45 ec	 lea	 eax, DWORD PTR _rectBtn$1[ebp]
  0008d	50		 push	 eax
  0008e	ff b6 80 00 00
	00		 push	 DWORD PTR [esi+128]
  00094	8d 8e 88 00 00
	00		 lea	 ecx, DWORD PTR [esi+136]
  0009a	56		 push	 esi
  0009b	e8 00 00 00 00	 call	 ?AddTool@CToolTipCtrl@@QAEHPAVCWnd@@PBDPBUtagRECT@@I@Z ; CToolTipCtrl::AddTool
$LN26@OnMouseMov:

; 154  : 	}
; 155  : 
; 156  : 	// ooltip text ¸¦ set
; 157  : 	m_ToolTip.UpdateTipText((LPCTSTR)strText, this, 1);

  000a0	6a 01		 push	 1
  000a2	56		 push	 esi
  000a3	ff b6 80 00 00
	00		 push	 DWORD PTR [esi+128]
  000a9	8d 8e 88 00 00
	00		 lea	 ecx, DWORD PTR [esi+136]
  000af	e8 00 00 00 00	 call	 ?UpdateTipText@CToolTipCtrl@@QAEXPBDPAVCWnd@@I@Z ; CToolTipCtrl::UpdateTipText
; File C:\Program Files (x86)\Microsoft Visual Studio\2019\Community\VC\Tools\MSVC\14.29.30133\atlmfc\include\afxcmn.inl

; 425  : 	{ ASSERT(::IsWindow(m_hWnd));  ::SendMessage(m_hWnd, TTM_ACTIVATE, bActivate, 0L); }

  000b4	6a 00		 push	 0
  000b6	6a 01		 push	 1
  000b8	68 01 04 00 00	 push	 1025			; 00000401H
  000bd	ff b6 a8 00 00
	00		 push	 DWORD PTR [esi+168]
  000c3	ff d7		 call	 edi
  000c5	8b 8e a8 00 00
	00		 mov	 ecx, DWORD PTR [esi+168]
  000cb	5b		 pop	 ebx
$LN11@OnMouseMov:
; File D:\git\src\IBK\IBK_DRFN\ProjSrc\SrcChartEx\ChartOCX\ChartToolBar\ImageComboBox.cpp

; 98   : 	msg.hwnd = m_hWnd;

  000cc	8b 46 20	 mov	 eax, DWORD PTR [esi+32]
  000cf	89 45 d0	 mov	 DWORD PTR _msg$[ebp], eax
; File C:\Program Files (x86)\Microsoft Visual Studio\2019\Community\VC\Tools\MSVC\14.29.30133\atlmfc\include\afxcmn.inl

; 429  : 	{ ASSERT(::IsWindow(m_hWnd));  ::SendMessage(m_hWnd, TTM_RELAYEVENT, 0, (LPARAM)lpMsg); }

  000d2	8d 45 d0	 lea	 eax, DWORD PTR _msg$[ebp]
  000d5	50		 push	 eax
  000d6	6a 00		 push	 0
  000d8	68 07 04 00 00	 push	 1031			; 00000407H
  000dd	51		 push	 ecx
; File D:\git\src\IBK\IBK_DRFN\ProjSrc\SrcChartEx\ChartOCX\ChartToolBar\ImageComboBox.cpp

; 99   : 	msg.message = WM_MOUSEMOVE;

  000de	c7 45 d4 00 02
	00 00		 mov	 DWORD PTR _msg$[ebp+4], 512 ; 00000200H

; 100  : 	msg.wParam = 0;

  000e5	c7 45 d8 00 00
	00 00		 mov	 DWORD PTR _msg$[ebp+8], 0

; 101  : 	msg.lParam = 0;

  000ec	c7 45 dc 00 00
	00 00		 mov	 DWORD PTR _msg$[ebp+12], 0
; File C:\Program Files (x86)\Microsoft Visual Studio\2019\Community\VC\Tools\MSVC\14.29.30133\atlmfc\include\afxcmn.inl

; 429  : 	{ ASSERT(::IsWindow(m_hWnd));  ::SendMessage(m_hWnd, TTM_RELAYEVENT, 0, (LPARAM)lpMsg); }

  000f3	ff d7		 call	 edi
; File C:\Program Files (x86)\Microsoft Visual Studio\2019\Community\VC\Tools\MSVC\14.29.30133\atlmfc\include\afxwin2.inl

; 454  : 	{ Default(); }

  000f5	8b ce		 mov	 ecx, esi
  000f7	e8 00 00 00 00	 call	 ?Default@CWnd@@IAEJXZ	; CWnd::Default
  000fc	5f		 pop	 edi
$LN1@OnMouseMov:
; File D:\git\src\IBK\IBK_DRFN\ProjSrc\SrcChartEx\ChartOCX\ChartToolBar\ImageComboBox.cpp

; 105  : }

  000fd	8b 4d fc	 mov	 ecx, DWORD PTR __$ArrayPad$[ebp]
  00100	33 cd		 xor	 ecx, ebp
  00102	5e		 pop	 esi
  00103	e8 00 00 00 00	 call	 @__security_check_cookie@4
  00108	8b e5		 mov	 esp, ebp
  0010a	5d		 pop	 ebp
  0010b	c2 0c 00	 ret	 12			; 0000000cH
?OnMouseMove@CImageComboBox@@IAEXIVCPoint@@@Z ENDP	; CImageComboBox::OnMouseMove
_TEXT	ENDS
; Function compile flags: /Ogtp
; File D:\git\src\IBK\IBK_DRFN\ProjSrc\SrcChartEx\ChartOCX\ChartToolBar\ImageComboBox.cpp
;	COMDAT ?MeasureItem@CImageComboBox@@UAEXPAUtagMEASUREITEMSTRUCT@@@Z
_TEXT	SEGMENT
_lpMeasureItemStruct$ = 8				; size = 4
?MeasureItem@CImageComboBox@@UAEXPAUtagMEASUREITEMSTRUCT@@@Z PROC ; CImageComboBox::MeasureItem, COMDAT
; _this$ = ecx

; 85   : {

  00000	55		 push	 ebp
  00001	8b ec		 mov	 ebp, esp

; 86   : 	lpMeasureItemStruct->itemHeight = LINE_ITEM_HEIGHT;

  00003	8b 45 08	 mov	 eax, DWORD PTR _lpMeasureItemStruct$[ebp]
  00006	c7 40 10 0d 00
	00 00		 mov	 DWORD PTR [eax+16], 13	; 0000000dH

; 87   : }

  0000d	5d		 pop	 ebp
  0000e	c2 04 00	 ret	 4
?MeasureItem@CImageComboBox@@UAEXPAUtagMEASUREITEMSTRUCT@@@Z ENDP ; CImageComboBox::MeasureItem
_TEXT	ENDS
; Function compile flags: /Ogtp
; File D:\git\src\IBK\IBK_DRFN\ProjSrc\SrcChartEx\ChartOCX\ChartToolBar\ImageComboBox.cpp
; File C:\Program Files (x86)\Microsoft Visual Studio\2019\Community\VC\Tools\MSVC\14.29.30133\atlmfc\include\afxwin1.inl
; File D:\git\src\IBK\IBK_DRFN\ProjSrc\SrcChartEx\ChartOCX\ChartToolBar\ImageComboBox.cpp
; File C:\Program Files (x86)\Microsoft Visual Studio\2019\Community\VC\Tools\MSVC\14.29.30133\atlmfc\include\afxwin1.inl
; File D:\git\src\IBK\IBK_DRFN\ProjSrc\SrcChartEx\ChartOCX\ChartToolBar\ImageComboBox.cpp
; File C:\Program Files (x86)\Microsoft Visual Studio\2019\Community\VC\Tools\MSVC\14.29.30133\atlmfc\include\atltypes.h
; File D:\git\src\IBK\IBK_DRFN\ProjSrc\SrcChartEx\ChartOCX\ChartToolBar\ImageComboBox.cpp
; File C:\Program Files (x86)\Microsoft Visual Studio\2019\Community\VC\Tools\MSVC\14.29.30133\atlmfc\include\atltypes.h
; File C:\Program Files (x86)\Microsoft Visual Studio\2019\Community\VC\Tools\MSVC\14.29.30133\atlmfc\include\afxwin1.inl
; File D:\git\src\IBK\IBK_DRFN\ProjSrc\SrcChartEx\ChartOCX\ChartToolBar\ImageComboBox.cpp
; File C:\Program Files (x86)\Microsoft Visual Studio\2019\Community\VC\Tools\MSVC\14.29.30133\atlmfc\include\afxwin1.inl
; File D:\git\src\IBK\IBK_DRFN\ProjSrc\SrcChartEx\ChartOCX\ChartToolBar\ImageComboBox.cpp
; File C:\Program Files (x86)\Microsoft Visual Studio\2019\Community\VC\Tools\MSVC\14.29.30133\atlmfc\include\afxwin1.inl
; File D:\git\src\IBK\IBK_DRFN\ProjSrc\SrcChartEx\ChartOCX\ChartToolBar\ImageComboBox.cpp
; File C:\Program Files (x86)\Microsoft Visual Studio\2019\Community\VC\Tools\MSVC\14.29.30133\atlmfc\include\afxwin1.inl
; File D:\git\src\IBK\IBK_DRFN\ProjSrc\SrcChartEx\ChartOCX\ChartToolBar\ImageComboBox.cpp
;	COMDAT ?DrawItem@CImageComboBox@@UAEXPAUtagDRAWITEMSTRUCT@@@Z
_TEXT	SEGMENT
_memDC$2 = -84						; size = 16
tv423 = -68						; size = 8
_br$3 = -60						; size = 8
_br$4 = -52						; size = 8
_pOld$1$ = -44						; size = 4
_pDC$1$ = -40						; size = 4
_str$5 = -36						; size = 4
_rect$6 = -32						; size = 16
__$ArrayPad$ = -16					; size = 4
__$EHRec$ = -12						; size = 12
_lpDrawItemStruct$ = 8					; size = 4
?DrawItem@CImageComboBox@@UAEXPAUtagDRAWITEMSTRUCT@@@Z PROC ; CImageComboBox::DrawItem, COMDAT
; _this$ = ecx

; 40   : {

  00000	55		 push	 ebp
  00001	8b ec		 mov	 ebp, esp
  00003	6a ff		 push	 -1
  00005	68 00 00 00 00	 push	 __ehhandler$?DrawItem@CImageComboBox@@UAEXPAUtagDRAWITEMSTRUCT@@@Z
  0000a	64 a1 00 00 00
	00		 mov	 eax, DWORD PTR fs:0
  00010	50		 push	 eax
  00011	83 ec 48	 sub	 esp, 72			; 00000048H
  00014	a1 00 00 00 00	 mov	 eax, DWORD PTR ___security_cookie
  00019	33 c5		 xor	 eax, ebp
  0001b	89 45 f0	 mov	 DWORD PTR __$ArrayPad$[ebp], eax
  0001e	53		 push	 ebx
  0001f	56		 push	 esi
  00020	57		 push	 edi
  00021	50		 push	 eax
  00022	8d 45 f4	 lea	 eax, DWORD PTR __$EHRec$[ebp]
  00025	64 a3 00 00 00
	00		 mov	 DWORD PTR fs:0, eax
  0002b	8b f9		 mov	 edi, ecx
  0002d	8b 75 08	 mov	 esi, DWORD PTR _lpDrawItemStruct$[ebp]

; 41   : 	// TODO: Add your code to draw the specified item
; 42   : 	CDC* pDC = CDC::FromHandle(lpDrawItemStruct->hDC);

  00030	ff 76 18	 push	 DWORD PTR [esi+24]
  00033	e8 00 00 00 00	 call	 ?FromHandle@CDC@@SGPAV1@PAUHDC__@@@Z ; CDC::FromHandle

; 43   : 	
; 44   : 
; 45   : 	if (lpDrawItemStruct->itemAction & ODA_DRAWENTIRE)

  00038	f6 46 0c 01	 test	 BYTE PTR [esi+12], 1
  0003c	89 45 d8	 mov	 DWORD PTR _pDC$1$[ebp], eax
  0003f	0f 84 08 01 00
	00		 je	 $LN62@DrawItem

; 46   : 	{
; 47   : 		if ((long int)lpDrawItemStruct->itemData == -1) return;

  00045	8b 4e 2c	 mov	 ecx, DWORD PTR [esi+44]
  00048	83 f9 ff	 cmp	 ecx, -1
  0004b	0f 84 6f 01 00
	00		 je	 $LN60@DrawItem

; 48   : 		CString str((LPCTSTR)lpDrawItemStruct->itemData); 

  00051	51		 push	 ecx
  00052	8d 4d dc	 lea	 ecx, DWORD PTR _str$5[ebp]
  00055	ff 15 00 00 00
	00		 call	 DWORD PTR __imp_??0?$CStringT@DV?$StrTraitMFC_DLL@DV?$ChTraitsCRT@D@ATL@@@@@ATL@@QAE@PBD@Z

; 49   : 		int Index = (int)atof(str);

  0005b	ff 75 dc	 push	 DWORD PTR _str$5[ebp]
  0005e	c7 45 fc 00 00
	00 00		 mov	 DWORD PTR __$EHRec$[ebp+8], 0
  00065	ff 15 00 00 00
	00		 call	 DWORD PTR __imp__atof
  0006b	dd 5d bc	 fstp	 QWORD PTR tv423[ebp]
  0006e	f2 0f 2c 45 bc	 cvttsd2si eax, QWORD PTR tv423[ebp]
  00073	83 c4 04	 add	 esp, 4

; 50   : 
; 51   : 		if (Index == 0 && str[0] != '0') return;

  00076	85 c0		 test	 eax, eax
  00078	75 1c		 jne	 SHORT $LN4@DrawItem
  0007a	50		 push	 eax
  0007b	8d 4d dc	 lea	 ecx, DWORD PTR _str$5[ebp]
  0007e	ff 15 00 00 00
	00		 call	 DWORD PTR __imp_??A?$CSimpleStringT@D$00@ATL@@QBEDH@Z
  00084	3c 30		 cmp	 al, 48			; 00000030H
  00086	74 0e		 je	 SHORT $LN4@DrawItem
  00088	8d 4d dc	 lea	 ecx, DWORD PTR _str$5[ebp]
  0008b	ff 15 00 00 00
	00		 call	 DWORD PTR __imp_??1?$CStringT@DV?$StrTraitMFC_DLL@DV?$ChTraitsCRT@D@ATL@@@@@ATL@@QAE@XZ
  00091	e9 2a 01 00 00	 jmp	 $LN60@DrawItem
$LN4@DrawItem:

; 52   : 
; 53   : 		CDC* pDC = CDC::FromHandle(lpDrawItemStruct->hDC);

  00096	ff 76 18	 push	 DWORD PTR [esi+24]
  00099	e8 00 00 00 00	 call	 ?FromHandle@CDC@@SGPAV1@PAUHDC__@@@Z ; CDC::FromHandle

; 54   : 		CDC memDC;

  0009e	8d 4d ac	 lea	 ecx, DWORD PTR _memDC$2[ebp]
  000a1	8b d8		 mov	 ebx, eax
  000a3	e8 00 00 00 00	 call	 ??0CDC@@QAE@XZ		; CDC::CDC
  000a8	c6 45 fc 01	 mov	 BYTE PTR __$EHRec$[ebp+8], 1
; File C:\Program Files (x86)\Microsoft Visual Studio\2019\Community\VC\Tools\MSVC\14.29.30133\atlmfc\include\afxwin1.inl

; 316  : 	{ return this == NULL ? NULL : m_hDC; }

  000ac	85 db		 test	 ebx, ebx
  000ae	75 04		 jne	 SHORT $LN18@DrawItem
  000b0	33 c9		 xor	 ecx, ecx
  000b2	eb 03		 jmp	 SHORT $LN19@DrawItem
$LN18@DrawItem:
  000b4	8b 4b 04	 mov	 ecx, DWORD PTR [ebx+4]
$LN19@DrawItem:

; 330  : 	{ return Attach(::CreateCompatibleDC(pDC->GetSafeHdc())); }

  000b7	51		 push	 ecx
  000b8	ff 15 00 00 00
	00		 call	 DWORD PTR __imp__CreateCompatibleDC@4
  000be	50		 push	 eax
  000bf	8d 4d ac	 lea	 ecx, DWORD PTR _memDC$2[ebp]
  000c2	e8 00 00 00 00	 call	 ?Attach@CDC@@QAEHPAUHDC__@@@Z ; CDC::Attach
; File D:\git\src\IBK\IBK_DRFN\ProjSrc\SrcChartEx\ChartOCX\ChartToolBar\ImageComboBox.cpp

; 56   : 		CBitmap* pOld = memDC.SelectObject(&m_bitmap);

  000c7	8d 87 28 01 00
	00		 lea	 eax, DWORD PTR [edi+296]
; File C:\Program Files (x86)\Microsoft Visual Studio\2019\Community\VC\Tools\MSVC\14.29.30133\atlmfc\include\afxwin1.inl

; 68   : 	{ return this == NULL ? NULL : m_hObject; }

  000cd	85 c0		 test	 eax, eax
  000cf	74 03		 je	 SHORT $LN25@DrawItem
$LN24@DrawItem:
  000d1	8b 40 04	 mov	 eax, DWORD PTR [eax+4]
$LN25@DrawItem:

; 361  : 	{ ASSERT(m_hDC != NULL); return (CBitmap*) SelectGdiObject(m_hDC, pBitmap->GetSafeHandle()); }

  000d4	50		 push	 eax
  000d5	ff 75 b0	 push	 DWORD PTR _memDC$2[ebp+4]
  000d8	e8 00 00 00 00	 call	 ?SelectGdiObject@CDC@@KGPAVCGdiObject@@PAUHDC__@@PAX@Z ; CDC::SelectGdiObject
; File D:\git\src\IBK\IBK_DRFN\ProjSrc\SrcChartEx\ChartOCX\ChartToolBar\ImageComboBox.cpp

; 56   : 		CBitmap* pOld = memDC.SelectObject(&m_bitmap);

  000dd	89 45 d4	 mov	 DWORD PTR _pOld$1$[ebp], eax

; 57   : 
; 58   : 		CRect rect;
; 59   : 		rect.CopyRect(&lpDrawItemStruct->rcItem);

  000e0	8d 7e 1c	 lea	 edi, DWORD PTR [esi+28]
; File C:\Program Files (x86)\Microsoft Visual Studio\2019\Community\VC\Tools\MSVC\14.29.30133\atlmfc\include\atltypes.h

; 674  : 	::CopyRect(this, lpSrcRect);

  000e3	57		 push	 edi
  000e4	8d 45 e0	 lea	 eax, DWORD PTR _rect$6[ebp]
  000e7	0f 57 c0	 xorps	 xmm0, xmm0
  000ea	50		 push	 eax

; 528  : 	left = 0;

  000eb	0f 11 45 e0	 movups	 XMMWORD PTR _rect$6[ebp], xmm0

; 674  : 	::CopyRect(this, lpSrcRect);

  000ef	ff 15 00 00 00
	00		 call	 DWORD PTR __imp__CopyRect@8
; File D:\git\src\IBK\IBK_DRFN\ProjSrc\SrcChartEx\ChartOCX\ChartToolBar\ImageComboBox.cpp

; 61   : 		pDC->BitBlt(rect.left, rect.top, rect.Width(), LINE_ITEM_HEIGHT,

  000f5	f2 0f 2c 45 bc	 cvttsd2si eax, QWORD PTR tv423[ebp]
; File C:\Program Files (x86)\Microsoft Visual Studio\2019\Community\VC\Tools\MSVC\14.29.30133\atlmfc\include\atltypes.h

; 576  : 	return right - left;

  000fa	8b 4d e8	 mov	 ecx, DWORD PTR _rect$6[ebp+8]
  000fd	8b 55 e0	 mov	 edx, DWORD PTR _rect$6[ebp]
  00100	2b ca		 sub	 ecx, edx
; File C:\Program Files (x86)\Microsoft Visual Studio\2019\Community\VC\Tools\MSVC\14.29.30133\atlmfc\include\afxwin1.inl

; 552  : 	{ ASSERT(m_hDC != NULL); return ::BitBlt(m_hDC, x, y, nWidth, nHeight,

  00102	68 20 00 cc 00	 push	 13369376		; 00cc0020H
; File D:\git\src\IBK\IBK_DRFN\ProjSrc\SrcChartEx\ChartOCX\ChartToolBar\ImageComboBox.cpp

; 61   : 		pDC->BitBlt(rect.left, rect.top, rect.Width(), LINE_ITEM_HEIGHT,

  00107	6b c0 0d	 imul	 eax, eax, 13
; File C:\Program Files (x86)\Microsoft Visual Studio\2019\Community\VC\Tools\MSVC\14.29.30133\atlmfc\include\afxwin1.inl

; 552  : 	{ ASSERT(m_hDC != NULL); return ::BitBlt(m_hDC, x, y, nWidth, nHeight,

  0010a	50		 push	 eax
  0010b	6a 00		 push	 0
  0010d	ff 75 b0	 push	 DWORD PTR _memDC$2[ebp+4]
  00110	6a 0d		 push	 13			; 0000000dH
  00112	51		 push	 ecx
  00113	ff 75 e4	 push	 DWORD PTR _rect$6[ebp+4]
  00116	52		 push	 edx
  00117	ff 73 04	 push	 DWORD PTR [ebx+4]
  0011a	ff 15 00 00 00
	00		 call	 DWORD PTR __imp__BitBlt@36

; 68   : 	{ return this == NULL ? NULL : m_hObject; }

  00120	8b 45 d4	 mov	 eax, DWORD PTR _pOld$1$[ebp]
  00123	85 c0		 test	 eax, eax
  00125	74 03		 je	 SHORT $LN43@DrawItem
$LN42@DrawItem:
  00127	8b 40 04	 mov	 eax, DWORD PTR [eax+4]
$LN43@DrawItem:

; 361  : 	{ ASSERT(m_hDC != NULL); return (CBitmap*) SelectGdiObject(m_hDC, pBitmap->GetSafeHandle()); }

  0012a	50		 push	 eax
  0012b	ff 75 b0	 push	 DWORD PTR _memDC$2[ebp+4]
  0012e	e8 00 00 00 00	 call	 ?SelectGdiObject@CDC@@KGPAVCGdiObject@@PAUHDC__@@PAX@Z ; CDC::SelectGdiObject
; File D:\git\src\IBK\IBK_DRFN\ProjSrc\SrcChartEx\ChartOCX\ChartToolBar\ImageComboBox.cpp

; 64   : 	}

  00133	8d 4d ac	 lea	 ecx, DWORD PTR _memDC$2[ebp]
  00136	e8 00 00 00 00	 call	 ??1CDC@@UAE@XZ		; CDC::~CDC
  0013b	8d 4d dc	 lea	 ecx, DWORD PTR _str$5[ebp]
  0013e	c7 45 fc ff ff
	ff ff		 mov	 DWORD PTR __$EHRec$[ebp+8], -1
  00145	ff 15 00 00 00
	00		 call	 DWORD PTR __imp_??1?$CStringT@DV?$StrTraitMFC_DLL@DV?$ChTraitsCRT@D@ATL@@@@@ATL@@QAE@XZ
  0014b	eb 03		 jmp	 SHORT $LN2@DrawItem
$LN62@DrawItem:
  0014d	8d 7e 1c	 lea	 edi, DWORD PTR [esi+28]
$LN2@DrawItem:

; 65   : 
; 66   : 	if ((lpDrawItemStruct->itemState & ODS_SELECTED) &&

  00150	8b 46 10	 mov	 eax, DWORD PTR [esi+16]
  00153	8b 1d 00 00 00
	00		 mov	 ebx, DWORD PTR __imp__FrameRect@12
  00159	a8 01		 test	 al, 1
  0015b	74 35		 je	 SHORT $LN65@DrawItem
  0015d	f6 46 0c 03	 test	 BYTE PTR [esi+12], 3
  00161	74 2b		 je	 SHORT $LN51@DrawItem

; 67   : 		(lpDrawItemStruct->itemAction & (ODA_SELECT | ODA_DRAWENTIRE)))
; 68   : 	{
; 69   : 		// item has been selected - hilite frame
; 70   : 		CBrush br(RGB(192,0,192));

  00163	68 c0 00 c0 00	 push	 12583104		; 00c000c0H
  00168	8d 4d cc	 lea	 ecx, DWORD PTR _br$4[ebp]
  0016b	e8 00 00 00 00	 call	 ??0CBrush@@QAE@K@Z	; CBrush::CBrush
; File C:\Program Files (x86)\Microsoft Visual Studio\2019\Community\VC\Tools\MSVC\14.29.30133\atlmfc\include\afxwin1.inl

; 478  : 	{ ASSERT(m_hDC != NULL); ::FrameRect(m_hDC, lpRect, (HBRUSH)pBrush->GetSafeHandle()); }

  00170	ff 75 d0	 push	 DWORD PTR _br$4[ebp+4]
  00173	8b 45 d8	 mov	 eax, DWORD PTR _pDC$1$[ebp]
  00176	57		 push	 edi
  00177	ff 70 04	 push	 DWORD PTR [eax+4]
  0017a	ff d3		 call	 ebx

; 130  : 	{ }

  0017c	8d 4d cc	 lea	 ecx, DWORD PTR _br$4[ebp]
  0017f	c7 45 cc 00 00
	00 00		 mov	 DWORD PTR _br$4[ebp], OFFSET ??_7CBrush@@6B@
  00186	e8 00 00 00 00	 call	 ??1CGdiObject@@UAE@XZ	; CGdiObject::~CGdiObject
  0018b	8b 46 10	 mov	 eax, DWORD PTR [esi+16]
$LN51@DrawItem:
; File D:\git\src\IBK\IBK_DRFN\ProjSrc\SrcChartEx\ChartOCX\ChartToolBar\ImageComboBox.cpp

; 74   : 	if (!(lpDrawItemStruct->itemState & ODS_SELECTED) &&

  0018e	a8 01		 test	 al, 1
  00190	75 2e		 jne	 SHORT $LN60@DrawItem
$LN65@DrawItem:
  00192	f6 46 0c 02	 test	 BYTE PTR [esi+12], 2
  00196	74 28		 je	 SHORT $LN60@DrawItem

; 75   : 		(lpDrawItemStruct->itemAction & ODA_SELECT))
; 76   : 	{
; 77   : 		// Item has been de-selected -- remove frame
; 78   : 		CBrush br(RGB(255,255,255));

  00198	68 ff ff ff 00	 push	 16777215		; 00ffffffH
  0019d	8d 4d c4	 lea	 ecx, DWORD PTR _br$3[ebp]
  001a0	e8 00 00 00 00	 call	 ??0CBrush@@QAE@K@Z	; CBrush::CBrush
; File C:\Program Files (x86)\Microsoft Visual Studio\2019\Community\VC\Tools\MSVC\14.29.30133\atlmfc\include\afxwin1.inl

; 478  : 	{ ASSERT(m_hDC != NULL); ::FrameRect(m_hDC, lpRect, (HBRUSH)pBrush->GetSafeHandle()); }

  001a5	ff 75 c8	 push	 DWORD PTR _br$3[ebp+4]
  001a8	8b 45 d8	 mov	 eax, DWORD PTR _pDC$1$[ebp]
  001ab	57		 push	 edi
  001ac	ff 70 04	 push	 DWORD PTR [eax+4]
  001af	ff d3		 call	 ebx

; 130  : 	{ }

  001b1	8d 4d c4	 lea	 ecx, DWORD PTR _br$3[ebp]
  001b4	c7 45 c4 00 00
	00 00		 mov	 DWORD PTR _br$3[ebp], OFFSET ??_7CBrush@@6B@
  001bb	e8 00 00 00 00	 call	 ??1CGdiObject@@UAE@XZ	; CGdiObject::~CGdiObject
$LN60@DrawItem:
; File D:\git\src\IBK\IBK_DRFN\ProjSrc\SrcChartEx\ChartOCX\ChartToolBar\ImageComboBox.cpp

; 81   : }

  001c0	8b 4d f4	 mov	 ecx, DWORD PTR __$EHRec$[ebp]
  001c3	64 89 0d 00 00
	00 00		 mov	 DWORD PTR fs:0, ecx
  001ca	59		 pop	 ecx
  001cb	5f		 pop	 edi
  001cc	5e		 pop	 esi
  001cd	5b		 pop	 ebx
  001ce	8b 4d f0	 mov	 ecx, DWORD PTR __$ArrayPad$[ebp]
  001d1	33 cd		 xor	 ecx, ebp
  001d3	e8 00 00 00 00	 call	 @__security_check_cookie@4
  001d8	8b e5		 mov	 esp, ebp
  001da	5d		 pop	 ebp
  001db	c2 04 00	 ret	 4
_TEXT	ENDS
;	COMDAT text$x
text$x	SEGMENT
__unwindfunclet$?DrawItem@CImageComboBox@@UAEXPAUtagDRAWITEMSTRUCT@@@Z$0:
  00000	8d 4d dc	 lea	 ecx, DWORD PTR _str$5[ebp]
  00003	ff 25 00 00 00
	00		 jmp	 DWORD PTR __imp_??1?$CStringT@DV?$StrTraitMFC_DLL@DV?$ChTraitsCRT@D@ATL@@@@@ATL@@QAE@XZ
__unwindfunclet$?DrawItem@CImageComboBox@@UAEXPAUtagDRAWITEMSTRUCT@@@Z$1:
  00009	8d 4d ac	 lea	 ecx, DWORD PTR _memDC$2[ebp]
  0000c	e9 00 00 00 00	 jmp	 ??1CDC@@UAE@XZ		; CDC::~CDC
  00011	cc		 int	 3
  00012	cc		 int	 3
  00013	cc		 int	 3
  00014	cc		 int	 3
  00015	cc		 int	 3
__ehhandler$?DrawItem@CImageComboBox@@UAEXPAUtagDRAWITEMSTRUCT@@@Z:
  00016	90		 npad	 1
  00017	90		 npad	 1
  00018	8b 54 24 08	 mov	 edx, DWORD PTR [esp+8]
  0001c	8d 42 0c	 lea	 eax, DWORD PTR [edx+12]
  0001f	8b 4a a8	 mov	 ecx, DWORD PTR [edx-88]
  00022	33 c8		 xor	 ecx, eax
  00024	e8 00 00 00 00	 call	 @__security_check_cookie@4
  00029	8b 4a fc	 mov	 ecx, DWORD PTR [edx-4]
  0002c	33 c8		 xor	 ecx, eax
  0002e	e8 00 00 00 00	 call	 @__security_check_cookie@4
  00033	b8 00 00 00 00	 mov	 eax, OFFSET __ehfuncinfo$?DrawItem@CImageComboBox@@UAEXPAUtagDRAWITEMSTRUCT@@@Z
  00038	e9 00 00 00 00	 jmp	 ___CxxFrameHandler3
text$x	ENDS
?DrawItem@CImageComboBox@@UAEXPAUtagDRAWITEMSTRUCT@@@Z ENDP ; CImageComboBox::DrawItem
; Function compile flags: /Ogtp
; File D:\git\src\IBK\IBK_DRFN\ProjSrc\SrcChartEx\ChartOCX\ChartToolBar\ImageComboBox.cpp
; File C:\Program Files (x86)\Microsoft Visual Studio\2019\Community\VC\Tools\MSVC\14.29.30133\atlmfc\include\afxwin1.inl
; File D:\git\src\IBK\IBK_DRFN\ProjSrc\SrcChartEx\ChartOCX\ChartToolBar\ImageComboBox.cpp
;	COMDAT ??1CImageComboBox@@UAE@XZ
_TEXT	SEGMENT
??1CImageComboBox@@UAE@XZ PROC				; CImageComboBox::~CImageComboBox, COMDAT
; _this$ = ecx

; 24   : {

  00000	56		 push	 esi
  00001	8b f1		 mov	 esi, ecx

; 25   : }

  00003	8d 8e 28 01 00
	00		 lea	 ecx, DWORD PTR [esi+296]
  00009	c7 06 00 00 00
	00		 mov	 DWORD PTR [esi], OFFSET ??_7CImageComboBox@@6B@
; File C:\Program Files (x86)\Microsoft Visual Studio\2019\Community\VC\Tools\MSVC\14.29.30133\atlmfc\include\afxwin1.inl

; 179  : 	{ }

  0000f	c7 01 00 00 00
	00		 mov	 DWORD PTR [ecx], OFFSET ??_7CBitmap@@6B@
  00015	e8 00 00 00 00	 call	 ??1CGdiObject@@UAE@XZ	; CGdiObject::~CGdiObject
; File D:\git\src\IBK\IBK_DRFN\ProjSrc\SrcChartEx\ChartOCX\ChartToolBar\ImageComboBox.cpp

; 25   : }

  0001a	8d 8e 88 00 00
	00		 lea	 ecx, DWORD PTR [esi+136]
  00020	e8 00 00 00 00	 call	 ??1CToolTipCtrl@@UAE@XZ	; CToolTipCtrl::~CToolTipCtrl
  00025	8d 8e 80 00 00
	00		 lea	 ecx, DWORD PTR [esi+128]
  0002b	ff 15 00 00 00
	00		 call	 DWORD PTR __imp_??1?$CStringT@DV?$StrTraitMFC_DLL@DV?$ChTraitsCRT@D@ATL@@@@@ATL@@QAE@XZ
  00031	8b ce		 mov	 ecx, esi
  00033	5e		 pop	 esi
  00034	e9 00 00 00 00	 jmp	 ??1CComboBox@@UAE@XZ	; CComboBox::~CComboBox
??1CImageComboBox@@UAE@XZ ENDP				; CImageComboBox::~CImageComboBox
_TEXT	ENDS
; Function compile flags: /Ogtp
; File D:\git\src\IBK\IBK_DRFN\ProjSrc\SrcChartEx\ChartOCX\ChartToolBar\ImageComboBox.cpp
; File C:\Program Files (x86)\Microsoft Visual Studio\2019\Community\VC\Tools\MSVC\14.29.30133\atlmfc\include\afxwin2.inl
; File D:\git\src\IBK\IBK_DRFN\ProjSrc\SrcChartEx\ChartOCX\ChartToolBar\ImageComboBox.cpp
; File C:\Program Files (x86)\Microsoft Visual Studio\2019\Community\VC\Tools\MSVC\14.29.30133\atlmfc\include\afxwin1.inl
; File D:\git\src\IBK\IBK_DRFN\ProjSrc\SrcChartEx\ChartOCX\ChartToolBar\ImageComboBox.cpp
; File C:\Program Files (x86)\Microsoft Visual Studio\2019\Community\VC\Tools\MSVC\14.29.30133\atlmfc\include\afxwin1.inl
; File D:\git\src\IBK\IBK_DRFN\ProjSrc\SrcChartEx\ChartOCX\ChartToolBar\ImageComboBox.cpp
;	COMDAT ??0CImageComboBox@@QAE@XZ
_TEXT	SEGMENT
_this$ = -16						; size = 4
__$EHRec$ = -12						; size = 12
??0CImageComboBox@@QAE@XZ PROC				; CImageComboBox::CImageComboBox, COMDAT
; _this$ = ecx

; 19   : {

  00000	55		 push	 ebp
  00001	8b ec		 mov	 ebp, esp
  00003	6a ff		 push	 -1
  00005	68 00 00 00 00	 push	 __ehhandler$??0CImageComboBox@@QAE@XZ
  0000a	64 a1 00 00 00
	00		 mov	 eax, DWORD PTR fs:0
  00010	50		 push	 eax
  00011	51		 push	 ecx
  00012	56		 push	 esi
  00013	a1 00 00 00 00	 mov	 eax, DWORD PTR ___security_cookie
  00018	33 c5		 xor	 eax, ebp
  0001a	50		 push	 eax
  0001b	8d 45 f4	 lea	 eax, DWORD PTR __$EHRec$[ebp]
  0001e	64 a3 00 00 00
	00		 mov	 DWORD PTR fs:0, eax
  00024	8b f1		 mov	 esi, ecx
  00026	89 75 f0	 mov	 DWORD PTR _this$[ebp], esi
; File C:\Program Files (x86)\Microsoft Visual Studio\2019\Community\VC\Tools\MSVC\14.29.30133\atlmfc\include\afxwin2.inl

; 761  : 	{ }

  00029	e8 00 00 00 00	 call	 ??0CWnd@@QAE@XZ		; CWnd::CWnd
; File D:\git\src\IBK\IBK_DRFN\ProjSrc\SrcChartEx\ChartOCX\ChartToolBar\ImageComboBox.cpp

; 19   : {

  0002e	8d 8e 80 00 00
	00		 lea	 ecx, DWORD PTR [esi+128]
  00034	c7 45 fc 00 00
	00 00		 mov	 DWORD PTR __$EHRec$[ebp+8], 0
  0003b	c7 06 00 00 00
	00		 mov	 DWORD PTR [esi], OFFSET ??_7CImageComboBox@@6B@
  00041	ff 15 00 00 00
	00		 call	 DWORD PTR __imp_??0?$CStringT@DV?$StrTraitMFC_DLL@DV?$ChTraitsCRT@D@ATL@@@@@ATL@@QAE@XZ
  00047	8d 8e 88 00 00
	00		 lea	 ecx, DWORD PTR [esi+136]
  0004d	c6 45 fc 01	 mov	 BYTE PTR __$EHRec$[ebp+8], 1
  00051	e8 00 00 00 00	 call	 ??0CToolTipCtrl@@QAE@XZ	; CToolTipCtrl::CToolTipCtrl
; File C:\Program Files (x86)\Microsoft Visual Studio\2019\Community\VC\Tools\MSVC\14.29.30133\atlmfc\include\afxwin1.inl

; 70   : 	{ m_hObject = NULL; }

  00056	c7 86 2c 01 00
	00 00 00 00 00	 mov	 DWORD PTR [esi+300], 0
; File D:\git\src\IBK\IBK_DRFN\ProjSrc\SrcChartEx\ChartOCX\ChartToolBar\ImageComboBox.cpp

; 21   : }

  00060	8b c6		 mov	 eax, esi
; File C:\Program Files (x86)\Microsoft Visual Studio\2019\Community\VC\Tools\MSVC\14.29.30133\atlmfc\include\afxwin1.inl

; 177  : 	{ }

  00062	c7 86 28 01 00
	00 00 00 00 00	 mov	 DWORD PTR [esi+296], OFFSET ??_7CBitmap@@6B@
; File D:\git\src\IBK\IBK_DRFN\ProjSrc\SrcChartEx\ChartOCX\ChartToolBar\ImageComboBox.cpp

; 20   : 	m_ToolTip.m_hWnd = NULL;

  0006c	c7 86 a8 00 00
	00 00 00 00 00	 mov	 DWORD PTR [esi+168], 0

; 21   : }

  00076	8b 4d f4	 mov	 ecx, DWORD PTR __$EHRec$[ebp]
  00079	64 89 0d 00 00
	00 00		 mov	 DWORD PTR fs:0, ecx
  00080	59		 pop	 ecx
  00081	5e		 pop	 esi
  00082	8b e5		 mov	 esp, ebp
  00084	5d		 pop	 ebp
  00085	c3		 ret	 0
_TEXT	ENDS
;	COMDAT text$x
text$x	SEGMENT
__unwindfunclet$??0CImageComboBox@@QAE@XZ$0:
  00000	8b 4d f0	 mov	 ecx, DWORD PTR _this$[ebp]
  00003	e9 00 00 00 00	 jmp	 ??1CComboBox@@UAE@XZ	; CComboBox::~CComboBox
__unwindfunclet$??0CImageComboBox@@QAE@XZ$1:
  00008	8b 4d f0	 mov	 ecx, DWORD PTR _this$[ebp]
  0000b	81 c1 80 00 00
	00		 add	 ecx, 128		; 00000080H
  00011	ff 25 00 00 00
	00		 jmp	 DWORD PTR __imp_??1?$CStringT@DV?$StrTraitMFC_DLL@DV?$ChTraitsCRT@D@ATL@@@@@ATL@@QAE@XZ
  00017	cc		 int	 3
  00018	cc		 int	 3
  00019	cc		 int	 3
  0001a	cc		 int	 3
  0001b	cc		 int	 3
__ehhandler$??0CImageComboBox@@QAE@XZ:
  0001c	90		 npad	 1
  0001d	90		 npad	 1
  0001e	8b 54 24 08	 mov	 edx, DWORD PTR [esp+8]
  00022	8d 42 0c	 lea	 eax, DWORD PTR [edx+12]
  00025	8b 4a f4	 mov	 ecx, DWORD PTR [edx-12]
  00028	33 c8		 xor	 ecx, eax
  0002a	e8 00 00 00 00	 call	 @__security_check_cookie@4
  0002f	b8 00 00 00 00	 mov	 eax, OFFSET __ehfuncinfo$??0CImageComboBox@@QAE@XZ
  00034	e9 00 00 00 00	 jmp	 ___CxxFrameHandler3
text$x	ENDS
??0CImageComboBox@@QAE@XZ ENDP				; CImageComboBox::CImageComboBox
; Function compile flags: /Ogtp
; File C:\Program Files (x86)\Microsoft Visual Studio\2019\Community\VC\Tools\MSVC\14.29.30133\atlmfc\include\afx.inl
;	COMDAT ??_GCComboBox@@UAEPAXI@Z
_TEXT	SEGMENT
___flags$ = 8						; size = 4
??_GCComboBox@@UAEPAXI@Z PROC				; CComboBox::`scalar deleting destructor', COMDAT
; _this$ = ecx
  00000	55		 push	 ebp
  00001	8b ec		 mov	 ebp, esp
  00003	56		 push	 esi
  00004	8b f1		 mov	 esi, ecx
  00006	e8 00 00 00 00	 call	 ??1CComboBox@@UAE@XZ	; CComboBox::~CComboBox
  0000b	8b 45 08	 mov	 eax, DWORD PTR ___flags$[ebp]
  0000e	a8 01		 test	 al, 1
  00010	74 22		 je	 SHORT $LN9@scalar
  00012	a8 04		 test	 al, 4
  00014	75 10		 jne	 SHORT $LN3@scalar

; 112  : 	{ ::operator delete(p); }

  00016	56		 push	 esi
  00017	e8 00 00 00 00	 call	 ??3@YAXPAX@Z		; operator delete
  0001c	83 c4 04	 add	 esp, 4
  0001f	8b c6		 mov	 eax, esi
  00021	5e		 pop	 esi
  00022	5d		 pop	 ebp
  00023	c2 04 00	 ret	 4
$LN3@scalar:
  00026	68 80 00 00 00	 push	 128			; 00000080H
  0002b	56		 push	 esi
  0002c	e8 00 00 00 00	 call	 ?__global_delete@@YAXPAXI@Z ; __global_delete
  00031	83 c4 08	 add	 esp, 8
$LN9@scalar:
  00034	8b c6		 mov	 eax, esi
  00036	5e		 pop	 esi
  00037	5d		 pop	 ebp
  00038	c2 04 00	 ret	 4
??_GCComboBox@@UAEPAXI@Z ENDP				; CComboBox::`scalar deleting destructor'
_TEXT	ENDS
; Function compile flags: /Ogtp
; File C:\Program Files (x86)\Microsoft Visual Studio\2019\Community\VC\Tools\MSVC\14.29.30133\atlmfc\include\afxwin2.inl
;	COMDAT ?EndModalState@CWnd@@UAEXXZ
_TEXT	SEGMENT
?EndModalState@CWnd@@UAEXXZ PROC			; CWnd::EndModalState, COMDAT
; _this$ = ecx

; 567  : 	{ ::EnableWindow(m_hWnd, TRUE); }

  00000	6a 01		 push	 1
  00002	ff 71 20	 push	 DWORD PTR [ecx+32]
  00005	ff 15 00 00 00
	00		 call	 DWORD PTR __imp__EnableWindow@8
  0000b	c3		 ret	 0
?EndModalState@CWnd@@UAEXXZ ENDP			; CWnd::EndModalState
_TEXT	ENDS
; Function compile flags: /Ogtp
; File C:\Program Files (x86)\Microsoft Visual Studio\2019\Community\VC\Tools\MSVC\14.29.30133\atlmfc\include\afxwin2.inl
;	COMDAT ?BeginModalState@CWnd@@UAEXXZ
_TEXT	SEGMENT
?BeginModalState@CWnd@@UAEXXZ PROC			; CWnd::BeginModalState, COMDAT
; _this$ = ecx

; 565  : 	{ ::EnableWindow(m_hWnd, FALSE); }

  00000	6a 00		 push	 0
  00002	ff 71 20	 push	 DWORD PTR [ecx+32]
  00005	ff 15 00 00 00
	00		 call	 DWORD PTR __imp__EnableWindow@8
  0000b	c3		 ret	 0
?BeginModalState@CWnd@@UAEXXZ ENDP			; CWnd::BeginModalState
_TEXT	ENDS
; Function compile flags: /Ogtp
; File C:\Program Files (x86)\Microsoft Visual Studio\2019\Community\VC\Tools\MSVC\14.29.30133\atlmfc\include\afxwin2.inl
;	COMDAT ?DoDataExchange@CWnd@@MAEXPAVCDataExchange@@@Z
_TEXT	SEGMENT
___formal$ = 8						; size = 4
?DoDataExchange@CWnd@@MAEXPAVCDataExchange@@@Z PROC	; CWnd::DoDataExchange, COMDAT
; _this$ = ecx

; 561  : 	{ } // default does nothing

  00000	c2 04 00	 ret	 4
?DoDataExchange@CWnd@@MAEXPAVCDataExchange@@@Z ENDP	; CWnd::DoDataExchange
_TEXT	ENDS
; Function compile flags: /Ogtp
; File C:\Program Files (x86)\Microsoft Visual Studio\2019\Community\VC\Tools\MSVC\14.29.30133\atlmfc\include\afxwin1.inl
; File C:\Program Files (x86)\Microsoft Visual Studio\2019\Community\VC\Tools\MSVC\14.29.30133\atlmfc\include\afx.inl
;	COMDAT ??_GCBitmap@@UAEPAXI@Z
_TEXT	SEGMENT
___flags$ = 8						; size = 4
??_GCBitmap@@UAEPAXI@Z PROC				; CBitmap::`scalar deleting destructor', COMDAT
; _this$ = ecx
  00000	55		 push	 ebp
  00001	8b ec		 mov	 ebp, esp
; File C:\Program Files (x86)\Microsoft Visual Studio\2019\Community\VC\Tools\MSVC\14.29.30133\atlmfc\include\afxwin1.inl

; 179  : 	{ }

  00003	56		 push	 esi
  00004	8b f1		 mov	 esi, ecx
  00006	c7 06 00 00 00
	00		 mov	 DWORD PTR [esi], OFFSET ??_7CBitmap@@6B@
  0000c	e8 00 00 00 00	 call	 ??1CGdiObject@@UAE@XZ	; CGdiObject::~CGdiObject
  00011	8b 45 08	 mov	 eax, DWORD PTR ___flags$[ebp]
  00014	a8 01		 test	 al, 1
  00016	74 1f		 je	 SHORT $LN12@scalar
  00018	a8 04		 test	 al, 4
  0001a	75 10		 jne	 SHORT $LN3@scalar
; File C:\Program Files (x86)\Microsoft Visual Studio\2019\Community\VC\Tools\MSVC\14.29.30133\atlmfc\include\afx.inl

; 112  : 	{ ::operator delete(p); }

  0001c	56		 push	 esi
  0001d	e8 00 00 00 00	 call	 ??3@YAXPAX@Z		; operator delete
  00022	83 c4 04	 add	 esp, 4
  00025	8b c6		 mov	 eax, esi
  00027	5e		 pop	 esi
  00028	5d		 pop	 ebp
  00029	c2 04 00	 ret	 4
$LN3@scalar:
  0002c	6a 08		 push	 8
  0002e	56		 push	 esi
  0002f	e8 00 00 00 00	 call	 ?__global_delete@@YAXPAXI@Z ; __global_delete
  00034	83 c4 08	 add	 esp, 8
$LN12@scalar:
  00037	8b c6		 mov	 eax, esi
  00039	5e		 pop	 esi
  0003a	5d		 pop	 ebp
  0003b	c2 04 00	 ret	 4
??_GCBitmap@@UAEPAXI@Z ENDP				; CBitmap::`scalar deleting destructor'
_TEXT	ENDS
; Function compile flags: /Ogtp
; File C:\Program Files (x86)\Microsoft Visual Studio\2019\Community\VC\Tools\MSVC\14.29.30133\atlmfc\include\afxwin1.inl
;	COMDAT ??1CBitmap@@UAE@XZ
_TEXT	SEGMENT
??1CBitmap@@UAE@XZ PROC					; CBitmap::~CBitmap, COMDAT
; _this$ = ecx

; 179  : 	{ }

  00000	c7 01 00 00 00
	00		 mov	 DWORD PTR [ecx], OFFSET ??_7CBitmap@@6B@
  00006	e9 00 00 00 00	 jmp	 ??1CGdiObject@@UAE@XZ	; CGdiObject::~CGdiObject
??1CBitmap@@UAE@XZ ENDP					; CBitmap::~CBitmap
_TEXT	ENDS
; Function compile flags: /Ogtp
; File C:\Program Files (x86)\Microsoft Visual Studio\2019\Community\VC\Tools\MSVC\14.29.30133\atlmfc\include\afxwin1.inl
; File C:\Program Files (x86)\Microsoft Visual Studio\2019\Community\VC\Tools\MSVC\14.29.30133\atlmfc\include\afx.inl
;	COMDAT ??_GCBrush@@UAEPAXI@Z
_TEXT	SEGMENT
___flags$ = 8						; size = 4
??_GCBrush@@UAEPAXI@Z PROC				; CBrush::`scalar deleting destructor', COMDAT
; _this$ = ecx
  00000	55		 push	 ebp
  00001	8b ec		 mov	 ebp, esp
; File C:\Program Files (x86)\Microsoft Visual Studio\2019\Community\VC\Tools\MSVC\14.29.30133\atlmfc\include\afxwin1.inl

; 130  : 	{ }

  00003	56		 push	 esi
  00004	8b f1		 mov	 esi, ecx
  00006	c7 06 00 00 00
	00		 mov	 DWORD PTR [esi], OFFSET ??_7CBrush@@6B@
  0000c	e8 00 00 00 00	 call	 ??1CGdiObject@@UAE@XZ	; CGdiObject::~CGdiObject
  00011	8b 45 08	 mov	 eax, DWORD PTR ___flags$[ebp]
  00014	a8 01		 test	 al, 1
  00016	74 1f		 je	 SHORT $LN12@scalar
  00018	a8 04		 test	 al, 4
  0001a	75 10		 jne	 SHORT $LN3@scalar
; File C:\Program Files (x86)\Microsoft Visual Studio\2019\Community\VC\Tools\MSVC\14.29.30133\atlmfc\include\afx.inl

; 112  : 	{ ::operator delete(p); }

  0001c	56		 push	 esi
  0001d	e8 00 00 00 00	 call	 ??3@YAXPAX@Z		; operator delete
  00022	83 c4 04	 add	 esp, 4
  00025	8b c6		 mov	 eax, esi
  00027	5e		 pop	 esi
  00028	5d		 pop	 ebp
  00029	c2 04 00	 ret	 4
$LN3@scalar:
  0002c	6a 08		 push	 8
  0002e	56		 push	 esi
  0002f	e8 00 00 00 00	 call	 ?__global_delete@@YAXPAXI@Z ; __global_delete
  00034	83 c4 08	 add	 esp, 8
$LN12@scalar:
  00037	8b c6		 mov	 eax, esi
  00039	5e		 pop	 esi
  0003a	5d		 pop	 ebp
  0003b	c2 04 00	 ret	 4
??_GCBrush@@UAEPAXI@Z ENDP				; CBrush::`scalar deleting destructor'
_TEXT	ENDS
; Function compile flags: /Ogtp
; File C:\Program Files (x86)\Microsoft Visual Studio\2019\Community\VC\Tools\MSVC\14.29.30133\atlmfc\include\afxwin1.inl
;	COMDAT ??1CBrush@@UAE@XZ
_TEXT	SEGMENT
??1CBrush@@UAE@XZ PROC					; CBrush::~CBrush, COMDAT
; _this$ = ecx

; 130  : 	{ }

  00000	c7 01 00 00 00
	00		 mov	 DWORD PTR [ecx], OFFSET ??_7CBrush@@6B@
  00006	e9 00 00 00 00	 jmp	 ??1CGdiObject@@UAE@XZ	; CGdiObject::~CGdiObject
??1CBrush@@UAE@XZ ENDP					; CBrush::~CBrush
_TEXT	ENDS
; Function compile flags: /Ogtp
; File C:\Program Files (x86)\Microsoft Visual Studio\2019\Community\VC\Tools\MSVC\14.29.30133\atlmfc\include\afx.inl
;	COMDAT ??_GCGdiObject@@UAEPAXI@Z
_TEXT	SEGMENT
___flags$ = 8						; size = 4
??_GCGdiObject@@UAEPAXI@Z PROC				; CGdiObject::`scalar deleting destructor', COMDAT
; _this$ = ecx
  00000	55		 push	 ebp
  00001	8b ec		 mov	 ebp, esp
  00003	56		 push	 esi
  00004	8b f1		 mov	 esi, ecx
  00006	e8 00 00 00 00	 call	 ??1CGdiObject@@UAE@XZ	; CGdiObject::~CGdiObject
  0000b	8b 45 08	 mov	 eax, DWORD PTR ___flags$[ebp]
  0000e	a8 01		 test	 al, 1
  00010	74 1f		 je	 SHORT $LN9@scalar
  00012	a8 04		 test	 al, 4
  00014	75 10		 jne	 SHORT $LN3@scalar

; 112  : 	{ ::operator delete(p); }

  00016	56		 push	 esi
  00017	e8 00 00 00 00	 call	 ??3@YAXPAX@Z		; operator delete
  0001c	83 c4 04	 add	 esp, 4
  0001f	8b c6		 mov	 eax, esi
  00021	5e		 pop	 esi
  00022	5d		 pop	 ebp
  00023	c2 04 00	 ret	 4
$LN3@scalar:
  00026	6a 08		 push	 8
  00028	56		 push	 esi
  00029	e8 00 00 00 00	 call	 ?__global_delete@@YAXPAXI@Z ; __global_delete
  0002e	83 c4 08	 add	 esp, 8
$LN9@scalar:
  00031	8b c6		 mov	 eax, esi
  00033	5e		 pop	 esi
  00034	5d		 pop	 ebp
  00035	c2 04 00	 ret	 4
??_GCGdiObject@@UAEPAXI@Z ENDP				; CGdiObject::`scalar deleting destructor'
_TEXT	ENDS
; Function compile flags: /Ogtp
; File C:\Program Files (x86)\Microsoft Visual Studio\2019\Community\VC\Tools\MSVC\14.29.30133\atlmfc\include\afxwin1.inl
;	COMDAT ??1CGdiObject@@UAE@XZ
_TEXT	SEGMENT
_pException$2 = -540					; size = 4
_strMsg$3 = -536					; size = 4
_szErrorMessage$4 = -532				; size = 512
__$ArrayPad$ = -20					; size = 4
__$EHRec$ = -16						; size = 16
??1CGdiObject@@UAE@XZ PROC				; CGdiObject::~CGdiObject, COMDAT
; _this$ = ecx

; 74   : {

  00000	55		 push	 ebp
  00001	8b ec		 mov	 ebp, esp
  00003	6a ff		 push	 -1
  00005	68 00 00 00 00	 push	 __ehhandler$??1CGdiObject@@UAE@XZ
  0000a	64 a1 00 00 00
	00		 mov	 eax, DWORD PTR fs:0
  00010	50		 push	 eax
  00011	81 ec 10 02 00
	00		 sub	 esp, 528		; 00000210H
  00017	a1 00 00 00 00	 mov	 eax, DWORD PTR ___security_cookie
  0001c	33 c5		 xor	 eax, ebp
  0001e	89 45 ec	 mov	 DWORD PTR __$ArrayPad$[ebp], eax
  00021	53		 push	 ebx
  00022	56		 push	 esi
  00023	57		 push	 edi
  00024	50		 push	 eax
  00025	8d 45 f4	 lea	 eax, DWORD PTR __$EHRec$[ebp+4]
  00028	64 a3 00 00 00
	00		 mov	 DWORD PTR fs:0, eax
  0002e	89 65 f0	 mov	 DWORD PTR __$EHRec$[ebp], esp
  00031	c7 01 00 00 00
	00		 mov	 DWORD PTR [ecx], OFFSET ??_7CGdiObject@@6B@

; 75   : 	AFX_BEGIN_DESTRUCTOR

  00037	c7 45 fc 00 00
	00 00		 mov	 DWORD PTR __$EHRec$[ebp+12], 0

; 76   : 	DeleteObject();

  0003e	e8 00 00 00 00	 call	 ?DeleteObject@CGdiObject@@QAEHXZ ; CGdiObject::DeleteObject
$LN18@CGdiObject:

; 78   : }

  00043	8b 4d f4	 mov	 ecx, DWORD PTR __$EHRec$[ebp+4]
  00046	64 89 0d 00 00
	00 00		 mov	 DWORD PTR fs:0, ecx
  0004d	59		 pop	 ecx
  0004e	5f		 pop	 edi
  0004f	5e		 pop	 esi
  00050	5b		 pop	 ebx
  00051	8b 4d ec	 mov	 ecx, DWORD PTR __$ArrayPad$[ebp]
  00054	33 cd		 xor	 ecx, ebp
  00056	e8 00 00 00 00	 call	 @__security_check_cookie@4
  0005b	8b e5		 mov	 esp, ebp
  0005d	5d		 pop	 ebp
  0005e	c3		 ret	 0
__catch$??1CGdiObject@@UAE@XZ$0:

; 77   : 	AFX_END_DESTRUCTOR

  0005f	8d 8d e8 fd ff
	ff		 lea	 ecx, DWORD PTR _strMsg$3[ebp]
  00065	ff 15 00 00 00
	00		 call	 DWORD PTR __imp_??0?$CStringT@DV?$StrTraitMFC_DLL@DV?$ChTraitsCRT@D@ATL@@@@@ATL@@QAE@XZ
  0006b	8b b5 e4 fd ff
	ff		 mov	 esi, DWORD PTR _pException$2[ebp]
  00071	8d 8d ec fd ff
	ff		 lea	 ecx, DWORD PTR _szErrorMessage$4[ebp]
  00077	6a 00		 push	 0
  00079	68 00 02 00 00	 push	 512			; 00000200H
  0007e	51		 push	 ecx
  0007f	8b 06		 mov	 eax, DWORD PTR [esi]
  00081	8b ce		 mov	 ecx, esi
  00083	c6 45 fc 02	 mov	 BYTE PTR __$EHRec$[ebp+12], 2
  00087	ff 50 14	 call	 DWORD PTR [eax+20]
  0008a	85 c0		 test	 eax, eax
  0008c	74 2a		 je	 SHORT $LN9@CGdiObject
  0008e	8d 85 ec fd ff
	ff		 lea	 eax, DWORD PTR _szErrorMessage$4[ebp]
  00094	50		 push	 eax
  00095	6a 4d		 push	 77			; 0000004dH
  00097	68 00 00 00 00	 push	 OFFSET ??_C@_0HD@JJCHHHNK@C?3?2Program?5Files?5?$CIx86?$CJ?2Microsof@
  0009c	68 00 00 00 00	 push	 OFFSET ??_C@_0BP@OIEOKIDM@Exception?5thrown?5in?5destructor@
  000a1	8d 85 e8 fd ff
	ff		 lea	 eax, DWORD PTR _strMsg$3[ebp]
  000a7	68 00 00 00 00	 push	 OFFSET ??_C@_0BB@HBOOMJBF@?$CFTs?5?$CI?$CFTs?3?$CFd?$CJ?6?$CFTs@
  000ac	50		 push	 eax
  000ad	ff 15 00 00 00
	00		 call	 DWORD PTR __imp_?Format@?$CStringT@DV?$StrTraitMFC_DLL@DV?$ChTraitsCRT@D@ATL@@@@@ATL@@QAAXPBDZZ
  000b3	83 c4 18	 add	 esp, 24			; 00000018H
  000b6	eb 21		 jmp	 SHORT $LN10@CGdiObject
$LN9@CGdiObject:
  000b8	6a 4d		 push	 77			; 0000004dH
  000ba	68 00 00 00 00	 push	 OFFSET ??_C@_0HD@JJCHHHNK@C?3?2Program?5Files?5?$CIx86?$CJ?2Microsof@
  000bf	68 00 00 00 00	 push	 OFFSET ??_C@_0BP@OIEOKIDM@Exception?5thrown?5in?5destructor@
  000c4	8d 85 e8 fd ff
	ff		 lea	 eax, DWORD PTR _strMsg$3[ebp]
  000ca	68 00 00 00 00	 push	 OFFSET ??_C@_0N@OMEMOKLE@?$CFTs?5?$CI?$CFTs?3?$CFd?$CJ@
  000cf	50		 push	 eax
  000d0	ff 15 00 00 00
	00		 call	 DWORD PTR __imp_?Format@?$CStringT@DV?$StrTraitMFC_DLL@DV?$ChTraitsCRT@D@ATL@@@@@ATL@@QAAXPBDZZ
  000d6	83 c4 14	 add	 esp, 20			; 00000014H
$LN10@CGdiObject:
  000d9	6a 00		 push	 0
  000db	6a 00		 push	 0
  000dd	ff b5 e8 fd ff
	ff		 push	 DWORD PTR _strMsg$3[ebp]
  000e3	e8 00 00 00 00	 call	 ?AfxMessageBox@@YGHPBDII@Z ; AfxMessageBox
  000e8	8d 8d e8 fd ff
	ff		 lea	 ecx, DWORD PTR _strMsg$3[ebp]
  000ee	ff 15 00 00 00
	00		 call	 DWORD PTR __imp_??1?$CStringT@DV?$StrTraitMFC_DLL@DV?$ChTraitsCRT@D@ATL@@@@@ATL@@QAE@XZ
  000f4	8b 06		 mov	 eax, DWORD PTR [esi]
  000f6	8b ce		 mov	 ecx, esi
  000f8	6a 01		 push	 1
  000fa	ff 50 04	 call	 DWORD PTR [eax+4]
  000fd	b8 00 00 00 00	 mov	 eax, $LN18@CGdiObject
  00102	c3		 ret	 0
_TEXT	ENDS
;	COMDAT text$x
text$x	SEGMENT
__unwindfunclet$??1CGdiObject@@UAE@XZ$2:
  00000	8d 8d e8 fd ff
	ff		 lea	 ecx, DWORD PTR _strMsg$3[ebp]
  00006	ff 25 00 00 00
	00		 jmp	 DWORD PTR __imp_??1?$CStringT@DV?$StrTraitMFC_DLL@DV?$ChTraitsCRT@D@ATL@@@@@ATL@@QAE@XZ
  0000c	cc		 int	 3
  0000d	cc		 int	 3
  0000e	cc		 int	 3
  0000f	cc		 int	 3
  00010	cc		 int	 3
__ehhandler$??1CGdiObject@@UAE@XZ:
  00011	90		 npad	 1
  00012	90		 npad	 1
  00013	8b 54 24 08	 mov	 edx, DWORD PTR [esp+8]
  00017	8d 42 0c	 lea	 eax, DWORD PTR [edx+12]
  0001a	8b 8a e0 fd ff
	ff		 mov	 ecx, DWORD PTR [edx-544]
  00020	33 c8		 xor	 ecx, eax
  00022	e8 00 00 00 00	 call	 @__security_check_cookie@4
  00027	8b 4a f8	 mov	 ecx, DWORD PTR [edx-8]
  0002a	33 c8		 xor	 ecx, eax
  0002c	e8 00 00 00 00	 call	 @__security_check_cookie@4
  00031	b8 00 00 00 00	 mov	 eax, OFFSET __ehfuncinfo$??1CGdiObject@@UAE@XZ
  00036	e9 00 00 00 00	 jmp	 ___CxxFrameHandler3
text$x	ENDS
??1CGdiObject@@UAE@XZ ENDP				; CGdiObject::~CGdiObject
; Function compile flags: /Ogtp
; File C:\Program Files (x86)\Microsoft Visual Studio\2019\Community\VC\Tools\MSVC\14.29.30133\atlmfc\include\afx.inl
;	COMDAT ?Dump@CObject@@UBEXAAVCDumpContext@@@Z
_TEXT	SEGMENT
___formal$ = 8						; size = 4
?Dump@CObject@@UBEXAAVCDumpContext@@@Z PROC		; CObject::Dump, COMDAT
; _this$ = ecx

; 122  : 	{ /* no dumping in release builds */ }

  00000	c2 04 00	 ret	 4
?Dump@CObject@@UBEXAAVCDumpContext@@@Z ENDP		; CObject::Dump
_TEXT	ENDS
; Function compile flags: /Ogtp
; File C:\Program Files (x86)\Microsoft Visual Studio\2019\Community\VC\Tools\MSVC\14.29.30133\atlmfc\include\afx.inl
;	COMDAT ?AssertValid@CObject@@UBEXXZ
_TEXT	SEGMENT
?AssertValid@CObject@@UBEXXZ PROC			; CObject::AssertValid, COMDAT
; _this$ = ecx

; 120  : 	{ /* no asserts in release builds */ }

  00000	c2 00 00	 ret	 0
?AssertValid@CObject@@UBEXXZ ENDP			; CObject::AssertValid
_TEXT	ENDS
; Function compile flags: /Ogtp
; File C:\Program Files (x86)\Microsoft Visual Studio\2019\Community\VC\Tools\MSVC\14.29.30133\atlmfc\include\afx.inl
;	COMDAT ?Serialize@CObject@@UAEXAAVCArchive@@@Z
_TEXT	SEGMENT
___formal$ = 8						; size = 4
?Serialize@CObject@@UAEXAAVCArchive@@@Z PROC		; CObject::Serialize, COMDAT
; _this$ = ecx

; 106  : 	{ /* CObject does not serialize anything by default */ }

  00000	c2 04 00	 ret	 4
?Serialize@CObject@@UAEXAAVCArchive@@@Z ENDP		; CObject::Serialize
_TEXT	ENDS
; Function compile flags: /Ogtp
; File C:\Program Files (x86)\Microsoft Visual Studio\2019\Community\VC\Tools\MSVC\14.29.30133\atlmfc\include\afx.inl
;	COMDAT ??1CObject@@UAE@XZ
_TEXT	SEGMENT
??1CObject@@UAE@XZ PROC					; CObject::~CObject, COMDAT
; _this$ = ecx

; 104  : 	{ }

  00000	c2 00 00	 ret	 0
??1CObject@@UAE@XZ ENDP					; CObject::~CObject
_TEXT	ENDS
; Function compile flags: /Ogtp
; File D:\git\src\IBK\IBK_DRFN\ProjSrc\SrcChartEx\ChartOCX\ChartToolBar\ImageComboBox.cpp
;	COMDAT ?__empty_global_delete@@YAXPAXI@Z
_TEXT	SEGMENT
___formal$ = 8						; size = 4
___formal$ = 12						; size = 4
?__empty_global_delete@@YAXPAXI@Z PROC			; __empty_global_delete, COMDAT

  00000	c2 00 00	 ret	 0
?__empty_global_delete@@YAXPAXI@Z ENDP			; __empty_global_delete
_TEXT	ENDS
; Function compile flags: /Ogtp
; File D:\git\src\IBK\IBK_DRFN\ProjSrc\SrcChartEx\ChartOCX\ChartToolBar\ImageComboBox.cpp
;	COMDAT ?__empty_global_delete@@YAXPAX@Z
_TEXT	SEGMENT
___formal$ = 8						; size = 4
?__empty_global_delete@@YAXPAX@Z PROC			; __empty_global_delete, COMDAT

  00000	c2 00 00	 ret	 0
?__empty_global_delete@@YAXPAX@Z ENDP			; __empty_global_delete
_TEXT	ENDS
END
