; Listing generated by Microsoft (R) Optimizing Compiler Version 19.29.30145.0 

	TITLE	D:\git\src\IBK\IBK_DRFN\#DRfn-CS\_Obj\ChartToolBar\RadarControl.obj
	.686P
	.XMM
	include listing.inc
	.model	flat

INCLUDELIB MSVCRT
INCLUDELIB OLDNAMES

PUBLIC	?__empty_global_delete@@YAXPAX@Z		; __empty_global_delete
PUBLIC	?__empty_global_delete@@YAXPAXI@Z		; __empty_global_delete
PUBLIC	??3CObject@@SGXPAX@Z				; CObject::operator delete
PUBLIC	??0CRadarControl@@QAE@XZ			; CRadarControl::CRadarControl
PUBLIC	??1CRadarControl@@UAE@XZ			; CRadarControl::~CRadarControl
PUBLIC	?SetDataViewInfo@CRadarControl@@QAEXHHHH@Z	; CRadarControl::SetDataViewInfo
PUBLIC	?OnToolBarPositionChanged@CRadarControl@@QAEXVCRect@@@Z ; CRadarControl::OnToolBarPositionChanged
PUBLIC	?Create@CRadarControl@@QAE_NPAVCWnd@@I@Z	; CRadarControl::Create
PUBLIC	??_GCRadarControl@@UAEPAXI@Z			; CRadarControl::`scalar deleting destructor'
PUBLIC	??_C@_00CNPNBAHC@@				; `string'
PUBLIC	??_7CRadarControl@@6B@				; CRadarControl::`vftable'
PUBLIC	??_C@_05EMNNHGFM@radar@				; `string'
PUBLIC	??_R4CRadarControl@@6B@				; CRadarControl::`RTTI Complete Object Locator'
PUBLIC	??_R0?AVCRadarControl@@@8			; CRadarControl `RTTI Type Descriptor'
PUBLIC	??_R3CRadarControl@@8				; CRadarControl::`RTTI Class Hierarchy Descriptor'
PUBLIC	??_R2CRadarControl@@8				; CRadarControl::`RTTI Base Class Array'
PUBLIC	??_R1A@?0A@EA@CRadarControl@@8			; CRadarControl::`RTTI Base Class Descriptor at (0,-1,0,64)'
EXTRN	??2@YAPAXI@Z:PROC				; operator new
EXTRN	??3@YAXPAX@Z:PROC				; operator delete
EXTRN	??3@YAXPAXI@Z:PROC				; operator delete
EXTRN	__imp__SendMessageA@16:PROC
EXTRN	__imp__GetClientRect@8:PROC
EXTRN	__imp__InflateRect@12:PROC
EXTRN	__imp_??0?$CStringT@DV?$StrTraitMFC_DLL@DV?$ChTraitsCRT@D@ATL@@@@@ATL@@QAE@PBD@Z:PROC
EXTRN	__imp_??1?$CStringT@DV?$StrTraitMFC_DLL@DV?$ChTraitsCRT@D@ATL@@@@@ATL@@QAE@XZ:PROC
EXTRN	?MoveWindow@CWnd@@QAEXHHHHH@Z:PROC		; CWnd::MoveWindow
EXTRN	??_ECRadarControl@@UAEPAXI@Z:PROC		; CRadarControl::`vector deleting destructor'
EXTRN	??0CToolStatic@@QAE@XZ:PROC			; CToolStatic::CToolStatic
EXTRN	??0CRadar@@QAE@PAUIChartCtrl@@@Z:PROC		; CRadar::CRadar
EXTRN	?SetData@CRadar@@QAEXPAVCPacketList@@PAVCPacketListManager@@PAVCXScaleManager@@AAV?$CStringT@DV?$StrTraitMFC_DLL@DV?$ChTraitsCRT@D@ATL@@@@@ATL@@@Z:PROC ; CRadar::SetData
EXTRN	?SetDataViewInfo@CRadar@@QAEXHHHH@Z:PROC	; CRadar::SetDataViewInfo
EXTRN	?IsWholeView@CToolBarDlg@@QAE_NXZ:PROC		; CToolBarDlg::IsWholeView
EXTRN	?GetPacketList@CToolBarDlg@@QAEPAVCPacketList@@XZ:PROC ; CToolBarDlg::GetPacketList
EXTRN	?GetPacketListManager@CToolBarDlg@@QAEPAVCPacketListManager@@XZ:PROC ; CToolBarDlg::GetPacketListManager
EXTRN	?GetXScaleManager@CToolBarDlg@@QAEPAVCXScaleManager@@XZ:PROC ; CToolBarDlg::GetXScaleManager
EXTRN	?GetResourceFont@CToolBarDlg@@QAEPAVCFont@@XZ:PROC ; CToolBarDlg::GetResourceFont
EXTRN	@__security_check_cookie@4:PROC
EXTRN	___CxxFrameHandler3:PROC
EXTRN	??_7type_info@@6B@:QWORD			; type_info::`vftable'
EXTRN	?g_iMetaTable@@3VIMetaTable@@A:BYTE		; g_iMetaTable
EXTRN	___security_cookie:DWORD
;	COMDAT ??_R1A@?0A@EA@CRadarControl@@8
rdata$r	SEGMENT
??_R1A@?0A@EA@CRadarControl@@8 DD FLAT:??_R0?AVCRadarControl@@@8 ; CRadarControl::`RTTI Base Class Descriptor at (0,-1,0,64)'
	DD	00H
	DD	00H
	DD	0ffffffffH
	DD	00H
	DD	040H
	DD	FLAT:??_R3CRadarControl@@8
rdata$r	ENDS
;	COMDAT ??_R2CRadarControl@@8
rdata$r	SEGMENT
??_R2CRadarControl@@8 DD FLAT:??_R1A@?0A@EA@CRadarControl@@8 ; CRadarControl::`RTTI Base Class Array'
rdata$r	ENDS
;	COMDAT ??_R3CRadarControl@@8
rdata$r	SEGMENT
??_R3CRadarControl@@8 DD 00H				; CRadarControl::`RTTI Class Hierarchy Descriptor'
	DD	00H
	DD	01H
	DD	FLAT:??_R2CRadarControl@@8
rdata$r	ENDS
;	COMDAT ??_R0?AVCRadarControl@@@8
data$rs	SEGMENT
??_R0?AVCRadarControl@@@8 DD FLAT:??_7type_info@@6B@	; CRadarControl `RTTI Type Descriptor'
	DD	00H
	DB	'.?AVCRadarControl@@', 00H
data$rs	ENDS
;	COMDAT ??_R4CRadarControl@@6B@
rdata$r	SEGMENT
??_R4CRadarControl@@6B@ DD 00H				; CRadarControl::`RTTI Complete Object Locator'
	DD	00H
	DD	00H
	DD	FLAT:??_R0?AVCRadarControl@@@8
	DD	FLAT:??_R3CRadarControl@@8
rdata$r	ENDS
;	COMDAT ??_C@_05EMNNHGFM@radar@
CONST	SEGMENT
??_C@_05EMNNHGFM@radar@ DB 'radar', 00H			; `string'
CONST	ENDS
;	COMDAT ??_7CRadarControl@@6B@
CONST	SEGMENT
??_7CRadarControl@@6B@ DD FLAT:??_R4CRadarControl@@6B@	; CRadarControl::`vftable'
	DD	FLAT:??_ECRadarControl@@UAEPAXI@Z
CONST	ENDS
;	COMDAT ??_C@_00CNPNBAHC@@
CONST	SEGMENT
??_C@_00CNPNBAHC@@ DB 00H				; `string'
CONST	ENDS
;	COMDAT xdata$x
xdata$x	SEGMENT
__unwindtable$?Create@CRadarControl@@QAE_NPAVCWnd@@I@Z DD 0ffffffffH
	DD	FLAT:__unwindfunclet$?Create@CRadarControl@@QAE_NPAVCWnd@@I@Z$0
	DD	0ffffffffH
	DD	FLAT:__unwindfunclet$?Create@CRadarControl@@QAE_NPAVCWnd@@I@Z$1
	DD	01H
	DD	FLAT:__unwindfunclet$?Create@CRadarControl@@QAE_NPAVCWnd@@I@Z$2
__ehfuncinfo$?Create@CRadarControl@@QAE_NPAVCWnd@@I@Z DD 019930522H
	DD	03H
	DD	FLAT:__unwindtable$?Create@CRadarControl@@QAE_NPAVCWnd@@I@Z
	DD	2 DUP(00H)
	DD	2 DUP(00H)
	DD	00H
	DD	01H
xdata$x	ENDS
; Function compile flags: /Ogtp
; File D:\git\src\IBK\IBK_DRFN\ProjSrc\SrcChartEx\ChartOCX\ChartToolBar\RadarControl.cpp
;	COMDAT ??_GCRadarControl@@UAEPAXI@Z
_TEXT	SEGMENT
___flags$ = 8						; size = 4
??_GCRadarControl@@UAEPAXI@Z PROC			; CRadarControl::`scalar deleting destructor', COMDAT
; _this$ = ecx
  00000	55		 push	 ebp
  00001	8b ec		 mov	 ebp, esp

; 44   : {

  00003	56		 push	 esi
  00004	8b f1		 mov	 esi, ecx

; 45   : 	// 1. Radar Button Window를 제거한다.
; 46   : 	if( m_radar)

  00006	8b 4e 08	 mov	 ecx, DWORD PTR [esi+8]
  00009	c7 06 00 00 00
	00		 mov	 DWORD PTR [esi], OFFSET ??_7CRadarControl@@6B@
  0000f	85 c9		 test	 ecx, ecx
  00011	74 0e		 je	 SHORT $LN5@scalar

; 47   : 	{
; 48   : 		delete m_radar;

  00013	8b 01		 mov	 eax, DWORD PTR [ecx]
  00015	6a 01		 push	 1
  00017	ff 50 04	 call	 DWORD PTR [eax+4]

; 49   : 		m_radar = NULL;

  0001a	c7 46 08 00 00
	00 00		 mov	 DWORD PTR [esi+8], 0
$LN5@scalar:

; 50   : 	}
; 51   : 	// 2. Radar Button Window를 제거한다.
; 52   : 	if( m_static)

  00021	8b 4e 0c	 mov	 ecx, DWORD PTR [esi+12]
  00024	85 c9		 test	 ecx, ecx
  00026	74 0e		 je	 SHORT $LN6@scalar

; 53   : 	{
; 54   : 		delete m_static;

  00028	8b 01		 mov	 eax, DWORD PTR [ecx]
  0002a	6a 01		 push	 1
  0002c	ff 50 04	 call	 DWORD PTR [eax+4]

; 55   : 		m_static = NULL;

  0002f	c7 46 0c 00 00
	00 00		 mov	 DWORD PTR [esi+12], 0
$LN6@scalar:
  00036	f6 45 08 01	 test	 BYTE PTR ___flags$[ebp], 1
  0003a	74 0b		 je	 SHORT $LN12@scalar
  0003c	6a 24		 push	 36			; 00000024H
  0003e	56		 push	 esi
  0003f	e8 00 00 00 00	 call	 ??3@YAXPAXI@Z		; operator delete
  00044	83 c4 08	 add	 esp, 8
$LN12@scalar:
  00047	8b c6		 mov	 eax, esi
  00049	5e		 pop	 esi
  0004a	5d		 pop	 ebp
  0004b	c2 04 00	 ret	 4
??_GCRadarControl@@UAEPAXI@Z ENDP			; CRadarControl::`scalar deleting destructor'
_TEXT	ENDS
; Function compile flags: /Ogtp
; File D:\git\src\IBK\IBK_DRFN\ProjSrc\SrcChartEx\ChartOCX\ChartToolBar\RadarControl.cpp
; File C:\Program Files (x86)\Microsoft Visual Studio\2019\Community\VC\Tools\MSVC\14.29.30133\atlmfc\include\afxwin2.inl
; File C:\Program Files (x86)\Microsoft Visual Studio\2019\Community\VC\Tools\MSVC\14.29.30133\atlmfc\include\atltypes.h
; File C:\Program Files (x86)\Microsoft Visual Studio\2019\Community\VC\Tools\MSVC\14.29.30133\atlmfc\include\afxwin2.inl
; File D:\git\src\IBK\IBK_DRFN\ProjSrc\SrcChartEx\ChartOCX\ChartToolBar\RadarControl.cpp
; File C:\Program Files (x86)\Microsoft Visual Studio\2019\Community\VC\Tools\MSVC\14.29.30133\atlmfc\include\afx.inl
; File D:\git\src\IBK\IBK_DRFN\ProjSrc\SrcChartEx\ChartOCX\ChartToolBar\RadarControl.cpp
; File C:\Program Files (x86)\Microsoft Visual Studio\2019\Community\VC\Tools\MSVC\14.29.30133\atlmfc\include\afx.inl
; File D:\git\src\IBK\IBK_DRFN\ProjSrc\SrcChartEx\ChartOCX\ChartToolBar\RadarControl.cpp
; File C:\Program Files (x86)\Microsoft Visual Studio\2019\Community\VC\Tools\MSVC\14.29.30133\atlmfc\include\atltypes.h
; File D:\git\src\IBK\IBK_DRFN\ProjSrc\SrcChartEx\ChartOCX\ChartToolBar\RadarControl.cpp
; File C:\Program Files (x86)\Microsoft Visual Studio\2019\Community\VC\Tools\MSVC\14.29.30133\atlmfc\include\atltypes.h
; File C:\Program Files (x86)\Microsoft Visual Studio\2019\Community\VC\Tools\MSVC\14.29.30133\atlmfc\include\afx.inl
; File D:\git\src\IBK\IBK_DRFN\ProjSrc\SrcChartEx\ChartOCX\ChartToolBar\RadarControl.cpp
; File C:\Program Files (x86)\Microsoft Visual Studio\2019\Community\VC\Tools\MSVC\14.29.30133\atlmfc\include\afxwin1.inl
; File C:\Program Files (x86)\Microsoft Visual Studio\2019\Community\VC\Tools\MSVC\14.29.30133\atlmfc\include\afxwin2.inl
; File D:\git\src\IBK\IBK_DRFN\ProjSrc\SrcChartEx\ChartOCX\ChartToolBar\RadarControl.cpp
;	COMDAT ?Create@CRadarControl@@QAE_NPAVCWnd@@I@Z
_TEXT	SEGMENT
$T2 = -56						; size = 4
$T3 = -56						; size = 4
_name$ = -52						; size = 4
_rectToolClient$ = -48					; size = 16
_rectRadarItem$ = -32					; size = 16
__$ArrayPad$ = -16					; size = 4
__$EHRec$ = -12						; size = 12
_pParent$ = 8						; size = 4
_nID$ = 12						; size = 4
?Create@CRadarControl@@QAE_NPAVCWnd@@I@Z PROC		; CRadarControl::Create, COMDAT
; _this$ = ecx

; 237  : {

  00000	55		 push	 ebp
  00001	8b ec		 mov	 ebp, esp
  00003	6a ff		 push	 -1
  00005	68 00 00 00 00	 push	 __ehhandler$?Create@CRadarControl@@QAE_NPAVCWnd@@I@Z
  0000a	64 a1 00 00 00
	00		 mov	 eax, DWORD PTR fs:0
  00010	50		 push	 eax
  00011	83 ec 2c	 sub	 esp, 44			; 0000002cH
  00014	a1 00 00 00 00	 mov	 eax, DWORD PTR ___security_cookie
  00019	33 c5		 xor	 eax, ebp
  0001b	89 45 f0	 mov	 DWORD PTR __$ArrayPad$[ebp], eax
  0001e	56		 push	 esi
  0001f	57		 push	 edi
  00020	50		 push	 eax
  00021	8d 45 f4	 lea	 eax, DWORD PTR __$EHRec$[ebp]
  00024	64 a3 00 00 00
	00		 mov	 DWORD PTR fs:0, eax
  0002a	8b f1		 mov	 esi, ecx
  0002c	8b 7d 08	 mov	 edi, DWORD PTR _pParent$[ebp]
; File C:\Program Files (x86)\Microsoft Visual Studio\2019\Community\VC\Tools\MSVC\14.29.30133\atlmfc\include\afxwin2.inl

; 86   : 	{ ASSERT(::IsWindow(m_hWnd)); ::GetClientRect(m_hWnd, lpRect); }

  0002f	8d 45 d0	 lea	 eax, DWORD PTR _rectToolClient$[ebp]
  00032	50		 push	 eax
  00033	0f 57 c0	 xorps	 xmm0, xmm0
; File C:\Program Files (x86)\Microsoft Visual Studio\2019\Community\VC\Tools\MSVC\14.29.30133\atlmfc\include\atltypes.h

; 528  : 	left = 0;

  00036	0f 11 45 d0	 movups	 XMMWORD PTR _rectToolClient$[ebp], xmm0
; File C:\Program Files (x86)\Microsoft Visual Studio\2019\Community\VC\Tools\MSVC\14.29.30133\atlmfc\include\afxwin2.inl

; 86   : 	{ ASSERT(::IsWindow(m_hWnd)); ::GetClientRect(m_hWnd, lpRect); }

  0003a	ff 77 20	 push	 DWORD PTR [edi+32]
  0003d	ff 15 00 00 00
	00		 call	 DWORD PTR __imp__GetClientRect@8
; File D:\git\src\IBK\IBK_DRFN\ProjSrc\SrcChartEx\ChartOCX\ChartToolBar\RadarControl.cpp

; 242  : 	CRect rectRadarItem(rectToolClient);

  00043	0f 10 45 d0	 movups	 xmm0, XMMWORD PTR _rectToolClient$[ebp]
; File C:\Program Files (x86)\Microsoft Visual Studio\2019\Community\VC\Tools\MSVC\14.29.30133\atlmfc\include\afx.inl

; 116  : 	{ return ::operator new(nSize); }

  00047	68 08 01 00 00	 push	 264			; 00000108H
; File D:\git\src\IBK\IBK_DRFN\ProjSrc\SrcChartEx\ChartOCX\ChartToolBar\RadarControl.cpp

; 242  : 	CRect rectRadarItem(rectToolClient);

  0004c	0f 11 45 e0	 movups	 XMMWORD PTR _rectRadarItem$[ebp], xmm0

; 243  : 	rectRadarItem.top = rectRadarItem.bottom - TB_RADAR_HEIGHT;
; 244  : 	rectRadarItem.right -= TB_RADAR_STATIC_WIDTH;

  00050	83 6d e8 78	 sub	 DWORD PTR _rectRadarItem$[ebp+8], 120 ; 00000078H
  00054	66 0f 73 d8 0c	 psrldq	 xmm0, 12		; 0000000cH
  00059	66 0f 7e c0	 movd	 eax, xmm0
  0005d	83 c0 e2	 add	 eax, -30		; ffffffe2H
  00060	89 45 e4	 mov	 DWORD PTR _rectRadarItem$[ebp+4], eax
; File C:\Program Files (x86)\Microsoft Visual Studio\2019\Community\VC\Tools\MSVC\14.29.30133\atlmfc\include\afx.inl

; 116  : 	{ return ::operator new(nSize); }

  00063	e8 00 00 00 00	 call	 ??2@YAPAXI@Z		; operator new
  00068	83 c4 04	 add	 esp, 4
; File D:\git\src\IBK\IBK_DRFN\ProjSrc\SrcChartEx\ChartOCX\ChartToolBar\RadarControl.cpp

; 246  : 	m_radar = new CRadar( m_pIChartCtrl);

  0006b	89 45 c8	 mov	 DWORD PTR $T3[ebp], eax
  0006e	c7 45 fc 00 00
	00 00		 mov	 DWORD PTR __$EHRec$[ebp+8], 0
  00075	85 c0		 test	 eax, eax
  00077	74 0e		 je	 SHORT $LN3@Create
  00079	ff 76 20	 push	 DWORD PTR [esi+32]
  0007c	8b c8		 mov	 ecx, eax
  0007e	e8 00 00 00 00	 call	 ??0CRadar@@QAE@PAUIChartCtrl@@@Z ; CRadar::CRadar
  00083	8b c8		 mov	 ecx, eax
  00085	eb 02		 jmp	 SHORT $LN4@Create
$LN3@Create:
  00087	33 c9		 xor	 ecx, ecx
$LN4@Create:

; 247  : 	m_radar->Create( NULL, "radar", WS_CHILD|WS_VISIBLE|BS_FLAT|BS_OWNERDRAW, rectRadarItem, pParent, nID);

  00089	6a 00		 push	 0
  0008b	ff 75 0c	 push	 DWORD PTR _nID$[ebp]
  0008e	8d 55 e0	 lea	 edx, DWORD PTR _rectRadarItem$[ebp]
  00091	89 4e 08	 mov	 DWORD PTR [esi+8], ecx
  00094	8b 01		 mov	 eax, DWORD PTR [ecx]
  00096	57		 push	 edi
  00097	52		 push	 edx
  00098	68 0b 80 00 50	 push	 1342210059		; 5000800bH
  0009d	68 00 00 00 00	 push	 OFFSET ??_C@_05EMNNHGFM@radar@
  000a2	6a 00		 push	 0
  000a4	c7 45 fc ff ff
	ff ff		 mov	 DWORD PTR __$EHRec$[ebp+8], -1
  000ab	ff 50 5c	 call	 DWORD PTR [eax+92]

; 248  : 	CString name = _MTEXT( C0_CLOSE);

  000ae	a1 54 00 00 00	 mov	 eax, DWORD PTR ?g_iMetaTable@@3VIMetaTable@@A+84
  000b3	8d 4d cc	 lea	 ecx, DWORD PTR _name$[ebp]
  000b6	ff 70 14	 push	 DWORD PTR [eax+20]
  000b9	ff 15 00 00 00
	00		 call	 DWORD PTR __imp_??0?$CStringT@DV?$StrTraitMFC_DLL@DV?$ChTraitsCRT@D@ATL@@@@@ATL@@QAE@PBD@Z

; 249  : 
; 250  : 	CToolBarDlg* pToolBarDlg = (CToolBarDlg*)pParent;
; 251  : 	m_radar->SetData(pToolBarDlg->GetPacketList(), pToolBarDlg->GetPacketListManager(), pToolBarDlg->GetXScaleManager(), name);

  000bf	8d 45 cc	 lea	 eax, DWORD PTR _name$[ebp]
  000c2	c7 45 fc 01 00
	00 00		 mov	 DWORD PTR __$EHRec$[ebp+8], 1
  000c9	50		 push	 eax
  000ca	8b cf		 mov	 ecx, edi
  000cc	e8 00 00 00 00	 call	 ?GetXScaleManager@CToolBarDlg@@QAEPAVCXScaleManager@@XZ ; CToolBarDlg::GetXScaleManager
  000d1	50		 push	 eax
  000d2	8b cf		 mov	 ecx, edi
  000d4	e8 00 00 00 00	 call	 ?GetPacketListManager@CToolBarDlg@@QAEPAVCPacketListManager@@XZ ; CToolBarDlg::GetPacketListManager
  000d9	50		 push	 eax
  000da	8b cf		 mov	 ecx, edi
  000dc	e8 00 00 00 00	 call	 ?GetPacketList@CToolBarDlg@@QAEPAVCPacketList@@XZ ; CToolBarDlg::GetPacketList
  000e1	8b 4e 08	 mov	 ecx, DWORD PTR [esi+8]
  000e4	50		 push	 eax
  000e5	e8 00 00 00 00	 call	 ?SetData@CRadar@@QAEXPAVCPacketList@@PAVCPacketListManager@@PAVCXScaleManager@@AAV?$CStringT@DV?$StrTraitMFC_DLL@DV?$ChTraitsCRT@D@ATL@@@@@ATL@@@Z ; CRadar::SetData

; 252  : 
; 253  : 	// 2. Radar Static 생성.
; 254  : 	rectRadarItem.left = rectRadarItem.right;

  000ea	8b 45 e8	 mov	 eax, DWORD PTR _rectRadarItem$[ebp+8]
  000ed	89 45 e0	 mov	 DWORD PTR _rectRadarItem$[ebp], eax

; 255  : 	rectRadarItem.right = rectToolClient.right;

  000f0	8b 45 d8	 mov	 eax, DWORD PTR _rectToolClient$[ebp+8]
; File C:\Program Files (x86)\Microsoft Visual Studio\2019\Community\VC\Tools\MSVC\14.29.30133\atlmfc\include\atltypes.h

; 698  : 	::InflateRect(this, -x, -y);

  000f3	6a fc		 push	 -4			; fffffffcH
; File D:\git\src\IBK\IBK_DRFN\ProjSrc\SrcChartEx\ChartOCX\ChartToolBar\RadarControl.cpp

; 255  : 	rectRadarItem.right = rectToolClient.right;

  000f5	89 45 e8	 mov	 DWORD PTR _rectRadarItem$[ebp+8], eax
; File C:\Program Files (x86)\Microsoft Visual Studio\2019\Community\VC\Tools\MSVC\14.29.30133\atlmfc\include\atltypes.h

; 698  : 	::InflateRect(this, -x, -y);

  000f8	8d 45 e0	 lea	 eax, DWORD PTR _rectRadarItem$[ebp]
  000fb	6a 00		 push	 0
  000fd	50		 push	 eax
  000fe	ff 15 00 00 00
	00		 call	 DWORD PTR __imp__InflateRect@12
; File C:\Program Files (x86)\Microsoft Visual Studio\2019\Community\VC\Tools\MSVC\14.29.30133\atlmfc\include\afx.inl

; 116  : 	{ return ::operator new(nSize); }

  00104	68 80 00 00 00	 push	 128			; 00000080H
  00109	e8 00 00 00 00	 call	 ??2@YAPAXI@Z		; operator new
  0010e	83 c4 04	 add	 esp, 4
; File D:\git\src\IBK\IBK_DRFN\ProjSrc\SrcChartEx\ChartOCX\ChartToolBar\RadarControl.cpp

; 258  : 	m_static = new CToolStatic();

  00111	89 45 c8	 mov	 DWORD PTR $T2[ebp], eax
  00114	c6 45 fc 02	 mov	 BYTE PTR __$EHRec$[ebp+8], 2
  00118	85 c0		 test	 eax, eax
  0011a	74 0b		 je	 SHORT $LN5@Create
  0011c	8b c8		 mov	 ecx, eax
  0011e	e8 00 00 00 00	 call	 ??0CToolStatic@@QAE@XZ	; CToolStatic::CToolStatic
  00123	8b c8		 mov	 ecx, eax
  00125	eb 02		 jmp	 SHORT $LN6@Create
$LN5@Create:
  00127	33 c9		 xor	 ecx, ecx
$LN6@Create:

; 259  : 	m_static->Create(_T(""), WS_CHILD|WS_VISIBLE|SS_CENTER, rectRadarItem, pParent);

  00129	68 ff ff 00 00	 push	 65535			; 0000ffffH
  0012e	57		 push	 edi
  0012f	8d 55 e0	 lea	 edx, DWORD PTR _rectRadarItem$[ebp]
  00132	89 4e 0c	 mov	 DWORD PTR [esi+12], ecx
  00135	8b 01		 mov	 eax, DWORD PTR [ecx]
  00137	52		 push	 edx
  00138	68 01 00 00 50	 push	 1342177281		; 50000001H
  0013d	68 00 00 00 00	 push	 OFFSET ??_C@_00CNPNBAHC@@
  00142	c6 45 fc 01	 mov	 BYTE PTR __$EHRec$[ebp+8], 1
  00146	ff 90 6c 01 00
	00		 call	 DWORD PTR [eax+364]

; 260  : 	m_static->SetFont(((CToolBarDlg*)pParent)->GetResourceFont());

  0014c	8b cf		 mov	 ecx, edi
  0014e	e8 00 00 00 00	 call	 ?GetResourceFont@CToolBarDlg@@QAEPAVCFont@@XZ ; CToolBarDlg::GetResourceFont
  00153	8b 4e 0c	 mov	 ecx, DWORD PTR [esi+12]
; File C:\Program Files (x86)\Microsoft Visual Studio\2019\Community\VC\Tools\MSVC\14.29.30133\atlmfc\include\afxwin1.inl

; 68   : 	{ return this == NULL ? NULL : m_hObject; }

  00156	85 c0		 test	 eax, eax
  00158	74 03		 je	 SHORT $LN25@Create
$LN24@Create:
  0015a	8b 40 04	 mov	 eax, DWORD PTR [eax+4]
$LN25@Create:
; File C:\Program Files (x86)\Microsoft Visual Studio\2019\Community\VC\Tools\MSVC\14.29.30133\atlmfc\include\afxwin2.inl

; 43   : 	{ ASSERT(::IsWindow(m_hWnd)); ::SendMessage(m_hWnd, WM_SETFONT, (WPARAM)pFont->GetSafeHandle(), bRedraw); }

  0015d	6a 01		 push	 1
  0015f	50		 push	 eax
  00160	6a 30		 push	 48			; 00000030H
  00162	ff 71 20	 push	 DWORD PTR [ecx+32]
  00165	ff 15 00 00 00
	00		 call	 DWORD PTR __imp__SendMessageA@16
; File D:\git\src\IBK\IBK_DRFN\ProjSrc\SrcChartEx\ChartOCX\ChartToolBar\RadarControl.cpp

; 263  : 	m_radar->SetRadarStatus(m_static);

  0016b	8b 56 08	 mov	 edx, DWORD PTR [esi+8]

; 264  : 
; 265  : 	m_radar->SetDataViewInfo(m_nDataSize, m_nDataStartIndex, m_nOnePageDataCount, ((CToolBarDlg*)pParent)->IsWholeView());

  0016e	8b cf		 mov	 ecx, edi
  00170	8b 46 0c	 mov	 eax, DWORD PTR [esi+12]
  00173	89 82 80 00 00
	00		 mov	 DWORD PTR [edx+128], eax
  00179	e8 00 00 00 00	 call	 ?IsWholeView@CToolBarDlg@@QAE_NXZ ; CToolBarDlg::IsWholeView
  0017e	8b 4e 08	 mov	 ecx, DWORD PTR [esi+8]
  00181	0f b6 c0	 movzx	 eax, al
  00184	50		 push	 eax
  00185	ff 76 1c	 push	 DWORD PTR [esi+28]
  00188	ff 76 18	 push	 DWORD PTR [esi+24]
  0018b	ff 76 14	 push	 DWORD PTR [esi+20]
  0018e	e8 00 00 00 00	 call	 ?SetDataViewInfo@CRadar@@QAEXHHHH@Z ; CRadar::SetDataViewInfo

; 266  : 	
; 267  : 	return true;

  00193	8d 4d cc	 lea	 ecx, DWORD PTR _name$[ebp]
  00196	ff 15 00 00 00
	00		 call	 DWORD PTR __imp_??1?$CStringT@DV?$StrTraitMFC_DLL@DV?$ChTraitsCRT@D@ATL@@@@@ATL@@QAE@XZ
  0019c	b0 01		 mov	 al, 1

; 268  : }

  0019e	8b 4d f4	 mov	 ecx, DWORD PTR __$EHRec$[ebp]
  001a1	64 89 0d 00 00
	00 00		 mov	 DWORD PTR fs:0, ecx
  001a8	59		 pop	 ecx
  001a9	5f		 pop	 edi
  001aa	5e		 pop	 esi
  001ab	8b 4d f0	 mov	 ecx, DWORD PTR __$ArrayPad$[ebp]
  001ae	33 cd		 xor	 ecx, ebp
  001b0	e8 00 00 00 00	 call	 @__security_check_cookie@4
  001b5	8b e5		 mov	 esp, ebp
  001b7	5d		 pop	 ebp
  001b8	c2 08 00	 ret	 8
_TEXT	ENDS
;	COMDAT text$x
text$x	SEGMENT
__unwindfunclet$?Create@CRadarControl@@QAE_NPAVCWnd@@I@Z$0:
  00000	8b 45 c8	 mov	 eax, DWORD PTR $T3[ebp]
  00003	50		 push	 eax
  00004	e8 00 00 00 00	 call	 ??3CObject@@SGXPAX@Z	; CObject::operator delete
  00009	c3		 ret	 0
__unwindfunclet$?Create@CRadarControl@@QAE_NPAVCWnd@@I@Z$1:
  0000a	8d 4d cc	 lea	 ecx, DWORD PTR _name$[ebp]
  0000d	ff 25 00 00 00
	00		 jmp	 DWORD PTR __imp_??1?$CStringT@DV?$StrTraitMFC_DLL@DV?$ChTraitsCRT@D@ATL@@@@@ATL@@QAE@XZ
__unwindfunclet$?Create@CRadarControl@@QAE_NPAVCWnd@@I@Z$2:
  00013	8b 45 c8	 mov	 eax, DWORD PTR $T2[ebp]
  00016	50		 push	 eax
  00017	e8 00 00 00 00	 call	 ??3CObject@@SGXPAX@Z	; CObject::operator delete
  0001c	c3		 ret	 0
  0001d	cc		 int	 3
  0001e	cc		 int	 3
  0001f	cc		 int	 3
  00020	cc		 int	 3
  00021	cc		 int	 3
__ehhandler$?Create@CRadarControl@@QAE_NPAVCWnd@@I@Z:
  00022	90		 npad	 1
  00023	90		 npad	 1
  00024	8b 54 24 08	 mov	 edx, DWORD PTR [esp+8]
  00028	8d 42 0c	 lea	 eax, DWORD PTR [edx+12]
  0002b	8b 4a c8	 mov	 ecx, DWORD PTR [edx-56]
  0002e	33 c8		 xor	 ecx, eax
  00030	e8 00 00 00 00	 call	 @__security_check_cookie@4
  00035	8b 4a fc	 mov	 ecx, DWORD PTR [edx-4]
  00038	33 c8		 xor	 ecx, eax
  0003a	e8 00 00 00 00	 call	 @__security_check_cookie@4
  0003f	b8 00 00 00 00	 mov	 eax, OFFSET __ehfuncinfo$?Create@CRadarControl@@QAE_NPAVCWnd@@I@Z
  00044	e9 00 00 00 00	 jmp	 ___CxxFrameHandler3
text$x	ENDS
?Create@CRadarControl@@QAE_NPAVCWnd@@I@Z ENDP		; CRadarControl::Create
; Function compile flags: /Ogtp
; File D:\git\src\IBK\IBK_DRFN\ProjSrc\SrcChartEx\ChartOCX\ChartToolBar\RadarControl.cpp
; File C:\Program Files (x86)\Microsoft Visual Studio\2019\Community\VC\Tools\MSVC\14.29.30133\atlmfc\include\afxwin2.inl
; File D:\git\src\IBK\IBK_DRFN\ProjSrc\SrcChartEx\ChartOCX\ChartToolBar\RadarControl.cpp
; File C:\Program Files (x86)\Microsoft Visual Studio\2019\Community\VC\Tools\MSVC\14.29.30133\atlmfc\include\afxwin2.inl
; File D:\git\src\IBK\IBK_DRFN\ProjSrc\SrcChartEx\ChartOCX\ChartToolBar\RadarControl.cpp
; File C:\Program Files (x86)\Microsoft Visual Studio\2019\Community\VC\Tools\MSVC\14.29.30133\atlmfc\include\afxwin2.inl
; File D:\git\src\IBK\IBK_DRFN\ProjSrc\SrcChartEx\ChartOCX\ChartToolBar\RadarControl.cpp
; File C:\Program Files (x86)\Microsoft Visual Studio\2019\Community\VC\Tools\MSVC\14.29.30133\atlmfc\include\atltypes.h
; File D:\git\src\IBK\IBK_DRFN\ProjSrc\SrcChartEx\ChartOCX\ChartToolBar\RadarControl.cpp
; File C:\Program Files (x86)\Microsoft Visual Studio\2019\Community\VC\Tools\MSVC\14.29.30133\atlmfc\include\atltypes.h
; File C:\Program Files (x86)\Microsoft Visual Studio\2019\Community\VC\Tools\MSVC\14.29.30133\atlmfc\include\afxwin2.inl
; File D:\git\src\IBK\IBK_DRFN\ProjSrc\SrcChartEx\ChartOCX\ChartToolBar\RadarControl.cpp
; File C:\Program Files (x86)\Microsoft Visual Studio\2019\Community\VC\Tools\MSVC\14.29.30133\atlmfc\include\afxwin2.inl
; File D:\git\src\IBK\IBK_DRFN\ProjSrc\SrcChartEx\ChartOCX\ChartToolBar\RadarControl.cpp
;	COMDAT ?OnToolBarPositionChanged@CRadarControl@@QAEXVCRect@@@Z
_TEXT	SEGMENT
_rctRadarItem$ = -20					; size = 16
__$ArrayPad$ = -4					; size = 4
_p_rctToolRect$ = 8					; size = 16
?OnToolBarPositionChanged@CRadarControl@@QAEXVCRect@@@Z PROC ; CRadarControl::OnToolBarPositionChanged, COMDAT
; _this$ = ecx

; 208  : {

  00000	55		 push	 ebp
  00001	8b ec		 mov	 ebp, esp
  00003	83 ec 14	 sub	 esp, 20			; 00000014H
  00006	a1 00 00 00 00	 mov	 eax, DWORD PTR ___security_cookie
  0000b	33 c5		 xor	 eax, ebp
  0000d	89 45 fc	 mov	 DWORD PTR __$ArrayPad$[ebp], eax

; 217  : 	rctRadarItem.bottom	= rctRadarItem.top + TB_RADAR_HEIGHT; 

  00010	8b 45 10	 mov	 eax, DWORD PTR _p_rctToolRect$[ebp+8]
  00013	2b 45 08	 sub	 eax, DWORD PTR _p_rctToolRect$[ebp]
  00016	57		 push	 edi
; File C:\Program Files (x86)\Microsoft Visual Studio\2019\Community\VC\Tools\MSVC\14.29.30133\atlmfc\include\afxwin2.inl

; 73   : 	{ MoveWindow(lpRect->left, lpRect->top, lpRect->right - lpRect->left,

  00017	6a 01		 push	 1
  00019	6a 1e		 push	 30			; 0000001eH
; File D:\git\src\IBK\IBK_DRFN\ProjSrc\SrcChartEx\ChartOCX\ChartToolBar\RadarControl.cpp

; 217  : 	rctRadarItem.bottom	= rctRadarItem.top + TB_RADAR_HEIGHT; 

  0001b	83 c0 88	 add	 eax, -120		; ffffff88H
  0001e	c7 45 f0 11 00
	00 00		 mov	 DWORD PTR _rctRadarItem$[ebp+4], 17 ; 00000011H
  00025	8b f9		 mov	 edi, ecx
  00027	c7 45 f8 2f 00
	00 00		 mov	 DWORD PTR _rctRadarItem$[ebp+12], 47 ; 0000002fH
; File C:\Program Files (x86)\Microsoft Visual Studio\2019\Community\VC\Tools\MSVC\14.29.30133\atlmfc\include\afxwin2.inl

; 73   : 	{ MoveWindow(lpRect->left, lpRect->top, lpRect->right - lpRect->left,

  0002e	50		 push	 eax
  0002f	6a 11		 push	 17			; 00000011H
  00031	6a 00		 push	 0
  00033	8b 4f 08	 mov	 ecx, DWORD PTR [edi+8]
; File D:\git\src\IBK\IBK_DRFN\ProjSrc\SrcChartEx\ChartOCX\ChartToolBar\RadarControl.cpp

; 218  : 	rctRadarItem.right -= TB_RADAR_STATIC_WIDTH;

  00036	89 45 f4	 mov	 DWORD PTR _rctRadarItem$[ebp+8], eax
; File C:\Program Files (x86)\Microsoft Visual Studio\2019\Community\VC\Tools\MSVC\14.29.30133\atlmfc\include\afxwin2.inl

; 73   : 	{ MoveWindow(lpRect->left, lpRect->top, lpRect->right - lpRect->left,

  00039	e8 00 00 00 00	 call	 ?MoveWindow@CWnd@@QAEXHHHHH@Z ; CWnd::MoveWindow
; File D:\git\src\IBK\IBK_DRFN\ProjSrc\SrcChartEx\ChartOCX\ChartToolBar\RadarControl.cpp

; 221  : 	rctRadarItem.left	= rctRadarItem.right;

  0003e	8b 45 f4	 mov	 eax, DWORD PTR _rctRadarItem$[ebp+8]
  00041	89 45 ec	 mov	 DWORD PTR _rctRadarItem$[ebp], eax
; File C:\Program Files (x86)\Microsoft Visual Studio\2019\Community\VC\Tools\MSVC\14.29.30133\atlmfc\include\atltypes.h

; 576  : 	return right - left;

  00044	8b 45 10	 mov	 eax, DWORD PTR _p_rctToolRect$[ebp+8]
  00047	2b 45 08	 sub	 eax, DWORD PTR _p_rctToolRect$[ebp]

; 698  : 	::InflateRect(this, -x, -y);

  0004a	6a fc		 push	 -4			; fffffffcH
; File D:\git\src\IBK\IBK_DRFN\ProjSrc\SrcChartEx\ChartOCX\ChartToolBar\RadarControl.cpp

; 222  : 	rctRadarItem.right	= p_rctToolRect.Width();

  0004c	89 45 f4	 mov	 DWORD PTR _rctRadarItem$[ebp+8], eax
; File C:\Program Files (x86)\Microsoft Visual Studio\2019\Community\VC\Tools\MSVC\14.29.30133\atlmfc\include\atltypes.h

; 698  : 	::InflateRect(this, -x, -y);

  0004f	8d 45 ec	 lea	 eax, DWORD PTR _rctRadarItem$[ebp]
  00052	6a 00		 push	 0
  00054	50		 push	 eax
  00055	ff 15 00 00 00
	00		 call	 DWORD PTR __imp__InflateRect@12
; File C:\Program Files (x86)\Microsoft Visual Studio\2019\Community\VC\Tools\MSVC\14.29.30133\atlmfc\include\afxwin2.inl

; 73   : 	{ MoveWindow(lpRect->left, lpRect->top, lpRect->right - lpRect->left,

  0005b	8b 45 f8	 mov	 eax, DWORD PTR _rctRadarItem$[ebp+12]
  0005e	2b 45 f0	 sub	 eax, DWORD PTR _rctRadarItem$[ebp+4]
  00061	8b 55 ec	 mov	 edx, DWORD PTR _rctRadarItem$[ebp]
  00064	8b 4f 0c	 mov	 ecx, DWORD PTR [edi+12]
  00067	6a 01		 push	 1
  00069	50		 push	 eax
  0006a	8b 45 f4	 mov	 eax, DWORD PTR _rctRadarItem$[ebp+8]
  0006d	2b c2		 sub	 eax, edx
  0006f	50		 push	 eax
  00070	ff 75 f0	 push	 DWORD PTR _rctRadarItem$[ebp+4]
  00073	52		 push	 edx
  00074	e8 00 00 00 00	 call	 ?MoveWindow@CWnd@@QAEXHHHHH@Z ; CWnd::MoveWindow
; File D:\git\src\IBK\IBK_DRFN\ProjSrc\SrcChartEx\ChartOCX\ChartToolBar\RadarControl.cpp

; 225  : }

  00079	8b 4d fc	 mov	 ecx, DWORD PTR __$ArrayPad$[ebp]
  0007c	33 cd		 xor	 ecx, ebp
; File C:\Program Files (x86)\Microsoft Visual Studio\2019\Community\VC\Tools\MSVC\14.29.30133\atlmfc\include\afxwin2.inl

; 73   : 	{ MoveWindow(lpRect->left, lpRect->top, lpRect->right - lpRect->left,

  0007e	5f		 pop	 edi
; File D:\git\src\IBK\IBK_DRFN\ProjSrc\SrcChartEx\ChartOCX\ChartToolBar\RadarControl.cpp

; 225  : }

  0007f	e8 00 00 00 00	 call	 @__security_check_cookie@4
  00084	8b e5		 mov	 esp, ebp
  00086	5d		 pop	 ebp
  00087	c2 10 00	 ret	 16			; 00000010H
?OnToolBarPositionChanged@CRadarControl@@QAEXVCRect@@@Z ENDP ; CRadarControl::OnToolBarPositionChanged
_TEXT	ENDS
; Function compile flags: /Ogtp
; File D:\git\src\IBK\IBK_DRFN\ProjSrc\SrcChartEx\ChartOCX\ChartToolBar\RadarControl.cpp
;	COMDAT ?SetDataViewInfo@CRadarControl@@QAEXHHHH@Z
_TEXT	SEGMENT
_nDataSize$ = 8						; size = 4
_nDataStartIndex$ = 12					; size = 4
_nOnePageDataCount$ = 16				; size = 4
_bWholeView$ = 20					; size = 4
?SetDataViewInfo@CRadarControl@@QAEXHHHH@Z PROC		; CRadarControl::SetDataViewInfo, COMDAT
; _this$ = ecx

; 70   : {

  00000	55		 push	 ebp
  00001	8b ec		 mov	 ebp, esp

; 71   : 	// 1. 값의 유효성을 먼저 확인한다.
; 72   : //	if( !m_pMiniToolBarDlg) return;
; 73   : 
; 74   : 	// (2003.12.03, 배승원) Radar Chart에게 전달할 Data View 정보를 관리한다.
; 75   : 	//		(처음 생성시와 Zoom Full Mode가 해제되는 시점에서는 SetDataViewInfo가 호출되지 않아 수동 호출한다.)
; 76   : 	m_nDataSize			= nDataSize;

  00003	8b 45 08	 mov	 eax, DWORD PTR _nDataSize$[ebp]

; 77   : 	m_nDataStartIndex	= nDataStartIndex;

  00006	8b 55 0c	 mov	 edx, DWORD PTR _nDataStartIndex$[ebp]
  00009	56		 push	 esi

; 78   : 	m_nOnePageDataCount	= nOnePageDataCount;

  0000a	8b 75 10	 mov	 esi, DWORD PTR _nOnePageDataCount$[ebp]
  0000d	89 41 14	 mov	 DWORD PTR [ecx+20], eax
  00010	89 51 18	 mov	 DWORD PTR [ecx+24], edx
  00013	89 71 1c	 mov	 DWORD PTR [ecx+28], esi

; 79   : 
; 80   : 	// 2. Radar Chart에게 Data View Info를 전달한다. (이때 Data Size는 0일 수 있다.)
; 81   : 	if( m_radar) m_radar->SetDataViewInfo( nDataSize, nDataStartIndex, nOnePageDataCount, bWholeView);

  00016	8b 49 08	 mov	 ecx, DWORD PTR [ecx+8]
  00019	85 c9		 test	 ecx, ecx
  0001b	74 0b		 je	 SHORT $LN2@SetDataVie
  0001d	ff 75 14	 push	 DWORD PTR _bWholeView$[ebp]
  00020	56		 push	 esi
  00021	52		 push	 edx
  00022	50		 push	 eax
  00023	e8 00 00 00 00	 call	 ?SetDataViewInfo@CRadar@@QAEXHHHH@Z ; CRadar::SetDataViewInfo
$LN2@SetDataVie:
  00028	5e		 pop	 esi

; 82   : }

  00029	5d		 pop	 ebp
  0002a	c2 10 00	 ret	 16			; 00000010H
?SetDataViewInfo@CRadarControl@@QAEXHHHH@Z ENDP		; CRadarControl::SetDataViewInfo
_TEXT	ENDS
; Function compile flags: /Ogtp
; File D:\git\src\IBK\IBK_DRFN\ProjSrc\SrcChartEx\ChartOCX\ChartToolBar\RadarControl.cpp
;	COMDAT ??1CRadarControl@@UAE@XZ
_TEXT	SEGMENT
??1CRadarControl@@UAE@XZ PROC				; CRadarControl::~CRadarControl, COMDAT
; _this$ = ecx

; 44   : {

  00000	56		 push	 esi
  00001	8b f1		 mov	 esi, ecx

; 45   : 	// 1. Radar Button Window를 제거한다.
; 46   : 	if( m_radar)

  00003	8b 4e 08	 mov	 ecx, DWORD PTR [esi+8]
  00006	c7 06 00 00 00
	00		 mov	 DWORD PTR [esi], OFFSET ??_7CRadarControl@@6B@
  0000c	85 c9		 test	 ecx, ecx
  0000e	74 0e		 je	 SHORT $LN2@CRadarCont

; 47   : 	{
; 48   : 		delete m_radar;

  00010	8b 01		 mov	 eax, DWORD PTR [ecx]
  00012	6a 01		 push	 1
  00014	ff 50 04	 call	 DWORD PTR [eax+4]

; 49   : 		m_radar = NULL;

  00017	c7 46 08 00 00
	00 00		 mov	 DWORD PTR [esi+8], 0
$LN2@CRadarCont:

; 50   : 	}
; 51   : 	// 2. Radar Button Window를 제거한다.
; 52   : 	if( m_static)

  0001e	8b 4e 0c	 mov	 ecx, DWORD PTR [esi+12]
  00021	85 c9		 test	 ecx, ecx
  00023	74 0e		 je	 SHORT $LN3@CRadarCont

; 53   : 	{
; 54   : 		delete m_static;

  00025	8b 01		 mov	 eax, DWORD PTR [ecx]
  00027	6a 01		 push	 1
  00029	ff 50 04	 call	 DWORD PTR [eax+4]

; 55   : 		m_static = NULL;

  0002c	c7 46 0c 00 00
	00 00		 mov	 DWORD PTR [esi+12], 0
$LN3@CRadarCont:

; 56   : 	}
; 57   : }

  00033	5e		 pop	 esi
  00034	c3		 ret	 0
??1CRadarControl@@UAE@XZ ENDP				; CRadarControl::~CRadarControl
_TEXT	ENDS
; Function compile flags: /Ogtp
; File D:\git\src\IBK\IBK_DRFN\ProjSrc\SrcChartEx\ChartOCX\ChartToolBar\RadarControl.cpp
;	COMDAT ??0CRadarControl@@QAE@XZ
_TEXT	SEGMENT
??0CRadarControl@@QAE@XZ PROC				; CRadarControl::CRadarControl, COMDAT
; _this$ = ecx

; 27   : {

  00000	c7 01 00 00 00
	00		 mov	 DWORD PTR [ecx], OFFSET ??_7CRadarControl@@6B@

; 28   : //	m_pMiniToolBarDlg = NULL;
; 29   : 	m_bOnRadar = FALSE;
; 30   : 	m_radar = NULL;
; 31   : 	m_static = NULL;
; 32   : 
; 33   : 	// (2003.12.03, 배승원) Radar Chart에게 전달할 Data View 정보를 관리한다.
; 34   : 	//		(처음 생성시와 Zoom Full Mode가 해제되는 시점에서는 SetDataViewInfo가 호출되지 않아 수동 호출한다.)
; 35   : 	m_nDataSize			= 0;
; 36   : 	m_nDataStartIndex	= 0;
; 37   : 	m_nOnePageDataCount	= 1;
; 38   : 
; 39   : 	// (2006/11/18 - Seung-Won, Bae) Notify the User Zoom State to MultiChart
; 40   : 	m_pIChartCtrl = NULL;
; 41   : }

  00006	8b c1		 mov	 eax, ecx
  00008	c7 41 04 00 00
	00 00		 mov	 DWORD PTR [ecx+4], 0
  0000f	c7 41 08 00 00
	00 00		 mov	 DWORD PTR [ecx+8], 0
  00016	c7 41 0c 00 00
	00 00		 mov	 DWORD PTR [ecx+12], 0
  0001d	c7 41 14 00 00
	00 00		 mov	 DWORD PTR [ecx+20], 0
  00024	c7 41 18 00 00
	00 00		 mov	 DWORD PTR [ecx+24], 0
  0002b	c7 41 1c 01 00
	00 00		 mov	 DWORD PTR [ecx+28], 1
  00032	c7 41 20 00 00
	00 00		 mov	 DWORD PTR [ecx+32], 0
  00039	c3		 ret	 0
??0CRadarControl@@QAE@XZ ENDP				; CRadarControl::CRadarControl
_TEXT	ENDS
; Function compile flags: /Ogtp
; File C:\Program Files (x86)\Microsoft Visual Studio\2019\Community\VC\Tools\MSVC\14.29.30133\atlmfc\include\afx.inl
;	COMDAT ??3CObject@@SGXPAX@Z
_TEXT	SEGMENT
_p$ = 8							; size = 4
??3CObject@@SGXPAX@Z PROC				; CObject::operator delete, COMDAT

; 112  : 	{ ::operator delete(p); }

  00000	55		 push	 ebp
  00001	8b ec		 mov	 ebp, esp
  00003	ff 75 08	 push	 DWORD PTR _p$[ebp]
  00006	e8 00 00 00 00	 call	 ??3@YAXPAX@Z		; operator delete
  0000b	83 c4 04	 add	 esp, 4
  0000e	5d		 pop	 ebp
  0000f	c2 04 00	 ret	 4
??3CObject@@SGXPAX@Z ENDP				; CObject::operator delete
_TEXT	ENDS
; Function compile flags: /Ogtp
; File D:\git\src\IBK\IBK_DRFN\ProjSrc\SrcChartEx\ChartOCX\ChartToolBar\RadarControl.cpp
;	COMDAT ?__empty_global_delete@@YAXPAXI@Z
_TEXT	SEGMENT
___formal$ = 8						; size = 4
___formal$ = 12						; size = 4
?__empty_global_delete@@YAXPAXI@Z PROC			; __empty_global_delete, COMDAT

  00000	c2 00 00	 ret	 0
?__empty_global_delete@@YAXPAXI@Z ENDP			; __empty_global_delete
_TEXT	ENDS
; Function compile flags: /Ogtp
; File D:\git\src\IBK\IBK_DRFN\ProjSrc\SrcChartEx\ChartOCX\ChartToolBar\RadarControl.cpp
;	COMDAT ?__empty_global_delete@@YAXPAX@Z
_TEXT	SEGMENT
___formal$ = 8						; size = 4
?__empty_global_delete@@YAXPAX@Z PROC			; __empty_global_delete, COMDAT

  00000	c2 00 00	 ret	 0
?__empty_global_delete@@YAXPAX@Z ENDP			; __empty_global_delete
_TEXT	ENDS
END
