; Listing generated by Microsoft (R) Optimizing Compiler Version 19.29.30145.0 

	TITLE	D:\git\src\IBK\IBK_DRFN\#DRfn-CS\_Obj\ChartToolBar\Radar.obj
	.686P
	.XMM
	include listing.inc
	.model	flat

INCLUDELIB MSVCRT
INCLUDELIB OLDNAMES

PUBLIC	?__empty_global_delete@@YAXPAX@Z		; __empty_global_delete
PUBLIC	?__empty_global_delete@@YAXPAXI@Z		; __empty_global_delete
PUBLIC	??1CObject@@UAE@XZ				; CObject::~CObject
PUBLIC	?Serialize@CObject@@UAEXAAVCArchive@@@Z		; CObject::Serialize
PUBLIC	?AssertValid@CObject@@UBEXXZ			; CObject::AssertValid
PUBLIC	?Dump@CObject@@UBEXAAVCDumpContext@@@Z		; CObject::Dump
PUBLIC	??1CGdiObject@@UAE@XZ				; CGdiObject::~CGdiObject
PUBLIC	??_GCGdiObject@@UAEPAXI@Z			; CGdiObject::`scalar deleting destructor'
PUBLIC	??1CPen@@UAE@XZ					; CPen::~CPen
PUBLIC	??_GCPen@@UAEPAXI@Z				; CPen::`scalar deleting destructor'
PUBLIC	??1CBitmap@@UAE@XZ				; CBitmap::~CBitmap
PUBLIC	??_GCBitmap@@UAEPAXI@Z				; CBitmap::`scalar deleting destructor'
PUBLIC	?DoDataExchange@CWnd@@MAEXPAVCDataExchange@@@Z	; CWnd::DoDataExchange
PUBLIC	?BeginModalState@CWnd@@UAEXXZ			; CWnd::BeginModalState
PUBLIC	?EndModalState@CWnd@@UAEXXZ			; CWnd::EndModalState
PUBLIC	??0CRadar@@QAE@PAUIChartCtrl@@@Z		; CRadar::CRadar
PUBLIC	?OnMouseMove@CRadar@@IAEXIVCPoint@@@Z		; CRadar::OnMouseMove
PUBLIC	?OnLButtonDown@CRadar@@IAEXIVCPoint@@@Z		; CRadar::OnLButtonDown
PUBLIC	?OnLButtonUp@CRadar@@IAEXIVCPoint@@@Z		; CRadar::OnLButtonUp
PUBLIC	?OnPaint@CRadar@@IAEXXZ				; CRadar::OnPaint
PUBLIC	?OnSize@CRadar@@IAEXIHH@Z			; CRadar::OnSize
PUBLIC	?OnSetFocus@CRadar@@IAEXPAVCWnd@@@Z		; CRadar::OnSetFocus
PUBLIC	?GetThisMessageMap@CRadar@@KGPBUAFX_MSGMAP@@XZ	; CRadar::GetThisMessageMap
PUBLIC	?GetMessageMap@CRadar@@MBEPBUAFX_MSGMAP@@XZ	; CRadar::GetMessageMap
PUBLIC	?SetData@CRadar@@QAEXPAVCPacketList@@PAVCPacketListManager@@PAVCXScaleManager@@AAV?$CStringT@DV?$StrTraitMFC_DLL@DV?$ChTraitsCRT@D@ATL@@@@@ATL@@@Z ; CRadar::SetData
PUBLIC	?SetDataViewInfo@CRadar@@QAEXHHHH@Z		; CRadar::SetDataViewInfo
PUBLIC	?DrawDragSelectRectangle@CRadar@@IAEXPAVCDC@@JJPAJ@Z ; CRadar::DrawDragSelectRectangle
PUBLIC	?GetDataIndex@CRadar@@IBEHAAJH@Z		; CRadar::GetDataIndex
PUBLIC	?DrawRectangleInRegion@CRadar@@IBEXPAVCDC@@JJ@Z	; CRadar::DrawRectangleInRegion
PUBLIC	?DrawNewRadarView@CRadar@@QAEXXZ		; CRadar::DrawNewRadarView
PUBLIC	??_GCRadar@@UAEPAXI@Z				; CRadar::`scalar deleting destructor'
PUBLIC	??_R0PAVCException@@@8				; CException * `RTTI Type Descriptor'
PUBLIC	??_C@_00CNPNBAHC@@				; `string'
PUBLIC	??_7CGdiObject@@6B@				; CGdiObject::`vftable'
PUBLIC	??_7CPen@@6B@					; CPen::`vftable'
PUBLIC	??_7CBitmap@@6B@				; CBitmap::`vftable'
PUBLIC	??_C@_0HD@JJCHHHNK@C?3?2Program?5Files?5?$CIx86?$CJ?2Microsof@ ; `string'
PUBLIC	??_C@_0BP@OIEOKIDM@Exception?5thrown?5in?5destructor@ ; `string'
PUBLIC	??_C@_0BB@HBOOMJBF@?$CFTs?5?$CI?$CFTs?3?$CFd?$CJ?6?$CFTs@ ; `string'
PUBLIC	??_C@_0N@OMEMOKLE@?$CFTs?5?$CI?$CFTs?3?$CFd?$CJ@ ; `string'
PUBLIC	??_R0?AVCObject@@@8				; CObject `RTTI Type Descriptor'
PUBLIC	??_R3CObject@@8					; CObject::`RTTI Class Hierarchy Descriptor'
PUBLIC	??_R2CObject@@8					; CObject::`RTTI Base Class Array'
PUBLIC	??_R1A@?0A@EA@CObject@@8			; CObject::`RTTI Base Class Descriptor at (0,-1,0,64)'
PUBLIC	??_R4CGdiObject@@6B@				; CGdiObject::`RTTI Complete Object Locator'
PUBLIC	??_R0?AVCGdiObject@@@8				; CGdiObject `RTTI Type Descriptor'
PUBLIC	??_R3CGdiObject@@8				; CGdiObject::`RTTI Class Hierarchy Descriptor'
PUBLIC	??_R2CGdiObject@@8				; CGdiObject::`RTTI Base Class Array'
PUBLIC	??_R1A@?0A@EA@CGdiObject@@8			; CGdiObject::`RTTI Base Class Descriptor at (0,-1,0,64)'
PUBLIC	??_R4CPen@@6B@					; CPen::`RTTI Complete Object Locator'
PUBLIC	??_R0?AVCPen@@@8				; CPen `RTTI Type Descriptor'
PUBLIC	??_R3CPen@@8					; CPen::`RTTI Class Hierarchy Descriptor'
PUBLIC	??_R2CPen@@8					; CPen::`RTTI Base Class Array'
PUBLIC	??_R1A@?0A@EA@CPen@@8				; CPen::`RTTI Base Class Descriptor at (0,-1,0,64)'
PUBLIC	??_R4CBitmap@@6B@				; CBitmap::`RTTI Complete Object Locator'
PUBLIC	??_R0?AVCBitmap@@@8				; CBitmap `RTTI Type Descriptor'
PUBLIC	??_R3CBitmap@@8					; CBitmap::`RTTI Class Hierarchy Descriptor'
PUBLIC	??_R2CBitmap@@8					; CBitmap::`RTTI Base Class Array'
PUBLIC	??_R1A@?0A@EA@CBitmap@@8			; CBitmap::`RTTI Base Class Descriptor at (0,-1,0,64)'
PUBLIC	??_R1A@?0A@EA@CWnd@@8				; CWnd::`RTTI Base Class Descriptor at (0,-1,0,64)'
PUBLIC	??_R0?AVCWnd@@@8				; CWnd `RTTI Type Descriptor'
PUBLIC	??_R3CWnd@@8					; CWnd::`RTTI Class Hierarchy Descriptor'
PUBLIC	??_R2CWnd@@8					; CWnd::`RTTI Base Class Array'
PUBLIC	??_R1A@?0A@EA@CCmdTarget@@8			; CCmdTarget::`RTTI Base Class Descriptor at (0,-1,0,64)'
PUBLIC	??_R0?AVCCmdTarget@@@8				; CCmdTarget `RTTI Type Descriptor'
PUBLIC	??_R3CCmdTarget@@8				; CCmdTarget::`RTTI Class Hierarchy Descriptor'
PUBLIC	??_R2CCmdTarget@@8				; CCmdTarget::`RTTI Base Class Array'
PUBLIC	??_7CRadar@@6B@					; CRadar::`vftable'
PUBLIC	??_C@_01EEMJAFIK@?6@				; `string'
PUBLIC	??_R4CRadar@@6B@				; CRadar::`RTTI Complete Object Locator'
PUBLIC	??_R0?AVCRadar@@@8				; CRadar `RTTI Type Descriptor'
PUBLIC	??_R3CRadar@@8					; CRadar::`RTTI Class Hierarchy Descriptor'
PUBLIC	??_R2CRadar@@8					; CRadar::`RTTI Base Class Array'
PUBLIC	??_R1A@?0A@EA@CRadar@@8				; CRadar::`RTTI Base Class Descriptor at (0,-1,0,64)'
PUBLIC	__real@0000000000000000
PUBLIC	__real@3fe0000000000000
PUBLIC	__real@4059000000000000
PUBLIC	__xmm@3ff00000000000003ff0000000000000
EXTRN	??3@YAXPAX@Z:PROC				; operator delete
EXTRN	?__global_delete@@YAXPAXI@Z:PROC		; __global_delete
EXTRN	__imp__CreateBitmap@20:PROC
EXTRN	__imp__GetStockObject@4:PROC
EXTRN	__imp__Rectangle@20:PROC
EXTRN	__imp__SelectObject@8:PROC
EXTRN	__imp__SetMapMode@8:PROC
EXTRN	__imp__SetViewportExtEx@16:PROC
EXTRN	__imp__SetViewportOrgEx@16:PROC
EXTRN	__imp__SetWindowOrgEx@16:PROC
EXTRN	__imp__SetBrushOrgEx@16:PROC
EXTRN	__imp__DrawEdge@16:PROC
EXTRN	__imp__SetCapture@4:PROC
EXTRN	__imp__ReleaseCapture@0:PROC
EXTRN	__imp__EnableWindow@8:PROC
EXTRN	__imp__GetDC@4:PROC
EXTRN	__imp__ReleaseDC@8:PROC
EXTRN	__imp__RedrawWindow@16:PROC
EXTRN	__imp__GetClientRect@8:PROC
EXTRN	__imp__InflateRect@12:PROC
EXTRN	__imp__GetParent@4:PROC
EXTRN	__imp_?Concatenate@?$CSimpleStringT@D$00@ATL@@KAXAAV12@PBDH1H@Z:PROC
EXTRN	__imp_??0?$CStringT@DV?$StrTraitMFC_DLL@DV?$ChTraitsCRT@D@ATL@@@@@ATL@@QAE@XZ:PROC
EXTRN	__imp_??0?$CStringT@DV?$StrTraitMFC_DLL@DV?$ChTraitsCRT@D@ATL@@@@@ATL@@QAE@PAUIAtlStringMgr@1@@Z:PROC
EXTRN	__imp_??0?$CStringT@DV?$StrTraitMFC_DLL@DV?$ChTraitsCRT@D@ATL@@@@@ATL@@QAE@ABV01@@Z:PROC
EXTRN	__imp_??0?$CStringT@DV?$StrTraitMFC_DLL@DV?$ChTraitsCRT@D@ATL@@@@@ATL@@QAE@PBD@Z:PROC
EXTRN	__imp_??1?$CStringT@DV?$StrTraitMFC_DLL@DV?$ChTraitsCRT@D@ATL@@@@@ATL@@QAE@XZ:PROC
EXTRN	__imp_??4?$CStringT@DV?$StrTraitMFC_DLL@DV?$ChTraitsCRT@D@ATL@@@@@ATL@@QAEAAV01@ABV01@@Z:PROC
EXTRN	__imp_??4?$CStringT@DV?$StrTraitMFC_DLL@DV?$ChTraitsCRT@D@ATL@@@@@ATL@@QAEAAV01@PBD@Z:PROC
EXTRN	__imp_?GetManager@?$CStringT@DV?$StrTraitMFC_DLL@DV?$ChTraitsCRT@D@ATL@@@@@ATL@@QBEPAUIAtlStringMgr@2@XZ:PROC
EXTRN	__imp_?Format@?$CStringT@DV?$StrTraitMFC_DLL@DV?$ChTraitsCRT@D@ATL@@@@@ATL@@QAAXPBDZZ:PROC
EXTRN	?GetRuntimeClass@CGdiObject@@UBEPAUCRuntimeClass@@XZ:PROC ; CGdiObject::GetRuntimeClass
EXTRN	?Attach@CGdiObject@@QAEHPAX@Z:PROC		; CGdiObject::Attach
EXTRN	?DeleteObject@CGdiObject@@QAEHXZ:PROC		; CGdiObject::DeleteObject
EXTRN	??_ECGdiObject@@UAEPAXI@Z:PROC			; CGdiObject::`vector deleting destructor'
EXTRN	?GetRuntimeClass@CPen@@UBEPAUCRuntimeClass@@XZ:PROC ; CPen::GetRuntimeClass
EXTRN	??0CPen@@QAE@HHK@Z:PROC				; CPen::CPen
EXTRN	??0CPen@@QAE@HHPBUtagLOGBRUSH@@HPBK@Z:PROC	; CPen::CPen
EXTRN	??_ECPen@@UAEPAXI@Z:PROC			; CPen::`vector deleting destructor'
EXTRN	?GetRuntimeClass@CBitmap@@UBEPAUCRuntimeClass@@XZ:PROC ; CBitmap::GetRuntimeClass
EXTRN	??_ECBitmap@@UAEPAXI@Z:PROC			; CBitmap::`vector deleting destructor'
EXTRN	?FromHandle@CDC@@SGPAV1@PAUHDC__@@@Z:PROC	; CDC::FromHandle
EXTRN	?SelectObject@CDC@@QAEPAVCPen@@PAV2@@Z:PROC	; CDC::SelectObject
EXTRN	?SetROP2@CDC@@QAEHH@Z:PROC			; CDC::SetROP2
EXTRN	?MoveTo@CDC@@QAE?AVCPoint@@HH@Z:PROC		; CDC::MoveTo
EXTRN	?LineTo@CDC@@QAEHHH@Z:PROC			; CDC::LineTo
EXTRN	?FillSolidRect@CDC@@QAEXPBUtagRECT@@K@Z:PROC	; CDC::FillSolidRect
EXTRN	??0CPaintDC@@QAE@PAVCWnd@@@Z:PROC		; CPaintDC::CPaintDC
EXTRN	??1CPaintDC@@UAE@XZ:PROC			; CPaintDC::~CPaintDC
EXTRN	?OnCmdMsg@CCmdTarget@@UAEHIHPAXPAUAFX_CMDHANDLERINFO@@@Z:PROC ; CCmdTarget::OnCmdMsg
EXTRN	?IsInvokeAllowed@CCmdTarget@@UAEHJ@Z:PROC	; CCmdTarget::IsInvokeAllowed
EXTRN	?GetDispatchIID@CCmdTarget@@UAEHPAU_GUID@@@Z:PROC ; CCmdTarget::GetDispatchIID
EXTRN	?GetTypeInfoCount@CCmdTarget@@UAEIXZ:PROC	; CCmdTarget::GetTypeInfoCount
EXTRN	?GetTypeLibCache@CCmdTarget@@UAEPAVCTypeLibCache@@XZ:PROC ; CCmdTarget::GetTypeLibCache
EXTRN	?GetTypeLib@CCmdTarget@@UAEJKPAPAUITypeLib@@@Z:PROC ; CCmdTarget::GetTypeLib
EXTRN	?GetCommandMap@CCmdTarget@@MBEPBUAFX_OLECMDMAP@@XZ:PROC ; CCmdTarget::GetCommandMap
EXTRN	?GetDispatchMap@CCmdTarget@@MBEPBUAFX_DISPMAP@@XZ:PROC ; CCmdTarget::GetDispatchMap
EXTRN	?GetConnectionMap@CCmdTarget@@MBEPBUAFX_CONNECTIONMAP@@XZ:PROC ; CCmdTarget::GetConnectionMap
EXTRN	?GetEventSinkMap@CCmdTarget@@MBEPBUAFX_EVENTSINKMAP@@XZ:PROC ; CCmdTarget::GetEventSinkMap
EXTRN	?OnCreateAggregates@CCmdTarget@@UAEHXZ:PROC	; CCmdTarget::OnCreateAggregates
EXTRN	?GetInterfaceHook@CCmdTarget@@UAEPAUIUnknown@@PBX@Z:PROC ; CCmdTarget::GetInterfaceHook
EXTRN	?GetExtraConnectionPoints@CCmdTarget@@MAEHPAVCPtrArray@@@Z:PROC ; CCmdTarget::GetExtraConnectionPoints
EXTRN	?GetConnectionHook@CCmdTarget@@MAEPAUIConnectionPoint@@ABU_GUID@@@Z:PROC ; CCmdTarget::GetConnectionHook
EXTRN	?GetRuntimeClass@CWnd@@UBEPAUCRuntimeClass@@XZ:PROC ; CWnd::GetRuntimeClass
EXTRN	??0CWnd@@QAE@XZ:PROC				; CWnd::CWnd
EXTRN	?FromHandle@CWnd@@SGPAV1@PAUHWND__@@@Z:PROC	; CWnd::FromHandle
EXTRN	?PreSubclassWindow@CWnd@@UAEXXZ:PROC		; CWnd::PreSubclassWindow
EXTRN	?Create@CWnd@@UAEHPBD0KABUtagRECT@@PAV1@IPAUCCreateContext@@@Z:PROC ; CWnd::Create
EXTRN	?CreateEx@CWnd@@UAEHKPBD0KHHHHPAUHWND__@@PAUHMENU__@@PAX@Z:PROC ; CWnd::CreateEx
EXTRN	?CreateEx@CWnd@@UAEHKPBD0KABUtagRECT@@PAV1@IPAX@Z:PROC ; CWnd::CreateEx
EXTRN	?DestroyWindow@CWnd@@UAEHXZ:PROC		; CWnd::DestroyWindow
EXTRN	?PreCreateWindow@CWnd@@UAEHAAUtagCREATESTRUCTA@@@Z:PROC ; CWnd::PreCreateWindow
EXTRN	?CalcWindowRect@CWnd@@UAEXPAUtagRECT@@I@Z:PROC	; CWnd::CalcWindowRect
EXTRN	?SetWindowTextA@CWnd@@QAEXPBD@Z:PROC		; CWnd::SetWindowTextA
EXTRN	?GetMenu@CWnd@@UBEPAVCMenu@@XZ:PROC		; CWnd::GetMenu
EXTRN	?SetMenu@CWnd@@UAEHPAVCMenu@@@Z:PROC		; CWnd::SetMenu
EXTRN	?OnToolHitTest@CWnd@@UBEHVCPoint@@PAUtagTOOLINFOA@@@Z:PROC ; CWnd::OnToolHitTest
EXTRN	?SetFocus@CWnd@@QAEPAV1@XZ:PROC			; CWnd::SetFocus
EXTRN	?GetScrollBarCtrl@CWnd@@UBEPAVCScrollBar@@H@Z:PROC ; CWnd::GetScrollBarCtrl
EXTRN	?WinHelpA@CWnd@@UAEXKI@Z:PROC			; CWnd::WinHelpA
EXTRN	?HtmlHelpA@CWnd@@UAEXKI@Z:PROC			; CWnd::HtmlHelpA
EXTRN	?WinHelpInternal@CWnd@@UAEXKI@Z:PROC		; CWnd::WinHelpInternal
EXTRN	?ContinueModal@CWnd@@UAEHXZ:PROC		; CWnd::ContinueModal
EXTRN	?EndModalLoop@CWnd@@UAEXH@Z:PROC		; CWnd::EndModalLoop
EXTRN	?OnDrawIconicThumbnailOrLivePreview@CWnd@@UAEXAAVCDC@@VCRect@@VCSize@@HAAH@Z:PROC ; CWnd::OnDrawIconicThumbnailOrLivePreview
EXTRN	?GetInterfaceMap@CWnd@@MBEPBUAFX_INTERFACEMAP@@XZ:PROC ; CWnd::GetInterfaceMap
EXTRN	?EnsureStdObj@CWnd@@UAEJXZ:PROC			; CWnd::EnsureStdObj
EXTRN	?get_accParent@CWnd@@UAEJPAPAUIDispatch@@@Z:PROC ; CWnd::get_accParent
EXTRN	?get_accChildCount@CWnd@@UAEJPAJ@Z:PROC		; CWnd::get_accChildCount
EXTRN	?get_accChild@CWnd@@UAEJUtagVARIANT@@PAPAUIDispatch@@@Z:PROC ; CWnd::get_accChild
EXTRN	?get_accName@CWnd@@UAEJUtagVARIANT@@PAPA_W@Z:PROC ; CWnd::get_accName
EXTRN	?get_accValue@CWnd@@UAEJUtagVARIANT@@PAPA_W@Z:PROC ; CWnd::get_accValue
EXTRN	?get_accDescription@CWnd@@UAEJUtagVARIANT@@PAPA_W@Z:PROC ; CWnd::get_accDescription
EXTRN	?get_accRole@CWnd@@UAEJUtagVARIANT@@PAU2@@Z:PROC ; CWnd::get_accRole
EXTRN	?get_accState@CWnd@@UAEJUtagVARIANT@@PAU2@@Z:PROC ; CWnd::get_accState
EXTRN	?get_accHelp@CWnd@@UAEJUtagVARIANT@@PAPA_W@Z:PROC ; CWnd::get_accHelp
EXTRN	?get_accHelpTopic@CWnd@@UAEJPAPA_WUtagVARIANT@@PAJ@Z:PROC ; CWnd::get_accHelpTopic
EXTRN	?get_accKeyboardShortcut@CWnd@@UAEJUtagVARIANT@@PAPA_W@Z:PROC ; CWnd::get_accKeyboardShortcut
EXTRN	?get_accFocus@CWnd@@UAEJPAUtagVARIANT@@@Z:PROC	; CWnd::get_accFocus
EXTRN	?get_accSelection@CWnd@@UAEJPAUtagVARIANT@@@Z:PROC ; CWnd::get_accSelection
EXTRN	?get_accDefaultAction@CWnd@@UAEJUtagVARIANT@@PAPA_W@Z:PROC ; CWnd::get_accDefaultAction
EXTRN	?accSelect@CWnd@@UAEJJUtagVARIANT@@@Z:PROC	; CWnd::accSelect
EXTRN	?accLocation@CWnd@@UAEJPAJ000UtagVARIANT@@@Z:PROC ; CWnd::accLocation
EXTRN	?accNavigate@CWnd@@UAEJJUtagVARIANT@@PAU2@@Z:PROC ; CWnd::accNavigate
EXTRN	?accHitTest@CWnd@@UAEJJJPAUtagVARIANT@@@Z:PROC	; CWnd::accHitTest
EXTRN	?accDoDefaultAction@CWnd@@UAEJUtagVARIANT@@@Z:PROC ; CWnd::accDoDefaultAction
EXTRN	?put_accName@CWnd@@UAEJUtagVARIANT@@PA_W@Z:PROC	; CWnd::put_accName
EXTRN	?put_accValue@CWnd@@UAEJUtagVARIANT@@PA_W@Z:PROC ; CWnd::put_accValue
EXTRN	?SetProxy@CWnd@@UAEJPAUIAccessibleProxy@@@Z:PROC ; CWnd::SetProxy
EXTRN	?CreateAccessibleProxy@CWnd@@UAEJIJPAJ@Z:PROC	; CWnd::CreateAccessibleProxy
EXTRN	?OnCommand@CWnd@@MAEHIJ@Z:PROC			; CWnd::OnCommand
EXTRN	?OnNotify@CWnd@@MAEHIJPAJ@Z:PROC		; CWnd::OnNotify
EXTRN	?GetSuperWndProcAddr@CWnd@@MAEPAP6GJPAUHWND__@@IIJ@ZXZ:PROC ; CWnd::GetSuperWndProcAddr
EXTRN	?PreTranslateMessage@CWnd@@UAEHPAUtagMSG@@@Z:PROC ; CWnd::PreTranslateMessage
EXTRN	?OnAmbientProperty@CWnd@@UAEHPAVCOleControlSite@@JPAUtagVARIANT@@@Z:PROC ; CWnd::OnAmbientProperty
EXTRN	?WindowProc@CWnd@@MAEJIIJ@Z:PROC		; CWnd::WindowProc
EXTRN	?OnWndMsg@CWnd@@MAEHIIJPAJ@Z:PROC		; CWnd::OnWndMsg
EXTRN	?Default@CWnd@@IAEJXZ:PROC			; CWnd::Default
EXTRN	?DefWindowProcA@CWnd@@MAEJIIJ@Z:PROC		; CWnd::DefWindowProcA
EXTRN	?PostNcDestroy@CWnd@@MAEXXZ:PROC		; CWnd::PostNcDestroy
EXTRN	?OnChildNotify@CWnd@@MAEHIIJPAJ@Z:PROC		; CWnd::OnChildNotify
EXTRN	?OnTouchInputs@CWnd@@MAEHIPAUtagTOUCHINPUT@@@Z:PROC ; CWnd::OnTouchInputs
EXTRN	?OnTouchInput@CWnd@@MAEHVCPoint@@HHPAUtagTOUCHINPUT@@@Z:PROC ; CWnd::OnTouchInput
EXTRN	?GetGestureStatus@CWnd@@MAEKVCPoint@@@Z:PROC	; CWnd::GetGestureStatus
EXTRN	?OnGestureZoom@CWnd@@MAEHVCPoint@@J@Z:PROC	; CWnd::OnGestureZoom
EXTRN	?OnGesturePan@CWnd@@MAEHVCPoint@@0@Z:PROC	; CWnd::OnGesturePan
EXTRN	?OnGestureRotate@CWnd@@MAEHVCPoint@@N@Z:PROC	; CWnd::OnGestureRotate
EXTRN	?OnGestureTwoFingerTap@CWnd@@MAEHVCPoint@@@Z:PROC ; CWnd::OnGestureTwoFingerTap
EXTRN	?OnGesturePressAndTap@CWnd@@MAEHVCPoint@@J@Z:PROC ; CWnd::OnGesturePressAndTap
EXTRN	?ResizeDynamicLayout@CWnd@@MAEXXZ:PROC		; CWnd::ResizeDynamicLayout
EXTRN	??1CWnd@@UAE@XZ:PROC				; CWnd::~CWnd
EXTRN	?CheckAutoCenter@CWnd@@UAEHXZ:PROC		; CWnd::CheckAutoCenter
EXTRN	?IsFrameWnd@CWnd@@UBEHXZ:PROC			; CWnd::IsFrameWnd
EXTRN	?OnFinalRelease@CWnd@@UAEXXZ:PROC		; CWnd::OnFinalRelease
EXTRN	?CreateControlContainer@CWnd@@MAEHPAPAVCOleControlContainer@@@Z:PROC ; CWnd::CreateControlContainer
EXTRN	?CreateControlSite@CWnd@@MAEHPAVCOleControlContainer@@PAPAVCOleControlSite@@IABU_GUID@@@Z:PROC ; CWnd::CreateControlSite
EXTRN	?SetOccDialogInfo@CWnd@@MAEHPAU_AFX_OCC_DIALOG_INFO@@@Z:PROC ; CWnd::SetOccDialogInfo
EXTRN	?GetOccDialogInfo@CWnd@@MAEPAU_AFX_OCC_DIALOG_INFO@@XZ:PROC ; CWnd::GetOccDialogInfo
EXTRN	?GetThisMessageMap@CWnd@@KGPBUAFX_MSGMAP@@XZ:PROC ; CWnd::GetThisMessageMap
EXTRN	?AfxMessageBox@@YGHPBDII@Z:PROC			; AfxMessageBox
EXTRN	??_ECRadar@@UAEPAXI@Z:PROC			; CRadar::`vector deleting destructor'
EXTRN	__imp_?GetData@CPacket@@QAENH@Z:PROC
EXTRN	__imp_?GetType@CPacket@@QAE?AV?$CStringT@DV?$StrTraitMFC_DLL@DV?$ChTraitsCRT@D@ATL@@@@@ATL@@_N@Z:PROC
EXTRN	__imp_?GetnumericDataList@CPacket@@QAEPAV?$CList@NN@@XZ:PROC
EXTRN	__imp_?GetMinMax@CPacket@@QAEHHHAAN0H@Z:PROC
EXTRN	__imp_?GetBaseData@CPacketList@@QAEPAVCPacket@@V?$CStringT@DV?$StrTraitMFC_DLL@DV?$ChTraitsCRT@D@ATL@@@@@ATL@@_N@Z:PROC
EXTRN	?DoubleToString@CDataConversion@@SA?AV?$CStringT@DV?$StrTraitMFC_DLL@DV?$ChTraitsCRT@D@ATL@@@@@ATL@@ABN@Z:PROC ; CDataConversion::DoubleToString
EXTRN	?GetStringFormatTrans@CDataConversion@@QAE?AV?$CStringT@DV?$StrTraitMFC_DLL@DV?$ChTraitsCRT@D@ATL@@@@@ATL@@ABV23@0@Z:PROC ; CDataConversion::GetStringFormatTrans
EXTRN	?GetStringFormatTrans@CDataConversion@@QAE?AV?$CStringT@DV?$StrTraitMFC_DLL@DV?$ChTraitsCRT@D@ATL@@@@@ATL@@ABV23@000@Z:PROC ; CDataConversion::GetStringFormatTrans
EXTRN	?SetStartEndIndexToOcx@CToolBarDlg@@QAEXHH@Z:PROC ; CToolBarDlg::SetStartEndIndexToOcx
EXTRN	?GetCountMinPerPage@CToolBarDlg@@QAEHXZ:PROC	; CToolBarDlg::GetCountMinPerPage
EXTRN	@__security_check_cookie@4:PROC
EXTRN	___CxxFrameHandler3:PROC
EXTRN	??_7type_info@@6B@:QWORD			; type_info::`vftable'
EXTRN	?g_iMetaTable@@3VIMetaTable@@A:BYTE		; g_iMetaTable
EXTRN	___security_cookie:DWORD
EXTRN	__fltused:DWORD
;	COMDAT __xmm@3ff00000000000003ff0000000000000
CONST	SEGMENT
__xmm@3ff00000000000003ff0000000000000 DB 00H, 00H, 00H, 00H, 00H, 00H, 0f0H
	DB	'?', 00H, 00H, 00H, 00H, 00H, 00H, 0f0H, '?'
CONST	ENDS
;	COMDAT __real@4059000000000000
CONST	SEGMENT
__real@4059000000000000 DQ 04059000000000000r	; 100
CONST	ENDS
;	COMDAT __real@3fe0000000000000
CONST	SEGMENT
__real@3fe0000000000000 DQ 03fe0000000000000r	; 0.5
CONST	ENDS
;	COMDAT __real@0000000000000000
CONST	SEGMENT
__real@0000000000000000 DQ 00000000000000000r	; 0
CONST	ENDS
;	COMDAT ??_R1A@?0A@EA@CRadar@@8
rdata$r	SEGMENT
??_R1A@?0A@EA@CRadar@@8 DD FLAT:??_R0?AVCRadar@@@8	; CRadar::`RTTI Base Class Descriptor at (0,-1,0,64)'
	DD	03H
	DD	00H
	DD	0ffffffffH
	DD	00H
	DD	040H
	DD	FLAT:??_R3CRadar@@8
rdata$r	ENDS
;	COMDAT ??_R2CRadar@@8
rdata$r	SEGMENT
??_R2CRadar@@8 DD FLAT:??_R1A@?0A@EA@CRadar@@8		; CRadar::`RTTI Base Class Array'
	DD	FLAT:??_R1A@?0A@EA@CWnd@@8
	DD	FLAT:??_R1A@?0A@EA@CCmdTarget@@8
	DD	FLAT:??_R1A@?0A@EA@CObject@@8
rdata$r	ENDS
;	COMDAT ??_R3CRadar@@8
rdata$r	SEGMENT
??_R3CRadar@@8 DD 00H					; CRadar::`RTTI Class Hierarchy Descriptor'
	DD	00H
	DD	04H
	DD	FLAT:??_R2CRadar@@8
rdata$r	ENDS
;	COMDAT ??_R0?AVCRadar@@@8
data$rs	SEGMENT
??_R0?AVCRadar@@@8 DD FLAT:??_7type_info@@6B@		; CRadar `RTTI Type Descriptor'
	DD	00H
	DB	'.?AVCRadar@@', 00H
data$rs	ENDS
;	COMDAT ??_R4CRadar@@6B@
rdata$r	SEGMENT
??_R4CRadar@@6B@ DD 00H					; CRadar::`RTTI Complete Object Locator'
	DD	00H
	DD	00H
	DD	FLAT:??_R0?AVCRadar@@@8
	DD	FLAT:??_R3CRadar@@8
rdata$r	ENDS
;	COMDAT ??_C@_01EEMJAFIK@?6@
CONST	SEGMENT
??_C@_01EEMJAFIK@?6@ DB 0aH, 00H			; `string'
CONST	ENDS
;	COMDAT ?messageMap@?1??GetThisMessageMap@CRadar@@KGPBUAFX_MSGMAP@@XZ@4U3@B
CONST	SEGMENT
?messageMap@?1??GetThisMessageMap@CRadar@@KGPBUAFX_MSGMAP@@XZ@4U3@B DD FLAT:?GetThisMessageMap@CWnd@@KGPBUAFX_MSGMAP@@XZ ; `CRadar::GetThisMessageMap'::`2'::messageMap
	DD	FLAT:?_messageEntries@?1??GetThisMessageMap@CRadar@@KGPBUAFX_MSGMAP@@XZ@4QBUAFX_MSGMAP_ENTRY@@B
CONST	ENDS
;	COMDAT ?_messageEntries@?1??GetThisMessageMap@CRadar@@KGPBUAFX_MSGMAP@@XZ@4QBUAFX_MSGMAP_ENTRY@@B
CONST	SEGMENT
?_messageEntries@?1??GetThisMessageMap@CRadar@@KGPBUAFX_MSGMAP@@XZ@4QBUAFX_MSGMAP_ENTRY@@B DD 0200H ; `CRadar::GetThisMessageMap'::`2'::_messageEntries
	DD	00H
	DD	00H
	DD	00H
	DD	036H
	DD	FLAT:?OnMouseMove@CRadar@@IAEXIVCPoint@@@Z
	DD	0201H
	DD	00H
	DD	00H
	DD	00H
	DD	036H
	DD	FLAT:?OnLButtonDown@CRadar@@IAEXIVCPoint@@@Z
	DD	0202H
	DD	00H
	DD	00H
	DD	00H
	DD	036H
	DD	FLAT:?OnLButtonUp@CRadar@@IAEXIVCPoint@@@Z
	DD	0fH
	DD	00H
	DD	00H
	DD	00H
	DD	013H
	DD	FLAT:?OnPaint@CRadar@@IAEXXZ
	DD	05H
	DD	00H
	DD	00H
	DD	00H
	DD	01aH
	DD	FLAT:?OnSize@CRadar@@IAEXIHH@Z
	DD	07H
	DD	00H
	DD	00H
	DD	00H
	DD	024H
	DD	FLAT:?OnSetFocus@CRadar@@IAEXPAVCWnd@@@Z
	DD	00H
	DD	00H
	DD	00H
	DD	00H
	DD	00H
	DD	00H
CONST	ENDS
;	COMDAT ??_7CRadar@@6B@
CONST	SEGMENT
??_7CRadar@@6B@ DD FLAT:??_R4CRadar@@6B@		; CRadar::`vftable'
	DD	FLAT:?GetRuntimeClass@CWnd@@UBEPAUCRuntimeClass@@XZ
	DD	FLAT:??_ECRadar@@UAEPAXI@Z
	DD	FLAT:?Serialize@CObject@@UAEXAAVCArchive@@@Z
	DD	FLAT:?AssertValid@CObject@@UBEXXZ
	DD	FLAT:?Dump@CObject@@UBEXAAVCDumpContext@@@Z
	DD	FLAT:?OnCmdMsg@CCmdTarget@@UAEHIHPAXPAUAFX_CMDHANDLERINFO@@@Z
	DD	FLAT:?OnFinalRelease@CWnd@@UAEXXZ
	DD	FLAT:?IsInvokeAllowed@CCmdTarget@@UAEHJ@Z
	DD	FLAT:?GetDispatchIID@CCmdTarget@@UAEHPAU_GUID@@@Z
	DD	FLAT:?GetTypeInfoCount@CCmdTarget@@UAEIXZ
	DD	FLAT:?GetTypeLibCache@CCmdTarget@@UAEPAVCTypeLibCache@@XZ
	DD	FLAT:?GetTypeLib@CCmdTarget@@UAEJKPAPAUITypeLib@@@Z
	DD	FLAT:?GetMessageMap@CRadar@@MBEPBUAFX_MSGMAP@@XZ
	DD	FLAT:?GetCommandMap@CCmdTarget@@MBEPBUAFX_OLECMDMAP@@XZ
	DD	FLAT:?GetDispatchMap@CCmdTarget@@MBEPBUAFX_DISPMAP@@XZ
	DD	FLAT:?GetConnectionMap@CCmdTarget@@MBEPBUAFX_CONNECTIONMAP@@XZ
	DD	FLAT:?GetInterfaceMap@CWnd@@MBEPBUAFX_INTERFACEMAP@@XZ
	DD	FLAT:?GetEventSinkMap@CCmdTarget@@MBEPBUAFX_EVENTSINKMAP@@XZ
	DD	FLAT:?OnCreateAggregates@CCmdTarget@@UAEHXZ
	DD	FLAT:?GetInterfaceHook@CCmdTarget@@UAEPAUIUnknown@@PBX@Z
	DD	FLAT:?GetExtraConnectionPoints@CCmdTarget@@MAEHPAVCPtrArray@@@Z
	DD	FLAT:?GetConnectionHook@CCmdTarget@@MAEPAUIConnectionPoint@@ABU_GUID@@@Z
	DD	FLAT:?PreSubclassWindow@CWnd@@UAEXXZ
	DD	FLAT:?Create@CWnd@@UAEHPBD0KABUtagRECT@@PAV1@IPAUCCreateContext@@@Z
	DD	FLAT:?CreateEx@CWnd@@UAEHKPBD0KABUtagRECT@@PAV1@IPAX@Z
	DD	FLAT:?CreateEx@CWnd@@UAEHKPBD0KHHHHPAUHWND__@@PAUHMENU__@@PAX@Z
	DD	FLAT:?DestroyWindow@CWnd@@UAEHXZ
	DD	FLAT:?PreCreateWindow@CWnd@@UAEHAAUtagCREATESTRUCTA@@@Z
	DD	FLAT:?CalcWindowRect@CWnd@@UAEXPAUtagRECT@@I@Z
	DD	FLAT:?GetMenu@CWnd@@UBEPAVCMenu@@XZ
	DD	FLAT:?SetMenu@CWnd@@UAEHPAVCMenu@@@Z
	DD	FLAT:?OnToolHitTest@CWnd@@UBEHVCPoint@@PAUtagTOOLINFOA@@@Z
	DD	FLAT:?GetScrollBarCtrl@CWnd@@UBEPAVCScrollBar@@H@Z
	DD	FLAT:?WinHelpA@CWnd@@UAEXKI@Z
	DD	FLAT:?HtmlHelpA@CWnd@@UAEXKI@Z
	DD	FLAT:?WinHelpInternal@CWnd@@UAEXKI@Z
	DD	FLAT:?ContinueModal@CWnd@@UAEHXZ
	DD	FLAT:?EndModalLoop@CWnd@@UAEXH@Z
	DD	FLAT:?OnDrawIconicThumbnailOrLivePreview@CWnd@@UAEXAAVCDC@@VCRect@@VCSize@@HAAH@Z
	DD	FLAT:?EnsureStdObj@CWnd@@UAEJXZ
	DD	FLAT:?get_accParent@CWnd@@UAEJPAPAUIDispatch@@@Z
	DD	FLAT:?get_accChildCount@CWnd@@UAEJPAJ@Z
	DD	FLAT:?get_accChild@CWnd@@UAEJUtagVARIANT@@PAPAUIDispatch@@@Z
	DD	FLAT:?get_accName@CWnd@@UAEJUtagVARIANT@@PAPA_W@Z
	DD	FLAT:?get_accValue@CWnd@@UAEJUtagVARIANT@@PAPA_W@Z
	DD	FLAT:?get_accDescription@CWnd@@UAEJUtagVARIANT@@PAPA_W@Z
	DD	FLAT:?get_accRole@CWnd@@UAEJUtagVARIANT@@PAU2@@Z
	DD	FLAT:?get_accState@CWnd@@UAEJUtagVARIANT@@PAU2@@Z
	DD	FLAT:?get_accHelp@CWnd@@UAEJUtagVARIANT@@PAPA_W@Z
	DD	FLAT:?get_accHelpTopic@CWnd@@UAEJPAPA_WUtagVARIANT@@PAJ@Z
	DD	FLAT:?get_accKeyboardShortcut@CWnd@@UAEJUtagVARIANT@@PAPA_W@Z
	DD	FLAT:?get_accFocus@CWnd@@UAEJPAUtagVARIANT@@@Z
	DD	FLAT:?get_accSelection@CWnd@@UAEJPAUtagVARIANT@@@Z
	DD	FLAT:?get_accDefaultAction@CWnd@@UAEJUtagVARIANT@@PAPA_W@Z
	DD	FLAT:?accSelect@CWnd@@UAEJJUtagVARIANT@@@Z
	DD	FLAT:?accLocation@CWnd@@UAEJPAJ000UtagVARIANT@@@Z
	DD	FLAT:?accNavigate@CWnd@@UAEJJUtagVARIANT@@PAU2@@Z
	DD	FLAT:?accHitTest@CWnd@@UAEJJJPAUtagVARIANT@@@Z
	DD	FLAT:?accDoDefaultAction@CWnd@@UAEJUtagVARIANT@@@Z
	DD	FLAT:?put_accName@CWnd@@UAEJUtagVARIANT@@PA_W@Z
	DD	FLAT:?put_accValue@CWnd@@UAEJUtagVARIANT@@PA_W@Z
	DD	FLAT:?SetProxy@CWnd@@UAEJPAUIAccessibleProxy@@@Z
	DD	FLAT:?CreateAccessibleProxy@CWnd@@UAEJIJPAJ@Z
	DD	FLAT:?OnCommand@CWnd@@MAEHIJ@Z
	DD	FLAT:?OnNotify@CWnd@@MAEHIJPAJ@Z
	DD	FLAT:?GetSuperWndProcAddr@CWnd@@MAEPAP6GJPAUHWND__@@IIJ@ZXZ
	DD	FLAT:?DoDataExchange@CWnd@@MAEXPAVCDataExchange@@@Z
	DD	FLAT:?BeginModalState@CWnd@@UAEXXZ
	DD	FLAT:?EndModalState@CWnd@@UAEXXZ
	DD	FLAT:?PreTranslateMessage@CWnd@@UAEHPAUtagMSG@@@Z
	DD	FLAT:?OnAmbientProperty@CWnd@@UAEHPAVCOleControlSite@@JPAUtagVARIANT@@@Z
	DD	FLAT:?WindowProc@CWnd@@MAEJIIJ@Z
	DD	FLAT:?OnWndMsg@CWnd@@MAEHIIJPAJ@Z
	DD	FLAT:?DefWindowProcA@CWnd@@MAEJIIJ@Z
	DD	FLAT:?PostNcDestroy@CWnd@@MAEXXZ
	DD	FLAT:?OnChildNotify@CWnd@@MAEHIIJPAJ@Z
	DD	FLAT:?OnTouchInputs@CWnd@@MAEHIPAUtagTOUCHINPUT@@@Z
	DD	FLAT:?OnTouchInput@CWnd@@MAEHVCPoint@@HHPAUtagTOUCHINPUT@@@Z
	DD	FLAT:?GetGestureStatus@CWnd@@MAEKVCPoint@@@Z
	DD	FLAT:?OnGestureZoom@CWnd@@MAEHVCPoint@@J@Z
	DD	FLAT:?OnGesturePan@CWnd@@MAEHVCPoint@@0@Z
	DD	FLAT:?OnGestureRotate@CWnd@@MAEHVCPoint@@N@Z
	DD	FLAT:?OnGestureTwoFingerTap@CWnd@@MAEHVCPoint@@@Z
	DD	FLAT:?OnGesturePressAndTap@CWnd@@MAEHVCPoint@@J@Z
	DD	FLAT:?ResizeDynamicLayout@CWnd@@MAEXXZ
	DD	FLAT:?CheckAutoCenter@CWnd@@UAEHXZ
	DD	FLAT:?IsFrameWnd@CWnd@@UBEHXZ
	DD	FLAT:?CreateControlContainer@CWnd@@MAEHPAPAVCOleControlContainer@@@Z
	DD	FLAT:?CreateControlSite@CWnd@@MAEHPAVCOleControlContainer@@PAPAVCOleControlSite@@IABU_GUID@@@Z
	DD	FLAT:?SetOccDialogInfo@CWnd@@MAEHPAU_AFX_OCC_DIALOG_INFO@@@Z
	DD	FLAT:?GetOccDialogInfo@CWnd@@MAEPAU_AFX_OCC_DIALOG_INFO@@XZ
CONST	ENDS
;	COMDAT ??_R2CCmdTarget@@8
rdata$r	SEGMENT
??_R2CCmdTarget@@8 DD FLAT:??_R1A@?0A@EA@CCmdTarget@@8	; CCmdTarget::`RTTI Base Class Array'
	DD	FLAT:??_R1A@?0A@EA@CObject@@8
rdata$r	ENDS
;	COMDAT ??_R3CCmdTarget@@8
rdata$r	SEGMENT
??_R3CCmdTarget@@8 DD 00H				; CCmdTarget::`RTTI Class Hierarchy Descriptor'
	DD	00H
	DD	02H
	DD	FLAT:??_R2CCmdTarget@@8
rdata$r	ENDS
;	COMDAT ??_R0?AVCCmdTarget@@@8
data$rs	SEGMENT
??_R0?AVCCmdTarget@@@8 DD FLAT:??_7type_info@@6B@	; CCmdTarget `RTTI Type Descriptor'
	DD	00H
	DB	'.?AVCCmdTarget@@', 00H
data$rs	ENDS
;	COMDAT ??_R1A@?0A@EA@CCmdTarget@@8
rdata$r	SEGMENT
??_R1A@?0A@EA@CCmdTarget@@8 DD FLAT:??_R0?AVCCmdTarget@@@8 ; CCmdTarget::`RTTI Base Class Descriptor at (0,-1,0,64)'
	DD	01H
	DD	00H
	DD	0ffffffffH
	DD	00H
	DD	040H
	DD	FLAT:??_R3CCmdTarget@@8
rdata$r	ENDS
;	COMDAT ??_R2CWnd@@8
rdata$r	SEGMENT
??_R2CWnd@@8 DD	FLAT:??_R1A@?0A@EA@CWnd@@8		; CWnd::`RTTI Base Class Array'
	DD	FLAT:??_R1A@?0A@EA@CCmdTarget@@8
	DD	FLAT:??_R1A@?0A@EA@CObject@@8
rdata$r	ENDS
;	COMDAT ??_R3CWnd@@8
rdata$r	SEGMENT
??_R3CWnd@@8 DD	00H					; CWnd::`RTTI Class Hierarchy Descriptor'
	DD	00H
	DD	03H
	DD	FLAT:??_R2CWnd@@8
rdata$r	ENDS
;	COMDAT ??_R0?AVCWnd@@@8
data$rs	SEGMENT
??_R0?AVCWnd@@@8 DD FLAT:??_7type_info@@6B@		; CWnd `RTTI Type Descriptor'
	DD	00H
	DB	'.?AVCWnd@@', 00H
data$rs	ENDS
;	COMDAT ??_R1A@?0A@EA@CWnd@@8
rdata$r	SEGMENT
??_R1A@?0A@EA@CWnd@@8 DD FLAT:??_R0?AVCWnd@@@8		; CWnd::`RTTI Base Class Descriptor at (0,-1,0,64)'
	DD	02H
	DD	00H
	DD	0ffffffffH
	DD	00H
	DD	040H
	DD	FLAT:??_R3CWnd@@8
rdata$r	ENDS
;	COMDAT ??_R1A@?0A@EA@CBitmap@@8
rdata$r	SEGMENT
??_R1A@?0A@EA@CBitmap@@8 DD FLAT:??_R0?AVCBitmap@@@8	; CBitmap::`RTTI Base Class Descriptor at (0,-1,0,64)'
	DD	02H
	DD	00H
	DD	0ffffffffH
	DD	00H
	DD	040H
	DD	FLAT:??_R3CBitmap@@8
rdata$r	ENDS
;	COMDAT ??_R2CBitmap@@8
rdata$r	SEGMENT
??_R2CBitmap@@8 DD FLAT:??_R1A@?0A@EA@CBitmap@@8	; CBitmap::`RTTI Base Class Array'
	DD	FLAT:??_R1A@?0A@EA@CGdiObject@@8
	DD	FLAT:??_R1A@?0A@EA@CObject@@8
rdata$r	ENDS
;	COMDAT ??_R3CBitmap@@8
rdata$r	SEGMENT
??_R3CBitmap@@8 DD 00H					; CBitmap::`RTTI Class Hierarchy Descriptor'
	DD	00H
	DD	03H
	DD	FLAT:??_R2CBitmap@@8
rdata$r	ENDS
;	COMDAT ??_R0?AVCBitmap@@@8
data$rs	SEGMENT
??_R0?AVCBitmap@@@8 DD FLAT:??_7type_info@@6B@		; CBitmap `RTTI Type Descriptor'
	DD	00H
	DB	'.?AVCBitmap@@', 00H
data$rs	ENDS
;	COMDAT ??_R4CBitmap@@6B@
rdata$r	SEGMENT
??_R4CBitmap@@6B@ DD 00H				; CBitmap::`RTTI Complete Object Locator'
	DD	00H
	DD	00H
	DD	FLAT:??_R0?AVCBitmap@@@8
	DD	FLAT:??_R3CBitmap@@8
rdata$r	ENDS
;	COMDAT ??_R1A@?0A@EA@CPen@@8
rdata$r	SEGMENT
??_R1A@?0A@EA@CPen@@8 DD FLAT:??_R0?AVCPen@@@8		; CPen::`RTTI Base Class Descriptor at (0,-1,0,64)'
	DD	02H
	DD	00H
	DD	0ffffffffH
	DD	00H
	DD	040H
	DD	FLAT:??_R3CPen@@8
rdata$r	ENDS
;	COMDAT ??_R2CPen@@8
rdata$r	SEGMENT
??_R2CPen@@8 DD	FLAT:??_R1A@?0A@EA@CPen@@8		; CPen::`RTTI Base Class Array'
	DD	FLAT:??_R1A@?0A@EA@CGdiObject@@8
	DD	FLAT:??_R1A@?0A@EA@CObject@@8
rdata$r	ENDS
;	COMDAT ??_R3CPen@@8
rdata$r	SEGMENT
??_R3CPen@@8 DD	00H					; CPen::`RTTI Class Hierarchy Descriptor'
	DD	00H
	DD	03H
	DD	FLAT:??_R2CPen@@8
rdata$r	ENDS
;	COMDAT ??_R0?AVCPen@@@8
data$rs	SEGMENT
??_R0?AVCPen@@@8 DD FLAT:??_7type_info@@6B@		; CPen `RTTI Type Descriptor'
	DD	00H
	DB	'.?AVCPen@@', 00H
data$rs	ENDS
;	COMDAT ??_R4CPen@@6B@
rdata$r	SEGMENT
??_R4CPen@@6B@ DD 00H					; CPen::`RTTI Complete Object Locator'
	DD	00H
	DD	00H
	DD	FLAT:??_R0?AVCPen@@@8
	DD	FLAT:??_R3CPen@@8
rdata$r	ENDS
;	COMDAT ??_R1A@?0A@EA@CGdiObject@@8
rdata$r	SEGMENT
??_R1A@?0A@EA@CGdiObject@@8 DD FLAT:??_R0?AVCGdiObject@@@8 ; CGdiObject::`RTTI Base Class Descriptor at (0,-1,0,64)'
	DD	01H
	DD	00H
	DD	0ffffffffH
	DD	00H
	DD	040H
	DD	FLAT:??_R3CGdiObject@@8
rdata$r	ENDS
;	COMDAT ??_R2CGdiObject@@8
rdata$r	SEGMENT
??_R2CGdiObject@@8 DD FLAT:??_R1A@?0A@EA@CGdiObject@@8	; CGdiObject::`RTTI Base Class Array'
	DD	FLAT:??_R1A@?0A@EA@CObject@@8
rdata$r	ENDS
;	COMDAT ??_R3CGdiObject@@8
rdata$r	SEGMENT
??_R3CGdiObject@@8 DD 00H				; CGdiObject::`RTTI Class Hierarchy Descriptor'
	DD	00H
	DD	02H
	DD	FLAT:??_R2CGdiObject@@8
rdata$r	ENDS
;	COMDAT ??_R0?AVCGdiObject@@@8
data$rs	SEGMENT
??_R0?AVCGdiObject@@@8 DD FLAT:??_7type_info@@6B@	; CGdiObject `RTTI Type Descriptor'
	DD	00H
	DB	'.?AVCGdiObject@@', 00H
data$rs	ENDS
;	COMDAT ??_R4CGdiObject@@6B@
rdata$r	SEGMENT
??_R4CGdiObject@@6B@ DD 00H				; CGdiObject::`RTTI Complete Object Locator'
	DD	00H
	DD	00H
	DD	FLAT:??_R0?AVCGdiObject@@@8
	DD	FLAT:??_R3CGdiObject@@8
rdata$r	ENDS
;	COMDAT ??_R1A@?0A@EA@CObject@@8
rdata$r	SEGMENT
??_R1A@?0A@EA@CObject@@8 DD FLAT:??_R0?AVCObject@@@8	; CObject::`RTTI Base Class Descriptor at (0,-1,0,64)'
	DD	00H
	DD	00H
	DD	0ffffffffH
	DD	00H
	DD	040H
	DD	FLAT:??_R3CObject@@8
rdata$r	ENDS
;	COMDAT ??_R2CObject@@8
rdata$r	SEGMENT
??_R2CObject@@8 DD FLAT:??_R1A@?0A@EA@CObject@@8	; CObject::`RTTI Base Class Array'
rdata$r	ENDS
;	COMDAT ??_R3CObject@@8
rdata$r	SEGMENT
??_R3CObject@@8 DD 00H					; CObject::`RTTI Class Hierarchy Descriptor'
	DD	00H
	DD	01H
	DD	FLAT:??_R2CObject@@8
rdata$r	ENDS
;	COMDAT ??_R0?AVCObject@@@8
data$rs	SEGMENT
??_R0?AVCObject@@@8 DD FLAT:??_7type_info@@6B@		; CObject `RTTI Type Descriptor'
	DD	00H
	DB	'.?AVCObject@@', 00H
data$rs	ENDS
;	COMDAT ??_C@_0N@OMEMOKLE@?$CFTs?5?$CI?$CFTs?3?$CFd?$CJ@
CONST	SEGMENT
??_C@_0N@OMEMOKLE@?$CFTs?5?$CI?$CFTs?3?$CFd?$CJ@ DB '%Ts (%Ts:%d)', 00H ; `string'
CONST	ENDS
;	COMDAT ??_C@_0BB@HBOOMJBF@?$CFTs?5?$CI?$CFTs?3?$CFd?$CJ?6?$CFTs@
CONST	SEGMENT
??_C@_0BB@HBOOMJBF@?$CFTs?5?$CI?$CFTs?3?$CFd?$CJ?6?$CFTs@ DB '%Ts (%Ts:%d'
	DB	')', 0aH, '%Ts', 00H				; `string'
CONST	ENDS
;	COMDAT ??_C@_0BP@OIEOKIDM@Exception?5thrown?5in?5destructor@
CONST	SEGMENT
??_C@_0BP@OIEOKIDM@Exception?5thrown?5in?5destructor@ DB 'Exception throw'
	DB	'n in destructor', 00H			; `string'
CONST	ENDS
;	COMDAT ??_C@_0HD@JJCHHHNK@C?3?2Program?5Files?5?$CIx86?$CJ?2Microsof@
CONST	SEGMENT
??_C@_0HD@JJCHHHNK@C?3?2Program?5Files?5?$CIx86?$CJ?2Microsof@ DB 'C:\Pro'
	DB	'gram Files (x86)\Microsoft Visual Studio\2019\Community\VC\To'
	DB	'ols\MSVC\14.29.30133\atlmfc\include\afxwin1.inl', 00H ; `string'
CONST	ENDS
;	COMDAT ??_7CBitmap@@6B@
CONST	SEGMENT
??_7CBitmap@@6B@ DD FLAT:??_R4CBitmap@@6B@		; CBitmap::`vftable'
	DD	FLAT:?GetRuntimeClass@CBitmap@@UBEPAUCRuntimeClass@@XZ
	DD	FLAT:??_ECBitmap@@UAEPAXI@Z
	DD	FLAT:?Serialize@CObject@@UAEXAAVCArchive@@@Z
	DD	FLAT:?AssertValid@CObject@@UBEXXZ
	DD	FLAT:?Dump@CObject@@UBEXAAVCDumpContext@@@Z
CONST	ENDS
;	COMDAT ??_7CPen@@6B@
CONST	SEGMENT
??_7CPen@@6B@ DD FLAT:??_R4CPen@@6B@			; CPen::`vftable'
	DD	FLAT:?GetRuntimeClass@CPen@@UBEPAUCRuntimeClass@@XZ
	DD	FLAT:??_ECPen@@UAEPAXI@Z
	DD	FLAT:?Serialize@CObject@@UAEXAAVCArchive@@@Z
	DD	FLAT:?AssertValid@CObject@@UBEXXZ
	DD	FLAT:?Dump@CObject@@UBEXAAVCDumpContext@@@Z
CONST	ENDS
;	COMDAT ??_7CGdiObject@@6B@
CONST	SEGMENT
??_7CGdiObject@@6B@ DD FLAT:??_R4CGdiObject@@6B@	; CGdiObject::`vftable'
	DD	FLAT:?GetRuntimeClass@CGdiObject@@UBEPAUCRuntimeClass@@XZ
	DD	FLAT:??_ECGdiObject@@UAEPAXI@Z
	DD	FLAT:?Serialize@CObject@@UAEXAAVCArchive@@@Z
	DD	FLAT:?AssertValid@CObject@@UBEXXZ
	DD	FLAT:?Dump@CObject@@UBEXAAVCDumpContext@@@Z
CONST	ENDS
;	COMDAT ??_C@_00CNPNBAHC@@
CONST	SEGMENT
??_C@_00CNPNBAHC@@ DB 00H				; `string'
CONST	ENDS
;	COMDAT ??_R0PAVCException@@@8
data$r	SEGMENT
??_R0PAVCException@@@8 DD FLAT:??_7type_info@@6B@	; CException * `RTTI Type Descriptor'
	DD	00H
	DB	'.PAVCException@@', 00H
data$r	ENDS
;	COMDAT xdata$x
xdata$x	SEGMENT
__unwindtable$?DrawDragSelectRectangle@CRadar@@IAEXPAVCDC@@JJPAJ@Z DD 0ffffffffH
	DD	FLAT:__unwindfunclet$?DrawDragSelectRectangle@CRadar@@IAEXPAVCDC@@JJPAJ@Z$0
	DD	00H
	DD	FLAT:__unwindfunclet$?DrawDragSelectRectangle@CRadar@@IAEXPAVCDC@@JJPAJ@Z$1
__ehfuncinfo$?DrawDragSelectRectangle@CRadar@@IAEXPAVCDC@@JJPAJ@Z DD 019930522H
	DD	02H
	DD	FLAT:__unwindtable$?DrawDragSelectRectangle@CRadar@@IAEXPAVCDC@@JJPAJ@Z
	DD	2 DUP(00H)
	DD	2 DUP(00H)
	DD	00H
	DD	01H
xdata$x	ENDS
;	COMDAT xdata$x
xdata$x	SEGMENT
__unwindtable$?OnPaint@CRadar@@IAEXXZ DD 0ffffffffH
	DD	FLAT:__unwindfunclet$?OnPaint@CRadar@@IAEXXZ$0
	DD	00H
	DD	FLAT:__unwindfunclet$?OnPaint@CRadar@@IAEXXZ$2
__ehfuncinfo$?OnPaint@CRadar@@IAEXXZ DD 019930522H
	DD	02H
	DD	FLAT:__unwindtable$?OnPaint@CRadar@@IAEXXZ
	DD	2 DUP(00H)
	DD	2 DUP(00H)
	DD	00H
	DD	01H
xdata$x	ENDS
;	COMDAT xdata$x
xdata$x	SEGMENT
__ehfuncinfo$?OnMouseMove@CRadar@@IAEXIVCPoint@@@Z DD 019930522H
	DD	0aH
	DD	FLAT:__unwindtable$?OnMouseMove@CRadar@@IAEXIVCPoint@@@Z
	DD	2 DUP(00H)
	DD	2 DUP(00H)
	DD	00H
	DD	01H
__unwindtable$?OnMouseMove@CRadar@@IAEXIVCPoint@@@Z DD 0ffffffffH
	DD	FLAT:__unwindfunclet$?OnMouseMove@CRadar@@IAEXIVCPoint@@@Z$1
	DD	00H
	DD	FLAT:__unwindfunclet$?OnMouseMove@CRadar@@IAEXIVCPoint@@@Z$2
	DD	01H
	DD	FLAT:__unwindfunclet$?OnMouseMove@CRadar@@IAEXIVCPoint@@@Z$3
	DD	02H
	DD	FLAT:__unwindfunclet$?OnMouseMove@CRadar@@IAEXIVCPoint@@@Z$4
	DD	03H
	DD	FLAT:__unwindfunclet$?OnMouseMove@CRadar@@IAEXIVCPoint@@@Z$5
	DD	00H
	DD	FLAT:__unwindfunclet$?OnMouseMove@CRadar@@IAEXIVCPoint@@@Z$7
	DD	05H
	DD	FLAT:__unwindfunclet$?OnMouseMove@CRadar@@IAEXIVCPoint@@@Z$8
	DD	06H
	DD	FLAT:__unwindfunclet$?OnMouseMove@CRadar@@IAEXIVCPoint@@@Z$9
	DD	05H
	DD	FLAT:__unwindfunclet$?OnMouseMove@CRadar@@IAEXIVCPoint@@@Z$12
	DD	08H
	DD	FLAT:__unwindfunclet$?OnMouseMove@CRadar@@IAEXIVCPoint@@@Z$13
xdata$x	ENDS
;	COMDAT xdata$x
xdata$x	SEGMENT
__unwindtable$??0CRadar@@QAE@PAUIChartCtrl@@@Z DD 0ffffffffH
	DD	FLAT:__unwindfunclet$??0CRadar@@QAE@PAUIChartCtrl@@@Z$0
	DD	00H
	DD	FLAT:__unwindfunclet$??0CRadar@@QAE@PAUIChartCtrl@@@Z$1
__ehfuncinfo$??0CRadar@@QAE@PAUIChartCtrl@@@Z DD 019930522H
	DD	02H
	DD	FLAT:__unwindtable$??0CRadar@@QAE@PAUIChartCtrl@@@Z
	DD	2 DUP(00H)
	DD	2 DUP(00H)
	DD	00H
	DD	01H
xdata$x	ENDS
;	COMDAT xdata$x
xdata$x	SEGMENT
__catchsym$??1CGdiObject@@UAE@XZ$3 DD 00H
	DD	FLAT:??_R0PAVCException@@@8
	DD	0fffffde4H
	DD	FLAT:__catch$??1CGdiObject@@UAE@XZ$0
__tryblocktable$??1CGdiObject@@UAE@XZ DD 00H
	DD	00H
	DD	02H
	DD	01H
	DD	FLAT:__catchsym$??1CGdiObject@@UAE@XZ$3
__unwindtable$??1CGdiObject@@UAE@XZ DD 0ffffffffH
	DD	00H
	DD	0ffffffffH
	DD	00H
	DD	01H
	DD	FLAT:__unwindfunclet$??1CGdiObject@@UAE@XZ$2
__ehfuncinfo$??1CGdiObject@@UAE@XZ DD 019930522H
	DD	03H
	DD	FLAT:__unwindtable$??1CGdiObject@@UAE@XZ
	DD	01H
	DD	FLAT:__tryblocktable$??1CGdiObject@@UAE@XZ
	DD	2 DUP(00H)
	DD	00H
	DD	05H
xdata$x	ENDS
;	COMDAT xdata$x
xdata$x	SEGMENT
__unwindtable$??HATL@@YA?AV?$CStringT@DV?$StrTraitMFC_DLL@DV?$ChTraitsCRT@D@ATL@@@@@0@ABV10@PBD@Z DD 0ffffffffH
	DD	FLAT:__unwindfunclet$??HATL@@YA?AV?$CStringT@DV?$StrTraitMFC_DLL@DV?$ChTraitsCRT@D@ATL@@@@@0@ABV10@PBD@Z$0
__ehfuncinfo$??HATL@@YA?AV?$CStringT@DV?$StrTraitMFC_DLL@DV?$ChTraitsCRT@D@ATL@@@@@0@ABV10@PBD@Z DD 019930522H
	DD	01H
	DD	FLAT:__unwindtable$??HATL@@YA?AV?$CStringT@DV?$StrTraitMFC_DLL@DV?$ChTraitsCRT@D@ATL@@@@@0@ABV10@PBD@Z
	DD	2 DUP(00H)
	DD	2 DUP(00H)
	DD	00H
	DD	01H
xdata$x	ENDS
;	COMDAT xdata$x
xdata$x	SEGMENT
__unwindtable$??HATL@@YA?AV?$CStringT@DV?$StrTraitMFC_DLL@DV?$ChTraitsCRT@D@ATL@@@@@0@ABV10@0@Z DD 0ffffffffH
	DD	FLAT:__unwindfunclet$??HATL@@YA?AV?$CStringT@DV?$StrTraitMFC_DLL@DV?$ChTraitsCRT@D@ATL@@@@@0@ABV10@0@Z$0
__ehfuncinfo$??HATL@@YA?AV?$CStringT@DV?$StrTraitMFC_DLL@DV?$ChTraitsCRT@D@ATL@@@@@0@ABV10@0@Z DD 019930522H
	DD	01H
	DD	FLAT:__unwindtable$??HATL@@YA?AV?$CStringT@DV?$StrTraitMFC_DLL@DV?$ChTraitsCRT@D@ATL@@@@@0@ABV10@0@Z
	DD	2 DUP(00H)
	DD	2 DUP(00H)
	DD	00H
	DD	01H
xdata$x	ENDS
; Function compile flags: /Ogtp
; File C:\Program Files (x86)\Microsoft Visual Studio\2019\Community\VC\Tools\MSVC\14.29.30133\atlmfc\include\afx.inl
;	COMDAT ??_GCRadar@@UAEPAXI@Z
_TEXT	SEGMENT
___flags$ = 8						; size = 4
??_GCRadar@@UAEPAXI@Z PROC				; CRadar::`scalar deleting destructor', COMDAT
; _this$ = ecx
  00000	55		 push	 ebp
  00001	8b ec		 mov	 ebp, esp
  00003	56		 push	 esi
  00004	8b f1		 mov	 esi, ecx
  00006	8d 8e 84 00 00
	00		 lea	 ecx, DWORD PTR [esi+132]
  0000c	ff 15 00 00 00
	00		 call	 DWORD PTR __imp_??1?$CStringT@DV?$StrTraitMFC_DLL@DV?$ChTraitsCRT@D@ATL@@@@@ATL@@QAE@XZ
  00012	8b ce		 mov	 ecx, esi
  00014	e8 00 00 00 00	 call	 ??1CWnd@@UAE@XZ		; CWnd::~CWnd
  00019	8b 45 08	 mov	 eax, DWORD PTR ___flags$[ebp]
  0001c	a8 01		 test	 al, 1
  0001e	74 22		 je	 SHORT $LN12@scalar
  00020	a8 04		 test	 al, 4
  00022	75 10		 jne	 SHORT $LN3@scalar

; 112  : 	{ ::operator delete(p); }

  00024	56		 push	 esi
  00025	e8 00 00 00 00	 call	 ??3@YAXPAX@Z		; operator delete
  0002a	83 c4 04	 add	 esp, 4
  0002d	8b c6		 mov	 eax, esi
  0002f	5e		 pop	 esi
  00030	5d		 pop	 ebp
  00031	c2 04 00	 ret	 4
$LN3@scalar:
  00034	68 08 01 00 00	 push	 264			; 00000108H
  00039	56		 push	 esi
  0003a	e8 00 00 00 00	 call	 ?__global_delete@@YAXPAXI@Z ; __global_delete
  0003f	83 c4 08	 add	 esp, 8
$LN12@scalar:
  00042	8b c6		 mov	 eax, esi
  00044	5e		 pop	 esi
  00045	5d		 pop	 ebp
  00046	c2 04 00	 ret	 4
??_GCRadar@@UAEPAXI@Z ENDP				; CRadar::`scalar deleting destructor'
_TEXT	ENDS
; Function compile flags: /Ogtp
; File D:\git\src\IBK\IBK_DRFN\ProjSrc\SrcChartEx\ChartOCX\ChartToolBar\Radar.cpp
; File C:\Program Files (x86)\Microsoft Visual Studio\2019\Community\VC\Tools\MSVC\14.29.30133\atlmfc\include\afxwin2.inl
; File D:\git\src\IBK\IBK_DRFN\ProjSrc\SrcChartEx\ChartOCX\ChartToolBar\Radar.cpp
; File C:\Program Files (x86)\Microsoft Visual Studio\2019\Community\VC\Tools\MSVC\14.29.30133\atlmfc\include\atltypes.h
; File D:\git\src\IBK\IBK_DRFN\ProjSrc\SrcChartEx\ChartOCX\ChartToolBar\Radar.cpp
; File C:\Program Files (x86)\Microsoft Visual Studio\2019\Community\VC\Tools\MSVC\14.29.30133\atlmfc\include\atltypes.h
; File D:\git\src\IBK\IBK_DRFN\ProjSrc\SrcChartEx\ChartOCX\ChartToolBar\Radar.cpp
; File C:\Program Files (x86)\Microsoft Visual Studio\2019\Community\VC\Tools\MSVC\14.29.30133\atlmfc\include\atltypes.h
; File D:\git\src\IBK\IBK_DRFN\ProjSrc\SrcChartEx\ChartOCX\ChartToolBar\Radar.cpp
; File C:\Program Files (x86)\Microsoft Visual Studio\2019\Community\VC\Tools\MSVC\14.29.30133\atlmfc\include\atltypes.h
; File D:\git\src\IBK\IBK_DRFN\ProjSrc\SrcChartEx\ChartOCX\ChartToolBar\Radar.cpp
; File C:\Program Files (x86)\Microsoft Visual Studio\2019\Community\VC\Tools\MSVC\14.29.30133\atlmfc\include\atltypes.h
; File D:\git\src\IBK\IBK_DRFN\ProjSrc\SrcChartEx\ChartOCX\ChartToolBar\Radar.cpp
; File C:\Program Files (x86)\Microsoft Visual Studio\2019\Community\VC\Tools\MSVC\14.29.30133\atlmfc\include\atltypes.h
; File D:\git\src\IBK\IBK_DRFN\ProjSrc\SrcChartEx\ChartOCX\ChartToolBar\Radar.cpp
; File C:\Program Files (x86)\Microsoft Visual Studio\2019\Community\VC\Tools\MSVC\14.29.30133\atlmfc\include\afxwin2.inl
; File D:\git\src\IBK\IBK_DRFN\ProjSrc\SrcChartEx\ChartOCX\ChartToolBar\Radar.cpp
;	COMDAT ?DrawNewRadarView@CRadar@@QAEXXZ
_TEXT	SEGMENT
$T1 = -4						; size = 4
?DrawNewRadarView@CRadar@@QAEXXZ PROC			; CRadar::DrawNewRadarView, COMDAT
; _this$ = ecx

; 647  : {

  00000	55		 push	 ebp
  00001	8b ec		 mov	 ebp, esp
  00003	51		 push	 ecx
  00004	53		 push	 ebx
  00005	56		 push	 esi
  00006	8b f1		 mov	 esi, ecx
  00008	57		 push	 edi

; 648  : 	// 1. Radar Chart의 Client 영역을 구하여 놓는다.
; 649  : 	GetClientRect( &m_rctRadarClient);

  00009	8d 9e 98 00 00
	00		 lea	 ebx, DWORD PTR [esi+152]
; File C:\Program Files (x86)\Microsoft Visual Studio\2019\Community\VC\Tools\MSVC\14.29.30133\atlmfc\include\afxwin2.inl

; 86   : 	{ ASSERT(::IsWindow(m_hWnd)); ::GetClientRect(m_hWnd, lpRect); }

  0000f	53		 push	 ebx
  00010	ff 76 20	 push	 DWORD PTR [esi+32]
  00013	ff 15 00 00 00
	00		 call	 DWORD PTR __imp__GetClientRect@8
; File D:\git\src\IBK\IBK_DRFN\ProjSrc\SrcChartEx\ChartOCX\ChartToolBar\Radar.cpp

; 651  : 	m_rgnRadarGraph = m_rctRadarClient;

  00019	0f 10 03	 movups	 xmm0, XMMWORD PTR [ebx]
; File C:\Program Files (x86)\Microsoft Visual Studio\2019\Community\VC\Tools\MSVC\14.29.30133\atlmfc\include\atltypes.h

; 698  : 	::InflateRect(this, -x, -y);

  0001c	6a fe		 push	 -2			; fffffffeH
; File D:\git\src\IBK\IBK_DRFN\ProjSrc\SrcChartEx\ChartOCX\ChartToolBar\Radar.cpp

; 651  : 	m_rgnRadarGraph = m_rctRadarClient;

  0001e	8d be d0 00 00
	00		 lea	 edi, DWORD PTR [esi+208]
; File C:\Program Files (x86)\Microsoft Visual Studio\2019\Community\VC\Tools\MSVC\14.29.30133\atlmfc\include\atltypes.h

; 698  : 	::InflateRect(this, -x, -y);

  00024	6a fe		 push	 -2			; fffffffeH
  00026	57		 push	 edi
; File D:\git\src\IBK\IBK_DRFN\ProjSrc\SrcChartEx\ChartOCX\ChartToolBar\Radar.cpp

; 651  : 	m_rgnRadarGraph = m_rctRadarClient;

  00027	0f 11 07	 movups	 XMMWORD PTR [edi], xmm0
; File C:\Program Files (x86)\Microsoft Visual Studio\2019\Community\VC\Tools\MSVC\14.29.30133\atlmfc\include\atltypes.h

; 698  : 	::InflateRect(this, -x, -y);

  0002a	ff 15 00 00 00
	00		 call	 DWORD PTR __imp__InflateRect@12
; File D:\git\src\IBK\IBK_DRFN\ProjSrc\SrcChartEx\ChartOCX\ChartToolBar\Radar.cpp

; 653  : 	m_rgnRadarGraph.right--;

  00030	8b 8e d8 00 00
	00		 mov	 ecx, DWORD PTR [esi+216]
  00036	0f 57 d2	 xorps	 xmm2, xmm2

; 654  : 	m_rgnRadarGraph.bottom--;

  00039	8b 86 dc 00 00
	00		 mov	 eax, DWORD PTR [esi+220]
  0003f	49		 dec	 ecx

; 655  : 	// 4. Graph의 Scale 변환 수치를 미리 구하여 놓는다.
; 656  : 	m_dXScale = 0;
; 657  : 	// (2003.12.03, 배승원) X Scale의 마지막 Index도 다른 것과 동등한 폭을 갖도록 한다.
; 658  : 	//		if( nDataSize > 1) m_dXScale = ( m_rgnRadarGraph.right - m_rgnRadarGraph.left) / ( nDataSize - 1.);
; 659  : 	//		기존의 위 Code는 전체 폭을 Data 개수보다 1적개 분할 하고 있으며,
; 660  : 	//		nDataSize 번째 Index 위치 (nDataSize-1분할의 끝경계)에서나 m_rgnRadarGraph.right값이 완성되도록 되어 있다.
; 661  : 	//		따라서, nDataSize으로 분할하고, nDataSize+1 번째 Index 위치 (nDataSize분할의 끝경계)에는 nDataSize번째 Index값으로 한번 더 연장처리한다.
; 662  : 	//		이때, Graph Region의 영역에 딱맞게 m_rgnRadarGraph.right+1까지의 폭을 nDataSize분할 하여야 한다.
; 663  : 	// (2004.04.16, 배승원) 이전의 nDataSize를 이용하여도 처리가 가능하게 m_nRadarDataRight로 변경한다.
; 664  : 	if( m_nRadarDataRight > 0)

  00040	8b 96 bc 00 00
	00		 mov	 edx, DWORD PTR [esi+188]
  00046	48		 dec	 eax
  00047	89 8e d8 00 00
	00		 mov	 DWORD PTR [esi+216], ecx
  0004d	89 86 dc 00 00
	00		 mov	 DWORD PTR [esi+220], eax
  00053	f2 0f 11 96 e0
	00 00 00	 movsd	 QWORD PTR [esi+224], xmm2
  0005b	85 d2		 test	 edx, edx
  0005d	7e 1f		 jle	 SHORT $LN21@DrawNewRad

; 665  : 		m_dXScale = ( m_rgnRadarGraph.right + 1 - m_rgnRadarGraph.left) / ( double)m_nRadarDataRight;

  0005f	2b 0f		 sub	 ecx, DWORD PTR [edi]
  00061	41		 inc	 ecx
  00062	66 0f 6e c2	 movd	 xmm0, edx
  00066	f3 0f e6 c0	 cvtdq2pd xmm0, xmm0
  0006a	66 0f 6e c9	 movd	 xmm1, ecx
  0006e	f3 0f e6 c9	 cvtdq2pd xmm1, xmm1
  00072	f2 0f 5e c8	 divsd	 xmm1, xmm0
  00076	f2 0f 11 8e e0
	00 00 00	 movsd	 QWORD PTR [esi+224], xmm1
$LN21@DrawNewRad:

; 666  : 	m_dYScale = 0;
; 667  : 	if( m_dRadarDataMax > m_dRadarDataMin)

  0007e	f2 0f 10 8e c8
	00 00 00	 movsd	 xmm1, QWORD PTR [esi+200]
  00086	f2 0f 11 96 e8
	00 00 00	 movsd	 QWORD PTR [esi+232], xmm2
  0008e	f2 0f 10 96 c0
	00 00 00	 movsd	 xmm2, QWORD PTR [esi+192]
  00096	66 0f 2f ca	 comisd	 xmm1, xmm2
  0009a	76 1e		 jbe	 SHORT $LN3@DrawNewRad

; 668  : 		m_dYScale = ( m_rgnRadarGraph.bottom - m_rgnRadarGraph.top)

  0009c	2b 86 d4 00 00
	00		 sub	 eax, DWORD PTR [esi+212]
  000a2	f2 0f 5c ca	 subsd	 xmm1, xmm2
  000a6	66 0f 6e c0	 movd	 xmm0, eax
  000aa	f3 0f e6 c0	 cvtdq2pd xmm0, xmm0
  000ae	f2 0f 5e c1	 divsd	 xmm0, xmm1
  000b2	f2 0f 11 86 e8
	00 00 00	 movsd	 QWORD PTR [esi+232], xmm0
$LN3@DrawNewRad:

; 672  : 	m_rctRadarSelect = m_rctRadarClient;

  000ba	0f 10 86 98 00
	00 00		 movups	 xmm0, XMMWORD PTR [esi+152]
; File C:\Program Files (x86)\Microsoft Visual Studio\2019\Community\VC\Tools\MSVC\14.29.30133\atlmfc\include\atltypes.h

; 698  : 	::InflateRect(this, -x, -y);

  000c1	6a fe		 push	 -2			; fffffffeH
; File D:\git\src\IBK\IBK_DRFN\ProjSrc\SrcChartEx\ChartOCX\ChartToolBar\Radar.cpp

; 672  : 	m_rctRadarSelect = m_rctRadarClient;

  000c3	8d 9e a8 00 00
	00		 lea	 ebx, DWORD PTR [esi+168]
; File C:\Program Files (x86)\Microsoft Visual Studio\2019\Community\VC\Tools\MSVC\14.29.30133\atlmfc\include\atltypes.h

; 698  : 	::InflateRect(this, -x, -y);

  000c9	6a 00		 push	 0
  000cb	53		 push	 ebx
; File D:\git\src\IBK\IBK_DRFN\ProjSrc\SrcChartEx\ChartOCX\ChartToolBar\Radar.cpp

; 672  : 	m_rctRadarSelect = m_rctRadarClient;

  000cc	0f 11 03	 movups	 XMMWORD PTR [ebx], xmm0
; File C:\Program Files (x86)\Microsoft Visual Studio\2019\Community\VC\Tools\MSVC\14.29.30133\atlmfc\include\atltypes.h

; 698  : 	::InflateRect(this, -x, -y);

  000cf	ff 15 00 00 00
	00		 call	 DWORD PTR __imp__InflateRect@12
; File D:\git\src\IBK\IBK_DRFN\ProjSrc\SrcChartEx\ChartOCX\ChartToolBar\Radar.cpp

; 679  : 	if( m_nRadarDataRight > 0)

  000d5	83 be bc 00 00
	00 00		 cmp	 DWORD PTR [esi+188], 0
  000dc	8b 07		 mov	 eax, DWORD PTR [edi]
  000de	89 45 fc	 mov	 DWORD PTR $T1[ebp], eax
  000e1	7e 69		 jle	 SHORT $LN4@DrawNewRad

; 680  : 	{
; 681  : 		m_rctRadarSelect.left	= int( ( m_nDataStartIndex - m_nRadarDataLeft)								* m_dXScale + m_rgnRadarGraph.left + 0.5);

  000e3	8b 8e b8 00 00
	00		 mov	 ecx, DWORD PTR [esi+184]
  000e9	8b 96 f0 00 00
	00		 mov	 edx, DWORD PTR [esi+240]
  000ef	f2 0f 10 9e e0
	00 00 00	 movsd	 xmm3, QWORD PTR [esi+224]
  000f7	66 0f 6e d0	 movd	 xmm2, eax

; 682  : 		// (2004.09.02, 배승원) 한 Data가 1 Pixel 이상을 차지할 경우, Right(우경계)의 위치는 m_nOnePageDataCount + 1 이후에 있어야
; 683  : 		//		마지막 Data의 영역을 포함하게 된다.
; 684  : 		m_rctRadarSelect.right	= int( ( m_nDataStartIndex - m_nRadarDataLeft + m_nOnePageDataCount + 1)	* m_dXScale + m_rgnRadarGraph.left + 0.5);

  000fb	8b 86 f4 00 00
	00		 mov	 eax, DWORD PTR [esi+244]
  00101	2b c1		 sub	 eax, ecx
  00103	40		 inc	 eax
  00104	03 c2		 add	 eax, edx
  00106	2b d1		 sub	 edx, ecx
  00108	f3 0f e6 d2	 cvtdq2pd xmm2, xmm2
  0010c	66 0f 6e c0	 movd	 xmm0, eax
  00110	f3 0f e6 c0	 cvtdq2pd xmm0, xmm0
  00114	8b 86 d8 00 00
	00		 mov	 eax, DWORD PTR [esi+216]
  0011a	f2 0f 59 c3	 mulsd	 xmm0, xmm3
  0011e	f2 0f 58 c2	 addsd	 xmm0, xmm2
  00122	f2 0f 58 05 00
	00 00 00	 addsd	 xmm0, QWORD PTR __real@3fe0000000000000
  0012a	f2 0f 2c f8	 cvttsd2si edi, xmm0
  0012e	66 0f 6e c2	 movd	 xmm0, edx
  00132	f3 0f e6 c0	 cvtdq2pd xmm0, xmm0
  00136	f2 0f 59 c3	 mulsd	 xmm0, xmm3
  0013a	f2 0f 58 c2	 addsd	 xmm0, xmm2
  0013e	f2 0f 58 05 00
	00 00 00	 addsd	 xmm0, QWORD PTR __real@3fe0000000000000
  00146	f2 0f 2c c8	 cvttsd2si ecx, xmm0

; 685  : 	}

  0014a	eb 0c		 jmp	 SHORT $LN5@DrawNewRad
$LN4@DrawNewRad:

; 686  : 	// 5.2.2 Data가 없는 경우 전체 선택으로 설정한다.
; 687  : 	else
; 688  : 	{
; 689  : 		m_rctRadarSelect.left = m_rgnRadarGraph.left;
; 690  : 		m_rctRadarSelect.right = m_rgnRadarGraph.right + 1;		// Graph와 Region의 차이때문에 + 1

  0014c	8b 86 d8 00 00
	00		 mov	 eax, DWORD PTR [esi+216]
  00152	8b 4d fc	 mov	 ecx, DWORD PTR $T1[ebp]
  00155	8d 78 01	 lea	 edi, DWORD PTR [eax+1]
$LN5@DrawNewRad:

; 691  : 	}
; 692  : 
; 693  : 	// 5.3 설정된 Data View Width에 따라 Radar Chart의 선택영역 오른쪽을 보정한다.
; 694  : 	//		(Radar Chart에는 우측여백이나 최소 X Scale이 없기 때문이다. Rectangle과 Region의 차이를 이해해야 한다.)
; 695  : 	if( m_rgnRadarGraph.right < m_rctRadarSelect.right) m_rctRadarSelect.right = m_rgnRadarGraph.right + 1;

  00158	89 0b		 mov	 DWORD PTR [ebx], ecx
  0015a	89 be b0 00 00
	00		 mov	 DWORD PTR [esi+176], edi
  00160	3b c7		 cmp	 eax, edi
  00162	7d 07		 jge	 SHORT $LN6@DrawNewRad
  00164	40		 inc	 eax
  00165	89 86 b0 00 00
	00		 mov	 DWORD PTR [esi+176], eax
$LN6@DrawNewRad:
; File C:\Program Files (x86)\Microsoft Visual Studio\2019\Community\VC\Tools\MSVC\14.29.30133\atlmfc\include\afxwin2.inl

; 142  : 	{ ASSERT(::IsWindow(m_hWnd)); return ::RedrawWindow(m_hWnd, lpRectUpdate, (HRGN)prgnUpdate->GetSafeHandle(), flags); }

  0016b	68 05 01 00 00	 push	 261			; 00000105H
  00170	6a 00		 push	 0
  00172	6a 00		 push	 0
  00174	ff 76 20	 push	 DWORD PTR [esi+32]
  00177	ff 15 00 00 00
	00		 call	 DWORD PTR __imp__RedrawWindow@16
  0017d	5f		 pop	 edi
  0017e	5e		 pop	 esi
  0017f	5b		 pop	 ebx
; File D:\git\src\IBK\IBK_DRFN\ProjSrc\SrcChartEx\ChartOCX\ChartToolBar\Radar.cpp

; 700  : }

  00180	8b e5		 mov	 esp, ebp
  00182	5d		 pop	 ebp
  00183	c3		 ret	 0
?DrawNewRadarView@CRadar@@QAEXXZ ENDP			; CRadar::DrawNewRadarView
_TEXT	ENDS
; Function compile flags: /Ogtp
; File D:\git\src\IBK\IBK_DRFN\ProjSrc\SrcChartEx\ChartOCX\ChartToolBar\Radar.cpp
; File C:\Program Files (x86)\Microsoft Visual Studio\2019\Community\VC\Tools\MSVC\14.29.30133\atlmfc\include\atltypes.h
; File D:\git\src\IBK\IBK_DRFN\ProjSrc\SrcChartEx\ChartOCX\ChartToolBar\Radar.cpp
; File C:\Program Files (x86)\Microsoft Visual Studio\2019\Community\VC\Tools\MSVC\14.29.30133\atlmfc\include\atltypes.h
; File D:\git\src\IBK\IBK_DRFN\ProjSrc\SrcChartEx\ChartOCX\ChartToolBar\Radar.cpp
; File C:\Program Files (x86)\Microsoft Visual Studio\2019\Community\VC\Tools\MSVC\14.29.30133\atlmfc\include\atltypes.h
; File D:\git\src\IBK\IBK_DRFN\ProjSrc\SrcChartEx\ChartOCX\ChartToolBar\Radar.cpp
; File C:\Program Files (x86)\Microsoft Visual Studio\2019\Community\VC\Tools\MSVC\14.29.30133\atlmfc\include\atltypes.h
; File C:\Program Files (x86)\Microsoft Visual Studio\2019\Community\VC\Tools\MSVC\14.29.30133\atlmfc\include\afxwin1.inl
; File C:\Program Files (x86)\Microsoft Visual Studio\2019\Community\VC\Tools\MSVC\14.29.30133\atlmfc\include\atltypes.h
; File D:\git\src\IBK\IBK_DRFN\ProjSrc\SrcChartEx\ChartOCX\ChartToolBar\Radar.cpp
; File C:\Program Files (x86)\Microsoft Visual Studio\2019\Community\VC\Tools\MSVC\14.29.30133\atlmfc\include\atltypes.h
; File D:\git\src\IBK\IBK_DRFN\ProjSrc\SrcChartEx\ChartOCX\ChartToolBar\Radar.cpp
; File C:\Program Files (x86)\Microsoft Visual Studio\2019\Community\VC\Tools\MSVC\14.29.30133\atlmfc\include\atltypes.h
; File C:\Program Files (x86)\Microsoft Visual Studio\2019\Community\VC\Tools\MSVC\14.29.30133\atlmfc\include\afxwin1.inl
; File C:\Program Files (x86)\Microsoft Visual Studio\2019\Community\VC\Tools\MSVC\14.29.30133\atlmfc\include\atltypes.h
; File C:\Program Files (x86)\Microsoft Visual Studio\2019\Community\VC\Tools\MSVC\14.29.30133\atlmfc\include\afxwin1.inl
; File C:\Program Files (x86)\Microsoft Visual Studio\2019\Community\VC\Tools\MSVC\14.29.30133\atlmfc\include\atltypes.h
; File D:\git\src\IBK\IBK_DRFN\ProjSrc\SrcChartEx\ChartOCX\ChartToolBar\Radar.cpp
; File C:\Program Files (x86)\Microsoft Visual Studio\2019\Community\VC\Tools\MSVC\14.29.30133\atlmfc\include\atltypes.h
; File C:\Program Files (x86)\Microsoft Visual Studio\2019\Community\VC\Tools\MSVC\14.29.30133\atlmfc\include\afxwin1.inl
; File D:\git\src\IBK\IBK_DRFN\ProjSrc\SrcChartEx\ChartOCX\ChartToolBar\Radar.cpp
;	COMDAT ?DrawRectangleInRegion@CRadar@@IBEXPAVCDC@@JJ@Z
_TEXT	SEGMENT
_p_pDC$GSCopy$1$ = -28					; size = 4
_rctDragSelect$3$ = -24					; size = 4
_rctDragSelect$ = -20					; size = 16
__$ArrayPad$ = -4					; size = 4
_p_pDC$ = 8						; size = 4
_p_nDragSelectStart$ = 12				; size = 4
_p_nDragSelectEnd$ = 16					; size = 4
?DrawRectangleInRegion@CRadar@@IBEXPAVCDC@@JJ@Z PROC	; CRadar::DrawRectangleInRegion, COMDAT
; _this$ = ecx

; 621  : {

  00000	55		 push	 ebp
  00001	8b ec		 mov	 ebp, esp
  00003	83 ec 1c	 sub	 esp, 28			; 0000001cH
  00006	a1 00 00 00 00	 mov	 eax, DWORD PTR ___security_cookie
  0000b	33 c5		 xor	 eax, ebp
  0000d	89 45 fc	 mov	 DWORD PTR __$ArrayPad$[ebp], eax
; File C:\Program Files (x86)\Microsoft Visual Studio\2019\Community\VC\Tools\MSVC\14.29.30133\atlmfc\include\atltypes.h

; 540  : 	left = l;

  00010	8b 55 10	 mov	 edx, DWORD PTR _p_nDragSelectEnd$[ebp]
; File D:\git\src\IBK\IBK_DRFN\ProjSrc\SrcChartEx\ChartOCX\ChartToolBar\Radar.cpp

; 621  : {

  00013	8b 45 08	 mov	 eax, DWORD PTR _p_pDC$[ebp]
  00016	53		 push	 ebx
  00017	56		 push	 esi
; File C:\Program Files (x86)\Microsoft Visual Studio\2019\Community\VC\Tools\MSVC\14.29.30133\atlmfc\include\atltypes.h

; 540  : 	left = l;

  00018	8b 75 0c	 mov	 esi, DWORD PTR _p_nDragSelectStart$[ebp]
; File D:\git\src\IBK\IBK_DRFN\ProjSrc\SrcChartEx\ChartOCX\ChartToolBar\Radar.cpp

; 621  : {

  0001b	8b d9		 mov	 ebx, ecx
  0001d	89 45 e4	 mov	 DWORD PTR _p_pDC$GSCopy$1$[ebp], eax
; File C:\Program Files (x86)\Microsoft Visual Studio\2019\Community\VC\Tools\MSVC\14.29.30133\atlmfc\include\atltypes.h

; 540  : 	left = l;

  00020	3b f2		 cmp	 esi, edx
  00022	8b ce		 mov	 ecx, esi
; File D:\git\src\IBK\IBK_DRFN\ProjSrc\SrcChartEx\ChartOCX\ChartToolBar\Radar.cpp

; 621  : {

  00024	57		 push	 edi
; File C:\Program Files (x86)\Microsoft Visual Studio\2019\Community\VC\Tools\MSVC\14.29.30133\atlmfc\include\atltypes.h

; 541  : 	top = t;

  00025	8b bb d4 00 00
	00		 mov	 edi, DWORD PTR [ebx+212]
  0002b	8d 46 01	 lea	 eax, DWORD PTR [esi+1]
; File C:\Program Files (x86)\Microsoft Visual Studio\2019\Community\VC\Tools\MSVC\14.29.30133\atlmfc\include\afxwin1.inl

; 541  : 	{ ASSERT(m_hDC != NULL); return ::Rectangle(m_hDC, lpRect->left, lpRect->top,

  0002e	8b 75 e4	 mov	 esi, DWORD PTR _p_pDC$GSCopy$1$[ebp]
; File C:\Program Files (x86)\Microsoft Visual Studio\2019\Community\VC\Tools\MSVC\14.29.30133\atlmfc\include\atltypes.h

; 540  : 	left = l;

  00031	0f 4f c8	 cmovg	 ecx, eax
; File D:\git\src\IBK\IBK_DRFN\ProjSrc\SrcChartEx\ChartOCX\ChartToolBar\Radar.cpp

; 631  : 	CRect rctDragSelect( p_nDragSelectStart, m_rgnRadarGraph.top, p_nDragSelectEnd, m_rgnRadarGraph.bottom + 1);

  00034	8b 83 dc 00 00
	00		 mov	 eax, DWORD PTR [ebx+220]
; File C:\Program Files (x86)\Microsoft Visual Studio\2019\Community\VC\Tools\MSVC\14.29.30133\atlmfc\include\atltypes.h

; 540  : 	left = l;

  0003a	89 4d e8	 mov	 DWORD PTR _rctDragSelect$3$[ebp], ecx
  0003d	89 4d ec	 mov	 DWORD PTR _rctDragSelect$[ebp], ecx
  00040	8d 4a 01	 lea	 ecx, DWORD PTR [edx+1]
  00043	0f 4f ca	 cmovg	 ecx, edx

; 541  : 	top = t;

  00046	89 7d f0	 mov	 DWORD PTR _rctDragSelect$[ebp+4], edi
; File D:\git\src\IBK\IBK_DRFN\ProjSrc\SrcChartEx\ChartOCX\ChartToolBar\Radar.cpp

; 631  : 	CRect rctDragSelect( p_nDragSelectStart, m_rgnRadarGraph.top, p_nDragSelectEnd, m_rgnRadarGraph.bottom + 1);

  00049	40		 inc	 eax
; File C:\Program Files (x86)\Microsoft Visual Studio\2019\Community\VC\Tools\MSVC\14.29.30133\atlmfc\include\atltypes.h

; 542  : 	right = r;

  0004a	89 4d f4	 mov	 DWORD PTR _rctDragSelect$[ebp+8], ecx
; File C:\Program Files (x86)\Microsoft Visual Studio\2019\Community\VC\Tools\MSVC\14.29.30133\atlmfc\include\afxwin1.inl

; 541  : 	{ ASSERT(m_hDC != NULL); return ::Rectangle(m_hDC, lpRect->left, lpRect->top,

  0004d	50		 push	 eax
  0004e	51		 push	 ecx
  0004f	57		 push	 edi
  00050	ff 75 e8	 push	 DWORD PTR _rctDragSelect$3$[ebp]
  00053	8b 3d 00 00 00
	00		 mov	 edi, DWORD PTR __imp__Rectangle@20
  00059	ff 76 04	 push	 DWORD PTR [esi+4]
; File C:\Program Files (x86)\Microsoft Visual Studio\2019\Community\VC\Tools\MSVC\14.29.30133\atlmfc\include\atltypes.h

; 543  : 	bottom = b;

  0005c	89 45 f8	 mov	 DWORD PTR _rctDragSelect$[ebp+12], eax
; File C:\Program Files (x86)\Microsoft Visual Studio\2019\Community\VC\Tools\MSVC\14.29.30133\atlmfc\include\afxwin1.inl

; 541  : 	{ ASSERT(m_hDC != NULL); return ::Rectangle(m_hDC, lpRect->left, lpRect->top,

  0005f	ff d7		 call	 edi
; File C:\Program Files (x86)\Microsoft Visual Studio\2019\Community\VC\Tools\MSVC\14.29.30133\atlmfc\include\atltypes.h

; 576  : 	return right - left;

  00061	8b 45 f4	 mov	 eax, DWORD PTR _rctDragSelect$[ebp+8]
  00064	2b 45 ec	 sub	 eax, DWORD PTR _rctDragSelect$[ebp]
; File D:\git\src\IBK\IBK_DRFN\ProjSrc\SrcChartEx\ChartOCX\ChartToolBar\Radar.cpp

; 637  : 	if( abs( rctDragSelect.Width()) > 2)

  00067	99		 cdq
  00068	33 c2		 xor	 eax, edx
  0006a	2b c2		 sub	 eax, edx
  0006c	83 f8 02	 cmp	 eax, 2
  0006f	7e 1f		 jle	 SHORT $LN4@DrawRectan
; File C:\Program Files (x86)\Microsoft Visual Studio\2019\Community\VC\Tools\MSVC\14.29.30133\atlmfc\include\atltypes.h

; 698  : 	::InflateRect(this, -x, -y);

  00071	6a ff		 push	 -1
  00073	6a ff		 push	 -1
  00075	8d 45 ec	 lea	 eax, DWORD PTR _rctDragSelect$[ebp]
  00078	50		 push	 eax
  00079	ff 15 00 00 00
	00		 call	 DWORD PTR __imp__InflateRect@12
; File C:\Program Files (x86)\Microsoft Visual Studio\2019\Community\VC\Tools\MSVC\14.29.30133\atlmfc\include\afxwin1.inl

; 541  : 	{ ASSERT(m_hDC != NULL); return ::Rectangle(m_hDC, lpRect->left, lpRect->top,

  0007f	ff 75 f8	 push	 DWORD PTR _rctDragSelect$[ebp+12]
  00082	ff 75 f4	 push	 DWORD PTR _rctDragSelect$[ebp+8]
  00085	ff 75 f0	 push	 DWORD PTR _rctDragSelect$[ebp+4]
  00088	ff 75 ec	 push	 DWORD PTR _rctDragSelect$[ebp]
  0008b	ff 76 04	 push	 DWORD PTR [esi+4]
  0008e	ff d7		 call	 edi
$LN4@DrawRectan:
; File D:\git\src\IBK\IBK_DRFN\ProjSrc\SrcChartEx\ChartOCX\ChartToolBar\Radar.cpp

; 642  : }

  00090	8b 4d fc	 mov	 ecx, DWORD PTR __$ArrayPad$[ebp]
  00093	5f		 pop	 edi
  00094	5e		 pop	 esi
  00095	33 cd		 xor	 ecx, ebp
  00097	5b		 pop	 ebx
  00098	e8 00 00 00 00	 call	 @__security_check_cookie@4
  0009d	8b e5		 mov	 esp, ebp
  0009f	5d		 pop	 ebp
  000a0	c2 0c 00	 ret	 12			; 0000000cH
?DrawRectangleInRegion@CRadar@@IBEXPAVCDC@@JJ@Z ENDP	; CRadar::DrawRectangleInRegion
_TEXT	ENDS
; Function compile flags: /Ogtp
; File D:\git\src\IBK\IBK_DRFN\ProjSrc\SrcChartEx\ChartOCX\ChartToolBar\Radar.cpp
;	COMDAT ?GetDataIndex@CRadar@@IBEHAAJH@Z
_TEXT	SEGMENT
_p_nPointX$ = 8						; size = 4
_p_bWithCorrection$ = 12				; size = 4
?GetDataIndex@CRadar@@IBEHAAJH@Z PROC			; CRadar::GetDataIndex, COMDAT
; _this$ = ecx

; 591  : {

  00000	55		 push	 ebp
  00001	8b ec		 mov	 ebp, esp

; 592  : 	// 1. Point가 Graph 구간에 들어왔는지로 유효성을 판단한다.
; 593  : 	//		(Graph 영역밖이면서도 오차에 의해 유효한 Data Index가 나올 수 있기 때문이다.)
; 594  : 	//		(구간 설정을 감안하여 Data가 유효하지 않은 경우, point값을 한계값으로 조정하며,
; 595  : 	//		요청하지 않은 경우에는 -1로 설정한다.)
; 596  : 	int nDataIndex = 0;
; 597  : 	if( p_nPointX < m_rgnRadarGraph.left)

  00003	8b 91 d0 00 00
	00		 mov	 edx, DWORD PTR [ecx+208]
  00009	53		 push	 ebx
  0000a	8b 5d 08	 mov	 ebx, DWORD PTR _p_nPointX$[ebp]
  0000d	56		 push	 esi
  0000e	57		 push	 edi
  0000f	8b 33		 mov	 esi, DWORD PTR [ebx]
  00011	3b f2		 cmp	 esi, edx
  00013	7d 17		 jge	 SHORT $LN2@GetDataInd

; 598  : 	{
; 599  : 		nDataIndex = ( p_bWithCorrection ? m_nRadarDataLeft : -1);

  00015	83 7d 0c 00	 cmp	 DWORD PTR _p_bWithCorrection$[ebp], 0
  00019	74 0a		 je	 SHORT $LN9@GetDataInd
  0001b	8b 81 b8 00 00
	00		 mov	 eax, DWORD PTR [ecx+184]

; 600  : 		if( p_bWithCorrection) p_nPointX = m_rgnRadarGraph.left;

  00021	89 13		 mov	 DWORD PTR [ebx], edx
  00023	eb 23		 jmp	 SHORT $LN6@GetDataInd
$LN9@GetDataInd:

; 598  : 	{
; 599  : 		nDataIndex = ( p_bWithCorrection ? m_nRadarDataLeft : -1);

  00025	83 c8 ff	 or	 eax, -1
  00028	8b d6		 mov	 edx, esi

; 601  : 	}

  0002a	eb 1c		 jmp	 SHORT $LN6@GetDataInd
$LN2@GetDataInd:

; 602  : 	else if( m_rgnRadarGraph.right < p_nPointX)

  0002c	8b b9 d8 00 00
	00		 mov	 edi, DWORD PTR [ecx+216]
  00032	8b d6		 mov	 edx, esi
  00034	3b fe		 cmp	 edi, esi
  00036	7d 14		 jge	 SHORT $LN13@GetDataInd

; 603  : 	{
; 604  : 		nDataIndex = ( p_bWithCorrection ? m_nRadarDataRight : -1);

  00038	83 7d 0c 00	 cmp	 DWORD PTR _p_bWithCorrection$[ebp], 0
  0003c	74 35		 je	 SHORT $LN11@GetDataInd
  0003e	8b 81 bc 00 00
	00		 mov	 eax, DWORD PTR [ecx+188]

; 605  : 		if( p_bWithCorrection) p_nPointX = m_rgnRadarGraph.right;

  00044	8b d7		 mov	 edx, edi
  00046	89 3b		 mov	 DWORD PTR [ebx], edi
$LN6@GetDataInd:

; 606  : 	}
; 607  : 	// 2. Data Index를 산출하여 Return한다.
; 608  : 	//  (주의, 어느 선까지의 연산을 INT화 시키느냐가 값을 좌우한다.)
; 609  : 	if( nDataIndex) return nDataIndex;

  00048	85 c0		 test	 eax, eax
  0004a	75 20		 jne	 SHORT $LN1@GetDataInd
$LN13@GetDataInd:

; 610  : 	return int( ( p_nPointX - m_rgnRadarGraph.left) / m_dXScale) + m_nRadarDataLeft;

  0004c	2b 91 d0 00 00
	00		 sub	 edx, DWORD PTR [ecx+208]
  00052	66 0f 6e c2	 movd	 xmm0, edx
  00056	f3 0f e6 c0	 cvtdq2pd xmm0, xmm0
  0005a	f2 0f 5e 81 e0
	00 00 00	 divsd	 xmm0, QWORD PTR [ecx+224]
  00062	f2 0f 2c c0	 cvttsd2si eax, xmm0
  00066	03 81 b8 00 00
	00		 add	 eax, DWORD PTR [ecx+184]
$LN1@GetDataInd:

; 611  : }

  0006c	5f		 pop	 edi
  0006d	5e		 pop	 esi
  0006e	5b		 pop	 ebx
  0006f	5d		 pop	 ebp
  00070	c2 08 00	 ret	 8
$LN11@GetDataInd:
  00073	5f		 pop	 edi
  00074	5e		 pop	 esi
  00075	83 c8 ff	 or	 eax, -1
  00078	5b		 pop	 ebx
  00079	5d		 pop	 ebp
  0007a	c2 08 00	 ret	 8
?GetDataIndex@CRadar@@IBEHAAJH@Z ENDP			; CRadar::GetDataIndex
_TEXT	ENDS
; Function compile flags: /Ogtp
; File D:\git\src\IBK\IBK_DRFN\ProjSrc\SrcChartEx\ChartOCX\ChartToolBar\Radar.cpp
; File C:\Program Files (x86)\Microsoft Visual Studio\2019\Community\VC\Tools\MSVC\14.29.30133\atlmfc\include\afxwin1.inl
; File D:\git\src\IBK\IBK_DRFN\ProjSrc\SrcChartEx\ChartOCX\ChartToolBar\Radar.cpp
; File C:\Program Files (x86)\Microsoft Visual Studio\2019\Community\VC\Tools\MSVC\14.29.30133\atlmfc\include\afxwin1.inl
; File D:\git\src\IBK\IBK_DRFN\ProjSrc\SrcChartEx\ChartOCX\ChartToolBar\Radar.cpp
; File C:\Program Files (x86)\Microsoft Visual Studio\2019\Community\VC\Tools\MSVC\14.29.30133\atlmfc\include\afxwin1.inl
; File D:\git\src\IBK\IBK_DRFN\ProjSrc\SrcChartEx\ChartOCX\ChartToolBar\Radar.cpp
; File C:\Program Files (x86)\Microsoft Visual Studio\2019\Community\VC\Tools\MSVC\14.29.30133\atlmfc\include\afxwin1.inl
; File D:\git\src\IBK\IBK_DRFN\ProjSrc\SrcChartEx\ChartOCX\ChartToolBar\Radar.cpp
; File C:\Program Files (x86)\Microsoft Visual Studio\2019\Community\VC\Tools\MSVC\14.29.30133\atlmfc\include\afxwin1.inl
; File D:\git\src\IBK\IBK_DRFN\ProjSrc\SrcChartEx\ChartOCX\ChartToolBar\Radar.cpp
; File C:\Program Files (x86)\Microsoft Visual Studio\2019\Community\VC\Tools\MSVC\14.29.30133\atlmfc\include\afxwin1.inl
; File D:\git\src\IBK\IBK_DRFN\ProjSrc\SrcChartEx\ChartOCX\ChartToolBar\Radar.cpp
; File C:\Program Files (x86)\Microsoft Visual Studio\2019\Community\VC\Tools\MSVC\14.29.30133\atlmfc\include\afxwin1.inl
; File D:\git\src\IBK\IBK_DRFN\ProjSrc\SrcChartEx\ChartOCX\ChartToolBar\Radar.cpp
; File C:\Program Files (x86)\Microsoft Visual Studio\2019\Community\VC\Tools\MSVC\14.29.30133\atlmfc\include\afxwin1.inl
; File D:\git\src\IBK\IBK_DRFN\ProjSrc\SrcChartEx\ChartOCX\ChartToolBar\Radar.cpp
;	COMDAT ?DrawDragSelectRectangle@CRadar@@IAEXPAVCDC@@JJPAJ@Z
_TEXT	SEGMENT
_point$2 = -72						; size = 8
_pnDragPen$ = -64					; size = 8
_pOldPen$1$ = -56					; size = 4
_bmHatchBitmap$ = -52					; size = 8
tv343 = -44						; size = 4
_this$GSCopy$1$ = -40					; size = 4
tv342 = -36						; size = 4
_waHatchBits$ = -32					; size = 4
_lbrBrushLog$ = -28					; size = 12
__$ArrayPad$ = -16					; size = 4
__$EHRec$ = -12						; size = 12
_pDC$ = 8						; size = 4
_p_nDragSelectStart$ = 12				; size = 4
_p_nDragSelectEnd$ = 16					; size = 4
_p_nPreDragSelectEnd$ = 20				; size = 4
?DrawDragSelectRectangle@CRadar@@IAEXPAVCDC@@JJPAJ@Z PROC ; CRadar::DrawDragSelectRectangle, COMDAT
; _this$ = ecx

; 390  : {

  00000	55		 push	 ebp
  00001	8b ec		 mov	 ebp, esp
  00003	6a ff		 push	 -1
  00005	68 00 00 00 00	 push	 __ehhandler$?DrawDragSelectRectangle@CRadar@@IAEXPAVCDC@@JJPAJ@Z
  0000a	64 a1 00 00 00
	00		 mov	 eax, DWORD PTR fs:0
  00010	50		 push	 eax
  00011	83 ec 3c	 sub	 esp, 60			; 0000003cH
  00014	a1 00 00 00 00	 mov	 eax, DWORD PTR ___security_cookie
  00019	33 c5		 xor	 eax, ebp
  0001b	89 45 f0	 mov	 DWORD PTR __$ArrayPad$[ebp], eax
  0001e	53		 push	 ebx
  0001f	56		 push	 esi
  00020	57		 push	 edi
  00021	50		 push	 eax
  00022	8d 45 f4	 lea	 eax, DWORD PTR __$EHRec$[ebp]
  00025	64 a3 00 00 00
	00		 mov	 DWORD PTR fs:0, eax
  0002b	8b c1		 mov	 eax, ecx
  0002d	89 45 d8	 mov	 DWORD PTR _this$GSCopy$1$[ebp], eax
  00030	8b 75 14	 mov	 esi, DWORD PTR _p_nPreDragSelectEnd$[ebp]
  00033	8b 7d 08	 mov	 edi, DWORD PTR _pDC$[ebp]

; 391  : 	// 0. 먼저 이전과 이후의 Dragging End가 같은 경우를 제외한다.
; 392  : 	if( p_nPreDragSelectEnd && p_nDragSelectEnd == *p_nPreDragSelectEnd) return;

  00036	8b 55 10	 mov	 edx, DWORD PTR _p_nDragSelectEnd$[ebp]
  00039	85 f6		 test	 esi, esi
  0003b	74 08		 je	 SHORT $LN39@DrawDragSe
  0003d	3b 16		 cmp	 edx, DWORD PTR [esi]
  0003f	0f 84 29 01 00
	00		 je	 $LN36@DrawDragSe
$LN39@DrawDragSe:

; 393  : 
; 394  : 	// 0.5 주의, 왜 이렇게 할까? (Pen Size가 2인 경우라면 선이 m_rgnRadarGraph영역 밖으로 나가겠지?
; 395  : 	//		물론 여기서 Data Index를 조정하지 않으니까 실제적으로 그 선택영역을 조절하는 것은 아니다.
; 396  : 	if( p_nDragSelectStart	== m_rgnRadarGraph.left) p_nDragSelectStart++;

  00045	8b 88 d0 00 00
	00		 mov	 ecx, DWORD PTR [eax+208]

; 397  : 	if( p_nDragSelectEnd	== m_rgnRadarGraph.left) p_nDragSelectEnd++;

  0004b	8b 45 0c	 mov	 eax, DWORD PTR _p_nDragSelectStart$[ebp]
  0004e	3b c1		 cmp	 eax, ecx

; 398  : 
; 399  : 	// 1. Hatch Pen, XOR Mode로 설정한다.
; 400  : 	//		(참고, Pen Style중에 PS_ALTERNATE이 Win9x를 지원하지 않아 Pettern Pen으로 처리한다.
; 401  : 	//			또한 일반 PS_DOT나 BS_HATCHED는 그 점단위가 3 Pixel이어서 맞지않는다.)
; 402  : 	WORD waHatchBits[ 2] = { 0xAA, 0x55};

  00050	c7 45 e0 aa 00
	55 00		 mov	 DWORD PTR _waHatchBits$[ebp], 5570730 ; 005500aaH
; File C:\Program Files (x86)\Microsoft Visual Studio\2019\Community\VC\Tools\MSVC\14.29.30133\atlmfc\include\afxwin1.inl

; 70   : 	{ m_hObject = NULL; }

  00057	c7 45 d0 00 00
	00 00		 mov	 DWORD PTR _bmHatchBitmap$[ebp+4], 0

; 177  : 	{ }

  0005e	c7 45 cc 00 00
	00 00		 mov	 DWORD PTR _bmHatchBitmap$[ebp], OFFSET ??_7CBitmap@@6B@
; File D:\git\src\IBK\IBK_DRFN\ProjSrc\SrcChartEx\ChartOCX\ChartToolBar\Radar.cpp

; 397  : 	if( p_nDragSelectEnd	== m_rgnRadarGraph.left) p_nDragSelectEnd++;

  00065	8d 58 01	 lea	 ebx, DWORD PTR [eax+1]
  00068	0f 45 d8	 cmovne	 ebx, eax

; 398  : 
; 399  : 	// 1. Hatch Pen, XOR Mode로 설정한다.
; 400  : 	//		(참고, Pen Style중에 PS_ALTERNATE이 Win9x를 지원하지 않아 Pettern Pen으로 처리한다.
; 401  : 	//			또한 일반 PS_DOT나 BS_HATCHED는 그 점단위가 3 Pixel이어서 맞지않는다.)
; 402  : 	WORD waHatchBits[ 2] = { 0xAA, 0x55};

  0006b	3b d1		 cmp	 edx, ecx
  0006d	8d 42 01	 lea	 eax, DWORD PTR [edx+1]
  00070	89 5d dc	 mov	 DWORD PTR tv342[ebp], ebx
  00073	0f 45 c2	 cmovne	 eax, edx
  00076	89 45 d4	 mov	 DWORD PTR tv343[ebp], eax
; File C:\Program Files (x86)\Microsoft Visual Studio\2019\Community\VC\Tools\MSVC\14.29.30133\atlmfc\include\afxwin1.inl

; 182  : 	{ return Attach(::CreateBitmap(nWidth, nHeight, nPlanes, nBitcount, lpBits)); }

  00079	8d 45 e0	 lea	 eax, DWORD PTR _waHatchBits$[ebp]
; File D:\git\src\IBK\IBK_DRFN\ProjSrc\SrcChartEx\ChartOCX\ChartToolBar\Radar.cpp

; 403  : 	CBitmap bmHatchBitmap;

  0007c	c7 45 fc 00 00
	00 00		 mov	 DWORD PTR __$EHRec$[ebp+8], 0
; File C:\Program Files (x86)\Microsoft Visual Studio\2019\Community\VC\Tools\MSVC\14.29.30133\atlmfc\include\afxwin1.inl

; 182  : 	{ return Attach(::CreateBitmap(nWidth, nHeight, nPlanes, nBitcount, lpBits)); }

  00083	50		 push	 eax
  00084	6a 01		 push	 1
  00086	6a 01		 push	 1
  00088	6a 02		 push	 2
  0008a	6a 08		 push	 8
  0008c	ff 15 00 00 00
	00		 call	 DWORD PTR __imp__CreateBitmap@20
  00092	50		 push	 eax
  00093	8d 4d cc	 lea	 ecx, DWORD PTR _bmHatchBitmap$[ebp]
  00096	e8 00 00 00 00	 call	 ?Attach@CGdiObject@@QAEHPAX@Z ; CGdiObject::Attach

; 173  : 	{ return (HBITMAP)(this == NULL ? NULL : m_hObject); }

  0009b	8b 45 d0	 mov	 eax, DWORD PTR _bmHatchBitmap$[ebp+4]
; File D:\git\src\IBK\IBK_DRFN\ProjSrc\SrcChartEx\ChartOCX\ChartToolBar\Radar.cpp

; 407  : 	CPen pnDragPen( PS_GEOMETRIC, 1, &lbrBrushLog);

  0009e	8d 4d c0	 lea	 ecx, DWORD PTR _pnDragPen$[ebp]
  000a1	6a 00		 push	 0
  000a3	6a 00		 push	 0
; File C:\Program Files (x86)\Microsoft Visual Studio\2019\Community\VC\Tools\MSVC\14.29.30133\atlmfc\include\afxwin1.inl

; 173  : 	{ return (HBITMAP)(this == NULL ? NULL : m_hObject); }

  000a5	89 45 ec	 mov	 DWORD PTR _lbrBrushLog$[ebp+8], eax
; File D:\git\src\IBK\IBK_DRFN\ProjSrc\SrcChartEx\ChartOCX\ChartToolBar\Radar.cpp

; 407  : 	CPen pnDragPen( PS_GEOMETRIC, 1, &lbrBrushLog);

  000a8	8d 45 e4	 lea	 eax, DWORD PTR _lbrBrushLog$[ebp]
  000ab	50		 push	 eax
  000ac	6a 01		 push	 1
  000ae	68 00 00 01 00	 push	 65536			; 00010000H
  000b3	c7 45 e4 03 00
	00 00		 mov	 DWORD PTR _lbrBrushLog$[ebp], 3
  000ba	c7 45 e8 00 00
	00 00		 mov	 DWORD PTR _lbrBrushLog$[ebp+4], 0
  000c1	e8 00 00 00 00	 call	 ??0CPen@@QAE@HHPBUtagLOGBRUSH@@HPBK@Z ; CPen::CPen

; 408  : 	CPen *pOldPen = pDC->SelectObject( &pnDragPen);

  000c6	8d 45 c0	 lea	 eax, DWORD PTR _pnDragPen$[ebp]
  000c9	c6 45 fc 01	 mov	 BYTE PTR __$EHRec$[ebp+8], 1
  000cd	50		 push	 eax
  000ce	8b cf		 mov	 ecx, edi
  000d0	e8 00 00 00 00	 call	 ?SelectObject@CDC@@QAEPAVCPen@@PAV2@@Z ; CDC::SelectObject

; 409  : 	pDC->SetROP2( R2_XORPEN);

  000d5	6a 07		 push	 7
  000d7	8b cf		 mov	 ecx, edi
  000d9	89 45 c8	 mov	 DWORD PTR _pOldPen$1$[ebp], eax
  000dc	e8 00 00 00 00	 call	 ?SetROP2@CDC@@QAEHH@Z	; CDC::SetROP2
; File C:\Program Files (x86)\Microsoft Visual Studio\2019\Community\VC\Tools\MSVC\14.29.30133\atlmfc\include\afxwin1.inl

; 346  : 		VERIFY(::SetBrushOrgEx(m_hDC, x, y, &point));

  000e1	8d 45 b8	 lea	 eax, DWORD PTR _point$2[ebp]
  000e4	50		 push	 eax
  000e5	6a 01		 push	 1
  000e7	6a 00		 push	 0
  000e9	ff 77 04	 push	 DWORD PTR [edi+4]
  000ec	ff 15 00 00 00
	00		 call	 DWORD PTR __imp__SetBrushOrgEx@16
; File D:\git\src\IBK\IBK_DRFN\ProjSrc\SrcChartEx\ChartOCX\ChartToolBar\Radar.cpp

; 442  : 	HGDIOBJ hbrOldBrush = pDC->SelectObject( GetStockObject( NULL_BRUSH));

  000f2	6a 05		 push	 5
  000f4	ff 15 00 00 00
	00		 call	 DWORD PTR __imp__GetStockObject@4
; File C:\Program Files (x86)\Microsoft Visual Studio\2019\Community\VC\Tools\MSVC\14.29.30133\atlmfc\include\afxwin1.inl

; 366  : 		return (hObject != NULL) ? ::SelectObject(m_hDC, hObject) : NULL; }

  000fa	85 c0		 test	 eax, eax
  000fc	74 0e		 je	 SHORT $LN26@DrawDragSe
  000fe	50		 push	 eax
  000ff	ff 77 04	 push	 DWORD PTR [edi+4]
  00102	ff 15 00 00 00
	00		 call	 DWORD PTR __imp__SelectObject@8
  00108	8b d8		 mov	 ebx, eax
  0010a	eb 02		 jmp	 SHORT $LN27@DrawDragSe
$LN26@DrawDragSe:
  0010c	33 db		 xor	 ebx, ebx
$LN27@DrawDragSe:
; File D:\git\src\IBK\IBK_DRFN\ProjSrc\SrcChartEx\ChartOCX\ChartToolBar\Radar.cpp

; 444  : 	if( p_nPreDragSelectEnd) DrawRectangleInRegion( pDC, p_nDragSelectStart, *p_nPreDragSelectEnd);

  0010e	85 f6		 test	 esi, esi
  00110	74 0e		 je	 SHORT $LN5@DrawDragSe
  00112	ff 36		 push	 DWORD PTR [esi]
  00114	8b 4d d8	 mov	 ecx, DWORD PTR _this$GSCopy$1$[ebp]
  00117	ff 75 dc	 push	 DWORD PTR tv342[ebp]
  0011a	57		 push	 edi
  0011b	e8 00 00 00 00	 call	 ?DrawRectangleInRegion@CRadar@@IBEXPAVCDC@@JJ@Z ; CRadar::DrawRectangleInRegion
$LN5@DrawDragSe:

; 445  : 	// 3.6.2 새로운 영역을 Boxing한다.
; 446  : 	DrawRectangleInRegion( pDC, p_nDragSelectStart, p_nDragSelectEnd);

  00120	ff 75 d4	 push	 DWORD PTR tv343[ebp]
  00123	8b 4d d8	 mov	 ecx, DWORD PTR _this$GSCopy$1$[ebp]
  00126	ff 75 dc	 push	 DWORD PTR tv342[ebp]
  00129	57		 push	 edi
  0012a	e8 00 00 00 00	 call	 ?DrawRectangleInRegion@CRadar@@IBEXPAVCDC@@JJ@Z ; CRadar::DrawRectangleInRegion
; File C:\Program Files (x86)\Microsoft Visual Studio\2019\Community\VC\Tools\MSVC\14.29.30133\atlmfc\include\afxwin1.inl

; 366  : 		return (hObject != NULL) ? ::SelectObject(m_hDC, hObject) : NULL; }

  0012f	85 db		 test	 ebx, ebx
  00131	74 0a		 je	 SHORT $LN30@DrawDragSe
  00133	53		 push	 ebx
  00134	ff 77 04	 push	 DWORD PTR [edi+4]
  00137	ff 15 00 00 00
	00		 call	 DWORD PTR __imp__SelectObject@8
$LN30@DrawDragSe:
; File D:\git\src\IBK\IBK_DRFN\ProjSrc\SrcChartEx\ChartOCX\ChartToolBar\Radar.cpp

; 451  : 	pDC->SelectObject( pOldPen);

  0013d	ff 75 c8	 push	 DWORD PTR _pOldPen$1$[ebp]
  00140	8b cf		 mov	 ecx, edi
  00142	e8 00 00 00 00	 call	 ?SelectObject@CDC@@QAEPAVCPen@@PAV2@@Z ; CDC::SelectObject

; 452  : 
; 453  : 	// 5. 끝으로 Dragging End를 Backup한다.
; 454  : 	if( p_nPreDragSelectEnd) *p_nPreDragSelectEnd = p_nDragSelectEnd;

  00147	85 f6		 test	 esi, esi
  00149	74 05		 je	 SHORT $LN6@DrawDragSe
  0014b	8b 45 d4	 mov	 eax, DWORD PTR tv343[ebp]
  0014e	89 06		 mov	 DWORD PTR [esi], eax
$LN6@DrawDragSe:
; File C:\Program Files (x86)\Microsoft Visual Studio\2019\Community\VC\Tools\MSVC\14.29.30133\atlmfc\include\afxwin1.inl

; 106  : 	{ }

  00150	8d 4d c0	 lea	 ecx, DWORD PTR _pnDragPen$[ebp]
  00153	c7 45 c0 00 00
	00 00		 mov	 DWORD PTR _pnDragPen$[ebp], OFFSET ??_7CPen@@6B@
  0015a	e8 00 00 00 00	 call	 ??1CGdiObject@@UAE@XZ	; CGdiObject::~CGdiObject

; 179  : 	{ }

  0015f	8d 4d cc	 lea	 ecx, DWORD PTR _bmHatchBitmap$[ebp]
  00162	c7 45 cc 00 00
	00 00		 mov	 DWORD PTR _bmHatchBitmap$[ebp], OFFSET ??_7CBitmap@@6B@
  00169	e8 00 00 00 00	 call	 ??1CGdiObject@@UAE@XZ	; CGdiObject::~CGdiObject
$LN36@DrawDragSe:
; File D:\git\src\IBK\IBK_DRFN\ProjSrc\SrcChartEx\ChartOCX\ChartToolBar\Radar.cpp

; 455  : }

  0016e	8b 4d f4	 mov	 ecx, DWORD PTR __$EHRec$[ebp]
  00171	64 89 0d 00 00
	00 00		 mov	 DWORD PTR fs:0, ecx
  00178	59		 pop	 ecx
  00179	5f		 pop	 edi
  0017a	5e		 pop	 esi
  0017b	5b		 pop	 ebx
  0017c	8b 4d f0	 mov	 ecx, DWORD PTR __$ArrayPad$[ebp]
  0017f	33 cd		 xor	 ecx, ebp
  00181	e8 00 00 00 00	 call	 @__security_check_cookie@4
  00186	8b e5		 mov	 esp, ebp
  00188	5d		 pop	 ebp
  00189	c2 10 00	 ret	 16			; 00000010H
_TEXT	ENDS
;	COMDAT text$x
text$x	SEGMENT
__unwindfunclet$?DrawDragSelectRectangle@CRadar@@IAEXPAVCDC@@JJPAJ@Z$0:
  00000	8d 4d cc	 lea	 ecx, DWORD PTR _bmHatchBitmap$[ebp]
  00003	e9 00 00 00 00	 jmp	 ??1CBitmap@@UAE@XZ	; CBitmap::~CBitmap
__unwindfunclet$?DrawDragSelectRectangle@CRadar@@IAEXPAVCDC@@JJPAJ@Z$1:
  00008	8d 4d c0	 lea	 ecx, DWORD PTR _pnDragPen$[ebp]
  0000b	e9 00 00 00 00	 jmp	 ??1CPen@@UAE@XZ		; CPen::~CPen
  00010	cc		 int	 3
  00011	cc		 int	 3
  00012	cc		 int	 3
  00013	cc		 int	 3
  00014	cc		 int	 3
__ehhandler$?DrawDragSelectRectangle@CRadar@@IAEXPAVCDC@@JJPAJ@Z:
  00015	90		 npad	 1
  00016	90		 npad	 1
  00017	8b 54 24 08	 mov	 edx, DWORD PTR [esp+8]
  0001b	8d 42 0c	 lea	 eax, DWORD PTR [edx+12]
  0001e	8b 4a b4	 mov	 ecx, DWORD PTR [edx-76]
  00021	33 c8		 xor	 ecx, eax
  00023	e8 00 00 00 00	 call	 @__security_check_cookie@4
  00028	8b 4a fc	 mov	 ecx, DWORD PTR [edx-4]
  0002b	33 c8		 xor	 ecx, eax
  0002d	e8 00 00 00 00	 call	 @__security_check_cookie@4
  00032	b8 00 00 00 00	 mov	 eax, OFFSET __ehfuncinfo$?DrawDragSelectRectangle@CRadar@@IAEXPAVCDC@@JJPAJ@Z
  00037	e9 00 00 00 00	 jmp	 ___CxxFrameHandler3
text$x	ENDS
?DrawDragSelectRectangle@CRadar@@IAEXPAVCDC@@JJPAJ@Z ENDP ; CRadar::DrawDragSelectRectangle
; Function compile flags: /Ogtp
; File D:\git\src\IBK\IBK_DRFN\ProjSrc\SrcChartEx\ChartOCX\ChartToolBar\Radar.cpp
; File C:\Program Files (x86)\Microsoft Visual Studio\2019\Community\VC\Tools\MSVC\14.29.30133\atlmfc\include\atltypes.h
; File D:\git\src\IBK\IBK_DRFN\ProjSrc\SrcChartEx\ChartOCX\ChartToolBar\Radar.cpp
;	COMDAT ?SetDataViewInfo@CRadar@@QAEXHHHH@Z
_TEXT	SEGMENT
_nDataSize$ = 8						; size = 4
_nDataStartIndex$ = 12					; size = 4
_nOnePageDataCount$ = 16				; size = 4
_p_bZoomFullMode$ = 20					; size = 4
?SetDataViewInfo@CRadar@@QAEXHHHH@Z PROC		; CRadar::SetDataViewInfo, COMDAT
; _this$ = ecx

; 238  : {

  00000	55		 push	 ebp
  00001	8b ec		 mov	 ebp, esp
  00003	53		 push	 ebx
  00004	56		 push	 esi
  00005	8b f1		 mov	 esi, ecx
  00007	57		 push	 edi

; 239  : 	// (2003.12.04) 구간 선택 중인 경우에는 Real을 반영하지 않는다.
; 240  : 	if( m_nDragSelectStart != 0 || m_nDragSelectEnd != 0) return;

  00008	83 be f8 00 00
	00 00		 cmp	 DWORD PTR [esi+248], 0
  0000f	0f 85 03 01 00
	00		 jne	 $LN3@SetDataVie
  00015	83 be fc 00 00
	00 00		 cmp	 DWORD PTR [esi+252], 0
  0001c	0f 85 f6 00 00
	00		 jne	 $LN3@SetDataVie

; 241  : 
; 242  : 	// (2003.12.03) Zoom Full Mode 여부와 조정된 Data View 정보를 함께 전달받아 처리한다.
; 243  : 	//		(Radar의 경우 Zoom Full Mode여도 Data를 지속적으로 반영한다.)
; 244  : 	if( p_bZoomFullMode)
; 245  : 	{
; 246  : 		nOnePageDataCount = nDataSize;
; 247  : 		// 종찬(04/11/05) Zero Base로 수정한다.
; 248  : 		nDataStartIndex = 0;
; 249  : 	}
; 250  : 
; 251  : 	// 0. Data View의 설정을 관리한다.
; 252  : 	m_nDataStartIndex = nDataStartIndex;

  00022	8b 4d 14	 mov	 ecx, DWORD PTR _p_bZoomFullMode$[ebp]

; 253  : 	m_nOnePageDataCount = nOnePageDataCount;
; 254  : 	// 2. Graph Data의 Min/Max 및 Index 구간도 관리한다.
; 255  : 	m_nRadarDataLeft	= ( nDataSize == 0 ? 0 : 1);
; 256  : 	m_nRadarDataRight	= nDataSize;
; 257  : 	m_dRadarDataMin		= m_dRadarDataMax	= 0;

  00025	8d 9e c8 00 00
	00		 lea	 ebx, DWORD PTR [esi+200]
  0002b	8b 7d 08	 mov	 edi, DWORD PTR _nDataSize$[ebp]
  0002e	33 c0		 xor	 eax, eax
  00030	85 c9		 test	 ecx, ecx
  00032	89 be bc 00 00
	00		 mov	 DWORD PTR [esi+188], edi
  00038	0f 57 c0	 xorps	 xmm0, xmm0
  0003b	0f 44 45 0c	 cmove	 eax, DWORD PTR _nDataStartIndex$[ebp]
  0003f	89 86 f0 00 00
	00		 mov	 DWORD PTR [esi+240], eax
  00045	8b c7		 mov	 eax, edi
  00047	0f 44 45 10	 cmove	 eax, DWORD PTR _nOnePageDataCount$[ebp]
  0004b	89 86 f4 00 00
	00		 mov	 DWORD PTR [esi+244], eax
  00051	33 c0		 xor	 eax, eax
  00053	85 ff		 test	 edi, edi
  00055	f2 0f 11 03	 movsd	 QWORD PTR [ebx], xmm0
  00059	f2 0f 11 86 c0
	00 00 00	 movsd	 QWORD PTR [esi+192], xmm0
  00061	0f 95 c0	 setne	 al

; 258  : 
; 259  : 	if( m_pPacketList && nDataSize)

  00064	83 be 88 00 00
	00 00		 cmp	 DWORD PTR [esi+136], 0
  0006b	89 86 b8 00 00
	00		 mov	 DWORD PTR [esi+184], eax
  00071	74 66		 je	 SHORT $LN6@SetDataVie
  00073	85 ff		 test	 edi, edi
  00075	74 62		 je	 SHORT $LN6@SetDataVie

; 260  : 	{
; 261  : 		CPacket *pPacket = m_pPacketList->GetBaseData(m_strDataName);

  00077	6a 01		 push	 1
  00079	51		 push	 ecx
  0007a	8d 86 84 00 00
	00		 lea	 eax, DWORD PTR [esi+132]
  00080	8b cc		 mov	 ecx, esp
  00082	50		 push	 eax
  00083	ff 15 00 00 00
	00		 call	 DWORD PTR __imp_??0?$CStringT@DV?$StrTraitMFC_DLL@DV?$ChTraitsCRT@D@ATL@@@@@ATL@@QAE@ABV01@@Z
  00089	8b 8e 88 00 00
	00		 mov	 ecx, DWORD PTR [esi+136]
  0008f	ff 15 00 00 00
	00		 call	 DWORD PTR __imp_?GetBaseData@CPacketList@@QAEPAVCPacket@@V?$CStringT@DV?$StrTraitMFC_DLL@DV?$ChTraitsCRT@D@ATL@@@@@ATL@@_N@Z
  00095	8b c8		 mov	 ecx, eax

; 262  : 		// (주의, GetMinMax는 0 Base Index를 이용한다.)
; 263  : 		// (2003.12.03) 선물,옵션 Data도 문안히 Mapping할 수 있도록 100배된 Data로 처리한다.
; 264  : 		if( pPacket)

  00097	85 c9		 test	 ecx, ecx
  00099	74 3e		 je	 SHORT $LN6@SetDataVie

; 265  : 		{
; 266  : 			pPacket->GetMinMax( 0, nDataSize - 1, m_dRadarDataMin, m_dRadarDataMax);

  0009b	6a 00		 push	 0
  0009d	53		 push	 ebx
  0009e	8d 86 c0 00 00
	00		 lea	 eax, DWORD PTR [esi+192]
  000a4	50		 push	 eax
  000a5	8d 47 ff	 lea	 eax, DWORD PTR [edi-1]
  000a8	50		 push	 eax
  000a9	6a 00		 push	 0
  000ab	ff 15 00 00 00
	00		 call	 DWORD PTR __imp_?GetMinMax@CPacket@@QAEHHHAAN0H@Z

; 267  : 			m_dRadarDataMin *= 100;

  000b1	f2 0f 10 86 c0
	00 00 00	 movsd	 xmm0, QWORD PTR [esi+192]
  000b9	f2 0f 59 05 00
	00 00 00	 mulsd	 xmm0, QWORD PTR __real@4059000000000000
  000c1	f2 0f 11 86 c0
	00 00 00	 movsd	 QWORD PTR [esi+192], xmm0

; 268  : 			m_dRadarDataMax *= 100;

  000c9	f2 0f 10 03	 movsd	 xmm0, QWORD PTR [ebx]
  000cd	f2 0f 59 05 00
	00 00 00	 mulsd	 xmm0, QWORD PTR __real@4059000000000000
  000d5	f2 0f 11 03	 movsd	 QWORD PTR [ebx], xmm0
$LN6@SetDataVie:

; 269  : 		}
; 270  : 	}
; 271  : /*
; 272  : 	if(m_pPacketListManager && nDataSize)
; 273  : 	{
; 274  : 		int nRQ, nCountOfRQ;
; 275  : 		CPacketList* ppacketList;
; 276  : 		double dRadarDataMin, dRadarDataMax;
; 277  : 
; 278  : 		MAP_RQ_PACKETLIST* pmapPacketList = (MAP_RQ_PACKETLIST*)m_ppacketListManager->GetMapPacketList();
; 279  : 		nCountOfRQ = pmapPacketList->size();
; 280  : 
; 281  : 		MAP_RQ_PACKETLIST::iterator itRQ = pmapPacketList->begin();
; 282  : 
; 283  : 		while(itRQ != pmapPacketList->end())
; 284  : 		{
; 285  : 			ppacketList = itRQ->second->GetPacketList();
; 286  : 			ppacketList->GetMinMax(0, nDataSize - 1, dRadarDataMin, dRadarDataMax);
; 287  : 
; 288  : 			if(m_dRadarDataMin > dRadarDataMin) m_dRadarDataMin = dRadarDataMin;
; 289  : 			if(m_dRadarDataMax < dRadarDataMax) m_dRadarDataMax = dRadarDataMax;
; 290  : 		}
; 291  : 
; 292  : 		m_dRadarDataMin *= 100;
; 293  : 		m_dRadarDataMax *= 100;
; 294  : 	}
; 295  : */
; 296  : 	// (2004.04.16, 배승원) Radar의 Resize시에도, Resize된 Graph를 보이도록,
; 297  : 	//		Radar Graph를 재구성하는 Routine을 별도로 제공한다.
; 298  : 	DrawNewRadarView();

  000d9	8b ce		 mov	 ecx, esi
  000db	e8 00 00 00 00	 call	 ?DrawNewRadarView@CRadar@@QAEXXZ ; CRadar::DrawNewRadarView

; 299  : 
; 300  : 	// (2003.12.03) Zoom Full Mode Flag을 관리하여,
; 301  : 	//		해당 Mode에서는 Mouse Tracing외의 작업을 제한한다.
; 302  : 	m_bZoomFullMode = p_bZoomFullMode;

  000e0	8b 45 14	 mov	 eax, DWORD PTR _p_bZoomFullMode$[ebp]
  000e3	89 86 94 00 00
	00		 mov	 DWORD PTR [esi+148], eax
; File C:\Program Files (x86)\Microsoft Visual Studio\2019\Community\VC\Tools\MSVC\14.29.30133\atlmfc\include\atltypes.h

; 611  : 	return CPoint((left+right)/2, (top+bottom)/2);

  000e9	8b 86 b0 00 00
	00		 mov	 eax, DWORD PTR [esi+176]
  000ef	03 86 a8 00 00
	00		 add	 eax, DWORD PTR [esi+168]
  000f5	99		 cdq
  000f6	2b c2		 sub	 eax, edx
  000f8	8b c8		 mov	 ecx, eax
  000fa	8b 86 b4 00 00
	00		 mov	 eax, DWORD PTR [esi+180]
  00100	03 86 ac 00 00
	00		 add	 eax, DWORD PTR [esi+172]
  00106	99		 cdq
  00107	2b c2		 sub	 eax, edx
  00109	d1 f9		 sar	 ecx, 1
  0010b	d1 f8		 sar	 eax, 1
; File D:\git\src\IBK\IBK_DRFN\ProjSrc\SrcChartEx\ChartOCX\ChartToolBar\Radar.cpp

; 306  : 	OnMouseMove( NULL, m_rctRadarSelect.CenterPoint());

  0010d	50		 push	 eax
  0010e	51		 push	 ecx
  0010f	6a 00		 push	 0
  00111	8b ce		 mov	 ecx, esi
  00113	e8 00 00 00 00	 call	 ?OnMouseMove@CRadar@@IAEXIVCPoint@@@Z ; CRadar::OnMouseMove
$LN3@SetDataVie:

; 307  : }

  00118	5f		 pop	 edi
  00119	5e		 pop	 esi
  0011a	5b		 pop	 ebx
  0011b	5d		 pop	 ebp
  0011c	c2 10 00	 ret	 16			; 00000010H
?SetDataViewInfo@CRadar@@QAEXHHHH@Z ENDP		; CRadar::SetDataViewInfo
_TEXT	ENDS
; Function compile flags: /Ogtp
; File D:\git\src\IBK\IBK_DRFN\ProjSrc\SrcChartEx\ChartOCX\ChartToolBar\Radar.cpp
; File C:\Program Files (x86)\Microsoft Visual Studio\2019\Community\VC\Tools\MSVC\14.29.30133\atlmfc\include\atlsimpstr.h
; File D:\git\src\IBK\IBK_DRFN\ProjSrc\SrcChartEx\ChartOCX\ChartToolBar\Radar.cpp
;	COMDAT ?SetData@CRadar@@QAEXPAVCPacketList@@PAVCPacketListManager@@PAVCXScaleManager@@AAV?$CStringT@DV?$StrTraitMFC_DLL@DV?$ChTraitsCRT@D@ATL@@@@@ATL@@@Z
_TEXT	SEGMENT
_pPacketList$ = 8					; size = 4
_pPacketListManager$ = 12				; size = 4
_pxScaleManager$ = 16					; size = 4
_strDataName$ = 20					; size = 4
?SetData@CRadar@@QAEXPAVCPacketList@@PAVCPacketListManager@@PAVCXScaleManager@@AAV?$CStringT@DV?$StrTraitMFC_DLL@DV?$ChTraitsCRT@D@ATL@@@@@ATL@@@Z PROC ; CRadar::SetData, COMDAT
; _this$ = ecx

; 322  : {

  00000	55		 push	 ebp
  00001	8b ec		 mov	 ebp, esp
  00003	56		 push	 esi
  00004	57		 push	 edi

; 323  : 	if(pPacketList == NULL || strDataName.IsEmpty())	return;

  00005	8b 7d 08	 mov	 edi, DWORD PTR _pPacketList$[ebp]
  00008	8b f1		 mov	 esi, ecx
  0000a	85 ff		 test	 edi, edi
  0000c	74 30		 je	 SHORT $LN3@SetData
; File C:\Program Files (x86)\Microsoft Visual Studio\2019\Community\VC\Tools\MSVC\14.29.30133\atlmfc\include\atlsimpstr.h

; 533  : 		return( GetLength() == 0 );

  0000e	8b 4d 14	 mov	 ecx, DWORD PTR _strDataName$[ebp]
  00011	8b 01		 mov	 eax, DWORD PTR [ecx]
  00013	83 78 f4 00	 cmp	 DWORD PTR [eax-12], 0
; File D:\git\src\IBK\IBK_DRFN\ProjSrc\SrcChartEx\ChartOCX\ChartToolBar\Radar.cpp

; 323  : 	if(pPacketList == NULL || strDataName.IsEmpty())	return;

  00017	74 25		 je	 SHORT $LN3@SetData

; 324  : 
; 325  : 	m_strDataName	= strDataName;

  00019	51		 push	 ecx
  0001a	8d 8e 84 00 00
	00		 lea	 ecx, DWORD PTR [esi+132]
  00020	ff 15 00 00 00
	00		 call	 DWORD PTR __imp_??4?$CStringT@DV?$StrTraitMFC_DLL@DV?$ChTraitsCRT@D@ATL@@@@@ATL@@QAEAAV01@ABV01@@Z

; 326  : 	m_pPacketList	= pPacketList;
; 327  : 	m_pPacketListManager = pPacketListManager;

  00026	8b 45 0c	 mov	 eax, DWORD PTR _pPacketListManager$[ebp]
  00029	89 86 8c 00 00
	00		 mov	 DWORD PTR [esi+140], eax

; 328  : 	m_pxScaleManager = pxScaleManager;

  0002f	8b 45 10	 mov	 eax, DWORD PTR _pxScaleManager$[ebp]
  00032	89 be 88 00 00
	00		 mov	 DWORD PTR [esi+136], edi
  00038	89 86 90 00 00
	00		 mov	 DWORD PTR [esi+144], eax
$LN3@SetData:

; 329  : }

  0003e	5f		 pop	 edi
  0003f	5e		 pop	 esi
  00040	5d		 pop	 ebp
  00041	c2 10 00	 ret	 16			; 00000010H
?SetData@CRadar@@QAEXPAVCPacketList@@PAVCPacketListManager@@PAVCXScaleManager@@AAV?$CStringT@DV?$StrTraitMFC_DLL@DV?$ChTraitsCRT@D@ATL@@@@@ATL@@@Z ENDP ; CRadar::SetData
_TEXT	ENDS
; Function compile flags: /Ogtp
; File D:\git\src\IBK\IBK_DRFN\ProjSrc\SrcChartEx\ChartOCX\ChartToolBar\Radar.cpp
;	COMDAT ?GetMessageMap@CRadar@@MBEPBUAFX_MSGMAP@@XZ
_TEXT	SEGMENT
?GetMessageMap@CRadar@@MBEPBUAFX_MSGMAP@@XZ PROC	; CRadar::GetMessageMap, COMDAT
; _this$ = ecx

; 59   : BEGIN_MESSAGE_MAP(CRadar, CWnd)

  00000	b8 00 00 00 00	 mov	 eax, OFFSET ?messageMap@?1??GetThisMessageMap@CRadar@@KGPBUAFX_MSGMAP@@XZ@4U3@B
  00005	c3		 ret	 0
?GetMessageMap@CRadar@@MBEPBUAFX_MSGMAP@@XZ ENDP	; CRadar::GetMessageMap
_TEXT	ENDS
; Function compile flags: /Ogtp
; File D:\git\src\IBK\IBK_DRFN\ProjSrc\SrcChartEx\ChartOCX\ChartToolBar\Radar.cpp
;	COMDAT ?GetThisMessageMap@CRadar@@KGPBUAFX_MSGMAP@@XZ
_TEXT	SEGMENT
?GetThisMessageMap@CRadar@@KGPBUAFX_MSGMAP@@XZ PROC	; CRadar::GetThisMessageMap, COMDAT

; 60   : 	//{{AFX_MSG_MAP(CRadar)
; 61   : 	ON_WM_MOUSEMOVE()
; 62   : 	ON_WM_LBUTTONDOWN()
; 63   : 	ON_WM_LBUTTONUP()
; 64   : 	ON_WM_PAINT()
; 65   : 	ON_WM_SIZE()
; 66   : 	ON_WM_SETFOCUS()
; 67   : 	//}}AFX_MSG_MAP
; 68   : END_MESSAGE_MAP()

  00000	b8 00 00 00 00	 mov	 eax, OFFSET ?messageMap@?1??GetThisMessageMap@CRadar@@KGPBUAFX_MSGMAP@@XZ@4U3@B
  00005	c3		 ret	 0
?GetThisMessageMap@CRadar@@KGPBUAFX_MSGMAP@@XZ ENDP	; CRadar::GetThisMessageMap
_TEXT	ENDS
; Function compile flags: /Ogtp
; File D:\git\src\IBK\IBK_DRFN\ProjSrc\SrcChartEx\ChartOCX\ChartToolBar\Radar.cpp
; File C:\Program Files (x86)\Microsoft Visual Studio\2019\Community\VC\Tools\MSVC\14.29.30133\atlmfc\include\afxwin2.inl
; File D:\git\src\IBK\IBK_DRFN\ProjSrc\SrcChartEx\ChartOCX\ChartToolBar\Radar.cpp
; File C:\Program Files (x86)\Microsoft Visual Studio\2019\Community\VC\Tools\MSVC\14.29.30133\atlmfc\include\afxwin2.inl
; File D:\git\src\IBK\IBK_DRFN\ProjSrc\SrcChartEx\ChartOCX\ChartToolBar\Radar.cpp
;	COMDAT ?OnSetFocus@CRadar@@IAEXPAVCWnd@@@Z
_TEXT	SEGMENT
_pOldWnd$ = 8						; size = 4
?OnSetFocus@CRadar@@IAEXPAVCWnd@@@Z PROC		; CRadar::OnSetFocus, COMDAT
; _this$ = ecx
; File C:\Program Files (x86)\Microsoft Visual Studio\2019\Community\VC\Tools\MSVC\14.29.30133\atlmfc\include\afxwin2.inl

; 213  : 	{ ASSERT(::IsWindow(m_hWnd)); return CWnd::FromHandle(::GetParent(m_hWnd)); }

  00000	ff 71 20	 push	 DWORD PTR [ecx+32]
  00003	ff 15 00 00 00
	00		 call	 DWORD PTR __imp__GetParent@4
  00009	50		 push	 eax
  0000a	e8 00 00 00 00	 call	 ?FromHandle@CWnd@@SGPAV1@PAUHWND__@@@Z ; CWnd::FromHandle
; File D:\git\src\IBK\IBK_DRFN\ProjSrc\SrcChartEx\ChartOCX\ChartToolBar\Radar.cpp

; 723  : 	if( pParent)

  0000f	85 c0		 test	 eax, eax
  00011	74 1a		 je	 SHORT $LN3@OnSetFocus
; File C:\Program Files (x86)\Microsoft Visual Studio\2019\Community\VC\Tools\MSVC\14.29.30133\atlmfc\include\afxwin2.inl

; 213  : 	{ ASSERT(::IsWindow(m_hWnd)); return CWnd::FromHandle(::GetParent(m_hWnd)); }

  00013	ff 70 20	 push	 DWORD PTR [eax+32]
  00016	ff 15 00 00 00
	00		 call	 DWORD PTR __imp__GetParent@4
  0001c	50		 push	 eax
  0001d	e8 00 00 00 00	 call	 ?FromHandle@CWnd@@SGPAV1@PAUHWND__@@@Z ; CWnd::FromHandle
; File D:\git\src\IBK\IBK_DRFN\ProjSrc\SrcChartEx\ChartOCX\ChartToolBar\Radar.cpp

; 726  : 		if( pParent) pParent->SetFocus();	// Getting Chart OCX

  00022	85 c0		 test	 eax, eax
  00024	74 07		 je	 SHORT $LN3@OnSetFocus
  00026	8b c8		 mov	 ecx, eax
  00028	e8 00 00 00 00	 call	 ?SetFocus@CWnd@@QAEPAV1@XZ ; CWnd::SetFocus
$LN3@OnSetFocus:

; 727  : 	}
; 728  : 	
; 729  : }

  0002d	c2 04 00	 ret	 4
?OnSetFocus@CRadar@@IAEXPAVCWnd@@@Z ENDP		; CRadar::OnSetFocus
_TEXT	ENDS
; Function compile flags: /Ogtp
; File D:\git\src\IBK\IBK_DRFN\ProjSrc\SrcChartEx\ChartOCX\ChartToolBar\Radar.cpp
; File C:\Program Files (x86)\Microsoft Visual Studio\2019\Community\VC\Tools\MSVC\14.29.30133\atlmfc\include\afxwin2.inl
; File D:\git\src\IBK\IBK_DRFN\ProjSrc\SrcChartEx\ChartOCX\ChartToolBar\Radar.cpp
;	COMDAT ?OnSize@CRadar@@IAEXIHH@Z
_TEXT	SEGMENT
_nType$ = 8						; size = 4
_cx$ = 12						; size = 4
_cy$ = 16						; size = 4
?OnSize@CRadar@@IAEXIHH@Z PROC				; CRadar::OnSize, COMDAT
; _this$ = ecx

; 704  : {

  00000	56		 push	 esi
  00001	8b f1		 mov	 esi, ecx
; File C:\Program Files (x86)\Microsoft Visual Studio\2019\Community\VC\Tools\MSVC\14.29.30133\atlmfc\include\afxwin2.inl

; 330  : 	{ Default(); }

  00003	e8 00 00 00 00	 call	 ?Default@CWnd@@IAEJXZ	; CWnd::Default
; File D:\git\src\IBK\IBK_DRFN\ProjSrc\SrcChartEx\ChartOCX\ChartToolBar\Radar.cpp

; 708  : 	DrawNewRadarView();

  00008	8b ce		 mov	 ecx, esi
  0000a	e8 00 00 00 00	 call	 ?DrawNewRadarView@CRadar@@QAEXXZ ; CRadar::DrawNewRadarView
  0000f	5e		 pop	 esi

; 709  : }

  00010	c2 0c 00	 ret	 12			; 0000000cH
?OnSize@CRadar@@IAEXIHH@Z ENDP				; CRadar::OnSize
_TEXT	ENDS
; Function compile flags: /Ogtp
; File D:\git\src\IBK\IBK_DRFN\ProjSrc\SrcChartEx\ChartOCX\ChartToolBar\Radar.cpp
; File C:\Program Files (x86)\Microsoft Visual Studio\2019\Community\VC\Tools\MSVC\14.29.30133\atlmfc\include\atlsimpstr.h
; File D:\git\src\IBK\IBK_DRFN\ProjSrc\SrcChartEx\ChartOCX\ChartToolBar\Radar.cpp
; File C:\Program Files (x86)\Microsoft Visual Studio\2019\Community\VC\Tools\MSVC\14.29.30133\atlmfc\include\atlsimpstr.h
; File D:\git\src\IBK\IBK_DRFN\ProjSrc\SrcChartEx\ChartOCX\ChartToolBar\Radar.cpp
; File C:\Program Files (x86)\Microsoft Visual Studio\2019\Community\VC\Tools\MSVC\14.29.30133\atlmfc\include\afxwin1.inl
; File D:\git\src\IBK\IBK_DRFN\ProjSrc\SrcChartEx\ChartOCX\ChartToolBar\Radar.cpp
; File C:\Program Files (x86)\Microsoft Visual Studio\2019\Community\VC\Tools\MSVC\14.29.30133\atlmfc\include\afxwin1.inl
; File D:\git\src\IBK\IBK_DRFN\ProjSrc\SrcChartEx\ChartOCX\ChartToolBar\Radar.cpp
; File C:\Program Files (x86)\Microsoft Visual Studio\2019\Community\VC\Tools\MSVC\14.29.30133\atlmfc\include\afxwin1.inl
; File D:\git\src\IBK\IBK_DRFN\ProjSrc\SrcChartEx\ChartOCX\ChartToolBar\Radar.cpp
; File C:\Program Files (x86)\Microsoft Visual Studio\2019\Community\VC\Tools\MSVC\14.29.30133\atlmfc\include\afxtempl.h
; File D:\git\src\IBK\IBK_DRFN\ProjSrc\SrcChartEx\ChartOCX\ChartToolBar\Radar.cpp
; File C:\Program Files (x86)\Microsoft Visual Studio\2019\Community\VC\Tools\MSVC\14.29.30133\atlmfc\include\afxtempl.h
; File D:\git\src\IBK\IBK_DRFN\ProjSrc\SrcChartEx\ChartOCX\ChartToolBar\Radar.cpp
; File C:\Program Files (x86)\Microsoft Visual Studio\2019\Community\VC\Tools\MSVC\14.29.30133\atlmfc\include\afxwin1.inl
; File D:\git\src\IBK\IBK_DRFN\ProjSrc\SrcChartEx\ChartOCX\ChartToolBar\Radar.cpp
;	COMDAT ?OnPaint@CRadar@@IAEXXZ
_TEXT	SEGMENT
$T2 = -164						; size = 8
_sizOldViewportExt$ = -156				; size = 8
_ptOldViewportOrg$ = -148				; size = 8
_ptOldWindowOrg$ = -140					; size = 8
_pen$ = -132						; size = 8
_hDC$1$ = -124						; size = 4
_nPreMapMode$1$ = -120					; size = 4
tv784 = -116						; size = 4
$T3 = -112						; size = 8
_nXOldValue$1$ = -108					; size = 4
_nYValue$4 = -108					; size = 4
_pNode$1$ = -104					; size = 4
$T5 = -104						; size = 4
_dc$ = -100						; size = 84
__$ArrayPad$ = -16					; size = 4
__$EHRec$ = -12						; size = 12
?OnPaint@CRadar@@IAEXXZ PROC				; CRadar::OnPaint, COMDAT
; _this$ = ecx

; 87   : {

  00000	55		 push	 ebp
  00001	8b ec		 mov	 ebp, esp
  00003	6a ff		 push	 -1
  00005	68 00 00 00 00	 push	 __ehhandler$?OnPaint@CRadar@@IAEXXZ
  0000a	64 a1 00 00 00
	00		 mov	 eax, DWORD PTR fs:0
  00010	50		 push	 eax
  00011	81 ec 98 00 00
	00		 sub	 esp, 152		; 00000098H
  00017	a1 00 00 00 00	 mov	 eax, DWORD PTR ___security_cookie
  0001c	33 c5		 xor	 eax, ebp
  0001e	89 45 f0	 mov	 DWORD PTR __$ArrayPad$[ebp], eax
  00021	53		 push	 ebx
  00022	56		 push	 esi
  00023	57		 push	 edi
  00024	50		 push	 eax
  00025	8d 45 f4	 lea	 eax, DWORD PTR __$EHRec$[ebp]
  00028	64 a3 00 00 00
	00		 mov	 DWORD PTR fs:0, eax
  0002e	8b f9		 mov	 edi, ecx

; 88   : 	CPaintDC dc(this); // device context for painting

  00030	57		 push	 edi
  00031	8d 4d 9c	 lea	 ecx, DWORD PTR _dc$[ebp]
  00034	e8 00 00 00 00	 call	 ??0CPaintDC@@QAE@PAVCWnd@@@Z ; CPaintDC::CPaintDC
; File C:\Program Files (x86)\Microsoft Visual Studio\2019\Community\VC\Tools\MSVC\14.29.30133\atlmfc\include\atlsimpstr.h

; 519  : 		return( GetData()->nDataLength );

  00039	8b 87 84 00 00
	00		 mov	 eax, DWORD PTR [edi+132]

; 800  : 		return( reinterpret_cast< CStringData* >( m_pszData )-1 );

  0003f	8d 97 84 00 00
	00		 lea	 edx, DWORD PTR [edi+132]
; File D:\git\src\IBK\IBK_DRFN\ProjSrc\SrcChartEx\ChartOCX\ChartToolBar\Radar.cpp

; 88   : 	CPaintDC dc(this); // device context for painting

  00045	c7 45 fc 00 00
	00 00		 mov	 DWORD PTR __$EHRec$[ebp+8], 0
; File C:\Program Files (x86)\Microsoft Visual Studio\2019\Community\VC\Tools\MSVC\14.29.30133\atlmfc\include\atlsimpstr.h

; 533  : 		return( GetLength() == 0 );

  0004c	83 78 f4 00	 cmp	 DWORD PTR [eax-12], 0
; File D:\git\src\IBK\IBK_DRFN\ProjSrc\SrcChartEx\ChartOCX\ChartToolBar\Radar.cpp

; 93   : 	if( m_strDataName.IsEmpty() || m_pPacketList == NULL)	return;

  00050	0f 84 2f 03 00
	00		 je	 $LN5@OnPaint
  00056	83 bf 88 00 00
	00 00		 cmp	 DWORD PTR [edi+136], 0
  0005d	0f 84 22 03 00
	00		 je	 $LN5@OnPaint

; 94   : 
; 95   : 	// 1. 출력할 Packet Object를 구한다.	
; 96   : 	CPacket* pPacket = m_pPacketList->GetBaseData( m_strDataName);

  00063	6a 01		 push	 1
  00065	51		 push	 ecx
  00066	8b cc		 mov	 ecx, esp
  00068	52		 push	 edx
  00069	ff 15 00 00 00
	00		 call	 DWORD PTR __imp_??0?$CStringT@DV?$StrTraitMFC_DLL@DV?$ChTraitsCRT@D@ATL@@@@@ATL@@QAE@ABV01@@Z
  0006f	8b 8f 88 00 00
	00		 mov	 ecx, DWORD PTR [edi+136]
  00075	ff 15 00 00 00
	00		 call	 DWORD PTR __imp_?GetBaseData@CPacketList@@QAEPAVCPacket@@V?$CStringT@DV?$StrTraitMFC_DLL@DV?$ChTraitsCRT@D@ATL@@@@@ATL@@_N@Z
  0007b	8b d8		 mov	 ebx, eax

; 97   : 	if( !pPacket) return;

  0007d	85 db		 test	 ebx, ebx
  0007f	0f 84 00 03 00
	00		 je	 $LN5@OnPaint

; 98   : 
; 99   : 	// 2. 선택 영역까지 Graph의 배경을 처리한다.
; 100  : 	// 2.1 기본 배경을 처리한다.
; 101  : 	dc.FillSolidRect( m_rctRadarClient, RGB( 255, 255, 255));

  00085	68 ff ff ff 00	 push	 16777215		; 00ffffffH
  0008a	8d b7 98 00 00
	00		 lea	 esi, DWORD PTR [edi+152]
  00090	56		 push	 esi
  00091	8d 4d 9c	 lea	 ecx, DWORD PTR _dc$[ebp]
  00094	e8 00 00 00 00	 call	 ?FillSolidRect@CDC@@QAEXPBUtagRECT@@K@Z ; CDC::FillSolidRect
; File C:\Program Files (x86)\Microsoft Visual Studio\2019\Community\VC\Tools\MSVC\14.29.30133\atlmfc\include\afxwin1.inl

; 510  : 	{ ASSERT(m_hDC != NULL); return ::DrawEdge(m_hDC, lpRect, nEdge, nFlags); }

  00099	6a 0f		 push	 15			; 0000000fH
  0009b	6a 0a		 push	 10			; 0000000aH
  0009d	56		 push	 esi
  0009e	ff 75 a0	 push	 DWORD PTR _dc$[ebp+4]
  000a1	ff 15 00 00 00
	00		 call	 DWORD PTR __imp__DrawEdge@16
; File D:\git\src\IBK\IBK_DRFN\ProjSrc\SrcChartEx\ChartOCX\ChartToolBar\Radar.cpp

; 105  : 	CList<double, double>* datalist = pPacket->GetnumericDataList();

  000a7	8b cb		 mov	 ecx, ebx
  000a9	ff 15 00 00 00
	00		 call	 DWORD PTR __imp_?GetnumericDataList@CPacket@@QAEPAV?$CList@NN@@XZ

; 106  : 	POSITION pos = datalist->GetHeadPosition();

  000af	8b 58 04	 mov	 ebx, DWORD PTR [eax+4]
  000b2	89 5d 98	 mov	 DWORD PTR _pNode$1$[ebp], ebx

; 107  : 	if( !pos) return;

  000b5	85 db		 test	 ebx, ebx
  000b7	0f 84 c8 02 00
	00		 je	 $LN5@OnPaint

; 108  : 
; 109  : 	// 4. 선택 영역의 배경을 처리한다. (Data가 없는 곳으로 가면 역전된다.)
; 110  : 	if( m_rctRadarSelect.left < m_rctRadarSelect.right)

  000bd	8b 87 a8 00 00
	00		 mov	 eax, DWORD PTR [edi+168]
  000c3	8d 8f a8 00 00
	00		 lea	 ecx, DWORD PTR [edi+168]
  000c9	3b 87 b0 00 00
	00		 cmp	 eax, DWORD PTR [edi+176]
  000cf	7d 0e		 jge	 SHORT $LN8@OnPaint

; 111  : 		dc.FillSolidRect( m_rctRadarSelect, RGB(239, 231, 222));

  000d1	68 ef e7 de 00	 push	 14608367		; 00dee7efH
  000d6	51		 push	 ecx
  000d7	8d 4d 9c	 lea	 ecx, DWORD PTR _dc$[ebp]
  000da	e8 00 00 00 00	 call	 ?FillSolidRect@CDC@@QAEXPBUtagRECT@@K@Z ; CDC::FillSolidRect
$LN8@OnPaint:

; 112  : 
; 113  : 	// 5. Graph를 처리한다.
; 114  : 	SIZE sizOldViewportExt;
; 115  : 	POINT ptOldWindowOrg, ptOldViewportOrg;
; 116  : 	// 5.0 Graph를 그릴 Pen을 생성/설정한다.
; 117  : 	CPen pen( PS_SOLID, 1, RGB( 218, 46, 46));

  000df	68 da 2e 2e 00	 push	 3026650			; 002e2edaH
  000e4	6a 01		 push	 1
  000e6	6a 00		 push	 0
  000e8	8d 8d 7c ff ff
	ff		 lea	 ecx, DWORD PTR _pen$[ebp]
  000ee	e8 00 00 00 00	 call	 ??0CPen@@QAE@HHK@Z	; CPen::CPen

; 118  : 	CPen* pOldPen = dc.SelectObject(&pen);

  000f3	8d 85 7c ff ff
	ff		 lea	 eax, DWORD PTR _pen$[ebp]
  000f9	c6 45 fc 01	 mov	 BYTE PTR __$EHRec$[ebp+8], 1
  000fd	50		 push	 eax
  000fe	8d 4d 9c	 lea	 ecx, DWORD PTR _dc$[ebp]
  00101	e8 00 00 00 00	 call	 ?SelectObject@CDC@@QAEPAVCPen@@PAV2@@Z ; CDC::SelectObject
; File C:\Program Files (x86)\Microsoft Visual Studio\2019\Community\VC\Tools\MSVC\14.29.30133\atlmfc\include\afxwin1.inl

; 316  : 	{ return this == NULL ? NULL : m_hDC; }

  00106	8b 75 a0	 mov	 esi, DWORD PTR _dc$[ebp+4]
; File D:\git\src\IBK\IBK_DRFN\ProjSrc\SrcChartEx\ChartOCX\ChartToolBar\Radar.cpp

; 121  : 	int nPreMapMode = SetMapMode( hDC, MM_ANISOTROPIC);

  00109	6a 08		 push	 8
  0010b	56		 push	 esi
  0010c	89 45 8c	 mov	 DWORD PTR tv784[ebp], eax
; File C:\Program Files (x86)\Microsoft Visual Studio\2019\Community\VC\Tools\MSVC\14.29.30133\atlmfc\include\afxwin1.inl

; 316  : 	{ return this == NULL ? NULL : m_hDC; }

  0010f	89 75 84	 mov	 DWORD PTR _hDC$1$[ebp], esi
; File D:\git\src\IBK\IBK_DRFN\ProjSrc\SrcChartEx\ChartOCX\ChartToolBar\Radar.cpp

; 121  : 	int nPreMapMode = SetMapMode( hDC, MM_ANISOTROPIC);

  00112	ff 15 00 00 00
	00		 call	 DWORD PTR __imp__SetMapMode@8

; 122  : 	SetWindowOrgEx( hDC, m_nRadarDataLeft, ( int)m_dRadarDataMin, &ptOldWindowOrg);

  00118	f2 0f 2c 8f c0
	00 00 00	 cvttsd2si ecx, QWORD PTR [edi+192]
  00120	89 45 88	 mov	 DWORD PTR _nPreMapMode$1$[ebp], eax
  00123	8d 85 74 ff ff
	ff		 lea	 eax, DWORD PTR _ptOldWindowOrg$[ebp]
  00129	50		 push	 eax
  0012a	51		 push	 ecx
  0012b	ff b7 b8 00 00
	00		 push	 DWORD PTR [edi+184]
  00131	56		 push	 esi
  00132	ff 15 00 00 00
	00		 call	 DWORD PTR __imp__SetWindowOrgEx@16

; 123  : 	SetViewportOrgEx( hDC, m_rgnRadarGraph.left, m_rgnRadarGraph.bottom, &ptOldViewportOrg);

  00138	8d 85 6c ff ff
	ff		 lea	 eax, DWORD PTR _ptOldViewportOrg$[ebp]
  0013e	50		 push	 eax
  0013f	ff b7 dc 00 00
	00		 push	 DWORD PTR [edi+220]
  00145	ff b7 d0 00 00
	00		 push	 DWORD PTR [edi+208]
  0014b	56		 push	 esi
  0014c	ff 15 00 00 00
	00		 call	 DWORD PTR __imp__SetViewportOrgEx@16

; 124  : 	SetViewportExtEx( hDC, 1, -1, &sizOldViewportExt);

  00152	8d 85 64 ff ff
	ff		 lea	 eax, DWORD PTR _sizOldViewportExt$[ebp]
  00158	50		 push	 eax
  00159	6a ff		 push	 -1
  0015b	6a 01		 push	 1
  0015d	56		 push	 esi
  0015e	ff 15 00 00 00
	00		 call	 DWORD PTR __imp__SetViewportExtEx@16

; 125  : 
; 126  : // (2003.12.03, 배승원, Debug) Mapping 좌표로 정확한 Full Rect의 Drawing에 성공하여야 한다.
; 127  : // (2003.12.03, 배승원) X Scale의 마지막 Index도 다른 것과 동등한 폭을 갖도록 한다.
; 128  : //		Right를 구할때 왜 m_nRadarDataRight+1의 변환에 다시 1을 빼었는지를 확실히 이해하여야 한다.
; 129  : //	int nLeft	= m_nRadarDataLeft;
; 130  : //	int nTop	= int( m_dRadarDataMin + 0.5);
; 131  : //	int nRight	= int( ( m_nRadarDataRight + 1 - m_nRadarDataLeft) * m_dXScale + 0.5) + m_nRadarDataLeft - 1;
; 132  : //	int nBottom	= int( ( m_dRadarDataMax - m_dRadarDataMin) * m_dYScale + 0.5 + m_dRadarDataMin);
; 133  : // 0. 주의 이 Test시에는 반듯이 각각의 Scale Factor가 0이 아니어야 정상적인 그림이 나타난다. (m_dXScale, m_dYScale)
; 134  : // 1. 주의 Rectangle과 아래의 LineTo가 무엇이 다른지 정확히 이해하여야 한다.
; 135  : //	dc.Rectangle( nLeft, nTop, nRight, nBottom);
; 136  : // 2. Rectangle의 Width(), Height() 값이 무엇을 의미하는지 알아야 하고,
; 137  : //		함부로 이용하지 말아야 한다. (Rectangle이 아닌 개념을 Region으로 명시했다.)
; 138  : //		또한 LineTo의 경우 지정된 Point에는 칠하지 않는 것을 주의한다.
; 139  : //	dc.MoveTo( nLeft, nTop);
; 140  : //	dc.LineTo( nLeft, nBottom);
; 141  : //	dc.LineTo( nRight, nBottom);
; 142  : //	dc.LineTo( nRight, nTop);
; 143  : //	dc.LineTo( nLeft, nTop);
; 144  : 
; 145  : 	// 5.2 Graph를 출력한다.
; 146  : 	// 5.2.1 Data가 한 개 이하의 경우를 처리한다.
; 147  : 	//	(Scale Factor 값이 0인 경우로 그 한 값을 중심에 선으로 그린다.)
; 148  : 	if( m_nRadarDataRight <= m_nRadarDataLeft)

  00164	8b b7 b8 00 00
	00		 mov	 esi, DWORD PTR [edi+184]
  0016a	8d 4d 9c	 lea	 ecx, DWORD PTR _dc$[ebp]
  0016d	39 b7 bc 00 00
	00		 cmp	 DWORD PTR [edi+188], esi
  00173	7f 42		 jg	 SHORT $LN9@OnPaint

; 149  : 	{
; 150  : 		// 5.2.1.1 첫 Point 위치로 이동한다.
; 151  : 		// (2003.12.03) 선물,옵션 Data도 문안히 Mapping할 수 있도록 100배된 Data로 처리한다.
; 152  : 		double data = datalist->GetAt(pos) * 100;
; 153  : 		int nOneValue = int( ( m_rgnRadarGraph.bottom - m_rgnRadarGraph.top + 1) / 2 + m_dRadarDataMin);

  00175	8b 87 dc 00 00
	00		 mov	 eax, DWORD PTR [edi+220]
  0017b	2b 87 d4 00 00
	00		 sub	 eax, DWORD PTR [edi+212]
  00181	40		 inc	 eax
  00182	99		 cdq
  00183	2b c2		 sub	 eax, edx
  00185	d1 f8		 sar	 eax, 1
  00187	66 0f 6e c0	 movd	 xmm0, eax

; 154  : 		dc.MoveTo( m_rgnRadarGraph.left, nOneValue);

  0018b	8d 45 90	 lea	 eax, DWORD PTR $T3[ebp]
  0018e	f3 0f e6 c0	 cvtdq2pd xmm0, xmm0
  00192	f2 0f 58 87 c0
	00 00 00	 addsd	 xmm0, QWORD PTR [edi+192]
  0019a	f2 0f 2c d8	 cvttsd2si ebx, xmm0
  0019e	53		 push	 ebx
  0019f	ff b7 d0 00 00
	00		 push	 DWORD PTR [edi+208]
  001a5	50		 push	 eax
  001a6	e8 00 00 00 00	 call	 ?MoveTo@CDC@@QAE?AVCPoint@@HH@Z ; CDC::MoveTo

; 155  : 		// 5.2.1.2 끝 Point 위치로 선을 그린다. 마지막 Line이 Graph영역 끝에 닿도록 다음 X 좌표로 Line을 좀더 그린다.
; 156  : 		//	(LineTo가 마지막 Point를 칠하지 않는다. Reference 참조)
; 157  : 		dc.LineTo( m_rgnRadarGraph.right + 1, nOneValue);

  001ab	8b 8f d8 00 00
	00		 mov	 ecx, DWORD PTR [edi+216]
  001b1	41		 inc	 ecx

; 158  : 	}

  001b2	e9 2d 01 00 00	 jmp	 $LN10@OnPaint
$LN9@OnPaint:

; 165  : 		// (2003.12.03) 선물,옵션 Data도 문안히 Mapping할 수 있도록 100배된 Data로 처리한다.
; 166  : 		dc.MoveTo( int( ( i++ - m_nRadarDataLeft) * m_dXScale + 0.5) + m_nRadarDataLeft,

  001b7	8b 45 98	 mov	 eax, DWORD PTR _pNode$1$[ebp]
  001ba	f2 0f 10 8f c0
	00 00 00	 movsd	 xmm1, QWORD PTR [edi+192]
; File C:\Program Files (x86)\Microsoft Visual Studio\2019\Community\VC\Tools\MSVC\14.29.30133\atlmfc\include\afxtempl.h

; 813  : 		rPosition = (POSITION) pNode->pNext;

  001c2	8b 1b		 mov	 ebx, DWORD PTR [ebx]
; File D:\git\src\IBK\IBK_DRFN\ProjSrc\SrcChartEx\ChartOCX\ChartToolBar\Radar.cpp

; 164  : 		int nXOldValue = i;

  001c4	89 75 94	 mov	 DWORD PTR _nXOldValue$1$[ebp], esi

; 165  : 		// (2003.12.03) 선물,옵션 Data도 문안히 Mapping할 수 있도록 100배된 Data로 처리한다.
; 166  : 		dc.MoveTo( int( ( i++ - m_nRadarDataLeft) * m_dXScale + 0.5) + m_nRadarDataLeft,

  001c7	f2 0f 10 40 08	 movsd	 xmm0, QWORD PTR [eax+8]
  001cc	f2 0f 59 05 00
	00 00 00	 mulsd	 xmm0, QWORD PTR __real@4059000000000000
  001d4	f2 0f 5c c1	 subsd	 xmm0, xmm1
  001d8	f2 0f 59 87 e8
	00 00 00	 mulsd	 xmm0, QWORD PTR [edi+232]
  001e0	f2 0f 58 05 00
	00 00 00	 addsd	 xmm0, QWORD PTR __real@3fe0000000000000
  001e8	f2 0f 58 c1	 addsd	 xmm0, xmm1
  001ec	f2 0f 2c c0	 cvttsd2si eax, xmm0
  001f0	f2 0f 10 87 e0
	00 00 00	 movsd	 xmm0, QWORD PTR [edi+224]
  001f8	f2 0f 59 05 00
	00 00 00	 mulsd	 xmm0, QWORD PTR __real@0000000000000000
  00200	50		 push	 eax
  00201	f2 0f 58 05 00
	00 00 00	 addsd	 xmm0, QWORD PTR __real@3fe0000000000000
  00209	f2 0f 2c c0	 cvttsd2si eax, xmm0
  0020d	03 c6		 add	 eax, esi
  0020f	50		 push	 eax
  00210	8d 85 5c ff ff
	ff		 lea	 eax, DWORD PTR $T2[ebp]
  00216	50		 push	 eax
  00217	e8 00 00 00 00	 call	 ?MoveTo@CDC@@QAE?AVCPoint@@HH@Z ; CDC::MoveTo

; 167  : 			int( ( datalist->GetNext(pos) * 100 - m_dRadarDataMin) * m_dYScale + 0.5 + m_dRadarDataMin));
; 168  : 		// 5.2.2.2 Data 부분을 이동하면서 Line을 그린다.
; 169  : 		double dPacketValue;
; 170  : 		int nYValue, nXValue; 
; 171  : 		while( i <= m_nRadarDataRight)

  0021c	8b 8f bc 00 00
	00		 mov	 ecx, DWORD PTR [edi+188]
  00222	46		 inc	 esi
  00223	3b f1		 cmp	 esi, ecx
  00225	0f 8f 7e 01 00
	00		 jg	 $LN51@OnPaint
  0022b	8b 45 94	 mov	 eax, DWORD PTR _nYValue$4[ebp]
  0022e	89 45 98	 mov	 DWORD PTR $T5[ebp], eax
$LL2@OnPaint:

; 172  : 		{
; 173  : 			if(pos == NULL) break;

  00231	85 db		 test	 ebx, ebx
  00233	0f 84 81 00 00
	00		 je	 $LN52@OnPaint

; 178  : 			nXValue = int( ( i - m_nRadarDataLeft) * m_dXScale + 0.5) + m_nRadarDataLeft;

  00239	8b 8f b8 00 00
	00		 mov	 ecx, DWORD PTR [edi+184]
  0023f	8b c6		 mov	 eax, esi
  00241	f2 0f 10 15 00
	00 00 00	 movsd	 xmm2, QWORD PTR __real@3fe0000000000000
  00249	2b c1		 sub	 eax, ecx
; File C:\Program Files (x86)\Microsoft Visual Studio\2019\Community\VC\Tools\MSVC\14.29.30133\atlmfc\include\afxtempl.h

; 811  : 	{ CNode* pNode = (CNode*) rPosition;

  0024b	8b d3		 mov	 edx, ebx

; 813  : 		rPosition = (POSITION) pNode->pNext;

  0024d	8b 1b		 mov	 ebx, DWORD PTR [ebx]
  0024f	66 0f 6e c0	 movd	 xmm0, eax
; File D:\git\src\IBK\IBK_DRFN\ProjSrc\SrcChartEx\ChartOCX\ChartToolBar\Radar.cpp

; 178  : 			nXValue = int( ( i - m_nRadarDataLeft) * m_dXScale + 0.5) + m_nRadarDataLeft;

  00253	f3 0f e6 c0	 cvtdq2pd xmm0, xmm0
  00257	f2 0f 59 87 e0
	00 00 00	 mulsd	 xmm0, QWORD PTR [edi+224]
  0025f	f2 0f 58 c2	 addsd	 xmm0, xmm2
  00263	f2 0f 2c c0	 cvttsd2si eax, xmm0
  00267	03 c1		 add	 eax, ecx

; 179  : 			if( nXOldValue != nXValue)

  00269	39 45 94	 cmp	 DWORD PTR _nXOldValue$1$[ebp], eax
  0026c	74 3d		 je	 SHORT $LN12@OnPaint

; 180  : 			{
; 181  : 				nXOldValue = nXValue;
; 182  : 
; 183  : 				// (2003.12.03) 선물,옵션 Data도 문안히 Mapping할 수 있도록 100배된 Data로 처리한다.
; 184  : 				nYValue = int( ( dPacketValue * 100 - m_dRadarDataMin) * m_dYScale + 0.5 + m_dRadarDataMin);

  0026e	f2 0f 10 42 08	 movsd	 xmm0, QWORD PTR [edx+8]
  00273	f2 0f 59 05 00
	00 00 00	 mulsd	 xmm0, QWORD PTR __real@4059000000000000
  0027b	89 45 94	 mov	 DWORD PTR _nXOldValue$1$[ebp], eax
  0027e	f2 0f 10 8f c0
	00 00 00	 movsd	 xmm1, QWORD PTR [edi+192]
  00286	f2 0f 5c c1	 subsd	 xmm0, xmm1
  0028a	f2 0f 59 87 e8
	00 00 00	 mulsd	 xmm0, QWORD PTR [edi+232]
  00292	f2 0f 58 c2	 addsd	 xmm0, xmm2
  00296	f2 0f 58 c1	 addsd	 xmm0, xmm1
  0029a	f2 0f 2c c8	 cvttsd2si ecx, xmm0

; 185  : 				dc.LineTo( nXValue, nYValue);

  0029e	51		 push	 ecx
  0029f	89 4d 98	 mov	 DWORD PTR $T5[ebp], ecx
  002a2	8d 4d 9c	 lea	 ecx, DWORD PTR _dc$[ebp]
  002a5	50		 push	 eax
  002a6	e8 00 00 00 00	 call	 ?LineTo@CDC@@QAEHHH@Z	; CDC::LineTo
$LN12@OnPaint:

; 186  : 			}
; 187  : 
; 188  : 			i++;

  002ab	8b 8f bc 00 00
	00		 mov	 ecx, DWORD PTR [edi+188]
  002b1	46		 inc	 esi
  002b2	3b f1		 cmp	 esi, ecx
  002b4	0f 8e 77 ff ff
	ff		 jle	 $LL2@OnPaint
$LN52@OnPaint:

; 189  : 		}
; 190  : 		// 5.2.2.3 마지막 Line이 Graph영역 끝에 닿도록 다음 X 좌표로 Line을 좀더 그린다.
; 191  : 		//	(LineTo가 마지막 Point를 칠하지 않는다. Reference 참조)
; 192  : 		// (2003.12.03, 배승원) X Scale의 마지막 Index도 다른 것과 동등한 폭을 갖도록 한다.
; 193  : 		//		(1 Pxcel이 아니라 1 Data 단위의 위치까지 그린다. 물론 LineTo니까 다음 Data의 것은 그려지지 않는다.)
; 194  : 		dc.LineTo( int( ( m_nRadarDataRight + 1 - m_nRadarDataLeft) * m_dXScale + 0.5) + m_nRadarDataLeft, 

  002ba	8b 5d 98	 mov	 ebx, DWORD PTR $T5[ebp]
$LN45@OnPaint:
  002bd	8b 87 b8 00 00
	00		 mov	 eax, DWORD PTR [edi+184]
  002c3	2b c8		 sub	 ecx, eax
  002c5	41		 inc	 ecx
  002c6	66 0f 6e c1	 movd	 xmm0, ecx
  002ca	f3 0f e6 c0	 cvtdq2pd xmm0, xmm0
  002ce	f2 0f 59 87 e0
	00 00 00	 mulsd	 xmm0, QWORD PTR [edi+224]
  002d6	f2 0f 58 05 00
	00 00 00	 addsd	 xmm0, QWORD PTR __real@3fe0000000000000
  002de	f2 0f 2c c8	 cvttsd2si ecx, xmm0
  002e2	03 c8		 add	 ecx, eax
$LN10@OnPaint:

; 195  : 			nYValue);
; 196  : 	}
; 197  : 
; 198  : 	// 6. 구간선택중이 아닌 경우를 제외한다.
; 199  : 	if( m_nDragSelectStart == 0 && m_nDragSelectEnd == 0)

  002e4	53		 push	 ebx
  002e5	51		 push	 ecx
  002e6	8d 4d 9c	 lea	 ecx, DWORD PTR _dc$[ebp]
  002e9	e8 00 00 00 00	 call	 ?LineTo@CDC@@QAEHHH@Z	; CDC::LineTo
  002ee	83 bf f8 00 00
	00 00		 cmp	 DWORD PTR [edi+248], 0
  002f5	75 09		 jne	 SHORT $LN50@OnPaint
  002f7	83 bf fc 00 00
	00 00		 cmp	 DWORD PTR [edi+252], 0
  002fe	74 65		 je	 SHORT $LN21@OnPaint
$LN50@OnPaint:

; 200  : 	{
; 201  : 		// 6.1 마무리 작업으로 초기의 Pen으로 복원한다.
; 202  : 		dc.SelectObject(pOldPen);
; 203  : 		return;
; 204  : 	}
; 205  : 
; 206  : 	// (2003.12.04, 배승원) 구간 선택 기능을 추가한다.
; 207  : 	//		구간선택 처리중에는 Real이 못오게 제한하지만, 특별한 경우의 RePaint를 대비하여 복원기능을 제공한다.
; 208  : 	// 6.1 Mapping Mode를 복원한다.
; 209  : 	SetMapMode( hDC, nPreMapMode);

  00300	ff 75 88	 push	 DWORD PTR _nPreMapMode$1$[ebp]
  00303	8b 75 84	 mov	 esi, DWORD PTR _hDC$1$[ebp]
  00306	56		 push	 esi
  00307	ff 15 00 00 00
	00		 call	 DWORD PTR __imp__SetMapMode@8

; 210  : 	SetWindowOrgEx( hDC, ptOldWindowOrg.x, ptOldWindowOrg.y, NULL);

  0030d	6a 00		 push	 0
  0030f	ff b5 78 ff ff
	ff		 push	 DWORD PTR _ptOldWindowOrg$[ebp+4]
  00315	ff b5 74 ff ff
	ff		 push	 DWORD PTR _ptOldWindowOrg$[ebp]
  0031b	56		 push	 esi
  0031c	ff 15 00 00 00
	00		 call	 DWORD PTR __imp__SetWindowOrgEx@16

; 211  : 	SetViewportOrgEx( hDC, ptOldViewportOrg.x, ptOldViewportOrg.y, NULL);

  00322	6a 00		 push	 0
  00324	ff b5 70 ff ff
	ff		 push	 DWORD PTR _ptOldViewportOrg$[ebp+4]
  0032a	ff b5 6c ff ff
	ff		 push	 DWORD PTR _ptOldViewportOrg$[ebp]
  00330	56		 push	 esi
  00331	ff 15 00 00 00
	00		 call	 DWORD PTR __imp__SetViewportOrgEx@16

; 212  : 	SetViewportExtEx( hDC, sizOldViewportExt.cx, sizOldViewportExt.cy, NULL);

  00337	6a 00		 push	 0
  00339	ff b5 68 ff ff
	ff		 push	 DWORD PTR _sizOldViewportExt$[ebp+4]
  0033f	ff b5 64 ff ff
	ff		 push	 DWORD PTR _sizOldViewportExt$[ebp]
  00345	56		 push	 esi
  00346	ff 15 00 00 00
	00		 call	 DWORD PTR __imp__SetViewportExtEx@16

; 213  : 	// 6.2 Dragging 영역을 출력한다.
; 214  : 	DrawDragSelectRectangle( &dc, m_nDragSelectStart, m_nDragSelectEnd);

  0034c	6a 00		 push	 0
  0034e	ff b7 fc 00 00
	00		 push	 DWORD PTR [edi+252]
  00354	8d 45 9c	 lea	 eax, DWORD PTR _dc$[ebp]
  00357	8b cf		 mov	 ecx, edi
  00359	ff b7 f8 00 00
	00		 push	 DWORD PTR [edi+248]
  0035f	50		 push	 eax
  00360	e8 00 00 00 00	 call	 ?DrawDragSelectRectangle@CRadar@@IAEXPAVCDC@@JJPAJ@Z ; CRadar::DrawDragSelectRectangle
$LN21@OnPaint:
; File C:\Program Files (x86)\Microsoft Visual Studio\2019\Community\VC\Tools\MSVC\14.29.30133\atlmfc\include\afxwin1.inl

; 106  : 	{ }

  00365	ff 75 8c	 push	 DWORD PTR tv784[ebp]
  00368	8d 4d 9c	 lea	 ecx, DWORD PTR _dc$[ebp]
  0036b	e8 00 00 00 00	 call	 ?SelectObject@CDC@@QAEPAVCPen@@PAV2@@Z ; CDC::SelectObject
  00370	8d 8d 7c ff ff
	ff		 lea	 ecx, DWORD PTR _pen$[ebp]
  00376	c7 85 7c ff ff
	ff 00 00 00 00	 mov	 DWORD PTR _pen$[ebp], OFFSET ??_7CPen@@6B@
  00380	e8 00 00 00 00	 call	 ??1CGdiObject@@UAE@XZ	; CGdiObject::~CGdiObject
$LN5@OnPaint:
; File D:\git\src\IBK\IBK_DRFN\ProjSrc\SrcChartEx\ChartOCX\ChartToolBar\Radar.cpp

; 218  : }

  00385	8d 4d 9c	 lea	 ecx, DWORD PTR _dc$[ebp]
  00388	e8 00 00 00 00	 call	 ??1CPaintDC@@UAE@XZ	; CPaintDC::~CPaintDC
  0038d	8b 4d f4	 mov	 ecx, DWORD PTR __$EHRec$[ebp]
  00390	64 89 0d 00 00
	00 00		 mov	 DWORD PTR fs:0, ecx
  00397	59		 pop	 ecx
  00398	5f		 pop	 edi
  00399	5e		 pop	 esi
  0039a	5b		 pop	 ebx
  0039b	8b 4d f0	 mov	 ecx, DWORD PTR __$ArrayPad$[ebp]
  0039e	33 cd		 xor	 ecx, ebp
  003a0	e8 00 00 00 00	 call	 @__security_check_cookie@4
  003a5	8b e5		 mov	 esp, ebp
  003a7	5d		 pop	 ebp
  003a8	c3		 ret	 0
$LN51@OnPaint:

; 167  : 			int( ( datalist->GetNext(pos) * 100 - m_dRadarDataMin) * m_dYScale + 0.5 + m_dRadarDataMin));
; 168  : 		// 5.2.2.2 Data 부분을 이동하면서 Line을 그린다.
; 169  : 		double dPacketValue;
; 170  : 		int nYValue, nXValue; 
; 171  : 		while( i <= m_nRadarDataRight)

  003a9	8b 5d 94	 mov	 ebx, DWORD PTR _nYValue$4[ebp]

; 172  : 		{
; 173  : 			if(pos == NULL) break;

  003ac	e9 0c ff ff ff	 jmp	 $LN45@OnPaint
_TEXT	ENDS
;	COMDAT text$x
text$x	SEGMENT
__unwindfunclet$?OnPaint@CRadar@@IAEXXZ$0:
  00000	8d 4d 9c	 lea	 ecx, DWORD PTR _dc$[ebp]
  00003	e9 00 00 00 00	 jmp	 ??1CPaintDC@@UAE@XZ	; CPaintDC::~CPaintDC
__unwindfunclet$?OnPaint@CRadar@@IAEXXZ$2:
  00008	8d 8d 7c ff ff
	ff		 lea	 ecx, DWORD PTR _pen$[ebp]
  0000e	e9 00 00 00 00	 jmp	 ??1CPen@@UAE@XZ		; CPen::~CPen
  00013	cc		 int	 3
  00014	cc		 int	 3
  00015	cc		 int	 3
  00016	cc		 int	 3
  00017	cc		 int	 3
__ehhandler$?OnPaint@CRadar@@IAEXXZ:
  00018	90		 npad	 1
  00019	90		 npad	 1
  0001a	8b 54 24 08	 mov	 edx, DWORD PTR [esp+8]
  0001e	8d 42 0c	 lea	 eax, DWORD PTR [edx+12]
  00021	8b 8a 58 ff ff
	ff		 mov	 ecx, DWORD PTR [edx-168]
  00027	33 c8		 xor	 ecx, eax
  00029	e8 00 00 00 00	 call	 @__security_check_cookie@4
  0002e	8b 4a fc	 mov	 ecx, DWORD PTR [edx-4]
  00031	33 c8		 xor	 ecx, eax
  00033	e8 00 00 00 00	 call	 @__security_check_cookie@4
  00038	b8 00 00 00 00	 mov	 eax, OFFSET __ehfuncinfo$?OnPaint@CRadar@@IAEXXZ
  0003d	e9 00 00 00 00	 jmp	 ___CxxFrameHandler3
text$x	ENDS
?OnPaint@CRadar@@IAEXXZ ENDP				; CRadar::OnPaint
; Function compile flags: /Ogtp
; File D:\git\src\IBK\IBK_DRFN\ProjSrc\SrcChartEx\ChartOCX\ChartToolBar\Radar.cpp
; File C:\Program Files (x86)\Microsoft Visual Studio\2019\Community\VC\Tools\MSVC\14.29.30133\atlmfc\include\afxwin2.inl
; File D:\git\src\IBK\IBK_DRFN\ProjSrc\SrcChartEx\ChartOCX\ChartToolBar\Radar.cpp
; File C:\Program Files (x86)\Microsoft Visual Studio\2019\Community\VC\Tools\MSVC\14.29.30133\atlmfc\include\afxwin2.inl
; File D:\git\src\IBK\IBK_DRFN\ProjSrc\SrcChartEx\ChartOCX\ChartToolBar\Radar.cpp
; File C:\Program Files (x86)\Microsoft Visual Studio\2019\Community\VC\Tools\MSVC\14.29.30133\atlmfc\include\afxwin2.inl
; File D:\git\src\IBK\IBK_DRFN\ProjSrc\SrcChartEx\ChartOCX\ChartToolBar\Radar.cpp
; File C:\Program Files (x86)\Microsoft Visual Studio\2019\Community\VC\Tools\MSVC\14.29.30133\atlmfc\include\afxwin2.inl
; File D:\git\src\IBK\IBK_DRFN\ProjSrc\SrcChartEx\ChartOCX\ChartToolBar\Radar.cpp
; File C:\Program Files (x86)\Microsoft Visual Studio\2019\Community\VC\Tools\MSVC\14.29.30133\atlmfc\include\afxwin2.inl
; File D:\git\src\IBK\IBK_DRFN\ProjSrc\SrcChartEx\ChartOCX\ChartToolBar\Radar.cpp
;	COMDAT ?OnLButtonUp@CRadar@@IAEXIVCPoint@@@Z
_TEXT	SEGMENT
_nFlags$ = 8						; size = 4
_point$ = 12						; size = 8
?OnLButtonUp@CRadar@@IAEXIVCPoint@@@Z PROC		; CRadar::OnLButtonUp, COMDAT
; _this$ = ecx

; 503  : {

  00000	55		 push	 ebp
  00001	8b ec		 mov	 ebp, esp
  00003	57		 push	 edi
  00004	8b f9		 mov	 edi, ecx

; 504  : 	// (2003.12.03) Zoom Full Mode Flag을 관리하여, 해당 Mode에서는 Mouse Tracing외의 작업을 제한한다.
; 505  : 	// (2003.12.04) 자료가 없는 경우도 함께 제외한다.
; 506  : 	// (2003.12.05) Radar 밖에서 LButton을 누르고 들어오는 경우를 제외한다.
; 507  : 	if( m_bZoomFullMode || ( m_nRadarDataLeft == 0 && m_nRadarDataRight == 0) || m_nDragSelectStart == 0)

  00006	83 bf 94 00 00
	00 00		 cmp	 DWORD PTR [edi+148], 0
  0000d	0f 85 87 01 00
	00		 jne	 $LN3@OnLButtonU
  00013	83 bf b8 00 00
	00 00		 cmp	 DWORD PTR [edi+184], 0
  0001a	75 0d		 jne	 SHORT $LN4@OnLButtonU
  0001c	83 bf bc 00 00
	00 00		 cmp	 DWORD PTR [edi+188], 0
  00023	0f 84 71 01 00
	00		 je	 $LN3@OnLButtonU
$LN4@OnLButtonU:
  00029	83 bf f8 00 00
	00 00		 cmp	 DWORD PTR [edi+248], 0
  00030	0f 84 64 01 00
	00		 je	 $LN3@OnLButtonU

; 508  : 	{
; 509  : 		CWnd::OnLButtonUp(nFlags, point);
; 510  : 		return;
; 511  : 	}
; 512  : 
; 513  : 	// 1. Mouse Message Capture를 해제하고, Dragging Flag을 해제한다.
; 514  : 	ReleaseCapture();

  00036	ff 15 00 00 00
	00		 call	 DWORD PTR __imp__ReleaseCapture@0

; 597  : 	if( p_nPointX < m_rgnRadarGraph.left)

  0003c	8b 87 d0 00 00
	00		 mov	 eax, DWORD PTR [edi+208]
  00042	8b 4d 0c	 mov	 ecx, DWORD PTR _point$[ebp]
  00045	3b c8		 cmp	 ecx, eax
  00047	7d 05		 jge	 SHORT $LN13@OnLButtonU

; 598  : 	{
; 599  : 		nDataIndex = ( p_bWithCorrection ? m_nRadarDataLeft : -1);
; 600  : 		if( p_bWithCorrection) p_nPointX = m_rgnRadarGraph.left;

  00049	89 45 0c	 mov	 DWORD PTR _point$[ebp], eax

; 601  : 	}

  0004c	eb 0e		 jmp	 SHORT $LN17@OnLButtonU
$LN13@OnLButtonU:

; 602  : 	else if( m_rgnRadarGraph.right < p_nPointX)

  0004e	8b 87 d8 00 00
	00		 mov	 eax, DWORD PTR [edi+216]
  00054	3b c1		 cmp	 eax, ecx
  00056	0f 4c c8	 cmovl	 ecx, eax
  00059	89 4d 0c	 mov	 DWORD PTR _point$[ebp], ecx
$LN17@OnLButtonU:
  0005c	53		 push	 ebx
  0005d	56		 push	 esi
; File C:\Program Files (x86)\Microsoft Visual Studio\2019\Community\VC\Tools\MSVC\14.29.30133\atlmfc\include\afxwin2.inl

; 100  : 	{ ASSERT(::IsWindow(m_hWnd)); return CDC::FromHandle(::GetDC(m_hWnd)); }

  0005e	ff 77 20	 push	 DWORD PTR [edi+32]
  00061	ff 15 00 00 00
	00		 call	 DWORD PTR __imp__GetDC@4
  00067	50		 push	 eax
  00068	e8 00 00 00 00	 call	 ?FromHandle@CDC@@SGPAV1@PAUHDC__@@@Z ; CDC::FromHandle
; File D:\git\src\IBK\IBK_DRFN\ProjSrc\SrcChartEx\ChartOCX\ChartToolBar\Radar.cpp

; 523  : 	DrawDragSelectRectangle( pDC, m_nDragSelectStart, point.x, &m_nDragSelectEnd);

  0006d	8d 9f fc 00 00
	00		 lea	 ebx, DWORD PTR [edi+252]
  00073	8b f0		 mov	 esi, eax
  00075	53		 push	 ebx
  00076	ff 75 0c	 push	 DWORD PTR _point$[ebp]
  00079	8b cf		 mov	 ecx, edi
  0007b	ff b7 f8 00 00
	00		 push	 DWORD PTR [edi+248]
  00081	56		 push	 esi
  00082	e8 00 00 00 00	 call	 ?DrawDragSelectRectangle@CRadar@@IAEXPAVCDC@@JJPAJ@Z ; CRadar::DrawDragSelectRectangle
; File C:\Program Files (x86)\Microsoft Visual Studio\2019\Community\VC\Tools\MSVC\14.29.30133\atlmfc\include\afxwin2.inl

; 104  : 	{ ASSERT(::IsWindow(m_hWnd)); return ::ReleaseDC(m_hWnd, pDC->m_hDC); }

  00087	ff 76 04	 push	 DWORD PTR [esi+4]
  0008a	ff 77 20	 push	 DWORD PTR [edi+32]
  0008d	ff 15 00 00 00
	00		 call	 DWORD PTR __imp__ReleaseDC@8
; File D:\git\src\IBK\IBK_DRFN\ProjSrc\SrcChartEx\ChartOCX\ChartToolBar\Radar.cpp

; 526  : 	if( m_nDragSelectEnd < m_nDragSelectStart)

  00093	8b 13		 mov	 edx, DWORD PTR [ebx]
  00095	8b 8f f8 00 00
	00		 mov	 ecx, DWORD PTR [edi+248]
  0009b	3b d1		 cmp	 edx, ecx
  0009d	7d 06		 jge	 SHORT $LN5@OnLButtonU

; 527  : 	{
; 528  : 		int nDragSelectEnd	= m_nDragSelectStart;

  0009f	8b c1		 mov	 eax, ecx

; 529  : 		m_nDragSelectStart	= m_nDragSelectEnd;
; 530  : 		m_nDragSelectEnd	= nDragSelectEnd;

  000a1	8b ca		 mov	 ecx, edx
  000a3	8b d0		 mov	 edx, eax
$LN5@OnLButtonU:

; 597  : 	if( p_nPointX < m_rgnRadarGraph.left)

  000a5	8b 87 d0 00 00
	00		 mov	 eax, DWORD PTR [edi+208]
  000ab	3b c8		 cmp	 ecx, eax
  000ad	7c 26		 jl	 SHORT $LN58@OnLButtonU

; 602  : 	else if( m_rgnRadarGraph.right < p_nPointX)

  000af	39 8f d8 00 00
	00		 cmp	 DWORD PTR [edi+216], ecx
  000b5	7c 1e		 jl	 SHORT $LN58@OnLButtonU

; 610  : 	return int( ( p_nPointX - m_rgnRadarGraph.left) / m_dXScale) + m_nRadarDataLeft;

  000b7	2b c8		 sub	 ecx, eax
  000b9	66 0f 6e c1	 movd	 xmm0, ecx
  000bd	f3 0f e6 c0	 cvtdq2pd xmm0, xmm0
  000c1	f2 0f 5e 87 e0
	00 00 00	 divsd	 xmm0, QWORD PTR [edi+224]
  000c9	f2 0f 2c d8	 cvttsd2si ebx, xmm0
  000cd	03 9f b8 00 00
	00		 add	 ebx, DWORD PTR [edi+184]
  000d3	eb 03		 jmp	 SHORT $LN28@OnLButtonU
$LN58@OnLButtonU:

; 603  : 	{
; 604  : 		nDataIndex = ( p_bWithCorrection ? m_nRadarDataRight : -1);
; 605  : 		if( p_bWithCorrection) p_nPointX = m_rgnRadarGraph.right;
; 606  : 	}
; 607  : 	// 2. Data Index를 산출하여 Return한다.
; 608  : 	//  (주의, 어느 선까지의 연산을 INT화 시키느냐가 값을 좌우한다.)
; 609  : 	if( nDataIndex) return nDataIndex;

  000d5	83 cb ff	 or	 ebx, -1
$LN28@OnLButtonU:

; 597  : 	if( p_nPointX < m_rgnRadarGraph.left)

  000d8	3b d0		 cmp	 edx, eax
  000da	7c 26		 jl	 SHORT $LN59@OnLButtonU

; 602  : 	else if( m_rgnRadarGraph.right < p_nPointX)

  000dc	39 97 d8 00 00
	00		 cmp	 DWORD PTR [edi+216], edx
  000e2	7c 1e		 jl	 SHORT $LN59@OnLButtonU

; 610  : 	return int( ( p_nPointX - m_rgnRadarGraph.left) / m_dXScale) + m_nRadarDataLeft;

  000e4	2b d0		 sub	 edx, eax
  000e6	66 0f 6e c2	 movd	 xmm0, edx
  000ea	f3 0f e6 c0	 cvtdq2pd xmm0, xmm0
  000ee	f2 0f 5e 87 e0
	00 00 00	 divsd	 xmm0, QWORD PTR [edi+224]
  000f6	f2 0f 2c f0	 cvttsd2si esi, xmm0
  000fa	03 b7 b8 00 00
	00		 add	 esi, DWORD PTR [edi+184]
  00100	eb 03		 jmp	 SHORT $LN40@OnLButtonU
$LN59@OnLButtonU:

; 603  : 	{
; 604  : 		nDataIndex = ( p_bWithCorrection ? m_nRadarDataRight : -1);
; 605  : 		if( p_bWithCorrection) p_nPointX = m_rgnRadarGraph.right;
; 606  : 	}
; 607  : 	// 2. Data Index를 산출하여 Return한다.
; 608  : 	//  (주의, 어느 선까지의 연산을 INT화 시키느냐가 값을 좌우한다.)
; 609  : 	if( nDataIndex) return nDataIndex;

  00102	83 ce ff	 or	 esi, -1
$LN40@OnLButtonU:
; File C:\Program Files (x86)\Microsoft Visual Studio\2019\Community\VC\Tools\MSVC\14.29.30133\atlmfc\include\afxwin2.inl

; 213  : 	{ ASSERT(::IsWindow(m_hWnd)); return CWnd::FromHandle(::GetParent(m_hWnd)); }

  00105	ff 77 20	 push	 DWORD PTR [edi+32]
; File D:\git\src\IBK\IBK_DRFN\ProjSrc\SrcChartEx\ChartOCX\ChartToolBar\Radar.cpp

; 535  : 	int nDataViewWidth = GetDataIndex( m_nDragSelectEnd, FALSE) - nDataViewStart + 1;

  00108	2b f3		 sub	 esi, ebx

; 536  : 	// 5. Dragging이 끝났음을 먼저 설정한다.
; 537  : 	m_nDragSelectStart = 0;

  0010a	c7 87 f8 00 00
	00 00 00 00 00	 mov	 DWORD PTR [edi+248], 0
  00114	46		 inc	 esi

; 538  : 	m_nDragSelectEnd = 0;

  00115	c7 87 fc 00 00
	00 00 00 00 00	 mov	 DWORD PTR [edi+252], 0
; File C:\Program Files (x86)\Microsoft Visual Studio\2019\Community\VC\Tools\MSVC\14.29.30133\atlmfc\include\afxwin2.inl

; 213  : 	{ ASSERT(::IsWindow(m_hWnd)); return CWnd::FromHandle(::GetParent(m_hWnd)); }

  0011f	ff 15 00 00 00
	00		 call	 DWORD PTR __imp__GetParent@4
  00125	50		 push	 eax
  00126	e8 00 00 00 00	 call	 ?FromHandle@CWnd@@SGPAV1@PAUHWND__@@@Z ; CWnd::FromHandle
; File D:\git\src\IBK\IBK_DRFN\ProjSrc\SrcChartEx\ChartOCX\ChartToolBar\Radar.cpp

; 541  : 	int nMinDataCountOnOnePage = ((CToolBarDlg*)GetParent())->GetCountMinPerPage();	// 종찬(04/11/04) OCX에서 가져오는 루틴 수정.

  0012b	8b c8		 mov	 ecx, eax
  0012d	e8 00 00 00 00	 call	 ?GetCountMinPerPage@CToolBarDlg@@QAEHXZ ; CToolBarDlg::GetCountMinPerPage
  00132	8b c8		 mov	 ecx, eax

; 542  : 	if( nDataViewWidth < nMinDataCountOnOnePage)

  00134	3b f1		 cmp	 esi, ecx
  00136	7d 0d		 jge	 SHORT $LN6@OnLButtonU

; 543  : 	{
; 544  : 		nDataViewStart -= ( nMinDataCountOnOnePage - nDataViewWidth) / 2;

  00138	2b c6		 sub	 eax, esi

; 545  : 		nDataViewWidth = nMinDataCountOnOnePage;

  0013a	8b f1		 mov	 esi, ecx
  0013c	99		 cdq
  0013d	2b c2		 sub	 eax, edx
  0013f	d1 f8		 sar	 eax, 1
  00141	f7 d8		 neg	 eax
  00143	03 d8		 add	 ebx, eax
$LN6@OnLButtonU:

; 546  : 	}
; 547  : 	// 6.2 End Index를 확인하여 보정한다.
; 548  : 	// (2004.09.02, 배승원) 마지막 Data 다음의 Index를 구하는 것이 아니므로, 1을 뺀다.
; 549  : 	int nEndNextIndex = nDataViewStart + nDataViewWidth - 1;

  00145	8d 4e ff	 lea	 ecx, DWORD PTR [esi-1]

; 550  : 	if( m_nRadarDataRight < nEndNextIndex)

  00148	8b b7 bc 00 00
	00		 mov	 esi, DWORD PTR [edi+188]
  0014e	03 cb		 add	 ecx, ebx
  00150	3b f1		 cmp	 esi, ecx
  00152	7d 08		 jge	 SHORT $LN60@OnLButtonU

; 551  : 	{
; 552  : 		// (2004.09.02, 배승원) 보정 오류를 개선한다. (이전에 '-='로 구성하였었다.)
; 553  : 		nDataViewStart	+= m_nRadarDataRight - nEndNextIndex;

  00154	8b c6		 mov	 eax, esi
  00156	2b c1		 sub	 eax, ecx
  00158	03 d8		 add	 ebx, eax

; 554  : 		nEndNextIndex	+= m_nRadarDataRight - nEndNextIndex;
; 555  : 	}
; 556  : 	// 6.3 Start Index를 확인하여 보정한다.
; 557  : 	if( nDataViewStart < 1)

  0015a	3b f1		 cmp	 esi, ecx
$LN60@OnLButtonU:
  0015c	0f 4d f1	 cmovge	 esi, ecx
  0015f	83 fb 01	 cmp	 ebx, 1
  00162	7d 08		 jge	 SHORT $LN8@OnLButtonU

; 558  : 	{
; 559  : 		nEndNextIndex	+= 1 - nDataViewStart;		// 순서를 왜 바꿨는지에 주의...

  00164	2b f3		 sub	 esi, ebx

; 560  : 		nDataViewStart	+= 1 - nDataViewStart;

  00166	bb 01 00 00 00	 mov	 ebx, 1
  0016b	46		 inc	 esi
$LN8@OnLButtonU:

; 561  : 	}
; 562  : 	// 6.4 Zero Based로 변환한다.
; 563  : 	nDataViewStart--;
; 564  : 	nEndNextIndex--;

  0016c	4e		 dec	 esi
  0016d	4b		 dec	 ebx

; 567  : 	( ( CToolBarDlg *)GetParent())->SetStartEndIndexToOcx( nDataViewStart, nEndNextIndex);

  0016e	56		 push	 esi
  0016f	53		 push	 ebx
; File C:\Program Files (x86)\Microsoft Visual Studio\2019\Community\VC\Tools\MSVC\14.29.30133\atlmfc\include\afxwin2.inl

; 213  : 	{ ASSERT(::IsWindow(m_hWnd)); return CWnd::FromHandle(::GetParent(m_hWnd)); }

  00170	ff 77 20	 push	 DWORD PTR [edi+32]
  00173	ff 15 00 00 00
	00		 call	 DWORD PTR __imp__GetParent@4
  00179	50		 push	 eax
  0017a	e8 00 00 00 00	 call	 ?FromHandle@CWnd@@SGPAV1@PAUHWND__@@@Z ; CWnd::FromHandle
; File D:\git\src\IBK\IBK_DRFN\ProjSrc\SrcChartEx\ChartOCX\ChartToolBar\Radar.cpp

; 567  : 	( ( CToolBarDlg *)GetParent())->SetStartEndIndexToOcx( nDataViewStart, nEndNextIndex);

  0017f	8b c8		 mov	 ecx, eax
  00181	e8 00 00 00 00	 call	 ?SetStartEndIndexToOcx@CToolBarDlg@@QAEXHH@Z ; CToolBarDlg::SetStartEndIndexToOcx

; 568  : 
; 569  : 	// (2006/11/18 - Seung-Won, Bae) Notify the User Zoom State to MultiChart
; 570  : 	m_pIChartCtrl->OnUserZoomChanged( nEndNextIndex - nDataViewStart + 1);

  00186	8b 8f 00 01 00
	00		 mov	 ecx, DWORD PTR [edi+256]
  0018c	2b f3		 sub	 esi, ebx
  0018e	46		 inc	 esi
  0018f	56		 push	 esi
  00190	8b 01		 mov	 eax, DWORD PTR [ecx]
  00192	ff 90 d0 06 00
	00		 call	 DWORD PTR [eax+1744]
  00198	5e		 pop	 esi
  00199	5b		 pop	 ebx
$LN3@OnLButtonU:

; 571  : 
; 572  : 	CWnd::OnLButtonUp(nFlags, point);
; 573  : }

  0019a	8b cf		 mov	 ecx, edi
  0019c	e8 00 00 00 00	 call	 ?Default@CWnd@@IAEJXZ	; CWnd::Default
  001a1	5f		 pop	 edi
  001a2	5d		 pop	 ebp
  001a3	c2 0c 00	 ret	 12			; 0000000cH
?OnLButtonUp@CRadar@@IAEXIVCPoint@@@Z ENDP		; CRadar::OnLButtonUp
_TEXT	ENDS
; Function compile flags: /Ogtp
; File D:\git\src\IBK\IBK_DRFN\ProjSrc\SrcChartEx\ChartOCX\ChartToolBar\Radar.cpp
; File C:\Program Files (x86)\Microsoft Visual Studio\2019\Community\VC\Tools\MSVC\14.29.30133\atlmfc\include\afxwin2.inl
; File D:\git\src\IBK\IBK_DRFN\ProjSrc\SrcChartEx\ChartOCX\ChartToolBar\Radar.cpp
; File C:\Program Files (x86)\Microsoft Visual Studio\2019\Community\VC\Tools\MSVC\14.29.30133\atlmfc\include\afxwin2.inl
; File D:\git\src\IBK\IBK_DRFN\ProjSrc\SrcChartEx\ChartOCX\ChartToolBar\Radar.cpp
; File C:\Program Files (x86)\Microsoft Visual Studio\2019\Community\VC\Tools\MSVC\14.29.30133\atlmfc\include\afxwin2.inl
; File D:\git\src\IBK\IBK_DRFN\ProjSrc\SrcChartEx\ChartOCX\ChartToolBar\Radar.cpp
; File C:\Program Files (x86)\Microsoft Visual Studio\2019\Community\VC\Tools\MSVC\14.29.30133\atlmfc\include\afxwin2.inl
; File D:\git\src\IBK\IBK_DRFN\ProjSrc\SrcChartEx\ChartOCX\ChartToolBar\Radar.cpp
;	COMDAT ?OnLButtonDown@CRadar@@IAEXIVCPoint@@@Z
_TEXT	SEGMENT
_nFlags$ = 8						; size = 4
_point$ = 12						; size = 8
?OnLButtonDown@CRadar@@IAEXIVCPoint@@@Z PROC		; CRadar::OnLButtonDown, COMDAT
; _this$ = ecx

; 467  : {	

  00000	55		 push	 ebp
  00001	8b ec		 mov	 ebp, esp
  00003	57		 push	 edi
  00004	8b f9		 mov	 edi, ecx

; 468  : 	// (2003.12.03) Zoom Full Mode Flag을 관리하여, 해당 Mode에서는 Mouse Tracing외의 작업을 제한한다.
; 469  : 	// (2003.12.04) 자료가 없는 경우도 함께 제외한다.
; 470  : 	if( m_bZoomFullMode || m_nRadarDataLeft == 0 && m_nRadarDataRight == 0)

  00006	83 bf 94 00 00
	00 00		 cmp	 DWORD PTR [edi+148], 0
  0000d	75 7f		 jne	 SHORT $LN3@OnLButtonD
  0000f	83 bf b8 00 00
	00 00		 cmp	 DWORD PTR [edi+184], 0
  00016	75 09		 jne	 SHORT $LN2@OnLButtonD
  00018	83 bf bc 00 00
	00 00		 cmp	 DWORD PTR [edi+188], 0
  0001f	74 6d		 je	 SHORT $LN3@OnLButtonD
$LN2@OnLButtonD:
; File C:\Program Files (x86)\Microsoft Visual Studio\2019\Community\VC\Tools\MSVC\14.29.30133\atlmfc\include\afxwin2.inl

; 163  : 	{ ASSERT(::IsWindow(m_hWnd)); return CWnd::FromHandle(::SetCapture(m_hWnd)); }

  00021	ff 77 20	 push	 DWORD PTR [edi+32]
  00024	ff 15 00 00 00
	00		 call	 DWORD PTR __imp__SetCapture@4
  0002a	50		 push	 eax
  0002b	e8 00 00 00 00	 call	 ?FromHandle@CWnd@@SGPAV1@PAUHWND__@@@Z ; CWnd::FromHandle
; File D:\git\src\IBK\IBK_DRFN\ProjSrc\SrcChartEx\ChartOCX\ChartToolBar\Radar.cpp

; 597  : 	if( p_nPointX < m_rgnRadarGraph.left)

  00030	8b 8f d0 00 00
	00		 mov	 ecx, DWORD PTR [edi+208]
  00036	8b 55 0c	 mov	 edx, DWORD PTR _point$[ebp]
  00039	3b d1		 cmp	 edx, ecx
  0003b	7c 0d		 jl	 SHORT $LN27@OnLButtonD

; 598  : 	{
; 599  : 		nDataIndex = ( p_bWithCorrection ? m_nRadarDataLeft : -1);
; 600  : 		if( p_bWithCorrection) p_nPointX = m_rgnRadarGraph.left;
; 601  : 	}
; 602  : 	else if( m_rgnRadarGraph.right < p_nPointX)

  0003d	8b 87 d8 00 00
	00		 mov	 eax, DWORD PTR [edi+216]
  00043	8b ca		 mov	 ecx, edx
  00045	3b c2		 cmp	 eax, edx
  00047	0f 4c c8	 cmovl	 ecx, eax
$LN27@OnLButtonD:
  0004a	56		 push	 esi
; File C:\Program Files (x86)\Microsoft Visual Studio\2019\Community\VC\Tools\MSVC\14.29.30133\atlmfc\include\afxwin2.inl

; 100  : 	{ ASSERT(::IsWindow(m_hWnd)); return CDC::FromHandle(::GetDC(m_hWnd)); }

  0004b	ff 77 20	 push	 DWORD PTR [edi+32]
; File D:\git\src\IBK\IBK_DRFN\ProjSrc\SrcChartEx\ChartOCX\ChartToolBar\Radar.cpp

; 482  : 	m_nDragSelectStart = point.x;

  0004e	89 4d 0c	 mov	 DWORD PTR _point$[ebp], ecx
  00051	89 8f f8 00 00
	00		 mov	 DWORD PTR [edi+248], ecx

; 483  : 	m_nDragSelectEnd = point.x;

  00057	89 8f fc 00 00
	00		 mov	 DWORD PTR [edi+252], ecx
; File C:\Program Files (x86)\Microsoft Visual Studio\2019\Community\VC\Tools\MSVC\14.29.30133\atlmfc\include\afxwin2.inl

; 100  : 	{ ASSERT(::IsWindow(m_hWnd)); return CDC::FromHandle(::GetDC(m_hWnd)); }

  0005d	ff 15 00 00 00
	00		 call	 DWORD PTR __imp__GetDC@4
  00063	50		 push	 eax
  00064	e8 00 00 00 00	 call	 ?FromHandle@CDC@@SGPAV1@PAUHDC__@@@Z ; CDC::FromHandle
; File D:\git\src\IBK\IBK_DRFN\ProjSrc\SrcChartEx\ChartOCX\ChartToolBar\Radar.cpp

; 486  : 	DrawDragSelectRectangle( pDC, m_nDragSelectStart, m_nDragSelectEnd);

  00069	6a 00		 push	 0
  0006b	ff b7 fc 00 00
	00		 push	 DWORD PTR [edi+252]
  00071	8b f0		 mov	 esi, eax
  00073	8b cf		 mov	 ecx, edi
  00075	ff b7 f8 00 00
	00		 push	 DWORD PTR [edi+248]
  0007b	56		 push	 esi
  0007c	e8 00 00 00 00	 call	 ?DrawDragSelectRectangle@CRadar@@IAEXPAVCDC@@JJPAJ@Z ; CRadar::DrawDragSelectRectangle
; File C:\Program Files (x86)\Microsoft Visual Studio\2019\Community\VC\Tools\MSVC\14.29.30133\atlmfc\include\afxwin2.inl

; 104  : 	{ ASSERT(::IsWindow(m_hWnd)); return ::ReleaseDC(m_hWnd, pDC->m_hDC); }

  00081	ff 76 04	 push	 DWORD PTR [esi+4]
  00084	ff 77 20	 push	 DWORD PTR [edi+32]
  00087	ff 15 00 00 00
	00		 call	 DWORD PTR __imp__ReleaseDC@8
  0008d	5e		 pop	 esi
$LN3@OnLButtonD:
; File D:\git\src\IBK\IBK_DRFN\ProjSrc\SrcChartEx\ChartOCX\ChartToolBar\Radar.cpp

; 490  : }

  0008e	8b cf		 mov	 ecx, edi
  00090	e8 00 00 00 00	 call	 ?Default@CWnd@@IAEJXZ	; CWnd::Default
  00095	5f		 pop	 edi
  00096	5d		 pop	 ebp
  00097	c2 0c 00	 ret	 12			; 0000000cH
?OnLButtonDown@CRadar@@IAEXIVCPoint@@@Z ENDP		; CRadar::OnLButtonDown
_TEXT	ENDS
; Function compile flags: /Ogtp
; File D:\git\src\IBK\IBK_DRFN\ProjSrc\SrcChartEx\ChartOCX\ChartToolBar\Radar.cpp
; File C:\Program Files (x86)\Microsoft Visual Studio\2019\Community\VC\Tools\MSVC\14.29.30133\atlmfc\include\afxwin2.inl
; File D:\git\src\IBK\IBK_DRFN\ProjSrc\SrcChartEx\ChartOCX\ChartToolBar\Radar.cpp
; File D:\git\src\IBK\IBK_DRFN\ProjSrc\SrcChartEx\ChartOCX\Include_Chart\Conversion.h
; File D:\git\src\IBK\IBK_DRFN\ProjSrc\SrcChartEx\ChartOCX\ChartToolBar\Radar.cpp
; File D:\git\src\IBK\IBK_DRFN\ProjSrc\SrcChartEx\ChartOCX\Include_Chart\Conversion.h
; File D:\git\src\IBK\IBK_DRFN\ProjSrc\SrcChartEx\ChartOCX\ChartToolBar\Radar.cpp
; File D:\git\src\IBK\IBK_DRFN\ProjSrc\SrcChartEx\ChartOCX\Include_Chart\Conversion.h
; File D:\git\src\IBK\IBK_DRFN\ProjSrc\SrcChartEx\ChartOCX\ChartToolBar\Radar.cpp
; File D:\git\src\IBK\IBK_DRFN\ProjSrc\SrcChartEx\ChartOCX\Include_Chart\Conversion.h
; File D:\git\src\IBK\IBK_DRFN\ProjSrc\SrcChartEx\ChartOCX\ChartToolBar\Radar.cpp
; File C:\Program Files (x86)\Microsoft Visual Studio\2019\Community\VC\Tools\MSVC\14.29.30133\atlmfc\include\cstringt.h
; File D:\git\src\IBK\IBK_DRFN\ProjSrc\SrcChartEx\ChartOCX\ChartToolBar\Radar.cpp
; File C:\Program Files (x86)\Microsoft Visual Studio\2019\Community\VC\Tools\MSVC\14.29.30133\atlmfc\include\cstringt.h
; File C:\Program Files (x86)\Microsoft Visual Studio\2019\Community\VC\Tools\MSVC\14.29.30133\atlmfc\include\atlsimpstr.h
; File C:\Program Files (x86)\Microsoft Visual Studio\2019\Community\VC\Tools\MSVC\14.29.30133\atlmfc\include\cstringt.h
; File D:\git\src\IBK\IBK_DRFN\ProjSrc\SrcChartEx\ChartOCX\ChartToolBar\Radar.cpp
; File C:\Program Files (x86)\Microsoft Visual Studio\2019\Community\VC\Tools\MSVC\14.29.30133\atlmfc\include\cstringt.h
; File C:\Program Files (x86)\Microsoft Visual Studio\2019\Community\VC\Tools\MSVC\14.29.30133\atlmfc\include\atlsimpstr.h
; File C:\Program Files (x86)\Microsoft Visual Studio\2019\Community\VC\Tools\MSVC\14.29.30133\atlmfc\include\cstringt.h
; File D:\git\src\IBK\IBK_DRFN\ProjSrc\SrcChartEx\ChartOCX\ChartToolBar\Radar.cpp
; File C:\Program Files (x86)\Microsoft Visual Studio\2019\Community\VC\Tools\MSVC\14.29.30133\atlmfc\include\cstringt.h
; File D:\git\src\IBK\IBK_DRFN\ProjSrc\SrcChartEx\ChartOCX\ChartToolBar\Radar.cpp
; File C:\Program Files (x86)\Microsoft Visual Studio\2019\Community\VC\Tools\MSVC\14.29.30133\atlmfc\include\afxwin2.inl
; File D:\git\src\IBK\IBK_DRFN\ProjSrc\SrcChartEx\ChartOCX\ChartToolBar\Radar.cpp
; File C:\Program Files (x86)\Microsoft Visual Studio\2019\Community\VC\Tools\MSVC\14.29.30133\atlmfc\include\afxwin2.inl
; File D:\git\src\IBK\IBK_DRFN\ProjSrc\SrcChartEx\ChartOCX\ChartToolBar\Radar.cpp
;	COMDAT ?OnMouseMove@CRadar@@IAEXIVCPoint@@@Z
_TEXT	SEGMENT
$T2 = -64						; size = 8
$T3 = -56						; size = 8
$T4 = -56						; size = 8
$T5 = -48						; size = 4
$T6 = -48						; size = 4
$T7 = -44						; size = 4
$T8 = -44						; size = 4
$T9 = -40						; size = 4
$T10 = -40						; size = 4
$T11 = -36						; size = 8
$T12 = -32						; size = 4
_this$1$ = -28						; size = 4
$T13 = -28						; size = 4
_strValue$ = -24					; size = 4
_nDataIndex$1$ = -20					; size = 4
$T14 = -20						; size = 4
_strDataTime$ = -16					; size = 4
__$EHRec$ = -12						; size = 12
_nFlags$ = 8						; size = 4
_point$ = 12						; size = 8
?OnMouseMove@CRadar@@IAEXIVCPoint@@@Z PROC		; CRadar::OnMouseMove, COMDAT
; _this$ = ecx

; 332  : {

  00000	55		 push	 ebp
  00001	8b ec		 mov	 ebp, esp
  00003	6a ff		 push	 -1
  00005	68 00 00 00 00	 push	 __ehhandler$?OnMouseMove@CRadar@@IAEXIVCPoint@@@Z
  0000a	64 a1 00 00 00
	00		 mov	 eax, DWORD PTR fs:0
  00010	50		 push	 eax
  00011	83 ec 34	 sub	 esp, 52			; 00000034H
  00014	53		 push	 ebx
  00015	56		 push	 esi
  00016	57		 push	 edi
  00017	a1 00 00 00 00	 mov	 eax, DWORD PTR ___security_cookie
  0001c	33 c5		 xor	 eax, ebp
  0001e	50		 push	 eax
  0001f	8d 45 f4	 lea	 eax, DWORD PTR __$EHRec$[ebp]
  00022	64 a3 00 00 00
	00		 mov	 DWORD PTR fs:0, eax
  00028	8b f1		 mov	 esi, ecx
  0002a	89 75 e4	 mov	 DWORD PTR _this$1$[ebp], esi
  0002d	c7 45 d8 00 00
	00 00		 mov	 DWORD PTR $T9[ebp], 0

; 333  : 	// 0. 먼저 자료가 없는 경우를 처리한다.
; 334  : 	if( m_nRadarDataLeft == 0 && m_nRadarDataRight == 0)

  00034	8b 8e b8 00 00
	00		 mov	 ecx, DWORD PTR [esi+184]
  0003a	85 c9		 test	 ecx, ecx
  0003c	75 23		 jne	 SHORT $LN80@OnMouseMov
  0003e	39 8e bc 00 00
	00		 cmp	 DWORD PTR [esi+188], ecx
  00044	75 1b		 jne	 SHORT $LN80@OnMouseMov
; File C:\Program Files (x86)\Microsoft Visual Studio\2019\Community\VC\Tools\MSVC\14.29.30133\atlmfc\include\afxwin2.inl

; 454  : 	{ Default(); }

  00046	8b ce		 mov	 ecx, esi
  00048	e8 00 00 00 00	 call	 ?Default@CWnd@@IAEJXZ	; CWnd::Default
; File D:\git\src\IBK\IBK_DRFN\ProjSrc\SrcChartEx\ChartOCX\ChartToolBar\Radar.cpp

; 375  : }

  0004d	8b 4d f4	 mov	 ecx, DWORD PTR __$EHRec$[ebp]
  00050	64 89 0d 00 00
	00 00		 mov	 DWORD PTR fs:0, ecx
  00057	59		 pop	 ecx
  00058	5f		 pop	 edi
  00059	5e		 pop	 esi
  0005a	5b		 pop	 ebx
  0005b	8b e5		 mov	 esp, ebp
  0005d	5d		 pop	 ebp
  0005e	c2 0c 00	 ret	 12			; 0000000cH
$LN80@OnMouseMov:

; 597  : 	if( p_nPointX < m_rgnRadarGraph.left)

  00061	8b 96 d0 00 00
	00		 mov	 edx, DWORD PTR [esi+208]
  00067	8b 45 0c	 mov	 eax, DWORD PTR _point$[ebp]
  0006a	3b c2		 cmp	 eax, edx
  0006c	7d 09		 jge	 SHORT $LN25@OnMouseMov

; 598  : 	{
; 599  : 		nDataIndex = ( p_bWithCorrection ? m_nRadarDataLeft : -1);

  0006e	8b d9		 mov	 ebx, ecx
  00070	89 4d ec	 mov	 DWORD PTR _nDataIndex$1$[ebp], ecx

; 600  : 		if( p_bWithCorrection) p_nPointX = m_rgnRadarGraph.left;

  00073	8b c2		 mov	 eax, edx

; 601  : 	}

  00075	eb 15		 jmp	 SHORT $LN82@OnMouseMov
$LN25@OnMouseMov:

; 602  : 	else if( m_rgnRadarGraph.right < p_nPointX)

  00077	8b be d8 00 00
	00		 mov	 edi, DWORD PTR [esi+216]
  0007d	3b f8		 cmp	 edi, eax
  0007f	7d 12		 jge	 SHORT $LN30@OnMouseMov

; 603  : 	{
; 604  : 		nDataIndex = ( p_bWithCorrection ? m_nRadarDataRight : -1);

  00081	8b 9e bc 00 00
	00		 mov	 ebx, DWORD PTR [esi+188]

; 605  : 		if( p_bWithCorrection) p_nPointX = m_rgnRadarGraph.right;

  00087	8b c7		 mov	 eax, edi
  00089	89 5d ec	 mov	 DWORD PTR _nDataIndex$1$[ebp], ebx
$LN82@OnMouseMov:

; 606  : 	}
; 607  : 	// 2. Data Index를 산출하여 Return한다.
; 608  : 	//  (주의, 어느 선까지의 연산을 INT화 시키느냐가 값을 좌우한다.)
; 609  : 	if( nDataIndex) return nDataIndex;

  0008c	89 45 0c	 mov	 DWORD PTR _point$[ebp], eax
  0008f	85 db		 test	 ebx, ebx
  00091	75 1b		 jne	 SHORT $LN24@OnMouseMov
$LN30@OnMouseMov:

; 610  : 	return int( ( p_nPointX - m_rgnRadarGraph.left) / m_dXScale) + m_nRadarDataLeft;

  00093	2b c2		 sub	 eax, edx
  00095	66 0f 6e c0	 movd	 xmm0, eax
  00099	f3 0f e6 c0	 cvtdq2pd xmm0, xmm0
  0009d	f2 0f 5e 86 e0
	00 00 00	 divsd	 xmm0, QWORD PTR [esi+224]
  000a5	f2 0f 2c d8	 cvttsd2si ebx, xmm0
  000a9	03 d9		 add	 ebx, ecx
  000ab	89 5d ec	 mov	 DWORD PTR _nDataIndex$1$[ebp], ebx
$LN24@OnMouseMov:

; 335  : 	{
; 336  : 		CWnd::OnMouseMove(nFlags, point);
; 337  : 		return;
; 338  : 	}
; 339  : 
; 340  : 	// 1. Mouse의 위치를 확인하여 Radar Status Static에 출력시킨다.
; 341  : 	// 1.1 Data Index를 산출해 낸다.
; 342  : 	int nDataIndex = GetDataIndex( point.x);
; 343  : 	// 1.3 해당 Data Index의 자료 일자를 구하여 Radar Status Static에 알려 출력토록 한다.
; 344  : 	// 1.3.1 일자 Data를 구한다.
; 345  : 	CPacket *pDateTimePacket = m_pPacketList->GetBaseData( _MTEXT( C0_DATE_TIME));

  000ae	a1 54 00 00 00	 mov	 eax, DWORD PTR ?g_iMetaTable@@3VIMetaTable@@A+84
  000b3	6a 01		 push	 1
  000b5	51		 push	 ecx
  000b6	8b cc		 mov	 ecx, esp
  000b8	ff 30		 push	 DWORD PTR [eax]
  000ba	ff 15 00 00 00
	00		 call	 DWORD PTR __imp_??0?$CStringT@DV?$StrTraitMFC_DLL@DV?$ChTraitsCRT@D@ATL@@@@@ATL@@QAE@PBD@Z
  000c0	8b 8e 88 00 00
	00		 mov	 ecx, DWORD PTR [esi+136]
  000c6	ff 15 00 00 00
	00		 call	 DWORD PTR __imp_?GetBaseData@CPacketList@@QAEPAVCPacket@@V?$CStringT@DV?$StrTraitMFC_DLL@DV?$ChTraitsCRT@D@ATL@@@@@ATL@@_N@Z
  000cc	8b f8		 mov	 edi, eax

; 346  : 	
; 347  : 	if(pDateTimePacket == NULL) return;

  000ce	85 ff		 test	 edi, edi
  000d0	0f 84 9b 02 00
	00		 je	 $LN1@OnMouseMov

; 348  : 	if(pDateTimePacket->GetCount() == 0) return;

  000d6	8b 07		 mov	 eax, DWORD PTR [edi]
  000d8	8b cf		 mov	 ecx, edi
  000da	ff 50 14	 call	 DWORD PTR [eax+20]
  000dd	85 c0		 test	 eax, eax
  000df	0f 84 8c 02 00
	00		 je	 $LN1@OnMouseMov

; 349  : 
; 350  : 	CString strDataTime = CDataConversion::DoubleToString( pDateTimePacket->GetData( nDataIndex - 1));	// 주의 0 Base

  000e5	8d 43 ff	 lea	 eax, DWORD PTR [ebx-1]
  000e8	8b cf		 mov	 ecx, edi
  000ea	50		 push	 eax
  000eb	ff 15 00 00 00
	00		 call	 DWORD PTR __imp_?GetData@CPacket@@QAENH@Z
  000f1	8d 45 c0	 lea	 eax, DWORD PTR $T2[ebp]
  000f4	50		 push	 eax
  000f5	8d 45 f0	 lea	 eax, DWORD PTR _strDataTime$[ebp]
  000f8	50		 push	 eax
  000f9	dd 5d c0	 fstp	 QWORD PTR $T2[ebp]
  000fc	e8 00 00 00 00	 call	 ?DoubleToString@CDataConversion@@SA?AV?$CStringT@DV?$StrTraitMFC_DLL@DV?$ChTraitsCRT@D@ATL@@@@@ATL@@ABN@Z ; CDataConversion::DoubleToString
  00101	83 c4 08	 add	 esp, 8

; 351  : 	strDataTime = CDataConversion( m_pIChartCtrl->GetSafeHwnd(), m_pIChartCtrl->GetChartMode()).GetStringFormatTrans( strDataTime, pDateTimePacket->GetType(), "");

  00104	68 00 00 00 00	 push	 OFFSET ??_C@_00CNPNBAHC@@
  00109	8d 4d d8	 lea	 ecx, DWORD PTR $T10[ebp]
  0010c	c7 45 fc 00 00
	00 00		 mov	 DWORD PTR __$EHRec$[ebp+8], 0
  00113	ff 15 00 00 00
	00		 call	 DWORD PTR __imp_??0?$CStringT@DV?$StrTraitMFC_DLL@DV?$ChTraitsCRT@D@ATL@@@@@ATL@@QAE@PBD@Z
  00119	68 00 00 00 00	 push	 OFFSET ??_C@_00CNPNBAHC@@
  0011e	8d 4d e0	 lea	 ecx, DWORD PTR $T12[ebp]
  00121	c6 45 fc 01	 mov	 BYTE PTR __$EHRec$[ebp+8], 1
  00125	ff 15 00 00 00
	00		 call	 DWORD PTR __imp_??0?$CStringT@DV?$StrTraitMFC_DLL@DV?$ChTraitsCRT@D@ATL@@@@@ATL@@QAE@PBD@Z
  0012b	8b 1d 00 00 00
	00		 mov	 ebx, DWORD PTR __imp_?GetType@CPacket@@QAE?AV?$CStringT@DV?$StrTraitMFC_DLL@DV?$ChTraitsCRT@D@ATL@@@@@ATL@@_N@Z
  00131	8d 45 d0	 lea	 eax, DWORD PTR $T6[ebp]
  00134	6a 01		 push	 1
  00136	50		 push	 eax
  00137	8b cf		 mov	 ecx, edi
  00139	c6 45 fc 02	 mov	 BYTE PTR __$EHRec$[ebp+8], 2
  0013d	ff d3		 call	 ebx
  0013f	8b f8		 mov	 edi, eax
  00141	8b 8e 00 01 00
	00		 mov	 ecx, DWORD PTR [esi+256]
  00147	c6 45 fc 03	 mov	 BYTE PTR __$EHRec$[ebp+8], 3
  0014b	8b 11		 mov	 edx, DWORD PTR [ecx]
  0014d	ff 92 0c 03 00
	00		 call	 DWORD PTR [edx+780]
  00153	8b 4d e4	 mov	 ecx, DWORD PTR _this$1$[ebp]
  00156	8b f0		 mov	 esi, eax
  00158	8b 89 00 01 00
	00		 mov	 ecx, DWORD PTR [ecx+256]
  0015e	8b 11		 mov	 edx, DWORD PTR [ecx]
  00160	ff 92 9c 03 00
	00		 call	 DWORD PTR [edx+924]
; File D:\git\src\IBK\IBK_DRFN\ProjSrc\SrcChartEx\ChartOCX\Include_Chart\Conversion.h

; 27   : 		{	m_hOcxWnd = p_hOcxWnd;	m_eChartMode = p_eChartMode;	}

  00166	89 45 c8	 mov	 DWORD PTR $T4[ebp], eax
; File D:\git\src\IBK\IBK_DRFN\ProjSrc\SrcChartEx\ChartOCX\ChartToolBar\Radar.cpp

; 351  : 	strDataTime = CDataConversion( m_pIChartCtrl->GetSafeHwnd(), m_pIChartCtrl->GetChartMode()).GetStringFormatTrans( strDataTime, pDateTimePacket->GetType(), "");

  00169	8d 4d c8	 lea	 ecx, DWORD PTR $T4[ebp]
  0016c	8d 45 d8	 lea	 eax, DWORD PTR $T10[ebp]
; File D:\git\src\IBK\IBK_DRFN\ProjSrc\SrcChartEx\ChartOCX\Include_Chart\Conversion.h

; 27   : 		{	m_hOcxWnd = p_hOcxWnd;	m_eChartMode = p_eChartMode;	}

  0016f	89 75 cc	 mov	 DWORD PTR $T4[ebp+4], esi
; File D:\git\src\IBK\IBK_DRFN\ProjSrc\SrcChartEx\ChartOCX\ChartToolBar\Radar.cpp

; 351  : 	strDataTime = CDataConversion( m_pIChartCtrl->GetSafeHwnd(), m_pIChartCtrl->GetChartMode()).GetStringFormatTrans( strDataTime, pDateTimePacket->GetType(), "");

  00172	50		 push	 eax
  00173	8d 45 e0	 lea	 eax, DWORD PTR $T12[ebp]
  00176	50		 push	 eax
  00177	57		 push	 edi
  00178	8d 45 f0	 lea	 eax, DWORD PTR _strDataTime$[ebp]
  0017b	50		 push	 eax
  0017c	8d 45 d4	 lea	 eax, DWORD PTR $T8[ebp]
  0017f	50		 push	 eax
  00180	e8 00 00 00 00	 call	 ?GetStringFormatTrans@CDataConversion@@QAE?AV?$CStringT@DV?$StrTraitMFC_DLL@DV?$ChTraitsCRT@D@ATL@@@@@ATL@@ABV23@000@Z ; CDataConversion::GetStringFormatTrans
  00185	50		 push	 eax
  00186	8d 4d f0	 lea	 ecx, DWORD PTR _strDataTime$[ebp]
  00189	c6 45 fc 04	 mov	 BYTE PTR __$EHRec$[ebp+8], 4
  0018d	ff 15 00 00 00
	00		 call	 DWORD PTR __imp_??4?$CStringT@DV?$StrTraitMFC_DLL@DV?$ChTraitsCRT@D@ATL@@@@@ATL@@QAEAAV01@ABV01@@Z
  00193	8d 4d d4	 lea	 ecx, DWORD PTR $T8[ebp]
  00196	ff 15 00 00 00
	00		 call	 DWORD PTR __imp_??1?$CStringT@DV?$StrTraitMFC_DLL@DV?$ChTraitsCRT@D@ATL@@@@@ATL@@QAE@XZ
  0019c	8d 4d d0	 lea	 ecx, DWORD PTR $T6[ebp]
  0019f	ff 15 00 00 00
	00		 call	 DWORD PTR __imp_??1?$CStringT@DV?$StrTraitMFC_DLL@DV?$ChTraitsCRT@D@ATL@@@@@ATL@@QAE@XZ
  001a5	8d 4d e0	 lea	 ecx, DWORD PTR $T12[ebp]
  001a8	ff 15 00 00 00
	00		 call	 DWORD PTR __imp_??1?$CStringT@DV?$StrTraitMFC_DLL@DV?$ChTraitsCRT@D@ATL@@@@@ATL@@QAE@XZ
  001ae	8d 4d d8	 lea	 ecx, DWORD PTR $T10[ebp]
  001b1	c6 45 fc 00	 mov	 BYTE PTR __$EHRec$[ebp+8], 0
  001b5	ff 15 00 00 00
	00		 call	 DWORD PTR __imp_??1?$CStringT@DV?$StrTraitMFC_DLL@DV?$ChTraitsCRT@D@ATL@@@@@ATL@@QAE@XZ

; 352  : 	// 1.3.2 가격 Data를 구한다.
; 353  : 	CPacket *pValuePacket = m_pPacketList->GetBaseData(m_strDataName);

  001bb	8b 75 e4	 mov	 esi, DWORD PTR _this$1$[ebp]
  001be	6a 01		 push	 1
  001c0	51		 push	 ecx
  001c1	8b cc		 mov	 ecx, esp
  001c3	8d 86 84 00 00
	00		 lea	 eax, DWORD PTR [esi+132]
  001c9	50		 push	 eax
  001ca	ff 15 00 00 00
	00		 call	 DWORD PTR __imp_??0?$CStringT@DV?$StrTraitMFC_DLL@DV?$ChTraitsCRT@D@ATL@@@@@ATL@@QAE@ABV01@@Z
  001d0	8b 8e 88 00 00
	00		 mov	 ecx, DWORD PTR [esi+136]
  001d6	ff 15 00 00 00
	00		 call	 DWORD PTR __imp_?GetBaseData@CPacketList@@QAEPAVCPacket@@V?$CStringT@DV?$StrTraitMFC_DLL@DV?$ChTraitsCRT@D@ATL@@@@@ATL@@_N@Z
  001dc	8b f0		 mov	 esi, eax

; 354  : 	CString strValue = CDataConversion::DoubleToString( pValuePacket->GetData( nDataIndex - 1));	// 주의 0 Base

  001de	8b 45 ec	 mov	 eax, DWORD PTR _nDataIndex$1$[ebp]
  001e1	48		 dec	 eax
  001e2	8b ce		 mov	 ecx, esi
  001e4	50		 push	 eax
  001e5	ff 15 00 00 00
	00		 call	 DWORD PTR __imp_?GetData@CPacket@@QAENH@Z
  001eb	8d 45 dc	 lea	 eax, DWORD PTR $T11[ebp]
  001ee	50		 push	 eax
  001ef	8d 45 e8	 lea	 eax, DWORD PTR _strValue$[ebp]
  001f2	50		 push	 eax
  001f3	dd 5d dc	 fstp	 QWORD PTR $T11[ebp]
  001f6	e8 00 00 00 00	 call	 ?DoubleToString@CDataConversion@@SA?AV?$CStringT@DV?$StrTraitMFC_DLL@DV?$ChTraitsCRT@D@ATL@@@@@ATL@@ABN@Z ; CDataConversion::DoubleToString
  001fb	83 c4 08	 add	 esp, 8

; 355  : 	strValue = CDataConversion( m_pIChartCtrl->GetSafeHwnd(), m_pIChartCtrl->GetChartMode()).GetStringFormatTrans( strValue, pValuePacket->GetType());

  001fe	6a 01		 push	 1
  00200	8d 45 d4	 lea	 eax, DWORD PTR $T7[ebp]
  00203	c6 45 fc 05	 mov	 BYTE PTR __$EHRec$[ebp+8], 5
  00207	50		 push	 eax
  00208	8b ce		 mov	 ecx, esi
  0020a	ff d3		 call	 ebx
  0020c	8b f8		 mov	 edi, eax
  0020e	8b 5d e4	 mov	 ebx, DWORD PTR _this$1$[ebp]
  00211	c6 45 fc 06	 mov	 BYTE PTR __$EHRec$[ebp+8], 6
  00215	8b 8b 00 01 00
	00		 mov	 ecx, DWORD PTR [ebx+256]
  0021b	8b 11		 mov	 edx, DWORD PTR [ecx]
  0021d	ff 92 0c 03 00
	00		 call	 DWORD PTR [edx+780]
  00223	8b 8b 00 01 00
	00		 mov	 ecx, DWORD PTR [ebx+256]
  00229	8b f0		 mov	 esi, eax
  0022b	8b 11		 mov	 edx, DWORD PTR [ecx]
  0022d	ff 92 9c 03 00
	00		 call	 DWORD PTR [edx+924]
; File D:\git\src\IBK\IBK_DRFN\ProjSrc\SrcChartEx\ChartOCX\Include_Chart\Conversion.h

; 27   : 		{	m_hOcxWnd = p_hOcxWnd;	m_eChartMode = p_eChartMode;	}

  00233	89 45 c8	 mov	 DWORD PTR $T3[ebp], eax
; File D:\git\src\IBK\IBK_DRFN\ProjSrc\SrcChartEx\ChartOCX\ChartToolBar\Radar.cpp

; 355  : 	strValue = CDataConversion( m_pIChartCtrl->GetSafeHwnd(), m_pIChartCtrl->GetChartMode()).GetStringFormatTrans( strValue, pValuePacket->GetType());

  00236	8d 4d c8	 lea	 ecx, DWORD PTR $T3[ebp]
  00239	57		 push	 edi
  0023a	8d 45 e8	 lea	 eax, DWORD PTR _strValue$[ebp]
; File D:\git\src\IBK\IBK_DRFN\ProjSrc\SrcChartEx\ChartOCX\Include_Chart\Conversion.h

; 27   : 		{	m_hOcxWnd = p_hOcxWnd;	m_eChartMode = p_eChartMode;	}

  0023d	89 75 cc	 mov	 DWORD PTR $T3[ebp+4], esi
; File D:\git\src\IBK\IBK_DRFN\ProjSrc\SrcChartEx\ChartOCX\ChartToolBar\Radar.cpp

; 355  : 	strValue = CDataConversion( m_pIChartCtrl->GetSafeHwnd(), m_pIChartCtrl->GetChartMode()).GetStringFormatTrans( strValue, pValuePacket->GetType());

  00240	50		 push	 eax
  00241	8d 45 d0	 lea	 eax, DWORD PTR $T5[ebp]
  00244	50		 push	 eax
  00245	e8 00 00 00 00	 call	 ?GetStringFormatTrans@CDataConversion@@QAE?AV?$CStringT@DV?$StrTraitMFC_DLL@DV?$ChTraitsCRT@D@ATL@@@@@ATL@@ABV23@0@Z ; CDataConversion::GetStringFormatTrans
  0024a	50		 push	 eax
  0024b	8d 4d e8	 lea	 ecx, DWORD PTR _strValue$[ebp]
  0024e	c6 45 fc 07	 mov	 BYTE PTR __$EHRec$[ebp+8], 7
  00252	ff 15 00 00 00
	00		 call	 DWORD PTR __imp_??4?$CStringT@DV?$StrTraitMFC_DLL@DV?$ChTraitsCRT@D@ATL@@@@@ATL@@QAEAAV01@ABV01@@Z
  00258	8d 4d d0	 lea	 ecx, DWORD PTR $T5[ebp]
  0025b	ff 15 00 00 00
	00		 call	 DWORD PTR __imp_??1?$CStringT@DV?$StrTraitMFC_DLL@DV?$ChTraitsCRT@D@ATL@@@@@ATL@@QAE@XZ
  00261	8d 4d d4	 lea	 ecx, DWORD PTR $T7[ebp]
  00264	c6 45 fc 05	 mov	 BYTE PTR __$EHRec$[ebp+8], 5
  00268	ff 15 00 00 00
	00		 call	 DWORD PTR __imp_??1?$CStringT@DV?$StrTraitMFC_DLL@DV?$ChTraitsCRT@D@ATL@@@@@ATL@@QAE@XZ

; 357  : 	if( m_pstRadarStatus) m_pstRadarStatus->SetWindowText( strDataTime + "\n" + strValue);

  0026e	83 bb 80 00 00
	00 00		 cmp	 DWORD PTR [ebx+128], 0
  00275	0f 84 96 00 00
	00		 je	 $LN5@OnMouseMov
; File C:\Program Files (x86)\Microsoft Visual Studio\2019\Community\VC\Tools\MSVC\14.29.30133\atlmfc\include\cstringt.h

; 2401 : 		CStringT strResult( str1.GetManager() );

  0027b	8d 4d f0	 lea	 ecx, DWORD PTR _strDataTime$[ebp]
; File D:\git\src\IBK\IBK_DRFN\ProjSrc\SrcChartEx\ChartOCX\ChartToolBar\Radar.cpp

; 357  : 	if( m_pstRadarStatus) m_pstRadarStatus->SetWindowText( strDataTime + "\n" + strValue);

  0027e	c6 45 fc 08	 mov	 BYTE PTR __$EHRec$[ebp+8], 8
; File C:\Program Files (x86)\Microsoft Visual Studio\2019\Community\VC\Tools\MSVC\14.29.30133\atlmfc\include\cstringt.h

; 2401 : 		CStringT strResult( str1.GetManager() );

  00282	ff 15 00 00 00
	00		 call	 DWORD PTR __imp_?GetManager@?$CStringT@DV?$StrTraitMFC_DLL@DV?$ChTraitsCRT@D@ATL@@@@@ATL@@QBEPAUIAtlStringMgr@2@XZ
  00288	50		 push	 eax
  00289	8d 4d ec	 lea	 ecx, DWORD PTR $T14[ebp]
  0028c	ff 15 00 00 00
	00		 call	 DWORD PTR __imp_??0?$CStringT@DV?$StrTraitMFC_DLL@DV?$ChTraitsCRT@D@ATL@@@@@ATL@@QAE@PAUIAtlStringMgr@1@@Z
; File C:\Program Files (x86)\Microsoft Visual Studio\2019\Community\VC\Tools\MSVC\14.29.30133\atlmfc\include\atlsimpstr.h

; 519  : 		return( GetData()->nDataLength );

  00292	8b 45 f0	 mov	 eax, DWORD PTR _strDataTime$[ebp]
; File C:\Program Files (x86)\Microsoft Visual Studio\2019\Community\VC\Tools\MSVC\14.29.30133\atlmfc\include\cstringt.h

; 2403 : 		CThisSimpleString::Concatenate( strResult, str1, str1.GetLength(), psz2, CThisSimpleString::StringLength( psz2 ) );

  00295	6a 01		 push	 1
  00297	68 00 00 00 00	 push	 OFFSET ??_C@_01EEMJAFIK@?6@

; 2404 : 
; 2405 : 		return( strResult );

  0029c	c7 45 d8 01 00
	00 00		 mov	 DWORD PTR $T9[ebp], 1
  002a3	ff 70 f4	 push	 DWORD PTR [eax-12]
  002a6	50		 push	 eax
  002a7	8d 45 ec	 lea	 eax, DWORD PTR $T14[ebp]
  002aa	50		 push	 eax
  002ab	ff 15 00 00 00
	00		 call	 DWORD PTR __imp_?Concatenate@?$CSimpleStringT@D$00@ATL@@KAXAAV12@PBDH1H@Z
  002b1	83 c4 14	 add	 esp, 20			; 00000014H

; 2390 : 		CStringT strResult( str1.GetManager() );

  002b4	8d 4d ec	 lea	 ecx, DWORD PTR $T14[ebp]
; File D:\git\src\IBK\IBK_DRFN\ProjSrc\SrcChartEx\ChartOCX\ChartToolBar\Radar.cpp

; 357  : 	if( m_pstRadarStatus) m_pstRadarStatus->SetWindowText( strDataTime + "\n" + strValue);

  002b7	c6 45 fc 09	 mov	 BYTE PTR __$EHRec$[ebp+8], 9
; File C:\Program Files (x86)\Microsoft Visual Studio\2019\Community\VC\Tools\MSVC\14.29.30133\atlmfc\include\cstringt.h

; 2390 : 		CStringT strResult( str1.GetManager() );

  002bb	ff 15 00 00 00
	00		 call	 DWORD PTR __imp_?GetManager@?$CStringT@DV?$StrTraitMFC_DLL@DV?$ChTraitsCRT@D@ATL@@@@@ATL@@QBEPAUIAtlStringMgr@2@XZ
  002c1	50		 push	 eax
  002c2	8d 4d e4	 lea	 ecx, DWORD PTR $T13[ebp]
  002c5	ff 15 00 00 00
	00		 call	 DWORD PTR __imp_??0?$CStringT@DV?$StrTraitMFC_DLL@DV?$ChTraitsCRT@D@ATL@@@@@ATL@@QAE@PAUIAtlStringMgr@1@@Z
; File C:\Program Files (x86)\Microsoft Visual Studio\2019\Community\VC\Tools\MSVC\14.29.30133\atlmfc\include\atlsimpstr.h

; 519  : 		return( GetData()->nDataLength );

  002cb	8b 45 e8	 mov	 eax, DWORD PTR _strValue$[ebp]
  002ce	8b 4d ec	 mov	 ecx, DWORD PTR $T14[ebp]
; File C:\Program Files (x86)\Microsoft Visual Studio\2019\Community\VC\Tools\MSVC\14.29.30133\atlmfc\include\cstringt.h

; 2394 : 		return( strResult );

  002d1	c7 45 d8 03 00
	00 00		 mov	 DWORD PTR $T9[ebp], 3
  002d8	ff 70 f4	 push	 DWORD PTR [eax-12]
  002db	50		 push	 eax
  002dc	ff 71 f4	 push	 DWORD PTR [ecx-12]
  002df	8d 45 e4	 lea	 eax, DWORD PTR $T13[ebp]
  002e2	51		 push	 ecx
  002e3	50		 push	 eax
  002e4	ff 15 00 00 00
	00		 call	 DWORD PTR __imp_?Concatenate@?$CSimpleStringT@D$00@ATL@@KAXAAV12@PBDH1H@Z
; File D:\git\src\IBK\IBK_DRFN\ProjSrc\SrcChartEx\ChartOCX\ChartToolBar\Radar.cpp

; 357  : 	if( m_pstRadarStatus) m_pstRadarStatus->SetWindowText( strDataTime + "\n" + strValue);

  002ea	8b 8b 80 00 00
	00		 mov	 ecx, DWORD PTR [ebx+128]
; File C:\Program Files (x86)\Microsoft Visual Studio\2019\Community\VC\Tools\MSVC\14.29.30133\atlmfc\include\cstringt.h

; 2392 : 		CThisSimpleString::Concatenate( strResult, str1, str1.GetLength(), str2, str2.GetLength() );

  002f0	83 c4 14	 add	 esp, 20			; 00000014H
; File D:\git\src\IBK\IBK_DRFN\ProjSrc\SrcChartEx\ChartOCX\ChartToolBar\Radar.cpp

; 357  : 	if( m_pstRadarStatus) m_pstRadarStatus->SetWindowText( strDataTime + "\n" + strValue);

  002f3	ff 75 e4	 push	 DWORD PTR $T13[ebp]
  002f6	e8 00 00 00 00	 call	 ?SetWindowTextA@CWnd@@QAEXPBD@Z ; CWnd::SetWindowTextA
  002fb	8d 4d e4	 lea	 ecx, DWORD PTR $T13[ebp]
  002fe	ff 15 00 00 00
	00		 call	 DWORD PTR __imp_??1?$CStringT@DV?$StrTraitMFC_DLL@DV?$ChTraitsCRT@D@ATL@@@@@ATL@@QAE@XZ
  00304	8d 4d ec	 lea	 ecx, DWORD PTR $T14[ebp]
  00307	c6 45 fc 05	 mov	 BYTE PTR __$EHRec$[ebp+8], 5
  0030b	ff 15 00 00 00
	00		 call	 DWORD PTR __imp_??1?$CStringT@DV?$StrTraitMFC_DLL@DV?$ChTraitsCRT@D@ATL@@@@@ATL@@QAE@XZ
$LN5@OnMouseMov:

; 358  : 
; 359  : 	// (2003.12.03) Zoom Full Mode Flag을 관리하여, 해당 Mode에서는 Mouse Tracing외의 작업을 제한한다.
; 360  : 	// (2003.12.04) 구간 설정을 하는 중이 아닌 경우도 제외한다.
; 361  : 	if( m_bZoomFullMode || m_nDragSelectStart == 0)

  00311	83 bb 94 00 00
	00 00		 cmp	 DWORD PTR [ebx+148], 0
  00318	75 3e		 jne	 SHORT $LN7@OnMouseMov
  0031a	83 bb f8 00 00
	00 00		 cmp	 DWORD PTR [ebx+248], 0
  00321	74 35		 je	 SHORT $LN7@OnMouseMov
; File C:\Program Files (x86)\Microsoft Visual Studio\2019\Community\VC\Tools\MSVC\14.29.30133\atlmfc\include\afxwin2.inl

; 100  : 	{ ASSERT(::IsWindow(m_hWnd)); return CDC::FromHandle(::GetDC(m_hWnd)); }

  00323	ff 73 20	 push	 DWORD PTR [ebx+32]
  00326	ff 15 00 00 00
	00		 call	 DWORD PTR __imp__GetDC@4
  0032c	50		 push	 eax
  0032d	e8 00 00 00 00	 call	 ?FromHandle@CDC@@SGPAV1@PAUHDC__@@@Z ; CDC::FromHandle
; File D:\git\src\IBK\IBK_DRFN\ProjSrc\SrcChartEx\ChartOCX\ChartToolBar\Radar.cpp

; 371  : 	DrawDragSelectRectangle( pDC, m_nDragSelectStart, point.x, &m_nDragSelectEnd);

  00332	8d 8b fc 00 00
	00		 lea	 ecx, DWORD PTR [ebx+252]
  00338	8b f0		 mov	 esi, eax
  0033a	51		 push	 ecx
  0033b	ff 75 0c	 push	 DWORD PTR _point$[ebp]
  0033e	8b cb		 mov	 ecx, ebx
  00340	ff b3 f8 00 00
	00		 push	 DWORD PTR [ebx+248]
  00346	56		 push	 esi
  00347	e8 00 00 00 00	 call	 ?DrawDragSelectRectangle@CRadar@@IAEXPAVCDC@@JJPAJ@Z ; CRadar::DrawDragSelectRectangle
; File C:\Program Files (x86)\Microsoft Visual Studio\2019\Community\VC\Tools\MSVC\14.29.30133\atlmfc\include\afxwin2.inl

; 104  : 	{ ASSERT(::IsWindow(m_hWnd)); return ::ReleaseDC(m_hWnd, pDC->m_hDC); }

  0034c	ff 76 04	 push	 DWORD PTR [esi+4]
  0034f	ff 73 20	 push	 DWORD PTR [ebx+32]
  00352	ff 15 00 00 00
	00		 call	 DWORD PTR __imp__ReleaseDC@8
$LN7@OnMouseMov:
; File D:\git\src\IBK\IBK_DRFN\ProjSrc\SrcChartEx\ChartOCX\ChartToolBar\Radar.cpp

; 375  : }

  00358	8b cb		 mov	 ecx, ebx
  0035a	e8 00 00 00 00	 call	 ?Default@CWnd@@IAEJXZ	; CWnd::Default
  0035f	8d 4d e8	 lea	 ecx, DWORD PTR _strValue$[ebp]
  00362	ff 15 00 00 00
	00		 call	 DWORD PTR __imp_??1?$CStringT@DV?$StrTraitMFC_DLL@DV?$ChTraitsCRT@D@ATL@@@@@ATL@@QAE@XZ
  00368	8d 4d f0	 lea	 ecx, DWORD PTR _strDataTime$[ebp]
  0036b	ff 15 00 00 00
	00		 call	 DWORD PTR __imp_??1?$CStringT@DV?$StrTraitMFC_DLL@DV?$ChTraitsCRT@D@ATL@@@@@ATL@@QAE@XZ
$LN1@OnMouseMov:
  00371	8b 4d f4	 mov	 ecx, DWORD PTR __$EHRec$[ebp]
  00374	64 89 0d 00 00
	00 00		 mov	 DWORD PTR fs:0, ecx
  0037b	59		 pop	 ecx
  0037c	5f		 pop	 edi
  0037d	5e		 pop	 esi
  0037e	5b		 pop	 ebx
  0037f	8b e5		 mov	 esp, ebp
  00381	5d		 pop	 ebp
  00382	c2 0c 00	 ret	 12			; 0000000cH
_TEXT	ENDS
;	COMDAT text$x
text$x	SEGMENT
__unwindfunclet$?OnMouseMove@CRadar@@IAEXIVCPoint@@@Z$1:
  00000	8d 4d f0	 lea	 ecx, DWORD PTR _strDataTime$[ebp]
  00003	ff 25 00 00 00
	00		 jmp	 DWORD PTR __imp_??1?$CStringT@DV?$StrTraitMFC_DLL@DV?$ChTraitsCRT@D@ATL@@@@@ATL@@QAE@XZ
__unwindfunclet$?OnMouseMove@CRadar@@IAEXIVCPoint@@@Z$2:
  00009	8d 4d d8	 lea	 ecx, DWORD PTR $T10[ebp]
  0000c	ff 25 00 00 00
	00		 jmp	 DWORD PTR __imp_??1?$CStringT@DV?$StrTraitMFC_DLL@DV?$ChTraitsCRT@D@ATL@@@@@ATL@@QAE@XZ
__unwindfunclet$?OnMouseMove@CRadar@@IAEXIVCPoint@@@Z$3:
  00012	8d 4d e0	 lea	 ecx, DWORD PTR $T12[ebp]
  00015	ff 25 00 00 00
	00		 jmp	 DWORD PTR __imp_??1?$CStringT@DV?$StrTraitMFC_DLL@DV?$ChTraitsCRT@D@ATL@@@@@ATL@@QAE@XZ
__unwindfunclet$?OnMouseMove@CRadar@@IAEXIVCPoint@@@Z$4:
  0001b	8d 4d d0	 lea	 ecx, DWORD PTR $T6[ebp]
  0001e	ff 25 00 00 00
	00		 jmp	 DWORD PTR __imp_??1?$CStringT@DV?$StrTraitMFC_DLL@DV?$ChTraitsCRT@D@ATL@@@@@ATL@@QAE@XZ
__unwindfunclet$?OnMouseMove@CRadar@@IAEXIVCPoint@@@Z$5:
  00024	8d 4d d4	 lea	 ecx, DWORD PTR $T8[ebp]
  00027	ff 25 00 00 00
	00		 jmp	 DWORD PTR __imp_??1?$CStringT@DV?$StrTraitMFC_DLL@DV?$ChTraitsCRT@D@ATL@@@@@ATL@@QAE@XZ
__unwindfunclet$?OnMouseMove@CRadar@@IAEXIVCPoint@@@Z$7:
  0002d	8d 4d e8	 lea	 ecx, DWORD PTR _strValue$[ebp]
  00030	ff 25 00 00 00
	00		 jmp	 DWORD PTR __imp_??1?$CStringT@DV?$StrTraitMFC_DLL@DV?$ChTraitsCRT@D@ATL@@@@@ATL@@QAE@XZ
__unwindfunclet$?OnMouseMove@CRadar@@IAEXIVCPoint@@@Z$8:
  00036	8d 4d d4	 lea	 ecx, DWORD PTR $T7[ebp]
  00039	ff 25 00 00 00
	00		 jmp	 DWORD PTR __imp_??1?$CStringT@DV?$StrTraitMFC_DLL@DV?$ChTraitsCRT@D@ATL@@@@@ATL@@QAE@XZ
__unwindfunclet$?OnMouseMove@CRadar@@IAEXIVCPoint@@@Z$9:
  0003f	8d 4d d0	 lea	 ecx, DWORD PTR $T5[ebp]
  00042	ff 25 00 00 00
	00		 jmp	 DWORD PTR __imp_??1?$CStringT@DV?$StrTraitMFC_DLL@DV?$ChTraitsCRT@D@ATL@@@@@ATL@@QAE@XZ
__unwindfunclet$?OnMouseMove@CRadar@@IAEXIVCPoint@@@Z$12:
  00048	8b 45 d8	 mov	 eax, DWORD PTR $T9[ebp]
  0004b	83 e0 01	 and	 eax, 1
  0004e	0f 84 0d 00 00
	00		 je	 $LN43@OnMouseMov
  00054	83 65 d8 fe	 and	 DWORD PTR $T9[ebp], -2	; fffffffeH
  00058	8d 4d ec	 lea	 ecx, DWORD PTR $T14[ebp]
  0005b	ff 25 00 00 00
	00		 jmp	 DWORD PTR __imp_??1?$CStringT@DV?$StrTraitMFC_DLL@DV?$ChTraitsCRT@D@ATL@@@@@ATL@@QAE@XZ
$LN43@OnMouseMov:
  00061	c3		 ret	 0
__unwindfunclet$?OnMouseMove@CRadar@@IAEXIVCPoint@@@Z$13:
  00062	8b 45 d8	 mov	 eax, DWORD PTR $T9[ebp]
  00065	83 e0 02	 and	 eax, 2
  00068	0f 84 0d 00 00
	00		 je	 $LN56@OnMouseMov
  0006e	83 65 d8 fd	 and	 DWORD PTR $T9[ebp], -3	; fffffffdH
  00072	8d 4d e4	 lea	 ecx, DWORD PTR $T13[ebp]
  00075	ff 25 00 00 00
	00		 jmp	 DWORD PTR __imp_??1?$CStringT@DV?$StrTraitMFC_DLL@DV?$ChTraitsCRT@D@ATL@@@@@ATL@@QAE@XZ
$LN56@OnMouseMov:
  0007b	c3		 ret	 0
  0007c	cc		 int	 3
  0007d	cc		 int	 3
  0007e	cc		 int	 3
  0007f	cc		 int	 3
  00080	cc		 int	 3
__ehhandler$?OnMouseMove@CRadar@@IAEXIVCPoint@@@Z:
  00081	90		 npad	 1
  00082	90		 npad	 1
  00083	8b 54 24 08	 mov	 edx, DWORD PTR [esp+8]
  00087	8d 42 0c	 lea	 eax, DWORD PTR [edx+12]
  0008a	8b 4a bc	 mov	 ecx, DWORD PTR [edx-68]
  0008d	33 c8		 xor	 ecx, eax
  0008f	e8 00 00 00 00	 call	 @__security_check_cookie@4
  00094	b8 00 00 00 00	 mov	 eax, OFFSET __ehfuncinfo$?OnMouseMove@CRadar@@IAEXIVCPoint@@@Z
  00099	e9 00 00 00 00	 jmp	 ___CxxFrameHandler3
text$x	ENDS
?OnMouseMove@CRadar@@IAEXIVCPoint@@@Z ENDP		; CRadar::OnMouseMove
; Function compile flags: /Ogtp
; File D:\git\src\IBK\IBK_DRFN\ProjSrc\SrcChartEx\ChartOCX\ChartToolBar\Radar.cpp
; File C:\Program Files (x86)\Microsoft Visual Studio\2019\Community\VC\Tools\MSVC\14.29.30133\atlmfc\include\atltypes.h
; File D:\git\src\IBK\IBK_DRFN\ProjSrc\SrcChartEx\ChartOCX\ChartToolBar\Radar.cpp
; File C:\Program Files (x86)\Microsoft Visual Studio\2019\Community\VC\Tools\MSVC\14.29.30133\atlmfc\include\atltypes.h
; File D:\git\src\IBK\IBK_DRFN\ProjSrc\SrcChartEx\ChartOCX\ChartToolBar\Radar.cpp
; File C:\Program Files (x86)\Microsoft Visual Studio\2019\Community\VC\Tools\MSVC\14.29.30133\atlmfc\include\atltypes.h
; File D:\git\src\IBK\IBK_DRFN\ProjSrc\SrcChartEx\ChartOCX\ChartToolBar\Radar.cpp
;	COMDAT ??0CRadar@@QAE@PAUIChartCtrl@@@Z
_TEXT	SEGMENT
_this$ = -16						; size = 4
__$EHRec$ = -12						; size = 12
_p_pIChartCtrl$ = 8					; size = 4
??0CRadar@@QAE@PAUIChartCtrl@@@Z PROC			; CRadar::CRadar, COMDAT
; _this$ = ecx

; 31   : {

  00000	55		 push	 ebp
  00001	8b ec		 mov	 ebp, esp
  00003	6a ff		 push	 -1
  00005	68 00 00 00 00	 push	 __ehhandler$??0CRadar@@QAE@PAUIChartCtrl@@@Z
  0000a	64 a1 00 00 00
	00		 mov	 eax, DWORD PTR fs:0
  00010	50		 push	 eax
  00011	51		 push	 ecx
  00012	56		 push	 esi
  00013	57		 push	 edi
  00014	a1 00 00 00 00	 mov	 eax, DWORD PTR ___security_cookie
  00019	33 c5		 xor	 eax, ebp
  0001b	50		 push	 eax
  0001c	8d 45 f4	 lea	 eax, DWORD PTR __$EHRec$[ebp]
  0001f	64 a3 00 00 00
	00		 mov	 DWORD PTR fs:0, eax
  00025	8b f9		 mov	 edi, ecx
  00027	89 7d f0	 mov	 DWORD PTR _this$[ebp], edi
  0002a	e8 00 00 00 00	 call	 ??0CWnd@@QAE@XZ		; CWnd::CWnd
  0002f	8d 8f 84 00 00
	00		 lea	 ecx, DWORD PTR [edi+132]
  00035	c7 45 fc 00 00
	00 00		 mov	 DWORD PTR __$EHRec$[ebp+8], 0
  0003c	c7 07 00 00 00
	00		 mov	 DWORD PTR [edi], OFFSET ??_7CRadar@@6B@
  00042	ff 15 00 00 00
	00		 call	 DWORD PTR __imp_??0?$CStringT@DV?$StrTraitMFC_DLL@DV?$ChTraitsCRT@D@ATL@@@@@ATL@@QAE@XZ
; File C:\Program Files (x86)\Microsoft Visual Studio\2019\Community\VC\Tools\MSVC\14.29.30133\atlmfc\include\atltypes.h

; 528  : 	left = 0;

  00048	c7 87 98 00 00
	00 00 00 00 00	 mov	 DWORD PTR [edi+152], 0
; File D:\git\src\IBK\IBK_DRFN\ProjSrc\SrcChartEx\ChartOCX\ChartToolBar\Radar.cpp

; 32   : 	m_strDataName = "";

  00052	8d 8f 84 00 00
	00		 lea	 ecx, DWORD PTR [edi+132]
; File C:\Program Files (x86)\Microsoft Visual Studio\2019\Community\VC\Tools\MSVC\14.29.30133\atlmfc\include\atltypes.h

; 529  : 	top = 0;

  00058	c7 87 9c 00 00
	00 00 00 00 00	 mov	 DWORD PTR [edi+156], 0

; 530  : 	right = 0;

  00062	c7 87 a0 00 00
	00 00 00 00 00	 mov	 DWORD PTR [edi+160], 0

; 531  : 	bottom = 0;

  0006c	c7 87 a4 00 00
	00 00 00 00 00	 mov	 DWORD PTR [edi+164], 0

; 528  : 	left = 0;

  00076	c7 87 a8 00 00
	00 00 00 00 00	 mov	 DWORD PTR [edi+168], 0

; 529  : 	top = 0;

  00080	c7 87 ac 00 00
	00 00 00 00 00	 mov	 DWORD PTR [edi+172], 0

; 530  : 	right = 0;

  0008a	c7 87 b0 00 00
	00 00 00 00 00	 mov	 DWORD PTR [edi+176], 0

; 531  : 	bottom = 0;

  00094	c7 87 b4 00 00
	00 00 00 00 00	 mov	 DWORD PTR [edi+180], 0
; File D:\git\src\IBK\IBK_DRFN\ProjSrc\SrcChartEx\ChartOCX\ChartToolBar\Radar.cpp

; 32   : 	m_strDataName = "";

  0009e	68 00 00 00 00	 push	 OFFSET ??_C@_00CNPNBAHC@@
  000a3	c6 45 fc 01	 mov	 BYTE PTR __$EHRec$[ebp+8], 1
; File C:\Program Files (x86)\Microsoft Visual Studio\2019\Community\VC\Tools\MSVC\14.29.30133\atlmfc\include\atltypes.h

; 528  : 	left = 0;

  000a7	c7 87 d0 00 00
	00 00 00 00 00	 mov	 DWORD PTR [edi+208], 0

; 529  : 	top = 0;

  000b1	c7 87 d4 00 00
	00 00 00 00 00	 mov	 DWORD PTR [edi+212], 0

; 530  : 	right = 0;

  000bb	c7 87 d8 00 00
	00 00 00 00 00	 mov	 DWORD PTR [edi+216], 0

; 531  : 	bottom = 0;

  000c5	c7 87 dc 00 00
	00 00 00 00 00	 mov	 DWORD PTR [edi+220], 0
; File D:\git\src\IBK\IBK_DRFN\ProjSrc\SrcChartEx\ChartOCX\ChartToolBar\Radar.cpp

; 32   : 	m_strDataName = "";

  000cf	ff 15 00 00 00
	00		 call	 DWORD PTR __imp_??4?$CStringT@DV?$StrTraitMFC_DLL@DV?$ChTraitsCRT@D@ATL@@@@@ATL@@QAEAAV01@PBD@Z

; 33   : 	m_pPacketList = NULL;
; 34   : 
; 35   : 	// (2003.12.03, 배승원) Zoom & Scroll 관련 기능을 정리한다.
; 36   : 	m_dXScale			= 1;

  000d5	0f 28 05 00 00
	00 00		 movaps	 xmm0, XMMWORD PTR __xmm@3ff00000000000003ff0000000000000

; 37   : 	m_dYScale			= 1;
; 38   : 	m_nDataStartIndex	= 0;
; 39   : 	m_nOnePageDataCount	= 1;
; 40   : 	m_nRadarDataLeft	= 1;
; 41   : 	m_nRadarDataRight	= -1;
; 42   : 	m_dRadarDataMin		= 0;
; 43   : 	m_dRadarDataMax		= 0;
; 44   : 
; 45   : 	// (2003.12.03) Zoom Full Mode Flag을 관리하여,
; 46   : 	//		해당 Mode에서는 Mouse Tracing외의 작업을 제한한다.
; 47   : 	m_bZoomFullMode		= FALSE;
; 48   : 
; 49   : 	// (2003.12.04, 배승원) 구간 선택 기능을 추가한다. Drag Select 영역을 초기화한다.
; 50   : 	//		(Dragging 중임을 나타내는 좌우 영역만 초기화한다.)
; 51   : 	m_nDragSelectStart	= 0;
; 52   : 	m_nDragSelectEnd	= 0;
; 53   : 
; 54   : 	// (2006/11/18 - Seung-Won, Bae) Notify the User Zoom State to MultiChart
; 55   : 	m_pIChartCtrl = p_pIChartCtrl;

  000dc	8b 45 08	 mov	 eax, DWORD PTR _p_pIChartCtrl$[ebp]
  000df	0f 11 87 e0 00
	00 00		 movups	 XMMWORD PTR [edi+224], xmm0
  000e6	89 87 00 01 00
	00		 mov	 DWORD PTR [edi+256], eax

; 56   : }

  000ec	8b c7		 mov	 eax, edi
  000ee	0f 57 c0	 xorps	 xmm0, xmm0
  000f1	c7 87 88 00 00
	00 00 00 00 00	 mov	 DWORD PTR [edi+136], 0
  000fb	c7 87 f0 00 00
	00 00 00 00 00	 mov	 DWORD PTR [edi+240], 0
  00105	c7 87 f4 00 00
	00 01 00 00 00	 mov	 DWORD PTR [edi+244], 1
  0010f	c7 87 b8 00 00
	00 01 00 00 00	 mov	 DWORD PTR [edi+184], 1
  00119	c7 87 bc 00 00
	00 ff ff ff ff	 mov	 DWORD PTR [edi+188], -1
  00123	0f 11 87 c0 00
	00 00		 movups	 XMMWORD PTR [edi+192], xmm0
  0012a	c7 87 94 00 00
	00 00 00 00 00	 mov	 DWORD PTR [edi+148], 0
  00134	c7 87 f8 00 00
	00 00 00 00 00	 mov	 DWORD PTR [edi+248], 0
  0013e	c7 87 fc 00 00
	00 00 00 00 00	 mov	 DWORD PTR [edi+252], 0
  00148	8b 4d f4	 mov	 ecx, DWORD PTR __$EHRec$[ebp]
  0014b	64 89 0d 00 00
	00 00		 mov	 DWORD PTR fs:0, ecx
  00152	59		 pop	 ecx
  00153	5f		 pop	 edi
  00154	5e		 pop	 esi
  00155	8b e5		 mov	 esp, ebp
  00157	5d		 pop	 ebp
  00158	c2 04 00	 ret	 4
_TEXT	ENDS
;	COMDAT text$x
text$x	SEGMENT
__unwindfunclet$??0CRadar@@QAE@PAUIChartCtrl@@@Z$0:
  00000	8b 4d f0	 mov	 ecx, DWORD PTR _this$[ebp]
  00003	e9 00 00 00 00	 jmp	 ??1CWnd@@UAE@XZ		; CWnd::~CWnd
__unwindfunclet$??0CRadar@@QAE@PAUIChartCtrl@@@Z$1:
  00008	8b 4d f0	 mov	 ecx, DWORD PTR _this$[ebp]
  0000b	81 c1 84 00 00
	00		 add	 ecx, 132		; 00000084H
  00011	ff 25 00 00 00
	00		 jmp	 DWORD PTR __imp_??1?$CStringT@DV?$StrTraitMFC_DLL@DV?$ChTraitsCRT@D@ATL@@@@@ATL@@QAE@XZ
  00017	cc		 int	 3
  00018	cc		 int	 3
  00019	cc		 int	 3
  0001a	cc		 int	 3
  0001b	cc		 int	 3
__ehhandler$??0CRadar@@QAE@PAUIChartCtrl@@@Z:
  0001c	90		 npad	 1
  0001d	90		 npad	 1
  0001e	8b 54 24 08	 mov	 edx, DWORD PTR [esp+8]
  00022	8d 42 0c	 lea	 eax, DWORD PTR [edx+12]
  00025	8b 4a f0	 mov	 ecx, DWORD PTR [edx-16]
  00028	33 c8		 xor	 ecx, eax
  0002a	e8 00 00 00 00	 call	 @__security_check_cookie@4
  0002f	b8 00 00 00 00	 mov	 eax, OFFSET __ehfuncinfo$??0CRadar@@QAE@PAUIChartCtrl@@@Z
  00034	e9 00 00 00 00	 jmp	 ___CxxFrameHandler3
text$x	ENDS
??0CRadar@@QAE@PAUIChartCtrl@@@Z ENDP			; CRadar::CRadar
; Function compile flags: /Ogtp
; File C:\Program Files (x86)\Microsoft Visual Studio\2019\Community\VC\Tools\MSVC\14.29.30133\atlmfc\include\afxwin2.inl
;	COMDAT ?EndModalState@CWnd@@UAEXXZ
_TEXT	SEGMENT
?EndModalState@CWnd@@UAEXXZ PROC			; CWnd::EndModalState, COMDAT
; _this$ = ecx

; 567  : 	{ ::EnableWindow(m_hWnd, TRUE); }

  00000	6a 01		 push	 1
  00002	ff 71 20	 push	 DWORD PTR [ecx+32]
  00005	ff 15 00 00 00
	00		 call	 DWORD PTR __imp__EnableWindow@8
  0000b	c3		 ret	 0
?EndModalState@CWnd@@UAEXXZ ENDP			; CWnd::EndModalState
_TEXT	ENDS
; Function compile flags: /Ogtp
; File C:\Program Files (x86)\Microsoft Visual Studio\2019\Community\VC\Tools\MSVC\14.29.30133\atlmfc\include\afxwin2.inl
;	COMDAT ?BeginModalState@CWnd@@UAEXXZ
_TEXT	SEGMENT
?BeginModalState@CWnd@@UAEXXZ PROC			; CWnd::BeginModalState, COMDAT
; _this$ = ecx

; 565  : 	{ ::EnableWindow(m_hWnd, FALSE); }

  00000	6a 00		 push	 0
  00002	ff 71 20	 push	 DWORD PTR [ecx+32]
  00005	ff 15 00 00 00
	00		 call	 DWORD PTR __imp__EnableWindow@8
  0000b	c3		 ret	 0
?BeginModalState@CWnd@@UAEXXZ ENDP			; CWnd::BeginModalState
_TEXT	ENDS
; Function compile flags: /Ogtp
; File C:\Program Files (x86)\Microsoft Visual Studio\2019\Community\VC\Tools\MSVC\14.29.30133\atlmfc\include\afxwin2.inl
;	COMDAT ?DoDataExchange@CWnd@@MAEXPAVCDataExchange@@@Z
_TEXT	SEGMENT
___formal$ = 8						; size = 4
?DoDataExchange@CWnd@@MAEXPAVCDataExchange@@@Z PROC	; CWnd::DoDataExchange, COMDAT
; _this$ = ecx

; 561  : 	{ } // default does nothing

  00000	c2 04 00	 ret	 4
?DoDataExchange@CWnd@@MAEXPAVCDataExchange@@@Z ENDP	; CWnd::DoDataExchange
_TEXT	ENDS
; Function compile flags: /Ogtp
; File C:\Program Files (x86)\Microsoft Visual Studio\2019\Community\VC\Tools\MSVC\14.29.30133\atlmfc\include\afxwin1.inl
; File C:\Program Files (x86)\Microsoft Visual Studio\2019\Community\VC\Tools\MSVC\14.29.30133\atlmfc\include\afx.inl
;	COMDAT ??_GCBitmap@@UAEPAXI@Z
_TEXT	SEGMENT
___flags$ = 8						; size = 4
??_GCBitmap@@UAEPAXI@Z PROC				; CBitmap::`scalar deleting destructor', COMDAT
; _this$ = ecx
  00000	55		 push	 ebp
  00001	8b ec		 mov	 ebp, esp
; File C:\Program Files (x86)\Microsoft Visual Studio\2019\Community\VC\Tools\MSVC\14.29.30133\atlmfc\include\afxwin1.inl

; 179  : 	{ }

  00003	56		 push	 esi
  00004	8b f1		 mov	 esi, ecx
  00006	c7 06 00 00 00
	00		 mov	 DWORD PTR [esi], OFFSET ??_7CBitmap@@6B@
  0000c	e8 00 00 00 00	 call	 ??1CGdiObject@@UAE@XZ	; CGdiObject::~CGdiObject
  00011	8b 45 08	 mov	 eax, DWORD PTR ___flags$[ebp]
  00014	a8 01		 test	 al, 1
  00016	74 1f		 je	 SHORT $LN12@scalar
  00018	a8 04		 test	 al, 4
  0001a	75 10		 jne	 SHORT $LN3@scalar
; File C:\Program Files (x86)\Microsoft Visual Studio\2019\Community\VC\Tools\MSVC\14.29.30133\atlmfc\include\afx.inl

; 112  : 	{ ::operator delete(p); }

  0001c	56		 push	 esi
  0001d	e8 00 00 00 00	 call	 ??3@YAXPAX@Z		; operator delete
  00022	83 c4 04	 add	 esp, 4
  00025	8b c6		 mov	 eax, esi
  00027	5e		 pop	 esi
  00028	5d		 pop	 ebp
  00029	c2 04 00	 ret	 4
$LN3@scalar:
  0002c	6a 08		 push	 8
  0002e	56		 push	 esi
  0002f	e8 00 00 00 00	 call	 ?__global_delete@@YAXPAXI@Z ; __global_delete
  00034	83 c4 08	 add	 esp, 8
$LN12@scalar:
  00037	8b c6		 mov	 eax, esi
  00039	5e		 pop	 esi
  0003a	5d		 pop	 ebp
  0003b	c2 04 00	 ret	 4
??_GCBitmap@@UAEPAXI@Z ENDP				; CBitmap::`scalar deleting destructor'
_TEXT	ENDS
; Function compile flags: /Ogtp
; File C:\Program Files (x86)\Microsoft Visual Studio\2019\Community\VC\Tools\MSVC\14.29.30133\atlmfc\include\afxwin1.inl
;	COMDAT ??1CBitmap@@UAE@XZ
_TEXT	SEGMENT
??1CBitmap@@UAE@XZ PROC					; CBitmap::~CBitmap, COMDAT
; _this$ = ecx

; 179  : 	{ }

  00000	c7 01 00 00 00
	00		 mov	 DWORD PTR [ecx], OFFSET ??_7CBitmap@@6B@
  00006	e9 00 00 00 00	 jmp	 ??1CGdiObject@@UAE@XZ	; CGdiObject::~CGdiObject
??1CBitmap@@UAE@XZ ENDP					; CBitmap::~CBitmap
_TEXT	ENDS
; Function compile flags: /Ogtp
; File C:\Program Files (x86)\Microsoft Visual Studio\2019\Community\VC\Tools\MSVC\14.29.30133\atlmfc\include\afxwin1.inl
; File C:\Program Files (x86)\Microsoft Visual Studio\2019\Community\VC\Tools\MSVC\14.29.30133\atlmfc\include\afx.inl
;	COMDAT ??_GCPen@@UAEPAXI@Z
_TEXT	SEGMENT
___flags$ = 8						; size = 4
??_GCPen@@UAEPAXI@Z PROC				; CPen::`scalar deleting destructor', COMDAT
; _this$ = ecx
  00000	55		 push	 ebp
  00001	8b ec		 mov	 ebp, esp
; File C:\Program Files (x86)\Microsoft Visual Studio\2019\Community\VC\Tools\MSVC\14.29.30133\atlmfc\include\afxwin1.inl

; 106  : 	{ }

  00003	56		 push	 esi
  00004	8b f1		 mov	 esi, ecx
  00006	c7 06 00 00 00
	00		 mov	 DWORD PTR [esi], OFFSET ??_7CPen@@6B@
  0000c	e8 00 00 00 00	 call	 ??1CGdiObject@@UAE@XZ	; CGdiObject::~CGdiObject
  00011	8b 45 08	 mov	 eax, DWORD PTR ___flags$[ebp]
  00014	a8 01		 test	 al, 1
  00016	74 1f		 je	 SHORT $LN12@scalar
  00018	a8 04		 test	 al, 4
  0001a	75 10		 jne	 SHORT $LN3@scalar
; File C:\Program Files (x86)\Microsoft Visual Studio\2019\Community\VC\Tools\MSVC\14.29.30133\atlmfc\include\afx.inl

; 112  : 	{ ::operator delete(p); }

  0001c	56		 push	 esi
  0001d	e8 00 00 00 00	 call	 ??3@YAXPAX@Z		; operator delete
  00022	83 c4 04	 add	 esp, 4
  00025	8b c6		 mov	 eax, esi
  00027	5e		 pop	 esi
  00028	5d		 pop	 ebp
  00029	c2 04 00	 ret	 4
$LN3@scalar:
  0002c	6a 08		 push	 8
  0002e	56		 push	 esi
  0002f	e8 00 00 00 00	 call	 ?__global_delete@@YAXPAXI@Z ; __global_delete
  00034	83 c4 08	 add	 esp, 8
$LN12@scalar:
  00037	8b c6		 mov	 eax, esi
  00039	5e		 pop	 esi
  0003a	5d		 pop	 ebp
  0003b	c2 04 00	 ret	 4
??_GCPen@@UAEPAXI@Z ENDP				; CPen::`scalar deleting destructor'
_TEXT	ENDS
; Function compile flags: /Ogtp
; File C:\Program Files (x86)\Microsoft Visual Studio\2019\Community\VC\Tools\MSVC\14.29.30133\atlmfc\include\afxwin1.inl
;	COMDAT ??1CPen@@UAE@XZ
_TEXT	SEGMENT
??1CPen@@UAE@XZ PROC					; CPen::~CPen, COMDAT
; _this$ = ecx

; 106  : 	{ }

  00000	c7 01 00 00 00
	00		 mov	 DWORD PTR [ecx], OFFSET ??_7CPen@@6B@
  00006	e9 00 00 00 00	 jmp	 ??1CGdiObject@@UAE@XZ	; CGdiObject::~CGdiObject
??1CPen@@UAE@XZ ENDP					; CPen::~CPen
_TEXT	ENDS
; Function compile flags: /Ogtp
; File C:\Program Files (x86)\Microsoft Visual Studio\2019\Community\VC\Tools\MSVC\14.29.30133\atlmfc\include\afx.inl
;	COMDAT ??_GCGdiObject@@UAEPAXI@Z
_TEXT	SEGMENT
___flags$ = 8						; size = 4
??_GCGdiObject@@UAEPAXI@Z PROC				; CGdiObject::`scalar deleting destructor', COMDAT
; _this$ = ecx
  00000	55		 push	 ebp
  00001	8b ec		 mov	 ebp, esp
  00003	56		 push	 esi
  00004	8b f1		 mov	 esi, ecx
  00006	e8 00 00 00 00	 call	 ??1CGdiObject@@UAE@XZ	; CGdiObject::~CGdiObject
  0000b	8b 45 08	 mov	 eax, DWORD PTR ___flags$[ebp]
  0000e	a8 01		 test	 al, 1
  00010	74 1f		 je	 SHORT $LN9@scalar
  00012	a8 04		 test	 al, 4
  00014	75 10		 jne	 SHORT $LN3@scalar

; 112  : 	{ ::operator delete(p); }

  00016	56		 push	 esi
  00017	e8 00 00 00 00	 call	 ??3@YAXPAX@Z		; operator delete
  0001c	83 c4 04	 add	 esp, 4
  0001f	8b c6		 mov	 eax, esi
  00021	5e		 pop	 esi
  00022	5d		 pop	 ebp
  00023	c2 04 00	 ret	 4
$LN3@scalar:
  00026	6a 08		 push	 8
  00028	56		 push	 esi
  00029	e8 00 00 00 00	 call	 ?__global_delete@@YAXPAXI@Z ; __global_delete
  0002e	83 c4 08	 add	 esp, 8
$LN9@scalar:
  00031	8b c6		 mov	 eax, esi
  00033	5e		 pop	 esi
  00034	5d		 pop	 ebp
  00035	c2 04 00	 ret	 4
??_GCGdiObject@@UAEPAXI@Z ENDP				; CGdiObject::`scalar deleting destructor'
_TEXT	ENDS
; Function compile flags: /Ogtp
; File C:\Program Files (x86)\Microsoft Visual Studio\2019\Community\VC\Tools\MSVC\14.29.30133\atlmfc\include\afxwin1.inl
;	COMDAT ??1CGdiObject@@UAE@XZ
_TEXT	SEGMENT
_pException$2 = -540					; size = 4
_strMsg$3 = -536					; size = 4
_szErrorMessage$4 = -532				; size = 512
__$ArrayPad$ = -20					; size = 4
__$EHRec$ = -16						; size = 16
??1CGdiObject@@UAE@XZ PROC				; CGdiObject::~CGdiObject, COMDAT
; _this$ = ecx

; 74   : {

  00000	55		 push	 ebp
  00001	8b ec		 mov	 ebp, esp
  00003	6a ff		 push	 -1
  00005	68 00 00 00 00	 push	 __ehhandler$??1CGdiObject@@UAE@XZ
  0000a	64 a1 00 00 00
	00		 mov	 eax, DWORD PTR fs:0
  00010	50		 push	 eax
  00011	81 ec 10 02 00
	00		 sub	 esp, 528		; 00000210H
  00017	a1 00 00 00 00	 mov	 eax, DWORD PTR ___security_cookie
  0001c	33 c5		 xor	 eax, ebp
  0001e	89 45 ec	 mov	 DWORD PTR __$ArrayPad$[ebp], eax
  00021	53		 push	 ebx
  00022	56		 push	 esi
  00023	57		 push	 edi
  00024	50		 push	 eax
  00025	8d 45 f4	 lea	 eax, DWORD PTR __$EHRec$[ebp+4]
  00028	64 a3 00 00 00
	00		 mov	 DWORD PTR fs:0, eax
  0002e	89 65 f0	 mov	 DWORD PTR __$EHRec$[ebp], esp
  00031	c7 01 00 00 00
	00		 mov	 DWORD PTR [ecx], OFFSET ??_7CGdiObject@@6B@

; 75   : 	AFX_BEGIN_DESTRUCTOR

  00037	c7 45 fc 00 00
	00 00		 mov	 DWORD PTR __$EHRec$[ebp+12], 0

; 76   : 	DeleteObject();

  0003e	e8 00 00 00 00	 call	 ?DeleteObject@CGdiObject@@QAEHXZ ; CGdiObject::DeleteObject
$LN18@CGdiObject:

; 78   : }

  00043	8b 4d f4	 mov	 ecx, DWORD PTR __$EHRec$[ebp+4]
  00046	64 89 0d 00 00
	00 00		 mov	 DWORD PTR fs:0, ecx
  0004d	59		 pop	 ecx
  0004e	5f		 pop	 edi
  0004f	5e		 pop	 esi
  00050	5b		 pop	 ebx
  00051	8b 4d ec	 mov	 ecx, DWORD PTR __$ArrayPad$[ebp]
  00054	33 cd		 xor	 ecx, ebp
  00056	e8 00 00 00 00	 call	 @__security_check_cookie@4
  0005b	8b e5		 mov	 esp, ebp
  0005d	5d		 pop	 ebp
  0005e	c3		 ret	 0
__catch$??1CGdiObject@@UAE@XZ$0:

; 77   : 	AFX_END_DESTRUCTOR

  0005f	8d 8d e8 fd ff
	ff		 lea	 ecx, DWORD PTR _strMsg$3[ebp]
  00065	ff 15 00 00 00
	00		 call	 DWORD PTR __imp_??0?$CStringT@DV?$StrTraitMFC_DLL@DV?$ChTraitsCRT@D@ATL@@@@@ATL@@QAE@XZ
  0006b	8b b5 e4 fd ff
	ff		 mov	 esi, DWORD PTR _pException$2[ebp]
  00071	8d 8d ec fd ff
	ff		 lea	 ecx, DWORD PTR _szErrorMessage$4[ebp]
  00077	6a 00		 push	 0
  00079	68 00 02 00 00	 push	 512			; 00000200H
  0007e	51		 push	 ecx
  0007f	8b 06		 mov	 eax, DWORD PTR [esi]
  00081	8b ce		 mov	 ecx, esi
  00083	c6 45 fc 02	 mov	 BYTE PTR __$EHRec$[ebp+12], 2
  00087	ff 50 14	 call	 DWORD PTR [eax+20]
  0008a	85 c0		 test	 eax, eax
  0008c	74 2a		 je	 SHORT $LN9@CGdiObject
  0008e	8d 85 ec fd ff
	ff		 lea	 eax, DWORD PTR _szErrorMessage$4[ebp]
  00094	50		 push	 eax
  00095	6a 4d		 push	 77			; 0000004dH
  00097	68 00 00 00 00	 push	 OFFSET ??_C@_0HD@JJCHHHNK@C?3?2Program?5Files?5?$CIx86?$CJ?2Microsof@
  0009c	68 00 00 00 00	 push	 OFFSET ??_C@_0BP@OIEOKIDM@Exception?5thrown?5in?5destructor@
  000a1	8d 85 e8 fd ff
	ff		 lea	 eax, DWORD PTR _strMsg$3[ebp]
  000a7	68 00 00 00 00	 push	 OFFSET ??_C@_0BB@HBOOMJBF@?$CFTs?5?$CI?$CFTs?3?$CFd?$CJ?6?$CFTs@
  000ac	50		 push	 eax
  000ad	ff 15 00 00 00
	00		 call	 DWORD PTR __imp_?Format@?$CStringT@DV?$StrTraitMFC_DLL@DV?$ChTraitsCRT@D@ATL@@@@@ATL@@QAAXPBDZZ
  000b3	83 c4 18	 add	 esp, 24			; 00000018H
  000b6	eb 21		 jmp	 SHORT $LN10@CGdiObject
$LN9@CGdiObject:
  000b8	6a 4d		 push	 77			; 0000004dH
  000ba	68 00 00 00 00	 push	 OFFSET ??_C@_0HD@JJCHHHNK@C?3?2Program?5Files?5?$CIx86?$CJ?2Microsof@
  000bf	68 00 00 00 00	 push	 OFFSET ??_C@_0BP@OIEOKIDM@Exception?5thrown?5in?5destructor@
  000c4	8d 85 e8 fd ff
	ff		 lea	 eax, DWORD PTR _strMsg$3[ebp]
  000ca	68 00 00 00 00	 push	 OFFSET ??_C@_0N@OMEMOKLE@?$CFTs?5?$CI?$CFTs?3?$CFd?$CJ@
  000cf	50		 push	 eax
  000d0	ff 15 00 00 00
	00		 call	 DWORD PTR __imp_?Format@?$CStringT@DV?$StrTraitMFC_DLL@DV?$ChTraitsCRT@D@ATL@@@@@ATL@@QAAXPBDZZ
  000d6	83 c4 14	 add	 esp, 20			; 00000014H
$LN10@CGdiObject:
  000d9	6a 00		 push	 0
  000db	6a 00		 push	 0
  000dd	ff b5 e8 fd ff
	ff		 push	 DWORD PTR _strMsg$3[ebp]
  000e3	e8 00 00 00 00	 call	 ?AfxMessageBox@@YGHPBDII@Z ; AfxMessageBox
  000e8	8d 8d e8 fd ff
	ff		 lea	 ecx, DWORD PTR _strMsg$3[ebp]
  000ee	ff 15 00 00 00
	00		 call	 DWORD PTR __imp_??1?$CStringT@DV?$StrTraitMFC_DLL@DV?$ChTraitsCRT@D@ATL@@@@@ATL@@QAE@XZ
  000f4	8b 06		 mov	 eax, DWORD PTR [esi]
  000f6	8b ce		 mov	 ecx, esi
  000f8	6a 01		 push	 1
  000fa	ff 50 04	 call	 DWORD PTR [eax+4]
  000fd	b8 00 00 00 00	 mov	 eax, $LN18@CGdiObject
  00102	c3		 ret	 0
_TEXT	ENDS
;	COMDAT text$x
text$x	SEGMENT
__unwindfunclet$??1CGdiObject@@UAE@XZ$2:
  00000	8d 8d e8 fd ff
	ff		 lea	 ecx, DWORD PTR _strMsg$3[ebp]
  00006	ff 25 00 00 00
	00		 jmp	 DWORD PTR __imp_??1?$CStringT@DV?$StrTraitMFC_DLL@DV?$ChTraitsCRT@D@ATL@@@@@ATL@@QAE@XZ
  0000c	cc		 int	 3
  0000d	cc		 int	 3
  0000e	cc		 int	 3
  0000f	cc		 int	 3
  00010	cc		 int	 3
__ehhandler$??1CGdiObject@@UAE@XZ:
  00011	90		 npad	 1
  00012	90		 npad	 1
  00013	8b 54 24 08	 mov	 edx, DWORD PTR [esp+8]
  00017	8d 42 0c	 lea	 eax, DWORD PTR [edx+12]
  0001a	8b 8a e0 fd ff
	ff		 mov	 ecx, DWORD PTR [edx-544]
  00020	33 c8		 xor	 ecx, eax
  00022	e8 00 00 00 00	 call	 @__security_check_cookie@4
  00027	8b 4a f8	 mov	 ecx, DWORD PTR [edx-8]
  0002a	33 c8		 xor	 ecx, eax
  0002c	e8 00 00 00 00	 call	 @__security_check_cookie@4
  00031	b8 00 00 00 00	 mov	 eax, OFFSET __ehfuncinfo$??1CGdiObject@@UAE@XZ
  00036	e9 00 00 00 00	 jmp	 ___CxxFrameHandler3
text$x	ENDS
??1CGdiObject@@UAE@XZ ENDP				; CGdiObject::~CGdiObject
; Function compile flags: /Ogtp
; File C:\Program Files (x86)\Microsoft Visual Studio\2019\Community\VC\Tools\MSVC\14.29.30133\atlmfc\include\afx.inl
;	COMDAT ?Dump@CObject@@UBEXAAVCDumpContext@@@Z
_TEXT	SEGMENT
___formal$ = 8						; size = 4
?Dump@CObject@@UBEXAAVCDumpContext@@@Z PROC		; CObject::Dump, COMDAT
; _this$ = ecx

; 122  : 	{ /* no dumping in release builds */ }

  00000	c2 04 00	 ret	 4
?Dump@CObject@@UBEXAAVCDumpContext@@@Z ENDP		; CObject::Dump
_TEXT	ENDS
; Function compile flags: /Ogtp
; File C:\Program Files (x86)\Microsoft Visual Studio\2019\Community\VC\Tools\MSVC\14.29.30133\atlmfc\include\afx.inl
;	COMDAT ?AssertValid@CObject@@UBEXXZ
_TEXT	SEGMENT
?AssertValid@CObject@@UBEXXZ PROC			; CObject::AssertValid, COMDAT
; _this$ = ecx

; 120  : 	{ /* no asserts in release builds */ }

  00000	c2 00 00	 ret	 0
?AssertValid@CObject@@UBEXXZ ENDP			; CObject::AssertValid
_TEXT	ENDS
; Function compile flags: /Ogtp
; File C:\Program Files (x86)\Microsoft Visual Studio\2019\Community\VC\Tools\MSVC\14.29.30133\atlmfc\include\afx.inl
;	COMDAT ?Serialize@CObject@@UAEXAAVCArchive@@@Z
_TEXT	SEGMENT
___formal$ = 8						; size = 4
?Serialize@CObject@@UAEXAAVCArchive@@@Z PROC		; CObject::Serialize, COMDAT
; _this$ = ecx

; 106  : 	{ /* CObject does not serialize anything by default */ }

  00000	c2 04 00	 ret	 4
?Serialize@CObject@@UAEXAAVCArchive@@@Z ENDP		; CObject::Serialize
_TEXT	ENDS
; Function compile flags: /Ogtp
; File C:\Program Files (x86)\Microsoft Visual Studio\2019\Community\VC\Tools\MSVC\14.29.30133\atlmfc\include\afx.inl
;	COMDAT ??1CObject@@UAE@XZ
_TEXT	SEGMENT
??1CObject@@UAE@XZ PROC					; CObject::~CObject, COMDAT
; _this$ = ecx

; 104  : 	{ }

  00000	c2 00 00	 ret	 0
??1CObject@@UAE@XZ ENDP					; CObject::~CObject
_TEXT	ENDS
; Function compile flags: /Ogtp
; File D:\git\src\IBK\IBK_DRFN\ProjSrc\SrcChartEx\ChartOCX\ChartToolBar\Radar.cpp
;	COMDAT ?__empty_global_delete@@YAXPAXI@Z
_TEXT	SEGMENT
___formal$ = 8						; size = 4
___formal$ = 12						; size = 4
?__empty_global_delete@@YAXPAXI@Z PROC			; __empty_global_delete, COMDAT

  00000	c2 00 00	 ret	 0
?__empty_global_delete@@YAXPAXI@Z ENDP			; __empty_global_delete
_TEXT	ENDS
; Function compile flags: /Ogtp
; File D:\git\src\IBK\IBK_DRFN\ProjSrc\SrcChartEx\ChartOCX\ChartToolBar\Radar.cpp
;	COMDAT ?__empty_global_delete@@YAXPAX@Z
_TEXT	SEGMENT
___formal$ = 8						; size = 4
?__empty_global_delete@@YAXPAX@Z PROC			; __empty_global_delete, COMDAT

  00000	c2 00 00	 ret	 0
?__empty_global_delete@@YAXPAX@Z ENDP			; __empty_global_delete
_TEXT	ENDS
END
