; Listing generated by Microsoft (R) Optimizing Compiler Version 19.29.30145.0 

	TITLE	D:\git\src\IBK\IBK_DRFN\#DRfn-CS\_Obj\ChartToolBar\ScrollBarEx.obj
	.686P
	.XMM
	include listing.inc
	.model	flat

INCLUDELIB MSVCRT
INCLUDELIB OLDNAMES

CONST	SEGMENT
?_Fake_alloc@std@@3U_Fake_allocator@1@B	ORG $+1		; std::_Fake_alloc
CONST	ENDS
PUBLIC	?__empty_global_delete@@YAXPAX@Z		; __empty_global_delete
PUBLIC	?__empty_global_delete@@YAXPAXI@Z		; __empty_global_delete
PUBLIC	?Serialize@CObject@@UAEXAAVCArchive@@@Z		; CObject::Serialize
PUBLIC	?AssertValid@CObject@@UBEXXZ			; CObject::AssertValid
PUBLIC	?Dump@CObject@@UBEXAAVCDumpContext@@@Z		; CObject::Dump
PUBLIC	?DoDataExchange@CWnd@@MAEXPAVCDataExchange@@@Z	; CWnd::DoDataExchange
PUBLIC	?BeginModalState@CWnd@@UAEXXZ			; CWnd::BeginModalState
PUBLIC	?EndModalState@CWnd@@UAEXXZ			; CWnd::EndModalState
PUBLIC	??_GCScrollBar@@UAEPAXI@Z			; CScrollBar::`scalar deleting destructor'
PUBLIC	?SetScrollPos@CScrollBarNew@@QAEHHHH@Z		; CScrollBarNew::SetScrollPos
PUBLIC	??_GCScrollBarNew@@UAEPAXI@Z			; CScrollBarNew::`scalar deleting destructor'
PUBLIC	??0CScrollBarEx@@QAE@PAUIChartCtrl@@H@Z		; CScrollBarEx::CScrollBarEx
PUBLIC	?SetScrollData_TR@CScrollBarEx@@QAEXHH_NW4DATAINSERTTYPE@CPacketDataInfo@@H@Z ; CScrollBarEx::SetScrollData_TR
PUBLIC	?SetScrollData_Real@CScrollBarEx@@QAEXH@Z	; CScrollBarEx::SetScrollData_Real
PUBLIC	?SetScrollData_RemovePacket@CScrollBarEx@@QAEXHH@Z ; CScrollBarEx::SetScrollData_RemovePacket
PUBLIC	?SetScrollPos@CScrollBarEx@@QAEXXZ		; CScrollBarEx::SetScrollPos
PUBLIC	?SetScrollBarWidth@CScrollBarEx@@QAEXH@Z	; CScrollBarEx::SetScrollBarWidth
PUBLIC	?GetDataStartEnd@CScrollBarEx@@QAEXAAH0@Z	; CScrollBarEx::GetDataStartEnd
PUBLIC	?GetTotalDataCount@CScrollBarEx@@QAEHXZ		; CScrollBarEx::GetTotalDataCount
PUBLIC	?UpdateZoomAndScrollInfo@CScrollBarEx@@QAEXHHH@Z ; CScrollBarEx::UpdateZoomAndScrollInfo
PUBLIC	?SetScrollInfo@CScrollBarEx@@AAEXXZ		; CScrollBarEx::SetScrollInfo
PUBLIC	??1CScrollBarEx@@UAE@XZ				; CScrollBarEx::~CScrollBarEx
PUBLIC	?OnHScroll@CScrollBarEx@@QAEXIIPAVCScrollBar@@@Z ; CScrollBarEx::OnHScroll
PUBLIC	?OnLButtonDown@CScrollBarEx@@QAEXIVCPoint@@@Z	; CScrollBarEx::OnLButtonDown
PUBLIC	?OnSetFocus@CScrollBarEx@@QAEXPAVCWnd@@@Z	; CScrollBarEx::OnSetFocus
PUBLIC	?GetThisMessageMap@CScrollBarEx@@KGPBUAFX_MSGMAP@@XZ ; CScrollBarEx::GetThisMessageMap
PUBLIC	?GetMessageMap@CScrollBarEx@@MBEPBUAFX_MSGMAP@@XZ ; CScrollBarEx::GetMessageMap
PUBLIC	??_GCScrollBarEx@@UAEPAXI@Z			; CScrollBarEx::`scalar deleting destructor'
PUBLIC	??_7CScrollBar@@6B@				; CScrollBar::`vftable'
PUBLIC	??_R0?AVCObject@@@8				; CObject `RTTI Type Descriptor'
PUBLIC	??_R3CObject@@8					; CObject::`RTTI Class Hierarchy Descriptor'
PUBLIC	??_R2CObject@@8					; CObject::`RTTI Base Class Array'
PUBLIC	??_R1A@?0A@EA@CObject@@8			; CObject::`RTTI Base Class Descriptor at (0,-1,0,64)'
PUBLIC	??_R1A@?0A@EA@CWnd@@8				; CWnd::`RTTI Base Class Descriptor at (0,-1,0,64)'
PUBLIC	??_R0?AVCWnd@@@8				; CWnd `RTTI Type Descriptor'
PUBLIC	??_R3CWnd@@8					; CWnd::`RTTI Class Hierarchy Descriptor'
PUBLIC	??_R2CWnd@@8					; CWnd::`RTTI Base Class Array'
PUBLIC	??_R1A@?0A@EA@CCmdTarget@@8			; CCmdTarget::`RTTI Base Class Descriptor at (0,-1,0,64)'
PUBLIC	??_R0?AVCCmdTarget@@@8				; CCmdTarget `RTTI Type Descriptor'
PUBLIC	??_R3CCmdTarget@@8				; CCmdTarget::`RTTI Class Hierarchy Descriptor'
PUBLIC	??_R2CCmdTarget@@8				; CCmdTarget::`RTTI Base Class Array'
PUBLIC	??_R4CScrollBar@@6B@				; CScrollBar::`RTTI Complete Object Locator'
PUBLIC	??_R0?AVCScrollBar@@@8				; CScrollBar `RTTI Type Descriptor'
PUBLIC	??_R3CScrollBar@@8				; CScrollBar::`RTTI Class Hierarchy Descriptor'
PUBLIC	??_R2CScrollBar@@8				; CScrollBar::`RTTI Base Class Array'
PUBLIC	??_R1A@?0A@EA@CScrollBar@@8			; CScrollBar::`RTTI Base Class Descriptor at (0,-1,0,64)'
PUBLIC	??_7CScrollBarNew@@6B@				; CScrollBarNew::`vftable'
PUBLIC	??_7CScrollBarEx@@6B@				; CScrollBarEx::`vftable'
PUBLIC	??_R4CScrollBarNew@@6B@				; CScrollBarNew::`RTTI Complete Object Locator'
PUBLIC	??_R0?AVCScrollBarNew@@@8			; CScrollBarNew `RTTI Type Descriptor'
PUBLIC	??_R3CScrollBarNew@@8				; CScrollBarNew::`RTTI Class Hierarchy Descriptor'
PUBLIC	??_R2CScrollBarNew@@8				; CScrollBarNew::`RTTI Base Class Array'
PUBLIC	??_R1A@?0A@EA@CScrollBarNew@@8			; CScrollBarNew::`RTTI Base Class Descriptor at (0,-1,0,64)'
PUBLIC	??_R4CScrollBarEx@@6B@				; CScrollBarEx::`RTTI Complete Object Locator'
PUBLIC	??_R0?AVCScrollBarEx@@@8			; CScrollBarEx `RTTI Type Descriptor'
PUBLIC	??_R3CScrollBarEx@@8				; CScrollBarEx::`RTTI Class Hierarchy Descriptor'
PUBLIC	??_R2CScrollBarEx@@8				; CScrollBarEx::`RTTI Base Class Array'
PUBLIC	??_R1A@?0A@EA@CScrollBarEx@@8			; CScrollBarEx::`RTTI Base Class Descriptor at (0,-1,0,64)'
PUBLIC	__xmm@41f00000000000000000000000000000
EXTRN	??3@YAXPAX@Z:PROC				; operator delete
EXTRN	?__global_delete@@YAXPAXI@Z:PROC		; __global_delete
EXTRN	__imp__EnableWindow@8:PROC
EXTRN	__imp__InvalidateRect@12:PROC
EXTRN	__imp__SetScrollPos@16:PROC
EXTRN	__imp__GetScrollPos@8:PROC
EXTRN	__imp__GetParent@4:PROC
EXTRN	?OnCmdMsg@CCmdTarget@@UAEHIHPAXPAUAFX_CMDHANDLERINFO@@@Z:PROC ; CCmdTarget::OnCmdMsg
EXTRN	?IsInvokeAllowed@CCmdTarget@@UAEHJ@Z:PROC	; CCmdTarget::IsInvokeAllowed
EXTRN	?GetDispatchIID@CCmdTarget@@UAEHPAU_GUID@@@Z:PROC ; CCmdTarget::GetDispatchIID
EXTRN	?GetTypeInfoCount@CCmdTarget@@UAEIXZ:PROC	; CCmdTarget::GetTypeInfoCount
EXTRN	?GetTypeLibCache@CCmdTarget@@UAEPAVCTypeLibCache@@XZ:PROC ; CCmdTarget::GetTypeLibCache
EXTRN	?GetTypeLib@CCmdTarget@@UAEJKPAPAUITypeLib@@@Z:PROC ; CCmdTarget::GetTypeLib
EXTRN	?GetCommandMap@CCmdTarget@@MBEPBUAFX_OLECMDMAP@@XZ:PROC ; CCmdTarget::GetCommandMap
EXTRN	?GetDispatchMap@CCmdTarget@@MBEPBUAFX_DISPMAP@@XZ:PROC ; CCmdTarget::GetDispatchMap
EXTRN	?GetConnectionMap@CCmdTarget@@MBEPBUAFX_CONNECTIONMAP@@XZ:PROC ; CCmdTarget::GetConnectionMap
EXTRN	?GetEventSinkMap@CCmdTarget@@MBEPBUAFX_EVENTSINKMAP@@XZ:PROC ; CCmdTarget::GetEventSinkMap
EXTRN	?OnCreateAggregates@CCmdTarget@@UAEHXZ:PROC	; CCmdTarget::OnCreateAggregates
EXTRN	?GetInterfaceHook@CCmdTarget@@UAEPAUIUnknown@@PBX@Z:PROC ; CCmdTarget::GetInterfaceHook
EXTRN	?GetExtraConnectionPoints@CCmdTarget@@MAEHPAVCPtrArray@@@Z:PROC ; CCmdTarget::GetExtraConnectionPoints
EXTRN	?GetConnectionHook@CCmdTarget@@MAEPAUIConnectionPoint@@ABU_GUID@@@Z:PROC ; CCmdTarget::GetConnectionHook
EXTRN	??0CWnd@@QAE@XZ:PROC				; CWnd::CWnd
EXTRN	?FromHandle@CWnd@@SGPAV1@PAUHWND__@@@Z:PROC	; CWnd::FromHandle
EXTRN	?PreSubclassWindow@CWnd@@UAEXXZ:PROC		; CWnd::PreSubclassWindow
EXTRN	?Create@CWnd@@UAEHPBD0KABUtagRECT@@PAV1@IPAUCCreateContext@@@Z:PROC ; CWnd::Create
EXTRN	?CreateEx@CWnd@@UAEHKPBD0KHHHHPAUHWND__@@PAUHMENU__@@PAX@Z:PROC ; CWnd::CreateEx
EXTRN	?CreateEx@CWnd@@UAEHKPBD0KABUtagRECT@@PAV1@IPAX@Z:PROC ; CWnd::CreateEx
EXTRN	?DestroyWindow@CWnd@@UAEHXZ:PROC		; CWnd::DestroyWindow
EXTRN	?PreCreateWindow@CWnd@@UAEHAAUtagCREATESTRUCTA@@@Z:PROC ; CWnd::PreCreateWindow
EXTRN	?CalcWindowRect@CWnd@@UAEXPAUtagRECT@@I@Z:PROC	; CWnd::CalcWindowRect
EXTRN	?GetMenu@CWnd@@UBEPAVCMenu@@XZ:PROC		; CWnd::GetMenu
EXTRN	?SetMenu@CWnd@@UAEHPAVCMenu@@@Z:PROC		; CWnd::SetMenu
EXTRN	?OnToolHitTest@CWnd@@UBEHVCPoint@@PAUtagTOOLINFOA@@@Z:PROC ; CWnd::OnToolHitTest
EXTRN	?SetFocus@CWnd@@QAEPAV1@XZ:PROC			; CWnd::SetFocus
EXTRN	?GetScrollBarCtrl@CWnd@@UBEPAVCScrollBar@@H@Z:PROC ; CWnd::GetScrollBarCtrl
EXTRN	?SetScrollInfo@CWnd@@QAEHHPAUtagSCROLLINFO@@H@Z:PROC ; CWnd::SetScrollInfo
EXTRN	?GetScrollInfo@CWnd@@QAEHHPAUtagSCROLLINFO@@I@Z:PROC ; CWnd::GetScrollInfo
EXTRN	?WinHelpA@CWnd@@UAEXKI@Z:PROC			; CWnd::WinHelpA
EXTRN	?HtmlHelpA@CWnd@@UAEXKI@Z:PROC			; CWnd::HtmlHelpA
EXTRN	?WinHelpInternal@CWnd@@UAEXKI@Z:PROC		; CWnd::WinHelpInternal
EXTRN	?ContinueModal@CWnd@@UAEHXZ:PROC		; CWnd::ContinueModal
EXTRN	?EndModalLoop@CWnd@@UAEXH@Z:PROC		; CWnd::EndModalLoop
EXTRN	?OnDrawIconicThumbnailOrLivePreview@CWnd@@UAEXAAVCDC@@VCRect@@VCSize@@HAAH@Z:PROC ; CWnd::OnDrawIconicThumbnailOrLivePreview
EXTRN	?GetInterfaceMap@CWnd@@MBEPBUAFX_INTERFACEMAP@@XZ:PROC ; CWnd::GetInterfaceMap
EXTRN	?EnsureStdObj@CWnd@@UAEJXZ:PROC			; CWnd::EnsureStdObj
EXTRN	?get_accParent@CWnd@@UAEJPAPAUIDispatch@@@Z:PROC ; CWnd::get_accParent
EXTRN	?get_accChildCount@CWnd@@UAEJPAJ@Z:PROC		; CWnd::get_accChildCount
EXTRN	?get_accChild@CWnd@@UAEJUtagVARIANT@@PAPAUIDispatch@@@Z:PROC ; CWnd::get_accChild
EXTRN	?get_accName@CWnd@@UAEJUtagVARIANT@@PAPA_W@Z:PROC ; CWnd::get_accName
EXTRN	?get_accValue@CWnd@@UAEJUtagVARIANT@@PAPA_W@Z:PROC ; CWnd::get_accValue
EXTRN	?get_accDescription@CWnd@@UAEJUtagVARIANT@@PAPA_W@Z:PROC ; CWnd::get_accDescription
EXTRN	?get_accRole@CWnd@@UAEJUtagVARIANT@@PAU2@@Z:PROC ; CWnd::get_accRole
EXTRN	?get_accState@CWnd@@UAEJUtagVARIANT@@PAU2@@Z:PROC ; CWnd::get_accState
EXTRN	?get_accHelp@CWnd@@UAEJUtagVARIANT@@PAPA_W@Z:PROC ; CWnd::get_accHelp
EXTRN	?get_accHelpTopic@CWnd@@UAEJPAPA_WUtagVARIANT@@PAJ@Z:PROC ; CWnd::get_accHelpTopic
EXTRN	?get_accKeyboardShortcut@CWnd@@UAEJUtagVARIANT@@PAPA_W@Z:PROC ; CWnd::get_accKeyboardShortcut
EXTRN	?get_accFocus@CWnd@@UAEJPAUtagVARIANT@@@Z:PROC	; CWnd::get_accFocus
EXTRN	?get_accSelection@CWnd@@UAEJPAUtagVARIANT@@@Z:PROC ; CWnd::get_accSelection
EXTRN	?get_accDefaultAction@CWnd@@UAEJUtagVARIANT@@PAPA_W@Z:PROC ; CWnd::get_accDefaultAction
EXTRN	?accSelect@CWnd@@UAEJJUtagVARIANT@@@Z:PROC	; CWnd::accSelect
EXTRN	?accLocation@CWnd@@UAEJPAJ000UtagVARIANT@@@Z:PROC ; CWnd::accLocation
EXTRN	?accNavigate@CWnd@@UAEJJUtagVARIANT@@PAU2@@Z:PROC ; CWnd::accNavigate
EXTRN	?accHitTest@CWnd@@UAEJJJPAUtagVARIANT@@@Z:PROC	; CWnd::accHitTest
EXTRN	?accDoDefaultAction@CWnd@@UAEJUtagVARIANT@@@Z:PROC ; CWnd::accDoDefaultAction
EXTRN	?put_accName@CWnd@@UAEJUtagVARIANT@@PA_W@Z:PROC	; CWnd::put_accName
EXTRN	?put_accValue@CWnd@@UAEJUtagVARIANT@@PA_W@Z:PROC ; CWnd::put_accValue
EXTRN	?SetProxy@CWnd@@UAEJPAUIAccessibleProxy@@@Z:PROC ; CWnd::SetProxy
EXTRN	?CreateAccessibleProxy@CWnd@@UAEJIJPAJ@Z:PROC	; CWnd::CreateAccessibleProxy
EXTRN	?OnCommand@CWnd@@MAEHIJ@Z:PROC			; CWnd::OnCommand
EXTRN	?OnNotify@CWnd@@MAEHIJPAJ@Z:PROC		; CWnd::OnNotify
EXTRN	?OnSetFocus@CWnd@@IAEXPAV1@@Z:PROC		; CWnd::OnSetFocus
EXTRN	?GetSuperWndProcAddr@CWnd@@MAEPAP6GJPAUHWND__@@IIJ@ZXZ:PROC ; CWnd::GetSuperWndProcAddr
EXTRN	?PreTranslateMessage@CWnd@@UAEHPAUtagMSG@@@Z:PROC ; CWnd::PreTranslateMessage
EXTRN	?OnAmbientProperty@CWnd@@UAEHPAVCOleControlSite@@JPAUtagVARIANT@@@Z:PROC ; CWnd::OnAmbientProperty
EXTRN	?WindowProc@CWnd@@MAEJIIJ@Z:PROC		; CWnd::WindowProc
EXTRN	?OnWndMsg@CWnd@@MAEHIIJPAJ@Z:PROC		; CWnd::OnWndMsg
EXTRN	?Default@CWnd@@IAEJXZ:PROC			; CWnd::Default
EXTRN	?DefWindowProcA@CWnd@@MAEJIIJ@Z:PROC		; CWnd::DefWindowProcA
EXTRN	?PostNcDestroy@CWnd@@MAEXXZ:PROC		; CWnd::PostNcDestroy
EXTRN	?OnChildNotify@CWnd@@MAEHIIJPAJ@Z:PROC		; CWnd::OnChildNotify
EXTRN	?OnTouchInputs@CWnd@@MAEHIPAUtagTOUCHINPUT@@@Z:PROC ; CWnd::OnTouchInputs
EXTRN	?OnTouchInput@CWnd@@MAEHVCPoint@@HHPAUtagTOUCHINPUT@@@Z:PROC ; CWnd::OnTouchInput
EXTRN	?GetGestureStatus@CWnd@@MAEKVCPoint@@@Z:PROC	; CWnd::GetGestureStatus
EXTRN	?OnGestureZoom@CWnd@@MAEHVCPoint@@J@Z:PROC	; CWnd::OnGestureZoom
EXTRN	?OnGesturePan@CWnd@@MAEHVCPoint@@0@Z:PROC	; CWnd::OnGesturePan
EXTRN	?OnGestureRotate@CWnd@@MAEHVCPoint@@N@Z:PROC	; CWnd::OnGestureRotate
EXTRN	?OnGestureTwoFingerTap@CWnd@@MAEHVCPoint@@@Z:PROC ; CWnd::OnGestureTwoFingerTap
EXTRN	?OnGesturePressAndTap@CWnd@@MAEHVCPoint@@J@Z:PROC ; CWnd::OnGesturePressAndTap
EXTRN	?ResizeDynamicLayout@CWnd@@MAEXXZ:PROC		; CWnd::ResizeDynamicLayout
EXTRN	?CheckAutoCenter@CWnd@@UAEHXZ:PROC		; CWnd::CheckAutoCenter
EXTRN	?IsFrameWnd@CWnd@@UBEHXZ:PROC			; CWnd::IsFrameWnd
EXTRN	?OnFinalRelease@CWnd@@UAEXXZ:PROC		; CWnd::OnFinalRelease
EXTRN	?CreateControlContainer@CWnd@@MAEHPAPAVCOleControlContainer@@@Z:PROC ; CWnd::CreateControlContainer
EXTRN	?CreateControlSite@CWnd@@MAEHPAVCOleControlContainer@@PAPAVCOleControlSite@@IABU_GUID@@@Z:PROC ; CWnd::CreateControlSite
EXTRN	?SetOccDialogInfo@CWnd@@MAEHPAU_AFX_OCC_DIALOG_INFO@@@Z:PROC ; CWnd::SetOccDialogInfo
EXTRN	?GetOccDialogInfo@CWnd@@MAEPAU_AFX_OCC_DIALOG_INFO@@XZ:PROC ; CWnd::GetOccDialogInfo
EXTRN	?GetThisMessageMap@CWnd@@KGPBUAFX_MSGMAP@@XZ:PROC ; CWnd::GetThisMessageMap
EXTRN	?GetMessageMap@CWnd@@MBEPBUAFX_MSGMAP@@XZ:PROC	; CWnd::GetMessageMap
EXTRN	?GetRuntimeClass@CScrollBar@@UBEPAUCRuntimeClass@@XZ:PROC ; CScrollBar::GetRuntimeClass
EXTRN	?Create@CScrollBar@@UAEHKABUtagRECT@@PAVCWnd@@I@Z:PROC ; CScrollBar::Create
EXTRN	??1CScrollBar@@UAE@XZ:PROC			; CScrollBar::~CScrollBar
EXTRN	??_ECScrollBar@@UAEPAXI@Z:PROC			; CScrollBar::`vector deleting destructor'
EXTRN	??_ECScrollBarNew@@UAEPAXI@Z:PROC		; CScrollBarNew::`vector deleting destructor'
EXTRN	??_ECScrollBarEx@@UAEPAXI@Z:PROC		; CScrollBarEx::`vector deleting destructor'
EXTRN	?Round@CMath@@SAHN@Z:PROC			; CMath::Round
EXTRN	?SetSliderPos@CToolBarDlg@@QAEXH@Z:PROC		; CToolBarDlg::SetSliderPos
EXTRN	?GetReverseToOcx@CToolBarDlg@@QAEHXZ:PROC	; CToolBarDlg::GetReverseToOcx
EXTRN	@__security_check_cookie@4:PROC
EXTRN	??_7type_info@@6B@:QWORD			; type_info::`vftable'
EXTRN	___security_cookie:DWORD
EXTRN	__fltused:DWORD
;	COMDAT __xmm@41f00000000000000000000000000000
CONST	SEGMENT
__xmm@41f00000000000000000000000000000 DB 00H, 00H, 00H, 00H, 00H, 00H, 00H
	DB	00H, 00H, 00H, 00H, 00H, 00H, 00H, 0f0H, 'A'
CONST	ENDS
;	COMDAT ??_R1A@?0A@EA@CScrollBarEx@@8
rdata$r	SEGMENT
??_R1A@?0A@EA@CScrollBarEx@@8 DD FLAT:??_R0?AVCScrollBarEx@@@8 ; CScrollBarEx::`RTTI Base Class Descriptor at (0,-1,0,64)'
	DD	05H
	DD	00H
	DD	0ffffffffH
	DD	00H
	DD	040H
	DD	FLAT:??_R3CScrollBarEx@@8
rdata$r	ENDS
;	COMDAT ??_R2CScrollBarEx@@8
rdata$r	SEGMENT
??_R2CScrollBarEx@@8 DD FLAT:??_R1A@?0A@EA@CScrollBarEx@@8 ; CScrollBarEx::`RTTI Base Class Array'
	DD	FLAT:??_R1A@?0A@EA@CScrollBarNew@@8
	DD	FLAT:??_R1A@?0A@EA@CScrollBar@@8
	DD	FLAT:??_R1A@?0A@EA@CWnd@@8
	DD	FLAT:??_R1A@?0A@EA@CCmdTarget@@8
	DD	FLAT:??_R1A@?0A@EA@CObject@@8
rdata$r	ENDS
;	COMDAT ??_R3CScrollBarEx@@8
rdata$r	SEGMENT
??_R3CScrollBarEx@@8 DD 00H				; CScrollBarEx::`RTTI Class Hierarchy Descriptor'
	DD	00H
	DD	06H
	DD	FLAT:??_R2CScrollBarEx@@8
rdata$r	ENDS
;	COMDAT ??_R0?AVCScrollBarEx@@@8
data$rs	SEGMENT
??_R0?AVCScrollBarEx@@@8 DD FLAT:??_7type_info@@6B@	; CScrollBarEx `RTTI Type Descriptor'
	DD	00H
	DB	'.?AVCScrollBarEx@@', 00H
data$rs	ENDS
;	COMDAT ??_R4CScrollBarEx@@6B@
rdata$r	SEGMENT
??_R4CScrollBarEx@@6B@ DD 00H				; CScrollBarEx::`RTTI Complete Object Locator'
	DD	00H
	DD	00H
	DD	FLAT:??_R0?AVCScrollBarEx@@@8
	DD	FLAT:??_R3CScrollBarEx@@8
rdata$r	ENDS
;	COMDAT ??_R1A@?0A@EA@CScrollBarNew@@8
rdata$r	SEGMENT
??_R1A@?0A@EA@CScrollBarNew@@8 DD FLAT:??_R0?AVCScrollBarNew@@@8 ; CScrollBarNew::`RTTI Base Class Descriptor at (0,-1,0,64)'
	DD	04H
	DD	00H
	DD	0ffffffffH
	DD	00H
	DD	040H
	DD	FLAT:??_R3CScrollBarNew@@8
rdata$r	ENDS
;	COMDAT ??_R2CScrollBarNew@@8
rdata$r	SEGMENT
??_R2CScrollBarNew@@8 DD FLAT:??_R1A@?0A@EA@CScrollBarNew@@8 ; CScrollBarNew::`RTTI Base Class Array'
	DD	FLAT:??_R1A@?0A@EA@CScrollBar@@8
	DD	FLAT:??_R1A@?0A@EA@CWnd@@8
	DD	FLAT:??_R1A@?0A@EA@CCmdTarget@@8
	DD	FLAT:??_R1A@?0A@EA@CObject@@8
rdata$r	ENDS
;	COMDAT ??_R3CScrollBarNew@@8
rdata$r	SEGMENT
??_R3CScrollBarNew@@8 DD 00H				; CScrollBarNew::`RTTI Class Hierarchy Descriptor'
	DD	00H
	DD	05H
	DD	FLAT:??_R2CScrollBarNew@@8
rdata$r	ENDS
;	COMDAT ??_R0?AVCScrollBarNew@@@8
data$rs	SEGMENT
??_R0?AVCScrollBarNew@@@8 DD FLAT:??_7type_info@@6B@	; CScrollBarNew `RTTI Type Descriptor'
	DD	00H
	DB	'.?AVCScrollBarNew@@', 00H
data$rs	ENDS
;	COMDAT ??_R4CScrollBarNew@@6B@
rdata$r	SEGMENT
??_R4CScrollBarNew@@6B@ DD 00H				; CScrollBarNew::`RTTI Complete Object Locator'
	DD	00H
	DD	00H
	DD	FLAT:??_R0?AVCScrollBarNew@@@8
	DD	FLAT:??_R3CScrollBarNew@@8
rdata$r	ENDS
;	COMDAT ?messageMap@?1??GetThisMessageMap@CScrollBarEx@@KGPBUAFX_MSGMAP@@XZ@4U3@B
CONST	SEGMENT
?messageMap@?1??GetThisMessageMap@CScrollBarEx@@KGPBUAFX_MSGMAP@@XZ@4U3@B DD FLAT:?GetThisMessageMap@CWnd@@KGPBUAFX_MSGMAP@@XZ ; `CScrollBarEx::GetThisMessageMap'::`2'::messageMap
	DD	FLAT:?_messageEntries@?1??GetThisMessageMap@CScrollBarEx@@KGPBUAFX_MSGMAP@@XZ@4QBUAFX_MSGMAP_ENTRY@@B
CONST	ENDS
;	COMDAT ?_messageEntries@?1??GetThisMessageMap@CScrollBarEx@@KGPBUAFX_MSGMAP@@XZ@4QBUAFX_MSGMAP_ENTRY@@B
CONST	SEGMENT
?_messageEntries@?1??GetThisMessageMap@CScrollBarEx@@KGPBUAFX_MSGMAP@@XZ@4QBUAFX_MSGMAP_ENTRY@@B DD 0114H ; `CScrollBarEx::GetThisMessageMap'::`2'::_messageEntries
	DD	00H
	DD	00H
	DD	00H
	DD	02bH
	DD	FLAT:?OnHScroll@CScrollBarEx@@QAEXIIPAVCScrollBar@@@Z
	DD	0201H
	DD	00H
	DD	00H
	DD	00H
	DD	036H
	DD	FLAT:?OnLButtonDown@CScrollBarEx@@QAEXIVCPoint@@@Z
	DD	07H
	DD	00H
	DD	00H
	DD	00H
	DD	024H
	DD	FLAT:?OnSetFocus@CScrollBarEx@@QAEXPAVCWnd@@@Z
	DD	00H
	DD	00H
	DD	00H
	DD	00H
	DD	00H
	DD	00H
CONST	ENDS
;	COMDAT ??_7CScrollBarEx@@6B@
CONST	SEGMENT
??_7CScrollBarEx@@6B@ DD FLAT:??_R4CScrollBarEx@@6B@	; CScrollBarEx::`vftable'
	DD	FLAT:?GetRuntimeClass@CScrollBar@@UBEPAUCRuntimeClass@@XZ
	DD	FLAT:??_ECScrollBarEx@@UAEPAXI@Z
	DD	FLAT:?Serialize@CObject@@UAEXAAVCArchive@@@Z
	DD	FLAT:?AssertValid@CObject@@UBEXXZ
	DD	FLAT:?Dump@CObject@@UBEXAAVCDumpContext@@@Z
	DD	FLAT:?OnCmdMsg@CCmdTarget@@UAEHIHPAXPAUAFX_CMDHANDLERINFO@@@Z
	DD	FLAT:?OnFinalRelease@CWnd@@UAEXXZ
	DD	FLAT:?IsInvokeAllowed@CCmdTarget@@UAEHJ@Z
	DD	FLAT:?GetDispatchIID@CCmdTarget@@UAEHPAU_GUID@@@Z
	DD	FLAT:?GetTypeInfoCount@CCmdTarget@@UAEIXZ
	DD	FLAT:?GetTypeLibCache@CCmdTarget@@UAEPAVCTypeLibCache@@XZ
	DD	FLAT:?GetTypeLib@CCmdTarget@@UAEJKPAPAUITypeLib@@@Z
	DD	FLAT:?GetMessageMap@CScrollBarEx@@MBEPBUAFX_MSGMAP@@XZ
	DD	FLAT:?GetCommandMap@CCmdTarget@@MBEPBUAFX_OLECMDMAP@@XZ
	DD	FLAT:?GetDispatchMap@CCmdTarget@@MBEPBUAFX_DISPMAP@@XZ
	DD	FLAT:?GetConnectionMap@CCmdTarget@@MBEPBUAFX_CONNECTIONMAP@@XZ
	DD	FLAT:?GetInterfaceMap@CWnd@@MBEPBUAFX_INTERFACEMAP@@XZ
	DD	FLAT:?GetEventSinkMap@CCmdTarget@@MBEPBUAFX_EVENTSINKMAP@@XZ
	DD	FLAT:?OnCreateAggregates@CCmdTarget@@UAEHXZ
	DD	FLAT:?GetInterfaceHook@CCmdTarget@@UAEPAUIUnknown@@PBX@Z
	DD	FLAT:?GetExtraConnectionPoints@CCmdTarget@@MAEHPAVCPtrArray@@@Z
	DD	FLAT:?GetConnectionHook@CCmdTarget@@MAEPAUIConnectionPoint@@ABU_GUID@@@Z
	DD	FLAT:?PreSubclassWindow@CWnd@@UAEXXZ
	DD	FLAT:?Create@CWnd@@UAEHPBD0KABUtagRECT@@PAV1@IPAUCCreateContext@@@Z
	DD	FLAT:?CreateEx@CWnd@@UAEHKPBD0KABUtagRECT@@PAV1@IPAX@Z
	DD	FLAT:?CreateEx@CWnd@@UAEHKPBD0KHHHHPAUHWND__@@PAUHMENU__@@PAX@Z
	DD	FLAT:?DestroyWindow@CWnd@@UAEHXZ
	DD	FLAT:?PreCreateWindow@CWnd@@UAEHAAUtagCREATESTRUCTA@@@Z
	DD	FLAT:?CalcWindowRect@CWnd@@UAEXPAUtagRECT@@I@Z
	DD	FLAT:?GetMenu@CWnd@@UBEPAVCMenu@@XZ
	DD	FLAT:?SetMenu@CWnd@@UAEHPAVCMenu@@@Z
	DD	FLAT:?OnToolHitTest@CWnd@@UBEHVCPoint@@PAUtagTOOLINFOA@@@Z
	DD	FLAT:?GetScrollBarCtrl@CWnd@@UBEPAVCScrollBar@@H@Z
	DD	FLAT:?WinHelpA@CWnd@@UAEXKI@Z
	DD	FLAT:?HtmlHelpA@CWnd@@UAEXKI@Z
	DD	FLAT:?WinHelpInternal@CWnd@@UAEXKI@Z
	DD	FLAT:?ContinueModal@CWnd@@UAEHXZ
	DD	FLAT:?EndModalLoop@CWnd@@UAEXH@Z
	DD	FLAT:?OnDrawIconicThumbnailOrLivePreview@CWnd@@UAEXAAVCDC@@VCRect@@VCSize@@HAAH@Z
	DD	FLAT:?EnsureStdObj@CWnd@@UAEJXZ
	DD	FLAT:?get_accParent@CWnd@@UAEJPAPAUIDispatch@@@Z
	DD	FLAT:?get_accChildCount@CWnd@@UAEJPAJ@Z
	DD	FLAT:?get_accChild@CWnd@@UAEJUtagVARIANT@@PAPAUIDispatch@@@Z
	DD	FLAT:?get_accName@CWnd@@UAEJUtagVARIANT@@PAPA_W@Z
	DD	FLAT:?get_accValue@CWnd@@UAEJUtagVARIANT@@PAPA_W@Z
	DD	FLAT:?get_accDescription@CWnd@@UAEJUtagVARIANT@@PAPA_W@Z
	DD	FLAT:?get_accRole@CWnd@@UAEJUtagVARIANT@@PAU2@@Z
	DD	FLAT:?get_accState@CWnd@@UAEJUtagVARIANT@@PAU2@@Z
	DD	FLAT:?get_accHelp@CWnd@@UAEJUtagVARIANT@@PAPA_W@Z
	DD	FLAT:?get_accHelpTopic@CWnd@@UAEJPAPA_WUtagVARIANT@@PAJ@Z
	DD	FLAT:?get_accKeyboardShortcut@CWnd@@UAEJUtagVARIANT@@PAPA_W@Z
	DD	FLAT:?get_accFocus@CWnd@@UAEJPAUtagVARIANT@@@Z
	DD	FLAT:?get_accSelection@CWnd@@UAEJPAUtagVARIANT@@@Z
	DD	FLAT:?get_accDefaultAction@CWnd@@UAEJUtagVARIANT@@PAPA_W@Z
	DD	FLAT:?accSelect@CWnd@@UAEJJUtagVARIANT@@@Z
	DD	FLAT:?accLocation@CWnd@@UAEJPAJ000UtagVARIANT@@@Z
	DD	FLAT:?accNavigate@CWnd@@UAEJJUtagVARIANT@@PAU2@@Z
	DD	FLAT:?accHitTest@CWnd@@UAEJJJPAUtagVARIANT@@@Z
	DD	FLAT:?accDoDefaultAction@CWnd@@UAEJUtagVARIANT@@@Z
	DD	FLAT:?put_accName@CWnd@@UAEJUtagVARIANT@@PA_W@Z
	DD	FLAT:?put_accValue@CWnd@@UAEJUtagVARIANT@@PA_W@Z
	DD	FLAT:?SetProxy@CWnd@@UAEJPAUIAccessibleProxy@@@Z
	DD	FLAT:?CreateAccessibleProxy@CWnd@@UAEJIJPAJ@Z
	DD	FLAT:?OnCommand@CWnd@@MAEHIJ@Z
	DD	FLAT:?OnNotify@CWnd@@MAEHIJPAJ@Z
	DD	FLAT:?GetSuperWndProcAddr@CWnd@@MAEPAP6GJPAUHWND__@@IIJ@ZXZ
	DD	FLAT:?DoDataExchange@CWnd@@MAEXPAVCDataExchange@@@Z
	DD	FLAT:?BeginModalState@CWnd@@UAEXXZ
	DD	FLAT:?EndModalState@CWnd@@UAEXXZ
	DD	FLAT:?PreTranslateMessage@CWnd@@UAEHPAUtagMSG@@@Z
	DD	FLAT:?OnAmbientProperty@CWnd@@UAEHPAVCOleControlSite@@JPAUtagVARIANT@@@Z
	DD	FLAT:?WindowProc@CWnd@@MAEJIIJ@Z
	DD	FLAT:?OnWndMsg@CWnd@@MAEHIIJPAJ@Z
	DD	FLAT:?DefWindowProcA@CWnd@@MAEJIIJ@Z
	DD	FLAT:?PostNcDestroy@CWnd@@MAEXXZ
	DD	FLAT:?OnChildNotify@CWnd@@MAEHIIJPAJ@Z
	DD	FLAT:?OnTouchInputs@CWnd@@MAEHIPAUtagTOUCHINPUT@@@Z
	DD	FLAT:?OnTouchInput@CWnd@@MAEHVCPoint@@HHPAUtagTOUCHINPUT@@@Z
	DD	FLAT:?GetGestureStatus@CWnd@@MAEKVCPoint@@@Z
	DD	FLAT:?OnGestureZoom@CWnd@@MAEHVCPoint@@J@Z
	DD	FLAT:?OnGesturePan@CWnd@@MAEHVCPoint@@0@Z
	DD	FLAT:?OnGestureRotate@CWnd@@MAEHVCPoint@@N@Z
	DD	FLAT:?OnGestureTwoFingerTap@CWnd@@MAEHVCPoint@@@Z
	DD	FLAT:?OnGesturePressAndTap@CWnd@@MAEHVCPoint@@J@Z
	DD	FLAT:?ResizeDynamicLayout@CWnd@@MAEXXZ
	DD	FLAT:?CheckAutoCenter@CWnd@@UAEHXZ
	DD	FLAT:?IsFrameWnd@CWnd@@UBEHXZ
	DD	FLAT:?CreateControlContainer@CWnd@@MAEHPAPAVCOleControlContainer@@@Z
	DD	FLAT:?CreateControlSite@CWnd@@MAEHPAVCOleControlContainer@@PAPAVCOleControlSite@@IABU_GUID@@@Z
	DD	FLAT:?SetOccDialogInfo@CWnd@@MAEHPAU_AFX_OCC_DIALOG_INFO@@@Z
	DD	FLAT:?GetOccDialogInfo@CWnd@@MAEPAU_AFX_OCC_DIALOG_INFO@@XZ
	DD	FLAT:?Create@CScrollBar@@UAEHKABUtagRECT@@PAVCWnd@@I@Z
CONST	ENDS
;	COMDAT ??_7CScrollBarNew@@6B@
CONST	SEGMENT
??_7CScrollBarNew@@6B@ DD FLAT:??_R4CScrollBarNew@@6B@	; CScrollBarNew::`vftable'
	DD	FLAT:?GetRuntimeClass@CScrollBar@@UBEPAUCRuntimeClass@@XZ
	DD	FLAT:??_ECScrollBarNew@@UAEPAXI@Z
	DD	FLAT:?Serialize@CObject@@UAEXAAVCArchive@@@Z
	DD	FLAT:?AssertValid@CObject@@UBEXXZ
	DD	FLAT:?Dump@CObject@@UBEXAAVCDumpContext@@@Z
	DD	FLAT:?OnCmdMsg@CCmdTarget@@UAEHIHPAXPAUAFX_CMDHANDLERINFO@@@Z
	DD	FLAT:?OnFinalRelease@CWnd@@UAEXXZ
	DD	FLAT:?IsInvokeAllowed@CCmdTarget@@UAEHJ@Z
	DD	FLAT:?GetDispatchIID@CCmdTarget@@UAEHPAU_GUID@@@Z
	DD	FLAT:?GetTypeInfoCount@CCmdTarget@@UAEIXZ
	DD	FLAT:?GetTypeLibCache@CCmdTarget@@UAEPAVCTypeLibCache@@XZ
	DD	FLAT:?GetTypeLib@CCmdTarget@@UAEJKPAPAUITypeLib@@@Z
	DD	FLAT:?GetMessageMap@CWnd@@MBEPBUAFX_MSGMAP@@XZ
	DD	FLAT:?GetCommandMap@CCmdTarget@@MBEPBUAFX_OLECMDMAP@@XZ
	DD	FLAT:?GetDispatchMap@CCmdTarget@@MBEPBUAFX_DISPMAP@@XZ
	DD	FLAT:?GetConnectionMap@CCmdTarget@@MBEPBUAFX_CONNECTIONMAP@@XZ
	DD	FLAT:?GetInterfaceMap@CWnd@@MBEPBUAFX_INTERFACEMAP@@XZ
	DD	FLAT:?GetEventSinkMap@CCmdTarget@@MBEPBUAFX_EVENTSINKMAP@@XZ
	DD	FLAT:?OnCreateAggregates@CCmdTarget@@UAEHXZ
	DD	FLAT:?GetInterfaceHook@CCmdTarget@@UAEPAUIUnknown@@PBX@Z
	DD	FLAT:?GetExtraConnectionPoints@CCmdTarget@@MAEHPAVCPtrArray@@@Z
	DD	FLAT:?GetConnectionHook@CCmdTarget@@MAEPAUIConnectionPoint@@ABU_GUID@@@Z
	DD	FLAT:?PreSubclassWindow@CWnd@@UAEXXZ
	DD	FLAT:?Create@CWnd@@UAEHPBD0KABUtagRECT@@PAV1@IPAUCCreateContext@@@Z
	DD	FLAT:?CreateEx@CWnd@@UAEHKPBD0KABUtagRECT@@PAV1@IPAX@Z
	DD	FLAT:?CreateEx@CWnd@@UAEHKPBD0KHHHHPAUHWND__@@PAUHMENU__@@PAX@Z
	DD	FLAT:?DestroyWindow@CWnd@@UAEHXZ
	DD	FLAT:?PreCreateWindow@CWnd@@UAEHAAUtagCREATESTRUCTA@@@Z
	DD	FLAT:?CalcWindowRect@CWnd@@UAEXPAUtagRECT@@I@Z
	DD	FLAT:?GetMenu@CWnd@@UBEPAVCMenu@@XZ
	DD	FLAT:?SetMenu@CWnd@@UAEHPAVCMenu@@@Z
	DD	FLAT:?OnToolHitTest@CWnd@@UBEHVCPoint@@PAUtagTOOLINFOA@@@Z
	DD	FLAT:?GetScrollBarCtrl@CWnd@@UBEPAVCScrollBar@@H@Z
	DD	FLAT:?WinHelpA@CWnd@@UAEXKI@Z
	DD	FLAT:?HtmlHelpA@CWnd@@UAEXKI@Z
	DD	FLAT:?WinHelpInternal@CWnd@@UAEXKI@Z
	DD	FLAT:?ContinueModal@CWnd@@UAEHXZ
	DD	FLAT:?EndModalLoop@CWnd@@UAEXH@Z
	DD	FLAT:?OnDrawIconicThumbnailOrLivePreview@CWnd@@UAEXAAVCDC@@VCRect@@VCSize@@HAAH@Z
	DD	FLAT:?EnsureStdObj@CWnd@@UAEJXZ
	DD	FLAT:?get_accParent@CWnd@@UAEJPAPAUIDispatch@@@Z
	DD	FLAT:?get_accChildCount@CWnd@@UAEJPAJ@Z
	DD	FLAT:?get_accChild@CWnd@@UAEJUtagVARIANT@@PAPAUIDispatch@@@Z
	DD	FLAT:?get_accName@CWnd@@UAEJUtagVARIANT@@PAPA_W@Z
	DD	FLAT:?get_accValue@CWnd@@UAEJUtagVARIANT@@PAPA_W@Z
	DD	FLAT:?get_accDescription@CWnd@@UAEJUtagVARIANT@@PAPA_W@Z
	DD	FLAT:?get_accRole@CWnd@@UAEJUtagVARIANT@@PAU2@@Z
	DD	FLAT:?get_accState@CWnd@@UAEJUtagVARIANT@@PAU2@@Z
	DD	FLAT:?get_accHelp@CWnd@@UAEJUtagVARIANT@@PAPA_W@Z
	DD	FLAT:?get_accHelpTopic@CWnd@@UAEJPAPA_WUtagVARIANT@@PAJ@Z
	DD	FLAT:?get_accKeyboardShortcut@CWnd@@UAEJUtagVARIANT@@PAPA_W@Z
	DD	FLAT:?get_accFocus@CWnd@@UAEJPAUtagVARIANT@@@Z
	DD	FLAT:?get_accSelection@CWnd@@UAEJPAUtagVARIANT@@@Z
	DD	FLAT:?get_accDefaultAction@CWnd@@UAEJUtagVARIANT@@PAPA_W@Z
	DD	FLAT:?accSelect@CWnd@@UAEJJUtagVARIANT@@@Z
	DD	FLAT:?accLocation@CWnd@@UAEJPAJ000UtagVARIANT@@@Z
	DD	FLAT:?accNavigate@CWnd@@UAEJJUtagVARIANT@@PAU2@@Z
	DD	FLAT:?accHitTest@CWnd@@UAEJJJPAUtagVARIANT@@@Z
	DD	FLAT:?accDoDefaultAction@CWnd@@UAEJUtagVARIANT@@@Z
	DD	FLAT:?put_accName@CWnd@@UAEJUtagVARIANT@@PA_W@Z
	DD	FLAT:?put_accValue@CWnd@@UAEJUtagVARIANT@@PA_W@Z
	DD	FLAT:?SetProxy@CWnd@@UAEJPAUIAccessibleProxy@@@Z
	DD	FLAT:?CreateAccessibleProxy@CWnd@@UAEJIJPAJ@Z
	DD	FLAT:?OnCommand@CWnd@@MAEHIJ@Z
	DD	FLAT:?OnNotify@CWnd@@MAEHIJPAJ@Z
	DD	FLAT:?GetSuperWndProcAddr@CWnd@@MAEPAP6GJPAUHWND__@@IIJ@ZXZ
	DD	FLAT:?DoDataExchange@CWnd@@MAEXPAVCDataExchange@@@Z
	DD	FLAT:?BeginModalState@CWnd@@UAEXXZ
	DD	FLAT:?EndModalState@CWnd@@UAEXXZ
	DD	FLAT:?PreTranslateMessage@CWnd@@UAEHPAUtagMSG@@@Z
	DD	FLAT:?OnAmbientProperty@CWnd@@UAEHPAVCOleControlSite@@JPAUtagVARIANT@@@Z
	DD	FLAT:?WindowProc@CWnd@@MAEJIIJ@Z
	DD	FLAT:?OnWndMsg@CWnd@@MAEHIIJPAJ@Z
	DD	FLAT:?DefWindowProcA@CWnd@@MAEJIIJ@Z
	DD	FLAT:?PostNcDestroy@CWnd@@MAEXXZ
	DD	FLAT:?OnChildNotify@CWnd@@MAEHIIJPAJ@Z
	DD	FLAT:?OnTouchInputs@CWnd@@MAEHIPAUtagTOUCHINPUT@@@Z
	DD	FLAT:?OnTouchInput@CWnd@@MAEHVCPoint@@HHPAUtagTOUCHINPUT@@@Z
	DD	FLAT:?GetGestureStatus@CWnd@@MAEKVCPoint@@@Z
	DD	FLAT:?OnGestureZoom@CWnd@@MAEHVCPoint@@J@Z
	DD	FLAT:?OnGesturePan@CWnd@@MAEHVCPoint@@0@Z
	DD	FLAT:?OnGestureRotate@CWnd@@MAEHVCPoint@@N@Z
	DD	FLAT:?OnGestureTwoFingerTap@CWnd@@MAEHVCPoint@@@Z
	DD	FLAT:?OnGesturePressAndTap@CWnd@@MAEHVCPoint@@J@Z
	DD	FLAT:?ResizeDynamicLayout@CWnd@@MAEXXZ
	DD	FLAT:?CheckAutoCenter@CWnd@@UAEHXZ
	DD	FLAT:?IsFrameWnd@CWnd@@UBEHXZ
	DD	FLAT:?CreateControlContainer@CWnd@@MAEHPAPAVCOleControlContainer@@@Z
	DD	FLAT:?CreateControlSite@CWnd@@MAEHPAVCOleControlContainer@@PAPAVCOleControlSite@@IABU_GUID@@@Z
	DD	FLAT:?SetOccDialogInfo@CWnd@@MAEHPAU_AFX_OCC_DIALOG_INFO@@@Z
	DD	FLAT:?GetOccDialogInfo@CWnd@@MAEPAU_AFX_OCC_DIALOG_INFO@@XZ
	DD	FLAT:?Create@CScrollBar@@UAEHKABUtagRECT@@PAVCWnd@@I@Z
CONST	ENDS
;	COMDAT ??_R1A@?0A@EA@CScrollBar@@8
rdata$r	SEGMENT
??_R1A@?0A@EA@CScrollBar@@8 DD FLAT:??_R0?AVCScrollBar@@@8 ; CScrollBar::`RTTI Base Class Descriptor at (0,-1,0,64)'
	DD	03H
	DD	00H
	DD	0ffffffffH
	DD	00H
	DD	040H
	DD	FLAT:??_R3CScrollBar@@8
rdata$r	ENDS
;	COMDAT ??_R2CScrollBar@@8
rdata$r	SEGMENT
??_R2CScrollBar@@8 DD FLAT:??_R1A@?0A@EA@CScrollBar@@8	; CScrollBar::`RTTI Base Class Array'
	DD	FLAT:??_R1A@?0A@EA@CWnd@@8
	DD	FLAT:??_R1A@?0A@EA@CCmdTarget@@8
	DD	FLAT:??_R1A@?0A@EA@CObject@@8
rdata$r	ENDS
;	COMDAT ??_R3CScrollBar@@8
rdata$r	SEGMENT
??_R3CScrollBar@@8 DD 00H				; CScrollBar::`RTTI Class Hierarchy Descriptor'
	DD	00H
	DD	04H
	DD	FLAT:??_R2CScrollBar@@8
rdata$r	ENDS
;	COMDAT ??_R0?AVCScrollBar@@@8
data$rs	SEGMENT
??_R0?AVCScrollBar@@@8 DD FLAT:??_7type_info@@6B@	; CScrollBar `RTTI Type Descriptor'
	DD	00H
	DB	'.?AVCScrollBar@@', 00H
data$rs	ENDS
;	COMDAT ??_R4CScrollBar@@6B@
rdata$r	SEGMENT
??_R4CScrollBar@@6B@ DD 00H				; CScrollBar::`RTTI Complete Object Locator'
	DD	00H
	DD	00H
	DD	FLAT:??_R0?AVCScrollBar@@@8
	DD	FLAT:??_R3CScrollBar@@8
rdata$r	ENDS
;	COMDAT ??_R2CCmdTarget@@8
rdata$r	SEGMENT
??_R2CCmdTarget@@8 DD FLAT:??_R1A@?0A@EA@CCmdTarget@@8	; CCmdTarget::`RTTI Base Class Array'
	DD	FLAT:??_R1A@?0A@EA@CObject@@8
rdata$r	ENDS
;	COMDAT ??_R3CCmdTarget@@8
rdata$r	SEGMENT
??_R3CCmdTarget@@8 DD 00H				; CCmdTarget::`RTTI Class Hierarchy Descriptor'
	DD	00H
	DD	02H
	DD	FLAT:??_R2CCmdTarget@@8
rdata$r	ENDS
;	COMDAT ??_R0?AVCCmdTarget@@@8
data$rs	SEGMENT
??_R0?AVCCmdTarget@@@8 DD FLAT:??_7type_info@@6B@	; CCmdTarget `RTTI Type Descriptor'
	DD	00H
	DB	'.?AVCCmdTarget@@', 00H
data$rs	ENDS
;	COMDAT ??_R1A@?0A@EA@CCmdTarget@@8
rdata$r	SEGMENT
??_R1A@?0A@EA@CCmdTarget@@8 DD FLAT:??_R0?AVCCmdTarget@@@8 ; CCmdTarget::`RTTI Base Class Descriptor at (0,-1,0,64)'
	DD	01H
	DD	00H
	DD	0ffffffffH
	DD	00H
	DD	040H
	DD	FLAT:??_R3CCmdTarget@@8
rdata$r	ENDS
;	COMDAT ??_R2CWnd@@8
rdata$r	SEGMENT
??_R2CWnd@@8 DD	FLAT:??_R1A@?0A@EA@CWnd@@8		; CWnd::`RTTI Base Class Array'
	DD	FLAT:??_R1A@?0A@EA@CCmdTarget@@8
	DD	FLAT:??_R1A@?0A@EA@CObject@@8
rdata$r	ENDS
;	COMDAT ??_R3CWnd@@8
rdata$r	SEGMENT
??_R3CWnd@@8 DD	00H					; CWnd::`RTTI Class Hierarchy Descriptor'
	DD	00H
	DD	03H
	DD	FLAT:??_R2CWnd@@8
rdata$r	ENDS
;	COMDAT ??_R0?AVCWnd@@@8
data$rs	SEGMENT
??_R0?AVCWnd@@@8 DD FLAT:??_7type_info@@6B@		; CWnd `RTTI Type Descriptor'
	DD	00H
	DB	'.?AVCWnd@@', 00H
data$rs	ENDS
;	COMDAT ??_R1A@?0A@EA@CWnd@@8
rdata$r	SEGMENT
??_R1A@?0A@EA@CWnd@@8 DD FLAT:??_R0?AVCWnd@@@8		; CWnd::`RTTI Base Class Descriptor at (0,-1,0,64)'
	DD	02H
	DD	00H
	DD	0ffffffffH
	DD	00H
	DD	040H
	DD	FLAT:??_R3CWnd@@8
rdata$r	ENDS
;	COMDAT ??_R1A@?0A@EA@CObject@@8
rdata$r	SEGMENT
??_R1A@?0A@EA@CObject@@8 DD FLAT:??_R0?AVCObject@@@8	; CObject::`RTTI Base Class Descriptor at (0,-1,0,64)'
	DD	00H
	DD	00H
	DD	0ffffffffH
	DD	00H
	DD	040H
	DD	FLAT:??_R3CObject@@8
rdata$r	ENDS
;	COMDAT ??_R2CObject@@8
rdata$r	SEGMENT
??_R2CObject@@8 DD FLAT:??_R1A@?0A@EA@CObject@@8	; CObject::`RTTI Base Class Array'
rdata$r	ENDS
;	COMDAT ??_R3CObject@@8
rdata$r	SEGMENT
??_R3CObject@@8 DD 00H					; CObject::`RTTI Class Hierarchy Descriptor'
	DD	00H
	DD	01H
	DD	FLAT:??_R2CObject@@8
rdata$r	ENDS
;	COMDAT ??_R0?AVCObject@@@8
data$rs	SEGMENT
??_R0?AVCObject@@@8 DD FLAT:??_7type_info@@6B@		; CObject `RTTI Type Descriptor'
	DD	00H
	DB	'.?AVCObject@@', 00H
data$rs	ENDS
;	COMDAT ??_7CScrollBar@@6B@
CONST	SEGMENT
??_7CScrollBar@@6B@ DD FLAT:??_R4CScrollBar@@6B@	; CScrollBar::`vftable'
	DD	FLAT:?GetRuntimeClass@CScrollBar@@UBEPAUCRuntimeClass@@XZ
	DD	FLAT:??_ECScrollBar@@UAEPAXI@Z
	DD	FLAT:?Serialize@CObject@@UAEXAAVCArchive@@@Z
	DD	FLAT:?AssertValid@CObject@@UBEXXZ
	DD	FLAT:?Dump@CObject@@UBEXAAVCDumpContext@@@Z
	DD	FLAT:?OnCmdMsg@CCmdTarget@@UAEHIHPAXPAUAFX_CMDHANDLERINFO@@@Z
	DD	FLAT:?OnFinalRelease@CWnd@@UAEXXZ
	DD	FLAT:?IsInvokeAllowed@CCmdTarget@@UAEHJ@Z
	DD	FLAT:?GetDispatchIID@CCmdTarget@@UAEHPAU_GUID@@@Z
	DD	FLAT:?GetTypeInfoCount@CCmdTarget@@UAEIXZ
	DD	FLAT:?GetTypeLibCache@CCmdTarget@@UAEPAVCTypeLibCache@@XZ
	DD	FLAT:?GetTypeLib@CCmdTarget@@UAEJKPAPAUITypeLib@@@Z
	DD	FLAT:?GetMessageMap@CWnd@@MBEPBUAFX_MSGMAP@@XZ
	DD	FLAT:?GetCommandMap@CCmdTarget@@MBEPBUAFX_OLECMDMAP@@XZ
	DD	FLAT:?GetDispatchMap@CCmdTarget@@MBEPBUAFX_DISPMAP@@XZ
	DD	FLAT:?GetConnectionMap@CCmdTarget@@MBEPBUAFX_CONNECTIONMAP@@XZ
	DD	FLAT:?GetInterfaceMap@CWnd@@MBEPBUAFX_INTERFACEMAP@@XZ
	DD	FLAT:?GetEventSinkMap@CCmdTarget@@MBEPBUAFX_EVENTSINKMAP@@XZ
	DD	FLAT:?OnCreateAggregates@CCmdTarget@@UAEHXZ
	DD	FLAT:?GetInterfaceHook@CCmdTarget@@UAEPAUIUnknown@@PBX@Z
	DD	FLAT:?GetExtraConnectionPoints@CCmdTarget@@MAEHPAVCPtrArray@@@Z
	DD	FLAT:?GetConnectionHook@CCmdTarget@@MAEPAUIConnectionPoint@@ABU_GUID@@@Z
	DD	FLAT:?PreSubclassWindow@CWnd@@UAEXXZ
	DD	FLAT:?Create@CWnd@@UAEHPBD0KABUtagRECT@@PAV1@IPAUCCreateContext@@@Z
	DD	FLAT:?CreateEx@CWnd@@UAEHKPBD0KABUtagRECT@@PAV1@IPAX@Z
	DD	FLAT:?CreateEx@CWnd@@UAEHKPBD0KHHHHPAUHWND__@@PAUHMENU__@@PAX@Z
	DD	FLAT:?DestroyWindow@CWnd@@UAEHXZ
	DD	FLAT:?PreCreateWindow@CWnd@@UAEHAAUtagCREATESTRUCTA@@@Z
	DD	FLAT:?CalcWindowRect@CWnd@@UAEXPAUtagRECT@@I@Z
	DD	FLAT:?GetMenu@CWnd@@UBEPAVCMenu@@XZ
	DD	FLAT:?SetMenu@CWnd@@UAEHPAVCMenu@@@Z
	DD	FLAT:?OnToolHitTest@CWnd@@UBEHVCPoint@@PAUtagTOOLINFOA@@@Z
	DD	FLAT:?GetScrollBarCtrl@CWnd@@UBEPAVCScrollBar@@H@Z
	DD	FLAT:?WinHelpA@CWnd@@UAEXKI@Z
	DD	FLAT:?HtmlHelpA@CWnd@@UAEXKI@Z
	DD	FLAT:?WinHelpInternal@CWnd@@UAEXKI@Z
	DD	FLAT:?ContinueModal@CWnd@@UAEHXZ
	DD	FLAT:?EndModalLoop@CWnd@@UAEXH@Z
	DD	FLAT:?OnDrawIconicThumbnailOrLivePreview@CWnd@@UAEXAAVCDC@@VCRect@@VCSize@@HAAH@Z
	DD	FLAT:?EnsureStdObj@CWnd@@UAEJXZ
	DD	FLAT:?get_accParent@CWnd@@UAEJPAPAUIDispatch@@@Z
	DD	FLAT:?get_accChildCount@CWnd@@UAEJPAJ@Z
	DD	FLAT:?get_accChild@CWnd@@UAEJUtagVARIANT@@PAPAUIDispatch@@@Z
	DD	FLAT:?get_accName@CWnd@@UAEJUtagVARIANT@@PAPA_W@Z
	DD	FLAT:?get_accValue@CWnd@@UAEJUtagVARIANT@@PAPA_W@Z
	DD	FLAT:?get_accDescription@CWnd@@UAEJUtagVARIANT@@PAPA_W@Z
	DD	FLAT:?get_accRole@CWnd@@UAEJUtagVARIANT@@PAU2@@Z
	DD	FLAT:?get_accState@CWnd@@UAEJUtagVARIANT@@PAU2@@Z
	DD	FLAT:?get_accHelp@CWnd@@UAEJUtagVARIANT@@PAPA_W@Z
	DD	FLAT:?get_accHelpTopic@CWnd@@UAEJPAPA_WUtagVARIANT@@PAJ@Z
	DD	FLAT:?get_accKeyboardShortcut@CWnd@@UAEJUtagVARIANT@@PAPA_W@Z
	DD	FLAT:?get_accFocus@CWnd@@UAEJPAUtagVARIANT@@@Z
	DD	FLAT:?get_accSelection@CWnd@@UAEJPAUtagVARIANT@@@Z
	DD	FLAT:?get_accDefaultAction@CWnd@@UAEJUtagVARIANT@@PAPA_W@Z
	DD	FLAT:?accSelect@CWnd@@UAEJJUtagVARIANT@@@Z
	DD	FLAT:?accLocation@CWnd@@UAEJPAJ000UtagVARIANT@@@Z
	DD	FLAT:?accNavigate@CWnd@@UAEJJUtagVARIANT@@PAU2@@Z
	DD	FLAT:?accHitTest@CWnd@@UAEJJJPAUtagVARIANT@@@Z
	DD	FLAT:?accDoDefaultAction@CWnd@@UAEJUtagVARIANT@@@Z
	DD	FLAT:?put_accName@CWnd@@UAEJUtagVARIANT@@PA_W@Z
	DD	FLAT:?put_accValue@CWnd@@UAEJUtagVARIANT@@PA_W@Z
	DD	FLAT:?SetProxy@CWnd@@UAEJPAUIAccessibleProxy@@@Z
	DD	FLAT:?CreateAccessibleProxy@CWnd@@UAEJIJPAJ@Z
	DD	FLAT:?OnCommand@CWnd@@MAEHIJ@Z
	DD	FLAT:?OnNotify@CWnd@@MAEHIJPAJ@Z
	DD	FLAT:?GetSuperWndProcAddr@CWnd@@MAEPAP6GJPAUHWND__@@IIJ@ZXZ
	DD	FLAT:?DoDataExchange@CWnd@@MAEXPAVCDataExchange@@@Z
	DD	FLAT:?BeginModalState@CWnd@@UAEXXZ
	DD	FLAT:?EndModalState@CWnd@@UAEXXZ
	DD	FLAT:?PreTranslateMessage@CWnd@@UAEHPAUtagMSG@@@Z
	DD	FLAT:?OnAmbientProperty@CWnd@@UAEHPAVCOleControlSite@@JPAUtagVARIANT@@@Z
	DD	FLAT:?WindowProc@CWnd@@MAEJIIJ@Z
	DD	FLAT:?OnWndMsg@CWnd@@MAEHIIJPAJ@Z
	DD	FLAT:?DefWindowProcA@CWnd@@MAEJIIJ@Z
	DD	FLAT:?PostNcDestroy@CWnd@@MAEXXZ
	DD	FLAT:?OnChildNotify@CWnd@@MAEHIIJPAJ@Z
	DD	FLAT:?OnTouchInputs@CWnd@@MAEHIPAUtagTOUCHINPUT@@@Z
	DD	FLAT:?OnTouchInput@CWnd@@MAEHVCPoint@@HHPAUtagTOUCHINPUT@@@Z
	DD	FLAT:?GetGestureStatus@CWnd@@MAEKVCPoint@@@Z
	DD	FLAT:?OnGestureZoom@CWnd@@MAEHVCPoint@@J@Z
	DD	FLAT:?OnGesturePan@CWnd@@MAEHVCPoint@@0@Z
	DD	FLAT:?OnGestureRotate@CWnd@@MAEHVCPoint@@N@Z
	DD	FLAT:?OnGestureTwoFingerTap@CWnd@@MAEHVCPoint@@@Z
	DD	FLAT:?OnGesturePressAndTap@CWnd@@MAEHVCPoint@@J@Z
	DD	FLAT:?ResizeDynamicLayout@CWnd@@MAEXXZ
	DD	FLAT:?CheckAutoCenter@CWnd@@UAEHXZ
	DD	FLAT:?IsFrameWnd@CWnd@@UBEHXZ
	DD	FLAT:?CreateControlContainer@CWnd@@MAEHPAPAVCOleControlContainer@@@Z
	DD	FLAT:?CreateControlSite@CWnd@@MAEHPAVCOleControlContainer@@PAPAVCOleControlSite@@IABU_GUID@@@Z
	DD	FLAT:?SetOccDialogInfo@CWnd@@MAEHPAU_AFX_OCC_DIALOG_INFO@@@Z
	DD	FLAT:?GetOccDialogInfo@CWnd@@MAEPAU_AFX_OCC_DIALOG_INFO@@XZ
	DD	FLAT:?Create@CScrollBar@@UAEHKABUtagRECT@@PAVCWnd@@I@Z
CONST	ENDS
; Function compile flags: /Ogtp
; File D:\git\src\IBK\IBK_DRFN\ProjSrc\SrcChartEx\ChartOCX\ChartToolBar\ScrollBarEx.cpp
; File C:\Program Files (x86)\Microsoft Visual Studio\2019\Community\VC\Tools\MSVC\14.29.30133\atlmfc\include\afx.inl
;	COMDAT ??_GCScrollBarEx@@UAEPAXI@Z
_TEXT	SEGMENT
___flags$ = 8						; size = 4
??_GCScrollBarEx@@UAEPAXI@Z PROC			; CScrollBarEx::`scalar deleting destructor', COMDAT
; _this$ = ecx
  00000	55		 push	 ebp
  00001	8b ec		 mov	 ebp, esp
; File D:\git\src\IBK\IBK_DRFN\ProjSrc\SrcChartEx\ChartOCX\ChartToolBar\ScrollBarEx.cpp

; 38   : {

  00003	56		 push	 esi
  00004	8b f1		 mov	 esi, ecx
  00006	c7 06 00 00 00
	00		 mov	 DWORD PTR [esi], OFFSET ??_7CScrollBarEx@@6B@
  0000c	e8 00 00 00 00	 call	 ??1CScrollBar@@UAE@XZ	; CScrollBar::~CScrollBar
  00011	8b 45 08	 mov	 eax, DWORD PTR ___flags$[ebp]
  00014	a8 01		 test	 al, 1
  00016	74 22		 je	 SHORT $LN15@scalar
  00018	a8 04		 test	 al, 4
  0001a	75 10		 jne	 SHORT $LN3@scalar
; File C:\Program Files (x86)\Microsoft Visual Studio\2019\Community\VC\Tools\MSVC\14.29.30133\atlmfc\include\afx.inl

; 112  : 	{ ::operator delete(p); }

  0001c	56		 push	 esi
  0001d	e8 00 00 00 00	 call	 ??3@YAXPAX@Z		; operator delete
  00022	83 c4 04	 add	 esp, 4
  00025	8b c6		 mov	 eax, esi
  00027	5e		 pop	 esi
  00028	5d		 pop	 ebp
  00029	c2 04 00	 ret	 4
$LN3@scalar:
  0002c	68 c8 00 00 00	 push	 200			; 000000c8H
  00031	56		 push	 esi
  00032	e8 00 00 00 00	 call	 ?__global_delete@@YAXPAXI@Z ; __global_delete
  00037	83 c4 08	 add	 esp, 8
$LN15@scalar:
  0003a	8b c6		 mov	 eax, esi
  0003c	5e		 pop	 esi
  0003d	5d		 pop	 ebp
  0003e	c2 04 00	 ret	 4
??_GCScrollBarEx@@UAEPAXI@Z ENDP			; CScrollBarEx::`scalar deleting destructor'
_TEXT	ENDS
; Function compile flags: /Ogtp
; File D:\git\src\IBK\IBK_DRFN\ProjSrc\SrcChartEx\ChartOCX\ChartToolBar\ScrollBarEx.cpp
;	COMDAT ?GetMessageMap@CScrollBarEx@@MBEPBUAFX_MSGMAP@@XZ
_TEXT	SEGMENT
?GetMessageMap@CScrollBarEx@@MBEPBUAFX_MSGMAP@@XZ PROC	; CScrollBarEx::GetMessageMap, COMDAT
; _this$ = ecx

; 42   : BEGIN_MESSAGE_MAP(CScrollBarEx, CScrollBar)

  00000	b8 00 00 00 00	 mov	 eax, OFFSET ?messageMap@?1??GetThisMessageMap@CScrollBarEx@@KGPBUAFX_MSGMAP@@XZ@4U3@B
  00005	c3		 ret	 0
?GetMessageMap@CScrollBarEx@@MBEPBUAFX_MSGMAP@@XZ ENDP	; CScrollBarEx::GetMessageMap
_TEXT	ENDS
; Function compile flags: /Ogtp
; File D:\git\src\IBK\IBK_DRFN\ProjSrc\SrcChartEx\ChartOCX\ChartToolBar\ScrollBarEx.cpp
;	COMDAT ?GetThisMessageMap@CScrollBarEx@@KGPBUAFX_MSGMAP@@XZ
_TEXT	SEGMENT
?GetThisMessageMap@CScrollBarEx@@KGPBUAFX_MSGMAP@@XZ PROC ; CScrollBarEx::GetThisMessageMap, COMDAT

; 43   : 	//{{AFX_MSG_MAP(CScrollBarEx)
; 44   : 	ON_WM_HSCROLL()
; 45   : 	ON_WM_LBUTTONDOWN()
; 46   : 	ON_WM_SETFOCUS()
; 47   : 	//}}AFX_MSG_MAP
; 48   : END_MESSAGE_MAP()

  00000	b8 00 00 00 00	 mov	 eax, OFFSET ?messageMap@?1??GetThisMessageMap@CScrollBarEx@@KGPBUAFX_MSGMAP@@XZ@4U3@B
  00005	c3		 ret	 0
?GetThisMessageMap@CScrollBarEx@@KGPBUAFX_MSGMAP@@XZ ENDP ; CScrollBarEx::GetThisMessageMap
_TEXT	ENDS
; Function compile flags: /Ogtp
; File D:\git\src\IBK\IBK_DRFN\ProjSrc\SrcChartEx\ChartOCX\ChartToolBar\ScrollBarEx.cpp
; File C:\Program Files (x86)\Microsoft Visual Studio\2019\Community\VC\Tools\MSVC\14.29.30133\atlmfc\include\afxwin2.inl
; File D:\git\src\IBK\IBK_DRFN\ProjSrc\SrcChartEx\ChartOCX\ChartToolBar\ScrollBarEx.cpp
; File C:\Program Files (x86)\Microsoft Visual Studio\2019\Community\VC\Tools\MSVC\14.29.30133\atlmfc\include\afxwin2.inl
; File D:\git\src\IBK\IBK_DRFN\ProjSrc\SrcChartEx\ChartOCX\ChartToolBar\ScrollBarEx.cpp
;	COMDAT ?OnSetFocus@CScrollBarEx@@QAEXPAVCWnd@@@Z
_TEXT	SEGMENT
_pOldWnd$ = 8						; size = 4
?OnSetFocus@CScrollBarEx@@QAEXPAVCWnd@@@Z PROC		; CScrollBarEx::OnSetFocus, COMDAT
; _this$ = ecx

; 328  : {

  00000	55		 push	 ebp
  00001	8b ec		 mov	 ebp, esp
  00003	56		 push	 esi

; 329  : 	CScrollBarNew::OnSetFocus(pOldWnd);

  00004	ff 75 08	 push	 DWORD PTR _pOldWnd$[ebp]
  00007	8b f1		 mov	 esi, ecx
  00009	e8 00 00 00 00	 call	 ?OnSetFocus@CWnd@@IAEXPAV1@@Z ; CWnd::OnSetFocus
; File C:\Program Files (x86)\Microsoft Visual Studio\2019\Community\VC\Tools\MSVC\14.29.30133\atlmfc\include\afxwin2.inl

; 213  : 	{ ASSERT(::IsWindow(m_hWnd)); return CWnd::FromHandle(::GetParent(m_hWnd)); }

  0000e	ff 76 20	 push	 DWORD PTR [esi+32]
  00011	8b 35 00 00 00
	00		 mov	 esi, DWORD PTR __imp__GetParent@4
  00017	ff d6		 call	 esi
  00019	50		 push	 eax
  0001a	e8 00 00 00 00	 call	 ?FromHandle@CWnd@@SGPAV1@PAUHWND__@@@Z ; CWnd::FromHandle
; File D:\git\src\IBK\IBK_DRFN\ProjSrc\SrcChartEx\ChartOCX\ChartToolBar\ScrollBarEx.cpp

; 336  : 	if( pParent)

  0001f	85 c0		 test	 eax, eax
  00021	74 16		 je	 SHORT $LN3@OnSetFocus
; File C:\Program Files (x86)\Microsoft Visual Studio\2019\Community\VC\Tools\MSVC\14.29.30133\atlmfc\include\afxwin2.inl

; 213  : 	{ ASSERT(::IsWindow(m_hWnd)); return CWnd::FromHandle(::GetParent(m_hWnd)); }

  00023	ff 70 20	 push	 DWORD PTR [eax+32]
  00026	ff d6		 call	 esi
  00028	50		 push	 eax
  00029	e8 00 00 00 00	 call	 ?FromHandle@CWnd@@SGPAV1@PAUHWND__@@@Z ; CWnd::FromHandle
; File D:\git\src\IBK\IBK_DRFN\ProjSrc\SrcChartEx\ChartOCX\ChartToolBar\ScrollBarEx.cpp

; 339  : 		if( pParent) pParent->SetFocus();	// Getting Chart OCX

  0002e	85 c0		 test	 eax, eax
  00030	74 07		 je	 SHORT $LN3@OnSetFocus
  00032	8b c8		 mov	 ecx, eax
  00034	e8 00 00 00 00	 call	 ?SetFocus@CWnd@@QAEPAV1@XZ ; CWnd::SetFocus
$LN3@OnSetFocus:
  00039	5e		 pop	 esi

; 340  : 	}
; 341  : }

  0003a	5d		 pop	 ebp
  0003b	c2 04 00	 ret	 4
?OnSetFocus@CScrollBarEx@@QAEXPAVCWnd@@@Z ENDP		; CScrollBarEx::OnSetFocus
_TEXT	ENDS
; Function compile flags: /Ogtp
; File D:\git\src\IBK\IBK_DRFN\ProjSrc\SrcChartEx\ChartOCX\ChartToolBar\ScrollBarEx.cpp
; File C:\Program Files (x86)\Microsoft Visual Studio\2019\Community\VC\Tools\MSVC\14.29.30133\atlmfc\include\afxwin2.inl
; File D:\git\src\IBK\IBK_DRFN\ProjSrc\SrcChartEx\ChartOCX\ChartToolBar\ScrollBarEx.cpp
; File C:\Program Files (x86)\Microsoft Visual Studio\2019\Community\VC\Tools\MSVC\14.29.30133\atlmfc\include\afxwin2.inl
; File D:\git\src\IBK\IBK_DRFN\ProjSrc\SrcChartEx\ChartOCX\ChartToolBar\ScrollBarEx.cpp
; File C:\Program Files (x86)\Microsoft Visual Studio\2019\Community\VC\Tools\MSVC\14.29.30133\atlmfc\include\afxwin2.inl
; File D:\git\src\IBK\IBK_DRFN\ProjSrc\SrcChartEx\ChartOCX\ChartToolBar\ScrollBarEx.cpp
;	COMDAT ?OnLButtonDown@CScrollBarEx@@QAEXIVCPoint@@@Z
_TEXT	SEGMENT
_nFlags$ = 8						; size = 4
_point$ = 12						; size = 8
?OnLButtonDown@CScrollBarEx@@QAEXIVCPoint@@@Z PROC	; CScrollBarEx::OnLButtonDown, COMDAT
; _this$ = ecx

; 314  : {

  00000	56		 push	 esi
  00001	8b f1		 mov	 esi, ecx
; File C:\Program Files (x86)\Microsoft Visual Studio\2019\Community\VC\Tools\MSVC\14.29.30133\atlmfc\include\afxwin2.inl

; 213  : 	{ ASSERT(::IsWindow(m_hWnd)); return CWnd::FromHandle(::GetParent(m_hWnd)); }

  00003	ff 76 20	 push	 DWORD PTR [esi+32]
  00006	ff 15 00 00 00
	00		 call	 DWORD PTR __imp__GetParent@4
  0000c	50		 push	 eax
  0000d	e8 00 00 00 00	 call	 ?FromHandle@CWnd@@SGPAV1@PAUHWND__@@@Z ; CWnd::FromHandle
; File D:\git\src\IBK\IBK_DRFN\ProjSrc\SrcChartEx\ChartOCX\ChartToolBar\ScrollBarEx.cpp

; 318  : 	if( pParent)

  00012	85 c0		 test	 eax, eax
  00014	74 1a		 je	 SHORT $LN3@OnLButtonD
; File C:\Program Files (x86)\Microsoft Visual Studio\2019\Community\VC\Tools\MSVC\14.29.30133\atlmfc\include\afxwin2.inl

; 213  : 	{ ASSERT(::IsWindow(m_hWnd)); return CWnd::FromHandle(::GetParent(m_hWnd)); }

  00016	ff 70 20	 push	 DWORD PTR [eax+32]
  00019	ff 15 00 00 00
	00		 call	 DWORD PTR __imp__GetParent@4
  0001f	50		 push	 eax
  00020	e8 00 00 00 00	 call	 ?FromHandle@CWnd@@SGPAV1@PAUHWND__@@@Z ; CWnd::FromHandle
; File D:\git\src\IBK\IBK_DRFN\ProjSrc\SrcChartEx\ChartOCX\ChartToolBar\ScrollBarEx.cpp

; 321  : 		if( pParent) pParent->SetFocus();	// Getting Chart OCX

  00025	85 c0		 test	 eax, eax
  00027	74 07		 je	 SHORT $LN3@OnLButtonD
  00029	8b c8		 mov	 ecx, eax
  0002b	e8 00 00 00 00	 call	 ?SetFocus@CWnd@@QAEPAV1@XZ ; CWnd::SetFocus
$LN3@OnLButtonD:
; File C:\Program Files (x86)\Microsoft Visual Studio\2019\Community\VC\Tools\MSVC\14.29.30133\atlmfc\include\afxwin2.inl

; 432  : 	{ Default(); }

  00030	8b ce		 mov	 ecx, esi
  00032	e8 00 00 00 00	 call	 ?Default@CWnd@@IAEJXZ	; CWnd::Default
  00037	5e		 pop	 esi
; File D:\git\src\IBK\IBK_DRFN\ProjSrc\SrcChartEx\ChartOCX\ChartToolBar\ScrollBarEx.cpp

; 325  : }

  00038	c2 0c 00	 ret	 12			; 0000000cH
?OnLButtonDown@CScrollBarEx@@QAEXIVCPoint@@@Z ENDP	; CScrollBarEx::OnLButtonDown
_TEXT	ENDS
; Function compile flags: /Ogtp
; File D:\git\src\IBK\IBK_DRFN\ProjSrc\SrcChartEx\ChartOCX\ChartToolBar\ScrollBarEx.cpp
; File C:\Program Files (x86)\Microsoft Visual Studio\2019\Community\VC\Tools\MSVC\14.29.30133\atlmfc\include\afxwin2.inl
; File D:\git\src\IBK\IBK_DRFN\ProjSrc\SrcChartEx\ChartOCX\ChartToolBar\ScrollBarEx.cpp
;	COMDAT ?OnHScroll@CScrollBarEx@@QAEXIIPAVCScrollBar@@@Z
_TEXT	SEGMENT
_nSBCode$ = 8						; size = 4
_nPos$ = 12						; size = 4
_pScrollBar$ = 16					; size = 4
?OnHScroll@CScrollBarEx@@QAEXIIPAVCScrollBar@@@Z PROC	; CScrollBarEx::OnHScroll, COMDAT
; _this$ = ecx

; 182  : {	

  00000	55		 push	 ebp
  00001	8b ec		 mov	 ebp, esp

; 183  : 	int nScrollValue = 0;
; 184  : 	switch( nSBCode)

  00003	8b 45 08	 mov	 eax, DWORD PTR _nSBCode$[ebp]
  00006	57		 push	 edi
  00007	8b f9		 mov	 edi, ecx
  00009	83 f8 05	 cmp	 eax, 5
  0000c	0f 87 74 01 00
	00		 ja	 $LN16@OnHScroll
  00012	53		 push	 ebx
  00013	56		 push	 esi
  00014	ff 24 85 00 00
	00 00		 jmp	 DWORD PTR $LN28@OnHScroll[eax*4]
$LN4@OnHScroll:

; 185  : 	{
; 186  : 	case SB_LINELEFT:	nScrollValue = -1;
; 187  : 						if( m_pParent->GetReverseToOcx()) nScrollValue = -nScrollValue;

  0001b	8b 8f 80 00 00
	00		 mov	 ecx, DWORD PTR [edi+128]
  00021	83 ce ff	 or	 esi, -1
  00024	e8 00 00 00 00	 call	 ?GetReverseToOcx@CToolBarDlg@@QAEHXZ ; CToolBarDlg::GetReverseToOcx
  00029	85 c0		 test	 eax, eax
  0002b	0f 84 42 01 00
	00		 je	 $LN2@OnHScroll
  00031	be 01 00 00 00	 mov	 esi, 1

; 188  : 						break;

  00036	e9 38 01 00 00	 jmp	 $LN2@OnHScroll
$LN6@OnHScroll:

; 189  : 	case SB_LINERIGHT:	nScrollValue = +1;
; 190  : 						if( m_pParent->GetReverseToOcx()) nScrollValue = -nScrollValue;

  0003b	8b 8f 80 00 00
	00		 mov	 ecx, DWORD PTR [edi+128]
  00041	be 01 00 00 00	 mov	 esi, 1
  00046	e8 00 00 00 00	 call	 ?GetReverseToOcx@CToolBarDlg@@QAEHXZ ; CToolBarDlg::GetReverseToOcx
  0004b	85 c0		 test	 eax, eax
  0004d	0f 84 20 01 00
	00		 je	 $LN2@OnHScroll
  00053	83 ce ff	 or	 esi, -1

; 191  : 						break;

  00056	e9 18 01 00 00	 jmp	 $LN2@OnHScroll
$LN8@OnHScroll:

; 192  : 	case SB_PAGELEFT:	nScrollValue = -m_nPageDataCount;

  0005b	8b b7 8c 00 00
	00		 mov	 esi, DWORD PTR [edi+140]
  00061	8b de		 mov	 ebx, esi

; 193  : 						if( m_pParent->GetReverseToOcx()) nScrollValue = -nScrollValue;

  00063	8b 8f 80 00 00
	00		 mov	 ecx, DWORD PTR [edi+128]
  00069	f7 de		 neg	 esi
  0006b	e8 00 00 00 00	 call	 ?GetReverseToOcx@CToolBarDlg@@QAEHXZ ; CToolBarDlg::GetReverseToOcx
  00070	85 c0		 test	 eax, eax
  00072	0f 84 fb 00 00
	00		 je	 $LN2@OnHScroll
  00078	8b f3		 mov	 esi, ebx

; 194  : 						break;

  0007a	e9 f4 00 00 00	 jmp	 $LN2@OnHScroll
$LN10@OnHScroll:

; 195  : 	case SB_PAGERIGHT:	nScrollValue = +m_nPageDataCount;
; 196  : 						if( m_pParent->GetReverseToOcx()) nScrollValue = -nScrollValue;

  0007f	8b 8f 80 00 00
	00		 mov	 ecx, DWORD PTR [edi+128]
  00085	8b b7 8c 00 00
	00		 mov	 esi, DWORD PTR [edi+140]
  0008b	e8 00 00 00 00	 call	 ?GetReverseToOcx@CToolBarDlg@@QAEHXZ ; CToolBarDlg::GetReverseToOcx
  00090	85 c0		 test	 eax, eax
  00092	0f 84 db 00 00
	00		 je	 $LN2@OnHScroll
  00098	f7 de		 neg	 esi

; 197  : 						break;

  0009a	e9 d4 00 00 00	 jmp	 $LN2@OnHScroll
$LN12@OnHScroll:
; File C:\Program Files (x86)\Microsoft Visual Studio\2019\Community\VC\Tools\MSVC\14.29.30133\atlmfc\include\afxwin2.inl

; 952  : 	{ ASSERT(::IsWindow(m_hWnd)); return ::GetScrollPos(m_hWnd, SB_CTL); }

  0009f	6a 02		 push	 2
  000a1	ff 77 20	 push	 DWORD PTR [edi+32]
  000a4	ff 15 00 00 00
	00		 call	 DWORD PTR __imp__GetScrollPos@8
  000aa	66 0f 6e 87 88
	00 00 00	 movd	 xmm0, DWORD PTR [edi+136]
; File D:\git\src\IBK\IBK_DRFN\ProjSrc\SrcChartEx\ChartOCX\ChartToolBar\ScrollBarEx.cpp

; 198  : 	case SB_THUMBPOSITION:	nScrollValue = CMath::Round( ( double( CScrollBarNew::GetScrollPos( FALSE)) * double( m_nTotalDataCount)) / double( m_nScrollWidth));

  000b2	83 ec 08	 sub	 esp, 8
  000b5	f3 0f e6 c0	 cvtdq2pd xmm0, xmm0
  000b9	66 0f 6e c8	 movd	 xmm1, eax
  000bd	f3 0f e6 c9	 cvtdq2pd xmm1, xmm1
  000c1	f2 0f 59 c8	 mulsd	 xmm1, xmm0
  000c5	66 0f 6e 87 b0
	00 00 00	 movd	 xmm0, DWORD PTR [edi+176]
  000cd	f3 0f e6 c0	 cvtdq2pd xmm0, xmm0
  000d1	f2 0f 5e c8	 divsd	 xmm1, xmm0
  000d5	f2 0f 11 0c 24	 movsd	 QWORD PTR [esp], xmm1
  000da	e8 00 00 00 00	 call	 ?Round@CMath@@SAHN@Z	; CMath::Round

; 199  : 							if( m_pParent->GetReverseToOcx()) nScrollValue = m_nTotalDataCount - nScrollValue - m_nPageDataCount;

  000df	8b 8f 80 00 00
	00		 mov	 ecx, DWORD PTR [edi+128]
  000e5	83 c4 08	 add	 esp, 8
  000e8	8b f0		 mov	 esi, eax
  000ea	e8 00 00 00 00	 call	 ?GetReverseToOcx@CToolBarDlg@@QAEHXZ ; CToolBarDlg::GetReverseToOcx
  000ef	85 c0		 test	 eax, eax
  000f1	74 7a		 je	 SHORT $LN15@OnHScroll
  000f3	8b 8f 88 00 00
	00		 mov	 ecx, DWORD PTR [edi+136]
  000f9	2b 8f 8c 00 00
	00		 sub	 ecx, DWORD PTR [edi+140]
  000ff	2b ce		 sub	 ecx, esi
  00101	8b f1		 mov	 esi, ecx

; 200  : 							nScrollValue -= m_nPreScrollPos;
; 201  : 							break;

  00103	eb 68		 jmp	 SHORT $LN15@OnHScroll
$LN14@OnHScroll:

; 202  : 	case SB_THUMBTRACK:	nScrollValue = CMath::Round( ( ( double)( nPos) *  double( m_nTotalDataCount)) / double( m_nScrollWidth));

  00105	8b 45 0c	 mov	 eax, DWORD PTR _nPos$[ebp]
  00108	83 ec 08	 sub	 esp, 8
  0010b	66 0f 6e 87 88
	00 00 00	 movd	 xmm0, DWORD PTR [edi+136]
  00113	f3 0f e6 c0	 cvtdq2pd xmm0, xmm0
  00117	66 0f 6e c8	 movd	 xmm1, eax
  0011b	f3 0f e6 c9	 cvtdq2pd xmm1, xmm1
  0011f	c1 e8 1f	 shr	 eax, 31			; 0000001fH
  00122	f2 0f 58 0c c5
	00 00 00 00	 addsd	 xmm1, QWORD PTR __xmm@41f00000000000000000000000000000[eax*8]
  0012b	f2 0f 59 c8	 mulsd	 xmm1, xmm0
  0012f	66 0f 6e 87 b0
	00 00 00	 movd	 xmm0, DWORD PTR [edi+176]
  00137	f3 0f e6 c0	 cvtdq2pd xmm0, xmm0
  0013b	f2 0f 5e c8	 divsd	 xmm1, xmm0
  0013f	f2 0f 11 0c 24	 movsd	 QWORD PTR [esp], xmm1
  00144	e8 00 00 00 00	 call	 ?Round@CMath@@SAHN@Z	; CMath::Round

; 203  : 						if( m_pParent->GetReverseToOcx()) nScrollValue = ( m_nTotalDataCount - m_nPageDataCount) - nScrollValue;

  00149	8b 8f 80 00 00
	00		 mov	 ecx, DWORD PTR [edi+128]
  0014f	83 c4 08	 add	 esp, 8
  00152	8b f0		 mov	 esi, eax
  00154	e8 00 00 00 00	 call	 ?GetReverseToOcx@CToolBarDlg@@QAEHXZ ; CToolBarDlg::GetReverseToOcx
  00159	85 c0		 test	 eax, eax
  0015b	74 10		 je	 SHORT $LN15@OnHScroll
  0015d	8b 87 88 00 00
	00		 mov	 eax, DWORD PTR [edi+136]
  00163	2b 87 8c 00 00
	00		 sub	 eax, DWORD PTR [edi+140]
  00169	2b c6		 sub	 eax, esi
  0016b	8b f0		 mov	 esi, eax
$LN15@OnHScroll:

; 204  : 						nScrollValue -= m_nPreScrollPos;
; 205  : 						break;
; 206  : 	// (2009/1/8 - Seung-Won, Bae) Do not response to SB_ENDSCROLL. (It cause the repaint.)
; 207  : 	default:
; 208  : 		return;
; 209  : 	}//end of switch
; 210  : 	m_pIChartCtrl->ScrollTo( nScrollValue, TRUE);

  0016d	2b b7 c0 00 00
	00		 sub	 esi, DWORD PTR [edi+192]
$LN2@OnHScroll:
  00173	8b 8f bc 00 00
	00		 mov	 ecx, DWORD PTR [edi+188]
  00179	6a 01		 push	 1
  0017b	56		 push	 esi
  0017c	8b 01		 mov	 eax, DWORD PTR [ecx]
  0017e	ff 90 d8 01 00
	00		 call	 DWORD PTR [eax+472]
$LN29@OnHScroll:
  00184	5e		 pop	 esi
  00185	5b		 pop	 ebx
$LN16@OnHScroll:
  00186	5f		 pop	 edi

; 211  : }

  00187	5d		 pop	 ebp
  00188	c2 0c 00	 ret	 12			; 0000000cH
  0018b	90		 npad	 1
$LN28@OnHScroll:
  0018c	00 00 00 00	 DD	 $LN4@OnHScroll
  00190	00 00 00 00	 DD	 $LN6@OnHScroll
  00194	00 00 00 00	 DD	 $LN8@OnHScroll
  00198	00 00 00 00	 DD	 $LN10@OnHScroll
  0019c	00 00 00 00	 DD	 $LN12@OnHScroll
  001a0	00 00 00 00	 DD	 $LN14@OnHScroll
?OnHScroll@CScrollBarEx@@QAEXIIPAVCScrollBar@@@Z ENDP	; CScrollBarEx::OnHScroll
_TEXT	ENDS
; Function compile flags: /Ogtp
; File D:\git\src\IBK\IBK_DRFN\ProjSrc\SrcChartEx\ChartOCX\ChartToolBar\ScrollBarEx.cpp
;	COMDAT ??1CScrollBarEx@@UAE@XZ
_TEXT	SEGMENT
??1CScrollBarEx@@UAE@XZ PROC				; CScrollBarEx::~CScrollBarEx, COMDAT
; _this$ = ecx

; 38   : {

  00000	c7 01 00 00 00
	00		 mov	 DWORD PTR [ecx], OFFSET ??_7CScrollBarEx@@6B@
  00006	e9 00 00 00 00	 jmp	 ??1CScrollBar@@UAE@XZ	; CScrollBar::~CScrollBar
??1CScrollBarEx@@UAE@XZ ENDP				; CScrollBarEx::~CScrollBarEx
_TEXT	ENDS
; Function compile flags: /Ogtp
; File D:\git\src\IBK\IBK_DRFN\ProjSrc\SrcChartEx\ChartOCX\ChartToolBar\ScrollBarEx.cpp
; File D:\git\src\IBK\IBK_DRFN\ProjSrc\SrcChartEx\ChartOCX\ChartToolBar\ScrollBarEx.h
; File C:\Program Files (x86)\Microsoft Visual Studio\2019\Community\VC\Tools\MSVC\14.29.30133\atlmfc\include\afxwin2.inl
; File D:\git\src\IBK\IBK_DRFN\ProjSrc\SrcChartEx\ChartOCX\ChartToolBar\ScrollBarEx.h
; File C:\Program Files (x86)\Microsoft Visual Studio\2019\Community\VC\Tools\MSVC\14.29.30133\atlmfc\include\afxwin2.inl
; File D:\git\src\IBK\IBK_DRFN\ProjSrc\SrcChartEx\ChartOCX\ChartToolBar\ScrollBarEx.h
; File D:\git\src\IBK\IBK_DRFN\ProjSrc\SrcChartEx\ChartOCX\ChartToolBar\ScrollBarEx.cpp
; File C:\Program Files (x86)\Microsoft Visual Studio\2019\Community\VC\Tools\MSVC\14.29.30133\atlmfc\include\afxwin2.inl
; File D:\git\src\IBK\IBK_DRFN\ProjSrc\SrcChartEx\ChartOCX\ChartToolBar\ScrollBarEx.cpp
;	COMDAT ?SetScrollInfo@CScrollBarEx@@AAEXXZ
_TEXT	SEGMENT
_scrollPos$1$ = -36					; size = 4
_si$1 = -32						; size = 28
__$ArrayPad$ = -4					; size = 4
?SetScrollInfo@CScrollBarEx@@AAEXXZ PROC		; CScrollBarEx::SetScrollInfo, COMDAT
; _this$ = ecx

; 133  : {

  00000	55		 push	 ebp
  00001	8b ec		 mov	 ebp, esp
  00003	83 ec 24	 sub	 esp, 36			; 00000024H
  00006	a1 00 00 00 00	 mov	 eax, DWORD PTR ___security_cookie
  0000b	33 c5		 xor	 eax, ebp
  0000d	89 45 fc	 mov	 DWORD PTR __$ArrayPad$[ebp], eax
  00010	53		 push	 ebx
  00011	56		 push	 esi
  00012	8b f1		 mov	 esi, ecx
  00014	57		 push	 edi

; 134  : 	 int scrollMax, scrollPage, scrollPos, scrollTrackPos;
; 135  :  
; 136  : 	 if(m_bFullPage == true)

  00015	80 be 84 00 00
	00 01		 cmp	 BYTE PTR [esi+132], 1
  0001c	74 26		 je	 SHORT $LN24@SetScrollI

; 137  : 	 {
; 138  : 		  scrollPage = m_nScrollWidth;
; 139  : 	 }
; 140  : 	 else
; 141  : 	 {
; 142  : 	  if(m_nPageDataCount >= 1 && m_nTotalDataCount >= 1)

  0001e	8b 86 8c 00 00
	00		 mov	 eax, DWORD PTR [esi+140]
  00024	83 f8 01	 cmp	 eax, 1
  00027	7c 1b		 jl	 SHORT $LN24@SetScrollI
  00029	8b 8e 88 00 00
	00		 mov	 ecx, DWORD PTR [esi+136]
  0002f	83 f9 01	 cmp	 ecx, 1
  00032	7c 10		 jl	 SHORT $LN24@SetScrollI

; 143  : 		  scrollPage = int((m_nScrollWidth * m_nPageDataCount) / m_nTotalDataCount);

  00034	8b be b0 00 00
	00		 mov	 edi, DWORD PTR [esi+176]
  0003a	0f af c7	 imul	 eax, edi
  0003d	99		 cdq
  0003e	f7 f9		 idiv	 ecx
  00040	8b d8		 mov	 ebx, eax
  00042	eb 08		 jmp	 SHORT $LN5@SetScrollI
$LN24@SetScrollI:

; 144  : 	  else
; 145  : 		  scrollPage = m_nScrollWidth;
; 146  : 	 }
; 147  :     
; 148  : 	 scrollMax = m_nScrollWidth;
; 149  : 
; 150  : 	// (2009/5/29 - Seung-Won, Bae) Do not reset scroll position.
; 151  : 	//	 if(m_nPageDataCount == m_nTotalDataCount)
; 152  : 	//		 scrollPos = 0;
; 153  : 	//	 else
; 154  : 	//		 scrollPos = m_nScrollWidth;
; 155  : 
; 156  : 	// 20100520  m_nTotalDataCount 0  m_nPreScrollPos 0     >>
; 157  : 	//scrollPos = CMath::Round( double( m_nPreScrollPos * m_nScrollWidth)/(double)m_nTotalDataCount);
; 158  : 	if(m_nPreScrollPos == 0 || m_nScrollWidth == 0 || m_nTotalDataCount == 0) scrollPos = 0;

  00044	8b 9e b0 00 00
	00		 mov	 ebx, DWORD PTR [esi+176]
  0004a	8b fb		 mov	 edi, ebx
$LN5@SetScrollI:
  0004c	8b 86 c0 00 00
	00		 mov	 eax, DWORD PTR [esi+192]
  00052	85 c0		 test	 eax, eax
  00054	74 3a		 je	 SHORT $LN8@SetScrollI
  00056	85 ff		 test	 edi, edi
  00058	74 36		 je	 SHORT $LN8@SetScrollI
  0005a	8b 8e 88 00 00
	00		 mov	 ecx, DWORD PTR [esi+136]
  00060	85 c9		 test	 ecx, ecx
  00062	74 2c		 je	 SHORT $LN8@SetScrollI

; 159  : 	else scrollPos = CMath::Round( double( m_nPreScrollPos * m_nScrollWidth)/(double)m_nTotalDataCount);

  00064	0f af c7	 imul	 eax, edi
  00067	83 ec 08	 sub	 esp, 8
  0006a	66 0f 6e c1	 movd	 xmm0, ecx
  0006e	f3 0f e6 c0	 cvtdq2pd xmm0, xmm0
  00072	66 0f 6e c8	 movd	 xmm1, eax
  00076	f3 0f e6 c9	 cvtdq2pd xmm1, xmm1
  0007a	f2 0f 5e c8	 divsd	 xmm1, xmm0
  0007e	f2 0f 11 0c 24	 movsd	 QWORD PTR [esp], xmm1
  00083	e8 00 00 00 00	 call	 ?Round@CMath@@SAHN@Z	; CMath::Round
  00088	83 c4 08	 add	 esp, 8
  0008b	89 45 dc	 mov	 DWORD PTR _scrollPos$1$[ebp], eax
  0008e	eb 07		 jmp	 SHORT $LN7@SetScrollI
$LN8@SetScrollI:

; 144  : 	  else
; 145  : 		  scrollPage = m_nScrollWidth;
; 146  : 	 }
; 147  :     
; 148  : 	 scrollMax = m_nScrollWidth;
; 149  : 
; 150  : 	// (2009/5/29 - Seung-Won, Bae) Do not reset scroll position.
; 151  : 	//	 if(m_nPageDataCount == m_nTotalDataCount)
; 152  : 	//		 scrollPos = 0;
; 153  : 	//	 else
; 154  : 	//		 scrollPos = m_nScrollWidth;
; 155  : 
; 156  : 	// 20100520  m_nTotalDataCount 0  m_nPreScrollPos 0     >>
; 157  : 	//scrollPos = CMath::Round( double( m_nPreScrollPos * m_nScrollWidth)/(double)m_nTotalDataCount);
; 158  : 	if(m_nPreScrollPos == 0 || m_nScrollWidth == 0 || m_nTotalDataCount == 0) scrollPos = 0;

  00090	c7 45 dc 00 00
	00 00		 mov	 DWORD PTR _scrollPos$1$[ebp], 0
$LN7@SetScrollI:

; 160  : 	// 20100520  <<
; 161  : 
; 162  : 	 if(m_nTotalDataCount <= 0)

  00097	8b 86 88 00 00
	00		 mov	 eax, DWORD PTR [esi+136]
  0009d	85 c0		 test	 eax, eax
  0009f	7f 07		 jg	 SHORT $LN9@SetScrollI

; 163  : 		scrollTrackPos = 1;

  000a1	b9 01 00 00 00	 mov	 ecx, 1
  000a6	eb 2a		 jmp	 SHORT $LN10@SetScrollI
$LN9@SetScrollI:
  000a8	66 0f 6e 8e b0
	00 00 00	 movd	 xmm1, DWORD PTR [esi+176]

; 164  : 	 else
; 165  : 		scrollTrackPos = CMath::Round((double)m_nScrollWidth / (double)m_nTotalDataCount);

  000b0	83 ec 08	 sub	 esp, 8
  000b3	66 0f 6e c0	 movd	 xmm0, eax
  000b7	f3 0f e6 c9	 cvtdq2pd xmm1, xmm1
  000bb	f3 0f e6 c0	 cvtdq2pd xmm0, xmm0
  000bf	f2 0f 5e c8	 divsd	 xmm1, xmm0
  000c3	f2 0f 11 0c 24	 movsd	 QWORD PTR [esp], xmm1
  000c8	e8 00 00 00 00	 call	 ?Round@CMath@@SAHN@Z	; CMath::Round
  000cd	83 c4 08	 add	 esp, 8
  000d0	8b c8		 mov	 ecx, eax
$LN10@SetScrollI:

; 166  : 
; 167  :   	 m_ScrollInfo.cbSize = sizeof(m_ScrollInfo);		 // size of this structure
; 168  : 	 m_ScrollInfo.fMask = SIF_ALL;						 // parameters to set
; 169  : 	 m_ScrollInfo.nMin = 0;							     // minimum scrolling position
; 170  : 	 m_ScrollInfo.nMax = scrollMax;			  		     // maximum scrolling position
; 171  : 	 m_ScrollInfo.nPage = scrollPage;				     // the page size of the scroll box
; 172  : 	 m_ScrollInfo.nPos = scrollPos;						 // initial position of the scroll box

  000d2	8b 45 dc	 mov	 eax, DWORD PTR _scrollPos$1$[ebp]

; 173  : 	 m_ScrollInfo.nTrackPos = scrollTrackPos;			 // immediate position of a scroll box that the user is dragging

  000d5	89 8e ac 00 00
	00		 mov	 DWORD PTR [esi+172], ecx

; 174  : 	 CScrollBarNew::SetScrollInfo(&m_ScrollInfo, TRUE, m_pParent->GetReverseToOcx());

  000db	8b 8e 80 00 00
	00		 mov	 ecx, DWORD PTR [esi+128]
  000e1	c7 86 94 00 00
	00 1c 00 00 00	 mov	 DWORD PTR [esi+148], 28	; 0000001cH
  000eb	c7 86 98 00 00
	00 17 00 00 00	 mov	 DWORD PTR [esi+152], 23	; 00000017H
  000f5	c7 86 9c 00 00
	00 00 00 00 00	 mov	 DWORD PTR [esi+156], 0
  000ff	89 be a0 00 00
	00		 mov	 DWORD PTR [esi+160], edi
  00105	89 9e a4 00 00
	00		 mov	 DWORD PTR [esi+164], ebx
  0010b	89 86 a8 00 00
	00		 mov	 DWORD PTR [esi+168], eax
  00111	e8 00 00 00 00	 call	 ?GetReverseToOcx@CToolBarDlg@@QAEHXZ ; CToolBarDlg::GetReverseToOcx
; File D:\git\src\IBK\IBK_DRFN\ProjSrc\SrcChartEx\ChartOCX\ChartToolBar\ScrollBarEx.h

; 63   : 		if(bReverse == FALSE)

  00116	6a 01		 push	 1
  00118	85 c0		 test	 eax, eax
  0011a	75 08		 jne	 SHORT $LN14@SetScrollI
; File C:\Program Files (x86)\Microsoft Visual Studio\2019\Community\VC\Tools\MSVC\14.29.30133\atlmfc\include\afxwin2.inl

; 964  : 	{ return CWnd::SetScrollInfo(SB_CTL, lpScrollInfo, bRedraw); }

  0011c	8d 86 94 00 00
	00		 lea	 eax, DWORD PTR [esi+148]
; File D:\git\src\IBK\IBK_DRFN\ProjSrc\SrcChartEx\ChartOCX\ChartToolBar\ScrollBarEx.h

; 65   : 			return CScrollBar::SetScrollInfo(lpScrollInfo, bRedraw);

  00122	eb 44		 jmp	 SHORT $LN25@SetScrollI
$LN14@SetScrollI:

; 66   : 		}
; 67   : 		else
; 68   : 		{
; 69   : 			SCROLLINFO si = *lpScrollInfo;

  00124	0f 10 8e 94 00
	00 00		 movups	 xmm1, XMMWORD PTR [esi+148]
  0012b	8b 86 ac 00 00
	00		 mov	 eax, DWORD PTR [esi+172]
  00131	f3 0f 7e 86 a4
	00 00 00	 movq	 xmm0, QWORD PTR [esi+164]
  00139	66 0f d6 45 f0	 movq	 QWORD PTR _si$1[ebp+16], xmm0

; 71   : 			si.nPos = si.nMin - (si.nPos + si.nPage - si.nMax);			

  0013e	0f 28 c1	 movaps	 xmm0, xmm1
  00141	66 0f 73 d8 0c	 psrldq	 xmm0, 12		; 0000000cH
  00146	66 0f 7e c1	 movd	 ecx, xmm0
  0014a	0f 11 4d e0	 movups	 XMMWORD PTR _si$1[ebp], xmm1
  0014e	89 45 f8	 mov	 DWORD PTR _si$1[ebp+24], eax
  00151	2b 4d f0	 sub	 ecx, DWORD PTR _si$1[ebp+16]
  00154	2b 4d f4	 sub	 ecx, DWORD PTR _si$1[ebp+20]
  00157	66 0f 73 d9 08	 psrldq	 xmm1, 8
  0015c	66 0f 7e c8	 movd	 eax, xmm1
  00160	03 c8		 add	 ecx, eax
; File C:\Program Files (x86)\Microsoft Visual Studio\2019\Community\VC\Tools\MSVC\14.29.30133\atlmfc\include\afxwin2.inl

; 964  : 	{ return CWnd::SetScrollInfo(SB_CTL, lpScrollInfo, bRedraw); }

  00162	8d 45 e0	 lea	 eax, DWORD PTR _si$1[ebp]
; File D:\git\src\IBK\IBK_DRFN\ProjSrc\SrcChartEx\ChartOCX\ChartToolBar\ScrollBarEx.h

; 71   : 			si.nPos = si.nMin - (si.nPos + si.nPage - si.nMax);			

  00165	89 4d f4	 mov	 DWORD PTR _si$1[ebp+20], ecx
$LN25@SetScrollI:
; File D:\git\src\IBK\IBK_DRFN\ProjSrc\SrcChartEx\ChartOCX\ChartToolBar\ScrollBarEx.cpp

; 175  : 	 CScrollBarNew::SetScrollPos(m_ScrollInfo.nPos, TRUE, m_pParent->GetReverseToOcx());

  00168	50		 push	 eax
  00169	6a 02		 push	 2
  0016b	8b ce		 mov	 ecx, esi
  0016d	e8 00 00 00 00	 call	 ?SetScrollInfo@CWnd@@QAEHHPAUtagSCROLLINFO@@H@Z ; CWnd::SetScrollInfo
  00172	8b 8e 80 00 00
	00		 mov	 ecx, DWORD PTR [esi+128]
  00178	e8 00 00 00 00	 call	 ?GetReverseToOcx@CToolBarDlg@@QAEHXZ ; CToolBarDlg::GetReverseToOcx
  0017d	50		 push	 eax
  0017e	6a 01		 push	 1
  00180	ff b6 a8 00 00
	00		 push	 DWORD PTR [esi+168]
  00186	8b ce		 mov	 ecx, esi
  00188	e8 00 00 00 00	 call	 ?SetScrollPos@CScrollBarNew@@QAEHHHH@Z ; CScrollBarNew::SetScrollPos

; 176  : 	 if(this->m_hWnd != NULL) 

  0018d	8b 46 20	 mov	 eax, DWORD PTR [esi+32]
  00190	5f		 pop	 edi
  00191	5e		 pop	 esi
  00192	5b		 pop	 ebx
  00193	85 c0		 test	 eax, eax
  00195	74 0b		 je	 SHORT $LN11@SetScrollI
; File C:\Program Files (x86)\Microsoft Visual Studio\2019\Community\VC\Tools\MSVC\14.29.30133\atlmfc\include\afxwin2.inl

; 114  : 	{ ASSERT(::IsWindow(m_hWnd)); ::InvalidateRect(m_hWnd, NULL, bErase); }

  00197	6a 01		 push	 1
  00199	6a 00		 push	 0
  0019b	50		 push	 eax
  0019c	ff 15 00 00 00
	00		 call	 DWORD PTR __imp__InvalidateRect@12
$LN11@SetScrollI:
; File D:\git\src\IBK\IBK_DRFN\ProjSrc\SrcChartEx\ChartOCX\ChartToolBar\ScrollBarEx.cpp

; 178  : }

  001a2	8b 4d fc	 mov	 ecx, DWORD PTR __$ArrayPad$[ebp]
  001a5	33 cd		 xor	 ecx, ebp
  001a7	e8 00 00 00 00	 call	 @__security_check_cookie@4
  001ac	8b e5		 mov	 esp, ebp
  001ae	5d		 pop	 ebp
  001af	c3		 ret	 0
?SetScrollInfo@CScrollBarEx@@AAEXXZ ENDP		; CScrollBarEx::SetScrollInfo
_TEXT	ENDS
; Function compile flags: /Ogtp
; File D:\git\src\IBK\IBK_DRFN\ProjSrc\SrcChartEx\ChartOCX\ChartToolBar\ScrollBarEx.cpp
; File D:\git\src\IBK\IBK_DRFN\ProjSrc\SrcChartEx\ChartOCX\ChartToolBar\ScrollBarEx.h
; File C:\Program Files (x86)\Microsoft Visual Studio\2019\Community\VC\Tools\MSVC\14.29.30133\atlmfc\include\afxwin2.inl
; File D:\git\src\IBK\IBK_DRFN\ProjSrc\SrcChartEx\ChartOCX\ChartToolBar\ScrollBarEx.h
; File C:\Program Files (x86)\Microsoft Visual Studio\2019\Community\VC\Tools\MSVC\14.29.30133\atlmfc\include\afxwin2.inl
; File D:\git\src\IBK\IBK_DRFN\ProjSrc\SrcChartEx\ChartOCX\ChartToolBar\ScrollBarEx.h
; File C:\Program Files (x86)\Microsoft Visual Studio\2019\Community\VC\Tools\MSVC\14.29.30133\atlmfc\include\afxwin2.inl
; File D:\git\src\IBK\IBK_DRFN\ProjSrc\SrcChartEx\ChartOCX\ChartToolBar\ScrollBarEx.cpp
; File D:\git\src\IBK\IBK_DRFN\ProjSrc\SrcChartEx\ChartOCX\ChartToolBar\ScrollBarEx.h
; File C:\Program Files (x86)\Microsoft Visual Studio\2019\Community\VC\Tools\MSVC\14.29.30133\atlmfc\include\afxwin2.inl
; File D:\git\src\IBK\IBK_DRFN\ProjSrc\SrcChartEx\ChartOCX\ChartToolBar\ScrollBarEx.h
; File C:\Program Files (x86)\Microsoft Visual Studio\2019\Community\VC\Tools\MSVC\14.29.30133\atlmfc\include\afxwin2.inl
; File D:\git\src\IBK\IBK_DRFN\ProjSrc\SrcChartEx\ChartOCX\ChartToolBar\ScrollBarEx.h
; File C:\Program Files (x86)\Microsoft Visual Studio\2019\Community\VC\Tools\MSVC\14.29.30133\atlmfc\include\afxwin2.inl
; File D:\git\src\IBK\IBK_DRFN\ProjSrc\SrcChartEx\ChartOCX\ChartToolBar\ScrollBarEx.cpp
;	COMDAT ?UpdateZoomAndScrollInfo@CScrollBarEx@@QAEXHHH@Z
_TEXT	SEGMENT
_si$1 = -32						; size = 28
_si$2 = -32						; size = 28
__$ArrayPad$ = -4					; size = 4
_p_nFullRange$ = 8					; size = 4
_p_nStartPos$ = 12					; size = 4
_p_nViewCount$ = 16					; size = 4
?UpdateZoomAndScrollInfo@CScrollBarEx@@QAEXHHH@Z PROC	; CScrollBarEx::UpdateZoomAndScrollInfo, COMDAT
; _this$ = ecx

; 345  : {

  00000	55		 push	 ebp
  00001	8b ec		 mov	 ebp, esp
  00003	83 ec 20	 sub	 esp, 32			; 00000020H
  00006	a1 00 00 00 00	 mov	 eax, DWORD PTR ___security_cookie
  0000b	33 c5		 xor	 eax, ebp
  0000d	89 45 fc	 mov	 DWORD PTR __$ArrayPad$[ebp], eax

; 346  : 	m_nPageDataCount = p_nViewCount;
; 347  : 	m_nTotalDataCount = p_nFullRange;
; 348  : 	m_nPreScrollPos = p_nStartPos;

  00010	8b 45 0c	 mov	 eax, DWORD PTR _p_nStartPos$[ebp]
  00013	8b 55 08	 mov	 edx, DWORD PTR _p_nFullRange$[ebp]
  00016	53		 push	 ebx
  00017	56		 push	 esi
  00018	8b f1		 mov	 esi, ecx
  0001a	8b 4d 10	 mov	 ecx, DWORD PTR _p_nViewCount$[ebp]
  0001d	57		 push	 edi
  0001e	89 86 c0 00 00
	00		 mov	 DWORD PTR [esi+192], eax

; 349  : 	m_nDataEnd = p_nStartPos + p_nViewCount - 1;

  00024	8d be 94 00 00
	00		 lea	 edi, DWORD PTR [esi+148]
  0002a	48		 dec	 eax
  0002b	89 8e 8c 00 00
	00		 mov	 DWORD PTR [esi+140], ecx
  00031	03 c1		 add	 eax, ecx
  00033	89 96 88 00 00
	00		 mov	 DWORD PTR [esi+136], edx
  00039	89 86 90 00 00
	00		 mov	 DWORD PTR [esi+144], eax

; 350  : 	if( 0 < m_nTotalDataCount)

  0003f	85 d2		 test	 edx, edx
  00041	0f 8e 43 01 00
	00		 jle	 $LN2@UpdateZoom

; 351  : 	{
; 352  : 		m_ScrollInfo.nPage = CMath::Round(((double)m_nScrollWidth * (double)m_nPageDataCount) / (double)m_nTotalDataCount);					// the page size of the scroll box

  00047	66 0f 6e 86 b0
	00 00 00	 movd	 xmm0, DWORD PTR [esi+176]
  0004f	83 ec 08	 sub	 esp, 8
  00052	66 0f 6e c9	 movd	 xmm1, ecx
  00056	f3 0f e6 c0	 cvtdq2pd xmm0, xmm0
  0005a	f3 0f e6 c9	 cvtdq2pd xmm1, xmm1
  0005e	f2 0f 59 c8	 mulsd	 xmm1, xmm0
  00062	66 0f 6e c2	 movd	 xmm0, edx
  00066	f3 0f e6 c0	 cvtdq2pd xmm0, xmm0
  0006a	f2 0f 5e c8	 divsd	 xmm1, xmm0
  0006e	f2 0f 11 0c 24	 movsd	 QWORD PTR [esp], xmm1
  00073	e8 00 00 00 00	 call	 ?Round@CMath@@SAHN@Z	; CMath::Round
  00078	66 0f 6e 8e c0
	00 00 00	 movd	 xmm1, DWORD PTR [esi+192]
  00080	66 0f 6e 86 b0
	00 00 00	 movd	 xmm0, DWORD PTR [esi+176]

; 353  : 		m_ScrollInfo.nPos = CMath::Round(((double)m_nScrollWidth * (double)m_nPreScrollPos) / (double)m_nTotalDataCount);					// initial position of the scroll box

  00088	f3 0f e6 c0	 cvtdq2pd xmm0, xmm0
  0008c	89 86 a4 00 00
	00		 mov	 DWORD PTR [esi+164], eax
  00092	f3 0f e6 c9	 cvtdq2pd xmm1, xmm1
  00096	f2 0f 59 c8	 mulsd	 xmm1, xmm0
  0009a	66 0f 6e 86 88
	00 00 00	 movd	 xmm0, DWORD PTR [esi+136]
  000a2	f3 0f e6 c0	 cvtdq2pd xmm0, xmm0
  000a6	f2 0f 5e c8	 divsd	 xmm1, xmm0
  000aa	f2 0f 11 0c 24	 movsd	 QWORD PTR [esp], xmm1
  000af	e8 00 00 00 00	 call	 ?Round@CMath@@SAHN@Z	; CMath::Round
  000b4	66 0f 6e 8e b0
	00 00 00	 movd	 xmm1, DWORD PTR [esi+176]
  000bc	66 0f 6e 86 88
	00 00 00	 movd	 xmm0, DWORD PTR [esi+136]

; 354  : 		m_ScrollInfo.nTrackPos = CMath::Round((double)m_nScrollWidth / (double)m_nTotalDataCount);				// immediate position of a scroll box that the user is dragging

  000c4	f3 0f e6 c9	 cvtdq2pd xmm1, xmm1
  000c8	89 86 a8 00 00
	00		 mov	 DWORD PTR [esi+168], eax
  000ce	f3 0f e6 c0	 cvtdq2pd xmm0, xmm0
  000d2	f2 0f 5e c8	 divsd	 xmm1, xmm0
  000d6	f2 0f 11 0c 24	 movsd	 QWORD PTR [esp], xmm1
  000db	e8 00 00 00 00	 call	 ?Round@CMath@@SAHN@Z	; CMath::Round

; 355  : 		CScrollBarNew::SetScrollInfo( &m_ScrollInfo, TRUE, m_pParent->GetReverseToOcx());

  000e0	8b 8e 80 00 00
	00		 mov	 ecx, DWORD PTR [esi+128]
  000e6	83 c4 08	 add	 esp, 8
  000e9	89 86 ac 00 00
	00		 mov	 DWORD PTR [esi+172], eax
  000ef	e8 00 00 00 00	 call	 ?GetReverseToOcx@CToolBarDlg@@QAEHXZ ; CToolBarDlg::GetReverseToOcx
; File D:\git\src\IBK\IBK_DRFN\ProjSrc\SrcChartEx\ChartOCX\ChartToolBar\ScrollBarEx.h

; 63   : 		if(bReverse == FALSE)

  000f4	6a 01		 push	 1
  000f6	85 c0		 test	 eax, eax
  000f8	75 03		 jne	 SHORT $LN6@UpdateZoom
; File C:\Program Files (x86)\Microsoft Visual Studio\2019\Community\VC\Tools\MSVC\14.29.30133\atlmfc\include\afxwin2.inl

; 964  : 	{ return CWnd::SetScrollInfo(SB_CTL, lpScrollInfo, bRedraw); }

  000fa	57		 push	 edi
; File D:\git\src\IBK\IBK_DRFN\ProjSrc\SrcChartEx\ChartOCX\ChartToolBar\ScrollBarEx.h

; 65   : 			return CScrollBar::SetScrollInfo(lpScrollInfo, bRedraw);

  000fb	eb 3b		 jmp	 SHORT $LN21@UpdateZoom
$LN6@UpdateZoom:

; 66   : 		}
; 67   : 		else
; 68   : 		{
; 69   : 			SCROLLINFO si = *lpScrollInfo;

  000fd	0f 10 0f	 movups	 xmm1, XMMWORD PTR [edi]
  00100	8b 47 18	 mov	 eax, DWORD PTR [edi+24]
  00103	f3 0f 7e 47 10	 movq	 xmm0, QWORD PTR [edi+16]
  00108	66 0f d6 45 f0	 movq	 QWORD PTR _si$2[ebp+16], xmm0

; 71   : 			si.nPos = si.nMin - (si.nPos + si.nPage - si.nMax);			

  0010d	0f 28 c1	 movaps	 xmm0, xmm1
  00110	66 0f 73 d8 0c	 psrldq	 xmm0, 12		; 0000000cH
  00115	66 0f 7e c1	 movd	 ecx, xmm0
  00119	0f 11 4d e0	 movups	 XMMWORD PTR _si$2[ebp], xmm1
  0011d	89 45 f8	 mov	 DWORD PTR _si$2[ebp+24], eax
  00120	2b 4d f0	 sub	 ecx, DWORD PTR _si$2[ebp+16]
  00123	2b 4d f4	 sub	 ecx, DWORD PTR _si$2[ebp+20]
  00126	66 0f 73 d9 08	 psrldq	 xmm1, 8
  0012b	66 0f 7e c8	 movd	 eax, xmm1
  0012f	03 c8		 add	 ecx, eax
; File C:\Program Files (x86)\Microsoft Visual Studio\2019\Community\VC\Tools\MSVC\14.29.30133\atlmfc\include\afxwin2.inl

; 964  : 	{ return CWnd::SetScrollInfo(SB_CTL, lpScrollInfo, bRedraw); }

  00131	8d 45 e0	 lea	 eax, DWORD PTR _si$2[ebp]
; File D:\git\src\IBK\IBK_DRFN\ProjSrc\SrcChartEx\ChartOCX\ChartToolBar\ScrollBarEx.h

; 71   : 			si.nPos = si.nMin - (si.nPos + si.nPage - si.nMax);			

  00134	89 4d f4	 mov	 DWORD PTR _si$2[ebp+20], ecx
; File C:\Program Files (x86)\Microsoft Visual Studio\2019\Community\VC\Tools\MSVC\14.29.30133\atlmfc\include\afxwin2.inl

; 964  : 	{ return CWnd::SetScrollInfo(SB_CTL, lpScrollInfo, bRedraw); }

  00137	50		 push	 eax
$LN21@UpdateZoom:
; File D:\git\src\IBK\IBK_DRFN\ProjSrc\SrcChartEx\ChartOCX\ChartToolBar\ScrollBarEx.cpp

; 356  : 		CScrollBarNew::SetScrollPos( CMath::Round( double( m_nPreScrollPos * m_nScrollWidth)/(double)m_nTotalDataCount), TRUE, m_pParent->GetReverseToOcx());

  00138	6a 02		 push	 2
  0013a	8b ce		 mov	 ecx, esi
  0013c	e8 00 00 00 00	 call	 ?SetScrollInfo@CWnd@@QAEHHPAUtagSCROLLINFO@@H@Z ; CWnd::SetScrollInfo
  00141	8b 8e 80 00 00
	00		 mov	 ecx, DWORD PTR [esi+128]
  00147	e8 00 00 00 00	 call	 ?GetReverseToOcx@CToolBarDlg@@QAEHXZ ; CToolBarDlg::GetReverseToOcx
  0014c	66 0f 6e 86 88
	00 00 00	 movd	 xmm0, DWORD PTR [esi+136]
  00154	8b d8		 mov	 ebx, eax
  00156	8b 86 c0 00 00
	00		 mov	 eax, DWORD PTR [esi+192]
  0015c	83 ec 08	 sub	 esp, 8
  0015f	0f af 86 b0 00
	00 00		 imul	 eax, DWORD PTR [esi+176]
  00166	f3 0f e6 c0	 cvtdq2pd xmm0, xmm0
  0016a	66 0f 6e c8	 movd	 xmm1, eax
  0016e	f3 0f e6 c9	 cvtdq2pd xmm1, xmm1
  00172	f2 0f 5e c8	 divsd	 xmm1, xmm0
  00176	f2 0f 11 0c 24	 movsd	 QWORD PTR [esp], xmm1
  0017b	e8 00 00 00 00	 call	 ?Round@CMath@@SAHN@Z	; CMath::Round
  00180	83 c4 08	 add	 esp, 8
  00183	8b f8		 mov	 edi, eax

; 357  : 	}

  00185	e9 85 00 00 00	 jmp	 $LN3@UpdateZoom
$LN2@UpdateZoom:

; 358  : 	else
; 359  : 	{
; 360  : 		m_ScrollInfo.nPage = 1;					// the page size of the scroll box
; 361  : 		m_ScrollInfo.nPos = 0;					// initial position of the scroll box
; 362  : 		m_ScrollInfo.nTrackPos = 0;				// immediate position of a scroll box that the user is dragging
; 363  : 		CScrollBarNew::SetScrollInfo( &m_ScrollInfo, TRUE, m_pParent->GetReverseToOcx());

  0018a	8b 8e 80 00 00
	00		 mov	 ecx, DWORD PTR [esi+128]
  00190	c7 86 a4 00 00
	00 01 00 00 00	 mov	 DWORD PTR [esi+164], 1
  0019a	c7 86 a8 00 00
	00 00 00 00 00	 mov	 DWORD PTR [esi+168], 0
  001a4	c7 86 ac 00 00
	00 00 00 00 00	 mov	 DWORD PTR [esi+172], 0
  001ae	e8 00 00 00 00	 call	 ?GetReverseToOcx@CToolBarDlg@@QAEHXZ ; CToolBarDlg::GetReverseToOcx
; File D:\git\src\IBK\IBK_DRFN\ProjSrc\SrcChartEx\ChartOCX\ChartToolBar\ScrollBarEx.h

; 63   : 		if(bReverse == FALSE)

  001b3	6a 01		 push	 1
  001b5	85 c0		 test	 eax, eax
  001b7	75 03		 jne	 SHORT $LN14@UpdateZoom
; File C:\Program Files (x86)\Microsoft Visual Studio\2019\Community\VC\Tools\MSVC\14.29.30133\atlmfc\include\afxwin2.inl

; 964  : 	{ return CWnd::SetScrollInfo(SB_CTL, lpScrollInfo, bRedraw); }

  001b9	57		 push	 edi
; File D:\git\src\IBK\IBK_DRFN\ProjSrc\SrcChartEx\ChartOCX\ChartToolBar\ScrollBarEx.h

; 65   : 			return CScrollBar::SetScrollInfo(lpScrollInfo, bRedraw);

  001ba	eb 3b		 jmp	 SHORT $LN22@UpdateZoom
$LN14@UpdateZoom:

; 66   : 		}
; 67   : 		else
; 68   : 		{
; 69   : 			SCROLLINFO si = *lpScrollInfo;

  001bc	0f 10 0f	 movups	 xmm1, XMMWORD PTR [edi]
  001bf	8b 47 18	 mov	 eax, DWORD PTR [edi+24]
  001c2	f3 0f 7e 47 10	 movq	 xmm0, QWORD PTR [edi+16]
  001c7	66 0f d6 45 f0	 movq	 QWORD PTR _si$1[ebp+16], xmm0

; 71   : 			si.nPos = si.nMin - (si.nPos + si.nPage - si.nMax);			

  001cc	0f 28 c1	 movaps	 xmm0, xmm1
  001cf	66 0f 73 d8 0c	 psrldq	 xmm0, 12		; 0000000cH
  001d4	66 0f 7e c1	 movd	 ecx, xmm0
  001d8	0f 11 4d e0	 movups	 XMMWORD PTR _si$1[ebp], xmm1
  001dc	89 45 f8	 mov	 DWORD PTR _si$1[ebp+24], eax
  001df	2b 4d f0	 sub	 ecx, DWORD PTR _si$1[ebp+16]
  001e2	2b 4d f4	 sub	 ecx, DWORD PTR _si$1[ebp+20]
  001e5	66 0f 73 d9 08	 psrldq	 xmm1, 8
  001ea	66 0f 7e c8	 movd	 eax, xmm1
  001ee	03 c8		 add	 ecx, eax
; File C:\Program Files (x86)\Microsoft Visual Studio\2019\Community\VC\Tools\MSVC\14.29.30133\atlmfc\include\afxwin2.inl

; 964  : 	{ return CWnd::SetScrollInfo(SB_CTL, lpScrollInfo, bRedraw); }

  001f0	8d 45 e0	 lea	 eax, DWORD PTR _si$1[ebp]
; File D:\git\src\IBK\IBK_DRFN\ProjSrc\SrcChartEx\ChartOCX\ChartToolBar\ScrollBarEx.h

; 71   : 			si.nPos = si.nMin - (si.nPos + si.nPage - si.nMax);			

  001f3	89 4d f4	 mov	 DWORD PTR _si$1[ebp+20], ecx
; File C:\Program Files (x86)\Microsoft Visual Studio\2019\Community\VC\Tools\MSVC\14.29.30133\atlmfc\include\afxwin2.inl

; 964  : 	{ return CWnd::SetScrollInfo(SB_CTL, lpScrollInfo, bRedraw); }

  001f6	50		 push	 eax
$LN22@UpdateZoom:
; File D:\git\src\IBK\IBK_DRFN\ProjSrc\SrcChartEx\ChartOCX\ChartToolBar\ScrollBarEx.cpp

; 364  : 		CScrollBarNew::SetScrollPos( 0, TRUE, m_pParent->GetReverseToOcx());

  001f7	6a 02		 push	 2
  001f9	8b ce		 mov	 ecx, esi
  001fb	e8 00 00 00 00	 call	 ?SetScrollInfo@CWnd@@QAEHHPAUtagSCROLLINFO@@H@Z ; CWnd::SetScrollInfo
  00200	8b 8e 80 00 00
	00		 mov	 ecx, DWORD PTR [esi+128]
  00206	33 ff		 xor	 edi, edi
  00208	e8 00 00 00 00	 call	 ?GetReverseToOcx@CToolBarDlg@@QAEHXZ ; CToolBarDlg::GetReverseToOcx
  0020d	8b d8		 mov	 ebx, eax
$LN3@UpdateZoom:

; 365  : 	}
; 366  : }

  0020f	53		 push	 ebx
  00210	6a 01		 push	 1
  00212	57		 push	 edi
  00213	8b ce		 mov	 ecx, esi
  00215	e8 00 00 00 00	 call	 ?SetScrollPos@CScrollBarNew@@QAEHHHH@Z ; CScrollBarNew::SetScrollPos
  0021a	8b 4d fc	 mov	 ecx, DWORD PTR __$ArrayPad$[ebp]
  0021d	5f		 pop	 edi
  0021e	5e		 pop	 esi
  0021f	33 cd		 xor	 ecx, ebp
  00221	5b		 pop	 ebx
  00222	e8 00 00 00 00	 call	 @__security_check_cookie@4
  00227	8b e5		 mov	 esp, ebp
  00229	5d		 pop	 ebp
  0022a	c2 0c 00	 ret	 12			; 0000000cH
?UpdateZoomAndScrollInfo@CScrollBarEx@@QAEXHHH@Z ENDP	; CScrollBarEx::UpdateZoomAndScrollInfo
_TEXT	ENDS
; Function compile flags: /Ogtp
; File D:\git\src\IBK\IBK_DRFN\ProjSrc\SrcChartEx\ChartOCX\ChartToolBar\ScrollBarEx.cpp
;	COMDAT ?GetTotalDataCount@CScrollBarEx@@QAEHXZ
_TEXT	SEGMENT
?GetTotalDataCount@CScrollBarEx@@QAEHXZ PROC		; CScrollBarEx::GetTotalDataCount, COMDAT
; _this$ = ecx

; 295  : 	return m_nTotalDataCount;

  00000	8b 81 88 00 00
	00		 mov	 eax, DWORD PTR [ecx+136]

; 296  : }

  00006	c3		 ret	 0
?GetTotalDataCount@CScrollBarEx@@QAEHXZ ENDP		; CScrollBarEx::GetTotalDataCount
_TEXT	ENDS
; Function compile flags: /Ogtp
; File D:\git\src\IBK\IBK_DRFN\ProjSrc\SrcChartEx\ChartOCX\ChartToolBar\ScrollBarEx.cpp
;	COMDAT ?GetDataStartEnd@CScrollBarEx@@QAEXAAH0@Z
_TEXT	SEGMENT
_nDataStart$ = 8					; size = 4
_nDataEnd$ = 12						; size = 4
?GetDataStartEnd@CScrollBarEx@@QAEXAAH0@Z PROC		; CScrollBarEx::GetDataStartEnd, COMDAT
; _this$ = ecx

; 214  : {

  00000	55		 push	 ebp
  00001	8b ec		 mov	 ebp, esp

; 215  : 	nDataStart = m_nPreScrollPos;

  00003	8b 45 08	 mov	 eax, DWORD PTR _nDataStart$[ebp]
  00006	8b 91 c0 00 00
	00		 mov	 edx, DWORD PTR [ecx+192]
  0000c	89 10		 mov	 DWORD PTR [eax], edx

; 216  : 	nDataEnd = m_nDataEnd;

  0000e	8b 45 0c	 mov	 eax, DWORD PTR _nDataEnd$[ebp]
  00011	8b 89 90 00 00
	00		 mov	 ecx, DWORD PTR [ecx+144]
  00017	89 08		 mov	 DWORD PTR [eax], ecx

; 217  : }

  00019	5d		 pop	 ebp
  0001a	c2 08 00	 ret	 8
?GetDataStartEnd@CScrollBarEx@@QAEXAAH0@Z ENDP		; CScrollBarEx::GetDataStartEnd
_TEXT	ENDS
; Function compile flags: /Ogtp
; File D:\git\src\IBK\IBK_DRFN\ProjSrc\SrcChartEx\ChartOCX\ChartToolBar\ScrollBarEx.cpp
;	COMDAT ?SetScrollBarWidth@CScrollBarEx@@QAEXH@Z
_TEXT	SEGMENT
_nWidth$ = 8						; size = 4
?SetScrollBarWidth@CScrollBarEx@@QAEXH@Z PROC		; CScrollBarEx::SetScrollBarWidth, COMDAT
; _this$ = ecx

; 300  : {

  00000	55		 push	 ebp
  00001	8b ec		 mov	 ebp, esp

; 301  : 	m_nScrollWidth = nWidth;

  00003	8b 45 08	 mov	 eax, DWORD PTR _nWidth$[ebp]
  00006	89 81 b0 00 00
	00		 mov	 DWORD PTR [ecx+176], eax

; 302  : 	SetScrollInfo();

  0000c	e8 00 00 00 00	 call	 ?SetScrollInfo@CScrollBarEx@@AAEXXZ ; CScrollBarEx::SetScrollInfo

; 303  : }

  00011	5d		 pop	 ebp
  00012	c2 04 00	 ret	 4
?SetScrollBarWidth@CScrollBarEx@@QAEXH@Z ENDP		; CScrollBarEx::SetScrollBarWidth
_TEXT	ENDS
; Function compile flags: /Ogtp
; File D:\git\src\IBK\IBK_DRFN\ProjSrc\SrcChartEx\ChartOCX\ChartToolBar\ScrollBarEx.cpp
; File D:\git\src\IBK\IBK_DRFN\ProjSrc\SrcChartEx\ChartOCX\ChartToolBar\ScrollBarEx.h
; File C:\Program Files (x86)\Microsoft Visual Studio\2019\Community\VC\Tools\MSVC\14.29.30133\atlmfc\include\afxwin2.inl
; File D:\git\src\IBK\IBK_DRFN\ProjSrc\SrcChartEx\ChartOCX\ChartToolBar\ScrollBarEx.h
; File C:\Program Files (x86)\Microsoft Visual Studio\2019\Community\VC\Tools\MSVC\14.29.30133\atlmfc\include\afxwin2.inl
; File D:\git\src\IBK\IBK_DRFN\ProjSrc\SrcChartEx\ChartOCX\ChartToolBar\ScrollBarEx.h
; File C:\Program Files (x86)\Microsoft Visual Studio\2019\Community\VC\Tools\MSVC\14.29.30133\atlmfc\include\afxwin2.inl
; File D:\git\src\IBK\IBK_DRFN\ProjSrc\SrcChartEx\ChartOCX\ChartToolBar\ScrollBarEx.cpp
;	COMDAT ?SetScrollPos@CScrollBarEx@@QAEXXZ
_TEXT	SEGMENT
_si$1 = -32						; size = 28
__$ArrayPad$ = -4					; size = 4
?SetScrollPos@CScrollBarEx@@QAEXXZ PROC			; CScrollBarEx::SetScrollPos, COMDAT
; _this$ = ecx

; 119  : {

  00000	55		 push	 ebp
  00001	8b ec		 mov	 ebp, esp
  00003	83 ec 20	 sub	 esp, 32			; 00000020H
  00006	a1 00 00 00 00	 mov	 eax, DWORD PTR ___security_cookie
  0000b	33 c5		 xor	 eax, ebp
  0000d	89 45 fc	 mov	 DWORD PTR __$ArrayPad$[ebp], eax
  00010	56		 push	 esi
  00011	8b f1		 mov	 esi, ecx

; 120  : 	// (2005/9/10 - Seung-Won, Bae) 
; 121  : 	if( !m_nTotalDataCount) return;

  00013	8b 86 88 00 00
	00		 mov	 eax, DWORD PTR [esi+136]
  00019	85 c0		 test	 eax, eax
  0001b	0f 84 fd 00 00
	00		 je	 $LN1@SetScrollP

; 122  : 	if(m_nPageDataCount >= 1 && m_nTotalDataCount >= 1)

  00021	8b 8e 8c 00 00
	00		 mov	 ecx, DWORD PTR [esi+140]
  00027	83 f9 01	 cmp	 ecx, 1
  0002a	7c 3b		 jl	 SHORT $LN3@SetScrollP
  0002c	83 f8 01	 cmp	 eax, 1
  0002f	7c 36		 jl	 SHORT $LN3@SetScrollP

; 123  : 		m_ScrollInfo.nPage = CMath::Round(((double)m_nScrollWidth * (double)m_nPageDataCount) / (double)m_nTotalDataCount);

  00031	66 0f 6e 8e b0
	00 00 00	 movd	 xmm1, DWORD PTR [esi+176]
  00039	83 ec 08	 sub	 esp, 8
  0003c	66 0f 6e c1	 movd	 xmm0, ecx
  00040	f3 0f e6 c0	 cvtdq2pd xmm0, xmm0
  00044	f3 0f e6 c9	 cvtdq2pd xmm1, xmm1
  00048	f2 0f 59 c8	 mulsd	 xmm1, xmm0
  0004c	66 0f 6e c0	 movd	 xmm0, eax
  00050	f3 0f e6 c0	 cvtdq2pd xmm0, xmm0
  00054	f2 0f 5e c8	 divsd	 xmm1, xmm0
  00058	f2 0f 11 0c 24	 movsd	 QWORD PTR [esp], xmm1
  0005d	e8 00 00 00 00	 call	 ?Round@CMath@@SAHN@Z	; CMath::Round
  00062	83 c4 08	 add	 esp, 8
  00065	eb 06		 jmp	 SHORT $LN4@SetScrollP
$LN3@SetScrollP:

; 124  : 	else
; 125  : 		m_ScrollInfo.nPage = m_nScrollWidth;

  00067	8b 86 b0 00 00
	00		 mov	 eax, DWORD PTR [esi+176]
$LN4@SetScrollP:

; 126  : 	CScrollBarNew::SetScrollInfo(&m_ScrollInfo, TRUE, m_pParent->GetReverseToOcx());

  0006d	89 86 a4 00 00
	00		 mov	 DWORD PTR [esi+164], eax
  00073	8b 8e 80 00 00
	00		 mov	 ecx, DWORD PTR [esi+128]
  00079	57		 push	 edi
  0007a	8d be 94 00 00
	00		 lea	 edi, DWORD PTR [esi+148]
  00080	e8 00 00 00 00	 call	 ?GetReverseToOcx@CToolBarDlg@@QAEHXZ ; CToolBarDlg::GetReverseToOcx
; File D:\git\src\IBK\IBK_DRFN\ProjSrc\SrcChartEx\ChartOCX\ChartToolBar\ScrollBarEx.h

; 63   : 		if(bReverse == FALSE)

  00085	6a 01		 push	 1
  00087	85 c0		 test	 eax, eax
  00089	75 03		 jne	 SHORT $LN7@SetScrollP
; File C:\Program Files (x86)\Microsoft Visual Studio\2019\Community\VC\Tools\MSVC\14.29.30133\atlmfc\include\afxwin2.inl

; 964  : 	{ return CWnd::SetScrollInfo(SB_CTL, lpScrollInfo, bRedraw); }

  0008b	57		 push	 edi
; File D:\git\src\IBK\IBK_DRFN\ProjSrc\SrcChartEx\ChartOCX\ChartToolBar\ScrollBarEx.h

; 65   : 			return CScrollBar::SetScrollInfo(lpScrollInfo, bRedraw);

  0008c	eb 3b		 jmp	 SHORT $LN14@SetScrollP
$LN7@SetScrollP:

; 66   : 		}
; 67   : 		else
; 68   : 		{
; 69   : 			SCROLLINFO si = *lpScrollInfo;

  0008e	0f 10 0f	 movups	 xmm1, XMMWORD PTR [edi]
  00091	8b 47 18	 mov	 eax, DWORD PTR [edi+24]
  00094	f3 0f 7e 47 10	 movq	 xmm0, QWORD PTR [edi+16]
  00099	66 0f d6 45 f0	 movq	 QWORD PTR _si$1[ebp+16], xmm0

; 71   : 			si.nPos = si.nMin - (si.nPos + si.nPage - si.nMax);			

  0009e	0f 28 c1	 movaps	 xmm0, xmm1
  000a1	66 0f 73 d8 0c	 psrldq	 xmm0, 12		; 0000000cH
  000a6	66 0f 7e c1	 movd	 ecx, xmm0
  000aa	0f 11 4d e0	 movups	 XMMWORD PTR _si$1[ebp], xmm1
  000ae	89 45 f8	 mov	 DWORD PTR _si$1[ebp+24], eax
  000b1	2b 4d f0	 sub	 ecx, DWORD PTR _si$1[ebp+16]
  000b4	2b 4d f4	 sub	 ecx, DWORD PTR _si$1[ebp+20]
  000b7	66 0f 73 d9 08	 psrldq	 xmm1, 8
  000bc	66 0f 7e c8	 movd	 eax, xmm1
  000c0	03 c8		 add	 ecx, eax
; File C:\Program Files (x86)\Microsoft Visual Studio\2019\Community\VC\Tools\MSVC\14.29.30133\atlmfc\include\afxwin2.inl

; 964  : 	{ return CWnd::SetScrollInfo(SB_CTL, lpScrollInfo, bRedraw); }

  000c2	8d 45 e0	 lea	 eax, DWORD PTR _si$1[ebp]
; File D:\git\src\IBK\IBK_DRFN\ProjSrc\SrcChartEx\ChartOCX\ChartToolBar\ScrollBarEx.h

; 71   : 			si.nPos = si.nMin - (si.nPos + si.nPage - si.nMax);			

  000c5	89 4d f4	 mov	 DWORD PTR _si$1[ebp+20], ecx
; File C:\Program Files (x86)\Microsoft Visual Studio\2019\Community\VC\Tools\MSVC\14.29.30133\atlmfc\include\afxwin2.inl

; 964  : 	{ return CWnd::SetScrollInfo(SB_CTL, lpScrollInfo, bRedraw); }

  000c8	50		 push	 eax
$LN14@SetScrollP:
; File D:\git\src\IBK\IBK_DRFN\ProjSrc\SrcChartEx\ChartOCX\ChartToolBar\ScrollBarEx.cpp

; 128  : 	CScrollBarNew::SetScrollPos(CMath::Round(double(m_nPreScrollPos * m_nScrollWidth)/(double)m_nTotalDataCount), TRUE, m_pParent->GetReverseToOcx());

  000c9	6a 02		 push	 2
  000cb	8b ce		 mov	 ecx, esi
  000cd	e8 00 00 00 00	 call	 ?SetScrollInfo@CWnd@@QAEHHPAUtagSCROLLINFO@@H@Z ; CWnd::SetScrollInfo
  000d2	8b 8e 80 00 00
	00		 mov	 ecx, DWORD PTR [esi+128]
  000d8	e8 00 00 00 00	 call	 ?GetReverseToOcx@CToolBarDlg@@QAEHXZ ; CToolBarDlg::GetReverseToOcx
  000dd	66 0f 6e 86 88
	00 00 00	 movd	 xmm0, DWORD PTR [esi+136]
  000e5	50		 push	 eax
  000e6	8b 86 c0 00 00
	00		 mov	 eax, DWORD PTR [esi+192]
  000ec	0f af 86 b0 00
	00 00		 imul	 eax, DWORD PTR [esi+176]
  000f3	f3 0f e6 c0	 cvtdq2pd xmm0, xmm0
  000f7	6a 01		 push	 1
  000f9	83 ec 08	 sub	 esp, 8
  000fc	66 0f 6e c8	 movd	 xmm1, eax
  00100	f3 0f e6 c9	 cvtdq2pd xmm1, xmm1
  00104	f2 0f 5e c8	 divsd	 xmm1, xmm0
  00108	f2 0f 11 0c 24	 movsd	 QWORD PTR [esp], xmm1
  0010d	e8 00 00 00 00	 call	 ?Round@CMath@@SAHN@Z	; CMath::Round
  00112	83 c4 08	 add	 esp, 8
  00115	8b ce		 mov	 ecx, esi
  00117	50		 push	 eax
  00118	e8 00 00 00 00	 call	 ?SetScrollPos@CScrollBarNew@@QAEHHHH@Z ; CScrollBarNew::SetScrollPos
  0011d	5f		 pop	 edi
$LN1@SetScrollP:

; 129  : }

  0011e	8b 4d fc	 mov	 ecx, DWORD PTR __$ArrayPad$[ebp]
  00121	33 cd		 xor	 ecx, ebp
  00123	5e		 pop	 esi
  00124	e8 00 00 00 00	 call	 @__security_check_cookie@4
  00129	8b e5		 mov	 esp, ebp
  0012b	5d		 pop	 ebp
  0012c	c3		 ret	 0
?SetScrollPos@CScrollBarEx@@QAEXXZ ENDP			; CScrollBarEx::SetScrollPos
_TEXT	ENDS
; Function compile flags: /Ogtp
; File D:\git\src\IBK\IBK_DRFN\ProjSrc\SrcChartEx\ChartOCX\ChartToolBar\ScrollBarEx.cpp
;	COMDAT ?SetScrollData_RemovePacket@CScrollBarEx@@QAEXHH@Z
_TEXT	SEGMENT
_nTotalDataCount$ = 8					; size = 4
_nRemoveDataCount$ = 12					; size = 4
?SetScrollData_RemovePacket@CScrollBarEx@@QAEXHH@Z PROC	; CScrollBarEx::SetScrollData_RemovePacket, COMDAT
; _this$ = ecx

; 267  : {

  00000	55		 push	 ebp
  00001	8b ec		 mov	 ebp, esp
  00003	53		 push	 ebx

; 268  : 	//   
; 269  : 	int nRightMargin = m_nTotalDataCount - nTotalDataCount - nRemoveDataCount;

  00004	8b 5d 0c	 mov	 ebx, DWORD PTR _nRemoveDataCount$[ebp]

; 270  : 	if(nRightMargin < 0)
; 271  : 		nRightMargin = 0;
; 272  : 
; 273  : 	// MODIFY: (04/07/30)
; 274  : 	m_nTotalDataCount = nTotalDataCount + nRightMargin;

  00007	b8 00 00 00 00	 mov	 eax, 0
  0000c	56		 push	 esi
  0000d	57		 push	 edi
  0000e	8b f9		 mov	 edi, ecx
  00010	8b 97 88 00 00
	00		 mov	 edx, DWORD PTR [edi+136]
  00016	2b 55 08	 sub	 edx, DWORD PTR _nTotalDataCount$[ebp]
  00019	2b d3		 sub	 edx, ebx
  0001b	0f 49 c2	 cmovns	 eax, edx

; 275  : 
; 276  : 	//     TotalDataCount .
; 277  : 	if(m_nPageDataCount > m_nTotalDataCount)

  0001e	8b 97 8c 00 00
	00		 mov	 edx, DWORD PTR [edi+140]
  00024	03 45 08	 add	 eax, DWORD PTR _nTotalDataCount$[ebp]
  00027	89 87 88 00 00
	00		 mov	 DWORD PTR [edi+136], eax
  0002d	3b d0		 cmp	 edx, eax
  0002f	7e 08		 jle	 SHORT $LN3@SetScrollD

; 278  : 		m_nPageDataCount = m_nTotalDataCount;

  00031	89 87 8c 00 00
	00		 mov	 DWORD PTR [edi+140], eax
  00037	8b d0		 mov	 edx, eax
$LN3@SetScrollD:

; 279  : 
; 280  : 	m_nPreScrollPos = m_nPreScrollPos - nRemoveDataCount + 1;

  00039	b9 01 00 00 00	 mov	 ecx, 1
  0003e	8b c1		 mov	 eax, ecx

; 281  : 	m_nDataEnd = m_nDataEnd - nRemoveDataCount + 1;

  00040	2b cb		 sub	 ecx, ebx
  00042	01 8f 90 00 00
	00		 add	 DWORD PTR [edi+144], ecx
  00048	2b c3		 sub	 eax, ebx
  0004a	01 87 c0 00 00
	00		 add	 DWORD PTR [edi+192], eax

; 282  : 
; 283  : 	if(m_nPreScrollPos < 0)

  00050	83 bf c0 00 00
	00 00		 cmp	 DWORD PTR [edi+192], 0
  00057	7d 13		 jge	 SHORT $LN4@SetScrollD

; 284  : 	{
; 285  : 		m_nPreScrollPos = 0;
; 286  : 		m_nDataEnd = m_nPageDataCount - 1;

  00059	8d 42 ff	 lea	 eax, DWORD PTR [edx-1]
  0005c	c7 87 c0 00 00
	00 00 00 00 00	 mov	 DWORD PTR [edi+192], 0
  00066	89 87 90 00 00
	00		 mov	 DWORD PTR [edi+144], eax
$LN4@SetScrollD:

; 287  : 	}
; 288  : 
; 289  : 	SetScrollPos();

  0006c	8b cf		 mov	 ecx, edi
  0006e	e8 00 00 00 00	 call	 ?SetScrollPos@CScrollBarEx@@QAEXXZ ; CScrollBarEx::SetScrollPos

; 290  : 	m_pParent->SetSliderPos(m_nPageDataCount);

  00073	ff b7 8c 00 00
	00		 push	 DWORD PTR [edi+140]
  00079	8b 8f 80 00 00
	00		 mov	 ecx, DWORD PTR [edi+128]
  0007f	e8 00 00 00 00	 call	 ?SetSliderPos@CToolBarDlg@@QAEXH@Z ; CToolBarDlg::SetSliderPos
  00084	5f		 pop	 edi
  00085	5e		 pop	 esi
  00086	5b		 pop	 ebx

; 291  : }

  00087	5d		 pop	 ebp
  00088	c2 08 00	 ret	 8
?SetScrollData_RemovePacket@CScrollBarEx@@QAEXHH@Z ENDP	; CScrollBarEx::SetScrollData_RemovePacket
_TEXT	ENDS
; Function compile flags: /Ogtp
; File D:\git\src\IBK\IBK_DRFN\ProjSrc\SrcChartEx\ChartOCX\ChartToolBar\ScrollBarEx.cpp
;	COMDAT ?SetScrollData_Real@CScrollBarEx@@QAEXH@Z
_TEXT	SEGMENT
tv357 = 8						; size = 4
_nTotalDataCount$ = 8					; size = 4
?SetScrollData_Real@CScrollBarEx@@QAEXH@Z PROC		; CScrollBarEx::SetScrollData_Real, COMDAT
; _this$ = ecx

; 220  : {

  00000	55		 push	 ebp
  00001	8b ec		 mov	 ebp, esp

; 221  : 	// MODIFY: (04/06/01) TR         
; 222  : 	if(nTotalDataCount >= m_nTotalDataCount)

  00003	8b 55 08	 mov	 edx, DWORD PTR _nTotalDataCount$[ebp]
  00006	53		 push	 ebx
  00007	56		 push	 esi
  00008	8b f1		 mov	 esi, ecx
  0000a	57		 push	 edi
  0000b	8b 86 88 00 00
	00		 mov	 eax, DWORD PTR [esi+136]
  00011	8a 9e 84 00 00
	00		 mov	 bl, BYTE PTR [esi+132]
  00017	3b d0		 cmp	 edx, eax
  00019	7c 1c		 jl	 SHORT $LN12@SetScrollD

; 223  : 	{
; 224  : 		int nTemp = nTotalDataCount - m_nTotalDataCount;

  0001b	8b ca		 mov	 ecx, edx
  0001d	2b c8		 sub	 ecx, eax

; 225  : 
; 226  : 		if(!m_bFullPage) // (04/07/28):     ...

  0001f	84 db		 test	 bl, bl
  00021	75 06		 jne	 SHORT $LN3@SetScrollD

; 227  : 			m_nPreScrollPos += nTemp;

  00023	01 8e c0 00 00
	00		 add	 DWORD PTR [esi+192], ecx
$LN3@SetScrollD:

; 228  : 
; 229  : 		m_nDataEnd+= nTemp;

  00029	01 8e 90 00 00
	00		 add	 DWORD PTR [esi+144], ecx

; 230  : 		// MODIFY: (04/06/29) SliderCtrl MaxRange   .
; 231  : 		m_nTotalDataCount = nTotalDataCount;

  0002f	8b c2		 mov	 eax, edx
  00031	89 96 88 00 00
	00		 mov	 DWORD PTR [esi+136], edx
$LN12@SetScrollD:

; 232  : 	}
; 233  : 
; 234  : 	bool bMoveEndPage = false;
; 235  : 	if(m_nDataEnd == (m_nTotalDataCount-1))

  00037	8b be 90 00 00
	00		 mov	 edi, DWORD PTR [esi+144]
  0003d	8d 48 ff	 lea	 ecx, DWORD PTR [eax-1]
  00040	89 4d 08	 mov	 DWORD PTR tv357[ebp], ecx

; 236  : 		bMoveEndPage = true;
; 237  : 
; 238  : 	
; 239  : 	if(m_bFullPage == true)

  00043	80 fb 01	 cmp	 bl, 1
  00046	75 08		 jne	 SHORT $LN5@SetScrollD

; 240  : 		m_nPageDataCount = m_nTotalDataCount;

  00048	89 86 8c 00 00
	00		 mov	 DWORD PTR [esi+140], eax
  0004e	eb 10		 jmp	 SHORT $LN7@SetScrollD
$LN5@SetScrollD:

; 241  : 	else if(m_nTotalDataCount < m_nPageDataCount)

  00050	8b 8e 8c 00 00
	00		 mov	 ecx, DWORD PTR [esi+140]
  00056	3b c1		 cmp	 eax, ecx
  00058	7d 06		 jge	 SHORT $LN7@SetScrollD

; 242  : 		m_nTotalDataCount = m_nPageDataCount;

  0005a	89 8e 88 00 00
	00		 mov	 DWORD PTR [esi+136], ecx
$LN7@SetScrollD:

; 243  : 
; 244  : 	SetScrollPos();

  00060	8b ce		 mov	 ecx, esi
  00062	e8 00 00 00 00	 call	 ?SetScrollPos@CScrollBarEx@@QAEXXZ ; CScrollBarEx::SetScrollPos

; 245  : 
; 246  : 	if(bMoveEndPage == true){

  00067	3b 7d 08	 cmp	 edi, DWORD PTR tv357[ebp]
  0006a	75 39		 jne	 SHORT $LN8@SetScrollD

; 247  : 		if(m_nTotalDataCount == m_nPageDataCount)

  0006c	8b 86 88 00 00
	00		 mov	 eax, DWORD PTR [esi+136]
  00072	3b 86 8c 00 00
	00		 cmp	 eax, DWORD PTR [esi+140]
  00078	75 04		 jne	 SHORT $LN9@SetScrollD

; 248  : 			m_ScrollInfo.nPos = 0;

  0007a	33 c0		 xor	 eax, eax
  0007c	eb 06		 jmp	 SHORT $LN10@SetScrollD
$LN9@SetScrollD:

; 249  : 		else
; 250  : 			m_ScrollInfo.nPos = m_nScrollWidth;

  0007e	8b 86 b0 00 00
	00		 mov	 eax, DWORD PTR [esi+176]
$LN10@SetScrollD:

; 251  : 		CScrollBarNew::SetScrollPos(m_ScrollInfo.nPos, TRUE, m_pParent->GetReverseToOcx());

  00084	89 86 a8 00 00
	00		 mov	 DWORD PTR [esi+168], eax
  0008a	8b 8e 80 00 00
	00		 mov	 ecx, DWORD PTR [esi+128]
  00090	e8 00 00 00 00	 call	 ?GetReverseToOcx@CToolBarDlg@@QAEHXZ ; CToolBarDlg::GetReverseToOcx
  00095	50		 push	 eax
  00096	6a 01		 push	 1
  00098	ff b6 a8 00 00
	00		 push	 DWORD PTR [esi+168]
  0009e	8b ce		 mov	 ecx, esi
  000a0	e8 00 00 00 00	 call	 ?SetScrollPos@CScrollBarNew@@QAEHHHH@Z ; CScrollBarNew::SetScrollPos
$LN8@SetScrollD:

; 252  : 	}
; 253  : }

  000a5	5f		 pop	 edi
  000a6	5e		 pop	 esi
  000a7	5b		 pop	 ebx
  000a8	5d		 pop	 ebp
  000a9	c2 04 00	 ret	 4
?SetScrollData_Real@CScrollBarEx@@QAEXH@Z ENDP		; CScrollBarEx::SetScrollData_Real
_TEXT	ENDS
; Function compile flags: /Ogtp
; File D:\git\src\IBK\IBK_DRFN\ProjSrc\SrcChartEx\ChartOCX\ChartToolBar\ScrollBarEx.cpp
; File C:\Program Files (x86)\Microsoft Visual Studio\2019\Community\VC\Tools\MSVC\14.29.30133\atlmfc\include\afxwin2.inl
; File D:\git\src\IBK\IBK_DRFN\ProjSrc\SrcChartEx\ChartOCX\ChartToolBar\ScrollBarEx.cpp
;	COMDAT ?SetScrollData_TR@CScrollBarEx@@QAEXHH_NW4DATAINSERTTYPE@CPacketDataInfo@@H@Z
_TEXT	SEGMENT
_nTotalDataCount$ = 8					; size = 4
_nPageDataCount$ = 12					; size = 4
_bFullPage$ = 16					; size = 1
_dataType$ = 20						; size = 4
_nGlanceBalanceMargin$ = 24				; size = 4
?SetScrollData_TR@CScrollBarEx@@QAEXHH_NW4DATAINSERTTYPE@CPacketDataInfo@@H@Z PROC ; CScrollBarEx::SetScrollData_TR, COMDAT
; _this$ = ecx

; 54   : {

  00000	55		 push	 ebp
  00001	8b ec		 mov	 ebp, esp

; 55   : 	//sy 2005.09.15.
; 56   : 	// TR      .
; 57   : 	//if(nTotalDataCount == 0)
; 58   : 	//	return;
; 59   : 	//sy end
; 60   : 	//int reverseDataTotalCount = m_nTotalDataCount;
; 61   : 	
; 62   : 	m_nGlanceBalanceMargin = nGlanceBalanceMargin;

  00003	8b 45 18	 mov	 eax, DWORD PTR _nGlanceBalanceMargin$[ebp]
  00006	8b 55 0c	 mov	 edx, DWORD PTR _nPageDataCount$[ebp]
  00009	53		 push	 ebx
  0000a	8a 7d 10	 mov	 bh, BYTE PTR _bFullPage$[ebp]
  0000d	56		 push	 esi
  0000e	8b f1		 mov	 esi, ecx
  00010	8b 4d 08	 mov	 ecx, DWORD PTR _nTotalDataCount$[ebp]
  00013	57		 push	 edi
  00014	89 86 b8 00 00
	00		 mov	 DWORD PTR [esi+184], eax

; 63   : 	m_nTotalDataCount = nTotalDataCount; 

  0001a	89 8e 88 00 00
	00		 mov	 DWORD PTR [esi+136], ecx

; 64   : 	m_bFullPage = bFullPage;

  00020	88 be 84 00 00
	00		 mov	 BYTE PTR [esi+132], bh

; 65   : 	
; 66   : 	if(bFullPage == true)

  00026	80 ff 01	 cmp	 bh, 1
  00029	75 0a		 jne	 SHORT $LN2@SetScrollD

; 67   : 		m_nPageDataCount = m_nTotalDataCount;

  0002b	89 8e 8c 00 00
	00		 mov	 DWORD PTR [esi+140], ecx
  00031	8b f9		 mov	 edi, ecx
  00033	eb 14		 jmp	 SHORT $LN7@SetScrollD
$LN2@SetScrollD:

; 68   : 	//     .
; 69   : 	else if(m_nTotalDataCount < nPageDataCount)

  00035	89 96 8c 00 00
	00		 mov	 DWORD PTR [esi+140], edx
  0003b	8b fa		 mov	 edi, edx
  0003d	3b ca		 cmp	 ecx, edx
  0003f	7d 4b		 jge	 SHORT $LN4@SetScrollD

; 70   : 	{
; 71   : 		m_nPageDataCount = nPageDataCount;
; 72   : 		m_nTotalDataCount = m_nPageDataCount;

  00041	89 96 88 00 00
	00		 mov	 DWORD PTR [esi+136], edx
  00047	8b ca		 mov	 ecx, edx
$LN7@SetScrollD:

; 85   : 			// (04/07/16)
; 86   : 			// ''       index .
; 87   : 			//m_nPreScrollPos += (m_nTotalDataCount - reverseDataTotalCount);
; 88   : 			//m_nDataEnd += (m_nTotalDataCount - reverseDataTotalCount);
; 89   : 			//sy end
; 90   : 		}
; 91   : 	}
; 92   : 
; 93   : 	if(dataType == CPacketDataInfo::INSERT && !m_bFullPage)

  00049	83 7d 14 01	 cmp	 DWORD PTR _dataType$[ebp], 1
  0004d	8a df		 mov	 bl, bh
  0004f	8b d1		 mov	 edx, ecx
  00051	75 73		 jne	 SHORT $LN8@SetScrollD
$LN14@SetScrollD:
  00053	8b ca		 mov	 ecx, edx
  00055	84 db		 test	 bl, bl
  00057	75 6d		 jne	 SHORT $LN8@SetScrollD
$LN15@SetScrollD:

; 94   : 	{
; 95   : 		SetScrollPos();

  00059	8b ce		 mov	 ecx, esi
  0005b	e8 00 00 00 00	 call	 ?SetScrollPos@CScrollBarEx@@QAEXXZ ; CScrollBarEx::SetScrollPos
; File C:\Program Files (x86)\Microsoft Visual Studio\2019\Community\VC\Tools\MSVC\14.29.30133\atlmfc\include\afxwin2.inl

; 114  : 	{ ASSERT(::IsWindow(m_hWnd)); ::InvalidateRect(m_hWnd, NULL, bErase); }

  00060	6a 01		 push	 1
  00062	6a 00		 push	 0
  00064	ff 76 20	 push	 DWORD PTR [esi+32]
  00067	ff 15 00 00 00
	00		 call	 DWORD PTR __imp__InvalidateRect@12
; File D:\git\src\IBK\IBK_DRFN\ProjSrc\SrcChartEx\ChartOCX\ChartToolBar\ScrollBarEx.cpp

; 97   : 		m_pParent->SetSliderPos(m_nPageDataCount);

  0006d	ff b6 8c 00 00
	00		 push	 DWORD PTR [esi+140]
  00073	8b 8e 80 00 00
	00		 mov	 ecx, DWORD PTR [esi+128]
  00079	e8 00 00 00 00	 call	 ?SetSliderPos@CToolBarDlg@@QAEXH@Z ; CToolBarDlg::SetSliderPos
  0007e	5f		 pop	 edi

; 98   : 		m_bFullPage = false;

  0007f	c6 86 84 00 00
	00 00		 mov	 BYTE PTR [esi+132], 0

; 108  : 	}
; 109  : }

  00086	5e		 pop	 esi
  00087	5b		 pop	 ebx
  00088	5d		 pop	 ebp
  00089	c2 14 00	 ret	 20			; 00000014H
$LN4@SetScrollD:

; 73   : 
; 74   : 	}
; 75   : 	else
; 76   : 	{
; 77   : 		m_nPageDataCount = nPageDataCount;
; 78   : 		if(dataType == CPacketDataInfo::INSERT && !m_bFullPage)

  0008c	83 7d 14 01	 cmp	 DWORD PTR _dataType$[ebp], 1
  00090	75 34		 jne	 SHORT $LN8@SetScrollD
  00092	8a 9e 84 00 00
	00		 mov	 bl, BYTE PTR [esi+132]
  00098	8b d1		 mov	 edx, ecx
  0009a	84 ff		 test	 bh, bh
  0009c	75 b5		 jne	 SHORT $LN14@SetScrollD

; 79   : 		{
; 80   : 			//sy 2005.12.13.   .
; 81   : 			m_nDataEnd = m_nTotalDataCount - 1;
; 82   : 			m_nPreScrollPos = m_nDataEnd - m_nPageDataCount + 1;

  0009e	8b be 8c 00 00
	00		 mov	 edi, DWORD PTR [esi+140]
  000a4	8d 41 ff	 lea	 eax, DWORD PTR [ecx-1]
  000a7	89 86 90 00 00
	00		 mov	 DWORD PTR [esi+144], eax
  000ad	2b c7		 sub	 eax, edi
  000af	83 c0 01	 add	 eax, 1
  000b2	89 86 c0 00 00
	00		 mov	 DWORD PTR [esi+192], eax

; 83   : 			if(m_nPreScrollPos < 0)

  000b8	79 99		 jns	 SHORT $LN14@SetScrollD

; 84   : 				m_nPreScrollPos = 0;

  000ba	c7 86 c0 00 00
	00 00 00 00 00	 mov	 DWORD PTR [esi+192], 0

; 85   : 			// (04/07/16)
; 86   : 			// ''       index .
; 87   : 			//m_nPreScrollPos += (m_nTotalDataCount - reverseDataTotalCount);
; 88   : 			//m_nDataEnd += (m_nTotalDataCount - reverseDataTotalCount);
; 89   : 			//sy end
; 90   : 		}
; 91   : 	}
; 92   : 
; 93   : 	if(dataType == CPacketDataInfo::INSERT && !m_bFullPage)

  000c4	eb 93		 jmp	 SHORT $LN15@SetScrollD
$LN8@SetScrollD:

; 99   : 	}
; 100  : 	else
; 101  : 	{
; 102  : 		//MODIFY: (04/06/30)
; 103  : 		m_nDataEnd = m_nTotalDataCount - 1;

  000c6	8d 41 ff	 lea	 eax, DWORD PTR [ecx-1]

; 104  : 		m_nPreScrollPos = m_nDataEnd - m_nPageDataCount + 1;
; 105  : 		if(m_nPreScrollPos < 0)

  000c9	33 c9		 xor	 ecx, ecx
  000cb	89 86 90 00 00
	00		 mov	 DWORD PTR [esi+144], eax
  000d1	2b c7		 sub	 eax, edi
  000d3	83 c0 01	 add	 eax, 1
  000d6	0f 48 c1	 cmovs	 eax, ecx

; 106  : 			m_nPreScrollPos = 0;
; 107  : 		CScrollBarEx::SetScrollInfo();

  000d9	8b ce		 mov	 ecx, esi
  000db	89 86 c0 00 00
	00		 mov	 DWORD PTR [esi+192], eax
  000e1	e8 00 00 00 00	 call	 ?SetScrollInfo@CScrollBarEx@@AAEXXZ ; CScrollBarEx::SetScrollInfo
  000e6	5f		 pop	 edi

; 108  : 	}
; 109  : }

  000e7	5e		 pop	 esi
  000e8	5b		 pop	 ebx
  000e9	5d		 pop	 ebp
  000ea	c2 14 00	 ret	 20			; 00000014H
?SetScrollData_TR@CScrollBarEx@@QAEXHH_NW4DATAINSERTTYPE@CPacketDataInfo@@H@Z ENDP ; CScrollBarEx::SetScrollData_TR
_TEXT	ENDS
; Function compile flags: /Ogtp
; File D:\git\src\IBK\IBK_DRFN\ProjSrc\SrcChartEx\ChartOCX\ChartToolBar\ScrollBarEx.cpp
; File C:\Program Files (x86)\Microsoft Visual Studio\2019\Community\VC\Tools\MSVC\14.29.30133\atlmfc\include\afxwin2.inl
; File D:\git\src\IBK\IBK_DRFN\ProjSrc\SrcChartEx\ChartOCX\ChartToolBar\ScrollBarEx.cpp
;	COMDAT ??0CScrollBarEx@@QAE@PAUIChartCtrl@@H@Z
_TEXT	SEGMENT
_this$ = -4						; size = 4
_p_pIChartCtrl$ = 8					; size = 4
_nScrollWidth$ = 12					; size = 4
??0CScrollBarEx@@QAE@PAUIChartCtrl@@H@Z PROC		; CScrollBarEx::CScrollBarEx, COMDAT
; _this$ = ecx

; 24   : {

  00000	55		 push	 ebp
  00001	8b ec		 mov	 ebp, esp
  00003	51		 push	 ecx
  00004	56		 push	 esi
  00005	8b f1		 mov	 esi, ecx
  00007	89 75 fc	 mov	 DWORD PTR _this$[ebp], esi
; File C:\Program Files (x86)\Microsoft Visual Studio\2019\Community\VC\Tools\MSVC\14.29.30133\atlmfc\include\afxwin2.inl

; 950  : 	{ }

  0000a	e8 00 00 00 00	 call	 ??0CWnd@@QAE@XZ		; CWnd::CWnd
; File D:\git\src\IBK\IBK_DRFN\ProjSrc\SrcChartEx\ChartOCX\ChartToolBar\ScrollBarEx.cpp

; 26   : 	m_pIChartCtrl	= p_pIChartCtrl; 

  0000f	8b 45 08	 mov	 eax, DWORD PTR _p_pIChartCtrl$[ebp]
  00012	89 86 bc 00 00
	00		 mov	 DWORD PTR [esi+188], eax

; 27   : 	m_nPreScrollPos = 0;
; 28   : 	
; 29   : 	m_bFullPage = false;
; 30   : 	m_nTotalDataCount = 0;
; 31   : 	m_nDataEnd = 0;
; 32   : 	m_nScrollWidth = nScrollWidth;

  00018	8b 45 0c	 mov	 eax, DWORD PTR _nScrollWidth$[ebp]
  0001b	89 86 b0 00 00
	00		 mov	 DWORD PTR [esi+176], eax

; 33   : 	m_nMinDataCountOnOnePage = 5;
; 34   : 	m_pParent = NULL;
; 35   : }

  00021	8b c6		 mov	 eax, esi
  00023	c7 06 00 00 00
	00		 mov	 DWORD PTR [esi], OFFSET ??_7CScrollBarEx@@6B@
  00029	c7 86 c0 00 00
	00 00 00 00 00	 mov	 DWORD PTR [esi+192], 0
  00033	c6 86 84 00 00
	00 00		 mov	 BYTE PTR [esi+132], 0
  0003a	c7 86 88 00 00
	00 00 00 00 00	 mov	 DWORD PTR [esi+136], 0
  00044	c7 86 90 00 00
	00 00 00 00 00	 mov	 DWORD PTR [esi+144], 0
  0004e	c7 86 b4 00 00
	00 05 00 00 00	 mov	 DWORD PTR [esi+180], 5
  00058	c7 86 80 00 00
	00 00 00 00 00	 mov	 DWORD PTR [esi+128], 0
  00062	5e		 pop	 esi
  00063	8b e5		 mov	 esp, ebp
  00065	5d		 pop	 ebp
  00066	c2 08 00	 ret	 8
??0CScrollBarEx@@QAE@PAUIChartCtrl@@H@Z ENDP		; CScrollBarEx::CScrollBarEx
_TEXT	ENDS
; Function compile flags: /Ogtp
; File C:\Program Files (x86)\Microsoft Visual Studio\2019\Community\VC\Tools\MSVC\14.29.30133\atlmfc\include\afx.inl
;	COMDAT ??_GCScrollBarNew@@UAEPAXI@Z
_TEXT	SEGMENT
___flags$ = 8						; size = 4
??_GCScrollBarNew@@UAEPAXI@Z PROC			; CScrollBarNew::`scalar deleting destructor', COMDAT
; _this$ = ecx
  00000	55		 push	 ebp
  00001	8b ec		 mov	 ebp, esp
  00003	56		 push	 esi
  00004	8b f1		 mov	 esi, ecx
  00006	e8 00 00 00 00	 call	 ??1CScrollBar@@UAE@XZ	; CScrollBar::~CScrollBar
  0000b	8b 45 08	 mov	 eax, DWORD PTR ___flags$[ebp]
  0000e	a8 01		 test	 al, 1
  00010	74 22		 je	 SHORT $LN12@scalar
  00012	a8 04		 test	 al, 4
  00014	75 10		 jne	 SHORT $LN3@scalar

; 112  : 	{ ::operator delete(p); }

  00016	56		 push	 esi
  00017	e8 00 00 00 00	 call	 ??3@YAXPAX@Z		; operator delete
  0001c	83 c4 04	 add	 esp, 4
  0001f	8b c6		 mov	 eax, esi
  00021	5e		 pop	 esi
  00022	5d		 pop	 ebp
  00023	c2 04 00	 ret	 4
$LN3@scalar:
  00026	68 80 00 00 00	 push	 128			; 00000080H
  0002b	56		 push	 esi
  0002c	e8 00 00 00 00	 call	 ?__global_delete@@YAXPAXI@Z ; __global_delete
  00031	83 c4 08	 add	 esp, 8
$LN12@scalar:
  00034	8b c6		 mov	 eax, esi
  00036	5e		 pop	 esi
  00037	5d		 pop	 ebp
  00038	c2 04 00	 ret	 4
??_GCScrollBarNew@@UAEPAXI@Z ENDP			; CScrollBarNew::`scalar deleting destructor'
_TEXT	ENDS
; Function compile flags: /Ogtp
; File D:\git\src\IBK\IBK_DRFN\ProjSrc\SrcChartEx\ChartOCX\ChartToolBar\ScrollBarEx.h
; File C:\Program Files (x86)\Microsoft Visual Studio\2019\Community\VC\Tools\MSVC\14.29.30133\atlmfc\include\afxwin2.inl
; File D:\git\src\IBK\IBK_DRFN\ProjSrc\SrcChartEx\ChartOCX\ChartToolBar\ScrollBarEx.h
; File C:\Program Files (x86)\Microsoft Visual Studio\2019\Community\VC\Tools\MSVC\14.29.30133\atlmfc\include\afxwin2.inl
; File D:\git\src\IBK\IBK_DRFN\ProjSrc\SrcChartEx\ChartOCX\ChartToolBar\ScrollBarEx.h
; File C:\Program Files (x86)\Microsoft Visual Studio\2019\Community\VC\Tools\MSVC\14.29.30133\atlmfc\include\afxwin2.inl
; File D:\git\src\IBK\IBK_DRFN\ProjSrc\SrcChartEx\ChartOCX\ChartToolBar\ScrollBarEx.h
; File C:\Program Files (x86)\Microsoft Visual Studio\2019\Community\VC\Tools\MSVC\14.29.30133\atlmfc\include\afxwin2.inl
; File D:\git\src\IBK\IBK_DRFN\ProjSrc\SrcChartEx\ChartOCX\ChartToolBar\ScrollBarEx.h
;	COMDAT ?SetScrollPos@CScrollBarNew@@QAEHHHH@Z
_TEXT	SEGMENT
_si$1 = -32						; size = 28
__$ArrayPad$ = -4					; size = 4
_nPos$ = 8						; size = 4
_bRedraw$ = 12						; size = 4
_bReverse$ = 16						; size = 4
?SetScrollPos@CScrollBarNew@@QAEHHHH@Z PROC		; CScrollBarNew::SetScrollPos, COMDAT
; _this$ = ecx

; 41   : 	{

  00000	55		 push	 ebp
  00001	8b ec		 mov	 ebp, esp
  00003	83 ec 20	 sub	 esp, 32			; 00000020H
  00006	a1 00 00 00 00	 mov	 eax, DWORD PTR ___security_cookie
  0000b	33 c5		 xor	 eax, ebp
  0000d	89 45 fc	 mov	 DWORD PTR __$ArrayPad$[ebp], eax

; 42   : 		if(bReverse == FALSE)

  00010	83 7d 10 00	 cmp	 DWORD PTR _bReverse$[ebp], 0
  00014	53		 push	 ebx
  00015	8b d9		 mov	 ebx, ecx
  00017	75 22		 jne	 SHORT $LN2@SetScrollP
; File C:\Program Files (x86)\Microsoft Visual Studio\2019\Community\VC\Tools\MSVC\14.29.30133\atlmfc\include\afxwin2.inl

; 954  : 	{ ASSERT(::IsWindow(m_hWnd)); return ::SetScrollPos(m_hWnd, SB_CTL, nPos, bRedraw); }

  00019	ff 75 0c	 push	 DWORD PTR _bRedraw$[ebp]
  0001c	ff 75 08	 push	 DWORD PTR _nPos$[ebp]
  0001f	6a 02		 push	 2
  00021	ff 73 20	 push	 DWORD PTR [ebx+32]
  00024	ff 15 00 00 00
	00		 call	 DWORD PTR __imp__SetScrollPos@16
  0002a	5b		 pop	 ebx
; File D:\git\src\IBK\IBK_DRFN\ProjSrc\SrcChartEx\ChartOCX\ChartToolBar\ScrollBarEx.h

; 59   : 	}

  0002b	8b 4d fc	 mov	 ecx, DWORD PTR __$ArrayPad$[ebp]
  0002e	33 cd		 xor	 ecx, ebp
  00030	e8 00 00 00 00	 call	 @__security_check_cookie@4
  00035	8b e5		 mov	 esp, ebp
  00037	5d		 pop	 ebp
  00038	c2 0c 00	 ret	 12			; 0000000cH
$LN2@SetScrollP:
  0003b	56		 push	 esi
  0003c	57		 push	 edi
; File C:\Program Files (x86)\Microsoft Visual Studio\2019\Community\VC\Tools\MSVC\14.29.30133\atlmfc\include\afxwin2.inl

; 966  : 	{ return CWnd::GetScrollInfo(SB_CTL, lpScrollInfo, nMask); }

  0003d	6a 17		 push	 23			; 00000017H
  0003f	8d 45 e0	 lea	 eax, DWORD PTR _si$1[ebp]
  00042	50		 push	 eax
  00043	6a 02		 push	 2
  00045	e8 00 00 00 00	 call	 ?GetScrollInfo@CWnd@@QAEHHPAUtagSCROLLINFO@@I@Z ; CWnd::GetScrollInfo
; File D:\git\src\IBK\IBK_DRFN\ProjSrc\SrcChartEx\ChartOCX\ChartToolBar\ScrollBarEx.h

; 51   : 			nPos = si.nMin - (nPos + si.nPage - si.nMax);

  0004a	8b 7d ec	 mov	 edi, DWORD PTR _si$1[ebp+12]
  0004d	2b 7d f0	 sub	 edi, DWORD PTR _si$1[ebp+16]
  00050	2b 7d 08	 sub	 edi, DWORD PTR _nPos$[ebp]
  00053	03 7d e8	 add	 edi, DWORD PTR _si$1[ebp+8]
; File C:\Program Files (x86)\Microsoft Visual Studio\2019\Community\VC\Tools\MSVC\14.29.30133\atlmfc\include\afxwin2.inl

; 952  : 	{ ASSERT(::IsWindow(m_hWnd)); return ::GetScrollPos(m_hWnd, SB_CTL); }

  00056	6a 02		 push	 2
  00058	ff 73 20	 push	 DWORD PTR [ebx+32]
  0005b	ff 15 00 00 00
	00		 call	 DWORD PTR __imp__GetScrollPos@8

; 954  : 	{ ASSERT(::IsWindow(m_hWnd)); return ::SetScrollPos(m_hWnd, SB_CTL, nPos, bRedraw); }

  00061	ff 75 0c	 push	 DWORD PTR _bRedraw$[ebp]
; File D:\git\src\IBK\IBK_DRFN\ProjSrc\SrcChartEx\ChartOCX\ChartToolBar\ScrollBarEx.h

; 25   : 			return CScrollBar::GetScrollPos();

  00064	8b f0		 mov	 esi, eax
; File C:\Program Files (x86)\Microsoft Visual Studio\2019\Community\VC\Tools\MSVC\14.29.30133\atlmfc\include\afxwin2.inl

; 954  : 	{ ASSERT(::IsWindow(m_hWnd)); return ::SetScrollPos(m_hWnd, SB_CTL, nPos, bRedraw); }

  00066	57		 push	 edi
  00067	6a 02		 push	 2
  00069	ff 73 20	 push	 DWORD PTR [ebx+32]
  0006c	ff 15 00 00 00
	00		 call	 DWORD PTR __imp__SetScrollPos@16
; File D:\git\src\IBK\IBK_DRFN\ProjSrc\SrcChartEx\ChartOCX\ChartToolBar\ScrollBarEx.h

; 59   : 	}

  00072	8b 4d fc	 mov	 ecx, DWORD PTR __$ArrayPad$[ebp]
  00075	8b c6		 mov	 eax, esi
  00077	5f		 pop	 edi
  00078	5e		 pop	 esi
  00079	33 cd		 xor	 ecx, ebp
  0007b	5b		 pop	 ebx
  0007c	e8 00 00 00 00	 call	 @__security_check_cookie@4
  00081	8b e5		 mov	 esp, ebp
  00083	5d		 pop	 ebp
  00084	c2 0c 00	 ret	 12			; 0000000cH
?SetScrollPos@CScrollBarNew@@QAEHHHH@Z ENDP		; CScrollBarNew::SetScrollPos
_TEXT	ENDS
; Function compile flags: /Ogtp
; File C:\Program Files (x86)\Microsoft Visual Studio\2019\Community\VC\Tools\MSVC\14.29.30133\atlmfc\include\afx.inl
;	COMDAT ??_GCScrollBar@@UAEPAXI@Z
_TEXT	SEGMENT
___flags$ = 8						; size = 4
??_GCScrollBar@@UAEPAXI@Z PROC				; CScrollBar::`scalar deleting destructor', COMDAT
; _this$ = ecx
  00000	55		 push	 ebp
  00001	8b ec		 mov	 ebp, esp
  00003	56		 push	 esi
  00004	8b f1		 mov	 esi, ecx
  00006	e8 00 00 00 00	 call	 ??1CScrollBar@@UAE@XZ	; CScrollBar::~CScrollBar
  0000b	8b 45 08	 mov	 eax, DWORD PTR ___flags$[ebp]
  0000e	a8 01		 test	 al, 1
  00010	74 22		 je	 SHORT $LN9@scalar
  00012	a8 04		 test	 al, 4
  00014	75 10		 jne	 SHORT $LN3@scalar

; 112  : 	{ ::operator delete(p); }

  00016	56		 push	 esi
  00017	e8 00 00 00 00	 call	 ??3@YAXPAX@Z		; operator delete
  0001c	83 c4 04	 add	 esp, 4
  0001f	8b c6		 mov	 eax, esi
  00021	5e		 pop	 esi
  00022	5d		 pop	 ebp
  00023	c2 04 00	 ret	 4
$LN3@scalar:
  00026	68 80 00 00 00	 push	 128			; 00000080H
  0002b	56		 push	 esi
  0002c	e8 00 00 00 00	 call	 ?__global_delete@@YAXPAXI@Z ; __global_delete
  00031	83 c4 08	 add	 esp, 8
$LN9@scalar:
  00034	8b c6		 mov	 eax, esi
  00036	5e		 pop	 esi
  00037	5d		 pop	 ebp
  00038	c2 04 00	 ret	 4
??_GCScrollBar@@UAEPAXI@Z ENDP				; CScrollBar::`scalar deleting destructor'
_TEXT	ENDS
; Function compile flags: /Ogtp
; File C:\Program Files (x86)\Microsoft Visual Studio\2019\Community\VC\Tools\MSVC\14.29.30133\atlmfc\include\afxwin2.inl
;	COMDAT ?EndModalState@CWnd@@UAEXXZ
_TEXT	SEGMENT
?EndModalState@CWnd@@UAEXXZ PROC			; CWnd::EndModalState, COMDAT
; _this$ = ecx

; 567  : 	{ ::EnableWindow(m_hWnd, TRUE); }

  00000	6a 01		 push	 1
  00002	ff 71 20	 push	 DWORD PTR [ecx+32]
  00005	ff 15 00 00 00
	00		 call	 DWORD PTR __imp__EnableWindow@8
  0000b	c3		 ret	 0
?EndModalState@CWnd@@UAEXXZ ENDP			; CWnd::EndModalState
_TEXT	ENDS
; Function compile flags: /Ogtp
; File C:\Program Files (x86)\Microsoft Visual Studio\2019\Community\VC\Tools\MSVC\14.29.30133\atlmfc\include\afxwin2.inl
;	COMDAT ?BeginModalState@CWnd@@UAEXXZ
_TEXT	SEGMENT
?BeginModalState@CWnd@@UAEXXZ PROC			; CWnd::BeginModalState, COMDAT
; _this$ = ecx

; 565  : 	{ ::EnableWindow(m_hWnd, FALSE); }

  00000	6a 00		 push	 0
  00002	ff 71 20	 push	 DWORD PTR [ecx+32]
  00005	ff 15 00 00 00
	00		 call	 DWORD PTR __imp__EnableWindow@8
  0000b	c3		 ret	 0
?BeginModalState@CWnd@@UAEXXZ ENDP			; CWnd::BeginModalState
_TEXT	ENDS
; Function compile flags: /Ogtp
; File C:\Program Files (x86)\Microsoft Visual Studio\2019\Community\VC\Tools\MSVC\14.29.30133\atlmfc\include\afxwin2.inl
;	COMDAT ?DoDataExchange@CWnd@@MAEXPAVCDataExchange@@@Z
_TEXT	SEGMENT
___formal$ = 8						; size = 4
?DoDataExchange@CWnd@@MAEXPAVCDataExchange@@@Z PROC	; CWnd::DoDataExchange, COMDAT
; _this$ = ecx

; 561  : 	{ } // default does nothing

  00000	c2 04 00	 ret	 4
?DoDataExchange@CWnd@@MAEXPAVCDataExchange@@@Z ENDP	; CWnd::DoDataExchange
_TEXT	ENDS
; Function compile flags: /Ogtp
; File C:\Program Files (x86)\Microsoft Visual Studio\2019\Community\VC\Tools\MSVC\14.29.30133\atlmfc\include\afx.inl
;	COMDAT ?Dump@CObject@@UBEXAAVCDumpContext@@@Z
_TEXT	SEGMENT
___formal$ = 8						; size = 4
?Dump@CObject@@UBEXAAVCDumpContext@@@Z PROC		; CObject::Dump, COMDAT
; _this$ = ecx

; 122  : 	{ /* no dumping in release builds */ }

  00000	c2 04 00	 ret	 4
?Dump@CObject@@UBEXAAVCDumpContext@@@Z ENDP		; CObject::Dump
_TEXT	ENDS
; Function compile flags: /Ogtp
; File C:\Program Files (x86)\Microsoft Visual Studio\2019\Community\VC\Tools\MSVC\14.29.30133\atlmfc\include\afx.inl
;	COMDAT ?AssertValid@CObject@@UBEXXZ
_TEXT	SEGMENT
?AssertValid@CObject@@UBEXXZ PROC			; CObject::AssertValid, COMDAT
; _this$ = ecx

; 120  : 	{ /* no asserts in release builds */ }

  00000	c2 00 00	 ret	 0
?AssertValid@CObject@@UBEXXZ ENDP			; CObject::AssertValid
_TEXT	ENDS
; Function compile flags: /Ogtp
; File C:\Program Files (x86)\Microsoft Visual Studio\2019\Community\VC\Tools\MSVC\14.29.30133\atlmfc\include\afx.inl
;	COMDAT ?Serialize@CObject@@UAEXAAVCArchive@@@Z
_TEXT	SEGMENT
___formal$ = 8						; size = 4
?Serialize@CObject@@UAEXAAVCArchive@@@Z PROC		; CObject::Serialize, COMDAT
; _this$ = ecx

; 106  : 	{ /* CObject does not serialize anything by default */ }

  00000	c2 04 00	 ret	 4
?Serialize@CObject@@UAEXAAVCArchive@@@Z ENDP		; CObject::Serialize
_TEXT	ENDS
; Function compile flags: /Ogtp
; File D:\git\src\IBK\IBK_DRFN\ProjSrc\SrcChartEx\ChartOCX\ChartToolBar\ScrollBarEx.cpp
;	COMDAT ?__empty_global_delete@@YAXPAXI@Z
_TEXT	SEGMENT
___formal$ = 8						; size = 4
___formal$ = 12						; size = 4
?__empty_global_delete@@YAXPAXI@Z PROC			; __empty_global_delete, COMDAT

  00000	c2 00 00	 ret	 0
?__empty_global_delete@@YAXPAXI@Z ENDP			; __empty_global_delete
_TEXT	ENDS
; Function compile flags: /Ogtp
; File D:\git\src\IBK\IBK_DRFN\ProjSrc\SrcChartEx\ChartOCX\ChartToolBar\ScrollBarEx.cpp
;	COMDAT ?__empty_global_delete@@YAXPAX@Z
_TEXT	SEGMENT
___formal$ = 8						; size = 4
?__empty_global_delete@@YAXPAX@Z PROC			; __empty_global_delete, COMDAT

  00000	c2 00 00	 ret	 0
?__empty_global_delete@@YAXPAX@Z ENDP			; __empty_global_delete
_TEXT	ENDS
END
