; Listing generated by Microsoft (R) Optimizing Compiler Version 19.29.30145.0 

	TITLE	D:\git\src\IBK\IBK_DRFN\#DRfn-CS\_Obj\ChartToolBar\SliderCtrlEx.obj
	.686P
	.XMM
	include listing.inc
	.model	flat

INCLUDELIB MSVCRT
INCLUDELIB OLDNAMES

PUBLIC	?__empty_global_delete@@YAXPAX@Z		; __empty_global_delete
PUBLIC	?__empty_global_delete@@YAXPAXI@Z		; __empty_global_delete
PUBLIC	?Serialize@CObject@@UAEXAAVCArchive@@@Z		; CObject::Serialize
PUBLIC	?AssertValid@CObject@@UBEXXZ			; CObject::AssertValid
PUBLIC	?Dump@CObject@@UBEXAAVCDumpContext@@@Z		; CObject::Dump
PUBLIC	?DoDataExchange@CWnd@@MAEXPAVCDataExchange@@@Z	; CWnd::DoDataExchange
PUBLIC	?BeginModalState@CWnd@@UAEXXZ			; CWnd::BeginModalState
PUBLIC	?EndModalState@CWnd@@UAEXXZ			; CWnd::EndModalState
PUBLIC	??_GCSliderCtrl@@UAEPAXI@Z			; CSliderCtrl::`scalar deleting destructor'
PUBLIC	??0CSliderCtrlEx@@QAE@XZ			; CSliderCtrlEx::CSliderCtrlEx
PUBLIC	??1CSliderCtrlEx@@UAE@XZ			; CSliderCtrlEx::~CSliderCtrlEx
PUBLIC	?OnCustomdraw@CSliderCtrlEx@@IAEXPAUtagNMHDR@@PAJ@Z ; CSliderCtrlEx::OnCustomdraw
PUBLIC	?OnSetFocus@CSliderCtrlEx@@IAEXPAVCWnd@@@Z	; CSliderCtrlEx::OnSetFocus
PUBLIC	?OnSize@CSliderCtrlEx@@IAEXIHH@Z		; CSliderCtrlEx::OnSize
PUBLIC	?GetThisMessageMap@CSliderCtrlEx@@KGPBUAFX_MSGMAP@@XZ ; CSliderCtrlEx::GetThisMessageMap
PUBLIC	?GetMessageMap@CSliderCtrlEx@@MBEPBUAFX_MSGMAP@@XZ ; CSliderCtrlEx::GetMessageMap
PUBLIC	??_GCSliderCtrlEx@@UAEPAXI@Z			; CSliderCtrlEx::`scalar deleting destructor'
PUBLIC	??_7CSliderCtrl@@6B@				; CSliderCtrl::`vftable'
PUBLIC	??_R0?AVCObject@@@8				; CObject `RTTI Type Descriptor'
PUBLIC	??_R3CObject@@8					; CObject::`RTTI Class Hierarchy Descriptor'
PUBLIC	??_R2CObject@@8					; CObject::`RTTI Base Class Array'
PUBLIC	??_R1A@?0A@EA@CObject@@8			; CObject::`RTTI Base Class Descriptor at (0,-1,0,64)'
PUBLIC	??_R1A@?0A@EA@CWnd@@8				; CWnd::`RTTI Base Class Descriptor at (0,-1,0,64)'
PUBLIC	??_R0?AVCWnd@@@8				; CWnd `RTTI Type Descriptor'
PUBLIC	??_R3CWnd@@8					; CWnd::`RTTI Class Hierarchy Descriptor'
PUBLIC	??_R2CWnd@@8					; CWnd::`RTTI Base Class Array'
PUBLIC	??_R1A@?0A@EA@CCmdTarget@@8			; CCmdTarget::`RTTI Base Class Descriptor at (0,-1,0,64)'
PUBLIC	??_R0?AVCCmdTarget@@@8				; CCmdTarget `RTTI Type Descriptor'
PUBLIC	??_R3CCmdTarget@@8				; CCmdTarget::`RTTI Class Hierarchy Descriptor'
PUBLIC	??_R2CCmdTarget@@8				; CCmdTarget::`RTTI Base Class Array'
PUBLIC	??_R4CSliderCtrl@@6B@				; CSliderCtrl::`RTTI Complete Object Locator'
PUBLIC	??_R0?AVCSliderCtrl@@@8				; CSliderCtrl `RTTI Type Descriptor'
PUBLIC	??_R3CSliderCtrl@@8				; CSliderCtrl::`RTTI Class Hierarchy Descriptor'
PUBLIC	??_R2CSliderCtrl@@8				; CSliderCtrl::`RTTI Base Class Array'
PUBLIC	??_R1A@?0A@EA@CSliderCtrl@@8			; CSliderCtrl::`RTTI Base Class Descriptor at (0,-1,0,64)'
PUBLIC	??_7CSliderCtrlEx@@6B@				; CSliderCtrlEx::`vftable'
PUBLIC	??_R4CSliderCtrlEx@@6B@				; CSliderCtrlEx::`RTTI Complete Object Locator'
PUBLIC	??_R0?AVCSliderCtrlEx@@@8			; CSliderCtrlEx `RTTI Type Descriptor'
PUBLIC	??_R3CSliderCtrlEx@@8				; CSliderCtrlEx::`RTTI Class Hierarchy Descriptor'
PUBLIC	??_R2CSliderCtrlEx@@8				; CSliderCtrlEx::`RTTI Base Class Array'
PUBLIC	??_R1A@?0A@EA@CSliderCtrlEx@@8			; CSliderCtrlEx::`RTTI Base Class Descriptor at (0,-1,0,64)'
EXTRN	??3@YAXPAX@Z:PROC				; operator delete
EXTRN	?__global_delete@@YAXPAXI@Z:PROC		; __global_delete
EXTRN	??_U@YAPAXI@Z:PROC				; operator new[]
EXTRN	??_V@YAXPAX@Z:PROC				; operator delete[]
EXTRN	__imp__PolyPolyline@16:PROC
EXTRN	__imp__EnableWindow@8:PROC
EXTRN	__imp__GetParent@4:PROC
EXTRN	?OnCmdMsg@CCmdTarget@@UAEHIHPAXPAUAFX_CMDHANDLERINFO@@@Z:PROC ; CCmdTarget::OnCmdMsg
EXTRN	?IsInvokeAllowed@CCmdTarget@@UAEHJ@Z:PROC	; CCmdTarget::IsInvokeAllowed
EXTRN	?GetDispatchIID@CCmdTarget@@UAEHPAU_GUID@@@Z:PROC ; CCmdTarget::GetDispatchIID
EXTRN	?GetTypeInfoCount@CCmdTarget@@UAEIXZ:PROC	; CCmdTarget::GetTypeInfoCount
EXTRN	?GetTypeLibCache@CCmdTarget@@UAEPAVCTypeLibCache@@XZ:PROC ; CCmdTarget::GetTypeLibCache
EXTRN	?GetTypeLib@CCmdTarget@@UAEJKPAPAUITypeLib@@@Z:PROC ; CCmdTarget::GetTypeLib
EXTRN	?GetCommandMap@CCmdTarget@@MBEPBUAFX_OLECMDMAP@@XZ:PROC ; CCmdTarget::GetCommandMap
EXTRN	?GetDispatchMap@CCmdTarget@@MBEPBUAFX_DISPMAP@@XZ:PROC ; CCmdTarget::GetDispatchMap
EXTRN	?GetConnectionMap@CCmdTarget@@MBEPBUAFX_CONNECTIONMAP@@XZ:PROC ; CCmdTarget::GetConnectionMap
EXTRN	?GetEventSinkMap@CCmdTarget@@MBEPBUAFX_EVENTSINKMAP@@XZ:PROC ; CCmdTarget::GetEventSinkMap
EXTRN	?OnCreateAggregates@CCmdTarget@@UAEHXZ:PROC	; CCmdTarget::OnCreateAggregates
EXTRN	?GetInterfaceHook@CCmdTarget@@UAEPAUIUnknown@@PBX@Z:PROC ; CCmdTarget::GetInterfaceHook
EXTRN	?GetExtraConnectionPoints@CCmdTarget@@MAEHPAVCPtrArray@@@Z:PROC ; CCmdTarget::GetExtraConnectionPoints
EXTRN	?GetConnectionHook@CCmdTarget@@MAEPAUIConnectionPoint@@ABU_GUID@@@Z:PROC ; CCmdTarget::GetConnectionHook
EXTRN	??0CWnd@@QAE@XZ:PROC				; CWnd::CWnd
EXTRN	?FromHandle@CWnd@@SGPAV1@PAUHWND__@@@Z:PROC	; CWnd::FromHandle
EXTRN	?PreSubclassWindow@CWnd@@UAEXXZ:PROC		; CWnd::PreSubclassWindow
EXTRN	?Create@CWnd@@UAEHPBD0KABUtagRECT@@PAV1@IPAUCCreateContext@@@Z:PROC ; CWnd::Create
EXTRN	?CreateEx@CWnd@@UAEHKPBD0KHHHHPAUHWND__@@PAUHMENU__@@PAX@Z:PROC ; CWnd::CreateEx
EXTRN	?CreateEx@CWnd@@UAEHKPBD0KABUtagRECT@@PAV1@IPAX@Z:PROC ; CWnd::CreateEx
EXTRN	?DestroyWindow@CWnd@@UAEHXZ:PROC		; CWnd::DestroyWindow
EXTRN	?PreCreateWindow@CWnd@@UAEHAAUtagCREATESTRUCTA@@@Z:PROC ; CWnd::PreCreateWindow
EXTRN	?CalcWindowRect@CWnd@@UAEXPAUtagRECT@@I@Z:PROC	; CWnd::CalcWindowRect
EXTRN	?GetMenu@CWnd@@UBEPAVCMenu@@XZ:PROC		; CWnd::GetMenu
EXTRN	?SetMenu@CWnd@@UAEHPAVCMenu@@@Z:PROC		; CWnd::SetMenu
EXTRN	?OnToolHitTest@CWnd@@UBEHVCPoint@@PAUtagTOOLINFOA@@@Z:PROC ; CWnd::OnToolHitTest
EXTRN	?SetFocus@CWnd@@QAEPAV1@XZ:PROC			; CWnd::SetFocus
EXTRN	?GetScrollBarCtrl@CWnd@@UBEPAVCScrollBar@@H@Z:PROC ; CWnd::GetScrollBarCtrl
EXTRN	?WinHelpA@CWnd@@UAEXKI@Z:PROC			; CWnd::WinHelpA
EXTRN	?HtmlHelpA@CWnd@@UAEXKI@Z:PROC			; CWnd::HtmlHelpA
EXTRN	?WinHelpInternal@CWnd@@UAEXKI@Z:PROC		; CWnd::WinHelpInternal
EXTRN	?ContinueModal@CWnd@@UAEHXZ:PROC		; CWnd::ContinueModal
EXTRN	?EndModalLoop@CWnd@@UAEXH@Z:PROC		; CWnd::EndModalLoop
EXTRN	?OnDrawIconicThumbnailOrLivePreview@CWnd@@UAEXAAVCDC@@VCRect@@VCSize@@HAAH@Z:PROC ; CWnd::OnDrawIconicThumbnailOrLivePreview
EXTRN	?GetInterfaceMap@CWnd@@MBEPBUAFX_INTERFACEMAP@@XZ:PROC ; CWnd::GetInterfaceMap
EXTRN	?EnsureStdObj@CWnd@@UAEJXZ:PROC			; CWnd::EnsureStdObj
EXTRN	?get_accParent@CWnd@@UAEJPAPAUIDispatch@@@Z:PROC ; CWnd::get_accParent
EXTRN	?get_accChildCount@CWnd@@UAEJPAJ@Z:PROC		; CWnd::get_accChildCount
EXTRN	?get_accChild@CWnd@@UAEJUtagVARIANT@@PAPAUIDispatch@@@Z:PROC ; CWnd::get_accChild
EXTRN	?get_accName@CWnd@@UAEJUtagVARIANT@@PAPA_W@Z:PROC ; CWnd::get_accName
EXTRN	?get_accValue@CWnd@@UAEJUtagVARIANT@@PAPA_W@Z:PROC ; CWnd::get_accValue
EXTRN	?get_accDescription@CWnd@@UAEJUtagVARIANT@@PAPA_W@Z:PROC ; CWnd::get_accDescription
EXTRN	?get_accRole@CWnd@@UAEJUtagVARIANT@@PAU2@@Z:PROC ; CWnd::get_accRole
EXTRN	?get_accState@CWnd@@UAEJUtagVARIANT@@PAU2@@Z:PROC ; CWnd::get_accState
EXTRN	?get_accHelp@CWnd@@UAEJUtagVARIANT@@PAPA_W@Z:PROC ; CWnd::get_accHelp
EXTRN	?get_accHelpTopic@CWnd@@UAEJPAPA_WUtagVARIANT@@PAJ@Z:PROC ; CWnd::get_accHelpTopic
EXTRN	?get_accKeyboardShortcut@CWnd@@UAEJUtagVARIANT@@PAPA_W@Z:PROC ; CWnd::get_accKeyboardShortcut
EXTRN	?get_accFocus@CWnd@@UAEJPAUtagVARIANT@@@Z:PROC	; CWnd::get_accFocus
EXTRN	?get_accSelection@CWnd@@UAEJPAUtagVARIANT@@@Z:PROC ; CWnd::get_accSelection
EXTRN	?get_accDefaultAction@CWnd@@UAEJUtagVARIANT@@PAPA_W@Z:PROC ; CWnd::get_accDefaultAction
EXTRN	?accSelect@CWnd@@UAEJJUtagVARIANT@@@Z:PROC	; CWnd::accSelect
EXTRN	?accLocation@CWnd@@UAEJPAJ000UtagVARIANT@@@Z:PROC ; CWnd::accLocation
EXTRN	?accNavigate@CWnd@@UAEJJUtagVARIANT@@PAU2@@Z:PROC ; CWnd::accNavigate
EXTRN	?accHitTest@CWnd@@UAEJJJPAUtagVARIANT@@@Z:PROC	; CWnd::accHitTest
EXTRN	?accDoDefaultAction@CWnd@@UAEJUtagVARIANT@@@Z:PROC ; CWnd::accDoDefaultAction
EXTRN	?put_accName@CWnd@@UAEJUtagVARIANT@@PA_W@Z:PROC	; CWnd::put_accName
EXTRN	?put_accValue@CWnd@@UAEJUtagVARIANT@@PA_W@Z:PROC ; CWnd::put_accValue
EXTRN	?SetProxy@CWnd@@UAEJPAUIAccessibleProxy@@@Z:PROC ; CWnd::SetProxy
EXTRN	?CreateAccessibleProxy@CWnd@@UAEJIJPAJ@Z:PROC	; CWnd::CreateAccessibleProxy
EXTRN	?OnCommand@CWnd@@MAEHIJ@Z:PROC			; CWnd::OnCommand
EXTRN	?OnNotify@CWnd@@MAEHIJPAJ@Z:PROC		; CWnd::OnNotify
EXTRN	?GetSuperWndProcAddr@CWnd@@MAEPAP6GJPAUHWND__@@IIJ@ZXZ:PROC ; CWnd::GetSuperWndProcAddr
EXTRN	?PreTranslateMessage@CWnd@@UAEHPAUtagMSG@@@Z:PROC ; CWnd::PreTranslateMessage
EXTRN	?OnAmbientProperty@CWnd@@UAEHPAVCOleControlSite@@JPAUtagVARIANT@@@Z:PROC ; CWnd::OnAmbientProperty
EXTRN	?WindowProc@CWnd@@MAEJIIJ@Z:PROC		; CWnd::WindowProc
EXTRN	?OnWndMsg@CWnd@@MAEHIIJPAJ@Z:PROC		; CWnd::OnWndMsg
EXTRN	?Default@CWnd@@IAEJXZ:PROC			; CWnd::Default
EXTRN	?DefWindowProcA@CWnd@@MAEJIIJ@Z:PROC		; CWnd::DefWindowProcA
EXTRN	?PostNcDestroy@CWnd@@MAEXXZ:PROC		; CWnd::PostNcDestroy
EXTRN	?OnChildNotify@CWnd@@MAEHIIJPAJ@Z:PROC		; CWnd::OnChildNotify
EXTRN	?OnTouchInputs@CWnd@@MAEHIPAUtagTOUCHINPUT@@@Z:PROC ; CWnd::OnTouchInputs
EXTRN	?OnTouchInput@CWnd@@MAEHVCPoint@@HHPAUtagTOUCHINPUT@@@Z:PROC ; CWnd::OnTouchInput
EXTRN	?GetGestureStatus@CWnd@@MAEKVCPoint@@@Z:PROC	; CWnd::GetGestureStatus
EXTRN	?OnGestureZoom@CWnd@@MAEHVCPoint@@J@Z:PROC	; CWnd::OnGestureZoom
EXTRN	?OnGesturePan@CWnd@@MAEHVCPoint@@0@Z:PROC	; CWnd::OnGesturePan
EXTRN	?OnGestureRotate@CWnd@@MAEHVCPoint@@N@Z:PROC	; CWnd::OnGestureRotate
EXTRN	?OnGestureTwoFingerTap@CWnd@@MAEHVCPoint@@@Z:PROC ; CWnd::OnGestureTwoFingerTap
EXTRN	?OnGesturePressAndTap@CWnd@@MAEHVCPoint@@J@Z:PROC ; CWnd::OnGesturePressAndTap
EXTRN	?ResizeDynamicLayout@CWnd@@MAEXXZ:PROC		; CWnd::ResizeDynamicLayout
EXTRN	?CheckAutoCenter@CWnd@@UAEHXZ:PROC		; CWnd::CheckAutoCenter
EXTRN	?IsFrameWnd@CWnd@@UBEHXZ:PROC			; CWnd::IsFrameWnd
EXTRN	?OnFinalRelease@CWnd@@UAEXXZ:PROC		; CWnd::OnFinalRelease
EXTRN	?CreateControlContainer@CWnd@@MAEHPAPAVCOleControlContainer@@@Z:PROC ; CWnd::CreateControlContainer
EXTRN	?CreateControlSite@CWnd@@MAEHPAVCOleControlContainer@@PAPAVCOleControlSite@@IABU_GUID@@@Z:PROC ; CWnd::CreateControlSite
EXTRN	?SetOccDialogInfo@CWnd@@MAEHPAU_AFX_OCC_DIALOG_INFO@@@Z:PROC ; CWnd::SetOccDialogInfo
EXTRN	?GetOccDialogInfo@CWnd@@MAEPAU_AFX_OCC_DIALOG_INFO@@XZ:PROC ; CWnd::GetOccDialogInfo
EXTRN	?GetThisMessageMap@CWnd@@KGPBUAFX_MSGMAP@@XZ:PROC ; CWnd::GetThisMessageMap
EXTRN	?GetMessageMap@CWnd@@MBEPBUAFX_MSGMAP@@XZ:PROC	; CWnd::GetMessageMap
EXTRN	?GetRuntimeClass@CSliderCtrl@@UBEPAUCRuntimeClass@@XZ:PROC ; CSliderCtrl::GetRuntimeClass
EXTRN	?Create@CSliderCtrl@@UAEHKABUtagRECT@@PAVCWnd@@I@Z:PROC ; CSliderCtrl::Create
EXTRN	?CreateEx@CSliderCtrl@@UAEHKKABUtagRECT@@PAVCWnd@@I@Z:PROC ; CSliderCtrl::CreateEx
EXTRN	??1CSliderCtrl@@UAE@XZ:PROC			; CSliderCtrl::~CSliderCtrl
EXTRN	??_ECSliderCtrl@@UAEPAXI@Z:PROC			; CSliderCtrl::`vector deleting destructor'
EXTRN	??_ECSliderCtrlEx@@UAEPAXI@Z:PROC		; CSliderCtrlEx::`vector deleting destructor'
EXTRN	??_7type_info@@6B@:QWORD			; type_info::`vftable'
;	COMDAT ??_R1A@?0A@EA@CSliderCtrlEx@@8
rdata$r	SEGMENT
??_R1A@?0A@EA@CSliderCtrlEx@@8 DD FLAT:??_R0?AVCSliderCtrlEx@@@8 ; CSliderCtrlEx::`RTTI Base Class Descriptor at (0,-1,0,64)'
	DD	04H
	DD	00H
	DD	0ffffffffH
	DD	00H
	DD	040H
	DD	FLAT:??_R3CSliderCtrlEx@@8
rdata$r	ENDS
;	COMDAT ??_R2CSliderCtrlEx@@8
rdata$r	SEGMENT
??_R2CSliderCtrlEx@@8 DD FLAT:??_R1A@?0A@EA@CSliderCtrlEx@@8 ; CSliderCtrlEx::`RTTI Base Class Array'
	DD	FLAT:??_R1A@?0A@EA@CSliderCtrl@@8
	DD	FLAT:??_R1A@?0A@EA@CWnd@@8
	DD	FLAT:??_R1A@?0A@EA@CCmdTarget@@8
	DD	FLAT:??_R1A@?0A@EA@CObject@@8
rdata$r	ENDS
;	COMDAT ??_R3CSliderCtrlEx@@8
rdata$r	SEGMENT
??_R3CSliderCtrlEx@@8 DD 00H				; CSliderCtrlEx::`RTTI Class Hierarchy Descriptor'
	DD	00H
	DD	05H
	DD	FLAT:??_R2CSliderCtrlEx@@8
rdata$r	ENDS
;	COMDAT ??_R0?AVCSliderCtrlEx@@@8
data$rs	SEGMENT
??_R0?AVCSliderCtrlEx@@@8 DD FLAT:??_7type_info@@6B@	; CSliderCtrlEx `RTTI Type Descriptor'
	DD	00H
	DB	'.?AVCSliderCtrlEx@@', 00H
data$rs	ENDS
;	COMDAT ??_R4CSliderCtrlEx@@6B@
rdata$r	SEGMENT
??_R4CSliderCtrlEx@@6B@ DD 00H				; CSliderCtrlEx::`RTTI Complete Object Locator'
	DD	00H
	DD	00H
	DD	FLAT:??_R0?AVCSliderCtrlEx@@@8
	DD	FLAT:??_R3CSliderCtrlEx@@8
rdata$r	ENDS
;	COMDAT ?messageMap@?1??GetThisMessageMap@CSliderCtrlEx@@KGPBUAFX_MSGMAP@@XZ@4U3@B
CONST	SEGMENT
?messageMap@?1??GetThisMessageMap@CSliderCtrlEx@@KGPBUAFX_MSGMAP@@XZ@4U3@B DD FLAT:?GetThisMessageMap@CWnd@@KGPBUAFX_MSGMAP@@XZ ; `CSliderCtrlEx::GetThisMessageMap'::`2'::messageMap
	DD	FLAT:?_messageEntries@?1??GetThisMessageMap@CSliderCtrlEx@@KGPBUAFX_MSGMAP@@XZ@4QBUAFX_MSGMAP_ENTRY@@B
CONST	ENDS
;	COMDAT ?_messageEntries@?1??GetThisMessageMap@CSliderCtrlEx@@KGPBUAFX_MSGMAP@@XZ@4QBUAFX_MSGMAP_ENTRY@@B
CONST	SEGMENT
?_messageEntries@?1??GetThisMessageMap@CSliderCtrlEx@@KGPBUAFX_MSGMAP@@XZ@4QBUAFX_MSGMAP_ENTRY@@B DD 0bc4eH ; `CSliderCtrlEx::GetThisMessageMap'::`2'::_messageEntries
	DD	0fff4H
	DD	00H
	DD	00H
	DD	03eH
	DD	FLAT:?OnCustomdraw@CSliderCtrlEx@@IAEXPAUtagNMHDR@@PAJ@Z
	DD	07H
	DD	00H
	DD	00H
	DD	00H
	DD	024H
	DD	FLAT:?OnSetFocus@CSliderCtrlEx@@IAEXPAVCWnd@@@Z
	DD	05H
	DD	00H
	DD	00H
	DD	00H
	DD	01aH
	DD	FLAT:?OnSize@CSliderCtrlEx@@IAEXIHH@Z
	DD	00H
	DD	00H
	DD	00H
	DD	00H
	DD	00H
	DD	00H
CONST	ENDS
;	COMDAT ??_7CSliderCtrlEx@@6B@
CONST	SEGMENT
??_7CSliderCtrlEx@@6B@ DD FLAT:??_R4CSliderCtrlEx@@6B@	; CSliderCtrlEx::`vftable'
	DD	FLAT:?GetRuntimeClass@CSliderCtrl@@UBEPAUCRuntimeClass@@XZ
	DD	FLAT:??_ECSliderCtrlEx@@UAEPAXI@Z
	DD	FLAT:?Serialize@CObject@@UAEXAAVCArchive@@@Z
	DD	FLAT:?AssertValid@CObject@@UBEXXZ
	DD	FLAT:?Dump@CObject@@UBEXAAVCDumpContext@@@Z
	DD	FLAT:?OnCmdMsg@CCmdTarget@@UAEHIHPAXPAUAFX_CMDHANDLERINFO@@@Z
	DD	FLAT:?OnFinalRelease@CWnd@@UAEXXZ
	DD	FLAT:?IsInvokeAllowed@CCmdTarget@@UAEHJ@Z
	DD	FLAT:?GetDispatchIID@CCmdTarget@@UAEHPAU_GUID@@@Z
	DD	FLAT:?GetTypeInfoCount@CCmdTarget@@UAEIXZ
	DD	FLAT:?GetTypeLibCache@CCmdTarget@@UAEPAVCTypeLibCache@@XZ
	DD	FLAT:?GetTypeLib@CCmdTarget@@UAEJKPAPAUITypeLib@@@Z
	DD	FLAT:?GetMessageMap@CSliderCtrlEx@@MBEPBUAFX_MSGMAP@@XZ
	DD	FLAT:?GetCommandMap@CCmdTarget@@MBEPBUAFX_OLECMDMAP@@XZ
	DD	FLAT:?GetDispatchMap@CCmdTarget@@MBEPBUAFX_DISPMAP@@XZ
	DD	FLAT:?GetConnectionMap@CCmdTarget@@MBEPBUAFX_CONNECTIONMAP@@XZ
	DD	FLAT:?GetInterfaceMap@CWnd@@MBEPBUAFX_INTERFACEMAP@@XZ
	DD	FLAT:?GetEventSinkMap@CCmdTarget@@MBEPBUAFX_EVENTSINKMAP@@XZ
	DD	FLAT:?OnCreateAggregates@CCmdTarget@@UAEHXZ
	DD	FLAT:?GetInterfaceHook@CCmdTarget@@UAEPAUIUnknown@@PBX@Z
	DD	FLAT:?GetExtraConnectionPoints@CCmdTarget@@MAEHPAVCPtrArray@@@Z
	DD	FLAT:?GetConnectionHook@CCmdTarget@@MAEPAUIConnectionPoint@@ABU_GUID@@@Z
	DD	FLAT:?PreSubclassWindow@CWnd@@UAEXXZ
	DD	FLAT:?Create@CWnd@@UAEHPBD0KABUtagRECT@@PAV1@IPAUCCreateContext@@@Z
	DD	FLAT:?CreateEx@CWnd@@UAEHKPBD0KABUtagRECT@@PAV1@IPAX@Z
	DD	FLAT:?CreateEx@CWnd@@UAEHKPBD0KHHHHPAUHWND__@@PAUHMENU__@@PAX@Z
	DD	FLAT:?DestroyWindow@CWnd@@UAEHXZ
	DD	FLAT:?PreCreateWindow@CWnd@@UAEHAAUtagCREATESTRUCTA@@@Z
	DD	FLAT:?CalcWindowRect@CWnd@@UAEXPAUtagRECT@@I@Z
	DD	FLAT:?GetMenu@CWnd@@UBEPAVCMenu@@XZ
	DD	FLAT:?SetMenu@CWnd@@UAEHPAVCMenu@@@Z
	DD	FLAT:?OnToolHitTest@CWnd@@UBEHVCPoint@@PAUtagTOOLINFOA@@@Z
	DD	FLAT:?GetScrollBarCtrl@CWnd@@UBEPAVCScrollBar@@H@Z
	DD	FLAT:?WinHelpA@CWnd@@UAEXKI@Z
	DD	FLAT:?HtmlHelpA@CWnd@@UAEXKI@Z
	DD	FLAT:?WinHelpInternal@CWnd@@UAEXKI@Z
	DD	FLAT:?ContinueModal@CWnd@@UAEHXZ
	DD	FLAT:?EndModalLoop@CWnd@@UAEXH@Z
	DD	FLAT:?OnDrawIconicThumbnailOrLivePreview@CWnd@@UAEXAAVCDC@@VCRect@@VCSize@@HAAH@Z
	DD	FLAT:?EnsureStdObj@CWnd@@UAEJXZ
	DD	FLAT:?get_accParent@CWnd@@UAEJPAPAUIDispatch@@@Z
	DD	FLAT:?get_accChildCount@CWnd@@UAEJPAJ@Z
	DD	FLAT:?get_accChild@CWnd@@UAEJUtagVARIANT@@PAPAUIDispatch@@@Z
	DD	FLAT:?get_accName@CWnd@@UAEJUtagVARIANT@@PAPA_W@Z
	DD	FLAT:?get_accValue@CWnd@@UAEJUtagVARIANT@@PAPA_W@Z
	DD	FLAT:?get_accDescription@CWnd@@UAEJUtagVARIANT@@PAPA_W@Z
	DD	FLAT:?get_accRole@CWnd@@UAEJUtagVARIANT@@PAU2@@Z
	DD	FLAT:?get_accState@CWnd@@UAEJUtagVARIANT@@PAU2@@Z
	DD	FLAT:?get_accHelp@CWnd@@UAEJUtagVARIANT@@PAPA_W@Z
	DD	FLAT:?get_accHelpTopic@CWnd@@UAEJPAPA_WUtagVARIANT@@PAJ@Z
	DD	FLAT:?get_accKeyboardShortcut@CWnd@@UAEJUtagVARIANT@@PAPA_W@Z
	DD	FLAT:?get_accFocus@CWnd@@UAEJPAUtagVARIANT@@@Z
	DD	FLAT:?get_accSelection@CWnd@@UAEJPAUtagVARIANT@@@Z
	DD	FLAT:?get_accDefaultAction@CWnd@@UAEJUtagVARIANT@@PAPA_W@Z
	DD	FLAT:?accSelect@CWnd@@UAEJJUtagVARIANT@@@Z
	DD	FLAT:?accLocation@CWnd@@UAEJPAJ000UtagVARIANT@@@Z
	DD	FLAT:?accNavigate@CWnd@@UAEJJUtagVARIANT@@PAU2@@Z
	DD	FLAT:?accHitTest@CWnd@@UAEJJJPAUtagVARIANT@@@Z
	DD	FLAT:?accDoDefaultAction@CWnd@@UAEJUtagVARIANT@@@Z
	DD	FLAT:?put_accName@CWnd@@UAEJUtagVARIANT@@PA_W@Z
	DD	FLAT:?put_accValue@CWnd@@UAEJUtagVARIANT@@PA_W@Z
	DD	FLAT:?SetProxy@CWnd@@UAEJPAUIAccessibleProxy@@@Z
	DD	FLAT:?CreateAccessibleProxy@CWnd@@UAEJIJPAJ@Z
	DD	FLAT:?OnCommand@CWnd@@MAEHIJ@Z
	DD	FLAT:?OnNotify@CWnd@@MAEHIJPAJ@Z
	DD	FLAT:?GetSuperWndProcAddr@CWnd@@MAEPAP6GJPAUHWND__@@IIJ@ZXZ
	DD	FLAT:?DoDataExchange@CWnd@@MAEXPAVCDataExchange@@@Z
	DD	FLAT:?BeginModalState@CWnd@@UAEXXZ
	DD	FLAT:?EndModalState@CWnd@@UAEXXZ
	DD	FLAT:?PreTranslateMessage@CWnd@@UAEHPAUtagMSG@@@Z
	DD	FLAT:?OnAmbientProperty@CWnd@@UAEHPAVCOleControlSite@@JPAUtagVARIANT@@@Z
	DD	FLAT:?WindowProc@CWnd@@MAEJIIJ@Z
	DD	FLAT:?OnWndMsg@CWnd@@MAEHIIJPAJ@Z
	DD	FLAT:?DefWindowProcA@CWnd@@MAEJIIJ@Z
	DD	FLAT:?PostNcDestroy@CWnd@@MAEXXZ
	DD	FLAT:?OnChildNotify@CWnd@@MAEHIIJPAJ@Z
	DD	FLAT:?OnTouchInputs@CWnd@@MAEHIPAUtagTOUCHINPUT@@@Z
	DD	FLAT:?OnTouchInput@CWnd@@MAEHVCPoint@@HHPAUtagTOUCHINPUT@@@Z
	DD	FLAT:?GetGestureStatus@CWnd@@MAEKVCPoint@@@Z
	DD	FLAT:?OnGestureZoom@CWnd@@MAEHVCPoint@@J@Z
	DD	FLAT:?OnGesturePan@CWnd@@MAEHVCPoint@@0@Z
	DD	FLAT:?OnGestureRotate@CWnd@@MAEHVCPoint@@N@Z
	DD	FLAT:?OnGestureTwoFingerTap@CWnd@@MAEHVCPoint@@@Z
	DD	FLAT:?OnGesturePressAndTap@CWnd@@MAEHVCPoint@@J@Z
	DD	FLAT:?ResizeDynamicLayout@CWnd@@MAEXXZ
	DD	FLAT:?CheckAutoCenter@CWnd@@UAEHXZ
	DD	FLAT:?IsFrameWnd@CWnd@@UBEHXZ
	DD	FLAT:?CreateControlContainer@CWnd@@MAEHPAPAVCOleControlContainer@@@Z
	DD	FLAT:?CreateControlSite@CWnd@@MAEHPAVCOleControlContainer@@PAPAVCOleControlSite@@IABU_GUID@@@Z
	DD	FLAT:?SetOccDialogInfo@CWnd@@MAEHPAU_AFX_OCC_DIALOG_INFO@@@Z
	DD	FLAT:?GetOccDialogInfo@CWnd@@MAEPAU_AFX_OCC_DIALOG_INFO@@XZ
	DD	FLAT:?Create@CSliderCtrl@@UAEHKABUtagRECT@@PAVCWnd@@I@Z
	DD	FLAT:?CreateEx@CSliderCtrl@@UAEHKKABUtagRECT@@PAVCWnd@@I@Z
CONST	ENDS
;	COMDAT ??_R1A@?0A@EA@CSliderCtrl@@8
rdata$r	SEGMENT
??_R1A@?0A@EA@CSliderCtrl@@8 DD FLAT:??_R0?AVCSliderCtrl@@@8 ; CSliderCtrl::`RTTI Base Class Descriptor at (0,-1,0,64)'
	DD	03H
	DD	00H
	DD	0ffffffffH
	DD	00H
	DD	040H
	DD	FLAT:??_R3CSliderCtrl@@8
rdata$r	ENDS
;	COMDAT ??_R2CSliderCtrl@@8
rdata$r	SEGMENT
??_R2CSliderCtrl@@8 DD FLAT:??_R1A@?0A@EA@CSliderCtrl@@8 ; CSliderCtrl::`RTTI Base Class Array'
	DD	FLAT:??_R1A@?0A@EA@CWnd@@8
	DD	FLAT:??_R1A@?0A@EA@CCmdTarget@@8
	DD	FLAT:??_R1A@?0A@EA@CObject@@8
rdata$r	ENDS
;	COMDAT ??_R3CSliderCtrl@@8
rdata$r	SEGMENT
??_R3CSliderCtrl@@8 DD 00H				; CSliderCtrl::`RTTI Class Hierarchy Descriptor'
	DD	00H
	DD	04H
	DD	FLAT:??_R2CSliderCtrl@@8
rdata$r	ENDS
;	COMDAT ??_R0?AVCSliderCtrl@@@8
data$rs	SEGMENT
??_R0?AVCSliderCtrl@@@8 DD FLAT:??_7type_info@@6B@	; CSliderCtrl `RTTI Type Descriptor'
	DD	00H
	DB	'.?AVCSliderCtrl@@', 00H
data$rs	ENDS
;	COMDAT ??_R4CSliderCtrl@@6B@
rdata$r	SEGMENT
??_R4CSliderCtrl@@6B@ DD 00H				; CSliderCtrl::`RTTI Complete Object Locator'
	DD	00H
	DD	00H
	DD	FLAT:??_R0?AVCSliderCtrl@@@8
	DD	FLAT:??_R3CSliderCtrl@@8
rdata$r	ENDS
;	COMDAT ??_R2CCmdTarget@@8
rdata$r	SEGMENT
??_R2CCmdTarget@@8 DD FLAT:??_R1A@?0A@EA@CCmdTarget@@8	; CCmdTarget::`RTTI Base Class Array'
	DD	FLAT:??_R1A@?0A@EA@CObject@@8
rdata$r	ENDS
;	COMDAT ??_R3CCmdTarget@@8
rdata$r	SEGMENT
??_R3CCmdTarget@@8 DD 00H				; CCmdTarget::`RTTI Class Hierarchy Descriptor'
	DD	00H
	DD	02H
	DD	FLAT:??_R2CCmdTarget@@8
rdata$r	ENDS
;	COMDAT ??_R0?AVCCmdTarget@@@8
data$rs	SEGMENT
??_R0?AVCCmdTarget@@@8 DD FLAT:??_7type_info@@6B@	; CCmdTarget `RTTI Type Descriptor'
	DD	00H
	DB	'.?AVCCmdTarget@@', 00H
data$rs	ENDS
;	COMDAT ??_R1A@?0A@EA@CCmdTarget@@8
rdata$r	SEGMENT
??_R1A@?0A@EA@CCmdTarget@@8 DD FLAT:??_R0?AVCCmdTarget@@@8 ; CCmdTarget::`RTTI Base Class Descriptor at (0,-1,0,64)'
	DD	01H
	DD	00H
	DD	0ffffffffH
	DD	00H
	DD	040H
	DD	FLAT:??_R3CCmdTarget@@8
rdata$r	ENDS
;	COMDAT ??_R2CWnd@@8
rdata$r	SEGMENT
??_R2CWnd@@8 DD	FLAT:??_R1A@?0A@EA@CWnd@@8		; CWnd::`RTTI Base Class Array'
	DD	FLAT:??_R1A@?0A@EA@CCmdTarget@@8
	DD	FLAT:??_R1A@?0A@EA@CObject@@8
rdata$r	ENDS
;	COMDAT ??_R3CWnd@@8
rdata$r	SEGMENT
??_R3CWnd@@8 DD	00H					; CWnd::`RTTI Class Hierarchy Descriptor'
	DD	00H
	DD	03H
	DD	FLAT:??_R2CWnd@@8
rdata$r	ENDS
;	COMDAT ??_R0?AVCWnd@@@8
data$rs	SEGMENT
??_R0?AVCWnd@@@8 DD FLAT:??_7type_info@@6B@		; CWnd `RTTI Type Descriptor'
	DD	00H
	DB	'.?AVCWnd@@', 00H
data$rs	ENDS
;	COMDAT ??_R1A@?0A@EA@CWnd@@8
rdata$r	SEGMENT
??_R1A@?0A@EA@CWnd@@8 DD FLAT:??_R0?AVCWnd@@@8		; CWnd::`RTTI Base Class Descriptor at (0,-1,0,64)'
	DD	02H
	DD	00H
	DD	0ffffffffH
	DD	00H
	DD	040H
	DD	FLAT:??_R3CWnd@@8
rdata$r	ENDS
;	COMDAT ??_R1A@?0A@EA@CObject@@8
rdata$r	SEGMENT
??_R1A@?0A@EA@CObject@@8 DD FLAT:??_R0?AVCObject@@@8	; CObject::`RTTI Base Class Descriptor at (0,-1,0,64)'
	DD	00H
	DD	00H
	DD	0ffffffffH
	DD	00H
	DD	040H
	DD	FLAT:??_R3CObject@@8
rdata$r	ENDS
;	COMDAT ??_R2CObject@@8
rdata$r	SEGMENT
??_R2CObject@@8 DD FLAT:??_R1A@?0A@EA@CObject@@8	; CObject::`RTTI Base Class Array'
rdata$r	ENDS
;	COMDAT ??_R3CObject@@8
rdata$r	SEGMENT
??_R3CObject@@8 DD 00H					; CObject::`RTTI Class Hierarchy Descriptor'
	DD	00H
	DD	01H
	DD	FLAT:??_R2CObject@@8
rdata$r	ENDS
;	COMDAT ??_R0?AVCObject@@@8
data$rs	SEGMENT
??_R0?AVCObject@@@8 DD FLAT:??_7type_info@@6B@		; CObject `RTTI Type Descriptor'
	DD	00H
	DB	'.?AVCObject@@', 00H
data$rs	ENDS
;	COMDAT ??_7CSliderCtrl@@6B@
CONST	SEGMENT
??_7CSliderCtrl@@6B@ DD FLAT:??_R4CSliderCtrl@@6B@	; CSliderCtrl::`vftable'
	DD	FLAT:?GetRuntimeClass@CSliderCtrl@@UBEPAUCRuntimeClass@@XZ
	DD	FLAT:??_ECSliderCtrl@@UAEPAXI@Z
	DD	FLAT:?Serialize@CObject@@UAEXAAVCArchive@@@Z
	DD	FLAT:?AssertValid@CObject@@UBEXXZ
	DD	FLAT:?Dump@CObject@@UBEXAAVCDumpContext@@@Z
	DD	FLAT:?OnCmdMsg@CCmdTarget@@UAEHIHPAXPAUAFX_CMDHANDLERINFO@@@Z
	DD	FLAT:?OnFinalRelease@CWnd@@UAEXXZ
	DD	FLAT:?IsInvokeAllowed@CCmdTarget@@UAEHJ@Z
	DD	FLAT:?GetDispatchIID@CCmdTarget@@UAEHPAU_GUID@@@Z
	DD	FLAT:?GetTypeInfoCount@CCmdTarget@@UAEIXZ
	DD	FLAT:?GetTypeLibCache@CCmdTarget@@UAEPAVCTypeLibCache@@XZ
	DD	FLAT:?GetTypeLib@CCmdTarget@@UAEJKPAPAUITypeLib@@@Z
	DD	FLAT:?GetMessageMap@CWnd@@MBEPBUAFX_MSGMAP@@XZ
	DD	FLAT:?GetCommandMap@CCmdTarget@@MBEPBUAFX_OLECMDMAP@@XZ
	DD	FLAT:?GetDispatchMap@CCmdTarget@@MBEPBUAFX_DISPMAP@@XZ
	DD	FLAT:?GetConnectionMap@CCmdTarget@@MBEPBUAFX_CONNECTIONMAP@@XZ
	DD	FLAT:?GetInterfaceMap@CWnd@@MBEPBUAFX_INTERFACEMAP@@XZ
	DD	FLAT:?GetEventSinkMap@CCmdTarget@@MBEPBUAFX_EVENTSINKMAP@@XZ
	DD	FLAT:?OnCreateAggregates@CCmdTarget@@UAEHXZ
	DD	FLAT:?GetInterfaceHook@CCmdTarget@@UAEPAUIUnknown@@PBX@Z
	DD	FLAT:?GetExtraConnectionPoints@CCmdTarget@@MAEHPAVCPtrArray@@@Z
	DD	FLAT:?GetConnectionHook@CCmdTarget@@MAEPAUIConnectionPoint@@ABU_GUID@@@Z
	DD	FLAT:?PreSubclassWindow@CWnd@@UAEXXZ
	DD	FLAT:?Create@CWnd@@UAEHPBD0KABUtagRECT@@PAV1@IPAUCCreateContext@@@Z
	DD	FLAT:?CreateEx@CWnd@@UAEHKPBD0KABUtagRECT@@PAV1@IPAX@Z
	DD	FLAT:?CreateEx@CWnd@@UAEHKPBD0KHHHHPAUHWND__@@PAUHMENU__@@PAX@Z
	DD	FLAT:?DestroyWindow@CWnd@@UAEHXZ
	DD	FLAT:?PreCreateWindow@CWnd@@UAEHAAUtagCREATESTRUCTA@@@Z
	DD	FLAT:?CalcWindowRect@CWnd@@UAEXPAUtagRECT@@I@Z
	DD	FLAT:?GetMenu@CWnd@@UBEPAVCMenu@@XZ
	DD	FLAT:?SetMenu@CWnd@@UAEHPAVCMenu@@@Z
	DD	FLAT:?OnToolHitTest@CWnd@@UBEHVCPoint@@PAUtagTOOLINFOA@@@Z
	DD	FLAT:?GetScrollBarCtrl@CWnd@@UBEPAVCScrollBar@@H@Z
	DD	FLAT:?WinHelpA@CWnd@@UAEXKI@Z
	DD	FLAT:?HtmlHelpA@CWnd@@UAEXKI@Z
	DD	FLAT:?WinHelpInternal@CWnd@@UAEXKI@Z
	DD	FLAT:?ContinueModal@CWnd@@UAEHXZ
	DD	FLAT:?EndModalLoop@CWnd@@UAEXH@Z
	DD	FLAT:?OnDrawIconicThumbnailOrLivePreview@CWnd@@UAEXAAVCDC@@VCRect@@VCSize@@HAAH@Z
	DD	FLAT:?EnsureStdObj@CWnd@@UAEJXZ
	DD	FLAT:?get_accParent@CWnd@@UAEJPAPAUIDispatch@@@Z
	DD	FLAT:?get_accChildCount@CWnd@@UAEJPAJ@Z
	DD	FLAT:?get_accChild@CWnd@@UAEJUtagVARIANT@@PAPAUIDispatch@@@Z
	DD	FLAT:?get_accName@CWnd@@UAEJUtagVARIANT@@PAPA_W@Z
	DD	FLAT:?get_accValue@CWnd@@UAEJUtagVARIANT@@PAPA_W@Z
	DD	FLAT:?get_accDescription@CWnd@@UAEJUtagVARIANT@@PAPA_W@Z
	DD	FLAT:?get_accRole@CWnd@@UAEJUtagVARIANT@@PAU2@@Z
	DD	FLAT:?get_accState@CWnd@@UAEJUtagVARIANT@@PAU2@@Z
	DD	FLAT:?get_accHelp@CWnd@@UAEJUtagVARIANT@@PAPA_W@Z
	DD	FLAT:?get_accHelpTopic@CWnd@@UAEJPAPA_WUtagVARIANT@@PAJ@Z
	DD	FLAT:?get_accKeyboardShortcut@CWnd@@UAEJUtagVARIANT@@PAPA_W@Z
	DD	FLAT:?get_accFocus@CWnd@@UAEJPAUtagVARIANT@@@Z
	DD	FLAT:?get_accSelection@CWnd@@UAEJPAUtagVARIANT@@@Z
	DD	FLAT:?get_accDefaultAction@CWnd@@UAEJUtagVARIANT@@PAPA_W@Z
	DD	FLAT:?accSelect@CWnd@@UAEJJUtagVARIANT@@@Z
	DD	FLAT:?accLocation@CWnd@@UAEJPAJ000UtagVARIANT@@@Z
	DD	FLAT:?accNavigate@CWnd@@UAEJJUtagVARIANT@@PAU2@@Z
	DD	FLAT:?accHitTest@CWnd@@UAEJJJPAUtagVARIANT@@@Z
	DD	FLAT:?accDoDefaultAction@CWnd@@UAEJUtagVARIANT@@@Z
	DD	FLAT:?put_accName@CWnd@@UAEJUtagVARIANT@@PA_W@Z
	DD	FLAT:?put_accValue@CWnd@@UAEJUtagVARIANT@@PA_W@Z
	DD	FLAT:?SetProxy@CWnd@@UAEJPAUIAccessibleProxy@@@Z
	DD	FLAT:?CreateAccessibleProxy@CWnd@@UAEJIJPAJ@Z
	DD	FLAT:?OnCommand@CWnd@@MAEHIJ@Z
	DD	FLAT:?OnNotify@CWnd@@MAEHIJPAJ@Z
	DD	FLAT:?GetSuperWndProcAddr@CWnd@@MAEPAP6GJPAUHWND__@@IIJ@ZXZ
	DD	FLAT:?DoDataExchange@CWnd@@MAEXPAVCDataExchange@@@Z
	DD	FLAT:?BeginModalState@CWnd@@UAEXXZ
	DD	FLAT:?EndModalState@CWnd@@UAEXXZ
	DD	FLAT:?PreTranslateMessage@CWnd@@UAEHPAUtagMSG@@@Z
	DD	FLAT:?OnAmbientProperty@CWnd@@UAEHPAVCOleControlSite@@JPAUtagVARIANT@@@Z
	DD	FLAT:?WindowProc@CWnd@@MAEJIIJ@Z
	DD	FLAT:?OnWndMsg@CWnd@@MAEHIIJPAJ@Z
	DD	FLAT:?DefWindowProcA@CWnd@@MAEJIIJ@Z
	DD	FLAT:?PostNcDestroy@CWnd@@MAEXXZ
	DD	FLAT:?OnChildNotify@CWnd@@MAEHIIJPAJ@Z
	DD	FLAT:?OnTouchInputs@CWnd@@MAEHIPAUtagTOUCHINPUT@@@Z
	DD	FLAT:?OnTouchInput@CWnd@@MAEHVCPoint@@HHPAUtagTOUCHINPUT@@@Z
	DD	FLAT:?GetGestureStatus@CWnd@@MAEKVCPoint@@@Z
	DD	FLAT:?OnGestureZoom@CWnd@@MAEHVCPoint@@J@Z
	DD	FLAT:?OnGesturePan@CWnd@@MAEHVCPoint@@0@Z
	DD	FLAT:?OnGestureRotate@CWnd@@MAEHVCPoint@@N@Z
	DD	FLAT:?OnGestureTwoFingerTap@CWnd@@MAEHVCPoint@@@Z
	DD	FLAT:?OnGesturePressAndTap@CWnd@@MAEHVCPoint@@J@Z
	DD	FLAT:?ResizeDynamicLayout@CWnd@@MAEXXZ
	DD	FLAT:?CheckAutoCenter@CWnd@@UAEHXZ
	DD	FLAT:?IsFrameWnd@CWnd@@UBEHXZ
	DD	FLAT:?CreateControlContainer@CWnd@@MAEHPAPAVCOleControlContainer@@@Z
	DD	FLAT:?CreateControlSite@CWnd@@MAEHPAVCOleControlContainer@@PAPAVCOleControlSite@@IABU_GUID@@@Z
	DD	FLAT:?SetOccDialogInfo@CWnd@@MAEHPAU_AFX_OCC_DIALOG_INFO@@@Z
	DD	FLAT:?GetOccDialogInfo@CWnd@@MAEPAU_AFX_OCC_DIALOG_INFO@@XZ
	DD	FLAT:?Create@CSliderCtrl@@UAEHKABUtagRECT@@PAVCWnd@@I@Z
	DD	FLAT:?CreateEx@CSliderCtrl@@UAEHKKABUtagRECT@@PAVCWnd@@I@Z
CONST	ENDS
; Function compile flags: /Ogtp
; File D:\git\src\IBK\IBK_DRFN\ProjSrc\SrcChartEx\ChartOCX\ChartToolBar\SliderCtrlEx.cpp
; File C:\Program Files (x86)\Microsoft Visual Studio\2019\Community\VC\Tools\MSVC\14.29.30133\atlmfc\include\afx.inl
;	COMDAT ??_GCSliderCtrlEx@@UAEPAXI@Z
_TEXT	SEGMENT
___flags$ = 8						; size = 4
??_GCSliderCtrlEx@@UAEPAXI@Z PROC			; CSliderCtrlEx::`scalar deleting destructor', COMDAT
; _this$ = ecx
  00000	55		 push	 ebp
  00001	8b ec		 mov	 ebp, esp
; File D:\git\src\IBK\IBK_DRFN\ProjSrc\SrcChartEx\ChartOCX\ChartToolBar\SliderCtrlEx.cpp

; 25   : {

  00003	56		 push	 esi
  00004	8b f1		 mov	 esi, ecx

; 26   : 	// (2008/12/20 - Seung-Won, Bae) Draw with PolyPolyLine()
; 27   : 	if( m_ptPoints) delete [] m_ptPoints;

  00006	8b 86 80 00 00
	00		 mov	 eax, DWORD PTR [esi+128]
  0000c	c7 06 00 00 00
	00		 mov	 DWORD PTR [esi], OFFSET ??_7CSliderCtrlEx@@6B@
  00012	85 c0		 test	 eax, eax
  00014	74 09		 je	 SHORT $LN8@scalar
  00016	50		 push	 eax
  00017	e8 00 00 00 00	 call	 ??_V@YAXPAX@Z		; operator delete[]
  0001c	83 c4 04	 add	 esp, 4
$LN8@scalar:

; 28   : 	m_ptPoints = NULL;
; 29   : 	if( m_dwLines) delete [] m_dwLines;

  0001f	8b 86 84 00 00
	00		 mov	 eax, DWORD PTR [esi+132]
  00025	c7 86 80 00 00
	00 00 00 00 00	 mov	 DWORD PTR [esi+128], 0
  0002f	85 c0		 test	 eax, eax
  00031	74 09		 je	 SHORT $LN9@scalar
  00033	50		 push	 eax
  00034	e8 00 00 00 00	 call	 ??_V@YAXPAX@Z		; operator delete[]
  00039	83 c4 04	 add	 esp, 4
$LN9@scalar:

; 30   : 	m_dwLines = NULL;
; 31   : }

  0003c	8b ce		 mov	 ecx, esi
  0003e	c7 86 84 00 00
	00 00 00 00 00	 mov	 DWORD PTR [esi+132], 0
  00048	e8 00 00 00 00	 call	 ??1CSliderCtrl@@UAE@XZ	; CSliderCtrl::~CSliderCtrl
  0004d	8b 45 08	 mov	 eax, DWORD PTR ___flags$[ebp]
  00050	a8 01		 test	 al, 1
  00052	74 22		 je	 SHORT $LN14@scalar
  00054	a8 04		 test	 al, 4
  00056	75 10		 jne	 SHORT $LN3@scalar
; File C:\Program Files (x86)\Microsoft Visual Studio\2019\Community\VC\Tools\MSVC\14.29.30133\atlmfc\include\afx.inl

; 112  : 	{ ::operator delete(p); }

  00058	56		 push	 esi
  00059	e8 00 00 00 00	 call	 ??3@YAXPAX@Z		; operator delete
  0005e	83 c4 04	 add	 esp, 4
  00061	8b c6		 mov	 eax, esi
  00063	5e		 pop	 esi
  00064	5d		 pop	 ebp
  00065	c2 04 00	 ret	 4
$LN3@scalar:
  00068	68 90 00 00 00	 push	 144			; 00000090H
  0006d	56		 push	 esi
  0006e	e8 00 00 00 00	 call	 ?__global_delete@@YAXPAXI@Z ; __global_delete
  00073	83 c4 08	 add	 esp, 8
$LN14@scalar:
  00076	8b c6		 mov	 eax, esi
  00078	5e		 pop	 esi
  00079	5d		 pop	 ebp
  0007a	c2 04 00	 ret	 4
??_GCSliderCtrlEx@@UAEPAXI@Z ENDP			; CSliderCtrlEx::`scalar deleting destructor'
_TEXT	ENDS
; Function compile flags: /Ogtp
; File D:\git\src\IBK\IBK_DRFN\ProjSrc\SrcChartEx\ChartOCX\ChartToolBar\SliderCtrlEx.cpp
;	COMDAT ?GetMessageMap@CSliderCtrlEx@@MBEPBUAFX_MSGMAP@@XZ
_TEXT	SEGMENT
?GetMessageMap@CSliderCtrlEx@@MBEPBUAFX_MSGMAP@@XZ PROC	; CSliderCtrlEx::GetMessageMap, COMDAT
; _this$ = ecx

; 34   : BEGIN_MESSAGE_MAP(CSliderCtrlEx, CSliderCtrl)

  00000	b8 00 00 00 00	 mov	 eax, OFFSET ?messageMap@?1??GetThisMessageMap@CSliderCtrlEx@@KGPBUAFX_MSGMAP@@XZ@4U3@B
  00005	c3		 ret	 0
?GetMessageMap@CSliderCtrlEx@@MBEPBUAFX_MSGMAP@@XZ ENDP	; CSliderCtrlEx::GetMessageMap
_TEXT	ENDS
; Function compile flags: /Ogtp
; File D:\git\src\IBK\IBK_DRFN\ProjSrc\SrcChartEx\ChartOCX\ChartToolBar\SliderCtrlEx.cpp
;	COMDAT ?GetThisMessageMap@CSliderCtrlEx@@KGPBUAFX_MSGMAP@@XZ
_TEXT	SEGMENT
?GetThisMessageMap@CSliderCtrlEx@@KGPBUAFX_MSGMAP@@XZ PROC ; CSliderCtrlEx::GetThisMessageMap, COMDAT

; 35   : 	//{{AFX_MSG_MAP(CSliderCtrlEx)
; 36   : 	ON_NOTIFY_REFLECT(NM_CUSTOMDRAW, OnCustomdraw)
; 37   : 	ON_WM_SETFOCUS()
; 38   : 	ON_WM_SIZE()
; 39   : 	//}}AFX_MSG_MAP
; 40   : END_MESSAGE_MAP()

  00000	b8 00 00 00 00	 mov	 eax, OFFSET ?messageMap@?1??GetThisMessageMap@CSliderCtrlEx@@KGPBUAFX_MSGMAP@@XZ@4U3@B
  00005	c3		 ret	 0
?GetThisMessageMap@CSliderCtrlEx@@KGPBUAFX_MSGMAP@@XZ ENDP ; CSliderCtrlEx::GetThisMessageMap
_TEXT	ENDS
; Function compile flags: /Ogtp
; File D:\git\src\IBK\IBK_DRFN\ProjSrc\SrcChartEx\ChartOCX\ChartToolBar\SliderCtrlEx.cpp
; File C:\Program Files (x86)\Microsoft Visual Studio\2019\Community\VC\Tools\MSVC\14.29.30133\atlmfc\include\afxwin2.inl
; File D:\git\src\IBK\IBK_DRFN\ProjSrc\SrcChartEx\ChartOCX\ChartToolBar\SliderCtrlEx.cpp
;	COMDAT ?OnSize@CSliderCtrlEx@@IAEXIHH@Z
_TEXT	SEGMENT
tv392 = -4						; size = 4
_nType$ = 8						; size = 4
tv406 = 12						; size = 4
_cx$ = 12						; size = 4
_cy$ = 16						; size = 4
?OnSize@CSliderCtrlEx@@IAEXIHH@Z PROC			; CSliderCtrlEx::OnSize, COMDAT
; _this$ = ecx

; 94   : {

  00000	55		 push	 ebp
  00001	8b ec		 mov	 ebp, esp
  00003	51		 push	 ecx
  00004	53		 push	 ebx
  00005	56		 push	 esi
  00006	57		 push	 edi
  00007	8b f1		 mov	 esi, ecx
; File C:\Program Files (x86)\Microsoft Visual Studio\2019\Community\VC\Tools\MSVC\14.29.30133\atlmfc\include\afxwin2.inl

; 330  : 	{ Default(); }

  00009	e8 00 00 00 00	 call	 ?Default@CWnd@@IAEJXZ	; CWnd::Default
; File D:\git\src\IBK\IBK_DRFN\ProjSrc\SrcChartEx\ChartOCX\ChartToolBar\SliderCtrlEx.cpp

; 102  : 	m_nLines = ( endPos - startPos) / 3 + 1;

  0000e	8b 5d 0c	 mov	 ebx, DWORD PTR _cx$[ebp]
  00011	b8 56 55 55 55	 mov	 eax, 1431655766		; 55555556H

; 103  : 
; 104  : 	if( m_ptPoints) delete [] m_ptPoints;

  00016	8b 8e 80 00 00
	00		 mov	 ecx, DWORD PTR [esi+128]
  0001c	83 c3 f6	 add	 ebx, -10		; fffffff6H
  0001f	f7 eb		 imul	 ebx
  00021	89 5d fc	 mov	 DWORD PTR tv392[ebp], ebx
  00024	8b c2		 mov	 eax, edx
  00026	c1 e8 1f	 shr	 eax, 31			; 0000001fH
  00029	40		 inc	 eax
  0002a	03 c2		 add	 eax, edx
  0002c	89 86 88 00 00
	00		 mov	 DWORD PTR [esi+136], eax
  00032	85 c9		 test	 ecx, ecx
  00034	74 0f		 je	 SHORT $LN5@OnSize
  00036	51		 push	 ecx
  00037	e8 00 00 00 00	 call	 ??_V@YAXPAX@Z		; operator delete[]
  0003c	8b 86 88 00 00
	00		 mov	 eax, DWORD PTR [esi+136]
  00042	83 c4 04	 add	 esp, 4
$LN5@OnSize:

; 105  : 	m_ptPoints = new POINT[ m_nLines * 2];

  00045	33 c9		 xor	 ecx, ecx
  00047	03 c0		 add	 eax, eax
  00049	ba 08 00 00 00	 mov	 edx, 8
  0004e	f7 e2		 mul	 edx
  00050	0f 90 c1	 seto	 cl
  00053	f7 d9		 neg	 ecx
  00055	0b c8		 or	 ecx, eax
  00057	51		 push	 ecx
  00058	e8 00 00 00 00	 call	 ??_U@YAPAXI@Z		; operator new[]
  0005d	89 86 80 00 00
	00		 mov	 DWORD PTR [esi+128], eax
  00063	83 c4 04	 add	 esp, 4

; 106  : 	if( m_dwLines) delete [] m_dwLines;

  00066	8b 86 84 00 00
	00		 mov	 eax, DWORD PTR [esi+132]
  0006c	85 c0		 test	 eax, eax
  0006e	74 09		 je	 SHORT $LN6@OnSize
  00070	50		 push	 eax
  00071	e8 00 00 00 00	 call	 ??_V@YAXPAX@Z		; operator delete[]
  00076	83 c4 04	 add	 esp, 4
$LN6@OnSize:

; 107  : 	m_dwLines = new DWORD[ m_nLines];

  00079	8b 86 88 00 00
	00		 mov	 eax, DWORD PTR [esi+136]
  0007f	33 c9		 xor	 ecx, ecx
  00081	ba 04 00 00 00	 mov	 edx, 4
  00086	f7 e2		 mul	 edx
  00088	0f 90 c1	 seto	 cl
  0008b	f7 d9		 neg	 ecx
  0008d	0b c8		 or	 ecx, eax
  0008f	51		 push	 ecx
  00090	e8 00 00 00 00	 call	 ??_U@YAPAXI@Z		; operator new[]
  00095	83 c4 04	 add	 esp, 4
  00098	89 86 84 00 00
	00		 mov	 DWORD PTR [esi+132], eax
  0009e	33 ff		 xor	 edi, edi

; 108  : 
; 109  : 	m_nLines = 0;

  000a0	c7 86 88 00 00
	00 00 00 00 00	 mov	 DWORD PTR [esi+136], 0

; 110  : 	for( int i = 0; i <= endPos - startPos; i++) if( 0 == i % 3)

  000aa	85 db		 test	 ebx, ebx
  000ac	0f 88 c8 00 00
	00		 js	 $LN3@OnSize
$LL4@OnSize:
  000b2	b8 ab aa aa aa	 mov	 eax, -1431655765	; aaaaaaabH
  000b7	8b cf		 mov	 ecx, edi
  000b9	f7 e7		 mul	 edi
  000bb	d1 ea		 shr	 edx, 1
  000bd	8d 04 52	 lea	 eax, DWORD PTR [edx+edx*2]
  000c0	2b c8		 sub	 ecx, eax
  000c2	0f 85 a9 00 00
	00		 jne	 $LN2@OnSize

; 111  : 	{
; 112  : 		m_ptPoints[ m_nLines * 2].x = i + startPos;

  000c8	8b 8e 88 00 00
	00		 mov	 ecx, DWORD PTR [esi+136]
  000ce	8d 57 05	 lea	 edx, DWORD PTR [edi+5]
  000d1	8b 86 80 00 00
	00		 mov	 eax, DWORD PTR [esi+128]
  000d7	03 c9		 add	 ecx, ecx

; 113  : 		m_ptPoints[ m_nLines * 2].y = cy;

  000d9	8b 5d 10	 mov	 ebx, DWORD PTR _cy$[ebp]
  000dc	89 14 c8	 mov	 DWORD PTR [eax+ecx*8], edx
  000df	8b 8e 88 00 00
	00		 mov	 ecx, DWORD PTR [esi+136]
  000e5	8b 86 80 00 00
	00		 mov	 eax, DWORD PTR [esi+128]
  000eb	03 c9		 add	 ecx, ecx
  000ed	89 5c c8 04	 mov	 DWORD PTR [eax+ecx*8+4], ebx

; 114  : 
; 115  : 		m_ptPoints[ m_nLines * 2 + 1].x = i + startPos;

  000f1	8b 8e 88 00 00
	00		 mov	 ecx, DWORD PTR [esi+136]
  000f7	8b 86 80 00 00
	00		 mov	 eax, DWORD PTR [esi+128]
  000fd	03 c9		 add	 ecx, ecx
  000ff	89 54 c8 08	 mov	 DWORD PTR [eax+ecx*8+8], edx

; 116  : 		if( 0 == i % 12)		m_ptPoints[ m_nLines * 2 + 1].y = cy - 5;

  00103	b8 ab aa aa aa	 mov	 eax, -1431655765	; aaaaaaabH
  00108	8b 9e 88 00 00
	00		 mov	 ebx, DWORD PTR [esi+136]
  0010e	f7 e7		 mul	 edi
  00110	8b c7		 mov	 eax, edi
  00112	c1 ea 03	 shr	 edx, 3
  00115	8d 0c 52	 lea	 ecx, DWORD PTR [edx+edx*2]
  00118	c1 e1 02	 shl	 ecx, 2
  0011b	2b c1		 sub	 eax, ecx
  0011d	75 0a		 jne	 SHORT $LN8@OnSize
  0011f	8b 45 10	 mov	 eax, DWORD PTR _cy$[ebp]
  00122	83 c0 fb	 add	 eax, -5			; fffffffbH
  00125	03 db		 add	 ebx, ebx
  00127	eb 22		 jmp	 SHORT $LN19@OnSize
$LN8@OnSize:

; 117  : 		else if( 0 == i % 6)	m_ptPoints[ m_nLines * 2 + 1].y = cy - 4;

  00129	b8 ab aa aa aa	 mov	 eax, -1431655765	; aaaaaaabH
  0012e	03 db		 add	 ebx, ebx
  00130	f7 e7		 mul	 edi
  00132	8b c7		 mov	 eax, edi
  00134	c1 ea 02	 shr	 edx, 2
  00137	8d 0c 52	 lea	 ecx, DWORD PTR [edx+edx*2]
  0013a	03 c9		 add	 ecx, ecx
  0013c	2b c1		 sub	 eax, ecx
  0013e	8b 45 10	 mov	 eax, DWORD PTR _cy$[ebp]
  00141	75 05		 jne	 SHORT $LN10@OnSize
  00143	83 c0 fc	 add	 eax, -4			; fffffffcH
  00146	eb 03		 jmp	 SHORT $LN19@OnSize
$LN10@OnSize:

; 118  : 		else					m_ptPoints[ m_nLines * 2 + 1].y = cy - 3;

  00148	83 c0 fd	 add	 eax, -3			; fffffffdH
$LN19@OnSize:

; 119  : 
; 120  : 		m_dwLines[ m_nLines] = 2;

  0014b	8b 8e 80 00 00
	00		 mov	 ecx, DWORD PTR [esi+128]
  00151	89 44 d9 0c	 mov	 DWORD PTR [ecx+ebx*8+12], eax
  00155	8b 8e 88 00 00
	00		 mov	 ecx, DWORD PTR [esi+136]
  0015b	8b 86 84 00 00
	00		 mov	 eax, DWORD PTR [esi+132]
  00161	8b 5d fc	 mov	 ebx, DWORD PTR tv392[ebp]
  00164	c7 04 88 02 00
	00 00		 mov	 DWORD PTR [eax+ecx*4], 2

; 121  : 		m_nLines++;

  0016b	ff 86 88 00 00
	00		 inc	 DWORD PTR [esi+136]
$LN2@OnSize:

; 110  : 	for( int i = 0; i <= endPos - startPos; i++) if( 0 == i % 3)

  00171	47		 inc	 edi
  00172	3b fb		 cmp	 edi, ebx
  00174	0f 8e 38 ff ff
	ff		 jle	 $LL4@OnSize
$LN3@OnSize:
  0017a	5f		 pop	 edi

; 122  : 	}
; 123  : }

  0017b	5e		 pop	 esi
  0017c	5b		 pop	 ebx
  0017d	8b e5		 mov	 esp, ebp
  0017f	5d		 pop	 ebp
  00180	c2 0c 00	 ret	 12			; 0000000cH
?OnSize@CSliderCtrlEx@@IAEXIHH@Z ENDP			; CSliderCtrlEx::OnSize
_TEXT	ENDS
; Function compile flags: /Ogtp
; File D:\git\src\IBK\IBK_DRFN\ProjSrc\SrcChartEx\ChartOCX\ChartToolBar\SliderCtrlEx.cpp
; File C:\Program Files (x86)\Microsoft Visual Studio\2019\Community\VC\Tools\MSVC\14.29.30133\atlmfc\include\afxwin2.inl
; File D:\git\src\IBK\IBK_DRFN\ProjSrc\SrcChartEx\ChartOCX\ChartToolBar\SliderCtrlEx.cpp
; File C:\Program Files (x86)\Microsoft Visual Studio\2019\Community\VC\Tools\MSVC\14.29.30133\atlmfc\include\afxwin2.inl
; File D:\git\src\IBK\IBK_DRFN\ProjSrc\SrcChartEx\ChartOCX\ChartToolBar\SliderCtrlEx.cpp
;	COMDAT ?OnSetFocus@CSliderCtrlEx@@IAEXPAVCWnd@@@Z
_TEXT	SEGMENT
_pOldWnd$ = 8						; size = 4
?OnSetFocus@CSliderCtrlEx@@IAEXPAVCWnd@@@Z PROC		; CSliderCtrlEx::OnSetFocus, COMDAT
; _this$ = ecx
; File C:\Program Files (x86)\Microsoft Visual Studio\2019\Community\VC\Tools\MSVC\14.29.30133\atlmfc\include\afxwin2.inl

; 213  : 	{ ASSERT(::IsWindow(m_hWnd)); return CWnd::FromHandle(::GetParent(m_hWnd)); }

  00000	ff 71 20	 push	 DWORD PTR [ecx+32]
  00003	ff 15 00 00 00
	00		 call	 DWORD PTR __imp__GetParent@4
  00009	50		 push	 eax
  0000a	e8 00 00 00 00	 call	 ?FromHandle@CWnd@@SGPAV1@PAUHWND__@@@Z ; CWnd::FromHandle
; File D:\git\src\IBK\IBK_DRFN\ProjSrc\SrcChartEx\ChartOCX\ChartToolBar\SliderCtrlEx.cpp

; 86   : 	if( pParent)

  0000f	85 c0		 test	 eax, eax
  00011	74 1a		 je	 SHORT $LN3@OnSetFocus
; File C:\Program Files (x86)\Microsoft Visual Studio\2019\Community\VC\Tools\MSVC\14.29.30133\atlmfc\include\afxwin2.inl

; 213  : 	{ ASSERT(::IsWindow(m_hWnd)); return CWnd::FromHandle(::GetParent(m_hWnd)); }

  00013	ff 70 20	 push	 DWORD PTR [eax+32]
  00016	ff 15 00 00 00
	00		 call	 DWORD PTR __imp__GetParent@4
  0001c	50		 push	 eax
  0001d	e8 00 00 00 00	 call	 ?FromHandle@CWnd@@SGPAV1@PAUHWND__@@@Z ; CWnd::FromHandle
; File D:\git\src\IBK\IBK_DRFN\ProjSrc\SrcChartEx\ChartOCX\ChartToolBar\SliderCtrlEx.cpp

; 89   : 		if( pParent) pParent->SetFocus();	// Getting Chart OCX

  00022	85 c0		 test	 eax, eax
  00024	74 07		 je	 SHORT $LN3@OnSetFocus
  00026	8b c8		 mov	 ecx, eax
  00028	e8 00 00 00 00	 call	 ?SetFocus@CWnd@@QAEPAV1@XZ ; CWnd::SetFocus
$LN3@OnSetFocus:

; 90   : 	}
; 91   : }

  0002d	c2 04 00	 ret	 4
?OnSetFocus@CSliderCtrlEx@@IAEXPAVCWnd@@@Z ENDP		; CSliderCtrlEx::OnSetFocus
_TEXT	ENDS
; Function compile flags: /Ogtp
; File D:\git\src\IBK\IBK_DRFN\ProjSrc\SrcChartEx\ChartOCX\ChartToolBar\SliderCtrlEx.cpp
;	COMDAT ?OnCustomdraw@CSliderCtrlEx@@IAEXPAUtagNMHDR@@PAJ@Z
_TEXT	SEGMENT
_pNMHDR$ = 8						; size = 4
_pResult$ = 12						; size = 4
?OnCustomdraw@CSliderCtrlEx@@IAEXPAUtagNMHDR@@PAJ@Z PROC ; CSliderCtrlEx::OnCustomdraw, COMDAT
; _this$ = ecx

; 53   : {

  00000	55		 push	 ebp
  00001	8b ec		 mov	 ebp, esp

; 54   : 	LPNMCUSTOMDRAW lpcd = (LPNMCUSTOMDRAW)pNMHDR;
; 55   : 
; 56   : 	if (lpcd->dwDrawStage == CDDS_PREPAINT)

  00003	8b 45 08	 mov	 eax, DWORD PTR _pNMHDR$[ebp]
  00006	8b 50 0c	 mov	 edx, DWORD PTR [eax+12]
  00009	83 fa 01	 cmp	 edx, 1
  0000c	75 0d		 jne	 SHORT $LN2@OnCustomdr

; 57   : 	{
; 58   : 		*pResult = CDRF_NOTIFYITEMDRAW;

  0000e	8b 45 0c	 mov	 eax, DWORD PTR _pResult$[ebp]
  00011	c7 00 20 00 00
	00		 mov	 DWORD PTR [eax], 32	; 00000020H

; 73   : }

  00017	5d		 pop	 ebp
  00018	c2 08 00	 ret	 8
$LN2@OnCustomdr:

; 59   : 		return;
; 60   : 	}
; 61   : 
; 62   : 	// (2006/4/4 - Seung-Won, Bae) Check Resource Empty!
; 63   : 	if(lpcd->dwDrawStage == CDDS_ITEMPREPAINT && lpcd->hdc)

  0001b	81 fa 01 00 01
	00		 cmp	 edx, 65537		; 00010001H
  00021	75 38		 jne	 SHORT $LN4@OnCustomdr
  00023	8b 50 10	 mov	 edx, DWORD PTR [eax+16]
  00026	85 d2		 test	 edx, edx
  00028	74 31		 je	 SHORT $LN4@OnCustomdr

; 64   : 	{	
; 65   : 		if (lpcd->dwItemSpec == TBCD_TICS)

  0002a	83 78 24 01	 cmp	 DWORD PTR [eax+36], 1
  0002e	75 2b		 jne	 SHORT $LN4@OnCustomdr

; 66   : 		{
; 67   : 			if( 0 < m_nLines) ::PolyPolyline( lpcd->hdc, m_ptPoints, m_dwLines, m_nLines);

  00030	8b 81 88 00 00
	00		 mov	 eax, DWORD PTR [ecx+136]
  00036	85 c0		 test	 eax, eax
  00038	7e 14		 jle	 SHORT $LN5@OnCustomdr
  0003a	50		 push	 eax
  0003b	ff b1 84 00 00
	00		 push	 DWORD PTR [ecx+132]
  00041	ff b1 80 00 00
	00		 push	 DWORD PTR [ecx+128]
  00047	52		 push	 edx
  00048	ff 15 00 00 00
	00		 call	 DWORD PTR __imp__PolyPolyline@16
$LN5@OnCustomdr:

; 68   : 			*pResult = CDRF_SKIPDEFAULT; 

  0004e	8b 45 0c	 mov	 eax, DWORD PTR _pResult$[ebp]
  00051	c7 00 04 00 00
	00		 mov	 DWORD PTR [eax], 4

; 73   : }

  00057	5d		 pop	 ebp
  00058	c2 08 00	 ret	 8
$LN4@OnCustomdr:

; 69   : 			return;
; 70   : 		}
; 71   : 	}	
; 72   : 	*pResult = 0;

  0005b	8b 45 0c	 mov	 eax, DWORD PTR _pResult$[ebp]
  0005e	c7 00 00 00 00
	00		 mov	 DWORD PTR [eax], 0

; 73   : }

  00064	5d		 pop	 ebp
  00065	c2 08 00	 ret	 8
?OnCustomdraw@CSliderCtrlEx@@IAEXPAUtagNMHDR@@PAJ@Z ENDP ; CSliderCtrlEx::OnCustomdraw
_TEXT	ENDS
; Function compile flags: /Ogtp
; File D:\git\src\IBK\IBK_DRFN\ProjSrc\SrcChartEx\ChartOCX\ChartToolBar\SliderCtrlEx.cpp
;	COMDAT ??1CSliderCtrlEx@@UAE@XZ
_TEXT	SEGMENT
??1CSliderCtrlEx@@UAE@XZ PROC				; CSliderCtrlEx::~CSliderCtrlEx, COMDAT
; _this$ = ecx

; 25   : {

  00000	56		 push	 esi
  00001	8b f1		 mov	 esi, ecx

; 26   : 	// (2008/12/20 - Seung-Won, Bae) Draw with PolyPolyLine()
; 27   : 	if( m_ptPoints) delete [] m_ptPoints;

  00003	8b 86 80 00 00
	00		 mov	 eax, DWORD PTR [esi+128]
  00009	c7 06 00 00 00
	00		 mov	 DWORD PTR [esi], OFFSET ??_7CSliderCtrlEx@@6B@
  0000f	85 c0		 test	 eax, eax
  00011	74 09		 je	 SHORT $LN2@CSliderCtr
  00013	50		 push	 eax
  00014	e8 00 00 00 00	 call	 ??_V@YAXPAX@Z		; operator delete[]
  00019	83 c4 04	 add	 esp, 4
$LN2@CSliderCtr:

; 28   : 	m_ptPoints = NULL;
; 29   : 	if( m_dwLines) delete [] m_dwLines;

  0001c	8b 86 84 00 00
	00		 mov	 eax, DWORD PTR [esi+132]
  00022	c7 86 80 00 00
	00 00 00 00 00	 mov	 DWORD PTR [esi+128], 0
  0002c	85 c0		 test	 eax, eax
  0002e	74 09		 je	 SHORT $LN3@CSliderCtr
  00030	50		 push	 eax
  00031	e8 00 00 00 00	 call	 ??_V@YAXPAX@Z		; operator delete[]
  00036	83 c4 04	 add	 esp, 4
$LN3@CSliderCtr:

; 30   : 	m_dwLines = NULL;

  00039	c7 86 84 00 00
	00 00 00 00 00	 mov	 DWORD PTR [esi+132], 0

; 31   : }

  00043	8b ce		 mov	 ecx, esi
  00045	5e		 pop	 esi
  00046	e9 00 00 00 00	 jmp	 ??1CSliderCtrl@@UAE@XZ	; CSliderCtrl::~CSliderCtrl
??1CSliderCtrlEx@@UAE@XZ ENDP				; CSliderCtrlEx::~CSliderCtrlEx
_TEXT	ENDS
; Function compile flags: /Ogtp
; File D:\git\src\IBK\IBK_DRFN\ProjSrc\SrcChartEx\ChartOCX\ChartToolBar\SliderCtrlEx.cpp
; File C:\Program Files (x86)\Microsoft Visual Studio\2019\Community\VC\Tools\MSVC\14.29.30133\atlmfc\include\afxcmn.inl
; File D:\git\src\IBK\IBK_DRFN\ProjSrc\SrcChartEx\ChartOCX\ChartToolBar\SliderCtrlEx.cpp
;	COMDAT ??0CSliderCtrlEx@@QAE@XZ
_TEXT	SEGMENT
_this$ = -4						; size = 4
??0CSliderCtrlEx@@QAE@XZ PROC				; CSliderCtrlEx::CSliderCtrlEx, COMDAT
; _this$ = ecx

; 17   : {

  00000	55		 push	 ebp
  00001	8b ec		 mov	 ebp, esp
  00003	51		 push	 ecx
  00004	56		 push	 esi
  00005	8b f1		 mov	 esi, ecx
  00007	89 75 fc	 mov	 DWORD PTR _this$[ebp], esi
; File C:\Program Files (x86)\Microsoft Visual Studio\2019\Community\VC\Tools\MSVC\14.29.30133\atlmfc\include\afxcmn.inl

; 461  : 	{ }

  0000a	e8 00 00 00 00	 call	 ??0CWnd@@QAE@XZ		; CWnd::CWnd
; File D:\git\src\IBK\IBK_DRFN\ProjSrc\SrcChartEx\ChartOCX\ChartToolBar\SliderCtrlEx.cpp

; 17   : {

  0000f	c7 06 00 00 00
	00		 mov	 DWORD PTR [esi], OFFSET ??_7CSliderCtrlEx@@6B@

; 18   : 	// (2008/12/20 - Seung-Won, Bae) Draw with PolyPolyLine()
; 19   : 	m_ptPoints = NULL;
; 20   : 	m_dwLines = NULL;
; 21   : 	m_nLines = 0;
; 22   : }

  00015	8b c6		 mov	 eax, esi
  00017	c7 86 80 00 00
	00 00 00 00 00	 mov	 DWORD PTR [esi+128], 0
  00021	c7 86 84 00 00
	00 00 00 00 00	 mov	 DWORD PTR [esi+132], 0
  0002b	c7 86 88 00 00
	00 00 00 00 00	 mov	 DWORD PTR [esi+136], 0
  00035	5e		 pop	 esi
  00036	8b e5		 mov	 esp, ebp
  00038	5d		 pop	 ebp
  00039	c3		 ret	 0
??0CSliderCtrlEx@@QAE@XZ ENDP				; CSliderCtrlEx::CSliderCtrlEx
_TEXT	ENDS
; Function compile flags: /Ogtp
; File C:\Program Files (x86)\Microsoft Visual Studio\2019\Community\VC\Tools\MSVC\14.29.30133\atlmfc\include\afx.inl
;	COMDAT ??_GCSliderCtrl@@UAEPAXI@Z
_TEXT	SEGMENT
___flags$ = 8						; size = 4
??_GCSliderCtrl@@UAEPAXI@Z PROC				; CSliderCtrl::`scalar deleting destructor', COMDAT
; _this$ = ecx
  00000	55		 push	 ebp
  00001	8b ec		 mov	 ebp, esp
  00003	56		 push	 esi
  00004	8b f1		 mov	 esi, ecx
  00006	e8 00 00 00 00	 call	 ??1CSliderCtrl@@UAE@XZ	; CSliderCtrl::~CSliderCtrl
  0000b	8b 45 08	 mov	 eax, DWORD PTR ___flags$[ebp]
  0000e	a8 01		 test	 al, 1
  00010	74 22		 je	 SHORT $LN9@scalar
  00012	a8 04		 test	 al, 4
  00014	75 10		 jne	 SHORT $LN3@scalar

; 112  : 	{ ::operator delete(p); }

  00016	56		 push	 esi
  00017	e8 00 00 00 00	 call	 ??3@YAXPAX@Z		; operator delete
  0001c	83 c4 04	 add	 esp, 4
  0001f	8b c6		 mov	 eax, esi
  00021	5e		 pop	 esi
  00022	5d		 pop	 ebp
  00023	c2 04 00	 ret	 4
$LN3@scalar:
  00026	68 80 00 00 00	 push	 128			; 00000080H
  0002b	56		 push	 esi
  0002c	e8 00 00 00 00	 call	 ?__global_delete@@YAXPAXI@Z ; __global_delete
  00031	83 c4 08	 add	 esp, 8
$LN9@scalar:
  00034	8b c6		 mov	 eax, esi
  00036	5e		 pop	 esi
  00037	5d		 pop	 ebp
  00038	c2 04 00	 ret	 4
??_GCSliderCtrl@@UAEPAXI@Z ENDP				; CSliderCtrl::`scalar deleting destructor'
_TEXT	ENDS
; Function compile flags: /Ogtp
; File C:\Program Files (x86)\Microsoft Visual Studio\2019\Community\VC\Tools\MSVC\14.29.30133\atlmfc\include\afxwin2.inl
;	COMDAT ?EndModalState@CWnd@@UAEXXZ
_TEXT	SEGMENT
?EndModalState@CWnd@@UAEXXZ PROC			; CWnd::EndModalState, COMDAT
; _this$ = ecx

; 567  : 	{ ::EnableWindow(m_hWnd, TRUE); }

  00000	6a 01		 push	 1
  00002	ff 71 20	 push	 DWORD PTR [ecx+32]
  00005	ff 15 00 00 00
	00		 call	 DWORD PTR __imp__EnableWindow@8
  0000b	c3		 ret	 0
?EndModalState@CWnd@@UAEXXZ ENDP			; CWnd::EndModalState
_TEXT	ENDS
; Function compile flags: /Ogtp
; File C:\Program Files (x86)\Microsoft Visual Studio\2019\Community\VC\Tools\MSVC\14.29.30133\atlmfc\include\afxwin2.inl
;	COMDAT ?BeginModalState@CWnd@@UAEXXZ
_TEXT	SEGMENT
?BeginModalState@CWnd@@UAEXXZ PROC			; CWnd::BeginModalState, COMDAT
; _this$ = ecx

; 565  : 	{ ::EnableWindow(m_hWnd, FALSE); }

  00000	6a 00		 push	 0
  00002	ff 71 20	 push	 DWORD PTR [ecx+32]
  00005	ff 15 00 00 00
	00		 call	 DWORD PTR __imp__EnableWindow@8
  0000b	c3		 ret	 0
?BeginModalState@CWnd@@UAEXXZ ENDP			; CWnd::BeginModalState
_TEXT	ENDS
; Function compile flags: /Ogtp
; File C:\Program Files (x86)\Microsoft Visual Studio\2019\Community\VC\Tools\MSVC\14.29.30133\atlmfc\include\afxwin2.inl
;	COMDAT ?DoDataExchange@CWnd@@MAEXPAVCDataExchange@@@Z
_TEXT	SEGMENT
___formal$ = 8						; size = 4
?DoDataExchange@CWnd@@MAEXPAVCDataExchange@@@Z PROC	; CWnd::DoDataExchange, COMDAT
; _this$ = ecx

; 561  : 	{ } // default does nothing

  00000	c2 04 00	 ret	 4
?DoDataExchange@CWnd@@MAEXPAVCDataExchange@@@Z ENDP	; CWnd::DoDataExchange
_TEXT	ENDS
; Function compile flags: /Ogtp
; File C:\Program Files (x86)\Microsoft Visual Studio\2019\Community\VC\Tools\MSVC\14.29.30133\atlmfc\include\afx.inl
;	COMDAT ?Dump@CObject@@UBEXAAVCDumpContext@@@Z
_TEXT	SEGMENT
___formal$ = 8						; size = 4
?Dump@CObject@@UBEXAAVCDumpContext@@@Z PROC		; CObject::Dump, COMDAT
; _this$ = ecx

; 122  : 	{ /* no dumping in release builds */ }

  00000	c2 04 00	 ret	 4
?Dump@CObject@@UBEXAAVCDumpContext@@@Z ENDP		; CObject::Dump
_TEXT	ENDS
; Function compile flags: /Ogtp
; File C:\Program Files (x86)\Microsoft Visual Studio\2019\Community\VC\Tools\MSVC\14.29.30133\atlmfc\include\afx.inl
;	COMDAT ?AssertValid@CObject@@UBEXXZ
_TEXT	SEGMENT
?AssertValid@CObject@@UBEXXZ PROC			; CObject::AssertValid, COMDAT
; _this$ = ecx

; 120  : 	{ /* no asserts in release builds */ }

  00000	c2 00 00	 ret	 0
?AssertValid@CObject@@UBEXXZ ENDP			; CObject::AssertValid
_TEXT	ENDS
; Function compile flags: /Ogtp
; File C:\Program Files (x86)\Microsoft Visual Studio\2019\Community\VC\Tools\MSVC\14.29.30133\atlmfc\include\afx.inl
;	COMDAT ?Serialize@CObject@@UAEXAAVCArchive@@@Z
_TEXT	SEGMENT
___formal$ = 8						; size = 4
?Serialize@CObject@@UAEXAAVCArchive@@@Z PROC		; CObject::Serialize, COMDAT
; _this$ = ecx

; 106  : 	{ /* CObject does not serialize anything by default */ }

  00000	c2 04 00	 ret	 4
?Serialize@CObject@@UAEXAAVCArchive@@@Z ENDP		; CObject::Serialize
_TEXT	ENDS
; Function compile flags: /Ogtp
; File D:\git\src\IBK\IBK_DRFN\ProjSrc\SrcChartEx\ChartOCX\ChartToolBar\SliderCtrlEx.cpp
;	COMDAT ?__empty_global_delete@@YAXPAXI@Z
_TEXT	SEGMENT
___formal$ = 8						; size = 4
___formal$ = 12						; size = 4
?__empty_global_delete@@YAXPAXI@Z PROC			; __empty_global_delete, COMDAT

  00000	c2 00 00	 ret	 0
?__empty_global_delete@@YAXPAXI@Z ENDP			; __empty_global_delete
_TEXT	ENDS
; Function compile flags: /Ogtp
; File D:\git\src\IBK\IBK_DRFN\ProjSrc\SrcChartEx\ChartOCX\ChartToolBar\SliderCtrlEx.cpp
;	COMDAT ?__empty_global_delete@@YAXPAX@Z
_TEXT	SEGMENT
___formal$ = 8						; size = 4
?__empty_global_delete@@YAXPAX@Z PROC			; __empty_global_delete, COMDAT

  00000	c2 00 00	 ret	 0
?__empty_global_delete@@YAXPAX@Z ENDP			; __empty_global_delete
_TEXT	ENDS
END
