; Listing generated by Microsoft (R) Optimizing Compiler Version 19.29.30145.0 

	TITLE	D:\git\src\IBK\IBK_DRFN\#DRfn-CS\_Obj\ChartToolBar\ToolBarManager.obj
	.686P
	.XMM
	include listing.inc
	.model	flat

INCLUDELIB MSVCRT
INCLUDELIB OLDNAMES

PUBLIC	?__empty_global_delete@@YAXPAX@Z		; __empty_global_delete
PUBLIC	?__empty_global_delete@@YAXPAXI@Z		; __empty_global_delete
PUBLIC	??1IToolBarManager@@UAE@XZ			; IToolBarManager::~IToolBarManager
PUBLIC	??_GIToolBarManager@@UAEPAXI@Z			; IToolBarManager::`scalar deleting destructor'
PUBLIC	??0CToolBarManager@@QAE@PAUIChartCtrl@@@Z	; CToolBarManager::CToolBarManager
PUBLIC	??1CToolBarManager@@UAE@XZ			; CToolBarManager::~CToolBarManager
PUBLIC	?CreateToolBar@CToolBarManager@@UAE_NABV?$CStringT@DV?$StrTraitMFC_DLL@DV?$ChTraitsCRT@D@ATL@@@@@ATL@@0@Z ; CToolBarManager::CreateToolBar
PUBLIC	?ToolBarPosChanged@CToolBarManager@@UAEXVCRect@@@Z ; CToolBarManager::ToolBarPosChanged
PUBLIC	?SetSliderMin@CToolBarManager@@UAEXH@Z		; CToolBarManager::SetSliderMin
PUBLIC	?SetControlData@CToolBarManager@@UAEXPAVCPacketList@@PAVCPacketListManager@@PAVCXScaleManager@@PAVCMainBlock@@PAVCIndicatorList@@@Z ; CToolBarManager::SetControlData
PUBLIC	?SetGraphType@CToolBarManager@@UAEXW4GRAPHTYPE@CGraphBaseData@@H@Z ; CToolBarManager::SetGraphType
PUBLIC	?SetLineThickness@CToolBarManager@@UAEXH@Z	; CToolBarManager::SetLineThickness
PUBLIC	?SetOneChart@CToolBarManager@@UAEX_N0@Z		; CToolBarManager::SetOneChart
PUBLIC	?SetGraphColor@CToolBarManager@@UAEXK@Z		; CToolBarManager::SetGraphColor
PUBLIC	?GetToolBarRect@CToolBarManager@@UBE?AVCRect@@XZ ; CToolBarManager::GetToolBarRect
PUBLIC	?GetStartEndIndex@CToolBarManager@@UAE_NAAH0@Z	; CToolBarManager::GetStartEndIndex
PUBLIC	?GetMaxRange@CToolBarManager@@UAEHXZ		; CToolBarManager::GetMaxRange
PUBLIC	?GetToolBarHwnd@CToolBarManager@@UAEPAUHWND__@@XZ ; CToolBarManager::GetToolBarHwnd
PUBLIC	?OnDraw@CToolBarManager@@UAEXXZ			; CToolBarManager::OnDraw
PUBLIC	?IsToolScrollBar@CToolBarManager@@UAE_NXZ	; CToolBarManager::IsToolScrollBar
PUBLIC	?GetToolOption@CToolBarManager@@UAEHW4TOOLOPTION@CToolOptionInfo@@@Z ; CToolBarManager::GetToolOption
PUBLIC	?UseToolOption@CToolBarManager@@UAEHW4TOOLOPTION@CToolOptionInfo@@@Z ; CToolBarManager::UseToolOption
PUBLIC	?ReleaseOtherButtonUI@CToolBarManager@@UAEXW4TOOLOPTION@CToolOptionInfo@@@Z ; CToolBarManager::ReleaseOtherButtonUI
PUBLIC	?OnNumericalInquiryOptionChanged@CToolBarManager@@UAEXJ@Z ; CToolBarManager::OnNumericalInquiryOptionChanged
PUBLIC	?OnToolStateChanged@CToolBarManager@@UAEHW4TOOLOPTION@CToolOptionInfo@@H@Z ; CToolBarManager::OnToolStateChanged
PUBLIC	?UpdateZoomAndScrollInfo@CToolBarManager@@UAEXHHHH@Z ; CToolBarManager::UpdateZoomAndScrollInfo
PUBLIC	??_GCToolBarManager@@UAEPAXI@Z			; CToolBarManager::`scalar deleting destructor'
PUBLIC	??_7IToolBarManager@@6B@			; IToolBarManager::`vftable'
PUBLIC	??_7CToolBarManager@@6B@			; CToolBarManager::`vftable'
PUBLIC	??_R4IToolBarManager@@6B@			; IToolBarManager::`RTTI Complete Object Locator'
PUBLIC	??_R0?AUIToolBarManager@@@8			; IToolBarManager `RTTI Type Descriptor'
PUBLIC	??_R3IToolBarManager@@8				; IToolBarManager::`RTTI Class Hierarchy Descriptor'
PUBLIC	??_R2IToolBarManager@@8				; IToolBarManager::`RTTI Base Class Array'
PUBLIC	??_R1A@?0A@EA@IToolBarManager@@8		; IToolBarManager::`RTTI Base Class Descriptor at (0,-1,0,64)'
PUBLIC	??_R4CToolBarManager@@6B@			; CToolBarManager::`RTTI Complete Object Locator'
PUBLIC	??_R0?AVCToolBarManager@@@8			; CToolBarManager `RTTI Type Descriptor'
PUBLIC	??_R3CToolBarManager@@8				; CToolBarManager::`RTTI Class Hierarchy Descriptor'
PUBLIC	??_R2CToolBarManager@@8				; CToolBarManager::`RTTI Base Class Array'
PUBLIC	??_R1A@?0A@EA@CToolBarManager@@8		; CToolBarManager::`RTTI Base Class Descriptor at (0,-1,0,64)'
EXTRN	__purecall:PROC
EXTRN	??2@YAPAXI@Z:PROC				; operator new
EXTRN	??3@YAXPAXI@Z:PROC				; operator delete
EXTRN	??_EIToolBarManager@@UAEPAXI@Z:PROC		; IToolBarManager::`vector deleting destructor'
EXTRN	??_ECToolBarManager@@UAEPAXI@Z:PROC		; CToolBarManager::`vector deleting destructor'
EXTRN	??0CToolBarManagerImplementation@@QAE@PAUIChartCtrl@@@Z:PROC ; CToolBarManagerImplementation::CToolBarManagerImplementation
EXTRN	?CreateToolBar@CToolBarManagerImplementation@@QAE_NABV?$CStringT@DV?$StrTraitMFC_DLL@DV?$ChTraitsCRT@D@ATL@@@@@ATL@@0@Z:PROC ; CToolBarManagerImplementation::CreateToolBar
EXTRN	?ToolBarPosChanged@CToolBarManagerImplementation@@QAEXVCRect@@@Z:PROC ; CToolBarManagerImplementation::ToolBarPosChanged
EXTRN	?SetSliderMin@CToolBarManagerImplementation@@QAEXH@Z:PROC ; CToolBarManagerImplementation::SetSliderMin
EXTRN	?SetControlData@CToolBarManagerImplementation@@QAEXPAVCPacketList@@PAVCPacketListManager@@PAVCXScaleManager@@PAVCMainBlock@@PAVCIndicatorList@@@Z:PROC ; CToolBarManagerImplementation::SetControlData
EXTRN	?SetGraphType@CToolBarManagerImplementation@@QAEXW4GRAPHTYPE@CGraphBaseData@@H@Z:PROC ; CToolBarManagerImplementation::SetGraphType
EXTRN	?SetLineThickness@CToolBarManagerImplementation@@QAEXH@Z:PROC ; CToolBarManagerImplementation::SetLineThickness
EXTRN	?SetGraphColor@CToolBarManagerImplementation@@QAEXK@Z:PROC ; CToolBarManagerImplementation::SetGraphColor
EXTRN	?SetOneChart@CToolBarManagerImplementation@@QAEX_N0@Z:PROC ; CToolBarManagerImplementation::SetOneChart
EXTRN	?GetToolBarRect@CToolBarManagerImplementation@@QAE?BVCRect@@XZ:PROC ; CToolBarManagerImplementation::GetToolBarRect
EXTRN	?GetStartEndIndex@CToolBarManagerImplementation@@QAE_NAAH0@Z:PROC ; CToolBarManagerImplementation::GetStartEndIndex
EXTRN	?GetMaxRange@CToolBarManagerImplementation@@QBEHXZ:PROC ; CToolBarManagerImplementation::GetMaxRange
EXTRN	?GetToolBarHwnd@CToolBarManagerImplementation@@QAEPAUHWND__@@XZ:PROC ; CToolBarManagerImplementation::GetToolBarHwnd
EXTRN	?ReDraw@CToolBarManagerImplementation@@QAEXXZ:PROC ; CToolBarManagerImplementation::ReDraw
EXTRN	?IsToolScrollBar@CToolBarManagerImplementation@@QAE_NXZ:PROC ; CToolBarManagerImplementation::IsToolScrollBar
EXTRN	?ReleaseOtherButtonUI@CToolBarManagerImplementation@@QAEXW4TOOLOPTION@CToolOptionInfo@@@Z:PROC ; CToolBarManagerImplementation::ReleaseOtherButtonUI
EXTRN	?UseToolOption@CToolBarManagerImplementation@@QAEHW4TOOLOPTION@CToolOptionInfo@@@Z:PROC ; CToolBarManagerImplementation::UseToolOption
EXTRN	?GetToolOption@CToolBarManagerImplementation@@QAEHW4TOOLOPTION@CToolOptionInfo@@@Z:PROC ; CToolBarManagerImplementation::GetToolOption
EXTRN	?OnNumericalInquiryOptionChanged@CToolBarManagerImplementation@@QAEXJ@Z:PROC ; CToolBarManagerImplementation::OnNumericalInquiryOptionChanged
EXTRN	?OnToolStateChanged@CToolBarManagerImplementation@@QAEHW4TOOLOPTION@CToolOptionInfo@@H@Z:PROC ; CToolBarManagerImplementation::OnToolStateChanged
EXTRN	?UpdateZoomAndScrollInfo@CToolBarManagerImplementation@@QAEXHHHH@Z:PROC ; CToolBarManagerImplementation::UpdateZoomAndScrollInfo
EXTRN	@__security_check_cookie@4:PROC
EXTRN	___CxxFrameHandler3:PROC
EXTRN	??_7type_info@@6B@:QWORD			; type_info::`vftable'
EXTRN	___security_cookie:DWORD
;	COMDAT ??_R1A@?0A@EA@CToolBarManager@@8
rdata$r	SEGMENT
??_R1A@?0A@EA@CToolBarManager@@8 DD FLAT:??_R0?AVCToolBarManager@@@8 ; CToolBarManager::`RTTI Base Class Descriptor at (0,-1,0,64)'
	DD	01H
	DD	00H
	DD	0ffffffffH
	DD	00H
	DD	040H
	DD	FLAT:??_R3CToolBarManager@@8
rdata$r	ENDS
;	COMDAT ??_R2CToolBarManager@@8
rdata$r	SEGMENT
??_R2CToolBarManager@@8 DD FLAT:??_R1A@?0A@EA@CToolBarManager@@8 ; CToolBarManager::`RTTI Base Class Array'
	DD	FLAT:??_R1A@?0A@EA@IToolBarManager@@8
rdata$r	ENDS
;	COMDAT ??_R3CToolBarManager@@8
rdata$r	SEGMENT
??_R3CToolBarManager@@8 DD 00H				; CToolBarManager::`RTTI Class Hierarchy Descriptor'
	DD	00H
	DD	02H
	DD	FLAT:??_R2CToolBarManager@@8
rdata$r	ENDS
;	COMDAT ??_R0?AVCToolBarManager@@@8
data$rs	SEGMENT
??_R0?AVCToolBarManager@@@8 DD FLAT:??_7type_info@@6B@	; CToolBarManager `RTTI Type Descriptor'
	DD	00H
	DB	'.?AVCToolBarManager@@', 00H
data$rs	ENDS
;	COMDAT ??_R4CToolBarManager@@6B@
rdata$r	SEGMENT
??_R4CToolBarManager@@6B@ DD 00H			; CToolBarManager::`RTTI Complete Object Locator'
	DD	00H
	DD	00H
	DD	FLAT:??_R0?AVCToolBarManager@@@8
	DD	FLAT:??_R3CToolBarManager@@8
rdata$r	ENDS
;	COMDAT ??_R1A@?0A@EA@IToolBarManager@@8
rdata$r	SEGMENT
??_R1A@?0A@EA@IToolBarManager@@8 DD FLAT:??_R0?AUIToolBarManager@@@8 ; IToolBarManager::`RTTI Base Class Descriptor at (0,-1,0,64)'
	DD	00H
	DD	00H
	DD	0ffffffffH
	DD	00H
	DD	040H
	DD	FLAT:??_R3IToolBarManager@@8
rdata$r	ENDS
;	COMDAT ??_R2IToolBarManager@@8
rdata$r	SEGMENT
??_R2IToolBarManager@@8 DD FLAT:??_R1A@?0A@EA@IToolBarManager@@8 ; IToolBarManager::`RTTI Base Class Array'
rdata$r	ENDS
;	COMDAT ??_R3IToolBarManager@@8
rdata$r	SEGMENT
??_R3IToolBarManager@@8 DD 00H				; IToolBarManager::`RTTI Class Hierarchy Descriptor'
	DD	00H
	DD	01H
	DD	FLAT:??_R2IToolBarManager@@8
rdata$r	ENDS
;	COMDAT ??_R0?AUIToolBarManager@@@8
data$rs	SEGMENT
??_R0?AUIToolBarManager@@@8 DD FLAT:??_7type_info@@6B@	; IToolBarManager `RTTI Type Descriptor'
	DD	00H
	DB	'.?AUIToolBarManager@@', 00H
data$rs	ENDS
;	COMDAT ??_R4IToolBarManager@@6B@
rdata$r	SEGMENT
??_R4IToolBarManager@@6B@ DD 00H			; IToolBarManager::`RTTI Complete Object Locator'
	DD	00H
	DD	00H
	DD	FLAT:??_R0?AUIToolBarManager@@@8
	DD	FLAT:??_R3IToolBarManager@@8
rdata$r	ENDS
;	COMDAT ??_7CToolBarManager@@6B@
CONST	SEGMENT
??_7CToolBarManager@@6B@ DD FLAT:??_R4CToolBarManager@@6B@ ; CToolBarManager::`vftable'
	DD	FLAT:??_ECToolBarManager@@UAEPAXI@Z
	DD	FLAT:?CreateToolBar@CToolBarManager@@UAE_NABV?$CStringT@DV?$StrTraitMFC_DLL@DV?$ChTraitsCRT@D@ATL@@@@@ATL@@0@Z
	DD	FLAT:?ToolBarPosChanged@CToolBarManager@@UAEXVCRect@@@Z
	DD	FLAT:?SetSliderMin@CToolBarManager@@UAEXH@Z
	DD	FLAT:?SetControlData@CToolBarManager@@UAEXPAVCPacketList@@PAVCPacketListManager@@PAVCXScaleManager@@PAVCMainBlock@@PAVCIndicatorList@@@Z
	DD	FLAT:?SetGraphType@CToolBarManager@@UAEXW4GRAPHTYPE@CGraphBaseData@@H@Z
	DD	FLAT:?SetLineThickness@CToolBarManager@@UAEXH@Z
	DD	FLAT:?SetOneChart@CToolBarManager@@UAEX_N0@Z
	DD	FLAT:?SetGraphColor@CToolBarManager@@UAEXK@Z
	DD	FLAT:?GetToolBarRect@CToolBarManager@@UBE?AVCRect@@XZ
	DD	FLAT:?GetStartEndIndex@CToolBarManager@@UAE_NAAH0@Z
	DD	FLAT:?GetMaxRange@CToolBarManager@@UAEHXZ
	DD	FLAT:?GetToolBarHwnd@CToolBarManager@@UAEPAUHWND__@@XZ
	DD	FLAT:?OnDraw@CToolBarManager@@UAEXXZ
	DD	FLAT:?IsToolScrollBar@CToolBarManager@@UAE_NXZ
	DD	FLAT:?GetToolOption@CToolBarManager@@UAEHW4TOOLOPTION@CToolOptionInfo@@@Z
	DD	FLAT:?UseToolOption@CToolBarManager@@UAEHW4TOOLOPTION@CToolOptionInfo@@@Z
	DD	FLAT:?ReleaseOtherButtonUI@CToolBarManager@@UAEXW4TOOLOPTION@CToolOptionInfo@@@Z
	DD	FLAT:?OnNumericalInquiryOptionChanged@CToolBarManager@@UAEXJ@Z
	DD	FLAT:?OnToolStateChanged@CToolBarManager@@UAEHW4TOOLOPTION@CToolOptionInfo@@H@Z
	DD	FLAT:?UpdateZoomAndScrollInfo@CToolBarManager@@UAEXHHHH@Z
CONST	ENDS
;	COMDAT ??_7IToolBarManager@@6B@
CONST	SEGMENT
??_7IToolBarManager@@6B@ DD FLAT:??_R4IToolBarManager@@6B@ ; IToolBarManager::`vftable'
	DD	FLAT:??_EIToolBarManager@@UAEPAXI@Z
	DD	FLAT:__purecall
	DD	FLAT:__purecall
	DD	FLAT:__purecall
	DD	FLAT:__purecall
	DD	FLAT:__purecall
	DD	FLAT:__purecall
	DD	FLAT:__purecall
	DD	FLAT:__purecall
	DD	FLAT:__purecall
	DD	FLAT:__purecall
	DD	FLAT:__purecall
	DD	FLAT:__purecall
	DD	FLAT:__purecall
	DD	FLAT:__purecall
	DD	FLAT:__purecall
	DD	FLAT:__purecall
	DD	FLAT:__purecall
	DD	FLAT:__purecall
	DD	FLAT:__purecall
	DD	FLAT:__purecall
CONST	ENDS
;	COMDAT xdata$x
xdata$x	SEGMENT
__unwindtable$??0CToolBarManager@@QAE@PAUIChartCtrl@@@Z DD 0ffffffffH
	DD	FLAT:__unwindfunclet$??0CToolBarManager@@QAE@PAUIChartCtrl@@@Z$0
	DD	00H
	DD	FLAT:__unwindfunclet$??0CToolBarManager@@QAE@PAUIChartCtrl@@@Z$1
__ehfuncinfo$??0CToolBarManager@@QAE@PAUIChartCtrl@@@Z DD 019930522H
	DD	02H
	DD	FLAT:__unwindtable$??0CToolBarManager@@QAE@PAUIChartCtrl@@@Z
	DD	2 DUP(00H)
	DD	2 DUP(00H)
	DD	00H
	DD	01H
xdata$x	ENDS
; Function compile flags: /Ogtp
; File D:\git\src\IBK\IBK_DRFN\ProjSrc\SrcChartEx\ChartOCX\ChartToolBar\ToolBarManager.cpp
;	COMDAT ??_GCToolBarManager@@UAEPAXI@Z
_TEXT	SEGMENT
___flags$ = 8						; size = 4
??_GCToolBarManager@@UAEPAXI@Z PROC			; CToolBarManager::`scalar deleting destructor', COMDAT
; _this$ = ecx
  00000	55		 push	 ebp
  00001	8b ec		 mov	 ebp, esp

; 32   : {

  00003	56		 push	 esi
  00004	8b f1		 mov	 esi, ecx

; 33   : 	if(m_pManagerImpl != NULL)

  00006	8b 4e 04	 mov	 ecx, DWORD PTR [esi+4]
  00009	c7 06 00 00 00
	00		 mov	 DWORD PTR [esi], OFFSET ??_7CToolBarManager@@6B@
  0000f	85 c9		 test	 ecx, ecx
  00011	74 0d		 je	 SHORT $LN5@scalar

; 34   : 	{
; 35   : 		delete m_pManagerImpl;

  00013	8b 01		 mov	 eax, DWORD PTR [ecx]
  00015	6a 01		 push	 1
  00017	ff 10		 call	 DWORD PTR [eax]

; 36   : 		m_pManagerImpl = NULL;

  00019	c7 46 04 00 00
	00 00		 mov	 DWORD PTR [esi+4], 0
$LN5@scalar:
  00020	f6 45 08 01	 test	 BYTE PTR ___flags$[ebp], 1

; 37   : 	}
; 38   : }

  00024	c7 06 00 00 00
	00		 mov	 DWORD PTR [esi], OFFSET ??_7IToolBarManager@@6B@
  0002a	74 0b		 je	 SHORT $LN10@scalar
  0002c	6a 08		 push	 8
  0002e	56		 push	 esi
  0002f	e8 00 00 00 00	 call	 ??3@YAXPAXI@Z		; operator delete
  00034	83 c4 08	 add	 esp, 8
$LN10@scalar:
  00037	8b c6		 mov	 eax, esi
  00039	5e		 pop	 esi
  0003a	5d		 pop	 ebp
  0003b	c2 04 00	 ret	 4
??_GCToolBarManager@@UAEPAXI@Z ENDP			; CToolBarManager::`scalar deleting destructor'
_TEXT	ENDS
; Function compile flags: /Ogtp
; File D:\git\src\IBK\IBK_DRFN\ProjSrc\SrcChartEx\ChartOCX\ChartToolBar\ToolBarManager.cpp
;	COMDAT ?UpdateZoomAndScrollInfo@CToolBarManager@@UAEXHHHH@Z
_TEXT	SEGMENT
_p_nFullRange$ = 8					; size = 4
_p_nStartPos$ = 12					; size = 4
_p_nViewCount$ = 16					; size = 4
_p_bWholeView$ = 20					; size = 4
?UpdateZoomAndScrollInfo@CToolBarManager@@UAEXHHHH@Z PROC ; CToolBarManager::UpdateZoomAndScrollInfo, COMDAT
; _this$ = ecx

; 258  : {

  00000	55		 push	 ebp
  00001	8b ec		 mov	 ebp, esp

; 259  : 	m_pManagerImpl->UpdateZoomAndScrollInfo( p_nFullRange, p_nStartPos, p_nViewCount, p_bWholeView);

  00003	8b 49 04	 mov	 ecx, DWORD PTR [ecx+4]

; 260  : }

  00006	5d		 pop	 ebp

; 259  : 	m_pManagerImpl->UpdateZoomAndScrollInfo( p_nFullRange, p_nStartPos, p_nViewCount, p_bWholeView);

  00007	e9 00 00 00 00	 jmp	 ?UpdateZoomAndScrollInfo@CToolBarManagerImplementation@@QAEXHHHH@Z ; CToolBarManagerImplementation::UpdateZoomAndScrollInfo
?UpdateZoomAndScrollInfo@CToolBarManager@@UAEXHHHH@Z ENDP ; CToolBarManager::UpdateZoomAndScrollInfo
_TEXT	ENDS
; Function compile flags: /Ogtp
; File D:\git\src\IBK\IBK_DRFN\ProjSrc\SrcChartEx\ChartOCX\ChartToolBar\ToolBarManager.cpp
;	COMDAT ?OnToolStateChanged@CToolBarManager@@UAEHW4TOOLOPTION@CToolOptionInfo@@H@Z
_TEXT	SEGMENT
_p_eToolID$ = 8						; size = 4
_p_bTurnOn$ = 12					; size = 4
?OnToolStateChanged@CToolBarManager@@UAEHW4TOOLOPTION@CToolOptionInfo@@H@Z PROC ; CToolBarManager::OnToolStateChanged, COMDAT
; _this$ = ecx

; 252  : {

  00000	55		 push	 ebp
  00001	8b ec		 mov	 ebp, esp

; 253  : 	return  m_pManagerImpl->OnToolStateChanged( p_eToolID, p_bTurnOn);

  00003	8b 49 04	 mov	 ecx, DWORD PTR [ecx+4]

; 254  : }

  00006	5d		 pop	 ebp

; 253  : 	return  m_pManagerImpl->OnToolStateChanged( p_eToolID, p_bTurnOn);

  00007	e9 00 00 00 00	 jmp	 ?OnToolStateChanged@CToolBarManagerImplementation@@QAEHW4TOOLOPTION@CToolOptionInfo@@H@Z ; CToolBarManagerImplementation::OnToolStateChanged
?OnToolStateChanged@CToolBarManager@@UAEHW4TOOLOPTION@CToolOptionInfo@@H@Z ENDP ; CToolBarManager::OnToolStateChanged
_TEXT	ENDS
; Function compile flags: /Ogtp
; File D:\git\src\IBK\IBK_DRFN\ProjSrc\SrcChartEx\ChartOCX\ChartToolBar\ToolBarManager.cpp
;	COMDAT ?OnNumericalInquiryOptionChanged@CToolBarManager@@UAEXJ@Z
_TEXT	SEGMENT
_p_lNumericalInquiryOption$ = 8				; size = 4
?OnNumericalInquiryOptionChanged@CToolBarManager@@UAEXJ@Z PROC ; CToolBarManager::OnNumericalInquiryOptionChanged, COMDAT
; _this$ = ecx

; 235  : {

  00000	55		 push	 ebp
  00001	8b ec		 mov	 ebp, esp

; 236  : 	m_pManagerImpl->OnNumericalInquiryOptionChanged( p_lNumericalInquiryOption);

  00003	8b 49 04	 mov	 ecx, DWORD PTR [ecx+4]

; 237  : }

  00006	5d		 pop	 ebp

; 236  : 	m_pManagerImpl->OnNumericalInquiryOptionChanged( p_lNumericalInquiryOption);

  00007	e9 00 00 00 00	 jmp	 ?OnNumericalInquiryOptionChanged@CToolBarManagerImplementation@@QAEXJ@Z ; CToolBarManagerImplementation::OnNumericalInquiryOptionChanged
?OnNumericalInquiryOptionChanged@CToolBarManager@@UAEXJ@Z ENDP ; CToolBarManager::OnNumericalInquiryOptionChanged
_TEXT	ENDS
; Function compile flags: /Ogtp
; File D:\git\src\IBK\IBK_DRFN\ProjSrc\SrcChartEx\ChartOCX\ChartToolBar\ToolBarManager.cpp
;	COMDAT ?ReleaseOtherButtonUI@CToolBarManager@@UAEXW4TOOLOPTION@CToolOptionInfo@@@Z
_TEXT	SEGMENT
_enumToolOption$ = 8					; size = 4
?ReleaseOtherButtonUI@CToolBarManager@@UAEXW4TOOLOPTION@CToolOptionInfo@@@Z PROC ; CToolBarManager::ReleaseOtherButtonUI, COMDAT
; _this$ = ecx

; 201  : {

  00000	55		 push	 ebp
  00001	8b ec		 mov	 ebp, esp

; 202  : 	m_pManagerImpl->ReleaseOtherButtonUI(enumToolOption);

  00003	8b 49 04	 mov	 ecx, DWORD PTR [ecx+4]

; 203  : }

  00006	5d		 pop	 ebp

; 202  : 	m_pManagerImpl->ReleaseOtherButtonUI(enumToolOption);

  00007	e9 00 00 00 00	 jmp	 ?ReleaseOtherButtonUI@CToolBarManagerImplementation@@QAEXW4TOOLOPTION@CToolOptionInfo@@@Z ; CToolBarManagerImplementation::ReleaseOtherButtonUI
?ReleaseOtherButtonUI@CToolBarManager@@UAEXW4TOOLOPTION@CToolOptionInfo@@@Z ENDP ; CToolBarManager::ReleaseOtherButtonUI
_TEXT	ENDS
; Function compile flags: /Ogtp
; File D:\git\src\IBK\IBK_DRFN\ProjSrc\SrcChartEx\ChartOCX\ChartToolBar\ToolBarManager.cpp
;	COMDAT ?UseToolOption@CToolBarManager@@UAEHW4TOOLOPTION@CToolOptionInfo@@@Z
_TEXT	SEGMENT
_enumToolOption$ = 8					; size = 4
?UseToolOption@CToolBarManager@@UAEHW4TOOLOPTION@CToolOptionInfo@@@Z PROC ; CToolBarManager::UseToolOption, COMDAT
; _this$ = ecx

; 213  : {

  00000	55		 push	 ebp
  00001	8b ec		 mov	 ebp, esp

; 214  : 	return m_pManagerImpl->UseToolOption(enumToolOption);

  00003	8b 49 04	 mov	 ecx, DWORD PTR [ecx+4]

; 215  : }

  00006	5d		 pop	 ebp

; 214  : 	return m_pManagerImpl->UseToolOption(enumToolOption);

  00007	e9 00 00 00 00	 jmp	 ?UseToolOption@CToolBarManagerImplementation@@QAEHW4TOOLOPTION@CToolOptionInfo@@@Z ; CToolBarManagerImplementation::UseToolOption
?UseToolOption@CToolBarManager@@UAEHW4TOOLOPTION@CToolOptionInfo@@@Z ENDP ; CToolBarManager::UseToolOption
_TEXT	ENDS
; Function compile flags: /Ogtp
; File D:\git\src\IBK\IBK_DRFN\ProjSrc\SrcChartEx\ChartOCX\ChartToolBar\ToolBarManager.cpp
;	COMDAT ?GetToolOption@CToolBarManager@@UAEHW4TOOLOPTION@CToolOptionInfo@@@Z
_TEXT	SEGMENT
_enumToolOption$ = 8					; size = 4
?GetToolOption@CToolBarManager@@UAEHW4TOOLOPTION@CToolOptionInfo@@@Z PROC ; CToolBarManager::GetToolOption, COMDAT
; _this$ = ecx

; 225  : {

  00000	55		 push	 ebp
  00001	8b ec		 mov	 ebp, esp

; 226  : 	return m_pManagerImpl->GetToolOption(enumToolOption);

  00003	8b 49 04	 mov	 ecx, DWORD PTR [ecx+4]

; 227  : }

  00006	5d		 pop	 ebp

; 226  : 	return m_pManagerImpl->GetToolOption(enumToolOption);

  00007	e9 00 00 00 00	 jmp	 ?GetToolOption@CToolBarManagerImplementation@@QAEHW4TOOLOPTION@CToolOptionInfo@@@Z ; CToolBarManagerImplementation::GetToolOption
?GetToolOption@CToolBarManager@@UAEHW4TOOLOPTION@CToolOptionInfo@@@Z ENDP ; CToolBarManager::GetToolOption
_TEXT	ENDS
; Function compile flags: /Ogtp
; File D:\git\src\IBK\IBK_DRFN\ProjSrc\SrcChartEx\ChartOCX\ChartToolBar\ToolBarManager.cpp
;	COMDAT ?IsToolScrollBar@CToolBarManager@@UAE_NXZ
_TEXT	SEGMENT
?IsToolScrollBar@CToolBarManager@@UAE_NXZ PROC		; CToolBarManager::IsToolScrollBar, COMDAT
; _this$ = ecx

; 180  : 	return m_pManagerImpl->IsToolScrollBar();

  00000	8b 49 04	 mov	 ecx, DWORD PTR [ecx+4]
  00003	e9 00 00 00 00	 jmp	 ?IsToolScrollBar@CToolBarManagerImplementation@@QAE_NXZ ; CToolBarManagerImplementation::IsToolScrollBar
?IsToolScrollBar@CToolBarManager@@UAE_NXZ ENDP		; CToolBarManager::IsToolScrollBar
_TEXT	ENDS
; Function compile flags: /Ogtp
; File D:\git\src\IBK\IBK_DRFN\ProjSrc\SrcChartEx\ChartOCX\ChartToolBar\ToolBarManager.cpp
;	COMDAT ?OnDraw@CToolBarManager@@UAEXXZ
_TEXT	SEGMENT
?OnDraw@CToolBarManager@@UAEXXZ PROC			; CToolBarManager::OnDraw, COMDAT
; _this$ = ecx

; 48   : 	m_pManagerImpl->ReDraw();

  00000	8b 49 04	 mov	 ecx, DWORD PTR [ecx+4]
  00003	e9 00 00 00 00	 jmp	 ?ReDraw@CToolBarManagerImplementation@@QAEXXZ ; CToolBarManagerImplementation::ReDraw
?OnDraw@CToolBarManager@@UAEXXZ ENDP			; CToolBarManager::OnDraw
_TEXT	ENDS
; Function compile flags: /Ogtp
; File D:\git\src\IBK\IBK_DRFN\ProjSrc\SrcChartEx\ChartOCX\ChartToolBar\ToolBarManager.cpp
;	COMDAT ?GetToolBarHwnd@CToolBarManager@@UAEPAUHWND__@@XZ
_TEXT	SEGMENT
?GetToolBarHwnd@CToolBarManager@@UAEPAUHWND__@@XZ PROC	; CToolBarManager::GetToolBarHwnd, COMDAT
; _this$ = ecx

; 191  : 	return m_pManagerImpl->GetToolBarHwnd();

  00000	8b 49 04	 mov	 ecx, DWORD PTR [ecx+4]
  00003	e9 00 00 00 00	 jmp	 ?GetToolBarHwnd@CToolBarManagerImplementation@@QAEPAUHWND__@@XZ ; CToolBarManagerImplementation::GetToolBarHwnd
?GetToolBarHwnd@CToolBarManager@@UAEPAUHWND__@@XZ ENDP	; CToolBarManager::GetToolBarHwnd
_TEXT	ENDS
; Function compile flags: /Ogtp
; File D:\git\src\IBK\IBK_DRFN\ProjSrc\SrcChartEx\ChartOCX\ChartToolBar\ToolBarManager.cpp
;	COMDAT ?GetMaxRange@CToolBarManager@@UAEHXZ
_TEXT	SEGMENT
?GetMaxRange@CToolBarManager@@UAEHXZ PROC		; CToolBarManager::GetMaxRange, COMDAT
; _this$ = ecx

; 168  : 	return m_pManagerImpl->GetMaxRange();

  00000	8b 49 04	 mov	 ecx, DWORD PTR [ecx+4]
  00003	e9 00 00 00 00	 jmp	 ?GetMaxRange@CToolBarManagerImplementation@@QBEHXZ ; CToolBarManagerImplementation::GetMaxRange
?GetMaxRange@CToolBarManager@@UAEHXZ ENDP		; CToolBarManager::GetMaxRange
_TEXT	ENDS
; Function compile flags: /Ogtp
; File D:\git\src\IBK\IBK_DRFN\ProjSrc\SrcChartEx\ChartOCX\ChartToolBar\ToolBarManager.cpp
;	COMDAT ?GetStartEndIndex@CToolBarManager@@UAE_NAAH0@Z
_TEXT	SEGMENT
_nStartIndex$ = 8					; size = 4
_nEndIndex$ = 12					; size = 4
?GetStartEndIndex@CToolBarManager@@UAE_NAAH0@Z PROC	; CToolBarManager::GetStartEndIndex, COMDAT
; _this$ = ecx

; 155  : {

  00000	55		 push	 ebp
  00001	8b ec		 mov	 ebp, esp

; 156  : 	return m_pManagerImpl->GetStartEndIndex(nStartIndex, nEndIndex);

  00003	8b 49 04	 mov	 ecx, DWORD PTR [ecx+4]

; 157  : }

  00006	5d		 pop	 ebp

; 156  : 	return m_pManagerImpl->GetStartEndIndex(nStartIndex, nEndIndex);

  00007	e9 00 00 00 00	 jmp	 ?GetStartEndIndex@CToolBarManagerImplementation@@QAE_NAAH0@Z ; CToolBarManagerImplementation::GetStartEndIndex
?GetStartEndIndex@CToolBarManager@@UAE_NAAH0@Z ENDP	; CToolBarManager::GetStartEndIndex
_TEXT	ENDS
; Function compile flags: /Ogtp
; File D:\git\src\IBK\IBK_DRFN\ProjSrc\SrcChartEx\ChartOCX\ChartToolBar\ToolBarManager.cpp
;	COMDAT ?GetToolBarRect@CToolBarManager@@UBE?AVCRect@@XZ
_TEXT	SEGMENT
___$ReturnUdt$ = 8					; size = 4
?GetToolBarRect@CToolBarManager@@UBE?AVCRect@@XZ PROC	; CToolBarManager::GetToolBarRect, COMDAT
; _this$ = ecx

; 85   : {

  00000	55		 push	 ebp
  00001	8b ec		 mov	 ebp, esp

; 86   : 	return m_pManagerImpl->GetToolBarRect();

  00003	ff 75 08	 push	 DWORD PTR ___$ReturnUdt$[ebp]
  00006	8b 49 04	 mov	 ecx, DWORD PTR [ecx+4]
  00009	e8 00 00 00 00	 call	 ?GetToolBarRect@CToolBarManagerImplementation@@QAE?BVCRect@@XZ ; CToolBarManagerImplementation::GetToolBarRect
  0000e	8b 45 08	 mov	 eax, DWORD PTR ___$ReturnUdt$[ebp]

; 87   : }

  00011	5d		 pop	 ebp
  00012	c2 04 00	 ret	 4
?GetToolBarRect@CToolBarManager@@UBE?AVCRect@@XZ ENDP	; CToolBarManager::GetToolBarRect
_TEXT	ENDS
; Function compile flags: /Ogtp
; File D:\git\src\IBK\IBK_DRFN\ProjSrc\SrcChartEx\ChartOCX\ChartToolBar\ToolBarManager.cpp
;	COMDAT ?SetGraphColor@CToolBarManager@@UAEXK@Z
_TEXT	SEGMENT
_clrGraphColor$ = 8					; size = 4
?SetGraphColor@CToolBarManager@@UAEXK@Z PROC		; CToolBarManager::SetGraphColor, COMDAT
; _this$ = ecx

; 246  : {

  00000	55		 push	 ebp
  00001	8b ec		 mov	 ebp, esp

; 247  : 	m_pManagerImpl->SetGraphColor(clrGraphColor);

  00003	8b 49 04	 mov	 ecx, DWORD PTR [ecx+4]

; 248  : }

  00006	5d		 pop	 ebp

; 247  : 	m_pManagerImpl->SetGraphColor(clrGraphColor);

  00007	e9 00 00 00 00	 jmp	 ?SetGraphColor@CToolBarManagerImplementation@@QAEXK@Z ; CToolBarManagerImplementation::SetGraphColor
?SetGraphColor@CToolBarManager@@UAEXK@Z ENDP		; CToolBarManager::SetGraphColor
_TEXT	ENDS
; Function compile flags: /Ogtp
; File D:\git\src\IBK\IBK_DRFN\ProjSrc\SrcChartEx\ChartOCX\ChartToolBar\ToolBarManager.cpp
;	COMDAT ?SetOneChart@CToolBarManager@@UAEX_N0@Z
_TEXT	SEGMENT
_bOneChart$ = 8						; size = 1
_p_bIsNoZoomChart$ = 12					; size = 1
?SetOneChart@CToolBarManager@@UAEX_N0@Z PROC		; CToolBarManager::SetOneChart, COMDAT
; _this$ = ecx

; 144  : {

  00000	55		 push	 ebp
  00001	8b ec		 mov	 ebp, esp

; 145  : 	m_pManagerImpl->SetOneChart(bOneChart, p_bIsNoZoomChart);

  00003	8b 49 04	 mov	 ecx, DWORD PTR [ecx+4]

; 146  : }

  00006	5d		 pop	 ebp

; 145  : 	m_pManagerImpl->SetOneChart(bOneChart, p_bIsNoZoomChart);

  00007	e9 00 00 00 00	 jmp	 ?SetOneChart@CToolBarManagerImplementation@@QAEX_N0@Z ; CToolBarManagerImplementation::SetOneChart
?SetOneChart@CToolBarManager@@UAEX_N0@Z ENDP		; CToolBarManager::SetOneChart
_TEXT	ENDS
; Function compile flags: /Ogtp
; File D:\git\src\IBK\IBK_DRFN\ProjSrc\SrcChartEx\ChartOCX\ChartToolBar\ToolBarManager.cpp
;	COMDAT ?SetLineThickness@CToolBarManager@@UAEXH@Z
_TEXT	SEGMENT
_nThickness$ = 8					; size = 4
?SetLineThickness@CToolBarManager@@UAEXH@Z PROC		; CToolBarManager::SetLineThickness, COMDAT
; _this$ = ecx

; 132  : {

  00000	55		 push	 ebp
  00001	8b ec		 mov	 ebp, esp

; 133  : 	m_pManagerImpl->SetLineThickness(nThickness);

  00003	8b 49 04	 mov	 ecx, DWORD PTR [ecx+4]

; 134  : }

  00006	5d		 pop	 ebp

; 133  : 	m_pManagerImpl->SetLineThickness(nThickness);

  00007	e9 00 00 00 00	 jmp	 ?SetLineThickness@CToolBarManagerImplementation@@QAEXH@Z ; CToolBarManagerImplementation::SetLineThickness
?SetLineThickness@CToolBarManager@@UAEXH@Z ENDP		; CToolBarManager::SetLineThickness
_TEXT	ENDS
; Function compile flags: /Ogtp
; File D:\git\src\IBK\IBK_DRFN\ProjSrc\SrcChartEx\ChartOCX\ChartToolBar\ToolBarManager.cpp
;	COMDAT ?SetGraphType@CToolBarManager@@UAEXW4GRAPHTYPE@CGraphBaseData@@H@Z
_TEXT	SEGMENT
_graphType$ = 8						; size = 4
_nIndex$ = 12						; size = 4
?SetGraphType@CToolBarManager@@UAEXW4GRAPHTYPE@CGraphBaseData@@H@Z PROC ; CToolBarManager::SetGraphType, COMDAT
; _this$ = ecx

; 120  : {

  00000	55		 push	 ebp
  00001	8b ec		 mov	 ebp, esp

; 121  : 	m_pManagerImpl->SetGraphType(graphType, nIndex);

  00003	8b 49 04	 mov	 ecx, DWORD PTR [ecx+4]

; 122  : }

  00006	5d		 pop	 ebp

; 121  : 	m_pManagerImpl->SetGraphType(graphType, nIndex);

  00007	e9 00 00 00 00	 jmp	 ?SetGraphType@CToolBarManagerImplementation@@QAEXW4GRAPHTYPE@CGraphBaseData@@H@Z ; CToolBarManagerImplementation::SetGraphType
?SetGraphType@CToolBarManager@@UAEXW4GRAPHTYPE@CGraphBaseData@@H@Z ENDP ; CToolBarManager::SetGraphType
_TEXT	ENDS
; Function compile flags: /Ogtp
; File D:\git\src\IBK\IBK_DRFN\ProjSrc\SrcChartEx\ChartOCX\ChartToolBar\ToolBarManager.cpp
;	COMDAT ?SetControlData@CToolBarManager@@UAEXPAVCPacketList@@PAVCPacketListManager@@PAVCXScaleManager@@PAVCMainBlock@@PAVCIndicatorList@@@Z
_TEXT	SEGMENT
_pPacketList$ = 8					; size = 4
_pPacketListManager$ = 12				; size = 4
_pxScaleManager$ = 16					; size = 4
_pMainBlock$ = 20					; size = 4
_pIndicatorList$ = 24					; size = 4
?SetControlData@CToolBarManager@@UAEXPAVCPacketList@@PAVCPacketListManager@@PAVCXScaleManager@@PAVCMainBlock@@PAVCIndicatorList@@@Z PROC ; CToolBarManager::SetControlData, COMDAT
; _this$ = ecx

; 108  : {

  00000	55		 push	 ebp
  00001	8b ec		 mov	 ebp, esp

; 109  : 	m_pManagerImpl->SetControlData(pPacketList, pPacketListManager, pxScaleManager, pMainBlock, pIndicatorList);

  00003	8b 49 04	 mov	 ecx, DWORD PTR [ecx+4]

; 110  : }

  00006	5d		 pop	 ebp

; 109  : 	m_pManagerImpl->SetControlData(pPacketList, pPacketListManager, pxScaleManager, pMainBlock, pIndicatorList);

  00007	e9 00 00 00 00	 jmp	 ?SetControlData@CToolBarManagerImplementation@@QAEXPAVCPacketList@@PAVCPacketListManager@@PAVCXScaleManager@@PAVCMainBlock@@PAVCIndicatorList@@@Z ; CToolBarManagerImplementation::SetControlData
?SetControlData@CToolBarManager@@UAEXPAVCPacketList@@PAVCPacketListManager@@PAVCXScaleManager@@PAVCMainBlock@@PAVCIndicatorList@@@Z ENDP ; CToolBarManager::SetControlData
_TEXT	ENDS
; Function compile flags: /Ogtp
; File D:\git\src\IBK\IBK_DRFN\ProjSrc\SrcChartEx\ChartOCX\ChartToolBar\ToolBarManager.cpp
;	COMDAT ?SetSliderMin@CToolBarManager@@UAEXH@Z
_TEXT	SEGMENT
_nSliderMin$ = 8					; size = 4
?SetSliderMin@CToolBarManager@@UAEXH@Z PROC		; CToolBarManager::SetSliderMin, COMDAT
; _this$ = ecx

; 96   : {

  00000	55		 push	 ebp
  00001	8b ec		 mov	 ebp, esp

; 97   : 	m_pManagerImpl->SetSliderMin(nSliderMin);

  00003	8b 49 04	 mov	 ecx, DWORD PTR [ecx+4]

; 98   : }

  00006	5d		 pop	 ebp

; 97   : 	m_pManagerImpl->SetSliderMin(nSliderMin);

  00007	e9 00 00 00 00	 jmp	 ?SetSliderMin@CToolBarManagerImplementation@@QAEXH@Z ; CToolBarManagerImplementation::SetSliderMin
?SetSliderMin@CToolBarManager@@UAEXH@Z ENDP		; CToolBarManager::SetSliderMin
_TEXT	ENDS
; Function compile flags: /Ogtp
; File D:\git\src\IBK\IBK_DRFN\ProjSrc\SrcChartEx\ChartOCX\ChartToolBar\ToolBarManager.cpp
;	COMDAT ?ToolBarPosChanged@CToolBarManager@@UAEXVCRect@@@Z
_TEXT	SEGMENT
_rectToolBarPos$ = 8					; size = 16
?ToolBarPosChanged@CToolBarManager@@UAEXVCRect@@@Z PROC	; CToolBarManager::ToolBarPosChanged, COMDAT
; _this$ = ecx

; 71   : {

  00000	55		 push	 ebp
  00001	8b ec		 mov	 ebp, esp

; 72   : 	m_pManagerImpl->ToolBarPosChanged(rectToolBarPos);

  00003	0f 10 45 08	 movups	 xmm0, XMMWORD PTR _rectToolBarPos$[ebp]
  00007	8b 49 04	 mov	 ecx, DWORD PTR [ecx+4]
  0000a	83 ec 10	 sub	 esp, 16			; 00000010H
  0000d	8b c4		 mov	 eax, esp
  0000f	0f 11 00	 movups	 XMMWORD PTR [eax], xmm0
  00012	e8 00 00 00 00	 call	 ?ToolBarPosChanged@CToolBarManagerImplementation@@QAEXVCRect@@@Z ; CToolBarManagerImplementation::ToolBarPosChanged

; 73   : }

  00017	5d		 pop	 ebp
  00018	c2 10 00	 ret	 16			; 00000010H
?ToolBarPosChanged@CToolBarManager@@UAEXVCRect@@@Z ENDP	; CToolBarManager::ToolBarPosChanged
_TEXT	ENDS
; Function compile flags: /Ogtp
; File D:\git\src\IBK\IBK_DRFN\ProjSrc\SrcChartEx\ChartOCX\ChartToolBar\ToolBarManager.cpp
;	COMDAT ?CreateToolBar@CToolBarManager@@UAE_NABV?$CStringT@DV?$StrTraitMFC_DLL@DV?$ChTraitsCRT@D@ATL@@@@@ATL@@0@Z
_TEXT	SEGMENT
_strToolBarOption$ = 8					; size = 4
_strImageFile$ = 12					; size = 4
?CreateToolBar@CToolBarManager@@UAE_NABV?$CStringT@DV?$StrTraitMFC_DLL@DV?$ChTraitsCRT@D@ATL@@@@@ATL@@0@Z PROC ; CToolBarManager::CreateToolBar, COMDAT
; _this$ = ecx

; 59   : {

  00000	55		 push	 ebp
  00001	8b ec		 mov	 ebp, esp

; 60   : 	return m_pManagerImpl->CreateToolBar(strToolBarOption, strImageFile);

  00003	8b 49 04	 mov	 ecx, DWORD PTR [ecx+4]

; 61   : }

  00006	5d		 pop	 ebp

; 60   : 	return m_pManagerImpl->CreateToolBar(strToolBarOption, strImageFile);

  00007	e9 00 00 00 00	 jmp	 ?CreateToolBar@CToolBarManagerImplementation@@QAE_NABV?$CStringT@DV?$StrTraitMFC_DLL@DV?$ChTraitsCRT@D@ATL@@@@@ATL@@0@Z ; CToolBarManagerImplementation::CreateToolBar
?CreateToolBar@CToolBarManager@@UAE_NABV?$CStringT@DV?$StrTraitMFC_DLL@DV?$ChTraitsCRT@D@ATL@@@@@ATL@@0@Z ENDP ; CToolBarManager::CreateToolBar
_TEXT	ENDS
; Function compile flags: /Ogtp
; File D:\git\src\IBK\IBK_DRFN\ProjSrc\SrcChartEx\ChartOCX\ChartToolBar\ToolBarManager.cpp
;	COMDAT ??1CToolBarManager@@UAE@XZ
_TEXT	SEGMENT
??1CToolBarManager@@UAE@XZ PROC				; CToolBarManager::~CToolBarManager, COMDAT
; _this$ = ecx

; 32   : {

  00000	56		 push	 esi
  00001	8b f1		 mov	 esi, ecx

; 33   : 	if(m_pManagerImpl != NULL)

  00003	8b 4e 04	 mov	 ecx, DWORD PTR [esi+4]
  00006	c7 06 00 00 00
	00		 mov	 DWORD PTR [esi], OFFSET ??_7CToolBarManager@@6B@
  0000c	85 c9		 test	 ecx, ecx
  0000e	74 0d		 je	 SHORT $LN6@CToolBarMa

; 34   : 	{
; 35   : 		delete m_pManagerImpl;

  00010	8b 01		 mov	 eax, DWORD PTR [ecx]
  00012	6a 01		 push	 1
  00014	ff 10		 call	 DWORD PTR [eax]

; 36   : 		m_pManagerImpl = NULL;

  00016	c7 46 04 00 00
	00 00		 mov	 DWORD PTR [esi+4], 0
$LN6@CToolBarMa:

; 37   : 	}
; 38   : }

  0001d	c7 06 00 00 00
	00		 mov	 DWORD PTR [esi], OFFSET ??_7IToolBarManager@@6B@
  00023	5e		 pop	 esi
  00024	c3		 ret	 0
??1CToolBarManager@@UAE@XZ ENDP				; CToolBarManager::~CToolBarManager
_TEXT	ENDS
; Function compile flags: /Ogtp
; File D:\git\src\IBK\IBK_DRFN\ProjSrc\SrcChartEx\ChartOCX\ChartToolBar\ToolBarManager.cpp
;	COMDAT ??0CToolBarManager@@QAE@PAUIChartCtrl@@@Z
_TEXT	SEGMENT
$T2 = -20						; size = 4
_this$ = -16						; size = 4
__$EHRec$ = -12						; size = 12
_p_pIChartCtrl$ = 8					; size = 4
??0CToolBarManager@@QAE@PAUIChartCtrl@@@Z PROC		; CToolBarManager::CToolBarManager, COMDAT
; _this$ = ecx

; 26   : {

  00000	55		 push	 ebp
  00001	8b ec		 mov	 ebp, esp
  00003	6a ff		 push	 -1
  00005	68 00 00 00 00	 push	 __ehhandler$??0CToolBarManager@@QAE@PAUIChartCtrl@@@Z
  0000a	64 a1 00 00 00
	00		 mov	 eax, DWORD PTR fs:0
  00010	50		 push	 eax
  00011	83 ec 08	 sub	 esp, 8
  00014	56		 push	 esi
  00015	a1 00 00 00 00	 mov	 eax, DWORD PTR ___security_cookie
  0001a	33 c5		 xor	 eax, ebp
  0001c	50		 push	 eax
  0001d	8d 45 f4	 lea	 eax, DWORD PTR __$EHRec$[ebp]
  00020	64 a3 00 00 00
	00		 mov	 DWORD PTR fs:0, eax
  00026	8b f1		 mov	 esi, ecx
  00028	89 75 f0	 mov	 DWORD PTR _this$[ebp], esi

; 27   : 	m_pManagerImpl = new CToolBarManagerImplementation( p_pIChartCtrl);

  0002b	6a 40		 push	 64			; 00000040H
  0002d	c7 45 fc 00 00
	00 00		 mov	 DWORD PTR __$EHRec$[ebp+8], 0
  00034	c7 06 00 00 00
	00		 mov	 DWORD PTR [esi], OFFSET ??_7CToolBarManager@@6B@
  0003a	e8 00 00 00 00	 call	 ??2@YAPAXI@Z		; operator new
  0003f	83 c4 04	 add	 esp, 4
  00042	89 45 ec	 mov	 DWORD PTR $T2[ebp], eax
  00045	c6 45 fc 01	 mov	 BYTE PTR __$EHRec$[ebp+8], 1
  00049	85 c0		 test	 eax, eax
  0004b	74 21		 je	 SHORT $LN3@CToolBarMa
  0004d	ff 75 08	 push	 DWORD PTR _p_pIChartCtrl$[ebp]
  00050	8b c8		 mov	 ecx, eax
  00052	e8 00 00 00 00	 call	 ??0CToolBarManagerImplementation@@QAE@PAUIChartCtrl@@@Z ; CToolBarManagerImplementation::CToolBarManagerImplementation
  00057	89 46 04	 mov	 DWORD PTR [esi+4], eax

; 28   : }

  0005a	8b c6		 mov	 eax, esi
  0005c	8b 4d f4	 mov	 ecx, DWORD PTR __$EHRec$[ebp]
  0005f	64 89 0d 00 00
	00 00		 mov	 DWORD PTR fs:0, ecx
  00066	59		 pop	 ecx
  00067	5e		 pop	 esi
  00068	8b e5		 mov	 esp, ebp
  0006a	5d		 pop	 ebp
  0006b	c2 04 00	 ret	 4
$LN3@CToolBarMa:

; 27   : 	m_pManagerImpl = new CToolBarManagerImplementation( p_pIChartCtrl);

  0006e	c7 46 04 00 00
	00 00		 mov	 DWORD PTR [esi+4], 0

; 28   : }

  00075	8b c6		 mov	 eax, esi
  00077	8b 4d f4	 mov	 ecx, DWORD PTR __$EHRec$[ebp]
  0007a	64 89 0d 00 00
	00 00		 mov	 DWORD PTR fs:0, ecx
  00081	59		 pop	 ecx
  00082	5e		 pop	 esi
  00083	8b e5		 mov	 esp, ebp
  00085	5d		 pop	 ebp
  00086	c2 04 00	 ret	 4
_TEXT	ENDS
;	COMDAT text$x
text$x	SEGMENT
__unwindfunclet$??0CToolBarManager@@QAE@PAUIChartCtrl@@@Z$0:
  00000	8b 4d f0	 mov	 ecx, DWORD PTR _this$[ebp]
  00003	e9 00 00 00 00	 jmp	 ??1IToolBarManager@@UAE@XZ ; IToolBarManager::~IToolBarManager
__unwindfunclet$??0CToolBarManager@@QAE@PAUIChartCtrl@@@Z$1:
  00008	6a 40		 push	 64			; 00000040H
  0000a	8b 45 ec	 mov	 eax, DWORD PTR $T2[ebp]
  0000d	50		 push	 eax
  0000e	e8 00 00 00 00	 call	 ??3@YAXPAXI@Z		; operator delete
  00013	83 c4 08	 add	 esp, 8
  00016	c3		 ret	 0
  00017	cc		 int	 3
  00018	cc		 int	 3
  00019	cc		 int	 3
  0001a	cc		 int	 3
  0001b	cc		 int	 3
__ehhandler$??0CToolBarManager@@QAE@PAUIChartCtrl@@@Z:
  0001c	90		 npad	 1
  0001d	90		 npad	 1
  0001e	8b 54 24 08	 mov	 edx, DWORD PTR [esp+8]
  00022	8d 42 0c	 lea	 eax, DWORD PTR [edx+12]
  00025	8b 4a f0	 mov	 ecx, DWORD PTR [edx-16]
  00028	33 c8		 xor	 ecx, eax
  0002a	e8 00 00 00 00	 call	 @__security_check_cookie@4
  0002f	b8 00 00 00 00	 mov	 eax, OFFSET __ehfuncinfo$??0CToolBarManager@@QAE@PAUIChartCtrl@@@Z
  00034	e9 00 00 00 00	 jmp	 ___CxxFrameHandler3
text$x	ENDS
??0CToolBarManager@@QAE@PAUIChartCtrl@@@Z ENDP		; CToolBarManager::CToolBarManager
; Function compile flags: /Ogtp
;	COMDAT ??_GIToolBarManager@@UAEPAXI@Z
_TEXT	SEGMENT
___flags$ = 8						; size = 4
??_GIToolBarManager@@UAEPAXI@Z PROC			; IToolBarManager::`scalar deleting destructor', COMDAT
; _this$ = ecx
  00000	55		 push	 ebp
  00001	8b ec		 mov	 ebp, esp
  00003	f6 45 08 01	 test	 BYTE PTR ___flags$[ebp], 1
  00007	56		 push	 esi
  00008	8b f1		 mov	 esi, ecx
  0000a	c7 06 00 00 00
	00		 mov	 DWORD PTR [esi], OFFSET ??_7IToolBarManager@@6B@
  00010	74 0b		 je	 SHORT $LN4@scalar
  00012	6a 04		 push	 4
  00014	56		 push	 esi
  00015	e8 00 00 00 00	 call	 ??3@YAXPAXI@Z		; operator delete
  0001a	83 c4 08	 add	 esp, 8
$LN4@scalar:
  0001d	8b c6		 mov	 eax, esi
  0001f	5e		 pop	 esi
  00020	5d		 pop	 ebp
  00021	c2 04 00	 ret	 4
??_GIToolBarManager@@UAEPAXI@Z ENDP			; IToolBarManager::`scalar deleting destructor'
_TEXT	ENDS
; Function compile flags: /Ogtp
; File D:\git\src\IBK\IBK_DRFN\ProjSrc\SrcChartEx\ChartOCX\Include_Chart\Dll_Load\ToolBarManager.h
;	COMDAT ??1IToolBarManager@@UAE@XZ
_TEXT	SEGMENT
??1IToolBarManager@@UAE@XZ PROC				; IToolBarManager::~IToolBarManager, COMDAT
; _this$ = ecx

; 32   : 	virtual ~IToolBarManager()	{}

  00000	c7 01 00 00 00
	00		 mov	 DWORD PTR [ecx], OFFSET ??_7IToolBarManager@@6B@
  00006	c3		 ret	 0
??1IToolBarManager@@UAE@XZ ENDP				; IToolBarManager::~IToolBarManager
_TEXT	ENDS
; Function compile flags: /Ogtp
; File D:\git\src\IBK\IBK_DRFN\ProjSrc\SrcChartEx\ChartOCX\ChartToolBar\ToolBarManager.cpp
;	COMDAT ?__empty_global_delete@@YAXPAXI@Z
_TEXT	SEGMENT
___formal$ = 8						; size = 4
___formal$ = 12						; size = 4
?__empty_global_delete@@YAXPAXI@Z PROC			; __empty_global_delete, COMDAT

  00000	c2 00 00	 ret	 0
?__empty_global_delete@@YAXPAXI@Z ENDP			; __empty_global_delete
_TEXT	ENDS
; Function compile flags: /Ogtp
; File D:\git\src\IBK\IBK_DRFN\ProjSrc\SrcChartEx\ChartOCX\ChartToolBar\ToolBarManager.cpp
;	COMDAT ?__empty_global_delete@@YAXPAX@Z
_TEXT	SEGMENT
___formal$ = 8						; size = 4
?__empty_global_delete@@YAXPAX@Z PROC			; __empty_global_delete, COMDAT

  00000	c2 00 00	 ret	 0
?__empty_global_delete@@YAXPAX@Z ENDP			; __empty_global_delete
_TEXT	ENDS
END
