; Listing generated by Microsoft (R) Optimizing Compiler Version 19.29.30148.0 

	TITLE	D:\git\src\IBK\IBK_DRFN\#DRfn-CS\_Obj\MultiChart\_SysTabExChartItem.obj
	.686P
	.XMM
	include listing.inc
	.model	flat

INCLUDELIB MSVCRT
INCLUDELIB OLDNAMES

PUBLIC	??_C@_0BG@OHIMHJEO@RMSG_STTREE_ITEMCLICK@	; `string'
PUBLIC	??_C@_0BH@LAAMLACL@RMSG_STTREE_ITEMDBLCLK@	; `string'
PUBLIC	??_C@_0BE@FJPKENOB@RMSG_GETSIGNAL_REAL@		; `string'
PUBLIC	??_C@_0BB@CNOFPEHG@RMSG_SETQUERYOPT@		; `string'
PUBLIC	??_C@_0P@KHFCBIOH@RMSG_CHARTMAIN@		; `string'
PUBLIC	??_C@_0BC@MMPGLPDH@RMS_ANALYSIS_FUNC@		; `string'
PUBLIC	??_C@_0BA@HKNFENJL@RMSG_GET_USERID@		; `string'
PUBLIC	??_C@_0BG@CNPAHNGG@RMSG_CHANGE_SKINCOLOR@	; `string'
PUBLIC	??_C@_0BD@FLDNDDHK@RMSG_GET_SKINCOLOR@		; `string'
PUBLIC	??_C@_0BJ@JLKHIBIK@RMSG_CHANGEVERTSCALETYPE@	; `string'
PUBLIC	??_C@_0BG@LNLCJKPF@RMSG_CHANGE_CROSSLINE@	; `string'
PUBLIC	??_C@_0BH@IFDMIMBP@RMSG_ADD_PLATFORM_MENU@	; `string'
PUBLIC	??_C@_0BJ@OGNAJHHI@RMSG_SETINITIALCHARTDATA@	; `string'
PUBLIC	??_C@_0N@IIOKMIEH@RMSG_GETINFO@			; `string'
PUBLIC	??_C@_0N@HABLPHJG@RMSG_SETINFO@			; `string'
;	COMDAT ??_C@_0N@HABLPHJG@RMSG_SETINFO@
CONST	SEGMENT
??_C@_0N@HABLPHJG@RMSG_SETINFO@ DB 'RMSG_SETINFO', 00H	; `string'
CONST	ENDS
;	COMDAT ??_C@_0N@IIOKMIEH@RMSG_GETINFO@
CONST	SEGMENT
??_C@_0N@IIOKMIEH@RMSG_GETINFO@ DB 'RMSG_GETINFO', 00H	; `string'
CONST	ENDS
;	COMDAT ??_C@_0BJ@OGNAJHHI@RMSG_SETINITIALCHARTDATA@
CONST	SEGMENT
??_C@_0BJ@OGNAJHHI@RMSG_SETINITIALCHARTDATA@ DB 'RMSG_SETINITIALCHARTDATA'
	DB	00H						; `string'
CONST	ENDS
;	COMDAT ??_C@_0BH@IFDMIMBP@RMSG_ADD_PLATFORM_MENU@
CONST	SEGMENT
??_C@_0BH@IFDMIMBP@RMSG_ADD_PLATFORM_MENU@ DB 'RMSG_ADD_PLATFORM_MENU', 00H ; `string'
CONST	ENDS
;	COMDAT ??_C@_0BG@LNLCJKPF@RMSG_CHANGE_CROSSLINE@
CONST	SEGMENT
??_C@_0BG@LNLCJKPF@RMSG_CHANGE_CROSSLINE@ DB 'RMSG_CHANGE_CROSSLINE', 00H ; `string'
CONST	ENDS
;	COMDAT ??_C@_0BJ@JLKHIBIK@RMSG_CHANGEVERTSCALETYPE@
CONST	SEGMENT
??_C@_0BJ@JLKHIBIK@RMSG_CHANGEVERTSCALETYPE@ DB 'RMSG_CHANGEVERTSCALETYPE'
	DB	00H						; `string'
CONST	ENDS
;	COMDAT ??_C@_0BD@FLDNDDHK@RMSG_GET_SKINCOLOR@
CONST	SEGMENT
??_C@_0BD@FLDNDDHK@RMSG_GET_SKINCOLOR@ DB 'RMSG_GET_SKINCOLOR', 00H ; `string'
CONST	ENDS
;	COMDAT ??_C@_0BG@CNPAHNGG@RMSG_CHANGE_SKINCOLOR@
CONST	SEGMENT
??_C@_0BG@CNPAHNGG@RMSG_CHANGE_SKINCOLOR@ DB 'RMSG_CHANGE_SKINCOLOR', 00H ; `string'
CONST	ENDS
;	COMDAT ??_C@_0BA@HKNFENJL@RMSG_GET_USERID@
CONST	SEGMENT
??_C@_0BA@HKNFENJL@RMSG_GET_USERID@ DB 'RMSG_GET_USERID', 00H ; `string'
CONST	ENDS
;	COMDAT ??_C@_0BC@MMPGLPDH@RMS_ANALYSIS_FUNC@
CONST	SEGMENT
??_C@_0BC@MMPGLPDH@RMS_ANALYSIS_FUNC@ DB 'RMS_ANALYSIS_FUNC', 00H ; `string'
CONST	ENDS
;	COMDAT ??_C@_0P@KHFCBIOH@RMSG_CHARTMAIN@
CONST	SEGMENT
??_C@_0P@KHFCBIOH@RMSG_CHARTMAIN@ DB 'RMSG_CHARTMAIN', 00H ; `string'
CONST	ENDS
;	COMDAT ??_C@_0BB@CNOFPEHG@RMSG_SETQUERYOPT@
CONST	SEGMENT
??_C@_0BB@CNOFPEHG@RMSG_SETQUERYOPT@ DB 'RMSG_SETQUERYOPT', 00H ; `string'
CONST	ENDS
;	COMDAT ??_C@_0BE@FJPKENOB@RMSG_GETSIGNAL_REAL@
CONST	SEGMENT
??_C@_0BE@FJPKENOB@RMSG_GETSIGNAL_REAL@ DB 'RMSG_GETSIGNAL_REAL', 00H ; `string'
CONST	ENDS
;	COMDAT ??_C@_0BH@LAAMLACL@RMSG_STTREE_ITEMDBLCLK@
CONST	SEGMENT
??_C@_0BH@LAAMLACL@RMSG_STTREE_ITEMDBLCLK@ DB 'RMSG_STTREE_ITEMDBLCLK', 00H ; `string'
CONST	ENDS
;	COMDAT ??_C@_0BG@OHIMHJEO@RMSG_STTREE_ITEMCLICK@
CONST	SEGMENT
??_C@_0BG@OHIMHJEO@RMSG_STTREE_ITEMCLICK@ DB 'RMSG_STTREE_ITEMCLICK', 00H ; `string'
CONST	ENDS
PUBLIC	?__empty_global_delete@@YAXPAX@Z		; __empty_global_delete
PUBLIC	?__empty_global_delete@@YAXPAXI@Z		; __empty_global_delete
PUBLIC	??0CSysTabExChartItem@@QAE@XZ			; CSysTabExChartItem::CSysTabExChartItem
PUBLIC	?GetChartItem@CSysTabExChartItem@@UAGJXZ	; CSysTabExChartItem::GetChartItem
PUBLIC	?SetChartItem@CSysTabExChartItem@@UAGXJ@Z	; CSysTabExChartItem::SetChartItem
PUBLIC	?AddPacketAndGraph@CSysTabExChartItem@@UAGHXZ	; CSysTabExChartItem::AddPacketAndGraph
PUBLIC	?SetPacketData@CSysTabExChartItem@@UAGHPBDJJH@Z	; CSysTabExChartItem::SetPacketData
PUBLIC	?SetNOnePageDataCount@CSysTabExChartItem@@UAGXJ@Z ; CSysTabExChartItem::SetNOnePageDataCount
PUBLIC	?ShowInnerToolBar@CSysTabExChartItem@@UAGXH@Z	; CSysTabExChartItem::ShowInnerToolBar
PUBLIC	?InvokeAddIn@CSysTabExChartItem@@UAGHPBDFJ@Z	; CSysTabExChartItem::InvokeAddIn
PUBLIC	?AddChartBlock@CSysTabExChartItem@@UAGHPBD@Z	; CSysTabExChartItem::AddChartBlock
PUBLIC	?GetPacketName@CSysTabExChartItem@@UAG?AV?$CStringT@DV?$StrTraitMFC_DLL@DV?$ChTraitsCRT@D@ATL@@@@@ATL@@XZ ; CSysTabExChartItem::GetPacketName
PUBLIC	??_7CSysTabExChartItem@@6B@			; CSysTabExChartItem::`vftable'
PUBLIC	??_R0?AUISysTabExChartItem@@@8			; ISysTabExChartItem `RTTI Type Descriptor'
PUBLIC	??_R3ISysTabExChartItem@@8			; ISysTabExChartItem::`RTTI Class Hierarchy Descriptor'
PUBLIC	??_R2ISysTabExChartItem@@8			; ISysTabExChartItem::`RTTI Base Class Array'
PUBLIC	??_R1A@?0A@EA@ISysTabExChartItem@@8		; ISysTabExChartItem::`RTTI Base Class Descriptor at (0,-1,0,64)'
PUBLIC	??_R4CSysTabExChartItem@@6B@			; CSysTabExChartItem::`RTTI Complete Object Locator'
PUBLIC	??_R0?AVCSysTabExChartItem@@@8			; CSysTabExChartItem `RTTI Type Descriptor'
PUBLIC	??_R3CSysTabExChartItem@@8			; CSysTabExChartItem::`RTTI Class Hierarchy Descriptor'
PUBLIC	??_R2CSysTabExChartItem@@8			; CSysTabExChartItem::`RTTI Base Class Array'
PUBLIC	??_R1A@?0A@EA@CSysTabExChartItem@@8		; CSysTabExChartItem::`RTTI Base Class Descriptor at (0,-1,0,64)'
EXTRN	__imp__RegisterWindowMessageA@4:PROC
EXTRN	?GetPacketName@CChartItemData@@QAE?AV?$CStringT@DV?$StrTraitMFC_DLL@DV?$ChTraitsCRT@D@ATL@@@@@ATL@@XZ:PROC ; CChartItemData::GetPacketName
EXTRN	?AddPacketAndGraphAnal@CChartItemData@@QAEHXZ:PROC ; CChartItemData::AddPacketAndGraphAnal
EXTRN	?SetNOnePageDataCount@CDRChartOcx@@QAEXJ@Z:PROC	; CDRChartOcx::SetNOnePageDataCount
EXTRN	?ShowInnerToolBar@CDRChartOcx@@QAEXH@Z:PROC	; CDRChartOcx::ShowInnerToolBar
EXTRN	?InvokeAddIn@CDRChartOcx@@QAEHPBDFJ@Z:PROC	; CDRChartOcx::InvokeAddIn
EXTRN	?SetPacketData@CChartItem@@QAEHPBDJJH@Z:PROC	; CChartItem::SetPacketData
EXTRN	?AddChartBlock@CChartItem@@QAEHPBD@Z:PROC	; CChartItem::AddChartBlock
EXTRN	?GetPrimaryChartItemData@CChartItem@@QAEPAVCChartItemData@@XZ:PROC ; CChartItem::GetPrimaryChartItemData
EXTRN	??_7type_info@@6B@:QWORD			; type_info::`vftable'
_BSS	SEGMENT
?RMSG_STTREE_ITEMCLICK@@3IB DD 01H DUP (?)		; RMSG_STTREE_ITEMCLICK
?RMSG_STTREE_ITEMDBLCLK@@3IB DD 01H DUP (?)		; RMSG_STTREE_ITEMDBLCLK
?RMSG_GETSIGNAL_REAL@@3IB DD 01H DUP (?)		; RMSG_GETSIGNAL_REAL
?RMSG_SETQUERYOPT@@3IB DD 01H DUP (?)			; RMSG_SETQUERYOPT
?RMSG_CHARTMAIN@@3IB DD 01H DUP (?)			; RMSG_CHARTMAIN
?RMS_ANALYSIS_FUNC@@3IB DD 01H DUP (?)			; RMS_ANALYSIS_FUNC
?RMSG_GET_USERID@@3IB DD 01H DUP (?)			; RMSG_GET_USERID
?RMSG_CHANGE_SKINCOLOR@@3IB DD 01H DUP (?)		; RMSG_CHANGE_SKINCOLOR
?RMSG_GET_SKINCOLOR@@3IB DD 01H DUP (?)			; RMSG_GET_SKINCOLOR
?RMSG_CHANGEVERTSCALETYPE@@3IB DD 01H DUP (?)		; RMSG_CHANGEVERTSCALETYPE
?RMSG_CHANGE_CROSSLINE@@3IB DD 01H DUP (?)		; RMSG_CHANGE_CROSSLINE
?RMSG_ADD_PLATFORM_MENU@@3IB DD 01H DUP (?)		; RMSG_ADD_PLATFORM_MENU
?RMSG_SETINITIALCHARTDATA@@3IB DD 01H DUP (?)		; RMSG_SETINITIALCHARTDATA
?RMSG_GETINFO@@3IB DD 01H DUP (?)			; RMSG_GETINFO
?RMSG_SETINFO@@3IB DD 01H DUP (?)			; RMSG_SETINFO
_BSS	ENDS
CRT$XCU	SEGMENT
?RMSG_STTREE_ITEMCLICK$initializer$@@3P6AXXZA DD FLAT:??__ERMSG_STTREE_ITEMCLICK@@YAXXZ ; RMSG_STTREE_ITEMCLICK$initializer$
CRT$XCU	ENDS
;	COMDAT ??_R1A@?0A@EA@CSysTabExChartItem@@8
rdata$r	SEGMENT
??_R1A@?0A@EA@CSysTabExChartItem@@8 DD FLAT:??_R0?AVCSysTabExChartItem@@@8 ; CSysTabExChartItem::`RTTI Base Class Descriptor at (0,-1,0,64)'
	DD	01H
	DD	00H
	DD	0ffffffffH
	DD	00H
	DD	040H
	DD	FLAT:??_R3CSysTabExChartItem@@8
rdata$r	ENDS
;	COMDAT ??_R2CSysTabExChartItem@@8
rdata$r	SEGMENT
??_R2CSysTabExChartItem@@8 DD FLAT:??_R1A@?0A@EA@CSysTabExChartItem@@8 ; CSysTabExChartItem::`RTTI Base Class Array'
	DD	FLAT:??_R1A@?0A@EA@ISysTabExChartItem@@8
rdata$r	ENDS
;	COMDAT ??_R3CSysTabExChartItem@@8
rdata$r	SEGMENT
??_R3CSysTabExChartItem@@8 DD 00H			; CSysTabExChartItem::`RTTI Class Hierarchy Descriptor'
	DD	00H
	DD	02H
	DD	FLAT:??_R2CSysTabExChartItem@@8
rdata$r	ENDS
;	COMDAT ??_R0?AVCSysTabExChartItem@@@8
data$rs	SEGMENT
??_R0?AVCSysTabExChartItem@@@8 DD FLAT:??_7type_info@@6B@ ; CSysTabExChartItem `RTTI Type Descriptor'
	DD	00H
	DB	'.?AVCSysTabExChartItem@@', 00H
data$rs	ENDS
;	COMDAT ??_R4CSysTabExChartItem@@6B@
rdata$r	SEGMENT
??_R4CSysTabExChartItem@@6B@ DD 00H			; CSysTabExChartItem::`RTTI Complete Object Locator'
	DD	00H
	DD	00H
	DD	FLAT:??_R0?AVCSysTabExChartItem@@@8
	DD	FLAT:??_R3CSysTabExChartItem@@8
rdata$r	ENDS
;	COMDAT ??_R1A@?0A@EA@ISysTabExChartItem@@8
rdata$r	SEGMENT
??_R1A@?0A@EA@ISysTabExChartItem@@8 DD FLAT:??_R0?AUISysTabExChartItem@@@8 ; ISysTabExChartItem::`RTTI Base Class Descriptor at (0,-1,0,64)'
	DD	00H
	DD	00H
	DD	0ffffffffH
	DD	00H
	DD	040H
	DD	FLAT:??_R3ISysTabExChartItem@@8
rdata$r	ENDS
;	COMDAT ??_R2ISysTabExChartItem@@8
rdata$r	SEGMENT
??_R2ISysTabExChartItem@@8 DD FLAT:??_R1A@?0A@EA@ISysTabExChartItem@@8 ; ISysTabExChartItem::`RTTI Base Class Array'
rdata$r	ENDS
;	COMDAT ??_R3ISysTabExChartItem@@8
rdata$r	SEGMENT
??_R3ISysTabExChartItem@@8 DD 00H			; ISysTabExChartItem::`RTTI Class Hierarchy Descriptor'
	DD	00H
	DD	01H
	DD	FLAT:??_R2ISysTabExChartItem@@8
rdata$r	ENDS
;	COMDAT ??_R0?AUISysTabExChartItem@@@8
data$rs	SEGMENT
??_R0?AUISysTabExChartItem@@@8 DD FLAT:??_7type_info@@6B@ ; ISysTabExChartItem `RTTI Type Descriptor'
	DD	00H
	DB	'.?AUISysTabExChartItem@@', 00H
data$rs	ENDS
;	COMDAT ??_7CSysTabExChartItem@@6B@
CONST	SEGMENT
??_7CSysTabExChartItem@@6B@ DD FLAT:??_R4CSysTabExChartItem@@6B@ ; CSysTabExChartItem::`vftable'
	DD	FLAT:?GetChartItem@CSysTabExChartItem@@UAGJXZ
	DD	FLAT:?SetChartItem@CSysTabExChartItem@@UAGXJ@Z
	DD	FLAT:?AddPacketAndGraph@CSysTabExChartItem@@UAGHXZ
	DD	FLAT:?SetPacketData@CSysTabExChartItem@@UAGHPBDJJH@Z
	DD	FLAT:?SetNOnePageDataCount@CSysTabExChartItem@@UAGXJ@Z
	DD	FLAT:?ShowInnerToolBar@CSysTabExChartItem@@UAGXH@Z
	DD	FLAT:?InvokeAddIn@CSysTabExChartItem@@UAGHPBDFJ@Z
	DD	FLAT:?AddChartBlock@CSysTabExChartItem@@UAGHPBD@Z
	DD	FLAT:?GetPacketName@CSysTabExChartItem@@UAG?AV?$CStringT@DV?$StrTraitMFC_DLL@DV?$ChTraitsCRT@D@ATL@@@@@ATL@@XZ
CONST	ENDS
CRT$XCU	SEGMENT
?RMSG_STTREE_ITEMDBLCLK$initializer$@@3P6AXXZA DD FLAT:??__ERMSG_STTREE_ITEMDBLCLK@@YAXXZ ; RMSG_STTREE_ITEMDBLCLK$initializer$
CRT$XCU	ENDS
CRT$XCU	SEGMENT
?RMSG_GETSIGNAL_REAL$initializer$@@3P6AXXZA DD FLAT:??__ERMSG_GETSIGNAL_REAL@@YAXXZ ; RMSG_GETSIGNAL_REAL$initializer$
CRT$XCU	ENDS
CRT$XCU	SEGMENT
?RMSG_SETQUERYOPT$initializer$@@3P6AXXZA DD FLAT:??__ERMSG_SETQUERYOPT@@YAXXZ ; RMSG_SETQUERYOPT$initializer$
CRT$XCU	ENDS
CRT$XCU	SEGMENT
?RMSG_CHARTMAIN$initializer$@@3P6AXXZA DD FLAT:??__ERMSG_CHARTMAIN@@YAXXZ ; RMSG_CHARTMAIN$initializer$
CRT$XCU	ENDS
CRT$XCU	SEGMENT
?RMS_ANALYSIS_FUNC$initializer$@@3P6AXXZA DD FLAT:??__ERMS_ANALYSIS_FUNC@@YAXXZ ; RMS_ANALYSIS_FUNC$initializer$
CRT$XCU	ENDS
CRT$XCU	SEGMENT
?RMSG_GET_USERID$initializer$@@3P6AXXZA DD FLAT:??__ERMSG_GET_USERID@@YAXXZ ; RMSG_GET_USERID$initializer$
CRT$XCU	ENDS
CRT$XCU	SEGMENT
?RMSG_CHANGE_SKINCOLOR$initializer$@@3P6AXXZA DD FLAT:??__ERMSG_CHANGE_SKINCOLOR@@YAXXZ ; RMSG_CHANGE_SKINCOLOR$initializer$
CRT$XCU	ENDS
CRT$XCU	SEGMENT
?RMSG_GET_SKINCOLOR$initializer$@@3P6AXXZA DD FLAT:??__ERMSG_GET_SKINCOLOR@@YAXXZ ; RMSG_GET_SKINCOLOR$initializer$
CRT$XCU	ENDS
CRT$XCU	SEGMENT
?RMSG_CHANGEVERTSCALETYPE$initializer$@@3P6AXXZA DD FLAT:??__ERMSG_CHANGEVERTSCALETYPE@@YAXXZ ; RMSG_CHANGEVERTSCALETYPE$initializer$
CRT$XCU	ENDS
CRT$XCU	SEGMENT
?RMSG_CHANGE_CROSSLINE$initializer$@@3P6AXXZA DD FLAT:??__ERMSG_CHANGE_CROSSLINE@@YAXXZ ; RMSG_CHANGE_CROSSLINE$initializer$
CRT$XCU	ENDS
CRT$XCU	SEGMENT
?RMSG_ADD_PLATFORM_MENU$initializer$@@3P6AXXZA DD FLAT:??__ERMSG_ADD_PLATFORM_MENU@@YAXXZ ; RMSG_ADD_PLATFORM_MENU$initializer$
CRT$XCU	ENDS
CRT$XCU	SEGMENT
?RMSG_SETINITIALCHARTDATA$initializer$@@3P6AXXZA DD FLAT:??__ERMSG_SETINITIALCHARTDATA@@YAXXZ ; RMSG_SETINITIALCHARTDATA$initializer$
CRT$XCU	ENDS
CRT$XCU	SEGMENT
?RMSG_GETINFO$initializer$@@3P6AXXZA DD FLAT:??__ERMSG_GETINFO@@YAXXZ ; RMSG_GETINFO$initializer$
CRT$XCU	ENDS
CRT$XCU	SEGMENT
?RMSG_SETINFO$initializer$@@3P6AXXZA DD FLAT:??__ERMSG_SETINFO@@YAXXZ ; RMSG_SETINFO$initializer$
CRT$XCU	ENDS
; Function compile flags: /Ogtp
; File D:\git\src\IBK\IBK_DRFN\ProjSrc\SrcDrfn\Chart\MULTICHART\_SysTabExChartItem.cpp
;	COMDAT ?GetPacketName@CSysTabExChartItem@@UAG?AV?$CStringT@DV?$StrTraitMFC_DLL@DV?$ChTraitsCRT@D@ATL@@@@@ATL@@XZ
_TEXT	SEGMENT
_this$ = 8						; size = 4
___$ReturnUdt$ = 12					; size = 4
?GetPacketName@CSysTabExChartItem@@UAG?AV?$CStringT@DV?$StrTraitMFC_DLL@DV?$ChTraitsCRT@D@ATL@@@@@ATL@@XZ PROC ; CSysTabExChartItem::GetPacketName, COMDAT

; 52   : {

  00000	55		 push	 ebp
  00001	8b ec		 mov	 ebp, esp

; 53   : 	//return m_pChartItem->GetPacketName();
; 54   : 	CChartItemData *pChartItemData = m_pChartItem->GetPrimaryChartItemData();

  00003	8b 4d 08	 mov	 ecx, DWORD PTR _this$[ebp]
  00006	8b 49 04	 mov	 ecx, DWORD PTR [ecx+4]
  00009	e8 00 00 00 00	 call	 ?GetPrimaryChartItemData@CChartItem@@QAEPAVCChartItemData@@XZ ; CChartItem::GetPrimaryChartItemData

; 55   : 	return pChartItemData->GetPacketName();

  0000e	ff 75 0c	 push	 DWORD PTR ___$ReturnUdt$[ebp]
  00011	8b c8		 mov	 ecx, eax
  00013	e8 00 00 00 00	 call	 ?GetPacketName@CChartItemData@@QAE?AV?$CStringT@DV?$StrTraitMFC_DLL@DV?$ChTraitsCRT@D@ATL@@@@@ATL@@XZ ; CChartItemData::GetPacketName
  00018	8b 45 0c	 mov	 eax, DWORD PTR ___$ReturnUdt$[ebp]

; 56   : }

  0001b	5d		 pop	 ebp
  0001c	c2 08 00	 ret	 8
?GetPacketName@CSysTabExChartItem@@UAG?AV?$CStringT@DV?$StrTraitMFC_DLL@DV?$ChTraitsCRT@D@ATL@@@@@ATL@@XZ ENDP ; CSysTabExChartItem::GetPacketName
_TEXT	ENDS
; Function compile flags: /Ogtp
; File D:\git\src\IBK\IBK_DRFN\ProjSrc\SrcDrfn\Chart\MULTICHART\_SysTabExChartItem.cpp
;	COMDAT ?AddChartBlock@CSysTabExChartItem@@UAGHPBD@Z
_TEXT	SEGMENT
_this$ = 8						; size = 4
_lpChartName$ = 12					; size = 4
?AddChartBlock@CSysTabExChartItem@@UAGHPBD@Z PROC	; CSysTabExChartItem::AddChartBlock, COMDAT

; 47   : {

  00000	55		 push	 ebp
  00001	8b ec		 mov	 ebp, esp

; 48   : 	return m_pChartItem->AddChartBlock (lpChartName);

  00003	8b 4d 08	 mov	 ecx, DWORD PTR _this$[ebp]
  00006	ff 75 0c	 push	 DWORD PTR _lpChartName$[ebp]
  00009	8b 49 04	 mov	 ecx, DWORD PTR [ecx+4]
  0000c	e8 00 00 00 00	 call	 ?AddChartBlock@CChartItem@@QAEHPBD@Z ; CChartItem::AddChartBlock

; 49   : }

  00011	5d		 pop	 ebp
  00012	c2 08 00	 ret	 8
?AddChartBlock@CSysTabExChartItem@@UAGHPBD@Z ENDP	; CSysTabExChartItem::AddChartBlock
_TEXT	ENDS
; Function compile flags: /Ogtp
; File D:\git\src\IBK\IBK_DRFN\ProjSrc\SrcDrfn\Chart\MULTICHART\_SysTabExChartItem.cpp
;	COMDAT ?InvokeAddIn@CSysTabExChartItem@@UAGHPBDFJ@Z
_TEXT	SEGMENT
_this$ = 8						; size = 4
_p_szAddInDllName$ = 12					; size = 4
_p_nCommandType$ = 16					; size = 2
_p_lData$ = 20						; size = 4
?InvokeAddIn@CSysTabExChartItem@@UAGHPBDFJ@Z PROC	; CSysTabExChartItem::InvokeAddIn, COMDAT

; 42   : {

  00000	55		 push	 ebp
  00001	8b ec		 mov	 ebp, esp

; 43   : 	return m_pChartItem->InvokeAddIn (p_szAddInDllName, p_nCommandType, p_lData) ;

  00003	ff 75 14	 push	 DWORD PTR _p_lData$[ebp]
  00006	8b 4d 08	 mov	 ecx, DWORD PTR _this$[ebp]
  00009	ff 75 10	 push	 DWORD PTR _p_nCommandType$[ebp]
  0000c	ff 75 0c	 push	 DWORD PTR _p_szAddInDllName$[ebp]
  0000f	8b 49 04	 mov	 ecx, DWORD PTR [ecx+4]
  00012	e8 00 00 00 00	 call	 ?InvokeAddIn@CDRChartOcx@@QAEHPBDFJ@Z ; CDRChartOcx::InvokeAddIn

; 44   : }

  00017	5d		 pop	 ebp
  00018	c2 10 00	 ret	 16			; 00000010H
?InvokeAddIn@CSysTabExChartItem@@UAGHPBDFJ@Z ENDP	; CSysTabExChartItem::InvokeAddIn
_TEXT	ENDS
; Function compile flags: /Ogtp
; File D:\git\src\IBK\IBK_DRFN\ProjSrc\SrcDrfn\Chart\MULTICHART\_SysTabExChartItem.cpp
;	COMDAT ?ShowInnerToolBar@CSysTabExChartItem@@UAGXH@Z
_TEXT	SEGMENT
_this$ = 8						; size = 4
_p_bShow$ = 12						; size = 4
?ShowInnerToolBar@CSysTabExChartItem@@UAGXH@Z PROC	; CSysTabExChartItem::ShowInnerToolBar, COMDAT

; 37   : {

  00000	55		 push	 ebp
  00001	8b ec		 mov	 ebp, esp

; 38   : 	m_pChartItem->ShowInnerToolBar(p_bShow);

  00003	8b 4d 08	 mov	 ecx, DWORD PTR _this$[ebp]
  00006	ff 75 0c	 push	 DWORD PTR _p_bShow$[ebp]
  00009	8b 49 04	 mov	 ecx, DWORD PTR [ecx+4]
  0000c	e8 00 00 00 00	 call	 ?ShowInnerToolBar@CDRChartOcx@@QAEXH@Z ; CDRChartOcx::ShowInnerToolBar

; 39   : }

  00011	5d		 pop	 ebp
  00012	c2 08 00	 ret	 8
?ShowInnerToolBar@CSysTabExChartItem@@UAGXH@Z ENDP	; CSysTabExChartItem::ShowInnerToolBar
_TEXT	ENDS
; Function compile flags: /Ogtp
; File D:\git\src\IBK\IBK_DRFN\ProjSrc\SrcDrfn\Chart\MULTICHART\_SysTabExChartItem.cpp
;	COMDAT ?SetNOnePageDataCount@CSysTabExChartItem@@UAGXJ@Z
_TEXT	SEGMENT
_this$ = 8						; size = 4
_propVal$ = 12						; size = 4
?SetNOnePageDataCount@CSysTabExChartItem@@UAGXJ@Z PROC	; CSysTabExChartItem::SetNOnePageDataCount, COMDAT

; 32   : {

  00000	55		 push	 ebp
  00001	8b ec		 mov	 ebp, esp

; 33   : 	m_pChartItem->SetNOnePageDataCount(propVal);

  00003	8b 4d 08	 mov	 ecx, DWORD PTR _this$[ebp]
  00006	ff 75 0c	 push	 DWORD PTR _propVal$[ebp]
  00009	8b 49 04	 mov	 ecx, DWORD PTR [ecx+4]
  0000c	e8 00 00 00 00	 call	 ?SetNOnePageDataCount@CDRChartOcx@@QAEXJ@Z ; CDRChartOcx::SetNOnePageDataCount

; 34   : }

  00011	5d		 pop	 ebp
  00012	c2 08 00	 ret	 8
?SetNOnePageDataCount@CSysTabExChartItem@@UAGXJ@Z ENDP	; CSysTabExChartItem::SetNOnePageDataCount
_TEXT	ENDS
; Function compile flags: /Ogtp
; File D:\git\src\IBK\IBK_DRFN\ProjSrc\SrcDrfn\Chart\MULTICHART\_SysTabExChartItem.cpp
;	COMDAT ?SetPacketData@CSysTabExChartItem@@UAGHPBDJJH@Z
_TEXT	SEGMENT
_this$ = 8						; size = 4
_szPacketName$ = 12					; size = 4
_szData$ = 16						; size = 4
_nLength$ = 20						; size = 4
_bReset$ = 24						; size = 4
?SetPacketData@CSysTabExChartItem@@UAGHPBDJJH@Z PROC	; CSysTabExChartItem::SetPacketData, COMDAT

; 27   : {

  00000	55		 push	 ebp
  00001	8b ec		 mov	 ebp, esp

; 28   : 	return m_pChartItem->SetPacketData(szPacketName, szData, nLength, bReset);

  00003	ff 75 18	 push	 DWORD PTR _bReset$[ebp]
  00006	8b 4d 08	 mov	 ecx, DWORD PTR _this$[ebp]
  00009	ff 75 14	 push	 DWORD PTR _nLength$[ebp]
  0000c	ff 75 10	 push	 DWORD PTR _szData$[ebp]
  0000f	8b 49 04	 mov	 ecx, DWORD PTR [ecx+4]
  00012	ff 75 0c	 push	 DWORD PTR _szPacketName$[ebp]
  00015	e8 00 00 00 00	 call	 ?SetPacketData@CChartItem@@QAEHPBDJJH@Z ; CChartItem::SetPacketData

; 29   : }

  0001a	5d		 pop	 ebp
  0001b	c2 14 00	 ret	 20			; 00000014H
?SetPacketData@CSysTabExChartItem@@UAGHPBDJJH@Z ENDP	; CSysTabExChartItem::SetPacketData
_TEXT	ENDS
; Function compile flags: /Ogtp
; File D:\git\src\IBK\IBK_DRFN\ProjSrc\SrcDrfn\Chart\MULTICHART\_SysTabExChartItem.cpp
;	COMDAT ?AddPacketAndGraph@CSysTabExChartItem@@UAGHXZ
_TEXT	SEGMENT
_this$ = 8						; size = 4
?AddPacketAndGraph@CSysTabExChartItem@@UAGHXZ PROC	; CSysTabExChartItem::AddPacketAndGraph, COMDAT

; 20   : {

  00000	55		 push	 ebp
  00001	8b ec		 mov	 ebp, esp

; 21   : 	//return m_pChartItem->AddPacketAndGraph();
; 22   : 	CChartItemData *pChartItemData = m_pChartItem->GetPrimaryChartItemData();

  00003	8b 4d 08	 mov	 ecx, DWORD PTR _this$[ebp]
  00006	8b 49 04	 mov	 ecx, DWORD PTR [ecx+4]
  00009	e8 00 00 00 00	 call	 ?GetPrimaryChartItemData@CChartItem@@QAEPAVCChartItemData@@XZ ; CChartItem::GetPrimaryChartItemData

; 23   : 	return pChartItemData->AddPacketAndGraphAnal();

  0000e	8b c8		 mov	 ecx, eax
  00010	e8 00 00 00 00	 call	 ?AddPacketAndGraphAnal@CChartItemData@@QAEHXZ ; CChartItemData::AddPacketAndGraphAnal

; 24   : }

  00015	5d		 pop	 ebp
  00016	c2 04 00	 ret	 4
?AddPacketAndGraph@CSysTabExChartItem@@UAGHXZ ENDP	; CSysTabExChartItem::AddPacketAndGraph
_TEXT	ENDS
; Function compile flags: /Ogtp
; File D:\git\src\IBK\IBK_DRFN\ProjSrc\SrcDrfn\Chart\MULTICHART\_SysTabExChartItem.cpp
;	COMDAT ?SetChartItem@CSysTabExChartItem@@UAGXJ@Z
_TEXT	SEGMENT
_this$ = 8						; size = 4
_dwNewChartItem$ = 12					; size = 4
?SetChartItem@CSysTabExChartItem@@UAGXJ@Z PROC		; CSysTabExChartItem::SetChartItem, COMDAT

; 15   : {

  00000	55		 push	 ebp
  00001	8b ec		 mov	 ebp, esp

; 16   : 	m_pChartItem = (CChartItem*)dwNewChartItem;

  00003	8b 4d 08	 mov	 ecx, DWORD PTR _this$[ebp]
  00006	8b 45 0c	 mov	 eax, DWORD PTR _dwNewChartItem$[ebp]
  00009	89 41 04	 mov	 DWORD PTR [ecx+4], eax

; 17   : }

  0000c	5d		 pop	 ebp
  0000d	c2 08 00	 ret	 8
?SetChartItem@CSysTabExChartItem@@UAGXJ@Z ENDP		; CSysTabExChartItem::SetChartItem
_TEXT	ENDS
; Function compile flags: /Ogtp
; File D:\git\src\IBK\IBK_DRFN\ProjSrc\SrcDrfn\Chart\MULTICHART\_SysTabExChartItem.cpp
;	COMDAT ?GetChartItem@CSysTabExChartItem@@UAGJXZ
_TEXT	SEGMENT
_this$ = 8						; size = 4
?GetChartItem@CSysTabExChartItem@@UAGJXZ PROC		; CSysTabExChartItem::GetChartItem, COMDAT

; 10   : {

  00000	55		 push	 ebp
  00001	8b ec		 mov	 ebp, esp

; 11   : 	return (long)m_pChartItem;

  00003	8b 45 08	 mov	 eax, DWORD PTR _this$[ebp]
  00006	8b 40 04	 mov	 eax, DWORD PTR [eax+4]

; 12   : }

  00009	5d		 pop	 ebp
  0000a	c2 04 00	 ret	 4
?GetChartItem@CSysTabExChartItem@@UAGJXZ ENDP		; CSysTabExChartItem::GetChartItem
_TEXT	ENDS
; Function compile flags: /Ogtp
; File D:\git\src\IBK\IBK_DRFN\ProjSrc\SrcDrfn\Chart\MULTICHART\_SysTabExChartItem.cpp
;	COMDAT ??0CSysTabExChartItem@@QAE@XZ
_TEXT	SEGMENT
??0CSysTabExChartItem@@QAE@XZ PROC			; CSysTabExChartItem::CSysTabExChartItem, COMDAT
; _this$ = ecx

; 5    : {

  00000	c7 01 00 00 00
	00		 mov	 DWORD PTR [ecx], OFFSET ??_7CSysTabExChartItem@@6B@

; 6    : 	m_pChartItem = NULL;
; 7    : }

  00006	8b c1		 mov	 eax, ecx
  00008	c7 41 04 00 00
	00 00		 mov	 DWORD PTR [ecx+4], 0
  0000f	c3		 ret	 0
??0CSysTabExChartItem@@QAE@XZ ENDP			; CSysTabExChartItem::CSysTabExChartItem
_TEXT	ENDS
; Function compile flags: /Ogtp
; File D:\git\src\IBK\IBK_DRFN\ProjSrc\SrcDrfn\Chart\MULTICHART\Define\ChartMsgDef.h
;	COMDAT ??__ERMSG_SETINFO@@YAXXZ
text$di	SEGMENT
??__ERMSG_SETINFO@@YAXXZ PROC				; `dynamic initializer for 'RMSG_SETINFO'', COMDAT

; 238  : const UINT RMSG_SETINFO = ::RegisterWindowMessage(_T("RMSG_SETINFO"));

  00000	68 00 00 00 00	 push	 OFFSET ??_C@_0N@HABLPHJG@RMSG_SETINFO@
  00005	ff 15 00 00 00
	00		 call	 DWORD PTR __imp__RegisterWindowMessageA@4
  0000b	a3 00 00 00 00	 mov	 DWORD PTR ?RMSG_SETINFO@@3IB, eax
  00010	c3		 ret	 0
??__ERMSG_SETINFO@@YAXXZ ENDP				; `dynamic initializer for 'RMSG_SETINFO''
text$di	ENDS
; Function compile flags: /Ogtp
; File D:\git\src\IBK\IBK_DRFN\ProjSrc\SrcDrfn\Chart\MULTICHART\Define\ChartMsgDef.h
;	COMDAT ??__ERMSG_GETINFO@@YAXXZ
text$di	SEGMENT
??__ERMSG_GETINFO@@YAXXZ PROC				; `dynamic initializer for 'RMSG_GETINFO'', COMDAT

; 237  : const UINT RMSG_GETINFO = ::RegisterWindowMessage(_T("RMSG_GETINFO"));

  00000	68 00 00 00 00	 push	 OFFSET ??_C@_0N@IIOKMIEH@RMSG_GETINFO@
  00005	ff 15 00 00 00
	00		 call	 DWORD PTR __imp__RegisterWindowMessageA@4
  0000b	a3 00 00 00 00	 mov	 DWORD PTR ?RMSG_GETINFO@@3IB, eax
  00010	c3		 ret	 0
??__ERMSG_GETINFO@@YAXXZ ENDP				; `dynamic initializer for 'RMSG_GETINFO''
text$di	ENDS
; Function compile flags: /Ogtp
; File D:\git\src\IBK\IBK_DRFN\ProjSrc\SrcDrfn\Chart\MULTICHART\Define\ChartMsgDef.h
;	COMDAT ??__ERMSG_SETINITIALCHARTDATA@@YAXXZ
text$di	SEGMENT
??__ERMSG_SETINITIALCHARTDATA@@YAXXZ PROC		; `dynamic initializer for 'RMSG_SETINITIALCHARTDATA'', COMDAT

; 235  : const UINT RMSG_SETINITIALCHARTDATA = ::RegisterWindowMessage(_T("RMSG_SETINITIALCHARTDATA"));

  00000	68 00 00 00 00	 push	 OFFSET ??_C@_0BJ@OGNAJHHI@RMSG_SETINITIALCHARTDATA@
  00005	ff 15 00 00 00
	00		 call	 DWORD PTR __imp__RegisterWindowMessageA@4
  0000b	a3 00 00 00 00	 mov	 DWORD PTR ?RMSG_SETINITIALCHARTDATA@@3IB, eax
  00010	c3		 ret	 0
??__ERMSG_SETINITIALCHARTDATA@@YAXXZ ENDP		; `dynamic initializer for 'RMSG_SETINITIALCHARTDATA''
text$di	ENDS
; Function compile flags: /Ogtp
; File D:\git\src\IBK\IBK_DRFN\ProjSrc\SrcDrfn\Chart\MULTICHART\Define\ChartMsgDef.h
;	COMDAT ??__ERMSG_ADD_PLATFORM_MENU@@YAXXZ
text$di	SEGMENT
??__ERMSG_ADD_PLATFORM_MENU@@YAXXZ PROC			; `dynamic initializer for 'RMSG_ADD_PLATFORM_MENU'', COMDAT

; 233  : const UINT RMSG_ADD_PLATFORM_MENU = ::RegisterWindowMessage(_T("RMSG_ADD_PLATFORM_MENU"));

  00000	68 00 00 00 00	 push	 OFFSET ??_C@_0BH@IFDMIMBP@RMSG_ADD_PLATFORM_MENU@
  00005	ff 15 00 00 00
	00		 call	 DWORD PTR __imp__RegisterWindowMessageA@4
  0000b	a3 00 00 00 00	 mov	 DWORD PTR ?RMSG_ADD_PLATFORM_MENU@@3IB, eax
  00010	c3		 ret	 0
??__ERMSG_ADD_PLATFORM_MENU@@YAXXZ ENDP			; `dynamic initializer for 'RMSG_ADD_PLATFORM_MENU''
text$di	ENDS
; Function compile flags: /Ogtp
; File D:\git\src\IBK\IBK_DRFN\ProjSrc\SrcDrfn\Chart\MULTICHART\Define\ChartMsgDef.h
;	COMDAT ??__ERMSG_CHANGE_CROSSLINE@@YAXXZ
text$di	SEGMENT
??__ERMSG_CHANGE_CROSSLINE@@YAXXZ PROC			; `dynamic initializer for 'RMSG_CHANGE_CROSSLINE'', COMDAT

; 231  : const UINT RMSG_CHANGE_CROSSLINE = ::RegisterWindowMessage(_T("RMSG_CHANGE_CROSSLINE"));

  00000	68 00 00 00 00	 push	 OFFSET ??_C@_0BG@LNLCJKPF@RMSG_CHANGE_CROSSLINE@
  00005	ff 15 00 00 00
	00		 call	 DWORD PTR __imp__RegisterWindowMessageA@4
  0000b	a3 00 00 00 00	 mov	 DWORD PTR ?RMSG_CHANGE_CROSSLINE@@3IB, eax
  00010	c3		 ret	 0
??__ERMSG_CHANGE_CROSSLINE@@YAXXZ ENDP			; `dynamic initializer for 'RMSG_CHANGE_CROSSLINE''
text$di	ENDS
; Function compile flags: /Ogtp
; File D:\git\src\IBK\IBK_DRFN\ProjSrc\SrcDrfn\Chart\MULTICHART\Define\ChartMsgDef.h
;	COMDAT ??__ERMSG_CHANGEVERTSCALETYPE@@YAXXZ
text$di	SEGMENT
??__ERMSG_CHANGEVERTSCALETYPE@@YAXXZ PROC		; `dynamic initializer for 'RMSG_CHANGEVERTSCALETYPE'', COMDAT

; 229  : const UINT RMSG_CHANGEVERTSCALETYPE = ::RegisterWindowMessage(_T("RMSG_CHANGEVERTSCALETYPE"));

  00000	68 00 00 00 00	 push	 OFFSET ??_C@_0BJ@JLKHIBIK@RMSG_CHANGEVERTSCALETYPE@
  00005	ff 15 00 00 00
	00		 call	 DWORD PTR __imp__RegisterWindowMessageA@4
  0000b	a3 00 00 00 00	 mov	 DWORD PTR ?RMSG_CHANGEVERTSCALETYPE@@3IB, eax
  00010	c3		 ret	 0
??__ERMSG_CHANGEVERTSCALETYPE@@YAXXZ ENDP		; `dynamic initializer for 'RMSG_CHANGEVERTSCALETYPE''
text$di	ENDS
; Function compile flags: /Ogtp
; File D:\git\src\IBK\IBK_DRFN\ProjSrc\SrcDrfn\Chart\MULTICHART\Define\ChartMsgDef.h
;	COMDAT ??__ERMSG_GET_SKINCOLOR@@YAXXZ
text$di	SEGMENT
??__ERMSG_GET_SKINCOLOR@@YAXXZ PROC			; `dynamic initializer for 'RMSG_GET_SKINCOLOR'', COMDAT

; 226  : const UINT RMSG_GET_SKINCOLOR = ::RegisterWindowMessage(_T("RMSG_GET_SKINCOLOR"));

  00000	68 00 00 00 00	 push	 OFFSET ??_C@_0BD@FLDNDDHK@RMSG_GET_SKINCOLOR@
  00005	ff 15 00 00 00
	00		 call	 DWORD PTR __imp__RegisterWindowMessageA@4
  0000b	a3 00 00 00 00	 mov	 DWORD PTR ?RMSG_GET_SKINCOLOR@@3IB, eax
  00010	c3		 ret	 0
??__ERMSG_GET_SKINCOLOR@@YAXXZ ENDP			; `dynamic initializer for 'RMSG_GET_SKINCOLOR''
text$di	ENDS
; Function compile flags: /Ogtp
; File D:\git\src\IBK\IBK_DRFN\ProjSrc\SrcDrfn\Chart\MULTICHART\Define\ChartMsgDef.h
;	COMDAT ??__ERMSG_CHANGE_SKINCOLOR@@YAXXZ
text$di	SEGMENT
??__ERMSG_CHANGE_SKINCOLOR@@YAXXZ PROC			; `dynamic initializer for 'RMSG_CHANGE_SKINCOLOR'', COMDAT

; 225  : const UINT RMSG_CHANGE_SKINCOLOR = ::RegisterWindowMessage(_T("RMSG_CHANGE_SKINCOLOR"));

  00000	68 00 00 00 00	 push	 OFFSET ??_C@_0BG@CNPAHNGG@RMSG_CHANGE_SKINCOLOR@
  00005	ff 15 00 00 00
	00		 call	 DWORD PTR __imp__RegisterWindowMessageA@4
  0000b	a3 00 00 00 00	 mov	 DWORD PTR ?RMSG_CHANGE_SKINCOLOR@@3IB, eax
  00010	c3		 ret	 0
??__ERMSG_CHANGE_SKINCOLOR@@YAXXZ ENDP			; `dynamic initializer for 'RMSG_CHANGE_SKINCOLOR''
text$di	ENDS
; Function compile flags: /Ogtp
; File D:\git\src\IBK\IBK_DRFN\ProjSrc\SrcDrfn\Chart\MULTICHART\Define\ChartMsgDef.h
;	COMDAT ??__ERMSG_GET_USERID@@YAXXZ
text$di	SEGMENT
??__ERMSG_GET_USERID@@YAXXZ PROC			; `dynamic initializer for 'RMSG_GET_USERID'', COMDAT

; 215  : const UINT RMSG_GET_USERID = ::RegisterWindowMessage(_T("RMSG_GET_USERID"));	// User ID ¾ò±â

  00000	68 00 00 00 00	 push	 OFFSET ??_C@_0BA@HKNFENJL@RMSG_GET_USERID@
  00005	ff 15 00 00 00
	00		 call	 DWORD PTR __imp__RegisterWindowMessageA@4
  0000b	a3 00 00 00 00	 mov	 DWORD PTR ?RMSG_GET_USERID@@3IB, eax
  00010	c3		 ret	 0
??__ERMSG_GET_USERID@@YAXXZ ENDP			; `dynamic initializer for 'RMSG_GET_USERID''
text$di	ENDS
; Function compile flags: /Ogtp
; File D:\git\src\IBK\IBK_DRFN\ProjSrc\SrcDrfn\Chart\MULTICHART\Define\ChartMsgDef.h
;	COMDAT ??__ERMS_ANALYSIS_FUNC@@YAXXZ
text$di	SEGMENT
??__ERMS_ANALYSIS_FUNC@@YAXXZ PROC			; `dynamic initializer for 'RMS_ANALYSIS_FUNC'', COMDAT

; 211  : const UINT RMS_ANALYSIS_FUNC	= ::RegisterWindowMessage(_T("RMS_ANALYSIS_FUNC"));

  00000	68 00 00 00 00	 push	 OFFSET ??_C@_0BC@MMPGLPDH@RMS_ANALYSIS_FUNC@
  00005	ff 15 00 00 00
	00		 call	 DWORD PTR __imp__RegisterWindowMessageA@4
  0000b	a3 00 00 00 00	 mov	 DWORD PTR ?RMS_ANALYSIS_FUNC@@3IB, eax
  00010	c3		 ret	 0
??__ERMS_ANALYSIS_FUNC@@YAXXZ ENDP			; `dynamic initializer for 'RMS_ANALYSIS_FUNC''
text$di	ENDS
; Function compile flags: /Ogtp
; File D:\git\src\IBK\IBK_DRFN\ProjSrc\SrcDrfn\Chart\MULTICHART\Define\ChartMsgDef.h
;	COMDAT ??__ERMSG_CHARTMAIN@@YAXXZ
text$di	SEGMENT
??__ERMSG_CHARTMAIN@@YAXXZ PROC				; `dynamic initializer for 'RMSG_CHARTMAIN'', COMDAT

; 208  : const UINT RMSG_CHARTMAIN		= ::RegisterWindowMessage(_T("RMSG_CHARTMAIN"));

  00000	68 00 00 00 00	 push	 OFFSET ??_C@_0P@KHFCBIOH@RMSG_CHARTMAIN@
  00005	ff 15 00 00 00
	00		 call	 DWORD PTR __imp__RegisterWindowMessageA@4
  0000b	a3 00 00 00 00	 mov	 DWORD PTR ?RMSG_CHARTMAIN@@3IB, eax
  00010	c3		 ret	 0
??__ERMSG_CHARTMAIN@@YAXXZ ENDP				; `dynamic initializer for 'RMSG_CHARTMAIN''
text$di	ENDS
; Function compile flags: /Ogtp
; File D:\git\src\IBK\IBK_DRFN\ProjSrc\SrcDrfn\Chart\MULTICHART\Define\ChartMsgDef.h
;	COMDAT ??__ERMSG_SETQUERYOPT@@YAXXZ
text$di	SEGMENT
??__ERMSG_SETQUERYOPT@@YAXXZ PROC			; `dynamic initializer for 'RMSG_SETQUERYOPT'', COMDAT

; 183  : const UINT RMSG_SETQUERYOPT = ::RegisterWindowMessage(_T("RMSG_SETQUERYOPT"));

  00000	68 00 00 00 00	 push	 OFFSET ??_C@_0BB@CNOFPEHG@RMSG_SETQUERYOPT@
  00005	ff 15 00 00 00
	00		 call	 DWORD PTR __imp__RegisterWindowMessageA@4
  0000b	a3 00 00 00 00	 mov	 DWORD PTR ?RMSG_SETQUERYOPT@@3IB, eax
  00010	c3		 ret	 0
??__ERMSG_SETQUERYOPT@@YAXXZ ENDP			; `dynamic initializer for 'RMSG_SETQUERYOPT''
text$di	ENDS
; Function compile flags: /Ogtp
; File D:\git\src\IBK\IBK_DRFN\ProjSrc\SrcDrfn\Chart\commontr\TRDefine.h
;	COMDAT ??__ERMSG_GETSIGNAL_REAL@@YAXXZ
text$di	SEGMENT
??__ERMSG_GETSIGNAL_REAL@@YAXXZ PROC			; `dynamic initializer for 'RMSG_GETSIGNAL_REAL'', COMDAT

; 213  : const UINT RMSG_GETSIGNAL_REAL = ::RegisterWindowMessage(_T("RMSG_GETSIGNAL_REAL"));

  00000	68 00 00 00 00	 push	 OFFSET ??_C@_0BE@FJPKENOB@RMSG_GETSIGNAL_REAL@
  00005	ff 15 00 00 00
	00		 call	 DWORD PTR __imp__RegisterWindowMessageA@4
  0000b	a3 00 00 00 00	 mov	 DWORD PTR ?RMSG_GETSIGNAL_REAL@@3IB, eax
  00010	c3		 ret	 0
??__ERMSG_GETSIGNAL_REAL@@YAXXZ ENDP			; `dynamic initializer for 'RMSG_GETSIGNAL_REAL''
text$di	ENDS
; Function compile flags: /Ogtp
; File D:\git\src\IBK\IBK_DRFN\ProjSrc\SrcDrfn\Chart\Common_ST\STTreeCtrl.h
;	COMDAT ??__ERMSG_STTREE_ITEMDBLCLK@@YAXXZ
text$di	SEGMENT
??__ERMSG_STTREE_ITEMDBLCLK@@YAXXZ PROC			; `dynamic initializer for 'RMSG_STTREE_ITEMDBLCLK'', COMDAT

; 12   : const UINT RMSG_STTREE_ITEMDBLCLK	= ::RegisterWindowMessage("RMSG_STTREE_ITEMDBLCLK");

  00000	68 00 00 00 00	 push	 OFFSET ??_C@_0BH@LAAMLACL@RMSG_STTREE_ITEMDBLCLK@
  00005	ff 15 00 00 00
	00		 call	 DWORD PTR __imp__RegisterWindowMessageA@4
  0000b	a3 00 00 00 00	 mov	 DWORD PTR ?RMSG_STTREE_ITEMDBLCLK@@3IB, eax
  00010	c3		 ret	 0
??__ERMSG_STTREE_ITEMDBLCLK@@YAXXZ ENDP			; `dynamic initializer for 'RMSG_STTREE_ITEMDBLCLK''
text$di	ENDS
; Function compile flags: /Ogtp
; File D:\git\src\IBK\IBK_DRFN\ProjSrc\SrcDrfn\Chart\Common_ST\STTreeCtrl.h
;	COMDAT ??__ERMSG_STTREE_ITEMCLICK@@YAXXZ
text$di	SEGMENT
??__ERMSG_STTREE_ITEMCLICK@@YAXXZ PROC			; `dynamic initializer for 'RMSG_STTREE_ITEMCLICK'', COMDAT

; 11   : const UINT RMSG_STTREE_ITEMCLICK	= ::RegisterWindowMessage("RMSG_STTREE_ITEMCLICK");

  00000	68 00 00 00 00	 push	 OFFSET ??_C@_0BG@OHIMHJEO@RMSG_STTREE_ITEMCLICK@
  00005	ff 15 00 00 00
	00		 call	 DWORD PTR __imp__RegisterWindowMessageA@4
  0000b	a3 00 00 00 00	 mov	 DWORD PTR ?RMSG_STTREE_ITEMCLICK@@3IB, eax
  00010	c3		 ret	 0
??__ERMSG_STTREE_ITEMCLICK@@YAXXZ ENDP			; `dynamic initializer for 'RMSG_STTREE_ITEMCLICK''
text$di	ENDS
; Function compile flags: /Ogtp
; File D:\git\src\IBK\IBK_DRFN\ProjSrc\SrcDrfn\Chart\MULTICHART\_SysTabExChartItem.cpp
;	COMDAT ?__empty_global_delete@@YAXPAXI@Z
_TEXT	SEGMENT
___formal$ = 8						; size = 4
___formal$ = 12						; size = 4
?__empty_global_delete@@YAXPAXI@Z PROC			; __empty_global_delete, COMDAT

  00000	c2 00 00	 ret	 0
?__empty_global_delete@@YAXPAXI@Z ENDP			; __empty_global_delete
_TEXT	ENDS
; Function compile flags: /Ogtp
; File D:\git\src\IBK\IBK_DRFN\ProjSrc\SrcDrfn\Chart\MULTICHART\_SysTabExChartItem.cpp
;	COMDAT ?__empty_global_delete@@YAXPAX@Z
_TEXT	SEGMENT
___formal$ = 8						; size = 4
?__empty_global_delete@@YAXPAX@Z PROC			; __empty_global_delete, COMDAT

  00000	c2 00 00	 ret	 0
?__empty_global_delete@@YAXPAX@Z ENDP			; __empty_global_delete
_TEXT	ENDS
END
