; Listing generated by Microsoft (R) Optimizing Compiler Version 19.29.30148.0 

	TITLE	D:\git\src\IBK\IBK_DRFN\#DRfn-CS\_Obj\MultiChart\ChartItem.obj
	.686P
	.XMM
	include listing.inc
	.model	flat

INCLUDELIB MSVCRT
INCLUDELIB OLDNAMES

PUBLIC	?szSetAll@@3PAPBDA				; szSetAll
PUBLIC	??_C@_0BB@FIOKMGNC@CM?$DNName?0DRChart0@	; `string'
PUBLIC	??_C@_0M@NKDMHNJI@AN?$DNDRChart0@		; `string'
PUBLIC	??_C@_08BICDAHAP@ID?$DN3?04?00@			; `string'
PUBLIC	??_C@_0BA@NBPKJDOB@RC?$DN2?024?0397?0248@	; `string'
PUBLIC	??_C@_0BH@FEKIBBCD@WS?$DNWS_CHILD?$HMWS_VISIBLE@ ; `string'
PUBLIC	??_C@_04HGOPLMOA@WSE?$DN@			; `string'
PUBLIC	??_C@_05BGEENDHH@BDT?$DN0@			; `string'
PUBLIC	??_C@_05NMIICLAK@SLT?$DN2@			; `string'
PUBLIC	??_C@_04KOHNALHH@WV?$DN0@			; `string'
PUBLIC	??_C@_06DGPPEGEP@PDC?$DN70@			; `string'
PUBLIC	??_C@_06JCPOCGKJ@BAC?$DN10@			; `string'
PUBLIC	??_C@_05BGJABFFL@GDD?$DN0@			; `string'
PUBLIC	??_C@_05ODHKPCFN@AGM?$DN1@			; `string'
PUBLIC	??_C@_04HFNDAEO@EFN?$DN@			; `string'
PUBLIC	??_C@_04MCKNNNEP@IFN?$DN@			; `string'
PUBLIC	??_C@_03OIGNNCO@SY?$DN@				; `string'
PUBLIC	??_C@_04EELHEMON@HI?$DN0@			; `string'
PUBLIC	??_C@_04POMPLFMD@IR?$DN0@			; `string'
PUBLIC	??_C@_0FO@MAKIIACA@TO?$DN?$LD?$LL?$LK?N?$AN?6?$LN?$LK?E?$KJ?$LH?Q?$LJ?Y?$DL?$DL?$DL?$AN?6?H?$KO?$LE?k?0?C?$OA?$LM?R@ ; `string'
PUBLIC	??_C@_0IG@EHBJAONO@CL?$DNBlockColumn?$DL?$AN?6Block?$DL?$AN?6?$MA?Z?$LH?a?$MA?O@ ; `string'
PUBLIC	??_C@_05GIGGMCJG@PO?$DN?$AN?6@			; `string'
PUBLIC	??_C@_0P@PLAOAJKD@LSL?$DN?$LM?$LB?$LJ?$LA?D?Z?$LF?e5?$DL@ ; `string'
PUBLIC	??_C@_03KMNHNLNA@RL?$DN@			; `string'
PUBLIC	??_C@_05KODFOFKI@URD?$DN1@			; `string'
PUBLIC	??_C@_05EDHPMHMB@MBT?$DN3@			; `string'
PUBLIC	??_C@_09MDJFDHDM@USESKIN?$DN0@			; `string'
PUBLIC	??_C@_0P@HDPBBKDH@CAT?$DN82?0103?0146@		; `string'
PUBLIC	??_C@_0BN@BFPGAAKF@BR?$DNrow?$DL0?$DL216?$DL?$AN?6column?$DL0?$DL387?$DL@ ; `string'
PUBLIC	??_C@_05GAOANJKP@RDB?$DN0@			; `string'
PUBLIC	??_C@_08ILEKNKKH@UIDWCL?$DN0@			; `string'
PUBLIC	??_C@_05KIGKAIJB@CDB?$DN0@			; `string'
PUBLIC	??_C@_0BH@OHNDIAJO@CFT?$DN?$LB?$LM?$LI?$LC?C?$LM?$DL12?$DL0?$DL0?$DL0?$DL0?$DL@ ; `string'
PUBLIC	??_C@_05NCCNONAP@USK?$DN0@			; `string'
PUBLIC	??_C@_06PJKABONM@UCTT?$DN1@			; `string'
PUBLIC	??_C@_06PNLOBPCF@UDTT?$DN0@			; `string'
PUBLIC	??_C@_07FOPCNGMM@NRBMT?$DN1@			; `string'
PUBLIC	??_C@_07JAFIGCBN@BSWMB?$DN0@			; `string'
PUBLIC	??_C@_06CJKOOGAH@BCBS?$DN1@			; `string'
PUBLIC	??_C@_06KNGMMNFF@BBMD?$DN1@			; `string'
PUBLIC	??_C@_05NNJPKJKE@BST?$DN1@			; `string'
PUBLIC	??_C@_05JPDDFBNF@BSG?$DN1@			; `string'
PUBLIC	??_C@_08GIMJNBM@BUSRBM?$DN1@			; `string'
PUBLIC	??_C@_05OGNKAGHM@NHG?$DN0@			; `string'
PUBLIC	??_C@_05DJAKCPJP@NVG?$DN0@			; `string'
PUBLIC	??_C@_07OKJCPAOP@NGRBT?$DN1@			; `string'
PUBLIC	??_C@_09OLDEPMIO@NHPS?$DN3000@			; `string'
PUBLIC	??_C@_09KMNCLMP@NMDCOOP?$DN5@			; `string'
PUBLIC	??_C@_0BF@OHLJPBK@?$CBMapSize?$DN0?00?0400?0250@ ; `string'
PUBLIC	??_C@_08BNMFONIJ@BRAUAP?$DN0@			; `string'
PUBLIC	??_C@_05HKGCMCCH@NIO?$DN4@			; `string'
PUBLIC	??_C@_0DB@GEMKPACD@GSL?$DN?$LN?C?$LA?$KD?9?$LB?W?$LI?$KO?$LF?e4?$DL?$LN?C?$LA?$KD?9?B?w?F?$KO2?$DL?H?$KD?$LA@ ; `string'
PUBLIC	?szSetAllNoToolbar@@3PAPBDA			; szSetAllNoToolbar
PUBLIC	??_C@_0BB@DEFHJHGK@CM?$DNName?0SyChart0@	; `string'
PUBLIC	??_C@_0M@LGIBCMCA@AN?$DNSyChart0@		; `string'
PUBLIC	??_C@_04KMHENLAO@BT?$DN0@			; `string'
PUBLIC	??_C@_04GBLKLECI@BC?$DN0@			; `string'
PUBLIC	??_C@_06MBKLPFNP@ROWC?$DN1@			; `string'
PUBLIC	??_C@_04EFMBKMNJ@CC?$DN1@			; `string'
PUBLIC	??_C@_05BCPHIDBP@BG?$DN?91@			; `string'
PUBLIC	??_C@_05IABPBHJG@BBT?$DN1@			; `string'
PUBLIC	??_C@_04EDCCIJDP@LM?$DN5@			; `string'
PUBLIC	??_C@_04OBIFFEJJ@RM?$DN0@			; `string'
PUBLIC	??_C@_04BDLCFFHM@TM?$DN5@			; `string'
PUBLIC	??_C@_04IBGFMDBL@BM?$DN0@			; `string'
PUBLIC	??_C@_0GA@NGACOJJ@TO?$DN?$LD?$LL?$LK?N?$AN?6?$AN?6?$LN?$LK?E?$KJ?$LH?Q?$LJ?Y?$DL?$DL?$DL?$AN?6?H?$KO?$LE?k?0?C?$OA@ ; `string'
PUBLIC	??_C@_0BB@BNIKMGEP@CBKG?$DN255?0255?0255@	; `string'
PUBLIC	??_C@_0BB@HGHJHDCP@CBKB?$DN188?0198?0223@	; `string'
PUBLIC	??_C@_0P@OPJOHLBG@CB?$DN255?0255?0255@		; `string'
PUBLIC	??_C@_09CFOBLFNH@CBB?$DN0?00?00@		; `string'
PUBLIC	??_C@_09CEIONLEJ@CST?$DN0?00?00@		; `string'
PUBLIC	??_C@_0P@HMGPJLGD@CGB1?$DN8?0189?0246@		; `string'
PUBLIC	??_C@_0P@CCGELOCN@CGB2?$DN128?0182?00@		; `string'
PUBLIC	??_C@_0P@EFCBOFHL@CGB3?$DN253?0122?04@		; `string'
PUBLIC	??_C@_0BA@JNONCDJL@CGB4?$DN150?019?0147@	; `string'
PUBLIC	??_C@_0BA@CCMHBAEK@CGB5?$DN255?0133?011@	; `string'
PUBLIC	??_C@_0P@BBNOALAP@CGB6?$DN128?00?0255@		; `string'
PUBLIC	??_C@_0BA@FGFOFOLL@CIW?$DN255?0255?0255@	; `string'
PUBLIC	??_C@_0BB@OGHJDJLG@CLTI?$DN255?0255?0255@	; `string'
PUBLIC	??_C@_05EIFEKAKF@NIO?$DN6@			; `string'
PUBLIC	??_C@_0CG@JGLGHEOC@GSL?$DN?$LN?C?$LA?$KD?9?$LB?W?$LI?$KO?$LF?e4?$DL?$LN?C?$LA?$KD?9?B?w?F?$KO2?$DLPGC@ ; `string'
PUBLIC	?WM_ATLGETHOST@ATL@@3IA				; ATL::WM_ATLGETHOST
PUBLIC	?WM_ATLGETCONTROL@ATL@@3IA			; ATL::WM_ATLGETCONTROL
PUBLIC	??_C@_0BB@IBKHOHJL@RMSG_REPLAY_REAL@		; `string'
PUBLIC	??_C@_0BB@JFLGBADG@RMSG_REPLAY_FAIL@		; `string'
PUBLIC	??_C@_0BI@KDGAIIMD@RMSG_REPLAY_CHANGE_DATE@	; `string'
PUBLIC	??_C@_0BA@NKHHCPON@RMSG_REPLAY_END@		; `string'
PUBLIC	??_C@_0BE@JFCIMCIP@RMSG_REPLAY_INC_SEC@		; `string'
PUBLIC	??_C@_0BG@GIAJEIJF@RMSG_REPLAY_TOTAL_SEC@	; `string'
PUBLIC	??_C@_0BC@FHIPKCJJ@RMSG_FROMCODELIST@		; `string'
PUBLIC	??_C@_0BC@GGHIPHFD@RMSG_SETSHAREDATA@		; `string'
PUBLIC	??_C@_0O@JLGCPGDL@RMSG_OPENMAP2@		; `string'
PUBLIC	??_C@_0BL@ONHOHGGM@RMSG_FROMHOGAJUMUN_DESTROY@	; `string'
PUBLIC	??_C@_0BJ@LMIHANJC@RMSG_HOGACHANGEDATA_CODE@	; `string'
PUBLIC	??_C@_0BJ@NKAHNENP@RMSG_HOGACHANGEDATA_ACCT@	; `string'
PUBLIC	??_C@_0BA@OPONGCEC@RMSG_SHARED_PIN@		; `string'
PUBLIC	??_C@_0BE@NAJONFKO@RMSG_RESIZEFROMGWAN@		; `string'
PUBLIC	??_C@_0BB@JOGLHCCG@RMSG_MESSAGESHOW@		; `string'
PUBLIC	??_C@_0BC@ICLGGCHO@RMSG_GETSKINVALUE@		; `string'
PUBLIC	??_C@_0BE@FJPKENOB@RMSG_GETSIGNAL_REAL@		; `string'
PUBLIC	??_C@_0BB@CNOFPEHG@RMSG_SETQUERYOPT@		; `string'
PUBLIC	??_C@_0P@KHFCBIOH@RMSG_CHARTMAIN@		; `string'
PUBLIC	??_C@_0BC@MMPGLPDH@RMS_ANALYSIS_FUNC@		; `string'
PUBLIC	??_C@_0BA@HKNFENJL@RMSG_GET_USERID@		; `string'
PUBLIC	??_C@_0BG@CNPAHNGG@RMSG_CHANGE_SKINCOLOR@	; `string'
PUBLIC	??_C@_0BD@FLDNDDHK@RMSG_GET_SKINCOLOR@		; `string'
PUBLIC	??_C@_0BJ@JLKHIBIK@RMSG_CHANGEVERTSCALETYPE@	; `string'
PUBLIC	??_C@_0BG@LNLCJKPF@RMSG_CHANGE_CROSSLINE@	; `string'
PUBLIC	??_C@_0BH@IFDMIMBP@RMSG_ADD_PLATFORM_MENU@	; `string'
PUBLIC	??_C@_0BJ@OGNAJHHI@RMSG_SETINITIALCHARTDATA@	; `string'
PUBLIC	??_C@_0N@IIOKMIEH@RMSG_GETINFO@			; `string'
PUBLIC	??_C@_0N@HABLPHJG@RMSG_SETINFO@			; `string'
PUBLIC	??_C@_0P@BKKCOCLK@RMSG_INTERFACE@		; `string'
PUBLIC	??_C@_0BB@GOOPDKI@RMSG_GETPCTRDATA@		; `string'
PUBLIC	?m_bInitFailed@CAtlBaseModule@ATL@@2_NA		; ATL::CAtlBaseModule::m_bInitFailed
PUBLIC	?_pAtlModule@ATL@@3PAVCAtlModule@1@A		; ATL::_pAtlModule
PUBLIC	?_pAtlAutoThreadModule@ATL@@3PAUIAtlAutoThreadModule@1@A ; ATL::_pAtlAutoThreadModule
EXTRN	?_AtlBaseModule@ATL@@3VCAtlBaseModule@1@A:BYTE	; ATL::_AtlBaseModule
;	COMDAT ?WM_ATLGETHOST@ATL@@3IA
_BSS	SEGMENT
?WM_ATLGETHOST@ATL@@3IA DD 01H DUP (?)			; ATL::WM_ATLGETHOST
_BSS	ENDS
;	COMDAT ?WM_ATLGETCONTROL@ATL@@3IA
_BSS	SEGMENT
?WM_ATLGETCONTROL@ATL@@3IA DD 01H DUP (?)		; ATL::WM_ATLGETCONTROL
_BSS	ENDS
;	COMDAT ?m_bInitFailed@CAtlBaseModule@ATL@@2_NA
_BSS	SEGMENT
?m_bInitFailed@CAtlBaseModule@ATL@@2_NA DB 01H DUP (?)	; ATL::CAtlBaseModule::m_bInitFailed
_BSS	ENDS
;	COMDAT ?_pAtlModule@ATL@@3PAVCAtlModule@1@A
_BSS	SEGMENT
?_pAtlModule@ATL@@3PAVCAtlModule@1@A DD 01H DUP (?)	; ATL::_pAtlModule
_BSS	ENDS
;	COMDAT ?_pAtlAutoThreadModule@ATL@@3PAUIAtlAutoThreadModule@1@A
_BSS	SEGMENT
?_pAtlAutoThreadModule@ATL@@3PAUIAtlAutoThreadModule@1@A DD 01H DUP (?) ; ATL::_pAtlAutoThreadModule
_BSS	ENDS
;	COMDAT ??_C@_0BB@GOOPDKI@RMSG_GETPCTRDATA@
CONST	SEGMENT
??_C@_0BB@GOOPDKI@RMSG_GETPCTRDATA@ DB 'RMSG_GETPCTRDATA', 00H ; `string'
CONST	ENDS
;	COMDAT ??_C@_0P@BKKCOCLK@RMSG_INTERFACE@
CONST	SEGMENT
??_C@_0P@BKKCOCLK@RMSG_INTERFACE@ DB 'RMSG_INTERFACE', 00H ; `string'
CONST	ENDS
;	COMDAT ??_C@_0N@HABLPHJG@RMSG_SETINFO@
CONST	SEGMENT
??_C@_0N@HABLPHJG@RMSG_SETINFO@ DB 'RMSG_SETINFO', 00H	; `string'
CONST	ENDS
;	COMDAT ??_C@_0N@IIOKMIEH@RMSG_GETINFO@
CONST	SEGMENT
??_C@_0N@IIOKMIEH@RMSG_GETINFO@ DB 'RMSG_GETINFO', 00H	; `string'
CONST	ENDS
;	COMDAT ??_C@_0BJ@OGNAJHHI@RMSG_SETINITIALCHARTDATA@
CONST	SEGMENT
??_C@_0BJ@OGNAJHHI@RMSG_SETINITIALCHARTDATA@ DB 'RMSG_SETINITIALCHARTDATA'
	DB	00H						; `string'
CONST	ENDS
;	COMDAT ??_C@_0BH@IFDMIMBP@RMSG_ADD_PLATFORM_MENU@
CONST	SEGMENT
??_C@_0BH@IFDMIMBP@RMSG_ADD_PLATFORM_MENU@ DB 'RMSG_ADD_PLATFORM_MENU', 00H ; `string'
CONST	ENDS
;	COMDAT ??_C@_0BG@LNLCJKPF@RMSG_CHANGE_CROSSLINE@
CONST	SEGMENT
??_C@_0BG@LNLCJKPF@RMSG_CHANGE_CROSSLINE@ DB 'RMSG_CHANGE_CROSSLINE', 00H ; `string'
CONST	ENDS
;	COMDAT ??_C@_0BJ@JLKHIBIK@RMSG_CHANGEVERTSCALETYPE@
CONST	SEGMENT
??_C@_0BJ@JLKHIBIK@RMSG_CHANGEVERTSCALETYPE@ DB 'RMSG_CHANGEVERTSCALETYPE'
	DB	00H						; `string'
CONST	ENDS
;	COMDAT ??_C@_0BD@FLDNDDHK@RMSG_GET_SKINCOLOR@
CONST	SEGMENT
??_C@_0BD@FLDNDDHK@RMSG_GET_SKINCOLOR@ DB 'RMSG_GET_SKINCOLOR', 00H ; `string'
CONST	ENDS
;	COMDAT ??_C@_0BG@CNPAHNGG@RMSG_CHANGE_SKINCOLOR@
CONST	SEGMENT
??_C@_0BG@CNPAHNGG@RMSG_CHANGE_SKINCOLOR@ DB 'RMSG_CHANGE_SKINCOLOR', 00H ; `string'
CONST	ENDS
;	COMDAT ??_C@_0BA@HKNFENJL@RMSG_GET_USERID@
CONST	SEGMENT
??_C@_0BA@HKNFENJL@RMSG_GET_USERID@ DB 'RMSG_GET_USERID', 00H ; `string'
CONST	ENDS
;	COMDAT ??_C@_0BC@MMPGLPDH@RMS_ANALYSIS_FUNC@
CONST	SEGMENT
??_C@_0BC@MMPGLPDH@RMS_ANALYSIS_FUNC@ DB 'RMS_ANALYSIS_FUNC', 00H ; `string'
CONST	ENDS
;	COMDAT ??_C@_0P@KHFCBIOH@RMSG_CHARTMAIN@
CONST	SEGMENT
??_C@_0P@KHFCBIOH@RMSG_CHARTMAIN@ DB 'RMSG_CHARTMAIN', 00H ; `string'
CONST	ENDS
;	COMDAT ??_C@_0BB@CNOFPEHG@RMSG_SETQUERYOPT@
CONST	SEGMENT
??_C@_0BB@CNOFPEHG@RMSG_SETQUERYOPT@ DB 'RMSG_SETQUERYOPT', 00H ; `string'
CONST	ENDS
;	COMDAT ??_C@_0BE@FJPKENOB@RMSG_GETSIGNAL_REAL@
CONST	SEGMENT
??_C@_0BE@FJPKENOB@RMSG_GETSIGNAL_REAL@ DB 'RMSG_GETSIGNAL_REAL', 00H ; `string'
CONST	ENDS
;	COMDAT ??_C@_0BC@ICLGGCHO@RMSG_GETSKINVALUE@
CONST	SEGMENT
??_C@_0BC@ICLGGCHO@RMSG_GETSKINVALUE@ DB 'RMSG_GETSKINVALUE', 00H ; `string'
CONST	ENDS
;	COMDAT ??_C@_0BB@JOGLHCCG@RMSG_MESSAGESHOW@
CONST	SEGMENT
??_C@_0BB@JOGLHCCG@RMSG_MESSAGESHOW@ DB 'RMSG_MESSAGESHOW', 00H ; `string'
CONST	ENDS
;	COMDAT ??_C@_0BE@NAJONFKO@RMSG_RESIZEFROMGWAN@
CONST	SEGMENT
??_C@_0BE@NAJONFKO@RMSG_RESIZEFROMGWAN@ DB 'RMSG_RESIZEFROMGWAN', 00H ; `string'
CONST	ENDS
;	COMDAT ??_C@_0BA@OPONGCEC@RMSG_SHARED_PIN@
CONST	SEGMENT
??_C@_0BA@OPONGCEC@RMSG_SHARED_PIN@ DB 'RMSG_SHARED_PIN', 00H ; `string'
CONST	ENDS
;	COMDAT ??_C@_0BJ@NKAHNENP@RMSG_HOGACHANGEDATA_ACCT@
CONST	SEGMENT
??_C@_0BJ@NKAHNENP@RMSG_HOGACHANGEDATA_ACCT@ DB 'RMSG_HOGACHANGEDATA_ACCT'
	DB	00H						; `string'
CONST	ENDS
;	COMDAT ??_C@_0BJ@LMIHANJC@RMSG_HOGACHANGEDATA_CODE@
CONST	SEGMENT
??_C@_0BJ@LMIHANJC@RMSG_HOGACHANGEDATA_CODE@ DB 'RMSG_HOGACHANGEDATA_CODE'
	DB	00H						; `string'
CONST	ENDS
;	COMDAT ??_C@_0BL@ONHOHGGM@RMSG_FROMHOGAJUMUN_DESTROY@
CONST	SEGMENT
??_C@_0BL@ONHOHGGM@RMSG_FROMHOGAJUMUN_DESTROY@ DB 'RMSG_FROMHOGAJUMUN_DES'
	DB	'TROY', 00H					; `string'
CONST	ENDS
;	COMDAT ??_C@_0O@JLGCPGDL@RMSG_OPENMAP2@
CONST	SEGMENT
??_C@_0O@JLGCPGDL@RMSG_OPENMAP2@ DB 'RMSG_OPENMAP2', 00H ; `string'
CONST	ENDS
;	COMDAT ??_C@_0BC@GGHIPHFD@RMSG_SETSHAREDATA@
CONST	SEGMENT
??_C@_0BC@GGHIPHFD@RMSG_SETSHAREDATA@ DB 'RMSG_SETSHAREDATA', 00H ; `string'
CONST	ENDS
;	COMDAT ??_C@_0BC@FHIPKCJJ@RMSG_FROMCODELIST@
CONST	SEGMENT
??_C@_0BC@FHIPKCJJ@RMSG_FROMCODELIST@ DB 'RMSG_FROMCODELIST', 00H ; `string'
CONST	ENDS
;	COMDAT ??_C@_0BG@GIAJEIJF@RMSG_REPLAY_TOTAL_SEC@
CONST	SEGMENT
??_C@_0BG@GIAJEIJF@RMSG_REPLAY_TOTAL_SEC@ DB 'RMSG_REPLAY_TOTAL_SEC', 00H ; `string'
CONST	ENDS
;	COMDAT ??_C@_0BE@JFCIMCIP@RMSG_REPLAY_INC_SEC@
CONST	SEGMENT
??_C@_0BE@JFCIMCIP@RMSG_REPLAY_INC_SEC@ DB 'RMSG_REPLAY_INC_SEC', 00H ; `string'
CONST	ENDS
;	COMDAT ??_C@_0BA@NKHHCPON@RMSG_REPLAY_END@
CONST	SEGMENT
??_C@_0BA@NKHHCPON@RMSG_REPLAY_END@ DB 'RMSG_REPLAY_END', 00H ; `string'
CONST	ENDS
;	COMDAT ??_C@_0BI@KDGAIIMD@RMSG_REPLAY_CHANGE_DATE@
CONST	SEGMENT
??_C@_0BI@KDGAIIMD@RMSG_REPLAY_CHANGE_DATE@ DB 'RMSG_REPLAY_CHANGE_DATE', 00H ; `string'
CONST	ENDS
;	COMDAT ??_C@_0BB@JFLGBADG@RMSG_REPLAY_FAIL@
CONST	SEGMENT
??_C@_0BB@JFLGBADG@RMSG_REPLAY_FAIL@ DB 'RMSG_REPLAY_FAIL', 00H ; `string'
CONST	ENDS
;	COMDAT ??_C@_0BB@IBKHOHJL@RMSG_REPLAY_REAL@
CONST	SEGMENT
??_C@_0BB@IBKHOHJL@RMSG_REPLAY_REAL@ DB 'RMSG_REPLAY_REAL', 00H ; `string'
CONST	ENDS
;	COMDAT ??_C@_0CG@JGLGHEOC@GSL?$DN?$LN?C?$LA?$KD?9?$LB?W?$LI?$KO?$LF?e4?$DL?$LN?C?$LA?$KD?9?B?w?F?$KO2?$DLPGC@
CONST	SEGMENT
??_C@_0CG@JGLGHEOC@GSL?$DN?$LN?C?$LA?$KD?9?$LB?W?$LI?$KO?$LF?e4?$DL?$LN?C?$LA?$KD?9?B?w?F?$KO2?$DLPGC@ DB 'G'
	DB	'SL=', 0bdH, 0c3H, 0b0H, 0a3H, '-', 0b1H, 0d7H, 0b8H, 0aeH, 0b5H
	DB	0e5H, '4;', 0bdH, 0c3H, 0b0H, 0a3H, '-', 0c2H, 0f7H, 0c6H, 0aeH
	DB	'2;PGCNTTR=1', 00H				; `string'
CONST	ENDS
;	COMDAT ??_C@_05EIFEKAKF@NIO?$DN6@
CONST	SEGMENT
??_C@_05EIFEKAKF@NIO?$DN6@ DB 'NIO=6', 00H		; `string'
CONST	ENDS
;	COMDAT ??_C@_0BB@OGHJDJLG@CLTI?$DN255?0255?0255@
CONST	SEGMENT
??_C@_0BB@OGHJDJLG@CLTI?$DN255?0255?0255@ DB 'CLTI=255,255,255', 00H ; `string'
CONST	ENDS
;	COMDAT ??_C@_0BA@FGFOFOLL@CIW?$DN255?0255?0255@
CONST	SEGMENT
??_C@_0BA@FGFOFOLL@CIW?$DN255?0255?0255@ DB 'CIW=255,255,255', 00H ; `string'
CONST	ENDS
;	COMDAT ??_C@_0P@BBNOALAP@CGB6?$DN128?00?0255@
CONST	SEGMENT
??_C@_0P@BBNOALAP@CGB6?$DN128?00?0255@ DB 'CGB6=128,0,255', 00H ; `string'
CONST	ENDS
;	COMDAT ??_C@_0BA@CCMHBAEK@CGB5?$DN255?0133?011@
CONST	SEGMENT
??_C@_0BA@CCMHBAEK@CGB5?$DN255?0133?011@ DB 'CGB5=255,133,11', 00H ; `string'
CONST	ENDS
;	COMDAT ??_C@_0BA@JNONCDJL@CGB4?$DN150?019?0147@
CONST	SEGMENT
??_C@_0BA@JNONCDJL@CGB4?$DN150?019?0147@ DB 'CGB4=150,19,147', 00H ; `string'
CONST	ENDS
;	COMDAT ??_C@_0P@EFCBOFHL@CGB3?$DN253?0122?04@
CONST	SEGMENT
??_C@_0P@EFCBOFHL@CGB3?$DN253?0122?04@ DB 'CGB3=253,122,4', 00H ; `string'
CONST	ENDS
;	COMDAT ??_C@_0P@CCGELOCN@CGB2?$DN128?0182?00@
CONST	SEGMENT
??_C@_0P@CCGELOCN@CGB2?$DN128?0182?00@ DB 'CGB2=128,182,0', 00H ; `string'
CONST	ENDS
;	COMDAT ??_C@_0P@HMGPJLGD@CGB1?$DN8?0189?0246@
CONST	SEGMENT
??_C@_0P@HMGPJLGD@CGB1?$DN8?0189?0246@ DB 'CGB1=8,189,246', 00H ; `string'
CONST	ENDS
;	COMDAT ??_C@_09CEIONLEJ@CST?$DN0?00?00@
CONST	SEGMENT
??_C@_09CEIONLEJ@CST?$DN0?00?00@ DB 'CST=0,0,0', 00H	; `string'
CONST	ENDS
;	COMDAT ??_C@_09CFOBLFNH@CBB?$DN0?00?00@
CONST	SEGMENT
??_C@_09CFOBLFNH@CBB?$DN0?00?00@ DB 'CBB=0,0,0', 00H	; `string'
CONST	ENDS
;	COMDAT ??_C@_0P@OPJOHLBG@CB?$DN255?0255?0255@
CONST	SEGMENT
??_C@_0P@OPJOHLBG@CB?$DN255?0255?0255@ DB 'CB=255,255,255', 00H ; `string'
CONST	ENDS
;	COMDAT ??_C@_0BB@HGHJHDCP@CBKB?$DN188?0198?0223@
CONST	SEGMENT
??_C@_0BB@HGHJHDCP@CBKB?$DN188?0198?0223@ DB 'CBKB=188,198,223', 00H ; `string'
CONST	ENDS
;	COMDAT ??_C@_0BB@BNIKMGEP@CBKG?$DN255?0255?0255@
CONST	SEGMENT
??_C@_0BB@BNIKMGEP@CBKG?$DN255?0255?0255@ DB 'CBKG=255,255,255', 00H ; `string'
CONST	ENDS
;	COMDAT ??_C@_0GA@NGACOJJ@TO?$DN?$LD?$LL?$LK?N?$AN?6?$AN?6?$LN?$LK?E?$KJ?$LH?Q?$LJ?Y?$DL?$DL?$DL?$AN?6?H?$KO?$LE?k?0?C?$OA@
CONST	SEGMENT
??_C@_0GA@NGACOJJ@TO?$DN?$LD?$LL?$LK?N?$AN?6?$AN?6?$LN?$LK?E?$KJ?$LH?Q?$LJ?Y?$DL?$DL?$DL?$AN?6?H?$KO?$LE?k?0?C?$OA@ DB 'T'
	DB	'O=', 0b3H, 0bbH, 0baH, 0ceH, 0dH, 0aH, 0dH, 0aH, 0bdH, 0baH, 0c5H
	DB	0a9H, 0b7H, 0d1H, 0b9H, 0d9H, ';;;', 0dH, 0aH, 0c8H, 0aeH, 0b4H
	DB	0ebH, ',', 0c3H, 0e0H, 0bcH, 0d2H, ';', 0b0H, 0b3H, 0bcH, 0f6H
	DB	';10', 0b0H, 0b3H, ';', 0dH, 0aH, 0c0H, 0fcH, 0c3H, 0bcH, 0baH
	DB	0b8H, 0b1H, 0e2H, ';;;', 0dH, 0aH, 'Display', 0bcH, 0f6H, ' ', 0bcH
	DB	0b3H, 0c1H, 0a4H, 0b9H, 0d9H, ';;;', 0dH, 0aH, 0bfH, 0dcH, 0baH
	DB	0ceH, 0dH, 0aH, 'RButton', 0dH, 0aH, 00H	; `string'
CONST	ENDS
;	COMDAT ??_C@_04IBGFMDBL@BM?$DN0@
CONST	SEGMENT
??_C@_04IBGFMDBL@BM?$DN0@ DB 'BM=0', 00H		; `string'
CONST	ENDS
;	COMDAT ??_C@_04BDLCFFHM@TM?$DN5@
CONST	SEGMENT
??_C@_04BDLCFFHM@TM?$DN5@ DB 'TM=5', 00H		; `string'
CONST	ENDS
;	COMDAT ??_C@_04OBIFFEJJ@RM?$DN0@
CONST	SEGMENT
??_C@_04OBIFFEJJ@RM?$DN0@ DB 'RM=0', 00H		; `string'
CONST	ENDS
;	COMDAT ??_C@_04EDCCIJDP@LM?$DN5@
CONST	SEGMENT
??_C@_04EDCCIJDP@LM?$DN5@ DB 'LM=5', 00H		; `string'
CONST	ENDS
;	COMDAT ??_C@_05IABPBHJG@BBT?$DN1@
CONST	SEGMENT
??_C@_05IABPBHJG@BBT?$DN1@ DB 'BBT=1', 00H		; `string'
CONST	ENDS
;	COMDAT ??_C@_05BCPHIDBP@BG?$DN?91@
CONST	SEGMENT
??_C@_05BCPHIDBP@BG?$DN?91@ DB 'BG=-1', 00H		; `string'
CONST	ENDS
;	COMDAT ??_C@_04EFMBKMNJ@CC?$DN1@
CONST	SEGMENT
??_C@_04EFMBKMNJ@CC?$DN1@ DB 'CC=1', 00H		; `string'
CONST	ENDS
;	COMDAT ??_C@_06MBKLPFNP@ROWC?$DN1@
CONST	SEGMENT
??_C@_06MBKLPFNP@ROWC?$DN1@ DB 'ROWC=1', 00H		; `string'
CONST	ENDS
;	COMDAT ??_C@_04GBLKLECI@BC?$DN0@
CONST	SEGMENT
??_C@_04GBLKLECI@BC?$DN0@ DB 'BC=0', 00H		; `string'
CONST	ENDS
;	COMDAT ??_C@_04KMHENLAO@BT?$DN0@
CONST	SEGMENT
??_C@_04KMHENLAO@BT?$DN0@ DB 'BT=0', 00H		; `string'
CONST	ENDS
;	COMDAT ??_C@_0M@LGIBCMCA@AN?$DNSyChart0@
CONST	SEGMENT
??_C@_0M@LGIBCMCA@AN?$DNSyChart0@ DB 'AN=SyChart0', 00H	; `string'
CONST	ENDS
;	COMDAT ??_C@_0BB@DEFHJHGK@CM?$DNName?0SyChart0@
CONST	SEGMENT
??_C@_0BB@DEFHJHGK@CM?$DNName?0SyChart0@ DB 'CM=Name,SyChart0', 00H ; `string'
CONST	ENDS
;	COMDAT ??_C@_0DB@GEMKPACD@GSL?$DN?$LN?C?$LA?$KD?9?$LB?W?$LI?$KO?$LF?e4?$DL?$LN?C?$LA?$KD?9?B?w?F?$KO2?$DL?H?$KD?$LA@
CONST	SEGMENT
??_C@_0DB@GEMKPACD@GSL?$DN?$LN?C?$LA?$KD?9?$LB?W?$LI?$KO?$LF?e4?$DL?$LN?C?$LA?$KD?9?B?w?F?$KO2?$DL?H?$KD?$LA@ DB 'G'
	DB	'SL=', 0bdH, 0c3H, 0b0H, 0a3H, '-', 0b1H, 0d7H, 0b8H, 0aeH, 0b5H
	DB	0e5H, '4;', 0bdH, 0c3H, 0b0H, 0a3H, '-', 0c2H, 0f7H, 0c6H, 0aeH
	DB	'2;', 0c8H, 0a3H, 0b0H, 0a1H, '-', 0c2H, 0f7H, 0c6H, 0aeH, '2;'
	DB	'PGCNTTR=1', 00H				; `string'
CONST	ENDS
;	COMDAT ??_C@_05HKGCMCCH@NIO?$DN4@
CONST	SEGMENT
??_C@_05HKGCMCCH@NIO?$DN4@ DB 'NIO=4', 00H		; `string'
CONST	ENDS
;	COMDAT ??_C@_08BNMFONIJ@BRAUAP?$DN0@
CONST	SEGMENT
??_C@_08BNMFONIJ@BRAUAP?$DN0@ DB 'BRAUAP=0', 00H	; `string'
CONST	ENDS
;	COMDAT ??_C@_0BF@OHLJPBK@?$CBMapSize?$DN0?00?0400?0250@
CONST	SEGMENT
??_C@_0BF@OHLJPBK@?$CBMapSize?$DN0?00?0400?0250@ DB '!MapSize=0,0,400,250'
	DB	00H						; `string'
CONST	ENDS
;	COMDAT ??_C@_09KMNCLMP@NMDCOOP?$DN5@
CONST	SEGMENT
??_C@_09KMNCLMP@NMDCOOP?$DN5@ DB 'NMDCOOP=5', 00H	; `string'
CONST	ENDS
;	COMDAT ??_C@_09OLDEPMIO@NHPS?$DN3000@
CONST	SEGMENT
??_C@_09OLDEPMIO@NHPS?$DN3000@ DB 'NHPS=3000', 00H	; `string'
CONST	ENDS
;	COMDAT ??_C@_07OKJCPAOP@NGRBT?$DN1@
CONST	SEGMENT
??_C@_07OKJCPAOP@NGRBT?$DN1@ DB 'NGRBT=1', 00H		; `string'
CONST	ENDS
;	COMDAT ??_C@_05DJAKCPJP@NVG?$DN0@
CONST	SEGMENT
??_C@_05DJAKCPJP@NVG?$DN0@ DB 'NVG=0', 00H		; `string'
CONST	ENDS
;	COMDAT ??_C@_05OGNKAGHM@NHG?$DN0@
CONST	SEGMENT
??_C@_05OGNKAGHM@NHG?$DN0@ DB 'NHG=0', 00H		; `string'
CONST	ENDS
;	COMDAT ??_C@_08GIMJNBM@BUSRBM?$DN1@
CONST	SEGMENT
??_C@_08GIMJNBM@BUSRBM?$DN1@ DB 'BUSRBM=1', 00H		; `string'
CONST	ENDS
;	COMDAT ??_C@_05JPDDFBNF@BSG?$DN1@
CONST	SEGMENT
??_C@_05JPDDFBNF@BSG?$DN1@ DB 'BSG=1', 00H		; `string'
CONST	ENDS
;	COMDAT ??_C@_05NNJPKJKE@BST?$DN1@
CONST	SEGMENT
??_C@_05NNJPKJKE@BST?$DN1@ DB 'BST=1', 00H		; `string'
CONST	ENDS
;	COMDAT ??_C@_06KNGMMNFF@BBMD?$DN1@
CONST	SEGMENT
??_C@_06KNGMMNFF@BBMD?$DN1@ DB 'BBMD=1', 00H		; `string'
CONST	ENDS
;	COMDAT ??_C@_06CJKOOGAH@BCBS?$DN1@
CONST	SEGMENT
??_C@_06CJKOOGAH@BCBS?$DN1@ DB 'BCBS=1', 00H		; `string'
CONST	ENDS
;	COMDAT ??_C@_07JAFIGCBN@BSWMB?$DN0@
CONST	SEGMENT
??_C@_07JAFIGCBN@BSWMB?$DN0@ DB 'BSWMB=0', 00H		; `string'
CONST	ENDS
;	COMDAT ??_C@_07FOPCNGMM@NRBMT?$DN1@
CONST	SEGMENT
??_C@_07FOPCNGMM@NRBMT?$DN1@ DB 'NRBMT=1', 00H		; `string'
CONST	ENDS
;	COMDAT ??_C@_06PNLOBPCF@UDTT?$DN0@
CONST	SEGMENT
??_C@_06PNLOBPCF@UDTT?$DN0@ DB 'UDTT=0', 00H		; `string'
CONST	ENDS
;	COMDAT ??_C@_06PJKABONM@UCTT?$DN1@
CONST	SEGMENT
??_C@_06PJKABONM@UCTT?$DN1@ DB 'UCTT=1', 00H		; `string'
CONST	ENDS
;	COMDAT ??_C@_05NCCNONAP@USK?$DN0@
CONST	SEGMENT
??_C@_05NCCNONAP@USK?$DN0@ DB 'USK=0', 00H		; `string'
CONST	ENDS
;	COMDAT ??_C@_0BH@OHNDIAJO@CFT?$DN?$LB?$LM?$LI?$LC?C?$LM?$DL12?$DL0?$DL0?$DL0?$DL0?$DL@
CONST	SEGMENT
??_C@_0BH@OHNDIAJO@CFT?$DN?$LB?$LM?$LI?$LC?C?$LM?$DL12?$DL0?$DL0?$DL0?$DL0?$DL@ DB 'C'
	DB	'FT=', 0b1H, 0bcH, 0b8H, 0b2H, 0c3H, 0bcH, ';12;0;0;0;0;', 00H ; `string'
CONST	ENDS
;	COMDAT ??_C@_05KIGKAIJB@CDB?$DN0@
CONST	SEGMENT
??_C@_05KIGKAIJB@CDB?$DN0@ DB 'CDB=0', 00H		; `string'
CONST	ENDS
;	COMDAT ??_C@_08ILEKNKKH@UIDWCL?$DN0@
CONST	SEGMENT
??_C@_08ILEKNKKH@UIDWCL?$DN0@ DB 'UIDWCL=0', 00H	; `string'
CONST	ENDS
;	COMDAT ??_C@_05GAOANJKP@RDB?$DN0@
CONST	SEGMENT
??_C@_05GAOANJKP@RDB?$DN0@ DB 'RDB=0', 00H		; `string'
CONST	ENDS
;	COMDAT ??_C@_0BN@BFPGAAKF@BR?$DNrow?$DL0?$DL216?$DL?$AN?6column?$DL0?$DL387?$DL@
CONST	SEGMENT
??_C@_0BN@BFPGAAKF@BR?$DNrow?$DL0?$DL216?$DL?$AN?6column?$DL0?$DL387?$DL@ DB 'B'
	DB	'R=row;0;216;', 0dH, 0aH, 'column;0;387;', 00H ; `string'
CONST	ENDS
;	COMDAT ??_C@_0P@HDPBBKDH@CAT?$DN82?0103?0146@
CONST	SEGMENT
??_C@_0P@HDPBBKDH@CAT?$DN82?0103?0146@ DB 'CAT=82,103,146', 00H ; `string'
CONST	ENDS
;	COMDAT ??_C@_09MDJFDHDM@USESKIN?$DN0@
CONST	SEGMENT
??_C@_09MDJFDHDM@USESKIN?$DN0@ DB 'USESKIN=0', 00H	; `string'
CONST	ENDS
;	COMDAT ??_C@_05EDHPMHMB@MBT?$DN3@
CONST	SEGMENT
??_C@_05EDHPMHMB@MBT?$DN3@ DB 'MBT=3', 00H		; `string'
CONST	ENDS
;	COMDAT ??_C@_05KODFOFKI@URD?$DN1@
CONST	SEGMENT
??_C@_05KODFOFKI@URD?$DN1@ DB 'URD=1', 00H		; `string'
CONST	ENDS
;	COMDAT ??_C@_03KMNHNLNA@RL?$DN@
CONST	SEGMENT
??_C@_03KMNHNLNA@RL?$DN@ DB 'RL=', 00H			; `string'
CONST	ENDS
;	COMDAT ??_C@_0P@PLAOAJKD@LSL?$DN?$LM?$LB?$LJ?$LA?D?Z?$LF?e5?$DL@
CONST	SEGMENT
??_C@_0P@PLAOAJKD@LSL?$DN?$LM?$LB?$LJ?$LA?D?Z?$LF?e5?$DL@ DB 'LSL=', 0bcH
	DB	0b1H, 0b9H, 0b0H, 0c4H, 0daH, 0b5H, 0e5H, '5;', 00H ; `string'
CONST	ENDS
;	COMDAT ??_C@_05GIGGMCJG@PO?$DN?$AN?6@
CONST	SEGMENT
??_C@_05GIGGMCJG@PO?$DN?$AN?6@ DB 'PO=', 0dH, 0aH, 00H	; `string'
CONST	ENDS
;	COMDAT ??_C@_0IG@EHBJAONO@CL?$DNBlockColumn?$DL?$AN?6Block?$DL?$AN?6?$MA?Z?$LH?a?$MA?O@
CONST	SEGMENT
??_C@_0IG@EHBJAONO@CL?$DNBlockColumn?$DL?$AN?6Block?$DL?$AN?6?$MA?Z?$LH?a?$MA?O@ DB 'C'
	DB	'L=BlockColumn;', 0dH, 0aH, 'Block;', 0dH, 0aH, 0c0H, 0daH, 0b7H
	DB	0e1H, 0c0H, 0cfH, 0c0H, 0daH, ';4;2;/;:;0;0;0;', 0dH, 0aH, 'Ve'
	DB	'rtScaleGroup;', 0dH, 0aH, 0c1H, 0f6H, 0c7H, 0a5H, ' Data;1;2;'
	DB	'0;', 0dH, 0aH, 'VertScaleGroupEnd;', 0dH, 0aH, 'BlockEnd;', 0dH
	DB	0aH, 'BlockColumnEnd;', 0dH, 0aH, 00H	; `string'
CONST	ENDS
;	COMDAT ??_C@_0FO@MAKIIACA@TO?$DN?$LD?$LL?$LK?N?$AN?6?$LN?$LK?E?$KJ?$LH?Q?$LJ?Y?$DL?$DL?$DL?$AN?6?H?$KO?$LE?k?0?C?$OA?$LM?R@
CONST	SEGMENT
??_C@_0FO@MAKIIACA@TO?$DN?$LD?$LL?$LK?N?$AN?6?$LN?$LK?E?$KJ?$LH?Q?$LJ?Y?$DL?$DL?$DL?$AN?6?H?$KO?$LE?k?0?C?$OA?$LM?R@ DB 'T'
	DB	'O=', 0b3H, 0bbH, 0baH, 0ceH, 0dH, 0aH, 0bdH, 0baH, 0c5H, 0a9H
	DB	0b7H, 0d1H, 0b9H, 0d9H, ';;;', 0dH, 0aH, 0c8H, 0aeH, 0b4H, 0ebH
	DB	',', 0c3H, 0e0H, 0bcH, 0d2H, ';', 0b0H, 0b3H, 0bcH, 0f6H, ';10'
	DB	0b0H, 0b3H, ';', 0dH, 0aH, 0c0H, 0fcH, 0c3H, 0bcH, 0baH, 0b8H, 0b1H
	DB	0e2H, ';;;', 0dH, 0aH, 'Display', 0bcH, 0f6H, ' ', 0bcH, 0b3H, 0c1H
	DB	0a4H, 0b9H, 0d9H, ';;;', 0dH, 0aH, 0bfH, 0dcH, 0baH, 0ceH, 0dH
	DB	0aH, 'RButton', 0dH, 0aH, 00H		; `string'
CONST	ENDS
;	COMDAT ??_C@_04POMPLFMD@IR?$DN0@
CONST	SEGMENT
??_C@_04POMPLFMD@IR?$DN0@ DB 'IR=0', 00H		; `string'
CONST	ENDS
;	COMDAT ??_C@_04EELHEMON@HI?$DN0@
CONST	SEGMENT
??_C@_04EELHEMON@HI?$DN0@ DB 'HI=0', 00H		; `string'
CONST	ENDS
;	COMDAT ??_C@_03OIGNNCO@SY?$DN@
CONST	SEGMENT
??_C@_03OIGNNCO@SY?$DN@ DB 'SY=', 00H			; `string'
CONST	ENDS
;	COMDAT ??_C@_04MCKNNNEP@IFN?$DN@
CONST	SEGMENT
??_C@_04MCKNNNEP@IFN?$DN@ DB 'IFN=', 00H		; `string'
CONST	ENDS
;	COMDAT ??_C@_04HFNDAEO@EFN?$DN@
CONST	SEGMENT
??_C@_04HFNDAEO@EFN?$DN@ DB 'EFN=', 00H			; `string'
CONST	ENDS
;	COMDAT ??_C@_05ODHKPCFN@AGM?$DN1@
CONST	SEGMENT
??_C@_05ODHKPCFN@AGM?$DN1@ DB 'AGM=1', 00H		; `string'
CONST	ENDS
;	COMDAT ??_C@_05BGJABFFL@GDD?$DN0@
CONST	SEGMENT
??_C@_05BGJABFFL@GDD?$DN0@ DB 'GDD=0', 00H		; `string'
CONST	ENDS
;	COMDAT ??_C@_06JCPOCGKJ@BAC?$DN10@
CONST	SEGMENT
??_C@_06JCPOCGKJ@BAC?$DN10@ DB 'BAC=10', 00H		; `string'
CONST	ENDS
;	COMDAT ??_C@_06DGPPEGEP@PDC?$DN70@
CONST	SEGMENT
??_C@_06DGPPEGEP@PDC?$DN70@ DB 'PDC=70', 00H		; `string'
CONST	ENDS
;	COMDAT ??_C@_04KOHNALHH@WV?$DN0@
CONST	SEGMENT
??_C@_04KOHNALHH@WV?$DN0@ DB 'WV=0', 00H		; `string'
CONST	ENDS
;	COMDAT ??_C@_05NMIICLAK@SLT?$DN2@
CONST	SEGMENT
??_C@_05NMIICLAK@SLT?$DN2@ DB 'SLT=2', 00H		; `string'
CONST	ENDS
;	COMDAT ??_C@_05BGEENDHH@BDT?$DN0@
CONST	SEGMENT
??_C@_05BGEENDHH@BDT?$DN0@ DB 'BDT=0', 00H		; `string'
CONST	ENDS
;	COMDAT ??_C@_04HGOPLMOA@WSE?$DN@
CONST	SEGMENT
??_C@_04HGOPLMOA@WSE?$DN@ DB 'WSE=', 00H		; `string'
CONST	ENDS
;	COMDAT ??_C@_0BH@FEKIBBCD@WS?$DNWS_CHILD?$HMWS_VISIBLE@
CONST	SEGMENT
??_C@_0BH@FEKIBBCD@WS?$DNWS_CHILD?$HMWS_VISIBLE@ DB 'WS=WS_CHILD|WS_VISIB'
	DB	'LE', 00H					; `string'
CONST	ENDS
;	COMDAT ??_C@_0BA@NBPKJDOB@RC?$DN2?024?0397?0248@
CONST	SEGMENT
??_C@_0BA@NBPKJDOB@RC?$DN2?024?0397?0248@ DB 'RC=2,24,397,248', 00H ; `string'
CONST	ENDS
;	COMDAT ??_C@_08BICDAHAP@ID?$DN3?04?00@
CONST	SEGMENT
??_C@_08BICDAHAP@ID?$DN3?04?00@ DB 'ID=3,4,0', 00H	; `string'
CONST	ENDS
;	COMDAT ??_C@_0M@NKDMHNJI@AN?$DNDRChart0@
CONST	SEGMENT
??_C@_0M@NKDMHNJI@AN?$DNDRChart0@ DB 'AN=DRChart0', 00H	; `string'
CONST	ENDS
;	COMDAT ??_C@_0BB@FIOKMGNC@CM?$DNName?0DRChart0@
CONST	SEGMENT
??_C@_0BB@FIOKMGNC@CM?$DNName?0DRChart0@ DB 'CM=Name,DRChart0', 00H ; `string'
CONST	ENDS
_DATA	SEGMENT
?szSetAll@@3PAPBDA DD FLAT:??_C@_0BB@FIOKMGNC@CM?$DNName?0DRChart0@ ; szSetAll
	DD	FLAT:??_C@_0M@NKDMHNJI@AN?$DNDRChart0@
	DD	FLAT:??_C@_08BICDAHAP@ID?$DN3?04?00@
	DD	FLAT:??_C@_0BA@NBPKJDOB@RC?$DN2?024?0397?0248@
	DD	FLAT:??_C@_0BH@FEKIBBCD@WS?$DNWS_CHILD?$HMWS_VISIBLE@
	DD	FLAT:??_C@_04HGOPLMOA@WSE?$DN@
	DD	FLAT:??_C@_05BGEENDHH@BDT?$DN0@
	DD	FLAT:??_C@_05NMIICLAK@SLT?$DN2@
	DD	FLAT:??_C@_04KOHNALHH@WV?$DN0@
	DD	FLAT:??_C@_06DGPPEGEP@PDC?$DN70@
	DD	FLAT:??_C@_06JCPOCGKJ@BAC?$DN10@
	DD	FLAT:??_C@_05BGJABFFL@GDD?$DN0@
	DD	FLAT:??_C@_05ODHKPCFN@AGM?$DN1@
	DD	FLAT:??_C@_04HFNDAEO@EFN?$DN@
	DD	FLAT:??_C@_04MCKNNNEP@IFN?$DN@
	DD	FLAT:??_C@_03OIGNNCO@SY?$DN@
	DD	FLAT:??_C@_04EELHEMON@HI?$DN0@
	DD	FLAT:??_C@_04POMPLFMD@IR?$DN0@
	DD	FLAT:??_C@_0FO@MAKIIACA@TO?$DN?$LD?$LL?$LK?N?$AN?6?$LN?$LK?E?$KJ?$LH?Q?$LJ?Y?$DL?$DL?$DL?$AN?6?H?$KO?$LE?k?0?C?$OA?$LM?R@
	DD	FLAT:??_C@_0IG@EHBJAONO@CL?$DNBlockColumn?$DL?$AN?6Block?$DL?$AN?6?$MA?Z?$LH?a?$MA?O@
	DD	FLAT:??_C@_05GIGGMCJG@PO?$DN?$AN?6@
	DD	FLAT:??_C@_0P@PLAOAJKD@LSL?$DN?$LM?$LB?$LJ?$LA?D?Z?$LF?e5?$DL@
	DD	FLAT:??_C@_03KMNHNLNA@RL?$DN@
	DD	FLAT:??_C@_05KODFOFKI@URD?$DN1@
	DD	FLAT:??_C@_05EDHPMHMB@MBT?$DN3@
	DD	FLAT:??_C@_09MDJFDHDM@USESKIN?$DN0@
	DD	FLAT:??_C@_0P@HDPBBKDH@CAT?$DN82?0103?0146@
	DD	FLAT:??_C@_0BN@BFPGAAKF@BR?$DNrow?$DL0?$DL216?$DL?$AN?6column?$DL0?$DL387?$DL@
	DD	FLAT:??_C@_05GAOANJKP@RDB?$DN0@
	DD	FLAT:??_C@_08ILEKNKKH@UIDWCL?$DN0@
	DD	FLAT:??_C@_05KIGKAIJB@CDB?$DN0@
	DD	FLAT:??_C@_0BH@OHNDIAJO@CFT?$DN?$LB?$LM?$LI?$LC?C?$LM?$DL12?$DL0?$DL0?$DL0?$DL0?$DL@
	DD	FLAT:??_C@_05NCCNONAP@USK?$DN0@
	DD	FLAT:??_C@_06PJKABONM@UCTT?$DN1@
	DD	FLAT:??_C@_06PNLOBPCF@UDTT?$DN0@
	DD	FLAT:??_C@_07FOPCNGMM@NRBMT?$DN1@
	DD	FLAT:??_C@_07JAFIGCBN@BSWMB?$DN0@
	DD	FLAT:??_C@_06CJKOOGAH@BCBS?$DN1@
	DD	FLAT:??_C@_06KNGMMNFF@BBMD?$DN1@
	DD	FLAT:??_C@_05NNJPKJKE@BST?$DN1@
	DD	FLAT:??_C@_05JPDDFBNF@BSG?$DN1@
	DD	FLAT:??_C@_08GIMJNBM@BUSRBM?$DN1@
	DD	FLAT:??_C@_05OGNKAGHM@NHG?$DN0@
	DD	FLAT:??_C@_05DJAKCPJP@NVG?$DN0@
	DD	FLAT:??_C@_07OKJCPAOP@NGRBT?$DN1@
	DD	FLAT:??_C@_09OLDEPMIO@NHPS?$DN3000@
	DD	FLAT:??_C@_09KMNCLMP@NMDCOOP?$DN5@
	DD	FLAT:??_C@_0BF@OHLJPBK@?$CBMapSize?$DN0?00?0400?0250@
	DD	FLAT:??_C@_08BNMFONIJ@BRAUAP?$DN0@
	DD	FLAT:??_C@_05HKGCMCCH@NIO?$DN4@
	DD	FLAT:??_C@_0DB@GEMKPACD@GSL?$DN?$LN?C?$LA?$KD?9?$LB?W?$LI?$KO?$LF?e4?$DL?$LN?C?$LA?$KD?9?B?w?F?$KO2?$DL?H?$KD?$LA@
	ORG $+4
?szSetAllNoToolbar@@3PAPBDA DD FLAT:??_C@_0BB@DEFHJHGK@CM?$DNName?0SyChart0@ ; szSetAllNoToolbar
	DD	FLAT:??_C@_0M@LGIBCMCA@AN?$DNSyChart0@
	DD	FLAT:??_C@_08BICDAHAP@ID?$DN3?04?00@
	DD	FLAT:??_C@_0BA@NBPKJDOB@RC?$DN2?024?0397?0248@
	DD	FLAT:??_C@_0BH@FEKIBBCD@WS?$DNWS_CHILD?$HMWS_VISIBLE@
	DD	FLAT:??_C@_04HGOPLMOA@WSE?$DN@
	DD	FLAT:??_C@_04KMHENLAO@BT?$DN0@
	DD	FLAT:??_C@_04GBLKLECI@BC?$DN0@
	DD	FLAT:??_C@_06MBKLPFNP@ROWC?$DN1@
	DD	FLAT:??_C@_04EFMBKMNJ@CC?$DN1@
	DD	FLAT:??_C@_05BCPHIDBP@BG?$DN?91@
	DD	FLAT:??_C@_05IABPBHJG@BBT?$DN1@
	DD	FLAT:??_C@_05BGEENDHH@BDT?$DN0@
	DD	FLAT:??_C@_05NMIICLAK@SLT?$DN2@
	DD	FLAT:??_C@_04KOHNALHH@WV?$DN0@
	DD	FLAT:??_C@_06DGPPEGEP@PDC?$DN70@
	DD	FLAT:??_C@_06JCPOCGKJ@BAC?$DN10@
	DD	FLAT:??_C@_05BGJABFFL@GDD?$DN0@
	DD	FLAT:??_C@_04EDCCIJDP@LM?$DN5@
	DD	FLAT:??_C@_04OBIFFEJJ@RM?$DN0@
	DD	FLAT:??_C@_04BDLCFFHM@TM?$DN5@
	DD	FLAT:??_C@_04IBGFMDBL@BM?$DN0@
	DD	FLAT:??_C@_05ODHKPCFN@AGM?$DN1@
	DD	FLAT:??_C@_04HFNDAEO@EFN?$DN@
	DD	FLAT:??_C@_04MCKNNNEP@IFN?$DN@
	DD	FLAT:??_C@_03OIGNNCO@SY?$DN@
	DD	FLAT:??_C@_04EELHEMON@HI?$DN0@
	DD	FLAT:??_C@_04POMPLFMD@IR?$DN0@
	DD	FLAT:??_C@_0GA@NGACOJJ@TO?$DN?$LD?$LL?$LK?N?$AN?6?$AN?6?$LN?$LK?E?$KJ?$LH?Q?$LJ?Y?$DL?$DL?$DL?$AN?6?H?$KO?$LE?k?0?C?$OA@
	DD	FLAT:??_C@_0IG@EHBJAONO@CL?$DNBlockColumn?$DL?$AN?6Block?$DL?$AN?6?$MA?Z?$LH?a?$MA?O@
	DD	FLAT:??_C@_05GIGGMCJG@PO?$DN?$AN?6@
	DD	FLAT:??_C@_0P@PLAOAJKD@LSL?$DN?$LM?$LB?$LJ?$LA?D?Z?$LF?e5?$DL@
	DD	FLAT:??_C@_03KMNHNLNA@RL?$DN@
	DD	FLAT:??_C@_05KODFOFKI@URD?$DN1@
	DD	FLAT:??_C@_05EDHPMHMB@MBT?$DN3@
	DD	FLAT:??_C@_09MDJFDHDM@USESKIN?$DN0@
	DD	FLAT:??_C@_0BB@BNIKMGEP@CBKG?$DN255?0255?0255@
	DD	FLAT:??_C@_0BB@HGHJHDCP@CBKB?$DN188?0198?0223@
	DD	FLAT:??_C@_0P@OPJOHLBG@CB?$DN255?0255?0255@
	DD	FLAT:??_C@_09CFOBLFNH@CBB?$DN0?00?00@
	DD	FLAT:??_C@_09CEIONLEJ@CST?$DN0?00?00@
	DD	FLAT:??_C@_0P@HMGPJLGD@CGB1?$DN8?0189?0246@
	DD	FLAT:??_C@_0P@CCGELOCN@CGB2?$DN128?0182?00@
	DD	FLAT:??_C@_0P@EFCBOFHL@CGB3?$DN253?0122?04@
	DD	FLAT:??_C@_0BA@JNONCDJL@CGB4?$DN150?019?0147@
	DD	FLAT:??_C@_0BA@CCMHBAEK@CGB5?$DN255?0133?011@
	DD	FLAT:??_C@_0P@BBNOALAP@CGB6?$DN128?00?0255@
	DD	FLAT:??_C@_0P@HDPBBKDH@CAT?$DN82?0103?0146@
	DD	FLAT:??_C@_0BN@BFPGAAKF@BR?$DNrow?$DL0?$DL216?$DL?$AN?6column?$DL0?$DL387?$DL@
	DD	FLAT:??_C@_05GAOANJKP@RDB?$DN0@
	DD	FLAT:??_C@_08ILEKNKKH@UIDWCL?$DN0@
	DD	FLAT:??_C@_05KIGKAIJB@CDB?$DN0@
	DD	FLAT:??_C@_0BA@FGFOFOLL@CIW?$DN255?0255?0255@
	DD	FLAT:??_C@_0BH@OHNDIAJO@CFT?$DN?$LB?$LM?$LI?$LC?C?$LM?$DL12?$DL0?$DL0?$DL0?$DL0?$DL@
	DD	FLAT:??_C@_05NCCNONAP@USK?$DN0@
	DD	FLAT:??_C@_06PJKABONM@UCTT?$DN1@
	DD	FLAT:??_C@_06PNLOBPCF@UDTT?$DN0@
	DD	FLAT:??_C@_07FOPCNGMM@NRBMT?$DN1@
	DD	FLAT:??_C@_07JAFIGCBN@BSWMB?$DN0@
	DD	FLAT:??_C@_06CJKOOGAH@BCBS?$DN1@
	DD	FLAT:??_C@_06KNGMMNFF@BBMD?$DN1@
	DD	FLAT:??_C@_05NNJPKJKE@BST?$DN1@
	DD	FLAT:??_C@_05JPDDFBNF@BSG?$DN1@
	DD	FLAT:??_C@_08GIMJNBM@BUSRBM?$DN1@
	DD	FLAT:??_C@_05OGNKAGHM@NHG?$DN0@
	DD	FLAT:??_C@_05DJAKCPJP@NVG?$DN0@
	DD	FLAT:??_C@_0BB@OGHJDJLG@CLTI?$DN255?0255?0255@
	DD	FLAT:??_C@_07OKJCPAOP@NGRBT?$DN1@
	DD	FLAT:??_C@_09OLDEPMIO@NHPS?$DN3000@
	DD	FLAT:??_C@_09KMNCLMP@NMDCOOP?$DN5@
	DD	FLAT:??_C@_0BF@OHLJPBK@?$CBMapSize?$DN0?00?0400?0250@
	DD	FLAT:??_C@_08BNMFONIJ@BRAUAP?$DN0@
	DD	FLAT:??_C@_05EIFEKAKF@NIO?$DN6@
	DD	FLAT:??_C@_0CG@JGLGHEOC@GSL?$DN?$LN?C?$LA?$KD?9?$LB?W?$LI?$KO?$LF?e4?$DL?$LN?C?$LA?$KD?9?B?w?F?$KO2?$DLPGC@
_DATA	ENDS
PUBLIC	?__empty_global_delete@@YAXPAX@Z		; __empty_global_delete
PUBLIC	?__empty_global_delete@@YAXPAXI@Z		; __empty_global_delete
PUBLIC	___local_stdio_printf_options
PUBLIC	___local_stdio_scanf_options
PUBLIC	_sprintf
PUBLIC	_sscanf
PUBLIC	?AfxCrtErrorCheck@@YAHH@Z			; AfxCrtErrorCheck
PUBLIC	??1CObject@@UAE@XZ				; CObject::~CObject
PUBLIC	?Serialize@CObject@@UAEXAAVCArchive@@@Z		; CObject::Serialize
PUBLIC	?AssertValid@CObject@@UBEXXZ			; CObject::AssertValid
PUBLIC	?Dump@CObject@@UBEXAAVCDumpContext@@@Z		; CObject::Dump
PUBLIC	?AtlThrowImpl@ATL@@YGXJ@Z			; ATL::AtlThrowImpl
PUBLIC	?_AtlRaiseException@ATL@@YAXKK@Z		; ATL::_AtlRaiseException
PUBLIC	?_AtlInitializeCriticalSectionEx@ATL@@YAHPAU_RTL_CRITICAL_SECTION@@KK@Z ; ATL::_AtlInitializeCriticalSectionEx
PUBLIC	??HATL@@YA?AV?$CStringT@DV?$StrTraitMFC_DLL@DV?$ChTraitsCRT@D@ATL@@@@@0@ABV10@0@Z ; ATL::operator+
PUBLIC	?DoDataExchange@CWnd@@MAEXPAVCDataExchange@@@Z	; CWnd::DoDataExchange
PUBLIC	?BeginModalState@CWnd@@UAEXXZ			; CWnd::BeginModalState
PUBLIC	?EndModalState@CWnd@@UAEXXZ			; CWnd::EndModalState
PUBLIC	?GetBasePath@CBaseDesk@@UAEPBDXZ		; CBaseDesk::GetBasePath
PUBLIC	?GetDeskHwnd@CBaseDesk@@UAEPAUHWND__@@XZ	; CBaseDesk::GetDeskHwnd
PUBLIC	?GetUnknown@CBaseDesk@@UAEPAUIDispatch@@XZ	; CBaseDesk::GetUnknown
PUBLIC	?GetCtrlUnknown@CBaseDesk@@UAEPAUIUnknown@@PBD@Z ; CBaseDesk::GetCtrlUnknown
PUBLIC	?GetCtrlHwnd@CBaseDesk@@UAEPAUHWND__@@PBD@Z	; CBaseDesk::GetCtrlHwnd
PUBLIC	?GetSharedInterface@CBaseDesk@@UAEPAXXZ		; CBaseDesk::GetSharedInterface
PUBLIC	?InvokeEvent@CBaseDesk@@UAEHPAUHWND__@@PBD1@Z	; CBaseDesk::InvokeEvent
PUBLIC	?InvokeEvent2@CBaseDesk@@UAEHPBD00@Z		; CBaseDesk::InvokeEvent2
PUBLIC	?SendKey@CBaseDesk@@UAEHPAUHWND__@@IHH@Z	; CBaseDesk::SendKey
PUBLIC	?GetLSharedData@CBaseDesk@@UAEPAXXZ		; CBaseDesk::GetLSharedData
PUBLIC	?CallCommand@CBaseDesk@@UAEXPBD@Z		; CBaseDesk::CallCommand
PUBLIC	?GetUserColor@CBaseDesk2@@UAEKFPBDF@Z		; CBaseDesk2::GetUserColor
PUBLIC	?GetDeskInfo@CBaseDesk2@@UAEJPBD@Z		; CBaseDesk2::GetDeskInfo
PUBLIC	?GetUserInfo@CBaseDesk2@@UAEJPBD@Z		; CBaseDesk2::GetUserInfo
PUBLIC	?GetFrameInfo@CBaseDesk2@@UAEJPBD@Z		; CBaseDesk2::GetFrameInfo
PUBLIC	?GetMainInfo@CBaseDesk2@@UAEJPBD@Z		; CBaseDesk2::GetMainInfo
PUBLIC	?FP_nGetCtrlPos@CBaseDesk2@@UAEJXZ		; CBaseDesk2::FP_nGetCtrlPos
PUBLIC	?FP_vResizeCtrl@CBaseDesk2@@UAEXXZ		; CBaseDesk2::FP_vResizeCtrl
PUBLIC	?SetMapMessage@CBaseDesk2@@UAEXJPBD@Z		; CBaseDesk2::SetMapMessage
PUBLIC	?Create@CDRChartOcx@@UAEHPBD0KABUtagRECT@@PAVCWnd@@IPAUCCreateContext@@@Z ; CDRChartOcx::Create
PUBLIC	??1CDRChartOcx@@UAE@XZ				; CDRChartOcx::~CDRChartOcx
PUBLIC	??_GCDRChartOcx@@UAEPAXI@Z			; CDRChartOcx::`scalar deleting destructor'
PUBLIC	??0_ST_CHARTITEM_REALDATA@@QAE@XZ		; _ST_CHARTITEM_REALDATA::_ST_CHARTITEM_REALDATA
PUBLIC	??_G_ST_CHARTITEM_REALDATA@@QAEPAXI@Z		; _ST_CHARTITEM_REALDATA::`scalar deleting destructor'
PUBLIC	?_GetBaseClass@CChartItem@@KGPAUCRuntimeClass@@XZ ; CChartItem::_GetBaseClass
PUBLIC	?GetThisClass@CChartItem@@SGPAUCRuntimeClass@@XZ ; CChartItem::GetThisClass
PUBLIC	?GetRuntimeClass@CChartItem@@UBEPAUCRuntimeClass@@XZ ; CChartItem::GetRuntimeClass
PUBLIC	?GetCountRQ@CChartItem@@QAEHXZ			; CChartItem::GetCountRQ
PUBLIC	?SaveChartInfo4PeriodRQ@CChartItem@@QAEHPBDH@Z	; CChartItem::SaveChartInfo4PeriodRQ
PUBLIC	?InitString_ForReplay@CChartItem@@QAEXXZ	; CChartItem::InitString_ForReplay
PUBLIC	?SetReplay_PrePrice@CChartItem@@QAEXV?$CStringT@DV?$StrTraitMFC_DLL@DV?$ChTraitsCRT@D@ATL@@@@@ATL@@@Z ; CChartItem::SetReplay_PrePrice
PUBLIC	?SyncMonthGapRev@CChartItem@@QAEHXZ		; CChartItem::SyncMonthGapRev
PUBLIC	?SetNew_BNormalizedMinuteTimeRule@CChartItem@@QAEXH@Z ; CChartItem::SetNew_BNormalizedMinuteTimeRule
PUBLIC	?GetNextKey@CChartItem@@QAEPBDH@Z		; CChartItem::GetNextKey
PUBLIC	??0?$CArray@PAVCChartItemData@@PAV1@@@QAE@XZ	; CArray<CChartItemData *,CChartItemData *>::CArray<CChartItemData *,CChartItemData *>
PUBLIC	?SetSize@?$CArray@PAVCChartItemData@@PAV1@@@QAEXHH@Z ; CArray<CChartItemData *,CChartItemData *>::SetSize
PUBLIC	?SetAtGrow@?$CArray@PAVCChartItemData@@PAV1@@@QAEXHPAVCChartItemData@@@Z ; CArray<CChartItemData *,CChartItemData *>::SetAtGrow
PUBLIC	?RemoveAt@?$CArray@PAVCChartItemData@@PAV1@@@QAEXHH@Z ; CArray<CChartItemData *,CChartItemData *>::RemoveAt
PUBLIC	??1?$CArray@PAVCChartItemData@@PAV1@@@UAE@XZ	; CArray<CChartItemData *,CChartItemData *>::~CArray<CChartItemData *,CChartItemData *>
PUBLIC	?Serialize@?$CArray@PAVCChartItemData@@PAV1@@@UAEXAAVCArchive@@@Z ; CArray<CChartItemData *,CChartItemData *>::Serialize
PUBLIC	??_G?$CArray@PAVCChartItemData@@PAV1@@@UAEPAXI@Z ; CArray<CChartItemData *,CChartItemData *>::`scalar deleting destructor'
PUBLIC	?BuildMaketChart@CChartItem@@QAEHPAVCChartItemData@@@Z ; CChartItem::BuildMaketChart
PUBLIC	?ReceiveMarketChartData@CChartItem@@QAEJPAXJ@Z	; CChartItem::ReceiveMarketChartData
PUBLIC	?GetMarketQueryData@CChartItem@@QAE?AV?$CStringT@DV?$StrTraitMFC_DLL@DV?$ChTraitsCRT@D@ATL@@@@@ATL@@V23@HH@Z ; CChartItem::GetMarketQueryData
PUBLIC	?GetChartItemMarketDataNew@CChartItem@@QAEPAVCChartItemData@@V?$CStringT@DV?$StrTraitMFC_DLL@DV?$ChTraitsCRT@D@ATL@@@@@ATL@@PBD@Z ; CChartItem::GetChartItemMarketDataNew
PUBLIC	?SetNew_OnePageDataCount@CChartItem@@QAEXH@Z	; CChartItem::SetNew_OnePageDataCount
PUBLIC	?RemoveAllMarketData@CChartItem@@QAEXXZ		; CChartItem::RemoveAllMarketData
PUBLIC	?RemoveChartItem_OneData@CChartItem@@QAEHPBDV?$CStringT@DV?$StrTraitMFC_DLL@DV?$ChTraitsCRT@D@ATL@@@@@ATL@@@Z ; CChartItem::RemoveChartItem_OneData
PUBLIC	?SetReplay_CurDate@CChartItem@@QAEXV?$CStringT@DV?$StrTraitMFC_DLL@DV?$ChTraitsCRT@D@ATL@@@@@ATL@@@Z ; CChartItem::SetReplay_CurDate
PUBLIC	?SetReplayChart_RealData@CChartItem@@QAEXV?$CStringT@DV?$StrTraitMFC_DLL@DV?$ChTraitsCRT@D@ATL@@@@@ATL@@00@Z ; CChartItem::SetReplayChart_RealData
PUBLIC	?SetBReplayChartMode@CChartItem@@QAEXH@Z	; CChartItem::SetBReplayChartMode
PUBLIC	?DrawReplayChartTitle@CChartItem@@QAEXVCRect@@PAVCDC@@PAVCFont@@2K@Z ; CChartItem::DrawReplayChartTitle
PUBLIC	?OpenSignalMapScr@CChartItem@@QAEXXZ		; CChartItem::OpenSignalMapScr
PUBLIC	?SetOldChartCode@CChartItem@@QAEXV?$CStringT@DV?$StrTraitMFC_DLL@DV?$ChTraitsCRT@D@ATL@@@@@ATL@@@Z ; CChartItem::SetOldChartCode
PUBLIC	?GetOldChartCode@CChartItem@@QAE?AV?$CStringT@DV?$StrTraitMFC_DLL@DV?$ChTraitsCRT@D@ATL@@@@@ATL@@XZ ; CChartItem::GetOldChartCode
PUBLIC	??0CChartItem@@QAE@XZ				; CChartItem::CChartItem
PUBLIC	?SetAutoSaveToOutside@CChartItem@@QAEX_N@Z	; CChartItem::SetAutoSaveToOutside
PUBLIC	?SetPacketData@CChartItem@@QAEHPBDJJH@Z		; CChartItem::SetPacketData
PUBLIC	?SetEndDate@CChartItem@@QAEXPBD@Z		; CChartItem::SetEndDate
PUBLIC	?InitShareManager@CChartItem@@QAEXXZ		; CChartItem::InitShareManager
PUBLIC	?GetSignalImageIndex_FromSignalDegree@CChartItem@@QAEHHH@Z ; CChartItem::GetSignalImageIndex_FromSignalDegree
PUBLIC	?SetSignalData@CChartItem@@QAEXV?$CStringT@DV?$StrTraitMFC_DLL@DV?$ChTraitsCRT@D@ATL@@@@@ATL@@PAEH@Z ; CChartItem::SetSignalData
PUBLIC	?Init_ChartCfgInfo@CChartItem@@QAEXXZ		; CChartItem::Init_ChartCfgInfo
PUBLIC	?SetChartConfigInfo@CChartItem@@QAEXAAUCHART_CONFIG_INFO@@@Z ; CChartItem::SetChartConfigInfo
PUBLIC	?GetReplayFlag@CChartItem@@QAE?AV?$CStringT@DV?$StrTraitMFC_DLL@DV?$ChTraitsCRT@D@ATL@@@@@ATL@@XZ ; CChartItem::GetReplayFlag
PUBLIC	?GetReplayDayBefore@CChartItem@@QAE?AV?$CStringT@DV?$StrTraitMFC_DLL@DV?$ChTraitsCRT@D@ATL@@@@@ATL@@XZ ; CChartItem::GetReplayDayBefore
PUBLIC	?GetReplayStartTime@CChartItem@@QAE?AV?$CStringT@DV?$StrTraitMFC_DLL@DV?$ChTraitsCRT@D@ATL@@@@@ATL@@XZ ; CChartItem::GetReplayStartTime
PUBLIC	?SetChartRequestType@CChartItem@@QAEXD@Z	; CChartItem::SetChartRequestType
PUBLIC	?SetChart_NumericValueType@CChartItem@@QAEXH@Z	; CChartItem::SetChart_NumericValueType
PUBLIC	?SetChartNumericValue@CChartItem@@QAEXH@Z	; CChartItem::SetChartNumericValue
PUBLIC	?SetUseLogValue@CChartItem@@QAEXH@Z		; CChartItem::SetUseLogValue
PUBLIC	?Create@CChartItem@@QAEHPAVCWnd@@PAUtagRECT@@HJJPBDH@Z ; CChartItem::Create
PUBLIC	?SetInit@CChartItem@@QAEXJJPBDH@Z		; CChartItem::SetInit
PUBLIC	?ReceiveInitalChartData@CChartItem@@QAEJPAXJ@Z	; CChartItem::ReceiveInitalChartData
PUBLIC	?ReceiveLoadingChartData@CChartItem@@QAEJPAXJ@Z	; CChartItem::ReceiveLoadingChartData
PUBLIC	?ResetOCX@CChartItem@@QAEXH@Z			; CChartItem::ResetOCX
PUBLIC	?DrawTitle@CChartItem@@QAEXVCRect@@PAVCDC@@PAVCFont@@2K@Z ; CChartItem::DrawTitle
PUBLIC	?SetButton@CChartItem@@QAEXQAUtagRECT@@@Z	; CChartItem::SetButton
PUBLIC	?SetCodeForQuery@CChartItem@@QAEXPBDV?$CStringT@DV?$StrTraitMFC_DLL@DV?$ChTraitsCRT@D@ATL@@@@@ATL@@H@Z ; CChartItem::SetCodeForQuery
PUBLIC	?AddChartBlock@CChartItem@@QAEHPBD@Z		; CChartItem::AddChartBlock
PUBLIC	?DestroyWindow@CChartItem@@UAEHXZ		; CChartItem::DestroyWindow
PUBLIC	?SetType@CChartItem@@QAEXD@Z			; CChartItem::SetType
PUBLIC	?GetTypeRequested@CChartItem@@QAEDXZ		; CChartItem::GetTypeRequested
PUBLIC	?GetType@CChartItem@@QAEDXZ			; CChartItem::GetType
PUBLIC	?SetTickMinDayNumber@CChartItem@@QAEXI@Z	; CChartItem::SetTickMinDayNumber
PUBLIC	?GetTickMinDayNumber@CChartItem@@QAE?AV?$CStringT@DV?$StrTraitMFC_DLL@DV?$ChTraitsCRT@D@ATL@@@@@ATL@@H@Z ; CChartItem::GetTickMinDayNumber
PUBLIC	?GetTickNumber@CChartItem@@QAE?AV?$CStringT@DV?$StrTraitMFC_DLL@DV?$ChTraitsCRT@D@ATL@@@@@ATL@@XZ ; CChartItem::GetTickNumber
PUBLIC	?GetSecNumber@CChartItem@@QAE?AV?$CStringT@DV?$StrTraitMFC_DLL@DV?$ChTraitsCRT@D@ATL@@@@@ATL@@XZ ; CChartItem::GetSecNumber
PUBLIC	?GetMinNumber@CChartItem@@QAE?AV?$CStringT@DV?$StrTraitMFC_DLL@DV?$ChTraitsCRT@D@ATL@@@@@ATL@@XZ ; CChartItem::GetMinNumber
PUBLIC	?GetDayNumber@CChartItem@@QAE?AV?$CStringT@DV?$StrTraitMFC_DLL@DV?$ChTraitsCRT@D@ATL@@@@@ATL@@XZ ; CChartItem::GetDayNumber
PUBLIC	?GetHourNumber@CChartItem@@QAE?AV?$CStringT@DV?$StrTraitMFC_DLL@DV?$ChTraitsCRT@D@ATL@@@@@ATL@@XZ ; CChartItem::GetHourNumber
PUBLIC	?SetTickNumber@CChartItem@@QAEXV?$CStringT@DV?$StrTraitMFC_DLL@DV?$ChTraitsCRT@D@ATL@@@@@ATL@@@Z ; CChartItem::SetTickNumber
PUBLIC	?SetSecNumber@CChartItem@@QAEXV?$CStringT@DV?$StrTraitMFC_DLL@DV?$ChTraitsCRT@D@ATL@@@@@ATL@@@Z ; CChartItem::SetSecNumber
PUBLIC	?SetMinNumber@CChartItem@@QAEXV?$CStringT@DV?$StrTraitMFC_DLL@DV?$ChTraitsCRT@D@ATL@@@@@ATL@@@Z ; CChartItem::SetMinNumber
PUBLIC	?SetDayNumber@CChartItem@@QAEXV?$CStringT@DV?$StrTraitMFC_DLL@DV?$ChTraitsCRT@D@ATL@@@@@ATL@@@Z ; CChartItem::SetDayNumber
PUBLIC	?SetHourNumber@CChartItem@@QAEXV?$CStringT@DV?$StrTraitMFC_DLL@DV?$ChTraitsCRT@D@ATL@@@@@ATL@@@Z ; CChartItem::SetHourNumber
PUBLIC	?LoadTickMinDayInfo@CChartItem@@QAEXV?$CStringT@DV?$StrTraitMFC_DLL@DV?$ChTraitsCRT@D@ATL@@@@@ATL@@@Z ; CChartItem::LoadTickMinDayInfo
PUBLIC	?SetEndDateRequested@CChartItem@@QAEXPBD@Z	; CChartItem::SetEndDateRequested
PUBLIC	?GetEndDateRequested@CChartItem@@QAE?AV?$CStringT@DV?$StrTraitMFC_DLL@DV?$ChTraitsCRT@D@ATL@@@@@ATL@@XZ ; CChartItem::GetEndDateRequested
PUBLIC	?GetEndDate@CChartItem@@QAE?AV?$CStringT@DV?$StrTraitMFC_DLL@DV?$ChTraitsCRT@D@ATL@@@@@ATL@@XZ ; CChartItem::GetEndDate
PUBLIC	?SetCntForRequest@CChartItem@@QAEXI@Z		; CChartItem::SetCntForRequest
PUBLIC	?GetCntForRequest@CChartItem@@QAEJXZ		; CChartItem::GetCntForRequest
PUBLIC	?GetQueryData@CChartItem@@QAE?AV?$CStringT@DV?$StrTraitMFC_DLL@DV?$ChTraitsCRT@D@ATL@@@@@ATL@@H@Z ; CChartItem::GetQueryData
PUBLIC	?GetDataCode@CChartItem@@QAE?AV?$CStringT@DV?$StrTraitMFC_DLL@DV?$ChTraitsCRT@D@ATL@@@@@ATL@@H@Z ; CChartItem::GetDataCode
PUBLIC	?GetDataTRCode@CChartItem@@QAE?AV?$CStringT@DV?$StrTraitMFC_DLL@DV?$ChTraitsCRT@D@ATL@@@@@ATL@@H@Z ; CChartItem::GetDataTRCode
PUBLIC	?HasGraph@CChartItem@@QAEHPBD@Z			; CChartItem::HasGraph
PUBLIC	?SetRealPriceData@CChartItem@@QAEXPAXJ@Z	; CChartItem::SetRealPriceData
PUBLIC	?SetRealYPriceData@CChartItem@@QAEXPAXJ@Z	; CChartItem::SetRealYPriceData
PUBLIC	?GetTrCodeForQuery@CChartItem@@QAE?AV?$CStringT@DV?$StrTraitMFC_DLL@DV?$ChTraitsCRT@D@ATL@@@@@ATL@@XZ ; CChartItem::GetTrCodeForQuery
PUBLIC	?LoadChartInfo@CChartItem@@QAEHPBDHHH0@Z	; CChartItem::LoadChartInfo
PUBLIC	?SaveChartInfo@CChartItem@@QAEHPBDH@Z		; CChartItem::SaveChartInfo
PUBLIC	?LoadChartSetting@CChartItem@@QAEHPBD@Z		; CChartItem::LoadChartSetting
PUBLIC	?SaveChartSetting@CChartItem@@QAEHPBD@Z		; CChartItem::SaveChartSetting
PUBLIC	?ResetChart@CChartItem@@QAEHXZ			; CChartItem::ResetChart
PUBLIC	?IsPrimaryChartItemData@CChartItem@@QAEHPAVCChartItemData@@@Z ; CChartItem::IsPrimaryChartItemData
PUBLIC	?HasChartItemData@CChartItem@@QAEHPBDV?$CStringT@DV?$StrTraitMFC_DLL@DV?$ChTraitsCRT@D@ATL@@@@@ATL@@HH@Z ; CChartItem::HasChartItemData
PUBLIC	?RemoveChartItemData@CChartItem@@QAEHPBDV?$CStringT@DV?$StrTraitMFC_DLL@DV?$ChTraitsCRT@D@ATL@@@@@ATL@@@Z ; CChartItem::RemoveChartItemData
PUBLIC	?SaveRQInfo@CChartItem@@QAEXPBD0@Z		; CChartItem::SaveRQInfo
PUBLIC	?LoadRQInfo@CChartItem@@QAEXPBD0H0@Z		; CChartItem::LoadRQInfo
PUBLIC	?FindChartItemDataForQuery@CChartItem@@QAEPAVCChartItemData@@XZ ; CChartItem::FindChartItemDataForQuery
PUBLIC	?ClearData@CChartItem@@QAEHXZ			; CChartItem::ClearData
PUBLIC	?ClearDataExceptPrimaryData@CChartItem@@QAEHXZ	; CChartItem::ClearDataExceptPrimaryData
PUBLIC	?SetNext@CChartItem@@QAEXH@Z			; CChartItem::SetNext
PUBLIC	?SaveandOpenFromFile@CChartItem@@QAEHPBD0HHH@Z	; CChartItem::SaveandOpenFromFile
PUBLIC	?LSaveandOpenFromAnalToolFile@CChartItem@@QAEHPBD0HH@Z ; CChartItem::LSaveandOpenFromAnalToolFile
PUBLIC	?GetPrimaryChartItemData@CChartItem@@QAEPAVCChartItemData@@XZ ; CChartItem::GetPrimaryChartItemData
PUBLIC	?SetUseRevisedValue@CChartItem@@QAEXH@Z		; CChartItem::SetUseRevisedValue
PUBLIC	?GetUseRevisedValue@CChartItem@@QAEHXZ		; CChartItem::GetUseRevisedValue
PUBLIC	?SetBNormalizedMinuteTimeRule@CChartItem@@QAEXH@Z ; CChartItem::SetBNormalizedMinuteTimeRule
PUBLIC	?SetRowNCol@CChartItem@@QAEXJJ@Z		; CChartItem::SetRowNCol
PUBLIC	?HideScale@CChartItem@@QAEXH@Z			; CChartItem::HideScale
PUBLIC	?HideInnerToolBar@CChartItem@@QAEXH@Z		; CChartItem::HideInnerToolBar
PUBLIC	?InvalidateType@CChartItem@@QAEXXZ		; CChartItem::InvalidateType
PUBLIC	?PtInRectJongmokTitle@CChartItem@@QBEHUtagPOINT@@@Z ; CChartItem::PtInRectJongmokTitle
PUBLIC	?ResetChartCfgWith@CChartItem@@QAEXF@Z		; CChartItem::ResetChartCfgWith
PUBLIC	?GetTempOnePageDataCount@CChartItem@@QAEJXZ	; CChartItem::GetTempOnePageDataCount
PUBLIC	?GetQueryDataForGuideLine@CChartItem@@QAE?AV?$CStringT@DV?$StrTraitMFC_DLL@DV?$ChTraitsCRT@D@ATL@@@@@ATL@@PBVCUIntArray@@@Z ; CChartItem::GetQueryDataForGuideLine
PUBLIC	?ShowLock@CChartItem@@QAEXH@Z			; CChartItem::ShowLock
PUBLIC	?SendMessageToInvoke@CChartItem@@QAEHFJJ@Z	; CChartItem::SendMessageToInvoke
PUBLIC	?ReceiveFromSTDataManager@CChartItem@@QAEHXZ	; CChartItem::ReceiveFromSTDataManager
PUBLIC	?SetPtrST@CChartItem@@QAEXJPBD@Z		; CChartItem::SetPtrST
PUBLIC	?ClearPtrST@CChartItem@@QAEXXZ			; CChartItem::ClearPtrST
PUBLIC	?SetSystemTradingIndexByTab@CChartItem@@QAEXPAVCStringArray@@@Z ; CChartItem::SetSystemTradingIndexByTab
PUBLIC	?UpdateSystemTradingIndexByTab@CChartItem@@QAEXXZ ; CChartItem::UpdateSystemTradingIndexByTab
PUBLIC	?DestoryItemData@CChartItem@@AAEHXZ		; CChartItem::DestoryItemData
PUBLIC	?BuildChart@CChartItem@@AAEHXZ			; CChartItem::BuildChart
PUBLIC	?SetAllProperties@CChartItem@@AAEHH@Z		; CChartItem::SetAllProperties
PUBLIC	?SetDrdsAdvise@CChartItem@@AAEHJ@Z		; CChartItem::SetDrdsAdvise
PUBLIC	?ResetData@CChartItem@@AAEXXZ			; CChartItem::ResetData
PUBLIC	?GetChartItemDataNew@CChartItem@@AAEPAVCChartItemData@@V?$CStringT@DV?$StrTraitMFC_DLL@DV?$ChTraitsCRT@D@ATL@@@@@ATL@@PBDHH@Z ; CChartItem::GetChartItemDataNew
PUBLIC	?GetPosChartItemData@CChartItem@@AAEJV?$CStringT@DV?$StrTraitMFC_DLL@DV?$ChTraitsCRT@D@ATL@@@@@ATL@@PBD@Z ; CChartItem::GetPosChartItemData
PUBLIC	?Add_OverLappedCnt@CChartItem@@QAEXXZ		; CChartItem::Add_OverLappedCnt
PUBLIC	?Init_OverLapped@CChartItem@@QAEXXZ		; CChartItem::Init_OverLapped
PUBLIC	??1CChartItem@@UAE@XZ				; CChartItem::~CChartItem
PUBLIC	?SetSTRunSTPath@CChartItem@@QAEXV?$CStringT@DV?$StrTraitMFC_DLL@DV?$ChTraitsCRT@D@ATL@@@@@ATL@@@Z ; CChartItem::SetSTRunSTPath
PUBLIC	?CopyData@CChartItem@@QAEXPAV1@@Z		; CChartItem::CopyData
PUBLIC	??1CXIBaseDesk@CChartItem@@QAE@XZ		; CChartItem::CXIBaseDesk::~CXIBaseDesk
PUBLIC	?GetBasePath@CXIBaseDesk@CChartItem@@UAEPBDXZ	; CChartItem::CXIBaseDesk::GetBasePath
PUBLIC	?GetDeskHwnd@CXIBaseDesk@CChartItem@@UAEPAUHWND__@@XZ ; CChartItem::CXIBaseDesk::GetDeskHwnd
PUBLIC	?GetUnknown@CXIBaseDesk@CChartItem@@UAEPAUIDispatch@@XZ ; CChartItem::CXIBaseDesk::GetUnknown
PUBLIC	?GetCtrlUnknown@CXIBaseDesk@CChartItem@@UAEPAUIUnknown@@PBD@Z ; CChartItem::CXIBaseDesk::GetCtrlUnknown
PUBLIC	?GetCtrlHwnd@CXIBaseDesk@CChartItem@@UAEPAUHWND__@@PBD@Z ; CChartItem::CXIBaseDesk::GetCtrlHwnd
PUBLIC	?GetSharedInterface@CXIBaseDesk@CChartItem@@UAEPAXXZ ; CChartItem::CXIBaseDesk::GetSharedInterface
PUBLIC	?InvokeEvent@CXIBaseDesk@CChartItem@@UAEHPAUHWND__@@PBD1@Z ; CChartItem::CXIBaseDesk::InvokeEvent
PUBLIC	?InvokeEvent2@CXIBaseDesk@CChartItem@@UAEHPBD00@Z ; CChartItem::CXIBaseDesk::InvokeEvent2
PUBLIC	?SendKey@CXIBaseDesk@CChartItem@@UAEHPAUHWND__@@IHH@Z ; CChartItem::CXIBaseDesk::SendKey
PUBLIC	?GetLSharedData@CXIBaseDesk@CChartItem@@UAEPAXXZ ; CChartItem::CXIBaseDesk::GetLSharedData
PUBLIC	?CallCommand@CXIBaseDesk@CChartItem@@UAEXPBD@Z	; CChartItem::CXIBaseDesk::CallCommand
PUBLIC	?GetUserColor@CXIBaseDesk@CChartItem@@UAEKFPBDF@Z ; CChartItem::CXIBaseDesk::GetUserColor
PUBLIC	?GetDeskInfo@CXIBaseDesk@CChartItem@@UAEJPBD@Z	; CChartItem::CXIBaseDesk::GetDeskInfo
PUBLIC	?GetUserInfo@CXIBaseDesk@CChartItem@@UAEJPBD@Z	; CChartItem::CXIBaseDesk::GetUserInfo
PUBLIC	?GetFrameInfo@CXIBaseDesk@CChartItem@@UAEJPBD@Z	; CChartItem::CXIBaseDesk::GetFrameInfo
PUBLIC	?GetMainInfo@CXIBaseDesk@CChartItem@@UAEJPBD@Z	; CChartItem::CXIBaseDesk::GetMainInfo
PUBLIC	?FP_vAdviseDebug@CXIBaseDesk@CChartItem@@UAEHPBDI@Z ; CChartItem::CXIBaseDesk::FP_vAdviseDebug
PUBLIC	?FP_vUnadviseDebug@CXIBaseDesk@CChartItem@@UAEXPBDI@Z ; CChartItem::CXIBaseDesk::FP_vUnadviseDebug
PUBLIC	?FP_sGetMyVBName@CXIBaseDesk@CChartItem@@UAEPBDPAUHWND__@@@Z ; CChartItem::CXIBaseDesk::FP_sGetMyVBName
PUBLIC	?FP_vSendDebug@CXIBaseDesk@CChartItem@@UAEXPBD00@Z ; CChartItem::CXIBaseDesk::FP_vSendDebug
PUBLIC	?FP_nGetCtrlPos@CXIBaseDesk@CChartItem@@UAEJXZ	; CChartItem::CXIBaseDesk::FP_nGetCtrlPos
PUBLIC	?FP_vResizeCtrl@CXIBaseDesk@CChartItem@@UAEXXZ	; CChartItem::CXIBaseDesk::FP_vResizeCtrl
PUBLIC	?SetMapMessage@CXIBaseDesk@CChartItem@@UAEXJPBD@Z ; CChartItem::CXIBaseDesk::SetMapMessage
PUBLIC	?FP_nGetDataInt@CXIBaseDesk@CChartItem@@UAEHH@Z	; CChartItem::CXIBaseDesk::FP_nGetDataInt
PUBLIC	?InitChartItem_FromExtToolBar@CChartItem@@QAEXXZ ; CChartItem::InitChartItem_FromExtToolBar
PUBLIC	?AddInEvent_FromChart@CChartItem@@QAEHPBD@Z	; CChartItem::AddInEvent_FromChart
PUBLIC	?PrintChart@CChartItem@@QAEXXZ			; CChartItem::PrintChart
PUBLIC	?SetExcelData@CChartItem@@QAEXXZ		; CChartItem::SetExcelData
PUBLIC	?SetSaveAllCount@CChartItem@@QAEXH@Z		; CChartItem::SetSaveAllCount
PUBLIC	?GetOpenAndSaveFileName@CChartItem@@QAE?AV?$CStringT@DV?$StrTraitMFC_DLL@DV?$ChTraitsCRT@D@ATL@@@@@ATL@@H@Z ; CChartItem::GetOpenAndSaveFileName
PUBLIC	?GetOpenAndSaveFileName4PeriodRQ@CChartItem@@QAE?AV?$CStringT@DV?$StrTraitMFC_DLL@DV?$ChTraitsCRT@D@ATL@@@@@ATL@@D@Z ; CChartItem::GetOpenAndSaveFileName4PeriodRQ
PUBLIC	?InvokeAddInPattern@CChartItem@@QAEHPBDFJ@Z	; CChartItem::InvokeAddInPattern
PUBLIC	?InvokeAddInPeriod@CChartItem@@QAEHPBDFJ@Z	; CChartItem::InvokeAddInPeriod
PUBLIC	?InvokeAddInSTIndex@CChartItem@@QAEHPBDFJ@Z	; CChartItem::InvokeAddInSTIndex
PUBLIC	?InvokeAddInNews@CChartItem@@QAEHPBDFJ@Z	; CChartItem::InvokeAddInNews
PUBLIC	?GetLoadedQueryData@CChartItem@@QAE?AV?$CStringT@DV?$StrTraitMFC_DLL@DV?$ChTraitsCRT@D@ATL@@@@@ATL@@XZ ; CChartItem::GetLoadedQueryData
PUBLIC	?GetLastHistoryCode@CChartItem@@QAE?AV?$CStringT@DV?$StrTraitMFC_DLL@DV?$ChTraitsCRT@D@ATL@@@@@ATL@@H@Z ; CChartItem::GetLastHistoryCode
PUBLIC	?GetQueryOpt@CChartItem@@QAE?AV?$CStringT@DV?$StrTraitMFC_DLL@DV?$ChTraitsCRT@D@ATL@@@@@ATL@@XZ ; CChartItem::GetQueryOpt
PUBLIC	?SetQueryOpt@CChartItem@@QAEXH@Z		; CChartItem::SetQueryOpt
PUBLIC	?IsAddMode@CChartItem@@QAEHXZ			; CChartItem::IsAddMode
PUBLIC	?OnSelectChartItem@CChartItem@@QAEXPAU_ST_SELCHART@@H@Z ; CChartItem::OnSelectChartItem
PUBLIC	?OnDeleteChartItem@CChartItem@@QAEXPBDAAPAU_ST_SELCHART@@@Z ; CChartItem::OnDeleteChartItem
PUBLIC	?AddChartItem@CChartItem@@QAEXPAVCChartItemData@@PBD1D1JJH@Z ; CChartItem::AddChartItem
PUBLIC	?GetSelChart@CChartItem@@QAEHPBDAAPAU_ST_SELCHART@@H@Z ; CChartItem::GetSelChart
PUBLIC	?FindSelectChartByItemCode@CChartItem@@QAEHPBDH@Z ; CChartItem::FindSelectChartByItemCode
PUBLIC	?IsAvailibleCode@CChartItem@@QAEHPBD@Z		; CChartItem::IsAvailibleCode
PUBLIC	?ResetRQ@CChartItem@@QAEXXZ			; CChartItem::ResetRQ
PUBLIC	?EnableRequestMoreButton@CChartItem@@QAEXH@Z	; CChartItem::EnableRequestMoreButton
PUBLIC	?SetViewCountFlag@CChartItem@@QAEXH@Z		; CChartItem::SetViewCountFlag
PUBLIC	?GetViewCountFlag@CChartItem@@QAEHXZ		; CChartItem::GetViewCountFlag
PUBLIC	?GetRealRefCount@CChartItem@@QAEHXZ		; CChartItem::GetRealRefCount
PUBLIC	?IsAvailableForReplay@CChartItem@@QAEHXZ	; CChartItem::IsAvailableForReplay
PUBLIC	?GetOHLDataFromBojomsg@CChartItem@@QAEXV?$CStringT@DV?$StrTraitMFC_DLL@DV?$ChTraitsCRT@D@ATL@@@@@ATL@@AAV23@11@Z ; CChartItem::GetOHLDataFromBojomsg
PUBLIC	?GetScreenNo@CChartItem@@QAEIXZ			; CChartItem::GetScreenNo
PUBLIC	?GetPrevDateRecvFlag@CChartItem@@QAEHXZ		; CChartItem::GetPrevDateRecvFlag
PUBLIC	?GetRQCount@CChartItem@@QAEHXZ			; CChartItem::GetRQCount
PUBLIC	?_DoGetColor@CChartItem@@QAEXAAKHNNH@Z		; CChartItem::_DoGetColor
PUBLIC	?GetOHLValue@CChartItem@@QAEXAAV?$CStringT@DV?$StrTraitMFC_DLL@DV?$ChTraitsCRT@D@ATL@@@@@ATL@@PBD000@Z ; CChartItem::GetOHLValue
PUBLIC	?_doCheckCodeAndTR@CChartItem@@QAEHPAD0PAV?$CStringT@DV?$StrTraitMFC_DLL@DV?$ChTraitsCRT@D@ATL@@@@@ATL@@PBD2@Z ; CChartItem::_doCheckCodeAndTR
PUBLIC	?_doCheckRQCount@CChartItem@@QAEHV?$CStringT@DV?$StrTraitMFC_DLL@DV?$ChTraitsCRT@D@ATL@@@@@ATL@@@Z ; CChartItem::_doCheckRQCount
PUBLIC	??_GCChartItem@@UAEPAXI@Z			; CChartItem::`scalar deleting destructor'
PUBLIC	?GetAddBlockMode@CChartMng@@QAEHXZ		; CChartMng::GetAddBlockMode
PUBLIC	??1stringdispid@CComTypeInfoHolder@ATL@@QAE@XZ	; ATL::CComTypeInfoHolder::stringdispid::~stringdispid
PUBLIC	??_Estringdispid@CComTypeInfoHolder@ATL@@QAEPAXI@Z ; ATL::CComTypeInfoHolder::stringdispid::`vector deleting destructor'
PUBLIC	?THREAD_SEND2SERVER@@YAIPAX@Z			; THREAD_SEND2SERVER
PUBLIC	?CLSIDFromProgID_GZone@@YAJPBDPAU_GUID@@@Z	; CLSIDFromProgID_GZone
PUBLIC	??$SerializeElements@PAVCChartItemData@@@@YGXAAVCArchive@@PAPAVCChartItemData@@H@Z ; SerializeElements<CChartItemData *>
PUBLIC	?_OptionsStorage@?1??__local_stdio_printf_options@@9@4_KA ; `__local_stdio_printf_options'::`2'::_OptionsStorage
PUBLIC	?_OptionsStorage@?1??__local_stdio_scanf_options@@9@4_KA ; `__local_stdio_scanf_options'::`2'::_OptionsStorage
PUBLIC	??_C@_02DPKJAMEF@?$CFd@				; `string'
PUBLIC	?_AtlWinModule@ATL@@3VCAtlWinModule@1@A		; ATL::_AtlWinModule
PUBLIC	??_C@_00CNPNBAHC@@				; `string'
PUBLIC	??_C@_01HIHLOKLC@1@				; `string'
PUBLIC	??_C@_02DKCKIIND@?$CFs@				; `string'
PUBLIC	??_7CBaseDesk@@6B@				; CBaseDesk::`vftable'
PUBLIC	??_7CBaseDesk2@@6B@				; CBaseDesk2::`vftable'
PUBLIC	??_C@_0M@CBBNGGHM@PcTrMng?4dll@			; `string'
PUBLIC	??_C@_0P@IDMAJEGN@HANAROPCTRMAIN@		; `string'
PUBLIC	??_C@_06NDLAHCHE@?$CFs?$CF08X@			; `string'
PUBLIC	??_C@_02EMFKHFLK@?$CFX@				; `string'
PUBLIC	??_C@_01KICIPPFI@?2@				; `string'
PUBLIC	??_C@_01GBGANLPD@0@				; `string'
PUBLIC	??_R0?AVCObject@@@8				; CObject `RTTI Type Descriptor'
PUBLIC	??_R3CObject@@8					; CObject::`RTTI Class Hierarchy Descriptor'
PUBLIC	??_R2CObject@@8					; CObject::`RTTI Base Class Array'
PUBLIC	??_R1A@?0A@EA@CObject@@8			; CObject::`RTTI Base Class Descriptor at (0,-1,0,64)'
PUBLIC	??_R1A@?0A@EA@CWnd@@8				; CWnd::`RTTI Base Class Descriptor at (0,-1,0,64)'
PUBLIC	??_R0?AVCWnd@@@8				; CWnd `RTTI Type Descriptor'
PUBLIC	??_R3CWnd@@8					; CWnd::`RTTI Class Hierarchy Descriptor'
PUBLIC	??_R2CWnd@@8					; CWnd::`RTTI Base Class Array'
PUBLIC	??_R1A@?0A@EA@CCmdTarget@@8			; CCmdTarget::`RTTI Base Class Descriptor at (0,-1,0,64)'
PUBLIC	??_R0?AVCCmdTarget@@@8				; CCmdTarget `RTTI Type Descriptor'
PUBLIC	??_R3CCmdTarget@@8				; CCmdTarget::`RTTI Class Hierarchy Descriptor'
PUBLIC	??_R2CCmdTarget@@8				; CCmdTarget::`RTTI Base Class Array'
PUBLIC	??_7CDRChartOcx@@6B@				; CDRChartOcx::`vftable'
PUBLIC	?clsid@?1??GetClsid@CDRChartOcx@@QAEABU_GUID@@XZ@4U3@B ; `CDRChartOcx::GetClsid'::`2'::clsid
PUBLIC	?classCChartItem@CChartItem@@2UCRuntimeClass@@B	; CChartItem::classCChartItem
PUBLIC	??_7?$CArray@PAVCChartItemData@@PAV1@@@6B@	; CArray<CChartItemData *,CChartItemData *>::`vftable'
PUBLIC	??_7CXIBaseDesk@CChartItem@@6B@			; CChartItem::CXIBaseDesk::`vftable'
PUBLIC	??_7CChartItem@@6B@				; CChartItem::`vftable'
PUBLIC	??_C@_05ODAIMMHC@?$CF?$CK?4?$CKs@		; `string'
PUBLIC	??_C@_05MGIINIKO@?$CF?$CK?42f@			; `string'
PUBLIC	??_C@_03JALODAI@?$CFld@				; `string'
PUBLIC	??_C@_01JLIPDDHJ@?3@				; `string'
PUBLIC	??_C@_0L@JBBAJBMA@CChartItem@			; `string'
PUBLIC	??_C@_03MMKGDKGA@001@				; `string'
PUBLIC	??_C@_03KIMKPPGE@005@				; `string'
PUBLIC	??_C@_07MGCPDNLD@DEFAULT@			; `string'
PUBLIC	??_C@_0M@CKCLLPAP@?C?V?$LE?k?H?$KN?1?$LK?$LJ?$LP?x@ ; `string'
PUBLIC	??_C@_04CFDBLPCI@?$LL?h?A?$KG@			; `string'
PUBLIC	??_C@_0CD@BIGOCDHM@ChartGuideLineAddin?4dll?3GUIDE_L@ ; `string'
PUBLIC	??_C@_0BG@CHJJKIAP@ChartSTIndexAddIn?4dll@	; `string'
PUBLIC	??_C@_0CH@ECLDNLJC@ChartPeriodSummaryAddIn?4dll?3ORD@ ; `string'
PUBLIC	??_C@_0CK@EPABKOIE@ChartDataListViewerAddIn?4dll?3EX@ ; `string'
PUBLIC	??_C@_0CI@CLPIMEI@ChartCommonAddIn?4dll?3UNDO_REDO_@ ; `string'
PUBLIC	??_C@_0CD@GPKHJNCE@ChartCommonAddIn?4dll?3MCHART_DVI@ ; `string'
PUBLIC	??_C@_0CC@KGOBCMPC@ChartCommonAddIn?4dll?3MCHART_DVI@ ; `string'
PUBLIC	??_C@_0CB@CBGDECCF@ChartCommonAddIn?4dll?3AUTO_SCROL@ ; `string'
PUBLIC	??_C@_0CI@EHIBBHNG@ChartCommonAddIn?4dll?3PRICE_YSCA@ ; `string'
PUBLIC	??_C@_0CG@NAPDEAKP@ChartAnalysisToolAddIn?4dll?3NIDL@ ; `string'
PUBLIC	??_C@_0CH@FBFCMPJK@ChartGuideLineAddin?4dll?3LOWHIGH@ ; `string'
PUBLIC	??_C@_0CC@JKLHIEJI@ChartCommonAddIn?4dll?3GAP_REVISI@ ; `string'
PUBLIC	??_C@_05IGCIGAJE@BSG?$DN0@			; `string'
PUBLIC	??_C@_0IB@LCFEJIDA@BlockColumn?$DL?$AN?6Block?$DL?$AN?6?$MA?Z?$LH?a?$MA?O?$MA?Z?$DL@ ; `string'
PUBLIC	??_C@_08BLEEFNBD@99999999@			; `string'
PUBLIC	??_C@_08NABHDGJE@?$LP?$KM?$LA?a?$LM?$LB?$LJ?$LA@ ; `string'
PUBLIC	??_C@_09OOOHDNAJ@?$FL?$CFd?5?1?5?$CFd?$FN@	; `string'
PUBLIC	??_C@_02PLANBGBD@?$KB?e@			; `string'
PUBLIC	??_C@_02FHLIFJBP@?$KB?i@			; `string'
PUBLIC	??_C@_02KNFHLBJF@?$KB?c@			; `string'
PUBLIC	??_C@_02EOKDGIFO@?$KB?h@			; `string'
PUBLIC	??_C@_05FCMGPCJC@d1011@				; `string'
PUBLIC	??_C@_05HJOLKBFB@d1012@				; `string'
PUBLIC	??_C@_04KMMDIKEB@?5?$CFs?5@			; `string'
PUBLIC	??_C@_05DMBEOOBE@d0515@				; `string'
PUBLIC	??_C@_0O@BGLNHCJA@?$CFs?5?$CFs?5?$CI?$CFs?$CF?$CF?$CJ?5@ ; `string'
PUBLIC	??_C@_0BC@ONPMIHNM@?$LN?C?3?$CFs?5?$LA?m?3?$CFs?5?$MA?z?3?$CFs@ ; `string'
PUBLIC	??_C@_08CPFJNDMP@?$CI?$LP?$LJ?$CJ?5?$CFs?5@	; `string'
PUBLIC	??_C@_06OJCHCHEE@?$FL?$CFd?F?$LN?$FN@		; `string'
PUBLIC	??_C@_06IPEHKJKD@?$FL?$CFd?C?J?$FN@		; `string'
PUBLIC	??_C@_03MHAIKEMP@300@				; `string'
PUBLIC	??_C@_06JHFLCBCO@?$FL30?C?J?$FN@		; `string'
PUBLIC	??_C@_06IIMBGABD@?$FL?$CFd?$LK?P?$FN@		; `string'
PUBLIC	??_C@_06JLDJMEKG@?$FL?$CFd?$MA?O?$FN@		; `string'
PUBLIC	??_C@_06LHGEFID@?$FL?$CFd?$LN?C?$FN@		; `string'
PUBLIC	??_C@_04DOPOBFMA@?$FL?A?V?$FN@			; `string'
PUBLIC	??_C@_04IGAPMDLC@?$FL?$LP?y?$FN@		; `string'
PUBLIC	??_C@_04NMKKDAJL@?$FL?$LD?b?$FN@		; `string'
PUBLIC	??_C@_02GPECMEKF@?$FL?$FN@			; `string'
PUBLIC	??_C@_06LADGPHL@?$LN?C?3?$CFs?5@		; `string'
PUBLIC	??_C@_06FHHCGKPN@?$LA?m?3?$CFs?5@		; `string'
PUBLIC	??_C@_05PIFDLOOP@?$MA?z?3?$CFs@			; `string'
PUBLIC	??_C@_04BOHEOFBK@P?$CG?$CGF@			; `string'
PUBLIC	??_C@_03IPFFPNJA@P?$CGF@			; `string'
PUBLIC	??_C@_0BG@FHIGLELG@ChartPatternAddin?4dll@	; `string'
PUBLIC	??_C@_0CI@FJKMINFJ@360?$LJ?L?$LI?$LI?$MA?G?5?$LA?$KK?$MA?$LI?$LH?N?5?$LE?Y?$LN?C?5?$LM?$LD?A?$KE?G?O?$LP?$KJ?5@ ; `string'
PUBLIC	??_C@_04OHGLKFFN@?$CF03d@			; `string'
PUBLIC	??_C@_06CLONMKIH@?$CFY?$CFm?$CFd@		; `string'
PUBLIC	??_C@_05CPLBAGNH@d1014@				; `string'
PUBLIC	??_C@_04GEFJINEE@?$CF?42f@			; `string'
PUBLIC	??_C@_0CB@HINODCNN@ChartCommonAddIn?4dll?3DIRECT_REA@ ; `string'
PUBLIC	??_C@_0L@OLKNJBLH@_DateTime_@			; `string'
PUBLIC	??_C@_05ELNNMDND@d1010@				; `string'
PUBLIC	??_C@_07NNJMGIH@_Close_@			; `string'
PUBLIC	??_C@_06MFLEHPOG@?$CF10?42f@			; `string'
PUBLIC	??_C@_08KONNGEKL@_Volume_@			; `string'
PUBLIC	??_C@_04GHNNFJCK@?$CF?40f@			; `string'
PUBLIC	??_C@_0P@OGFDPMKF@_VolumeAmount_@		; `string'
PUBLIC	??_C@_0BD@CGLPLIKA@_SuspenseContract_@		; `string'
PUBLIC	??_C@_0CN@FIFGAENB@?$LK?$LJ?$LB?b?$LI?p?$LF?e?5?$LL?s?E?B?$MA?T?$LE?O?$LE?Y?5?5?5?5?5?5?5?5?5?5?5?5@ ; `string'
PUBLIC	??_C@_0L@CNEJMLLO@?$LM?$LB?$LA?$KB?$LA?$NN?B?w?F?$KO@ ; `string'
PUBLIC	??_C@_05GAPAJABA@d1013@				; `string'
PUBLIC	??_C@_09POEKPOBJ@OldFuture@			; `string'
PUBLIC	??_C@_07FBPHHLJP@FMASTER@			; `string'
PUBLIC	??_C@_03BOGFMJLJ@185@				; `string'
PUBLIC	??_C@_03HFFKGJCF@A85@				; `string'
PUBLIC	??_C@_03DFEIJKHK@186@				; `string'
PUBLIC	??_C@_03FOHHDKOG@A86@				; `string'
PUBLIC	??_C@_03CMFDKLDL@187@				; `string'
PUBLIC	??_C@_03EHGMALKH@A87@				; `string'
PUBLIC	??_C@_03FPDHAOMG@102@				; `string'
PUBLIC	??_C@_0CJ@GKPLBJFH@?5?5?5?$MA?L?$LJ?L?5?$LI?p?$LF?g?5?$LF?$KF?$MA?L?E?M?$LI?$KG?5?A?$LG?H?$LI?G?O?$LP?$LE?$LN@ ; `string'
PUBLIC	??_C@_08JEGCGCLP@?$LA?$KB?$LA?$NN?B?w?F?$KO@	; `string'
PUBLIC	??_C@_0O@EJONJDDM@?$LA?$KB?$LA?$NN?5?$MA?L?$LF?$LP?F?r?$LB?U@ ; `string'
PUBLIC	??_C@_0L@PEIBFALD@?$LA?E?$LH?$KB?$LH?$KO?B?w?F?$KO@ ; `string'
PUBLIC	??_C@_0BH@NEKADIOF@ChartStrategyAddin?4dll@	; `string'
PUBLIC	??_C@_08CHLAEBHP@?$CF02d?$CF02d@		; `string'
PUBLIC	??_C@_04JDPKJLKG@0000@				; `string'
PUBLIC	??_C@_0L@EKGIKOJL@CntOfGraph@			; `string'
PUBLIC	??_C@_04IPKCHPNC@?4mct@				; `string'
PUBLIC	??_C@_08PJGFHBD@Code?$CF02d@			; `string'
PUBLIC	??_C@_0L@PHJOAKIC@TRCode?$CF02d@		; `string'
PUBLIC	??_C@_07OLCDEDDD@PMASTER@			; `string'
PUBLIC	??_C@_03GOIFLICK@120@				; `string'
PUBLIC	??_C@_06CDKAKGCK@AllCnt@			; `string'
PUBLIC	??_C@_03FKNPJMHG@400@				; `string'
PUBLIC	??_C@_09OJDBNEOO@CntInView@			; `string'
PUBLIC	??_C@_09MOFKPBPG@TickValue@			; `string'
PUBLIC	??_C@_08GHMDELNM@MinValue@			; `string'
PUBLIC	??_C@_08LKPMEEHC@DayValue@			; `string'
PUBLIC	??_C@_04KOACHJEN@Type@				; `string'
PUBLIC	??_C@_01FDFGLJHB@2@				; `string'
PUBLIC	??_C@_0P@EABLNBKF@ChartUnitValue@		; `string'
PUBLIC	??_C@_0M@OGEJPHAA@bRealCandle@			; `string'
PUBLIC	??_C@_0L@BCFFDEDD@bShowHLBar@			; `string'
PUBLIC	??_C@_0P@GDBEHKNF@bRecvTimeShare@		; `string'
PUBLIC	??_C@_09LBGECMLO@bAutoSave@			; `string'
PUBLIC	??_C@_08CDGKDHM@bShowLog@			; `string'
PUBLIC	??_C@_0O@MKKMBCFI@bRevisedValue@		; `string'
PUBLIC	??_C@_0N@HPAAHIMJ@bMonthGapRev@			; `string'
PUBLIC	??_C@_06GEIBLBMH@RQSIZE@			; `string'
PUBLIC	??_C@_02MMCGLACG@RQ@				; `string'
PUBLIC	??_C@_06OAPBJALJ@__0000@			; `string'
PUBLIC	??_C@_04DFMOBMKJ@__99@				; `string'
PUBLIC	??_C@_0L@PGINNEOP@STFilePath@			; `string'
PUBLIC	??_C@_06HFLFPHDF@Code00@			; `string'
PUBLIC	??_C@_08DGGNNICE@TRCode00@			; `string'
PUBLIC	??_C@_02HAOIJKIC@?$CFc@				; `string'
PUBLIC	??_C@_08DFLJKGLA@SecValue@			; `string'
PUBLIC	??_C@_05GIFAMKMK@?$CFd?$DL?$CFs@		; `string'
PUBLIC	??_C@_0BN@IDOOFJCL@?$DL?$CFs?$DL?$CFs?$DL?$CFs?$DL?$CFs?$DL?$CFc?$DL?$CFs?$DL?$CFld?$DL?$CFd?$DL?$CFs@ ; `string'
PUBLIC	??_C@_08JLGMHNNC@?$LI?E?$LF?$LF?C?$LM?$LA?a@	; `string'
PUBLIC	??_C@_08IHDIEAMD@?$LI?E?$LM?v?C?$LM?$LA?a@	; `string'
PUBLIC	??_C@_08JFLJLNKC@?$LI?E?$LF?$LF?$LA?G?$LM?v@	; `string'
PUBLIC	??_C@_08BLMBPJAL@?$LI?E?$LF?$LF?$LE?$NM?$LA?$KB@ ; `string'
PUBLIC	??_C@_08IJONIALD@?$LI?E?$LM?v?$LA?G?$LM?v@	; `string'
PUBLIC	??_C@_08HJFMEBK@?$LI?E?$LM?v?$LE?$NM?$LA?$KB@	; `string'
PUBLIC	??_C@_08DIGNHAJI@temp?4tmp@			; `string'
PUBLIC	??_C@_04PBCOOEDG@?4dat@				; `string'
PUBLIC	??_C@_05DGKKDHJG@d1015@				; `string'
PUBLIC	??_C@_03GOOLIKIF@?$CF3d@			; `string'
PUBLIC	??_C@_09MIEAAIKL@HourValue@			; `string'
PUBLIC	??_C@_06OAKEJMGG@?$CF04d00@			; `string'
PUBLIC	??_C@_04OGKJMPGK@?$CF02d@			; `string'
PUBLIC	??_C@_02NNHDHLCM@?$MA?O@			; `string'
PUBLIC	??_C@_02EJEPJIDE@?$LK?P@			; `string'
PUBLIC	??_C@_02MEPHBMOK@?F?$LN@			; `string'
PUBLIC	??_C@_02KCECDBDA@?C?J@				; `string'
PUBLIC	??_C@_02CNOPMPCD@?$LN?C@			; `string'
PUBLIC	??_C@_09NAFALPNH@?$CF100?4100s@			; `string'
PUBLIC	??_C@_05OGIKHPIO@?$CF8?48s@			; `string'
PUBLIC	??_C@_0BF@KFEKNAHG@?5?$CFs?5?5?$CFs?5?$CI?$CFs?$CF?$CF?$CJ?5?$CFs?5?5?5@ ; `string'
PUBLIC	??_C@_03EEBNCBOD@?5?$CFs@			; `string'
PUBLIC	??_C@_06DLOHGMNG@?$FL?$CFs?F?$LN?$FN@		; `string'
PUBLIC	??_C@_06FKABCLIB@?$FL?$CFs?$LK?P?$FN@		; `string'
PUBLIC	??_C@_06EJPJIPDE@?$FL?$CFs?$MA?O?$FN@		; `string'
PUBLIC	??_C@_04IBMLIHFP@?$FL?C?J?$FN@			; `string'
PUBLIC	??_C@_01NEMOKFLO@?$DN@				; `string'
PUBLIC	??_C@_08NMPKDFNF@?$CFs?9?$CFs?9?$CFs@		; `string'
PUBLIC	??_C@_0BD@JIOCNNLI@PREVPRICE?$DN_Close_?3@	; `string'
PUBLIC	??_C@_01DNKMNLPK@?$HM@				; `string'
PUBLIC	??_C@_0L@JLIDMBLJ@AddInEvent@			; `string'
PUBLIC	??_C@_01IDAFKMJL@_@				; `string'
PUBLIC	??_C@_05LHBMGCLG@_Sec_@				; `string'
PUBLIC	??_C@_06OEABNLLF@_Tick_@			; `string'
PUBLIC	??_C@_05CKMCGHLO@_Min_@				; `string'
PUBLIC	??_C@_05PLAPJINF@_Day_@				; `string'
PUBLIC	??_C@_06HJNAHMEJ@_Hour_@			; `string'
PUBLIC	??_C@_06ICAOBLMG@_Week_@			; `string'
PUBLIC	??_C@_07HDBNENCO@_Month_@			; `string'
PUBLIC	??_C@_06CEJBHFBO@_Year_@			; `string'
PUBLIC	??_C@_0O@NALPJIAL@JipyoSync?4dat@		; `string'
PUBLIC	??_C@_04OCCELDNI@?$CF04d@			; `string'
PUBLIC	??_C@_0M@GNAOEDKF@JipyoRQ?4dat@			; `string'
PUBLIC	??_C@_02OCIIMEMP@01@				; `string'
PUBLIC	??_C@_02MJKFJHAM@02@				; `string'
PUBLIC	??_C@_02NALOKGEN@03@				; `string'
PUBLIC	??_C@_02IGOEABML@05@				; `string'
PUBLIC	??_C@_0CE@PDAKDMBD@?C?V?$LE?k?5?$CFd?$LA?$LD?5?$LP?$LF?$LP?$KK?$LB?n?A?v?5?C?$NP?$LA?$KB?5?$LA?$KB?$LE?I?G?U?$LE@ ; `string'
PUBLIC	??_C@_0L@IOODIHBH@?$CBPre?$CB?$CFs?$CB?$CFs@	; `string'
PUBLIC	??_C@_06GIMNLBPG@?$EAOHL?$DN?3@			; `string'
PUBLIC	??_C@_01EOFPKCAF@?$EA@				; `string'
PUBLIC	??_C@_09FCCHHFOI@?$CF400?4400s@			; `string'
PUBLIC	??_C@_06POMNMINI@?$CF0?$CKd?$CFs@		; `string'
PUBLIC	??_R4CBaseDesk@@6B@				; CBaseDesk::`RTTI Complete Object Locator'
PUBLIC	??_R0?AVCBaseDesk@@@8				; CBaseDesk `RTTI Type Descriptor'
PUBLIC	??_R3CBaseDesk@@8				; CBaseDesk::`RTTI Class Hierarchy Descriptor'
PUBLIC	??_R2CBaseDesk@@8				; CBaseDesk::`RTTI Base Class Array'
PUBLIC	??_R1A@?0A@EA@CBaseDesk@@8			; CBaseDesk::`RTTI Base Class Descriptor at (0,-1,0,64)'
PUBLIC	??_R4CBaseDesk2@@6B@				; CBaseDesk2::`RTTI Complete Object Locator'
PUBLIC	??_R0?AVCBaseDesk2@@@8				; CBaseDesk2 `RTTI Type Descriptor'
PUBLIC	??_R3CBaseDesk2@@8				; CBaseDesk2::`RTTI Class Hierarchy Descriptor'
PUBLIC	??_R2CBaseDesk2@@8				; CBaseDesk2::`RTTI Base Class Array'
PUBLIC	??_R1A@?0A@EA@CBaseDesk2@@8			; CBaseDesk2::`RTTI Base Class Descriptor at (0,-1,0,64)'
PUBLIC	??_R4CChartItem@@6B@				; CChartItem::`RTTI Complete Object Locator'
PUBLIC	??_R0?AVCChartItem@@@8				; CChartItem `RTTI Type Descriptor'
PUBLIC	??_R3CChartItem@@8				; CChartItem::`RTTI Class Hierarchy Descriptor'
PUBLIC	??_R2CChartItem@@8				; CChartItem::`RTTI Base Class Array'
PUBLIC	??_R1A@?0A@EA@CChartItem@@8			; CChartItem::`RTTI Base Class Descriptor at (0,-1,0,64)'
PUBLIC	??_R1A@?0A@EA@CDRChartOcx@@8			; CDRChartOcx::`RTTI Base Class Descriptor at (0,-1,0,64)'
PUBLIC	??_R0?AVCDRChartOcx@@@8				; CDRChartOcx `RTTI Type Descriptor'
PUBLIC	??_R3CDRChartOcx@@8				; CDRChartOcx::`RTTI Class Hierarchy Descriptor'
PUBLIC	??_R2CDRChartOcx@@8				; CDRChartOcx::`RTTI Base Class Array'
PUBLIC	??_R4CDRChartOcx@@6B@				; CDRChartOcx::`RTTI Complete Object Locator'
PUBLIC	??_R4?$CArray@PAVCChartItemData@@PAV1@@@6B@	; CArray<CChartItemData *,CChartItemData *>::`RTTI Complete Object Locator'
PUBLIC	??_R0?AV?$CArray@PAVCChartItemData@@PAV1@@@@8	; CArray<CChartItemData *,CChartItemData *> `RTTI Type Descriptor'
PUBLIC	??_R3?$CArray@PAVCChartItemData@@PAV1@@@8	; CArray<CChartItemData *,CChartItemData *>::`RTTI Class Hierarchy Descriptor'
PUBLIC	??_R2?$CArray@PAVCChartItemData@@PAV1@@@8	; CArray<CChartItemData *,CChartItemData *>::`RTTI Base Class Array'
PUBLIC	??_R1A@?0A@EA@?$CArray@PAVCChartItemData@@PAV1@@@8 ; CArray<CChartItemData *,CChartItemData *>::`RTTI Base Class Descriptor at (0,-1,0,64)'
PUBLIC	??_R4CXIBaseDesk@CChartItem@@6B@		; CChartItem::CXIBaseDesk::`RTTI Complete Object Locator'
PUBLIC	??_R0?AVCXIBaseDesk@CChartItem@@@8		; CChartItem::CXIBaseDesk `RTTI Type Descriptor'
PUBLIC	??_R3CXIBaseDesk@CChartItem@@8			; CChartItem::CXIBaseDesk::`RTTI Class Hierarchy Descriptor'
PUBLIC	??_R2CXIBaseDesk@CChartItem@@8			; CChartItem::CXIBaseDesk::`RTTI Base Class Array'
PUBLIC	??_R1A@?0A@EA@CXIBaseDesk@CChartItem@@8		; CChartItem::CXIBaseDesk::`RTTI Base Class Descriptor at (0,-1,0,64)'
PUBLIC	__real@3f1a36e2eb1c432d
PUBLIC	__real@3f50624dd2f1a9fc
PUBLIC	__real@3f847ae147ae147b
PUBLIC	__real@3fb999999999999a
PUBLIC	__real@3ff0000000000000
PUBLIC	__real@4059000000000000
PUBLIC	__real@412e848000000000
PUBLIC	__xmm@20202020202020202020202020202020
PUBLIC	__xmm@80000000000000008000000000000000
EXTRN	??_L@YGXPAXIIP6EX0@Z1@Z:PROC			; `eh vector constructor iterator'
EXTRN	??_M@YGXPAXIIP6EX0@Z@Z:PROC			; `eh vector destructor iterator'
EXTRN	??2@YAPAXI@Z:PROC				; operator new
EXTRN	??3@YAXPAX@Z:PROC				; operator delete
EXTRN	??3@YAXPAXI@Z:PROC				; operator delete
EXTRN	?__global_delete@@YAXPAXI@Z:PROC		; __global_delete
EXTRN	??_U@YAPAXI@Z:PROC				; operator new[]
EXTRN	??_V@YAXPAX@Z:PROC				; operator delete[]
EXTRN	??_V@YAXPAXI@Z:PROC				; operator delete[]
EXTRN	_atexit:PROC
EXTRN	___std_terminate:PROC
EXTRN	__imp___invalid_parameter_noinfo:PROC
EXTRN	__imp___errno:PROC
EXTRN	_strstr:PROC
EXTRN	__imp__GetEnvironmentVariableA@12:PROC
EXTRN	__imp__RaiseException@16:PROC
EXTRN	__imp__GetLastError@0:PROC
EXTRN	__imp__InitializeCriticalSectionEx@12:PROC
EXTRN	__imp__DeleteCriticalSection@4:PROC
EXTRN	__imp__GetModuleHandleA@4:PROC
EXTRN	__imp__lstrcmpA@8:PROC
EXTRN	__imp__GetPrivateProfileIntA@16:PROC
EXTRN	__imp__GetPrivateProfileStringA@24:PROC
EXTRN	__imp__WritePrivateProfileStringA@16:PROC
EXTRN	__imp__GetTextExtentPoint32A@16:PROC
EXTRN	__imp__RegisterWindowMessageA@4:PROC
EXTRN	__imp__SendMessageA@16:PROC
EXTRN	__imp__UnregisterClassA@8:PROC
EXTRN	__imp__IsWindow@4:PROC
EXTRN	__imp__IsWindowVisible@4:PROC
EXTRN	__imp__EnableWindow@8:PROC
EXTRN	__imp__ReleaseDC@8:PROC
EXTRN	__imp__InvalidateRect@12:PROC
EXTRN	__imp__SetRect@20:PROC
EXTRN	__imp__SetRectEmpty@4:PROC
EXTRN	__imp__CopyRect@8:PROC
EXTRN	__imp__InflateRect@12:PROC
EXTRN	__imp__IntersectRect@12:PROC
EXTRN	__imp__UnionRect@12:PROC
EXTRN	__imp__SubtractRect@12:PROC
EXTRN	__imp__OffsetRect@12:PROC
EXTRN	__imp__IsRectEmpty@4:PROC
EXTRN	__imp__EqualRect@8:PROC
EXTRN	__imp__PtInRect@12:PROC
EXTRN	__imp__GetParent@4:PROC
EXTRN	__imp__MultiByteToWideChar@24:PROC
EXTRN	__imp____stdio_common_vsprintf:PROC
EXTRN	__imp____stdio_common_vsscanf:PROC
EXTRN	__imp__free:PROC
EXTRN	__imp__atof:PROC
EXTRN	__imp__atoi:PROC
EXTRN	__imp__atol:PROC
EXTRN	__imp___localtime64_s:PROC
EXTRN	__imp__strftime:PROC
EXTRN	__imp___time64:PROC
EXTRN	?AfxThrowMemoryException@@YGXXZ:PROC		; AfxThrowMemoryException
EXTRN	?AfxThrowInvalidArgException@@YGXXZ:PROC	; AfxThrowInvalidArgException
EXTRN	?AfxThrowArchiveException@@YGXHPBD@Z:PROC	; AfxThrowArchiveException
EXTRN	?AfxThrowOleException@@YGXJ@Z:PROC		; AfxThrowOleException
EXTRN	?GetRuntimeClass@CObject@@UBEPAUCRuntimeClass@@XZ:PROC ; CObject::GetRuntimeClass
EXTRN	__imp__CLSIDFromProgID@8:PROC
EXTRN	__imp__SysFreeString@4:PROC
EXTRN	__imp_??A?$CSimpleStringT@D$00@ATL@@QBEDH@Z:PROC
EXTRN	__imp_?Empty@?$CSimpleStringT@D$00@ATL@@QAEXXZ:PROC
EXTRN	__imp_?GetAt@?$CSimpleStringT@D$00@ATL@@QBEDH@Z:PROC
EXTRN	__imp_?GetBuffer@?$CSimpleStringT@D$00@ATL@@QAEPADH@Z:PROC
EXTRN	__imp_?GetBufferSetLength@?$CSimpleStringT@D$00@ATL@@QAEPADH@Z:PROC
EXTRN	__imp_?ReleaseBuffer@?$CSimpleStringT@D$00@ATL@@QAEXH@Z:PROC
EXTRN	__imp_?Concatenate@?$CSimpleStringT@D$00@ATL@@KAXAAV12@PBDH1H@Z:PROC
EXTRN	__imp_??0?$CStringT@DV?$StrTraitMFC_DLL@DV?$ChTraitsCRT@D@ATL@@@@@ATL@@QAE@XZ:PROC
EXTRN	__imp_??0?$CStringT@DV?$StrTraitMFC_DLL@DV?$ChTraitsCRT@D@ATL@@@@@ATL@@QAE@PAUIAtlStringMgr@1@@Z:PROC
EXTRN	__imp_??0?$CStringT@DV?$StrTraitMFC_DLL@DV?$ChTraitsCRT@D@ATL@@@@@ATL@@QAE@ABV01@@Z:PROC
EXTRN	__imp_??0?$CStringT@DV?$StrTraitMFC_DLL@DV?$ChTraitsCRT@D@ATL@@@@@ATL@@QAE@PBD@Z:PROC
EXTRN	__imp_??1?$CStringT@DV?$StrTraitMFC_DLL@DV?$ChTraitsCRT@D@ATL@@@@@ATL@@QAE@XZ:PROC
EXTRN	__imp_??4?$CStringT@DV?$StrTraitMFC_DLL@DV?$ChTraitsCRT@D@ATL@@@@@ATL@@QAEAAV01@ABV01@@Z:PROC
EXTRN	__imp_??4?$CStringT@DV?$StrTraitMFC_DLL@DV?$ChTraitsCRT@D@ATL@@@@@ATL@@QAEAAV01@PBD@Z:PROC
EXTRN	__imp_??Y?$CStringT@DV?$StrTraitMFC_DLL@DV?$ChTraitsCRT@D@ATL@@@@@ATL@@QAEAAV01@ABV?$CSimpleStringT@D$00@1@@Z:PROC
EXTRN	__imp_??Y?$CStringT@DV?$StrTraitMFC_DLL@DV?$ChTraitsCRT@D@ATL@@@@@ATL@@QAEAAV01@PBD@Z:PROC
EXTRN	__imp_??Y?$CStringT@DV?$StrTraitMFC_DLL@DV?$ChTraitsCRT@D@ATL@@@@@ATL@@QAEAAV01@D@Z:PROC
EXTRN	__imp_?GetManager@?$CStringT@DV?$StrTraitMFC_DLL@DV?$ChTraitsCRT@D@ATL@@@@@ATL@@QBEPAUIAtlStringMgr@2@XZ:PROC
EXTRN	__imp_?Compare@?$CStringT@DV?$StrTraitMFC_DLL@DV?$ChTraitsCRT@D@ATL@@@@@ATL@@QBEHPBD@Z:PROC
EXTRN	__imp_?CompareNoCase@?$CStringT@DV?$StrTraitMFC_DLL@DV?$ChTraitsCRT@D@ATL@@@@@ATL@@QBEHPBD@Z:PROC
EXTRN	__imp_?Delete@?$CStringT@DV?$StrTraitMFC_DLL@DV?$ChTraitsCRT@D@ATL@@@@@ATL@@QAEHHH@Z:PROC
EXTRN	__imp_?Remove@?$CStringT@DV?$StrTraitMFC_DLL@DV?$ChTraitsCRT@D@ATL@@@@@ATL@@QAEHD@Z:PROC
EXTRN	__imp_?Find@?$CStringT@DV?$StrTraitMFC_DLL@DV?$ChTraitsCRT@D@ATL@@@@@ATL@@QBEHDH@Z:PROC
EXTRN	__imp_?Find@?$CStringT@DV?$StrTraitMFC_DLL@DV?$ChTraitsCRT@D@ATL@@@@@ATL@@QBEHPBDH@Z:PROC
EXTRN	__imp_?TrimRight@?$CStringT@DV?$StrTraitMFC_DLL@DV?$ChTraitsCRT@D@ATL@@@@@ATL@@QAEAAV12@XZ:PROC
EXTRN	__imp_?TrimLeft@?$CStringT@DV?$StrTraitMFC_DLL@DV?$ChTraitsCRT@D@ATL@@@@@ATL@@QAEAAV12@XZ:PROC
EXTRN	__imp_?TrimRight@?$CStringT@DV?$StrTraitMFC_DLL@DV?$ChTraitsCRT@D@ATL@@@@@ATL@@QAEAAV12@D@Z:PROC
EXTRN	__imp_?TrimLeft@?$CStringT@DV?$StrTraitMFC_DLL@DV?$ChTraitsCRT@D@ATL@@@@@ATL@@QAEAAV12@D@Z:PROC
EXTRN	__imp_?Mid@?$CStringT@DV?$StrTraitMFC_DLL@DV?$ChTraitsCRT@D@ATL@@@@@ATL@@QBE?AV12@H@Z:PROC
EXTRN	__imp_?Mid@?$CStringT@DV?$StrTraitMFC_DLL@DV?$ChTraitsCRT@D@ATL@@@@@ATL@@QBE?AV12@HH@Z:PROC
EXTRN	__imp_?Right@?$CStringT@DV?$StrTraitMFC_DLL@DV?$ChTraitsCRT@D@ATL@@@@@ATL@@QBE?AV12@H@Z:PROC
EXTRN	__imp_?Left@?$CStringT@DV?$StrTraitMFC_DLL@DV?$ChTraitsCRT@D@ATL@@@@@ATL@@QBE?AV12@H@Z:PROC
EXTRN	__imp_?Format@?$CStringT@DV?$StrTraitMFC_DLL@DV?$ChTraitsCRT@D@ATL@@@@@ATL@@QAAXPBDZZ:PROC
EXTRN	??0CFileFind@@QAE@XZ:PROC			; CFileFind::CFileFind
EXTRN	??1CFileFind@@UAE@XZ:PROC			; CFileFind::~CFileFind
EXTRN	?FindFile@CFileFind@@UAEHPBDK@Z:PROC		; CFileFind::FindFile
EXTRN	?Read@CArchive@@QAEIPAXI@Z:PROC			; CArchive::Read
EXTRN	?Write@CArchive@@QAEXPBXI@Z:PROC		; CArchive::Write
EXTRN	?ReadCount@CArchive@@QAEKXZ:PROC		; CArchive::ReadCount
EXTRN	?WriteCount@CArchive@@QAEXK@Z:PROC		; CArchive::WriteCount
EXTRN	??0CPtrArray@@QAE@XZ:PROC			; CPtrArray::CPtrArray
EXTRN	?SetAtGrow@CPtrArray@@QAEXHPAX@Z:PROC		; CPtrArray::SetAtGrow
EXTRN	??1CPtrArray@@UAE@XZ:PROC			; CPtrArray::~CPtrArray
EXTRN	??0CStringArray@@QAE@XZ:PROC			; CStringArray::CStringArray
EXTRN	?SetSize@CStringArray@@QAEXHH@Z:PROC		; CStringArray::SetSize
EXTRN	?SetAtGrow@CStringArray@@QAEXHABV?$CStringT@DV?$StrTraitMFC_DLL@DV?$ChTraitsCRT@D@ATL@@@@@ATL@@@Z:PROC ; CStringArray::SetAtGrow
EXTRN	?Append@CStringArray@@QAEHABV1@@Z:PROC		; CStringArray::Append
EXTRN	?RemoveAt@CStringArray@@QAEXHH@Z:PROC		; CStringArray::RemoveAt
EXTRN	??1CStringArray@@UAE@XZ:PROC			; CStringArray::~CStringArray
EXTRN	??0CStringList@@QAE@H@Z:PROC			; CStringList::CStringList
EXTRN	?AddTail@CStringList@@QAEPAU__POSITION@@PBD@Z:PROC ; CStringList::AddTail
EXTRN	?RemoveAll@CStringList@@QAEXXZ:PROC		; CStringList::RemoveAll
EXTRN	??1CStringList@@UAE@XZ:PROC			; CStringList::~CStringList
EXTRN	??0CMapStringToPtr@@QAE@H@Z:PROC		; CMapStringToPtr::CMapStringToPtr
EXTRN	?Lookup@CMapStringToPtr@@QBEHPBDAAPAX@Z:PROC	; CMapStringToPtr::Lookup
EXTRN	??ACMapStringToPtr@@QAEAAPAXPBD@Z:PROC		; CMapStringToPtr::operator[]
EXTRN	?RemoveKey@CMapStringToPtr@@QAEHPBD@Z:PROC	; CMapStringToPtr::RemoveKey
EXTRN	?RemoveAll@CMapStringToPtr@@QAEXXZ:PROC		; CMapStringToPtr::RemoveAll
EXTRN	?GetNextAssoc@CMapStringToPtr@@QBEXAAPAU__POSITION@@AAV?$CStringT@DV?$StrTraitMFC_DLL@DV?$ChTraitsCRT@D@ATL@@@@@ATL@@AAPAX@Z:PROC ; CMapStringToPtr::GetNextAssoc
EXTRN	??1CMapStringToPtr@@UAE@XZ:PROC			; CMapStringToPtr::~CMapStringToPtr
EXTRN	?SetBkMode@CDC@@QAEHH@Z:PROC			; CDC::SetBkMode
EXTRN	?FillSolidRect@CDC@@QAEXPBUtagRECT@@K@Z:PROC	; CDC::FillSolidRect
EXTRN	?OnCmdMsg@CCmdTarget@@UAEHIHPAXPAUAFX_CMDHANDLERINFO@@@Z:PROC ; CCmdTarget::OnCmdMsg
EXTRN	?IsInvokeAllowed@CCmdTarget@@UAEHJ@Z:PROC	; CCmdTarget::IsInvokeAllowed
EXTRN	?GetDispatchIID@CCmdTarget@@UAEHPAU_GUID@@@Z:PROC ; CCmdTarget::GetDispatchIID
EXTRN	?GetTypeInfoCount@CCmdTarget@@UAEIXZ:PROC	; CCmdTarget::GetTypeInfoCount
EXTRN	?GetTypeLibCache@CCmdTarget@@UAEPAVCTypeLibCache@@XZ:PROC ; CCmdTarget::GetTypeLibCache
EXTRN	?GetTypeLib@CCmdTarget@@UAEJKPAPAUITypeLib@@@Z:PROC ; CCmdTarget::GetTypeLib
EXTRN	?GetCommandMap@CCmdTarget@@MBEPBUAFX_OLECMDMAP@@XZ:PROC ; CCmdTarget::GetCommandMap
EXTRN	?GetDispatchMap@CCmdTarget@@MBEPBUAFX_DISPMAP@@XZ:PROC ; CCmdTarget::GetDispatchMap
EXTRN	?GetConnectionMap@CCmdTarget@@MBEPBUAFX_CONNECTIONMAP@@XZ:PROC ; CCmdTarget::GetConnectionMap
EXTRN	?GetEventSinkMap@CCmdTarget@@MBEPBUAFX_EVENTSINKMAP@@XZ:PROC ; CCmdTarget::GetEventSinkMap
EXTRN	?OnCreateAggregates@CCmdTarget@@UAEHXZ:PROC	; CCmdTarget::OnCreateAggregates
EXTRN	?GetInterfaceHook@CCmdTarget@@UAEPAUIUnknown@@PBX@Z:PROC ; CCmdTarget::GetInterfaceHook
EXTRN	?GetExtraConnectionPoints@CCmdTarget@@MAEHPAVCPtrArray@@@Z:PROC ; CCmdTarget::GetExtraConnectionPoints
EXTRN	?GetConnectionHook@CCmdTarget@@MAEPAUIConnectionPoint@@ABU_GUID@@@Z:PROC ; CCmdTarget::GetConnectionHook
EXTRN	??0CWnd@@QAE@XZ:PROC				; CWnd::CWnd
EXTRN	?FromHandle@CWnd@@SGPAV1@PAUHWND__@@@Z:PROC	; CWnd::FromHandle
EXTRN	?PreSubclassWindow@CWnd@@UAEXXZ:PROC		; CWnd::PreSubclassWindow
EXTRN	?CreateEx@CWnd@@UAEHKPBD0KHHHHPAUHWND__@@PAUHMENU__@@PAX@Z:PROC ; CWnd::CreateEx
EXTRN	?CreateEx@CWnd@@UAEHKPBD0KABUtagRECT@@PAV1@IPAX@Z:PROC ; CWnd::CreateEx
EXTRN	?CreateControl@CWnd@@QAEHABU_GUID@@PBDKABUtagRECT@@PAV1@IPAVCFile@@HPA_W@Z:PROC ; CWnd::CreateControl
EXTRN	?DestroyWindow@CWnd@@UAEHXZ:PROC		; CWnd::DestroyWindow
EXTRN	?PreCreateWindow@CWnd@@UAEHAAUtagCREATESTRUCTA@@@Z:PROC ; CWnd::PreCreateWindow
EXTRN	?CalcWindowRect@CWnd@@UAEXPAUtagRECT@@I@Z:PROC	; CWnd::CalcWindowRect
EXTRN	?GetDlgCtrlID@CWnd@@QBEHXZ:PROC			; CWnd::GetDlgCtrlID
EXTRN	?GetMenu@CWnd@@UBEPAVCMenu@@XZ:PROC		; CWnd::GetMenu
EXTRN	?SetMenu@CWnd@@UAEHPAVCMenu@@@Z:PROC		; CWnd::SetMenu
EXTRN	?MoveWindow@CWnd@@QAEXHHHHH@Z:PROC		; CWnd::MoveWindow
EXTRN	?SetWindowPos@CWnd@@QAEHPBV1@HHHHI@Z:PROC	; CWnd::SetWindowPos
EXTRN	?ShowWindow@CWnd@@QAEHH@Z:PROC			; CWnd::ShowWindow
EXTRN	?OnToolHitTest@CWnd@@UBEHVCPoint@@PAUtagTOOLINFOA@@@Z:PROC ; CWnd::OnToolHitTest
EXTRN	?GetScrollBarCtrl@CWnd@@UBEPAVCScrollBar@@H@Z:PROC ; CWnd::GetScrollBarCtrl
EXTRN	?WinHelpA@CWnd@@UAEXKI@Z:PROC			; CWnd::WinHelpA
EXTRN	?HtmlHelpA@CWnd@@UAEXKI@Z:PROC			; CWnd::HtmlHelpA
EXTRN	?WinHelpInternal@CWnd@@UAEXKI@Z:PROC		; CWnd::WinHelpInternal
EXTRN	?ContinueModal@CWnd@@UAEHXZ:PROC		; CWnd::ContinueModal
EXTRN	?EndModalLoop@CWnd@@UAEXH@Z:PROC		; CWnd::EndModalLoop
EXTRN	?OnDrawIconicThumbnailOrLivePreview@CWnd@@UAEXAAVCDC@@VCRect@@VCSize@@HAAH@Z:PROC ; CWnd::OnDrawIconicThumbnailOrLivePreview
EXTRN	?GetInterfaceMap@CWnd@@MBEPBUAFX_INTERFACEMAP@@XZ:PROC ; CWnd::GetInterfaceMap
EXTRN	?EnsureStdObj@CWnd@@UAEJXZ:PROC			; CWnd::EnsureStdObj
EXTRN	?get_accParent@CWnd@@UAEJPAPAUIDispatch@@@Z:PROC ; CWnd::get_accParent
EXTRN	?get_accChildCount@CWnd@@UAEJPAJ@Z:PROC		; CWnd::get_accChildCount
EXTRN	?get_accChild@CWnd@@UAEJUtagVARIANT@@PAPAUIDispatch@@@Z:PROC ; CWnd::get_accChild
EXTRN	?get_accName@CWnd@@UAEJUtagVARIANT@@PAPA_W@Z:PROC ; CWnd::get_accName
EXTRN	?get_accValue@CWnd@@UAEJUtagVARIANT@@PAPA_W@Z:PROC ; CWnd::get_accValue
EXTRN	?get_accDescription@CWnd@@UAEJUtagVARIANT@@PAPA_W@Z:PROC ; CWnd::get_accDescription
EXTRN	?get_accRole@CWnd@@UAEJUtagVARIANT@@PAU2@@Z:PROC ; CWnd::get_accRole
EXTRN	?get_accState@CWnd@@UAEJUtagVARIANT@@PAU2@@Z:PROC ; CWnd::get_accState
EXTRN	?get_accHelp@CWnd@@UAEJUtagVARIANT@@PAPA_W@Z:PROC ; CWnd::get_accHelp
EXTRN	?get_accHelpTopic@CWnd@@UAEJPAPA_WUtagVARIANT@@PAJ@Z:PROC ; CWnd::get_accHelpTopic
EXTRN	?get_accKeyboardShortcut@CWnd@@UAEJUtagVARIANT@@PAPA_W@Z:PROC ; CWnd::get_accKeyboardShortcut
EXTRN	?get_accFocus@CWnd@@UAEJPAUtagVARIANT@@@Z:PROC	; CWnd::get_accFocus
EXTRN	?get_accSelection@CWnd@@UAEJPAUtagVARIANT@@@Z:PROC ; CWnd::get_accSelection
EXTRN	?get_accDefaultAction@CWnd@@UAEJUtagVARIANT@@PAPA_W@Z:PROC ; CWnd::get_accDefaultAction
EXTRN	?accSelect@CWnd@@UAEJJUtagVARIANT@@@Z:PROC	; CWnd::accSelect
EXTRN	?accLocation@CWnd@@UAEJPAJ000UtagVARIANT@@@Z:PROC ; CWnd::accLocation
EXTRN	?accNavigate@CWnd@@UAEJJUtagVARIANT@@PAU2@@Z:PROC ; CWnd::accNavigate
EXTRN	?accHitTest@CWnd@@UAEJJJPAUtagVARIANT@@@Z:PROC	; CWnd::accHitTest
EXTRN	?accDoDefaultAction@CWnd@@UAEJUtagVARIANT@@@Z:PROC ; CWnd::accDoDefaultAction
EXTRN	?put_accName@CWnd@@UAEJUtagVARIANT@@PA_W@Z:PROC	; CWnd::put_accName
EXTRN	?put_accValue@CWnd@@UAEJUtagVARIANT@@PA_W@Z:PROC ; CWnd::put_accValue
EXTRN	?SetProxy@CWnd@@UAEJPAUIAccessibleProxy@@@Z:PROC ; CWnd::SetProxy
EXTRN	?CreateAccessibleProxy@CWnd@@UAEJIJPAJ@Z:PROC	; CWnd::CreateAccessibleProxy
EXTRN	?OnCommand@CWnd@@MAEHIJ@Z:PROC			; CWnd::OnCommand
EXTRN	?OnNotify@CWnd@@MAEHIJPAJ@Z:PROC		; CWnd::OnNotify
EXTRN	?GetSuperWndProcAddr@CWnd@@MAEPAP6GJPAUHWND__@@IIJ@ZXZ:PROC ; CWnd::GetSuperWndProcAddr
EXTRN	?PreTranslateMessage@CWnd@@UAEHPAUtagMSG@@@Z:PROC ; CWnd::PreTranslateMessage
EXTRN	?OnAmbientProperty@CWnd@@UAEHPAVCOleControlSite@@JPAUtagVARIANT@@@Z:PROC ; CWnd::OnAmbientProperty
EXTRN	?WindowProc@CWnd@@MAEJIIJ@Z:PROC		; CWnd::WindowProc
EXTRN	?OnWndMsg@CWnd@@MAEHIIJPAJ@Z:PROC		; CWnd::OnWndMsg
EXTRN	?DefWindowProcA@CWnd@@MAEJIIJ@Z:PROC		; CWnd::DefWindowProcA
EXTRN	?PostNcDestroy@CWnd@@MAEXXZ:PROC		; CWnd::PostNcDestroy
EXTRN	?OnChildNotify@CWnd@@MAEHIIJPAJ@Z:PROC		; CWnd::OnChildNotify
EXTRN	?OnTouchInputs@CWnd@@MAEHIPAUtagTOUCHINPUT@@@Z:PROC ; CWnd::OnTouchInputs
EXTRN	?OnTouchInput@CWnd@@MAEHVCPoint@@HHPAUtagTOUCHINPUT@@@Z:PROC ; CWnd::OnTouchInput
EXTRN	?GetGestureStatus@CWnd@@MAEKVCPoint@@@Z:PROC	; CWnd::GetGestureStatus
EXTRN	?OnGestureZoom@CWnd@@MAEHVCPoint@@J@Z:PROC	; CWnd::OnGestureZoom
EXTRN	?OnGesturePan@CWnd@@MAEHVCPoint@@0@Z:PROC	; CWnd::OnGesturePan
EXTRN	?OnGestureRotate@CWnd@@MAEHVCPoint@@N@Z:PROC	; CWnd::OnGestureRotate
EXTRN	?OnGestureTwoFingerTap@CWnd@@MAEHVCPoint@@@Z:PROC ; CWnd::OnGestureTwoFingerTap
EXTRN	?OnGesturePressAndTap@CWnd@@MAEHVCPoint@@J@Z:PROC ; CWnd::OnGesturePressAndTap
EXTRN	?ResizeDynamicLayout@CWnd@@MAEXXZ:PROC		; CWnd::ResizeDynamicLayout
EXTRN	??1CWnd@@UAE@XZ:PROC				; CWnd::~CWnd
EXTRN	?CheckAutoCenter@CWnd@@UAEHXZ:PROC		; CWnd::CheckAutoCenter
EXTRN	?IsFrameWnd@CWnd@@UBEHXZ:PROC			; CWnd::IsFrameWnd
EXTRN	?OnFinalRelease@CWnd@@UAEXXZ:PROC		; CWnd::OnFinalRelease
EXTRN	?CreateControlContainer@CWnd@@MAEHPAPAVCOleControlContainer@@@Z:PROC ; CWnd::CreateControlContainer
EXTRN	?CreateControlSite@CWnd@@MAEHPAVCOleControlContainer@@PAPAVCOleControlSite@@IABU_GUID@@@Z:PROC ; CWnd::CreateControlSite
EXTRN	?SetOccDialogInfo@CWnd@@MAEHPAU_AFX_OCC_DIALOG_INFO@@@Z:PROC ; CWnd::SetOccDialogInfo
EXTRN	?GetOccDialogInfo@CWnd@@MAEPAU_AFX_OCC_DIALOG_INFO@@XZ:PROC ; CWnd::GetOccDialogInfo
EXTRN	?GetMessageMap@CWnd@@MBEPBUAFX_MSGMAP@@XZ:PROC	; CWnd::GetMessageMap
EXTRN	?AfxBeginThread@@YGPAVCWinThread@@P6AIPAX@Z0HIKPAU_SECURITY_ATTRIBUTES@@@Z:PROC ; AfxBeginThread
EXTRN	?AfxMessageBox@@YGHPBDII@Z:PROC			; AfxMessageBox
EXTRN	?AfxExtractSubString@@YGHAAV?$CStringT@DV?$StrTraitMFC_DLL@DV?$ChTraitsCRT@D@ATL@@@@@ATL@@PBDHD@Z:PROC ; AfxExtractSubString
EXTRN	?GetCommonDataInfo@@YAHPAUHWND__@@HH@Z:PROC	; GetCommonDataInfo
EXTRN	?GetTrCodeFromCode@@YA?AV?$CStringT@DV?$StrTraitMFC_DLL@DV?$ChTraitsCRT@D@ATL@@@@@ATL@@PAUHWND__@@V12@@Z:PROC ; GetTrCodeFromCode
EXTRN	?GetMarketQueryData_ChartItemData@CChartItemData@@QAE?AV?$CStringT@DV?$StrTraitMFC_DLL@DV?$ChTraitsCRT@D@ATL@@@@@ATL@@HI@Z:PROC ; CChartItemData::GetMarketQueryData_ChartItemData
EXTRN	?SetPacketDataInAdditionPacket@CChartItemData@@QAEHH@Z:PROC ; CChartItemData::SetPacketDataInAdditionPacket
EXTRN	??0CChartItemData@@QAE@PAVCChartItem@@V?$CStringT@DV?$StrTraitMFC_DLL@DV?$ChTraitsCRT@D@ATL@@@@@ATL@@@Z:PROC ; CChartItemData::CChartItemData
EXTRN	?Init@CChartItemData@@QAEXPAVCChartItem@@V?$CStringT@DV?$StrTraitMFC_DLL@DV?$ChTraitsCRT@D@ATL@@@@@ATL@@@Z:PROC ; CChartItemData::Init
EXTRN	?SetCodeForQuery@CChartItemData@@QAEXPBDH@Z:PROC ; CChartItemData::SetCodeForQuery
EXTRN	?GetQueryData@CChartItemData@@QAE?AV?$CStringT@DV?$StrTraitMFC_DLL@DV?$ChTraitsCRT@D@ATL@@@@@ATL@@HPAU_ST_SELCHART@@@Z:PROC ; CChartItemData::GetQueryData
EXTRN	?MakeChartData@CChartItemData@@QAEHPAXJPAU_ST_SELCHART@@@Z:PROC ; CChartItemData::MakeChartData
EXTRN	?GetTrCode@CChartItemData@@QAE?AV?$CStringT@DV?$StrTraitMFC_DLL@DV?$ChTraitsCRT@D@ATL@@@@@ATL@@XZ:PROC ; CChartItemData::GetTrCode
EXTRN	?SetTRCode@CChartItemData@@QAEXPBD@Z:PROC	; CChartItemData::SetTRCode
EXTRN	?AddPacketAndGraph@CChartItemData@@QAEHH@Z:PROC	; CChartItemData::AddPacketAndGraph
EXTRN	?AddPacketAndGraph2@CChartItemData@@QAEHHH@Z:PROC ; CChartItemData::AddPacketAndGraph2
EXTRN	?AddLoadedPacket@CChartItemData@@QAEHPBDPAU_ST_SELCHART@@@Z:PROC ; CChartItemData::AddLoadedPacket
EXTRN	?RemoveRealItem@CChartItemData@@QAEXXZ:PROC	; CChartItemData::RemoveRealItem
EXTRN	?AddRealItem@CChartItemData@@QAEXXZ:PROC	; CChartItemData::AddRealItem
EXTRN	?SetPacketData@CChartItemData@@QAEHH@Z:PROC	; CChartItemData::SetPacketData
EXTRN	?SetLoadedPacketData@CChartItemData@@QAEHPBDPAU_ST_SELCHART@@@Z:PROC ; CChartItemData::SetLoadedPacketData
EXTRN	?IsFilled@CChartItemData@@QAEHXZ:PROC		; CChartItemData::IsFilled
EXTRN	?ClearData@CChartItemData@@QAEXXZ:PROC		; CChartItemData::ClearData
EXTRN	?GetChartItemDataTitle@CChartItemData@@QAE?AV?$CStringT@DV?$StrTraitMFC_DLL@DV?$ChTraitsCRT@D@ATL@@@@@ATL@@J@Z:PROC ; CChartItemData::GetChartItemDataTitle
EXTRN	?SetChartNumericValue@CChartItemData@@QAEXH@Z:PROC ; CChartItemData::SetChartNumericValue
EXTRN	?GetEndDate@CChartItemData@@QAE?AV?$CStringT@DV?$StrTraitMFC_DLL@DV?$ChTraitsCRT@D@ATL@@@@@ATL@@XZ:PROC ; CChartItemData::GetEndDate
EXTRN	?OnSelectChartItem@CChartItemData@@QAEXPAU_ST_SELCHART@@@Z:PROC ; CChartItemData::OnSelectChartItem
EXTRN	?GetThisClass@CDRChartOcx@@SGPAUCRuntimeClass@@XZ:PROC ; CDRChartOcx::GetThisClass
EXTRN	?GetRuntimeClass@CDRChartOcx@@UBEPAUCRuntimeClass@@XZ:PROC ; CDRChartOcx::GetRuntimeClass
EXTRN	?SetBNormalizedMinuteTimeRule@CDRChartOcx@@QAEXH@Z:PROC ; CDRChartOcx::SetBNormalizedMinuteTimeRule
EXTRN	?SetBWholeView@CDRChartOcx@@QAEXH@Z:PROC	; CDRChartOcx::SetBWholeView
EXTRN	?GetNOnePageDataCount@CDRChartOcx@@QAEJXZ:PROC	; CDRChartOcx::GetNOnePageDataCount
EXTRN	?SetNOnePageDataCount@CDRChartOcx@@QAEXJ@Z:PROC	; CDRChartOcx::SetNOnePageDataCount
EXTRN	?SetStrUserEnvironmentFileName@CDRChartOcx@@QAEXPBD@Z:PROC ; CDRChartOcx::SetStrUserEnvironmentFileName
EXTRN	?SetStrUserIndicatorListFileName@CDRChartOcx@@QAEXPBD@Z:PROC ; CDRChartOcx::SetStrUserIndicatorListFileName
EXTRN	?GetNHoldingPacketSize@CDRChartOcx@@QAEFXZ:PROC	; CDRChartOcx::GetNHoldingPacketSize
EXTRN	?SetNHoldingPacketSize@CDRChartOcx@@QAEXF@Z:PROC ; CDRChartOcx::SetNHoldingPacketSize
EXTRN	?SetBShowPriceRateInquiry@CDRChartOcx@@QAEXH@Z:PROC ; CDRChartOcx::SetBShowPriceRateInquiry
EXTRN	?GetOnRunningOneChart@CDRChartOcx@@QAEHXZ:PROC	; CDRChartOcx::GetOnRunningOneChart
EXTRN	?SetAllProperties2@CDRChartOcx@@QAEHJ@Z:PROC	; CDRChartOcx::SetAllProperties2
EXTRN	?SetBaseDesk@CDRChartOcx@@QAEXJ@Z:PROC		; CDRChartOcx::SetBaseDesk
EXTRN	?AddChartBlock@CDRChartOcx@@QAEHPBD@Z:PROC	; CDRChartOcx::AddChartBlock
EXTRN	?SetOnePageDataCount@CDRChartOcx@@QAEXJ@Z:PROC	; CDRChartOcx::SetOnePageDataCount
EXTRN	?SaveandOpenFromFile@CDRChartOcx@@QAEHPBD0HH@Z:PROC ; CDRChartOcx::SaveandOpenFromFile
EXTRN	?RemoveChart@CDRChartOcx@@QAEHPBD@Z:PROC	; CDRChartOcx::RemoveChart
EXTRN	?SetDrdsAdvise@CDRChartOcx@@QAEHH@Z:PROC	; CDRChartOcx::SetDrdsAdvise
EXTRN	?ChangeHorzScalePosition@CDRChartOcx@@QAEHFFF@Z:PROC ; CDRChartOcx::ChangeHorzScalePosition
EXTRN	?ResetChart@CDRChartOcx@@QAEHXZ:PROC		; CDRChartOcx::ResetChart
EXTRN	?AddGraph@CDRChartOcx@@QAEXFFFPBDHHH@Z:PROC	; CDRChartOcx::AddGraph
EXTRN	?RemovePacket@CDRChartOcx@@QAEJPBD@Z:PROC	; CDRChartOcx::RemovePacket
EXTRN	?SetContainerDllInfo@CDRChartOcx@@QAEXJF@Z:PROC	; CDRChartOcx::SetContainerDllInfo
EXTRN	?SetPacketData@CDRChartOcx@@QAEHPBDJJH@Z:PROC	; CDRChartOcx::SetPacketData
EXTRN	?ResetChartCfgWith@CDRChartOcx@@QAEXF@Z:PROC	; CDRChartOcx::ResetChartCfgWith
EXTRN	?HasGraph@CDRChartOcx@@QAEHPBD@Z:PROC		; CDRChartOcx::HasGraph
EXTRN	?ShowInnerToolBar@CDRChartOcx@@QAEXH@Z:PROC	; CDRChartOcx::ShowInnerToolBar
EXTRN	?ChangeVertScalePosition@CDRChartOcx@@QAEHFFFF@Z:PROC ; CDRChartOcx::ChangeVertScalePosition
EXTRN	?GetRowBlockCount@CDRChartOcx@@QAEFXZ:PROC	; CDRChartOcx::GetRowBlockCount
EXTRN	?SetTimeMark@CDRChartOcx@@QAEXPBDH@Z:PROC	; CDRChartOcx::SetTimeMark
EXTRN	?EnableBoundMark@CDRChartOcx@@QAEXH@Z:PROC	; CDRChartOcx::EnableBoundMark
EXTRN	?EnableReceivingTimeShare@CDRChartOcx@@QAEXH@Z:PROC ; CDRChartOcx::EnableReceivingTimeShare
EXTRN	?HasGraphInSpecialBack@CDRChartOcx@@QAEHPBD@Z:PROC ; CDRChartOcx::HasGraphInSpecialBack
EXTRN	?LoadAddIn@CDRChartOcx@@QAEHPBD@Z:PROC		; CDRChartOcx::LoadAddIn
EXTRN	?InvokeAddIn@CDRChartOcx@@QAEHPBDFJ@Z:PROC	; CDRChartOcx::InvokeAddIn
EXTRN	?SetHtsPath@CDRChartOcx@@QAEXPBD@Z:PROC		; CDRChartOcx::SetHtsPath
EXTRN	?SetOutsideCommonInterface@CDRChartOcx@@QAEXJ@Z:PROC ; CDRChartOcx::SetOutsideCommonInterface
EXTRN	?GetLogScale@CDRChartOcx@@QAEHPBD@Z:PROC	; CDRChartOcx::GetLogScale
EXTRN	?InvokeAddInStr@CDRChartOcx@@QAEHPBD00@Z:PROC	; CDRChartOcx::InvokeAddInStr
EXTRN	?SetHelpMessageRealDataRate@CDRChartOcx@@QAEHPBDH@Z:PROC ; CDRChartOcx::SetHelpMessageRealDataRate
EXTRN	?RemoveGraph@CDRChartOcx@@QAEHFFPBD@Z:PROC	; CDRChartOcx::RemoveGraph
EXTRN	?PrintChatImage@CDRChartOcx@@QAEXXZ:PROC	; CDRChartOcx::PrintChatImage
EXTRN	?ExportToExcel@CDRChartOcx@@QAEXXZ:PROC		; CDRChartOcx::ExportToExcel
EXTRN	?GetAddInCustomInterface@CDRChartOcx@@QAEPAUIUnknown@@PBD@Z:PROC ; CDRChartOcx::GetAddInCustomInterface
EXTRN	?LoadAddInWithOverExclusive@CDRChartOcx@@QAEHPBD@Z:PROC ; CDRChartOcx::LoadAddInWithOverExclusive
EXTRN	?EmptyChart2@CDRChartOcx@@QAEHPBDHH@Z:PROC	; CDRChartOcx::EmptyChart2
EXTRN	?AddChartItem@CDRChartOcx@@QAE?AV?$CStringT@DV?$StrTraitMFC_DLL@DV?$ChTraitsCRT@D@ATL@@@@@ATL@@PBD0H@Z:PROC ; CDRChartOcx::AddChartItem
EXTRN	?AddChartItemRQ@CDRChartOcx@@QAEHPBD00@Z:PROC	; CDRChartOcx::AddChartItemRQ
EXTRN	?SetCurrentRQ@CDRChartOcx@@QAEXPBD@Z:PROC	; CDRChartOcx::SetCurrentRQ
EXTRN	?SetResetTotalCountWhileDraw@CDRChartOcx@@QAEXH@Z:PROC ; CDRChartOcx::SetResetTotalCountWhileDraw
EXTRN	?SetMultiItemMode@CDRChartOcx@@QAEXH@Z:PROC	; CDRChartOcx::SetMultiItemMode
EXTRN	?SaveandOpenFromAnalToolFile@CDRChartOcx@@QAEHPBD0HH@Z:PROC ; CDRChartOcx::SaveandOpenFromAnalToolFile
EXTRN	?ShowGraphDataDrawingData@CDRChartOcx@@QAEHPBD0HF@Z:PROC ; CDRChartOcx::ShowGraphDataDrawingData
EXTRN	?FindRQ@CDRChartOcx@@QAEHPBD@Z:PROC		; CDRChartOcx::FindRQ
EXTRN	??_ECDRChartOcx@@UAEPAXI@Z:PROC			; CDRChartOcx::`vector deleting destructor'
EXTRN	??0CILButton@@QAE@XZ:PROC			; CILButton::CILButton
EXTRN	?FP_vSetImage@CILButton@@QAEXPAVCImageList@@HHHV?$CStringT@DV?$StrTraitMFC_DLL@DV?$ChTraitsCRT@D@ATL@@@@@ATL@@HHH@Z:PROC ; CILButton::FP_vSetImage
EXTRN	?FP_vSetToolTipText@CILButton@@QAEXV?$CStringT@DV?$StrTraitMFC_DLL@DV?$ChTraitsCRT@D@ATL@@@@@ATL@@@Z:PROC ; CILButton::FP_vSetToolTipText
EXTRN	??1CILButton@@UAE@XZ:PROC			; CILButton::~CILButton
EXTRN	??_E?$CArray@PAVCChartItemData@@PAV1@@@UAEPAXI@Z:PROC ; CArray<CChartItemData *,CChartItemData *>::`vector deleting destructor'
EXTRN	??_ECChartItem@@UAEPAXI@Z:PROC			; CChartItem::`vector deleting destructor'
EXTRN	?GetpChartCfgWnd@CChartMng@@QAEPAVCChartItem@@D@Z:PROC ; CChartMng::GetpChartCfgWnd
EXTRN	?SetpChartCfgWnd@CChartMng@@QAEXDPAVCWnd@@@Z:PROC ; CChartMng::SetpChartCfgWnd
EXTRN	?GetRectOfChart@CChartMng@@QAE?AVCRect@@HHH@Z:PROC ; CChartMng::GetRectOfChart
EXTRN	?SendInitChartData@CChartMng@@QAEXHH@Z:PROC	; CChartMng::SendInitChartData
EXTRN	?MoveCharts@CChartMng@@QAEXHH@Z:PROC		; CChartMng::MoveCharts
EXTRN	?OnChartMngCodeAdvise@CChartMng@@QAEXPAVCChartItem@@H@Z:PROC ; CChartMng::OnChartMngCodeAdvise
EXTRN	?OnChartMngCodeUnAdvise@CChartMng@@QAEXPAVCChartItem@@H@Z:PROC ; CChartMng::OnChartMngCodeUnAdvise
EXTRN	?UnhighlightJCode@CChartMng@@QAEXPAVCChartItem@@@Z:PROC ; CChartMng::UnhighlightJCode
EXTRN	?SetEndData@CChartMng@@QAEXPBD@Z:PROC		; CChartMng::SetEndData
EXTRN	?RequestChartData@CChartMng@@QAEHH@Z:PROC	; CChartMng::RequestChartData
EXTRN	?GetSaveAnalTool@CChartMng@@QAEHXZ:PROC		; CChartMng::GetSaveAnalTool
EXTRN	?GetJongmokLink@CChartMng@@QAEHXZ:PROC		; CChartMng::GetJongmokLink
EXTRN	?UpdateSyncIndicator@CChartMng@@QAEXXZ:PROC	; CChartMng::UpdateSyncIndicator
EXTRN	?ChartItemUnAdvise@CChartMng@@QAEXPAVCChartItem@@H@Z:PROC ; CChartMng::ChartItemUnAdvise
EXTRN	?GetMarketTypeFromCode@CStdDialog@@QAEHV?$CStringT@DV?$StrTraitMFC_DLL@DV?$ChTraitsCRT@D@ATL@@@@@ATL@@AAH@Z:PROC ; CStdDialog::GetMarketTypeFromCode
EXTRN	?LoadSaveSystemTrading@CStdDialog@@QAEXAAV?$CStringT@DV?$StrTraitMFC_DLL@DV?$ChTraitsCRT@D@ATL@@@@@ATL@@HHH@Z:PROC ; CStdDialog::LoadSaveSystemTrading
EXTRN	?OnSelectChartItem@CStdDialog@@QAEXPAU_ST_SELCHART@@@Z:PROC ; CStdDialog::OnSelectChartItem
EXTRN	?EnableRequestMoreButton@CStdDialog@@QAEXH@Z:PROC ; CStdDialog::EnableRequestMoreButton
EXTRN	?GetFileSaveKey@CStdDialog@@QAEXAAV?$CStringT@DV?$StrTraitMFC_DLL@DV?$ChTraitsCRT@D@ATL@@@@@ATL@@@Z:PROC ; CStdDialog::GetFileSaveKey
EXTRN	?GetItemNameFromItemCode@CStdDialog@@QAE?AV?$CStringT@DV?$StrTraitMFC_DLL@DV?$ChTraitsCRT@D@ATL@@@@@ATL@@V23@H@Z:PROC ; CStdDialog::GetItemNameFromItemCode
EXTRN	?GetBizDate@CStdDialog@@QAE?AV?$CStringT@DV?$StrTraitMFC_DLL@DV?$ChTraitsCRT@D@ATL@@@@@ATL@@XZ:PROC ; CStdDialog::GetBizDate
EXTRN	?ShareInitCode@CStdDialog@@QAEXXZ:PROC		; CStdDialog::ShareInitCode
EXTRN	?IsContinueFutCode@CStdDialog@@QAEHAAV?$CStringT@DV?$StrTraitMFC_DLL@DV?$ChTraitsCRT@D@ATL@@@@@ATL@@@Z:PROC ; CStdDialog::IsContinueFutCode
EXTRN	?HasKey@CStdDialog@@QAEHV?$CStringT@DV?$StrTraitMFC_DLL@DV?$ChTraitsCRT@D@ATL@@@@@ATL@@@Z:PROC ; CStdDialog::HasKey
EXTRN	?GetFirstCode@CStdDialog@@QAEHAAV?$CStringT@DV?$StrTraitMFC_DLL@DV?$ChTraitsCRT@D@ATL@@@@@ATL@@HAAH@Z:PROC ; CStdDialog::GetFirstCode
EXTRN	?IsChartScreen@CStdDialog@@QAEHPBD@Z:PROC	; CStdDialog::IsChartScreen
EXTRN	?GetOldFututureCodeName@CStdDialog@@QAEHPBDAAV?$CStringT@DV?$StrTraitMFC_DLL@DV?$ChTraitsCRT@D@ATL@@@@@ATL@@@Z:PROC ; CStdDialog::GetOldFututureCodeName
EXTRN	?DoGetWorkDate@CStdDialog@@QAEPBDH@Z:PROC	; CStdDialog::DoGetWorkDate
EXTRN	?IsAvailableBlockCount@CStdDialog@@QAEHHAAH@Z:PROC ; CStdDialog::IsAvailableBlockCount
EXTRN	?SetComma@@YA?AV?$CStringT@DV?$StrTraitMFC_DLL@DV?$ChTraitsCRT@D@ATL@@@@@ATL@@V12@H@Z:PROC ; SetComma
EXTRN	@__security_check_cookie@4:PROC
EXTRN	___CxxFrameHandler3:PROC
EXTRN	__alloca_probe_16:PROC
EXTRN	_memcpy:PROC
EXTRN	_memmove:PROC
EXTRN	_memset:PROC
EXTRN	??_7type_info@@6B@:QWORD			; type_info::`vftable'
EXTRN	__imp_?wndBottom@CWnd@@2V1@B:BYTE
EXTRN	?g_pPtUtilMng@@3PAUIPartnerUtilManager@@A:DWORD	; g_pPtUtilMng
EXTRN	?m_nStatic_RecvCntShareCode@CChartMng@@2HA:DWORD ; CChartMng::m_nStatic_RecvCntShareCode
EXTRN	?m_strStatic_ShareCode@CChartMng@@2V?$CStringT@DV?$StrTraitMFC_DLL@DV?$ChTraitsCRT@D@ATL@@@@@ATL@@A:DWORD ; CChartMng::m_strStatic_ShareCode
EXTRN	?m_strCodeForMulti@CChartMng@@2V?$CStringT@DV?$StrTraitMFC_DLL@DV?$ChTraitsCRT@D@ATL@@@@@ATL@@A:DWORD ; CChartMng::m_strCodeForMulti
EXTRN	?m_ImgList_W15H15@CStdDialog@@2VCImageList@@A:QWORD ; CStdDialog::m_ImgList_W15H15
EXTRN	___security_cookie:DWORD
EXTRN	__fltused:DWORD
;	COMDAT ?_OptionsStorage@?1??__local_stdio_printf_options@@9@4_KA
_BSS	SEGMENT
?_OptionsStorage@?1??__local_stdio_printf_options@@9@4_KA DQ 01H DUP (?) ; `__local_stdio_printf_options'::`2'::_OptionsStorage
_BSS	ENDS
;	COMDAT ?_OptionsStorage@?1??__local_stdio_scanf_options@@9@4_KA
_BSS	SEGMENT
?_OptionsStorage@?1??__local_stdio_scanf_options@@9@4_KA DQ 01H DUP (?) ; `__local_stdio_scanf_options'::`2'::_OptionsStorage
_BSS	ENDS
_BSS	SEGMENT
?RMSG_INTERFACE@@3IB DD 01H DUP (?)			; RMSG_INTERFACE
?RMSG_GETPCTRDATA@@3IB DD 01H DUP (?)			; RMSG_GETPCTRDATA
?RMSG_GETSIGNAL_REAL@@3IB DD 01H DUP (?)		; RMSG_GETSIGNAL_REAL
?RMSG_SETQUERYOPT@@3IB DD 01H DUP (?)			; RMSG_SETQUERYOPT
?RMSG_CHARTMAIN@@3IB DD 01H DUP (?)			; RMSG_CHARTMAIN
?RMS_ANALYSIS_FUNC@@3IB DD 01H DUP (?)			; RMS_ANALYSIS_FUNC
?RMSG_GET_USERID@@3IB DD 01H DUP (?)			; RMSG_GET_USERID
?RMSG_CHANGE_SKINCOLOR@@3IB DD 01H DUP (?)		; RMSG_CHANGE_SKINCOLOR
?RMSG_GET_SKINCOLOR@@3IB DD 01H DUP (?)			; RMSG_GET_SKINCOLOR
?RMSG_CHANGEVERTSCALETYPE@@3IB DD 01H DUP (?)		; RMSG_CHANGEVERTSCALETYPE
?RMSG_CHANGE_CROSSLINE@@3IB DD 01H DUP (?)		; RMSG_CHANGE_CROSSLINE
?RMSG_ADD_PLATFORM_MENU@@3IB DD 01H DUP (?)		; RMSG_ADD_PLATFORM_MENU
?RMSG_SETINITIALCHARTDATA@@3IB DD 01H DUP (?)		; RMSG_SETINITIALCHARTDATA
?RMSG_GETINFO@@3IB DD 01H DUP (?)			; RMSG_GETINFO
?RMSG_SETINFO@@3IB DD 01H DUP (?)			; RMSG_SETINFO
?RMSG_REPLAY_REAL@@3IB DD 01H DUP (?)			; RMSG_REPLAY_REAL
?RMSG_REPLAY_FAIL@@3IB DD 01H DUP (?)			; RMSG_REPLAY_FAIL
?RMSG_REPLAY_CHANGE_DATE@@3IB DD 01H DUP (?)		; RMSG_REPLAY_CHANGE_DATE
?RMSG_REPLAY_END@@3IB DD 01H DUP (?)			; RMSG_REPLAY_END
?RMSG_REPLAY_INC_SEC@@3IB DD 01H DUP (?)		; RMSG_REPLAY_INC_SEC
?RMSG_REPLAY_TOTAL_SEC@@3IB DD 01H DUP (?)		; RMSG_REPLAY_TOTAL_SEC
?RMSG_FROMCODELIST@@3IB DD 01H DUP (?)			; RMSG_FROMCODELIST
?RMSG_SETSHAREDATA@@3IB DD 01H DUP (?)			; RMSG_SETSHAREDATA
?RMSG_OPENMAP2@@3IB DD 01H DUP (?)			; RMSG_OPENMAP2
?RMSG_FROMHOGAJUMUN_DESTROY@@3IB DD 01H DUP (?)		; RMSG_FROMHOGAJUMUN_DESTROY
?RMSG_HOGACHANGEDATA_CODE@@3IB DD 01H DUP (?)		; RMSG_HOGACHANGEDATA_CODE
?RMSG_HOGACHANGEDATA_ACCT@@3IB DD 01H DUP (?)		; RMSG_HOGACHANGEDATA_ACCT
?RMSG_SHARED_PIN@@3IB DD 01H DUP (?)			; RMSG_SHARED_PIN
?RMSG_RESIZEFROMGWAN@@3IB DD 01H DUP (?)		; RMSG_RESIZEFROMGWAN
?RMSG_MESSAGESHOW@@3IB DD 01H DUP (?)			; RMSG_MESSAGESHOW
?RMSG_GETSKINVALUE@@3IB DD 01H DUP (?)			; RMSG_GETSKINVALUE
_BSS	ENDS
;	COMDAT CRT$XCU
CRT$XCU	SEGMENT
?_AtlWinModule$initializer$@ATL@@3P6AXXZA DD FLAT:??__E_AtlWinModule@ATL@@YAXXZ ; ATL::_AtlWinModule$initializer$
CRT$XCU	ENDS
;	COMDAT __xmm@80000000000000008000000000000000
CONST	SEGMENT
__xmm@80000000000000008000000000000000 DB 00H, 00H, 00H, 00H, 00H, 00H, 00H
	DB	080H, 00H, 00H, 00H, 00H, 00H, 00H, 00H, 080H
CONST	ENDS
;	COMDAT __xmm@20202020202020202020202020202020
CONST	SEGMENT
__xmm@20202020202020202020202020202020 DB '                '
CONST	ENDS
;	COMDAT __real@412e848000000000
CONST	SEGMENT
__real@412e848000000000 DQ 0412e848000000000r	; 1e+06
CONST	ENDS
;	COMDAT __real@4059000000000000
CONST	SEGMENT
__real@4059000000000000 DQ 04059000000000000r	; 100
CONST	ENDS
;	COMDAT __real@3ff0000000000000
CONST	SEGMENT
__real@3ff0000000000000 DQ 03ff0000000000000r	; 1
CONST	ENDS
;	COMDAT __real@3fb999999999999a
CONST	SEGMENT
__real@3fb999999999999a DQ 03fb999999999999ar	; 0.1
CONST	ENDS
;	COMDAT __real@3f847ae147ae147b
CONST	SEGMENT
__real@3f847ae147ae147b DQ 03f847ae147ae147br	; 0.01
CONST	ENDS
;	COMDAT __real@3f50624dd2f1a9fc
CONST	SEGMENT
__real@3f50624dd2f1a9fc DQ 03f50624dd2f1a9fcr	; 0.001
CONST	ENDS
;	COMDAT __real@3f1a36e2eb1c432d
CONST	SEGMENT
__real@3f1a36e2eb1c432d DQ 03f1a36e2eb1c432dr	; 0.0001
CONST	ENDS
;	COMDAT ??_R1A@?0A@EA@CXIBaseDesk@CChartItem@@8
rdata$r	SEGMENT
??_R1A@?0A@EA@CXIBaseDesk@CChartItem@@8 DD FLAT:??_R0?AVCXIBaseDesk@CChartItem@@@8 ; CChartItem::CXIBaseDesk::`RTTI Base Class Descriptor at (0,-1,0,64)'
	DD	02H
	DD	00H
	DD	0ffffffffH
	DD	00H
	DD	040H
	DD	FLAT:??_R3CXIBaseDesk@CChartItem@@8
rdata$r	ENDS
;	COMDAT ??_R2CXIBaseDesk@CChartItem@@8
rdata$r	SEGMENT
??_R2CXIBaseDesk@CChartItem@@8 DD FLAT:??_R1A@?0A@EA@CXIBaseDesk@CChartItem@@8 ; CChartItem::CXIBaseDesk::`RTTI Base Class Array'
	DD	FLAT:??_R1A@?0A@EA@CBaseDesk2@@8
	DD	FLAT:??_R1A@?0A@EA@CBaseDesk@@8
rdata$r	ENDS
;	COMDAT ??_R3CXIBaseDesk@CChartItem@@8
rdata$r	SEGMENT
??_R3CXIBaseDesk@CChartItem@@8 DD 00H			; CChartItem::CXIBaseDesk::`RTTI Class Hierarchy Descriptor'
	DD	00H
	DD	03H
	DD	FLAT:??_R2CXIBaseDesk@CChartItem@@8
rdata$r	ENDS
;	COMDAT ??_R0?AVCXIBaseDesk@CChartItem@@@8
data$rs	SEGMENT
??_R0?AVCXIBaseDesk@CChartItem@@@8 DD FLAT:??_7type_info@@6B@ ; CChartItem::CXIBaseDesk `RTTI Type Descriptor'
	DD	00H
	DB	'.?AVCXIBaseDesk@CChartItem@@', 00H
data$rs	ENDS
;	COMDAT ??_R4CXIBaseDesk@CChartItem@@6B@
rdata$r	SEGMENT
??_R4CXIBaseDesk@CChartItem@@6B@ DD 00H			; CChartItem::CXIBaseDesk::`RTTI Complete Object Locator'
	DD	00H
	DD	00H
	DD	FLAT:??_R0?AVCXIBaseDesk@CChartItem@@@8
	DD	FLAT:??_R3CXIBaseDesk@CChartItem@@8
rdata$r	ENDS
;	COMDAT ??_R1A@?0A@EA@?$CArray@PAVCChartItemData@@PAV1@@@8
rdata$r	SEGMENT
??_R1A@?0A@EA@?$CArray@PAVCChartItemData@@PAV1@@@8 DD FLAT:??_R0?AV?$CArray@PAVCChartItemData@@PAV1@@@@8 ; CArray<CChartItemData *,CChartItemData *>::`RTTI Base Class Descriptor at (0,-1,0,64)'
	DD	01H
	DD	00H
	DD	0ffffffffH
	DD	00H
	DD	040H
	DD	FLAT:??_R3?$CArray@PAVCChartItemData@@PAV1@@@8
rdata$r	ENDS
;	COMDAT ??_R2?$CArray@PAVCChartItemData@@PAV1@@@8
rdata$r	SEGMENT
??_R2?$CArray@PAVCChartItemData@@PAV1@@@8 DD FLAT:??_R1A@?0A@EA@?$CArray@PAVCChartItemData@@PAV1@@@8 ; CArray<CChartItemData *,CChartItemData *>::`RTTI Base Class Array'
	DD	FLAT:??_R1A@?0A@EA@CObject@@8
rdata$r	ENDS
;	COMDAT ??_R3?$CArray@PAVCChartItemData@@PAV1@@@8
rdata$r	SEGMENT
??_R3?$CArray@PAVCChartItemData@@PAV1@@@8 DD 00H	; CArray<CChartItemData *,CChartItemData *>::`RTTI Class Hierarchy Descriptor'
	DD	00H
	DD	02H
	DD	FLAT:??_R2?$CArray@PAVCChartItemData@@PAV1@@@8
rdata$r	ENDS
;	COMDAT ??_R0?AV?$CArray@PAVCChartItemData@@PAV1@@@@8
data$rs	SEGMENT
??_R0?AV?$CArray@PAVCChartItemData@@PAV1@@@@8 DD FLAT:??_7type_info@@6B@ ; CArray<CChartItemData *,CChartItemData *> `RTTI Type Descriptor'
	DD	00H
	DB	'.?AV?$CArray@PAVCChartItemData@@PAV1@@@', 00H
data$rs	ENDS
;	COMDAT ??_R4?$CArray@PAVCChartItemData@@PAV1@@@6B@
rdata$r	SEGMENT
??_R4?$CArray@PAVCChartItemData@@PAV1@@@6B@ DD 00H	; CArray<CChartItemData *,CChartItemData *>::`RTTI Complete Object Locator'
	DD	00H
	DD	00H
	DD	FLAT:??_R0?AV?$CArray@PAVCChartItemData@@PAV1@@@@8
	DD	FLAT:??_R3?$CArray@PAVCChartItemData@@PAV1@@@8
rdata$r	ENDS
;	COMDAT ??_R4CDRChartOcx@@6B@
rdata$r	SEGMENT
??_R4CDRChartOcx@@6B@ DD 00H				; CDRChartOcx::`RTTI Complete Object Locator'
	DD	00H
	DD	00H
	DD	FLAT:??_R0?AVCDRChartOcx@@@8
	DD	FLAT:??_R3CDRChartOcx@@8
rdata$r	ENDS
;	COMDAT ??_R2CDRChartOcx@@8
rdata$r	SEGMENT
??_R2CDRChartOcx@@8 DD FLAT:??_R1A@?0A@EA@CDRChartOcx@@8 ; CDRChartOcx::`RTTI Base Class Array'
	DD	FLAT:??_R1A@?0A@EA@CWnd@@8
	DD	FLAT:??_R1A@?0A@EA@CCmdTarget@@8
	DD	FLAT:??_R1A@?0A@EA@CObject@@8
rdata$r	ENDS
;	COMDAT ??_R3CDRChartOcx@@8
rdata$r	SEGMENT
??_R3CDRChartOcx@@8 DD 00H				; CDRChartOcx::`RTTI Class Hierarchy Descriptor'
	DD	00H
	DD	04H
	DD	FLAT:??_R2CDRChartOcx@@8
rdata$r	ENDS
;	COMDAT ??_R0?AVCDRChartOcx@@@8
data$rs	SEGMENT
??_R0?AVCDRChartOcx@@@8 DD FLAT:??_7type_info@@6B@	; CDRChartOcx `RTTI Type Descriptor'
	DD	00H
	DB	'.?AVCDRChartOcx@@', 00H
data$rs	ENDS
;	COMDAT ??_R1A@?0A@EA@CDRChartOcx@@8
rdata$r	SEGMENT
??_R1A@?0A@EA@CDRChartOcx@@8 DD FLAT:??_R0?AVCDRChartOcx@@@8 ; CDRChartOcx::`RTTI Base Class Descriptor at (0,-1,0,64)'
	DD	03H
	DD	00H
	DD	0ffffffffH
	DD	00H
	DD	040H
	DD	FLAT:??_R3CDRChartOcx@@8
rdata$r	ENDS
;	COMDAT ??_R1A@?0A@EA@CChartItem@@8
rdata$r	SEGMENT
??_R1A@?0A@EA@CChartItem@@8 DD FLAT:??_R0?AVCChartItem@@@8 ; CChartItem::`RTTI Base Class Descriptor at (0,-1,0,64)'
	DD	04H
	DD	00H
	DD	0ffffffffH
	DD	00H
	DD	040H
	DD	FLAT:??_R3CChartItem@@8
rdata$r	ENDS
;	COMDAT ??_R2CChartItem@@8
rdata$r	SEGMENT
??_R2CChartItem@@8 DD FLAT:??_R1A@?0A@EA@CChartItem@@8	; CChartItem::`RTTI Base Class Array'
	DD	FLAT:??_R1A@?0A@EA@CDRChartOcx@@8
	DD	FLAT:??_R1A@?0A@EA@CWnd@@8
	DD	FLAT:??_R1A@?0A@EA@CCmdTarget@@8
	DD	FLAT:??_R1A@?0A@EA@CObject@@8
rdata$r	ENDS
;	COMDAT ??_R3CChartItem@@8
rdata$r	SEGMENT
??_R3CChartItem@@8 DD 00H				; CChartItem::`RTTI Class Hierarchy Descriptor'
	DD	00H
	DD	05H
	DD	FLAT:??_R2CChartItem@@8
rdata$r	ENDS
;	COMDAT ??_R0?AVCChartItem@@@8
data$rs	SEGMENT
??_R0?AVCChartItem@@@8 DD FLAT:??_7type_info@@6B@	; CChartItem `RTTI Type Descriptor'
	DD	00H
	DB	'.?AVCChartItem@@', 00H
data$rs	ENDS
;	COMDAT ??_R4CChartItem@@6B@
rdata$r	SEGMENT
??_R4CChartItem@@6B@ DD 00H				; CChartItem::`RTTI Complete Object Locator'
	DD	00H
	DD	00H
	DD	FLAT:??_R0?AVCChartItem@@@8
	DD	FLAT:??_R3CChartItem@@8
rdata$r	ENDS
;	COMDAT ??_R1A@?0A@EA@CBaseDesk2@@8
rdata$r	SEGMENT
??_R1A@?0A@EA@CBaseDesk2@@8 DD FLAT:??_R0?AVCBaseDesk2@@@8 ; CBaseDesk2::`RTTI Base Class Descriptor at (0,-1,0,64)'
	DD	01H
	DD	00H
	DD	0ffffffffH
	DD	00H
	DD	040H
	DD	FLAT:??_R3CBaseDesk2@@8
rdata$r	ENDS
;	COMDAT ??_R2CBaseDesk2@@8
rdata$r	SEGMENT
??_R2CBaseDesk2@@8 DD FLAT:??_R1A@?0A@EA@CBaseDesk2@@8	; CBaseDesk2::`RTTI Base Class Array'
	DD	FLAT:??_R1A@?0A@EA@CBaseDesk@@8
rdata$r	ENDS
;	COMDAT ??_R3CBaseDesk2@@8
rdata$r	SEGMENT
??_R3CBaseDesk2@@8 DD 00H				; CBaseDesk2::`RTTI Class Hierarchy Descriptor'
	DD	00H
	DD	02H
	DD	FLAT:??_R2CBaseDesk2@@8
rdata$r	ENDS
;	COMDAT ??_R0?AVCBaseDesk2@@@8
data$rs	SEGMENT
??_R0?AVCBaseDesk2@@@8 DD FLAT:??_7type_info@@6B@	; CBaseDesk2 `RTTI Type Descriptor'
	DD	00H
	DB	'.?AVCBaseDesk2@@', 00H
data$rs	ENDS
;	COMDAT ??_R4CBaseDesk2@@6B@
rdata$r	SEGMENT
??_R4CBaseDesk2@@6B@ DD 00H				; CBaseDesk2::`RTTI Complete Object Locator'
	DD	00H
	DD	00H
	DD	FLAT:??_R0?AVCBaseDesk2@@@8
	DD	FLAT:??_R3CBaseDesk2@@8
rdata$r	ENDS
;	COMDAT ??_R1A@?0A@EA@CBaseDesk@@8
rdata$r	SEGMENT
??_R1A@?0A@EA@CBaseDesk@@8 DD FLAT:??_R0?AVCBaseDesk@@@8 ; CBaseDesk::`RTTI Base Class Descriptor at (0,-1,0,64)'
	DD	00H
	DD	00H
	DD	0ffffffffH
	DD	00H
	DD	040H
	DD	FLAT:??_R3CBaseDesk@@8
rdata$r	ENDS
;	COMDAT ??_R2CBaseDesk@@8
rdata$r	SEGMENT
??_R2CBaseDesk@@8 DD FLAT:??_R1A@?0A@EA@CBaseDesk@@8	; CBaseDesk::`RTTI Base Class Array'
rdata$r	ENDS
;	COMDAT ??_R3CBaseDesk@@8
rdata$r	SEGMENT
??_R3CBaseDesk@@8 DD 00H				; CBaseDesk::`RTTI Class Hierarchy Descriptor'
	DD	00H
	DD	01H
	DD	FLAT:??_R2CBaseDesk@@8
rdata$r	ENDS
;	COMDAT ??_R0?AVCBaseDesk@@@8
data$rs	SEGMENT
??_R0?AVCBaseDesk@@@8 DD FLAT:??_7type_info@@6B@	; CBaseDesk `RTTI Type Descriptor'
	DD	00H
	DB	'.?AVCBaseDesk@@', 00H
data$rs	ENDS
;	COMDAT ??_R4CBaseDesk@@6B@
rdata$r	SEGMENT
??_R4CBaseDesk@@6B@ DD 00H				; CBaseDesk::`RTTI Complete Object Locator'
	DD	00H
	DD	00H
	DD	FLAT:??_R0?AVCBaseDesk@@@8
	DD	FLAT:??_R3CBaseDesk@@8
rdata$r	ENDS
;	COMDAT ??_C@_06POMNMINI@?$CF0?$CKd?$CFs@
CONST	SEGMENT
??_C@_06POMNMINI@?$CF0?$CKd?$CFs@ DB '%0*d%s', 00H	; `string'
CONST	ENDS
;	COMDAT ??_C@_09FCCHHFOI@?$CF400?4400s@
CONST	SEGMENT
??_C@_09FCCHHFOI@?$CF400?4400s@ DB '%400.400s', 00H	; `string'
CONST	ENDS
;	COMDAT ??_C@_01EOFPKCAF@?$EA@
CONST	SEGMENT
??_C@_01EOFPKCAF@?$EA@ DB '@', 00H			; `string'
CONST	ENDS
;	COMDAT ??_C@_06GIMNLBPG@?$EAOHL?$DN?3@
CONST	SEGMENT
??_C@_06GIMNLBPG@?$EAOHL?$DN?3@ DB '@OHL=:', 00H	; `string'
CONST	ENDS
;	COMDAT ??_C@_0L@IOODIHBH@?$CBPre?$CB?$CFs?$CB?$CFs@
CONST	SEGMENT
??_C@_0L@IOODIHBH@?$CBPre?$CB?$CFs?$CB?$CFs@ DB '!Pre!%s!%s', 00H ; `string'
CONST	ENDS
;	COMDAT ??_C@_0CE@PDAKDMBD@?C?V?$LE?k?5?$CFd?$LA?$LD?5?$LP?$LF?$LP?$KK?$LB?n?A?v?5?C?$NP?$LA?$KB?5?$LA?$KB?$LE?I?G?U?$LE@
CONST	SEGMENT
??_C@_0CE@PDAKDMBD@?C?V?$LE?k?5?$CFd?$LA?$LD?5?$LP?$LF?$LP?$KK?$LB?n?A?v?5?C?$NP?$LA?$KB?5?$LA?$KB?$LE?I?G?U?$LE@ DB 0c3H
	DB	0d6H, 0b4H, 0ebH, ' %d', 0b0H, 0b3H, ' ', 0bfH, 0b5H, 0bfH, 0aaH
	DB	0b1H, 0eeH, 0c1H, 0f6H, ' ', 0c3H, 0dfH, 0b0H, 0a1H, ' ', 0b0H
	DB	0a1H, 0b4H, 0c9H, 0c7H, 0d5H, 0b4H, 0cfH, 0b4H, 0d9H, '.', 00H ; `string'
CONST	ENDS
;	COMDAT ??_C@_02IGOEABML@05@
CONST	SEGMENT
??_C@_02IGOEABML@05@ DB '05', 00H			; `string'
CONST	ENDS
;	COMDAT ??_C@_02NALOKGEN@03@
CONST	SEGMENT
??_C@_02NALOKGEN@03@ DB '03', 00H			; `string'
CONST	ENDS
;	COMDAT ??_C@_02MJKFJHAM@02@
CONST	SEGMENT
??_C@_02MJKFJHAM@02@ DB '02', 00H			; `string'
CONST	ENDS
;	COMDAT ??_C@_02OCIIMEMP@01@
CONST	SEGMENT
??_C@_02OCIIMEMP@01@ DB '01', 00H			; `string'
CONST	ENDS
;	COMDAT ??_C@_0M@GNAOEDKF@JipyoRQ?4dat@
CONST	SEGMENT
??_C@_0M@GNAOEDKF@JipyoRQ?4dat@ DB 'JipyoRQ.dat', 00H	; `string'
CONST	ENDS
;	COMDAT ??_C@_04OCCELDNI@?$CF04d@
CONST	SEGMENT
??_C@_04OCCELDNI@?$CF04d@ DB '%04d', 00H		; `string'
CONST	ENDS
;	COMDAT ??_C@_0O@NALPJIAL@JipyoSync?4dat@
CONST	SEGMENT
??_C@_0O@NALPJIAL@JipyoSync?4dat@ DB 'JipyoSync.dat', 00H ; `string'
CONST	ENDS
;	COMDAT ??_C@_06CEJBHFBO@_Year_@
CONST	SEGMENT
??_C@_06CEJBHFBO@_Year_@ DB '_Year_', 00H		; `string'
CONST	ENDS
;	COMDAT ??_C@_07HDBNENCO@_Month_@
CONST	SEGMENT
??_C@_07HDBNENCO@_Month_@ DB '_Month_', 00H		; `string'
CONST	ENDS
;	COMDAT ??_C@_06ICAOBLMG@_Week_@
CONST	SEGMENT
??_C@_06ICAOBLMG@_Week_@ DB '_Week_', 00H		; `string'
CONST	ENDS
;	COMDAT ??_C@_06HJNAHMEJ@_Hour_@
CONST	SEGMENT
??_C@_06HJNAHMEJ@_Hour_@ DB '_Hour_', 00H		; `string'
CONST	ENDS
;	COMDAT ??_C@_05PLAPJINF@_Day_@
CONST	SEGMENT
??_C@_05PLAPJINF@_Day_@ DB '_Day_', 00H			; `string'
CONST	ENDS
;	COMDAT ??_C@_05CKMCGHLO@_Min_@
CONST	SEGMENT
??_C@_05CKMCGHLO@_Min_@ DB '_Min_', 00H			; `string'
CONST	ENDS
;	COMDAT ??_C@_06OEABNLLF@_Tick_@
CONST	SEGMENT
??_C@_06OEABNLLF@_Tick_@ DB '_Tick_', 00H		; `string'
CONST	ENDS
;	COMDAT ??_C@_05LHBMGCLG@_Sec_@
CONST	SEGMENT
??_C@_05LHBMGCLG@_Sec_@ DB '_Sec_', 00H			; `string'
CONST	ENDS
;	COMDAT ??_C@_01IDAFKMJL@_@
CONST	SEGMENT
??_C@_01IDAFKMJL@_@ DB '_', 00H				; `string'
CONST	ENDS
;	COMDAT ??_C@_0L@JLIDMBLJ@AddInEvent@
CONST	SEGMENT
??_C@_0L@JLIDMBLJ@AddInEvent@ DB 'AddInEvent', 00H	; `string'
CONST	ENDS
;	COMDAT ??_C@_01DNKMNLPK@?$HM@
CONST	SEGMENT
??_C@_01DNKMNLPK@?$HM@ DB '|', 00H			; `string'
CONST	ENDS
;	COMDAT ??_C@_0BD@JIOCNNLI@PREVPRICE?$DN_Close_?3@
CONST	SEGMENT
??_C@_0BD@JIOCNNLI@PREVPRICE?$DN_Close_?3@ DB 'PREVPRICE=_Close_:', 00H ; `string'
CONST	ENDS
;	COMDAT ??_C@_08NMPKDFNF@?$CFs?9?$CFs?9?$CFs@
CONST	SEGMENT
??_C@_08NMPKDFNF@?$CFs?9?$CFs?9?$CFs@ DB '%s-%s-%s', 00H ; `string'
CONST	ENDS
;	COMDAT ??_C@_01NEMOKFLO@?$DN@
CONST	SEGMENT
??_C@_01NEMOKFLO@?$DN@ DB '=', 00H			; `string'
CONST	ENDS
;	COMDAT ??_C@_04IBMLIHFP@?$FL?C?J?$FN@
CONST	SEGMENT
??_C@_04IBMLIHFP@?$FL?C?J?$FN@ DB '[', 0c3H, 0caH, ']', 00H ; `string'
CONST	ENDS
;	COMDAT ??_C@_06EJPJIPDE@?$FL?$CFs?$MA?O?$FN@
CONST	SEGMENT
??_C@_06EJPJIPDE@?$FL?$CFs?$MA?O?$FN@ DB '[%s', 0c0H, 0cfH, ']', 00H ; `string'
CONST	ENDS
;	COMDAT ??_C@_06FKABCLIB@?$FL?$CFs?$LK?P?$FN@
CONST	SEGMENT
??_C@_06FKABCLIB@?$FL?$CFs?$LK?P?$FN@ DB '[%s', 0baH, 0d0H, ']', 00H ; `string'
CONST	ENDS
;	COMDAT ??_C@_06DLOHGMNG@?$FL?$CFs?F?$LN?$FN@
CONST	SEGMENT
??_C@_06DLOHGMNG@?$FL?$CFs?F?$LN?$FN@ DB '[%s', 0c6H, 0bdH, ']', 00H ; `string'
CONST	ENDS
;	COMDAT ??_C@_03EEBNCBOD@?5?$CFs@
CONST	SEGMENT
??_C@_03EEBNCBOD@?5?$CFs@ DB ' %s', 00H			; `string'
CONST	ENDS
;	COMDAT ??_C@_0BF@KFEKNAHG@?5?$CFs?5?5?$CFs?5?$CI?$CFs?$CF?$CF?$CJ?5?$CFs?5?5?5@
CONST	SEGMENT
??_C@_0BF@KFEKNAHG@?5?$CFs?5?5?$CFs?5?$CI?$CFs?$CF?$CF?$CJ?5?$CFs?5?5?5@ DB ' '
	DB	'%s  %s (%s%%) %s   ', 00H			; `string'
CONST	ENDS
;	COMDAT ??_C@_05OGIKHPIO@?$CF8?48s@
CONST	SEGMENT
??_C@_05OGIKHPIO@?$CF8?48s@ DB '%8.8s', 00H		; `string'
CONST	ENDS
;	COMDAT ??_C@_09NAFALPNH@?$CF100?4100s@
CONST	SEGMENT
??_C@_09NAFALPNH@?$CF100?4100s@ DB '%100.100s', 00H	; `string'
CONST	ENDS
;	COMDAT ??_C@_02CNOPMPCD@?$LN?C@
CONST	SEGMENT
??_C@_02CNOPMPCD@?$LN?C@ DB 0bdH, 0c3H, 00H		; `string'
CONST	ENDS
;	COMDAT ??_C@_02KCECDBDA@?C?J@
CONST	SEGMENT
??_C@_02KCECDBDA@?C?J@ DB 0c3H, 0caH, 00H		; `string'
CONST	ENDS
;	COMDAT ??_C@_02MEPHBMOK@?F?$LN@
CONST	SEGMENT
??_C@_02MEPHBMOK@?F?$LN@ DB 0c6H, 0bdH, 00H		; `string'
CONST	ENDS
;	COMDAT ??_C@_02EJEPJIDE@?$LK?P@
CONST	SEGMENT
??_C@_02EJEPJIDE@?$LK?P@ DB 0baH, 0d0H, 00H		; `string'
CONST	ENDS
;	COMDAT ??_C@_02NNHDHLCM@?$MA?O@
CONST	SEGMENT
??_C@_02NNHDHLCM@?$MA?O@ DB 0c0H, 0cfH, 00H		; `string'
CONST	ENDS
;	COMDAT ??_C@_04OGKJMPGK@?$CF02d@
CONST	SEGMENT
??_C@_04OGKJMPGK@?$CF02d@ DB '%02d', 00H		; `string'
CONST	ENDS
;	COMDAT ??_C@_06OAKEJMGG@?$CF04d00@
CONST	SEGMENT
??_C@_06OAKEJMGG@?$CF04d00@ DB '%04d00', 00H		; `string'
CONST	ENDS
;	COMDAT ??_C@_09MIEAAIKL@HourValue@
CONST	SEGMENT
??_C@_09MIEAAIKL@HourValue@ DB 'HourValue', 00H		; `string'
CONST	ENDS
;	COMDAT ??_C@_03GOOLIKIF@?$CF3d@
CONST	SEGMENT
??_C@_03GOOLIKIF@?$CF3d@ DB '%3d', 00H			; `string'
CONST	ENDS
;	COMDAT ??_C@_05DGKKDHJG@d1015@
CONST	SEGMENT
??_C@_05DGKKDHJG@d1015@ DB 'd1015', 00H			; `string'
CONST	ENDS
;	COMDAT ??_C@_04PBCOOEDG@?4dat@
CONST	SEGMENT
??_C@_04PBCOOEDG@?4dat@ DB '.dat', 00H			; `string'
CONST	ENDS
;	COMDAT ??_C@_08DIGNHAJI@temp?4tmp@
CONST	SEGMENT
??_C@_08DIGNHAJI@temp?4tmp@ DB 'temp.tmp', 00H		; `string'
CONST	ENDS
;	COMDAT ??_C@_08HJFMEBK@?$LI?E?$LM?v?$LE?$NM?$LA?$KB@
CONST	SEGMENT
??_C@_08HJFMEBK@?$LI?E?$LM?v?$LE?$NM?$LA?$KB@ DB 0b8H, 0c5H, 0bcH, 0f6H, 0b4H
	DB	0dcH, 0b0H, 0a1H, 00H			; `string'
CONST	ENDS
;	COMDAT ??_C@_08IJONIALD@?$LI?E?$LM?v?$LA?G?$LM?v@
CONST	SEGMENT
??_C@_08IJONIALD@?$LI?E?$LM?v?$LA?G?$LM?v@ DB 0b8H, 0c5H, 0bcH, 0f6H, 0b0H
	DB	0c7H, 0bcH, 0f6H, 00H			; `string'
CONST	ENDS
;	COMDAT ??_C@_08BLMBPJAL@?$LI?E?$LF?$LF?$LE?$NM?$LA?$KB@
CONST	SEGMENT
??_C@_08BLMBPJAL@?$LI?E?$LF?$LF?$LE?$NM?$LA?$KB@ DB 0b8H, 0c5H, 0b5H, 0b5H
	DB	0b4H, 0dcH, 0b0H, 0a1H, 00H			; `string'
CONST	ENDS
;	COMDAT ??_C@_08JFLJLNKC@?$LI?E?$LF?$LF?$LA?G?$LM?v@
CONST	SEGMENT
??_C@_08JFLJLNKC@?$LI?E?$LF?$LF?$LA?G?$LM?v@ DB 0b8H, 0c5H, 0b5H, 0b5H, 0b0H
	DB	0c7H, 0bcH, 0f6H, 00H			; `string'
CONST	ENDS
;	COMDAT ??_C@_08IHDIEAMD@?$LI?E?$LM?v?C?$LM?$LA?a@
CONST	SEGMENT
??_C@_08IHDIEAMD@?$LI?E?$LM?v?C?$LM?$LA?a@ DB 0b8H, 0c5H, 0bcH, 0f6H, 0c3H
	DB	0bcH, 0b0H, 0e1H, 00H			; `string'
CONST	ENDS
;	COMDAT ??_C@_08JLGMHNNC@?$LI?E?$LF?$LF?C?$LM?$LA?a@
CONST	SEGMENT
??_C@_08JLGMHNNC@?$LI?E?$LF?$LF?C?$LM?$LA?a@ DB 0b8H, 0c5H, 0b5H, 0b5H, 0c3H
	DB	0bcH, 0b0H, 0e1H, 00H			; `string'
CONST	ENDS
;	COMDAT ??_C@_0BN@IDOOFJCL@?$DL?$CFs?$DL?$CFs?$DL?$CFs?$DL?$CFs?$DL?$CFc?$DL?$CFs?$DL?$CFld?$DL?$CFd?$DL?$CFs@
CONST	SEGMENT
??_C@_0BN@IDOOFJCL@?$DL?$CFs?$DL?$CFs?$DL?$CFs?$DL?$CFs?$DL?$CFc?$DL?$CFs?$DL?$CFld?$DL?$CFd?$DL?$CFs@ DB ';'
	DB	'%s;%s;%s;%s;%c;%s;%ld;%d;%s', 00H		; `string'
CONST	ENDS
;	COMDAT ??_C@_05GIFAMKMK@?$CFd?$DL?$CFs@
CONST	SEGMENT
??_C@_05GIFAMKMK@?$CFd?$DL?$CFs@ DB '%d;%s', 00H	; `string'
CONST	ENDS
;	COMDAT ??_C@_08DFLJKGLA@SecValue@
CONST	SEGMENT
??_C@_08DFLJKGLA@SecValue@ DB 'SecValue', 00H		; `string'
CONST	ENDS
;	COMDAT ??_C@_02HAOIJKIC@?$CFc@
CONST	SEGMENT
??_C@_02HAOIJKIC@?$CFc@ DB '%c', 00H			; `string'
CONST	ENDS
;	COMDAT ??_C@_08DGGNNICE@TRCode00@
CONST	SEGMENT
??_C@_08DGGNNICE@TRCode00@ DB 'TRCode00', 00H		; `string'
CONST	ENDS
;	COMDAT ??_C@_06HFLFPHDF@Code00@
CONST	SEGMENT
??_C@_06HFLFPHDF@Code00@ DB 'Code00', 00H		; `string'
CONST	ENDS
;	COMDAT ??_C@_0L@PGINNEOP@STFilePath@
CONST	SEGMENT
??_C@_0L@PGINNEOP@STFilePath@ DB 'STFilePath', 00H	; `string'
CONST	ENDS
;	COMDAT ??_C@_04DFMOBMKJ@__99@
CONST	SEGMENT
??_C@_04DFMOBMKJ@__99@ DB '__99', 00H			; `string'
CONST	ENDS
;	COMDAT ??_C@_06OAPBJALJ@__0000@
CONST	SEGMENT
??_C@_06OAPBJALJ@__0000@ DB '__0000', 00H		; `string'
CONST	ENDS
;	COMDAT ??_C@_02MMCGLACG@RQ@
CONST	SEGMENT
??_C@_02MMCGLACG@RQ@ DB 'RQ', 00H			; `string'
CONST	ENDS
;	COMDAT ??_C@_06GEIBLBMH@RQSIZE@
CONST	SEGMENT
??_C@_06GEIBLBMH@RQSIZE@ DB 'RQSIZE', 00H		; `string'
CONST	ENDS
;	COMDAT ??_C@_0N@HPAAHIMJ@bMonthGapRev@
CONST	SEGMENT
??_C@_0N@HPAAHIMJ@bMonthGapRev@ DB 'bMonthGapRev', 00H	; `string'
CONST	ENDS
;	COMDAT ??_C@_0O@MKKMBCFI@bRevisedValue@
CONST	SEGMENT
??_C@_0O@MKKMBCFI@bRevisedValue@ DB 'bRevisedValue', 00H ; `string'
CONST	ENDS
;	COMDAT ??_C@_08CDGKDHM@bShowLog@
CONST	SEGMENT
??_C@_08CDGKDHM@bShowLog@ DB 'bShowLog', 00H		; `string'
CONST	ENDS
;	COMDAT ??_C@_09LBGECMLO@bAutoSave@
CONST	SEGMENT
??_C@_09LBGECMLO@bAutoSave@ DB 'bAutoSave', 00H		; `string'
CONST	ENDS
;	COMDAT ??_C@_0P@GDBEHKNF@bRecvTimeShare@
CONST	SEGMENT
??_C@_0P@GDBEHKNF@bRecvTimeShare@ DB 'bRecvTimeShare', 00H ; `string'
CONST	ENDS
;	COMDAT ??_C@_0L@BCFFDEDD@bShowHLBar@
CONST	SEGMENT
??_C@_0L@BCFFDEDD@bShowHLBar@ DB 'bShowHLBar', 00H	; `string'
CONST	ENDS
;	COMDAT ??_C@_0M@OGEJPHAA@bRealCandle@
CONST	SEGMENT
??_C@_0M@OGEJPHAA@bRealCandle@ DB 'bRealCandle', 00H	; `string'
CONST	ENDS
;	COMDAT ??_C@_0P@EABLNBKF@ChartUnitValue@
CONST	SEGMENT
??_C@_0P@EABLNBKF@ChartUnitValue@ DB 'ChartUnitValue', 00H ; `string'
CONST	ENDS
;	COMDAT ??_C@_01FDFGLJHB@2@
CONST	SEGMENT
??_C@_01FDFGLJHB@2@ DB '2', 00H				; `string'
CONST	ENDS
;	COMDAT ??_C@_04KOACHJEN@Type@
CONST	SEGMENT
??_C@_04KOACHJEN@Type@ DB 'Type', 00H			; `string'
CONST	ENDS
;	COMDAT ??_C@_08LKPMEEHC@DayValue@
CONST	SEGMENT
??_C@_08LKPMEEHC@DayValue@ DB 'DayValue', 00H		; `string'
CONST	ENDS
;	COMDAT ??_C@_08GHMDELNM@MinValue@
CONST	SEGMENT
??_C@_08GHMDELNM@MinValue@ DB 'MinValue', 00H		; `string'
CONST	ENDS
;	COMDAT ??_C@_09MOFKPBPG@TickValue@
CONST	SEGMENT
??_C@_09MOFKPBPG@TickValue@ DB 'TickValue', 00H		; `string'
CONST	ENDS
;	COMDAT ??_C@_09OJDBNEOO@CntInView@
CONST	SEGMENT
??_C@_09OJDBNEOO@CntInView@ DB 'CntInView', 00H		; `string'
CONST	ENDS
;	COMDAT ??_C@_03FKNPJMHG@400@
CONST	SEGMENT
??_C@_03FKNPJMHG@400@ DB '400', 00H			; `string'
CONST	ENDS
;	COMDAT ??_C@_06CDKAKGCK@AllCnt@
CONST	SEGMENT
??_C@_06CDKAKGCK@AllCnt@ DB 'AllCnt', 00H		; `string'
CONST	ENDS
;	COMDAT ??_C@_03GOIFLICK@120@
CONST	SEGMENT
??_C@_03GOIFLICK@120@ DB '120', 00H			; `string'
CONST	ENDS
;	COMDAT ??_C@_07OLCDEDDD@PMASTER@
CONST	SEGMENT
??_C@_07OLCDEDDD@PMASTER@ DB 'PMASTER', 00H		; `string'
CONST	ENDS
;	COMDAT ??_C@_0L@PHJOAKIC@TRCode?$CF02d@
CONST	SEGMENT
??_C@_0L@PHJOAKIC@TRCode?$CF02d@ DB 'TRCode%02d', 00H	; `string'
CONST	ENDS
;	COMDAT ??_C@_08PJGFHBD@Code?$CF02d@
CONST	SEGMENT
??_C@_08PJGFHBD@Code?$CF02d@ DB 'Code%02d', 00H		; `string'
CONST	ENDS
;	COMDAT ??_C@_04IPKCHPNC@?4mct@
CONST	SEGMENT
??_C@_04IPKCHPNC@?4mct@ DB '.mct', 00H			; `string'
CONST	ENDS
;	COMDAT ??_C@_0L@EKGIKOJL@CntOfGraph@
CONST	SEGMENT
??_C@_0L@EKGIKOJL@CntOfGraph@ DB 'CntOfGraph', 00H	; `string'
CONST	ENDS
;	COMDAT ??_C@_04JDPKJLKG@0000@
CONST	SEGMENT
??_C@_04JDPKJLKG@0000@ DB '0000', 00H			; `string'
CONST	ENDS
;	COMDAT ??_C@_08CHLAEBHP@?$CF02d?$CF02d@
CONST	SEGMENT
??_C@_08CHLAEBHP@?$CF02d?$CF02d@ DB '%02d%02d', 00H	; `string'
CONST	ENDS
;	COMDAT ??_C@_0BH@NEKADIOF@ChartStrategyAddin?4dll@
CONST	SEGMENT
??_C@_0BH@NEKADIOF@ChartStrategyAddin?4dll@ DB 'ChartStrategyAddin.dll', 00H ; `string'
CONST	ENDS
;	COMDAT ??_C@_0L@PEIBFALD@?$LA?E?$LH?$KB?$LH?$KO?B?w?F?$KO@
CONST	SEGMENT
??_C@_0L@PEIBFALD@?$LA?E?$LH?$KB?$LH?$KO?B?w?F?$KO@ DB 0b0H, 0c5H, 0b7H, 0a1H
	DB	0b7H, 0aeH, 0c2H, 0f7H, 0c6H, 0aeH, 00H	; `string'
CONST	ENDS
;	COMDAT ??_C@_0O@EJONJDDM@?$LA?$KB?$LA?$NN?5?$MA?L?$LF?$LP?F?r?$LB?U@
CONST	SEGMENT
??_C@_0O@EJONJDDM@?$LA?$KB?$LA?$NN?5?$MA?L?$LF?$LP?F?r?$LB?U@ DB 0b0H, 0a1H
	DB	0b0H, 0ddH, ' ', 0c0H, 0ccH, 0b5H, 0bfH, 0c6H, 0f2H, 0b1H, 0d5H
	DB	00H						; `string'
CONST	ENDS
;	COMDAT ??_C@_08JEGCGCLP@?$LA?$KB?$LA?$NN?B?w?F?$KO@
CONST	SEGMENT
??_C@_08JEGCGCLP@?$LA?$KB?$LA?$NN?B?w?F?$KO@ DB 0b0H, 0a1H, 0b0H, 0ddH, 0c2H
	DB	0f7H, 0c6H, 0aeH, 00H			; `string'
CONST	ENDS
;	COMDAT ??_C@_0CJ@GKPLBJFH@?5?5?5?$MA?L?$LJ?L?5?$LI?p?$LF?g?5?$LF?$KF?$MA?L?E?M?$LI?$KG?5?A?$LG?H?$LI?G?O?$LP?$LE?$LN@
CONST	SEGMENT
??_C@_0CJ@GKPLBJFH@?5?5?5?$MA?L?$LJ?L?5?$LI?p?$LF?g?5?$LF?$KF?$MA?L?E?M?$LI?$KG?5?A?$LG?H?$LI?G?O?$LP?$LE?$LN@ DB ' '
	DB	'  ', 0c0H, 0ccH, 0b9H, 0ccH, ' ', 0b8H, 0f0H, 0b5H, 0e7H, ' ', 0b5H
	DB	0a5H, 0c0H, 0ccH, 0c5H, 0cdH, 0b8H, 0a6H, ' ', 0c1H, 0b6H, 0c8H
	DB	0b8H, 0c7H, 0cfH, 0bfH, 0b4H, 0bdH, 0c0H, 0b4H, 0cfH, 0b4H, 0d9H
	DB	'.   ', 00H					; `string'
CONST	ENDS
;	COMDAT ??_C@_03FPDHAOMG@102@
CONST	SEGMENT
??_C@_03FPDHAOMG@102@ DB '102', 00H			; `string'
CONST	ENDS
;	COMDAT ??_C@_03EHGMALKH@A87@
CONST	SEGMENT
??_C@_03EHGMALKH@A87@ DB 'A87', 00H			; `string'
CONST	ENDS
;	COMDAT ??_C@_03CMFDKLDL@187@
CONST	SEGMENT
??_C@_03CMFDKLDL@187@ DB '187', 00H			; `string'
CONST	ENDS
;	COMDAT ??_C@_03FOHHDKOG@A86@
CONST	SEGMENT
??_C@_03FOHHDKOG@A86@ DB 'A86', 00H			; `string'
CONST	ENDS
;	COMDAT ??_C@_03DFEIJKHK@186@
CONST	SEGMENT
??_C@_03DFEIJKHK@186@ DB '186', 00H			; `string'
CONST	ENDS
;	COMDAT ??_C@_03HFFKGJCF@A85@
CONST	SEGMENT
??_C@_03HFFKGJCF@A85@ DB 'A85', 00H			; `string'
CONST	ENDS
;	COMDAT ??_C@_03BOGFMJLJ@185@
CONST	SEGMENT
??_C@_03BOGFMJLJ@185@ DB '185', 00H			; `string'
CONST	ENDS
;	COMDAT ??_C@_07FBPHHLJP@FMASTER@
CONST	SEGMENT
??_C@_07FBPHHLJP@FMASTER@ DB 'FMASTER', 00H		; `string'
CONST	ENDS
;	COMDAT ??_C@_09POEKPOBJ@OldFuture@
CONST	SEGMENT
??_C@_09POEKPOBJ@OldFuture@ DB 'OldFuture', 00H		; `string'
CONST	ENDS
;	COMDAT ??_C@_05GAPAJABA@d1013@
CONST	SEGMENT
??_C@_05GAPAJABA@d1013@ DB 'd1013', 00H			; `string'
CONST	ENDS
;	COMDAT ??_C@_0L@CNEJMLLO@?$LM?$LB?$LA?$KB?$LA?$NN?B?w?F?$KO@
CONST	SEGMENT
??_C@_0L@CNEJMLLO@?$LM?$LB?$LA?$KB?$LA?$NN?B?w?F?$KO@ DB 0bcH, 0b1H, 0b0H
	DB	0a1H, 0b0H, 0ddH, 0c2H, 0f7H, 0c6H, 0aeH, 00H ; `string'
CONST	ENDS
;	COMDAT ??_C@_0CN@FIFGAENB@?$LK?$LJ?$LB?b?$LI?p?$LF?e?5?$LL?s?E?B?$MA?T?$LE?O?$LE?Y?5?5?5?5?5?5?5?5?5?5?5?5@
CONST	SEGMENT
??_C@_0CN@FIFGAENB@?$LK?$LJ?$LB?b?$LI?p?$LF?e?5?$LL?s?E?B?$MA?T?$LE?O?$LE?Y?5?5?5?5?5?5?5?5?5?5?5?5@ DB 0baH
	DB	0b9H, 0b1H, 0e2H, 0b8H, 0f0H, 0b5H, 0e5H, ' ', 0bbH, 0f3H, 0c5H
	DB	0c2H, 0c0H, 0d4H, 0b4H, 0cfH, 0b4H, 0d9H, '                   '
	DB	'      ', 00H				; `string'
CONST	ENDS
;	COMDAT ??_C@_0BD@CGLPLIKA@_SuspenseContract_@
CONST	SEGMENT
??_C@_0BD@CGLPLIKA@_SuspenseContract_@ DB '_SuspenseContract_', 00H ; `string'
CONST	ENDS
;	COMDAT ??_C@_0P@OGFDPMKF@_VolumeAmount_@
CONST	SEGMENT
??_C@_0P@OGFDPMKF@_VolumeAmount_@ DB '_VolumeAmount_', 00H ; `string'
CONST	ENDS
;	COMDAT ??_C@_04GHNNFJCK@?$CF?40f@
CONST	SEGMENT
??_C@_04GHNNFJCK@?$CF?40f@ DB '%.0f', 00H		; `string'
CONST	ENDS
;	COMDAT ??_C@_08KONNGEKL@_Volume_@
CONST	SEGMENT
??_C@_08KONNGEKL@_Volume_@ DB '_Volume_', 00H		; `string'
CONST	ENDS
;	COMDAT ??_C@_06MFLEHPOG@?$CF10?42f@
CONST	SEGMENT
??_C@_06MFLEHPOG@?$CF10?42f@ DB '%10.2f', 00H		; `string'
CONST	ENDS
;	COMDAT ??_C@_07NNJMGIH@_Close_@
CONST	SEGMENT
??_C@_07NNJMGIH@_Close_@ DB '_Close_', 00H		; `string'
CONST	ENDS
;	COMDAT ??_C@_05ELNNMDND@d1010@
CONST	SEGMENT
??_C@_05ELNNMDND@d1010@ DB 'd1010', 00H			; `string'
CONST	ENDS
;	COMDAT ??_C@_0L@OLKNJBLH@_DateTime_@
CONST	SEGMENT
??_C@_0L@OLKNJBLH@_DateTime_@ DB '_DateTime_', 00H	; `string'
CONST	ENDS
;	COMDAT ??_C@_0CB@HINODCNN@ChartCommonAddIn?4dll?3DIRECT_REA@
CONST	SEGMENT
??_C@_0CB@HINODCNN@ChartCommonAddIn?4dll?3DIRECT_REA@ DB 'ChartCommonAddI'
	DB	'n.dll:DIRECT_REAL', 00H			; `string'
CONST	ENDS
;	COMDAT ??_C@_04GEFJINEE@?$CF?42f@
CONST	SEGMENT
??_C@_04GEFJINEE@?$CF?42f@ DB '%.2f', 00H		; `string'
CONST	ENDS
;	COMDAT ??_C@_05CPLBAGNH@d1014@
CONST	SEGMENT
??_C@_05CPLBAGNH@d1014@ DB 'd1014', 00H			; `string'
CONST	ENDS
;	COMDAT ??_C@_06CLONMKIH@?$CFY?$CFm?$CFd@
CONST	SEGMENT
??_C@_06CLONMKIH@?$CFY?$CFm?$CFd@ DB '%Y%m%d', 00H	; `string'
CONST	ENDS
;	COMDAT ??_C@_04OHGLKFFN@?$CF03d@
CONST	SEGMENT
??_C@_04OHGLKFFN@?$CF03d@ DB '%03d', 00H		; `string'
CONST	ENDS
;	COMDAT ??_C@_0CI@FJKMINFJ@360?$LJ?L?$LI?$LI?$MA?G?5?$LA?$KK?$MA?$LI?$LH?N?5?$LE?Y?$LN?C?5?$LM?$LD?A?$KE?G?O?$LP?$KJ?5@
CONST	SEGMENT
??_C@_0CI@FJKMINFJ@360?$LJ?L?$LI?$LI?$MA?G?5?$LA?$KK?$MA?$LI?$LH?N?5?$LE?Y?$LN?C?5?$LM?$LD?A?$KE?G?O?$LP?$KJ?5@ DB '3'
	DB	'60', 0b9H, 0ccH, 0b8H, 0b8H, 0c0H, 0c7H, ' ', 0b0H, 0aaH, 0c0H
	DB	0b8H, 0b7H, 0ceH, ' ', 0b4H, 0d9H, 0bdH, 0c3H, ' ', 0bcH, 0b3H
	DB	0c1H, 0a4H, 0c7H, 0cfH, 0bfH, 0a9H, ' ', 0c1H, 0d6H, 0bdH, 0caH
	DB	0bdH, 0c3H, 0bfH, 0c0H, 00H			; `string'
CONST	ENDS
;	COMDAT ??_C@_0BG@FHIGLELG@ChartPatternAddin?4dll@
CONST	SEGMENT
??_C@_0BG@FHIGLELG@ChartPatternAddin?4dll@ DB 'ChartPatternAddin.dll', 00H ; `string'
CONST	ENDS
;	COMDAT ??_C@_03IPFFPNJA@P?$CGF@
CONST	SEGMENT
??_C@_03IPFFPNJA@P?$CGF@ DB 'P&F', 00H			; `string'
CONST	ENDS
;	COMDAT ??_C@_04BOHEOFBK@P?$CG?$CGF@
CONST	SEGMENT
??_C@_04BOHEOFBK@P?$CG?$CGF@ DB 'P&&F', 00H		; `string'
CONST	ENDS
;	COMDAT ??_C@_05PIFDLOOP@?$MA?z?3?$CFs@
CONST	SEGMENT
??_C@_05PIFDLOOP@?$MA?z?3?$CFs@ DB 0c0H, 0faH, ':%s', 00H ; `string'
CONST	ENDS
;	COMDAT ??_C@_06FHHCGKPN@?$LA?m?3?$CFs?5@
CONST	SEGMENT
??_C@_06FHHCGKPN@?$LA?m?3?$CFs?5@ DB 0b0H, 0edH, ':%s ', 00H ; `string'
CONST	ENDS
;	COMDAT ??_C@_06LADGPHL@?$LN?C?3?$CFs?5@
CONST	SEGMENT
??_C@_06LADGPHL@?$LN?C?3?$CFs?5@ DB 0bdH, 0c3H, ':%s ', 00H ; `string'
CONST	ENDS
;	COMDAT ??_C@_02GPECMEKF@?$FL?$FN@
CONST	SEGMENT
??_C@_02GPECMEKF@?$FL?$FN@ DB '[]', 00H			; `string'
CONST	ENDS
;	COMDAT ??_C@_04NMKKDAJL@?$FL?$LD?b?$FN@
CONST	SEGMENT
??_C@_04NMKKDAJL@?$FL?$LD?b?$FN@ DB '[', 0b3H, 0e2H, ']', 00H ; `string'
CONST	ENDS
;	COMDAT ??_C@_04IGAPMDLC@?$FL?$LP?y?$FN@
CONST	SEGMENT
??_C@_04IGAPMDLC@?$FL?$LP?y?$FN@ DB '[', 0bfH, 0f9H, ']', 00H ; `string'
CONST	ENDS
;	COMDAT ??_C@_04DOPOBFMA@?$FL?A?V?$FN@
CONST	SEGMENT
??_C@_04DOPOBFMA@?$FL?A?V?$FN@ DB '[', 0c1H, 0d6H, ']', 00H ; `string'
CONST	ENDS
;	COMDAT ??_C@_06LHGEFID@?$FL?$CFd?$LN?C?$FN@
CONST	SEGMENT
??_C@_06LHGEFID@?$FL?$CFd?$LN?C?$FN@ DB '[%d', 0bdH, 0c3H, ']', 00H ; `string'
CONST	ENDS
;	COMDAT ??_C@_06JLDJMEKG@?$FL?$CFd?$MA?O?$FN@
CONST	SEGMENT
??_C@_06JLDJMEKG@?$FL?$CFd?$MA?O?$FN@ DB '[%d', 0c0H, 0cfH, ']', 00H ; `string'
CONST	ENDS
;	COMDAT ??_C@_06IIMBGABD@?$FL?$CFd?$LK?P?$FN@
CONST	SEGMENT
??_C@_06IIMBGABD@?$FL?$CFd?$LK?P?$FN@ DB '[%d', 0baH, 0d0H, ']', 00H ; `string'
CONST	ENDS
;	COMDAT ??_C@_06JHFLCBCO@?$FL30?C?J?$FN@
CONST	SEGMENT
??_C@_06JHFLCBCO@?$FL30?C?J?$FN@ DB '[30', 0c3H, 0caH, ']', 00H ; `string'
CONST	ENDS
;	COMDAT ??_C@_03MHAIKEMP@300@
CONST	SEGMENT
??_C@_03MHAIKEMP@300@ DB '300', 00H			; `string'
CONST	ENDS
;	COMDAT ??_C@_06IPEHKJKD@?$FL?$CFd?C?J?$FN@
CONST	SEGMENT
??_C@_06IPEHKJKD@?$FL?$CFd?C?J?$FN@ DB '[%d', 0c3H, 0caH, ']', 00H ; `string'
CONST	ENDS
;	COMDAT ??_C@_06OJCHCHEE@?$FL?$CFd?F?$LN?$FN@
CONST	SEGMENT
??_C@_06OJCHCHEE@?$FL?$CFd?F?$LN?$FN@ DB '[%d', 0c6H, 0bdH, ']', 00H ; `string'
CONST	ENDS
;	COMDAT ??_C@_08CPFJNDMP@?$CI?$LP?$LJ?$CJ?5?$CFs?5@
CONST	SEGMENT
??_C@_08CPFJNDMP@?$CI?$LP?$LJ?$CJ?5?$CFs?5@ DB '(', 0bfH, 0b9H, ') %s ', 00H ; `string'
CONST	ENDS
;	COMDAT ??_C@_0BC@ONPMIHNM@?$LN?C?3?$CFs?5?$LA?m?3?$CFs?5?$MA?z?3?$CFs@
CONST	SEGMENT
??_C@_0BC@ONPMIHNM@?$LN?C?3?$CFs?5?$LA?m?3?$CFs?5?$MA?z?3?$CFs@ DB 0bdH, 0c3H
	DB	':%s ', 0b0H, 0edH, ':%s ', 0c0H, 0faH, ':%s', 00H ; `string'
CONST	ENDS
;	COMDAT ??_C@_0O@BGLNHCJA@?$CFs?5?$CFs?5?$CI?$CFs?$CF?$CF?$CJ?5@
CONST	SEGMENT
??_C@_0O@BGLNHCJA@?$CFs?5?$CFs?5?$CI?$CFs?$CF?$CF?$CJ?5@ DB '%s %s (%s%%)'
	DB	' ', 00H					; `string'
CONST	ENDS
;	COMDAT ??_C@_05DMBEOOBE@d0515@
CONST	SEGMENT
??_C@_05DMBEOOBE@d0515@ DB 'd0515', 00H			; `string'
CONST	ENDS
;	COMDAT ??_C@_04KMMDIKEB@?5?$CFs?5@
CONST	SEGMENT
??_C@_04KMMDIKEB@?5?$CFs?5@ DB ' %s ', 00H		; `string'
CONST	ENDS
;	COMDAT ??_C@_05HJOLKBFB@d1012@
CONST	SEGMENT
??_C@_05HJOLKBFB@d1012@ DB 'd1012', 00H			; `string'
CONST	ENDS
;	COMDAT ??_C@_05FCMGPCJC@d1011@
CONST	SEGMENT
??_C@_05FCMGPCJC@d1011@ DB 'd1011', 00H			; `string'
CONST	ENDS
;	COMDAT ??_C@_02EOKDGIFO@?$KB?h@
CONST	SEGMENT
??_C@_02EOKDGIFO@?$KB?h@ DB 0a1H, 0e8H, 00H		; `string'
CONST	ENDS
;	COMDAT ??_C@_02KNFHLBJF@?$KB?c@
CONST	SEGMENT
??_C@_02KNFHLBJF@?$KB?c@ DB 0a1H, 0e3H, 00H		; `string'
CONST	ENDS
;	COMDAT ??_C@_02FHLIFJBP@?$KB?i@
CONST	SEGMENT
??_C@_02FHLIFJBP@?$KB?i@ DB 0a1H, 0e9H, 00H		; `string'
CONST	ENDS
;	COMDAT ??_C@_02PLANBGBD@?$KB?e@
CONST	SEGMENT
??_C@_02PLANBGBD@?$KB?e@ DB 0a1H, 0e5H, 00H		; `string'
CONST	ENDS
;	COMDAT ??_C@_09OOOHDNAJ@?$FL?$CFd?5?1?5?$CFd?$FN@
CONST	SEGMENT
??_C@_09OOOHDNAJ@?$FL?$CFd?5?1?5?$CFd?$FN@ DB '[%d / %d]', 00H ; `string'
CONST	ENDS
;	COMDAT ??_C@_08NABHDGJE@?$LP?$KM?$LA?a?$LM?$LB?$LJ?$LA@
CONST	SEGMENT
??_C@_08NABHDGJE@?$LP?$KM?$LA?a?$LM?$LB?$LJ?$LA@ DB 0bfH, 0acH, 0b0H, 0e1H
	DB	0bcH, 0b1H, 0b9H, 0b0H, 00H			; `string'
CONST	ENDS
;	COMDAT ??_C@_08BLEEFNBD@99999999@
CONST	SEGMENT
??_C@_08BLEEFNBD@99999999@ DB '99999999', 00H		; `string'
CONST	ENDS
;	COMDAT ??_C@_0IB@LCFEJIDA@BlockColumn?$DL?$AN?6Block?$DL?$AN?6?$MA?Z?$LH?a?$MA?O?$MA?Z?$DL@
CONST	SEGMENT
??_C@_0IB@LCFEJIDA@BlockColumn?$DL?$AN?6Block?$DL?$AN?6?$MA?Z?$LH?a?$MA?O?$MA?Z?$DL@ DB 'B'
	DB	'lockColumn;', 0dH, 0aH, 'Block;', 0dH, 0aH, 0c0H, 0daH, 0b7H, 0e1H
	DB	0c0H, 0cfH, 0c0H, 0daH, ';4;2;/;:;0;0;0;', 0dH, 0aH, 'VertScal'
	DB	'eGroup;', 0dH, 0aH, 0c1H, 0f6H, 0c7H, 0a5H, ' Data;1;2;0;', 0dH
	DB	0aH, 'VertScaleGroupEnd;', 0dH, 0aH, 'BlockEnd;', 0dH, 0aH, 'B'
	DB	'lockColumnEnd;', 00H			; `string'
CONST	ENDS
;	COMDAT ??_C@_05IGCIGAJE@BSG?$DN0@
CONST	SEGMENT
??_C@_05IGCIGAJE@BSG?$DN0@ DB 'BSG=0', 00H		; `string'
CONST	ENDS
;	COMDAT ??_C@_0CC@JKLHIEJI@ChartCommonAddIn?4dll?3GAP_REVISI@
CONST	SEGMENT
??_C@_0CC@JKLHIEJI@ChartCommonAddIn?4dll?3GAP_REVISI@ DB 'ChartCommonAddI'
	DB	'n.dll:GAP_REVISION', 00H			; `string'
CONST	ENDS
;	COMDAT ??_C@_0CH@FBFCMPJK@ChartGuideLineAddin?4dll?3LOWHIGH@
CONST	SEGMENT
??_C@_0CH@FBFCMPJK@ChartGuideLineAddin?4dll?3LOWHIGH@ DB 'ChartGuideLineA'
	DB	'ddin.dll:LOWHIGH_MARKER', 00H		; `string'
CONST	ENDS
;	COMDAT ??_C@_0CG@NAPDEAKP@ChartAnalysisToolAddIn?4dll?3NIDL@
CONST	SEGMENT
??_C@_0CG@NAPDEAKP@ChartAnalysisToolAddIn?4dll?3NIDL@ DB 'ChartAnalysisTo'
	DB	'olAddIn.dll:NIDLG_OVER', 00H		; `string'
CONST	ENDS
;	COMDAT ??_C@_0CI@EHIBBHNG@ChartCommonAddIn?4dll?3PRICE_YSCA@
CONST	SEGMENT
??_C@_0CI@EHIBBHNG@ChartCommonAddIn?4dll?3PRICE_YSCA@ DB 'ChartCommonAddI'
	DB	'n.dll:PRICE_YSCALE_SETUP', 00H		; `string'
CONST	ENDS
;	COMDAT ??_C@_0CB@CBGDECCF@ChartCommonAddIn?4dll?3AUTO_SCROL@
CONST	SEGMENT
??_C@_0CB@CBGDECCF@ChartCommonAddIn?4dll?3AUTO_SCROL@ DB 'ChartCommonAddI'
	DB	'n.dll:AUTO_SCROLL', 00H			; `string'
CONST	ENDS
;	COMDAT ??_C@_0CC@KGOBCMPC@ChartCommonAddIn?4dll?3MCHART_DVI@
CONST	SEGMENT
??_C@_0CC@KGOBCMPC@ChartCommonAddIn?4dll?3MCHART_DVI@ DB 'ChartCommonAddI'
	DB	'n.dll:MCHART_DVIEW', 00H			; `string'
CONST	ENDS
;	COMDAT ??_C@_0CD@GPKHJNCE@ChartCommonAddIn?4dll?3MCHART_DVI@
CONST	SEGMENT
??_C@_0CD@GPKHJNCE@ChartCommonAddIn?4dll?3MCHART_DVI@ DB 'ChartCommonAddI'
	DB	'n.dll:MCHART_DVIEW;', 00H			; `string'
CONST	ENDS
;	COMDAT ??_C@_0CI@CLPIMEI@ChartCommonAddIn?4dll?3UNDO_REDO_@
CONST	SEGMENT
??_C@_0CI@CLPIMEI@ChartCommonAddIn?4dll?3UNDO_REDO_@ DB 'ChartCommonAddIn'
	DB	'.dll:UNDO_REDO_MANAGER;', 00H		; `string'
CONST	ENDS
;	COMDAT ??_C@_0CK@EPABKOIE@ChartDataListViewerAddIn?4dll?3EX@
CONST	SEGMENT
??_C@_0CK@EPABKOIE@ChartDataListViewerAddIn?4dll?3EX@ DB 'ChartDataListVi'
	DB	'ewerAddIn.dll:EXCEL_IMPORT', 00H		; `string'
CONST	ENDS
;	COMDAT ??_C@_0CH@ECLDNLJC@ChartPeriodSummaryAddIn?4dll?3ORD@
CONST	SEGMENT
??_C@_0CH@ECLDNLJC@ChartPeriodSummaryAddIn?4dll?3ORD@ DB 'ChartPeriodSumm'
	DB	'aryAddIn.dll:ORDER_LINE', 00H		; `string'
CONST	ENDS
;	COMDAT ??_C@_0BG@CHJJKIAP@ChartSTIndexAddIn?4dll@
CONST	SEGMENT
??_C@_0BG@CHJJKIAP@ChartSTIndexAddIn?4dll@ DB 'ChartSTIndexAddIn.dll', 00H ; `string'
CONST	ENDS
;	COMDAT ??_C@_0CD@BIGOCDHM@ChartGuideLineAddin?4dll?3GUIDE_L@
CONST	SEGMENT
??_C@_0CD@BIGOCDHM@ChartGuideLineAddin?4dll?3GUIDE_L@ DB 'ChartGuideLineA'
	DB	'ddin.dll:GUIDE_LINE', 00H			; `string'
CONST	ENDS
;	COMDAT ??_C@_04CFDBLPCI@?$LL?h?A?$KG@
CONST	SEGMENT
??_C@_04CFDBLPCI@?$LL?h?A?$KG@ DB 0bbH, 0e8H, 0c1H, 0a6H, 00H ; `string'
CONST	ENDS
;	COMDAT ??_C@_0M@CKCLLPAP@?C?V?$LE?k?H?$KN?1?$LK?$LJ?$LP?x@
CONST	SEGMENT
??_C@_0M@CKCLLPAP@?C?V?$LE?k?H?$KN?1?$LK?$LJ?$LP?x@ DB 0c3H, 0d6H, 0b4H, 0ebH
	DB	0c8H, 0adH, '/', 0baH, 0b9H, 0bfH, 0f8H, 00H	; `string'
CONST	ENDS
;	COMDAT ??_C@_07MGCPDNLD@DEFAULT@
CONST	SEGMENT
??_C@_07MGCPDNLD@DEFAULT@ DB 'DEFAULT', 00H		; `string'
CONST	ENDS
;	COMDAT ??_C@_03KIMKPPGE@005@
CONST	SEGMENT
??_C@_03KIMKPPGE@005@ DB '005', 00H			; `string'
CONST	ENDS
;	COMDAT ??_C@_03MMKGDKGA@001@
CONST	SEGMENT
??_C@_03MMKGDKGA@001@ DB '001', 00H			; `string'
CONST	ENDS
;	COMDAT ??_C@_0L@JBBAJBMA@CChartItem@
CONST	SEGMENT
??_C@_0L@JBBAJBMA@CChartItem@ DB 'CChartItem', 00H	; `string'
CONST	ENDS
;	COMDAT ??_C@_01JLIPDDHJ@?3@
CONST	SEGMENT
??_C@_01JLIPDDHJ@?3@ DB ':', 00H			; `string'
CONST	ENDS
;	COMDAT ??_C@_03JALODAI@?$CFld@
CONST	SEGMENT
??_C@_03JALODAI@?$CFld@ DB '%ld', 00H			; `string'
CONST	ENDS
;	COMDAT ??_C@_05MGIINIKO@?$CF?$CK?42f@
CONST	SEGMENT
??_C@_05MGIINIKO@?$CF?$CK?42f@ DB '%*.2f', 00H		; `string'
CONST	ENDS
;	COMDAT ??_C@_05ODAIMMHC@?$CF?$CK?4?$CKs@
CONST	SEGMENT
??_C@_05ODAIMMHC@?$CF?$CK?4?$CKs@ DB '%*.*s', 00H	; `string'
CONST	ENDS
;	COMDAT ??_7CChartItem@@6B@
CONST	SEGMENT
??_7CChartItem@@6B@ DD FLAT:??_R4CChartItem@@6B@	; CChartItem::`vftable'
	DD	FLAT:?GetRuntimeClass@CChartItem@@UBEPAUCRuntimeClass@@XZ
	DD	FLAT:??_ECChartItem@@UAEPAXI@Z
	DD	FLAT:?Serialize@CObject@@UAEXAAVCArchive@@@Z
	DD	FLAT:?AssertValid@CObject@@UBEXXZ
	DD	FLAT:?Dump@CObject@@UBEXAAVCDumpContext@@@Z
	DD	FLAT:?OnCmdMsg@CCmdTarget@@UAEHIHPAXPAUAFX_CMDHANDLERINFO@@@Z
	DD	FLAT:?OnFinalRelease@CWnd@@UAEXXZ
	DD	FLAT:?IsInvokeAllowed@CCmdTarget@@UAEHJ@Z
	DD	FLAT:?GetDispatchIID@CCmdTarget@@UAEHPAU_GUID@@@Z
	DD	FLAT:?GetTypeInfoCount@CCmdTarget@@UAEIXZ
	DD	FLAT:?GetTypeLibCache@CCmdTarget@@UAEPAVCTypeLibCache@@XZ
	DD	FLAT:?GetTypeLib@CCmdTarget@@UAEJKPAPAUITypeLib@@@Z
	DD	FLAT:?GetMessageMap@CWnd@@MBEPBUAFX_MSGMAP@@XZ
	DD	FLAT:?GetCommandMap@CCmdTarget@@MBEPBUAFX_OLECMDMAP@@XZ
	DD	FLAT:?GetDispatchMap@CCmdTarget@@MBEPBUAFX_DISPMAP@@XZ
	DD	FLAT:?GetConnectionMap@CCmdTarget@@MBEPBUAFX_CONNECTIONMAP@@XZ
	DD	FLAT:?GetInterfaceMap@CWnd@@MBEPBUAFX_INTERFACEMAP@@XZ
	DD	FLAT:?GetEventSinkMap@CCmdTarget@@MBEPBUAFX_EVENTSINKMAP@@XZ
	DD	FLAT:?OnCreateAggregates@CCmdTarget@@UAEHXZ
	DD	FLAT:?GetInterfaceHook@CCmdTarget@@UAEPAUIUnknown@@PBX@Z
	DD	FLAT:?GetExtraConnectionPoints@CCmdTarget@@MAEHPAVCPtrArray@@@Z
	DD	FLAT:?GetConnectionHook@CCmdTarget@@MAEPAUIConnectionPoint@@ABU_GUID@@@Z
	DD	FLAT:?PreSubclassWindow@CWnd@@UAEXXZ
	DD	FLAT:?Create@CDRChartOcx@@UAEHPBD0KABUtagRECT@@PAVCWnd@@IPAUCCreateContext@@@Z
	DD	FLAT:?CreateEx@CWnd@@UAEHKPBD0KABUtagRECT@@PAV1@IPAX@Z
	DD	FLAT:?CreateEx@CWnd@@UAEHKPBD0KHHHHPAUHWND__@@PAUHMENU__@@PAX@Z
	DD	FLAT:?DestroyWindow@CChartItem@@UAEHXZ
	DD	FLAT:?PreCreateWindow@CWnd@@UAEHAAUtagCREATESTRUCTA@@@Z
	DD	FLAT:?CalcWindowRect@CWnd@@UAEXPAUtagRECT@@I@Z
	DD	FLAT:?GetMenu@CWnd@@UBEPAVCMenu@@XZ
	DD	FLAT:?SetMenu@CWnd@@UAEHPAVCMenu@@@Z
	DD	FLAT:?OnToolHitTest@CWnd@@UBEHVCPoint@@PAUtagTOOLINFOA@@@Z
	DD	FLAT:?GetScrollBarCtrl@CWnd@@UBEPAVCScrollBar@@H@Z
	DD	FLAT:?WinHelpA@CWnd@@UAEXKI@Z
	DD	FLAT:?HtmlHelpA@CWnd@@UAEXKI@Z
	DD	FLAT:?WinHelpInternal@CWnd@@UAEXKI@Z
	DD	FLAT:?ContinueModal@CWnd@@UAEHXZ
	DD	FLAT:?EndModalLoop@CWnd@@UAEXH@Z
	DD	FLAT:?OnDrawIconicThumbnailOrLivePreview@CWnd@@UAEXAAVCDC@@VCRect@@VCSize@@HAAH@Z
	DD	FLAT:?EnsureStdObj@CWnd@@UAEJXZ
	DD	FLAT:?get_accParent@CWnd@@UAEJPAPAUIDispatch@@@Z
	DD	FLAT:?get_accChildCount@CWnd@@UAEJPAJ@Z
	DD	FLAT:?get_accChild@CWnd@@UAEJUtagVARIANT@@PAPAUIDispatch@@@Z
	DD	FLAT:?get_accName@CWnd@@UAEJUtagVARIANT@@PAPA_W@Z
	DD	FLAT:?get_accValue@CWnd@@UAEJUtagVARIANT@@PAPA_W@Z
	DD	FLAT:?get_accDescription@CWnd@@UAEJUtagVARIANT@@PAPA_W@Z
	DD	FLAT:?get_accRole@CWnd@@UAEJUtagVARIANT@@PAU2@@Z
	DD	FLAT:?get_accState@CWnd@@UAEJUtagVARIANT@@PAU2@@Z
	DD	FLAT:?get_accHelp@CWnd@@UAEJUtagVARIANT@@PAPA_W@Z
	DD	FLAT:?get_accHelpTopic@CWnd@@UAEJPAPA_WUtagVARIANT@@PAJ@Z
	DD	FLAT:?get_accKeyboardShortcut@CWnd@@UAEJUtagVARIANT@@PAPA_W@Z
	DD	FLAT:?get_accFocus@CWnd@@UAEJPAUtagVARIANT@@@Z
	DD	FLAT:?get_accSelection@CWnd@@UAEJPAUtagVARIANT@@@Z
	DD	FLAT:?get_accDefaultAction@CWnd@@UAEJUtagVARIANT@@PAPA_W@Z
	DD	FLAT:?accSelect@CWnd@@UAEJJUtagVARIANT@@@Z
	DD	FLAT:?accLocation@CWnd@@UAEJPAJ000UtagVARIANT@@@Z
	DD	FLAT:?accNavigate@CWnd@@UAEJJUtagVARIANT@@PAU2@@Z
	DD	FLAT:?accHitTest@CWnd@@UAEJJJPAUtagVARIANT@@@Z
	DD	FLAT:?accDoDefaultAction@CWnd@@UAEJUtagVARIANT@@@Z
	DD	FLAT:?put_accName@CWnd@@UAEJUtagVARIANT@@PA_W@Z
	DD	FLAT:?put_accValue@CWnd@@UAEJUtagVARIANT@@PA_W@Z
	DD	FLAT:?SetProxy@CWnd@@UAEJPAUIAccessibleProxy@@@Z
	DD	FLAT:?CreateAccessibleProxy@CWnd@@UAEJIJPAJ@Z
	DD	FLAT:?OnCommand@CWnd@@MAEHIJ@Z
	DD	FLAT:?OnNotify@CWnd@@MAEHIJPAJ@Z
	DD	FLAT:?GetSuperWndProcAddr@CWnd@@MAEPAP6GJPAUHWND__@@IIJ@ZXZ
	DD	FLAT:?DoDataExchange@CWnd@@MAEXPAVCDataExchange@@@Z
	DD	FLAT:?BeginModalState@CWnd@@UAEXXZ
	DD	FLAT:?EndModalState@CWnd@@UAEXXZ
	DD	FLAT:?PreTranslateMessage@CWnd@@UAEHPAUtagMSG@@@Z
	DD	FLAT:?OnAmbientProperty@CWnd@@UAEHPAVCOleControlSite@@JPAUtagVARIANT@@@Z
	DD	FLAT:?WindowProc@CWnd@@MAEJIIJ@Z
	DD	FLAT:?OnWndMsg@CWnd@@MAEHIIJPAJ@Z
	DD	FLAT:?DefWindowProcA@CWnd@@MAEJIIJ@Z
	DD	FLAT:?PostNcDestroy@CWnd@@MAEXXZ
	DD	FLAT:?OnChildNotify@CWnd@@MAEHIIJPAJ@Z
	DD	FLAT:?OnTouchInputs@CWnd@@MAEHIPAUtagTOUCHINPUT@@@Z
	DD	FLAT:?OnTouchInput@CWnd@@MAEHVCPoint@@HHPAUtagTOUCHINPUT@@@Z
	DD	FLAT:?GetGestureStatus@CWnd@@MAEKVCPoint@@@Z
	DD	FLAT:?OnGestureZoom@CWnd@@MAEHVCPoint@@J@Z
	DD	FLAT:?OnGesturePan@CWnd@@MAEHVCPoint@@0@Z
	DD	FLAT:?OnGestureRotate@CWnd@@MAEHVCPoint@@N@Z
	DD	FLAT:?OnGestureTwoFingerTap@CWnd@@MAEHVCPoint@@@Z
	DD	FLAT:?OnGesturePressAndTap@CWnd@@MAEHVCPoint@@J@Z
	DD	FLAT:?ResizeDynamicLayout@CWnd@@MAEXXZ
	DD	FLAT:?CheckAutoCenter@CWnd@@UAEHXZ
	DD	FLAT:?IsFrameWnd@CWnd@@UBEHXZ
	DD	FLAT:?CreateControlContainer@CWnd@@MAEHPAPAVCOleControlContainer@@@Z
	DD	FLAT:?CreateControlSite@CWnd@@MAEHPAVCOleControlContainer@@PAPAVCOleControlSite@@IABU_GUID@@@Z
	DD	FLAT:?SetOccDialogInfo@CWnd@@MAEHPAU_AFX_OCC_DIALOG_INFO@@@Z
	DD	FLAT:?GetOccDialogInfo@CWnd@@MAEPAU_AFX_OCC_DIALOG_INFO@@XZ
CONST	ENDS
;	COMDAT ??_7CXIBaseDesk@CChartItem@@6B@
CONST	SEGMENT
??_7CXIBaseDesk@CChartItem@@6B@ DD FLAT:??_R4CXIBaseDesk@CChartItem@@6B@ ; CChartItem::CXIBaseDesk::`vftable'
	DD	FLAT:?GetBasePath@CXIBaseDesk@CChartItem@@UAEPBDXZ
	DD	FLAT:?GetDeskHwnd@CXIBaseDesk@CChartItem@@UAEPAUHWND__@@XZ
	DD	FLAT:?GetUnknown@CXIBaseDesk@CChartItem@@UAEPAUIDispatch@@XZ
	DD	FLAT:?GetCtrlUnknown@CXIBaseDesk@CChartItem@@UAEPAUIUnknown@@PBD@Z
	DD	FLAT:?GetCtrlHwnd@CXIBaseDesk@CChartItem@@UAEPAUHWND__@@PBD@Z
	DD	FLAT:?GetSharedInterface@CXIBaseDesk@CChartItem@@UAEPAXXZ
	DD	FLAT:?InvokeEvent@CXIBaseDesk@CChartItem@@UAEHPAUHWND__@@PBD1@Z
	DD	FLAT:?InvokeEvent2@CXIBaseDesk@CChartItem@@UAEHPBD00@Z
	DD	FLAT:?SendKey@CXIBaseDesk@CChartItem@@UAEHPAUHWND__@@IHH@Z
	DD	FLAT:?GetLSharedData@CXIBaseDesk@CChartItem@@UAEPAXXZ
	DD	FLAT:?CallCommand@CXIBaseDesk@CChartItem@@UAEXPBD@Z
	DD	FLAT:?GetUserColor@CXIBaseDesk@CChartItem@@UAEKFPBDF@Z
	DD	FLAT:?GetDeskInfo@CXIBaseDesk@CChartItem@@UAEJPBD@Z
	DD	FLAT:?GetUserInfo@CXIBaseDesk@CChartItem@@UAEJPBD@Z
	DD	FLAT:?GetFrameInfo@CXIBaseDesk@CChartItem@@UAEJPBD@Z
	DD	FLAT:?GetMainInfo@CXIBaseDesk@CChartItem@@UAEJPBD@Z
	DD	FLAT:?FP_nGetCtrlPos@CXIBaseDesk@CChartItem@@UAEJXZ
	DD	FLAT:?FP_vResizeCtrl@CXIBaseDesk@CChartItem@@UAEXXZ
	DD	FLAT:?SetMapMessage@CXIBaseDesk@CChartItem@@UAEXJPBD@Z
	DD	FLAT:?FP_vAdviseDebug@CXIBaseDesk@CChartItem@@UAEHPBDI@Z
	DD	FLAT:?FP_vUnadviseDebug@CXIBaseDesk@CChartItem@@UAEXPBDI@Z
	DD	FLAT:?FP_sGetMyVBName@CXIBaseDesk@CChartItem@@UAEPBDPAUHWND__@@@Z
	DD	FLAT:?FP_vSendDebug@CXIBaseDesk@CChartItem@@UAEXPBD00@Z
	DD	FLAT:?FP_nGetDataInt@CXIBaseDesk@CChartItem@@UAEHH@Z
CONST	ENDS
;	COMDAT ??_7?$CArray@PAVCChartItemData@@PAV1@@@6B@
CONST	SEGMENT
??_7?$CArray@PAVCChartItemData@@PAV1@@@6B@ DD FLAT:??_R4?$CArray@PAVCChartItemData@@PAV1@@@6B@ ; CArray<CChartItemData *,CChartItemData *>::`vftable'
	DD	FLAT:?GetRuntimeClass@CObject@@UBEPAUCRuntimeClass@@XZ
	DD	FLAT:??_E?$CArray@PAVCChartItemData@@PAV1@@@UAEPAXI@Z
	DD	FLAT:?Serialize@?$CArray@PAVCChartItemData@@PAV1@@@UAEXAAVCArchive@@@Z
	DD	FLAT:?AssertValid@CObject@@UBEXXZ
	DD	FLAT:?Dump@CObject@@UBEXAAVCDumpContext@@@Z
CONST	ENDS
;	COMDAT ?classCChartItem@CChartItem@@2UCRuntimeClass@@B
CONST	SEGMENT
?classCChartItem@CChartItem@@2UCRuntimeClass@@B DD FLAT:??_C@_0L@JBBAJBMA@CChartItem@ ; CChartItem::classCChartItem
	DD	05e0H
	DD	0ffffH
	DD	00H
	DD	FLAT:?_GetBaseClass@CChartItem@@KGPAUCRuntimeClass@@XZ
	DD	00H
	DD	00H
CONST	ENDS
;	COMDAT ?clsid@?1??GetClsid@CDRChartOcx@@QAEABU_GUID@@XZ@4U3@B
CONST	SEGMENT
?clsid@?1??GetClsid@CDRChartOcx@@QAEABU_GUID@@XZ@4U3@B DD 0b98261e1H ; `CDRChartOcx::GetClsid'::`2'::clsid
	DW	0b73dH
	DW	04bb1H
	DB	090H
	DB	0d6H
	DB	0e6H
	DB	0c8H
	DB	0baH
	DB	0aeH
	DB	0ebH
	DB	0d5H
CONST	ENDS
;	COMDAT ??_7CDRChartOcx@@6B@
CONST	SEGMENT
??_7CDRChartOcx@@6B@ DD FLAT:??_R4CDRChartOcx@@6B@	; CDRChartOcx::`vftable'
	DD	FLAT:?GetRuntimeClass@CDRChartOcx@@UBEPAUCRuntimeClass@@XZ
	DD	FLAT:??_ECDRChartOcx@@UAEPAXI@Z
	DD	FLAT:?Serialize@CObject@@UAEXAAVCArchive@@@Z
	DD	FLAT:?AssertValid@CObject@@UBEXXZ
	DD	FLAT:?Dump@CObject@@UBEXAAVCDumpContext@@@Z
	DD	FLAT:?OnCmdMsg@CCmdTarget@@UAEHIHPAXPAUAFX_CMDHANDLERINFO@@@Z
	DD	FLAT:?OnFinalRelease@CWnd@@UAEXXZ
	DD	FLAT:?IsInvokeAllowed@CCmdTarget@@UAEHJ@Z
	DD	FLAT:?GetDispatchIID@CCmdTarget@@UAEHPAU_GUID@@@Z
	DD	FLAT:?GetTypeInfoCount@CCmdTarget@@UAEIXZ
	DD	FLAT:?GetTypeLibCache@CCmdTarget@@UAEPAVCTypeLibCache@@XZ
	DD	FLAT:?GetTypeLib@CCmdTarget@@UAEJKPAPAUITypeLib@@@Z
	DD	FLAT:?GetMessageMap@CWnd@@MBEPBUAFX_MSGMAP@@XZ
	DD	FLAT:?GetCommandMap@CCmdTarget@@MBEPBUAFX_OLECMDMAP@@XZ
	DD	FLAT:?GetDispatchMap@CCmdTarget@@MBEPBUAFX_DISPMAP@@XZ
	DD	FLAT:?GetConnectionMap@CCmdTarget@@MBEPBUAFX_CONNECTIONMAP@@XZ
	DD	FLAT:?GetInterfaceMap@CWnd@@MBEPBUAFX_INTERFACEMAP@@XZ
	DD	FLAT:?GetEventSinkMap@CCmdTarget@@MBEPBUAFX_EVENTSINKMAP@@XZ
	DD	FLAT:?OnCreateAggregates@CCmdTarget@@UAEHXZ
	DD	FLAT:?GetInterfaceHook@CCmdTarget@@UAEPAUIUnknown@@PBX@Z
	DD	FLAT:?GetExtraConnectionPoints@CCmdTarget@@MAEHPAVCPtrArray@@@Z
	DD	FLAT:?GetConnectionHook@CCmdTarget@@MAEPAUIConnectionPoint@@ABU_GUID@@@Z
	DD	FLAT:?PreSubclassWindow@CWnd@@UAEXXZ
	DD	FLAT:?Create@CDRChartOcx@@UAEHPBD0KABUtagRECT@@PAVCWnd@@IPAUCCreateContext@@@Z
	DD	FLAT:?CreateEx@CWnd@@UAEHKPBD0KABUtagRECT@@PAV1@IPAX@Z
	DD	FLAT:?CreateEx@CWnd@@UAEHKPBD0KHHHHPAUHWND__@@PAUHMENU__@@PAX@Z
	DD	FLAT:?DestroyWindow@CWnd@@UAEHXZ
	DD	FLAT:?PreCreateWindow@CWnd@@UAEHAAUtagCREATESTRUCTA@@@Z
	DD	FLAT:?CalcWindowRect@CWnd@@UAEXPAUtagRECT@@I@Z
	DD	FLAT:?GetMenu@CWnd@@UBEPAVCMenu@@XZ
	DD	FLAT:?SetMenu@CWnd@@UAEHPAVCMenu@@@Z
	DD	FLAT:?OnToolHitTest@CWnd@@UBEHVCPoint@@PAUtagTOOLINFOA@@@Z
	DD	FLAT:?GetScrollBarCtrl@CWnd@@UBEPAVCScrollBar@@H@Z
	DD	FLAT:?WinHelpA@CWnd@@UAEXKI@Z
	DD	FLAT:?HtmlHelpA@CWnd@@UAEXKI@Z
	DD	FLAT:?WinHelpInternal@CWnd@@UAEXKI@Z
	DD	FLAT:?ContinueModal@CWnd@@UAEHXZ
	DD	FLAT:?EndModalLoop@CWnd@@UAEXH@Z
	DD	FLAT:?OnDrawIconicThumbnailOrLivePreview@CWnd@@UAEXAAVCDC@@VCRect@@VCSize@@HAAH@Z
	DD	FLAT:?EnsureStdObj@CWnd@@UAEJXZ
	DD	FLAT:?get_accParent@CWnd@@UAEJPAPAUIDispatch@@@Z
	DD	FLAT:?get_accChildCount@CWnd@@UAEJPAJ@Z
	DD	FLAT:?get_accChild@CWnd@@UAEJUtagVARIANT@@PAPAUIDispatch@@@Z
	DD	FLAT:?get_accName@CWnd@@UAEJUtagVARIANT@@PAPA_W@Z
	DD	FLAT:?get_accValue@CWnd@@UAEJUtagVARIANT@@PAPA_W@Z
	DD	FLAT:?get_accDescription@CWnd@@UAEJUtagVARIANT@@PAPA_W@Z
	DD	FLAT:?get_accRole@CWnd@@UAEJUtagVARIANT@@PAU2@@Z
	DD	FLAT:?get_accState@CWnd@@UAEJUtagVARIANT@@PAU2@@Z
	DD	FLAT:?get_accHelp@CWnd@@UAEJUtagVARIANT@@PAPA_W@Z
	DD	FLAT:?get_accHelpTopic@CWnd@@UAEJPAPA_WUtagVARIANT@@PAJ@Z
	DD	FLAT:?get_accKeyboardShortcut@CWnd@@UAEJUtagVARIANT@@PAPA_W@Z
	DD	FLAT:?get_accFocus@CWnd@@UAEJPAUtagVARIANT@@@Z
	DD	FLAT:?get_accSelection@CWnd@@UAEJPAUtagVARIANT@@@Z
	DD	FLAT:?get_accDefaultAction@CWnd@@UAEJUtagVARIANT@@PAPA_W@Z
	DD	FLAT:?accSelect@CWnd@@UAEJJUtagVARIANT@@@Z
	DD	FLAT:?accLocation@CWnd@@UAEJPAJ000UtagVARIANT@@@Z
	DD	FLAT:?accNavigate@CWnd@@UAEJJUtagVARIANT@@PAU2@@Z
	DD	FLAT:?accHitTest@CWnd@@UAEJJJPAUtagVARIANT@@@Z
	DD	FLAT:?accDoDefaultAction@CWnd@@UAEJUtagVARIANT@@@Z
	DD	FLAT:?put_accName@CWnd@@UAEJUtagVARIANT@@PA_W@Z
	DD	FLAT:?put_accValue@CWnd@@UAEJUtagVARIANT@@PA_W@Z
	DD	FLAT:?SetProxy@CWnd@@UAEJPAUIAccessibleProxy@@@Z
	DD	FLAT:?CreateAccessibleProxy@CWnd@@UAEJIJPAJ@Z
	DD	FLAT:?OnCommand@CWnd@@MAEHIJ@Z
	DD	FLAT:?OnNotify@CWnd@@MAEHIJPAJ@Z
	DD	FLAT:?GetSuperWndProcAddr@CWnd@@MAEPAP6GJPAUHWND__@@IIJ@ZXZ
	DD	FLAT:?DoDataExchange@CWnd@@MAEXPAVCDataExchange@@@Z
	DD	FLAT:?BeginModalState@CWnd@@UAEXXZ
	DD	FLAT:?EndModalState@CWnd@@UAEXXZ
	DD	FLAT:?PreTranslateMessage@CWnd@@UAEHPAUtagMSG@@@Z
	DD	FLAT:?OnAmbientProperty@CWnd@@UAEHPAVCOleControlSite@@JPAUtagVARIANT@@@Z
	DD	FLAT:?WindowProc@CWnd@@MAEJIIJ@Z
	DD	FLAT:?OnWndMsg@CWnd@@MAEHIIJPAJ@Z
	DD	FLAT:?DefWindowProcA@CWnd@@MAEJIIJ@Z
	DD	FLAT:?PostNcDestroy@CWnd@@MAEXXZ
	DD	FLAT:?OnChildNotify@CWnd@@MAEHIIJPAJ@Z
	DD	FLAT:?OnTouchInputs@CWnd@@MAEHIPAUtagTOUCHINPUT@@@Z
	DD	FLAT:?OnTouchInput@CWnd@@MAEHVCPoint@@HHPAUtagTOUCHINPUT@@@Z
	DD	FLAT:?GetGestureStatus@CWnd@@MAEKVCPoint@@@Z
	DD	FLAT:?OnGestureZoom@CWnd@@MAEHVCPoint@@J@Z
	DD	FLAT:?OnGesturePan@CWnd@@MAEHVCPoint@@0@Z
	DD	FLAT:?OnGestureRotate@CWnd@@MAEHVCPoint@@N@Z
	DD	FLAT:?OnGestureTwoFingerTap@CWnd@@MAEHVCPoint@@@Z
	DD	FLAT:?OnGesturePressAndTap@CWnd@@MAEHVCPoint@@J@Z
	DD	FLAT:?ResizeDynamicLayout@CWnd@@MAEXXZ
	DD	FLAT:?CheckAutoCenter@CWnd@@UAEHXZ
	DD	FLAT:?IsFrameWnd@CWnd@@UBEHXZ
	DD	FLAT:?CreateControlContainer@CWnd@@MAEHPAPAVCOleControlContainer@@@Z
	DD	FLAT:?CreateControlSite@CWnd@@MAEHPAVCOleControlContainer@@PAPAVCOleControlSite@@IABU_GUID@@@Z
	DD	FLAT:?SetOccDialogInfo@CWnd@@MAEHPAU_AFX_OCC_DIALOG_INFO@@@Z
	DD	FLAT:?GetOccDialogInfo@CWnd@@MAEPAU_AFX_OCC_DIALOG_INFO@@XZ
CONST	ENDS
;	COMDAT ??_R2CCmdTarget@@8
rdata$r	SEGMENT
??_R2CCmdTarget@@8 DD FLAT:??_R1A@?0A@EA@CCmdTarget@@8	; CCmdTarget::`RTTI Base Class Array'
	DD	FLAT:??_R1A@?0A@EA@CObject@@8
rdata$r	ENDS
;	COMDAT ??_R3CCmdTarget@@8
rdata$r	SEGMENT
??_R3CCmdTarget@@8 DD 00H				; CCmdTarget::`RTTI Class Hierarchy Descriptor'
	DD	00H
	DD	02H
	DD	FLAT:??_R2CCmdTarget@@8
rdata$r	ENDS
;	COMDAT ??_R0?AVCCmdTarget@@@8
data$rs	SEGMENT
??_R0?AVCCmdTarget@@@8 DD FLAT:??_7type_info@@6B@	; CCmdTarget `RTTI Type Descriptor'
	DD	00H
	DB	'.?AVCCmdTarget@@', 00H
data$rs	ENDS
;	COMDAT ??_R1A@?0A@EA@CCmdTarget@@8
rdata$r	SEGMENT
??_R1A@?0A@EA@CCmdTarget@@8 DD FLAT:??_R0?AVCCmdTarget@@@8 ; CCmdTarget::`RTTI Base Class Descriptor at (0,-1,0,64)'
	DD	01H
	DD	00H
	DD	0ffffffffH
	DD	00H
	DD	040H
	DD	FLAT:??_R3CCmdTarget@@8
rdata$r	ENDS
;	COMDAT ??_R2CWnd@@8
rdata$r	SEGMENT
??_R2CWnd@@8 DD	FLAT:??_R1A@?0A@EA@CWnd@@8		; CWnd::`RTTI Base Class Array'
	DD	FLAT:??_R1A@?0A@EA@CCmdTarget@@8
	DD	FLAT:??_R1A@?0A@EA@CObject@@8
rdata$r	ENDS
;	COMDAT ??_R3CWnd@@8
rdata$r	SEGMENT
??_R3CWnd@@8 DD	00H					; CWnd::`RTTI Class Hierarchy Descriptor'
	DD	00H
	DD	03H
	DD	FLAT:??_R2CWnd@@8
rdata$r	ENDS
;	COMDAT ??_R0?AVCWnd@@@8
data$rs	SEGMENT
??_R0?AVCWnd@@@8 DD FLAT:??_7type_info@@6B@		; CWnd `RTTI Type Descriptor'
	DD	00H
	DB	'.?AVCWnd@@', 00H
data$rs	ENDS
;	COMDAT ??_R1A@?0A@EA@CWnd@@8
rdata$r	SEGMENT
??_R1A@?0A@EA@CWnd@@8 DD FLAT:??_R0?AVCWnd@@@8		; CWnd::`RTTI Base Class Descriptor at (0,-1,0,64)'
	DD	02H
	DD	00H
	DD	0ffffffffH
	DD	00H
	DD	040H
	DD	FLAT:??_R3CWnd@@8
rdata$r	ENDS
;	COMDAT ??_R1A@?0A@EA@CObject@@8
rdata$r	SEGMENT
??_R1A@?0A@EA@CObject@@8 DD FLAT:??_R0?AVCObject@@@8	; CObject::`RTTI Base Class Descriptor at (0,-1,0,64)'
	DD	00H
	DD	00H
	DD	0ffffffffH
	DD	00H
	DD	040H
	DD	FLAT:??_R3CObject@@8
rdata$r	ENDS
;	COMDAT ??_R2CObject@@8
rdata$r	SEGMENT
??_R2CObject@@8 DD FLAT:??_R1A@?0A@EA@CObject@@8	; CObject::`RTTI Base Class Array'
rdata$r	ENDS
;	COMDAT ??_R3CObject@@8
rdata$r	SEGMENT
??_R3CObject@@8 DD 00H					; CObject::`RTTI Class Hierarchy Descriptor'
	DD	00H
	DD	01H
	DD	FLAT:??_R2CObject@@8
rdata$r	ENDS
;	COMDAT ??_R0?AVCObject@@@8
data$rs	SEGMENT
??_R0?AVCObject@@@8 DD FLAT:??_7type_info@@6B@		; CObject `RTTI Type Descriptor'
	DD	00H
	DB	'.?AVCObject@@', 00H
data$rs	ENDS
;	COMDAT ??_C@_01GBGANLPD@0@
CONST	SEGMENT
??_C@_01GBGANLPD@0@ DB '0', 00H				; `string'
CONST	ENDS
;	COMDAT ??_C@_01KICIPPFI@?2@
CONST	SEGMENT
??_C@_01KICIPPFI@?2@ DB '\', 00H			; `string'
CONST	ENDS
;	COMDAT ??_C@_02EMFKHFLK@?$CFX@
CONST	SEGMENT
??_C@_02EMFKHFLK@?$CFX@ DB '%X', 00H			; `string'
CONST	ENDS
;	COMDAT ??_C@_06NDLAHCHE@?$CFs?$CF08X@
CONST	SEGMENT
??_C@_06NDLAHCHE@?$CFs?$CF08X@ DB '%s%08X', 00H		; `string'
CONST	ENDS
;	COMDAT ??_C@_0P@IDMAJEGN@HANAROPCTRMAIN@
CONST	SEGMENT
??_C@_0P@IDMAJEGN@HANAROPCTRMAIN@ DB 'HANAROPCTRMAIN', 00H ; `string'
CONST	ENDS
;	COMDAT ??_C@_0M@CBBNGGHM@PcTrMng?4dll@
CONST	SEGMENT
??_C@_0M@CBBNGGHM@PcTrMng?4dll@ DB 'PcTrMng.dll', 00H	; `string'
CONST	ENDS
;	COMDAT ??_7CBaseDesk2@@6B@
CONST	SEGMENT
??_7CBaseDesk2@@6B@ DD FLAT:??_R4CBaseDesk2@@6B@	; CBaseDesk2::`vftable'
	DD	FLAT:?GetBasePath@CBaseDesk@@UAEPBDXZ
	DD	FLAT:?GetDeskHwnd@CBaseDesk@@UAEPAUHWND__@@XZ
	DD	FLAT:?GetUnknown@CBaseDesk@@UAEPAUIDispatch@@XZ
	DD	FLAT:?GetCtrlUnknown@CBaseDesk@@UAEPAUIUnknown@@PBD@Z
	DD	FLAT:?GetCtrlHwnd@CBaseDesk@@UAEPAUHWND__@@PBD@Z
	DD	FLAT:?GetSharedInterface@CBaseDesk@@UAEPAXXZ
	DD	FLAT:?InvokeEvent@CBaseDesk@@UAEHPAUHWND__@@PBD1@Z
	DD	FLAT:?InvokeEvent2@CBaseDesk@@UAEHPBD00@Z
	DD	FLAT:?SendKey@CBaseDesk@@UAEHPAUHWND__@@IHH@Z
	DD	FLAT:?GetLSharedData@CBaseDesk@@UAEPAXXZ
	DD	FLAT:?CallCommand@CBaseDesk@@UAEXPBD@Z
	DD	FLAT:?GetUserColor@CBaseDesk2@@UAEKFPBDF@Z
	DD	FLAT:?GetDeskInfo@CBaseDesk2@@UAEJPBD@Z
	DD	FLAT:?GetUserInfo@CBaseDesk2@@UAEJPBD@Z
	DD	FLAT:?GetFrameInfo@CBaseDesk2@@UAEJPBD@Z
	DD	FLAT:?GetMainInfo@CBaseDesk2@@UAEJPBD@Z
	DD	FLAT:?FP_nGetCtrlPos@CBaseDesk2@@UAEJXZ
	DD	FLAT:?FP_vResizeCtrl@CBaseDesk2@@UAEXXZ
	DD	FLAT:?SetMapMessage@CBaseDesk2@@UAEXJPBD@Z
CONST	ENDS
;	COMDAT ??_7CBaseDesk@@6B@
CONST	SEGMENT
??_7CBaseDesk@@6B@ DD FLAT:??_R4CBaseDesk@@6B@		; CBaseDesk::`vftable'
	DD	FLAT:?GetBasePath@CBaseDesk@@UAEPBDXZ
	DD	FLAT:?GetDeskHwnd@CBaseDesk@@UAEPAUHWND__@@XZ
	DD	FLAT:?GetUnknown@CBaseDesk@@UAEPAUIDispatch@@XZ
	DD	FLAT:?GetCtrlUnknown@CBaseDesk@@UAEPAUIUnknown@@PBD@Z
	DD	FLAT:?GetCtrlHwnd@CBaseDesk@@UAEPAUHWND__@@PBD@Z
	DD	FLAT:?GetSharedInterface@CBaseDesk@@UAEPAXXZ
	DD	FLAT:?InvokeEvent@CBaseDesk@@UAEHPAUHWND__@@PBD1@Z
	DD	FLAT:?InvokeEvent2@CBaseDesk@@UAEHPBD00@Z
	DD	FLAT:?SendKey@CBaseDesk@@UAEHPAUHWND__@@IHH@Z
	DD	FLAT:?GetLSharedData@CBaseDesk@@UAEPAXXZ
	DD	FLAT:?CallCommand@CBaseDesk@@UAEXPBD@Z
CONST	ENDS
;	COMDAT ??_C@_02DKCKIIND@?$CFs@
CONST	SEGMENT
??_C@_02DKCKIIND@?$CFs@ DB '%s', 00H			; `string'
CONST	ENDS
;	COMDAT ??_C@_01HIHLOKLC@1@
CONST	SEGMENT
??_C@_01HIHLOKLC@1@ DB '1', 00H				; `string'
CONST	ENDS
;	COMDAT ??_C@_00CNPNBAHC@@
CONST	SEGMENT
??_C@_00CNPNBAHC@@ DB 00H				; `string'
CONST	ENDS
;	COMDAT ?_AtlWinModule@ATL@@3VCAtlWinModule@1@A
_DATA	SEGMENT
?_AtlWinModule@ATL@@3VCAtlWinModule@1@A DD 02cH		; ATL::_AtlWinModule
	DB	24 DUP(00H)
	DD	00H
_DATA	ENDS
;	COMDAT ??_C@_02DPKJAMEF@?$CFd@
CONST	SEGMENT
??_C@_02DPKJAMEF@?$CFd@ DB '%d', 00H			; `string'
CONST	ENDS
;	COMDAT xdata$x
xdata$x	SEGMENT
__ehfuncinfo$??_Estringdispid@CComTypeInfoHolder@ATL@@QAEPAXI@Z DD 019930522H
	DD	00H
	DD	00H
	DD	2 DUP(00H)
	DD	2 DUP(00H)
	DD	00H
	DD	05H
xdata$x	ENDS
;	COMDAT xdata$x
xdata$x	SEGMENT
__unwindtable$?_doCheckRQCount@CChartItem@@QAEHV?$CStringT@DV?$StrTraitMFC_DLL@DV?$ChTraitsCRT@D@ATL@@@@@ATL@@@Z DD 0ffffffffH
	DD	FLAT:__unwindfunclet$?_doCheckRQCount@CChartItem@@QAEHV?$CStringT@DV?$StrTraitMFC_DLL@DV?$ChTraitsCRT@D@ATL@@@@@ATL@@@Z$0
	DD	00H
	DD	FLAT:__unwindfunclet$?_doCheckRQCount@CChartItem@@QAEHV?$CStringT@DV?$StrTraitMFC_DLL@DV?$ChTraitsCRT@D@ATL@@@@@ATL@@@Z$1
	DD	00H
	DD	FLAT:__unwindfunclet$?_doCheckRQCount@CChartItem@@QAEHV?$CStringT@DV?$StrTraitMFC_DLL@DV?$ChTraitsCRT@D@ATL@@@@@ATL@@@Z$2
	DD	00H
	DD	FLAT:__unwindfunclet$?_doCheckRQCount@CChartItem@@QAEHV?$CStringT@DV?$StrTraitMFC_DLL@DV?$ChTraitsCRT@D@ATL@@@@@ATL@@@Z$3
__ehfuncinfo$?_doCheckRQCount@CChartItem@@QAEHV?$CStringT@DV?$StrTraitMFC_DLL@DV?$ChTraitsCRT@D@ATL@@@@@ATL@@@Z DD 019930522H
	DD	04H
	DD	FLAT:__unwindtable$?_doCheckRQCount@CChartItem@@QAEHV?$CStringT@DV?$StrTraitMFC_DLL@DV?$ChTraitsCRT@D@ATL@@@@@ATL@@@Z
	DD	2 DUP(00H)
	DD	2 DUP(00H)
	DD	00H
	DD	01H
xdata$x	ENDS
;	COMDAT xdata$x
xdata$x	SEGMENT
__ehfuncinfo$?_doCheckCodeAndTR@CChartItem@@QAEHPAD0PAV?$CStringT@DV?$StrTraitMFC_DLL@DV?$ChTraitsCRT@D@ATL@@@@@ATL@@PBD2@Z DD 019930522H
	DD	08H
	DD	FLAT:__unwindtable$?_doCheckCodeAndTR@CChartItem@@QAEHPAD0PAV?$CStringT@DV?$StrTraitMFC_DLL@DV?$ChTraitsCRT@D@ATL@@@@@ATL@@PBD2@Z
	DD	2 DUP(00H)
	DD	2 DUP(00H)
	DD	00H
	DD	01H
__unwindtable$?_doCheckCodeAndTR@CChartItem@@QAEHPAD0PAV?$CStringT@DV?$StrTraitMFC_DLL@DV?$ChTraitsCRT@D@ATL@@@@@ATL@@PBD2@Z DD 0ffffffffH
	DD	FLAT:__unwindfunclet$?_doCheckCodeAndTR@CChartItem@@QAEHPAD0PAV?$CStringT@DV?$StrTraitMFC_DLL@DV?$ChTraitsCRT@D@ATL@@@@@ATL@@PBD2@Z$0
	DD	00H
	DD	FLAT:__unwindfunclet$?_doCheckCodeAndTR@CChartItem@@QAEHPAD0PAV?$CStringT@DV?$StrTraitMFC_DLL@DV?$ChTraitsCRT@D@ATL@@@@@ATL@@PBD2@Z$1
	DD	01H
	DD	FLAT:__unwindfunclet$?_doCheckCodeAndTR@CChartItem@@QAEHPAD0PAV?$CStringT@DV?$StrTraitMFC_DLL@DV?$ChTraitsCRT@D@ATL@@@@@ATL@@PBD2@Z$5
	DD	02H
	DD	FLAT:__unwindfunclet$?_doCheckCodeAndTR@CChartItem@@QAEHPAD0PAV?$CStringT@DV?$StrTraitMFC_DLL@DV?$ChTraitsCRT@D@ATL@@@@@ATL@@PBD2@Z$6
	DD	02H
	DD	FLAT:__unwindfunclet$?_doCheckCodeAndTR@CChartItem@@QAEHPAD0PAV?$CStringT@DV?$StrTraitMFC_DLL@DV?$ChTraitsCRT@D@ATL@@@@@ATL@@PBD2@Z$7
	DD	02H
	DD	FLAT:__unwindfunclet$?_doCheckCodeAndTR@CChartItem@@QAEHPAD0PAV?$CStringT@DV?$StrTraitMFC_DLL@DV?$ChTraitsCRT@D@ATL@@@@@ATL@@PBD2@Z$8
	DD	01H
	DD	FLAT:__unwindfunclet$?_doCheckCodeAndTR@CChartItem@@QAEHPAD0PAV?$CStringT@DV?$StrTraitMFC_DLL@DV?$ChTraitsCRT@D@ATL@@@@@ATL@@PBD2@Z$3
	DD	06H
	DD	FLAT:__unwindfunclet$?_doCheckCodeAndTR@CChartItem@@QAEHPAD0PAV?$CStringT@DV?$StrTraitMFC_DLL@DV?$ChTraitsCRT@D@ATL@@@@@ATL@@PBD2@Z$4
xdata$x	ENDS
;	COMDAT xdata$x
xdata$x	SEGMENT
__ehfuncinfo$?GetOHLValue@CChartItem@@QAEXAAV?$CStringT@DV?$StrTraitMFC_DLL@DV?$ChTraitsCRT@D@ATL@@@@@ATL@@PBD000@Z DD 019930522H
	DD	05H
	DD	FLAT:__unwindtable$?GetOHLValue@CChartItem@@QAEXAAV?$CStringT@DV?$StrTraitMFC_DLL@DV?$ChTraitsCRT@D@ATL@@@@@ATL@@PBD000@Z
	DD	2 DUP(00H)
	DD	2 DUP(00H)
	DD	00H
	DD	01H
__unwindtable$?GetOHLValue@CChartItem@@QAEXAAV?$CStringT@DV?$StrTraitMFC_DLL@DV?$ChTraitsCRT@D@ATL@@@@@ATL@@PBD000@Z DD 0ffffffffH
	DD	FLAT:__unwindfunclet$?GetOHLValue@CChartItem@@QAEXAAV?$CStringT@DV?$StrTraitMFC_DLL@DV?$ChTraitsCRT@D@ATL@@@@@ATL@@PBD000@Z$0
	DD	00H
	DD	FLAT:__unwindfunclet$?GetOHLValue@CChartItem@@QAEXAAV?$CStringT@DV?$StrTraitMFC_DLL@DV?$ChTraitsCRT@D@ATL@@@@@ATL@@PBD000@Z$1
	DD	01H
	DD	FLAT:__unwindfunclet$?GetOHLValue@CChartItem@@QAEXAAV?$CStringT@DV?$StrTraitMFC_DLL@DV?$ChTraitsCRT@D@ATL@@@@@ATL@@PBD000@Z$2
	DD	01H
	DD	FLAT:__unwindfunclet$?GetOHLValue@CChartItem@@QAEXAAV?$CStringT@DV?$StrTraitMFC_DLL@DV?$ChTraitsCRT@D@ATL@@@@@ATL@@PBD000@Z$3
	DD	01H
	DD	FLAT:__unwindfunclet$?GetOHLValue@CChartItem@@QAEXAAV?$CStringT@DV?$StrTraitMFC_DLL@DV?$ChTraitsCRT@D@ATL@@@@@ATL@@PBD000@Z$4
xdata$x	ENDS
;	COMDAT xdata$x
xdata$x	SEGMENT
__ehfuncinfo$?GetOHLDataFromBojomsg@CChartItem@@QAEXV?$CStringT@DV?$StrTraitMFC_DLL@DV?$ChTraitsCRT@D@ATL@@@@@ATL@@AAV23@11@Z DD 019930522H
	DD	07H
	DD	FLAT:__unwindtable$?GetOHLDataFromBojomsg@CChartItem@@QAEXV?$CStringT@DV?$StrTraitMFC_DLL@DV?$ChTraitsCRT@D@ATL@@@@@ATL@@AAV23@11@Z
	DD	2 DUP(00H)
	DD	2 DUP(00H)
	DD	00H
	DD	01H
__unwindtable$?GetOHLDataFromBojomsg@CChartItem@@QAEXV?$CStringT@DV?$StrTraitMFC_DLL@DV?$ChTraitsCRT@D@ATL@@@@@ATL@@AAV23@11@Z DD 0ffffffffH
	DD	FLAT:__unwindfunclet$?GetOHLDataFromBojomsg@CChartItem@@QAEXV?$CStringT@DV?$StrTraitMFC_DLL@DV?$ChTraitsCRT@D@ATL@@@@@ATL@@AAV23@11@Z$0
	DD	00H
	DD	FLAT:__unwindfunclet$?GetOHLDataFromBojomsg@CChartItem@@QAEXV?$CStringT@DV?$StrTraitMFC_DLL@DV?$ChTraitsCRT@D@ATL@@@@@ATL@@AAV23@11@Z$1
	DD	00H
	DD	FLAT:__unwindfunclet$?GetOHLDataFromBojomsg@CChartItem@@QAEXV?$CStringT@DV?$StrTraitMFC_DLL@DV?$ChTraitsCRT@D@ATL@@@@@ATL@@AAV23@11@Z$2
	DD	00H
	DD	FLAT:__unwindfunclet$?GetOHLDataFromBojomsg@CChartItem@@QAEXV?$CStringT@DV?$StrTraitMFC_DLL@DV?$ChTraitsCRT@D@ATL@@@@@ATL@@AAV23@11@Z$3
	DD	00H
	DD	FLAT:__unwindfunclet$?GetOHLDataFromBojomsg@CChartItem@@QAEXV?$CStringT@DV?$StrTraitMFC_DLL@DV?$ChTraitsCRT@D@ATL@@@@@ATL@@AAV23@11@Z$4
	DD	00H
	DD	FLAT:__unwindfunclet$?GetOHLDataFromBojomsg@CChartItem@@QAEXV?$CStringT@DV?$StrTraitMFC_DLL@DV?$ChTraitsCRT@D@ATL@@@@@ATL@@AAV23@11@Z$5
	DD	00H
	DD	FLAT:__unwindfunclet$?GetOHLDataFromBojomsg@CChartItem@@QAEXV?$CStringT@DV?$StrTraitMFC_DLL@DV?$ChTraitsCRT@D@ATL@@@@@ATL@@AAV23@11@Z$6
xdata$x	ENDS
;	COMDAT xdata$x
xdata$x	SEGMENT
__unwindtable$?IsAvailableForReplay@CChartItem@@QAEHXZ DD 0ffffffffH
	DD	FLAT:__unwindfunclet$?IsAvailableForReplay@CChartItem@@QAEHXZ$0
	DD	00H
	DD	FLAT:__unwindfunclet$?IsAvailableForReplay@CChartItem@@QAEHXZ$1
	DD	0ffffffffH
	DD	FLAT:__unwindfunclet$?IsAvailableForReplay@CChartItem@@QAEHXZ$2
__ehfuncinfo$?IsAvailableForReplay@CChartItem@@QAEHXZ DD 019930522H
	DD	03H
	DD	FLAT:__unwindtable$?IsAvailableForReplay@CChartItem@@QAEHXZ
	DD	2 DUP(00H)
	DD	2 DUP(00H)
	DD	00H
	DD	01H
xdata$x	ENDS
;	COMDAT xdata$x
xdata$x	SEGMENT
__unwindtable$?GetRealRefCount@CChartItem@@QAEHXZ DD 0ffffffffH
	DD	FLAT:__unwindfunclet$?GetRealRefCount@CChartItem@@QAEHXZ$0
__ehfuncinfo$?GetRealRefCount@CChartItem@@QAEHXZ DD 019930522H
	DD	01H
	DD	FLAT:__unwindtable$?GetRealRefCount@CChartItem@@QAEHXZ
	DD	2 DUP(00H)
	DD	2 DUP(00H)
	DD	00H
	DD	01H
xdata$x	ENDS
;	COMDAT xdata$x
xdata$x	SEGMENT
__unwindtable$?FindSelectChartByItemCode@CChartItem@@QAEHPBDH@Z DD 0ffffffffH
	DD	FLAT:__unwindfunclet$?FindSelectChartByItemCode@CChartItem@@QAEHPBDH@Z$0
__ehfuncinfo$?FindSelectChartByItemCode@CChartItem@@QAEHPBDH@Z DD 019930522H
	DD	01H
	DD	FLAT:__unwindtable$?FindSelectChartByItemCode@CChartItem@@QAEHPBDH@Z
	DD	2 DUP(00H)
	DD	2 DUP(00H)
	DD	00H
	DD	01H
xdata$x	ENDS
;	COMDAT xdata$x
xdata$x	SEGMENT
__ehfuncinfo$?AddChartItem@CChartItem@@QAEXPAVCChartItemData@@PBD1D1JJH@Z DD 019930522H
	DD	05H
	DD	FLAT:__unwindtable$?AddChartItem@CChartItem@@QAEXPAVCChartItemData@@PBD1D1JJH@Z
	DD	2 DUP(00H)
	DD	2 DUP(00H)
	DD	00H
	DD	01H
__unwindtable$?AddChartItem@CChartItem@@QAEXPAVCChartItemData@@PBD1D1JJH@Z DD 0ffffffffH
	DD	FLAT:__unwindfunclet$?AddChartItem@CChartItem@@QAEXPAVCChartItemData@@PBD1D1JJH@Z$0
	DD	0ffffffffH
	DD	FLAT:__unwindfunclet$?AddChartItem@CChartItem@@QAEXPAVCChartItemData@@PBD1D1JJH@Z$1
	DD	01H
	DD	FLAT:__unwindfunclet$?AddChartItem@CChartItem@@QAEXPAVCChartItemData@@PBD1D1JJH@Z$2
	DD	01H
	DD	FLAT:__unwindfunclet$?AddChartItem@CChartItem@@QAEXPAVCChartItemData@@PBD1D1JJH@Z$3
	DD	03H
	DD	FLAT:__unwindfunclet$?AddChartItem@CChartItem@@QAEXPAVCChartItemData@@PBD1D1JJH@Z$4
xdata$x	ENDS
;	COMDAT xdata$x
xdata$x	SEGMENT
__unwindtable$?OnSelectChartItem@CChartItem@@QAEXPAU_ST_SELCHART@@H@Z DD 0ffffffffH
	DD	FLAT:__unwindfunclet$?OnSelectChartItem@CChartItem@@QAEXPAU_ST_SELCHART@@H@Z$5
__ehfuncinfo$?OnSelectChartItem@CChartItem@@QAEXPAU_ST_SELCHART@@H@Z DD 019930522H
	DD	01H
	DD	FLAT:__unwindtable$?OnSelectChartItem@CChartItem@@QAEXPAU_ST_SELCHART@@H@Z
	DD	2 DUP(00H)
	DD	2 DUP(00H)
	DD	00H
	DD	01H
xdata$x	ENDS
;	COMDAT xdata$x
xdata$x	SEGMENT
__unwindtable$?GetQueryOpt@CChartItem@@QAE?AV?$CStringT@DV?$StrTraitMFC_DLL@DV?$ChTraitsCRT@D@ATL@@@@@ATL@@XZ DD 0ffffffffH
	DD	FLAT:__unwindfunclet$?GetQueryOpt@CChartItem@@QAE?AV?$CStringT@DV?$StrTraitMFC_DLL@DV?$ChTraitsCRT@D@ATL@@@@@ATL@@XZ$0
__ehfuncinfo$?GetQueryOpt@CChartItem@@QAE?AV?$CStringT@DV?$StrTraitMFC_DLL@DV?$ChTraitsCRT@D@ATL@@@@@ATL@@XZ DD 019930522H
	DD	01H
	DD	FLAT:__unwindtable$?GetQueryOpt@CChartItem@@QAE?AV?$CStringT@DV?$StrTraitMFC_DLL@DV?$ChTraitsCRT@D@ATL@@@@@ATL@@XZ
	DD	2 DUP(00H)
	DD	2 DUP(00H)
	DD	00H
	DD	01H
xdata$x	ENDS
;	COMDAT xdata$x
xdata$x	SEGMENT
__ehfuncinfo$?GetLastHistoryCode@CChartItem@@QAE?AV?$CStringT@DV?$StrTraitMFC_DLL@DV?$ChTraitsCRT@D@ATL@@@@@ATL@@H@Z DD 019930522H
	DD	09H
	DD	FLAT:__unwindtable$?GetLastHistoryCode@CChartItem@@QAE?AV?$CStringT@DV?$StrTraitMFC_DLL@DV?$ChTraitsCRT@D@ATL@@@@@ATL@@H@Z
	DD	2 DUP(00H)
	DD	2 DUP(00H)
	DD	00H
	DD	01H
__unwindtable$?GetLastHistoryCode@CChartItem@@QAE?AV?$CStringT@DV?$StrTraitMFC_DLL@DV?$ChTraitsCRT@D@ATL@@@@@ATL@@H@Z DD 0ffffffffH
	DD	FLAT:__unwindfunclet$?GetLastHistoryCode@CChartItem@@QAE?AV?$CStringT@DV?$StrTraitMFC_DLL@DV?$ChTraitsCRT@D@ATL@@@@@ATL@@H@Z$0
	DD	00H
	DD	FLAT:__unwindfunclet$?GetLastHistoryCode@CChartItem@@QAE?AV?$CStringT@DV?$StrTraitMFC_DLL@DV?$ChTraitsCRT@D@ATL@@@@@ATL@@H@Z$2
	DD	00H
	DD	FLAT:__unwindfunclet$?GetLastHistoryCode@CChartItem@@QAE?AV?$CStringT@DV?$StrTraitMFC_DLL@DV?$ChTraitsCRT@D@ATL@@@@@ATL@@H@Z$3
	DD	00H
	DD	FLAT:__unwindfunclet$?GetLastHistoryCode@CChartItem@@QAE?AV?$CStringT@DV?$StrTraitMFC_DLL@DV?$ChTraitsCRT@D@ATL@@@@@ATL@@H@Z$5
	DD	00H
	DD	FLAT:__unwindfunclet$?GetLastHistoryCode@CChartItem@@QAE?AV?$CStringT@DV?$StrTraitMFC_DLL@DV?$ChTraitsCRT@D@ATL@@@@@ATL@@H@Z$6
	DD	00H
	DD	FLAT:__unwindfunclet$?GetLastHistoryCode@CChartItem@@QAE?AV?$CStringT@DV?$StrTraitMFC_DLL@DV?$ChTraitsCRT@D@ATL@@@@@ATL@@H@Z$8
	DD	00H
	DD	FLAT:__unwindfunclet$?GetLastHistoryCode@CChartItem@@QAE?AV?$CStringT@DV?$StrTraitMFC_DLL@DV?$ChTraitsCRT@D@ATL@@@@@ATL@@H@Z$9
	DD	00H
	DD	FLAT:__unwindfunclet$?GetLastHistoryCode@CChartItem@@QAE?AV?$CStringT@DV?$StrTraitMFC_DLL@DV?$ChTraitsCRT@D@ATL@@@@@ATL@@H@Z$11
	DD	00H
	DD	FLAT:__unwindfunclet$?GetLastHistoryCode@CChartItem@@QAE?AV?$CStringT@DV?$StrTraitMFC_DLL@DV?$ChTraitsCRT@D@ATL@@@@@ATL@@H@Z$12
xdata$x	ENDS
;	COMDAT xdata$x
xdata$x	SEGMENT
__unwindtable$?GetLoadedQueryData@CChartItem@@QAE?AV?$CStringT@DV?$StrTraitMFC_DLL@DV?$ChTraitsCRT@D@ATL@@@@@ATL@@XZ DD 0ffffffffH
	DD	FLAT:__unwindfunclet$?GetLoadedQueryData@CChartItem@@QAE?AV?$CStringT@DV?$StrTraitMFC_DLL@DV?$ChTraitsCRT@D@ATL@@@@@ATL@@XZ$1
__ehfuncinfo$?GetLoadedQueryData@CChartItem@@QAE?AV?$CStringT@DV?$StrTraitMFC_DLL@DV?$ChTraitsCRT@D@ATL@@@@@ATL@@XZ DD 019930522H
	DD	01H
	DD	FLAT:__unwindtable$?GetLoadedQueryData@CChartItem@@QAE?AV?$CStringT@DV?$StrTraitMFC_DLL@DV?$ChTraitsCRT@D@ATL@@@@@ATL@@XZ
	DD	2 DUP(00H)
	DD	2 DUP(00H)
	DD	00H
	DD	01H
xdata$x	ENDS
;	COMDAT xdata$x
xdata$x	SEGMENT
__ehfuncinfo$?GetOpenAndSaveFileName4PeriodRQ@CChartItem@@QAE?AV?$CStringT@DV?$StrTraitMFC_DLL@DV?$ChTraitsCRT@D@ATL@@@@@ATL@@D@Z DD 019930522H
	DD	0aH
	DD	FLAT:__unwindtable$?GetOpenAndSaveFileName4PeriodRQ@CChartItem@@QAE?AV?$CStringT@DV?$StrTraitMFC_DLL@DV?$ChTraitsCRT@D@ATL@@@@@ATL@@D@Z
	DD	2 DUP(00H)
	DD	2 DUP(00H)
	DD	00H
	DD	01H
__unwindtable$?GetOpenAndSaveFileName4PeriodRQ@CChartItem@@QAE?AV?$CStringT@DV?$StrTraitMFC_DLL@DV?$ChTraitsCRT@D@ATL@@@@@ATL@@D@Z DD 0ffffffffH
	DD	FLAT:__unwindfunclet$?GetOpenAndSaveFileName4PeriodRQ@CChartItem@@QAE?AV?$CStringT@DV?$StrTraitMFC_DLL@DV?$ChTraitsCRT@D@ATL@@@@@ATL@@D@Z$0
	DD	00H
	DD	FLAT:__unwindfunclet$?GetOpenAndSaveFileName4PeriodRQ@CChartItem@@QAE?AV?$CStringT@DV?$StrTraitMFC_DLL@DV?$ChTraitsCRT@D@ATL@@@@@ATL@@D@Z$1
	DD	01H
	DD	FLAT:__unwindfunclet$?GetOpenAndSaveFileName4PeriodRQ@CChartItem@@QAE?AV?$CStringT@DV?$StrTraitMFC_DLL@DV?$ChTraitsCRT@D@ATL@@@@@ATL@@D@Z$11
	DD	01H
	DD	FLAT:__unwindfunclet$?GetOpenAndSaveFileName4PeriodRQ@CChartItem@@QAE?AV?$CStringT@DV?$StrTraitMFC_DLL@DV?$ChTraitsCRT@D@ATL@@@@@ATL@@D@Z$12
	DD	01H
	DD	FLAT:__unwindfunclet$?GetOpenAndSaveFileName4PeriodRQ@CChartItem@@QAE?AV?$CStringT@DV?$StrTraitMFC_DLL@DV?$ChTraitsCRT@D@ATL@@@@@ATL@@D@Z$13
	DD	01H
	DD	FLAT:__unwindfunclet$?GetOpenAndSaveFileName4PeriodRQ@CChartItem@@QAE?AV?$CStringT@DV?$StrTraitMFC_DLL@DV?$ChTraitsCRT@D@ATL@@@@@ATL@@D@Z$14
	DD	01H
	DD	FLAT:__unwindfunclet$?GetOpenAndSaveFileName4PeriodRQ@CChartItem@@QAE?AV?$CStringT@DV?$StrTraitMFC_DLL@DV?$ChTraitsCRT@D@ATL@@@@@ATL@@D@Z$15
	DD	01H
	DD	FLAT:__unwindfunclet$?GetOpenAndSaveFileName4PeriodRQ@CChartItem@@QAE?AV?$CStringT@DV?$StrTraitMFC_DLL@DV?$ChTraitsCRT@D@ATL@@@@@ATL@@D@Z$16
	DD	01H
	DD	FLAT:__unwindfunclet$?GetOpenAndSaveFileName4PeriodRQ@CChartItem@@QAE?AV?$CStringT@DV?$StrTraitMFC_DLL@DV?$ChTraitsCRT@D@ATL@@@@@ATL@@D@Z$17
	DD	01H
	DD	FLAT:__unwindfunclet$?GetOpenAndSaveFileName4PeriodRQ@CChartItem@@QAE?AV?$CStringT@DV?$StrTraitMFC_DLL@DV?$ChTraitsCRT@D@ATL@@@@@ATL@@D@Z$18
xdata$x	ENDS
;	COMDAT xdata$x
xdata$x	SEGMENT
__ehfuncinfo$?GetOpenAndSaveFileName@CChartItem@@QAE?AV?$CStringT@DV?$StrTraitMFC_DLL@DV?$ChTraitsCRT@D@ATL@@@@@ATL@@H@Z DD 019930522H
	DD	0bH
	DD	FLAT:__unwindtable$?GetOpenAndSaveFileName@CChartItem@@QAE?AV?$CStringT@DV?$StrTraitMFC_DLL@DV?$ChTraitsCRT@D@ATL@@@@@ATL@@H@Z
	DD	2 DUP(00H)
	DD	2 DUP(00H)
	DD	00H
	DD	01H
__unwindtable$?GetOpenAndSaveFileName@CChartItem@@QAE?AV?$CStringT@DV?$StrTraitMFC_DLL@DV?$ChTraitsCRT@D@ATL@@@@@ATL@@H@Z DD 0ffffffffH
	DD	FLAT:__unwindfunclet$?GetOpenAndSaveFileName@CChartItem@@QAE?AV?$CStringT@DV?$StrTraitMFC_DLL@DV?$ChTraitsCRT@D@ATL@@@@@ATL@@H@Z$1
	DD	00H
	DD	FLAT:__unwindfunclet$?GetOpenAndSaveFileName@CChartItem@@QAE?AV?$CStringT@DV?$StrTraitMFC_DLL@DV?$ChTraitsCRT@D@ATL@@@@@ATL@@H@Z$2
	DD	01H
	DD	FLAT:__unwindfunclet$?GetOpenAndSaveFileName@CChartItem@@QAE?AV?$CStringT@DV?$StrTraitMFC_DLL@DV?$ChTraitsCRT@D@ATL@@@@@ATL@@H@Z$12
	DD	01H
	DD	FLAT:__unwindfunclet$?GetOpenAndSaveFileName@CChartItem@@QAE?AV?$CStringT@DV?$StrTraitMFC_DLL@DV?$ChTraitsCRT@D@ATL@@@@@ATL@@H@Z$13
	DD	01H
	DD	FLAT:__unwindfunclet$?GetOpenAndSaveFileName@CChartItem@@QAE?AV?$CStringT@DV?$StrTraitMFC_DLL@DV?$ChTraitsCRT@D@ATL@@@@@ATL@@H@Z$14
	DD	01H
	DD	FLAT:__unwindfunclet$?GetOpenAndSaveFileName@CChartItem@@QAE?AV?$CStringT@DV?$StrTraitMFC_DLL@DV?$ChTraitsCRT@D@ATL@@@@@ATL@@H@Z$15
	DD	01H
	DD	FLAT:__unwindfunclet$?GetOpenAndSaveFileName@CChartItem@@QAE?AV?$CStringT@DV?$StrTraitMFC_DLL@DV?$ChTraitsCRT@D@ATL@@@@@ATL@@H@Z$16
	DD	01H
	DD	FLAT:__unwindfunclet$?GetOpenAndSaveFileName@CChartItem@@QAE?AV?$CStringT@DV?$StrTraitMFC_DLL@DV?$ChTraitsCRT@D@ATL@@@@@ATL@@H@Z$17
	DD	01H
	DD	FLAT:__unwindfunclet$?GetOpenAndSaveFileName@CChartItem@@QAE?AV?$CStringT@DV?$StrTraitMFC_DLL@DV?$ChTraitsCRT@D@ATL@@@@@ATL@@H@Z$18
	DD	01H
	DD	FLAT:__unwindfunclet$?GetOpenAndSaveFileName@CChartItem@@QAE?AV?$CStringT@DV?$StrTraitMFC_DLL@DV?$ChTraitsCRT@D@ATL@@@@@ATL@@H@Z$19
	DD	01H
	DD	FLAT:__unwindfunclet$?GetOpenAndSaveFileName@CChartItem@@QAE?AV?$CStringT@DV?$StrTraitMFC_DLL@DV?$ChTraitsCRT@D@ATL@@@@@ATL@@H@Z$20
xdata$x	ENDS
;	COMDAT xdata$x
xdata$x	SEGMENT
__unwindtable$?InvokeEvent@CXIBaseDesk@CChartItem@@UAEHPAUHWND__@@PBD1@Z DD 0ffffffffH
	DD	FLAT:__unwindfunclet$?InvokeEvent@CXIBaseDesk@CChartItem@@UAEHPAUHWND__@@PBD1@Z$0
__ehfuncinfo$?InvokeEvent@CXIBaseDesk@CChartItem@@UAEHPAUHWND__@@PBD1@Z DD 019930522H
	DD	01H
	DD	FLAT:__unwindtable$?InvokeEvent@CXIBaseDesk@CChartItem@@UAEHPAUHWND__@@PBD1@Z
	DD	2 DUP(00H)
	DD	2 DUP(00H)
	DD	00H
	DD	01H
xdata$x	ENDS
;	COMDAT xdata$x
xdata$x	SEGMENT
__unwindtable$?GetBasePath@CXIBaseDesk@CChartItem@@UAEPBDXZ DD 0ffffffffH
	DD	FLAT:__unwindfunclet$?GetBasePath@CXIBaseDesk@CChartItem@@UAEPBDXZ$0
__ehfuncinfo$?GetBasePath@CXIBaseDesk@CChartItem@@UAEPBDXZ DD 019930522H
	DD	01H
	DD	FLAT:__unwindtable$?GetBasePath@CXIBaseDesk@CChartItem@@UAEPBDXZ
	DD	2 DUP(00H)
	DD	2 DUP(00H)
	DD	00H
	DD	01H
xdata$x	ENDS
;	COMDAT xdata$x
xdata$x	SEGMENT
__ehfuncinfo$??1CXIBaseDesk@CChartItem@@QAE@XZ DD 019930522H
	DD	00H
	DD	00H
	DD	2 DUP(00H)
	DD	2 DUP(00H)
	DD	00H
	DD	05H
xdata$x	ENDS
;	COMDAT xdata$x
xdata$x	SEGMENT
__ehfuncinfo$?CopyData@CChartItem@@QAEXPAV1@@Z DD 019930522H
	DD	06H
	DD	FLAT:__unwindtable$?CopyData@CChartItem@@QAEXPAV1@@Z
	DD	2 DUP(00H)
	DD	2 DUP(00H)
	DD	00H
	DD	01H
__unwindtable$?CopyData@CChartItem@@QAEXPAV1@@Z DD 0ffffffffH
	DD	FLAT:__unwindfunclet$?CopyData@CChartItem@@QAEXPAV1@@Z$8
	DD	0ffffffffH
	DD	FLAT:__unwindfunclet$?CopyData@CChartItem@@QAEXPAV1@@Z$10
	DD	0ffffffffH
	DD	FLAT:__unwindfunclet$?CopyData@CChartItem@@QAEXPAV1@@Z$12
	DD	0ffffffffH
	DD	FLAT:__unwindfunclet$?CopyData@CChartItem@@QAEXPAV1@@Z$14
	DD	0ffffffffH
	DD	FLAT:__unwindfunclet$?CopyData@CChartItem@@QAEXPAV1@@Z$16
	DD	0ffffffffH
	DD	FLAT:__unwindfunclet$?CopyData@CChartItem@@QAEXPAV1@@Z$5
xdata$x	ENDS
;	COMDAT xdata$x
xdata$x	SEGMENT
__unwindtable$?SetSTRunSTPath@CChartItem@@QAEXV?$CStringT@DV?$StrTraitMFC_DLL@DV?$ChTraitsCRT@D@ATL@@@@@ATL@@@Z DD 0ffffffffH
	DD	FLAT:__unwindfunclet$?SetSTRunSTPath@CChartItem@@QAEXV?$CStringT@DV?$StrTraitMFC_DLL@DV?$ChTraitsCRT@D@ATL@@@@@ATL@@@Z$0
__ehfuncinfo$?SetSTRunSTPath@CChartItem@@QAEXV?$CStringT@DV?$StrTraitMFC_DLL@DV?$ChTraitsCRT@D@ATL@@@@@ATL@@@Z DD 019930522H
	DD	01H
	DD	FLAT:__unwindtable$?SetSTRunSTPath@CChartItem@@QAEXV?$CStringT@DV?$StrTraitMFC_DLL@DV?$ChTraitsCRT@D@ATL@@@@@ATL@@@Z
	DD	2 DUP(00H)
	DD	2 DUP(00H)
	DD	00H
	DD	01H
xdata$x	ENDS
;	COMDAT xdata$x
xdata$x	SEGMENT
__unwindtable$??1CChartItem@@UAE@XZ DD 0ffffffffH
	DD	FLAT:___std_terminate
__ehfuncinfo$??1CChartItem@@UAE@XZ DD 019930522H
	DD	01H
	DD	FLAT:__unwindtable$??1CChartItem@@UAE@XZ
	DD	2 DUP(00H)
	DD	2 DUP(00H)
	DD	00H
	DD	05H
xdata$x	ENDS
;	COMDAT xdata$x
xdata$x	SEGMENT
__unwindtable$?GetPosChartItemData@CChartItem@@AAEJV?$CStringT@DV?$StrTraitMFC_DLL@DV?$ChTraitsCRT@D@ATL@@@@@ATL@@PBD@Z DD 0ffffffffH
	DD	FLAT:__unwindfunclet$?GetPosChartItemData@CChartItem@@AAEJV?$CStringT@DV?$StrTraitMFC_DLL@DV?$ChTraitsCRT@D@ATL@@@@@ATL@@PBD@Z$0
	DD	00H
	DD	FLAT:__unwindfunclet$?GetPosChartItemData@CChartItem@@AAEJV?$CStringT@DV?$StrTraitMFC_DLL@DV?$ChTraitsCRT@D@ATL@@@@@ATL@@PBD@Z$1
	DD	01H
	DD	FLAT:__unwindfunclet$?GetPosChartItemData@CChartItem@@AAEJV?$CStringT@DV?$StrTraitMFC_DLL@DV?$ChTraitsCRT@D@ATL@@@@@ATL@@PBD@Z$2
__ehfuncinfo$?GetPosChartItemData@CChartItem@@AAEJV?$CStringT@DV?$StrTraitMFC_DLL@DV?$ChTraitsCRT@D@ATL@@@@@ATL@@PBD@Z DD 019930522H
	DD	03H
	DD	FLAT:__unwindtable$?GetPosChartItemData@CChartItem@@AAEJV?$CStringT@DV?$StrTraitMFC_DLL@DV?$ChTraitsCRT@D@ATL@@@@@ATL@@PBD@Z
	DD	2 DUP(00H)
	DD	2 DUP(00H)
	DD	00H
	DD	01H
xdata$x	ENDS
;	COMDAT xdata$x
xdata$x	SEGMENT
__ehfuncinfo$?GetChartItemDataNew@CChartItem@@AAEPAVCChartItemData@@V?$CStringT@DV?$StrTraitMFC_DLL@DV?$ChTraitsCRT@D@ATL@@@@@ATL@@PBDHH@Z DD 019930522H
	DD	09H
	DD	FLAT:__unwindtable$?GetChartItemDataNew@CChartItem@@AAEPAVCChartItemData@@V?$CStringT@DV?$StrTraitMFC_DLL@DV?$ChTraitsCRT@D@ATL@@@@@ATL@@PBDHH@Z
	DD	2 DUP(00H)
	DD	2 DUP(00H)
	DD	00H
	DD	01H
__unwindtable$?GetChartItemDataNew@CChartItem@@AAEPAVCChartItemData@@V?$CStringT@DV?$StrTraitMFC_DLL@DV?$ChTraitsCRT@D@ATL@@@@@ATL@@PBDHH@Z DD 0ffffffffH
	DD	FLAT:__unwindfunclet$?GetChartItemDataNew@CChartItem@@AAEPAVCChartItemData@@V?$CStringT@DV?$StrTraitMFC_DLL@DV?$ChTraitsCRT@D@ATL@@@@@ATL@@PBDHH@Z$0
	DD	00H
	DD	FLAT:__unwindfunclet$?GetChartItemDataNew@CChartItem@@AAEPAVCChartItemData@@V?$CStringT@DV?$StrTraitMFC_DLL@DV?$ChTraitsCRT@D@ATL@@@@@ATL@@PBDHH@Z$1
	DD	01H
	DD	FLAT:__unwindfunclet$?GetChartItemDataNew@CChartItem@@AAEPAVCChartItemData@@V?$CStringT@DV?$StrTraitMFC_DLL@DV?$ChTraitsCRT@D@ATL@@@@@ATL@@PBDHH@Z$2
	DD	02H
	DD	FLAT:__unwindfunclet$?GetChartItemDataNew@CChartItem@@AAEPAVCChartItemData@@V?$CStringT@DV?$StrTraitMFC_DLL@DV?$ChTraitsCRT@D@ATL@@@@@ATL@@PBDHH@Z$3
	DD	01H
	DD	FLAT:__unwindfunclet$?GetChartItemDataNew@CChartItem@@AAEPAVCChartItemData@@V?$CStringT@DV?$StrTraitMFC_DLL@DV?$ChTraitsCRT@D@ATL@@@@@ATL@@PBDHH@Z$4
	DD	01H
	DD	FLAT:__unwindfunclet$?GetChartItemDataNew@CChartItem@@AAEPAVCChartItemData@@V?$CStringT@DV?$StrTraitMFC_DLL@DV?$ChTraitsCRT@D@ATL@@@@@ATL@@PBDHH@Z$5
	DD	01H
	DD	FLAT:__unwindfunclet$?GetChartItemDataNew@CChartItem@@AAEPAVCChartItemData@@V?$CStringT@DV?$StrTraitMFC_DLL@DV?$ChTraitsCRT@D@ATL@@@@@ATL@@PBDHH@Z$6
	DD	06H
	DD	FLAT:__unwindfunclet$?GetChartItemDataNew@CChartItem@@AAEPAVCChartItemData@@V?$CStringT@DV?$StrTraitMFC_DLL@DV?$ChTraitsCRT@D@ATL@@@@@ATL@@PBDHH@Z$7
	DD	01H
	DD	FLAT:__unwindfunclet$?GetChartItemDataNew@CChartItem@@AAEPAVCChartItemData@@V?$CStringT@DV?$StrTraitMFC_DLL@DV?$ChTraitsCRT@D@ATL@@@@@ATL@@PBDHH@Z$8
xdata$x	ENDS
;	COMDAT xdata$x
xdata$x	SEGMENT
__unwindtable$?ResetData@CChartItem@@AAEXXZ DD 0ffffffffH
	DD	FLAT:__unwindfunclet$?ResetData@CChartItem@@AAEXXZ$0
	DD	00H
	DD	FLAT:__unwindfunclet$?ResetData@CChartItem@@AAEXXZ$5
__ehfuncinfo$?ResetData@CChartItem@@AAEXXZ DD 019930522H
	DD	02H
	DD	FLAT:__unwindtable$?ResetData@CChartItem@@AAEXXZ
	DD	2 DUP(00H)
	DD	2 DUP(00H)
	DD	00H
	DD	01H
xdata$x	ENDS
;	COMDAT xdata$x
xdata$x	SEGMENT
__unwindtable$?SetAllProperties@CChartItem@@AAEHH@Z DD 0ffffffffH
	DD	FLAT:__unwindfunclet$?SetAllProperties@CChartItem@@AAEHH@Z$0
__ehfuncinfo$?SetAllProperties@CChartItem@@AAEHH@Z DD 019930522H
	DD	01H
	DD	FLAT:__unwindtable$?SetAllProperties@CChartItem@@AAEHH@Z
	DD	2 DUP(00H)
	DD	2 DUP(00H)
	DD	00H
	DD	01H
xdata$x	ENDS
;	COMDAT xdata$x
xdata$x	SEGMENT
__ehfuncinfo$?BuildChart@CChartItem@@AAEHXZ DD 019930522H
	DD	0aH
	DD	FLAT:__unwindtable$?BuildChart@CChartItem@@AAEHXZ
	DD	2 DUP(00H)
	DD	2 DUP(00H)
	DD	00H
	DD	01H
__unwindtable$?BuildChart@CChartItem@@AAEHXZ DD 0ffffffffH
	DD	FLAT:__unwindfunclet$?BuildChart@CChartItem@@AAEHXZ$0
	DD	0ffffffffH
	DD	FLAT:__unwindfunclet$?BuildChart@CChartItem@@AAEHXZ$1
	DD	0ffffffffH
	DD	FLAT:__unwindfunclet$?BuildChart@CChartItem@@AAEHXZ$2
	DD	0ffffffffH
	DD	FLAT:__unwindfunclet$?BuildChart@CChartItem@@AAEHXZ$3
	DD	0ffffffffH
	DD	FLAT:__unwindfunclet$?BuildChart@CChartItem@@AAEHXZ$4
	DD	0ffffffffH
	DD	FLAT:__unwindfunclet$?BuildChart@CChartItem@@AAEHXZ$5
	DD	0ffffffffH
	DD	FLAT:__unwindfunclet$?BuildChart@CChartItem@@AAEHXZ$6
	DD	06H
	DD	FLAT:__unwindfunclet$?BuildChart@CChartItem@@AAEHXZ$7
	DD	06H
	DD	FLAT:__unwindfunclet$?BuildChart@CChartItem@@AAEHXZ$8
	DD	08H
	DD	FLAT:__unwindfunclet$?BuildChart@CChartItem@@AAEHXZ$30
xdata$x	ENDS
;	COMDAT xdata$x
xdata$x	SEGMENT
__unwindtable$?ClearPtrST@CChartItem@@QAEXXZ DD 0ffffffffH
	DD	FLAT:__unwindfunclet$?ClearPtrST@CChartItem@@QAEXXZ$0
__ehfuncinfo$?ClearPtrST@CChartItem@@QAEXXZ DD 019930522H
	DD	01H
	DD	FLAT:__unwindtable$?ClearPtrST@CChartItem@@QAEXXZ
	DD	2 DUP(00H)
	DD	2 DUP(00H)
	DD	00H
	DD	01H
xdata$x	ENDS
;	COMDAT xdata$x
xdata$x	SEGMENT
__unwindtable$?SendMessageToInvoke@CChartItem@@QAEHFJJ@Z DD 0ffffffffH
	DD	FLAT:__unwindfunclet$?SendMessageToInvoke@CChartItem@@QAEHFJJ@Z$0
__ehfuncinfo$?SendMessageToInvoke@CChartItem@@QAEHFJJ@Z DD 019930522H
	DD	01H
	DD	FLAT:__unwindtable$?SendMessageToInvoke@CChartItem@@QAEHFJJ@Z
	DD	2 DUP(00H)
	DD	2 DUP(00H)
	DD	00H
	DD	01H
xdata$x	ENDS
;	COMDAT xdata$x
xdata$x	SEGMENT
__unwindtable$?GetQueryDataForGuideLine@CChartItem@@QAE?AV?$CStringT@DV?$StrTraitMFC_DLL@DV?$ChTraitsCRT@D@ATL@@@@@ATL@@PBVCUIntArray@@@Z DD 0ffffffffH
	DD	FLAT:__unwindfunclet$?GetQueryDataForGuideLine@CChartItem@@QAE?AV?$CStringT@DV?$StrTraitMFC_DLL@DV?$ChTraitsCRT@D@ATL@@@@@ATL@@PBVCUIntArray@@@Z$0
	DD	00H
	DD	FLAT:__unwindfunclet$?GetQueryDataForGuideLine@CChartItem@@QAE?AV?$CStringT@DV?$StrTraitMFC_DLL@DV?$ChTraitsCRT@D@ATL@@@@@ATL@@PBVCUIntArray@@@Z$1
__ehfuncinfo$?GetQueryDataForGuideLine@CChartItem@@QAE?AV?$CStringT@DV?$StrTraitMFC_DLL@DV?$ChTraitsCRT@D@ATL@@@@@ATL@@PBVCUIntArray@@@Z DD 019930522H
	DD	02H
	DD	FLAT:__unwindtable$?GetQueryDataForGuideLine@CChartItem@@QAE?AV?$CStringT@DV?$StrTraitMFC_DLL@DV?$ChTraitsCRT@D@ATL@@@@@ATL@@PBVCUIntArray@@@Z
	DD	2 DUP(00H)
	DD	2 DUP(00H)
	DD	00H
	DD	01H
xdata$x	ENDS
;	COMDAT xdata$x
xdata$x	SEGMENT
__unwindtable$?InvalidateType@CChartItem@@QAEXXZ DD 0ffffffffH
	DD	FLAT:__unwindfunclet$?InvalidateType@CChartItem@@QAEXXZ$0
	DD	00H
	DD	FLAT:__unwindfunclet$?InvalidateType@CChartItem@@QAEXXZ$1
__ehfuncinfo$?InvalidateType@CChartItem@@QAEXXZ DD 019930522H
	DD	02H
	DD	FLAT:__unwindtable$?InvalidateType@CChartItem@@QAEXXZ
	DD	2 DUP(00H)
	DD	2 DUP(00H)
	DD	00H
	DD	01H
xdata$x	ENDS
;	COMDAT xdata$x
xdata$x	SEGMENT
__ehfuncinfo$?SaveandOpenFromFile@CChartItem@@QAEHPBD0HHH@Z DD 019930522H
	DD	07H
	DD	FLAT:__unwindtable$?SaveandOpenFromFile@CChartItem@@QAEHPBD0HHH@Z
	DD	2 DUP(00H)
	DD	2 DUP(00H)
	DD	00H
	DD	01H
__unwindtable$?SaveandOpenFromFile@CChartItem@@QAEHPBD0HHH@Z DD 0ffffffffH
	DD	FLAT:__unwindfunclet$?SaveandOpenFromFile@CChartItem@@QAEHPBD0HHH@Z$0
	DD	00H
	DD	FLAT:__unwindfunclet$?SaveandOpenFromFile@CChartItem@@QAEHPBD0HHH@Z$1
	DD	01H
	DD	FLAT:__unwindfunclet$?SaveandOpenFromFile@CChartItem@@QAEHPBD0HHH@Z$2
	DD	02H
	DD	FLAT:__unwindfunclet$?SaveandOpenFromFile@CChartItem@@QAEHPBD0HHH@Z$3
	DD	03H
	DD	FLAT:__unwindfunclet$?SaveandOpenFromFile@CChartItem@@QAEHPBD0HHH@Z$4
	DD	04H
	DD	FLAT:__unwindfunclet$?SaveandOpenFromFile@CChartItem@@QAEHPBD0HHH@Z$8
	DD	05H
	DD	FLAT:__unwindfunclet$?SaveandOpenFromFile@CChartItem@@QAEHPBD0HHH@Z$6
xdata$x	ENDS
;	COMDAT xdata$x
xdata$x	SEGMENT
__unwindtable$?ClearData@CChartItem@@QAEHXZ DD 0ffffffffH
	DD	FLAT:__unwindfunclet$?ClearData@CChartItem@@QAEHXZ$0
	DD	00H
	DD	FLAT:__unwindfunclet$?ClearData@CChartItem@@QAEHXZ$1
	DD	01H
	DD	FLAT:__unwindfunclet$?ClearData@CChartItem@@QAEHXZ$3
	DD	0ffffffffH
	DD	FLAT:__unwindfunclet$?ClearData@CChartItem@@QAEHXZ$4
__ehfuncinfo$?ClearData@CChartItem@@QAEHXZ DD 019930522H
	DD	04H
	DD	FLAT:__unwindtable$?ClearData@CChartItem@@QAEHXZ
	DD	2 DUP(00H)
	DD	2 DUP(00H)
	DD	00H
	DD	01H
xdata$x	ENDS
;	COMDAT xdata$x
xdata$x	SEGMENT
__ehfuncinfo$?LoadRQInfo@CChartItem@@QAEXPBD0H0@Z DD 019930522H
	DD	0dH
	DD	FLAT:__unwindtable$?LoadRQInfo@CChartItem@@QAEXPBD0H0@Z
	DD	2 DUP(00H)
	DD	2 DUP(00H)
	DD	00H
	DD	01H
__unwindtable$?LoadRQInfo@CChartItem@@QAEXPBD0H0@Z DD 0ffffffffH
	DD	FLAT:__unwindfunclet$?LoadRQInfo@CChartItem@@QAEXPBD0H0@Z$0
	DD	00H
	DD	FLAT:__unwindfunclet$?LoadRQInfo@CChartItem@@QAEXPBD0H0@Z$1
	DD	01H
	DD	FLAT:__unwindfunclet$?LoadRQInfo@CChartItem@@QAEXPBD0H0@Z$2
	DD	02H
	DD	FLAT:__unwindfunclet$?LoadRQInfo@CChartItem@@QAEXPBD0H0@Z$3
	DD	03H
	DD	FLAT:__unwindfunclet$?LoadRQInfo@CChartItem@@QAEXPBD0H0@Z$4
	DD	04H
	DD	FLAT:__unwindfunclet$?LoadRQInfo@CChartItem@@QAEXPBD0H0@Z$5
	DD	04H
	DD	FLAT:__unwindfunclet$?LoadRQInfo@CChartItem@@QAEXPBD0H0@Z$7
	DD	03H
	DD	FLAT:__unwindfunclet$?LoadRQInfo@CChartItem@@QAEXPBD0H0@Z$9
	DD	03H
	DD	FLAT:__unwindfunclet$?LoadRQInfo@CChartItem@@QAEXPBD0H0@Z$10
	DD	03H
	DD	FLAT:__unwindfunclet$?LoadRQInfo@CChartItem@@QAEXPBD0H0@Z$12
	DD	03H
	DD	FLAT:__unwindfunclet$?LoadRQInfo@CChartItem@@QAEXPBD0H0@Z$15
	DD	0aH
	DD	FLAT:__unwindfunclet$?LoadRQInfo@CChartItem@@QAEXPBD0H0@Z$16
	DD	0aH
	DD	FLAT:__unwindfunclet$?LoadRQInfo@CChartItem@@QAEXPBD0H0@Z$17
xdata$x	ENDS
;	COMDAT xdata$x
xdata$x	SEGMENT
__unwindtable$?SaveRQInfo@CChartItem@@QAEXPBD0@Z DD 0ffffffffH
	DD	FLAT:__unwindfunclet$?SaveRQInfo@CChartItem@@QAEXPBD0@Z$0
	DD	00H
	DD	FLAT:__unwindfunclet$?SaveRQInfo@CChartItem@@QAEXPBD0@Z$1
	DD	01H
	DD	FLAT:__unwindfunclet$?SaveRQInfo@CChartItem@@QAEXPBD0@Z$2
	DD	02H
	DD	FLAT:__unwindfunclet$?SaveRQInfo@CChartItem@@QAEXPBD0@Z$3
__ehfuncinfo$?SaveRQInfo@CChartItem@@QAEXPBD0@Z DD 019930522H
	DD	04H
	DD	FLAT:__unwindtable$?SaveRQInfo@CChartItem@@QAEXPBD0@Z
	DD	2 DUP(00H)
	DD	2 DUP(00H)
	DD	00H
	DD	01H
xdata$x	ENDS
;	COMDAT xdata$x
xdata$x	SEGMENT
__unwindtable$?RemoveChartItemData@CChartItem@@QAEHPBDV?$CStringT@DV?$StrTraitMFC_DLL@DV?$ChTraitsCRT@D@ATL@@@@@ATL@@@Z DD 0ffffffffH
	DD	FLAT:__unwindfunclet$?RemoveChartItemData@CChartItem@@QAEHPBDV?$CStringT@DV?$StrTraitMFC_DLL@DV?$ChTraitsCRT@D@ATL@@@@@ATL@@@Z$0
	DD	00H
	DD	FLAT:__unwindfunclet$?RemoveChartItemData@CChartItem@@QAEHPBDV?$CStringT@DV?$StrTraitMFC_DLL@DV?$ChTraitsCRT@D@ATL@@@@@ATL@@@Z$2
	DD	01H
	DD	FLAT:__unwindfunclet$?RemoveChartItemData@CChartItem@@QAEHPBDV?$CStringT@DV?$StrTraitMFC_DLL@DV?$ChTraitsCRT@D@ATL@@@@@ATL@@@Z$3
	DD	02H
	DD	FLAT:__unwindfunclet$?RemoveChartItemData@CChartItem@@QAEHPBDV?$CStringT@DV?$StrTraitMFC_DLL@DV?$ChTraitsCRT@D@ATL@@@@@ATL@@@Z$4
__ehfuncinfo$?RemoveChartItemData@CChartItem@@QAEHPBDV?$CStringT@DV?$StrTraitMFC_DLL@DV?$ChTraitsCRT@D@ATL@@@@@ATL@@@Z DD 019930522H
	DD	04H
	DD	FLAT:__unwindtable$?RemoveChartItemData@CChartItem@@QAEHPBDV?$CStringT@DV?$StrTraitMFC_DLL@DV?$ChTraitsCRT@D@ATL@@@@@ATL@@@Z
	DD	2 DUP(00H)
	DD	2 DUP(00H)
	DD	00H
	DD	01H
xdata$x	ENDS
;	COMDAT xdata$x
xdata$x	SEGMENT
__unwindtable$?HasChartItemData@CChartItem@@QAEHPBDV?$CStringT@DV?$StrTraitMFC_DLL@DV?$ChTraitsCRT@D@ATL@@@@@ATL@@HH@Z DD 0ffffffffH
	DD	FLAT:__unwindfunclet$?HasChartItemData@CChartItem@@QAEHPBDV?$CStringT@DV?$StrTraitMFC_DLL@DV?$ChTraitsCRT@D@ATL@@@@@ATL@@HH@Z$0
	DD	00H
	DD	FLAT:__unwindfunclet$?HasChartItemData@CChartItem@@QAEHPBDV?$CStringT@DV?$StrTraitMFC_DLL@DV?$ChTraitsCRT@D@ATL@@@@@ATL@@HH@Z$2
__ehfuncinfo$?HasChartItemData@CChartItem@@QAEHPBDV?$CStringT@DV?$StrTraitMFC_DLL@DV?$ChTraitsCRT@D@ATL@@@@@ATL@@HH@Z DD 019930522H
	DD	02H
	DD	FLAT:__unwindtable$?HasChartItemData@CChartItem@@QAEHPBDV?$CStringT@DV?$StrTraitMFC_DLL@DV?$ChTraitsCRT@D@ATL@@@@@ATL@@HH@Z
	DD	2 DUP(00H)
	DD	2 DUP(00H)
	DD	00H
	DD	01H
xdata$x	ENDS
;	COMDAT xdata$x
xdata$x	SEGMENT
__unwindtable$?ResetChart@CChartItem@@QAEHXZ DD 0ffffffffH
	DD	FLAT:__unwindfunclet$?ResetChart@CChartItem@@QAEHXZ$0
__ehfuncinfo$?ResetChart@CChartItem@@QAEHXZ DD 019930522H
	DD	01H
	DD	FLAT:__unwindtable$?ResetChart@CChartItem@@QAEHXZ
	DD	2 DUP(00H)
	DD	2 DUP(00H)
	DD	00H
	DD	01H
xdata$x	ENDS
;	COMDAT xdata$x
xdata$x	SEGMENT
__unwindtable$?SaveChartSetting@CChartItem@@QAEHPBD@Z DD 0ffffffffH
	DD	FLAT:__unwindfunclet$?SaveChartSetting@CChartItem@@QAEHPBD@Z$0
	DD	00H
	DD	FLAT:__unwindfunclet$?SaveChartSetting@CChartItem@@QAEHPBD@Z$1
	DD	01H
	DD	FLAT:__unwindfunclet$?SaveChartSetting@CChartItem@@QAEHPBD@Z$2
	DD	02H
	DD	FLAT:__unwindfunclet$?SaveChartSetting@CChartItem@@QAEHPBD@Z$3
__ehfuncinfo$?SaveChartSetting@CChartItem@@QAEHPBD@Z DD 019930522H
	DD	04H
	DD	FLAT:__unwindtable$?SaveChartSetting@CChartItem@@QAEHPBD@Z
	DD	2 DUP(00H)
	DD	2 DUP(00H)
	DD	00H
	DD	01H
xdata$x	ENDS
;	COMDAT xdata$x
xdata$x	SEGMENT
__unwindtable$?LoadChartSetting@CChartItem@@QAEHPBD@Z DD 0ffffffffH
	DD	FLAT:__unwindfunclet$?LoadChartSetting@CChartItem@@QAEHPBD@Z$0
	DD	00H
	DD	FLAT:__unwindfunclet$?LoadChartSetting@CChartItem@@QAEHPBD@Z$1
	DD	01H
	DD	FLAT:__unwindfunclet$?LoadChartSetting@CChartItem@@QAEHPBD@Z$2
	DD	02H
	DD	FLAT:__unwindfunclet$?LoadChartSetting@CChartItem@@QAEHPBD@Z$3
__ehfuncinfo$?LoadChartSetting@CChartItem@@QAEHPBD@Z DD 019930522H
	DD	04H
	DD	FLAT:__unwindtable$?LoadChartSetting@CChartItem@@QAEHPBD@Z
	DD	2 DUP(00H)
	DD	2 DUP(00H)
	DD	00H
	DD	01H
xdata$x	ENDS
;	COMDAT xdata$x
xdata$x	SEGMENT
__ehfuncinfo$?SaveChartInfo@CChartItem@@QAEHPBDH@Z DD 019930522H
	DD	0cH
	DD	FLAT:__unwindtable$?SaveChartInfo@CChartItem@@QAEHPBDH@Z
	DD	2 DUP(00H)
	DD	2 DUP(00H)
	DD	00H
	DD	01H
__unwindtable$?SaveChartInfo@CChartItem@@QAEHPBDH@Z DD 0ffffffffH
	DD	FLAT:__unwindfunclet$?SaveChartInfo@CChartItem@@QAEHPBDH@Z$0
	DD	00H
	DD	FLAT:__unwindfunclet$?SaveChartInfo@CChartItem@@QAEHPBDH@Z$1
	DD	01H
	DD	FLAT:__unwindfunclet$?SaveChartInfo@CChartItem@@QAEHPBDH@Z$2
	DD	02H
	DD	FLAT:__unwindfunclet$?SaveChartInfo@CChartItem@@QAEHPBDH@Z$3
	DD	03H
	DD	FLAT:__unwindfunclet$?SaveChartInfo@CChartItem@@QAEHPBDH@Z$4
	DD	04H
	DD	FLAT:__unwindfunclet$?SaveChartInfo@CChartItem@@QAEHPBDH@Z$5
	DD	05H
	DD	FLAT:__unwindfunclet$?SaveChartInfo@CChartItem@@QAEHPBDH@Z$6
	DD	04H
	DD	FLAT:__unwindfunclet$?SaveChartInfo@CChartItem@@QAEHPBDH@Z$6
	DD	02H
	DD	FLAT:__unwindfunclet$?SaveChartInfo@CChartItem@@QAEHPBDH@Z$7
	DD	08H
	DD	FLAT:__unwindfunclet$?SaveChartInfo@CChartItem@@QAEHPBDH@Z$8
	DD	09H
	DD	FLAT:__unwindfunclet$?SaveChartInfo@CChartItem@@QAEHPBDH@Z$9
	DD	09H
	DD	FLAT:__unwindfunclet$?SaveChartInfo@CChartItem@@QAEHPBDH@Z$10
xdata$x	ENDS
;	COMDAT xdata$x
xdata$x	SEGMENT
__ehfuncinfo$?LoadChartInfo@CChartItem@@QAEHPBDHHH0@Z DD 019930522H
	DD	01cH
	DD	FLAT:__unwindtable$?LoadChartInfo@CChartItem@@QAEHPBDHHH0@Z
	DD	2 DUP(00H)
	DD	2 DUP(00H)
	DD	00H
	DD	01H
__unwindtable$?LoadChartInfo@CChartItem@@QAEHPBDHHH0@Z DD 0ffffffffH
	DD	FLAT:__unwindfunclet$?LoadChartInfo@CChartItem@@QAEHPBDHHH0@Z$0
	DD	00H
	DD	FLAT:__unwindfunclet$?LoadChartInfo@CChartItem@@QAEHPBDHHH0@Z$1
	DD	01H
	DD	FLAT:__unwindfunclet$?LoadChartInfo@CChartItem@@QAEHPBDHHH0@Z$2
	DD	02H
	DD	FLAT:__unwindfunclet$?LoadChartInfo@CChartItem@@QAEHPBDHHH0@Z$3
	DD	03H
	DD	FLAT:__unwindfunclet$?LoadChartInfo@CChartItem@@QAEHPBDHHH0@Z$4
	DD	04H
	DD	FLAT:__unwindfunclet$?LoadChartInfo@CChartItem@@QAEHPBDHHH0@Z$5
	DD	05H
	DD	FLAT:__unwindfunclet$?LoadChartInfo@CChartItem@@QAEHPBDHHH0@Z$6
	DD	06H
	DD	FLAT:__unwindfunclet$?LoadChartInfo@CChartItem@@QAEHPBDHHH0@Z$7
	DD	07H
	DD	FLAT:__unwindfunclet$?LoadChartInfo@CChartItem@@QAEHPBDHHH0@Z$9
	DD	07H
	DD	FLAT:__unwindfunclet$?LoadChartInfo@CChartItem@@QAEHPBDHHH0@Z$10
	DD	04H
	DD	FLAT:__unwindfunclet$?LoadChartInfo@CChartItem@@QAEHPBDHHH0@Z$12
	DD	04H
	DD	FLAT:__unwindfunclet$?LoadChartInfo@CChartItem@@QAEHPBDHHH0@Z$13
	DD	0bH
	DD	FLAT:__unwindfunclet$?LoadChartInfo@CChartItem@@QAEHPBDHHH0@Z$14
	DD	0cH
	DD	FLAT:__unwindfunclet$?LoadChartInfo@CChartItem@@QAEHPBDHHH0@Z$16
	DD	0dH
	DD	FLAT:__unwindfunclet$?LoadChartInfo@CChartItem@@QAEHPBDHHH0@Z$17
	DD	0eH
	DD	FLAT:__unwindfunclet$?LoadChartInfo@CChartItem@@QAEHPBDHHH0@Z$18
	DD	0fH
	DD	FLAT:__unwindfunclet$?LoadChartInfo@CChartItem@@QAEHPBDHHH0@Z$19
	DD	010H
	DD	FLAT:__unwindfunclet$?LoadChartInfo@CChartItem@@QAEHPBDHHH0@Z$21
	DD	010H
	DD	FLAT:__unwindfunclet$?LoadChartInfo@CChartItem@@QAEHPBDHHH0@Z$22
	DD	03H
	DD	FLAT:__unwindfunclet$?LoadChartInfo@CChartItem@@QAEHPBDHHH0@Z$23
	DD	02H
	DD	FLAT:__unwindfunclet$?LoadChartInfo@CChartItem@@QAEHPBDHHH0@Z$34
	DD	02H
	DD	FLAT:__unwindfunclet$?LoadChartInfo@CChartItem@@QAEHPBDHHH0@Z$35
	DD	02H
	DD	FLAT:__unwindfunclet$?LoadChartInfo@CChartItem@@QAEHPBDHHH0@Z$36
	DD	02H
	DD	FLAT:__unwindfunclet$?LoadChartInfo@CChartItem@@QAEHPBDHHH0@Z$29
	DD	02H
	DD	FLAT:__unwindfunclet$?LoadChartInfo@CChartItem@@QAEHPBDHHH0@Z$30
	DD	02H
	DD	FLAT:__unwindfunclet$?LoadChartInfo@CChartItem@@QAEHPBDHHH0@Z$31
	DD	02H
	DD	FLAT:__unwindfunclet$?LoadChartInfo@CChartItem@@QAEHPBDHHH0@Z$32
	DD	02H
	DD	FLAT:__unwindfunclet$?LoadChartInfo@CChartItem@@QAEHPBDHHH0@Z$33
xdata$x	ENDS
;	COMDAT xdata$x
xdata$x	SEGMENT
__ehfuncinfo$?SetRealYPriceData@CChartItem@@QAEXPAXJ@Z DD 019930522H
	DD	07H
	DD	FLAT:__unwindtable$?SetRealYPriceData@CChartItem@@QAEXPAXJ@Z
	DD	2 DUP(00H)
	DD	2 DUP(00H)
	DD	00H
	DD	01H
__unwindtable$?SetRealYPriceData@CChartItem@@QAEXPAXJ@Z DD 0ffffffffH
	DD	FLAT:__unwindfunclet$?SetRealYPriceData@CChartItem@@QAEXPAXJ@Z$0
	DD	0ffffffffH
	DD	FLAT:__unwindfunclet$?SetRealYPriceData@CChartItem@@QAEXPAXJ@Z$1
	DD	01H
	DD	FLAT:__unwindfunclet$?SetRealYPriceData@CChartItem@@QAEXPAXJ@Z$2
	DD	02H
	DD	FLAT:__unwindfunclet$?SetRealYPriceData@CChartItem@@QAEXPAXJ@Z$3
	DD	03H
	DD	FLAT:__unwindfunclet$?SetRealYPriceData@CChartItem@@QAEXPAXJ@Z$4
	DD	04H
	DD	FLAT:__unwindfunclet$?SetRealYPriceData@CChartItem@@QAEXPAXJ@Z$8
	DD	04H
	DD	FLAT:__unwindfunclet$?SetRealYPriceData@CChartItem@@QAEXPAXJ@Z$9
xdata$x	ENDS
;	COMDAT xdata$x
xdata$x	SEGMENT
__ehfuncinfo$?SetRealPriceData@CChartItem@@QAEXPAXJ@Z DD 019930522H
	DD	0eH
	DD	FLAT:__unwindtable$?SetRealPriceData@CChartItem@@QAEXPAXJ@Z
	DD	2 DUP(00H)
	DD	2 DUP(00H)
	DD	00H
	DD	01H
__unwindtable$?SetRealPriceData@CChartItem@@QAEXPAXJ@Z DD 0ffffffffH
	DD	FLAT:__unwindfunclet$?SetRealPriceData@CChartItem@@QAEXPAXJ@Z$0
	DD	0ffffffffH
	DD	FLAT:__unwindfunclet$?SetRealPriceData@CChartItem@@QAEXPAXJ@Z$1
	DD	01H
	DD	FLAT:__unwindfunclet$?SetRealPriceData@CChartItem@@QAEXPAXJ@Z$2
	DD	02H
	DD	FLAT:__unwindfunclet$?SetRealPriceData@CChartItem@@QAEXPAXJ@Z$3
	DD	03H
	DD	FLAT:__unwindfunclet$?SetRealPriceData@CChartItem@@QAEXPAXJ@Z$4
	DD	04H
	DD	FLAT:__unwindfunclet$?SetRealPriceData@CChartItem@@QAEXPAXJ@Z$5
	DD	05H
	DD	FLAT:__unwindfunclet$?SetRealPriceData@CChartItem@@QAEXPAXJ@Z$6
	DD	06H
	DD	FLAT:__unwindfunclet$?SetRealPriceData@CChartItem@@QAEXPAXJ@Z$7
	DD	07H
	DD	FLAT:__unwindfunclet$?SetRealPriceData@CChartItem@@QAEXPAXJ@Z$8
	DD	08H
	DD	FLAT:__unwindfunclet$?SetRealPriceData@CChartItem@@QAEXPAXJ@Z$9
	DD	09H
	DD	FLAT:__unwindfunclet$?SetRealPriceData@CChartItem@@QAEXPAXJ@Z$10
	DD	0aH
	DD	FLAT:__unwindfunclet$?SetRealPriceData@CChartItem@@QAEXPAXJ@Z$15
	DD	0aH
	DD	FLAT:__unwindfunclet$?SetRealPriceData@CChartItem@@QAEXPAXJ@Z$16
	DD	0aH
	DD	FLAT:__unwindfunclet$?SetRealPriceData@CChartItem@@QAEXPAXJ@Z$13
xdata$x	ENDS
;	COMDAT xdata$x
xdata$x	SEGMENT
__unwindtable$?HasGraph@CChartItem@@QAEHPBD@Z DD 0ffffffffH
	DD	FLAT:__unwindfunclet$?HasGraph@CChartItem@@QAEHPBD@Z$0
__ehfuncinfo$?HasGraph@CChartItem@@QAEHPBD@Z DD 019930522H
	DD	01H
	DD	FLAT:__unwindtable$?HasGraph@CChartItem@@QAEHPBD@Z
	DD	2 DUP(00H)
	DD	2 DUP(00H)
	DD	00H
	DD	01H
xdata$x	ENDS
;	COMDAT xdata$x
xdata$x	SEGMENT
__ehfuncinfo$?GetQueryData@CChartItem@@QAE?AV?$CStringT@DV?$StrTraitMFC_DLL@DV?$ChTraitsCRT@D@ATL@@@@@ATL@@H@Z DD 019930522H
	DD	07H
	DD	FLAT:__unwindtable$?GetQueryData@CChartItem@@QAE?AV?$CStringT@DV?$StrTraitMFC_DLL@DV?$ChTraitsCRT@D@ATL@@@@@ATL@@H@Z
	DD	2 DUP(00H)
	DD	2 DUP(00H)
	DD	00H
	DD	01H
__unwindtable$?GetQueryData@CChartItem@@QAE?AV?$CStringT@DV?$StrTraitMFC_DLL@DV?$ChTraitsCRT@D@ATL@@@@@ATL@@H@Z DD 0ffffffffH
	DD	FLAT:__unwindfunclet$?GetQueryData@CChartItem@@QAE?AV?$CStringT@DV?$StrTraitMFC_DLL@DV?$ChTraitsCRT@D@ATL@@@@@ATL@@H@Z$2
	DD	0ffffffffH
	DD	FLAT:__unwindfunclet$?GetQueryData@CChartItem@@QAE?AV?$CStringT@DV?$StrTraitMFC_DLL@DV?$ChTraitsCRT@D@ATL@@@@@ATL@@H@Z$3
	DD	01H
	DD	FLAT:__unwindfunclet$?GetQueryData@CChartItem@@QAE?AV?$CStringT@DV?$StrTraitMFC_DLL@DV?$ChTraitsCRT@D@ATL@@@@@ATL@@H@Z$5
	DD	0ffffffffH
	DD	FLAT:__unwindfunclet$?GetQueryData@CChartItem@@QAE?AV?$CStringT@DV?$StrTraitMFC_DLL@DV?$ChTraitsCRT@D@ATL@@@@@ATL@@H@Z$6
	DD	0ffffffffH
	DD	FLAT:__unwindfunclet$?GetQueryData@CChartItem@@QAE?AV?$CStringT@DV?$StrTraitMFC_DLL@DV?$ChTraitsCRT@D@ATL@@@@@ATL@@H@Z$7
	DD	0ffffffffH
	DD	FLAT:__unwindfunclet$?GetQueryData@CChartItem@@QAE?AV?$CStringT@DV?$StrTraitMFC_DLL@DV?$ChTraitsCRT@D@ATL@@@@@ATL@@H@Z$8
	DD	05H
	DD	FLAT:__unwindfunclet$?GetQueryData@CChartItem@@QAE?AV?$CStringT@DV?$StrTraitMFC_DLL@DV?$ChTraitsCRT@D@ATL@@@@@ATL@@H@Z$10
xdata$x	ENDS
;	COMDAT xdata$x
xdata$x	SEGMENT
__unwindtable$?SetEndDateRequested@CChartItem@@QAEXPBD@Z DD 0ffffffffH
	DD	FLAT:__unwindfunclet$?SetEndDateRequested@CChartItem@@QAEXPBD@Z$0
__ehfuncinfo$?SetEndDateRequested@CChartItem@@QAEXPBD@Z DD 019930522H
	DD	01H
	DD	FLAT:__unwindtable$?SetEndDateRequested@CChartItem@@QAEXPBD@Z
	DD	2 DUP(00H)
	DD	2 DUP(00H)
	DD	00H
	DD	01H
xdata$x	ENDS
;	COMDAT xdata$x
xdata$x	SEGMENT
__ehfuncinfo$?LoadTickMinDayInfo@CChartItem@@QAEXV?$CStringT@DV?$StrTraitMFC_DLL@DV?$ChTraitsCRT@D@ATL@@@@@ATL@@@Z DD 019930522H
	DD	0eH
	DD	FLAT:__unwindtable$?LoadTickMinDayInfo@CChartItem@@QAEXV?$CStringT@DV?$StrTraitMFC_DLL@DV?$ChTraitsCRT@D@ATL@@@@@ATL@@@Z
	DD	2 DUP(00H)
	DD	2 DUP(00H)
	DD	00H
	DD	01H
__unwindtable$?LoadTickMinDayInfo@CChartItem@@QAEXV?$CStringT@DV?$StrTraitMFC_DLL@DV?$ChTraitsCRT@D@ATL@@@@@ATL@@@Z DD 0ffffffffH
	DD	FLAT:__unwindfunclet$?LoadTickMinDayInfo@CChartItem@@QAEXV?$CStringT@DV?$StrTraitMFC_DLL@DV?$ChTraitsCRT@D@ATL@@@@@ATL@@@Z$0
	DD	00H
	DD	FLAT:__unwindfunclet$?LoadTickMinDayInfo@CChartItem@@QAEXV?$CStringT@DV?$StrTraitMFC_DLL@DV?$ChTraitsCRT@D@ATL@@@@@ATL@@@Z$1
	DD	01H
	DD	FLAT:__unwindfunclet$?LoadTickMinDayInfo@CChartItem@@QAEXV?$CStringT@DV?$StrTraitMFC_DLL@DV?$ChTraitsCRT@D@ATL@@@@@ATL@@@Z$2
	DD	02H
	DD	FLAT:__unwindfunclet$?LoadTickMinDayInfo@CChartItem@@QAEXV?$CStringT@DV?$StrTraitMFC_DLL@DV?$ChTraitsCRT@D@ATL@@@@@ATL@@@Z$3
	DD	03H
	DD	FLAT:__unwindfunclet$?LoadTickMinDayInfo@CChartItem@@QAEXV?$CStringT@DV?$StrTraitMFC_DLL@DV?$ChTraitsCRT@D@ATL@@@@@ATL@@@Z$14
	DD	03H
	DD	FLAT:__unwindfunclet$?LoadTickMinDayInfo@CChartItem@@QAEXV?$CStringT@DV?$StrTraitMFC_DLL@DV?$ChTraitsCRT@D@ATL@@@@@ATL@@@Z$15
	DD	03H
	DD	FLAT:__unwindfunclet$?LoadTickMinDayInfo@CChartItem@@QAEXV?$CStringT@DV?$StrTraitMFC_DLL@DV?$ChTraitsCRT@D@ATL@@@@@ATL@@@Z$16
	DD	03H
	DD	FLAT:__unwindfunclet$?LoadTickMinDayInfo@CChartItem@@QAEXV?$CStringT@DV?$StrTraitMFC_DLL@DV?$ChTraitsCRT@D@ATL@@@@@ATL@@@Z$17
	DD	03H
	DD	FLAT:__unwindfunclet$?LoadTickMinDayInfo@CChartItem@@QAEXV?$CStringT@DV?$StrTraitMFC_DLL@DV?$ChTraitsCRT@D@ATL@@@@@ATL@@@Z$18
	DD	03H
	DD	FLAT:__unwindfunclet$?LoadTickMinDayInfo@CChartItem@@QAEXV?$CStringT@DV?$StrTraitMFC_DLL@DV?$ChTraitsCRT@D@ATL@@@@@ATL@@@Z$9
	DD	03H
	DD	FLAT:__unwindfunclet$?LoadTickMinDayInfo@CChartItem@@QAEXV?$CStringT@DV?$StrTraitMFC_DLL@DV?$ChTraitsCRT@D@ATL@@@@@ATL@@@Z$10
	DD	03H
	DD	FLAT:__unwindfunclet$?LoadTickMinDayInfo@CChartItem@@QAEXV?$CStringT@DV?$StrTraitMFC_DLL@DV?$ChTraitsCRT@D@ATL@@@@@ATL@@@Z$11
	DD	03H
	DD	FLAT:__unwindfunclet$?LoadTickMinDayInfo@CChartItem@@QAEXV?$CStringT@DV?$StrTraitMFC_DLL@DV?$ChTraitsCRT@D@ATL@@@@@ATL@@@Z$12
	DD	03H
	DD	FLAT:__unwindfunclet$?LoadTickMinDayInfo@CChartItem@@QAEXV?$CStringT@DV?$StrTraitMFC_DLL@DV?$ChTraitsCRT@D@ATL@@@@@ATL@@@Z$13
xdata$x	ENDS
;	COMDAT xdata$x
xdata$x	SEGMENT
__unwindtable$?SetHourNumber@CChartItem@@QAEXV?$CStringT@DV?$StrTraitMFC_DLL@DV?$ChTraitsCRT@D@ATL@@@@@ATL@@@Z DD 0ffffffffH
	DD	FLAT:__unwindfunclet$?SetHourNumber@CChartItem@@QAEXV?$CStringT@DV?$StrTraitMFC_DLL@DV?$ChTraitsCRT@D@ATL@@@@@ATL@@@Z$0
__ehfuncinfo$?SetHourNumber@CChartItem@@QAEXV?$CStringT@DV?$StrTraitMFC_DLL@DV?$ChTraitsCRT@D@ATL@@@@@ATL@@@Z DD 019930522H
	DD	01H
	DD	FLAT:__unwindtable$?SetHourNumber@CChartItem@@QAEXV?$CStringT@DV?$StrTraitMFC_DLL@DV?$ChTraitsCRT@D@ATL@@@@@ATL@@@Z
	DD	2 DUP(00H)
	DD	2 DUP(00H)
	DD	00H
	DD	01H
xdata$x	ENDS
;	COMDAT xdata$x
xdata$x	SEGMENT
__unwindtable$?SetDayNumber@CChartItem@@QAEXV?$CStringT@DV?$StrTraitMFC_DLL@DV?$ChTraitsCRT@D@ATL@@@@@ATL@@@Z DD 0ffffffffH
	DD	FLAT:__unwindfunclet$?SetDayNumber@CChartItem@@QAEXV?$CStringT@DV?$StrTraitMFC_DLL@DV?$ChTraitsCRT@D@ATL@@@@@ATL@@@Z$0
__ehfuncinfo$?SetDayNumber@CChartItem@@QAEXV?$CStringT@DV?$StrTraitMFC_DLL@DV?$ChTraitsCRT@D@ATL@@@@@ATL@@@Z DD 019930522H
	DD	01H
	DD	FLAT:__unwindtable$?SetDayNumber@CChartItem@@QAEXV?$CStringT@DV?$StrTraitMFC_DLL@DV?$ChTraitsCRT@D@ATL@@@@@ATL@@@Z
	DD	2 DUP(00H)
	DD	2 DUP(00H)
	DD	00H
	DD	01H
xdata$x	ENDS
;	COMDAT xdata$x
xdata$x	SEGMENT
__unwindtable$?SetMinNumber@CChartItem@@QAEXV?$CStringT@DV?$StrTraitMFC_DLL@DV?$ChTraitsCRT@D@ATL@@@@@ATL@@@Z DD 0ffffffffH
	DD	FLAT:__unwindfunclet$?SetMinNumber@CChartItem@@QAEXV?$CStringT@DV?$StrTraitMFC_DLL@DV?$ChTraitsCRT@D@ATL@@@@@ATL@@@Z$0
__ehfuncinfo$?SetMinNumber@CChartItem@@QAEXV?$CStringT@DV?$StrTraitMFC_DLL@DV?$ChTraitsCRT@D@ATL@@@@@ATL@@@Z DD 019930522H
	DD	01H
	DD	FLAT:__unwindtable$?SetMinNumber@CChartItem@@QAEXV?$CStringT@DV?$StrTraitMFC_DLL@DV?$ChTraitsCRT@D@ATL@@@@@ATL@@@Z
	DD	2 DUP(00H)
	DD	2 DUP(00H)
	DD	00H
	DD	01H
xdata$x	ENDS
;	COMDAT xdata$x
xdata$x	SEGMENT
__unwindtable$?SetSecNumber@CChartItem@@QAEXV?$CStringT@DV?$StrTraitMFC_DLL@DV?$ChTraitsCRT@D@ATL@@@@@ATL@@@Z DD 0ffffffffH
	DD	FLAT:__unwindfunclet$?SetSecNumber@CChartItem@@QAEXV?$CStringT@DV?$StrTraitMFC_DLL@DV?$ChTraitsCRT@D@ATL@@@@@ATL@@@Z$0
__ehfuncinfo$?SetSecNumber@CChartItem@@QAEXV?$CStringT@DV?$StrTraitMFC_DLL@DV?$ChTraitsCRT@D@ATL@@@@@ATL@@@Z DD 019930522H
	DD	01H
	DD	FLAT:__unwindtable$?SetSecNumber@CChartItem@@QAEXV?$CStringT@DV?$StrTraitMFC_DLL@DV?$ChTraitsCRT@D@ATL@@@@@ATL@@@Z
	DD	2 DUP(00H)
	DD	2 DUP(00H)
	DD	00H
	DD	01H
xdata$x	ENDS
;	COMDAT xdata$x
xdata$x	SEGMENT
__unwindtable$?SetTickNumber@CChartItem@@QAEXV?$CStringT@DV?$StrTraitMFC_DLL@DV?$ChTraitsCRT@D@ATL@@@@@ATL@@@Z DD 0ffffffffH
	DD	FLAT:__unwindfunclet$?SetTickNumber@CChartItem@@QAEXV?$CStringT@DV?$StrTraitMFC_DLL@DV?$ChTraitsCRT@D@ATL@@@@@ATL@@@Z$0
__ehfuncinfo$?SetTickNumber@CChartItem@@QAEXV?$CStringT@DV?$StrTraitMFC_DLL@DV?$ChTraitsCRT@D@ATL@@@@@ATL@@@Z DD 019930522H
	DD	01H
	DD	FLAT:__unwindtable$?SetTickNumber@CChartItem@@QAEXV?$CStringT@DV?$StrTraitMFC_DLL@DV?$ChTraitsCRT@D@ATL@@@@@ATL@@@Z
	DD	2 DUP(00H)
	DD	2 DUP(00H)
	DD	00H
	DD	01H
xdata$x	ENDS
;	COMDAT xdata$x
xdata$x	SEGMENT
__unwindtable$?DestroyWindow@CChartItem@@UAEHXZ DD 0ffffffffH
	DD	FLAT:__unwindfunclet$?DestroyWindow@CChartItem@@UAEHXZ$3
__ehfuncinfo$?DestroyWindow@CChartItem@@UAEHXZ DD 019930522H
	DD	01H
	DD	FLAT:__unwindtable$?DestroyWindow@CChartItem@@UAEHXZ
	DD	2 DUP(00H)
	DD	2 DUP(00H)
	DD	00H
	DD	01H
xdata$x	ENDS
;	COMDAT xdata$x
xdata$x	SEGMENT
__unwindtable$?AddChartBlock@CChartItem@@QAEHPBD@Z DD 0ffffffffH
	DD	FLAT:__unwindfunclet$?AddChartBlock@CChartItem@@QAEHPBD@Z$0
__ehfuncinfo$?AddChartBlock@CChartItem@@QAEHPBD@Z DD 019930522H
	DD	01H
	DD	FLAT:__unwindtable$?AddChartBlock@CChartItem@@QAEHPBD@Z
	DD	2 DUP(00H)
	DD	2 DUP(00H)
	DD	00H
	DD	01H
xdata$x	ENDS
;	COMDAT xdata$x
xdata$x	SEGMENT
__unwindtable$?SetCodeForQuery@CChartItem@@QAEXPBDV?$CStringT@DV?$StrTraitMFC_DLL@DV?$ChTraitsCRT@D@ATL@@@@@ATL@@H@Z DD 0ffffffffH
	DD	FLAT:__unwindfunclet$?SetCodeForQuery@CChartItem@@QAEXPBDV?$CStringT@DV?$StrTraitMFC_DLL@DV?$ChTraitsCRT@D@ATL@@@@@ATL@@H@Z$0
__ehfuncinfo$?SetCodeForQuery@CChartItem@@QAEXPBDV?$CStringT@DV?$StrTraitMFC_DLL@DV?$ChTraitsCRT@D@ATL@@@@@ATL@@H@Z DD 019930522H
	DD	01H
	DD	FLAT:__unwindtable$?SetCodeForQuery@CChartItem@@QAEXPBDV?$CStringT@DV?$StrTraitMFC_DLL@DV?$ChTraitsCRT@D@ATL@@@@@ATL@@H@Z
	DD	2 DUP(00H)
	DD	2 DUP(00H)
	DD	00H
	DD	01H
xdata$x	ENDS
;	COMDAT xdata$x
xdata$x	SEGMENT
__unwindtable$?SetButton@CChartItem@@QAEXQAUtagRECT@@@Z DD 0ffffffffH
	DD	FLAT:__unwindfunclet$?SetButton@CChartItem@@QAEXQAUtagRECT@@@Z$0
__ehfuncinfo$?SetButton@CChartItem@@QAEXQAUtagRECT@@@Z DD 019930522H
	DD	01H
	DD	FLAT:__unwindtable$?SetButton@CChartItem@@QAEXQAUtagRECT@@@Z
	DD	2 DUP(00H)
	DD	2 DUP(00H)
	DD	00H
	DD	01H
xdata$x	ENDS
;	COMDAT xdata$x
xdata$x	SEGMENT
__ehfuncinfo$?DrawTitle@CChartItem@@QAEXVCRect@@PAVCDC@@PAVCFont@@2K@Z DD 019930522H
	DD	01dH
	DD	FLAT:__unwindtable$?DrawTitle@CChartItem@@QAEXVCRect@@PAVCDC@@PAVCFont@@2K@Z
	DD	2 DUP(00H)
	DD	2 DUP(00H)
	DD	00H
	DD	01H
__unwindtable$?DrawTitle@CChartItem@@QAEXVCRect@@PAVCDC@@PAVCFont@@2K@Z DD 0ffffffffH
	DD	FLAT:__unwindfunclet$?DrawTitle@CChartItem@@QAEXVCRect@@PAVCDC@@PAVCFont@@2K@Z$0
	DD	00H
	DD	FLAT:__unwindfunclet$?DrawTitle@CChartItem@@QAEXVCRect@@PAVCDC@@PAVCFont@@2K@Z$1
	DD	01H
	DD	FLAT:__unwindfunclet$?DrawTitle@CChartItem@@QAEXVCRect@@PAVCDC@@PAVCFont@@2K@Z$2
	DD	02H
	DD	FLAT:__unwindfunclet$?DrawTitle@CChartItem@@QAEXVCRect@@PAVCDC@@PAVCFont@@2K@Z$3
	DD	03H
	DD	FLAT:__unwindfunclet$?DrawTitle@CChartItem@@QAEXVCRect@@PAVCDC@@PAVCFont@@2K@Z$4
	DD	04H
	DD	FLAT:__unwindfunclet$?DrawTitle@CChartItem@@QAEXVCRect@@PAVCDC@@PAVCFont@@2K@Z$5
	DD	05H
	DD	FLAT:__unwindfunclet$?DrawTitle@CChartItem@@QAEXVCRect@@PAVCDC@@PAVCFont@@2K@Z$6
	DD	06H
	DD	FLAT:__unwindfunclet$?DrawTitle@CChartItem@@QAEXVCRect@@PAVCDC@@PAVCFont@@2K@Z$7
	DD	07H
	DD	FLAT:__unwindfunclet$?DrawTitle@CChartItem@@QAEXVCRect@@PAVCDC@@PAVCFont@@2K@Z$9
	DD	08H
	DD	FLAT:__unwindfunclet$?DrawTitle@CChartItem@@QAEXVCRect@@PAVCDC@@PAVCFont@@2K@Z$10
	DD	09H
	DD	FLAT:__unwindfunclet$?DrawTitle@CChartItem@@QAEXVCRect@@PAVCDC@@PAVCFont@@2K@Z$11
	DD	09H
	DD	FLAT:__unwindfunclet$?DrawTitle@CChartItem@@QAEXVCRect@@PAVCDC@@PAVCFont@@2K@Z$12
	DD	09H
	DD	FLAT:__unwindfunclet$?DrawTitle@CChartItem@@QAEXVCRect@@PAVCDC@@PAVCFont@@2K@Z$14
	DD	09H
	DD	FLAT:__unwindfunclet$?DrawTitle@CChartItem@@QAEXVCRect@@PAVCDC@@PAVCFont@@2K@Z$16
	DD	09H
	DD	FLAT:__unwindfunclet$?DrawTitle@CChartItem@@QAEXVCRect@@PAVCDC@@PAVCFont@@2K@Z$18
	DD	0eH
	DD	FLAT:__unwindfunclet$?DrawTitle@CChartItem@@QAEXVCRect@@PAVCDC@@PAVCFont@@2K@Z$20
	DD	0fH
	DD	FLAT:__unwindfunclet$?DrawTitle@CChartItem@@QAEXVCRect@@PAVCDC@@PAVCFont@@2K@Z$22
	DD	09H
	DD	FLAT:__unwindfunclet$?DrawTitle@CChartItem@@QAEXVCRect@@PAVCDC@@PAVCFont@@2K@Z$24
	DD	09H
	DD	FLAT:__unwindfunclet$?DrawTitle@CChartItem@@QAEXVCRect@@PAVCDC@@PAVCFont@@2K@Z$26
	DD	09H
	DD	FLAT:__unwindfunclet$?DrawTitle@CChartItem@@QAEXVCRect@@PAVCDC@@PAVCFont@@2K@Z$28
	DD	09H
	DD	FLAT:__unwindfunclet$?DrawTitle@CChartItem@@QAEXVCRect@@PAVCDC@@PAVCFont@@2K@Z$30
	DD	09H
	DD	FLAT:__unwindfunclet$?DrawTitle@CChartItem@@QAEXVCRect@@PAVCDC@@PAVCFont@@2K@Z$32
	DD	015H
	DD	FLAT:__unwindfunclet$?DrawTitle@CChartItem@@QAEXVCRect@@PAVCDC@@PAVCFont@@2K@Z$34
	DD	016H
	DD	FLAT:__unwindfunclet$?DrawTitle@CChartItem@@QAEXVCRect@@PAVCDC@@PAVCFont@@2K@Z$36
	DD	07H
	DD	FLAT:__unwindfunclet$?DrawTitle@CChartItem@@QAEXVCRect@@PAVCDC@@PAVCFont@@2K@Z$38
	DD	07H
	DD	FLAT:__unwindfunclet$?DrawTitle@CChartItem@@QAEXVCRect@@PAVCDC@@PAVCFont@@2K@Z$40
	DD	07H
	DD	FLAT:__unwindfunclet$?DrawTitle@CChartItem@@QAEXVCRect@@PAVCDC@@PAVCFont@@2K@Z$42
	DD	07H
	DD	FLAT:__unwindfunclet$?DrawTitle@CChartItem@@QAEXVCRect@@PAVCDC@@PAVCFont@@2K@Z$43
	DD	07H
	DD	FLAT:__unwindfunclet$?DrawTitle@CChartItem@@QAEXVCRect@@PAVCDC@@PAVCFont@@2K@Z$44
xdata$x	ENDS
;	COMDAT xdata$x
xdata$x	SEGMENT
__unwindtable$?ResetOCX@CChartItem@@QAEXH@Z DD 0ffffffffH
	DD	FLAT:__unwindfunclet$?ResetOCX@CChartItem@@QAEXH@Z$0
	DD	00H
	DD	FLAT:__unwindfunclet$?ResetOCX@CChartItem@@QAEXH@Z$1
__ehfuncinfo$?ResetOCX@CChartItem@@QAEXH@Z DD 019930522H
	DD	02H
	DD	FLAT:__unwindtable$?ResetOCX@CChartItem@@QAEXH@Z
	DD	2 DUP(00H)
	DD	2 DUP(00H)
	DD	00H
	DD	01H
xdata$x	ENDS
;	COMDAT xdata$x
xdata$x	SEGMENT
__ehfuncinfo$?ReceiveLoadingChartData@CChartItem@@QAEJPAXJ@Z DD 019930522H
	DD	07H
	DD	FLAT:__unwindtable$?ReceiveLoadingChartData@CChartItem@@QAEJPAXJ@Z
	DD	2 DUP(00H)
	DD	2 DUP(00H)
	DD	00H
	DD	01H
__unwindtable$?ReceiveLoadingChartData@CChartItem@@QAEJPAXJ@Z DD 0ffffffffH
	DD	FLAT:__unwindfunclet$?ReceiveLoadingChartData@CChartItem@@QAEJPAXJ@Z$0
	DD	0ffffffffH
	DD	FLAT:__unwindfunclet$?ReceiveLoadingChartData@CChartItem@@QAEJPAXJ@Z$1
	DD	0ffffffffH
	DD	FLAT:__unwindfunclet$?ReceiveLoadingChartData@CChartItem@@QAEJPAXJ@Z$2
	DD	0ffffffffH
	DD	FLAT:__unwindfunclet$?ReceiveLoadingChartData@CChartItem@@QAEJPAXJ@Z$3
	DD	0ffffffffH
	DD	FLAT:__unwindfunclet$?ReceiveLoadingChartData@CChartItem@@QAEJPAXJ@Z$4
	DD	0ffffffffH
	DD	FLAT:__unwindfunclet$?ReceiveLoadingChartData@CChartItem@@QAEJPAXJ@Z$5
	DD	0ffffffffH
	DD	FLAT:__unwindfunclet$?ReceiveLoadingChartData@CChartItem@@QAEJPAXJ@Z$6
xdata$x	ENDS
;	COMDAT xdata$x
xdata$x	SEGMENT
__ehfuncinfo$?ReceiveInitalChartData@CChartItem@@QAEJPAXJ@Z DD 019930522H
	DD	01eH
	DD	FLAT:__unwindtable$?ReceiveInitalChartData@CChartItem@@QAEJPAXJ@Z
	DD	2 DUP(00H)
	DD	2 DUP(00H)
	DD	00H
	DD	01H
__unwindtable$?ReceiveInitalChartData@CChartItem@@QAEJPAXJ@Z DD 0ffffffffH
	DD	FLAT:__unwindfunclet$?ReceiveInitalChartData@CChartItem@@QAEJPAXJ@Z$0
	DD	00H
	DD	FLAT:__unwindfunclet$?ReceiveInitalChartData@CChartItem@@QAEJPAXJ@Z$1
	DD	01H
	DD	FLAT:__unwindfunclet$?ReceiveInitalChartData@CChartItem@@QAEJPAXJ@Z$2
	DD	02H
	DD	FLAT:__unwindfunclet$?ReceiveInitalChartData@CChartItem@@QAEJPAXJ@Z$3
	DD	03H
	DD	FLAT:__unwindfunclet$?ReceiveInitalChartData@CChartItem@@QAEJPAXJ@Z$4
	DD	02H
	DD	FLAT:__unwindfunclet$?ReceiveInitalChartData@CChartItem@@QAEJPAXJ@Z$4
	DD	01H
	DD	FLAT:__unwindfunclet$?ReceiveInitalChartData@CChartItem@@QAEJPAXJ@Z$4
	DD	06H
	DD	FLAT:__unwindfunclet$?ReceiveInitalChartData@CChartItem@@QAEJPAXJ@Z$5
	DD	06H
	DD	FLAT:__unwindfunclet$?ReceiveInitalChartData@CChartItem@@QAEJPAXJ@Z$6
	DD	06H
	DD	FLAT:__unwindfunclet$?ReceiveInitalChartData@CChartItem@@QAEJPAXJ@Z$12
	DD	06H
	DD	FLAT:__unwindfunclet$?ReceiveInitalChartData@CChartItem@@QAEJPAXJ@Z$14
	DD	06H
	DD	FLAT:__unwindfunclet$?ReceiveInitalChartData@CChartItem@@QAEJPAXJ@Z$20
	DD	06H
	DD	FLAT:__unwindfunclet$?ReceiveInitalChartData@CChartItem@@QAEJPAXJ@Z$26
	DD	06H
	DD	FLAT:__unwindfunclet$?ReceiveInitalChartData@CChartItem@@QAEJPAXJ@Z$27
	DD	0dH
	DD	FLAT:__unwindfunclet$?ReceiveInitalChartData@CChartItem@@QAEJPAXJ@Z$28
	DD	06H
	DD	FLAT:__unwindfunclet$?ReceiveInitalChartData@CChartItem@@QAEJPAXJ@Z$30
	DD	06H
	DD	FLAT:__unwindfunclet$?ReceiveInitalChartData@CChartItem@@QAEJPAXJ@Z$36
	DD	06H
	DD	FLAT:__unwindfunclet$?ReceiveInitalChartData@CChartItem@@QAEJPAXJ@Z$39
	DD	06H
	DD	FLAT:__unwindfunclet$?ReceiveInitalChartData@CChartItem@@QAEJPAXJ@Z$45
	DD	012H
	DD	FLAT:__unwindfunclet$?ReceiveInitalChartData@CChartItem@@QAEJPAXJ@Z$46
	DD	013H
	DD	FLAT:__unwindfunclet$?ReceiveInitalChartData@CChartItem@@QAEJPAXJ@Z$47
	DD	012H
	DD	FLAT:__unwindfunclet$?ReceiveInitalChartData@CChartItem@@QAEJPAXJ@Z$48
	DD	015H
	DD	FLAT:__unwindfunclet$?ReceiveInitalChartData@CChartItem@@QAEJPAXJ@Z$62
	DD	016H
	DD	FLAT:__unwindfunclet$?ReceiveInitalChartData@CChartItem@@QAEJPAXJ@Z$50
	DD	015H
	DD	FLAT:__unwindfunclet$?ReceiveInitalChartData@CChartItem@@QAEJPAXJ@Z$50
	DD	012H
	DD	FLAT:__unwindfunclet$?ReceiveInitalChartData@CChartItem@@QAEJPAXJ@Z$50
	DD	06H
	DD	FLAT:__unwindfunclet$?ReceiveInitalChartData@CChartItem@@QAEJPAXJ@Z$51
	DD	06H
	DD	FLAT:__unwindfunclet$?ReceiveInitalChartData@CChartItem@@QAEJPAXJ@Z$52
	DD	01bH
	DD	FLAT:__unwindfunclet$?ReceiveInitalChartData@CChartItem@@QAEJPAXJ@Z$53
	DD	06H
	DD	FLAT:__unwindfunclet$?ReceiveInitalChartData@CChartItem@@QAEJPAXJ@Z$54
xdata$x	ENDS
;	COMDAT xdata$x
xdata$x	SEGMENT
__unwindtable$?SetInit@CChartItem@@QAEXJJPBDH@Z DD 0ffffffffH
	DD	FLAT:__unwindfunclet$?SetInit@CChartItem@@QAEXJJPBDH@Z$0
__ehfuncinfo$?SetInit@CChartItem@@QAEXJJPBDH@Z DD 019930522H
	DD	01H
	DD	FLAT:__unwindtable$?SetInit@CChartItem@@QAEXJJPBDH@Z
	DD	2 DUP(00H)
	DD	2 DUP(00H)
	DD	00H
	DD	01H
xdata$x	ENDS
;	COMDAT xdata$x
xdata$x	SEGMENT
__unwindtable$?Create@CChartItem@@QAEHPAVCWnd@@PAUtagRECT@@HJJPBDH@Z DD 0ffffffffH
	DD	FLAT:__unwindfunclet$?Create@CChartItem@@QAEHPAVCWnd@@PAUtagRECT@@HJJPBDH@Z$0
	DD	00H
	DD	FLAT:__unwindfunclet$?Create@CChartItem@@QAEHPAVCWnd@@PAUtagRECT@@HJJPBDH@Z$1
	DD	01H
	DD	FLAT:__unwindfunclet$?Create@CChartItem@@QAEHPAVCWnd@@PAUtagRECT@@HJJPBDH@Z$2
__ehfuncinfo$?Create@CChartItem@@QAEHPAVCWnd@@PAUtagRECT@@HJJPBDH@Z DD 019930522H
	DD	03H
	DD	FLAT:__unwindtable$?Create@CChartItem@@QAEHPAVCWnd@@PAUtagRECT@@HJJPBDH@Z
	DD	2 DUP(00H)
	DD	2 DUP(00H)
	DD	00H
	DD	01H
xdata$x	ENDS
;	COMDAT xdata$x
xdata$x	SEGMENT
__unwindtable$?GetReplayStartTime@CChartItem@@QAE?AV?$CStringT@DV?$StrTraitMFC_DLL@DV?$ChTraitsCRT@D@ATL@@@@@ATL@@XZ DD 0ffffffffH
	DD	FLAT:__unwindfunclet$?GetReplayStartTime@CChartItem@@QAE?AV?$CStringT@DV?$StrTraitMFC_DLL@DV?$ChTraitsCRT@D@ATL@@@@@ATL@@XZ$0
__ehfuncinfo$?GetReplayStartTime@CChartItem@@QAE?AV?$CStringT@DV?$StrTraitMFC_DLL@DV?$ChTraitsCRT@D@ATL@@@@@ATL@@XZ DD 019930522H
	DD	01H
	DD	FLAT:__unwindtable$?GetReplayStartTime@CChartItem@@QAE?AV?$CStringT@DV?$StrTraitMFC_DLL@DV?$ChTraitsCRT@D@ATL@@@@@ATL@@XZ
	DD	2 DUP(00H)
	DD	2 DUP(00H)
	DD	00H
	DD	01H
xdata$x	ENDS
;	COMDAT xdata$x
xdata$x	SEGMENT
__unwindtable$?GetReplayDayBefore@CChartItem@@QAE?AV?$CStringT@DV?$StrTraitMFC_DLL@DV?$ChTraitsCRT@D@ATL@@@@@ATL@@XZ DD 0ffffffffH
	DD	FLAT:__unwindfunclet$?GetReplayDayBefore@CChartItem@@QAE?AV?$CStringT@DV?$StrTraitMFC_DLL@DV?$ChTraitsCRT@D@ATL@@@@@ATL@@XZ$0
__ehfuncinfo$?GetReplayDayBefore@CChartItem@@QAE?AV?$CStringT@DV?$StrTraitMFC_DLL@DV?$ChTraitsCRT@D@ATL@@@@@ATL@@XZ DD 019930522H
	DD	01H
	DD	FLAT:__unwindtable$?GetReplayDayBefore@CChartItem@@QAE?AV?$CStringT@DV?$StrTraitMFC_DLL@DV?$ChTraitsCRT@D@ATL@@@@@ATL@@XZ
	DD	2 DUP(00H)
	DD	2 DUP(00H)
	DD	00H
	DD	01H
xdata$x	ENDS
;	COMDAT xdata$x
xdata$x	SEGMENT
__unwindtable$?SetEndDate@CChartItem@@QAEXPBD@Z DD 0ffffffffH
	DD	FLAT:__unwindfunclet$?SetEndDate@CChartItem@@QAEXPBD@Z$0
__ehfuncinfo$?SetEndDate@CChartItem@@QAEXPBD@Z DD 019930522H
	DD	01H
	DD	FLAT:__unwindtable$?SetEndDate@CChartItem@@QAEXPBD@Z
	DD	2 DUP(00H)
	DD	2 DUP(00H)
	DD	00H
	DD	01H
xdata$x	ENDS
;	COMDAT xdata$x
xdata$x	SEGMENT
__unwindtable$?SetPacketData@CChartItem@@QAEHPBDJJH@Z DD 0ffffffffH
	DD	FLAT:__unwindfunclet$?SetPacketData@CChartItem@@QAEHPBDJJH@Z$0
	DD	00H
	DD	FLAT:__unwindfunclet$?SetPacketData@CChartItem@@QAEHPBDJJH@Z$1
__ehfuncinfo$?SetPacketData@CChartItem@@QAEHPBDJJH@Z DD 019930522H
	DD	02H
	DD	FLAT:__unwindtable$?SetPacketData@CChartItem@@QAEHPBDJJH@Z
	DD	2 DUP(00H)
	DD	2 DUP(00H)
	DD	00H
	DD	01H
xdata$x	ENDS
;	COMDAT xdata$x
xdata$x	SEGMENT
__ehfuncinfo$??0CChartItem@@QAE@XZ DD 019930522H
	DD	02eH
	DD	FLAT:__unwindtable$??0CChartItem@@QAE@XZ
	DD	2 DUP(00H)
	DD	2 DUP(00H)
	DD	00H
	DD	01H
__unwindtable$??0CChartItem@@QAE@XZ DD 0ffffffffH
	DD	FLAT:__unwindfunclet$??0CChartItem@@QAE@XZ$0
	DD	00H
	DD	FLAT:__unwindfunclet$??0CChartItem@@QAE@XZ$1
	DD	01H
	DD	FLAT:__unwindfunclet$??0CChartItem@@QAE@XZ$2
	DD	02H
	DD	FLAT:__unwindfunclet$??0CChartItem@@QAE@XZ$3
	DD	03H
	DD	FLAT:__unwindfunclet$??0CChartItem@@QAE@XZ$4
	DD	04H
	DD	FLAT:__unwindfunclet$??0CChartItem@@QAE@XZ$5
	DD	05H
	DD	FLAT:__unwindfunclet$??0CChartItem@@QAE@XZ$6
	DD	06H
	DD	FLAT:__unwindfunclet$??0CChartItem@@QAE@XZ$7
	DD	07H
	DD	FLAT:__unwindfunclet$??0CChartItem@@QAE@XZ$8
	DD	08H
	DD	FLAT:__unwindfunclet$??0CChartItem@@QAE@XZ$9
	DD	09H
	DD	FLAT:__unwindfunclet$??0CChartItem@@QAE@XZ$10
	DD	0aH
	DD	FLAT:__unwindfunclet$??0CChartItem@@QAE@XZ$11
	DD	0bH
	DD	FLAT:__unwindfunclet$??0CChartItem@@QAE@XZ$12
	DD	0cH
	DD	FLAT:__unwindfunclet$??0CChartItem@@QAE@XZ$13
	DD	0dH
	DD	FLAT:__unwindfunclet$??0CChartItem@@QAE@XZ$14
	DD	0eH
	DD	FLAT:__unwindfunclet$??0CChartItem@@QAE@XZ$15
	DD	0fH
	DD	FLAT:__unwindfunclet$??0CChartItem@@QAE@XZ$16
	DD	010H
	DD	FLAT:__unwindfunclet$??0CChartItem@@QAE@XZ$17
	DD	011H
	DD	FLAT:__unwindfunclet$??0CChartItem@@QAE@XZ$18
	DD	012H
	DD	FLAT:__unwindfunclet$??0CChartItem@@QAE@XZ$19
	DD	013H
	DD	FLAT:__unwindfunclet$??0CChartItem@@QAE@XZ$20
	DD	014H
	DD	FLAT:__unwindfunclet$??0CChartItem@@QAE@XZ$21
	DD	015H
	DD	FLAT:__unwindfunclet$??0CChartItem@@QAE@XZ$22
	DD	016H
	DD	FLAT:__unwindfunclet$??0CChartItem@@QAE@XZ$23
	DD	017H
	DD	FLAT:__unwindfunclet$??0CChartItem@@QAE@XZ$24
	DD	018H
	DD	FLAT:__unwindfunclet$??0CChartItem@@QAE@XZ$25
	DD	019H
	DD	FLAT:__unwindfunclet$??0CChartItem@@QAE@XZ$26
	DD	01aH
	DD	FLAT:__unwindfunclet$??0CChartItem@@QAE@XZ$27
	DD	01bH
	DD	FLAT:__unwindfunclet$??0CChartItem@@QAE@XZ$28
	DD	01cH
	DD	FLAT:__unwindfunclet$??0CChartItem@@QAE@XZ$29
	DD	01dH
	DD	FLAT:__unwindfunclet$??0CChartItem@@QAE@XZ$30
	DD	01eH
	DD	FLAT:__unwindfunclet$??0CChartItem@@QAE@XZ$31
	DD	01fH
	DD	FLAT:__unwindfunclet$??0CChartItem@@QAE@XZ$32
	DD	020H
	DD	FLAT:__unwindfunclet$??0CChartItem@@QAE@XZ$33
	DD	021H
	DD	FLAT:__unwindfunclet$??0CChartItem@@QAE@XZ$34
	DD	022H
	DD	FLAT:__unwindfunclet$??0CChartItem@@QAE@XZ$35
	DD	023H
	DD	FLAT:__unwindfunclet$??0CChartItem@@QAE@XZ$36
	DD	024H
	DD	FLAT:__unwindfunclet$??0CChartItem@@QAE@XZ$37
	DD	025H
	DD	FLAT:__unwindfunclet$??0CChartItem@@QAE@XZ$38
	DD	026H
	DD	FLAT:__unwindfunclet$??0CChartItem@@QAE@XZ$39
	DD	027H
	DD	FLAT:__unwindfunclet$??0CChartItem@@QAE@XZ$40
	DD	028H
	DD	FLAT:__unwindfunclet$??0CChartItem@@QAE@XZ$41
	DD	029H
	DD	FLAT:__unwindfunclet$??0CChartItem@@QAE@XZ$42
	DD	02aH
	DD	FLAT:__unwindfunclet$??0CChartItem@@QAE@XZ$43
	DD	02bH
	DD	FLAT:__unwindfunclet$??0CChartItem@@QAE@XZ$44
	DD	02cH
	DD	FLAT:__unwindfunclet$??0CChartItem@@QAE@XZ$45
xdata$x	ENDS
;	COMDAT xdata$x
xdata$x	SEGMENT
__unwindtable$?SetOldChartCode@CChartItem@@QAEXV?$CStringT@DV?$StrTraitMFC_DLL@DV?$ChTraitsCRT@D@ATL@@@@@ATL@@@Z DD 0ffffffffH
	DD	FLAT:__unwindfunclet$?SetOldChartCode@CChartItem@@QAEXV?$CStringT@DV?$StrTraitMFC_DLL@DV?$ChTraitsCRT@D@ATL@@@@@ATL@@@Z$0
__ehfuncinfo$?SetOldChartCode@CChartItem@@QAEXV?$CStringT@DV?$StrTraitMFC_DLL@DV?$ChTraitsCRT@D@ATL@@@@@ATL@@@Z DD 019930522H
	DD	01H
	DD	FLAT:__unwindtable$?SetOldChartCode@CChartItem@@QAEXV?$CStringT@DV?$StrTraitMFC_DLL@DV?$ChTraitsCRT@D@ATL@@@@@ATL@@@Z
	DD	2 DUP(00H)
	DD	2 DUP(00H)
	DD	00H
	DD	01H
xdata$x	ENDS
;	COMDAT xdata$x
xdata$x	SEGMENT
__ehfuncinfo$?DrawReplayChartTitle@CChartItem@@QAEXVCRect@@PAVCDC@@PAVCFont@@2K@Z DD 019930522H
	DD	06H
	DD	FLAT:__unwindtable$?DrawReplayChartTitle@CChartItem@@QAEXVCRect@@PAVCDC@@PAVCFont@@2K@Z
	DD	2 DUP(00H)
	DD	2 DUP(00H)
	DD	00H
	DD	01H
__unwindtable$?DrawReplayChartTitle@CChartItem@@QAEXVCRect@@PAVCDC@@PAVCFont@@2K@Z DD 0ffffffffH
	DD	FLAT:__unwindfunclet$?DrawReplayChartTitle@CChartItem@@QAEXVCRect@@PAVCDC@@PAVCFont@@2K@Z$0
	DD	00H
	DD	FLAT:__unwindfunclet$?DrawReplayChartTitle@CChartItem@@QAEXVCRect@@PAVCDC@@PAVCFont@@2K@Z$1
	DD	01H
	DD	FLAT:__unwindfunclet$?DrawReplayChartTitle@CChartItem@@QAEXVCRect@@PAVCDC@@PAVCFont@@2K@Z$2
	DD	02H
	DD	FLAT:__unwindfunclet$?DrawReplayChartTitle@CChartItem@@QAEXVCRect@@PAVCDC@@PAVCFont@@2K@Z$5
	DD	03H
	DD	FLAT:__unwindfunclet$?DrawReplayChartTitle@CChartItem@@QAEXVCRect@@PAVCDC@@PAVCFont@@2K@Z$7
	DD	02H
	DD	FLAT:__unwindfunclet$?DrawReplayChartTitle@CChartItem@@QAEXVCRect@@PAVCDC@@PAVCFont@@2K@Z$8
xdata$x	ENDS
;	COMDAT xdata$x
xdata$x	SEGMENT
__unwindtable$?SetReplayChart_RealData@CChartItem@@QAEXV?$CStringT@DV?$StrTraitMFC_DLL@DV?$ChTraitsCRT@D@ATL@@@@@ATL@@00@Z DD 0ffffffffH
	DD	FLAT:__unwindfunclet$?SetReplayChart_RealData@CChartItem@@QAEXV?$CStringT@DV?$StrTraitMFC_DLL@DV?$ChTraitsCRT@D@ATL@@@@@ATL@@00@Z$0
	DD	00H
	DD	FLAT:__unwindfunclet$?SetReplayChart_RealData@CChartItem@@QAEXV?$CStringT@DV?$StrTraitMFC_DLL@DV?$ChTraitsCRT@D@ATL@@@@@ATL@@00@Z$1
	DD	01H
	DD	FLAT:__unwindfunclet$?SetReplayChart_RealData@CChartItem@@QAEXV?$CStringT@DV?$StrTraitMFC_DLL@DV?$ChTraitsCRT@D@ATL@@@@@ATL@@00@Z$2
__ehfuncinfo$?SetReplayChart_RealData@CChartItem@@QAEXV?$CStringT@DV?$StrTraitMFC_DLL@DV?$ChTraitsCRT@D@ATL@@@@@ATL@@00@Z DD 019930522H
	DD	03H
	DD	FLAT:__unwindtable$?SetReplayChart_RealData@CChartItem@@QAEXV?$CStringT@DV?$StrTraitMFC_DLL@DV?$ChTraitsCRT@D@ATL@@@@@ATL@@00@Z
	DD	2 DUP(00H)
	DD	2 DUP(00H)
	DD	00H
	DD	01H
xdata$x	ENDS
;	COMDAT xdata$x
xdata$x	SEGMENT
__ehfuncinfo$?SetReplay_CurDate@CChartItem@@QAEXV?$CStringT@DV?$StrTraitMFC_DLL@DV?$ChTraitsCRT@D@ATL@@@@@ATL@@@Z DD 019930522H
	DD	05H
	DD	FLAT:__unwindtable$?SetReplay_CurDate@CChartItem@@QAEXV?$CStringT@DV?$StrTraitMFC_DLL@DV?$ChTraitsCRT@D@ATL@@@@@ATL@@@Z
	DD	2 DUP(00H)
	DD	2 DUP(00H)
	DD	00H
	DD	01H
__unwindtable$?SetReplay_CurDate@CChartItem@@QAEXV?$CStringT@DV?$StrTraitMFC_DLL@DV?$ChTraitsCRT@D@ATL@@@@@ATL@@@Z DD 0ffffffffH
	DD	FLAT:__unwindfunclet$?SetReplay_CurDate@CChartItem@@QAEXV?$CStringT@DV?$StrTraitMFC_DLL@DV?$ChTraitsCRT@D@ATL@@@@@ATL@@@Z$0
	DD	00H
	DD	FLAT:__unwindfunclet$?SetReplay_CurDate@CChartItem@@QAEXV?$CStringT@DV?$StrTraitMFC_DLL@DV?$ChTraitsCRT@D@ATL@@@@@ATL@@@Z$1
	DD	00H
	DD	FLAT:__unwindfunclet$?SetReplay_CurDate@CChartItem@@QAEXV?$CStringT@DV?$StrTraitMFC_DLL@DV?$ChTraitsCRT@D@ATL@@@@@ATL@@@Z$2
	DD	02H
	DD	FLAT:__unwindfunclet$?SetReplay_CurDate@CChartItem@@QAEXV?$CStringT@DV?$StrTraitMFC_DLL@DV?$ChTraitsCRT@D@ATL@@@@@ATL@@@Z$3
	DD	03H
	DD	FLAT:__unwindfunclet$?SetReplay_CurDate@CChartItem@@QAEXV?$CStringT@DV?$StrTraitMFC_DLL@DV?$ChTraitsCRT@D@ATL@@@@@ATL@@@Z$4
xdata$x	ENDS
;	COMDAT xdata$x
xdata$x	SEGMENT
__unwindtable$?RemoveChartItem_OneData@CChartItem@@QAEHPBDV?$CStringT@DV?$StrTraitMFC_DLL@DV?$ChTraitsCRT@D@ATL@@@@@ATL@@@Z DD 0ffffffffH
	DD	FLAT:__unwindfunclet$?RemoveChartItem_OneData@CChartItem@@QAEHPBDV?$CStringT@DV?$StrTraitMFC_DLL@DV?$ChTraitsCRT@D@ATL@@@@@ATL@@@Z$0
	DD	00H
	DD	FLAT:__unwindfunclet$?RemoveChartItem_OneData@CChartItem@@QAEHPBDV?$CStringT@DV?$StrTraitMFC_DLL@DV?$ChTraitsCRT@D@ATL@@@@@ATL@@@Z$1
	DD	01H
	DD	FLAT:__unwindfunclet$?RemoveChartItem_OneData@CChartItem@@QAEHPBDV?$CStringT@DV?$StrTraitMFC_DLL@DV?$ChTraitsCRT@D@ATL@@@@@ATL@@@Z$2
	DD	02H
	DD	FLAT:__unwindfunclet$?RemoveChartItem_OneData@CChartItem@@QAEHPBDV?$CStringT@DV?$StrTraitMFC_DLL@DV?$ChTraitsCRT@D@ATL@@@@@ATL@@@Z$3
__ehfuncinfo$?RemoveChartItem_OneData@CChartItem@@QAEHPBDV?$CStringT@DV?$StrTraitMFC_DLL@DV?$ChTraitsCRT@D@ATL@@@@@ATL@@@Z DD 019930522H
	DD	04H
	DD	FLAT:__unwindtable$?RemoveChartItem_OneData@CChartItem@@QAEHPBDV?$CStringT@DV?$StrTraitMFC_DLL@DV?$ChTraitsCRT@D@ATL@@@@@ATL@@@Z
	DD	2 DUP(00H)
	DD	2 DUP(00H)
	DD	00H
	DD	01H
xdata$x	ENDS
;	COMDAT xdata$x
xdata$x	SEGMENT
__unwindtable$?RemoveAllMarketData@CChartItem@@QAEXXZ DD 0ffffffffH
	DD	FLAT:__unwindfunclet$?RemoveAllMarketData@CChartItem@@QAEXXZ$0
__ehfuncinfo$?RemoveAllMarketData@CChartItem@@QAEXXZ DD 019930522H
	DD	01H
	DD	FLAT:__unwindtable$?RemoveAllMarketData@CChartItem@@QAEXXZ
	DD	2 DUP(00H)
	DD	2 DUP(00H)
	DD	00H
	DD	01H
xdata$x	ENDS
;	COMDAT xdata$x
xdata$x	SEGMENT
__ehfuncinfo$?GetChartItemMarketDataNew@CChartItem@@QAEPAVCChartItemData@@V?$CStringT@DV?$StrTraitMFC_DLL@DV?$ChTraitsCRT@D@ATL@@@@@ATL@@PBD@Z DD 019930522H
	DD	05H
	DD	FLAT:__unwindtable$?GetChartItemMarketDataNew@CChartItem@@QAEPAVCChartItemData@@V?$CStringT@DV?$StrTraitMFC_DLL@DV?$ChTraitsCRT@D@ATL@@@@@ATL@@PBD@Z
	DD	2 DUP(00H)
	DD	2 DUP(00H)
	DD	00H
	DD	01H
__unwindtable$?GetChartItemMarketDataNew@CChartItem@@QAEPAVCChartItemData@@V?$CStringT@DV?$StrTraitMFC_DLL@DV?$ChTraitsCRT@D@ATL@@@@@ATL@@PBD@Z DD 0ffffffffH
	DD	FLAT:__unwindfunclet$?GetChartItemMarketDataNew@CChartItem@@QAEPAVCChartItemData@@V?$CStringT@DV?$StrTraitMFC_DLL@DV?$ChTraitsCRT@D@ATL@@@@@ATL@@PBD@Z$0
	DD	00H
	DD	FLAT:__unwindfunclet$?GetChartItemMarketDataNew@CChartItem@@QAEPAVCChartItemData@@V?$CStringT@DV?$StrTraitMFC_DLL@DV?$ChTraitsCRT@D@ATL@@@@@ATL@@PBD@Z$1
	DD	01H
	DD	FLAT:__unwindfunclet$?GetChartItemMarketDataNew@CChartItem@@QAEPAVCChartItemData@@V?$CStringT@DV?$StrTraitMFC_DLL@DV?$ChTraitsCRT@D@ATL@@@@@ATL@@PBD@Z$2
	DD	02H
	DD	FLAT:__unwindfunclet$?GetChartItemMarketDataNew@CChartItem@@QAEPAVCChartItemData@@V?$CStringT@DV?$StrTraitMFC_DLL@DV?$ChTraitsCRT@D@ATL@@@@@ATL@@PBD@Z$3
	DD	01H
	DD	FLAT:__unwindfunclet$?GetChartItemMarketDataNew@CChartItem@@QAEPAVCChartItemData@@V?$CStringT@DV?$StrTraitMFC_DLL@DV?$ChTraitsCRT@D@ATL@@@@@ATL@@PBD@Z$4
xdata$x	ENDS
;	COMDAT xdata$x
xdata$x	SEGMENT
__unwindtable$?GetMarketQueryData@CChartItem@@QAE?AV?$CStringT@DV?$StrTraitMFC_DLL@DV?$ChTraitsCRT@D@ATL@@@@@ATL@@V23@HH@Z DD 0ffffffffH
	DD	FLAT:__unwindfunclet$?GetMarketQueryData@CChartItem@@QAE?AV?$CStringT@DV?$StrTraitMFC_DLL@DV?$ChTraitsCRT@D@ATL@@@@@ATL@@V23@HH@Z$0
	DD	00H
	DD	FLAT:__unwindfunclet$?GetMarketQueryData@CChartItem@@QAE?AV?$CStringT@DV?$StrTraitMFC_DLL@DV?$ChTraitsCRT@D@ATL@@@@@ATL@@V23@HH@Z$2
__ehfuncinfo$?GetMarketQueryData@CChartItem@@QAE?AV?$CStringT@DV?$StrTraitMFC_DLL@DV?$ChTraitsCRT@D@ATL@@@@@ATL@@V23@HH@Z DD 019930522H
	DD	02H
	DD	FLAT:__unwindtable$?GetMarketQueryData@CChartItem@@QAE?AV?$CStringT@DV?$StrTraitMFC_DLL@DV?$ChTraitsCRT@D@ATL@@@@@ATL@@V23@HH@Z
	DD	2 DUP(00H)
	DD	2 DUP(00H)
	DD	00H
	DD	01H
xdata$x	ENDS
;	COMDAT xdata$x
xdata$x	SEGMENT
__ehfuncinfo$?ReceiveMarketChartData@CChartItem@@QAEJPAXJ@Z DD 019930522H
	DD	09H
	DD	FLAT:__unwindtable$?ReceiveMarketChartData@CChartItem@@QAEJPAXJ@Z
	DD	2 DUP(00H)
	DD	2 DUP(00H)
	DD	00H
	DD	01H
__unwindtable$?ReceiveMarketChartData@CChartItem@@QAEJPAXJ@Z DD 0ffffffffH
	DD	FLAT:__unwindfunclet$?ReceiveMarketChartData@CChartItem@@QAEJPAXJ@Z$0
	DD	00H
	DD	FLAT:__unwindfunclet$?ReceiveMarketChartData@CChartItem@@QAEJPAXJ@Z$1
	DD	01H
	DD	FLAT:__unwindfunclet$?ReceiveMarketChartData@CChartItem@@QAEJPAXJ@Z$2
	DD	02H
	DD	FLAT:__unwindfunclet$?ReceiveMarketChartData@CChartItem@@QAEJPAXJ@Z$3
	DD	03H
	DD	FLAT:__unwindfunclet$?ReceiveMarketChartData@CChartItem@@QAEJPAXJ@Z$4
	DD	04H
	DD	FLAT:__unwindfunclet$?ReceiveMarketChartData@CChartItem@@QAEJPAXJ@Z$5
	DD	04H
	DD	FLAT:__unwindfunclet$?ReceiveMarketChartData@CChartItem@@QAEJPAXJ@Z$6
	DD	04H
	DD	FLAT:__unwindfunclet$?ReceiveMarketChartData@CChartItem@@QAEJPAXJ@Z$7
	DD	07H
	DD	FLAT:__unwindfunclet$?ReceiveMarketChartData@CChartItem@@QAEJPAXJ@Z$8
xdata$x	ENDS
;	COMDAT xdata$x
xdata$x	SEGMENT
__unwindtable$?SetReplay_PrePrice@CChartItem@@QAEXV?$CStringT@DV?$StrTraitMFC_DLL@DV?$ChTraitsCRT@D@ATL@@@@@ATL@@@Z DD 0ffffffffH
	DD	FLAT:__unwindfunclet$?SetReplay_PrePrice@CChartItem@@QAEXV?$CStringT@DV?$StrTraitMFC_DLL@DV?$ChTraitsCRT@D@ATL@@@@@ATL@@@Z$0
	DD	00H
	DD	FLAT:__unwindfunclet$?SetReplay_PrePrice@CChartItem@@QAEXV?$CStringT@DV?$StrTraitMFC_DLL@DV?$ChTraitsCRT@D@ATL@@@@@ATL@@@Z$1
	DD	01H
	DD	FLAT:__unwindfunclet$?SetReplay_PrePrice@CChartItem@@QAEXV?$CStringT@DV?$StrTraitMFC_DLL@DV?$ChTraitsCRT@D@ATL@@@@@ATL@@@Z$2
__ehfuncinfo$?SetReplay_PrePrice@CChartItem@@QAEXV?$CStringT@DV?$StrTraitMFC_DLL@DV?$ChTraitsCRT@D@ATL@@@@@ATL@@@Z DD 019930522H
	DD	03H
	DD	FLAT:__unwindtable$?SetReplay_PrePrice@CChartItem@@QAEXV?$CStringT@DV?$StrTraitMFC_DLL@DV?$ChTraitsCRT@D@ATL@@@@@ATL@@@Z
	DD	2 DUP(00H)
	DD	2 DUP(00H)
	DD	00H
	DD	01H
xdata$x	ENDS
;	COMDAT xdata$x
xdata$x	SEGMENT
__ehfuncinfo$?SaveChartInfo4PeriodRQ@CChartItem@@QAEHPBDH@Z DD 019930522H
	DD	08H
	DD	FLAT:__unwindtable$?SaveChartInfo4PeriodRQ@CChartItem@@QAEHPBDH@Z
	DD	2 DUP(00H)
	DD	2 DUP(00H)
	DD	00H
	DD	01H
__unwindtable$?SaveChartInfo4PeriodRQ@CChartItem@@QAEHPBDH@Z DD 0ffffffffH
	DD	FLAT:__unwindfunclet$?SaveChartInfo4PeriodRQ@CChartItem@@QAEHPBDH@Z$0
	DD	00H
	DD	FLAT:__unwindfunclet$?SaveChartInfo4PeriodRQ@CChartItem@@QAEHPBDH@Z$1
	DD	01H
	DD	FLAT:__unwindfunclet$?SaveChartInfo4PeriodRQ@CChartItem@@QAEHPBDH@Z$2
	DD	02H
	DD	FLAT:__unwindfunclet$?SaveChartInfo4PeriodRQ@CChartItem@@QAEHPBDH@Z$3
	DD	03H
	DD	FLAT:__unwindfunclet$?SaveChartInfo4PeriodRQ@CChartItem@@QAEHPBDH@Z$4
	DD	04H
	DD	FLAT:__unwindfunclet$?SaveChartInfo4PeriodRQ@CChartItem@@QAEHPBDH@Z$5
	DD	05H
	DD	FLAT:__unwindfunclet$?SaveChartInfo4PeriodRQ@CChartItem@@QAEHPBDH@Z$6
	DD	04H
	DD	FLAT:__unwindfunclet$?SaveChartInfo4PeriodRQ@CChartItem@@QAEHPBDH@Z$6
xdata$x	ENDS
;	COMDAT xdata$x
xdata$x	SEGMENT
__unwindtable$?GetCountRQ@CChartItem@@QAEHXZ DD 0ffffffffH
	DD	FLAT:__unwindfunclet$?GetCountRQ@CChartItem@@QAEHXZ$0
	DD	00H
	DD	FLAT:__unwindfunclet$?GetCountRQ@CChartItem@@QAEHXZ$1
	DD	01H
	DD	FLAT:__unwindfunclet$?GetCountRQ@CChartItem@@QAEHXZ$2
	DD	02H
	DD	FLAT:__unwindfunclet$?GetCountRQ@CChartItem@@QAEHXZ$3
__ehfuncinfo$?GetCountRQ@CChartItem@@QAEHXZ DD 019930522H
	DD	04H
	DD	FLAT:__unwindtable$?GetCountRQ@CChartItem@@QAEHXZ
	DD	2 DUP(00H)
	DD	2 DUP(00H)
	DD	00H
	DD	01H
xdata$x	ENDS
;	COMDAT xdata$x
xdata$x	SEGMENT
__unwindtable$?AfxGetPctrData@@YGJH@Z DD 0ffffffffH
	DD	FLAT:__unwindfunclet$?AfxGetPctrData@@YGJH@Z$0
__ehfuncinfo$?AfxGetPctrData@@YGJH@Z DD 019930522H
	DD	01H
	DD	FLAT:__unwindtable$?AfxGetPctrData@@YGJH@Z
	DD	2 DUP(00H)
	DD	2 DUP(00H)
	DD	00H
	DD	01H
xdata$x	ENDS
;	COMDAT xdata$x
xdata$x	SEGMENT
__unwindtable$?AfxGetPctrInterface@@YGJH@Z DD 0ffffffffH
	DD	FLAT:__unwindfunclet$?AfxGetPctrInterface@@YGJH@Z$0
__ehfuncinfo$?AfxGetPctrInterface@@YGJH@Z DD 019930522H
	DD	01H
	DD	FLAT:__unwindtable$?AfxGetPctrInterface@@YGJH@Z
	DD	2 DUP(00H)
	DD	2 DUP(00H)
	DD	00H
	DD	01H
xdata$x	ENDS
;	COMDAT xdata$x
xdata$x	SEGMENT
__unwindtable$??HATL@@YA?AV?$CStringT@DV?$StrTraitMFC_DLL@DV?$ChTraitsCRT@D@ATL@@@@@0@DABV10@@Z DD 0ffffffffH
	DD	FLAT:__unwindfunclet$??HATL@@YA?AV?$CStringT@DV?$StrTraitMFC_DLL@DV?$ChTraitsCRT@D@ATL@@@@@0@DABV10@@Z$0
__ehfuncinfo$??HATL@@YA?AV?$CStringT@DV?$StrTraitMFC_DLL@DV?$ChTraitsCRT@D@ATL@@@@@0@DABV10@@Z DD 019930522H
	DD	01H
	DD	FLAT:__unwindtable$??HATL@@YA?AV?$CStringT@DV?$StrTraitMFC_DLL@DV?$ChTraitsCRT@D@ATL@@@@@0@DABV10@@Z
	DD	2 DUP(00H)
	DD	2 DUP(00H)
	DD	00H
	DD	01H
xdata$x	ENDS
;	COMDAT xdata$x
xdata$x	SEGMENT
__unwindtable$??HATL@@YA?AV?$CStringT@DV?$StrTraitMFC_DLL@DV?$ChTraitsCRT@D@ATL@@@@@0@ABV10@PBD@Z DD 0ffffffffH
	DD	FLAT:__unwindfunclet$??HATL@@YA?AV?$CStringT@DV?$StrTraitMFC_DLL@DV?$ChTraitsCRT@D@ATL@@@@@0@ABV10@PBD@Z$0
__ehfuncinfo$??HATL@@YA?AV?$CStringT@DV?$StrTraitMFC_DLL@DV?$ChTraitsCRT@D@ATL@@@@@0@ABV10@PBD@Z DD 019930522H
	DD	01H
	DD	FLAT:__unwindtable$??HATL@@YA?AV?$CStringT@DV?$StrTraitMFC_DLL@DV?$ChTraitsCRT@D@ATL@@@@@0@ABV10@PBD@Z
	DD	2 DUP(00H)
	DD	2 DUP(00H)
	DD	00H
	DD	01H
xdata$x	ENDS
;	COMDAT xdata$x
xdata$x	SEGMENT
__unwindtable$??HATL@@YA?AV?$CStringT@DV?$StrTraitMFC_DLL@DV?$ChTraitsCRT@D@ATL@@@@@0@ABV10@0@Z DD 0ffffffffH
	DD	FLAT:__unwindfunclet$??HATL@@YA?AV?$CStringT@DV?$StrTraitMFC_DLL@DV?$ChTraitsCRT@D@ATL@@@@@0@ABV10@0@Z$0
__ehfuncinfo$??HATL@@YA?AV?$CStringT@DV?$StrTraitMFC_DLL@DV?$ChTraitsCRT@D@ATL@@@@@0@ABV10@0@Z DD 019930522H
	DD	01H
	DD	FLAT:__unwindtable$??HATL@@YA?AV?$CStringT@DV?$StrTraitMFC_DLL@DV?$ChTraitsCRT@D@ATL@@@@@0@ABV10@0@Z
	DD	2 DUP(00H)
	DD	2 DUP(00H)
	DD	00H
	DD	01H
xdata$x	ENDS
CRT$XCU	SEGMENT
?RMSG_INTERFACE$initializer$@@3P6AXXZA DD FLAT:??__ERMSG_INTERFACE@@YAXXZ ; RMSG_INTERFACE$initializer$
CRT$XCU	ENDS
CRT$XCU	SEGMENT
?RMSG_GETPCTRDATA$initializer$@@3P6AXXZA DD FLAT:??__ERMSG_GETPCTRDATA@@YAXXZ ; RMSG_GETPCTRDATA$initializer$
CRT$XCU	ENDS
CRT$XCU	SEGMENT
?RMSG_GETSIGNAL_REAL$initializer$@@3P6AXXZA DD FLAT:??__ERMSG_GETSIGNAL_REAL@@YAXXZ ; RMSG_GETSIGNAL_REAL$initializer$
CRT$XCU	ENDS
CRT$XCU	SEGMENT
?RMSG_SETQUERYOPT$initializer$@@3P6AXXZA DD FLAT:??__ERMSG_SETQUERYOPT@@YAXXZ ; RMSG_SETQUERYOPT$initializer$
CRT$XCU	ENDS
CRT$XCU	SEGMENT
?RMSG_CHARTMAIN$initializer$@@3P6AXXZA DD FLAT:??__ERMSG_CHARTMAIN@@YAXXZ ; RMSG_CHARTMAIN$initializer$
CRT$XCU	ENDS
CRT$XCU	SEGMENT
?RMS_ANALYSIS_FUNC$initializer$@@3P6AXXZA DD FLAT:??__ERMS_ANALYSIS_FUNC@@YAXXZ ; RMS_ANALYSIS_FUNC$initializer$
CRT$XCU	ENDS
CRT$XCU	SEGMENT
?RMSG_GET_USERID$initializer$@@3P6AXXZA DD FLAT:??__ERMSG_GET_USERID@@YAXXZ ; RMSG_GET_USERID$initializer$
CRT$XCU	ENDS
CRT$XCU	SEGMENT
?RMSG_CHANGE_SKINCOLOR$initializer$@@3P6AXXZA DD FLAT:??__ERMSG_CHANGE_SKINCOLOR@@YAXXZ ; RMSG_CHANGE_SKINCOLOR$initializer$
CRT$XCU	ENDS
CRT$XCU	SEGMENT
?RMSG_GET_SKINCOLOR$initializer$@@3P6AXXZA DD FLAT:??__ERMSG_GET_SKINCOLOR@@YAXXZ ; RMSG_GET_SKINCOLOR$initializer$
CRT$XCU	ENDS
CRT$XCU	SEGMENT
?RMSG_CHANGEVERTSCALETYPE$initializer$@@3P6AXXZA DD FLAT:??__ERMSG_CHANGEVERTSCALETYPE@@YAXXZ ; RMSG_CHANGEVERTSCALETYPE$initializer$
CRT$XCU	ENDS
CRT$XCU	SEGMENT
?RMSG_CHANGE_CROSSLINE$initializer$@@3P6AXXZA DD FLAT:??__ERMSG_CHANGE_CROSSLINE@@YAXXZ ; RMSG_CHANGE_CROSSLINE$initializer$
CRT$XCU	ENDS
CRT$XCU	SEGMENT
?RMSG_ADD_PLATFORM_MENU$initializer$@@3P6AXXZA DD FLAT:??__ERMSG_ADD_PLATFORM_MENU@@YAXXZ ; RMSG_ADD_PLATFORM_MENU$initializer$
CRT$XCU	ENDS
CRT$XCU	SEGMENT
?RMSG_SETINITIALCHARTDATA$initializer$@@3P6AXXZA DD FLAT:??__ERMSG_SETINITIALCHARTDATA@@YAXXZ ; RMSG_SETINITIALCHARTDATA$initializer$
CRT$XCU	ENDS
CRT$XCU	SEGMENT
?RMSG_GETINFO$initializer$@@3P6AXXZA DD FLAT:??__ERMSG_GETINFO@@YAXXZ ; RMSG_GETINFO$initializer$
CRT$XCU	ENDS
CRT$XCU	SEGMENT
?RMSG_SETINFO$initializer$@@3P6AXXZA DD FLAT:??__ERMSG_SETINFO@@YAXXZ ; RMSG_SETINFO$initializer$
CRT$XCU	ENDS
CRT$XCU	SEGMENT
?RMSG_REPLAY_REAL$initializer$@@3P6AXXZA DD FLAT:??__ERMSG_REPLAY_REAL@@YAXXZ ; RMSG_REPLAY_REAL$initializer$
CRT$XCU	ENDS
CRT$XCU	SEGMENT
?RMSG_REPLAY_FAIL$initializer$@@3P6AXXZA DD FLAT:??__ERMSG_REPLAY_FAIL@@YAXXZ ; RMSG_REPLAY_FAIL$initializer$
CRT$XCU	ENDS
CRT$XCU	SEGMENT
?RMSG_REPLAY_CHANGE_DATE$initializer$@@3P6AXXZA DD FLAT:??__ERMSG_REPLAY_CHANGE_DATE@@YAXXZ ; RMSG_REPLAY_CHANGE_DATE$initializer$
CRT$XCU	ENDS
CRT$XCU	SEGMENT
?RMSG_REPLAY_END$initializer$@@3P6AXXZA DD FLAT:??__ERMSG_REPLAY_END@@YAXXZ ; RMSG_REPLAY_END$initializer$
CRT$XCU	ENDS
CRT$XCU	SEGMENT
?RMSG_REPLAY_INC_SEC$initializer$@@3P6AXXZA DD FLAT:??__ERMSG_REPLAY_INC_SEC@@YAXXZ ; RMSG_REPLAY_INC_SEC$initializer$
CRT$XCU	ENDS
CRT$XCU	SEGMENT
?RMSG_REPLAY_TOTAL_SEC$initializer$@@3P6AXXZA DD FLAT:??__ERMSG_REPLAY_TOTAL_SEC@@YAXXZ ; RMSG_REPLAY_TOTAL_SEC$initializer$
CRT$XCU	ENDS
CRT$XCU	SEGMENT
?RMSG_FROMCODELIST$initializer$@@3P6AXXZA DD FLAT:??__ERMSG_FROMCODELIST@@YAXXZ ; RMSG_FROMCODELIST$initializer$
CRT$XCU	ENDS
CRT$XCU	SEGMENT
?RMSG_SETSHAREDATA$initializer$@@3P6AXXZA DD FLAT:??__ERMSG_SETSHAREDATA@@YAXXZ ; RMSG_SETSHAREDATA$initializer$
CRT$XCU	ENDS
CRT$XCU	SEGMENT
?RMSG_OPENMAP2$initializer$@@3P6AXXZA DD FLAT:??__ERMSG_OPENMAP2@@YAXXZ ; RMSG_OPENMAP2$initializer$
CRT$XCU	ENDS
CRT$XCU	SEGMENT
?RMSG_FROMHOGAJUMUN_DESTROY$initializer$@@3P6AXXZA DD FLAT:??__ERMSG_FROMHOGAJUMUN_DESTROY@@YAXXZ ; RMSG_FROMHOGAJUMUN_DESTROY$initializer$
CRT$XCU	ENDS
CRT$XCU	SEGMENT
?RMSG_HOGACHANGEDATA_CODE$initializer$@@3P6AXXZA DD FLAT:??__ERMSG_HOGACHANGEDATA_CODE@@YAXXZ ; RMSG_HOGACHANGEDATA_CODE$initializer$
CRT$XCU	ENDS
CRT$XCU	SEGMENT
?RMSG_HOGACHANGEDATA_ACCT$initializer$@@3P6AXXZA DD FLAT:??__ERMSG_HOGACHANGEDATA_ACCT@@YAXXZ ; RMSG_HOGACHANGEDATA_ACCT$initializer$
CRT$XCU	ENDS
CRT$XCU	SEGMENT
?RMSG_SHARED_PIN$initializer$@@3P6AXXZA DD FLAT:??__ERMSG_SHARED_PIN@@YAXXZ ; RMSG_SHARED_PIN$initializer$
CRT$XCU	ENDS
CRT$XCU	SEGMENT
?RMSG_RESIZEFROMGWAN$initializer$@@3P6AXXZA DD FLAT:??__ERMSG_RESIZEFROMGWAN@@YAXXZ ; RMSG_RESIZEFROMGWAN$initializer$
CRT$XCU	ENDS
CRT$XCU	SEGMENT
?RMSG_MESSAGESHOW$initializer$@@3P6AXXZA DD FLAT:??__ERMSG_MESSAGESHOW@@YAXXZ ; RMSG_MESSAGESHOW$initializer$
CRT$XCU	ENDS
CRT$XCU	SEGMENT
?RMSG_GETSKINVALUE$initializer$@@3P6AXXZA DD FLAT:??__ERMSG_GETSKINVALUE@@YAXXZ ; RMSG_GETSKINVALUE$initializer$
CRT$XCU	ENDS
; Function compile flags: /Ogtp
; File C:\Program Files (x86)\Microsoft Visual Studio\2019\Community\VC\Tools\MSVC\14.29.30133\atlmfc\include\afxtempl.h
; File C:\Program Files (x86)\Microsoft Visual Studio\2019\Community\VC\Tools\MSVC\14.29.30133\atlmfc\include\afx.inl
; File C:\Program Files (x86)\Microsoft Visual Studio\2019\Community\VC\Tools\MSVC\14.29.30133\atlmfc\include\afxtempl.h
; File C:\Program Files (x86)\Microsoft Visual Studio\2019\Community\VC\Tools\MSVC\14.29.30133\atlmfc\include\afx.inl
; File C:\Program Files (x86)\Microsoft Visual Studio\2019\Community\VC\Tools\MSVC\14.29.30133\atlmfc\include\afxtempl.h
; File C:\Program Files (x86)\Microsoft Visual Studio\2019\Community\VC\Tools\MSVC\14.29.30133\atlmfc\include\afx.inl
; File C:\Program Files (x86)\Microsoft Visual Studio\2019\Community\VC\Tools\MSVC\14.29.30133\atlmfc\include\afxtempl.h
;	COMDAT ??$SerializeElements@PAVCChartItemData@@@@YGXAAVCArchive@@PAPAVCChartItemData@@H@Z
_TEXT	SEGMENT
_ar$ = 8						; size = 4
_pElements$ = 12					; size = 4
_nCount$ = 16						; size = 4
??$SerializeElements@PAVCChartItemData@@@@YGXAAVCArchive@@PAPAVCChartItemData@@H@Z PROC ; SerializeElements<CChartItemData *>, COMDAT

; 67   : {

  00000	55		 push	 ebp
  00001	8b ec		 mov	 ebp, esp

; 68   : 	ENSURE(nCount == 0 || pElements != NULL);

  00003	8b 4d 0c	 mov	 ecx, DWORD PTR _pElements$[ebp]
  00006	53		 push	 ebx
  00007	56		 push	 esi
  00008	8b 75 10	 mov	 esi, DWORD PTR _nCount$[ebp]
  0000b	57		 push	 edi
  0000c	85 f6		 test	 esi, esi
  0000e	74 08		 je	 SHORT $LN2@SerializeE
  00010	85 c9		 test	 ecx, ecx
  00012	0f 84 89 00 00
	00		 je	 $LN34@SerializeE
$LN2@SerializeE:
; File C:\Program Files (x86)\Microsoft Visual Studio\2019\Community\VC\Tools\MSVC\14.29.30133\atlmfc\include\afx.inl

; 212  : 	{ return (m_nMode & CArchive::load) == 0; }

  00018	8b 55 08	 mov	 edx, DWORD PTR _ar$[ebp]
  0001b	8b 42 18	 mov	 eax, DWORD PTR [edx+24]
  0001e	f7 d0		 not	 eax
  00020	a8 01		 test	 al, 1
; File C:\Program Files (x86)\Microsoft Visual Studio\2019\Community\VC\Tools\MSVC\14.29.30133\atlmfc\include\afxtempl.h

; 73   : 	if (ar.IsStoring())

  00022	74 3c		 je	 SHORT $LN10@SerializeE

; 74   : 	{
; 75   : 		TYPE* pData;
; 76   : 		UINT_PTR nElementsLeft;
; 77   : 
; 78   : 		nElementsLeft = nCount;
; 79   : 		pData = pElements;
; 80   : 		while( nElementsLeft > 0 )

  00024	85 f6		 test	 esi, esi
  00026	74 31		 je	 SHORT $LN8@SerializeE
  00028	0f 1f 84 00 00
	00 00 00	 npad	 8
$LL5@SerializeE:

; 81   : 		{
; 82   : 			UINT nElementsToWrite;
; 83   : 
; 84   : 			nElementsToWrite = UINT(__min(nElementsLeft, INT_MAX/sizeof(TYPE)));

  00030	bb ff ff ff 1f	 mov	 ebx, 536870911		; 1fffffffH
  00035	3b f3		 cmp	 esi, ebx
  00037	0f 42 de	 cmovb	 ebx, esi

; 85   : 			ar.Write(pData, nElementsToWrite*sizeof(TYPE));

  0003a	8d 3c 9d 00 00
	00 00		 lea	 edi, DWORD PTR [ebx*4]
  00041	57		 push	 edi
  00042	51		 push	 ecx
  00043	8b ca		 mov	 ecx, edx
  00045	e8 00 00 00 00	 call	 ?Write@CArchive@@QAEXPBXI@Z ; CArchive::Write

; 86   : 			nElementsLeft -= nElementsToWrite;
; 87   : 			pData += nElementsToWrite;

  0004a	8b 4d 0c	 mov	 ecx, DWORD PTR _pElements$[ebp]
  0004d	8b 55 08	 mov	 edx, DWORD PTR _ar$[ebp]
  00050	03 cf		 add	 ecx, edi
  00052	89 4d 0c	 mov	 DWORD PTR _pElements$[ebp], ecx
  00055	2b f3		 sub	 esi, ebx
  00057	75 d7		 jne	 SHORT $LL5@SerializeE
$LN8@SerializeE:
  00059	5f		 pop	 edi

; 105  : 		}
; 106  : 	}
; 107  : }

  0005a	5e		 pop	 esi
  0005b	5b		 pop	 ebx
  0005c	5d		 pop	 ebp
  0005d	c2 0c 00	 ret	 12			; 0000000cH
$LN10@SerializeE:

; 97   : 		while( nElementsLeft > 0 )

  00060	85 f6		 test	 esi, esi
  00062	74 f5		 je	 SHORT $LN8@SerializeE
$LL7@SerializeE:

; 98   : 		{
; 99   : 			UINT nElementsToRead;
; 100  : 
; 101  : 			nElementsToRead = UINT(__min(nElementsLeft, INT_MAX/sizeof(TYPE)));

  00064	bf ff ff ff 1f	 mov	 edi, 536870911		; 1fffffffH
  00069	3b f7		 cmp	 esi, edi
  0006b	0f 42 fe	 cmovb	 edi, esi

; 102  : 			ar.EnsureRead(pData, nElementsToRead*sizeof(TYPE));

  0006e	8d 1c bd 00 00
	00 00		 lea	 ebx, DWORD PTR [edi*4]
; File C:\Program Files (x86)\Microsoft Visual Studio\2019\Community\VC\Tools\MSVC\14.29.30133\atlmfc\include\afx.inl

; 399  : 	UINT nRead=Read(lpBuf, nCount);

  00075	53		 push	 ebx
  00076	51		 push	 ecx
  00077	8b ca		 mov	 ecx, edx
  00079	e8 00 00 00 00	 call	 ?Read@CArchive@@QAEIPAXI@Z ; CArchive::Read

; 400  : 	if(nRead!=nCount)

  0007e	3b c3		 cmp	 eax, ebx
  00080	75 16		 jne	 SHORT $LN23@SerializeE
; File C:\Program Files (x86)\Microsoft Visual Studio\2019\Community\VC\Tools\MSVC\14.29.30133\atlmfc\include\afxtempl.h

; 97   : 		while( nElementsLeft > 0 )

  00082	8b 4d 0c	 mov	 ecx, DWORD PTR _pElements$[ebp]
  00085	8b 55 08	 mov	 edx, DWORD PTR _ar$[ebp]

; 103  : 			nElementsLeft -= nElementsToRead;
; 104  : 			pData += nElementsToRead;

  00088	03 cb		 add	 ecx, ebx
  0008a	89 4d 0c	 mov	 DWORD PTR _pElements$[ebp], ecx
  0008d	2b f7		 sub	 esi, edi
  0008f	75 d3		 jne	 SHORT $LL7@SerializeE

; 105  : 		}
; 106  : 	}
; 107  : }

  00091	5f		 pop	 edi
  00092	5e		 pop	 esi
  00093	5b		 pop	 ebx
  00094	5d		 pop	 ebp
  00095	c2 0c 00	 ret	 12			; 0000000cH
$LN23@SerializeE:
; File C:\Program Files (x86)\Microsoft Visual Studio\2019\Community\VC\Tools\MSVC\14.29.30133\atlmfc\include\afx.inl

; 402  : 		AfxThrowArchiveException(CArchiveException::endOfFile);

  00098	6a 00		 push	 0
  0009a	6a 03		 push	 3
  0009c	e8 00 00 00 00	 call	 ?AfxThrowArchiveException@@YGXHPBD@Z ; AfxThrowArchiveException
$LN34@SerializeE:
; File C:\Program Files (x86)\Microsoft Visual Studio\2019\Community\VC\Tools\MSVC\14.29.30133\atlmfc\include\afxtempl.h

; 68   : 	ENSURE(nCount == 0 || pElements != NULL);

  000a1	e8 00 00 00 00	 call	 ?AfxThrowInvalidArgException@@YGXXZ ; AfxThrowInvalidArgException
$LN32@SerializeE:
  000a6	cc		 int	 3
??$SerializeElements@PAVCChartItemData@@@@YGXAAVCArchive@@PAPAVCChartItemData@@H@Z ENDP ; SerializeElements<CChartItemData *>
_TEXT	ENDS
; Function compile flags: /Ogtp
; File D:\git\src\IBK\IBK_DRFN\ProjSrc\SrcDrfn\Chart\MULTICHART\ChartItem.cpp
; File C:\Program Files (x86)\Microsoft Visual Studio\2019\Community\VC\Tools\MSVC\14.29.30133\atlmfc\include\atlconv.h
; File D:\git\src\IBK\IBK_DRFN\ProjSrc\SrcDrfn\Chart\MULTICHART\ChartItem.cpp
;	COMDAT ?CLSIDFromProgID_GZone@@YAJPBDPAU_GUID@@@Z
_TEXT	SEGMENT
__$ArrayPad$ = -4					; size = 4
_p_szProgID$ = 8					; size = 4
_p_pClsID$ = 12						; size = 4
?CLSIDFromProgID_GZone@@YAJPBDPAU_GUID@@@Z PROC		; CLSIDFromProgID_GZone, COMDAT

; 515  : {

  00000	55		 push	 ebp
  00001	8b ec		 mov	 ebp, esp
  00003	51		 push	 ecx
  00004	a1 00 00 00 00	 mov	 eax, DWORD PTR ___security_cookie
  00009	33 c5		 xor	 eax, ebp
  0000b	89 45 fc	 mov	 DWORD PTR __$ArrayPad$[ebp], eax
  0000e	53		 push	 ebx
  0000f	56		 push	 esi

; 516  : 	USES_CONVERSION;
; 517  : 	LPCOLESTR szOleProgID = T2COLE( p_szProgID);

  00010	8b 75 08	 mov	 esi, DWORD PTR _p_szProgID$[ebp]
  00013	57		 push	 edi
  00014	85 f6		 test	 esi, esi
  00016	74 45		 je	 SHORT $LN14@CLSIDFromP
  00018	8b ce		 mov	 ecx, esi
  0001a	8d 51 01	 lea	 edx, DWORD PTR [ecx+1]
  0001d	0f 1f 00	 npad	 3
$LL17@CLSIDFromP:
  00020	8a 01		 mov	 al, BYTE PTR [ecx]
  00022	41		 inc	 ecx
  00023	84 c0		 test	 al, al
  00025	75 f9		 jne	 SHORT $LL17@CLSIDFromP
  00027	2b ca		 sub	 ecx, edx
  00029	8d 59 01	 lea	 ebx, DWORD PTR [ecx+1]
  0002c	81 fb ff ff ff
	3f		 cmp	 ebx, 1073741823		; 3fffffffH
  00032	7f 29		 jg	 SHORT $LN14@CLSIDFromP
  00034	8d 04 1b	 lea	 eax, DWORD PTR [ebx+ebx]
  00037	e8 00 00 00 00	 call	 __alloca_probe_16
  0003c	8b fc		 mov	 edi, esp
; File C:\Program Files (x86)\Microsoft Visual Studio\2019\Community\VC\Tools\MSVC\14.29.30133\atlmfc\include\atlconv.h

; 566  : 	if (lpw == NULL || lpa == NULL)

  0003e	85 ff		 test	 edi, edi
  00040	74 1b		 je	 SHORT $LN14@CLSIDFromP

; 567  : 		return NULL;
; 568  : 	// verify that no illegal character present
; 569  : 	// since lpw was allocated based on the size of lpa
; 570  : 	// don't worry about the number of chars
; 571  : 	*lpw = '\0';
; 572  : 	int ret = MultiByteToWideChar(acp, 0, lpa, -1, lpw, nChars);

  00042	53		 push	 ebx
  00043	57		 push	 edi
  00044	6a ff		 push	 -1
  00046	33 c0		 xor	 eax, eax
  00048	56		 push	 esi
  00049	50		 push	 eax
  0004a	6a 03		 push	 3
  0004c	66 89 07	 mov	 WORD PTR [edi], ax
  0004f	ff 15 00 00 00
	00		 call	 DWORD PTR __imp__MultiByteToWideChar@24

; 573  : 	if(ret == 0)

  00055	f7 d8		 neg	 eax
  00057	1b c0		 sbb	 eax, eax
  00059	23 c7		 and	 eax, edi

; 574  : 	{
; 575  : 		ATLASSERT(FALSE);
; 576  : 		return NULL;
; 577  : 	}
; 578  : 	return lpw;

  0005b	eb 02		 jmp	 SHORT $LN11@CLSIDFromP
$LN14@CLSIDFromP:
; File D:\git\src\IBK\IBK_DRFN\ProjSrc\SrcDrfn\Chart\MULTICHART\ChartItem.cpp

; 518  : 	HRESULT hResult = ::CLSIDFromProgID( szOleProgID, p_pClsID);

  0005d	33 c0		 xor	 eax, eax
$LN11@CLSIDFromP:
  0005f	ff 75 0c	 push	 DWORD PTR _p_pClsID$[ebp]
  00062	50		 push	 eax
  00063	ff 15 00 00 00
	00		 call	 DWORD PTR __imp__CLSIDFromProgID@8
  00069	8b c8		 mov	 ecx, eax

; 519  : 	if( hResult == S_OK) return 0;

  0006b	85 c9		 test	 ecx, ecx
  0006d	75 14		 jne	 SHORT $LN2@CLSIDFromP

; 522  : 	return -3;
; 523  : }

  0006f	8d 65 f0	 lea	 esp, DWORD PTR [ebp-16]
  00072	5f		 pop	 edi
  00073	5e		 pop	 esi
  00074	5b		 pop	 ebx
  00075	8b 4d fc	 mov	 ecx, DWORD PTR __$ArrayPad$[ebp]
  00078	33 cd		 xor	 ecx, ebp
  0007a	e8 00 00 00 00	 call	 @__security_check_cookie@4
  0007f	8b e5		 mov	 esp, ebp
  00081	5d		 pop	 ebp
  00082	c3		 ret	 0
$LN2@CLSIDFromP:

; 520  : 	else if( hResult == CO_E_CLASSSTRING) return -1;

  00083	81 f9 f3 01 04
	80		 cmp	 ecx, -2147221005	; 800401f3H
  00089	75 17		 jne	 SHORT $LN4@CLSIDFromP
  0008b	83 c8 ff	 or	 eax, -1

; 522  : 	return -3;
; 523  : }

  0008e	8d 65 f0	 lea	 esp, DWORD PTR [ebp-16]
  00091	5f		 pop	 edi
  00092	5e		 pop	 esi
  00093	5b		 pop	 ebx
  00094	8b 4d fc	 mov	 ecx, DWORD PTR __$ArrayPad$[ebp]
  00097	33 cd		 xor	 ecx, ebp
  00099	e8 00 00 00 00	 call	 @__security_check_cookie@4
  0009e	8b e5		 mov	 esp, ebp
  000a0	5d		 pop	 ebp
  000a1	c3		 ret	 0
$LN4@CLSIDFromP:

; 521  : 	else if( hResult == REGDB_E_WRITEREGDB) return -2;

  000a2	33 c0		 xor	 eax, eax
  000a4	81 f9 51 01 04
	80		 cmp	 ecx, -2147221167	; 80040151H
  000aa	0f 94 c0	 sete	 al
  000ad	83 c0 fd	 add	 eax, -3			; fffffffdH

; 522  : 	return -3;
; 523  : }

  000b0	8d 65 f0	 lea	 esp, DWORD PTR [ebp-16]
  000b3	5f		 pop	 edi
  000b4	5e		 pop	 esi
  000b5	5b		 pop	 ebx
  000b6	8b 4d fc	 mov	 ecx, DWORD PTR __$ArrayPad$[ebp]
  000b9	33 cd		 xor	 ecx, ebp
  000bb	e8 00 00 00 00	 call	 @__security_check_cookie@4
  000c0	8b e5		 mov	 esp, ebp
  000c2	5d		 pop	 ebp
  000c3	c3		 ret	 0
?CLSIDFromProgID_GZone@@YAJPBDPAU_GUID@@@Z ENDP		; CLSIDFromProgID_GZone
_TEXT	ENDS
; Function compile flags: /Ogtp
; File D:\git\src\IBK\IBK_DRFN\ProjSrc\SrcDrfn\Chart\MULTICHART\ChartItem.cpp
;	COMDAT ?THREAD_SEND2SERVER@@YAIPAX@Z
_TEXT	SEGMENT
_lpVoid$ = 8						; size = 4
?THREAD_SEND2SERVER@@YAIPAX@Z PROC			; THREAD_SEND2SERVER, COMDAT

; 348  : {

  00000	55		 push	 ebp
  00001	8b ec		 mov	 ebp, esp

; 349  : 	CChartMng* lpChartMng = (CChartMng*)lpVoid;
; 350  : 	if (lpChartMng)

  00003	8b 4d 08	 mov	 ecx, DWORD PTR _lpVoid$[ebp]
  00006	85 c9		 test	 ecx, ecx
  00008	74 07		 je	 SHORT $LN4@THREAD_SEN

; 351  : 		lpChartMng->RequestChartData();

  0000a	6a 00		 push	 0
  0000c	e8 00 00 00 00	 call	 ?RequestChartData@CChartMng@@QAEHH@Z ; CChartMng::RequestChartData
$LN4@THREAD_SEN:

; 352  : 
; 353  : 	return 0;
; 354  : }

  00011	33 c0		 xor	 eax, eax
  00013	5d		 pop	 ebp
  00014	c3		 ret	 0
?THREAD_SEND2SERVER@@YAIPAX@Z ENDP			; THREAD_SEND2SERVER
_TEXT	ENDS
; Function compile flags: /Ogtp
; File C:\Program Files (x86)\Microsoft Visual Studio\2019\Community\VC\Tools\MSVC\14.29.30133\atlmfc\include\atlcomcli.h
;	COMDAT ??_Estringdispid@CComTypeInfoHolder@ATL@@QAEPAXI@Z
_TEXT	SEGMENT
__$EHRec$ = -12						; size = 12
___flags$ = 8						; size = 4
??_Estringdispid@CComTypeInfoHolder@ATL@@QAEPAXI@Z PROC	; ATL::CComTypeInfoHolder::stringdispid::`vector deleting destructor', COMDAT
; _this$ = ecx
  00000	55		 push	 ebp
  00001	8b ec		 mov	 ebp, esp
  00003	6a ff		 push	 -1
  00005	68 00 00 00 00	 push	 __ehhandler$??_Estringdispid@CComTypeInfoHolder@ATL@@QAEPAXI@Z
  0000a	64 a1 00 00 00
	00		 mov	 eax, DWORD PTR fs:0
  00010	50		 push	 eax
  00011	53		 push	 ebx
  00012	56		 push	 esi
  00013	57		 push	 edi
  00014	a1 00 00 00 00	 mov	 eax, DWORD PTR ___security_cookie
  00019	33 c5		 xor	 eax, ebp
  0001b	50		 push	 eax
  0001c	8d 45 f4	 lea	 eax, DWORD PTR __$EHRec$[ebp]
  0001f	64 a3 00 00 00
	00		 mov	 DWORD PTR fs:0, eax
  00025	8b f1		 mov	 esi, ecx
  00027	8b 45 08	 mov	 eax, DWORD PTR ___flags$[ebp]
  0002a	8b d8		 mov	 ebx, eax
  0002c	83 e3 01	 and	 ebx, 1
  0002f	a8 02		 test	 al, 2
  00031	74 43		 je	 SHORT $LN2@vector
  00033	68 00 00 00 00	 push	 OFFSET ??1stringdispid@CComTypeInfoHolder@ATL@@QAE@XZ
  00038	ff 76 fc	 push	 DWORD PTR [esi-4]
  0003b	8d 7e fc	 lea	 edi, DWORD PTR [esi-4]
  0003e	6a 0c		 push	 12			; 0000000cH
  00040	56		 push	 esi
  00041	e8 00 00 00 00	 call	 ??_M@YGXPAXIIP6EX0@Z@Z
  00046	85 db		 test	 ebx, ebx
  00048	74 16		 je	 SHORT $LN3@vector
  0004a	8b 0f		 mov	 ecx, DWORD PTR [edi]
  0004c	8d 0c 49	 lea	 ecx, DWORD PTR [ecx+ecx*2]
  0004f	8d 0c 8d 04 00
	00 00		 lea	 ecx, DWORD PTR [ecx*4+4]
  00056	51		 push	 ecx
  00057	57		 push	 edi
  00058	e8 00 00 00 00	 call	 ??_V@YAXPAXI@Z		; operator delete[]
  0005d	83 c4 08	 add	 esp, 8
$LN3@vector:
  00060	8b c7		 mov	 eax, edi
  00062	8b 4d f4	 mov	 ecx, DWORD PTR __$EHRec$[ebp]
  00065	64 89 0d 00 00
	00 00		 mov	 DWORD PTR fs:0, ecx
  0006c	59		 pop	 ecx
  0006d	5f		 pop	 edi
  0006e	5e		 pop	 esi
  0006f	5b		 pop	 ebx
  00070	8b e5		 mov	 esp, ebp
  00072	5d		 pop	 ebp
  00073	c2 04 00	 ret	 4
$LN2@vector:

; 1680 :     ::SysFreeString(m_str);

  00076	ff 36		 push	 DWORD PTR [esi]
  00078	ff 15 00 00 00
	00		 call	 DWORD PTR __imp__SysFreeString@4
  0007e	85 db		 test	 ebx, ebx
  00080	74 0b		 je	 SHORT $LN4@vector
  00082	6a 0c		 push	 12			; 0000000cH
  00084	56		 push	 esi
  00085	e8 00 00 00 00	 call	 ??3@YAXPAXI@Z		; operator delete
  0008a	83 c4 08	 add	 esp, 8
$LN4@vector:
  0008d	8b c6		 mov	 eax, esi
  0008f	8b 4d f4	 mov	 ecx, DWORD PTR __$EHRec$[ebp]
  00092	64 89 0d 00 00
	00 00		 mov	 DWORD PTR fs:0, ecx
  00099	59		 pop	 ecx
  0009a	5f		 pop	 edi
  0009b	5e		 pop	 esi
  0009c	5b		 pop	 ebx
  0009d	8b e5		 mov	 esp, ebp
  0009f	5d		 pop	 ebp
  000a0	c2 04 00	 ret	 4
  000a3	cc		 int	 3
  000a4	cc		 int	 3
  000a5	cc		 int	 3
  000a6	cc		 int	 3
  000a7	cc		 int	 3
_TEXT	ENDS
;	COMDAT text$x
text$x	SEGMENT
__ehhandler$??_Estringdispid@CComTypeInfoHolder@ATL@@QAEPAXI@Z:
  00000	90		 npad	 1
  00001	90		 npad	 1
  00002	8b 54 24 08	 mov	 edx, DWORD PTR [esp+8]
  00006	8d 42 0c	 lea	 eax, DWORD PTR [edx+12]
  00009	8b 4a f0	 mov	 ecx, DWORD PTR [edx-16]
  0000c	33 c8		 xor	 ecx, eax
  0000e	e8 00 00 00 00	 call	 @__security_check_cookie@4
  00013	b8 00 00 00 00	 mov	 eax, OFFSET __ehfuncinfo$??_Estringdispid@CComTypeInfoHolder@ATL@@QAEPAXI@Z
  00018	e9 00 00 00 00	 jmp	 ___CxxFrameHandler3
text$x	ENDS
??_Estringdispid@CComTypeInfoHolder@ATL@@QAEPAXI@Z ENDP	; ATL::CComTypeInfoHolder::stringdispid::`vector deleting destructor'
; Function compile flags: /Ogtp
; File C:\Program Files (x86)\Microsoft Visual Studio\2019\Community\VC\Tools\MSVC\14.29.30133\atlmfc\include\atlcomcli.h
;	COMDAT ??1stringdispid@CComTypeInfoHolder@ATL@@QAE@XZ
_TEXT	SEGMENT
??1stringdispid@CComTypeInfoHolder@ATL@@QAE@XZ PROC	; ATL::CComTypeInfoHolder::stringdispid::~stringdispid, COMDAT
; _this$ = ecx

; 1680 :     ::SysFreeString(m_str);

  00000	ff 31		 push	 DWORD PTR [ecx]
  00002	ff 15 00 00 00
	00		 call	 DWORD PTR __imp__SysFreeString@4
  00008	c3		 ret	 0
??1stringdispid@CComTypeInfoHolder@ATL@@QAE@XZ ENDP	; ATL::CComTypeInfoHolder::stringdispid::~stringdispid
_TEXT	ENDS
; Function compile flags: /Ogtp
; File D:\git\src\IBK\IBK_DRFN\ProjSrc\SrcDrfn\Chart\MULTICHART\define\MessageDefine.h
;	COMDAT ??__ERMSG_GETSKINVALUE@@YAXXZ
text$di	SEGMENT
??__ERMSG_GETSKINVALUE@@YAXXZ PROC			; `dynamic initializer for 'RMSG_GETSKINVALUE'', COMDAT

; 55   : const UINT RMSG_GETSKINVALUE	=	::RegisterWindowMessage("RMSG_GETSKINVALUE");

  00000	68 00 00 00 00	 push	 OFFSET ??_C@_0BC@ICLGGCHO@RMSG_GETSKINVALUE@
  00005	ff 15 00 00 00
	00		 call	 DWORD PTR __imp__RegisterWindowMessageA@4
  0000b	a3 00 00 00 00	 mov	 DWORD PTR ?RMSG_GETSKINVALUE@@3IB, eax
  00010	c3		 ret	 0
??__ERMSG_GETSKINVALUE@@YAXXZ ENDP			; `dynamic initializer for 'RMSG_GETSKINVALUE''
text$di	ENDS
; Function compile flags: /Ogtp
; File D:\git\src\IBK\IBK_DRFN\ProjSrc\SrcDrfn\Chart\MULTICHART\define\MessageDefine.h
;	COMDAT ??__ERMSG_MESSAGESHOW@@YAXXZ
text$di	SEGMENT
??__ERMSG_MESSAGESHOW@@YAXXZ PROC			; `dynamic initializer for 'RMSG_MESSAGESHOW'', COMDAT

; 54   : const UINT RMSG_MESSAGESHOW = ::RegisterWindowMessage("RMSG_MESSAGESHOW");

  00000	68 00 00 00 00	 push	 OFFSET ??_C@_0BB@JOGLHCCG@RMSG_MESSAGESHOW@
  00005	ff 15 00 00 00
	00		 call	 DWORD PTR __imp__RegisterWindowMessageA@4
  0000b	a3 00 00 00 00	 mov	 DWORD PTR ?RMSG_MESSAGESHOW@@3IB, eax
  00010	c3		 ret	 0
??__ERMSG_MESSAGESHOW@@YAXXZ ENDP			; `dynamic initializer for 'RMSG_MESSAGESHOW''
text$di	ENDS
; Function compile flags: /Ogtp
; File D:\git\src\IBK\IBK_DRFN\ProjSrc\SrcDrfn\Chart\MULTICHART\define\MessageDefine.h
;	COMDAT ??__ERMSG_RESIZEFROMGWAN@@YAXXZ
text$di	SEGMENT
??__ERMSG_RESIZEFROMGWAN@@YAXXZ PROC			; `dynamic initializer for 'RMSG_RESIZEFROMGWAN'', COMDAT

; 53   : const UINT RMSG_RESIZEFROMGWAN = ::RegisterWindowMessage("RMSG_RESIZEFROMGWAN");

  00000	68 00 00 00 00	 push	 OFFSET ??_C@_0BE@NAJONFKO@RMSG_RESIZEFROMGWAN@
  00005	ff 15 00 00 00
	00		 call	 DWORD PTR __imp__RegisterWindowMessageA@4
  0000b	a3 00 00 00 00	 mov	 DWORD PTR ?RMSG_RESIZEFROMGWAN@@3IB, eax
  00010	c3		 ret	 0
??__ERMSG_RESIZEFROMGWAN@@YAXXZ ENDP			; `dynamic initializer for 'RMSG_RESIZEFROMGWAN''
text$di	ENDS
; Function compile flags: /Ogtp
; File D:\git\src\IBK\IBK_DRFN\ProjSrc\SrcDrfn\Chart\MULTICHART\define\MessageDefine.h
;	COMDAT ??__ERMSG_SHARED_PIN@@YAXXZ
text$di	SEGMENT
??__ERMSG_SHARED_PIN@@YAXXZ PROC			; `dynamic initializer for 'RMSG_SHARED_PIN'', COMDAT

; 52   : const UINT RMSG_SHARED_PIN = ::RegisterWindowMessage("RMSG_SHARED_PIN");

  00000	68 00 00 00 00	 push	 OFFSET ??_C@_0BA@OPONGCEC@RMSG_SHARED_PIN@
  00005	ff 15 00 00 00
	00		 call	 DWORD PTR __imp__RegisterWindowMessageA@4
  0000b	a3 00 00 00 00	 mov	 DWORD PTR ?RMSG_SHARED_PIN@@3IB, eax
  00010	c3		 ret	 0
??__ERMSG_SHARED_PIN@@YAXXZ ENDP			; `dynamic initializer for 'RMSG_SHARED_PIN''
text$di	ENDS
; Function compile flags: /Ogtp
; File D:\git\src\IBK\IBK_DRFN\ProjSrc\SrcDrfn\Chart\MULTICHART\define\MessageDefine.h
;	COMDAT ??__ERMSG_HOGACHANGEDATA_ACCT@@YAXXZ
text$di	SEGMENT
??__ERMSG_HOGACHANGEDATA_ACCT@@YAXXZ PROC		; `dynamic initializer for 'RMSG_HOGACHANGEDATA_ACCT'', COMDAT

; 51   : const UINT RMSG_HOGACHANGEDATA_ACCT = ::RegisterWindowMessage(_T("RMSG_HOGACHANGEDATA_ACCT"));

  00000	68 00 00 00 00	 push	 OFFSET ??_C@_0BJ@NKAHNENP@RMSG_HOGACHANGEDATA_ACCT@
  00005	ff 15 00 00 00
	00		 call	 DWORD PTR __imp__RegisterWindowMessageA@4
  0000b	a3 00 00 00 00	 mov	 DWORD PTR ?RMSG_HOGACHANGEDATA_ACCT@@3IB, eax
  00010	c3		 ret	 0
??__ERMSG_HOGACHANGEDATA_ACCT@@YAXXZ ENDP		; `dynamic initializer for 'RMSG_HOGACHANGEDATA_ACCT''
text$di	ENDS
; Function compile flags: /Ogtp
; File D:\git\src\IBK\IBK_DRFN\ProjSrc\SrcDrfn\Chart\MULTICHART\define\MessageDefine.h
;	COMDAT ??__ERMSG_HOGACHANGEDATA_CODE@@YAXXZ
text$di	SEGMENT
??__ERMSG_HOGACHANGEDATA_CODE@@YAXXZ PROC		; `dynamic initializer for 'RMSG_HOGACHANGEDATA_CODE'', COMDAT

; 50   : const UINT RMSG_HOGACHANGEDATA_CODE = ::RegisterWindowMessage(_T("RMSG_HOGACHANGEDATA_CODE"));

  00000	68 00 00 00 00	 push	 OFFSET ??_C@_0BJ@LMIHANJC@RMSG_HOGACHANGEDATA_CODE@
  00005	ff 15 00 00 00
	00		 call	 DWORD PTR __imp__RegisterWindowMessageA@4
  0000b	a3 00 00 00 00	 mov	 DWORD PTR ?RMSG_HOGACHANGEDATA_CODE@@3IB, eax
  00010	c3		 ret	 0
??__ERMSG_HOGACHANGEDATA_CODE@@YAXXZ ENDP		; `dynamic initializer for 'RMSG_HOGACHANGEDATA_CODE''
text$di	ENDS
; Function compile flags: /Ogtp
; File D:\git\src\IBK\IBK_DRFN\ProjSrc\SrcDrfn\Chart\MULTICHART\define\MessageDefine.h
;	COMDAT ??__ERMSG_FROMHOGAJUMUN_DESTROY@@YAXXZ
text$di	SEGMENT
??__ERMSG_FROMHOGAJUMUN_DESTROY@@YAXXZ PROC		; `dynamic initializer for 'RMSG_FROMHOGAJUMUN_DESTROY'', COMDAT

; 49   : const UINT RMSG_FROMHOGAJUMUN_DESTROY = ::RegisterWindowMessage(_T("RMSG_FROMHOGAJUMUN_DESTROY"));

  00000	68 00 00 00 00	 push	 OFFSET ??_C@_0BL@ONHOHGGM@RMSG_FROMHOGAJUMUN_DESTROY@
  00005	ff 15 00 00 00
	00		 call	 DWORD PTR __imp__RegisterWindowMessageA@4
  0000b	a3 00 00 00 00	 mov	 DWORD PTR ?RMSG_FROMHOGAJUMUN_DESTROY@@3IB, eax
  00010	c3		 ret	 0
??__ERMSG_FROMHOGAJUMUN_DESTROY@@YAXXZ ENDP		; `dynamic initializer for 'RMSG_FROMHOGAJUMUN_DESTROY''
text$di	ENDS
; Function compile flags: /Ogtp
; File D:\git\src\IBK\IBK_DRFN\ProjSrc\SrcDrfn\Chart\MULTICHART\define\MessageDefine.h
;	COMDAT ??__ERMSG_OPENMAP2@@YAXXZ
text$di	SEGMENT
??__ERMSG_OPENMAP2@@YAXXZ PROC				; `dynamic initializer for 'RMSG_OPENMAP2'', COMDAT

; 48   : const UINT	RMSG_OPENMAP2		= ::RegisterWindowMessage(_T("RMSG_OPENMAP2"));

  00000	68 00 00 00 00	 push	 OFFSET ??_C@_0O@JLGCPGDL@RMSG_OPENMAP2@
  00005	ff 15 00 00 00
	00		 call	 DWORD PTR __imp__RegisterWindowMessageA@4
  0000b	a3 00 00 00 00	 mov	 DWORD PTR ?RMSG_OPENMAP2@@3IB, eax
  00010	c3		 ret	 0
??__ERMSG_OPENMAP2@@YAXXZ ENDP				; `dynamic initializer for 'RMSG_OPENMAP2''
text$di	ENDS
; Function compile flags: /Ogtp
; File D:\git\src\IBK\IBK_DRFN\ProjSrc\SrcDrfn\Chart\MULTICHART\define\MessageDefine.h
;	COMDAT ??__ERMSG_SETSHAREDATA@@YAXXZ
text$di	SEGMENT
??__ERMSG_SETSHAREDATA@@YAXXZ PROC			; `dynamic initializer for 'RMSG_SETSHAREDATA'', COMDAT

; 46   : const UINT RMSG_SETSHAREDATA = ::RegisterWindowMessage(_T("RMSG_SETSHAREDATA"));

  00000	68 00 00 00 00	 push	 OFFSET ??_C@_0BC@GGHIPHFD@RMSG_SETSHAREDATA@
  00005	ff 15 00 00 00
	00		 call	 DWORD PTR __imp__RegisterWindowMessageA@4
  0000b	a3 00 00 00 00	 mov	 DWORD PTR ?RMSG_SETSHAREDATA@@3IB, eax
  00010	c3		 ret	 0
??__ERMSG_SETSHAREDATA@@YAXXZ ENDP			; `dynamic initializer for 'RMSG_SETSHAREDATA''
text$di	ENDS
; Function compile flags: /Ogtp
; File D:\git\src\IBK\IBK_DRFN\ProjSrc\SrcDrfn\Chart\MULTICHART\define\MessageDefine.h
;	COMDAT ??__ERMSG_FROMCODELIST@@YAXXZ
text$di	SEGMENT
??__ERMSG_FROMCODELIST@@YAXXZ PROC			; `dynamic initializer for 'RMSG_FROMCODELIST'', COMDAT

; 45   : const UINT RMSG_FROMCODELIST = ::RegisterWindowMessage(_T("RMSG_FROMCODELIST"));

  00000	68 00 00 00 00	 push	 OFFSET ??_C@_0BC@FHIPKCJJ@RMSG_FROMCODELIST@
  00005	ff 15 00 00 00
	00		 call	 DWORD PTR __imp__RegisterWindowMessageA@4
  0000b	a3 00 00 00 00	 mov	 DWORD PTR ?RMSG_FROMCODELIST@@3IB, eax
  00010	c3		 ret	 0
??__ERMSG_FROMCODELIST@@YAXXZ ENDP			; `dynamic initializer for 'RMSG_FROMCODELIST''
text$di	ENDS
; Function compile flags: /Ogtp
; File D:\git\src\IBK\IBK_DRFN\ProjSrc\SrcDrfn\Chart\MULTICHART\ChartMng.h
;	COMDAT ?GetAddBlockMode@CChartMng@@QAEHXZ
_TEXT	SEGMENT
?GetAddBlockMode@CChartMng@@QAEHXZ PROC			; CChartMng::GetAddBlockMode, COMDAT
; _this$ = ecx

; 357  : 	BOOL GetAddBlockMode() { return m_bAddMode || m_bAddModeFromTab; }

  00000	83 b9 68 08 00
	00 00		 cmp	 DWORD PTR [ecx+2152], 0
  00007	75 0c		 jne	 SHORT $LN3@GetAddBloc
  00009	83 b9 70 08 00
	00 00		 cmp	 DWORD PTR [ecx+2160], 0
  00010	75 03		 jne	 SHORT $LN3@GetAddBloc
  00012	33 c0		 xor	 eax, eax
  00014	c3		 ret	 0
$LN3@GetAddBloc:
  00015	b8 01 00 00 00	 mov	 eax, 1
  0001a	c3		 ret	 0
?GetAddBlockMode@CChartMng@@QAEHXZ ENDP			; CChartMng::GetAddBlockMode
_TEXT	ENDS
; Function compile flags: /Ogtp
; File D:\git\src\IBK\IBK_DRFN\ProjSrc\SrcDrfn\Chart\chart_common\ReplayChartInfoDef.h
;	COMDAT ??__ERMSG_REPLAY_TOTAL_SEC@@YAXXZ
text$di	SEGMENT
