; Listing generated by Microsoft (R) Optimizing Compiler Version 19.29.30148.0 

	TITLE	D:\git\src\IBK\IBK_DRFN\#DRfn-CS\_Obj\MultiChart\CondTarget.obj
	.686P
	.XMM
	include listing.inc
	.model	flat

INCLUDELIB MSVCRT
INCLUDELIB OLDNAMES

PUBLIC	?WM_ATLGETHOST@ATL@@3IA				; ATL::WM_ATLGETHOST
PUBLIC	?WM_ATLGETCONTROL@ATL@@3IA			; ATL::WM_ATLGETCONTROL
PUBLIC	??_C@_0L@NFJHMDFP@THEMCD?4INI@			; `string'
PUBLIC	??_C@_0P@BKKCOCLK@RMSG_INTERFACE@		; `string'
PUBLIC	??_C@_0BB@IBKHOHJL@RMSG_REPLAY_REAL@		; `string'
PUBLIC	??_C@_0BB@JFLGBADG@RMSG_REPLAY_FAIL@		; `string'
PUBLIC	??_C@_0BI@KDGAIIMD@RMSG_REPLAY_CHANGE_DATE@	; `string'
PUBLIC	??_C@_0BA@NKHHCPON@RMSG_REPLAY_END@		; `string'
PUBLIC	??_C@_0BE@JFCIMCIP@RMSG_REPLAY_INC_SEC@		; `string'
PUBLIC	??_C@_0BG@GIAJEIJF@RMSG_REPLAY_TOTAL_SEC@	; `string'
PUBLIC	?m_bInitFailed@CAtlBaseModule@ATL@@2_NA		; ATL::CAtlBaseModule::m_bInitFailed
PUBLIC	??_C@_0BE@FJPKENOB@RMSG_GETSIGNAL_REAL@		; `string'
PUBLIC	??_C@_0BB@CNOFPEHG@RMSG_SETQUERYOPT@		; `string'
PUBLIC	??_C@_0P@KHFCBIOH@RMSG_CHARTMAIN@		; `string'
PUBLIC	??_C@_0BC@MMPGLPDH@RMS_ANALYSIS_FUNC@		; `string'
PUBLIC	??_C@_0BA@HKNFENJL@RMSG_GET_USERID@		; `string'
PUBLIC	??_C@_0BG@CNPAHNGG@RMSG_CHANGE_SKINCOLOR@	; `string'
PUBLIC	??_C@_0BD@FLDNDDHK@RMSG_GET_SKINCOLOR@		; `string'
PUBLIC	??_C@_0BJ@JLKHIBIK@RMSG_CHANGEVERTSCALETYPE@	; `string'
PUBLIC	??_C@_0BG@LNLCJKPF@RMSG_CHANGE_CROSSLINE@	; `string'
PUBLIC	??_C@_0BH@IFDMIMBP@RMSG_ADD_PLATFORM_MENU@	; `string'
PUBLIC	??_C@_0BJ@OGNAJHHI@RMSG_SETINITIALCHARTDATA@	; `string'
PUBLIC	??_C@_0N@IIOKMIEH@RMSG_GETINFO@			; `string'
PUBLIC	??_C@_0N@HABLPHJG@RMSG_SETINFO@			; `string'
PUBLIC	?_pAtlModule@ATL@@3PAVCAtlModule@1@A		; ATL::_pAtlModule
PUBLIC	?_pAtlAutoThreadModule@ATL@@3PAUIAtlAutoThreadModule@1@A ; ATL::_pAtlAutoThreadModule
EXTRN	?_AtlBaseModule@ATL@@3VCAtlBaseModule@1@A:BYTE	; ATL::_AtlBaseModule
;	COMDAT ?WM_ATLGETHOST@ATL@@3IA
_BSS	SEGMENT
?WM_ATLGETHOST@ATL@@3IA DD 01H DUP (?)			; ATL::WM_ATLGETHOST
_BSS	ENDS
;	COMDAT ?WM_ATLGETCONTROL@ATL@@3IA
_BSS	SEGMENT
?WM_ATLGETCONTROL@ATL@@3IA DD 01H DUP (?)		; ATL::WM_ATLGETCONTROL
_BSS	ENDS
;	COMDAT ?m_bInitFailed@CAtlBaseModule@ATL@@2_NA
_BSS	SEGMENT
?m_bInitFailed@CAtlBaseModule@ATL@@2_NA DB 01H DUP (?)	; ATL::CAtlBaseModule::m_bInitFailed
_BSS	ENDS
;	COMDAT ?_pAtlModule@ATL@@3PAVCAtlModule@1@A
_BSS	SEGMENT
?_pAtlModule@ATL@@3PAVCAtlModule@1@A DD 01H DUP (?)	; ATL::_pAtlModule
_BSS	ENDS
;	COMDAT ?_pAtlAutoThreadModule@ATL@@3PAUIAtlAutoThreadModule@1@A
_BSS	SEGMENT
?_pAtlAutoThreadModule@ATL@@3PAUIAtlAutoThreadModule@1@A DD 01H DUP (?) ; ATL::_pAtlAutoThreadModule
_BSS	ENDS
;	COMDAT ??_C@_0N@HABLPHJG@RMSG_SETINFO@
CONST	SEGMENT
??_C@_0N@HABLPHJG@RMSG_SETINFO@ DB 'RMSG_SETINFO', 00H	; `string'
CONST	ENDS
;	COMDAT ??_C@_0N@IIOKMIEH@RMSG_GETINFO@
CONST	SEGMENT
??_C@_0N@IIOKMIEH@RMSG_GETINFO@ DB 'RMSG_GETINFO', 00H	; `string'
CONST	ENDS
;	COMDAT ??_C@_0BJ@OGNAJHHI@RMSG_SETINITIALCHARTDATA@
CONST	SEGMENT
??_C@_0BJ@OGNAJHHI@RMSG_SETINITIALCHARTDATA@ DB 'RMSG_SETINITIALCHARTDATA'
	DB	00H						; `string'
CONST	ENDS
;	COMDAT ??_C@_0BH@IFDMIMBP@RMSG_ADD_PLATFORM_MENU@
CONST	SEGMENT
??_C@_0BH@IFDMIMBP@RMSG_ADD_PLATFORM_MENU@ DB 'RMSG_ADD_PLATFORM_MENU', 00H ; `string'
CONST	ENDS
;	COMDAT ??_C@_0BG@LNLCJKPF@RMSG_CHANGE_CROSSLINE@
CONST	SEGMENT
??_C@_0BG@LNLCJKPF@RMSG_CHANGE_CROSSLINE@ DB 'RMSG_CHANGE_CROSSLINE', 00H ; `string'
CONST	ENDS
;	COMDAT ??_C@_0BJ@JLKHIBIK@RMSG_CHANGEVERTSCALETYPE@
CONST	SEGMENT
??_C@_0BJ@JLKHIBIK@RMSG_CHANGEVERTSCALETYPE@ DB 'RMSG_CHANGEVERTSCALETYPE'
	DB	00H						; `string'
CONST	ENDS
;	COMDAT ??_C@_0BD@FLDNDDHK@RMSG_GET_SKINCOLOR@
CONST	SEGMENT
??_C@_0BD@FLDNDDHK@RMSG_GET_SKINCOLOR@ DB 'RMSG_GET_SKINCOLOR', 00H ; `string'
CONST	ENDS
;	COMDAT ??_C@_0BG@CNPAHNGG@RMSG_CHANGE_SKINCOLOR@
CONST	SEGMENT
??_C@_0BG@CNPAHNGG@RMSG_CHANGE_SKINCOLOR@ DB 'RMSG_CHANGE_SKINCOLOR', 00H ; `string'
CONST	ENDS
;	COMDAT ??_C@_0BA@HKNFENJL@RMSG_GET_USERID@
CONST	SEGMENT
??_C@_0BA@HKNFENJL@RMSG_GET_USERID@ DB 'RMSG_GET_USERID', 00H ; `string'
CONST	ENDS
;	COMDAT ??_C@_0BC@MMPGLPDH@RMS_ANALYSIS_FUNC@
CONST	SEGMENT
??_C@_0BC@MMPGLPDH@RMS_ANALYSIS_FUNC@ DB 'RMS_ANALYSIS_FUNC', 00H ; `string'
CONST	ENDS
;	COMDAT ??_C@_0P@KHFCBIOH@RMSG_CHARTMAIN@
CONST	SEGMENT
??_C@_0P@KHFCBIOH@RMSG_CHARTMAIN@ DB 'RMSG_CHARTMAIN', 00H ; `string'
CONST	ENDS
;	COMDAT ??_C@_0BB@CNOFPEHG@RMSG_SETQUERYOPT@
CONST	SEGMENT
??_C@_0BB@CNOFPEHG@RMSG_SETQUERYOPT@ DB 'RMSG_SETQUERYOPT', 00H ; `string'
CONST	ENDS
;	COMDAT ??_C@_0BE@FJPKENOB@RMSG_GETSIGNAL_REAL@
CONST	SEGMENT
??_C@_0BE@FJPKENOB@RMSG_GETSIGNAL_REAL@ DB 'RMSG_GETSIGNAL_REAL', 00H ; `string'
CONST	ENDS
;	COMDAT ??_C@_0BG@GIAJEIJF@RMSG_REPLAY_TOTAL_SEC@
CONST	SEGMENT
??_C@_0BG@GIAJEIJF@RMSG_REPLAY_TOTAL_SEC@ DB 'RMSG_REPLAY_TOTAL_SEC', 00H ; `string'
CONST	ENDS
;	COMDAT ??_C@_0BE@JFCIMCIP@RMSG_REPLAY_INC_SEC@
CONST	SEGMENT
??_C@_0BE@JFCIMCIP@RMSG_REPLAY_INC_SEC@ DB 'RMSG_REPLAY_INC_SEC', 00H ; `string'
CONST	ENDS
;	COMDAT ??_C@_0BA@NKHHCPON@RMSG_REPLAY_END@
CONST	SEGMENT
??_C@_0BA@NKHHCPON@RMSG_REPLAY_END@ DB 'RMSG_REPLAY_END', 00H ; `string'
CONST	ENDS
;	COMDAT ??_C@_0BI@KDGAIIMD@RMSG_REPLAY_CHANGE_DATE@
CONST	SEGMENT
??_C@_0BI@KDGAIIMD@RMSG_REPLAY_CHANGE_DATE@ DB 'RMSG_REPLAY_CHANGE_DATE', 00H ; `string'
CONST	ENDS
;	COMDAT ??_C@_0BB@JFLGBADG@RMSG_REPLAY_FAIL@
CONST	SEGMENT
??_C@_0BB@JFLGBADG@RMSG_REPLAY_FAIL@ DB 'RMSG_REPLAY_FAIL', 00H ; `string'
CONST	ENDS
;	COMDAT ??_C@_0BB@IBKHOHJL@RMSG_REPLAY_REAL@
CONST	SEGMENT
??_C@_0BB@IBKHOHJL@RMSG_REPLAY_REAL@ DB 'RMSG_REPLAY_REAL', 00H ; `string'
CONST	ENDS
;	COMDAT ??_C@_0P@BKKCOCLK@RMSG_INTERFACE@
CONST	SEGMENT
??_C@_0P@BKKCOCLK@RMSG_INTERFACE@ DB 'RMSG_INTERFACE', 00H ; `string'
CONST	ENDS
;	COMDAT ??_C@_0L@NFJHMDFP@THEMCD?4INI@
CONST	SEGMENT
??_C@_0L@NFJHMDFP@THEMCD?4INI@ DB 'THEMCD.INI', 00H	; `string'
CONST	ENDS
PUBLIC	?__empty_global_delete@@YAXPAX@Z		; __empty_global_delete
PUBLIC	?__empty_global_delete@@YAXPAXI@Z		; __empty_global_delete
PUBLIC	___local_stdio_scanf_options
PUBLIC	_sscanf
PUBLIC	??1CObject@@UAE@XZ				; CObject::~CObject
PUBLIC	??3CObject@@SGXPAX@Z				; CObject::operator delete
PUBLIC	?Serialize@CObject@@UAEXAAVCArchive@@@Z		; CObject::Serialize
PUBLIC	?AssertValid@CObject@@UBEXXZ			; CObject::AssertValid
PUBLIC	?Dump@CObject@@UBEXAAVCDumpContext@@@Z		; CObject::Dump
PUBLIC	?_AtlRaiseException@ATL@@YAXKK@Z		; ATL::_AtlRaiseException
PUBLIC	?_AtlInitializeCriticalSectionEx@ATL@@YAHPAU_RTL_CRITICAL_SECTION@@KK@Z ; ATL::_AtlInitializeCriticalSectionEx
PUBLIC	??1stringdispid@CComTypeInfoHolder@ATL@@QAE@XZ	; ATL::CComTypeInfoHolder::stringdispid::~stringdispid
PUBLIC	??_Estringdispid@CComTypeInfoHolder@ATL@@QAEPAXI@Z ; ATL::CComTypeInfoHolder::stringdispid::`vector deleting destructor'
PUBLIC	??1CGetBackData@@UAE@XZ				; CGetBackData::~CGetBackData
PUBLIC	??_GCGetBackData@@UAEPAXI@Z			; CGetBackData::`scalar deleting destructor'
PUBLIC	??0CCondTarget@@QAE@XZ				; CCondTarget::CCondTarget
PUBLIC	??1CCondTarget@@UAE@XZ				; CCondTarget::~CCondTarget
PUBLIC	?RemoveAll@CCondTarget@@QAEXXZ			; CCondTarget::RemoveAll
PUBLIC	?ReceiveData@CCondTarget@@QAEXPAXJ@Z		; CCondTarget::ReceiveData
PUBLIC	?SetEditSubjectTarGetBit@CCondTarget@@QAEXXZ	; CCondTarget::SetEditSubjectTarGetBit
PUBLIC	??0?$CMap@HHPAVCGetBackData@@PAV1@@@QAE@H@Z	; CMap<int,int,CGetBackData *,CGetBackData *>::CMap<int,int,CGetBackData *,CGetBackData *>
PUBLIC	?Lookup@?$CMap@HHPAVCGetBackData@@PAV1@@@QBEHHAAPAVCGetBackData@@@Z ; CMap<int,int,CGetBackData *,CGetBackData *>::Lookup
PUBLIC	??A?$CMap@HHPAVCGetBackData@@PAV1@@@QAEAAPAVCGetBackData@@H@Z ; CMap<int,int,CGetBackData *,CGetBackData *>::operator[]
PUBLIC	?SetAt@?$CMap@HHPAVCGetBackData@@PAV1@@@QAEXHPAVCGetBackData@@@Z ; CMap<int,int,CGetBackData *,CGetBackData *>::SetAt
PUBLIC	?RemoveKey@?$CMap@HHPAVCGetBackData@@PAV1@@@QAEHH@Z ; CMap<int,int,CGetBackData *,CGetBackData *>::RemoveKey
PUBLIC	?RemoveAll@?$CMap@HHPAVCGetBackData@@PAV1@@@QAEXXZ ; CMap<int,int,CGetBackData *,CGetBackData *>::RemoveAll
PUBLIC	?GetNextAssoc@?$CMap@HHPAVCGetBackData@@PAV1@@@QBEXAAPAU__POSITION@@AAHAAPAVCGetBackData@@@Z ; CMap<int,int,CGetBackData *,CGetBackData *>::GetNextAssoc
PUBLIC	?InitHashTable@?$CMap@HHPAVCGetBackData@@PAV1@@@QAEXIH@Z ; CMap<int,int,CGetBackData *,CGetBackData *>::InitHashTable
PUBLIC	?NewAssoc@?$CMap@HHPAVCGetBackData@@PAV1@@@IAEPAVCAssoc@1@H@Z ; CMap<int,int,CGetBackData *,CGetBackData *>::NewAssoc
PUBLIC	?FreeAssoc@?$CMap@HHPAVCGetBackData@@PAV1@@@IAEXPAVCAssoc@1@@Z ; CMap<int,int,CGetBackData *,CGetBackData *>::FreeAssoc
PUBLIC	?GetAssocAt@?$CMap@HHPAVCGetBackData@@PAV1@@@IBEPAVCAssoc@1@HAAI0@Z ; CMap<int,int,CGetBackData *,CGetBackData *>::GetAssocAt
PUBLIC	??1?$CMap@HHPAVCGetBackData@@PAV1@@@UAE@XZ	; CMap<int,int,CGetBackData *,CGetBackData *>::~CMap<int,int,CGetBackData *,CGetBackData *>
PUBLIC	?Serialize@?$CMap@HHPAVCGetBackData@@PAV1@@@UAEXAAVCArchive@@@Z ; CMap<int,int,CGetBackData *,CGetBackData *>::Serialize
PUBLIC	??_G?$CMap@HHPAVCGetBackData@@PAV1@@@UAEPAXI@Z	; CMap<int,int,CGetBackData *,CGetBackData *>::`scalar deleting destructor'
PUBLIC	?SetGetBackData@CCondTarget@@QAEPAVCGetBackData@@V?$CStringT@DV?$StrTraitMFC_DLL@DV?$ChTraitsCRT@D@ATL@@@@@ATL@@@Z ; CCondTarget::SetGetBackData
PUBLIC	?RemoveAtGetBackData@CCondTarget@@QAEXH@Z	; CCondTarget::RemoveAtGetBackData
PUBLIC	?LoadTdfData@CCondTarget@@QAEXPAVCGetBackData@@@Z ; CCondTarget::LoadTdfData
PUBLIC	?GetProfileIntA@CCondTarget@@QAEHV?$CStringT@DV?$StrTraitMFC_DLL@DV?$ChTraitsCRT@D@ATL@@@@@ATL@@00@Z ; CCondTarget::GetProfileIntA
PUBLIC	?GetData_PortItem@CCondTarget@@QAEHAAVCStringArray@@0H@Z ; CCondTarget::GetData_PortItem
PUBLIC	?GetItemCodeFromThemeGroup@CCondTarget@@QAEXAAVCStringArray@@V?$CStringT@DV?$StrTraitMFC_DLL@DV?$ChTraitsCRT@D@ATL@@@@@ATL@@@Z ; CCondTarget::GetItemCodeFromThemeGroup
PUBLIC	?Parser@CCondTarget@@QAE?AV?$CStringT@DV?$StrTraitMFC_DLL@DV?$ChTraitsCRT@D@ATL@@@@@ATL@@AAV23@V23@@Z ; CCondTarget::Parser
PUBLIC	?GetStockMasterData@CCondTarget@@QAEHAAVCStringArray@@0@Z ; CCondTarget::GetStockMasterData
PUBLIC	?GetMarketCode@CCondTarget@@QAE?AV?$CStringT@DV?$StrTraitMFC_DLL@DV?$ChTraitsCRT@D@ATL@@@@@ATL@@V23@0@Z ; CCondTarget::GetMarketCode
PUBLIC	?DelSpaceInName@CCondTarget@@QAEXXZ		; CCondTarget::DelSpaceInName
PUBLIC	?CheckTargetResult@CCondTarget@@QAEHV?$CStringT@DV?$StrTraitMFC_DLL@DV?$ChTraitsCRT@D@ATL@@@@@ATL@@@Z ; CCondTarget::CheckTargetResult
PUBLIC	??_GCCondTarget@@UAEPAXI@Z			; CCondTarget::`scalar deleting destructor'
PUBLIC	??$SerializeElements@H@@YGXAAVCArchive@@PAHH@Z	; SerializeElements<int>
PUBLIC	??$CompareElements@HH@@YGHPBH0@Z		; CompareElements<int,int>
PUBLIC	??$SerializeElements@PAVCGetBackData@@@@YGXAAVCArchive@@PAPAVCGetBackData@@H@Z ; SerializeElements<CGetBackData *>
PUBLIC	?_OptionsStorage@?1??__local_stdio_scanf_options@@9@4_KA ; `__local_stdio_scanf_options'::`2'::_OptionsStorage
PUBLIC	?_AtlWinModule@ATL@@3VCAtlWinModule@1@A		; ATL::_AtlWinModule
PUBLIC	??_C@_00CNPNBAHC@@				; `string'
PUBLIC	??_C@_01HIHLOKLC@1@				; `string'
PUBLIC	??_C@_02DKCKIIND@?$CFs@				; `string'
PUBLIC	??_C@_0M@CBBNGGHM@PcTrMng?4dll@			; `string'
PUBLIC	??_C@_0P@IDMAJEGN@HANAROPCTRMAIN@		; `string'
PUBLIC	??_C@_06NDLAHCHE@?$CFs?$CF08X@			; `string'
PUBLIC	??_C@_02EMFKHFLK@?$CFX@				; `string'
PUBLIC	??_C@_01GBGANLPD@0@				; `string'
PUBLIC	??_R0?AVCObject@@@8				; CObject `RTTI Type Descriptor'
PUBLIC	??_R3CObject@@8					; CObject::`RTTI Class Hierarchy Descriptor'
PUBLIC	??_R2CObject@@8					; CObject::`RTTI Base Class Array'
PUBLIC	??_R1A@?0A@EA@CObject@@8			; CObject::`RTTI Base Class Descriptor at (0,-1,0,64)'
PUBLIC	??_7CGetBackData@@6B@				; CGetBackData::`vftable'
PUBLIC	??_7?$CMap@HHPAVCGetBackData@@PAV1@@@6B@	; CMap<int,int,CGetBackData *,CGetBackData *>::`vftable'
PUBLIC	??_7CCondTarget@@6B@				; CCondTarget::`vftable'
PUBLIC	??_C@_0BD@CMCCCNBF@HANAROIGATEMANAGER@		; `string'
PUBLIC	??_C@_0BB@NJOFBLDN@KRX100?$CI?E?k?G?U?A?v?$LM?v?$CJ@ ; `string'
PUBLIC	??_C@_01CLKCMJKC@?5@				; `string'
PUBLIC	??_C@_08FPNDIEGG@KOSPI200@			; `string'
PUBLIC	??_C@_07KDMDENFH@UMASTER@			; `string'
PUBLIC	??_C@_0M@DLEHNAKM@KOSPI?$CI?A?$LO?G?U?$CJ@	; `string'
PUBLIC	??_C@_0N@GDNPPFAH@KOSDAQ?$CI?A?$LO?G?U?$CJ@	; `string'
PUBLIC	??_C@_08HMCPBLEK@KUMASTER@			; `string'
PUBLIC	??_C@_04GAOAGNCM@?4xml@				; `string'
PUBLIC	??_C@_04NPAIABJB@?4tdf@				; `string'
PUBLIC	??_C@_09ELDJDNO@Except_JM@			; `string'
PUBLIC	??_C@_05OLCCKFMM@Issue@				; `string'
PUBLIC	??_C@_0O@KJHEEKBI@CheckDealStop@		; `string'
PUBLIC	??_C@_08ILOOAIEA@TidyDeal@			; `string'
PUBLIC	??_C@_0BC@ONKKOLN@InsincerityNotice@		; `string'
PUBLIC	??_C@_0BE@HLPKMDJA@AttentionInvestment@		; `string'
PUBLIC	??_C@_0BK@FLJHGBIE@NoticeAttentionInvestment@	; `string'
PUBLIC	??_C@_0BF@MGLLGIND@CheckPreferenceStock@	; `string'
PUBLIC	??_C@_0N@KDBMFLJ@CheckDeposit@			; `string'
PUBLIC	??_C@_0BB@ECGNDCGL@DangerInvestment@		; `string'
PUBLIC	??_C@_0BC@DEJCAOFC@WarningInvestment@		; `string'
PUBLIC	??_C@_0BA@LOIGKKCE@InvestAttention@		; `string'
PUBLIC	??_C@_03LPOHOGAD@ETF@				; `string'
PUBLIC	??_C@_05MDLMAGGB@Month@				; `string'
PUBLIC	??_C@_0O@GLAJCEBI@SelRadioMonth@		; `string'
PUBLIC	??_C@_0BA@CAOBJMAA@IndexMonthCombo@		; `string'
PUBLIC	??_C@_0M@BCNIABEG@Tree_Upjong@			; `string'
PUBLIC	??_C@_0L@INPAEN@TargetItem@			; `string'
PUBLIC	??_C@_0BB@NABPICPH@TargetParnetItem@		; `string'
PUBLIC	??_C@_04KOJKLCBG@1000@				; `string'
PUBLIC	??_C@_05FNNGFGLF@Index@				; `string'
PUBLIC	??_C@_0P@DNFHBFAL@Tree_JangGubun@		; `string'
PUBLIC	??_C@_06DCPOEFOJ@?$CF?97?47s@			; `string'
PUBLIC	??_C@_01FDFGLJHB@2@				; `string'
PUBLIC	??_C@_01EKENIIDA@3@				; `string'
PUBLIC	??_C@_01FAMBOPH@4@				; `string'
PUBLIC	??_C@_08GBCBMMED@?$LA?$PM?$LN?I?A?$LO?$LI?q@	; `string'
PUBLIC	??_C@_08JMIJNHAN@?E?W?$LI?$LG?$LB?W?$LH?l@	; `string'
PUBLIC	??_C@_0L@CMGEAIGC@KRXUMASTER@			; `string'
PUBLIC	??_C@_06CLLJOKKL@?$LA?E?$LH?$KB?$LM?R@		; `string'
PUBLIC	??_C@_06MKHMLNFC@?D?Z?$LN?$LK?$LE?Z@		; `string'
PUBLIC	??_C@_06NOAAGAFD@KRX100@			; `string'
PUBLIC	??_C@_04MHOBIAIL@?$MA?$PM?C?$LM@		; `string'
PUBLIC	??_C@_0BD@CABKFFIK@?$CFs?2portfolio?4i?$CF02d@	; `string'
PUBLIC	??_C@_04EBNJJJJI@?$CF?4?$CKs@			; `string'
PUBLIC	??_C@_09PNJEFEEK@?$CFs?2tab?2?$CFs@		; `string'
PUBLIC	??_C@_04OGKJMPGK@?$CF02d@			; `string'
PUBLIC	??_C@_04OHGLKFFN@?$CF03d@			; `string'
PUBLIC	??_C@_06MMOPNCKE@FOLDER@			; `string'
PUBLIC	??_C@_06CAHGAADJ@TMCODE@			; `string'
PUBLIC	??_C@_01ICJEACDI@?$DL@				; `string'
PUBLIC	??_R4CGetBackData@@6B@				; CGetBackData::`RTTI Complete Object Locator'
PUBLIC	??_R0?AVCGetBackData@@@8			; CGetBackData `RTTI Type Descriptor'
PUBLIC	??_R3CGetBackData@@8				; CGetBackData::`RTTI Class Hierarchy Descriptor'
PUBLIC	??_R2CGetBackData@@8				; CGetBackData::`RTTI Base Class Array'
PUBLIC	??_R1A@?0A@EA@CGetBackData@@8			; CGetBackData::`RTTI Base Class Descriptor at (0,-1,0,64)'
PUBLIC	??_R4CCondTarget@@6B@				; CCondTarget::`RTTI Complete Object Locator'
PUBLIC	??_R0?AVCCondTarget@@@8				; CCondTarget `RTTI Type Descriptor'
PUBLIC	??_R3CCondTarget@@8				; CCondTarget::`RTTI Class Hierarchy Descriptor'
PUBLIC	??_R2CCondTarget@@8				; CCondTarget::`RTTI Base Class Array'
PUBLIC	??_R1A@?0A@EA@CCondTarget@@8			; CCondTarget::`RTTI Base Class Descriptor at (0,-1,0,64)'
PUBLIC	??_R4?$CMap@HHPAVCGetBackData@@PAV1@@@6B@	; CMap<int,int,CGetBackData *,CGetBackData *>::`RTTI Complete Object Locator'
PUBLIC	??_R0?AV?$CMap@HHPAVCGetBackData@@PAV1@@@@8	; CMap<int,int,CGetBackData *,CGetBackData *> `RTTI Type Descriptor'
PUBLIC	??_R3?$CMap@HHPAVCGetBackData@@PAV1@@@8		; CMap<int,int,CGetBackData *,CGetBackData *>::`RTTI Class Hierarchy Descriptor'
PUBLIC	??_R2?$CMap@HHPAVCGetBackData@@PAV1@@@8		; CMap<int,int,CGetBackData *,CGetBackData *>::`RTTI Base Class Array'
PUBLIC	??_R1A@?0A@EA@?$CMap@HHPAVCGetBackData@@PAV1@@@8 ; CMap<int,int,CGetBackData *,CGetBackData *>::`RTTI Base Class Descriptor at (0,-1,0,64)'
EXTRN	??_L@YGXPAXIIP6EX0@Z1@Z:PROC			; `eh vector constructor iterator'
EXTRN	??_M@YGXPAXIIP6EX0@Z@Z:PROC			; `eh vector destructor iterator'
EXTRN	??2@YAPAXI@Z:PROC				; operator new
EXTRN	??3@YAXPAX@Z:PROC				; operator delete
EXTRN	??3@YAXPAXI@Z:PROC				; operator delete
EXTRN	?__global_delete@@YAXPAXI@Z:PROC		; __global_delete
EXTRN	??_U@YAPAXI@Z:PROC				; operator new[]
EXTRN	??_V@YAXPAX@Z:PROC				; operator delete[]
EXTRN	??_V@YAXPAXI@Z:PROC				; operator delete[]
EXTRN	_atexit:PROC
EXTRN	___std_terminate:PROC
EXTRN	__imp__GetEnvironmentVariableA@12:PROC
EXTRN	__imp__RaiseException@16:PROC
EXTRN	__imp__GetLastError@0:PROC
EXTRN	__imp__InitializeCriticalSectionEx@12:PROC
EXTRN	__imp__DeleteCriticalSection@4:PROC
EXTRN	__imp__GetModuleHandleA@4:PROC
EXTRN	__imp__GetPrivateProfileStringA@24:PROC
EXTRN	__imp__RegisterWindowMessageA@4:PROC
EXTRN	__imp__SendMessageA@16:PROC
EXTRN	__imp__UnregisterClassA@8:PROC
EXTRN	__imp____stdio_common_vsscanf:PROC
EXTRN	__imp__free:PROC
EXTRN	__imp__atoi:PROC
EXTRN	?AfxThrowInvalidArgException@@YGXXZ:PROC	; AfxThrowInvalidArgException
EXTRN	?AfxThrowArchiveException@@YGXHPBD@Z:PROC	; AfxThrowArchiveException
EXTRN	?GetRuntimeClass@CObject@@UBEPAUCRuntimeClass@@XZ:PROC ; CObject::GetRuntimeClass
EXTRN	__imp__SysFreeString@4:PROC
EXTRN	__imp_?Empty@?$CSimpleStringT@D$00@ATL@@QAEXXZ:PROC
EXTRN	__imp_?GetAt@?$CSimpleStringT@D$00@ATL@@QBEDH@Z:PROC
EXTRN	__imp_??0?$CStringT@DV?$StrTraitMFC_DLL@DV?$ChTraitsCRT@D@ATL@@@@@ATL@@QAE@XZ:PROC
EXTRN	__imp_??0?$CStringT@DV?$StrTraitMFC_DLL@DV?$ChTraitsCRT@D@ATL@@@@@ATL@@QAE@ABV01@@Z:PROC
EXTRN	__imp_??0?$CStringT@DV?$StrTraitMFC_DLL@DV?$ChTraitsCRT@D@ATL@@@@@ATL@@QAE@PBD@Z:PROC
EXTRN	__imp_??1?$CStringT@DV?$StrTraitMFC_DLL@DV?$ChTraitsCRT@D@ATL@@@@@ATL@@QAE@XZ:PROC
EXTRN	__imp_??4?$CStringT@DV?$StrTraitMFC_DLL@DV?$ChTraitsCRT@D@ATL@@@@@ATL@@QAEAAV01@ABV01@@Z:PROC
EXTRN	__imp_??4?$CStringT@DV?$StrTraitMFC_DLL@DV?$ChTraitsCRT@D@ATL@@@@@ATL@@QAEAAV01@PBD@Z:PROC
EXTRN	__imp_??Y?$CStringT@DV?$StrTraitMFC_DLL@DV?$ChTraitsCRT@D@ATL@@@@@ATL@@QAEAAV01@PBD@Z:PROC
EXTRN	__imp_?Compare@?$CStringT@DV?$StrTraitMFC_DLL@DV?$ChTraitsCRT@D@ATL@@@@@ATL@@QBEHPBD@Z:PROC
EXTRN	__imp_?CompareNoCase@?$CStringT@DV?$StrTraitMFC_DLL@DV?$ChTraitsCRT@D@ATL@@@@@ATL@@QBEHPBD@Z:PROC
EXTRN	__imp_?Replace@?$CStringT@DV?$StrTraitMFC_DLL@DV?$ChTraitsCRT@D@ATL@@@@@ATL@@QAEHPBD0@Z:PROC
EXTRN	__imp_?Find@?$CStringT@DV?$StrTraitMFC_DLL@DV?$ChTraitsCRT@D@ATL@@@@@ATL@@QBEHPBDH@Z:PROC
EXTRN	__imp_?TrimRight@?$CStringT@DV?$StrTraitMFC_DLL@DV?$ChTraitsCRT@D@ATL@@@@@ATL@@QAEAAV12@XZ:PROC
EXTRN	__imp_?TrimLeft@?$CStringT@DV?$StrTraitMFC_DLL@DV?$ChTraitsCRT@D@ATL@@@@@ATL@@QAEAAV12@XZ:PROC
EXTRN	__imp_?Mid@?$CStringT@DV?$StrTraitMFC_DLL@DV?$ChTraitsCRT@D@ATL@@@@@ATL@@QBE?AV12@H@Z:PROC
EXTRN	__imp_?Right@?$CStringT@DV?$StrTraitMFC_DLL@DV?$ChTraitsCRT@D@ATL@@@@@ATL@@QBE?AV12@H@Z:PROC
EXTRN	__imp_?Left@?$CStringT@DV?$StrTraitMFC_DLL@DV?$ChTraitsCRT@D@ATL@@@@@ATL@@QBE?AV12@H@Z:PROC
EXTRN	__imp_?Format@?$CStringT@DV?$StrTraitMFC_DLL@DV?$ChTraitsCRT@D@ATL@@@@@ATL@@QAAXPBDZZ:PROC
EXTRN	??0CFile@@QAE@PBDI@Z:PROC			; CFile::CFile
EXTRN	?GetStatus@CFile@@SGHPBDAAUCFileStatus@@PAVCAtlTransactionManager@ATL@@@Z:PROC ; CFile::GetStatus
EXTRN	?Read@CFile@@UAEIPAXI@Z:PROC			; CFile::Read
EXTRN	?Close@CFile@@UAEXXZ:PROC			; CFile::Close
EXTRN	??1CFile@@UAE@XZ:PROC				; CFile::~CFile
EXTRN	??0CFileFind@@QAE@XZ:PROC			; CFileFind::CFileFind
EXTRN	??1CFileFind@@UAE@XZ:PROC			; CFileFind::~CFileFind
EXTRN	?FindFile@CFileFind@@UAEHPBDK@Z:PROC		; CFileFind::FindFile
EXTRN	?Read@CArchive@@QAEIPAXI@Z:PROC			; CArchive::Read
EXTRN	?Write@CArchive@@QAEXPBXI@Z:PROC		; CArchive::Write
EXTRN	?ReadCount@CArchive@@QAEKXZ:PROC		; CArchive::ReadCount
EXTRN	?WriteCount@CArchive@@QAEXK@Z:PROC		; CArchive::WriteCount
EXTRN	??0CStringArray@@QAE@XZ:PROC			; CStringArray::CStringArray
EXTRN	?SetSize@CStringArray@@QAEXHH@Z:PROC		; CStringArray::SetSize
EXTRN	?SetAtGrow@CStringArray@@QAEXHABV?$CStringT@DV?$StrTraitMFC_DLL@DV?$ChTraitsCRT@D@ATL@@@@@ATL@@@Z:PROC ; CStringArray::SetAtGrow
EXTRN	?Copy@CStringArray@@QAEXABV1@@Z:PROC		; CStringArray::Copy
EXTRN	??1CStringArray@@UAE@XZ:PROC			; CStringArray::~CStringArray
EXTRN	??0CMapStringToString@@QAE@H@Z:PROC		; CMapStringToString::CMapStringToString
EXTRN	?Lookup@CMapStringToString@@QBEHPBDAAV?$CStringT@DV?$StrTraitMFC_DLL@DV?$ChTraitsCRT@D@ATL@@@@@ATL@@@Z:PROC ; CMapStringToString::Lookup
EXTRN	??ACMapStringToString@@QAEAAV?$CStringT@DV?$StrTraitMFC_DLL@DV?$ChTraitsCRT@D@ATL@@@@@ATL@@PBD@Z:PROC ; CMapStringToString::operator[]
EXTRN	?RemoveAll@CMapStringToString@@QAEXXZ:PROC	; CMapStringToString::RemoveAll
EXTRN	??1CMapStringToString@@UAE@XZ:PROC		; CMapStringToString::~CMapStringToString
EXTRN	?Create@CPlex@@SGPAU1@AAPAU1@II@Z:PROC		; CPlex::Create
EXTRN	?FreeDataChain@CPlex@@QAEXXZ:PROC		; CPlex::FreeDataChain
EXTRN	??_ECGetBackData@@UAEPAXI@Z:PROC		; CGetBackData::`vector deleting destructor'
EXTRN	??_E?$CMap@HHPAVCGetBackData@@PAV1@@@UAEPAXI@Z:PROC ; CMap<int,int,CGetBackData *,CGetBackData *>::`vector deleting destructor'
EXTRN	??_ECCondTarget@@UAEPAXI@Z:PROC			; CCondTarget::`vector deleting destructor'
EXTRN	@__security_check_cookie@4:PROC
EXTRN	___CxxFrameHandler3:PROC
EXTRN	_memset:PROC
EXTRN	??_7type_info@@6B@:QWORD			; type_info::`vftable'
EXTRN	__imp_?hFileNull@CFile@@2QAXA:DWORD
EXTRN	___security_cookie:DWORD
EXTRN	__fltused:DWORD
;	COMDAT ?_OptionsStorage@?1??__local_stdio_scanf_options@@9@4_KA
_BSS	SEGMENT
?_OptionsStorage@?1??__local_stdio_scanf_options@@9@4_KA DQ 01H DUP (?) ; `__local_stdio_scanf_options'::`2'::_OptionsStorage
_BSS	ENDS
_BSS	SEGMENT
?RMSG_INTERFACE@@3IB DD 01H DUP (?)			; RMSG_INTERFACE
?RMSG_REPLAY_REAL@@3IB DD 01H DUP (?)			; RMSG_REPLAY_REAL
?RMSG_REPLAY_FAIL@@3IB DD 01H DUP (?)			; RMSG_REPLAY_FAIL
?RMSG_REPLAY_CHANGE_DATE@@3IB DD 01H DUP (?)		; RMSG_REPLAY_CHANGE_DATE
?RMSG_REPLAY_END@@3IB DD 01H DUP (?)			; RMSG_REPLAY_END
?RMSG_REPLAY_INC_SEC@@3IB DD 01H DUP (?)		; RMSG_REPLAY_INC_SEC
?RMSG_REPLAY_TOTAL_SEC@@3IB DD 01H DUP (?)		; RMSG_REPLAY_TOTAL_SEC
?RMSG_GETSIGNAL_REAL@@3IB DD 01H DUP (?)		; RMSG_GETSIGNAL_REAL
?RMSG_SETQUERYOPT@@3IB DD 01H DUP (?)			; RMSG_SETQUERYOPT
?RMSG_CHARTMAIN@@3IB DD 01H DUP (?)			; RMSG_CHARTMAIN
?RMS_ANALYSIS_FUNC@@3IB DD 01H DUP (?)			; RMS_ANALYSIS_FUNC
?RMSG_GET_USERID@@3IB DD 01H DUP (?)			; RMSG_GET_USERID
?RMSG_CHANGE_SKINCOLOR@@3IB DD 01H DUP (?)		; RMSG_CHANGE_SKINCOLOR
?RMSG_GET_SKINCOLOR@@3IB DD 01H DUP (?)			; RMSG_GET_SKINCOLOR
?RMSG_CHANGEVERTSCALETYPE@@3IB DD 01H DUP (?)		; RMSG_CHANGEVERTSCALETYPE
?RMSG_CHANGE_CROSSLINE@@3IB DD 01H DUP (?)		; RMSG_CHANGE_CROSSLINE
?RMSG_ADD_PLATFORM_MENU@@3IB DD 01H DUP (?)		; RMSG_ADD_PLATFORM_MENU
?RMSG_SETINITIALCHARTDATA@@3IB DD 01H DUP (?)		; RMSG_SETINITIALCHARTDATA
?RMSG_GETINFO@@3IB DD 01H DUP (?)			; RMSG_GETINFO
?RMSG_SETINFO@@3IB DD 01H DUP (?)			; RMSG_SETINFO
_BSS	ENDS
;	COMDAT CRT$XCU
CRT$XCU	SEGMENT
?_AtlWinModule$initializer$@ATL@@3P6AXXZA DD FLAT:??__E_AtlWinModule@ATL@@YAXXZ ; ATL::_AtlWinModule$initializer$
CRT$XCU	ENDS
;	COMDAT ??_R1A@?0A@EA@?$CMap@HHPAVCGetBackData@@PAV1@@@8
rdata$r	SEGMENT
??_R1A@?0A@EA@?$CMap@HHPAVCGetBackData@@PAV1@@@8 DD FLAT:??_R0?AV?$CMap@HHPAVCGetBackData@@PAV1@@@@8 ; CMap<int,int,CGetBackData *,CGetBackData *>::`RTTI Base Class Descriptor at (0,-1,0,64)'
	DD	01H
	DD	00H
	DD	0ffffffffH
	DD	00H
	DD	040H
	DD	FLAT:??_R3?$CMap@HHPAVCGetBackData@@PAV1@@@8
rdata$r	ENDS
;	COMDAT ??_R2?$CMap@HHPAVCGetBackData@@PAV1@@@8
rdata$r	SEGMENT
??_R2?$CMap@HHPAVCGetBackData@@PAV1@@@8 DD FLAT:??_R1A@?0A@EA@?$CMap@HHPAVCGetBackData@@PAV1@@@8 ; CMap<int,int,CGetBackData *,CGetBackData *>::`RTTI Base Class Array'
	DD	FLAT:??_R1A@?0A@EA@CObject@@8
rdata$r	ENDS
;	COMDAT ??_R3?$CMap@HHPAVCGetBackData@@PAV1@@@8
rdata$r	SEGMENT
??_R3?$CMap@HHPAVCGetBackData@@PAV1@@@8 DD 00H		; CMap<int,int,CGetBackData *,CGetBackData *>::`RTTI Class Hierarchy Descriptor'
	DD	00H
	DD	02H
	DD	FLAT:??_R2?$CMap@HHPAVCGetBackData@@PAV1@@@8
rdata$r	ENDS
;	COMDAT ??_R0?AV?$CMap@HHPAVCGetBackData@@PAV1@@@@8
data$rs	SEGMENT
??_R0?AV?$CMap@HHPAVCGetBackData@@PAV1@@@@8 DD FLAT:??_7type_info@@6B@ ; CMap<int,int,CGetBackData *,CGetBackData *> `RTTI Type Descriptor'
	DD	00H
	DB	'.?AV?$CMap@HHPAVCGetBackData@@PAV1@@@', 00H
data$rs	ENDS
;	COMDAT ??_R4?$CMap@HHPAVCGetBackData@@PAV1@@@6B@
rdata$r	SEGMENT
??_R4?$CMap@HHPAVCGetBackData@@PAV1@@@6B@ DD 00H	; CMap<int,int,CGetBackData *,CGetBackData *>::`RTTI Complete Object Locator'
	DD	00H
	DD	00H
	DD	FLAT:??_R0?AV?$CMap@HHPAVCGetBackData@@PAV1@@@@8
	DD	FLAT:??_R3?$CMap@HHPAVCGetBackData@@PAV1@@@8
rdata$r	ENDS
;	COMDAT ??_R1A@?0A@EA@CCondTarget@@8
rdata$r	SEGMENT
??_R1A@?0A@EA@CCondTarget@@8 DD FLAT:??_R0?AVCCondTarget@@@8 ; CCondTarget::`RTTI Base Class Descriptor at (0,-1,0,64)'
	DD	00H
	DD	00H
	DD	0ffffffffH
	DD	00H
	DD	040H
	DD	FLAT:??_R3CCondTarget@@8
rdata$r	ENDS
;	COMDAT ??_R2CCondTarget@@8
rdata$r	SEGMENT
??_R2CCondTarget@@8 DD FLAT:??_R1A@?0A@EA@CCondTarget@@8 ; CCondTarget::`RTTI Base Class Array'
rdata$r	ENDS
;	COMDAT ??_R3CCondTarget@@8
rdata$r	SEGMENT
??_R3CCondTarget@@8 DD 00H				; CCondTarget::`RTTI Class Hierarchy Descriptor'
	DD	00H
	DD	01H
	DD	FLAT:??_R2CCondTarget@@8
rdata$r	ENDS
;	COMDAT ??_R0?AVCCondTarget@@@8
data$rs	SEGMENT
??_R0?AVCCondTarget@@@8 DD FLAT:??_7type_info@@6B@	; CCondTarget `RTTI Type Descriptor'
	DD	00H
	DB	'.?AVCCondTarget@@', 00H
data$rs	ENDS
;	COMDAT ??_R4CCondTarget@@6B@
rdata$r	SEGMENT
??_R4CCondTarget@@6B@ DD 00H				; CCondTarget::`RTTI Complete Object Locator'
	DD	00H
	DD	00H
	DD	FLAT:??_R0?AVCCondTarget@@@8
	DD	FLAT:??_R3CCondTarget@@8
rdata$r	ENDS
;	COMDAT ??_R1A@?0A@EA@CGetBackData@@8
rdata$r	SEGMENT
??_R1A@?0A@EA@CGetBackData@@8 DD FLAT:??_R0?AVCGetBackData@@@8 ; CGetBackData::`RTTI Base Class Descriptor at (0,-1,0,64)'
	DD	00H
	DD	00H
	DD	0ffffffffH
	DD	00H
	DD	040H
	DD	FLAT:??_R3CGetBackData@@8
rdata$r	ENDS
;	COMDAT ??_R2CGetBackData@@8
rdata$r	SEGMENT
??_R2CGetBackData@@8 DD FLAT:??_R1A@?0A@EA@CGetBackData@@8 ; CGetBackData::`RTTI Base Class Array'
rdata$r	ENDS
;	COMDAT ??_R3CGetBackData@@8
rdata$r	SEGMENT
??_R3CGetBackData@@8 DD 00H				; CGetBackData::`RTTI Class Hierarchy Descriptor'
	DD	00H
	DD	01H
	DD	FLAT:??_R2CGetBackData@@8
rdata$r	ENDS
;	COMDAT ??_R0?AVCGetBackData@@@8
data$rs	SEGMENT
??_R0?AVCGetBackData@@@8 DD FLAT:??_7type_info@@6B@	; CGetBackData `RTTI Type Descriptor'
	DD	00H
	DB	'.?AVCGetBackData@@', 00H
data$rs	ENDS
;	COMDAT ??_R4CGetBackData@@6B@
rdata$r	SEGMENT
??_R4CGetBackData@@6B@ DD 00H				; CGetBackData::`RTTI Complete Object Locator'
	DD	00H
	DD	00H
	DD	FLAT:??_R0?AVCGetBackData@@@8
	DD	FLAT:??_R3CGetBackData@@8
rdata$r	ENDS
;	COMDAT ??_C@_01ICJEACDI@?$DL@
CONST	SEGMENT
??_C@_01ICJEACDI@?$DL@ DB ';', 00H			; `string'
CONST	ENDS
;	COMDAT ??_C@_06CAHGAADJ@TMCODE@
CONST	SEGMENT
??_C@_06CAHGAADJ@TMCODE@ DB 'TMCODE', 00H		; `string'
CONST	ENDS
;	COMDAT ??_C@_06MMOPNCKE@FOLDER@
CONST	SEGMENT
??_C@_06MMOPNCKE@FOLDER@ DB 'FOLDER', 00H		; `string'
CONST	ENDS
;	COMDAT ??_C@_04OHGLKFFN@?$CF03d@
CONST	SEGMENT
??_C@_04OHGLKFFN@?$CF03d@ DB '%03d', 00H		; `string'
CONST	ENDS
;	COMDAT ??_C@_04OGKJMPGK@?$CF02d@
CONST	SEGMENT
??_C@_04OGKJMPGK@?$CF02d@ DB '%02d', 00H		; `string'
CONST	ENDS
;	COMDAT ??_C@_09PNJEFEEK@?$CFs?2tab?2?$CFs@
CONST	SEGMENT
??_C@_09PNJEFEEK@?$CFs?2tab?2?$CFs@ DB '%s\tab\%s', 00H	; `string'
CONST	ENDS
;	COMDAT ??_C@_04EBNJJJJI@?$CF?4?$CKs@
CONST	SEGMENT
??_C@_04EBNJJJJI@?$CF?4?$CKs@ DB '%.*s', 00H		; `string'
CONST	ENDS
;	COMDAT ??_C@_0BD@CABKFFIK@?$CFs?2portfolio?4i?$CF02d@
CONST	SEGMENT
??_C@_0BD@CABKFFIK@?$CFs?2portfolio?4i?$CF02d@ DB '%s\portfolio.i%02d', 00H ; `string'
CONST	ENDS
;	COMDAT ??_C@_04MHOBIAIL@?$MA?$PM?C?$LM@
CONST	SEGMENT
??_C@_04MHOBIAIL@?$MA?$PM?C?$LM@ DB 0c0H, 0fcH, 0c3H, 0bcH, 00H ; `string'
CONST	ENDS
;	COMDAT ??_C@_06NOAAGAFD@KRX100@
CONST	SEGMENT
??_C@_06NOAAGAFD@KRX100@ DB 'KRX100', 00H		; `string'
CONST	ENDS
;	COMDAT ??_C@_06MKHMLNFC@?D?Z?$LN?$LK?$LE?Z@
CONST	SEGMENT
??_C@_06MKHMLNFC@?D?Z?$LN?$LK?$LE?Z@ DB 0c4H, 0daH, 0bdH, 0baH, 0b4H, 0daH
	DB	00H						; `string'
CONST	ENDS
;	COMDAT ??_C@_06CLLJOKKL@?$LA?E?$LH?$KB?$LM?R@
CONST	SEGMENT
??_C@_06CLLJOKKL@?$LA?E?$LH?$KB?$LM?R@ DB 0b0H, 0c5H, 0b7H, 0a1H, 0bcH, 0d2H
	DB	00H						; `string'
CONST	ENDS
;	COMDAT ??_C@_0L@CMGEAIGC@KRXUMASTER@
CONST	SEGMENT
??_C@_0L@CMGEAIGC@KRXUMASTER@ DB 'KRXUMASTER', 00H	; `string'
CONST	ENDS
;	COMDAT ??_C@_08JMIJNHAN@?E?W?$LI?$LG?$LB?W?$LH?l@
CONST	SEGMENT
??_C@_08JMIJNHAN@?E?W?$LI?$LG?$LB?W?$LH?l@ DB 0c5H, 0d7H, 0b8H, 0b6H, 0b1H
	DB	0d7H, 0b7H, 0ecH, 00H			; `string'
CONST	ENDS
;	COMDAT ??_C@_08GBCBMMED@?$LA?$PM?$LN?I?A?$LO?$LI?q@
CONST	SEGMENT
??_C@_08GBCBMMED@?$LA?$PM?$LN?I?A?$LO?$LI?q@ DB 0b0H, 0fcH, 0bdH, 0c9H, 0c1H
	DB	0beH, 0b8H, 0f1H, 00H			; `string'
CONST	ENDS
;	COMDAT ??_C@_01FAMBOPH@4@
CONST	SEGMENT
??_C@_01FAMBOPH@4@ DB '4', 00H				; `string'
CONST	ENDS
;	COMDAT ??_C@_01EKENIIDA@3@
CONST	SEGMENT
??_C@_01EKENIIDA@3@ DB '3', 00H				; `string'
CONST	ENDS
;	COMDAT ??_C@_01FDFGLJHB@2@
CONST	SEGMENT
??_C@_01FDFGLJHB@2@ DB '2', 00H				; `string'
CONST	ENDS
;	COMDAT ??_C@_06DCPOEFOJ@?$CF?97?47s@
CONST	SEGMENT
??_C@_06DCPOEFOJ@?$CF?97?47s@ DB '%-7.7s', 00H		; `string'
CONST	ENDS
;	COMDAT ??_C@_0P@DNFHBFAL@Tree_JangGubun@
CONST	SEGMENT
??_C@_0P@DNFHBFAL@Tree_JangGubun@ DB 'Tree_JangGubun', 00H ; `string'
CONST	ENDS
;	COMDAT ??_C@_05FNNGFGLF@Index@
CONST	SEGMENT
??_C@_05FNNGFGLF@Index@ DB 'Index', 00H			; `string'
CONST	ENDS
;	COMDAT ??_C@_04KOJKLCBG@1000@
CONST	SEGMENT
??_C@_04KOJKLCBG@1000@ DB '1000', 00H			; `string'
CONST	ENDS
;	COMDAT ??_C@_0BB@NABPICPH@TargetParnetItem@
CONST	SEGMENT
??_C@_0BB@NABPICPH@TargetParnetItem@ DB 'TargetParnetItem', 00H ; `string'
CONST	ENDS
;	COMDAT ??_C@_0L@INPAEN@TargetItem@
CONST	SEGMENT
??_C@_0L@INPAEN@TargetItem@ DB 'TargetItem', 00H	; `string'
CONST	ENDS
;	COMDAT ??_C@_0M@BCNIABEG@Tree_Upjong@
CONST	SEGMENT
??_C@_0M@BCNIABEG@Tree_Upjong@ DB 'Tree_Upjong', 00H	; `string'
CONST	ENDS
;	COMDAT ??_C@_0BA@CAOBJMAA@IndexMonthCombo@
CONST	SEGMENT
??_C@_0BA@CAOBJMAA@IndexMonthCombo@ DB 'IndexMonthCombo', 00H ; `string'
CONST	ENDS
;	COMDAT ??_C@_0O@GLAJCEBI@SelRadioMonth@
CONST	SEGMENT
??_C@_0O@GLAJCEBI@SelRadioMonth@ DB 'SelRadioMonth', 00H ; `string'
CONST	ENDS
;	COMDAT ??_C@_05MDLMAGGB@Month@
CONST	SEGMENT
??_C@_05MDLMAGGB@Month@ DB 'Month', 00H			; `string'
CONST	ENDS
;	COMDAT ??_C@_03LPOHOGAD@ETF@
CONST	SEGMENT
??_C@_03LPOHOGAD@ETF@ DB 'ETF', 00H			; `string'
CONST	ENDS
;	COMDAT ??_C@_0BA@LOIGKKCE@InvestAttention@
CONST	SEGMENT
??_C@_0BA@LOIGKKCE@InvestAttention@ DB 'InvestAttention', 00H ; `string'
CONST	ENDS
;	COMDAT ??_C@_0BC@DEJCAOFC@WarningInvestment@
CONST	SEGMENT
??_C@_0BC@DEJCAOFC@WarningInvestment@ DB 'WarningInvestment', 00H ; `string'
CONST	ENDS
;	COMDAT ??_C@_0BB@ECGNDCGL@DangerInvestment@
CONST	SEGMENT
??_C@_0BB@ECGNDCGL@DangerInvestment@ DB 'DangerInvestment', 00H ; `string'
CONST	ENDS
;	COMDAT ??_C@_0N@KDBMFLJ@CheckDeposit@
CONST	SEGMENT
??_C@_0N@KDBMFLJ@CheckDeposit@ DB 'CheckDeposit', 00H	; `string'
CONST	ENDS
;	COMDAT ??_C@_0BF@MGLLGIND@CheckPreferenceStock@
CONST	SEGMENT
??_C@_0BF@MGLLGIND@CheckPreferenceStock@ DB 'CheckPreferenceStock', 00H ; `string'
CONST	ENDS
;	COMDAT ??_C@_0BK@FLJHGBIE@NoticeAttentionInvestment@
CONST	SEGMENT
??_C@_0BK@FLJHGBIE@NoticeAttentionInvestment@ DB 'NoticeAttentionInvestme'
	DB	'nt', 00H					; `string'
CONST	ENDS
;	COMDAT ??_C@_0BE@HLPKMDJA@AttentionInvestment@
CONST	SEGMENT
??_C@_0BE@HLPKMDJA@AttentionInvestment@ DB 'AttentionInvestment', 00H ; `string'
CONST	ENDS
;	COMDAT ??_C@_0BC@ONKKOLN@InsincerityNotice@
CONST	SEGMENT
??_C@_0BC@ONKKOLN@InsincerityNotice@ DB 'InsincerityNotice', 00H ; `string'
CONST	ENDS
;	COMDAT ??_C@_08ILOOAIEA@TidyDeal@
CONST	SEGMENT
??_C@_08ILOOAIEA@TidyDeal@ DB 'TidyDeal', 00H		; `string'
CONST	ENDS
;	COMDAT ??_C@_0O@KJHEEKBI@CheckDealStop@
CONST	SEGMENT
??_C@_0O@KJHEEKBI@CheckDealStop@ DB 'CheckDealStop', 00H ; `string'
CONST	ENDS
;	COMDAT ??_C@_05OLCCKFMM@Issue@
CONST	SEGMENT
??_C@_05OLCCKFMM@Issue@ DB 'Issue', 00H			; `string'
CONST	ENDS
;	COMDAT ??_C@_09ELDJDNO@Except_JM@
CONST	SEGMENT
??_C@_09ELDJDNO@Except_JM@ DB 'Except_JM', 00H		; `string'
CONST	ENDS
;	COMDAT ??_C@_04NPAIABJB@?4tdf@
CONST	SEGMENT
??_C@_04NPAIABJB@?4tdf@ DB '.tdf', 00H			; `string'
CONST	ENDS
;	COMDAT ??_C@_04GAOAGNCM@?4xml@
CONST	SEGMENT
??_C@_04GAOAGNCM@?4xml@ DB '.xml', 00H			; `string'
CONST	ENDS
;	COMDAT ??_C@_08HMCPBLEK@KUMASTER@
CONST	SEGMENT
??_C@_08HMCPBLEK@KUMASTER@ DB 'KUMASTER', 00H		; `string'
CONST	ENDS
;	COMDAT ??_C@_0N@GDNPPFAH@KOSDAQ?$CI?A?$LO?G?U?$CJ@
CONST	SEGMENT
??_C@_0N@GDNPPFAH@KOSDAQ?$CI?A?$LO?G?U?$CJ@ DB 'KOSDAQ(', 0c1H, 0beH, 0c7H
	DB	0d5H, ')', 00H				; `string'
CONST	ENDS
;	COMDAT ??_C@_0M@DLEHNAKM@KOSPI?$CI?A?$LO?G?U?$CJ@
CONST	SEGMENT
??_C@_0M@DLEHNAKM@KOSPI?$CI?A?$LO?G?U?$CJ@ DB 'KOSPI(', 0c1H, 0beH, 0c7H, 0d5H
	DB	')', 00H					; `string'
CONST	ENDS
;	COMDAT ??_C@_07KDMDENFH@UMASTER@
CONST	SEGMENT
??_C@_07KDMDENFH@UMASTER@ DB 'UMASTER', 00H		; `string'
CONST	ENDS
;	COMDAT ??_C@_08FPNDIEGG@KOSPI200@
CONST	SEGMENT
??_C@_08FPNDIEGG@KOSPI200@ DB 'KOSPI200', 00H		; `string'
CONST	ENDS
;	COMDAT ??_C@_01CLKCMJKC@?5@
CONST	SEGMENT
??_C@_01CLKCMJKC@?5@ DB ' ', 00H			; `string'
CONST	ENDS
;	COMDAT ??_C@_0BB@NJOFBLDN@KRX100?$CI?E?k?G?U?A?v?$LM?v?$CJ@
CONST	SEGMENT
??_C@_0BB@NJOFBLDN@KRX100?$CI?E?k?G?U?A?v?$LM?v?$CJ@ DB 'KRX100(', 0c5H, 0ebH
	DB	0c7H, 0d5H, 0c1H, 0f6H, 0bcH, 0f6H, ')', 00H	; `string'
CONST	ENDS
;	COMDAT ??_C@_0BD@CMCCCNBF@HANAROIGATEMANAGER@
CONST	SEGMENT
??_C@_0BD@CMCCCNBF@HANAROIGATEMANAGER@ DB 'HANAROIGATEMANAGER', 00H ; `string'
CONST	ENDS
_DATA	SEGMENT
?FILE_THEME@@3PBDB DD FLAT:??_C@_0L@NFJHMDFP@THEMCD?4INI@ ; FILE_THEME
_DATA	ENDS
;	COMDAT ??_7CCondTarget@@6B@
CONST	SEGMENT
??_7CCondTarget@@6B@ DD FLAT:??_R4CCondTarget@@6B@	; CCondTarget::`vftable'
	DD	FLAT:??_ECCondTarget@@UAEPAXI@Z
CONST	ENDS
;	COMDAT ??_7?$CMap@HHPAVCGetBackData@@PAV1@@@6B@
CONST	SEGMENT
??_7?$CMap@HHPAVCGetBackData@@PAV1@@@6B@ DD FLAT:??_R4?$CMap@HHPAVCGetBackData@@PAV1@@@6B@ ; CMap<int,int,CGetBackData *,CGetBackData *>::`vftable'
	DD	FLAT:?GetRuntimeClass@CObject@@UBEPAUCRuntimeClass@@XZ
	DD	FLAT:??_E?$CMap@HHPAVCGetBackData@@PAV1@@@UAEPAXI@Z
	DD	FLAT:?Serialize@?$CMap@HHPAVCGetBackData@@PAV1@@@UAEXAAVCArchive@@@Z
	DD	FLAT:?AssertValid@CObject@@UBEXXZ
	DD	FLAT:?Dump@CObject@@UBEXAAVCDumpContext@@@Z
CONST	ENDS
;	COMDAT ??_7CGetBackData@@6B@
CONST	SEGMENT
??_7CGetBackData@@6B@ DD FLAT:??_R4CGetBackData@@6B@	; CGetBackData::`vftable'
	DD	FLAT:??_ECGetBackData@@UAEPAXI@Z
CONST	ENDS
;	COMDAT ??_R1A@?0A@EA@CObject@@8
rdata$r	SEGMENT
??_R1A@?0A@EA@CObject@@8 DD FLAT:??_R0?AVCObject@@@8	; CObject::`RTTI Base Class Descriptor at (0,-1,0,64)'
	DD	00H
	DD	00H
	DD	0ffffffffH
	DD	00H
	DD	040H
	DD	FLAT:??_R3CObject@@8
rdata$r	ENDS
;	COMDAT ??_R2CObject@@8
rdata$r	SEGMENT
??_R2CObject@@8 DD FLAT:??_R1A@?0A@EA@CObject@@8	; CObject::`RTTI Base Class Array'
rdata$r	ENDS
;	COMDAT ??_R3CObject@@8
rdata$r	SEGMENT
??_R3CObject@@8 DD 00H					; CObject::`RTTI Class Hierarchy Descriptor'
	DD	00H
	DD	01H
	DD	FLAT:??_R2CObject@@8
rdata$r	ENDS
;	COMDAT ??_R0?AVCObject@@@8
data$rs	SEGMENT
??_R0?AVCObject@@@8 DD FLAT:??_7type_info@@6B@		; CObject `RTTI Type Descriptor'
	DD	00H
	DB	'.?AVCObject@@', 00H
data$rs	ENDS
;	COMDAT ??_C@_01GBGANLPD@0@
CONST	SEGMENT
??_C@_01GBGANLPD@0@ DB '0', 00H				; `string'
CONST	ENDS
;	COMDAT ??_C@_02EMFKHFLK@?$CFX@
CONST	SEGMENT
??_C@_02EMFKHFLK@?$CFX@ DB '%X', 00H			; `string'
CONST	ENDS
;	COMDAT ??_C@_06NDLAHCHE@?$CFs?$CF08X@
CONST	SEGMENT
??_C@_06NDLAHCHE@?$CFs?$CF08X@ DB '%s%08X', 00H		; `string'
CONST	ENDS
;	COMDAT ??_C@_0P@IDMAJEGN@HANAROPCTRMAIN@
CONST	SEGMENT
??_C@_0P@IDMAJEGN@HANAROPCTRMAIN@ DB 'HANAROPCTRMAIN', 00H ; `string'
CONST	ENDS
;	COMDAT ??_C@_0M@CBBNGGHM@PcTrMng?4dll@
CONST	SEGMENT
??_C@_0M@CBBNGGHM@PcTrMng?4dll@ DB 'PcTrMng.dll', 00H	; `string'
CONST	ENDS
;	COMDAT ??_C@_02DKCKIIND@?$CFs@
CONST	SEGMENT
??_C@_02DKCKIIND@?$CFs@ DB '%s', 00H			; `string'
CONST	ENDS
;	COMDAT ??_C@_01HIHLOKLC@1@
CONST	SEGMENT
??_C@_01HIHLOKLC@1@ DB '1', 00H				; `string'
CONST	ENDS
;	COMDAT ??_C@_00CNPNBAHC@@
CONST	SEGMENT
??_C@_00CNPNBAHC@@ DB 00H				; `string'
CONST	ENDS
;	COMDAT ?_AtlWinModule@ATL@@3VCAtlWinModule@1@A
_DATA	SEGMENT
?_AtlWinModule@ATL@@3VCAtlWinModule@1@A DD 02cH		; ATL::_AtlWinModule
	DB	24 DUP(00H)
	DD	00H
_DATA	ENDS
;	COMDAT xdata$x
xdata$x	SEGMENT
__unwindtable$?CheckTargetResult@CCondTarget@@QAEHV?$CStringT@DV?$StrTraitMFC_DLL@DV?$ChTraitsCRT@D@ATL@@@@@ATL@@@Z DD 0ffffffffH
	DD	FLAT:__unwindfunclet$?CheckTargetResult@CCondTarget@@QAEHV?$CStringT@DV?$StrTraitMFC_DLL@DV?$ChTraitsCRT@D@ATL@@@@@ATL@@@Z$0
	DD	00H
	DD	FLAT:__unwindfunclet$?CheckTargetResult@CCondTarget@@QAEHV?$CStringT@DV?$StrTraitMFC_DLL@DV?$ChTraitsCRT@D@ATL@@@@@ATL@@@Z$1
__ehfuncinfo$?CheckTargetResult@CCondTarget@@QAEHV?$CStringT@DV?$StrTraitMFC_DLL@DV?$ChTraitsCRT@D@ATL@@@@@ATL@@@Z DD 019930522H
	DD	02H
	DD	FLAT:__unwindtable$?CheckTargetResult@CCondTarget@@QAEHV?$CStringT@DV?$StrTraitMFC_DLL@DV?$ChTraitsCRT@D@ATL@@@@@ATL@@@Z
	DD	2 DUP(00H)
	DD	2 DUP(00H)
	DD	00H
	DD	01H
xdata$x	ENDS
;	COMDAT xdata$x
xdata$x	SEGMENT
__ehfuncinfo$?DelSpaceInName@CCondTarget@@QAEXXZ DD 019930522H
	DD	07H
	DD	FLAT:__unwindtable$?DelSpaceInName@CCondTarget@@QAEXXZ
	DD	2 DUP(00H)
	DD	2 DUP(00H)
	DD	00H
	DD	01H
__unwindtable$?DelSpaceInName@CCondTarget@@QAEXXZ DD 0ffffffffH
	DD	FLAT:__unwindfunclet$?DelSpaceInName@CCondTarget@@QAEXXZ$0
	DD	00H
	DD	FLAT:__unwindfunclet$?DelSpaceInName@CCondTarget@@QAEXXZ$1
	DD	00H
	DD	FLAT:__unwindfunclet$?DelSpaceInName@CCondTarget@@QAEXXZ$3
	DD	00H
	DD	FLAT:__unwindfunclet$?DelSpaceInName@CCondTarget@@QAEXXZ$4
	DD	00H
	DD	FLAT:__unwindfunclet$?DelSpaceInName@CCondTarget@@QAEXXZ$6
	DD	00H
	DD	FLAT:__unwindfunclet$?DelSpaceInName@CCondTarget@@QAEXXZ$7
	DD	00H
	DD	FLAT:__unwindfunclet$?DelSpaceInName@CCondTarget@@QAEXXZ$9
xdata$x	ENDS
;	COMDAT xdata$x
xdata$x	SEGMENT
__unwindtable$?GetMarketCode@CCondTarget@@QAE?AV?$CStringT@DV?$StrTraitMFC_DLL@DV?$ChTraitsCRT@D@ATL@@@@@ATL@@V23@0@Z DD 0ffffffffH
	DD	FLAT:__unwindfunclet$?GetMarketCode@CCondTarget@@QAE?AV?$CStringT@DV?$StrTraitMFC_DLL@DV?$ChTraitsCRT@D@ATL@@@@@ATL@@V23@0@Z$0
	DD	00H
	DD	FLAT:__unwindfunclet$?GetMarketCode@CCondTarget@@QAE?AV?$CStringT@DV?$StrTraitMFC_DLL@DV?$ChTraitsCRT@D@ATL@@@@@ATL@@V23@0@Z$1
	DD	01H
	DD	FLAT:__unwindfunclet$?GetMarketCode@CCondTarget@@QAE?AV?$CStringT@DV?$StrTraitMFC_DLL@DV?$ChTraitsCRT@D@ATL@@@@@ATL@@V23@0@Z$2
__ehfuncinfo$?GetMarketCode@CCondTarget@@QAE?AV?$CStringT@DV?$StrTraitMFC_DLL@DV?$ChTraitsCRT@D@ATL@@@@@ATL@@V23@0@Z DD 019930522H
	DD	03H
	DD	FLAT:__unwindtable$?GetMarketCode@CCondTarget@@QAE?AV?$CStringT@DV?$StrTraitMFC_DLL@DV?$ChTraitsCRT@D@ATL@@@@@ATL@@V23@0@Z
	DD	2 DUP(00H)
	DD	2 DUP(00H)
	DD	00H
	DD	01H
xdata$x	ENDS
;	COMDAT xdata$x
xdata$x	SEGMENT
__ehfuncinfo$?GetStockMasterData@CCondTarget@@QAEHAAVCStringArray@@0@Z DD 019930522H
	DD	08H
	DD	FLAT:__unwindtable$?GetStockMasterData@CCondTarget@@QAEHAAVCStringArray@@0@Z
	DD	2 DUP(00H)
	DD	2 DUP(00H)
	DD	00H
	DD	01H
__unwindtable$?GetStockMasterData@CCondTarget@@QAEHAAVCStringArray@@0@Z DD 0ffffffffH
	DD	FLAT:__unwindfunclet$?GetStockMasterData@CCondTarget@@QAEHAAVCStringArray@@0@Z$0
	DD	00H
	DD	FLAT:__unwindfunclet$?GetStockMasterData@CCondTarget@@QAEHAAVCStringArray@@0@Z$1
	DD	01H
	DD	FLAT:__unwindfunclet$?GetStockMasterData@CCondTarget@@QAEHAAVCStringArray@@0@Z$2
	DD	02H
	DD	FLAT:__unwindfunclet$?GetStockMasterData@CCondTarget@@QAEHAAVCStringArray@@0@Z$3
	DD	02H
	DD	FLAT:__unwindfunclet$?GetStockMasterData@CCondTarget@@QAEHAAVCStringArray@@0@Z$5
	DD	02H
	DD	FLAT:__unwindfunclet$?GetStockMasterData@CCondTarget@@QAEHAAVCStringArray@@0@Z$6
	DD	02H
	DD	FLAT:__unwindfunclet$?GetStockMasterData@CCondTarget@@QAEHAAVCStringArray@@0@Z$8
	DD	02H
	DD	FLAT:__unwindfunclet$?GetStockMasterData@CCondTarget@@QAEHAAVCStringArray@@0@Z$9
xdata$x	ENDS
;	COMDAT xdata$x
xdata$x	SEGMENT
__unwindtable$?Parser@CCondTarget@@QAE?AV?$CStringT@DV?$StrTraitMFC_DLL@DV?$ChTraitsCRT@D@ATL@@@@@ATL@@AAV23@V23@@Z DD 0ffffffffH
	DD	FLAT:__unwindfunclet$?Parser@CCondTarget@@QAE?AV?$CStringT@DV?$StrTraitMFC_DLL@DV?$ChTraitsCRT@D@ATL@@@@@ATL@@AAV23@V23@@Z$0
	DD	00H
	DD	FLAT:__unwindfunclet$?Parser@CCondTarget@@QAE?AV?$CStringT@DV?$StrTraitMFC_DLL@DV?$ChTraitsCRT@D@ATL@@@@@ATL@@AAV23@V23@@Z$1
	DD	00H
	DD	FLAT:__unwindfunclet$?Parser@CCondTarget@@QAE?AV?$CStringT@DV?$StrTraitMFC_DLL@DV?$ChTraitsCRT@D@ATL@@@@@ATL@@AAV23@V23@@Z$3
	DD	02H
	DD	FLAT:__unwindfunclet$?Parser@CCondTarget@@QAE?AV?$CStringT@DV?$StrTraitMFC_DLL@DV?$ChTraitsCRT@D@ATL@@@@@ATL@@AAV23@V23@@Z$4
__ehfuncinfo$?Parser@CCondTarget@@QAE?AV?$CStringT@DV?$StrTraitMFC_DLL@DV?$ChTraitsCRT@D@ATL@@@@@ATL@@AAV23@V23@@Z DD 019930522H
	DD	04H
	DD	FLAT:__unwindtable$?Parser@CCondTarget@@QAE?AV?$CStringT@DV?$StrTraitMFC_DLL@DV?$ChTraitsCRT@D@ATL@@@@@ATL@@AAV23@V23@@Z
	DD	2 DUP(00H)
	DD	2 DUP(00H)
	DD	00H
	DD	01H
xdata$x	ENDS
;	COMDAT xdata$x
xdata$x	SEGMENT
__ehfuncinfo$?GetItemCodeFromThemeGroup@CCondTarget@@QAEXAAVCStringArray@@V?$CStringT@DV?$StrTraitMFC_DLL@DV?$ChTraitsCRT@D@ATL@@@@@ATL@@@Z DD 019930522H
	DD	0cH
	DD	FLAT:__unwindtable$?GetItemCodeFromThemeGroup@CCondTarget@@QAEXAAVCStringArray@@V?$CStringT@DV?$StrTraitMFC_DLL@DV?$ChTraitsCRT@D@ATL@@@@@ATL@@@Z
	DD	2 DUP(00H)
	DD	2 DUP(00H)
	DD	00H
	DD	01H
__unwindtable$?GetItemCodeFromThemeGroup@CCondTarget@@QAEXAAVCStringArray@@V?$CStringT@DV?$StrTraitMFC_DLL@DV?$ChTraitsCRT@D@ATL@@@@@ATL@@@Z DD 0ffffffffH
	DD	FLAT:__unwindfunclet$?GetItemCodeFromThemeGroup@CCondTarget@@QAEXAAVCStringArray@@V?$CStringT@DV?$StrTraitMFC_DLL@DV?$ChTraitsCRT@D@ATL@@@@@ATL@@@Z$0
	DD	00H
	DD	FLAT:__unwindfunclet$?GetItemCodeFromThemeGroup@CCondTarget@@QAEXAAVCStringArray@@V?$CStringT@DV?$StrTraitMFC_DLL@DV?$ChTraitsCRT@D@ATL@@@@@ATL@@@Z$1
	DD	01H
	DD	FLAT:__unwindfunclet$?GetItemCodeFromThemeGroup@CCondTarget@@QAEXAAVCStringArray@@V?$CStringT@DV?$StrTraitMFC_DLL@DV?$ChTraitsCRT@D@ATL@@@@@ATL@@@Z$2
	DD	02H
	DD	FLAT:__unwindfunclet$?GetItemCodeFromThemeGroup@CCondTarget@@QAEXAAVCStringArray@@V?$CStringT@DV?$StrTraitMFC_DLL@DV?$ChTraitsCRT@D@ATL@@@@@ATL@@@Z$3
	DD	03H
	DD	FLAT:__unwindfunclet$?GetItemCodeFromThemeGroup@CCondTarget@@QAEXAAVCStringArray@@V?$CStringT@DV?$StrTraitMFC_DLL@DV?$ChTraitsCRT@D@ATL@@@@@ATL@@@Z$4
	DD	04H
	DD	FLAT:__unwindfunclet$?GetItemCodeFromThemeGroup@CCondTarget@@QAEXAAVCStringArray@@V?$CStringT@DV?$StrTraitMFC_DLL@DV?$ChTraitsCRT@D@ATL@@@@@ATL@@@Z$5
	DD	05H
	DD	FLAT:__unwindfunclet$?GetItemCodeFromThemeGroup@CCondTarget@@QAEXAAVCStringArray@@V?$CStringT@DV?$StrTraitMFC_DLL@DV?$ChTraitsCRT@D@ATL@@@@@ATL@@@Z$6
	DD	06H
	DD	FLAT:__unwindfunclet$?GetItemCodeFromThemeGroup@CCondTarget@@QAEXAAVCStringArray@@V?$CStringT@DV?$StrTraitMFC_DLL@DV?$ChTraitsCRT@D@ATL@@@@@ATL@@@Z$9
	DD	07H
	DD	FLAT:__unwindfunclet$?GetItemCodeFromThemeGroup@CCondTarget@@QAEXAAVCStringArray@@V?$CStringT@DV?$StrTraitMFC_DLL@DV?$ChTraitsCRT@D@ATL@@@@@ATL@@@Z$10
	DD	07H
	DD	FLAT:__unwindfunclet$?GetItemCodeFromThemeGroup@CCondTarget@@QAEXAAVCStringArray@@V?$CStringT@DV?$StrTraitMFC_DLL@DV?$ChTraitsCRT@D@ATL@@@@@ATL@@@Z$12
	DD	09H
	DD	FLAT:__unwindfunclet$?GetItemCodeFromThemeGroup@CCondTarget@@QAEXAAVCStringArray@@V?$CStringT@DV?$StrTraitMFC_DLL@DV?$ChTraitsCRT@D@ATL@@@@@ATL@@@Z$13
	DD	06H
	DD	FLAT:__unwindfunclet$?GetItemCodeFromThemeGroup@CCondTarget@@QAEXAAVCStringArray@@V?$CStringT@DV?$StrTraitMFC_DLL@DV?$ChTraitsCRT@D@ATL@@@@@ATL@@@Z$8
xdata$x	ENDS
;	COMDAT xdata$x
xdata$x	SEGMENT
__ehfuncinfo$?GetData_PortItem@CCondTarget@@QAEHAAVCStringArray@@0H@Z DD 019930522H
	DD	07H
	DD	FLAT:__unwindtable$?GetData_PortItem@CCondTarget@@QAEHAAVCStringArray@@0H@Z
	DD	2 DUP(00H)
	DD	2 DUP(00H)
	DD	00H
	DD	01H
__unwindtable$?GetData_PortItem@CCondTarget@@QAEHAAVCStringArray@@0H@Z DD 0ffffffffH
	DD	FLAT:__unwindfunclet$?GetData_PortItem@CCondTarget@@QAEHAAVCStringArray@@0H@Z$0
	DD	00H
	DD	FLAT:__unwindfunclet$?GetData_PortItem@CCondTarget@@QAEHAAVCStringArray@@0H@Z$1
	DD	01H
	DD	FLAT:__unwindfunclet$?GetData_PortItem@CCondTarget@@QAEHAAVCStringArray@@0H@Z$2
	DD	02H
	DD	FLAT:__unwindfunclet$?GetData_PortItem@CCondTarget@@QAEHAAVCStringArray@@0H@Z$3
	DD	03H
	DD	FLAT:__unwindfunclet$?GetData_PortItem@CCondTarget@@QAEHAAVCStringArray@@0H@Z$4
	DD	04H
	DD	FLAT:__unwindfunclet$?GetData_PortItem@CCondTarget@@QAEHAAVCStringArray@@0H@Z$5
	DD	05H
	DD	FLAT:__unwindfunclet$?GetData_PortItem@CCondTarget@@QAEHAAVCStringArray@@0H@Z$6
xdata$x	ENDS
;	COMDAT xdata$x
xdata$x	SEGMENT
__ehfuncinfo$?LoadTdfData@CCondTarget@@QAEXPAVCGetBackData@@@Z DD 019930522H
	DD	022H
	DD	FLAT:__unwindtable$?LoadTdfData@CCondTarget@@QAEXPAVCGetBackData@@@Z
	DD	2 DUP(00H)
	DD	2 DUP(00H)
	DD	00H
	DD	01H
__unwindtable$?LoadTdfData@CCondTarget@@QAEXPAVCGetBackData@@@Z DD 0ffffffffH
	DD	FLAT:__unwindfunclet$?LoadTdfData@CCondTarget@@QAEXPAVCGetBackData@@@Z$0
	DD	00H
	DD	FLAT:__unwindfunclet$?LoadTdfData@CCondTarget@@QAEXPAVCGetBackData@@@Z$1
	DD	01H
	DD	FLAT:__unwindfunclet$?LoadTdfData@CCondTarget@@QAEXPAVCGetBackData@@@Z$2
	DD	02H
	DD	FLAT:__unwindfunclet$?LoadTdfData@CCondTarget@@QAEXPAVCGetBackData@@@Z$3
	DD	02H
	DD	FLAT:__unwindfunclet$?LoadTdfData@CCondTarget@@QAEXPAVCGetBackData@@@Z$4
	DD	04H
	DD	FLAT:__unwindfunclet$?LoadTdfData@CCondTarget@@QAEXPAVCGetBackData@@@Z$5
	DD	05H
	DD	FLAT:__unwindfunclet$?LoadTdfData@CCondTarget@@QAEXPAVCGetBackData@@@Z$6
	DD	06H
	DD	FLAT:__unwindfunclet$?LoadTdfData@CCondTarget@@QAEXPAVCGetBackData@@@Z$7
	DD	05H
	DD	FLAT:__unwindfunclet$?LoadTdfData@CCondTarget@@QAEXPAVCGetBackData@@@Z$9
	DD	08H
	DD	FLAT:__unwindfunclet$?LoadTdfData@CCondTarget@@QAEXPAVCGetBackData@@@Z$10
	DD	05H
	DD	FLAT:__unwindfunclet$?LoadTdfData@CCondTarget@@QAEXPAVCGetBackData@@@Z$12
	DD	0aH
	DD	FLAT:__unwindfunclet$?LoadTdfData@CCondTarget@@QAEXPAVCGetBackData@@@Z$13
	DD	05H
	DD	FLAT:__unwindfunclet$?LoadTdfData@CCondTarget@@QAEXPAVCGetBackData@@@Z$15
	DD	0cH
	DD	FLAT:__unwindfunclet$?LoadTdfData@CCondTarget@@QAEXPAVCGetBackData@@@Z$16
	DD	05H
	DD	FLAT:__unwindfunclet$?LoadTdfData@CCondTarget@@QAEXPAVCGetBackData@@@Z$18
	DD	0eH
	DD	FLAT:__unwindfunclet$?LoadTdfData@CCondTarget@@QAEXPAVCGetBackData@@@Z$19
	DD	05H
	DD	FLAT:__unwindfunclet$?LoadTdfData@CCondTarget@@QAEXPAVCGetBackData@@@Z$21
	DD	010H
	DD	FLAT:__unwindfunclet$?LoadTdfData@CCondTarget@@QAEXPAVCGetBackData@@@Z$22
	DD	05H
	DD	FLAT:__unwindfunclet$?LoadTdfData@CCondTarget@@QAEXPAVCGetBackData@@@Z$24
	DD	012H
	DD	FLAT:__unwindfunclet$?LoadTdfData@CCondTarget@@QAEXPAVCGetBackData@@@Z$25
	DD	05H
	DD	FLAT:__unwindfunclet$?LoadTdfData@CCondTarget@@QAEXPAVCGetBackData@@@Z$27
	DD	014H
	DD	FLAT:__unwindfunclet$?LoadTdfData@CCondTarget@@QAEXPAVCGetBackData@@@Z$28
	DD	05H
	DD	FLAT:__unwindfunclet$?LoadTdfData@CCondTarget@@QAEXPAVCGetBackData@@@Z$30
	DD	016H
	DD	FLAT:__unwindfunclet$?LoadTdfData@CCondTarget@@QAEXPAVCGetBackData@@@Z$31
	DD	05H
	DD	FLAT:__unwindfunclet$?LoadTdfData@CCondTarget@@QAEXPAVCGetBackData@@@Z$33
	DD	018H
	DD	FLAT:__unwindfunclet$?LoadTdfData@CCondTarget@@QAEXPAVCGetBackData@@@Z$34
	DD	05H
	DD	FLAT:__unwindfunclet$?LoadTdfData@CCondTarget@@QAEXPAVCGetBackData@@@Z$36
	DD	01aH
	DD	FLAT:__unwindfunclet$?LoadTdfData@CCondTarget@@QAEXPAVCGetBackData@@@Z$37
	DD	05H
	DD	FLAT:__unwindfunclet$?LoadTdfData@CCondTarget@@QAEXPAVCGetBackData@@@Z$39
	DD	01cH
	DD	FLAT:__unwindfunclet$?LoadTdfData@CCondTarget@@QAEXPAVCGetBackData@@@Z$40
	DD	05H
	DD	FLAT:__unwindfunclet$?LoadTdfData@CCondTarget@@QAEXPAVCGetBackData@@@Z$42
	DD	01eH
	DD	FLAT:__unwindfunclet$?LoadTdfData@CCondTarget@@QAEXPAVCGetBackData@@@Z$43
	DD	05H
	DD	FLAT:__unwindfunclet$?LoadTdfData@CCondTarget@@QAEXPAVCGetBackData@@@Z$45
	DD	020H
	DD	FLAT:__unwindfunclet$?LoadTdfData@CCondTarget@@QAEXPAVCGetBackData@@@Z$46
xdata$x	ENDS
;	COMDAT xdata$x
xdata$x	SEGMENT
__unwindtable$?SetGetBackData@CCondTarget@@QAEPAVCGetBackData@@V?$CStringT@DV?$StrTraitMFC_DLL@DV?$ChTraitsCRT@D@ATL@@@@@ATL@@@Z DD 0ffffffffH
	DD	FLAT:__unwindfunclet$?SetGetBackData@CCondTarget@@QAEPAVCGetBackData@@V?$CStringT@DV?$StrTraitMFC_DLL@DV?$ChTraitsCRT@D@ATL@@@@@ATL@@@Z$0
	DD	00H
	DD	FLAT:__unwindfunclet$?SetGetBackData@CCondTarget@@QAEPAVCGetBackData@@V?$CStringT@DV?$StrTraitMFC_DLL@DV?$ChTraitsCRT@D@ATL@@@@@ATL@@@Z$1
	DD	01H
	DD	FLAT:__unwindfunclet$?SetGetBackData@CCondTarget@@QAEPAVCGetBackData@@V?$CStringT@DV?$StrTraitMFC_DLL@DV?$ChTraitsCRT@D@ATL@@@@@ATL@@@Z$3
	DD	02H
	DD	FLAT:__unwindfunclet$?SetGetBackData@CCondTarget@@QAEPAVCGetBackData@@V?$CStringT@DV?$StrTraitMFC_DLL@DV?$ChTraitsCRT@D@ATL@@@@@ATL@@@Z$4
__ehfuncinfo$?SetGetBackData@CCondTarget@@QAEPAVCGetBackData@@V?$CStringT@DV?$StrTraitMFC_DLL@DV?$ChTraitsCRT@D@ATL@@@@@ATL@@@Z DD 019930522H
	DD	04H
	DD	FLAT:__unwindtable$?SetGetBackData@CCondTarget@@QAEPAVCGetBackData@@V?$CStringT@DV?$StrTraitMFC_DLL@DV?$ChTraitsCRT@D@ATL@@@@@ATL@@@Z
	DD	2 DUP(00H)
	DD	2 DUP(00H)
	DD	00H
	DD	01H
xdata$x	ENDS
;	COMDAT xdata$x
xdata$x	SEGMENT
__unwindtable$??_G?$CMap@HHPAVCGetBackData@@PAV1@@@UAEPAXI@Z DD 0ffffffffH
	DD	FLAT:___std_terminate
__ehfuncinfo$??_G?$CMap@HHPAVCGetBackData@@PAV1@@@UAEPAXI@Z DD 019930522H
	DD	01H
	DD	FLAT:__unwindtable$??_G?$CMap@HHPAVCGetBackData@@PAV1@@@UAEPAXI@Z
	DD	2 DUP(00H)
	DD	2 DUP(00H)
	DD	00H
	DD	05H
xdata$x	ENDS
;	COMDAT xdata$x
xdata$x	SEGMENT
__ehfuncinfo$??1?$CMap@HHPAVCGetBackData@@PAV1@@@UAE@XZ DD 019930522H
	DD	00H
	DD	00H
	DD	2 DUP(00H)
	DD	2 DUP(00H)
	DD	00H
	DD	05H
xdata$x	ENDS
;	COMDAT xdata$x
xdata$x	SEGMENT
__ehfuncinfo$?SetEditSubjectTarGetBit@CCondTarget@@QAEXXZ DD 019930522H
	DD	07H
	DD	FLAT:__unwindtable$?SetEditSubjectTarGetBit@CCondTarget@@QAEXXZ
	DD	2 DUP(00H)
	DD	2 DUP(00H)
	DD	00H
	DD	01H
__unwindtable$?SetEditSubjectTarGetBit@CCondTarget@@QAEXXZ DD 0ffffffffH
	DD	FLAT:__unwindfunclet$?SetEditSubjectTarGetBit@CCondTarget@@QAEXXZ$0
	DD	00H
	DD	FLAT:__unwindfunclet$?SetEditSubjectTarGetBit@CCondTarget@@QAEXXZ$1
	DD	01H
	DD	FLAT:__unwindfunclet$?SetEditSubjectTarGetBit@CCondTarget@@QAEXXZ$2
	DD	02H
	DD	FLAT:__unwindfunclet$?SetEditSubjectTarGetBit@CCondTarget@@QAEXXZ$4
	DD	03H
	DD	FLAT:__unwindfunclet$?SetEditSubjectTarGetBit@CCondTarget@@QAEXXZ$5
	DD	04H
	DD	FLAT:__unwindfunclet$?SetEditSubjectTarGetBit@CCondTarget@@QAEXXZ$6
	DD	05H
	DD	FLAT:__unwindfunclet$?SetEditSubjectTarGetBit@CCondTarget@@QAEXXZ$7
xdata$x	ENDS
;	COMDAT xdata$x
xdata$x	SEGMENT
__unwindtable$?ReceiveData@CCondTarget@@QAEXPAXJ@Z DD 0ffffffffH
	DD	FLAT:__unwindfunclet$?ReceiveData@CCondTarget@@QAEXPAXJ@Z$0
	DD	00H
	DD	FLAT:__unwindfunclet$?ReceiveData@CCondTarget@@QAEXPAXJ@Z$1
	DD	01H
	DD	FLAT:__unwindfunclet$?ReceiveData@CCondTarget@@QAEXPAXJ@Z$2
__ehfuncinfo$?ReceiveData@CCondTarget@@QAEXPAXJ@Z DD 019930522H
	DD	03H
	DD	FLAT:__unwindtable$?ReceiveData@CCondTarget@@QAEXPAXJ@Z
	DD	2 DUP(00H)
	DD	2 DUP(00H)
	DD	00H
	DD	01H
xdata$x	ENDS
;	COMDAT xdata$x
xdata$x	SEGMENT
__unwindtable$??1CCondTarget@@UAE@XZ DD 0ffffffffH
	DD	FLAT:___std_terminate
__ehfuncinfo$??1CCondTarget@@UAE@XZ DD 019930522H
	DD	01H
	DD	FLAT:__unwindtable$??1CCondTarget@@UAE@XZ
	DD	2 DUP(00H)
	DD	2 DUP(00H)
	DD	00H
	DD	05H
xdata$x	ENDS
;	COMDAT xdata$x
xdata$x	SEGMENT
__ehfuncinfo$??0CCondTarget@@QAE@XZ DD 019930522H
	DD	017H
	DD	FLAT:__unwindtable$??0CCondTarget@@QAE@XZ
	DD	2 DUP(00H)
	DD	2 DUP(00H)
	DD	00H
	DD	01H
__unwindtable$??0CCondTarget@@QAE@XZ DD 0ffffffffH
	DD	FLAT:__unwindfunclet$??0CCondTarget@@QAE@XZ$0
	DD	00H
	DD	FLAT:__unwindfunclet$??0CCondTarget@@QAE@XZ$1
	DD	01H
	DD	FLAT:__unwindfunclet$??0CCondTarget@@QAE@XZ$2
	DD	02H
	DD	FLAT:__unwindfunclet$??0CCondTarget@@QAE@XZ$3
	DD	03H
	DD	FLAT:__unwindfunclet$??0CCondTarget@@QAE@XZ$4
	DD	04H
	DD	FLAT:__unwindfunclet$??0CCondTarget@@QAE@XZ$5
	DD	05H
	DD	FLAT:__unwindfunclet$??0CCondTarget@@QAE@XZ$6
	DD	06H
	DD	FLAT:__unwindfunclet$??0CCondTarget@@QAE@XZ$7
	DD	07H
	DD	FLAT:__unwindfunclet$??0CCondTarget@@QAE@XZ$8
	DD	08H
	DD	FLAT:__unwindfunclet$??0CCondTarget@@QAE@XZ$9
	DD	09H
	DD	FLAT:__unwindfunclet$??0CCondTarget@@QAE@XZ$10
	DD	0aH
	DD	FLAT:__unwindfunclet$??0CCondTarget@@QAE@XZ$11
	DD	0bH
	DD	FLAT:__unwindfunclet$??0CCondTarget@@QAE@XZ$12
	DD	0cH
	DD	FLAT:__unwindfunclet$??0CCondTarget@@QAE@XZ$13
	DD	0dH
	DD	FLAT:__unwindfunclet$??0CCondTarget@@QAE@XZ$14
	DD	0eH
	DD	FLAT:__unwindfunclet$??0CCondTarget@@QAE@XZ$15
	DD	0fH
	DD	FLAT:__unwindfunclet$??0CCondTarget@@QAE@XZ$16
	DD	010H
	DD	FLAT:__unwindfunclet$??0CCondTarget@@QAE@XZ$17
	DD	010H
	DD	FLAT:__unwindfunclet$??0CCondTarget@@QAE@XZ$22
	DD	010H
	DD	FLAT:__unwindfunclet$??0CCondTarget@@QAE@XZ$18
	DD	010H
	DD	FLAT:__unwindfunclet$??0CCondTarget@@QAE@XZ$19
	DD	010H
	DD	FLAT:__unwindfunclet$??0CCondTarget@@QAE@XZ$20
	DD	010H
	DD	FLAT:__unwindfunclet$??0CCondTarget@@QAE@XZ$21
xdata$x	ENDS
;	COMDAT xdata$x
xdata$x	SEGMENT
__unwindtable$??0CGetBackData@@QAE@V?$CStringT@DV?$StrTraitMFC_DLL@DV?$ChTraitsCRT@D@ATL@@@@@ATL@@H@Z DD 0ffffffffH
	DD	FLAT:__unwindfunclet$??0CGetBackData@@QAE@V?$CStringT@DV?$StrTraitMFC_DLL@DV?$ChTraitsCRT@D@ATL@@@@@ATL@@H@Z$0
	DD	00H
	DD	FLAT:__unwindfunclet$??0CGetBackData@@QAE@V?$CStringT@DV?$StrTraitMFC_DLL@DV?$ChTraitsCRT@D@ATL@@@@@ATL@@H@Z$1
__ehfuncinfo$??0CGetBackData@@QAE@V?$CStringT@DV?$StrTraitMFC_DLL@DV?$ChTraitsCRT@D@ATL@@@@@ATL@@H@Z DD 019930522H
	DD	02H
	DD	FLAT:__unwindtable$??0CGetBackData@@QAE@V?$CStringT@DV?$StrTraitMFC_DLL@DV?$ChTraitsCRT@D@ATL@@@@@ATL@@H@Z
	DD	2 DUP(00H)
	DD	2 DUP(00H)
	DD	00H
	DD	01H
xdata$x	ENDS
;	COMDAT xdata$x
xdata$x	SEGMENT
__ehfuncinfo$??_Estringdispid@CComTypeInfoHolder@ATL@@QAEPAXI@Z DD 019930522H
	DD	00H
	DD	00H
	DD	2 DUP(00H)
	DD	2 DUP(00H)
	DD	00H
	DD	05H
xdata$x	ENDS
;	COMDAT xdata$x
xdata$x	SEGMENT
__unwindtable$?AfxGetPctrInterface@@YGJH@Z DD 0ffffffffH
	DD	FLAT:__unwindfunclet$?AfxGetPctrInterface@@YGJH@Z$0
__ehfuncinfo$?AfxGetPctrInterface@@YGJH@Z DD 019930522H
	DD	01H
	DD	FLAT:__unwindtable$?AfxGetPctrInterface@@YGJH@Z
	DD	2 DUP(00H)
	DD	2 DUP(00H)
	DD	00H
	DD	01H
xdata$x	ENDS
CRT$XCU	SEGMENT
?RMSG_INTERFACE$initializer$@@3P6AXXZA DD FLAT:??__ERMSG_INTERFACE@@YAXXZ ; RMSG_INTERFACE$initializer$
CRT$XCU	ENDS
CRT$XCU	SEGMENT
?RMSG_REPLAY_REAL$initializer$@@3P6AXXZA DD FLAT:??__ERMSG_REPLAY_REAL@@YAXXZ ; RMSG_REPLAY_REAL$initializer$
CRT$XCU	ENDS
CRT$XCU	SEGMENT
?RMSG_REPLAY_FAIL$initializer$@@3P6AXXZA DD FLAT:??__ERMSG_REPLAY_FAIL@@YAXXZ ; RMSG_REPLAY_FAIL$initializer$
CRT$XCU	ENDS
CRT$XCU	SEGMENT
?RMSG_REPLAY_CHANGE_DATE$initializer$@@3P6AXXZA DD FLAT:??__ERMSG_REPLAY_CHANGE_DATE@@YAXXZ ; RMSG_REPLAY_CHANGE_DATE$initializer$
CRT$XCU	ENDS
CRT$XCU	SEGMENT
?RMSG_REPLAY_END$initializer$@@3P6AXXZA DD FLAT:??__ERMSG_REPLAY_END@@YAXXZ ; RMSG_REPLAY_END$initializer$
CRT$XCU	ENDS
CRT$XCU	SEGMENT
?RMSG_REPLAY_INC_SEC$initializer$@@3P6AXXZA DD FLAT:??__ERMSG_REPLAY_INC_SEC@@YAXXZ ; RMSG_REPLAY_INC_SEC$initializer$
CRT$XCU	ENDS
CRT$XCU	SEGMENT
?RMSG_REPLAY_TOTAL_SEC$initializer$@@3P6AXXZA DD FLAT:??__ERMSG_REPLAY_TOTAL_SEC@@YAXXZ ; RMSG_REPLAY_TOTAL_SEC$initializer$
CRT$XCU	ENDS
CRT$XCU	SEGMENT
?RMSG_GETSIGNAL_REAL$initializer$@@3P6AXXZA DD FLAT:??__ERMSG_GETSIGNAL_REAL@@YAXXZ ; RMSG_GETSIGNAL_REAL$initializer$
CRT$XCU	ENDS
CRT$XCU	SEGMENT
?RMSG_SETQUERYOPT$initializer$@@3P6AXXZA DD FLAT:??__ERMSG_SETQUERYOPT@@YAXXZ ; RMSG_SETQUERYOPT$initializer$
CRT$XCU	ENDS
CRT$XCU	SEGMENT
?RMSG_CHARTMAIN$initializer$@@3P6AXXZA DD FLAT:??__ERMSG_CHARTMAIN@@YAXXZ ; RMSG_CHARTMAIN$initializer$
CRT$XCU	ENDS
CRT$XCU	SEGMENT
?RMS_ANALYSIS_FUNC$initializer$@@3P6AXXZA DD FLAT:??__ERMS_ANALYSIS_FUNC@@YAXXZ ; RMS_ANALYSIS_FUNC$initializer$
CRT$XCU	ENDS
CRT$XCU	SEGMENT
?RMSG_GET_USERID$initializer$@@3P6AXXZA DD FLAT:??__ERMSG_GET_USERID@@YAXXZ ; RMSG_GET_USERID$initializer$
CRT$XCU	ENDS
CRT$XCU	SEGMENT
?RMSG_CHANGE_SKINCOLOR$initializer$@@3P6AXXZA DD FLAT:??__ERMSG_CHANGE_SKINCOLOR@@YAXXZ ; RMSG_CHANGE_SKINCOLOR$initializer$
CRT$XCU	ENDS
CRT$XCU	SEGMENT
?RMSG_GET_SKINCOLOR$initializer$@@3P6AXXZA DD FLAT:??__ERMSG_GET_SKINCOLOR@@YAXXZ ; RMSG_GET_SKINCOLOR$initializer$
CRT$XCU	ENDS
CRT$XCU	SEGMENT
?RMSG_CHANGEVERTSCALETYPE$initializer$@@3P6AXXZA DD FLAT:??__ERMSG_CHANGEVERTSCALETYPE@@YAXXZ ; RMSG_CHANGEVERTSCALETYPE$initializer$
CRT$XCU	ENDS
CRT$XCU	SEGMENT
?RMSG_CHANGE_CROSSLINE$initializer$@@3P6AXXZA DD FLAT:??__ERMSG_CHANGE_CROSSLINE@@YAXXZ ; RMSG_CHANGE_CROSSLINE$initializer$
CRT$XCU	ENDS
CRT$XCU	SEGMENT
?RMSG_ADD_PLATFORM_MENU$initializer$@@3P6AXXZA DD FLAT:??__ERMSG_ADD_PLATFORM_MENU@@YAXXZ ; RMSG_ADD_PLATFORM_MENU$initializer$
CRT$XCU	ENDS
CRT$XCU	SEGMENT
?RMSG_SETINITIALCHARTDATA$initializer$@@3P6AXXZA DD FLAT:??__ERMSG_SETINITIALCHARTDATA@@YAXXZ ; RMSG_SETINITIALCHARTDATA$initializer$
CRT$XCU	ENDS
CRT$XCU	SEGMENT
?RMSG_GETINFO$initializer$@@3P6AXXZA DD FLAT:??__ERMSG_GETINFO@@YAXXZ ; RMSG_GETINFO$initializer$
CRT$XCU	ENDS
CRT$XCU	SEGMENT
?RMSG_SETINFO$initializer$@@3P6AXXZA DD FLAT:??__ERMSG_SETINFO@@YAXXZ ; RMSG_SETINFO$initializer$
CRT$XCU	ENDS
; Function compile flags: /Ogtp
; File C:\Program Files (x86)\Microsoft Visual Studio\2019\Community\VC\Tools\MSVC\14.29.30133\atlmfc\include\afxtempl.h
; File C:\Program Files (x86)\Microsoft Visual Studio\2019\Community\VC\Tools\MSVC\14.29.30133\atlmfc\include\afx.inl
; File C:\Program Files (x86)\Microsoft Visual Studio\2019\Community\VC\Tools\MSVC\14.29.30133\atlmfc\include\afxtempl.h
; File C:\Program Files (x86)\Microsoft Visual Studio\2019\Community\VC\Tools\MSVC\14.29.30133\atlmfc\include\afx.inl
; File C:\Program Files (x86)\Microsoft Visual Studio\2019\Community\VC\Tools\MSVC\14.29.30133\atlmfc\include\afxtempl.h
; File C:\Program Files (x86)\Microsoft Visual Studio\2019\Community\VC\Tools\MSVC\14.29.30133\atlmfc\include\afx.inl
; File C:\Program Files (x86)\Microsoft Visual Studio\2019\Community\VC\Tools\MSVC\14.29.30133\atlmfc\include\afxtempl.h
;	COMDAT ??$SerializeElements@PAVCGetBackData@@@@YGXAAVCArchive@@PAPAVCGetBackData@@H@Z
_TEXT	SEGMENT
_ar$ = 8						; size = 4
_pElements$ = 12					; size = 4
_nCount$ = 16						; size = 4
??$SerializeElements@PAVCGetBackData@@@@YGXAAVCArchive@@PAPAVCGetBackData@@H@Z PROC ; SerializeElements<CGetBackData *>, COMDAT

; 67   : {

  00000	55		 push	 ebp
  00001	8b ec		 mov	 ebp, esp

; 68   : 	ENSURE(nCount == 0 || pElements != NULL);

  00003	8b 4d 0c	 mov	 ecx, DWORD PTR _pElements$[ebp]
  00006	53		 push	 ebx
  00007	56		 push	 esi
  00008	8b 75 10	 mov	 esi, DWORD PTR _nCount$[ebp]
  0000b	57		 push	 edi
  0000c	85 f6		 test	 esi, esi
  0000e	74 08		 je	 SHORT $LN2@SerializeE
  00010	85 c9		 test	 ecx, ecx
  00012	0f 84 89 00 00
	00		 je	 $LN34@SerializeE
$LN2@SerializeE:
; File C:\Program Files (x86)\Microsoft Visual Studio\2019\Community\VC\Tools\MSVC\14.29.30133\atlmfc\include\afx.inl

; 212  : 	{ return (m_nMode & CArchive::load) == 0; }

  00018	8b 55 08	 mov	 edx, DWORD PTR _ar$[ebp]
  0001b	8b 42 18	 mov	 eax, DWORD PTR [edx+24]
  0001e	f7 d0		 not	 eax
  00020	a8 01		 test	 al, 1
; File C:\Program Files (x86)\Microsoft Visual Studio\2019\Community\VC\Tools\MSVC\14.29.30133\atlmfc\include\afxtempl.h

; 73   : 	if (ar.IsStoring())

  00022	74 3c		 je	 SHORT $LN10@SerializeE

; 74   : 	{
; 75   : 		TYPE* pData;
; 76   : 		UINT_PTR nElementsLeft;
; 77   : 
; 78   : 		nElementsLeft = nCount;
; 79   : 		pData = pElements;
; 80   : 		while( nElementsLeft > 0 )

  00024	85 f6		 test	 esi, esi
  00026	74 31		 je	 SHORT $LN8@SerializeE
  00028	0f 1f 84 00 00
	00 00 00	 npad	 8
$LL5@SerializeE:

; 81   : 		{
; 82   : 			UINT nElementsToWrite;
; 83   : 
; 84   : 			nElementsToWrite = UINT(__min(nElementsLeft, INT_MAX/sizeof(TYPE)));

  00030	bb ff ff ff 1f	 mov	 ebx, 536870911		; 1fffffffH
  00035	3b f3		 cmp	 esi, ebx
  00037	0f 42 de	 cmovb	 ebx, esi

; 85   : 			ar.Write(pData, nElementsToWrite*sizeof(TYPE));

  0003a	8d 3c 9d 00 00
	00 00		 lea	 edi, DWORD PTR [ebx*4]
  00041	57		 push	 edi
  00042	51		 push	 ecx
  00043	8b ca		 mov	 ecx, edx
  00045	e8 00 00 00 00	 call	 ?Write@CArchive@@QAEXPBXI@Z ; CArchive::Write

; 86   : 			nElementsLeft -= nElementsToWrite;
; 87   : 			pData += nElementsToWrite;

  0004a	8b 4d 0c	 mov	 ecx, DWORD PTR _pElements$[ebp]
  0004d	8b 55 08	 mov	 edx, DWORD PTR _ar$[ebp]
  00050	03 cf		 add	 ecx, edi
  00052	89 4d 0c	 mov	 DWORD PTR _pElements$[ebp], ecx
  00055	2b f3		 sub	 esi, ebx
  00057	75 d7		 jne	 SHORT $LL5@SerializeE
$LN8@SerializeE:
  00059	5f		 pop	 edi

; 105  : 		}
; 106  : 	}
; 107  : }

  0005a	5e		 pop	 esi
  0005b	5b		 pop	 ebx
  0005c	5d		 pop	 ebp
  0005d	c2 0c 00	 ret	 12			; 0000000cH
$LN10@SerializeE:

; 97   : 		while( nElementsLeft > 0 )

  00060	85 f6		 test	 esi, esi
  00062	74 f5		 je	 SHORT $LN8@SerializeE
$LL7@SerializeE:

; 98   : 		{
; 99   : 			UINT nElementsToRead;
; 100  : 
; 101  : 			nElementsToRead = UINT(__min(nElementsLeft, INT_MAX/sizeof(TYPE)));

  00064	bf ff ff ff 1f	 mov	 edi, 536870911		; 1fffffffH
  00069	3b f7		 cmp	 esi, edi
  0006b	0f 42 fe	 cmovb	 edi, esi

; 102  : 			ar.EnsureRead(pData, nElementsToRead*sizeof(TYPE));

  0006e	8d 1c bd 00 00
	00 00		 lea	 ebx, DWORD PTR [edi*4]
; File C:\Program Files (x86)\Microsoft Visual Studio\2019\Community\VC\Tools\MSVC\14.29.30133\atlmfc\include\afx.inl

; 399  : 	UINT nRead=Read(lpBuf, nCount);

  00075	53		 push	 ebx
  00076	51		 push	 ecx
  00077	8b ca		 mov	 ecx, edx
  00079	e8 00 00 00 00	 call	 ?Read@CArchive@@QAEIPAXI@Z ; CArchive::Read

; 400  : 	if(nRead!=nCount)

  0007e	3b c3		 cmp	 eax, ebx
  00080	75 16		 jne	 SHORT $LN23@SerializeE
; File C:\Program Files (x86)\Microsoft Visual Studio\2019\Community\VC\Tools\MSVC\14.29.30133\atlmfc\include\afxtempl.h

; 97   : 		while( nElementsLeft > 0 )

  00082	8b 4d 0c	 mov	 ecx, DWORD PTR _pElements$[ebp]
  00085	8b 55 08	 mov	 edx, DWORD PTR _ar$[ebp]

; 103  : 			nElementsLeft -= nElementsToRead;
; 104  : 			pData += nElementsToRead;

  00088	03 cb		 add	 ecx, ebx
  0008a	89 4d 0c	 mov	 DWORD PTR _pElements$[ebp], ecx
  0008d	2b f7		 sub	 esi, edi
  0008f	75 d3		 jne	 SHORT $LL7@SerializeE

; 105  : 		}
; 106  : 	}
; 107  : }

  00091	5f		 pop	 edi
  00092	5e		 pop	 esi
  00093	5b		 pop	 ebx
  00094	5d		 pop	 ebp
  00095	c2 0c 00	 ret	 12			; 0000000cH
$LN23@SerializeE:
; File C:\Program Files (x86)\Microsoft Visual Studio\2019\Community\VC\Tools\MSVC\14.29.30133\atlmfc\include\afx.inl

; 402  : 		AfxThrowArchiveException(CArchiveException::endOfFile);

  00098	6a 00		 push	 0
  0009a	6a 03		 push	 3
  0009c	e8 00 00 00 00	 call	 ?AfxThrowArchiveException@@YGXHPBD@Z ; AfxThrowArchiveException
$LN34@SerializeE:
; File C:\Program Files (x86)\Microsoft Visual Studio\2019\Community\VC\Tools\MSVC\14.29.30133\atlmfc\include\afxtempl.h

; 68   : 	ENSURE(nCount == 0 || pElements != NULL);

  000a1	e8 00 00 00 00	 call	 ?AfxThrowInvalidArgException@@YGXXZ ; AfxThrowInvalidArgException
$LN32@SerializeE:
  000a6	cc		 int	 3
??$SerializeElements@PAVCGetBackData@@@@YGXAAVCArchive@@PAPAVCGetBackData@@H@Z ENDP ; SerializeElements<CGetBackData *>
_TEXT	ENDS
; Function compile flags: /Ogtp
; File C:\Program Files (x86)\Microsoft Visual Studio\2019\Community\VC\Tools\MSVC\14.29.30133\atlmfc\include\afxtempl.h
;	COMDAT ??$CompareElements@HH@@YGHPBH0@Z
_TEXT	SEGMENT
_pElement1$ = 8						; size = 4
_pElement2$ = 12					; size = 4
??$CompareElements@HH@@YGHPBH0@Z PROC			; CompareElements<int,int>, COMDAT

; 151  : {

  00000	55		 push	 ebp
  00001	8b ec		 mov	 ebp, esp

; 152  : 	ENSURE(pElement1 != NULL && pElement2 != NULL);

  00003	8b 4d 08	 mov	 ecx, DWORD PTR _pElement1$[ebp]
  00006	85 c9		 test	 ecx, ecx
  00008	74 14		 je	 SHORT $LN7@CompareEle
  0000a	8b 55 0c	 mov	 edx, DWORD PTR _pElement2$[ebp]
  0000d	85 d2		 test	 edx, edx
  0000f	74 0d		 je	 SHORT $LN7@CompareEle

; 153  : 	ASSERT(AfxIsValidAddress(pElement1, sizeof(TYPE), FALSE));
; 154  : 	ASSERT(AfxIsValidAddress(pElement2, sizeof(ARG_TYPE), FALSE));
; 155  : 
; 156  : 	return *pElement1 == *pElement2;

  00011	8b 09		 mov	 ecx, DWORD PTR [ecx]
  00013	33 c0		 xor	 eax, eax
  00015	3b 0a		 cmp	 ecx, DWORD PTR [edx]
  00017	0f 94 c0	 sete	 al

; 157  : }

  0001a	5d		 pop	 ebp
  0001b	c2 08 00	 ret	 8
$LN7@CompareEle:

; 152  : 	ENSURE(pElement1 != NULL && pElement2 != NULL);

  0001e	e8 00 00 00 00	 call	 ?AfxThrowInvalidArgException@@YGXXZ ; AfxThrowInvalidArgException
$LN10@CompareEle:
  00023	cc		 int	 3
??$CompareElements@HH@@YGHPBH0@Z ENDP			; CompareElements<int,int>
_TEXT	ENDS
; Function compile flags: /Ogtp
; File C:\Program Files (x86)\Microsoft Visual Studio\2019\Community\VC\Tools\MSVC\14.29.30133\atlmfc\include\afxtempl.h
; File C:\Program Files (x86)\Microsoft Visual Studio\2019\Community\VC\Tools\MSVC\14.29.30133\atlmfc\include\afx.inl
; File C:\Program Files (x86)\Microsoft Visual Studio\2019\Community\VC\Tools\MSVC\14.29.30133\atlmfc\include\afxtempl.h
; File C:\Program Files (x86)\Microsoft Visual Studio\2019\Community\VC\Tools\MSVC\14.29.30133\atlmfc\include\afx.inl
; File C:\Program Files (x86)\Microsoft Visual Studio\2019\Community\VC\Tools\MSVC\14.29.30133\atlmfc\include\afxtempl.h
; File C:\Program Files (x86)\Microsoft Visual Studio\2019\Community\VC\Tools\MSVC\14.29.30133\atlmfc\include\afx.inl
; File C:\Program Files (x86)\Microsoft Visual Studio\2019\Community\VC\Tools\MSVC\14.29.30133\atlmfc\include\afxtempl.h
;	COMDAT ??$SerializeElements@H@@YGXAAVCArchive@@PAHH@Z
_TEXT	SEGMENT
_ar$ = 8						; size = 4
_pElements$ = 12					; size = 4
_nCount$ = 16						; size = 4
??$SerializeElements@H@@YGXAAVCArchive@@PAHH@Z PROC	; SerializeElements<int>, COMDAT

; 67   : {

  00000	55		 push	 ebp
  00001	8b ec		 mov	 ebp, esp

; 68   : 	ENSURE(nCount == 0 || pElements != NULL);

  00003	8b 4d 0c	 mov	 ecx, DWORD PTR _pElements$[ebp]
  00006	53		 push	 ebx
  00007	56		 push	 esi
  00008	8b 75 10	 mov	 esi, DWORD PTR _nCount$[ebp]
  0000b	57		 push	 edi
  0000c	85 f6		 test	 esi, esi
  0000e	74 08		 je	 SHORT $LN2@SerializeE
  00010	85 c9		 test	 ecx, ecx
  00012	0f 84 89 00 00
	00		 je	 $LN34@SerializeE
$LN2@SerializeE:
; File C:\Program Files (x86)\Microsoft Visual Studio\2019\Community\VC\Tools\MSVC\14.29.30133\atlmfc\include\afx.inl

; 212  : 	{ return (m_nMode & CArchive::load) == 0; }

  00018	8b 55 08	 mov	 edx, DWORD PTR _ar$[ebp]
  0001b	8b 42 18	 mov	 eax, DWORD PTR [edx+24]
  0001e	f7 d0		 not	 eax
  00020	a8 01		 test	 al, 1
; File C:\Program Files (x86)\Microsoft Visual Studio\2019\Community\VC\Tools\MSVC\14.29.30133\atlmfc\include\afxtempl.h

; 73   : 	if (ar.IsStoring())

  00022	74 3c		 je	 SHORT $LN10@SerializeE

; 74   : 	{
; 75   : 		TYPE* pData;
; 76   : 		UINT_PTR nElementsLeft;
; 77   : 
; 78   : 		nElementsLeft = nCount;
; 79   : 		pData = pElements;
; 80   : 		while( nElementsLeft > 0 )

  00024	85 f6		 test	 esi, esi
  00026	74 31		 je	 SHORT $LN8@SerializeE
  00028	0f 1f 84 00 00
	00 00 00	 npad	 8
$LL5@SerializeE:

; 81   : 		{
; 82   : 			UINT nElementsToWrite;
; 83   : 
; 84   : 			nElementsToWrite = UINT(__min(nElementsLeft, INT_MAX/sizeof(TYPE)));

  00030	bb ff ff ff 1f	 mov	 ebx, 536870911		; 1fffffffH
  00035	3b f3		 cmp	 esi, ebx
  00037	0f 42 de	 cmovb	 ebx, esi

; 85   : 			ar.Write(pData, nElementsToWrite*sizeof(TYPE));

  0003a	8d 3c 9d 00 00
	00 00		 lea	 edi, DWORD PTR [ebx*4]
  00041	57		 push	 edi
  00042	51		 push	 ecx
  00043	8b ca		 mov	 ecx, edx
  00045	e8 00 00 00 00	 call	 ?Write@CArchive@@QAEXPBXI@Z ; CArchive::Write

; 86   : 			nElementsLeft -= nElementsToWrite;
; 87   : 			pData += nElementsToWrite;

  0004a	8b 4d 0c	 mov	 ecx, DWORD PTR _pElements$[ebp]
  0004d	8b 55 08	 mov	 edx, DWORD PTR _ar$[ebp]
  00050	03 cf		 add	 ecx, edi
  00052	89 4d 0c	 mov	 DWORD PTR _pElements$[ebp], ecx
  00055	2b f3		 sub	 esi, ebx
  00057	75 d7		 jne	 SHORT $LL5@SerializeE
$LN8@SerializeE:
  00059	5f		 pop	 edi

; 105  : 		}
; 106  : 	}
; 107  : }

  0005a	5e		 pop	 esi
  0005b	5b		 pop	 ebx
  0005c	5d		 pop	 ebp
  0005d	c2 0c 00	 ret	 12			; 0000000cH
$LN10@SerializeE:

; 97   : 		while( nElementsLeft > 0 )

  00060	85 f6		 test	 esi, esi
  00062	74 f5		 je	 SHORT $LN8@SerializeE
$LL7@SerializeE:

; 98   : 		{
; 99   : 			UINT nElementsToRead;
; 100  : 
; 101  : 			nElementsToRead = UINT(__min(nElementsLeft, INT_MAX/sizeof(TYPE)));

  00064	bf ff ff ff 1f	 mov	 edi, 536870911		; 1fffffffH
  00069	3b f7		 cmp	 esi, edi
  0006b	0f 42 fe	 cmovb	 edi, esi

; 102  : 			ar.EnsureRead(pData, nElementsToRead*sizeof(TYPE));

  0006e	8d 1c bd 00 00
	00 00		 lea	 ebx, DWORD PTR [edi*4]
; File C:\Program Files (x86)\Microsoft Visual Studio\2019\Community\VC\Tools\MSVC\14.29.30133\atlmfc\include\afx.inl

; 399  : 	UINT nRead=Read(lpBuf, nCount);

  00075	53		 push	 ebx
  00076	51		 push	 ecx
  00077	8b ca		 mov	 ecx, edx
  00079	e8 00 00 00 00	 call	 ?Read@CArchive@@QAEIPAXI@Z ; CArchive::Read

; 400  : 	if(nRead!=nCount)

  0007e	3b c3		 cmp	 eax, ebx
  00080	75 16		 jne	 SHORT $LN23@SerializeE
; File C:\Program Files (x86)\Microsoft Visual Studio\2019\Community\VC\Tools\MSVC\14.29.30133\atlmfc\include\afxtempl.h

; 97   : 		while( nElementsLeft > 0 )

  00082	8b 4d 0c	 mov	 ecx, DWORD PTR _pElements$[ebp]
  00085	8b 55 08	 mov	 edx, DWORD PTR _ar$[ebp]

; 103  : 			nElementsLeft -= nElementsToRead;
; 104  : 			pData += nElementsToRead;

  00088	03 cb		 add	 ecx, ebx
  0008a	89 4d 0c	 mov	 DWORD PTR _pElements$[ebp], ecx
  0008d	2b f7		 sub	 esi, edi
  0008f	75 d3		 jne	 SHORT $LL7@SerializeE

; 105  : 		}
; 106  : 	}
; 107  : }

  00091	5f		 pop	 edi
  00092	5e		 pop	 esi
  00093	5b		 pop	 ebx
  00094	5d		 pop	 ebp
  00095	c2 0c 00	 ret	 12			; 0000000cH
$LN23@SerializeE:
; File C:\Program Files (x86)\Microsoft Visual Studio\2019\Community\VC\Tools\MSVC\14.29.30133\atlmfc\include\afx.inl

; 402  : 		AfxThrowArchiveException(CArchiveException::endOfFile);

  00098	6a 00		 push	 0
  0009a	6a 03		 push	 3
  0009c	e8 00 00 00 00	 call	 ?AfxThrowArchiveException@@YGXHPBD@Z ; AfxThrowArchiveException
$LN34@SerializeE:
; File C:\Program Files (x86)\Microsoft Visual Studio\2019\Community\VC\Tools\MSVC\14.29.30133\atlmfc\include\afxtempl.h

; 68   : 	ENSURE(nCount == 0 || pElements != NULL);

  000a1	e8 00 00 00 00	 call	 ?AfxThrowInvalidArgException@@YGXXZ ; AfxThrowInvalidArgException
$LN32@SerializeE:
  000a6	cc		 int	 3
??$SerializeElements@H@@YGXAAVCArchive@@PAHH@Z ENDP	; SerializeElements<int>
_TEXT	ENDS
; Function compile flags: /Ogtp
;	COMDAT ??_GCCondTarget@@UAEPAXI@Z
_TEXT	SEGMENT
___flags$ = 8						; size = 4
??_GCCondTarget@@UAEPAXI@Z PROC				; CCondTarget::`scalar deleting destructor', COMDAT
; _this$ = ecx
  00000	55		 push	 ebp
  00001	8b ec		 mov	 ebp, esp
  00003	56		 push	 esi
  00004	8b f1		 mov	 esi, ecx
  00006	e8 00 00 00 00	 call	 ??1CCondTarget@@UAE@XZ	; CCondTarget::~CCondTarget
  0000b	f6 45 08 01	 test	 BYTE PTR ___flags$[ebp], 1
  0000f	74 0e		 je	 SHORT $LN4@scalar
  00011	68 f4 01 00 00	 push	 500			; 000001f4H
  00016	56		 push	 esi
  00017	e8 00 00 00 00	 call	 ??3@YAXPAXI@Z		; operator delete
  0001c	83 c4 08	 add	 esp, 8
$LN4@scalar:
  0001f	8b c6		 mov	 eax, esi
  00021	5e		 pop	 esi
  00022	5d		 pop	 ebp
  00023	c2 04 00	 ret	 4
??_GCCondTarget@@UAEPAXI@Z ENDP				; CCondTarget::`scalar deleting destructor'
_TEXT	ENDS
; Function compile flags: /Ogtp
; File D:\git\src\IBK\IBK_DRFN\ProjSrc\SrcDrfn\Chart\MULTICHART\CondTarget.cpp
; File C:\Program Files (x86)\Microsoft Visual Studio\2019\Community\VC\Tools\MSVC\14.29.30133\atlmfc\include\afxcoll.inl
; File D:\git\src\IBK\IBK_DRFN\ProjSrc\SrcDrfn\Chart\MULTICHART\CondTarget.cpp
; File C:\Program Files (x86)\Microsoft Visual Studio\2019\Community\VC\Tools\MSVC\14.29.30133\atlmfc\include\afxcoll.inl
; File D:\git\src\IBK\IBK_DRFN\ProjSrc\SrcDrfn\Chart\MULTICHART\CondTarget.cpp
; File C:\Program Files (x86)\Microsoft Visual Studio\2019\Community\VC\Tools\MSVC\14.29.30133\atlmfc\include\afxcoll.inl
; File D:\git\src\IBK\IBK_DRFN\ProjSrc\SrcDrfn\Chart\MULTICHART\CondTarget.cpp
;	COMDAT ?CheckTargetResult@CCondTarget@@QAEHV?$CStringT@DV?$StrTraitMFC_DLL@DV?$ChTraitsCRT@D@ATL@@@@@ATL@@@Z
_TEXT	SEGMENT
_strRet$ = -16						; size = 4
__$EHRec$ = -12						; size = 12
_strCode$ = 8						; size = 4
?CheckTargetResult@CCondTarget@@QAEHV?$CStringT@DV?$StrTraitMFC_DLL@DV?$ChTraitsCRT@D@ATL@@@@@ATL@@@Z PROC ; CCondTarget::CheckTargetResult, COMDAT
; _this$ = ecx

; 432  : {

  00000	55		 push	 ebp
  00001	8b ec		 mov	 ebp, esp
  00003	6a ff		 push	 -1
  00005	68 00 00 00 00	 push	 __ehhandler$?CheckTargetResult@CCondTarget@@QAEHV?$CStringT@DV?$StrTraitMFC_DLL@DV?$ChTraitsCRT@D@ATL@@@@@ATL@@@Z
  0000a	64 a1 00 00 00
	00		 mov	 eax, DWORD PTR fs:0
  00010	50		 push	 eax
  00011	51		 push	 ecx
  00012	53		 push	 ebx
  00013	56		 push	 esi
  00014	57		 push	 edi
  00015	a1 00 00 00 00	 mov	 eax, DWORD PTR ___security_cookie
  0001a	33 c5		 xor	 eax, ebp
  0001c	50		 push	 eax
  0001d	8d 45 f4	 lea	 eax, DWORD PTR __$EHRec$[ebp]
  00020	64 a3 00 00 00
	00		 mov	 DWORD PTR fs:0, eax
  00026	8b f9		 mov	 edi, ecx

; 433  : 	CString strRet;

  00028	8d 4d f0	 lea	 ecx, DWORD PTR _strRet$[ebp]
  0002b	c7 45 fc 00 00
	00 00		 mov	 DWORD PTR __$EHRec$[ebp+8], 0
  00032	ff 15 00 00 00
	00		 call	 DWORD PTR __imp_??0?$CStringT@DV?$StrTraitMFC_DLL@DV?$ChTraitsCRT@D@ATL@@@@@ATL@@QAE@XZ

; 434  : 	int nSize = m_arTargetResult.GetSize();

  00038	8b 5f 78	 mov	 ebx, DWORD PTR [edi+120]

; 435  : 	for (int i=0; i<nSize; i++)

  0003b	33 f6		 xor	 esi, esi
  0003d	c6 45 fc 01	 mov	 BYTE PTR __$EHRec$[ebp+8], 1
  00041	85 db		 test	 ebx, ebx
  00043	7e 2e		 jle	 SHORT $LN3@CheckTarge
$LL4@CheckTarge:
; File C:\Program Files (x86)\Microsoft Visual Studio\2019\Community\VC\Tools\MSVC\14.29.30133\atlmfc\include\afxcoll.inl

; 289  : 		if( nIndex < 0 || nIndex >= m_nSize )

  00045	85 f6		 test	 esi, esi
  00047	78 5b		 js	 SHORT $LN12@CheckTarge
  00049	3b 77 78	 cmp	 esi, DWORD PTR [edi+120]
  0004c	7d 56		 jge	 SHORT $LN12@CheckTarge

; 291  : 		return m_pData[nIndex]; }

  0004e	8b 47 74	 mov	 eax, DWORD PTR [edi+116]
; File D:\git\src\IBK\IBK_DRFN\ProjSrc\SrcDrfn\Chart\MULTICHART\CondTarget.cpp

; 437  : 		strRet = m_arTargetResult.GetAt(i);

  00051	8d 4d f0	 lea	 ecx, DWORD PTR _strRet$[ebp]
; File C:\Program Files (x86)\Microsoft Visual Studio\2019\Community\VC\Tools\MSVC\14.29.30133\atlmfc\include\afxcoll.inl

; 291  : 		return m_pData[nIndex]; }

  00054	8d 04 b0	 lea	 eax, DWORD PTR [eax+esi*4]
; File D:\git\src\IBK\IBK_DRFN\ProjSrc\SrcDrfn\Chart\MULTICHART\CondTarget.cpp

; 437  : 		strRet = m_arTargetResult.GetAt(i);

  00057	50		 push	 eax
  00058	ff 15 00 00 00
	00		 call	 DWORD PTR __imp_??4?$CStringT@DV?$StrTraitMFC_DLL@DV?$ChTraitsCRT@D@ATL@@@@@ATL@@QAEAAV01@ABV01@@Z

; 438  : 		if (strRet.CompareNoCase(strCode) == 0)

  0005e	ff 75 08	 push	 DWORD PTR _strCode$[ebp]
  00061	8d 4d f0	 lea	 ecx, DWORD PTR _strRet$[ebp]
  00064	ff 15 00 00 00
	00		 call	 DWORD PTR __imp_?CompareNoCase@?$CStringT@DV?$StrTraitMFC_DLL@DV?$ChTraitsCRT@D@ATL@@@@@ATL@@QBEHPBD@Z
  0006a	85 c0		 test	 eax, eax
  0006c	74 2f		 je	 SHORT $LN19@CheckTarge

; 435  : 	for (int i=0; i<nSize; i++)

  0006e	46		 inc	 esi
  0006f	3b f3		 cmp	 esi, ebx
  00071	7c d2		 jl	 SHORT $LL4@CheckTarge
$LN3@CheckTarge:

; 439  : 			return TRUE;
; 440  : 	}
; 441  : 
; 442  : 	return FALSE;

  00073	33 f6		 xor	 esi, esi
$LN9@CheckTarge:
  00075	8d 4d f0	 lea	 ecx, DWORD PTR _strRet$[ebp]
  00078	ff 15 00 00 00
	00		 call	 DWORD PTR __imp_??1?$CStringT@DV?$StrTraitMFC_DLL@DV?$ChTraitsCRT@D@ATL@@@@@ATL@@QAE@XZ
  0007e	8d 4d 08	 lea	 ecx, DWORD PTR _strCode$[ebp]
  00081	ff 15 00 00 00
	00		 call	 DWORD PTR __imp_??1?$CStringT@DV?$StrTraitMFC_DLL@DV?$ChTraitsCRT@D@ATL@@@@@ATL@@QAE@XZ
  00087	8b c6		 mov	 eax, esi

; 443  : }

  00089	8b 4d f4	 mov	 ecx, DWORD PTR __$EHRec$[ebp]
  0008c	64 89 0d 00 00
	00 00		 mov	 DWORD PTR fs:0, ecx
  00093	59		 pop	 ecx
  00094	5f		 pop	 edi
  00095	5e		 pop	 esi
  00096	5b		 pop	 ebx
  00097	8b e5		 mov	 esp, ebp
  00099	5d		 pop	 ebp
  0009a	c2 04 00	 ret	 4
$LN19@CheckTarge:
  0009d	be 01 00 00 00	 mov	 esi, 1
  000a2	eb d1		 jmp	 SHORT $LN9@CheckTarge
$LN12@CheckTarge:
; File C:\Program Files (x86)\Microsoft Visual Studio\2019\Community\VC\Tools\MSVC\14.29.30133\atlmfc\include\afxcoll.inl

; 290  : 			AfxThrowInvalidArgException();

  000a4	e8 00 00 00 00	 call	 ?AfxThrowInvalidArgException@@YGXXZ ; AfxThrowInvalidArgException
$LN24@CheckTarge:
  000a9	cc		 int	 3
_TEXT	ENDS
;	COMDAT text$x
text$x	SEGMENT
__unwindfunclet$?CheckTargetResult@CCondTarget@@QAEHV?$CStringT@DV?$StrTraitMFC_DLL@DV?$ChTraitsCRT@D@ATL@@@@@ATL@@@Z$0:
  00000	8d 4d 08	 lea	 ecx, DWORD PTR _strCode$[ebp]
  00003	ff 25 00 00 00
	00		 jmp	 DWORD PTR __imp_??1?$CStringT@DV?$StrTraitMFC_DLL@DV?$ChTraitsCRT@D@ATL@@@@@ATL@@QAE@XZ
__unwindfunclet$?CheckTargetResult@CCondTarget@@QAEHV?$CStringT@DV?$StrTraitMFC_DLL@DV?$ChTraitsCRT@D@ATL@@@@@ATL@@@Z$1:
  00009	8d 4d f0	 lea	 ecx, DWORD PTR _strRet$[ebp]
  0000c	ff 25 00 00 00
	00		 jmp	 DWORD PTR __imp_??1?$CStringT@DV?$StrTraitMFC_DLL@DV?$ChTraitsCRT@D@ATL@@@@@ATL@@QAE@XZ
  00012	cc		 int	 3
  00013	cc		 int	 3
  00014	cc		 int	 3
  00015	cc		 int	 3
  00016	cc		 int	 3
__ehhandler$?CheckTargetResult@CCondTarget@@QAEHV?$CStringT@DV?$StrTraitMFC_DLL@DV?$ChTraitsCRT@D@ATL@@@@@ATL@@@Z:
  00017	90		 npad	 1
  00018	90		 npad	 1
  00019	8b 54 24 08	 mov	 edx, DWORD PTR [esp+8]
  0001d	8d 42 0c	 lea	 eax, DWORD PTR [edx+12]
  00020	8b 4a ec	 mov	 ecx, DWORD PTR [edx-20]
  00023	33 c8		 xor	 ecx, eax
  00025	e8 00 00 00 00	 call	 @__security_check_cookie@4
  0002a	b8 00 00 00 00	 mov	 eax, OFFSET __ehfuncinfo$?CheckTargetResult@CCondTarget@@QAEHV?$CStringT@DV?$StrTraitMFC_DLL@DV?$ChTraitsCRT@D@ATL@@@@@ATL@@@Z
  0002f	e9 00 00 00 00	 jmp	 ___CxxFrameHandler3
text$x	ENDS
?CheckTargetResult@CCondTarget@@QAEHV?$CStringT@DV?$StrTraitMFC_DLL@DV?$ChTraitsCRT@D@ATL@@@@@ATL@@@Z ENDP ; CCondTarget::CheckTargetResult
; Function compile flags: /Ogtp
; File D:\git\src\IBK\IBK_DRFN\ProjSrc\SrcDrfn\Chart\MULTICHART\CondTarget.cpp
; File C:\Program Files (x86)\Microsoft Visual Studio\2019\Community\VC\Tools\MSVC\14.29.30133\atlmfc\include\afxcoll.inl
; File D:\git\src\IBK\IBK_DRFN\ProjSrc\SrcDrfn\Chart\MULTICHART\CondTarget.cpp
; File C:\Program Files (x86)\Microsoft Visual Studio\2019\Community\VC\Tools\MSVC\14.29.30133\atlmfc\include\afxcoll.inl
; File D:\git\src\IBK\IBK_DRFN\ProjSrc\SrcDrfn\Chart\MULTICHART\CondTarget.cpp
; File C:\Program Files (x86)\Microsoft Visual Studio\2019\Community\VC\Tools\MSVC\14.29.30133\atlmfc\include\afxcoll.inl
; File D:\git\src\IBK\IBK_DRFN\ProjSrc\SrcDrfn\Chart\MULTICHART\CondTarget.cpp
; File C:\Program Files (x86)\Microsoft Visual Studio\2019\Community\VC\Tools\MSVC\14.29.30133\atlmfc\include\afxcoll.inl
; File D:\git\src\IBK\IBK_DRFN\ProjSrc\SrcDrfn\Chart\MULTICHART\CondTarget.cpp
; File C:\Program Files (x86)\Microsoft Visual Studio\2019\Community\VC\Tools\MSVC\14.29.30133\atlmfc\include\afxcoll.inl
; File D:\git\src\IBK\IBK_DRFN\ProjSrc\SrcDrfn\Chart\MULTICHART\CondTarget.cpp
;	COMDAT ?DelSpaceInName@CCondTarget@@QAEXXZ
_TEXT	SEGMENT
$T2 = -28						; size = 4
$T3 = -28						; size = 4
$T4 = -24						; size = 4
_nSize$2$ = -20						; size = 4
_nSize$1$ = -20						; size = 4
$T5 = -20						; size = 4
$T6 = -20						; size = 4
$T7 = -20						; size = 4
_strName$ = -16						; size = 4
__$EHRec$ = -12						; size = 12
?DelSpaceInName@CCondTarget@@QAEXXZ PROC		; CCondTarget::DelSpaceInName, COMDAT
; _this$ = ecx

; 98   : {

  00000	55		 push	 ebp
  00001	8b ec		 mov	 ebp, esp
  00003	6a ff		 push	 -1
  00005	68 00 00 00 00	 push	 __ehhandler$?DelSpaceInName@CCondTarget@@QAEXXZ
  0000a	64 a1 00 00 00
	00		 mov	 eax, DWORD PTR fs:0
  00010	50		 push	 eax
  00011	83 ec 10	 sub	 esp, 16			; 00000010H
  00014	53		 push	 ebx
  00015	56		 push	 esi
  00016	57		 push	 edi
  00017	a1 00 00 00 00	 mov	 eax, DWORD PTR ___security_cookie
  0001c	33 c5		 xor	 eax, ebp
  0001e	50		 push	 eax
  0001f	8d 45 f4	 lea	 eax, DWORD PTR __$EHRec$[ebp]
  00022	64 a3 00 00 00
	00		 mov	 DWORD PTR fs:0, eax
  00028	8b f1		 mov	 esi, ecx

; 99   : 	CString strName;

  0002a	8d 4d f0	 lea	 ecx, DWORD PTR _strName$[ebp]
  0002d	ff 15 00 00 00
	00		 call	 DWORD PTR __imp_??0?$CStringT@DV?$StrTraitMFC_DLL@DV?$ChTraitsCRT@D@ATL@@@@@ATL@@QAE@XZ

; 100  : 	int nSize, i;
; 101  : 	nSize = m_arrKSPName.GetSize();

  00033	8b 46 24	 mov	 eax, DWORD PTR [esi+36]

; 102  : 	for (i=0; i<nSize; i++)

  00036	33 ff		 xor	 edi, edi
  00038	c7 45 fc 00 00
	00 00		 mov	 DWORD PTR __$EHRec$[ebp+8], 0
  0003f	89 45 ec	 mov	 DWORD PTR _nSize$1$[ebp], eax
  00042	85 c0		 test	 eax, eax
  00044	7e 58		 jle	 SHORT $LN3@DelSpaceIn
$LL4@DelSpaceIn:
; File C:\Program Files (x86)\Microsoft Visual Studio\2019\Community\VC\Tools\MSVC\14.29.30133\atlmfc\include\afxcoll.inl

; 289  : 		if( nIndex < 0 || nIndex >= m_nSize )

  00046	85 ff		 test	 edi, edi
  00048	0f 88 b8 01 00
	00		 js	 $LN30@DelSpaceIn
  0004e	3b 7e 24	 cmp	 edi, DWORD PTR [esi+36]
  00051	0f 8d af 01 00
	00		 jge	 $LN30@DelSpaceIn

; 291  : 		return m_pData[nIndex]; }

  00057	8b 46 20	 mov	 eax, DWORD PTR [esi+32]
  0005a	8d 1c bd 00 00
	00 00		 lea	 ebx, DWORD PTR [edi*4]
  00061	03 c3		 add	 eax, ebx
; File D:\git\src\IBK\IBK_DRFN\ProjSrc\SrcDrfn\Chart\MULTICHART\CondTarget.cpp

; 104  : 		strName = m_arrKSPName.GetAt(i);

  00063	8d 4d f0	 lea	 ecx, DWORD PTR _strName$[ebp]
  00066	50		 push	 eax
  00067	ff 15 00 00 00
	00		 call	 DWORD PTR __imp_??4?$CStringT@DV?$StrTraitMFC_DLL@DV?$ChTraitsCRT@D@ATL@@@@@ATL@@QAEAAV01@ABV01@@Z

; 105  : 		strName.Replace(" ", "");

  0006d	68 00 00 00 00	 push	 OFFSET ??_C@_00CNPNBAHC@@
  00072	68 00 00 00 00	 push	 OFFSET ??_C@_01CLKCMJKC@?5@
  00077	8d 4d f0	 lea	 ecx, DWORD PTR _strName$[ebp]
  0007a	ff 15 00 00 00
	00		 call	 DWORD PTR __imp_?Replace@?$CStringT@DV?$StrTraitMFC_DLL@DV?$ChTraitsCRT@D@ATL@@@@@ATL@@QAEHPBD0@Z
; File C:\Program Files (x86)\Microsoft Visual Studio\2019\Community\VC\Tools\MSVC\14.29.30133\atlmfc\include\afxcoll.inl

; 300  : 		if( nIndex < 0 || nIndex >= m_nSize )

  00080	3b 7e 24	 cmp	 edi, DWORD PTR [esi+36]
  00083	0f 8d 7d 01 00
	00		 jge	 $LN30@DelSpaceIn

; 301  : 			AfxThrowInvalidArgException();
; 302  : 		m_pData[nIndex] = newElement; }

  00089	8b 4e 20	 mov	 ecx, DWORD PTR [esi+32]
  0008c	8d 45 f0	 lea	 eax, DWORD PTR _strName$[ebp]
  0008f	50		 push	 eax
  00090	03 cb		 add	 ecx, ebx
  00092	ff 15 00 00 00
	00		 call	 DWORD PTR __imp_??4?$CStringT@DV?$StrTraitMFC_DLL@DV?$ChTraitsCRT@D@ATL@@@@@ATL@@QAEAAV01@ABV01@@Z
; File D:\git\src\IBK\IBK_DRFN\ProjSrc\SrcDrfn\Chart\MULTICHART\CondTarget.cpp

; 102  : 	for (i=0; i<nSize; i++)

  00098	47		 inc	 edi
  00099	3b 7d ec	 cmp	 edi, DWORD PTR _nSize$1$[ebp]
  0009c	7c a8		 jl	 SHORT $LL4@DelSpaceIn
$LN3@DelSpaceIn:

; 106  : 
; 107  : 		m_arrKSPName.SetAt(i, strName);
; 108  : 	}
; 109  : 
; 110  : 	nSize = m_arrKSQName.GetSize();

  0009e	8b 46 4c	 mov	 eax, DWORD PTR [esi+76]

; 111  : 	for (i=0; i<nSize; i++)

  000a1	33 ff		 xor	 edi, edi
  000a3	89 45 ec	 mov	 DWORD PTR _nSize$2$[ebp], eax
  000a6	85 c0		 test	 eax, eax
  000a8	7e 5e		 jle	 SHORT $LN6@DelSpaceIn
  000aa	66 0f 1f 44 00
	00		 npad	 6
$LL7@DelSpaceIn:
; File C:\Program Files (x86)\Microsoft Visual Studio\2019\Community\VC\Tools\MSVC\14.29.30133\atlmfc\include\afxcoll.inl

; 289  : 		if( nIndex < 0 || nIndex >= m_nSize )

  000b0	85 ff		 test	 edi, edi
  000b2	0f 88 4e 01 00
	00		 js	 $LN30@DelSpaceIn
  000b8	3b 7e 4c	 cmp	 edi, DWORD PTR [esi+76]
  000bb	0f 8d 45 01 00
	00		 jge	 $LN30@DelSpaceIn

; 291  : 		return m_pData[nIndex]; }

  000c1	8b 46 48	 mov	 eax, DWORD PTR [esi+72]
  000c4	8d 1c bd 00 00
	00 00		 lea	 ebx, DWORD PTR [edi*4]
  000cb	03 c3		 add	 eax, ebx
; File D:\git\src\IBK\IBK_DRFN\ProjSrc\SrcDrfn\Chart\MULTICHART\CondTarget.cpp

; 113  : 		strName = m_arrKSQName.GetAt(i);

  000cd	8d 4d f0	 lea	 ecx, DWORD PTR _strName$[ebp]
  000d0	50		 push	 eax
  000d1	ff 15 00 00 00
	00		 call	 DWORD PTR __imp_??4?$CStringT@DV?$StrTraitMFC_DLL@DV?$ChTraitsCRT@D@ATL@@@@@ATL@@QAEAAV01@ABV01@@Z

; 114  : 		strName.Replace(" ", "");

  000d7	68 00 00 00 00	 push	 OFFSET ??_C@_00CNPNBAHC@@
  000dc	68 00 00 00 00	 push	 OFFSET ??_C@_01CLKCMJKC@?5@
  000e1	8d 4d f0	 lea	 ecx, DWORD PTR _strName$[ebp]
  000e4	ff 15 00 00 00
	00		 call	 DWORD PTR __imp_?Replace@?$CStringT@DV?$StrTraitMFC_DLL@DV?$ChTraitsCRT@D@ATL@@@@@ATL@@QAEHPBD0@Z
; File C:\Program Files (x86)\Microsoft Visual Studio\2019\Community\VC\Tools\MSVC\14.29.30133\atlmfc\include\afxcoll.inl

; 300  : 		if( nIndex < 0 || nIndex >= m_nSize )

  000ea	3b 7e 4c	 cmp	 edi, DWORD PTR [esi+76]
  000ed	0f 8d 13 01 00
	00		 jge	 $LN30@DelSpaceIn

; 301  : 			AfxThrowInvalidArgException();
; 302  : 		m_pData[nIndex] = newElement; }

  000f3	8b 4e 48	 mov	 ecx, DWORD PTR [esi+72]
  000f6	8d 45 f0	 lea	 eax, DWORD PTR _strName$[ebp]
  000f9	50		 push	 eax
  000fa	03 cb		 add	 ecx, ebx
  000fc	ff 15 00 00 00
	00		 call	 DWORD PTR __imp_??4?$CStringT@DV?$StrTraitMFC_DLL@DV?$ChTraitsCRT@D@ATL@@@@@ATL@@QAEAAV01@ABV01@@Z
; File D:\git\src\IBK\IBK_DRFN\ProjSrc\SrcDrfn\Chart\MULTICHART\CondTarget.cpp

; 111  : 	for (i=0; i<nSize; i++)

  00102	47		 inc	 edi
  00103	3b 7d ec	 cmp	 edi, DWORD PTR _nSize$2$[ebp]
  00106	7c a8		 jl	 SHORT $LL7@DelSpaceIn
$LN6@DelSpaceIn:

; 115  : 
; 116  : 		m_arrKSQName.SetAt(i, strName);
; 117  : 	}
; 118  : 
; 119  : 	m_strKSP200Code = GetMarketCode("UMASTER", "KOSPI200");

  00108	51		 push	 ecx
  00109	8b cc		 mov	 ecx, esp
  0010b	89 65 e8	 mov	 DWORD PTR $T4[ebp], esp
  0010e	68 00 00 00 00	 push	 OFFSET ??_C@_08FPNDIEGG@KOSPI200@
  00113	ff 15 00 00 00
	00		 call	 DWORD PTR __imp_??0?$CStringT@DV?$StrTraitMFC_DLL@DV?$ChTraitsCRT@D@ATL@@@@@ATL@@QAE@PBD@Z
  00119	51		 push	 ecx
  0011a	8b cc		 mov	 ecx, esp
  0011c	c6 45 fc 01	 mov	 BYTE PTR __$EHRec$[ebp+8], 1
  00120	68 00 00 00 00	 push	 OFFSET ??_C@_07KDMDENFH@UMASTER@
  00125	ff 15 00 00 00
	00		 call	 DWORD PTR __imp_??0?$CStringT@DV?$StrTraitMFC_DLL@DV?$ChTraitsCRT@D@ATL@@@@@ATL@@QAE@PBD@Z
  0012b	8d 45 ec	 lea	 eax, DWORD PTR $T7[ebp]
  0012e	c6 45 fc 00	 mov	 BYTE PTR __$EHRec$[ebp+8], 0
  00132	50		 push	 eax
  00133	8b ce		 mov	 ecx, esi
  00135	e8 00 00 00 00	 call	 ?GetMarketCode@CCondTarget@@QAE?AV?$CStringT@DV?$StrTraitMFC_DLL@DV?$ChTraitsCRT@D@ATL@@@@@ATL@@V23@0@Z ; CCondTarget::GetMarketCode
  0013a	50		 push	 eax
  0013b	8d 4e 10	 lea	 ecx, DWORD PTR [esi+16]
  0013e	c6 45 fc 02	 mov	 BYTE PTR __$EHRec$[ebp+8], 2
  00142	ff 15 00 00 00
	00		 call	 DWORD PTR __imp_??4?$CStringT@DV?$StrTraitMFC_DLL@DV?$ChTraitsCRT@D@ATL@@@@@ATL@@QAEAAV01@ABV01@@Z
  00148	8d 4d ec	 lea	 ecx, DWORD PTR $T7[ebp]
  0014b	c6 45 fc 00	 mov	 BYTE PTR __$EHRec$[ebp+8], 0
  0014f	ff 15 00 00 00
	00		 call	 DWORD PTR __imp_??1?$CStringT@DV?$StrTraitMFC_DLL@DV?$ChTraitsCRT@D@ATL@@@@@ATL@@QAE@XZ

; 120  : 	m_strKSPCode = GetMarketCode("UMASTER", "KOSPI()");

  00155	51		 push	 ecx
  00156	8b cc		 mov	 ecx, esp
  00158	89 65 e4	 mov	 DWORD PTR $T3[ebp], esp
  0015b	68 00 00 00 00	 push	 OFFSET ??_C@_0M@DLEHNAKM@KOSPI?$CI?A?$LO?G?U?$CJ@
  00160	ff 15 00 00 00
	00		 call	 DWORD PTR __imp_??0?$CStringT@DV?$StrTraitMFC_DLL@DV?$ChTraitsCRT@D@ATL@@@@@ATL@@QAE@PBD@Z
  00166	51		 push	 ecx
  00167	8b cc		 mov	 ecx, esp
  00169	c6 45 fc 03	 mov	 BYTE PTR __$EHRec$[ebp+8], 3
  0016d	68 00 00 00 00	 push	 OFFSET ??_C@_07KDMDENFH@UMASTER@
  00172	ff 15 00 00 00
	00		 call	 DWORD PTR __imp_??0?$CStringT@DV?$StrTraitMFC_DLL@DV?$ChTraitsCRT@D@ATL@@@@@ATL@@QAE@PBD@Z
  00178	8d 45 ec	 lea	 eax, DWORD PTR $T6[ebp]
  0017b	c6 45 fc 00	 mov	 BYTE PTR __$EHRec$[ebp+8], 0
  0017f	50		 push	 eax
  00180	8b ce		 mov	 ecx, esi
  00182	e8 00 00 00 00	 call	 ?GetMarketCode@CCondTarget@@QAE?AV?$CStringT@DV?$StrTraitMFC_DLL@DV?$ChTraitsCRT@D@ATL@@@@@ATL@@V23@0@Z ; CCondTarget::GetMarketCode
  00187	50		 push	 eax
  00188	8d 4e 14	 lea	 ecx, DWORD PTR [esi+20]
  0018b	c6 45 fc 04	 mov	 BYTE PTR __$EHRec$[ebp+8], 4
  0018f	ff 15 00 00 00
	00		 call	 DWORD PTR __imp_??4?$CStringT@DV?$StrTraitMFC_DLL@DV?$ChTraitsCRT@D@ATL@@@@@ATL@@QAEAAV01@ABV01@@Z
  00195	8d 4d ec	 lea	 ecx, DWORD PTR $T6[ebp]
  00198	c6 45 fc 00	 mov	 BYTE PTR __$EHRec$[ebp+8], 0
  0019c	ff 15 00 00 00
	00		 call	 DWORD PTR __imp_??1?$CStringT@DV?$StrTraitMFC_DLL@DV?$ChTraitsCRT@D@ATL@@@@@ATL@@QAE@XZ

; 121  : 	m_strKSQCode = GetMarketCode("KUMASTER", "KOSDAQ()");

  001a2	51		 push	 ecx
  001a3	8b cc		 mov	 ecx, esp
  001a5	89 65 e4	 mov	 DWORD PTR $T2[ebp], esp
  001a8	68 00 00 00 00	 push	 OFFSET ??_C@_0N@GDNPPFAH@KOSDAQ?$CI?A?$LO?G?U?$CJ@
  001ad	ff 15 00 00 00
	00		 call	 DWORD PTR __imp_??0?$CStringT@DV?$StrTraitMFC_DLL@DV?$ChTraitsCRT@D@ATL@@@@@ATL@@QAE@PBD@Z
  001b3	51		 push	 ecx
  001b4	8b cc		 mov	 ecx, esp
  001b6	c6 45 fc 05	 mov	 BYTE PTR __$EHRec$[ebp+8], 5
  001ba	68 00 00 00 00	 push	 OFFSET ??_C@_08HMCPBLEK@KUMASTER@
  001bf	ff 15 00 00 00
	00		 call	 DWORD PTR __imp_??0?$CStringT@DV?$StrTraitMFC_DLL@DV?$ChTraitsCRT@D@ATL@@@@@ATL@@QAE@PBD@Z
  001c5	8d 45 ec	 lea	 eax, DWORD PTR $T5[ebp]
  001c8	c6 45 fc 00	 mov	 BYTE PTR __$EHRec$[ebp+8], 0
  001cc	50		 push	 eax
  001cd	8b ce		 mov	 ecx, esi
  001cf	e8 00 00 00 00	 call	 ?GetMarketCode@CCondTarget@@QAE?AV?$CStringT@DV?$StrTraitMFC_DLL@DV?$ChTraitsCRT@D@ATL@@@@@ATL@@V23@0@Z ; CCondTarget::GetMarketCode
  001d4	50		 push	 eax
  001d5	8d 4e 18	 lea	 ecx, DWORD PTR [esi+24]
  001d8	c6 45 fc 06	 mov	 BYTE PTR __$EHRec$[ebp+8], 6
  001dc	ff 15 00 00 00
	00		 call	 DWORD PTR __imp_??4?$CStringT@DV?$StrTraitMFC_DLL@DV?$ChTraitsCRT@D@ATL@@@@@ATL@@QAEAAV01@ABV01@@Z
  001e2	8d 4d ec	 lea	 ecx, DWORD PTR $T5[ebp]
  001e5	ff 15 00 00 00
	00		 call	 DWORD PTR __imp_??1?$CStringT@DV?$StrTraitMFC_DLL@DV?$ChTraitsCRT@D@ATL@@@@@ATL@@QAE@XZ

; 122  : }

  001eb	8d 4d f0	 lea	 ecx, DWORD PTR _strName$[ebp]
  001ee	ff 15 00 00 00
	00		 call	 DWORD PTR __imp_??1?$CStringT@DV?$StrTraitMFC_DLL@DV?$ChTraitsCRT@D@ATL@@@@@ATL@@QAE@XZ
  001f4	8b 4d f4	 mov	 ecx, DWORD PTR __$EHRec$[ebp]
  001f7	64 89 0d 00 00
	00 00		 mov	 DWORD PTR fs:0, ecx
  001fe	59		 pop	 ecx
  001ff	5f		 pop	 edi
  00200	5e		 pop	 esi
  00201	5b		 pop	 ebx
  00202	8b e5		 mov	 esp, ebp
  00204	5d		 pop	 ebp
  00205	c3		 ret	 0
$LN30@DelSpaceIn:
; File C:\Program Files (x86)\Microsoft Visual Studio\2019\Community\VC\Tools\MSVC\14.29.30133\atlmfc\include\afxcoll.inl

; 290  : 			AfxThrowInvalidArgException();

  00206	e8 00 00 00 00	 call	 ?AfxThrowInvalidArgException@@YGXXZ ; AfxThrowInvalidArgException
$LN49@DelSpaceIn:
  0020b	cc		 int	 3
_TEXT	ENDS
;	COMDAT text$x
text$x	SEGMENT
__unwindfunclet$?DelSpaceInName@CCondTarget@@QAEXXZ$0:
  00000	8d 4d f0	 lea	 ecx, DWORD PTR _strName$[ebp]
  00003	ff 25 00 00 00
	00		 jmp	 DWORD PTR __imp_??1?$CStringT@DV?$StrTraitMFC_DLL@DV?$ChTraitsCRT@D@ATL@@@@@ATL@@QAE@XZ
__unwindfunclet$?DelSpaceInName@CCondTarget@@QAEXXZ$1:
  00009	8b 4d e8	 mov	 ecx, DWORD PTR $T4[ebp]
  0000c	ff 25 00 00 00
	00		 jmp	 DWORD PTR __imp_??1?$CStringT@DV?$StrTraitMFC_DLL@DV?$ChTraitsCRT@D@ATL@@@@@ATL@@QAE@XZ
__unwindfunclet$?DelSpaceInName@CCondTarget@@QAEXXZ$3:
  00012	8d 4d ec	 lea	 ecx, DWORD PTR $T7[ebp]
  00015	ff 25 00 00 00
	00		 jmp	 DWORD PTR __imp_??1?$CStringT@DV?$StrTraitMFC_DLL@DV?$ChTraitsCRT@D@ATL@@@@@ATL@@QAE@XZ
__unwindfunclet$?DelSpaceInName@CCondTarget@@QAEXXZ$4:
  0001b	8b 4d e4	 mov	 ecx, DWORD PTR $T3[ebp]
  0001e	ff 25 00 00 00
	00		 jmp	 DWORD PTR __imp_??1?$CStringT@DV?$StrTraitMFC_DLL@DV?$ChTraitsCRT@D@ATL@@@@@ATL@@QAE@XZ
__unwindfunclet$?DelSpaceInName@CCondTarget@@QAEXXZ$6:
  00024	8d 4d ec	 lea	 ecx, DWORD PTR $T6[ebp]
  00027	ff 25 00 00 00
	00		 jmp	 DWORD PTR __imp_??1?$CStringT@DV?$StrTraitMFC_DLL@DV?$ChTraitsCRT@D@ATL@@@@@ATL@@QAE@XZ
__unwindfunclet$?DelSpaceInName@CCondTarget@@QAEXXZ$7:
  0002d	8b 4d e4	 mov	 ecx, DWORD PTR $T2[ebp]
  00030	ff 25 00 00 00
	00		 jmp	 DWORD PTR __imp_??1?$CStringT@DV?$StrTraitMFC_DLL@DV?$ChTraitsCRT@D@ATL@@@@@ATL@@QAE@XZ
__unwindfunclet$?DelSpaceInName@CCondTarget@@QAEXXZ$9:
  00036	8d 4d ec	 lea	 ecx, DWORD PTR $T5[ebp]
  00039	ff 25 00 00 00
	00		 jmp	 DWORD PTR __imp_??1?$CStringT@DV?$StrTraitMFC_DLL@DV?$ChTraitsCRT@D@ATL@@@@@ATL@@QAE@XZ
  0003f	cc		 int	 3
  00040	cc		 int	 3
  00041	cc		 int	 3
  00042	cc		 int	 3
  00043	cc		 int	 3
__ehhandler$?DelSpaceInName@CCondTarget@@QAEXXZ:
  00044	90		 npad	 1
  00045	90		 npad	 1
  00046	8b 54 24 08	 mov	 edx, DWORD PTR [esp+8]
  0004a	8d 42 0c	 lea	 eax, DWORD PTR [edx+12]
  0004d	8b 4a e0	 mov	 ecx, DWORD PTR [edx-32]
  00050	33 c8		 xor	 ecx, eax
  00052	e8 00 00 00 00	 call	 @__security_check_cookie@4
  00057	b8 00 00 00 00	 mov	 eax, OFFSET __ehfuncinfo$?DelSpaceInName@CCondTarget@@QAEXXZ
  0005c	e9 00 00 00 00	 jmp	 ___CxxFrameHandler3
text$x	ENDS
?DelSpaceInName@CCondTarget@@QAEXXZ ENDP		; CCondTarget::DelSpaceInName
; Function compile flags: /Ogtp
; File D:\git\src\IBK\IBK_DRFN\ProjSrc\SrcDrfn\Chart\MULTICHART\CondTarget.cpp
; File C:\Program Files (x86)\Microsoft Visual Studio\2019\Community\VC\Tools\MSVC\14.29.30133\atlmfc\include\afxcoll.inl
; File D:\git\src\IBK\IBK_DRFN\ProjSrc\SrcDrfn\Chart\MULTICHART\CondTarget.cpp
; File C:\Program Files (x86)\Microsoft Visual Studio\2019\Community\VC\Tools\MSVC\14.29.30133\atlmfc\include\afxcoll.inl
; File D:\git\src\IBK\IBK_DRFN\ProjSrc\SrcDrfn\Chart\MULTICHART\CondTarget.cpp
; File C:\Program Files (x86)\Microsoft Visual Studio\2019\Community\VC\Tools\MSVC\14.29.30133\atlmfc\include\afxcoll.inl
; File D:\git\src\IBK\IBK_DRFN\ProjSrc\SrcDrfn\Chart\MULTICHART\CondTarget.cpp
; File C:\Program Files (x86)\Microsoft Visual Studio\2019\Community\VC\Tools\MSVC\14.29.30133\atlmfc\include\afxcoll.inl
; File D:\git\src\IBK\IBK_DRFN\ProjSrc\SrcDrfn\Chart\MULTICHART\CondTarget.cpp
; File C:\Program Files (x86)\Microsoft Visual Studio\2019\Community\VC\Tools\MSVC\14.29.30133\atlmfc\include\afxcoll.inl
; File D:\git\src\IBK\IBK_DRFN\ProjSrc\SrcDrfn\Chart\MULTICHART\CondTarget.cpp
;	COMDAT ?GetMarketCode@CCondTarget@@QAE?AV?$CStringT@DV?$StrTraitMFC_DLL@DV?$ChTraitsCRT@D@ATL@@@@@ATL@@V23@0@Z
_TEXT	SEGMENT
tv327 = -28						; size = 4
tv324 = -24						; size = 4
_this$1$ = -20						; size = 4
_strCode$ = -16						; size = 4
__$EHRec$ = -12						; size = 12
___$ReturnUdt$ = 8					; size = 4
_strType$ = 12						; size = 4
_strName$ = 16						; size = 4
?GetMarketCode@CCondTarget@@QAE?AV?$CStringT@DV?$StrTraitMFC_DLL@DV?$ChTraitsCRT@D@ATL@@@@@ATL@@V23@0@Z PROC ; CCondTarget::GetMarketCode, COMDAT
; _this$ = ecx

; 447  : {

  00000	55		 push	 ebp
  00001	8b ec		 mov	 ebp, esp
  00003	6a ff		 push	 -1
  00005	68 00 00 00 00	 push	 __ehhandler$?GetMarketCode@CCondTarget@@QAE?AV?$CStringT@DV?$StrTraitMFC_DLL@DV?$ChTraitsCRT@D@ATL@@@@@ATL@@V23@0@Z
  0000a	64 a1 00 00 00
	00		 mov	 eax, DWORD PTR fs:0
  00010	50		 push	 eax
  00011	83 ec 10	 sub	 esp, 16			; 00000010H
  00014	53		 push	 ebx
  00015	56		 push	 esi
  00016	57		 push	 edi
  00017	a1 00 00 00 00	 mov	 eax, DWORD PTR ___security_cookie
  0001c	33 c5		 xor	 eax, ebp
  0001e	50		 push	 eax
  0001f	8d 45 f4	 lea	 eax, DWORD PTR __$EHRec$[ebp]
  00022	64 a3 00 00 00
	00		 mov	 DWORD PTR fs:0, eax
  00028	89 4d ec	 mov	 DWORD PTR _this$1$[ebp], ecx

; 448  : 	strName.Replace(" ", "");

  0002b	68 00 00 00 00	 push	 OFFSET ??_C@_00CNPNBAHC@@
  00030	68 00 00 00 00	 push	 OFFSET ??_C@_01CLKCMJKC@?5@
  00035	8d 4d 10	 lea	 ecx, DWORD PTR _strName$[ebp]
  00038	c7 45 fc 01 00
	00 00		 mov	 DWORD PTR __$EHRec$[ebp+8], 1
  0003f	ff 15 00 00 00
	00		 call	 DWORD PTR __imp_?Replace@?$CStringT@DV?$StrTraitMFC_DLL@DV?$ChTraitsCRT@D@ATL@@@@@ATL@@QAEHPBD0@Z

; 449  : 	CString strCode = "";

  00045	68 00 00 00 00	 push	 OFFSET ??_C@_00CNPNBAHC@@
  0004a	8d 4d f0	 lea	 ecx, DWORD PTR _strCode$[ebp]
  0004d	ff 15 00 00 00
	00		 call	 DWORD PTR __imp_??0?$CStringT@DV?$StrTraitMFC_DLL@DV?$ChTraitsCRT@D@ATL@@@@@ATL@@QAE@PBD@Z

; 450  : 	CStringArray *pArrName=NULL, *pArrCode=NULL;
; 451  : 	if (strType.CompareNoCase(_T("UMASTER")) == 0)

  00053	68 00 00 00 00	 push	 OFFSET ??_C@_07KDMDENFH@UMASTER@
  00058	8d 4d 0c	 lea	 ecx, DWORD PTR _strType$[ebp]
  0005b	c6 45 fc 02	 mov	 BYTE PTR __$EHRec$[ebp+8], 2
  0005f	ff 15 00 00 00
	00		 call	 DWORD PTR __imp_?CompareNoCase@?$CStringT@DV?$StrTraitMFC_DLL@DV?$ChTraitsCRT@D@ATL@@@@@ATL@@QBEHPBD@Z
  00065	85 c0		 test	 eax, eax
  00067	75 0b		 jne	 SHORT $LN5@GetMarketC

; 452  : 	{
; 453  : 		pArrName = &m_arrKSPName;
; 454  : 		pArrCode = &m_arrKSPCode;

  00069	8d 58 24	 lea	 ebx, DWORD PTR [eax+36]
  0006c	8d 43 0c	 lea	 eax, DWORD PTR [ebx+12]
  0006f	8d 4b fc	 lea	 ecx, DWORD PTR [ebx-4]

; 455  : 	}

  00072	eb 21		 jmp	 SHORT $LN9@GetMarketC
$LN5@GetMarketC:

; 456  : 	else if (strType.CompareNoCase(_T("KUMASTER")) == 0)

  00074	68 00 00 00 00	 push	 OFFSET ??_C@_08HMCPBLEK@KUMASTER@
  00079	8d 4d 0c	 lea	 ecx, DWORD PTR _strType$[ebp]
  0007c	ff 15 00 00 00
	00		 call	 DWORD PTR __imp_?CompareNoCase@?$CStringT@DV?$StrTraitMFC_DLL@DV?$ChTraitsCRT@D@ATL@@@@@ATL@@QBEHPBD@Z
  00082	85 c0		 test	 eax, eax
  00084	0f 85 8a 00 00
	00		 jne	 $LN7@GetMarketC

; 457  : 	{
; 458  : 		pArrName = &m_arrKSQName;
; 459  : 		pArrCode = &m_arrKSQCode;

  0008a	8d 58 4c	 lea	 ebx, DWORD PTR [eax+76]
  0008d	b9 48 00 00 00	 mov	 ecx, 72			; 00000048H
  00092	8d 43 0c	 lea	 eax, DWORD PTR [ebx+12]
$LN9@GetMarketC:

; 462  : 	{
; 463  : 	}
; 464  : 
; 465  : 	if (pArrCode == NULL)

  00095	8b 55 ec	 mov	 edx, DWORD PTR _this$1$[ebp]
  00098	03 ca		 add	 ecx, edx
  0009a	03 c2		 add	 eax, edx
  0009c	89 4d e8	 mov	 DWORD PTR tv324[ebp], ecx
  0009f	89 45 e4	 mov	 DWORD PTR tv327[ebp], eax
  000a2	74 7e		 je	 SHORT $LN35@GetMarketC

; 467  : 
; 468  : 	int nSize = pArrName->GetSize();

  000a4	8b 3c 1a	 mov	 edi, DWORD PTR [edx+ebx]

; 469  : 	for (int i=0; i<nSize; i++)

  000a7	33 f6		 xor	 esi, esi
  000a9	85 ff		 test	 edi, edi
  000ab	7e 31		 jle	 SHORT $LN3@GetMarketC
  000ad	0f 1f 00	 npad	 3
$LL4@GetMarketC:
; File C:\Program Files (x86)\Microsoft Visual Studio\2019\Community\VC\Tools\MSVC\14.29.30133\atlmfc\include\afxcoll.inl

; 289  : 		if( nIndex < 0 || nIndex >= m_nSize )

  000b0	85 f6		 test	 esi, esi
  000b2	0f 88 aa 00 00
	00		 js	 $LN22@GetMarketC
  000b8	3b 34 1a	 cmp	 esi, DWORD PTR [edx+ebx]
  000bb	0f 8d a1 00 00
	00		 jge	 $LN22@GetMarketC

; 291  : 		return m_pData[nIndex]; }

  000c1	8b 01		 mov	 eax, DWORD PTR [ecx]
; File D:\git\src\IBK\IBK_DRFN\ProjSrc\SrcDrfn\Chart\MULTICHART\CondTarget.cpp

; 471  : 		if (pArrName->GetAt(i).CompareNoCase(strName) == 0)

  000c3	ff 75 10	 push	 DWORD PTR _strName$[ebp]
; File C:\Program Files (x86)\Microsoft Visual Studio\2019\Community\VC\Tools\MSVC\14.29.30133\atlmfc\include\afxcoll.inl

; 291  : 		return m_pData[nIndex]; }

  000c6	8d 0c b0	 lea	 ecx, DWORD PTR [eax+esi*4]
; File D:\git\src\IBK\IBK_DRFN\ProjSrc\SrcDrfn\Chart\MULTICHART\CondTarget.cpp

; 471  : 		if (pArrName->GetAt(i).CompareNoCase(strName) == 0)

  000c9	ff 15 00 00 00
	00		 call	 DWORD PTR __imp_?CompareNoCase@?$CStringT@DV?$StrTraitMFC_DLL@DV?$ChTraitsCRT@D@ATL@@@@@ATL@@QBEHPBD@Z
  000cf	85 c0		 test	 eax, eax
  000d1	74 1a		 je	 SHORT $LN31@GetMarketC

; 469  : 	for (int i=0; i<nSize; i++)

  000d3	8b 55 ec	 mov	 edx, DWORD PTR _this$1$[ebp]
  000d6	46		 inc	 esi
  000d7	8b 4d e8	 mov	 ecx, DWORD PTR tv324[ebp]
  000da	3b f7		 cmp	 esi, edi
  000dc	7c d2		 jl	 SHORT $LL4@GetMarketC
$LN3@GetMarketC:

; 474  : 			break;
; 475  : 		}
; 476  : 	}
; 477  : 
; 478  : 	return strCode;

  000de	8b 4d 08	 mov	 ecx, DWORD PTR ___$ReturnUdt$[ebp]
  000e1	8d 45 f0	 lea	 eax, DWORD PTR _strCode$[ebp]
  000e4	50		 push	 eax
  000e5	ff 15 00 00 00
	00		 call	 DWORD PTR __imp_??0?$CStringT@DV?$StrTraitMFC_DLL@DV?$ChTraitsCRT@D@ATL@@@@@ATL@@QAE@ABV01@@Z
  000eb	eb 43		 jmp	 SHORT $LN38@GetMarketC
$LN31@GetMarketC:
; File C:\Program Files (x86)\Microsoft Visual Studio\2019\Community\VC\Tools\MSVC\14.29.30133\atlmfc\include\afxcoll.inl

; 289  : 		if( nIndex < 0 || nIndex >= m_nSize )

  000ed	8b 45 e4	 mov	 eax, DWORD PTR tv327[ebp]
  000f0	3b 70 08	 cmp	 esi, DWORD PTR [eax+8]
  000f3	7d 6d		 jge	 SHORT $LN22@GetMarketC

; 291  : 		return m_pData[nIndex]; }

  000f5	8b 40 04	 mov	 eax, DWORD PTR [eax+4]
; File D:\git\src\IBK\IBK_DRFN\ProjSrc\SrcDrfn\Chart\MULTICHART\CondTarget.cpp

; 473  : 			strCode = pArrCode->GetAt(i);

  000f8	8d 4d f0	 lea	 ecx, DWORD PTR _strCode$[ebp]
; File C:\Program Files (x86)\Microsoft Visual Studio\2019\Community\VC\Tools\MSVC\14.29.30133\atlmfc\include\afxcoll.inl

; 291  : 		return m_pData[nIndex]; }

  000fb	8d 04 b0	 lea	 eax, DWORD PTR [eax+esi*4]
; File D:\git\src\IBK\IBK_DRFN\ProjSrc\SrcDrfn\Chart\MULTICHART\CondTarget.cpp

; 473  : 			strCode = pArrCode->GetAt(i);

  000fe	50		 push	 eax
  000ff	ff 15 00 00 00
	00		 call	 DWORD PTR __imp_??4?$CStringT@DV?$StrTraitMFC_DLL@DV?$ChTraitsCRT@D@ATL@@@@@ATL@@QAEAAV01@ABV01@@Z

; 474  : 			break;
; 475  : 		}
; 476  : 	}
; 477  : 
; 478  : 	return strCode;

  00105	8b 4d 08	 mov	 ecx, DWORD PTR ___$ReturnUdt$[ebp]
  00108	8d 45 f0	 lea	 eax, DWORD PTR _strCode$[ebp]
  0010b	50		 push	 eax
  0010c	ff 15 00 00 00
	00		 call	 DWORD PTR __imp_??0?$CStringT@DV?$StrTraitMFC_DLL@DV?$ChTraitsCRT@D@ATL@@@@@ATL@@QAE@ABV01@@Z
  00112	eb 1c		 jmp	 SHORT $LN38@GetMarketC
$LN7@GetMarketC:

; 460  : 	}
; 461  : 	else if (strType.CompareNoCase(_T("KRXUMASTER")) == 0)

  00114	68 00 00 00 00	 push	 OFFSET ??_C@_0L@CMGEAIGC@KRXUMASTER@
  00119	8d 4d 0c	 lea	 ecx, DWORD PTR _strType$[ebp]
  0011c	ff 15 00 00 00
	00		 call	 DWORD PTR __imp_?CompareNoCase@?$CStringT@DV?$StrTraitMFC_DLL@DV?$ChTraitsCRT@D@ATL@@@@@ATL@@QBEHPBD@Z
$LN35@GetMarketC:

; 466  : 		return "";

  00122	8b 4d 08	 mov	 ecx, DWORD PTR ___$ReturnUdt$[ebp]
  00125	68 00 00 00 00	 push	 OFFSET ??_C@_00CNPNBAHC@@
  0012a	ff 15 00 00 00
	00		 call	 DWORD PTR __imp_??0?$CStringT@DV?$StrTraitMFC_DLL@DV?$ChTraitsCRT@D@ATL@@@@@ATL@@QAE@PBD@Z
$LN38@GetMarketC:

; 479  : }

  00130	8d 4d f0	 lea	 ecx, DWORD PTR _strCode$[ebp]
  00133	ff 15 00 00 00
	00		 call	 DWORD PTR __imp_??1?$CStringT@DV?$StrTraitMFC_DLL@DV?$ChTraitsCRT@D@ATL@@@@@ATL@@QAE@XZ
  00139	8d 4d 0c	 lea	 ecx, DWORD PTR _strType$[ebp]
  0013c	ff 15 00 00 00
	00		 call	 DWORD PTR __imp_??1?$CStringT@DV?$StrTraitMFC_DLL@DV?$ChTraitsCRT@D@ATL@@@@@ATL@@QAE@XZ
  00142	8d 4d 10	 lea	 ecx, DWORD PTR _strName$[ebp]
  00145	ff 15 00 00 00
	00		 call	 DWORD PTR __imp_??1?$CStringT@DV?$StrTraitMFC_DLL@DV?$ChTraitsCRT@D@ATL@@@@@ATL@@QAE@XZ
  0014b	8b 45 08	 mov	 eax, DWORD PTR ___$ReturnUdt$[ebp]
  0014e	8b 4d f4	 mov	 ecx, DWORD PTR __$EHRec$[ebp]
  00151	64 89 0d 00 00
	00 00		 mov	 DWORD PTR fs:0, ecx
  00158	59		 pop	 ecx
  00159	5f		 pop	 edi
  0015a	5e		 pop	 esi
  0015b	5b		 pop	 ebx
  0015c	8b e5		 mov	 esp, ebp
  0015e	5d		 pop	 ebp
  0015f	c2 0c 00	 ret	 12			; 0000000cH
$LN22@GetMarketC:
; File C:\Program Files (x86)\Microsoft Visual Studio\2019\Community\VC\Tools\MSVC\14.29.30133\atlmfc\include\afxcoll.inl

; 290  : 			AfxThrowInvalidArgException();

  00162	e8 00 00 00 00	 call	 ?AfxThrowInvalidArgException@@YGXXZ ; AfxThrowInvalidArgException
$LN37@GetMarketC:
  00167	cc		 int	 3
_TEXT	ENDS
;	COMDAT text$x
text$x	SEGMENT
__unwindfunclet$?GetMarketCode@CCondTarget@@QAE?AV?$CStringT@DV?$StrTraitMFC_DLL@DV?$ChTraitsCRT@D@ATL@@@@@ATL@@V23@0@Z$0:
  00000	8d 4d 10	 lea	 ecx, DWORD PTR _strName$[ebp]
  00003	ff 25 00 00 00
	00		 jmp	 DWORD PTR __imp_??1?$CStringT@DV?$StrTraitMFC_DLL@DV?$ChTraitsCRT@D@ATL@@@@@ATL@@QAE@XZ
__unwindfunclet$?GetMarketCode@CCondTarget@@QAE?AV?$CStringT@DV?$StrTraitMFC_DLL@DV?$ChTraitsCRT@D@ATL@@@@@ATL@@V23@0@Z$1:
  00009	8d 4d 0c	 lea	 ecx, DWORD PTR _strType$[ebp]
  0000c	ff 25 00 00 00
	00		 jmp	 DWORD PTR __imp_??1?$CStringT@DV?$StrTraitMFC_DLL@DV?$ChTraitsCRT@D@ATL@@@@@ATL@@QAE@XZ
__unwindfunclet$?GetMarketCode@CCondTarget@@QAE?AV?$CStringT@DV?$StrTraitMFC_DLL@DV?$ChTraitsCRT@D@ATL@@@@@ATL@@V23@0@Z$2:
  00012	8d 4d f0	 lea	 ecx, DWORD PTR _strCode$[ebp]
  00015	ff 25 00 00 00
	00		 jmp	 DWORD PTR __imp_??1?$CStringT@DV?$StrTraitMFC_DLL@DV?$ChTraitsCRT@D@ATL@@@@@ATL@@QAE@XZ
  0001b	cc		 int	 3
  0001c	cc		 int	 3
  0001d	cc		 int	 3
  0001e	cc		 int	 3
  0001f	cc		 int	 3
__ehhandler$?GetMarketCode@CCondTarget@@QAE?AV?$CStringT@DV?$StrTraitMFC_DLL@DV?$ChTraitsCRT@D@ATL@@@@@ATL@@V23@0@Z:
  00020	90		 npad	 1
  00021	90		 npad	 1
  00022	8b 54 24 08	 mov	 edx, DWORD PTR [esp+8]
  00026	8d 42 0c	 lea	 eax, DWORD PTR [edx+12]
  00029	8b 4a e0	 mov	 ecx, DWORD PTR [edx-32]
  0002c	33 c8		 xor	 ecx, eax
  0002e	e8 00 00 00 00	 call	 @__security_check_cookie@4
  00033	b8 00 00 00 00	 mov	 eax, OFFSET __ehfuncinfo$?GetMarketCode@CCondTarget@@QAE?AV?$CStringT@DV?$StrTraitMFC_DLL@DV?$ChTraitsCRT@D@ATL@@@@@ATL@@V23@0@Z
  00038	e9 00 00 00 00	 jmp	 ___CxxFrameHandler3
text$x	ENDS
?GetMarketCode@CCondTarget@@QAE?AV?$CStringT@DV?$StrTraitMFC_DLL@DV?$ChTraitsCRT@D@ATL@@@@@ATL@@V23@0@Z ENDP ; CCondTarget::GetMarketCode
; Function compile flags: /Ogtp
; File D:\git\src\IBK\IBK_DRFN\ProjSrc\SrcDrfn\Chart\MULTICHART\CondTarget.cpp
; File C:\Program Files (x86)\Microsoft Visual Studio\2019\Community\VC\Tools\MSVC\14.29.30133\atlmfc\include\cstringt.h
; File D:\git\src\IBK\IBK_DRFN\ProjSrc\SrcDrfn\Chart\MULTICHART\CondTarget.cpp
; File C:\Program Files (x86)\Microsoft Visual Studio\2019\Community\VC\Tools\MSVC\14.29.30133\atlmfc\include\cstringt.h
; File D:\git\src\IBK\IBK_DRFN\ProjSrc\SrcDrfn\Chart\MULTICHART\CondTarget.cpp
; File C:\Program Files (x86)\Microsoft Visual Studio\2019\Community\VC\Tools\MSVC\14.29.30133\atlmfc\include\cstringt.h
; File D:\git\src\IBK\IBK_DRFN\ProjSrc\SrcDrfn\Chart\MULTICHART\CondTarget.cpp
;	COMDAT ?GetStockMasterData@CCondTarget@@QAEHAAVCStringArray@@0@Z
_TEXT	SEGMENT
$T2 = -36						; size = 4
$T3 = -36						; size = 4
$T4 = -32						; size = 4
_strTitle$ = -28					; size = 4
$T5 = -24						; size = 4
$T6 = -24						; size = 4
_strMarketCode$ = -20					; size = 4
_strType$ = -16						; size = 4
__$EHRec$ = -12						; size = 12
_saCode$ = 8						; size = 4
_saName$ = 12						; size = 4
?GetStockMasterData@CCondTarget@@QAEHAAVCStringArray@@0@Z PROC ; CCondTarget::GetStockMasterData, COMDAT
; _this$ = ecx

; 483  : {

  00000	55		 push	 ebp
  00001	8b ec		 mov	 ebp, esp
  00003	6a ff		 push	 -1
  00005	68 00 00 00 00	 push	 __ehhandler$?GetStockMasterData@CCondTarget@@QAEHAAVCStringArray@@0@Z
  0000a	64 a1 00 00 00
	00		 mov	 eax, DWORD PTR fs:0
  00010	50		 push	 eax
  00011	83 ec 18	 sub	 esp, 24			; 00000018H
  00014	56		 push	 esi
  00015	57		 push	 edi
  00016	a1 00 00 00 00	 mov	 eax, DWORD PTR ___security_cookie
  0001b	33 c5		 xor	 eax, ebp
  0001d	50		 push	 eax
  0001e	8d 45 f4	 lea	 eax, DWORD PTR __$EHRec$[ebp]
  00021	64 a3 00 00 00
	00		 mov	 DWORD PTR fs:0, eax
  00027	8b f1		 mov	 esi, ecx

; 485  : 	CString strTitle, strMarketCode, strType;

  00029	8d 4d e4	 lea	 ecx, DWORD PTR _strTitle$[ebp]
  0002c	ff 15 00 00 00
	00		 call	 DWORD PTR __imp_??0?$CStringT@DV?$StrTraitMFC_DLL@DV?$ChTraitsCRT@D@ATL@@@@@ATL@@QAE@XZ
  00032	8d 4d ec	 lea	 ecx, DWORD PTR _strMarketCode$[ebp]
  00035	c7 45 fc 00 00
	00 00		 mov	 DWORD PTR __$EHRec$[ebp+8], 0
  0003c	ff 15 00 00 00
	00		 call	 DWORD PTR __imp_??0?$CStringT@DV?$StrTraitMFC_DLL@DV?$ChTraitsCRT@D@ATL@@@@@ATL@@QAE@XZ
  00042	8d 4d f0	 lea	 ecx, DWORD PTR _strType$[ebp]
  00045	ff 15 00 00 00
	00		 call	 DWORD PTR __imp_??0?$CStringT@DV?$StrTraitMFC_DLL@DV?$ChTraitsCRT@D@ATL@@@@@ATL@@QAE@XZ
; File C:\Program Files (x86)\Microsoft Visual Studio\2019\Community\VC\Tools\MSVC\14.29.30133\atlmfc\include\cstringt.h

; 2486 : 		return(str1.Compare(psz2) == 0);

  0004b	68 00 00 00 00	 push	 OFFSET ??_C@_00CNPNBAHC@@
  00050	8d 8e ec 01 00
	00		 lea	 ecx, DWORD PTR [esi+492]
; File D:\git\src\IBK\IBK_DRFN\ProjSrc\SrcDrfn\Chart\MULTICHART\CondTarget.cpp

; 485  : 	CString strTitle, strMarketCode, strType;

  00056	c6 45 fc 02	 mov	 BYTE PTR __$EHRec$[ebp+8], 2
; File C:\Program Files (x86)\Microsoft Visual Studio\2019\Community\VC\Tools\MSVC\14.29.30133\atlmfc\include\cstringt.h

; 2486 : 		return(str1.Compare(psz2) == 0);

  0005a	ff 15 00 00 00
	00		 call	 DWORD PTR __imp_?Compare@?$CStringT@DV?$StrTraitMFC_DLL@DV?$ChTraitsCRT@D@ATL@@@@@ATL@@QBEHPBD@Z
; File D:\git\src\IBK\IBK_DRFN\ProjSrc\SrcDrfn\Chart\MULTICHART\CondTarget.cpp

; 486  : 	if (m_strEditSubjectSelectParentItemText == "")

  00060	68 00 00 00 00	 push	 OFFSET ??_C@_06CLLJOKKL@?$LA?E?$LH?$KB?$LM?R@
; File C:\Program Files (x86)\Microsoft Visual Studio\2019\Community\VC\Tools\MSVC\14.29.30133\atlmfc\include\cstringt.h

; 2486 : 		return(str1.Compare(psz2) == 0);

  00065	85 c0		 test	 eax, eax
; File D:\git\src\IBK\IBK_DRFN\ProjSrc\SrcDrfn\Chart\MULTICHART\CondTarget.cpp

; 486  : 	if (m_strEditSubjectSelectParentItemText == "")

  00067	0f 85 0c 01 00
	00		 jne	 $LN2@GetStockMa

; 487  : 	{
; 488  : 		if (m_strEditSubjectSelectItemText.CompareNoCase("") == 0)

  0006d	8d 8e e8 01 00
	00		 lea	 ecx, DWORD PTR [esi+488]
  00073	ff 15 00 00 00
	00		 call	 DWORD PTR __imp_?CompareNoCase@?$CStringT@DV?$StrTraitMFC_DLL@DV?$ChTraitsCRT@D@ATL@@@@@ATL@@QBEHPBD@Z
  00079	85 c0		 test	 eax, eax
  0007b	75 20		 jne	 SHORT $LN4@GetStockMa

; 489  : 		{
; 490  : 			strType = "UMASTER";

  0007d	68 00 00 00 00	 push	 OFFSET ??_C@_07KDMDENFH@UMASTER@
  00082	8d 4d f0	 lea	 ecx, DWORD PTR _strType$[ebp]
  00085	ff 15 00 00 00
	00		 call	 DWORD PTR __imp_??4?$CStringT@DV?$StrTraitMFC_DLL@DV?$ChTraitsCRT@D@ATL@@@@@ATL@@QAEAAV01@PBD@Z

; 491  : 			strMarketCode = m_strKSPCode;

  0008b	8d 46 14	 lea	 eax, DWORD PTR [esi+20]
  0008e	50		 push	 eax
  0008f	8d 4d ec	 lea	 ecx, DWORD PTR _strMarketCode$[ebp]
  00092	ff 15 00 00 00
	00		 call	 DWORD PTR __imp_??4?$CStringT@DV?$StrTraitMFC_DLL@DV?$ChTraitsCRT@D@ATL@@@@@ATL@@QAEAAV01@ABV01@@Z

; 492  : 		}

  00098	e9 a8 01 00 00	 jmp	 $LN17@GetStockMa
$LN4@GetStockMa:

; 493  : 		else if (m_strEditSubjectSelectItemText.CompareNoCase("") == 0)

  0009d	68 00 00 00 00	 push	 OFFSET ??_C@_06MKHMLNFC@?D?Z?$LN?$LK?$LE?Z@
  000a2	8d 8e e8 01 00
	00		 lea	 ecx, DWORD PTR [esi+488]
  000a8	ff 15 00 00 00
	00		 call	 DWORD PTR __imp_?CompareNoCase@?$CStringT@DV?$StrTraitMFC_DLL@DV?$ChTraitsCRT@D@ATL@@@@@ATL@@QBEHPBD@Z
  000ae	85 c0		 test	 eax, eax
  000b0	75 20		 jne	 SHORT $LN6@GetStockMa

; 494  : 		{
; 495  : 			strType = "KUMASTER";

  000b2	68 00 00 00 00	 push	 OFFSET ??_C@_08HMCPBLEK@KUMASTER@
  000b7	8d 4d f0	 lea	 ecx, DWORD PTR _strType$[ebp]
  000ba	ff 15 00 00 00
	00		 call	 DWORD PTR __imp_??4?$CStringT@DV?$StrTraitMFC_DLL@DV?$ChTraitsCRT@D@ATL@@@@@ATL@@QAEAAV01@PBD@Z

; 496  : 			strMarketCode = m_strKSQCode;

  000c0	8d 46 18	 lea	 eax, DWORD PTR [esi+24]
  000c3	50		 push	 eax
  000c4	8d 4d ec	 lea	 ecx, DWORD PTR _strMarketCode$[ebp]
  000c7	ff 15 00 00 00
	00		 call	 DWORD PTR __imp_??4?$CStringT@DV?$StrTraitMFC_DLL@DV?$ChTraitsCRT@D@ATL@@@@@ATL@@QAEAAV01@ABV01@@Z

; 497  : 		}

  000cd	e9 73 01 00 00	 jmp	 $LN17@GetStockMa
$LN6@GetStockMa:

; 498  : 		else if (m_strEditSubjectSelectItemText.CompareNoCase("KOSPI200") == 0)

  000d2	68 00 00 00 00	 push	 OFFSET ??_C@_08FPNDIEGG@KOSPI200@
  000d7	8d 8e e8 01 00
	00		 lea	 ecx, DWORD PTR [esi+488]
  000dd	ff 15 00 00 00
	00		 call	 DWORD PTR __imp_?CompareNoCase@?$CStringT@DV?$StrTraitMFC_DLL@DV?$ChTraitsCRT@D@ATL@@@@@ATL@@QBEHPBD@Z
  000e3	85 c0		 test	 eax, eax
  000e5	75 20		 jne	 SHORT $LN8@GetStockMa

; 499  : 		{
; 500  : 			strType = "UMASTER";

  000e7	68 00 00 00 00	 push	 OFFSET ??_C@_07KDMDENFH@UMASTER@
  000ec	8d 4d f0	 lea	 ecx, DWORD PTR _strType$[ebp]
  000ef	ff 15 00 00 00
	00		 call	 DWORD PTR __imp_??4?$CStringT@DV?$StrTraitMFC_DLL@DV?$ChTraitsCRT@D@ATL@@@@@ATL@@QAEAAV01@PBD@Z

; 501  : 			strMarketCode = m_strKSP200Code;

  000f5	8d 46 10	 lea	 eax, DWORD PTR [esi+16]
  000f8	50		 push	 eax
  000f9	8d 4d ec	 lea	 ecx, DWORD PTR _strMarketCode$[ebp]
  000fc	ff 15 00 00 00
	00		 call	 DWORD PTR __imp_??4?$CStringT@DV?$StrTraitMFC_DLL@DV?$ChTraitsCRT@D@ATL@@@@@ATL@@QAEAAV01@ABV01@@Z

; 502  : 		}

  00102	e9 3e 01 00 00	 jmp	 $LN17@GetStockMa
$LN8@GetStockMa:

; 503  : 		else if (m_strEditSubjectSelectItemText.CompareNoCase("KRX100") == 0)

  00107	68 00 00 00 00	 push	 OFFSET ??_C@_06NOAAGAFD@KRX100@
  0010c	8d 8e e8 01 00
	00		 lea	 ecx, DWORD PTR [esi+488]
  00112	ff 15 00 00 00
	00		 call	 DWORD PTR __imp_?CompareNoCase@?$CStringT@DV?$StrTraitMFC_DLL@DV?$ChTraitsCRT@D@ATL@@@@@ATL@@QBEHPBD@Z
  00118	85 c0		 test	 eax, eax
  0011a	75 20		 jne	 SHORT $LN10@GetStockMa

; 504  : 		{
; 505  : 			strType = "KRXUMASTER";

  0011c	68 00 00 00 00	 push	 OFFSET ??_C@_0L@CMGEAIGC@KRXUMASTER@
  00121	8d 4d f0	 lea	 ecx, DWORD PTR _strType$[ebp]
  00124	ff 15 00 00 00
	00		 call	 DWORD PTR __imp_??4?$CStringT@DV?$StrTraitMFC_DLL@DV?$ChTraitsCRT@D@ATL@@@@@ATL@@QAEAAV01@PBD@Z

; 506  : 			strMarketCode = m_strKRX100Code;

  0012a	8d 46 0c	 lea	 eax, DWORD PTR [esi+12]
  0012d	50		 push	 eax
  0012e	8d 4d ec	 lea	 ecx, DWORD PTR _strMarketCode$[ebp]
  00131	ff 15 00 00 00
	00		 call	 DWORD PTR __imp_??4?$CStringT@DV?$StrTraitMFC_DLL@DV?$ChTraitsCRT@D@ATL@@@@@ATL@@QAEAAV01@ABV01@@Z

; 507  : 		}

  00137	e9 09 01 00 00	 jmp	 $LN17@GetStockMa
$LN10@GetStockMa:

; 508  : 		else if (m_strEditSubjectSelectItemText.CompareNoCase("") == 0)

  0013c	68 00 00 00 00	 push	 OFFSET ??_C@_04MHOBIAIL@?$MA?$PM?C?$LM@
  00141	8d 8e e8 01 00
	00		 lea	 ecx, DWORD PTR [esi+488]
  00147	ff 15 00 00 00
	00		 call	 DWORD PTR __imp_?CompareNoCase@?$CStringT@DV?$StrTraitMFC_DLL@DV?$ChTraitsCRT@D@ATL@@@@@ATL@@QBEHPBD@Z
  0014d	85 c0		 test	 eax, eax
  0014f	0f 85 f0 00 00
	00		 jne	 $LN17@GetStockMa

; 509  : 		{
; 510  : 			if (m_pManager)

  00155	8b 4e 6c	 mov	 ecx, DWORD PTR [esi+108]
  00158	85 c9		 test	 ecx, ecx
  0015a	0f 84 22 01 00
	00		 je	 $LN18@GetStockMa

; 511  : 				m_pManager->GetAllStock(saCode, saName);

  00160	ff 75 0c	 push	 DWORD PTR _saName$[ebp]
  00163	8b 01		 mov	 eax, DWORD PTR [ecx]
  00165	ff 75 08	 push	 DWORD PTR _saCode$[ebp]
  00168	51		 push	 ecx
  00169	ff 90 a4 00 00
	00		 call	 DWORD PTR [eax+164]
  0016f	be 01 00 00 00	 mov	 esi, 1
  00174	e9 12 01 00 00	 jmp	 $LN32@GetStockMa
$LN2@GetStockMa:

; 512  : 
; 513  : 			return TRUE;
; 514  : 		}
; 515  : 	}
; 516  : 	else
; 517  : 	{
; 518  : 		if (m_strEditSubjectSelectParentItemText.CompareNoCase("") == 0)

  00179	8d 8e ec 01 00
	00		 lea	 ecx, DWORD PTR [esi+492]
  0017f	ff 15 00 00 00
	00		 call	 DWORD PTR __imp_?CompareNoCase@?$CStringT@DV?$StrTraitMFC_DLL@DV?$ChTraitsCRT@D@ATL@@@@@ATL@@QBEHPBD@Z
  00185	85 c0		 test	 eax, eax
  00187	75 47		 jne	 SHORT $LN14@GetStockMa

; 519  : 		{
; 520  : 			strType = "UMASTER";

  00189	68 00 00 00 00	 push	 OFFSET ??_C@_07KDMDENFH@UMASTER@
  0018e	8d 4d f0	 lea	 ecx, DWORD PTR _strType$[ebp]
  00191	ff 15 00 00 00
	00		 call	 DWORD PTR __imp_??4?$CStringT@DV?$StrTraitMFC_DLL@DV?$ChTraitsCRT@D@ATL@@@@@ATL@@QAEAAV01@PBD@Z

; 521  : 			strMarketCode = GetMarketCode(strType, m_strEditSubjectSelectItemText);

  00197	51		 push	 ecx
  00198	8d 86 e8 01 00
	00		 lea	 eax, DWORD PTR [esi+488]
  0019e	89 65 e0	 mov	 DWORD PTR $T4[ebp], esp
  001a1	8b cc		 mov	 ecx, esp
  001a3	50		 push	 eax
  001a4	ff 15 00 00 00
	00		 call	 DWORD PTR __imp_??0?$CStringT@DV?$StrTraitMFC_DLL@DV?$ChTraitsCRT@D@ATL@@@@@ATL@@QAE@ABV01@@Z
  001aa	51		 push	 ecx
  001ab	8d 45 f0	 lea	 eax, DWORD PTR _strType$[ebp]
  001ae	c6 45 fc 03	 mov	 BYTE PTR __$EHRec$[ebp+8], 3
  001b2	8b cc		 mov	 ecx, esp
  001b4	50		 push	 eax
  001b5	ff 15 00 00 00
	00		 call	 DWORD PTR __imp_??0?$CStringT@DV?$StrTraitMFC_DLL@DV?$ChTraitsCRT@D@ATL@@@@@ATL@@QAE@ABV01@@Z
  001bb	8d 45 e8	 lea	 eax, DWORD PTR $T6[ebp]
  001be	c6 45 fc 02	 mov	 BYTE PTR __$EHRec$[ebp+8], 2
  001c2	50		 push	 eax
  001c3	8b ce		 mov	 ecx, esi
  001c5	e8 00 00 00 00	 call	 ?GetMarketCode@CCondTarget@@QAE?AV?$CStringT@DV?$StrTraitMFC_DLL@DV?$ChTraitsCRT@D@ATL@@@@@ATL@@V23@0@Z ; CCondTarget::GetMarketCode
  001ca	c6 45 fc 04	 mov	 BYTE PTR __$EHRec$[ebp+8], 4

; 522  : 		}

  001ce	eb 5e		 jmp	 SHORT $LN36@GetStockMa
$LN14@GetStockMa:

; 523  : 		else if (m_strEditSubjectSelectParentItemText.CompareNoCase("") == 0)

  001d0	68 00 00 00 00	 push	 OFFSET ??_C@_06MKHMLNFC@?D?Z?$LN?$LK?$LE?Z@
  001d5	8d 8e ec 01 00
	00		 lea	 ecx, DWORD PTR [esi+492]
  001db	ff 15 00 00 00
	00		 call	 DWORD PTR __imp_?CompareNoCase@?$CStringT@DV?$StrTraitMFC_DLL@DV?$ChTraitsCRT@D@ATL@@@@@ATL@@QBEHPBD@Z
  001e1	85 c0		 test	 eax, eax
  001e3	0f 85 a0 00 00
	00		 jne	 $LN16@GetStockMa

; 524  : 		{
; 525  : 			strType = "KUMASTER";

  001e9	68 00 00 00 00	 push	 OFFSET ??_C@_08HMCPBLEK@KUMASTER@
  001ee	8d 4d f0	 lea	 ecx, DWORD PTR _strType$[ebp]
  001f1	ff 15 00 00 00
	00		 call	 DWORD PTR __imp_??4?$CStringT@DV?$StrTraitMFC_DLL@DV?$ChTraitsCRT@D@ATL@@@@@ATL@@QAEAAV01@PBD@Z

; 526  : 			strMarketCode = GetMarketCode(strType, m_strEditSubjectSelectItemText);

  001f7	51		 push	 ecx
  001f8	8d 86 e8 01 00
	00		 lea	 eax, DWORD PTR [esi+488]
  001fe	89 65 dc	 mov	 DWORD PTR $T3[ebp], esp
  00201	8b cc		 mov	 ecx, esp
  00203	50		 push	 eax
  00204	ff 15 00 00 00
	00		 call	 DWORD PTR __imp_??0?$CStringT@DV?$StrTraitMFC_DLL@DV?$ChTraitsCRT@D@ATL@@@@@ATL@@QAE@ABV01@@Z
  0020a	51		 push	 ecx
  0020b	8d 45 f0	 lea	 eax, DWORD PTR _strType$[ebp]
  0020e	c6 45 fc 05	 mov	 BYTE PTR __$EHRec$[ebp+8], 5
  00212	8b cc		 mov	 ecx, esp
  00214	50		 push	 eax
  00215	ff 15 00 00 00
	00		 call	 DWORD PTR __imp_??0?$CStringT@DV?$StrTraitMFC_DLL@DV?$ChTraitsCRT@D@ATL@@@@@ATL@@QAE@ABV01@@Z
  0021b	8d 45 e8	 lea	 eax, DWORD PTR $T5[ebp]
  0021e	c6 45 fc 02	 mov	 BYTE PTR __$EHRec$[ebp+8], 2
  00222	50		 push	 eax
  00223	8b ce		 mov	 ecx, esi
  00225	e8 00 00 00 00	 call	 ?GetMarketCode@CCondTarget@@QAE?AV?$CStringT@DV?$StrTraitMFC_DLL@DV?$ChTraitsCRT@D@ATL@@@@@ATL@@V23@0@Z ; CCondTarget::GetMarketCode
  0022a	c6 45 fc 06	 mov	 BYTE PTR __$EHRec$[ebp+8], 6
$LN36@GetStockMa:

; 530  : 	}
; 531  : 
; 532  : 	if (m_pManager)

  0022e	50		 push	 eax
  0022f	8d 4d ec	 lea	 ecx, DWORD PTR _strMarketCode$[ebp]
  00232	ff 15 00 00 00
	00		 call	 DWORD PTR __imp_??4?$CStringT@DV?$StrTraitMFC_DLL@DV?$ChTraitsCRT@D@ATL@@@@@ATL@@QAEAAV01@ABV01@@Z
  00238	8d 4d e8	 lea	 ecx, DWORD PTR $T5[ebp]
  0023b	c6 45 fc 02	 mov	 BYTE PTR __$EHRec$[ebp+8], 2
  0023f	ff 15 00 00 00
	00		 call	 DWORD PTR __imp_??1?$CStringT@DV?$StrTraitMFC_DLL@DV?$ChTraitsCRT@D@ATL@@@@@ATL@@QAE@XZ
$LN17@GetStockMa:
  00245	83 7e 6c 00	 cmp	 DWORD PTR [esi+108], 0
  00249	74 37		 je	 SHORT $LN18@GetStockMa

; 533  : 		m_pManager->GetMasterDataInUpDetails(strType, saCode, saName, strMarketCode);

  0024b	51		 push	 ecx
  0024c	8d 45 ec	 lea	 eax, DWORD PTR _strMarketCode$[ebp]
  0024f	89 65 dc	 mov	 DWORD PTR $T2[ebp], esp
  00252	8b cc		 mov	 ecx, esp
  00254	50		 push	 eax
  00255	ff 15 00 00 00
	00		 call	 DWORD PTR __imp_??0?$CStringT@DV?$StrTraitMFC_DLL@DV?$ChTraitsCRT@D@ATL@@@@@ATL@@QAE@ABV01@@Z
  0025b	ff 75 0c	 push	 DWORD PTR _saName$[ebp]
  0025e	8d 45 f0	 lea	 eax, DWORD PTR _strType$[ebp]
  00261	c6 45 fc 07	 mov	 BYTE PTR __$EHRec$[ebp+8], 7
  00265	ff 75 08	 push	 DWORD PTR _saCode$[ebp]
  00268	51		 push	 ecx
  00269	8b cc		 mov	 ecx, esp
  0026b	50		 push	 eax
  0026c	ff 15 00 00 00
	00		 call	 DWORD PTR __imp_??0?$CStringT@DV?$StrTraitMFC_DLL@DV?$ChTraitsCRT@D@ATL@@@@@ATL@@QAE@ABV01@@Z
  00272	8b 46 6c	 mov	 eax, DWORD PTR [esi+108]
  00275	50		 push	 eax
  00276	8b 08		 mov	 ecx, DWORD PTR [eax]
  00278	c6 45 fc 02	 mov	 BYTE PTR __$EHRec$[ebp+8], 2
  0027c	ff 91 98 00 00
	00		 call	 DWORD PTR [ecx+152]
$LN18@GetStockMa:

; 534  : 
; 535  : 	return TRUE;

  00282	be 01 00 00 00	 mov	 esi, 1
  00287	eb 02		 jmp	 SHORT $LN32@GetStockMa
$LN16@GetStockMa:

; 527  : 		}
; 528  : 		else
; 529  : 			return FALSE;

  00289	33 f6		 xor	 esi, esi
$LN32@GetStockMa:

; 534  : 
; 535  : 	return TRUE;

  0028b	8d 4d f0	 lea	 ecx, DWORD PTR _strType$[ebp]
  0028e	ff 15 00 00 00
	00		 call	 DWORD PTR __imp_??1?$CStringT@DV?$StrTraitMFC_DLL@DV?$ChTraitsCRT@D@ATL@@@@@ATL@@QAE@XZ
  00294	8d 4d ec	 lea	 ecx, DWORD PTR _strMarketCode$[ebp]
  00297	ff 15 00 00 00
	00		 call	 DWORD PTR __imp_??1?$CStringT@DV?$StrTraitMFC_DLL@DV?$ChTraitsCRT@D@ATL@@@@@ATL@@QAE@XZ
  0029d	8d 4d e4	 lea	 ecx, DWORD PTR _strTitle$[ebp]
  002a0	ff 15 00 00 00
	00		 call	 DWORD PTR __imp_??1?$CStringT@DV?$StrTraitMFC_DLL@DV?$ChTraitsCRT@D@ATL@@@@@ATL@@QAE@XZ
  002a6	8b c6		 mov	 eax, esi

; 536  : }

  002a8	8b 4d f4	 mov	 ecx, DWORD PTR __$EHRec$[ebp]
  002ab	64 89 0d 00 00
	00 00		 mov	 DWORD PTR fs:0, ecx
  002b2	59		 pop	 ecx
  002b3	5f		 pop	 edi
  002b4	5e		 pop	 esi
  002b5	8b e5		 mov	 esp, ebp
  002b7	5d		 pop	 ebp
  002b8	c2 08 00	 ret	 8
_TEXT	ENDS
;	COMDAT text$x
text$x	SEGMENT
__unwindfunclet$?GetStockMasterData@CCondTarget@@QAEHAAVCStringArray@@0@Z$0:
  00000	8d 4d e4	 lea	 ecx, DWORD PTR _strTitle$[ebp]
  00003	ff 25 00 00 00
	00		 jmp	 DWORD PTR __imp_??1?$CStringT@DV?$StrTraitMFC_DLL@DV?$ChTraitsCRT@D@ATL@@@@@ATL@@QAE@XZ
__unwindfunclet$?GetStockMasterData@CCondTarget@@QAEHAAVCStringArray@@0@Z$1:
  00009	8d 4d ec	 lea	 ecx, DWORD PTR _strMarketCode$[ebp]
  0000c	ff 25 00 00 00
	00		 jmp	 DWORD PTR __imp_??1?$CStringT@DV?$StrTraitMFC_DLL@DV?$ChTraitsCRT@D@ATL@@@@@ATL@@QAE@XZ
__unwindfunclet$?GetStockMasterData@CCondTarget@@QAEHAAVCStringArray@@0@Z$2:
  00012	8d 4d f0	 lea	 ecx, DWORD PTR _strType$[ebp]
  00015	ff 25 00 00 00
	00		 jmp	 DWORD PTR __imp_??1?$CStringT@DV?$StrTraitMFC_DLL@DV?$ChTraitsCRT@D@ATL@@@@@ATL@@QAE@XZ
__unwindfunclet$?GetStockMasterData@CCondTarget@@QAEHAAVCStringArray@@0@Z$3:
  0001b	8b 4d e0	 mov	 ecx, DWORD PTR $T4[ebp]
  0001e	ff 25 00 00 00
	00		 jmp	 DWORD PTR __imp_??1?$CStringT@DV?$StrTraitMFC_DLL@DV?$ChTraitsCRT@D@ATL@@@@@ATL@@QAE@XZ
__unwindfunclet$?GetStockMasterData@CCondTarget@@QAEHAAVCStringArray@@0@Z$5:
  00024	8d 4d e8	 lea	 ecx, DWORD PTR $T6[ebp]
  00027	ff 25 00 00 00
	00		 jmp	 DWORD PTR __imp_??1?$CStringT@DV?$StrTraitMFC_DLL@DV?$ChTraitsCRT@D@ATL@@@@@ATL@@QAE@XZ
__unwindfunclet$?GetStockMasterData@CCondTarget@@QAEHAAVCStringArray@@0@Z$6:
  0002d	8b 4d dc	 mov	 ecx, DWORD PTR $T3[ebp]
  00030	ff 25 00 00 00
	00		 jmp	 DWORD PTR __imp_??1?$CStringT@DV?$StrTraitMFC_DLL@DV?$ChTraitsCRT@D@ATL@@@@@ATL@@QAE@XZ
__unwindfunclet$?GetStockMasterData@CCondTarget@@QAEHAAVCStringArray@@0@Z$8:
  00036	8d 4d e8	 lea	 ecx, DWORD PTR $T5[ebp]
  00039	ff 25 00 00 00
	00		 jmp	 DWORD PTR __imp_??1?$CStringT@DV?$StrTraitMFC_DLL@DV?$ChTraitsCRT@D@ATL@@@@@ATL@@QAE@XZ
__unwindfunclet$?GetStockMasterData@CCondTarget@@QAEHAAVCStringArray@@0@Z$9:
  0003f	8b 4d dc	 mov	 ecx, DWORD PTR $T2[ebp]
  00042	ff 25 00 00 00
	00		 jmp	 DWORD PTR __imp_??1?$CStringT@DV?$StrTraitMFC_DLL@DV?$ChTraitsCRT@D@ATL@@@@@ATL@@QAE@XZ
  00048	cc		 int	 3
  00049	cc		 int	 3
  0004a	cc		 int	 3
  0004b	cc		 int	 3
  0004c	cc		 int	 3
__ehhandler$?GetStockMasterData@CCondTarget@@QAEHAAVCStringArray@@0@Z:
  0004d	90		 npad	 1
  0004e	90		 npad	 1
  0004f	8b 54 24 08	 mov	 edx, DWORD PTR [esp+8]
  00053	8d 42 0c	 lea	 eax, DWORD PTR [edx+12]
  00056	8b 4a dc	 mov	 ecx, DWORD PTR [edx-36]
  00059	33 c8		 xor	 ecx, eax
  0005b	e8 00 00 00 00	 call	 @__security_check_cookie@4
  00060	b8 00 00 00 00	 mov	 eax, OFFSET __ehfuncinfo$?GetStockMasterData@CCondTarget@@QAEHAAVCStringArray@@0@Z
  00065	e9 00 00 00 00	 jmp	 ___CxxFrameHandler3
text$x	ENDS
?GetStockMasterData@CCondTarget@@QAEHAAVCStringArray@@0@Z ENDP ; CCondTarget::GetStockMasterData
; Function compile flags: /Ogtp
; File D:\git\src\IBK\IBK_DRFN\ProjSrc\SrcDrfn\Chart\MULTICHART\CondTarget.cpp
; File C:\Program Files (x86)\Microsoft Visual Studio\2019\Community\VC\Tools\MSVC\14.29.30133\atlmfc\include\atlsimpstr.h
; File D:\git\src\IBK\IBK_DRFN\ProjSrc\SrcDrfn\Chart\MULTICHART\CondTarget.cpp
; File C:\Program Files (x86)\Microsoft Visual Studio\2019\Community\VC\Tools\MSVC\14.29.30133\atlmfc\include\atlsimpstr.h
; File D:\git\src\IBK\IBK_DRFN\ProjSrc\SrcDrfn\Chart\MULTICHART\CondTarget.cpp
;	COMDAT ?Parser@CCondTarget@@QAE?AV?$CStringT@DV?$StrTraitMFC_DLL@DV?$ChTraitsCRT@D@ATL@@@@@ATL@@AAV23@V23@@Z
_TEXT	SEGMENT
$T2 = -16						; size = 4
__$EHRec$ = -12						; size = 12
___$ReturnUdt$ = 8					; size = 4
_sTmp$3 = 12						; size = 4
_sTmp$4 = 12						; size = 4
_sSrc$ = 12						; size = 4
_sDelimiter$ = 16					; size = 4
?Parser@CCondTarget@@QAE?AV?$CStringT@DV?$StrTraitMFC_DLL@DV?$ChTraitsCRT@D@ATL@@@@@ATL@@AAV23@V23@@Z PROC ; CCondTarget::Parser, COMDAT
; _this$ = ecx

; 648  : {

  00000	55		 push	 ebp
  00001	8b ec		 mov	 ebp, esp
  00003	6a ff		 push	 -1
  00005	68 00 00 00 00	 push	 __ehhandler$?Parser@CCondTarget@@QAE?AV?$CStringT@DV?$StrTraitMFC_DLL@DV?$ChTraitsCRT@D@ATL@@@@@ATL@@AAV23@V23@@Z
  0000a	64 a1 00 00 00
	00		 mov	 eax, DWORD PTR fs:0
  00010	50		 push	 eax
  00011	51		 push	 ecx
  00012	56		 push	 esi
  00013	57		 push	 edi
  00014	a1 00 00 00 00	 mov	 eax, DWORD PTR ___security_cookie
  00019	33 c5		 xor	 eax, ebp
  0001b	50		 push	 eax
  0001c	8d 45 f4	 lea	 eax, DWORD PTR __$EHRec$[ebp]
  0001f	64 a3 00 00 00
	00		 mov	 DWORD PTR fs:0, eax

; 649  : 	if (sSrc.Find(sDelimiter) == -1)

  00025	8b 7d 0c	 mov	 edi, DWORD PTR _sSrc$[ebp]
  00028	8b cf		 mov	 ecx, edi
  0002a	6a 00		 push	 0
  0002c	ff 75 10	 push	 DWORD PTR _sDelimiter$[ebp]
  0002f	c7 45 fc 00 00
	00 00		 mov	 DWORD PTR __$EHRec$[ebp+8], 0
  00036	ff 15 00 00 00
	00		 call	 DWORD PTR __imp_?Find@?$CStringT@DV?$StrTraitMFC_DLL@DV?$ChTraitsCRT@D@ATL@@@@@ATL@@QBEHPBDH@Z
  0003c	83 f8 ff	 cmp	 eax, -1
  0003f	75 18		 jne	 SHORT $LN2@Parser

; 650  : 	{
; 651  : 		CString sTmp = sSrc;

  00041	57		 push	 edi
  00042	8d 4d 0c	 lea	 ecx, DWORD PTR _sTmp$4[ebp]
  00045	ff 15 00 00 00
	00		 call	 DWORD PTR __imp_??0?$CStringT@DV?$StrTraitMFC_DLL@DV?$ChTraitsCRT@D@ATL@@@@@ATL@@QAE@ABV01@@Z

; 652  : 		sSrc.Empty();

  0004b	8b cf		 mov	 ecx, edi
  0004d	c6 45 fc 01	 mov	 BYTE PTR __$EHRec$[ebp+8], 1
  00051	ff 15 00 00 00
	00		 call	 DWORD PTR __imp_?Empty@?$CSimpleStringT@D$00@ATL@@QAEXXZ

; 653  : 		return sTmp;

  00057	eb 58		 jmp	 SHORT $LN22@Parser
$LN2@Parser:

; 654  : 	}
; 655  : 	else
; 656  : 	{
; 657  : 		CString sTmp = sSrc.Left(sSrc.Find(sDelimiter));

  00059	6a 00		 push	 0
  0005b	ff 75 10	 push	 DWORD PTR _sDelimiter$[ebp]
  0005e	8b cf		 mov	 ecx, edi
  00060	ff 15 00 00 00
	00		 call	 DWORD PTR __imp_?Find@?$CStringT@DV?$StrTraitMFC_DLL@DV?$ChTraitsCRT@D@ATL@@@@@ATL@@QBEHPBDH@Z
  00066	50		 push	 eax
  00067	8d 45 0c	 lea	 eax, DWORD PTR _sTmp$3[ebp]
  0006a	8b cf		 mov	 ecx, edi
  0006c	50		 push	 eax
  0006d	ff 15 00 00 00
	00		 call	 DWORD PTR __imp_?Left@?$CStringT@DV?$StrTraitMFC_DLL@DV?$ChTraitsCRT@D@ATL@@@@@ATL@@QBE?AV12@H@Z
; File C:\Program Files (x86)\Microsoft Visual Studio\2019\Community\VC\Tools\MSVC\14.29.30133\atlmfc\include\atlsimpstr.h

; 519  : 		return( GetData()->nDataLength );

  00073	8b 45 10	 mov	 eax, DWORD PTR _sDelimiter$[ebp]
; File D:\git\src\IBK\IBK_DRFN\ProjSrc\SrcDrfn\Chart\MULTICHART\CondTarget.cpp

; 658  : 		sSrc = sSrc.Mid(sSrc.Find(sDelimiter) + sDelimiter.GetLength());

  00076	8b cf		 mov	 ecx, edi
  00078	6a 00		 push	 0
  0007a	50		 push	 eax
  0007b	c6 45 fc 02	 mov	 BYTE PTR __$EHRec$[ebp+8], 2
; File C:\Program Files (x86)\Microsoft Visual Studio\2019\Community\VC\Tools\MSVC\14.29.30133\atlmfc\include\atlsimpstr.h

; 519  : 		return( GetData()->nDataLength );

  0007f	8b 70 f4	 mov	 esi, DWORD PTR [eax-12]
; File D:\git\src\IBK\IBK_DRFN\ProjSrc\SrcDrfn\Chart\MULTICHART\CondTarget.cpp

; 658  : 		sSrc = sSrc.Mid(sSrc.Find(sDelimiter) + sDelimiter.GetLength());

  00082	ff 15 00 00 00
	00		 call	 DWORD PTR __imp_?Find@?$CStringT@DV?$StrTraitMFC_DLL@DV?$ChTraitsCRT@D@ATL@@@@@ATL@@QBEHPBDH@Z
  00088	03 c6		 add	 eax, esi
  0008a	8b cf		 mov	 ecx, edi
  0008c	50		 push	 eax
  0008d	8d 45 f0	 lea	 eax, DWORD PTR $T2[ebp]
  00090	50		 push	 eax
  00091	ff 15 00 00 00
	00		 call	 DWORD PTR __imp_?Mid@?$CStringT@DV?$StrTraitMFC_DLL@DV?$ChTraitsCRT@D@ATL@@@@@ATL@@QBE?AV12@H@Z
  00097	50		 push	 eax
  00098	8b cf		 mov	 ecx, edi
  0009a	c6 45 fc 03	 mov	 BYTE PTR __$EHRec$[ebp+8], 3
  0009e	ff 15 00 00 00
	00		 call	 DWORD PTR __imp_??4?$CStringT@DV?$StrTraitMFC_DLL@DV?$ChTraitsCRT@D@ATL@@@@@ATL@@QAEAAV01@ABV01@@Z
  000a4	8d 4d f0	 lea	 ecx, DWORD PTR $T2[ebp]
  000a7	c6 45 fc 02	 mov	 BYTE PTR __$EHRec$[ebp+8], 2
  000ab	ff 15 00 00 00
	00		 call	 DWORD PTR __imp_??1?$CStringT@DV?$StrTraitMFC_DLL@DV?$ChTraitsCRT@D@ATL@@@@@ATL@@QAE@XZ
$LN22@Parser:

; 659  : 		return sTmp;
; 660  : 	}
; 661  : 	
; 662  : 	return "";
; 663  : }

  000b1	8b 4d 08	 mov	 ecx, DWORD PTR ___$ReturnUdt$[ebp]
  000b4	8d 45 0c	 lea	 eax, DWORD PTR _sTmp$3[ebp]
  000b7	50		 push	 eax
  000b8	ff 15 00 00 00
	00		 call	 DWORD PTR __imp_??0?$CStringT@DV?$StrTraitMFC_DLL@DV?$ChTraitsCRT@D@ATL@@@@@ATL@@QAE@ABV01@@Z
  000be	8d 4d 0c	 lea	 ecx, DWORD PTR _sTmp$3[ebp]
  000c1	ff 15 00 00 00
	00		 call	 DWORD PTR __imp_??1?$CStringT@DV?$StrTraitMFC_DLL@DV?$ChTraitsCRT@D@ATL@@@@@ATL@@QAE@XZ
  000c7	8d 4d 10	 lea	 ecx, DWORD PTR _sDelimiter$[ebp]
  000ca	ff 15 00 00 00
	00		 call	 DWORD PTR __imp_??1?$CStringT@DV?$StrTraitMFC_DLL@DV?$ChTraitsCRT@D@ATL@@@@@ATL@@QAE@XZ
  000d0	8b 45 08	 mov	 eax, DWORD PTR ___$ReturnUdt$[ebp]
  000d3	8b 4d f4	 mov	 ecx, DWORD PTR __$EHRec$[ebp]
  000d6	64 89 0d 00 00
	00 00		 mov	 DWORD PTR fs:0, ecx
  000dd	59		 pop	 ecx
  000de	5f		 pop	 edi
  000df	5e		 pop	 esi
  000e0	8b e5		 mov	 esp, ebp
  000e2	5d		 pop	 ebp
  000e3	c2 0c 00	 ret	 12			; 0000000cH
_TEXT	ENDS
;	COMDAT text$x
text$x	SEGMENT
__unwindfunclet$?Parser@CCondTarget@@QAE?AV?$CStringT@DV?$StrTraitMFC_DLL@DV?$ChTraitsCRT@D@ATL@@@@@ATL@@AAV23@V23@@Z$0:
  00000	8d 4d 10	 lea	 ecx, DWORD PTR _sDelimiter$[ebp]
  00003	ff 25 00 00 00
	00		 jmp	 DWORD PTR __imp_??1?$CStringT@DV?$StrTraitMFC_DLL@DV?$ChTraitsCRT@D@ATL@@@@@ATL@@QAE@XZ
__unwindfunclet$?Parser@CCondTarget@@QAE?AV?$CStringT@DV?$StrTraitMFC_DLL@DV?$ChTraitsCRT@D@ATL@@@@@ATL@@AAV23@V23@@Z$1:
  00009	8d 4d 0c	 lea	 ecx, DWORD PTR _sTmp$4[ebp]
  0000c	ff 25 00 00 00
	00		 jmp	 DWORD PTR __imp_??1?$CStringT@DV?$StrTraitMFC_DLL@DV?$ChTraitsCRT@D@ATL@@@@@ATL@@QAE@XZ
__unwindfunclet$?Parser@CCondTarget@@QAE?AV?$CStringT@DV?$StrTraitMFC_DLL@DV?$ChTraitsCRT@D@ATL@@@@@ATL@@AAV23@V23@@Z$3:
  00012	8d 4d 0c	 lea	 ecx, DWORD PTR _sTmp$3[ebp]
  00015	ff 25 00 00 00
	00		 jmp	 DWORD PTR __imp_??1?$CStringT@DV?$StrTraitMFC_DLL@DV?$ChTraitsCRT@D@ATL@@@@@ATL@@QAE@XZ
__unwindfunclet$?Parser@CCondTarget@@QAE?AV?$CStringT@DV?$StrTraitMFC_DLL@DV?$ChTraitsCRT@D@ATL@@@@@ATL@@AAV23@V23@@Z$4:
  0001b	8d 4d f0	 lea	 ecx, DWORD PTR $T2[ebp]
  0001e	ff 25 00 00 00
	00		 jmp	 DWORD PTR __imp_??1?$CStringT@DV?$StrTraitMFC_DLL@DV?$ChTraitsCRT@D@ATL@@@@@ATL@@QAE@XZ
  00024	cc		 int	 3
  00025	cc		 int	 3
  00026	cc		 int	 3
  00027	cc		 int	 3
  00028	cc		 int	 3
__ehhandler$?Parser@CCondTarget@@QAE?AV?$CStringT@DV?$StrTraitMFC_DLL@DV?$ChTraitsCRT@D@ATL@@@@@ATL@@AAV23@V23@@Z:
  00029	90		 npad	 1
  0002a	90		 npad	 1
  0002b	8b 54 24 08	 mov	 edx, DWORD PTR [esp+8]
  0002f	8d 42 0c	 lea	 eax, DWORD PTR [edx+12]
  00032	8b 4a f0	 mov	 ecx, DWORD PTR [edx-16]
  00035	33 c8		 xor	 ecx, eax
  00037	e8 00 00 00 00	 call	 @__security_check_cookie@4
  0003c	b8 00 00 00 00	 mov	 eax, OFFSET __ehfuncinfo$?Parser@CCondTarget@@QAE?AV?$CStringT@DV?$StrTraitMFC_DLL@DV?$ChTraitsCRT@D@ATL@@@@@ATL@@AAV23@V23@@Z
  00041	e9 00 00 00 00	 jmp	 ___CxxFrameHandler3
text$x	ENDS
?Parser@CCondTarget@@QAE?AV?$CStringT@DV?$StrTraitMFC_DLL@DV?$ChTraitsCRT@D@ATL@@@@@ATL@@AAV23@V23@@Z ENDP ; CCondTarget::Parser
; Function compile flags: /Ogtp
; File D:\git\src\IBK\IBK_DRFN\ProjSrc\SrcDrfn\Chart\MULTICHART\CondTarget.cpp
; File C:\Program Files (x86)\Microsoft Visual Studio\2019\Community\VC\Tools\MSVC\14.29.30133\atlmfc\include\afxcoll.inl
; File D:\git\src\IBK\IBK_DRFN\ProjSrc\SrcDrfn\Chart\MULTICHART\CondTarget.cpp
; File C:\Program Files (x86)\Microsoft Visual Studio\2019\Community\VC\Tools\MSVC\14.29.30133\atlmfc\include\afxcoll.inl
; File D:\git\src\IBK\IBK_DRFN\ProjSrc\SrcDrfn\Chart\MULTICHART\CondTarget.cpp
; File C:\Program Files (x86)\Microsoft Visual Studio\2019\Community\VC\Tools\MSVC\14.29.30133\atlmfc\include\atlsimpstr.h
; File D:\git\src\IBK\IBK_DRFN\ProjSrc\SrcDrfn\Chart\MULTICHART\CondTarget.cpp
; File C:\Program Files (x86)\Microsoft Visual Studio\2019\Community\VC\Tools\MSVC\14.29.30133\atlmfc\include\cstringt.h
; File D:\git\src\IBK\IBK_DRFN\ProjSrc\SrcDrfn\Chart\MULTICHART\CondTarget.cpp
; File C:\Program Files (x86)\Microsoft Visual Studio\2019\Community\VC\Tools\MSVC\14.29.30133\atlmfc\include\atlsimpstr.h
; File D:\git\src\IBK\IBK_DRFN\ProjSrc\SrcDrfn\Chart\MULTICHART\CondTarget.cpp
; File C:\Program Files (x86)\Microsoft Visual Studio\2019\Community\VC\Tools\MSVC\14.29.30133\atlmfc\include\atlsimpstr.h
; File D:\git\src\IBK\IBK_DRFN\ProjSrc\SrcDrfn\Chart\MULTICHART\CondTarget.cpp
; File C:\Program Files (x86)\Microsoft Visual Studio\2019\Community\VC\Tools\MSVC\14.29.30133\atlmfc\include\atlsimpstr.h
; File D:\git\src\IBK\IBK_DRFN\ProjSrc\SrcDrfn\Chart\MULTICHART\CondTarget.cpp
; File C:\Program Files (x86)\Microsoft Visual Studio\2019\Community\VC\Tools\MSVC\14.29.30133\atlmfc\include\afxcoll.inl
; File D:\git\src\IBK\IBK_DRFN\ProjSrc\SrcDrfn\Chart\MULTICHART\CondTarget.cpp
;	COMDAT ?GetItemCodeFromThemeGroup@CCondTarget@@QAEXAAVCStringArray@@V?$CStringT@DV?$StrTraitMFC_DLL@DV?$ChTraitsCRT@D@ATL@@@@@ATL@@@Z
_TEXT	SEGMENT
tv419 = -1084						; size = 4
$T2 = -1084						; size = 4
_sTmp$3 = -1080						; size = 4
_sTmp$4 = -1076						; size = 4
_sFile$ = -1072						; size = 4
_sName$5 = -1068					; size = 4
$T6 = -1064						; size = 4
_sData$7 = -1060					; size = 4
_sTheCode$8 = -1056					; size = 4
_sCode$9 = -1052					; size = 4
_sKey$10 = -1048					; size = 4
_sCList$11 = -1044					; size = 4
_szCList$12 = -1040					; size = 512
_szBuf$13 = -528					; size = 512
__$ArrayPad$ = -16					; size = 4
__$EHRec$ = -12						; size = 12
_arrCode$ = 8						; size = 4
_strThemeIndex$ = 12					; size = 4
?GetItemCodeFromThemeGroup@CCondTarget@@QAEXAAVCStringArray@@V?$CStringT@DV?$StrTraitMFC_DLL@DV?$ChTraitsCRT@D@ATL@@@@@ATL@@@Z PROC ; CCondTarget::GetItemCodeFromThemeGroup, COMDAT
; _this$ = ecx

; 588  : {

  00000	55		 push	 ebp
  00001	8b ec		 mov	 ebp, esp
  00003	6a ff		 push	 -1
  00005	68 00 00 00 00	 push	 __ehhandler$?GetItemCodeFromThemeGroup@CCondTarget@@QAEXAAVCStringArray@@V?$CStringT@DV?$StrTraitMFC_DLL@DV?$ChTraitsCRT@D@ATL@@@@@ATL@@@Z
  0000a	64 a1 00 00 00
	00		 mov	 eax, DWORD PTR fs:0
  00010	50		 push	 eax
  00011	81 ec 30 04 00
	00		 sub	 esp, 1072		; 00000430H
  00017	a1 00 00 00 00	 mov	 eax, DWORD PTR ___security_cookie
  0001c	33 c5		 xor	 eax, ebp
  0001e	89 45 f0	 mov	 DWORD PTR __$ArrayPad$[ebp], eax
  00021	53		 push	 ebx
  00022	56		 push	 esi
  00023	57		 push	 edi
  00024	50		 push	 eax
  00025	8d 45 f4	 lea	 eax, DWORD PTR __$EHRec$[ebp]
  00028	64 a3 00 00 00
	00		 mov	 DWORD PTR fs:0, eax
  0002e	8b f1		 mov	 esi, ecx
  00030	8b 5d 08	 mov	 ebx, DWORD PTR _arrCode$[ebp]
; File C:\Program Files (x86)\Microsoft Visual Studio\2019\Community\VC\Tools\MSVC\14.29.30133\atlmfc\include\afxcoll.inl

; 286  : 	{ SetSize(0); }

  00033	6a ff		 push	 -1
  00035	6a 00		 push	 0
  00037	8b cb		 mov	 ecx, ebx
; File D:\git\src\IBK\IBK_DRFN\ProjSrc\SrcDrfn\Chart\MULTICHART\CondTarget.cpp

; 588  : {

  00039	c7 45 fc 00 00
	00 00		 mov	 DWORD PTR __$EHRec$[ebp+8], 0
; File C:\Program Files (x86)\Microsoft Visual Studio\2019\Community\VC\Tools\MSVC\14.29.30133\atlmfc\include\afxcoll.inl

; 286  : 	{ SetSize(0); }

  00040	e8 00 00 00 00	 call	 ?SetSize@CStringArray@@QAEXHH@Z ; CStringArray::SetSize
; File D:\git\src\IBK\IBK_DRFN\ProjSrc\SrcDrfn\Chart\MULTICHART\CondTarget.cpp

; 591  : 	CString sFile;

  00045	8d 8d d0 fb ff
	ff		 lea	 ecx, DWORD PTR _sFile$[ebp]
  0004b	ff 15 00 00 00
	00		 call	 DWORD PTR __imp_??0?$CStringT@DV?$StrTraitMFC_DLL@DV?$ChTraitsCRT@D@ATL@@@@@ATL@@QAE@XZ

; 592  : 	sFile.Format("%s\\tab\\%s", m_strRootDir, FILE_THEME);

  00051	ff 35 00 00 00
	00		 push	 DWORD PTR ?FILE_THEME@@3PBDB
  00057	8b 3d 00 00 00
	00		 mov	 edi, DWORD PTR __imp_?Format@?$CStringT@DV?$StrTraitMFC_DLL@DV?$ChTraitsCRT@D@ATL@@@@@ATL@@QAAXPBDZZ
  0005d	8d 85 d0 fb ff
	ff		 lea	 eax, DWORD PTR _sFile$[ebp]
  00063	ff 76 08	 push	 DWORD PTR [esi+8]
  00066	c6 45 fc 01	 mov	 BYTE PTR __$EHRec$[ebp+8], 1
  0006a	68 00 00 00 00	 push	 OFFSET ??_C@_09PNJEFEEK@?$CFs?2tab?2?$CFs@
  0006f	50		 push	 eax
  00070	ff d7		 call	 edi
  00072	83 c4 10	 add	 esp, 16			; 00000010H

; 593  : 	
; 594  : 	for (int i = 0; ; i++)

  00075	33 f6		 xor	 esi, esi
  00077	66 0f 1f 84 00
	00 00 00 00	 npad	 9
$LL4@GetItemCod:

; 595  : 	{
; 596  : 		char szBuf[BUFSIZ] = { 0x00, };

  00080	68 00 02 00 00	 push	 512			; 00000200H
  00085	8d 85 f0 fd ff
	ff		 lea	 eax, DWORD PTR _szBuf$13[ebp]
  0008b	6a 00		 push	 0
  0008d	50		 push	 eax
  0008e	e8 00 00 00 00	 call	 _memset
  00093	83 c4 0c	 add	 esp, 12			; 0000000cH

; 597  : 		CString sKey;

  00096	8d 8d e8 fb ff
	ff		 lea	 ecx, DWORD PTR _sKey$10[ebp]
  0009c	ff 15 00 00 00
	00		 call	 DWORD PTR __imp_??0?$CStringT@DV?$StrTraitMFC_DLL@DV?$ChTraitsCRT@D@ATL@@@@@ATL@@QAE@XZ
  000a2	c6 45 fc 02	 mov	 BYTE PTR __$EHRec$[ebp+8], 2

; 598  : 		
; 599  : 		if (i < 100)

  000a6	8d 85 e8 fb ff
	ff		 lea	 eax, DWORD PTR _sKey$10[ebp]
  000ac	56		 push	 esi
  000ad	83 fe 64	 cmp	 esi, 100		; 00000064H
  000b0	7d 07		 jge	 SHORT $LN7@GetItemCod

; 600  : 			sKey.Format("%02d", i);

  000b2	68 00 00 00 00	 push	 OFFSET ??_C@_04OGKJMPGK@?$CF02d@
  000b7	eb 05		 jmp	 SHORT $LN80@GetItemCod
$LN7@GetItemCod:

; 601  : 		else
; 602  : 			sKey.Format("%03d", i);

  000b9	68 00 00 00 00	 push	 OFFSET ??_C@_04OHGLKFFN@?$CF03d@
$LN80@GetItemCod:

; 603  : 		
; 604  : 		GetPrivateProfileString("FOLDER", sKey, "", szBuf, sizeof(szBuf), sFile);

  000be	50		 push	 eax
  000bf	ff d7		 call	 edi
  000c1	83 c4 0c	 add	 esp, 12			; 0000000cH
  000c4	8d 85 f0 fd ff
	ff		 lea	 eax, DWORD PTR _szBuf$13[ebp]
  000ca	ff b5 d0 fb ff
	ff		 push	 DWORD PTR _sFile$[ebp]
  000d0	68 00 02 00 00	 push	 512			; 00000200H
  000d5	50		 push	 eax
  000d6	68 00 00 00 00	 push	 OFFSET ??_C@_00CNPNBAHC@@
  000db	ff b5 e8 fb ff
	ff		 push	 DWORD PTR _sKey$10[ebp]
  000e1	68 00 00 00 00	 push	 OFFSET ??_C@_06MMOPNCKE@FOLDER@
  000e6	ff 15 00 00 00
	00		 call	 DWORD PTR __imp__GetPrivateProfileStringA@24

; 605  : 		
; 606  : 		if (strlen(szBuf) <= 0)

  000ec	8d 85 f0 fd ff
	ff		 lea	 eax, DWORD PTR _szBuf$13[ebp]
  000f2	8d 50 01	 lea	 edx, DWORD PTR [eax+1]
$LL78@GetItemCod:
  000f5	8a 08		 mov	 cl, BYTE PTR [eax]
  000f7	40		 inc	 eax
  000f8	84 c9		 test	 cl, cl
  000fa	75 f9		 jne	 SHORT $LL78@GetItemCod
  000fc	2b c2		 sub	 eax, edx
  000fe	0f 84 cb 02 00
	00		 je	 $LN72@GetItemCod

; 607  : 			break;
; 608  : 		
; 609  : 		CString sData = szBuf;

  00104	8d 85 f0 fd ff
	ff		 lea	 eax, DWORD PTR _szBuf$13[ebp]
  0010a	50		 push	 eax
  0010b	8d 8d dc fb ff
	ff		 lea	 ecx, DWORD PTR _sData$7[ebp]
  00111	ff 15 00 00 00
	00		 call	 DWORD PTR __imp_??0?$CStringT@DV?$StrTraitMFC_DLL@DV?$ChTraitsCRT@D@ATL@@@@@ATL@@QAE@PBD@Z
; File C:\Program Files (x86)\Microsoft Visual Studio\2019\Community\VC\Tools\MSVC\14.29.30133\atlmfc\include\atlsimpstr.h

; 519  : 		return( GetData()->nDataLength );

  00117	8b 85 dc fb ff
	ff		 mov	 eax, DWORD PTR _sData$7[ebp]
; File D:\git\src\IBK\IBK_DRFN\ProjSrc\SrcDrfn\Chart\MULTICHART\CondTarget.cpp

; 611  : 		if (sData.GetLength() < 33)

  0011d	8d 8d dc fb ff
	ff		 lea	 ecx, DWORD PTR _sData$7[ebp]
  00123	c6 45 fc 03	 mov	 BYTE PTR __$EHRec$[ebp+8], 3
  00127	83 78 f4 21	 cmp	 DWORD PTR [eax-12], 33	; 00000021H
  0012b	0f 8c 8d 00 00
	00		 jl	 $LN81@GetItemCod

; 612  : 			continue;
; 613  : 		
; 614  : 		CString sName = sData.Left(30);

  00131	6a 1e		 push	 30			; 0000001eH
  00133	8d 85 d4 fb ff
	ff		 lea	 eax, DWORD PTR _sName$5[ebp]
  00139	50		 push	 eax
  0013a	ff 15 00 00 00
	00		 call	 DWORD PTR __imp_?Left@?$CStringT@DV?$StrTraitMFC_DLL@DV?$ChTraitsCRT@D@ATL@@@@@ATL@@QBE?AV12@H@Z

; 615  : 		CString sTheCode = sData.Right(3);

  00140	6a 03		 push	 3
  00142	8d 85 e0 fb ff
	ff		 lea	 eax, DWORD PTR _sTheCode$8[ebp]
  00148	c6 45 fc 04	 mov	 BYTE PTR __$EHRec$[ebp+8], 4
  0014c	50		 push	 eax
  0014d	8d 8d dc fb ff
	ff		 lea	 ecx, DWORD PTR _sData$7[ebp]
  00153	ff 15 00 00 00
	00		 call	 DWORD PTR __imp_?Right@?$CStringT@DV?$StrTraitMFC_DLL@DV?$ChTraitsCRT@D@ATL@@@@@ATL@@QBE?AV12@H@Z

; 616  : 		
; 617  : 		sName.TrimLeft(); sName.TrimRight();

  00159	8d 8d d4 fb ff
	ff		 lea	 ecx, DWORD PTR _sName$5[ebp]
  0015f	c6 45 fc 05	 mov	 BYTE PTR __$EHRec$[ebp+8], 5
  00163	ff 15 00 00 00
	00		 call	 DWORD PTR __imp_?TrimLeft@?$CStringT@DV?$StrTraitMFC_DLL@DV?$ChTraitsCRT@D@ATL@@@@@ATL@@QAEAAV12@XZ
  00169	8d 8d d4 fb ff
	ff		 lea	 ecx, DWORD PTR _sName$5[ebp]
  0016f	ff 15 00 00 00
	00		 call	 DWORD PTR __imp_?TrimRight@?$CStringT@DV?$StrTraitMFC_DLL@DV?$ChTraitsCRT@D@ATL@@@@@ATL@@QAEAAV12@XZ

; 618  : 		sTheCode.TrimLeft(); sTheCode.TrimRight();

  00175	8d 8d e0 fb ff
	ff		 lea	 ecx, DWORD PTR _sTheCode$8[ebp]
  0017b	ff 15 00 00 00
	00		 call	 DWORD PTR __imp_?TrimLeft@?$CStringT@DV?$StrTraitMFC_DLL@DV?$ChTraitsCRT@D@ATL@@@@@ATL@@QAEAAV12@XZ
  00181	8d 8d e0 fb ff
	ff		 lea	 ecx, DWORD PTR _sTheCode$8[ebp]
  00187	ff 15 00 00 00
	00		 call	 DWORD PTR __imp_?TrimRight@?$CStringT@DV?$StrTraitMFC_DLL@DV?$ChTraitsCRT@D@ATL@@@@@ATL@@QAEAAV12@XZ
; File C:\Program Files (x86)\Microsoft Visual Studio\2019\Community\VC\Tools\MSVC\14.29.30133\atlmfc\include\cstringt.h

; 2560 : 		return( str1.Compare( str2 ) != 0 );

  0018d	ff b5 e0 fb ff
	ff		 push	 DWORD PTR _sTheCode$8[ebp]
  00193	8d 4d 0c	 lea	 ecx, DWORD PTR _strThemeIndex$[ebp]
  00196	ff 15 00 00 00
	00		 call	 DWORD PTR __imp_?Compare@?$CStringT@DV?$StrTraitMFC_DLL@DV?$ChTraitsCRT@D@ATL@@@@@ATL@@QBEHPBD@Z
  0019c	85 c0		 test	 eax, eax
; File D:\git\src\IBK\IBK_DRFN\ProjSrc\SrcDrfn\Chart\MULTICHART\CondTarget.cpp

; 620  : 		if(strThemeIndex != sTheCode)

  0019e	74 36		 je	 SHORT $LN11@GetItemCod

; 621  : 			continue;

  001a0	8d 8d e0 fb ff
	ff		 lea	 ecx, DWORD PTR _sTheCode$8[ebp]
  001a6	ff 15 00 00 00
	00		 call	 DWORD PTR __imp_??1?$CStringT@DV?$StrTraitMFC_DLL@DV?$ChTraitsCRT@D@ATL@@@@@ATL@@QAE@XZ
  001ac	8d 8d d4 fb ff
	ff		 lea	 ecx, DWORD PTR _sName$5[ebp]
  001b2	ff 15 00 00 00
	00		 call	 DWORD PTR __imp_??1?$CStringT@DV?$StrTraitMFC_DLL@DV?$ChTraitsCRT@D@ATL@@@@@ATL@@QAE@XZ
  001b8	8d 8d dc fb ff
	ff		 lea	 ecx, DWORD PTR _sData$7[ebp]
$LN81@GetItemCod:

; 593  : 	
; 594  : 	for (int i = 0; ; i++)

  001be	ff 15 00 00 00
	00		 call	 DWORD PTR __imp_??1?$CStringT@DV?$StrTraitMFC_DLL@DV?$ChTraitsCRT@D@ATL@@@@@ATL@@QAE@XZ
  001c4	8d 8d e8 fb ff
	ff		 lea	 ecx, DWORD PTR _sKey$10[ebp]
  001ca	ff 15 00 00 00
	00		 call	 DWORD PTR __imp_??1?$CStringT@DV?$StrTraitMFC_DLL@DV?$ChTraitsCRT@D@ATL@@@@@ATL@@QAE@XZ
  001d0	46		 inc	 esi
  001d1	e9 aa fe ff ff	 jmp	 $LL4@GetItemCod
$LN11@GetItemCod:

; 622  : 		
; 623  : 		char szCList[BUFSIZ] = { 0x00, };

  001d6	68 00 02 00 00	 push	 512			; 00000200H
  001db	8d 85 f0 fb ff
	ff		 lea	 eax, DWORD PTR _szCList$12[ebp]
  001e1	6a 00		 push	 0
  001e3	50		 push	 eax
  001e4	e8 00 00 00 00	 call	 _memset
  001e9	83 c4 0c	 add	 esp, 12			; 0000000cH

; 624  : 		GetPrivateProfileString("TMCODE", sTheCode, "", szCList, sizeof(szCList), sFile);

  001ec	8d 85 f0 fb ff
	ff		 lea	 eax, DWORD PTR _szCList$12[ebp]
  001f2	ff b5 d0 fb ff
	ff		 push	 DWORD PTR _sFile$[ebp]
  001f8	68 00 02 00 00	 push	 512			; 00000200H
  001fd	50		 push	 eax
  001fe	68 00 00 00 00	 push	 OFFSET ??_C@_00CNPNBAHC@@
  00203	ff b5 e0 fb ff
	ff		 push	 DWORD PTR _sTheCode$8[ebp]
  00209	68 00 00 00 00	 push	 OFFSET ??_C@_06CAHGAADJ@TMCODE@
  0020e	ff 15 00 00 00
	00		 call	 DWORD PTR __imp__GetPrivateProfileStringA@24

; 625  : 		
; 626  : 		CString sCList = szCList;

  00214	8d 85 f0 fb ff
	ff		 lea	 eax, DWORD PTR _szCList$12[ebp]
  0021a	50		 push	 eax
  0021b	8d 8d ec fb ff
	ff		 lea	 ecx, DWORD PTR _sCList$11[ebp]
  00221	ff 15 00 00 00
	00		 call	 DWORD PTR __imp_??0?$CStringT@DV?$StrTraitMFC_DLL@DV?$ChTraitsCRT@D@ATL@@@@@ATL@@QAE@PBD@Z
  00227	c6 45 fc 06	 mov	 BYTE PTR __$EHRec$[ebp+8], 6
  0022b	0f 1f 44 00 00	 npad	 5
$LL5@GetItemCod:

; 627  : 		while (1)
; 628  : 		{
; 629  : 			CString sCode = Parser(sCList, ";");

  00230	68 00 00 00 00	 push	 OFFSET ??_C@_01ICJEACDI@?$DL@
  00235	8d 8d d8 fb ff
	ff		 lea	 ecx, DWORD PTR $T6[ebp]
  0023b	ff 15 00 00 00
	00		 call	 DWORD PTR __imp_??0?$CStringT@DV?$StrTraitMFC_DLL@DV?$ChTraitsCRT@D@ATL@@@@@ATL@@QAE@PBD@Z

; 649  : 	if (sSrc.Find(sDelimiter) == -1)

  00241	6a 00		 push	 0
  00243	ff b5 d8 fb ff
	ff		 push	 DWORD PTR $T6[ebp]
  00249	8d 8d ec fb ff
	ff		 lea	 ecx, DWORD PTR _sCList$11[ebp]
  0024f	c6 45 fc 07	 mov	 BYTE PTR __$EHRec$[ebp+8], 7
  00253	ff 15 00 00 00
	00		 call	 DWORD PTR __imp_?Find@?$CStringT@DV?$StrTraitMFC_DLL@DV?$ChTraitsCRT@D@ATL@@@@@ATL@@QBEHPBDH@Z
  00259	83 f8 ff	 cmp	 eax, -1
  0025c	75 41		 jne	 SHORT $LN44@GetItemCod

; 650  : 	{
; 651  : 		CString sTmp = sSrc;

  0025e	8d 85 ec fb ff
	ff		 lea	 eax, DWORD PTR _sCList$11[ebp]
  00264	50		 push	 eax
  00265	8d 8d cc fb ff
	ff		 lea	 ecx, DWORD PTR _sTmp$4[ebp]
  0026b	ff 15 00 00 00
	00		 call	 DWORD PTR __imp_??0?$CStringT@DV?$StrTraitMFC_DLL@DV?$ChTraitsCRT@D@ATL@@@@@ATL@@QAE@ABV01@@Z

; 652  : 		sSrc.Empty();

  00271	8d 8d ec fb ff
	ff		 lea	 ecx, DWORD PTR _sCList$11[ebp]
  00277	c6 45 fc 08	 mov	 BYTE PTR __$EHRec$[ebp+8], 8
  0027b	ff 15 00 00 00
	00		 call	 DWORD PTR __imp_?Empty@?$CSimpleStringT@D$00@ATL@@QAEXXZ

; 653  : 		return sTmp;

  00281	8d 85 cc fb ff
	ff		 lea	 eax, DWORD PTR _sTmp$4[ebp]
  00287	50		 push	 eax
  00288	8d 8d e4 fb ff
	ff		 lea	 ecx, DWORD PTR _sCode$9[ebp]
  0028e	ff 15 00 00 00
	00		 call	 DWORD PTR __imp_??0?$CStringT@DV?$StrTraitMFC_DLL@DV?$ChTraitsCRT@D@ATL@@@@@ATL@@QAE@ABV01@@Z
  00294	8d 8d cc fb ff
	ff		 lea	 ecx, DWORD PTR _sTmp$4[ebp]
  0029a	e9 94 00 00 00	 jmp	 $LN82@GetItemCod
$LN44@GetItemCod:

; 654  : 	}
; 655  : 	else
; 656  : 	{
; 657  : 		CString sTmp = sSrc.Left(sSrc.Find(sDelimiter));

  0029f	6a 00		 push	 0
  002a1	ff b5 d8 fb ff
	ff		 push	 DWORD PTR $T6[ebp]
  002a7	8d 8d ec fb ff
	ff		 lea	 ecx, DWORD PTR _sCList$11[ebp]
  002ad	ff 15 00 00 00
	00		 call	 DWORD PTR __imp_?Find@?$CStringT@DV?$StrTraitMFC_DLL@DV?$ChTraitsCRT@D@ATL@@@@@ATL@@QBEHPBDH@Z
  002b3	50		 push	 eax
  002b4	8d 85 c8 fb ff
	ff		 lea	 eax, DWORD PTR _sTmp$3[ebp]
  002ba	50		 push	 eax
  002bb	8d 8d ec fb ff
	ff		 lea	 ecx, DWORD PTR _sCList$11[ebp]
  002c1	ff 15 00 00 00
	00		 call	 DWORD PTR __imp_?Left@?$CStringT@DV?$StrTraitMFC_DLL@DV?$ChTraitsCRT@D@ATL@@@@@ATL@@QBE?AV12@H@Z
; File C:\Program Files (x86)\Microsoft Visual Studio\2019\Community\VC\Tools\MSVC\14.29.30133\atlmfc\include\atlsimpstr.h

; 519  : 		return( GetData()->nDataLength );

  002c7	8b 85 d8 fb ff
	ff		 mov	 eax, DWORD PTR $T6[ebp]
; File D:\git\src\IBK\IBK_DRFN\ProjSrc\SrcDrfn\Chart\MULTICHART\CondTarget.cpp

; 658  : 		sSrc = sSrc.Mid(sSrc.Find(sDelimiter) + sDelimiter.GetLength());

  002cd	8d 8d ec fb ff
	ff		 lea	 ecx, DWORD PTR _sCList$11[ebp]
  002d3	6a 00		 push	 0
  002d5	50		 push	 eax
  002d6	c6 45 fc 09	 mov	 BYTE PTR __$EHRec$[ebp+8], 9
; File C:\Program Files (x86)\Microsoft Visual Studio\2019\Community\VC\Tools\MSVC\14.29.30133\atlmfc\include\atlsimpstr.h

; 519  : 		return( GetData()->nDataLength );

  002da	8b 70 f4	 mov	 esi, DWORD PTR [eax-12]
; File D:\git\src\IBK\IBK_DRFN\ProjSrc\SrcDrfn\Chart\MULTICHART\CondTarget.cpp

; 658  : 		sSrc = sSrc.Mid(sSrc.Find(sDelimiter) + sDelimiter.GetLength());

  002dd	ff 15 00 00 00
	00		 call	 DWORD PTR __imp_?Find@?$CStringT@DV?$StrTraitMFC_DLL@DV?$ChTraitsCRT@D@ATL@@@@@ATL@@QBEHPBDH@Z
  002e3	03 c6		 add	 eax, esi
  002e5	8d 8d ec fb ff
	ff		 lea	 ecx, DWORD PTR _sCList$11[ebp]
  002eb	50		 push	 eax
  002ec	8d 85 c4 fb ff
	ff		 lea	 eax, DWORD PTR $T2[ebp]
  002f2	50		 push	 eax
  002f3	ff 15 00 00 00
	00		 call	 DWORD PTR __imp_?Mid@?$CStringT@DV?$StrTraitMFC_DLL@DV?$ChTraitsCRT@D@ATL@@@@@ATL@@QBE?AV12@H@Z
  002f9	50		 push	 eax
  002fa	8d 8d ec fb ff
	ff		 lea	 ecx, DWORD PTR _sCList$11[ebp]
  00300	c6 45 fc 0a	 mov	 BYTE PTR __$EHRec$[ebp+8], 10 ; 0000000aH
  00304	ff 15 00 00 00
	00		 call	 DWORD PTR __imp_??4?$CStringT@DV?$StrTraitMFC_DLL@DV?$ChTraitsCRT@D@ATL@@@@@ATL@@QAEAAV01@ABV01@@Z
  0030a	8d 8d c4 fb ff
	ff		 lea	 ecx, DWORD PTR $T2[ebp]
  00310	c6 45 fc 09	 mov	 BYTE PTR __$EHRec$[ebp+8], 9
  00314	ff 15 00 00 00
	00		 call	 DWORD PTR __imp_??1?$CStringT@DV?$StrTraitMFC_DLL@DV?$ChTraitsCRT@D@ATL@@@@@ATL@@QAE@XZ

; 659  : 		return sTmp;

  0031a	8d 85 c8 fb ff
	ff		 lea	 eax, DWORD PTR _sTmp$3[ebp]
  00320	50		 push	 eax
  00321	8d 8d e4 fb ff
	ff		 lea	 ecx, DWORD PTR _sCode$9[ebp]
  00327	ff 15 00 00 00
	00		 call	 DWORD PTR __imp_??0?$CStringT@DV?$StrTraitMFC_DLL@DV?$ChTraitsCRT@D@ATL@@@@@ATL@@QAE@ABV01@@Z
  0032d	8d 8d c8 fb ff
	ff		 lea	 ecx, DWORD PTR _sTmp$3[ebp]
$LN82@GetItemCod:

; 627  : 		while (1)
; 628  : 		{
; 629  : 			CString sCode = Parser(sCList, ";");

  00333	ff 15 00 00 00
	00		 call	 DWORD PTR __imp_??1?$CStringT@DV?$StrTraitMFC_DLL@DV?$ChTraitsCRT@D@ATL@@@@@ATL@@QAE@XZ
  00339	8d 8d d8 fb ff
	ff		 lea	 ecx, DWORD PTR $T6[ebp]
  0033f	ff 15 00 00 00
	00		 call	 DWORD PTR __imp_??1?$CStringT@DV?$StrTraitMFC_DLL@DV?$ChTraitsCRT@D@ATL@@@@@ATL@@QAE@XZ

; 630  : 			sCode.TrimLeft(); sCode.TrimRight();

  00345	8d 8d e4 fb ff
	ff		 lea	 ecx, DWORD PTR _sCode$9[ebp]
  0034b	c6 45 fc 0b	 mov	 BYTE PTR __$EHRec$[ebp+8], 11 ; 0000000bH
  0034f	ff 15 00 00 00
	00		 call	 DWORD PTR __imp_?TrimLeft@?$CStringT@DV?$StrTraitMFC_DLL@DV?$ChTraitsCRT@D@ATL@@@@@ATL@@QAEAAV12@XZ
  00355	8d 8d e4 fb ff
	ff		 lea	 ecx, DWORD PTR _sCode$9[ebp]
  0035b	ff 15 00 00 00
	00		 call	 DWORD PTR __imp_?TrimRight@?$CStringT@DV?$StrTraitMFC_DLL@DV?$ChTraitsCRT@D@ATL@@@@@ATL@@QAEAAV12@XZ
; File C:\Program Files (x86)\Microsoft Visual Studio\2019\Community\VC\Tools\MSVC\14.29.30133\atlmfc\include\atlsimpstr.h

; 519  : 		return( GetData()->nDataLength );

  00361	8b 85 e4 fb ff
	ff		 mov	 eax, DWORD PTR _sCode$9[ebp]
; File D:\git\src\IBK\IBK_DRFN\ProjSrc\SrcDrfn\Chart\MULTICHART\CondTarget.cpp

; 632  : 			if (sCode.GetLength() <= 0)

  00367	83 78 f4 00	 cmp	 DWORD PTR [eax-12], 0
  0036b	7e 26		 jle	 SHORT $LN73@GetItemCod
; File C:\Program Files (x86)\Microsoft Visual Studio\2019\Community\VC\Tools\MSVC\14.29.30133\atlmfc\include\afxcoll.inl

; 321  : 		SetAtGrow(nIndex, newElement);

  0036d	8d 85 e4 fb ff
	ff		 lea	 eax, DWORD PTR _sCode$9[ebp]
  00373	8b cb		 mov	 ecx, ebx
  00375	50		 push	 eax
  00376	ff 73 08	 push	 DWORD PTR [ebx+8]
  00379	e8 00 00 00 00	 call	 ?SetAtGrow@CStringArray@@QAEXHABV?$CStringT@DV?$StrTraitMFC_DLL@DV?$ChTraitsCRT@D@ATL@@@@@ATL@@@Z ; CStringArray::SetAtGrow
; File D:\git\src\IBK\IBK_DRFN\ProjSrc\SrcDrfn\Chart\MULTICHART\CondTarget.cpp

; 636  : 		}

  0037e	8d 8d e4 fb ff
	ff		 lea	 ecx, DWORD PTR _sCode$9[ebp]
  00384	c6 45 fc 06	 mov	 BYTE PTR __$EHRec$[ebp+8], 6
  00388	ff 15 00 00 00
	00		 call	 DWORD PTR __imp_??1?$CStringT@DV?$StrTraitMFC_DLL@DV?$ChTraitsCRT@D@ATL@@@@@ATL@@QAE@XZ
  0038e	e9 9d fe ff ff	 jmp	 $LL5@GetItemCod
$LN73@GetItemCod:

; 633  : 				break;

  00393	8d 8d e4 fb ff
	ff		 lea	 ecx, DWORD PTR _sCode$9[ebp]
  00399	ff 15 00 00 00
	00		 call	 DWORD PTR __imp_??1?$CStringT@DV?$StrTraitMFC_DLL@DV?$ChTraitsCRT@D@ATL@@@@@ATL@@QAE@XZ

; 637  : 		
; 638  : 		if (arrCode.GetSize() <= 0)

  0039f	8d 8d ec fb ff
	ff		 lea	 ecx, DWORD PTR _sCList$11[ebp]

; 639  : 		{
; 640  : 			return ;
; 641  : 		}
; 642  : 		
; 643  : 		break;
; 644  : 	}
; 645  : }

  003a5	ff 15 00 00 00
	00		 call	 DWORD PTR __imp_??1?$CStringT@DV?$StrTraitMFC_DLL@DV?$ChTraitsCRT@D@ATL@@@@@ATL@@QAE@XZ
  003ab	8d 8d e0 fb ff
	ff		 lea	 ecx, DWORD PTR _sTheCode$8[ebp]
  003b1	ff 15 00 00 00
	00		 call	 DWORD PTR __imp_??1?$CStringT@DV?$StrTraitMFC_DLL@DV?$ChTraitsCRT@D@ATL@@@@@ATL@@QAE@XZ
  003b7	8d 8d d4 fb ff
	ff		 lea	 ecx, DWORD PTR _sName$5[ebp]
  003bd	ff 15 00 00 00
	00		 call	 DWORD PTR __imp_??1?$CStringT@DV?$StrTraitMFC_DLL@DV?$ChTraitsCRT@D@ATL@@@@@ATL@@QAE@XZ
  003c3	8d 8d dc fb ff
	ff		 lea	 ecx, DWORD PTR _sData$7[ebp]
  003c9	ff 15 00 00 00
	00		 call	 DWORD PTR __imp_??1?$CStringT@DV?$StrTraitMFC_DLL@DV?$ChTraitsCRT@D@ATL@@@@@ATL@@QAE@XZ
$LN72@GetItemCod:
  003cf	8d 8d e8 fb ff
	ff		 lea	 ecx, DWORD PTR _sKey$10[ebp]
  003d5	ff 15 00 00 00
	00		 call	 DWORD PTR __imp_??1?$CStringT@DV?$StrTraitMFC_DLL@DV?$ChTraitsCRT@D@ATL@@@@@ATL@@QAE@XZ
  003db	8d 8d d0 fb ff
	ff		 lea	 ecx, DWORD PTR _sFile$[ebp]
  003e1	ff 15 00 00 00
	00		 call	 DWORD PTR __imp_??1?$CStringT@DV?$StrTraitMFC_DLL@DV?$ChTraitsCRT@D@ATL@@@@@ATL@@QAE@XZ
  003e7	8d 4d 0c	 lea	 ecx, DWORD PTR _strThemeIndex$[ebp]
  003ea	ff 15 00 00 00
	00		 call	 DWORD PTR __imp_??1?$CStringT@DV?$StrTraitMFC_DLL@DV?$ChTraitsCRT@D@ATL@@@@@ATL@@QAE@XZ
  003f0	8b 4d f4	 mov	 ecx, DWORD PTR __$EHRec$[ebp]
  003f3	64 89 0d 00 00
	00 00		 mov	 DWORD PTR fs:0, ecx
  003fa	59		 pop	 ecx
  003fb	5f		 pop	 edi
  003fc	5e		 pop	 esi
  003fd	5b		 pop	 ebx
  003fe	8b 4d f0	 mov	 ecx, DWORD PTR __$ArrayPad$[ebp]
  00401	33 cd		 xor	 ecx, ebp
  00403	e8 00 00 00 00	 call	 @__security_check_cookie@4
  00408	8b e5		 mov	 esp, ebp
  0040a	5d		 pop	 ebp
  0040b	c2 08 00	 ret	 8
_TEXT	ENDS
;	COMDAT text$x
text$x	SEGMENT
__unwindfunclet$?GetItemCodeFromThemeGroup@CCondTarget@@QAEXAAVCStringArray@@V?$CStringT@DV?$StrTraitMFC_DLL@DV?$ChTraitsCRT@D@ATL@@@@@ATL@@@Z$0:
  00000	8d 4d 0c	 lea	 ecx, DWORD PTR _strThemeIndex$[ebp]
  00003	ff 25 00 00 00
	00		 jmp	 DWORD PTR __imp_??1?$CStringT@DV?$StrTraitMFC_DLL@DV?$ChTraitsCRT@D@ATL@@@@@ATL@@QAE@XZ
__unwindfunclet$?GetItemCodeFromThemeGroup@CCondTarget@@QAEXAAVCStringArray@@V?$CStringT@DV?$StrTraitMFC_DLL@DV?$ChTraitsCRT@D@ATL@@@@@ATL@@@Z$1:
  00009	8d 8d d0 fb ff
	ff		 lea	 ecx, DWORD PTR _sFile$[ebp]
  0000f	ff 25 00 00 00
	00		 jmp	 DWORD PTR __imp_??1?$CStringT@DV?$StrTraitMFC_DLL@DV?$ChTraitsCRT@D@ATL@@@@@ATL@@QAE@XZ
__unwindfunclet$?GetItemCodeFromThemeGroup@CCondTarget@@QAEXAAVCStringArray@@V?$CStringT@DV?$StrTraitMFC_DLL@DV?$ChTraitsCRT@D@ATL@@@@@ATL@@@Z$2:
  00015	8d 8d e8 fb ff
	ff		 lea	 ecx, DWORD PTR _sKey$10[ebp]
  0001b	ff 25 00 00 00
	00		 jmp	 DWORD PTR __imp_??1?$CStringT@DV?$StrTraitMFC_DLL@DV?$ChTraitsCRT@D@ATL@@@@@ATL@@QAE@XZ
__unwindfunclet$?GetItemCodeFromThemeGroup@CCondTarget@@QAEXAAVCStringArray@@V?$CStringT@DV?$StrTraitMFC_DLL@DV?$ChTraitsCRT@D@ATL@@@@@ATL@@@Z$3:
  00021	8d 8d dc fb ff
	ff		 lea	 ecx, DWORD PTR _sData$7[ebp]
  00027	ff 25 00 00 00
	00		 jmp	 DWORD PTR __imp_??1?$CStringT@DV?$StrTraitMFC_DLL@DV?$ChTraitsCRT@D@ATL@@@@@ATL@@QAE@XZ
__unwindfunclet$?GetItemCodeFromThemeGroup@CCondTarget@@QAEXAAVCStringArray@@V?$CStringT@DV?$StrTraitMFC_DLL@DV?$ChTraitsCRT@D@ATL@@@@@ATL@@@Z$4:
  0002d	8d 8d d4 fb ff
	ff		 lea	 ecx, DWORD PTR _sName$5[ebp]
  00033	ff 25 00 00 00
	00		 jmp	 DWORD PTR __imp_??1?$CStringT@DV?$StrTraitMFC_DLL@DV?$ChTraitsCRT@D@ATL@@@@@ATL@@QAE@XZ
__unwindfunclet$?GetItemCodeFromThemeGroup@CCondTarget@@QAEXAAVCStringArray@@V?$CStringT@DV?$StrTraitMFC_DLL@DV?$ChTraitsCRT@D@ATL@@@@@ATL@@@Z$5:
  00039	8d 8d e0 fb ff
	ff		 lea	 ecx, DWORD PTR _sTheCode$8[ebp]
  0003f	ff 25 00 00 00
	00		 jmp	 DWORD PTR __imp_??1?$CStringT@DV?$StrTraitMFC_DLL@DV?$ChTraitsCRT@D@ATL@@@@@ATL@@QAE@XZ
__unwindfunclet$?GetItemCodeFromThemeGroup@CCondTarget@@QAEXAAVCStringArray@@V?$CStringT@DV?$StrTraitMFC_DLL@DV?$ChTraitsCRT@D@ATL@@@@@ATL@@@Z$6:
  00045	8d 8d ec fb ff
	ff		 lea	 ecx, DWORD PTR _sCList$11[ebp]
  0004b	ff 25 00 00 00
	00		 jmp	 DWORD PTR __imp_??1?$CStringT@DV?$StrTraitMFC_DLL@DV?$ChTraitsCRT@D@ATL@@@@@ATL@@QAE@XZ
__unwindfunclet$?GetItemCodeFromThemeGroup@CCondTarget@@QAEXAAVCStringArray@@V?$CStringT@DV?$StrTraitMFC_DLL@DV?$ChTraitsCRT@D@ATL@@@@@ATL@@@Z$9:
  00051	8d 8d d8 fb ff
	ff		 lea	 ecx, DWORD PTR $T6[ebp]
  00057	ff 25 00 00 00
	00		 jmp	 DWORD PTR __imp_??1?$CStringT@DV?$StrTraitMFC_DLL@DV?$ChTraitsCRT@D@ATL@@@@@ATL@@QAE@XZ
__unwindfunclet$?GetItemCodeFromThemeGroup@CCondTarget@@QAEXAAVCStringArray@@V?$CStringT@DV?$StrTraitMFC_DLL@DV?$ChTraitsCRT@D@ATL@@@@@ATL@@@Z$10:
  0005d	8d 8d cc fb ff
	ff		 lea	 ecx, DWORD PTR _sTmp$4[ebp]
  00063	ff 25 00 00 00
	00		 jmp	 DWORD PTR __imp_??1?$CStringT@DV?$StrTraitMFC_DLL@DV?$ChTraitsCRT@D@ATL@@@@@ATL@@QAE@XZ
__unwindfunclet$?GetItemCodeFromThemeGroup@CCondTarget@@QAEXAAVCStringArray@@V?$CStringT@DV?$StrTraitMFC_DLL@DV?$ChTraitsCRT@D@ATL@@@@@ATL@@@Z$12:
  00069	8d 8d c8 fb ff
	ff		 lea	 ecx, DWORD PTR _sTmp$3[ebp]
  0006f	ff 25 00 00 00
	00		 jmp	 DWORD PTR __imp_??1?$CStringT@DV?$StrTraitMFC_DLL@DV?$ChTraitsCRT@D@ATL@@@@@ATL@@QAE@XZ
__unwindfunclet$?GetItemCodeFromThemeGroup@CCondTarget@@QAEXAAVCStringArray@@V?$CStringT@DV?$StrTraitMFC_DLL@DV?$ChTraitsCRT@D@ATL@@@@@ATL@@@Z$13:
  00075	8d 8d c4 fb ff
	ff		 lea	 ecx, DWORD PTR $T2[ebp]
  0007b	ff 25 00 00 00
	00		 jmp	 DWORD PTR __imp_??1?$CStringT@DV?$StrTraitMFC_DLL@DV?$ChTraitsCRT@D@ATL@@@@@ATL@@QAE@XZ
__unwindfunclet$?GetItemCodeFromThemeGroup@CCondTarget@@QAEXAAVCStringArray@@V?$CStringT@DV?$StrTraitMFC_DLL@DV?$ChTraitsCRT@D@ATL@@@@@ATL@@@Z$8:
  00081	8d 8d e4 fb ff
	ff		 lea	 ecx, DWORD PTR _sCode$9[ebp]
  00087	ff 25 00 00 00
	00		 jmp	 DWORD PTR __imp_??1?$CStringT@DV?$StrTraitMFC_DLL@DV?$ChTraitsCRT@D@ATL@@@@@ATL@@QAE@XZ
  0008d	cc		 int	 3
  0008e	cc		 int	 3
  0008f	cc		 int	 3
  00090	cc		 int	 3
  00091	cc		 int	 3
__ehhandler$?GetItemCodeFromThemeGroup@CCondTarget@@QAEXAAVCStringArray@@V?$CStringT@DV?$StrTraitMFC_DLL@DV?$ChTraitsCRT@D@ATL@@@@@ATL@@@Z:
  00092	90		 npad	 1
  00093	90		 npad	 1
  00094	8b 54 24 08	 mov	 edx, DWORD PTR [esp+8]
  00098	8d 42 0c	 lea	 eax, DWORD PTR [edx+12]
  0009b	8b 8a c0 fb ff
	ff		 mov	 ecx, DWORD PTR [edx-1088]
  000a1	33 c8		 xor	 ecx, eax
  000a3	e8 00 00 00 00	 call	 @__security_check_cookie@4
  000a8	8b 4a fc	 mov	 ecx, DWORD PTR [edx-4]
  000ab	33 c8		 xor	 ecx, eax
  000ad	e8 00 00 00 00	 call	 @__security_check_cookie@4
  000b2	b8 00 00 00 00	 mov	 eax, OFFSET __ehfuncinfo$?GetItemCodeFromThemeGroup@CCondTarget@@QAEXAAVCStringArray@@V?$CStringT@DV?$StrTraitMFC_DLL@DV?$ChTraitsCRT@D@ATL@@@@@ATL@@@Z
  000b7	e9 00 00 00 00	 jmp	 ___CxxFrameHandler3
text$x	ENDS
?GetItemCodeFromThemeGroup@CCondTarget@@QAEXAAVCStringArray@@V?$CStringT@DV?$StrTraitMFC_DLL@DV?$ChTraitsCRT@D@ATL@@@@@ATL@@@Z ENDP ; CCondTarget::GetItemCodeFromThemeGroup
; Function compile flags: /Ogtp
; File D:\git\src\IBK\IBK_DRFN\ProjSrc\SrcDrfn\Chart\MULTICHART\CondTarget.cpp
; File C:\Program Files (x86)\Microsoft Visual Studio\2019\Community\VC\Tools\MSVC\14.29.30133\atlmfc\include\afxcoll.inl
; File D:\git\src\IBK\IBK_DRFN\ProjSrc\SrcDrfn\Chart\MULTICHART\CondTarget.cpp
; File C:\Program Files (x86)\Microsoft Visual Studio\2019\Community\VC\Tools\MSVC\14.29.30133\atlmfc\include\afxcoll.inl
; File D:\git\src\IBK\IBK_DRFN\ProjSrc\SrcDrfn\Chart\MULTICHART\CondTarget.cpp
; File C:\Program Files (x86)\Microsoft Visual Studio\2019\Community\VC\Tools\MSVC\14.29.30133\atlmfc\include\atltime.h
; File D:\git\src\IBK\IBK_DRFN\ProjSrc\SrcDrfn\Chart\MULTICHART\CondTarget.cpp
; File C:\Program Files (x86)\Microsoft Visual Studio\2019\Community\VC\Tools\MSVC\14.29.30133\atlmfc\include\atltime.h
; File D:\git\src\IBK\IBK_DRFN\ProjSrc\SrcDrfn\Chart\MULTICHART\CondTarget.cpp
; File C:\Program Files (x86)\Microsoft Visual Studio\2019\Community\VC\Tools\MSVC\14.29.30133\atlmfc\include\atlsimpstr.h
; File D:\git\src\IBK\IBK_DRFN\ProjSrc\SrcDrfn\Chart\MULTICHART\CondTarget.cpp
; File C:\Program Files (x86)\Microsoft Visual Studio\2019\Community\VC\Tools\MSVC\14.29.30133\atlmfc\include\afxcoll.inl
; File D:\git\src\IBK\IBK_DRFN\ProjSrc\SrcDrfn\Chart\MULTICHART\CondTarget.cpp
;	COMDAT ?GetData_PortItem@CCondTarget@@QAEHAAVCStringArray@@0H@Z
_TEXT	SEGMENT
_finder$ = -492						; size = 28
_fileH$ = -464						; size = 20
_amount$ = -444						; size = 4
_price$ = -440						; size = 4
_saName$GSCopy$1$ = -436				; size = 4
_strFilePath$ = -432					; size = 4
_code$ = -428						; size = 4
_name$ = -424						; size = 4
_fs$ = -420						; size = 296
_interest$ = -124					; size = 105
__$ArrayPad$ = -16					; size = 4
__$EHRec$ = -12						; size = 12
_saCode$ = 8						; size = 4
_saName$ = 12						; size = 4
_nKey$ = 16						; size = 4
?GetData_PortItem@CCondTarget@@QAEHAAVCStringArray@@0H@Z PROC ; CCondTarget::GetData_PortItem, COMDAT
; _this$ = ecx

; 539  : {

  00000	55		 push	 ebp
  00001	8b ec		 mov	 ebp, esp
  00003	6a ff		 push	 -1
  00005	68 00 00 00 00	 push	 __ehhandler$?GetData_PortItem@CCondTarget@@QAEHAAVCStringArray@@0H@Z
  0000a	64 a1 00 00 00
	00		 mov	 eax, DWORD PTR fs:0
  00010	50		 push	 eax
  00011	81 ec e0 01 00
	00		 sub	 esp, 480		; 000001e0H
  00017	a1 00 00 00 00	 mov	 eax, DWORD PTR ___security_cookie
  0001c	33 c5		 xor	 eax, ebp
  0001e	89 45 f0	 mov	 DWORD PTR __$ArrayPad$[ebp], eax
  00021	53		 push	 ebx
  00022	56		 push	 esi
  00023	57		 push	 edi
  00024	50		 push	 eax
  00025	8d 45 f4	 lea	 eax, DWORD PTR __$EHRec$[ebp]
  00028	64 a3 00 00 00
	00		 mov	 DWORD PTR fs:0, eax
  0002e	8b f1		 mov	 esi, ecx
  00030	8b 5d 08	 mov	 ebx, DWORD PTR _saCode$[ebp]

; 540  : 	BOOL bResult = FALSE;

  00033	33 ff		 xor	 edi, edi
  00035	8b 45 0c	 mov	 eax, DWORD PTR _saName$[ebp]
; File C:\Program Files (x86)\Microsoft Visual Studio\2019\Community\VC\Tools\MSVC\14.29.30133\atlmfc\include\afxcoll.inl

; 286  : 	{ SetSize(0); }

  00038	8b cb		 mov	 ecx, ebx
  0003a	6a ff		 push	 -1
  0003c	57		 push	 edi
; File D:\git\src\IBK\IBK_DRFN\ProjSrc\SrcDrfn\Chart\MULTICHART\CondTarget.cpp

; 539  : {

  0003d	89 85 4c fe ff
	ff		 mov	 DWORD PTR _saName$GSCopy$1$[ebp], eax
; File C:\Program Files (x86)\Microsoft Visual Studio\2019\Community\VC\Tools\MSVC\14.29.30133\atlmfc\include\afxcoll.inl

; 286  : 	{ SetSize(0); }

  00043	e8 00 00 00 00	 call	 ?SetSize@CStringArray@@QAEXHH@Z ; CStringArray::SetSize
  00048	8b 8d 4c fe ff
	ff		 mov	 ecx, DWORD PTR _saName$GSCopy$1$[ebp]
  0004e	6a ff		 push	 -1
  00050	57		 push	 edi
  00051	e8 00 00 00 00	 call	 ?SetSize@CStringArray@@QAEXHH@Z ; CStringArray::SetSize
; File D:\git\src\IBK\IBK_DRFN\ProjSrc\SrcDrfn\Chart\MULTICHART\CondTarget.cpp

; 544  : 	CString	strFilePath;

  00056	8d 8d 50 fe ff
	ff		 lea	 ecx, DWORD PTR _strFilePath$[ebp]
  0005c	ff 15 00 00 00
	00		 call	 DWORD PTR __imp_??0?$CStringT@DV?$StrTraitMFC_DLL@DV?$ChTraitsCRT@D@ATL@@@@@ATL@@QAE@XZ

; 545  : 	strFilePath.Format("%s\\portfolio.i%02d", m_strUserDir, nKey);

  00062	ff 75 10	 push	 DWORD PTR _nKey$[ebp]
  00065	8d 85 50 fe ff
	ff		 lea	 eax, DWORD PTR _strFilePath$[ebp]
  0006b	89 7d fc	 mov	 DWORD PTR __$EHRec$[ebp+8], edi
  0006e	ff 76 04	 push	 DWORD PTR [esi+4]
  00071	68 00 00 00 00	 push	 OFFSET ??_C@_0BD@CABKFFIK@?$CFs?2portfolio?4i?$CF02d@
  00076	50		 push	 eax
  00077	ff 15 00 00 00
	00		 call	 DWORD PTR __imp_?Format@?$CStringT@DV?$StrTraitMFC_DLL@DV?$ChTraitsCRT@D@ATL@@@@@ATL@@QAAXPBDZZ
  0007d	83 c4 10	 add	 esp, 16			; 00000010H

; 546  : 	
; 547  : 	DWORD	fLen = 0;
; 548  : 	CFileFind finder;

  00080	8d 8d 14 fe ff
	ff		 lea	 ecx, DWORD PTR _finder$[ebp]
  00086	e8 00 00 00 00	 call	 ??0CFileFind@@QAE@XZ	; CFileFind::CFileFind

; 549  : 	if (!finder.FindFile(strFilePath))

  0008b	57		 push	 edi
  0008c	ff b5 50 fe ff
	ff		 push	 DWORD PTR _strFilePath$[ebp]
  00092	8d 8d 14 fe ff
	ff		 lea	 ecx, DWORD PTR _finder$[ebp]
  00098	c6 45 fc 01	 mov	 BYTE PTR __$EHRec$[ebp+8], 1
  0009c	e8 00 00 00 00	 call	 ?FindFile@CFileFind@@UAEHPBDK@Z ; CFileFind::FindFile
  000a1	85 c0		 test	 eax, eax
  000a3	0f 84 e2 01 00
	00		 je	 $LN18@GetData_Po
$LN5@GetData_Po:

; 550  : 		return bResult;
; 551  : 	
; 552  : 	UINT	readL;
; 553  : 	CString	code = _T(""), amount = _T(""), price = _T(""), name = _T("");

  000a9	68 00 00 00 00	 push	 OFFSET ??_C@_00CNPNBAHC@@
  000ae	8d 8d 54 fe ff
	ff		 lea	 ecx, DWORD PTR _code$[ebp]
  000b4	ff 15 00 00 00
	00		 call	 DWORD PTR __imp_??0?$CStringT@DV?$StrTraitMFC_DLL@DV?$ChTraitsCRT@D@ATL@@@@@ATL@@QAE@PBD@Z
  000ba	68 00 00 00 00	 push	 OFFSET ??_C@_00CNPNBAHC@@
  000bf	8d 8d 44 fe ff
	ff		 lea	 ecx, DWORD PTR _amount$[ebp]
  000c5	c6 45 fc 02	 mov	 BYTE PTR __$EHRec$[ebp+8], 2
  000c9	ff 15 00 00 00
	00		 call	 DWORD PTR __imp_??0?$CStringT@DV?$StrTraitMFC_DLL@DV?$ChTraitsCRT@D@ATL@@@@@ATL@@QAE@PBD@Z
  000cf	68 00 00 00 00	 push	 OFFSET ??_C@_00CNPNBAHC@@
  000d4	8d 8d 48 fe ff
	ff		 lea	 ecx, DWORD PTR _price$[ebp]
  000da	c6 45 fc 03	 mov	 BYTE PTR __$EHRec$[ebp+8], 3
  000de	ff 15 00 00 00
	00		 call	 DWORD PTR __imp_??0?$CStringT@DV?$StrTraitMFC_DLL@DV?$ChTraitsCRT@D@ATL@@@@@ATL@@QAE@PBD@Z
  000e4	68 00 00 00 00	 push	 OFFSET ??_C@_00CNPNBAHC@@
  000e9	8d 8d 58 fe ff
	ff		 lea	 ecx, DWORD PTR _name$[ebp]
  000ef	c6 45 fc 04	 mov	 BYTE PTR __$EHRec$[ebp+8], 4
  000f3	ff 15 00 00 00
	00		 call	 DWORD PTR __imp_??0?$CStringT@DV?$StrTraitMFC_DLL@DV?$ChTraitsCRT@D@ATL@@@@@ATL@@QAE@PBD@Z
  000f9	6a 53		 push	 83			; 00000053H
  000fb	8d 45 84	 lea	 eax, DWORD PTR _interest$[ebp]
  000fe	c6 45 fc 05	 mov	 BYTE PTR __$EHRec$[ebp+8], 5
  00102	6a 00		 push	 0
  00104	50		 push	 eax
  00105	e8 00 00 00 00	 call	 _memset
  0010a	83 c4 0c	 add	 esp, 12			; 0000000cH
  0010d	33 c0		 xor	 eax, eax
  0010f	89 45 e7	 mov	 DWORD PTR _interest$[ebp+99], eax
  00112	0f 57 c0	 xorps	 xmm0, xmm0
  00115	66 89 45 eb	 mov	 WORD PTR _interest$[ebp+103], ax
  00119	0f 11 45 d7	 movups	 XMMWORD PTR _interest$[ebp+83], xmm0

; 557  : 	if (CFile::GetStatus(strFilePath, fs) == FALSE)

  0011d	50		 push	 eax
  0011e	8d 85 5c fe ff
	ff		 lea	 eax, DWORD PTR _fs$[ebp]
; File C:\Program Files (x86)\Microsoft Visual Studio\2019\Community\VC\Tools\MSVC\14.29.30133\atlmfc\include\atltime.h

; 412  : 	m_time(0)

  00124	66 0f 13 85 5c
	fe ff ff	 movlpd	 QWORD PTR _fs$[ebp], xmm0
; File D:\git\src\IBK\IBK_DRFN\ProjSrc\SrcDrfn\Chart\MULTICHART\CondTarget.cpp

; 557  : 	if (CFile::GetStatus(strFilePath, fs) == FALSE)

  0012c	50		 push	 eax
  0012d	ff b5 50 fe ff
	ff		 push	 DWORD PTR _strFilePath$[ebp]
; File C:\Program Files (x86)\Microsoft Visual Studio\2019\Community\VC\Tools\MSVC\14.29.30133\atlmfc\include\atltime.h

; 412  : 	m_time(0)

  00133	66 0f 13 85 64
	fe ff ff	 movlpd	 QWORD PTR _fs$[ebp+8], xmm0
  0013b	66 0f 13 85 6c
	fe ff ff	 movlpd	 QWORD PTR _fs$[ebp+16], xmm0
; File D:\git\src\IBK\IBK_DRFN\ProjSrc\SrcDrfn\Chart\MULTICHART\CondTarget.cpp

; 557  : 	if (CFile::GetStatus(strFilePath, fs) == FALSE)

  00143	e8 00 00 00 00	 call	 ?GetStatus@CFile@@SGHPBDAAUCFileStatus@@PAVCAtlTransactionManager@ATL@@@Z ; CFile::GetStatus
  00148	85 c0		 test	 eax, eax
  0014a	75 07		 jne	 SHORT $LN6@GetData_Po
  0014c	33 ff		 xor	 edi, edi
  0014e	e9 08 01 00 00	 jmp	 $LN19@GetData_Po
$LN6@GetData_Po:

; 558  : 		return bResult;
; 559  : 	
; 560  : 	CFile	fileH(strFilePath, CFile::modeRead);

  00153	6a 00		 push	 0
  00155	ff b5 50 fe ff
	ff		 push	 DWORD PTR _strFilePath$[ebp]
  0015b	8d 8d 30 fe ff
	ff		 lea	 ecx, DWORD PTR _fileH$[ebp]
  00161	e8 00 00 00 00	 call	 ??0CFile@@QAE@PBDI@Z	; CFile::CFile

; 561  : 	if (fileH.m_hFile == CFile::hFileNull)

  00166	a1 00 00 00 00	 mov	 eax, DWORD PTR __imp_?hFileNull@CFile@@2QAXA
  0016b	8b 8d 34 fe ff
	ff		 mov	 ecx, DWORD PTR _fileH$[ebp+4]
  00171	c6 45 fc 06	 mov	 BYTE PTR __$EHRec$[ebp+8], 6
  00175	3b 08		 cmp	 ecx, DWORD PTR [eax]
  00177	75 07		 jne	 SHORT $LN7@GetData_Po
  00179	33 ff		 xor	 edi, edi
  0017b	e9 d0 00 00 00	 jmp	 $LN20@GetData_Po
$LN7@GetData_Po:

; 562  : 		return bResult;
; 563  : 	
; 564  : 	for (int nIndex = 0; nIndex < MAX_LINE ; nIndex++)

  00180	33 f6		 xor	 esi, esi
$LL4@GetData_Po:

; 565  : 	{
; 566  : 		readL = fileH.Read(&interest, sizeof(struct _inters));

  00182	6a 69		 push	 105			; 00000069H
  00184	8d 45 84	 lea	 eax, DWORD PTR _interest$[ebp]
  00187	50		 push	 eax
  00188	8d 8d 30 fe ff
	ff		 lea	 ecx, DWORD PTR _fileH$[ebp]
  0018e	e8 00 00 00 00	 call	 ?Read@CFile@@UAEIPAXI@Z	; CFile::Read

; 567  : 		if (readL < sizeof(struct _inters))

  00193	83 f8 69	 cmp	 eax, 105		; 00000069H
  00196	0f 82 a9 00 00
	00		 jb	 $LN52@GetData_Po

; 568  : 			break;
; 569  : 		
; 570  : 		code.Format("%.*s", sizeof(interest.code), interest.code);

  0019c	8d 45 85	 lea	 eax, DWORD PTR _interest$[ebp+1]
  0019f	50		 push	 eax
  001a0	6a 0c		 push	 12			; 0000000cH
  001a2	8d 85 54 fe ff
	ff		 lea	 eax, DWORD PTR _code$[ebp]
  001a8	68 00 00 00 00	 push	 OFFSET ??_C@_04EBNJJJJI@?$CF?4?$CKs@
  001ad	50		 push	 eax
  001ae	ff 15 00 00 00
	00		 call	 DWORD PTR __imp_?Format@?$CStringT@DV?$StrTraitMFC_DLL@DV?$ChTraitsCRT@D@ATL@@@@@ATL@@QAAXPBDZZ
  001b4	83 c4 10	 add	 esp, 16			; 00000010H

; 571  : 		code.TrimLeft(), code.TrimRight();

  001b7	8d 8d 54 fe ff
	ff		 lea	 ecx, DWORD PTR _code$[ebp]
  001bd	ff 15 00 00 00
	00		 call	 DWORD PTR __imp_?TrimLeft@?$CStringT@DV?$StrTraitMFC_DLL@DV?$ChTraitsCRT@D@ATL@@@@@ATL@@QAEAAV12@XZ
  001c3	8d 8d 54 fe ff
	ff		 lea	 ecx, DWORD PTR _code$[ebp]
  001c9	ff 15 00 00 00
	00		 call	 DWORD PTR __imp_?TrimRight@?$CStringT@DV?$StrTraitMFC_DLL@DV?$ChTraitsCRT@D@ATL@@@@@ATL@@QAEAAV12@XZ

; 572  : 		name.Format("%.*s", sizeof(interest.name), interest.name);

  001cf	8d 45 91	 lea	 eax, DWORD PTR _interest$[ebp+13]
  001d2	50		 push	 eax
  001d3	6a 20		 push	 32			; 00000020H
  001d5	8d 85 58 fe ff
	ff		 lea	 eax, DWORD PTR _name$[ebp]
  001db	68 00 00 00 00	 push	 OFFSET ??_C@_04EBNJJJJI@?$CF?4?$CKs@
  001e0	50		 push	 eax
  001e1	ff 15 00 00 00
	00		 call	 DWORD PTR __imp_?Format@?$CStringT@DV?$StrTraitMFC_DLL@DV?$ChTraitsCRT@D@ATL@@@@@ATL@@QAAXPBDZZ
  001e7	83 c4 10	 add	 esp, 16			; 00000010H

; 573  : 		name.TrimLeft(), name.TrimRight();

  001ea	8d 8d 58 fe ff
	ff		 lea	 ecx, DWORD PTR _name$[ebp]
  001f0	ff 15 00 00 00
	00		 call	 DWORD PTR __imp_?TrimLeft@?$CStringT@DV?$StrTraitMFC_DLL@DV?$ChTraitsCRT@D@ATL@@@@@ATL@@QAEAAV12@XZ
  001f6	8d 8d 58 fe ff
	ff		 lea	 ecx, DWORD PTR _name$[ebp]
  001fc	ff 15 00 00 00
	00		 call	 DWORD PTR __imp_?TrimRight@?$CStringT@DV?$StrTraitMFC_DLL@DV?$ChTraitsCRT@D@ATL@@@@@ATL@@QAEAAV12@XZ
; File C:\Program Files (x86)\Microsoft Visual Studio\2019\Community\VC\Tools\MSVC\14.29.30133\atlmfc\include\atlsimpstr.h

; 533  : 		return( GetLength() == 0 );

  00202	8b 85 58 fe ff
	ff		 mov	 eax, DWORD PTR _name$[ebp]
  00208	83 78 f4 00	 cmp	 DWORD PTR [eax-12], 0
; File D:\git\src\IBK\IBK_DRFN\ProjSrc\SrcDrfn\Chart\MULTICHART\CondTarget.cpp

; 575  : 		if(name.IsEmpty())

  0020c	74 2d		 je	 SHORT $LN2@GetData_Po
; File C:\Program Files (x86)\Microsoft Visual Studio\2019\Community\VC\Tools\MSVC\14.29.30133\atlmfc\include\afxcoll.inl

; 321  : 		SetAtGrow(nIndex, newElement);

  0020e	8d 85 54 fe ff
	ff		 lea	 eax, DWORD PTR _code$[ebp]
  00214	8b cb		 mov	 ecx, ebx
  00216	50		 push	 eax
  00217	ff 73 08	 push	 DWORD PTR [ebx+8]
  0021a	e8 00 00 00 00	 call	 ?SetAtGrow@CStringArray@@QAEXHABV?$CStringT@DV?$StrTraitMFC_DLL@DV?$ChTraitsCRT@D@ATL@@@@@ATL@@@Z ; CStringArray::SetAtGrow
  0021f	8d 85 58 fe ff
	ff		 lea	 eax, DWORD PTR _name$[ebp]
  00225	50		 push	 eax
  00226	8b 85 4c fe ff
	ff		 mov	 eax, DWORD PTR _saName$GSCopy$1$[ebp]
  0022c	8b c8		 mov	 ecx, eax
  0022e	ff 70 08	 push	 DWORD PTR [eax+8]
  00231	e8 00 00 00 00	 call	 ?SetAtGrow@CStringArray@@QAEXHABV?$CStringT@DV?$StrTraitMFC_DLL@DV?$ChTraitsCRT@D@ATL@@@@@ATL@@@Z ; CStringArray::SetAtGrow
; File D:\git\src\IBK\IBK_DRFN\ProjSrc\SrcDrfn\Chart\MULTICHART\CondTarget.cpp

; 580  : 		bResult = TRUE;

  00236	bf 01 00 00 00	 mov	 edi, 1
$LN2@GetData_Po:

; 562  : 		return bResult;
; 563  : 	
; 564  : 	for (int nIndex = 0; nIndex < MAX_LINE ; nIndex++)

  0023b	46		 inc	 esi
  0023c	83 fe 64	 cmp	 esi, 100		; 00000064H
  0023f	0f 8c 3d ff ff
	ff		 jl	 $LL4@GetData_Po
$LN52@GetData_Po:

; 581  : 	}
; 582  : 	fileH.Close();

  00245	8d 8d 30 fe ff
	ff		 lea	 ecx, DWORD PTR _fileH$[ebp]
  0024b	e8 00 00 00 00	 call	 ?Close@CFile@@UAEXXZ	; CFile::Close
$LN20@GetData_Po:

; 583  : 	
; 584  : 	return bResult;

  00250	8d 8d 30 fe ff
	ff		 lea	 ecx, DWORD PTR _fileH$[ebp]
  00256	e8 00 00 00 00	 call	 ??1CFile@@UAE@XZ	; CFile::~CFile
$LN19@GetData_Po:
  0025b	8d 8d 58 fe ff
	ff		 lea	 ecx, DWORD PTR _name$[ebp]
  00261	ff 15 00 00 00
	00		 call	 DWORD PTR __imp_??1?$CStringT@DV?$StrTraitMFC_DLL@DV?$ChTraitsCRT@D@ATL@@@@@ATL@@QAE@XZ
  00267	8d 8d 48 fe ff
	ff		 lea	 ecx, DWORD PTR _price$[ebp]
  0026d	ff 15 00 00 00
	00		 call	 DWORD PTR __imp_??1?$CStringT@DV?$StrTraitMFC_DLL@DV?$ChTraitsCRT@D@ATL@@@@@ATL@@QAE@XZ
  00273	8d 8d 44 fe ff
	ff		 lea	 ecx, DWORD PTR _amount$[ebp]
  00279	ff 15 00 00 00
	00		 call	 DWORD PTR __imp_??1?$CStringT@DV?$StrTraitMFC_DLL@DV?$ChTraitsCRT@D@ATL@@@@@ATL@@QAE@XZ
  0027f	8d 8d 54 fe ff
	ff		 lea	 ecx, DWORD PTR _code$[ebp]
  00285	ff 15 00 00 00
	00		 call	 DWORD PTR __imp_??1?$CStringT@DV?$StrTraitMFC_DLL@DV?$ChTraitsCRT@D@ATL@@@@@ATL@@QAE@XZ
$LN18@GetData_Po:
  0028b	8d 8d 14 fe ff
	ff		 lea	 ecx, DWORD PTR _finder$[ebp]
  00291	e8 00 00 00 00	 call	 ??1CFileFind@@UAE@XZ	; CFileFind::~CFileFind
  00296	8d 8d 50 fe ff
	ff		 lea	 ecx, DWORD PTR _strFilePath$[ebp]
  0029c	ff 15 00 00 00
	00		 call	 DWORD PTR __imp_??1?$CStringT@DV?$StrTraitMFC_DLL@DV?$ChTraitsCRT@D@ATL@@@@@ATL@@QAE@XZ
  002a2	8b c7		 mov	 eax, edi

; 585  : }

  002a4	8b 4d f4	 mov	 ecx, DWORD PTR __$EHRec$[ebp]
  002a7	64 89 0d 00 00
	00 00		 mov	 DWORD PTR fs:0, ecx
  002ae	59		 pop	 ecx
  002af	5f		 pop	 edi
  002b0	5e		 pop	 esi
  002b1	5b		 pop	 ebx
  002b2	8b 4d f0	 mov	 ecx, DWORD PTR __$ArrayPad$[ebp]
  002b5	33 cd		 xor	 ecx, ebp
  002b7	e8 00 00 00 00	 call	 @__security_check_cookie@4
  002bc	8b e5		 mov	 esp, ebp
  002be	5d		 pop	 ebp
  002bf	c2 0c 00	 ret	 12			; 0000000cH
_TEXT	ENDS
;	COMDAT text$x
text$x	SEGMENT
__unwindfunclet$?GetData_PortItem@CCondTarget@@QAEHAAVCStringArray@@0H@Z$0:
  00000	8d 8d 50 fe ff
	ff		 lea	 ecx, DWORD PTR _strFilePath$[ebp]
  00006	ff 25 00 00 00
	00		 jmp	 DWORD PTR __imp_??1?$CStringT@DV?$StrTraitMFC_DLL@DV?$ChTraitsCRT@D@ATL@@@@@ATL@@QAE@XZ
__unwindfunclet$?GetData_PortItem@CCondTarget@@QAEHAAVCStringArray@@0H@Z$1:
  0000c	8d 8d 14 fe ff
	ff		 lea	 ecx, DWORD PTR _finder$[ebp]
  00012	e9 00 00 00 00	 jmp	 ??1CFileFind@@UAE@XZ	; CFileFind::~CFileFind
__unwindfunclet$?GetData_PortItem@CCondTarget@@QAEHAAVCStringArray@@0H@Z$2:
  00017	8d 8d 54 fe ff
	ff		 lea	 ecx, DWORD PTR _code$[ebp]
  0001d	ff 25 00 00 00
	00		 jmp	 DWORD PTR __imp_??1?$CStringT@DV?$StrTraitMFC_DLL@DV?$ChTraitsCRT@D@ATL@@@@@ATL@@QAE@XZ
__unwindfunclet$?GetData_PortItem@CCondTarget@@QAEHAAVCStringArray@@0H@Z$3:
  00023	8d 8d 44 fe ff
	ff		 lea	 ecx, DWORD PTR _amount$[ebp]
  00029	ff 25 00 00 00
	00		 jmp	 DWORD PTR __imp_??1?$CStringT@DV?$StrTraitMFC_DLL@DV?$ChTraitsCRT@D@ATL@@@@@ATL@@QAE@XZ
__unwindfunclet$?GetData_PortItem@CCondTarget@@QAEHAAVCStringArray@@0H@Z$4:
  0002f	8d 8d 48 fe ff
	ff		 lea	 ecx, DWORD PTR _price$[ebp]
  00035	ff 25 00 00 00
	00		 jmp	 DWORD PTR __imp_??1?$CStringT@DV?$StrTraitMFC_DLL@DV?$ChTraitsCRT@D@ATL@@@@@ATL@@QAE@XZ
__unwindfunclet$?GetData_PortItem@CCondTarget@@QAEHAAVCStringArray@@0H@Z$5:
  0003b	8d 8d 58 fe ff
	ff		 lea	 ecx, DWORD PTR _name$[ebp]
  00041	ff 25 00 00 00
	00		 jmp	 DWORD PTR __imp_??1?$CStringT@DV?$StrTraitMFC_DLL@DV?$ChTraitsCRT@D@ATL@@@@@ATL@@QAE@XZ
__unwindfunclet$?GetData_PortItem@CCondTarget@@QAEHAAVCStringArray@@0H@Z$6:
  00047	8d 8d 30 fe ff
	ff		 lea	 ecx, DWORD PTR _fileH$[ebp]
  0004d	e9 00 00 00 00	 jmp	 ??1CFile@@UAE@XZ	; CFile::~CFile
  00052	cc		 int	 3
  00053	cc		 int	 3
  00054	cc		 int	 3
  00055	cc		 int	 3
  00056	cc		 int	 3
__ehhandler$?GetData_PortItem@CCondTarget@@QAEHAAVCStringArray@@0H@Z:
  00057	90		 npad	 1
  00058	90		 npad	 1
  00059	8b 54 24 08	 mov	 edx, DWORD PTR [esp+8]
  0005d	8d 42 0c	 lea	 eax, DWORD PTR [edx+12]
  00060	8b 8a 10 fe ff
	ff		 mov	 ecx, DWORD PTR [edx-496]
  00066	33 c8		 xor	 ecx, eax
  00068	e8 00 00 00 00	 call	 @__security_check_cookie@4
  0006d	8b 4a fc	 mov	 ecx, DWORD PTR [edx-4]
  00070	33 c8		 xor	 ecx, eax
  00072	e8 00 00 00 00	 call	 @__security_check_cookie@4
  00077	b8 00 00 00 00	 mov	 eax, OFFSET __ehfuncinfo$?GetData_PortItem@CCondTarget@@QAEHAAVCStringArray@@0H@Z
  0007c	e9 00 00 00 00	 jmp	 ___CxxFrameHandler3
text$x	ENDS
?GetData_PortItem@CCondTarget@@QAEHAAVCStringArray@@0H@Z ENDP ; CCondTarget::GetData_PortItem
; Function compile flags: /Ogtp
; File D:\git\src\IBK\IBK_DRFN\ProjSrc\SrcDrfn\Chart\MULTICHART\CondTarget.cpp
;	COMDAT ?GetProfileIntA@CCondTarget@@QAEHV?$CStringT@DV?$StrTraitMFC_DLL@DV?$ChTraitsCRT@D@ATL@@@@@ATL@@00@Z
_TEXT	SEGMENT
_szInt$ = -68						; size = 64
__$ArrayPad$ = -4					; size = 4
_strGKey$ = 8						; size = 4
_strKey$ = 12						; size = 4
_strSavePath$ = 16					; size = 4
?GetProfileIntA@CCondTarget@@QAEHV?$CStringT@DV?$StrTraitMFC_DLL@DV?$ChTraitsCRT@D@ATL@@@@@ATL@@00@Z PROC ; CCondTarget::GetProfileIntA, COMDAT
; _this$ = ecx

; 160  : {

  00000	55		 push	 ebp
  00001	8b ec		 mov	 ebp, esp
  00003	83 ec 44	 sub	 esp, 68			; 00000044H
  00006	a1 00 00 00 00	 mov	 eax, DWORD PTR ___security_cookie
  0000b	33 c5		 xor	 eax, ebp
  0000d	89 45 fc	 mov	 DWORD PTR __$ArrayPad$[ebp], eax
  00010	56		 push	 esi

; 161  : 	char szInt[64];
; 162  : 	::GetPrivateProfileString(strGKey, strKey, "0", szInt, sizeof(szInt), strSavePath);

  00011	ff 75 10	 push	 DWORD PTR _strSavePath$[ebp]
  00014	8d 45 bc	 lea	 eax, DWORD PTR _szInt$[ebp]
  00017	6a 40		 push	 64			; 00000040H
  00019	50		 push	 eax
  0001a	68 00 00 00 00	 push	 OFFSET ??_C@_01GBGANLPD@0@
  0001f	ff 75 0c	 push	 DWORD PTR _strKey$[ebp]
  00022	ff 75 08	 push	 DWORD PTR _strGKey$[ebp]
  00025	ff 15 00 00 00
	00		 call	 DWORD PTR __imp__GetPrivateProfileStringA@24

; 163  : 	return atoi(szInt);

  0002b	8d 45 bc	 lea	 eax, DWORD PTR _szInt$[ebp]
  0002e	50		 push	 eax
  0002f	ff 15 00 00 00
	00		 call	 DWORD PTR __imp__atoi
  00035	83 c4 04	 add	 esp, 4
  00038	8d 4d 08	 lea	 ecx, DWORD PTR _strGKey$[ebp]
  0003b	8b f0		 mov	 esi, eax
  0003d	ff 15 00 00 00
	00		 call	 DWORD PTR __imp_??1?$CStringT@DV?$StrTraitMFC_DLL@DV?$ChTraitsCRT@D@ATL@@@@@ATL@@QAE@XZ
  00043	8d 4d 0c	 lea	 ecx, DWORD PTR _strKey$[ebp]
  00046	ff 15 00 00 00
	00		 call	 DWORD PTR __imp_??1?$CStringT@DV?$StrTraitMFC_DLL@DV?$ChTraitsCRT@D@ATL@@@@@ATL@@QAE@XZ
  0004c	8d 4d 10	 lea	 ecx, DWORD PTR _strSavePath$[ebp]
  0004f	ff 15 00 00 00
	00		 call	 DWORD PTR __imp_??1?$CStringT@DV?$StrTraitMFC_DLL@DV?$ChTraitsCRT@D@ATL@@@@@ATL@@QAE@XZ

; 164  : }

  00055	8b 4d fc	 mov	 ecx, DWORD PTR __$ArrayPad$[ebp]
  00058	8b c6		 mov	 eax, esi
  0005a	33 cd		 xor	 ecx, ebp
  0005c	5e		 pop	 esi
  0005d	e8 00 00 00 00	 call	 @__security_check_cookie@4
  00062	8b e5		 mov	 esp, ebp
  00064	5d		 pop	 ebp
  00065	c2 0c 00	 ret	 12			; 0000000cH
?GetProfileIntA@CCondTarget@@QAEHV?$CStringT@DV?$StrTraitMFC_DLL@DV?$ChTraitsCRT@D@ATL@@@@@ATL@@00@Z ENDP ; CCondTarget::GetProfileIntA
_TEXT	ENDS
; Function compile flags: /Ogtp
; File D:\git\src\IBK\IBK_DRFN\ProjSrc\SrcDrfn\Chart\MULTICHART\CondTarget.cpp
; File C:\Program Files (x86)\Microsoft Visual Studio\2019\Community\VC\Tools\MSVC\14.29.30133\atlmfc\include\atlsimpstr.h
; File D:\git\src\IBK\IBK_DRFN\ProjSrc\SrcDrfn\Chart\MULTICHART\CondTarget.cpp
; File C:\Program Files (x86)\Microsoft Visual Studio\2019\Community\VC\Tools\MSVC\14.29.30133\atlmfc\include\atlsimpstr.h
; File D:\git\src\IBK\IBK_DRFN\ProjSrc\SrcDrfn\Chart\MULTICHART\CondTarget.cpp
; File C:\Program Files (x86)\Microsoft Visual Studio\2019\Community\VC\Tools\MSVC\14.29.30133\atlmfc\include\afxtempl.h
; File D:\git\src\IBK\IBK_DRFN\ProjSrc\SrcDrfn\Chart\MULTICHART\CondTarget.cpp
; File C:\Program Files (x86)\Microsoft Visual Studio\2019\Community\VC\Tools\MSVC\14.29.30133\atlmfc\include\afxtempl.h
; File D:\git\src\IBK\IBK_DRFN\ProjSrc\SrcDrfn\Chart\MULTICHART\CondTarget.cpp
;	COMDAT ?LoadTdfData@CCondTarget@@QAEXPAVCGetBackData@@@Z
_TEXT	SEGMENT
_ff$ = -1100						; size = 28
_nKey$1$ = -1072					; size = 4
_szExt$ = -1068						; size = 4
_strFullPath$ = -1064					; size = 4
_nHashBucket$4 = -1060					; size = 4
$T5 = -1060						; size = 4
$T6 = -1060						; size = 4
$T7 = -1060						; size = 4
$T8 = -1060						; size = 4
$T9 = -1060						; size = 4
$T10 = -1060						; size = 4
$T11 = -1060						; size = 4
$T12 = -1060						; size = 4
$T13 = -1060						; size = 4
$T14 = -1060						; size = 4
$T15 = -1060						; size = 4
$T16 = -1060						; size = 4
$T17 = -1060						; size = 4
$T18 = -1060						; size = 4
_nHashValue$19 = -1056					; size = 4
_pData$20 = -1056					; size = 4
$T21 = -1056						; size = 4
$T22 = -1056						; size = 4
$T23 = -1056						; size = 4
$T24 = -1056						; size = 4
$T25 = -1056						; size = 4
$T26 = -1056						; size = 4
$T27 = -1056						; size = 4
$T28 = -1056						; size = 4
$T29 = -1056						; size = 4
$T30 = -1056						; size = 4
$T31 = -1056						; size = 4
$T32 = -1056						; size = 4
$T33 = -1056						; size = 4
$T34 = -1052						; size = 4
$T35 = -1052						; size = 4
_strGKey$ = -1048					; size = 4
_strPath$ = -1044					; size = 4
_szTemp$ = -1040					; size = 1024
__$ArrayPad$ = -16					; size = 4
__$EHRec$ = -12						; size = 12
_pData$ = 8						; size = 4
?LoadTdfData@CCondTarget@@QAEXPAVCGetBackData@@@Z PROC	; CCondTarget::LoadTdfData, COMDAT
; _this$ = ecx

; 167  : {

  00000	55		 push	 ebp
  00001	8b ec		 mov	 ebp, esp
  00003	6a ff		 push	 -1
  00005	68 00 00 00 00	 push	 __ehhandler$?LoadTdfData@CCondTarget@@QAEXPAVCGetBackData@@@Z
  0000a	64 a1 00 00 00
	00		 mov	 eax, DWORD PTR fs:0
  00010	50		 push	 eax
  00011	81 ec 40 04 00
	00		 sub	 esp, 1088		; 00000440H
  00017	a1 00 00 00 00	 mov	 eax, DWORD PTR ___security_cookie
  0001c	33 c5		 xor	 eax, ebp
  0001e	89 45 f0	 mov	 DWORD PTR __$ArrayPad$[ebp], eax
  00021	53		 push	 ebx
  00022	56		 push	 esi
  00023	57		 push	 edi
  00024	50		 push	 eax
  00025	8d 45 f4	 lea	 eax, DWORD PTR __$EHRec$[ebp]
  00028	64 a3 00 00 00
	00		 mov	 DWORD PTR fs:0, eax
  0002e	8b d9		 mov	 ebx, ecx
  00030	8b 75 08	 mov	 esi, DWORD PTR _pData$[ebp]

; 168  : 	CString strFullPath = pData->m_strPath;

  00033	8d 8d d8 fb ff
	ff		 lea	 ecx, DWORD PTR _strFullPath$[ebp]
  00039	8d 46 04	 lea	 eax, DWORD PTR [esi+4]
  0003c	50		 push	 eax
  0003d	ff 15 00 00 00
	00		 call	 DWORD PTR __imp_??0?$CStringT@DV?$StrTraitMFC_DLL@DV?$ChTraitsCRT@D@ATL@@@@@ATL@@QAE@ABV01@@Z

; 169  : 	int nKey = pData->m_nIndex;

  00043	8b 46 08	 mov	 eax, DWORD PTR [esi+8]

; 170  : 
; 171  : 	CString szExt = strFullPath.Right(4);

  00046	8d 8d d8 fb ff
	ff		 lea	 ecx, DWORD PTR _strFullPath$[ebp]
  0004c	89 85 d0 fb ff
	ff		 mov	 DWORD PTR _nKey$1$[ebp], eax
  00052	8d 85 d4 fb ff
	ff		 lea	 eax, DWORD PTR _szExt$[ebp]
  00058	6a 04		 push	 4
  0005a	50		 push	 eax
  0005b	c7 45 fc 00 00
	00 00		 mov	 DWORD PTR __$EHRec$[ebp+8], 0
  00062	ff 15 00 00 00
	00		 call	 DWORD PTR __imp_?Right@?$CStringT@DV?$StrTraitMFC_DLL@DV?$ChTraitsCRT@D@ATL@@@@@ATL@@QBE?AV12@H@Z

; 172  : 	if (szExt.CompareNoCase(".xml") !=0)

  00068	68 00 00 00 00	 push	 OFFSET ??_C@_04GAOAGNCM@?4xml@
  0006d	8d 8d d4 fb ff
	ff		 lea	 ecx, DWORD PTR _szExt$[ebp]
  00073	c6 45 fc 01	 mov	 BYTE PTR __$EHRec$[ebp+8], 1
  00077	ff 15 00 00 00
	00		 call	 DWORD PTR __imp_?CompareNoCase@?$CStringT@DV?$StrTraitMFC_DLL@DV?$ChTraitsCRT@D@ATL@@@@@ATL@@QBEHPBD@Z
  0007d	85 c0		 test	 eax, eax
  0007f	0f 85 38 07 00
	00		 jne	 $LN53@LoadTdfDat

; 173  : 		return;
; 174  : 
; 175  : 	CString strPath = strFullPath;

  00085	8d 85 d8 fb ff
	ff		 lea	 eax, DWORD PTR _strFullPath$[ebp]
  0008b	50		 push	 eax
  0008c	8d 8d ec fb ff
	ff		 lea	 ecx, DWORD PTR _strPath$[ebp]
  00092	ff 15 00 00 00
	00		 call	 DWORD PTR __imp_??0?$CStringT@DV?$StrTraitMFC_DLL@DV?$ChTraitsCRT@D@ATL@@@@@ATL@@QAE@ABV01@@Z
; File C:\Program Files (x86)\Microsoft Visual Studio\2019\Community\VC\Tools\MSVC\14.29.30133\atlmfc\include\atlsimpstr.h

; 519  : 		return( GetData()->nDataLength );

  00098	8b 85 d8 fb ff
	ff		 mov	 eax, DWORD PTR _strFullPath$[ebp]
; File D:\git\src\IBK\IBK_DRFN\ProjSrc\SrcDrfn\Chart\MULTICHART\CondTarget.cpp

; 176  : 	strPath = strFullPath.Left(strFullPath.GetLength()-4);

  0009e	8d 8d d8 fb ff
	ff		 lea	 ecx, DWORD PTR _strFullPath$[ebp]
  000a4	c6 45 fc 02	 mov	 BYTE PTR __$EHRec$[ebp+8], 2
; File C:\Program Files (x86)\Microsoft Visual Studio\2019\Community\VC\Tools\MSVC\14.29.30133\atlmfc\include\atlsimpstr.h

; 519  : 		return( GetData()->nDataLength );

  000a8	8b 40 f4	 mov	 eax, DWORD PTR [eax-12]
; File D:\git\src\IBK\IBK_DRFN\ProjSrc\SrcDrfn\Chart\MULTICHART\CondTarget.cpp

; 176  : 	strPath = strFullPath.Left(strFullPath.GetLength()-4);

  000ab	83 c0 fc	 add	 eax, -4			; fffffffcH
  000ae	50		 push	 eax
  000af	8d 85 e4 fb ff
	ff		 lea	 eax, DWORD PTR $T35[ebp]
  000b5	50		 push	 eax
  000b6	ff 15 00 00 00
	00		 call	 DWORD PTR __imp_?Left@?$CStringT@DV?$StrTraitMFC_DLL@DV?$ChTraitsCRT@D@ATL@@@@@ATL@@QBE?AV12@H@Z
  000bc	50		 push	 eax
  000bd	8d 8d ec fb ff
	ff		 lea	 ecx, DWORD PTR _strPath$[ebp]
  000c3	c6 45 fc 03	 mov	 BYTE PTR __$EHRec$[ebp+8], 3
  000c7	ff 15 00 00 00
	00		 call	 DWORD PTR __imp_??4?$CStringT@DV?$StrTraitMFC_DLL@DV?$ChTraitsCRT@D@ATL@@@@@ATL@@QAEAAV01@ABV01@@Z
  000cd	8d 8d e4 fb ff
	ff		 lea	 ecx, DWORD PTR $T35[ebp]
  000d3	c6 45 fc 02	 mov	 BYTE PTR __$EHRec$[ebp+8], 2
  000d7	ff 15 00 00 00
	00		 call	 DWORD PTR __imp_??1?$CStringT@DV?$StrTraitMFC_DLL@DV?$ChTraitsCRT@D@ATL@@@@@ATL@@QAE@XZ

; 177  : 	strPath += _T(".tdf");

  000dd	68 00 00 00 00	 push	 OFFSET ??_C@_04NPAIABJB@?4tdf@
  000e2	8d 8d ec fb ff
	ff		 lea	 ecx, DWORD PTR _strPath$[ebp]
  000e8	ff 15 00 00 00
	00		 call	 DWORD PTR __imp_??Y?$CStringT@DV?$StrTraitMFC_DLL@DV?$ChTraitsCRT@D@ATL@@@@@ATL@@QAEAAV01@PBD@Z

; 178  : 
; 179  : 	CFileFind ff;

  000ee	8d 8d b4 fb ff
	ff		 lea	 ecx, DWORD PTR _ff$[ebp]
  000f4	e8 00 00 00 00	 call	 ??0CFileFind@@QAE@XZ	; CFileFind::CFileFind

; 180  : 	if (!ff.FindFile(strPath))

  000f9	6a 00		 push	 0
  000fb	ff b5 ec fb ff
	ff		 push	 DWORD PTR _strPath$[ebp]
  00101	8d 8d b4 fb ff
	ff		 lea	 ecx, DWORD PTR _ff$[ebp]
  00107	c6 45 fc 04	 mov	 BYTE PTR __$EHRec$[ebp+8], 4
  0010b	e8 00 00 00 00	 call	 ?FindFile@CFileFind@@UAEHPBDK@Z ; CFileFind::FindFile
  00110	85 c0		 test	 eax, eax
  00112	0f 84 8e 06 00
	00		 je	 $LN54@LoadTdfDat

; 181  : 		return;
; 182  : 
; 183  : 	CString strGKey = "Except_JM";

  00118	68 00 00 00 00	 push	 OFFSET ??_C@_09ELDJDNO@Except_JM@
  0011d	8d 8d e8 fb ff
	ff		 lea	 ecx, DWORD PTR _strGKey$[ebp]
  00123	ff 15 00 00 00
	00		 call	 DWORD PTR __imp_??0?$CStringT@DV?$StrTraitMFC_DLL@DV?$ChTraitsCRT@D@ATL@@@@@ATL@@QAE@PBD@Z

; 184  : 	char szTemp[1024];
; 185  : 
; 186  : 	m_bIssuesForAdministration		= GetProfileInt(strGKey, "Issue", strPath);

  00129	51		 push	 ecx
  0012a	8d 85 ec fb ff
	ff		 lea	 eax, DWORD PTR _strPath$[ebp]
  00130	89 a5 e4 fb ff
	ff		 mov	 DWORD PTR $T34[ebp], esp
  00136	8b cc		 mov	 ecx, esp
  00138	c6 45 fc 05	 mov	 BYTE PTR __$EHRec$[ebp+8], 5
  0013c	50		 push	 eax
  0013d	ff 15 00 00 00
	00		 call	 DWORD PTR __imp_??0?$CStringT@DV?$StrTraitMFC_DLL@DV?$ChTraitsCRT@D@ATL@@@@@ATL@@QAE@ABV01@@Z
  00143	51		 push	 ecx
  00144	8b cc		 mov	 ecx, esp
  00146	89 a5 dc fb ff
	ff		 mov	 DWORD PTR $T18[ebp], esp
  0014c	68 00 00 00 00	 push	 OFFSET ??_C@_05OLCCKFMM@Issue@
  00151	c6 45 fc 06	 mov	 BYTE PTR __$EHRec$[ebp+8], 6
  00155	ff 15 00 00 00
	00		 call	 DWORD PTR __imp_??0?$CStringT@DV?$StrTraitMFC_DLL@DV?$ChTraitsCRT@D@ATL@@@@@ATL@@QAE@PBD@Z
  0015b	51		 push	 ecx
  0015c	8d 85 e8 fb ff
	ff		 lea	 eax, DWORD PTR _strGKey$[ebp]
  00162	c6 45 fc 07	 mov	 BYTE PTR __$EHRec$[ebp+8], 7
  00166	8b cc		 mov	 ecx, esp
  00168	50		 push	 eax
  00169	ff 15 00 00 00
	00		 call	 DWORD PTR __imp_??0?$CStringT@DV?$StrTraitMFC_DLL@DV?$ChTraitsCRT@D@ATL@@@@@ATL@@QAE@ABV01@@Z
  0016f	8b cb		 mov	 ecx, ebx
  00171	c6 45 fc 05	 mov	 BYTE PTR __$EHRec$[ebp+8], 5
  00175	e8 00 00 00 00	 call	 ?GetProfileIntA@CCondTarget@@QAEHV?$CStringT@DV?$StrTraitMFC_DLL@DV?$ChTraitsCRT@D@ATL@@@@@ATL@@00@Z ; CCondTarget::GetProfileIntA

; 187  : 	m_bDealStop						= GetProfileInt(strGKey, "CheckDealStop", strPath);

  0017a	51		 push	 ecx
  0017b	89 83 b0 01 00
	00		 mov	 DWORD PTR [ebx+432], eax
  00181	8b cc		 mov	 ecx, esp
  00183	8d 85 ec fb ff
	ff		 lea	 eax, DWORD PTR _strPath$[ebp]
  00189	89 a5 e0 fb ff
	ff		 mov	 DWORD PTR $T33[ebp], esp
  0018f	50		 push	 eax
  00190	ff 15 00 00 00
	00		 call	 DWORD PTR __imp_??0?$CStringT@DV?$StrTraitMFC_DLL@DV?$ChTraitsCRT@D@ATL@@@@@ATL@@QAE@ABV01@@Z
  00196	51		 push	 ecx
  00197	8b cc		 mov	 ecx, esp
  00199	89 a5 dc fb ff
	ff		 mov	 DWORD PTR $T17[ebp], esp
  0019f	68 00 00 00 00	 push	 OFFSET ??_C@_0O@KJHEEKBI@CheckDealStop@
  001a4	c6 45 fc 08	 mov	 BYTE PTR __$EHRec$[ebp+8], 8
  001a8	ff 15 00 00 00
	00		 call	 DWORD PTR __imp_??0?$CStringT@DV?$StrTraitMFC_DLL@DV?$ChTraitsCRT@D@ATL@@@@@ATL@@QAE@PBD@Z
  001ae	51		 push	 ecx
  001af	8d 85 e8 fb ff
	ff		 lea	 eax, DWORD PTR _strGKey$[ebp]
  001b5	c6 45 fc 09	 mov	 BYTE PTR __$EHRec$[ebp+8], 9
  001b9	8b cc		 mov	 ecx, esp
  001bb	50		 push	 eax
  001bc	ff 15 00 00 00
	00		 call	 DWORD PTR __imp_??0?$CStringT@DV?$StrTraitMFC_DLL@DV?$ChTraitsCRT@D@ATL@@@@@ATL@@QAE@ABV01@@Z
  001c2	8b cb		 mov	 ecx, ebx
  001c4	c6 45 fc 05	 mov	 BYTE PTR __$EHRec$[ebp+8], 5
  001c8	e8 00 00 00 00	 call	 ?GetProfileIntA@CCondTarget@@QAEHV?$CStringT@DV?$StrTraitMFC_DLL@DV?$ChTraitsCRT@D@ATL@@@@@ATL@@00@Z ; CCondTarget::GetProfileIntA

; 188  : 	m_bTidyDeal						= GetProfileInt(strGKey, "TidyDeal", strPath);

  001cd	51		 push	 ecx
  001ce	89 83 b4 01 00
	00		 mov	 DWORD PTR [ebx+436], eax
  001d4	8b cc		 mov	 ecx, esp
  001d6	8d 85 ec fb ff
	ff		 lea	 eax, DWORD PTR _strPath$[ebp]
  001dc	89 a5 e0 fb ff
	ff		 mov	 DWORD PTR $T32[ebp], esp
  001e2	50		 push	 eax
  001e3	ff 15 00 00 00
	00		 call	 DWORD PTR __imp_??0?$CStringT@DV?$StrTraitMFC_DLL@DV?$ChTraitsCRT@D@ATL@@@@@ATL@@QAE@ABV01@@Z
  001e9	51		 push	 ecx
  001ea	8b cc		 mov	 ecx, esp
  001ec	89 a5 dc fb ff
	ff		 mov	 DWORD PTR $T16[ebp], esp
  001f2	68 00 00 00 00	 push	 OFFSET ??_C@_08ILOOAIEA@TidyDeal@
  001f7	c6 45 fc 0a	 mov	 BYTE PTR __$EHRec$[ebp+8], 10 ; 0000000aH
  001fb	ff 15 00 00 00
	00		 call	 DWORD PTR __imp_??0?$CStringT@DV?$StrTraitMFC_DLL@DV?$ChTraitsCRT@D@ATL@@@@@ATL@@QAE@PBD@Z
  00201	51		 push	 ecx
  00202	8d 85 e8 fb ff
	ff		 lea	 eax, DWORD PTR _strGKey$[ebp]
  00208	c6 45 fc 0b	 mov	 BYTE PTR __$EHRec$[ebp+8], 11 ; 0000000bH
  0020c	8b cc		 mov	 ecx, esp
  0020e	50		 push	 eax
  0020f	ff 15 00 00 00
	00		 call	 DWORD PTR __imp_??0?$CStringT@DV?$StrTraitMFC_DLL@DV?$ChTraitsCRT@D@ATL@@@@@ATL@@QAE@ABV01@@Z
  00215	8b cb		 mov	 ecx, ebx
  00217	c6 45 fc 05	 mov	 BYTE PTR __$EHRec$[ebp+8], 5
  0021b	e8 00 00 00 00	 call	 ?GetProfileIntA@CCondTarget@@QAEHV?$CStringT@DV?$StrTraitMFC_DLL@DV?$ChTraitsCRT@D@ATL@@@@@ATL@@00@Z ; CCondTarget::GetProfileIntA

; 189  : 	m_bInsincerityNotice			= GetProfileInt(strGKey, "InsincerityNotice", strPath);

  00220	51		 push	 ecx
  00221	89 83 b8 01 00
	00		 mov	 DWORD PTR [ebx+440], eax
  00227	8b cc		 mov	 ecx, esp
  00229	89 a5 e0 fb ff
	ff		 mov	 DWORD PTR $T31[ebp], esp
  0022f	8d 85 ec fb ff
	ff		 lea	 eax, DWORD PTR _strPath$[ebp]
  00235	50		 push	 eax
  00236	ff 15 00 00 00
	00		 call	 DWORD PTR __imp_??0?$CStringT@DV?$StrTraitMFC_DLL@DV?$ChTraitsCRT@D@ATL@@@@@ATL@@QAE@ABV01@@Z
  0023c	51		 push	 ecx
  0023d	8b cc		 mov	 ecx, esp
  0023f	89 a5 dc fb ff
	ff		 mov	 DWORD PTR $T15[ebp], esp
  00245	68 00 00 00 00	 push	 OFFSET ??_C@_0BC@ONKKOLN@InsincerityNotice@
  0024a	c6 45 fc 0c	 mov	 BYTE PTR __$EHRec$[ebp+8], 12 ; 0000000cH
  0024e	ff 15 00 00 00
	00		 call	 DWORD PTR __imp_??0?$CStringT@DV?$StrTraitMFC_DLL@DV?$ChTraitsCRT@D@ATL@@@@@ATL@@QAE@PBD@Z
  00254	51		 push	 ecx
  00255	8d 85 e8 fb ff
	ff		 lea	 eax, DWORD PTR _strGKey$[ebp]
  0025b	c6 45 fc 0d	 mov	 BYTE PTR __$EHRec$[ebp+8], 13 ; 0000000dH
  0025f	8b cc		 mov	 ecx, esp
  00261	50		 push	 eax
  00262	ff 15 00 00 00
	00		 call	 DWORD PTR __imp_??0?$CStringT@DV?$StrTraitMFC_DLL@DV?$ChTraitsCRT@D@ATL@@@@@ATL@@QAE@ABV01@@Z
  00268	8b cb		 mov	 ecx, ebx
  0026a	c6 45 fc 05	 mov	 BYTE PTR __$EHRec$[ebp+8], 5
  0026e	e8 00 00 00 00	 call	 ?GetProfileIntA@CCondTarget@@QAEHV?$CStringT@DV?$StrTraitMFC_DLL@DV?$ChTraitsCRT@D@ATL@@@@@ATL@@00@Z ; CCondTarget::GetProfileIntA

; 190  : 	m_bAttentionInvestment			= GetProfileInt(strGKey, "AttentionInvestment", strPath);

  00273	51		 push	 ecx
  00274	89 83 bc 01 00
	00		 mov	 DWORD PTR [ebx+444], eax
  0027a	8b cc		 mov	 ecx, esp
  0027c	8d 85 ec fb ff
	ff		 lea	 eax, DWORD PTR _strPath$[ebp]
  00282	89 a5 e0 fb ff
	ff		 mov	 DWORD PTR $T30[ebp], esp
  00288	50		 push	 eax
  00289	ff 15 00 00 00
	00		 call	 DWORD PTR __imp_??0?$CStringT@DV?$StrTraitMFC_DLL@DV?$ChTraitsCRT@D@ATL@@@@@ATL@@QAE@ABV01@@Z
  0028f	51		 push	 ecx
  00290	8b cc		 mov	 ecx, esp
  00292	89 a5 dc fb ff
	ff		 mov	 DWORD PTR $T14[ebp], esp
  00298	68 00 00 00 00	 push	 OFFSET ??_C@_0BE@HLPKMDJA@AttentionInvestment@
  0029d	c6 45 fc 0e	 mov	 BYTE PTR __$EHRec$[ebp+8], 14 ; 0000000eH
  002a1	ff 15 00 00 00
	00		 call	 DWORD PTR __imp_??0?$CStringT@DV?$StrTraitMFC_DLL@DV?$ChTraitsCRT@D@ATL@@@@@ATL@@QAE@PBD@Z
  002a7	51		 push	 ecx
  002a8	8d 85 e8 fb ff
	ff		 lea	 eax, DWORD PTR _strGKey$[ebp]
  002ae	c6 45 fc 0f	 mov	 BYTE PTR __$EHRec$[ebp+8], 15 ; 0000000fH
  002b2	8b cc		 mov	 ecx, esp
  002b4	50		 push	 eax
  002b5	ff 15 00 00 00
	00		 call	 DWORD PTR __imp_??0?$CStringT@DV?$StrTraitMFC_DLL@DV?$ChTraitsCRT@D@ATL@@@@@ATL@@QAE@ABV01@@Z
  002bb	8b cb		 mov	 ecx, ebx
  002bd	c6 45 fc 05	 mov	 BYTE PTR __$EHRec$[ebp+8], 5
  002c1	e8 00 00 00 00	 call	 ?GetProfileIntA@CCondTarget@@QAEHV?$CStringT@DV?$StrTraitMFC_DLL@DV?$ChTraitsCRT@D@ATL@@@@@ATL@@00@Z ; CCondTarget::GetProfileIntA

; 191  : 	m_bNoticeAttentionInvestment	= GetProfileInt(strGKey, "NoticeAttentionInvestment", strPath);

  002c6	51		 push	 ecx
  002c7	89 83 c0 01 00
	00		 mov	 DWORD PTR [ebx+448], eax
  002cd	8b cc		 mov	 ecx, esp
  002cf	8d 85 ec fb ff
	ff		 lea	 eax, DWORD PTR _strPath$[ebp]
  002d5	89 a5 e0 fb ff
	ff		 mov	 DWORD PTR $T29[ebp], esp
  002db	50		 push	 eax
  002dc	ff 15 00 00 00
	00		 call	 DWORD PTR __imp_??0?$CStringT@DV?$StrTraitMFC_DLL@DV?$ChTraitsCRT@D@ATL@@@@@ATL@@QAE@ABV01@@Z
  002e2	51		 push	 ecx
  002e3	8b cc		 mov	 ecx, esp
  002e5	89 a5 dc fb ff
	ff		 mov	 DWORD PTR $T13[ebp], esp
  002eb	68 00 00 00 00	 push	 OFFSET ??_C@_0BK@FLJHGBIE@NoticeAttentionInvestment@
  002f0	c6 45 fc 10	 mov	 BYTE PTR __$EHRec$[ebp+8], 16 ; 00000010H
  002f4	ff 15 00 00 00
	00		 call	 DWORD PTR __imp_??0?$CStringT@DV?$StrTraitMFC_DLL@DV?$ChTraitsCRT@D@ATL@@@@@ATL@@QAE@PBD@Z
  002fa	51		 push	 ecx
  002fb	8d 85 e8 fb ff
	ff		 lea	 eax, DWORD PTR _strGKey$[ebp]
  00301	c6 45 fc 11	 mov	 BYTE PTR __$EHRec$[ebp+8], 17 ; 00000011H
  00305	8b cc		 mov	 ecx, esp
  00307	50		 push	 eax
  00308	ff 15 00 00 00
	00		 call	 DWORD PTR __imp_??0?$CStringT@DV?$StrTraitMFC_DLL@DV?$ChTraitsCRT@D@ATL@@@@@ATL@@QAE@ABV01@@Z
  0030e	8b cb		 mov	 ecx, ebx
  00310	c6 45 fc 05	 mov	 BYTE PTR __$EHRec$[ebp+8], 5
  00314	e8 00 00 00 00	 call	 ?GetProfileIntA@CCondTarget@@QAEHV?$CStringT@DV?$StrTraitMFC_DLL@DV?$ChTraitsCRT@D@ATL@@@@@ATL@@00@Z ; CCondTarget::GetProfileIntA

; 192  : 	m_bPreferenceStock				= GetProfileInt(strGKey, "CheckPreferenceStock", strPath);

  00319	51		 push	 ecx
  0031a	89 83 c4 01 00
	00		 mov	 DWORD PTR [ebx+452], eax
  00320	8b cc		 mov	 ecx, esp
  00322	8d 85 ec fb ff
	ff		 lea	 eax, DWORD PTR _strPath$[ebp]
  00328	89 a5 e0 fb ff
	ff		 mov	 DWORD PTR $T28[ebp], esp
  0032e	50		 push	 eax
  0032f	ff 15 00 00 00
	00		 call	 DWORD PTR __imp_??0?$CStringT@DV?$StrTraitMFC_DLL@DV?$ChTraitsCRT@D@ATL@@@@@ATL@@QAE@ABV01@@Z
  00335	51		 push	 ecx
  00336	8b cc		 mov	 ecx, esp
  00338	89 a5 dc fb ff
	ff		 mov	 DWORD PTR $T12[ebp], esp
  0033e	68 00 00 00 00	 push	 OFFSET ??_C@_0BF@MGLLGIND@CheckPreferenceStock@
  00343	c6 45 fc 12	 mov	 BYTE PTR __$EHRec$[ebp+8], 18 ; 00000012H
  00347	ff 15 00 00 00
	00		 call	 DWORD PTR __imp_??0?$CStringT@DV?$StrTraitMFC_DLL@DV?$ChTraitsCRT@D@ATL@@@@@ATL@@QAE@PBD@Z
  0034d	51		 push	 ecx
  0034e	8d 85 e8 fb ff
	ff		 lea	 eax, DWORD PTR _strGKey$[ebp]
  00354	c6 45 fc 13	 mov	 BYTE PTR __$EHRec$[ebp+8], 19 ; 00000013H
  00358	8b cc		 mov	 ecx, esp
  0035a	50		 push	 eax
  0035b	ff 15 00 00 00
	00		 call	 DWORD PTR __imp_??0?$CStringT@DV?$StrTraitMFC_DLL@DV?$ChTraitsCRT@D@ATL@@@@@ATL@@QAE@ABV01@@Z
  00361	8b cb		 mov	 ecx, ebx
  00363	c6 45 fc 05	 mov	 BYTE PTR __$EHRec$[ebp+8], 5
  00367	e8 00 00 00 00	 call	 ?GetProfileIntA@CCondTarget@@QAEHV?$CStringT@DV?$StrTraitMFC_DLL@DV?$ChTraitsCRT@D@ATL@@@@@ATL@@00@Z ; CCondTarget::GetProfileIntA

; 193  : 	m_bDeposit						= GetProfileInt(strGKey, "CheckDeposit", strPath);

  0036c	51		 push	 ecx
  0036d	89 83 c8 01 00
	00		 mov	 DWORD PTR [ebx+456], eax
  00373	8b cc		 mov	 ecx, esp
  00375	8d 85 ec fb ff
	ff		 lea	 eax, DWORD PTR _strPath$[ebp]
  0037b	89 a5 e0 fb ff
	ff		 mov	 DWORD PTR $T27[ebp], esp
  00381	50		 push	 eax
  00382	ff 15 00 00 00
	00		 call	 DWORD PTR __imp_??0?$CStringT@DV?$StrTraitMFC_DLL@DV?$ChTraitsCRT@D@ATL@@@@@ATL@@QAE@ABV01@@Z
  00388	51		 push	 ecx
  00389	8b cc		 mov	 ecx, esp
  0038b	89 a5 dc fb ff
	ff		 mov	 DWORD PTR $T11[ebp], esp
  00391	68 00 00 00 00	 push	 OFFSET ??_C@_0N@KDBMFLJ@CheckDeposit@
  00396	c6 45 fc 14	 mov	 BYTE PTR __$EHRec$[ebp+8], 20 ; 00000014H
  0039a	ff 15 00 00 00
	00		 call	 DWORD PTR __imp_??0?$CStringT@DV?$StrTraitMFC_DLL@DV?$ChTraitsCRT@D@ATL@@@@@ATL@@QAE@PBD@Z
  003a0	51		 push	 ecx
  003a1	8d 85 e8 fb ff
	ff		 lea	 eax, DWORD PTR _strGKey$[ebp]
  003a7	c6 45 fc 15	 mov	 BYTE PTR __$EHRec$[ebp+8], 21 ; 00000015H
  003ab	8b cc		 mov	 ecx, esp
  003ad	50		 push	 eax
  003ae	ff 15 00 00 00
	00		 call	 DWORD PTR __imp_??0?$CStringT@DV?$StrTraitMFC_DLL@DV?$ChTraitsCRT@D@ATL@@@@@ATL@@QAE@ABV01@@Z
  003b4	8b cb		 mov	 ecx, ebx
  003b6	c6 45 fc 05	 mov	 BYTE PTR __$EHRec$[ebp+8], 5
  003ba	e8 00 00 00 00	 call	 ?GetProfileIntA@CCondTarget@@QAEHV?$CStringT@DV?$StrTraitMFC_DLL@DV?$ChTraitsCRT@D@ATL@@@@@ATL@@00@Z ; CCondTarget::GetProfileIntA

; 194  : 	m_bDangerInvestment				= GetProfileInt(strGKey, "DangerInvestment", strPath);

  003bf	51		 push	 ecx
  003c0	89 83 cc 01 00
	00		 mov	 DWORD PTR [ebx+460], eax
  003c6	8b cc		 mov	 ecx, esp
  003c8	8d 85 ec fb ff
	ff		 lea	 eax, DWORD PTR _strPath$[ebp]
  003ce	89 a5 e0 fb ff
	ff		 mov	 DWORD PTR $T26[ebp], esp
  003d4	50		 push	 eax
  003d5	ff 15 00 00 00
	00		 call	 DWORD PTR __imp_??0?$CStringT@DV?$StrTraitMFC_DLL@DV?$ChTraitsCRT@D@ATL@@@@@ATL@@QAE@ABV01@@Z
  003db	51		 push	 ecx
  003dc	8b cc		 mov	 ecx, esp
  003de	89 a5 dc fb ff
	ff		 mov	 DWORD PTR $T10[ebp], esp
  003e4	68 00 00 00 00	 push	 OFFSET ??_C@_0BB@ECGNDCGL@DangerInvestment@
  003e9	c6 45 fc 16	 mov	 BYTE PTR __$EHRec$[ebp+8], 22 ; 00000016H
  003ed	ff 15 00 00 00
	00		 call	 DWORD PTR __imp_??0?$CStringT@DV?$StrTraitMFC_DLL@DV?$ChTraitsCRT@D@ATL@@@@@ATL@@QAE@PBD@Z
  003f3	51		 push	 ecx
  003f4	8d 85 e8 fb ff
	ff		 lea	 eax, DWORD PTR _strGKey$[ebp]
  003fa	c6 45 fc 17	 mov	 BYTE PTR __$EHRec$[ebp+8], 23 ; 00000017H
  003fe	8b cc		 mov	 ecx, esp
  00400	50		 push	 eax
  00401	ff 15 00 00 00
	00		 call	 DWORD PTR __imp_??0?$CStringT@DV?$StrTraitMFC_DLL@DV?$ChTraitsCRT@D@ATL@@@@@ATL@@QAE@ABV01@@Z
  00407	8b cb		 mov	 ecx, ebx
  00409	c6 45 fc 05	 mov	 BYTE PTR __$EHRec$[ebp+8], 5
  0040d	e8 00 00 00 00	 call	 ?GetProfileIntA@CCondTarget@@QAEHV?$CStringT@DV?$StrTraitMFC_DLL@DV?$ChTraitsCRT@D@ATL@@@@@ATL@@00@Z ; CCondTarget::GetProfileIntA

; 195  : 	m_bWarningInvestment			= GetProfileInt(strGKey, "WarningInvestment", strPath);

  00412	51		 push	 ecx
  00413	89 83 d0 01 00
	00		 mov	 DWORD PTR [ebx+464], eax
  00419	8b cc		 mov	 ecx, esp
  0041b	8d 85 ec fb ff
	ff		 lea	 eax, DWORD PTR _strPath$[ebp]
  00421	89 a5 e0 fb ff
	ff		 mov	 DWORD PTR $T25[ebp], esp
  00427	50		 push	 eax
  00428	ff 15 00 00 00
	00		 call	 DWORD PTR __imp_??0?$CStringT@DV?$StrTraitMFC_DLL@DV?$ChTraitsCRT@D@ATL@@@@@ATL@@QAE@ABV01@@Z
  0042e	51		 push	 ecx
  0042f	8b cc		 mov	 ecx, esp
  00431	89 a5 dc fb ff
	ff		 mov	 DWORD PTR $T9[ebp], esp
  00437	68 00 00 00 00	 push	 OFFSET ??_C@_0BC@DEJCAOFC@WarningInvestment@
  0043c	c6 45 fc 18	 mov	 BYTE PTR __$EHRec$[ebp+8], 24 ; 00000018H
  00440	ff 15 00 00 00
	00		 call	 DWORD PTR __imp_??0?$CStringT@DV?$StrTraitMFC_DLL@DV?$ChTraitsCRT@D@ATL@@@@@ATL@@QAE@PBD@Z
  00446	51		 push	 ecx
  00447	8d 85 e8 fb ff
	ff		 lea	 eax, DWORD PTR _strGKey$[ebp]
  0044d	c6 45 fc 19	 mov	 BYTE PTR __$EHRec$[ebp+8], 25 ; 00000019H
  00451	8b cc		 mov	 ecx, esp
  00453	50		 push	 eax
  00454	ff 15 00 00 00
	00		 call	 DWORD PTR __imp_??0?$CStringT@DV?$StrTraitMFC_DLL@DV?$ChTraitsCRT@D@ATL@@@@@ATL@@QAE@ABV01@@Z
  0045a	c6 45 fc 05	 mov	 BYTE PTR __$EHRec$[ebp+8], 5
  0045e	8b cb		 mov	 ecx, ebx
  00460	e8 00 00 00 00	 call	 ?GetProfileIntA@CCondTarget@@QAEHV?$CStringT@DV?$StrTraitMFC_DLL@DV?$ChTraitsCRT@D@ATL@@@@@ATL@@00@Z ; CCondTarget::GetProfileIntA

; 196  : 	m_bInvestAttention				= GetProfileInt(strGKey, "InvestAttention", strPath);

  00465	51		 push	 ecx
  00466	89 83 d4 01 00
	00		 mov	 DWORD PTR [ebx+468], eax
  0046c	8b cc		 mov	 ecx, esp
  0046e	8d 85 ec fb ff
	ff		 lea	 eax, DWORD PTR _strPath$[ebp]
  00474	89 a5 e0 fb ff
	ff		 mov	 DWORD PTR $T24[ebp], esp
  0047a	50		 push	 eax
  0047b	ff 15 00 00 00
	00		 call	 DWORD PTR __imp_??0?$CStringT@DV?$StrTraitMFC_DLL@DV?$ChTraitsCRT@D@ATL@@@@@ATL@@QAE@ABV01@@Z
  00481	51		 push	 ecx
  00482	8b cc		 mov	 ecx, esp
  00484	89 a5 dc fb ff
	ff		 mov	 DWORD PTR $T8[ebp], esp
  0048a	68 00 00 00 00	 push	 OFFSET ??_C@_0BA@LOIGKKCE@InvestAttention@
  0048f	c6 45 fc 1a	 mov	 BYTE PTR __$EHRec$[ebp+8], 26 ; 0000001aH
  00493	ff 15 00 00 00
	00		 call	 DWORD PTR __imp_??0?$CStringT@DV?$StrTraitMFC_DLL@DV?$ChTraitsCRT@D@ATL@@@@@ATL@@QAE@PBD@Z
  00499	51		 push	 ecx
  0049a	8d 85 e8 fb ff
	ff		 lea	 eax, DWORD PTR _strGKey$[ebp]
  004a0	c6 45 fc 1b	 mov	 BYTE PTR __$EHRec$[ebp+8], 27 ; 0000001bH
  004a4	8b cc		 mov	 ecx, esp
  004a6	50		 push	 eax
  004a7	ff 15 00 00 00
	00		 call	 DWORD PTR __imp_??0?$CStringT@DV?$StrTraitMFC_DLL@DV?$ChTraitsCRT@D@ATL@@@@@ATL@@QAE@ABV01@@Z
  004ad	8b cb		 mov	 ecx, ebx
  004af	c6 45 fc 05	 mov	 BYTE PTR __$EHRec$[ebp+8], 5
  004b3	e8 00 00 00 00	 call	 ?GetProfileIntA@CCondTarget@@QAEHV?$CStringT@DV?$StrTraitMFC_DLL@DV?$ChTraitsCRT@D@ATL@@@@@ATL@@00@Z ; CCondTarget::GetProfileIntA

; 197  : 	m_bETF							= GetProfileInt(strGKey, "ETF", strPath);

  004b8	51		 push	 ecx
  004b9	89 83 d8 01 00
	00		 mov	 DWORD PTR [ebx+472], eax
  004bf	8b cc		 mov	 ecx, esp
  004c1	8d 85 ec fb ff
	ff		 lea	 eax, DWORD PTR _strPath$[ebp]
  004c7	89 a5 e0 fb ff
	ff		 mov	 DWORD PTR $T23[ebp], esp
  004cd	50		 push	 eax
  004ce	ff 15 00 00 00
	00		 call	 DWORD PTR __imp_??0?$CStringT@DV?$StrTraitMFC_DLL@DV?$ChTraitsCRT@D@ATL@@@@@ATL@@QAE@ABV01@@Z
  004d4	51		 push	 ecx
  004d5	8b cc		 mov	 ecx, esp
  004d7	89 a5 dc fb ff
	ff		 mov	 DWORD PTR $T7[ebp], esp
  004dd	68 00 00 00 00	 push	 OFFSET ??_C@_03LPOHOGAD@ETF@
  004e2	c6 45 fc 1c	 mov	 BYTE PTR __$EHRec$[ebp+8], 28 ; 0000001cH
  004e6	ff 15 00 00 00
	00		 call	 DWORD PTR __imp_??0?$CStringT@DV?$StrTraitMFC_DLL@DV?$ChTraitsCRT@D@ATL@@@@@ATL@@QAE@PBD@Z
  004ec	51		 push	 ecx
  004ed	8d 85 e8 fb ff
	ff		 lea	 eax, DWORD PTR _strGKey$[ebp]
  004f3	c6 45 fc 1d	 mov	 BYTE PTR __$EHRec$[ebp+8], 29 ; 0000001dH
  004f7	8b cc		 mov	 ecx, esp
  004f9	50		 push	 eax
  004fa	ff 15 00 00 00
	00		 call	 DWORD PTR __imp_??0?$CStringT@DV?$StrTraitMFC_DLL@DV?$ChTraitsCRT@D@ATL@@@@@ATL@@QAE@ABV01@@Z
  00500	8b cb		 mov	 ecx, ebx
  00502	c6 45 fc 05	 mov	 BYTE PTR __$EHRec$[ebp+8], 5
  00506	e8 00 00 00 00	 call	 ?GetProfileIntA@CCondTarget@@QAEHV?$CStringT@DV?$StrTraitMFC_DLL@DV?$ChTraitsCRT@D@ATL@@@@@ATL@@00@Z ; CCondTarget::GetProfileIntA

; 198  : 
; 199  : 	strGKey = "Month";

  0050b	68 00 00 00 00	 push	 OFFSET ??_C@_05MDLMAGGB@Month@
  00510	8d 8d e8 fb ff
	ff		 lea	 ecx, DWORD PTR _strGKey$[ebp]
  00516	89 83 dc 01 00
	00		 mov	 DWORD PTR [ebx+476], eax
  0051c	ff 15 00 00 00
	00		 call	 DWORD PTR __imp_??4?$CStringT@DV?$StrTraitMFC_DLL@DV?$ChTraitsCRT@D@ATL@@@@@ATL@@QAEAAV01@PBD@Z

; 200  : 	m_nSelRadioMonth = GetProfileInt(strGKey, "SelRadioMonth", strPath);

  00522	51		 push	 ecx
  00523	8d 85 ec fb ff
	ff		 lea	 eax, DWORD PTR _strPath$[ebp]
  00529	89 a5 e0 fb ff
	ff		 mov	 DWORD PTR $T22[ebp], esp
  0052f	8b cc		 mov	 ecx, esp
  00531	50		 push	 eax
  00532	ff 15 00 00 00
	00		 call	 DWORD PTR __imp_??0?$CStringT@DV?$StrTraitMFC_DLL@DV?$ChTraitsCRT@D@ATL@@@@@ATL@@QAE@ABV01@@Z
  00538	51		 push	 ecx
  00539	8b cc		 mov	 ecx, esp
  0053b	89 a5 dc fb ff
	ff		 mov	 DWORD PTR $T6[ebp], esp
  00541	68 00 00 00 00	 push	 OFFSET ??_C@_0O@GLAJCEBI@SelRadioMonth@
  00546	c6 45 fc 1e	 mov	 BYTE PTR __$EHRec$[ebp+8], 30 ; 0000001eH
  0054a	ff 15 00 00 00
	00		 call	 DWORD PTR __imp_??0?$CStringT@DV?$StrTraitMFC_DLL@DV?$ChTraitsCRT@D@ATL@@@@@ATL@@QAE@PBD@Z
  00550	51		 push	 ecx
  00551	8d 85 e8 fb ff
	ff		 lea	 eax, DWORD PTR _strGKey$[ebp]
  00557	c6 45 fc 1f	 mov	 BYTE PTR __$EHRec$[ebp+8], 31 ; 0000001fH
  0055b	8b cc		 mov	 ecx, esp
  0055d	50		 push	 eax
  0055e	ff 15 00 00 00
	00		 call	 DWORD PTR __imp_??0?$CStringT@DV?$StrTraitMFC_DLL@DV?$ChTraitsCRT@D@ATL@@@@@ATL@@QAE@ABV01@@Z
  00564	8b cb		 mov	 ecx, ebx
  00566	c6 45 fc 05	 mov	 BYTE PTR __$EHRec$[ebp+8], 5
  0056a	e8 00 00 00 00	 call	 ?GetProfileIntA@CCondTarget@@QAEHV?$CStringT@DV?$StrTraitMFC_DLL@DV?$ChTraitsCRT@D@ATL@@@@@ATL@@00@Z ; CCondTarget::GetProfileIntA

; 201  : 	m_nIndexMonthCombo = GetProfileInt(strGKey, "IndexMonthCombo", strPath);

  0056f	51		 push	 ecx
  00570	89 83 e0 01 00
	00		 mov	 DWORD PTR [ebx+480], eax
  00576	8b cc		 mov	 ecx, esp
  00578	89 a5 e0 fb ff
	ff		 mov	 DWORD PTR $T21[ebp], esp
  0057e	8d 85 ec fb ff
	ff		 lea	 eax, DWORD PTR _strPath$[ebp]
  00584	50		 push	 eax
  00585	ff 15 00 00 00
	00		 call	 DWORD PTR __imp_??0?$CStringT@DV?$StrTraitMFC_DLL@DV?$ChTraitsCRT@D@ATL@@@@@ATL@@QAE@ABV01@@Z
  0058b	51		 push	 ecx
  0058c	8b cc		 mov	 ecx, esp
  0058e	89 a5 dc fb ff
	ff		 mov	 DWORD PTR $T5[ebp], esp
  00594	68 00 00 00 00	 push	 OFFSET ??_C@_0BA@CAOBJMAA@IndexMonthCombo@
  00599	c6 45 fc 20	 mov	 BYTE PTR __$EHRec$[ebp+8], 32 ; 00000020H
  0059d	ff 15 00 00 00
	00		 call	 DWORD PTR __imp_??0?$CStringT@DV?$StrTraitMFC_DLL@DV?$ChTraitsCRT@D@ATL@@@@@ATL@@QAE@PBD@Z
  005a3	51		 push	 ecx
  005a4	8d 85 e8 fb ff
	ff		 lea	 eax, DWORD PTR _strGKey$[ebp]
  005aa	c6 45 fc 21	 mov	 BYTE PTR __$EHRec$[ebp+8], 33 ; 00000021H
  005ae	8b cc		 mov	 ecx, esp
  005b0	50		 push	 eax
  005b1	ff 15 00 00 00
	00		 call	 DWORD PTR __imp_??0?$CStringT@DV?$StrTraitMFC_DLL@DV?$ChTraitsCRT@D@ATL@@@@@ATL@@QAE@ABV01@@Z
  005b7	8b cb		 mov	 ecx, ebx
  005b9	c6 45 fc 05	 mov	 BYTE PTR __$EHRec$[ebp+8], 5
  005bd	e8 00 00 00 00	 call	 ?GetProfileIntA@CCondTarget@@QAEHV?$CStringT@DV?$StrTraitMFC_DLL@DV?$ChTraitsCRT@D@ATL@@@@@ATL@@00@Z ; CCondTarget::GetProfileIntA

; 202  : 	
; 203  : 	strGKey = "Tree_Upjong";

  005c2	68 00 00 00 00	 push	 OFFSET ??_C@_0M@BCNIABEG@Tree_Upjong@
  005c7	8d 8d e8 fb ff
	ff		 lea	 ecx, DWORD PTR _strGKey$[ebp]
  005cd	89 83 e4 01 00
	00		 mov	 DWORD PTR [ebx+484], eax
  005d3	ff 15 00 00 00
	00		 call	 DWORD PTR __imp_??4?$CStringT@DV?$StrTraitMFC_DLL@DV?$ChTraitsCRT@D@ATL@@@@@ATL@@QAEAAV01@PBD@Z

; 204  : 	::GetPrivateProfileString(strGKey, "TargetItem", "0", szTemp, sizeof(szTemp), strPath);

  005d9	ff b5 ec fb ff
	ff		 push	 DWORD PTR _strPath$[ebp]
  005df	8b 3d 00 00 00
	00		 mov	 edi, DWORD PTR __imp__GetPrivateProfileStringA@24
  005e5	8d 85 f0 fb ff
	ff		 lea	 eax, DWORD PTR _szTemp$[ebp]
  005eb	68 00 04 00 00	 push	 1024			; 00000400H
  005f0	50		 push	 eax
  005f1	68 00 00 00 00	 push	 OFFSET ??_C@_01GBGANLPD@0@
  005f6	68 00 00 00 00	 push	 OFFSET ??_C@_0L@INPAEN@TargetItem@
  005fb	ff b5 e8 fb ff
	ff		 push	 DWORD PTR _strGKey$[ebp]
  00601	ff d7		 call	 edi

; 205  : 	m_strEditSubjectSelectItemText.Format("%s", szTemp);

  00603	8b 35 00 00 00
	00		 mov	 esi, DWORD PTR __imp_?Format@?$CStringT@DV?$StrTraitMFC_DLL@DV?$ChTraitsCRT@D@ATL@@@@@ATL@@QAAXPBDZZ
  00609	8d 85 f0 fb ff
	ff		 lea	 eax, DWORD PTR _szTemp$[ebp]
  0060f	50		 push	 eax
  00610	8d 83 e8 01 00
	00		 lea	 eax, DWORD PTR [ebx+488]
  00616	68 00 00 00 00	 push	 OFFSET ??_C@_02DKCKIIND@?$CFs@
  0061b	50		 push	 eax
  0061c	ff d6		 call	 esi
  0061e	83 c4 0c	 add	 esp, 12			; 0000000cH

; 206  : 
; 207  : 	::GetPrivateProfileString(strGKey, "TargetParnetItem", "0", szTemp, sizeof(szTemp), strPath);

  00621	8d 85 f0 fb ff
	ff		 lea	 eax, DWORD PTR _szTemp$[ebp]
  00627	ff b5 ec fb ff
	ff		 push	 DWORD PTR _strPath$[ebp]
  0062d	68 00 04 00 00	 push	 1024			; 00000400H
  00632	50		 push	 eax
  00633	68 00 00 00 00	 push	 OFFSET ??_C@_01GBGANLPD@0@
  00638	68 00 00 00 00	 push	 OFFSET ??_C@_0BB@NABPICPH@TargetParnetItem@
  0063d	ff b5 e8 fb ff
	ff		 push	 DWORD PTR _strGKey$[ebp]
  00643	ff d7		 call	 edi

; 208  : 	m_strEditSubjectSelectParentItemText.Format("%s", szTemp);

  00645	8d 85 f0 fb ff
	ff		 lea	 eax, DWORD PTR _szTemp$[ebp]
  0064b	50		 push	 eax
  0064c	8d 83 ec 01 00
	00		 lea	 eax, DWORD PTR [ebx+492]
  00652	68 00 00 00 00	 push	 OFFSET ??_C@_02DKCKIIND@?$CFs@
  00657	50		 push	 eax
  00658	ff d6		 call	 esi
  0065a	83 c4 0c	 add	 esp, 12			; 0000000cH

; 209  : 
; 210  : 	::GetPrivateProfileString("Tree_JangGubun", "Index", "1000", szTemp, sizeof(szTemp), strPath);

  0065d	8d 85 f0 fb ff
	ff		 lea	 eax, DWORD PTR _szTemp$[ebp]
  00663	ff b5 ec fb ff
	ff		 push	 DWORD PTR _strPath$[ebp]
  00669	68 00 04 00 00	 push	 1024			; 00000400H
  0066e	50		 push	 eax
  0066f	68 00 00 00 00	 push	 OFFSET ??_C@_04KOJKLCBG@1000@
  00674	68 00 00 00 00	 push	 OFFSET ??_C@_05FNNGFGLF@Index@
  00679	68 00 00 00 00	 push	 OFFSET ??_C@_0P@DNFHBFAL@Tree_JangGubun@
  0067e	ff d7		 call	 edi

; 211  : 	m_strJangGubun.Format("%s", szTemp);

  00680	8d 85 f0 fb ff
	ff		 lea	 eax, DWORD PTR _szTemp$[ebp]
  00686	50		 push	 eax
  00687	8d 83 f0 01 00
	00		 lea	 eax, DWORD PTR [ebx+496]
  0068d	68 00 00 00 00	 push	 OFFSET ??_C@_02DKCKIIND@?$CFs@
  00692	50		 push	 eax
  00693	ff d6		 call	 esi
  00695	83 c4 0c	 add	 esp, 12			; 0000000cH

; 212  : 
; 213  : 	SetEditSubjectTarGetBit();

  00698	8b cb		 mov	 ecx, ebx
  0069a	e8 00 00 00 00	 call	 ?SetEditSubjectTarGetBit@CCondTarget@@QAEXXZ ; CCondTarget::SetEditSubjectTarGetBit
; File C:\Program Files (x86)\Microsoft Visual Studio\2019\Community\VC\Tools\MSVC\14.29.30133\atlmfc\include\afxtempl.h

; 1555 : 	CAssoc* pAssoc = GetAssocAt(key, nHashBucket, nHashValue);

  0069f	8b bd d0 fb ff
	ff		 mov	 edi, DWORD PTR _nKey$1$[ebp]
  006a5	8d 8d e0 fb ff
	ff		 lea	 ecx, DWORD PTR _nHashValue$19[ebp]
  006ab	51		 push	 ecx
  006ac	8d 8d dc fb ff
	ff		 lea	 ecx, DWORD PTR _nHashBucket$4[ebp]
  006b2	51		 push	 ecx
  006b3	57		 push	 edi
  006b4	8d 8b 94 01 00
	00		 lea	 ecx, DWORD PTR [ebx+404]
  006ba	e8 00 00 00 00	 call	 ?GetAssocAt@?$CMap@HHPAVCGetBackData@@PAV1@@@IBEPAVCAssoc@1@HAAI0@Z ; CMap<int,int,CGetBackData *,CGetBackData *>::GetAssocAt

; 1556 : 	if (pAssoc == NULL)

  006bf	85 c0		 test	 eax, eax
  006c1	74 05		 je	 SHORT $LN129@LoadTdfDat

; 1557 : 		return FALSE;  // not in map
; 1558 : 
; 1559 : 	rValue = pAssoc->value;

  006c3	8b 48 04	 mov	 ecx, DWORD PTR [eax+4]
  006c6	eb 06		 jmp	 SHORT $LN76@LoadTdfDat
$LN129@LoadTdfDat:

; 1556 : 	if (pAssoc == NULL)

  006c8	8b 8d e0 fb ff
	ff		 mov	 ecx, DWORD PTR _pData$20[ebp]
$LN76@LoadTdfDat:
; File D:\git\src\IBK\IBK_DRFN\ProjSrc\SrcDrfn\Chart\MULTICHART\CondTarget.cpp

; 150  : 	if (pData)

  006ce	85 c9		 test	 ecx, ecx
  006d0	0f 84 c4 00 00
	00		 je	 $LN128@LoadTdfDat

; 151  : 	{
; 152  : 		delete pData;

  006d6	8b 01		 mov	 eax, DWORD PTR [ecx]
  006d8	6a 01		 push	 1
  006da	ff 10		 call	 DWORD PTR [eax]
; File C:\Program Files (x86)\Microsoft Visual Studio\2019\Community\VC\Tools\MSVC\14.29.30133\atlmfc\include\afxtempl.h

; 1614 : 	if (m_pHashTable == NULL)

  006dc	83 bb 98 01 00
	00 00		 cmp	 DWORD PTR [ebx+408], 0
  006e3	0f 84 b1 00 00
	00		 je	 $LN128@LoadTdfDat

; 165  : 	ldiv_t HashVal = ldiv((long)(ARG_KEY)key, 127773);

  006e9	8b c7		 mov	 eax, edi
  006eb	b9 1d f3 01 00	 mov	 ecx, 127773		; 0001f31dH
  006f0	99		 cdq
  006f1	f7 f9		 idiv	 ecx

; 166  : 	HashVal.rem = 16807 * HashVal.rem - 2836 * HashVal.quot;

  006f3	69 c0 14 0b 00
	00		 imul	 eax, eax, 2836
  006f9	69 ca a7 41 00
	00		 imul	 ecx, edx, 16807
  006ff	2b c8		 sub	 ecx, eax

; 1620 : 	ppAssocPrev = &m_pHashTable[nHashValue%m_nHashTableSize];

  00701	8d b1 ff ff ff
	7f		 lea	 esi, DWORD PTR [ecx+2147483647]
  00707	0f 49 f1	 cmovns	 esi, ecx
  0070a	33 d2		 xor	 edx, edx
  0070c	8b c6		 mov	 eax, esi
  0070e	f7 b3 9c 01 00
	00		 div	 DWORD PTR [ebx+412]
  00714	8b 83 98 01 00
	00		 mov	 eax, DWORD PTR [ebx+408]
  0071a	8d 14 90	 lea	 edx, DWORD PTR [eax+edx*4]

; 1621 : 
; 1622 : 	CAssoc* pAssoc;
; 1623 : 	for (pAssoc = *ppAssocPrev; pAssoc != NULL; pAssoc = pAssoc->pNext)

  0071d	8b 02		 mov	 eax, DWORD PTR [edx]
  0071f	85 c0		 test	 eax, eax
  00721	74 77		 je	 SHORT $LN128@LoadTdfDat
$LL82@LoadTdfDat:

; 1624 : 	{
; 1625 : 		if ((pAssoc->nHashValue == nHashValue) && CompareElements(&pAssoc->key, &key))

  00723	39 70 0c	 cmp	 DWORD PTR [eax+12], esi
  00726	75 04		 jne	 SHORT $LN84@LoadTdfDat

; 156  : 	return *pElement1 == *pElement2;

  00728	39 38		 cmp	 DWORD PTR [eax], edi

; 1625 : 		if ((pAssoc->nHashValue == nHashValue) && CompareElements(&pAssoc->key, &key))

  0072a	74 0b		 je	 SHORT $LN116@LoadTdfDat
$LN84@LoadTdfDat:

; 1629 : 			FreeAssoc(pAssoc);
; 1630 : 			return TRUE;
; 1631 : 		}
; 1632 : 		ppAssocPrev = &pAssoc->pNext;

  0072c	8d 50 08	 lea	 edx, DWORD PTR [eax+8]
  0072f	8b 02		 mov	 eax, DWORD PTR [edx]
  00731	85 c0		 test	 eax, eax
  00733	75 ee		 jne	 SHORT $LL82@LoadTdfDat

; 1621 : 
; 1622 : 	CAssoc* pAssoc;
; 1623 : 	for (pAssoc = *ppAssocPrev; pAssoc != NULL; pAssoc = pAssoc->pNext)

  00735	eb 63		 jmp	 SHORT $LN128@LoadTdfDat
$LN116@LoadTdfDat:

; 1626 : 		{
; 1627 : 			// remove it
; 1628 : 			*ppAssocPrev = pAssoc->pNext;  // remove from list

  00737	8b 48 08	 mov	 ecx, DWORD PTR [eax+8]
  0073a	89 0a		 mov	 DWORD PTR [edx], ecx

; 1518 : 	pAssoc->pNext = m_pFreeList;

  0073c	8b 8b a4 01 00
	00		 mov	 ecx, DWORD PTR [ebx+420]
  00742	89 48 08	 mov	 DWORD PTR [eax+8], ecx

; 1519 : 	m_pFreeList = pAssoc;
; 1520 : 	m_nCount--;

  00745	83 83 a0 01 00
	00 ff		 add	 DWORD PTR [ebx+416], -1
  0074c	89 83 a4 01 00
	00		 mov	 DWORD PTR [ebx+420], eax

; 1521 : 	ASSERT(m_nCount >= 0);  // make sure we don't underflow
; 1522 : 
; 1523 : 	// if no more elements, cleanup completely
; 1524 : 	if (m_nCount == 0)

  00752	75 46		 jne	 SHORT $LN128@LoadTdfDat

; 1446 : 	if (m_pHashTable != NULL)

  00754	8b 83 98 01 00
	00		 mov	 eax, DWORD PTR [ebx+408]
  0075a	85 c0		 test	 eax, eax
  0075c	74 13		 je	 SHORT $LN108@LoadTdfDat

; 1447 : 	{
; 1448 : 		// destroy elements (values and keys)
; 1449 : 		for (UINT nHash = 0; nHash < m_nHashTableSize; nHash++)
; 1450 : 		{
; 1451 : 			CAssoc* pAssoc;
; 1452 : 			for (pAssoc = m_pHashTable[nHash]; pAssoc != NULL;
; 1453 : 			  pAssoc = pAssoc->pNext)
; 1454 : 			{
; 1455 : 				pAssoc->CAssoc::~CAssoc();
; 1456 : 			}
; 1457 : 		}
; 1458 : 
; 1459 : 		// free hash table
; 1460 : 		delete[] m_pHashTable;

  0075e	50		 push	 eax
  0075f	e8 00 00 00 00	 call	 ??_V@YAXPAX@Z		; operator delete[]
  00764	83 c4 04	 add	 esp, 4

; 1461 : 		m_pHashTable = NULL;

  00767	c7 83 98 01 00
	00 00 00 00 00	 mov	 DWORD PTR [ebx+408], 0
$LN108@LoadTdfDat:

; 1462 : 	}
; 1463 : 
; 1464 : 	m_nCount = 0;
; 1465 : 	m_pFreeList = NULL;
; 1466 : 	m_pBlocks->FreeDataChain();

  00771	8b 8b a8 01 00
	00		 mov	 ecx, DWORD PTR [ebx+424]
  00777	c7 83 a0 01 00
	00 00 00 00 00	 mov	 DWORD PTR [ebx+416], 0
  00781	c7 83 a4 01 00
	00 00 00 00 00	 mov	 DWORD PTR [ebx+420], 0
  0078b	e8 00 00 00 00	 call	 ?FreeDataChain@CPlex@@QAEXXZ ; CPlex::FreeDataChain

; 1467 : 	m_pBlocks = NULL;

  00790	c7 83 a8 01 00
	00 00 00 00 00	 mov	 DWORD PTR [ebx+424], 0
$LN128@LoadTdfDat:
; File D:\git\src\IBK\IBK_DRFN\ProjSrc\SrcDrfn\Chart\MULTICHART\CondTarget.cpp

; 216  : }

  0079a	8d 8d e8 fb ff
	ff		 lea	 ecx, DWORD PTR _strGKey$[ebp]
  007a0	ff 15 00 00 00
	00		 call	 DWORD PTR __imp_??1?$CStringT@DV?$StrTraitMFC_DLL@DV?$ChTraitsCRT@D@ATL@@@@@ATL@@QAE@XZ
$LN54@LoadTdfDat:
  007a6	8d 8d b4 fb ff
	ff		 lea	 ecx, DWORD PTR _ff$[ebp]
  007ac	e8 00 00 00 00	 call	 ??1CFileFind@@UAE@XZ	; CFileFind::~CFileFind
  007b1	8d 8d ec fb ff
	ff		 lea	 ecx, DWORD PTR _strPath$[ebp]
  007b7	ff 15 00 00 00
	00		 call	 DWORD PTR __imp_??1?$CStringT@DV?$StrTraitMFC_DLL@DV?$ChTraitsCRT@D@ATL@@@@@ATL@@QAE@XZ
$LN53@LoadTdfDat:
  007bd	8d 8d d4 fb ff
	ff		 lea	 ecx, DWORD PTR _szExt$[ebp]
  007c3	ff 15 00 00 00
	00		 call	 DWORD PTR __imp_??1?$CStringT@DV?$StrTraitMFC_DLL@DV?$ChTraitsCRT@D@ATL@@@@@ATL@@QAE@XZ
  007c9	8d 8d d8 fb ff
	ff		 lea	 ecx, DWORD PTR _strFullPath$[ebp]
  007cf	ff 15 00 00 00
	00		 call	 DWORD PTR __imp_??1?$CStringT@DV?$StrTraitMFC_DLL@DV?$ChTraitsCRT@D@ATL@@@@@ATL@@QAE@XZ
  007d5	8b 4d f4	 mov	 ecx, DWORD PTR __$EHRec$[ebp]
  007d8	64 89 0d 00 00
	00 00		 mov	 DWORD PTR fs:0, ecx
  007df	59		 pop	 ecx
  007e0	5f		 pop	 edi
  007e1	5e		 pop	 esi
  007e2	5b		 pop	 ebx
  007e3	8b 4d f0	 mov	 ecx, DWORD PTR __$ArrayPad$[ebp]
  007e6	33 cd		 xor	 ecx, ebp
  007e8	e8 00 00 00 00	 call	 @__security_check_cookie@4
  007ed	8b e5		 mov	 esp, ebp
  007ef	5d		 pop	 ebp
  007f0	c2 04 00	 ret	 4
_TEXT	ENDS
;	COMDAT text$x
text$x	SEGMENT
__unwindfunclet$?LoadTdfData@CCondTarget@@QAEXPAVCGetBackData@@@Z$0:
  00000	8d 8d d8 fb ff
	ff		 lea	 ecx, DWORD PTR _strFullPath$[ebp]
  00006	ff 25 00 00 00
	00		 jmp	 DWORD PTR __imp_??1?$CStringT@DV?$StrTraitMFC_DLL@DV?$ChTraitsCRT@D@ATL@@@@@ATL@@QAE@XZ
__unwindfunclet$?LoadTdfData@CCondTarget@@QAEXPAVCGetBackData@@@Z$1:
  0000c	8d 8d d4 fb ff
	ff		 lea	 ecx, DWORD PTR _szExt$[ebp]
  00012	ff 25 00 00 00
	00		 jmp	 DWORD PTR __imp_??1?$CStringT@DV?$StrTraitMFC_DLL@DV?$ChTraitsCRT@D@ATL@@@@@ATL@@QAE@XZ
__unwindfunclet$?LoadTdfData@CCondTarget@@QAEXPAVCGetBackData@@@Z$2:
  00018	8d 8d ec fb ff
	ff		 lea	 ecx, DWORD PTR _strPath$[ebp]
  0001e	ff 25 00 00 00
	00		 jmp	 DWORD PTR __imp_??1?$CStringT@DV?$StrTraitMFC_DLL@DV?$ChTraitsCRT@D@ATL@@@@@ATL@@QAE@XZ
__unwindfunclet$?LoadTdfData@CCondTarget@@QAEXPAVCGetBackData@@@Z$3:
  00024	8d 8d e4 fb ff
	ff		 lea	 ecx, DWORD PTR $T35[ebp]
  0002a	ff 25 00 00 00
	00		 jmp	 DWORD PTR __imp_??1?$CStringT@DV?$StrTraitMFC_DLL@DV?$ChTraitsCRT@D@ATL@@@@@ATL@@QAE@XZ
__unwindfunclet$?LoadTdfData@CCondTarget@@QAEXPAVCGetBackData@@@Z$4:
  00030	8d 8d b4 fb ff
	ff		 lea	 ecx, DWORD PTR _ff$[ebp]
  00036	e9 00 00 00 00	 jmp	 ??1CFileFind@@UAE@XZ	; CFileFind::~CFileFind
__unwindfunclet$?LoadTdfData@CCondTarget@@QAEXPAVCGetBackData@@@Z$5:
  0003b	8d 8d e8 fb ff
	ff		 lea	 ecx, DWORD PTR _strGKey$[ebp]
  00041	ff 25 00 00 00
	00		 jmp	 DWORD PTR __imp_??1?$CStringT@DV?$StrTraitMFC_DLL@DV?$ChTraitsCRT@D@ATL@@@@@ATL@@QAE@XZ
__unwindfunclet$?LoadTdfData@CCondTarget@@QAEXPAVCGetBackData@@@Z$6:
  00047	8b 8d e4 fb ff
	ff		 mov	 ecx, DWORD PTR $T34[ebp]
  0004d	ff 25 00 00 00
	00		 jmp	 DWORD PTR __imp_??1?$CStringT@DV?$StrTraitMFC_DLL@DV?$ChTraitsCRT@D@ATL@@@@@ATL@@QAE@XZ
__unwindfunclet$?LoadTdfData@CCondTarget@@QAEXPAVCGetBackData@@@Z$7:
  00053	8b 8d dc fb ff
	ff		 mov	 ecx, DWORD PTR $T18[ebp]
  00059	ff 25 00 00 00
	00		 jmp	 DWORD PTR __imp_??1?$CStringT@DV?$StrTraitMFC_DLL@DV?$ChTraitsCRT@D@ATL@@@@@ATL@@QAE@XZ
__unwindfunclet$?LoadTdfData@CCondTarget@@QAEXPAVCGetBackData@@@Z$9:
  0005f	8b 8d e0 fb ff
	ff		 mov	 ecx, DWORD PTR $T33[ebp]
  00065	ff 25 00 00 00
	00		 jmp	 DWORD PTR __imp_??1?$CStringT@DV?$StrTraitMFC_DLL@DV?$ChTraitsCRT@D@ATL@@@@@ATL@@QAE@XZ
__unwindfunclet$?LoadTdfData@CCondTarget@@QAEXPAVCGetBackData@@@Z$10:
  0006b	8b 8d dc fb ff
	ff		 mov	 ecx, DWORD PTR $T17[ebp]
  00071	ff 25 00 00 00
	00		 jmp	 DWORD PTR __imp_??1?$CStringT@DV?$StrTraitMFC_DLL@DV?$ChTraitsCRT@D@ATL@@@@@ATL@@QAE@XZ
__unwindfunclet$?LoadTdfData@CCondTarget@@QAEXPAVCGetBackData@@@Z$12:
  00077	8b 8d e0 fb ff
	ff		 mov	 ecx, DWORD PTR $T32[ebp]
  0007d	ff 25 00 00 00
	00		 jmp	 DWORD PTR __imp_??1?$CStringT@DV?$StrTraitMFC_DLL@DV?$ChTraitsCRT@D@ATL@@@@@ATL@@QAE@XZ
__unwindfunclet$?LoadTdfData@CCondTarget@@QAEXPAVCGetBackData@@@Z$13:
  00083	8b 8d dc fb ff
	ff		 mov	 ecx, DWORD PTR $T16[ebp]
  00089	ff 25 00 00 00
	00		 jmp	 DWORD PTR __imp_??1?$CStringT@DV?$StrTraitMFC_DLL@DV?$ChTraitsCRT@D@ATL@@@@@ATL@@QAE@XZ
__unwindfunclet$?LoadTdfData@CCondTarget@@QAEXPAVCGetBackData@@@Z$15:
  0008f	8b 8d e0 fb ff
	ff		 mov	 ecx, DWORD PTR $T31[ebp]
  00095	ff 25 00 00 00
	00		 jmp	 DWORD PTR __imp_??1?$CStringT@DV?$StrTraitMFC_DLL@DV?$ChTraitsCRT@D@ATL@@@@@ATL@@QAE@XZ
__unwindfunclet$?LoadTdfData@CCondTarget@@QAEXPAVCGetBackData@@@Z$16:
  0009b	8b 8d dc fb ff
	ff		 mov	 ecx, DWORD PTR $T15[ebp]
  000a1	ff 25 00 00 00
	00		 jmp	 DWORD PTR __imp_??1?$CStringT@DV?$StrTraitMFC_DLL@DV?$ChTraitsCRT@D@ATL@@@@@ATL@@QAE@XZ
__unwindfunclet$?LoadTdfData@CCondTarget@@QAEXPAVCGetBackData@@@Z$18:
  000a7	8b 8d e0 fb ff
	ff		 mov	 ecx, DWORD PTR $T30[ebp]
  000ad	ff 25 00 00 00
	00		 jmp	 DWORD PTR __imp_??1?$CStringT@DV?$StrTraitMFC_DLL@DV?$ChTraitsCRT@D@ATL@@@@@ATL@@QAE@XZ
__unwindfunclet$?LoadTdfData@CCondTarget@@QAEXPAVCGetBackData@@@Z$19:
  000b3	8b 8d dc fb ff
	ff		 mov	 ecx, DWORD PTR $T14[ebp]
  000b9	ff 25 00 00 00
	00		 jmp	 DWORD PTR __imp_??1?$CStringT@DV?$StrTraitMFC_DLL@DV?$ChTraitsCRT@D@ATL@@@@@ATL@@QAE@XZ
__unwindfunclet$?LoadTdfData@CCondTarget@@QAEXPAVCGetBackData@@@Z$21:
  000bf	8b 8d e0 fb ff
	ff		 mov	 ecx, DWORD PTR $T29[ebp]
  000c5	ff 25 00 00 00
	00		 jmp	 DWORD PTR __imp_??1?$CStringT@DV?$StrTraitMFC_DLL@DV?$ChTraitsCRT@D@ATL@@@@@ATL@@QAE@XZ
__unwindfunclet$?LoadTdfData@CCondTarget@@QAEXPAVCGetBackData@@@Z$22:
  000cb	8b 8d dc fb ff
	ff		 mov	 ecx, DWORD PTR $T13[ebp]
  000d1	ff 25 00 00 00
	00		 jmp	 DWORD PTR __imp_??1?$CStringT@DV?$StrTraitMFC_DLL@DV?$ChTraitsCRT@D@ATL@@@@@ATL@@QAE@XZ
__unwindfunclet$?LoadTdfData@CCondTarget@@QAEXPAVCGetBackData@@@Z$24:
  000d7	8b 8d e0 fb ff
	ff		 mov	 ecx, DWORD PTR $T28[ebp]
  000dd	ff 25 00 00 00
	00		 jmp	 DWORD PTR __imp_??1?$CStringT@DV?$StrTraitMFC_DLL@DV?$ChTraitsCRT@D@ATL@@@@@ATL@@QAE@XZ
__unwindfunclet$?LoadTdfData@CCondTarget@@QAEXPAVCGetBackData@@@Z$25:
  000e3	8b 8d dc fb ff
	ff		 mov	 ecx, DWORD PTR $T12[ebp]
  000e9	ff 25 00 00 00
	00		 jmp	 DWORD PTR __imp_??1?$CStringT@DV?$StrTraitMFC_DLL@DV?$ChTraitsCRT@D@ATL@@@@@ATL@@QAE@XZ
__unwindfunclet$?LoadTdfData@CCondTarget@@QAEXPAVCGetBackData@@@Z$27:
  000ef	8b 8d e0 fb ff
	ff		 mov	 ecx, DWORD PTR $T27[ebp]
  000f5	ff 25 00 00 00
	00		 jmp	 DWORD PTR __imp_??1?$CStringT@DV?$StrTraitMFC_DLL@DV?$ChTraitsCRT@D@ATL@@@@@ATL@@QAE@XZ
__unwindfunclet$?LoadTdfData@CCondTarget@@QAEXPAVCGetBackData@@@Z$28:
  000fb	8b 8d dc fb ff
	ff		 mov	 ecx, DWORD PTR $T11[ebp]
  00101	ff 25 00 00 00
	00		 jmp	 DWORD PTR __imp_??1?$CStringT@DV?$StrTraitMFC_DLL@DV?$ChTraitsCRT@D@ATL@@@@@ATL@@QAE@XZ
__unwindfunclet$?LoadTdfData@CCondTarget@@QAEXPAVCGetBackData@@@Z$30:
  00107	8b 8d e0 fb ff
	ff		 mov	 ecx, DWORD PTR $T26[ebp]
  0010d	ff 25 00 00 00
	00		 jmp	 DWORD PTR __imp_??1?$CStringT@DV?$StrTraitMFC_DLL@DV?$ChTraitsCRT@D@ATL@@@@@ATL@@QAE@XZ
__unwindfunclet$?LoadTdfData@CCondTarget@@QAEXPAVCGetBackData@@@Z$31:
  00113	8b 8d dc fb ff
	ff		 mov	 ecx, DWORD PTR $T10[ebp]
  00119	ff 25 00 00 00
	00		 jmp	 DWORD PTR __imp_??1?$CStringT@DV?$StrTraitMFC_DLL@DV?$ChTraitsCRT@D@ATL@@@@@ATL@@QAE@XZ
__unwindfunclet$?LoadTdfData@CCondTarget@@QAEXPAVCGetBackData@@@Z$33:
  0011f	8b 8d e0 fb ff
	ff		 mov	 ecx, DWORD PTR $T25[ebp]
  00125	ff 25 00 00 00
	00		 jmp	 DWORD PTR __imp_??1?$CStringT@DV?$StrTraitMFC_DLL@DV?$ChTraitsCRT@D@ATL@@@@@ATL@@QAE@XZ
__unwindfunclet$?LoadTdfData@CCondTarget@@QAEXPAVCGetBackData@@@Z$34:
  0012b	8b 8d dc fb ff
	ff		 mov	 ecx, DWORD PTR $T9[ebp]
  00131	ff 25 00 00 00
	00		 jmp	 DWORD PTR __imp_??1?$CStringT@DV?$StrTraitMFC_DLL@DV?$ChTraitsCRT@D@ATL@@@@@ATL@@QAE@XZ
__unwindfunclet$?LoadTdfData@CCondTarget@@QAEXPAVCGetBackData@@@Z$36:
  00137	8b 8d e0 fb ff
	ff		 mov	 ecx, DWORD PTR $T24[ebp]
  0013d	ff 25 00 00 00
	00		 jmp	 DWORD PTR __imp_??1?$CStringT@DV?$StrTraitMFC_DLL@DV?$ChTraitsCRT@D@ATL@@@@@ATL@@QAE@XZ
__unwindfunclet$?LoadTdfData@CCondTarget@@QAEXPAVCGetBackData@@@Z$37:
  00143	8b 8d dc fb ff
	ff		 mov	 ecx, DWORD PTR $T8[ebp]
  00149	ff 25 00 00 00
	00		 jmp	 DWORD PTR __imp_??1?$CStringT@DV?$StrTraitMFC_DLL@DV?$ChTraitsCRT@D@ATL@@@@@ATL@@QAE@XZ
__unwindfunclet$?LoadTdfData@CCondTarget@@QAEXPAVCGetBackData@@@Z$39:
  0014f	8b 8d e0 fb ff
	ff		 mov	 ecx, DWORD PTR $T23[ebp]
  00155	ff 25 00 00 00
	00		 jmp	 DWORD PTR __imp_??1?$CStringT@DV?$StrTraitMFC_DLL@DV?$ChTraitsCRT@D@ATL@@@@@ATL@@QAE@XZ
__unwindfunclet$?LoadTdfData@CCondTarget@@QAEXPAVCGetBackData@@@Z$40:
  0015b	8b 8d dc fb ff
	ff		 mov	 ecx, DWORD PTR $T7[ebp]
  00161	ff 25 00 00 00
	00		 jmp	 DWORD PTR __imp_??1?$CStringT@DV?$StrTraitMFC_DLL@DV?$ChTraitsCRT@D@ATL@@@@@ATL@@QAE@XZ
__unwindfunclet$?LoadTdfData@CCondTarget@@QAEXPAVCGetBackData@@@Z$42:
  00167	8b 8d e0 fb ff
	ff		 mov	 ecx, DWORD PTR $T22[ebp]
  0016d	ff 25 00 00 00
	00		 jmp	 DWORD PTR __imp_??1?$CStringT@DV?$StrTraitMFC_DLL@DV?$ChTraitsCRT@D@ATL@@@@@ATL@@QAE@XZ
__unwindfunclet$?LoadTdfData@CCondTarget@@QAEXPAVCGetBackData@@@Z$43:
  00173	8b 8d dc fb ff
	ff		 mov	 ecx, DWORD PTR $T6[ebp]
  00179	ff 25 00 00 00
	00		 jmp	 DWORD PTR __imp_??1?$CStringT@DV?$StrTraitMFC_DLL@DV?$ChTraitsCRT@D@ATL@@@@@ATL@@QAE@XZ
__unwindfunclet$?LoadTdfData@CCondTarget@@QAEXPAVCGetBackData@@@Z$45:
  0017f	8b 8d e0 fb ff
	ff		 mov	 ecx, DWORD PTR $T21[ebp]
  00185	ff 25 00 00 00
	00		 jmp	 DWORD PTR __imp_??1?$CStringT@DV?$StrTraitMFC_DLL@DV?$ChTraitsCRT@D@ATL@@@@@ATL@@QAE@XZ
__unwindfunclet$?LoadTdfData@CCondTarget@@QAEXPAVCGetBackData@@@Z$46:
  0018b	8b 8d dc fb ff
	ff		 mov	 ecx, DWORD PTR $T5[ebp]
  00191	ff 25 00 00 00
	00		 jmp	 DWORD PTR __imp_??1?$CStringT@DV?$StrTraitMFC_DLL@DV?$ChTraitsCRT@D@ATL@@@@@ATL@@QAE@XZ
  00197	cc		 int	 3
  00198	cc		 int	 3
  00199	cc		 int	 3
  0019a	cc		 int	 3
  0019b	cc		 int	 3
__ehhandler$?LoadTdfData@CCondTarget@@QAEXPAVCGetBackData@@@Z:
  0019c	90		 npad	 1
  0019d	90		 npad	 1
  0019e	8b 54 24 08	 mov	 edx, DWORD PTR [esp+8]
  001a2	8d 42 0c	 lea	 eax, DWORD PTR [edx+12]
  001a5	8b 8a b0 fb ff
	ff		 mov	 ecx, DWORD PTR [edx-1104]
  001ab	33 c8		 xor	 ecx, eax
  001ad	e8 00 00 00 00	 call	 @__security_check_cookie@4
  001b2	8b 4a fc	 mov	 ecx, DWORD PTR [edx-4]
  001b5	33 c8		 xor	 ecx, eax
  001b7	e8 00 00 00 00	 call	 @__security_check_cookie@4
  001bc	b8 00 00 00 00	 mov	 eax, OFFSET __ehfuncinfo$?LoadTdfData@CCondTarget@@QAEXPAVCGetBackData@@@Z
  001c1	e9 00 00 00 00	 jmp	 ___CxxFrameHandler3
text$x	ENDS
?LoadTdfData@CCondTarget@@QAEXPAVCGetBackData@@@Z ENDP	; CCondTarget::LoadTdfData
; Function compile flags: /Ogtp
; File D:\git\src\IBK\IBK_DRFN\ProjSrc\SrcDrfn\Chart\MULTICHART\CondTarget.cpp
; File C:\Program Files (x86)\Microsoft Visual Studio\2019\Community\VC\Tools\MSVC\14.29.30133\atlmfc\include\afxtempl.h
; File D:\git\src\IBK\IBK_DRFN\ProjSrc\SrcDrfn\Chart\MULTICHART\CondTarget.cpp
; File C:\Program Files (x86)\Microsoft Visual Studio\2019\Community\VC\Tools\MSVC\14.29.30133\atlmfc\include\afxtempl.h
; File D:\git\src\IBK\IBK_DRFN\ProjSrc\SrcDrfn\Chart\MULTICHART\CondTarget.cpp
; File C:\Program Files (x86)\Microsoft Visual Studio\2019\Community\VC\Tools\MSVC\14.29.30133\atlmfc\include\afxtempl.h
; File D:\git\src\IBK\IBK_DRFN\ProjSrc\SrcDrfn\Chart\MULTICHART\CondTarget.cpp
; File C:\Program Files (x86)\Microsoft Visual Studio\2019\Community\VC\Tools\MSVC\14.29.30133\atlmfc\include\afxtempl.h
; File D:\git\src\IBK\IBK_DRFN\ProjSrc\SrcDrfn\Chart\MULTICHART\CondTarget.cpp
;	COMDAT ?RemoveAtGetBackData@CCondTarget@@QAEXH@Z
_TEXT	SEGMENT
_nHashBucket$3 = -8					; size = 4
_nHashValue$4 = -4					; size = 4
_pData$ = 8						; size = 4
_nKey$ = 8						; size = 4
?RemoveAtGetBackData@CCondTarget@@QAEXH@Z PROC		; CCondTarget::RemoveAtGetBackData, COMDAT
; _this$ = ecx

; 147  : {

  00000	55		 push	 ebp
  00001	8b ec		 mov	 ebp, esp
  00003	83 ec 08	 sub	 esp, 8
  00006	56		 push	 esi
  00007	57		 push	 edi
; File C:\Program Files (x86)\Microsoft Visual Studio\2019\Community\VC\Tools\MSVC\14.29.30133\atlmfc\include\afxtempl.h

; 1555 : 	CAssoc* pAssoc = GetAssocAt(key, nHashBucket, nHashValue);

  00008	8b 7d 08	 mov	 edi, DWORD PTR _nKey$[ebp]
; File D:\git\src\IBK\IBK_DRFN\ProjSrc\SrcDrfn\Chart\MULTICHART\CondTarget.cpp

; 147  : {

  0000b	8b f1		 mov	 esi, ecx
; File C:\Program Files (x86)\Microsoft Visual Studio\2019\Community\VC\Tools\MSVC\14.29.30133\atlmfc\include\afxtempl.h

; 1555 : 	CAssoc* pAssoc = GetAssocAt(key, nHashBucket, nHashValue);

  0000d	8d 4d fc	 lea	 ecx, DWORD PTR _nHashValue$4[ebp]
  00010	51		 push	 ecx
  00011	8d 4d f8	 lea	 ecx, DWORD PTR _nHashBucket$3[ebp]
  00014	51		 push	 ecx
  00015	57		 push	 edi
  00016	8d 8e 94 01 00
	00		 lea	 ecx, DWORD PTR [esi+404]
  0001c	e8 00 00 00 00	 call	 ?GetAssocAt@?$CMap@HHPAVCGetBackData@@PAV1@@@IBEPAVCAssoc@1@HAAI0@Z ; CMap<int,int,CGetBackData *,CGetBackData *>::GetAssocAt

; 1556 : 	if (pAssoc == NULL)

  00021	85 c0		 test	 eax, eax
  00023	74 05		 je	 SHORT $LN58@RemoveAtGe

; 1557 : 		return FALSE;  // not in map
; 1558 : 
; 1559 : 	rValue = pAssoc->value;

  00025	8b 48 04	 mov	 ecx, DWORD PTR [eax+4]
  00028	eb 03		 jmp	 SHORT $LN6@RemoveAtGe
$LN58@RemoveAtGe:

; 1556 : 	if (pAssoc == NULL)

  0002a	8b 4d 08	 mov	 ecx, DWORD PTR _pData$[ebp]
$LN6@RemoveAtGe:
; File D:\git\src\IBK\IBK_DRFN\ProjSrc\SrcDrfn\Chart\MULTICHART\CondTarget.cpp

; 150  : 	if (pData)

  0002d	85 c9		 test	 ecx, ecx
  0002f	0f 84 d1 00 00
	00		 je	 $LN57@RemoveAtGe

; 151  : 	{
; 152  : 		delete pData;

  00035	8b 01		 mov	 eax, DWORD PTR [ecx]
  00037	6a 01		 push	 1
  00039	ff 10		 call	 DWORD PTR [eax]
; File C:\Program Files (x86)\Microsoft Visual Studio\2019\Community\VC\Tools\MSVC\14.29.30133\atlmfc\include\afxtempl.h

; 1614 : 	if (m_pHashTable == NULL)

  0003b	83 be 98 01 00
	00 00		 cmp	 DWORD PTR [esi+408], 0
  00042	0f 84 be 00 00
	00		 je	 $LN57@RemoveAtGe

; 165  : 	ldiv_t HashVal = ldiv((long)(ARG_KEY)key, 127773);

  00048	8b c7		 mov	 eax, edi
  0004a	b9 1d f3 01 00	 mov	 ecx, 127773		; 0001f31dH
  0004f	99		 cdq
  00050	f7 f9		 idiv	 ecx
  00052	53		 push	 ebx

; 166  : 	HashVal.rem = 16807 * HashVal.rem - 2836 * HashVal.quot;

  00053	69 c0 14 0b 00
	00		 imul	 eax, eax, 2836
  00059	69 ca a7 41 00
	00		 imul	 ecx, edx, 16807
  0005f	2b c8		 sub	 ecx, eax

; 1620 : 	ppAssocPrev = &m_pHashTable[nHashValue%m_nHashTableSize];

  00061	8d 99 ff ff ff
	7f		 lea	 ebx, DWORD PTR [ecx+2147483647]
  00067	0f 49 d9	 cmovns	 ebx, ecx
  0006a	33 d2		 xor	 edx, edx
  0006c	8b c3		 mov	 eax, ebx
  0006e	f7 b6 9c 01 00
	00		 div	 DWORD PTR [esi+412]
  00074	8b 86 98 01 00
	00		 mov	 eax, DWORD PTR [esi+408]
  0007a	8d 14 90	 lea	 edx, DWORD PTR [eax+edx*4]

; 1621 : 
; 1622 : 	CAssoc* pAssoc;
; 1623 : 	for (pAssoc = *ppAssocPrev; pAssoc != NULL; pAssoc = pAssoc->pNext)

  0007d	8b 02		 mov	 eax, DWORD PTR [edx]
  0007f	85 c0		 test	 eax, eax
  00081	0f 84 7e 00 00
	00		 je	 $LN59@RemoveAtGe
$LL12@RemoveAtGe:

; 1624 : 	{
; 1625 : 		if ((pAssoc->nHashValue == nHashValue) && CompareElements(&pAssoc->key, &key))

  00087	39 58 0c	 cmp	 DWORD PTR [eax+12], ebx
  0008a	75 04		 jne	 SHORT $LN14@RemoveAtGe

; 156  : 	return *pElement1 == *pElement2;

  0008c	39 38		 cmp	 DWORD PTR [eax], edi

; 1625 : 		if ((pAssoc->nHashValue == nHashValue) && CompareElements(&pAssoc->key, &key))

  0008e	74 12		 je	 SHORT $LN45@RemoveAtGe
$LN14@RemoveAtGe:

; 1629 : 			FreeAssoc(pAssoc);
; 1630 : 			return TRUE;
; 1631 : 		}
; 1632 : 		ppAssocPrev = &pAssoc->pNext;

  00090	8d 50 08	 lea	 edx, DWORD PTR [eax+8]
  00093	8b 02		 mov	 eax, DWORD PTR [edx]
  00095	85 c0		 test	 eax, eax
  00097	75 ee		 jne	 SHORT $LL12@RemoveAtGe
; File D:\git\src\IBK\IBK_DRFN\ProjSrc\SrcDrfn\Chart\MULTICHART\CondTarget.cpp

; 157  : }

  00099	5b		 pop	 ebx
  0009a	5f		 pop	 edi
  0009b	5e		 pop	 esi
  0009c	8b e5		 mov	 esp, ebp
  0009e	5d		 pop	 ebp
  0009f	c2 04 00	 ret	 4
$LN45@RemoveAtGe:
; File C:\Program Files (x86)\Microsoft Visual Studio\2019\Community\VC\Tools\MSVC\14.29.30133\atlmfc\include\afxtempl.h

; 1628 : 			*ppAssocPrev = pAssoc->pNext;  // remove from list

  000a2	8b 48 08	 mov	 ecx, DWORD PTR [eax+8]
  000a5	89 0a		 mov	 DWORD PTR [edx], ecx

; 1518 : 	pAssoc->pNext = m_pFreeList;

  000a7	8b 8e a4 01 00
	00		 mov	 ecx, DWORD PTR [esi+420]
  000ad	89 48 08	 mov	 DWORD PTR [eax+8], ecx

; 1519 : 	m_pFreeList = pAssoc;
; 1520 : 	m_nCount--;

  000b0	83 86 a0 01 00
	00 ff		 add	 DWORD PTR [esi+416], -1
  000b7	89 86 a4 01 00
	00		 mov	 DWORD PTR [esi+420], eax

; 1521 : 	ASSERT(m_nCount >= 0);  // make sure we don't underflow
; 1522 : 
; 1523 : 	// if no more elements, cleanup completely
; 1524 : 	if (m_nCount == 0)

  000bd	75 46		 jne	 SHORT $LN59@RemoveAtGe

; 1446 : 	if (m_pHashTable != NULL)

  000bf	8b 86 98 01 00
	00		 mov	 eax, DWORD PTR [esi+408]
  000c5	85 c0		 test	 eax, eax
  000c7	74 13		 je	 SHORT $LN38@RemoveAtGe

; 1447 : 	{
; 1448 : 		// destroy elements (values and keys)
; 1449 : 		for (UINT nHash = 0; nHash < m_nHashTableSize; nHash++)
; 1450 : 		{
; 1451 : 			CAssoc* pAssoc;
; 1452 : 			for (pAssoc = m_pHashTable[nHash]; pAssoc != NULL;
; 1453 : 			  pAssoc = pAssoc->pNext)
; 1454 : 			{
; 1455 : 				pAssoc->CAssoc::~CAssoc();
; 1456 : 			}
; 1457 : 		}
; 1458 : 
; 1459 : 		// free hash table
; 1460 : 		delete[] m_pHashTable;

  000c9	50		 push	 eax
  000ca	e8 00 00 00 00	 call	 ??_V@YAXPAX@Z		; operator delete[]
  000cf	83 c4 04	 add	 esp, 4

; 1461 : 		m_pHashTable = NULL;

  000d2	c7 86 98 01 00
	00 00 00 00 00	 mov	 DWORD PTR [esi+408], 0
$LN38@RemoveAtGe:

; 1462 : 	}
; 1463 : 
; 1464 : 	m_nCount = 0;
; 1465 : 	m_pFreeList = NULL;
; 1466 : 	m_pBlocks->FreeDataChain();

  000dc	8b 8e a8 01 00
	00		 mov	 ecx, DWORD PTR [esi+424]
  000e2	c7 86 a0 01 00
	00 00 00 00 00	 mov	 DWORD PTR [esi+416], 0
  000ec	c7 86 a4 01 00
	00 00 00 00 00	 mov	 DWORD PTR [esi+420], 0
  000f6	e8 00 00 00 00	 call	 ?FreeDataChain@CPlex@@QAEXXZ ; CPlex::FreeDataChain

; 1467 : 	m_pBlocks = NULL;

  000fb	c7 86 a8 01 00
	00 00 00 00 00	 mov	 DWORD PTR [esi+424], 0
$LN59@RemoveAtGe:
  00105	5b		 pop	 ebx
$LN57@RemoveAtGe:
  00106	5f		 pop	 edi
; File D:\git\src\IBK\IBK_DRFN\ProjSrc\SrcDrfn\Chart\MULTICHART\CondTarget.cpp

; 157  : }

  00107	5e		 pop	 esi
  00108	8b e5		 mov	 esp, ebp
  0010a	5d		 pop	 ebp
  0010b	c2 04 00	 ret	 4
?RemoveAtGetBackData@CCondTarget@@QAEXH@Z ENDP		; CCondTarget::RemoveAtGetBackData
_TEXT	ENDS
; Function compile flags: /Ogtp
; File D:\git\src\IBK\IBK_DRFN\ProjSrc\SrcDrfn\Chart\MULTICHART\CondTarget.cpp
; File C:\Program Files (x86)\Microsoft Visual Studio\2019\Community\VC\Tools\MSVC\14.29.30133\atlmfc\include\afxtempl.h
; File D:\git\src\IBK\IBK_DRFN\ProjSrc\SrcDrfn\Chart\MULTICHART\CondTarget.cpp
; File D:\git\src\IBK\IBK_DRFN\ProjSrc\SrcDrfn\Chart\MULTICHART\CondTarget.h
; File D:\git\src\IBK\IBK_DRFN\ProjSrc\SrcDrfn\Chart\MULTICHART\CondTarget.cpp
; File C:\Program Files (x86)\Microsoft Visual Studio\2019\Community\VC\Tools\MSVC\14.29.30133\atlmfc\include\afxtempl.h
; File D:\git\src\IBK\IBK_DRFN\ProjSrc\SrcDrfn\Chart\MULTICHART\CondTarget.cpp
;	COMDAT ?SetGetBackData@CCondTarget@@QAEPAVCGetBackData@@V?$CStringT@DV?$StrTraitMFC_DLL@DV?$ChTraitsCRT@D@ATL@@@@@ATL@@@Z
_TEXT	SEGMENT
$T4 = -20						; size = 4
$T5 = -16						; size = 4
__$EHRec$ = -12						; size = 12
_strPath$ = 8						; size = 4
?SetGetBackData@CCondTarget@@QAEPAVCGetBackData@@V?$CStringT@DV?$StrTraitMFC_DLL@DV?$ChTraitsCRT@D@ATL@@@@@ATL@@@Z PROC ; CCondTarget::SetGetBackData, COMDAT
; _this$ = ecx

; 133  : {

  00000	55		 push	 ebp
  00001	8b ec		 mov	 ebp, esp
  00003	6a ff		 push	 -1
  00005	68 00 00 00 00	 push	 __ehhandler$?SetGetBackData@CCondTarget@@QAEPAVCGetBackData@@V?$CStringT@DV?$StrTraitMFC_DLL@DV?$ChTraitsCRT@D@ATL@@@@@ATL@@@Z
  0000a	64 a1 00 00 00
	00		 mov	 eax, DWORD PTR fs:0
  00010	50		 push	 eax
  00011	83 ec 08	 sub	 esp, 8
  00014	53		 push	 ebx
  00015	56		 push	 esi
  00016	57		 push	 edi
  00017	a1 00 00 00 00	 mov	 eax, DWORD PTR ___security_cookie
  0001c	33 c5		 xor	 eax, ebp
  0001e	50		 push	 eax
  0001f	8d 45 f4	 lea	 eax, DWORD PTR __$EHRec$[ebp]
  00022	64 a3 00 00 00
	00		 mov	 DWORD PTR fs:0, eax
  00028	8b d9		 mov	 ebx, ecx
  0002a	c7 45 fc 00 00
	00 00		 mov	 DWORD PTR __$EHRec$[ebp+8], 0
$LN56@SetGetBack:
; File C:\Program Files (x86)\Microsoft Visual Studio\2019\Community\VC\Tools\MSVC\14.29.30133\atlmfc\include\afxtempl.h

; 165  : 	ldiv_t HashVal = ldiv((long)(ARG_KEY)key, 127773);

  00031	8b b3 90 01 00
	00		 mov	 esi, DWORD PTR [ebx+400]
  00037	b9 1d f3 01 00	 mov	 ecx, 127773		; 0001f31dH
  0003c	8b c6		 mov	 eax, esi
  0003e	99		 cdq
  0003f	f7 f9		 idiv	 ecx

; 166  : 	HashVal.rem = 16807 * HashVal.rem - 2836 * HashVal.quot;

  00041	69 c0 14 0b 00
	00		 imul	 eax, eax, 2836
  00047	69 ca a7 41 00
	00		 imul	 ecx, edx, 16807
  0004d	2b c8		 sub	 ecx, eax

; 1534 : 	nHashBucket = nHashValue % m_nHashTableSize;

  0004f	8d b9 ff ff ff
	7f		 lea	 edi, DWORD PTR [ecx+2147483647]
  00055	0f 49 f9	 cmovns	 edi, ecx
  00058	33 d2		 xor	 edx, edx
  0005a	8b c7		 mov	 eax, edi
  0005c	f7 b3 9c 01 00
	00		 div	 DWORD PTR [ebx+412]

; 1535 : 
; 1536 : 	if (m_pHashTable == NULL)

  00062	8b 83 98 01 00
	00		 mov	 eax, DWORD PTR [ebx+408]
  00068	85 c0		 test	 eax, eax
  0006a	74 17		 je	 SHORT $LN50@SetGetBack

; 1537 : 		return NULL;
; 1538 : 
; 1539 : 	// see if it exists
; 1540 : 	CAssoc* pAssoc;
; 1541 : 	for (pAssoc = m_pHashTable[nHashBucket]; pAssoc != NULL; pAssoc = pAssoc->pNext)

  0006c	8b 04 90	 mov	 eax, DWORD PTR [eax+edx*4]
  0006f	85 c0		 test	 eax, eax
  00071	74 10		 je	 SHORT $LN50@SetGetBack
$LL16@SetGetBack:

; 1543 : 		if (pAssoc->nHashValue == nHashValue && CompareElements(&pAssoc->key, &key))

  00073	39 78 0c	 cmp	 DWORD PTR [eax+12], edi
  00076	75 04		 jne	 SHORT $LN14@SetGetBack
  00078	39 30		 cmp	 DWORD PTR [eax], esi
  0007a	74 5f		 je	 SHORT $LN41@SetGetBack
$LN14@SetGetBack:

; 1537 : 		return NULL;
; 1538 : 
; 1539 : 	// see if it exists
; 1540 : 	CAssoc* pAssoc;
; 1541 : 	for (pAssoc = m_pHashTable[nHashBucket]; pAssoc != NULL; pAssoc = pAssoc->pNext)

  0007c	8b 40 08	 mov	 eax, DWORD PTR [eax+8]
  0007f	85 c0		 test	 eax, eax
  00081	75 f0		 jne	 SHORT $LL16@SetGetBack
$LN50@SetGetBack:
; File D:\git\src\IBK\IBK_DRFN\ProjSrc\SrcDrfn\Chart\MULTICHART\CondTarget.cpp

; 138  : 	pData = new CGetBackData(strPath, m_nKey);

  00083	6a 0c		 push	 12			; 0000000cH
  00085	e8 00 00 00 00	 call	 ??2@YAPAXI@Z		; operator new
  0008a	8b f0		 mov	 esi, eax
  0008c	83 c4 04	 add	 esp, 4
  0008f	89 75 ec	 mov	 DWORD PTR $T4[ebp], esi
  00092	c6 45 fc 01	 mov	 BYTE PTR __$EHRec$[ebp+8], 1
  00096	85 f6		 test	 esi, esi
  00098	74 4c		 je	 SHORT $LN5@SetGetBack
  0009a	8b bb 90 01 00
	00		 mov	 edi, DWORD PTR [ebx+400]
  000a0	8d 45 08	 lea	 eax, DWORD PTR _strPath$[ebp]
  000a3	50		 push	 eax
  000a4	8d 4d f0	 lea	 ecx, DWORD PTR $T5[ebp]
  000a7	ff 15 00 00 00
	00		 call	 DWORD PTR __imp_??0?$CStringT@DV?$StrTraitMFC_DLL@DV?$ChTraitsCRT@D@ATL@@@@@ATL@@QAE@ABV01@@Z
; File D:\git\src\IBK\IBK_DRFN\ProjSrc\SrcDrfn\Chart\MULTICHART\CondTarget.h

; 17   : 	CGetBackData(CString strPath, int nIndex)		{ m_strPath = strPath; m_nIndex = nIndex;	};

  000ad	8d 4e 04	 lea	 ecx, DWORD PTR [esi+4]
  000b0	c7 06 00 00 00
	00		 mov	 DWORD PTR [esi], OFFSET ??_7CGetBackData@@6B@
  000b6	ff 15 00 00 00
	00		 call	 DWORD PTR __imp_??0?$CStringT@DV?$StrTraitMFC_DLL@DV?$ChTraitsCRT@D@ATL@@@@@ATL@@QAE@XZ
  000bc	8d 45 f0	 lea	 eax, DWORD PTR $T5[ebp]
  000bf	c6 45 fc 03	 mov	 BYTE PTR __$EHRec$[ebp+8], 3
  000c3	50		 push	 eax
  000c4	8d 4e 04	 lea	 ecx, DWORD PTR [esi+4]
  000c7	ff 15 00 00 00
	00		 call	 DWORD PTR __imp_??4?$CStringT@DV?$StrTraitMFC_DLL@DV?$ChTraitsCRT@D@ATL@@@@@ATL@@QAEAAV01@ABV01@@Z
  000cd	8d 4d f0	 lea	 ecx, DWORD PTR $T5[ebp]
  000d0	89 7e 08	 mov	 DWORD PTR [esi+8], edi
  000d3	ff 15 00 00 00
	00		 call	 DWORD PTR __imp_??1?$CStringT@DV?$StrTraitMFC_DLL@DV?$ChTraitsCRT@D@ATL@@@@@ATL@@QAE@XZ
; File D:\git\src\IBK\IBK_DRFN\ProjSrc\SrcDrfn\Chart\MULTICHART\CondTarget.cpp

; 138  : 	pData = new CGetBackData(strPath, m_nKey);

  000d9	eb 0d		 jmp	 SHORT $LN6@SetGetBack
$LN41@SetGetBack:

; 134  : 	CGetBackData *pData;
; 135  : 	while (m_mapGetBackData.Lookup(m_nKey, pData))
; 136  : 		m_nKey++;

  000db	ff 83 90 01 00
	00		 inc	 DWORD PTR [ebx+400]
; File C:\Program Files (x86)\Microsoft Visual Studio\2019\Community\VC\Tools\MSVC\14.29.30133\atlmfc\include\afxtempl.h

; 1543 : 		if (pAssoc->nHashValue == nHashValue && CompareElements(&pAssoc->key, &key))

  000e1	e9 4b ff ff ff	 jmp	 $LN56@SetGetBack
$LN5@SetGetBack:
; File D:\git\src\IBK\IBK_DRFN\ProjSrc\SrcDrfn\Chart\MULTICHART\CondTarget.cpp

; 138  : 	pData = new CGetBackData(strPath, m_nKey);

  000e6	33 f6		 xor	 esi, esi
$LN6@SetGetBack:

; 139  : 	m_mapGetBackData.SetAt(m_nKey, pData);

  000e8	56		 push	 esi
  000e9	ff b3 90 01 00
	00		 push	 DWORD PTR [ebx+400]
  000ef	8d 8b 94 01 00
	00		 lea	 ecx, DWORD PTR [ebx+404]
  000f5	c6 45 fc 00	 mov	 BYTE PTR __$EHRec$[ebp+8], 0
  000f9	e8 00 00 00 00	 call	 ?SetAt@?$CMap@HHPAVCGetBackData@@PAV1@@@QAEXHPAVCGetBackData@@@Z ; CMap<int,int,CGetBackData *,CGetBackData *>::SetAt

; 140  : 
; 141  : 	m_nKey++;

  000fe	ff 83 90 01 00
	00		 inc	 DWORD PTR [ebx+400]

; 142  : 
; 143  : 	return pData;

  00104	8d 4d 08	 lea	 ecx, DWORD PTR _strPath$[ebp]
  00107	ff 15 00 00 00
	00		 call	 DWORD PTR __imp_??1?$CStringT@DV?$StrTraitMFC_DLL@DV?$ChTraitsCRT@D@ATL@@@@@ATL@@QAE@XZ
  0010d	8b c6		 mov	 eax, esi

; 144  : }

  0010f	8b 4d f4	 mov	 ecx, DWORD PTR __$EHRec$[ebp]
  00112	64 89 0d 00 00
	00 00		 mov	 DWORD PTR fs:0, ecx
  00119	59		 pop	 ecx
  0011a	5f		 pop	 edi
  0011b	5e		 pop	 esi
  0011c	5b		 pop	 ebx
  0011d	8b e5		 mov	 esp, ebp
  0011f	5d		 pop	 ebp
  00120	c2 04 00	 ret	 4
_TEXT	ENDS
;	COMDAT text$x
text$x	SEGMENT
__unwindfunclet$?SetGetBackData@CCondTarget@@QAEPAVCGetBackData@@V?$CStringT@DV?$StrTraitMFC_DLL@DV?$ChTraitsCRT@D@ATL@@@@@ATL@@@Z$0:
  00000	8d 4d 08	 lea	 ecx, DWORD PTR _strPath$[ebp]
  00003	ff 25 00 00 00
	00		 jmp	 DWORD PTR __imp_??1?$CStringT@DV?$StrTraitMFC_DLL@DV?$ChTraitsCRT@D@ATL@@@@@ATL@@QAE@XZ
__unwindfunclet$?SetGetBackData@CCondTarget@@QAEPAVCGetBackData@@V?$CStringT@DV?$StrTraitMFC_DLL@DV?$ChTraitsCRT@D@ATL@@@@@ATL@@@Z$1:
  00009	6a 0c		 push	 12			; 0000000cH
  0000b	8b 45 ec	 mov	 eax, DWORD PTR $T4[ebp]
  0000e	50		 push	 eax
  0000f	e8 00 00 00 00	 call	 ??3@YAXPAXI@Z		; operator delete
  00014	83 c4 08	 add	 esp, 8
  00017	c3		 ret	 0
__unwindfunclet$?SetGetBackData@CCondTarget@@QAEPAVCGetBackData@@V?$CStringT@DV?$StrTraitMFC_DLL@DV?$ChTraitsCRT@D@ATL@@@@@ATL@@@Z$3:
  00018	8d 4d f0	 lea	 ecx, DWORD PTR $T5[ebp]
  0001b	ff 25 00 00 00
	00		 jmp	 DWORD PTR __imp_??1?$CStringT@DV?$StrTraitMFC_DLL@DV?$ChTraitsCRT@D@ATL@@@@@ATL@@QAE@XZ
__unwindfunclet$?SetGetBackData@CCondTarget@@QAEPAVCGetBackData@@V?$CStringT@DV?$StrTraitMFC_DLL@DV?$ChTraitsCRT@D@ATL@@@@@ATL@@@Z$4:
  00021	8b 4d ec	 mov	 ecx, DWORD PTR $T4[ebp]
  00024	83 c1 04	 add	 ecx, 4
  00027	ff 25 00 00 00
	00		 jmp	 DWORD PTR __imp_??1?$CStringT@DV?$StrTraitMFC_DLL@DV?$ChTraitsCRT@D@ATL@@@@@ATL@@QAE@XZ
  0002d	cc		 int	 3
  0002e	cc		 int	 3
  0002f	cc		 int	 3
  00030	cc		 int	 3
  00031	cc		 int	 3
__ehhandler$?SetGetBackData@CCondTarget@@QAEPAVCGetBackData@@V?$CStringT@DV?$StrTraitMFC_DLL@DV?$ChTraitsCRT@D@ATL@@@@@ATL@@@Z:
  00032	90		 npad	 1
  00033	90		 npad	 1
  00034	8b 54 24 08	 mov	 edx, DWORD PTR [esp+8]
  00038	8d 42 0c	 lea	 eax, DWORD PTR [edx+12]
  0003b	8b 4a e8	 mov	 ecx, DWORD PTR [edx-24]
  0003e	33 c8		 xor	 ecx, eax
  00040	e8 00 00 00 00	 call	 @__security_check_cookie@4
  00045	b8 00 00 00 00	 mov	 eax, OFFSET __ehfuncinfo$?SetGetBackData@CCondTarget@@QAEPAVCGetBackData@@V?$CStringT@DV?$StrTraitMFC_DLL@DV?$ChTraitsCRT@D@ATL@@@@@ATL@@@Z
  0004a	e9 00 00 00 00	 jmp	 ___CxxFrameHandler3
text$x	ENDS
?SetGetBackData@CCondTarget@@QAEPAVCGetBackData@@V?$CStringT@DV?$StrTraitMFC_DLL@DV?$ChTraitsCRT@D@ATL@@@@@ATL@@@Z ENDP ; CCondTarget::SetGetBackData
; Function compile flags: /Ogtp
; File C:\Program Files (x86)\Microsoft Visual Studio\2019\Community\VC\Tools\MSVC\14.29.30133\atlmfc\include\afxtempl.h
; File C:\Program Files (x86)\Microsoft Visual Studio\2019\Community\VC\Tools\MSVC\14.29.30133\atlmfc\include\afx.inl
;	COMDAT ??_G?$CMap@HHPAVCGetBackData@@PAV1@@@UAEPAXI@Z
_TEXT	SEGMENT
__$EHRec$ = -12						; size = 12
___flags$ = 8						; size = 4
??_G?$CMap@HHPAVCGetBackData@@PAV1@@@UAEPAXI@Z PROC	; CMap<int,int,CGetBackData *,CGetBackData *>::`scalar deleting destructor', COMDAT
; _this$ = ecx
  00000	55		 push	 ebp
  00001	8b ec		 mov	 ebp, esp
  00003	6a ff		 push	 -1
  00005	68 00 00 00 00	 push	 __ehhandler$??_G?$CMap@HHPAVCGetBackData@@PAV1@@@UAEPAXI@Z
  0000a	64 a1 00 00 00
	00		 mov	 eax, DWORD PTR fs:0
  00010	50		 push	 eax
  00011	56		 push	 esi
  00012	a1 00 00 00 00	 mov	 eax, DWORD PTR ___security_cookie
  00017	33 c5		 xor	 eax, ebp
  00019	50		 push	 eax
  0001a	8d 45 f4	 lea	 eax, DWORD PTR __$EHRec$[ebp]
  0001d	64 a3 00 00 00
	00		 mov	 DWORD PTR fs:0, eax
  00023	8b f1		 mov	 esi, ecx
; File C:\Program Files (x86)\Microsoft Visual Studio\2019\Community\VC\Tools\MSVC\14.29.30133\atlmfc\include\afxtempl.h

; 1446 : 	if (m_pHashTable != NULL)

  00025	8b 46 04	 mov	 eax, DWORD PTR [esi+4]

; 1472 : {

  00028	c7 45 fc 00 00
	00 00		 mov	 DWORD PTR __$EHRec$[ebp+8], 0
  0002f	c7 06 00 00 00
	00		 mov	 DWORD PTR [esi], OFFSET ??_7?$CMap@HHPAVCGetBackData@@PAV1@@@6B@

; 1446 : 	if (m_pHashTable != NULL)

  00035	85 c0		 test	 eax, eax
  00037	74 10		 je	 SHORT $LN17@scalar

; 1447 : 	{
; 1448 : 		// destroy elements (values and keys)
; 1449 : 		for (UINT nHash = 0; nHash < m_nHashTableSize; nHash++)
; 1450 : 		{
; 1451 : 			CAssoc* pAssoc;
; 1452 : 			for (pAssoc = m_pHashTable[nHash]; pAssoc != NULL;
; 1453 : 			  pAssoc = pAssoc->pNext)
; 1454 : 			{
; 1455 : 				pAssoc->CAssoc::~CAssoc();
; 1456 : 			}
; 1457 : 		}
; 1458 : 
; 1459 : 		// free hash table
; 1460 : 		delete[] m_pHashTable;

  00039	50		 push	 eax
  0003a	e8 00 00 00 00	 call	 ??_V@YAXPAX@Z		; operator delete[]
  0003f	83 c4 04	 add	 esp, 4

; 1461 : 		m_pHashTable = NULL;

  00042	c7 46 04 00 00
	00 00		 mov	 DWORD PTR [esi+4], 0
$LN17@scalar:

; 1462 : 	}
; 1463 : 
; 1464 : 	m_nCount = 0;
; 1465 : 	m_pFreeList = NULL;
; 1466 : 	m_pBlocks->FreeDataChain();

  00049	8b 4e 14	 mov	 ecx, DWORD PTR [esi+20]
  0004c	c7 46 0c 00 00
	00 00		 mov	 DWORD PTR [esi+12], 0
  00053	c7 46 10 00 00
	00 00		 mov	 DWORD PTR [esi+16], 0
  0005a	e8 00 00 00 00	 call	 ?FreeDataChain@CPlex@@QAEXXZ ; CPlex::FreeDataChain

; 1467 : 	m_pBlocks = NULL;

  0005f	8b 45 08	 mov	 eax, DWORD PTR ___flags$[ebp]
  00062	c7 46 14 00 00
	00 00		 mov	 DWORD PTR [esi+20], 0
  00069	a8 01		 test	 al, 1
  0006b	74 2c		 je	 SHORT $LN31@scalar
  0006d	a8 04		 test	 al, 4
  0006f	75 1d		 jne	 SHORT $LN3@scalar
; File C:\Program Files (x86)\Microsoft Visual Studio\2019\Community\VC\Tools\MSVC\14.29.30133\atlmfc\include\afx.inl

; 112  : 	{ ::operator delete(p); }

  00071	56		 push	 esi
  00072	e8 00 00 00 00	 call	 ??3@YAXPAX@Z		; operator delete
  00077	83 c4 04	 add	 esp, 4
  0007a	8b c6		 mov	 eax, esi
  0007c	8b 4d f4	 mov	 ecx, DWORD PTR __$EHRec$[ebp]
  0007f	64 89 0d 00 00
	00 00		 mov	 DWORD PTR fs:0, ecx
  00086	59		 pop	 ecx
  00087	5e		 pop	 esi
  00088	8b e5		 mov	 esp, ebp
  0008a	5d		 pop	 ebp
  0008b	c2 04 00	 ret	 4
$LN3@scalar:
  0008e	6a 1c		 push	 28			; 0000001cH
  00090	56		 push	 esi
  00091	e8 00 00 00 00	 call	 ?__global_delete@@YAXPAXI@Z ; __global_delete
  00096	83 c4 08	 add	 esp, 8
$LN31@scalar:
  00099	8b c6		 mov	 eax, esi
  0009b	8b 4d f4	 mov	 ecx, DWORD PTR __$EHRec$[ebp]
  0009e	64 89 0d 00 00
	00 00		 mov	 DWORD PTR fs:0, ecx
  000a5	59		 pop	 ecx
  000a6	5e		 pop	 esi
  000a7	8b e5		 mov	 esp, ebp
  000a9	5d		 pop	 ebp
  000aa	c2 04 00	 ret	 4
  000ad	cc		 int	 3
  000ae	cc		 int	 3
  000af	cc		 int	 3
  000b0	cc		 int	 3
  000b1	cc		 int	 3
_TEXT	ENDS
;	COMDAT text$x
text$x	SEGMENT
__ehhandler$??_G?$CMap@HHPAVCGetBackData@@PAV1@@@UAEPAXI@Z:
  00000	90		 npad	 1
  00001	90		 npad	 1
  00002	8b 54 24 08	 mov	 edx, DWORD PTR [esp+8]
  00006	8d 42 0c	 lea	 eax, DWORD PTR [edx+12]
  00009	8b 4a f8	 mov	 ecx, DWORD PTR [edx-8]
  0000c	33 c8		 xor	 ecx, eax
  0000e	e8 00 00 00 00	 call	 @__security_check_cookie@4
  00013	b8 00 00 00 00	 mov	 eax, OFFSET __ehfuncinfo$??_G?$CMap@HHPAVCGetBackData@@PAV1@@@UAEPAXI@Z
  00018	e9 00 00 00 00	 jmp	 ___CxxFrameHandler3
text$x	ENDS
??_G?$CMap@HHPAVCGetBackData@@PAV1@@@UAEPAXI@Z ENDP	; CMap<int,int,CGetBackData *,CGetBackData *>::`scalar deleting destructor'
; Function compile flags: /Ogtp
; File C:\Program Files (x86)\Microsoft Visual Studio\2019\Community\VC\Tools\MSVC\14.29.30133\atlmfc\include\afxtempl.h
; File C:\Program Files (x86)\Microsoft Visual Studio\2019\Community\VC\Tools\MSVC\14.29.30133\atlmfc\include\afx.inl
; File C:\Program Files (x86)\Microsoft Visual Studio\2019\Community\VC\Tools\MSVC\14.29.30133\atlmfc\include\afxtempl.h
; File C:\Program Files (x86)\Microsoft Visual Studio\2019\Community\VC\Tools\MSVC\14.29.30133\atlmfc\include\afx.inl
; File C:\Program Files (x86)\Microsoft Visual Studio\2019\Community\VC\Tools\MSVC\14.29.30133\atlmfc\include\afxtempl.h
; File C:\Program Files (x86)\Microsoft Visual Studio\2019\Community\VC\Tools\MSVC\14.29.30133\atlmfc\include\afx.inl
; File C:\Program Files (x86)\Microsoft Visual Studio\2019\Community\VC\Tools\MSVC\14.29.30133\atlmfc\include\afxtempl.h
; File C:\Program Files (x86)\Microsoft Visual Studio\2019\Community\VC\Tools\MSVC\14.29.30133\atlmfc\include\afx.inl
; File C:\Program Files (x86)\Microsoft Visual Studio\2019\Community\VC\Tools\MSVC\14.29.30133\atlmfc\include\afxtempl.h
; File C:\Program Files (x86)\Microsoft Visual Studio\2019\Community\VC\Tools\MSVC\14.29.30133\atlmfc\include\afx.inl
; File C:\Program Files (x86)\Microsoft Visual Studio\2019\Community\VC\Tools\MSVC\14.29.30133\atlmfc\include\afxtempl.h
; File C:\Program Files (x86)\Microsoft Visual Studio\2019\Community\VC\Tools\MSVC\14.29.30133\atlmfc\include\afx.inl
; File C:\Program Files (x86)\Microsoft Visual Studio\2019\Community\VC\Tools\MSVC\14.29.30133\atlmfc\include\afxtempl.h
; File C:\Program Files (x86)\Microsoft Visual Studio\2019\Community\VC\Tools\MSVC\14.29.30133\atlmfc\include\afx.inl
; File C:\Program Files (x86)\Microsoft Visual Studio\2019\Community\VC\Tools\MSVC\14.29.30133\atlmfc\include\afxtempl.h
; File C:\Program Files (x86)\Microsoft Visual Studio\2019\Community\VC\Tools\MSVC\14.29.30133\atlmfc\include\afx.inl
; File C:\Program Files (x86)\Microsoft Visual Studio\2019\Community\VC\Tools\MSVC\14.29.30133\atlmfc\include\afxtempl.h
; File C:\Program Files (x86)\Microsoft Visual Studio\2019\Community\VC\Tools\MSVC\14.29.30133\atlmfc\include\afx.inl
; File C:\Program Files (x86)\Microsoft Visual Studio\2019\Community\VC\Tools\MSVC\14.29.30133\atlmfc\include\afxtempl.h
; File C:\Program Files (x86)\Microsoft Visual Studio\2019\Community\VC\Tools\MSVC\14.29.30133\atlmfc\include\afx.inl
