; Listing generated by Microsoft (R) Optimizing Compiler Version 19.29.30148.0 

	TITLE	D:\git\src\IBK\IBK_DRFN\#DRfn-CS\_Obj\MultiChart\CondTarget.obj
	.686P
	.XMM
	include listing.inc
	.model	flat

INCLUDELIB MSVCRT
INCLUDELIB OLDNAMES

PUBLIC	?WM_ATLGETHOST@ATL@@3IA				; ATL::WM_ATLGETHOST
PUBLIC	?WM_ATLGETCONTROL@ATL@@3IA			; ATL::WM_ATLGETCONTROL
PUBLIC	??_C@_0L@NFJHMDFP@THEMCD?4INI@			; `string'
PUBLIC	??_C@_0P@BKKCOCLK@RMSG_INTERFACE@		; `string'
PUBLIC	??_C@_0BB@IBKHOHJL@RMSG_REPLAY_REAL@		; `string'
PUBLIC	??_C@_0BB@JFLGBADG@RMSG_REPLAY_FAIL@		; `string'
PUBLIC	??_C@_0BI@KDGAIIMD@RMSG_REPLAY_CHANGE_DATE@	; `string'
PUBLIC	??_C@_0BA@NKHHCPON@RMSG_REPLAY_END@		; `string'
PUBLIC	??_C@_0BE@JFCIMCIP@RMSG_REPLAY_INC_SEC@		; `string'
PUBLIC	??_C@_0BG@GIAJEIJF@RMSG_REPLAY_TOTAL_SEC@	; `string'
PUBLIC	?m_bInitFailed@CAtlBaseModule@ATL@@2_NA		; ATL::CAtlBaseModule::m_bInitFailed
PUBLIC	??_C@_0BE@FJPKENOB@RMSG_GETSIGNAL_REAL@		; `string'
PUBLIC	??_C@_0BB@CNOFPEHG@RMSG_SETQUERYOPT@		; `string'
PUBLIC	??_C@_0P@KHFCBIOH@RMSG_CHARTMAIN@		; `string'
PUBLIC	??_C@_0BC@MMPGLPDH@RMS_ANALYSIS_FUNC@		; `string'
PUBLIC	??_C@_0BA@HKNFENJL@RMSG_GET_USERID@		; `string'
PUBLIC	??_C@_0BG@CNPAHNGG@RMSG_CHANGE_SKINCOLOR@	; `string'
PUBLIC	??_C@_0BD@FLDNDDHK@RMSG_GET_SKINCOLOR@		; `string'
PUBLIC	??_C@_0BJ@JLKHIBIK@RMSG_CHANGEVERTSCALETYPE@	; `string'
PUBLIC	??_C@_0BG@LNLCJKPF@RMSG_CHANGE_CROSSLINE@	; `string'
PUBLIC	??_C@_0BH@IFDMIMBP@RMSG_ADD_PLATFORM_MENU@	; `string'
PUBLIC	??_C@_0BJ@OGNAJHHI@RMSG_SETINITIALCHARTDATA@	; `string'
PUBLIC	??_C@_0N@IIOKMIEH@RMSG_GETINFO@			; `string'
PUBLIC	??_C@_0N@HABLPHJG@RMSG_SETINFO@			; `string'
PUBLIC	?_pAtlModule@ATL@@3PAVCAtlModule@1@A		; ATL::_pAtlModule
PUBLIC	?_pAtlAutoThreadModule@ATL@@3PAUIAtlAutoThreadModule@1@A ; ATL::_pAtlAutoThreadModule
EXTRN	?_AtlBaseModule@ATL@@3VCAtlBaseModule@1@A:BYTE	; ATL::_AtlBaseModule
;	COMDAT ?WM_ATLGETHOST@ATL@@3IA
_BSS	SEGMENT
?WM_ATLGETHOST@ATL@@3IA DD 01H DUP (?)			; ATL::WM_ATLGETHOST
_BSS	ENDS
;	COMDAT ?WM_ATLGETCONTROL@ATL@@3IA
_BSS	SEGMENT
?WM_ATLGETCONTROL@ATL@@3IA DD 01H DUP (?)		; ATL::WM_ATLGETCONTROL
_BSS	ENDS
;	COMDAT ?m_bInitFailed@CAtlBaseModule@ATL@@2_NA
_BSS	SEGMENT
?m_bInitFailed@CAtlBaseModule@ATL@@2_NA DB 01H DUP (?)	; ATL::CAtlBaseModule::m_bInitFailed
_BSS	ENDS
;	COMDAT ?_pAtlModule@ATL@@3PAVCAtlModule@1@A
_BSS	SEGMENT
?_pAtlModule@ATL@@3PAVCAtlModule@1@A DD 01H DUP (?)	; ATL::_pAtlModule
_BSS	ENDS
;	COMDAT ?_pAtlAutoThreadModule@ATL@@3PAUIAtlAutoThreadModule@1@A
_BSS	SEGMENT
?_pAtlAutoThreadModule@ATL@@3PAUIAtlAutoThreadModule@1@A DD 01H DUP (?) ; ATL::_pAtlAutoThreadModule
_BSS	ENDS
;	COMDAT ??_C@_0N@HABLPHJG@RMSG_SETINFO@
CONST	SEGMENT
??_C@_0N@HABLPHJG@RMSG_SETINFO@ DB 'RMSG_SETINFO', 00H	; `string'
CONST	ENDS
;	COMDAT ??_C@_0N@IIOKMIEH@RMSG_GETINFO@
CONST	SEGMENT
??_C@_0N@IIOKMIEH@RMSG_GETINFO@ DB 'RMSG_GETINFO', 00H	; `string'
CONST	ENDS
;	COMDAT ??_C@_0BJ@OGNAJHHI@RMSG_SETINITIALCHARTDATA@
CONST	SEGMENT
??_C@_0BJ@OGNAJHHI@RMSG_SETINITIALCHARTDATA@ DB 'RMSG_SETINITIALCHARTDATA'
	DB	00H						; `string'
CONST	ENDS
;	COMDAT ??_C@_0BH@IFDMIMBP@RMSG_ADD_PLATFORM_MENU@
CONST	SEGMENT
??_C@_0BH@IFDMIMBP@RMSG_ADD_PLATFORM_MENU@ DB 'RMSG_ADD_PLATFORM_MENU', 00H ; `string'
CONST	ENDS
;	COMDAT ??_C@_0BG@LNLCJKPF@RMSG_CHANGE_CROSSLINE@
CONST	SEGMENT
??_C@_0BG@LNLCJKPF@RMSG_CHANGE_CROSSLINE@ DB 'RMSG_CHANGE_CROSSLINE', 00H ; `string'
CONST	ENDS
;	COMDAT ??_C@_0BJ@JLKHIBIK@RMSG_CHANGEVERTSCALETYPE@
CONST	SEGMENT
??_C@_0BJ@JLKHIBIK@RMSG_CHANGEVERTSCALETYPE@ DB 'RMSG_CHANGEVERTSCALETYPE'
	DB	00H						; `string'
CONST	ENDS
;	COMDAT ??_C@_0BD@FLDNDDHK@RMSG_GET_SKINCOLOR@
CONST	SEGMENT
??_C@_0BD@FLDNDDHK@RMSG_GET_SKINCOLOR@ DB 'RMSG_GET_SKINCOLOR', 00H ; `string'
CONST	ENDS
;	COMDAT ??_C@_0BG@CNPAHNGG@RMSG_CHANGE_SKINCOLOR@
CONST	SEGMENT
??_C@_0BG@CNPAHNGG@RMSG_CHANGE_SKINCOLOR@ DB 'RMSG_CHANGE_SKINCOLOR', 00H ; `string'
CONST	ENDS
;	COMDAT ??_C@_0BA@HKNFENJL@RMSG_GET_USERID@
CONST	SEGMENT
??_C@_0BA@HKNFENJL@RMSG_GET_USERID@ DB 'RMSG_GET_USERID', 00H ; `string'
CONST	ENDS
;	COMDAT ??_C@_0BC@MMPGLPDH@RMS_ANALYSIS_FUNC@
CONST	SEGMENT
??_C@_0BC@MMPGLPDH@RMS_ANALYSIS_FUNC@ DB 'RMS_ANALYSIS_FUNC', 00H ; `string'
CONST	ENDS
;	COMDAT ??_C@_0P@KHFCBIOH@RMSG_CHARTMAIN@
CONST	SEGMENT
??_C@_0P@KHFCBIOH@RMSG_CHARTMAIN@ DB 'RMSG_CHARTMAIN', 00H ; `string'
CONST	ENDS
;	COMDAT ??_C@_0BB@CNOFPEHG@RMSG_SETQUERYOPT@
CONST	SEGMENT
??_C@_0BB@CNOFPEHG@RMSG_SETQUERYOPT@ DB 'RMSG_SETQUERYOPT', 00H ; `string'
CONST	ENDS
;	COMDAT ??_C@_0BE@FJPKENOB@RMSG_GETSIGNAL_REAL@
CONST	SEGMENT
??_C@_0BE@FJPKENOB@RMSG_GETSIGNAL_REAL@ DB 'RMSG_GETSIGNAL_REAL', 00H ; `string'
CONST	ENDS
;	COMDAT ??_C@_0BG@GIAJEIJF@RMSG_REPLAY_TOTAL_SEC@
CONST	SEGMENT
??_C@_0BG@GIAJEIJF@RMSG_REPLAY_TOTAL_SEC@ DB 'RMSG_REPLAY_TOTAL_SEC', 00H ; `string'
CONST	ENDS
;	COMDAT ??_C@_0BE@JFCIMCIP@RMSG_REPLAY_INC_SEC@
CONST	SEGMENT
??_C@_0BE@JFCIMCIP@RMSG_REPLAY_INC_SEC@ DB 'RMSG_REPLAY_INC_SEC', 00H ; `string'
CONST	ENDS
;	COMDAT ??_C@_0BA@NKHHCPON@RMSG_REPLAY_END@
CONST	SEGMENT
??_C@_0BA@NKHHCPON@RMSG_REPLAY_END@ DB 'RMSG_REPLAY_END', 00H ; `string'
CONST	ENDS
;	COMDAT ??_C@_0BI@KDGAIIMD@RMSG_REPLAY_CHANGE_DATE@
CONST	SEGMENT
??_C@_0BI@KDGAIIMD@RMSG_REPLAY_CHANGE_DATE@ DB 'RMSG_REPLAY_CHANGE_DATE', 00H ; `string'
CONST	ENDS
;	COMDAT ??_C@_0BB@JFLGBADG@RMSG_REPLAY_FAIL@
CONST	SEGMENT
??_C@_0BB@JFLGBADG@RMSG_REPLAY_FAIL@ DB 'RMSG_REPLAY_FAIL', 00H ; `string'
CONST	ENDS
;	COMDAT ??_C@_0BB@IBKHOHJL@RMSG_REPLAY_REAL@
CONST	SEGMENT
??_C@_0BB@IBKHOHJL@RMSG_REPLAY_REAL@ DB 'RMSG_REPLAY_REAL', 00H ; `string'
CONST	ENDS
;	COMDAT ??_C@_0P@BKKCOCLK@RMSG_INTERFACE@
CONST	SEGMENT
??_C@_0P@BKKCOCLK@RMSG_INTERFACE@ DB 'RMSG_INTERFACE', 00H ; `string'
CONST	ENDS
;	COMDAT ??_C@_0L@NFJHMDFP@THEMCD?4INI@
CONST	SEGMENT
??_C@_0L@NFJHMDFP@THEMCD?4INI@ DB 'THEMCD.INI', 00H	; `string'
CONST	ENDS
PUBLIC	?__empty_global_delete@@YAXPAX@Z		; __empty_global_delete
PUBLIC	?__empty_global_delete@@YAXPAXI@Z		; __empty_global_delete
PUBLIC	___local_stdio_scanf_options
PUBLIC	_sscanf
PUBLIC	??1CObject@@UAE@XZ				; CObject::~CObject
PUBLIC	??3CObject@@SGXPAX@Z				; CObject::operator delete
PUBLIC	?Serialize@CObject@@UAEXAAVCArchive@@@Z		; CObject::Serialize
PUBLIC	?AssertValid@CObject@@UBEXXZ			; CObject::AssertValid
PUBLIC	?Dump@CObject@@UBEXAAVCDumpContext@@@Z		; CObject::Dump
PUBLIC	?_AtlRaiseException@ATL@@YAXKK@Z		; ATL::_AtlRaiseException
PUBLIC	?_AtlInitializeCriticalSectionEx@ATL@@YAHPAU_RTL_CRITICAL_SECTION@@KK@Z ; ATL::_AtlInitializeCriticalSectionEx
PUBLIC	??1stringdispid@CComTypeInfoHolder@ATL@@QAE@XZ	; ATL::CComTypeInfoHolder::stringdispid::~stringdispid
PUBLIC	??_Estringdispid@CComTypeInfoHolder@ATL@@QAEPAXI@Z ; ATL::CComTypeInfoHolder::stringdispid::`vector deleting destructor'
PUBLIC	??1CGetBackData@@UAE@XZ				; CGetBackData::~CGetBackData
PUBLIC	??_GCGetBackData@@UAEPAXI@Z			; CGetBackData::`scalar deleting destructor'
PUBLIC	??0CCondTarget@@QAE@XZ				; CCondTarget::CCondTarget
PUBLIC	??1CCondTarget@@UAE@XZ				; CCondTarget::~CCondTarget
PUBLIC	?RemoveAll@CCondTarget@@QAEXXZ			; CCondTarget::RemoveAll
PUBLIC	?ReceiveData@CCondTarget@@QAEXPAXJ@Z		; CCondTarget::ReceiveData
PUBLIC	?SetEditSubjectTarGetBit@CCondTarget@@QAEXXZ	; CCondTarget::SetEditSubjectTarGetBit
PUBLIC	??0?$CMap@HHPAVCGetBackData@@PAV1@@@QAE@H@Z	; CMap<int,int,CGetBackData *,CGetBackData *>::CMap<int,int,CGetBackData *,CGetBackData *>
PUBLIC	?Lookup@?$CMap@HHPAVCGetBackData@@PAV1@@@QBEHHAAPAVCGetBackData@@@Z ; CMap<int,int,CGetBackData *,CGetBackData *>::Lookup
PUBLIC	??A?$CMap@HHPAVCGetBackData@@PAV1@@@QAEAAPAVCGetBackData@@H@Z ; CMap<int,int,CGetBackData *,CGetBackData *>::operator[]
PUBLIC	?SetAt@?$CMap@HHPAVCGetBackData@@PAV1@@@QAEXHPAVCGetBackData@@@Z ; CMap<int,int,CGetBackData *,CGetBackData *>::SetAt
PUBLIC	?RemoveKey@?$CMap@HHPAVCGetBackData@@PAV1@@@QAEHH@Z ; CMap<int,int,CGetBackData *,CGetBackData *>::RemoveKey
PUBLIC	?RemoveAll@?$CMap@HHPAVCGetBackData@@PAV1@@@QAEXXZ ; CMap<int,int,CGetBackData *,CGetBackData *>::RemoveAll
PUBLIC	?GetNextAssoc@?$CMap@HHPAVCGetBackData@@PAV1@@@QBEXAAPAU__POSITION@@AAHAAPAVCGetBackData@@@Z ; CMap<int,int,CGetBackData *,CGetBackData *>::GetNextAssoc
PUBLIC	?InitHashTable@?$CMap@HHPAVCGetBackData@@PAV1@@@QAEXIH@Z ; CMap<int,int,CGetBackData *,CGetBackData *>::InitHashTable
PUBLIC	?NewAssoc@?$CMap@HHPAVCGetBackData@@PAV1@@@IAEPAVCAssoc@1@H@Z ; CMap<int,int,CGetBackData *,CGetBackData *>::NewAssoc
PUBLIC	?FreeAssoc@?$CMap@HHPAVCGetBackData@@PAV1@@@IAEXPAVCAssoc@1@@Z ; CMap<int,int,CGetBackData *,CGetBackData *>::FreeAssoc
PUBLIC	?GetAssocAt@?$CMap@HHPAVCGetBackData@@PAV1@@@IBEPAVCAssoc@1@HAAI0@Z ; CMap<int,int,CGetBackData *,CGetBackData *>::GetAssocAt
PUBLIC	??1?$CMap@HHPAVCGetBackData@@PAV1@@@UAE@XZ	; CMap<int,int,CGetBackData *,CGetBackData *>::~CMap<int,int,CGetBackData *,CGetBackData *>
PUBLIC	?Serialize@?$CMap@HHPAVCGetBackData@@PAV1@@@UAEXAAVCArchive@@@Z ; CMap<int,int,CGetBackData *,CGetBackData *>::Serialize
PUBLIC	??_G?$CMap@HHPAVCGetBackData@@PAV1@@@UAEPAXI@Z	; CMap<int,int,CGetBackData *,CGetBackData *>::`scalar deleting destructor'
PUBLIC	?SetGetBackData@CCondTarget@@QAEPAVCGetBackData@@V?$CStringT@DV?$StrTraitMFC_DLL@DV?$ChTraitsCRT@D@ATL@@@@@ATL@@@Z ; CCondTarget::SetGetBackData
PUBLIC	?RemoveAtGetBackData@CCondTarget@@QAEXH@Z	; CCondTarget::RemoveAtGetBackData
PUBLIC	?LoadTdfData@CCondTarget@@QAEXPAVCGetBackData@@@Z ; CCondTarget::LoadTdfData
PUBLIC	?GetProfileIntA@CCondTarget@@QAEHV?$CStringT@DV?$StrTraitMFC_DLL@DV?$ChTraitsCRT@D@ATL@@@@@ATL@@00@Z ; CCondTarget::GetProfileIntA
PUBLIC	?GetData_PortItem@CCondTarget@@QAEHAAVCStringArray@@0H@Z ; CCondTarget::GetData_PortItem
PUBLIC	?GetItemCodeFromThemeGroup@CCondTarget@@QAEXAAVCStringArray@@V?$CStringT@DV?$StrTraitMFC_DLL@DV?$ChTraitsCRT@D@ATL@@@@@ATL@@@Z ; CCondTarget::GetItemCodeFromThemeGroup
PUBLIC	?Parser@CCondTarget@@QAE?AV?$CStringT@DV?$StrTraitMFC_DLL@DV?$ChTraitsCRT@D@ATL@@@@@ATL@@AAV23@V23@@Z ; CCondTarget::Parser
PUBLIC	?GetStockMasterData@CCondTarget@@QAEHAAVCStringArray@@0@Z ; CCondTarget::GetStockMasterData
PUBLIC	?GetMarketCode@CCondTarget@@QAE?AV?$CStringT@DV?$StrTraitMFC_DLL@DV?$ChTraitsCRT@D@ATL@@@@@ATL@@V23@0@Z ; CCondTarget::GetMarketCode
PUBLIC	?DelSpaceInName@CCondTarget@@QAEXXZ		; CCondTarget::DelSpaceInName
PUBLIC	?CheckTargetResult@CCondTarget@@QAEHV?$CStringT@DV?$StrTraitMFC_DLL@DV?$ChTraitsCRT@D@ATL@@@@@ATL@@@Z ; CCondTarget::CheckTargetResult
PUBLIC	??_GCCondTarget@@UAEPAXI@Z			; CCondTarget::`scalar deleting destructor'
PUBLIC	??$SerializeElements@H@@YGXAAVCArchive@@PAHH@Z	; SerializeElements<int>
PUBLIC	??$CompareElements@HH@@YGHPBH0@Z		; CompareElements<int,int>
PUBLIC	??$SerializeElements@PAVCGetBackData@@@@YGXAAVCArchive@@PAPAVCGetBackData@@H@Z ; SerializeElements<CGetBackData *>
PUBLIC	?_OptionsStorage@?1??__local_stdio_scanf_options@@9@4_KA ; `__local_stdio_scanf_options'::`2'::_OptionsStorage
PUBLIC	?_AtlWinModule@ATL@@3VCAtlWinModule@1@A		; ATL::_AtlWinModule
PUBLIC	??_C@_00CNPNBAHC@@				; `string'
PUBLIC	??_C@_01HIHLOKLC@1@				; `string'
PUBLIC	??_C@_02DKCKIIND@?$CFs@				; `string'
PUBLIC	??_C@_0M@CBBNGGHM@PcTrMng?4dll@			; `string'
PUBLIC	??_C@_0P@IDMAJEGN@HANAROPCTRMAIN@		; `string'
PUBLIC	??_C@_06NDLAHCHE@?$CFs?$CF08X@			; `string'
PUBLIC	??_C@_02EMFKHFLK@?$CFX@				; `string'
PUBLIC	??_C@_01GBGANLPD@0@				; `string'
PUBLIC	??_R0?AVCObject@@@8				; CObject `RTTI Type Descriptor'
PUBLIC	??_R3CObject@@8					; CObject::`RTTI Class Hierarchy Descriptor'
PUBLIC	??_R2CObject@@8					; CObject::`RTTI Base Class Array'
PUBLIC	??_R1A@?0A@EA@CObject@@8			; CObject::`RTTI Base Class Descriptor at (0,-1,0,64)'
PUBLIC	??_7CGetBackData@@6B@				; CGetBackData::`vftable'
PUBLIC	??_7?$CMap@HHPAVCGetBackData@@PAV1@@@6B@	; CMap<int,int,CGetBackData *,CGetBackData *>::`vftable'
PUBLIC	??_7CCondTarget@@6B@				; CCondTarget::`vftable'
PUBLIC	??_C@_0BD@CMCCCNBF@HANAROIGATEMANAGER@		; `string'
PUBLIC	??_C@_0BB@NJOFBLDN@KRX100?$CI?E?k?G?U?A?v?$LM?v?$CJ@ ; `string'
PUBLIC	??_C@_01CLKCMJKC@?5@				; `string'
PUBLIC	??_C@_08FPNDIEGG@KOSPI200@			; `string'
PUBLIC	??_C@_07KDMDENFH@UMASTER@			; `string'
PUBLIC	??_C@_0M@DLEHNAKM@KOSPI?$CI?A?$LO?G?U?$CJ@	; `string'
PUBLIC	??_C@_0N@GDNPPFAH@KOSDAQ?$CI?A?$LO?G?U?$CJ@	; `string'
PUBLIC	??_C@_08HMCPBLEK@KUMASTER@			; `string'
PUBLIC	??_C@_04GAOAGNCM@?4xml@				; `string'
PUBLIC	??_C@_04NPAIABJB@?4tdf@				; `string'
PUBLIC	??_C@_09ELDJDNO@Except_JM@			; `string'
PUBLIC	??_C@_05OLCCKFMM@Issue@				; `string'
PUBLIC	??_C@_0O@KJHEEKBI@CheckDealStop@		; `string'
PUBLIC	??_C@_08ILOOAIEA@TidyDeal@			; `string'
PUBLIC	??_C@_0BC@ONKKOLN@InsincerityNotice@		; `string'
PUBLIC	??_C@_0BE@HLPKMDJA@AttentionInvestment@		; `string'
PUBLIC	??_C@_0BK@FLJHGBIE@NoticeAttentionInvestment@	; `string'
PUBLIC	??_C@_0BF@MGLLGIND@CheckPreferenceStock@	; `string'
PUBLIC	??_C@_0N@KDBMFLJ@CheckDeposit@			; `string'
PUBLIC	??_C@_0BB@ECGNDCGL@DangerInvestment@		; `string'
PUBLIC	??_C@_0BC@DEJCAOFC@WarningInvestment@		; `string'
PUBLIC	??_C@_0BA@LOIGKKCE@InvestAttention@		; `string'
PUBLIC	??_C@_03LPOHOGAD@ETF@				; `string'
PUBLIC	??_C@_05MDLMAGGB@Month@				; `string'
PUBLIC	??_C@_0O@GLAJCEBI@SelRadioMonth@		; `string'
PUBLIC	??_C@_0BA@CAOBJMAA@IndexMonthCombo@		; `string'
PUBLIC	??_C@_0M@BCNIABEG@Tree_Upjong@			; `string'
PUBLIC	??_C@_0L@INPAEN@TargetItem@			; `string'
PUBLIC	??_C@_0BB@NABPICPH@TargetParnetItem@		; `string'
PUBLIC	??_C@_04KOJKLCBG@1000@				; `string'
PUBLIC	??_C@_05FNNGFGLF@Index@				; `string'
PUBLIC	??_C@_0P@DNFHBFAL@Tree_JangGubun@		; `string'
PUBLIC	??_C@_06DCPOEFOJ@?$CF?97?47s@			; `string'
PUBLIC	??_C@_01FDFGLJHB@2@				; `string'
PUBLIC	??_C@_01EKENIIDA@3@				; `string'
PUBLIC	??_C@_01FAMBOPH@4@				; `string'
PUBLIC	??_C@_08GBCBMMED@?$LA?$PM?$LN?I?A?$LO?$LI?q@	; `string'
PUBLIC	??_C@_08JMIJNHAN@?E?W?$LI?$LG?$LB?W?$LH?l@	; `string'
PUBLIC	??_C@_0L@CMGEAIGC@KRXUMASTER@			; `string'
PUBLIC	??_C@_06CLLJOKKL@?$LA?E?$LH?$KB?$LM?R@		; `string'
PUBLIC	??_C@_06MKHMLNFC@?D?Z?$LN?$LK?$LE?Z@		; `string'
PUBLIC	??_C@_06NOAAGAFD@KRX100@			; `string'
PUBLIC	??_C@_04MHOBIAIL@?$MA?$PM?C?$LM@		; `string'
PUBLIC	??_C@_0BD@CABKFFIK@?$CFs?2portfolio?4i?$CF02d@	; `string'
PUBLIC	??_C@_04EBNJJJJI@?$CF?4?$CKs@			; `string'
PUBLIC	??_C@_09PNJEFEEK@?$CFs?2tab?2?$CFs@		; `string'
PUBLIC	??_C@_04OGKJMPGK@?$CF02d@			; `string'
PUBLIC	??_C@_04OHGLKFFN@?$CF03d@			; `string'
PUBLIC	??_C@_06MMOPNCKE@FOLDER@			; `string'
PUBLIC	??_C@_06CAHGAADJ@TMCODE@			; `string'
PUBLIC	??_C@_01ICJEACDI@?$DL@				; `string'
PUBLIC	??_R4CGetBackData@@6B@				; CGetBackData::`RTTI Complete Object Locator'
PUBLIC	??_R0?AVCGetBackData@@@8			; CGetBackData `RTTI Type Descriptor'
PUBLIC	??_R3CGetBackData@@8				; CGetBackData::`RTTI Class Hierarchy Descriptor'
PUBLIC	??_R2CGetBackData@@8				; CGetBackData::`RTTI Base Class Array'
PUBLIC	??_R1A@?0A@EA@CGetBackData@@8			; CGetBackData::`RTTI Base Class Descriptor at (0,-1,0,64)'
PUBLIC	??_R4CCondTarget@@6B@				; CCondTarget::`RTTI Complete Object Locator'
PUBLIC	??_R0?AVCCondTarget@@@8				; CCondTarget `RTTI Type Descriptor'
PUBLIC	??_R3CCondTarget@@8				; CCondTarget::`RTTI Class Hierarchy Descriptor'
PUBLIC	??_R2CCondTarget@@8				; CCondTarget::`RTTI Base Class Array'
PUBLIC	??_R1A@?0A@EA@CCondTarget@@8			; CCondTarget::`RTTI Base Class Descriptor at (0,-1,0,64)'
PUBLIC	??_R4?$CMap@HHPAVCGetBackData@@PAV1@@@6B@	; CMap<int,int,CGetBackData *,CGetBackData *>::`RTTI Complete Object Locator'
PUBLIC	??_R0?AV?$CMap@HHPAVCGetBackData@@PAV1@@@@8	; CMap<int,int,CGetBackData *,CGetBackData *> `RTTI Type Descriptor'
PUBLIC	??_R3?$CMap@HHPAVCGetBackData@@PAV1@@@8		; CMap<int,int,CGetBackData *,CGetBackData *>::`RTTI Class Hierarchy Descriptor'
PUBLIC	??_R2?$CMap@HHPAVCGetBackData@@PAV1@@@8		; CMap<int,int,CGetBackData *,CGetBackData *>::`RTTI Base Class Array'
PUBLIC	??_R1A@?0A@EA@?$CMap@HHPAVCGetBackData@@PAV1@@@8 ; CMap<int,int,CGetBackData *,CGetBackData *>::`RTTI Base Class Descriptor at (0,-1,0,64)'
EXTRN	??_L@YGXPAXIIP6EX0@Z1@Z:PROC			; `eh vector constructor iterator'
EXTRN	??_M@YGXPAXIIP6EX0@Z@Z:PROC			; `eh vector destructor iterator'
EXTRN	??2@YAPAXI@Z:PROC				; operator new
EXTRN	??3@YAXPAX@Z:PROC				; operator delete
EXTRN	??3@YAXPAXI@Z:PROC				; operator delete
EXTRN	?__global_delete@@YAXPAXI@Z:PROC		; __global_delete
EXTRN	??_U@YAPAXI@Z:PROC				; operator new[]
EXTRN	??_V@YAXPAX@Z:PROC				; operator delete[]
EXTRN	??_V@YAXPAXI@Z:PROC				; operator delete[]
EXTRN	_atexit:PROC
EXTRN	___std_terminate:PROC
EXTRN	__imp__GetEnvironmentVariableA@12:PROC
EXTRN	__imp__RaiseException@16:PROC
EXTRN	__imp__GetLastError@0:PROC
EXTRN	__imp__InitializeCriticalSectionEx@12:PROC
EXTRN	__imp__DeleteCriticalSection@4:PROC
EXTRN	__imp__GetModuleHandleA@4:PROC
EXTRN	__imp__GetPrivateProfileStringA@24:PROC
EXTRN	__imp__RegisterWindowMessageA@4:PROC
EXTRN	__imp__SendMessageA@16:PROC
EXTRN	__imp__UnregisterClassA@8:PROC
EXTRN	__imp____stdio_common_vsscanf:PROC
EXTRN	__imp__free:PROC
EXTRN	__imp__atoi:PROC
EXTRN	?AfxThrowInvalidArgException@@YGXXZ:PROC	; AfxThrowInvalidArgException
EXTRN	?AfxThrowArchiveException@@YGXHPBD@Z:PROC	; AfxThrowArchiveException
EXTRN	?GetRuntimeClass@CObject@@UBEPAUCRuntimeClass@@XZ:PROC ; CObject::GetRuntimeClass
EXTRN	__imp__SysFreeString@4:PROC
EXTRN	__imp_?Empty@?$CSimpleStringT@D$00@ATL@@QAEXXZ:PROC
EXTRN	__imp_?GetAt@?$CSimpleStringT@D$00@ATL@@QBEDH@Z:PROC
EXTRN	__imp_??0?$CStringT@DV?$StrTraitMFC_DLL@DV?$ChTraitsCRT@D@ATL@@@@@ATL@@QAE@XZ:PROC
EXTRN	__imp_??0?$CStringT@DV?$StrTraitMFC_DLL@DV?$ChTraitsCRT@D@ATL@@@@@ATL@@QAE@ABV01@@Z:PROC
EXTRN	__imp_??0?$CStringT@DV?$StrTraitMFC_DLL@DV?$ChTraitsCRT@D@ATL@@@@@ATL@@QAE@PBD@Z:PROC
EXTRN	__imp_??1?$CStringT@DV?$StrTraitMFC_DLL@DV?$ChTraitsCRT@D@ATL@@@@@ATL@@QAE@XZ:PROC
EXTRN	__imp_??4?$CStringT@DV?$StrTraitMFC_DLL@DV?$ChTraitsCRT@D@ATL@@@@@ATL@@QAEAAV01@ABV01@@Z:PROC
EXTRN	__imp_??4?$CStringT@DV?$StrTraitMFC_DLL@DV?$ChTraitsCRT@D@ATL@@@@@ATL@@QAEAAV01@PBD@Z:PROC
EXTRN	__imp_??Y?$CStringT@DV?$StrTraitMFC_DLL@DV?$ChTraitsCRT@D@ATL@@@@@ATL@@QAEAAV01@PBD@Z:PROC
EXTRN	__imp_?Compare@?$CStringT@DV?$StrTraitMFC_DLL@DV?$ChTraitsCRT@D@ATL@@@@@ATL@@QBEHPBD@Z:PROC
EXTRN	__imp_?CompareNoCase@?$CStringT@DV?$StrTraitMFC_DLL@DV?$ChTraitsCRT@D@ATL@@@@@ATL@@QBEHPBD@Z:PROC
EXTRN	__imp_?Replace@?$CStringT@DV?$StrTraitMFC_DLL@DV?$ChTraitsCRT@D@ATL@@@@@ATL@@QAEHPBD0@Z:PROC
EXTRN	__imp_?Find@?$CStringT@DV?$StrTraitMFC_DLL@DV?$ChTraitsCRT@D@ATL@@@@@ATL@@QBEHPBDH@Z:PROC
EXTRN	__imp_?TrimRight@?$CStringT@DV?$StrTraitMFC_DLL@DV?$ChTraitsCRT@D@ATL@@@@@ATL@@QAEAAV12@XZ:PROC
EXTRN	__imp_?TrimLeft@?$CStringT@DV?$StrTraitMFC_DLL@DV?$ChTraitsCRT@D@ATL@@@@@ATL@@QAEAAV12@XZ:PROC
EXTRN	__imp_?Mid@?$CStringT@DV?$StrTraitMFC_DLL@DV?$ChTraitsCRT@D@ATL@@@@@ATL@@QBE?AV12@H@Z:PROC
EXTRN	__imp_?Right@?$CStringT@DV?$StrTraitMFC_DLL@DV?$ChTraitsCRT@D@ATL@@@@@ATL@@QBE?AV12@H@Z:PROC
EXTRN	__imp_?Left@?$CStringT@DV?$StrTraitMFC_DLL@DV?$ChTraitsCRT@D@ATL@@@@@ATL@@QBE?AV12@H@Z:PROC
EXTRN	__imp_?Format@?$CStringT@DV?$StrTraitMFC_DLL@DV?$ChTraitsCRT@D@ATL@@@@@ATL@@QAAXPBDZZ:PROC
EXTRN	??0CFile@@QAE@PBDI@Z:PROC			; CFile::CFile
EXTRN	?GetStatus@CFile@@SGHPBDAAUCFileStatus@@PAVCAtlTransactionManager@ATL@@@Z:PROC ; CFile::GetStatus
EXTRN	?Read@CFile@@UAEIPAXI@Z:PROC			; CFile::Read
EXTRN	?Close@CFile@@UAEXXZ:PROC			; CFile::Close
EXTRN	??1CFile@@UAE@XZ:PROC				; CFile::~CFile
EXTRN	??0CFileFind@@QAE@XZ:PROC			; CFileFind::CFileFind
EXTRN	??1CFileFind@@UAE@XZ:PROC			; CFileFind::~CFileFind
EXTRN	?FindFile@CFileFind@@UAEHPBDK@Z:PROC		; CFileFind::FindFile
EXTRN	?Read@CArchive@@QAEIPAXI@Z:PROC			; CArchive::Read
EXTRN	?Write@CArchive@@QAEXPBXI@Z:PROC		; CArchive::Write
EXTRN	?ReadCount@CArchive@@QAEKXZ:PROC		; CArchive::ReadCount
EXTRN	?WriteCount@CArchive@@QAEXK@Z:PROC		; CArchive::WriteCount
EXTRN	??0CStringArray@@QAE@XZ:PROC			; CStringArray::CStringArray
EXTRN	?SetSize@CStringArray@@QAEXHH@Z:PROC		; CStringArray::SetSize
EXTRN	?SetAtGrow@CStringArray@@QAEXHABV?$CStringT@DV?$StrTraitMFC_DLL@DV?$ChTraitsCRT@D@ATL@@@@@ATL@@@Z:PROC ; CStringArray::SetAtGrow
EXTRN	?Copy@CStringArray@@QAEXABV1@@Z:PROC		; CStringArray::Copy
EXTRN	??1CStringArray@@UAE@XZ:PROC			; CStringArray::~CStringArray
EXTRN	??0CMapStringToString@@QAE@H@Z:PROC		; CMapStringToString::CMapStringToString
EXTRN	?Lookup@CMapStringToString@@QBEHPBDAAV?$CStringT@DV?$StrTraitMFC_DLL@DV?$ChTraitsCRT@D@ATL@@@@@ATL@@@Z:PROC ; CMapStringToString::Lookup
EXTRN	??ACMapStringToString@@QAEAAV?$CStringT@DV?$StrTraitMFC_DLL@DV?$ChTraitsCRT@D@ATL@@@@@ATL@@PBD@Z:PROC ; CMapStringToString::operator[]
EXTRN	?RemoveAll@CMapStringToString@@QAEXXZ:PROC	; CMapStringToString::RemoveAll
EXTRN	??1CMapStringToString@@UAE@XZ:PROC		; CMapStringToString::~CMapStringToString
EXTRN	?Create@CPlex@@SGPAU1@AAPAU1@II@Z:PROC		; CPlex::Create
EXTRN	?FreeDataChain@CPlex@@QAEXXZ:PROC		; CPlex::FreeDataChain
EXTRN	??_ECGetBackData@@UAEPAXI@Z:PROC		; CGetBackData::`vector deleting destructor'
EXTRN	??_E?$CMap@HHPAVCGetBackData@@PAV1@@@UAEPAXI@Z:PROC ; CMap<int,int,CGetBackData *,CGetBackData *>::`vector deleting destructor'
EXTRN	??_ECCondTarget@@UAEPAXI@Z:PROC			; CCondTarget::`vector deleting destructor'
EXTRN	@__security_check_cookie@4:PROC
EXTRN	___CxxFrameHandler3:PROC
EXTRN	_memset:PROC
EXTRN	??_7type_info@@6B@:QWORD			; type_info::`vftable'
EXTRN	__imp_?hFileNull@CFile@@2QAXA:DWORD
EXTRN	___security_cookie:DWORD
EXTRN	__fltused:DWORD
;	COMDAT ?_OptionsStorage@?1??__local_stdio_scanf_options@@9@4_KA
_BSS	SEGMENT
?_OptionsStorage@?1??__local_stdio_scanf_options@@9@4_KA DQ 01H DUP (?) ; `__local_stdio_scanf_options'::`2'::_OptionsStorage
_BSS	ENDS
_BSS	SEGMENT
?RMSG_INTERFACE@@3IB DD 01H DUP (?)			; RMSG_INTERFACE
?RMSG_REPLAY_REAL@@3IB DD 01H DUP (?)			; RMSG_REPLAY_REAL
?RMSG_REPLAY_FAIL@@3IB DD 01H DUP (?)			; RMSG_REPLAY_FAIL
?RMSG_REPLAY_CHANGE_DATE@@3IB DD 01H DUP (?)		; RMSG_REPLAY_CHANGE_DATE
?RMSG_REPLAY_END@@3IB DD 01H DUP (?)			; RMSG_REPLAY_END
?RMSG_REPLAY_INC_SEC@@3IB DD 01H DUP (?)		; RMSG_REPLAY_INC_SEC
?RMSG_REPLAY_TOTAL_SEC@@3IB DD 01H DUP (?)		; RMSG_REPLAY_TOTAL_SEC
?RMSG_GETSIGNAL_REAL@@3IB DD 01H DUP (?)		; RMSG_GETSIGNAL_REAL
?RMSG_SETQUERYOPT@@3IB DD 01H DUP (?)			; RMSG_SETQUERYOPT
?RMSG_CHARTMAIN@@3IB DD 01H DUP (?)			; RMSG_CHARTMAIN
?RMS_ANALYSIS_FUNC@@3IB DD 01H DUP (?)			; RMS_ANALYSIS_FUNC
?RMSG_GET_USERID@@3IB DD 01H DUP (?)			; RMSG_GET_USERID
?RMSG_CHANGE_SKINCOLOR@@3IB DD 01H DUP (?)		; RMSG_CHANGE_SKINCOLOR
?RMSG_GET_SKINCOLOR@@3IB DD 01H DUP (?)			; RMSG_GET_SKINCOLOR
?RMSG_CHANGEVERTSCALETYPE@@3IB DD 01H DUP (?)		; RMSG_CHANGEVERTSCALETYPE
?RMSG_CHANGE_CROSSLINE@@3IB DD 01H DUP (?)		; RMSG_CHANGE_CROSSLINE
?RMSG_ADD_PLATFORM_MENU@@3IB DD 01H DUP (?)		; RMSG_ADD_PLATFORM_MENU
?RMSG_SETINITIALCHARTDATA@@3IB DD 01H DUP (?)		; RMSG_SETINITIALCHARTDATA
?RMSG_GETINFO@@3IB DD 01H DUP (?)			; RMSG_GETINFO
?RMSG_SETINFO@@3IB DD 01H DUP (?)			; RMSG_SETINFO
_BSS	ENDS
;	COMDAT CRT$XCU
CRT$XCU	SEGMENT
?_AtlWinModule$initializer$@ATL@@3P6AXXZA DD FLAT:??__E_AtlWinModule@ATL@@YAXXZ ; ATL::_AtlWinModule$initializer$
CRT$XCU	ENDS
;	COMDAT ??_R1A@?0A@EA@?$CMap@HHPAVCGetBackData@@PAV1@@@8
rdata$r	SEGMENT
??_R1A@?0A@EA@?$CMap@HHPAVCGetBackData@@PAV1@@@8 DD FLAT:??_R0?AV?$CMap@HHPAVCGetBackData@@PAV1@@@@8 ; CMap<int,int,CGetBackData *,CGetBackData *>::`RTTI Base Class Descriptor at (0,-1,0,64)'
	DD	01H
	DD	00H
	DD	0ffffffffH
	DD	00H
	DD	040H
	DD	FLAT:??_R3?$CMap@HHPAVCGetBackData@@PAV1@@@8
rdata$r	ENDS
;	COMDAT ??_R2?$CMap@HHPAVCGetBackData@@PAV1@@@8
rdata$r	SEGMENT
??_R2?$CMap@HHPAVCGetBackData@@PAV1@@@8 DD FLAT:??_R1A@?0A@EA@?$CMap@HHPAVCGetBackData@@PAV1@@@8 ; CMap<int,int,CGetBackData *,CGetBackData *>::`RTTI Base Class Array'
	DD	FLAT:??_R1A@?0A@EA@CObject@@8
rdata$r	ENDS
;	COMDAT ??_R3?$CMap@HHPAVCGetBackData@@PAV1@@@8
rdata$r	SEGMENT
??_R3?$CMap@HHPAVCGetBackData@@PAV1@@@8 DD 00H		; CMap<int,int,CGetBackData *,CGetBackData *>::`RTTI Class Hierarchy Descriptor'
	DD	00H
	DD	02H
	DD	FLAT:??_R2?$CMap@HHPAVCGetBackData@@PAV1@@@8
rdata$r	ENDS
;	COMDAT ??_R0?AV?$CMap@HHPAVCGetBackData@@PAV1@@@@8
data$rs	SEGMENT
??_R0?AV?$CMap@HHPAVCGetBackData@@PAV1@@@@8 DD FLAT:??_7type_info@@6B@ ; CMap<int,int,CGetBackData *,CGetBackData *> `RTTI Type Descriptor'
	DD	00H
	DB	'.?AV?$CMap@HHPAVCGetBackData@@PAV1@@@', 00H
data$rs	ENDS
;	COMDAT ??_R4?$CMap@HHPAVCGetBackData@@PAV1@@@6B@
rdata$r	SEGMENT
??_R4?$CMap@HHPAVCGetBackData@@PAV1@@@6B@ DD 00H	; CMap<int,int,CGetBackData *,CGetBackData *>::`RTTI Complete Object Locator'
	DD	00H
	DD	00H
	DD	FLAT:??_R0?AV?$CMap@HHPAVCGetBackData@@PAV1@@@@8
	DD	FLAT:??_R3?$CMap@HHPAVCGetBackData@@PAV1@@@8
rdata$r	ENDS
;	COMDAT ??_R1A@?0A@EA@CCondTarget@@8
rdata$r	SEGMENT
??_R1A@?0A@EA@CCondTarget@@8 DD FLAT:??_R0?AVCCondTarget@@@8 ; CCondTarget::`RTTI Base Class Descriptor at (0,-1,0,64)'
	DD	00H
	DD	00H
	DD	0ffffffffH
	DD	00H
	DD	040H
	DD	FLAT:??_R3CCondTarget@@8
rdata$r	ENDS
;	COMDAT ??_R2CCondTarget@@8
rdata$r	SEGMENT
??_R2CCondTarget@@8 DD FLAT:??_R1A@?0A@EA@CCondTarget@@8 ; CCondTarget::`RTTI Base Class Array'
rdata$r	ENDS
;	COMDAT ??_R3CCondTarget@@8
rdata$r	SEGMENT
??_R3CCondTarget@@8 DD 00H				; CCondTarget::`RTTI Class Hierarchy Descriptor'
	DD	00H
	DD	01H
	DD	FLAT:??_R2CCondTarget@@8
rdata$r	ENDS
;	COMDAT ??_R0?AVCCondTarget@@@8
data$rs	SEGMENT
??_R0?AVCCondTarget@@@8 DD FLAT:??_7type_info@@6B@	; CCondTarget `RTTI Type Descriptor'
	DD	00H
	DB	'.?AVCCondTarget@@', 00H
data$rs	ENDS
;	COMDAT ??_R4CCondTarget@@6B@
rdata$r	SEGMENT
??_R4CCondTarget@@6B@ DD 00H				; CCondTarget::`RTTI Complete Object Locator'
	DD	00H
	DD	00H
	DD	FLAT:??_R0?AVCCondTarget@@@8
	DD	FLAT:??_R3CCondTarget@@8
rdata$r	ENDS
;	COMDAT ??_R1A@?0A@EA@CGetBackData@@8
rdata$r	SEGMENT
??_R1A@?0A@EA@CGetBackData@@8 DD FLAT:??_R0?AVCGetBackData@@@8 ; CGetBackData::`RTTI Base Class Descriptor at (0,-1,0,64)'
	DD	00H
	DD	00H
	DD	0ffffffffH
	DD	00H
	DD	040H
	DD	FLAT:??_R3CGetBackData@@8
rdata$r	ENDS
;	COMDAT ??_R2CGetBackData@@8
rdata$r	SEGMENT
??_R2CGetBackData@@8 DD FLAT:??_R1A@?0A@EA@CGetBackData@@8 ; CGetBackData::`RTTI Base Class Array'
rdata$r	ENDS
;	COMDAT ??_R3CGetBackData@@8
rdata$r	SEGMENT
??_R3CGetBackData@@8 DD 00H				; CGetBackData::`RTTI Class Hierarchy Descriptor'
	DD	00H
	DD	01H
	DD	FLAT:??_R2CGetBackData@@8
rdata$r	ENDS
;	COMDAT ??_R0?AVCGetBackData@@@8
data$rs	SEGMENT
??_R0?AVCGetBackData@@@8 DD FLAT:??_7type_info@@6B@	; CGetBackData `RTTI Type Descriptor'
	DD	00H
	DB	'.?AVCGetBackData@@', 00H
data$rs	ENDS
;	COMDAT ??_R4CGetBackData@@6B@
rdata$r	SEGMENT
??_R4CGetBackData@@6B@ DD 00H				; CGetBackData::`RTTI Complete Object Locator'
	DD	00H
	DD	00H
	DD	FLAT:??_R0?AVCGetBackData@@@8
	DD	FLAT:??_R3CGetBackData@@8
rdata$r	ENDS
;	COMDAT ??_C@_01ICJEACDI@?$DL@
CONST	SEGMENT
??_C@_01ICJEACDI@?$DL@ DB ';', 00H			; `string'
CONST	ENDS
;	COMDAT ??_C@_06CAHGAADJ@TMCODE@
CONST	SEGMENT
??_C@_06CAHGAADJ@TMCODE@ DB 'TMCODE', 00H		; `string'
CONST	ENDS
;	COMDAT ??_C@_06MMOPNCKE@FOLDER@
CONST	SEGMENT
??_C@_06MMOPNCKE@FOLDER@ DB 'FOLDER', 00H		; `string'
CONST	ENDS
;	COMDAT ??_C@_04OHGLKFFN@?$CF03d@
CONST	SEGMENT
??_C@_04OHGLKFFN@?$CF03d@ DB '%03d', 00H		; `string'
CONST	ENDS
;	COMDAT ??_C@_04OGKJMPGK@?$CF02d@
CONST	SEGMENT
??_C@_04OGKJMPGK@?$CF02d@ DB '%02d', 00H		; `string'
CONST	ENDS
;	COMDAT ??_C@_09PNJEFEEK@?$CFs?2tab?2?$CFs@
CONST	SEGMENT
??_C@_09PNJEFEEK@?$CFs?2tab?2?$CFs@ DB '%s\tab\%s', 00H	; `string'
CONST	ENDS
;	COMDAT ??_C@_04EBNJJJJI@?$CF?4?$CKs@
CONST	SEGMENT
??_C@_04EBNJJJJI@?$CF?4?$CKs@ DB '%.*s', 00H		; `string'
CONST	ENDS
;	COMDAT ??_C@_0BD@CABKFFIK@?$CFs?2portfolio?4i?$CF02d@
CONST	SEGMENT
??_C@_0BD@CABKFFIK@?$CFs?2portfolio?4i?$CF02d@ DB '%s\portfolio.i%02d', 00H ; `string'
CONST	ENDS
;	COMDAT ??_C@_04MHOBIAIL@?$MA?$PM?C?$LM@
CONST	SEGMENT
??_C@_04MHOBIAIL@?$MA?$PM?C?$LM@ DB 0c0H, 0fcH, 0c3H, 0bcH, 00H ; `string'
CONST	ENDS
;	COMDAT ??_C@_06NOAAGAFD@KRX100@
CONST	SEGMENT
??_C@_06NOAAGAFD@KRX100@ DB 'KRX100', 00H		; `string'
CONST	ENDS
;	COMDAT ??_C@_06MKHMLNFC@?D?Z?$LN?$LK?$LE?Z@
CONST	SEGMENT
??_C@_06MKHMLNFC@?D?Z?$LN?$LK?$LE?Z@ DB 0c4H, 0daH, 0bdH, 0baH, 0b4H, 0daH
	DB	00H						; `string'
CONST	ENDS
;	COMDAT ??_C@_06CLLJOKKL@?$LA?E?$LH?$KB?$LM?R@
CONST	SEGMENT
??_C@_06CLLJOKKL@?$LA?E?$LH?$KB?$LM?R@ DB 0b0H, 0c5H, 0b7H, 0a1H, 0bcH, 0d2H
	DB	00H						; `string'
CONST	ENDS
;	COMDAT ??_C@_0L@CMGEAIGC@KRXUMASTER@
CONST	SEGMENT
??_C@_0L@CMGEAIGC@KRXUMASTER@ DB 'KRXUMASTER', 00H	; `string'
CONST	ENDS
;	COMDAT ??_C@_08JMIJNHAN@?E?W?$LI?$LG?$LB?W?$LH?l@
CONST	SEGMENT
??_C@_08JMIJNHAN@?E?W?$LI?$LG?$LB?W?$LH?l@ DB 0c5H, 0d7H, 0b8H, 0b6H, 0b1H
	DB	0d7H, 0b7H, 0ecH, 00H			; `string'
CONST	ENDS
;	COMDAT ??_C@_08GBCBMMED@?$LA?$PM?$LN?I?A?$LO?$LI?q@
CONST	SEGMENT
??_C@_08GBCBMMED@?$LA?$PM?$LN?I?A?$LO?$LI?q@ DB 0b0H, 0fcH, 0bdH, 0c9H, 0c1H
	DB	0beH, 0b8H, 0f1H, 00H			; `string'
CONST	ENDS
;	COMDAT ??_C@_01FAMBOPH@4@
CONST	SEGMENT
??_C@_01FAMBOPH@4@ DB '4', 00H				; `string'
CONST	ENDS
;	COMDAT ??_C@_01EKENIIDA@3@
CONST	SEGMENT
??_C@_01EKENIIDA@3@ DB '3', 00H				; `string'
CONST	ENDS
;	COMDAT ??_C@_01FDFGLJHB@2@
CONST	SEGMENT
??_C@_01FDFGLJHB@2@ DB '2', 00H				; `string'
CONST	ENDS
;	COMDAT ??_C@_06DCPOEFOJ@?$CF?97?47s@
CONST	SEGMENT
??_C@_06DCPOEFOJ@?$CF?97?47s@ DB '%-7.7s', 00H		; `string'
CONST	ENDS
;	COMDAT ??_C@_0P@DNFHBFAL@Tree_JangGubun@
CONST	SEGMENT
??_C@_0P@DNFHBFAL@Tree_JangGubun@ DB 'Tree_JangGubun', 00H ; `string'
CONST	ENDS
;	COMDAT ??_C@_05FNNGFGLF@Index@
CONST	SEGMENT
??_C@_05FNNGFGLF@Index@ DB 'Index', 00H			; `string'
CONST	ENDS
;	COMDAT ??_C@_04KOJKLCBG@1000@
CONST	SEGMENT
??_C@_04KOJKLCBG@1000@ DB '1000', 00H			; `string'
CONST	ENDS
;	COMDAT ??_C@_0BB@NABPICPH@TargetParnetItem@
CONST	SEGMENT
??_C@_0BB@NABPICPH@TargetParnetItem@ DB 'TargetParnetItem', 00H ; `string'
CONST	ENDS
;	COMDAT ??_C@_0L@INPAEN@TargetItem@
CONST	SEGMENT
??_C@_0L@INPAEN@TargetItem@ DB 'TargetItem', 00H	; `string'
CONST	ENDS
;	COMDAT ??_C@_0M@BCNIABEG@Tree_Upjong@
CONST	SEGMENT
??_C@_0M@BCNIABEG@Tree_Upjong@ DB 'Tree_Upjong', 00H	; `string'
CONST	ENDS
;	COMDAT ??_C@_0BA@CAOBJMAA@IndexMonthCombo@
CONST	SEGMENT
??_C@_0BA@CAOBJMAA@IndexMonthCombo@ DB 'IndexMonthCombo', 00H ; `string'
CONST	ENDS
;	COMDAT ??_C@_0O@GLAJCEBI@SelRadioMonth@
CONST	SEGMENT
??_C@_0O@GLAJCEBI@SelRadioMonth@ DB 'SelRadioMonth', 00H ; `string'
CONST	ENDS
;	COMDAT ??_C@_05MDLMAGGB@Month@
CONST	SEGMENT
??_C@_05MDLMAGGB@Month@ DB 'Month', 00H			; `string'
CONST	ENDS
;	COMDAT ??_C@_03LPOHOGAD@ETF@
CONST	SEGMENT
??_C@_03LPOHOGAD@ETF@ DB 'ETF', 00H			; `string'
CONST	ENDS
;	COMDAT ??_C@_0BA@LOIGKKCE@InvestAttention@
CONST	SEGMENT
??_C@_0BA@LOIGKKCE@InvestAttention@ DB 'InvestAttention', 00H ; `string'
CONST	ENDS
;	COMDAT ??_C@_0BC@DEJCAOFC@WarningInvestment@
CONST	SEGMENT
??_C@_0BC@DEJCAOFC@WarningInvestment@ DB 'WarningInvestment', 00H ; `string'
CONST	ENDS
;	COMDAT ??_C@_0BB@ECGNDCGL@DangerInvestment@
CONST	SEGMENT
??_C@_0BB@ECGNDCGL@DangerInvestment@ DB 'DangerInvestment', 00H ; `string'
CONST	ENDS
;	COMDAT ??_C@_0N@KDBMFLJ@CheckDeposit@
CONST	SEGMENT
??_C@_0N@KDBMFLJ@CheckDeposit@ DB 'CheckDeposit', 00H	; `string'
CONST	ENDS
;	COMDAT ??_C@_0BF@MGLLGIND@CheckPreferenceStock@
CONST	SEGMENT
??_C@_0BF@MGLLGIND@CheckPreferenceStock@ DB 'CheckPreferenceStock', 00H ; `string'
CONST	ENDS
;	COMDAT ??_C@_0BK@FLJHGBIE@NoticeAttentionInvestment@
CONST	SEGMENT
??_C@_0BK@FLJHGBIE@NoticeAttentionInvestment@ DB 'NoticeAttentionInvestme'
	DB	'nt', 00H					; `string'
CONST	ENDS
;	COMDAT ??_C@_0BE@HLPKMDJA@AttentionInvestment@
CONST	SEGMENT
??_C@_0BE@HLPKMDJA@AttentionInvestment@ DB 'AttentionInvestment', 00H ; `string'
CONST	ENDS
;	COMDAT ??_C@_0BC@ONKKOLN@InsincerityNotice@
CONST	SEGMENT
??_C@_0BC@ONKKOLN@InsincerityNotice@ DB 'InsincerityNotice', 00H ; `string'
CONST	ENDS
;	COMDAT ??_C@_08ILOOAIEA@TidyDeal@
CONST	SEGMENT
??_C@_08ILOOAIEA@TidyDeal@ DB 'TidyDeal', 00H		; `string'
CONST	ENDS
;	COMDAT ??_C@_0O@KJHEEKBI@CheckDealStop@
CONST	SEGMENT
??_C@_0O@KJHEEKBI@CheckDealStop@ DB 'CheckDealStop', 00H ; `string'
CONST	ENDS
;	COMDAT ??_C@_05OLCCKFMM@Issue@
CONST	SEGMENT
??_C@_05OLCCKFMM@Issue@ DB 'Issue', 00H			; `string'
CONST	ENDS
;	COMDAT ??_C@_09ELDJDNO@Except_JM@
CONST	SEGMENT
??_C@_09ELDJDNO@Except_JM@ DB 'Except_JM', 00H		; `string'
CONST	ENDS
;	COMDAT ??_C@_04NPAIABJB@?4tdf@
CONST	SEGMENT
??_C@_04NPAIABJB@?4tdf@ DB '.tdf', 00H			; `string'
CONST	ENDS
;	COMDAT ??_C@_04GAOAGNCM@?4xml@
CONST	SEGMENT
??_C@_04GAOAGNCM@?4xml@ DB '.xml', 00H			; `string'
CONST	ENDS
;	COMDAT ??_C@_08HMCPBLEK@KUMASTER@
CONST	SEGMENT
??_C@_08HMCPBLEK@KUMASTER@ DB 'KUMASTER', 00H		; `string'
CONST	ENDS
;	COMDAT ??_C@_0N@GDNPPFAH@KOSDAQ?$CI?A?$LO?G?U?$CJ@
CONST	SEGMENT
??_C@_0N@GDNPPFAH@KOSDAQ?$CI?A?$LO?G?U?$CJ@ DB 'KOSDAQ(', 0c1H, 0beH, 0c7H
	DB	0d5H, ')', 00H				; `string'
CONST	ENDS
;	COMDAT ??_C@_0M@DLEHNAKM@KOSPI?$CI?A?$LO?G?U?$CJ@
CONST	SEGMENT
??_C@_0M@DLEHNAKM@KOSPI?$CI?A?$LO?G?U?$CJ@ DB 'KOSPI(', 0c1H, 0beH, 0c7H, 0d5H
	DB	')', 00H					; `string'
CONST	ENDS
;	COMDAT ??_C@_07KDMDENFH@UMASTER@
CONST	SEGMENT
??_C@_07KDMDENFH@UMASTER@ DB 'UMASTER', 00H		; `string'
CONST	ENDS
;	COMDAT ??_C@_08FPNDIEGG@KOSPI200@
CONST	SEGMENT
??_C@_08FPNDIEGG@KOSPI200@ DB 'KOSPI200', 00H		; `string'
CONST	ENDS
;	COMDAT ??_C@_01CLKCMJKC@?5@
CONST	SEGMENT
??_C@_01CLKCMJKC@?5@ DB ' ', 00H			; `string'
CONST	ENDS
;	COMDAT ??_C@_0BB@NJOFBLDN@KRX100?$CI?E?k?G?U?A?v?$LM?v?$CJ@
CONST	SEGMENT
??_C@_0BB@NJOFBLDN@KRX100?$CI?E?k?G?U?A?v?$LM?v?$CJ@ DB 'KRX100(', 0c5H, 0ebH
	DB	0c7H, 0d5H, 0c1H, 0f6H, 0bcH, 0f6H, ')', 00H	; `string'
CONST	ENDS
;	COMDAT ??_C@_0BD@CMCCCNBF@HANAROIGATEMANAGER@
CONST	SEGMENT
??_C@_0BD@CMCCCNBF@HANAROIGATEMANAGER@ DB 'HANAROIGATEMANAGER', 00H ; `string'
CONST	ENDS
_DATA	SEGMENT
?FILE_THEME@@3PBDB DD FLAT:??_C@_0L@NFJHMDFP@THEMCD?4INI@ ; FILE_THEME
_DATA	ENDS
;	COMDAT ??_7CCondTarget@@6B@
CONST	SEGMENT
??_7CCondTarget@@6B@ DD FLAT:??_R4CCondTarget@@6B@	; CCondTarget::`vftable'
	DD	FLAT:??_ECCondTarget@@UAEPAXI@Z
CONST	ENDS
;	COMDAT ??_7?$CMap@HHPAVCGetBackData@@PAV1@@@6B@
CONST	SEGMENT
??_7?$CMap@HHPAVCGetBackData@@PAV1@@@6B@ DD FLAT:??_R4?$CMap@HHPAVCGetBackData@@PAV1@@@6B@ ; CMap<int,int,CGetBackData *,CGetBackData *>::`vftable'
	DD	FLAT:?GetRuntimeClass@CObject@@UBEPAUCRuntimeClass@@XZ
	DD	FLAT:??_E?$CMap@HHPAVCGetBackData@@PAV1@@@UAEPAXI@Z
	DD	FLAT:?Serialize@?$CMap@HHPAVCGetBackData@@PAV1@@@UAEXAAVCArchive@@@Z
	DD	FLAT:?AssertValid@CObject@@UBEXXZ
	DD	FLAT:?Dump@CObject@@UBEXAAVCDumpContext@@@Z
CONST	ENDS
;	COMDAT ??_7CGetBackData@@6B@
CONST	SEGMENT
??_7CGetBackData@@6B@ DD FLAT:??_R4CGetBackData@@6B@	; CGetBackData::`vftable'
	DD	FLAT:??_ECGetBackData@@UAEPAXI@Z
CONST	ENDS
;	COMDAT ??_R1A@?0A@EA@CObject@@8
rdata$r	SEGMENT
??_R1A@?0A@EA@CObject@@8 DD FLAT:??_R0?AVCObject@@@8	; CObject::`RTTI Base Class Descriptor at (0,-1,0,64)'
	DD	00H
	DD	00H
	DD	0ffffffffH
	DD	00H
	DD	040H
	DD	FLAT:??_R3CObject@@8
rdata$r	ENDS
;	COMDAT ??_R2CObject@@8
rdata$r	SEGMENT
??_R2CObject@@8 DD FLAT:??_R1A@?0A@EA@CObject@@8	; CObject::`RTTI Base Class Array'
rdata$r	ENDS
;	COMDAT ??_R3CObject@@8
rdata$r	SEGMENT
??_R3CObject@@8 DD 00H					; CObject::`RTTI Class Hierarchy Descriptor'
	DD	00H
	DD	01H
	DD	FLAT:??_R2CObject@@8
rdata$r	ENDS
;	COMDAT ??_R0?AVCObject@@@8
data$rs	SEGMENT
??_R0?AVCObject@@@8 DD FLAT:??_7type_info@@6B@		; CObject `RTTI Type Descriptor'
	DD	00H
	DB	'.?AVCObject@@', 00H
data$rs	ENDS
;	COMDAT ??_C@_01GBGANLPD@0@
CONST	SEGMENT
??_C@_01GBGANLPD@0@ DB '0', 00H				; `string'
CONST	ENDS
;	COMDAT ??_C@_02EMFKHFLK@?$CFX@
CONST	SEGMENT
??_C@_02EMFKHFLK@?$CFX@ DB '%X', 00H			; `string'
CONST	ENDS
;	COMDAT ??_C@_06NDLAHCHE@?$CFs?$CF08X@
CONST	SEGMENT
??_C@_06NDLAHCHE@?$CFs?$CF08X@ DB '%s%08X', 00H		; `string'
CONST	ENDS
;	COMDAT ??_C@_0P@IDMAJEGN@HANAROPCTRMAIN@
CONST	SEGMENT
??_C@_0P@IDMAJEGN@HANAROPCTRMAIN@ DB 'HANAROPCTRMAIN', 00H ; `string'
CONST	ENDS
;	COMDAT ??_C@_0M@CBBNGGHM@PcTrMng?4dll@
CONST	SEGMENT
??_C@_0M@CBBNGGHM@PcTrMng?4dll@ DB 'PcTrMng.dll', 00H	; `string'
CONST	ENDS
;	COMDAT ??_C@_02DKCKIIND@?$CFs@
CONST	SEGMENT
??_C@_02DKCKIIND@?$CFs@ DB '%s', 00H			; `string'
CONST	ENDS
;	COMDAT ??_C@_01HIHLOKLC@1@
CONST	SEGMENT
??_C@_01HIHLOKLC@1@ DB '1', 00H				; `string'
CONST	ENDS
;	COMDAT ??_C@_00CNPNBAHC@@
CONST	SEGMENT
??_C@_00CNPNBAHC@@ DB 00H				; `string'
CONST	ENDS
;	COMDAT ?_AtlWinModule@ATL@@3VCAtlWinModule@1@A
_DATA	SEGMENT
?_AtlWinModule@ATL@@3VCAtlWinModule@1@A DD 02cH		; ATL::_AtlWinModule
	DB	24 DUP(00H)
	DD	00H
_DATA	ENDS
;	COMDAT xdata$x
xdata$x	SEGMENT
__unwindtable$?CheckTargetResult@CCondTarget@@QAEHV?$CStringT@DV?$StrTraitMFC_DLL@DV?$ChTraitsCRT@D@ATL@@@@@ATL@@@Z DD 0ffffffffH
	DD	FLAT:__unwindfunclet$?CheckTargetResult@CCondTarget@@QAEHV?$CStringT@DV?$StrTraitMFC_DLL@DV?$ChTraitsCRT@D@ATL@@@@@ATL@@@Z$0
	DD	00H
	DD	FLAT:__unwindfunclet$?CheckTargetResult@CCondTarget@@QAEHV?$CStringT@DV?$StrTraitMFC_DLL@DV?$ChTraitsCRT@D@ATL@@@@@ATL@@@Z$1
__ehfuncinfo$?CheckTargetResult@CCondTarget@@QAEHV?$CStringT@DV?$StrTraitMFC_DLL@DV?$ChTraitsCRT@D@ATL@@@@@ATL@@@Z DD 019930522H
	DD	02H
	DD	FLAT:__unwindtable$?CheckTargetResult@CCondTarget@@QAEHV?$CStringT@DV?$StrTraitMFC_DLL@DV?$ChTraitsCRT@D@ATL@@@@@ATL@@@Z
	DD	2 DUP(00H)
	DD	2 DUP(00H)
	DD	00H
	DD	01H
xdata$x	ENDS
;	COMDAT xdata$x
xdata$x	SEGMENT
__ehfuncinfo$?DelSpaceInName@CCondTarget@@QAEXXZ DD 019930522H
	DD	07H
	DD	FLAT:__unwindtable$?DelSpaceInName@CCondTarget@@QAEXXZ
	DD	2 DUP(00H)
	DD	2 DUP(00H)
	DD	00H
	DD	01H
__unwindtable$?DelSpaceInName@CCondTarget@@QAEXXZ DD 0ffffffffH
	DD	FLAT:__unwindfunclet$?DelSpaceInName@CCondTarget@@QAEXXZ$0
	DD	00H
	DD	FLAT:__unwindfunclet$?DelSpaceInName@CCondTarget@@QAEXXZ$1
	DD	00H
	DD	FLAT:__unwindfunclet$?DelSpaceInName@CCondTarget@@QAEXXZ$3
	DD	00H
	DD	FLAT:__unwindfunclet$?DelSpaceInName@CCondTarget@@QAEXXZ$4
	DD	00H
	DD	FLAT:__unwindfunclet$?DelSpaceInName@CCondTarget@@QAEXXZ$6
	DD	00H
	DD	FLAT:__unwindfunclet$?DelSpaceInName@CCondTarget@@QAEXXZ$7
	DD	00H
	DD	FLAT:__unwindfunclet$?DelSpaceInName@CCondTarget@@QAEXXZ$9
xdata$x	ENDS
;	COMDAT xdata$x
xdata$x	SEGMENT
__unwindtable$?GetMarketCode@CCondTarget@@QAE?AV?$CStringT@DV?$StrTraitMFC_DLL@DV?$ChTraitsCRT@D@ATL@@@@@ATL@@V23@0@Z DD 0ffffffffH
	DD	FLAT:__unwindfunclet$?GetMarketCode@CCondTarget@@QAE?AV?$CStringT@DV?$StrTraitMFC_DLL@DV?$ChTraitsCRT@D@ATL@@@@@ATL@@V23@0@Z$0
	DD	00H
	DD	FLAT:__unwindfunclet$?GetMarketCode@CCondTarget@@QAE?AV?$CStringT@DV?$StrTraitMFC_DLL@DV?$ChTraitsCRT@D@ATL@@@@@ATL@@V23@0@Z$1
	DD	01H
	DD	FLAT:__unwindfunclet$?GetMarketCode@CCondTarget@@QAE?AV?$CStringT@DV?$StrTraitMFC_DLL@DV?$ChTraitsCRT@D@ATL@@@@@ATL@@V23@0@Z$2
__ehfuncinfo$?GetMarketCode@CCondTarget@@QAE?AV?$CStringT@DV?$StrTraitMFC_DLL@DV?$ChTraitsCRT@D@ATL@@@@@ATL@@V23@0@Z DD 019930522H
	DD	03H
	DD	FLAT:__unwindtable$?GetMarketCode@CCondTarget@@QAE?AV?$CStringT@DV?$StrTraitMFC_DLL@DV?$ChTraitsCRT@D@ATL@@@@@ATL@@V23@0@Z
	DD	2 DUP(00H)
	DD	2 DUP(00H)
	DD	00H
	DD	01H
xdata$x	ENDS
;	COMDAT xdata$x
xdata$x	SEGMENT
__ehfuncinfo$?GetStockMasterData@CCondTarget@@QAEHAAVCStringArray@@0@Z DD 019930522H
	DD	08H
	DD	FLAT:__unwindtable$?GetStockMasterData@CCondTarget@@QAEHAAVCStringArray@@0@Z
	DD	2 DUP(00H)
	DD	2 DUP(00H)
	DD	00H
	DD	01H
__unwindtable$?GetStockMasterData@CCondTarget@@QAEHAAVCStringArray@@0@Z DD 0ffffffffH
	DD	FLAT:__unwindfunclet$?GetStockMasterData@CCondTarget@@QAEHAAVCStringArray@@0@Z$0
	DD	00H
	DD	FLAT:__unwindfunclet$?GetStockMasterData@CCondTarget@@QAEHAAVCStringArray@@0@Z$1
	DD	01H
	DD	FLAT:__unwindfunclet$?GetStockMasterData@CCondTarget@@QAEHAAVCStringArray@@0@Z$2
	DD	02H
	DD	FLAT:__unwindfunclet$?GetStockMasterData@CCondTarget@@QAEHAAVCStringArray@@0@Z$3
	DD	02H
	DD	FLAT:__unwindfunclet$?GetStockMasterData@CCondTarget@@QAEHAAVCStringArray@@0@Z$5
	DD	02H
	DD	FLAT:__unwindfunclet$?GetStockMasterData@CCondTarget@@QAEHAAVCStringArray@@0@Z$6
	DD	02H
	DD	FLAT:__unwindfunclet$?GetStockMasterData@CCondTarget@@QAEHAAVCStringArray@@0@Z$8
	DD	02H
	DD	FLAT:__unwindfunclet$?GetStockMasterData@CCondTarget@@QAEHAAVCStringArray@@0@Z$9
xdata$x	ENDS
;	COMDAT xdata$x
xdata$x	SEGMENT
__unwindtable$?Parser@CCondTarget@@QAE?AV?$CStringT@DV?$StrTraitMFC_DLL@DV?$ChTraitsCRT@D@ATL@@@@@ATL@@AAV23@V23@@Z DD 0ffffffffH
	DD	FLAT:__unwindfunclet$?Parser@CCondTarget@@QAE?AV?$CStringT@DV?$StrTraitMFC_DLL@DV?$ChTraitsCRT@D@ATL@@@@@ATL@@AAV23@V23@@Z$0
	DD	00H
	DD	FLAT:__unwindfunclet$?Parser@CCondTarget@@QAE?AV?$CStringT@DV?$StrTraitMFC_DLL@DV?$ChTraitsCRT@D@ATL@@@@@ATL@@AAV23@V23@@Z$1
	DD	00H
	DD	FLAT:__unwindfunclet$?Parser@CCondTarget@@QAE?AV?$CStringT@DV?$StrTraitMFC_DLL@DV?$ChTraitsCRT@D@ATL@@@@@ATL@@AAV23@V23@@Z$3
	DD	02H
	DD	FLAT:__unwindfunclet$?Parser@CCondTarget@@QAE?AV?$CStringT@DV?$StrTraitMFC_DLL@DV?$ChTraitsCRT@D@ATL@@@@@ATL@@AAV23@V23@@Z$4
__ehfuncinfo$?Parser@CCondTarget@@QAE?AV?$CStringT@DV?$StrTraitMFC_DLL@DV?$ChTraitsCRT@D@ATL@@@@@ATL@@AAV23@V23@@Z DD 019930522H
	DD	04H
	DD	FLAT:__unwindtable$?Parser@CCondTarget@@QAE?AV?$CStringT@DV?$StrTraitMFC_DLL@DV?$ChTraitsCRT@D@ATL@@@@@ATL@@AAV23@V23@@Z
	DD	2 DUP(00H)
	DD	2 DUP(00H)
	DD	00H
	DD	01H
xdata$x	ENDS
;	COMDAT xdata$x
xdata$x	SEGMENT
__ehfuncinfo$?GetItemCodeFromThemeGroup@CCondTarget@@QAEXAAVCStringArray@@V?$CStringT@DV?$StrTraitMFC_DLL@DV?$ChTraitsCRT@D@ATL@@@@@ATL@@@Z DD 019930522H
	DD	0cH
	DD	FLAT:__unwindtable$?GetItemCodeFromThemeGroup@CCondTarget@@QAEXAAVCStringArray@@V?$CStringT@DV?$StrTraitMFC_DLL@DV?$ChTraitsCRT@D@ATL@@@@@ATL@@@Z
	DD	2 DUP(00H)
	DD	2 DUP(00H)
	DD	00H
	DD	01H
__unwindtable$?GetItemCodeFromThemeGroup@CCondTarget@@QAEXAAVCStringArray@@V?$CStringT@DV?$StrTraitMFC_DLL@DV?$ChTraitsCRT@D@ATL@@@@@ATL@@@Z DD 0ffffffffH
	DD	FLAT:__unwindfunclet$?GetItemCodeFromThemeGroup@CCondTarget@@QAEXAAVCStringArray@@V?$CStringT@DV?$StrTraitMFC_DLL@DV?$ChTraitsCRT@D@ATL@@@@@ATL@@@Z$0
	DD	00H
	DD	FLAT:__unwindfunclet$?GetItemCodeFromThemeGroup@CCondTarget@@QAEXAAVCStringArray@@V?$CStringT@DV?$StrTraitMFC_DLL@DV?$ChTraitsCRT@D@ATL@@@@@ATL@@@Z$1
	DD	01H
	DD	FLAT:__unwindfunclet$?GetItemCodeFromThemeGroup@CCondTarget@@QAEXAAVCStringArray@@V?$CStringT@DV?$StrTraitMFC_DLL@DV?$ChTraitsCRT@D@ATL@@@@@ATL@@@Z$2
	DD	02H
	DD	FLAT:__unwindfunclet$?GetItemCodeFromThemeGroup@CCondTarget@@QAEXAAVCStringArray@@V?$CStringT@DV?$StrTraitMFC_DLL@DV?$ChTraitsCRT@D@ATL@@@@@ATL@@@Z$3
	DD	03H
	DD	FLAT:__unwindfunclet$?GetItemCodeFromThemeGroup@CCondTarget@@QAEXAAVCStringArray@@V?$CStringT@DV?$StrTraitMFC_DLL@DV?$ChTraitsCRT@D@ATL@@@@@ATL@@@Z$4
	DD	04H
	DD	FLAT:__unwindfunclet$?GetItemCodeFromThemeGroup@CCondTarget@@QAEXAAVCStringArray@@V?$CStringT@DV?$StrTraitMFC_DLL@DV?$ChTraitsCRT@D@ATL@@@@@ATL@@@Z$5
	DD	05H
	DD	FLAT:__unwindfunclet$?GetItemCodeFromThemeGroup@CCondTarget@@QAEXAAVCStringArray@@V?$CStringT@DV?$StrTraitMFC_DLL@DV?$ChTraitsCRT@D@ATL@@@@@ATL@@@Z$6
	DD	06H
	DD	FLAT:__unwindfunclet$?GetItemCodeFromThemeGroup@CCondTarget@@QAEXAAVCStringArray@@V?$CStringT@DV?$StrTraitMFC_DLL@DV?$ChTraitsCRT@D@ATL@@@@@ATL@@@Z$9
	DD	07H
	DD	FLAT:__unwindfunclet$?GetItemCodeFromThemeGroup@CCondTarget@@QAEXAAVCStringArray@@V?$CStringT@DV?$StrTraitMFC_DLL@DV?$ChTraitsCRT@D@ATL@@@@@ATL@@@Z$10
	DD	07H
	DD	FLAT:__unwindfunclet$?GetItemCodeFromThemeGroup@CCondTarget@@QAEXAAVCStringArray@@V?$CStringT@DV?$StrTraitMFC_DLL@DV?$ChTraitsCRT@D@ATL@@@@@ATL@@@Z$12
	DD	09H
	DD	FLAT:__unwindfunclet$?GetItemCodeFromThemeGroup@CCondTarget@@QAEXAAVCStringArray@@V?$CStringT@DV?$StrTraitMFC_DLL@DV?$ChTraitsCRT@D@ATL@@@@@ATL@@@Z$13
	DD	06H
	DD	FLAT:__unwindfunclet$?GetItemCodeFromThemeGroup@CCondTarget@@QAEXAAVCStringArray@@V?$CStringT@DV?$StrTraitMFC_DLL@DV?$ChTraitsCRT@D@ATL@@@@@ATL@@@Z$8
xdata$x	ENDS
;	COMDAT xdata$x
xdata$x	SEGMENT
__ehfuncinfo$?GetData_PortItem@CCondTarget@@QAEHAAVCStringArray@@0H@Z DD 019930522H
	DD	07H
	DD	FLAT:__unwindtable$?GetData_PortItem@CCondTarget@@QAEHAAVCStringArray@@0H@Z
	DD	2 DUP(00H)
	DD	2 DUP(00H)
	DD	00H
	DD	01H
__unwindtable$?GetData_PortItem@CCondTarget@@QAEHAAVCStringArray@@0H@Z DD 0ffffffffH
	DD	FLAT:__unwindfunclet$?GetData_PortItem@CCondTarget@@QAEHAAVCStringArray@@0H@Z$0
	DD	00H
	DD	FLAT:__unwindfunclet$?GetData_PortItem@CCondTarget@@QAEHAAVCStringArray@@0H@Z$1
	DD	01H
	DD	FLAT:__unwindfunclet$?GetData_PortItem@CCondTarget@@QAEHAAVCStringArray@@0H@Z$2
	DD	02H
	DD	FLAT:__unwindfunclet$?GetData_PortItem@CCondTarget@@QAEHAAVCStringArray@@0H@Z$3
	DD	03H
	DD	FLAT:__unwindfunclet$?GetData_PortItem@CCondTarget@@QAEHAAVCStringArray@@0H@Z$4
	DD	04H
	DD	FLAT:__unwindfunclet$?GetData_PortItem@CCondTarget@@QAEHAAVCStringArray@@0H@Z$5
	DD	05H
	DD	FLAT:__unwindfunclet$?GetData_PortItem@CCondTarget@@QAEHAAVCStringArray@@0H@Z$6
xdata$x	ENDS
;	COMDAT xdata$x
xdata$x	SEGMENT
__ehfuncinfo$?LoadTdfData@CCondTarget@@QAEXPAVCGetBackData@@@Z DD 019930522H
	DD	022H
	DD	FLAT:__unwindtable$?LoadTdfData@CCondTarget@@QAEXPAVCGetBackData@@@Z
	DD	2 DUP(00H)
	DD	2 DUP(00H)
	DD	00H
	DD	01H
__unwindtable$?LoadTdfData@CCondTarget@@QAEXPAVCGetBackData@@@Z DD 0ffffffffH
	DD	FLAT:__unwindfunclet$?LoadTdfData@CCondTarget@@QAEXPAVCGetBackData@@@Z$0
	DD	00H
	DD	FLAT:__unwindfunclet$?LoadTdfData@CCondTarget@@QAEXPAVCGetBackData@@@Z$1
	DD	01H
	DD	FLAT:__unwindfunclet$?LoadTdfData@CCondTarget@@QAEXPAVCGetBackData@@@Z$2
	DD	02H
	DD	FLAT:__unwindfunclet$?LoadTdfData@CCondTarget@@QAEXPAVCGetBackData@@@Z$3
	DD	02H
	DD	FLAT:__unwindfunclet$?LoadTdfData@CCondTarget@@QAEXPAVCGetBackData@@@Z$4
	DD	04H
	DD	FLAT:__unwindfunclet$?LoadTdfData@CCondTarget@@QAEXPAVCGetBackData@@@Z$5
	DD	05H
	DD	FLAT:__unwindfunclet$?LoadTdfData@CCondTarget@@QAEXPAVCGetBackData@@@Z$6
	DD	06H
	DD	FLAT:__unwindfunclet$?LoadTdfData@CCondTarget@@QAEXPAVCGetBackData@@@Z$7
	DD	05H
	DD	FLAT:__unwindfunclet$?LoadTdfData@CCondTarget@@QAEXPAVCGetBackData@@@Z$9
	DD	08H
	DD	FLAT:__unwindfunclet$?LoadTdfData@CCondTarget@@QAEXPAVCGetBackData@@@Z$10
	DD	05H
	DD	FLAT:__unwindfunclet$?LoadTdfData@CCondTarget@@QAEXPAVCGetBackData@@@Z$12
	DD	0aH
	DD	FLAT:__unwindfunclet$?LoadTdfData@CCondTarget@@QAEXPAVCGetBackData@@@Z$13
	DD	05H
	DD	FLAT:__unwindfunclet$?LoadTdfData@CCondTarget@@QAEXPAVCGetBackData@@@Z$15
	DD	0cH
	DD	FLAT:__unwindfunclet$?LoadTdfData@CCondTarget@@QAEXPAVCGetBackData@@@Z$16
	DD	05H
	DD	FLAT:__unwindfunclet$?LoadTdfData@CCondTarget@@QAEXPAVCGetBackData@@@Z$18
	DD	0eH
	DD	FLAT:__unwindfunclet$?LoadTdfData@CCondTarget@@QAEXPAVCGetBackData@@@Z$19
	DD	05H
	DD	FLAT:__unwindfunclet$?LoadTdfData@CCondTarget@@QAEXPAVCGetBackData@@@Z$21
	DD	010H
	DD	FLAT:__unwindfunclet$?LoadTdfData@CCondTarget@@QAEXPAVCGetBackData@@@Z$22
	DD	05H
	DD	FLAT:__unwindfunclet$?LoadTdfData@CCondTarget@@QAEXPAVCGetBackData@@@Z$24
	DD	012H
	DD	FLAT:__unwindfunclet$?LoadTdfData@CCondTarget@@QAEXPAVCGetBackData@@@Z$25
	DD	05H
	DD	FLAT:__unwindfunclet$?LoadTdfData@CCondTarget@@QAEXPAVCGetBackData@@@Z$27
	DD	014H
	DD	FLAT:__unwindfunclet$?LoadTdfData@CCondTarget@@QAEXPAVCGetBackData@@@Z$28
	DD	05H
	DD	FLAT:__unwindfunclet$?LoadTdfData@CCondTarget@@QAEXPAVCGetBackData@@@Z$30
	DD	016H
	DD	FLAT:__unwindfunclet$?LoadTdfData@CCondTarget@@QAEXPAVCGetBackData@@@Z$31
	DD	05H
	DD	FLAT:__unwindfunclet$?LoadTdfData@CCondTarget@@QAEXPAVCGetBackData@@@Z$33
	DD	018H
	DD	FLAT:__unwindfunclet$?LoadTdfData@CCondTarget@@QAEXPAVCGetBackData@@@Z$34
	DD	05H
	DD	FLAT:__unwindfunclet$?LoadTdfData@CCondTarget@@QAEXPAVCGetBackData@@@Z$36
	DD	01aH
	DD	FLAT:__unwindfunclet$?LoadTdfData@CCondTarget@@QAEXPAVCGetBackData@@@Z$37
	DD	05H
	DD	FLAT:__unwindfunclet$?LoadTdfData@CCondTarget@@QAEXPAVCGetBackData@@@Z$39
	DD	01cH
	DD	FLAT:__unwindfunclet$?LoadTdfData@CCondTarget@@QAEXPAVCGetBackData@@@Z$40
	DD	05H
	DD	FLAT:__unwindfunclet$?LoadTdfData@CCondTarget@@QAEXPAVCGetBackData@@@Z$42
	DD	01eH
	DD	FLAT:__unwindfunclet$?LoadTdfData@CCondTarget@@QAEXPAVCGetBackData@@@Z$43
	DD	05H
	DD	FLAT:__unwindfunclet$?LoadTdfData@CCondTarget@@QAEXPAVCGetBackData@@@Z$45
	DD	020H
	DD	FLAT:__unwindfunclet$?LoadTdfData@CCondTarget@@QAEXPAVCGetBackData@@@Z$46
xdata$x	ENDS
;	COMDAT xdata$x
xdata$x	SEGMENT
__unwindtable$?SetGetBackData@CCondTarget@@QAEPAVCGetBackData@@V?$CStringT@DV?$StrTraitMFC_DLL@DV?$ChTraitsCRT@D@ATL@@@@@ATL@@@Z DD 0ffffffffH
	DD	FLAT:__unwindfunclet$?SetGetBackData@CCondTarget@@QAEPAVCGetBackData@@V?$CStringT@DV?$StrTraitMFC_DLL@DV?$ChTraitsCRT@D@ATL@@@@@ATL@@@Z$0
	DD	00H
	DD	FLAT:__unwindfunclet$?SetGetBackData@CCondTarget@@QAEPAVCGetBackData@@V?$CStringT@DV?$StrTraitMFC_DLL@DV?$ChTraitsCRT@D@ATL@@@@@ATL@@@Z$1
	DD	01H
	DD	FLAT:__unwindfunclet$?SetGetBackData@CCondTarget@@QAEPAVCGetBackData@@V?$CStringT@DV?$StrTraitMFC_DLL@DV?$ChTraitsCRT@D@ATL@@@@@ATL@@@Z$3
	DD	02H
	DD	FLAT:__unwindfunclet$?SetGetBackData@CCondTarget@@QAEPAVCGetBackData@@V?$CStringT@DV?$StrTraitMFC_DLL@DV?$ChTraitsCRT@D@ATL@@@@@ATL@@@Z$4
__ehfuncinfo$?SetGetBackData@CCondTarget@@QAEPAVCGetBackData@@V?$CStringT@DV?$StrTraitMFC_DLL@DV?$ChTraitsCRT@D@ATL@@@@@ATL@@@Z DD 019930522H
	DD	04H
	DD	FLAT:__unwindtable$?SetGetBackData@CCondTarget@@QAEPAVCGetBackData@@V?$CStringT@DV?$StrTraitMFC_DLL@DV?$ChTraitsCRT@D@ATL@@@@@ATL@@@Z
	DD	2 DUP(00H)
	DD	2 DUP(00H)
	DD	00H
	DD	01H
xdata$x	ENDS
;	COMDAT xdata$x
xdata$x	SEGMENT
__unwindtable$??_G?$CMap@HHPAVCGetBackData@@PAV1@@@UAEPAXI@Z DD 0ffffffffH
	DD	FLAT:___std_terminate
__ehfuncinfo$??_G?$CMap@HHPAVCGetBackData@@PAV1@@@UAEPAXI@Z DD 019930522H
	DD	01H
	DD	FLAT:__unwindtable$??_G?$CMap@HHPAVCGetBackData@@PAV1@@@UAEPAXI@Z
	DD	2 DUP(00H)
	DD	2 DUP(00H)
	DD	00H
	DD	05H
xdata$x	ENDS
;	COMDAT xdata$x
xdata$x	SEGMENT
__ehfuncinfo$??1?$CMap@HHPAVCGetBackData@@PAV1@@@UAE@XZ DD 019930522H
	DD	00H
	DD	00H
	DD	2 DUP(00H)
	DD	2 DUP(00H)
	DD	00H
	DD	05H
xdata$x	ENDS
;	COMDAT xdata$x
xdata$x	SEGMENT
__ehfuncinfo$?SetEditSubjectTarGetBit@CCondTarget@@QAEXXZ DD 019930522H
	DD	07H
	DD	FLAT:__unwindtable$?SetEditSubjectTarGetBit@CCondTarget@@QAEXXZ
	DD	2 DUP(00H)
	DD	2 DUP(00H)
	DD	00H
	DD	01H
__unwindtable$?SetEditSubjectTarGetBit@CCondTarget@@QAEXXZ DD 0ffffffffH
	DD	FLAT:__unwindfunclet$?SetEditSubjectTarGetBit@CCondTarget@@QAEXXZ$0
	DD	00H
	DD	FLAT:__unwindfunclet$?SetEditSubjectTarGetBit@CCondTarget@@QAEXXZ$1
	DD	01H
	DD	FLAT:__unwindfunclet$?SetEditSubjectTarGetBit@CCondTarget@@QAEXXZ$2
	DD	02H
	DD	FLAT:__unwindfunclet$?SetEditSubjectTarGetBit@CCondTarget@@QAEXXZ$4
	DD	03H
	DD	FLAT:__unwindfunclet$?SetEditSubjectTarGetBit@CCondTarget@@QAEXXZ$5
	DD	04H
	DD	FLAT:__unwindfunclet$?SetEditSubjectTarGetBit@CCondTarget@@QAEXXZ$6
	DD	05H
	DD	FLAT:__unwindfunclet$?SetEditSubjectTarGetBit@CCondTarget@@QAEXXZ$7
xdata$x	ENDS
;	COMDAT xdata$x
xdata$x	SEGMENT
__unwindtable$?ReceiveData@CCondTarget@@QAEXPAXJ@Z DD 0ffffffffH
	DD	FLAT:__unwindfunclet$?ReceiveData@CCondTarget@@QAEXPAXJ@Z$0
	DD	00H
	DD	FLAT:__unwindfunclet$?ReceiveData@CCondTarget@@QAEXPAXJ@Z$1
	DD	01H
	DD	FLAT:__unwindfunclet$?ReceiveData@CCondTarget@@QAEXPAXJ@Z$2
__ehfuncinfo$?ReceiveData@CCondTarget@@QAEXPAXJ@Z DD 019930522H
	DD	03H
	DD	FLAT:__unwindtable$?ReceiveData@CCondTarget@@QAEXPAXJ@Z
	DD	2 DUP(00H)
	DD	2 DUP(00H)
	DD	00H
	DD	01H
xdata$x	ENDS
;	COMDAT xdata$x
xdata$x	SEGMENT
__unwindtable$??1CCondTarget@@UAE@XZ DD 0ffffffffH
	DD	FLAT:___std_terminate
__ehfuncinfo$??1CCondTarget@@UAE@XZ DD 019930522H
	DD	01H
	DD	FLAT:__unwindtable$??1CCondTarget@@UAE@XZ
	DD	2 DUP(00H)
	DD	2 DUP(00H)
	DD	00H
	DD	05H
xdata$x	ENDS
;	COMDAT xdata$x
xdata$x	SEGMENT
__ehfuncinfo$??0CCondTarget@@QAE@XZ DD 019930522H
	DD	017H
	DD	FLAT:__unwindtable$??0CCondTarget@@QAE@XZ
	DD	2 DUP(00H)
	DD	2 DUP(00H)
	DD	00H
	DD	01H
__unwindtable$??0CCondTarget@@QAE@XZ DD 0ffffffffH
	DD	FLAT:__unwindfunclet$??0CCondTarget@@QAE@XZ$0
	DD	00H
	DD	FLAT:__unwindfunclet$??0CCondTarget@@QAE@XZ$1
	DD	01H
	DD	FLAT:__unwindfunclet$??0CCondTarget@@QAE@XZ$2
	DD	02H
	DD	FLAT:__unwindfunclet$??0CCondTarget@@QAE@XZ$3
	DD	03H
	DD	FLAT:__unwindfunclet$??0CCondTarget@@QAE@XZ$4
	DD	04H
	DD	FLAT:__unwindfunclet$??0CCondTarget@@QAE@XZ$5
	DD	05H
	DD	FLAT:__unwindfunclet$??0CCondTarget@@QAE@XZ$6
	DD	06H
	DD	FLAT:__unwindfunclet$??0CCondTarget@@QAE@XZ$7
	DD	07H
	DD	FLAT:__unwindfunclet$??0CCondTarget@@QAE@XZ$8
	DD	08H
	DD	FLAT:__unwindfunclet$??0CCondTarget@@QAE@XZ$9
	DD	09H
	DD	FLAT:__unwindfunclet$??0CCondTarget@@QAE@XZ$10
	DD	0aH
	DD	FLAT:__unwindfunclet$??0CCondTarget@@QAE@XZ$11
	DD	0bH
	DD	FLAT:__unwindfunclet$??0CCondTarget@@QAE@XZ$12
	DD	0cH
	DD	FLAT:__unwindfunclet$??0CCondTarget@@QAE@XZ$13
	DD	0dH
	DD	FLAT:__unwindfunclet$??0CCondTarget@@QAE@XZ$14
	DD	0eH
	DD	FLAT:__unwindfunclet$??0CCondTarget@@QAE@XZ$15
	DD	0fH
	DD	FLAT:__unwindfunclet$??0CCondTarget@@QAE@XZ$16
	DD	010H
	DD	FLAT:__unwindfunclet$??0CCondTarget@@QAE@XZ$17
	DD	010H
	DD	FLAT:__unwindfunclet$??0CCondTarget@@QAE@XZ$22
	DD	010H
	DD	FLAT:__unwindfunclet$??0CCondTarget@@QAE@XZ$18
	DD	010H
	DD	FLAT:__unwindfunclet$??0CCondTarget@@QAE@XZ$19
	DD	010H
	DD	FLAT:__unwindfunclet$??0CCondTarget@@QAE@XZ$20
	DD	010H
	DD	FLAT:__unwindfunclet$??0CCondTarget@@QAE@XZ$21
xdata$x	ENDS
;	COMDAT xdata$x
xdata$x	SEGMENT
__unwindtable$??0CGetBackData@@QAE@V?$CStringT@DV?$StrTraitMFC_DLL@DV?$ChTraitsCRT@D@ATL@@@@@ATL@@H@Z DD 0ffffffffH
	DD	FLAT:__unwindfunclet$??0CGetBackData@@QAE@V?$CStringT@DV?$StrTraitMFC_DLL@DV?$ChTraitsCRT@D@ATL@@@@@ATL@@H@Z$0
	DD	00H
	DD	FLAT:__unwindfunclet$??0CGetBackData@@QAE@V?$CStringT@DV?$StrTraitMFC_DLL@DV?$ChTraitsCRT@D@ATL@@@@@ATL@@H@Z$1
__ehfuncinfo$??0CGetBackData@@QAE@V?$CStringT@DV?$StrTraitMFC_DLL@DV?$ChTraitsCRT@D@ATL@@@@@ATL@@H@Z DD 019930522H
	DD	02H
	DD	FLAT:__unwindtable$??0CGetBackData@@QAE@V?$CStringT@DV?$StrTraitMFC_DLL@DV?$ChTraitsCRT@D@ATL@@@@@ATL@@H@Z
	DD	2 DUP(00H)
	DD	2 DUP(00H)
	DD	00H
	DD	01H
xdata$x	ENDS
;	COMDAT xdata$x
xdata$x	SEGMENT
__ehfuncinfo$??_Estringdispid@CComTypeInfoHolder@ATL@@QAEPAXI@Z DD 019930522H
	DD	00H
	DD	00H
	DD	2 DUP(00H)
	DD	2 DUP(00H)
	DD	00H
	DD	05H
xdata$x	ENDS
;	COMDAT xdata$x
xdata$x	SEGMENT
__unwindtable$?AfxGetPctrInterface@@YGJH@Z DD 0ffffffffH
	DD	FLAT:__unwindfunclet$?AfxGetPctrInterface@@YGJH@Z$0
__ehfuncinfo$?AfxGetPctrInterface@@YGJH@Z DD 019930522H
	DD	01H
	DD	FLAT:__unwindtable$?AfxGetPctrInterface@@YGJH@Z
	DD	2 DUP(00H)
	DD	2 DUP(00H)
	DD	00H
	DD	01H
xdata$x	ENDS
CRT$XCU	SEGMENT
?RMSG_INTERFACE$initializer$@@3P6AXXZA DD FLAT:??__ERMSG_INTERFACE@@YAXXZ ; RMSG_INTERFACE$initializer$
CRT$XCU	ENDS
CRT$XCU	SEGMENT
?RMSG_REPLAY_REAL$initializer$@@3P6AXXZA DD FLAT:??__ERMSG_REPLAY_REAL@@YAXXZ ; RMSG_REPLAY_REAL$initializer$
CRT$XCU	ENDS
CRT$XCU	SEGMENT
?RMSG_REPLAY_FAIL$initializer$@@3P6AXXZA DD FLAT:??__ERMSG_REPLAY_FAIL@@YAXXZ ; RMSG_REPLAY_FAIL$initializer$
CRT$XCU	ENDS
CRT$XCU	SEGMENT
?RMSG_REPLAY_CHANGE_DATE$initializer$@@3P6AXXZA DD FLAT:??__ERMSG_REPLAY_CHANGE_DATE@@YAXXZ ; RMSG_REPLAY_CHANGE_DATE$initializer$
CRT$XCU	ENDS
CRT$XCU	SEGMENT
?RMSG_REPLAY_END$initializer$@@3P6AXXZA DD FLAT:??__ERMSG_REPLAY_END@@YAXXZ ; RMSG_REPLAY_END$initializer$
CRT$XCU	ENDS
CRT$XCU	SEGMENT
?RMSG_REPLAY_INC_SEC$initializer$@@3P6AXXZA DD FLAT:??__ERMSG_REPLAY_INC_SEC@@YAXXZ ; RMSG_REPLAY_INC_SEC$initializer$
CRT$XCU	ENDS
CRT$XCU	SEGMENT
?RMSG_REPLAY_TOTAL_SEC$initializer$@@3P6AXXZA DD FLAT:??__ERMSG_REPLAY_TOTAL_SEC@@YAXXZ ; RMSG_REPLAY_TOTAL_SEC$initializer$
CRT$XCU	ENDS
CRT$XCU	SEGMENT
?RMSG_GETSIGNAL_REAL$initializer$@@3P6AXXZA DD FLAT:??__ERMSG_GETSIGNAL_REAL@@YAXXZ ; RMSG_GETSIGNAL_REAL$initializer$
CRT$XCU	ENDS
CRT$XCU	SEGMENT
?RMSG_SETQUERYOPT$initializer$@@3P6AXXZA DD FLAT:??__ERMSG_SETQUERYOPT@@YAXXZ ; RMSG_SETQUERYOPT$initializer$
CRT$XCU	ENDS
CRT$XCU	SEGMENT
?RMSG_CHARTMAIN$initializer$@@3P6AXXZA DD FLAT:??__ERMSG_CHARTMAIN@@YAXXZ ; RMSG_CHARTMAIN$initializer$
CRT$XCU	ENDS
CRT$XCU	SEGMENT
?RMS_ANALYSIS_FUNC$initializer$@@3P6AXXZA DD FLAT:??__ERMS_ANALYSIS_FUNC@@YAXXZ ; RMS_ANALYSIS_FUNC$initializer$
CRT$XCU	ENDS
CRT$XCU	SEGMENT
?RMSG_GET_USERID$initializer$@@3P6AXXZA DD FLAT:??__ERMSG_GET_USERID@@YAXXZ ; RMSG_GET_USERID$initializer$
CRT$XCU	ENDS
CRT$XCU	SEGMENT
?RMSG_CHANGE_SKINCOLOR$initializer$@@3P6AXXZA DD FLAT:??__ERMSG_CHANGE_SKINCOLOR@@YAXXZ ; RMSG_CHANGE_SKINCOLOR$initializer$
CRT$XCU	ENDS
CRT$XCU	SEGMENT
?RMSG_GET_SKINCOLOR$initializer$@@3P6AXXZA DD FLAT:??__ERMSG_GET_SKINCOLOR@@YAXXZ ; RMSG_GET_SKINCOLOR$initializer$
CRT$XCU	ENDS
CRT$XCU	SEGMENT
?RMSG_CHANGEVERTSCALETYPE$initializer$@@3P6AXXZA DD FLAT:??__ERMSG_CHANGEVERTSCALETYPE@@YAXXZ ; RMSG_CHANGEVERTSCALETYPE$initializer$
CRT$XCU	ENDS
CRT$XCU	SEGMENT
?RMSG_CHANGE_CROSSLINE$initializer$@@3P6AXXZA DD FLAT:??__ERMSG_CHANGE_CROSSLINE@@YAXXZ ; RMSG_CHANGE_CROSSLINE$initializer$
CRT$XCU	ENDS
CRT$XCU	SEGMENT
?RMSG_ADD_PLATFORM_MENU$initializer$@@3P6AXXZA DD FLAT:??__ERMSG_ADD_PLATFORM_MENU@@YAXXZ ; RMSG_ADD_PLATFORM_MENU$initializer$
CRT$XCU	ENDS
CRT$XCU	SEGMENT
?RMSG_SETINITIALCHARTDATA$initializer$@@3P6AXXZA DD FLAT:??__ERMSG_SETINITIALCHARTDATA@@YAXXZ ; RMSG_SETINITIALCHARTDATA$initializer$
CRT$XCU	ENDS
CRT$XCU	SEGMENT
?RMSG_GETINFO$initializer$@@3P6AXXZA DD FLAT:??__ERMSG_GETINFO@@YAXXZ ; RMSG_GETINFO$initializer$
CRT$XCU	ENDS
CRT$XCU	SEGMENT
?RMSG_SETINFO$initializer$@@3P6AXXZA DD FLAT:??__ERMSG_SETINFO@@YAXXZ ; RMSG_SETINFO$initializer$
CRT$XCU	ENDS
; Function compile flags: /Ogtp
; File C:\Program Files (x86)\Microsoft Visual Studio\2019\Community\VC\Tools\MSVC\14.29.30133\atlmfc\include\afxtempl.h
; File C:\Program Files (x86)\Microsoft Visual Studio\2019\Community\VC\Tools\MSVC\14.29.30133\atlmfc\include\afx.inl
; File C:\Program Files (x86)\Microsoft Visual Studio\2019\Community\VC\Tools\MSVC\14.29.30133\atlmfc\include\afxtempl.h
; File C:\Program Files (x86)\Microsoft Visual Studio\2019\Community\VC\Tools\MSVC\14.29.30133\atlmfc\include\afx.inl
; File C:\Program Files (x86)\Microsoft Visual Studio\2019\Community\VC\Tools\MSVC\14.29.30133\atlmfc\include\afxtempl.h
; File C:\Program Files (x86)\Microsoft Visual Studio\2019\Community\VC\Tools\MSVC\14.29.30133\atlmfc\include\afx.inl
; File C:\Program Files (x86)\Microsoft Visual Studio\2019\Community\VC\Tools\MSVC\14.29.30133\atlmfc\include\afxtempl.h
;	COMDAT ??$SerializeElements@PAVCGetBackData@@@@YGXAAVCArchive@@PAPAVCGetBackData@@H@Z
_TEXT	SEGMENT
_ar$ = 8						; size = 4
_pElements$ = 12					; size = 4
_nCount$ = 16						; size = 4
??$SerializeElements@PAVCGetBackData@@@@YGXAAVCArchive@@PAPAVCGetBackData@@H@Z PROC ; SerializeElements<CGetBackData *>, COMDAT

; 67   : {

  00000	55		 push	 ebp
  00001	8b ec		 mov	 ebp, esp

; 68   : 	ENSURE(nCount == 0 || pElements != NULL);

  00003	8b 4d 0c	 mov	 ecx, DWORD PTR _pElements$[ebp]
  00006	53		 push	 ebx
  00007	56		 push	 esi
  00008	8b 75 10	 mov	 esi, DWORD PTR _nCount$[ebp]
  0000b	57		 push	 edi
  0000c	85 f6		 test	 esi, esi
  0000e	74 08		 je	 SHORT $LN2@SerializeE
  00010	85 c9		 test	 ecx, ecx
  00012	0f 84 89 00 00
	00		 je	 $LN34@SerializeE
$LN2@SerializeE:
; File C:\Program Files (x86)\Microsoft Visual Studio\2019\Community\VC\Tools\MSVC\14.29.30133\atlmfc\include\afx.inl

; 212  : 	{ return (m_nMode & CArchive::load) == 0; }

  00018	8b 55 08	 mov	 edx, DWORD PTR _ar$[ebp]
  0001b	8b 42 18	 mov	 eax, DWORD PTR [edx+24]
  0001e	f7 d0		 not	 eax
  00020	a8 01		 test	 al, 1
; File C:\Program Files (x86)\Microsoft Visual Studio\2019\Community\VC\Tools\MSVC\14.29.30133\atlmfc\include\afxtempl.h

; 73   : 	if (ar.IsStoring())

  00022	74 3c		 je	 SHORT $LN10@SerializeE

; 74   : 	{
; 75   : 		TYPE* pData;
; 76   : 		UINT_PTR nElementsLeft;
; 77   : 
; 78   : 		nElementsLeft = nCount;
; 79   : 		pData = pElements;
; 80   : 		while( nElementsLeft > 0 )

  00024	85 f6		 test	 esi, esi
  00026	74 31		 je	 SHORT $LN8@SerializeE
  00028	0f 1f 84 00 00
	00 00 00	 npad	 8
$LL5@SerializeE:

; 81   : 		{
; 82   : 			UINT nElementsToWrite;
; 83   : 
; 84   : 			nElementsToWrite = UINT(__min(nElementsLeft, INT_MAX/sizeof(TYPE)));

  00030	bb ff ff ff 1f	 mov	 ebx, 536870911		; 1fffffffH
  00035	3b f3		 cmp	 esi, ebx
  00037	0f 42 de	 cmovb	 ebx, esi

; 85   : 			ar.Write(pData, nElementsToWrite*sizeof(TYPE));

  0003a	8d 3c 9d 00 00
	00 00		 lea	 edi, DWORD PTR [ebx*4]
  00041	57		 push	 edi
  00042	51		 push	 ecx
  00043	8b ca		 mov	 ecx, edx
  00045	e8 00 00 00 00	 call	 ?Write@CArchive@@QAEXPBXI@Z ; CArchive::Write

; 86   : 			nElementsLeft -= nElementsToWrite;
; 87   : 			pData += nElementsToWrite;

  0004a	8b 4d 0c	 mov	 ecx, DWORD PTR _pElements$[ebp]
  0004d	8b 55 08	 mov	 edx, DWORD PTR _ar$[ebp]
  00050	03 cf		 add	 ecx, edi
  00052	89 4d 0c	 mov	 DWORD PTR _pElements$[ebp], ecx
  00055	2b f3		 sub	 esi, ebx
  00057	75 d7		 jne	 SHORT $LL5@SerializeE
$LN8@SerializeE:
  00059	5f		 pop	 edi

; 105  : 		}
; 106  : 	}
; 107  : }

  0005a	5e		 pop	 esi
  0005b	5b		 pop	 ebx
  0005c	5d		 pop	 ebp
  0005d	c2 0c 00	 ret	 12			; 0000000cH
$LN10@SerializeE:

; 97   : 		while( nElementsLeft > 0 )

  00060	85 f6		 test	 esi, esi
  00062	74 f5		 je	 SHORT $LN8@SerializeE
$LL7@SerializeE:

; 98   : 		{
; 99   : 			UINT nElementsToRead;
; 100  : 
; 101  : 			nElementsToRead = UINT(__min(nElementsLeft, INT_MAX/sizeof(TYPE)));

  00064	bf ff ff ff 1f	 mov	 edi, 536870911		; 1fffffffH
  00069	3b f7		 cmp	 esi, edi
  0006b	0f 42 fe	 cmovb	 edi, esi

; 102  : 			ar.EnsureRead(pData, nElementsToRead*sizeof(TYPE));

  0006e	8d 1c bd 00 00
	00 00		 lea	 ebx, DWORD PTR [edi*4]
; File C:\Program Files (x86)\Microsoft Visual Studio\2019\Community\VC\Tools\MSVC\14.29.30133\atlmfc\include\afx.inl

; 399  : 	UINT nRead=Read(lpBuf, nCount);

  00075	53		 push	 ebx
  00076	51		 push	 ecx
  00077	8b ca		 mov	 ecx, edx
  00079	e8 00 00 00 00	 call	 ?Read@CArchive@@QAEIPAXI@Z ; CArchive::Read

; 400  : 	if(nRead!=nCount)

  0007e	3b c3		 cmp	 eax, ebx
  00080	75 16		 jne	 SHORT $LN23@SerializeE
; File C:\Program Files (x86)\Microsoft Visual Studio\2019\Community\VC\Tools\MSVC\14.29.30133\atlmfc\include\afxtempl.h

; 97   : 		while( nElementsLeft > 0 )

  00082	8b 4d 0c	 mov	 ecx, DWORD PTR _pElements$[ebp]
  00085	8b 55 08	 mov	 edx, DWORD PTR _ar$[ebp]

; 103  : 			nElementsLeft -= nElementsToRead;
; 104  : 			pData += nElementsToRead;

  00088	03 cb		 add	 ecx, ebx
  0008a	89 4d 0c	 mov	 DWORD PTR _pElements$[ebp], ecx
  0008d	2b f7		 sub	 esi, edi
  0008f	75 d3		 jne	 SHORT $LL7@SerializeE

; 105  : 		}
; 106  : 	}
; 107  : }

  00091	5f		 pop	 edi
  00092	5e		 pop	 esi
  00093	5b		 pop	 ebx
  00094	5d		 pop	 ebp
  00095	c2 0c 00	 ret	 12			; 0000000cH
$LN23@SerializeE:
; File C:\Program Files (x86)\Microsoft Visual Studio\2019\Community\VC\Tools\MSVC\14.29.30133\atlmfc\include\afx.inl

; 402  : 		AfxThrowArchiveException(CArchiveException::endOfFile);

  00098	6a 00		 push	 0
  0009a	6a 03		 push	 3
  0009c	e8 00 00 00 00	 call	 ?AfxThrowArchiveException@@YGXHPBD@Z ; AfxThrowArchiveException
$LN34@SerializeE:
; File C:\Program Files (x86)\Microsoft Visual Studio\2019\Community\VC\Tools\MSVC\14.29.30133\atlmfc\include\afxtempl.h

; 68   : 	ENSURE(nCount == 0 || pElements != NULL);

  000a1	e8 00 00 00 00	 call	 ?AfxThrowInvalidArgException@@YGXXZ ; AfxThrowInvalidArgException
$LN32@SerializeE:
  000a6	cc		 int	 3
??$SerializeElements@PAVCGetBackData@@@@YGXAAVCArchive@@PAPAVCGetBackData@@H@Z ENDP ; SerializeElements<CGetBackData *>
_TEXT	ENDS
; Function compile flags: /Ogtp
; File C:\Program Files (x86)\Microsoft Visual Studio\2019\Community\VC\Tools\MSVC\14.29.30133\atlmfc\include\afxtempl.h
;	COMDAT ??$CompareElements@HH@@YGHPBH0@Z
_TEXT	SEGMENT
_pElement1$ = 8						; size = 4
_pElement2$ = 12					; size = 4
??$CompareElements@HH@@YGHPBH0@Z PROC			; CompareElements<int,int>, COMDAT

; 151  : {

  00000	55		 push	 ebp
  00001	8b ec		 mov	 ebp, esp

; 152  : 	ENSURE(pElement1 != NULL && pElement2 != NULL);

  00003	8b 4d 08	 mov	 ecx, DWORD PTR _pElement1$[ebp]
  00006	85 c9		 test	 ecx, ecx
  00008	74 14		 je	 SHORT $LN7@CompareEle
  0000a	8b 55 0c	 mov	 edx, DWORD PTR _pElement2$[ebp]
  0000d	85 d2		 test	 edx, edx
  0000f	74 0d		 je	 SHORT $LN7@CompareEle

; 153  : 	ASSERT(AfxIsValidAddress(pElement1, sizeof(TYPE), FALSE));
; 154  : 	ASSERT(AfxIsValidAddress(pElement2, sizeof(ARG_TYPE), FALSE));
; 155  : 
; 156  : 	return *pElement1 == *pElement2;

  00011	8b 09		 mov	 ecx, DWORD PTR [ecx]
  00013	33 c0		 xor	 eax, eax
  00015	3b 0a		 cmp	 ecx, DWORD PTR [edx]
  00017	0f 94 c0	 sete	 al

; 157  : }

  0001a	5d		 pop	 ebp
  0001b	c2 08 00	 ret	 8
$LN7@CompareEle:

; 152  : 	ENSURE(pElement1 != NULL && pElement2 != NULL);

  0001e	e8 00 00 00 00	 call	 ?AfxThrowInvalidArgException@@YGXXZ ; AfxThrowInvalidArgException
$LN10@CompareEle:
  00023	cc		 int	 3
??$CompareElements@HH@@YGHPBH0@Z ENDP			; CompareElements<int,int>
_TEXT	ENDS
; Function compile flags: /Ogtp
; File C:\Program Files (x86)\Microsoft Visual Studio\2019\Community\VC\Tools\MSVC\14.29.30133\atlmfc\include\afxtempl.h
; File C:\Program Files (x86)\Microsoft Visual Studio\2019\Community\VC\Tools\MSVC\14.29.30133\atlmfc\include\afx.inl
; File C:\Program Files (x86)\Microsoft Visual Studio\2019\Community\VC\Tools\MSVC\14.29.30133\atlmfc\include\afxtempl.h
; File C:\Program Files (x86)\Microsoft Visual Studio\2019\Community\VC\Tools\MSVC\14.29.30133\atlmfc\include\afx.inl
; File C:\Program Files (x86)\Microsoft Visual Studio\2019\Community\VC\Tools\MSVC\14.29.30133\atlmfc\include\afxtempl.h
; File C:\Program Files (x86)\Microsoft Visual Studio\2019\Community\VC\Tools\MSVC\14.29.30133\atlmfc\include\afx.inl
; File C:\Program Files (x86)\Microsoft Visual Studio\2019\Community\VC\Tools\MSVC\14.29.30133\atlmfc\include\afxtempl.h
;	COMDAT ??$SerializeElements@H@@YGXAAVCArchive@@PAHH@Z
_TEXT	SEGMENT
_ar$ = 8						; size = 4
_pElements$ = 12					; size = 4
_nCount$ = 16						; size = 4
??$SerializeElements@H@@YGXAAVCArchive@@PAHH@Z PROC	; SerializeElements<int>, COMDAT

; 67   : {

  00000	55		 push	 ebp
  00001	8b ec		 mov	 ebp, esp

; 68   : 	ENSURE(nCount == 0 || pElements != NULL);

  00003	8b 4d 0c	 mov	 ecx, DWORD PTR _pElements$[ebp]
  00006	53		 push	 ebx
  00007	56		 push	 esi
  00008	8b 75 10	 mov	 esi, DWORD PTR _nCount$[ebp]
  0000b	57		 push	 edi
  0000c	85 f6		 test	 esi, esi
  0000e	74 08		 je	 SHORT $LN2@SerializeE
  00010	85 c9		 test	 ecx, ecx
  00012	0f 84 89 00 00
	00		 je	 $LN34@SerializeE
$LN2@SerializeE:
; File C:\Program Files (x86)\Microsoft Visual Studio\2019\Community\VC\Tools\MSVC\14.29.30133\atlmfc\include\afx.inl

; 212  : 	{ return (m_nMode & CArchive::load) == 0; }

  00018	8b 55 08	 mov	 edx, DWORD PTR _ar$[ebp]
  0001b	8b 42 18	 mov	 eax, DWORD PTR [edx+24]
  0001e	f7 d0		 not	 eax
  00020	a8 01		 test	 al, 1
; File C:\Program Files (x86)\Microsoft Visual Studio\2019\Community\VC\Tools\MSVC\14.29.30133\atlmfc\include\afxtempl.h

; 73   : 	if (ar.IsStoring())

  00022	74 3c		 je	 SHORT $LN10@SerializeE

; 74   : 	{
; 75   : 		TYPE* pData;
; 76   : 		UINT_PTR nElementsLeft;
; 77   : 
; 78   : 		nElementsLeft = nCount;
; 79   : 		pData = pElements;
; 80   : 		while( nElementsLeft > 0 )

  00024	85 f6		 test	 esi, esi
  00026	74 31		 je	 SHORT $LN8@SerializeE
  00028	0f 1f 84 00 00
	00 00 00	 npad	 8
$LL5@SerializeE:

; 81   : 		{
; 82   : 			UINT nElementsToWrite;
; 83   : 
; 84   : 			nElementsToWrite = UINT(__min(nElementsLeft, INT_MAX/sizeof(TYPE)));

  00030	bb ff ff ff 1f	 mov	 ebx, 536870911		; 1fffffffH
  00035	3b f3		 cmp	 esi, ebx
  00037	0f 42 de	 cmovb	 ebx, esi

; 85   : 			ar.Write(pData, nElementsToWrite*sizeof(TYPE));

  0003a	8d 3c 9d 00 00
	00 00		 lea	 edi, DWORD PTR [ebx*4]
  00041	57		 push	 edi
  00042	51		 push	 ecx
  00043	8b ca		 mov	 ecx, edx
  00045	e8 00 00 00 00	 call	 ?Write@CArchive@@QAEXPBXI@Z ; CArchive::Write

; 86   : 			nElementsLeft -= nElementsToWrite;
; 87   : 			pData += nElementsToWrite;

  0004a	8b 4d 0c	 mov	 ecx, DWORD PTR _pElements$[ebp]
  0004d	8b 55 08	 mov	 edx, DWORD PTR _ar$[ebp]
  00050	03 cf		 add	 ecx, edi
  00052	89 4d 0c	 mov	 DWORD PTR _pElements$[ebp], ecx
  00055	2b f3		 sub	 esi, ebx
  00057	75 d7		 jne	 SHORT $LL5@SerializeE
$LN8@SerializeE:
  00059	5f		 pop	 edi

; 105  : 		}
; 106  : 	}
; 107  : }

  0005a	5e		 pop	 esi
  0005b	5b		 pop	 ebx
  0005c	5d		 pop	 ebp
  0005d	c2 0c 00	 ret	 12			; 0000000cH
$LN10@SerializeE:

; 97   : 		while( nElementsLeft > 0 )

  00060	85 f6		 test	 esi, esi
  00062	74 f5		 je	 SHORT $LN8@SerializeE
$LL7@SerializeE:

; 98   : 		{
; 99   : 			UINT nElementsToRead;
; 100  : 
; 101  : 			nElementsToRead = UINT(__min(nElementsLeft, INT_MAX/sizeof(TYPE)));

  00064	bf ff ff ff 1f	 mov	 edi, 536870911		; 1fffffffH
  00069	3b f7		 cmp	 esi, edi
  0006b	0f 42 fe	 cmovb	 edi, esi

; 102  : 			ar.EnsureRead(pData, nElementsToRead*sizeof(TYPE));

  0006e	8d 1c bd 00 00
	00 00		 lea	 ebx, DWORD PTR [edi*4]
; File C:\Program Files (x86)\Microsoft Visual Studio\2019\Community\VC\Tools\MSVC\14.29.30133\atlmfc\include\afx.inl

; 399  : 	UINT nRead=Read(lpBuf, nCount);

  00075	53		 push	 ebx
  00076	51		 push	 ecx
  00077	8b ca		 mov	 ecx, edx
  00079	e8 00 00 00 00	 call	 ?Read@CArchive@@QAEIPAXI@Z ; CArchive::Read

; 400  : 	if(nRead!=nCount)

  0007e	3b c3		 cmp	 eax, ebx
  00080	75 16		 jne	 SHORT $LN23@SerializeE
; File C:\Program Files (x86)\Microsoft Visual Studio\2019\Community\VC\Tools\MSVC\14.29.30133\atlmfc\include\afxtempl.h

; 97   : 		while( nElementsLeft > 0 )

  00082	8b 4d 0c	 mov	 ecx, DWORD PTR _pElements$[ebp]
  00085	8b 55 08	 mov	 edx, DWORD PTR _ar$[ebp]

; 103  : 			nElementsLeft -= nElementsToRead;
; 104  : 			pData += nElementsToRead;

  00088	03 cb		 add	 ecx, ebx
  0008a	89 4d 0c	 mov	 DWORD PTR _pElements$[ebp], ecx
  0008d	2b f7		 sub	 esi, edi
  0008f	75 d3		 jne	 SHORT $LL7@SerializeE

; 105  : 		}
; 106  : 	}
; 107  : }

  00091	5f		 pop	 edi
  00092	5e		 pop	 esi
  00093	5b		 pop	 ebx
  00094	5d		 pop	 ebp
  00095	c2 0c 00	 ret	 12			; 0000000cH
$LN23@SerializeE:
; File C:\Program Files (x86)\Microsoft Visual Studio\2019\Community\VC\Tools\MSVC\14.29.30133\atlmfc\include\afx.inl

; 402  : 		AfxThrowArchiveException(CArchiveException::endOfFile);

  00098	6a 00		 push	 0
  0009a	6a 03		 push	 3
  0009c	e8 00 00 00 00	 call	 ?AfxThrowArchiveException@@YGXHPBD@Z ; AfxThrowArchiveException
$LN34@SerializeE:
; File C:\Program Files (x86)\Microsoft Visual Studio\2019\Community\VC\Tools\MSVC\14.29.30133\atlmfc\include\afxtempl.h

; 68   : 	ENSURE(nCount == 0 || pElements != NULL);

  000a1	e8 00 00 00 00	 call	 ?AfxThrowInvalidArgException@@YGXXZ ; AfxThrowInvalidArgException
$LN32@SerializeE:
  000a6	cc		 int	 3
??$SerializeElements@H@@YGXAAVCArchive@@PAHH@Z ENDP	; SerializeElements<int>
_TEXT	ENDS
; Function compile flags: /Ogtp
;	COMDAT ??_GCCondTarget@@UAEPAXI@Z
_TEXT	SEGMENT
___flags$ = 8						; size = 4
??_GCCondTarget@@UAEPAXI@Z PROC				; CCondTarget::`scalar deleting destructor', COMDAT
; _this$ = ecx
  00000	55		 push	 ebp
  00001	8b ec		 mov	 ebp, esp
  00003	56		 push	 esi
  00004	8b f1		 mov	 esi, ecx
  00006	e8 00 00 00 00	 call	 ??1CCondTarget@@UAE@XZ	; CCondTarget::~CCondTarget
  0000b	f6 45 08 01	 test	 BYTE PTR ___flags$[ebp], 1
  0000f	74 0e		 je	 SHORT $LN4@scalar
  00011	68 f4 01 00 00	 push	 500			; 000001f4H
  00016	56		 push	 esi
  00017	e8 00 00 00 00	 call	 ??3@YAXPAXI@Z		; operator delete
  0001c	83 c4 08	 add	 esp, 8
$LN4@scalar:
  0001f	8b c6		 mov	 eax, esi
  00021	5e		 pop	 esi
  00022	5d		 pop	 ebp
  00023	c2 04 00	 ret	 4
??_GCCondTarget@@UAEPAXI@Z ENDP				; CCondTarget::`scalar deleting destructor'
_TEXT	ENDS
; Function compile flags: /Ogtp
; File D:\git\src\IBK\IBK_DRFN\ProjSrc\SrcDrfn\Chart\MULTICHART\CondTarget.cpp
; File C:\Program Files (x86)\Microsoft Visual Studio\2019\Community\VC\Tools\MSVC\14.29.30133\atlmfc\include\afxcoll.inl
; File D:\git\src\IBK\IBK_DRFN\ProjSrc\SrcDrfn\Chart\MULTICHART\CondTarget.cpp
; File C:\Program Files (x86)\Microsoft Visual Studio\2019\Community\VC\Tools\MSVC\14.29.30133\atlmfc\include\afxcoll.inl
; File D:\git\src\IBK\IBK_DRFN\ProjSrc\SrcDrfn\Chart\MULTICHART\CondTarget.cpp
; File C:\Program Files (x86)\Microsoft Visual Studio\2019\Community\VC\Tools\MSVC\14.29.30133\atlmfc\include\afxcoll.inl
; File D:\git\src\IBK\IBK_DRFN\ProjSrc\SrcDrfn\Chart\MULTICHART\CondTarget.cpp
;	COMDAT ?CheckTargetResult@CCondTarget@@QAEHV?$CStringT@DV?$StrTraitMFC_DLL@DV?$ChTraitsCRT@D@ATL@@@@@ATL@@@Z
_TEXT	SEGMENT
_strRet$ = -16						; size = 4
__$EHRec$ = -12						; size = 12
_strCode$ = 8						; size = 4
?CheckTargetResult@CCondTarget@@QAEHV?$CStringT@DV?$StrTraitMFC_DLL@DV?$ChTraitsCRT@D@ATL@@@@@ATL@@@Z PROC ; CCondTarget::CheckTargetResult, COMDAT
; _this$ = ecx

; 432  : {

  00000	55		 push	 ebp
  00001	8b ec		 mov	 ebp, esp
  00003	6a ff		 push	 -1
  00005	68 00 00 00 00	 push	 __ehhandler$?CheckTargetResult@CCondTarget@@QAEHV?$CStringT@DV?$StrTraitMFC_DLL@DV?$ChTraitsCRT@D@ATL@@@@@ATL@@@Z
  0000a	64 a1 00 00 00
	00		 mov	 eax, DWORD PTR fs:0
  00010	50		 push	 eax
  00011	51		 push	 ecx
  00012	53		 push	 ebx
  00013	56		 push	 esi
  00014	57		 push	 edi
  00015	a1 00 00 00 00	 mov	 eax, DWORD PTR ___security_cookie
  0001a	33 c5		 xor	 eax, ebp
  0001c	50		 push	 eax
  0001d	8d 45 f4	 lea	 eax, DWORD PTR __$EHRec$[ebp]
  00020	64 a3 00 00 00
	00		 mov	 DWORD PTR fs:0, eax
  00026	8b f9		 mov	 edi, ecx

; 433  : 	CString strRet;

  00028	8d 4d f0	 lea	 ecx, DWORD PTR _strRet$[ebp]
  0002b	c7 45 fc 00 00
	00 00		 mov	 DWORD PTR __$EHRec$[ebp+8], 0
  00032	ff 15 00 00 00
	00		 call	 DWORD PTR __imp_??0?$CStringT@DV?$StrTraitMFC_DLL@DV?$ChTraitsCRT@D@ATL@@@@@ATL@@QAE@XZ

; 434  : 	int nSize = m_arTargetResult.GetSize();

  00038	8b 5f 78	 mov	 ebx, DWORD PTR [edi+120]

; 435  : 	for (int i=0; i<nSize; i++)

  0003b	33 f6		 xor	 esi, esi
  0003d	c6 45 fc 01	 mov	 BYTE PTR __$EHRec$[ebp+8], 1
  00041	85 db		 test	 ebx, ebx
  00043	7e 2e		 jle	 SHORT $LN3@CheckTarge
$LL4@CheckTarge:
; File C:\Program Files (x86)\Microsoft Visual Studio\2019\Community\VC\Tools\MSVC\14.29.30133\atlmfc\include\afxcoll.inl

; 289  : 		if( nIndex < 0 || nIndex >= m_nSize )

  00045	85 f6		 test	 esi, esi
  00047	78 5b		 js	 SHORT $LN12@CheckTarge
  00049	3b 77 78	 cmp	 esi, DWORD PTR [edi+120]
  0004c	7d 56		 jge	 SHORT $LN12@CheckTarge

; 291  : 		return m_pData[nIndex]; }

  0004e	8b 47 74	 mov	 eax, DWORD PTR [edi+116]
; File D:\git\src\IBK\IBK_DRFN\ProjSrc\SrcDrfn\Chart\MULTICHART\CondTarget.cpp

; 437  : 		strRet = m_arTargetResult.GetAt(i);

  00051	8d 4d f0	 lea	 ecx, DWORD PTR _strRet$[ebp]
; File C:\Program Files (x86)\Microsoft Visual Studio\2019\Community\VC\Tools\MSVC\14.29.30133\atlmfc\include\afxcoll.inl

; 291  : 		return m_pData[nIndex]; }

  00054	8d 04 b0	 lea	 eax, DWORD PTR [eax+esi*4]
; File D:\git\src\IBK\IBK_DRFN\ProjSrc\SrcDrfn\Chart\MULTICHART\CondTarget.cpp

; 437  : 		strRet = m_arTargetResult.GetAt(i);

  00057	50		 push	 eax
  00058	ff 15 00 00 00
	00		 call	 DWORD PTR __imp_??4?$CStringT@DV?$StrTraitMFC_DLL@DV?$ChTraitsCRT@D@ATL@@@@@ATL@@QAEAAV01@ABV01@@Z

; 438  : 		if (strRet.CompareNoCase(strCode) == 0)

  0005e	ff 75 08	 push	 DWORD PTR _strCode$[ebp]
  00061	8d 4d f0	 lea	 ecx, DWORD PTR _strRet$[ebp]
  00064	ff 15 00 00 00
	00		 call	 DWORD PTR __imp_?CompareNoCase@?$CStringT@DV?$StrTraitMFC_DLL@DV?$ChTraitsCRT@D@ATL@@@@@ATL@@QBEHPBD@Z
  0006a	85 c0		 test	 eax, eax
  0006c	74 2f		 je	 SHORT $LN19@CheckTarge

; 435  : 	for (int i=0; i<nSize; i++)

  0006e	46		 inc	 esi
  0006f	3b f3		 cmp	 esi, ebx
  00071	7c d2		 jl	 SHORT $LL4@CheckTarge
$LN3@CheckTarge:

; 439  : 			return TRUE;
; 440  : 	}
; 441  : 
; 442  : 	return FALSE;

  00073	33 f6		 xor	 esi, esi
$LN9@CheckTarge:
  00075	8d 4d f0	 lea	 ecx, DWORD PTR _strRet$[ebp]
  00078	ff 15 00 00 00
	00		 call	 DWORD PTR __imp_??1?$CStringT@DV?$StrTraitMFC_DLL@DV?$ChTraitsCRT@D@ATL@@@@@ATL@@QAE@XZ
  0007e	8d 4d 08	 lea	 ecx, DWORD PTR _strCode$[ebp]
  00081	ff 15 00 00 00
	00		 call	 DWORD PTR __imp_??1?$CStringT@DV?$StrTraitMFC_DLL@DV?$ChTraitsCRT@D@ATL@@@@@ATL@@QAE@XZ
  00087	8b c6		 mov	 eax, esi

; 443  : }

  00089	8b 4d f4	 mov	 ecx, DWORD PTR __$EHRec$[ebp]
  0008c	64 89 0d 00 00
	00 00		 mov	 DWORD PTR fs:0, ecx
  00093	59		 pop	 ecx
  00094	5f		 pop	 edi
  00095	5e		 pop	 esi
  00096	5b		 pop	 ebx
  00097	8b e5		 mov	 esp, ebp
  00099	5d		 pop	 ebp
  0009a	c2 04 00	 ret	 4
$LN19@CheckTarge:
  0009d	be 01 00 00 00	 mov	 esi, 1
  000a2	eb d1		 jmp	 SHORT $LN9@CheckTarge
$LN12@CheckTarge:
; File C:\Program Files (x86)\Microsoft Visual Studio\2019\Community\VC\Tools\MSVC\14.29.30133\atlmfc\include\afxcoll.inl

; 290  : 			AfxThrowInvalidArgException();

  000a4	e8 00 00 00 00	 call	 ?AfxThrowInvalidArgException@@YGXXZ ; AfxThrowInvalidArgException
$LN24@CheckTarge:
  000a9	cc		 int	 3
_TEXT	ENDS
;	COMDAT text$x
text$x	SEGMENT
__unwindfunclet$?CheckTargetResult@CCondTarget@@QAEHV?$CStringT@DV?$StrTraitMFC_DLL@DV?$ChTraitsCRT@D@ATL@@@@@ATL@@@Z$0:
  00000	8d 4d 08	 lea	 ecx, DWORD PTR _strCode$[ebp]
  00003	ff 25 00 00 00
	00		 jmp	 DWORD PTR __imp_??1?$CStringT@DV?$StrTraitMFC_DLL@DV?$ChTraitsCRT@D@ATL@@@@@ATL@@QAE@XZ
__unwindfunclet$?CheckTargetResult@CCondTarget@@QAEHV?$CStringT@DV?$StrTraitMFC_DLL@DV?$ChTraitsCRT@D@ATL@@@@@ATL@@@Z$1:
  00009	8d 4d f0	 lea	 ecx, DWORD PTR _strRet$[ebp]
  0000c	ff 25 00 00 00
	00		 jmp	 DWORD PTR __imp_??1?$CStringT@DV?$StrTraitMFC_DLL@DV?$ChTraitsCRT@D@ATL@@@@@ATL@@QAE@XZ
  00012	cc		 int	 3
  00013	cc		 int	 3
  00014	cc		 int	 3
  00015	cc		 int	 3
  00016	cc		 int	 3
__ehhandler$?CheckTargetResult@CCondTarget@@QAEHV?$CStringT@DV?$StrTraitMFC_DLL@DV?$ChTraitsCRT@D@ATL@@@@@ATL@@@Z:
  00017	90		 npad	 1
  00018	90		 npad	 1
  00019	8b 54 24 08	 mov	 edx, DWORD PTR [esp+8]
  0001d	8d 42 0c	 lea	 eax, DWORD PTR [edx+12]
  00020	8b 4a ec	 mov	 ecx, DWORD PTR [edx-20]
  00023	33 c8		 xor	 ecx, eax
  00025	e8 00 00 00 00	 call	 @__security_check_cookie@4
  0002a	b8 00 00 00 00	 mov	 eax, OFFSET __ehfuncinfo$?CheckTargetResult@CCondTarget@@QAEHV?$CStringT@DV?$StrTraitMFC_DLL@DV?$ChTraitsCRT@D@ATL@@@@@ATL@@@Z
  0002f	e9 00 00 00 00	 jmp	 ___CxxFrameHandler3
text$x	ENDS
?CheckTargetResult@CCondTarget@@QAEHV?$CStringT@DV?$StrTraitMFC_DLL@DV?$ChTraitsCRT@D@ATL@@@@@ATL@@@Z ENDP ; CCondTarget::CheckTargetResult
; Function compile flags: /Ogtp
; File D:\git\src\IBK\IBK_DRFN\ProjSrc\SrcDrfn\Chart\MULTICHART\CondTarget.cpp
; File C:\Program Files (x86)\Microsoft Visual Studio\2019\Community\VC\Tools\MSVC\14.29.30133\atlmfc\include\afxcoll.inl
; File D:\git\src\IBK\IBK_DRFN\ProjSrc\SrcDrfn\Chart\MULTICHART\CondTarget.cpp
; File C:\Program Files (x86)\Microsoft Visual Studio\2019\Community\VC\Tools\MSVC\14.29.30133\atlmfc\include\afxcoll.inl
; File D:\git\src\IBK\IBK_DRFN\ProjSrc\SrcDrfn\Chart\MULTICHART\CondTarget.cpp
; File C:\Program Files (x86)\Microsoft Visual Studio\2019\Community\VC\Tools\MSVC\14.29.30133\atlmfc\include\afxcoll.inl
; File D:\git\src\IBK\IBK_DRFN\ProjSrc\SrcDrfn\Chart\MULTICHART\CondTarget.cpp
; File C:\Program Files (x86)\Microsoft Visual Studio\2019\Community\VC\Tools\MSVC\14.29.30133\atlmfc\include\afxcoll.inl
; File D:\git\src\IBK\IBK_DRFN\ProjSrc\SrcDrfn\Chart\MULTICHART\CondTarget.cpp
; File C:\Program Files (x86)\Microsoft Visual Studio\2019\Community\VC\Tools\MSVC\14.29.30133\atlmfc\include\afxcoll.inl
; File D:\git\src\IBK\IBK_DRFN\ProjSrc\SrcDrfn\Chart\MULTICHART\CondTarget.cpp
;	COMDAT ?DelSpaceInName@CCondTarget@@QAEXXZ
_TEXT	SEGMENT
$T2 = -28						; size = 4
$T3 = -28						; size = 4
$T4 = -24						; size = 4
_nSize$2$ = -20						; size = 4
_nSize$1$ = -20						; size = 4
$T5 = -20						; size = 4
$T6 = -20						; size = 4
$T7 = -20						; size = 4
_strName$ = -16						; size = 4
__$EHRec$ = -12						; size = 12
?DelSpaceInName@CCondTarget@@QAEXXZ PROC		; CCondTarget::DelSpaceInName, COMDAT
; _this$ = ecx

; 98   : {

  00000	55		 push	 ebp
  00001	8b ec		 mov	 ebp, esp
  00003	6a ff		 push	 -1
  00005	68 00 00 00 00	 push	 __ehhandler$?DelSpaceInName@CCondTarget@@QAEXXZ
  0000a	64 a1 00 00 00
	00		 mov	 eax, DWORD PTR fs:0
  00010	50		 push	 eax
  00011	83 ec 10	 sub	 esp, 16			; 00000010H
  00014	53		 push	 ebx
  00015	56		 push	 esi
  00016	57		 push	 edi
  00017	a1 00 00 00 00	 mov	 eax, DWORD PTR ___security_cookie
  0001c	33 c5		 xor	 eax, ebp
  0001e	50		 push	 eax
  0001f	8d 45 f4	 lea	 eax, DWORD PTR __$EHRec$[ebp]
  00022	64 a3 00 00 00
	00		 mov	 DWORD PTR fs:0, eax
  00028	8b f1		 mov	 esi, ecx

; 99   : 	CString strName;

  0002a	8d 4d f0	 lea	 ecx, DWORD PTR _strName$[ebp]
  0002d	ff 15 00 00 00
	00		 call	 DWORD PTR __imp_??0?$CStringT@DV?$StrTraitMFC_DLL@DV?$ChTraitsCRT@D@ATL@@@@@ATL@@QAE@XZ

; 100  : 	int nSize, i;
; 101  : 	nSize = m_arrKSPName.GetSize();

  00033	8b 46 24	 mov	 eax, DWORD PTR [esi+36]

; 102  : 	for (i=0; i<nSize; i++)

  00036	33 ff		 xor	 edi, edi
  00038	c7 45 fc 00 00
	00 00		 mov	 DWORD PTR __$EHRec$[ebp+8], 0
  0003f	89 45 ec	 mov	 DWORD PTR _nSize$1$[ebp], eax
  00042	85 c0		 test	 eax, eax
  00044	7e 58		 jle	 SHORT $LN3@DelSpaceIn
$LL4@DelSpaceIn:
; File C:\Program Files (x86)\Microsoft Visual Studio\2019\Community\VC\Tools\MSVC\14.29.30133\atlmfc\include\afxcoll.inl

; 289  : 		if( nIndex < 0 || nIndex >= m_nSize )

  00046	85 ff		 test	 edi, edi
  00048	0f 88 b8 01 00
	00		 js	 $LN30@DelSpaceIn
  0004e	3b 7e 24	 cmp	 edi, DWORD PTR [esi+36]
  00051	0f 8d af 01 00
	00		 jge	 $LN30@DelSpaceIn

; 291  : 		return m_pData[nIndex]; }

  00057	8b 46 20	 mov	 eax, DWORD PTR [esi+32]
  0005a	8d 1c bd 00 00
	00 00		 lea	 ebx, DWORD PTR [edi*4]
  00061	03 c3		 add	 eax, ebx
; File D:\git\src\IBK\IBK_DRFN\ProjSrc\SrcDrfn\Chart\MULTICHART\CondTarget.cpp

; 104  : 		strName = m_arrKSPName.GetAt(i);

  00063	8d 4d f0	 lea	 ecx, DWORD PTR _strName$[ebp]
  00066	50		 push	 eax
  00067	ff 15 00 00 00
	00		 call	 DWORD PTR __imp_??4?$CStringT@DV?$StrTraitMFC_DLL@DV?$ChTraitsCRT@D@ATL@@@@@ATL@@QAEAAV01@ABV01@@Z

; 105  : 		strName.Replace(" ", "");

  0006d	68 00 00 00 00	 push	 OFFSET ??_C@_00CNPNBAHC@@
  00072	68 00 00 00 00	 push	 OFFSET ??_C@_01CLKCMJKC@?5@
  00077	8d 4d f0	 lea	 ecx, DWORD PTR _strName$[ebp]
  0007a	ff 15 00 00 00
	00		 call	 DWORD PTR __imp_?Replace@?$CStringT@DV?$StrTraitMFC_DLL@DV?$ChTraitsCRT@D@ATL@@@@@ATL@@QAEHPBD0@Z
; File C:\Program Files (x86)\Microsoft Visual Studio\2019\Community\VC\Tools\MSVC\14.29.30133\atlmfc\include\afxcoll.inl

; 300  : 		if( nIndex < 0 || nIndex >= m_nSize )

  00080	3b 7e 24	 cmp	 edi, DWORD PTR [esi+36]
  00083	0f 8d 7d 01 00
	00		 jge	 $LN30@DelSpaceIn

; 301  : 			AfxThrowInvalidArgException();
; 302  : 		m_pData[nIndex] = newElement; }

  00089	8b 4e 20	 mov	 ecx, DWORD PTR [esi+32]
  0008c	8d 45 f0	 lea	 eax, DWORD PTR _strName$[ebp]
  0008f	50		 push	 eax
  00090	03 cb		 add	 ecx, ebx
  00092	ff 15 00 00 00
	00		 call	 DWORD PTR __imp_??4?$CStringT@DV?$StrTraitMFC_DLL@DV?$ChTraitsCRT@D@ATL@@@@@ATL@@QAEAAV01@ABV01@@Z
; File D:\git\src\IBK\IBK_DRFN\ProjSrc\SrcDrfn\Chart\MULTICHART\CondTarget.cpp

; 102  : 	for (i=0; i<nSize; i++)

  00098	47		 inc	 edi
  00099	3b 7d ec	 cmp	 edi, DWORD PTR _nSize$1$[ebp]
  0009c	7c a8		 jl	 SHORT $LL4@DelSpaceIn
$LN3@DelSpaceIn:

; 106  : 
; 107  : 		m_arrKSPName.SetAt(i, strName);
; 108  : 	}
; 109  : 
; 110  : 	nSize = m_arrKSQName.GetSize();

  0009e	8b 46 4c	 mov	 eax, DWORD PTR [esi+76]

; 111  : 	for (i=0; i<nSize; i++)

  000a1	33 ff		 xor	 edi, edi
  000a3	89 45 ec	 mov	 DWORD PTR _nSize$2$[ebp], eax
  000a6	85 c0		 test	 eax, eax
  000a8	7e 5e		 jle	 SHORT $LN6@DelSpaceIn
  000aa	66 0f 1f 44 00
	00		 npad	 6
$LL7@DelSpaceIn:
; File C:\Program Files (x86)\Microsoft Visual Studio\2019\Community\VC\Tools\MSVC\14.29.30133\atlmfc\include\afxcoll.inl

; 289  : 		if( nIndex < 0 || nIndex >= m_nSize )

  000b0	85 ff		 test	 edi, edi
  000b2	0f 88 4e 01 00
	00		 js	 $LN30@DelSpaceIn
  000b8	3b 7e 4c	 cmp	 edi, DWORD PTR [esi+76]
  000bb	0f 8d 45 01 00
	00		 jge	 $LN30@DelSpaceIn

; 291  : 		return m_pData[nIndex]; }

  000c1	8b 46 48	 mov	 eax, DWORD PTR [esi+72]
  000c4	8d 1c bd 00 00
	00 00		 lea	 ebx, DWORD PTR [edi*4]
  000cb	03 c3		 add	 eax, ebx
; File D:\git\src\IBK\IBK_DRFN\ProjSrc\SrcDrfn\Chart\MULTICHART\CondTarget.cpp

; 113  : 		strName = m_arrKSQName.GetAt(i);

  000cd	8d 4d f0	 lea	 ecx, DWORD PTR _strName$[ebp]
  000d0	50		 push	 eax
  000d1	ff 15 00 00 00
	00		 call	 DWORD PTR __imp_??4?$CStringT@DV?$StrTraitMFC_DLL@DV?$ChTraitsCRT@D@ATL@@@@@ATL@@QAEAAV01@ABV01@@Z

; 114  : 		strName.Replace(" ", "");

  000d7	68 00 00 00 00	 push	 OFFSET ??_C@_00CNPNBAHC@@
  000dc	68 00 00 00 00	 push	 OFFSET ??_C@_01CLKCMJKC@?5@
  000e1	8d 4d f0	 lea	 ecx, DWORD PTR _strName$[ebp]
  000e4	ff 15 00 00 00
	00		 call	 DWORD PTR __imp_?Replace@?$CStringT@DV?$StrTraitMFC_DLL@DV?$ChTraitsCRT@D@ATL@@@@@ATL@@QAEHPBD0@Z
; File C:\Program Files (x86)\Microsoft Visual Studio\2019\Community\VC\Tools\MSVC\14.29.30133\atlmfc\include\afxcoll.inl

; 300  : 		if( nIndex < 0 || nIndex >= m_nSize )

  000ea	3b 7e 4c	 cmp	 edi, DWORD PTR [esi+76]
  000ed	0f 8d 13 01 00
	00		 jge	 $LN30@DelSpaceIn

; 301  : 			AfxThrowInvalidArgException();
; 302  : 		m_pData[nIndex] = newElement; }

  000f3	8b 4e 48	 mov	 ecx, DWORD PTR [esi+72]
  000f6	8d 45 f0	 lea	 eax, DWORD PTR _strName$[ebp]
  000f9	50		 push	 eax
  000fa	03 cb		 add	 ecx, ebx
  000fc	ff 15 00 00 00
	00		 call	 DWORD PTR __imp_??4?$CStringT@DV?$StrTraitMFC_DLL@DV?$ChTraitsCRT@D@ATL@@@@@ATL@@QAEAAV01@ABV01@@Z
; File D:\git\src\IBK\IBK_DRFN\ProjSrc\SrcDrfn\Chart\MULTICHART\CondTarget.cpp

; 111  : 	for (i=0; i<nSize; i++)

  00102	47		 inc	 edi
  00103	3b 7d ec	 cmp	 edi, DWORD PTR _nSize$2$[ebp]
  00106	7c a8		 jl	 SHORT $LL7@DelSpaceIn
$LN6@DelSpaceIn:

; 115  : 
; 116  : 		m_arrKSQName.SetAt(i, strName);
; 117  : 	}
; 118  : 
; 119  : 	m_strKSP200Code = GetMarketCode("UMASTER", "KOSPI200");

  00108	51		 push	 ecx
  00109	8b cc		 mov	 ecx, esp
  0010b	89 65 e8	 mov	 DWORD PTR $T4[ebp], esp
  0010e	68 00 00 00 00	 push	 OFFSET ??_C@_08FPNDIEGG@KOSPI200@
  00113	ff 15 00 00 00
	00		 call	 DWORD PTR __imp_??0?$CStringT@DV?$StrTraitMFC_DLL@DV?$ChTraitsCRT@D@ATL@@@@@ATL@@QAE@PBD@Z
  00119	51		 push	 ecx
  0011a	8b cc		 mov	 ecx, esp
  0011c	c6 45 fc 01	 mov	 BYTE PTR __$EHRec$[ebp+8], 1
  00120	68 00 00 00 00	 push	 OFFSET ??_C@_07KDMDENFH@UMASTER@
  00125	ff 15 00 00 00
	00		 call	 DWORD PTR __imp_??0?$CStringT@DV?$StrTraitMFC_DLL@DV?$ChTraitsCRT@D@ATL@@@@@ATL@@QAE@PBD@Z
  0012b	8d 45 ec	 lea	 eax, DWORD PTR $T7[ebp]
  0012e	c6 45 fc 00	 mov	 BYTE PTR __$EHRec$[ebp+8], 0
  00132	50		 push	 eax
  00133	8b ce		 mov	 ecx, esi
  00135	e8 00 00 00 00	 call	 ?GetMarketCode@CCondTarget@@QAE?AV?$CStringT@DV?$StrTraitMFC_DLL@DV?$ChTraitsCRT@D@ATL@@@@@ATL@@V23@0@Z ; CCondTarget::GetMarketCode
  0013a	50		 push	 eax
  0013b	8d 4e 10	 lea	 ecx, DWORD PTR [esi+16]
  0013e	c6 45 fc 02	 mov	 BYTE PTR __$EHRec$[ebp+8], 2
  00142	ff 15 00 00 00
	00		 call	 DWORD PTR __imp_??4?$CStringT@DV?$StrTraitMFC_DLL@DV?$ChTraitsCRT@D@ATL@@@@@ATL@@QAEAAV01@ABV01@@Z
  00148	8d 4d ec	 lea	 ecx, DWORD PTR $T7[ebp]
  0014b	c6 45 fc 00	 mov	 BYTE PTR __$EHRec$[ebp+8], 0
  0014f	ff 15 00 00 00
	00		 call	 DWORD PTR __imp_??1?$CStringT@DV?$StrTraitMFC_DLL@DV?$ChTraitsCRT@D@ATL@@@@@ATL@@QAE@XZ

; 120  : 	m_strKSPCode = GetMarketCode("UMASTER", "KOSPI()");

  00155	51		 push	 ecx
  00156	8b cc		 mov	 ecx, esp
  00158	89 65 e4	 mov	 DWORD PTR $T3[ebp], esp
  0015b	68 00 00 00 00	 push	 OFFSET ??_C@_0M@DLEHNAKM@KOSPI?$CI?A?$LO?G?U?$CJ@
  00160	ff 15 00 00 00
	00		 call	 DWORD PTR __imp_??0?$CStringT@DV?$StrTraitMFC_DLL@DV?$ChTraitsCRT@D@ATL@@@@@ATL@@QAE@PBD@Z
  00166	51		 push	 ecx
  00167	8b cc		 mov	 ecx, esp
  00169	c6 45 fc 03	 mov	 BYTE PTR __$EHRec$[ebp+8], 3
  0016d	68 00 00 00 00	 push	 OFFSET ??_C@_07KDMDENFH@UMASTER@
  00172	ff 15 00 00 00
	00		 call	 DWORD PTR __imp_??0?$CStringT@DV?$StrTraitMFC_DLL@DV?$ChTraitsCRT@D@ATL@@@@@ATL@@QAE@PBD@Z
  00178	8d 45 ec	 lea	 eax, DWORD PTR $T6[ebp]
  0017b	c6 45 fc 00	 mov	 BYTE PTR __$EHRec$[ebp+8], 0
  0017f	50		 push	 eax
  00180	8b ce		 mov	 ecx, esi
  00182	e8 00 00 00 00	 call	 ?GetMarketCode@CCondTarget@@QAE?AV?$CStringT@DV?$StrTraitMFC_DLL@DV?$ChTraitsCRT@D@ATL@@@@@ATL@@V23@0@Z ; CCondTarget::GetMarketCode
  00187	50		 push	 eax
  00188	8d 4e 14	 lea	 ecx, DWORD PTR [esi+20]
  0018b	c6 45 fc 04	 mov	 BYTE PTR __$EHRec$[ebp+8], 4
  0018f	ff 15 00 00 00
	00		 call	 DWORD PTR __imp_??4?$CStringT@DV?$StrTraitMFC_DLL@DV?$ChTraitsCRT@D@ATL@@@@@ATL@@QAEAAV01@ABV01@@Z
  00195	8d 4d ec	 lea	 ecx, DWORD PTR $T6[ebp]
  00198	c6 45 fc 00	 mov	 BYTE PTR __$EHRec$[ebp+8], 0
  0019c	ff 15 00 00 00
	00		 call	 DWORD PTR __imp_??1?$CStringT@DV?$StrTraitMFC_DLL@DV?$ChTraitsCRT@D@ATL@@@@@ATL@@QAE@XZ

; 121  : 	m_strKSQCode = GetMarketCode("KUMASTER", "KOSDAQ()");

  001a2	51		 push	 ecx
  001a3	8b cc		 mov	 ecx, esp
  001a5	89 65 e4	 mov	 DWORD PTR $T2[ebp], esp
  001a8	68 00 00 00 00	 push	 OFFSET ??_C@_0N@GDNPPFAH@KOSDAQ?$CI?A?$LO?G?U?$CJ@
  001ad	ff 15 00 00 00
	00		 call	 DWORD PTR __imp_??0?$CStringT@DV?$StrTraitMFC_DLL@DV?$ChTraitsCRT@D@ATL@@@@@ATL@@QAE@PBD@Z
  001b3	51		 push	 ecx
  001b4	8b cc		 mov	 ecx, esp
  001b6	c6 45 fc 05	 mov	 BYTE PTR __$EHRec$[ebp+8], 5
  001ba	68 00 00 00 00	 push	 OFFSET ??_C@_08HMCPBLEK@KUMASTER@
  001bf	ff 15 00 00 00
	00		 call	 DWORD PTR __imp_??0?$CStringT@DV?$StrTraitMFC_DLL@DV?$ChTraitsCRT@D@ATL@@@@@ATL@@QAE@PBD@Z
  001c5	8d 45 ec	 lea	 eax, DWORD PTR $T5[ebp]
  001c8	c6 45 fc 00	 mov	 BYTE PTR __$EHRec$[ebp+8], 0
  001cc	50		 push	 eax
  001cd	8b ce		 mov	 ecx, esi
  001cf	e8 00 00 00 00	 call	 ?GetMarketCode@CCondTarget@@QAE?AV?$CStringT@DV?$StrTraitMFC_DLL@DV?$ChTraitsCRT@D@ATL@@@@@ATL@@V23@0@Z ; CCondTarget::GetMarketCode
  001d4	50		 push	 eax
  001d5	8d 4e 18	 lea	 ecx, DWORD PTR [esi+24]
  001d8	c6 45 fc 06	 mov	 BYTE PTR __$EHRec$[ebp+8], 6
  001dc	ff 15 00 00 00
	00		 call	 DWORD PTR __imp_??4?$CStringT@DV?$StrTraitMFC_DLL@DV?$ChTraitsCRT@D@ATL@@@@@ATL@@QAEAAV01@ABV01@@Z
  001e2	8d 4d ec	 lea	 ecx, DWORD PTR $T5[ebp]
  001e5	ff 15 00 00 00
	00		 call	 DWORD PTR __imp_??1?$CStringT@DV?$StrTraitMFC_DLL@DV?$ChTraitsCRT@D@ATL@@@@@ATL@@QAE@XZ

; 122  : }

  001eb	8d 4d f0	 lea	 ecx, DWORD PTR _strName$[ebp]
  001ee	ff 15 00 00 00
	00		 call	 DWORD PTR __imp_??1?$CStringT@DV?$StrTraitMFC_DLL@DV?$ChTraitsCRT@D@ATL@@@@@ATL@@QAE@XZ
  001f4	8b 4d f4	 mov	 ecx, DWORD PTR __$EHRec$[ebp]
  001f7	64 89 0d 00 00
	00 00		 mov	 DWORD PTR fs:0, ecx
  001fe	59		 pop	 ecx
  001ff	5f		 pop	 edi
  00200	5e		 pop	 esi
  00201	5b		 pop	 ebx
  00202	8b e5		 mov	 esp, ebp
  00204	5d		 pop	 ebp
  00205	c3		 ret	 0
$LN30@DelSpaceIn:
; File C:\Program Files (x86)\Microsoft Visual Studio\2019\Community\VC\Tools\MSVC\14.29.30133\atlmfc\include\afxcoll.inl

; 290  : 			AfxThrowInvalidArgException();

  00206	e8 00 00 00 00	 call	 ?AfxThrowInvalidArgException@@YGXXZ ; AfxThrowInvalidArgException
$LN49@DelSpaceIn:
  0020b	cc		 int	 3
_TEXT	ENDS
;	COMDAT text$x
text$x	SEGMENT
__unwindfunclet$?DelSpaceInName@CCondTarget@@QAEXXZ$0:
  00000	8d 4d f0	 lea	 ecx, DWORD PTR _strName$[ebp]
  00003	ff 25 00 00 00
	00		 jmp	 DWORD PTR __imp_??1?$CStringT@DV?$StrTraitMFC_DLL@DV?$ChTraitsCRT@D@ATL@@@@@ATL@@QAE@XZ
__unwindfunclet$?DelSpaceInName@CCondTarget@@QAEXXZ$1:
  00009	8b 4d e8	 mov	 ecx, DWORD PTR $T4[ebp]
  0000c	ff 25 00 00 00
	00		 jmp	 DWORD PTR __imp_??1?$CStringT@DV?$StrTraitMFC_DLL@DV?$ChTraitsCRT@D@ATL@@@@@ATL@@QAE@XZ
__unwindfunclet$?DelSpaceInName@CCondTarget@@QAEXXZ$3:
  00012	8d 4d ec	 lea	 ecx, DWORD PTR $T7[ebp]
  00015	ff 25 00 00 00
	00		 jmp	 DWORD PTR __imp_??1?$CStringT@DV?$StrTraitMFC_DLL@DV?$ChTraitsCRT@D@ATL@@@@@ATL@@QAE@XZ
__unwindfunclet$?DelSpaceInName@CCondTarget@@QAEXXZ$4:
  0001b	8b 4d e4	 mov	 ecx, DWORD PTR $T3[ebp]
  0001e	ff 25 00 00 00
	00		 jmp	 DWORD PTR __imp_??1?$CStringT@DV?$StrTraitMFC_DLL@DV?$ChTraitsCRT@D@ATL@@@@@ATL@@QAE@XZ
__unwindfunclet$?DelSpaceInName@CCondTarget@@QAEXXZ$6:
  00024	8d 4d ec	 lea	 ecx, DWORD PTR $T6[ebp]
  00027	ff 25 00 00 00
	00		 jmp	 DWORD PTR __imp_??1?$CStringT@DV?$StrTraitMFC_DLL@DV?$ChTraitsCRT@D@ATL@@@@@ATL@@QAE@XZ
__unwindfunclet$?DelSpaceInName@CCondTarget@@QAEXXZ$7:
  0002d	8b 4d e4	 mov	 ecx, DWORD PTR $T2[ebp]
  00030	ff 25 00 00 00
	00		 jmp	 DWORD PTR __imp_??1?$CStringT@DV?$StrTraitMFC_DLL@DV?$ChTraitsCRT@D@ATL@@@@@ATL@@QAE@XZ
__unwindfunclet$?DelSpaceInName@CCondTarget@@QAEXXZ$9:
  00036	8d 4d ec	 lea	 ecx, DWORD PTR $T5[ebp]
  00039	ff 25 00 00 00
	00		 jmp	 DWORD PTR __imp_??1?$CStringT@DV?$StrTraitMFC_DLL@DV?$ChTraitsCRT@D@ATL@@@@@ATL@@QAE@XZ
  0003f	cc		 int	 3
  00040	cc		 int	 3
  00041	cc		 int	 3
  00042	cc		 int	 3
  00043	cc		 int	 3
__ehhandler$?DelSpaceInName@CCondTarget@@QAEXXZ:
  00044	90		 npad	 1
  00045	90		 npad	 1
  00046	8b 54 24 08	 mov	 edx, DWORD PTR [esp+8]
  0004a	8d 42 0c	 lea	 eax, DWORD PTR [edx+12]
  0004d	8b 4a e0	 mov	 ecx, DWORD PTR [edx-32]
  00050	33 c8		 xor	 ecx, eax
  00052	e8 00 00 00 00	 call	 @__security_check_cookie@4
  00057	b8 00 00 00 00	 mov	 eax, OFFSET __ehfuncinfo$?DelSpaceInName@CCondTarget@@QAEXXZ
  0005c	e9 00 00 00 00	 jmp	 ___CxxFrameHandler3
text$x	ENDS
?DelSpaceInName@CCondTarget@@QAEXXZ ENDP		; CCondTarget::DelSpaceInName
; Function compile flags: /Ogtp
; File D:\git\src\IBK\IBK_DRFN\ProjSrc\SrcDrfn\Chart\MULTICHART\CondTarget.cpp
; File C:\Program Files (x86)\Microsoft Visual Studio\2019\Community\VC\Tools\MSVC\14.29.30133\atlmfc\include\afxcoll.inl
; File D:\git\src\IBK\IBK_DRFN\ProjSrc\SrcDrfn\Chart\MULTICHART\CondTarget.cpp
; File C:\Program Files (x86)\Microsoft Visual Studio\2019\Community\VC\Tools\MSVC\14.29.30133\atlmfc\include\afxcoll.inl
; File D:\git\src\IBK\IBK_DRFN\ProjSrc\SrcDrfn\Chart\MULTICHART\CondTarget.cpp
; File C:\Program Files (x86)\Microsoft Visual Studio\2019\Community\VC\Tools\MSVC\14.29.30133\atlmfc\include\afxcoll.inl
; File D:\git\src\IBK\IBK_DRFN\ProjSrc\SrcDrfn\Chart\MULTICHART\CondTarget.cpp
; File C:\Program Files (x86)\Microsoft Visual Studio\2019\Community\VC\Tools\MSVC\14.29.30133\atlmfc\include\afxcoll.inl
; File D:\git\src\IBK\IBK_DRFN\ProjSrc\SrcDrfn\Chart\MULTICHART\CondTarget.cpp
; File C:\Program Files (x86)\Microsoft Visual Studio\2019\Community\VC\Tools\MSVC\14.29.30133\atlmfc\include\afxcoll.inl
; File D:\git\src\IBK\IBK_DRFN\ProjSrc\SrcDrfn\Chart\MULTICHART\CondTarget.cpp
;	COMDAT ?GetMarketCode@CCondTarget@@QAE?AV?$CStringT@DV?$StrTraitMFC_DLL@DV?$ChTraitsCRT@D@ATL@@@@@ATL@@V23@0@Z
_TEXT	SEGMENT
tv327 = -28						; size = 4
tv324 = -24						; size = 4
_this$1$ = -20						; size = 4
_strCode$ = -16						; size = 4
__$EHRec$ = -12						; size = 12
___$ReturnUdt$ = 8					; size = 4
_strType$ = 12						; size = 4
_strName$ = 16						; size = 4
?GetMarketCode@CCondTarget@@QAE?AV?$CStringT@DV?$StrTraitMFC_DLL@DV?$ChTraitsCRT@D@ATL@@@@@ATL@@V23@0@Z PROC ; CCondTarget::GetMarketCode, COMDAT
; _this$ = ecx

; 447  : {

  00000	55		 push	 ebp
  00001	8b ec		 mov	 ebp, esp
  00003	6a ff		 push	 -1
  00005	68 00 00 00 00	 push	 __ehhandler$?GetMarketCode@CCondTarget@@QAE?AV?$CStringT@DV?$StrTraitMFC_DLL@DV?$ChTraitsCRT@D@ATL@@@@@ATL@@V23@0@Z
  0000a	64 a1 00 00 00
	00		 mov	 eax, DWORD PTR fs:0
  00010	50		 push	 eax
  00011	83 ec 10	 sub	 esp, 16			; 00000010H
  00014	53		 push	 ebx
  00015	56		 push	 esi
  00016	57		 push	 edi
  00017	a1 00 00 00 00	 mov	 eax, DWORD PTR ___security_cookie
  0001c	33 c5		 xor	 eax, ebp
  0001e	50		 push	 eax
  0001f	8d 45 f4	 lea	 eax, DWORD PTR __$EHRec$[ebp]
  00022	64 a3 00 00 00
	00		 mov	 DWORD PTR fs:0, eax
  00028	89 4d ec	 mov	 DWORD PTR _this$1$[ebp], ecx

; 448  : 	strName.Replace(" ", "");

  0002b	68 00 00 00 00	 push	 OFFSET ??_C@_00CNPNBAHC@@
  00030	68 00 00 00 00	 push	 OFFSET ??_C@_01CLKCMJKC@?5@
  00035	8d 4d 10	 lea	 ecx, DWORD PTR _strName$[ebp]
  00038	c7 45 fc 01 00
	00 00		 mov	 DWORD PTR __$EHRec$[ebp+8], 1
  0003f	ff 15 00 00 00
	00		 call	 DWORD PTR __imp_?Replace@?$CStringT@DV?$StrTraitMFC_DLL@DV?$ChTraitsCRT@D@ATL@@@@@ATL@@QAEHPBD0@Z

; 449  : 	CString strCode = "";

  00045	68 00 00 00 00	 push	 OFFSET ??_C@_00CNPNBAHC@@
  0004a	8d 4d f0	 lea	 ecx, DWORD PTR _strCode$[ebp]
  0004d	ff 15 00 00 00
	00		 call	 DWORD PTR __imp_??0?$CStringT@DV?$StrTraitMFC_DLL@DV?$ChTraitsCRT@D@ATL@@@@@ATL@@QAE@PBD@Z

; 450  : 	CStringArray *pArrName=NULL, *pArrCode=NULL;
; 451  : 	if (strType.CompareNoCase(_T("UMASTER")) == 0)

  00053	68 00 00 00 00	 push	 OFFSET ??_C@_07KDMDENFH@UMASTER@
  00058	8d 4d 0c	 lea	 ecx, DWORD PTR _strType$[ebp]
  0005b	c6 45 fc 02	 mov	 BYTE PTR __$EHRec$[ebp+8], 2
  0005f	ff 15 00 00 00
	00		 call	 DWORD PTR __imp_?CompareNoCase@?$CStringT@DV?$StrTraitMFC_DLL@DV?$ChTraitsCRT@D@ATL@@@@@ATL@@QBEHPBD@Z
  00065	85 c0		 test	 eax, eax
  00067	75 0b		 jne	 SHORT $LN5@GetMarketC

; 452  : 	{
; 453  : 		pArrName = &m_arrKSPName;
; 454  : 		pArrCode = &m_arrKSPCode;

  00069	8d 58 24	 lea	 ebx, DWORD PTR [eax+36]
  0006c	8d 43 0c	 lea	 eax, DWORD PTR [ebx+12]
  0006f	8d 4b fc	 lea	 ecx, DWORD PTR [ebx-4]

; 455  : 	}

  00072	eb 21		 jmp	 SHORT $LN9@GetMarketC
$LN5@GetMarketC:

; 456  : 	else if (strType.CompareNoCase(_T("KUMASTER")) == 0)

  00074	68 00 00 00 00	 push	 OFFSET ??_C@_08HMCPBLEK@KUMASTER@
  00079	8d 4d 0c	 lea	 ecx, DWORD PTR _strType$[ebp]
  0007c	ff 15 00 00 00
	00		 call	 DWORD PTR __imp_?CompareNoCase@?$CStringT@DV?$StrTraitMFC_DLL@DV?$ChTraitsCRT@D@ATL@@@@@ATL@@QBEHPBD@Z
  00082	85 c0		 test	 eax, eax
  00084	0f 85 8a 00 00
	00		 jne	 $LN7@GetMarketC

; 457  : 	{
; 458  : 		pArrName = &m_arrKSQName;
; 459  : 		pArrCode = &m_arrKSQCode;

  0008a	8d 58 4c	 lea	 ebx, DWORD PTR [eax+76]
  0008d	b9 48 00 00 00	 mov	 ecx, 72			; 00000048H
  00092	8d 43 0c	 lea	 eax, DWORD PTR [ebx+12]
$LN9@GetMarketC:

; 462  : 	{
; 463  : 	}
; 464  : 
; 465  : 	if (pArrCode == NULL)

  00095	8b 55 ec	 mov	 edx, DWORD PTR _this$1$[ebp]
  00098	03 ca		 add	 ecx, edx
  0009a	03 c2		 add	 eax, edx
  0009c	89 4d e8	 mov	 DWORD PTR tv324[ebp], ecx
  0009f	89 45 e4	 mov	 DWORD PTR tv327[ebp], eax
  000a2	74 7e		 je	 SHORT $LN35@GetMarketC

; 467  : 
; 468  : 	int nSize = pArrName->GetSize();

  000a4	8b 3c 1a	 mov	 edi, DWORD PTR [edx+ebx]

; 469  : 	for (int i=0; i<nSize; i++)

  000a7	33 f6		 xor	 esi, esi
  000a9	85 ff		 test	 edi, edi
  000ab	7e 31		 jle	 SHORT $LN3@GetMarketC
  000ad	0f 1f 00	 npad	 3
$LL4@GetMarketC:
; File C:\Program Files (x86)\Microsoft Visual Studio\2019\Community\VC\Tools\MSVC\14.29.30133\atlmfc\include\afxcoll.inl

; 289  : 		if( nIndex < 0 || nIndex >= m_nSize )

  000b0	85 f6		 test	 esi, esi
  000b2	0f 88 aa 00 00
	00		 js	 $LN22@GetMarketC
  000b8	3b 34 1a	 cmp	 esi, DWORD PTR [edx+ebx]
  000bb	0f 8d a1 00 00
	00		 jge	 $LN22@GetMarketC

; 291  : 		return m_pData[nIndex]; }

  000c1	8b 01		 mov	 eax, DWORD PTR [ecx]
; File D:\git\src\IBK\IBK_DRFN\ProjSrc\SrcDrfn\Chart\MULTICHART\CondTarget.cpp

; 471  : 		if (pArrName->GetAt(i).CompareNoCase(strName) == 0)

  000c3	ff 75 10	 push	 DWORD PTR _strName$[ebp]
; File C:\Program Files (x86)\Microsoft Visual Studio\2019\Community\VC\Tools\MSVC\14.29.30133\atlmfc\include\afxcoll.inl

; 291  : 		return m_pData[nIndex]; }

  000c6	8d 0c b0	 lea	 ecx, DWORD PTR [eax+esi*4]
; File D:\git\src\IBK\IBK_DRFN\ProjSrc\SrcDrfn\Chart\MULTICHART\CondTarget.cpp

; 471  : 		if (pArrName->GetAt(i).CompareNoCase(strName) == 0)

  000c9	ff 15 00 00 00
	00		 call	 DWORD PTR __imp_?CompareNoCase@?$CStringT@DV?$StrTraitMFC_DLL@DV?$ChTraitsCRT@D@ATL@@@@@ATL@@QBEHPBD@Z
  000cf	85 c0		 test	 eax, eax
  000d1	74 1a		 je	 SHORT $LN31@GetMarketC

; 469  : 	for (int i=0; i<nSize; i++)

  000d3	8b 55 ec	 mov	 edx, DWORD PTR _this$1$[ebp]
  000d6	46		 inc	 esi
  000d7	8b 4d e8	 mov	 ecx, DWORD PTR tv324[ebp]
  000da	3b f7		 cmp	 esi, edi
  000dc	7c d2		 jl	 SHORT $LL4@GetMarketC
$LN3@GetMarketC:

; 474  : 			break;
; 475  : 		}
; 476  : 	}
; 477  : 
; 478  : 	return strCode;

  000de	8b 4d 08	 mov	 ecx, DWORD PTR ___$ReturnUdt$[ebp]
  000e1	8d 45 f0	 lea	 eax, DWORD PTR _strCode$[ebp]
  000e4	50		 push	 eax
  000e5	ff 15 00 00 00
	00		 call	 DWORD PTR __imp_??0?$CStringT@DV?$StrTraitMFC_DLL@DV?$ChTraitsCRT@D@ATL@@@@@ATL@@QAE@ABV01@@Z
  000eb	eb 43		 jmp	 SHORT $LN38@GetMarketC
$LN31@GetMarketC:
; File C:\Program Files (x86)\Microsoft Visual Studio\2019\Community\VC\Tools\MSVC\14.29.30133\atlmfc\include\afxcoll.inl

; 289  : 		if( nIndex < 0 || nIndex >= m_nSize )

  000ed	8b 45 e4	 mov	 eax, DWORD PTR tv327[ebp]
  000f0	3b 70 08	 cmp	 esi, DWORD PTR [eax+8]
  000f3	7d 6d		 jge	 SHORT $LN22@GetMarketC

; 291  : 		return m_pData[nIndex]; }

  000f5	8b 40 04	 mov	 eax, DWORD PTR [eax+4]
; File D:\git\src\IBK\IBK_DRFN\ProjSrc\SrcDrfn\Chart\MULTICHART\CondTarget.cpp

; 473  : 			strCode = pArrCode->GetAt(i);

  000f8	8d 4d f0	 lea	 ecx, DWORD PTR _strCode$[ebp]
; File C:\Program Files (x86)\Microsoft Visual Studio\2019\Community\VC\Tools\MSVC\14.29.30133\atlmfc\include\afxcoll.inl

; 291  : 		return m_pData[nIndex]; }

  000fb	8d 04 b0	 lea	 eax, DWORD PTR [eax+esi*4]
; File D:\git\src\IBK\IBK_DRFN\ProjSrc\SrcDrfn\Chart\MULTICHART\CondTarget.cpp

; 473  : 			strCode = pArrCode->GetAt(i);

  000fe	50		 push	 eax
  000ff	ff 15 00 00 00
	00		 call	 DWORD PTR __imp_??4?$CStringT@DV?$StrTraitMFC_DLL@DV?$ChTraitsCRT@D@ATL@@@@@ATL@@QAEAAV01@ABV01@@Z

; 474  : 			break;
; 475  : 		}
; 476  : 	}
; 477  : 
; 478  : 	return strCode;

  00105	8b 4d 08	 mov	 ecx, DWORD PTR ___$ReturnUdt$[ebp]
  00108	8d 45 f0	 lea	 eax, DWORD PTR _strCode$[ebp]
  0010b	50		 push	 eax
  0010c	ff 15 00 00 00
	00		 call	 DWORD PTR __imp_??0?$CStringT@DV?$StrTraitMFC_DLL@DV?$ChTraitsCRT@D@ATL@@@@@ATL@@QAE@ABV01@@Z
  00112	eb 1c		 jmp	 SHORT $LN38@GetMarketC
$LN7@GetMarketC:

; 460  : 	}
; 461  : 	else if (strType.CompareNoCase(_T("KRXUMASTER")) == 0)

  00114	68 00 00 00 00	 push	 OFFSET ??_C@_0L@CMGEAIGC@KRXUMASTER@
  00119	8d 4d 0c	 lea	 ecx, DWORD PTR _strType$[ebp]
  0011c	ff 15 00 00 00
	00		 call	 DWORD PTR __imp_?CompareNoCase@?$CStringT@DV?$StrTraitMFC_DLL@DV?$ChTraitsCRT@D@ATL@@@@@ATL@@QBEHPBD@Z
$LN35@GetMarketC:

; 466  : 		return "";

  00122	8b 4d 08	 mov	 ecx, DWORD PTR ___$ReturnUdt$[ebp]
  00125	68 00 00 00 00	 push	 OFFSET ??_C@_00CNPNBAHC@@
  0012a	ff 15 00 00 00
	00		 call	 DWORD PTR __imp_??0?$CStringT@DV?$StrTraitMFC_DLL@DV?$ChTraitsCRT@D@ATL@@@@@ATL@@QAE@PBD@Z
$LN38@GetMarketC:

; 479  : }

  00130	8d 4d f0	 lea	 ecx, DWORD PTR _strCode$[ebp]
  00133	ff 15 00 00 00
	00		 call	 DWORD PTR __imp_??1?$CStringT@DV?$StrTraitMFC_DLL@DV?$ChTraitsCRT@D@ATL@@@@@ATL@@QAE@XZ
  00139	8d 4d 0c	 lea	 ecx, DWORD PTR _strType$[ebp]
  0013c	ff 15 00 00 00
	00		 call	 DWORD PTR __imp_??1?$CStringT@DV?$StrTraitMFC_DLL@DV?$ChTraitsCRT@D@ATL@@@@@ATL@@QAE@XZ
  00142	8d 4d 10	 lea	 ecx, DWORD PTR _strName$[ebp]
  00145	ff 15 00 00 00
	00		 call	 DWORD PTR __imp_??1?$CStringT@DV?$StrTraitMFC_DLL@DV?$ChTraitsCRT@D@ATL@@@@@ATL@@QAE@XZ
  0014b	8b 45 08	 mov	 eax, DWORD PTR ___$ReturnUdt$[ebp]
  0014e	8b 4d f4	 mov	 ecx, DWORD PTR __$EHRec$[ebp]
  00151	64 89 0d 00 00
	00 00		 mov	 DWORD PTR fs:0, ecx
  00158	59		 pop	 ecx
  00159	5f		 pop	 edi
  0015a	5e		 pop	 esi
  0015b	5b		 pop	 ebx
  0015c	8b e5		 mov	 esp, ebp
  0015e	5d		 pop	 ebp
  0015f	c2 0c 00	 ret	 12			; 0000000cH
$LN22@GetMarketC:
; File C:\Program Files (x86)\Microsoft Visual Studio\2019\Community\VC\Tools\MSVC\14.29.30133\atlmfc\include\afxcoll.inl

; 290  : 			AfxThrowInvalidArgException();

  00162	e8 00 00 00 00	 call	 ?AfxThrowInvalidArgException@@YGXXZ ; AfxThrowInvalidArgException
$LN37@GetMarketC:
  00167	cc		 int	 3
_TEXT	ENDS
;	COMDAT text$x
text$x	SEGMENT
__unwindfunclet$?GetMarketCode@CCondTarget@@QAE?AV?$CStringT@DV?$StrTraitMFC_DLL@DV?$ChTraitsCRT@D@ATL@@@@@ATL@@V23@0@Z$0:
  00000	8d 4d 10	 lea	 ecx, DWORD PTR _strName$[ebp]
  00003	ff 25 00 00 00
	00		 jmp	 DWORD PTR __imp_??1?$CStringT@DV?$StrTraitMFC_DLL@DV?$ChTraitsCRT@D@ATL@@@@@ATL@@QAE@XZ
__unwindfunclet$?GetMarketCode@CCondTarget@@QAE?AV?$CStringT@DV?$StrTraitMFC_DLL@DV?$ChTraitsCRT@D@ATL@@@@@ATL@@V23@0@Z$1:
  00009	8d 4d 0c	 lea	 ecx, DWORD PTR _strType$[ebp]
  0000c	ff 25 00 00 00
	00		 jmp	 DWORD PTR __imp_??1?$CStringT@DV?$StrTraitMFC_DLL@DV?$ChTraitsCRT@D@ATL@@@@@ATL@@QAE@XZ
__unwindfunclet$?GetMarketCode@CCondTarget@@QAE?AV?$CStringT@DV?$StrTraitMFC_DLL@DV?$ChTraitsCRT@D@ATL@@@@@ATL@@V23@0@Z$2:
  00012	8d 4d f0	 lea	 ecx, DWORD PTR _strCode$[ebp]
  00015	ff 25 00 00 00
	00		 jmp	 DWORD PTR __imp_??1?$CStringT@DV?$StrTraitMFC_DLL@DV?$ChTraitsCRT@D@ATL@@@@@ATL@@QAE@XZ
  0001b	cc		 int	 3
  0001c	cc		 int	 3
  0001d	cc		 int	 3
  0001e	cc		 int	 3
  0001f	cc		 int	 3
__ehhandler$?GetMarketCode@CCondTarget@@QAE?AV?$CStringT@DV?$StrTraitMFC_DLL@DV?$ChTraitsCRT@D@ATL@@@@@ATL@@V23@0@Z:
  00020	90		 npad	 1
  00021	90		 npad	 1
  00022	8b 54 24 08	 mov	 edx, DWORD PTR [esp+8]
  00026	8d 42 0c	 lea	 eax, DWORD PTR [edx+12]
  00029	8b 4a e0	 mov	 ecx, DWORD PTR [edx-32]
  0002c	33 c8		 xor	 ecx, eax
  0002e	e8 00 00 00 00	 call	 @__security_check_cookie@4
  00033	b8 00 00 00 00	 mov	 eax, OFFSET __ehfuncinfo$?GetMarketCode@CCondTarget@@QAE?AV?$CStringT@DV?$StrTraitMFC_DLL@DV?$ChTraitsCRT@D@ATL@@@@@ATL@@V23@0@Z
  00038	e9 00 00 00 00	 jmp	 ___CxxFrameHandler3
text$x	ENDS
?GetMarketCode@CCondTarget@@QAE?AV?$CStringT@DV?$StrTraitMFC_DLL@DV?$ChTraitsCRT@D@ATL@@@@@ATL@@V23@0@Z ENDP ; CCondTarget::GetMarketCode
; Function compile flags: /Ogtp
; File D:\git\src\IBK\IBK_DRFN\ProjSrc\SrcDrfn\Chart\MULTICHART\CondTarget.cpp
; File C:\Program Files (x86)\Microsoft Visual Studio\2019\Community\VC\Tools\MSVC\14.29.30133\atlmfc\include\cstringt.h
; File D:\git\src\IBK\IBK_DRFN\ProjSrc\SrcDrfn\Chart\MULTICHART\CondTarget.cpp
; File C:\Program Files (x86)\Microsoft Visual Studio\2019\Community\VC\Tools\MSVC\14.29.30133\atlmfc\include\cstringt.h
; File D:\git\src\IBK\IBK_DRFN\ProjSrc\SrcDrfn\Chart\MULTICHART\CondTarget.cpp
; File C:\Program Files (x86)\Microsoft Visual Studio\2019\Community\VC\Tools\MSVC\14.29.30133\atlmfc\include\cstringt.h
; File D:\git\src\IBK\IBK_DRFN\ProjSrc\SrcDrfn\Chart\MULTICHART\CondTarget.cpp
;	COMDAT ?GetStockMasterData@CCondTarget@@QAEHAAVCStringArray@@0@Z
_TEXT	SEGMENT
$T2 = -36						; size = 4
$T3 = -36						; size = 4
$T4 = -32						; size = 4
_strTitle$ = -28					; size = 4
$T5 = -24						; size = 4
$T6 = -24						; size = 4
_strMarketCode$ = -20					; size = 4
_strType$ = -16						; size = 4
__$EHRec$ = -12						; size = 12
_saCode$ = 8						; size = 4
_saName$ = 12						; size = 4
?GetStockMasterData@CCondTarget@@QAEHAAVCStringArray@@0@Z PROC ; CCondTarget::GetStockMasterData, COMDAT
; _this$ = ecx

; 483  : {

  00000	55		 push	 ebp
  00001	8b ec		 mov	 ebp, esp
  00003	6a ff		 push	 -1
  00005	68 00 00 00 00	 push	 __ehhandler$?GetStockMasterData@CCondTarget@@QAEHAAVCStringArray@@0@Z
  0000a	64 a1 00 00 00
	00		 mov	 eax, DWORD PTR fs:0
  00010	50		 push	 eax
  00011	83 ec 18	 sub	 esp, 24			; 00000018H
  00014	56		 push	 esi
  00015	57		 push	 edi
  00016	a1 00 00 00 00	 mov	 eax, DWORD PTR ___security_cookie
  0001b	33 c5		 xor	 eax, ebp
  0001d	50		 push	 eax
  0001e	8d 45 f4	 lea	 eax, DWORD PTR __$EHRec$[ebp]
  00021	64 a3 00 00 00
	00		 mov	 DWORD PTR fs:0, eax
  00027	8b f1		 mov	 esi, ecx

; 485  : 	CString strTitle, strMarketCode, strType;

  00029	8d 4d e4	 lea	 ecx, DWORD PTR _strTitle$[ebp]
  0002c	ff 15 00 00 00
	00		 call	 DWORD PTR __imp_??0?$CStringT@DV?$StrTraitMFC_DLL@DV?$ChTraitsCRT@D@ATL@@@@@ATL@@QAE@XZ
  00032	8d 4d ec	 lea	 ecx, DWORD PTR _strMarketCode$[ebp]
  00035	c7 45 fc 00 00
	00 00		 mov	 DWORD PTR __$EHRec$[ebp+8], 0
  0003c	ff 15 00 00 00
	00		 call	 DWORD PTR __imp_??0?$CStringT@DV?$StrTraitMFC_DLL@DV?$ChTraitsCRT@D@ATL@@@@@ATL@@QAE@XZ
  00042	8d 4d f0	 lea	 ecx, DWORD PTR _strType$[ebp]
  00045	ff 15 00 00 00
	00		 call	 DWORD PTR __imp_??0?$CStringT@DV?$StrTraitMFC_DLL@DV?$ChTraitsCRT@D@ATL@@@@@ATL@@QAE@XZ
; File C:\Program Files (x86)\Microsoft Visual Studio\2019\Community\VC\Tools\MSVC\14.29.30133\atlmfc\include\cstringt.h

; 2486 : 		return(str1.Compare(psz2) == 0);

  0004b	68 00 00 00 00	 push	 OFFSET ??_C@_00CNPNBAHC@@
  00050	8d 8e ec 01 00
	00		 lea	 ecx, DWORD PTR [esi+492]
; File D:\git\src\IBK\IBK_DRFN\ProjSrc\SrcDrfn\Chart\MULTICHART\CondTarget.cpp

; 485  : 	CString strTitle, strMarketCode, strType;

  00056	c6 45 fc 02	 mov	 BYTE PTR __$EHRec$[ebp+8], 2
; File C:\Program Files (x86)\Microsoft Visual Studio\2019\Community\VC\Tools\MSVC\14.29.30133\atlmfc\include\cstringt.h

; 2486 : 		return(str1.Compare(psz2) == 0);

  0005a	ff 15 00 00 00
	00		 call	 DWORD PTR __imp_?Compare@?$CStringT@DV?$StrTraitMFC_DLL@DV?$ChTraitsCRT@D@ATL@@@@@ATL@@QBEHPBD@Z
; File D:\git\src\IBK\IBK_DRFN\ProjSrc\SrcDrfn\Chart\MULTICHART\CondTarget.cpp

; 486  : 	if (m_strEditSubjectSelectParentItemText == "")

  00060	68 00 00 00 00	 push	 OFFSET ??_C@_06CLLJOKKL@?$LA?E?$LH?$KB?$LM?R@
; File C:\Program Files (x86)\Microsoft Visual Studio\2019\Community\VC\Tools\MSVC\14.29.30133\atlmfc\include\cstringt.h

; 2486 : 		return(str1.Compare(psz2) == 0);

  00065	85 c0		 test	 eax, eax
; File D:\git\src\IBK\IBK_DRFN\ProjSrc\SrcDrfn\Chart\MULTICHART\CondTarget.cpp

; 486  : 	if (m_strEditSubjectSelectParentItemText == "")

  00067	0f 85 0c 01 00
	00		 jne	 $LN2@GetStockMa

; 487  : 	{
; 488  : 		if (m_strEditSubjectSelectItemText.CompareNoCase("") == 0)

  0006d	8d 8e e8 01 00
	00		 lea	 ecx, DWORD PTR [esi+488]
  00073	ff 15 00 00 00
	00		 call	 DWORD PTR __imp_?CompareNoCase@?$CStringT@DV?$StrTraitMFC_DLL@DV?$ChTraitsCRT@D@ATL@@@@@ATL@@QBEHPBD@Z
  00079	85 c0		 test	 eax, eax
  0007b	75 20		 jne	 SHORT $LN4@GetStockMa

; 489  : 		{
; 490  : 			strType = "UMASTER";

  0007d	68 00 00 00 00	 push	 OFFSET ??_C@_07KDMDENFH@UMASTER@
  00082	8d 4d f0	 lea	 ecx, DWORD PTR _strType$[ebp]
  00085	ff 15 00 00 00
	00		 call	 DWORD PTR __imp_??4?$CStringT@DV?$StrTraitMFC_DLL@DV?$ChTraitsCRT@D@ATL@@@@@ATL@@QAEAAV01@PBD@Z

; 491  : 			strMarketCode = m_strKSPCode;

  0008b	8d 46 14	 lea	 eax, DWORD PTR [esi+20]
  0008e	50		 push	 eax
  0008f	8d 4d ec	 lea	 ecx, DWORD PTR _strMarketCode$[ebp]
  00092	ff 15 00 00 00
	00		 call	 DWORD PTR __imp_??4?$CStringT@DV?$StrTraitMFC_DLL@DV?$ChTraitsCRT@D@ATL@@@@@ATL@@QAEAAV01@ABV01@@Z

; 492  : 		}

  00098	e9 a8 01 00 00	 jmp	 $LN17@GetStockMa
$LN4@GetStockMa:

; 493  : 		else if (m_strEditSubjectSelectItemText.CompareNoCase("") == 0)

  0009d	68 00 00 00 00	 push	 OFFSET ??_C@_06MKHMLNFC@?D?Z?$LN?$LK?$LE?Z@
  000a2	8d 8e e8 01 00
	00		 lea	 ecx, DWORD PTR [esi+488]
  000a8	ff 15 00 00 00
	00		 call	 DWORD PTR __imp_?CompareNoCase@?$CStringT@DV?$StrTraitMFC_DLL@DV?$ChTraitsCRT@D@ATL@@@@@ATL@@QBEHPBD@Z
  000ae	85 c0		 test	 eax, eax
  000b0	75 20		 jne	 SHORT $LN6@GetStockMa

; 494  : 		{
; 495  : 			strType = "KUMASTER";

  000b2	68 00 00 00 00	 push	 OFFSET ??_C@_08HMCPBLEK@KUMASTER@
  000b7	8d 4d f0	 lea	 ecx, DWORD PTR _strType$[ebp]
  000ba	ff 15 00 00 00
	00		 call	 DWORD PTR __imp_??4?$CStringT@DV?$StrTraitMFC_DLL@DV?$ChTraitsCRT@D@ATL@@@@@ATL@@QAEAAV01@PBD@Z

; 496  : 			strMarketCode = m_strKSQCode;

  000c0	8d 46 18	 lea	 eax, DWORD PTR [esi+24]
  000c3	50		 push	 eax
  000c4	8d 4d ec	 lea	 ecx, DWORD PTR _strMarketCode$[ebp]
  000c7	ff 15 00 00 00
	00		 call	 DWORD PTR __imp_??4?$CStringT@DV?$StrTraitMFC_DLL@DV?$ChTraitsCRT@D@ATL@@@@@ATL@@QAEAAV01@ABV01@@Z

; 497  : 		}

  000cd	e9 73 01 00 00	 jmp	 $LN17@GetStockMa
$LN6@GetStockMa:

; 498  : 		else if (m_strEditSubjectSelectItemText.CompareNoCase("KOSPI200") == 0)

  000d2	68 00 00 00 00	 push	 OFFSET ??_C@_08FPNDIEGG@KOSPI200@
  000d7	8d 8e e8 01 00
	00		 lea	 ecx, DWORD PTR [esi+488]
  000dd	ff 15 00 00 00
	00		 call	 DWORD PTR __imp_?CompareNoCase@?$CStringT@DV?$StrTraitMFC_DLL@DV?$ChTraitsCRT@D@ATL@@@@@ATL@@QBEHPBD@Z
  000e3	85 c0		 test	 eax, eax
  000e5	75 20		 jne	 SHORT $LN8@GetStockMa

; 499  : 		{
; 500  : 			strType = "UMASTER";

  000e7	68 00 00 00 00	 push	 OFFSET ??_C@_07KDMDENFH@UMASTER@
  000ec	8d 4d f0	 lea	 ecx, DWORD PTR _strType$[ebp]
  000ef	ff 15 00 00 00
	00		 call	 DWORD PTR __imp_??4?$CStringT@DV?$StrTraitMFC_DLL@DV?$ChTraitsCRT@D@ATL@@@@@ATL@@QAEAAV01@PBD@Z

; 501  : 			strMarketCode = m_strKSP200Code;

  000f5	8d 46 10	 lea	 eax, DWORD PTR [esi+16]
  000f8	50		 push	 eax
  000f9	8d 4d ec	 lea	 ecx, DWORD PTR _strMarketCode$[ebp]
  000fc	ff 15 00 00 00
	00		 call	 DWORD PTR __imp_??4?$CStringT@DV?$StrTraitMFC_DLL@DV?$ChTraitsCRT@D@ATL@@@@@ATL@@QAEAAV01@ABV01@@Z

; 502  : 		}

  00102	e9 3e 01 00 00	 jmp	 $LN17@GetStockMa
$LN8@GetStockMa:

; 503  : 		else if (m_strEditSubjectSelectItemText.CompareNoCase("KRX100") == 0)

  00107	68 00 00 00 00	 push	 OFFSET ??_C@_06NOAAGAFD@KRX100@
  0010c	8d 8e e8 01 00
	00		 lea	 ecx, DWORD PTR [esi+488]
  00112	ff 15 00 00 00
	00		 call	 DWORD PTR __imp_?CompareNoCase@?$CStringT@DV?$StrTraitMFC_DLL@DV?$ChTraitsCRT@D@ATL@@@@@ATL@@QBEHPBD@Z
  00118	85 c0		 test	 eax, eax
  0011a	75 20		 jne	 SHORT $LN10@GetStockMa

; 504  : 		{
; 505  : 			strType = "KRXUMASTER";

  0011c	68 00 00 00 00	 push	 OFFSET ??_C@_0L@CMGEAIGC@KRXUMASTER@
  00121	8d 4d f0	 lea	 ecx, DWORD PTR _strType$[ebp]
  00124	ff 15 00 00 00
	00		 call	 DWORD PTR __imp_??4?$CStringT@DV?$StrTraitMFC_DLL@DV?$ChTraitsCRT@D@ATL@@@@@ATL@@QAEAAV01@PBD@Z

; 506  : 			strMarketCode = m_strKRX100Code;

  0012a	8d 46 0c	 lea	 eax, DWORD PTR [esi+12]
  0012d	50		 push	 eax
  0012e	8d 4d ec	 lea	 ecx, DWORD PTR _strMarketCode$[ebp]
  00131	ff 15 00 00 00
	00		 call	 DWORD PTR __imp_??4?$CStringT@DV?$StrTraitMFC_DLL@DV?$ChTraitsCRT@D@ATL@@@@@ATL@@QAEAAV01@ABV01@@Z

; 507  : 		}

  00137	e9 09 01 00 00	 jmp	 $LN17@GetStockMa
$LN10@GetStockMa:

; 508  : 		else if (m_strEditSubjectSelectItemText.CompareNoCase("") == 0)

  0013c	68 00 00 00 00	 push	 OFFSET ??_C@_04MHOBIAIL@?$MA?$PM?C?$LM@
  00141	8d 8e e8 01 00
	00		 lea	 ecx, DWORD PTR [esi+488]
  00147	ff 15 00 00 00
	00		 call	 DWORD PTR __imp_?CompareNoCase@?$CStringT@DV?$StrTraitMFC_DLL@DV?$ChTraitsCRT@D@ATL@@@@@ATL@@QBEHPBD@Z
  0014d	85 c0		 test	 eax, eax
  0014f	0f 85 f0 00 00
	00		 jne	 $LN17@GetStockMa

; 509  : 		{
; 510  : 			if (m_pManager)

  00155	8b 4e 6c	 mov	 ecx, DWORD PTR [esi+108]
  00158	85 c9		 test	 ecx, ecx
  0015a	0f 84 22 01 00
	00		 je	 $LN18@GetStockMa

; 511  : 				m_pManager->GetAllStock(saCode, saName);

  00160	ff 75 0c	 push	 DWORD PTR _saName$[ebp]
  00163	8b 01		 mov	 eax, DWORD PTR [ecx]
  00165	ff 75 08	 push	 DWORD PTR _saCode$[ebp]
  00168	51		 push	 ecx
  00169	ff 90 a4 00 00
	00		 call	 DWORD PTR [eax+164]
  0016f	be 01 00 00 00	 mov	 esi, 1
  00174	e9 12 01 00 00	 jmp	 $LN32@GetStockMa
$LN2@GetStockMa:

; 512  : 
; 513  : 			return TRUE;
; 514  : 		}
; 515  : 	}
; 516  : 	else
; 517  : 	{
; 518  : 		if (m_strEditSubjectSelectParentItemText.CompareNoCase("") == 0)

  00179	8d 8e ec 01 00
	00		 lea	 ecx, DWORD PTR [esi+492]
  0017f	ff 15 00 00 00
	00		 call	 DWORD PTR __imp_?CompareNoCase@?$CStringT@DV?$StrTraitMFC_DLL@DV?$ChTraitsCRT@D@ATL@@@@@ATL@@QBEHPBD@Z
  00185	85 c0		 test	 eax, eax
  00187	75 47		 jne	 SHORT $LN14@GetStockMa

; 519  : 		{
; 520  : 			strType = "UMASTER";

  00189	68 00 00 00 00	 push	 OFFSET ??_C@_07KDMDENFH@UMASTER@
  0018e	8d 4d f0	 lea	 ecx, DWORD PTR _strType$[ebp]
  00191	ff 15 00 00 00
	00		 call	 DWORD PTR __imp_??4?$CStringT@DV?$StrTraitMFC_DLL@DV?$ChTraitsCRT@D@ATL@@@@@ATL@@QAEAAV01@PBD@Z

; 521  : 			strMarketCode = GetMarketCode(strType, m_strEditSubjectSelectItemText);

  00197	51		 push	 ecx
  00198	8d 86 e8 01 00
	00		 lea	 eax, DWORD PTR [esi+488]
  0019e	89 65 e0	 mov	 DWORD PTR $T4[ebp], esp
  001a1	8b cc		 mov	 ecx, esp
  001a3	50		 push	 eax
  001a4	ff 15 00 00 00
	00		 call	 DWORD PTR __imp_??0?$CStringT@DV?$StrTraitMFC_DLL@DV?$ChTraitsCRT@D@ATL@@@@@ATL@@QAE@ABV01@@Z
  001aa	51		 push	 ecx
  001ab	8d 45 f0	 lea	 eax, DWORD PTR _strType$[ebp]
  001ae	c6 45 fc 03	 mov	 BYTE PTR __$EHRec$[ebp+8], 3
  001b2	8b cc		 mov	 ecx, esp
  001b4	50		 push	 eax
  001b5	ff 15 00 00 00
	00		 call	 DWORD PTR __imp_??0?$CStringT@DV?$StrTraitMFC_DLL@DV?$ChTraitsCRT@D@ATL@@@@@ATL@@QAE@ABV01@@Z
  001bb	8d 45 e8	 lea	 eax, DWORD PTR $T6[ebp]
  001be	c6 45 fc 02	 mov	 BYTE PTR __$EHRec$[ebp+8], 2
  001c2	50		 push	 eax
  001c3	8b ce		 mov	 ecx, esi
  001c5	e8 00 00 00 00	 call	 ?GetMarketCode@CCondTarget@@QAE?AV?$CStringT@DV?$StrTraitMFC_DLL@DV?$ChTraitsCRT@D@ATL@@@@@ATL@@V23@0@Z ; CCondTarget::GetMarketCode
  001ca	c6 45 fc 04	 mov	 BYTE PTR __$EHRec$[ebp+8], 4

; 522  : 		}

  001ce	eb 5e		 jmp	 SHORT $LN36@GetStockMa
$LN14@GetStockMa:

; 523  : 		else if (m_strEditSubjectSelectParentItemText.CompareNoCase("") == 0)

  001d0	68 00 00 00 00	 push	 OFFSET ??_C@_06MKHMLNFC@?D?Z?$LN?$LK?$LE?Z@
  001d5	8d 8e ec 01 00
	00		 lea	 ecx, DWORD PTR [esi+492]
  001db	ff 15 00 00 00
	00		 call	 DWORD PTR __imp_?CompareNoCase@?$CStringT@DV?$StrTraitMFC_DLL@DV?$ChTraitsCRT@D@ATL@@@@@ATL@@QBEHPBD@Z
  001e1	85 c0		 test	 eax, eax
  001e3	0f 85 a0 00 00
	00		 jne	 $LN16@GetStockMa

; 524  : 		{
; 525  : 			strType = "KUMASTER";

  001e9	68 00 00 00 00	 push	 OFFSET ??_C@_08HMCPBLEK@KUMASTER@
  001ee	8d 4d f0	 lea	 ecx, DWORD PTR _strType$[ebp]
  001f1	ff 15 00 00 00
	00		 call	 DWORD PTR __imp_??4?$CStringT@DV?$StrTraitMFC_DLL@DV?$ChTraitsCRT@D@ATL@@@@@ATL@@QAEAAV01@PBD@Z

; 526  : 			strMarketCode = GetMarketCode(strType, m_strEditSubjectSelectItemText);

  001f7	51		 push	 ecx
  001f8	8d 86 e8 01 00
	00		 lea	 eax, DWORD PTR [esi+488]
  001fe	89 65 dc	 mov	 DWORD PTR $T3[ebp], esp
  00201	8b cc		 mov	 ecx, esp
  00203	50		 push	 eax
  00204	ff 15 00 00 00
	00		 call	 DWORD PTR __imp_??0?$CStringT@DV?$StrTraitMFC_DLL@DV?$ChTraitsCRT@D@ATL@@@@@ATL@@QAE@ABV01@@Z
  0020a	51		 push	 ecx
  0020b	8d 45 f0	 lea	 eax, DWORD PTR _strType$[ebp]
  0020e	c6 45 fc 05	 mov	 BYTE PTR __$EHRec$[ebp+8], 5
  00212	8b cc		 mov	 ecx, esp
  00214	50		 push	 eax
  00215	ff 15 00 00 00
	00		 call	 DWORD PTR __imp_??0?$CStringT@DV?$StrTraitMFC_DLL@DV?$ChTraitsCRT@D@ATL@@@@@ATL@@QAE@ABV01@@Z
  0021b	8d 45 e8	 lea	 eax, DWORD PTR $T5[ebp]
  0021e	c6 45 fc 02	 mov	 BYTE PTR __$EHRec$[ebp+8], 2
  00222	50		 push	 eax
  00223	8b ce		 mov	 ecx, esi
  00225	e8 00 00 00 00	 call	 ?GetMarketCode@CCondTarget@@QAE?AV?$CStringT@DV?$StrTraitMFC_DLL@DV?$ChTraitsCRT@D@ATL@@@@@ATL@@V23@0@Z ; CCondTarget::GetMarketCode
  0022a	c6 45 fc 06	 mov	 BYTE PTR __$EHRec$[ebp+8], 6
$LN36@GetStockMa:

; 530  : 	}
; 531  : 
; 532  : 	if (m_pManager)

  0022e	50		 push	 eax
  0022f	8d 4d ec	 lea	 ecx, DWORD PTR _strMarketCode$[ebp]
  00232	ff 15 00 00 00
	00		 call	 DWORD PTR __imp_??4?$CStringT@DV?$StrTraitMFC_DLL@DV?$ChTraitsCRT@D@ATL@@@@@ATL@@QAEAAV01@ABV01@@Z
  00238	8d 4d e8	 lea	 ecx, DWORD PTR $T5[ebp]
  0023b	c6 45 fc 02	 mov	 BYTE PTR __$EHRec$[ebp+8], 2
  0023f	ff 15 00 00 00
	00		 call	 DWORD PTR __imp_??1?$CStringT@DV?$StrTraitMFC_DLL@DV?$ChTraitsCRT@D@ATL@@@@@ATL@@QAE@XZ
$LN17@GetStockMa:
  00245	83 7e 6c 00	 cmp	 DWORD PTR [esi+108], 0
  00249	74 37		 je	 SHORT $LN18@GetStockMa

; 533  : 		m_pManager->GetMasterDataInUpDetails(strType, saCode, saName, strMarketCode);

  0024b	51		 push	 ecx
  0024c	8d 45 ec	 lea	 eax, DWORD PTR _strMarketCode$[ebp]
  0024f	89 65 dc	 mov	 DWORD PTR $T2[ebp], esp
  00252	8b cc		 mov	 ecx, esp
  00254	50		 push	 eax
  00255	ff 15 00 00 00
	00		 call	 DWORD PTR __imp_??0?$CStringT@DV?$StrTraitMFC_DLL@DV?$ChTraitsCRT@D@ATL@@@@@ATL@@QAE@ABV01@@Z
  0025b	ff 75 0c	 push	 DWORD PTR _saName$[ebp]
  0025e	8d 45 f0	 lea	 eax, DWORD PTR _strType$[ebp]
  00261	c6 45 fc 07	 mov	 BYTE PTR __$EHRec$[ebp+8], 7
  00265	ff 75 08	 push	 DWORD PTR _saCode$[ebp]
  00268	51		 push	 ecx
  00269	8b cc		 mov	 ecx, esp
  0026b	50		 push	 eax
  0026c	ff 15 00 00 00
	00		 call	 DWORD PTR __imp_??0?$CStringT@DV?$StrTraitMFC_DLL@DV?$ChTraitsCRT@D@ATL@@@@@ATL@@QAE@ABV01@@Z
  00272	8b 46 6c	 mov	 eax, DWORD PTR [esi+108]
  00275	50		 push	 eax
  00276	8b 08		 mov	 ecx, DWORD PTR [eax]
  00278	c6 45 fc 02	 mov	 BYTE PTR __$EHRec$[ebp+8], 2
  0027c	ff 91 98 00 00
	00		 call	 DWORD PTR [ecx+152]
$LN18@GetStockMa:

; 534  : 
; 535  : 	return TRUE;

  00282	be 01 00 00 00	 mov	 esi, 1
  00287	eb 02		 jmp	 SHORT $LN32@GetStockMa
$LN16@GetStockMa:

; 527  : 		}
; 528  : 		else
; 529  : 			return FALSE;

  00289	33 f6		 xor	 esi, esi
$LN32@GetStockMa:

; 534  : 
; 535  : 	return TRUE;

  0028b	8d 4d f0	 lea	 ecx, DWORD PTR _strType$[ebp]
  0028e	ff 15 00 00 00
	00		 call	 DWORD PTR __imp_??1?$CStringT@DV?$StrTraitMFC_DLL@DV?$ChTraitsCRT@D@ATL@@@@@ATL@@QAE@XZ
  00294	8d 4d ec	 lea	 ecx, DWORD PTR _strMarketCode$[ebp]
  00297	ff 15 00 00 00
	00		 call	 DWORD PTR __imp_??1?$CStringT@DV?$StrTraitMFC_DLL@DV?$ChTraitsCRT@D@ATL@@@@@ATL@@QAE@XZ
  0029d	8d 4d e4	 lea	 ecx, DWORD PTR _strTitle$[ebp]
  002a0	ff 15 00 00 00
	00		 call	 DWORD PTR __imp_??1?$CStringT@DV?$StrTraitMFC_DLL@DV?$ChTraitsCRT@D@ATL@@@@@ATL@@QAE@XZ
  002a6	8b c6		 mov	 eax, esi

; 536  : }

  002a8	8b 4d f4	 mov	 ecx, DWORD PTR __$EHRec$[ebp]
  002ab	64 89 0d 00 00
	00 00		 mov	 DWORD PTR fs:0, ecx
  002b2	59		 pop	 ecx
  002b3	5f		 pop	 edi
  002b4	5e		 pop	 esi
  002b5	8b e5		 mov	 esp, ebp
  002b7	5d		 pop	 ebp
  002b8	c2 08 00	 ret	 8
_TEXT	ENDS
;	COMDAT text$x
text$x	SEGMENT
__unwindfunclet$?GetStockMasterData@CCondTarget@@QAEHAAVCStringArray@@0@Z$0:
  00000	8d 4d e4	 lea	 ecx, DWORD PTR _strTitle$[ebp]
  00003	ff 25 00 00 00
	00		 jmp	 DWORD PTR __imp_??1?$CStringT@DV?$StrTraitMFC_DLL@DV?$ChTraitsCRT@D@ATL@@@@@ATL@@QAE@XZ
__unwindfunclet$?GetStockMasterData@CCondTarget@@QAEHAAVCStringArray@@0@Z$1:
  00009	8d 4d ec	 lea	 ecx, DWORD PTR _strMarketCode$[ebp]
  0000c	ff 25 00 00 00
	00		 jmp	 DWORD PTR __imp_??1?$CStringT@DV?$StrTraitMFC_DLL@DV?$ChTraitsCRT@D@ATL@@@@@ATL@@QAE@XZ
__unwindfunclet$?GetStockMasterData@CCondTarget@@QAEHAAVCStringArray@@0@Z$2:
  00012	8d 4d f0	 lea	 ecx, DWORD PTR _strType$[ebp]
  00015	ff 25 00 00 00
	00		 jmp	 DWORD PTR __imp_??1?$CStringT@DV?$StrTraitMFC_DLL@DV?$ChTraitsCRT@D@ATL@@@@@ATL@@QAE@XZ
__unwindfunclet$?GetStockMasterData@CCondTarget@@QAEHAAVCStringArray@@0@Z$3:
  0001b	8b 4d e0	 mov	 ecx, DWORD PTR $T4[ebp]
  0001e	ff 25 00 00 00
	00		 jmp	 DWORD PTR __imp_??1?$CStringT@DV?$StrTraitMFC_DLL@DV?$ChTraitsCRT@D@ATL@@@@@ATL@@QAE@XZ
__unwindfunclet$?GetStockMasterData@CCondTarget@@QAEHAAVCStringArray@@0@Z$5:
  00024	8d 4d e8	 lea	 ecx, DWORD PTR $T6[ebp]
  00027	ff 25 00 00 00
	00		 jmp	 DWORD PTR __imp_??1?$CStringT@DV?$StrTraitMFC_DLL@DV?$ChTraitsCRT@D@ATL@@@@@ATL@@QAE@XZ
__unwindfunclet$?GetStockMasterData@CCondTarget@@QAEHAAVCStringArray@@0@Z$6:
  0002d	8b 4d dc	 mov	 ecx, DWORD PTR $T3[ebp]
  00030	ff 25 00 00 00
	00		 jmp	 DWORD PTR __imp_??1?$CStringT@DV?$StrTraitMFC_DLL@DV?$ChTraitsCRT@D@ATL@@@@@ATL@@QAE@XZ
__unwindfunclet$?GetStockMasterData@CCondTarget@@QAEHAAVCStringArray@@0@Z$8:
  00036	8d 4d e8	 lea	 ecx, DWORD PTR $T5[ebp]
  00039	ff 25 00 00 00
	00		 jmp	 DWORD PTR __imp_??1?$CStringT@DV?$StrTraitMFC_DLL@DV?$ChTraitsCRT@D@ATL@@@@@ATL@@QAE@XZ
__unwindfunclet$?GetStockMasterData@CCondTarget@@QAEHAAVCStringArray@@0@Z$9:
  0003f	8b 4d dc	 mov	 ecx, DWORD PTR $T2[ebp]
  00042	ff 25 00 00 00
	00		 jmp	 DWORD PTR __imp_??1?$CStringT@DV?$StrTraitMFC_DLL@DV?$ChTraitsCRT@D@ATL@@@@@ATL@@QAE@XZ
  00048	cc		 int	 3
  00049	cc		 int	 3
  0004a	cc		 int	 3
  0004b	cc		 int	 3
  0004c	cc		 int	 3
__ehhandler$?GetStockMasterData@CCondTarget@@QAEHAAVCStringArray@@0@Z:
  0004d	90		 npad	 1
  0004e	90		 npad	 1
  0004f	8b 54 24 08	 mov	 edx, DWORD PTR [esp+8]
  00053	8d 42 0c	 lea	 eax, DWORD PTR [edx+12]
  00056	8b 4a dc	 mov	 ecx, DWORD PTR [edx-36]
  00059	33 c8		 xor	 ecx, eax
  0005b	e8 00 00 00 00	 call	 @__security_check_cookie@4
  00060	b8 00 00 00 00	 mov	 eax, OFFSET __ehfuncinfo$?GetStockMasterData@CCondTarget@@QAEHAAVCStringArray@@0@Z
  00065	e9 00 00 00 00	 jmp	 ___CxxFrameHandler3
text$x	ENDS
?GetStockMasterData@CCondTarget@@QAEHAAVCStringArray@@0@Z ENDP ; CCondTarget::GetStockMasterData
; Function compile flags: /Ogtp
; File D:\git\src\IBK\IBK_DRFN\ProjSrc\SrcDrfn\Chart\MULTICHART\CondTarget.cpp
; File C:\Program Files (x86)\Microsoft Visual Studio\2019\Community\VC\Tools\MSVC\14.29.30133\atlmfc\include\atlsimpstr.h
; File D:\git\src\IBK\IBK_DRFN\ProjSrc\SrcDrfn\Chart\MULTICHART\CondTarget.cpp
; File C:\Program Files (x86)\Microsoft Visual Studio\2019\Community\VC\Tools\MSVC\14.29.30133\atlmfc\include\atlsimpstr.h
; File D:\git\src\IBK\IBK_DRFN\ProjSrc\SrcDrfn\Chart\MULTICHART\CondTarget.cpp
;	COMDAT ?Parser@CCondTarget@@QAE?AV?$CStringT@DV?$StrTraitMFC_DLL@DV?$ChTraitsCRT@D@ATL@@@@@ATL@@AAV23@V23@@Z
_TEXT	SEGMENT
$T2 = -16						; size = 4
__$EHRec$ = -12						; size = 12
___$ReturnUdt$ = 8					; size = 4
_sTmp$3 = 12						; size = 4
_sTmp$4 = 12						; size = 4
_sSrc$ = 12						; size = 4
_sDelimiter$ = 16					; size = 4
?Parser@CCondTarget@@QAE?AV?$CStringT@DV?$StrTraitMFC_DLL@DV?$ChTraitsCRT@D@ATL@@@@@ATL@@AAV23@V23@@Z PROC ; CCondTarget::Parser, COMDAT
; _this$ = ecx

; 648  : {

  00000	55		 push	 ebp
  00001	8b ec		 mov	 ebp, esp
  00003	6a ff		 push	 -1
  00005	68 00 00 00 00	 push	 __ehhandler$?Parser@CCondTarget@@QAE?AV?$CStringT@DV?$StrTraitMFC_DLL@DV?$ChTraitsCRT@D@ATL@@@@@ATL@@AAV23@V23@@Z
  0000a	64 a1 00 00 00
	00		 mov	 eax, DWORD PTR fs:0
  00010	50		 push	 eax
  00011	51		 push	 ecx
  00012	56		 push	 esi
  00013	57		 push	 edi
  00014	a1 00 00 00 00	 mov	 eax, DWORD PTR ___security_cookie
  00019	33 c5		 xor	 eax, ebp
  0001b	50		 push	 eax
  0001c	8d 45 f4	 lea	 eax, DWORD PTR __$EHRec$[ebp]
  0001f	64 a3 00 00 00
	00		 mov	 DWORD PTR fs:0, eax

; 649  : 	if (sSrc.Find(sDelimiter) == -1)

  00025	8b 7d 0c	 mov	 edi, DWORD PTR _sSrc$[ebp]
  00028	8b cf		 mov	 ecx, edi
  0002a	6a 00		 push	 0
  0002c	ff 75 10	 push	 DWORD PTR _sDelimiter$[ebp]
  0002f	c7 45 fc 00 00
	00 00		 mov	 DWORD PTR __$EHRec$[ebp+8], 0
  00036	ff 15 00 00 00
	00		 call	 DWORD PTR __imp_?Find@?$CStringT@DV?$StrTraitMFC_DLL@DV?$ChTraitsCRT@D@ATL@@@@@ATL@@QBEHPBDH@Z
  0003c	83 f8 ff	 cmp	 eax, -1
  0003f	75 18		 jne	 SHORT $LN2@Parser

; 650  : 	{
; 651  : 		CString sTmp = sSrc;

  00041	57		 push	 edi
  00042	8d 4d 0c	 lea	 ecx, DWORD PTR _sTmp$4[ebp]
  00045	ff 15 00 00 00
	00		 call	 DWORD PTR __imp_??0?$CStringT@DV?$StrTraitMFC_DLL@DV?$ChTraitsCRT@D@ATL@@@@@ATL@@QAE@ABV01@@Z

; 652  : 		sSrc.Empty();

  0004b	8b cf		 mov	 ecx, edi
  0004d	c6 45 fc 01	 mov	 BYTE PTR __$EHRec$[ebp+8], 1
  00051	ff 15 00 00 00
	00		 call	 DWORD PTR __imp_?Empty@?$CSimpleStringT@D$00@ATL@@QAEXXZ

; 653  : 		return sTmp;

  00057	eb 58		 jmp	 SHORT $LN22@Parser
$LN2@Parser:

; 654  : 	}
; 655  : 	else
; 656  : 	{
; 657  : 		CString sTmp = sSrc.Left(sSrc.Find(sDelimiter));

  00059	6a 00		 push	 0
  0005b	ff 75 10	 push	 DWORD PTR _sDelimiter$[ebp]
  0005e	8b cf		 mov	 ecx, edi
  00060	ff 15 00 00 00
	00		 call	 DWORD PTR __imp_?Find@?$CStringT@DV?$StrTraitMFC_DLL@DV?$ChTraitsCRT@D@ATL@@@@@ATL@@QBEHPBDH@Z
  00066	50		 push	 eax
  00067	8d 45 0c	 lea	 eax, DWORD PTR _sTmp$3[ebp]
  0006a	8b cf		 mov	 ecx, edi
  0006c	50		 push	 eax
  0006d	ff 15 00 00 00
	00		 call	 DWORD PTR __imp_?Left@?$CStringT@DV?$StrTraitMFC_DLL@DV?$ChTraitsCRT@D@ATL@@@@@ATL@@QBE?AV12@H@Z
; File C:\Program Files (x86)\Microsoft Visual Studio\2019\Community\VC\Tools\MSVC\14.29.30133\atlmfc\include\atlsimpstr.h

; 519  : 		return( GetData()->nDataLength );

  00073	8b 45 10	 mov	 eax, DWORD PTR _sDelimiter$[ebp]
; File D:\git\src\IBK\IBK_DRFN\ProjSrc\SrcDrfn\Chart\MULTICHART\CondTarget.cpp

; 658  : 		sSrc = sSrc.Mid(sSrc.Find(sDelimiter) + sDelimiter.GetLength());

  00076	8b cf		 mov	 ecx, edi
  00078	6a 00		 push	 0
  0007a	50		 push	 eax
  0007b	c6 45 fc 02	 mov	 BYTE PTR __$EHRec$[ebp+8], 2
; File C:\Program Files (x86)\Microsoft Visual Studio\2019\Community\VC\Tools\MSVC\14.29.30133\atlmfc\include\atlsimpstr.h

; 519  : 		return( GetData()->nDataLength );

  0007f	8b 70 f4	 mov	 esi, DWORD PTR [eax-12]
; File D:\git\src\IBK\IBK_DRFN\ProjSrc\SrcDrfn\Chart\MULTICHART\CondTarget.cpp

; 658  : 		sSrc = sSrc.Mid(sSrc.Find(sDelimiter) + sDelimiter.GetLength());

  00082	ff 15 00 00 00
	00		 call	 DWORD PTR __imp_?Find@?$CStringT@DV?$StrTraitMFC_DLL@DV?$ChTraitsCRT@D@ATL@@@@@ATL@@QBEHPBDH@Z
  00088	03 c6		 add	 eax, esi
  0008a	8b cf		 mov	 ecx, edi
  0008c	50		 push	 eax
  0008d	8d 45 f0	 lea	 eax, DWORD PTR $T2[ebp]
  00090	50		 push	 eax
  00091	ff 15 00 00 00
	00		 call	 DWORD PTR __imp_?Mid@?$CStringT@DV?$StrTraitMFC_DLL@DV?$ChTraitsCRT@D@ATL@@@@@ATL@@QBE?AV12@H@Z
  00097	50		 push	 eax
  00098	8b cf		 mov	 ecx, edi
  0009a	c6 45 fc 03	 mov	 BYTE PTR __$EHRec$[ebp+8], 3
  0009e	ff 15 00 00 00
	00		 call	 DWORD PTR __imp_??4?$CStringT@DV?$StrTraitMFC_DLL@DV?$ChTraitsCRT@D@ATL@@@@@ATL@@QAEAAV01@ABV01@@Z
  000a4	8d 4d f0	 lea	 ecx, DWORD PTR $T2[ebp]
  000a7	c6 45 fc 02	 mov	 BYTE PTR __$EHRec$[ebp+8], 2
  000ab	ff 15 00 00 00
	00		 call	 DWORD PTR __imp_??1?$CStringT@DV?$StrTraitMFC_DLL@DV?$ChTraitsCRT@D@ATL@@@@@ATL@@QAE@XZ
$LN22@Parser:

; 659  : 		return sTmp;
; 660  : 	}
; 661  : 	
; 662  : 	return "";
; 663  : }

  000b1	8b 4d 08	 mov	 ecx, DWORD PTR ___$ReturnUdt$[ebp]
  000b4	8d 45 0c	 lea	 eax, DWORD PTR _sTmp$3[ebp]
  000b7	50		 push	 eax
  000b8	ff 15 00 00 00
	00		 call	 DWORD PTR __imp_??0?$CStringT@DV?$StrTraitMFC_DLL@DV?$ChTraitsCRT@D@ATL@@@@@ATL@@QAE@ABV01@@Z
  000be	8d 4d 0c	 lea	 ecx, DWORD PTR _sTmp$3[ebp]
  000c1	ff 15 00 00 00
	00		 call	 DWORD PTR __imp_??1?$CStringT@DV?$StrTraitMFC_DLL@DV?$ChTraitsCRT@D@ATL@@@@@ATL@@QAE@XZ
  000c7	8d 4d 10	 lea	 ecx, DWORD PTR _sDelimiter$[ebp]
  000ca	ff 15 00 00 00
	00		 call	 DWORD PTR __imp_??1?$CStringT@DV?$StrTraitMFC_DLL@DV?$ChTraitsCRT@D@ATL@@@@@ATL@@QAE@XZ
  000d0	8b 45 08	 mov	 eax, DWORD PTR ___$ReturnUdt$[ebp]
  000d3	8b 4d f4	 mov	 ecx, DWORD PTR __$EHRec$[ebp]
  000d6	64 89 0d 00 00
	00 00		 mov	 DWORD PTR fs:0, ecx
  000dd	59		 pop	 ecx
  000de	5f		 pop	 edi
  000df	5e		 pop	 esi
  000e0	8b e5		 mov	 esp, ebp
  000e2	5d		 pop	 ebp
  000e3	c2 0c 00	 ret	 12			; 0000000cH
_TEXT	ENDS
;	COMDAT text$x
text$x	SEGMENT
__unwindfunclet$?Parser@CCondTarget@@QAE?AV?$CStringT@DV?$StrTraitMFC_DLL@DV?$ChTraitsCRT@D@ATL@@@@@ATL@@AAV23@V23@@Z$0:
  00000	8d 4d 10	 lea	 ecx, DWORD PTR _sDelimiter$[ebp]
  00003	ff 25 00 00 00
	00		 jmp	 DWORD PTR __imp_??1?$CStringT@DV?$StrTraitMFC_DLL@DV?$ChTraitsCRT@D@ATL@@@@@ATL@@QAE@XZ
__unwindfunclet$?Parser@CCondTarget@@QAE?AV?$CStringT@DV?$StrTraitMFC_DLL@DV?$ChTraitsCRT@D@ATL@@@@@ATL@@AAV23@V23@@Z$1:
  00009	8d 4d 0c	 lea	 ecx, DWORD PTR _sTmp$4[ebp]
  0000c	ff 25 00 00 00
	00		 jmp	 DWORD PTR __imp_??1?$CStringT@DV?$StrTraitMFC_DLL@DV?$ChTraitsCRT@D@ATL@@@@@ATL@@QAE@XZ
__unwindfunclet$?Parser@CCondTarget@@QAE?AV?$CStringT@DV?$StrTraitMFC_DLL@DV?$ChTraitsCRT@D@ATL@@@@@ATL@@AAV23@V23@@Z$3:
  00012	8d 4d 0c	 lea	 ecx, DWORD PTR _sTmp$3[ebp]
  00015	ff 25 00 00 00
	00		 jmp	 DWORD PTR __imp_??1?$CStringT@DV?$StrTraitMFC_DLL@DV?$ChTraitsCRT@D@ATL@@@@@ATL@@QAE@XZ
__unwindfunclet$?Parser@CCondTarget@@QAE?AV?$CStringT@DV?$StrTraitMFC_DLL@DV?$ChTraitsCRT@D@ATL@@@@@ATL@@AAV23@V23@@Z$4:
  0001b	8d 4d f0	 lea	 ecx, DWORD PTR $T2[ebp]
  0001e	ff 25 00 00 00
	00		 jmp	 DWORD PTR __imp_??1?$CStringT@DV?$StrTraitMFC_DLL@DV?$ChTraitsCRT@D@ATL@@@@@ATL@@QAE@XZ
  00024	cc		 int	 3
  00025	cc		 int	 3
  00026	cc		 int	 3
  00027	cc		 int	 3
  00028	cc		 int	 3
__ehhandler$?Parser@CCondTarget@@QAE?AV?$CStringT@DV?$StrTraitMFC_DLL@DV?$ChTraitsCRT@D@ATL@@@@@ATL@@AAV23@V23@@Z:
  00029	90		 npad	 1
  0002a	90		 npad	 1
  0002b	8b 54 24 08	 mov	 edx, DWORD PTR [esp+8]
  0002f	8d 42 0c	 lea	 eax, DWORD PTR [edx+12]
  00032	8b 4a f0	 mov	 ecx, DWORD PTR [edx-16]
  00035	33 c8		 xor	 ecx, eax
  00037	e8 00 00 00 00	 call	 @__security_check_cookie@4
  0003c	b8 00 00 00 00	 mov	 eax, OFFSET __ehfuncinfo$?Parser@CCondTarget@@QAE?AV?$CStringT@DV?$StrTraitMFC_DLL@DV?$ChTraitsCRT@D@ATL@@@@@ATL@@AAV23@V23@@Z
  00041	e9 00 00 00 00	 jmp	 ___CxxFrameHandler3
text$x	ENDS
?Parser@CCondTarget@@QAE?AV?$CStringT@DV?$StrTraitMFC_DLL@DV?$ChTraitsCRT@D@ATL@@@@@ATL@@AAV23@V23@@Z ENDP ; CCondTarget::Parser
; Function compile flags: /Ogtp
; File D:\git\src\IBK\IBK_DRFN\ProjSrc\SrcDrfn\Chart\MULTICHART\CondTarget.cpp
; File C:\Program Files (x86)\Microsoft Visual Studio\2019\Community\VC\Tools\MSVC\14.29.30133\atlmfc\include\afxcoll.inl
; File D:\git\src\IBK\IBK_DRFN\ProjSrc\SrcDrfn\Chart\MULTICHART\CondTarget.cpp
; File C:\Program Files (x86)\Microsoft Visual Studio\2019\Community\VC\Tools\MSVC\14.29.30133\atlmfc\include\afxcoll.inl
; File D:\git\src\IBK\IBK_DRFN\ProjSrc\SrcDrfn\Chart\MULTICHART\CondTarget.cpp
; File C:\Program Files (x86)\Microsoft Visual Studio\2019\Community\VC\Tools\MSVC\14.29.30133\atlmfc\include\atlsimpstr.h
; File D:\git\src\IBK\IBK_DRFN\ProjSrc\SrcDrfn\Chart\MULTICHART\CondTarget.cpp
; File C:\Program Files (x86)\Microsoft Visual Studio\2019\Community\VC\Tools\MSVC\14.29.30133\atlmfc\include\cstringt.h
; File D:\git\src\IBK\IBK_DRFN\ProjSrc\SrcDrfn\Chart\MULTICHART\CondTarget.cpp
; File C:\Program Files (x86)\Microsoft Visual Studio\2019\Community\VC\Tools\MSVC\14.29.30133\atlmfc\include\atlsimpstr.h
; File D:\git\src\IBK\IBK_DRFN\ProjSrc\SrcDrfn\Chart\MULTICHART\CondTarget.cpp
; File C:\Program Files (x86)\Microsoft Visual Studio\2019\Community\VC\Tools\MSVC\14.29.30133\atlmfc\include\atlsimpstr.h
; File D:\git\src\IBK\IBK_DRFN\ProjSrc\SrcDrfn\Chart\MULTICHART\CondTarget.cpp
; File C:\Program Files (x86)\Microsoft Visual Studio\2019\Community\VC\Tools\MSVC\14.29.30133\atlmfc\include\atlsimpstr.h
; File D:\git\src\IBK\IBK_DRFN\ProjSrc\SrcDrfn\Chart\MULTICHART\CondTarget.cpp
; File C:\Program Files (x86)\Microsoft Visual Studio\2019\Community\VC\Tools\MSVC\14.29.30133\atlmfc\include\afxcoll.inl
; File D:\git\src\IBK\IBK_DRFN\ProjSrc\SrcDrfn\Chart\MULTICHART\CondTarget.cpp
;	COMDAT ?GetItemCodeFromThemeGroup@CCondTarget@@QAEXAAVCStringArray@@V?$CStringT@DV?$StrTraitMFC_DLL@DV?$ChTraitsCRT@D@ATL@@@@@ATL@@@Z
_TEXT	SEGMENT
tv419 = -1084						; size = 4
$T2 = -1084						; size = 4
_sTmp$3 = -1080						; size = 4
_sTmp$4 = -1076						; size = 4
_sFile$ = -1072						; size = 4
_sName$5 = -1068					; size = 4
$T6 = -1064						; size = 4
_sData$7 = -1060					; size = 4
_sTheCode$8 = -1056					; size = 4
_sCode$9 = -1052					; size = 4
_sKey$10 = -1048					; size = 4
_sCList$11 = -1044					; size = 4
_szCList$12 = -1040					; size = 512
_szBuf$13 = -528					; size = 512
__$ArrayPad$ = -16					; size = 4
__$EHRec$ = -12						; size = 12
_arrCode$ = 8						; size = 4
_strThemeIndex$ = 12					; size = 4
?GetItemCodeFromThemeGroup@CCondTarget@@QAEXAAVCStringArray@@V?$CStringT@DV?$StrTraitMFC_DLL@DV?$ChTraitsCRT@D@ATL@@@@@ATL@@@Z PROC ; CCondTarget::GetItemCodeFromThemeGroup, COMDAT
; _this$ = ecx

; 588  : {

  00000	55		 push	 ebp
  00001	8b ec		 mov	 ebp, esp
  00003	6a ff		 push	 -1
  00005	68 00 00 00 00	 push	 __ehhandler$?GetItemCodeFromThemeGroup@CCondTarget@@QAEXAAVCStringArray@@V?$CStringT@DV?$StrTraitMFC_DLL@DV?$ChTraitsCRT@D@ATL@@@@@ATL@@@Z
  0000a	64 a1 00 00 00
	00		 mov	 eax, DWORD PTR fs:0
  00010	50		 push	 eax
  00011	81 ec 30 04 00
	00		 sub	 esp, 1072		; 00000430H
  00017	a1 00 00 00 00	 mov	 eax, DWORD PTR ___security_cookie
  0001c	33 c5		 xor	 eax, ebp
  0001e	89 45 f0	 mov	 DWORD PTR __$ArrayPad$[ebp], eax
  00021	53		 push	 ebx
  00022	56		 push	 esi
  00023	57		 push	 edi
  00024	50		 push	 eax
  00025	8d 45 f4	 lea	 eax, DWORD PTR __$EHRec$[ebp]
  00028	64 a3 00 00 00
	00		 mov	 DWORD PTR fs:0, eax
  0002e	8b f1		 mov	 esi, ecx
  00030	8b 5d 08	 mov	 ebx, DWORD PTR _arrCode$[ebp]
; File C:\Program Files (x86)\Microsoft Visual Studio\2019\Community\VC\Tools\MSVC\14.29.30133\atlmfc\include\afxcoll.inl

; 286  : 	{ SetSize(0); }

  00033	6a ff		 push	 -1
  00035	6a 00		 push	 0
  00037	8b cb		 mov	 ecx, ebx
; File D:\git\src\IBK\IBK_DRFN\ProjSrc\SrcDrfn\Chart\MULTICHART\CondTarget.cpp

; 588  : {

  00039	c7 45 fc 00 00
	00 00		 mov	 DWORD PTR __$EHRec$[ebp+8], 0
; File C:\Program Files (x86)\Microsoft Visual Studio\2019\Community\VC\Tools\MSVC\14.29.30133\atlmfc\include\afxcoll.inl

; 286  : 	{ SetSize(0); }

  00040	e8 00 00 00 00	 call	 ?SetSize@CStringArray@@QAEXHH@Z ; CStringArray::SetSize
; File D:\git\src\IBK\IBK_DRFN\ProjSrc\SrcDrfn\Chart\MULTICHART\CondTarget.cpp

; 591  : 	CString sFile;

  00045	8d 8d d0 fb ff
	ff		 lea	 ecx, DWORD PTR _sFile$[ebp]
  0004b	ff 15 00 00 00
	00		 call	 DWORD PTR __imp_??0?$CStringT@DV?$StrTraitMFC_DLL@DV?$ChTraitsCRT@D@ATL@@@@@ATL@@QAE@XZ

; 592  : 	sFile.Format("%s\\tab\\%s", m_strRootDir, FILE_THEME);

  00051	ff 35 00 00 00
	00		 push	 DWORD PTR ?FILE_THEME@@3PBDB
  00057	8b 3d 00 00 00
	00		 mov	 edi, DWORD PTR __imp_?Format@?$CStringT@DV?$StrTraitMFC_DLL@DV?$ChTraitsCRT@D@ATL@@@@@ATL@@QAAXPBDZZ
  0005d	8d 85 d0 fb ff
	ff		 lea	 eax, DWORD PTR _sFile$[ebp]
  00063	ff 76 08	 push	 DWORD PTR [esi+8]
  00066	c6 45 fc 01	 mov	 BYTE PTR __$EHRec$[ebp+8], 1
  0006a	68 00 00 00 00	 push	 OFFSET ??_C@_09PNJEFEEK@?$CFs?2tab?2?$CFs@
  0006f	50		 push	 eax
  00070	ff d7		 call	 edi
  00072	83 c4 10	 add	 esp, 16			; 00000010H

; 593  : 	
; 594  : 	for (int i = 0; ; i++)

  00075	33 f6		 xor	 esi, esi
  00077	66 0f 1f 84 00
	00 00 00 00	 npad	 9
$LL4@GetItemCod:

; 595  : 	{
; 596  : 		char szBuf[BUFSIZ] = { 0x00, };

  00080	68 00 02 00 00	 push	 512			; 00000200H
  00085	8d 85 f0 fd ff
	ff		 lea	 eax, DWORD PTR _szBuf$13[ebp]
  0008b	6a 00		 push	 0
  0008d	50		 push	 eax
  0008e	e8 00 00 00 00	 call	 _memset
  00093	83 c4 0c	 add	 esp, 12			; 0000000cH

; 597  : 		CString sKey;

  00096	8d 8d e8 fb ff
	ff		 lea	 ecx, DWORD PTR _sKey$10[ebp]
  0009c	ff 15 00 00 00
	00		 call	 DWORD PTR __imp_??0?$CStringT@DV?$StrTraitMFC_DLL@DV?$ChTraitsCRT@D@ATL@@@@@ATL@@QAE@XZ
  000a2	c6 45 fc 02	 mov	 BYTE PTR __$EHRec$[ebp+8], 2

; 598  : 		
; 599  : 		if (i < 100)

  000a6	8d 85 e8 fb ff
	ff		 lea	 eax, DWORD PTR _sKey$10[ebp]
  000ac	56		 push	 esi
  000ad	83 fe 64	 cmp	 esi, 100		; 00000064H
  000b0	7d 07		 jge	 SHORT $LN7@GetItemCod

; 600  : 			sKey.Format("%02d", i);

  000b2	68 00 00 00 00	 push	 OFFSET ??_C@_04OGKJMPGK@?$CF02d@
  000b7	eb 05		 jmp	 SHORT $LN80@GetItemCod
$LN7@GetItemCod:

; 601  : 		else
; 602  : 			sKey.Format("%03d", i);

  000b9	68 00 00 00 00	 push	 OFFSET ??_C@_04OHGLKFFN@?$CF03d@
$LN80@GetItemCod:

; 603  : 		
; 604  : 		GetPrivateProfileString("FOLDER", sKey, "", szBuf, sizeof(szBuf), sFile);

  000be	50		 push	 eax
  000bf	ff d7		 call	 edi
  000c1	83 c4 0c	 add	 esp, 12			; 0000000cH
  000c4	8d 85 f0 fd ff
	ff		 lea	 eax, DWORD PTR _szBuf$13[ebp]
  000ca	ff b5 d0 fb ff
	ff		 push	 DWORD PTR _sFile$[ebp]
  000d0	68 00 02 00 00	 push	 512			; 00000200H
  000d5	50		 push	 eax
  000d6	68 00 00 00 00	 push	 OFFSET ??_C@_00CNPNBAHC@@
  000db	ff b5 e8 fb ff
	ff		 push	 DWORD PTR _sKey$10[ebp]
  000e1	68 00 00 00 00	 push	 OFFSET ??_C@_06MMOPNCKE@FOLDER@
  000e6	ff 15 00 00 00
	00		 call	 DWORD PTR __imp__GetPrivateProfileStringA@24

; 605  : 		
; 606  : 		if (strlen(szBuf) <= 0)

  000ec	8d 85 f0 fd ff
	ff		 lea	 eax, DWORD PTR _szBuf$13[ebp]
  000f2	8d 50 01	 lea	 edx, DWORD PTR [eax+1]
$LL78@GetItemCod:
  000f5	8a 08		 mov	 cl, BYTE PTR [eax]
  000f7	40		 inc	 eax
  000f8	84 c9		 test	 cl, cl
  000fa	75 f9		 jne	 SHORT $LL78@GetItemCod
  000fc	2b c2		 sub	 eax, edx
  000fe	0f 84 cb 02 00
	00		 je	 $LN72@GetItemCod

; 607  : 			break;
; 608  : 		
; 609  : 		CString sData = szBuf;

  00104	8d 85 f0 fd ff
	ff		 lea	 eax, DWORD PTR _szBuf$13[ebp]
  0010a	50		 push	 eax
  0010b	8d 8d dc fb ff
	ff		 lea	 ecx, DWORD PTR _sData$7[ebp]
  00111	ff 15 00 00 00
	00		 call	 DWORD PTR __imp_??0?$CStringT@DV?$StrTraitMFC_DLL@DV?$ChTraitsCRT@D@ATL@@@@@ATL@@QAE@PBD@Z
; File C:\Program Files (x86)\Microsoft Visual Studio\2019\Community\VC\Tools\MSVC\14.29.30133\atlmfc\include\atlsimpstr.h

; 519  : 		return( GetData()->nDataLength );

  00117	8b 85 dc fb ff
	ff		 mov	 eax, DWORD PTR _sData$7[ebp]
; File D:\git\src\IBK\IBK_DRFN\ProjSrc\SrcDrfn\Chart\MULTICHART\CondTarget.cpp

; 611  : 		if (sData.GetLength() < 33)

  0011d	8d 8d dc fb ff
	ff		 lea	 ecx, DWORD PTR _sData$7[ebp]
  00123	c6 45 fc 03	 mov	 BYTE PTR __$EHRec$[ebp+8], 3
  00127	83 78 f4 21	 cmp	 DWORD PTR [eax-12], 33	; 00000021H
  0012b	0f 8c 8d 00 00
	00		 jl	 $LN81@GetItemCod

; 612  : 			continue;
; 613  : 		
; 614  : 		CString sName = sData.Left(30);

  00131	6a 1e		 push	 30			; 0000001eH
  00133	8d 85 d4 fb ff
	ff		 lea	 eax, DWORD PTR _sName$5[ebp]
  00139	50		 push	 eax
  0013a	ff 15 00 00 00
	00		 call	 DWORD PTR __imp_?Left@?$CStringT@DV?$StrTraitMFC_DLL@DV?$ChTraitsCRT@D@ATL@@@@@ATL@@QBE?AV12@H@Z

; 615  : 		CString sTheCode = sData.Right(3);

  00140	6a 03		 push	 3
  00142	8d 85 e0 fb ff
	ff		 lea	 eax, DWORD PTR _sTheCode$8[ebp]
  00148	c6 45 fc 04	 mov	 BYTE PTR __$EHRec$[ebp+8], 4
  0014c	50		 push	 eax
  0014d	8d 8d dc fb ff
	ff		 lea	 ecx, DWORD PTR _sData$7[ebp]
  00153	ff 15 00 00 00
	00		 call	 DWORD PTR __imp_?Right@?$CStringT@DV?$StrTraitMFC_DLL@DV?$ChTraitsCRT@D@ATL@@@@@ATL@@QBE?AV12@H@Z

; 616  : 		
; 617  : 		sName.TrimLeft(); sName.TrimRight();

  00159	8d 8d d4 fb ff
	ff		 lea	 ecx, DWORD PTR _sName$5[ebp]
  0015f	c6 45 fc 05	 mov	 BYTE PTR __$EHRec$[ebp+8], 5
  00163	ff 15 00 00 00
	00		 call	 DWORD PTR __imp_?TrimLeft@?$CStringT@DV?$StrTraitMFC_DLL@DV?$ChTraitsCRT@D@ATL@@@@@ATL@@QAEAAV12@XZ
  00169	8d 8d d4 fb ff
	ff		 lea	 ecx, DWORD PTR _sName$5[ebp]
  0016f	ff 15 00 00 00
	00		 call	 DWORD PTR __imp_?TrimRight@?$CStringT@DV?$StrTraitMFC_DLL@DV?$ChTraitsCRT@D@ATL@@@@@ATL@@QAEAAV12@XZ

; 618  : 		sTheCode.TrimLeft(); sTheCode.TrimRight();

  00175	8d 8d e0 fb ff
	ff		 lea	 ecx, DWORD PTR _sTheCode$8[ebp]
  0017b	ff 15 00 00 00
	00		 call	 DWORD PTR __imp_?TrimLeft@?$CStringT@DV?$StrTraitMFC_DLL@DV?$ChTraitsCRT@D@ATL@@@@@ATL@@QAEAAV12@XZ
  00181	8d 8d e0 fb ff
	ff		 lea	 ecx, DWORD PTR _sTheCode$8[ebp]
  00187	ff 15 00 00 00
	00		 call	 DWORD PTR __imp_?TrimRight@?$CStringT@DV?$StrTraitMFC_DLL@DV?$ChTraitsCRT@D@ATL@@@@@ATL@@QAEAAV12@XZ
; File C:\Program Files (x86)\Microsoft Visual Studio\2019\Community\VC\Tools\MSVC\14.29.30133\atlmfc\include\cstringt.h

; 2560 : 		return( str1.Compare( str2 ) != 0 );

  0018d	ff b5 e0 fb ff
	ff		 push	 DWORD PTR _sTheCode$8[ebp]
  00193	8d 4d 0c	 lea	 ecx, DWORD PTR _strThemeIndex$[ebp]
  00196	ff 15 00 00 00
	00		 call	 DWORD PTR __imp_?Compare@?$CStringT@DV?$StrTraitMFC_DLL@DV?$ChTraitsCRT@D@ATL@@@@@ATL@@QBEHPBD@Z
  0019c	85 c0		 test	 eax, eax
; File D:\git\src\IBK\IBK_DRFN\ProjSrc\SrcDrfn\Chart\MULTICHART\CondTarget.cpp

; 620  : 		if(strThemeIndex != sTheCode)

  0019e	74 36		 je	 SHORT $LN11@GetItemCod

; 621  : 			continue;

  001a0	8d 8d e0 fb ff
	ff		 lea	 ecx, DWORD PTR _sTheCode$8[ebp]
  001a6	ff 15 00 00 00
	00		 call	 DWORD PTR __imp_??1?$CStringT@DV?$StrTraitMFC_DLL@DV?$ChTraitsCRT@D@ATL@@@@@ATL@@QAE@XZ
  001ac	8d 8d d4 fb ff
	ff		 lea	 ecx, DWORD PTR _sName$5[ebp]
  001b2	ff 15 00 00 00
	00		 call	 DWORD PTR __imp_??1?$CStringT@DV?$StrTraitMFC_DLL@DV?$ChTraitsCRT@D@ATL@@@@@ATL@@QAE@XZ
  001b8	8d 8d dc fb ff
	ff		 lea	 ecx, DWORD PTR _sData$7[ebp]
$LN81@GetItemCod:

; 593  : 	
; 594  : 	for (int i = 0; ; i++)

  001be	ff 15 00 00 00
	00		 call	 DWORD PTR __imp_??1?$CStringT@DV?$StrTraitMFC_DLL@DV?$ChTraitsCRT@D@ATL@@@@@ATL@@QAE@XZ
  001c4	8d 8d e8 fb ff
	ff		 lea	 ecx, DWORD PTR _sKey$10[ebp]
  001ca	ff 15 00 00 00
	00		 call	 DWORD PTR __imp_??1?$CStringT@DV?$StrTraitMFC_DLL@DV?$ChTraitsCRT@D@ATL@@@@@ATL@@QAE@XZ
  001d0	46		 inc	 esi
  001d1	e9 aa fe ff ff	 jmp	 $LL4@GetItemCod
$LN11@GetItemCod:

; 622  : 		
; 623  : 		char szCList[BUFSIZ] = { 0x00, };

  001d6	68 00 02 00 00	 push	 512			; 00000200H
  001db	8d 85 f0 fb ff
	ff		 lea	 eax, DWORD PTR _szCList$12[ebp]
  001e1	6a 00		 push	 0
  001e3	50		 push	 eax
  001e4	e8 00 00 00 00	 call	 _memset
  001e9	83 c4 0c	 add	 esp, 12			; 0000000cH

; 624  : 		GetPrivateProfileString("TMCODE", sTheCode, "", szCList, sizeof(szCList), sFile);

  001ec	8d 85 f0 fb ff
	ff		 lea	 eax, DWORD PTR _szCList$12[ebp]
  001f2	ff b5 d0 fb ff
	ff		 push	 DWORD PTR _sFile$[ebp]
  001f8	68 00 02 00 00	 push	 512			; 00000200H
  001fd	50		 push	 eax
  001fe	68 00 00 00 00	 push	 OFFSET ??_C@_00CNPNBAHC@@
  00203	ff b5 e0 fb ff
	ff		 push	 DWORD PTR _sTheCode$8[ebp]
  00209	68 00 00 00 00	 push	 OFFSET ??_C@_06CAHGAADJ@TMCODE@
  0020e	ff 15 00 00 00
	00		 call	 DWORD PTR __imp__GetPrivateProfileStringA@24

; 625  : 		
; 626  : 		CString sCList = szCList;

  00214	8d 85 f0 fb ff
	ff		 lea	 eax, DWORD PTR _szCList$12[ebp]
  0021a	50		 push	 eax
  0021b	8d 8d ec fb ff
	ff		 lea	 ecx, DWORD PTR _sCList$11[ebp]
  00221	ff 15 00 00 00
	00		 call	 DWORD PTR __imp_??0?$CStringT@DV?$StrTraitMFC_DLL@DV?$ChTraitsCRT@D@ATL@@@@@ATL@@QAE@PBD@Z
  00227	c6 45 fc 06	 mov	 BYTE PTR __$EHRec$[ebp+8], 6
  0022b	0f 1f 44 00 00	 npad	 5
$LL5@GetItemCod:

; 627  : 		while (1)
; 628  : 		{
; 629  : 			CString sCode = Parser(sCList, ";");

  00230	68 00 00 00 00	 push	 OFFSET ??_C@_01ICJEACDI@?$DL@
  00235	8d 8d d8 fb ff
	ff		 lea	 ecx, DWORD PTR $T6[ebp]
  0023b	ff 15 00 00 00
	00		 call	 DWORD PTR __imp_??0?$CStringT@DV?$StrTraitMFC_DLL@DV?$ChTraitsCRT@D@ATL@@@@@ATL@@QAE@PBD@Z

; 649  : 	if (sSrc.Find(sDelimiter) == -1)

  00241	6a 00		 push	 0
  00243	ff b5 d8 fb ff
	ff		 push	 DWORD PTR $T6[ebp]
  00249	8d 8d ec fb ff
	ff		 lea	 ecx, DWORD PTR _sCList$11[ebp]
  0024f	c6 45 fc 07	 mov	 BYTE PTR __$EHRec$[ebp+8], 7
  00253	ff 15 00 00 00
	00		 call	 DWORD PTR __imp_?Find@?$CStringT@DV?$StrTraitMFC_DLL@DV?$ChTraitsCRT@D@ATL@@@@@ATL@@QBEHPBDH@Z
  00259	83 f8 ff	 cmp	 eax, -1
  0025c	75 41		 jne	 SHORT $LN44@GetItemCod

; 650  : 	{
; 651  : 		CString sTmp = sSrc;

  0025e	8d 85 ec fb ff
	ff		 lea	 eax, DWORD PTR _sCList$11[ebp]
  00264	50		 push	 eax
  00265	8d 8d cc fb ff
	ff		 lea	 ecx, DWORD PTR _sTmp$4[ebp]
  0026b	ff 15 00 00 00
	00		 call	 DWORD PTR __imp_??0?$CStringT@DV?$StrTraitMFC_DLL@DV?$ChTraitsCRT@D@ATL@@@@@ATL@@QAE@ABV01@@Z

; 652  : 		sSrc.Empty();

  00271	8d 8d ec fb ff
	ff		 lea	 ecx, DWORD PTR _sCList$11[ebp]
  00277	c6 45 fc 08	 mov	 BYTE PTR __$EHRec$[ebp+8], 8
  0027b	ff 15 00 00 00
	00		 call	 DWORD PTR __imp_?Empty@?$CSimpleStringT@D$00@ATL@@QAEXXZ

; 653  : 		return sTmp;

  00281	8d 85 cc fb ff
	ff		 lea	 eax, DWORD PTR _sTmp$4[ebp]
  00287	50		 push	 eax
  00288	8d 8d e4 fb ff
	ff		 lea	 ecx, DWORD PTR _sCode$9[ebp]
  0028e	ff 15 00 00 00
	00		 call	 DWORD PTR __imp_??0?$CStringT@DV?$StrTraitMFC_DLL@DV?$ChTraitsCRT@D@ATL@@@@@ATL@@QAE@ABV01@@Z
  00294	8d 8d cc fb ff
	ff		 lea	 ecx, DWORD PTR _sTmp$4[ebp]
  0029a	e9 94 00 00 00	 jmp	 $LN82@GetItemCod
$LN44@GetItemCod:

; 654  : 	}
; 655  : 	else
; 656  : 	{
; 657  : 		CString sTmp = sSrc.Left(sSrc.Find(sDelimiter));

  0029f	6a 00		 push	 0
  002a1	ff b5 d8 fb ff
	ff		 push	 DWORD PTR $T6[ebp]
  002a7	8d 8d ec fb ff
	ff		 lea	 ecx, DWORD PTR _sCList$11[ebp]
  002ad	ff 15 00 00 00
	00		 call	 DWORD PTR __imp_?Find@?$CStringT@DV?$StrTraitMFC_DLL@DV?$ChTraitsCRT@D@ATL@@@@@ATL@@QBEHPBDH@Z
  002b3	50		 push	 eax
  002b4	8d 85 c8 fb ff
	ff		 lea	 eax, DWORD PTR _sTmp$3[ebp]
  002ba	50		 push	 eax
  002bb	8d 8d ec fb ff
	ff		 lea	 ecx, DWORD PTR _sCList$11[ebp]
  002c1	ff 15 00 00 00
	00		 call	 DWORD PTR __imp_?Left@?$CStringT@DV?$StrTraitMFC_DLL@DV?$ChTraitsCRT@D@ATL@@@@@ATL@@QBE?AV12@H@Z
; File C:\Program Files (x86)\Microsoft Visual Studio\2019\Community\VC\Tools\MSVC\14.29.30133\atlmfc\include\atlsimpstr.h

; 519  : 		return( GetData()->nDataLength );

  002c7	8b 85 d8 fb ff
	ff		 mov	 eax, DWORD PTR $T6[ebp]
; File D:\git\src\IBK\IBK_DRFN\ProjSrc\SrcDrfn\Chart\MULTICHART\CondTarget.cpp

; 658  : 		sSrc = sSrc.Mid(sSrc.Find(sDelimiter) + sDelimiter.GetLength());

  002cd	8d 8d ec fb ff
	ff		 lea	 ecx, DWORD PTR _sCList$11[ebp]
  002d3	6a 00		 push	 0
  002d5	50		 push	 eax
  002d6	c6 45 fc 09	 mov	 BYTE PTR __$EHRec$[ebp+8], 9
; File C:\Program Files (x86)\Microsoft Visual Studio\2019\Community\VC\Tools\MSVC\14.29.30133\atlmfc\include\atlsimpstr.h

; 519  : 		return( GetData()->nDataLength );

  002da	8b 70 f4	 mov	 esi, DWORD PTR [eax-12]
; File D:\git\src\IBK\IBK_DRFN\ProjSrc\SrcDrfn\Chart\MULTICHART\CondTarget.cpp

; 658  : 		sSrc = sSrc.Mid(sSrc.Find(sDelimiter) + sDelimiter.GetLength());

  002dd	ff 15 00 00 00
	00		 call	 DWORD PTR __imp_?Find@?$CStringT@DV?$StrTraitMFC_DLL@DV?$ChTraitsCRT@D@ATL@@@@@ATL@@QBEHPBDH@Z
  002e3	03 c6		 add	 eax, esi
  002e5	8d 8d ec fb ff
	ff		 lea	 ecx, DWORD PTR _sCList$11[ebp]
  002eb	50		 push	 eax
  002ec	8d 85 c4 fb ff
	ff		 lea	 eax, DWORD PTR $T2[ebp]
  002f2	50		 push	 eax
  002f3	ff 15 00 00 00
	00		 call	 DWORD PTR __imp_?Mid@?$CStringT@DV?$StrTraitMFC_DLL@DV?$ChTraitsCRT@D@ATL@@@@@ATL@@QBE?AV12@H@Z
  002f9	50		 push	 eax
  002fa	8d 8d ec fb ff
	ff		 lea	 ecx, DWORD PTR _sCList$11[ebp]
  00300	c6 45 fc 0a	 mov	 BYTE PTR __$EHRec$[ebp+8], 10 ; 0000000aH
  00304	ff 15 00 00 00
	00		 call	 DWORD PTR __imp_??4?$CStringT@DV?$StrTraitMFC_DLL@DV?$ChTraitsCRT@D@ATL@@@@@ATL@@QAEAAV01@ABV01@@Z
  0030a	8d 8d c4 fb ff
	ff		 lea	 ecx, DWORD PTR $T2[ebp]
  00310	c6 45 fc 09	 mov	 BYTE PTR __$EHRec$[ebp+8], 9
  00314	ff 15 00 00 00
	00		 call	 DWORD PTR __imp_??1?$CStringT@DV?$StrTraitMFC_DLL@DV?$ChTraitsCRT@D@ATL@@@@@ATL@@QAE@XZ

; 659  : 		return sTmp;

  0031a	8d 85 c8 fb ff
	ff		 lea	 eax, DWORD PTR _sTmp$3[ebp]
  00320	50		 push	 eax
  00321	8d 8d e4 fb ff
	ff		 lea	 ecx, DWORD PTR _sCode$9[ebp]
  00327	ff 15 00 00 00
	00		 call	 DWORD PTR __imp_??0?$CStringT@DV?$StrTraitMFC_DLL@DV?$ChTraitsCRT@D@ATL@@@@@ATL@@QAE@ABV01@@Z
  0032d	8d 8d c8 fb ff
	ff		 lea	 ecx, DWORD PTR _sTmp$3[ebp]
$LN82@GetItemCod:

; 627  : 		while (1)
; 628  : 		{
; 629  : 			CString sCode = Parser(sCList, ";");

  00333	ff 15 00 00 00
	00		 call	 DWORD PTR __imp_??1?$CStringT@DV?$StrTraitMFC_DLL@DV?$ChTraitsCRT@D@ATL@@@@@ATL@@QAE@XZ
  00339	8d 8d d8 fb ff
	ff		 lea	 ecx, DWORD PTR $T6[ebp]
  0033f	ff 15 00 00 00
	00		 call	 DWORD PTR __imp_??1?$CStringT@DV?$StrTraitMFC_DLL@DV?$ChTraitsCRT@D@ATL@@@@@ATL@@QAE@XZ

; 630  : 			sCode.TrimLeft(); sCode.TrimRight();

  00345	8d 8d e4 fb ff
	ff		 lea	 ecx, DWORD PTR _sCode$9[ebp]
  0034b	c6 45 fc 0b	 mov	 BYTE PTR __$EHRec$[ebp+8], 11 ; 0000000bH
  0034f	ff 15 00 00 00
	00		 call	 DWORD PTR __imp_?TrimLeft@?$CStringT@DV?$StrTraitMFC_DLL@DV?$ChTraitsCRT@D@ATL@@@@@ATL@@QAEAAV12@XZ
  00355	8d 8d e4 fb ff
	ff		 lea	 ecx, DWORD PTR _sCode$9[ebp]
  0035b	ff 15 00 00 00
	00		 call	 DWORD PTR __imp_?TrimRight@?$CStringT@DV?$StrTraitMFC_DLL@DV?$ChTraitsCRT@D@ATL@@@@@ATL@@QAEAAV12@XZ
; File C:\Program Files (x86)\Microsoft Visual Studio\2019\Community\VC\Tools\MSVC\14.29.30133\atlmfc\include\atlsimpstr.h

; 519  : 		return( GetData()->nDataLength );

  00361	8b 85 e4 fb ff
	ff		 mov	 eax, DWORD PTR _sCode$9[ebp]
; File D:\git\src\IBK\IBK_DRFN\ProjSrc\SrcDrfn\Chart\MULTICHART\CondTarget.cpp

; 632  : 			if (sCode.GetLength() <= 0)

  00367	83 78 f4 00	 cmp	 DWORD PTR [eax-12], 0
  0036b	7e 26		 jle	 SHORT $LN73@GetItemCod
; File C:\Program Files (x86)\Microsoft Visual Studio\2019\Community\VC\Tools\MSVC\14.29.30133\atlmfc\include\afxcoll.inl

; 321  : 		SetAtGrow(nIndex, newElement);

  0036d	8d 85 e4 fb ff
	ff		 lea	 eax, DWORD PTR _sCode$9[ebp]
  00373	8b cb		 mov	 ecx, ebx
  00375	50		 push	 eax
  00376	ff 73 08	 push	 DWORD PTR [ebx+8]
  00379	e8 00 00 00 00	 call	 ?SetAtGrow@CStringArray@@QAEXHABV?$CStringT@DV?$StrTraitMFC_DLL@DV?$ChTraitsCRT@D@ATL@@@@@ATL@@@Z ; CStringArray::SetAtGrow
; File D:\git\src\IBK\IBK_DRFN\ProjSrc\SrcDrfn\Chart\MULTICHART\CondTarget.cpp

; 636  : 		}

  0037e	8d 8d e4 fb ff
	ff		 lea	 ecx, DWORD PTR _sCode$9[ebp]
  00384	c6 45 fc 06	 mov	 BYTE PTR __$EHRec$[ebp+8], 6
  00388	ff 15 00 00 00
	00		 call	 DWORD PTR __imp_??1?$CStringT@DV?$StrTraitMFC_DLL@DV?$ChTraitsCRT@D@ATL@@@@@ATL@@QAE@XZ
  0038e	e9 9d fe ff ff	 jmp	 $LL5@GetItemCod
$LN73@GetItemCod:

; 633  : 				break;

  00393	8d 8d e4 fb ff
	ff		 lea	 ecx, DWORD PTR _sCode$9[ebp]
  00399	ff 15 00 00 00
	00		 call	 DWORD PTR __imp_??1?$CStringT@DV?$StrTraitMFC_DLL@DV?$ChTraitsCRT@D@ATL@@@@@ATL@@QAE@XZ

; 637  : 		
; 638  : 		if (arrCode.GetSize() <= 0)

  0039f	8d 8d ec fb ff
	ff		 lea	 ecx, DWORD PTR _sCList$11[ebp]

; 639  : 		{
; 640  : 			return ;
; 641  : 		}
; 642  : 		
; 643  : 		break;
; 644  : 	}
; 645  : }

  003a5	ff 15 00 00 00
	00		 call	 DWORD PTR __imp_??1?$CStringT@DV?$StrTraitMFC_DLL@DV?$ChTraitsCRT@D@ATL@@@@@ATL@@QAE@XZ
  003ab	8d 8d e0 fb ff
	ff		 lea	 ecx, DWORD PTR _sTheCode$8[ebp]
  003b1	ff 15 00 00 00
	00		 call	 DWORD PTR __imp_??1?$CStringT@DV?$StrTraitMFC_DLL@DV?$ChTraitsCRT@D@ATL@@@@@ATL@@QAE@XZ
  003b7	8d 8d d4 fb ff
	ff		 lea	 ecx, DWORD PTR _sName$5[ebp]
  003bd	ff 15 00 00 00
	00		 call	 DWORD PTR __imp_??1?$CStringT@DV?$StrTraitMFC_DLL@DV?$ChTraitsCRT@D@ATL@@@@@ATL@@QAE@XZ
  003c3	8d 8d dc fb ff
	ff		 lea	 ecx, DWORD PTR _sData$7[ebp]
  003c9	ff 15 00 00 00
	00		 call	 DWORD PTR __imp_??1?$CStringT@DV?$StrTraitMFC_DLL@DV?$ChTraitsCRT@D@ATL@@@@@ATL@@QAE@XZ
$LN72@GetItemCod:
  003cf	8d 8d e8 fb ff
	ff		 lea	 ecx, DWORD PTR _sKey$10[ebp]
  003d5	ff 15 00 00 00
	00		 call	 DWORD PTR __imp_??1?$CStringT@DV?$StrTraitMFC_DLL@DV?$ChTraitsCRT@D@ATL@@@@@ATL@@QAE@XZ
  003db	8d 8d d0 fb ff
	ff		 lea	 ecx, DWORD PTR _sFile$[ebp]
  003e1	ff 15 00 00 00
	00		 call	 DWORD PTR __imp_??1?$CStringT@DV?$StrTraitMFC_DLL@DV?$ChTraitsCRT@D@ATL@@@@@ATL@@QAE@XZ
  003e7	8d 4d 0c	 lea	 ecx, DWORD PTR _strThemeIndex$[ebp]
  003ea	ff 15 00 00 00
	00		 call	 DWORD PTR __imp_??1?$CStringT@DV?$StrTraitMFC_DLL@DV?$ChTraitsCRT@D@ATL@@@@@ATL@@QAE@XZ
  003f0	8b 4d f4	 mov	 ecx, DWORD PTR __$EHRec$[ebp]
  003f3	64 89 0d 00 00
	00 00		 mov	 DWORD PTR fs:0, ecx
  003fa	59		 pop	 ecx
  003fb	5f		 pop	 edi
  003fc	5e		 pop	 esi
  003fd	5b		 pop	 ebx
  003fe	8b 4d f0	 mov	 ecx, DWORD PTR __$ArrayPad$[ebp]
  00401	33 cd		 xor	 ecx, ebp
  00403	e8 00 00 00 00	 call	 @__security_check_cookie@4
  00408	8b e5		 mov	 esp, ebp
  0040a	5d		 pop	 ebp
  0040b	c2 08 00	 ret	 8
_TEXT	ENDS
;	COMDAT text$x
text$x	SEGMENT
__unwindfunclet$?GetItemCodeFromThemeGroup@CCondTarget@@QAEXAAVCStringArray@@V?$CStringT@DV?$StrTraitMFC_DLL@DV?$ChTraitsCRT@D@ATL@@@@@ATL@@@Z$0:
  00000	8d 4d 0c	 lea	 ecx, DWORD PTR _strThemeIndex$[ebp]
  00003	ff 25 00 00 00
	00		 jmp	 DWORD PTR __imp_??1?$CStringT@DV?$StrTraitMFC_DLL@DV?$ChTraitsCRT@D@ATL@@@@@ATL@@QAE@XZ
__unwindfunclet$?GetItemCodeFromThemeGroup@CCondTarget@@QAEXAAVCStringArray@@V?$CStringT@DV?$StrTraitMFC_DLL@DV?$ChTraitsCRT@D@ATL@@@@@ATL@@@Z$1:
  00009	8d 8d d0 fb ff
	ff		 lea	 ecx, DWORD PTR _sFile$[ebp]
  0000f	ff 25 00 00 00
	00		 jmp	 DWORD PTR __imp_??1?$CStringT@DV?$StrTraitMFC_DLL@DV?$ChTraitsCRT@D@ATL@@@@@ATL@@QAE@XZ
__unwindfunclet$?GetItemCodeFromThemeGroup@CCondTarget@@QAEXAAVCStringArray@@V?$CStringT@DV?$StrTraitMFC_DLL@DV?$ChTraitsCRT@D@ATL@@@@@ATL@@@Z$2:
  00015	8d 8d e8 fb ff
	ff		 lea	 ecx, DWORD PTR _sKey$10[ebp]
  0001b	ff 25 00 00 00
	00		 jmp	 DWORD PTR __imp_??1?$CStringT@DV?$StrTraitMFC_DLL@DV?$ChTraitsCRT@D@ATL@@@@@ATL@@QAE@XZ
__unwindfunclet$?GetItemCodeFromThemeGroup@CCondTarget@@QAEXAAVCStringArray@@V?$CStringT@DV?$StrTraitMFC_DLL@DV?$ChTraitsCRT@D@ATL@@@@@ATL@@@Z$3:
  00021	8d 8d dc fb ff
	ff		 lea	 ecx, DWORD PTR _sData$7[ebp]
  00027	ff 25 00 00 00
	00		 jmp	 DWORD PTR __imp_??1?$CStringT@DV?$StrTraitMFC_DLL@DV?$ChTraitsCRT@D@ATL@@@@@ATL@@QAE@XZ
__unwindfunclet$?GetItemCodeFromThemeGroup@CCondTarget@@QAEXAAVCStringArray@@V?$CStringT@DV?$StrTraitMFC_DLL@DV?$ChTraitsCRT@D@ATL@@@@@ATL@@@Z$4:
  0002d	8d 8d d4 fb ff
	ff		 lea	 ecx, DWORD PTR _sName$5[ebp]
  00033	ff 25 00 00 00
	00		 jmp	 DWORD PTR __imp_??1?$CStringT@DV?$StrTraitMFC_DLL@DV?$ChTraitsCRT@D@ATL@@@@@ATL@@QAE@XZ
__unwindfunclet$?GetItemCodeFromThemeGroup@CCondTarget@@QAEXAAVCStringArray@@V?$CStringT@DV?$StrTraitMFC_DLL@DV?$ChTraitsCRT@D@ATL@@@@@ATL@@@Z$5:
  00039	8d 8d e0 fb ff
	ff		 lea	 ecx, DWORD PTR _sTheCode$8[ebp]
  0003f	ff 25 00 00 00
	00		 jmp	 DWORD PTR __imp_??1?$CStringT@DV?$StrTraitMFC_DLL@DV?$ChTraitsCRT@D@ATL@@@@@ATL@@QAE@XZ
__unwindfunclet$?GetItemCodeFromThemeGroup@CCondTarget@@QAEXAAVCStringArray@@V?$CStringT@DV?$StrTraitMFC_DLL@DV?$ChTraitsCRT@D@ATL@@@@@ATL@@@Z$6:
  00045	8d 8d ec fb ff
	ff		 lea	 ecx, DWORD PTR _sCList$11[ebp]
  0004b	ff 25 00 00 00
	00		 jmp	 DWORD PTR __imp_??1?$CStringT@DV?$StrTraitMFC_DLL@DV?$ChTraitsCRT@D@ATL@@@@@ATL@@QAE@XZ
__unwindfunclet$?GetItemCodeFromThemeGroup@CCondTarget@@QAEXAAVCStringArray@@V?$CStringT@DV?$StrTraitMFC_DLL@DV?$ChTraitsCRT@D@ATL@@@@@ATL@@@Z$9:
  00051	8d 8d d8 fb ff
	ff		 lea	 ecx, DWORD PTR $T6[ebp]
  00057	ff 25 00 00 00
	00		 jmp	 DWORD PTR __imp_??1?$CStringT@DV?$StrTraitMFC_DLL@DV?$ChTraitsCRT@D@ATL@@@@@ATL@@QAE@XZ
__unwindfunclet$?GetItemCodeFromThemeGroup@CCondTarget@@QAEXAAVCStringArray@@V?$CStringT@DV?$StrTraitMFC_DLL@DV?$ChTraitsCRT@D@ATL@@@@@ATL@@@Z$10:
  0005d	8d 8d cc fb ff
	ff		 lea	 ecx, DWORD PTR _sTmp$4[ebp]
  00063	ff 25 00 00 00
	00		 jmp	 DWORD PTR __imp_??1?$CStringT@DV?$StrTraitMFC_DLL@DV?$ChTraitsCRT@D@ATL@@@@@ATL@@QAE@XZ
__unwindfunclet$?GetItemCodeFromThemeGroup@CCondTarget@@QAEXAAVCStringArray@@V?$CStringT@DV?$StrTraitMFC_DLL@DV?$ChTraitsCRT@D@ATL@@@@@ATL@@@Z$12:
  00069	8d 8d c8 fb ff
	ff		 lea	 ecx, DWORD PTR _sTmp$3[ebp]
  0006f	ff 25 00 00 00
	00		 jmp	 DWORD PTR __imp_??1?$CStringT@DV?$StrTraitMFC_DLL@DV?$ChTraitsCRT@D@ATL@@@@@ATL@@QAE@XZ
__unwindfunclet$?GetItemCodeFromThemeGroup@CCondTarget@@QAEXAAVCStringArray@@V?$CStringT@DV?$StrTraitMFC_DLL@DV?$ChTraitsCRT@D@ATL@@@@@ATL@@@Z$13:
  00075	8d 8d c4 fb ff
	ff		 lea	 ecx, DWORD PTR $T2[ebp]
  0007b	ff 25 00 00 00
	00		 jmp	 DWORD PTR __imp_??1?$CStringT@DV?$StrTraitMFC_DLL@DV?$ChTraitsCRT@D@ATL@@@@@ATL@@QAE@XZ
__unwindfunclet$?GetItemCodeFromThemeGroup@CCondTarget@@QAEXAAVCStringArray@@V?$CStringT@DV?$StrTraitMFC_DLL@DV?$ChTraitsCRT@D@ATL@@@@@ATL@@@Z$8:
  00081	8d 8d e4 fb ff
	ff		 lea	 ecx, DWORD PTR _sCode$9[ebp]
  00087	ff 25 00 00 00
	00		 jmp	 DWORD PTR __imp_??1?$CStringT@DV?$StrTraitMFC_DLL@DV?$ChTraitsCRT@D@ATL@@@@@ATL@@QAE@XZ
  0008d	cc		 int	 3
  0008e	cc		 int	 3
  0008f	cc		 int	 3
  00090	cc		 int	 3
  00091	cc		 int	 3
__ehhandler$?GetItemCodeFromThemeGroup@CCondTarget@@QAEXAAVCStringArray@@V?$CStringT@DV?$StrTraitMFC_DLL@DV?$ChTraitsCRT@D@ATL@@@@@ATL@@@Z:
  00092	90		 npad	 1
  00093	90		 npad	 1
  00094	8b 54 24 08	 mov	 edx, DWORD PTR [esp+8]
  00098	8d 42 0c	 lea	 eax, DWORD PTR [edx+12]
  0009b	8b 8a c0 fb ff
	ff		 mov	 ecx, DWORD PTR [edx-1088]
  000a1	33 c8		 xor	 ecx, eax
  000a3	e8 00 00 00 00	 call	 @__security_check_cookie@4
  000a8	8b 4a fc	 mov	 ecx, DWORD PTR [edx-4]
  000ab	33 c8		 xor	 ecx, eax
  000ad	e8 00 00 00 00	 call	 @__security_check_cookie@4
  000b2	b8 00 00 00 00	 mov	 eax, OFFSET __ehfuncinfo$?GetItemCodeFromThemeGroup@CCondTarget@@QAEXAAVCStringArray@@V?$CStringT@DV?$StrTraitMFC_DLL@DV?$ChTraitsCRT@D@ATL@@@@@ATL@@@Z
  000b7	e9 00 00 00 00	 jmp	 ___CxxFrameHandler3
text$x	ENDS
?GetItemCodeFromThemeGroup@CCondTarget@@QAEXAAVCStringArray@@V?$CStringT@DV?$StrTraitMFC_DLL@DV?$ChTraitsCRT@D@ATL@@@@@ATL@@@Z ENDP ; CCondTarget::GetItemCodeFromThemeGroup
; Function compile flags: /Ogtp
; File D:\git\src\IBK\IBK_DRFN\ProjSrc\SrcDrfn\Chart\MULTICHART\CondTarget.cpp
; File C:\Program Files (x86)\Microsoft Visual Studio\2019\Community\VC\Tools\MSVC\14.29.30133\atlmfc\include\afxcoll.inl
; File D:\git\src\IBK\IBK_DRFN\ProjSrc\SrcDrfn\Chart\MULTICHART\CondTarget.cpp
; File C:\Program Files (x86)\Microsoft Visual Studio\2019\Community\VC\Tools\MSVC\14.29.30133\atlmfc\include\afxcoll.inl
; File D:\git\src\IBK\IBK_DRFN\ProjSrc\SrcDrfn\Chart\MULTICHART\CondTarget.cpp
; File C:\Program Files (x86)\Microsoft Visual Studio\2019\Community\VC\Tools\MSVC\14.29.30133\atlmfc\include\atltime.h
; File D:\git\src\IBK\IBK_DRFN\ProjSrc\SrcDrfn\Chart\MULTICHART\CondTarget.cpp
; File C:\Program Files (x86)\Microsoft Visual Studio\2019\Community\VC\Tools\MSVC\14.29.30133\atlmfc\include\atltime.h
; File D:\git\src\IBK\IBK_DRFN\ProjSrc\SrcDrfn\Chart\MULTICHART\CondTarget.cpp
; File C:\Program Files (x86)\Microsoft Visual Studio\2019\Community\VC\Tools\MSVC\14.29.30133\atlmfc\include\atlsimpstr.h
; File D:\git\src\IBK\IBK_DRFN\ProjSrc\SrcDrfn\Chart\MULTICHART\CondTarget.cpp
; File C:\Program Files (x86)\Microsoft Visual Studio\2019\Community\VC\Tools\MSVC\14.29.30133\atlmfc\include\afxcoll.inl
; File D:\git\src\IBK\IBK_DRFN\ProjSrc\SrcDrfn\Chart\MULTICHART\CondTarget.cpp
;	COMDAT ?GetData_PortItem@CCondTarget@@QAEHAAVCStringArray@@0H@Z
_TEXT	SEGMENT
_finder$ = -492						; size = 28
_fileH$ = -464						; size = 20
_amount$ = -444						; size = 4
_price$ = -440						; size = 4
_saName$GSCopy$1$ = -436				; size = 4
_strFilePath$ = -432					; size = 4
_code$ = -428						; size = 4
_name$ = -424						; size = 4
_fs$ = -420						; size = 296
_interest$ = -124					; size = 105
__$ArrayPad$ = -16					; size = 4
__$EHRec$ = -12						; size = 12
_saCode$ = 8						; size = 4
_saName$ = 12						; size = 4
_nKey$ = 16						; size = 4
?GetData_PortItem@CCondTarget@@QAEHAAVCStringArray@@0H@Z PROC ; CCondTarget::GetData_PortItem, COMDAT
; _this$ = ecx

; 539  : {

  00000	55		 push	 ebp
  00001	8b ec		 mov	 ebp, esp
  00003	6a ff		 push	 -1
  00005	68 00 00 00 00	 push	 __ehhandler$?GetData_PortItem@CCondTarget@@QAEHAAVCStringArray@@0H@Z
  0000a	64 a1 00 00 00
	00		 mov	 eax, DWORD PTR fs:0
  00010	50		 push	 eax
  00011	81 ec e0 01 00
	00		 sub	 esp, 480		; 000001e0H
  00017	a1 00 00 00 00	 mov	 eax, DWORD PTR ___security_cookie
  0001c	33 c5		 xor	 eax, ebp
  0001e	89 45 f0	 mov	 DWORD PTR __$ArrayPad$[ebp], eax
  00021	53		 push	 ebx
  00022	56		 push	 esi
  00023	57		 push	 edi
  00024	50		 push	 eax
  00025	8d 45 f4	 lea	 eax, DWORD PTR __$EHRec$[ebp]
  00028	64 a3 00 00 00
	00		 mov	 DWORD PTR fs:0, eax
  0002e	8b f1		 mov	 esi, ecx
  00030	8b 5d 08	 mov	 ebx, DWORD PTR _saCode$[ebp]

; 540  : 	BOOL bResult = FALSE;

  00033	33 ff		 xor	 edi, edi
  00035	8b 45 0c	 mov	 eax, DWORD PTR _saName$[ebp]
; File C:\Program Files (x86)\Microsoft Visual Studio\2019\Community\VC\Tools\MSVC\14.29.30133\atlmfc\include\afxcoll.inl

; 286  : 	{ SetSize(0); }

  00038	8b cb		 mov	 ecx, ebx
  0003a	6a ff		 push	 -1
  0003c	57		 push	 edi
; File D:\git\src\IBK\IBK_DRFN\ProjSrc\SrcDrfn\Chart\MULTICHART\CondTarget.cpp

; 539  : {

  0003d	89 85 4c fe ff
	ff		 mov	 DWORD PTR _saName$GSCopy$1$[ebp], eax
; File C:\Program Files (x86)\Microsoft Visual Studio\2019\Community\VC\Tools\MSVC\14.29.30133\atlmfc\include\afxcoll.inl

; 286  : 	{ SetSize(0); }

  00043	e8 00 00 00 00	 call	 ?SetSize@CStringArray@@QAEXHH@Z ; CStringArray::SetSize
  00048	8b 8d 4c fe ff
	ff		 mov	 ecx, DWORD PTR _saName$GSCopy$1$[ebp]
  0004e	6a ff		 push	 -1
  00050	57		 push	 edi
  00051	e8 00 00 00 00	 call	 ?SetSize@CStringArray@@QAEXHH@Z ; CStringArray::SetSize
; File D:\git\src\IBK\IBK_DRFN\ProjSrc\SrcDrfn\Chart\MULTICHART\CondTarget.cpp

; 544  : 	CString	strFilePath;

  00056	8d 8d 50 fe ff
	ff		 lea	 ecx, DWORD PTR _strFilePath$[ebp]
  0005c	ff 15 00 00 00
	00		 call	 DWORD PTR __imp_??0?$CStringT@DV?$StrTraitMFC_DLL@DV?$ChTraitsCRT@D@ATL@@@@@ATL@@QAE@XZ

; 545  : 	strFilePath.Format("%s\\portfolio.i%02d", m_strUserDir, nKey);

  00062	ff 75 10	 push	 DWORD PTR _nKey$[ebp]
  00065	8d 85 50 fe ff
	ff		 lea	 eax, DWORD PTR _strFilePath$[ebp]
  0006b	89 7d fc	 mov	 DWORD PTR __$EHRec$[ebp+8], edi
  0006e	ff 76 04	 push	 DWORD PTR [esi+4]
  00071	68 00 00 00 00	 push	 OFFSET ??_C@_0BD@CABKFFIK@?$CFs?2portfolio?4i?$CF02d@
  00076	50		 push	 eax
  00077	ff 15 00 00 00
	00		 call	 DWORD PTR __imp_?Format@?$CStringT@DV?$StrTraitMFC_DLL@DV?$ChTraitsCRT@D@ATL@@@@@ATL@@QAAXPBDZZ
  0007d	83 c4 10	 add	 esp, 16			; 00000010H

; 546  : 	
; 547  : 	DWORD	fLen = 0;
; 548  : 	CFileFind finder;

  00080	8d 8d 14 fe ff
	ff		 lea	 ecx, DWORD PTR _finder$[ebp]
  00086	e8 00 00 00 00	 call	 ??0CFileFind@@QAE@XZ	; CFileFind::CFileFind

; 549  : 	if (!finder.FindFile(strFilePath))

  0008b	57		 push	 edi
  0008c	ff b5 50 fe ff
	ff		 push	 DWORD PTR _strFilePath$[ebp]
  00092	8d 8d 14 fe ff
	ff		 lea	 ecx, DWORD PTR _finder$[ebp]
  00098	c6 45 fc 01	 mov	 BYTE PTR __$EHRec$[ebp+8], 1
  0009c	e8 00 00 00 00	 call	 ?FindFile@CFileFind@@UAEHPBDK@Z ; CFileFind::FindFile
  000a1	85 c0		 test	 eax, eax
  000a3	0f 84 e2 01 00
	00		 je	 $LN18@GetData_Po
$LN5@GetData_Po:

; 550  : 		return bResult;
; 551  : 	
; 552  : 	UINT	readL;
; 553  : 	CString	code = _T(""), amount = _T(""), price = _T(""), name = _T("");

  000a9	68 00 00 00 00	 push	 OFFSET ??_C@_00CNPNBAHC@@
  000ae	8d 8d 54 fe ff
	ff		 lea	 ecx, DWORD PTR _code$[ebp]
  000b4	ff 15 00 00 00
	00		 call	 DWORD PTR __imp_??0?$CStringT@DV?$StrTraitMFC_DLL@DV?$ChTraitsCRT@D@ATL@@@@@ATL@@QAE@PBD@Z
  000ba	68 00 00 00 00	 push	 OFFSET ??_C@_00CNPNBAHC@@
  000bf	8d 8d 44 fe ff
	ff		 lea	 ecx, DWORD PTR _amount$[ebp]
  000c5	c6 45 fc 02	 mov	 BYTE PTR __$EHRec$[ebp+8], 2
  000c9	ff 15 00 00 00
	00		 call	 DWORD PTR __imp_??0?$CStringT@DV?$StrTraitMFC_DLL@DV?$ChTraitsCRT@D@ATL@@@@@ATL@@QAE@PBD@Z
  000cf	68 00 00 00 00	 push	 OFFSET ??_C@_00CNPNBAHC@@
  000d4	8d 8d 48 fe ff
	ff		 lea	 ecx, DWORD PTR _price$[ebp]
  000da	c6 45 fc 03	 mov	 BYTE PTR __$EHRec$[ebp+8], 3
  000de	ff 15 00 00 00
	00		 call	 DWORD PTR __imp_??0?$CStringT@DV?$StrTraitMFC_DLL@DV?$ChTraitsCRT@D@ATL@@@@@ATL@@QAE@PBD@Z
  000e4	68 00 00 00 00	 push	 OFFSET ??_C@_00CNPNBAHC@@
  000e9	8d 8d 58 fe ff
	ff		 lea	 ecx, DWORD PTR _name$[ebp]
  000ef	c6 45 fc 04	 mov	 BYTE PTR __$EHRec$[ebp+8], 4
  000f3	ff 15 00 00 00
	00		 call	 DWORD PTR __imp_??0?$CStringT@DV?$StrTraitMFC_DLL@DV?$ChTraitsCRT@D@ATL@@@@@ATL@@QAE@PBD@Z
  000f9	6a 53		 push	 83			; 00000053H
  000fb	8d 45 84	 lea	 eax, DWORD PTR _interest$[ebp]
  000fe	c6 45 fc 05	 mov	 BYTE PTR __$EHRec$[ebp+8], 5
  00102	6a 00		 push	 0
  00104	50		 push	 eax
  00105	e8 00 00 00 00	 call	 _memset
  0010a	83 c4 0c	 add	 esp, 12			; 0000000cH
  0010d	33 c0		 xor	 eax, eax
  0010f	89 45 e7	 mov	 DWORD PTR _interest$[ebp+99], eax
  00112	0f 57 c0	 xorps	 xmm0, xmm0
  00115	66 89 45 eb	 mov	 WORD PTR _interest$[ebp+103], ax
  00119	0f 11 45 d7	 movups	 XMMWORD PTR _interest$[ebp+83], xmm0

; 557  : 	if (CFile::GetStatus(strFilePath, fs) == FALSE)

  0011d	50		 push	 eax
  0011e	8d 85 5c fe ff
	ff		 lea	 eax, DWORD PTR _fs$[ebp]
; File C:\Program Files (x86)\Microsoft Visual Studio\2019\Community\VC\Tools\MSVC\14.29.30133\atlmfc\include\atltime.h

; 412  : 	m_time(0)

  00124	66 0f 13 85 5c
	fe ff ff	 movlpd	 QWORD PTR _fs$[ebp], xmm0
; File D:\git\src\IBK\IBK_DRFN\ProjSrc\SrcDrfn\Chart\MULTICHART\CondTarget.cpp

; 557  : 	if (CFile::GetStatus(strFilePath, fs) == FALSE)

  0012c	50		 push	 eax
  0012d	ff b5 50 fe ff
	ff		 push	 DWORD PTR _strFilePath$[ebp]
; File C:\Program Files (x86)\Microsoft Visual Studio\2019\Community\VC\Tools\MSVC\14.29.30133\atlmfc\include\atltime.h

; 412  : 	m_time(0)

  00133	66 0f 13 85 64
	fe ff ff	 movlpd	 QWORD PTR _fs$[ebp+8], xmm0
  0013b	66 0f 13 85 6c
	fe ff ff	 movlpd	 QWORD PTR _fs$[ebp+16], xmm0
; File D:\git\src\IBK\IBK_DRFN\ProjSrc\SrcDrfn\Chart\MULTICHART\CondTarget.cpp

; 557  : 	if (CFile::GetStatus(strFilePath, fs) == FALSE)

  00143	e8 00 00 00 00	 call	 ?GetStatus@CFile@@SGHPBDAAUCFileStatus@@PAVCAtlTransactionManager@ATL@@@Z ; CFile::GetStatus
  00148	85 c0		 test	 eax, eax
  0014a	75 07		 jne	 SHORT $LN6@GetData_Po
  0014c	33 ff		 xor	 edi, edi
  0014e	e9 08 01 00 00	 jmp	 $LN19@GetData_Po
$LN6@GetData_Po:

; 558  : 		return bResult;
; 559  : 	
; 560  : 	CFile	fileH(strFilePath, CFile::modeRead);

  00153	6a 00		 push	 0
  00155	ff b5 50 fe ff
	ff		 push	 DWORD PTR _strFilePath$[ebp]
  0015b	8d 8d 30 fe ff
	ff		 lea	 ecx, DWORD PTR _fileH$[ebp]
  00161	e8 00 00 00 00	 call	 ??0CFile@@QAE@PBDI@Z	; CFile::CFile

; 561  : 	if (fileH.m_hFile == CFile::hFileNull)

  00166	a1 00 00 00 00	 mov	 eax, DWORD PTR __imp_?hFileNull@CFile@@2QAXA
  0016b	8b 8d 34 fe ff
	ff		 mov	 ecx, DWORD PTR _fileH$[ebp+4]
  00171	c6 45 fc 06	 mov	 BYTE PTR __$EHRec$[ebp+8], 6
  00175	3b 08		 cmp	 ecx, DWORD PTR [eax]
  00177	75 07		 jne	 SHORT $LN7@GetData_Po
  00179	33 ff		 xor	 edi, edi
  0017b	e9 d0 00 00 00	 jmp	 $LN20@GetData_Po
$LN7@GetData_Po:

; 562  : 		return bResult;
; 563  : 	
; 564  : 	for (int nIndex = 0; nIndex < MAX_LINE ; nIndex++)

  00180	33 f6		 xor	 esi, esi
$LL4@GetData_Po:

; 565  : 	{
; 566  : 		readL = fileH.Read(&interest, sizeof(struct _inters));

  00182	6a 69		 push	 105			; 00000069H
  00184	8d 45 84	 lea	 eax, DWORD PTR _interest$[ebp]
  00187	50		 push	 eax
  00188	8d 8d 30 fe ff
	ff		 lea	 ecx, DWORD PTR _fileH$[ebp]
  0018e	e8 00 00 00 00	 call	 ?Read@CFile@@UAEIPAXI@Z	; CFile::Read

; 567  : 		if (readL < sizeof(struct _inters))

  00193	83 f8 69	 cmp	 eax, 105		; 00000069H
  00196	0f 82 a9 00 00
	00		 jb	 $LN52@GetData_Po

; 568  : 			break;
; 569  : 		
; 570  : 		code.Format("%.*s", sizeof(interest.code), interest.code);

  0019c	8d 45 85	 lea	 eax, DWORD PTR _interest$[ebp+1]
  0019f	50		 push	 eax
  001a0	6a 0c		 push	 12			; 0000000cH
  001a2	8d 85 54 fe ff
	ff		 lea	 eax, DWORD PTR _code$[ebp]
  001a8	68 00 00 00 00	 push	 OFFSET ??_C@_04EBNJJJJI@?$CF?4?$CKs@
  001ad	50		 push	 eax
  001ae	ff 15 00 00 00
	00		 call	 DWORD PTR __imp_?Format@?$CStringT@DV?$StrTraitMFC_DLL@DV?$ChTraitsCRT@D@ATL@@@@@ATL@@QAAXPBDZZ
  001b4	83 c4 10	 add	 esp, 16			; 00000010H

; 571  : 		code.TrimLeft(), code.TrimRight();

  001b7	8d 8d 54 fe ff
	ff		 lea	 ecx, DWORD PTR _code$[ebp]
  001bd	ff 15 00 00 00
	00		 call	 DWORD PTR __imp_?TrimLeft@?$CStringT@DV?$StrTraitMFC_DLL@DV?$ChTraitsCRT@D@ATL@@@@@ATL@@QAEAAV12@XZ
  001c3	8d 8d 54 fe ff
	ff		 lea	 ecx, DWORD PTR _code$[ebp]
  001c9	ff 15 00 00 00
	00		 call	 DWORD PTR __imp_?TrimRight@?$CStringT@DV?$StrTraitMFC_DLL@DV?$ChTraitsCRT@D@ATL@@@@@ATL@@QAEAAV12@XZ

; 572  : 		name.Format("%.*s", sizeof(interest.name), interest.name);

  001cf	8d 45 91	 lea	 eax, DWORD PTR _interest$[ebp+13]
  001d2	50		 push	 eax
  001d3	6a 20		 push	 32			; 00000020H
  001d5	8d 85 58 fe ff
	ff		 lea	 eax, DWORD PTR _name$[ebp]
  001db	68 00 00 00 00	 push	 OFFSET ??_C@_04EBNJJJJI@?$CF?4?$CKs@
  001e0	50		 push	 eax
  001e1	ff 15 00 00 00
	00		 call	 DWORD PTR __imp_?Format@?$CStringT@DV?$StrTraitMFC_DLL@DV?$ChTraitsCRT@D@ATL@@@@@ATL@@QAAXPBDZZ
  001e7	83 c4 10	 add	 esp, 16			; 00000010H

; 573  : 		name.TrimLeft(), name.TrimRight();

  001ea	8d 8d 58 fe ff
	ff		 lea	 ecx, DWORD PTR _name$[ebp]
  001f0	ff 15 00 00 00
	00		 call	 DWORD PTR __imp_?TrimLeft@?$CStringT@DV?$StrTraitMFC_DLL@DV?$ChTraitsCRT@D@ATL@@@@@ATL@@QAEAAV12@XZ
  001f6	8d 8d 58 fe ff
	ff		 lea	 ecx, DWORD PTR _name$[ebp]
  001fc	ff 15 00 00 00
	00		 call	 DWORD PTR __imp_?TrimRight@?$CStringT@DV?$StrTraitMFC_DLL@DV?$ChTraitsCRT@D@ATL@@@@@ATL@@QAEAAV12@XZ
; File C:\Program Files (x86)\Microsoft Visual Studio\2019\Community\VC\Tools\MSVC\14.29.30133\atlmfc\include\atlsimpstr.h

; 533  : 		return( GetLength() == 0 );

  00202	8b 85 58 fe ff
	ff		 mov	 eax, DWORD PTR _name$[ebp]
  00208	83 78 f4 00	 cmp	 DWORD PTR [eax-12], 0
; File D:\git\src\IBK\IBK_DRFN\ProjSrc\SrcDrfn\Chart\MULTICHART\CondTarget.cpp

; 575  : 		if(name.IsEmpty())

  0020c	74 2d		 je	 SHORT $LN2@GetData_Po
; File C:\Program Files (x86)\Microsoft Visual Studio\2019\Community\VC\Tools\MSVC\14.29.30133\atlmfc\include\afxcoll.inl

; 321  : 		SetAtGrow(nIndex, newElement);

  0020e	8d 85 54 fe ff
	ff		 lea	 eax, DWORD PTR _code$[ebp]
  00214	8b cb		 mov	 ecx, ebx
  00216	50		 push	 eax
  00217	ff 73 08	 push	 DWORD PTR [ebx+8]
  0021a	e8 00 00 00 00	 call	 ?SetAtGrow@CStringArray@@QAEXHABV?$CStringT@DV?$StrTraitMFC_DLL@DV?$ChTraitsCRT@D@ATL@@@@@ATL@@@Z ; CStringArray::SetAtGrow
  0021f	8d 85 58 fe ff
	ff		 lea	 eax, DWORD PTR _name$[ebp]
  00225	50		 push	 eax
  00226	8b 85 4c fe ff
	ff		 mov	 eax, DWORD PTR _saName$GSCopy$1$[ebp]
  0022c	8b c8		 mov	 ecx, eax
  0022e	ff 70 08	 push	 DWORD PTR [eax+8]
  00231	e8 00 00 00 00	 call	 ?SetAtGrow@CStringArray@@QAEXHABV?$CStringT@DV?$StrTraitMFC_DLL@DV?$ChTraitsCRT@D@ATL@@@@@ATL@@@Z ; CStringArray::SetAtGrow
; File D:\git\src\IBK\IBK_DRFN\ProjSrc\SrcDrfn\Chart\MULTICHART\CondTarget.cpp

; 580  : 		bResult = TRUE;

  00236	bf 01 00 00 00	 mov	 edi, 1
$LN2@GetData_Po:

; 562  : 		return bResult;
; 563  : 	
; 564  : 	for (int nIndex = 0; nIndex < MAX_LINE ; nIndex++)

  0023b	46		 inc	 esi
  0023c	83 fe 64	 cmp	 esi, 100		; 00000064H
  0023f	0f 8c 3d ff ff
	ff		 jl	 $LL4@GetData_Po
$LN52@GetData_Po:

; 581  : 	}
; 582  : 	fileH.Close();

  00245	8d 8d 30 fe ff
	ff		 lea	 ecx, DWORD PTR _fileH$[ebp]
  0024b	e8 00 00 00 00	 call	 ?Close@CFile@@UAEXXZ	; CFile::Close
$LN20@GetData_Po:

; 583  : 	
; 584  : 	return bResult;

  00250	8d 8d 30 fe ff
	ff		 lea	 ecx, DWORD PTR _fileH$[ebp]
  00256	e8 00 00 00 00	 call	 ??1CFile@@UAE@XZ	; CFile::~CFile
$LN19@GetData_Po:
  0025b	8d 8d 58 fe ff
	ff		 lea	 ecx, DWORD PTR _name$[ebp]
  00261	ff 15 00 00 00
	00		 call	 DWORD PTR __imp_??1?$CStringT@DV?$StrTraitMFC_DLL@DV?$ChTraitsCRT@D@ATL@@@@@ATL@@QAE@XZ
  00267	8d 8d 48 fe ff
	ff		 lea	 ecx, DWORD PTR _price$[ebp]
  0026d	ff 15 00 00 00
	00		 call	 DWORD PTR __imp_??1?$CStringT@DV?$StrTraitMFC_DLL@DV?$ChTraitsCRT@D@ATL@@@@@ATL@@QAE@XZ
  00273	8d 8d 44 fe ff
	ff		 lea	 ecx, DWORD PTR _amount$[ebp]
  00279	ff 15 00 00 00
	00		 call	 DWORD PTR __imp_??1?$CStringT@DV?$StrTraitMFC_DLL@DV?$ChTraitsCRT@D@ATL@@@@@ATL@@QAE@XZ
  0027f	8d 8d 54 fe ff
	ff		 lea	 ecx, DWORD PTR _code$[ebp]
  00285	ff 15 00 00 00
	00		 call	 DWORD PTR __imp_??1?$CStringT@DV?$StrTraitMFC_DLL@DV?$ChTraitsCRT@D@ATL@@@@@ATL@@QAE@XZ
$LN18@GetData_Po:
  0028b	8d 8d 14 fe ff
	ff		 lea	 ecx, DWORD PTR _finder$[ebp]
  00291	e8 00 00 00 00	 call	 ??1CFileFind@@UAE@XZ	; CFileFind::~CFileFind
  00296	8d 8d 50 fe ff
	ff		 lea	 ecx, DWORD PTR _strFilePath$[ebp]
  0029c	ff 15 00 00 00
	00		 call	 DWORD PTR __imp_??1?$CStringT@DV?$StrTraitMFC_DLL@DV?$ChTraitsCRT@D@ATL@@@@@ATL@@QAE@XZ
  002a2	8b c7		 mov	 eax, edi

; 585  : }

  002a4	8b 4d f4	 mov	 ecx, DWORD PTR __$EHRec$[ebp]
  002a7	64 89 0d 00 00
	00 00		 mov	 DWORD PTR fs:0, ecx
  002ae	59		 pop	 ecx
  002af	5f		 pop	 edi
  002b0	5e		 pop	 esi
  002b1	5b		 pop	 ebx
  002b2	8b 4d f0	 mov	 ecx, DWORD PTR __$ArrayPad$[ebp]
  002b5	33 cd		 xor	 ecx, ebp
  002b7	e8 00 00 00 00	 call	 @__security_check_cookie@4
  002bc	8b e5		 mov	 esp, ebp
  002be	5d		 pop	 ebp
  002bf	c2 0c 00	 ret	 12			; 0000000cH
_TEXT	ENDS
;	COMDAT text$x
text$x	SEGMENT
__unwindfunclet$?GetData_PortItem@CCondTarget@@QAEHAAVCStringArray@@0H@Z$0:
  00000	8d 8d 50 fe ff
	ff		 lea	 ecx, DWORD PTR _strFilePath$[ebp]
  00006	ff 25 00 00 00
	00		 jmp	 DWORD PTR __imp_??1?$CStringT@DV?$StrTraitMFC_DLL@DV?$ChTraitsCRT@D@ATL@@@@@ATL@@QAE@XZ
__unwindfunclet$?GetData_PortItem@CCondTarget@@QAEHAAVCStringArray@@0H@Z$1:
  0000c	8d 8d 14 fe ff
	ff		 lea	 ecx, DWORD PTR _finder$[ebp]
  00012	e9 00 00 00 00	 jmp	 ??1CFileFind@@UAE@XZ	; CFileFind::~CFileFind
__unwindfunclet$?GetData_PortItem@CCondTarget@@QAEHAAVCStringArray@@0H@Z$2:
  00017	8d 8d 54 fe ff
	ff		 lea	 ecx, DWORD PTR _code$[ebp]
  0001d	ff 25 00 00 00
	00		 jmp	 DWORD PTR __imp_??1?$CStringT@DV?$StrTraitMFC_DLL@DV?$ChTraitsCRT@D@ATL@@@@@ATL@@QAE@XZ
__unwindfunclet$?GetData_PortItem@CCondTarget@@QAEHAAVCStringArray@@0H@Z$3:
  00023	8d 8d 44 fe ff
	ff		 lea	 ecx, DWORD PTR _amount$[ebp]
  00029	ff 25 00 00 00
	00		 jmp	 DWORD PTR __imp_??1?$CStringT@DV?$StrTraitMFC_DLL@DV?$ChTraitsCRT@D@ATL@@@@@ATL@@QAE@XZ
__unwindfunclet$?GetData_PortItem@CCondTarget@@QAEHAAVCStringArray@@0H@Z$4:
  0002f	8d 8d 48 fe ff
	ff		 lea	 ecx, DWORD PTR _price$[ebp]
  00035	ff 25 00 00 00
	00		 jmp	 DWORD PTR __imp_??1?$CStringT@DV?$StrTraitMFC_DLL@DV?$ChTraitsCRT@D@ATL@@@@@ATL@@QAE@XZ
__unwindfunclet$?GetData_PortItem@CCondTarget@@QAEHAAVCStringArray@@0H@Z$5:
  0003b	8d 8d 58 fe ff
	ff		 lea	 ecx, DWORD PTR _name$[ebp]
  00041	ff 25 00 00 00
	00		 jmp	 DWORD PTR __imp_??1?$CStringT@DV?$StrTraitMFC_DLL@DV?$ChTraitsCRT@D@ATL@@@@@ATL@@QAE@XZ
__unwindfunclet$?GetData_PortItem@CCondTarget@@QAEHAAVCStringArray@@0H@Z$6:
  00047	8d 8d 30 fe ff
	ff		 lea	 ecx, DWORD PTR _fileH$[ebp]
  0004d	e9 00 00 00 00	 jmp	 ??1CFile@@UAE@XZ	; CFile::~CFile
  00052	cc		 int	 3
  00053	cc		 int	 3
  00054	cc		 int	 3
  00055	cc		 int	 3
  00056	cc		 int	 3
__ehhandler$?GetData_PortItem@CCondTarget@@QAEHAAVCStringArray@@0H@Z:
  00057	90		 npad	 1
  00058	90		 npad	 1
  00059	8b 54 24 08	 mov	 edx, DWORD PTR [esp+8]
  0005d	8d 42 0c	 lea	 eax, DWORD PTR [edx+12]
  00060	8b 8a 10 fe ff
	ff		 mov	 ecx, DWORD PTR [edx-496]
  00066	33 c8		 xor	 ecx, eax
  00068	e8 00 00 00 00	 call	 @__security_check_cookie@4
  0006d	8b 4a fc	 mov	 ecx, DWORD PTR [edx-4]
  00070	33 c8		 xor	 ecx, eax
  00072	e8 00 00 00 00	 call	 @__security_check_cookie@4
  00077	b8 00 00 00 00	 mov	 eax, OFFSET __ehfuncinfo$?GetData_PortItem@CCondTarget@@QAEHAAVCStringArray@@0H@Z
  0007c	e9 00 00 00 00	 jmp	 ___CxxFrameHandler3
text$x	ENDS
?GetData_PortItem@CCondTarget@@QAEHAAVCStringArray@@0H@Z ENDP ; CCondTarget::GetData_PortItem
; Function compile flags: /Ogtp
; File D:\git\src\IBK\IBK_DRFN\ProjSrc\SrcDrfn\Chart\MULTICHART\CondTarget.cpp
;	COMDAT ?GetProfileIntA@CCondTarget@@QAEHV?$CStringT@DV?$StrTraitMFC_DLL@DV?$ChTraitsCRT@D@ATL@@@@@ATL@@00@Z
_TEXT	SEGMENT
_szInt$ = -68						; size = 64
__$ArrayPad$ = -4					; size = 4
_strGKey$ = 8						; size = 4
_strKey$ = 12						; size = 4
_strSavePath$ = 16					; size = 4
?GetProfileIntA@CCondTarget@@QAEHV?$CStringT@DV?$StrTraitMFC_DLL@DV?$ChTraitsCRT@D@ATL@@@@@ATL@@00@Z PROC ; CCondTarget::GetProfileIntA, COMDAT
; _this$ = ecx

; 160  : {

  00000	55		 push	 ebp
  00001	8b ec		 mov	 ebp, esp
  00003	83 ec 44	 sub	 esp, 68			; 00000044H
  00006	a1 00 00 00 00	 mov	 eax, DWORD PTR ___security_cookie
  0000b	33 c5		 xor	 eax, ebp
  0000d	89 45 fc	 mov	 DWORD PTR __$ArrayPad$[ebp], eax
  00010	56		 push	 esi

; 161  : 	char szInt[64];
; 162  : 	::GetPrivateProfileString(strGKey, strKey, "0", szInt, sizeof(szInt), strSavePath);

  00011	ff 75 10	 push	 DWORD PTR _strSavePath$[ebp]
  00014	8d 45 bc	 lea	 eax, DWORD PTR _szInt$[ebp]
  00017	6a 40		 push	 64			; 00000040H
  00019	50		 push	 eax
  0001a	68 00 00 00 00	 push	 OFFSET ??_C@_01GBGANLPD@0@
  0001f	ff 75 0c	 push	 DWORD PTR _strKey$[ebp]
  00022	ff 75 08	 push	 DWORD PTR _strGKey$[ebp]
  00025	ff 15 00 00 00
	00		 call	 DWORD PTR __imp__GetPrivateProfileStringA@24

; 163  : 	return atoi(szInt);

  0002b	8d 45 bc	 lea	 eax, DWORD PTR _szInt$[ebp]
  0002e	50		 push	 eax
  0002f	ff 15 00 00 00
	00		 call	 DWORD PTR __imp__atoi
  00035	83 c4 04	 add	 esp, 4
  00038	8d 4d 08	 lea	 ecx, DWORD PTR _strGKey$[ebp]
  0003b	8b f0		 mov	 esi, eax
  0003d	ff 15 00 00 00
	00		 call	 DWORD PTR __imp_??1?$CStringT@DV?$StrTraitMFC_DLL@DV?$ChTraitsCRT@D@ATL@@@@@ATL@@QAE@XZ
  00043	8d 4d 0c	 lea	 ecx, DWORD PTR _strKey$[ebp]
  00046	ff 15 00 00 00
	00		 call	 DWORD PTR __imp_??1?$CStringT@DV?$StrTraitMFC_DLL@DV?$ChTraitsCRT@D@ATL@@@@@ATL@@QAE@XZ
  0004c	8d 4d 10	 lea	 ecx, DWORD PTR _strSavePath$[ebp]
  0004f	ff 15 00 00 00
	00		 call	 DWORD PTR __imp_??1?$CStringT@DV?$StrTraitMFC_DLL@DV?$ChTraitsCRT@D@ATL@@@@@ATL@@QAE@XZ

; 164  : }

  00055	8b 4d fc	 mov	 ecx, DWORD PTR __$ArrayPad$[ebp]
  00058	8b c6		 mov	 eax, esi
  0005a	33 cd		 xor	 ecx, ebp
  0005c	5e		 pop	 esi
  0005d	e8 00 00 00 00	 call	 @__security_check_cookie@4
  00062	8b e5		 mov	 esp, ebp
  00064	5d		 pop	 ebp
  00065	c2 0c 00	 ret	 12			; 0000000cH
?GetProfileIntA@CCondTarget@@QAEHV?$CStringT@DV?$StrTraitMFC_DLL@DV?$ChTraitsCRT@D@ATL@@@@@ATL@@00@Z ENDP ; CCondTarget::GetProfileIntA
_TEXT	ENDS
; Function compile flags: /Ogtp
; File D:\git\src\IBK\IBK_DRFN\ProjSrc\SrcDrfn\Chart\MULTICHART\CondTarget.cpp
; File C:\Program Files (x86)\Microsoft Visual Studio\2019\Community\VC\Tools\MSVC\14.29.30133\atlmfc\include\atlsimpstr.h
; File D:\git\src\IBK\IBK_DRFN\ProjSrc\SrcDrfn\Chart\MULTICHART\CondTarget.cpp
; File C:\Program Files (x86)\Microsoft Visual Studio\2019\Community\VC\Tools\MSVC\14.29.30133\atlmfc\include\atlsimpstr.h
; File D:\git\src\IBK\IBK_DRFN\ProjSrc\SrcDrfn\Chart\MULTICHART\CondTarget.cpp
; File C:\Program Files (x86)\Microsoft Visual Studio\2019\Community\VC\Tools\MSVC\14.29.30133\atlmfc\include\afxtempl.h
; File D:\git\src\IBK\IBK_DRFN\ProjSrc\SrcDrfn\Chart\MULTICHART\CondTarget.cpp
; File C:\Program Files (x86)\Microsoft Visual Studio\2019\Community\VC\Tools\MSVC\14.29.30133\atlmfc\include\afxtempl.h
; File D:\git\src\IBK\IBK_DRFN\ProjSrc\SrcDrfn\Chart\MULTICHART\CondTarget.cpp
;	COMDAT ?LoadTdfData@CCondTarget@@QAEXPAVCGetBackData@@@Z
_TEXT	SEGMENT
_ff$ = -1100						; size = 28
_nKey$1$ = -1072					; size = 4
_szExt$ = -1068						; size = 4
_strFullPath$ = -1064					; size = 4
_nHashBucket$4 = -1060					; size = 4
$T5 = -1060						; size = 4
$T6 = -1060						; size = 4
$T7 = -1060						; size = 4
$T8 = -1060						; size = 4
$T9 = -1060						; size = 4
$T10 = -1060						; size = 4
$T11 = -1060						; size = 4
$T12 = -1060						; size = 4
$T13 = -1060						; size = 4
$T14 = -1060						; size = 4
$T15 = -1060						; size = 4
$T16 = -1060						; size = 4
$T17 = -1060						; size = 4
$T18 = -1060						; size = 4
_nHashValue$19 = -1056					; size = 4
_pData$20 = -1056					; size = 4
$T21 = -1056						; size = 4
$T22 = -1056						; size = 4
$T23 = -1056						; size = 4
$T24 = -1056						; size = 4
$T25 = -1056						; size = 4
$T26 = -1056						; size = 4
$T27 = -1056						; size = 4
$T28 = -1056						; size = 4
$T29 = -1056						; size = 4
$T30 = -1056						; size = 4
$T31 = -1056						; size = 4
$T32 = -1056						; size = 4
$T33 = -1056						; size = 4
$T34 = -1052						; size = 4
$T35 = -1052						; size = 4
_strGKey$ = -1048					; size = 4
_strPath$ = -1044					; size = 4
_szTemp$ = -1040					; size = 1024
__$ArrayPad$ = -16					; size = 4
__$EHRec$ = -12						; size = 12
_pData$ = 8						; size = 4
?LoadTdfData@CCondTarget@@QAEXPAVCGetBackData@@@Z PROC	; CCondTarget::LoadTdfData, COMDAT
; _this$ = ecx

; 167  : {

  00000	55		 push	 ebp
  00001	8b ec		 mov	 ebp, esp
  00003	6a ff		 push	 -1
  00005	68 00 00 00 00	 push	 __ehhandler$?LoadTdfData@CCondTarget@@QAEXPAVCGetBackData@@@Z
  0000a	64 a1 00 00 00
	00		 mov	 eax, DWORD PTR fs:0
  00010	50		 push	 eax
  00011	81 ec 40 04 00
	00		 sub	 esp, 1088		; 00000440H
  00017	a1 00 00 00 00	 mov	 eax, DWORD PTR ___security_cookie
  0001c	33 c5		 xor	 eax, ebp
  0001e	89 45 f0	 mov	 DWORD PTR __$ArrayPad$[ebp], eax
  00021	53		 push	 ebx
  00022	56		 push	 esi
  00023	57		 push	 edi
  00024	50		 push	 eax
  00025	8d 45 f4	 lea	 eax, DWORD PTR __$EHRec$[ebp]
  00028	64 a3 00 00 00
	00		 mov	 DWORD PTR fs:0, eax
  0002e	8b d9		 mov	 ebx, ecx
  00030	8b 75 08	 mov	 esi, DWORD PTR _pData$[ebp]

; 168  : 	CString strFullPath = pData->m_strPath;

  00033	8d 8d d8 fb ff
	ff		 lea	 ecx, DWORD PTR _strFullPath$[ebp]
  00039	8d 46 04	 lea	 eax, DWORD PTR [esi+4]
  0003c	50		 push	 eax
  0003d	ff 15 00 00 00
	00		 call	 DWORD PTR __imp_??0?$CStringT@DV?$StrTraitMFC_DLL@DV?$ChTraitsCRT@D@ATL@@@@@ATL@@QAE@ABV01@@Z

; 169  : 	int nKey = pData->m_nIndex;

  00043	8b 46 08	 mov	 eax, DWORD PTR [esi+8]

; 170  : 
; 171  : 	CString szExt = strFullPath.Right(4);

  00046	8d 8d d8 fb ff
	ff		 lea	 ecx, DWORD PTR _strFullPath$[ebp]
  0004c	89 85 d0 fb ff
	ff		 mov	 DWORD PTR _nKey$1$[ebp], eax
  00052	8d 85 d4 fb ff
	ff		 lea	 eax, DWORD PTR _szExt$[ebp]
  00058	6a 04		 push	 4
  0005a	50		 push	 eax
  0005b	c7 45 fc 00 00
	00 00		 mov	 DWORD PTR __$EHRec$[ebp+8], 0
  00062	ff 15 00 00 00
	00		 call	 DWORD PTR __imp_?Right@?$CStringT@DV?$StrTraitMFC_DLL@DV?$ChTraitsCRT@D@ATL@@@@@ATL@@QBE?AV12@H@Z

; 172  : 	if (szExt.CompareNoCase(".xml") !=0)

  00068	68 00 00 00 00	 push	 OFFSET ??_C@_04GAOAGNCM@?4xml@
  0006d	8d 8d d4 fb ff
	ff		 lea	 ecx, DWORD PTR _szExt$[ebp]
  00073	c6 45 fc 01	 mov	 BYTE PTR __$EHRec$[ebp+8], 1
  00077	ff 15 00 00 00
	00		 call	 DWORD PTR __imp_?CompareNoCase@?$CStringT@DV?$StrTraitMFC_DLL@DV?$ChTraitsCRT@D@ATL@@@@@ATL@@QBEHPBD@Z
  0007d	85 c0		 test	 eax, eax
  0007f	0f 85 38 07 00
	00		 jne	 $LN53@LoadTdfDat

; 173  : 		return;
; 174  : 
; 175  : 	CString strPath = strFullPath;

  00085	8d 85 d8 fb ff
	ff		 lea	 eax, DWORD PTR _strFullPath$[ebp]
  0008b	50		 push	 eax
  0008c	8d 8d ec fb ff
	ff		 lea	 ecx, DWORD PTR _strPath$[ebp]
  00092	ff 15 00 00 00
	00		 call	 DWORD PTR __imp_??0?$CStringT@DV?$StrTraitMFC_DLL@DV?$ChTraitsCRT@D@ATL@@@@@ATL@@QAE@ABV01@@Z
; File C:\Program Files (x86)\Microsoft Visual Studio\2019\Community\VC\Tools\MSVC\14.29.30133\atlmfc\include\atlsimpstr.h

; 519  : 		return( GetData()->nDataLength );

  00098	8b 85 d8 fb ff
	ff		 mov	 eax, DWORD PTR _strFullPath$[ebp]
; File D:\git\src\IBK\IBK_DRFN\ProjSrc\SrcDrfn\Chart\MULTICHART\CondTarget.cpp

; 176  : 	strPath = strFullPath.Left(strFullPath.GetLength()-4);

  0009e	8d 8d d8 fb ff
	ff		 lea	 ecx, DWORD PTR _strFullPath$[ebp]
  000a4	c6 45 fc 02	 mov	 BYTE PTR __$EHRec$[ebp+8], 2
; File C:\Program Files (x86)\Microsoft Visual Studio\2019\Community\VC\Tools\MSVC\14.29.30133\atlmfc\include\atlsimpstr.h

; 519  : 		return( GetData()->nDataLength );

  000a8	8b 40 f4	 mov	 eax, DWORD PTR [eax-12]
; File D:\git\src\IBK\IBK_DRFN\ProjSrc\SrcDrfn\Chart\MULTICHART\CondTarget.cpp

; 176  : 	strPath = strFullPath.Left(strFullPath.GetLength()-4);

  000ab	83 c0 fc	 add	 eax, -4			; fffffffcH
  000ae	50		 push	 eax
  000af	8d 85 e4 fb ff
	ff		 lea	 eax, DWORD PTR $T35[ebp]
  000b5	50		 push	 eax
  000b6	ff 15 00 00 00
	00		 call	 DWORD PTR __imp_?Left@?$CStringT@DV?$StrTraitMFC_DLL@DV?$ChTraitsCRT@D@ATL@@@@@ATL@@QBE?AV12@H@Z
  000bc	50		 push	 eax
  000bd	8d 8d ec fb ff
	ff		 lea	 ecx, DWORD PTR _strPath$[ebp]
  000c3	c6 45 fc 03	 mov	 BYTE PTR __$EHRec$[ebp+8], 3
  000c7	ff 15 00 00 00
	00		 call	 DWORD PTR __imp_??4?$CStringT@DV?$StrTraitMFC_DLL@DV?$ChTraitsCRT@D@ATL@@@@@ATL@@QAEAAV01@ABV01@@Z
  000cd	8d 8d e4 fb ff
	ff		 lea	 ecx, DWORD PTR $T35[ebp]
  000d3	c6 45 fc 02	 mov	 BYTE PTR __$EHRec$[ebp+8], 2
  000d7	ff 15 00 00 00
	00		 call	 DWORD PTR __imp_??1?$CStringT@DV?$StrTraitMFC_DLL@DV?$ChTraitsCRT@D@ATL@@@@@ATL@@QAE@XZ

; 177  : 	strPath += _T(".tdf");

  000dd	68 00 00 00 00	 push	 OFFSET ??_C@_04NPAIABJB@?4tdf@
  000e2	8d 8d ec fb ff
	ff		 lea	 ecx, DWORD PTR _strPath$[ebp]
  000e8	ff 15 00 00 00
	00		 call	 DWORD PTR __imp_??Y?$CStringT@DV?$StrTraitMFC_DLL@DV?$ChTraitsCRT@D@ATL@@@@@ATL@@QAEAAV01@PBD@Z

; 178  : 
; 179  : 	CFileFind ff;

  000ee	8d 8d b4 fb ff
	ff		 lea	 ecx, DWORD PTR _ff$[ebp]
  000f4	e8 00 00 00 00	 call	 ??0CFileFind@@QAE@XZ	; CFileFind::CFileFind

; 180  : 	if (!ff.FindFile(strPath))

  000f9	6a 00		 push	 0
  000fb	ff b5 ec fb ff
	ff		 push	 DWORD PTR _strPath$[ebp]
  00101	8d 8d b4 fb ff
	ff		 lea	 ecx, DWORD PTR _ff$[ebp]
  00107	c6 45 fc 04	 mov	 BYTE PTR __$EHRec$[ebp+8], 4
  0010b	e8 00 00 00 00	 call	 ?FindFile@CFileFind@@UAEHPBDK@Z ; CFileFind::FindFile
  00110	85 c0		 test	 eax, eax
  00112	0f 84 8e 06 00
	00		 je	 $LN54@LoadTdfDat

; 181  : 		return;
; 182  : 
; 183  : 	CString strGKey = "Except_JM";

  00118	68 00 00 00 00	 push	 OFFSET ??_C@_09ELDJDNO@Except_JM@
  0011d	8d 8d e8 fb ff
	ff		 lea	 ecx, DWORD PTR _strGKey$[ebp]
  00123	ff 15 00 00 00
	00		 call	 DWORD PTR __imp_??0?$CStringT@DV?$StrTraitMFC_DLL@DV?$ChTraitsCRT@D@ATL@@@@@ATL@@QAE@PBD@Z

; 184  : 	char szTemp[1024];
; 185  : 
; 186  : 	m_bIssuesForAdministration		= GetProfileInt(strGKey, "Issue", strPath);

  00129	51		 push	 ecx
  0012a	8d 85 ec fb ff
	ff		 lea	 eax, DWORD PTR _strPath$[ebp]
  00130	89 a5 e4 fb ff
	ff		 mov	 DWORD PTR $T34[ebp], esp
  00136	8b cc		 mov	 ecx, esp
  00138	c6 45 fc 05	 mov	 BYTE PTR __$EHRec$[ebp+8], 5
  0013c	50		 push	 eax
  0013d	ff 15 00 00 00
	00		 call	 DWORD PTR __imp_??0?$CStringT@DV?$StrTraitMFC_DLL@DV?$ChTraitsCRT@D@ATL@@@@@ATL@@QAE@ABV01@@Z
  00143	51		 push	 ecx
  00144	8b cc		 mov	 ecx, esp
  00146	89 a5 dc fb ff
	ff		 mov	 DWORD PTR $T18[ebp], esp
  0014c	68 00 00 00 00	 push	 OFFSET ??_C@_05OLCCKFMM@Issue@
  00151	c6 45 fc 06	 mov	 BYTE PTR __$EHRec$[ebp+8], 6
  00155	ff 15 00 00 00
	00		 call	 DWORD PTR __imp_??0?$CStringT@DV?$StrTraitMFC_DLL@DV?$ChTraitsCRT@D@ATL@@@@@ATL@@QAE@PBD@Z
  0015b	51		 push	 ecx
  0015c	8d 85 e8 fb ff
	ff		 lea	 eax, DWORD PTR _strGKey$[ebp]
  00162	c6 45 fc 07	 mov	 BYTE PTR __$EHRec$[ebp+8], 7
  00166	8b cc		 mov	 ecx, esp
  00168	50		 push	 eax
  00169	ff 15 00 00 00
	00		 call	 DWORD PTR __imp_??0?$CStringT@DV?$StrTraitMFC_DLL@DV?$ChTraitsCRT@D@ATL@@@@@ATL@@QAE@ABV01@@Z
  0016f	8b cb		 mov	 ecx, ebx
  00171	c6 45 fc 05	 mov	 BYTE PTR __$EHRec$[ebp+8], 5
  00175	e8 00 00 00 00	 call	 ?GetProfileIntA@CCondTarget@@QAEHV?$CStringT@DV?$StrTraitMFC_DLL@DV?$ChTraitsCRT@D@ATL@@@@@ATL@@00@Z ; CCondTarget::GetProfileIntA

; 187  : 	m_bDealStop						= GetProfileInt(strGKey, "CheckDealStop", strPath);

  0017a	51		 push	 ecx
  0017b	89 83 b0 01 00
	00		 mov	 DWORD PTR [ebx+432], eax
  00181	8b cc		 mov	 ecx, esp
  00183	8d 85 ec fb ff
	ff		 lea	 eax, DWORD PTR _strPath$[ebp]
  00189	89 a5 e0 fb ff
	ff		 mov	 DWORD PTR $T33[ebp], esp
  0018f	50		 push	 eax
  00190	ff 15 00 00 00
	00		 call	 DWORD PTR __imp_??0?$CStringT@DV?$StrTraitMFC_DLL@DV?$ChTraitsCRT@D@ATL@@@@@ATL@@QAE@ABV01@@Z
  00196	51		 push	 ecx
  00197	8b cc		 mov	 ecx, esp
  00199	89 a5 dc fb ff
	ff		 mov	 DWORD PTR $T17[ebp], esp
  0019f	68 00 00 00 00	 push	 OFFSET ??_C@_0O@KJHEEKBI@CheckDealStop@
  001a4	c6 45 fc 08	 mov	 BYTE PTR __$EHRec$[ebp+8], 8
  001a8	ff 15 00 00 00
	00		 call	 DWORD PTR __imp_??0?$CStringT@DV?$StrTraitMFC_DLL@DV?$ChTraitsCRT@D@ATL@@@@@ATL@@QAE@PBD@Z
  001ae	51		 push	 ecx
  001af	8d 85 e8 fb ff
	ff		 lea	 eax, DWORD PTR _strGKey$[ebp]
  001b5	c6 45 fc 09	 mov	 BYTE PTR __$EHRec$[ebp+8], 9
  001b9	8b cc		 mov	 ecx, esp
  001bb	50		 push	 eax
  001bc	ff 15 00 00 00
	00		 call	 DWORD PTR __imp_??0?$CStringT@DV?$StrTraitMFC_DLL@DV?$ChTraitsCRT@D@ATL@@@@@ATL@@QAE@ABV01@@Z
  001c2	8b cb		 mov	 ecx, ebx
  001c4	c6 45 fc 05	 mov	 BYTE PTR __$EHRec$[ebp+8], 5
  001c8	e8 00 00 00 00	 call	 ?GetProfileIntA@CCondTarget@@QAEHV?$CStringT@DV?$StrTraitMFC_DLL@DV?$ChTraitsCRT@D@ATL@@@@@ATL@@00@Z ; CCondTarget::GetProfileIntA

; 188  : 	m_bTidyDeal						= GetProfileInt(strGKey, "TidyDeal", strPath);

  001cd	51		 push	 ecx
  001ce	89 83 b4 01 00
	00		 mov	 DWORD PTR [ebx+436], eax
  001d4	8b cc		 mov	 ecx, esp
  001d6	8d 85 ec fb ff
	ff		 lea	 eax, DWORD PTR _strPath$[ebp]
  001dc	89 a5 e0 fb ff
	ff		 mov	 DWORD PTR $T32[ebp], esp
  001e2	50		 push	 eax
  001e3	ff 15 00 00 00
	00		 call	 DWORD PTR __imp_??0?$CStringT@DV?$StrTraitMFC_DLL@DV?$ChTraitsCRT@D@ATL@@@@@ATL@@QAE@ABV01@@Z
  001e9	51		 push	 ecx
  001ea	8b cc		 mov	 ecx, esp
  001ec	89 a5 dc fb ff
	ff		 mov	 DWORD PTR $T16[ebp], esp
  001f2	68 00 00 00 00	 push	 OFFSET ??_C@_08ILOOAIEA@TidyDeal@
  001f7	c6 45 fc 0a	 mov	 BYTE PTR __$EHRec$[ebp+8], 10 ; 0000000aH
  001fb	ff 15 00 00 00
	00		 call	 DWORD PTR __imp_??0?$CStringT@DV?$StrTraitMFC_DLL@DV?$ChTraitsCRT@D@ATL@@@@@ATL@@QAE@PBD@Z
  00201	51		 push	 ecx
  00202	8d 85 e8 fb ff
	ff		 lea	 eax, DWORD PTR _strGKey$[ebp]
  00208	c6 45 fc 0b	 mov	 BYTE PTR __$EHRec$[ebp+8], 11 ; 0000000bH
  0020c	8b cc		 mov	 ecx, esp
  0020e	50		 push	 eax
  0020f	ff 15 00 00 00
	00		 call	 DWORD PTR __imp_??0?$CStringT@DV?$StrTraitMFC_DLL@DV?$ChTraitsCRT@D@ATL@@@@@ATL@@QAE@ABV01@@Z
  00215	8b cb		 mov	 ecx, ebx
  00217	c6 45 fc 05	 mov	 BYTE PTR __$EHRec$[ebp+8], 5
  0021b	e8 00 00 00 00	 call	 ?GetProfileIntA@CCondTarget@@QAEHV?$CStringT@DV?$StrTraitMFC_DLL@DV?$ChTraitsCRT@D@ATL@@@@@ATL@@00@Z ; CCondTarget::GetProfileIntA

; 189  : 	m_bInsincerityNotice			= GetProfileInt(strGKey, "InsincerityNotice", strPath);

  00220	51		 push	 ecx
  00221	89 83 b8 01 00
	00		 mov	 DWORD PTR [ebx+440], eax
  00227	8b cc		 mov	 ecx, esp
  00229	89 a5 e0 fb ff
	ff		 mov	 DWORD PTR $T31[ebp], esp
  0022f	8d 85 ec fb ff
	ff		 lea	 eax, DWORD PTR _strPath$[ebp]
  00235	50		 push	 eax
  00236	ff 15 00 00 00
	00		 call	 DWORD PTR __imp_??0?$CStringT@DV?$StrTraitMFC_DLL@DV?$ChTraitsCRT@D@ATL@@@@@ATL@@QAE@ABV01@@Z
  0023c	51		 push	 ecx
  0023d	8b cc		 mov	 ecx, esp
  0023f	89 a5 dc fb ff
	ff		 mov	 DWORD PTR $T15[ebp], esp
  00245	68 00 00 00 00	 push	 OFFSET ??_C@_0BC@ONKKOLN@InsincerityNotice@
  0024a	c6 45 fc 0c	 mov	 BYTE PTR __$EHRec$[ebp+8], 12 ; 0000000cH
  0024e	ff 15 00 00 00
	00		 call	 DWORD PTR __imp_??0?$CStringT@DV?$StrTraitMFC_DLL@DV?$ChTraitsCRT@D@ATL@@@@@ATL@@QAE@PBD@Z
  00254	51		 push	 ecx
  00255	8d 85 e8 fb ff
	ff		 lea	 eax, DWORD PTR _strGKey$[ebp]
  0025b	c6 45 fc 0d	 mov	 BYTE PTR __$EHRec$[ebp+8], 13 ; 0000000dH
  0025f	8b cc		 mov	 ecx, esp
  00261	50		 push	 eax
  00262	ff 15 00 00 00
	00		 call	 DWORD PTR __imp_??0?$CStringT@DV?$StrTraitMFC_DLL@DV?$ChTraitsCRT@D@ATL@@@@@ATL@@QAE@ABV01@@Z
  00268	8b cb		 mov	 ecx, ebx
  0026a	c6 45 fc 05	 mov	 BYTE PTR __$EHRec$[ebp+8], 5
  0026e	e8 00 00 00 00	 call	 ?GetProfileIntA@CCondTarget@@QAEHV?$CStringT@DV?$StrTraitMFC_DLL@DV?$ChTraitsCRT@D@ATL@@@@@ATL@@00@Z ; CCondTarget::GetProfileIntA

; 190  : 	m_bAttentionInvestment			= GetProfileInt(strGKey, "AttentionInvestment", strPath);

  00273	51		 push	 ecx
  00274	89 83 bc 01 00
	00		 mov	 DWORD PTR [ebx+444], eax
  0027a	8b cc		 mov	 ecx, esp
  0027c	8d 85 ec fb ff
	ff		 lea	 eax, DWORD PTR _strPath$[ebp]
  00282	89 a5 e0 fb ff
	ff		 mov	 DWORD PTR $T30[ebp], esp
  00288	50		 push	 eax
  00289	ff 15 00 00 00
	00		 call	 DWORD PTR __imp_??0?$CStringT@DV?$StrTraitMFC_DLL@DV?$ChTraitsCRT@D@ATL@@@@@ATL@@QAE@ABV01@@Z
  0028f	51		 push	 ecx
  00290	8b cc		 mov	 ecx, esp
  00292	89 a5 dc fb ff
	ff		 mov	 DWORD PTR $T14[ebp], esp
  00298	68 00 00 00 00	 push	 OFFSET ??_C@_0BE@HLPKMDJA@AttentionInvestment@
  0029d	c6 45 fc 0e	 mov	 BYTE PTR __$EHRec$[ebp+8], 14 ; 0000000eH
  002a1	ff 15 00 00 00
	00		 call	 DWORD PTR __imp_??0?$CStringT@DV?$StrTraitMFC_DLL@DV?$ChTraitsCRT@D@ATL@@@@@ATL@@QAE@PBD@Z
  002a7	51		 push	 ecx
  002a8	8d 85 e8 fb ff
	ff		 lea	 eax, DWORD PTR _strGKey$[ebp]
  002ae	c6 45 fc 0f	 mov	 BYTE PTR __$EHRec$[ebp+8], 15 ; 0000000fH
  002b2	8b cc		 mov	 ecx, esp
  002b4	50		 push	 eax
  002b5	ff 15 00 00 00
	00		 call	 DWORD PTR __imp_??0?$CStringT@DV?$StrTraitMFC_DLL@DV?$ChTraitsCRT@D@ATL@@@@@ATL@@QAE@ABV01@@Z
  002bb	8b cb		 mov	 ecx, ebx
  002bd	c6 45 fc 05	 mov	 BYTE PTR __$EHRec$[ebp+8], 5
  002c1	e8 00 00 00 00	 call	 ?GetProfileIntA@CCondTarget@@QAEHV?$CStringT@DV?$StrTraitMFC_DLL@DV?$ChTraitsCRT@D@ATL@@@@@ATL@@00@Z ; CCondTarget::GetProfileIntA

; 191  : 	m_bNoticeAttentionInvestment	= GetProfileInt(strGKey, "NoticeAttentionInvestment", strPath);

  002c6	51		 push	 ecx
  002c7	89 83 c0 01 00
	00		 mov	 DWORD PTR [ebx+448], eax
  002cd	8b cc		 mov	 ecx, esp
  002cf	8d 85 ec fb ff
	ff		 lea	 eax, DWORD PTR _strPath$[ebp]
  002d5	89 a5 e0 fb ff
	ff		 mov	 DWORD PTR $T29[ebp], esp
  002db	50		 push	 eax
  002dc	ff 15 00 00 00
	00		 call	 DWORD PTR __imp_??0?$CStringT@DV?$StrTraitMFC_DLL@DV?$ChTraitsCRT@D@ATL@@@@@ATL@@QAE@ABV01@@Z
  002e2	51		 push	 ecx
  002e3	8b cc		 mov	 ecx, esp
  002e5	89 a5 dc fb ff
	ff		 mov	 DWORD PTR $T13[ebp], esp
  002eb	68 00 00 00 00	 push	 OFFSET ??_C@_0BK@FLJHGBIE@NoticeAttentionInvestment@
  002f0	c6 45 fc 10	 mov	 BYTE PTR __$EHRec$[ebp+8], 16 ; 00000010H
  002f4	ff 15 00 00 00
	00		 call	 DWORD PTR __imp_??0?$CStringT@DV?$StrTraitMFC_DLL@DV?$ChTraitsCRT@D@ATL@@@@@ATL@@QAE@PBD@Z
  002fa	51		 push	 ecx
  002fb	8d 85 e8 fb ff
	ff		 lea	 eax, DWORD PTR _strGKey$[ebp]
  00301	c6 45 fc 11	 mov	 BYTE PTR __$EHRec$[ebp+8], 17 ; 00000011H
  00305	8b cc		 mov	 ecx, esp
  00307	50		 push	 eax
  00308	ff 15 00 00 00
	00		 call	 DWORD PTR __imp_??0?$CStringT@DV?$StrTraitMFC_DLL@DV?$ChTraitsCRT@D@ATL@@@@@ATL@@QAE@ABV01@@Z
  0030e	8b cb		 mov	 ecx, ebx
  00310	c6 45 fc 05	 mov	 BYTE PTR __$EHRec$[ebp+8], 5
  00314	e8 00 00 00 00	 call	 ?GetProfileIntA@CCondTarget@@QAEHV?$CStringT@DV?$StrTraitMFC_DLL@DV?$ChTraitsCRT@D@ATL@@@@@ATL@@00@Z ; CCondTarget::GetProfileIntA

; 192  : 	m_bPreferenceStock				= GetProfileInt(strGKey, "CheckPreferenceStock", strPath);

  00319	51		 push	 ecx
  0031a	89 83 c4 01 00
	00		 mov	 DWORD PTR [ebx+452], eax
  00320	8b cc		 mov	 ecx, esp
  00322	8d 85 ec fb ff
	ff		 lea	 eax, DWORD PTR _strPath$[ebp]
  00328	89 a5 e0 fb ff
	ff		 mov	 DWORD PTR $T28[ebp], esp
  0032e	50		 push	 eax
  0032f	ff 15 00 00 00
	00		 call	 DWORD PTR __imp_??0?$CStringT@DV?$StrTraitMFC_DLL@DV?$ChTraitsCRT@D@ATL@@@@@ATL@@QAE@ABV01@@Z
  00335	51		 push	 ecx
  00336	8b cc		 mov	 ecx, esp
  00338	89 a5 dc fb ff
	ff		 mov	 DWORD PTR $T12[ebp], esp
  0033e	68 00 00 00 00	 push	 OFFSET ??_C@_0BF@MGLLGIND@CheckPreferenceStock@
  00343	c6 45 fc 12	 mov	 BYTE PTR __$EHRec$[ebp+8], 18 ; 00000012H
  00347	ff 15 00 00 00
	00		 call	 DWORD PTR __imp_??0?$CStringT@DV?$StrTraitMFC_DLL@DV?$ChTraitsCRT@D@ATL@@@@@ATL@@QAE@PBD@Z
  0034d	51		 push	 ecx
  0034e	8d 85 e8 fb ff
	ff		 lea	 eax, DWORD PTR _strGKey$[ebp]
  00354	c6 45 fc 13	 mov	 BYTE PTR __$EHRec$[ebp+8], 19 ; 00000013H
  00358	8b cc		 mov	 ecx, esp
  0035a	50		 push	 eax
  0035b	ff 15 00 00 00
	00		 call	 DWORD PTR __imp_??0?$CStringT@DV?$StrTraitMFC_DLL@DV?$ChTraitsCRT@D@ATL@@@@@ATL@@QAE@ABV01@@Z
  00361	8b cb		 mov	 ecx, ebx
  00363	c6 45 fc 05	 mov	 BYTE PTR __$EHRec$[ebp+8], 5
  00367	e8 00 00 00 00	 call	 ?GetProfileIntA@CCondTarget@@QAEHV?$CStringT@DV?$StrTraitMFC_DLL@DV?$ChTraitsCRT@D@ATL@@@@@ATL@@00@Z ; CCondTarget::GetProfileIntA

; 193  : 	m_bDeposit						= GetProfileInt(strGKey, "CheckDeposit", strPath);

  0036c	51		 push	 ecx
  0036d	89 83 c8 01 00
	00		 mov	 DWORD PTR [ebx+456], eax
  00373	8b cc		 mov	 ecx, esp
  00375	8d 85 ec fb ff
	ff		 lea	 eax, DWORD PTR _strPath$[ebp]
  0037b	89 a5 e0 fb ff
	ff		 mov	 DWORD PTR $T27[ebp], esp
  00381	50		 push	 eax
  00382	ff 15 00 00 00
	00		 call	 DWORD PTR __imp_??0?$CStringT@DV?$StrTraitMFC_DLL@DV?$ChTraitsCRT@D@ATL@@@@@ATL@@QAE@ABV01@@Z
  00388	51		 push	 ecx
  00389	8b cc		 mov	 ecx, esp
  0038b	89 a5 dc fb ff
	ff		 mov	 DWORD PTR $T11[ebp], esp
  00391	68 00 00 00 00	 push	 OFFSET ??_C@_0N@KDBMFLJ@CheckDeposit@
  00396	c6 45 fc 14	 mov	 BYTE PTR __$EHRec$[ebp+8], 20 ; 00000014H
  0039a	ff 15 00 00 00
	00		 call	 DWORD PTR __imp_??0?$CStringT@DV?$StrTraitMFC_DLL@DV?$ChTraitsCRT@D@ATL@@@@@ATL@@QAE@PBD@Z
  003a0	51		 push	 ecx
  003a1	8d 85 e8 fb ff
	ff		 lea	 eax, DWORD PTR _strGKey$[ebp]
  003a7	c6 45 fc 15	 mov	 BYTE PTR __$EHRec$[ebp+8], 21 ; 00000015H
  003ab	8b cc		 mov	 ecx, esp
  003ad	50		 push	 eax
  003ae	ff 15 00 00 00
	00		 call	 DWORD PTR __imp_??0?$CStringT@DV?$StrTraitMFC_DLL@DV?$ChTraitsCRT@D@ATL@@@@@ATL@@QAE@ABV01@@Z
  003b4	8b cb		 mov	 ecx, ebx
  003b6	c6 45 fc 05	 mov	 BYTE PTR __$EHRec$[ebp+8], 5
  003ba	e8 00 00 00 00	 call	 ?GetProfileIntA@CCondTarget@@QAEHV?$CStringT@DV?$StrTraitMFC_DLL@DV?$ChTraitsCRT@D@ATL@@@@@ATL@@00@Z ; CCondTarget::GetProfileIntA

; 194  : 	m_bDangerInvestment				= GetProfileInt(strGKey, "DangerInvestment", strPath);

  003bf	51		 push	 ecx
  003c0	89 83 cc 01 00
	00		 mov	 DWORD PTR [ebx+460], eax
  003c6	8b cc		 mov	 ecx, esp
  003c8	8d 85 ec fb ff
	ff		 lea	 eax, DWORD PTR _strPath$[ebp]
  003ce	89 a5 e0 fb ff
	ff		 mov	 DWORD PTR $T26[ebp], esp
  003d4	50		 push	 eax
  003d5	ff 15 00 00 00
	00		 call	 DWORD PTR __imp_??0?$CStringT@DV?$StrTraitMFC_DLL@DV?$ChTraitsCRT@D@ATL@@@@@ATL@@QAE@ABV01@@Z
  003db	51		 push	 ecx
  003dc	8b cc		 mov	 ecx, esp
  003de	89 a5 dc fb ff
	ff		 mov	 DWORD PTR $T10[ebp], esp
  003e4	68 00 00 00 00	 push	 OFFSET ??_C@_0BB@ECGNDCGL@DangerInvestment@
  003e9	c6 45 fc 16	 mov	 BYTE PTR __$EHRec$[ebp+8], 22 ; 00000016H
  003ed	ff 15 00 00 00
	00		 call	 DWORD PTR __imp_??0?$CStringT@DV?$StrTraitMFC_DLL@DV?$ChTraitsCRT@D@ATL@@@@@ATL@@QAE@PBD@Z
  003f3	51		 push	 ecx
  003f4	8d 85 e8 fb ff
	ff		 lea	 eax, DWORD PTR _strGKey$[ebp]
  003fa	c6 45 fc 17	 mov	 BYTE PTR __$EHRec$[ebp+8], 23 ; 00000017H
  003fe	8b cc		 mov	 ecx, esp
  00400	50		 push	 eax
  00401	ff 15 00 00 00
	00		 call	 DWORD PTR __imp_??0?$CStringT@DV?$StrTraitMFC_DLL@DV?$ChTraitsCRT@D@ATL@@@@@ATL@@QAE@ABV01@@Z
  00407	8b cb		 mov	 ecx, ebx
  00409	c6 45 fc 05	 mov	 BYTE PTR __$EHRec$[ebp+8], 5
  0040d	e8 00 00 00 00	 call	 ?GetProfileIntA@CCondTarget@@QAEHV?$CStringT@DV?$StrTraitMFC_DLL@DV?$ChTraitsCRT@D@ATL@@@@@ATL@@00@Z ; CCondTarget::GetProfileIntA

; 195  : 	m_bWarningInvestment			= GetProfileInt(strGKey, "WarningInvestment", strPath);

  00412	51		 push	 ecx
  00413	89 83 d0 01 00
	00		 mov	 DWORD PTR [ebx+464], eax
  00419	8b cc		 mov	 ecx, esp
  0041b	8d 85 ec fb ff
	ff		 lea	 eax, DWORD PTR _strPath$[ebp]
  00421	89 a5 e0 fb ff
	ff		 mov	 DWORD PTR $T25[ebp], esp
  00427	50		 push	 eax
  00428	ff 15 00 00 00
	00		 call	 DWORD PTR __imp_??0?$CStringT@DV?$StrTraitMFC_DLL@DV?$ChTraitsCRT@D@ATL@@@@@ATL@@QAE@ABV01@@Z
  0042e	51		 push	 ecx
  0042f	8b cc		 mov	 ecx, esp
  00431	89 a5 dc fb ff
	ff		 mov	 DWORD PTR $T9[ebp], esp
  00437	68 00 00 00 00	 push	 OFFSET ??_C@_0BC@DEJCAOFC@WarningInvestment@
  0043c	c6 45 fc 18	 mov	 BYTE PTR __$EHRec$[ebp+8], 24 ; 00000018H
  00440	ff 15 00 00 00
	00		 call	 DWORD PTR __imp_??0?$CStringT@DV?$StrTraitMFC_DLL@DV?$ChTraitsCRT@D@ATL@@@@@ATL@@QAE@PBD@Z
  00446	51		 push	 ecx
  00447	8d 85 e8 fb ff
	ff		 lea	 eax, DWORD PTR _strGKey$[ebp]
  0044d	c6 45 fc 19	 mov	 BYTE PTR __$EHRec$[ebp+8], 25 ; 00000019H
  00451	8b cc		 mov	 ecx, esp
  00453	50		 push	 eax
  00454	ff 15 00 00 00
	00		 call	 DWORD PTR __imp_??0?$CStringT@DV?$StrTraitMFC_DLL@DV?$ChTraitsCRT@D@ATL@@@@@ATL@@QAE@ABV01@@Z
  0045a	c6 45 fc 05	 mov	 BYTE PTR __$EHRec$[ebp+8], 5
  0045e	8b cb		 mov	 ecx, ebx
  00460	e8 00 00 00 00	 call	 ?GetProfileIntA@CCondTarget@@QAEHV?$CStringT@DV?$StrTraitMFC_DLL@DV?$ChTraitsCRT@D@ATL@@@@@ATL@@00@Z ; CCondTarget::GetProfileIntA

; 196  : 	m_bInvestAttention				= GetProfileInt(strGKey, "InvestAttention", strPath);

  00465	51		 push	 ecx
  00466	89 83 d4 01 00
	00		 mov	 DWORD PTR [ebx+468], eax
  0046c	8b cc		 mov	 ecx, esp
  0046e	8d 85 ec fb ff
	ff		 lea	 eax, DWORD PTR _strPath$[ebp]
  00474	89 a5 e0 fb ff
	ff		 mov	 DWORD PTR $T24[ebp], esp
  0047a	50		 push	 eax
  0047b	ff 15 00 00 00
	00		 call	 DWORD PTR __imp_??0?$CStringT@DV?$StrTraitMFC_DLL@DV?$ChTraitsCRT@D@ATL@@@@@ATL@@QAE@ABV01@@Z
  00481	51		 push	 ecx
  00482	8b cc		 mov	 ecx, esp
  00484	89 a5 dc fb ff
	ff		 mov	 DWORD PTR $T8[ebp], esp
  0048a	68 00 00 00 00	 push	 OFFSET ??_C@_0BA@LOIGKKCE@InvestAttention@
  0048f	c6 45 fc 1a	 mov	 BYTE PTR __$EHRec$[ebp+8], 26 ; 0000001aH
  00493	ff 15 00 00 00
	00		 call	 DWORD PTR __imp_??0?$CStringT@DV?$StrTraitMFC_DLL@DV?$ChTraitsCRT@D@ATL@@@@@ATL@@QAE@PBD@Z
  00499	51		 push	 ecx
  0049a	8d 85 e8 fb ff
	ff		 lea	 eax, DWORD PTR _strGKey$[ebp]
  004a0	c6 45 fc 1b	 mov	 BYTE PTR __$EHRec$[ebp+8], 27 ; 0000001bH
  004a4	8b cc		 mov	 ecx, esp
  004a6	50		 push	 eax
  004a7	ff 15 00 00 00
	00		 call	 DWORD PTR __imp_??0?$CStringT@DV?$StrTraitMFC_DLL@DV?$ChTraitsCRT@D@ATL@@@@@ATL@@QAE@ABV01@@Z
  004ad	8b cb		 mov	 ecx, ebx
  004af	c6 45 fc 05	 mov	 BYTE PTR __$EHRec$[ebp+8], 5
  004b3	e8 00 00 00 00	 call	 ?GetProfileIntA@CCondTarget@@QAEHV?$CStringT@DV?$StrTraitMFC_DLL@DV?$ChTraitsCRT@D@ATL@@@@@ATL@@00@Z ; CCondTarget::GetProfileIntA

; 197  : 	m_bETF							= GetProfileInt(strGKey, "ETF", strPath);

  004b8	51		 push	 ecx
  004b9	89 83 d8 01 00
	00		 mov	 DWORD PTR [ebx+472], eax
  004bf	8b cc		 mov	 ecx, esp
  004c1	8d 85 ec fb ff
	ff		 lea	 eax, DWORD PTR _strPath$[ebp]
  004c7	89 a5 e0 fb ff
	ff		 mov	 DWORD PTR $T23[ebp], esp
  004cd	50		 push	 eax
  004ce	ff 15 00 00 00
	00		 call	 DWORD PTR __imp_??0?$CStringT@DV?$StrTraitMFC_DLL@DV?$ChTraitsCRT@D@ATL@@@@@ATL@@QAE@ABV01@@Z
  004d4	51		 push	 ecx
  004d5	8b cc		 mov	 ecx, esp
  004d7	89 a5 dc fb ff
	ff		 mov	 DWORD PTR $T7[ebp], esp
  004dd	68 00 00 00 00	 push	 OFFSET ??_C@_03LPOHOGAD@ETF@
  004e2	c6 45 fc 1c	 mov	 BYTE PTR __$EHRec$[ebp+8], 28 ; 0000001cH
  004e6	ff 15 00 00 00
	00		 call	 DWORD PTR __imp_??0?$CStringT@DV?$StrTraitMFC_DLL@DV?$ChTraitsCRT@D@ATL@@@@@ATL@@QAE@PBD@Z
  004ec	51		 push	 ecx
  004ed	8d 85 e8 fb ff
	ff		 lea	 eax, DWORD PTR _strGKey$[ebp]
  004f3	c6 45 fc 1d	 mov	 BYTE PTR __$EHRec$[ebp+8], 29 ; 0000001dH
  004f7	8b cc		 mov	 ecx, esp
  004f9	50		 push	 eax
  004fa	ff 15 00 00 00
	00		 call	 DWORD PTR __imp_??0?$CStringT@DV?$StrTraitMFC_DLL@DV?$ChTraitsCRT@D@ATL@@@@@ATL@@QAE@ABV01@@Z
  00500	8b cb		 mov	 ecx, ebx
  00502	c6 45 fc 05	 mov	 BYTE PTR __$EHRec$[ebp+8], 5
  00506	e8 00 00 00 00	 call	 ?GetProfileIntA@CCondTarget@@QAEHV?$CStringT@DV?$StrTraitMFC_DLL@DV?$ChTraitsCRT@D@ATL@@@@@ATL@@00@Z ; CCondTarget::GetProfileIntA

; 198  : 
; 199  : 	strGKey = "Month";

  0050b	68 00 00 00 00	 push	 OFFSET ??_C@_05MDLMAGGB@Month@
  00510	8d 8d e8 fb ff
	ff		 lea	 ecx, DWORD PTR _strGKey$[ebp]
  00516	89 83 dc 01 00
	00		 mov	 DWORD PTR [ebx+476], eax
  0051c	ff 15 00 00 00
	00		 call	 DWORD PTR __imp_??4?$CStringT@DV?$StrTraitMFC_DLL@DV?$ChTraitsCRT@D@ATL@@@@@ATL@@QAEAAV01@PBD@Z

; 200  : 	m_nSelRadioMonth = GetProfileInt(strGKey, "SelRadioMonth", strPath);

  00522	51		 push	 ecx
  00523	8d 85 ec fb ff
	ff		 lea	 eax, DWORD PTR _strPath$[ebp]
  00529	89 a5 e0 fb ff
	ff		 mov	 DWORD PTR $T22[ebp], esp
  0052f	8b cc		 mov	 ecx, esp
  00531	50		 push	 eax
  00532	ff 15 00 00 00
	00		 call	 DWORD PTR __imp_??0?$CStringT@DV?$StrTraitMFC_DLL@DV?$ChTraitsCRT@D@ATL@@@@@ATL@@QAE@ABV01@@Z
  00538	51		 push	 ecx
  00539	8b cc		 mov	 ecx, esp
  0053b	89 a5 dc fb ff
	ff		 mov	 DWORD PTR $T6[ebp], esp
  00541	68 00 00 00 00	 push	 OFFSET ??_C@_0O@GLAJCEBI@SelRadioMonth@
  00546	c6 45 fc 1e	 mov	 BYTE PTR __$EHRec$[ebp+8], 30 ; 0000001eH
  0054a	ff 15 00 00 00
	00		 call	 DWORD PTR __imp_??0?$CStringT@DV?$StrTraitMFC_DLL@DV?$ChTraitsCRT@D@ATL@@@@@ATL@@QAE@PBD@Z
  00550	51		 push	 ecx
  00551	8d 85 e8 fb ff
	ff		 lea	 eax, DWORD PTR _strGKey$[ebp]
  00557	c6 45 fc 1f	 mov	 BYTE PTR __$EHRec$[ebp+8], 31 ; 0000001fH
  0055b	8b cc		 mov	 ecx, esp
  0055d	50		 push	 eax
  0055e	ff 15 00 00 00
	00		 call	 DWORD PTR __imp_??0?$CStringT@DV?$StrTraitMFC_DLL@DV?$ChTraitsCRT@D@ATL@@@@@ATL@@QAE@ABV01@@Z
  00564	8b cb		 mov	 ecx, ebx
  00566	c6 45 fc 05	 mov	 BYTE PTR __$EHRec$[ebp+8], 5
  0056a	e8 00 00 00 00	 call	 ?GetProfileIntA@CCondTarget@@QAEHV?$CStringT@DV?$StrTraitMFC_DLL@DV?$ChTraitsCRT@D@ATL@@@@@ATL@@00@Z ; CCondTarget::GetProfileIntA

; 201  : 	m_nIndexMonthCombo = GetProfileInt(strGKey, "IndexMonthCombo", strPath);

  0056f	51		 push	 ecx
  00570	89 83 e0 01 00
	00		 mov	 DWORD PTR [ebx+480], eax
  00576	8b cc		 mov	 ecx, esp
  00578	89 a5 e0 fb ff
	ff		 mov	 DWORD PTR $T21[ebp], esp
  0057e	8d 85 ec fb ff
	ff		 lea	 eax, DWORD PTR _strPath$[ebp]
  00584	50		 push	 eax
  00585	ff 15 00 00 00
	00		 call	 DWORD PTR __imp_??0?$CStringT@DV?$StrTraitMFC_DLL@DV?$ChTraitsCRT@D@ATL@@@@@ATL@@QAE@ABV01@@Z
  0058b	51		 push	 ecx
  0058c	8b cc		 mov	 ecx, esp
  0058e	89 a5 dc fb ff
	ff		 mov	 DWORD PTR $T5[ebp], esp
  00594	68 00 00 00 00	 push	 OFFSET ??_C@_0BA@CAOBJMAA@IndexMonthCombo@
  00599	c6 45 fc 20	 mov	 BYTE PTR __$EHRec$[ebp+8], 32 ; 00000020H
  0059d	ff 15 00 00 00
	00		 call	 DWORD PTR __imp_??0?$CStringT@DV?$StrTraitMFC_DLL@DV?$ChTraitsCRT@D@ATL@@@@@ATL@@QAE@PBD@Z
  005a3	51		 push	 ecx
  005a4	8d 85 e8 fb ff
	ff		 lea	 eax, DWORD PTR _strGKey$[ebp]
  005aa	c6 45 fc 21	 mov	 BYTE PTR __$EHRec$[ebp+8], 33 ; 00000021H
  005ae	8b cc		 mov	 ecx, esp
  005b0	50		 push	 eax
  005b1	ff 15 00 00 00
	00		 call	 DWORD PTR __imp_??0?$CStringT@DV?$StrTraitMFC_DLL@DV?$ChTraitsCRT@D@ATL@@@@@ATL@@QAE@ABV01@@Z
  005b7	8b cb		 mov	 ecx, ebx
  005b9	c6 45 fc 05	 mov	 BYTE PTR __$EHRec$[ebp+8], 5
  005bd	e8 00 00 00 00	 call	 ?GetProfileIntA@CCondTarget@@QAEHV?$CStringT@DV?$StrTraitMFC_DLL@DV?$ChTraitsCRT@D@ATL@@@@@ATL@@00@Z ; CCondTarget::GetProfileIntA

; 202  : 	
; 203  : 	strGKey = "Tree_Upjong";

  005c2	68 00 00 00 00	 push	 OFFSET ??_C@_0M@BCNIABEG@Tree_Upjong@
  005c7	8d 8d e8 fb ff
	ff		 lea	 ecx, DWORD PTR _strGKey$[ebp]
  005cd	89 83 e4 01 00
	00		 mov	 DWORD PTR [ebx+484], eax
  005d3	ff 15 00 00 00
	00		 call	 DWORD PTR __imp_??4?$CStringT@DV?$StrTraitMFC_DLL@DV?$ChTraitsCRT@D@ATL@@@@@ATL@@QAEAAV01@PBD@Z

; 204  : 	::GetPrivateProfileString(strGKey, "TargetItem", "0", szTemp, sizeof(szTemp), strPath);

  005d9	ff b5 ec fb ff
	ff		 push	 DWORD PTR _strPath$[ebp]
  005df	8b 3d 00 00 00
	00		 mov	 edi, DWORD PTR __imp__GetPrivateProfileStringA@24
  005e5	8d 85 f0 fb ff
	ff		 lea	 eax, DWORD PTR _szTemp$[ebp]
  005eb	68 00 04 00 00	 push	 1024			; 00000400H
  005f0	50		 push	 eax
  005f1	68 00 00 00 00	 push	 OFFSET ??_C@_01GBGANLPD@0@
  005f6	68 00 00 00 00	 push	 OFFSET ??_C@_0L@INPAEN@TargetItem@
  005fb	ff b5 e8 fb ff
	ff		 push	 DWORD PTR _strGKey$[ebp]
  00601	ff d7		 call	 edi

; 205  : 	m_strEditSubjectSelectItemText.Format("%s", szTemp);

  00603	8b 35 00 00 00
	00		 mov	 esi, DWORD PTR __imp_?Format@?$CStringT@DV?$StrTraitMFC_DLL@DV?$ChTraitsCRT@D@ATL@@@@@ATL@@QAAXPBDZZ
  00609	8d 85 f0 fb ff
	ff		 lea	 eax, DWORD PTR _szTemp$[ebp]
  0060f	50		 push	 eax
  00610	8d 83 e8 01 00
	00		 lea	 eax, DWORD PTR [ebx+488]
  00616	68 00 00 00 00	 push	 OFFSET ??_C@_02DKCKIIND@?$CFs@
  0061b	50		 push	 eax
  0061c	ff d6		 call	 esi
  0061e	83 c4 0c	 add	 esp, 12			; 0000000cH

; 206  : 
; 207  : 	::GetPrivateProfileString(strGKey, "TargetParnetItem", "0", szTemp, sizeof(szTemp), strPath);

  00621	8d 85 f0 fb ff
	ff		 lea	 eax, DWORD PTR _szTemp$[ebp]
  00627	ff b5 ec fb ff
	ff		 push	 DWORD PTR _strPath$[ebp]
  0062d	68 00 04 00 00	 push	 1024			; 00000400H
  00632	50		 push	 eax
  00633	68 00 00 00 00	 push	 OFFSET ??_C@_01GBGANLPD@0@
  00638	68 00 00 00 00	 push	 OFFSET ??_C@_0BB@NABPICPH@TargetParnetItem@
  0063d	ff b5 e8 fb ff
	ff		 push	 DWORD PTR _strGKey$[ebp]
  00643	ff d7		 call	 edi

; 208  : 	m_strEditSubjectSelectParentItemText.Format("%s", szTemp);

  00645	8d 85 f0 fb ff
	ff		 lea	 eax, DWORD PTR _szTemp$[ebp]
  0064b	50		 push	 eax
  0064c	8d 83 ec 01 00
	00		 lea	 eax, DWORD PTR [ebx+492]
  00652	68 00 00 00 00	 push	 OFFSET ??_C@_02DKCKIIND@?$CFs@
  00657	50		 push	 eax
  00658	ff d6		 call	 esi
  0065a	83 c4 0c	 add	 esp, 12			; 0000000cH

; 209  : 
; 210  : 	::GetPrivateProfileString("Tree_JangGubun", "Index", "1000", szTemp, sizeof(szTemp), strPath);

  0065d	8d 85 f0 fb ff
	ff		 lea	 eax, DWORD PTR _szTemp$[ebp]
  00663	ff b5 ec fb ff
	ff		 push	 DWORD PTR _strPath$[ebp]
  00669	68 00 04 00 00	 push	 1024			; 00000400H
  0066e	50		 push	 eax
  0066f	68 00 00 00 00	 push	 OFFSET ??_C@_04KOJKLCBG@1000@
  00674	68 00 00 00 00	 push	 OFFSET ??_C@_05FNNGFGLF@Index@
  00679	68 00 00 00 00	 push	 OFFSET ??_C@_0P@DNFHBFAL@Tree_JangGubun@
  0067e	ff d7		 call	 edi

; 211  : 	m_strJangGubun.Format("%s", szTemp);

  00680	8d 85 f0 fb ff
	ff		 lea	 eax, DWORD PTR _szTemp$[ebp]
  00686	50		 push	 eax
  00687	8d 83 f0 01 00
	00		 lea	 eax, DWORD PTR [ebx+496]
  0068d	68 00 00 00 00	 push	 OFFSET ??_C@_02DKCKIIND@?$CFs@
  00692	50		 push	 eax
  00693	ff d6		 call	 esi
  00695	83 c4 0c	 add	 esp, 12			; 0000000cH

; 212  : 
; 213  : 	SetEditSubjectTarGetBit();

  00698	8b cb		 mov	 ecx, ebx
  0069a	e8 00 00 00 00	 call	 ?SetEditSubjectTarGetBit@CCondTarget@@QAEXXZ ; CCondTarget::SetEditSubjectTarGetBit
; File C:\Program Files (x86)\Microsoft Visual Studio\2019\Community\VC\Tools\MSVC\14.29.30133\atlmfc\include\afxtempl.h

; 1555 : 	CAssoc* pAssoc = GetAssocAt(key, nHashBucket, nHashValue);

  0069f	8b bd d0 fb ff
	ff		 mov	 edi, DWORD PTR _nKey$1$[ebp]
  006a5	8d 8d e0 fb ff
	ff		 lea	 ecx, DWORD PTR _nHashValue$19[ebp]
  006ab	51		 push	 ecx
  006ac	8d 8d dc fb ff
	ff		 lea	 ecx, DWORD PTR _nHashBucket$4[ebp]
  006b2	51		 push	 ecx
  006b3	57		 push	 edi
  006b4	8d 8b 94 01 00
	00		 lea	 ecx, DWORD PTR [ebx+404]
  006ba	e8 00 00 00 00	 call	 ?GetAssocAt@?$CMap@HHPAVCGetBackData@@PAV1@@@IBEPAVCAssoc@1@HAAI0@Z ; CMap<int,int,CGetBackData *,CGetBackData *>::GetAssocAt

; 1556 : 	if (pAssoc == NULL)

  006bf	85 c0		 test	 eax, eax
  006c1	74 05		 je	 SHORT $LN129@LoadTdfDat

; 1557 : 		return FALSE;  // not in map
; 1558 : 
; 1559 : 	rValue = pAssoc->value;

  006c3	8b 48 04	 mov	 ecx, DWORD PTR [eax+4]
  006c6	eb 06		 jmp	 SHORT $LN76@LoadTdfDat
$LN129@LoadTdfDat:

; 1556 : 	if (pAssoc == NULL)

  006c8	8b 8d e0 fb ff
	ff		 mov	 ecx, DWORD PTR _pData$20[ebp]
$LN76@LoadTdfDat:
; File D:\git\src\IBK\IBK_DRFN\ProjSrc\SrcDrfn\Chart\MULTICHART\CondTarget.cpp

; 150  : 	if (pData)

  006ce	85 c9		 test	 ecx, ecx
  006d0	0f 84 c4 00 00
	00		 je	 $LN128@LoadTdfDat

; 151  : 	{
; 152  : 		delete pData;

  006d6	8b 01		 mov	 eax, DWORD PTR [ecx]
  006d8	6a 01		 push	 1
  006da	ff 10		 call	 DWORD PTR [eax]
; File C:\Program Files (x86)\Microsoft Visual Studio\2019\Community\VC\Tools\MSVC\14.29.30133\atlmfc\include\afxtempl.h

; 1614 : 	if (m_pHashTable == NULL)

  006dc	83 bb 98 01 00
	00 00		 cmp	 DWORD PTR [ebx+408], 0
  006e3	0f 84 b1 00 00
	00		 je	 $LN128@LoadTdfDat

; 165  : 	ldiv_t HashVal = ldiv((long)(ARG_KEY)key, 127773);

  006e9	8b c7		 mov	 eax, edi
  006eb	b9 1d f3 01 00	 mov	 ecx, 127773		; 0001f31dH
  006f0	99		 cdq
  006f1	f7 f9		 idiv	 ecx

; 166  : 	HashVal.rem = 16807 * HashVal.rem - 2836 * HashVal.quot;

  006f3	69 c0 14 0b 00
	00		 imul	 eax, eax, 2836
  006f9	69 ca a7 41 00
	00		 imul	 ecx, edx, 16807
  006ff	2b c8		 sub	 ecx, eax

; 1620 : 	ppAssocPrev = &m_pHashTable[nHashValue%m_nHashTableSize];

  00701	8d b1 ff ff ff
	7f		 lea	 esi, DWORD PTR [ecx+2147483647]
  00707	0f 49 f1	 cmovns	 esi, ecx
  0070a	33 d2		 xor	 edx, edx
  0070c	8b c6		 mov	 eax, esi
  0070e	f7 b3 9c 01 00
	00		 div	 DWORD PTR [ebx+412]
  00714	8b 83 98 01 00
	00		 mov	 eax, DWORD PTR [ebx+408]
  0071a	8d 14 90	 lea	 edx, DWORD PTR [eax+edx*4]

; 1621 : 
; 1622 : 	CAssoc* pAssoc;
; 1623 : 	for (pAssoc = *ppAssocPrev; pAssoc != NULL; pAssoc = pAssoc->pNext)

  0071d	8b 02		 mov	 eax, DWORD PTR [edx]
  0071f	85 c0		 test	 eax, eax
  00721	74 77		 je	 SHORT $LN128@LoadTdfDat
$LL82@LoadTdfDat:

; 1624 : 	{
; 1625 : 		if ((pAssoc->nHashValue == nHashValue) && CompareElements(&pAssoc->key, &key))

  00723	39 70 0c	 cmp	 DWORD PTR [eax+12], esi
  00726	75 04		 jne	 SHORT $LN84@LoadTdfDat

; 156  : 	return *pElement1 == *pElement2;

  00728	39 38		 cmp	 DWORD PTR [eax], edi

; 1625 : 		if ((pAssoc->nHashValue == nHashValue) && CompareElements(&pAssoc->key, &key))

  0072a	74 0b		 je	 SHORT $LN116@LoadTdfDat
$LN84@LoadTdfDat:

; 1629 : 			FreeAssoc(pAssoc);
; 1630 : 			return TRUE;
; 1631 : 		}
; 1632 : 		ppAssocPrev = &pAssoc->pNext;

  0072c	8d 50 08	 lea	 edx, DWORD PTR [eax+8]
  0072f	8b 02		 mov	 eax, DWORD PTR [edx]
  00731	85 c0		 test	 eax, eax
  00733	75 ee		 jne	 SHORT $LL82@LoadTdfDat

; 1621 : 
; 1622 : 	CAssoc* pAssoc;
; 1623 : 	for (pAssoc = *ppAssocPrev; pAssoc != NULL; pAssoc = pAssoc->pNext)

  00735	eb 63		 jmp	 SHORT $LN128@LoadTdfDat
$LN116@LoadTdfDat:

; 1626 : 		{
; 1627 : 			// remove it
; 1628 : 			*ppAssocPrev = pAssoc->pNext;  // remove from list

  00737	8b 48 08	 mov	 ecx, DWORD PTR [eax+8]
  0073a	89 0a		 mov	 DWORD PTR [edx], ecx

; 1518 : 	pAssoc->pNext = m_pFreeList;

  0073c	8b 8b a4 01 00
	00		 mov	 ecx, DWORD PTR [ebx+420]
  00742	89 48 08	 mov	 DWORD PTR [eax+8], ecx

; 1519 : 	m_pFreeList = pAssoc;
; 1520 : 	m_nCount--;

  00745	83 83 a0 01 00
	00 ff		 add	 DWORD PTR [ebx+416], -1
  0074c	89 83 a4 01 00
	00		 mov	 DWORD PTR [ebx+420], eax

; 1521 : 	ASSERT(m_nCount >= 0);  // make sure we don't underflow
; 1522 : 
; 1523 : 	// if no more elements, cleanup completely
; 1524 : 	if (m_nCount == 0)

  00752	75 46		 jne	 SHORT $LN128@LoadTdfDat

; 1446 : 	if (m_pHashTable != NULL)

  00754	8b 83 98 01 00
	00		 mov	 eax, DWORD PTR [ebx+408]
  0075a	85 c0		 test	 eax, eax
  0075c	74 13		 je	 SHORT $LN108@LoadTdfDat

; 1447 : 	{
; 1448 : 		// destroy elements (values and keys)
; 1449 : 		for (UINT nHash = 0; nHash < m_nHashTableSize; nHash++)
; 1450 : 		{
; 1451 : 			CAssoc* pAssoc;
; 1452 : 			for (pAssoc = m_pHashTable[nHash]; pAssoc != NULL;
; 1453 : 			  pAssoc = pAssoc->pNext)
; 1454 : 			{
; 1455 : 				pAssoc->CAssoc::~CAssoc();
; 1456 : 			}
; 1457 : 		}
; 1458 : 
; 1459 : 		// free hash table
; 1460 : 		delete[] m_pHashTable;

  0075e	50		 push	 eax
  0075f	e8 00 00 00 00	 call	 ??_V@YAXPAX@Z		; operator delete[]
  00764	83 c4 04	 add	 esp, 4

; 1461 : 		m_pHashTable = NULL;

  00767	c7 83 98 01 00
	00 00 00 00 00	 mov	 DWORD PTR [ebx+408], 0
$LN108@LoadTdfDat:

; 1462 : 	}
; 1463 : 
; 1464 : 	m_nCount = 0;
; 1465 : 	m_pFreeList = NULL;
; 1466 : 	m_pBlocks->FreeDataChain();

  00771	8b 8b a8 01 00
	00		 mov	 ecx, DWORD PTR [ebx+424]
  00777	c7 83 a0 01 00
	00 00 00 00 00	 mov	 DWORD PTR [ebx+416], 0
  00781	c7 83 a4 01 00
	00 00 00 00 00	 mov	 DWORD PTR [ebx+420], 0
  0078b	e8 00 00 00 00	 call	 ?FreeDataChain@CPlex@@QAEXXZ ; CPlex::FreeDataChain

; 1467 : 	m_pBlocks = NULL;

  00790	c7 83 a8 01 00
	00 00 00 00 00	 mov	 DWORD PTR [ebx+424], 0
$LN128@LoadTdfDat:
; File D:\git\src\IBK\IBK_DRFN\ProjSrc\SrcDrfn\Chart\MULTICHART\CondTarget.cpp

; 216  : }

  0079a	8d 8d e8 fb ff
	ff		 lea	 ecx, DWORD PTR _strGKey$[ebp]
  007a0	ff 15 00 00 00
	00		 call	 DWORD PTR __imp_??1?$CStringT@DV?$StrTraitMFC_DLL@DV?$ChTraitsCRT@D@ATL@@@@@ATL@@QAE@XZ
$LN54@LoadTdfDat:
  007a6	8d 8d b4 fb ff
	ff		 lea	 ecx, DWORD PTR _ff$[ebp]
  007ac	e8 00 00 00 00	 call	 ??1CFileFind@@UAE@XZ	; CFileFind::~CFileFind
  007b1	8d 8d ec fb ff
	ff		 lea	 ecx, DWORD PTR _strPath$[ebp]
  007b7	ff 15 00 00 00
	00		 call	 DWORD PTR __imp_??1?$CStringT@DV?$StrTraitMFC_DLL@DV?$ChTraitsCRT@D@ATL@@@@@ATL@@QAE@XZ
$LN53@LoadTdfDat:
  007bd	8d 8d d4 fb ff
	ff		 lea	 ecx, DWORD PTR _szExt$[ebp]
  007c3	ff 15 00 00 00
	00		 call	 DWORD PTR __imp_??1?$CStringT@DV?$StrTraitMFC_DLL@DV?$ChTraitsCRT@D@ATL@@@@@ATL@@QAE@XZ
  007c9	8d 8d d8 fb ff
	ff		 lea	 ecx, DWORD PTR _strFullPath$[ebp]
  007cf	ff 15 00 00 00
	00		 call	 DWORD PTR __imp_??1?$CStringT@DV?$StrTraitMFC_DLL@DV?$ChTraitsCRT@D@ATL@@@@@ATL@@QAE@XZ
  007d5	8b 4d f4	 mov	 ecx, DWORD PTR __$EHRec$[ebp]
  007d8	64 89 0d 00 00
	00 00		 mov	 DWORD PTR fs:0, ecx
  007df	59		 pop	 ecx
  007e0	5f		 pop	 edi
  007e1	5e		 pop	 esi
  007e2	5b		 pop	 ebx
  007e3	8b 4d f0	 mov	 ecx, DWORD PTR __$ArrayPad$[ebp]
  007e6	33 cd		 xor	 ecx, ebp
  007e8	e8 00 00 00 00	 call	 @__security_check_cookie@4
  007ed	8b e5		 mov	 esp, ebp
  007ef	5d		 pop	 ebp
  007f0	c2 04 00	 ret	 4
_TEXT	ENDS
;	COMDAT text$x
text$x	SEGMENT
__unwindfunclet$?LoadTdfData@CCondTarget@@QAEXPAVCGetBackData@@@Z$0:
  00000	8d 8d d8 fb ff
	ff		 lea	 ecx, DWORD PTR _strFullPath$[ebp]
  00006	ff 25 00 00 00
	00		 jmp	 DWORD PTR __imp_??1?$CStringT@DV?$StrTraitMFC_DLL@DV?$ChTraitsCRT@D@ATL@@@@@ATL@@QAE@XZ
__unwindfunclet$?LoadTdfData@CCondTarget@@QAEXPAVCGetBackData@@@Z$1:
  0000c	8d 8d d4 fb ff
	ff		 lea	 ecx, DWORD PTR _szExt$[ebp]
  00012	ff 25 00 00 00
	00		 jmp	 DWORD PTR __imp_??1?$CStringT@DV?$StrTraitMFC_DLL@DV?$ChTraitsCRT@D@ATL@@@@@ATL@@QAE@XZ
__unwindfunclet$?LoadTdfData@CCondTarget@@QAEXPAVCGetBackData@@@Z$2:
  00018	8d 8d ec fb ff
	ff		 lea	 ecx, DWORD PTR _strPath$[ebp]
  0001e	ff 25 00 00 00
	00		 jmp	 DWORD PTR __imp_??1?$CStringT@DV?$StrTraitMFC_DLL@DV?$ChTraitsCRT@D@ATL@@@@@ATL@@QAE@XZ
__unwindfunclet$?LoadTdfData@CCondTarget@@QAEXPAVCGetBackData@@@Z$3:
  00024	8d 8d e4 fb ff
	ff		 lea	 ecx, DWORD PTR $T35[ebp]
  0002a	ff 25 00 00 00
	00		 jmp	 DWORD PTR __imp_??1?$CStringT@DV?$StrTraitMFC_DLL@DV?$ChTraitsCRT@D@ATL@@@@@ATL@@QAE@XZ
__unwindfunclet$?LoadTdfData@CCondTarget@@QAEXPAVCGetBackData@@@Z$4:
  00030	8d 8d b4 fb ff
	ff		 lea	 ecx, DWORD PTR _ff$[ebp]
  00036	e9 00 00 00 00	 jmp	 ??1CFileFind@@UAE@XZ	; CFileFind::~CFileFind
__unwindfunclet$?LoadTdfData@CCondTarget@@QAEXPAVCGetBackData@@@Z$5:
  0003b	8d 8d e8 fb ff
	ff		 lea	 ecx, DWORD PTR _strGKey$[ebp]
  00041	ff 25 00 00 00
	00		 jmp	 DWORD PTR __imp_??1?$CStringT@DV?$StrTraitMFC_DLL@DV?$ChTraitsCRT@D@ATL@@@@@ATL@@QAE@XZ
__unwindfunclet$?LoadTdfData@CCondTarget@@QAEXPAVCGetBackData@@@Z$6:
  00047	8b 8d e4 fb ff
	ff		 mov	 ecx, DWORD PTR $T34[ebp]
  0004d	ff 25 00 00 00
	00		 jmp	 DWORD PTR __imp_??1?$CStringT@DV?$StrTraitMFC_DLL@DV?$ChTraitsCRT@D@ATL@@@@@ATL@@QAE@XZ
__unwindfunclet$?LoadTdfData@CCondTarget@@QAEXPAVCGetBackData@@@Z$7:
  00053	8b 8d dc fb ff
	ff		 mov	 ecx, DWORD PTR $T18[ebp]
  00059	ff 25 00 00 00
	00		 jmp	 DWORD PTR __imp_??1?$CStringT@DV?$StrTraitMFC_DLL@DV?$ChTraitsCRT@D@ATL@@@@@ATL@@QAE@XZ
__unwindfunclet$?LoadTdfData@CCondTarget@@QAEXPAVCGetBackData@@@Z$9:
  0005f	8b 8d e0 fb ff
	ff		 mov	 ecx, DWORD PTR $T33[ebp]
  00065	ff 25 00 00 00
	00		 jmp	 DWORD PTR __imp_??1?$CStringT@DV?$StrTraitMFC_DLL@DV?$ChTraitsCRT@D@ATL@@@@@ATL@@QAE@XZ
__unwindfunclet$?LoadTdfData@CCondTarget@@QAEXPAVCGetBackData@@@Z$10:
  0006b	8b 8d dc fb ff
	ff		 mov	 ecx, DWORD PTR $T17[ebp]
  00071	ff 25 00 00 00
	00		 jmp	 DWORD PTR __imp_??1?$CStringT@DV?$StrTraitMFC_DLL@DV?$ChTraitsCRT@D@ATL@@@@@ATL@@QAE@XZ
__unwindfunclet$?LoadTdfData@CCondTarget@@QAEXPAVCGetBackData@@@Z$12:
  00077	8b 8d e0 fb ff
	ff		 mov	 ecx, DWORD PTR $T32[ebp]
  0007d	ff 25 00 00 00
	00		 jmp	 DWORD PTR __imp_??1?$CStringT@DV?$StrTraitMFC_DLL@DV?$ChTraitsCRT@D@ATL@@@@@ATL@@QAE@XZ
__unwindfunclet$?LoadTdfData@CCondTarget@@QAEXPAVCGetBackData@@@Z$13:
  00083	8b 8d dc fb ff
	ff		 mov	 ecx, DWORD PTR $T16[ebp]
  00089	ff 25 00 00 00
	00		 jmp	 DWORD PTR __imp_??1?$CStringT@DV?$StrTraitMFC_DLL@DV?$ChTraitsCRT@D@ATL@@@@@ATL@@QAE@XZ
__unwindfunclet$?LoadTdfData@CCondTarget@@QAEXPAVCGetBackData@@@Z$15:
  0008f	8b 8d e0 fb ff
	ff		 mov	 ecx, DWORD PTR $T31[ebp]
  00095	ff 25 00 00 00
	00		 jmp	 DWORD PTR __imp_??1?$CStringT@DV?$StrTraitMFC_DLL@DV?$ChTraitsCRT@D@ATL@@@@@ATL@@QAE@XZ
__unwindfunclet$?LoadTdfData@CCondTarget@@QAEXPAVCGetBackData@@@Z$16:
  0009b	8b 8d dc fb ff
	ff		 mov	 ecx, DWORD PTR $T15[ebp]
  000a1	ff 25 00 00 00
	00		 jmp	 DWORD PTR __imp_??1?$CStringT@DV?$StrTraitMFC_DLL@DV?$ChTraitsCRT@D@ATL@@@@@ATL@@QAE@XZ
__unwindfunclet$?LoadTdfData@CCondTarget@@QAEXPAVCGetBackData@@@Z$18:
  000a7	8b 8d e0 fb ff
	ff		 mov	 ecx, DWORD PTR $T30[ebp]
  000ad	ff 25 00 00 00
	00		 jmp	 DWORD PTR __imp_??1?$CStringT@DV?$StrTraitMFC_DLL@DV?$ChTraitsCRT@D@ATL@@@@@ATL@@QAE@XZ
__unwindfunclet$?LoadTdfData@CCondTarget@@QAEXPAVCGetBackData@@@Z$19:
  000b3	8b 8d dc fb ff
	ff		 mov	 ecx, DWORD PTR $T14[ebp]
  000b9	ff 25 00 00 00
	00		 jmp	 DWORD PTR __imp_??1?$CStringT@DV?$StrTraitMFC_DLL@DV?$ChTraitsCRT@D@ATL@@@@@ATL@@QAE@XZ
__unwindfunclet$?LoadTdfData@CCondTarget@@QAEXPAVCGetBackData@@@Z$21:
  000bf	8b 8d e0 fb ff
	ff		 mov	 ecx, DWORD PTR $T29[ebp]
  000c5	ff 25 00 00 00
	00		 jmp	 DWORD PTR __imp_??1?$CStringT@DV?$StrTraitMFC_DLL@DV?$ChTraitsCRT@D@ATL@@@@@ATL@@QAE@XZ
__unwindfunclet$?LoadTdfData@CCondTarget@@QAEXPAVCGetBackData@@@Z$22:
  000cb	8b 8d dc fb ff
	ff		 mov	 ecx, DWORD PTR $T13[ebp]
  000d1	ff 25 00 00 00
	00		 jmp	 DWORD PTR __imp_??1?$CStringT@DV?$StrTraitMFC_DLL@DV?$ChTraitsCRT@D@ATL@@@@@ATL@@QAE@XZ
__unwindfunclet$?LoadTdfData@CCondTarget@@QAEXPAVCGetBackData@@@Z$24:
  000d7	8b 8d e0 fb ff
	ff		 mov	 ecx, DWORD PTR $T28[ebp]
  000dd	ff 25 00 00 00
	00		 jmp	 DWORD PTR __imp_??1?$CStringT@DV?$StrTraitMFC_DLL@DV?$ChTraitsCRT@D@ATL@@@@@ATL@@QAE@XZ
__unwindfunclet$?LoadTdfData@CCondTarget@@QAEXPAVCGetBackData@@@Z$25:
  000e3	8b 8d dc fb ff
	ff		 mov	 ecx, DWORD PTR $T12[ebp]
  000e9	ff 25 00 00 00
	00		 jmp	 DWORD PTR __imp_??1?$CStringT@DV?$StrTraitMFC_DLL@DV?$ChTraitsCRT@D@ATL@@@@@ATL@@QAE@XZ
__unwindfunclet$?LoadTdfData@CCondTarget@@QAEXPAVCGetBackData@@@Z$27:
  000ef	8b 8d e0 fb ff
	ff		 mov	 ecx, DWORD PTR $T27[ebp]
  000f5	ff 25 00 00 00
	00		 jmp	 DWORD PTR __imp_??1?$CStringT@DV?$StrTraitMFC_DLL@DV?$ChTraitsCRT@D@ATL@@@@@ATL@@QAE@XZ
__unwindfunclet$?LoadTdfData@CCondTarget@@QAEXPAVCGetBackData@@@Z$28:
  000fb	8b 8d dc fb ff
	ff		 mov	 ecx, DWORD PTR $T11[ebp]
  00101	ff 25 00 00 00
	00		 jmp	 DWORD PTR __imp_??1?$CStringT@DV?$StrTraitMFC_DLL@DV?$ChTraitsCRT@D@ATL@@@@@ATL@@QAE@XZ
__unwindfunclet$?LoadTdfData@CCondTarget@@QAEXPAVCGetBackData@@@Z$30:
  00107	8b 8d e0 fb ff
	ff		 mov	 ecx, DWORD PTR $T26[ebp]
  0010d	ff 25 00 00 00
	00		 jmp	 DWORD PTR __imp_??1?$CStringT@DV?$StrTraitMFC_DLL@DV?$ChTraitsCRT@D@ATL@@@@@ATL@@QAE@XZ
__unwindfunclet$?LoadTdfData@CCondTarget@@QAEXPAVCGetBackData@@@Z$31:
  00113	8b 8d dc fb ff
	ff		 mov	 ecx, DWORD PTR $T10[ebp]
  00119	ff 25 00 00 00
	00		 jmp	 DWORD PTR __imp_??1?$CStringT@DV?$StrTraitMFC_DLL@DV?$ChTraitsCRT@D@ATL@@@@@ATL@@QAE@XZ
__unwindfunclet$?LoadTdfData@CCondTarget@@QAEXPAVCGetBackData@@@Z$33:
  0011f	8b 8d e0 fb ff
	ff		 mov	 ecx, DWORD PTR $T25[ebp]
  00125	ff 25 00 00 00
	00		 jmp	 DWORD PTR __imp_??1?$CStringT@DV?$StrTraitMFC_DLL@DV?$ChTraitsCRT@D@ATL@@@@@ATL@@QAE@XZ
__unwindfunclet$?LoadTdfData@CCondTarget@@QAEXPAVCGetBackData@@@Z$34:
  0012b	8b 8d dc fb ff
	ff		 mov	 ecx, DWORD PTR $T9[ebp]
  00131	ff 25 00 00 00
	00		 jmp	 DWORD PTR __imp_??1?$CStringT@DV?$StrTraitMFC_DLL@DV?$ChTraitsCRT@D@ATL@@@@@ATL@@QAE@XZ
__unwindfunclet$?LoadTdfData@CCondTarget@@QAEXPAVCGetBackData@@@Z$36:
  00137	8b 8d e0 fb ff
	ff		 mov	 ecx, DWORD PTR $T24[ebp]
  0013d	ff 25 00 00 00
	00		 jmp	 DWORD PTR __imp_??1?$CStringT@DV?$StrTraitMFC_DLL@DV?$ChTraitsCRT@D@ATL@@@@@ATL@@QAE@XZ
__unwindfunclet$?LoadTdfData@CCondTarget@@QAEXPAVCGetBackData@@@Z$37:
  00143	8b 8d dc fb ff
	ff		 mov	 ecx, DWORD PTR $T8[ebp]
  00149	ff 25 00 00 00
	00		 jmp	 DWORD PTR __imp_??1?$CStringT@DV?$StrTraitMFC_DLL@DV?$ChTraitsCRT@D@ATL@@@@@ATL@@QAE@XZ
__unwindfunclet$?LoadTdfData@CCondTarget@@QAEXPAVCGetBackData@@@Z$39:
  0014f	8b 8d e0 fb ff
	ff		 mov	 ecx, DWORD PTR $T23[ebp]
  00155	ff 25 00 00 00
	00		 jmp	 DWORD PTR __imp_??1?$CStringT@DV?$StrTraitMFC_DLL@DV?$ChTraitsCRT@D@ATL@@@@@ATL@@QAE@XZ
__unwindfunclet$?LoadTdfData@CCondTarget@@QAEXPAVCGetBackData@@@Z$40:
  0015b	8b 8d dc fb ff
	ff		 mov	 ecx, DWORD PTR $T7[ebp]
  00161	ff 25 00 00 00
	00		 jmp	 DWORD PTR __imp_??1?$CStringT@DV?$StrTraitMFC_DLL@DV?$ChTraitsCRT@D@ATL@@@@@ATL@@QAE@XZ
__unwindfunclet$?LoadTdfData@CCondTarget@@QAEXPAVCGetBackData@@@Z$42:
  00167	8b 8d e0 fb ff
	ff		 mov	 ecx, DWORD PTR $T22[ebp]
  0016d	ff 25 00 00 00
	00		 jmp	 DWORD PTR __imp_??1?$CStringT@DV?$StrTraitMFC_DLL@DV?$ChTraitsCRT@D@ATL@@@@@ATL@@QAE@XZ
__unwindfunclet$?LoadTdfData@CCondTarget@@QAEXPAVCGetBackData@@@Z$43:
  00173	8b 8d dc fb ff
	ff		 mov	 ecx, DWORD PTR $T6[ebp]
  00179	ff 25 00 00 00
	00		 jmp	 DWORD PTR __imp_??1?$CStringT@DV?$StrTraitMFC_DLL@DV?$ChTraitsCRT@D@ATL@@@@@ATL@@QAE@XZ
__unwindfunclet$?LoadTdfData@CCondTarget@@QAEXPAVCGetBackData@@@Z$45:
  0017f	8b 8d e0 fb ff
	ff		 mov	 ecx, DWORD PTR $T21[ebp]
  00185	ff 25 00 00 00
	00		 jmp	 DWORD PTR __imp_??1?$CStringT@DV?$StrTraitMFC_DLL@DV?$ChTraitsCRT@D@ATL@@@@@ATL@@QAE@XZ
__unwindfunclet$?LoadTdfData@CCondTarget@@QAEXPAVCGetBackData@@@Z$46:
  0018b	8b 8d dc fb ff
	ff		 mov	 ecx, DWORD PTR $T5[ebp]
  00191	ff 25 00 00 00
	00		 jmp	 DWORD PTR __imp_??1?$CStringT@DV?$StrTraitMFC_DLL@DV?$ChTraitsCRT@D@ATL@@@@@ATL@@QAE@XZ
  00197	cc		 int	 3
  00198	cc		 int	 3
  00199	cc		 int	 3
  0019a	cc		 int	 3
  0019b	cc		 int	 3
__ehhandler$?LoadTdfData@CCondTarget@@QAEXPAVCGetBackData@@@Z:
  0019c	90		 npad	 1
  0019d	90		 npad	 1
  0019e	8b 54 24 08	 mov	 edx, DWORD PTR [esp+8]
  001a2	8d 42 0c	 lea	 eax, DWORD PTR [edx+12]
  001a5	8b 8a b0 fb ff
	ff		 mov	 ecx, DWORD PTR [edx-1104]
  001ab	33 c8		 xor	 ecx, eax
  001ad	e8 00 00 00 00	 call	 @__security_check_cookie@4
  001b2	8b 4a fc	 mov	 ecx, DWORD PTR [edx-4]
  001b5	33 c8		 xor	 ecx, eax
  001b7	e8 00 00 00 00	 call	 @__security_check_cookie@4
  001bc	b8 00 00 00 00	 mov	 eax, OFFSET __ehfuncinfo$?LoadTdfData@CCondTarget@@QAEXPAVCGetBackData@@@Z
  001c1	e9 00 00 00 00	 jmp	 ___CxxFrameHandler3
text$x	ENDS
?LoadTdfData@CCondTarget@@QAEXPAVCGetBackData@@@Z ENDP	; CCondTarget::LoadTdfData
; Function compile flags: /Ogtp
; File D:\git\src\IBK\IBK_DRFN\ProjSrc\SrcDrfn\Chart\MULTICHART\CondTarget.cpp
; File C:\Program Files (x86)\Microsoft Visual Studio\2019\Community\VC\Tools\MSVC\14.29.30133\atlmfc\include\afxtempl.h
; File D:\git\src\IBK\IBK_DRFN\ProjSrc\SrcDrfn\Chart\MULTICHART\CondTarget.cpp
; File C:\Program Files (x86)\Microsoft Visual Studio\2019\Community\VC\Tools\MSVC\14.29.30133\atlmfc\include\afxtempl.h
; File D:\git\src\IBK\IBK_DRFN\ProjSrc\SrcDrfn\Chart\MULTICHART\CondTarget.cpp
; File C:\Program Files (x86)\Microsoft Visual Studio\2019\Community\VC\Tools\MSVC\14.29.30133\atlmfc\include\afxtempl.h
; File D:\git\src\IBK\IBK_DRFN\ProjSrc\SrcDrfn\Chart\MULTICHART\CondTarget.cpp
; File C:\Program Files (x86)\Microsoft Visual Studio\2019\Community\VC\Tools\MSVC\14.29.30133\atlmfc\include\afxtempl.h
; File D:\git\src\IBK\IBK_DRFN\ProjSrc\SrcDrfn\Chart\MULTICHART\CondTarget.cpp
;	COMDAT ?RemoveAtGetBackData@CCondTarget@@QAEXH@Z
_TEXT	SEGMENT
_nHashBucket$3 = -8					; size = 4
_nHashValue$4 = -4					; size = 4
_pData$ = 8						; size = 4
_nKey$ = 8						; size = 4
?RemoveAtGetBackData@CCondTarget@@QAEXH@Z PROC		; CCondTarget::RemoveAtGetBackData, COMDAT
; _this$ = ecx

; 147  : {

  00000	55		 push	 ebp
  00001	8b ec		 mov	 ebp, esp
  00003	83 ec 08	 sub	 esp, 8
  00006	56		 push	 esi
  00007	57		 push	 edi
; File C:\Program Files (x86)\Microsoft Visual Studio\2019\Community\VC\Tools\MSVC\14.29.30133\atlmfc\include\afxtempl.h

; 1555 : 	CAssoc* pAssoc = GetAssocAt(key, nHashBucket, nHashValue);

  00008	8b 7d 08	 mov	 edi, DWORD PTR _nKey$[ebp]
; File D:\git\src\IBK\IBK_DRFN\ProjSrc\SrcDrfn\Chart\MULTICHART\CondTarget.cpp

; 147  : {

  0000b	8b f1		 mov	 esi, ecx
; File C:\Program Files (x86)\Microsoft Visual Studio\2019\Community\VC\Tools\MSVC\14.29.30133\atlmfc\include\afxtempl.h

; 1555 : 	CAssoc* pAssoc = GetAssocAt(key, nHashBucket, nHashValue);

  0000d	8d 4d fc	 lea	 ecx, DWORD PTR _nHashValue$4[ebp]
  00010	51		 push	 ecx
  00011	8d 4d f8	 lea	 ecx, DWORD PTR _nHashBucket$3[ebp]
  00014	51		 push	 ecx
  00015	57		 push	 edi
  00016	8d 8e 94 01 00
	00		 lea	 ecx, DWORD PTR [esi+404]
  0001c	e8 00 00 00 00	 call	 ?GetAssocAt@?$CMap@HHPAVCGetBackData@@PAV1@@@IBEPAVCAssoc@1@HAAI0@Z ; CMap<int,int,CGetBackData *,CGetBackData *>::GetAssocAt

; 1556 : 	if (pAssoc == NULL)

  00021	85 c0		 test	 eax, eax
  00023	74 05		 je	 SHORT $LN58@RemoveAtGe

; 1557 : 		return FALSE;  // not in map
; 1558 : 
; 1559 : 	rValue = pAssoc->value;

  00025	8b 48 04	 mov	 ecx, DWORD PTR [eax+4]
  00028	eb 03		 jmp	 SHORT $LN6@RemoveAtGe
$LN58@RemoveAtGe:

; 1556 : 	if (pAssoc == NULL)

  0002a	8b 4d 08	 mov	 ecx, DWORD PTR _pData$[ebp]
$LN6@RemoveAtGe:
; File D:\git\src\IBK\IBK_DRFN\ProjSrc\SrcDrfn\Chart\MULTICHART\CondTarget.cpp

; 150  : 	if (pData)

  0002d	85 c9		 test	 ecx, ecx
  0002f	0f 84 d1 00 00
	00		 je	 $LN57@RemoveAtGe

; 151  : 	{
; 152  : 		delete pData;

  00035	8b 01		 mov	 eax, DWORD PTR [ecx]
  00037	6a 01		 push	 1
  00039	ff 10		 call	 DWORD PTR [eax]
; File C:\Program Files (x86)\Microsoft Visual Studio\2019\Community\VC\Tools\MSVC\14.29.30133\atlmfc\include\afxtempl.h

; 1614 : 	if (m_pHashTable == NULL)

  0003b	83 be 98 01 00
	00 00		 cmp	 DWORD PTR [esi+408], 0
  00042	0f 84 be 00 00
	00		 je	 $LN57@RemoveAtGe

; 165  : 	ldiv_t HashVal = ldiv((long)(ARG_KEY)key, 127773);

  00048	8b c7		 mov	 eax, edi
  0004a	b9 1d f3 01 00	 mov	 ecx, 127773		; 0001f31dH
  0004f	99		 cdq
  00050	f7 f9		 idiv	 ecx
  00052	53		 push	 ebx

; 166  : 	HashVal.rem = 16807 * HashVal.rem - 2836 * HashVal.quot;

  00053	69 c0 14 0b 00
	00		 imul	 eax, eax, 2836
  00059	69 ca a7 41 00
	00		 imul	 ecx, edx, 16807
  0005f	2b c8		 sub	 ecx, eax

; 1620 : 	ppAssocPrev = &m_pHashTable[nHashValue%m_nHashTableSize];

  00061	8d 99 ff ff ff
	7f		 lea	 ebx, DWORD PTR [ecx+2147483647]
  00067	0f 49 d9	 cmovns	 ebx, ecx
  0006a	33 d2		 xor	 edx, edx
  0006c	8b c3		 mov	 eax, ebx
  0006e	f7 b6 9c 01 00
	00		 div	 DWORD PTR [esi+412]
  00074	8b 86 98 01 00
	00		 mov	 eax, DWORD PTR [esi+408]
  0007a	8d 14 90	 lea	 edx, DWORD PTR [eax+edx*4]

; 1621 : 
; 1622 : 	CAssoc* pAssoc;
; 1623 : 	for (pAssoc = *ppAssocPrev; pAssoc != NULL; pAssoc = pAssoc->pNext)

  0007d	8b 02		 mov	 eax, DWORD PTR [edx]
  0007f	85 c0		 test	 eax, eax
  00081	0f 84 7e 00 00
	00		 je	 $LN59@RemoveAtGe
$LL12@RemoveAtGe:

; 1624 : 	{
; 1625 : 		if ((pAssoc->nHashValue == nHashValue) && CompareElements(&pAssoc->key, &key))

  00087	39 58 0c	 cmp	 DWORD PTR [eax+12], ebx
  0008a	75 04		 jne	 SHORT $LN14@RemoveAtGe

; 156  : 	return *pElement1 == *pElement2;

  0008c	39 38		 cmp	 DWORD PTR [eax], edi

; 1625 : 		if ((pAssoc->nHashValue == nHashValue) && CompareElements(&pAssoc->key, &key))

  0008e	74 12		 je	 SHORT $LN45@RemoveAtGe
$LN14@RemoveAtGe:

; 1629 : 			FreeAssoc(pAssoc);
; 1630 : 			return TRUE;
; 1631 : 		}
; 1632 : 		ppAssocPrev = &pAssoc->pNext;

  00090	8d 50 08	 lea	 edx, DWORD PTR [eax+8]
  00093	8b 02		 mov	 eax, DWORD PTR [edx]
  00095	85 c0		 test	 eax, eax
  00097	75 ee		 jne	 SHORT $LL12@RemoveAtGe
; File D:\git\src\IBK\IBK_DRFN\ProjSrc\SrcDrfn\Chart\MULTICHART\CondTarget.cpp

; 157  : }

  00099	5b		 pop	 ebx
  0009a	5f		 pop	 edi
  0009b	5e		 pop	 esi
  0009c	8b e5		 mov	 esp, ebp
  0009e	5d		 pop	 ebp
  0009f	c2 04 00	 ret	 4
$LN45@RemoveAtGe:
; File C:\Program Files (x86)\Microsoft Visual Studio\2019\Community\VC\Tools\MSVC\14.29.30133\atlmfc\include\afxtempl.h

; 1628 : 			*ppAssocPrev = pAssoc->pNext;  // remove from list

  000a2	8b 48 08	 mov	 ecx, DWORD PTR [eax+8]
  000a5	89 0a		 mov	 DWORD PTR [edx], ecx

; 1518 : 	pAssoc->pNext = m_pFreeList;

  000a7	8b 8e a4 01 00
	00		 mov	 ecx, DWORD PTR [esi+420]
  000ad	89 48 08	 mov	 DWORD PTR [eax+8], ecx

; 1519 : 	m_pFreeList = pAssoc;
; 1520 : 	m_nCount--;

  000b0	83 86 a0 01 00
	00 ff		 add	 DWORD PTR [esi+416], -1
  000b7	89 86 a4 01 00
	00		 mov	 DWORD PTR [esi+420], eax

; 1521 : 	ASSERT(m_nCount >= 0);  // make sure we don't underflow
; 1522 : 
; 1523 : 	// if no more elements, cleanup completely
; 1524 : 	if (m_nCount == 0)

  000bd	75 46		 jne	 SHORT $LN59@RemoveAtGe

; 1446 : 	if (m_pHashTable != NULL)

  000bf	8b 86 98 01 00
	00		 mov	 eax, DWORD PTR [esi+408]
  000c5	85 c0		 test	 eax, eax
  000c7	74 13		 je	 SHORT $LN38@RemoveAtGe

; 1447 : 	{
; 1448 : 		// destroy elements (values and keys)
; 1449 : 		for (UINT nHash = 0; nHash < m_nHashTableSize; nHash++)
; 1450 : 		{
; 1451 : 			CAssoc* pAssoc;
; 1452 : 			for (pAssoc = m_pHashTable[nHash]; pAssoc != NULL;
; 1453 : 			  pAssoc = pAssoc->pNext)
; 1454 : 			{
; 1455 : 				pAssoc->CAssoc::~CAssoc();
; 1456 : 			}
; 1457 : 		}
; 1458 : 
; 1459 : 		// free hash table
; 1460 : 		delete[] m_pHashTable;

  000c9	50		 push	 eax
  000ca	e8 00 00 00 00	 call	 ??_V@YAXPAX@Z		; operator delete[]
  000cf	83 c4 04	 add	 esp, 4

; 1461 : 		m_pHashTable = NULL;

  000d2	c7 86 98 01 00
	00 00 00 00 00	 mov	 DWORD PTR [esi+408], 0
$LN38@RemoveAtGe:

; 1462 : 	}
; 1463 : 
; 1464 : 	m_nCount = 0;
; 1465 : 	m_pFreeList = NULL;
; 1466 : 	m_pBlocks->FreeDataChain();

  000dc	8b 8e a8 01 00
	00		 mov	 ecx, DWORD PTR [esi+424]
  000e2	c7 86 a0 01 00
	00 00 00 00 00	 mov	 DWORD PTR [esi+416], 0
  000ec	c7 86 a4 01 00
	00 00 00 00 00	 mov	 DWORD PTR [esi+420], 0
  000f6	e8 00 00 00 00	 call	 ?FreeDataChain@CPlex@@QAEXXZ ; CPlex::FreeDataChain

; 1467 : 	m_pBlocks = NULL;

  000fb	c7 86 a8 01 00
	00 00 00 00 00	 mov	 DWORD PTR [esi+424], 0
$LN59@RemoveAtGe:
  00105	5b		 pop	 ebx
$LN57@RemoveAtGe:
  00106	5f		 pop	 edi
; File D:\git\src\IBK\IBK_DRFN\ProjSrc\SrcDrfn\Chart\MULTICHART\CondTarget.cpp

; 157  : }

  00107	5e		 pop	 esi
  00108	8b e5		 mov	 esp, ebp
  0010a	5d		 pop	 ebp
  0010b	c2 04 00	 ret	 4
?RemoveAtGetBackData@CCondTarget@@QAEXH@Z ENDP		; CCondTarget::RemoveAtGetBackData
_TEXT	ENDS
; Function compile flags: /Ogtp
; File D:\git\src\IBK\IBK_DRFN\ProjSrc\SrcDrfn\Chart\MULTICHART\CondTarget.cpp
; File C:\Program Files (x86)\Microsoft Visual Studio\2019\Community\VC\Tools\MSVC\14.29.30133\atlmfc\include\afxtempl.h
; File D:\git\src\IBK\IBK_DRFN\ProjSrc\SrcDrfn\Chart\MULTICHART\CondTarget.cpp
; File D:\git\src\IBK\IBK_DRFN\ProjSrc\SrcDrfn\Chart\MULTICHART\CondTarget.h
; File D:\git\src\IBK\IBK_DRFN\ProjSrc\SrcDrfn\Chart\MULTICHART\CondTarget.cpp
; File C:\Program Files (x86)\Microsoft Visual Studio\2019\Community\VC\Tools\MSVC\14.29.30133\atlmfc\include\afxtempl.h
; File D:\git\src\IBK\IBK_DRFN\ProjSrc\SrcDrfn\Chart\MULTICHART\CondTarget.cpp
;	COMDAT ?SetGetBackData@CCondTarget@@QAEPAVCGetBackData@@V?$CStringT@DV?$StrTraitMFC_DLL@DV?$ChTraitsCRT@D@ATL@@@@@ATL@@@Z
_TEXT	SEGMENT
$T4 = -20						; size = 4
$T5 = -16						; size = 4
__$EHRec$ = -12						; size = 12
_strPath$ = 8						; size = 4
?SetGetBackData@CCondTarget@@QAEPAVCGetBackData@@V?$CStringT@DV?$StrTraitMFC_DLL@DV?$ChTraitsCRT@D@ATL@@@@@ATL@@@Z PROC ; CCondTarget::SetGetBackData, COMDAT
; _this$ = ecx

; 133  : {

  00000	55		 push	 ebp
  00001	8b ec		 mov	 ebp, esp
  00003	6a ff		 push	 -1
  00005	68 00 00 00 00	 push	 __ehhandler$?SetGetBackData@CCondTarget@@QAEPAVCGetBackData@@V?$CStringT@DV?$StrTraitMFC_DLL@DV?$ChTraitsCRT@D@ATL@@@@@ATL@@@Z
  0000a	64 a1 00 00 00
	00		 mov	 eax, DWORD PTR fs:0
  00010	50		 push	 eax
  00011	83 ec 08	 sub	 esp, 8
  00014	53		 push	 ebx
  00015	56		 push	 esi
  00016	57		 push	 edi
  00017	a1 00 00 00 00	 mov	 eax, DWORD PTR ___security_cookie
  0001c	33 c5		 xor	 eax, ebp
  0001e	50		 push	 eax
  0001f	8d 45 f4	 lea	 eax, DWORD PTR __$EHRec$[ebp]
  00022	64 a3 00 00 00
	00		 mov	 DWORD PTR fs:0, eax
  00028	8b d9		 mov	 ebx, ecx
  0002a	c7 45 fc 00 00
	00 00		 mov	 DWORD PTR __$EHRec$[ebp+8], 0
$LN56@SetGetBack:
; File C:\Program Files (x86)\Microsoft Visual Studio\2019\Community\VC\Tools\MSVC\14.29.30133\atlmfc\include\afxtempl.h

; 165  : 	ldiv_t HashVal = ldiv((long)(ARG_KEY)key, 127773);

  00031	8b b3 90 01 00
	00		 mov	 esi, DWORD PTR [ebx+400]
  00037	b9 1d f3 01 00	 mov	 ecx, 127773		; 0001f31dH
  0003c	8b c6		 mov	 eax, esi
  0003e	99		 cdq
  0003f	f7 f9		 idiv	 ecx

; 166  : 	HashVal.rem = 16807 * HashVal.rem - 2836 * HashVal.quot;

  00041	69 c0 14 0b 00
	00		 imul	 eax, eax, 2836
  00047	69 ca a7 41 00
	00		 imul	 ecx, edx, 16807
  0004d	2b c8		 sub	 ecx, eax

; 1534 : 	nHashBucket = nHashValue % m_nHashTableSize;

  0004f	8d b9 ff ff ff
	7f		 lea	 edi, DWORD PTR [ecx+2147483647]
  00055	0f 49 f9	 cmovns	 edi, ecx
  00058	33 d2		 xor	 edx, edx
  0005a	8b c7		 mov	 eax, edi
  0005c	f7 b3 9c 01 00
	00		 div	 DWORD PTR [ebx+412]

; 1535 : 
; 1536 : 	if (m_pHashTable == NULL)

  00062	8b 83 98 01 00
	00		 mov	 eax, DWORD PTR [ebx+408]
  00068	85 c0		 test	 eax, eax
  0006a	74 17		 je	 SHORT $LN50@SetGetBack

; 1537 : 		return NULL;
; 1538 : 
; 1539 : 	// see if it exists
; 1540 : 	CAssoc* pAssoc;
; 1541 : 	for (pAssoc = m_pHashTable[nHashBucket]; pAssoc != NULL; pAssoc = pAssoc->pNext)

  0006c	8b 04 90	 mov	 eax, DWORD PTR [eax+edx*4]
  0006f	85 c0		 test	 eax, eax
  00071	74 10		 je	 SHORT $LN50@SetGetBack
$LL16@SetGetBack:

; 1543 : 		if (pAssoc->nHashValue == nHashValue && CompareElements(&pAssoc->key, &key))

  00073	39 78 0c	 cmp	 DWORD PTR [eax+12], edi
  00076	75 04		 jne	 SHORT $LN14@SetGetBack
  00078	39 30		 cmp	 DWORD PTR [eax], esi
  0007a	74 5f		 je	 SHORT $LN41@SetGetBack
$LN14@SetGetBack:

; 1537 : 		return NULL;
; 1538 : 
; 1539 : 	// see if it exists
; 1540 : 	CAssoc* pAssoc;
; 1541 : 	for (pAssoc = m_pHashTable[nHashBucket]; pAssoc != NULL; pAssoc = pAssoc->pNext)

  0007c	8b 40 08	 mov	 eax, DWORD PTR [eax+8]
  0007f	85 c0		 test	 eax, eax
  00081	75 f0		 jne	 SHORT $LL16@SetGetBack
$LN50@SetGetBack:
; File D:\git\src\IBK\IBK_DRFN\ProjSrc\SrcDrfn\Chart\MULTICHART\CondTarget.cpp

; 138  : 	pData = new CGetBackData(strPath, m_nKey);

  00083	6a 0c		 push	 12			; 0000000cH
  00085	e8 00 00 00 00	 call	 ??2@YAPAXI@Z		; operator new
  0008a	8b f0		 mov	 esi, eax
  0008c	83 c4 04	 add	 esp, 4
  0008f	89 75 ec	 mov	 DWORD PTR $T4[ebp], esi
  00092	c6 45 fc 01	 mov	 BYTE PTR __$EHRec$[ebp+8], 1
  00096	85 f6		 test	 esi, esi
  00098	74 4c		 je	 SHORT $LN5@SetGetBack
  0009a	8b bb 90 01 00
	00		 mov	 edi, DWORD PTR [ebx+400]
  000a0	8d 45 08	 lea	 eax, DWORD PTR _strPath$[ebp]
  000a3	50		 push	 eax
  000a4	8d 4d f0	 lea	 ecx, DWORD PTR $T5[ebp]
  000a7	ff 15 00 00 00
	00		 call	 DWORD PTR __imp_??0?$CStringT@DV?$StrTraitMFC_DLL@DV?$ChTraitsCRT@D@ATL@@@@@ATL@@QAE@ABV01@@Z
; File D:\git\src\IBK\IBK_DRFN\ProjSrc\SrcDrfn\Chart\MULTICHART\CondTarget.h

; 17   : 	CGetBackData(CString strPath, int nIndex)		{ m_strPath = strPath; m_nIndex = nIndex;	};

  000ad	8d 4e 04	 lea	 ecx, DWORD PTR [esi+4]
  000b0	c7 06 00 00 00
	00		 mov	 DWORD PTR [esi], OFFSET ??_7CGetBackData@@6B@
  000b6	ff 15 00 00 00
	00		 call	 DWORD PTR __imp_??0?$CStringT@DV?$StrTraitMFC_DLL@DV?$ChTraitsCRT@D@ATL@@@@@ATL@@QAE@XZ
  000bc	8d 45 f0	 lea	 eax, DWORD PTR $T5[ebp]
  000bf	c6 45 fc 03	 mov	 BYTE PTR __$EHRec$[ebp+8], 3
  000c3	50		 push	 eax
  000c4	8d 4e 04	 lea	 ecx, DWORD PTR [esi+4]
  000c7	ff 15 00 00 00
	00		 call	 DWORD PTR __imp_??4?$CStringT@DV?$StrTraitMFC_DLL@DV?$ChTraitsCRT@D@ATL@@@@@ATL@@QAEAAV01@ABV01@@Z
  000cd	8d 4d f0	 lea	 ecx, DWORD PTR $T5[ebp]
  000d0	89 7e 08	 mov	 DWORD PTR [esi+8], edi
  000d3	ff 15 00 00 00
	00		 call	 DWORD PTR __imp_??1?$CStringT@DV?$StrTraitMFC_DLL@DV?$ChTraitsCRT@D@ATL@@@@@ATL@@QAE@XZ
; File D:\git\src\IBK\IBK_DRFN\ProjSrc\SrcDrfn\Chart\MULTICHART\CondTarget.cpp

; 138  : 	pData = new CGetBackData(strPath, m_nKey);

  000d9	eb 0d		 jmp	 SHORT $LN6@SetGetBack
$LN41@SetGetBack:

; 134  : 	CGetBackData *pData;
; 135  : 	while (m_mapGetBackData.Lookup(m_nKey, pData))
; 136  : 		m_nKey++;

  000db	ff 83 90 01 00
	00		 inc	 DWORD PTR [ebx+400]
; File C:\Program Files (x86)\Microsoft Visual Studio\2019\Community\VC\Tools\MSVC\14.29.30133\atlmfc\include\afxtempl.h

; 1543 : 		if (pAssoc->nHashValue == nHashValue && CompareElements(&pAssoc->key, &key))

  000e1	e9 4b ff ff ff	 jmp	 $LN56@SetGetBack
$LN5@SetGetBack:
; File D:\git\src\IBK\IBK_DRFN\ProjSrc\SrcDrfn\Chart\MULTICHART\CondTarget.cpp

; 138  : 	pData = new CGetBackData(strPath, m_nKey);

  000e6	33 f6		 xor	 esi, esi
$LN6@SetGetBack:

; 139  : 	m_mapGetBackData.SetAt(m_nKey, pData);

  000e8	56		 push	 esi
  000e9	ff b3 90 01 00
	00		 push	 DWORD PTR [ebx+400]
  000ef	8d 8b 94 01 00
	00		 lea	 ecx, DWORD PTR [ebx+404]
  000f5	c6 45 fc 00	 mov	 BYTE PTR __$EHRec$[ebp+8], 0
  000f9	e8 00 00 00 00	 call	 ?SetAt@?$CMap@HHPAVCGetBackData@@PAV1@@@QAEXHPAVCGetBackData@@@Z ; CMap<int,int,CGetBackData *,CGetBackData *>::SetAt

; 140  : 
; 141  : 	m_nKey++;

  000fe	ff 83 90 01 00
	00		 inc	 DWORD PTR [ebx+400]

; 142  : 
; 143  : 	return pData;

  00104	8d 4d 08	 lea	 ecx, DWORD PTR _strPath$[ebp]
  00107	ff 15 00 00 00
	00		 call	 DWORD PTR __imp_??1?$CStringT@DV?$StrTraitMFC_DLL@DV?$ChTraitsCRT@D@ATL@@@@@ATL@@QAE@XZ
  0010d	8b c6		 mov	 eax, esi

; 144  : }

  0010f	8b 4d f4	 mov	 ecx, DWORD PTR __$EHRec$[ebp]
  00112	64 89 0d 00 00
	00 00		 mov	 DWORD PTR fs:0, ecx
  00119	59		 pop	 ecx
  0011a	5f		 pop	 edi
  0011b	5e		 pop	 esi
  0011c	5b		 pop	 ebx
  0011d	8b e5		 mov	 esp, ebp
  0011f	5d		 pop	 ebp
  00120	c2 04 00	 ret	 4
_TEXT	ENDS
;	COMDAT text$x
text$x	SEGMENT
__unwindfunclet$?SetGetBackData@CCondTarget@@QAEPAVCGetBackData@@V?$CStringT@DV?$StrTraitMFC_DLL@DV?$ChTraitsCRT@D@ATL@@@@@ATL@@@Z$0:
  00000	8d 4d 08	 lea	 ecx, DWORD PTR _strPath$[ebp]
  00003	ff 25 00 00 00
	00		 jmp	 DWORD PTR __imp_??1?$CStringT@DV?$StrTraitMFC_DLL@DV?$ChTraitsCRT@D@ATL@@@@@ATL@@QAE@XZ
__unwindfunclet$?SetGetBackData@CCondTarget@@QAEPAVCGetBackData@@V?$CStringT@DV?$StrTraitMFC_DLL@DV?$ChTraitsCRT@D@ATL@@@@@ATL@@@Z$1:
  00009	6a 0c		 push	 12			; 0000000cH
  0000b	8b 45 ec	 mov	 eax, DWORD PTR $T4[ebp]
  0000e	50		 push	 eax
  0000f	e8 00 00 00 00	 call	 ??3@YAXPAXI@Z		; operator delete
  00014	83 c4 08	 add	 esp, 8
  00017	c3		 ret	 0
__unwindfunclet$?SetGetBackData@CCondTarget@@QAEPAVCGetBackData@@V?$CStringT@DV?$StrTraitMFC_DLL@DV?$ChTraitsCRT@D@ATL@@@@@ATL@@@Z$3:
  00018	8d 4d f0	 lea	 ecx, DWORD PTR $T5[ebp]
  0001b	ff 25 00 00 00
	00		 jmp	 DWORD PTR __imp_??1?$CStringT@DV?$StrTraitMFC_DLL@DV?$ChTraitsCRT@D@ATL@@@@@ATL@@QAE@XZ
__unwindfunclet$?SetGetBackData@CCondTarget@@QAEPAVCGetBackData@@V?$CStringT@DV?$StrTraitMFC_DLL@DV?$ChTraitsCRT@D@ATL@@@@@ATL@@@Z$4:
  00021	8b 4d ec	 mov	 ecx, DWORD PTR $T4[ebp]
  00024	83 c1 04	 add	 ecx, 4
  00027	ff 25 00 00 00
	00		 jmp	 DWORD PTR __imp_??1?$CStringT@DV?$StrTraitMFC_DLL@DV?$ChTraitsCRT@D@ATL@@@@@ATL@@QAE@XZ
  0002d	cc		 int	 3
  0002e	cc		 int	 3
  0002f	cc		 int	 3
  00030	cc		 int	 3
  00031	cc		 int	 3
__ehhandler$?SetGetBackData@CCondTarget@@QAEPAVCGetBackData@@V?$CStringT@DV?$StrTraitMFC_DLL@DV?$ChTraitsCRT@D@ATL@@@@@ATL@@@Z:
  00032	90		 npad	 1
  00033	90		 npad	 1
  00034	8b 54 24 08	 mov	 edx, DWORD PTR [esp+8]
  00038	8d 42 0c	 lea	 eax, DWORD PTR [edx+12]
  0003b	8b 4a e8	 mov	 ecx, DWORD PTR [edx-24]
  0003e	33 c8		 xor	 ecx, eax
  00040	e8 00 00 00 00	 call	 @__security_check_cookie@4
  00045	b8 00 00 00 00	 mov	 eax, OFFSET __ehfuncinfo$?SetGetBackData@CCondTarget@@QAEPAVCGetBackData@@V?$CStringT@DV?$StrTraitMFC_DLL@DV?$ChTraitsCRT@D@ATL@@@@@ATL@@@Z
  0004a	e9 00 00 00 00	 jmp	 ___CxxFrameHandler3
text$x	ENDS
?SetGetBackData@CCondTarget@@QAEPAVCGetBackData@@V?$CStringT@DV?$StrTraitMFC_DLL@DV?$ChTraitsCRT@D@ATL@@@@@ATL@@@Z ENDP ; CCondTarget::SetGetBackData
; Function compile flags: /Ogtp
; File C:\Program Files (x86)\Microsoft Visual Studio\2019\Community\VC\Tools\MSVC\14.29.30133\atlmfc\include\afxtempl.h
; File C:\Program Files (x86)\Microsoft Visual Studio\2019\Community\VC\Tools\MSVC\14.29.30133\atlmfc\include\afx.inl
;	COMDAT ??_G?$CMap@HHPAVCGetBackData@@PAV1@@@UAEPAXI@Z
_TEXT	SEGMENT
__$EHRec$ = -12						; size = 12
___flags$ = 8						; size = 4
??_G?$CMap@HHPAVCGetBackData@@PAV1@@@UAEPAXI@Z PROC	; CMap<int,int,CGetBackData *,CGetBackData *>::`scalar deleting destructor', COMDAT
; _this$ = ecx
  00000	55		 push	 ebp
  00001	8b ec		 mov	 ebp, esp
  00003	6a ff		 push	 -1
  00005	68 00 00 00 00	 push	 __ehhandler$??_G?$CMap@HHPAVCGetBackData@@PAV1@@@UAEPAXI@Z
  0000a	64 a1 00 00 00
	00		 mov	 eax, DWORD PTR fs:0
  00010	50		 push	 eax
  00011	56		 push	 esi
  00012	a1 00 00 00 00	 mov	 eax, DWORD PTR ___security_cookie
  00017	33 c5		 xor	 eax, ebp
  00019	50		 push	 eax
  0001a	8d 45 f4	 lea	 eax, DWORD PTR __$EHRec$[ebp]
  0001d	64 a3 00 00 00
	00		 mov	 DWORD PTR fs:0, eax
  00023	8b f1		 mov	 esi, ecx
; File C:\Program Files (x86)\Microsoft Visual Studio\2019\Community\VC\Tools\MSVC\14.29.30133\atlmfc\include\afxtempl.h

; 1446 : 	if (m_pHashTable != NULL)

  00025	8b 46 04	 mov	 eax, DWORD PTR [esi+4]

; 1472 : {

  00028	c7 45 fc 00 00
	00 00		 mov	 DWORD PTR __$EHRec$[ebp+8], 0
  0002f	c7 06 00 00 00
	00		 mov	 DWORD PTR [esi], OFFSET ??_7?$CMap@HHPAVCGetBackData@@PAV1@@@6B@

; 1446 : 	if (m_pHashTable != NULL)

  00035	85 c0		 test	 eax, eax
  00037	74 10		 je	 SHORT $LN17@scalar

; 1447 : 	{
; 1448 : 		// destroy elements (values and keys)
; 1449 : 		for (UINT nHash = 0; nHash < m_nHashTableSize; nHash++)
; 1450 : 		{
; 1451 : 			CAssoc* pAssoc;
; 1452 : 			for (pAssoc = m_pHashTable[nHash]; pAssoc != NULL;
; 1453 : 			  pAssoc = pAssoc->pNext)
; 1454 : 			{
; 1455 : 				pAssoc->CAssoc::~CAssoc();
; 1456 : 			}
; 1457 : 		}
; 1458 : 
; 1459 : 		// free hash table
; 1460 : 		delete[] m_pHashTable;

  00039	50		 push	 eax
  0003a	e8 00 00 00 00	 call	 ??_V@YAXPAX@Z		; operator delete[]
  0003f	83 c4 04	 add	 esp, 4

; 1461 : 		m_pHashTable = NULL;

  00042	c7 46 04 00 00
	00 00		 mov	 DWORD PTR [esi+4], 0
$LN17@scalar:

; 1462 : 	}
; 1463 : 
; 1464 : 	m_nCount = 0;
; 1465 : 	m_pFreeList = NULL;
; 1466 : 	m_pBlocks->FreeDataChain();

  00049	8b 4e 14	 mov	 ecx, DWORD PTR [esi+20]
  0004c	c7 46 0c 00 00
	00 00		 mov	 DWORD PTR [esi+12], 0
  00053	c7 46 10 00 00
	00 00		 mov	 DWORD PTR [esi+16], 0
  0005a	e8 00 00 00 00	 call	 ?FreeDataChain@CPlex@@QAEXXZ ; CPlex::FreeDataChain

; 1467 : 	m_pBlocks = NULL;

  0005f	8b 45 08	 mov	 eax, DWORD PTR ___flags$[ebp]
  00062	c7 46 14 00 00
	00 00		 mov	 DWORD PTR [esi+20], 0
  00069	a8 01		 test	 al, 1
  0006b	74 2c		 je	 SHORT $LN31@scalar
  0006d	a8 04		 test	 al, 4
  0006f	75 1d		 jne	 SHORT $LN3@scalar
; File C:\Program Files (x86)\Microsoft Visual Studio\2019\Community\VC\Tools\MSVC\14.29.30133\atlmfc\include\afx.inl

; 112  : 	{ ::operator delete(p); }

  00071	56		 push	 esi
  00072	e8 00 00 00 00	 call	 ??3@YAXPAX@Z		; operator delete
  00077	83 c4 04	 add	 esp, 4
  0007a	8b c6		 mov	 eax, esi
  0007c	8b 4d f4	 mov	 ecx, DWORD PTR __$EHRec$[ebp]
  0007f	64 89 0d 00 00
	00 00		 mov	 DWORD PTR fs:0, ecx
  00086	59		 pop	 ecx
  00087	5e		 pop	 esi
  00088	8b e5		 mov	 esp, ebp
  0008a	5d		 pop	 ebp
  0008b	c2 04 00	 ret	 4
$LN3@scalar:
  0008e	6a 1c		 push	 28			; 0000001cH
  00090	56		 push	 esi
  00091	e8 00 00 00 00	 call	 ?__global_delete@@YAXPAXI@Z ; __global_delete
  00096	83 c4 08	 add	 esp, 8
$LN31@scalar:
  00099	8b c6		 mov	 eax, esi
  0009b	8b 4d f4	 mov	 ecx, DWORD PTR __$EHRec$[ebp]
  0009e	64 89 0d 00 00
	00 00		 mov	 DWORD PTR fs:0, ecx
  000a5	59		 pop	 ecx
  000a6	5e		 pop	 esi
  000a7	8b e5		 mov	 esp, ebp
  000a9	5d		 pop	 ebp
  000aa	c2 04 00	 ret	 4
  000ad	cc		 int	 3
  000ae	cc		 int	 3
  000af	cc		 int	 3
  000b0	cc		 int	 3
  000b1	cc		 int	 3
_TEXT	ENDS
;	COMDAT text$x
text$x	SEGMENT
__ehhandler$??_G?$CMap@HHPAVCGetBackData@@PAV1@@@UAEPAXI@Z:
  00000	90		 npad	 1
  00001	90		 npad	 1
  00002	8b 54 24 08	 mov	 edx, DWORD PTR [esp+8]
  00006	8d 42 0c	 lea	 eax, DWORD PTR [edx+12]
  00009	8b 4a f8	 mov	 ecx, DWORD PTR [edx-8]
  0000c	33 c8		 xor	 ecx, eax
  0000e	e8 00 00 00 00	 call	 @__security_check_cookie@4
  00013	b8 00 00 00 00	 mov	 eax, OFFSET __ehfuncinfo$??_G?$CMap@HHPAVCGetBackData@@PAV1@@@UAEPAXI@Z
  00018	e9 00 00 00 00	 jmp	 ___CxxFrameHandler3
text$x	ENDS
??_G?$CMap@HHPAVCGetBackData@@PAV1@@@UAEPAXI@Z ENDP	; CMap<int,int,CGetBackData *,CGetBackData *>::`scalar deleting destructor'
; Function compile flags: /Ogtp
; File C:\Program Files (x86)\Microsoft Visual Studio\2019\Community\VC\Tools\MSVC\14.29.30133\atlmfc\include\afxtempl.h
; File C:\Program Files (x86)\Microsoft Visual Studio\2019\Community\VC\Tools\MSVC\14.29.30133\atlmfc\include\afx.inl
; File C:\Program Files (x86)\Microsoft Visual Studio\2019\Community\VC\Tools\MSVC\14.29.30133\atlmfc\include\afxtempl.h
; File C:\Program Files (x86)\Microsoft Visual Studio\2019\Community\VC\Tools\MSVC\14.29.30133\atlmfc\include\afx.inl
; File C:\Program Files (x86)\Microsoft Visual Studio\2019\Community\VC\Tools\MSVC\14.29.30133\atlmfc\include\afxtempl.h
; File C:\Program Files (x86)\Microsoft Visual Studio\2019\Community\VC\Tools\MSVC\14.29.30133\atlmfc\include\afx.inl
; File C:\Program Files (x86)\Microsoft Visual Studio\2019\Community\VC\Tools\MSVC\14.29.30133\atlmfc\include\afxtempl.h
; File C:\Program Files (x86)\Microsoft Visual Studio\2019\Community\VC\Tools\MSVC\14.29.30133\atlmfc\include\afx.inl
; File C:\Program Files (x86)\Microsoft Visual Studio\2019\Community\VC\Tools\MSVC\14.29.30133\atlmfc\include\afxtempl.h
; File C:\Program Files (x86)\Microsoft Visual Studio\2019\Community\VC\Tools\MSVC\14.29.30133\atlmfc\include\afx.inl
; File C:\Program Files (x86)\Microsoft Visual Studio\2019\Community\VC\Tools\MSVC\14.29.30133\atlmfc\include\afxtempl.h
; File C:\Program Files (x86)\Microsoft Visual Studio\2019\Community\VC\Tools\MSVC\14.29.30133\atlmfc\include\afx.inl
; File C:\Program Files (x86)\Microsoft Visual Studio\2019\Community\VC\Tools\MSVC\14.29.30133\atlmfc\include\afxtempl.h
; File C:\Program Files (x86)\Microsoft Visual Studio\2019\Community\VC\Tools\MSVC\14.29.30133\atlmfc\include\afx.inl
; File C:\Program Files (x86)\Microsoft Visual Studio\2019\Community\VC\Tools\MSVC\14.29.30133\atlmfc\include\afxtempl.h
; File C:\Program Files (x86)\Microsoft Visual Studio\2019\Community\VC\Tools\MSVC\14.29.30133\atlmfc\include\afx.inl
; File C:\Program Files (x86)\Microsoft Visual Studio\2019\Community\VC\Tools\MSVC\14.29.30133\atlmfc\include\afxtempl.h
; File C:\Program Files (x86)\Microsoft Visual Studio\2019\Community\VC\Tools\MSVC\14.29.30133\atlmfc\include\afx.inl
; File C:\Program Files (x86)\Microsoft Visual Studio\2019\Community\VC\Tools\MSVC\14.29.30133\atlmfc\include\afxtempl.h
; File C:\Program Files (x86)\Microsoft Visual Studio\2019\Community\VC\Tools\MSVC\14.29.30133\atlmfc\include\afx.inl
; File C:\Program Files (x86)\Microsoft Visual Studio\2019\Community\VC\Tools\MSVC\14.29.30133\atlmfc\include\afxtempl.h
; File C:\Program Files (x86)\Microsoft Visual Studio\2019\Community\VC\Tools\MSVC\14.29.30133\atlmfc\include\afx.inl
; File C:\Program Files (x86)\Microsoft Visual Studio\2019\Community\VC\Tools\MSVC\14.29.30133\atlmfc\include\afxtempl.h
; File C:\Program Files (x86)\Microsoft Visual Studio\2019\Community\VC\Tools\MSVC\14.29.30133\atlmfc\include\afx.inl
; File C:\Program Files (x86)\Microsoft Visual Studio\2019\Community\VC\Tools\MSVC\14.29.30133\atlmfc\include\afxtempl.h
; File C:\Program Files (x86)\Microsoft Visual Studio\2019\Community\VC\Tools\MSVC\14.29.30133\atlmfc\include\afx.inl
; File C:\Program Files (x86)\Microsoft Visual Studio\2019\Community\VC\Tools\MSVC\14.29.30133\atlmfc\include\afxtempl.h
; File C:\Program Files (x86)\Microsoft Visual Studio\2019\Community\VC\Tools\MSVC\14.29.30133\atlmfc\include\afx.inl
; File C:\Program Files (x86)\Microsoft Visual Studio\2019\Community\VC\Tools\MSVC\14.29.30133\atlmfc\include\afxtempl.h
; File C:\Program Files (x86)\Microsoft Visual Studio\2019\Community\VC\Tools\MSVC\14.29.30133\atlmfc\include\afx.inl
; File C:\Program Files (x86)\Microsoft Visual Studio\2019\Community\VC\Tools\MSVC\14.29.30133\atlmfc\include\afxtempl.h
; File C:\Program Files (x86)\Microsoft Visual Studio\2019\Community\VC\Tools\MSVC\14.29.30133\atlmfc\include\afx.inl
; File C:\Program Files (x86)\Microsoft Visual Studio\2019\Community\VC\Tools\MSVC\14.29.30133\atlmfc\include\afxtempl.h
; File C:\Program Files (x86)\Microsoft Visual Studio\2019\Community\VC\Tools\MSVC\14.29.30133\atlmfc\include\afx.inl
; File C:\Program Files (x86)\Microsoft Visual Studio\2019\Community\VC\Tools\MSVC\14.29.30133\atlmfc\include\afxtempl.h
; File C:\Program Files (x86)\Microsoft Visual Studio\2019\Community\VC\Tools\MSVC\14.29.30133\atlmfc\include\afx.inl
; File C:\Program Files (x86)\Microsoft Visual Studio\2019\Community\VC\Tools\MSVC\14.29.30133\atlmfc\include\afxtempl.h
; File C:\Program Files (x86)\Microsoft Visual Studio\2019\Community\VC\Tools\MSVC\14.29.30133\atlmfc\include\afx.inl
; File C:\Program Files (x86)\Microsoft Visual Studio\2019\Community\VC\Tools\MSVC\14.29.30133\atlmfc\include\afxtempl.h
;	COMDAT ?Serialize@?$CMap@HHPAVCGetBackData@@PAV1@@@UAEXAAVCArchive@@@Z
_TEXT	SEGMENT
_nHashBucket$1$ = -32					; size = 4
_nCount$1$ = -32					; size = 4
_nElementsToRead$1$ = -32				; size = 4
_nElementsToRead$1$ = -28				; size = 4
_pData$1$ = -28						; size = 4
_nCount$1$ = -28					; size = 4
_newValue$1$ = -28					; size = 4
_this$1$ = -24						; size = 4
_newKey$3 = -20						; size = 4
_newValue$4 = -16					; size = 4
_pData$1$ = -12						; size = 4
_pData$1$ = -12						; size = 4
_key$1$ = -12						; size = 4
_nHash$1$ = -12						; size = 4
_nNewCount$1$ = -8					; size = 4
_pAssoc$1$ = -8						; size = 4
_nElementsLeft$1$ = -4					; size = 4
_pData$1$ = -4						; size = 4
_pData$1$ = -4						; size = 4
_nHashSize$1$ = 8					; size = 4
_pData$1$ = 8						; size = 4
_nElementsLeft$1$ = 8					; size = 4
_pData$1$ = 8						; size = 4
_nElementsLeft$1$ = 8					; size = 4
_ar$ = 8						; size = 4
?Serialize@?$CMap@HHPAVCGetBackData@@PAV1@@@UAEXAAVCArchive@@@Z PROC ; CMap<int,int,CGetBackData *,CGetBackData *>::Serialize, COMDAT
; _this$ = ecx

; 1743 : {

  00000	55		 push	 ebp
  00001	8b ec		 mov	 ebp, esp
  00003	83 ec 20	 sub	 esp, 32			; 00000020H
  00006	53		 push	 ebx
; File C:\Program Files (x86)\Microsoft Visual Studio\2019\Community\VC\Tools\MSVC\14.29.30133\atlmfc\include\afx.inl

; 212  : 	{ return (m_nMode & CArchive::load) == 0; }

  00007	8b 5d 08	 mov	 ebx, DWORD PTR _ar$[ebp]
; File C:\Program Files (x86)\Microsoft Visual Studio\2019\Community\VC\Tools\MSVC\14.29.30133\atlmfc\include\afxtempl.h

; 1743 : {

  0000a	56		 push	 esi
  0000b	8b f1		 mov	 esi, ecx

; 1748 : 	if (ar.IsStoring())

  0000d	8b cb		 mov	 ecx, ebx
  0000f	57		 push	 edi
; File C:\Program Files (x86)\Microsoft Visual Studio\2019\Community\VC\Tools\MSVC\14.29.30133\atlmfc\include\afx.inl

; 212  : 	{ return (m_nMode & CArchive::load) == 0; }

  00010	8b 43 18	 mov	 eax, DWORD PTR [ebx+24]
  00013	f7 d0		 not	 eax
; File C:\Program Files (x86)\Microsoft Visual Studio\2019\Community\VC\Tools\MSVC\14.29.30133\atlmfc\include\afxtempl.h

; 1743 : {

  00015	89 75 e8	 mov	 DWORD PTR _this$1$[ebp], esi
; File C:\Program Files (x86)\Microsoft Visual Studio\2019\Community\VC\Tools\MSVC\14.29.30133\atlmfc\include\afx.inl

; 212  : 	{ return (m_nMode & CArchive::load) == 0; }

  00018	a8 01		 test	 al, 1
; File C:\Program Files (x86)\Microsoft Visual Studio\2019\Community\VC\Tools\MSVC\14.29.30133\atlmfc\include\afxtempl.h

; 1748 : 	if (ar.IsStoring())

  0001a	0f 84 71 01 00
	00		 je	 $LN10@Serialize

; 1749 : 	{
; 1750 : 		ar.WriteCount(m_nCount);

  00020	ff 76 0c	 push	 DWORD PTR [esi+12]
  00023	e8 00 00 00 00	 call	 ?WriteCount@CArchive@@QAEXK@Z ; CArchive::WriteCount

; 1751 : 		if (m_nCount == 0)

  00028	83 7e 0c 00	 cmp	 DWORD PTR [esi+12], 0
  0002c	0f 84 c9 03 00
	00		 je	 $LN189@Serialize

; 1752 : 			return;  // nothing more to do
; 1753 : 
; 1754 : 		ASSERT(m_pHashTable != NULL);
; 1755 : 		if (m_pHashTable != NULL)

  00032	83 7e 04 00	 cmp	 DWORD PTR [esi+4], 0
  00036	0f 84 bf 03 00
	00		 je	 $LN189@Serialize

; 1756 : 		{
; 1757 : 			for (UINT nHash = 0; nHash < m_nHashTableSize; nHash++)

  0003c	33 c9		 xor	 ecx, ecx
  0003e	89 4d f4	 mov	 DWORD PTR _nHash$1$[ebp], ecx
  00041	39 4e 08	 cmp	 DWORD PTR [esi+8], ecx
  00044	0f 86 b1 03 00
	00		 jbe	 $LN189@Serialize
  0004a	66 0f 1f 44 00
	00		 npad	 6
$LL4@Serialize:

; 1758 : 			{
; 1759 : 				CAssoc* pAssoc;
; 1760 : 				for (pAssoc = m_pHashTable[nHash]; pAssoc != NULL; pAssoc = pAssoc->pNext)

  00050	8b 46 04	 mov	 eax, DWORD PTR [esi+4]
  00053	8b 0c 88	 mov	 ecx, DWORD PTR [eax+ecx*4]
  00056	89 4d f8	 mov	 DWORD PTR _pAssoc$1$[ebp], ecx
  00059	85 c9		 test	 ecx, ecx
  0005b	0f 84 17 01 00
	00		 je	 $LN2@Serialize
$LL7@Serialize:
; File C:\Program Files (x86)\Microsoft Visual Studio\2019\Community\VC\Tools\MSVC\14.29.30133\atlmfc\include\afx.inl

; 212  : 	{ return (m_nMode & CArchive::load) == 0; }

  00061	8b 43 18	 mov	 eax, DWORD PTR [ebx+24]
; File C:\Program Files (x86)\Microsoft Visual Studio\2019\Community\VC\Tools\MSVC\14.29.30133\atlmfc\include\afxtempl.h

; 1770 : 					pValue = reinterpret_cast< VALUE* >( &reinterpret_cast< int& >( static_cast< VALUE& >( pAssoc->value ) ) );

  00064	8d 71 04	 lea	 esi, DWORD PTR [ecx+4]
; File C:\Program Files (x86)\Microsoft Visual Studio\2019\Community\VC\Tools\MSVC\14.29.30133\atlmfc\include\afx.inl

; 212  : 	{ return (m_nMode & CArchive::load) == 0; }

  00067	f7 d0		 not	 eax
; File C:\Program Files (x86)\Microsoft Visual Studio\2019\Community\VC\Tools\MSVC\14.29.30133\atlmfc\include\afxtempl.h

; 1770 : 					pValue = reinterpret_cast< VALUE* >( &reinterpret_cast< int& >( static_cast< VALUE& >( pAssoc->value ) ) );

  00069	89 75 e4	 mov	 DWORD PTR _pData$1$[ebp], esi

; 73   : 	if (ar.IsStoring())

  0006c	89 4d fc	 mov	 DWORD PTR _pData$1$[ebp], ecx
; File C:\Program Files (x86)\Microsoft Visual Studio\2019\Community\VC\Tools\MSVC\14.29.30133\atlmfc\include\afx.inl

; 212  : 	{ return (m_nMode & CArchive::load) == 0; }

  0006f	a8 01		 test	 al, 1
; File C:\Program Files (x86)\Microsoft Visual Studio\2019\Community\VC\Tools\MSVC\14.29.30133\atlmfc\include\afxtempl.h

; 73   : 	if (ar.IsStoring())

  00071	74 3c		 je	 SHORT $LN26@Serialize

; 74   : 	{
; 75   : 		TYPE* pData;
; 76   : 		UINT_PTR nElementsLeft;
; 77   : 
; 78   : 		nElementsLeft = nCount;

  00073	be 01 00 00 00	 mov	 esi, 1

; 79   : 		pData = pElements;

  00078	8b c1		 mov	 eax, ecx
  0007a	66 0f 1f 44 00
	00		 npad	 6
$LL21@Serialize:

; 85   : 			ar.Write(pData, nElementsToWrite*sizeof(TYPE));

  00080	8b 4d 08	 mov	 ecx, DWORD PTR _ar$[ebp]
  00083	bb ff ff ff 1f	 mov	 ebx, 536870911		; 1fffffffH
  00088	3b f3		 cmp	 esi, ebx
  0008a	0f 42 de	 cmovb	 ebx, esi
  0008d	8d 3c 9d 00 00
	00 00		 lea	 edi, DWORD PTR [ebx*4]
  00094	57		 push	 edi
  00095	50		 push	 eax
  00096	e8 00 00 00 00	 call	 ?Write@CArchive@@QAEXPBXI@Z ; CArchive::Write

; 87   : 			pData += nElementsToWrite;

  0009b	8b 45 fc	 mov	 eax, DWORD PTR _pData$1$[ebp]
  0009e	03 c7		 add	 eax, edi
  000a0	89 45 fc	 mov	 DWORD PTR _pData$1$[ebp], eax
  000a3	2b f3		 sub	 esi, ebx
  000a5	75 d9		 jne	 SHORT $LL21@Serialize
  000a7	8b 75 e4	 mov	 esi, DWORD PTR _pData$1$[ebp]

; 88   : 		}
; 89   : 	}

  000aa	8b 5d 08	 mov	 ebx, DWORD PTR _ar$[ebp]
  000ad	eb 3b		 jmp	 SHORT $LN41@Serialize
$LN26@Serialize:

; 90   : 	else
; 91   : 	{
; 92   : 		TYPE* pData;
; 93   : 		UINT_PTR nElementsLeft;
; 94   : 
; 95   : 		nElementsLeft = nCount;

  000af	bf 01 00 00 00	 mov	 edi, 1

; 96   : 		pData = pElements;

  000b4	8b d1		 mov	 edx, ecx
$LL23@Serialize:

; 101  : 			nElementsToRead = UINT(__min(nElementsLeft, INT_MAX/sizeof(TYPE)));

  000b6	b8 ff ff ff 1f	 mov	 eax, 536870911		; 1fffffffH
; File C:\Program Files (x86)\Microsoft Visual Studio\2019\Community\VC\Tools\MSVC\14.29.30133\atlmfc\include\afx.inl

; 399  : 	UINT nRead=Read(lpBuf, nCount);

  000bb	8b cb		 mov	 ecx, ebx
; File C:\Program Files (x86)\Microsoft Visual Studio\2019\Community\VC\Tools\MSVC\14.29.30133\atlmfc\include\afxtempl.h

; 101  : 			nElementsToRead = UINT(__min(nElementsLeft, INT_MAX/sizeof(TYPE)));

  000bd	3b f8		 cmp	 edi, eax
  000bf	0f 42 c7	 cmovb	 eax, edi
  000c2	89 45 e0	 mov	 DWORD PTR _nElementsToRead$1$[ebp], eax

; 102  : 			ar.EnsureRead(pData, nElementsToRead*sizeof(TYPE));

  000c5	c1 e0 02	 shl	 eax, 2
; File C:\Program Files (x86)\Microsoft Visual Studio\2019\Community\VC\Tools\MSVC\14.29.30133\atlmfc\include\afx.inl

; 399  : 	UINT nRead=Read(lpBuf, nCount);

  000c8	50		 push	 eax
  000c9	52		 push	 edx
; File C:\Program Files (x86)\Microsoft Visual Studio\2019\Community\VC\Tools\MSVC\14.29.30133\atlmfc\include\afxtempl.h

; 102  : 			ar.EnsureRead(pData, nElementsToRead*sizeof(TYPE));

  000ca	89 45 e4	 mov	 DWORD PTR _nCount$1$[ebp], eax
; File C:\Program Files (x86)\Microsoft Visual Studio\2019\Community\VC\Tools\MSVC\14.29.30133\atlmfc\include\afx.inl

; 399  : 	UINT nRead=Read(lpBuf, nCount);

  000cd	e8 00 00 00 00	 call	 ?Read@CArchive@@QAEIPAXI@Z ; CArchive::Read

; 400  : 	if(nRead!=nCount)

  000d2	8b 4d e4	 mov	 ecx, DWORD PTR _nCount$1$[ebp]
  000d5	3b c1		 cmp	 eax, ecx
  000d7	0f 85 2c 03 00
	00		 jne	 $LN165@Serialize
; File C:\Program Files (x86)\Microsoft Visual Studio\2019\Community\VC\Tools\MSVC\14.29.30133\atlmfc\include\afxtempl.h

; 104  : 			pData += nElementsToRead;

  000dd	8b 55 fc	 mov	 edx, DWORD PTR _pData$1$[ebp]
  000e0	03 d1		 add	 edx, ecx
  000e2	89 55 fc	 mov	 DWORD PTR _pData$1$[ebp], edx
  000e5	2b 7d e0	 sub	 edi, DWORD PTR _nElementsToRead$1$[ebp]
  000e8	75 cc		 jne	 SHORT $LL23@Serialize
$LN41@Serialize:

; 68   : 	ENSURE(nCount == 0 || pElements != NULL);

  000ea	85 f6		 test	 esi, esi
  000ec	0f 84 12 03 00
	00		 je	 $LN167@Serialize
; File C:\Program Files (x86)\Microsoft Visual Studio\2019\Community\VC\Tools\MSVC\14.29.30133\atlmfc\include\afx.inl

; 212  : 	{ return (m_nMode & CArchive::load) == 0; }

  000f2	8b 43 18	 mov	 eax, DWORD PTR [ebx+24]
  000f5	f7 d0		 not	 eax
  000f7	a8 01		 test	 al, 1
; File C:\Program Files (x86)\Microsoft Visual Studio\2019\Community\VC\Tools\MSVC\14.29.30133\atlmfc\include\afxtempl.h

; 73   : 	if (ar.IsStoring())

  000f9	74 36		 je	 SHORT $LN47@Serialize

; 74   : 	{
; 75   : 		TYPE* pData;
; 76   : 		UINT_PTR nElementsLeft;
; 77   : 
; 78   : 		nElementsLeft = nCount;

  000fb	b8 01 00 00 00	 mov	 eax, 1
  00100	89 45 fc	 mov	 DWORD PTR _nElementsLeft$1$[ebp], eax
$LL42@Serialize:

; 85   : 			ar.Write(pData, nElementsToWrite*sizeof(TYPE));

  00103	8b 4d 08	 mov	 ecx, DWORD PTR _ar$[ebp]
  00106	bb ff ff ff 1f	 mov	 ebx, 536870911		; 1fffffffH
  0010b	3b c3		 cmp	 eax, ebx
  0010d	0f 42 d8	 cmovb	 ebx, eax
  00110	8d 3c 9d 00 00
	00 00		 lea	 edi, DWORD PTR [ebx*4]
  00117	57		 push	 edi
  00118	56		 push	 esi
  00119	e8 00 00 00 00	 call	 ?Write@CArchive@@QAEXPBXI@Z ; CArchive::Write

; 86   : 			nElementsLeft -= nElementsToWrite;

  0011e	8b 45 fc	 mov	 eax, DWORD PTR _nElementsLeft$1$[ebp]

; 87   : 			pData += nElementsToWrite;

  00121	03 f7		 add	 esi, edi
  00123	2b c3		 sub	 eax, ebx
  00125	89 45 fc	 mov	 DWORD PTR _nElementsLeft$1$[ebp], eax
  00128	85 c0		 test	 eax, eax
  0012a	75 d7		 jne	 SHORT $LL42@Serialize

; 88   : 		}
; 89   : 	}

  0012c	8b 5d 08	 mov	 ebx, DWORD PTR _ar$[ebp]
  0012f	eb 33		 jmp	 SHORT $LN5@Serialize
$LN47@Serialize:

; 90   : 	else
; 91   : 	{
; 92   : 		TYPE* pData;
; 93   : 		UINT_PTR nElementsLeft;
; 94   : 
; 95   : 		nElementsLeft = nCount;

  00131	bf 01 00 00 00	 mov	 edi, 1
$LL44@Serialize:

; 101  : 			nElementsToRead = UINT(__min(nElementsLeft, INT_MAX/sizeof(TYPE)));

  00136	b8 ff ff ff 1f	 mov	 eax, 536870911		; 1fffffffH
; File C:\Program Files (x86)\Microsoft Visual Studio\2019\Community\VC\Tools\MSVC\14.29.30133\atlmfc\include\afx.inl

; 399  : 	UINT nRead=Read(lpBuf, nCount);

  0013b	8b cb		 mov	 ecx, ebx
; File C:\Program Files (x86)\Microsoft Visual Studio\2019\Community\VC\Tools\MSVC\14.29.30133\atlmfc\include\afxtempl.h

; 101  : 			nElementsToRead = UINT(__min(nElementsLeft, INT_MAX/sizeof(TYPE)));

  0013d	3b f8		 cmp	 edi, eax
  0013f	0f 42 c7	 cmovb	 eax, edi
  00142	89 45 e4	 mov	 DWORD PTR _nElementsToRead$1$[ebp], eax

; 102  : 			ar.EnsureRead(pData, nElementsToRead*sizeof(TYPE));

  00145	c1 e0 02	 shl	 eax, 2
; File C:\Program Files (x86)\Microsoft Visual Studio\2019\Community\VC\Tools\MSVC\14.29.30133\atlmfc\include\afx.inl

; 399  : 	UINT nRead=Read(lpBuf, nCount);

  00148	50		 push	 eax
  00149	56		 push	 esi
; File C:\Program Files (x86)\Microsoft Visual Studio\2019\Community\VC\Tools\MSVC\14.29.30133\atlmfc\include\afxtempl.h

; 102  : 			ar.EnsureRead(pData, nElementsToRead*sizeof(TYPE));

  0014a	89 45 e0	 mov	 DWORD PTR _nCount$1$[ebp], eax
; File C:\Program Files (x86)\Microsoft Visual Studio\2019\Community\VC\Tools\MSVC\14.29.30133\atlmfc\include\afx.inl

; 399  : 	UINT nRead=Read(lpBuf, nCount);

  0014d	e8 00 00 00 00	 call	 ?Read@CArchive@@QAEIPAXI@Z ; CArchive::Read

; 400  : 	if(nRead!=nCount)

  00152	8b 4d e0	 mov	 ecx, DWORD PTR _nCount$1$[ebp]
  00155	3b c1		 cmp	 eax, ecx
  00157	0f 85 ac 02 00
	00		 jne	 $LN165@Serialize
; File C:\Program Files (x86)\Microsoft Visual Studio\2019\Community\VC\Tools\MSVC\14.29.30133\atlmfc\include\afxtempl.h

; 103  : 			nElementsLeft -= nElementsToRead;

  0015d	03 f1		 add	 esi, ecx
  0015f	2b 7d e4	 sub	 edi, DWORD PTR _nElementsToRead$1$[ebp]
  00162	75 d2		 jne	 SHORT $LL44@Serialize
$LN5@Serialize:

; 1758 : 			{
; 1759 : 				CAssoc* pAssoc;
; 1760 : 				for (pAssoc = m_pHashTable[nHash]; pAssoc != NULL; pAssoc = pAssoc->pNext)

  00164	8b 4d f8	 mov	 ecx, DWORD PTR _pAssoc$1$[ebp]
  00167	8b 49 08	 mov	 ecx, DWORD PTR [ecx+8]
  0016a	89 4d f8	 mov	 DWORD PTR _pAssoc$1$[ebp], ecx
  0016d	85 c9		 test	 ecx, ecx
  0016f	0f 85 ec fe ff
	ff		 jne	 $LL7@Serialize
  00175	8b 75 e8	 mov	 esi, DWORD PTR _this$1$[ebp]
$LN2@Serialize:

; 1756 : 		{
; 1757 : 			for (UINT nHash = 0; nHash < m_nHashTableSize; nHash++)

  00178	8b 4d f4	 mov	 ecx, DWORD PTR _nHash$1$[ebp]
  0017b	41		 inc	 ecx
  0017c	89 4d f4	 mov	 DWORD PTR _nHash$1$[ebp], ecx
  0017f	3b 4e 08	 cmp	 ecx, DWORD PTR [esi+8]
  00182	0f 82 c8 fe ff
	ff		 jb	 $LL4@Serialize

; 1787 : 		}
; 1788 : 	}
; 1789 : }

  00188	5f		 pop	 edi
  00189	5e		 pop	 esi
  0018a	5b		 pop	 ebx
  0018b	8b e5		 mov	 esp, ebp
  0018d	5d		 pop	 ebp
  0018e	c2 04 00	 ret	 4
$LN10@Serialize:

; 1771 : 					SerializeElements<KEY>(ar, pKey, 1);
; 1772 : 					SerializeElements<VALUE>(ar, pValue, 1);
; 1773 : 				}
; 1774 : 			}
; 1775 : 		}
; 1776 : 	}
; 1777 : 	else
; 1778 : 	{
; 1779 : 		DWORD_PTR nNewCount = ar.ReadCount();

  00191	e8 00 00 00 00	 call	 ?ReadCount@CArchive@@QAEKXZ ; CArchive::ReadCount

; 1780 : 		while (nNewCount--)

  00196	85 c0		 test	 eax, eax
  00198	0f 84 5d 02 00
	00		 je	 $LN189@Serialize
  0019e	66 90		 npad	 2
$LL8@Serialize:
  001a0	48		 dec	 eax
  001a1	89 45 f8	 mov	 DWORD PTR _nNewCount$1$[ebp], eax
; File C:\Program Files (x86)\Microsoft Visual Studio\2019\Community\VC\Tools\MSVC\14.29.30133\atlmfc\include\afx.inl

; 212  : 	{ return (m_nMode & CArchive::load) == 0; }

  001a4	8b 43 18	 mov	 eax, DWORD PTR [ebx+24]
  001a7	f7 d0		 not	 eax
  001a9	a8 01		 test	 al, 1
; File C:\Program Files (x86)\Microsoft Visual Studio\2019\Community\VC\Tools\MSVC\14.29.30133\atlmfc\include\afxtempl.h

; 73   : 	if (ar.IsStoring())

  001ab	74 43		 je	 SHORT $LN67@Serialize

; 74   : 	{
; 75   : 		TYPE* pData;
; 76   : 		UINT_PTR nElementsLeft;
; 77   : 
; 78   : 		nElementsLeft = nCount;

  001ad	b8 01 00 00 00	 mov	 eax, 1

; 79   : 		pData = pElements;

  001b2	8d 4d ec	 lea	 ecx, DWORD PTR _newKey$3[ebp]
  001b5	89 45 08	 mov	 DWORD PTR _nElementsLeft$1$[ebp], eax
  001b8	89 4d f4	 mov	 DWORD PTR _pData$1$[ebp], ecx
  001bb	0f 1f 44 00 00	 npad	 5
$LL62@Serialize:

; 80   : 		while( nElementsLeft > 0 )
; 81   : 		{
; 82   : 			UINT nElementsToWrite;
; 83   : 
; 84   : 			nElementsToWrite = UINT(__min(nElementsLeft, INT_MAX/sizeof(TYPE)));

  001c0	bf ff ff ff 1f	 mov	 edi, 536870911		; 1fffffffH
  001c5	3b c7		 cmp	 eax, edi
  001c7	0f 42 f8	 cmovb	 edi, eax

; 85   : 			ar.Write(pData, nElementsToWrite*sizeof(TYPE));

  001ca	8d 34 bd 00 00
	00 00		 lea	 esi, DWORD PTR [edi*4]
  001d1	56		 push	 esi
  001d2	51		 push	 ecx
  001d3	8b cb		 mov	 ecx, ebx
  001d5	e8 00 00 00 00	 call	 ?Write@CArchive@@QAEXPBXI@Z ; CArchive::Write

; 86   : 			nElementsLeft -= nElementsToWrite;

  001da	8b 45 08	 mov	 eax, DWORD PTR _nElementsLeft$1$[ebp]

; 87   : 			pData += nElementsToWrite;

  001dd	8b 4d f4	 mov	 ecx, DWORD PTR _pData$1$[ebp]
  001e0	2b c7		 sub	 eax, edi
  001e2	03 ce		 add	 ecx, esi
  001e4	89 45 08	 mov	 DWORD PTR _nElementsLeft$1$[ebp], eax
  001e7	89 4d f4	 mov	 DWORD PTR _pData$1$[ebp], ecx
  001ea	85 c0		 test	 eax, eax
  001ec	75 d2		 jne	 SHORT $LL62@Serialize

; 88   : 		}
; 89   : 	}

  001ee	eb 45		 jmp	 SHORT $LN81@Serialize
$LN67@Serialize:

; 96   : 		pData = pElements;

  001f0	8d 55 ec	 lea	 edx, DWORD PTR _newKey$3[ebp]
  001f3	be 01 00 00 00	 mov	 esi, 1
  001f8	89 55 08	 mov	 DWORD PTR _pData$1$[ebp], edx
  001fb	0f 1f 44 00 00	 npad	 5
$LL64@Serialize:

; 101  : 			nElementsToRead = UINT(__min(nElementsLeft, INT_MAX/sizeof(TYPE)));

  00200	bf ff ff ff 1f	 mov	 edi, 536870911		; 1fffffffH
; File C:\Program Files (x86)\Microsoft Visual Studio\2019\Community\VC\Tools\MSVC\14.29.30133\atlmfc\include\afx.inl

; 399  : 	UINT nRead=Read(lpBuf, nCount);

  00205	8b cb		 mov	 ecx, ebx
; File C:\Program Files (x86)\Microsoft Visual Studio\2019\Community\VC\Tools\MSVC\14.29.30133\atlmfc\include\afxtempl.h

; 101  : 			nElementsToRead = UINT(__min(nElementsLeft, INT_MAX/sizeof(TYPE)));

  00207	3b f7		 cmp	 esi, edi
  00209	0f 42 fe	 cmovb	 edi, esi

; 102  : 			ar.EnsureRead(pData, nElementsToRead*sizeof(TYPE));

  0020c	8d 04 bd 00 00
	00 00		 lea	 eax, DWORD PTR [edi*4]
; File C:\Program Files (x86)\Microsoft Visual Studio\2019\Community\VC\Tools\MSVC\14.29.30133\atlmfc\include\afx.inl

; 399  : 	UINT nRead=Read(lpBuf, nCount);

  00213	50		 push	 eax
  00214	52		 push	 edx
  00215	e8 00 00 00 00	 call	 ?Read@CArchive@@QAEIPAXI@Z ; CArchive::Read

; 400  : 	if(nRead!=nCount)

  0021a	8d 0c bd 00 00
	00 00		 lea	 ecx, DWORD PTR [edi*4]
  00221	3b c1		 cmp	 eax, ecx
  00223	0f 85 e0 01 00
	00		 jne	 $LN165@Serialize
; File C:\Program Files (x86)\Microsoft Visual Studio\2019\Community\VC\Tools\MSVC\14.29.30133\atlmfc\include\afxtempl.h

; 104  : 			pData += nElementsToRead;

  00229	8b 55 08	 mov	 edx, DWORD PTR _pData$1$[ebp]
  0022c	03 d1		 add	 edx, ecx
  0022e	89 55 08	 mov	 DWORD PTR _pData$1$[ebp], edx
  00231	2b f7		 sub	 esi, edi
  00233	75 cb		 jne	 SHORT $LL64@Serialize
$LN81@Serialize:
; File C:\Program Files (x86)\Microsoft Visual Studio\2019\Community\VC\Tools\MSVC\14.29.30133\atlmfc\include\afx.inl

; 212  : 	{ return (m_nMode & CArchive::load) == 0; }

  00235	8b 43 18	 mov	 eax, DWORD PTR [ebx+24]
  00238	f7 d0		 not	 eax
  0023a	a8 01		 test	 al, 1
; File C:\Program Files (x86)\Microsoft Visual Studio\2019\Community\VC\Tools\MSVC\14.29.30133\atlmfc\include\afxtempl.h

; 73   : 	if (ar.IsStoring())

  0023c	74 42		 je	 SHORT $LN87@Serialize

; 74   : 	{
; 75   : 		TYPE* pData;
; 76   : 		UINT_PTR nElementsLeft;
; 77   : 
; 78   : 		nElementsLeft = nCount;

  0023e	b8 01 00 00 00	 mov	 eax, 1

; 79   : 		pData = pElements;

  00243	8d 4d f0	 lea	 ecx, DWORD PTR _newValue$4[ebp]
  00246	89 45 08	 mov	 DWORD PTR _nElementsLeft$1$[ebp], eax
  00249	89 4d f4	 mov	 DWORD PTR _pData$1$[ebp], ecx
  0024c	0f 1f 40 00	 npad	 4
$LL82@Serialize:

; 80   : 		while( nElementsLeft > 0 )
; 81   : 		{
; 82   : 			UINT nElementsToWrite;
; 83   : 
; 84   : 			nElementsToWrite = UINT(__min(nElementsLeft, INT_MAX/sizeof(TYPE)));

  00250	bf ff ff ff 1f	 mov	 edi, 536870911		; 1fffffffH
  00255	3b c7		 cmp	 eax, edi
  00257	0f 42 f8	 cmovb	 edi, eax

; 85   : 			ar.Write(pData, nElementsToWrite*sizeof(TYPE));

  0025a	8d 34 bd 00 00
	00 00		 lea	 esi, DWORD PTR [edi*4]
  00261	56		 push	 esi
  00262	51		 push	 ecx
  00263	8b cb		 mov	 ecx, ebx
  00265	e8 00 00 00 00	 call	 ?Write@CArchive@@QAEXPBXI@Z ; CArchive::Write

; 86   : 			nElementsLeft -= nElementsToWrite;

  0026a	8b 45 08	 mov	 eax, DWORD PTR _nElementsLeft$1$[ebp]

; 87   : 			pData += nElementsToWrite;

  0026d	8b 4d f4	 mov	 ecx, DWORD PTR _pData$1$[ebp]
  00270	2b c7		 sub	 eax, edi
  00272	03 ce		 add	 ecx, esi
  00274	89 45 08	 mov	 DWORD PTR _nElementsLeft$1$[ebp], eax
  00277	89 4d f4	 mov	 DWORD PTR _pData$1$[ebp], ecx
  0027a	85 c0		 test	 eax, eax
  0027c	75 d2		 jne	 SHORT $LL82@Serialize

; 88   : 		}
; 89   : 	}

  0027e	eb 45		 jmp	 SHORT $LN85@Serialize
$LN87@Serialize:

; 96   : 		pData = pElements;

  00280	8d 55 f0	 lea	 edx, DWORD PTR _newValue$4[ebp]
  00283	be 01 00 00 00	 mov	 esi, 1
  00288	89 55 08	 mov	 DWORD PTR _pData$1$[ebp], edx
  0028b	0f 1f 44 00 00	 npad	 5
$LL84@Serialize:

; 101  : 			nElementsToRead = UINT(__min(nElementsLeft, INT_MAX/sizeof(TYPE)));

  00290	bf ff ff ff 1f	 mov	 edi, 536870911		; 1fffffffH
; File C:\Program Files (x86)\Microsoft Visual Studio\2019\Community\VC\Tools\MSVC\14.29.30133\atlmfc\include\afx.inl

; 399  : 	UINT nRead=Read(lpBuf, nCount);

  00295	8b cb		 mov	 ecx, ebx
; File C:\Program Files (x86)\Microsoft Visual Studio\2019\Community\VC\Tools\MSVC\14.29.30133\atlmfc\include\afxtempl.h

; 101  : 			nElementsToRead = UINT(__min(nElementsLeft, INT_MAX/sizeof(TYPE)));

  00297	3b f7		 cmp	 esi, edi
  00299	0f 42 fe	 cmovb	 edi, esi

; 102  : 			ar.EnsureRead(pData, nElementsToRead*sizeof(TYPE));

  0029c	8d 04 bd 00 00
	00 00		 lea	 eax, DWORD PTR [edi*4]
; File C:\Program Files (x86)\Microsoft Visual Studio\2019\Community\VC\Tools\MSVC\14.29.30133\atlmfc\include\afx.inl

; 399  : 	UINT nRead=Read(lpBuf, nCount);

  002a3	50		 push	 eax
  002a4	52		 push	 edx
  002a5	e8 00 00 00 00	 call	 ?Read@CArchive@@QAEIPAXI@Z ; CArchive::Read

; 400  : 	if(nRead!=nCount)

  002aa	8d 0c bd 00 00
	00 00		 lea	 ecx, DWORD PTR [edi*4]
  002b1	3b c1		 cmp	 eax, ecx
  002b3	0f 85 50 01 00
	00		 jne	 $LN165@Serialize
; File C:\Program Files (x86)\Microsoft Visual Studio\2019\Community\VC\Tools\MSVC\14.29.30133\atlmfc\include\afxtempl.h

; 104  : 			pData += nElementsToRead;

  002b9	8b 55 08	 mov	 edx, DWORD PTR _pData$1$[ebp]
  002bc	03 d1		 add	 edx, ecx
  002be	89 55 08	 mov	 DWORD PTR _pData$1$[ebp], edx
  002c1	2b f7		 sub	 esi, edi
  002c3	75 cb		 jne	 SHORT $LL84@Serialize
$LN85@Serialize:

; 1781 : 		{
; 1782 : 			KEY newKey[1];
; 1783 : 			VALUE newValue[1];
; 1784 : 			SerializeElements<KEY>(ar, newKey, 1);
; 1785 : 			SerializeElements<VALUE>(ar, newValue, 1);
; 1786 : 			SetAt(newKey[0], newValue[0]);

  002c5	8b 45 f0	 mov	 eax, DWORD PTR _newValue$4[ebp]
  002c8	b9 1d f3 01 00	 mov	 ecx, 127773		; 0001f31dH
  002cd	89 45 e4	 mov	 DWORD PTR _newValue$1$[ebp], eax
  002d0	8b 45 ec	 mov	 eax, DWORD PTR _newKey$3[ebp]
  002d3	89 45 f4	 mov	 DWORD PTR _key$1$[ebp], eax
  002d6	99		 cdq
  002d7	f7 f9		 idiv	 ecx

; 1534 : 	nHashBucket = nHashValue % m_nHashTableSize;

  002d9	8b 75 e8	 mov	 esi, DWORD PTR _this$1$[ebp]

; 166  : 	HashVal.rem = 16807 * HashVal.rem - 2836 * HashVal.quot;

  002dc	69 c0 14 0b 00
	00		 imul	 eax, eax, 2836
  002e2	69 ca a7 41 00
	00		 imul	 ecx, edx, 16807
  002e8	2b c8		 sub	 ecx, eax

; 1534 : 	nHashBucket = nHashValue % m_nHashTableSize;

  002ea	8d b9 ff ff ff
	7f		 lea	 edi, DWORD PTR [ecx+2147483647]
  002f0	0f 49 f9	 cmovns	 edi, ecx
  002f3	8b 4e 08	 mov	 ecx, DWORD PTR [esi+8]
  002f6	33 d2		 xor	 edx, edx
  002f8	89 4d 08	 mov	 DWORD PTR _nHashSize$1$[ebp], ecx
  002fb	8b c7		 mov	 eax, edi
  002fd	f7 f1		 div	 ecx

; 1535 : 
; 1536 : 	if (m_pHashTable == NULL)

  002ff	8b 4e 04	 mov	 ecx, DWORD PTR [esi+4]
  00302	8b c2		 mov	 eax, edx
  00304	89 45 e0	 mov	 DWORD PTR _nHashBucket$1$[ebp], eax
  00307	85 c9		 test	 ecx, ecx
  00309	75 49		 jne	 SHORT $LN112@Serialize

; 1434 : 		m_pHashTable = new CAssoc* [nHashSize];

  0030b	8b 45 08	 mov	 eax, DWORD PTR _nHashSize$1$[ebp]
  0030e	ba 04 00 00 00	 mov	 edx, 4
  00313	f7 e2		 mul	 edx
  00315	0f 90 c1	 seto	 cl
  00318	f7 d9		 neg	 ecx
  0031a	0b c8		 or	 ecx, eax
  0031c	51		 push	 ecx
  0031d	e8 00 00 00 00	 call	 ??_U@YAPAXI@Z		; operator new[]
  00322	83 c4 04	 add	 esp, 4
  00325	89 46 04	 mov	 DWORD PTR [esi+4], eax

; 1435 : 		ENSURE(m_pHashTable != NULL);

  00328	85 c0		 test	 eax, eax
  0032a	0f 84 d4 00 00
	00		 je	 $LN167@Serialize

; 1436 : 		memset(m_pHashTable, 0, sizeof(CAssoc*) * nHashSize);

  00330	8b 4d 08	 mov	 ecx, DWORD PTR _nHashSize$1$[ebp]
  00333	c1 e1 02	 shl	 ecx, 2
  00336	51		 push	 ecx
  00337	6a 00		 push	 0
  00339	50		 push	 eax
  0033a	e8 00 00 00 00	 call	 _memset

; 1437 : 	}
; 1438 : 	m_nHashTableSize = nHashSize;

  0033f	8b 45 08	 mov	 eax, DWORD PTR _nHashSize$1$[ebp]
  00342	83 c4 0c	 add	 esp, 12			; 0000000cH

; 1595 : 		ENSURE(m_pHashTable);

  00345	83 7e 04 00	 cmp	 DWORD PTR [esi+4], 0

; 1438 : 	m_nHashTableSize = nHashSize;

  00349	89 46 08	 mov	 DWORD PTR [esi+8], eax

; 1595 : 		ENSURE(m_pHashTable);

  0034c	0f 84 b2 00 00
	00		 je	 $LN167@Serialize
  00352	eb 20		 jmp	 SHORT $LN225@Serialize
$LN112@Serialize:

; 1541 : 	for (pAssoc = m_pHashTable[nHashBucket]; pAssoc != NULL; pAssoc = pAssoc->pNext)

  00354	8b 0c 81	 mov	 ecx, DWORD PTR [ecx+eax*4]
  00357	85 c9		 test	 ecx, ecx
  00359	74 19		 je	 SHORT $LN225@Serialize
  0035b	8b 45 f4	 mov	 eax, DWORD PTR _key$1$[ebp]
  0035e	66 90		 npad	 2
$LL111@Serialize:

; 1542 : 	{
; 1543 : 		if (pAssoc->nHashValue == nHashValue && CompareElements(&pAssoc->key, &key))

  00360	39 79 0c	 cmp	 DWORD PTR [ecx+12], edi
  00363	75 08		 jne	 SHORT $LN109@Serialize

; 156  : 	return *pElement1 == *pElement2;

  00365	39 01		 cmp	 DWORD PTR [ecx], eax

; 1543 : 		if (pAssoc->nHashValue == nHashValue && CompareElements(&pAssoc->key, &key))

  00367	0f 84 7d 00 00
	00		 je	 $LN104@Serialize
$LN109@Serialize:

; 1537 : 		return NULL;
; 1538 : 
; 1539 : 	// see if it exists
; 1540 : 	CAssoc* pAssoc;
; 1541 : 	for (pAssoc = m_pHashTable[nHashBucket]; pAssoc != NULL; pAssoc = pAssoc->pNext)

  0036d	8b 49 08	 mov	 ecx, DWORD PTR [ecx+8]
  00370	85 c9		 test	 ecx, ecx
  00372	75 ec		 jne	 SHORT $LL111@Serialize
$LN225@Serialize:

; 1481 : 	if (m_pFreeList == NULL)

  00374	83 7e 10 00	 cmp	 DWORD PTR [esi+16], 0
  00378	75 37		 jne	 SHORT $LN142@Serialize

; 1482 : 	{
; 1483 : 		// add another block
; 1484 : 		CPlex* newBlock = CPlex::Create(m_pBlocks, m_nBlockSize, sizeof(CMap::CAssoc));

  0037a	6a 10		 push	 16			; 00000010H
  0037c	ff 76 18	 push	 DWORD PTR [esi+24]
  0037f	8d 46 14	 lea	 eax, DWORD PTR [esi+20]
  00382	50		 push	 eax
  00383	e8 00 00 00 00	 call	 ?Create@CPlex@@SGPAU1@AAPAU1@II@Z ; CPlex::Create

; 1485 : 		// chain them into free list
; 1486 : 		CMap::CAssoc* pAssoc = (CMap::CAssoc*) newBlock->data();
; 1487 : 		// free in reverse order to make it easier to debug
; 1488 : 		pAssoc += m_nBlockSize - 1;

  00388	8b 56 18	 mov	 edx, DWORD PTR [esi+24]
  0038b	83 c0 08	 add	 eax, 8
  0038e	8b ca		 mov	 ecx, edx
  00390	c1 e1 04	 shl	 ecx, 4
  00393	83 c1 f0	 add	 ecx, -16		; fffffff0H
  00396	03 c8		 add	 ecx, eax

; 1489 : 		for (INT_PTR i = m_nBlockSize-1; i >= 0; i--, pAssoc--)

  00398	83 c2 ff	 add	 edx, -1
  0039b	78 14		 js	 SHORT $LN142@Serialize
  0039d	0f 1f 00	 npad	 3
$LL139@Serialize:

; 1490 : 		{
; 1491 : 			pAssoc->pNext = m_pFreeList;

  003a0	8b 46 10	 mov	 eax, DWORD PTR [esi+16]
  003a3	89 41 08	 mov	 DWORD PTR [ecx+8], eax

; 1492 : 			m_pFreeList = pAssoc;

  003a6	89 4e 10	 mov	 DWORD PTR [esi+16], ecx
  003a9	83 e9 10	 sub	 ecx, 16			; 00000010H
  003ac	83 ea 01	 sub	 edx, 1
  003af	79 ef		 jns	 SHORT $LL139@Serialize
$LN142@Serialize:

; 1493 : 		}
; 1494 : 	}
; 1495 : 	ENSURE(m_pFreeList != NULL);  // we must have something

  003b1	8b 4e 10	 mov	 ecx, DWORD PTR [esi+16]
  003b4	85 c9		 test	 ecx, ecx
  003b6	74 4c		 je	 SHORT $LN167@Serialize

; 1496 : 
; 1497 : 	CMap::CAssoc* pAssoc = m_pFreeList;
; 1498 : 
; 1499 : 	// zero the memory
; 1500 : 	CMap::CAssoc* pTemp = pAssoc->pNext;

  003b8	8b 41 08	 mov	 eax, DWORD PTR [ecx+8]
  003bb	0f 57 c0	 xorps	 xmm0, xmm0

; 1602 : 		pAssoc->pNext = m_pHashTable[nHashBucket];

  003be	8b 55 e0	 mov	 edx, DWORD PTR _nHashBucket$1$[ebp]

; 1501 : 	memset( pAssoc, 0, sizeof(CMap::CAssoc) );

  003c1	0f 11 01	 movups	 XMMWORD PTR [ecx], xmm0

; 1502 : 	pAssoc->pNext = pTemp;

  003c4	89 41 08	 mov	 DWORD PTR [ecx+8], eax

; 1503 : 
; 1504 : 	m_pFreeList = m_pFreeList->pNext;

  003c7	8b 46 10	 mov	 eax, DWORD PTR [esi+16]
  003ca	8b 40 08	 mov	 eax, DWORD PTR [eax+8]

; 1505 : 	m_nCount++;

  003cd	ff 46 0c	 inc	 DWORD PTR [esi+12]
  003d0	89 46 10	 mov	 DWORD PTR [esi+16], eax

; 1256 : 		CPair( ARG_KEY keyval ) : key( keyval )	{}

  003d3	8b 45 f4	 mov	 eax, DWORD PTR _key$1$[ebp]
  003d6	89 01		 mov	 DWORD PTR [ecx], eax

; 1598 : 		pAssoc->nHashValue = nHashValue;

  003d8	89 79 0c	 mov	 DWORD PTR [ecx+12], edi

; 1599 : 		//'pAssoc->value' is a constructed object, nothing more
; 1600 : 
; 1601 : 		// put into hash table
; 1602 : 		pAssoc->pNext = m_pHashTable[nHashBucket];

  003db	8b 46 04	 mov	 eax, DWORD PTR [esi+4]
  003de	8b 04 90	 mov	 eax, DWORD PTR [eax+edx*4]
  003e1	89 41 08	 mov	 DWORD PTR [ecx+8], eax

; 1603 : 		m_pHashTable[nHashBucket] = pAssoc;

  003e4	8b 46 04	 mov	 eax, DWORD PTR [esi+4]
  003e7	89 0c 90	 mov	 DWORD PTR [eax+edx*4], ecx
$LN104@Serialize:

; 1350 : 	{ (*this)[key] = newValue; }

  003ea	8b 45 e4	 mov	 eax, DWORD PTR _newValue$1$[ebp]
  003ed	89 41 04	 mov	 DWORD PTR [ecx+4], eax

; 1780 : 		while (nNewCount--)

  003f0	8b 45 f8	 mov	 eax, DWORD PTR _nNewCount$1$[ebp]
  003f3	85 c0		 test	 eax, eax
  003f5	0f 85 a5 fd ff
	ff		 jne	 $LL8@Serialize
$LN189@Serialize:
  003fb	5f		 pop	 edi

; 1787 : 		}
; 1788 : 	}
; 1789 : }

  003fc	5e		 pop	 esi
  003fd	5b		 pop	 ebx
  003fe	8b e5		 mov	 esp, ebp
  00400	5d		 pop	 ebp
  00401	c2 04 00	 ret	 4
$LN167@Serialize:
  00404	e8 00 00 00 00	 call	 ?AfxThrowInvalidArgException@@YGXXZ ; AfxThrowInvalidArgException
$LN165@Serialize:
  00409	6a 00		 push	 0
  0040b	6a 03		 push	 3
  0040d	e8 00 00 00 00	 call	 ?AfxThrowArchiveException@@YGXHPBD@Z ; AfxThrowArchiveException
$LN226@Serialize:
  00412	cc		 int	 3
?Serialize@?$CMap@HHPAVCGetBackData@@PAV1@@@UAEXAAVCArchive@@@Z ENDP ; CMap<int,int,CGetBackData *,CGetBackData *>::Serialize
_TEXT	ENDS
; Function compile flags: /Ogtp
; File C:\Program Files (x86)\Microsoft Visual Studio\2019\Community\VC\Tools\MSVC\14.29.30133\atlmfc\include\afxtempl.h
;	COMDAT ??1?$CMap@HHPAVCGetBackData@@PAV1@@@UAE@XZ
_TEXT	SEGMENT
__$EHRec$ = -12						; size = 12
??1?$CMap@HHPAVCGetBackData@@PAV1@@@UAE@XZ PROC		; CMap<int,int,CGetBackData *,CGetBackData *>::~CMap<int,int,CGetBackData *,CGetBackData *>, COMDAT
; _this$ = ecx

; 1472 : {

  00000	55		 push	 ebp
  00001	8b ec		 mov	 ebp, esp
  00003	6a ff		 push	 -1
  00005	68 00 00 00 00	 push	 __ehhandler$??1?$CMap@HHPAVCGetBackData@@PAV1@@@UAE@XZ
  0000a	64 a1 00 00 00
	00		 mov	 eax, DWORD PTR fs:0
  00010	50		 push	 eax
  00011	56		 push	 esi
  00012	a1 00 00 00 00	 mov	 eax, DWORD PTR ___security_cookie
  00017	33 c5		 xor	 eax, ebp
  00019	50		 push	 eax
  0001a	8d 45 f4	 lea	 eax, DWORD PTR __$EHRec$[ebp]
  0001d	64 a3 00 00 00
	00		 mov	 DWORD PTR fs:0, eax
  00023	8b f1		 mov	 esi, ecx

; 1446 : 	if (m_pHashTable != NULL)

  00025	8b 46 04	 mov	 eax, DWORD PTR [esi+4]

; 1472 : {

  00028	c7 06 00 00 00
	00		 mov	 DWORD PTR [esi], OFFSET ??_7?$CMap@HHPAVCGetBackData@@PAV1@@@6B@

; 1446 : 	if (m_pHashTable != NULL)

  0002e	85 c0		 test	 eax, eax
  00030	74 10		 je	 SHORT $LN10@CMap

; 1447 : 	{
; 1448 : 		// destroy elements (values and keys)
; 1449 : 		for (UINT nHash = 0; nHash < m_nHashTableSize; nHash++)
; 1450 : 		{
; 1451 : 			CAssoc* pAssoc;
; 1452 : 			for (pAssoc = m_pHashTable[nHash]; pAssoc != NULL;
; 1453 : 			  pAssoc = pAssoc->pNext)
; 1454 : 			{
; 1455 : 				pAssoc->CAssoc::~CAssoc();
; 1456 : 			}
; 1457 : 		}
; 1458 : 
; 1459 : 		// free hash table
; 1460 : 		delete[] m_pHashTable;

  00032	50		 push	 eax
  00033	e8 00 00 00 00	 call	 ??_V@YAXPAX@Z		; operator delete[]
  00038	83 c4 04	 add	 esp, 4

; 1461 : 		m_pHashTable = NULL;

  0003b	c7 46 04 00 00
	00 00		 mov	 DWORD PTR [esi+4], 0
$LN10@CMap:

; 1462 : 	}
; 1463 : 
; 1464 : 	m_nCount = 0;
; 1465 : 	m_pFreeList = NULL;
; 1466 : 	m_pBlocks->FreeDataChain();

  00042	8b 4e 14	 mov	 ecx, DWORD PTR [esi+20]
  00045	c7 46 0c 00 00
	00 00		 mov	 DWORD PTR [esi+12], 0
  0004c	c7 46 10 00 00
	00 00		 mov	 DWORD PTR [esi+16], 0
  00053	e8 00 00 00 00	 call	 ?FreeDataChain@CPlex@@QAEXXZ ; CPlex::FreeDataChain

; 1467 : 	m_pBlocks = NULL;

  00058	c7 46 14 00 00
	00 00		 mov	 DWORD PTR [esi+20], 0

; 1473 : 	RemoveAll();
; 1474 : 	ASSERT(m_nCount == 0);
; 1475 : }

  0005f	8b 4d f4	 mov	 ecx, DWORD PTR __$EHRec$[ebp]
  00062	64 89 0d 00 00
	00 00		 mov	 DWORD PTR fs:0, ecx
  00069	59		 pop	 ecx
  0006a	5e		 pop	 esi
  0006b	8b e5		 mov	 esp, ebp
  0006d	5d		 pop	 ebp
  0006e	c3		 ret	 0
  0006f	cc		 int	 3
  00070	cc		 int	 3
  00071	cc		 int	 3
  00072	cc		 int	 3
  00073	cc		 int	 3
_TEXT	ENDS
;	COMDAT text$x
text$x	SEGMENT
__ehhandler$??1?$CMap@HHPAVCGetBackData@@PAV1@@@UAE@XZ:
  00000	90		 npad	 1
  00001	90		 npad	 1
  00002	8b 54 24 08	 mov	 edx, DWORD PTR [esp+8]
  00006	8d 42 0c	 lea	 eax, DWORD PTR [edx+12]
  00009	8b 4a f8	 mov	 ecx, DWORD PTR [edx-8]
  0000c	33 c8		 xor	 ecx, eax
  0000e	e8 00 00 00 00	 call	 @__security_check_cookie@4
  00013	b8 00 00 00 00	 mov	 eax, OFFSET __ehfuncinfo$??1?$CMap@HHPAVCGetBackData@@PAV1@@@UAE@XZ
  00018	e9 00 00 00 00	 jmp	 ___CxxFrameHandler3
text$x	ENDS
??1?$CMap@HHPAVCGetBackData@@PAV1@@@UAE@XZ ENDP		; CMap<int,int,CGetBackData *,CGetBackData *>::~CMap<int,int,CGetBackData *,CGetBackData *>
; Function compile flags: /Ogtp
; File C:\Program Files (x86)\Microsoft Visual Studio\2019\Community\VC\Tools\MSVC\14.29.30133\atlmfc\include\afxtempl.h
;	COMDAT ?GetAssocAt@?$CMap@HHPAVCGetBackData@@PAV1@@@IBEPAVCAssoc@1@HAAI0@Z
_TEXT	SEGMENT
_key$ = 8						; size = 4
_nHashBucket$ = 12					; size = 4
_nHashValue$ = 16					; size = 4
?GetAssocAt@?$CMap@HHPAVCGetBackData@@PAV1@@@IBEPAVCAssoc@1@HAAI0@Z PROC ; CMap<int,int,CGetBackData *,CGetBackData *>::GetAssocAt, COMDAT
; _this$ = ecx

; 1532 : {

  00000	55		 push	 ebp
  00001	8b ec		 mov	 ebp, esp
  00003	56		 push	 esi
  00004	8b f1		 mov	 esi, ecx

; 165  : 	ldiv_t HashVal = ldiv((long)(ARG_KEY)key, 127773);

  00006	b9 1d f3 01 00	 mov	 ecx, 127773		; 0001f31dH

; 1532 : {

  0000b	57		 push	 edi

; 165  : 	ldiv_t HashVal = ldiv((long)(ARG_KEY)key, 127773);

  0000c	8b 7d 08	 mov	 edi, DWORD PTR _key$[ebp]
  0000f	8b c7		 mov	 eax, edi
  00011	99		 cdq
  00012	f7 f9		 idiv	 ecx

; 166  : 	HashVal.rem = 16807 * HashVal.rem - 2836 * HashVal.quot;

  00014	69 c0 14 0b 00
	00		 imul	 eax, eax, 2836
  0001a	69 ca a7 41 00
	00		 imul	 ecx, edx, 16807
  00020	2b c8		 sub	 ecx, eax

; 1533 : 	nHashValue = HashKey<ARG_KEY>(key);

  00022	8d 81 ff ff ff
	7f		 lea	 eax, DWORD PTR [ecx+2147483647]
  00028	0f 49 c1	 cmovns	 eax, ecx
  0002b	8b 4d 10	 mov	 ecx, DWORD PTR _nHashValue$[ebp]

; 1534 : 	nHashBucket = nHashValue % m_nHashTableSize;

  0002e	33 d2		 xor	 edx, edx
  00030	89 01		 mov	 DWORD PTR [ecx], eax
  00032	f7 76 08	 div	 DWORD PTR [esi+8]
  00035	8b 45 0c	 mov	 eax, DWORD PTR _nHashBucket$[ebp]
  00038	89 10		 mov	 DWORD PTR [eax], edx

; 1535 : 
; 1536 : 	if (m_pHashTable == NULL)

  0003a	8b 46 04	 mov	 eax, DWORD PTR [esi+4]
  0003d	85 c0		 test	 eax, eax
  0003f	74 1f		 je	 SHORT $LN26@GetAssocAt

; 1537 : 		return NULL;
; 1538 : 
; 1539 : 	// see if it exists
; 1540 : 	CAssoc* pAssoc;
; 1541 : 	for (pAssoc = m_pHashTable[nHashBucket]; pAssoc != NULL; pAssoc = pAssoc->pNext)

  00041	8b 04 90	 mov	 eax, DWORD PTR [eax+edx*4]
  00044	85 c0		 test	 eax, eax
  00046	74 18		 je	 SHORT $LN26@GetAssocAt

; 1542 : 	{
; 1543 : 		if (pAssoc->nHashValue == nHashValue && CompareElements(&pAssoc->key, &key))

  00048	8b 09		 mov	 ecx, DWORD PTR [ecx]
  0004a	66 0f 1f 44 00
	00		 npad	 6
$LL4@GetAssocAt:
  00050	39 48 0c	 cmp	 DWORD PTR [eax+12], ecx
  00053	75 04		 jne	 SHORT $LN2@GetAssocAt

; 156  : 	return *pElement1 == *pElement2;

  00055	39 38		 cmp	 DWORD PTR [eax], edi

; 1542 : 	{
; 1543 : 		if (pAssoc->nHashValue == nHashValue && CompareElements(&pAssoc->key, &key))

  00057	74 09		 je	 SHORT $LN1@GetAssocAt
$LN2@GetAssocAt:

; 1537 : 		return NULL;
; 1538 : 
; 1539 : 	// see if it exists
; 1540 : 	CAssoc* pAssoc;
; 1541 : 	for (pAssoc = m_pHashTable[nHashBucket]; pAssoc != NULL; pAssoc = pAssoc->pNext)

  00059	8b 40 08	 mov	 eax, DWORD PTR [eax+8]
  0005c	85 c0		 test	 eax, eax
  0005e	75 f0		 jne	 SHORT $LL4@GetAssocAt
$LN26@GetAssocAt:

; 1544 : 			return pAssoc;
; 1545 : 	}
; 1546 : 	return NULL;

  00060	33 c0		 xor	 eax, eax
$LN1@GetAssocAt:
  00062	5f		 pop	 edi

; 1547 : }

  00063	5e		 pop	 esi
  00064	5d		 pop	 ebp
  00065	c2 0c 00	 ret	 12			; 0000000cH
?GetAssocAt@?$CMap@HHPAVCGetBackData@@PAV1@@@IBEPAVCAssoc@1@HAAI0@Z ENDP ; CMap<int,int,CGetBackData *,CGetBackData *>::GetAssocAt
_TEXT	ENDS
; Function compile flags: /Ogtp
; File C:\Program Files (x86)\Microsoft Visual Studio\2019\Community\VC\Tools\MSVC\14.29.30133\atlmfc\include\afxtempl.h
;	COMDAT ?FreeAssoc@?$CMap@HHPAVCGetBackData@@PAV1@@@IAEXPAVCAssoc@1@@Z
_TEXT	SEGMENT
_pAssoc$ = 8						; size = 4
?FreeAssoc@?$CMap@HHPAVCGetBackData@@PAV1@@@IAEXPAVCAssoc@1@@Z PROC ; CMap<int,int,CGetBackData *,CGetBackData *>::FreeAssoc, COMDAT
; _this$ = ecx

; 1516 : {

  00000	55		 push	 ebp
  00001	8b ec		 mov	 ebp, esp

; 1517 : 	pAssoc->CAssoc::~CAssoc();
; 1518 : 	pAssoc->pNext = m_pFreeList;

  00003	8b 55 08	 mov	 edx, DWORD PTR _pAssoc$[ebp]
  00006	56		 push	 esi
  00007	8b f1		 mov	 esi, ecx
  00009	8b 46 10	 mov	 eax, DWORD PTR [esi+16]
  0000c	89 42 08	 mov	 DWORD PTR [edx+8], eax

; 1519 : 	m_pFreeList = pAssoc;
; 1520 : 	m_nCount--;

  0000f	83 46 0c ff	 add	 DWORD PTR [esi+12], -1
  00013	89 56 10	 mov	 DWORD PTR [esi+16], edx

; 1521 : 	ASSERT(m_nCount >= 0);  // make sure we don't underflow
; 1522 : 
; 1523 : 	// if no more elements, cleanup completely
; 1524 : 	if (m_nCount == 0)

  00016	75 34		 jne	 SHORT $LN2@FreeAssoc

; 1446 : 	if (m_pHashTable != NULL)

  00018	8b 46 04	 mov	 eax, DWORD PTR [esi+4]
  0001b	85 c0		 test	 eax, eax
  0001d	74 10		 je	 SHORT $LN11@FreeAssoc

; 1447 : 	{
; 1448 : 		// destroy elements (values and keys)
; 1449 : 		for (UINT nHash = 0; nHash < m_nHashTableSize; nHash++)
; 1450 : 		{
; 1451 : 			CAssoc* pAssoc;
; 1452 : 			for (pAssoc = m_pHashTable[nHash]; pAssoc != NULL;
; 1453 : 			  pAssoc = pAssoc->pNext)
; 1454 : 			{
; 1455 : 				pAssoc->CAssoc::~CAssoc();
; 1456 : 			}
; 1457 : 		}
; 1458 : 
; 1459 : 		// free hash table
; 1460 : 		delete[] m_pHashTable;

  0001f	50		 push	 eax
  00020	e8 00 00 00 00	 call	 ??_V@YAXPAX@Z		; operator delete[]
  00025	83 c4 04	 add	 esp, 4

; 1461 : 		m_pHashTable = NULL;

  00028	c7 46 04 00 00
	00 00		 mov	 DWORD PTR [esi+4], 0
$LN11@FreeAssoc:

; 1462 : 	}
; 1463 : 
; 1464 : 	m_nCount = 0;
; 1465 : 	m_pFreeList = NULL;
; 1466 : 	m_pBlocks->FreeDataChain();

  0002f	8b 4e 14	 mov	 ecx, DWORD PTR [esi+20]
  00032	c7 46 0c 00 00
	00 00		 mov	 DWORD PTR [esi+12], 0
  00039	c7 46 10 00 00
	00 00		 mov	 DWORD PTR [esi+16], 0
  00040	e8 00 00 00 00	 call	 ?FreeDataChain@CPlex@@QAEXXZ ; CPlex::FreeDataChain

; 1467 : 	m_pBlocks = NULL;

  00045	c7 46 14 00 00
	00 00		 mov	 DWORD PTR [esi+20], 0
$LN2@FreeAssoc:
  0004c	5e		 pop	 esi

; 1525 : 		RemoveAll();
; 1526 : }

  0004d	5d		 pop	 ebp
  0004e	c2 04 00	 ret	 4
?FreeAssoc@?$CMap@HHPAVCGetBackData@@PAV1@@@IAEXPAVCAssoc@1@@Z ENDP ; CMap<int,int,CGetBackData *,CGetBackData *>::FreeAssoc
_TEXT	ENDS
; Function compile flags: /Ogtp
; File C:\Program Files (x86)\Microsoft Visual Studio\2019\Community\VC\Tools\MSVC\14.29.30133\atlmfc\include\afxtempl.h
;	COMDAT ?NewAssoc@?$CMap@HHPAVCGetBackData@@PAV1@@@IAEPAVCAssoc@1@H@Z
_TEXT	SEGMENT
_key$ = 8						; size = 4
?NewAssoc@?$CMap@HHPAVCGetBackData@@PAV1@@@IAEPAVCAssoc@1@H@Z PROC ; CMap<int,int,CGetBackData *,CGetBackData *>::NewAssoc, COMDAT
; _this$ = ecx

; 1480 : {

  00000	55		 push	 ebp
  00001	8b ec		 mov	 ebp, esp
  00003	56		 push	 esi
  00004	8b f1		 mov	 esi, ecx

; 1481 : 	if (m_pFreeList == NULL)

  00006	83 7e 10 00	 cmp	 DWORD PTR [esi+16], 0
  0000a	75 35		 jne	 SHORT $LN7@NewAssoc

; 1482 : 	{
; 1483 : 		// add another block
; 1484 : 		CPlex* newBlock = CPlex::Create(m_pBlocks, m_nBlockSize, sizeof(CMap::CAssoc));

  0000c	6a 10		 push	 16			; 00000010H
  0000e	ff 76 18	 push	 DWORD PTR [esi+24]
  00011	8d 46 14	 lea	 eax, DWORD PTR [esi+20]
  00014	50		 push	 eax
  00015	e8 00 00 00 00	 call	 ?Create@CPlex@@SGPAU1@AAPAU1@II@Z ; CPlex::Create

; 1485 : 		// chain them into free list
; 1486 : 		CMap::CAssoc* pAssoc = (CMap::CAssoc*) newBlock->data();
; 1487 : 		// free in reverse order to make it easier to debug
; 1488 : 		pAssoc += m_nBlockSize - 1;

  0001a	8b 56 18	 mov	 edx, DWORD PTR [esi+24]
  0001d	83 c0 08	 add	 eax, 8
  00020	8b ca		 mov	 ecx, edx
  00022	c1 e1 04	 shl	 ecx, 4
  00025	83 c1 f0	 add	 ecx, -16		; fffffff0H
  00028	03 c1		 add	 eax, ecx

; 1489 : 		for (INT_PTR i = m_nBlockSize-1; i >= 0; i--, pAssoc--)

  0002a	83 c2 ff	 add	 edx, -1
  0002d	78 12		 js	 SHORT $LN7@NewAssoc
  0002f	90		 npad	 1
$LL4@NewAssoc:

; 1490 : 		{
; 1491 : 			pAssoc->pNext = m_pFreeList;

  00030	8b 4e 10	 mov	 ecx, DWORD PTR [esi+16]
  00033	89 48 08	 mov	 DWORD PTR [eax+8], ecx

; 1492 : 			m_pFreeList = pAssoc;

  00036	89 46 10	 mov	 DWORD PTR [esi+16], eax
  00039	83 e8 10	 sub	 eax, 16			; 00000010H
  0003c	83 ea 01	 sub	 edx, 1
  0003f	79 ef		 jns	 SHORT $LL4@NewAssoc
$LN7@NewAssoc:

; 1493 : 		}
; 1494 : 	}
; 1495 : 	ENSURE(m_pFreeList != NULL);  // we must have something

  00041	8b 46 10	 mov	 eax, DWORD PTR [esi+16]
  00044	85 c0		 test	 eax, eax
  00046	74 22		 je	 SHORT $LN21@NewAssoc

; 1496 : 
; 1497 : 	CMap::CAssoc* pAssoc = m_pFreeList;
; 1498 : 
; 1499 : 	// zero the memory
; 1500 : 	CMap::CAssoc* pTemp = pAssoc->pNext;

  00048	8b 48 08	 mov	 ecx, DWORD PTR [eax+8]
  0004b	0f 57 c0	 xorps	 xmm0, xmm0

; 1501 : 	memset( pAssoc, 0, sizeof(CMap::CAssoc) );

  0004e	0f 11 00	 movups	 XMMWORD PTR [eax], xmm0

; 1502 : 	pAssoc->pNext = pTemp;

  00051	89 48 08	 mov	 DWORD PTR [eax+8], ecx

; 1503 : 
; 1504 : 	m_pFreeList = m_pFreeList->pNext;

  00054	8b 4e 10	 mov	 ecx, DWORD PTR [esi+16]
  00057	8b 49 08	 mov	 ecx, DWORD PTR [ecx+8]

; 1505 : 	m_nCount++;

  0005a	ff 46 0c	 inc	 DWORD PTR [esi+12]
  0005d	89 4e 10	 mov	 DWORD PTR [esi+16], ecx

; 1256 : 		CPair( ARG_KEY keyval ) : key( keyval )	{}

  00060	8b 4d 08	 mov	 ecx, DWORD PTR _key$[ebp]
  00063	89 08		 mov	 DWORD PTR [eax], ecx

; 1506 : 	ASSERT(m_nCount > 0);  // make sure we don't overflow
; 1507 : #pragma push_macro("new")
; 1508 : #undef new
; 1509 : 	::new(pAssoc) CMap::CAssoc(key);
; 1510 : #pragma pop_macro("new")
; 1511 : 	return pAssoc;

  00065	5e		 pop	 esi

; 1512 : }

  00066	5d		 pop	 ebp
  00067	c2 04 00	 ret	 4
$LN21@NewAssoc:

; 1493 : 		}
; 1494 : 	}
; 1495 : 	ENSURE(m_pFreeList != NULL);  // we must have something

  0006a	e8 00 00 00 00	 call	 ?AfxThrowInvalidArgException@@YGXXZ ; AfxThrowInvalidArgException
$LN19@NewAssoc:
  0006f	cc		 int	 3
?NewAssoc@?$CMap@HHPAVCGetBackData@@PAV1@@@IAEPAVCAssoc@1@H@Z ENDP ; CMap<int,int,CGetBackData *,CGetBackData *>::NewAssoc
_TEXT	ENDS
; Function compile flags: /Ogtp
; File C:\Program Files (x86)\Microsoft Visual Studio\2019\Community\VC\Tools\MSVC\14.29.30133\atlmfc\include\afxtempl.h
;	COMDAT ?InitHashTable@?$CMap@HHPAVCGetBackData@@PAV1@@@QAEXIH@Z
_TEXT	SEGMENT
_nHashSize$ = 8						; size = 4
_bAllocNow$ = 12					; size = 4
?InitHashTable@?$CMap@HHPAVCGetBackData@@PAV1@@@QAEXIH@Z PROC ; CMap<int,int,CGetBackData *,CGetBackData *>::InitHashTable, COMDAT
; _this$ = ecx

; 1420 : {

  00000	55		 push	 ebp
  00001	8b ec		 mov	 ebp, esp
  00003	56		 push	 esi
  00004	8b f1		 mov	 esi, ecx
  00006	57		 push	 edi

; 1421 : 	ASSERT_VALID(this);
; 1422 : 	ASSERT(m_nCount == 0);
; 1423 : 	ASSERT(nHashSize > 0);
; 1424 : 
; 1425 : 	if (m_pHashTable != NULL)

  00007	8b 46 04	 mov	 eax, DWORD PTR [esi+4]
  0000a	85 c0		 test	 eax, eax
  0000c	74 10		 je	 SHORT $LN5@InitHashTa

; 1426 : 	{
; 1427 : 		// free hash table
; 1428 : 		delete[] m_pHashTable;

  0000e	50		 push	 eax
  0000f	e8 00 00 00 00	 call	 ??_V@YAXPAX@Z		; operator delete[]
  00014	83 c4 04	 add	 esp, 4

; 1429 : 		m_pHashTable = NULL;

  00017	c7 46 04 00 00
	00 00		 mov	 DWORD PTR [esi+4], 0
$LN5@InitHashTa:

; 1430 : 	}
; 1431 : 
; 1432 : 	if (bAllocNow)

  0001e	83 7d 0c 00	 cmp	 DWORD PTR _bAllocNow$[ebp], 0
  00022	8b 7d 08	 mov	 edi, DWORD PTR _nHashSize$[ebp]
  00025	74 37		 je	 SHORT $LN6@InitHashTa

; 1433 : 	{
; 1434 : 		m_pHashTable = new CAssoc* [nHashSize];

  00027	33 c9		 xor	 ecx, ecx
  00029	8b c7		 mov	 eax, edi
  0002b	ba 04 00 00 00	 mov	 edx, 4
  00030	f7 e2		 mul	 edx
  00032	0f 90 c1	 seto	 cl
  00035	f7 d9		 neg	 ecx
  00037	0b c8		 or	 ecx, eax
  00039	51		 push	 ecx
  0003a	e8 00 00 00 00	 call	 ??_U@YAPAXI@Z		; operator new[]
  0003f	8b c8		 mov	 ecx, eax
  00041	83 c4 04	 add	 esp, 4
  00044	89 4e 04	 mov	 DWORD PTR [esi+4], ecx

; 1435 : 		ENSURE(m_pHashTable != NULL);

  00047	85 c9		 test	 ecx, ecx
  00049	74 1c		 je	 SHORT $LN11@InitHashTa

; 1436 : 		memset(m_pHashTable, 0, sizeof(CAssoc*) * nHashSize);

  0004b	8d 04 bd 00 00
	00 00		 lea	 eax, DWORD PTR [edi*4]
  00052	50		 push	 eax
  00053	6a 00		 push	 0
  00055	51		 push	 ecx
  00056	e8 00 00 00 00	 call	 _memset
  0005b	83 c4 0c	 add	 esp, 12			; 0000000cH
$LN6@InitHashTa:

; 1437 : 	}
; 1438 : 	m_nHashTableSize = nHashSize;

  0005e	89 7e 08	 mov	 DWORD PTR [esi+8], edi
  00061	5f		 pop	 edi
  00062	5e		 pop	 esi

; 1439 : }

  00063	5d		 pop	 ebp
  00064	c2 08 00	 ret	 8
$LN11@InitHashTa:

; 1435 : 		ENSURE(m_pHashTable != NULL);

  00067	e8 00 00 00 00	 call	 ?AfxThrowInvalidArgException@@YGXXZ ; AfxThrowInvalidArgException
$LN9@InitHashTa:
  0006c	cc		 int	 3
?InitHashTable@?$CMap@HHPAVCGetBackData@@PAV1@@@QAEXIH@Z ENDP ; CMap<int,int,CGetBackData *,CGetBackData *>::InitHashTable
_TEXT	ENDS
; Function compile flags: /Ogtp
; File C:\Program Files (x86)\Microsoft Visual Studio\2019\Community\VC\Tools\MSVC\14.29.30133\atlmfc\include\afxtempl.h
;	COMDAT ?GetNextAssoc@?$CMap@HHPAVCGetBackData@@PAV1@@@QBEXAAPAU__POSITION@@AAHAAPAVCGetBackData@@@Z
_TEXT	SEGMENT
_rNextPosition$ = 8					; size = 4
_rKey$ = 12						; size = 4
_rValue$ = 16						; size = 4
?GetNextAssoc@?$CMap@HHPAVCGetBackData@@PAV1@@@QBEXAAPAU__POSITION@@AAHAAPAVCGetBackData@@@Z PROC ; CMap<int,int,CGetBackData *,CGetBackData *>::GetNextAssoc, COMDAT
; _this$ = ecx

; 1640 : {

  00000	55		 push	 ebp
  00001	8b ec		 mov	 ebp, esp
  00003	53		 push	 ebx
  00004	56		 push	 esi
  00005	57		 push	 edi
  00006	8b f9		 mov	 edi, ecx

; 1641 : 	ASSERT_VALID(this);
; 1642 : 	ENSURE(m_pHashTable != NULL);  // never call on empty map

  00008	8b 5f 04	 mov	 ebx, DWORD PTR [edi+4]
  0000b	85 db		 test	 ebx, ebx
  0000d	74 6b		 je	 SHORT $LN37@GetNextAss

; 1643 : 
; 1644 : 	CAssoc* pAssocRet = (CAssoc*)rNextPosition;

  0000f	8b 75 08	 mov	 esi, DWORD PTR _rNextPosition$[ebp]
  00012	8b 36		 mov	 esi, DWORD PTR [esi]

; 1645 : 	ENSURE(pAssocRet != NULL);

  00014	85 f6		 test	 esi, esi
  00016	74 62		 je	 SHORT $LN37@GetNextAss

; 1646 : 
; 1647 : 	if (pAssocRet == (CAssoc*) BEFORE_START_POSITION)

  00018	83 fe ff	 cmp	 esi, -1
  0001b	75 1b		 jne	 SHORT $LN12@GetNextAss

; 1648 : 	{
; 1649 : 		// find the first association
; 1650 : 		for (UINT nBucket = 0; nBucket < m_nHashTableSize; nBucket++)

  0001d	8b 57 08	 mov	 edx, DWORD PTR [edi+8]
  00020	33 c9		 xor	 ecx, ecx
  00022	85 d2		 test	 edx, edx
  00024	74 12		 je	 SHORT $LN12@GetNextAss
  00026	8b c3		 mov	 eax, ebx
$LL10@GetNextAss:

; 1651 : 		{
; 1652 : 			if ((pAssocRet = m_pHashTable[nBucket]) != NULL)

  00028	8b 30		 mov	 esi, DWORD PTR [eax]
  0002a	85 f6		 test	 esi, esi
  0002c	75 0a		 jne	 SHORT $LN12@GetNextAss

; 1648 : 	{
; 1649 : 		// find the first association
; 1650 : 		for (UINT nBucket = 0; nBucket < m_nHashTableSize; nBucket++)

  0002e	41		 inc	 ecx
  0002f	83 c0 04	 add	 eax, 4
  00032	3b ca		 cmp	 ecx, edx
  00034	73 44		 jae	 SHORT $LN37@GetNextAss
  00036	eb f0		 jmp	 SHORT $LL10@GetNextAss
$LN12@GetNextAss:

; 1658 : 	}
; 1659 : 
; 1660 : 	// find next association
; 1661 : 	ASSERT(AfxIsValidAddress(pAssocRet, sizeof(CAssoc)));
; 1662 : 	CAssoc* pAssocNext;
; 1663 : 	if ((pAssocNext = pAssocRet->pNext) == NULL)

  00038	8b 4e 08	 mov	 ecx, DWORD PTR [esi+8]
  0003b	85 c9		 test	 ecx, ecx
  0003d	75 20		 jne	 SHORT $LN38@GetNextAss

; 1664 : 	{
; 1665 : 		// go to next bucket
; 1666 : 		for (UINT nBucket = (pAssocRet->nHashValue % m_nHashTableSize) + 1;

  0003f	8b 7f 08	 mov	 edi, DWORD PTR [edi+8]
  00042	33 d2		 xor	 edx, edx
  00044	8b 46 0c	 mov	 eax, DWORD PTR [esi+12]
  00047	f7 f7		 div	 edi
  00049	42		 inc	 edx

; 1667 : 		  nBucket < m_nHashTableSize; nBucket++)

  0004a	3b d7		 cmp	 edx, edi
  0004c	73 11		 jae	 SHORT $LN38@GetNextAss

; 1668 : 			if ((pAssocNext = m_pHashTable[nBucket]) != NULL)

  0004e	8d 04 93	 lea	 eax, DWORD PTR [ebx+edx*4]
$LL16@GetNextAss:
  00051	8b 08		 mov	 ecx, DWORD PTR [eax]
  00053	85 c9		 test	 ecx, ecx
  00055	75 08		 jne	 SHORT $LN38@GetNextAss

; 1667 : 		  nBucket < m_nHashTableSize; nBucket++)

  00057	42		 inc	 edx
  00058	83 c0 04	 add	 eax, 4
  0005b	3b d7		 cmp	 edx, edi
  0005d	72 f2		 jb	 SHORT $LL16@GetNextAss
$LN38@GetNextAss:

; 1669 : 				break;
; 1670 : 	}
; 1671 : 
; 1672 : 	rNextPosition = (POSITION) pAssocNext;

  0005f	8b 45 08	 mov	 eax, DWORD PTR _rNextPosition$[ebp]

; 1673 : 
; 1674 : 	// fill in return data
; 1675 : 	rKey = pAssocRet->key;
; 1676 : 	rValue = pAssocRet->value;
; 1677 : }

  00062	5f		 pop	 edi
  00063	89 08		 mov	 DWORD PTR [eax], ecx
  00065	8b 45 0c	 mov	 eax, DWORD PTR _rKey$[ebp]
  00068	8b 0e		 mov	 ecx, DWORD PTR [esi]
  0006a	89 08		 mov	 DWORD PTR [eax], ecx
  0006c	8b 45 10	 mov	 eax, DWORD PTR _rValue$[ebp]
  0006f	8b 4e 04	 mov	 ecx, DWORD PTR [esi+4]
  00072	5e		 pop	 esi
  00073	5b		 pop	 ebx
  00074	89 08		 mov	 DWORD PTR [eax], ecx
  00076	5d		 pop	 ebp
  00077	c2 0c 00	 ret	 12			; 0000000cH
$LN37@GetNextAss:

; 1653 : 			{
; 1654 : 				break;
; 1655 : 			}
; 1656 : 		}
; 1657 : 		ENSURE(pAssocRet != NULL);  // must find something

  0007a	e8 00 00 00 00	 call	 ?AfxThrowInvalidArgException@@YGXXZ ; AfxThrowInvalidArgException
$LN39@GetNextAss:
  0007f	cc		 int	 3
?GetNextAssoc@?$CMap@HHPAVCGetBackData@@PAV1@@@QBEXAAPAU__POSITION@@AAHAAPAVCGetBackData@@@Z ENDP ; CMap<int,int,CGetBackData *,CGetBackData *>::GetNextAssoc
_TEXT	ENDS
; Function compile flags: /Ogtp
; File C:\Program Files (x86)\Microsoft Visual Studio\2019\Community\VC\Tools\MSVC\14.29.30133\atlmfc\include\afxtempl.h
;	COMDAT ?RemoveAll@?$CMap@HHPAVCGetBackData@@PAV1@@@QAEXXZ
_TEXT	SEGMENT
?RemoveAll@?$CMap@HHPAVCGetBackData@@PAV1@@@QAEXXZ PROC	; CMap<int,int,CGetBackData *,CGetBackData *>::RemoveAll, COMDAT
; _this$ = ecx

; 1443 : {

  00000	56		 push	 esi
  00001	8b f1		 mov	 esi, ecx

; 1444 : 	ASSERT_VALID(this);
; 1445 : 
; 1446 : 	if (m_pHashTable != NULL)

  00003	8b 46 04	 mov	 eax, DWORD PTR [esi+4]
  00006	85 c0		 test	 eax, eax
  00008	74 10		 je	 SHORT $LN8@RemoveAll

; 1447 : 	{
; 1448 : 		// destroy elements (values and keys)
; 1449 : 		for (UINT nHash = 0; nHash < m_nHashTableSize; nHash++)
; 1450 : 		{
; 1451 : 			CAssoc* pAssoc;
; 1452 : 			for (pAssoc = m_pHashTable[nHash]; pAssoc != NULL;
; 1453 : 			  pAssoc = pAssoc->pNext)
; 1454 : 			{
; 1455 : 				pAssoc->CAssoc::~CAssoc();
; 1456 : 			}
; 1457 : 		}
; 1458 : 
; 1459 : 		// free hash table
; 1460 : 		delete[] m_pHashTable;

  0000a	50		 push	 eax
  0000b	e8 00 00 00 00	 call	 ??_V@YAXPAX@Z		; operator delete[]
  00010	83 c4 04	 add	 esp, 4

; 1461 : 		m_pHashTable = NULL;

  00013	c7 46 04 00 00
	00 00		 mov	 DWORD PTR [esi+4], 0
$LN8@RemoveAll:

; 1462 : 	}
; 1463 : 
; 1464 : 	m_nCount = 0;
; 1465 : 	m_pFreeList = NULL;
; 1466 : 	m_pBlocks->FreeDataChain();

  0001a	8b 4e 14	 mov	 ecx, DWORD PTR [esi+20]
  0001d	c7 46 0c 00 00
	00 00		 mov	 DWORD PTR [esi+12], 0
  00024	c7 46 10 00 00
	00 00		 mov	 DWORD PTR [esi+16], 0
  0002b	e8 00 00 00 00	 call	 ?FreeDataChain@CPlex@@QAEXXZ ; CPlex::FreeDataChain

; 1467 : 	m_pBlocks = NULL;

  00030	c7 46 14 00 00
	00 00		 mov	 DWORD PTR [esi+20], 0
  00037	5e		 pop	 esi

; 1468 : }

  00038	c3		 ret	 0
?RemoveAll@?$CMap@HHPAVCGetBackData@@PAV1@@@QAEXXZ ENDP	; CMap<int,int,CGetBackData *,CGetBackData *>::RemoveAll
_TEXT	ENDS
; Function compile flags: /Ogtp
; File C:\Program Files (x86)\Microsoft Visual Studio\2019\Community\VC\Tools\MSVC\14.29.30133\atlmfc\include\afxtempl.h
;	COMDAT ?RemoveKey@?$CMap@HHPAVCGetBackData@@PAV1@@@QAEHH@Z
_TEXT	SEGMENT
_key$ = 8						; size = 4
?RemoveKey@?$CMap@HHPAVCGetBackData@@PAV1@@@QAEHH@Z PROC ; CMap<int,int,CGetBackData *,CGetBackData *>::RemoveKey, COMDAT
; _this$ = ecx

; 1611 : {

  00000	55		 push	 ebp
  00001	8b ec		 mov	 ebp, esp
  00003	53		 push	 ebx
  00004	56		 push	 esi
  00005	8b f1		 mov	 esi, ecx
  00007	57		 push	 edi

; 1612 : 	ASSERT_VALID(this);
; 1613 : 
; 1614 : 	if (m_pHashTable == NULL)

  00008	83 7e 04 00	 cmp	 DWORD PTR [esi+4], 0
  0000c	74 49		 je	 SHORT $LN48@RemoveKey

; 165  : 	ldiv_t HashVal = ldiv((long)(ARG_KEY)key, 127773);

  0000e	8b 5d 08	 mov	 ebx, DWORD PTR _key$[ebp]
  00011	b9 1d f3 01 00	 mov	 ecx, 127773		; 0001f31dH
  00016	8b c3		 mov	 eax, ebx
  00018	99		 cdq
  00019	f7 f9		 idiv	 ecx

; 166  : 	HashVal.rem = 16807 * HashVal.rem - 2836 * HashVal.quot;

  0001b	69 c0 14 0b 00
	00		 imul	 eax, eax, 2836
  00021	69 ca a7 41 00
	00		 imul	 ecx, edx, 16807
  00027	2b c8		 sub	 ecx, eax

; 1615 : 		return FALSE;  // nothing in the table
; 1616 : 
; 1617 : 	UINT nHashValue;
; 1618 : 	CAssoc** ppAssocPrev;
; 1619 : 	nHashValue = HashKey<ARG_KEY>(key);
; 1620 : 	ppAssocPrev = &m_pHashTable[nHashValue%m_nHashTableSize];

  00029	8d b9 ff ff ff
	7f		 lea	 edi, DWORD PTR [ecx+2147483647]
  0002f	0f 49 f9	 cmovns	 edi, ecx
  00032	33 d2		 xor	 edx, edx
  00034	8b c7		 mov	 eax, edi
  00036	f7 76 08	 div	 DWORD PTR [esi+8]
  00039	8b 46 04	 mov	 eax, DWORD PTR [esi+4]
  0003c	8d 14 90	 lea	 edx, DWORD PTR [eax+edx*4]

; 1621 : 
; 1622 : 	CAssoc* pAssoc;
; 1623 : 	for (pAssoc = *ppAssocPrev; pAssoc != NULL; pAssoc = pAssoc->pNext)

  0003f	8b 02		 mov	 eax, DWORD PTR [edx]
  00041	85 c0		 test	 eax, eax
  00043	74 12		 je	 SHORT $LN48@RemoveKey
$LL4@RemoveKey:

; 1624 : 	{
; 1625 : 		if ((pAssoc->nHashValue == nHashValue) && CompareElements(&pAssoc->key, &key))

  00045	39 78 0c	 cmp	 DWORD PTR [eax+12], edi
  00048	75 04		 jne	 SHORT $LN6@RemoveKey

; 156  : 	return *pElement1 == *pElement2;

  0004a	39 18		 cmp	 DWORD PTR [eax], ebx

; 1624 : 	{
; 1625 : 		if ((pAssoc->nHashValue == nHashValue) && CompareElements(&pAssoc->key, &key))

  0004c	74 12		 je	 SHORT $LN36@RemoveKey
$LN6@RemoveKey:

; 1629 : 			FreeAssoc(pAssoc);
; 1630 : 			return TRUE;
; 1631 : 		}
; 1632 : 		ppAssocPrev = &pAssoc->pNext;

  0004e	8d 50 08	 lea	 edx, DWORD PTR [eax+8]
  00051	8b 02		 mov	 eax, DWORD PTR [edx]
  00053	85 c0		 test	 eax, eax
  00055	75 ee		 jne	 SHORT $LL4@RemoveKey
$LN48@RemoveKey:
  00057	5f		 pop	 edi

; 1633 : 	}
; 1634 : 	return FALSE;  // not found
; 1635 : }

  00058	5e		 pop	 esi
  00059	33 c0		 xor	 eax, eax
  0005b	5b		 pop	 ebx
  0005c	5d		 pop	 ebp
  0005d	c2 04 00	 ret	 4
$LN36@RemoveKey:

; 1626 : 		{
; 1627 : 			// remove it
; 1628 : 			*ppAssocPrev = pAssoc->pNext;  // remove from list

  00060	8b 48 08	 mov	 ecx, DWORD PTR [eax+8]
  00063	89 0a		 mov	 DWORD PTR [edx], ecx

; 1518 : 	pAssoc->pNext = m_pFreeList;

  00065	8b 4e 10	 mov	 ecx, DWORD PTR [esi+16]
  00068	89 48 08	 mov	 DWORD PTR [eax+8], ecx

; 1519 : 	m_pFreeList = pAssoc;
; 1520 : 	m_nCount--;

  0006b	83 46 0c ff	 add	 DWORD PTR [esi+12], -1
  0006f	89 46 10	 mov	 DWORD PTR [esi+16], eax

; 1521 : 	ASSERT(m_nCount >= 0);  // make sure we don't underflow
; 1522 : 
; 1523 : 	// if no more elements, cleanup completely
; 1524 : 	if (m_nCount == 0)

  00072	75 34		 jne	 SHORT $LN21@RemoveKey

; 1446 : 	if (m_pHashTable != NULL)

  00074	8b 46 04	 mov	 eax, DWORD PTR [esi+4]
  00077	85 c0		 test	 eax, eax
  00079	74 10		 je	 SHORT $LN30@RemoveKey

; 1447 : 	{
; 1448 : 		// destroy elements (values and keys)
; 1449 : 		for (UINT nHash = 0; nHash < m_nHashTableSize; nHash++)
; 1450 : 		{
; 1451 : 			CAssoc* pAssoc;
; 1452 : 			for (pAssoc = m_pHashTable[nHash]; pAssoc != NULL;
; 1453 : 			  pAssoc = pAssoc->pNext)
; 1454 : 			{
; 1455 : 				pAssoc->CAssoc::~CAssoc();
; 1456 : 			}
; 1457 : 		}
; 1458 : 
; 1459 : 		// free hash table
; 1460 : 		delete[] m_pHashTable;

  0007b	50		 push	 eax
  0007c	e8 00 00 00 00	 call	 ??_V@YAXPAX@Z		; operator delete[]
  00081	83 c4 04	 add	 esp, 4

; 1461 : 		m_pHashTable = NULL;

  00084	c7 46 04 00 00
	00 00		 mov	 DWORD PTR [esi+4], 0
$LN30@RemoveKey:

; 1462 : 	}
; 1463 : 
; 1464 : 	m_nCount = 0;
; 1465 : 	m_pFreeList = NULL;
; 1466 : 	m_pBlocks->FreeDataChain();

  0008b	8b 4e 14	 mov	 ecx, DWORD PTR [esi+20]
  0008e	c7 46 0c 00 00
	00 00		 mov	 DWORD PTR [esi+12], 0
  00095	c7 46 10 00 00
	00 00		 mov	 DWORD PTR [esi+16], 0
  0009c	e8 00 00 00 00	 call	 ?FreeDataChain@CPlex@@QAEXXZ ; CPlex::FreeDataChain

; 1467 : 	m_pBlocks = NULL;

  000a1	c7 46 14 00 00
	00 00		 mov	 DWORD PTR [esi+20], 0
$LN21@RemoveKey:
  000a8	5f		 pop	 edi

; 1633 : 	}
; 1634 : 	return FALSE;  // not found
; 1635 : }

  000a9	5e		 pop	 esi
  000aa	b8 01 00 00 00	 mov	 eax, 1
  000af	5b		 pop	 ebx
  000b0	5d		 pop	 ebp
  000b1	c2 04 00	 ret	 4
?RemoveKey@?$CMap@HHPAVCGetBackData@@PAV1@@@QAEHH@Z ENDP ; CMap<int,int,CGetBackData *,CGetBackData *>::RemoveKey
_TEXT	ENDS
; Function compile flags: /Ogtp
; File C:\Program Files (x86)\Microsoft Visual Studio\2019\Community\VC\Tools\MSVC\14.29.30133\atlmfc\include\afxtempl.h
;	COMDAT ?SetAt@?$CMap@HHPAVCGetBackData@@PAV1@@@QAEXHPAVCGetBackData@@@Z
_TEXT	SEGMENT
_nHashBucket$1 = -8					; size = 4
_nHashValue$2 = -4					; size = 4
_key$ = 8						; size = 4
_newValue$ = 12						; size = 4
?SetAt@?$CMap@HHPAVCGetBackData@@PAV1@@@QAEXHPAVCGetBackData@@@Z PROC ; CMap<int,int,CGetBackData *,CGetBackData *>::SetAt, COMDAT
; _this$ = ecx

; 1350 : 	{ (*this)[key] = newValue; }

  00000	55		 push	 ebp
  00001	8b ec		 mov	 ebp, esp
  00003	83 ec 08	 sub	 esp, 8

; 1590 : 	if ((pAssoc = GetAssocAt(key, nHashBucket, nHashValue)) == NULL)

  00006	8d 45 fc	 lea	 eax, DWORD PTR _nHashValue$2[ebp]

; 1350 : 	{ (*this)[key] = newValue; }

  00009	53		 push	 ebx

; 1590 : 	if ((pAssoc = GetAssocAt(key, nHashBucket, nHashValue)) == NULL)

  0000a	8b 5d 08	 mov	 ebx, DWORD PTR _key$[ebp]

; 1350 : 	{ (*this)[key] = newValue; }

  0000d	56		 push	 esi

; 1590 : 	if ((pAssoc = GetAssocAt(key, nHashBucket, nHashValue)) == NULL)

  0000e	50		 push	 eax
  0000f	8d 45 f8	 lea	 eax, DWORD PTR _nHashBucket$1[ebp]

; 1350 : 	{ (*this)[key] = newValue; }

  00012	8b f1		 mov	 esi, ecx

; 1590 : 	if ((pAssoc = GetAssocAt(key, nHashBucket, nHashValue)) == NULL)

  00014	50		 push	 eax
  00015	53		 push	 ebx
  00016	e8 00 00 00 00	 call	 ?GetAssocAt@?$CMap@HHPAVCGetBackData@@PAV1@@@IBEPAVCAssoc@1@HAAI0@Z ; CMap<int,int,CGetBackData *,CGetBackData *>::GetAssocAt
  0001b	8b d0		 mov	 edx, eax
  0001d	85 d2		 test	 edx, edx
  0001f	0f 85 cd 00 00
	00		 jne	 $LN7@SetAt

; 1591 : 	{
; 1592 : 		if (m_pHashTable == NULL)

  00025	8b 46 04	 mov	 eax, DWORD PTR [esi+4]
  00028	85 c0		 test	 eax, eax
  0002a	75 4c		 jne	 SHORT $LN42@SetAt

; 1593 : 			InitHashTable(m_nHashTableSize);

  0002c	57		 push	 edi
  0002d	8b 7e 08	 mov	 edi, DWORD PTR [esi+8]

; 1434 : 		m_pHashTable = new CAssoc* [nHashSize];

  00030	33 c9		 xor	 ecx, ecx
  00032	8b c7		 mov	 eax, edi
  00034	ba 04 00 00 00	 mov	 edx, 4
  00039	f7 e2		 mul	 edx
  0003b	0f 90 c1	 seto	 cl
  0003e	f7 d9		 neg	 ecx
  00040	0b c8		 or	 ecx, eax
  00042	51		 push	 ecx
  00043	e8 00 00 00 00	 call	 ??_U@YAPAXI@Z		; operator new[]
  00048	83 c4 04	 add	 esp, 4
  0004b	89 46 04	 mov	 DWORD PTR [esi+4], eax

; 1435 : 		ENSURE(m_pHashTable != NULL);

  0004e	85 c0		 test	 eax, eax
  00050	0f 84 aa 00 00
	00		 je	 $LN39@SetAt

; 1436 : 		memset(m_pHashTable, 0, sizeof(CAssoc*) * nHashSize);

  00056	8d 0c bd 00 00
	00 00		 lea	 ecx, DWORD PTR [edi*4]
  0005d	51		 push	 ecx
  0005e	6a 00		 push	 0
  00060	50		 push	 eax
  00061	e8 00 00 00 00	 call	 _memset

; 1437 : 	}
; 1438 : 	m_nHashTableSize = nHashSize;

  00066	8b 46 04	 mov	 eax, DWORD PTR [esi+4]
  00069	83 c4 0c	 add	 esp, 12			; 0000000cH
  0006c	89 7e 08	 mov	 DWORD PTR [esi+8], edi
  0006f	5f		 pop	 edi

; 1595 : 		ENSURE(m_pHashTable);

  00070	85 c0		 test	 eax, eax
  00072	0f 84 88 00 00
	00		 je	 $LN39@SetAt
$LN42@SetAt:

; 1481 : 	if (m_pFreeList == NULL)

  00078	83 7e 10 00	 cmp	 DWORD PTR [esi+16], 0
  0007c	75 34		 jne	 SHORT $LN26@SetAt

; 1482 : 	{
; 1483 : 		// add another block
; 1484 : 		CPlex* newBlock = CPlex::Create(m_pBlocks, m_nBlockSize, sizeof(CMap::CAssoc));

  0007e	6a 10		 push	 16			; 00000010H
  00080	ff 76 18	 push	 DWORD PTR [esi+24]
  00083	8d 46 14	 lea	 eax, DWORD PTR [esi+20]
  00086	50		 push	 eax
  00087	e8 00 00 00 00	 call	 ?Create@CPlex@@SGPAU1@AAPAU1@II@Z ; CPlex::Create

; 1485 : 		// chain them into free list
; 1486 : 		CMap::CAssoc* pAssoc = (CMap::CAssoc*) newBlock->data();
; 1487 : 		// free in reverse order to make it easier to debug
; 1488 : 		pAssoc += m_nBlockSize - 1;

  0008c	8b 56 18	 mov	 edx, DWORD PTR [esi+24]
  0008f	83 c0 08	 add	 eax, 8
  00092	8b ca		 mov	 ecx, edx
  00094	c1 e1 04	 shl	 ecx, 4
  00097	83 c1 f0	 add	 ecx, -16		; fffffff0H
  0009a	03 c8		 add	 ecx, eax

; 1489 : 		for (INT_PTR i = m_nBlockSize-1; i >= 0; i--, pAssoc--)

  0009c	83 c2 ff	 add	 edx, -1
  0009f	78 11		 js	 SHORT $LN26@SetAt
$LL23@SetAt:

; 1490 : 		{
; 1491 : 			pAssoc->pNext = m_pFreeList;

  000a1	8b 46 10	 mov	 eax, DWORD PTR [esi+16]
  000a4	89 41 08	 mov	 DWORD PTR [ecx+8], eax

; 1492 : 			m_pFreeList = pAssoc;

  000a7	89 4e 10	 mov	 DWORD PTR [esi+16], ecx
  000aa	83 e9 10	 sub	 ecx, 16			; 00000010H
  000ad	83 ea 01	 sub	 edx, 1
  000b0	79 ef		 jns	 SHORT $LL23@SetAt
$LN26@SetAt:

; 1493 : 		}
; 1494 : 	}
; 1495 : 	ENSURE(m_pFreeList != NULL);  // we must have something

  000b2	8b 56 10	 mov	 edx, DWORD PTR [esi+16]
  000b5	85 d2		 test	 edx, edx
  000b7	74 47		 je	 SHORT $LN39@SetAt

; 1496 : 
; 1497 : 	CMap::CAssoc* pAssoc = m_pFreeList;
; 1498 : 
; 1499 : 	// zero the memory
; 1500 : 	CMap::CAssoc* pTemp = pAssoc->pNext;

  000b9	8b 42 08	 mov	 eax, DWORD PTR [edx+8]
  000bc	0f 57 c0	 xorps	 xmm0, xmm0

; 1501 : 	memset( pAssoc, 0, sizeof(CMap::CAssoc) );

  000bf	0f 11 02	 movups	 XMMWORD PTR [edx], xmm0

; 1502 : 	pAssoc->pNext = pTemp;

  000c2	89 42 08	 mov	 DWORD PTR [edx+8], eax

; 1503 : 
; 1504 : 	m_pFreeList = m_pFreeList->pNext;

  000c5	8b 46 10	 mov	 eax, DWORD PTR [esi+16]
  000c8	8b 40 08	 mov	 eax, DWORD PTR [eax+8]

; 1505 : 	m_nCount++;

  000cb	ff 46 0c	 inc	 DWORD PTR [esi+12]
  000ce	89 46 10	 mov	 DWORD PTR [esi+16], eax

; 1598 : 		pAssoc->nHashValue = nHashValue;

  000d1	8b 45 fc	 mov	 eax, DWORD PTR _nHashValue$2[ebp]
  000d4	89 42 0c	 mov	 DWORD PTR [edx+12], eax

; 1599 : 		//'pAssoc->value' is a constructed object, nothing more
; 1600 : 
; 1601 : 		// put into hash table
; 1602 : 		pAssoc->pNext = m_pHashTable[nHashBucket];

  000d7	8b 45 f8	 mov	 eax, DWORD PTR _nHashBucket$1[ebp]

; 1256 : 		CPair( ARG_KEY keyval ) : key( keyval )	{}

  000da	89 1a		 mov	 DWORD PTR [edx], ebx

; 1602 : 		pAssoc->pNext = m_pHashTable[nHashBucket];

  000dc	8d 0c 85 00 00
	00 00		 lea	 ecx, DWORD PTR [eax*4]
  000e3	8b 46 04	 mov	 eax, DWORD PTR [esi+4]
  000e6	8b 04 01	 mov	 eax, DWORD PTR [ecx+eax]
  000e9	89 42 08	 mov	 DWORD PTR [edx+8], eax

; 1603 : 		m_pHashTable[nHashBucket] = pAssoc;

  000ec	8b 46 04	 mov	 eax, DWORD PTR [esi+4]
  000ef	89 14 01	 mov	 DWORD PTR [ecx+eax], edx
$LN7@SetAt:

; 1350 : 	{ (*this)[key] = newValue; }

  000f2	8b 45 0c	 mov	 eax, DWORD PTR _newValue$[ebp]
  000f5	5e		 pop	 esi
  000f6	89 42 04	 mov	 DWORD PTR [edx+4], eax
  000f9	5b		 pop	 ebx
  000fa	8b e5		 mov	 esp, ebp
  000fc	5d		 pop	 ebp
  000fd	c2 08 00	 ret	 8
$LN39@SetAt:

; 1495 : 	ENSURE(m_pFreeList != NULL);  // we must have something

  00100	e8 00 00 00 00	 call	 ?AfxThrowInvalidArgException@@YGXXZ ; AfxThrowInvalidArgException
$LN40@SetAt:
  00105	cc		 int	 3
?SetAt@?$CMap@HHPAVCGetBackData@@PAV1@@@QAEXHPAVCGetBackData@@@Z ENDP ; CMap<int,int,CGetBackData *,CGetBackData *>::SetAt
_TEXT	ENDS
; Function compile flags: /Ogtp
; File C:\Program Files (x86)\Microsoft Visual Studio\2019\Community\VC\Tools\MSVC\14.29.30133\atlmfc\include\afxtempl.h
;	COMDAT ??A?$CMap@HHPAVCGetBackData@@PAV1@@@QAEAAPAVCGetBackData@@H@Z
_TEXT	SEGMENT
_nHashBucket$ = -8					; size = 4
_nHashValue$ = -4					; size = 4
_key$ = 8						; size = 4
??A?$CMap@HHPAVCGetBackData@@PAV1@@@QAEAAPAVCGetBackData@@H@Z PROC ; CMap<int,int,CGetBackData *,CGetBackData *>::operator[], COMDAT
; _this$ = ecx

; 1585 : {

  00000	55		 push	 ebp
  00001	8b ec		 mov	 ebp, esp
  00003	83 ec 08	 sub	 esp, 8

; 1586 : 	ASSERT_VALID(this);
; 1587 : 
; 1588 : 	UINT nHashBucket, nHashValue;
; 1589 : 	CAssoc* pAssoc;
; 1590 : 	if ((pAssoc = GetAssocAt(key, nHashBucket, nHashValue)) == NULL)

  00006	8d 45 fc	 lea	 eax, DWORD PTR _nHashValue$[ebp]
  00009	53		 push	 ebx
  0000a	8b 5d 08	 mov	 ebx, DWORD PTR _key$[ebp]
  0000d	56		 push	 esi
  0000e	50		 push	 eax
  0000f	8d 45 f8	 lea	 eax, DWORD PTR _nHashBucket$[ebp]
  00012	8b f1		 mov	 esi, ecx
  00014	50		 push	 eax
  00015	53		 push	 ebx
  00016	e8 00 00 00 00	 call	 ?GetAssocAt@?$CMap@HHPAVCGetBackData@@PAV1@@@IBEPAVCAssoc@1@HAAI0@Z ; CMap<int,int,CGetBackData *,CGetBackData *>::GetAssocAt
  0001b	8b d0		 mov	 edx, eax
  0001d	85 d2		 test	 edx, edx
  0001f	0f 85 cd 00 00
	00		 jne	 $LN5@operator

; 1591 : 	{
; 1592 : 		if (m_pHashTable == NULL)

  00025	8b 46 04	 mov	 eax, DWORD PTR [esi+4]
  00028	85 c0		 test	 eax, eax
  0002a	75 4c		 jne	 SHORT $LN39@operator

; 1593 : 			InitHashTable(m_nHashTableSize);

  0002c	57		 push	 edi
  0002d	8b 7e 08	 mov	 edi, DWORD PTR [esi+8]

; 1434 : 		m_pHashTable = new CAssoc* [nHashSize];

  00030	33 c9		 xor	 ecx, ecx
  00032	8b c7		 mov	 eax, edi
  00034	ba 04 00 00 00	 mov	 edx, 4
  00039	f7 e2		 mul	 edx
  0003b	0f 90 c1	 seto	 cl
  0003e	f7 d9		 neg	 ecx
  00040	0b c8		 or	 ecx, eax
  00042	51		 push	 ecx
  00043	e8 00 00 00 00	 call	 ??_U@YAPAXI@Z		; operator new[]
  00048	83 c4 04	 add	 esp, 4
  0004b	89 46 04	 mov	 DWORD PTR [esi+4], eax

; 1435 : 		ENSURE(m_pHashTable != NULL);

  0004e	85 c0		 test	 eax, eax
  00050	0f 84 a7 00 00
	00		 je	 $LN36@operator

; 1436 : 		memset(m_pHashTable, 0, sizeof(CAssoc*) * nHashSize);

  00056	8d 0c bd 00 00
	00 00		 lea	 ecx, DWORD PTR [edi*4]
  0005d	51		 push	 ecx
  0005e	6a 00		 push	 0
  00060	50		 push	 eax
  00061	e8 00 00 00 00	 call	 _memset

; 1437 : 	}
; 1438 : 	m_nHashTableSize = nHashSize;

  00066	8b 46 04	 mov	 eax, DWORD PTR [esi+4]
  00069	83 c4 0c	 add	 esp, 12			; 0000000cH
  0006c	89 7e 08	 mov	 DWORD PTR [esi+8], edi
  0006f	5f		 pop	 edi

; 1594 : 
; 1595 : 		ENSURE(m_pHashTable);

  00070	85 c0		 test	 eax, eax
  00072	0f 84 85 00 00
	00		 je	 $LN36@operator
$LN39@operator:

; 1481 : 	if (m_pFreeList == NULL)

  00078	83 7e 10 00	 cmp	 DWORD PTR [esi+16], 0
  0007c	75 34		 jne	 SHORT $LN24@operator

; 1482 : 	{
; 1483 : 		// add another block
; 1484 : 		CPlex* newBlock = CPlex::Create(m_pBlocks, m_nBlockSize, sizeof(CMap::CAssoc));

  0007e	6a 10		 push	 16			; 00000010H
  00080	ff 76 18	 push	 DWORD PTR [esi+24]
  00083	8d 46 14	 lea	 eax, DWORD PTR [esi+20]
  00086	50		 push	 eax
  00087	e8 00 00 00 00	 call	 ?Create@CPlex@@SGPAU1@AAPAU1@II@Z ; CPlex::Create

; 1485 : 		// chain them into free list
; 1486 : 		CMap::CAssoc* pAssoc = (CMap::CAssoc*) newBlock->data();
; 1487 : 		// free in reverse order to make it easier to debug
; 1488 : 		pAssoc += m_nBlockSize - 1;

  0008c	8b 56 18	 mov	 edx, DWORD PTR [esi+24]
  0008f	83 c0 08	 add	 eax, 8
  00092	8b ca		 mov	 ecx, edx
  00094	c1 e1 04	 shl	 ecx, 4
  00097	83 c1 f0	 add	 ecx, -16		; fffffff0H
  0009a	03 c8		 add	 ecx, eax

; 1489 : 		for (INT_PTR i = m_nBlockSize-1; i >= 0; i--, pAssoc--)

  0009c	83 c2 ff	 add	 edx, -1
  0009f	78 11		 js	 SHORT $LN24@operator
$LL21@operator:

; 1490 : 		{
; 1491 : 			pAssoc->pNext = m_pFreeList;

  000a1	8b 46 10	 mov	 eax, DWORD PTR [esi+16]
  000a4	89 41 08	 mov	 DWORD PTR [ecx+8], eax

; 1492 : 			m_pFreeList = pAssoc;

  000a7	89 4e 10	 mov	 DWORD PTR [esi+16], ecx
  000aa	83 e9 10	 sub	 ecx, 16			; 00000010H
  000ad	83 ea 01	 sub	 edx, 1
  000b0	79 ef		 jns	 SHORT $LL21@operator
$LN24@operator:

; 1493 : 		}
; 1494 : 	}
; 1495 : 	ENSURE(m_pFreeList != NULL);  // we must have something

  000b2	8b 56 10	 mov	 edx, DWORD PTR [esi+16]
  000b5	85 d2		 test	 edx, edx
  000b7	74 44		 je	 SHORT $LN36@operator

; 1496 : 
; 1497 : 	CMap::CAssoc* pAssoc = m_pFreeList;
; 1498 : 
; 1499 : 	// zero the memory
; 1500 : 	CMap::CAssoc* pTemp = pAssoc->pNext;

  000b9	8b 42 08	 mov	 eax, DWORD PTR [edx+8]
  000bc	0f 57 c0	 xorps	 xmm0, xmm0

; 1501 : 	memset( pAssoc, 0, sizeof(CMap::CAssoc) );

  000bf	0f 11 02	 movups	 XMMWORD PTR [edx], xmm0

; 1502 : 	pAssoc->pNext = pTemp;

  000c2	89 42 08	 mov	 DWORD PTR [edx+8], eax

; 1503 : 
; 1504 : 	m_pFreeList = m_pFreeList->pNext;

  000c5	8b 46 10	 mov	 eax, DWORD PTR [esi+16]
  000c8	8b 40 08	 mov	 eax, DWORD PTR [eax+8]

; 1505 : 	m_nCount++;

  000cb	ff 46 0c	 inc	 DWORD PTR [esi+12]
  000ce	89 46 10	 mov	 DWORD PTR [esi+16], eax

; 1596 : 		// it doesn't exist, add a new Association
; 1597 : 		pAssoc = NewAssoc(key);
; 1598 : 		pAssoc->nHashValue = nHashValue;

  000d1	8b 45 fc	 mov	 eax, DWORD PTR _nHashValue$[ebp]
  000d4	89 42 0c	 mov	 DWORD PTR [edx+12], eax

; 1599 : 		//'pAssoc->value' is a constructed object, nothing more
; 1600 : 
; 1601 : 		// put into hash table
; 1602 : 		pAssoc->pNext = m_pHashTable[nHashBucket];

  000d7	8b 45 f8	 mov	 eax, DWORD PTR _nHashBucket$[ebp]

; 1256 : 		CPair( ARG_KEY keyval ) : key( keyval )	{}

  000da	89 1a		 mov	 DWORD PTR [edx], ebx

; 1599 : 		//'pAssoc->value' is a constructed object, nothing more
; 1600 : 
; 1601 : 		// put into hash table
; 1602 : 		pAssoc->pNext = m_pHashTable[nHashBucket];

  000dc	8d 0c 85 00 00
	00 00		 lea	 ecx, DWORD PTR [eax*4]
  000e3	8b 46 04	 mov	 eax, DWORD PTR [esi+4]
  000e6	8b 04 01	 mov	 eax, DWORD PTR [ecx+eax]
  000e9	89 42 08	 mov	 DWORD PTR [edx+8], eax

; 1603 : 		m_pHashTable[nHashBucket] = pAssoc;

  000ec	8b 46 04	 mov	 eax, DWORD PTR [esi+4]
  000ef	89 14 01	 mov	 DWORD PTR [ecx+eax], edx
$LN5@operator:

; 1604 : 	}
; 1605 : 	return pAssoc->value;  // return new reference

  000f2	5e		 pop	 esi
  000f3	8d 42 04	 lea	 eax, DWORD PTR [edx+4]
  000f6	5b		 pop	 ebx

; 1606 : }

  000f7	8b e5		 mov	 esp, ebp
  000f9	5d		 pop	 ebp
  000fa	c2 04 00	 ret	 4
$LN36@operator:

; 1495 : 	ENSURE(m_pFreeList != NULL);  // we must have something

  000fd	e8 00 00 00 00	 call	 ?AfxThrowInvalidArgException@@YGXXZ ; AfxThrowInvalidArgException
$LN37@operator:
  00102	cc		 int	 3
??A?$CMap@HHPAVCGetBackData@@PAV1@@@QAEAAPAVCGetBackData@@H@Z ENDP ; CMap<int,int,CGetBackData *,CGetBackData *>::operator[]
_TEXT	ENDS
; Function compile flags: /Ogtp
; File C:\Program Files (x86)\Microsoft Visual Studio\2019\Community\VC\Tools\MSVC\14.29.30133\atlmfc\include\afxtempl.h
;	COMDAT ?Lookup@?$CMap@HHPAVCGetBackData@@PAV1@@@QBEHHAAPAVCGetBackData@@@Z
_TEXT	SEGMENT
_nHashBucket$ = -8					; size = 4
_nHashValue$ = -4					; size = 4
_key$ = 8						; size = 4
_rValue$ = 12						; size = 4
?Lookup@?$CMap@HHPAVCGetBackData@@PAV1@@@QBEHHAAPAVCGetBackData@@@Z PROC ; CMap<int,int,CGetBackData *,CGetBackData *>::Lookup, COMDAT
; _this$ = ecx

; 1551 : {

  00000	55		 push	 ebp
  00001	8b ec		 mov	 ebp, esp
  00003	83 ec 08	 sub	 esp, 8

; 1552 : 	ASSERT_VALID(this);
; 1553 : 
; 1554 : 	UINT nHashBucket, nHashValue;
; 1555 : 	CAssoc* pAssoc = GetAssocAt(key, nHashBucket, nHashValue);

  00006	8d 45 fc	 lea	 eax, DWORD PTR _nHashValue$[ebp]
  00009	50		 push	 eax
  0000a	8d 45 f8	 lea	 eax, DWORD PTR _nHashBucket$[ebp]
  0000d	50		 push	 eax
  0000e	ff 75 08	 push	 DWORD PTR _key$[ebp]
  00011	e8 00 00 00 00	 call	 ?GetAssocAt@?$CMap@HHPAVCGetBackData@@PAV1@@@IBEPAVCAssoc@1@HAAI0@Z ; CMap<int,int,CGetBackData *,CGetBackData *>::GetAssocAt

; 1556 : 	if (pAssoc == NULL)

  00016	85 c0		 test	 eax, eax
  00018	75 06		 jne	 SHORT $LN2@Lookup

; 1561 : }

  0001a	8b e5		 mov	 esp, ebp
  0001c	5d		 pop	 ebp
  0001d	c2 08 00	 ret	 8
$LN2@Lookup:

; 1557 : 		return FALSE;  // not in map
; 1558 : 
; 1559 : 	rValue = pAssoc->value;

  00020	8b 48 04	 mov	 ecx, DWORD PTR [eax+4]
  00023	8b 45 0c	 mov	 eax, DWORD PTR _rValue$[ebp]
  00026	89 08		 mov	 DWORD PTR [eax], ecx

; 1560 : 	return TRUE;

  00028	b8 01 00 00 00	 mov	 eax, 1

; 1561 : }

  0002d	8b e5		 mov	 esp, ebp
  0002f	5d		 pop	 ebp
  00030	c2 08 00	 ret	 8
?Lookup@?$CMap@HHPAVCGetBackData@@PAV1@@@QBEHHAAPAVCGetBackData@@@Z ENDP ; CMap<int,int,CGetBackData *,CGetBackData *>::Lookup
_TEXT	ENDS
; Function compile flags: /Ogtp
; File C:\Program Files (x86)\Microsoft Visual Studio\2019\Community\VC\Tools\MSVC\14.29.30133\atlmfc\include\afxtempl.h
;	COMDAT ??0?$CMap@HHPAVCGetBackData@@PAV1@@@QAE@H@Z
_TEXT	SEGMENT
_nBlockSize$ = 8					; size = 4
??0?$CMap@HHPAVCGetBackData@@PAV1@@@QAE@H@Z PROC	; CMap<int,int,CGetBackData *,CGetBackData *>::CMap<int,int,CGetBackData *,CGetBackData *>, COMDAT
; _this$ = ecx

; 1403 : {

  00000	55		 push	 ebp
  00001	8b ec		 mov	 ebp, esp

; 1404 : 	ASSERT(nBlockSize > 0);
; 1405 : 
; 1406 : 	m_pHashTable = NULL;
; 1407 : 	m_nHashTableSize = 17;  // default size
; 1408 : 	m_nCount = 0;
; 1409 : 	m_pFreeList = NULL;
; 1410 : 	m_pBlocks = NULL;
; 1411 : 	m_nBlockSize = nBlockSize;

  00003	8b 45 08	 mov	 eax, DWORD PTR _nBlockSize$[ebp]
  00006	89 41 18	 mov	 DWORD PTR [ecx+24], eax

; 1412 : }

  00009	8b c1		 mov	 eax, ecx
  0000b	c7 01 00 00 00
	00		 mov	 DWORD PTR [ecx], OFFSET ??_7?$CMap@HHPAVCGetBackData@@PAV1@@@6B@
  00011	c7 41 04 00 00
	00 00		 mov	 DWORD PTR [ecx+4], 0
  00018	c7 41 08 11 00
	00 00		 mov	 DWORD PTR [ecx+8], 17	; 00000011H
  0001f	c7 41 0c 00 00
	00 00		 mov	 DWORD PTR [ecx+12], 0
  00026	c7 41 10 00 00
	00 00		 mov	 DWORD PTR [ecx+16], 0
  0002d	c7 41 14 00 00
	00 00		 mov	 DWORD PTR [ecx+20], 0
  00034	5d		 pop	 ebp
  00035	c2 04 00	 ret	 4
??0?$CMap@HHPAVCGetBackData@@PAV1@@@QAE@H@Z ENDP	; CMap<int,int,CGetBackData *,CGetBackData *>::CMap<int,int,CGetBackData *,CGetBackData *>
_TEXT	ENDS
; Function compile flags: /Ogtp
; File D:\git\src\IBK\IBK_DRFN\ProjSrc\SrcDrfn\Chart\MULTICHART\CondTarget.cpp
; File C:\Program Files (x86)\Microsoft Visual Studio\2019\Community\VC\Tools\MSVC\14.29.30133\atlmfc\include\cstringt.h
; File D:\git\src\IBK\IBK_DRFN\ProjSrc\SrcDrfn\Chart\MULTICHART\CondTarget.cpp
; File C:\Program Files (x86)\Microsoft Visual Studio\2019\Community\VC\Tools\MSVC\14.29.30133\atlmfc\include\cstringt.h
; File D:\git\src\IBK\IBK_DRFN\ProjSrc\SrcDrfn\Chart\MULTICHART\CondTarget.cpp
; File C:\Program Files (x86)\Microsoft Visual Studio\2019\Community\VC\Tools\MSVC\14.29.30133\atlmfc\include\cstringt.h
; File D:\git\src\IBK\IBK_DRFN\ProjSrc\SrcDrfn\Chart\MULTICHART\CondTarget.cpp
; File C:\Program Files (x86)\Microsoft Visual Studio\2019\Community\VC\Tools\MSVC\14.29.30133\atlmfc\include\afxcoll.inl
; File D:\git\src\IBK\IBK_DRFN\ProjSrc\SrcDrfn\Chart\MULTICHART\CondTarget.cpp
; File C:\Program Files (x86)\Microsoft Visual Studio\2019\Community\VC\Tools\MSVC\14.29.30133\atlmfc\include\atlsimpstr.h
; File D:\git\src\IBK\IBK_DRFN\ProjSrc\SrcDrfn\Chart\MULTICHART\CondTarget.cpp
; File C:\Program Files (x86)\Microsoft Visual Studio\2019\Community\VC\Tools\MSVC\14.29.30133\atlmfc\include\afxcoll.inl
; File D:\git\src\IBK\IBK_DRFN\ProjSrc\SrcDrfn\Chart\MULTICHART\CondTarget.cpp
; File C:\Program Files (x86)\Microsoft Visual Studio\2019\Community\VC\Tools\MSVC\14.29.30133\atlmfc\include\afxcoll.inl
; File D:\git\src\IBK\IBK_DRFN\ProjSrc\SrcDrfn\Chart\MULTICHART\CondTarget.cpp
; File C:\Program Files (x86)\Microsoft Visual Studio\2019\Community\VC\Tools\MSVC\14.29.30133\atlmfc\include\afxcoll.inl
; File D:\git\src\IBK\IBK_DRFN\ProjSrc\SrcDrfn\Chart\MULTICHART\CondTarget.cpp
; File C:\Program Files (x86)\Microsoft Visual Studio\2019\Community\VC\Tools\MSVC\14.29.30133\atlmfc\include\afxcoll.inl
; File C:\Program Files (x86)\Microsoft Visual Studio\2019\Community\VC\Tools\MSVC\14.29.30133\atlmfc\include\cstringt.h
; File D:\git\src\IBK\IBK_DRFN\ProjSrc\SrcDrfn\Chart\MULTICHART\CondTarget.cpp
; File C:\Program Files (x86)\Microsoft Visual Studio\2019\Community\VC\Tools\MSVC\14.29.30133\atlmfc\include\afxcoll.inl
; File D:\git\src\IBK\IBK_DRFN\ProjSrc\SrcDrfn\Chart\MULTICHART\CondTarget.cpp
; File C:\Program Files (x86)\Microsoft Visual Studio\2019\Community\VC\Tools\MSVC\14.29.30133\atlmfc\include\afxcoll.inl
; File D:\git\src\IBK\IBK_DRFN\ProjSrc\SrcDrfn\Chart\MULTICHART\CondTarget.cpp
;	COMDAT ?SetEditSubjectTarGetBit@CCondTarget@@QAEXXZ
_TEXT	SEGMENT
_arrTargetItemName$ = -120				; size = 20
_arrFilterMonthItemCode$ = -100				; size = 20
_saMonthSettlement$2 = -80				; size = 20
_arrMasterItemCode$ = -60				; size = 20
_arrTargetItemCode$ = -40				; size = 20
_strItemCodeMonth$3 = -20				; size = 4
_nMonth$4 = -20						; size = 4
_strExceptDetail$ = -16					; size = 4
__$EHRec$ = -12						; size = 12
?SetEditSubjectTarGetBit@CCondTarget@@QAEXXZ PROC	; CCondTarget::SetEditSubjectTarGetBit, COMDAT
; _this$ = ecx

; 357  : {

  00000	55		 push	 ebp
  00001	8b ec		 mov	 ebp, esp
  00003	6a ff		 push	 -1
  00005	68 00 00 00 00	 push	 __ehhandler$?SetEditSubjectTarGetBit@CCondTarget@@QAEXXZ
  0000a	64 a1 00 00 00
	00		 mov	 eax, DWORD PTR fs:0
  00010	50		 push	 eax
  00011	83 ec 6c	 sub	 esp, 108		; 0000006cH
  00014	53		 push	 ebx
  00015	56		 push	 esi
  00016	57		 push	 edi
  00017	a1 00 00 00 00	 mov	 eax, DWORD PTR ___security_cookie
  0001c	33 c5		 xor	 eax, ebp
  0001e	50		 push	 eax
  0001f	8d 45 f4	 lea	 eax, DWORD PTR __$EHRec$[ebp]
  00022	64 a3 00 00 00
	00		 mov	 DWORD PTR fs:0, eax
  00028	8b f9		 mov	 edi, ecx

; 358  : 	CStringArray arrMasterItemCode, arrTargetItemName, arrFilterMonthItemCode;

  0002a	8d 4d c4	 lea	 ecx, DWORD PTR _arrMasterItemCode$[ebp]
  0002d	e8 00 00 00 00	 call	 ??0CStringArray@@QAE@XZ	; CStringArray::CStringArray
  00032	8d 4d 88	 lea	 ecx, DWORD PTR _arrTargetItemName$[ebp]
  00035	c7 45 fc 00 00
	00 00		 mov	 DWORD PTR __$EHRec$[ebp+8], 0
  0003c	e8 00 00 00 00	 call	 ??0CStringArray@@QAE@XZ	; CStringArray::CStringArray
  00041	8d 4d 9c	 lea	 ecx, DWORD PTR _arrFilterMonthItemCode$[ebp]
  00044	c6 45 fc 01	 mov	 BYTE PTR __$EHRec$[ebp+8], 1
  00048	e8 00 00 00 00	 call	 ??0CStringArray@@QAE@XZ	; CStringArray::CStringArray
; File C:\Program Files (x86)\Microsoft Visual Studio\2019\Community\VC\Tools\MSVC\14.29.30133\atlmfc\include\cstringt.h

; 2486 : 		return(str1.Compare(psz2) == 0);

  0004d	68 00 00 00 00	 push	 OFFSET ??_C@_08GBCBMMED@?$LA?$PM?$LN?I?A?$LO?$LI?q@
  00052	8d 8f ec 01 00
	00		 lea	 ecx, DWORD PTR [edi+492]
; File D:\git\src\IBK\IBK_DRFN\ProjSrc\SrcDrfn\Chart\MULTICHART\CondTarget.cpp

; 358  : 	CStringArray arrMasterItemCode, arrTargetItemName, arrFilterMonthItemCode;

  00058	c6 45 fc 02	 mov	 BYTE PTR __$EHRec$[ebp+8], 2
; File C:\Program Files (x86)\Microsoft Visual Studio\2019\Community\VC\Tools\MSVC\14.29.30133\atlmfc\include\cstringt.h

; 2486 : 		return(str1.Compare(psz2) == 0);

  0005c	ff 15 00 00 00
	00		 call	 DWORD PTR __imp_?Compare@?$CStringT@DV?$StrTraitMFC_DLL@DV?$ChTraitsCRT@D@ATL@@@@@ATL@@QBEHPBD@Z
  00062	85 c0		 test	 eax, eax
; File D:\git\src\IBK\IBK_DRFN\ProjSrc\SrcDrfn\Chart\MULTICHART\CondTarget.cpp

; 360  : 	if (m_strEditSubjectSelectParentItemText == "")

  00064	75 21		 jne	 SHORT $LN11@SetEditSub

; 361  : 		GetData_PortItem(arrMasterItemCode, arrTargetItemName, _ttoi(m_strJangGubun));

  00066	ff b7 f0 01 00
	00		 push	 DWORD PTR [edi+496]
  0006c	ff 15 00 00 00
	00		 call	 DWORD PTR __imp__atoi
  00072	83 c4 04	 add	 esp, 4
  00075	8b cf		 mov	 ecx, edi
  00077	50		 push	 eax
  00078	8d 45 88	 lea	 eax, DWORD PTR _arrTargetItemName$[ebp]
  0007b	50		 push	 eax
  0007c	8d 45 c4	 lea	 eax, DWORD PTR _arrMasterItemCode$[ebp]
  0007f	50		 push	 eax
  00080	e8 00 00 00 00	 call	 ?GetData_PortItem@CCondTarget@@QAEHAAVCStringArray@@0H@Z ; CCondTarget::GetData_PortItem
  00085	eb 41		 jmp	 SHORT $LN14@SetEditSub
$LN11@SetEditSub:
; File C:\Program Files (x86)\Microsoft Visual Studio\2019\Community\VC\Tools\MSVC\14.29.30133\atlmfc\include\cstringt.h

; 2486 : 		return(str1.Compare(psz2) == 0);

  00087	68 00 00 00 00	 push	 OFFSET ??_C@_08JMIJNHAN@?E?W?$LI?$LG?$LB?W?$LH?l@
  0008c	8d 8f ec 01 00
	00		 lea	 ecx, DWORD PTR [edi+492]
  00092	ff 15 00 00 00
	00		 call	 DWORD PTR __imp_?Compare@?$CStringT@DV?$StrTraitMFC_DLL@DV?$ChTraitsCRT@D@ATL@@@@@ATL@@QBEHPBD@Z
  00098	85 c0		 test	 eax, eax
; File D:\git\src\IBK\IBK_DRFN\ProjSrc\SrcDrfn\Chart\MULTICHART\CondTarget.cpp

; 362  : 	else if (m_strEditSubjectSelectParentItemText == "")

  0009a	75 1d		 jne	 SHORT $LN13@SetEditSub

; 363  : 		GetItemCodeFromThemeGroup(arrMasterItemCode, m_strJangGubun);

  0009c	51		 push	 ecx
  0009d	8d 87 f0 01 00
	00		 lea	 eax, DWORD PTR [edi+496]
  000a3	8b cc		 mov	 ecx, esp
  000a5	50		 push	 eax
  000a6	ff 15 00 00 00
	00		 call	 DWORD PTR __imp_??0?$CStringT@DV?$StrTraitMFC_DLL@DV?$ChTraitsCRT@D@ATL@@@@@ATL@@QAE@ABV01@@Z
  000ac	8d 45 c4	 lea	 eax, DWORD PTR _arrMasterItemCode$[ebp]
  000af	8b cf		 mov	 ecx, edi
  000b1	50		 push	 eax
  000b2	e8 00 00 00 00	 call	 ?GetItemCodeFromThemeGroup@CCondTarget@@QAEXAAVCStringArray@@V?$CStringT@DV?$StrTraitMFC_DLL@DV?$ChTraitsCRT@D@ATL@@@@@ATL@@@Z ; CCondTarget::GetItemCodeFromThemeGroup
  000b7	eb 0f		 jmp	 SHORT $LN14@SetEditSub
$LN13@SetEditSub:

; 364  : 	else
; 365  : 		GetStockMasterData(arrMasterItemCode, arrTargetItemName);

  000b9	8d 45 88	 lea	 eax, DWORD PTR _arrTargetItemName$[ebp]
  000bc	8b cf		 mov	 ecx, edi
  000be	50		 push	 eax
  000bf	8d 45 c4	 lea	 eax, DWORD PTR _arrMasterItemCode$[ebp]
  000c2	50		 push	 eax
  000c3	e8 00 00 00 00	 call	 ?GetStockMasterData@CCondTarget@@QAEHAAVCStringArray@@0@Z ; CCondTarget::GetStockMasterData
$LN14@SetEditSub:

; 366  : 
; 367  : 	CStringArray arrTargetItemCode;

  000c8	8d 4d d8	 lea	 ecx, DWORD PTR _arrTargetItemCode$[ebp]
  000cb	e8 00 00 00 00	 call	 ??0CStringArray@@QAE@XZ	; CStringArray::CStringArray

; 368  : 	
; 369  : 	CString strExceptDetail;

  000d0	8d 4d f0	 lea	 ecx, DWORD PTR _strExceptDetail$[ebp]
  000d3	ff 15 00 00 00
	00		 call	 DWORD PTR __imp_??0?$CStringT@DV?$StrTraitMFC_DLL@DV?$ChTraitsCRT@D@ATL@@@@@ATL@@QAE@XZ

; 370  : 	for(int nIndex = 0; nIndex < arrMasterItemCode.GetSize(); nIndex++)

  000d9	8b 45 cc	 mov	 eax, DWORD PTR _arrMasterItemCode$[ebp+8]
  000dc	33 f6		 xor	 esi, esi
  000de	c6 45 fc 04	 mov	 BYTE PTR __$EHRec$[ebp+8], 4
  000e2	85 c0		 test	 eax, eax
  000e4	0f 8e 87 01 00
	00		 jle	 $LN3@SetEditSub
  000ea	66 0f 1f 44 00
	00		 npad	 6
$LL4@SetEditSub:
; File C:\Program Files (x86)\Microsoft Visual Studio\2019\Community\VC\Tools\MSVC\14.29.30133\atlmfc\include\afxcoll.inl

; 289  : 		if( nIndex < 0 || nIndex >= m_nSize )

  000f0	85 f6		 test	 esi, esi
  000f2	0f 88 f7 02 00
	00		 js	 $LN57@SetEditSub
  000f8	3b f0		 cmp	 esi, eax
  000fa	0f 8d ef 02 00
	00		 jge	 $LN57@SetEditSub

; 291  : 		return m_pData[nIndex]; }

  00100	8b 45 c8	 mov	 eax, DWORD PTR _arrMasterItemCode$[ebp+4]
; File D:\git\src\IBK\IBK_DRFN\ProjSrc\SrcDrfn\Chart\MULTICHART\CondTarget.cpp

; 372  : 		if(m_mapExeptItem.Lookup(arrMasterItemCode.GetAt(nIndex), strExceptDetail))

  00103	8d 4d f0	 lea	 ecx, DWORD PTR _strExceptDetail$[ebp]
  00106	51		 push	 ecx
  00107	8d 8f 74 01 00
	00		 lea	 ecx, DWORD PTR [edi+372]
  0010d	ff 34 b0	 push	 DWORD PTR [eax+esi*4]
  00110	e8 00 00 00 00	 call	 ?Lookup@CMapStringToString@@QBEHPBDAAV?$CStringT@DV?$StrTraitMFC_DLL@DV?$ChTraitsCRT@D@ATL@@@@@ATL@@@Z ; CMapStringToString::Lookup
  00115	85 c0		 test	 eax, eax
  00117	0f 84 2d 01 00
	00		 je	 $LN16@SetEditSub
; File C:\Program Files (x86)\Microsoft Visual Studio\2019\Community\VC\Tools\MSVC\14.29.30133\atlmfc\include\atlsimpstr.h

; 519  : 		return( GetData()->nDataLength );

  0011d	8b 45 f0	 mov	 eax, DWORD PTR _strExceptDetail$[ebp]
; File D:\git\src\IBK\IBK_DRFN\ProjSrc\SrcDrfn\Chart\MULTICHART\CondTarget.cpp

; 384  : 				(m_bDeposit						&& strExceptDetail.GetAt(6) == '1') ||	// 

  00120	83 78 f4 08	 cmp	 DWORD PTR [eax-12], 8
  00124	0f 85 3b 01 00
	00		 jne	 $LN2@SetEditSub
  0012a	83 bf b0 01 00
	00 00		 cmp	 DWORD PTR [edi+432], 0
  00131	74 13		 je	 SHORT $LN18@SetEditSub
  00133	6a 00		 push	 0
  00135	8d 4d f0	 lea	 ecx, DWORD PTR _strExceptDetail$[ebp]
  00138	ff 15 00 00 00
	00		 call	 DWORD PTR __imp_?GetAt@?$CSimpleStringT@D$00@ATL@@QBEDH@Z
  0013e	3c 31		 cmp	 al, 49			; 00000031H
  00140	0f 84 1f 01 00
	00		 je	 $LN2@SetEditSub
$LN18@SetEditSub:
  00146	83 bf b4 01 00
	00 00		 cmp	 DWORD PTR [edi+436], 0
  0014d	74 13		 je	 SHORT $LN19@SetEditSub
  0014f	6a 01		 push	 1
  00151	8d 4d f0	 lea	 ecx, DWORD PTR _strExceptDetail$[ebp]
  00154	ff 15 00 00 00
	00		 call	 DWORD PTR __imp_?GetAt@?$CSimpleStringT@D$00@ATL@@QBEDH@Z
  0015a	3c 31		 cmp	 al, 49			; 00000031H
  0015c	0f 84 03 01 00
	00		 je	 $LN2@SetEditSub
$LN19@SetEditSub:
  00162	83 bf b8 01 00
	00 00		 cmp	 DWORD PTR [edi+440], 0
  00169	74 13		 je	 SHORT $LN20@SetEditSub
  0016b	6a 02		 push	 2
  0016d	8d 4d f0	 lea	 ecx, DWORD PTR _strExceptDetail$[ebp]
  00170	ff 15 00 00 00
	00		 call	 DWORD PTR __imp_?GetAt@?$CSimpleStringT@D$00@ATL@@QBEDH@Z
  00176	3c 31		 cmp	 al, 49			; 00000031H
  00178	0f 84 e7 00 00
	00		 je	 $LN2@SetEditSub
$LN20@SetEditSub:
  0017e	83 bf bc 01 00
	00 00		 cmp	 DWORD PTR [edi+444], 0
  00185	74 13		 je	 SHORT $LN21@SetEditSub
  00187	6a 03		 push	 3
  00189	8d 4d f0	 lea	 ecx, DWORD PTR _strExceptDetail$[ebp]
  0018c	ff 15 00 00 00
	00		 call	 DWORD PTR __imp_?GetAt@?$CSimpleStringT@D$00@ATL@@QBEDH@Z
  00192	3c 31		 cmp	 al, 49			; 00000031H
  00194	0f 84 cb 00 00
	00		 je	 $LN2@SetEditSub
$LN21@SetEditSub:
  0019a	83 bf c0 01 00
	00 00		 cmp	 DWORD PTR [edi+448], 0
  001a1	74 13		 je	 SHORT $LN22@SetEditSub
  001a3	6a 04		 push	 4
  001a5	8d 4d f0	 lea	 ecx, DWORD PTR _strExceptDetail$[ebp]
  001a8	ff 15 00 00 00
	00		 call	 DWORD PTR __imp_?GetAt@?$CSimpleStringT@D$00@ATL@@QBEDH@Z
  001ae	3c 31		 cmp	 al, 49			; 00000031H
  001b0	0f 84 af 00 00
	00		 je	 $LN2@SetEditSub
$LN22@SetEditSub:
  001b6	83 bf d4 01 00
	00 00		 cmp	 DWORD PTR [edi+468], 0
  001bd	74 13		 je	 SHORT $LN23@SetEditSub
  001bf	6a 04		 push	 4
  001c1	8d 4d f0	 lea	 ecx, DWORD PTR _strExceptDetail$[ebp]
  001c4	ff 15 00 00 00
	00		 call	 DWORD PTR __imp_?GetAt@?$CSimpleStringT@D$00@ATL@@QBEDH@Z
  001ca	3c 32		 cmp	 al, 50			; 00000032H
  001cc	0f 84 93 00 00
	00		 je	 $LN2@SetEditSub
$LN23@SetEditSub:
  001d2	83 bf d0 01 00
	00 00		 cmp	 DWORD PTR [edi+464], 0
  001d9	74 0f		 je	 SHORT $LN24@SetEditSub
  001db	6a 04		 push	 4
  001dd	8d 4d f0	 lea	 ecx, DWORD PTR _strExceptDetail$[ebp]
  001e0	ff 15 00 00 00
	00		 call	 DWORD PTR __imp_?GetAt@?$CSimpleStringT@D$00@ATL@@QBEDH@Z
  001e6	3c 33		 cmp	 al, 51			; 00000033H
  001e8	74 7b		 je	 SHORT $LN2@SetEditSub
$LN24@SetEditSub:
  001ea	83 bf c4 01 00
	00 00		 cmp	 DWORD PTR [edi+452], 0
  001f1	74 0f		 je	 SHORT $LN25@SetEditSub
  001f3	6a 04		 push	 4
  001f5	8d 4d f0	 lea	 ecx, DWORD PTR _strExceptDetail$[ebp]
  001f8	ff 15 00 00 00
	00		 call	 DWORD PTR __imp_?GetAt@?$CSimpleStringT@D$00@ATL@@QBEDH@Z
  001fe	3c 34		 cmp	 al, 52			; 00000034H
  00200	74 63		 je	 SHORT $LN2@SetEditSub
$LN25@SetEditSub:
  00202	83 bf c8 01 00
	00 00		 cmp	 DWORD PTR [edi+456], 0
  00209	74 0f		 je	 SHORT $LN26@SetEditSub
  0020b	6a 05		 push	 5
  0020d	8d 4d f0	 lea	 ecx, DWORD PTR _strExceptDetail$[ebp]
  00210	ff 15 00 00 00
	00		 call	 DWORD PTR __imp_?GetAt@?$CSimpleStringT@D$00@ATL@@QBEDH@Z
  00216	3c 31		 cmp	 al, 49			; 00000031H
  00218	74 4b		 je	 SHORT $LN2@SetEditSub
$LN26@SetEditSub:
  0021a	83 bf cc 01 00
	00 00		 cmp	 DWORD PTR [edi+460], 0
  00221	74 0f		 je	 SHORT $LN27@SetEditSub
  00223	6a 06		 push	 6
  00225	8d 4d f0	 lea	 ecx, DWORD PTR _strExceptDetail$[ebp]
  00228	ff 15 00 00 00
	00		 call	 DWORD PTR __imp_?GetAt@?$CSimpleStringT@D$00@ATL@@QBEDH@Z
  0022e	3c 31		 cmp	 al, 49			; 00000031H
  00230	74 33		 je	 SHORT $LN2@SetEditSub
$LN27@SetEditSub:
  00232	83 bf dc 01 00
	00 00		 cmp	 DWORD PTR [edi+476], 0
  00239	74 0f		 je	 SHORT $LN16@SetEditSub
  0023b	6a 07		 push	 7
  0023d	8d 4d f0	 lea	 ecx, DWORD PTR _strExceptDetail$[ebp]
  00240	ff 15 00 00 00
	00		 call	 DWORD PTR __imp_?GetAt@?$CSimpleStringT@D$00@ATL@@QBEDH@Z
  00246	3c 31		 cmp	 al, 49			; 00000031H
  00248	74 1b		 je	 SHORT $LN2@SetEditSub
$LN16@SetEditSub:
; File C:\Program Files (x86)\Microsoft Visual Studio\2019\Community\VC\Tools\MSVC\14.29.30133\atlmfc\include\afxcoll.inl

; 289  : 		if( nIndex < 0 || nIndex >= m_nSize )

  0024a	3b 75 cc	 cmp	 esi, DWORD PTR _arrMasterItemCode$[ebp+8]
  0024d	0f 8d 9c 01 00
	00		 jge	 $LN57@SetEditSub

; 291  : 		return m_pData[nIndex]; }

  00253	8b 45 c8	 mov	 eax, DWORD PTR _arrMasterItemCode$[ebp+4]

; 321  : 		SetAtGrow(nIndex, newElement);

  00256	8d 4d d8	 lea	 ecx, DWORD PTR _arrTargetItemCode$[ebp]

; 291  : 		return m_pData[nIndex]; }

  00259	8d 04 b0	 lea	 eax, DWORD PTR [eax+esi*4]

; 321  : 		SetAtGrow(nIndex, newElement);

  0025c	50		 push	 eax
  0025d	ff 75 e0	 push	 DWORD PTR _arrTargetItemCode$[ebp+8]
  00260	e8 00 00 00 00	 call	 ?SetAtGrow@CStringArray@@QAEXHABV?$CStringT@DV?$StrTraitMFC_DLL@DV?$ChTraitsCRT@D@ATL@@@@@ATL@@@Z ; CStringArray::SetAtGrow
$LN2@SetEditSub:
; File D:\git\src\IBK\IBK_DRFN\ProjSrc\SrcDrfn\Chart\MULTICHART\CondTarget.cpp

; 370  : 	for(int nIndex = 0; nIndex < arrMasterItemCode.GetSize(); nIndex++)

  00265	8b 45 cc	 mov	 eax, DWORD PTR _arrMasterItemCode$[ebp+8]
  00268	46		 inc	 esi
  00269	3b f0		 cmp	 esi, eax
  0026b	0f 8c 7f fe ff
	ff		 jl	 $LL4@SetEditSub
$LN3@SetEditSub:

; 385  : //				(m_bETN							&& strExceptDetail.GetAt(7) == '1') ||	// ETN
; 386  : 				(m_bETF							&& strExceptDetail.GetAt(7) == '1'))	// ETF
; 387  : 			{
; 388  : 				continue;
; 389  : 			}
; 390  : 		}
; 391  : 
; 392  : 		arrTargetItemCode.Add(arrMasterItemCode.GetAt(nIndex));
; 393  : 	}
; 394  : 
; 395  : 	if (m_nSelRadioMonth)

  00271	83 bf e0 01 00
	00 00		 cmp	 DWORD PTR [edi+480], 0
  00278	0f 84 12 01 00
	00		 je	 $LN28@SetEditSub

; 396  : 	{
; 397  : 		CStringArray saMonthSettlement;

  0027e	8d 4d b0	 lea	 ecx, DWORD PTR _saMonthSettlement$2[ebp]
  00281	e8 00 00 00 00	 call	 ??0CStringArray@@QAE@XZ	; CStringArray::CStringArray

; 398  : 
; 399  : 		int nMonth;
; 400  : 
; 401  : 		if (m_nSelRadioMonth == 1)			nMonth = 3;

  00286	8b 87 e0 01 00
	00		 mov	 eax, DWORD PTR [edi+480]
  0028c	c6 45 fc 05	 mov	 BYTE PTR __$EHRec$[ebp+8], 5
  00290	83 f8 01	 cmp	 eax, 1
  00293	75 07		 jne	 SHORT $LN30@SetEditSub
  00295	b8 03 00 00 00	 mov	 eax, 3
  0029a	eb 35		 jmp	 SHORT $LN38@SetEditSub
$LN30@SetEditSub:

; 402  : 		else if (m_nSelRadioMonth == 2)		nMonth = 6;

  0029c	83 f8 02	 cmp	 eax, 2
  0029f	75 07		 jne	 SHORT $LN32@SetEditSub
  002a1	b8 06 00 00 00	 mov	 eax, 6
  002a6	eb 29		 jmp	 SHORT $LN38@SetEditSub
$LN32@SetEditSub:

; 403  : 		else if (m_nSelRadioMonth == 3)		nMonth = 9;

  002a8	83 f8 03	 cmp	 eax, 3
  002ab	75 07		 jne	 SHORT $LN34@SetEditSub
  002ad	b8 09 00 00 00	 mov	 eax, 9
  002b2	eb 1d		 jmp	 SHORT $LN38@SetEditSub
$LN34@SetEditSub:

; 404  : 		else if (m_nSelRadioMonth == 4)		nMonth = 12;

  002b4	83 f8 04	 cmp	 eax, 4
  002b7	75 07		 jne	 SHORT $LN36@SetEditSub
  002b9	b8 0c 00 00 00	 mov	 eax, 12			; 0000000cH
  002be	eb 11		 jmp	 SHORT $LN38@SetEditSub
$LN36@SetEditSub:

; 405  : 		else if (m_nSelRadioMonth == 5)		nMonth = m_nIndexMonthCombo + 1;

  002c0	83 f8 05	 cmp	 eax, 5
  002c3	75 09		 jne	 SHORT $LN110@SetEditSub
  002c5	8b 87 e4 01 00
	00		 mov	 eax, DWORD PTR [edi+484]
  002cb	40		 inc	 eax
  002cc	eb 03		 jmp	 SHORT $LN38@SetEditSub
$LN110@SetEditSub:
  002ce	8b 45 ec	 mov	 eax, DWORD PTR _nMonth$4[ebp]
$LN38@SetEditSub:

; 406  : 
; 407  : 		saMonthSettlement.Copy(m_saMonth[nMonth - 1]);

  002d1	8d 04 80	 lea	 eax, DWORD PTR [eax+eax*4]
  002d4	8d 40 1c	 lea	 eax, DWORD PTR [eax+28]
  002d7	8d 04 87	 lea	 eax, DWORD PTR [edi+eax*4]
  002da	50		 push	 eax
  002db	8d 4d b0	 lea	 ecx, DWORD PTR _saMonthSettlement$2[ebp]
  002de	e8 00 00 00 00	 call	 ?Copy@CStringArray@@QAEXABV1@@Z ; CStringArray::Copy

; 408  : 		
; 409  : 		for (int nIndex = 0; nIndex < saMonthSettlement.GetSize(); nIndex++)

  002e3	33 db		 xor	 ebx, ebx
  002e5	39 5d b8	 cmp	 DWORD PTR _saMonthSettlement$2[ebp+8], ebx
  002e8	0f 8e 94 00 00
	00		 jle	 $LN6@SetEditSub
  002ee	66 90		 npad	 2
$LL7@SetEditSub:

; 410  : 		{
; 411  : 			CString strItemCodeMonth;

  002f0	8d 4d ec	 lea	 ecx, DWORD PTR _strItemCodeMonth$3[ebp]
  002f3	ff 15 00 00 00
	00		 call	 DWORD PTR __imp_??0?$CStringT@DV?$StrTraitMFC_DLL@DV?$ChTraitsCRT@D@ATL@@@@@ATL@@QAE@XZ
  002f9	c6 45 fc 06	 mov	 BYTE PTR __$EHRec$[ebp+8], 6
; File C:\Program Files (x86)\Microsoft Visual Studio\2019\Community\VC\Tools\MSVC\14.29.30133\atlmfc\include\afxcoll.inl

; 289  : 		if( nIndex < 0 || nIndex >= m_nSize )

  002fd	85 db		 test	 ebx, ebx
  002ff	0f 88 ea 00 00
	00		 js	 $LN57@SetEditSub
  00305	3b 5d b8	 cmp	 ebx, DWORD PTR _saMonthSettlement$2[ebp+8]
  00308	0f 8d e1 00 00
	00		 jge	 $LN57@SetEditSub

; 291  : 		return m_pData[nIndex]; }

  0030e	8b 45 b4	 mov	 eax, DWORD PTR _saMonthSettlement$2[ebp+4]
; File D:\git\src\IBK\IBK_DRFN\ProjSrc\SrcDrfn\Chart\MULTICHART\CondTarget.cpp

; 412  : 			strItemCodeMonth = saMonthSettlement.GetAt(nIndex);

  00311	8d 4d ec	 lea	 ecx, DWORD PTR _strItemCodeMonth$3[ebp]
; File C:\Program Files (x86)\Microsoft Visual Studio\2019\Community\VC\Tools\MSVC\14.29.30133\atlmfc\include\afxcoll.inl

; 291  : 		return m_pData[nIndex]; }

  00314	8d 04 98	 lea	 eax, DWORD PTR [eax+ebx*4]
; File D:\git\src\IBK\IBK_DRFN\ProjSrc\SrcDrfn\Chart\MULTICHART\CondTarget.cpp

; 412  : 			strItemCodeMonth = saMonthSettlement.GetAt(nIndex);

  00317	50		 push	 eax
  00318	ff 15 00 00 00
	00		 call	 DWORD PTR __imp_??4?$CStringT@DV?$StrTraitMFC_DLL@DV?$ChTraitsCRT@D@ATL@@@@@ATL@@QAEAAV01@ABV01@@Z

; 413  : 
; 414  : 			for (int nTargetIndex = 0; nTargetIndex < arrTargetItemCode.GetSize(); nTargetIndex++)

  0031e	8b 45 e0	 mov	 eax, DWORD PTR _arrTargetItemCode$[ebp+8]
  00321	33 f6		 xor	 esi, esi
  00323	85 c0		 test	 eax, eax
  00325	7e 48		 jle	 SHORT $LN9@SetEditSub
$LL10@SetEditSub:
; File C:\Program Files (x86)\Microsoft Visual Studio\2019\Community\VC\Tools\MSVC\14.29.30133\atlmfc\include\afxcoll.inl

; 289  : 		if( nIndex < 0 || nIndex >= m_nSize )

  00327	85 f6		 test	 esi, esi
  00329	0f 88 c0 00 00
	00		 js	 $LN57@SetEditSub
  0032f	3b f0		 cmp	 esi, eax
  00331	0f 8d b8 00 00
	00		 jge	 $LN57@SetEditSub

; 291  : 		return m_pData[nIndex]; }

  00337	8b 45 dc	 mov	 eax, DWORD PTR _arrTargetItemCode$[ebp+4]
; File C:\Program Files (x86)\Microsoft Visual Studio\2019\Community\VC\Tools\MSVC\14.29.30133\atlmfc\include\cstringt.h

; 2479 : 		return(str1.Compare(str2) == 0);

  0033a	8d 4d ec	 lea	 ecx, DWORD PTR _strItemCodeMonth$3[ebp]
  0033d	ff 34 b0	 push	 DWORD PTR [eax+esi*4]
  00340	ff 15 00 00 00
	00		 call	 DWORD PTR __imp_?Compare@?$CStringT@DV?$StrTraitMFC_DLL@DV?$ChTraitsCRT@D@ATL@@@@@ATL@@QBEHPBD@Z
  00346	85 c0		 test	 eax, eax
; File D:\git\src\IBK\IBK_DRFN\ProjSrc\SrcDrfn\Chart\MULTICHART\CondTarget.cpp

; 416  : 				if (strItemCodeMonth == arrTargetItemCode.GetAt(nTargetIndex))

  00348	74 0a		 je	 SHORT $LN98@SetEditSub

; 413  : 
; 414  : 			for (int nTargetIndex = 0; nTargetIndex < arrTargetItemCode.GetSize(); nTargetIndex++)

  0034a	8b 45 e0	 mov	 eax, DWORD PTR _arrTargetItemCode$[ebp+8]
  0034d	46		 inc	 esi
  0034e	3b f0		 cmp	 esi, eax
  00350	7c d5		 jl	 SHORT $LL10@SetEditSub
; File C:\Program Files (x86)\Microsoft Visual Studio\2019\Community\VC\Tools\MSVC\14.29.30133\atlmfc\include\afxcoll.inl

; 289  : 		if( nIndex < 0 || nIndex >= m_nSize )

  00352	eb 1b		 jmp	 SHORT $LN9@SetEditSub
$LN98@SetEditSub:
  00354	3b 75 e0	 cmp	 esi, DWORD PTR _arrTargetItemCode$[ebp+8]
  00357	0f 8d 92 00 00
	00		 jge	 $LN57@SetEditSub

; 291  : 		return m_pData[nIndex]; }

  0035d	8b 45 dc	 mov	 eax, DWORD PTR _arrTargetItemCode$[ebp+4]

; 321  : 		SetAtGrow(nIndex, newElement);

  00360	8d 4d 9c	 lea	 ecx, DWORD PTR _arrFilterMonthItemCode$[ebp]

; 291  : 		return m_pData[nIndex]; }

  00363	8d 04 b0	 lea	 eax, DWORD PTR [eax+esi*4]

; 321  : 		SetAtGrow(nIndex, newElement);

  00366	50		 push	 eax
  00367	ff 75 a4	 push	 DWORD PTR _arrFilterMonthItemCode$[ebp+8]
  0036a	e8 00 00 00 00	 call	 ?SetAtGrow@CStringArray@@QAEXHABV?$CStringT@DV?$StrTraitMFC_DLL@DV?$ChTraitsCRT@D@ATL@@@@@ATL@@@Z ; CStringArray::SetAtGrow
$LN9@SetEditSub:
; File D:\git\src\IBK\IBK_DRFN\ProjSrc\SrcDrfn\Chart\MULTICHART\CondTarget.cpp

; 422  : 		}

  0036f	8d 4d ec	 lea	 ecx, DWORD PTR _strItemCodeMonth$3[ebp]
  00372	ff 15 00 00 00
	00		 call	 DWORD PTR __imp_??1?$CStringT@DV?$StrTraitMFC_DLL@DV?$ChTraitsCRT@D@ATL@@@@@ATL@@QAE@XZ
  00378	43		 inc	 ebx
  00379	3b 5d b8	 cmp	 ebx, DWORD PTR _saMonthSettlement$2[ebp+8]
  0037c	0f 8c 6e ff ff
	ff		 jl	 $LL7@SetEditSub
$LN6@SetEditSub:

; 423  : 	}

  00382	8d 4d b0	 lea	 ecx, DWORD PTR _saMonthSettlement$2[ebp]
  00385	c6 45 fc 04	 mov	 BYTE PTR __$EHRec$[ebp+8], 4
  00389	e8 00 00 00 00	 call	 ??1CStringArray@@UAE@XZ	; CStringArray::~CStringArray
  0038e	eb 0c		 jmp	 SHORT $LN29@SetEditSub
$LN28@SetEditSub:

; 424  : 	else
; 425  : 		arrFilterMonthItemCode.Copy(arrTargetItemCode);

  00390	8d 45 d8	 lea	 eax, DWORD PTR _arrTargetItemCode$[ebp]
  00393	50		 push	 eax
  00394	8d 4d 9c	 lea	 ecx, DWORD PTR _arrFilterMonthItemCode$[ebp]
  00397	e8 00 00 00 00	 call	 ?Copy@CStringArray@@QAEXABV1@@Z ; CStringArray::Copy
$LN29@SetEditSub:
; File C:\Program Files (x86)\Microsoft Visual Studio\2019\Community\VC\Tools\MSVC\14.29.30133\atlmfc\include\afxcoll.inl

; 286  : 	{ SetSize(0); }

  0039c	6a ff		 push	 -1
  0039e	6a 00		 push	 0
  003a0	8d 4f 70	 lea	 ecx, DWORD PTR [edi+112]
  003a3	e8 00 00 00 00	 call	 ?SetSize@CStringArray@@QAEXHH@Z ; CStringArray::SetSize
; File D:\git\src\IBK\IBK_DRFN\ProjSrc\SrcDrfn\Chart\MULTICHART\CondTarget.cpp

; 428  : 	m_arTargetResult.Copy(arrFilterMonthItemCode);

  003a8	8d 45 9c	 lea	 eax, DWORD PTR _arrFilterMonthItemCode$[ebp]
  003ab	50		 push	 eax
  003ac	8d 4f 70	 lea	 ecx, DWORD PTR [edi+112]
  003af	e8 00 00 00 00	 call	 ?Copy@CStringArray@@QAEXABV1@@Z ; CStringArray::Copy

; 429  : }

  003b4	8d 4d f0	 lea	 ecx, DWORD PTR _strExceptDetail$[ebp]
  003b7	ff 15 00 00 00
	00		 call	 DWORD PTR __imp_??1?$CStringT@DV?$StrTraitMFC_DLL@DV?$ChTraitsCRT@D@ATL@@@@@ATL@@QAE@XZ
  003bd	8d 4d d8	 lea	 ecx, DWORD PTR _arrTargetItemCode$[ebp]
  003c0	e8 00 00 00 00	 call	 ??1CStringArray@@UAE@XZ	; CStringArray::~CStringArray
  003c5	8d 4d 9c	 lea	 ecx, DWORD PTR _arrFilterMonthItemCode$[ebp]
  003c8	e8 00 00 00 00	 call	 ??1CStringArray@@UAE@XZ	; CStringArray::~CStringArray
  003cd	8d 4d 88	 lea	 ecx, DWORD PTR _arrTargetItemName$[ebp]
  003d0	e8 00 00 00 00	 call	 ??1CStringArray@@UAE@XZ	; CStringArray::~CStringArray
  003d5	8d 4d c4	 lea	 ecx, DWORD PTR _arrMasterItemCode$[ebp]
  003d8	e8 00 00 00 00	 call	 ??1CStringArray@@UAE@XZ	; CStringArray::~CStringArray
  003dd	8b 4d f4	 mov	 ecx, DWORD PTR __$EHRec$[ebp]
  003e0	64 89 0d 00 00
	00 00		 mov	 DWORD PTR fs:0, ecx
  003e7	59		 pop	 ecx
  003e8	5f		 pop	 edi
  003e9	5e		 pop	 esi
  003ea	5b		 pop	 ebx
  003eb	8b e5		 mov	 esp, ebp
  003ed	5d		 pop	 ebp
  003ee	c3		 ret	 0
$LN57@SetEditSub:
  003ef	e8 00 00 00 00	 call	 ?AfxThrowInvalidArgException@@YGXXZ ; AfxThrowInvalidArgException
$LN112@SetEditSub:
  003f4	cc		 int	 3
_TEXT	ENDS
;	COMDAT text$x
text$x	SEGMENT
__unwindfunclet$?SetEditSubjectTarGetBit@CCondTarget@@QAEXXZ$0:
  00000	8d 4d c4	 lea	 ecx, DWORD PTR _arrMasterItemCode$[ebp]
  00003	e9 00 00 00 00	 jmp	 ??1CStringArray@@UAE@XZ	; CStringArray::~CStringArray
__unwindfunclet$?SetEditSubjectTarGetBit@CCondTarget@@QAEXXZ$1:
  00008	8d 4d 88	 lea	 ecx, DWORD PTR _arrTargetItemName$[ebp]
  0000b	e9 00 00 00 00	 jmp	 ??1CStringArray@@UAE@XZ	; CStringArray::~CStringArray
__unwindfunclet$?SetEditSubjectTarGetBit@CCondTarget@@QAEXXZ$2:
  00010	8d 4d 9c	 lea	 ecx, DWORD PTR _arrFilterMonthItemCode$[ebp]
  00013	e9 00 00 00 00	 jmp	 ??1CStringArray@@UAE@XZ	; CStringArray::~CStringArray
__unwindfunclet$?SetEditSubjectTarGetBit@CCondTarget@@QAEXXZ$4:
  00018	8d 4d d8	 lea	 ecx, DWORD PTR _arrTargetItemCode$[ebp]
  0001b	e9 00 00 00 00	 jmp	 ??1CStringArray@@UAE@XZ	; CStringArray::~CStringArray
__unwindfunclet$?SetEditSubjectTarGetBit@CCondTarget@@QAEXXZ$5:
  00020	8d 4d f0	 lea	 ecx, DWORD PTR _strExceptDetail$[ebp]
  00023	ff 25 00 00 00
	00		 jmp	 DWORD PTR __imp_??1?$CStringT@DV?$StrTraitMFC_DLL@DV?$ChTraitsCRT@D@ATL@@@@@ATL@@QAE@XZ
__unwindfunclet$?SetEditSubjectTarGetBit@CCondTarget@@QAEXXZ$6:
  00029	8d 4d b0	 lea	 ecx, DWORD PTR _saMonthSettlement$2[ebp]
  0002c	e9 00 00 00 00	 jmp	 ??1CStringArray@@UAE@XZ	; CStringArray::~CStringArray
__unwindfunclet$?SetEditSubjectTarGetBit@CCondTarget@@QAEXXZ$7:
  00031	8d 4d ec	 lea	 ecx, DWORD PTR _strItemCodeMonth$3[ebp]
  00034	ff 25 00 00 00
	00		 jmp	 DWORD PTR __imp_??1?$CStringT@DV?$StrTraitMFC_DLL@DV?$ChTraitsCRT@D@ATL@@@@@ATL@@QAE@XZ
  0003a	cc		 int	 3
  0003b	cc		 int	 3
  0003c	cc		 int	 3
  0003d	cc		 int	 3
  0003e	cc		 int	 3
__ehhandler$?SetEditSubjectTarGetBit@CCondTarget@@QAEXXZ:
  0003f	90		 npad	 1
  00040	90		 npad	 1
  00041	8b 54 24 08	 mov	 edx, DWORD PTR [esp+8]
  00045	8d 42 0c	 lea	 eax, DWORD PTR [edx+12]
  00048	8b 4a 84	 mov	 ecx, DWORD PTR [edx-124]
  0004b	33 c8		 xor	 ecx, eax
  0004d	e8 00 00 00 00	 call	 @__security_check_cookie@4
  00052	b8 00 00 00 00	 mov	 eax, OFFSET __ehfuncinfo$?SetEditSubjectTarGetBit@CCondTarget@@QAEXXZ
  00057	e9 00 00 00 00	 jmp	 ___CxxFrameHandler3
text$x	ENDS
?SetEditSubjectTarGetBit@CCondTarget@@QAEXXZ ENDP	; CCondTarget::SetEditSubjectTarGetBit
; Function compile flags: /Ogtp
; File D:\git\src\IBK\IBK_DRFN\ProjSrc\SrcDrfn\Chart\MULTICHART\CondTarget.cpp
; File C:\Program Files (x86)\Microsoft Visual Studio\2019\Community\VC\Tools\MSVC\14.29.30133\atlmfc\include\afxcoll.inl
; File D:\git\src\IBK\IBK_DRFN\ProjSrc\SrcDrfn\Chart\MULTICHART\CondTarget.cpp
; File C:\Program Files (x86)\Microsoft Visual Studio\2019\Community\VC\Tools\MSVC\14.29.30133\atlmfc\include\afxcoll.inl
; File D:\git\src\IBK\IBK_DRFN\ProjSrc\SrcDrfn\Chart\MULTICHART\CondTarget.cpp
; File C:\Program Files (x86)\Microsoft Visual Studio\2019\Community\VC\Tools\MSVC\14.29.30133\atlmfc\include\afxcoll.inl
; File D:\git\src\IBK\IBK_DRFN\ProjSrc\SrcDrfn\Chart\MULTICHART\CondTarget.cpp
; File C:\Program Files (x86)\Microsoft Visual Studio\2019\Community\VC\Tools\MSVC\14.29.30133\atlmfc\include\afxcoll.inl
; File D:\git\src\IBK\IBK_DRFN\ProjSrc\SrcDrfn\Chart\MULTICHART\CondTarget.cpp
; File C:\Program Files (x86)\Microsoft Visual Studio\2019\Community\VC\Tools\MSVC\14.29.30133\atlmfc\include\afxcoll.inl
; File D:\git\src\IBK\IBK_DRFN\ProjSrc\SrcDrfn\Chart\MULTICHART\CondTarget.cpp
; File C:\Program Files (x86)\Microsoft Visual Studio\2019\Community\VC\Tools\MSVC\14.29.30133\atlmfc\include\afxcoll.inl
; File D:\git\src\IBK\IBK_DRFN\ProjSrc\SrcDrfn\Chart\MULTICHART\CondTarget.cpp
;	COMDAT ?ReceiveData@CCondTarget@@QAEXPAXJ@Z
_TEXT	SEGMENT
_saMSTCode$ = -132					; size = 20
_this$1$ = -112						; size = 4
tv621 = -108						; size = 4
tv615 = -104						; size = 4
_nIndex$1$ = -100					; size = 4
_nPos$1$ = -96						; size = 4
_aTRData$GSCopy$1$ = -92				; size = 4
_nDataCnt$1$ = -92					; size = 4
_this$GSCopy$1$ = -88					; size = 4
_strCode$ = -84						; size = 4
_strData$ = -80						; size = 4
_buf$ = -76						; size = 4
_stMSTCode$ = -72					; size = 45
_szTotCodeCnt$ = -24					; size = 5
__$ArrayPad$ = -16					; size = 4
__$EHRec$ = -12						; size = 12
_aTRData$ = 8						; size = 4
_dwTRDateLen$ = 12					; size = 4
?ReceiveData@CCondTarget@@QAEXPAXJ@Z PROC		; CCondTarget::ReceiveData, COMDAT
; _this$ = ecx

; 219  : {

  00000	55		 push	 ebp
  00001	8b ec		 mov	 ebp, esp
  00003	6a ff		 push	 -1
  00005	68 00 00 00 00	 push	 __ehhandler$?ReceiveData@CCondTarget@@QAEXPAXJ@Z
  0000a	64 a1 00 00 00
	00		 mov	 eax, DWORD PTR fs:0
  00010	50		 push	 eax
  00011	83 ec 78	 sub	 esp, 120		; 00000078H
  00014	a1 00 00 00 00	 mov	 eax, DWORD PTR ___security_cookie
  00019	33 c5		 xor	 eax, ebp
  0001b	89 45 f0	 mov	 DWORD PTR __$ArrayPad$[ebp], eax
  0001e	56		 push	 esi
  0001f	57		 push	 edi
  00020	50		 push	 eax
  00021	8d 45 f4	 lea	 eax, DWORD PTR __$EHRec$[ebp]
  00024	64 a3 00 00 00
	00		 mov	 DWORD PTR fs:0, eax
  0002a	8b f1		 mov	 esi, ecx
  0002c	89 75 a8	 mov	 DWORD PTR _this$GSCopy$1$[ebp], esi
  0002f	8b 45 08	 mov	 eax, DWORD PTR _aTRData$[ebp]

; 126  : 	m_arTargetResult.RemoveAll();

  00032	8d 4e 70	 lea	 ecx, DWORD PTR [esi+112]
; File C:\Program Files (x86)\Microsoft Visual Studio\2019\Community\VC\Tools\MSVC\14.29.30133\atlmfc\include\afxcoll.inl

; 286  : 	{ SetSize(0); }

  00035	6a ff		 push	 -1
  00037	6a 00		 push	 0
; File D:\git\src\IBK\IBK_DRFN\ProjSrc\SrcDrfn\Chart\MULTICHART\CondTarget.cpp

; 219  : {

  00039	89 45 a4	 mov	 DWORD PTR _aTRData$GSCopy$1$[ebp], eax
; File C:\Program Files (x86)\Microsoft Visual Studio\2019\Community\VC\Tools\MSVC\14.29.30133\atlmfc\include\afxcoll.inl

; 286  : 	{ SetSize(0); }

  0003c	e8 00 00 00 00	 call	 ?SetSize@CStringArray@@QAEXHH@Z ; CStringArray::SetSize
; File D:\git\src\IBK\IBK_DRFN\ProjSrc\SrcDrfn\Chart\MULTICHART\CondTarget.cpp

; 127  : 	m_mapExeptItem.RemoveAll();

  00041	8d 86 74 01 00
	00		 lea	 eax, DWORD PTR [esi+372]
  00047	8b c8		 mov	 ecx, eax
  00049	89 45 94	 mov	 DWORD PTR tv621[ebp], eax
  0004c	e8 00 00 00 00	 call	 ?RemoveAll@CMapStringToString@@QAEXXZ ; CMapStringToString::RemoveAll

; 219  : {

  00051	8d 86 84 00 00
	00		 lea	 eax, DWORD PTR [esi+132]
  00057	bf 0c 00 00 00	 mov	 edi, 12			; 0000000cH
  0005c	89 45 90	 mov	 DWORD PTR _this$1$[ebp], eax
  0005f	8b f0		 mov	 esi, eax
$LL49@ReceiveDat:
; File C:\Program Files (x86)\Microsoft Visual Studio\2019\Community\VC\Tools\MSVC\14.29.30133\atlmfc\include\afxcoll.inl

; 286  : 	{ SetSize(0); }

  00061	6a ff		 push	 -1
  00063	6a 00		 push	 0
  00065	8b ce		 mov	 ecx, esi
  00067	e8 00 00 00 00	 call	 ?SetSize@CStringArray@@QAEXHH@Z ; CStringArray::SetSize
; File D:\git\src\IBK\IBK_DRFN\ProjSrc\SrcDrfn\Chart\MULTICHART\CondTarget.cpp

; 128  : 	for (int i=0; i<SZ_MONTHARRAY; i++)

  0006c	83 c6 14	 add	 esi, 20			; 00000014H
  0006f	83 ef 01	 sub	 edi, 1
  00072	75 ed		 jne	 SHORT $LL49@ReceiveDat

; 220  : 	RemoveAll();
; 221  : 
; 222  : 	CStringArray saMSTCode;

  00074	8d 8d 7c ff ff
	ff		 lea	 ecx, DWORD PTR _saMSTCode$[ebp]
  0007a	e8 00 00 00 00	 call	 ??0CStringArray@@QAE@XZ	; CStringArray::CStringArray

; 223  : 	MSTCode stMSTCode;
; 224  : 	char *psData = (char*)aTRData;
; 225  : 	int nPos=0;
; 226  : 
; 227  : 	int nDataCnt = dwTRDateLen / sizeof(MSTCode);
; 228  : 
; 229  : 	char szTotCodeCnt[5] = {0, };
; 230  : 	memcpy(&szTotCodeCnt, (char*)&psData[nPos], 4); //   4

  0007f	8b 75 a4	 mov	 esi, DWORD PTR _aTRData$GSCopy$1$[ebp]
  00082	89 7d fc	 mov	 DWORD PTR __$EHRec$[ebp+8], edi
  00085	89 7d a0	 mov	 DWORD PTR _nPos$1$[ebp], edi

; 231  : 	nDataCnt = atoi(szTotCodeCnt);

  00088	8b 3d 00 00 00
	00		 mov	 edi, DWORD PTR __imp__atoi
  0008e	8b 06		 mov	 eax, DWORD PTR [esi]
  00090	89 45 e8	 mov	 DWORD PTR _szTotCodeCnt$[ebp], eax
  00093	8d 45 e8	 lea	 eax, DWORD PTR _szTotCodeCnt$[ebp]
  00096	50		 push	 eax
  00097	c6 45 ec 00	 mov	 BYTE PTR _szTotCodeCnt$[ebp+4], 0
  0009b	ff d7		 call	 edi
  0009d	83 c4 04	 add	 esp, 4
  000a0	89 45 a4	 mov	 DWORD PTR _nDataCnt$1$[ebp], eax

; 232  : 
; 233  : 	CString strCode;

  000a3	8d 4d ac	 lea	 ecx, DWORD PTR _strCode$[ebp]
  000a6	ff 15 00 00 00
	00		 call	 DWORD PTR __imp_??0?$CStringT@DV?$StrTraitMFC_DLL@DV?$ChTraitsCRT@D@ATL@@@@@ATL@@QAE@XZ

; 234  : 	char	buf[4];
; 235  : 
; 236  : 	CString strData;

  000ac	8d 4d b0	 lea	 ecx, DWORD PTR _strData$[ebp]
  000af	ff 15 00 00 00
	00		 call	 DWORD PTR __imp_??0?$CStringT@DV?$StrTraitMFC_DLL@DV?$ChTraitsCRT@D@ATL@@@@@ATL@@QAE@XZ

; 237  : 
; 238  : 	BOOL bInsert;
; 239  : 	for (int nIndex = 0; nIndex < nDataCnt; nIndex++)

  000b5	83 7d a4 00	 cmp	 DWORD PTR _nDataCnt$1$[ebp], 0
  000b9	c6 45 fc 02	 mov	 BYTE PTR __$EHRec$[ebp+8], 2
  000bd	c7 45 9c 00 00
	00 00		 mov	 DWORD PTR _nIndex$1$[ebp], 0
  000c4	0f 8e 82 03 00
	00		 jle	 $LN89@ReceiveDat

; 220  : 	RemoveAll();
; 221  : 
; 222  : 	CStringArray saMSTCode;

  000ca	83 c6 04	 add	 esi, 4
  000cd	89 75 98	 mov	 DWORD PTR tv615[ebp], esi
$LL4@ReceiveDat:

; 240  : 	{
; 241  : 		bInsert = FALSE;
; 242  : 		strData = "";

  000d0	68 00 00 00 00	 push	 OFFSET ??_C@_00CNPNBAHC@@
  000d5	8d 4d b0	 lea	 ecx, DWORD PTR _strData$[ebp]
  000d8	33 f6		 xor	 esi, esi
  000da	ff 15 00 00 00
	00		 call	 DWORD PTR __imp_??4?$CStringT@DV?$StrTraitMFC_DLL@DV?$ChTraitsCRT@D@ATL@@@@@ATL@@QAEAAV01@PBD@Z

; 243  : 		memset(&stMSTCode, 0x00, sizeof(MSTCode));
; 244  : 		memcpy(&stMSTCode, (char*)&psData[nPos] + 4, sizeof(MSTCode));

  000e0	8b 4d a0	 mov	 ecx, DWORD PTR _nPos$1$[ebp]
  000e3	8b 55 98	 mov	 edx, DWORD PTR tv615[ebp]
  000e6	0f 10 04 0a	 movups	 xmm0, XMMWORD PTR [edx+ecx]
  000ea	8b 44 0a 28	 mov	 eax, DWORD PTR [edx+ecx+40]
  000ee	89 45 e0	 mov	 DWORD PTR _stMSTCode$[ebp+40], eax
  000f1	8a 44 0a 2c	 mov	 al, BYTE PTR [edx+ecx+44]
  000f5	0f 11 45 b8	 movups	 XMMWORD PTR _stMSTCode$[ebp], xmm0
  000f9	88 45 e4	 mov	 BYTE PTR _stMSTCode$[ebp+44], al
  000fc	0f 10 44 0a 10	 movups	 xmm0, XMMWORD PTR [edx+ecx+16]
  00101	0f 11 45 c8	 movups	 XMMWORD PTR _stMSTCode$[ebp+16], xmm0
  00105	f3 0f 7e 44 0a
	20		 movq	 xmm0, QWORD PTR [edx+ecx+32]

; 245  : 		nPos += sizeof(MSTCode);

  0010b	83 c1 2d	 add	 ecx, 45			; 0000002dH
  0010e	66 0f d6 45 d8	 movq	 QWORD PTR _stMSTCode$[ebp+32], xmm0
  00113	89 4d a0	 mov	 DWORD PTR _nPos$1$[ebp], ecx

; 246  : 		if (nPos >= dwTRDateLen)

  00116	3b 4d 0c	 cmp	 ecx, DWORD PTR _dwTRDateLen$[ebp]
  00119	0f 8d 2d 03 00
	00		 jge	 $LN89@ReceiveDat

; 247  : 			break;
; 248  : 
; 249  : 		strCode.Format("%-7.7s", stMSTCode.sCode);

  0011f	8d 45 b9	 lea	 eax, DWORD PTR _stMSTCode$[ebp+1]
  00122	50		 push	 eax
  00123	8d 45 ac	 lea	 eax, DWORD PTR _strCode$[ebp]
  00126	68 00 00 00 00	 push	 OFFSET ??_C@_06DCPOEFOJ@?$CF?97?47s@
  0012b	50		 push	 eax
  0012c	ff 15 00 00 00
	00		 call	 DWORD PTR __imp_?Format@?$CStringT@DV?$StrTraitMFC_DLL@DV?$ChTraitsCRT@D@ATL@@@@@ATL@@QAAXPBDZZ
  00132	83 c4 0c	 add	 esp, 12			; 0000000cH

; 250  : 		strCode.TrimLeft();

  00135	8d 4d ac	 lea	 ecx, DWORD PTR _strCode$[ebp]
  00138	ff 15 00 00 00
	00		 call	 DWORD PTR __imp_?TrimLeft@?$CStringT@DV?$StrTraitMFC_DLL@DV?$ChTraitsCRT@D@ATL@@@@@ATL@@QAEAAV12@XZ

; 251  : 		strCode.TrimRight();

  0013e	8d 4d ac	 lea	 ecx, DWORD PTR _strCode$[ebp]
  00141	ff 15 00 00 00
	00		 call	 DWORD PTR __imp_?TrimRight@?$CStringT@DV?$StrTraitMFC_DLL@DV?$ChTraitsCRT@D@ATL@@@@@ATL@@QAEAAV12@XZ
; File C:\Program Files (x86)\Microsoft Visual Studio\2019\Community\VC\Tools\MSVC\14.29.30133\atlmfc\include\afxcoll.inl

; 321  : 		SetAtGrow(nIndex, newElement);

  00147	8d 45 ac	 lea	 eax, DWORD PTR _strCode$[ebp]
  0014a	50		 push	 eax
  0014b	ff 75 84	 push	 DWORD PTR _saMSTCode$[ebp+8]
  0014e	8d 8d 7c ff ff
	ff		 lea	 ecx, DWORD PTR _saMSTCode$[ebp]
  00154	e8 00 00 00 00	 call	 ?SetAtGrow@CStringArray@@QAEXHABV?$CStringT@DV?$StrTraitMFC_DLL@DV?$ChTraitsCRT@D@ATL@@@@@ATL@@@Z ; CStringArray::SetAtGrow
; File D:\git\src\IBK\IBK_DRFN\ProjSrc\SrcDrfn\Chart\MULTICHART\CondTarget.cpp

; 255  : 		memcpy(buf, stMSTCode.sUnder, sizeof(stMSTCode.sUnder));

  00159	8a 45 d9	 mov	 al, BYTE PTR _stMSTCode$[ebp+33]
  0015c	89 75 b4	 mov	 DWORD PTR _buf$[ebp], esi
  0015f	88 45 b4	 mov	 BYTE PTR _buf$[ebp], al

; 256  : 		if(atoi(buf) == 1)

  00162	8d 45 b4	 lea	 eax, DWORD PTR _buf$[ebp]
  00165	50		 push	 eax
  00166	ff d7		 call	 edi
  00168	83 c4 04	 add	 esp, 4
  0016b	8d 4d b0	 lea	 ecx, DWORD PTR _strData$[ebp]
  0016e	83 f8 01	 cmp	 eax, 1
  00171	75 12		 jne	 SHORT $LN10@ReceiveDat

; 257  : 		{
; 258  : 			strData += "1";

  00173	68 00 00 00 00	 push	 OFFSET ??_C@_01HIHLOKLC@1@
  00178	ff 15 00 00 00
	00		 call	 DWORD PTR __imp_??Y?$CStringT@DV?$StrTraitMFC_DLL@DV?$ChTraitsCRT@D@ATL@@@@@ATL@@QAEAAV01@PBD@Z

; 259  : 			bInsert = TRUE;

  0017e	be 01 00 00 00	 mov	 esi, 1

; 260  : 		}	

  00183	eb 0b		 jmp	 SHORT $LN11@ReceiveDat
$LN10@ReceiveDat:

; 261  : 		else
; 262  : 			strData += "0";		

  00185	68 00 00 00 00	 push	 OFFSET ??_C@_01GBGANLPD@0@
  0018a	ff 15 00 00 00
	00		 call	 DWORD PTR __imp_??Y?$CStringT@DV?$StrTraitMFC_DLL@DV?$ChTraitsCRT@D@ATL@@@@@ATL@@QAEAAV01@PBD@Z
$LN11@ReceiveDat:

; 263  : 
; 264  : 		memset(buf, 0x00, sizeof(buf));
; 265  : 		memcpy(buf, stMSTCode.sStop, sizeof(stMSTCode.sStop));

  00190	8a 45 da	 mov	 al, BYTE PTR _stMSTCode$[ebp+34]
  00193	c7 45 b4 00 00
	00 00		 mov	 DWORD PTR _buf$[ebp], 0
  0019a	88 45 b4	 mov	 BYTE PTR _buf$[ebp], al

; 266  : 		if(atoi(buf) == 1)

  0019d	8d 45 b4	 lea	 eax, DWORD PTR _buf$[ebp]
  001a0	50		 push	 eax
  001a1	ff d7		 call	 edi
  001a3	83 c4 04	 add	 esp, 4
  001a6	8d 4d b0	 lea	 ecx, DWORD PTR _strData$[ebp]
  001a9	83 f8 01	 cmp	 eax, 1
  001ac	75 12		 jne	 SHORT $LN12@ReceiveDat

; 267  : 		{
; 268  : 			strData += "1";

  001ae	68 00 00 00 00	 push	 OFFSET ??_C@_01HIHLOKLC@1@
  001b3	ff 15 00 00 00
	00		 call	 DWORD PTR __imp_??Y?$CStringT@DV?$StrTraitMFC_DLL@DV?$ChTraitsCRT@D@ATL@@@@@ATL@@QAEAAV01@PBD@Z

; 269  : 			bInsert = TRUE;

  001b9	be 01 00 00 00	 mov	 esi, 1

; 270  : 		}	

  001be	eb 0b		 jmp	 SHORT $LN13@ReceiveDat
$LN12@ReceiveDat:

; 271  : 		else
; 272  : 			strData += "0";

  001c0	68 00 00 00 00	 push	 OFFSET ??_C@_01GBGANLPD@0@
  001c5	ff 15 00 00 00
	00		 call	 DWORD PTR __imp_??Y?$CStringT@DV?$StrTraitMFC_DLL@DV?$ChTraitsCRT@D@ATL@@@@@ATL@@QAEAAV01@PBD@Z
$LN13@ReceiveDat:

; 273  : 
; 274  : 		memset(buf, 0x00, sizeof(buf));
; 275  : 		memcpy(buf, stMSTCode.sJrmm, sizeof(stMSTCode.sJrmm));

  001cb	8a 45 dd	 mov	 al, BYTE PTR _stMSTCode$[ebp+37]
  001ce	c7 45 b4 00 00
	00 00		 mov	 DWORD PTR _buf$[ebp], 0
  001d5	88 45 b4	 mov	 BYTE PTR _buf$[ebp], al

; 276  : 		if(atoi(buf) == 1)

  001d8	8d 45 b4	 lea	 eax, DWORD PTR _buf$[ebp]
  001db	50		 push	 eax
  001dc	ff d7		 call	 edi
  001de	83 c4 04	 add	 esp, 4
  001e1	8d 4d b0	 lea	 ecx, DWORD PTR _strData$[ebp]
  001e4	83 f8 01	 cmp	 eax, 1
  001e7	75 12		 jne	 SHORT $LN14@ReceiveDat

; 277  : 		{
; 278  : 			strData += "1";

  001e9	68 00 00 00 00	 push	 OFFSET ??_C@_01HIHLOKLC@1@
  001ee	ff 15 00 00 00
	00		 call	 DWORD PTR __imp_??Y?$CStringT@DV?$StrTraitMFC_DLL@DV?$ChTraitsCRT@D@ATL@@@@@ATL@@QAEAAV01@PBD@Z

; 279  : 			bInsert = TRUE;

  001f4	be 01 00 00 00	 mov	 esi, 1

; 280  : 		}	

  001f9	eb 0b		 jmp	 SHORT $LN15@ReceiveDat
$LN14@ReceiveDat:

; 281  : 		else
; 282  : 			strData += "0";

  001fb	68 00 00 00 00	 push	 OFFSET ??_C@_01GBGANLPD@0@
  00200	ff 15 00 00 00
	00		 call	 DWORD PTR __imp_??Y?$CStringT@DV?$StrTraitMFC_DLL@DV?$ChTraitsCRT@D@ATL@@@@@ATL@@QAEAAV01@PBD@Z
$LN15@ReceiveDat:

; 283  : 
; 284  : 		memset(buf, 0x00, sizeof(buf));
; 285  : 		memcpy(buf, stMSTCode.sDishonest, sizeof(stMSTCode.sDishonest));

  00206	8a 45 db	 mov	 al, BYTE PTR _stMSTCode$[ebp+35]
  00209	c7 45 b4 00 00
	00 00		 mov	 DWORD PTR _buf$[ebp], 0
  00210	88 45 b4	 mov	 BYTE PTR _buf$[ebp], al

; 286  : 		if(atoi(buf) == 1)

  00213	8d 45 b4	 lea	 eax, DWORD PTR _buf$[ebp]
  00216	50		 push	 eax
  00217	ff d7		 call	 edi
  00219	83 c4 04	 add	 esp, 4
  0021c	8d 4d b0	 lea	 ecx, DWORD PTR _strData$[ebp]
  0021f	83 f8 01	 cmp	 eax, 1
  00222	75 12		 jne	 SHORT $LN16@ReceiveDat

; 287  : 		{
; 288  : 			strData += "1";

  00224	68 00 00 00 00	 push	 OFFSET ??_C@_01HIHLOKLC@1@
  00229	ff 15 00 00 00
	00		 call	 DWORD PTR __imp_??Y?$CStringT@DV?$StrTraitMFC_DLL@DV?$ChTraitsCRT@D@ATL@@@@@ATL@@QAEAAV01@PBD@Z

; 289  : 			bInsert = TRUE;

  0022f	be 01 00 00 00	 mov	 esi, 1

; 290  : 		}	

  00234	eb 0b		 jmp	 SHORT $LN17@ReceiveDat
$LN16@ReceiveDat:

; 291  : 		else
; 292  : 			strData += "0";

  00236	68 00 00 00 00	 push	 OFFSET ??_C@_01GBGANLPD@0@
  0023b	ff 15 00 00 00
	00		 call	 DWORD PTR __imp_??Y?$CStringT@DV?$StrTraitMFC_DLL@DV?$ChTraitsCRT@D@ATL@@@@@ATL@@QAEAAV01@PBD@Z
$LN17@ReceiveDat:

; 293  : 
; 294  : 		memset(buf, 0x00, sizeof(buf));
; 295  : 		memcpy(buf, stMSTCode.sMrktalrm, sizeof(stMSTCode.sMrktalrm));

  00241	8a 45 e1	 mov	 al, BYTE PTR _stMSTCode$[ebp+41]
  00244	c7 45 b4 00 00
	00 00		 mov	 DWORD PTR _buf$[ebp], 0
  0024b	88 45 b4	 mov	 BYTE PTR _buf$[ebp], al

; 296  : 		switch(atoi(buf))

  0024e	8d 45 b4	 lea	 eax, DWORD PTR _buf$[ebp]
  00251	50		 push	 eax
  00252	ff d7		 call	 edi
  00254	48		 dec	 eax
  00255	83 c4 04	 add	 esp, 4
  00258	83 f8 03	 cmp	 eax, 3
  0025b	77 5b		 ja	 SHORT $LN22@ReceiveDat
  0025d	ff 24 85 00 00
	00 00		 jmp	 DWORD PTR $LN97@ReceiveDat[eax*4]
$LN18@ReceiveDat:

; 297  : 		{
; 298  : 		case 1 : strData += "1"; bInsert = TRUE; break;

  00264	68 00 00 00 00	 push	 OFFSET ??_C@_01HIHLOKLC@1@
  00269	8d 4d b0	 lea	 ecx, DWORD PTR _strData$[ebp]
  0026c	ff 15 00 00 00
	00		 call	 DWORD PTR __imp_??Y?$CStringT@DV?$StrTraitMFC_DLL@DV?$ChTraitsCRT@D@ATL@@@@@ATL@@QAEAAV01@PBD@Z
  00272	be 01 00 00 00	 mov	 esi, 1
  00277	eb 4d		 jmp	 SHORT $LN5@ReceiveDat
$LN19@ReceiveDat:

; 299  : 		case 2 : strData += "2"; bInsert = TRUE; break;

  00279	68 00 00 00 00	 push	 OFFSET ??_C@_01FDFGLJHB@2@
  0027e	8d 4d b0	 lea	 ecx, DWORD PTR _strData$[ebp]
  00281	ff 15 00 00 00
	00		 call	 DWORD PTR __imp_??Y?$CStringT@DV?$StrTraitMFC_DLL@DV?$ChTraitsCRT@D@ATL@@@@@ATL@@QAEAAV01@PBD@Z
  00287	be 01 00 00 00	 mov	 esi, 1
  0028c	eb 38		 jmp	 SHORT $LN5@ReceiveDat
$LN20@ReceiveDat:

; 300  : 		case 3 : strData += "3"; bInsert = TRUE; break;

  0028e	68 00 00 00 00	 push	 OFFSET ??_C@_01EKENIIDA@3@
  00293	8d 4d b0	 lea	 ecx, DWORD PTR _strData$[ebp]
  00296	ff 15 00 00 00
	00		 call	 DWORD PTR __imp_??Y?$CStringT@DV?$StrTraitMFC_DLL@DV?$ChTraitsCRT@D@ATL@@@@@ATL@@QAEAAV01@PBD@Z
  0029c	be 01 00 00 00	 mov	 esi, 1
  002a1	eb 23		 jmp	 SHORT $LN5@ReceiveDat
$LN21@ReceiveDat:

; 301  : 		case 4 : strData += "4"; bInsert = TRUE; break;

  002a3	68 00 00 00 00	 push	 OFFSET ??_C@_01FAMBOPH@4@
  002a8	8d 4d b0	 lea	 ecx, DWORD PTR _strData$[ebp]
  002ab	ff 15 00 00 00
	00		 call	 DWORD PTR __imp_??Y?$CStringT@DV?$StrTraitMFC_DLL@DV?$ChTraitsCRT@D@ATL@@@@@ATL@@QAEAAV01@PBD@Z
  002b1	be 01 00 00 00	 mov	 esi, 1
  002b6	eb 0e		 jmp	 SHORT $LN5@ReceiveDat
$LN22@ReceiveDat:

; 302  : 		default: strData += "0";

  002b8	68 00 00 00 00	 push	 OFFSET ??_C@_01GBGANLPD@0@
  002bd	8d 4d b0	 lea	 ecx, DWORD PTR _strData$[ebp]
  002c0	ff 15 00 00 00
	00		 call	 DWORD PTR __imp_??Y?$CStringT@DV?$StrTraitMFC_DLL@DV?$ChTraitsCRT@D@ATL@@@@@ATL@@QAEAAV01@PBD@Z
$LN5@ReceiveDat:

; 303  : 		}
; 304  : 
; 305  : 		memset(buf, 0x00, sizeof(buf));
; 306  : 		memcpy(buf, stMSTCode.sUsjg, sizeof(stMSTCode.sUsjg));

  002c6	8a 45 d8	 mov	 al, BYTE PTR _stMSTCode$[ebp+32]
  002c9	c7 45 b4 00 00
	00 00		 mov	 DWORD PTR _buf$[ebp], 0
  002d0	88 45 b4	 mov	 BYTE PTR _buf$[ebp], al

; 307  : 		if(atoi(buf) == 1)

  002d3	8d 45 b4	 lea	 eax, DWORD PTR _buf$[ebp]
  002d6	50		 push	 eax
  002d7	ff d7		 call	 edi
  002d9	83 c4 04	 add	 esp, 4
  002dc	8d 4d b0	 lea	 ecx, DWORD PTR _strData$[ebp]
  002df	83 f8 01	 cmp	 eax, 1
  002e2	75 12		 jne	 SHORT $LN23@ReceiveDat

; 308  : 		{
; 309  : 			strData += "1";

  002e4	68 00 00 00 00	 push	 OFFSET ??_C@_01HIHLOKLC@1@
  002e9	ff 15 00 00 00
	00		 call	 DWORD PTR __imp_??Y?$CStringT@DV?$StrTraitMFC_DLL@DV?$ChTraitsCRT@D@ATL@@@@@ATL@@QAEAAV01@PBD@Z

; 310  : 			bInsert = TRUE;

  002ef	be 01 00 00 00	 mov	 esi, 1

; 311  : 		}	

  002f4	eb 0b		 jmp	 SHORT $LN24@ReceiveDat
$LN23@ReceiveDat:

; 312  : 		else
; 313  : 			strData += "0";

  002f6	68 00 00 00 00	 push	 OFFSET ??_C@_01GBGANLPD@0@
  002fb	ff 15 00 00 00
	00		 call	 DWORD PTR __imp_??Y?$CStringT@DV?$StrTraitMFC_DLL@DV?$ChTraitsCRT@D@ATL@@@@@ATL@@QAEAAV01@PBD@Z
$LN24@ReceiveDat:

; 314  : 
; 315  : 		memset(buf, 0x00, sizeof(buf));
; 316  : 		memcpy(buf, stMSTCode.sDrat, sizeof(stMSTCode.sDrat));

  00301	66 8b 45 de	 mov	 ax, WORD PTR _stMSTCode$[ebp+38]
  00305	c7 45 b4 00 00
	00 00		 mov	 DWORD PTR _buf$[ebp], 0
  0030c	66 89 45 b4	 mov	 WORD PTR _buf$[ebp], ax
  00310	8a 45 e0	 mov	 al, BYTE PTR _stMSTCode$[ebp+40]
  00313	88 45 b6	 mov	 BYTE PTR _buf$[ebp+2], al

; 317  : 		if(atoi(buf) == 100)

  00316	8d 45 b4	 lea	 eax, DWORD PTR _buf$[ebp]
  00319	50		 push	 eax
  0031a	ff d7		 call	 edi
  0031c	83 c4 04	 add	 esp, 4
  0031f	8d 4d b0	 lea	 ecx, DWORD PTR _strData$[ebp]
  00322	83 f8 64	 cmp	 eax, 100		; 00000064H
  00325	75 12		 jne	 SHORT $LN25@ReceiveDat

; 318  : 		{
; 319  : 			strData += "1";

  00327	68 00 00 00 00	 push	 OFFSET ??_C@_01HIHLOKLC@1@
  0032c	ff 15 00 00 00
	00		 call	 DWORD PTR __imp_??Y?$CStringT@DV?$StrTraitMFC_DLL@DV?$ChTraitsCRT@D@ATL@@@@@ATL@@QAEAAV01@PBD@Z

; 320  : 			bInsert = TRUE;

  00332	be 01 00 00 00	 mov	 esi, 1

; 321  : 		}	

  00337	eb 0b		 jmp	 SHORT $LN26@ReceiveDat
$LN25@ReceiveDat:

; 322  : 		else
; 323  : 			strData += "0";

  00339	68 00 00 00 00	 push	 OFFSET ??_C@_01GBGANLPD@0@
  0033e	ff 15 00 00 00
	00		 call	 DWORD PTR __imp_??Y?$CStringT@DV?$StrTraitMFC_DLL@DV?$ChTraitsCRT@D@ATL@@@@@ATL@@QAEAAV01@PBD@Z
$LN26@ReceiveDat:

; 324  : 
; 325  : 		if (stMSTCode.sETF[0] == '1')

  00344	80 7d e4 31	 cmp	 BYTE PTR _stMSTCode$[ebp+44], 49 ; 00000031H
  00348	8d 4d b0	 lea	 ecx, DWORD PTR _strData$[ebp]
  0034b	75 0d		 jne	 SHORT $LN27@ReceiveDat

; 326  : 		{
; 327  : 			strData += "1";

  0034d	68 00 00 00 00	 push	 OFFSET ??_C@_01HIHLOKLC@1@
  00352	ff 15 00 00 00
	00		 call	 DWORD PTR __imp_??Y?$CStringT@DV?$StrTraitMFC_DLL@DV?$ChTraitsCRT@D@ATL@@@@@ATL@@QAEAAV01@PBD@Z

; 328  : 			bInsert = TRUE;
; 329  : 		}

  00358	eb 0f		 jmp	 SHORT $LN96@ReceiveDat
$LN27@ReceiveDat:

; 330  : 		else
; 331  : 			strData += "0";

  0035a	68 00 00 00 00	 push	 OFFSET ??_C@_01GBGANLPD@0@
  0035f	ff 15 00 00 00
	00		 call	 DWORD PTR __imp_??Y?$CStringT@DV?$StrTraitMFC_DLL@DV?$ChTraitsCRT@D@ATL@@@@@ATL@@QAEAAV01@PBD@Z

; 332  : 
; 333  : 		if(bInsert)

  00365	85 f6		 test	 esi, esi
  00367	74 16		 je	 SHORT $LN29@ReceiveDat
$LN96@ReceiveDat:
; File C:\Program Files (x86)\Microsoft Visual Studio\2019\Community\VC\Tools\MSVC\14.29.30133\atlmfc\include\afxcoll.inl

; 658  : 	{ (*this)[key] = newValue; }

  00369	ff 75 b0	 push	 DWORD PTR _strData$[ebp]
  0036c	8b 4d 94	 mov	 ecx, DWORD PTR tv621[ebp]
  0036f	ff 75 ac	 push	 DWORD PTR _strCode$[ebp]
  00372	e8 00 00 00 00	 call	 ??ACMapStringToString@@QAEAAV?$CStringT@DV?$StrTraitMFC_DLL@DV?$ChTraitsCRT@D@ATL@@@@@ATL@@PBD@Z ; CMapStringToString::operator[]
  00377	8b c8		 mov	 ecx, eax
  00379	ff 15 00 00 00
	00		 call	 DWORD PTR __imp_??4?$CStringT@DV?$StrTraitMFC_DLL@DV?$ChTraitsCRT@D@ATL@@@@@ATL@@QAEAAV01@PBD@Z
$LN29@ReceiveDat:
; File D:\git\src\IBK\IBK_DRFN\ProjSrc\SrcDrfn\Chart\MULTICHART\CondTarget.cpp

; 337  : 		memcpy(buf, stMSTCode.sMonth, sizeof(stMSTCode.sMonth));

  0037f	66 8b 45 e2	 mov	 ax, WORD PTR _stMSTCode$[ebp+42]
  00383	c7 45 b4 00 00
	00 00		 mov	 DWORD PTR _buf$[ebp], 0
  0038a	66 89 45 b4	 mov	 WORD PTR _buf$[ebp], ax

; 338  : 		switch(atoi(buf))

  0038e	8d 45 b4	 lea	 eax, DWORD PTR _buf$[ebp]
  00391	50		 push	 eax
  00392	ff d7		 call	 edi
  00394	48		 dec	 eax
  00395	83 c4 04	 add	 esp, 4
  00398	83 f8 0b	 cmp	 eax, 11			; 0000000bH
  0039b	0f 87 9b 00 00
	00		 ja	 $LN2@ReceiveDat
  003a1	ff 24 85 00 00
	00 00		 jmp	 DWORD PTR $LN98@ReceiveDat[eax*4]
$LN30@ReceiveDat:
; File C:\Program Files (x86)\Microsoft Visual Studio\2019\Community\VC\Tools\MSVC\14.29.30133\atlmfc\include\afxcoll.inl

; 321  : 		SetAtGrow(nIndex, newElement);

  003a8	8d 45 ac	 lea	 eax, DWORD PTR _strCode$[ebp]
  003ab	50		 push	 eax
  003ac	8b 45 90	 mov	 eax, DWORD PTR _this$1$[ebp]
  003af	8b c8		 mov	 ecx, eax
  003b1	ff 70 08	 push	 DWORD PTR [eax+8]
; File D:\git\src\IBK\IBK_DRFN\ProjSrc\SrcDrfn\Chart\MULTICHART\CondTarget.cpp

; 340  : 			case 1 :	m_saMonth[0].Add(strCode);		break;

  003b4	e9 7e 00 00 00	 jmp	 $LN101@ReceiveDat
$LN31@ReceiveDat:

; 341  : 			case 2 :	m_saMonth[1].Add(strCode);		break;

  003b9	8b 4d a8	 mov	 ecx, DWORD PTR _this$GSCopy$1$[ebp]
  003bc	81 c1 98 00 00
	00		 add	 ecx, 152		; 00000098H
  003c2	eb 6c		 jmp	 SHORT $LN102@ReceiveDat
$LN32@ReceiveDat:

; 342  : 			case 3 :	m_saMonth[2].Add(strCode);		break;

  003c4	8b 4d a8	 mov	 ecx, DWORD PTR _this$GSCopy$1$[ebp]
  003c7	81 c1 ac 00 00
	00		 add	 ecx, 172		; 000000acH
  003cd	eb 61		 jmp	 SHORT $LN102@ReceiveDat
$LN33@ReceiveDat:

; 343  : 			case 4 :	m_saMonth[3].Add(strCode);		break;

  003cf	8b 4d a8	 mov	 ecx, DWORD PTR _this$GSCopy$1$[ebp]
  003d2	81 c1 c0 00 00
	00		 add	 ecx, 192		; 000000c0H
  003d8	eb 56		 jmp	 SHORT $LN102@ReceiveDat
$LN34@ReceiveDat:

; 344  : 			case 5 :	m_saMonth[4].Add(strCode);		break;

  003da	8b 4d a8	 mov	 ecx, DWORD PTR _this$GSCopy$1$[ebp]
  003dd	81 c1 d4 00 00
	00		 add	 ecx, 212		; 000000d4H
  003e3	eb 4b		 jmp	 SHORT $LN102@ReceiveDat
$LN35@ReceiveDat:

; 345  : 			case 6 :	m_saMonth[5].Add(strCode);		break;

  003e5	8b 4d a8	 mov	 ecx, DWORD PTR _this$GSCopy$1$[ebp]
  003e8	81 c1 e8 00 00
	00		 add	 ecx, 232		; 000000e8H
  003ee	eb 40		 jmp	 SHORT $LN102@ReceiveDat
$LN36@ReceiveDat:

; 346  : 			case 7 :	m_saMonth[6].Add(strCode);		break;

  003f0	8b 4d a8	 mov	 ecx, DWORD PTR _this$GSCopy$1$[ebp]
  003f3	81 c1 fc 00 00
	00		 add	 ecx, 252		; 000000fcH
  003f9	eb 35		 jmp	 SHORT $LN102@ReceiveDat
$LN37@ReceiveDat:

; 347  : 			case 8 :	m_saMonth[7].Add(strCode);		break;

  003fb	8b 4d a8	 mov	 ecx, DWORD PTR _this$GSCopy$1$[ebp]
  003fe	81 c1 10 01 00
	00		 add	 ecx, 272		; 00000110H
  00404	eb 2a		 jmp	 SHORT $LN102@ReceiveDat
$LN38@ReceiveDat:

; 348  : 			case 9 :	m_saMonth[8].Add(strCode);		break;

  00406	8b 4d a8	 mov	 ecx, DWORD PTR _this$GSCopy$1$[ebp]
  00409	81 c1 24 01 00
	00		 add	 ecx, 292		; 00000124H
  0040f	eb 1f		 jmp	 SHORT $LN102@ReceiveDat
$LN39@ReceiveDat:

; 349  : 			case 10 :	m_saMonth[9].Add(strCode);		break;

  00411	8b 4d a8	 mov	 ecx, DWORD PTR _this$GSCopy$1$[ebp]
  00414	81 c1 38 01 00
	00		 add	 ecx, 312		; 00000138H
  0041a	eb 14		 jmp	 SHORT $LN102@ReceiveDat
$LN40@ReceiveDat:

; 350  : 			case 11 :	m_saMonth[10].Add(strCode);		break;

  0041c	8b 4d a8	 mov	 ecx, DWORD PTR _this$GSCopy$1$[ebp]
  0041f	81 c1 4c 01 00
	00		 add	 ecx, 332		; 0000014cH
  00425	eb 09		 jmp	 SHORT $LN102@ReceiveDat
$LN41@ReceiveDat:

; 351  : 			case 12 :	m_saMonth[11].Add(strCode);		break;

  00427	8b 4d a8	 mov	 ecx, DWORD PTR _this$GSCopy$1$[ebp]
  0042a	81 c1 60 01 00
	00		 add	 ecx, 352		; 00000160H
$LN102@ReceiveDat:

; 237  : 
; 238  : 	BOOL bInsert;
; 239  : 	for (int nIndex = 0; nIndex < nDataCnt; nIndex++)

  00430	8d 45 ac	 lea	 eax, DWORD PTR _strCode$[ebp]
  00433	50		 push	 eax
  00434	ff 71 08	 push	 DWORD PTR [ecx+8]
$LN101@ReceiveDat:
  00437	e8 00 00 00 00	 call	 ?SetAtGrow@CStringArray@@QAEXHABV?$CStringT@DV?$StrTraitMFC_DLL@DV?$ChTraitsCRT@D@ATL@@@@@ATL@@@Z ; CStringArray::SetAtGrow
$LN2@ReceiveDat:
  0043c	8b 45 9c	 mov	 eax, DWORD PTR _nIndex$1$[ebp]
  0043f	40		 inc	 eax
  00440	89 45 9c	 mov	 DWORD PTR _nIndex$1$[ebp], eax
  00443	3b 45 a4	 cmp	 eax, DWORD PTR _nDataCnt$1$[ebp]
  00446	0f 8c 84 fc ff
	ff		 jl	 $LL4@ReceiveDat
$LN89@ReceiveDat:

; 352  : 		}
; 353  : 	}
; 354  : }

  0044c	8d 4d b0	 lea	 ecx, DWORD PTR _strData$[ebp]
  0044f	ff 15 00 00 00
	00		 call	 DWORD PTR __imp_??1?$CStringT@DV?$StrTraitMFC_DLL@DV?$ChTraitsCRT@D@ATL@@@@@ATL@@QAE@XZ
  00455	8d 4d ac	 lea	 ecx, DWORD PTR _strCode$[ebp]
  00458	ff 15 00 00 00
	00		 call	 DWORD PTR __imp_??1?$CStringT@DV?$StrTraitMFC_DLL@DV?$ChTraitsCRT@D@ATL@@@@@ATL@@QAE@XZ
  0045e	8d 8d 7c ff ff
	ff		 lea	 ecx, DWORD PTR _saMSTCode$[ebp]
  00464	e8 00 00 00 00	 call	 ??1CStringArray@@UAE@XZ	; CStringArray::~CStringArray
  00469	8b 4d f4	 mov	 ecx, DWORD PTR __$EHRec$[ebp]
  0046c	64 89 0d 00 00
	00 00		 mov	 DWORD PTR fs:0, ecx
  00473	59		 pop	 ecx
  00474	5f		 pop	 edi
  00475	5e		 pop	 esi
  00476	8b 4d f0	 mov	 ecx, DWORD PTR __$ArrayPad$[ebp]
  00479	33 cd		 xor	 ecx, ebp
  0047b	e8 00 00 00 00	 call	 @__security_check_cookie@4
  00480	8b e5		 mov	 esp, ebp
  00482	5d		 pop	 ebp
  00483	c2 08 00	 ret	 8
  00486	66 90		 npad	 2
$LN97@ReceiveDat:
  00488	00 00 00 00	 DD	 $LN18@ReceiveDat
  0048c	00 00 00 00	 DD	 $LN19@ReceiveDat
  00490	00 00 00 00	 DD	 $LN20@ReceiveDat
  00494	00 00 00 00	 DD	 $LN21@ReceiveDat
$LN98@ReceiveDat:
  00498	00 00 00 00	 DD	 $LN30@ReceiveDat
  0049c	00 00 00 00	 DD	 $LN31@ReceiveDat
  004a0	00 00 00 00	 DD	 $LN32@ReceiveDat
  004a4	00 00 00 00	 DD	 $LN33@ReceiveDat
  004a8	00 00 00 00	 DD	 $LN34@ReceiveDat
  004ac	00 00 00 00	 DD	 $LN35@ReceiveDat
  004b0	00 00 00 00	 DD	 $LN36@ReceiveDat
  004b4	00 00 00 00	 DD	 $LN37@ReceiveDat
  004b8	00 00 00 00	 DD	 $LN38@ReceiveDat
  004bc	00 00 00 00	 DD	 $LN39@ReceiveDat
  004c0	00 00 00 00	 DD	 $LN40@ReceiveDat
  004c4	00 00 00 00	 DD	 $LN41@ReceiveDat
_TEXT	ENDS
;	COMDAT text$x
text$x	SEGMENT
__unwindfunclet$?ReceiveData@CCondTarget@@QAEXPAXJ@Z$0:
  00000	8d 8d 7c ff ff
	ff		 lea	 ecx, DWORD PTR _saMSTCode$[ebp]
  00006	e9 00 00 00 00	 jmp	 ??1CStringArray@@UAE@XZ	; CStringArray::~CStringArray
__unwindfunclet$?ReceiveData@CCondTarget@@QAEXPAXJ@Z$1:
  0000b	8d 4d ac	 lea	 ecx, DWORD PTR _strCode$[ebp]
  0000e	ff 25 00 00 00
	00		 jmp	 DWORD PTR __imp_??1?$CStringT@DV?$StrTraitMFC_DLL@DV?$ChTraitsCRT@D@ATL@@@@@ATL@@QAE@XZ
__unwindfunclet$?ReceiveData@CCondTarget@@QAEXPAXJ@Z$2:
  00014	8d 4d b0	 lea	 ecx, DWORD PTR _strData$[ebp]
  00017	ff 25 00 00 00
	00		 jmp	 DWORD PTR __imp_??1?$CStringT@DV?$StrTraitMFC_DLL@DV?$ChTraitsCRT@D@ATL@@@@@ATL@@QAE@XZ
  0001d	cc		 int	 3
  0001e	cc		 int	 3
  0001f	cc		 int	 3
  00020	cc		 int	 3
  00021	cc		 int	 3
__ehhandler$?ReceiveData@CCondTarget@@QAEXPAXJ@Z:
  00022	90		 npad	 1
  00023	90		 npad	 1
  00024	8b 54 24 08	 mov	 edx, DWORD PTR [esp+8]
  00028	8d 42 0c	 lea	 eax, DWORD PTR [edx+12]
  0002b	8b 8a 7c ff ff
	ff		 mov	 ecx, DWORD PTR [edx-132]
  00031	33 c8		 xor	 ecx, eax
  00033	e8 00 00 00 00	 call	 @__security_check_cookie@4
  00038	8b 4a fc	 mov	 ecx, DWORD PTR [edx-4]
  0003b	33 c8		 xor	 ecx, eax
  0003d	e8 00 00 00 00	 call	 @__security_check_cookie@4
  00042	b8 00 00 00 00	 mov	 eax, OFFSET __ehfuncinfo$?ReceiveData@CCondTarget@@QAEXPAXJ@Z
  00047	e9 00 00 00 00	 jmp	 ___CxxFrameHandler3
text$x	ENDS
?ReceiveData@CCondTarget@@QAEXPAXJ@Z ENDP		; CCondTarget::ReceiveData
; Function compile flags: /Ogtp
; File D:\git\src\IBK\IBK_DRFN\ProjSrc\SrcDrfn\Chart\MULTICHART\CondTarget.cpp
; File C:\Program Files (x86)\Microsoft Visual Studio\2019\Community\VC\Tools\MSVC\14.29.30133\atlmfc\include\afxcoll.inl
; File D:\git\src\IBK\IBK_DRFN\ProjSrc\SrcDrfn\Chart\MULTICHART\CondTarget.cpp
; File C:\Program Files (x86)\Microsoft Visual Studio\2019\Community\VC\Tools\MSVC\14.29.30133\atlmfc\include\afxcoll.inl
; File D:\git\src\IBK\IBK_DRFN\ProjSrc\SrcDrfn\Chart\MULTICHART\CondTarget.cpp
; File C:\Program Files (x86)\Microsoft Visual Studio\2019\Community\VC\Tools\MSVC\14.29.30133\atlmfc\include\afxcoll.inl
; File D:\git\src\IBK\IBK_DRFN\ProjSrc\SrcDrfn\Chart\MULTICHART\CondTarget.cpp
;	COMDAT ?RemoveAll@CCondTarget@@QAEXXZ
_TEXT	SEGMENT
?RemoveAll@CCondTarget@@QAEXXZ PROC			; CCondTarget::RemoveAll, COMDAT
; _this$ = ecx

; 125  : {

  00000	56		 push	 esi
  00001	57		 push	 edi
  00002	8b f1		 mov	 esi, ecx
; File C:\Program Files (x86)\Microsoft Visual Studio\2019\Community\VC\Tools\MSVC\14.29.30133\atlmfc\include\afxcoll.inl

; 286  : 	{ SetSize(0); }

  00004	6a ff		 push	 -1
  00006	6a 00		 push	 0
; File D:\git\src\IBK\IBK_DRFN\ProjSrc\SrcDrfn\Chart\MULTICHART\CondTarget.cpp

; 126  : 	m_arTargetResult.RemoveAll();

  00008	8d 4e 70	 lea	 ecx, DWORD PTR [esi+112]
; File C:\Program Files (x86)\Microsoft Visual Studio\2019\Community\VC\Tools\MSVC\14.29.30133\atlmfc\include\afxcoll.inl

; 286  : 	{ SetSize(0); }

  0000b	e8 00 00 00 00	 call	 ?SetSize@CStringArray@@QAEXHH@Z ; CStringArray::SetSize
; File D:\git\src\IBK\IBK_DRFN\ProjSrc\SrcDrfn\Chart\MULTICHART\CondTarget.cpp

; 127  : 	m_mapExeptItem.RemoveAll();

  00010	8d 8e 74 01 00
	00		 lea	 ecx, DWORD PTR [esi+372]
  00016	e8 00 00 00 00	 call	 ?RemoveAll@CMapStringToString@@QAEXXZ ; CMapStringToString::RemoveAll
; File C:\Program Files (x86)\Microsoft Visual Studio\2019\Community\VC\Tools\MSVC\14.29.30133\atlmfc\include\afxcoll.inl

; 286  : 	{ SetSize(0); }

  0001b	81 c6 84 00 00
	00		 add	 esi, 132		; 00000084H
  00021	bf 0c 00 00 00	 mov	 edi, 12			; 0000000cH
$LL4@RemoveAll:
  00026	6a ff		 push	 -1
  00028	6a 00		 push	 0
  0002a	8b ce		 mov	 ecx, esi
  0002c	e8 00 00 00 00	 call	 ?SetSize@CStringArray@@QAEXHH@Z ; CStringArray::SetSize
; File D:\git\src\IBK\IBK_DRFN\ProjSrc\SrcDrfn\Chart\MULTICHART\CondTarget.cpp

; 128  : 	for (int i=0; i<SZ_MONTHARRAY; i++)

  00031	83 c6 14	 add	 esi, 20			; 00000014H
  00034	83 ef 01	 sub	 edi, 1
  00037	75 ed		 jne	 SHORT $LL4@RemoveAll

; 129  : 		m_saMonth[i].RemoveAll();
; 130  : }

  00039	5f		 pop	 edi
  0003a	5e		 pop	 esi
  0003b	c3		 ret	 0
?RemoveAll@CCondTarget@@QAEXXZ ENDP			; CCondTarget::RemoveAll
_TEXT	ENDS
; Function compile flags: /Ogtp
; File D:\git\src\IBK\IBK_DRFN\ProjSrc\SrcDrfn\Chart\MULTICHART\CondTarget.cpp
; File C:\Program Files (x86)\Microsoft Visual Studio\2019\Community\VC\Tools\MSVC\14.29.30133\atlmfc\include\afxcoll.inl
; File D:\git\src\IBK\IBK_DRFN\ProjSrc\SrcDrfn\Chart\MULTICHART\CondTarget.cpp
; File C:\Program Files (x86)\Microsoft Visual Studio\2019\Community\VC\Tools\MSVC\14.29.30133\atlmfc\include\afxcoll.inl
; File D:\git\src\IBK\IBK_DRFN\ProjSrc\SrcDrfn\Chart\MULTICHART\CondTarget.cpp
; File C:\Program Files (x86)\Microsoft Visual Studio\2019\Community\VC\Tools\MSVC\14.29.30133\atlmfc\include\afxcoll.inl
; File D:\git\src\IBK\IBK_DRFN\ProjSrc\SrcDrfn\Chart\MULTICHART\CondTarget.cpp
; File C:\Program Files (x86)\Microsoft Visual Studio\2019\Community\VC\Tools\MSVC\14.29.30133\atlmfc\include\afxtempl.h
; File D:\git\src\IBK\IBK_DRFN\ProjSrc\SrcDrfn\Chart\MULTICHART\CondTarget.cpp
; File C:\Program Files (x86)\Microsoft Visual Studio\2019\Community\VC\Tools\MSVC\14.29.30133\atlmfc\include\afxtempl.h
; File D:\git\src\IBK\IBK_DRFN\ProjSrc\SrcDrfn\Chart\MULTICHART\CondTarget.cpp
; File C:\Program Files (x86)\Microsoft Visual Studio\2019\Community\VC\Tools\MSVC\14.29.30133\atlmfc\include\afxtempl.h
; File D:\git\src\IBK\IBK_DRFN\ProjSrc\SrcDrfn\Chart\MULTICHART\CondTarget.cpp
; File C:\Program Files (x86)\Microsoft Visual Studio\2019\Community\VC\Tools\MSVC\14.29.30133\atlmfc\include\afxtempl.h
; File D:\git\src\IBK\IBK_DRFN\ProjSrc\SrcDrfn\Chart\MULTICHART\CondTarget.cpp
; File C:\Program Files (x86)\Microsoft Visual Studio\2019\Community\VC\Tools\MSVC\14.29.30133\atlmfc\include\afxtempl.h
; File D:\git\src\IBK\IBK_DRFN\ProjSrc\SrcDrfn\Chart\MULTICHART\CondTarget.cpp
; File C:\Program Files (x86)\Microsoft Visual Studio\2019\Community\VC\Tools\MSVC\14.29.30133\atlmfc\include\afxtempl.h
; File D:\git\src\IBK\IBK_DRFN\ProjSrc\SrcDrfn\Chart\MULTICHART\CondTarget.cpp
; File C:\Program Files (x86)\Microsoft Visual Studio\2019\Community\VC\Tools\MSVC\14.29.30133\atlmfc\include\afxtempl.h
; File D:\git\src\IBK\IBK_DRFN\ProjSrc\SrcDrfn\Chart\MULTICHART\CondTarget.cpp
;	COMDAT ??1CCondTarget@@UAE@XZ
_TEXT	SEGMENT
__$EHRec$ = -12						; size = 12
??1CCondTarget@@UAE@XZ PROC				; CCondTarget::~CCondTarget, COMDAT
; _this$ = ecx

; 81   : {

  00000	55		 push	 ebp
  00001	8b ec		 mov	 ebp, esp
  00003	6a ff		 push	 -1
  00005	68 00 00 00 00	 push	 __ehhandler$??1CCondTarget@@UAE@XZ
  0000a	64 a1 00 00 00
	00		 mov	 eax, DWORD PTR fs:0
  00010	50		 push	 eax
  00011	53		 push	 ebx
  00012	56		 push	 esi
  00013	57		 push	 edi
  00014	a1 00 00 00 00	 mov	 eax, DWORD PTR ___security_cookie
  00019	33 c5		 xor	 eax, ebp
  0001b	50		 push	 eax
  0001c	8d 45 f4	 lea	 eax, DWORD PTR __$EHRec$[ebp]
  0001f	64 a3 00 00 00
	00		 mov	 DWORD PTR fs:0, eax
  00025	8b d9		 mov	 ebx, ecx
; File C:\Program Files (x86)\Microsoft Visual Studio\2019\Community\VC\Tools\MSVC\14.29.30133\atlmfc\include\afxcoll.inl

; 286  : 	{ SetSize(0); }

  00027	6a ff		 push	 -1
; File D:\git\src\IBK\IBK_DRFN\ProjSrc\SrcDrfn\Chart\MULTICHART\CondTarget.cpp

; 126  : 	m_arTargetResult.RemoveAll();

  00029	8d 4b 70	 lea	 ecx, DWORD PTR [ebx+112]

; 81   : {

  0002c	c7 03 00 00 00
	00		 mov	 DWORD PTR [ebx], OFFSET ??_7CCondTarget@@6B@
; File C:\Program Files (x86)\Microsoft Visual Studio\2019\Community\VC\Tools\MSVC\14.29.30133\atlmfc\include\afxcoll.inl

; 286  : 	{ SetSize(0); }

  00032	6a 00		 push	 0
  00034	e8 00 00 00 00	 call	 ?SetSize@CStringArray@@QAEXHH@Z ; CStringArray::SetSize
; File D:\git\src\IBK\IBK_DRFN\ProjSrc\SrcDrfn\Chart\MULTICHART\CondTarget.cpp

; 127  : 	m_mapExeptItem.RemoveAll();

  00039	8d 8b 74 01 00
	00		 lea	 ecx, DWORD PTR [ebx+372]
  0003f	e8 00 00 00 00	 call	 ?RemoveAll@CMapStringToString@@QAEXXZ ; CMapStringToString::RemoveAll
; File C:\Program Files (x86)\Microsoft Visual Studio\2019\Community\VC\Tools\MSVC\14.29.30133\atlmfc\include\afxcoll.inl

; 286  : 	{ SetSize(0); }

  00044	8d b3 84 00 00
	00		 lea	 esi, DWORD PTR [ebx+132]
  0004a	bf 0c 00 00 00	 mov	 edi, 12			; 0000000cH
  0004f	90		 npad	 1
$LL10@CCondTarge:
  00050	6a ff		 push	 -1
  00052	6a 00		 push	 0
  00054	8b ce		 mov	 ecx, esi
  00056	e8 00 00 00 00	 call	 ?SetSize@CStringArray@@QAEXHH@Z ; CStringArray::SetSize
; File D:\git\src\IBK\IBK_DRFN\ProjSrc\SrcDrfn\Chart\MULTICHART\CondTarget.cpp

; 128  : 	for (int i=0; i<SZ_MONTHARRAY; i++)

  0005b	83 c6 14	 add	 esi, 20			; 00000014H
  0005e	83 ef 01	 sub	 edi, 1
  00061	75 ed		 jne	 SHORT $LL10@CCondTarge
; File C:\Program Files (x86)\Microsoft Visual Studio\2019\Community\VC\Tools\MSVC\14.29.30133\atlmfc\include\afxtempl.h

; 1354 : 	{ return (m_nCount == 0) ? NULL : BEFORE_START_POSITION; }

  00063	8b 83 a0 01 00
	00		 mov	 eax, DWORD PTR [ebx+416]
  00069	8b f0		 mov	 esi, eax
  0006b	f7 de		 neg	 esi
  0006d	1b f6		 sbb	 esi, esi
; File D:\git\src\IBK\IBK_DRFN\ProjSrc\SrcDrfn\Chart\MULTICHART\CondTarget.cpp

; 87   : 	while (pos)

  0006f	85 c0		 test	 eax, eax
  00071	0f 84 92 00 00
	00		 je	 $LN3@CCondTarge
  00077	66 0f 1f 84 00
	00 00 00 00	 npad	 9
$LL2@CCondTarge:
; File C:\Program Files (x86)\Microsoft Visual Studio\2019\Community\VC\Tools\MSVC\14.29.30133\atlmfc\include\afxtempl.h

; 1642 : 	ENSURE(m_pHashTable != NULL);  // never call on empty map

  00080	8b 83 98 01 00
	00		 mov	 eax, DWORD PTR [ebx+408]
  00086	85 c0		 test	 eax, eax
  00088	0f 84 d3 01 00
	00		 je	 $LN76@CCondTarge

; 1643 : 
; 1644 : 	CAssoc* pAssocRet = (CAssoc*)rNextPosition;

  0008e	8b fe		 mov	 edi, esi

; 1645 : 	ENSURE(pAssocRet != NULL);

  00090	85 f6		 test	 esi, esi
  00092	0f 84 c9 01 00
	00		 je	 $LN76@CCondTarge

; 1646 : 
; 1647 : 	if (pAssocRet == (CAssoc*) BEFORE_START_POSITION)

  00098	83 fe ff	 cmp	 esi, -1
  0009b	75 27		 jne	 SHORT $LN29@CCondTarge

; 1648 : 	{
; 1649 : 		// find the first association
; 1650 : 		for (UINT nBucket = 0; nBucket < m_nHashTableSize; nBucket++)

  0009d	8b 93 9c 01 00
	00		 mov	 edx, DWORD PTR [ebx+412]
  000a3	33 c9		 xor	 ecx, ecx
  000a5	85 d2		 test	 edx, edx
  000a7	74 1b		 je	 SHORT $LN29@CCondTarge
  000a9	0f 1f 80 00 00
	00 00		 npad	 7
$LL27@CCondTarge:

; 1651 : 		{
; 1652 : 			if ((pAssocRet = m_pHashTable[nBucket]) != NULL)

  000b0	8b 38		 mov	 edi, DWORD PTR [eax]
  000b2	85 ff		 test	 edi, edi
  000b4	75 0e		 jne	 SHORT $LN29@CCondTarge

; 1648 : 	{
; 1649 : 		// find the first association
; 1650 : 		for (UINT nBucket = 0; nBucket < m_nHashTableSize; nBucket++)

  000b6	41		 inc	 ecx
  000b7	83 c0 04	 add	 eax, 4
  000ba	3b ca		 cmp	 ecx, edx
  000bc	0f 83 9f 01 00
	00		 jae	 $LN76@CCondTarge
  000c2	eb ec		 jmp	 SHORT $LL27@CCondTarge
$LN29@CCondTarge:

; 1658 : 	}
; 1659 : 
; 1660 : 	// find next association
; 1661 : 	ASSERT(AfxIsValidAddress(pAssocRet, sizeof(CAssoc)));
; 1662 : 	CAssoc* pAssocNext;
; 1663 : 	if ((pAssocNext = pAssocRet->pNext) == NULL)

  000c4	8b 77 08	 mov	 esi, DWORD PTR [edi+8]
  000c7	85 f6		 test	 esi, esi
  000c9	75 29		 jne	 SHORT $LN73@CCondTarge

; 1664 : 	{
; 1665 : 		// go to next bucket
; 1666 : 		for (UINT nBucket = (pAssocRet->nHashValue % m_nHashTableSize) + 1;

  000cb	8b 8b 9c 01 00
	00		 mov	 ecx, DWORD PTR [ebx+412]
  000d1	33 d2		 xor	 edx, edx
  000d3	8b 47 0c	 mov	 eax, DWORD PTR [edi+12]
  000d6	f7 f1		 div	 ecx
  000d8	42		 inc	 edx

; 1667 : 		  nBucket < m_nHashTableSize; nBucket++)

  000d9	3b d1		 cmp	 edx, ecx
  000db	73 17		 jae	 SHORT $LN73@CCondTarge

; 1668 : 			if ((pAssocNext = m_pHashTable[nBucket]) != NULL)

  000dd	8b 83 98 01 00
	00		 mov	 eax, DWORD PTR [ebx+408]
  000e3	8d 04 90	 lea	 eax, DWORD PTR [eax+edx*4]
$LL33@CCondTarge:
  000e6	8b 30		 mov	 esi, DWORD PTR [eax]
  000e8	85 f6		 test	 esi, esi
  000ea	75 08		 jne	 SHORT $LN73@CCondTarge

; 1667 : 		  nBucket < m_nHashTableSize; nBucket++)

  000ec	42		 inc	 edx
  000ed	83 c0 04	 add	 eax, 4
  000f0	3b d1		 cmp	 edx, ecx
  000f2	72 f2		 jb	 SHORT $LL33@CCondTarge
$LN73@CCondTarge:
; File D:\git\src\IBK\IBK_DRFN\ProjSrc\SrcDrfn\Chart\MULTICHART\CondTarget.cpp

; 90   : 		delete pData;

  000f4	8b 4f 04	 mov	 ecx, DWORD PTR [edi+4]
  000f7	85 c9		 test	 ecx, ecx
  000f9	74 06		 je	 SHORT $LN5@CCondTarge
  000fb	8b 01		 mov	 eax, DWORD PTR [ecx]
  000fd	6a 01		 push	 1
  000ff	ff 10		 call	 DWORD PTR [eax]
$LN5@CCondTarge:

; 87   : 	while (pos)

  00101	85 f6		 test	 esi, esi
  00103	0f 85 77 ff ff
	ff		 jne	 $LL2@CCondTarge
$LN3@CCondTarge:
; File C:\Program Files (x86)\Microsoft Visual Studio\2019\Community\VC\Tools\MSVC\14.29.30133\atlmfc\include\afxtempl.h

; 1446 : 	if (m_pHashTable != NULL)

  00109	8b 83 98 01 00
	00		 mov	 eax, DWORD PTR [ebx+408]
  0010f	85 c0		 test	 eax, eax
  00111	74 13		 je	 SHORT $LN50@CCondTarge

; 1447 : 	{
; 1448 : 		// destroy elements (values and keys)
; 1449 : 		for (UINT nHash = 0; nHash < m_nHashTableSize; nHash++)
; 1450 : 		{
; 1451 : 			CAssoc* pAssoc;
; 1452 : 			for (pAssoc = m_pHashTable[nHash]; pAssoc != NULL;
; 1453 : 			  pAssoc = pAssoc->pNext)
; 1454 : 			{
; 1455 : 				pAssoc->CAssoc::~CAssoc();
; 1456 : 			}
; 1457 : 		}
; 1458 : 
; 1459 : 		// free hash table
; 1460 : 		delete[] m_pHashTable;

  00113	50		 push	 eax
  00114	e8 00 00 00 00	 call	 ??_V@YAXPAX@Z		; operator delete[]
  00119	83 c4 04	 add	 esp, 4

; 1461 : 		m_pHashTable = NULL;

  0011c	c7 83 98 01 00
	00 00 00 00 00	 mov	 DWORD PTR [ebx+408], 0
$LN50@CCondTarge:

; 1462 : 	}
; 1463 : 
; 1464 : 	m_nCount = 0;
; 1465 : 	m_pFreeList = NULL;
; 1466 : 	m_pBlocks->FreeDataChain();

  00126	8b 8b a8 01 00
	00		 mov	 ecx, DWORD PTR [ebx+424]
  0012c	c7 83 a0 01 00
	00 00 00 00 00	 mov	 DWORD PTR [ebx+416], 0
  00136	c7 83 a4 01 00
	00 00 00 00 00	 mov	 DWORD PTR [ebx+420], 0
  00140	e8 00 00 00 00	 call	 ?FreeDataChain@CPlex@@QAEXXZ ; CPlex::FreeDataChain
; File D:\git\src\IBK\IBK_DRFN\ProjSrc\SrcDrfn\Chart\MULTICHART\CondTarget.cpp

; 95   : }

  00145	8d 8b f0 01 00
	00		 lea	 ecx, DWORD PTR [ebx+496]
; File C:\Program Files (x86)\Microsoft Visual Studio\2019\Community\VC\Tools\MSVC\14.29.30133\atlmfc\include\afxtempl.h

; 1467 : 	m_pBlocks = NULL;

  0014b	c7 83 a8 01 00
	00 00 00 00 00	 mov	 DWORD PTR [ebx+424], 0
; File D:\git\src\IBK\IBK_DRFN\ProjSrc\SrcDrfn\Chart\MULTICHART\CondTarget.cpp

; 95   : }

  00155	ff 15 00 00 00
	00		 call	 DWORD PTR __imp_??1?$CStringT@DV?$StrTraitMFC_DLL@DV?$ChTraitsCRT@D@ATL@@@@@ATL@@QAE@XZ
  0015b	8d 8b ec 01 00
	00		 lea	 ecx, DWORD PTR [ebx+492]
  00161	ff 15 00 00 00
	00		 call	 DWORD PTR __imp_??1?$CStringT@DV?$StrTraitMFC_DLL@DV?$ChTraitsCRT@D@ATL@@@@@ATL@@QAE@XZ
  00167	8d 8b e8 01 00
	00		 lea	 ecx, DWORD PTR [ebx+488]
  0016d	ff 15 00 00 00
	00		 call	 DWORD PTR __imp_??1?$CStringT@DV?$StrTraitMFC_DLL@DV?$ChTraitsCRT@D@ATL@@@@@ATL@@QAE@XZ
; File C:\Program Files (x86)\Microsoft Visual Studio\2019\Community\VC\Tools\MSVC\14.29.30133\atlmfc\include\afxtempl.h

; 1446 : 	if (m_pHashTable != NULL)

  00173	8b 83 98 01 00
	00		 mov	 eax, DWORD PTR [ebx+408]

; 1472 : {

  00179	c7 45 fc 00 00
	00 00		 mov	 DWORD PTR __$EHRec$[ebp+8], 0
  00180	c7 83 94 01 00
	00 00 00 00 00	 mov	 DWORD PTR [ebx+404], OFFSET ??_7?$CMap@HHPAVCGetBackData@@PAV1@@@6B@

; 1446 : 	if (m_pHashTable != NULL)

  0018a	85 c0		 test	 eax, eax
  0018c	74 13		 je	 SHORT $LN62@CCondTarge

; 1447 : 	{
; 1448 : 		// destroy elements (values and keys)
; 1449 : 		for (UINT nHash = 0; nHash < m_nHashTableSize; nHash++)
; 1450 : 		{
; 1451 : 			CAssoc* pAssoc;
; 1452 : 			for (pAssoc = m_pHashTable[nHash]; pAssoc != NULL;
; 1453 : 			  pAssoc = pAssoc->pNext)
; 1454 : 			{
; 1455 : 				pAssoc->CAssoc::~CAssoc();
; 1456 : 			}
; 1457 : 		}
; 1458 : 
; 1459 : 		// free hash table
; 1460 : 		delete[] m_pHashTable;

  0018e	50		 push	 eax
  0018f	e8 00 00 00 00	 call	 ??_V@YAXPAX@Z		; operator delete[]
  00194	83 c4 04	 add	 esp, 4

; 1461 : 		m_pHashTable = NULL;

  00197	c7 83 98 01 00
	00 00 00 00 00	 mov	 DWORD PTR [ebx+408], 0
$LN62@CCondTarge:

; 1462 : 	}
; 1463 : 
; 1464 : 	m_nCount = 0;
; 1465 : 	m_pFreeList = NULL;
; 1466 : 	m_pBlocks->FreeDataChain();

  001a1	8b 8b a8 01 00
	00		 mov	 ecx, DWORD PTR [ebx+424]
  001a7	c7 83 a0 01 00
	00 00 00 00 00	 mov	 DWORD PTR [ebx+416], 0
  001b1	c7 83 a4 01 00
	00 00 00 00 00	 mov	 DWORD PTR [ebx+420], 0
  001bb	e8 00 00 00 00	 call	 ?FreeDataChain@CPlex@@QAEXXZ ; CPlex::FreeDataChain
; File D:\git\src\IBK\IBK_DRFN\ProjSrc\SrcDrfn\Chart\MULTICHART\CondTarget.cpp

; 95   : }

  001c0	8d 8b 74 01 00
	00		 lea	 ecx, DWORD PTR [ebx+372]
; File C:\Program Files (x86)\Microsoft Visual Studio\2019\Community\VC\Tools\MSVC\14.29.30133\atlmfc\include\afxtempl.h

; 1467 : 	m_pBlocks = NULL;

  001c6	c7 83 a8 01 00
	00 00 00 00 00	 mov	 DWORD PTR [ebx+424], 0

; 1475 : }

  001d0	c7 45 fc ff ff
	ff ff		 mov	 DWORD PTR __$EHRec$[ebp+8], -1
; File D:\git\src\IBK\IBK_DRFN\ProjSrc\SrcDrfn\Chart\MULTICHART\CondTarget.cpp

; 95   : }

  001d7	e8 00 00 00 00	 call	 ??1CMapStringToString@@UAE@XZ ; CMapStringToString::~CMapStringToString
  001dc	68 00 00 00 00	 push	 OFFSET ??1CStringArray@@UAE@XZ ; CStringArray::~CStringArray
  001e1	6a 0c		 push	 12			; 0000000cH
  001e3	6a 14		 push	 20			; 00000014H
  001e5	8d 83 84 00 00
	00		 lea	 eax, DWORD PTR [ebx+132]
  001eb	50		 push	 eax
  001ec	e8 00 00 00 00	 call	 ??_M@YGXPAXIIP6EX0@Z@Z
  001f1	8d 4b 70	 lea	 ecx, DWORD PTR [ebx+112]
  001f4	e8 00 00 00 00	 call	 ??1CStringArray@@UAE@XZ	; CStringArray::~CStringArray
  001f9	8d 4b 58	 lea	 ecx, DWORD PTR [ebx+88]
  001fc	e8 00 00 00 00	 call	 ??1CStringArray@@UAE@XZ	; CStringArray::~CStringArray
  00201	8d 4b 44	 lea	 ecx, DWORD PTR [ebx+68]
  00204	e8 00 00 00 00	 call	 ??1CStringArray@@UAE@XZ	; CStringArray::~CStringArray
  00209	8d 4b 30	 lea	 ecx, DWORD PTR [ebx+48]
  0020c	e8 00 00 00 00	 call	 ??1CStringArray@@UAE@XZ	; CStringArray::~CStringArray
  00211	8d 4b 1c	 lea	 ecx, DWORD PTR [ebx+28]
  00214	e8 00 00 00 00	 call	 ??1CStringArray@@UAE@XZ	; CStringArray::~CStringArray
  00219	8d 4b 18	 lea	 ecx, DWORD PTR [ebx+24]
  0021c	ff 15 00 00 00
	00		 call	 DWORD PTR __imp_??1?$CStringT@DV?$StrTraitMFC_DLL@DV?$ChTraitsCRT@D@ATL@@@@@ATL@@QAE@XZ
  00222	8d 4b 14	 lea	 ecx, DWORD PTR [ebx+20]
  00225	ff 15 00 00 00
	00		 call	 DWORD PTR __imp_??1?$CStringT@DV?$StrTraitMFC_DLL@DV?$ChTraitsCRT@D@ATL@@@@@ATL@@QAE@XZ
  0022b	8d 4b 10	 lea	 ecx, DWORD PTR [ebx+16]
  0022e	ff 15 00 00 00
	00		 call	 DWORD PTR __imp_??1?$CStringT@DV?$StrTraitMFC_DLL@DV?$ChTraitsCRT@D@ATL@@@@@ATL@@QAE@XZ
  00234	8d 4b 0c	 lea	 ecx, DWORD PTR [ebx+12]
  00237	ff 15 00 00 00
	00		 call	 DWORD PTR __imp_??1?$CStringT@DV?$StrTraitMFC_DLL@DV?$ChTraitsCRT@D@ATL@@@@@ATL@@QAE@XZ
  0023d	8d 4b 08	 lea	 ecx, DWORD PTR [ebx+8]
  00240	ff 15 00 00 00
	00		 call	 DWORD PTR __imp_??1?$CStringT@DV?$StrTraitMFC_DLL@DV?$ChTraitsCRT@D@ATL@@@@@ATL@@QAE@XZ
  00246	8d 4b 04	 lea	 ecx, DWORD PTR [ebx+4]
  00249	ff 15 00 00 00
	00		 call	 DWORD PTR __imp_??1?$CStringT@DV?$StrTraitMFC_DLL@DV?$ChTraitsCRT@D@ATL@@@@@ATL@@QAE@XZ
  0024f	8b 4d f4	 mov	 ecx, DWORD PTR __$EHRec$[ebp]
  00252	64 89 0d 00 00
	00 00		 mov	 DWORD PTR fs:0, ecx
  00259	59		 pop	 ecx
  0025a	5f		 pop	 edi
  0025b	5e		 pop	 esi
  0025c	5b		 pop	 ebx
  0025d	8b e5		 mov	 esp, ebp
  0025f	5d		 pop	 ebp
  00260	c3		 ret	 0
$LN76@CCondTarge:
; File C:\Program Files (x86)\Microsoft Visual Studio\2019\Community\VC\Tools\MSVC\14.29.30133\atlmfc\include\afxtempl.h

; 1657 : 		ENSURE(pAssocRet != NULL);  // must find something

  00261	e8 00 00 00 00	 call	 ?AfxThrowInvalidArgException@@YGXXZ ; AfxThrowInvalidArgException
$LN109@CCondTarge:
  00266	cc		 int	 3
  00267	cc		 int	 3
  00268	cc		 int	 3
  00269	cc		 int	 3
  0026a	cc		 int	 3
  0026b	cc		 int	 3
_TEXT	ENDS
;	COMDAT text$x
text$x	SEGMENT
__ehhandler$??1CCondTarget@@UAE@XZ:
  00000	90		 npad	 1
  00001	90		 npad	 1
  00002	8b 54 24 08	 mov	 edx, DWORD PTR [esp+8]
  00006	8d 42 0c	 lea	 eax, DWORD PTR [edx+12]
  00009	8b 4a f0	 mov	 ecx, DWORD PTR [edx-16]
  0000c	33 c8		 xor	 ecx, eax
  0000e	e8 00 00 00 00	 call	 @__security_check_cookie@4
  00013	b8 00 00 00 00	 mov	 eax, OFFSET __ehfuncinfo$??1CCondTarget@@UAE@XZ
  00018	e9 00 00 00 00	 jmp	 ___CxxFrameHandler3
text$x	ENDS
??1CCondTarget@@UAE@XZ ENDP				; CCondTarget::~CCondTarget
; Function compile flags: /Ogtp
; File D:\git\src\IBK\IBK_DRFN\ProjSrc\SrcDrfn\Chart\MULTICHART\CondTarget.cpp
; File C:\Program Files (x86)\Microsoft Visual Studio\2019\Community\VC\Tools\MSVC\14.29.30133\atlmfc\include\afxtempl.h
; File D:\git\src\IBK\IBK_DRFN\ProjSrc\SrcDrfn\Chart\MULTICHART\CondTarget.cpp
; File D:\git\src\IBK\IBK_DRFN\ProjSrc\SrcDrfn\inc\IBaseDefine.h
; File D:\git\src\IBK\IBK_DRFN\ProjSrc\SrcDrfn\Chart\MULTICHART\CondTarget.cpp
; File C:\Program Files (x86)\Microsoft Visual Studio\2019\Community\VC\Tools\MSVC\14.29.30133\atlmfc\include\afx.inl
; File D:\git\src\IBK\IBK_DRFN\ProjSrc\SrcDrfn\Chart\MULTICHART\CondTarget.cpp
; File C:\Program Files (x86)\Microsoft Visual Studio\2019\Community\VC\Tools\MSVC\14.29.30133\atlmfc\include\afx.inl
; File D:\git\src\IBK\IBK_DRFN\ProjSrc\SrcDrfn\Chart\MULTICHART\CondTarget.cpp
; File C:\Program Files (x86)\Microsoft Visual Studio\2019\Community\VC\Tools\MSVC\14.29.30133\atlmfc\include\afx.inl
; File D:\git\src\IBK\IBK_DRFN\ProjSrc\SrcDrfn\Chart\MULTICHART\CondTarget.cpp
; File C:\Program Files (x86)\Microsoft Visual Studio\2019\Community\VC\Tools\MSVC\14.29.30133\atlmfc\include\afx.inl
; File D:\git\src\IBK\IBK_DRFN\ProjSrc\SrcDrfn\Chart\MULTICHART\CondTarget.cpp
; File C:\Program Files (x86)\Microsoft Visual Studio\2019\Community\VC\Tools\MSVC\14.29.30133\atlmfc\include\afxcoll.inl
; File D:\git\src\IBK\IBK_DRFN\ProjSrc\SrcDrfn\Chart\MULTICHART\CondTarget.cpp
; File C:\Program Files (x86)\Microsoft Visual Studio\2019\Community\VC\Tools\MSVC\14.29.30133\atlmfc\include\afxcoll.inl
; File D:\git\src\IBK\IBK_DRFN\ProjSrc\SrcDrfn\Chart\MULTICHART\CondTarget.cpp
; File C:\Program Files (x86)\Microsoft Visual Studio\2019\Community\VC\Tools\MSVC\14.29.30133\atlmfc\include\afxcoll.inl
; File D:\git\src\IBK\IBK_DRFN\ProjSrc\SrcDrfn\Chart\MULTICHART\CondTarget.cpp
; File C:\Program Files (x86)\Microsoft Visual Studio\2019\Community\VC\Tools\MSVC\14.29.30133\atlmfc\include\afxcoll.inl
; File D:\git\src\IBK\IBK_DRFN\ProjSrc\SrcDrfn\Chart\MULTICHART\CondTarget.cpp
; File C:\Program Files (x86)\Microsoft Visual Studio\2019\Community\VC\Tools\MSVC\14.29.30133\atlmfc\include\afxcoll.inl
; File D:\git\src\IBK\IBK_DRFN\ProjSrc\SrcDrfn\Chart\MULTICHART\CondTarget.cpp
; File C:\Program Files (x86)\Microsoft Visual Studio\2019\Community\VC\Tools\MSVC\14.29.30133\atlmfc\include\afxcoll.inl
; File D:\git\src\IBK\IBK_DRFN\ProjSrc\SrcDrfn\Chart\MULTICHART\CondTarget.cpp
; File C:\Program Files (x86)\Microsoft Visual Studio\2019\Community\VC\Tools\MSVC\14.29.30133\atlmfc\include\afxcoll.inl
; File D:\git\src\IBK\IBK_DRFN\ProjSrc\SrcDrfn\Chart\MULTICHART\CondTarget.cpp
; File C:\Program Files (x86)\Microsoft Visual Studio\2019\Community\VC\Tools\MSVC\14.29.30133\atlmfc\include\afxcoll.inl
; File D:\git\src\IBK\IBK_DRFN\ProjSrc\SrcDrfn\Chart\MULTICHART\CondTarget.cpp
;	COMDAT ??0CCondTarget@@QAE@XZ
_TEXT	SEGMENT
_this$GSCopy$ = -64					; size = 4
$T2 = -60						; size = 4
$T3 = -60						; size = 4
$T4 = -60						; size = 4
_pGateMng$ = -56					; size = 4
_this$ = -56						; size = 4
_parrCode$5 = -52					; size = 4
_parrName$6 = -48					; size = 4
_parEngName$7 = -44					; size = 4
_hMainWnd$8 = -40					; size = 4
_strName$9 = -40					; size = 4
_parKRXName$10 = -36					; size = 4
_szClipFormat$11 = -32					; size = 4
_parKRXCode$12 = -32					; size = 4
_szClipFormat$13 = -32					; size = 4
_aBufWnd$14 = -28					; size = 9
_aBufWnd$15 = -28					; size = 9
__$ArrayPad$ = -16					; size = 4
__$EHRec$ = -12						; size = 12
??0CCondTarget@@QAE@XZ PROC				; CCondTarget::CCondTarget, COMDAT
; _this$ = ecx

; 30   : {

  00000	55		 push	 ebp
  00001	8b ec		 mov	 ebp, esp
  00003	6a ff		 push	 -1
  00005	68 00 00 00 00	 push	 __ehhandler$??0CCondTarget@@QAE@XZ
  0000a	64 a1 00 00 00
	00		 mov	 eax, DWORD PTR fs:0
  00010	50		 push	 eax
  00011	83 ec 34	 sub	 esp, 52			; 00000034H
  00014	a1 00 00 00 00	 mov	 eax, DWORD PTR ___security_cookie
  00019	33 c5		 xor	 eax, ebp
  0001b	89 45 f0	 mov	 DWORD PTR __$ArrayPad$[ebp], eax
  0001e	53		 push	 ebx
  0001f	56		 push	 esi
  00020	57		 push	 edi
  00021	50		 push	 eax
  00022	8d 45 f4	 lea	 eax, DWORD PTR __$EHRec$[ebp]
  00025	64 a3 00 00 00
	00		 mov	 DWORD PTR fs:0, eax
  0002b	8b f9		 mov	 edi, ecx
  0002d	89 7d c8	 mov	 DWORD PTR _this$[ebp], edi
  00030	89 7d c0	 mov	 DWORD PTR _this$GSCopy$[ebp], edi
  00033	8d 4f 04	 lea	 ecx, DWORD PTR [edi+4]
  00036	c7 07 00 00 00
	00		 mov	 DWORD PTR [edi], OFFSET ??_7CCondTarget@@6B@
  0003c	ff 15 00 00 00
	00		 call	 DWORD PTR __imp_??0?$CStringT@DV?$StrTraitMFC_DLL@DV?$ChTraitsCRT@D@ATL@@@@@ATL@@QAE@XZ
  00042	8d 4f 08	 lea	 ecx, DWORD PTR [edi+8]
  00045	c7 45 fc 00 00
	00 00		 mov	 DWORD PTR __$EHRec$[ebp+8], 0
  0004c	ff 15 00 00 00
	00		 call	 DWORD PTR __imp_??0?$CStringT@DV?$StrTraitMFC_DLL@DV?$ChTraitsCRT@D@ATL@@@@@ATL@@QAE@XZ
  00052	8d 4f 0c	 lea	 ecx, DWORD PTR [edi+12]
  00055	ff 15 00 00 00
	00		 call	 DWORD PTR __imp_??0?$CStringT@DV?$StrTraitMFC_DLL@DV?$ChTraitsCRT@D@ATL@@@@@ATL@@QAE@XZ
  0005b	8d 4f 10	 lea	 ecx, DWORD PTR [edi+16]
  0005e	ff 15 00 00 00
	00		 call	 DWORD PTR __imp_??0?$CStringT@DV?$StrTraitMFC_DLL@DV?$ChTraitsCRT@D@ATL@@@@@ATL@@QAE@XZ
  00064	8d 4f 14	 lea	 ecx, DWORD PTR [edi+20]
  00067	ff 15 00 00 00
	00		 call	 DWORD PTR __imp_??0?$CStringT@DV?$StrTraitMFC_DLL@DV?$ChTraitsCRT@D@ATL@@@@@ATL@@QAE@XZ
  0006d	8d 4f 18	 lea	 ecx, DWORD PTR [edi+24]
  00070	ff 15 00 00 00
	00		 call	 DWORD PTR __imp_??0?$CStringT@DV?$StrTraitMFC_DLL@DV?$ChTraitsCRT@D@ATL@@@@@ATL@@QAE@XZ
  00076	8d 77 1c	 lea	 esi, DWORD PTR [edi+28]
  00079	c6 45 fc 05	 mov	 BYTE PTR __$EHRec$[ebp+8], 5
  0007d	8b ce		 mov	 ecx, esi
  0007f	e8 00 00 00 00	 call	 ??0CStringArray@@QAE@XZ	; CStringArray::CStringArray
  00084	8d 4f 30	 lea	 ecx, DWORD PTR [edi+48]
  00087	c6 45 fc 06	 mov	 BYTE PTR __$EHRec$[ebp+8], 6
  0008b	e8 00 00 00 00	 call	 ??0CStringArray@@QAE@XZ	; CStringArray::CStringArray
  00090	8d 4f 44	 lea	 ecx, DWORD PTR [edi+68]
  00093	c6 45 fc 07	 mov	 BYTE PTR __$EHRec$[ebp+8], 7
  00097	e8 00 00 00 00	 call	 ??0CStringArray@@QAE@XZ	; CStringArray::CStringArray
  0009c	8d 4f 58	 lea	 ecx, DWORD PTR [edi+88]
  0009f	c6 45 fc 08	 mov	 BYTE PTR __$EHRec$[ebp+8], 8
  000a3	e8 00 00 00 00	 call	 ??0CStringArray@@QAE@XZ	; CStringArray::CStringArray
  000a8	8d 4f 70	 lea	 ecx, DWORD PTR [edi+112]
  000ab	c6 45 fc 09	 mov	 BYTE PTR __$EHRec$[ebp+8], 9
  000af	e8 00 00 00 00	 call	 ??0CStringArray@@QAE@XZ	; CStringArray::CStringArray
  000b4	68 00 00 00 00	 push	 OFFSET ??1CStringArray@@UAE@XZ ; CStringArray::~CStringArray
  000b9	68 00 00 00 00	 push	 OFFSET ??0CStringArray@@QAE@XZ ; CStringArray::CStringArray
  000be	6a 0c		 push	 12			; 0000000cH
  000c0	6a 14		 push	 20			; 00000014H
  000c2	8d 87 84 00 00
	00		 lea	 eax, DWORD PTR [edi+132]
  000c8	c6 45 fc 0a	 mov	 BYTE PTR __$EHRec$[ebp+8], 10 ; 0000000aH
  000cc	50		 push	 eax
  000cd	e8 00 00 00 00	 call	 ??_L@YGXPAXIIP6EX0@Z1@Z
  000d2	6a 0a		 push	 10			; 0000000aH
  000d4	8d 8f 74 01 00
	00		 lea	 ecx, DWORD PTR [edi+372]
  000da	c6 45 fc 0b	 mov	 BYTE PTR __$EHRec$[ebp+8], 11 ; 0000000bH
  000de	e8 00 00 00 00	 call	 ??0CMapStringToString@@QAE@H@Z ; CMapStringToString::CMapStringToString
; File C:\Program Files (x86)\Microsoft Visual Studio\2019\Community\VC\Tools\MSVC\14.29.30133\atlmfc\include\afxtempl.h

; 1403 : {

  000e3	c7 87 94 01 00
	00 00 00 00 00	 mov	 DWORD PTR [edi+404], OFFSET ??_7?$CMap@HHPAVCGetBackData@@PAV1@@@6B@

; 1404 : 	ASSERT(nBlockSize > 0);
; 1405 : 
; 1406 : 	m_pHashTable = NULL;

  000ed	c7 87 98 01 00
	00 00 00 00 00	 mov	 DWORD PTR [edi+408], 0

; 1407 : 	m_nHashTableSize = 17;  // default size

  000f7	c7 87 9c 01 00
	00 11 00 00 00	 mov	 DWORD PTR [edi+412], 17	; 00000011H

; 1408 : 	m_nCount = 0;

  00101	c7 87 a0 01 00
	00 00 00 00 00	 mov	 DWORD PTR [edi+416], 0

; 1409 : 	m_pFreeList = NULL;

  0010b	c7 87 a4 01 00
	00 00 00 00 00	 mov	 DWORD PTR [edi+420], 0

; 1410 : 	m_pBlocks = NULL;

  00115	c7 87 a8 01 00
	00 00 00 00 00	 mov	 DWORD PTR [edi+424], 0

; 1411 : 	m_nBlockSize = nBlockSize;

  0011f	c7 87 ac 01 00
	00 0a 00 00 00	 mov	 DWORD PTR [edi+428], 10	; 0000000aH
; File D:\git\src\IBK\IBK_DRFN\ProjSrc\SrcDrfn\Chart\MULTICHART\CondTarget.cpp

; 30   : {

  00129	8d 8f e8 01 00
	00		 lea	 ecx, DWORD PTR [edi+488]
  0012f	ff 15 00 00 00
	00		 call	 DWORD PTR __imp_??0?$CStringT@DV?$StrTraitMFC_DLL@DV?$ChTraitsCRT@D@ATL@@@@@ATL@@QAE@XZ
  00135	8d 8f ec 01 00
	00		 lea	 ecx, DWORD PTR [edi+492]
  0013b	ff 15 00 00 00
	00		 call	 DWORD PTR __imp_??0?$CStringT@DV?$StrTraitMFC_DLL@DV?$ChTraitsCRT@D@ATL@@@@@ATL@@QAE@XZ
  00141	8d 8f f0 01 00
	00		 lea	 ecx, DWORD PTR [edi+496]
  00147	ff 15 00 00 00
	00		 call	 DWORD PTR __imp_??0?$CStringT@DV?$StrTraitMFC_DLL@DV?$ChTraitsCRT@D@ATL@@@@@ATL@@QAE@XZ

; 31   : 	m_nKey = 0;
; 32   : 	m_pManager = NULL;
; 33   : 	m_strKRX100Code = "";

  0014d	68 00 00 00 00	 push	 OFFSET ??_C@_00CNPNBAHC@@
  00152	8d 4f 0c	 lea	 ecx, DWORD PTR [edi+12]
  00155	c6 45 fc 10	 mov	 BYTE PTR __$EHRec$[ebp+8], 16 ; 00000010H
  00159	c7 87 90 01 00
	00 00 00 00 00	 mov	 DWORD PTR [edi+400], 0
  00163	c7 47 6c 00 00
	00 00		 mov	 DWORD PTR [edi+108], 0
  0016a	ff 15 00 00 00
	00		 call	 DWORD PTR __imp_??4?$CStringT@DV?$StrTraitMFC_DLL@DV?$ChTraitsCRT@D@ATL@@@@@ATL@@QAEAAV01@PBD@Z

; 34   : 
; 35   : 	IGateManager* pGateMng;
; 36   : 	AfxGetIGateManager(pGateMng);

  00170	c7 45 c8 00 00
	00 00		 mov	 DWORD PTR _pGateMng$[ebp], 0
  00177	0f 57 c0	 xorps	 xmm0, xmm0
  0017a	8d 4d e0	 lea	 ecx, DWORD PTR _szClipFormat$13[ebp]
  0017d	66 0f d6 45 e4	 movq	 QWORD PTR _aBufWnd$15[ebp], xmm0
  00182	c6 45 ec 00	 mov	 BYTE PTR _aBufWnd$15[ebp+8], 0
  00186	ff 15 00 00 00
	00		 call	 DWORD PTR __imp_??0?$CStringT@DV?$StrTraitMFC_DLL@DV?$ChTraitsCRT@D@ATL@@@@@ATL@@QAE@XZ
  0018c	68 00 00 00 00	 push	 OFFSET ??_C@_0M@CBBNGGHM@PcTrMng?4dll@
  00191	c6 45 fc 11	 mov	 BYTE PTR __$EHRec$[ebp+8], 17 ; 00000011H
  00195	ff 15 00 00 00
	00		 call	 DWORD PTR __imp__GetModuleHandleA@4
  0019b	8b 1d 00 00 00
	00		 mov	 ebx, DWORD PTR __imp_?Format@?$CStringT@DV?$StrTraitMFC_DLL@DV?$ChTraitsCRT@D@ATL@@@@@ATL@@QAAXPBDZZ
  001a1	50		 push	 eax
  001a2	68 00 00 00 00	 push	 OFFSET ??_C@_0BD@CMCCCNBF@HANAROIGATEMANAGER@
  001a7	8d 45 e0	 lea	 eax, DWORD PTR _szClipFormat$13[ebp]
  001aa	68 00 00 00 00	 push	 OFFSET ??_C@_06NDLAHCHE@?$CFs?$CF08X@
  001af	50		 push	 eax
  001b0	ff d3		 call	 ebx
  001b2	83 c4 10	 add	 esp, 16			; 00000010H
  001b5	8d 45 e4	 lea	 eax, DWORD PTR _aBufWnd$15[ebp]
  001b8	6a 09		 push	 9
  001ba	50		 push	 eax
  001bb	ff 75 e0	 push	 DWORD PTR _szClipFormat$13[ebp]
  001be	ff 15 00 00 00
	00		 call	 DWORD PTR __imp__GetEnvironmentVariableA@12
  001c4	8d 45 c8	 lea	 eax, DWORD PTR _pGateMng$[ebp]
  001c7	50		 push	 eax
  001c8	8d 45 e4	 lea	 eax, DWORD PTR _aBufWnd$15[ebp]
  001cb	68 00 00 00 00	 push	 OFFSET ??_C@_02EMFKHFLK@?$CFX@
  001d0	50		 push	 eax
  001d1	e8 00 00 00 00	 call	 _sscanf
  001d6	83 c4 0c	 add	 esp, 12			; 0000000cH
  001d9	c6 45 fc 10	 mov	 BYTE PTR __$EHRec$[ebp+8], 16 ; 00000010H
  001dd	8d 4d e0	 lea	 ecx, DWORD PTR _szClipFormat$13[ebp]
  001e0	ff 15 00 00 00
	00		 call	 DWORD PTR __imp_??1?$CStringT@DV?$StrTraitMFC_DLL@DV?$ChTraitsCRT@D@ATL@@@@@ATL@@QAE@XZ

; 37   : 	if (pGateMng)

  001e6	8b 4d c8	 mov	 ecx, DWORD PTR _pGateMng$[ebp]
  001e9	85 c9		 test	 ecx, ecx
  001eb	74 3a		 je	 SHORT $LN5@CCondTarge

; 38   : 	{
; 39   : 		IMainInfoManager* pManager = (IMainInfoManager*)pGateMng->GetInterface(21);

  001ed	8b 01		 mov	 eax, DWORD PTR [ecx]
  001ef	6a 00		 push	 0
  001f1	6a 15		 push	 21			; 00000015H
  001f3	51		 push	 ecx
  001f4	ff 10		 call	 DWORD PTR [eax]
  001f6	8b f0		 mov	 esi, eax

; 40   : 		m_strUserDir.Format("%s", pManager->GetEncUserDir());

  001f8	6a 00		 push	 0
  001fa	56		 push	 esi
  001fb	8b 06		 mov	 eax, DWORD PTR [esi]
  001fd	ff 50 18	 call	 DWORD PTR [eax+24]
  00200	50		 push	 eax
  00201	8d 47 04	 lea	 eax, DWORD PTR [edi+4]
  00204	68 00 00 00 00	 push	 OFFSET ??_C@_02DKCKIIND@?$CFs@
  00209	50		 push	 eax
  0020a	ff d3		 call	 ebx

; 41   : 		m_strRootDir.Format("%s", pManager->GetRootDir());

  0020c	8b 06		 mov	 eax, DWORD PTR [esi]
  0020e	83 c4 0c	 add	 esp, 12			; 0000000cH
  00211	56		 push	 esi
  00212	ff 50 10	 call	 DWORD PTR [eax+16]
  00215	50		 push	 eax
  00216	8d 47 08	 lea	 eax, DWORD PTR [edi+8]
  00219	68 00 00 00 00	 push	 OFFSET ??_C@_02DKCKIIND@?$CFs@
  0021e	50		 push	 eax
  0021f	ff d3		 call	 ebx
  00221	83 c4 0c	 add	 esp, 12			; 0000000cH
  00224	8d 77 1c	 lea	 esi, DWORD PTR [edi+28]
$LN5@CCondTarge:
  00227	0f 57 c0	 xorps	 xmm0, xmm0
; File D:\git\src\IBK\IBK_DRFN\ProjSrc\SrcDrfn\inc\IBaseDefine.h

; 262  : 	AfxGetHanaroMainWnd(hMainWnd);

  0022a	c7 45 d8 00 00
	00 00		 mov	 DWORD PTR _hMainWnd$8[ebp], 0
  00231	8d 4d e0	 lea	 ecx, DWORD PTR _szClipFormat$11[ebp]
  00234	66 0f d6 45 e4	 movq	 QWORD PTR _aBufWnd$14[ebp], xmm0
  00239	c6 45 ec 00	 mov	 BYTE PTR _aBufWnd$14[ebp+8], 0
  0023d	ff 15 00 00 00
	00		 call	 DWORD PTR __imp_??0?$CStringT@DV?$StrTraitMFC_DLL@DV?$ChTraitsCRT@D@ATL@@@@@ATL@@QAE@XZ
  00243	68 00 00 00 00	 push	 OFFSET ??_C@_0M@CBBNGGHM@PcTrMng?4dll@
  00248	c6 45 fc 12	 mov	 BYTE PTR __$EHRec$[ebp+8], 18 ; 00000012H
  0024c	ff 15 00 00 00
	00		 call	 DWORD PTR __imp__GetModuleHandleA@4
  00252	50		 push	 eax
  00253	68 00 00 00 00	 push	 OFFSET ??_C@_0P@IDMAJEGN@HANAROPCTRMAIN@
  00258	8d 45 e0	 lea	 eax, DWORD PTR _szClipFormat$11[ebp]
  0025b	68 00 00 00 00	 push	 OFFSET ??_C@_06NDLAHCHE@?$CFs?$CF08X@
  00260	50		 push	 eax
  00261	ff d3		 call	 ebx
  00263	83 c4 10	 add	 esp, 16			; 00000010H
  00266	8d 45 e4	 lea	 eax, DWORD PTR _aBufWnd$14[ebp]
  00269	6a 09		 push	 9
  0026b	50		 push	 eax
  0026c	ff 75 e0	 push	 DWORD PTR _szClipFormat$11[ebp]
  0026f	ff 15 00 00 00
	00		 call	 DWORD PTR __imp__GetEnvironmentVariableA@12
  00275	8d 45 d8	 lea	 eax, DWORD PTR _hMainWnd$8[ebp]
  00278	50		 push	 eax
  00279	8d 45 e4	 lea	 eax, DWORD PTR _aBufWnd$14[ebp]
  0027c	68 00 00 00 00	 push	 OFFSET ??_C@_02EMFKHFLK@?$CFX@
  00281	50		 push	 eax
  00282	e8 00 00 00 00	 call	 _sscanf
  00287	83 c4 0c	 add	 esp, 12			; 0000000cH
  0028a	c6 45 fc 10	 mov	 BYTE PTR __$EHRec$[ebp+8], 16 ; 00000010H
  0028e	8d 4d e0	 lea	 ecx, DWORD PTR _szClipFormat$11[ebp]
  00291	ff 15 00 00 00
	00		 call	 DWORD PTR __imp_??1?$CStringT@DV?$StrTraitMFC_DLL@DV?$ChTraitsCRT@D@ATL@@@@@ATL@@QAE@XZ

; 263  : 
; 264  : 	return ::SendMessage(hMainWnd, RMSG_INTERFACE, (WPARAM)nID, 0);

  00297	6a 00		 push	 0
  00299	6a 05		 push	 5
  0029b	ff 35 00 00 00
	00		 push	 DWORD PTR ?RMSG_INTERFACE@@3IB
  002a1	ff 75 d8	 push	 DWORD PTR _hMainWnd$8[ebp]
  002a4	ff 15 00 00 00
	00		 call	 DWORD PTR __imp__SendMessageA@16
; File D:\git\src\IBK\IBK_DRFN\ProjSrc\SrcDrfn\Chart\MULTICHART\CondTarget.cpp

; 44   : 	m_pManager = (IMasterDataManagerLast*)AfxGetPctrInterface(UUID_IMasterDataManager);

  002aa	89 47 6c	 mov	 DWORD PTR [edi+108], eax

; 45   : 	if (m_pManager)

  002ad	85 c0		 test	 eax, eax
  002af	0f 84 85 01 00
	00		 je	 $LN6@CCondTarge
; File C:\Program Files (x86)\Microsoft Visual Studio\2019\Community\VC\Tools\MSVC\14.29.30133\atlmfc\include\afx.inl

; 116  : 	{ return ::operator new(nSize); }

  002b5	6a 14		 push	 20			; 00000014H
  002b7	e8 00 00 00 00	 call	 ??2@YAPAXI@Z		; operator new
  002bc	83 c4 04	 add	 esp, 4
; File D:\git\src\IBK\IBK_DRFN\ProjSrc\SrcDrfn\Chart\MULTICHART\CondTarget.cpp

; 47   : 		CStringArray *parEngName = new CStringArray;

  002bf	89 45 c4	 mov	 DWORD PTR $T4[ebp], eax
  002c2	c6 45 fc 13	 mov	 BYTE PTR __$EHRec$[ebp+8], 19 ; 00000013H
  002c6	85 c0		 test	 eax, eax
  002c8	74 09		 je	 SHORT $LN9@CCondTarge
  002ca	8b c8		 mov	 ecx, eax
  002cc	e8 00 00 00 00	 call	 ??0CStringArray@@QAE@XZ	; CStringArray::CStringArray
  002d1	eb 02		 jmp	 SHORT $LN10@CCondTarge
$LN9@CCondTarge:
  002d3	33 c0		 xor	 eax, eax
$LN10@CCondTarge:
  002d5	89 45 d4	 mov	 DWORD PTR _parEngName$7[ebp], eax

; 48   : 		CStringArray *parrCode = &m_arrKSPCode;
; 49   : 		CStringArray *parrName = &m_arrKSPName;
; 50   : 		m_pManager->GetKSPUpMst(parrCode, parrName, parEngName);

  002d8	8d 55 d4	 lea	 edx, DWORD PTR _parEngName$7[ebp]
  002db	6a 00		 push	 0
  002dd	52		 push	 edx
  002de	8d 47 30	 lea	 eax, DWORD PTR [edi+48]
  002e1	89 75 d0	 mov	 DWORD PTR _parrName$6[ebp], esi
  002e4	89 45 cc	 mov	 DWORD PTR _parrCode$5[ebp], eax
  002e7	8d 55 d0	 lea	 edx, DWORD PTR _parrName$6[ebp]
  002ea	8b 47 6c	 mov	 eax, DWORD PTR [edi+108]
  002ed	52		 push	 edx
  002ee	8d 55 cc	 lea	 edx, DWORD PTR _parrCode$5[ebp]
  002f1	c6 45 fc 10	 mov	 BYTE PTR __$EHRec$[ebp+8], 16 ; 00000010H
  002f5	52		 push	 edx
  002f6	8b 08		 mov	 ecx, DWORD PTR [eax]
  002f8	50		 push	 eax
  002f9	ff 51 4c	 call	 DWORD PTR [ecx+76]

; 51   : 
; 52   : 		parrCode = &m_arrKSQCode;

  002fc	8d 47 58	 lea	 eax, DWORD PTR [edi+88]
  002ff	89 45 cc	 mov	 DWORD PTR _parrCode$5[ebp], eax

; 53   : 		parrName = &m_arrKSQName;
; 54   : 		m_pManager->GetKSQUpMst(parrCode, parrName, parEngName);

  00302	8d 55 d4	 lea	 edx, DWORD PTR _parEngName$7[ebp]
  00305	6a 00		 push	 0
  00307	52		 push	 edx
  00308	8d 47 44	 lea	 eax, DWORD PTR [edi+68]
  0030b	89 45 d0	 mov	 DWORD PTR _parrName$6[ebp], eax
  0030e	8d 55 d0	 lea	 edx, DWORD PTR _parrName$6[ebp]
  00311	8b 47 6c	 mov	 eax, DWORD PTR [edi+108]
  00314	52		 push	 edx
  00315	8d 55 cc	 lea	 edx, DWORD PTR _parrCode$5[ebp]
  00318	52		 push	 edx
  00319	8b 08		 mov	 ecx, DWORD PTR [eax]
  0031b	50		 push	 eax
  0031c	ff 51 50	 call	 DWORD PTR [ecx+80]
; File C:\Program Files (x86)\Microsoft Visual Studio\2019\Community\VC\Tools\MSVC\14.29.30133\atlmfc\include\afx.inl

; 116  : 	{ return ::operator new(nSize); }

  0031f	6a 14		 push	 20			; 00000014H
  00321	e8 00 00 00 00	 call	 ??2@YAPAXI@Z		; operator new
  00326	83 c4 04	 add	 esp, 4
; File D:\git\src\IBK\IBK_DRFN\ProjSrc\SrcDrfn\Chart\MULTICHART\CondTarget.cpp

; 56   : 		CStringArray *parKRXName = new CStringArray;

  00329	89 45 c4	 mov	 DWORD PTR $T3[ebp], eax
  0032c	c6 45 fc 14	 mov	 BYTE PTR __$EHRec$[ebp+8], 20 ; 00000014H
  00330	85 c0		 test	 eax, eax
  00332	74 09		 je	 SHORT $LN11@CCondTarge
  00334	8b c8		 mov	 ecx, eax
  00336	e8 00 00 00 00	 call	 ??0CStringArray@@QAE@XZ	; CStringArray::CStringArray
  0033b	eb 02		 jmp	 SHORT $LN12@CCondTarge
$LN11@CCondTarge:
  0033d	33 c0		 xor	 eax, eax
$LN12@CCondTarge:
; File C:\Program Files (x86)\Microsoft Visual Studio\2019\Community\VC\Tools\MSVC\14.29.30133\atlmfc\include\afx.inl

; 116  : 	{ return ::operator new(nSize); }

  0033f	6a 14		 push	 20			; 00000014H
; File D:\git\src\IBK\IBK_DRFN\ProjSrc\SrcDrfn\Chart\MULTICHART\CondTarget.cpp

; 56   : 		CStringArray *parKRXName = new CStringArray;

  00341	c6 45 fc 10	 mov	 BYTE PTR __$EHRec$[ebp+8], 16 ; 00000010H
  00345	89 45 dc	 mov	 DWORD PTR _parKRXName$10[ebp], eax
; File C:\Program Files (x86)\Microsoft Visual Studio\2019\Community\VC\Tools\MSVC\14.29.30133\atlmfc\include\afx.inl

; 116  : 	{ return ::operator new(nSize); }

  00348	e8 00 00 00 00	 call	 ??2@YAPAXI@Z		; operator new
  0034d	83 c4 04	 add	 esp, 4
; File D:\git\src\IBK\IBK_DRFN\ProjSrc\SrcDrfn\Chart\MULTICHART\CondTarget.cpp

; 57   : 		CStringArray *parKRXCode = new CStringArray;

  00350	89 45 c4	 mov	 DWORD PTR $T2[ebp], eax
  00353	c6 45 fc 15	 mov	 BYTE PTR __$EHRec$[ebp+8], 21 ; 00000015H
  00357	85 c0		 test	 eax, eax
  00359	74 09		 je	 SHORT $LN13@CCondTarge
  0035b	8b c8		 mov	 ecx, eax
  0035d	e8 00 00 00 00	 call	 ??0CStringArray@@QAE@XZ	; CStringArray::CStringArray
  00362	eb 02		 jmp	 SHORT $LN14@CCondTarge
$LN13@CCondTarge:
  00364	33 c0		 xor	 eax, eax
$LN14@CCondTarge:

; 58   : 		m_pManager->GetKRXUpMst(parKRXCode, parKRXName, parEngName);

  00366	6a 00		 push	 0
  00368	89 45 e0	 mov	 DWORD PTR _parKRXCode$12[ebp], eax
  0036b	8d 55 d4	 lea	 edx, DWORD PTR _parEngName$7[ebp]
  0036e	8b 47 6c	 mov	 eax, DWORD PTR [edi+108]
  00371	52		 push	 edx
  00372	8d 55 dc	 lea	 edx, DWORD PTR _parKRXName$10[ebp]
  00375	c6 45 fc 10	 mov	 BYTE PTR __$EHRec$[ebp+8], 16 ; 00000010H
  00379	52		 push	 edx
  0037a	8b 08		 mov	 ecx, DWORD PTR [eax]
  0037c	8d 55 e0	 lea	 edx, DWORD PTR _parKRXCode$12[ebp]
  0037f	52		 push	 edx
  00380	50		 push	 eax
  00381	ff 51 6c	 call	 DWORD PTR [ecx+108]

; 59   : 
; 60   : 		CString strName;

  00384	8d 4d d8	 lea	 ecx, DWORD PTR _strName$9[ebp]
  00387	ff 15 00 00 00
	00		 call	 DWORD PTR __imp_??0?$CStringT@DV?$StrTraitMFC_DLL@DV?$ChTraitsCRT@D@ATL@@@@@ATL@@QAE@XZ

; 61   : 		int nSize = parKRXName->GetSize();

  0038d	8b 4d dc	 mov	 ecx, DWORD PTR _parKRXName$10[ebp]

; 62   : 		for (int i=0; i<nSize; i++)

  00390	33 f6		 xor	 esi, esi
  00392	c6 45 fc 16	 mov	 BYTE PTR __$EHRec$[ebp+8], 22 ; 00000016H
  00396	8b 59 08	 mov	 ebx, DWORD PTR [ecx+8]
  00399	85 db		 test	 ebx, ebx
  0039b	7e 42		 jle	 SHORT $LN3@CCondTarge
  0039d	0f 1f 00	 npad	 3
$LL4@CCondTarge:
; File C:\Program Files (x86)\Microsoft Visual Studio\2019\Community\VC\Tools\MSVC\14.29.30133\atlmfc\include\afxcoll.inl

; 289  : 		if( nIndex < 0 || nIndex >= m_nSize )

  003a0	85 f6		 test	 esi, esi
  003a2	0f 88 d0 00 00
	00		 js	 $LN60@CCondTarge
  003a8	3b 71 08	 cmp	 esi, DWORD PTR [ecx+8]
  003ab	0f 8d c7 00 00
	00		 jge	 $LN60@CCondTarge

; 291  : 		return m_pData[nIndex]; }

  003b1	8b 41 04	 mov	 eax, DWORD PTR [ecx+4]
; File D:\git\src\IBK\IBK_DRFN\ProjSrc\SrcDrfn\Chart\MULTICHART\CondTarget.cpp

; 64   : 			strName = parKRXName->GetAt(i);

  003b4	8d 4d d8	 lea	 ecx, DWORD PTR _strName$9[ebp]
; File C:\Program Files (x86)\Microsoft Visual Studio\2019\Community\VC\Tools\MSVC\14.29.30133\atlmfc\include\afxcoll.inl

; 291  : 		return m_pData[nIndex]; }

  003b7	8d 04 b0	 lea	 eax, DWORD PTR [eax+esi*4]
; File D:\git\src\IBK\IBK_DRFN\ProjSrc\SrcDrfn\Chart\MULTICHART\CondTarget.cpp

; 64   : 			strName = parKRXName->GetAt(i);

  003ba	50		 push	 eax
  003bb	ff 15 00 00 00
	00		 call	 DWORD PTR __imp_??4?$CStringT@DV?$StrTraitMFC_DLL@DV?$ChTraitsCRT@D@ATL@@@@@ATL@@QAEAAV01@ABV01@@Z

; 65   : 			if (strName.CompareNoCase(_T("KRX100()")) == 0)

  003c1	68 00 00 00 00	 push	 OFFSET ??_C@_0BB@NJOFBLDN@KRX100?$CI?E?k?G?U?A?v?$LM?v?$CJ@
  003c6	8d 4d d8	 lea	 ecx, DWORD PTR _strName$9[ebp]
  003c9	ff 15 00 00 00
	00		 call	 DWORD PTR __imp_?CompareNoCase@?$CStringT@DV?$StrTraitMFC_DLL@DV?$ChTraitsCRT@D@ATL@@@@@ATL@@QBEHPBD@Z
  003cf	85 c0		 test	 eax, eax
  003d1	0f 84 81 00 00
	00		 je	 $LN75@CCondTarge

; 62   : 		for (int i=0; i<nSize; i++)

  003d7	8b 4d dc	 mov	 ecx, DWORD PTR _parKRXName$10[ebp]
  003da	46		 inc	 esi
  003db	3b f3		 cmp	 esi, ebx
  003dd	7c c1		 jl	 SHORT $LL4@CCondTarge
$LN3@CCondTarge:
; File C:\Program Files (x86)\Microsoft Visual Studio\2019\Community\VC\Tools\MSVC\14.29.30133\atlmfc\include\afxcoll.inl

; 286  : 	{ SetSize(0); }

  003df	6a ff		 push	 -1
  003e1	6a 00		 push	 0
  003e3	e8 00 00 00 00	 call	 ?SetSize@CStringArray@@QAEXHH@Z ; CStringArray::SetSize
; File D:\git\src\IBK\IBK_DRFN\ProjSrc\SrcDrfn\Chart\MULTICHART\CondTarget.cpp

; 72   : 		parKRXName->RemoveAll();	delete parKRXName;

  003e8	8b 4d dc	 mov	 ecx, DWORD PTR _parKRXName$10[ebp]
  003eb	85 c9		 test	 ecx, ecx
  003ed	74 07		 je	 SHORT $LN15@CCondTarge
  003ef	8b 01		 mov	 eax, DWORD PTR [ecx]
  003f1	6a 01		 push	 1
  003f3	ff 50 04	 call	 DWORD PTR [eax+4]
$LN15@CCondTarge:
; File C:\Program Files (x86)\Microsoft Visual Studio\2019\Community\VC\Tools\MSVC\14.29.30133\atlmfc\include\afxcoll.inl

; 286  : 	{ SetSize(0); }

  003f6	8b 4d e0	 mov	 ecx, DWORD PTR _parKRXCode$12[ebp]
  003f9	6a ff		 push	 -1
  003fb	6a 00		 push	 0
  003fd	e8 00 00 00 00	 call	 ?SetSize@CStringArray@@QAEXHH@Z ; CStringArray::SetSize
; File D:\git\src\IBK\IBK_DRFN\ProjSrc\SrcDrfn\Chart\MULTICHART\CondTarget.cpp

; 73   : 		parKRXCode->RemoveAll();	delete parKRXCode;

  00402	8b 4d e0	 mov	 ecx, DWORD PTR _parKRXCode$12[ebp]
  00405	85 c9		 test	 ecx, ecx
  00407	74 07		 je	 SHORT $LN17@CCondTarge
  00409	8b 01		 mov	 eax, DWORD PTR [ecx]
  0040b	6a 01		 push	 1
  0040d	ff 50 04	 call	 DWORD PTR [eax+4]
$LN17@CCondTarge:
; File C:\Program Files (x86)\Microsoft Visual Studio\2019\Community\VC\Tools\MSVC\14.29.30133\atlmfc\include\afxcoll.inl

; 286  : 	{ SetSize(0); }

  00410	8b 4d d4	 mov	 ecx, DWORD PTR _parEngName$7[ebp]
  00413	6a ff		 push	 -1
  00415	6a 00		 push	 0
  00417	e8 00 00 00 00	 call	 ?SetSize@CStringArray@@QAEXHH@Z ; CStringArray::SetSize
; File D:\git\src\IBK\IBK_DRFN\ProjSrc\SrcDrfn\Chart\MULTICHART\CondTarget.cpp

; 74   : 		parEngName->RemoveAll();	delete parEngName;

  0041c	8b 4d d4	 mov	 ecx, DWORD PTR _parEngName$7[ebp]
  0041f	85 c9		 test	 ecx, ecx
  00421	74 07		 je	 SHORT $LN19@CCondTarge
  00423	8b 11		 mov	 edx, DWORD PTR [ecx]
  00425	6a 01		 push	 1
  00427	ff 52 04	 call	 DWORD PTR [edx+4]
$LN19@CCondTarge:

; 75   : 
; 76   : 		DelSpaceInName();

  0042a	8b cf		 mov	 ecx, edi
  0042c	e8 00 00 00 00	 call	 ?DelSpaceInName@CCondTarget@@QAEXXZ ; CCondTarget::DelSpaceInName

; 77   : 	}

  00431	8d 4d d8	 lea	 ecx, DWORD PTR _strName$9[ebp]
  00434	ff 15 00 00 00
	00		 call	 DWORD PTR __imp_??1?$CStringT@DV?$StrTraitMFC_DLL@DV?$ChTraitsCRT@D@ATL@@@@@ATL@@QAE@XZ
$LN6@CCondTarge:

; 78   : }

  0043a	8b c7		 mov	 eax, edi
  0043c	8b 4d f4	 mov	 ecx, DWORD PTR __$EHRec$[ebp]
  0043f	64 89 0d 00 00
	00 00		 mov	 DWORD PTR fs:0, ecx
  00446	59		 pop	 ecx
  00447	5f		 pop	 edi
  00448	5e		 pop	 esi
  00449	5b		 pop	 ebx
  0044a	8b 4d f0	 mov	 ecx, DWORD PTR __$ArrayPad$[ebp]
  0044d	33 cd		 xor	 ecx, ebp
  0044f	e8 00 00 00 00	 call	 @__security_check_cookie@4
  00454	8b e5		 mov	 esp, ebp
  00456	5d		 pop	 ebp
  00457	c3		 ret	 0
$LN75@CCondTarge:
; File C:\Program Files (x86)\Microsoft Visual Studio\2019\Community\VC\Tools\MSVC\14.29.30133\atlmfc\include\afxcoll.inl

; 289  : 		if( nIndex < 0 || nIndex >= m_nSize )

  00458	8b 45 e0	 mov	 eax, DWORD PTR _parKRXCode$12[ebp]
  0045b	3b 70 08	 cmp	 esi, DWORD PTR [eax+8]
  0045e	7d 18		 jge	 SHORT $LN60@CCondTarge

; 291  : 		return m_pData[nIndex]; }

  00460	8b 40 04	 mov	 eax, DWORD PTR [eax+4]
; File D:\git\src\IBK\IBK_DRFN\ProjSrc\SrcDrfn\Chart\MULTICHART\CondTarget.cpp

; 67   : 				m_strKRX100Code = parKRXCode->GetAt(i);

  00463	8d 4f 0c	 lea	 ecx, DWORD PTR [edi+12]
; File C:\Program Files (x86)\Microsoft Visual Studio\2019\Community\VC\Tools\MSVC\14.29.30133\atlmfc\include\afxcoll.inl

; 291  : 		return m_pData[nIndex]; }

  00466	8d 04 b0	 lea	 eax, DWORD PTR [eax+esi*4]
; File D:\git\src\IBK\IBK_DRFN\ProjSrc\SrcDrfn\Chart\MULTICHART\CondTarget.cpp

; 67   : 				m_strKRX100Code = parKRXCode->GetAt(i);

  00469	50		 push	 eax
  0046a	ff 15 00 00 00
	00		 call	 DWORD PTR __imp_??4?$CStringT@DV?$StrTraitMFC_DLL@DV?$ChTraitsCRT@D@ATL@@@@@ATL@@QAEAAV01@ABV01@@Z

; 68   : 				break;

  00470	8b 4d dc	 mov	 ecx, DWORD PTR _parKRXName$10[ebp]
  00473	e9 67 ff ff ff	 jmp	 $LN3@CCondTarge
$LN60@CCondTarge:
; File C:\Program Files (x86)\Microsoft Visual Studio\2019\Community\VC\Tools\MSVC\14.29.30133\atlmfc\include\afxcoll.inl

; 290  : 			AfxThrowInvalidArgException();

  00478	e8 00 00 00 00	 call	 ?AfxThrowInvalidArgException@@YGXXZ ; AfxThrowInvalidArgException
$LN84@CCondTarge:
  0047d	cc		 int	 3
_TEXT	ENDS
;	COMDAT text$x
text$x	SEGMENT
__unwindfunclet$??0CCondTarget@@QAE@XZ$0:
  00000	8b 4d c0	 mov	 ecx, DWORD PTR _this$GSCopy$[ebp]
  00003	83 c1 04	 add	 ecx, 4
  00006	ff 25 00 00 00
	00		 jmp	 DWORD PTR __imp_??1?$CStringT@DV?$StrTraitMFC_DLL@DV?$ChTraitsCRT@D@ATL@@@@@ATL@@QAE@XZ
__unwindfunclet$??0CCondTarget@@QAE@XZ$1:
  0000c	8b 4d c0	 mov	 ecx, DWORD PTR _this$GSCopy$[ebp]
  0000f	83 c1 08	 add	 ecx, 8
  00012	ff 25 00 00 00
	00		 jmp	 DWORD PTR __imp_??1?$CStringT@DV?$StrTraitMFC_DLL@DV?$ChTraitsCRT@D@ATL@@@@@ATL@@QAE@XZ
__unwindfunclet$??0CCondTarget@@QAE@XZ$2:
  00018	8b 4d c0	 mov	 ecx, DWORD PTR _this$GSCopy$[ebp]
  0001b	83 c1 0c	 add	 ecx, 12			; 0000000cH
  0001e	ff 25 00 00 00
	00		 jmp	 DWORD PTR __imp_??1?$CStringT@DV?$StrTraitMFC_DLL@DV?$ChTraitsCRT@D@ATL@@@@@ATL@@QAE@XZ
__unwindfunclet$??0CCondTarget@@QAE@XZ$3:
  00024	8b 4d c0	 mov	 ecx, DWORD PTR _this$GSCopy$[ebp]
  00027	83 c1 10	 add	 ecx, 16			; 00000010H
  0002a	ff 25 00 00 00
	00		 jmp	 DWORD PTR __imp_??1?$CStringT@DV?$StrTraitMFC_DLL@DV?$ChTraitsCRT@D@ATL@@@@@ATL@@QAE@XZ
__unwindfunclet$??0CCondTarget@@QAE@XZ$4:
  00030	8b 4d c0	 mov	 ecx, DWORD PTR _this$GSCopy$[ebp]
  00033	83 c1 14	 add	 ecx, 20			; 00000014H
  00036	ff 25 00 00 00
	00		 jmp	 DWORD PTR __imp_??1?$CStringT@DV?$StrTraitMFC_DLL@DV?$ChTraitsCRT@D@ATL@@@@@ATL@@QAE@XZ
__unwindfunclet$??0CCondTarget@@QAE@XZ$5:
  0003c	8b 4d c0	 mov	 ecx, DWORD PTR _this$GSCopy$[ebp]
  0003f	83 c1 18	 add	 ecx, 24			; 00000018H
  00042	ff 25 00 00 00
	00		 jmp	 DWORD PTR __imp_??1?$CStringT@DV?$StrTraitMFC_DLL@DV?$ChTraitsCRT@D@ATL@@@@@ATL@@QAE@XZ
__unwindfunclet$??0CCondTarget@@QAE@XZ$6:
  00048	8b 4d c0	 mov	 ecx, DWORD PTR _this$GSCopy$[ebp]
  0004b	83 c1 1c	 add	 ecx, 28			; 0000001cH
  0004e	e9 00 00 00 00	 jmp	 ??1CStringArray@@UAE@XZ	; CStringArray::~CStringArray
__unwindfunclet$??0CCondTarget@@QAE@XZ$7:
  00053	8b 4d c0	 mov	 ecx, DWORD PTR _this$GSCopy$[ebp]
  00056	83 c1 30	 add	 ecx, 48			; 00000030H
  00059	e9 00 00 00 00	 jmp	 ??1CStringArray@@UAE@XZ	; CStringArray::~CStringArray
__unwindfunclet$??0CCondTarget@@QAE@XZ$8:
  0005e	8b 4d c0	 mov	 ecx, DWORD PTR _this$GSCopy$[ebp]
  00061	83 c1 44	 add	 ecx, 68			; 00000044H
  00064	e9 00 00 00 00	 jmp	 ??1CStringArray@@UAE@XZ	; CStringArray::~CStringArray
__unwindfunclet$??0CCondTarget@@QAE@XZ$9:
  00069	8b 4d c0	 mov	 ecx, DWORD PTR _this$GSCopy$[ebp]
  0006c	83 c1 58	 add	 ecx, 88			; 00000058H
  0006f	e9 00 00 00 00	 jmp	 ??1CStringArray@@UAE@XZ	; CStringArray::~CStringArray
__unwindfunclet$??0CCondTarget@@QAE@XZ$10:
  00074	8b 4d c0	 mov	 ecx, DWORD PTR _this$GSCopy$[ebp]
  00077	83 c1 70	 add	 ecx, 112		; 00000070H
  0007a	e9 00 00 00 00	 jmp	 ??1CStringArray@@UAE@XZ	; CStringArray::~CStringArray
__unwindfunclet$??0CCondTarget@@QAE@XZ$11:
  0007f	68 00 00 00 00	 push	 OFFSET ??1CStringArray@@UAE@XZ ; CStringArray::~CStringArray
  00084	6a 0c		 push	 12			; 0000000cH
  00086	6a 14		 push	 20			; 00000014H
  00088	8b 45 c0	 mov	 eax, DWORD PTR _this$GSCopy$[ebp]
  0008b	05 84 00 00 00	 add	 eax, 132		; 00000084H
  00090	50		 push	 eax
  00091	e8 00 00 00 00	 call	 ??_M@YGXPAXIIP6EX0@Z@Z
  00096	c3		 ret	 0
__unwindfunclet$??0CCondTarget@@QAE@XZ$12:
  00097	8b 4d c0	 mov	 ecx, DWORD PTR _this$GSCopy$[ebp]
  0009a	81 c1 74 01 00
	00		 add	 ecx, 372		; 00000174H
  000a0	e9 00 00 00 00	 jmp	 ??1CMapStringToString@@UAE@XZ ; CMapStringToString::~CMapStringToString
__unwindfunclet$??0CCondTarget@@QAE@XZ$13:
  000a5	8b 4d c0	 mov	 ecx, DWORD PTR _this$GSCopy$[ebp]
  000a8	81 c1 94 01 00
	00		 add	 ecx, 404		; 00000194H
  000ae	e9 00 00 00 00	 jmp	 ??1?$CMap@HHPAVCGetBackData@@PAV1@@@UAE@XZ ; CMap<int,int,CGetBackData *,CGetBackData *>::~CMap<int,int,CGetBackData *,CGetBackData *>
__unwindfunclet$??0CCondTarget@@QAE@XZ$14:
  000b3	8b 4d c0	 mov	 ecx, DWORD PTR _this$GSCopy$[ebp]
  000b6	81 c1 e8 01 00
	00		 add	 ecx, 488		; 000001e8H
  000bc	ff 25 00 00 00
	00		 jmp	 DWORD PTR __imp_??1?$CStringT@DV?$StrTraitMFC_DLL@DV?$ChTraitsCRT@D@ATL@@@@@ATL@@QAE@XZ
__unwindfunclet$??0CCondTarget@@QAE@XZ$15:
  000c2	8b 4d c0	 mov	 ecx, DWORD PTR _this$GSCopy$[ebp]
  000c5	81 c1 ec 01 00
	00		 add	 ecx, 492		; 000001ecH
  000cb	ff 25 00 00 00
	00		 jmp	 DWORD PTR __imp_??1?$CStringT@DV?$StrTraitMFC_DLL@DV?$ChTraitsCRT@D@ATL@@@@@ATL@@QAE@XZ
__unwindfunclet$??0CCondTarget@@QAE@XZ$16:
  000d1	8b 4d c0	 mov	 ecx, DWORD PTR _this$GSCopy$[ebp]
  000d4	81 c1 f0 01 00
	00		 add	 ecx, 496		; 000001f0H
  000da	ff 25 00 00 00
	00		 jmp	 DWORD PTR __imp_??1?$CStringT@DV?$StrTraitMFC_DLL@DV?$ChTraitsCRT@D@ATL@@@@@ATL@@QAE@XZ
__unwindfunclet$??0CCondTarget@@QAE@XZ$17:
  000e0	8d 4d e0	 lea	 ecx, DWORD PTR _szClipFormat$13[ebp]
  000e3	ff 25 00 00 00
	00		 jmp	 DWORD PTR __imp_??1?$CStringT@DV?$StrTraitMFC_DLL@DV?$ChTraitsCRT@D@ATL@@@@@ATL@@QAE@XZ
__unwindfunclet$??0CCondTarget@@QAE@XZ$22:
  000e9	8d 4d e0	 lea	 ecx, DWORD PTR _szClipFormat$11[ebp]
  000ec	ff 25 00 00 00
	00		 jmp	 DWORD PTR __imp_??1?$CStringT@DV?$StrTraitMFC_DLL@DV?$ChTraitsCRT@D@ATL@@@@@ATL@@QAE@XZ
__unwindfunclet$??0CCondTarget@@QAE@XZ$18:
  000f2	8b 45 c4	 mov	 eax, DWORD PTR $T4[ebp]
  000f5	50		 push	 eax
  000f6	e8 00 00 00 00	 call	 ??3CObject@@SGXPAX@Z	; CObject::operator delete
  000fb	c3		 ret	 0
__unwindfunclet$??0CCondTarget@@QAE@XZ$19:
  000fc	8b 45 c4	 mov	 eax, DWORD PTR $T3[ebp]
  000ff	50		 push	 eax
  00100	e8 00 00 00 00	 call	 ??3CObject@@SGXPAX@Z	; CObject::operator delete
  00105	c3		 ret	 0
__unwindfunclet$??0CCondTarget@@QAE@XZ$20:
  00106	8b 45 c4	 mov	 eax, DWORD PTR $T2[ebp]
  00109	50		 push	 eax
  0010a	e8 00 00 00 00	 call	 ??3CObject@@SGXPAX@Z	; CObject::operator delete
  0010f	c3		 ret	 0
__unwindfunclet$??0CCondTarget@@QAE@XZ$21:
  00110	8d 4d d8	 lea	 ecx, DWORD PTR _strName$9[ebp]
  00113	ff 25 00 00 00
	00		 jmp	 DWORD PTR __imp_??1?$CStringT@DV?$StrTraitMFC_DLL@DV?$ChTraitsCRT@D@ATL@@@@@ATL@@QAE@XZ
  00119	cc		 int	 3
  0011a	cc		 int	 3
  0011b	cc		 int	 3
  0011c	cc		 int	 3
  0011d	cc		 int	 3
__ehhandler$??0CCondTarget@@QAE@XZ:
  0011e	90		 npad	 1
  0011f	90		 npad	 1
  00120	8b 54 24 08	 mov	 edx, DWORD PTR [esp+8]
  00124	8d 42 0c	 lea	 eax, DWORD PTR [edx+12]
  00127	8b 4a bc	 mov	 ecx, DWORD PTR [edx-68]
  0012a	33 c8		 xor	 ecx, eax
  0012c	e8 00 00 00 00	 call	 @__security_check_cookie@4
  00131	8b 4a fc	 mov	 ecx, DWORD PTR [edx-4]
  00134	33 c8		 xor	 ecx, eax
  00136	e8 00 00 00 00	 call	 @__security_check_cookie@4
  0013b	b8 00 00 00 00	 mov	 eax, OFFSET __ehfuncinfo$??0CCondTarget@@QAE@XZ
  00140	e9 00 00 00 00	 jmp	 ___CxxFrameHandler3
text$x	ENDS
??0CCondTarget@@QAE@XZ ENDP				; CCondTarget::CCondTarget
; Function compile flags: /Ogtp
; File D:\git\src\IBK\IBK_DRFN\ProjSrc\SrcDrfn\Chart\MULTICHART\CondTarget.h
;	COMDAT ??_GCGetBackData@@UAEPAXI@Z
_TEXT	SEGMENT
___flags$ = 8						; size = 4
??_GCGetBackData@@UAEPAXI@Z PROC			; CGetBackData::`scalar deleting destructor', COMDAT
; _this$ = ecx
  00000	55		 push	 ebp
  00001	8b ec		 mov	 ebp, esp

; 18   : 	virtual ~CGetBackData()	{};

  00003	56		 push	 esi
  00004	8b f1		 mov	 esi, ecx
  00006	8d 4e 04	 lea	 ecx, DWORD PTR [esi+4]
  00009	c7 06 00 00 00
	00		 mov	 DWORD PTR [esi], OFFSET ??_7CGetBackData@@6B@
  0000f	ff 15 00 00 00
	00		 call	 DWORD PTR __imp_??1?$CStringT@DV?$StrTraitMFC_DLL@DV?$ChTraitsCRT@D@ATL@@@@@ATL@@QAE@XZ
  00015	f6 45 08 01	 test	 BYTE PTR ___flags$[ebp], 1
  00019	74 0b		 je	 SHORT $LN7@scalar
  0001b	6a 0c		 push	 12			; 0000000cH
  0001d	56		 push	 esi
  0001e	e8 00 00 00 00	 call	 ??3@YAXPAXI@Z		; operator delete
  00023	83 c4 08	 add	 esp, 8
$LN7@scalar:
  00026	8b c6		 mov	 eax, esi
  00028	5e		 pop	 esi
  00029	5d		 pop	 ebp
  0002a	c2 04 00	 ret	 4
??_GCGetBackData@@UAEPAXI@Z ENDP			; CGetBackData::`scalar deleting destructor'
_TEXT	ENDS
; Function compile flags: /Ogtp
; File D:\git\src\IBK\IBK_DRFN\ProjSrc\SrcDrfn\Chart\MULTICHART\CondTarget.h
;	COMDAT ??1CGetBackData@@UAE@XZ
_TEXT	SEGMENT
??1CGetBackData@@UAE@XZ PROC				; CGetBackData::~CGetBackData, COMDAT
; _this$ = ecx

; 18   : 	virtual ~CGetBackData()	{};

  00000	c7 01 00 00 00
	00		 mov	 DWORD PTR [ecx], OFFSET ??_7CGetBackData@@6B@
  00006	83 c1 04	 add	 ecx, 4
  00009	ff 25 00 00 00
	00		 jmp	 DWORD PTR __imp_??1?$CStringT@DV?$StrTraitMFC_DLL@DV?$ChTraitsCRT@D@ATL@@@@@ATL@@QAE@XZ
??1CGetBackData@@UAE@XZ ENDP				; CGetBackData::~CGetBackData
_TEXT	ENDS
; Function compile flags: /Ogtp
; File C:\Program Files (x86)\Microsoft Visual Studio\2019\Community\VC\Tools\MSVC\14.29.30133\atlmfc\include\atlcomcli.h
;	COMDAT ??_Estringdispid@CComTypeInfoHolder@ATL@@QAEPAXI@Z
_TEXT	SEGMENT
__$EHRec$ = -12						; size = 12
___flags$ = 8						; size = 4
??_Estringdispid@CComTypeInfoHolder@ATL@@QAEPAXI@Z PROC	; ATL::CComTypeInfoHolder::stringdispid::`vector deleting destructor', COMDAT
; _this$ = ecx
  00000	55		 push	 ebp
  00001	8b ec		 mov	 ebp, esp
  00003	6a ff		 push	 -1
  00005	68 00 00 00 00	 push	 __ehhandler$??_Estringdispid@CComTypeInfoHolder@ATL@@QAEPAXI@Z
  0000a	64 a1 00 00 00
	00		 mov	 eax, DWORD PTR fs:0
  00010	50		 push	 eax
  00011	53		 push	 ebx
  00012	56		 push	 esi
  00013	57		 push	 edi
  00014	a1 00 00 00 00	 mov	 eax, DWORD PTR ___security_cookie
  00019	33 c5		 xor	 eax, ebp
  0001b	50		 push	 eax
  0001c	8d 45 f4	 lea	 eax, DWORD PTR __$EHRec$[ebp]
  0001f	64 a3 00 00 00
	00		 mov	 DWORD PTR fs:0, eax
  00025	8b f1		 mov	 esi, ecx
  00027	8b 45 08	 mov	 eax, DWORD PTR ___flags$[ebp]
  0002a	8b d8		 mov	 ebx, eax
  0002c	83 e3 01	 and	 ebx, 1
  0002f	a8 02		 test	 al, 2
  00031	74 43		 je	 SHORT $LN2@vector
  00033	68 00 00 00 00	 push	 OFFSET ??1stringdispid@CComTypeInfoHolder@ATL@@QAE@XZ
  00038	ff 76 fc	 push	 DWORD PTR [esi-4]
  0003b	8d 7e fc	 lea	 edi, DWORD PTR [esi-4]
  0003e	6a 0c		 push	 12			; 0000000cH
  00040	56		 push	 esi
  00041	e8 00 00 00 00	 call	 ??_M@YGXPAXIIP6EX0@Z@Z
  00046	85 db		 test	 ebx, ebx
  00048	74 16		 je	 SHORT $LN3@vector
  0004a	8b 0f		 mov	 ecx, DWORD PTR [edi]
  0004c	8d 0c 49	 lea	 ecx, DWORD PTR [ecx+ecx*2]
  0004f	8d 0c 8d 04 00
	00 00		 lea	 ecx, DWORD PTR [ecx*4+4]
  00056	51		 push	 ecx
  00057	57		 push	 edi
  00058	e8 00 00 00 00	 call	 ??_V@YAXPAXI@Z		; operator delete[]
  0005d	83 c4 08	 add	 esp, 8
$LN3@vector:
  00060	8b c7		 mov	 eax, edi
  00062	8b 4d f4	 mov	 ecx, DWORD PTR __$EHRec$[ebp]
  00065	64 89 0d 00 00
	00 00		 mov	 DWORD PTR fs:0, ecx
  0006c	59		 pop	 ecx
  0006d	5f		 pop	 edi
  0006e	5e		 pop	 esi
  0006f	5b		 pop	 ebx
  00070	8b e5		 mov	 esp, ebp
  00072	5d		 pop	 ebp
  00073	c2 04 00	 ret	 4
$LN2@vector:

; 1680 :     ::SysFreeString(m_str);

  00076	ff 36		 push	 DWORD PTR [esi]
  00078	ff 15 00 00 00
	00		 call	 DWORD PTR __imp__SysFreeString@4
  0007e	85 db		 test	 ebx, ebx
  00080	74 0b		 je	 SHORT $LN4@vector
  00082	6a 0c		 push	 12			; 0000000cH
  00084	56		 push	 esi
  00085	e8 00 00 00 00	 call	 ??3@YAXPAXI@Z		; operator delete
  0008a	83 c4 08	 add	 esp, 8
$LN4@vector:
  0008d	8b c6		 mov	 eax, esi
  0008f	8b 4d f4	 mov	 ecx, DWORD PTR __$EHRec$[ebp]
  00092	64 89 0d 00 00
	00 00		 mov	 DWORD PTR fs:0, ecx
  00099	59		 pop	 ecx
  0009a	5f		 pop	 edi
  0009b	5e		 pop	 esi
  0009c	5b		 pop	 ebx
  0009d	8b e5		 mov	 esp, ebp
  0009f	5d		 pop	 ebp
  000a0	c2 04 00	 ret	 4
  000a3	cc		 int	 3
  000a4	cc		 int	 3
  000a5	cc		 int	 3
  000a6	cc		 int	 3
  000a7	cc		 int	 3
_TEXT	ENDS
;	COMDAT text$x
text$x	SEGMENT
__ehhandler$??_Estringdispid@CComTypeInfoHolder@ATL@@QAEPAXI@Z:
  00000	90		 npad	 1
  00001	90		 npad	 1
  00002	8b 54 24 08	 mov	 edx, DWORD PTR [esp+8]
  00006	8d 42 0c	 lea	 eax, DWORD PTR [edx+12]
  00009	8b 4a f0	 mov	 ecx, DWORD PTR [edx-16]
  0000c	33 c8		 xor	 ecx, eax
  0000e	e8 00 00 00 00	 call	 @__security_check_cookie@4
  00013	b8 00 00 00 00	 mov	 eax, OFFSET __ehfuncinfo$??_Estringdispid@CComTypeInfoHolder@ATL@@QAEPAXI@Z
  00018	e9 00 00 00 00	 jmp	 ___CxxFrameHandler3
text$x	ENDS
??_Estringdispid@CComTypeInfoHolder@ATL@@QAEPAXI@Z ENDP	; ATL::CComTypeInfoHolder::stringdispid::`vector deleting destructor'
; Function compile flags: /Ogtp
; File C:\Program Files (x86)\Microsoft Visual Studio\2019\Community\VC\Tools\MSVC\14.29.30133\atlmfc\include\atlcomcli.h
;	COMDAT ??1stringdispid@CComTypeInfoHolder@ATL@@QAE@XZ
_TEXT	SEGMENT
??1stringdispid@CComTypeInfoHolder@ATL@@QAE@XZ PROC	; ATL::CComTypeInfoHolder::stringdispid::~stringdispid, COMDAT
; _this$ = ecx

; 1680 :     ::SysFreeString(m_str);

  00000	ff 31		 push	 DWORD PTR [ecx]
  00002	ff 15 00 00 00
	00		 call	 DWORD PTR __imp__SysFreeString@4
  00008	c3		 ret	 0
??1stringdispid@CComTypeInfoHolder@ATL@@QAE@XZ ENDP	; ATL::CComTypeInfoHolder::stringdispid::~stringdispid
_TEXT	ENDS
; Function compile flags: /Ogtp
; File D:\git\src\IBK\IBK_DRFN\ProjSrc\SrcDrfn\Chart\MULTICHART\define\ChartMsgDef.h
;	COMDAT ??__ERMSG_SETINFO@@YAXXZ
text$di	SEGMENT
??__ERMSG_SETINFO@@YAXXZ PROC				; `dynamic initializer for 'RMSG_SETINFO'', COMDAT

; 238  : const UINT RMSG_SETINFO = ::RegisterWindowMessage(_T("RMSG_SETINFO"));

  00000	68 00 00 00 00	 push	 OFFSET ??_C@_0N@HABLPHJG@RMSG_SETINFO@
  00005	ff 15 00 00 00
	00		 call	 DWORD PTR __imp__RegisterWindowMessageA@4
  0000b	a3 00 00 00 00	 mov	 DWORD PTR ?RMSG_SETINFO@@3IB, eax
  00010	c3		 ret	 0
??__ERMSG_SETINFO@@YAXXZ ENDP				; `dynamic initializer for 'RMSG_SETINFO''
text$di	ENDS
; Function compile flags: /Ogtp
; File D:\git\src\IBK\IBK_DRFN\ProjSrc\SrcDrfn\Chart\MULTICHART\define\ChartMsgDef.h
;	COMDAT ??__ERMSG_GETINFO@@YAXXZ
text$di	SEGMENT
??__ERMSG_GETINFO@@YAXXZ PROC				; `dynamic initializer for 'RMSG_GETINFO'', COMDAT

; 237  : const UINT RMSG_GETINFO = ::RegisterWindowMessage(_T("RMSG_GETINFO"));

  00000	68 00 00 00 00	 push	 OFFSET ??_C@_0N@IIOKMIEH@RMSG_GETINFO@
  00005	ff 15 00 00 00
	00		 call	 DWORD PTR __imp__RegisterWindowMessageA@4
  0000b	a3 00 00 00 00	 mov	 DWORD PTR ?RMSG_GETINFO@@3IB, eax
  00010	c3		 ret	 0
??__ERMSG_GETINFO@@YAXXZ ENDP				; `dynamic initializer for 'RMSG_GETINFO''
text$di	ENDS
; Function compile flags: /Ogtp
; File D:\git\src\IBK\IBK_DRFN\ProjSrc\SrcDrfn\Chart\MULTICHART\define\ChartMsgDef.h
;	COMDAT ??__ERMSG_SETINITIALCHARTDATA@@YAXXZ
text$di	SEGMENT
??__ERMSG_SETINITIALCHARTDATA@@YAXXZ PROC		; `dynamic initializer for 'RMSG_SETINITIALCHARTDATA'', COMDAT

; 235  : const UINT RMSG_SETINITIALCHARTDATA = ::RegisterWindowMessage(_T("RMSG_SETINITIALCHARTDATA"));

  00000	68 00 00 00 00	 push	 OFFSET ??_C@_0BJ@OGNAJHHI@RMSG_SETINITIALCHARTDATA@
  00005	ff 15 00 00 00
	00		 call	 DWORD PTR __imp__RegisterWindowMessageA@4
  0000b	a3 00 00 00 00	 mov	 DWORD PTR ?RMSG_SETINITIALCHARTDATA@@3IB, eax
  00010	c3		 ret	 0
??__ERMSG_SETINITIALCHARTDATA@@YAXXZ ENDP		; `dynamic initializer for 'RMSG_SETINITIALCHARTDATA''
text$di	ENDS
; Function compile flags: /Ogtp
; File D:\git\src\IBK\IBK_DRFN\ProjSrc\SrcDrfn\Chart\MULTICHART\define\ChartMsgDef.h
;	COMDAT ??__ERMSG_ADD_PLATFORM_MENU@@YAXXZ
text$di	SEGMENT
??__ERMSG_ADD_PLATFORM_MENU@@YAXXZ PROC			; `dynamic initializer for 'RMSG_ADD_PLATFORM_MENU'', COMDAT

; 233  : const UINT RMSG_ADD_PLATFORM_MENU = ::RegisterWindowMessage(_T("RMSG_ADD_PLATFORM_MENU"));

  00000	68 00 00 00 00	 push	 OFFSET ??_C@_0BH@IFDMIMBP@RMSG_ADD_PLATFORM_MENU@
  00005	ff 15 00 00 00
	00		 call	 DWORD PTR __imp__RegisterWindowMessageA@4
  0000b	a3 00 00 00 00	 mov	 DWORD PTR ?RMSG_ADD_PLATFORM_MENU@@3IB, eax
  00010	c3		 ret	 0
??__ERMSG_ADD_PLATFORM_MENU@@YAXXZ ENDP			; `dynamic initializer for 'RMSG_ADD_PLATFORM_MENU''
text$di	ENDS
; Function compile flags: /Ogtp
; File D:\git\src\IBK\IBK_DRFN\ProjSrc\SrcDrfn\Chart\MULTICHART\define\ChartMsgDef.h
;	COMDAT ??__ERMSG_CHANGE_CROSSLINE@@YAXXZ
text$di	SEGMENT
??__ERMSG_CHANGE_CROSSLINE@@YAXXZ PROC			; `dynamic initializer for 'RMSG_CHANGE_CROSSLINE'', COMDAT

; 231  : const UINT RMSG_CHANGE_CROSSLINE = ::RegisterWindowMessage(_T("RMSG_CHANGE_CROSSLINE"));

  00000	68 00 00 00 00	 push	 OFFSET ??_C@_0BG@LNLCJKPF@RMSG_CHANGE_CROSSLINE@
  00005	ff 15 00 00 00
	00		 call	 DWORD PTR __imp__RegisterWindowMessageA@4
  0000b	a3 00 00 00 00	 mov	 DWORD PTR ?RMSG_CHANGE_CROSSLINE@@3IB, eax
  00010	c3		 ret	 0
??__ERMSG_CHANGE_CROSSLINE@@YAXXZ ENDP			; `dynamic initializer for 'RMSG_CHANGE_CROSSLINE''
text$di	ENDS
; Function compile flags: /Ogtp
; File D:\git\src\IBK\IBK_DRFN\ProjSrc\SrcDrfn\Chart\MULTICHART\define\ChartMsgDef.h
;	COMDAT ??__ERMSG_CHANGEVERTSCALETYPE@@YAXXZ
text$di	SEGMENT
??__ERMSG_CHANGEVERTSCALETYPE@@YAXXZ PROC		; `dynamic initializer for 'RMSG_CHANGEVERTSCALETYPE'', COMDAT

; 229  : const UINT RMSG_CHANGEVERTSCALETYPE = ::RegisterWindowMessage(_T("RMSG_CHANGEVERTSCALETYPE"));

  00000	68 00 00 00 00	 push	 OFFSET ??_C@_0BJ@JLKHIBIK@RMSG_CHANGEVERTSCALETYPE@
  00005	ff 15 00 00 00
	00		 call	 DWORD PTR __imp__RegisterWindowMessageA@4
  0000b	a3 00 00 00 00	 mov	 DWORD PTR ?RMSG_CHANGEVERTSCALETYPE@@3IB, eax
  00010	c3		 ret	 0
??__ERMSG_CHANGEVERTSCALETYPE@@YAXXZ ENDP		; `dynamic initializer for 'RMSG_CHANGEVERTSCALETYPE''
text$di	ENDS
; Function compile flags: /Ogtp
; File D:\git\src\IBK\IBK_DRFN\ProjSrc\SrcDrfn\Chart\MULTICHART\define\ChartMsgDef.h
;	COMDAT ??__ERMSG_GET_SKINCOLOR@@YAXXZ
text$di	SEGMENT
??__ERMSG_GET_SKINCOLOR@@YAXXZ PROC			; `dynamic initializer for 'RMSG_GET_SKINCOLOR'', COMDAT

; 226  : const UINT RMSG_GET_SKINCOLOR = ::RegisterWindowMessage(_T("RMSG_GET_SKINCOLOR"));

  00000	68 00 00 00 00	 push	 OFFSET ??_C@_0BD@FLDNDDHK@RMSG_GET_SKINCOLOR@
  00005	ff 15 00 00 00
	00		 call	 DWORD PTR __imp__RegisterWindowMessageA@4
  0000b	a3 00 00 00 00	 mov	 DWORD PTR ?RMSG_GET_SKINCOLOR@@3IB, eax
  00010	c3		 ret	 0
??__ERMSG_GET_SKINCOLOR@@YAXXZ ENDP			; `dynamic initializer for 'RMSG_GET_SKINCOLOR''
text$di	ENDS
; Function compile flags: /Ogtp
; File D:\git\src\IBK\IBK_DRFN\ProjSrc\SrcDrfn\Chart\MULTICHART\define\ChartMsgDef.h
;	COMDAT ??__ERMSG_CHANGE_SKINCOLOR@@YAXXZ
text$di	SEGMENT
??__ERMSG_CHANGE_SKINCOLOR@@YAXXZ PROC			; `dynamic initializer for 'RMSG_CHANGE_SKINCOLOR'', COMDAT

; 225  : const UINT RMSG_CHANGE_SKINCOLOR = ::RegisterWindowMessage(_T("RMSG_CHANGE_SKINCOLOR"));

  00000	68 00 00 00 00	 push	 OFFSET ??_C@_0BG@CNPAHNGG@RMSG_CHANGE_SKINCOLOR@
  00005	ff 15 00 00 00
	00		 call	 DWORD PTR __imp__RegisterWindowMessageA@4
  0000b	a3 00 00 00 00	 mov	 DWORD PTR ?RMSG_CHANGE_SKINCOLOR@@3IB, eax
  00010	c3		 ret	 0
??__ERMSG_CHANGE_SKINCOLOR@@YAXXZ ENDP			; `dynamic initializer for 'RMSG_CHANGE_SKINCOLOR''
text$di	ENDS
; Function compile flags: /Ogtp
; File D:\git\src\IBK\IBK_DRFN\ProjSrc\SrcDrfn\Chart\MULTICHART\define\ChartMsgDef.h
;	COMDAT ??__ERMSG_GET_USERID@@YAXXZ
text$di	SEGMENT
??__ERMSG_GET_USERID@@YAXXZ PROC			; `dynamic initializer for 'RMSG_GET_USERID'', COMDAT

; 215  : const UINT RMSG_GET_USERID = ::RegisterWindowMessage(_T("RMSG_GET_USERID"));	// User ID 

  00000	68 00 00 00 00	 push	 OFFSET ??_C@_0BA@HKNFENJL@RMSG_GET_USERID@
  00005	ff 15 00 00 00
	00		 call	 DWORD PTR __imp__RegisterWindowMessageA@4
  0000b	a3 00 00 00 00	 mov	 DWORD PTR ?RMSG_GET_USERID@@3IB, eax
  00010	c3		 ret	 0
??__ERMSG_GET_USERID@@YAXXZ ENDP			; `dynamic initializer for 'RMSG_GET_USERID''
text$di	ENDS
; Function compile flags: /Ogtp
; File D:\git\src\IBK\IBK_DRFN\ProjSrc\SrcDrfn\Chart\MULTICHART\define\ChartMsgDef.h
;	COMDAT ??__ERMS_ANALYSIS_FUNC@@YAXXZ
text$di	SEGMENT
??__ERMS_ANALYSIS_FUNC@@YAXXZ PROC			; `dynamic initializer for 'RMS_ANALYSIS_FUNC'', COMDAT

; 211  : const UINT RMS_ANALYSIS_FUNC	= ::RegisterWindowMessage(_T("RMS_ANALYSIS_FUNC"));

  00000	68 00 00 00 00	 push	 OFFSET ??_C@_0BC@MMPGLPDH@RMS_ANALYSIS_FUNC@
  00005	ff 15 00 00 00
	00		 call	 DWORD PTR __imp__RegisterWindowMessageA@4
  0000b	a3 00 00 00 00	 mov	 DWORD PTR ?RMS_ANALYSIS_FUNC@@3IB, eax
  00010	c3		 ret	 0
??__ERMS_ANALYSIS_FUNC@@YAXXZ ENDP			; `dynamic initializer for 'RMS_ANALYSIS_FUNC''
text$di	ENDS
; Function compile flags: /Ogtp
; File D:\git\src\IBK\IBK_DRFN\ProjSrc\SrcDrfn\Chart\MULTICHART\define\ChartMsgDef.h
;	COMDAT ??__ERMSG_CHARTMAIN@@YAXXZ
text$di	SEGMENT
??__ERMSG_CHARTMAIN@@YAXXZ PROC				; `dynamic initializer for 'RMSG_CHARTMAIN'', COMDAT

; 208  : const UINT RMSG_CHARTMAIN		= ::RegisterWindowMessage(_T("RMSG_CHARTMAIN"));

  00000	68 00 00 00 00	 push	 OFFSET ??_C@_0P@KHFCBIOH@RMSG_CHARTMAIN@
  00005	ff 15 00 00 00
	00		 call	 DWORD PTR __imp__RegisterWindowMessageA@4
  0000b	a3 00 00 00 00	 mov	 DWORD PTR ?RMSG_CHARTMAIN@@3IB, eax
  00010	c3		 ret	 0
??__ERMSG_CHARTMAIN@@YAXXZ ENDP				; `dynamic initializer for 'RMSG_CHARTMAIN''
text$di	ENDS
; Function compile flags: /Ogtp
; File D:\git\src\IBK\IBK_DRFN\ProjSrc\SrcDrfn\Chart\MULTICHART\define\ChartMsgDef.h
;	COMDAT ??__ERMSG_SETQUERYOPT@@YAXXZ
text$di	SEGMENT
??__ERMSG_SETQUERYOPT@@YAXXZ PROC			; `dynamic initializer for 'RMSG_SETQUERYOPT'', COMDAT

; 183  : const UINT RMSG_SETQUERYOPT = ::RegisterWindowMessage(_T("RMSG_SETQUERYOPT"));

  00000	68 00 00 00 00	 push	 OFFSET ??_C@_0BB@CNOFPEHG@RMSG_SETQUERYOPT@
  00005	ff 15 00 00 00
	00		 call	 DWORD PTR __imp__RegisterWindowMessageA@4
  0000b	a3 00 00 00 00	 mov	 DWORD PTR ?RMSG_SETQUERYOPT@@3IB, eax
  00010	c3		 ret	 0
??__ERMSG_SETQUERYOPT@@YAXXZ ENDP			; `dynamic initializer for 'RMSG_SETQUERYOPT''
text$di	ENDS
; Function compile flags: /Ogtp
; File D:\git\src\IBK\IBK_DRFN\ProjSrc\SrcDrfn\Chart\commontr\TRDefine.h
;	COMDAT ??__ERMSG_GETSIGNAL_REAL@@YAXXZ
text$di	SEGMENT
??__ERMSG_GETSIGNAL_REAL@@YAXXZ PROC			; `dynamic initializer for 'RMSG_GETSIGNAL_REAL'', COMDAT

; 213  : const UINT RMSG_GETSIGNAL_REAL = ::RegisterWindowMessage(_T("RMSG_GETSIGNAL_REAL"));

  00000	68 00 00 00 00	 push	 OFFSET ??_C@_0BE@FJPKENOB@RMSG_GETSIGNAL_REAL@
  00005	ff 15 00 00 00
	00		 call	 DWORD PTR __imp__RegisterWindowMessageA@4
  0000b	a3 00 00 00 00	 mov	 DWORD PTR ?RMSG_GETSIGNAL_REAL@@3IB, eax
  00010	c3		 ret	 0
??__ERMSG_GETSIGNAL_REAL@@YAXXZ ENDP			; `dynamic initializer for 'RMSG_GETSIGNAL_REAL''
text$di	ENDS
; Function compile flags: /Ogtp
; File D:\git\src\IBK\IBK_DRFN\ProjSrc\SrcDrfn\Chart\chart_common\ReplayChartInfoDef.h
;	COMDAT ??__ERMSG_REPLAY_TOTAL_SEC@@YAXXZ
text$di	SEGMENT
??__ERMSG_REPLAY_TOTAL_SEC@@YAXXZ PROC			; `dynamic initializer for 'RMSG_REPLAY_TOTAL_SEC'', COMDAT

; 97   : 	const UINT RMSG_REPLAY_TOTAL_SEC = ::RegisterWindowMessage(_T("RMSG_REPLAY_TOTAL_SEC"));		//  () 

  00000	68 00 00 00 00	 push	 OFFSET ??_C@_0BG@GIAJEIJF@RMSG_REPLAY_TOTAL_SEC@
  00005	ff 15 00 00 00
	00		 call	 DWORD PTR __imp__RegisterWindowMessageA@4
  0000b	a3 00 00 00 00	 mov	 DWORD PTR ?RMSG_REPLAY_TOTAL_SEC@@3IB, eax
  00010	c3		 ret	 0
??__ERMSG_REPLAY_TOTAL_SEC@@YAXXZ ENDP			; `dynamic initializer for 'RMSG_REPLAY_TOTAL_SEC''
text$di	ENDS
; Function compile flags: /Ogtp
; File D:\git\src\IBK\IBK_DRFN\ProjSrc\SrcDrfn\Chart\chart_common\ReplayChartInfoDef.h
;	COMDAT ??__ERMSG_REPLAY_INC_SEC@@YAXXZ
text$di	SEGMENT
??__ERMSG_REPLAY_INC_SEC@@YAXXZ PROC			; `dynamic initializer for 'RMSG_REPLAY_INC_SEC'', COMDAT

; 96   : 	const UINT RMSG_REPLAY_INC_SEC = ::RegisterWindowMessage(_T("RMSG_REPLAY_INC_SEC"));			// 1   

  00000	68 00 00 00 00	 push	 OFFSET ??_C@_0BE@JFCIMCIP@RMSG_REPLAY_INC_SEC@
  00005	ff 15 00 00 00
	00		 call	 DWORD PTR __imp__RegisterWindowMessageA@4
  0000b	a3 00 00 00 00	 mov	 DWORD PTR ?RMSG_REPLAY_INC_SEC@@3IB, eax
  00010	c3		 ret	 0
??__ERMSG_REPLAY_INC_SEC@@YAXXZ ENDP			; `dynamic initializer for 'RMSG_REPLAY_INC_SEC''
text$di	ENDS
; Function compile flags: /Ogtp
; File D:\git\src\IBK\IBK_DRFN\ProjSrc\SrcDrfn\Chart\chart_common\ReplayChartInfoDef.h
;	COMDAT ??__ERMSG_REPLAY_END@@YAXXZ
text$di	SEGMENT
??__ERMSG_REPLAY_END@@YAXXZ PROC			; `dynamic initializer for 'RMSG_REPLAY_END'', COMDAT

; 95   : 	const UINT RMSG_REPLAY_END			= ::RegisterWindowMessage(_T("RMSG_REPLAY_END"));

  00000	68 00 00 00 00	 push	 OFFSET ??_C@_0BA@NKHHCPON@RMSG_REPLAY_END@
  00005	ff 15 00 00 00
	00		 call	 DWORD PTR __imp__RegisterWindowMessageA@4
  0000b	a3 00 00 00 00	 mov	 DWORD PTR ?RMSG_REPLAY_END@@3IB, eax
  00010	c3		 ret	 0
??__ERMSG_REPLAY_END@@YAXXZ ENDP			; `dynamic initializer for 'RMSG_REPLAY_END''
text$di	ENDS
; Function compile flags: /Ogtp
; File D:\git\src\IBK\IBK_DRFN\ProjSrc\SrcDrfn\Chart\chart_common\ReplayChartInfoDef.h
;	COMDAT ??__ERMSG_REPLAY_CHANGE_DATE@@YAXXZ
text$di	SEGMENT
??__ERMSG_REPLAY_CHANGE_DATE@@YAXXZ PROC		; `dynamic initializer for 'RMSG_REPLAY_CHANGE_DATE'', COMDAT

; 94   : 	const UINT RMSG_REPLAY_CHANGE_DATE	= ::RegisterWindowMessage(_T("RMSG_REPLAY_CHANGE_DATE"));

  00000	68 00 00 00 00	 push	 OFFSET ??_C@_0BI@KDGAIIMD@RMSG_REPLAY_CHANGE_DATE@
  00005	ff 15 00 00 00
	00		 call	 DWORD PTR __imp__RegisterWindowMessageA@4
  0000b	a3 00 00 00 00	 mov	 DWORD PTR ?RMSG_REPLAY_CHANGE_DATE@@3IB, eax
  00010	c3		 ret	 0
??__ERMSG_REPLAY_CHANGE_DATE@@YAXXZ ENDP		; `dynamic initializer for 'RMSG_REPLAY_CHANGE_DATE''
text$di	ENDS
; Function compile flags: /Ogtp
; File D:\git\src\IBK\IBK_DRFN\ProjSrc\SrcDrfn\Chart\chart_common\ReplayChartInfoDef.h
;	COMDAT ??__ERMSG_REPLAY_FAIL@@YAXXZ
text$di	SEGMENT
??__ERMSG_REPLAY_FAIL@@YAXXZ PROC			; `dynamic initializer for 'RMSG_REPLAY_FAIL'', COMDAT

; 93   : 	const UINT RMSG_REPLAY_FAIL			= ::RegisterWindowMessage(_T("RMSG_REPLAY_FAIL"));

  00000	68 00 00 00 00	 push	 OFFSET ??_C@_0BB@JFLGBADG@RMSG_REPLAY_FAIL@
  00005	ff 15 00 00 00
	00		 call	 DWORD PTR __imp__RegisterWindowMessageA@4
  0000b	a3 00 00 00 00	 mov	 DWORD PTR ?RMSG_REPLAY_FAIL@@3IB, eax
  00010	c3		 ret	 0
??__ERMSG_REPLAY_FAIL@@YAXXZ ENDP			; `dynamic initializer for 'RMSG_REPLAY_FAIL''
text$di	ENDS
; Function compile flags: /Ogtp
; File D:\git\src\IBK\IBK_DRFN\ProjSrc\SrcDrfn\Chart\chart_common\ReplayChartInfoDef.h
;	COMDAT ??__ERMSG_REPLAY_REAL@@YAXXZ
text$di	SEGMENT
??__ERMSG_REPLAY_REAL@@YAXXZ PROC			; `dynamic initializer for 'RMSG_REPLAY_REAL'', COMDAT

; 92   : 	const UINT RMSG_REPLAY_REAL			= ::RegisterWindowMessage(_T("RMSG_REPLAY_REAL"));

  00000	68 00 00 00 00	 push	 OFFSET ??_C@_0BB@IBKHOHJL@RMSG_REPLAY_REAL@
  00005	ff 15 00 00 00
	00		 call	 DWORD PTR __imp__RegisterWindowMessageA@4
  0000b	a3 00 00 00 00	 mov	 DWORD PTR ?RMSG_REPLAY_REAL@@3IB, eax
  00010	c3		 ret	 0
??__ERMSG_REPLAY_REAL@@YAXXZ ENDP			; `dynamic initializer for 'RMSG_REPLAY_REAL''
text$di	ENDS
; Function compile flags: /Ogtp
; File D:\git\src\IBK\IBK_DRFN\ProjSrc\SrcDrfn\inc\IBaseDefine.h
;	COMDAT ??__ERMSG_INTERFACE@@YAXXZ
text$di	SEGMENT
??__ERMSG_INTERFACE@@YAXXZ PROC				; `dynamic initializer for 'RMSG_INTERFACE'', COMDAT

; 170  : const UINT RMSG_INTERFACE = ::RegisterWindowMessage("RMSG_INTERFACE");

  00000	68 00 00 00 00	 push	 OFFSET ??_C@_0P@BKKCOCLK@RMSG_INTERFACE@
  00005	ff 15 00 00 00
	00		 call	 DWORD PTR __imp__RegisterWindowMessageA@4
  0000b	a3 00 00 00 00	 mov	 DWORD PTR ?RMSG_INTERFACE@@3IB, eax
  00010	c3		 ret	 0
??__ERMSG_INTERFACE@@YAXXZ ENDP				; `dynamic initializer for 'RMSG_INTERFACE''
text$di	ENDS
; Function compile flags: /Ogtp
; File C:\Program Files (x86)\Microsoft Visual Studio\2019\Community\VC\Tools\MSVC\14.29.30133\atlmfc\include\atlbase.h
; File C:\Program Files (x86)\Microsoft Visual Studio\2019\Community\VC\Tools\MSVC\14.29.30133\atlmfc\include\atlsimpcoll.h
; File C:\Program Files (x86)\Microsoft Visual Studio\2019\Community\VC\Tools\MSVC\14.29.30133\atlmfc\include\atlbase.h
; File C:\Program Files (x86)\Microsoft Visual Studio\2019\Community\VC\Tools\MSVC\14.29.30133\atlmfc\include\atlsimpcoll.h
; File C:\Program Files (x86)\Microsoft Visual Studio\2019\Community\VC\Tools\MSVC\14.29.30133\atlmfc\include\atlcore.h
; File C:\Program Files (x86)\Microsoft Visual Studio\2019\Community\VC\Tools\MSVC\14.29.30133\atlmfc\include\atlsimpcoll.h
; File C:\Program Files (x86)\Microsoft Visual Studio\2019\Community\VC\Tools\MSVC\14.29.30133\atlmfc\include\atlcore.h
; File C:\Program Files (x86)\Microsoft Visual Studio\2019\Community\VC\Tools\MSVC\14.29.30133\atlmfc\include\atlbase.h
; File C:\Program Files (x86)\Microsoft Visual Studio\2019\Community\VC\Tools\MSVC\14.29.30133\atlmfc\include\atlsimpcoll.h
;	COMDAT ??__F_AtlWinModule@ATL@@YAXXZ
text$yd	SEGMENT
??__F_AtlWinModule@ATL@@YAXXZ PROC			; ATL::`dynamic atexit destructor for '_AtlWinModule'', COMDAT
; File C:\Program Files (x86)\Microsoft Visual Studio\2019\Community\VC\Tools\MSVC\14.29.30133\atlmfc\include\atlbase.h

; 7655 : 	if (pWinModule->cbSize == 0)

  00000	a1 00 00 00 00	 mov	 eax, DWORD PTR ?_AtlWinModule@ATL@@3VCAtlWinModule@1@A
  00005	8b 0d 00 00 00
	00		 mov	 ecx, DWORD PTR __imp__free

; 2957 : 		AtlWinModuleTerm(this, _AtlBaseModule.GetModuleInstance());

  0000b	57		 push	 edi
  0000c	8b 3d 04 00 00
	00		 mov	 edi, DWORD PTR ?_AtlBaseModule@ATL@@3VCAtlBaseModule@1@A+4

; 7655 : 	if (pWinModule->cbSize == 0)

  00012	85 c0		 test	 eax, eax
  00014	0f 84 93 00 00
	00		 je	 $LN8@dynamic

; 7656 : 		return S_OK;
; 7657 : 	if (pWinModule->cbSize != sizeof(_ATL_WIN_MODULE))

  0001a	83 f8 2c	 cmp	 eax, 44			; 0000002cH
  0001d	0f 85 8a 00 00
	00		 jne	 $LN8@dynamic

; 7658 : 		return E_INVALIDARG;
; 7659 : 
; 7660 : 	for (int i = 0; i < pWinModule->m_rgWindowClassAtoms.GetSize(); i++)

  00023	a1 24 00 00 00	 mov	 eax, DWORD PTR ?_AtlWinModule@ATL@@3VCAtlWinModule@1@A+36
  00028	56		 push	 esi
  00029	33 f6		 xor	 esi, esi
  0002b	85 c0		 test	 eax, eax
  0002d	7e 35		 jle	 SHORT $LN10@dynamic
  0002f	53		 push	 ebx
  00030	8b 1d 00 00 00
	00		 mov	 ebx, DWORD PTR __imp__UnregisterClassA@8
$LL11@dynamic:
; File C:\Program Files (x86)\Microsoft Visual Studio\2019\Community\VC\Tools\MSVC\14.29.30133\atlmfc\include\atlsimpcoll.h

; 238  : 		if(nIndex < 0 || nIndex >= m_nSize)

  00036	85 f6		 test	 esi, esi
  00038	0f 88 9e 00 00
	00		 js	 $LN46@dynamic
  0003e	3b f0		 cmp	 esi, eax
  00040	0f 8d 96 00 00
	00		 jge	 $LN46@dynamic
; File C:\Program Files (x86)\Microsoft Visual Studio\2019\Community\VC\Tools\MSVC\14.29.30133\atlmfc\include\atlbase.h

; 7661 : 		UnregisterClass((LPCTSTR)pWinModule->m_rgWindowClassAtoms[i], hInst);

  00046	a1 20 00 00 00	 mov	 eax, DWORD PTR ?_AtlWinModule@ATL@@3VCAtlWinModule@1@A+32
  0004b	57		 push	 edi
  0004c	0f b7 04 70	 movzx	 eax, WORD PTR [eax+esi*2]
  00050	50		 push	 eax
  00051	ff d3		 call	 ebx
  00053	a1 24 00 00 00	 mov	 eax, DWORD PTR ?_AtlWinModule@ATL@@3VCAtlWinModule@1@A+36
  00058	46		 inc	 esi
  00059	3b f0		 cmp	 esi, eax
  0005b	7c d9		 jl	 SHORT $LL11@dynamic
; File C:\Program Files (x86)\Microsoft Visual Studio\2019\Community\VC\Tools\MSVC\14.29.30133\atlmfc\include\atlsimpcoll.h

; 238  : 		if(nIndex < 0 || nIndex >= m_nSize)

  0005d	8b 0d 00 00 00
	00		 mov	 ecx, DWORD PTR __imp__free
  00063	5b		 pop	 ebx
$LN10@dynamic:

; 216  : 		if(m_aT != NULL)

  00064	a1 20 00 00 00	 mov	 eax, DWORD PTR ?_AtlWinModule@ATL@@3VCAtlWinModule@1@A+32
  00069	5e		 pop	 esi
  0006a	85 c0		 test	 eax, eax
  0006c	74 10		 je	 SHORT $LN25@dynamic

; 217  : 		{
; 218  : 			for(int i = 0; i < m_nSize; i++)
; 219  : 				m_aT[i].~T();
; 220  : 			free(m_aT);

  0006e	50		 push	 eax
  0006f	ff d1		 call	 ecx
  00071	83 c4 04	 add	 esp, 4

; 221  : 			m_aT = NULL;

  00074	c7 05 20 00 00
	00 00 00 00 00	 mov	 DWORD PTR ?_AtlWinModule@ATL@@3VCAtlWinModule@1@A+32, 0
$LN25@dynamic:
; File C:\Program Files (x86)\Microsoft Visual Studio\2019\Community\VC\Tools\MSVC\14.29.30133\atlmfc\include\atlcore.h

; 155  : 		DeleteCriticalSection(&m_sec);

  0007e	68 04 00 00 00	 push	 OFFSET ?_AtlWinModule@ATL@@3VCAtlWinModule@1@A+4
; File C:\Program Files (x86)\Microsoft Visual Studio\2019\Community\VC\Tools\MSVC\14.29.30133\atlmfc\include\atlsimpcoll.h

; 223  : 		m_nSize = 0;

  00083	c7 05 24 00 00
	00 00 00 00 00	 mov	 DWORD PTR ?_AtlWinModule@ATL@@3VCAtlWinModule@1@A+36, 0

; 224  : 		m_nAllocSize = 0;

  0008d	c7 05 28 00 00
	00 00 00 00 00	 mov	 DWORD PTR ?_AtlWinModule@ATL@@3VCAtlWinModule@1@A+40, 0
; File C:\Program Files (x86)\Microsoft Visual Studio\2019\Community\VC\Tools\MSVC\14.29.30133\atlmfc\include\atlcore.h

; 155  : 		DeleteCriticalSection(&m_sec);

  00097	ff 15 00 00 00
	00		 call	 DWORD PTR __imp__DeleteCriticalSection@4
; File C:\Program Files (x86)\Microsoft Visual Studio\2019\Community\VC\Tools\MSVC\14.29.30133\atlmfc\include\atlbase.h

; 7664 : 	pWinModule->cbSize = 0;

  0009d	8b 0d 00 00 00
	00		 mov	 ecx, DWORD PTR __imp__free
  000a3	c7 05 00 00 00
	00 00 00 00 00	 mov	 DWORD PTR ?_AtlWinModule@ATL@@3VCAtlWinModule@1@A, 0
$LN8@dynamic:
; File C:\Program Files (x86)\Microsoft Visual Studio\2019\Community\VC\Tools\MSVC\14.29.30133\atlmfc\include\atlsimpcoll.h

; 216  : 		if(m_aT != NULL)

  000ad	a1 20 00 00 00	 mov	 eax, DWORD PTR ?_AtlWinModule@ATL@@3VCAtlWinModule@1@A+32
  000b2	5f		 pop	 edi
  000b3	85 c0		 test	 eax, eax
  000b5	74 10		 je	 SHORT $LN40@dynamic

; 217  : 		{
; 218  : 			for(int i = 0; i < m_nSize; i++)
; 219  : 				m_aT[i].~T();
; 220  : 			free(m_aT);

  000b7	50		 push	 eax
  000b8	ff d1		 call	 ecx
  000ba	83 c4 04	 add	 esp, 4

; 221  : 			m_aT = NULL;

  000bd	c7 05 20 00 00
	00 00 00 00 00	 mov	 DWORD PTR ?_AtlWinModule@ATL@@3VCAtlWinModule@1@A+32, 0
$LN40@dynamic:

; 223  : 		m_nSize = 0;

  000c7	c7 05 24 00 00
	00 00 00 00 00	 mov	 DWORD PTR ?_AtlWinModule@ATL@@3VCAtlWinModule@1@A+36, 0

; 224  : 		m_nAllocSize = 0;

  000d1	c7 05 28 00 00
	00 00 00 00 00	 mov	 DWORD PTR ?_AtlWinModule@ATL@@3VCAtlWinModule@1@A+40, 0
  000db	c3		 ret	 0
$LN46@dynamic:

; 240  : 			_AtlRaiseException((DWORD)EXCEPTION_ARRAY_BOUNDS_EXCEEDED);

  000dc	6a 01		 push	 1
  000de	68 8c 00 00 c0	 push	 -1073741684		; c000008cH
  000e3	e8 00 00 00 00	 call	 ?_AtlRaiseException@ATL@@YAXKK@Z ; ATL::_AtlRaiseException
$LN56@dynamic:
  000e8	cc		 int	 3
??__F_AtlWinModule@ATL@@YAXXZ ENDP			; ATL::`dynamic atexit destructor for '_AtlWinModule''
text$yd	ENDS
; Function compile flags: /Ogtp
; File C:\Program Files (x86)\Microsoft Visual Studio\2019\Community\VC\Tools\MSVC\14.29.30133\atlmfc\include\atlbase.h
; File C:\Program Files (x86)\Microsoft Visual Studio\2019\Community\VC\Tools\MSVC\14.29.30133\atlmfc\include\atlwinverapi.h
; File C:\Program Files (x86)\Microsoft Visual Studio\2019\Community\VC\Tools\MSVC\14.29.30133\atlmfc\include\atlcore.h
; File C:\Program Files (x86)\Windows Kits\10\Include\10.0.22000.0\shared\winerror.h
; File C:\Program Files (x86)\Microsoft Visual Studio\2019\Community\VC\Tools\MSVC\14.29.30133\atlmfc\include\atlbase.h
;	COMDAT ??__E_AtlWinModule@ATL@@YAXXZ
text$di	SEGMENT
??__E_AtlWinModule@ATL@@YAXXZ PROC			; ATL::`dynamic initializer for '_AtlWinModule'', COMDAT
; File C:\Program Files (x86)\Microsoft Visual Studio\2019\Community\VC\Tools\MSVC\14.29.30133\atlmfc\include\atlwinverapi.h

; 730  : 	return ::InitializeCriticalSectionEx(lpCriticalSection, dwSpinCount, Flags);

  00000	6a 00		 push	 0
  00002	6a 00		 push	 0
  00004	68 04 00 00 00	 push	 OFFSET ?_AtlWinModule@ATL@@3VCAtlWinModule@1@A+4
  00009	ff 15 00 00 00
	00		 call	 DWORD PTR __imp__InitializeCriticalSectionEx@12
; File C:\Program Files (x86)\Microsoft Visual Studio\2019\Community\VC\Tools\MSVC\14.29.30133\atlmfc\include\atlcore.h

; 145  : 		if (!_AtlInitializeCriticalSectionEx(&m_sec, 0, 0))

  0000f	85 c0		 test	 eax, eax
  00011	75 27		 jne	 SHORT $LN4@dynamic

; 146  : 		{
; 147  : 			hRes = HRESULT_FROM_WIN32(GetLastError());

  00013	ff 15 00 00 00
	00		 call	 DWORD PTR __imp__GetLastError@0
; File C:\Program Files (x86)\Windows Kits\10\Include\10.0.22000.0\shared\winerror.h

; 29673: FORCEINLINE _Translates_Win32_to_HRESULT_(x) HRESULT HRESULT_FROM_WIN32(unsigned long x) { return (HRESULT)(x) <= 0 ? (HRESULT)(x) : (HRESULT) (((x) & 0x0000FFFF) | (FACILITY_WIN32 << 16) | 0x80000000);}

  00019	85 c0		 test	 eax, eax
  0001b	7e 0a		 jle	 SHORT $LN26@dynamic
  0001d	0f b7 c0	 movzx	 eax, ax
  00020	0d 00 00 07 80	 or	 eax, -2147024896	; 80070000H
; File C:\Program Files (x86)\Microsoft Visual Studio\2019\Community\VC\Tools\MSVC\14.29.30133\atlmfc\include\atlbase.h

; 2941 : 		if (FAILED(hr))

  00025	85 c0		 test	 eax, eax
$LN26@dynamic:
  00027	79 11		 jns	 SHORT $LN4@dynamic

; 2942 : 		{
; 2943 : 			ATLASSERT(0);
; 2944 : 			CAtlBaseModule::m_bInitFailed = true;

  00029	c6 05 00 00 00
	00 01		 mov	 BYTE PTR ?m_bInitFailed@CAtlBaseModule@ATL@@2_NA, 1 ; ATL::CAtlBaseModule::m_bInitFailed

; 2945 : 			cbSize = 0;

  00030	c7 05 00 00 00
	00 00 00 00 00	 mov	 DWORD PTR ?_AtlWinModule@ATL@@3VCAtlWinModule@1@A, 0
$LN4@dynamic:

; 2972 : __declspec(selectany) CAtlWinModule _AtlWinModule;

  0003a	68 00 00 00 00	 push	 OFFSET ??__F_AtlWinModule@ATL@@YAXXZ ; ATL::`dynamic atexit destructor for '_AtlWinModule''
  0003f	e8 00 00 00 00	 call	 _atexit
  00044	59		 pop	 ecx
  00045	c3		 ret	 0
??__E_AtlWinModule@ATL@@YAXXZ ENDP			; ATL::`dynamic initializer for '_AtlWinModule''
text$di	ENDS
; Function compile flags: /Ogtp
; File C:\Program Files (x86)\Microsoft Visual Studio\2019\Community\VC\Tools\MSVC\14.29.30133\atlmfc\include\atlwinverapi.h
;	COMDAT ?_AtlInitializeCriticalSectionEx@ATL@@YAHPAU_RTL_CRITICAL_SECTION@@KK@Z
_TEXT	SEGMENT
_lpCriticalSection$ = 8					; size = 4
_dwSpinCount$ = 12					; size = 4
_Flags$ = 16						; size = 4
?_AtlInitializeCriticalSectionEx@ATL@@YAHPAU_RTL_CRITICAL_SECTION@@KK@Z PROC ; ATL::_AtlInitializeCriticalSectionEx, COMDAT

; 727  : {

  00000	55		 push	 ebp
  00001	8b ec		 mov	 ebp, esp

; 728  : #if (NTDDI_VERSION >= NTDDI_VISTA) && !defined(_USING_V110_SDK71_) && !defined(_ATL_XP_TARGETING)
; 729  : 	// InitializeCriticalSectionEx is available in Vista or later, desktop or store apps
; 730  : 	return ::InitializeCriticalSectionEx(lpCriticalSection, dwSpinCount, Flags);

  00003	ff 75 10	 push	 DWORD PTR _Flags$[ebp]
  00006	ff 75 0c	 push	 DWORD PTR _dwSpinCount$[ebp]
  00009	ff 75 08	 push	 DWORD PTR _lpCriticalSection$[ebp]
  0000c	ff 15 00 00 00
	00		 call	 DWORD PTR __imp__InitializeCriticalSectionEx@12

; 731  : #else
; 732  : 	UNREFERENCED_PARAMETER(Flags);
; 733  : 
; 734  : 	// ...otherwise fall back to using InitializeCriticalSectionAndSpinCount.
; 735  : 	return ::InitializeCriticalSectionAndSpinCount(lpCriticalSection, dwSpinCount);
; 736  : #endif
; 737  : }

  00012	5d		 pop	 ebp
  00013	c3		 ret	 0
?_AtlInitializeCriticalSectionEx@ATL@@YAHPAU_RTL_CRITICAL_SECTION@@KK@Z ENDP ; ATL::_AtlInitializeCriticalSectionEx
_TEXT	ENDS
; Function compile flags: /Ogtp
; File C:\Program Files (x86)\Microsoft Visual Studio\2019\Community\VC\Tools\MSVC\14.29.30133\atlmfc\include\atlexcept.h
;	COMDAT ?_AtlRaiseException@ATL@@YAXKK@Z
_TEXT	SEGMENT
_dwExceptionCode$ = 8					; size = 4
_dwExceptionFlags$ = 12					; size = 4
?_AtlRaiseException@ATL@@YAXKK@Z PROC			; ATL::_AtlRaiseException, COMDAT

; 30   : {

  00000	55		 push	 ebp
  00001	8b ec		 mov	 ebp, esp

; 31   : 	RaiseException( dwExceptionCode, dwExceptionFlags, 0, NULL );

  00003	6a 00		 push	 0
  00005	6a 00		 push	 0
  00007	ff 75 0c	 push	 DWORD PTR _dwExceptionFlags$[ebp]
  0000a	ff 75 08	 push	 DWORD PTR _dwExceptionCode$[ebp]
  0000d	ff 15 00 00 00
	00		 call	 DWORD PTR __imp__RaiseException@16

; 32   : }

  00013	5d		 pop	 ebp
  00014	c3		 ret	 0
?_AtlRaiseException@ATL@@YAXKK@Z ENDP			; ATL::_AtlRaiseException
_TEXT	ENDS
; Function compile flags: /Ogtp
; File C:\Program Files (x86)\Microsoft Visual Studio\2019\Community\VC\Tools\MSVC\14.29.30133\atlmfc\include\afx.inl
;	COMDAT ?Dump@CObject@@UBEXAAVCDumpContext@@@Z
_TEXT	SEGMENT
___formal$ = 8						; size = 4
?Dump@CObject@@UBEXAAVCDumpContext@@@Z PROC		; CObject::Dump, COMDAT
; _this$ = ecx

; 122  : 	{ /* no dumping in release builds */ }

  00000	c2 04 00	 ret	 4
?Dump@CObject@@UBEXAAVCDumpContext@@@Z ENDP		; CObject::Dump
_TEXT	ENDS
; Function compile flags: /Ogtp
; File C:\Program Files (x86)\Microsoft Visual Studio\2019\Community\VC\Tools\MSVC\14.29.30133\atlmfc\include\afx.inl
;	COMDAT ?AssertValid@CObject@@UBEXXZ
_TEXT	SEGMENT
?AssertValid@CObject@@UBEXXZ PROC			; CObject::AssertValid, COMDAT
; _this$ = ecx

; 120  : 	{ /* no asserts in release builds */ }

  00000	c2 00 00	 ret	 0
?AssertValid@CObject@@UBEXXZ ENDP			; CObject::AssertValid
_TEXT	ENDS
; Function compile flags: /Ogtp
; File C:\Program Files (x86)\Microsoft Visual Studio\2019\Community\VC\Tools\MSVC\14.29.30133\atlmfc\include\afx.inl
;	COMDAT ?Serialize@CObject@@UAEXAAVCArchive@@@Z
_TEXT	SEGMENT
___formal$ = 8						; size = 4
?Serialize@CObject@@UAEXAAVCArchive@@@Z PROC		; CObject::Serialize, COMDAT
; _this$ = ecx

; 106  : 	{ /* CObject does not serialize anything by default */ }

  00000	c2 04 00	 ret	 4
?Serialize@CObject@@UAEXAAVCArchive@@@Z ENDP		; CObject::Serialize
_TEXT	ENDS
; Function compile flags: /Ogtp
; File C:\Program Files (x86)\Microsoft Visual Studio\2019\Community\VC\Tools\MSVC\14.29.30133\atlmfc\include\afx.inl
;	COMDAT ??3CObject@@SGXPAX@Z
_TEXT	SEGMENT
_p$ = 8							; size = 4
??3CObject@@SGXPAX@Z PROC				; CObject::operator delete, COMDAT

; 112  : 	{ ::operator delete(p); }

  00000	55		 push	 ebp
  00001	8b ec		 mov	 ebp, esp
  00003	ff 75 08	 push	 DWORD PTR _p$[ebp]
  00006	e8 00 00 00 00	 call	 ??3@YAXPAX@Z		; operator delete
  0000b	83 c4 04	 add	 esp, 4
  0000e	5d		 pop	 ebp
  0000f	c2 04 00	 ret	 4
??3CObject@@SGXPAX@Z ENDP				; CObject::operator delete
_TEXT	ENDS
; Function compile flags: /Ogtp
; File C:\Program Files (x86)\Microsoft Visual Studio\2019\Community\VC\Tools\MSVC\14.29.30133\atlmfc\include\afx.inl
;	COMDAT ??1CObject@@UAE@XZ
_TEXT	SEGMENT
??1CObject@@UAE@XZ PROC					; CObject::~CObject, COMDAT
; _this$ = ecx

; 104  : 	{ }

  00000	c2 00 00	 ret	 0
??1CObject@@UAE@XZ ENDP					; CObject::~CObject
_TEXT	ENDS
; Function compile flags: /Ogtp
; File C:\Program Files (x86)\Windows Kits\10\Include\10.0.22000.0\ucrt\stdio.h
;	COMDAT _sscanf
_TEXT	SEGMENT
__Buffer$ = 8						; size = 4
__Format$ = 12						; size = 4
_sscanf	PROC						; COMDAT

; 2247 :     {

  00000	55		 push	 ebp
  00001	8b ec		 mov	 ebp, esp

; 2153 :         return __stdio_common_vsscanf(

  00003	8d 45 10	 lea	 eax, DWORD PTR __Format$[ebp+4]
  00006	50		 push	 eax
  00007	6a 00		 push	 0
  00009	ff 75 0c	 push	 DWORD PTR __Format$[ebp]
  0000c	6a ff		 push	 -1
  0000e	ff 75 08	 push	 DWORD PTR __Buffer$[ebp]
  00011	e8 00 00 00 00	 call	 ___local_stdio_scanf_options
  00016	ff 70 04	 push	 DWORD PTR [eax+4]
  00019	ff 30		 push	 DWORD PTR [eax]
  0001b	ff 15 00 00 00
	00		 call	 DWORD PTR __imp____stdio_common_vsscanf
  00021	83 c4 1c	 add	 esp, 28			; 0000001cH

; 2248 :         int _Result;
; 2249 :         va_list _ArgList;
; 2250 :         __crt_va_start(_ArgList, _Format);
; 2251 :         _Result = _vsscanf_l(_Buffer, _Format, NULL, _ArgList);
; 2252 :         __crt_va_end(_ArgList);
; 2253 :         return _Result;
; 2254 :     }

  00024	5d		 pop	 ebp
  00025	c3		 ret	 0
_sscanf	ENDP
_TEXT	ENDS
; Function compile flags: /Ogtp
; File C:\Program Files (x86)\Windows Kits\10\Include\10.0.22000.0\ucrt\corecrt_stdio_config.h
;	COMDAT ___local_stdio_scanf_options
_TEXT	SEGMENT
___local_stdio_scanf_options PROC			; COMDAT

; 101  :         static unsigned __int64 _OptionsStorage;
; 102  :         return &_OptionsStorage;

  00000	b8 00 00 00 00	 mov	 eax, OFFSET ?_OptionsStorage@?1??__local_stdio_scanf_options@@9@4_KA ; `__local_stdio_scanf_options'::`2'::_OptionsStorage

; 103  :     }

  00005	c3		 ret	 0
___local_stdio_scanf_options ENDP
_TEXT	ENDS
; Function compile flags: /Ogtp
; File D:\git\src\IBK\IBK_DRFN\ProjSrc\SrcDrfn\Chart\MULTICHART\CondTarget.cpp
;	COMDAT ?__empty_global_delete@@YAXPAXI@Z
_TEXT	SEGMENT
___formal$ = 8						; size = 4
___formal$ = 12						; size = 4
?__empty_global_delete@@YAXPAXI@Z PROC			; __empty_global_delete, COMDAT

  00000	c2 00 00	 ret	 0
?__empty_global_delete@@YAXPAXI@Z ENDP			; __empty_global_delete
_TEXT	ENDS
; Function compile flags: /Ogtp
; File D:\git\src\IBK\IBK_DRFN\ProjSrc\SrcDrfn\Chart\MULTICHART\CondTarget.cpp
;	COMDAT ?__empty_global_delete@@YAXPAX@Z
_TEXT	SEGMENT
___formal$ = 8						; size = 4
?__empty_global_delete@@YAXPAX@Z PROC			; __empty_global_delete, COMDAT

  00000	c2 00 00	 ret	 0
?__empty_global_delete@@YAXPAX@Z ENDP			; __empty_global_delete
_TEXT	ENDS
END
