; Listing generated by Microsoft (R) Optimizing Compiler Version 19.29.30145.0 

	TITLE	D:\git\src\IBK\IBK_DRFN\#DRfn-CS\_Obj\MultiChart\Conversion.obj
	.686P
	.XMM
	include listing.inc
	.model	flat

INCLUDELIB MSVCRT
INCLUDELIB OLDNAMES

PUBLIC	?__empty_global_delete@@YAXPAX@Z		; __empty_global_delete
PUBLIC	?__empty_global_delete@@YAXPAXI@Z		; __empty_global_delete
PUBLIC	___local_stdio_printf_options
PUBLIC	___local_stdio_scanf_options
PUBLIC	_sprintf
PUBLIC	_sscanf
PUBLIC	??1CObject@@UAE@XZ				; CObject::~CObject
PUBLIC	?Serialize@CObject@@UAEXAAVCArchive@@@Z		; CObject::Serialize
PUBLIC	?AssertValid@CObject@@UBEXXZ			; CObject::AssertValid
PUBLIC	?Dump@CObject@@UBEXAAVCDumpContext@@@Z		; CObject::Dump
PUBLIC	??HATL@@YA?AV?$CStringT@DV?$StrTraitMFC_DLL@DV?$ChTraitsCRT@D@ATL@@@@@0@ABV10@0@Z ; ATL::operator+
PUBLIC	??HATL@@YA?AV?$CStringT@DV?$StrTraitMFC_DLL@DV?$ChTraitsCRT@D@ATL@@@@@0@DABV10@@Z ; ATL::operator+
PUBLIC	??1CGdiObject@@UAE@XZ				; CGdiObject::~CGdiObject
PUBLIC	??_GCGdiObject@@UAEPAXI@Z			; CGdiObject::`scalar deleting destructor'
PUBLIC	??1CRgn@@UAE@XZ					; CRgn::~CRgn
PUBLIC	??_GCRgn@@UAEPAXI@Z				; CRgn::`scalar deleting destructor'
PUBLIC	?RGB2Str@CDataConversion@@SA?AV?$CStringT@DV?$StrTraitMFC_DLL@DV?$ChTraitsCRT@D@ATL@@@@@ATL@@K@Z ; CDataConversion::RGB2Str
PUBLIC	?Str2RGB@CDataConversion@@SAKABV?$CStringT@DV?$StrTraitMFC_DLL@DV?$ChTraitsCRT@D@ATL@@@@@ATL@@@Z ; CDataConversion::Str2RGB
PUBLIC	?atob@CDataConversion@@SA_NPBD@Z		; CDataConversion::atob
PUBLIC	?atob@CDataConversion@@SA_NH@Z			; CDataConversion::atob
PUBLIC	?Bool2Str@CDataConversion@@SA?AV?$CStringT@DV?$StrTraitMFC_DLL@DV?$ChTraitsCRT@D@ATL@@@@@ATL@@H@Z ; CDataConversion::Bool2Str
PUBLIC	?atod@CDataConversion@@SANM@Z			; CDataConversion::atod
PUBLIC	?IntToString@CDataConversion@@SA?AV?$CStringT@DV?$StrTraitMFC_DLL@DV?$ChTraitsCRT@D@ATL@@@@@ATL@@H@Z ; CDataConversion::IntToString
PUBLIC	?IntToString@CDataConversion@@SA?AV?$CStringT@DV?$StrTraitMFC_DLL@DV?$ChTraitsCRT@D@ATL@@@@@ATL@@HH@Z ; CDataConversion::IntToString
PUBLIC	?DoubleToString@CDataConversion@@SA?AV?$CStringT@DV?$StrTraitMFC_DLL@DV?$ChTraitsCRT@D@ATL@@@@@ATL@@ABN@Z ; CDataConversion::DoubleToString
PUBLIC	?DoubleToString@CDataConversion@@SA?AV?$CStringT@DV?$StrTraitMFC_DLL@DV?$ChTraitsCRT@D@ATL@@@@@ATL@@ABNH@Z ; CDataConversion::DoubleToString
PUBLIC	?NormalNumberString@CDataConversion@@SA?AV?$CStringT@DV?$StrTraitMFC_DLL@DV?$ChTraitsCRT@D@ATL@@@@@ATL@@ABV23@@Z ; CDataConversion::NormalNumberString
PUBLIC	?CalcTimeFormat@CDataConversion@@SAHHHABV?$CStringT@DV?$StrTraitMFC_DLL@DV?$ChTraitsCRT@D@ATL@@@@@ATL@@_N@Z ; CDataConversion::CalcTimeFormat
PUBLIC	?CalcTimeFormatforCharge@CDataConversion@@SAHHHABV?$CStringT@DV?$StrTraitMFC_DLL@DV?$ChTraitsCRT@D@ATL@@@@@ATL@@H_N@Z ; CDataConversion::CalcTimeFormatforCharge
PUBLIC	?CalcDateFormat@CDataConversion@@SAHHHABV?$CStringT@DV?$StrTraitMFC_DLL@DV?$ChTraitsCRT@D@ATL@@@@@ATL@@HH@Z ; CDataConversion::CalcDateFormat
PUBLIC	?GetSpecialTime@CDataConversion@@SA_NABV?$CStringT@DV?$StrTraitMFC_DLL@DV?$ChTraitsCRT@D@ATL@@@@@ATL@@0AAV23@@Z ; CDataConversion::GetSpecialTime
PUBLIC	?GetStringData@CDataConversion@@SA?AV?$CStringT@DV?$StrTraitMFC_DLL@DV?$ChTraitsCRT@D@ATL@@@@@ATL@@AAV23@ABV23@_N@Z ; CDataConversion::GetStringData
PUBLIC	?GetStringData@CDataConversion@@SA?AV?$CStringT@DV?$StrTraitMFC_DLL@DV?$ChTraitsCRT@D@ATL@@@@@ATL@@AAV23@ABV23@1_N@Z ; CDataConversion::GetStringData
PUBLIC	?GetStringData@CDataConversion@@SA?AV?$CStringT@DV?$StrTraitMFC_DLL@DV?$ChTraitsCRT@D@ATL@@@@@ATL@@AAV23@ABV23@H@Z ; CDataConversion::GetStringData
PUBLIC	?GetLeftToTrimDataIndex@CDataConversion@@SA?AV?$CStringT@DV?$StrTraitMFC_DLL@DV?$ChTraitsCRT@D@ATL@@@@@ATL@@ABV23@0H_N@Z ; CDataConversion::GetLeftToTrimDataIndex
PUBLIC	?GetMidToTrimDataStartIndex@CDataConversion@@SA?AV?$CStringT@DV?$StrTraitMFC_DLL@DV?$ChTraitsCRT@D@ATL@@@@@ATL@@ABV23@0H_N1@Z ; CDataConversion::GetMidToTrimDataStartIndex
PUBLIC	?GetMidToTrimDataEndIndex@CDataConversion@@SA?AV?$CStringT@DV?$StrTraitMFC_DLL@DV?$ChTraitsCRT@D@ATL@@@@@ATL@@ABV23@0H_N1@Z ; CDataConversion::GetMidToTrimDataEndIndex
PUBLIC	?GetMidToTrimDataIndex@CDataConversion@@SA?AV?$CStringT@DV?$StrTraitMFC_DLL@DV?$ChTraitsCRT@D@ATL@@@@@ATL@@ABV23@0H_N@Z ; CDataConversion::GetMidToTrimDataIndex
PUBLIC	?GetMidToTrimDataIndex@CDataConversion@@SA?AV?$CStringT@DV?$StrTraitMFC_DLL@DV?$ChTraitsCRT@D@ATL@@@@@ATL@@ABV23@00H_N@Z ; CDataConversion::GetMidToTrimDataIndex
PUBLIC	?GetStringDataCount@CDataConversion@@SAHABV?$CStringT@DV?$StrTraitMFC_DLL@DV?$ChTraitsCRT@D@ATL@@@@@ATL@@0@Z ; CDataConversion::GetStringDataCount
PUBLIC	?FindIndex@CDataConversion@@SAHABV?$CStringT@DV?$StrTraitMFC_DLL@DV?$ChTraitsCRT@D@ATL@@@@@ATL@@0H@Z ; CDataConversion::FindIndex
PUBLIC	?GetDecimalDownCount@CDataConversion@@SAHABV?$CStringT@DV?$StrTraitMFC_DLL@DV?$ChTraitsCRT@D@ATL@@@@@ATL@@_N@Z ; CDataConversion::GetDecimalDownCount
PUBLIC	?GetDataType@CDataConversion@@SANV?$CStringT@DV?$StrTraitMFC_DLL@DV?$ChTraitsCRT@D@ATL@@@@@ATL@@@Z ; CDataConversion::GetDataType
PUBLIC	?GetChangeFormat_NumCharUnit@CDataConversion@@SA?AV?$CStringT@DV?$StrTraitMFC_DLL@DV?$ChTraitsCRT@D@ATL@@@@@ATL@@ABV23@@Z ; CDataConversion::GetChangeFormat_NumCharUnit
PUBLIC	?GetStringFormatTrans@CDataConversion@@SA?AV?$CStringT@DV?$StrTraitMFC_DLL@DV?$ChTraitsCRT@D@ATL@@@@@ATL@@ABV23@0@Z ; CDataConversion::GetStringFormatTrans
PUBLIC	?GetStringThousandFormat@CDataConversion@@SA?AV?$CStringT@DV?$StrTraitMFC_DLL@DV?$ChTraitsCRT@D@ATL@@@@@ATL@@ABN0@Z ; CDataConversion::GetStringThousandFormat
PUBLIC	?GetStringThousandFormat@CDataConversion@@SA?AV?$CStringT@DV?$StrTraitMFC_DLL@DV?$ChTraitsCRT@D@ATL@@@@@ATL@@ABV23@@Z ; CDataConversion::GetStringThousandFormat
PUBLIC	?GetStringFormatTrans@CDataConversion@@SA?AV?$CStringT@DV?$StrTraitMFC_DLL@DV?$ChTraitsCRT@D@ATL@@@@@ATL@@ABV23@000@Z ; CDataConversion::GetStringFormatTrans
PUBLIC	?GetStringFormatbyCompart@CDataConversion@@SA?AV?$CStringT@DV?$StrTraitMFC_DLL@DV?$ChTraitsCRT@D@ATL@@@@@ATL@@ABV23@AAV23@001@Z ; CDataConversion::GetStringFormatbyCompart
PUBLIC	?GetCompartType@CDataConversion@@SA?AV?$CStringT@DV?$StrTraitMFC_DLL@DV?$ChTraitsCRT@D@ATL@@@@@ATL@@ABV23@00@Z ; CDataConversion::GetCompartType
PUBLIC	?GetStringFormatTransCutoff@CDataConversion@@SAHABNABV?$CStringT@DV?$StrTraitMFC_DLL@DV?$ChTraitsCRT@D@ATL@@@@@ATL@@AAV23@2@Z ; CDataConversion::GetStringFormatTransCutoff
PUBLIC	?GetStringFormatTransCutoff@CDataConversion@@SAHABN0AAV?$CStringT@DV?$StrTraitMFC_DLL@DV?$ChTraitsCRT@D@ATL@@@@@ATL@@1@Z ; CDataConversion::GetStringFormatTransCutoff
PUBLIC	?InsertString@CDataConversion@@SA?AV?$CStringT@DV?$StrTraitMFC_DLL@DV?$ChTraitsCRT@D@ATL@@@@@ATL@@ABV23@0HH@Z ; CDataConversion::InsertString
PUBLIC	?SelectClipRegion@CDataConversion@@SAXPAVCDC@@ABVCRect@@@Z ; CDataConversion::SelectClipRegion
PUBLIC	?SelectClipRegion@CDataConversion@@SAXPAVCDC@@@Z ; CDataConversion::SelectClipRegion
PUBLIC	?GetVerticalPoint@CDataConversion@@SA?AVCPoint@@ABVCRect@@HABN111_N@Z ; CDataConversion::GetVerticalPoint
PUBLIC	?GetVerticalPoint@CDataConversion@@SA?AVCPoint@@ABVCRect@@ABN11111@Z ; CDataConversion::GetVerticalPoint
PUBLIC	?GetVerticalPointBox@CDataConversion@@SA?AVCPoint@@ABVCRect@@HABN111_N@Z ; CDataConversion::GetVerticalPointBox
PUBLIC	?GetHorizontalPoint@CDataConversion@@SA?AVCPoint@@ABVCRect@@HABN111@Z ; CDataConversion::GetHorizontalPoint
PUBLIC	?GetHorizontalPoint_X@CDataConversion@@SAHABVCRect@@ABN11@Z ; CDataConversion::GetHorizontalPoint_X
PUBLIC	?AbsoluteToRelative_X@CDataConversion@@SAHABVCRect@@HH@Z ; CDataConversion::AbsoluteToRelative_X
PUBLIC	?AbsoluteToRelative_X@CDataConversion@@SAHABVCRect@@HABN1@Z ; CDataConversion::AbsoluteToRelative_X
PUBLIC	?AbsoluteToRelative_Y@CDataConversion@@SANABVCRect@@HABN1@Z ; CDataConversion::AbsoluteToRelative_Y
PUBLIC	?RelativeToAbsolute_Y@CDataConversion@@SAHABVCRect@@ABN11@Z ; CDataConversion::RelativeToAbsolute_Y
PUBLIC	?RelativeToAbsolute@CDataConversion@@SA?AVCPoint@@ABVCRect@@HHABN1H1@Z ; CDataConversion::RelativeToAbsolute
PUBLIC	?RelativeToAbsolute_X@CDataConversion@@SAHABVCRect@@HHH_N@Z ; CDataConversion::RelativeToAbsolute_X
PUBLIC	?GetPacketDataIndex_Date@CDataConversion@@SAHABVCRect@@ABVCPoint@@HH@Z ; CDataConversion::GetPacketDataIndex_Date
PUBLIC	?GetRealWidth@CDataConversion@@SANABNH@Z	; CDataConversion::GetRealWidth
PUBLIC	?InvertGraphDataPt@CDataConversion@@SAHABVCRect@@H@Z ; CDataConversion::InvertGraphDataPt
PUBLIC	?GetComplementColor@CDataConversion@@SAKK@Z	; CDataConversion::GetComplementColor
PUBLIC	?IsCalcTimeFormatforCharge@CDataConversion@@CA_NHHABV?$CStringT@DV?$StrTraitMFC_DLL@DV?$ChTraitsCRT@D@ATL@@@@@ATL@@H@Z ; CDataConversion::IsCalcTimeFormatforCharge
PUBLIC	?GetAdditionDataInFormat@CDataConversion@@CA?AV?$CStringT@DV?$StrTraitMFC_DLL@DV?$ChTraitsCRT@D@ATL@@@@@ATL@@HHABV23@H@Z ; CDataConversion::GetAdditionDataInFormat
PUBLIC	?GetAllTime@CDataConversion@@CA_NHHABV?$CStringT@DV?$StrTraitMFC_DLL@DV?$ChTraitsCRT@D@ATL@@@@@ATL@@AAH1111@Z ; CDataConversion::GetAllTime
PUBLIC	?GetAllTime_TimePart@CDataConversion@@CA_NHHABV?$CStringT@DV?$StrTraitMFC_DLL@DV?$ChTraitsCRT@D@ATL@@@@@ATL@@AAH111@Z ; CDataConversion::GetAllTime_TimePart
PUBLIC	?GetAllTime_DatePart@CDataConversion@@CA_NHHABV?$CStringT@DV?$StrTraitMFC_DLL@DV?$ChTraitsCRT@D@ATL@@@@@ATL@@AAH1@Z ; CDataConversion::GetAllTime_DatePart
PUBLIC	?GetAllTime_Second@CDataConversion@@CA_NHHABV?$CStringT@DV?$StrTraitMFC_DLL@DV?$ChTraitsCRT@D@ATL@@@@@ATL@@AAH1AA_N@Z ; CDataConversion::GetAllTime_Second
PUBLIC	?GetAllTime_Minute@CDataConversion@@CA_NHHABV?$CStringT@DV?$StrTraitMFC_DLL@DV?$ChTraitsCRT@D@ATL@@@@@ATL@@AAH1AA_N@Z ; CDataConversion::GetAllTime_Minute
PUBLIC	?GetAllTime_Hour@CDataConversion@@CA_NHHABV?$CStringT@DV?$StrTraitMFC_DLL@DV?$ChTraitsCRT@D@ATL@@@@@ATL@@AAH1AA_N@Z ; CDataConversion::GetAllTime_Hour
PUBLIC	?GetAllTime@CDataConversion@@CA_NHHHHHAAH0AA_N@Z ; CDataConversion::GetAllTime
PUBLIC	?GetDataInLimit@CDataConversion@@CAXHAAH0@Z	; CDataConversion::GetDataInLimit
PUBLIC	?CalcTimeFormat@CDataConversion@@CAHABV?$CStringT@DV?$StrTraitMFC_DLL@DV?$ChTraitsCRT@D@ATL@@@@@ATL@@00_N1@Z ; CDataConversion::CalcTimeFormat
PUBLIC	?CalcTimeFormat_Future@CDataConversion@@CAHABV?$CStringT@DV?$StrTraitMFC_DLL@DV?$ChTraitsCRT@D@ATL@@@@@ATL@@00_N@Z ; CDataConversion::CalcTimeFormat_Future
PUBLIC	?CalcTimeFormat_Past@CDataConversion@@CAHABV?$CStringT@DV?$StrTraitMFC_DLL@DV?$ChTraitsCRT@D@ATL@@@@@ATL@@00_N@Z ; CDataConversion::CalcTimeFormat_Past
PUBLIC	?GetTimeData@CDataConversion@@CA_NABV?$CStringT@DV?$StrTraitMFC_DLL@DV?$ChTraitsCRT@D@ATL@@@@@ATL@@00AAH1111111@Z ; CDataConversion::GetTimeData
PUBLIC	?GetTimeData@CDataConversion@@CA_NABV?$CStringT@DV?$StrTraitMFC_DLL@DV?$ChTraitsCRT@D@ATL@@@@@ATL@@000HAAH1@Z ; CDataConversion::GetTimeData
PUBLIC	?GetTimeInFormat@CDataConversion@@CAHABV?$CStringT@DV?$StrTraitMFC_DLL@DV?$ChTraitsCRT@D@ATL@@@@@ATL@@HHHH@Z ; CDataConversion::GetTimeInFormat
PUBLIC	?GetHourTime_Future@CDataConversion@@CAXHH_NAAH1@Z ; CDataConversion::GetHourTime_Future
PUBLIC	?IsPluse@CDataConversion@@CA_NABV?$CStringT@DV?$StrTraitMFC_DLL@DV?$ChTraitsCRT@D@ATL@@@@@ATL@@@Z ; CDataConversion::IsPluse
PUBLIC	?GetChangingPosition@CDataConversion@@CAHHHABN00@Z ; CDataConversion::GetChangingPosition
PUBLIC	?GetChangingPosition@CDataConversion@@CAHHHABN_N@Z ; CDataConversion::GetChangingPosition
PUBLIC	?RelativeToAbsoluteInDisplayIndex@CDataConversion@@CA?AVCPoint@@ABVCRect@@ABN11H1@Z ; CDataConversion::RelativeToAbsoluteInDisplayIndex
PUBLIC	?RelativeToAbsoluteOutDisplayIndex@CDataConversion@@CA?AVCPoint@@ABVCRect@@ABN111HHH1@Z ; CDataConversion::RelativeToAbsoluteOutDisplayIndex
PUBLIC	?RelativeToAbsoluteInDisplayIndex_X@CDataConversion@@CAHABVCRect@@ABNH_N@Z ; CDataConversion::RelativeToAbsoluteInDisplayIndex_X
PUBLIC	?RelativeToAbsoluteOutDisplayIndex_X@CDataConversion@@CAHABVCRect@@ABNHHH@Z ; CDataConversion::RelativeToAbsoluteOutDisplayIndex_X
PUBLIC	?RelativeToAbsoluteInDisplayIndex_Y@CDataConversion@@CAHABVCRect@@ABN11@Z ; CDataConversion::RelativeToAbsoluteInDisplayIndex_Y
PUBLIC	?RelativeToAbsoluteOutDisplayIndex_Y@CDataConversion@@CAHABVCRect@@ABN111@Z ; CDataConversion::RelativeToAbsoluteOutDisplayIndex_Y
PUBLIC	?OnPickoutTime@CDataConversion@@CA_NHHABV?$CStringT@DV?$StrTraitMFC_DLL@DV?$ChTraitsCRT@D@ATL@@@@@ATL@@HAAH1111@Z ; CDataConversion::OnPickoutTime
PUBLIC	?OnPickoutDate@CDataConversion@@CA_NHABV?$CStringT@DV?$StrTraitMFC_DLL@DV?$ChTraitsCRT@D@ATL@@@@@ATL@@HAAH11@Z ; CDataConversion::OnPickoutDate
PUBLIC	?OnPickoutDaily@CDataConversion@@CA_NHABV?$CStringT@DV?$StrTraitMFC_DLL@DV?$ChTraitsCRT@D@ATL@@@@@ATL@@AAH11@Z ; CDataConversion::OnPickoutDaily
PUBLIC	?OnPickoutWeekley@CDataConversion@@CA_NHABV?$CStringT@DV?$StrTraitMFC_DLL@DV?$ChTraitsCRT@D@ATL@@@@@ATL@@AAH11@Z ; CDataConversion::OnPickoutWeekley
PUBLIC	?OnPickoutMonthly@CDataConversion@@CA_NHABV?$CStringT@DV?$StrTraitMFC_DLL@DV?$ChTraitsCRT@D@ATL@@@@@ATL@@AAH11@Z ; CDataConversion::OnPickoutMonthly
PUBLIC	?GetRealDailyInTimeFormat@CDataConversion@@CAHHABV?$CStringT@DV?$StrTraitMFC_DLL@DV?$ChTraitsCRT@D@ATL@@@@@ATL@@@Z ; CDataConversion::GetRealDailyInTimeFormat
PUBLIC	?GetRealDailyInTimeFormat@CDataConversion@@CA_NHAAH00@Z ; CDataConversion::GetRealDailyInTimeFormat
PUBLIC	?ChagneUprightData_YearAndMonth@CDataConversion@@CAXAAH0@Z ; CDataConversion::ChagneUprightData_YearAndMonth
PUBLIC	?ChagneUprightData_Day@CDataConversion@@CAXAAH00@Z ; CDataConversion::ChagneUprightData_Day
PUBLIC	?GetMonthFullDay@CDataConversion@@CAHHHH@Z	; CDataConversion::GetMonthFullDay
PUBLIC	?IsCalUprightData@CDataConversion@@CA_NHHH@Z	; CDataConversion::IsCalUprightData
PUBLIC	?_OptionsStorage@?1??__local_stdio_printf_options@@9@4_KA ; `__local_stdio_printf_options'::`2'::_OptionsStorage
PUBLIC	?_OptionsStorage@?1??__local_stdio_scanf_options@@9@4_KA ; `__local_stdio_scanf_options'::`2'::_OptionsStorage
PUBLIC	??_R0PAVCException@@@8				; CException * `RTTI Type Descriptor'
PUBLIC	??_C@_02DPKJAMEF@?$CFd@				; `string'
PUBLIC	??_C@_01CPLAODJH@S@				; `string'
PUBLIC	??_C@_01PLPBNMEI@M@				; `string'
PUBLIC	??_C@_01CKDDGHAB@D@				; `string'
PUBLIC	??_C@_00CNPNBAHC@@				; `string'
PUBLIC	??_7CGdiObject@@6B@				; CGdiObject::`vftable'
PUBLIC	??_7CRgn@@6B@					; CRgn::`vftable'
PUBLIC	??_C@_0HD@JJCHHHNK@C?3?2Program?5Files?5?$CIx86?$CJ?2Microsof@ ; `string'
PUBLIC	??_C@_0BP@OIEOKIDM@Exception?5thrown?5in?5destructor@ ; `string'
PUBLIC	??_C@_0BB@HBOOMJBF@?$CFTs?5?$CI?$CFTs?3?$CFd?$CJ?6?$CFTs@ ; `string'
PUBLIC	??_C@_0N@OMEMOKLE@?$CFTs?5?$CI?$CFTs?3?$CFd?$CJ@ ; `string'
PUBLIC	??_C@_02NJPGOMH@?$CFf@				; `string'
PUBLIC	??_C@_08GDAMKODC@?$CFd?0?$CFd?0?$CFd@		; `string'
PUBLIC	??_C@_01HIHLOKLC@1@				; `string'
PUBLIC	??_C@_01GBGANLPD@0@				; `string'
PUBLIC	??_R0?AVCObject@@@8				; CObject `RTTI Type Descriptor'
PUBLIC	??_R3CObject@@8					; CObject::`RTTI Class Hierarchy Descriptor'
PUBLIC	??_R2CObject@@8					; CObject::`RTTI Base Class Array'
PUBLIC	??_R1A@?0A@EA@CObject@@8			; CObject::`RTTI Base Class Descriptor at (0,-1,0,64)'
PUBLIC	??_R4CGdiObject@@6B@				; CGdiObject::`RTTI Complete Object Locator'
PUBLIC	??_R0?AVCGdiObject@@@8				; CGdiObject `RTTI Type Descriptor'
PUBLIC	??_R3CGdiObject@@8				; CGdiObject::`RTTI Class Hierarchy Descriptor'
PUBLIC	??_R2CGdiObject@@8				; CGdiObject::`RTTI Base Class Array'
PUBLIC	??_R1A@?0A@EA@CGdiObject@@8			; CGdiObject::`RTTI Base Class Descriptor at (0,-1,0,64)'
PUBLIC	??_R4CRgn@@6B@					; CRgn::`RTTI Complete Object Locator'
PUBLIC	??_R0?AVCRgn@@@8				; CRgn `RTTI Type Descriptor'
PUBLIC	??_R3CRgn@@8					; CRgn::`RTTI Class Hierarchy Descriptor'
PUBLIC	??_R2CRgn@@8					; CRgn::`RTTI Base Class Array'
PUBLIC	??_R1A@?0A@EA@CRgn@@8				; CRgn::`RTTI Base Class Descriptor at (0,-1,0,64)'
PUBLIC	??_C@_01LFCBOECM@?4@				; `string'
PUBLIC	??_C@_04GHNNFJCK@?$CF?40f@			; `string'
PUBLIC	??_C@_02ODDIIJPA@DD@				; `string'
PUBLIC	??_C@_04BDEGLLOH@MMDD@				; `string'
PUBLIC	??_C@_02EGJHDPJI@HH@				; `string'
PUBLIC	??_C@_02DNCLAJDG@MM@				; `string'
PUBLIC	??_C@_02PPNCLIJD@SS@				; `string'
PUBLIC	??_C@_01NFFPALBN@Y@				; `string'
PUBLIC	??_C@_06EBMMBHJD@YYYYMM@			; `string'
PUBLIC	??_C@_04PKMIKIE@MMSS@				; `string'
PUBLIC	??_C@_04DCGLEEGD@HHMM@				; `string'
PUBLIC	??_C@_02LLFJKDMN@?$KB?$LP@			; `string'
PUBLIC	??_C@_0O@OGJGJDOB@1000000000000@		; `string'
PUBLIC	??_C@_02CCEMNDKE@?A?$LG@			; `string'
PUBLIC	??_C@_0N@NDBGNAOD@100000000000@			; `string'
PUBLIC	??_C@_04KLOCBIHI@?C?$LF?$LO?o@			; `string'
PUBLIC	??_C@_0M@OGPNCIML@10000000000@			; `string'
PUBLIC	??_C@_04JJFLFAAM@?$LJ?i?$LO?o@			; `string'
PUBLIC	??_C@_0L@LIKNPKOD@1000000000@			; `string'
PUBLIC	??_C@_04NOFMPGBM@?$LN?J?$LO?o@			; `string'
PUBLIC	??_C@_09DGIGNMJL@100000000@			; `string'
PUBLIC	??_C@_02BGJIBKNE@?$LO?o@			; `string'
PUBLIC	??_C@_08KDEPFNAG@10000000@			; `string'
PUBLIC	??_C@_04FKJFKPFJ@?C?$LF?$LI?$LI@		; `string'
PUBLIC	??_C@_07NFIEECMO@1000000@			; `string'
PUBLIC	??_C@_04GICMOHCN@?$LJ?i?$LI?$LI@		; `string'
PUBLIC	??_C@_06MCNKBKIO@100000@			; `string'
PUBLIC	??_C@_04CPCLEBDN@?$LN?J?$LI?$LI@		; `string'
PUBLIC	??_C@_05CLDMBJBA@10000@				; `string'
PUBLIC	??_C@_02OHOPKNPF@?$LI?$LI@			; `string'
PUBLIC	??_C@_01IHBHIGKO@?0@				; `string'
PUBLIC	??_C@_01KMDKNFGN@?1@				; `string'
PUBLIC	??_C@_01JLIPDDHJ@?3@				; `string'
PUBLIC	??_C@_01IGIGCIAN@H@				; `string'
PUBLIC	??_C@_04GLAGOKOO@6666@				; `string'
PUBLIC	??_C@_08GKOAFHAP@?$MA?e?$MA?$PM?A?$LO?$LH?a@	; `string'
PUBLIC	??_C@_04PGADPPEN@7777@				; `string'
PUBLIC	??_C@_0L@HMKJBHCK@?$MA?e?$LI?$LG?$LA?$KI?A?$LO?$LH?a@ ; `string'
PUBLIC	??_C@_04KAPECDDI@8888@				; `string'
PUBLIC	??_C@_06FDCJKPFJ@?$MA?e?$LI?$LG?$LA?$KI@	; `string'
PUBLIC	??_C@_04DNPBDGJL@9999@				; `string'
PUBLIC	??_C@_06BINLOPDK@?$LN?C?$LA?$KD?$LP?$NM@	; `string'
PUBLIC	__real@0000000000000000
PUBLIC	__real@3fe0000000000000
PUBLIC	__real@3ff0000000000000
PUBLIC	__real@4024000000000000
PUBLIC	__real@405e000000000000
PUBLIC	__real@406e000000000000
PUBLIC	__real@406fe00000000000
EXTRN	??3@YAXPAX@Z:PROC				; operator delete
EXTRN	?__global_delete@@YAXPAXI@Z:PROC		; __global_delete
EXTRN	__imp__isdigit:PROC
EXTRN	__imp__GetSystemTime@4:PROC
EXTRN	__imp__CreateRectRgn@16:PROC
EXTRN	__imp____stdio_common_vsprintf:PROC
EXTRN	__imp____stdio_common_vsscanf:PROC
EXTRN	__imp__atof:PROC
EXTRN	__imp__atoi:PROC
EXTRN	__imp_??A?$CSimpleStringT@D$00@ATL@@QBEDH@Z:PROC
EXTRN	__imp_?Empty@?$CSimpleStringT@D$00@ATL@@QAEXXZ:PROC
EXTRN	__imp_?Concatenate@?$CSimpleStringT@D$00@ATL@@KAXAAV12@PBDH1H@Z:PROC
EXTRN	__imp_??0?$CStringT@DV?$StrTraitMFC_DLL@DV?$ChTraitsCRT@D@ATL@@@@@ATL@@QAE@XZ:PROC
EXTRN	__imp_??0?$CStringT@DV?$StrTraitMFC_DLL@DV?$ChTraitsCRT@D@ATL@@@@@ATL@@QAE@PAUIAtlStringMgr@1@@Z:PROC
EXTRN	__imp_??0?$CStringT@DV?$StrTraitMFC_DLL@DV?$ChTraitsCRT@D@ATL@@@@@ATL@@QAE@ABV01@@Z:PROC
EXTRN	__imp_??0?$CStringT@DV?$StrTraitMFC_DLL@DV?$ChTraitsCRT@D@ATL@@@@@ATL@@QAE@PBD@Z:PROC
EXTRN	__imp_??0?$CStringT@DV?$StrTraitMFC_DLL@DV?$ChTraitsCRT@D@ATL@@@@@ATL@@QAE@DH@Z:PROC
EXTRN	__imp_??1?$CStringT@DV?$StrTraitMFC_DLL@DV?$ChTraitsCRT@D@ATL@@@@@ATL@@QAE@XZ:PROC
EXTRN	__imp_??4?$CStringT@DV?$StrTraitMFC_DLL@DV?$ChTraitsCRT@D@ATL@@@@@ATL@@QAEAAV01@ABV01@@Z:PROC
EXTRN	__imp_??4?$CStringT@DV?$StrTraitMFC_DLL@DV?$ChTraitsCRT@D@ATL@@@@@ATL@@QAEAAV01@PBD@Z:PROC
EXTRN	__imp_??Y?$CStringT@DV?$StrTraitMFC_DLL@DV?$ChTraitsCRT@D@ATL@@@@@ATL@@QAEAAV01@ABV?$CSimpleStringT@D$00@1@@Z:PROC
EXTRN	__imp_??Y?$CStringT@DV?$StrTraitMFC_DLL@DV?$ChTraitsCRT@D@ATL@@@@@ATL@@QAEAAV01@PBD@Z:PROC
EXTRN	__imp_??Y?$CStringT@DV?$StrTraitMFC_DLL@DV?$ChTraitsCRT@D@ATL@@@@@ATL@@QAEAAV01@D@Z:PROC
EXTRN	__imp_?GetManager@?$CStringT@DV?$StrTraitMFC_DLL@DV?$ChTraitsCRT@D@ATL@@@@@ATL@@QBEPAUIAtlStringMgr@2@XZ:PROC
EXTRN	__imp_?Compare@?$CStringT@DV?$StrTraitMFC_DLL@DV?$ChTraitsCRT@D@ATL@@@@@ATL@@QBEHPBD@Z:PROC
EXTRN	__imp_?Delete@?$CStringT@DV?$StrTraitMFC_DLL@DV?$ChTraitsCRT@D@ATL@@@@@ATL@@QAEHHH@Z:PROC
EXTRN	__imp_?Replace@?$CStringT@DV?$StrTraitMFC_DLL@DV?$ChTraitsCRT@D@ATL@@@@@ATL@@QAEHPBD0@Z:PROC
EXTRN	__imp_?Remove@?$CStringT@DV?$StrTraitMFC_DLL@DV?$ChTraitsCRT@D@ATL@@@@@ATL@@QAEHD@Z:PROC
EXTRN	__imp_?Find@?$CStringT@DV?$StrTraitMFC_DLL@DV?$ChTraitsCRT@D@ATL@@@@@ATL@@QBEHDH@Z:PROC
EXTRN	__imp_?Find@?$CStringT@DV?$StrTraitMFC_DLL@DV?$ChTraitsCRT@D@ATL@@@@@ATL@@QBEHPBDH@Z:PROC
EXTRN	__imp_?TrimRight@?$CStringT@DV?$StrTraitMFC_DLL@DV?$ChTraitsCRT@D@ATL@@@@@ATL@@QAEAAV12@XZ:PROC
EXTRN	__imp_?TrimLeft@?$CStringT@DV?$StrTraitMFC_DLL@DV?$ChTraitsCRT@D@ATL@@@@@ATL@@QAEAAV12@XZ:PROC
EXTRN	__imp_?TrimRight@?$CStringT@DV?$StrTraitMFC_DLL@DV?$ChTraitsCRT@D@ATL@@@@@ATL@@QAEAAV12@PBD@Z:PROC
EXTRN	__imp_?TrimLeft@?$CStringT@DV?$StrTraitMFC_DLL@DV?$ChTraitsCRT@D@ATL@@@@@ATL@@QAEAAV12@D@Z:PROC
EXTRN	__imp_?Mid@?$CStringT@DV?$StrTraitMFC_DLL@DV?$ChTraitsCRT@D@ATL@@@@@ATL@@QBE?AV12@HH@Z:PROC
EXTRN	__imp_?Right@?$CStringT@DV?$StrTraitMFC_DLL@DV?$ChTraitsCRT@D@ATL@@@@@ATL@@QBE?AV12@H@Z:PROC
EXTRN	__imp_?Left@?$CStringT@DV?$StrTraitMFC_DLL@DV?$ChTraitsCRT@D@ATL@@@@@ATL@@QBE?AV12@H@Z:PROC
EXTRN	__imp_?Format@?$CStringT@DV?$StrTraitMFC_DLL@DV?$ChTraitsCRT@D@ATL@@@@@ATL@@QAAXPBDZZ:PROC
EXTRN	?GetRuntimeClass@CGdiObject@@UBEPAUCRuntimeClass@@XZ:PROC ; CGdiObject::GetRuntimeClass
EXTRN	?Attach@CGdiObject@@QAEHPAX@Z:PROC		; CGdiObject::Attach
EXTRN	?DeleteObject@CGdiObject@@QAEHXZ:PROC		; CGdiObject::DeleteObject
EXTRN	??_ECGdiObject@@UAEPAXI@Z:PROC			; CGdiObject::`vector deleting destructor'
EXTRN	?GetRuntimeClass@CRgn@@UBEPAUCRuntimeClass@@XZ:PROC ; CRgn::GetRuntimeClass
EXTRN	??_ECRgn@@UAEPAXI@Z:PROC			; CRgn::`vector deleting destructor'
EXTRN	?SelectClipRgn@CDC@@QAEHPAVCRgn@@@Z:PROC	; CDC::SelectClipRgn
EXTRN	?AfxMessageBox@@YGHPBDII@Z:PROC			; AfxMessageBox
EXTRN	?Round@CMath@@SAHN@Z:PROC			; CMath::Round
EXTRN	?Round_Double@CMath@@SANABN@Z:PROC		; CMath::Round_Double
EXTRN	?Round@CMath@@SANABNH@Z:PROC			; CMath::Round
EXTRN	?Power@CMath@@SAHHH@Z:PROC			; CMath::Power
EXTRN	@__security_check_cookie@4:PROC
EXTRN	___CxxFrameHandler3:PROC
EXTRN	??_7type_info@@6B@:QWORD			; type_info::`vftable'
EXTRN	___security_cookie:DWORD
EXTRN	__fltused:DWORD
;	COMDAT ?_OptionsStorage@?1??__local_stdio_printf_options@@9@4_KA
_BSS	SEGMENT
?_OptionsStorage@?1??__local_stdio_printf_options@@9@4_KA DQ 01H DUP (?) ; `__local_stdio_printf_options'::`2'::_OptionsStorage
_BSS	ENDS
;	COMDAT ?_OptionsStorage@?1??__local_stdio_scanf_options@@9@4_KA
_BSS	SEGMENT
?_OptionsStorage@?1??__local_stdio_scanf_options@@9@4_KA DQ 01H DUP (?) ; `__local_stdio_scanf_options'::`2'::_OptionsStorage
_BSS	ENDS
;	COMDAT __real@406fe00000000000
CONST	SEGMENT
__real@406fe00000000000 DQ 0406fe00000000000r	; 255
CONST	ENDS
;	COMDAT __real@406e000000000000
CONST	SEGMENT
__real@406e000000000000 DQ 0406e000000000000r	; 240
CONST	ENDS
;	COMDAT __real@405e000000000000
CONST	SEGMENT
__real@405e000000000000 DQ 0405e000000000000r	; 120
CONST	ENDS
;	COMDAT __real@4024000000000000
CONST	SEGMENT
__real@4024000000000000 DQ 04024000000000000r	; 10
CONST	ENDS
;	COMDAT __real@3ff0000000000000
CONST	SEGMENT
__real@3ff0000000000000 DQ 03ff0000000000000r	; 1
CONST	ENDS
;	COMDAT __real@3fe0000000000000
CONST	SEGMENT
__real@3fe0000000000000 DQ 03fe0000000000000r	; 0.5
CONST	ENDS
;	COMDAT __real@0000000000000000
CONST	SEGMENT
__real@0000000000000000 DQ 00000000000000000r	; 0
CONST	ENDS
;	COMDAT ??_C@_06BINLOPDK@?$LN?C?$LA?$KD?$LP?$NM@
CONST	SEGMENT
??_C@_06BINLOPDK@?$LN?C?$LA?$KD?$LP?$NM@ DB 0bdH, 0c3H, 0b0H, 0a3H, 0bfH, 0dcH
	DB	00H						; `string'
CONST	ENDS
;	COMDAT ??_C@_04DNPBDGJL@9999@
CONST	SEGMENT
??_C@_04DNPBDGJL@9999@ DB '9999', 00H			; `string'
CONST	ENDS
;	COMDAT ??_C@_06FDCJKPFJ@?$MA?e?$LI?$LG?$LA?$KI@
CONST	SEGMENT
??_C@_06FDCJKPFJ@?$MA?e?$LI?$LG?$LA?$KI@ DB 0c0H, 0e5H, 0b8H, 0b6H, 0b0H, 0a8H
	DB	00H						; `string'
CONST	ENDS
;	COMDAT ??_C@_04KAPECDDI@8888@
CONST	SEGMENT
??_C@_04KAPECDDI@8888@ DB '8888', 00H			; `string'
CONST	ENDS
;	COMDAT ??_C@_0L@HMKJBHCK@?$MA?e?$LI?$LG?$LA?$KI?A?$LO?$LH?a@
CONST	SEGMENT
??_C@_0L@HMKJBHCK@?$MA?e?$LI?$LG?$LA?$KI?A?$LO?$LH?a@ DB 0c0H, 0e5H, 0b8H
	DB	0b6H, 0b0H, 0a8H, 0c1H, 0beH, 0b7H, 0e1H, 00H ; `string'
CONST	ENDS
;	COMDAT ??_C@_04PGADPPEN@7777@
CONST	SEGMENT
??_C@_04PGADPPEN@7777@ DB '7777', 00H			; `string'
CONST	ENDS
;	COMDAT ??_C@_08GKOAFHAP@?$MA?e?$MA?$PM?A?$LO?$LH?a@
CONST	SEGMENT
??_C@_08GKOAFHAP@?$MA?e?$MA?$PM?A?$LO?$LH?a@ DB 0c0H, 0e5H, 0c0H, 0fcH, 0c1H
	DB	0beH, 0b7H, 0e1H, 00H			; `string'
CONST	ENDS
;	COMDAT ??_C@_04GLAGOKOO@6666@
CONST	SEGMENT
??_C@_04GLAGOKOO@6666@ DB '6666', 00H			; `string'
CONST	ENDS
;	COMDAT ??_C@_01IGIGCIAN@H@
CONST	SEGMENT
??_C@_01IGIGCIAN@H@ DB 'H', 00H				; `string'
CONST	ENDS
;	COMDAT ??_C@_01JLIPDDHJ@?3@
CONST	SEGMENT
??_C@_01JLIPDDHJ@?3@ DB ':', 00H			; `string'
CONST	ENDS
;	COMDAT ??_C@_01KMDKNFGN@?1@
CONST	SEGMENT
??_C@_01KMDKNFGN@?1@ DB '/', 00H			; `string'
CONST	ENDS
;	COMDAT ??_C@_01IHBHIGKO@?0@
CONST	SEGMENT
??_C@_01IHBHIGKO@?0@ DB ',', 00H			; `string'
CONST	ENDS
;	COMDAT ??_C@_02OHOPKNPF@?$LI?$LI@
CONST	SEGMENT
??_C@_02OHOPKNPF@?$LI?$LI@ DB 0b8H, 0b8H, 00H		; `string'
CONST	ENDS
;	COMDAT ??_C@_05CLDMBJBA@10000@
CONST	SEGMENT
??_C@_05CLDMBJBA@10000@ DB '10000', 00H			; `string'
CONST	ENDS
;	COMDAT ??_C@_04CPCLEBDN@?$LN?J?$LI?$LI@
CONST	SEGMENT
??_C@_04CPCLEBDN@?$LN?J?$LI?$LI@ DB 0bdH, 0caH, 0b8H, 0b8H, 00H ; `string'
CONST	ENDS
;	COMDAT ??_C@_06MCNKBKIO@100000@
CONST	SEGMENT
??_C@_06MCNKBKIO@100000@ DB '100000', 00H		; `string'
CONST	ENDS
;	COMDAT ??_C@_04GICMOHCN@?$LJ?i?$LI?$LI@
CONST	SEGMENT
??_C@_04GICMOHCN@?$LJ?i?$LI?$LI@ DB 0b9H, 0e9H, 0b8H, 0b8H, 00H ; `string'
CONST	ENDS
;	COMDAT ??_C@_07NFIEECMO@1000000@
CONST	SEGMENT
??_C@_07NFIEECMO@1000000@ DB '1000000', 00H		; `string'
CONST	ENDS
;	COMDAT ??_C@_04FKJFKPFJ@?C?$LF?$LI?$LI@
CONST	SEGMENT
??_C@_04FKJFKPFJ@?C?$LF?$LI?$LI@ DB 0c3H, 0b5H, 0b8H, 0b8H, 00H ; `string'
CONST	ENDS
;	COMDAT ??_C@_08KDEPFNAG@10000000@
CONST	SEGMENT
??_C@_08KDEPFNAG@10000000@ DB '10000000', 00H		; `string'
CONST	ENDS
;	COMDAT ??_C@_02BGJIBKNE@?$LO?o@
CONST	SEGMENT
??_C@_02BGJIBKNE@?$LO?o@ DB 0beH, 0efH, 00H		; `string'
CONST	ENDS
;	COMDAT ??_C@_09DGIGNMJL@100000000@
CONST	SEGMENT
??_C@_09DGIGNMJL@100000000@ DB '100000000', 00H		; `string'
CONST	ENDS
;	COMDAT ??_C@_04NOFMPGBM@?$LN?J?$LO?o@
CONST	SEGMENT
??_C@_04NOFMPGBM@?$LN?J?$LO?o@ DB 0bdH, 0caH, 0beH, 0efH, 00H ; `string'
CONST	ENDS
;	COMDAT ??_C@_0L@LIKNPKOD@1000000000@
CONST	SEGMENT
??_C@_0L@LIKNPKOD@1000000000@ DB '1000000000', 00H	; `string'
CONST	ENDS
;	COMDAT ??_C@_04JJFLFAAM@?$LJ?i?$LO?o@
CONST	SEGMENT
??_C@_04JJFLFAAM@?$LJ?i?$LO?o@ DB 0b9H, 0e9H, 0beH, 0efH, 00H ; `string'
CONST	ENDS
;	COMDAT ??_C@_0M@OGPNCIML@10000000000@
CONST	SEGMENT
??_C@_0M@OGPNCIML@10000000000@ DB '10000000000', 00H	; `string'
CONST	ENDS
;	COMDAT ??_C@_04KLOCBIHI@?C?$LF?$LO?o@
CONST	SEGMENT
??_C@_04KLOCBIHI@?C?$LF?$LO?o@ DB 0c3H, 0b5H, 0beH, 0efH, 00H ; `string'
CONST	ENDS
;	COMDAT ??_C@_0N@NDBGNAOD@100000000000@
CONST	SEGMENT
??_C@_0N@NDBGNAOD@100000000000@ DB '100000000000', 00H	; `string'
CONST	ENDS
;	COMDAT ??_C@_02CCEMNDKE@?A?$LG@
CONST	SEGMENT
??_C@_02CCEMNDKE@?A?$LG@ DB 0c1H, 0b6H, 00H		; `string'
CONST	ENDS
;	COMDAT ??_C@_0O@OGJGJDOB@1000000000000@
CONST	SEGMENT
??_C@_0O@OGJGJDOB@1000000000000@ DB '1000000000000', 00H ; `string'
CONST	ENDS
;	COMDAT ??_C@_02LLFJKDMN@?$KB?$LP@
CONST	SEGMENT
??_C@_02LLFJKDMN@?$KB?$LP@ DB 0a1H, 0bfH, 00H		; `string'
CONST	ENDS
;	COMDAT ??_C@_04DCGLEEGD@HHMM@
CONST	SEGMENT
??_C@_04DCGLEEGD@HHMM@ DB 'HHMM', 00H			; `string'
CONST	ENDS
;	COMDAT ??_C@_04PKMIKIE@MMSS@
CONST	SEGMENT
??_C@_04PKMIKIE@MMSS@ DB 'MMSS', 00H			; `string'
CONST	ENDS
;	COMDAT ??_C@_06EBMMBHJD@YYYYMM@
CONST	SEGMENT
??_C@_06EBMMBHJD@YYYYMM@ DB 'YYYYMM', 00H		; `string'
CONST	ENDS
;	COMDAT ??_C@_01NFFPALBN@Y@
CONST	SEGMENT
??_C@_01NFFPALBN@Y@ DB 'Y', 00H				; `string'
CONST	ENDS
;	COMDAT ??_C@_02PPNCLIJD@SS@
CONST	SEGMENT
??_C@_02PPNCLIJD@SS@ DB 'SS', 00H			; `string'
CONST	ENDS
;	COMDAT ??_C@_02DNCLAJDG@MM@
CONST	SEGMENT
??_C@_02DNCLAJDG@MM@ DB 'MM', 00H			; `string'
CONST	ENDS
;	COMDAT ??_C@_02EGJHDPJI@HH@
CONST	SEGMENT
??_C@_02EGJHDPJI@HH@ DB 'HH', 00H			; `string'
CONST	ENDS
;	COMDAT ??_C@_04BDEGLLOH@MMDD@
CONST	SEGMENT
??_C@_04BDEGLLOH@MMDD@ DB 'MMDD', 00H			; `string'
CONST	ENDS
;	COMDAT ??_C@_02ODDIIJPA@DD@
CONST	SEGMENT
??_C@_02ODDIIJPA@DD@ DB 'DD', 00H			; `string'
CONST	ENDS
;	COMDAT ??_C@_04GHNNFJCK@?$CF?40f@
CONST	SEGMENT
??_C@_04GHNNFJCK@?$CF?40f@ DB '%.0f', 00H		; `string'
CONST	ENDS
;	COMDAT ??_C@_01LFCBOECM@?4@
CONST	SEGMENT
??_C@_01LFCBOECM@?4@ DB '.', 00H			; `string'
CONST	ENDS
;	COMDAT ??_R1A@?0A@EA@CRgn@@8
rdata$r	SEGMENT
??_R1A@?0A@EA@CRgn@@8 DD FLAT:??_R0?AVCRgn@@@8		; CRgn::`RTTI Base Class Descriptor at (0,-1,0,64)'
	DD	02H
	DD	00H
	DD	0ffffffffH
	DD	00H
	DD	040H
	DD	FLAT:??_R3CRgn@@8
rdata$r	ENDS
;	COMDAT ??_R2CRgn@@8
rdata$r	SEGMENT
??_R2CRgn@@8 DD	FLAT:??_R1A@?0A@EA@CRgn@@8		; CRgn::`RTTI Base Class Array'
	DD	FLAT:??_R1A@?0A@EA@CGdiObject@@8
	DD	FLAT:??_R1A@?0A@EA@CObject@@8
rdata$r	ENDS
;	COMDAT ??_R3CRgn@@8
rdata$r	SEGMENT
??_R3CRgn@@8 DD	00H					; CRgn::`RTTI Class Hierarchy Descriptor'
	DD	00H
	DD	03H
	DD	FLAT:??_R2CRgn@@8
rdata$r	ENDS
;	COMDAT ??_R0?AVCRgn@@@8
data$rs	SEGMENT
??_R0?AVCRgn@@@8 DD FLAT:??_7type_info@@6B@		; CRgn `RTTI Type Descriptor'
	DD	00H
	DB	'.?AVCRgn@@', 00H
data$rs	ENDS
;	COMDAT ??_R4CRgn@@6B@
rdata$r	SEGMENT
??_R4CRgn@@6B@ DD 00H					; CRgn::`RTTI Complete Object Locator'
	DD	00H
	DD	00H
	DD	FLAT:??_R0?AVCRgn@@@8
	DD	FLAT:??_R3CRgn@@8
rdata$r	ENDS
;	COMDAT ??_R1A@?0A@EA@CGdiObject@@8
rdata$r	SEGMENT
??_R1A@?0A@EA@CGdiObject@@8 DD FLAT:??_R0?AVCGdiObject@@@8 ; CGdiObject::`RTTI Base Class Descriptor at (0,-1,0,64)'
	DD	01H
	DD	00H
	DD	0ffffffffH
	DD	00H
	DD	040H
	DD	FLAT:??_R3CGdiObject@@8
rdata$r	ENDS
;	COMDAT ??_R2CGdiObject@@8
rdata$r	SEGMENT
??_R2CGdiObject@@8 DD FLAT:??_R1A@?0A@EA@CGdiObject@@8	; CGdiObject::`RTTI Base Class Array'
	DD	FLAT:??_R1A@?0A@EA@CObject@@8
rdata$r	ENDS
;	COMDAT ??_R3CGdiObject@@8
rdata$r	SEGMENT
??_R3CGdiObject@@8 DD 00H				; CGdiObject::`RTTI Class Hierarchy Descriptor'
	DD	00H
	DD	02H
	DD	FLAT:??_R2CGdiObject@@8
rdata$r	ENDS
;	COMDAT ??_R0?AVCGdiObject@@@8
data$rs	SEGMENT
??_R0?AVCGdiObject@@@8 DD FLAT:??_7type_info@@6B@	; CGdiObject `RTTI Type Descriptor'
	DD	00H
	DB	'.?AVCGdiObject@@', 00H
data$rs	ENDS
;	COMDAT ??_R4CGdiObject@@6B@
rdata$r	SEGMENT
??_R4CGdiObject@@6B@ DD 00H				; CGdiObject::`RTTI Complete Object Locator'
	DD	00H
	DD	00H
	DD	FLAT:??_R0?AVCGdiObject@@@8
	DD	FLAT:??_R3CGdiObject@@8
rdata$r	ENDS
;	COMDAT ??_R1A@?0A@EA@CObject@@8
rdata$r	SEGMENT
??_R1A@?0A@EA@CObject@@8 DD FLAT:??_R0?AVCObject@@@8	; CObject::`RTTI Base Class Descriptor at (0,-1,0,64)'
	DD	00H
	DD	00H
	DD	0ffffffffH
	DD	00H
	DD	040H
	DD	FLAT:??_R3CObject@@8
rdata$r	ENDS
;	COMDAT ??_R2CObject@@8
rdata$r	SEGMENT
??_R2CObject@@8 DD FLAT:??_R1A@?0A@EA@CObject@@8	; CObject::`RTTI Base Class Array'
rdata$r	ENDS
;	COMDAT ??_R3CObject@@8
rdata$r	SEGMENT
??_R3CObject@@8 DD 00H					; CObject::`RTTI Class Hierarchy Descriptor'
	DD	00H
	DD	01H
	DD	FLAT:??_R2CObject@@8
rdata$r	ENDS
;	COMDAT ??_R0?AVCObject@@@8
data$rs	SEGMENT
??_R0?AVCObject@@@8 DD FLAT:??_7type_info@@6B@		; CObject `RTTI Type Descriptor'
	DD	00H
	DB	'.?AVCObject@@', 00H
data$rs	ENDS
;	COMDAT ??_C@_01GBGANLPD@0@
CONST	SEGMENT
??_C@_01GBGANLPD@0@ DB '0', 00H				; `string'
CONST	ENDS
;	COMDAT ??_C@_01HIHLOKLC@1@
CONST	SEGMENT
??_C@_01HIHLOKLC@1@ DB '1', 00H				; `string'
CONST	ENDS
;	COMDAT ??_C@_08GDAMKODC@?$CFd?0?$CFd?0?$CFd@
CONST	SEGMENT
??_C@_08GDAMKODC@?$CFd?0?$CFd?0?$CFd@ DB '%d,%d,%d', 00H ; `string'
CONST	ENDS
;	COMDAT ??_C@_02NJPGOMH@?$CFf@
CONST	SEGMENT
??_C@_02NJPGOMH@?$CFf@ DB '%f', 00H			; `string'
CONST	ENDS
;	COMDAT ??_C@_0N@OMEMOKLE@?$CFTs?5?$CI?$CFTs?3?$CFd?$CJ@
CONST	SEGMENT
??_C@_0N@OMEMOKLE@?$CFTs?5?$CI?$CFTs?3?$CFd?$CJ@ DB '%Ts (%Ts:%d)', 00H ; `string'
CONST	ENDS
;	COMDAT ??_C@_0BB@HBOOMJBF@?$CFTs?5?$CI?$CFTs?3?$CFd?$CJ?6?$CFTs@
CONST	SEGMENT
??_C@_0BB@HBOOMJBF@?$CFTs?5?$CI?$CFTs?3?$CFd?$CJ?6?$CFTs@ DB '%Ts (%Ts:%d'
	DB	')', 0aH, '%Ts', 00H				; `string'
CONST	ENDS
;	COMDAT ??_C@_0BP@OIEOKIDM@Exception?5thrown?5in?5destructor@
CONST	SEGMENT
??_C@_0BP@OIEOKIDM@Exception?5thrown?5in?5destructor@ DB 'Exception throw'
	DB	'n in destructor', 00H			; `string'
CONST	ENDS
;	COMDAT ??_C@_0HD@JJCHHHNK@C?3?2Program?5Files?5?$CIx86?$CJ?2Microsof@
CONST	SEGMENT
??_C@_0HD@JJCHHHNK@C?3?2Program?5Files?5?$CIx86?$CJ?2Microsof@ DB 'C:\Pro'
	DB	'gram Files (x86)\Microsoft Visual Studio\2019\Community\VC\To'
	DB	'ols\MSVC\14.29.30133\atlmfc\include\afxwin1.inl', 00H ; `string'
CONST	ENDS
;	COMDAT ??_7CRgn@@6B@
CONST	SEGMENT
??_7CRgn@@6B@ DD FLAT:??_R4CRgn@@6B@			; CRgn::`vftable'
	DD	FLAT:?GetRuntimeClass@CRgn@@UBEPAUCRuntimeClass@@XZ
	DD	FLAT:??_ECRgn@@UAEPAXI@Z
	DD	FLAT:?Serialize@CObject@@UAEXAAVCArchive@@@Z
	DD	FLAT:?AssertValid@CObject@@UBEXXZ
	DD	FLAT:?Dump@CObject@@UBEXAAVCDumpContext@@@Z
CONST	ENDS
;	COMDAT ??_7CGdiObject@@6B@
CONST	SEGMENT
??_7CGdiObject@@6B@ DD FLAT:??_R4CGdiObject@@6B@	; CGdiObject::`vftable'
	DD	FLAT:?GetRuntimeClass@CGdiObject@@UBEPAUCRuntimeClass@@XZ
	DD	FLAT:??_ECGdiObject@@UAEPAXI@Z
	DD	FLAT:?Serialize@CObject@@UAEXAAVCArchive@@@Z
	DD	FLAT:?AssertValid@CObject@@UBEXXZ
	DD	FLAT:?Dump@CObject@@UBEXAAVCDumpContext@@@Z
CONST	ENDS
;	COMDAT ??_C@_00CNPNBAHC@@
CONST	SEGMENT
??_C@_00CNPNBAHC@@ DB 00H				; `string'
CONST	ENDS
;	COMDAT ??_C@_01CKDDGHAB@D@
CONST	SEGMENT
??_C@_01CKDDGHAB@D@ DB 'D', 00H				; `string'
CONST	ENDS
;	COMDAT ??_C@_01PLPBNMEI@M@
CONST	SEGMENT
??_C@_01PLPBNMEI@M@ DB 'M', 00H				; `string'
CONST	ENDS
;	COMDAT ??_C@_01CPLAODJH@S@
CONST	SEGMENT
??_C@_01CPLAODJH@S@ DB 'S', 00H				; `string'
CONST	ENDS
;	COMDAT ??_C@_02DPKJAMEF@?$CFd@
CONST	SEGMENT
??_C@_02DPKJAMEF@?$CFd@ DB '%d', 00H			; `string'
CONST	ENDS
;	COMDAT ??_R0PAVCException@@@8
data$r	SEGMENT
??_R0PAVCException@@@8 DD FLAT:??_7type_info@@6B@	; CException * `RTTI Type Descriptor'
	DD	00H
	DB	'.PAVCException@@', 00H
data$r	ENDS
;	COMDAT xdata$x
xdata$x	SEGMENT
__unwindtable$?OnPickoutDaily@CDataConversion@@CA_NHABV?$CStringT@DV?$StrTraitMFC_DLL@DV?$ChTraitsCRT@D@ATL@@@@@ATL@@AAH11@Z DD 0ffffffffH
	DD	FLAT:__unwindfunclet$?OnPickoutDaily@CDataConversion@@CA_NHABV?$CStringT@DV?$StrTraitMFC_DLL@DV?$ChTraitsCRT@D@ATL@@@@@ATL@@AAH11@Z$0
__ehfuncinfo$?OnPickoutDaily@CDataConversion@@CA_NHABV?$CStringT@DV?$StrTraitMFC_DLL@DV?$ChTraitsCRT@D@ATL@@@@@ATL@@AAH11@Z DD 019930522H
	DD	01H
	DD	FLAT:__unwindtable$?OnPickoutDaily@CDataConversion@@CA_NHABV?$CStringT@DV?$StrTraitMFC_DLL@DV?$ChTraitsCRT@D@ATL@@@@@ATL@@AAH11@Z
	DD	2 DUP(00H)
	DD	2 DUP(00H)
	DD	00H
	DD	01H
xdata$x	ENDS
;	COMDAT xdata$x
xdata$x	SEGMENT
__unwindtable$?OnPickoutDate@CDataConversion@@CA_NHABV?$CStringT@DV?$StrTraitMFC_DLL@DV?$ChTraitsCRT@D@ATL@@@@@ATL@@HAAH11@Z DD 0ffffffffH
	DD	FLAT:__unwindfunclet$?OnPickoutDate@CDataConversion@@CA_NHABV?$CStringT@DV?$StrTraitMFC_DLL@DV?$ChTraitsCRT@D@ATL@@@@@ATL@@HAAH11@Z$0
__ehfuncinfo$?OnPickoutDate@CDataConversion@@CA_NHABV?$CStringT@DV?$StrTraitMFC_DLL@DV?$ChTraitsCRT@D@ATL@@@@@ATL@@HAAH11@Z DD 019930522H
	DD	01H
	DD	FLAT:__unwindtable$?OnPickoutDate@CDataConversion@@CA_NHABV?$CStringT@DV?$StrTraitMFC_DLL@DV?$ChTraitsCRT@D@ATL@@@@@ATL@@HAAH11@Z
	DD	2 DUP(00H)
	DD	2 DUP(00H)
	DD	00H
	DD	01H
xdata$x	ENDS
;	COMDAT xdata$x
xdata$x	SEGMENT
__unwindtable$?OnPickoutTime@CDataConversion@@CA_NHHABV?$CStringT@DV?$StrTraitMFC_DLL@DV?$ChTraitsCRT@D@ATL@@@@@ATL@@HAAH1111@Z DD 0ffffffffH
	DD	FLAT:__unwindfunclet$?OnPickoutTime@CDataConversion@@CA_NHHABV?$CStringT@DV?$StrTraitMFC_DLL@DV?$ChTraitsCRT@D@ATL@@@@@ATL@@HAAH1111@Z$1
	DD	0ffffffffH
	DD	FLAT:__unwindfunclet$?OnPickoutTime@CDataConversion@@CA_NHHABV?$CStringT@DV?$StrTraitMFC_DLL@DV?$ChTraitsCRT@D@ATL@@@@@ATL@@HAAH1111@Z$2
	DD	0ffffffffH
	DD	FLAT:__unwindfunclet$?OnPickoutTime@CDataConversion@@CA_NHHABV?$CStringT@DV?$StrTraitMFC_DLL@DV?$ChTraitsCRT@D@ATL@@@@@ATL@@HAAH1111@Z$3
__ehfuncinfo$?OnPickoutTime@CDataConversion@@CA_NHHABV?$CStringT@DV?$StrTraitMFC_DLL@DV?$ChTraitsCRT@D@ATL@@@@@ATL@@HAAH1111@Z DD 019930522H
	DD	03H
	DD	FLAT:__unwindtable$?OnPickoutTime@CDataConversion@@CA_NHHABV?$CStringT@DV?$StrTraitMFC_DLL@DV?$ChTraitsCRT@D@ATL@@@@@ATL@@HAAH1111@Z
	DD	2 DUP(00H)
	DD	2 DUP(00H)
	DD	00H
	DD	01H
xdata$x	ENDS
;	COMDAT xdata$x
xdata$x	SEGMENT
__ehfuncinfo$?GetTimeInFormat@CDataConversion@@CAHABV?$CStringT@DV?$StrTraitMFC_DLL@DV?$ChTraitsCRT@D@ATL@@@@@ATL@@HHHH@Z DD 019930522H
	DD	06H
	DD	FLAT:__unwindtable$?GetTimeInFormat@CDataConversion@@CAHABV?$CStringT@DV?$StrTraitMFC_DLL@DV?$ChTraitsCRT@D@ATL@@@@@ATL@@HHHH@Z
	DD	2 DUP(00H)
	DD	2 DUP(00H)
	DD	00H
	DD	01H
__unwindtable$?GetTimeInFormat@CDataConversion@@CAHABV?$CStringT@DV?$StrTraitMFC_DLL@DV?$ChTraitsCRT@D@ATL@@@@@ATL@@HHHH@Z DD 0ffffffffH
	DD	FLAT:__unwindfunclet$?GetTimeInFormat@CDataConversion@@CAHABV?$CStringT@DV?$StrTraitMFC_DLL@DV?$ChTraitsCRT@D@ATL@@@@@ATL@@HHHH@Z$0
	DD	00H
	DD	FLAT:__unwindfunclet$?GetTimeInFormat@CDataConversion@@CAHABV?$CStringT@DV?$StrTraitMFC_DLL@DV?$ChTraitsCRT@D@ATL@@@@@ATL@@HHHH@Z$1
	DD	00H
	DD	FLAT:__unwindfunclet$?GetTimeInFormat@CDataConversion@@CAHABV?$CStringT@DV?$StrTraitMFC_DLL@DV?$ChTraitsCRT@D@ATL@@@@@ATL@@HHHH@Z$2
	DD	00H
	DD	FLAT:__unwindfunclet$?GetTimeInFormat@CDataConversion@@CAHABV?$CStringT@DV?$StrTraitMFC_DLL@DV?$ChTraitsCRT@D@ATL@@@@@ATL@@HHHH@Z$3
	DD	00H
	DD	FLAT:__unwindfunclet$?GetTimeInFormat@CDataConversion@@CAHABV?$CStringT@DV?$StrTraitMFC_DLL@DV?$ChTraitsCRT@D@ATL@@@@@ATL@@HHHH@Z$4
	DD	00H
	DD	FLAT:__unwindfunclet$?GetTimeInFormat@CDataConversion@@CAHABV?$CStringT@DV?$StrTraitMFC_DLL@DV?$ChTraitsCRT@D@ATL@@@@@ATL@@HHHH@Z$5
xdata$x	ENDS
;	COMDAT xdata$x
xdata$x	SEGMENT
__unwindtable$?GetTimeData@CDataConversion@@CA_NABV?$CStringT@DV?$StrTraitMFC_DLL@DV?$ChTraitsCRT@D@ATL@@@@@ATL@@000HAAH1@Z DD 0ffffffffH
	DD	FLAT:__unwindfunclet$?GetTimeData@CDataConversion@@CA_NABV?$CStringT@DV?$StrTraitMFC_DLL@DV?$ChTraitsCRT@D@ATL@@@@@ATL@@000HAAH1@Z$0
	DD	00H
	DD	FLAT:__unwindfunclet$?GetTimeData@CDataConversion@@CA_NABV?$CStringT@DV?$StrTraitMFC_DLL@DV?$ChTraitsCRT@D@ATL@@@@@ATL@@000HAAH1@Z$1
__ehfuncinfo$?GetTimeData@CDataConversion@@CA_NABV?$CStringT@DV?$StrTraitMFC_DLL@DV?$ChTraitsCRT@D@ATL@@@@@ATL@@000HAAH1@Z DD 019930522H
	DD	02H
	DD	FLAT:__unwindtable$?GetTimeData@CDataConversion@@CA_NABV?$CStringT@DV?$StrTraitMFC_DLL@DV?$ChTraitsCRT@D@ATL@@@@@ATL@@000HAAH1@Z
	DD	2 DUP(00H)
	DD	2 DUP(00H)
	DD	00H
	DD	01H
xdata$x	ENDS
;	COMDAT xdata$x
xdata$x	SEGMENT
__ehfuncinfo$?GetTimeData@CDataConversion@@CA_NABV?$CStringT@DV?$StrTraitMFC_DLL@DV?$ChTraitsCRT@D@ATL@@@@@ATL@@00AAH1111111@Z DD 019930522H
	DD	05H
	DD	FLAT:__unwindtable$?GetTimeData@CDataConversion@@CA_NABV?$CStringT@DV?$StrTraitMFC_DLL@DV?$ChTraitsCRT@D@ATL@@@@@ATL@@00AAH1111111@Z
	DD	2 DUP(00H)
	DD	2 DUP(00H)
	DD	00H
	DD	01H
__unwindtable$?GetTimeData@CDataConversion@@CA_NABV?$CStringT@DV?$StrTraitMFC_DLL@DV?$ChTraitsCRT@D@ATL@@@@@ATL@@00AAH1111111@Z DD 0ffffffffH
	DD	FLAT:__unwindfunclet$?GetTimeData@CDataConversion@@CA_NABV?$CStringT@DV?$StrTraitMFC_DLL@DV?$ChTraitsCRT@D@ATL@@@@@ATL@@00AAH1111111@Z$0
	DD	0ffffffffH
	DD	FLAT:__unwindfunclet$?GetTimeData@CDataConversion@@CA_NABV?$CStringT@DV?$StrTraitMFC_DLL@DV?$ChTraitsCRT@D@ATL@@@@@ATL@@00AAH1111111@Z$1
	DD	0ffffffffH
	DD	FLAT:__unwindfunclet$?GetTimeData@CDataConversion@@CA_NABV?$CStringT@DV?$StrTraitMFC_DLL@DV?$ChTraitsCRT@D@ATL@@@@@ATL@@00AAH1111111@Z$2
	DD	0ffffffffH
	DD	FLAT:__unwindfunclet$?GetTimeData@CDataConversion@@CA_NABV?$CStringT@DV?$StrTraitMFC_DLL@DV?$ChTraitsCRT@D@ATL@@@@@ATL@@00AAH1111111@Z$3
	DD	0ffffffffH
	DD	FLAT:__unwindfunclet$?GetTimeData@CDataConversion@@CA_NABV?$CStringT@DV?$StrTraitMFC_DLL@DV?$ChTraitsCRT@D@ATL@@@@@ATL@@00AAH1111111@Z$4
xdata$x	ENDS
;	COMDAT xdata$x
xdata$x	SEGMENT
__unwindtable$?GetAllTime_Minute@CDataConversion@@CA_NHHABV?$CStringT@DV?$StrTraitMFC_DLL@DV?$ChTraitsCRT@D@ATL@@@@@ATL@@AAH1AA_N@Z DD 0ffffffffH
	DD	FLAT:__unwindfunclet$?GetAllTime_Minute@CDataConversion@@CA_NHHABV?$CStringT@DV?$StrTraitMFC_DLL@DV?$ChTraitsCRT@D@ATL@@@@@ATL@@AAH1AA_N@Z$0
	DD	0ffffffffH
	DD	FLAT:__unwindfunclet$?GetAllTime_Minute@CDataConversion@@CA_NHHABV?$CStringT@DV?$StrTraitMFC_DLL@DV?$ChTraitsCRT@D@ATL@@@@@ATL@@AAH1AA_N@Z$1
__ehfuncinfo$?GetAllTime_Minute@CDataConversion@@CA_NHHABV?$CStringT@DV?$StrTraitMFC_DLL@DV?$ChTraitsCRT@D@ATL@@@@@ATL@@AAH1AA_N@Z DD 019930522H
	DD	02H
	DD	FLAT:__unwindtable$?GetAllTime_Minute@CDataConversion@@CA_NHHABV?$CStringT@DV?$StrTraitMFC_DLL@DV?$ChTraitsCRT@D@ATL@@@@@ATL@@AAH1AA_N@Z
	DD	2 DUP(00H)
	DD	2 DUP(00H)
	DD	00H
	DD	01H
xdata$x	ENDS
;	COMDAT xdata$x
xdata$x	SEGMENT
__unwindtable$?GetAllTime_TimePart@CDataConversion@@CA_NHHABV?$CStringT@DV?$StrTraitMFC_DLL@DV?$ChTraitsCRT@D@ATL@@@@@ATL@@AAH111@Z DD 0ffffffffH
	DD	FLAT:__unwindfunclet$?GetAllTime_TimePart@CDataConversion@@CA_NHHABV?$CStringT@DV?$StrTraitMFC_DLL@DV?$ChTraitsCRT@D@ATL@@@@@ATL@@AAH111@Z$0
	DD	0ffffffffH
	DD	FLAT:__unwindfunclet$?GetAllTime_TimePart@CDataConversion@@CA_NHHABV?$CStringT@DV?$StrTraitMFC_DLL@DV?$ChTraitsCRT@D@ATL@@@@@ATL@@AAH111@Z$1
__ehfuncinfo$?GetAllTime_TimePart@CDataConversion@@CA_NHHABV?$CStringT@DV?$StrTraitMFC_DLL@DV?$ChTraitsCRT@D@ATL@@@@@ATL@@AAH111@Z DD 019930522H
	DD	02H
	DD	FLAT:__unwindtable$?GetAllTime_TimePart@CDataConversion@@CA_NHHABV?$CStringT@DV?$StrTraitMFC_DLL@DV?$ChTraitsCRT@D@ATL@@@@@ATL@@AAH111@Z
	DD	2 DUP(00H)
	DD	2 DUP(00H)
	DD	00H
	DD	01H
xdata$x	ENDS
;	COMDAT xdata$x
xdata$x	SEGMENT
__ehfuncinfo$?GetAdditionDataInFormat@CDataConversion@@CA?AV?$CStringT@DV?$StrTraitMFC_DLL@DV?$ChTraitsCRT@D@ATL@@@@@ATL@@HHABV23@H@Z DD 019930522H
	DD	07H
	DD	FLAT:__unwindtable$?GetAdditionDataInFormat@CDataConversion@@CA?AV?$CStringT@DV?$StrTraitMFC_DLL@DV?$ChTraitsCRT@D@ATL@@@@@ATL@@HHABV23@H@Z
	DD	2 DUP(00H)
	DD	2 DUP(00H)
	DD	00H
	DD	01H
__unwindtable$?GetAdditionDataInFormat@CDataConversion@@CA?AV?$CStringT@DV?$StrTraitMFC_DLL@DV?$ChTraitsCRT@D@ATL@@@@@ATL@@HHABV23@H@Z DD 0ffffffffH
	DD	FLAT:__unwindfunclet$?GetAdditionDataInFormat@CDataConversion@@CA?AV?$CStringT@DV?$StrTraitMFC_DLL@DV?$ChTraitsCRT@D@ATL@@@@@ATL@@HHABV23@H@Z$1
	DD	00H
	DD	FLAT:__unwindfunclet$?GetAdditionDataInFormat@CDataConversion@@CA?AV?$CStringT@DV?$StrTraitMFC_DLL@DV?$ChTraitsCRT@D@ATL@@@@@ATL@@HHABV23@H@Z$2
	DD	00H
	DD	FLAT:__unwindfunclet$?GetAdditionDataInFormat@CDataConversion@@CA?AV?$CStringT@DV?$StrTraitMFC_DLL@DV?$ChTraitsCRT@D@ATL@@@@@ATL@@HHABV23@H@Z$3
	DD	00H
	DD	FLAT:__unwindfunclet$?GetAdditionDataInFormat@CDataConversion@@CA?AV?$CStringT@DV?$StrTraitMFC_DLL@DV?$ChTraitsCRT@D@ATL@@@@@ATL@@HHABV23@H@Z$4
	DD	00H
	DD	FLAT:__unwindfunclet$?GetAdditionDataInFormat@CDataConversion@@CA?AV?$CStringT@DV?$StrTraitMFC_DLL@DV?$ChTraitsCRT@D@ATL@@@@@ATL@@HHABV23@H@Z$5
	DD	00H
	DD	FLAT:__unwindfunclet$?GetAdditionDataInFormat@CDataConversion@@CA?AV?$CStringT@DV?$StrTraitMFC_DLL@DV?$ChTraitsCRT@D@ATL@@@@@ATL@@HHABV23@H@Z$6
	DD	00H
	DD	FLAT:__unwindfunclet$?GetAdditionDataInFormat@CDataConversion@@CA?AV?$CStringT@DV?$StrTraitMFC_DLL@DV?$ChTraitsCRT@D@ATL@@@@@ATL@@HHABV23@H@Z$7
xdata$x	ENDS
;	COMDAT xdata$x
xdata$x	SEGMENT
__unwindtable$?IsCalcTimeFormatforCharge@CDataConversion@@CA_NHHABV?$CStringT@DV?$StrTraitMFC_DLL@DV?$ChTraitsCRT@D@ATL@@@@@ATL@@H@Z DD 0ffffffffH
	DD	FLAT:__unwindfunclet$?IsCalcTimeFormatforCharge@CDataConversion@@CA_NHHABV?$CStringT@DV?$StrTraitMFC_DLL@DV?$ChTraitsCRT@D@ATL@@@@@ATL@@H@Z$0
__ehfuncinfo$?IsCalcTimeFormatforCharge@CDataConversion@@CA_NHHABV?$CStringT@DV?$StrTraitMFC_DLL@DV?$ChTraitsCRT@D@ATL@@@@@ATL@@H@Z DD 019930522H
	DD	01H
	DD	FLAT:__unwindtable$?IsCalcTimeFormatforCharge@CDataConversion@@CA_NHHABV?$CStringT@DV?$StrTraitMFC_DLL@DV?$ChTraitsCRT@D@ATL@@@@@ATL@@H@Z
	DD	2 DUP(00H)
	DD	2 DUP(00H)
	DD	00H
	DD	01H
xdata$x	ENDS
;	COMDAT xdata$x
xdata$x	SEGMENT
__unwindtable$?SelectClipRegion@CDataConversion@@SAXPAVCDC@@ABVCRect@@@Z DD 0ffffffffH
	DD	FLAT:__unwindfunclet$?SelectClipRegion@CDataConversion@@SAXPAVCDC@@ABVCRect@@@Z$0
__ehfuncinfo$?SelectClipRegion@CDataConversion@@SAXPAVCDC@@ABVCRect@@@Z DD 019930522H
	DD	01H
	DD	FLAT:__unwindtable$?SelectClipRegion@CDataConversion@@SAXPAVCDC@@ABVCRect@@@Z
	DD	2 DUP(00H)
	DD	2 DUP(00H)
	DD	00H
	DD	01H
xdata$x	ENDS
;	COMDAT xdata$x
xdata$x	SEGMENT
__unwindtable$?InsertString@CDataConversion@@SA?AV?$CStringT@DV?$StrTraitMFC_DLL@DV?$ChTraitsCRT@D@ATL@@@@@ATL@@ABV23@0HH@Z DD 0ffffffffH
	DD	FLAT:__unwindfunclet$?InsertString@CDataConversion@@SA?AV?$CStringT@DV?$StrTraitMFC_DLL@DV?$ChTraitsCRT@D@ATL@@@@@ATL@@ABV23@0HH@Z$1
	DD	00H
	DD	FLAT:__unwindfunclet$?InsertString@CDataConversion@@SA?AV?$CStringT@DV?$StrTraitMFC_DLL@DV?$ChTraitsCRT@D@ATL@@@@@ATL@@ABV23@0HH@Z$2
	DD	01H
	DD	FLAT:__unwindfunclet$?InsertString@CDataConversion@@SA?AV?$CStringT@DV?$StrTraitMFC_DLL@DV?$ChTraitsCRT@D@ATL@@@@@ATL@@ABV23@0HH@Z$4
__ehfuncinfo$?InsertString@CDataConversion@@SA?AV?$CStringT@DV?$StrTraitMFC_DLL@DV?$ChTraitsCRT@D@ATL@@@@@ATL@@ABV23@0HH@Z DD 019930522H
	DD	03H
	DD	FLAT:__unwindtable$?InsertString@CDataConversion@@SA?AV?$CStringT@DV?$StrTraitMFC_DLL@DV?$ChTraitsCRT@D@ATL@@@@@ATL@@ABV23@0HH@Z
	DD	2 DUP(00H)
	DD	2 DUP(00H)
	DD	00H
	DD	01H
xdata$x	ENDS
;	COMDAT xdata$x
xdata$x	SEGMENT
__unwindtable$?GetStringFormatTransCutoff@CDataConversion@@SAHABN0AAV?$CStringT@DV?$StrTraitMFC_DLL@DV?$ChTraitsCRT@D@ATL@@@@@ATL@@1@Z DD 0ffffffffH
	DD	FLAT:__unwindfunclet$?GetStringFormatTransCutoff@CDataConversion@@SAHABN0AAV?$CStringT@DV?$StrTraitMFC_DLL@DV?$ChTraitsCRT@D@ATL@@@@@ATL@@1@Z$0
__ehfuncinfo$?GetStringFormatTransCutoff@CDataConversion@@SAHABN0AAV?$CStringT@DV?$StrTraitMFC_DLL@DV?$ChTraitsCRT@D@ATL@@@@@ATL@@1@Z DD 019930522H
	DD	01H
	DD	FLAT:__unwindtable$?GetStringFormatTransCutoff@CDataConversion@@SAHABN0AAV?$CStringT@DV?$StrTraitMFC_DLL@DV?$ChTraitsCRT@D@ATL@@@@@ATL@@1@Z
	DD	2 DUP(00H)
	DD	2 DUP(00H)
	DD	00H
	DD	01H
xdata$x	ENDS
;	COMDAT xdata$x
xdata$x	SEGMENT
__ehfuncinfo$?GetStringFormatTransCutoff@CDataConversion@@SAHABNABV?$CStringT@DV?$StrTraitMFC_DLL@DV?$ChTraitsCRT@D@ATL@@@@@ATL@@AAV23@2@Z DD 019930522H
	DD	014H
	DD	FLAT:__unwindtable$?GetStringFormatTransCutoff@CDataConversion@@SAHABNABV?$CStringT@DV?$StrTraitMFC_DLL@DV?$ChTraitsCRT@D@ATL@@@@@ATL@@AAV23@2@Z
	DD	2 DUP(00H)
	DD	2 DUP(00H)
	DD	00H
	DD	01H
__unwindtable$?GetStringFormatTransCutoff@CDataConversion@@SAHABNABV?$CStringT@DV?$StrTraitMFC_DLL@DV?$ChTraitsCRT@D@ATL@@@@@ATL@@AAV23@2@Z DD 0ffffffffH
	DD	FLAT:__unwindfunclet$?GetStringFormatTransCutoff@CDataConversion@@SAHABNABV?$CStringT@DV?$StrTraitMFC_DLL@DV?$ChTraitsCRT@D@ATL@@@@@ATL@@AAV23@2@Z$0
	DD	00H
	DD	FLAT:__unwindfunclet$?GetStringFormatTransCutoff@CDataConversion@@SAHABNABV?$CStringT@DV?$StrTraitMFC_DLL@DV?$ChTraitsCRT@D@ATL@@@@@ATL@@AAV23@2@Z$1
	DD	01H
	DD	FLAT:__unwindfunclet$?GetStringFormatTransCutoff@CDataConversion@@SAHABNABV?$CStringT@DV?$StrTraitMFC_DLL@DV?$ChTraitsCRT@D@ATL@@@@@ATL@@AAV23@2@Z$2
	DD	02H
	DD	FLAT:__unwindfunclet$?GetStringFormatTransCutoff@CDataConversion@@SAHABNABV?$CStringT@DV?$StrTraitMFC_DLL@DV?$ChTraitsCRT@D@ATL@@@@@ATL@@AAV23@2@Z$3
	DD	01H
	DD	FLAT:__unwindfunclet$?GetStringFormatTransCutoff@CDataConversion@@SAHABNABV?$CStringT@DV?$StrTraitMFC_DLL@DV?$ChTraitsCRT@D@ATL@@@@@ATL@@AAV23@2@Z$4
	DD	01H
	DD	FLAT:__unwindfunclet$?GetStringFormatTransCutoff@CDataConversion@@SAHABNABV?$CStringT@DV?$StrTraitMFC_DLL@DV?$ChTraitsCRT@D@ATL@@@@@ATL@@AAV23@2@Z$5
	DD	01H
	DD	FLAT:__unwindfunclet$?GetStringFormatTransCutoff@CDataConversion@@SAHABNABV?$CStringT@DV?$StrTraitMFC_DLL@DV?$ChTraitsCRT@D@ATL@@@@@ATL@@AAV23@2@Z$6
	DD	06H
	DD	FLAT:__unwindfunclet$?GetStringFormatTransCutoff@CDataConversion@@SAHABNABV?$CStringT@DV?$StrTraitMFC_DLL@DV?$ChTraitsCRT@D@ATL@@@@@ATL@@AAV23@2@Z$7
	DD	06H
	DD	FLAT:__unwindfunclet$?GetStringFormatTransCutoff@CDataConversion@@SAHABNABV?$CStringT@DV?$StrTraitMFC_DLL@DV?$ChTraitsCRT@D@ATL@@@@@ATL@@AAV23@2@Z$8
	DD	06H
	DD	FLAT:__unwindfunclet$?GetStringFormatTransCutoff@CDataConversion@@SAHABNABV?$CStringT@DV?$StrTraitMFC_DLL@DV?$ChTraitsCRT@D@ATL@@@@@ATL@@AAV23@2@Z$9
	DD	09H
	DD	FLAT:__unwindfunclet$?GetStringFormatTransCutoff@CDataConversion@@SAHABNABV?$CStringT@DV?$StrTraitMFC_DLL@DV?$ChTraitsCRT@D@ATL@@@@@ATL@@AAV23@2@Z$10
	DD	06H
	DD	FLAT:__unwindfunclet$?GetStringFormatTransCutoff@CDataConversion@@SAHABNABV?$CStringT@DV?$StrTraitMFC_DLL@DV?$ChTraitsCRT@D@ATL@@@@@ATL@@AAV23@2@Z$11
	DD	06H
	DD	FLAT:__unwindfunclet$?GetStringFormatTransCutoff@CDataConversion@@SAHABNABV?$CStringT@DV?$StrTraitMFC_DLL@DV?$ChTraitsCRT@D@ATL@@@@@ATL@@AAV23@2@Z$13
	DD	06H
	DD	FLAT:__unwindfunclet$?GetStringFormatTransCutoff@CDataConversion@@SAHABNABV?$CStringT@DV?$StrTraitMFC_DLL@DV?$ChTraitsCRT@D@ATL@@@@@ATL@@AAV23@2@Z$14
	DD	0dH
	DD	FLAT:__unwindfunclet$?GetStringFormatTransCutoff@CDataConversion@@SAHABNABV?$CStringT@DV?$StrTraitMFC_DLL@DV?$ChTraitsCRT@D@ATL@@@@@ATL@@AAV23@2@Z$15
	DD	06H
	DD	FLAT:__unwindfunclet$?GetStringFormatTransCutoff@CDataConversion@@SAHABNABV?$CStringT@DV?$StrTraitMFC_DLL@DV?$ChTraitsCRT@D@ATL@@@@@ATL@@AAV23@2@Z$16
	DD	06H
	DD	FLAT:__unwindfunclet$?GetStringFormatTransCutoff@CDataConversion@@SAHABNABV?$CStringT@DV?$StrTraitMFC_DLL@DV?$ChTraitsCRT@D@ATL@@@@@ATL@@AAV23@2@Z$17
	DD	06H
	DD	FLAT:__unwindfunclet$?GetStringFormatTransCutoff@CDataConversion@@SAHABNABV?$CStringT@DV?$StrTraitMFC_DLL@DV?$ChTraitsCRT@D@ATL@@@@@ATL@@AAV23@2@Z$18
	DD	011H
	DD	FLAT:__unwindfunclet$?GetStringFormatTransCutoff@CDataConversion@@SAHABNABV?$CStringT@DV?$StrTraitMFC_DLL@DV?$ChTraitsCRT@D@ATL@@@@@ATL@@AAV23@2@Z$19
	DD	06H
	DD	FLAT:__unwindfunclet$?GetStringFormatTransCutoff@CDataConversion@@SAHABNABV?$CStringT@DV?$StrTraitMFC_DLL@DV?$ChTraitsCRT@D@ATL@@@@@ATL@@AAV23@2@Z$20
xdata$x	ENDS
;	COMDAT xdata$x
xdata$x	SEGMENT
__unwindtable$?GetCompartType@CDataConversion@@SA?AV?$CStringT@DV?$StrTraitMFC_DLL@DV?$ChTraitsCRT@D@ATL@@@@@ATL@@ABV23@00@Z DD 0ffffffffH
	DD	FLAT:__unwindfunclet$?GetCompartType@CDataConversion@@SA?AV?$CStringT@DV?$StrTraitMFC_DLL@DV?$ChTraitsCRT@D@ATL@@@@@ATL@@ABV23@00@Z$0
	DD	00H
	DD	FLAT:__unwindfunclet$?GetCompartType@CDataConversion@@SA?AV?$CStringT@DV?$StrTraitMFC_DLL@DV?$ChTraitsCRT@D@ATL@@@@@ATL@@ABV23@00@Z$1
	DD	01H
	DD	FLAT:__unwindfunclet$?GetCompartType@CDataConversion@@SA?AV?$CStringT@DV?$StrTraitMFC_DLL@DV?$ChTraitsCRT@D@ATL@@@@@ATL@@ABV23@00@Z$2
__ehfuncinfo$?GetCompartType@CDataConversion@@SA?AV?$CStringT@DV?$StrTraitMFC_DLL@DV?$ChTraitsCRT@D@ATL@@@@@ATL@@ABV23@00@Z DD 019930522H
	DD	03H
	DD	FLAT:__unwindtable$?GetCompartType@CDataConversion@@SA?AV?$CStringT@DV?$StrTraitMFC_DLL@DV?$ChTraitsCRT@D@ATL@@@@@ATL@@ABV23@00@Z
	DD	2 DUP(00H)
	DD	2 DUP(00H)
	DD	00H
	DD	01H
xdata$x	ENDS
;	COMDAT xdata$x
xdata$x	SEGMENT
__ehfuncinfo$?GetStringFormatbyCompart@CDataConversion@@SA?AV?$CStringT@DV?$StrTraitMFC_DLL@DV?$ChTraitsCRT@D@ATL@@@@@ATL@@ABV23@AAV23@001@Z DD 019930522H
	DD	0dH
	DD	FLAT:__unwindtable$?GetStringFormatbyCompart@CDataConversion@@SA?AV?$CStringT@DV?$StrTraitMFC_DLL@DV?$ChTraitsCRT@D@ATL@@@@@ATL@@ABV23@AAV23@001@Z
	DD	2 DUP(00H)
	DD	2 DUP(00H)
	DD	00H
	DD	01H
__unwindtable$?GetStringFormatbyCompart@CDataConversion@@SA?AV?$CStringT@DV?$StrTraitMFC_DLL@DV?$ChTraitsCRT@D@ATL@@@@@ATL@@ABV23@AAV23@001@Z DD 0ffffffffH
	DD	FLAT:__unwindfunclet$?GetStringFormatbyCompart@CDataConversion@@SA?AV?$CStringT@DV?$StrTraitMFC_DLL@DV?$ChTraitsCRT@D@ATL@@@@@ATL@@ABV23@AAV23@001@Z$1
	DD	00H
	DD	FLAT:__unwindfunclet$?GetStringFormatbyCompart@CDataConversion@@SA?AV?$CStringT@DV?$StrTraitMFC_DLL@DV?$ChTraitsCRT@D@ATL@@@@@ATL@@ABV23@AAV23@001@Z$2
	DD	00H
	DD	FLAT:__unwindfunclet$?GetStringFormatbyCompart@CDataConversion@@SA?AV?$CStringT@DV?$StrTraitMFC_DLL@DV?$ChTraitsCRT@D@ATL@@@@@ATL@@ABV23@AAV23@001@Z$11
	DD	00H
	DD	FLAT:__unwindfunclet$?GetStringFormatbyCompart@CDataConversion@@SA?AV?$CStringT@DV?$StrTraitMFC_DLL@DV?$ChTraitsCRT@D@ATL@@@@@ATL@@ABV23@AAV23@001@Z$4
	DD	03H
	DD	FLAT:__unwindfunclet$?GetStringFormatbyCompart@CDataConversion@@SA?AV?$CStringT@DV?$StrTraitMFC_DLL@DV?$ChTraitsCRT@D@ATL@@@@@ATL@@ABV23@AAV23@001@Z$5
	DD	04H
	DD	FLAT:__unwindfunclet$?GetStringFormatbyCompart@CDataConversion@@SA?AV?$CStringT@DV?$StrTraitMFC_DLL@DV?$ChTraitsCRT@D@ATL@@@@@ATL@@ABV23@AAV23@001@Z$12
	DD	05H
	DD	FLAT:__unwindfunclet$?GetStringFormatbyCompart@CDataConversion@@SA?AV?$CStringT@DV?$StrTraitMFC_DLL@DV?$ChTraitsCRT@D@ATL@@@@@ATL@@ABV23@AAV23@001@Z$13
	DD	06H
	DD	FLAT:__unwindfunclet$?GetStringFormatbyCompart@CDataConversion@@SA?AV?$CStringT@DV?$StrTraitMFC_DLL@DV?$ChTraitsCRT@D@ATL@@@@@ATL@@ABV23@AAV23@001@Z$14
	DD	04H
	DD	FLAT:__unwindfunclet$?GetStringFormatbyCompart@CDataConversion@@SA?AV?$CStringT@DV?$StrTraitMFC_DLL@DV?$ChTraitsCRT@D@ATL@@@@@ATL@@ABV23@AAV23@001@Z$6
	DD	08H
	DD	FLAT:__unwindfunclet$?GetStringFormatbyCompart@CDataConversion@@SA?AV?$CStringT@DV?$StrTraitMFC_DLL@DV?$ChTraitsCRT@D@ATL@@@@@ATL@@ABV23@AAV23@001@Z$7
	DD	09H
	DD	FLAT:__unwindfunclet$?GetStringFormatbyCompart@CDataConversion@@SA?AV?$CStringT@DV?$StrTraitMFC_DLL@DV?$ChTraitsCRT@D@ATL@@@@@ATL@@ABV23@AAV23@001@Z$16
	DD	0aH
	DD	FLAT:__unwindfunclet$?GetStringFormatbyCompart@CDataConversion@@SA?AV?$CStringT@DV?$StrTraitMFC_DLL@DV?$ChTraitsCRT@D@ATL@@@@@ATL@@ABV23@AAV23@001@Z$17
	DD	04H
	DD	FLAT:__unwindfunclet$?GetStringFormatbyCompart@CDataConversion@@SA?AV?$CStringT@DV?$StrTraitMFC_DLL@DV?$ChTraitsCRT@D@ATL@@@@@ATL@@ABV23@AAV23@001@Z$10
xdata$x	ENDS
;	COMDAT xdata$x
xdata$x	SEGMENT
__ehfuncinfo$?GetStringFormatTrans@CDataConversion@@SA?AV?$CStringT@DV?$StrTraitMFC_DLL@DV?$ChTraitsCRT@D@ATL@@@@@ATL@@ABV23@000@Z DD 019930522H
	DD	06H
	DD	FLAT:__unwindtable$?GetStringFormatTrans@CDataConversion@@SA?AV?$CStringT@DV?$StrTraitMFC_DLL@DV?$ChTraitsCRT@D@ATL@@@@@ATL@@ABV23@000@Z
	DD	2 DUP(00H)
	DD	2 DUP(00H)
	DD	00H
	DD	01H
__unwindtable$?GetStringFormatTrans@CDataConversion@@SA?AV?$CStringT@DV?$StrTraitMFC_DLL@DV?$ChTraitsCRT@D@ATL@@@@@ATL@@ABV23@000@Z DD 0ffffffffH
	DD	FLAT:__unwindfunclet$?GetStringFormatTrans@CDataConversion@@SA?AV?$CStringT@DV?$StrTraitMFC_DLL@DV?$ChTraitsCRT@D@ATL@@@@@ATL@@ABV23@000@Z$0
	DD	00H
	DD	FLAT:__unwindfunclet$?GetStringFormatTrans@CDataConversion@@SA?AV?$CStringT@DV?$StrTraitMFC_DLL@DV?$ChTraitsCRT@D@ATL@@@@@ATL@@ABV23@000@Z$1
	DD	01H
	DD	FLAT:__unwindfunclet$?GetStringFormatTrans@CDataConversion@@SA?AV?$CStringT@DV?$StrTraitMFC_DLL@DV?$ChTraitsCRT@D@ATL@@@@@ATL@@ABV23@000@Z$2
	DD	02H
	DD	FLAT:__unwindfunclet$?GetStringFormatTrans@CDataConversion@@SA?AV?$CStringT@DV?$StrTraitMFC_DLL@DV?$ChTraitsCRT@D@ATL@@@@@ATL@@ABV23@000@Z$3
	DD	03H
	DD	FLAT:__unwindfunclet$?GetStringFormatTrans@CDataConversion@@SA?AV?$CStringT@DV?$StrTraitMFC_DLL@DV?$ChTraitsCRT@D@ATL@@@@@ATL@@ABV23@000@Z$4
	DD	04H
	DD	FLAT:__unwindfunclet$?GetStringFormatTrans@CDataConversion@@SA?AV?$CStringT@DV?$StrTraitMFC_DLL@DV?$ChTraitsCRT@D@ATL@@@@@ATL@@ABV23@000@Z$5
xdata$x	ENDS
;	COMDAT xdata$x
xdata$x	SEGMENT
__ehfuncinfo$?GetStringThousandFormat@CDataConversion@@SA?AV?$CStringT@DV?$StrTraitMFC_DLL@DV?$ChTraitsCRT@D@ATL@@@@@ATL@@ABV23@@Z DD 019930522H
	DD	0aH
	DD	FLAT:__unwindtable$?GetStringThousandFormat@CDataConversion@@SA?AV?$CStringT@DV?$StrTraitMFC_DLL@DV?$ChTraitsCRT@D@ATL@@@@@ATL@@ABV23@@Z
	DD	2 DUP(00H)
	DD	2 DUP(00H)
	DD	00H
	DD	01H
__unwindtable$?GetStringThousandFormat@CDataConversion@@SA?AV?$CStringT@DV?$StrTraitMFC_DLL@DV?$ChTraitsCRT@D@ATL@@@@@ATL@@ABV23@@Z DD 0ffffffffH
	DD	FLAT:__unwindfunclet$?GetStringThousandFormat@CDataConversion@@SA?AV?$CStringT@DV?$StrTraitMFC_DLL@DV?$ChTraitsCRT@D@ATL@@@@@ATL@@ABV23@@Z$0
	DD	00H
	DD	FLAT:__unwindfunclet$?GetStringThousandFormat@CDataConversion@@SA?AV?$CStringT@DV?$StrTraitMFC_DLL@DV?$ChTraitsCRT@D@ATL@@@@@ATL@@ABV23@@Z$2
	DD	01H
	DD	FLAT:__unwindfunclet$?GetStringThousandFormat@CDataConversion@@SA?AV?$CStringT@DV?$StrTraitMFC_DLL@DV?$ChTraitsCRT@D@ATL@@@@@ATL@@ABV23@@Z$3
	DD	02H
	DD	FLAT:__unwindfunclet$?GetStringThousandFormat@CDataConversion@@SA?AV?$CStringT@DV?$StrTraitMFC_DLL@DV?$ChTraitsCRT@D@ATL@@@@@ATL@@ABV23@@Z$4
	DD	02H
	DD	FLAT:__unwindfunclet$?GetStringThousandFormat@CDataConversion@@SA?AV?$CStringT@DV?$StrTraitMFC_DLL@DV?$ChTraitsCRT@D@ATL@@@@@ATL@@ABV23@@Z$5
	DD	04H
	DD	FLAT:__unwindfunclet$?GetStringThousandFormat@CDataConversion@@SA?AV?$CStringT@DV?$StrTraitMFC_DLL@DV?$ChTraitsCRT@D@ATL@@@@@ATL@@ABV23@@Z$6
	DD	05H
	DD	FLAT:__unwindfunclet$?GetStringThousandFormat@CDataConversion@@SA?AV?$CStringT@DV?$StrTraitMFC_DLL@DV?$ChTraitsCRT@D@ATL@@@@@ATL@@ABV23@@Z$11
	DD	06H
	DD	FLAT:__unwindfunclet$?GetStringThousandFormat@CDataConversion@@SA?AV?$CStringT@DV?$StrTraitMFC_DLL@DV?$ChTraitsCRT@D@ATL@@@@@ATL@@ABV23@@Z$12
	DD	04H
	DD	FLAT:__unwindfunclet$?GetStringThousandFormat@CDataConversion@@SA?AV?$CStringT@DV?$StrTraitMFC_DLL@DV?$ChTraitsCRT@D@ATL@@@@@ATL@@ABV23@@Z$13
	DD	04H
	DD	FLAT:__unwindfunclet$?GetStringThousandFormat@CDataConversion@@SA?AV?$CStringT@DV?$StrTraitMFC_DLL@DV?$ChTraitsCRT@D@ATL@@@@@ATL@@ABV23@@Z$10
xdata$x	ENDS
;	COMDAT xdata$x
xdata$x	SEGMENT
__ehfuncinfo$?GetStringThousandFormat@CDataConversion@@SA?AV?$CStringT@DV?$StrTraitMFC_DLL@DV?$ChTraitsCRT@D@ATL@@@@@ATL@@ABN0@Z DD 019930522H
	DD	08H
	DD	FLAT:__unwindtable$?GetStringThousandFormat@CDataConversion@@SA?AV?$CStringT@DV?$StrTraitMFC_DLL@DV?$ChTraitsCRT@D@ATL@@@@@ATL@@ABN0@Z
	DD	2 DUP(00H)
	DD	2 DUP(00H)
	DD	00H
	DD	01H
__unwindtable$?GetStringThousandFormat@CDataConversion@@SA?AV?$CStringT@DV?$StrTraitMFC_DLL@DV?$ChTraitsCRT@D@ATL@@@@@ATL@@ABN0@Z DD 0ffffffffH
	DD	FLAT:__unwindfunclet$?GetStringThousandFormat@CDataConversion@@SA?AV?$CStringT@DV?$StrTraitMFC_DLL@DV?$ChTraitsCRT@D@ATL@@@@@ATL@@ABN0@Z$0
	DD	00H
	DD	FLAT:__unwindfunclet$?GetStringThousandFormat@CDataConversion@@SA?AV?$CStringT@DV?$StrTraitMFC_DLL@DV?$ChTraitsCRT@D@ATL@@@@@ATL@@ABN0@Z$1
	DD	01H
	DD	FLAT:__unwindfunclet$?GetStringThousandFormat@CDataConversion@@SA?AV?$CStringT@DV?$StrTraitMFC_DLL@DV?$ChTraitsCRT@D@ATL@@@@@ATL@@ABN0@Z$2
	DD	02H
	DD	FLAT:__unwindfunclet$?GetStringThousandFormat@CDataConversion@@SA?AV?$CStringT@DV?$StrTraitMFC_DLL@DV?$ChTraitsCRT@D@ATL@@@@@ATL@@ABN0@Z$3
	DD	03H
	DD	FLAT:__unwindfunclet$?GetStringThousandFormat@CDataConversion@@SA?AV?$CStringT@DV?$StrTraitMFC_DLL@DV?$ChTraitsCRT@D@ATL@@@@@ATL@@ABN0@Z$4
	DD	02H
	DD	FLAT:__unwindfunclet$?GetStringThousandFormat@CDataConversion@@SA?AV?$CStringT@DV?$StrTraitMFC_DLL@DV?$ChTraitsCRT@D@ATL@@@@@ATL@@ABN0@Z$6
	DD	02H
	DD	FLAT:__unwindfunclet$?GetStringThousandFormat@CDataConversion@@SA?AV?$CStringT@DV?$StrTraitMFC_DLL@DV?$ChTraitsCRT@D@ATL@@@@@ATL@@ABN0@Z$8
	DD	02H
	DD	FLAT:__unwindfunclet$?GetStringThousandFormat@CDataConversion@@SA?AV?$CStringT@DV?$StrTraitMFC_DLL@DV?$ChTraitsCRT@D@ATL@@@@@ATL@@ABN0@Z$9
xdata$x	ENDS
;	COMDAT xdata$x
xdata$x	SEGMENT
__ehfuncinfo$?GetStringFormatTrans@CDataConversion@@SA?AV?$CStringT@DV?$StrTraitMFC_DLL@DV?$ChTraitsCRT@D@ATL@@@@@ATL@@ABV23@0@Z DD 019930522H
	DD	010H
	DD	FLAT:__unwindtable$?GetStringFormatTrans@CDataConversion@@SA?AV?$CStringT@DV?$StrTraitMFC_DLL@DV?$ChTraitsCRT@D@ATL@@@@@ATL@@ABV23@0@Z
	DD	2 DUP(00H)
	DD	2 DUP(00H)
	DD	00H
	DD	01H
__unwindtable$?GetStringFormatTrans@CDataConversion@@SA?AV?$CStringT@DV?$StrTraitMFC_DLL@DV?$ChTraitsCRT@D@ATL@@@@@ATL@@ABV23@0@Z DD 0ffffffffH
	DD	FLAT:__unwindfunclet$?GetStringFormatTrans@CDataConversion@@SA?AV?$CStringT@DV?$StrTraitMFC_DLL@DV?$ChTraitsCRT@D@ATL@@@@@ATL@@ABV23@0@Z$1
	DD	00H
	DD	FLAT:__unwindfunclet$?GetStringFormatTrans@CDataConversion@@SA?AV?$CStringT@DV?$StrTraitMFC_DLL@DV?$ChTraitsCRT@D@ATL@@@@@ATL@@ABV23@0@Z$2
	DD	01H
	DD	FLAT:__unwindfunclet$?GetStringFormatTrans@CDataConversion@@SA?AV?$CStringT@DV?$StrTraitMFC_DLL@DV?$ChTraitsCRT@D@ATL@@@@@ATL@@ABV23@0@Z$8
	DD	02H
	DD	FLAT:__unwindfunclet$?GetStringFormatTrans@CDataConversion@@SA?AV?$CStringT@DV?$StrTraitMFC_DLL@DV?$ChTraitsCRT@D@ATL@@@@@ATL@@ABV23@0@Z$9
	DD	03H
	DD	FLAT:__unwindfunclet$?GetStringFormatTrans@CDataConversion@@SA?AV?$CStringT@DV?$StrTraitMFC_DLL@DV?$ChTraitsCRT@D@ATL@@@@@ATL@@ABV23@0@Z$10
	DD	04H
	DD	FLAT:__unwindfunclet$?GetStringFormatTrans@CDataConversion@@SA?AV?$CStringT@DV?$StrTraitMFC_DLL@DV?$ChTraitsCRT@D@ATL@@@@@ATL@@ABV23@0@Z$11
	DD	05H
	DD	FLAT:__unwindfunclet$?GetStringFormatTrans@CDataConversion@@SA?AV?$CStringT@DV?$StrTraitMFC_DLL@DV?$ChTraitsCRT@D@ATL@@@@@ATL@@ABV23@0@Z$12
	DD	06H
	DD	FLAT:__unwindfunclet$?GetStringFormatTrans@CDataConversion@@SA?AV?$CStringT@DV?$StrTraitMFC_DLL@DV?$ChTraitsCRT@D@ATL@@@@@ATL@@ABV23@0@Z$13
	DD	0ffffffffH
	DD	FLAT:__unwindfunclet$?GetStringFormatTrans@CDataConversion@@SA?AV?$CStringT@DV?$StrTraitMFC_DLL@DV?$ChTraitsCRT@D@ATL@@@@@ATL@@ABV23@0@Z$3
	DD	08H
	DD	FLAT:__unwindfunclet$?GetStringFormatTrans@CDataConversion@@SA?AV?$CStringT@DV?$StrTraitMFC_DLL@DV?$ChTraitsCRT@D@ATL@@@@@ATL@@ABV23@0@Z$4
	DD	08H
	DD	FLAT:__unwindfunclet$?GetStringFormatTrans@CDataConversion@@SA?AV?$CStringT@DV?$StrTraitMFC_DLL@DV?$ChTraitsCRT@D@ATL@@@@@ATL@@ABV23@0@Z$5
	DD	08H
	DD	FLAT:__unwindfunclet$?GetStringFormatTrans@CDataConversion@@SA?AV?$CStringT@DV?$StrTraitMFC_DLL@DV?$ChTraitsCRT@D@ATL@@@@@ATL@@ABV23@0@Z$16
	DD	0bH
	DD	FLAT:__unwindfunclet$?GetStringFormatTrans@CDataConversion@@SA?AV?$CStringT@DV?$StrTraitMFC_DLL@DV?$ChTraitsCRT@D@ATL@@@@@ATL@@ABV23@0@Z$19
	DD	0bH
	DD	FLAT:__unwindfunclet$?GetStringFormatTrans@CDataConversion@@SA?AV?$CStringT@DV?$StrTraitMFC_DLL@DV?$ChTraitsCRT@D@ATL@@@@@ATL@@ABV23@0@Z$17
	DD	08H
	DD	FLAT:__unwindfunclet$?GetStringFormatTrans@CDataConversion@@SA?AV?$CStringT@DV?$StrTraitMFC_DLL@DV?$ChTraitsCRT@D@ATL@@@@@ATL@@ABV23@0@Z$6
	DD	0eH
	DD	FLAT:__unwindfunclet$?GetStringFormatTrans@CDataConversion@@SA?AV?$CStringT@DV?$StrTraitMFC_DLL@DV?$ChTraitsCRT@D@ATL@@@@@ATL@@ABV23@0@Z$7
xdata$x	ENDS
;	COMDAT xdata$x
xdata$x	SEGMENT
__unwindtable$?GetChangeFormat_NumCharUnit@CDataConversion@@SA?AV?$CStringT@DV?$StrTraitMFC_DLL@DV?$ChTraitsCRT@D@ATL@@@@@ATL@@ABV23@@Z DD 0ffffffffH
	DD	FLAT:__unwindfunclet$?GetChangeFormat_NumCharUnit@CDataConversion@@SA?AV?$CStringT@DV?$StrTraitMFC_DLL@DV?$ChTraitsCRT@D@ATL@@@@@ATL@@ABV23@@Z$0
__ehfuncinfo$?GetChangeFormat_NumCharUnit@CDataConversion@@SA?AV?$CStringT@DV?$StrTraitMFC_DLL@DV?$ChTraitsCRT@D@ATL@@@@@ATL@@ABV23@@Z DD 019930522H
	DD	01H
	DD	FLAT:__unwindtable$?GetChangeFormat_NumCharUnit@CDataConversion@@SA?AV?$CStringT@DV?$StrTraitMFC_DLL@DV?$ChTraitsCRT@D@ATL@@@@@ATL@@ABV23@@Z
	DD	2 DUP(00H)
	DD	2 DUP(00H)
	DD	00H
	DD	01H
xdata$x	ENDS
;	COMDAT xdata$x
xdata$x	SEGMENT
__unwindtable$?GetDataType@CDataConversion@@SANV?$CStringT@DV?$StrTraitMFC_DLL@DV?$ChTraitsCRT@D@ATL@@@@@ATL@@@Z DD 0ffffffffH
	DD	FLAT:__unwindfunclet$?GetDataType@CDataConversion@@SANV?$CStringT@DV?$StrTraitMFC_DLL@DV?$ChTraitsCRT@D@ATL@@@@@ATL@@@Z$0
__ehfuncinfo$?GetDataType@CDataConversion@@SANV?$CStringT@DV?$StrTraitMFC_DLL@DV?$ChTraitsCRT@D@ATL@@@@@ATL@@@Z DD 019930522H
	DD	01H
	DD	FLAT:__unwindtable$?GetDataType@CDataConversion@@SANV?$CStringT@DV?$StrTraitMFC_DLL@DV?$ChTraitsCRT@D@ATL@@@@@ATL@@@Z
	DD	2 DUP(00H)
	DD	2 DUP(00H)
	DD	00H
	DD	01H
xdata$x	ENDS
;	COMDAT xdata$x
xdata$x	SEGMENT
__unwindtable$?GetDecimalDownCount@CDataConversion@@SAHABV?$CStringT@DV?$StrTraitMFC_DLL@DV?$ChTraitsCRT@D@ATL@@@@@ATL@@_N@Z DD 0ffffffffH
	DD	FLAT:__unwindfunclet$?GetDecimalDownCount@CDataConversion@@SAHABV?$CStringT@DV?$StrTraitMFC_DLL@DV?$ChTraitsCRT@D@ATL@@@@@ATL@@_N@Z$0
	DD	00H
	DD	FLAT:__unwindfunclet$?GetDecimalDownCount@CDataConversion@@SAHABV?$CStringT@DV?$StrTraitMFC_DLL@DV?$ChTraitsCRT@D@ATL@@@@@ATL@@_N@Z$3
	DD	00H
	DD	FLAT:__unwindfunclet$?GetDecimalDownCount@CDataConversion@@SAHABV?$CStringT@DV?$StrTraitMFC_DLL@DV?$ChTraitsCRT@D@ATL@@@@@ATL@@_N@Z$1
__ehfuncinfo$?GetDecimalDownCount@CDataConversion@@SAHABV?$CStringT@DV?$StrTraitMFC_DLL@DV?$ChTraitsCRT@D@ATL@@@@@ATL@@_N@Z DD 019930522H
	DD	03H
	DD	FLAT:__unwindtable$?GetDecimalDownCount@CDataConversion@@SAHABV?$CStringT@DV?$StrTraitMFC_DLL@DV?$ChTraitsCRT@D@ATL@@@@@ATL@@_N@Z
	DD	2 DUP(00H)
	DD	2 DUP(00H)
	DD	00H
	DD	01H
xdata$x	ENDS
;	COMDAT xdata$x
xdata$x	SEGMENT
__unwindtable$?GetStringDataCount@CDataConversion@@SAHABV?$CStringT@DV?$StrTraitMFC_DLL@DV?$ChTraitsCRT@D@ATL@@@@@ATL@@0@Z DD 0ffffffffH
	DD	FLAT:__unwindfunclet$?GetStringDataCount@CDataConversion@@SAHABV?$CStringT@DV?$StrTraitMFC_DLL@DV?$ChTraitsCRT@D@ATL@@@@@ATL@@0@Z$0
__ehfuncinfo$?GetStringDataCount@CDataConversion@@SAHABV?$CStringT@DV?$StrTraitMFC_DLL@DV?$ChTraitsCRT@D@ATL@@@@@ATL@@0@Z DD 019930522H
	DD	01H
	DD	FLAT:__unwindtable$?GetStringDataCount@CDataConversion@@SAHABV?$CStringT@DV?$StrTraitMFC_DLL@DV?$ChTraitsCRT@D@ATL@@@@@ATL@@0@Z
	DD	2 DUP(00H)
	DD	2 DUP(00H)
	DD	00H
	DD	01H
xdata$x	ENDS
;	COMDAT xdata$x
xdata$x	SEGMENT
__unwindtable$?GetMidToTrimDataIndex@CDataConversion@@SA?AV?$CStringT@DV?$StrTraitMFC_DLL@DV?$ChTraitsCRT@D@ATL@@@@@ATL@@ABV23@0H_N@Z DD 0ffffffffH
	DD	FLAT:__unwindfunclet$?GetMidToTrimDataIndex@CDataConversion@@SA?AV?$CStringT@DV?$StrTraitMFC_DLL@DV?$ChTraitsCRT@D@ATL@@@@@ATL@@ABV23@0H_N@Z$2
__ehfuncinfo$?GetMidToTrimDataIndex@CDataConversion@@SA?AV?$CStringT@DV?$StrTraitMFC_DLL@DV?$ChTraitsCRT@D@ATL@@@@@ATL@@ABV23@0H_N@Z DD 019930522H
	DD	01H
	DD	FLAT:__unwindtable$?GetMidToTrimDataIndex@CDataConversion@@SA?AV?$CStringT@DV?$StrTraitMFC_DLL@DV?$ChTraitsCRT@D@ATL@@@@@ATL@@ABV23@0H_N@Z
	DD	2 DUP(00H)
	DD	2 DUP(00H)
	DD	00H
	DD	01H
xdata$x	ENDS
;	COMDAT xdata$x
xdata$x	SEGMENT
__unwindtable$?GetMidToTrimDataEndIndex@CDataConversion@@SA?AV?$CStringT@DV?$StrTraitMFC_DLL@DV?$ChTraitsCRT@D@ATL@@@@@ATL@@ABV23@0H_N1@Z DD 0ffffffffH
	DD	FLAT:__unwindfunclet$?GetMidToTrimDataEndIndex@CDataConversion@@SA?AV?$CStringT@DV?$StrTraitMFC_DLL@DV?$ChTraitsCRT@D@ATL@@@@@ATL@@ABV23@0H_N1@Z$1
__ehfuncinfo$?GetMidToTrimDataEndIndex@CDataConversion@@SA?AV?$CStringT@DV?$StrTraitMFC_DLL@DV?$ChTraitsCRT@D@ATL@@@@@ATL@@ABV23@0H_N1@Z DD 019930522H
	DD	01H
	DD	FLAT:__unwindtable$?GetMidToTrimDataEndIndex@CDataConversion@@SA?AV?$CStringT@DV?$StrTraitMFC_DLL@DV?$ChTraitsCRT@D@ATL@@@@@ATL@@ABV23@0H_N1@Z
	DD	2 DUP(00H)
	DD	2 DUP(00H)
	DD	00H
	DD	01H
xdata$x	ENDS
;	COMDAT xdata$x
xdata$x	SEGMENT
__unwindtable$?GetStringData@CDataConversion@@SA?AV?$CStringT@DV?$StrTraitMFC_DLL@DV?$ChTraitsCRT@D@ATL@@@@@ATL@@AAV23@ABV23@H@Z DD 0ffffffffH
	DD	FLAT:__unwindfunclet$?GetStringData@CDataConversion@@SA?AV?$CStringT@DV?$StrTraitMFC_DLL@DV?$ChTraitsCRT@D@ATL@@@@@ATL@@AAV23@ABV23@H@Z$1
	DD	00H
	DD	FLAT:__unwindfunclet$?GetStringData@CDataConversion@@SA?AV?$CStringT@DV?$StrTraitMFC_DLL@DV?$ChTraitsCRT@D@ATL@@@@@ATL@@AAV23@ABV23@H@Z$2
	DD	01H
	DD	FLAT:__unwindfunclet$?GetStringData@CDataConversion@@SA?AV?$CStringT@DV?$StrTraitMFC_DLL@DV?$ChTraitsCRT@D@ATL@@@@@ATL@@AAV23@ABV23@H@Z$3
	DD	01H
	DD	FLAT:__unwindfunclet$?GetStringData@CDataConversion@@SA?AV?$CStringT@DV?$StrTraitMFC_DLL@DV?$ChTraitsCRT@D@ATL@@@@@ATL@@AAV23@ABV23@H@Z$4
__ehfuncinfo$?GetStringData@CDataConversion@@SA?AV?$CStringT@DV?$StrTraitMFC_DLL@DV?$ChTraitsCRT@D@ATL@@@@@ATL@@AAV23@ABV23@H@Z DD 019930522H
	DD	04H
	DD	FLAT:__unwindtable$?GetStringData@CDataConversion@@SA?AV?$CStringT@DV?$StrTraitMFC_DLL@DV?$ChTraitsCRT@D@ATL@@@@@ATL@@AAV23@ABV23@H@Z
	DD	2 DUP(00H)
	DD	2 DUP(00H)
	DD	00H
	DD	01H
xdata$x	ENDS
;	COMDAT xdata$x
xdata$x	SEGMENT
__unwindtable$?GetStringData@CDataConversion@@SA?AV?$CStringT@DV?$StrTraitMFC_DLL@DV?$ChTraitsCRT@D@ATL@@@@@ATL@@AAV23@ABV23@1_N@Z DD 0ffffffffH
	DD	FLAT:__unwindfunclet$?GetStringData@CDataConversion@@SA?AV?$CStringT@DV?$StrTraitMFC_DLL@DV?$ChTraitsCRT@D@ATL@@@@@ATL@@AAV23@ABV23@1_N@Z$2
	DD	00H
	DD	FLAT:__unwindfunclet$?GetStringData@CDataConversion@@SA?AV?$CStringT@DV?$StrTraitMFC_DLL@DV?$ChTraitsCRT@D@ATL@@@@@ATL@@AAV23@ABV23@1_N@Z$3
__ehfuncinfo$?GetStringData@CDataConversion@@SA?AV?$CStringT@DV?$StrTraitMFC_DLL@DV?$ChTraitsCRT@D@ATL@@@@@ATL@@AAV23@ABV23@1_N@Z DD 019930522H
	DD	02H
	DD	FLAT:__unwindtable$?GetStringData@CDataConversion@@SA?AV?$CStringT@DV?$StrTraitMFC_DLL@DV?$ChTraitsCRT@D@ATL@@@@@ATL@@AAV23@ABV23@1_N@Z
	DD	2 DUP(00H)
	DD	2 DUP(00H)
	DD	00H
	DD	01H
xdata$x	ENDS
;	COMDAT xdata$x
xdata$x	SEGMENT
__unwindtable$?GetStringData@CDataConversion@@SA?AV?$CStringT@DV?$StrTraitMFC_DLL@DV?$ChTraitsCRT@D@ATL@@@@@ATL@@AAV23@ABV23@_N@Z DD 0ffffffffH
	DD	FLAT:__unwindfunclet$?GetStringData@CDataConversion@@SA?AV?$CStringT@DV?$StrTraitMFC_DLL@DV?$ChTraitsCRT@D@ATL@@@@@ATL@@AAV23@ABV23@_N@Z$1
	DD	00H
	DD	FLAT:__unwindfunclet$?GetStringData@CDataConversion@@SA?AV?$CStringT@DV?$StrTraitMFC_DLL@DV?$ChTraitsCRT@D@ATL@@@@@ATL@@AAV23@ABV23@_N@Z$2
	DD	00H
	DD	FLAT:__unwindfunclet$?GetStringData@CDataConversion@@SA?AV?$CStringT@DV?$StrTraitMFC_DLL@DV?$ChTraitsCRT@D@ATL@@@@@ATL@@AAV23@ABV23@_N@Z$3
__ehfuncinfo$?GetStringData@CDataConversion@@SA?AV?$CStringT@DV?$StrTraitMFC_DLL@DV?$ChTraitsCRT@D@ATL@@@@@ATL@@AAV23@ABV23@_N@Z DD 019930522H
	DD	03H
	DD	FLAT:__unwindtable$?GetStringData@CDataConversion@@SA?AV?$CStringT@DV?$StrTraitMFC_DLL@DV?$ChTraitsCRT@D@ATL@@@@@ATL@@AAV23@ABV23@_N@Z
	DD	2 DUP(00H)
	DD	2 DUP(00H)
	DD	00H
	DD	01H
xdata$x	ENDS
;	COMDAT xdata$x
xdata$x	SEGMENT
__ehfuncinfo$?CalcDateFormat@CDataConversion@@SAHHHABV?$CStringT@DV?$StrTraitMFC_DLL@DV?$ChTraitsCRT@D@ATL@@@@@ATL@@HH@Z DD 019930522H
	DD	0cH
	DD	FLAT:__unwindtable$?CalcDateFormat@CDataConversion@@SAHHHABV?$CStringT@DV?$StrTraitMFC_DLL@DV?$ChTraitsCRT@D@ATL@@@@@ATL@@HH@Z
	DD	2 DUP(00H)
	DD	2 DUP(00H)
	DD	00H
	DD	01H
__unwindtable$?CalcDateFormat@CDataConversion@@SAHHHABV?$CStringT@DV?$StrTraitMFC_DLL@DV?$ChTraitsCRT@D@ATL@@@@@ATL@@HH@Z DD 0ffffffffH
	DD	FLAT:__unwindfunclet$?CalcDateFormat@CDataConversion@@SAHHHABV?$CStringT@DV?$StrTraitMFC_DLL@DV?$ChTraitsCRT@D@ATL@@@@@ATL@@HH@Z$0
	DD	00H
	DD	FLAT:__unwindfunclet$?CalcDateFormat@CDataConversion@@SAHHHABV?$CStringT@DV?$StrTraitMFC_DLL@DV?$ChTraitsCRT@D@ATL@@@@@ATL@@HH@Z$1
	DD	00H
	DD	FLAT:__unwindfunclet$?CalcDateFormat@CDataConversion@@SAHHHABV?$CStringT@DV?$StrTraitMFC_DLL@DV?$ChTraitsCRT@D@ATL@@@@@ATL@@HH@Z$3
	DD	00H
	DD	FLAT:__unwindfunclet$?CalcDateFormat@CDataConversion@@SAHHHABV?$CStringT@DV?$StrTraitMFC_DLL@DV?$ChTraitsCRT@D@ATL@@@@@ATL@@HH@Z$5
	DD	00H
	DD	FLAT:__unwindfunclet$?CalcDateFormat@CDataConversion@@SAHHHABV?$CStringT@DV?$StrTraitMFC_DLL@DV?$ChTraitsCRT@D@ATL@@@@@ATL@@HH@Z$7
	DD	04H
	DD	FLAT:__unwindfunclet$?CalcDateFormat@CDataConversion@@SAHHHABV?$CStringT@DV?$StrTraitMFC_DLL@DV?$ChTraitsCRT@D@ATL@@@@@ATL@@HH@Z$8
	DD	05H
	DD	FLAT:__unwindfunclet$?CalcDateFormat@CDataConversion@@SAHHHABV?$CStringT@DV?$StrTraitMFC_DLL@DV?$ChTraitsCRT@D@ATL@@@@@ATL@@HH@Z$9
	DD	06H
	DD	FLAT:__unwindfunclet$?CalcDateFormat@CDataConversion@@SAHHHABV?$CStringT@DV?$StrTraitMFC_DLL@DV?$ChTraitsCRT@D@ATL@@@@@ATL@@HH@Z$10
	DD	05H
	DD	FLAT:__unwindfunclet$?CalcDateFormat@CDataConversion@@SAHHHABV?$CStringT@DV?$StrTraitMFC_DLL@DV?$ChTraitsCRT@D@ATL@@@@@ATL@@HH@Z$10
	DD	04H
	DD	FLAT:__unwindfunclet$?CalcDateFormat@CDataConversion@@SAHHHABV?$CStringT@DV?$StrTraitMFC_DLL@DV?$ChTraitsCRT@D@ATL@@@@@ATL@@HH@Z$10
	DD	00H
	DD	FLAT:__unwindfunclet$?CalcDateFormat@CDataConversion@@SAHHHABV?$CStringT@DV?$StrTraitMFC_DLL@DV?$ChTraitsCRT@D@ATL@@@@@ATL@@HH@Z$10
	DD	0aH
	DD	FLAT:__unwindfunclet$?CalcDateFormat@CDataConversion@@SAHHHABV?$CStringT@DV?$StrTraitMFC_DLL@DV?$ChTraitsCRT@D@ATL@@@@@ATL@@HH@Z$11
xdata$x	ENDS
;	COMDAT xdata$x
xdata$x	SEGMENT
__unwindtable$?CalcTimeFormatforCharge@CDataConversion@@SAHHHABV?$CStringT@DV?$StrTraitMFC_DLL@DV?$ChTraitsCRT@D@ATL@@@@@ATL@@H_N@Z DD 0ffffffffH
	DD	FLAT:__unwindfunclet$?CalcTimeFormatforCharge@CDataConversion@@SAHHHABV?$CStringT@DV?$StrTraitMFC_DLL@DV?$ChTraitsCRT@D@ATL@@@@@ATL@@H_N@Z$2
	DD	0ffffffffH
	DD	FLAT:__unwindfunclet$?CalcTimeFormatforCharge@CDataConversion@@SAHHHABV?$CStringT@DV?$StrTraitMFC_DLL@DV?$ChTraitsCRT@D@ATL@@@@@ATL@@H_N@Z$0
	DD	01H
	DD	FLAT:__unwindfunclet$?CalcTimeFormatforCharge@CDataConversion@@SAHHHABV?$CStringT@DV?$StrTraitMFC_DLL@DV?$ChTraitsCRT@D@ATL@@@@@ATL@@H_N@Z$1
__ehfuncinfo$?CalcTimeFormatforCharge@CDataConversion@@SAHHHABV?$CStringT@DV?$StrTraitMFC_DLL@DV?$ChTraitsCRT@D@ATL@@@@@ATL@@H_N@Z DD 019930522H
	DD	03H
	DD	FLAT:__unwindtable$?CalcTimeFormatforCharge@CDataConversion@@SAHHHABV?$CStringT@DV?$StrTraitMFC_DLL@DV?$ChTraitsCRT@D@ATL@@@@@ATL@@H_N@Z
	DD	2 DUP(00H)
	DD	2 DUP(00H)
	DD	00H
	DD	01H
xdata$x	ENDS
;	COMDAT xdata$x
xdata$x	SEGMENT
__unwindtable$?CalcTimeFormat@CDataConversion@@SAHHHABV?$CStringT@DV?$StrTraitMFC_DLL@DV?$ChTraitsCRT@D@ATL@@@@@ATL@@_N@Z DD 0ffffffffH
	DD	FLAT:__unwindfunclet$?CalcTimeFormat@CDataConversion@@SAHHHABV?$CStringT@DV?$StrTraitMFC_DLL@DV?$ChTraitsCRT@D@ATL@@@@@ATL@@_N@Z$0
	DD	00H
	DD	FLAT:__unwindfunclet$?CalcTimeFormat@CDataConversion@@SAHHHABV?$CStringT@DV?$StrTraitMFC_DLL@DV?$ChTraitsCRT@D@ATL@@@@@ATL@@_N@Z$1
__ehfuncinfo$?CalcTimeFormat@CDataConversion@@SAHHHABV?$CStringT@DV?$StrTraitMFC_DLL@DV?$ChTraitsCRT@D@ATL@@@@@ATL@@_N@Z DD 019930522H
	DD	02H
	DD	FLAT:__unwindtable$?CalcTimeFormat@CDataConversion@@SAHHHABV?$CStringT@DV?$StrTraitMFC_DLL@DV?$ChTraitsCRT@D@ATL@@@@@ATL@@_N@Z
	DD	2 DUP(00H)
	DD	2 DUP(00H)
	DD	00H
	DD	01H
xdata$x	ENDS
;	COMDAT xdata$x
xdata$x	SEGMENT
__unwindtable$?NormalNumberString@CDataConversion@@SA?AV?$CStringT@DV?$StrTraitMFC_DLL@DV?$ChTraitsCRT@D@ATL@@@@@ATL@@ABV23@@Z DD 0ffffffffH
	DD	FLAT:__unwindfunclet$?NormalNumberString@CDataConversion@@SA?AV?$CStringT@DV?$StrTraitMFC_DLL@DV?$ChTraitsCRT@D@ATL@@@@@ATL@@ABV23@@Z$1
__ehfuncinfo$?NormalNumberString@CDataConversion@@SA?AV?$CStringT@DV?$StrTraitMFC_DLL@DV?$ChTraitsCRT@D@ATL@@@@@ATL@@ABV23@@Z DD 019930522H
	DD	01H
	DD	FLAT:__unwindtable$?NormalNumberString@CDataConversion@@SA?AV?$CStringT@DV?$StrTraitMFC_DLL@DV?$ChTraitsCRT@D@ATL@@@@@ATL@@ABV23@@Z
	DD	2 DUP(00H)
	DD	2 DUP(00H)
	DD	00H
	DD	01H
xdata$x	ENDS
;	COMDAT xdata$x
xdata$x	SEGMENT
__unwindtable$?DoubleToString@CDataConversion@@SA?AV?$CStringT@DV?$StrTraitMFC_DLL@DV?$ChTraitsCRT@D@ATL@@@@@ATL@@ABNH@Z DD 0ffffffffH
	DD	FLAT:__unwindfunclet$?DoubleToString@CDataConversion@@SA?AV?$CStringT@DV?$StrTraitMFC_DLL@DV?$ChTraitsCRT@D@ATL@@@@@ATL@@ABNH@Z$1
	DD	00H
	DD	FLAT:__unwindfunclet$?DoubleToString@CDataConversion@@SA?AV?$CStringT@DV?$StrTraitMFC_DLL@DV?$ChTraitsCRT@D@ATL@@@@@ATL@@ABNH@Z$2
	DD	0ffffffffH
	DD	FLAT:__unwindfunclet$?DoubleToString@CDataConversion@@SA?AV?$CStringT@DV?$StrTraitMFC_DLL@DV?$ChTraitsCRT@D@ATL@@@@@ATL@@ABNH@Z$3
	DD	02H
	DD	FLAT:__unwindfunclet$?DoubleToString@CDataConversion@@SA?AV?$CStringT@DV?$StrTraitMFC_DLL@DV?$ChTraitsCRT@D@ATL@@@@@ATL@@ABNH@Z$4
__ehfuncinfo$?DoubleToString@CDataConversion@@SA?AV?$CStringT@DV?$StrTraitMFC_DLL@DV?$ChTraitsCRT@D@ATL@@@@@ATL@@ABNH@Z DD 019930522H
	DD	04H
	DD	FLAT:__unwindtable$?DoubleToString@CDataConversion@@SA?AV?$CStringT@DV?$StrTraitMFC_DLL@DV?$ChTraitsCRT@D@ATL@@@@@ATL@@ABNH@Z
	DD	2 DUP(00H)
	DD	2 DUP(00H)
	DD	00H
	DD	01H
xdata$x	ENDS
;	COMDAT xdata$x
xdata$x	SEGMENT
__unwindtable$?DoubleToString@CDataConversion@@SA?AV?$CStringT@DV?$StrTraitMFC_DLL@DV?$ChTraitsCRT@D@ATL@@@@@ATL@@ABN@Z DD 0ffffffffH
	DD	FLAT:__unwindfunclet$?DoubleToString@CDataConversion@@SA?AV?$CStringT@DV?$StrTraitMFC_DLL@DV?$ChTraitsCRT@D@ATL@@@@@ATL@@ABN@Z$0
__ehfuncinfo$?DoubleToString@CDataConversion@@SA?AV?$CStringT@DV?$StrTraitMFC_DLL@DV?$ChTraitsCRT@D@ATL@@@@@ATL@@ABN@Z DD 019930522H
	DD	01H
	DD	FLAT:__unwindtable$?DoubleToString@CDataConversion@@SA?AV?$CStringT@DV?$StrTraitMFC_DLL@DV?$ChTraitsCRT@D@ATL@@@@@ATL@@ABN@Z
	DD	2 DUP(00H)
	DD	2 DUP(00H)
	DD	00H
	DD	01H
xdata$x	ENDS
;	COMDAT xdata$x
xdata$x	SEGMENT
__ehfuncinfo$?IntToString@CDataConversion@@SA?AV?$CStringT@DV?$StrTraitMFC_DLL@DV?$ChTraitsCRT@D@ATL@@@@@ATL@@HH@Z DD 019930522H
	DD	05H
	DD	FLAT:__unwindtable$?IntToString@CDataConversion@@SA?AV?$CStringT@DV?$StrTraitMFC_DLL@DV?$ChTraitsCRT@D@ATL@@@@@ATL@@HH@Z
	DD	2 DUP(00H)
	DD	2 DUP(00H)
	DD	00H
	DD	01H
__unwindtable$?IntToString@CDataConversion@@SA?AV?$CStringT@DV?$StrTraitMFC_DLL@DV?$ChTraitsCRT@D@ATL@@@@@ATL@@HH@Z DD 0ffffffffH
	DD	FLAT:__unwindfunclet$?IntToString@CDataConversion@@SA?AV?$CStringT@DV?$StrTraitMFC_DLL@DV?$ChTraitsCRT@D@ATL@@@@@ATL@@HH@Z$0
	DD	00H
	DD	FLAT:__unwindfunclet$?IntToString@CDataConversion@@SA?AV?$CStringT@DV?$StrTraitMFC_DLL@DV?$ChTraitsCRT@D@ATL@@@@@ATL@@HH@Z$2
	DD	01H
	DD	FLAT:__unwindfunclet$?IntToString@CDataConversion@@SA?AV?$CStringT@DV?$StrTraitMFC_DLL@DV?$ChTraitsCRT@D@ATL@@@@@ATL@@HH@Z$4
	DD	00H
	DD	FLAT:__unwindfunclet$?IntToString@CDataConversion@@SA?AV?$CStringT@DV?$StrTraitMFC_DLL@DV?$ChTraitsCRT@D@ATL@@@@@ATL@@HH@Z$3
	DD	03H
	DD	FLAT:__unwindfunclet$?IntToString@CDataConversion@@SA?AV?$CStringT@DV?$StrTraitMFC_DLL@DV?$ChTraitsCRT@D@ATL@@@@@ATL@@HH@Z$5
xdata$x	ENDS
;	COMDAT xdata$x
xdata$x	SEGMENT
__unwindtable$?IntToString@CDataConversion@@SA?AV?$CStringT@DV?$StrTraitMFC_DLL@DV?$ChTraitsCRT@D@ATL@@@@@ATL@@H@Z DD 0ffffffffH
	DD	FLAT:__unwindfunclet$?IntToString@CDataConversion@@SA?AV?$CStringT@DV?$StrTraitMFC_DLL@DV?$ChTraitsCRT@D@ATL@@@@@ATL@@H@Z$0
__ehfuncinfo$?IntToString@CDataConversion@@SA?AV?$CStringT@DV?$StrTraitMFC_DLL@DV?$ChTraitsCRT@D@ATL@@@@@ATL@@H@Z DD 019930522H
	DD	01H
	DD	FLAT:__unwindtable$?IntToString@CDataConversion@@SA?AV?$CStringT@DV?$StrTraitMFC_DLL@DV?$ChTraitsCRT@D@ATL@@@@@ATL@@H@Z
	DD	2 DUP(00H)
	DD	2 DUP(00H)
	DD	00H
	DD	01H
xdata$x	ENDS
;	COMDAT xdata$x
xdata$x	SEGMENT
__unwindtable$?Bool2Str@CDataConversion@@SA?AV?$CStringT@DV?$StrTraitMFC_DLL@DV?$ChTraitsCRT@D@ATL@@@@@ATL@@H@Z DD 0ffffffffH
	DD	FLAT:__unwindfunclet$?Bool2Str@CDataConversion@@SA?AV?$CStringT@DV?$StrTraitMFC_DLL@DV?$ChTraitsCRT@D@ATL@@@@@ATL@@H@Z$1
__ehfuncinfo$?Bool2Str@CDataConversion@@SA?AV?$CStringT@DV?$StrTraitMFC_DLL@DV?$ChTraitsCRT@D@ATL@@@@@ATL@@H@Z DD 019930522H
	DD	01H
	DD	FLAT:__unwindtable$?Bool2Str@CDataConversion@@SA?AV?$CStringT@DV?$StrTraitMFC_DLL@DV?$ChTraitsCRT@D@ATL@@@@@ATL@@H@Z
	DD	2 DUP(00H)
	DD	2 DUP(00H)
	DD	00H
	DD	01H
xdata$x	ENDS
;	COMDAT xdata$x
xdata$x	SEGMENT
__unwindtable$?Str2RGB@CDataConversion@@SAKABV?$CStringT@DV?$StrTraitMFC_DLL@DV?$ChTraitsCRT@D@ATL@@@@@ATL@@@Z DD 0ffffffffH
	DD	FLAT:__unwindfunclet$?Str2RGB@CDataConversion@@SAKABV?$CStringT@DV?$StrTraitMFC_DLL@DV?$ChTraitsCRT@D@ATL@@@@@ATL@@@Z$0
__ehfuncinfo$?Str2RGB@CDataConversion@@SAKABV?$CStringT@DV?$StrTraitMFC_DLL@DV?$ChTraitsCRT@D@ATL@@@@@ATL@@@Z DD 019930522H
	DD	01H
	DD	FLAT:__unwindtable$?Str2RGB@CDataConversion@@SAKABV?$CStringT@DV?$StrTraitMFC_DLL@DV?$ChTraitsCRT@D@ATL@@@@@ATL@@@Z
	DD	2 DUP(00H)
	DD	2 DUP(00H)
	DD	00H
	DD	01H
xdata$x	ENDS
;	COMDAT xdata$x
xdata$x	SEGMENT
__unwindtable$?RGB2Str@CDataConversion@@SA?AV?$CStringT@DV?$StrTraitMFC_DLL@DV?$ChTraitsCRT@D@ATL@@@@@ATL@@K@Z DD 0ffffffffH
	DD	FLAT:__unwindfunclet$?RGB2Str@CDataConversion@@SA?AV?$CStringT@DV?$StrTraitMFC_DLL@DV?$ChTraitsCRT@D@ATL@@@@@ATL@@K@Z$0
__ehfuncinfo$?RGB2Str@CDataConversion@@SA?AV?$CStringT@DV?$StrTraitMFC_DLL@DV?$ChTraitsCRT@D@ATL@@@@@ATL@@K@Z DD 019930522H
	DD	01H
	DD	FLAT:__unwindtable$?RGB2Str@CDataConversion@@SA?AV?$CStringT@DV?$StrTraitMFC_DLL@DV?$ChTraitsCRT@D@ATL@@@@@ATL@@K@Z
	DD	2 DUP(00H)
	DD	2 DUP(00H)
	DD	00H
	DD	01H
xdata$x	ENDS
;	COMDAT xdata$x
xdata$x	SEGMENT
__catchsym$??1CGdiObject@@UAE@XZ$3 DD 00H
	DD	FLAT:??_R0PAVCException@@@8
	DD	0fffffde4H
	DD	FLAT:__catch$??1CGdiObject@@UAE@XZ$0
__tryblocktable$??1CGdiObject@@UAE@XZ DD 00H
	DD	00H
	DD	02H
	DD	01H
	DD	FLAT:__catchsym$??1CGdiObject@@UAE@XZ$3
__unwindtable$??1CGdiObject@@UAE@XZ DD 0ffffffffH
	DD	00H
	DD	0ffffffffH
	DD	00H
	DD	01H
	DD	FLAT:__unwindfunclet$??1CGdiObject@@UAE@XZ$2
__ehfuncinfo$??1CGdiObject@@UAE@XZ DD 019930522H
	DD	03H
	DD	FLAT:__unwindtable$??1CGdiObject@@UAE@XZ
	DD	01H
	DD	FLAT:__tryblocktable$??1CGdiObject@@UAE@XZ
	DD	2 DUP(00H)
	DD	00H
	DD	05H
xdata$x	ENDS
;	COMDAT xdata$x
xdata$x	SEGMENT
__unwindtable$??HATL@@YA?AV?$CStringT@DV?$StrTraitMFC_DLL@DV?$ChTraitsCRT@D@ATL@@@@@0@DABV10@@Z DD 0ffffffffH
	DD	FLAT:__unwindfunclet$??HATL@@YA?AV?$CStringT@DV?$StrTraitMFC_DLL@DV?$ChTraitsCRT@D@ATL@@@@@0@DABV10@@Z$0
__ehfuncinfo$??HATL@@YA?AV?$CStringT@DV?$StrTraitMFC_DLL@DV?$ChTraitsCRT@D@ATL@@@@@0@DABV10@@Z DD 019930522H
	DD	01H
	DD	FLAT:__unwindtable$??HATL@@YA?AV?$CStringT@DV?$StrTraitMFC_DLL@DV?$ChTraitsCRT@D@ATL@@@@@0@DABV10@@Z
	DD	2 DUP(00H)
	DD	2 DUP(00H)
	DD	00H
	DD	01H
xdata$x	ENDS
;	COMDAT xdata$x
xdata$x	SEGMENT
__unwindtable$??HATL@@YA?AV?$CStringT@DV?$StrTraitMFC_DLL@DV?$ChTraitsCRT@D@ATL@@@@@0@PBDABV10@@Z DD 0ffffffffH
	DD	FLAT:__unwindfunclet$??HATL@@YA?AV?$CStringT@DV?$StrTraitMFC_DLL@DV?$ChTraitsCRT@D@ATL@@@@@0@PBDABV10@@Z$0
__ehfuncinfo$??HATL@@YA?AV?$CStringT@DV?$StrTraitMFC_DLL@DV?$ChTraitsCRT@D@ATL@@@@@0@PBDABV10@@Z DD 019930522H
	DD	01H
	DD	FLAT:__unwindtable$??HATL@@YA?AV?$CStringT@DV?$StrTraitMFC_DLL@DV?$ChTraitsCRT@D@ATL@@@@@0@PBDABV10@@Z
	DD	2 DUP(00H)
	DD	2 DUP(00H)
	DD	00H
	DD	01H
xdata$x	ENDS
;	COMDAT xdata$x
xdata$x	SEGMENT
__unwindtable$??HATL@@YA?AV?$CStringT@DV?$StrTraitMFC_DLL@DV?$ChTraitsCRT@D@ATL@@@@@0@ABV10@0@Z DD 0ffffffffH
	DD	FLAT:__unwindfunclet$??HATL@@YA?AV?$CStringT@DV?$StrTraitMFC_DLL@DV?$ChTraitsCRT@D@ATL@@@@@0@ABV10@0@Z$0
__ehfuncinfo$??HATL@@YA?AV?$CStringT@DV?$StrTraitMFC_DLL@DV?$ChTraitsCRT@D@ATL@@@@@0@ABV10@0@Z DD 019930522H
	DD	01H
	DD	FLAT:__unwindtable$??HATL@@YA?AV?$CStringT@DV?$StrTraitMFC_DLL@DV?$ChTraitsCRT@D@ATL@@@@@0@ABV10@0@Z
	DD	2 DUP(00H)
	DD	2 DUP(00H)
	DD	00H
	DD	01H
xdata$x	ENDS
; Function compile flags: /Ogtp
; File D:\git\src\IBK\IBK_DRFN\ProjSrc\SrcDrfn\Chart\chart_common\DataList\Conversion.cpp
;	COMDAT ?IsCalUprightData@CDataConversion@@CA_NHHH@Z
_TEXT	SEGMENT
_nYear$ = 8						; size = 4
_nMonth$ = 12						; size = 4
_nDay$ = 16						; size = 4
?IsCalUprightData@CDataConversion@@CA_NHHH@Z PROC	; CDataConversion::IsCalUprightData, COMDAT

; 724  : {

  00000	55		 push	 ebp
  00001	8b ec		 mov	 ebp, esp

; 725  : 	if(nDay <= 28)

  00003	8b 4d 10	 mov	 ecx, DWORD PTR _nDay$[ebp]
  00006	8b 55 08	 mov	 edx, DWORD PTR _nYear$[ebp]
  00009	83 f9 1c	 cmp	 ecx, 28			; 0000001cH
  0000c	7e 47		 jle	 SHORT $LN15@IsCalUprig

; 726  : 		return false;
; 727  : 
; 728  : 	// -> 2: 28 .
; 729  : 	// -> 4, 6, 9, 11 : 30
; 730  : 	// ->   : 31
; 731  : 	if(nMonth > 12 || nDay > 31)

  0000e	8b 45 0c	 mov	 eax, DWORD PTR _nMonth$[ebp]
  00011	83 f8 0c	 cmp	 eax, 12			; 0000000cH
  00014	7f 3b		 jg	 SHORT $LN5@IsCalUprig
  00016	83 f9 1f	 cmp	 ecx, 31			; 0000001fH
  00019	7f 36		 jg	 SHORT $LN5@IsCalUprig

; 734  : 	}
; 735  : 	else if(nMonth <= 0)

  0001b	85 c0		 test	 eax, eax
  0001d	7e 36		 jle	 SHORT $LN15@IsCalUprig

; 736  : 	{
; 737  : 		return (nDay > 31);
; 738  : 	}
; 739  : 	else if(nMonth == 2)

  0001f	83 f8 02	 cmp	 eax, 2
  00022	75 11		 jne	 SHORT $LN8@IsCalUprig

; 740  : 	{
; 741  : 		if(nYear > 0 && ((nYear % 4) == 0))

  00024	85 d2		 test	 edx, edx
  00026	7e 29		 jle	 SHORT $LN5@IsCalUprig
  00028	f6 c2 03	 test	 dl, 3
  0002b	75 24		 jne	 SHORT $LN5@IsCalUprig

; 742  : 			return (nDay > 29);

  0002d	83 f9 1d	 cmp	 ecx, 29			; 0000001dH
  00030	0f 9f c0	 setg	 al

; 752  : 	}
; 753  : 
; 754  : 	return false;
; 755  : }

  00033	5d		 pop	 ebp
  00034	c3		 ret	 0
$LN8@IsCalUprig:

; 743  : 		return (nDay > 28);
; 744  : 	}
; 745  : 	else if(nMonth == 4 || nMonth == 6 || nMonth == 9 || nMonth == 11)

  00035	83 f8 04	 cmp	 eax, 4
  00038	74 0f		 je	 SHORT $LN13@IsCalUprig
  0003a	83 f8 06	 cmp	 eax, 6
  0003d	74 0a		 je	 SHORT $LN13@IsCalUprig
  0003f	83 f8 09	 cmp	 eax, 9
  00042	74 05		 je	 SHORT $LN13@IsCalUprig
  00044	83 f8 0b	 cmp	 eax, 11			; 0000000bH
  00047	75 0c		 jne	 SHORT $LN15@IsCalUprig
$LN13@IsCalUprig:

; 746  : 	{
; 747  : 		return (nDay > 30);

  00049	83 f9 1e	 cmp	 ecx, 30			; 0000001eH
  0004c	0f 9f c0	 setg	 al

; 752  : 	}
; 753  : 
; 754  : 	return false;
; 755  : }

  0004f	5d		 pop	 ebp
  00050	c3		 ret	 0
$LN5@IsCalUprig:

; 732  : 	{
; 733  : 		return true;

  00051	b0 01		 mov	 al, 1

; 752  : 	}
; 753  : 
; 754  : 	return false;
; 755  : }

  00053	5d		 pop	 ebp
  00054	c3		 ret	 0
$LN15@IsCalUprig:

; 748  : 	}
; 749  : 	else
; 750  : 	{
; 751  : 		return (nDay > 31);

  00055	32 c0		 xor	 al, al

; 752  : 	}
; 753  : 
; 754  : 	return false;
; 755  : }

  00057	5d		 pop	 ebp
  00058	c3		 ret	 0
?IsCalUprightData@CDataConversion@@CA_NHHH@Z ENDP	; CDataConversion::IsCalUprightData
_TEXT	ENDS
; Function compile flags: /Ogtp
; File D:\git\src\IBK\IBK_DRFN\ProjSrc\SrcDrfn\Chart\chart_common\DataList\Conversion.cpp
;	COMDAT ?GetMonthFullDay@CDataConversion@@CAHHHH@Z
_TEXT	SEGMENT
_nYear$ = 8						; size = 4
_nMonth$ = 12						; size = 4
_nDay$ = 16						; size = 4
?GetMonthFullDay@CDataConversion@@CAHHHH@Z PROC		; CDataConversion::GetMonthFullDay, COMDAT

; 705  : {

  00000	55		 push	 ebp
  00001	8b ec		 mov	 ebp, esp

; 706  : 	// 2 : 28 or 29
; 707  : 	if(nMonth == 2)

  00003	8b 45 0c	 mov	 eax, DWORD PTR _nMonth$[ebp]
  00006	8b 4d 08	 mov	 ecx, DWORD PTR _nYear$[ebp]
  00009	83 f8 02	 cmp	 eax, 2
  0000c	75 17		 jne	 SHORT $LN2@GetMonthFu

; 708  : 	{
; 709  : 		if(nYear > 0 && ((nYear % 4) == 0))

  0000e	85 c9		 test	 ecx, ecx
  00010	7e 0c		 jle	 SHORT $LN4@GetMonthFu
  00012	f6 c1 03	 test	 cl, 3
  00015	75 07		 jne	 SHORT $LN4@GetMonthFu

; 710  : 			return 29;

  00017	b8 1d 00 00 00	 mov	 eax, 29			; 0000001dH

; 720  : }

  0001c	5d		 pop	 ebp
  0001d	c3		 ret	 0
$LN4@GetMonthFu:

; 711  : 		return 28;

  0001e	b8 1c 00 00 00	 mov	 eax, 28			; 0000001cH

; 720  : }

  00023	5d		 pop	 ebp
  00024	c3		 ret	 0
$LN2@GetMonthFu:

; 712  : 	}
; 713  : 	// 4, 6, 9, 11 : 30
; 714  : 	else if(nMonth == 4 || nMonth == 6 || nMonth == 9 || nMonth == 11)

  00025	83 f8 04	 cmp	 eax, 4
  00028	74 14		 je	 SHORT $LN6@GetMonthFu
  0002a	83 f8 06	 cmp	 eax, 6
  0002d	74 0f		 je	 SHORT $LN6@GetMonthFu
  0002f	83 f8 09	 cmp	 eax, 9
  00032	74 0a		 je	 SHORT $LN6@GetMonthFu
  00034	83 f8 0b	 cmp	 eax, 11			; 0000000bH

; 717  : 	}
; 718  : 
; 719  : 	return 31;

  00037	b8 1f 00 00 00	 mov	 eax, 31			; 0000001fH
  0003c	75 05		 jne	 SHORT $LN1@GetMonthFu
$LN6@GetMonthFu:

; 715  : 	{
; 716  : 		return 30;

  0003e	b8 1e 00 00 00	 mov	 eax, 30			; 0000001eH
$LN1@GetMonthFu:

; 720  : }

  00043	5d		 pop	 ebp
  00044	c3		 ret	 0
?GetMonthFullDay@CDataConversion@@CAHHHH@Z ENDP		; CDataConversion::GetMonthFullDay
_TEXT	ENDS
; Function compile flags: /Ogtp
; File D:\git\src\IBK\IBK_DRFN\ProjSrc\SrcDrfn\Chart\chart_common\DataList\Conversion.cpp
;	COMDAT ?ChagneUprightData_Day@CDataConversion@@CAXAAH00@Z
_TEXT	SEGMENT
_nYear$ = 8						; size = 4
_nMonth$ = 12						; size = 4
_nDay$ = 16						; size = 4
?ChagneUprightData_Day@CDataConversion@@CAXAAH00@Z PROC	; CDataConversion::ChagneUprightData_Day, COMDAT

; 682  : {

  00000	55		 push	 ebp
  00001	8b ec		 mov	 ebp, esp
  00003	57		 push	 edi

; 683  : 	// 12      .
; 684  : 	while(nDay > 28)

  00004	8b 7d 10	 mov	 edi, DWORD PTR _nDay$[ebp]
  00007	8b 0f		 mov	 ecx, DWORD PTR [edi]
  00009	83 f9 1c	 cmp	 ecx, 28			; 0000001cH
  0000c	7e 70		 jle	 SHORT $LN22@ChagneUpri

; 699  : 			nYear++;

  0000e	8b 55 0c	 mov	 edx, DWORD PTR _nMonth$[ebp]
  00011	56		 push	 esi
  00012	8b 75 08	 mov	 esi, DWORD PTR _nYear$[ebp]
$LL2@ChagneUpri:

; 685  : 	{
; 686  : 		int nMonthFullDay = GetMonthFullDay(nYear, nMonth, nDay);

  00015	8b 02		 mov	 eax, DWORD PTR [edx]

; 707  : 	if(nMonth == 2)

  00017	83 f8 02	 cmp	 eax, 2
  0001a	75 24		 jne	 SHORT $LN9@ChagneUpri

; 685  : 	{
; 686  : 		int nMonthFullDay = GetMonthFullDay(nYear, nMonth, nDay);

  0001c	8b 06		 mov	 eax, DWORD PTR [esi]

; 709  : 		if(nYear > 0 && ((nYear % 4) == 0))

  0001e	85 c0		 test	 eax, eax
  00020	7e 17		 jle	 SHORT $LN11@ChagneUpri
  00022	25 03 00 00 80	 and	 eax, -2147483645	; 80000003H
  00027	79 07		 jns	 SHORT $LN24@ChagneUpri
  00029	48		 dec	 eax
  0002a	83 c8 fc	 or	 eax, -4			; fffffffcH
  0002d	83 c0 01	 add	 eax, 1
$LN24@ChagneUpri:
  00030	75 07		 jne	 SHORT $LN11@ChagneUpri

; 710  : 			return 29;

  00032	b8 1d 00 00 00	 mov	 eax, 29			; 0000001dH
  00037	eb 25		 jmp	 SHORT $LN8@ChagneUpri
$LN11@ChagneUpri:

; 711  : 		return 28;

  00039	b8 1c 00 00 00	 mov	 eax, 28			; 0000001cH
  0003e	eb 1e		 jmp	 SHORT $LN8@ChagneUpri
$LN9@ChagneUpri:

; 712  : 	}
; 713  : 	// 4, 6, 9, 11 : 30
; 714  : 	else if(nMonth == 4 || nMonth == 6 || nMonth == 9 || nMonth == 11)

  00040	83 f8 04	 cmp	 eax, 4
  00043	74 14		 je	 SHORT $LN13@ChagneUpri
  00045	83 f8 06	 cmp	 eax, 6
  00048	74 0f		 je	 SHORT $LN13@ChagneUpri
  0004a	83 f8 09	 cmp	 eax, 9
  0004d	74 0a		 je	 SHORT $LN13@ChagneUpri
  0004f	83 f8 0b	 cmp	 eax, 11			; 0000000bH

; 717  : 	}
; 718  : 
; 719  : 	return 31;

  00052	b8 1f 00 00 00	 mov	 eax, 31			; 0000001fH
  00057	75 05		 jne	 SHORT $LN8@ChagneUpri
$LN13@ChagneUpri:

; 715  : 	{
; 716  : 		return 30;

  00059	b8 1e 00 00 00	 mov	 eax, 30			; 0000001eH
$LN8@ChagneUpri:

; 687  : 		if(nMonthFullDay <= 0)
; 688  : 			return;
; 689  : 
; 690  : 		if(nDay <= nMonthFullDay)

  0005e	3b c8		 cmp	 ecx, eax
  00060	76 1b		 jbe	 SHORT $LN23@ChagneUpri

; 691  : 			return;
; 692  : 
; 693  : 		nDay -= nMonthFullDay;

  00062	2b c8		 sub	 ecx, eax
  00064	89 0f		 mov	 DWORD PTR [edi], ecx

; 694  : 		nMonth++;

  00066	ff 02		 inc	 DWORD PTR [edx]
  00068	8b 02		 mov	 eax, DWORD PTR [edx]

; 695  : 
; 696  : 		if(nMonth > 12)

  0006a	83 f8 0c	 cmp	 eax, 12			; 0000000cH
  0006d	7e 07		 jle	 SHORT $LN21@ChagneUpri

; 697  : 		{
; 698  : 			nMonth -= 12;

  0006f	83 c0 f4	 add	 eax, -12		; fffffff4H
  00072	89 02		 mov	 DWORD PTR [edx], eax

; 699  : 			nYear++;

  00074	ff 06		 inc	 DWORD PTR [esi]
$LN21@ChagneUpri:

; 683  : 	// 12      .
; 684  : 	while(nDay > 28)

  00076	8b 0f		 mov	 ecx, DWORD PTR [edi]
  00078	83 f9 1c	 cmp	 ecx, 28			; 0000001cH
  0007b	7f 98		 jg	 SHORT $LL2@ChagneUpri
$LN23@ChagneUpri:
  0007d	5e		 pop	 esi
$LN22@ChagneUpri:
  0007e	5f		 pop	 edi

; 700  : 		}
; 701  : 	}
; 702  : }

  0007f	5d		 pop	 ebp
  00080	c3		 ret	 0
?ChagneUprightData_Day@CDataConversion@@CAXAAH00@Z ENDP	; CDataConversion::ChagneUprightData_Day
_TEXT	ENDS
; Function compile flags: /Ogtp
; File D:\git\src\IBK\IBK_DRFN\ProjSrc\SrcDrfn\Chart\chart_common\DataList\Conversion.cpp
;	COMDAT ?ChagneUprightData_YearAndMonth@CDataConversion@@CAXAAH0@Z
_TEXT	SEGMENT
_systemTime$1 = -20					; size = 16
__$ArrayPad$ = -4					; size = 4
_nYear$ = 8						; size = 4
_nMonth$ = 12						; size = 4
?ChagneUprightData_YearAndMonth@CDataConversion@@CAXAAH0@Z PROC ; CDataConversion::ChagneUprightData_YearAndMonth, COMDAT

; 613  : {

  00000	55		 push	 ebp
  00001	8b ec		 mov	 ebp, esp
  00003	83 ec 14	 sub	 esp, 20			; 00000014H
  00006	a1 00 00 00 00	 mov	 eax, DWORD PTR ___security_cookie
  0000b	33 c5		 xor	 eax, ebp
  0000d	89 45 fc	 mov	 DWORD PTR __$ArrayPad$[ebp], eax
  00010	56		 push	 esi
  00011	8b 75 0c	 mov	 esi, DWORD PTR _nMonth$[ebp]
  00014	57		 push	 edi
  00015	8b 7d 08	 mov	 edi, DWORD PTR _nYear$[ebp]

; 614  : 	// ,     PC , .
; 615  : 	if(nYear <= 0 || nMonth <= 0)

  00018	83 3f 00	 cmp	 DWORD PTR [edi], 0
  0001b	7e 06		 jle	 SHORT $LN14@ChagneUpri
  0001d	8b 06		 mov	 eax, DWORD PTR [esi]
  0001f	85 c0		 test	 eax, eax
  00021	7f 23		 jg	 SHORT $LN9@ChagneUpri
$LN14@ChagneUpri:

; 616  : 	{
; 617  : 		SYSTEMTIME systemTime;
; 618  : 		GetSystemTime(&systemTime);

  00023	8d 45 ec	 lea	 eax, DWORD PTR _systemTime$1[ebp]
  00026	50		 push	 eax
  00027	ff 15 00 00 00
	00		 call	 DWORD PTR __imp__GetSystemTime@4

; 619  : 
; 620  : 		if(nMonth <= 0)

  0002d	8b 06		 mov	 eax, DWORD PTR [esi]
  0002f	85 c0		 test	 eax, eax
  00031	7f 06		 jg	 SHORT $LN6@ChagneUpri

; 621  : 			nMonth = systemTime.wMonth;

  00033	0f b7 45 ee	 movzx	 eax, WORD PTR _systemTime$1[ebp+2]
  00037	89 06		 mov	 DWORD PTR [esi], eax
$LN6@ChagneUpri:

; 622  : 
; 623  : 		if(nYear <= 0)

  00039	83 3f 00	 cmp	 DWORD PTR [edi], 0
  0003c	7f 08		 jg	 SHORT $LN9@ChagneUpri

; 624  : 			nYear = systemTime.wYear;

  0003e	0f b7 45 ec	 movzx	 eax, WORD PTR _systemTime$1[ebp]
  00042	89 07		 mov	 DWORD PTR [edi], eax
  00044	8b 06		 mov	 eax, DWORD PTR [esi]
$LN9@ChagneUpri:

; 625  : 	}
; 626  : 
; 627  : 	while(nMonth > 12)

  00046	83 f8 0c	 cmp	 eax, 12			; 0000000cH
  00049	7e 0f		 jle	 SHORT $LN3@ChagneUpri
  0004b	0f 1f 44 00 00	 npad	 5
$LL2@ChagneUpri:

; 628  : 	{
; 629  : 		nMonth -= 12;

  00050	83 06 f4	 add	 DWORD PTR [esi], -12	; fffffff4H

; 630  : 		nYear++;

  00053	ff 07		 inc	 DWORD PTR [edi]
  00055	83 3e 0c	 cmp	 DWORD PTR [esi], 12	; 0000000cH
  00058	7f f6		 jg	 SHORT $LL2@ChagneUpri
$LN3@ChagneUpri:

; 631  : 	}
; 632  : }

  0005a	8b 4d fc	 mov	 ecx, DWORD PTR __$ArrayPad$[ebp]
  0005d	5f		 pop	 edi
  0005e	33 cd		 xor	 ecx, ebp
  00060	5e		 pop	 esi
  00061	e8 00 00 00 00	 call	 @__security_check_cookie@4
  00066	8b e5		 mov	 esp, ebp
  00068	5d		 pop	 ebp
  00069	c3		 ret	 0
?ChagneUprightData_YearAndMonth@CDataConversion@@CAXAAH0@Z ENDP ; CDataConversion::ChagneUprightData_YearAndMonth
_TEXT	ENDS
; Function compile flags: /Ogtp
; File D:\git\src\IBK\IBK_DRFN\ProjSrc\SrcDrfn\Chart\chart_common\DataList\Conversion.cpp
;	COMDAT ?GetRealDailyInTimeFormat@CDataConversion@@CA_NHAAH00@Z
_TEXT	SEGMENT
_nOrgData$ = 8						; size = 4
_nYear$ = 12						; size = 4
_nMonth$ = 16						; size = 4
_nDay$ = 20						; size = 4
?GetRealDailyInTimeFormat@CDataConversion@@CA_NHAAH00@Z PROC ; CDataConversion::GetRealDailyInTimeFormat, COMDAT

; 591  : {

  00000	55		 push	 ebp
  00001	8b ec		 mov	 ebp, esp
  00003	8b 4d 08	 mov	 ecx, DWORD PTR _nOrgData$[ebp]

; 592  : 	if(nOrgData <= 0)

  00006	85 c9		 test	 ecx, ecx
  00008	7f 04		 jg	 SHORT $LN2@GetRealDai

; 593  : 		return false;

  0000a	32 c0		 xor	 al, al

; 609  : }

  0000c	5d		 pop	 ebp
  0000d	c3		 ret	 0
$LN2@GetRealDai:
  0000e	56		 push	 esi

; 594  : 
; 595  : 	nDay = nMonth = nYear = 0;

  0000f	8b 75 0c	 mov	 esi, DWORD PTR _nYear$[ebp]
  00012	c7 06 00 00 00
	00		 mov	 DWORD PTR [esi], 0

; 596  : 	if(nOrgData >= 10000)

  00018	81 f9 10 27 00
	00		 cmp	 ecx, 10000		; 00002710H
  0001e	7c 31		 jl	 SHORT $LN3@GetRealDai

; 597  : 	{
; 598  : 		nYear = nOrgData / 10000;

  00020	b8 59 17 b7 d1	 mov	 eax, -776530087		; d1b71759H
  00025	f7 e1		 mul	 ecx
  00027	c1 ea 0d	 shr	 edx, 13			; 0000000dH

; 599  : 		nMonth = (nOrgData % 10000) / 100;

  0002a	69 c2 10 27 00
	00		 imul	 eax, edx, 10000
  00030	89 16		 mov	 DWORD PTR [esi], edx

; 605  : 		nDay = nOrgData % 100;
; 606  : 	}
; 607  : 
; 608  : 	return true;

  00032	5e		 pop	 esi
  00033	2b c8		 sub	 ecx, eax
  00035	8b c1		 mov	 eax, ecx
  00037	b9 64 00 00 00	 mov	 ecx, 100		; 00000064H
  0003c	99		 cdq
  0003d	f7 f9		 idiv	 ecx
  0003f	8b ca		 mov	 ecx, edx
  00041	8b d0		 mov	 edx, eax
  00043	8b 45 10	 mov	 eax, DWORD PTR _nMonth$[ebp]
  00046	89 10		 mov	 DWORD PTR [eax], edx
  00048	8b 45 14	 mov	 eax, DWORD PTR _nDay$[ebp]
  0004b	89 08		 mov	 DWORD PTR [eax], ecx
  0004d	b0 01		 mov	 al, 1

; 609  : }

  0004f	5d		 pop	 ebp
  00050	c3		 ret	 0
$LN3@GetRealDai:

; 600  : 		nDay = (nOrgData % 10000) % 100;
; 601  : 	}
; 602  : 	else
; 603  : 	{
; 604  : 		nMonth = nOrgData / 100;

  00051	b8 1f 85 eb 51	 mov	 eax, 1374389535		; 51eb851fH
  00056	f7 e1		 mul	 ecx

; 605  : 		nDay = nOrgData % 100;
; 606  : 	}
; 607  : 
; 608  : 	return true;

  00058	5e		 pop	 esi
  00059	c1 ea 05	 shr	 edx, 5
  0005c	6b c2 64	 imul	 eax, edx, 100
  0005f	2b c8		 sub	 ecx, eax
  00061	8b 45 10	 mov	 eax, DWORD PTR _nMonth$[ebp]
  00064	89 10		 mov	 DWORD PTR [eax], edx
  00066	8b 45 14	 mov	 eax, DWORD PTR _nDay$[ebp]
  00069	89 08		 mov	 DWORD PTR [eax], ecx
  0006b	b0 01		 mov	 al, 1

; 609  : }

  0006d	5d		 pop	 ebp
  0006e	c3		 ret	 0
?GetRealDailyInTimeFormat@CDataConversion@@CA_NHAAH00@Z ENDP ; CDataConversion::GetRealDailyInTimeFormat
_TEXT	ENDS
; Function compile flags: /Ogtp
; File D:\git\src\IBK\IBK_DRFN\ProjSrc\SrcDrfn\Chart\chart_common\DataList\Conversion.cpp
;	COMDAT ?GetRealDailyInTimeFormat@CDataConversion@@CAHHABV?$CStringT@DV?$StrTraitMFC_DLL@DV?$ChTraitsCRT@D@ATL@@@@@ATL@@@Z
_TEXT	SEGMENT
_strFormat$GSCopy$1$ = -28				; size = 4
tv349 = -24						; size = 4
_systemTime$1 = -20					; size = 16
__$ArrayPad$ = -4					; size = 4
_nDD$ = 8						; size = 4
_strFormat$ = 12					; size = 4
?GetRealDailyInTimeFormat@CDataConversion@@CAHHABV?$CStringT@DV?$StrTraitMFC_DLL@DV?$ChTraitsCRT@D@ATL@@@@@ATL@@@Z PROC ; CDataConversion::GetRealDailyInTimeFormat, COMDAT

; 566  : {

  00000	55		 push	 ebp
  00001	8b ec		 mov	 ebp, esp
  00003	83 ec 1c	 sub	 esp, 28			; 0000001cH
  00006	a1 00 00 00 00	 mov	 eax, DWORD PTR ___security_cookie
  0000b	33 c5		 xor	 eax, ebp
  0000d	89 45 fc	 mov	 DWORD PTR __$ArrayPad$[ebp], eax
  00010	8b 4d 08	 mov	 ecx, DWORD PTR _nDD$[ebp]
  00013	8b 45 0c	 mov	 eax, DWORD PTR _strFormat$[ebp]
  00016	89 45 e4	 mov	 DWORD PTR _strFormat$GSCopy$1$[ebp], eax
  00019	53		 push	 ebx
  0001a	56		 push	 esi
  0001b	57		 push	 edi

; 592  : 	if(nOrgData <= 0)

  0001c	85 c9		 test	 ecx, ecx
  0001e	0f 8e 58 01 00
	00		 jle	 $LN5@GetRealDai

; 593  : 		return false;
; 594  : 
; 595  : 	nDay = nMonth = nYear = 0;

  00024	33 ff		 xor	 edi, edi

; 596  : 	if(nOrgData >= 10000)

  00026	81 f9 10 27 00
	00		 cmp	 ecx, 10000		; 00002710H
  0002c	7c 2c		 jl	 SHORT $LN9@GetRealDai

; 597  : 	{
; 598  : 		nYear = nOrgData / 10000;

  0002e	b8 59 17 b7 d1	 mov	 eax, -776530087		; d1b71759H
  00033	f7 e1		 mul	 ecx
  00035	8b fa		 mov	 edi, edx
  00037	c1 ef 0d	 shr	 edi, 13			; 0000000dH

; 599  : 		nMonth = (nOrgData % 10000) / 100;

  0003a	69 c7 10 27 00
	00		 imul	 eax, edi, 10000
  00040	2b c8		 sub	 ecx, eax
  00042	8b c1		 mov	 eax, ecx
  00044	b9 64 00 00 00	 mov	 ecx, 100		; 00000064H
  00049	99		 cdq
  0004a	f7 f9		 idiv	 ecx
  0004c	8b da		 mov	 ebx, edx
  0004e	8b f0		 mov	 esi, eax

; 615  : 	if(nYear <= 0 || nMonth <= 0)

  00050	85 ff		 test	 edi, edi
  00052	7e 19		 jle	 SHORT $LN16@GetRealDai
  00054	85 f6		 test	 esi, esi
  00056	7f 2f		 jg	 SHORT $LN34@GetRealDai
  00058	eb 13		 jmp	 SHORT $LN16@GetRealDai
$LN9@GetRealDai:

; 604  : 		nMonth = nOrgData / 100;

  0005a	b8 1f 85 eb 51	 mov	 eax, 1374389535		; 51eb851fH

; 605  : 		nDay = nOrgData % 100;

  0005f	8b d9		 mov	 ebx, ecx
  00061	f7 e1		 mul	 ecx
  00063	8b f2		 mov	 esi, edx
  00065	c1 ee 05	 shr	 esi, 5
  00068	6b c6 64	 imul	 eax, esi, 100
  0006b	2b d8		 sub	 ebx, eax
$LN16@GetRealDai:

; 618  : 		GetSystemTime(&systemTime);

  0006d	8d 45 ec	 lea	 eax, DWORD PTR _systemTime$1[ebp]
  00070	50		 push	 eax
  00071	ff 15 00 00 00
	00		 call	 DWORD PTR __imp__GetSystemTime@4

; 619  : 
; 620  : 		if(nMonth <= 0)

  00077	85 f6		 test	 esi, esi
  00079	7f 04		 jg	 SHORT $LN17@GetRealDai

; 621  : 			nMonth = systemTime.wMonth;

  0007b	0f b7 75 ee	 movzx	 esi, WORD PTR _systemTime$1[ebp+2]
$LN17@GetRealDai:

; 622  : 
; 623  : 		if(nYear <= 0)

  0007f	85 ff		 test	 edi, edi
  00081	7f 04		 jg	 SHORT $LN34@GetRealDai

; 624  : 			nYear = systemTime.wYear;

  00083	0f b7 7d ec	 movzx	 edi, WORD PTR _systemTime$1[ebp]
$LN34@GetRealDai:

; 625  : 	}
; 626  : 
; 627  : 	while(nMonth > 12)

  00087	83 fe 0c	 cmp	 esi, 12			; 0000000cH
  0008a	7e 1e		 jle	 SHORT $LN13@GetRealDai
  0008c	8d 4e f3	 lea	 ecx, DWORD PTR [esi-13]
  0008f	b8 ab aa aa aa	 mov	 eax, -1431655765	; aaaaaaabH
  00094	f7 e1		 mul	 ecx
  00096	c1 ea 03	 shr	 edx, 3
  00099	42		 inc	 edx
  0009a	03 fa		 add	 edi, edx
  0009c	8d 04 95 00 00
	00 00		 lea	 eax, DWORD PTR [edx*4]
  000a3	2b c2		 sub	 eax, edx
  000a5	f7 d8		 neg	 eax
  000a7	8d 34 86	 lea	 esi, DWORD PTR [esi+eax*4]
$LN13@GetRealDai:

; 684  : 	while(nDay > 28)

  000aa	83 fb 1c	 cmp	 ebx, 28			; 0000001cH
  000ad	7e 78		 jle	 SHORT $LN44@GetRealDai
  000af	90		 npad	 1
$LL21@GetRealDai:

; 707  : 	if(nMonth == 2)

  000b0	89 75 e8	 mov	 DWORD PTR tv349[ebp], esi
  000b3	8b d7		 mov	 edx, edi
  000b5	83 fe 02	 cmp	 esi, 2
  000b8	75 23		 jne	 SHORT $LN28@GetRealDai

; 708  : 	{
; 709  : 		if(nYear > 0 && ((nYear % 4) == 0))

  000ba	85 ff		 test	 edi, edi
  000bc	7e 18		 jle	 SHORT $LN30@GetRealDai
  000be	81 e7 03 00 00
	80		 and	 edi, -2147483645	; 80000003H
  000c4	79 07		 jns	 SHORT $LN46@GetRealDai
  000c6	4f		 dec	 edi
  000c7	83 cf fc	 or	 edi, -4			; fffffffcH
  000ca	83 c7 01	 add	 edi, 1
$LN46@GetRealDai:
  000cd	75 07		 jne	 SHORT $LN30@GetRealDai

; 710  : 			return 29;

  000cf	b8 1d 00 00 00	 mov	 eax, 29			; 0000001dH
  000d4	eb 25		 jmp	 SHORT $LN27@GetRealDai
$LN30@GetRealDai:

; 711  : 		return 28;

  000d6	b8 1c 00 00 00	 mov	 eax, 28			; 0000001cH
  000db	eb 1e		 jmp	 SHORT $LN27@GetRealDai
$LN28@GetRealDai:

; 712  : 	}
; 713  : 	// 4, 6, 9, 11 : 30
; 714  : 	else if(nMonth == 4 || nMonth == 6 || nMonth == 9 || nMonth == 11)

  000dd	83 fe 04	 cmp	 esi, 4
  000e0	74 14		 je	 SHORT $LN32@GetRealDai
  000e2	83 fe 06	 cmp	 esi, 6
  000e5	74 0f		 je	 SHORT $LN32@GetRealDai
  000e7	83 fe 09	 cmp	 esi, 9
  000ea	74 0a		 je	 SHORT $LN32@GetRealDai

; 717  : 	}
; 718  : 
; 719  : 	return 31;

  000ec	b8 1f 00 00 00	 mov	 eax, 31			; 0000001fH
  000f1	83 fe 0b	 cmp	 esi, 11			; 0000000bH
  000f4	75 05		 jne	 SHORT $LN27@GetRealDai
$LN32@GetRealDai:

; 715  : 	{
; 716  : 		return 30;

  000f6	b8 1e 00 00 00	 mov	 eax, 30			; 0000001eH
$LN27@GetRealDai:

; 690  : 		if(nDay <= nMonthFullDay)

  000fb	3b d8		 cmp	 ebx, eax
  000fd	76 28		 jbe	 SHORT $LN44@GetRealDai

; 691  : 			return;
; 692  : 
; 693  : 		nDay -= nMonthFullDay;
; 694  : 		nMonth++;

  000ff	46		 inc	 esi
  00100	8d 7a 01	 lea	 edi, DWORD PTR [edx+1]
  00103	2b d8		 sub	 ebx, eax
  00105	8b ce		 mov	 ecx, esi
  00107	83 fe 0c	 cmp	 esi, 12			; 0000000cH
  0010a	b8 f5 ff ff ff	 mov	 eax, -11		; fffffff5H
  0010f	be 01 00 00 00	 mov	 esi, 1
  00114	0f 4e c6	 cmovle	 eax, esi
  00117	8b f0		 mov	 esi, eax
  00119	03 75 e8	 add	 esi, DWORD PTR tv349[ebp]
  0011c	83 f9 0c	 cmp	 ecx, 12			; 0000000cH
  0011f	0f 4e fa	 cmovle	 edi, edx
  00122	83 fb 1c	 cmp	 ebx, 28			; 0000001cH
  00125	7f 89		 jg	 SHORT $LL21@GetRealDai
$LN44@GetRealDai:

; 567  : 	int nYear = 0, nMonth = 0, nDay = 0;
; 568  : 	if(!GetRealDailyInTimeFormat(nDD, nYear, nMonth, nDay))
; 569  : 		return nDD;
; 570  : 
; 571  : 	// ,   .
; 572  : 	ChagneUprightData_YearAndMonth(nYear, nMonth);
; 573  : 	//   .
; 574  : 	ChagneUprightData_Day(nYear, nMonth, nDay);
; 575  : 
; 576  : 	if(strFormat.Find("MMDD") >= 0)

  00127	8b 7d e4	 mov	 edi, DWORD PTR _strFormat$GSCopy$1$[ebp]
  0012a	8b cf		 mov	 ecx, edi
  0012c	6a 00		 push	 0
  0012e	68 00 00 00 00	 push	 OFFSET ??_C@_04BDEGLLOH@MMDD@
  00133	ff 15 00 00 00
	00		 call	 DWORD PTR __imp_?Find@?$CStringT@DV?$StrTraitMFC_DLL@DV?$ChTraitsCRT@D@ATL@@@@@ATL@@QBEHPBDH@Z
  00139	85 c0		 test	 eax, eax
  0013b	78 16		 js	 SHORT $LN3@GetRealDai

; 577  : 	{
; 578  : 		return (nMonth * 100 + nDay);

  0013d	6b c6 64	 imul	 eax, esi, 100
  00140	5f		 pop	 edi

; 586  : }

  00141	5e		 pop	 esi
  00142	03 c3		 add	 eax, ebx
  00144	5b		 pop	 ebx
  00145	8b 4d fc	 mov	 ecx, DWORD PTR __$ArrayPad$[ebp]
  00148	33 cd		 xor	 ecx, ebp
  0014a	e8 00 00 00 00	 call	 @__security_check_cookie@4
  0014f	8b e5		 mov	 esp, ebp
  00151	5d		 pop	 ebp
  00152	c3		 ret	 0
$LN3@GetRealDai:

; 579  : 	}
; 580  : 	else if(strFormat.Find("DD") >= 0)

  00153	6a 00		 push	 0
  00155	68 00 00 00 00	 push	 OFFSET ??_C@_02ODDIIJPA@DD@
  0015a	8b cf		 mov	 ecx, edi
  0015c	ff 15 00 00 00
	00		 call	 DWORD PTR __imp_?Find@?$CStringT@DV?$StrTraitMFC_DLL@DV?$ChTraitsCRT@D@ATL@@@@@ATL@@QBEHPBDH@Z
  00162	85 c0		 test	 eax, eax
  00164	78 13		 js	 SHORT $LN45@GetRealDai

; 586  : }

  00166	5f		 pop	 edi
  00167	5e		 pop	 esi
  00168	8b c3		 mov	 eax, ebx
  0016a	5b		 pop	 ebx
  0016b	8b 4d fc	 mov	 ecx, DWORD PTR __$ArrayPad$[ebp]
  0016e	33 cd		 xor	 ecx, ebp
  00170	e8 00 00 00 00	 call	 @__security_check_cookie@4
  00175	8b e5		 mov	 esp, ebp
  00177	5d		 pop	 ebp
  00178	c3		 ret	 0
$LN45@GetRealDai:

; 579  : 	}
; 580  : 	else if(strFormat.Find("DD") >= 0)

  00179	8b 4d 08	 mov	 ecx, DWORD PTR _nDD$[ebp]
$LN5@GetRealDai:

; 581  : 	{
; 582  : 		return nDay;
; 583  : 	}
; 584  : 
; 585  : 	return nDD;

  0017c	8b c1		 mov	 eax, ecx

; 586  : }

  0017e	8b 4d fc	 mov	 ecx, DWORD PTR __$ArrayPad$[ebp]
  00181	5f		 pop	 edi
  00182	5e		 pop	 esi
  00183	33 cd		 xor	 ecx, ebp
  00185	5b		 pop	 ebx
  00186	e8 00 00 00 00	 call	 @__security_check_cookie@4
  0018b	8b e5		 mov	 esp, ebp
  0018d	5d		 pop	 ebp
  0018e	c3		 ret	 0
?GetRealDailyInTimeFormat@CDataConversion@@CAHHABV?$CStringT@DV?$StrTraitMFC_DLL@DV?$ChTraitsCRT@D@ATL@@@@@ATL@@@Z ENDP ; CDataConversion::GetRealDailyInTimeFormat
_TEXT	ENDS
; Function compile flags: /Ogtp
; File D:\git\src\IBK\IBK_DRFN\ProjSrc\SrcDrfn\Chart\chart_common\DataList\Conversion.cpp
;	COMDAT ?OnPickoutMonthly@CDataConversion@@CA_NHABV?$CStringT@DV?$StrTraitMFC_DLL@DV?$ChTraitsCRT@D@ATL@@@@@ATL@@AAH11@Z
_TEXT	SEGMENT
_nValue$ = 8						; size = 4
_strFormat$ = 12					; size = 4
_year$ = 16						; size = 4
_mon$ = 20						; size = 4
_day$ = 24						; size = 4
?OnPickoutMonthly@CDataConversion@@CA_NHABV?$CStringT@DV?$StrTraitMFC_DLL@DV?$ChTraitsCRT@D@ATL@@@@@ATL@@AAH11@Z PROC ; CDataConversion::OnPickoutMonthly, COMDAT

; 2119 : {

  00000	55		 push	 ebp
  00001	8b ec		 mov	 ebp, esp

; 2120 : 	day = 0;

  00003	8b 45 18	 mov	 eax, DWORD PTR _day$[ebp]
  00006	53		 push	 ebx
  00007	56		 push	 esi
  00008	57		 push	 edi

; 2121 : 
; 2122 : 	if(strFormat.Find('M') >= 0)

  00009	8b 7d 0c	 mov	 edi, DWORD PTR _strFormat$[ebp]
  0000c	8b cf		 mov	 ecx, edi
  0000e	6a 00		 push	 0
  00010	6a 4d		 push	 77			; 0000004dH
  00012	c7 00 00 00 00
	00		 mov	 DWORD PTR [eax], 0
  00018	ff 15 00 00 00
	00		 call	 DWORD PTR __imp_?Find@?$CStringT@DV?$StrTraitMFC_DLL@DV?$ChTraitsCRT@D@ATL@@@@@ATL@@QBEHDH@Z
  0001e	8b 5d 08	 mov	 ebx, DWORD PTR _nValue$[ebp]
  00021	85 c0		 test	 eax, eax
  00023	78 1c		 js	 SHORT $LN2@OnPickoutM

; 2123 : 		mon = nValue % 12;

  00025	b8 ab aa aa 2a	 mov	 eax, 715827883		; 2aaaaaabH
  0002a	8b cb		 mov	 ecx, ebx
  0002c	f7 eb		 imul	 ebx
  0002e	d1 fa		 sar	 edx, 1
  00030	8b c2		 mov	 eax, edx
  00032	c1 e8 1f	 shr	 eax, 31			; 0000001fH
  00035	03 c2		 add	 eax, edx
  00037	8d 04 40	 lea	 eax, DWORD PTR [eax+eax*2]
  0003a	c1 e0 02	 shl	 eax, 2
  0003d	2b c8		 sub	 ecx, eax
  0003f	eb 02		 jmp	 SHORT $LN3@OnPickoutM
$LN2@OnPickoutM:

; 2124 : 	else
; 2125 : 		mon = 0;

  00041	33 c9		 xor	 ecx, ecx
$LN3@OnPickoutM:

; 2126 : 
; 2127 : 	if(strFormat.Find('Y') >= 0)

  00043	8b 75 14	 mov	 esi, DWORD PTR _mon$[ebp]
  00046	6a 00		 push	 0
  00048	6a 59		 push	 89			; 00000059H
  0004a	89 0e		 mov	 DWORD PTR [esi], ecx
  0004c	8b cf		 mov	 ecx, edi
  0004e	ff 15 00 00 00
	00		 call	 DWORD PTR __imp_?Find@?$CStringT@DV?$StrTraitMFC_DLL@DV?$ChTraitsCRT@D@ATL@@@@@ATL@@QBEHDH@Z
  00054	85 c0		 test	 eax, eax
  00056	78 12		 js	 SHORT $LN4@OnPickoutM

; 2128 : 		year = nValue / 12;

  00058	b8 ab aa aa 2a	 mov	 eax, 715827883		; 2aaaaaabH
  0005d	f7 eb		 imul	 ebx
  0005f	d1 fa		 sar	 edx, 1
  00061	8b ca		 mov	 ecx, edx
  00063	c1 e9 1f	 shr	 ecx, 31			; 0000001fH
  00066	03 ca		 add	 ecx, edx
  00068	eb 02		 jmp	 SHORT $LN5@OnPickoutM
$LN4@OnPickoutM:

; 2129 : 	else
; 2130 : 		year = 0;

  0006a	33 c9		 xor	 ecx, ecx
$LN5@OnPickoutM:

; 2131 : 
; 2132 : 	return (mon != 0 || year != 0);

  0006c	8b 45 10	 mov	 eax, DWORD PTR _year$[ebp]
  0006f	5f		 pop	 edi
  00070	89 08		 mov	 DWORD PTR [eax], ecx
  00072	83 3e 00	 cmp	 DWORD PTR [esi], 0
  00075	5e		 pop	 esi
  00076	5b		 pop	 ebx
  00077	75 08		 jne	 SHORT $LN7@OnPickoutM
  00079	85 c9		 test	 ecx, ecx
  0007b	75 04		 jne	 SHORT $LN7@OnPickoutM
  0007d	32 c0		 xor	 al, al

; 2133 : }

  0007f	5d		 pop	 ebp
  00080	c3		 ret	 0
$LN7@OnPickoutM:

; 2131 : 
; 2132 : 	return (mon != 0 || year != 0);

  00081	b0 01		 mov	 al, 1

; 2133 : }

  00083	5d		 pop	 ebp
  00084	c3		 ret	 0
?OnPickoutMonthly@CDataConversion@@CA_NHABV?$CStringT@DV?$StrTraitMFC_DLL@DV?$ChTraitsCRT@D@ATL@@@@@ATL@@AAH11@Z ENDP ; CDataConversion::OnPickoutMonthly
_TEXT	ENDS
; Function compile flags: /Ogtp
; File D:\git\src\IBK\IBK_DRFN\ProjSrc\SrcDrfn\Chart\chart_common\DataList\Conversion.cpp
; File C:\Program Files (x86)\Microsoft Visual Studio\2019\Community\VC\Tools\MSVC\14.29.30133\atlmfc\include\cstringt.h
; File D:\git\src\IBK\IBK_DRFN\ProjSrc\SrcDrfn\Chart\chart_common\DataList\Conversion.cpp
; File C:\Program Files (x86)\Microsoft Visual Studio\2019\Community\VC\Tools\MSVC\14.29.30133\atlmfc\include\cstringt.h
; File D:\git\src\IBK\IBK_DRFN\ProjSrc\SrcDrfn\Chart\chart_common\DataList\Conversion.cpp
; File C:\Program Files (x86)\Microsoft Visual Studio\2019\Community\VC\Tools\MSVC\14.29.30133\atlmfc\include\cstringt.h
; File D:\git\src\IBK\IBK_DRFN\ProjSrc\SrcDrfn\Chart\chart_common\DataList\Conversion.cpp
;	COMDAT ?OnPickoutWeekley@CDataConversion@@CA_NHABV?$CStringT@DV?$StrTraitMFC_DLL@DV?$ChTraitsCRT@D@ATL@@@@@ATL@@AAH11@Z
_TEXT	SEGMENT
$T1 = -4						; size = 4
_nValue$ = 8						; size = 4
_strFormat$ = 12					; size = 4
_year$ = 16						; size = 4
_mon$ = 20						; size = 4
_day$ = 24						; size = 4
?OnPickoutWeekley@CDataConversion@@CA_NHABV?$CStringT@DV?$StrTraitMFC_DLL@DV?$ChTraitsCRT@D@ATL@@@@@ATL@@AAH11@Z PROC ; CDataConversion::OnPickoutWeekley, COMDAT

; 2097 : {

  00000	55		 push	 ebp
  00001	8b ec		 mov	 ebp, esp
  00003	51		 push	 ecx
  00004	53		 push	 ebx

; 2098 : 	if(strFormat.Right(1) == 'D')

  00005	8b 5d 0c	 mov	 ebx, DWORD PTR _strFormat$[ebp]
  00008	8d 45 fc	 lea	 eax, DWORD PTR $T1[ebp]
  0000b	56		 push	 esi
  0000c	57		 push	 edi
  0000d	8b 7d 08	 mov	 edi, DWORD PTR _nValue$[ebp]
  00010	8b cb		 mov	 ecx, ebx
  00012	6a 01		 push	 1
  00014	50		 push	 eax
  00015	ff 15 00 00 00
	00		 call	 DWORD PTR __imp_?Right@?$CStringT@DV?$StrTraitMFC_DLL@DV?$ChTraitsCRT@D@ATL@@@@@ATL@@QBE?AV12@H@Z
; File C:\Program Files (x86)\Microsoft Visual Studio\2019\Community\VC\Tools\MSVC\14.29.30133\atlmfc\include\cstringt.h

; 2510 : 		return((str1.GetLength() == 1) && (str1[0] == ch2));

  0001b	8b 08		 mov	 ecx, DWORD PTR [eax]
  0001d	83 79 f4 01	 cmp	 DWORD PTR [ecx-12], 1
  00021	75 2c		 jne	 SHORT $LN14@OnPickoutW
  00023	6a 00		 push	 0
  00025	8b c8		 mov	 ecx, eax
  00027	ff 15 00 00 00
	00		 call	 DWORD PTR __imp_??A?$CSimpleStringT@D$00@ATL@@QBEDH@Z
  0002d	3c 44		 cmp	 al, 68			; 00000044H
  0002f	75 1e		 jne	 SHORT $LN14@OnPickoutW
  00031	8d 4d fc	 lea	 ecx, DWORD PTR $T1[ebp]
  00034	ff 15 00 00 00
	00		 call	 DWORD PTR __imp_??1?$CStringT@DV?$StrTraitMFC_DLL@DV?$ChTraitsCRT@D@ATL@@@@@ATL@@QAE@XZ
  0003a	8d 34 fd 00 00
	00 00		 lea	 esi, DWORD PTR [edi*8]
; File D:\git\src\IBK\IBK_DRFN\ProjSrc\SrcDrfn\Chart\chart_common\DataList\Conversion.cpp

; 2099 : 		day = (nValue * 7) % 30;

  00041	b9 1e 00 00 00	 mov	 ecx, 30			; 0000001eH
; File C:\Program Files (x86)\Microsoft Visual Studio\2019\Community\VC\Tools\MSVC\14.29.30133\atlmfc\include\cstringt.h

; 2510 : 		return((str1.GetLength() == 1) && (str1[0] == ch2));

  00046	2b f7		 sub	 esi, edi
; File D:\git\src\IBK\IBK_DRFN\ProjSrc\SrcDrfn\Chart\chart_common\DataList\Conversion.cpp

; 2099 : 		day = (nValue * 7) % 30;

  00048	8b c6		 mov	 eax, esi
  0004a	99		 cdq
  0004b	f7 f9		 idiv	 ecx
  0004d	eb 14		 jmp	 SHORT $LN3@OnPickoutW
$LN14@OnPickoutW:
; File C:\Program Files (x86)\Microsoft Visual Studio\2019\Community\VC\Tools\MSVC\14.29.30133\atlmfc\include\cstringt.h

; 2510 : 		return((str1.GetLength() == 1) && (str1[0] == ch2));

  0004f	8d 4d fc	 lea	 ecx, DWORD PTR $T1[ebp]
  00052	ff 15 00 00 00
	00		 call	 DWORD PTR __imp_??1?$CStringT@DV?$StrTraitMFC_DLL@DV?$ChTraitsCRT@D@ATL@@@@@ATL@@QAE@XZ
  00058	8d 34 fd 00 00
	00 00		 lea	 esi, DWORD PTR [edi*8]
  0005f	2b f7		 sub	 esi, edi
; File D:\git\src\IBK\IBK_DRFN\ProjSrc\SrcDrfn\Chart\chart_common\DataList\Conversion.cpp

; 2101 : 		day = 0;

  00061	33 d2		 xor	 edx, edx
$LN3@OnPickoutW:

; 2102 : 
; 2103 : 	if(strFormat.Find('M') >= 0)

  00063	8b 7d 18	 mov	 edi, DWORD PTR _day$[ebp]
  00066	8b cb		 mov	 ecx, ebx
  00068	6a 00		 push	 0
  0006a	6a 4d		 push	 77			; 0000004dH
  0006c	89 17		 mov	 DWORD PTR [edi], edx
  0006e	ff 15 00 00 00
	00		 call	 DWORD PTR __imp_?Find@?$CStringT@DV?$StrTraitMFC_DLL@DV?$ChTraitsCRT@D@ATL@@@@@ATL@@QBEHDH@Z
  00074	85 c0		 test	 eax, eax
  00076	78 15		 js	 SHORT $LN4@OnPickoutW

; 2104 : 		mon = (nValue * 7) / 30;

  00078	b8 89 88 88 88	 mov	 eax, -2004318071	; 88888889H
  0007d	f7 ee		 imul	 esi
  0007f	03 d6		 add	 edx, esi
  00081	c1 fa 04	 sar	 edx, 4
  00084	8b c2		 mov	 eax, edx
  00086	c1 e8 1f	 shr	 eax, 31			; 0000001fH
  00089	03 c2		 add	 eax, edx
  0008b	eb 02		 jmp	 SHORT $LN5@OnPickoutW
$LN4@OnPickoutW:

; 2105 : 	else
; 2106 : 		mon = 0;

  0008d	33 c0		 xor	 eax, eax
$LN5@OnPickoutW:

; 2107 : 
; 2108 : 	if(strFormat.Find('Y') >= 0){

  0008f	8b 75 14	 mov	 esi, DWORD PTR _mon$[ebp]
  00092	8b cb		 mov	 ecx, ebx
  00094	6a 00		 push	 0
  00096	6a 59		 push	 89			; 00000059H
  00098	89 06		 mov	 DWORD PTR [esi], eax
  0009a	ff 15 00 00 00
	00		 call	 DWORD PTR __imp_?Find@?$CStringT@DV?$StrTraitMFC_DLL@DV?$ChTraitsCRT@D@ATL@@@@@ATL@@QBEHDH@Z
  000a0	8b 4d 10	 mov	 ecx, DWORD PTR _year$[ebp]
  000a3	85 c0		 test	 eax, eax
  000a5	78 20		 js	 SHORT $LN6@OnPickoutW

; 2109 : 		year = mon / 12;

  000a7	b8 ab aa aa 2a	 mov	 eax, 715827883		; 2aaaaaabH

; 2110 : 		mon = mon % 12;

  000ac	bb 0c 00 00 00	 mov	 ebx, 12			; 0000000cH
  000b1	f7 2e		 imul	 DWORD PTR [esi]
  000b3	d1 fa		 sar	 edx, 1
  000b5	8b c2		 mov	 eax, edx
  000b7	c1 e8 1f	 shr	 eax, 31			; 0000001fH
  000ba	03 c2		 add	 eax, edx
  000bc	89 01		 mov	 DWORD PTR [ecx], eax
  000be	8b 06		 mov	 eax, DWORD PTR [esi]
  000c0	99		 cdq
  000c1	f7 fb		 idiv	 ebx
  000c3	89 16		 mov	 DWORD PTR [esi], edx

; 2111 : 	}

  000c5	eb 06		 jmp	 SHORT $LN7@OnPickoutW
$LN6@OnPickoutW:

; 2112 : 	else
; 2113 : 		year = 0;

  000c7	c7 01 00 00 00
	00		 mov	 DWORD PTR [ecx], 0
$LN7@OnPickoutW:

; 2114 : 
; 2115 : 	return (day != 0 || mon != 0 || year != 0);

  000cd	83 3f 00	 cmp	 DWORD PTR [edi], 0
  000d0	75 13		 jne	 SHORT $LN9@OnPickoutW
  000d2	83 3e 00	 cmp	 DWORD PTR [esi], 0
  000d5	75 0e		 jne	 SHORT $LN9@OnPickoutW
  000d7	83 39 00	 cmp	 DWORD PTR [ecx], 0
  000da	75 09		 jne	 SHORT $LN9@OnPickoutW

; 2116 : }

  000dc	5f		 pop	 edi
  000dd	5e		 pop	 esi
  000de	32 c0		 xor	 al, al
  000e0	5b		 pop	 ebx
  000e1	8b e5		 mov	 esp, ebp
  000e3	5d		 pop	 ebp
  000e4	c3		 ret	 0
$LN9@OnPickoutW:
  000e5	5f		 pop	 edi
  000e6	5e		 pop	 esi
  000e7	b0 01		 mov	 al, 1
  000e9	5b		 pop	 ebx
  000ea	8b e5		 mov	 esp, ebp
  000ec	5d		 pop	 ebp
  000ed	c3		 ret	 0
?OnPickoutWeekley@CDataConversion@@CA_NHABV?$CStringT@DV?$StrTraitMFC_DLL@DV?$ChTraitsCRT@D@ATL@@@@@ATL@@AAH11@Z ENDP ; CDataConversion::OnPickoutWeekley
_TEXT	ENDS
; Function compile flags: /Ogtp
; File D:\git\src\IBK\IBK_DRFN\ProjSrc\SrcDrfn\Chart\chart_common\DataList\Conversion.cpp
; File C:\Program Files (x86)\Microsoft Visual Studio\2019\Community\VC\Tools\MSVC\14.29.30133\atlmfc\include\atlsimpstr.h
; File D:\git\src\IBK\IBK_DRFN\ProjSrc\SrcDrfn\Chart\chart_common\DataList\Conversion.cpp
; File C:\Program Files (x86)\Microsoft Visual Studio\2019\Community\VC\Tools\MSVC\14.29.30133\atlmfc\include\atlsimpstr.h
; File D:\git\src\IBK\IBK_DRFN\ProjSrc\SrcDrfn\Chart\chart_common\DataList\Conversion.cpp
; File C:\Program Files (x86)\Microsoft Visual Studio\2019\Community\VC\Tools\MSVC\14.29.30133\atlmfc\include\cstringt.h
; File D:\git\src\IBK\IBK_DRFN\ProjSrc\SrcDrfn\Chart\chart_common\DataList\Conversion.cpp
; File C:\Program Files (x86)\Microsoft Visual Studio\2019\Community\VC\Tools\MSVC\14.29.30133\atlmfc\include\cstringt.h
; File D:\git\src\IBK\IBK_DRFN\ProjSrc\SrcDrfn\Chart\chart_common\DataList\Conversion.cpp
;	COMDAT ?OnPickoutDaily@CDataConversion@@CA_NHABV?$CStringT@DV?$StrTraitMFC_DLL@DV?$ChTraitsCRT@D@ATL@@@@@ATL@@AAH11@Z
_TEXT	SEGMENT
_strValue$ = -16					; size = 4
__$EHRec$ = -12						; size = 12
_nValue$ = 8						; size = 4
$T2 = 12						; size = 4
_strFormat$ = 12					; size = 4
_year$ = 16						; size = 4
_mon$ = 20						; size = 4
_day$ = 24						; size = 4
?OnPickoutDaily@CDataConversion@@CA_NHABV?$CStringT@DV?$StrTraitMFC_DLL@DV?$ChTraitsCRT@D@ATL@@@@@ATL@@AAH11@Z PROC ; CDataConversion::OnPickoutDaily, COMDAT

; 2074 : {

  00000	55		 push	 ebp
  00001	8b ec		 mov	 ebp, esp
  00003	6a ff		 push	 -1
  00005	68 00 00 00 00	 push	 __ehhandler$?OnPickoutDaily@CDataConversion@@CA_NHABV?$CStringT@DV?$StrTraitMFC_DLL@DV?$ChTraitsCRT@D@ATL@@@@@ATL@@AAH11@Z
  0000a	64 a1 00 00 00
	00		 mov	 eax, DWORD PTR fs:0
  00010	50		 push	 eax
  00011	51		 push	 ecx
  00012	53		 push	 ebx
  00013	56		 push	 esi
  00014	57		 push	 edi
  00015	a1 00 00 00 00	 mov	 eax, DWORD PTR ___security_cookie
  0001a	33 c5		 xor	 eax, ebp
  0001c	50		 push	 eax
  0001d	8d 45 f4	 lea	 eax, DWORD PTR __$EHRec$[ebp]
  00020	64 a3 00 00 00
	00		 mov	 DWORD PTR fs:0, eax
; File C:\Program Files (x86)\Microsoft Visual Studio\2019\Community\VC\Tools\MSVC\14.29.30133\atlmfc\include\atlsimpstr.h

; 519  : 		return( GetData()->nDataLength );

  00026	8b 7d 0c	 mov	 edi, DWORD PTR _strFormat$[ebp]
; File D:\git\src\IBK\IBK_DRFN\ProjSrc\SrcDrfn\Chart\chart_common\DataList\Conversion.cpp

; 2075 : 	CString strValue = IntToString(nValue, strFormat.GetLength());

  00029	8b 75 08	 mov	 esi, DWORD PTR _nValue$[ebp]
; File C:\Program Files (x86)\Microsoft Visual Studio\2019\Community\VC\Tools\MSVC\14.29.30133\atlmfc\include\atlsimpstr.h

; 519  : 		return( GetData()->nDataLength );

  0002c	8b 07		 mov	 eax, DWORD PTR [edi]
; File D:\git\src\IBK\IBK_DRFN\ProjSrc\SrcDrfn\Chart\chart_common\DataList\Conversion.cpp

; 2075 : 	CString strValue = IntToString(nValue, strFormat.GetLength());

  0002e	ff 70 f4	 push	 DWORD PTR [eax-12]
  00031	8d 45 f0	 lea	 eax, DWORD PTR _strValue$[ebp]
  00034	56		 push	 esi
  00035	50		 push	 eax
  00036	e8 00 00 00 00	 call	 ?IntToString@CDataConversion@@SA?AV?$CStringT@DV?$StrTraitMFC_DLL@DV?$ChTraitsCRT@D@ATL@@@@@ATL@@HH@Z ; CDataConversion::IntToString
  0003b	83 c4 0c	 add	 esp, 12			; 0000000cH

; 2076 : 	if(strFormat.Right(1) == 'D')

  0003e	6a 01		 push	 1
  00040	8d 45 0c	 lea	 eax, DWORD PTR $T2[ebp]
  00043	c7 45 fc 00 00
	00 00		 mov	 DWORD PTR __$EHRec$[ebp+8], 0
  0004a	50		 push	 eax
  0004b	8b cf		 mov	 ecx, edi
  0004d	ff 15 00 00 00
	00		 call	 DWORD PTR __imp_?Right@?$CStringT@DV?$StrTraitMFC_DLL@DV?$ChTraitsCRT@D@ATL@@@@@ATL@@QBE?AV12@H@Z
; File C:\Program Files (x86)\Microsoft Visual Studio\2019\Community\VC\Tools\MSVC\14.29.30133\atlmfc\include\cstringt.h

; 2510 : 		return((str1.GetLength() == 1) && (str1[0] == ch2));

  00053	8b 08		 mov	 ecx, DWORD PTR [eax]
  00055	83 79 f4 01	 cmp	 DWORD PTR [ecx-12], 1
  00059	75 39		 jne	 SHORT $LN19@OnPickoutD
  0005b	6a 00		 push	 0
  0005d	8b c8		 mov	 ecx, eax
  0005f	ff 15 00 00 00
	00		 call	 DWORD PTR __imp_??A?$CSimpleStringT@D$00@ATL@@QBEDH@Z
  00065	3c 44		 cmp	 al, 68			; 00000044H
  00067	75 2b		 jne	 SHORT $LN19@OnPickoutD
  00069	8d 4d 0c	 lea	 ecx, DWORD PTR $T2[ebp]
  0006c	ff 15 00 00 00
	00		 call	 DWORD PTR __imp_??1?$CStringT@DV?$StrTraitMFC_DLL@DV?$ChTraitsCRT@D@ATL@@@@@ATL@@QAE@XZ
; File D:\git\src\IBK\IBK_DRFN\ProjSrc\SrcDrfn\Chart\chart_common\DataList\Conversion.cpp

; 2077 : 		day = nValue % 30;

  00072	b8 89 88 88 88	 mov	 eax, -2004318071	; 88888889H
  00077	f7 ee		 imul	 esi
  00079	03 d6		 add	 edx, esi
  0007b	c1 fa 04	 sar	 edx, 4
  0007e	8b ca		 mov	 ecx, edx
  00080	c1 e9 1f	 shr	 ecx, 31			; 0000001fH
  00083	03 ca		 add	 ecx, edx
  00085	8b c1		 mov	 eax, ecx
  00087	c1 e0 04	 shl	 eax, 4
  0008a	2b c1		 sub	 eax, ecx
  0008c	8b ce		 mov	 ecx, esi
  0008e	03 c0		 add	 eax, eax
  00090	2b c8		 sub	 ecx, eax
  00092	eb 0b		 jmp	 SHORT $LN3@OnPickoutD
$LN19@OnPickoutD:
; File C:\Program Files (x86)\Microsoft Visual Studio\2019\Community\VC\Tools\MSVC\14.29.30133\atlmfc\include\cstringt.h

; 2510 : 		return((str1.GetLength() == 1) && (str1[0] == ch2));

  00094	8d 4d 0c	 lea	 ecx, DWORD PTR $T2[ebp]
  00097	ff 15 00 00 00
	00		 call	 DWORD PTR __imp_??1?$CStringT@DV?$StrTraitMFC_DLL@DV?$ChTraitsCRT@D@ATL@@@@@ATL@@QAE@XZ
; File D:\git\src\IBK\IBK_DRFN\ProjSrc\SrcDrfn\Chart\chart_common\DataList\Conversion.cpp

; 2079 : 		day = 0;

  0009d	33 c9		 xor	 ecx, ecx
$LN3@OnPickoutD:

; 2080 : 
; 2081 : 	if(strFormat.Find('M') >= 0)

  0009f	8b 5d 18	 mov	 ebx, DWORD PTR _day$[ebp]
  000a2	6a 00		 push	 0
  000a4	6a 4d		 push	 77			; 0000004dH
  000a6	89 0b		 mov	 DWORD PTR [ebx], ecx
  000a8	8b cf		 mov	 ecx, edi
  000aa	ff 15 00 00 00
	00		 call	 DWORD PTR __imp_?Find@?$CStringT@DV?$StrTraitMFC_DLL@DV?$ChTraitsCRT@D@ATL@@@@@ATL@@QBEHDH@Z
  000b0	85 c0		 test	 eax, eax
  000b2	78 15		 js	 SHORT $LN4@OnPickoutD

; 2082 : 		mon = nValue / 30;

  000b4	b8 89 88 88 88	 mov	 eax, -2004318071	; 88888889H
  000b9	f7 ee		 imul	 esi
  000bb	03 d6		 add	 edx, esi
  000bd	c1 fa 04	 sar	 edx, 4
  000c0	8b c2		 mov	 eax, edx
  000c2	c1 e8 1f	 shr	 eax, 31			; 0000001fH
  000c5	03 c2		 add	 eax, edx
  000c7	eb 02		 jmp	 SHORT $LN5@OnPickoutD
$LN4@OnPickoutD:

; 2083 : 	else
; 2084 : 		mon = 0;

  000c9	33 c0		 xor	 eax, eax
$LN5@OnPickoutD:

; 2085 : 
; 2086 : 	if(strFormat.Find('Y') >= 0){

  000cb	8b 75 14	 mov	 esi, DWORD PTR _mon$[ebp]
  000ce	8b cf		 mov	 ecx, edi
  000d0	6a 00		 push	 0
  000d2	6a 59		 push	 89			; 00000059H
  000d4	89 06		 mov	 DWORD PTR [esi], eax
  000d6	ff 15 00 00 00
	00		 call	 DWORD PTR __imp_?Find@?$CStringT@DV?$StrTraitMFC_DLL@DV?$ChTraitsCRT@D@ATL@@@@@ATL@@QBEHDH@Z
  000dc	8b 4d 10	 mov	 ecx, DWORD PTR _year$[ebp]
  000df	85 c0		 test	 eax, eax
  000e1	78 20		 js	 SHORT $LN6@OnPickoutD

; 2087 : 		year = mon / 12;

  000e3	b8 ab aa aa 2a	 mov	 eax, 715827883		; 2aaaaaabH

; 2088 : 		mon = mon % 12;

  000e8	bf 0c 00 00 00	 mov	 edi, 12			; 0000000cH
  000ed	f7 2e		 imul	 DWORD PTR [esi]
  000ef	d1 fa		 sar	 edx, 1
  000f1	8b c2		 mov	 eax, edx
  000f3	c1 e8 1f	 shr	 eax, 31			; 0000001fH
  000f6	03 c2		 add	 eax, edx
  000f8	89 01		 mov	 DWORD PTR [ecx], eax
  000fa	8b 06		 mov	 eax, DWORD PTR [esi]
  000fc	99		 cdq
  000fd	f7 ff		 idiv	 edi
  000ff	89 16		 mov	 DWORD PTR [esi], edx

; 2089 : 	}

  00101	eb 06		 jmp	 SHORT $LN7@OnPickoutD
$LN6@OnPickoutD:

; 2090 : 	else
; 2091 : 		year = 0;

  00103	c7 01 00 00 00
	00		 mov	 DWORD PTR [ecx], 0
$LN7@OnPickoutD:

; 2092 : 
; 2093 : 	return (day != 0 || mon != 0 || year != 0);

  00109	83 3b 00	 cmp	 DWORD PTR [ebx], 0
  0010c	75 0e		 jne	 SHORT $LN9@OnPickoutD
  0010e	83 3e 00	 cmp	 DWORD PTR [esi], 0
  00111	75 09		 jne	 SHORT $LN9@OnPickoutD
  00113	83 39 00	 cmp	 DWORD PTR [ecx], 0
  00116	75 04		 jne	 SHORT $LN9@OnPickoutD
  00118	32 db		 xor	 bl, bl
  0011a	eb 02		 jmp	 SHORT $LN10@OnPickoutD
$LN9@OnPickoutD:
  0011c	b3 01		 mov	 bl, 1
$LN10@OnPickoutD:
  0011e	8d 4d f0	 lea	 ecx, DWORD PTR _strValue$[ebp]
  00121	ff 15 00 00 00
	00		 call	 DWORD PTR __imp_??1?$CStringT@DV?$StrTraitMFC_DLL@DV?$ChTraitsCRT@D@ATL@@@@@ATL@@QAE@XZ
  00127	8a c3		 mov	 al, bl

; 2094 : }

  00129	8b 4d f4	 mov	 ecx, DWORD PTR __$EHRec$[ebp]
  0012c	64 89 0d 00 00
	00 00		 mov	 DWORD PTR fs:0, ecx
  00133	59		 pop	 ecx
  00134	5f		 pop	 edi
  00135	5e		 pop	 esi
  00136	5b		 pop	 ebx
  00137	8b e5		 mov	 esp, ebp
  00139	5d		 pop	 ebp
  0013a	c3		 ret	 0
_TEXT	ENDS
;	COMDAT text$x
text$x	SEGMENT
__unwindfunclet$?OnPickoutDaily@CDataConversion@@CA_NHABV?$CStringT@DV?$StrTraitMFC_DLL@DV?$ChTraitsCRT@D@ATL@@@@@ATL@@AAH11@Z$0:
  00000	8d 4d f0	 lea	 ecx, DWORD PTR _strValue$[ebp]
  00003	ff 25 00 00 00
	00		 jmp	 DWORD PTR __imp_??1?$CStringT@DV?$StrTraitMFC_DLL@DV?$ChTraitsCRT@D@ATL@@@@@ATL@@QAE@XZ
  00009	cc		 int	 3
  0000a	cc		 int	 3
  0000b	cc		 int	 3
  0000c	cc		 int	 3
  0000d	cc		 int	 3
__ehhandler$?OnPickoutDaily@CDataConversion@@CA_NHABV?$CStringT@DV?$StrTraitMFC_DLL@DV?$ChTraitsCRT@D@ATL@@@@@ATL@@AAH11@Z:
  0000e	90		 npad	 1
  0000f	90		 npad	 1
  00010	8b 54 24 08	 mov	 edx, DWORD PTR [esp+8]
  00014	8d 42 0c	 lea	 eax, DWORD PTR [edx+12]
  00017	8b 4a ec	 mov	 ecx, DWORD PTR [edx-20]
  0001a	33 c8		 xor	 ecx, eax
  0001c	e8 00 00 00 00	 call	 @__security_check_cookie@4
  00021	b8 00 00 00 00	 mov	 eax, OFFSET __ehfuncinfo$?OnPickoutDaily@CDataConversion@@CA_NHABV?$CStringT@DV?$StrTraitMFC_DLL@DV?$ChTraitsCRT@D@ATL@@@@@ATL@@AAH11@Z
  00026	e9 00 00 00 00	 jmp	 ___CxxFrameHandler3
text$x	ENDS
?OnPickoutDaily@CDataConversion@@CA_NHABV?$CStringT@DV?$StrTraitMFC_DLL@DV?$ChTraitsCRT@D@ATL@@@@@ATL@@AAH11@Z ENDP ; CDataConversion::OnPickoutDaily
; Function compile flags: /Ogtp
; File D:\git\src\IBK\IBK_DRFN\ProjSrc\SrcDrfn\Chart\chart_common\DataList\Conversion.cpp
; File C:\Program Files (x86)\Microsoft Visual Studio\2019\Community\VC\Tools\MSVC\14.29.30133\atlmfc\include\cstringt.h
; File D:\git\src\IBK\IBK_DRFN\ProjSrc\SrcDrfn\Chart\chart_common\DataList\Conversion.cpp
; File C:\Program Files (x86)\Microsoft Visual Studio\2019\Community\VC\Tools\MSVC\14.29.30133\atlmfc\include\cstringt.h
; File D:\git\src\IBK\IBK_DRFN\ProjSrc\SrcDrfn\Chart\chart_common\DataList\Conversion.cpp
; File C:\Program Files (x86)\Microsoft Visual Studio\2019\Community\VC\Tools\MSVC\14.29.30133\atlmfc\include\cstringt.h
; File D:\git\src\IBK\IBK_DRFN\ProjSrc\SrcDrfn\Chart\chart_common\DataList\Conversion.cpp
; File C:\Program Files (x86)\Microsoft Visual Studio\2019\Community\VC\Tools\MSVC\14.29.30133\atlmfc\include\atlsimpstr.h
; File D:\git\src\IBK\IBK_DRFN\ProjSrc\SrcDrfn\Chart\chart_common\DataList\Conversion.cpp
; File C:\Program Files (x86)\Microsoft Visual Studio\2019\Community\VC\Tools\MSVC\14.29.30133\atlmfc\include\cstringt.h
; File D:\git\src\IBK\IBK_DRFN\ProjSrc\SrcDrfn\Chart\chart_common\DataList\Conversion.cpp
; File C:\Program Files (x86)\Microsoft Visual Studio\2019\Community\VC\Tools\MSVC\14.29.30133\atlmfc\include\cstringt.h
; File D:\git\src\IBK\IBK_DRFN\ProjSrc\SrcDrfn\Chart\chart_common\DataList\Conversion.cpp
;	COMDAT ?OnPickoutDate@CDataConversion@@CA_NHABV?$CStringT@DV?$StrTraitMFC_DLL@DV?$ChTraitsCRT@D@ATL@@@@@ATL@@HAAH11@Z
_TEXT	SEGMENT
_strValue$2 = -16					; size = 4
__$EHRec$ = -12						; size = 12
_nValue$ = 8						; size = 4
_strFormat$ = 12					; size = 4
$T3 = 16						; size = 4
$T4 = 16						; size = 4
_nType$ = 16						; size = 4
_year$ = 20						; size = 4
_mon$ = 24						; size = 4
_day$ = 28						; size = 4
?OnPickoutDate@CDataConversion@@CA_NHABV?$CStringT@DV?$StrTraitMFC_DLL@DV?$ChTraitsCRT@D@ATL@@@@@ATL@@HAAH11@Z PROC ; CDataConversion::OnPickoutDate, COMDAT

; 2060 : {

  00000	55		 push	 ebp
  00001	8b ec		 mov	 ebp, esp
  00003	6a ff		 push	 -1
  00005	68 00 00 00 00	 push	 __ehhandler$?OnPickoutDate@CDataConversion@@CA_NHABV?$CStringT@DV?$StrTraitMFC_DLL@DV?$ChTraitsCRT@D@ATL@@@@@ATL@@HAAH11@Z
  0000a	64 a1 00 00 00
	00		 mov	 eax, DWORD PTR fs:0
  00010	50		 push	 eax
  00011	51		 push	 ecx
  00012	53		 push	 ebx
  00013	56		 push	 esi
  00014	57		 push	 edi
  00015	a1 00 00 00 00	 mov	 eax, DWORD PTR ___security_cookie
  0001a	33 c5		 xor	 eax, ebp
  0001c	50		 push	 eax
  0001d	8d 45 f4	 lea	 eax, DWORD PTR __$EHRec$[ebp]
  00020	64 a3 00 00 00
	00		 mov	 DWORD PTR fs:0, eax

; 2061 : 	switch(nType){

  00026	8b 45 10	 mov	 eax, DWORD PTR _nType$[ebp]
  00029	8b 75 08	 mov	 esi, DWORD PTR _nValue$[ebp]
  0002c	83 e8 01	 sub	 eax, 1
  0002f	0f 84 98 01 00
	00		 je	 $LN4@OnPickoutD
  00035	83 e8 01	 sub	 eax, 1
  00038	0f 84 92 00 00
	00		 je	 $LN5@OnPickoutD
  0003e	83 e8 01	 sub	 eax, 1
  00041	75 79		 jne	 SHORT $LN62@OnPickoutD

; 2120 : 	day = 0;

  00043	8b 45 1c	 mov	 eax, DWORD PTR _day$[ebp]

; 2121 : 
; 2122 : 	if(strFormat.Find('M') >= 0)

  00046	8b 5d 0c	 mov	 ebx, DWORD PTR _strFormat$[ebp]
  00049	8b cb		 mov	 ecx, ebx
  0004b	6a 00		 push	 0
  0004d	6a 4d		 push	 77			; 0000004dH
  0004f	c7 00 00 00 00
	00		 mov	 DWORD PTR [eax], 0
  00055	ff 15 00 00 00
	00		 call	 DWORD PTR __imp_?Find@?$CStringT@DV?$StrTraitMFC_DLL@DV?$ChTraitsCRT@D@ATL@@@@@ATL@@QBEHDH@Z
  0005b	85 c0		 test	 eax, eax
  0005d	78 1c		 js	 SHORT $LN52@OnPickoutD

; 2123 : 		mon = nValue % 12;

  0005f	b8 ab aa aa 2a	 mov	 eax, 715827883		; 2aaaaaabH
  00064	8b ce		 mov	 ecx, esi
  00066	f7 ee		 imul	 esi
  00068	d1 fa		 sar	 edx, 1
  0006a	8b c2		 mov	 eax, edx
  0006c	c1 e8 1f	 shr	 eax, 31			; 0000001fH
  0006f	03 c2		 add	 eax, edx
  00071	8d 04 40	 lea	 eax, DWORD PTR [eax+eax*2]
  00074	c1 e0 02	 shl	 eax, 2
  00077	2b c8		 sub	 ecx, eax
  00079	eb 02		 jmp	 SHORT $LN53@OnPickoutD
$LN52@OnPickoutD:

; 2124 : 	else
; 2125 : 		mon = 0;

  0007b	33 c9		 xor	 ecx, ecx
$LN53@OnPickoutD:

; 2126 : 
; 2127 : 	if(strFormat.Find('Y') >= 0)

  0007d	8b 7d 18	 mov	 edi, DWORD PTR _mon$[ebp]
  00080	6a 00		 push	 0
  00082	6a 59		 push	 89			; 00000059H
  00084	89 0f		 mov	 DWORD PTR [edi], ecx
  00086	8b cb		 mov	 ecx, ebx
  00088	ff 15 00 00 00
	00		 call	 DWORD PTR __imp_?Find@?$CStringT@DV?$StrTraitMFC_DLL@DV?$ChTraitsCRT@D@ATL@@@@@ATL@@QBEHDH@Z
  0008e	85 c0		 test	 eax, eax
  00090	78 12		 js	 SHORT $LN54@OnPickoutD

; 2128 : 		year = nValue / 12;

  00092	b8 ab aa aa 2a	 mov	 eax, 715827883		; 2aaaaaabH
  00097	f7 ee		 imul	 esi
  00099	d1 fa		 sar	 edx, 1
  0009b	8b ca		 mov	 ecx, edx
  0009d	c1 e9 1f	 shr	 ecx, 31			; 0000001fH
  000a0	03 ca		 add	 ecx, edx
  000a2	eb 02		 jmp	 SHORT $LN55@OnPickoutD
$LN54@OnPickoutD:

; 2129 : 	else
; 2130 : 		year = 0;

  000a4	33 c9		 xor	 ecx, ecx
$LN55@OnPickoutD:

; 2131 : 
; 2132 : 	return (mon != 0 || year != 0);

  000a6	8b 45 14	 mov	 eax, DWORD PTR _year$[ebp]
  000a9	89 08		 mov	 DWORD PTR [eax], ecx
  000ab	83 3f 00	 cmp	 DWORD PTR [edi], 0
  000ae	0f 85 05 01 00
	00		 jne	 $LN40@OnPickoutD
  000b4	85 c9		 test	 ecx, ecx
  000b6	0f 85 fd 00 00
	00		 jne	 $LN40@OnPickoutD
$LN62@OnPickoutD:

; 2064 : 	case 2:	//
; 2065 : 		return OnPickoutWeekley(nValue, strFormat, year, mon, day);
; 2066 : 	case 3:	//
; 2067 : 		return OnPickoutMonthly(nValue, strFormat, year, mon, day);
; 2068 : 	}
; 2069 : 
; 2070 : 	return false;
; 2071 : }

  000bc	32 c0		 xor	 al, al
  000be	8b 4d f4	 mov	 ecx, DWORD PTR __$EHRec$[ebp]
  000c1	64 89 0d 00 00
	00 00		 mov	 DWORD PTR fs:0, ecx
  000c8	59		 pop	 ecx
  000c9	5f		 pop	 edi
  000ca	5e		 pop	 esi
  000cb	5b		 pop	 ebx
  000cc	8b e5		 mov	 esp, ebp
  000ce	5d		 pop	 ebp
  000cf	c3		 ret	 0
$LN5@OnPickoutD:

; 2098 : 	if(strFormat.Right(1) == 'D')

  000d0	8b 5d 0c	 mov	 ebx, DWORD PTR _strFormat$[ebp]
  000d3	8d 45 10	 lea	 eax, DWORD PTR $T3[ebp]
  000d6	6a 01		 push	 1
  000d8	50		 push	 eax
  000d9	8b cb		 mov	 ecx, ebx
  000db	ff 15 00 00 00
	00		 call	 DWORD PTR __imp_?Right@?$CStringT@DV?$StrTraitMFC_DLL@DV?$ChTraitsCRT@D@ATL@@@@@ATL@@QBE?AV12@H@Z
; File C:\Program Files (x86)\Microsoft Visual Studio\2019\Community\VC\Tools\MSVC\14.29.30133\atlmfc\include\cstringt.h

; 2510 : 		return((str1.GetLength() == 1) && (str1[0] == ch2));

  000e1	8b 08		 mov	 ecx, DWORD PTR [eax]
  000e3	83 79 f4 01	 cmp	 DWORD PTR [ecx-12], 1
  000e7	75 2c		 jne	 SHORT $LN45@OnPickoutD
  000e9	6a 00		 push	 0
  000eb	8b c8		 mov	 ecx, eax
  000ed	ff 15 00 00 00
	00		 call	 DWORD PTR __imp_??A?$CSimpleStringT@D$00@ATL@@QBEDH@Z
  000f3	3c 44		 cmp	 al, 68			; 00000044H
  000f5	75 1e		 jne	 SHORT $LN45@OnPickoutD
  000f7	8d 4d 10	 lea	 ecx, DWORD PTR $T3[ebp]
  000fa	ff 15 00 00 00
	00		 call	 DWORD PTR __imp_??1?$CStringT@DV?$StrTraitMFC_DLL@DV?$ChTraitsCRT@D@ATL@@@@@ATL@@QAE@XZ
  00100	8d 3c f5 00 00
	00 00		 lea	 edi, DWORD PTR [esi*8]
; File D:\git\src\IBK\IBK_DRFN\ProjSrc\SrcDrfn\Chart\chart_common\DataList\Conversion.cpp

; 2099 : 		day = (nValue * 7) % 30;

  00107	b9 1e 00 00 00	 mov	 ecx, 30			; 0000001eH
; File C:\Program Files (x86)\Microsoft Visual Studio\2019\Community\VC\Tools\MSVC\14.29.30133\atlmfc\include\cstringt.h

; 2510 : 		return((str1.GetLength() == 1) && (str1[0] == ch2));

  0010c	2b fe		 sub	 edi, esi
; File D:\git\src\IBK\IBK_DRFN\ProjSrc\SrcDrfn\Chart\chart_common\DataList\Conversion.cpp

; 2099 : 		day = (nValue * 7) % 30;

  0010e	8b c7		 mov	 eax, edi
  00110	99		 cdq
  00111	f7 f9		 idiv	 ecx
  00113	eb 14		 jmp	 SHORT $LN34@OnPickoutD
$LN45@OnPickoutD:
; File C:\Program Files (x86)\Microsoft Visual Studio\2019\Community\VC\Tools\MSVC\14.29.30133\atlmfc\include\cstringt.h

; 2510 : 		return((str1.GetLength() == 1) && (str1[0] == ch2));

  00115	8d 4d 10	 lea	 ecx, DWORD PTR $T3[ebp]
  00118	ff 15 00 00 00
	00		 call	 DWORD PTR __imp_??1?$CStringT@DV?$StrTraitMFC_DLL@DV?$ChTraitsCRT@D@ATL@@@@@ATL@@QAE@XZ
  0011e	8d 3c f5 00 00
	00 00		 lea	 edi, DWORD PTR [esi*8]
  00125	2b fe		 sub	 edi, esi
; File D:\git\src\IBK\IBK_DRFN\ProjSrc\SrcDrfn\Chart\chart_common\DataList\Conversion.cpp

; 2101 : 		day = 0;

  00127	33 d2		 xor	 edx, edx
$LN34@OnPickoutD:

; 2102 : 
; 2103 : 	if(strFormat.Find('M') >= 0)

  00129	8b 45 1c	 mov	 eax, DWORD PTR _day$[ebp]
  0012c	8b cb		 mov	 ecx, ebx
  0012e	6a 00		 push	 0
  00130	6a 4d		 push	 77			; 0000004dH
  00132	89 10		 mov	 DWORD PTR [eax], edx
  00134	ff 15 00 00 00
	00		 call	 DWORD PTR __imp_?Find@?$CStringT@DV?$StrTraitMFC_DLL@DV?$ChTraitsCRT@D@ATL@@@@@ATL@@QBEHDH@Z
  0013a	85 c0		 test	 eax, eax
  0013c	78 15		 js	 SHORT $LN35@OnPickoutD

; 2104 : 		mon = (nValue * 7) / 30;

  0013e	b8 89 88 88 88	 mov	 eax, -2004318071	; 88888889H
  00143	f7 ef		 imul	 edi
  00145	03 d7		 add	 edx, edi
  00147	c1 fa 04	 sar	 edx, 4
  0014a	8b c2		 mov	 eax, edx
  0014c	c1 e8 1f	 shr	 eax, 31			; 0000001fH
  0014f	03 c2		 add	 eax, edx
  00151	eb 02		 jmp	 SHORT $LN36@OnPickoutD
$LN35@OnPickoutD:

; 2105 : 	else
; 2106 : 		mon = 0;

  00153	33 c0		 xor	 eax, eax
$LN36@OnPickoutD:

; 2107 : 
; 2108 : 	if(strFormat.Find('Y') >= 0){

  00155	8b 75 18	 mov	 esi, DWORD PTR _mon$[ebp]
  00158	8b cb		 mov	 ecx, ebx
  0015a	6a 00		 push	 0
  0015c	6a 59		 push	 89			; 00000059H
  0015e	89 06		 mov	 DWORD PTR [esi], eax
  00160	ff 15 00 00 00
	00		 call	 DWORD PTR __imp_?Find@?$CStringT@DV?$StrTraitMFC_DLL@DV?$ChTraitsCRT@D@ATL@@@@@ATL@@QBEHDH@Z
  00166	8b 4d 14	 mov	 ecx, DWORD PTR _year$[ebp]
  00169	85 c0		 test	 eax, eax
  0016b	78 20		 js	 SHORT $LN37@OnPickoutD

; 2109 : 		year = mon / 12;

  0016d	b8 ab aa aa 2a	 mov	 eax, 715827883		; 2aaaaaabH

; 2110 : 		mon = mon % 12;

  00172	bf 0c 00 00 00	 mov	 edi, 12			; 0000000cH
  00177	f7 2e		 imul	 DWORD PTR [esi]
  00179	d1 fa		 sar	 edx, 1
  0017b	8b c2		 mov	 eax, edx
  0017d	c1 e8 1f	 shr	 eax, 31			; 0000001fH
  00180	03 c2		 add	 eax, edx
  00182	89 01		 mov	 DWORD PTR [ecx], eax
  00184	8b 06		 mov	 eax, DWORD PTR [esi]
  00186	99		 cdq
  00187	f7 ff		 idiv	 edi
  00189	89 16		 mov	 DWORD PTR [esi], edx

; 2111 : 	}

  0018b	eb 06		 jmp	 SHORT $LN38@OnPickoutD
$LN37@OnPickoutD:

; 2112 : 	else
; 2113 : 		year = 0;

  0018d	c7 01 00 00 00
	00		 mov	 DWORD PTR [ecx], 0
$LN38@OnPickoutD:

; 2114 : 
; 2115 : 	return (day != 0 || mon != 0 || year != 0);

  00193	8b 45 1c	 mov	 eax, DWORD PTR _day$[ebp]
  00196	83 38 00	 cmp	 DWORD PTR [eax], 0
  00199	75 1e		 jne	 SHORT $LN40@OnPickoutD
  0019b	83 3e 00	 cmp	 DWORD PTR [esi], 0
  0019e	75 19		 jne	 SHORT $LN40@OnPickoutD
  001a0	83 39 00	 cmp	 DWORD PTR [ecx], 0
  001a3	75 14		 jne	 SHORT $LN40@OnPickoutD
  001a5	32 c0		 xor	 al, al

; 2064 : 	case 2:	//
; 2065 : 		return OnPickoutWeekley(nValue, strFormat, year, mon, day);
; 2066 : 	case 3:	//
; 2067 : 		return OnPickoutMonthly(nValue, strFormat, year, mon, day);
; 2068 : 	}
; 2069 : 
; 2070 : 	return false;
; 2071 : }

  001a7	8b 4d f4	 mov	 ecx, DWORD PTR __$EHRec$[ebp]
  001aa	64 89 0d 00 00
	00 00		 mov	 DWORD PTR fs:0, ecx
  001b1	59		 pop	 ecx
  001b2	5f		 pop	 edi
  001b3	5e		 pop	 esi
  001b4	5b		 pop	 ebx
  001b5	8b e5		 mov	 esp, ebp
  001b7	5d		 pop	 ebp
  001b8	c3		 ret	 0
$LN40@OnPickoutD:
  001b9	b0 01		 mov	 al, 1
  001bb	8b 4d f4	 mov	 ecx, DWORD PTR __$EHRec$[ebp]
  001be	64 89 0d 00 00
	00 00		 mov	 DWORD PTR fs:0, ecx
  001c5	59		 pop	 ecx
  001c6	5f		 pop	 edi
  001c7	5e		 pop	 esi
  001c8	5b		 pop	 ebx
  001c9	8b e5		 mov	 esp, ebp
  001cb	5d		 pop	 ebp
  001cc	c3		 ret	 0
$LN4@OnPickoutD:
; File C:\Program Files (x86)\Microsoft Visual Studio\2019\Community\VC\Tools\MSVC\14.29.30133\atlmfc\include\atlsimpstr.h

; 519  : 		return( GetData()->nDataLength );

  001cd	8b 7d 0c	 mov	 edi, DWORD PTR _strFormat$[ebp]
  001d0	8b 07		 mov	 eax, DWORD PTR [edi]
; File D:\git\src\IBK\IBK_DRFN\ProjSrc\SrcDrfn\Chart\chart_common\DataList\Conversion.cpp

; 2075 : 	CString strValue = IntToString(nValue, strFormat.GetLength());

  001d2	ff 70 f4	 push	 DWORD PTR [eax-12]
  001d5	8d 45 f0	 lea	 eax, DWORD PTR _strValue$2[ebp]
  001d8	56		 push	 esi
  001d9	50		 push	 eax
  001da	e8 00 00 00 00	 call	 ?IntToString@CDataConversion@@SA?AV?$CStringT@DV?$StrTraitMFC_DLL@DV?$ChTraitsCRT@D@ATL@@@@@ATL@@HH@Z ; CDataConversion::IntToString
  001df	83 c4 0c	 add	 esp, 12			; 0000000cH

; 2076 : 	if(strFormat.Right(1) == 'D')

  001e2	6a 01		 push	 1
  001e4	8d 45 10	 lea	 eax, DWORD PTR $T4[ebp]
  001e7	c7 45 fc 00 00
	00 00		 mov	 DWORD PTR __$EHRec$[ebp+8], 0
  001ee	50		 push	 eax
  001ef	8b cf		 mov	 ecx, edi
  001f1	ff 15 00 00 00
	00		 call	 DWORD PTR __imp_?Right@?$CStringT@DV?$StrTraitMFC_DLL@DV?$ChTraitsCRT@D@ATL@@@@@ATL@@QBE?AV12@H@Z
; File C:\Program Files (x86)\Microsoft Visual Studio\2019\Community\VC\Tools\MSVC\14.29.30133\atlmfc\include\cstringt.h

; 2510 : 		return((str1.GetLength() == 1) && (str1[0] == ch2));

  001f7	8b 08		 mov	 ecx, DWORD PTR [eax]
  001f9	83 79 f4 01	 cmp	 DWORD PTR [ecx-12], 1
  001fd	75 39		 jne	 SHORT $LN26@OnPickoutD
  001ff	6a 00		 push	 0
  00201	8b c8		 mov	 ecx, eax
  00203	ff 15 00 00 00
	00		 call	 DWORD PTR __imp_??A?$CSimpleStringT@D$00@ATL@@QBEDH@Z
  00209	3c 44		 cmp	 al, 68			; 00000044H
  0020b	75 2b		 jne	 SHORT $LN26@OnPickoutD
  0020d	8d 4d 10	 lea	 ecx, DWORD PTR $T4[ebp]
  00210	ff 15 00 00 00
	00		 call	 DWORD PTR __imp_??1?$CStringT@DV?$StrTraitMFC_DLL@DV?$ChTraitsCRT@D@ATL@@@@@ATL@@QAE@XZ
; File D:\git\src\IBK\IBK_DRFN\ProjSrc\SrcDrfn\Chart\chart_common\DataList\Conversion.cpp

; 2077 : 		day = nValue % 30;

  00216	b8 89 88 88 88	 mov	 eax, -2004318071	; 88888889H
  0021b	f7 ee		 imul	 esi
  0021d	03 d6		 add	 edx, esi
  0021f	c1 fa 04	 sar	 edx, 4
  00222	8b ca		 mov	 ecx, edx
  00224	c1 e9 1f	 shr	 ecx, 31			; 0000001fH
  00227	03 ca		 add	 ecx, edx
  00229	8b c1		 mov	 eax, ecx
  0022b	c1 e0 04	 shl	 eax, 4
  0022e	2b c1		 sub	 eax, ecx
  00230	8b ce		 mov	 ecx, esi
  00232	03 c0		 add	 eax, eax
  00234	2b c8		 sub	 ecx, eax
  00236	eb 0b		 jmp	 SHORT $LN10@OnPickoutD
$LN26@OnPickoutD:
; File C:\Program Files (x86)\Microsoft Visual Studio\2019\Community\VC\Tools\MSVC\14.29.30133\atlmfc\include\cstringt.h

; 2510 : 		return((str1.GetLength() == 1) && (str1[0] == ch2));

  00238	8d 4d 10	 lea	 ecx, DWORD PTR $T4[ebp]
  0023b	ff 15 00 00 00
	00		 call	 DWORD PTR __imp_??1?$CStringT@DV?$StrTraitMFC_DLL@DV?$ChTraitsCRT@D@ATL@@@@@ATL@@QAE@XZ
; File D:\git\src\IBK\IBK_DRFN\ProjSrc\SrcDrfn\Chart\chart_common\DataList\Conversion.cpp

; 2079 : 		day = 0;

  00241	33 c9		 xor	 ecx, ecx
$LN10@OnPickoutD:

; 2080 : 
; 2081 : 	if(strFormat.Find('M') >= 0)

  00243	8b 5d 1c	 mov	 ebx, DWORD PTR _day$[ebp]
  00246	6a 00		 push	 0
  00248	6a 4d		 push	 77			; 0000004dH
  0024a	89 0b		 mov	 DWORD PTR [ebx], ecx
  0024c	8b cf		 mov	 ecx, edi
  0024e	ff 15 00 00 00
	00		 call	 DWORD PTR __imp_?Find@?$CStringT@DV?$StrTraitMFC_DLL@DV?$ChTraitsCRT@D@ATL@@@@@ATL@@QBEHDH@Z
  00254	85 c0		 test	 eax, eax
  00256	78 15		 js	 SHORT $LN11@OnPickoutD

; 2082 : 		mon = nValue / 30;

  00258	b8 89 88 88 88	 mov	 eax, -2004318071	; 88888889H
  0025d	f7 ee		 imul	 esi
  0025f	03 d6		 add	 edx, esi
  00261	c1 fa 04	 sar	 edx, 4
  00264	8b c2		 mov	 eax, edx
  00266	c1 e8 1f	 shr	 eax, 31			; 0000001fH
  00269	03 c2		 add	 eax, edx
  0026b	eb 02		 jmp	 SHORT $LN12@OnPickoutD
$LN11@OnPickoutD:

; 2083 : 	else
; 2084 : 		mon = 0;

  0026d	33 c0		 xor	 eax, eax
$LN12@OnPickoutD:

; 2085 : 
; 2086 : 	if(strFormat.Find('Y') >= 0){

  0026f	8b 75 18	 mov	 esi, DWORD PTR _mon$[ebp]
  00272	8b cf		 mov	 ecx, edi
  00274	6a 00		 push	 0
  00276	6a 59		 push	 89			; 00000059H
  00278	89 06		 mov	 DWORD PTR [esi], eax
  0027a	ff 15 00 00 00
	00		 call	 DWORD PTR __imp_?Find@?$CStringT@DV?$StrTraitMFC_DLL@DV?$ChTraitsCRT@D@ATL@@@@@ATL@@QBEHDH@Z
  00280	8b 4d 14	 mov	 ecx, DWORD PTR _year$[ebp]
  00283	85 c0		 test	 eax, eax
  00285	78 20		 js	 SHORT $LN13@OnPickoutD

; 2087 : 		year = mon / 12;

  00287	b8 ab aa aa 2a	 mov	 eax, 715827883		; 2aaaaaabH

; 2088 : 		mon = mon % 12;

  0028c	bf 0c 00 00 00	 mov	 edi, 12			; 0000000cH
  00291	f7 2e		 imul	 DWORD PTR [esi]
  00293	d1 fa		 sar	 edx, 1
  00295	8b c2		 mov	 eax, edx
  00297	c1 e8 1f	 shr	 eax, 31			; 0000001fH
  0029a	03 c2		 add	 eax, edx
  0029c	89 01		 mov	 DWORD PTR [ecx], eax
  0029e	8b 06		 mov	 eax, DWORD PTR [esi]
  002a0	99		 cdq
  002a1	f7 ff		 idiv	 edi
  002a3	89 16		 mov	 DWORD PTR [esi], edx

; 2089 : 	}

  002a5	eb 06		 jmp	 SHORT $LN14@OnPickoutD
$LN13@OnPickoutD:

; 2090 : 	else
; 2091 : 		year = 0;

  002a7	c7 01 00 00 00
	00		 mov	 DWORD PTR [ecx], 0
$LN14@OnPickoutD:

; 2092 : 
; 2093 : 	return (day != 0 || mon != 0 || year != 0);

  002ad	83 3b 00	 cmp	 DWORD PTR [ebx], 0
  002b0	75 0e		 jne	 SHORT $LN16@OnPickoutD
  002b2	83 3e 00	 cmp	 DWORD PTR [esi], 0
  002b5	75 09		 jne	 SHORT $LN16@OnPickoutD
  002b7	83 39 00	 cmp	 DWORD PTR [ecx], 0
  002ba	75 04		 jne	 SHORT $LN16@OnPickoutD
  002bc	32 db		 xor	 bl, bl
  002be	eb 02		 jmp	 SHORT $LN17@OnPickoutD
$LN16@OnPickoutD:
  002c0	b3 01		 mov	 bl, 1
$LN17@OnPickoutD:
  002c2	8d 4d f0	 lea	 ecx, DWORD PTR _strValue$2[ebp]
  002c5	ff 15 00 00 00
	00		 call	 DWORD PTR __imp_??1?$CStringT@DV?$StrTraitMFC_DLL@DV?$ChTraitsCRT@D@ATL@@@@@ATL@@QAE@XZ

; 2062 : 	case 1:	//
; 2063 : 		return OnPickoutDaily(nValue, strFormat, year, mon, day);

  002cb	8a c3		 mov	 al, bl

; 2064 : 	case 2:	//
; 2065 : 		return OnPickoutWeekley(nValue, strFormat, year, mon, day);
; 2066 : 	case 3:	//
; 2067 : 		return OnPickoutMonthly(nValue, strFormat, year, mon, day);
; 2068 : 	}
; 2069 : 
; 2070 : 	return false;
; 2071 : }

  002cd	8b 4d f4	 mov	 ecx, DWORD PTR __$EHRec$[ebp]
  002d0	64 89 0d 00 00
	00 00		 mov	 DWORD PTR fs:0, ecx
  002d7	59		 pop	 ecx
  002d8	5f		 pop	 edi
  002d9	5e		 pop	 esi
  002da	5b		 pop	 ebx
  002db	8b e5		 mov	 esp, ebp
  002dd	5d		 pop	 ebp
  002de	c3		 ret	 0
_TEXT	ENDS
;	COMDAT text$x
text$x	SEGMENT
__unwindfunclet$?OnPickoutDate@CDataConversion@@CA_NHABV?$CStringT@DV?$StrTraitMFC_DLL@DV?$ChTraitsCRT@D@ATL@@@@@ATL@@HAAH11@Z$0:
  00000	8d 4d f0	 lea	 ecx, DWORD PTR _strValue$2[ebp]
  00003	ff 25 00 00 00
	00		 jmp	 DWORD PTR __imp_??1?$CStringT@DV?$StrTraitMFC_DLL@DV?$ChTraitsCRT@D@ATL@@@@@ATL@@QAE@XZ
  00009	cc		 int	 3
  0000a	cc		 int	 3
  0000b	cc		 int	 3
  0000c	cc		 int	 3
  0000d	cc		 int	 3
__ehhandler$?OnPickoutDate@CDataConversion@@CA_NHABV?$CStringT@DV?$StrTraitMFC_DLL@DV?$ChTraitsCRT@D@ATL@@@@@ATL@@HAAH11@Z:
  0000e	90		 npad	 1
  0000f	90		 npad	 1
  00010	8b 54 24 08	 mov	 edx, DWORD PTR [esp+8]
  00014	8d 42 0c	 lea	 eax, DWORD PTR [edx+12]
  00017	8b 4a ec	 mov	 ecx, DWORD PTR [edx-20]
  0001a	33 c8		 xor	 ecx, eax
  0001c	e8 00 00 00 00	 call	 @__security_check_cookie@4
  00021	b8 00 00 00 00	 mov	 eax, OFFSET __ehfuncinfo$?OnPickoutDate@CDataConversion@@CA_NHABV?$CStringT@DV?$StrTraitMFC_DLL@DV?$ChTraitsCRT@D@ATL@@@@@ATL@@HAAH11@Z
  00026	e9 00 00 00 00	 jmp	 ___CxxFrameHandler3
text$x	ENDS
?OnPickoutDate@CDataConversion@@CA_NHABV?$CStringT@DV?$StrTraitMFC_DLL@DV?$ChTraitsCRT@D@ATL@@@@@ATL@@HAAH11@Z ENDP ; CDataConversion::OnPickoutDate
; Function compile flags: /Ogtp
; File D:\git\src\IBK\IBK_DRFN\ProjSrc\SrcDrfn\Chart\chart_common\DataList\Conversion.cpp
; File C:\Program Files (x86)\Microsoft Visual Studio\2019\Community\VC\Tools\MSVC\14.29.30133\atlmfc\include\atlsimpstr.h
; File C:\Program Files (x86)\Microsoft Visual Studio\2019\Community\VC\Tools\MSVC\14.29.30133\atlmfc\include\cstringt.h
; File D:\git\src\IBK\IBK_DRFN\ProjSrc\SrcDrfn\Chart\chart_common\DataList\Conversion.cpp
; File C:\Program Files (x86)\Microsoft Visual Studio\2019\Community\VC\Tools\MSVC\14.29.30133\atlmfc\include\cstringt.h
; File D:\git\src\IBK\IBK_DRFN\ProjSrc\SrcDrfn\Chart\chart_common\DataList\Conversion.cpp
; File C:\Program Files (x86)\Microsoft Visual Studio\2019\Community\VC\Tools\MSVC\14.29.30133\atlmfc\include\cstringt.h
; File D:\git\src\IBK\IBK_DRFN\ProjSrc\SrcDrfn\Chart\chart_common\DataList\Conversion.cpp
; File C:\Program Files (x86)\Microsoft Visual Studio\2019\Community\VC\Tools\MSVC\14.29.30133\atlmfc\include\cstringt.h
; File D:\git\src\IBK\IBK_DRFN\ProjSrc\SrcDrfn\Chart\chart_common\DataList\Conversion.cpp
; File C:\Program Files (x86)\Microsoft Visual Studio\2019\Community\VC\Tools\MSVC\14.29.30133\atlmfc\include\cstringt.h
; File D:\git\src\IBK\IBK_DRFN\ProjSrc\SrcDrfn\Chart\chart_common\DataList\Conversion.cpp
; File C:\Program Files (x86)\Microsoft Visual Studio\2019\Community\VC\Tools\MSVC\14.29.30133\atlmfc\include\cstringt.h
; File D:\git\src\IBK\IBK_DRFN\ProjSrc\SrcDrfn\Chart\chart_common\DataList\Conversion.cpp
; File C:\Program Files (x86)\Microsoft Visual Studio\2019\Community\VC\Tools\MSVC\14.29.30133\atlmfc\include\cstringt.h
; File D:\git\src\IBK\IBK_DRFN\ProjSrc\SrcDrfn\Chart\chart_common\DataList\Conversion.cpp
; File C:\Program Files (x86)\Microsoft Visual Studio\2019\Community\VC\Tools\MSVC\14.29.30133\atlmfc\include\cstringt.h
; File D:\git\src\IBK\IBK_DRFN\ProjSrc\SrcDrfn\Chart\chart_common\DataList\Conversion.cpp
; File C:\Program Files (x86)\Microsoft Visual Studio\2019\Community\VC\Tools\MSVC\14.29.30133\atlmfc\include\cstringt.h
; File D:\git\src\IBK\IBK_DRFN\ProjSrc\SrcDrfn\Chart\chart_common\DataList\Conversion.cpp
; File C:\Program Files (x86)\Microsoft Visual Studio\2019\Community\VC\Tools\MSVC\14.29.30133\atlmfc\include\cstringt.h
; File D:\git\src\IBK\IBK_DRFN\ProjSrc\SrcDrfn\Chart\chart_common\DataList\Conversion.cpp
;	COMDAT ?OnPickoutTime@CDataConversion@@CA_NHHABV?$CStringT@DV?$StrTraitMFC_DLL@DV?$ChTraitsCRT@D@ATL@@@@@ATL@@HAAH1111@Z
_TEXT	SEGMENT
__$EHRec$ = -12						; size = 12
_nCurData$ = 8						; size = 4
_nCharge$ = 12						; size = 4
_strFormat$ = 16					; size = 4
_nInterval$ = 20					; size = 4
_mon$ = 24						; size = 4
_day$ = 28						; size = 4
$T2 = 32						; size = 4
_hour$ = 32						; size = 4
$T3 = 36						; size = 4
$T4 = 36						; size = 4
$T5 = 36						; size = 4
_min$ = 36						; size = 4
_sec$ = 40						; size = 4
?OnPickoutTime@CDataConversion@@CA_NHHABV?$CStringT@DV?$StrTraitMFC_DLL@DV?$ChTraitsCRT@D@ATL@@@@@ATL@@HAAH1111@Z PROC ; CDataConversion::OnPickoutTime, COMDAT

; 2005 : {

  00000	55		 push	 ebp
  00001	8b ec		 mov	 ebp, esp
  00003	6a ff		 push	 -1
  00005	68 00 00 00 00	 push	 __ehhandler$?OnPickoutTime@CDataConversion@@CA_NHHABV?$CStringT@DV?$StrTraitMFC_DLL@DV?$ChTraitsCRT@D@ATL@@@@@ATL@@HAAH1111@Z
  0000a	64 a1 00 00 00
	00		 mov	 eax, DWORD PTR fs:0
  00010	50		 push	 eax
  00011	53		 push	 ebx
  00012	56		 push	 esi
  00013	57		 push	 edi
  00014	a1 00 00 00 00	 mov	 eax, DWORD PTR ___security_cookie
  00019	33 c5		 xor	 eax, ebp
  0001b	50		 push	 eax
  0001c	8d 45 f4	 lea	 eax, DWORD PTR __$EHRec$[ebp]
  0001f	64 a3 00 00 00
	00		 mov	 DWORD PTR fs:0, eax

; 2006 : 	mon = day = hour = min = sec = 0;

  00025	8b 45 28	 mov	 eax, DWORD PTR _sec$[ebp]
  00028	8b 7d 24	 mov	 edi, DWORD PTR _min$[ebp]
  0002b	8b 5d 20	 mov	 ebx, DWORD PTR _hour$[ebp]
  0002e	c7 00 00 00 00
	00		 mov	 DWORD PTR [eax], 0
  00034	8b 45 1c	 mov	 eax, DWORD PTR _day$[ebp]
  00037	c7 07 00 00 00
	00		 mov	 DWORD PTR [edi], 0
  0003d	c7 03 00 00 00
	00		 mov	 DWORD PTR [ebx], 0
  00043	c7 00 00 00 00
	00		 mov	 DWORD PTR [eax], 0
  00049	8b 45 18	 mov	 eax, DWORD PTR _mon$[ebp]
  0004c	c7 00 00 00 00
	00		 mov	 DWORD PTR [eax], 0

; 2007 : 
; 2008 : 	if(nCharge <= 0)

  00052	8b 45 0c	 mov	 eax, DWORD PTR _nCharge$[ebp]
  00055	85 c0		 test	 eax, eax
  00057	0f 8e db 01 00
	00		 jle	 $LN63@OnPickoutT

; 2012 : 	if(strFormat.Right(1) == 'D' || strFormat.Find('Y') >= 0)

  0005d	8b 75 10	 mov	 esi, DWORD PTR _strFormat$[ebp]
  00060	8d 45 24	 lea	 eax, DWORD PTR $T5[ebp]
  00063	6a 01		 push	 1
  00065	50		 push	 eax
  00066	8b ce		 mov	 ecx, esi
  00068	ff 15 00 00 00
	00		 call	 DWORD PTR __imp_?Right@?$CStringT@DV?$StrTraitMFC_DLL@DV?$ChTraitsCRT@D@ATL@@@@@ATL@@QBE?AV12@H@Z
; File C:\Program Files (x86)\Microsoft Visual Studio\2019\Community\VC\Tools\MSVC\14.29.30133\atlmfc\include\atlsimpstr.h

; 519  : 		return( GetData()->nDataLength );

  0006e	8b 08		 mov	 ecx, DWORD PTR [eax]
; File C:\Program Files (x86)\Microsoft Visual Studio\2019\Community\VC\Tools\MSVC\14.29.30133\atlmfc\include\cstringt.h

; 2510 : 		return((str1.GetLength() == 1) && (str1[0] == ch2));

  00070	83 79 f4 01	 cmp	 DWORD PTR [ecx-12], 1
  00074	75 12		 jne	 SHORT $LN34@OnPickoutT
  00076	6a 00		 push	 0
  00078	8b c8		 mov	 ecx, eax
  0007a	ff 15 00 00 00
	00		 call	 DWORD PTR __imp_??A?$CSimpleStringT@D$00@ATL@@QBEDH@Z
  00080	3c 44		 cmp	 al, 68			; 00000044H
  00082	0f 84 a7 01 00
	00		 je	 $LN22@OnPickoutT
$LN34@OnPickoutT:
; File D:\git\src\IBK\IBK_DRFN\ProjSrc\SrcDrfn\Chart\chart_common\DataList\Conversion.cpp

; 2012 : 	if(strFormat.Right(1) == 'D' || strFormat.Find('Y') >= 0)

  00088	6a 00		 push	 0
  0008a	6a 59		 push	 89			; 00000059H
  0008c	8b ce		 mov	 ecx, esi
  0008e	ff 15 00 00 00
	00		 call	 DWORD PTR __imp_?Find@?$CStringT@DV?$StrTraitMFC_DLL@DV?$ChTraitsCRT@D@ATL@@@@@ATL@@QBEHDH@Z
  00094	85 c0		 test	 eax, eax
  00096	0f 89 93 01 00
	00		 jns	 $LN22@OnPickoutT
  0009c	8d 4d 24	 lea	 ecx, DWORD PTR $T5[ebp]
  0009f	ff 15 00 00 00
	00		 call	 DWORD PTR __imp_??1?$CStringT@DV?$StrTraitMFC_DLL@DV?$ChTraitsCRT@D@ATL@@@@@ATL@@QAE@XZ

; 2016 : 	if(strFormat.Right(1) == "S") {// 

  000a5	6a 01		 push	 1
  000a7	8d 45 24	 lea	 eax, DWORD PTR $T4[ebp]
  000aa	8b ce		 mov	 ecx, esi
  000ac	50		 push	 eax
  000ad	ff 15 00 00 00
	00		 call	 DWORD PTR __imp_?Right@?$CStringT@DV?$StrTraitMFC_DLL@DV?$ChTraitsCRT@D@ATL@@@@@ATL@@QBE?AV12@H@Z
; File C:\Program Files (x86)\Microsoft Visual Studio\2019\Community\VC\Tools\MSVC\14.29.30133\atlmfc\include\cstringt.h

; 2486 : 		return(str1.Compare(psz2) == 0);

  000b3	68 00 00 00 00	 push	 OFFSET ??_C@_01CPLAODJH@S@
  000b8	8b c8		 mov	 ecx, eax
; File D:\git\src\IBK\IBK_DRFN\ProjSrc\SrcDrfn\Chart\chart_common\DataList\Conversion.cpp

; 2016 : 	if(strFormat.Right(1) == "S") {// 

  000ba	c7 45 fc 00 00
	00 00		 mov	 DWORD PTR __$EHRec$[ebp+8], 0
; File C:\Program Files (x86)\Microsoft Visual Studio\2019\Community\VC\Tools\MSVC\14.29.30133\atlmfc\include\cstringt.h

; 2486 : 		return(str1.Compare(psz2) == 0);

  000c1	ff 15 00 00 00
	00		 call	 DWORD PTR __imp_?Compare@?$CStringT@DV?$StrTraitMFC_DLL@DV?$ChTraitsCRT@D@ATL@@@@@ATL@@QBEHPBD@Z
; File D:\git\src\IBK\IBK_DRFN\ProjSrc\SrcDrfn\Chart\chart_common\DataList\Conversion.cpp

; 2016 : 	if(strFormat.Right(1) == "S") {// 

  000c7	8d 4d 24	 lea	 ecx, DWORD PTR $T4[ebp]
  000ca	c7 45 fc ff ff
	ff ff		 mov	 DWORD PTR __$EHRec$[ebp+8], -1
; File C:\Program Files (x86)\Microsoft Visual Studio\2019\Community\VC\Tools\MSVC\14.29.30133\atlmfc\include\cstringt.h

; 2486 : 		return(str1.Compare(psz2) == 0);

  000d1	8b f0		 mov	 esi, eax
; File D:\git\src\IBK\IBK_DRFN\ProjSrc\SrcDrfn\Chart\chart_common\DataList\Conversion.cpp

; 2016 : 	if(strFormat.Right(1) == "S") {// 

  000d3	ff 15 00 00 00
	00		 call	 DWORD PTR __imp_??1?$CStringT@DV?$StrTraitMFC_DLL@DV?$ChTraitsCRT@D@ATL@@@@@ATL@@QAE@XZ
  000d9	85 f6		 test	 esi, esi
  000db	75 3a		 jne	 SHORT $LN12@OnPickoutT

; 2017 : 		int nMin = 0;
; 2018 : 		//
; 2019 : 		if(nInterval >= 100) {

  000dd	8b 4d 14	 mov	 ecx, DWORD PTR _nInterval$[ebp]
  000e0	83 f9 64	 cmp	 ecx, 100		; 00000064H
  000e3	7c 22		 jl	 SHORT $LN14@OnPickoutT

; 2020 : 			nMin = (nInterval / 100);

  000e5	b8 1f 85 eb 51	 mov	 eax, 1374389535		; 51eb851fH
  000ea	f7 e1		 mul	 ecx

; 2025 : 	}

  000ec	8b 4d 28	 mov	 ecx, DWORD PTR _sec$[ebp]
  000ef	c1 ea 05	 shr	 edx, 5
  000f2	0f af 55 0c	 imul	 edx, DWORD PTR _nCharge$[ebp]
  000f6	8b c2		 mov	 eax, edx
  000f8	c1 e0 04	 shl	 eax, 4
  000fb	2b c2		 sub	 eax, edx
  000fd	c1 e0 02	 shl	 eax, 2
  00100	89 01		 mov	 DWORD PTR [ecx], eax
  00102	e9 b2 00 00 00	 jmp	 $LN46@OnPickoutT
$LN14@OnPickoutT:

; 2021 : 			sec = 60 * nCharge * nMin;
; 2022 : 		}
; 2023 : 		else
; 2024 : 			sec = nInterval * nCharge;

  00107	8b 45 0c	 mov	 eax, DWORD PTR _nCharge$[ebp]
  0010a	0f af c1	 imul	 eax, ecx

; 2025 : 	}

  0010d	8b 4d 28	 mov	 ecx, DWORD PTR _sec$[ebp]
  00110	89 01		 mov	 DWORD PTR [ecx], eax
  00112	e9 a2 00 00 00	 jmp	 $LN46@OnPickoutT
$LN12@OnPickoutT:

; 2026 : 	else if(strFormat.Right(1) == "M") {// 

  00117	8b 4d 10	 mov	 ecx, DWORD PTR _strFormat$[ebp]
  0011a	8d 45 24	 lea	 eax, DWORD PTR $T3[ebp]
  0011d	6a 01		 push	 1
  0011f	50		 push	 eax
  00120	ff 15 00 00 00
	00		 call	 DWORD PTR __imp_?Right@?$CStringT@DV?$StrTraitMFC_DLL@DV?$ChTraitsCRT@D@ATL@@@@@ATL@@QBE?AV12@H@Z
; File C:\Program Files (x86)\Microsoft Visual Studio\2019\Community\VC\Tools\MSVC\14.29.30133\atlmfc\include\cstringt.h

; 2486 : 		return(str1.Compare(psz2) == 0);

  00126	68 00 00 00 00	 push	 OFFSET ??_C@_01PLPBNMEI@M@
  0012b	8b c8		 mov	 ecx, eax
; File D:\git\src\IBK\IBK_DRFN\ProjSrc\SrcDrfn\Chart\chart_common\DataList\Conversion.cpp

; 2026 : 	else if(strFormat.Right(1) == "M") {// 

  0012d	c7 45 fc 01 00
	00 00		 mov	 DWORD PTR __$EHRec$[ebp+8], 1
; File C:\Program Files (x86)\Microsoft Visual Studio\2019\Community\VC\Tools\MSVC\14.29.30133\atlmfc\include\cstringt.h

; 2486 : 		return(str1.Compare(psz2) == 0);

  00134	ff 15 00 00 00
	00		 call	 DWORD PTR __imp_?Compare@?$CStringT@DV?$StrTraitMFC_DLL@DV?$ChTraitsCRT@D@ATL@@@@@ATL@@QBEHPBD@Z
; File D:\git\src\IBK\IBK_DRFN\ProjSrc\SrcDrfn\Chart\chart_common\DataList\Conversion.cpp

; 2026 : 	else if(strFormat.Right(1) == "M") {// 

  0013a	8d 4d 24	 lea	 ecx, DWORD PTR $T3[ebp]
  0013d	c7 45 fc ff ff
	ff ff		 mov	 DWORD PTR __$EHRec$[ebp+8], -1
; File C:\Program Files (x86)\Microsoft Visual Studio\2019\Community\VC\Tools\MSVC\14.29.30133\atlmfc\include\cstringt.h

; 2486 : 		return(str1.Compare(psz2) == 0);

  00144	8b f0		 mov	 esi, eax
; File D:\git\src\IBK\IBK_DRFN\ProjSrc\SrcDrfn\Chart\chart_common\DataList\Conversion.cpp

; 2026 : 	else if(strFormat.Right(1) == "M") {// 

  00146	ff 15 00 00 00
	00		 call	 DWORD PTR __imp_??1?$CStringT@DV?$StrTraitMFC_DLL@DV?$ChTraitsCRT@D@ATL@@@@@ATL@@QAE@XZ
  0014c	85 f6		 test	 esi, esi
  0014e	75 2e		 jne	 SHORT $LN16@OnPickoutT

; 2027 : 		int nhour = 0;
; 2028 : 		//
; 2029 : 		if(nInterval >= 100) {

  00150	8b 4d 14	 mov	 ecx, DWORD PTR _nInterval$[ebp]
  00153	83 f9 64	 cmp	 ecx, 100		; 00000064H
  00156	7c 1c		 jl	 SHORT $LN18@OnPickoutT

; 2030 : 			nhour = (nInterval / 100);

  00158	b8 1f 85 eb 51	 mov	 eax, 1374389535		; 51eb851fH
  0015d	f7 e1		 mul	 ecx
  0015f	c1 ea 05	 shr	 edx, 5

; 2031 : 			min = 60 * nCharge * nhour;

  00162	0f af 55 0c	 imul	 edx, DWORD PTR _nCharge$[ebp]
  00166	8b c2		 mov	 eax, edx
  00168	c1 e0 04	 shl	 eax, 4
  0016b	2b c2		 sub	 eax, edx
  0016d	c1 e0 02	 shl	 eax, 2

; 2035 : 	}

  00170	89 07		 mov	 DWORD PTR [edi], eax
  00172	eb 45		 jmp	 SHORT $LN46@OnPickoutT
$LN18@OnPickoutT:

; 2032 : 		}
; 2033 : 		else
; 2034 : 			min = nCharge * nInterval;

  00174	8b 45 0c	 mov	 eax, DWORD PTR _nCharge$[ebp]
  00177	0f af c1	 imul	 eax, ecx

; 2035 : 	}

  0017a	89 07		 mov	 DWORD PTR [edi], eax
  0017c	eb 3b		 jmp	 SHORT $LN46@OnPickoutT
$LN16@OnPickoutT:

; 2036 : 	else if(strFormat.Right(1) == "H") // 

  0017e	8b 4d 10	 mov	 ecx, DWORD PTR _strFormat$[ebp]
  00181	8d 45 20	 lea	 eax, DWORD PTR $T2[ebp]
  00184	6a 01		 push	 1
  00186	50		 push	 eax
  00187	ff 15 00 00 00
	00		 call	 DWORD PTR __imp_?Right@?$CStringT@DV?$StrTraitMFC_DLL@DV?$ChTraitsCRT@D@ATL@@@@@ATL@@QBE?AV12@H@Z
; File C:\Program Files (x86)\Microsoft Visual Studio\2019\Community\VC\Tools\MSVC\14.29.30133\atlmfc\include\cstringt.h

; 2486 : 		return(str1.Compare(psz2) == 0);

  0018d	68 00 00 00 00	 push	 OFFSET ??_C@_01IGIGCIAN@H@
  00192	8b c8		 mov	 ecx, eax
; File D:\git\src\IBK\IBK_DRFN\ProjSrc\SrcDrfn\Chart\chart_common\DataList\Conversion.cpp

; 2036 : 	else if(strFormat.Right(1) == "H") // 

  00194	c7 45 fc 02 00
	00 00		 mov	 DWORD PTR __$EHRec$[ebp+8], 2
; File C:\Program Files (x86)\Microsoft Visual Studio\2019\Community\VC\Tools\MSVC\14.29.30133\atlmfc\include\cstringt.h

; 2486 : 		return(str1.Compare(psz2) == 0);

  0019b	ff 15 00 00 00
	00		 call	 DWORD PTR __imp_?Compare@?$CStringT@DV?$StrTraitMFC_DLL@DV?$ChTraitsCRT@D@ATL@@@@@ATL@@QBEHPBD@Z
; File D:\git\src\IBK\IBK_DRFN\ProjSrc\SrcDrfn\Chart\chart_common\DataList\Conversion.cpp

; 2036 : 	else if(strFormat.Right(1) == "H") // 

  001a1	8d 4d 20	 lea	 ecx, DWORD PTR $T2[ebp]
; File C:\Program Files (x86)\Microsoft Visual Studio\2019\Community\VC\Tools\MSVC\14.29.30133\atlmfc\include\cstringt.h

; 2486 : 		return(str1.Compare(psz2) == 0);

  001a4	8b f0		 mov	 esi, eax
; File D:\git\src\IBK\IBK_DRFN\ProjSrc\SrcDrfn\Chart\chart_common\DataList\Conversion.cpp

; 2036 : 	else if(strFormat.Right(1) == "H") // 

  001a6	ff 15 00 00 00
	00		 call	 DWORD PTR __imp_??1?$CStringT@DV?$StrTraitMFC_DLL@DV?$ChTraitsCRT@D@ATL@@@@@ATL@@QAE@XZ
  001ac	85 f6		 test	 esi, esi
  001ae	75 09		 jne	 SHORT $LN46@OnPickoutT

; 2037 : 		hour = nCharge * nInterval;

  001b0	8b 45 0c	 mov	 eax, DWORD PTR _nCharge$[ebp]
  001b3	0f af 45 14	 imul	 eax, DWORD PTR _nInterval$[ebp]
  001b7	89 03		 mov	 DWORD PTR [ebx], eax
$LN46@OnPickoutT:

; 2038 : 	
; 2039 : 	while(sec >= 60){

  001b9	8b 45 28	 mov	 eax, DWORD PTR _sec$[ebp]
  001bc	83 38 3c	 cmp	 DWORD PTR [eax], 60	; 0000003cH
  001bf	7c 0a		 jl	 SHORT $LN47@OnPickoutT
$LL2@OnPickoutT:

; 2040 : 		min++;

  001c1	ff 07		 inc	 DWORD PTR [edi]

; 2041 : 		sec -= 60;

  001c3	83 00 c4	 add	 DWORD PTR [eax], -60	; ffffffc4H
  001c6	83 38 3c	 cmp	 DWORD PTR [eax], 60	; 0000003cH
  001c9	7d f6		 jge	 SHORT $LL2@OnPickoutT
$LN47@OnPickoutT:

; 2042 : 	}
; 2043 : 	while(min >= 60){

  001cb	83 3f 3c	 cmp	 DWORD PTR [edi], 60	; 0000003cH
  001ce	7c 0a		 jl	 SHORT $LN48@OnPickoutT
$LL4@OnPickoutT:

; 2044 : 		hour++;

  001d0	ff 03		 inc	 DWORD PTR [ebx]

; 2045 : 		min -= 60;

  001d2	83 07 c4	 add	 DWORD PTR [edi], -60	; ffffffc4H
  001d5	83 3f 3c	 cmp	 DWORD PTR [edi], 60	; 0000003cH
  001d8	7d f6		 jge	 SHORT $LL4@OnPickoutT
$LN48@OnPickoutT:

; 2046 : 	}
; 2047 : 	while(hour >= 7){

  001da	83 3b 07	 cmp	 DWORD PTR [ebx], 7
  001dd	8b 4d 1c	 mov	 ecx, DWORD PTR _day$[ebp]
  001e0	7c 0a		 jl	 SHORT $LN49@OnPickoutT
$LL6@OnPickoutT:

; 2048 : 		day++;

  001e2	ff 01		 inc	 DWORD PTR [ecx]

; 2049 : 		hour -= 7;

  001e4	83 03 f9	 add	 DWORD PTR [ebx], -7	; fffffff9H
  001e7	83 3b 07	 cmp	 DWORD PTR [ebx], 7
  001ea	7d f6		 jge	 SHORT $LL6@OnPickoutT
$LN49@OnPickoutT:

; 2050 : 	}
; 2051 : 	while(day >= 30){

  001ec	8b 11		 mov	 edx, DWORD PTR [ecx]
  001ee	8b 75 18	 mov	 esi, DWORD PTR _mon$[ebp]
  001f1	83 fa 1e	 cmp	 edx, 30			; 0000001eH
  001f4	7c 0e		 jl	 SHORT $LN9@OnPickoutT
$LL8@OnPickoutT:

; 2052 : 		mon++;

  001f6	ff 06		 inc	 DWORD PTR [esi]

; 2053 : 		day -= 30;

  001f8	8b 11		 mov	 edx, DWORD PTR [ecx]
  001fa	83 c2 e2	 add	 edx, -30		; ffffffe2H
  001fd	89 11		 mov	 DWORD PTR [ecx], edx
  001ff	83 fa 1e	 cmp	 edx, 30			; 0000001eH
  00202	7d f2		 jge	 SHORT $LL8@OnPickoutT
$LN9@OnPickoutT:

; 2054 : 	}
; 2055 : 
; 2056 : 	return (sec != 0 || min != 0 || hour != 0 || day != 0 || mon != 0);

  00204	83 38 00	 cmp	 DWORD PTR [eax], 0
  00207	75 12		 jne	 SHORT $LN24@OnPickoutT
  00209	83 3f 00	 cmp	 DWORD PTR [edi], 0
  0020c	75 0d		 jne	 SHORT $LN24@OnPickoutT
  0020e	83 3b 00	 cmp	 DWORD PTR [ebx], 0
  00211	75 08		 jne	 SHORT $LN24@OnPickoutT
  00213	85 d2		 test	 edx, edx
  00215	75 04		 jne	 SHORT $LN24@OnPickoutT
  00217	39 16		 cmp	 DWORD PTR [esi], edx
  00219	74 1d		 je	 SHORT $LN63@OnPickoutT
$LN24@OnPickoutT:
  0021b	b0 01		 mov	 al, 1

; 2057 : }

  0021d	8b 4d f4	 mov	 ecx, DWORD PTR __$EHRec$[ebp]
  00220	64 89 0d 00 00
	00 00		 mov	 DWORD PTR fs:0, ecx
  00227	59		 pop	 ecx
  00228	5f		 pop	 edi
  00229	5e		 pop	 esi
  0022a	5b		 pop	 ebx
  0022b	8b e5		 mov	 esp, ebp
  0022d	5d		 pop	 ebp
  0022e	c3		 ret	 0
$LN22@OnPickoutT:

; 2012 : 	if(strFormat.Right(1) == 'D' || strFormat.Find('Y') >= 0)

  0022f	8d 4d 24	 lea	 ecx, DWORD PTR $T5[ebp]
  00232	ff 15 00 00 00
	00		 call	 DWORD PTR __imp_??1?$CStringT@DV?$StrTraitMFC_DLL@DV?$ChTraitsCRT@D@ATL@@@@@ATL@@QAE@XZ
$LN63@OnPickoutT:

; 2057 : }

  00238	32 c0		 xor	 al, al
  0023a	8b 4d f4	 mov	 ecx, DWORD PTR __$EHRec$[ebp]
  0023d	64 89 0d 00 00
	00 00		 mov	 DWORD PTR fs:0, ecx
  00244	59		 pop	 ecx
  00245	5f		 pop	 edi
  00246	5e		 pop	 esi
  00247	5b		 pop	 ebx
  00248	8b e5		 mov	 esp, ebp
  0024a	5d		 pop	 ebp
  0024b	c3		 ret	 0
_TEXT	ENDS
;	COMDAT text$x
text$x	SEGMENT
__unwindfunclet$?OnPickoutTime@CDataConversion@@CA_NHHABV?$CStringT@DV?$StrTraitMFC_DLL@DV?$ChTraitsCRT@D@ATL@@@@@ATL@@HAAH1111@Z$1:
  00000	8d 4d 24	 lea	 ecx, DWORD PTR $T4[ebp]
  00003	ff 25 00 00 00
	00		 jmp	 DWORD PTR __imp_??1?$CStringT@DV?$StrTraitMFC_DLL@DV?$ChTraitsCRT@D@ATL@@@@@ATL@@QAE@XZ
__unwindfunclet$?OnPickoutTime@CDataConversion@@CA_NHHABV?$CStringT@DV?$StrTraitMFC_DLL@DV?$ChTraitsCRT@D@ATL@@@@@ATL@@HAAH1111@Z$2:
  00009	8d 4d 24	 lea	 ecx, DWORD PTR $T3[ebp]
  0000c	ff 25 00 00 00
	00		 jmp	 DWORD PTR __imp_??1?$CStringT@DV?$StrTraitMFC_DLL@DV?$ChTraitsCRT@D@ATL@@@@@ATL@@QAE@XZ
__unwindfunclet$?OnPickoutTime@CDataConversion@@CA_NHHABV?$CStringT@DV?$StrTraitMFC_DLL@DV?$ChTraitsCRT@D@ATL@@@@@ATL@@HAAH1111@Z$3:
  00012	8d 4d 20	 lea	 ecx, DWORD PTR $T2[ebp]
  00015	ff 25 00 00 00
	00		 jmp	 DWORD PTR __imp_??1?$CStringT@DV?$StrTraitMFC_DLL@DV?$ChTraitsCRT@D@ATL@@@@@ATL@@QAE@XZ
  0001b	cc		 int	 3
  0001c	cc		 int	 3
  0001d	cc		 int	 3
  0001e	cc		 int	 3
  0001f	cc		 int	 3
__ehhandler$?OnPickoutTime@CDataConversion@@CA_NHHABV?$CStringT@DV?$StrTraitMFC_DLL@DV?$ChTraitsCRT@D@ATL@@@@@ATL@@HAAH1111@Z:
  00020	90		 npad	 1
  00021	90		 npad	 1
  00022	8b 54 24 08	 mov	 edx, DWORD PTR [esp+8]
  00026	8d 42 0c	 lea	 eax, DWORD PTR [edx+12]
  00029	8b 4a f0	 mov	 ecx, DWORD PTR [edx-16]
  0002c	33 c8		 xor	 ecx, eax
  0002e	e8 00 00 00 00	 call	 @__security_check_cookie@4
  00033	b8 00 00 00 00	 mov	 eax, OFFSET __ehfuncinfo$?OnPickoutTime@CDataConversion@@CA_NHHABV?$CStringT@DV?$StrTraitMFC_DLL@DV?$ChTraitsCRT@D@ATL@@@@@ATL@@HAAH1111@Z
  00038	e9 00 00 00 00	 jmp	 ___CxxFrameHandler3
text$x	ENDS
?OnPickoutTime@CDataConversion@@CA_NHHABV?$CStringT@DV?$StrTraitMFC_DLL@DV?$ChTraitsCRT@D@ATL@@@@@ATL@@HAAH1111@Z ENDP ; CDataConversion::OnPickoutTime
; Function compile flags: /Ogtp
; File D:\git\src\IBK\IBK_DRFN\ProjSrc\SrcDrfn\Chart\chart_common\DataList\Conversion.cpp
; File C:\Program Files (x86)\Microsoft Visual Studio\2019\Community\VC\Tools\MSVC\14.29.30133\atlmfc\include\atltypes.h
; File D:\git\src\IBK\IBK_DRFN\ProjSrc\SrcDrfn\Chart\chart_common\DataList\Conversion.cpp
; File C:\Program Files (x86)\Microsoft Visual Studio\2019\Community\VC\Tools\MSVC\14.29.30133\atlmfc\include\atltypes.h
; File D:\git\src\IBK\IBK_DRFN\ProjSrc\SrcDrfn\Chart\chart_common\DataList\Conversion.cpp
;	COMDAT ?RelativeToAbsoluteOutDisplayIndex_Y@CDataConversion@@CAHABVCRect@@ABN111@Z
_TEXT	SEGMENT
_region$ = 8						; size = 4
_realHeight$ = 12					; size = 4
_dataViewMin$ = 16					; size = 4
_dataViewMax$ = 20					; size = 4
_currentPrice$ = 24					; size = 4
?RelativeToAbsoluteOutDisplayIndex_Y@CDataConversion@@CAHABVCRect@@ABN111@Z PROC ; CDataConversion::RelativeToAbsoluteOutDisplayIndex_Y, COMDAT

; 1937 : {

  00000	55		 push	 ebp
  00001	8b ec		 mov	 ebp, esp

; 1938 : 	if(dataViewMax < currentPrice)

  00003	8b 45 14	 mov	 eax, DWORD PTR _dataViewMax$[ebp]
  00006	8b 4d 10	 mov	 ecx, DWORD PTR _dataViewMin$[ebp]
  00009	f2 0f 10 00	 movsd	 xmm0, QWORD PTR [eax]
  0000d	8b 45 18	 mov	 eax, DWORD PTR _currentPrice$[ebp]
  00010	f2 0f 10 08	 movsd	 xmm1, QWORD PTR [eax]
  00014	66 0f 2f c8	 comisd	 xmm1, xmm0
  00018	76 27		 jbe	 SHORT $LN2@RelativeTo

; 1939 : 		return region.top - CMath::Round((currentPrice - dataViewMax)*realHeight);

  0001a	8b 45 0c	 mov	 eax, DWORD PTR _realHeight$[ebp]
  0001d	f2 0f 5c c8	 subsd	 xmm1, xmm0
  00021	83 ec 08	 sub	 esp, 8
  00024	f2 0f 59 08	 mulsd	 xmm1, QWORD PTR [eax]
  00028	f2 0f 11 0c 24	 movsd	 QWORD PTR [esp], xmm1
  0002d	e8 00 00 00 00	 call	 ?Round@CMath@@SAHN@Z	; CMath::Round
  00032	8b 4d 08	 mov	 ecx, DWORD PTR _region$[ebp]
  00035	8b d0		 mov	 edx, eax
  00037	83 c4 08	 add	 esp, 8
  0003a	8b 41 04	 mov	 eax, DWORD PTR [ecx+4]
  0003d	2b c2		 sub	 eax, edx

; 1944 : }

  0003f	5d		 pop	 ebp
  00040	c3		 ret	 0
$LN2@RelativeTo:

; 1940 : 	else if(dataViewMax > currentPrice)

  00041	66 0f 2f c1	 comisd	 xmm0, xmm1
  00045	57		 push	 edi
  00046	8b 7d 08	 mov	 edi, DWORD PTR _region$[ebp]
  00049	f2 0f 10 11	 movsd	 xmm2, QWORD PTR [ecx]
  0004d	76 21		 jbe	 SHORT $LN4@RelativeTo

; 1941 : 		return region.bottom + CMath::Round((dataViewMin - currentPrice)*realHeight);

  0004f	8b 45 0c	 mov	 eax, DWORD PTR _realHeight$[ebp]
  00052	f2 0f 5c d1	 subsd	 xmm2, xmm1
  00056	83 ec 08	 sub	 esp, 8
  00059	f2 0f 59 10	 mulsd	 xmm2, QWORD PTR [eax]
  0005d	f2 0f 11 14 24	 movsd	 QWORD PTR [esp], xmm2
  00062	e8 00 00 00 00	 call	 ?Round@CMath@@SAHN@Z	; CMath::Round
  00067	83 c4 08	 add	 esp, 8
  0006a	03 47 0c	 add	 eax, DWORD PTR [edi+12]
  0006d	5f		 pop	 edi

; 1944 : }

  0006e	5d		 pop	 ebp
  0006f	c3		 ret	 0
$LN4@RelativeTo:
  00070	56		 push	 esi
; File C:\Program Files (x86)\Microsoft Visual Studio\2019\Community\VC\Tools\MSVC\14.29.30133\atlmfc\include\atltypes.h

; 581  : 	return bottom - top;

  00071	8b 77 0c	 mov	 esi, DWORD PTR [edi+12]
; File D:\git\src\IBK\IBK_DRFN\ProjSrc\SrcDrfn\Chart\chart_common\DataList\Conversion.cpp

; 1943 : 	return GetChangingPosition(region.bottom, region.Height(), dataViewMin, dataViewMax - dataViewMin, currentPrice);

  00074	f2 0f 5c c2	 subsd	 xmm0, xmm2
; File C:\Program Files (x86)\Microsoft Visual Studio\2019\Community\VC\Tools\MSVC\14.29.30133\atlmfc\include\atltypes.h

; 581  : 	return bottom - top;

  00078	8b ce		 mov	 ecx, esi
  0007a	2b 4f 04	 sub	 ecx, DWORD PTR [edi+4]
; File D:\git\src\IBK\IBK_DRFN\ProjSrc\SrcDrfn\Chart\chart_common\DataList\Conversion.cpp

; 1859 : 	if(length <= 0 || originLength == 0)

  0007d	85 c9		 test	 ecx, ecx
  0007f	7e 3a		 jle	 SHORT $LN10@RelativeTo
  00081	66 0f 2e 05 00
	00 00 00	 ucomisd xmm0, QWORD PTR __real@0000000000000000
  00089	9f		 lahf
  0008a	f6 c4 44	 test	 ah, 68			; 00000044H
  0008d	7b 2c		 jnp	 SHORT $LN10@RelativeTo

; 1861 : 
; 1862 : 	int ChangingLength = CMath::Round(length * ((nowData - originStartData) / originLength));

  0008f	f2 0f 5c ca	 subsd	 xmm1, xmm2
  00093	83 ec 08	 sub	 esp, 8
  00096	f2 0f 5e c8	 divsd	 xmm1, xmm0
  0009a	66 0f 6e c1	 movd	 xmm0, ecx
  0009e	f3 0f e6 c0	 cvtdq2pd xmm0, xmm0
  000a2	f2 0f 59 c8	 mulsd	 xmm1, xmm0
  000a6	f2 0f 11 0c 24	 movsd	 QWORD PTR [esp], xmm1
  000ab	e8 00 00 00 00	 call	 ?Round@CMath@@SAHN@Z	; CMath::Round
  000b0	83 c4 08	 add	 esp, 8

; 1863 : 	return (startPos - ChangingLength);

  000b3	2b f0		 sub	 esi, eax

; 1943 : 	return GetChangingPosition(region.bottom, region.Height(), dataViewMin, dataViewMax - dataViewMin, currentPrice);

  000b5	8b c6		 mov	 eax, esi
  000b7	5e		 pop	 esi
  000b8	5f		 pop	 edi

; 1944 : }

  000b9	5d		 pop	 ebp
  000ba	c3		 ret	 0
$LN10@RelativeTo:

; 1860 : 		return -1;

  000bb	83 ce ff	 or	 esi, -1

; 1943 : 	return GetChangingPosition(region.bottom, region.Height(), dataViewMin, dataViewMax - dataViewMin, currentPrice);

  000be	8b c6		 mov	 eax, esi
  000c0	5e		 pop	 esi
  000c1	5f		 pop	 edi

; 1944 : }

  000c2	5d		 pop	 ebp
  000c3	c3		 ret	 0
?RelativeToAbsoluteOutDisplayIndex_Y@CDataConversion@@CAHABVCRect@@ABN111@Z ENDP ; CDataConversion::RelativeToAbsoluteOutDisplayIndex_Y
_TEXT	ENDS
; Function compile flags: /Ogtp
; File D:\git\src\IBK\IBK_DRFN\ProjSrc\SrcDrfn\Chart\chart_common\DataList\Conversion.cpp
; File C:\Program Files (x86)\Microsoft Visual Studio\2019\Community\VC\Tools\MSVC\14.29.30133\atlmfc\include\atltypes.h
; File D:\git\src\IBK\IBK_DRFN\ProjSrc\SrcDrfn\Chart\chart_common\DataList\Conversion.cpp
;	COMDAT ?RelativeToAbsoluteInDisplayIndex_Y@CDataConversion@@CAHABVCRect@@ABN11@Z
_TEXT	SEGMENT
_region$ = 8						; size = 4
_dataViewMin$ = 12					; size = 4
_dataViewMax$ = 16					; size = 4
_currentPrice$ = 20					; size = 4
?RelativeToAbsoluteInDisplayIndex_Y@CDataConversion@@CAHABVCRect@@ABN11@Z PROC ; CDataConversion::RelativeToAbsoluteInDisplayIndex_Y, COMDAT

; 1929 : {

  00000	55		 push	 ebp
  00001	8b ec		 mov	 ebp, esp

; 1930 : 	return GetChangingPosition(region.bottom, region.Height(), dataViewMin, dataViewMax - dataViewMin, currentPrice);

  00003	8b 45 0c	 mov	 eax, DWORD PTR _dataViewMin$[ebp]
  00006	56		 push	 esi
  00007	f2 0f 10 10	 movsd	 xmm2, QWORD PTR [eax]
; File C:\Program Files (x86)\Microsoft Visual Studio\2019\Community\VC\Tools\MSVC\14.29.30133\atlmfc\include\atltypes.h

; 581  : 	return bottom - top;

  0000b	8b 45 08	 mov	 eax, DWORD PTR _region$[ebp]
  0000e	8b 70 0c	 mov	 esi, DWORD PTR [eax+12]
  00011	8b ce		 mov	 ecx, esi
  00013	2b 48 04	 sub	 ecx, DWORD PTR [eax+4]
; File D:\git\src\IBK\IBK_DRFN\ProjSrc\SrcDrfn\Chart\chart_common\DataList\Conversion.cpp

; 1859 : 	if(length <= 0 || originLength == 0)

  00016	85 c9		 test	 ecx, ecx
  00018	7e 4b		 jle	 SHORT $LN7@RelativeTo

; 1930 : 	return GetChangingPosition(region.bottom, region.Height(), dataViewMin, dataViewMax - dataViewMin, currentPrice);

  0001a	8b 45 10	 mov	 eax, DWORD PTR _dataViewMax$[ebp]
  0001d	f2 0f 10 00	 movsd	 xmm0, QWORD PTR [eax]
  00021	f2 0f 5c c2	 subsd	 xmm0, xmm2

; 1859 : 	if(length <= 0 || originLength == 0)

  00025	66 0f 2e 05 00
	00 00 00	 ucomisd xmm0, QWORD PTR __real@0000000000000000
  0002d	9f		 lahf
  0002e	f6 c4 44	 test	 ah, 68			; 00000044H
  00031	7b 32		 jnp	 SHORT $LN7@RelativeTo

; 1860 : 		return -1;
; 1861 : 
; 1862 : 	int ChangingLength = CMath::Round(length * ((nowData - originStartData) / originLength));

  00033	8b 45 14	 mov	 eax, DWORD PTR _currentPrice$[ebp]
  00036	83 ec 08	 sub	 esp, 8
  00039	f2 0f 10 08	 movsd	 xmm1, QWORD PTR [eax]
  0003d	f2 0f 5c ca	 subsd	 xmm1, xmm2
  00041	f2 0f 5e c8	 divsd	 xmm1, xmm0
  00045	66 0f 6e c1	 movd	 xmm0, ecx
  00049	f3 0f e6 c0	 cvtdq2pd xmm0, xmm0
  0004d	f2 0f 59 c8	 mulsd	 xmm1, xmm0
  00051	f2 0f 11 0c 24	 movsd	 QWORD PTR [esp], xmm1
  00056	e8 00 00 00 00	 call	 ?Round@CMath@@SAHN@Z	; CMath::Round
  0005b	83 c4 08	 add	 esp, 8

; 1863 : 	return (startPos - ChangingLength);

  0005e	2b f0		 sub	 esi, eax

; 1930 : 	return GetChangingPosition(region.bottom, region.Height(), dataViewMin, dataViewMax - dataViewMin, currentPrice);

  00060	8b c6		 mov	 eax, esi
  00062	5e		 pop	 esi

; 1931 : 	//if(y < 0)
; 1932 : 	//	return region.top;
; 1933 : }

  00063	5d		 pop	 ebp
  00064	c3		 ret	 0
$LN7@RelativeTo:

; 1930 : 	return GetChangingPosition(region.bottom, region.Height(), dataViewMin, dataViewMax - dataViewMin, currentPrice);

  00065	83 c8 ff	 or	 eax, -1
  00068	5e		 pop	 esi

; 1931 : 	//if(y < 0)
; 1932 : 	//	return region.top;
; 1933 : }

  00069	5d		 pop	 ebp
  0006a	c3		 ret	 0
?RelativeToAbsoluteInDisplayIndex_Y@CDataConversion@@CAHABVCRect@@ABN11@Z ENDP ; CDataConversion::RelativeToAbsoluteInDisplayIndex_Y
_TEXT	ENDS
; Function compile flags: /Ogtp
; File D:\git\src\IBK\IBK_DRFN\ProjSrc\SrcDrfn\Chart\chart_common\DataList\Conversion.cpp
;	COMDAT ?RelativeToAbsoluteOutDisplayIndex_X@CDataConversion@@CAHABVCRect@@ABNHHH@Z
_TEXT	SEGMENT
_region$ = 8						; size = 4
_realWidth$ = 12					; size = 4
_startIndex$ = 16					; size = 4
_endIndex$ = 20						; size = 4
_currentIndex$ = 24					; size = 4
?RelativeToAbsoluteOutDisplayIndex_X@CDataConversion@@CAHABVCRect@@ABNHHH@Z PROC ; CDataConversion::RelativeToAbsoluteOutDisplayIndex_X, COMDAT

; 1918 : {

  00000	55		 push	 ebp
  00001	8b ec		 mov	 ebp, esp

; 1919 : 	if(currentIndex < startIndex)

  00003	8b 45 18	 mov	 eax, DWORD PTR _currentIndex$[ebp]
  00006	8b 4d 10	 mov	 ecx, DWORD PTR _startIndex$[ebp]
  00009	3b c1		 cmp	 eax, ecx
  0000b	7d 2c		 jge	 SHORT $LN2@RelativeTo

; 1920 : 		return region.left - CMath::Round(double(startIndex - currentIndex)*realWidth);

  0000d	2b c8		 sub	 ecx, eax
  0000f	83 ec 08	 sub	 esp, 8
  00012	8b 45 0c	 mov	 eax, DWORD PTR _realWidth$[ebp]
  00015	66 0f 6e c1	 movd	 xmm0, ecx
  00019	f3 0f e6 c0	 cvtdq2pd xmm0, xmm0
  0001d	f2 0f 59 00	 mulsd	 xmm0, QWORD PTR [eax]
  00021	f2 0f 11 04 24	 movsd	 QWORD PTR [esp], xmm0
  00026	e8 00 00 00 00	 call	 ?Round@CMath@@SAHN@Z	; CMath::Round
  0002b	8b 4d 08	 mov	 ecx, DWORD PTR _region$[ebp]
  0002e	83 c4 08	 add	 esp, 8
  00031	8b 09		 mov	 ecx, DWORD PTR [ecx]
  00033	2b c8		 sub	 ecx, eax
  00035	8b c1		 mov	 eax, ecx

; 1925 : }

  00037	5d		 pop	 ebp
  00038	c3		 ret	 0
$LN2@RelativeTo:

; 1921 : 	else if(currentIndex > endIndex)

  00039	8b 4d 14	 mov	 ecx, DWORD PTR _endIndex$[ebp]
  0003c	3b c1		 cmp	 eax, ecx
  0003e	7e 29		 jle	 SHORT $LN4@RelativeTo

; 1922 : 		return region.right + CMath::Round(double(currentIndex - endIndex)*realWidth);

  00040	2b c1		 sub	 eax, ecx
  00042	83 ec 08	 sub	 esp, 8
  00045	66 0f 6e c0	 movd	 xmm0, eax
  00049	8b 45 0c	 mov	 eax, DWORD PTR _realWidth$[ebp]
  0004c	f3 0f e6 c0	 cvtdq2pd xmm0, xmm0
  00050	f2 0f 59 00	 mulsd	 xmm0, QWORD PTR [eax]
  00054	f2 0f 11 04 24	 movsd	 QWORD PTR [esp], xmm0
  00059	e8 00 00 00 00	 call	 ?Round@CMath@@SAHN@Z	; CMath::Round
  0005e	8b 4d 08	 mov	 ecx, DWORD PTR _region$[ebp]
  00061	83 c4 08	 add	 esp, 8
  00064	03 41 08	 add	 eax, DWORD PTR [ecx+8]

; 1925 : }

  00067	5d		 pop	 ebp
  00068	c3		 ret	 0
$LN4@RelativeTo:

; 1923 : 
; 1924 : 	return 0;

  00069	33 c0		 xor	 eax, eax

; 1925 : }

  0006b	5d		 pop	 ebp
  0006c	c3		 ret	 0
?RelativeToAbsoluteOutDisplayIndex_X@CDataConversion@@CAHABVCRect@@ABNHHH@Z ENDP ; CDataConversion::RelativeToAbsoluteOutDisplayIndex_X
_TEXT	ENDS
; Function compile flags: /Ogtp
; File D:\git\src\IBK\IBK_DRFN\ProjSrc\SrcDrfn\Chart\chart_common\DataList\Conversion.cpp
;	COMDAT ?RelativeToAbsoluteInDisplayIndex_X@CDataConversion@@CAHABVCRect@@ABNH_N@Z
_TEXT	SEGMENT
_startPos$1$ = 8					; size = 4
_region$ = 8						; size = 4
_realWidth$ = 12					; size = 4
_currentIndex$ = 16					; size = 4
_bCenter$ = 20						; size = 1
?RelativeToAbsoluteInDisplayIndex_X@CDataConversion@@CAHABVCRect@@ABNH_N@Z PROC ; CDataConversion::RelativeToAbsoluteInDisplayIndex_X, COMDAT

; 1907 : {

  00000	55		 push	 ebp
  00001	8b ec		 mov	 ebp, esp
  00003	56		 push	 esi

; 1868 : 	if(nowIndex < 0)

  00004	8b 75 10	 mov	 esi, DWORD PTR _currentIndex$[ebp]

; 1907 : {

  00007	57		 push	 edi

; 1908 : 	int	x = GetChangingPosition(currentIndex, region.left, realWidth, bCenter);

  00008	8b 7d 08	 mov	 edi, DWORD PTR _region$[ebp]
  0000b	8b 07		 mov	 eax, DWORD PTR [edi]
  0000d	89 45 08	 mov	 DWORD PTR _startPos$1$[ebp], eax

; 1868 : 	if(nowIndex < 0)

  00010	85 f6		 test	 esi, esi
  00012	78 5e		 js	 SHORT $LN8@RelativeTo

; 1869 : 		return -1;
; 1870 : 
; 1871 : 	int nNowPos = CMath::Round(width * nowIndex);

  00014	8b 45 0c	 mov	 eax, DWORD PTR _realWidth$[ebp]
  00017	66 0f 6e c6	 movd	 xmm0, esi
  0001b	f3 0f e6 c0	 cvtdq2pd xmm0, xmm0
  0001f	53		 push	 ebx
  00020	83 ec 08	 sub	 esp, 8
  00023	f2 0f 59 00	 mulsd	 xmm0, QWORD PTR [eax]
  00027	f2 0f 11 04 24	 movsd	 QWORD PTR [esp], xmm0
  0002c	e8 00 00 00 00	 call	 ?Round@CMath@@SAHN@Z	; CMath::Round
  00031	83 c4 08	 add	 esp, 8
  00034	8b d8		 mov	 ebx, eax

; 1872 : 	if(bCenter){

  00036	80 7d 14 00	 cmp	 BYTE PTR _bCenter$[ebp], 0
  0003a	74 2b		 je	 SHORT $LN6@RelativeTo

; 1873 : 		int nNextPos = CMath::Round(width * (nowIndex +1));

  0003c	8d 46 01	 lea	 eax, DWORD PTR [esi+1]
  0003f	83 ec 08	 sub	 esp, 8
  00042	66 0f 6e c0	 movd	 xmm0, eax
  00046	8b 45 0c	 mov	 eax, DWORD PTR _realWidth$[ebp]
  00049	f3 0f e6 c0	 cvtdq2pd xmm0, xmm0
  0004d	f2 0f 59 00	 mulsd	 xmm0, QWORD PTR [eax]
  00051	f2 0f 11 04 24	 movsd	 QWORD PTR [esp], xmm0
  00056	e8 00 00 00 00	 call	 ?Round@CMath@@SAHN@Z	; CMath::Round

; 1874 : 		// line     "". gap 3, 5   .
; 1875 : 		int nHalf = (nNextPos - nNowPos) / 2;

  0005b	2b c3		 sub	 eax, ebx
  0005d	83 c4 08	 add	 esp, 8
  00060	99		 cdq
  00061	2b c2		 sub	 eax, edx
  00063	d1 f8		 sar	 eax, 1

; 1876 : 		nNowPos += nHalf;

  00065	03 d8		 add	 ebx, eax
$LN6@RelativeTo:

; 1877 : 	}
; 1878 : 
; 1879 : 	return (startPos + nNowPos);

  00067	8b 45 08	 mov	 eax, DWORD PTR _startPos$1$[ebp]
  0006a	03 c3		 add	 eax, ebx
  0006c	5b		 pop	 ebx

; 1909 : 	if(x == -1)

  0006d	83 f8 ff	 cmp	 eax, -1
  00070	75 02		 jne	 SHORT $LN1@RelativeTo
$LN8@RelativeTo:

; 1910 : 		return region.left;

  00072	8b 07		 mov	 eax, DWORD PTR [edi]
$LN1@RelativeTo:
  00074	5f		 pop	 edi

; 1911 : 
; 1912 : 	return x;
; 1913 : }

  00075	5e		 pop	 esi
  00076	5d		 pop	 ebp
  00077	c3		 ret	 0
?RelativeToAbsoluteInDisplayIndex_X@CDataConversion@@CAHABVCRect@@ABNH_N@Z ENDP ; CDataConversion::RelativeToAbsoluteInDisplayIndex_X
_TEXT	ENDS
; Function compile flags: /Ogtp
; File D:\git\src\IBK\IBK_DRFN\ProjSrc\SrcDrfn\Chart\chart_common\DataList\Conversion.cpp
; File C:\Program Files (x86)\Microsoft Visual Studio\2019\Community\VC\Tools\MSVC\14.29.30133\atlmfc\include\atltypes.h
; File D:\git\src\IBK\IBK_DRFN\ProjSrc\SrcDrfn\Chart\chart_common\DataList\Conversion.cpp
; File C:\Program Files (x86)\Microsoft Visual Studio\2019\Community\VC\Tools\MSVC\14.29.30133\atlmfc\include\atltypes.h
; File D:\git\src\IBK\IBK_DRFN\ProjSrc\SrcDrfn\Chart\chart_common\DataList\Conversion.cpp
; File C:\Program Files (x86)\Microsoft Visual Studio\2019\Community\VC\Tools\MSVC\14.29.30133\atlmfc\include\atltypes.h
; File D:\git\src\IBK\IBK_DRFN\ProjSrc\SrcDrfn\Chart\chart_common\DataList\Conversion.cpp
; File C:\Program Files (x86)\Microsoft Visual Studio\2019\Community\VC\Tools\MSVC\14.29.30133\atlmfc\include\atltypes.h
; File D:\git\src\IBK\IBK_DRFN\ProjSrc\SrcDrfn\Chart\chart_common\DataList\Conversion.cpp
; File C:\Program Files (x86)\Microsoft Visual Studio\2019\Community\VC\Tools\MSVC\14.29.30133\atlmfc\include\atltypes.h
; File D:\git\src\IBK\IBK_DRFN\ProjSrc\SrcDrfn\Chart\chart_common\DataList\Conversion.cpp
; File C:\Program Files (x86)\Microsoft Visual Studio\2019\Community\VC\Tools\MSVC\14.29.30133\atlmfc\include\atltypes.h
; File D:\git\src\IBK\IBK_DRFN\ProjSrc\SrcDrfn\Chart\chart_common\DataList\Conversion.cpp
; File C:\Program Files (x86)\Microsoft Visual Studio\2019\Community\VC\Tools\MSVC\14.29.30133\atlmfc\include\atltypes.h
; File D:\git\src\IBK\IBK_DRFN\ProjSrc\SrcDrfn\Chart\chart_common\DataList\Conversion.cpp
; File C:\Program Files (x86)\Microsoft Visual Studio\2019\Community\VC\Tools\MSVC\14.29.30133\atlmfc\include\atltypes.h
; File D:\git\src\IBK\IBK_DRFN\ProjSrc\SrcDrfn\Chart\chart_common\DataList\Conversion.cpp
; File C:\Program Files (x86)\Microsoft Visual Studio\2019\Community\VC\Tools\MSVC\14.29.30133\atlmfc\include\atltypes.h
; File D:\git\src\IBK\IBK_DRFN\ProjSrc\SrcDrfn\Chart\chart_common\DataList\Conversion.cpp
; File C:\Program Files (x86)\Microsoft Visual Studio\2019\Community\VC\Tools\MSVC\14.29.30133\atlmfc\include\atltypes.h
; File D:\git\src\IBK\IBK_DRFN\ProjSrc\SrcDrfn\Chart\chart_common\DataList\Conversion.cpp
; File C:\Program Files (x86)\Microsoft Visual Studio\2019\Community\VC\Tools\MSVC\14.29.30133\atlmfc\include\atltypes.h
; File D:\git\src\IBK\IBK_DRFN\ProjSrc\SrcDrfn\Chart\chart_common\DataList\Conversion.cpp
;	COMDAT ?RelativeToAbsoluteOutDisplayIndex@CDataConversion@@CA?AVCPoint@@ABVCRect@@ABN111HHH1@Z
_TEXT	SEGMENT
___$ReturnUdt$ = 8					; size = 4
_region$ = 12						; size = 4
_realWidth$ = 16					; size = 4
_realHeight$ = 20					; size = 4
_dataViewMin$ = 24					; size = 4
_dataViewMax$ = 28					; size = 4
_startIndex$ = 32					; size = 4
_endIndex$ = 36						; size = 4
_currentIndex$ = 40					; size = 4
_currentPrice$ = 44					; size = 4
?RelativeToAbsoluteOutDisplayIndex@CDataConversion@@CA?AVCPoint@@ABVCRect@@ABN111HHH1@Z PROC ; CDataConversion::RelativeToAbsoluteOutDisplayIndex, COMDAT

; 1897 : {

  00000	55		 push	 ebp
  00001	8b ec		 mov	 ebp, esp

; 1919 : 	if(currentIndex < startIndex)

  00003	8b 45 28	 mov	 eax, DWORD PTR _currentIndex$[ebp]
  00006	8b 4d 20	 mov	 ecx, DWORD PTR _startIndex$[ebp]

; 1897 : {

  00009	53		 push	 ebx

; 1919 : 	if(currentIndex < startIndex)

  0000a	8b 5d 0c	 mov	 ebx, DWORD PTR _region$[ebp]

; 1897 : {

  0000d	56		 push	 esi
  0000e	8b 75 18	 mov	 esi, DWORD PTR _dataViewMin$[ebp]
  00011	57		 push	 edi

; 1919 : 	if(currentIndex < startIndex)

  00012	3b c1		 cmp	 eax, ecx
  00014	7d 27		 jge	 SHORT $LN4@RelativeTo

; 1920 : 		return region.left - CMath::Round(double(startIndex - currentIndex)*realWidth);

  00016	2b c8		 sub	 ecx, eax
  00018	83 ec 08	 sub	 esp, 8
  0001b	8b 45 10	 mov	 eax, DWORD PTR _realWidth$[ebp]
  0001e	66 0f 6e c1	 movd	 xmm0, ecx
  00022	f3 0f e6 c0	 cvtdq2pd xmm0, xmm0
  00026	f2 0f 59 00	 mulsd	 xmm0, QWORD PTR [eax]
  0002a	f2 0f 11 04 24	 movsd	 QWORD PTR [esp], xmm0
  0002f	e8 00 00 00 00	 call	 ?Round@CMath@@SAHN@Z	; CMath::Round
  00034	8b 3b		 mov	 edi, DWORD PTR [ebx]
  00036	83 c4 08	 add	 esp, 8
  00039	2b f8		 sub	 edi, eax
  0003b	eb 31		 jmp	 SHORT $LN3@RelativeTo
$LN4@RelativeTo:

; 1921 : 	else if(currentIndex > endIndex)

  0003d	8b 4d 24	 mov	 ecx, DWORD PTR _endIndex$[ebp]
  00040	3b c1		 cmp	 eax, ecx
  00042	7e 28		 jle	 SHORT $LN6@RelativeTo

; 1922 : 		return region.right + CMath::Round(double(currentIndex - endIndex)*realWidth);

  00044	2b c1		 sub	 eax, ecx
  00046	83 ec 08	 sub	 esp, 8
  00049	66 0f 6e c0	 movd	 xmm0, eax
  0004d	8b 45 10	 mov	 eax, DWORD PTR _realWidth$[ebp]
  00050	f3 0f e6 c0	 cvtdq2pd xmm0, xmm0
  00054	f2 0f 59 00	 mulsd	 xmm0, QWORD PTR [eax]
  00058	f2 0f 11 04 24	 movsd	 QWORD PTR [esp], xmm0
  0005d	e8 00 00 00 00	 call	 ?Round@CMath@@SAHN@Z	; CMath::Round
  00062	8b f8		 mov	 edi, eax
  00064	83 c4 08	 add	 esp, 8
  00067	03 7b 08	 add	 edi, DWORD PTR [ebx+8]
  0006a	eb 02		 jmp	 SHORT $LN3@RelativeTo
$LN6@RelativeTo:

; 1923 : 
; 1924 : 	return 0;

  0006c	33 ff		 xor	 edi, edi
$LN3@RelativeTo:

; 1938 : 	if(dataViewMax < currentPrice)

  0006e	8b 45 1c	 mov	 eax, DWORD PTR _dataViewMax$[ebp]
  00071	f2 0f 10 00	 movsd	 xmm0, QWORD PTR [eax]
  00075	8b 45 2c	 mov	 eax, DWORD PTR _currentPrice$[ebp]
  00078	f2 0f 10 08	 movsd	 xmm1, QWORD PTR [eax]
  0007c	66 0f 2f c8	 comisd	 xmm1, xmm0
  00080	76 2d		 jbe	 SHORT $LN9@RelativeTo

; 1939 : 		return region.top - CMath::Round((currentPrice - dataViewMax)*realHeight);

  00082	8b 45 14	 mov	 eax, DWORD PTR _realHeight$[ebp]
  00085	f2 0f 5c c8	 subsd	 xmm1, xmm0
  00089	83 ec 08	 sub	 esp, 8
  0008c	f2 0f 59 08	 mulsd	 xmm1, QWORD PTR [eax]
  00090	f2 0f 11 0c 24	 movsd	 QWORD PTR [esp], xmm1
  00095	e8 00 00 00 00	 call	 ?Round@CMath@@SAHN@Z	; CMath::Round
  0009a	8b 73 04	 mov	 esi, DWORD PTR [ebx+4]
  0009d	83 c4 08	 add	 esp, 8
  000a0	2b f0		 sub	 esi, eax
; File C:\Program Files (x86)\Microsoft Visual Studio\2019\Community\VC\Tools\MSVC\14.29.30133\atlmfc\include\atltypes.h

; 408  : 	x = initX;

  000a2	8b 45 08	 mov	 eax, DWORD PTR ___$ReturnUdt$[ebp]
  000a5	89 38		 mov	 DWORD PTR [eax], edi
; File D:\git\src\IBK\IBK_DRFN\ProjSrc\SrcDrfn\Chart\chart_common\DataList\Conversion.cpp

; 1901 : 	return CPoint(x, y);

  000a7	5f		 pop	 edi
; File C:\Program Files (x86)\Microsoft Visual Studio\2019\Community\VC\Tools\MSVC\14.29.30133\atlmfc\include\atltypes.h

; 409  : 	y = initY;

  000a8	89 70 04	 mov	 DWORD PTR [eax+4], esi
; File D:\git\src\IBK\IBK_DRFN\ProjSrc\SrcDrfn\Chart\chart_common\DataList\Conversion.cpp

; 1901 : 	return CPoint(x, y);

  000ab	5e		 pop	 esi
  000ac	5b		 pop	 ebx

; 1902 : }

  000ad	5d		 pop	 ebp
  000ae	c3		 ret	 0
$LN9@RelativeTo:

; 1940 : 	else if(dataViewMax > currentPrice)

  000af	66 0f 2f c1	 comisd	 xmm0, xmm1
  000b3	f2 0f 10 16	 movsd	 xmm2, QWORD PTR [esi]
  000b7	76 2d		 jbe	 SHORT $LN11@RelativeTo

; 1941 : 		return region.bottom + CMath::Round((dataViewMin - currentPrice)*realHeight);

  000b9	8b 45 14	 mov	 eax, DWORD PTR _realHeight$[ebp]
  000bc	f2 0f 5c d1	 subsd	 xmm2, xmm1
  000c0	83 ec 08	 sub	 esp, 8
  000c3	f2 0f 59 10	 mulsd	 xmm2, QWORD PTR [eax]
  000c7	f2 0f 11 14 24	 movsd	 QWORD PTR [esp], xmm2
  000cc	e8 00 00 00 00	 call	 ?Round@CMath@@SAHN@Z	; CMath::Round
  000d1	8b 73 0c	 mov	 esi, DWORD PTR [ebx+12]
  000d4	83 c4 08	 add	 esp, 8
  000d7	03 f0		 add	 esi, eax
; File C:\Program Files (x86)\Microsoft Visual Studio\2019\Community\VC\Tools\MSVC\14.29.30133\atlmfc\include\atltypes.h

; 408  : 	x = initX;

  000d9	8b 45 08	 mov	 eax, DWORD PTR ___$ReturnUdt$[ebp]
  000dc	89 38		 mov	 DWORD PTR [eax], edi
; File D:\git\src\IBK\IBK_DRFN\ProjSrc\SrcDrfn\Chart\chart_common\DataList\Conversion.cpp

; 1901 : 	return CPoint(x, y);

  000de	5f		 pop	 edi
; File C:\Program Files (x86)\Microsoft Visual Studio\2019\Community\VC\Tools\MSVC\14.29.30133\atlmfc\include\atltypes.h

; 409  : 	y = initY;

  000df	89 70 04	 mov	 DWORD PTR [eax+4], esi
; File D:\git\src\IBK\IBK_DRFN\ProjSrc\SrcDrfn\Chart\chart_common\DataList\Conversion.cpp

; 1901 : 	return CPoint(x, y);

  000e2	5e		 pop	 esi
  000e3	5b		 pop	 ebx

; 1902 : }

  000e4	5d		 pop	 ebp
  000e5	c3		 ret	 0
$LN11@RelativeTo:
; File C:\Program Files (x86)\Microsoft Visual Studio\2019\Community\VC\Tools\MSVC\14.29.30133\atlmfc\include\atltypes.h

; 581  : 	return bottom - top;

  000e6	8b 73 0c	 mov	 esi, DWORD PTR [ebx+12]
; File D:\git\src\IBK\IBK_DRFN\ProjSrc\SrcDrfn\Chart\chart_common\DataList\Conversion.cpp

; 1943 : 	return GetChangingPosition(region.bottom, region.Height(), dataViewMin, dataViewMax - dataViewMin, currentPrice);

  000e9	f2 0f 5c c2	 subsd	 xmm0, xmm2
; File C:\Program Files (x86)\Microsoft Visual Studio\2019\Community\VC\Tools\MSVC\14.29.30133\atlmfc\include\atltypes.h

; 581  : 	return bottom - top;

  000ed	8b ce		 mov	 ecx, esi
  000ef	2b 4b 04	 sub	 ecx, DWORD PTR [ebx+4]
; File D:\git\src\IBK\IBK_DRFN\ProjSrc\SrcDrfn\Chart\chart_common\DataList\Conversion.cpp

; 1859 : 	if(length <= 0 || originLength == 0)

  000f2	85 c9		 test	 ecx, ecx
  000f4	7e 41		 jle	 SHORT $LN17@RelativeTo
  000f6	66 0f 2e 05 00
	00 00 00	 ucomisd xmm0, QWORD PTR __real@0000000000000000
  000fe	9f		 lahf
  000ff	f6 c4 44	 test	 ah, 68			; 00000044H
  00102	7b 33		 jnp	 SHORT $LN17@RelativeTo

; 1861 : 
; 1862 : 	int ChangingLength = CMath::Round(length * ((nowData - originStartData) / originLength));

  00104	f2 0f 5c ca	 subsd	 xmm1, xmm2
  00108	83 ec 08	 sub	 esp, 8
  0010b	f2 0f 5e c8	 divsd	 xmm1, xmm0
  0010f	66 0f 6e c1	 movd	 xmm0, ecx
  00113	f3 0f e6 c0	 cvtdq2pd xmm0, xmm0
  00117	f2 0f 59 c8	 mulsd	 xmm1, xmm0
  0011b	f2 0f 11 0c 24	 movsd	 QWORD PTR [esp], xmm1
  00120	e8 00 00 00 00	 call	 ?Round@CMath@@SAHN@Z	; CMath::Round
  00125	83 c4 08	 add	 esp, 8

; 1863 : 	return (startPos - ChangingLength);

  00128	2b f0		 sub	 esi, eax
; File C:\Program Files (x86)\Microsoft Visual Studio\2019\Community\VC\Tools\MSVC\14.29.30133\atlmfc\include\atltypes.h

; 408  : 	x = initX;

  0012a	8b 45 08	 mov	 eax, DWORD PTR ___$ReturnUdt$[ebp]
  0012d	89 38		 mov	 DWORD PTR [eax], edi
; File D:\git\src\IBK\IBK_DRFN\ProjSrc\SrcDrfn\Chart\chart_common\DataList\Conversion.cpp

; 1901 : 	return CPoint(x, y);

  0012f	5f		 pop	 edi
; File C:\Program Files (x86)\Microsoft Visual Studio\2019\Community\VC\Tools\MSVC\14.29.30133\atlmfc\include\atltypes.h

; 409  : 	y = initY;

  00130	89 70 04	 mov	 DWORD PTR [eax+4], esi
; File D:\git\src\IBK\IBK_DRFN\ProjSrc\SrcDrfn\Chart\chart_common\DataList\Conversion.cpp

; 1901 : 	return CPoint(x, y);

  00133	5e		 pop	 esi
  00134	5b		 pop	 ebx

; 1902 : }

  00135	5d		 pop	 ebp
  00136	c3		 ret	 0
$LN17@RelativeTo:
; File C:\Program Files (x86)\Microsoft Visual Studio\2019\Community\VC\Tools\MSVC\14.29.30133\atlmfc\include\atltypes.h

; 408  : 	x = initX;

  00137	8b 45 08	 mov	 eax, DWORD PTR ___$ReturnUdt$[ebp]
; File D:\git\src\IBK\IBK_DRFN\ProjSrc\SrcDrfn\Chart\chart_common\DataList\Conversion.cpp

; 1860 : 		return -1;

  0013a	83 ce ff	 or	 esi, -1
; File C:\Program Files (x86)\Microsoft Visual Studio\2019\Community\VC\Tools\MSVC\14.29.30133\atlmfc\include\atltypes.h

; 408  : 	x = initX;

  0013d	89 38		 mov	 DWORD PTR [eax], edi
; File D:\git\src\IBK\IBK_DRFN\ProjSrc\SrcDrfn\Chart\chart_common\DataList\Conversion.cpp

; 1901 : 	return CPoint(x, y);

  0013f	5f		 pop	 edi
; File C:\Program Files (x86)\Microsoft Visual Studio\2019\Community\VC\Tools\MSVC\14.29.30133\atlmfc\include\atltypes.h

; 409  : 	y = initY;

  00140	89 70 04	 mov	 DWORD PTR [eax+4], esi
; File D:\git\src\IBK\IBK_DRFN\ProjSrc\SrcDrfn\Chart\chart_common\DataList\Conversion.cpp

; 1901 : 	return CPoint(x, y);

  00143	5e		 pop	 esi
  00144	5b		 pop	 ebx

; 1902 : }

  00145	5d		 pop	 ebp
  00146	c3		 ret	 0
?RelativeToAbsoluteOutDisplayIndex@CDataConversion@@CA?AVCPoint@@ABVCRect@@ABN111HHH1@Z ENDP ; CDataConversion::RelativeToAbsoluteOutDisplayIndex
_TEXT	ENDS
; Function compile flags: /Ogtp
; File D:\git\src\IBK\IBK_DRFN\ProjSrc\SrcDrfn\Chart\chart_common\DataList\Conversion.cpp
; File C:\Program Files (x86)\Microsoft Visual Studio\2019\Community\VC\Tools\MSVC\14.29.30133\atlmfc\include\atltypes.h
; File D:\git\src\IBK\IBK_DRFN\ProjSrc\SrcDrfn\Chart\chart_common\DataList\Conversion.cpp
; File C:\Program Files (x86)\Microsoft Visual Studio\2019\Community\VC\Tools\MSVC\14.29.30133\atlmfc\include\atltypes.h
; File D:\git\src\IBK\IBK_DRFN\ProjSrc\SrcDrfn\Chart\chart_common\DataList\Conversion.cpp
; File C:\Program Files (x86)\Microsoft Visual Studio\2019\Community\VC\Tools\MSVC\14.29.30133\atlmfc\include\atltypes.h
; File D:\git\src\IBK\IBK_DRFN\ProjSrc\SrcDrfn\Chart\chart_common\DataList\Conversion.cpp
; File C:\Program Files (x86)\Microsoft Visual Studio\2019\Community\VC\Tools\MSVC\14.29.30133\atlmfc\include\atltypes.h
; File D:\git\src\IBK\IBK_DRFN\ProjSrc\SrcDrfn\Chart\chart_common\DataList\Conversion.cpp
; File C:\Program Files (x86)\Microsoft Visual Studio\2019\Community\VC\Tools\MSVC\14.29.30133\atlmfc\include\atltypes.h
; File D:\git\src\IBK\IBK_DRFN\ProjSrc\SrcDrfn\Chart\chart_common\DataList\Conversion.cpp
; File C:\Program Files (x86)\Microsoft Visual Studio\2019\Community\VC\Tools\MSVC\14.29.30133\atlmfc\include\atltypes.h
; File D:\git\src\IBK\IBK_DRFN\ProjSrc\SrcDrfn\Chart\chart_common\DataList\Conversion.cpp
; File C:\Program Files (x86)\Microsoft Visual Studio\2019\Community\VC\Tools\MSVC\14.29.30133\atlmfc\include\atltypes.h
; File D:\git\src\IBK\IBK_DRFN\ProjSrc\SrcDrfn\Chart\chart_common\DataList\Conversion.cpp
;	COMDAT ?RelativeToAbsoluteInDisplayIndex@CDataConversion@@CA?AVCPoint@@ABVCRect@@ABN11H1@Z
_TEXT	SEGMENT
___$ReturnUdt$ = 8					; size = 4
_startPos$1$ = 12					; size = 4
_region$ = 12						; size = 4
_realWidth$ = 16					; size = 4
_dataViewMin$ = 20					; size = 4
_dataViewMax$ = 24					; size = 4
_currentIndex$ = 28					; size = 4
_currentPrice$ = 32					; size = 4
?RelativeToAbsoluteInDisplayIndex@CDataConversion@@CA?AVCPoint@@ABVCRect@@ABN11H1@Z PROC ; CDataConversion::RelativeToAbsoluteInDisplayIndex, COMDAT

; 1886 : {

  00000	55		 push	 ebp
  00001	8b ec		 mov	 ebp, esp
  00003	53		 push	 ebx

; 1908 : 	int	x = GetChangingPosition(currentIndex, region.left, realWidth, bCenter);

  00004	8b 5d 0c	 mov	 ebx, DWORD PTR _region$[ebp]

; 1886 : {

  00007	56		 push	 esi
  00008	57		 push	 edi

; 1908 : 	int	x = GetChangingPosition(currentIndex, region.left, realWidth, bCenter);

  00009	8b 03		 mov	 eax, DWORD PTR [ebx]
  0000b	89 45 0c	 mov	 DWORD PTR _startPos$1$[ebp], eax

; 1868 : 	if(nowIndex < 0)

  0000e	8b 45 1c	 mov	 eax, DWORD PTR _currentIndex$[ebp]
  00011	85 c0		 test	 eax, eax
  00013	78 4c		 js	 SHORT $LN20@RelativeTo

; 1869 : 		return -1;
; 1870 : 
; 1871 : 	int nNowPos = CMath::Round(width * nowIndex);

  00015	8b 75 10	 mov	 esi, DWORD PTR _realWidth$[ebp]
  00018	83 ec 08	 sub	 esp, 8
  0001b	66 0f 6e c0	 movd	 xmm0, eax
  0001f	f3 0f e6 c0	 cvtdq2pd xmm0, xmm0
  00023	f2 0f 59 06	 mulsd	 xmm0, QWORD PTR [esi]
  00027	f2 0f 11 04 24	 movsd	 QWORD PTR [esp], xmm0
  0002c	e8 00 00 00 00	 call	 ?Round@CMath@@SAHN@Z	; CMath::Round

; 1872 : 	if(bCenter){
; 1873 : 		int nNextPos = CMath::Round(width * (nowIndex +1));

  00031	8b 4d 1c	 mov	 ecx, DWORD PTR _currentIndex$[ebp]
  00034	8b f8		 mov	 edi, eax
  00036	41		 inc	 ecx
  00037	66 0f 6e c1	 movd	 xmm0, ecx
  0003b	f3 0f e6 c0	 cvtdq2pd xmm0, xmm0
  0003f	f2 0f 59 06	 mulsd	 xmm0, QWORD PTR [esi]
  00043	f2 0f 11 04 24	 movsd	 QWORD PTR [esp], xmm0
  00048	e8 00 00 00 00	 call	 ?Round@CMath@@SAHN@Z	; CMath::Round

; 1874 : 		// line     "". gap 3, 5   .
; 1875 : 		int nHalf = (nNextPos - nNowPos) / 2;

  0004d	2b c7		 sub	 eax, edi
  0004f	83 c4 08	 add	 esp, 8
  00052	99		 cdq
  00053	2b c2		 sub	 eax, edx
  00055	d1 f8		 sar	 eax, 1

; 1876 : 		nNowPos += nHalf;

  00057	03 f8		 add	 edi, eax

; 1877 : 	}
; 1878 : 
; 1879 : 	return (startPos + nNowPos);

  00059	03 7d 0c	 add	 edi, DWORD PTR _startPos$1$[ebp]

; 1909 : 	if(x == -1)

  0005c	83 ff ff	 cmp	 edi, -1
  0005f	75 02		 jne	 SHORT $LN3@RelativeTo
$LN20@RelativeTo:

; 1910 : 		return region.left;

  00061	8b 3b		 mov	 edi, DWORD PTR [ebx]
$LN3@RelativeTo:
; File C:\Program Files (x86)\Microsoft Visual Studio\2019\Community\VC\Tools\MSVC\14.29.30133\atlmfc\include\atltypes.h

; 581  : 	return bottom - top;

  00063	8b 73 0c	 mov	 esi, DWORD PTR [ebx+12]
  00066	8b ce		 mov	 ecx, esi
; File D:\git\src\IBK\IBK_DRFN\ProjSrc\SrcDrfn\Chart\chart_common\DataList\Conversion.cpp

; 1930 : 	return GetChangingPosition(region.bottom, region.Height(), dataViewMin, dataViewMax - dataViewMin, currentPrice);

  00068	8b 45 14	 mov	 eax, DWORD PTR _dataViewMin$[ebp]
; File C:\Program Files (x86)\Microsoft Visual Studio\2019\Community\VC\Tools\MSVC\14.29.30133\atlmfc\include\atltypes.h

; 581  : 	return bottom - top;

  0006b	2b 4b 04	 sub	 ecx, DWORD PTR [ebx+4]
; File D:\git\src\IBK\IBK_DRFN\ProjSrc\SrcDrfn\Chart\chart_common\DataList\Conversion.cpp

; 1930 : 	return GetChangingPosition(region.bottom, region.Height(), dataViewMin, dataViewMax - dataViewMin, currentPrice);

  0006e	f2 0f 10 10	 movsd	 xmm2, QWORD PTR [eax]

; 1859 : 	if(length <= 0 || originLength == 0)

  00072	85 c9		 test	 ecx, ecx
  00074	7e 53		 jle	 SHORT $LN16@RelativeTo

; 1930 : 	return GetChangingPosition(region.bottom, region.Height(), dataViewMin, dataViewMax - dataViewMin, currentPrice);

  00076	8b 45 18	 mov	 eax, DWORD PTR _dataViewMax$[ebp]
  00079	f2 0f 10 00	 movsd	 xmm0, QWORD PTR [eax]
  0007d	f2 0f 5c c2	 subsd	 xmm0, xmm2

; 1859 : 	if(length <= 0 || originLength == 0)

  00081	66 0f 2e 05 00
	00 00 00	 ucomisd xmm0, QWORD PTR __real@0000000000000000
  00089	9f		 lahf
  0008a	f6 c4 44	 test	 ah, 68			; 00000044H
  0008d	7b 3a		 jnp	 SHORT $LN16@RelativeTo

; 1861 : 
; 1862 : 	int ChangingLength = CMath::Round(length * ((nowData - originStartData) / originLength));

  0008f	8b 45 20	 mov	 eax, DWORD PTR _currentPrice$[ebp]
  00092	83 ec 08	 sub	 esp, 8
  00095	f2 0f 10 08	 movsd	 xmm1, QWORD PTR [eax]
  00099	f2 0f 5c ca	 subsd	 xmm1, xmm2
  0009d	f2 0f 5e c8	 divsd	 xmm1, xmm0
  000a1	66 0f 6e c1	 movd	 xmm0, ecx
  000a5	f3 0f e6 c0	 cvtdq2pd xmm0, xmm0
  000a9	f2 0f 59 c8	 mulsd	 xmm1, xmm0
  000ad	f2 0f 11 0c 24	 movsd	 QWORD PTR [esp], xmm1
  000b2	e8 00 00 00 00	 call	 ?Round@CMath@@SAHN@Z	; CMath::Round
  000b7	83 c4 08	 add	 esp, 8

; 1863 : 	return (startPos - ChangingLength);

  000ba	2b f0		 sub	 esi, eax
; File C:\Program Files (x86)\Microsoft Visual Studio\2019\Community\VC\Tools\MSVC\14.29.30133\atlmfc\include\atltypes.h

; 408  : 	x = initX;

  000bc	8b 45 08	 mov	 eax, DWORD PTR ___$ReturnUdt$[ebp]
  000bf	89 38		 mov	 DWORD PTR [eax], edi
; File D:\git\src\IBK\IBK_DRFN\ProjSrc\SrcDrfn\Chart\chart_common\DataList\Conversion.cpp

; 1890 : 	return CPoint(x, y);

  000c1	5f		 pop	 edi
; File C:\Program Files (x86)\Microsoft Visual Studio\2019\Community\VC\Tools\MSVC\14.29.30133\atlmfc\include\atltypes.h

; 409  : 	y = initY;

  000c2	89 70 04	 mov	 DWORD PTR [eax+4], esi
; File D:\git\src\IBK\IBK_DRFN\ProjSrc\SrcDrfn\Chart\chart_common\DataList\Conversion.cpp

; 1890 : 	return CPoint(x, y);

  000c5	5e		 pop	 esi
  000c6	5b		 pop	 ebx

; 1891 : }

  000c7	5d		 pop	 ebp
  000c8	c3		 ret	 0
$LN16@RelativeTo:
; File C:\Program Files (x86)\Microsoft Visual Studio\2019\Community\VC\Tools\MSVC\14.29.30133\atlmfc\include\atltypes.h

; 408  : 	x = initX;

  000c9	8b 45 08	 mov	 eax, DWORD PTR ___$ReturnUdt$[ebp]
; File D:\git\src\IBK\IBK_DRFN\ProjSrc\SrcDrfn\Chart\chart_common\DataList\Conversion.cpp

; 1860 : 		return -1;

  000cc	83 ce ff	 or	 esi, -1
; File C:\Program Files (x86)\Microsoft Visual Studio\2019\Community\VC\Tools\MSVC\14.29.30133\atlmfc\include\atltypes.h

; 408  : 	x = initX;

  000cf	89 38		 mov	 DWORD PTR [eax], edi
; File D:\git\src\IBK\IBK_DRFN\ProjSrc\SrcDrfn\Chart\chart_common\DataList\Conversion.cpp

; 1890 : 	return CPoint(x, y);

  000d1	5f		 pop	 edi
; File C:\Program Files (x86)\Microsoft Visual Studio\2019\Community\VC\Tools\MSVC\14.29.30133\atlmfc\include\atltypes.h

; 409  : 	y = initY;

  000d2	89 70 04	 mov	 DWORD PTR [eax+4], esi
; File D:\git\src\IBK\IBK_DRFN\ProjSrc\SrcDrfn\Chart\chart_common\DataList\Conversion.cpp

; 1890 : 	return CPoint(x, y);

  000d5	5e		 pop	 esi
  000d6	5b		 pop	 ebx

; 1891 : }

  000d7	5d		 pop	 ebp
  000d8	c3		 ret	 0
?RelativeToAbsoluteInDisplayIndex@CDataConversion@@CA?AVCPoint@@ABVCRect@@ABN11H1@Z ENDP ; CDataConversion::RelativeToAbsoluteInDisplayIndex
_TEXT	ENDS
; Function compile flags: /Ogtp
; File D:\git\src\IBK\IBK_DRFN\ProjSrc\SrcDrfn\Chart\chart_common\DataList\Conversion.cpp
;	COMDAT ?GetChangingPosition@CDataConversion@@CAHHHABN_N@Z
_TEXT	SEGMENT
_nowIndex$ = 8						; size = 4
_startPos$ = 12						; size = 4
_width$ = 16						; size = 4
_bCenter$ = 20						; size = 1
?GetChangingPosition@CDataConversion@@CAHHHABN_N@Z PROC	; CDataConversion::GetChangingPosition, COMDAT

; 1867 : {

  00000	55		 push	 ebp
  00001	8b ec		 mov	 ebp, esp
  00003	56		 push	 esi

; 1868 : 	if(nowIndex < 0)

  00004	8b 75 08	 mov	 esi, DWORD PTR _nowIndex$[ebp]
  00007	85 f6		 test	 esi, esi
  00009	79 06		 jns	 SHORT $LN2@GetChangin

; 1869 : 		return -1;

  0000b	83 c8 ff	 or	 eax, -1
  0000e	5e		 pop	 esi

; 1880 : }

  0000f	5d		 pop	 ebp
  00010	c3		 ret	 0
$LN2@GetChangin:
  00011	66 0f 6e c6	 movd	 xmm0, esi

; 1870 : 
; 1871 : 	int nNowPos = CMath::Round(width * nowIndex);

  00015	f3 0f e6 c0	 cvtdq2pd xmm0, xmm0
  00019	53		 push	 ebx
  0001a	8b 5d 10	 mov	 ebx, DWORD PTR _width$[ebp]
  0001d	57		 push	 edi
  0001e	83 ec 08	 sub	 esp, 8
  00021	f2 0f 59 03	 mulsd	 xmm0, QWORD PTR [ebx]
  00025	f2 0f 11 04 24	 movsd	 QWORD PTR [esp], xmm0
  0002a	e8 00 00 00 00	 call	 ?Round@CMath@@SAHN@Z	; CMath::Round
  0002f	83 c4 08	 add	 esp, 8
  00032	8b f8		 mov	 edi, eax

; 1872 : 	if(bCenter){

  00034	80 7d 14 00	 cmp	 BYTE PTR _bCenter$[ebp], 0
  00038	74 28		 je	 SHORT $LN3@GetChangin

; 1873 : 		int nNextPos = CMath::Round(width * (nowIndex +1));

  0003a	8d 4e 01	 lea	 ecx, DWORD PTR [esi+1]
  0003d	83 ec 08	 sub	 esp, 8
  00040	66 0f 6e c1	 movd	 xmm0, ecx
  00044	f3 0f e6 c0	 cvtdq2pd xmm0, xmm0
  00048	f2 0f 59 03	 mulsd	 xmm0, QWORD PTR [ebx]
  0004c	f2 0f 11 04 24	 movsd	 QWORD PTR [esp], xmm0
  00051	e8 00 00 00 00	 call	 ?Round@CMath@@SAHN@Z	; CMath::Round

; 1874 : 		// line     "". gap 3, 5   .
; 1875 : 		int nHalf = (nNextPos - nNowPos) / 2;

  00056	2b c7		 sub	 eax, edi
  00058	83 c4 08	 add	 esp, 8
  0005b	99		 cdq
  0005c	2b c2		 sub	 eax, edx
  0005e	d1 f8		 sar	 eax, 1

; 1876 : 		nNowPos += nHalf;

  00060	03 f8		 add	 edi, eax
$LN3@GetChangin:

; 1877 : 	}
; 1878 : 
; 1879 : 	return (startPos + nNowPos);

  00062	8b 45 0c	 mov	 eax, DWORD PTR _startPos$[ebp]
  00065	03 c7		 add	 eax, edi
  00067	5f		 pop	 edi
  00068	5b		 pop	 ebx
  00069	5e		 pop	 esi

; 1880 : }

  0006a	5d		 pop	 ebp
  0006b	c3		 ret	 0
?GetChangingPosition@CDataConversion@@CAHHHABN_N@Z ENDP	; CDataConversion::GetChangingPosition
_TEXT	ENDS
; Function compile flags: /Ogtp
; File D:\git\src\IBK\IBK_DRFN\ProjSrc\SrcDrfn\Chart\chart_common\DataList\Conversion.cpp
;	COMDAT ?GetChangingPosition@CDataConversion@@CAHHHABN00@Z
_TEXT	SEGMENT
_startPos$ = 8						; size = 4
_length$ = 12						; size = 4
_originStartData$ = 16					; size = 4
_originLength$ = 20					; size = 4
_nowData$ = 24						; size = 4
?GetChangingPosition@CDataConversion@@CAHHHABN00@Z PROC	; CDataConversion::GetChangingPosition, COMDAT

; 1858 : {

  00000	55		 push	 ebp
  00001	8b ec		 mov	 ebp, esp

; 1859 : 	if(length <= 0 || originLength == 0)

  00003	8b 4d 0c	 mov	 ecx, DWORD PTR _length$[ebp]
  00006	85 c9		 test	 ecx, ecx
  00008	7e 4c		 jle	 SHORT $LN3@GetChangin
  0000a	8b 45 14	 mov	 eax, DWORD PTR _originLength$[ebp]
  0000d	f2 0f 10 00	 movsd	 xmm0, QWORD PTR [eax]
  00011	66 0f 2e 05 00
	00 00 00	 ucomisd xmm0, QWORD PTR __real@0000000000000000
  00019	9f		 lahf
  0001a	f6 c4 44	 test	 ah, 68			; 00000044H
  0001d	7b 37		 jnp	 SHORT $LN3@GetChangin

; 1861 : 
; 1862 : 	int ChangingLength = CMath::Round(length * ((nowData - originStartData) / originLength));

  0001f	8b 45 18	 mov	 eax, DWORD PTR _nowData$[ebp]
  00022	83 ec 08	 sub	 esp, 8
  00025	f2 0f 10 08	 movsd	 xmm1, QWORD PTR [eax]
  00029	8b 45 10	 mov	 eax, DWORD PTR _originStartData$[ebp]
  0002c	f2 0f 5c 08	 subsd	 xmm1, QWORD PTR [eax]
  00030	f2 0f 5e c8	 divsd	 xmm1, xmm0
  00034	66 0f 6e c1	 movd	 xmm0, ecx
  00038	f3 0f e6 c0	 cvtdq2pd xmm0, xmm0
  0003c	f2 0f 59 c8	 mulsd	 xmm1, xmm0
  00040	f2 0f 11 0c 24	 movsd	 QWORD PTR [esp], xmm1
  00045	e8 00 00 00 00	 call	 ?Round@CMath@@SAHN@Z	; CMath::Round

; 1863 : 	return (startPos - ChangingLength);

  0004a	8b 4d 08	 mov	 ecx, DWORD PTR _startPos$[ebp]
  0004d	83 c4 08	 add	 esp, 8
  00050	2b c8		 sub	 ecx, eax
  00052	8b c1		 mov	 eax, ecx

; 1864 : }

  00054	5d		 pop	 ebp
  00055	c3		 ret	 0
$LN3@GetChangin:

; 1860 : 		return -1;

  00056	83 c8 ff	 or	 eax, -1

; 1864 : }

  00059	5d		 pop	 ebp
  0005a	c3		 ret	 0
?GetChangingPosition@CDataConversion@@CAHHHABN00@Z ENDP	; CDataConversion::GetChangingPosition
_TEXT	ENDS
; Function compile flags: /Ogtp
; File D:\git\src\IBK\IBK_DRFN\ProjSrc\SrcDrfn\Chart\chart_common\DataList\Conversion.cpp
; File C:\Program Files (x86)\Microsoft Visual Studio\2019\Community\VC\Tools\MSVC\14.29.30133\atlmfc\include\cstringt.h
; File D:\git\src\IBK\IBK_DRFN\ProjSrc\SrcDrfn\Chart\chart_common\DataList\Conversion.cpp
; File C:\Program Files (x86)\Microsoft Visual Studio\2019\Community\VC\Tools\MSVC\14.29.30133\atlmfc\include\cstringt.h
; File D:\git\src\IBK\IBK_DRFN\ProjSrc\SrcDrfn\Chart\chart_common\DataList\Conversion.cpp
; File C:\Program Files (x86)\Microsoft Visual Studio\2019\Community\VC\Tools\MSVC\14.29.30133\atlmfc\include\cstringt.h
; File D:\git\src\IBK\IBK_DRFN\ProjSrc\SrcDrfn\Chart\chart_common\DataList\Conversion.cpp
;	COMDAT ?IsPluse@CDataConversion@@CA_NABV?$CStringT@DV?$StrTraitMFC_DLL@DV?$ChTraitsCRT@D@ATL@@@@@ATL@@@Z
_TEXT	SEGMENT
$T1 = -4						; size = 4
_data$ = 8						; size = 4
?IsPluse@CDataConversion@@CA_NABV?$CStringT@DV?$StrTraitMFC_DLL@DV?$ChTraitsCRT@D@ATL@@@@@ATL@@@Z PROC ; CDataConversion::IsPluse, COMDAT

; 1851 : {

  00000	55		 push	 ebp
  00001	8b ec		 mov	 ebp, esp
  00003	51		 push	 ecx

; 1852 : 	return (data.Left(1) != '-');

  00004	8b 4d 08	 mov	 ecx, DWORD PTR _data$[ebp]
  00007	8d 45 fc	 lea	 eax, DWORD PTR $T1[ebp]
  0000a	53		 push	 ebx
  0000b	6a 01		 push	 1
  0000d	50		 push	 eax
  0000e	ff 15 00 00 00
	00		 call	 DWORD PTR __imp_?Left@?$CStringT@DV?$StrTraitMFC_DLL@DV?$ChTraitsCRT@D@ATL@@@@@ATL@@QBE?AV12@H@Z
; File C:\Program Files (x86)\Microsoft Visual Studio\2019\Community\VC\Tools\MSVC\14.29.30133\atlmfc\include\cstringt.h

; 2699 : 		return((str1.GetLength() != 1) || (str1[0] != ch2));

  00014	8b 08		 mov	 ecx, DWORD PTR [eax]
  00016	83 79 f4 01	 cmp	 DWORD PTR [ecx-12], 1
  0001a	75 20		 jne	 SHORT $LN6@IsPluse
  0001c	6a 00		 push	 0
  0001e	8b c8		 mov	 ecx, eax
  00020	ff 15 00 00 00
	00		 call	 DWORD PTR __imp_??A?$CSimpleStringT@D$00@ATL@@QBEDH@Z
  00026	3c 2d		 cmp	 al, 45			; 0000002dH
  00028	75 12		 jne	 SHORT $LN6@IsPluse
; File D:\git\src\IBK\IBK_DRFN\ProjSrc\SrcDrfn\Chart\chart_common\DataList\Conversion.cpp

; 1852 : 	return (data.Left(1) != '-');

  0002a	8d 4d fc	 lea	 ecx, DWORD PTR $T1[ebp]
; File C:\Program Files (x86)\Microsoft Visual Studio\2019\Community\VC\Tools\MSVC\14.29.30133\atlmfc\include\cstringt.h

; 2699 : 		return((str1.GetLength() != 1) || (str1[0] != ch2));

  0002d	32 db		 xor	 bl, bl
; File D:\git\src\IBK\IBK_DRFN\ProjSrc\SrcDrfn\Chart\chart_common\DataList\Conversion.cpp

; 1852 : 	return (data.Left(1) != '-');

  0002f	ff 15 00 00 00
	00		 call	 DWORD PTR __imp_??1?$CStringT@DV?$StrTraitMFC_DLL@DV?$ChTraitsCRT@D@ATL@@@@@ATL@@QAE@XZ
  00035	8a c3		 mov	 al, bl
  00037	5b		 pop	 ebx

; 1853 : }

  00038	8b e5		 mov	 esp, ebp
  0003a	5d		 pop	 ebp
  0003b	c3		 ret	 0
$LN6@IsPluse:

; 1852 : 	return (data.Left(1) != '-');

  0003c	8d 4d fc	 lea	 ecx, DWORD PTR $T1[ebp]
; File C:\Program Files (x86)\Microsoft Visual Studio\2019\Community\VC\Tools\MSVC\14.29.30133\atlmfc\include\cstringt.h

; 2699 : 		return((str1.GetLength() != 1) || (str1[0] != ch2));

  0003f	b3 01		 mov	 bl, 1
; File D:\git\src\IBK\IBK_DRFN\ProjSrc\SrcDrfn\Chart\chart_common\DataList\Conversion.cpp

; 1852 : 	return (data.Left(1) != '-');

  00041	ff 15 00 00 00
	00		 call	 DWORD PTR __imp_??1?$CStringT@DV?$StrTraitMFC_DLL@DV?$ChTraitsCRT@D@ATL@@@@@ATL@@QAE@XZ
  00047	8a c3		 mov	 al, bl
  00049	5b		 pop	 ebx

; 1853 : }

  0004a	8b e5		 mov	 esp, ebp
  0004c	5d		 pop	 ebp
  0004d	c3		 ret	 0
?IsPluse@CDataConversion@@CA_NABV?$CStringT@DV?$StrTraitMFC_DLL@DV?$ChTraitsCRT@D@ATL@@@@@ATL@@@Z ENDP ; CDataConversion::IsPluse
_TEXT	ENDS
; Function compile flags: /Ogtp
; File D:\git\src\IBK\IBK_DRFN\ProjSrc\SrcDrfn\Chart\chart_common\DataList\Conversion.cpp
;	COMDAT ?GetHourTime_Future@CDataConversion@@CAXHH_NAAH1@Z
_TEXT	SEGMENT
_nBaseHour$ = 8						; size = 4
_nAddHour$ = 12						; size = 4
_bIsTransactionTime$ = 16				; size = 1
_nDay$ = 20						; size = 4
_nHour$ = 24						; size = 4
?GetHourTime_Future@CDataConversion@@CAXHH_NAAH1@Z PROC	; CDataConversion::GetHourTime_Future, COMDAT

; 438  : {

  00000	55		 push	 ebp
  00001	8b ec		 mov	 ebp, esp

; 439  : 	//    . 0 ~ 24
; 440  : 	if(!bIsTransactionTime)

  00003	80 7d 10 00	 cmp	 BYTE PTR _bIsTransactionTime$[ebp], 0
  00007	75 17		 jne	 SHORT $LN2@GetHourTim

; 962  : 	while(nData1 >= nLimitData1)

  00009	8b 45 18	 mov	 eax, DWORD PTR _nHour$[ebp]
  0000c	83 38 18	 cmp	 DWORD PTR [eax], 24	; 00000018H
  0000f	7c 4d		 jl	 SHORT $LN3@GetHourTim
  00011	8b 4d 14	 mov	 ecx, DWORD PTR _nDay$[ebp]
$LL7@GetHourTim:

; 963  : 	{
; 964  : 		nData1 -= nLimitData1;

  00014	83 00 e8	 add	 DWORD PTR [eax], -24	; ffffffe8H

; 965  : 		nData2++;

  00017	ff 01		 inc	 DWORD PTR [ecx]
  00019	83 38 18	 cmp	 DWORD PTR [eax], 24	; 00000018H
  0001c	7d f6		 jge	 SHORT $LL7@GetHourTim

; 456  : 	}
; 457  : }

  0001e	5d		 pop	 ebp
  0001f	c3		 ret	 0
$LN2@GetHourTim:

; 441  : 	{
; 442  : 		GetDataInLimit(24, nHour, nDay);
; 443  : 		return;
; 444  : 	}
; 445  : 
; 446  : 	//   . 9 ~ 15
; 447  : 	nDay += (nAddHour / 6);

  00020	b8 ab aa aa 2a	 mov	 eax, 715827883		; 2aaaaaabH
  00025	f7 6d 0c	 imul	 DWORD PTR _nAddHour$[ebp]
  00028	56		 push	 esi
  00029	8b c2		 mov	 eax, edx
  0002b	c1 e8 1f	 shr	 eax, 31			; 0000001fH
  0002e	03 c2		 add	 eax, edx
  00030	8b 55 14	 mov	 edx, DWORD PTR _nDay$[ebp]

; 448  : 	nHour = nBaseHour + (nAddHour % 6);

  00033	5e		 pop	 esi
  00034	01 02		 add	 DWORD PTR [edx], eax
  00036	8d 0c 40	 lea	 ecx, DWORD PTR [eax+eax*2]
  00039	8b 45 08	 mov	 eax, DWORD PTR _nBaseHour$[ebp]
  0003c	03 c9		 add	 ecx, ecx
  0003e	2b c1		 sub	 eax, ecx
  00040	8b 4d 18	 mov	 ecx, DWORD PTR _nHour$[ebp]
  00043	03 45 0c	 add	 eax, DWORD PTR _nAddHour$[ebp]
  00046	89 01		 mov	 DWORD PTR [ecx], eax

; 449  : 	if(nHour > 15)

  00048	83 f8 0f	 cmp	 eax, 15			; 0000000fH
  0004b	7e 11		 jle	 SHORT $LN3@GetHourTim

; 450  : 	{
; 451  : 		nHour -= 15;

  0004d	83 c0 f1	 add	 eax, -15		; fffffff1H
  00050	89 01		 mov	 DWORD PTR [ecx], eax

; 452  : 		if(nHour < 9)

  00052	83 f8 09	 cmp	 eax, 9
  00055	7d 05		 jge	 SHORT $LN4@GetHourTim

; 453  : 			nHour += 8;

  00057	83 c0 08	 add	 eax, 8
  0005a	89 01		 mov	 DWORD PTR [ecx], eax
$LN4@GetHourTim:

; 454  : 
; 455  : 		nDay++;

  0005c	ff 02		 inc	 DWORD PTR [edx]
$LN3@GetHourTim:

; 456  : 	}
; 457  : }

  0005e	5d		 pop	 ebp
  0005f	c3		 ret	 0
?GetHourTime_Future@CDataConversion@@CAXHH_NAAH1@Z ENDP	; CDataConversion::GetHourTime_Future
_TEXT	ENDS
; Function compile flags: /Ogtp
; File D:\git\src\IBK\IBK_DRFN\ProjSrc\SrcDrfn\Chart\chart_common\DataList\Conversion.cpp
; File C:\Program Files (x86)\Microsoft Visual Studio\2019\Community\VC\Tools\MSVC\14.29.30133\atlmfc\include\atlsimpstr.h
; File D:\git\src\IBK\IBK_DRFN\ProjSrc\SrcDrfn\Chart\chart_common\DataList\Conversion.cpp
;	COMDAT ?GetTimeInFormat@CDataConversion@@CAHABV?$CStringT@DV?$StrTraitMFC_DLL@DV?$ChTraitsCRT@D@ATL@@@@@ATL@@HHHH@Z
_TEXT	SEGMENT
$T2 = -16						; size = 4
$T3 = -16						; size = 4
$T4 = -16						; size = 4
$T5 = -16						; size = 4
$T6 = -16						; size = 4
__$EHRec$ = -12						; size = 12
_strAllData$ = 8					; size = 4
_strFormat$ = 8						; size = 4
_nDay$ = 12						; size = 4
_nHour$ = 16						; size = 4
_nMin$ = 20						; size = 4
_nSec$ = 24						; size = 4
?GetTimeInFormat@CDataConversion@@CAHABV?$CStringT@DV?$StrTraitMFC_DLL@DV?$ChTraitsCRT@D@ATL@@@@@ATL@@HHHH@Z PROC ; CDataConversion::GetTimeInFormat, COMDAT

; 500  : {

  00000	55		 push	 ebp
  00001	8b ec		 mov	 ebp, esp
  00003	6a ff		 push	 -1
  00005	68 00 00 00 00	 push	 __ehhandler$?GetTimeInFormat@CDataConversion@@CAHABV?$CStringT@DV?$StrTraitMFC_DLL@DV?$ChTraitsCRT@D@ATL@@@@@ATL@@HHHH@Z
  0000a	64 a1 00 00 00
	00		 mov	 eax, DWORD PTR fs:0
  00010	50		 push	 eax
  00011	51		 push	 ecx
  00012	56		 push	 esi
  00013	a1 00 00 00 00	 mov	 eax, DWORD PTR ___security_cookie
  00018	33 c5		 xor	 eax, ebp
  0001a	50		 push	 eax
  0001b	8d 45 f4	 lea	 eax, DWORD PTR __$EHRec$[ebp]
  0001e	64 a3 00 00 00
	00		 mov	 DWORD PTR fs:0, eax
; File C:\Program Files (x86)\Microsoft Visual Studio\2019\Community\VC\Tools\MSVC\14.29.30133\atlmfc\include\atlsimpstr.h

; 519  : 		return( GetData()->nDataLength );

  00024	8b 75 08	 mov	 esi, DWORD PTR _strFormat$[ebp]
  00027	8b 06		 mov	 eax, DWORD PTR [esi]

; 533  : 		return( GetLength() == 0 );

  00029	83 78 f4 00	 cmp	 DWORD PTR [eax-12], 0
; File D:\git\src\IBK\IBK_DRFN\ProjSrc\SrcDrfn\Chart\chart_common\DataList\Conversion.cpp

; 501  : 	if(strFormat.IsEmpty())

  0002d	75 12		 jne	 SHORT $LN2@GetTimeInF

; 502  : 		return 0;

  0002f	33 c0		 xor	 eax, eax

; 522  : }

  00031	8b 4d f4	 mov	 ecx, DWORD PTR __$EHRec$[ebp]
  00034	64 89 0d 00 00
	00 00		 mov	 DWORD PTR fs:0, ecx
  0003b	59		 pop	 ecx
  0003c	5e		 pop	 esi
  0003d	8b e5		 mov	 esp, ebp
  0003f	5d		 pop	 ebp
  00040	c3		 ret	 0
$LN2@GetTimeInF:

; 503  : 
; 504  : 	CString strAllData;

  00041	8d 4d 08	 lea	 ecx, DWORD PTR _strAllData$[ebp]
  00044	ff 15 00 00 00
	00		 call	 DWORD PTR __imp_??0?$CStringT@DV?$StrTraitMFC_DLL@DV?$ChTraitsCRT@D@ATL@@@@@ATL@@QAE@XZ

; 505  : 	//
; 506  : 	if(strFormat.Find("MMDD") >= 0)

  0004a	6a 00		 push	 0
  0004c	68 00 00 00 00	 push	 OFFSET ??_C@_04BDEGLLOH@MMDD@
  00051	8b ce		 mov	 ecx, esi
  00053	c7 45 fc 00 00
	00 00		 mov	 DWORD PTR __$EHRec$[ebp+8], 0
  0005a	ff 15 00 00 00
	00		 call	 DWORD PTR __imp_?Find@?$CStringT@DV?$StrTraitMFC_DLL@DV?$ChTraitsCRT@D@ATL@@@@@ATL@@QBEHPBDH@Z
  00060	85 c0		 test	 eax, eax
  00062	78 17		 js	 SHORT $LN3@GetTimeInF

; 507  : 		strAllData = IntToString(nDay, 4);

  00064	6a 04		 push	 4
  00066	ff 75 0c	 push	 DWORD PTR _nDay$[ebp]
  00069	8d 45 f0	 lea	 eax, DWORD PTR $T6[ebp]
  0006c	50		 push	 eax
  0006d	e8 00 00 00 00	 call	 ?IntToString@CDataConversion@@SA?AV?$CStringT@DV?$StrTraitMFC_DLL@DV?$ChTraitsCRT@D@ATL@@@@@ATL@@HH@Z ; CDataConversion::IntToString
  00072	83 c4 0c	 add	 esp, 12			; 0000000cH
  00075	c6 45 fc 01	 mov	 BYTE PTR __$EHRec$[ebp+8], 1
  00079	eb 28		 jmp	 SHORT $LN25@GetTimeInF
$LN3@GetTimeInF:

; 508  : 	else if(strFormat.Find("DD") >= 0)

  0007b	6a 00		 push	 0
  0007d	68 00 00 00 00	 push	 OFFSET ??_C@_02ODDIIJPA@DD@
  00082	8b ce		 mov	 ecx, esi
  00084	ff 15 00 00 00
	00		 call	 DWORD PTR __imp_?Find@?$CStringT@DV?$StrTraitMFC_DLL@DV?$ChTraitsCRT@D@ATL@@@@@ATL@@QBEHPBDH@Z
  0008a	85 c0		 test	 eax, eax
  0008c	78 2c		 js	 SHORT $LN5@GetTimeInF

; 509  : 		strAllData = IntToString(nDay, 2);

  0008e	6a 02		 push	 2
  00090	ff 75 0c	 push	 DWORD PTR _nDay$[ebp]
  00093	8d 45 f0	 lea	 eax, DWORD PTR $T5[ebp]
  00096	50		 push	 eax
  00097	e8 00 00 00 00	 call	 ?IntToString@CDataConversion@@SA?AV?$CStringT@DV?$StrTraitMFC_DLL@DV?$ChTraitsCRT@D@ATL@@@@@ATL@@HH@Z ; CDataConversion::IntToString
  0009c	83 c4 0c	 add	 esp, 12			; 0000000cH
  0009f	c6 45 fc 02	 mov	 BYTE PTR __$EHRec$[ebp+8], 2
$LN25@GetTimeInF:

; 510  : 
; 511  : 	//
; 512  : 	if(strFormat.Find("HH") >= 0)

  000a3	50		 push	 eax
  000a4	8d 4d 08	 lea	 ecx, DWORD PTR _strAllData$[ebp]
  000a7	ff 15 00 00 00
	00		 call	 DWORD PTR __imp_??4?$CStringT@DV?$StrTraitMFC_DLL@DV?$ChTraitsCRT@D@ATL@@@@@ATL@@QAEAAV01@ABV01@@Z
  000ad	8d 4d f0	 lea	 ecx, DWORD PTR $T5[ebp]
  000b0	c6 45 fc 00	 mov	 BYTE PTR __$EHRec$[ebp+8], 0
  000b4	ff 15 00 00 00
	00		 call	 DWORD PTR __imp_??1?$CStringT@DV?$StrTraitMFC_DLL@DV?$ChTraitsCRT@D@ATL@@@@@ATL@@QAE@XZ
$LN5@GetTimeInF:
  000ba	6a 00		 push	 0
  000bc	68 00 00 00 00	 push	 OFFSET ??_C@_02EGJHDPJI@HH@
  000c1	8b ce		 mov	 ecx, esi
  000c3	ff 15 00 00 00
	00		 call	 DWORD PTR __imp_?Find@?$CStringT@DV?$StrTraitMFC_DLL@DV?$ChTraitsCRT@D@ATL@@@@@ATL@@QBEHPBDH@Z
  000c9	85 c0		 test	 eax, eax
  000cb	78 2c		 js	 SHORT $LN6@GetTimeInF

; 513  : 		strAllData += IntToString(nHour, 2);

  000cd	6a 02		 push	 2
  000cf	ff 75 10	 push	 DWORD PTR _nHour$[ebp]
  000d2	8d 45 f0	 lea	 eax, DWORD PTR $T4[ebp]
  000d5	50		 push	 eax
  000d6	e8 00 00 00 00	 call	 ?IntToString@CDataConversion@@SA?AV?$CStringT@DV?$StrTraitMFC_DLL@DV?$ChTraitsCRT@D@ATL@@@@@ATL@@HH@Z ; CDataConversion::IntToString
  000db	83 c4 0c	 add	 esp, 12			; 0000000cH
  000de	50		 push	 eax
  000df	8d 4d 08	 lea	 ecx, DWORD PTR _strAllData$[ebp]
  000e2	c6 45 fc 03	 mov	 BYTE PTR __$EHRec$[ebp+8], 3
  000e6	ff 15 00 00 00
	00		 call	 DWORD PTR __imp_??Y?$CStringT@DV?$StrTraitMFC_DLL@DV?$ChTraitsCRT@D@ATL@@@@@ATL@@QAEAAV01@ABV?$CSimpleStringT@D$00@1@@Z
  000ec	8d 4d f0	 lea	 ecx, DWORD PTR $T4[ebp]
  000ef	c6 45 fc 00	 mov	 BYTE PTR __$EHRec$[ebp+8], 0
  000f3	ff 15 00 00 00
	00		 call	 DWORD PTR __imp_??1?$CStringT@DV?$StrTraitMFC_DLL@DV?$ChTraitsCRT@D@ATL@@@@@ATL@@QAE@XZ
$LN6@GetTimeInF:

; 514  : 	//
; 515  : 	if(strFormat.Find("MM", 2) >= 0)

  000f9	6a 02		 push	 2
  000fb	68 00 00 00 00	 push	 OFFSET ??_C@_02DNCLAJDG@MM@
  00100	8b ce		 mov	 ecx, esi
  00102	ff 15 00 00 00
	00		 call	 DWORD PTR __imp_?Find@?$CStringT@DV?$StrTraitMFC_DLL@DV?$ChTraitsCRT@D@ATL@@@@@ATL@@QBEHPBDH@Z
  00108	85 c0		 test	 eax, eax
  0010a	78 2c		 js	 SHORT $LN7@GetTimeInF

; 516  : 		strAllData += IntToString(nMin, 2);

  0010c	6a 02		 push	 2
  0010e	ff 75 14	 push	 DWORD PTR _nMin$[ebp]
  00111	8d 45 f0	 lea	 eax, DWORD PTR $T3[ebp]
  00114	50		 push	 eax
  00115	e8 00 00 00 00	 call	 ?IntToString@CDataConversion@@SA?AV?$CStringT@DV?$StrTraitMFC_DLL@DV?$ChTraitsCRT@D@ATL@@@@@ATL@@HH@Z ; CDataConversion::IntToString
  0011a	83 c4 0c	 add	 esp, 12			; 0000000cH
  0011d	50		 push	 eax
  0011e	8d 4d 08	 lea	 ecx, DWORD PTR _strAllData$[ebp]
  00121	c6 45 fc 04	 mov	 BYTE PTR __$EHRec$[ebp+8], 4
  00125	ff 15 00 00 00
	00		 call	 DWORD PTR __imp_??Y?$CStringT@DV?$StrTraitMFC_DLL@DV?$ChTraitsCRT@D@ATL@@@@@ATL@@QAEAAV01@ABV?$CSimpleStringT@D$00@1@@Z
  0012b	8d 4d f0	 lea	 ecx, DWORD PTR $T3[ebp]
  0012e	c6 45 fc 00	 mov	 BYTE PTR __$EHRec$[ebp+8], 0
  00132	ff 15 00 00 00
	00		 call	 DWORD PTR __imp_??1?$CStringT@DV?$StrTraitMFC_DLL@DV?$ChTraitsCRT@D@ATL@@@@@ATL@@QAE@XZ
$LN7@GetTimeInF:

; 517  : 	//
; 518  : 	if(strFormat.Find("SS") >= 0)

  00138	6a 00		 push	 0
  0013a	68 00 00 00 00	 push	 OFFSET ??_C@_02PPNCLIJD@SS@
  0013f	8b ce		 mov	 ecx, esi
  00141	ff 15 00 00 00
	00		 call	 DWORD PTR __imp_?Find@?$CStringT@DV?$StrTraitMFC_DLL@DV?$ChTraitsCRT@D@ATL@@@@@ATL@@QBEHPBDH@Z
  00147	85 c0		 test	 eax, eax
  00149	78 28		 js	 SHORT $LN8@GetTimeInF

; 519  : 		strAllData += IntToString(nSec, 2);

  0014b	6a 02		 push	 2
  0014d	ff 75 18	 push	 DWORD PTR _nSec$[ebp]
  00150	8d 45 f0	 lea	 eax, DWORD PTR $T2[ebp]
  00153	50		 push	 eax
  00154	e8 00 00 00 00	 call	 ?IntToString@CDataConversion@@SA?AV?$CStringT@DV?$StrTraitMFC_DLL@DV?$ChTraitsCRT@D@ATL@@@@@ATL@@HH@Z ; CDataConversion::IntToString
  00159	83 c4 0c	 add	 esp, 12			; 0000000cH
  0015c	50		 push	 eax
  0015d	8d 4d 08	 lea	 ecx, DWORD PTR _strAllData$[ebp]
  00160	c6 45 fc 05	 mov	 BYTE PTR __$EHRec$[ebp+8], 5
  00164	ff 15 00 00 00
	00		 call	 DWORD PTR __imp_??Y?$CStringT@DV?$StrTraitMFC_DLL@DV?$ChTraitsCRT@D@ATL@@@@@ATL@@QAEAAV01@ABV?$CSimpleStringT@D$00@1@@Z
  0016a	8d 4d f0	 lea	 ecx, DWORD PTR $T2[ebp]
  0016d	ff 15 00 00 00
	00		 call	 DWORD PTR __imp_??1?$CStringT@DV?$StrTraitMFC_DLL@DV?$ChTraitsCRT@D@ATL@@@@@ATL@@QAE@XZ
$LN8@GetTimeInF:

; 520  : 
; 521  : 	return atoi(strAllData);

  00173	ff 75 08	 push	 DWORD PTR _strAllData$[ebp]
  00176	ff 15 00 00 00
	00		 call	 DWORD PTR __imp__atoi
  0017c	83 c4 04	 add	 esp, 4
  0017f	8d 4d 08	 lea	 ecx, DWORD PTR _strAllData$[ebp]
  00182	8b f0		 mov	 esi, eax
  00184	ff 15 00 00 00
	00		 call	 DWORD PTR __imp_??1?$CStringT@DV?$StrTraitMFC_DLL@DV?$ChTraitsCRT@D@ATL@@@@@ATL@@QAE@XZ
  0018a	8b c6		 mov	 eax, esi

; 522  : }

  0018c	8b 4d f4	 mov	 ecx, DWORD PTR __$EHRec$[ebp]
  0018f	64 89 0d 00 00
	00 00		 mov	 DWORD PTR fs:0, ecx
  00196	59		 pop	 ecx
  00197	5e		 pop	 esi
  00198	8b e5		 mov	 esp, ebp
  0019a	5d		 pop	 ebp
  0019b	c3		 ret	 0
_TEXT	ENDS
;	COMDAT text$x
text$x	SEGMENT
__unwindfunclet$?GetTimeInFormat@CDataConversion@@CAHABV?$CStringT@DV?$StrTraitMFC_DLL@DV?$ChTraitsCRT@D@ATL@@@@@ATL@@HHHH@Z$0:
  00000	8d 4d 08	 lea	 ecx, DWORD PTR _strAllData$[ebp]
  00003	ff 25 00 00 00
	00		 jmp	 DWORD PTR __imp_??1?$CStringT@DV?$StrTraitMFC_DLL@DV?$ChTraitsCRT@D@ATL@@@@@ATL@@QAE@XZ
__unwindfunclet$?GetTimeInFormat@CDataConversion@@CAHABV?$CStringT@DV?$StrTraitMFC_DLL@DV?$ChTraitsCRT@D@ATL@@@@@ATL@@HHHH@Z$1:
  00009	8d 4d f0	 lea	 ecx, DWORD PTR $T6[ebp]
  0000c	ff 25 00 00 00
	00		 jmp	 DWORD PTR __imp_??1?$CStringT@DV?$StrTraitMFC_DLL@DV?$ChTraitsCRT@D@ATL@@@@@ATL@@QAE@XZ
__unwindfunclet$?GetTimeInFormat@CDataConversion@@CAHABV?$CStringT@DV?$StrTraitMFC_DLL@DV?$ChTraitsCRT@D@ATL@@@@@ATL@@HHHH@Z$2:
  00012	8d 4d f0	 lea	 ecx, DWORD PTR $T5[ebp]
  00015	ff 25 00 00 00
	00		 jmp	 DWORD PTR __imp_??1?$CStringT@DV?$StrTraitMFC_DLL@DV?$ChTraitsCRT@D@ATL@@@@@ATL@@QAE@XZ
__unwindfunclet$?GetTimeInFormat@CDataConversion@@CAHABV?$CStringT@DV?$StrTraitMFC_DLL@DV?$ChTraitsCRT@D@ATL@@@@@ATL@@HHHH@Z$3:
  0001b	8d 4d f0	 lea	 ecx, DWORD PTR $T4[ebp]
  0001e	ff 25 00 00 00
	00		 jmp	 DWORD PTR __imp_??1?$CStringT@DV?$StrTraitMFC_DLL@DV?$ChTraitsCRT@D@ATL@@@@@ATL@@QAE@XZ
__unwindfunclet$?GetTimeInFormat@CDataConversion@@CAHABV?$CStringT@DV?$StrTraitMFC_DLL@DV?$ChTraitsCRT@D@ATL@@@@@ATL@@HHHH@Z$4:
  00024	8d 4d f0	 lea	 ecx, DWORD PTR $T3[ebp]
  00027	ff 25 00 00 00
	00		 jmp	 DWORD PTR __imp_??1?$CStringT@DV?$StrTraitMFC_DLL@DV?$ChTraitsCRT@D@ATL@@@@@ATL@@QAE@XZ
__unwindfunclet$?GetTimeInFormat@CDataConversion@@CAHABV?$CStringT@DV?$StrTraitMFC_DLL@DV?$ChTraitsCRT@D@ATL@@@@@ATL@@HHHH@Z$5:
  0002d	8d 4d f0	 lea	 ecx, DWORD PTR $T2[ebp]
  00030	ff 25 00 00 00
	00		 jmp	 DWORD PTR __imp_??1?$CStringT@DV?$StrTraitMFC_DLL@DV?$ChTraitsCRT@D@ATL@@@@@ATL@@QAE@XZ
  00036	cc		 int	 3
  00037	cc		 int	 3
  00038	cc		 int	 3
  00039	cc		 int	 3
  0003a	cc		 int	 3
__ehhandler$?GetTimeInFormat@CDataConversion@@CAHABV?$CStringT@DV?$StrTraitMFC_DLL@DV?$ChTraitsCRT@D@ATL@@@@@ATL@@HHHH@Z:
  0003b	90		 npad	 1
  0003c	90		 npad	 1
  0003d	8b 54 24 08	 mov	 edx, DWORD PTR [esp+8]
  00041	8d 42 0c	 lea	 eax, DWORD PTR [edx+12]
  00044	8b 4a f4	 mov	 ecx, DWORD PTR [edx-12]
  00047	33 c8		 xor	 ecx, eax
  00049	e8 00 00 00 00	 call	 @__security_check_cookie@4
  0004e	b8 00 00 00 00	 mov	 eax, OFFSET __ehfuncinfo$?GetTimeInFormat@CDataConversion@@CAHABV?$CStringT@DV?$StrTraitMFC_DLL@DV?$ChTraitsCRT@D@ATL@@@@@ATL@@HHHH@Z
  00053	e9 00 00 00 00	 jmp	 ___CxxFrameHandler3
text$x	ENDS
?GetTimeInFormat@CDataConversion@@CAHABV?$CStringT@DV?$StrTraitMFC_DLL@DV?$ChTraitsCRT@D@ATL@@@@@ATL@@HHHH@Z ENDP ; CDataConversion::GetTimeInFormat
; Function compile flags: /Ogtp
; File D:\git\src\IBK\IBK_DRFN\ProjSrc\SrcDrfn\Chart\chart_common\DataList\Conversion.cpp
; File C:\Program Files (x86)\Microsoft Visual Studio\2019\Community\VC\Tools\MSVC\14.29.30133\atlmfc\include\atlsimpstr.h
; File D:\git\src\IBK\IBK_DRFN\ProjSrc\SrcDrfn\Chart\chart_common\DataList\Conversion.cpp
; File C:\Program Files (x86)\Microsoft Visual Studio\2019\Community\VC\Tools\MSVC\14.29.30133\atlmfc\include\atlsimpstr.h
; File D:\git\src\IBK\IBK_DRFN\ProjSrc\SrcDrfn\Chart\chart_common\DataList\Conversion.cpp
; File C:\Program Files (x86)\Microsoft Visual Studio\2019\Community\VC\Tools\MSVC\14.29.30133\atlmfc\include\atlsimpstr.h
; File D:\git\src\IBK\IBK_DRFN\ProjSrc\SrcDrfn\Chart\chart_common\DataList\Conversion.cpp
;	COMDAT ?GetTimeData@CDataConversion@@CA_NABV?$CStringT@DV?$StrTraitMFC_DLL@DV?$ChTraitsCRT@D@ATL@@@@@ATL@@000HAAH1@Z
_TEXT	SEGMENT
$T2 = -16						; size = 4
__$EHRec$ = -12						; size = 12
_strBaseValue$ = 8					; size = 4
_strAddValue$ = 12					; size = 4
_strFormat$ = 16					; size = 4
_strTemp$ = 20						; size = 4
_strFindType$ = 20					; size = 4
_nFindStart$ = 24					; size = 4
_nBaseData$ = 28					; size = 4
_nAddData$ = 32						; size = 4
?GetTimeData@CDataConversion@@CA_NABV?$CStringT@DV?$StrTraitMFC_DLL@DV?$ChTraitsCRT@D@ATL@@@@@ATL@@000HAAH1@Z PROC ; CDataConversion::GetTimeData, COMDAT

; 549  : {

  00000	55		 push	 ebp
  00001	8b ec		 mov	 ebp, esp
  00003	6a ff		 push	 -1
  00005	68 00 00 00 00	 push	 __ehhandler$?GetTimeData@CDataConversion@@CA_NABV?$CStringT@DV?$StrTraitMFC_DLL@DV?$ChTraitsCRT@D@ATL@@@@@ATL@@000HAAH1@Z
  0000a	64 a1 00 00 00
	00		 mov	 eax, DWORD PTR fs:0
  00010	50		 push	 eax
  00011	51		 push	 ecx
  00012	53		 push	 ebx
  00013	56		 push	 esi
  00014	57		 push	 edi
  00015	a1 00 00 00 00	 mov	 eax, DWORD PTR ___security_cookie
  0001a	33 c5		 xor	 eax, ebp
  0001c	50		 push	 eax
  0001d	8d 45 f4	 lea	 eax, DWORD PTR __$EHRec$[ebp]
  00020	64 a3 00 00 00
	00		 mov	 DWORD PTR fs:0, eax
; File C:\Program Files (x86)\Microsoft Visual Studio\2019\Community\VC\Tools\MSVC\14.29.30133\atlmfc\include\atlsimpstr.h

; 377  : 		return( m_pszData );

  00026	8b 75 14	 mov	 esi, DWORD PTR _strFindType$[ebp]
; File D:\git\src\IBK\IBK_DRFN\ProjSrc\SrcDrfn\Chart\chart_common\DataList\Conversion.cpp

; 550  : 	int nFindIndex = strFormat.Find(strFindType, nFindStart);

  00029	ff 75 18	 push	 DWORD PTR _nFindStart$[ebp]
  0002c	8b 4d 10	 mov	 ecx, DWORD PTR _strFormat$[ebp]
  0002f	ff 36		 push	 DWORD PTR [esi]
  00031	ff 15 00 00 00
	00		 call	 DWORD PTR __imp_?Find@?$CStringT@DV?$StrTraitMFC_DLL@DV?$ChTraitsCRT@D@ATL@@@@@ATL@@QBEHPBDH@Z
; File C:\Program Files (x86)\Microsoft Visual Studio\2019\Community\VC\Tools\MSVC\14.29.30133\atlmfc\include\atlsimpstr.h

; 519  : 		return( GetData()->nDataLength );

  00037	8b 0e		 mov	 ecx, DWORD PTR [esi]
; File D:\git\src\IBK\IBK_DRFN\ProjSrc\SrcDrfn\Chart\chart_common\DataList\Conversion.cpp

; 550  : 	int nFindIndex = strFormat.Find(strFindType, nFindStart);

  00039	8b d8		 mov	 ebx, eax
; File C:\Program Files (x86)\Microsoft Visual Studio\2019\Community\VC\Tools\MSVC\14.29.30133\atlmfc\include\atlsimpstr.h

; 519  : 		return( GetData()->nDataLength );

  0003b	8b 79 f4	 mov	 edi, DWORD PTR [ecx-12]
; File D:\git\src\IBK\IBK_DRFN\ProjSrc\SrcDrfn\Chart\chart_common\DataList\Conversion.cpp

; 552  : 	if(nFindIndex < 0 || nLength <= 0)

  0003e	85 db		 test	 ebx, ebx
  00040	78 7d		 js	 SHORT $LN3@GetTimeDat
  00042	85 ff		 test	 edi, edi
  00044	7e 79		 jle	 SHORT $LN3@GetTimeDat

; 554  : 
; 555  : 	CString strTemp = strBaseValue.Mid(nFindIndex, nLength);

  00046	8b 4d 08	 mov	 ecx, DWORD PTR _strBaseValue$[ebp]
  00049	8d 45 14	 lea	 eax, DWORD PTR _strTemp$[ebp]
  0004c	57		 push	 edi
  0004d	53		 push	 ebx
  0004e	50		 push	 eax
  0004f	ff 15 00 00 00
	00		 call	 DWORD PTR __imp_?Mid@?$CStringT@DV?$StrTraitMFC_DLL@DV?$ChTraitsCRT@D@ATL@@@@@ATL@@QBE?AV12@HH@Z

; 556  : 	nBaseData = atoi(strTemp);

  00055	ff 75 14	 push	 DWORD PTR _strTemp$[ebp]
  00058	8b 35 00 00 00
	00		 mov	 esi, DWORD PTR __imp__atoi
  0005e	c7 45 fc 00 00
	00 00		 mov	 DWORD PTR __$EHRec$[ebp+8], 0
  00065	ff d6		 call	 esi
  00067	8b 4d 1c	 mov	 ecx, DWORD PTR _nBaseData$[ebp]
  0006a	83 c4 04	 add	 esp, 4

; 557  : 	strTemp = strAddValue.Mid(nFindIndex, nLength);

  0006d	57		 push	 edi
  0006e	89 01		 mov	 DWORD PTR [ecx], eax
  00070	8d 45 f0	 lea	 eax, DWORD PTR $T2[ebp]
  00073	8b 4d 0c	 mov	 ecx, DWORD PTR _strAddValue$[ebp]
  00076	53		 push	 ebx
  00077	50		 push	 eax
  00078	ff 15 00 00 00
	00		 call	 DWORD PTR __imp_?Mid@?$CStringT@DV?$StrTraitMFC_DLL@DV?$ChTraitsCRT@D@ATL@@@@@ATL@@QBE?AV12@HH@Z
  0007e	50		 push	 eax
  0007f	8d 4d 14	 lea	 ecx, DWORD PTR _strTemp$[ebp]
  00082	c6 45 fc 01	 mov	 BYTE PTR __$EHRec$[ebp+8], 1
  00086	ff 15 00 00 00
	00		 call	 DWORD PTR __imp_??4?$CStringT@DV?$StrTraitMFC_DLL@DV?$ChTraitsCRT@D@ATL@@@@@ATL@@QAEAAV01@ABV01@@Z
  0008c	8d 4d f0	 lea	 ecx, DWORD PTR $T2[ebp]
  0008f	ff 15 00 00 00
	00		 call	 DWORD PTR __imp_??1?$CStringT@DV?$StrTraitMFC_DLL@DV?$ChTraitsCRT@D@ATL@@@@@ATL@@QAE@XZ

; 558  : 	nAddData = atoi(strTemp);

  00095	ff 75 14	 push	 DWORD PTR _strTemp$[ebp]
  00098	ff d6		 call	 esi
  0009a	8b 4d 20	 mov	 ecx, DWORD PTR _nAddData$[ebp]
  0009d	83 c4 04	 add	 esp, 4
  000a0	89 01		 mov	 DWORD PTR [ecx], eax

; 559  : 	return true;

  000a2	8d 4d 14	 lea	 ecx, DWORD PTR _strTemp$[ebp]
  000a5	ff 15 00 00 00
	00		 call	 DWORD PTR __imp_??1?$CStringT@DV?$StrTraitMFC_DLL@DV?$ChTraitsCRT@D@ATL@@@@@ATL@@QAE@XZ
  000ab	b0 01		 mov	 al, 1

; 560  : }

  000ad	8b 4d f4	 mov	 ecx, DWORD PTR __$EHRec$[ebp]
  000b0	64 89 0d 00 00
	00 00		 mov	 DWORD PTR fs:0, ecx
  000b7	59		 pop	 ecx
  000b8	5f		 pop	 edi
  000b9	5e		 pop	 esi
  000ba	5b		 pop	 ebx
  000bb	8b e5		 mov	 esp, ebp
  000bd	5d		 pop	 ebp
  000be	c3		 ret	 0
$LN3@GetTimeDat:

; 553  : 		return false;

  000bf	32 c0		 xor	 al, al

; 560  : }

  000c1	8b 4d f4	 mov	 ecx, DWORD PTR __$EHRec$[ebp]
  000c4	64 89 0d 00 00
	00 00		 mov	 DWORD PTR fs:0, ecx
  000cb	59		 pop	 ecx
  000cc	5f		 pop	 edi
  000cd	5e		 pop	 esi
  000ce	5b		 pop	 ebx
  000cf	8b e5		 mov	 esp, ebp
  000d1	5d		 pop	 ebp
  000d2	c3		 ret	 0
_TEXT	ENDS
;	COMDAT text$x
text$x	SEGMENT
__unwindfunclet$?GetTimeData@CDataConversion@@CA_NABV?$CStringT@DV?$StrTraitMFC_DLL@DV?$ChTraitsCRT@D@ATL@@@@@ATL@@000HAAH1@Z$0:
  00000	8d 4d 14	 lea	 ecx, DWORD PTR _strTemp$[ebp]
  00003	ff 25 00 00 00
	00		 jmp	 DWORD PTR __imp_??1?$CStringT@DV?$StrTraitMFC_DLL@DV?$ChTraitsCRT@D@ATL@@@@@ATL@@QAE@XZ
__unwindfunclet$?GetTimeData@CDataConversion@@CA_NABV?$CStringT@DV?$StrTraitMFC_DLL@DV?$ChTraitsCRT@D@ATL@@@@@ATL@@000HAAH1@Z$1:
  00009	8d 4d f0	 lea	 ecx, DWORD PTR $T2[ebp]
  0000c	ff 25 00 00 00
	00		 jmp	 DWORD PTR __imp_??1?$CStringT@DV?$StrTraitMFC_DLL@DV?$ChTraitsCRT@D@ATL@@@@@ATL@@QAE@XZ
  00012	cc		 int	 3
  00013	cc		 int	 3
  00014	cc		 int	 3
  00015	cc		 int	 3
  00016	cc		 int	 3
__ehhandler$?GetTimeData@CDataConversion@@CA_NABV?$CStringT@DV?$StrTraitMFC_DLL@DV?$ChTraitsCRT@D@ATL@@@@@ATL@@000HAAH1@Z:
  00017	90		 npad	 1
  00018	90		 npad	 1
  00019	8b 54 24 08	 mov	 edx, DWORD PTR [esp+8]
  0001d	8d 42 0c	 lea	 eax, DWORD PTR [edx+12]
  00020	8b 4a ec	 mov	 ecx, DWORD PTR [edx-20]
  00023	33 c8		 xor	 ecx, eax
  00025	e8 00 00 00 00	 call	 @__security_check_cookie@4
  0002a	b8 00 00 00 00	 mov	 eax, OFFSET __ehfuncinfo$?GetTimeData@CDataConversion@@CA_NABV?$CStringT@DV?$StrTraitMFC_DLL@DV?$ChTraitsCRT@D@ATL@@@@@ATL@@000HAAH1@Z
  0002f	e9 00 00 00 00	 jmp	 ___CxxFrameHandler3
text$x	ENDS
?GetTimeData@CDataConversion@@CA_NABV?$CStringT@DV?$StrTraitMFC_DLL@DV?$ChTraitsCRT@D@ATL@@@@@ATL@@000HAAH1@Z ENDP ; CDataConversion::GetTimeData
; Function compile flags: /Ogtp
; File D:\git\src\IBK\IBK_DRFN\ProjSrc\SrcDrfn\Chart\chart_common\DataList\Conversion.cpp
; File C:\Program Files (x86)\Microsoft Visual Studio\2019\Community\VC\Tools\MSVC\14.29.30133\atlmfc\include\atlsimpstr.h
; File D:\git\src\IBK\IBK_DRFN\ProjSrc\SrcDrfn\Chart\chart_common\DataList\Conversion.cpp
; File C:\Program Files (x86)\Microsoft Visual Studio\2019\Community\VC\Tools\MSVC\14.29.30133\atlmfc\include\atlsimpstr.h
; File D:\git\src\IBK\IBK_DRFN\ProjSrc\SrcDrfn\Chart\chart_common\DataList\Conversion.cpp
; File C:\Program Files (x86)\Microsoft Visual Studio\2019\Community\VC\Tools\MSVC\14.29.30133\atlmfc\include\atlsimpstr.h
; File D:\git\src\IBK\IBK_DRFN\ProjSrc\SrcDrfn\Chart\chart_common\DataList\Conversion.cpp
;	COMDAT ?GetTimeData@CDataConversion@@CA_NABV?$CStringT@DV?$StrTraitMFC_DLL@DV?$ChTraitsCRT@D@ATL@@@@@ATL@@00AAH1111111@Z
_TEXT	SEGMENT
$T2 = -16						; size = 4
__$EHRec$ = -12						; size = 12
$T3 = 8							; size = 4
$T4 = 8							; size = 4
$T5 = 8							; size = 4
$T6 = 8							; size = 4
_strBaseValue$ = 8					; size = 4
_strAddValue$ = 12					; size = 4
_strFormat$ = 16					; size = 4
_nBaseDay$ = 20						; size = 4
_nBaseHour$ = 24					; size = 4
_nBaseMin$ = 28						; size = 4
_nBaseSec$ = 32						; size = 4
_nAddDay$ = 36						; size = 4
_nAddHour$ = 40						; size = 4
_nAddMin$ = 44						; size = 4
_nAddSec$ = 48						; size = 4
?GetTimeData@CDataConversion@@CA_NABV?$CStringT@DV?$StrTraitMFC_DLL@DV?$ChTraitsCRT@D@ATL@@@@@ATL@@00AAH1111111@Z PROC ; CDataConversion::GetTimeData, COMDAT

; 527  : {

  00000	55		 push	 ebp
  00001	8b ec		 mov	 ebp, esp
  00003	6a ff		 push	 -1
  00005	68 00 00 00 00	 push	 __ehhandler$?GetTimeData@CDataConversion@@CA_NABV?$CStringT@DV?$StrTraitMFC_DLL@DV?$ChTraitsCRT@D@ATL@@@@@ATL@@00AAH1111111@Z
  0000a	64 a1 00 00 00
	00		 mov	 eax, DWORD PTR fs:0
  00010	50		 push	 eax
  00011	51		 push	 ecx
  00012	53		 push	 ebx
  00013	56		 push	 esi
  00014	57		 push	 edi
  00015	a1 00 00 00 00	 mov	 eax, DWORD PTR ___security_cookie
  0001a	33 c5		 xor	 eax, ebp
  0001c	50		 push	 eax
  0001d	8d 45 f4	 lea	 eax, DWORD PTR __$EHRec$[ebp]
  00020	64 a3 00 00 00
	00		 mov	 DWORD PTR fs:0, eax
; File C:\Program Files (x86)\Microsoft Visual Studio\2019\Community\VC\Tools\MSVC\14.29.30133\atlmfc\include\atlsimpstr.h

; 519  : 		return( GetData()->nDataLength );

  00026	8b 7d 08	 mov	 edi, DWORD PTR _strBaseValue$[ebp]
  00029	8b 07		 mov	 eax, DWORD PTR [edi]

; 533  : 		return( GetLength() == 0 );

  0002b	83 78 f4 00	 cmp	 DWORD PTR [eax-12], 0
; File D:\git\src\IBK\IBK_DRFN\ProjSrc\SrcDrfn\Chart\chart_common\DataList\Conversion.cpp

; 528  : 	if(strBaseValue.IsEmpty() || strAddValue.IsEmpty() || strFormat.IsEmpty())

  0002f	0f 84 8a 01 00
	00		 je	 $LN3@GetTimeDat
; File C:\Program Files (x86)\Microsoft Visual Studio\2019\Community\VC\Tools\MSVC\14.29.30133\atlmfc\include\atlsimpstr.h

; 519  : 		return( GetData()->nDataLength );

  00035	8b 5d 0c	 mov	 ebx, DWORD PTR _strAddValue$[ebp]
  00038	8b 03		 mov	 eax, DWORD PTR [ebx]

; 533  : 		return( GetLength() == 0 );

  0003a	83 78 f4 00	 cmp	 DWORD PTR [eax-12], 0
; File D:\git\src\IBK\IBK_DRFN\ProjSrc\SrcDrfn\Chart\chart_common\DataList\Conversion.cpp

; 528  : 	if(strBaseValue.IsEmpty() || strAddValue.IsEmpty() || strFormat.IsEmpty())

  0003e	0f 84 7b 01 00
	00		 je	 $LN3@GetTimeDat
; File C:\Program Files (x86)\Microsoft Visual Studio\2019\Community\VC\Tools\MSVC\14.29.30133\atlmfc\include\atlsimpstr.h

; 519  : 		return( GetData()->nDataLength );

  00044	8b 75 10	 mov	 esi, DWORD PTR _strFormat$[ebp]
  00047	8b 06		 mov	 eax, DWORD PTR [esi]

; 533  : 		return( GetLength() == 0 );

  00049	83 78 f4 00	 cmp	 DWORD PTR [eax-12], 0
; File D:\git\src\IBK\IBK_DRFN\ProjSrc\SrcDrfn\Chart\chart_common\DataList\Conversion.cpp

; 528  : 	if(strBaseValue.IsEmpty() || strAddValue.IsEmpty() || strFormat.IsEmpty())

  0004d	0f 84 6c 01 00
	00		 je	 $LN3@GetTimeDat

; 530  : 
; 531  : 	//
; 532  : 	GetTimeData(strBaseValue, strAddValue, strFormat, "SS", 0, nBaseSec, nAddSec);

  00053	68 00 00 00 00	 push	 OFFSET ??_C@_02PPNCLIJD@SS@
  00058	8d 4d 08	 lea	 ecx, DWORD PTR $T6[ebp]
  0005b	ff 15 00 00 00
	00		 call	 DWORD PTR __imp_??0?$CStringT@DV?$StrTraitMFC_DLL@DV?$ChTraitsCRT@D@ATL@@@@@ATL@@QAE@PBD@Z
  00061	ff 75 30	 push	 DWORD PTR _nAddSec$[ebp]
  00064	8d 45 08	 lea	 eax, DWORD PTR $T6[ebp]
  00067	c7 45 fc 00 00
	00 00		 mov	 DWORD PTR __$EHRec$[ebp+8], 0
  0006e	ff 75 20	 push	 DWORD PTR _nBaseSec$[ebp]
  00071	6a 00		 push	 0
  00073	50		 push	 eax
  00074	56		 push	 esi
  00075	53		 push	 ebx
  00076	57		 push	 edi
  00077	e8 00 00 00 00	 call	 ?GetTimeData@CDataConversion@@CA_NABV?$CStringT@DV?$StrTraitMFC_DLL@DV?$ChTraitsCRT@D@ATL@@@@@ATL@@000HAAH1@Z ; CDataConversion::GetTimeData
  0007c	83 c4 1c	 add	 esp, 28			; 0000001cH
  0007f	c7 45 fc ff ff
	ff ff		 mov	 DWORD PTR __$EHRec$[ebp+8], -1
  00086	8d 4d 08	 lea	 ecx, DWORD PTR $T6[ebp]
  00089	ff 15 00 00 00
	00		 call	 DWORD PTR __imp_??1?$CStringT@DV?$StrTraitMFC_DLL@DV?$ChTraitsCRT@D@ATL@@@@@ATL@@QAE@XZ

; 533  : 	//
; 534  : 	GetTimeData(strBaseValue, strAddValue, strFormat, "HH", 0, nBaseHour, nAddHour);

  0008f	68 00 00 00 00	 push	 OFFSET ??_C@_02EGJHDPJI@HH@
  00094	8d 4d 08	 lea	 ecx, DWORD PTR $T5[ebp]
  00097	ff 15 00 00 00
	00		 call	 DWORD PTR __imp_??0?$CStringT@DV?$StrTraitMFC_DLL@DV?$ChTraitsCRT@D@ATL@@@@@ATL@@QAE@PBD@Z
  0009d	ff 75 28	 push	 DWORD PTR _nAddHour$[ebp]
  000a0	8d 45 08	 lea	 eax, DWORD PTR $T5[ebp]
  000a3	c7 45 fc 01 00
	00 00		 mov	 DWORD PTR __$EHRec$[ebp+8], 1
  000aa	ff 75 18	 push	 DWORD PTR _nBaseHour$[ebp]
  000ad	6a 00		 push	 0
  000af	50		 push	 eax
  000b0	56		 push	 esi
  000b1	53		 push	 ebx
  000b2	57		 push	 edi
  000b3	e8 00 00 00 00	 call	 ?GetTimeData@CDataConversion@@CA_NABV?$CStringT@DV?$StrTraitMFC_DLL@DV?$ChTraitsCRT@D@ATL@@@@@ATL@@000HAAH1@Z ; CDataConversion::GetTimeData
  000b8	83 c4 1c	 add	 esp, 28			; 0000001cH
  000bb	c7 45 fc ff ff
	ff ff		 mov	 DWORD PTR __$EHRec$[ebp+8], -1
  000c2	8d 4d 08	 lea	 ecx, DWORD PTR $T5[ebp]
  000c5	ff 15 00 00 00
	00		 call	 DWORD PTR __imp_??1?$CStringT@DV?$StrTraitMFC_DLL@DV?$ChTraitsCRT@D@ATL@@@@@ATL@@QAE@XZ

; 535  : 	//
; 536  : 	GetTimeData(strBaseValue, strAddValue, strFormat, "MM", 2, nBaseMin, nAddMin);

  000cb	68 00 00 00 00	 push	 OFFSET ??_C@_02DNCLAJDG@MM@
  000d0	8d 4d 08	 lea	 ecx, DWORD PTR $T4[ebp]
  000d3	ff 15 00 00 00
	00		 call	 DWORD PTR __imp_??0?$CStringT@DV?$StrTraitMFC_DLL@DV?$ChTraitsCRT@D@ATL@@@@@ATL@@QAE@PBD@Z
  000d9	ff 75 2c	 push	 DWORD PTR _nAddMin$[ebp]
  000dc	8d 45 08	 lea	 eax, DWORD PTR $T4[ebp]
  000df	c7 45 fc 02 00
	00 00		 mov	 DWORD PTR __$EHRec$[ebp+8], 2
  000e6	ff 75 1c	 push	 DWORD PTR _nBaseMin$[ebp]
  000e9	6a 02		 push	 2
  000eb	50		 push	 eax
  000ec	56		 push	 esi
  000ed	53		 push	 ebx
  000ee	57		 push	 edi
  000ef	e8 00 00 00 00	 call	 ?GetTimeData@CDataConversion@@CA_NABV?$CStringT@DV?$StrTraitMFC_DLL@DV?$ChTraitsCRT@D@ATL@@@@@ATL@@000HAAH1@Z ; CDataConversion::GetTimeData
  000f4	83 c4 1c	 add	 esp, 28			; 0000001cH
  000f7	c7 45 fc ff ff
	ff ff		 mov	 DWORD PTR __$EHRec$[ebp+8], -1
  000fe	8d 4d 08	 lea	 ecx, DWORD PTR $T4[ebp]
  00101	ff 15 00 00 00
	00		 call	 DWORD PTR __imp_??1?$CStringT@DV?$StrTraitMFC_DLL@DV?$ChTraitsCRT@D@ATL@@@@@ATL@@QAE@XZ

; 537  : 
; 538  : 	//
; 539  : 	if(strFormat.Find("MMDD") >= 0)

  00107	6a 00		 push	 0
  00109	68 00 00 00 00	 push	 OFFSET ??_C@_04BDEGLLOH@MMDD@
  0010e	8b ce		 mov	 ecx, esi
  00110	ff 15 00 00 00
	00		 call	 DWORD PTR __imp_?Find@?$CStringT@DV?$StrTraitMFC_DLL@DV?$ChTraitsCRT@D@ATL@@@@@ATL@@QBEHPBDH@Z
  00116	85 c0		 test	 eax, eax
  00118	78 49		 js	 SHORT $LN4@GetTimeDat

; 540  : 		GetTimeData(strBaseValue, strAddValue, strFormat, "MMDD", 0, nBaseDay, nAddDay);

  0011a	68 00 00 00 00	 push	 OFFSET ??_C@_04BDEGLLOH@MMDD@
  0011f	8d 4d 08	 lea	 ecx, DWORD PTR $T3[ebp]
  00122	ff 15 00 00 00
	00		 call	 DWORD PTR __imp_??0?$CStringT@DV?$StrTraitMFC_DLL@DV?$ChTraitsCRT@D@ATL@@@@@ATL@@QAE@PBD@Z
  00128	ff 75 24	 push	 DWORD PTR _nAddDay$[ebp]
  0012b	8d 45 08	 lea	 eax, DWORD PTR $T3[ebp]
  0012e	c7 45 fc 03 00
	00 00		 mov	 DWORD PTR __$EHRec$[ebp+8], 3
  00135	ff 75 14	 push	 DWORD PTR _nBaseDay$[ebp]
  00138	6a 00		 push	 0
  0013a	50		 push	 eax
  0013b	56		 push	 esi
  0013c	53		 push	 ebx
  0013d	57		 push	 edi
  0013e	e8 00 00 00 00	 call	 ?GetTimeData@CDataConversion@@CA_NABV?$CStringT@DV?$StrTraitMFC_DLL@DV?$ChTraitsCRT@D@ATL@@@@@ATL@@000HAAH1@Z ; CDataConversion::GetTimeData

; 543  : 
; 544  : 	return true;

  00143	83 c4 1c	 add	 esp, 28			; 0000001cH
  00146	8d 4d 08	 lea	 ecx, DWORD PTR $T3[ebp]
  00149	ff 15 00 00 00
	00		 call	 DWORD PTR __imp_??1?$CStringT@DV?$StrTraitMFC_DLL@DV?$ChTraitsCRT@D@ATL@@@@@ATL@@QAE@XZ
  0014f	b0 01		 mov	 al, 1

; 545  : }

  00151	8b 4d f4	 mov	 ecx, DWORD PTR __$EHRec$[ebp]
  00154	64 89 0d 00 00
	00 00		 mov	 DWORD PTR fs:0, ecx
  0015b	59		 pop	 ecx
  0015c	5f		 pop	 edi
  0015d	5e		 pop	 esi
  0015e	5b		 pop	 ebx
  0015f	8b e5		 mov	 esp, ebp
  00161	5d		 pop	 ebp
  00162	c3		 ret	 0
$LN4@GetTimeDat:

; 541  : 	else if(strFormat.Find("DD") >= 0)

  00163	6a 00		 push	 0
  00165	68 00 00 00 00	 push	 OFFSET ??_C@_02ODDIIJPA@DD@
  0016a	8b ce		 mov	 ecx, esi
  0016c	ff 15 00 00 00
	00		 call	 DWORD PTR __imp_?Find@?$CStringT@DV?$StrTraitMFC_DLL@DV?$ChTraitsCRT@D@ATL@@@@@ATL@@QBEHPBDH@Z
  00172	85 c0		 test	 eax, eax
  00174	78 35		 js	 SHORT $LN6@GetTimeDat

; 542  : 		GetTimeData(strBaseValue, strAddValue, strFormat, "DD", 0, nBaseDay, nAddDay);

  00176	68 00 00 00 00	 push	 OFFSET ??_C@_02ODDIIJPA@DD@
  0017b	8d 4d f0	 lea	 ecx, DWORD PTR $T2[ebp]
  0017e	ff 15 00 00 00
	00		 call	 DWORD PTR __imp_??0?$CStringT@DV?$StrTraitMFC_DLL@DV?$ChTraitsCRT@D@ATL@@@@@ATL@@QAE@PBD@Z
  00184	ff 75 24	 push	 DWORD PTR _nAddDay$[ebp]
  00187	8d 45 f0	 lea	 eax, DWORD PTR $T2[ebp]
  0018a	c7 45 fc 04 00
	00 00		 mov	 DWORD PTR __$EHRec$[ebp+8], 4
  00191	ff 75 14	 push	 DWORD PTR _nBaseDay$[ebp]
  00194	6a 00		 push	 0
  00196	50		 push	 eax
  00197	56		 push	 esi
  00198	53		 push	 ebx
  00199	57		 push	 edi
  0019a	e8 00 00 00 00	 call	 ?GetTimeData@CDataConversion@@CA_NABV?$CStringT@DV?$StrTraitMFC_DLL@DV?$ChTraitsCRT@D@ATL@@@@@ATL@@000HAAH1@Z ; CDataConversion::GetTimeData

; 543  : 
; 544  : 	return true;

  0019f	83 c4 1c	 add	 esp, 28			; 0000001cH
  001a2	8d 4d f0	 lea	 ecx, DWORD PTR $T2[ebp]
  001a5	ff 15 00 00 00
	00		 call	 DWORD PTR __imp_??1?$CStringT@DV?$StrTraitMFC_DLL@DV?$ChTraitsCRT@D@ATL@@@@@ATL@@QAE@XZ
$LN6@GetTimeDat:
  001ab	b0 01		 mov	 al, 1

; 545  : }

  001ad	8b 4d f4	 mov	 ecx, DWORD PTR __$EHRec$[ebp]
  001b0	64 89 0d 00 00
	00 00		 mov	 DWORD PTR fs:0, ecx
  001b7	59		 pop	 ecx
  001b8	5f		 pop	 edi
  001b9	5e		 pop	 esi
  001ba	5b		 pop	 ebx
  001bb	8b e5		 mov	 esp, ebp
  001bd	5d		 pop	 ebp
  001be	c3		 ret	 0
$LN3@GetTimeDat:

; 529  : 		return false;

  001bf	32 c0		 xor	 al, al

; 545  : }

  001c1	8b 4d f4	 mov	 ecx, DWORD PTR __$EHRec$[ebp]
  001c4	64 89 0d 00 00
	00 00		 mov	 DWORD PTR fs:0, ecx
  001cb	59		 pop	 ecx
  001cc	5f		 pop	 edi
  001cd	5e		 pop	 esi
  001ce	5b		 pop	 ebx
  001cf	8b e5		 mov	 esp, ebp
  001d1	5d		 pop	 ebp
  001d2	c3		 ret	 0
_TEXT	ENDS
;	COMDAT text$x
text$x	SEGMENT
__unwindfunclet$?GetTimeData@CDataConversion@@CA_NABV?$CStringT@DV?$StrTraitMFC_DLL@DV?$ChTraitsCRT@D@ATL@@@@@ATL@@00AAH1111111@Z$0:
  00000	8d 4d 08	 lea	 ecx, DWORD PTR $T6[ebp]
  00003	ff 25 00 00 00
	00		 jmp	 DWORD PTR __imp_??1?$CStringT@DV?$StrTraitMFC_DLL@DV?$ChTraitsCRT@D@ATL@@@@@ATL@@QAE@XZ
__unwindfunclet$?GetTimeData@CDataConversion@@CA_NABV?$CStringT@DV?$StrTraitMFC_DLL@DV?$ChTraitsCRT@D@ATL@@@@@ATL@@00AAH1111111@Z$1:
  00009	8d 4d 08	 lea	 ecx, DWORD PTR $T5[ebp]
  0000c	ff 25 00 00 00
	00		 jmp	 DWORD PTR __imp_??1?$CStringT@DV?$StrTraitMFC_DLL@DV?$ChTraitsCRT@D@ATL@@@@@ATL@@QAE@XZ
__unwindfunclet$?GetTimeData@CDataConversion@@CA_NABV?$CStringT@DV?$StrTraitMFC_DLL@DV?$ChTraitsCRT@D@ATL@@@@@ATL@@00AAH1111111@Z$2:
  00012	8d 4d 08	 lea	 ecx, DWORD PTR $T4[ebp]
  00015	ff 25 00 00 00
	00		 jmp	 DWORD PTR __imp_??1?$CStringT@DV?$StrTraitMFC_DLL@DV?$ChTraitsCRT@D@ATL@@@@@ATL@@QAE@XZ
__unwindfunclet$?GetTimeData@CDataConversion@@CA_NABV?$CStringT@DV?$StrTraitMFC_DLL@DV?$ChTraitsCRT@D@ATL@@@@@ATL@@00AAH1111111@Z$3:
  0001b	8d 4d 08	 lea	 ecx, DWORD PTR $T3[ebp]
  0001e	ff 25 00 00 00
	00		 jmp	 DWORD PTR __imp_??1?$CStringT@DV?$StrTraitMFC_DLL@DV?$ChTraitsCRT@D@ATL@@@@@ATL@@QAE@XZ
__unwindfunclet$?GetTimeData@CDataConversion@@CA_NABV?$CStringT@DV?$StrTraitMFC_DLL@DV?$ChTraitsCRT@D@ATL@@@@@ATL@@00AAH1111111@Z$4:
  00024	8d 4d f0	 lea	 ecx, DWORD PTR $T2[ebp]
  00027	ff 25 00 00 00
	00		 jmp	 DWORD PTR __imp_??1?$CStringT@DV?$StrTraitMFC_DLL@DV?$ChTraitsCRT@D@ATL@@@@@ATL@@QAE@XZ
  0002d	cc		 int	 3
  0002e	cc		 int	 3
  0002f	cc		 int	 3
  00030	cc		 int	 3
  00031	cc		 int	 3
__ehhandler$?GetTimeData@CDataConversion@@CA_NABV?$CStringT@DV?$StrTraitMFC_DLL@DV?$ChTraitsCRT@D@ATL@@@@@ATL@@00AAH1111111@Z:
  00032	90		 npad	 1
  00033	90		 npad	 1
  00034	8b 54 24 08	 mov	 edx, DWORD PTR [esp+8]
  00038	8d 42 0c	 lea	 eax, DWORD PTR [edx+12]
  0003b	8b 4a ec	 mov	 ecx, DWORD PTR [edx-20]
  0003e	33 c8		 xor	 ecx, eax
  00040	e8 00 00 00 00	 call	 @__security_check_cookie@4
  00045	b8 00 00 00 00	 mov	 eax, OFFSET __ehfuncinfo$?GetTimeData@CDataConversion@@CA_NABV?$CStringT@DV?$StrTraitMFC_DLL@DV?$ChTraitsCRT@D@ATL@@@@@ATL@@00AAH1111111@Z
  0004a	e9 00 00 00 00	 jmp	 ___CxxFrameHandler3
text$x	ENDS
?GetTimeData@CDataConversion@@CA_NABV?$CStringT@DV?$StrTraitMFC_DLL@DV?$ChTraitsCRT@D@ATL@@@@@ATL@@00AAH1111111@Z ENDP ; CDataConversion::GetTimeData
; Function compile flags: /Ogtp
; File D:\git\src\IBK\IBK_DRFN\ProjSrc\SrcDrfn\Chart\chart_common\DataList\Conversion.cpp
;	COMDAT ?CalcTimeFormat_Past@CDataConversion@@CAHABV?$CStringT@DV?$StrTraitMFC_DLL@DV?$ChTraitsCRT@D@ATL@@@@@ATL@@00_N@Z
_TEXT	SEGMENT
_nBaseSec$ = -32					; size = 4
_nBaseMin$ = -28					; size = 4
_nBaseHour$ = -24					; size = 4
_nBaseDay$ = -20					; size = 4
_nAddSec$ = -16						; size = 4
_nAddMin$ = -12						; size = 4
_nAddHour$ = -8						; size = 4
_nAddDay$ = -4						; size = 4
_strBaseValue$ = 8					; size = 4
_strAddValue$ = 12					; size = 4
_strFormat$ = 16					; size = 4
_bIsTransactionTime$ = 20				; size = 1
?CalcTimeFormat_Past@CDataConversion@@CAHABV?$CStringT@DV?$StrTraitMFC_DLL@DV?$ChTraitsCRT@D@ATL@@@@@ATL@@00_N@Z PROC ; CDataConversion::CalcTimeFormat_Past, COMDAT

; 461  : {

  00000	55		 push	 ebp
  00001	8b ec		 mov	 ebp, esp
  00003	83 ec 20	 sub	 esp, 32			; 00000020H

; 462  : 	int nBaseSec = 0, nBaseMin = 0, nBaseHour = 0, nBaseDay = 0;
; 463  : 	int nAddSec = 0, nAddMin = 0, nAddHour = 0, nAddDay = 0;
; 464  : 	if(!GetTimeData(strBaseValue, strAddValue, strFormat, 

  00006	8d 45 fc	 lea	 eax, DWORD PTR _nAddDay$[ebp]
  00009	50		 push	 eax
  0000a	8d 45 f8	 lea	 eax, DWORD PTR _nAddHour$[ebp]
  0000d	50		 push	 eax
  0000e	8d 45 f4	 lea	 eax, DWORD PTR _nAddMin$[ebp]
  00011	50		 push	 eax
  00012	8d 45 f0	 lea	 eax, DWORD PTR _nAddSec$[ebp]
  00015	50		 push	 eax
  00016	8d 45 ec	 lea	 eax, DWORD PTR _nBaseDay$[ebp]
  00019	50		 push	 eax
  0001a	8d 45 e8	 lea	 eax, DWORD PTR _nBaseHour$[ebp]
  0001d	50		 push	 eax
  0001e	8d 45 e4	 lea	 eax, DWORD PTR _nBaseMin$[ebp]
  00021	50		 push	 eax
  00022	8d 45 e0	 lea	 eax, DWORD PTR _nBaseSec$[ebp]
  00025	50		 push	 eax
  00026	ff 75 10	 push	 DWORD PTR _strFormat$[ebp]
  00029	ff 75 0c	 push	 DWORD PTR _strAddValue$[ebp]
  0002c	ff 75 08	 push	 DWORD PTR _strBaseValue$[ebp]
  0002f	e8 00 00 00 00	 call	 ?GetTimeData@CDataConversion@@CA_NABV?$CStringT@DV?$StrTraitMFC_DLL@DV?$ChTraitsCRT@D@ATL@@@@@ATL@@00AAH1111111@Z ; CDataConversion::GetTimeData
  00034	83 c4 2c	 add	 esp, 44			; 0000002cH

; 465  : 		nBaseSec, nBaseMin, nBaseHour, nBaseDay, nAddSec, nAddMin, nAddHour, nAddDay))
; 466  : 		return 0;
; 467  : 
; 468  : 	//   .  ..
; 469  : 	if(nBaseSec < nAddSec)
; 470  : 	{
; 471  : 		nBaseMin --;
; 472  : 		nBaseSec = nBaseSec + 60 - nAddSec;
; 473  : 		if(nBaseSec < 0)
; 474  : 			nBaseSec = abs(nBaseSec);
; 475  : 	}
; 476  : 	else 
; 477  : 		nBaseSec -= nAddSec;
; 478  : 
; 479  : 	if(nBaseMin < nAddMin)
; 480  : 	{
; 481  : 		nBaseHour --;
; 482  : 		nBaseMin = nBaseMin + 60 - nAddMin;
; 483  : 	}
; 484  : 	else 
; 485  : 		nBaseMin -= nAddMin;
; 486  : 
; 487  : 	nBaseHour -= nAddHour;
; 488  : 	if(nBaseHour < 9)
; 489  : 	{
; 490  : 		if(nBaseDay > 0)
; 491  : 			nBaseDay -- ;
; 492  : 		nBaseHour = 7 + nBaseHour;
; 493  : 	}
; 494  : 	nBaseDay -= nAddDay;
; 495  : 
; 496  : 	return 0;

  00037	33 c0		 xor	 eax, eax

; 497  : }

  00039	8b e5		 mov	 esp, ebp
  0003b	5d		 pop	 ebp
  0003c	c3		 ret	 0
?CalcTimeFormat_Past@CDataConversion@@CAHABV?$CStringT@DV?$StrTraitMFC_DLL@DV?$ChTraitsCRT@D@ATL@@@@@ATL@@00_N@Z ENDP ; CDataConversion::CalcTimeFormat_Past
_TEXT	ENDS
; Function compile flags: /Ogtp
; File D:\git\src\IBK\IBK_DRFN\ProjSrc\SrcDrfn\Chart\chart_common\DataList\Conversion.cpp
;	COMDAT ?CalcTimeFormat_Future@CDataConversion@@CAHABV?$CStringT@DV?$StrTraitMFC_DLL@DV?$ChTraitsCRT@D@ATL@@@@@ATL@@00_N@Z
_TEXT	SEGMENT
_nAddSec$ = -32						; size = 4
_nBaseSec$ = -28					; size = 4
_nAddMin$ = -24						; size = 4
_nBaseMin$ = -20					; size = 4
_nAddDay$ = -16						; size = 4
_nBaseHour$ = -12					; size = 4
_nAddHour$ = -8						; size = 4
_nSec$1$ = -4						; size = 4
_nBaseDay$ = -4						; size = 4
_strBaseValue$ = 8					; size = 4
_strAddValue$ = 12					; size = 4
_strFormat$ = 16					; size = 4
_bIsTransactionTime$ = 20				; size = 1
?CalcTimeFormat_Future@CDataConversion@@CAHABV?$CStringT@DV?$StrTraitMFC_DLL@DV?$ChTraitsCRT@D@ATL@@@@@ATL@@00_N@Z PROC ; CDataConversion::CalcTimeFormat_Future, COMDAT

; 403  : {

  00000	55		 push	 ebp
  00001	8b ec		 mov	 ebp, esp
  00003	83 ec 20	 sub	 esp, 32			; 00000020H

; 404  : 	int nBaseDay = 0, nBaseHour = 0, nBaseMin = 0, nBaseSec = 0;
; 405  : 	int nAddDay = 0, nAddHour = 0, nAddMin = 0, nAddSec = 0;
; 406  : 	if(!GetTimeData(strBaseValue, strAddValue, strFormat, 

  00006	8d 45 e0	 lea	 eax, DWORD PTR _nAddSec$[ebp]
  00009	c7 45 fc 00 00
	00 00		 mov	 DWORD PTR _nBaseDay$[ebp], 0
  00010	50		 push	 eax
  00011	8d 45 e8	 lea	 eax, DWORD PTR _nAddMin$[ebp]
  00014	c7 45 f4 00 00
	00 00		 mov	 DWORD PTR _nBaseHour$[ebp], 0
  0001b	50		 push	 eax
  0001c	8d 45 f8	 lea	 eax, DWORD PTR _nAddHour$[ebp]
  0001f	c7 45 ec 00 00
	00 00		 mov	 DWORD PTR _nBaseMin$[ebp], 0
  00026	50		 push	 eax
  00027	8d 45 f0	 lea	 eax, DWORD PTR _nAddDay$[ebp]
  0002a	c7 45 e4 00 00
	00 00		 mov	 DWORD PTR _nBaseSec$[ebp], 0
  00031	50		 push	 eax
  00032	8d 45 e4	 lea	 eax, DWORD PTR _nBaseSec$[ebp]
  00035	c7 45 f0 00 00
	00 00		 mov	 DWORD PTR _nAddDay$[ebp], 0
  0003c	50		 push	 eax
  0003d	8d 45 ec	 lea	 eax, DWORD PTR _nBaseMin$[ebp]
  00040	c7 45 f8 00 00
	00 00		 mov	 DWORD PTR _nAddHour$[ebp], 0
  00047	50		 push	 eax
  00048	8d 45 f4	 lea	 eax, DWORD PTR _nBaseHour$[ebp]
  0004b	c7 45 e8 00 00
	00 00		 mov	 DWORD PTR _nAddMin$[ebp], 0
  00052	50		 push	 eax
  00053	8d 45 fc	 lea	 eax, DWORD PTR _nBaseDay$[ebp]
  00056	c7 45 e0 00 00
	00 00		 mov	 DWORD PTR _nAddSec$[ebp], 0
  0005d	50		 push	 eax
  0005e	ff 75 10	 push	 DWORD PTR _strFormat$[ebp]
  00061	ff 75 0c	 push	 DWORD PTR _strAddValue$[ebp]
  00064	ff 75 08	 push	 DWORD PTR _strBaseValue$[ebp]
  00067	e8 00 00 00 00	 call	 ?GetTimeData@CDataConversion@@CA_NABV?$CStringT@DV?$StrTraitMFC_DLL@DV?$ChTraitsCRT@D@ATL@@@@@ATL@@00AAH1111111@Z ; CDataConversion::GetTimeData
  0006c	83 c4 2c	 add	 esp, 44			; 0000002cH
  0006f	84 c0		 test	 al, al
  00071	75 06		 jne	 SHORT $LN2@CalcTimeFo

; 407  : 		nBaseDay, nBaseHour, nBaseMin, nBaseSec, nAddDay, nAddHour, nAddMin, nAddSec))
; 408  : 		return 0;

  00073	33 c0		 xor	 eax, eax

; 433  : }

  00075	8b e5		 mov	 esp, ebp
  00077	5d		 pop	 ebp
  00078	c3		 ret	 0
$LN2@CalcTimeFo:

; 409  : 
; 410  : 	int nDay = nBaseDay + nAddDay;
; 411  : 	int nHour = nBaseHour + nAddHour;
; 412  : 	int nMin = nBaseMin + nAddMin;
; 413  : 	int nSec = nBaseSec + nAddSec;

  00079	8b 4d e4	 mov	 ecx, DWORD PTR _nBaseSec$[ebp]
  0007c	03 4d e0	 add	 ecx, DWORD PTR _nAddSec$[ebp]
  0007f	53		 push	 ebx
  00080	8b 5d f8	 mov	 ebx, DWORD PTR _nAddHour$[ebp]
  00083	03 5d f4	 add	 ebx, DWORD PTR _nBaseHour$[ebp]
  00086	56		 push	 esi
  00087	8b 75 f0	 mov	 esi, DWORD PTR _nAddDay$[ebp]
  0008a	03 75 fc	 add	 esi, DWORD PTR _nBaseDay$[ebp]
  0008d	57		 push	 edi
  0008e	8b 7d e8	 mov	 edi, DWORD PTR _nAddMin$[ebp]
  00091	03 7d ec	 add	 edi, DWORD PTR _nBaseMin$[ebp]

; 414  : 
; 415  : 	//       .
; 416  : 	if(strFormat.Find("DD") < 0)

  00094	6a 00		 push	 0
  00096	89 4d fc	 mov	 DWORD PTR _nSec$1$[ebp], ecx
  00099	8b 4d 10	 mov	 ecx, DWORD PTR _strFormat$[ebp]
  0009c	68 00 00 00 00	 push	 OFFSET ??_C@_02ODDIIJPA@DD@
  000a1	ff 15 00 00 00
	00		 call	 DWORD PTR __imp_?Find@?$CStringT@DV?$StrTraitMFC_DLL@DV?$ChTraitsCRT@D@ATL@@@@@ATL@@QBEHPBDH@Z
  000a7	85 c0		 test	 eax, eax
  000a9	79 1f		 jns	 SHORT $LN23@CalcTimeFo

; 417  : 	{
; 418  : 		// "00 59 59"
; 419  : 		if(nHour > 24)

  000ab	83 fb 18	 cmp	 ebx, 24			; 00000018H
  000ae	7e 1a		 jle	 SHORT $LN23@CalcTimeFo

; 420  : 			return GetTimeInFormat(strFormat, 24, 0, 59, 59);

  000b0	6a 3b		 push	 59			; 0000003bH
  000b2	6a 3b		 push	 59			; 0000003bH
  000b4	6a 00		 push	 0
  000b6	6a 18		 push	 24			; 00000018H
  000b8	ff 75 10	 push	 DWORD PTR _strFormat$[ebp]
  000bb	e8 00 00 00 00	 call	 ?GetTimeInFormat@CDataConversion@@CAHABV?$CStringT@DV?$StrTraitMFC_DLL@DV?$ChTraitsCRT@D@ATL@@@@@ATL@@HHHH@Z ; CDataConversion::GetTimeInFormat
  000c0	83 c4 14	 add	 esp, 20			; 00000014H
  000c3	5f		 pop	 edi
  000c4	5e		 pop	 esi
  000c5	5b		 pop	 ebx

; 433  : }

  000c6	8b e5		 mov	 esp, ebp
  000c8	5d		 pop	 ebp
  000c9	c3		 ret	 0
$LN23@CalcTimeFo:

; 962  : 	while(nData1 >= nLimitData1)

  000ca	8b 55 fc	 mov	 edx, DWORD PTR _nSec$1$[ebp]
  000cd	83 fa 3c	 cmp	 edx, 60			; 0000003cH
  000d0	7c 1e		 jl	 SHORT $LN7@CalcTimeFo
  000d2	b8 89 88 88 88	 mov	 eax, -2004318071	; 88888889H
  000d7	f7 e2		 mul	 edx
  000d9	c1 ea 05	 shr	 edx, 5
  000dc	8b ca		 mov	 ecx, edx
  000de	03 fa		 add	 edi, edx
  000e0	c1 e1 04	 shl	 ecx, 4
  000e3	2b ca		 sub	 ecx, edx
  000e5	8b 55 fc	 mov	 edx, DWORD PTR _nSec$1$[ebp]
  000e8	f7 d9		 neg	 ecx
  000ea	8d 14 8a	 lea	 edx, DWORD PTR [edx+ecx*4]
  000ed	89 55 fc	 mov	 DWORD PTR _nSec$1$[ebp], edx
$LN7@CalcTimeFo:
  000f0	83 ff 3c	 cmp	 edi, 60			; 0000003cH
  000f3	7c 18		 jl	 SHORT $LN11@CalcTimeFo
  000f5	b8 89 88 88 88	 mov	 eax, -2004318071	; 88888889H
  000fa	f7 e7		 mul	 edi
  000fc	c1 ea 05	 shr	 edx, 5
  000ff	8b c2		 mov	 eax, edx
  00101	03 da		 add	 ebx, edx
  00103	c1 e0 04	 shl	 eax, 4
  00106	2b c2		 sub	 eax, edx
  00108	f7 d8		 neg	 eax
  0010a	8d 3c 87	 lea	 edi, DWORD PTR [edi+eax*4]
$LN11@CalcTimeFo:

; 440  : 	if(!bIsTransactionTime)

  0010d	80 7d 14 00	 cmp	 BYTE PTR _bIsTransactionTime$[ebp], 0
  00111	75 18		 jne	 SHORT $LN15@CalcTimeFo

; 962  : 	while(nData1 >= nLimitData1)

  00113	83 fb 18	 cmp	 ebx, 24			; 00000018H
  00116	7c 4d		 jl	 SHORT $LN16@CalcTimeFo
  00118	b8 ab aa aa aa	 mov	 eax, -1431655765	; aaaaaaabH
  0011d	f7 e3		 mul	 ebx
  0011f	c1 ea 04	 shr	 edx, 4
  00122	6b c2 e8	 imul	 eax, edx, -24
  00125	03 f2		 add	 esi, edx
  00127	03 d8		 add	 ebx, eax

; 443  : 		return;

  00129	eb 3a		 jmp	 SHORT $LN16@CalcTimeFo
$LN15@CalcTimeFo:

; 444  : 	}
; 445  : 
; 446  : 	//   . 9 ~ 15
; 447  : 	nDay += (nAddHour / 6);
; 448  : 	nHour = nBaseHour + (nAddHour % 6);

  0012b	8b 5d f8	 mov	 ebx, DWORD PTR _nAddHour$[ebp]
  0012e	b8 ab aa aa 2a	 mov	 eax, 715827883		; 2aaaaaabH
  00133	f7 6d f8	 imul	 DWORD PTR _nAddHour$[ebp]
  00136	8b c2		 mov	 eax, edx
  00138	c1 e8 1f	 shr	 eax, 31			; 0000001fH
  0013b	03 c2		 add	 eax, edx
  0013d	03 f0		 add	 esi, eax
  0013f	8d 04 40	 lea	 eax, DWORD PTR [eax+eax*2]
  00142	03 c0		 add	 eax, eax
  00144	2b d8		 sub	 ebx, eax
  00146	03 5d f4	 add	 ebx, DWORD PTR _nBaseHour$[ebp]
  00149	8b cb		 mov	 ecx, ebx

; 449  : 	if(nHour > 15)

  0014b	83 fb 0f	 cmp	 ebx, 15			; 0000000fH
  0014e	7e 15		 jle	 SHORT $LN16@CalcTimeFo

; 450  : 	{
; 451  : 		nHour -= 15;

  00150	8d 43 f1	 lea	 eax, DWORD PTR [ebx-15]

; 452  : 		if(nHour < 9)
; 453  : 			nHour += 8;
; 454  : 
; 455  : 		nDay++;

  00153	46		 inc	 esi
  00154	33 db		 xor	 ebx, ebx
  00156	83 f8 09	 cmp	 eax, 9
  00159	0f 9c c3	 setl	 bl
  0015c	8d 1c dd f1 ff
	ff ff		 lea	 ebx, DWORD PTR [ebx*8-15]
  00163	03 d9		 add	 ebx, ecx
$LN16@CalcTimeFo:

; 421  : 	}
; 422  : 
; 423  : 	//
; 424  : 	GetDataInLimit(60, nSec, nMin);
; 425  : 	//
; 426  : 	GetDataInLimit(60, nMin, nHour);
; 427  : 	// ->      .
; 428  : 	GetHourTime_Future(nBaseHour, nAddHour, bIsTransactionTime, nDay, nHour);
; 429  : 	//
; 430  : 	nDay = GetRealDailyInTimeFormat(nDay, strFormat);

  00165	ff 75 10	 push	 DWORD PTR _strFormat$[ebp]
  00168	56		 push	 esi
  00169	e8 00 00 00 00	 call	 ?GetRealDailyInTimeFormat@CDataConversion@@CAHHABV?$CStringT@DV?$StrTraitMFC_DLL@DV?$ChTraitsCRT@D@ATL@@@@@ATL@@@Z ; CDataConversion::GetRealDailyInTimeFormat

; 431  : 
; 432  : 	return GetTimeInFormat(strFormat, nDay, nHour, nMin, nSec);

  0016e	8b 4d fc	 mov	 ecx, DWORD PTR _nSec$1$[ebp]
  00171	51		 push	 ecx
  00172	57		 push	 edi
  00173	53		 push	 ebx
  00174	50		 push	 eax
  00175	ff 75 10	 push	 DWORD PTR _strFormat$[ebp]
  00178	e8 00 00 00 00	 call	 ?GetTimeInFormat@CDataConversion@@CAHABV?$CStringT@DV?$StrTraitMFC_DLL@DV?$ChTraitsCRT@D@ATL@@@@@ATL@@HHHH@Z ; CDataConversion::GetTimeInFormat
  0017d	83 c4 1c	 add	 esp, 28			; 0000001cH
  00180	5f		 pop	 edi
  00181	5e		 pop	 esi
  00182	5b		 pop	 ebx

; 433  : }

  00183	8b e5		 mov	 esp, ebp
  00185	5d		 pop	 ebp
  00186	c3		 ret	 0
?CalcTimeFormat_Future@CDataConversion@@CAHABV?$CStringT@DV?$StrTraitMFC_DLL@DV?$ChTraitsCRT@D@ATL@@@@@ATL@@00_N@Z ENDP ; CDataConversion::CalcTimeFormat_Future
_TEXT	ENDS
; Function compile flags: /Ogtp
; File D:\git\src\IBK\IBK_DRFN\ProjSrc\SrcDrfn\Chart\chart_common\DataList\Conversion.cpp
;	COMDAT ?CalcTimeFormat@CDataConversion@@CAHABV?$CStringT@DV?$StrTraitMFC_DLL@DV?$ChTraitsCRT@D@ATL@@@@@ATL@@00_N1@Z
_TEXT	SEGMENT
_nBaseSec$1 = -28					; size = 4
_nBaseMin$2 = -24					; size = 4
_nBaseHour$3 = -20					; size = 4
_nBaseDay$4 = -16					; size = 4
_nAddSec$5 = -12					; size = 4
_nAddMin$6 = -8						; size = 4
_nAddHour$7 = -4					; size = 4
_strBaseValue$ = 8					; size = 4
_strAddValue$ = 12					; size = 4
_strFormat$ = 16					; size = 4
_nAddDay$8 = 20						; size = 4
_bIsFuture$ = 20					; size = 1
_bIsTransactionTime$ = 24				; size = 1
?CalcTimeFormat@CDataConversion@@CAHABV?$CStringT@DV?$StrTraitMFC_DLL@DV?$ChTraitsCRT@D@ATL@@@@@ATL@@00_N1@Z PROC ; CDataConversion::CalcTimeFormat, COMDAT

; 393  : {

  00000	55		 push	 ebp
  00001	8b ec		 mov	 ebp, esp
  00003	83 ec 1c	 sub	 esp, 28			; 0000001cH

; 394  : 	if(bIsFuture)

  00006	80 7d 14 00	 cmp	 BYTE PTR _bIsFuture$[ebp], 0
  0000a	74 18		 je	 SHORT $LN2@CalcTimeFo

; 395  : 		return CalcTimeFormat_Future(strBaseValue, strAddValue, strFormat, bIsTransactionTime);

  0000c	ff 75 18	 push	 DWORD PTR _bIsTransactionTime$[ebp]
  0000f	ff 75 10	 push	 DWORD PTR _strFormat$[ebp]
  00012	ff 75 0c	 push	 DWORD PTR _strAddValue$[ebp]
  00015	ff 75 08	 push	 DWORD PTR _strBaseValue$[ebp]
  00018	e8 00 00 00 00	 call	 ?CalcTimeFormat_Future@CDataConversion@@CAHABV?$CStringT@DV?$StrTraitMFC_DLL@DV?$ChTraitsCRT@D@ATL@@@@@ATL@@00_N@Z ; CDataConversion::CalcTimeFormat_Future
  0001d	83 c4 10	 add	 esp, 16			; 00000010H

; 398  : }

  00020	8b e5		 mov	 esp, ebp
  00022	5d		 pop	 ebp
  00023	c3		 ret	 0
$LN2@CalcTimeFo:

; 464  : 	if(!GetTimeData(strBaseValue, strAddValue, strFormat, 

  00024	8d 45 14	 lea	 eax, DWORD PTR _nAddDay$8[ebp]
  00027	50		 push	 eax
  00028	8d 45 fc	 lea	 eax, DWORD PTR _nAddHour$7[ebp]
  0002b	50		 push	 eax
  0002c	8d 45 f8	 lea	 eax, DWORD PTR _nAddMin$6[ebp]
  0002f	50		 push	 eax
  00030	8d 45 f4	 lea	 eax, DWORD PTR _nAddSec$5[ebp]
  00033	50		 push	 eax
  00034	8d 45 f0	 lea	 eax, DWORD PTR _nBaseDay$4[ebp]
  00037	50		 push	 eax
  00038	8d 45 ec	 lea	 eax, DWORD PTR _nBaseHour$3[ebp]
  0003b	50		 push	 eax
  0003c	8d 45 e8	 lea	 eax, DWORD PTR _nBaseMin$2[ebp]
  0003f	50		 push	 eax
  00040	8d 45 e4	 lea	 eax, DWORD PTR _nBaseSec$1[ebp]
  00043	50		 push	 eax
  00044	ff 75 10	 push	 DWORD PTR _strFormat$[ebp]
  00047	ff 75 0c	 push	 DWORD PTR _strAddValue$[ebp]
  0004a	ff 75 08	 push	 DWORD PTR _strBaseValue$[ebp]
  0004d	e8 00 00 00 00	 call	 ?GetTimeData@CDataConversion@@CA_NABV?$CStringT@DV?$StrTraitMFC_DLL@DV?$ChTraitsCRT@D@ATL@@@@@ATL@@00AAH1111111@Z ; CDataConversion::GetTimeData
  00052	83 c4 2c	 add	 esp, 44			; 0000002cH

; 396  : 	
; 397  : 	return CalcTimeFormat_Past(strBaseValue, strAddValue, strFormat, bIsTransactionTime);

  00055	33 c0		 xor	 eax, eax

; 398  : }

  00057	8b e5		 mov	 esp, ebp
  00059	5d		 pop	 ebp
  0005a	c3		 ret	 0
?CalcTimeFormat@CDataConversion@@CAHABV?$CStringT@DV?$StrTraitMFC_DLL@DV?$ChTraitsCRT@D@ATL@@@@@ATL@@00_N1@Z ENDP ; CDataConversion::CalcTimeFormat
_TEXT	ENDS
; Function compile flags: /Ogtp
; File D:\git\src\IBK\IBK_DRFN\ProjSrc\SrcDrfn\Chart\chart_common\DataList\Conversion.cpp
;	COMDAT ?GetDataInLimit@CDataConversion@@CAXHAAH0@Z
_TEXT	SEGMENT
_nLimitData1$ = 8					; size = 4
_nData1$ = 12						; size = 4
_nData2$ = 16						; size = 4
?GetDataInLimit@CDataConversion@@CAXHAAH0@Z PROC	; CDataConversion::GetDataInLimit, COMDAT

; 961  : {

  00000	55		 push	 ebp
  00001	8b ec		 mov	 ebp, esp

; 962  : 	while(nData1 >= nLimitData1)

  00003	8b 45 0c	 mov	 eax, DWORD PTR _nData1$[ebp]
  00006	8b 4d 08	 mov	 ecx, DWORD PTR _nLimitData1$[ebp]
  00009	39 08		 cmp	 DWORD PTR [eax], ecx
  0000b	7c 0b		 jl	 SHORT $LN3@GetDataInL
  0000d	8b 55 10	 mov	 edx, DWORD PTR _nData2$[ebp]
$LL2@GetDataInL:

; 963  : 	{
; 964  : 		nData1 -= nLimitData1;

  00010	29 08		 sub	 DWORD PTR [eax], ecx

; 965  : 		nData2++;

  00012	ff 02		 inc	 DWORD PTR [edx]
  00014	39 08		 cmp	 DWORD PTR [eax], ecx
  00016	7d f8		 jge	 SHORT $LL2@GetDataInL
$LN3@GetDataInL:

; 966  : 	}
; 967  : }

  00018	5d		 pop	 ebp
  00019	c3		 ret	 0
?GetDataInLimit@CDataConversion@@CAXHAAH0@Z ENDP	; CDataConversion::GetDataInLimit
_TEXT	ENDS
; Function compile flags: /Ogtp
; File D:\git\src\IBK\IBK_DRFN\ProjSrc\SrcDrfn\Chart\chart_common\DataList\Conversion.cpp
;	COMDAT ?GetAllTime@CDataConversion@@CA_NHHHHHAAH0AA_N@Z
_TEXT	SEGMENT
_nAddIndex$ = 8						; size = 4
_nInterval$ = 12					; size = 4
_nMaxGap$ = 16						; size = 4
_nMinGap$ = 20						; size = 4
_nLimitData1$ = 24					; size = 4
_nData1$ = 28						; size = 4
_nData2$ = 32						; size = 4
_bIsIntervalEnd$ = 36					; size = 4
?GetAllTime@CDataConversion@@CA_NHHHHHAAH0AA_N@Z PROC	; CDataConversion::GetAllTime, COMDAT

; 948  : {

  00000	55		 push	 ebp
  00001	8b ec		 mov	 ebp, esp
  00003	56		 push	 esi

; 949  : 	if(nLimitData1 <= 0 || nMaxGap <= 0 || nMinGap <= 0)

  00004	8b 75 18	 mov	 esi, DWORD PTR _nLimitData1$[ebp]
  00007	57		 push	 edi
  00008	85 f6		 test	 esi, esi
  0000a	7e 45		 jle	 SHORT $LN3@GetAllTime
  0000c	8b 7d 10	 mov	 edi, DWORD PTR _nMaxGap$[ebp]
  0000f	85 ff		 test	 edi, edi
  00011	7e 3e		 jle	 SHORT $LN3@GetAllTime
  00013	83 7d 14 00	 cmp	 DWORD PTR _nMinGap$[ebp], 0
  00017	7e 38		 jle	 SHORT $LN3@GetAllTime

; 951  : 
; 952  : 	bIsIntervalEnd = (nInterval < nMaxGap);

  00019	8b 45 0c	 mov	 eax, DWORD PTR _nInterval$[ebp]
  0001c	3b c7		 cmp	 eax, edi
  0001e	8b 4d 24	 mov	 ecx, DWORD PTR _bIsIntervalEnd$[ebp]
  00021	0f 9c c2	 setl	 dl
  00024	88 11		 mov	 BYTE PTR [ecx], dl

; 953  : 	int nAddData = nAddIndex * ((nInterval % nMaxGap) / nMinGap);

  00026	99		 cdq
  00027	f7 ff		 idiv	 edi

; 954  : 	nData1 += nAddData;

  00029	8b 4d 1c	 mov	 ecx, DWORD PTR _nData1$[ebp]
  0002c	8b c2		 mov	 eax, edx
  0002e	99		 cdq
  0002f	f7 7d 14	 idiv	 DWORD PTR _nMinGap$[ebp]
  00032	0f af 45 08	 imul	 eax, DWORD PTR _nAddIndex$[ebp]
  00036	01 01		 add	 DWORD PTR [ecx], eax

; 962  : 	while(nData1 >= nLimitData1)

  00038	39 31		 cmp	 DWORD PTR [ecx], esi
  0003a	7c 0c		 jl	 SHORT $LN7@GetAllTime
  0003c	8b 55 20	 mov	 edx, DWORD PTR _nData2$[ebp]
  0003f	90		 npad	 1
$LL6@GetAllTime:

; 963  : 	{
; 964  : 		nData1 -= nLimitData1;

  00040	29 31		 sub	 DWORD PTR [ecx], esi

; 965  : 		nData2++;

  00042	ff 02		 inc	 DWORD PTR [edx]
  00044	39 31		 cmp	 DWORD PTR [ecx], esi
  00046	7d f8		 jge	 SHORT $LL6@GetAllTime
$LN7@GetAllTime:

; 955  : 
; 956  : 	GetDataInLimit(nLimitData1, nData1, nData2);
; 957  : 	return (nAddData > 0);

  00048	85 c0		 test	 eax, eax
  0004a	5f		 pop	 edi
  0004b	0f 9f c0	 setg	 al

; 958  : }

  0004e	5e		 pop	 esi
  0004f	5d		 pop	 ebp
  00050	c3		 ret	 0
$LN3@GetAllTime:
  00051	5f		 pop	 edi

; 950  : 		return false;

  00052	32 c0		 xor	 al, al

; 958  : }

  00054	5e		 pop	 esi
  00055	5d		 pop	 ebp
  00056	c3		 ret	 0
?GetAllTime@CDataConversion@@CA_NHHHHHAAH0AA_N@Z ENDP	; CDataConversion::GetAllTime
_TEXT	ENDS
; Function compile flags: /Ogtp
; File D:\git\src\IBK\IBK_DRFN\ProjSrc\SrcDrfn\Chart\chart_common\DataList\Conversion.cpp
; File C:\Program Files (x86)\Microsoft Visual Studio\2019\Community\VC\Tools\MSVC\14.29.30133\atlmfc\include\atlsimpstr.h
; File D:\git\src\IBK\IBK_DRFN\ProjSrc\SrcDrfn\Chart\chart_common\DataList\Conversion.cpp
;	COMDAT ?GetAllTime_Hour@CDataConversion@@CA_NHHABV?$CStringT@DV?$StrTraitMFC_DLL@DV?$ChTraitsCRT@D@ATL@@@@@ATL@@AAH1AA_N@Z
_TEXT	SEGMENT
_nAddIndex$ = 8						; size = 4
_nInterval$ = 12					; size = 4
_strFormat$ = 16					; size = 4
_nHour$ = 20						; size = 4
_nDay$ = 24						; size = 4
_bIsIntervalEnd$ = 28					; size = 4
?GetAllTime_Hour@CDataConversion@@CA_NHHABV?$CStringT@DV?$StrTraitMFC_DLL@DV?$ChTraitsCRT@D@ATL@@@@@ATL@@AAH1AA_N@Z PROC ; CDataConversion::GetAllTime_Hour, COMDAT

; 933  : {

  00000	55		 push	 ebp
  00001	8b ec		 mov	 ebp, esp
  00003	56		 push	 esi

; 934  : 	//ing
; 935  : 	int nFindIndex = strFormat.Find('H');

  00004	8b 75 10	 mov	 esi, DWORD PTR _strFormat$[ebp]
  00007	8b ce		 mov	 ecx, esi
  00009	6a 00		 push	 0
  0000b	6a 48		 push	 72			; 00000048H
  0000d	ff 15 00 00 00
	00		 call	 DWORD PTR __imp_?Find@?$CStringT@DV?$StrTraitMFC_DLL@DV?$ChTraitsCRT@D@ATL@@@@@ATL@@QBEHDH@Z
  00013	8b c8		 mov	 ecx, eax

; 936  : 	if(nFindIndex < 0)

  00015	85 c9		 test	 ecx, ecx
  00017	79 05		 jns	 SHORT $LN2@GetAllTime

; 937  : 		return false;

  00019	32 c0		 xor	 al, al
  0001b	5e		 pop	 esi

; 943  : }

  0001c	5d		 pop	 ebp
  0001d	c3		 ret	 0
$LN2@GetAllTime:
; File C:\Program Files (x86)\Microsoft Visual Studio\2019\Community\VC\Tools\MSVC\14.29.30133\atlmfc\include\atlsimpstr.h

; 519  : 		return( GetData()->nDataLength );

  0001e	8b 06		 mov	 eax, DWORD PTR [esi]
  00020	57		 push	 edi
  00021	8b 40 f4	 mov	 eax, DWORD PTR [eax-12]
; File D:\git\src\IBK\IBK_DRFN\ProjSrc\SrcDrfn\Chart\chart_common\DataList\Conversion.cpp

; 939  : 	int nMaxGap = CMath::Power(10, (strFormat.GetLength() - nFindIndex));

  00024	2b c1		 sub	 eax, ecx
  00026	50		 push	 eax
  00027	6a 0a		 push	 10			; 0000000aH
  00029	e8 00 00 00 00	 call	 ?Power@CMath@@SAHHH@Z	; CMath::Power
  0002e	8b f8		 mov	 edi, eax
  00030	83 c4 08	 add	 esp, 8

; 949  : 	if(nLimitData1 <= 0 || nMaxGap <= 0 || nMinGap <= 0)

  00033	85 ff		 test	 edi, edi
  00035	7e 4e		 jle	 SHORT $LN10@GetAllTime

; 940  : 	int nMinGap = nMaxGap / 100;

  00037	b8 1f 85 eb 51	 mov	 eax, 1374389535		; 51eb851fH
  0003c	f7 ef		 imul	 edi
  0003e	c1 fa 05	 sar	 edx, 5
  00041	8b f2		 mov	 esi, edx
  00043	c1 ee 1f	 shr	 esi, 31			; 0000001fH
  00046	03 f2		 add	 esi, edx

; 949  : 	if(nLimitData1 <= 0 || nMaxGap <= 0 || nMinGap <= 0)

  00048	85 f6		 test	 esi, esi
  0004a	7e 39		 jle	 SHORT $LN10@GetAllTime

; 951  : 
; 952  : 	bIsIntervalEnd = (nInterval < nMaxGap);

  0004c	8b 45 0c	 mov	 eax, DWORD PTR _nInterval$[ebp]
  0004f	3b c7		 cmp	 eax, edi
  00051	8b 4d 1c	 mov	 ecx, DWORD PTR _bIsIntervalEnd$[ebp]
  00054	0f 9c c2	 setl	 dl
  00057	88 11		 mov	 BYTE PTR [ecx], dl

; 953  : 	int nAddData = nAddIndex * ((nInterval % nMaxGap) / nMinGap);

  00059	99		 cdq
  0005a	f7 ff		 idiv	 edi

; 954  : 	nData1 += nAddData;

  0005c	8b 4d 14	 mov	 ecx, DWORD PTR _nHour$[ebp]
  0005f	8b c2		 mov	 eax, edx
  00061	99		 cdq
  00062	f7 fe		 idiv	 esi
  00064	0f af 45 08	 imul	 eax, DWORD PTR _nAddIndex$[ebp]
  00068	01 01		 add	 DWORD PTR [ecx], eax

; 962  : 	while(nData1 >= nLimitData1)

  0006a	83 39 18	 cmp	 DWORD PTR [ecx], 24	; 00000018H
  0006d	7c 0d		 jl	 SHORT $LN14@GetAllTime
  0006f	8b 55 18	 mov	 edx, DWORD PTR _nDay$[ebp]
$LL13@GetAllTime:

; 963  : 	{
; 964  : 		nData1 -= nLimitData1;

  00072	83 01 e8	 add	 DWORD PTR [ecx], -24	; ffffffe8H

; 965  : 		nData2++;

  00075	ff 02		 inc	 DWORD PTR [edx]
  00077	83 39 18	 cmp	 DWORD PTR [ecx], 24	; 00000018H
  0007a	7d f6		 jge	 SHORT $LL13@GetAllTime
$LN14@GetAllTime:

; 957  : 	return (nAddData > 0);

  0007c	85 c0		 test	 eax, eax

; 941  : 
; 942  : 	return GetAllTime(nAddIndex, nInterval, nMaxGap, nMinGap, 24, nHour, nDay, bIsIntervalEnd);

  0007e	5f		 pop	 edi

; 957  : 	return (nAddData > 0);

  0007f	0f 9f c0	 setg	 al
  00082	5e		 pop	 esi

; 943  : }

  00083	5d		 pop	 ebp
  00084	c3		 ret	 0
$LN10@GetAllTime:

; 941  : 
; 942  : 	return GetAllTime(nAddIndex, nInterval, nMaxGap, nMinGap, 24, nHour, nDay, bIsIntervalEnd);

  00085	5f		 pop	 edi

; 950  : 		return false;

  00086	32 c0		 xor	 al, al
  00088	5e		 pop	 esi

; 943  : }

  00089	5d		 pop	 ebp
  0008a	c3		 ret	 0
?GetAllTime_Hour@CDataConversion@@CA_NHHABV?$CStringT@DV?$StrTraitMFC_DLL@DV?$ChTraitsCRT@D@ATL@@@@@ATL@@AAH1AA_N@Z ENDP ; CDataConversion::GetAllTime_Hour
_TEXT	ENDS
; Function compile flags: /Ogtp
; File D:\git\src\IBK\IBK_DRFN\ProjSrc\SrcDrfn\Chart\chart_common\DataList\Conversion.cpp
; File C:\Program Files (x86)\Microsoft Visual Studio\2019\Community\VC\Tools\MSVC\14.29.30133\atlmfc\include\cstringt.h
; File D:\git\src\IBK\IBK_DRFN\ProjSrc\SrcDrfn\Chart\chart_common\DataList\Conversion.cpp
; File C:\Program Files (x86)\Microsoft Visual Studio\2019\Community\VC\Tools\MSVC\14.29.30133\atlmfc\include\cstringt.h
; File D:\git\src\IBK\IBK_DRFN\ProjSrc\SrcDrfn\Chart\chart_common\DataList\Conversion.cpp
; File C:\Program Files (x86)\Microsoft Visual Studio\2019\Community\VC\Tools\MSVC\14.29.30133\atlmfc\include\cstringt.h
; File D:\git\src\IBK\IBK_DRFN\ProjSrc\SrcDrfn\Chart\chart_common\DataList\Conversion.cpp
; File C:\Program Files (x86)\Microsoft Visual Studio\2019\Community\VC\Tools\MSVC\14.29.30133\atlmfc\include\cstringt.h
; File D:\git\src\IBK\IBK_DRFN\ProjSrc\SrcDrfn\Chart\chart_common\DataList\Conversion.cpp
; File C:\Program Files (x86)\Microsoft Visual Studio\2019\Community\VC\Tools\MSVC\14.29.30133\atlmfc\include\cstringt.h
; File D:\git\src\IBK\IBK_DRFN\ProjSrc\SrcDrfn\Chart\chart_common\DataList\Conversion.cpp
; File C:\Program Files (x86)\Microsoft Visual Studio\2019\Community\VC\Tools\MSVC\14.29.30133\atlmfc\include\cstringt.h
; File D:\git\src\IBK\IBK_DRFN\ProjSrc\SrcDrfn\Chart\chart_common\DataList\Conversion.cpp
;	COMDAT ?GetAllTime_Minute@CDataConversion@@CA_NHHABV?$CStringT@DV?$StrTraitMFC_DLL@DV?$ChTraitsCRT@D@ATL@@@@@ATL@@AAH1AA_N@Z
_TEXT	SEGMENT
$T2 = -20						; size = 4
$T3 = -16						; size = 4
__$EHRec$ = -12						; size = 12
_nAddIndex$ = 8						; size = 4
_nInterval$ = 12					; size = 4
_strFormat$ = 16					; size = 4
_nMin$ = 20						; size = 4
_nHour$ = 24						; size = 4
_bIsIntervalEnd$ = 28					; size = 4
?GetAllTime_Minute@CDataConversion@@CA_NHHABV?$CStringT@DV?$StrTraitMFC_DLL@DV?$ChTraitsCRT@D@ATL@@@@@ATL@@AAH1AA_N@Z PROC ; CDataConversion::GetAllTime_Minute, COMDAT

; 917  : {

  00000	55		 push	 ebp
  00001	8b ec		 mov	 ebp, esp
  00003	6a ff		 push	 -1
  00005	68 00 00 00 00	 push	 __ehhandler$?GetAllTime_Minute@CDataConversion@@CA_NHHABV?$CStringT@DV?$StrTraitMFC_DLL@DV?$ChTraitsCRT@D@ATL@@@@@ATL@@AAH1AA_N@Z
  0000a	64 a1 00 00 00
	00		 mov	 eax, DWORD PTR fs:0
  00010	50		 push	 eax
  00011	83 ec 08	 sub	 esp, 8
  00014	56		 push	 esi
  00015	a1 00 00 00 00	 mov	 eax, DWORD PTR ___security_cookie
  0001a	33 c5		 xor	 eax, ebp
  0001c	50		 push	 eax
  0001d	8d 45 f4	 lea	 eax, DWORD PTR __$EHRec$[ebp]
  00020	64 a3 00 00 00
	00		 mov	 DWORD PTR fs:0, eax

; 918  : 	if(strFormat.Right(4) == "MMSS")

  00026	8b 4d 10	 mov	 ecx, DWORD PTR _strFormat$[ebp]
  00029	8d 45 f0	 lea	 eax, DWORD PTR $T3[ebp]
  0002c	6a 04		 push	 4
  0002e	50		 push	 eax
  0002f	ff 15 00 00 00
	00		 call	 DWORD PTR __imp_?Right@?$CStringT@DV?$StrTraitMFC_DLL@DV?$ChTraitsCRT@D@ATL@@@@@ATL@@QBE?AV12@H@Z
; File C:\Program Files (x86)\Microsoft Visual Studio\2019\Community\VC\Tools\MSVC\14.29.30133\atlmfc\include\cstringt.h

; 2486 : 		return(str1.Compare(psz2) == 0);

  00035	68 00 00 00 00	 push	 OFFSET ??_C@_04PKMIKIE@MMSS@
  0003a	8b c8		 mov	 ecx, eax
; File D:\git\src\IBK\IBK_DRFN\ProjSrc\SrcDrfn\Chart\chart_common\DataList\Conversion.cpp

; 918  : 	if(strFormat.Right(4) == "MMSS")

  0003c	c7 45 fc 00 00
	00 00		 mov	 DWORD PTR __$EHRec$[ebp+8], 0
; File C:\Program Files (x86)\Microsoft Visual Studio\2019\Community\VC\Tools\MSVC\14.29.30133\atlmfc\include\cstringt.h

; 2486 : 		return(str1.Compare(psz2) == 0);

  00043	ff 15 00 00 00
	00		 call	 DWORD PTR __imp_?Compare@?$CStringT@DV?$StrTraitMFC_DLL@DV?$ChTraitsCRT@D@ATL@@@@@ATL@@QBEHPBD@Z
; File D:\git\src\IBK\IBK_DRFN\ProjSrc\SrcDrfn\Chart\chart_common\DataList\Conversion.cpp

; 918  : 	if(strFormat.Right(4) == "MMSS")

  00049	8d 4d f0	 lea	 ecx, DWORD PTR $T3[ebp]
  0004c	c7 45 fc ff ff
	ff ff		 mov	 DWORD PTR __$EHRec$[ebp+8], -1
; File C:\Program Files (x86)\Microsoft Visual Studio\2019\Community\VC\Tools\MSVC\14.29.30133\atlmfc\include\cstringt.h

; 2486 : 		return(str1.Compare(psz2) == 0);

  00053	8b f0		 mov	 esi, eax
; File D:\git\src\IBK\IBK_DRFN\ProjSrc\SrcDrfn\Chart\chart_common\DataList\Conversion.cpp

; 918  : 	if(strFormat.Right(4) == "MMSS")

  00055	ff 15 00 00 00
	00		 call	 DWORD PTR __imp_??1?$CStringT@DV?$StrTraitMFC_DLL@DV?$ChTraitsCRT@D@ATL@@@@@ATL@@QAE@XZ
  0005b	85 f6		 test	 esi, esi
  0005d	75 70		 jne	 SHORT $LN2@GetAllTime

; 952  : 	bIsIntervalEnd = (nInterval < nMaxGap);

  0005f	8b 75 0c	 mov	 esi, DWORD PTR _nInterval$[ebp]
  00062	81 fe 10 27 00
	00		 cmp	 esi, 10000		; 00002710H
  00068	8b 45 1c	 mov	 eax, DWORD PTR _bIsIntervalEnd$[ebp]
  0006b	0f 9c c1	 setl	 cl
  0006e	88 08		 mov	 BYTE PTR [eax], cl

; 953  : 	int nAddData = nAddIndex * ((nInterval % nMaxGap) / nMinGap);

  00070	b8 ad 8b db 68	 mov	 eax, 1759218605		; 68db8badH
  00075	f7 ee		 imul	 esi
  00077	c1 fa 0c	 sar	 edx, 12			; 0000000cH
  0007a	8b c2		 mov	 eax, edx
  0007c	c1 e8 1f	 shr	 eax, 31			; 0000001fH
  0007f	03 c2		 add	 eax, edx
  00081	69 c0 10 27 00
	00		 imul	 eax, eax, 10000
  00087	2b f0		 sub	 esi, eax
  00089	b8 1f 85 eb 51	 mov	 eax, 1374389535		; 51eb851fH
  0008e	f7 ee		 imul	 esi

; 954  : 	nData1 += nAddData;

  00090	8b 45 14	 mov	 eax, DWORD PTR _nMin$[ebp]
  00093	c1 fa 05	 sar	 edx, 5
  00096	8b f2		 mov	 esi, edx
  00098	c1 ee 1f	 shr	 esi, 31			; 0000001fH
  0009b	03 f2		 add	 esi, edx
  0009d	0f af 75 08	 imul	 esi, DWORD PTR _nAddIndex$[ebp]
  000a1	01 30		 add	 DWORD PTR [eax], esi

; 962  : 	while(nData1 >= nLimitData1)

  000a3	83 38 3c	 cmp	 DWORD PTR [eax], 60	; 0000003cH
  000a6	7c 12		 jl	 SHORT $LN16@GetAllTime
  000a8	8b 4d 18	 mov	 ecx, DWORD PTR _nHour$[ebp]
  000ab	0f 1f 44 00 00	 npad	 5
$LL15@GetAllTime:

; 963  : 	{
; 964  : 		nData1 -= nLimitData1;

  000b0	83 00 c4	 add	 DWORD PTR [eax], -60	; ffffffc4H

; 965  : 		nData2++;

  000b3	ff 01		 inc	 DWORD PTR [ecx]
  000b5	83 38 3c	 cmp	 DWORD PTR [eax], 60	; 0000003cH
  000b8	7d f6		 jge	 SHORT $LL15@GetAllTime
$LN16@GetAllTime:

; 957  : 	return (nAddData > 0);

  000ba	85 f6		 test	 esi, esi
  000bc	0f 9f c0	 setg	 al

; 928  : }

  000bf	8b 4d f4	 mov	 ecx, DWORD PTR __$EHRec$[ebp]
  000c2	64 89 0d 00 00
	00 00		 mov	 DWORD PTR fs:0, ecx
  000c9	59		 pop	 ecx
  000ca	5e		 pop	 esi
  000cb	8b e5		 mov	 esp, ebp
  000cd	5d		 pop	 ebp
  000ce	c3		 ret	 0
$LN2@GetAllTime:

; 922  : 	else if(strFormat.Right(4) == "HHMM")

  000cf	8b 4d 10	 mov	 ecx, DWORD PTR _strFormat$[ebp]
  000d2	8d 45 ec	 lea	 eax, DWORD PTR $T2[ebp]
  000d5	6a 04		 push	 4
  000d7	50		 push	 eax
  000d8	ff 15 00 00 00
	00		 call	 DWORD PTR __imp_?Right@?$CStringT@DV?$StrTraitMFC_DLL@DV?$ChTraitsCRT@D@ATL@@@@@ATL@@QBE?AV12@H@Z
; File C:\Program Files (x86)\Microsoft Visual Studio\2019\Community\VC\Tools\MSVC\14.29.30133\atlmfc\include\cstringt.h

; 2486 : 		return(str1.Compare(psz2) == 0);

  000de	68 00 00 00 00	 push	 OFFSET ??_C@_04DCGLEEGD@HHMM@
  000e3	8b c8		 mov	 ecx, eax
; File D:\git\src\IBK\IBK_DRFN\ProjSrc\SrcDrfn\Chart\chart_common\DataList\Conversion.cpp

; 922  : 	else if(strFormat.Right(4) == "HHMM")

  000e5	c7 45 fc 01 00
	00 00		 mov	 DWORD PTR __$EHRec$[ebp+8], 1
; File C:\Program Files (x86)\Microsoft Visual Studio\2019\Community\VC\Tools\MSVC\14.29.30133\atlmfc\include\cstringt.h

; 2486 : 		return(str1.Compare(psz2) == 0);

  000ec	ff 15 00 00 00
	00		 call	 DWORD PTR __imp_?Compare@?$CStringT@DV?$StrTraitMFC_DLL@DV?$ChTraitsCRT@D@ATL@@@@@ATL@@QBEHPBD@Z
; File D:\git\src\IBK\IBK_DRFN\ProjSrc\SrcDrfn\Chart\chart_common\DataList\Conversion.cpp

; 922  : 	else if(strFormat.Right(4) == "HHMM")

  000f2	8d 4d ec	 lea	 ecx, DWORD PTR $T2[ebp]
; File C:\Program Files (x86)\Microsoft Visual Studio\2019\Community\VC\Tools\MSVC\14.29.30133\atlmfc\include\cstringt.h

; 2486 : 		return(str1.Compare(psz2) == 0);

  000f5	8b f0		 mov	 esi, eax
; File D:\git\src\IBK\IBK_DRFN\ProjSrc\SrcDrfn\Chart\chart_common\DataList\Conversion.cpp

; 922  : 	else if(strFormat.Right(4) == "HHMM")

  000f7	ff 15 00 00 00
	00		 call	 DWORD PTR __imp_??1?$CStringT@DV?$StrTraitMFC_DLL@DV?$ChTraitsCRT@D@ATL@@@@@ATL@@QAE@XZ
  000fd	85 f6		 test	 esi, esi
  000ff	75 54		 jne	 SHORT $LN4@GetAllTime

; 952  : 	bIsIntervalEnd = (nInterval < nMaxGap);

  00101	8b 75 0c	 mov	 esi, DWORD PTR _nInterval$[ebp]
  00104	83 fe 64	 cmp	 esi, 100		; 00000064H
  00107	8b 45 1c	 mov	 eax, DWORD PTR _bIsIntervalEnd$[ebp]
  0010a	0f 9c c1	 setl	 cl
  0010d	88 08		 mov	 BYTE PTR [eax], cl

; 953  : 	int nAddData = nAddIndex * ((nInterval % nMaxGap) / nMinGap);

  0010f	b8 1f 85 eb 51	 mov	 eax, 1374389535		; 51eb851fH
  00114	f7 ee		 imul	 esi
  00116	c1 fa 05	 sar	 edx, 5
  00119	8b c2		 mov	 eax, edx
  0011b	c1 e8 1f	 shr	 eax, 31			; 0000001fH
  0011e	03 c2		 add	 eax, edx
  00120	6b c0 64	 imul	 eax, eax, 100
  00123	2b f0		 sub	 esi, eax

; 954  : 	nData1 += nAddData;

  00125	8b 45 14	 mov	 eax, DWORD PTR _nMin$[ebp]
  00128	0f af 75 08	 imul	 esi, DWORD PTR _nAddIndex$[ebp]
  0012c	01 30		 add	 DWORD PTR [eax], esi

; 962  : 	while(nData1 >= nLimitData1)

  0012e	83 38 3c	 cmp	 DWORD PTR [eax], 60	; 0000003cH
  00131	7c 87		 jl	 SHORT $LN16@GetAllTime
  00133	8b 4d 18	 mov	 ecx, DWORD PTR _nHour$[ebp]
$LL25@GetAllTime:

; 963  : 	{
; 964  : 		nData1 -= nLimitData1;

  00136	83 00 c4	 add	 DWORD PTR [eax], -60	; ffffffc4H

; 965  : 		nData2++;

  00139	ff 01		 inc	 DWORD PTR [ecx]
  0013b	83 38 3c	 cmp	 DWORD PTR [eax], 60	; 0000003cH
  0013e	7d f6		 jge	 SHORT $LL25@GetAllTime

; 957  : 	return (nAddData > 0);

  00140	85 f6		 test	 esi, esi
  00142	0f 9f c0	 setg	 al

; 928  : }

  00145	8b 4d f4	 mov	 ecx, DWORD PTR __$EHRec$[ebp]
  00148	64 89 0d 00 00
	00 00		 mov	 DWORD PTR fs:0, ecx
  0014f	59		 pop	 ecx
  00150	5e		 pop	 esi
  00151	8b e5		 mov	 esp, ebp
  00153	5d		 pop	 ebp
  00154	c3		 ret	 0
$LN4@GetAllTime:

; 923  : 	{
; 924  : 		return GetAllTime(nAddIndex, nInterval, 100, 1, 60, nMin, nHour, bIsIntervalEnd);
; 925  : 	}
; 926  : 
; 927  : 	return false;

  00155	32 c0		 xor	 al, al

; 928  : }

  00157	8b 4d f4	 mov	 ecx, DWORD PTR __$EHRec$[ebp]
  0015a	64 89 0d 00 00
	00 00		 mov	 DWORD PTR fs:0, ecx
  00161	59		 pop	 ecx
  00162	5e		 pop	 esi
  00163	8b e5		 mov	 esp, ebp
  00165	5d		 pop	 ebp
  00166	c3		 ret	 0
_TEXT	ENDS
;	COMDAT text$x
text$x	SEGMENT
__unwindfunclet$?GetAllTime_Minute@CDataConversion@@CA_NHHABV?$CStringT@DV?$StrTraitMFC_DLL@DV?$ChTraitsCRT@D@ATL@@@@@ATL@@AAH1AA_N@Z$0:
  00000	8d 4d f0	 lea	 ecx, DWORD PTR $T3[ebp]
  00003	ff 25 00 00 00
	00		 jmp	 DWORD PTR __imp_??1?$CStringT@DV?$StrTraitMFC_DLL@DV?$ChTraitsCRT@D@ATL@@@@@ATL@@QAE@XZ
__unwindfunclet$?GetAllTime_Minute@CDataConversion@@CA_NHHABV?$CStringT@DV?$StrTraitMFC_DLL@DV?$ChTraitsCRT@D@ATL@@@@@ATL@@AAH1AA_N@Z$1:
  00009	8d 4d ec	 lea	 ecx, DWORD PTR $T2[ebp]
  0000c	ff 25 00 00 00
	00		 jmp	 DWORD PTR __imp_??1?$CStringT@DV?$StrTraitMFC_DLL@DV?$ChTraitsCRT@D@ATL@@@@@ATL@@QAE@XZ
  00012	cc		 int	 3
  00013	cc		 int	 3
  00014	cc		 int	 3
  00015	cc		 int	 3
  00016	cc		 int	 3
__ehhandler$?GetAllTime_Minute@CDataConversion@@CA_NHHABV?$CStringT@DV?$StrTraitMFC_DLL@DV?$ChTraitsCRT@D@ATL@@@@@ATL@@AAH1AA_N@Z:
  00017	90		 npad	 1
  00018	90		 npad	 1
  00019	8b 54 24 08	 mov	 edx, DWORD PTR [esp+8]
  0001d	8d 42 0c	 lea	 eax, DWORD PTR [edx+12]
  00020	8b 4a f0	 mov	 ecx, DWORD PTR [edx-16]
  00023	33 c8		 xor	 ecx, eax
  00025	e8 00 00 00 00	 call	 @__security_check_cookie@4
  0002a	b8 00 00 00 00	 mov	 eax, OFFSET __ehfuncinfo$?GetAllTime_Minute@CDataConversion@@CA_NHHABV?$CStringT@DV?$StrTraitMFC_DLL@DV?$ChTraitsCRT@D@ATL@@@@@ATL@@AAH1AA_N@Z
  0002f	e9 00 00 00 00	 jmp	 ___CxxFrameHandler3
text$x	ENDS
?GetAllTime_Minute@CDataConversion@@CA_NHHABV?$CStringT@DV?$StrTraitMFC_DLL@DV?$ChTraitsCRT@D@ATL@@@@@ATL@@AAH1AA_N@Z ENDP ; CDataConversion::GetAllTime_Minute
; Function compile flags: /Ogtp
; File D:\git\src\IBK\IBK_DRFN\ProjSrc\SrcDrfn\Chart\chart_common\DataList\Conversion.cpp
;	COMDAT ?GetAllTime_Second@CDataConversion@@CA_NHHABV?$CStringT@DV?$StrTraitMFC_DLL@DV?$ChTraitsCRT@D@ATL@@@@@ATL@@AAH1AA_N@Z
_TEXT	SEGMENT
_nAddIndex$ = 8						; size = 4
_nInterval$ = 12					; size = 4
_strFormat$ = 16					; size = 4
_nSec$ = 20						; size = 4
_nMin$ = 24						; size = 4
_bIsIntervalEnd$ = 28					; size = 4
?GetAllTime_Second@CDataConversion@@CA_NHHABV?$CStringT@DV?$StrTraitMFC_DLL@DV?$ChTraitsCRT@D@ATL@@@@@ATL@@AAH1AA_N@Z PROC ; CDataConversion::GetAllTime_Second, COMDAT

; 907  : {

  00000	55		 push	 ebp
  00001	8b ec		 mov	 ebp, esp
  00003	56		 push	 esi
  00004	8b 75 0c	 mov	 esi, DWORD PTR _nInterval$[ebp]

; 908  : 	if(nInterval <= 0 || strFormat.Find("SS") < 0)

  00007	85 f6		 test	 esi, esi
  00009	7e 57		 jle	 SHORT $LN3@GetAllTime
  0000b	8b 4d 10	 mov	 ecx, DWORD PTR _strFormat$[ebp]
  0000e	6a 00		 push	 0
  00010	68 00 00 00 00	 push	 OFFSET ??_C@_02PPNCLIJD@SS@
  00015	ff 15 00 00 00
	00		 call	 DWORD PTR __imp_?Find@?$CStringT@DV?$StrTraitMFC_DLL@DV?$ChTraitsCRT@D@ATL@@@@@ATL@@QBEHPBDH@Z
  0001b	85 c0		 test	 eax, eax
  0001d	78 43		 js	 SHORT $LN3@GetAllTime

; 952  : 	bIsIntervalEnd = (nInterval < nMaxGap);

  0001f	8b 45 1c	 mov	 eax, DWORD PTR _bIsIntervalEnd$[ebp]
  00022	83 fe 64	 cmp	 esi, 100		; 00000064H
  00025	0f 9c c1	 setl	 cl
  00028	88 08		 mov	 BYTE PTR [eax], cl

; 953  : 	int nAddData = nAddIndex * ((nInterval % nMaxGap) / nMinGap);

  0002a	b8 1f 85 eb 51	 mov	 eax, 1374389535		; 51eb851fH
  0002f	f7 e6		 mul	 esi
  00031	c1 ea 05	 shr	 edx, 5
  00034	6b c2 64	 imul	 eax, edx, 100
  00037	2b f0		 sub	 esi, eax

; 954  : 	nData1 += nAddData;

  00039	8b 45 14	 mov	 eax, DWORD PTR _nSec$[ebp]
  0003c	0f af 75 08	 imul	 esi, DWORD PTR _nAddIndex$[ebp]
  00040	01 30		 add	 DWORD PTR [eax], esi

; 962  : 	while(nData1 >= nLimitData1)

  00042	83 38 3c	 cmp	 DWORD PTR [eax], 60	; 0000003cH
  00045	7c 13		 jl	 SHORT $LN11@GetAllTime
  00047	8b 4d 18	 mov	 ecx, DWORD PTR _nMin$[ebp]
  0004a	66 0f 1f 44 00
	00		 npad	 6
$LL10@GetAllTime:

; 963  : 	{
; 964  : 		nData1 -= nLimitData1;

  00050	83 00 c4	 add	 DWORD PTR [eax], -60	; ffffffc4H

; 965  : 		nData2++;

  00053	ff 01		 inc	 DWORD PTR [ecx]
  00055	83 38 3c	 cmp	 DWORD PTR [eax], 60	; 0000003cH
  00058	7d f6		 jge	 SHORT $LL10@GetAllTime
$LN11@GetAllTime:

; 957  : 	return (nAddData > 0);

  0005a	85 f6		 test	 esi, esi
  0005c	5e		 pop	 esi
  0005d	0f 9f c0	 setg	 al

; 910  : 
; 911  : 	return GetAllTime(nAddIndex, nInterval, 100, 1, 60, nSec, nMin, bIsIntervalEnd);
; 912  : }

  00060	5d		 pop	 ebp
  00061	c3		 ret	 0
$LN3@GetAllTime:

; 909  : 		return false;

  00062	32 c0		 xor	 al, al
  00064	5e		 pop	 esi

; 910  : 
; 911  : 	return GetAllTime(nAddIndex, nInterval, 100, 1, 60, nSec, nMin, bIsIntervalEnd);
; 912  : }

  00065	5d		 pop	 ebp
  00066	c3		 ret	 0
?GetAllTime_Second@CDataConversion@@CA_NHHABV?$CStringT@DV?$StrTraitMFC_DLL@DV?$ChTraitsCRT@D@ATL@@@@@ATL@@AAH1AA_N@Z ENDP ; CDataConversion::GetAllTime_Second
_TEXT	ENDS
; Function compile flags: /Ogtp
; File D:\git\src\IBK\IBK_DRFN\ProjSrc\SrcDrfn\Chart\chart_common\DataList\Conversion.cpp
;	COMDAT ?GetAllTime_DatePart@CDataConversion@@CA_NHHABV?$CStringT@DV?$StrTraitMFC_DLL@DV?$ChTraitsCRT@D@ATL@@@@@ATL@@AAH1@Z
_TEXT	SEGMENT
_nAddIndex$ = 8						; size = 4
_nInterval$ = 12					; size = 4
_strFormat$ = 16					; size = 4
_nMon$ = 20						; size = 4
_nDay$ = 24						; size = 4
?GetAllTime_DatePart@CDataConversion@@CA_NHHABV?$CStringT@DV?$StrTraitMFC_DLL@DV?$ChTraitsCRT@D@ATL@@@@@ATL@@AAH1@Z PROC ; CDataConversion::GetAllTime_DatePart, COMDAT

; 890  : {

  00000	55		 push	 ebp
  00001	8b ec		 mov	 ebp, esp

; 891  : 	// 
; 892  : 	if(strFormat.Find("DD") >= 0)

  00003	8b 4d 10	 mov	 ecx, DWORD PTR _strFormat$[ebp]
  00006	6a 00		 push	 0
  00008	68 00 00 00 00	 push	 OFFSET ??_C@_02ODDIIJPA@DD@
  0000d	ff 15 00 00 00
	00		 call	 DWORD PTR __imp_?Find@?$CStringT@DV?$StrTraitMFC_DLL@DV?$ChTraitsCRT@D@ATL@@@@@ATL@@QBEHPBDH@Z

; 893  : 	{
; 894  : 	}
; 895  : 	// 
; 896  : 	if(strFormat.Find("MMDD") >= 0)

  00013	8b 4d 10	 mov	 ecx, DWORD PTR _strFormat$[ebp]
  00016	6a 00		 push	 0
  00018	68 00 00 00 00	 push	 OFFSET ??_C@_04BDEGLLOH@MMDD@
  0001d	ff 15 00 00 00
	00		 call	 DWORD PTR __imp_?Find@?$CStringT@DV?$StrTraitMFC_DLL@DV?$ChTraitsCRT@D@ATL@@@@@ATL@@QBEHPBDH@Z

; 897  : 	{
; 898  : 	}
; 899  : 
; 900  : 	return (nDay > 0 || nMon > 0);

  00023	8b 45 18	 mov	 eax, DWORD PTR _nDay$[ebp]
  00026	83 38 00	 cmp	 DWORD PTR [eax], 0
  00029	7f 0c		 jg	 SHORT $LN5@GetAllTime
  0002b	8b 45 14	 mov	 eax, DWORD PTR _nMon$[ebp]
  0002e	83 38 00	 cmp	 DWORD PTR [eax], 0
  00031	7f 04		 jg	 SHORT $LN5@GetAllTime
  00033	32 c0		 xor	 al, al

; 901  : }

  00035	5d		 pop	 ebp
  00036	c3		 ret	 0
$LN5@GetAllTime:

; 897  : 	{
; 898  : 	}
; 899  : 
; 900  : 	return (nDay > 0 || nMon > 0);

  00037	b0 01		 mov	 al, 1

; 901  : }

  00039	5d		 pop	 ebp
  0003a	c3		 ret	 0
?GetAllTime_DatePart@CDataConversion@@CA_NHHABV?$CStringT@DV?$StrTraitMFC_DLL@DV?$ChTraitsCRT@D@ATL@@@@@ATL@@AAH1@Z ENDP ; CDataConversion::GetAllTime_DatePart
_TEXT	ENDS
; Function compile flags: /Ogtp
; File D:\git\src\IBK\IBK_DRFN\ProjSrc\SrcDrfn\Chart\chart_common\DataList\Conversion.cpp
; File C:\Program Files (x86)\Microsoft Visual Studio\2019\Community\VC\Tools\MSVC\14.29.30133\atlmfc\include\cstringt.h
; File D:\git\src\IBK\IBK_DRFN\ProjSrc\SrcDrfn\Chart\chart_common\DataList\Conversion.cpp
; File C:\Program Files (x86)\Microsoft Visual Studio\2019\Community\VC\Tools\MSVC\14.29.30133\atlmfc\include\cstringt.h
; File D:\git\src\IBK\IBK_DRFN\ProjSrc\SrcDrfn\Chart\chart_common\DataList\Conversion.cpp
; File C:\Program Files (x86)\Microsoft Visual Studio\2019\Community\VC\Tools\MSVC\14.29.30133\atlmfc\include\cstringt.h
; File D:\git\src\IBK\IBK_DRFN\ProjSrc\SrcDrfn\Chart\chart_common\DataList\Conversion.cpp
; File C:\Program Files (x86)\Microsoft Visual Studio\2019\Community\VC\Tools\MSVC\14.29.30133\atlmfc\include\cstringt.h
; File D:\git\src\IBK\IBK_DRFN\ProjSrc\SrcDrfn\Chart\chart_common\DataList\Conversion.cpp
; File C:\Program Files (x86)\Microsoft Visual Studio\2019\Community\VC\Tools\MSVC\14.29.30133\atlmfc\include\cstringt.h
; File D:\git\src\IBK\IBK_DRFN\ProjSrc\SrcDrfn\Chart\chart_common\DataList\Conversion.cpp
; File C:\Program Files (x86)\Microsoft Visual Studio\2019\Community\VC\Tools\MSVC\14.29.30133\atlmfc\include\cstringt.h
; File D:\git\src\IBK\IBK_DRFN\ProjSrc\SrcDrfn\Chart\chart_common\DataList\Conversion.cpp
; File C:\Program Files (x86)\Microsoft Visual Studio\2019\Community\VC\Tools\MSVC\14.29.30133\atlmfc\include\atlsimpstr.h
; File D:\git\src\IBK\IBK_DRFN\ProjSrc\SrcDrfn\Chart\chart_common\DataList\Conversion.cpp
;	COMDAT ?GetAllTime_TimePart@CDataConversion@@CA_NHHABV?$CStringT@DV?$StrTraitMFC_DLL@DV?$ChTraitsCRT@D@ATL@@@@@ATL@@AAH111@Z
_TEXT	SEGMENT
__$EHRec$ = -12						; size = 12
_nAddIndex$ = 8						; size = 4
_nMaxGap$1$ = 12					; size = 4
_nInterval$ = 12					; size = 4
_bIsIntervalEnd$1$ = 15					; size = 1
_strFormat$ = 16					; size = 4
_nDay$ = 20						; size = 4
$T2 = 24						; size = 4
_nHour$ = 24						; size = 4
$T3 = 28						; size = 4
_nMin$ = 28						; size = 4
_nSec$ = 32						; size = 4
?GetAllTime_TimePart@CDataConversion@@CA_NHHABV?$CStringT@DV?$StrTraitMFC_DLL@DV?$ChTraitsCRT@D@ATL@@@@@ATL@@AAH111@Z PROC ; CDataConversion::GetAllTime_TimePart, COMDAT

; 867  : {

  00000	55		 push	 ebp
  00001	8b ec		 mov	 ebp, esp
  00003	6a ff		 push	 -1
  00005	68 00 00 00 00	 push	 __ehhandler$?GetAllTime_TimePart@CDataConversion@@CA_NHHABV?$CStringT@DV?$StrTraitMFC_DLL@DV?$ChTraitsCRT@D@ATL@@@@@ATL@@AAH111@Z
  0000a	64 a1 00 00 00
	00		 mov	 eax, DWORD PTR fs:0
  00010	50		 push	 eax
  00011	53		 push	 ebx
  00012	56		 push	 esi
  00013	57		 push	 edi
  00014	a1 00 00 00 00	 mov	 eax, DWORD PTR ___security_cookie
  00019	33 c5		 xor	 eax, ebp
  0001b	50		 push	 eax
  0001c	8d 45 f4	 lea	 eax, DWORD PTR __$EHRec$[ebp]
  0001f	64 a3 00 00 00
	00		 mov	 DWORD PTR fs:0, eax
  00025	8b 7d 0c	 mov	 edi, DWORD PTR _nInterval$[ebp]

; 908  : 	if(nInterval <= 0 || strFormat.Find("SS") < 0)

  00028	8b 75 18	 mov	 esi, DWORD PTR _nHour$[ebp]
  0002b	8b 5d 1c	 mov	 ebx, DWORD PTR _nMin$[ebp]
  0002e	85 ff		 test	 edi, edi
  00030	7e 46		 jle	 SHORT $LN95@GetAllTime
  00032	8b 4d 10	 mov	 ecx, DWORD PTR _strFormat$[ebp]
  00035	6a 00		 push	 0
  00037	68 00 00 00 00	 push	 OFFSET ??_C@_02PPNCLIJD@SS@
  0003c	ff 15 00 00 00
	00		 call	 DWORD PTR __imp_?Find@?$CStringT@DV?$StrTraitMFC_DLL@DV?$ChTraitsCRT@D@ATL@@@@@ATL@@QBEHPBDH@Z
  00042	85 c0		 test	 eax, eax
  00044	78 32		 js	 SHORT $LN95@GetAllTime

; 953  : 	int nAddData = nAddIndex * ((nInterval % nMaxGap) / nMinGap);

  00046	b8 1f 85 eb 51	 mov	 eax, 1374389535		; 51eb851fH
  0004b	8b cf		 mov	 ecx, edi
  0004d	f7 e7		 mul	 edi
  0004f	c1 ea 05	 shr	 edx, 5
  00052	6b c2 64	 imul	 eax, edx, 100

; 954  : 	nData1 += nAddData;

  00055	8b 55 20	 mov	 edx, DWORD PTR _nSec$[ebp]
  00058	2b c8		 sub	 ecx, eax
  0005a	0f af 4d 08	 imul	 ecx, DWORD PTR _nAddIndex$[ebp]
  0005e	01 0a		 add	 DWORD PTR [edx], ecx

; 962  : 	while(nData1 >= nLimitData1)

  00060	83 3a 3c	 cmp	 DWORD PTR [edx], 60	; 0000003cH
  00063	7c 0a		 jl	 SHORT $LN17@GetAllTime
$LL16@GetAllTime:

; 963  : 	{
; 964  : 		nData1 -= nLimitData1;

  00065	83 02 c4	 add	 DWORD PTR [edx], -60	; ffffffc4H

; 965  : 		nData2++;

  00068	ff 03		 inc	 DWORD PTR [ebx]
  0006a	83 3a 3c	 cmp	 DWORD PTR [edx], 60	; 0000003cH
  0006d	7d f6		 jge	 SHORT $LL16@GetAllTime
$LN17@GetAllTime:

; 868  : 	bool bIsIntervalEnd = false;
; 869  : 	// 
; 870  : 	GetAllTime_Second(nAddIndex, nInterval, strFormat, nSec, nMin, bIsIntervalEnd);
; 871  : 	// 
; 872  : 	if(!bIsIntervalEnd)

  0006f	83 ff 64	 cmp	 edi, 100		; 00000064H
  00072	0f 8c 6c 01 00
	00		 jl	 $LN100@GetAllTime
$LN95@GetAllTime:

; 918  : 	if(strFormat.Right(4) == "MMSS")

  00078	8b 4d 10	 mov	 ecx, DWORD PTR _strFormat$[ebp]
  0007b	8d 45 18	 lea	 eax, DWORD PTR $T2[ebp]
  0007e	6a 04		 push	 4
  00080	50		 push	 eax
  00081	ff 15 00 00 00
	00		 call	 DWORD PTR __imp_?Right@?$CStringT@DV?$StrTraitMFC_DLL@DV?$ChTraitsCRT@D@ATL@@@@@ATL@@QBE?AV12@H@Z
; File C:\Program Files (x86)\Microsoft Visual Studio\2019\Community\VC\Tools\MSVC\14.29.30133\atlmfc\include\cstringt.h

; 2486 : 		return(str1.Compare(psz2) == 0);

  00087	68 00 00 00 00	 push	 OFFSET ??_C@_04PKMIKIE@MMSS@
  0008c	8b c8		 mov	 ecx, eax
; File D:\git\src\IBK\IBK_DRFN\ProjSrc\SrcDrfn\Chart\chart_common\DataList\Conversion.cpp

; 918  : 	if(strFormat.Right(4) == "MMSS")

  0008e	c7 45 fc 00 00
	00 00		 mov	 DWORD PTR __$EHRec$[ebp+8], 0
; File C:\Program Files (x86)\Microsoft Visual Studio\2019\Community\VC\Tools\MSVC\14.29.30133\atlmfc\include\cstringt.h

; 2486 : 		return(str1.Compare(psz2) == 0);

  00095	ff 15 00 00 00
	00		 call	 DWORD PTR __imp_?Compare@?$CStringT@DV?$StrTraitMFC_DLL@DV?$ChTraitsCRT@D@ATL@@@@@ATL@@QBEHPBD@Z
; File D:\git\src\IBK\IBK_DRFN\ProjSrc\SrcDrfn\Chart\chart_common\DataList\Conversion.cpp

; 918  : 	if(strFormat.Right(4) == "MMSS")

  0009b	8d 4d 18	 lea	 ecx, DWORD PTR $T2[ebp]
  0009e	c7 45 fc ff ff
	ff ff		 mov	 DWORD PTR __$EHRec$[ebp+8], -1
; File C:\Program Files (x86)\Microsoft Visual Studio\2019\Community\VC\Tools\MSVC\14.29.30133\atlmfc\include\cstringt.h

; 2486 : 		return(str1.Compare(psz2) == 0);

  000a5	8b f8		 mov	 edi, eax
; File D:\git\src\IBK\IBK_DRFN\ProjSrc\SrcDrfn\Chart\chart_common\DataList\Conversion.cpp

; 918  : 	if(strFormat.Right(4) == "MMSS")

  000a7	ff 15 00 00 00
	00		 call	 DWORD PTR __imp_??1?$CStringT@DV?$StrTraitMFC_DLL@DV?$ChTraitsCRT@D@ATL@@@@@ATL@@QAE@XZ
  000ad	85 ff		 test	 edi, edi
  000af	75 50		 jne	 SHORT $LN20@GetAllTime

; 952  : 	bIsIntervalEnd = (nInterval < nMaxGap);

  000b1	8b 7d 0c	 mov	 edi, DWORD PTR _nInterval$[ebp]

; 953  : 	int nAddData = nAddIndex * ((nInterval % nMaxGap) / nMinGap);

  000b4	b8 ad 8b db 68	 mov	 eax, 1759218605		; 68db8badH
  000b9	81 ff 10 27 00
	00		 cmp	 edi, 10000		; 00002710H
  000bf	8b cf		 mov	 ecx, edi
  000c1	0f 9c 45 0f	 setl	 BYTE PTR _bIsIntervalEnd$1$[ebp]
  000c5	f7 ef		 imul	 edi
  000c7	c1 fa 0c	 sar	 edx, 12			; 0000000cH
  000ca	8b c2		 mov	 eax, edx
  000cc	c1 e8 1f	 shr	 eax, 31			; 0000001fH
  000cf	03 c2		 add	 eax, edx
  000d1	69 c0 10 27 00
	00		 imul	 eax, eax, 10000
  000d7	2b c8		 sub	 ecx, eax
  000d9	b8 1f 85 eb 51	 mov	 eax, 1374389535		; 51eb851fH
  000de	f7 e9		 imul	 ecx
  000e0	c1 fa 05	 sar	 edx, 5
  000e3	8b c2		 mov	 eax, edx
  000e5	c1 e8 1f	 shr	 eax, 31			; 0000001fH
  000e8	03 c2		 add	 eax, edx
  000ea	0f af 45 08	 imul	 eax, DWORD PTR _nAddIndex$[ebp]

; 954  : 	nData1 += nAddData;

  000ee	01 03		 add	 DWORD PTR [ebx], eax

; 962  : 	while(nData1 >= nLimitData1)

  000f0	83 3b 3c	 cmp	 DWORD PTR [ebx], 60	; 0000003cH
  000f3	7c 7c		 jl	 SHORT $LN44@GetAllTime
$LL33@GetAllTime:

; 963  : 	{
; 964  : 		nData1 -= nLimitData1;

  000f5	83 03 c4	 add	 DWORD PTR [ebx], -60	; ffffffc4H

; 965  : 		nData2++;

  000f8	ff 06		 inc	 DWORD PTR [esi]
  000fa	83 3b 3c	 cmp	 DWORD PTR [ebx], 60	; 0000003cH
  000fd	7d f6		 jge	 SHORT $LL33@GetAllTime
  000ff	eb 70		 jmp	 SHORT $LN44@GetAllTime
$LN20@GetAllTime:

; 922  : 	else if(strFormat.Right(4) == "HHMM")

  00101	8b 4d 10	 mov	 ecx, DWORD PTR _strFormat$[ebp]
  00104	8d 45 1c	 lea	 eax, DWORD PTR $T3[ebp]
  00107	6a 04		 push	 4
  00109	50		 push	 eax
  0010a	ff 15 00 00 00
	00		 call	 DWORD PTR __imp_?Right@?$CStringT@DV?$StrTraitMFC_DLL@DV?$ChTraitsCRT@D@ATL@@@@@ATL@@QBE?AV12@H@Z
; File C:\Program Files (x86)\Microsoft Visual Studio\2019\Community\VC\Tools\MSVC\14.29.30133\atlmfc\include\cstringt.h

; 2486 : 		return(str1.Compare(psz2) == 0);

  00110	68 00 00 00 00	 push	 OFFSET ??_C@_04DCGLEEGD@HHMM@
  00115	8b c8		 mov	 ecx, eax
; File D:\git\src\IBK\IBK_DRFN\ProjSrc\SrcDrfn\Chart\chart_common\DataList\Conversion.cpp

; 922  : 	else if(strFormat.Right(4) == "HHMM")

  00117	c7 45 fc 01 00
	00 00		 mov	 DWORD PTR __$EHRec$[ebp+8], 1
; File C:\Program Files (x86)\Microsoft Visual Studio\2019\Community\VC\Tools\MSVC\14.29.30133\atlmfc\include\cstringt.h

; 2486 : 		return(str1.Compare(psz2) == 0);

  0011e	ff 15 00 00 00
	00		 call	 DWORD PTR __imp_?Compare@?$CStringT@DV?$StrTraitMFC_DLL@DV?$ChTraitsCRT@D@ATL@@@@@ATL@@QBEHPBD@Z
; File D:\git\src\IBK\IBK_DRFN\ProjSrc\SrcDrfn\Chart\chart_common\DataList\Conversion.cpp

; 922  : 	else if(strFormat.Right(4) == "HHMM")

  00124	8d 4d 1c	 lea	 ecx, DWORD PTR $T3[ebp]
  00127	c7 45 fc ff ff
	ff ff		 mov	 DWORD PTR __$EHRec$[ebp+8], -1
; File C:\Program Files (x86)\Microsoft Visual Studio\2019\Community\VC\Tools\MSVC\14.29.30133\atlmfc\include\cstringt.h

; 2486 : 		return(str1.Compare(psz2) == 0);

  0012e	8b f8		 mov	 edi, eax
; File D:\git\src\IBK\IBK_DRFN\ProjSrc\SrcDrfn\Chart\chart_common\DataList\Conversion.cpp

; 922  : 	else if(strFormat.Right(4) == "HHMM")

  00130	ff 15 00 00 00
	00		 call	 DWORD PTR __imp_??1?$CStringT@DV?$StrTraitMFC_DLL@DV?$ChTraitsCRT@D@ATL@@@@@ATL@@QAE@XZ
  00136	85 ff		 test	 edi, edi
  00138	8b 7d 0c	 mov	 edi, DWORD PTR _nInterval$[ebp]
  0013b	75 3a		 jne	 SHORT $LN98@GetAllTime

; 952  : 	bIsIntervalEnd = (nInterval < nMaxGap);

  0013d	83 ff 64	 cmp	 edi, 100		; 00000064H

; 953  : 	int nAddData = nAddIndex * ((nInterval % nMaxGap) / nMinGap);

  00140	b8 1f 85 eb 51	 mov	 eax, 1374389535		; 51eb851fH
  00145	8b cf		 mov	 ecx, edi
  00147	0f 9c 45 0f	 setl	 BYTE PTR _bIsIntervalEnd$1$[ebp]
  0014b	f7 ef		 imul	 edi
  0014d	c1 fa 05	 sar	 edx, 5
  00150	8b c2		 mov	 eax, edx
  00152	c1 e8 1f	 shr	 eax, 31			; 0000001fH
  00155	03 c2		 add	 eax, edx
  00157	6b c0 64	 imul	 eax, eax, 100
  0015a	2b c8		 sub	 ecx, eax
  0015c	0f af 4d 08	 imul	 ecx, DWORD PTR _nAddIndex$[ebp]

; 954  : 	nData1 += nAddData;

  00160	01 0b		 add	 DWORD PTR [ebx], ecx

; 962  : 	while(nData1 >= nLimitData1)

  00162	83 3b 3c	 cmp	 DWORD PTR [ebx], 60	; 0000003cH
  00165	7c 0a		 jl	 SHORT $LN44@GetAllTime
$LL43@GetAllTime:

; 963  : 	{
; 964  : 		nData1 -= nLimitData1;

  00167	83 03 c4	 add	 DWORD PTR [ebx], -60	; ffffffc4H

; 965  : 		nData2++;

  0016a	ff 06		 inc	 DWORD PTR [esi]
  0016c	83 3b 3c	 cmp	 DWORD PTR [ebx], 60	; 0000003cH
  0016f	7d f6		 jge	 SHORT $LL43@GetAllTime
$LN44@GetAllTime:

; 873  : 	{
; 874  : 		GetAllTime_Minute(nAddIndex, nInterval, strFormat, nMin, nHour, bIsIntervalEnd);
; 875  : 	}
; 876  : 	// 
; 877  : 	if(!bIsIntervalEnd)

  00171	80 7d 0f 00	 cmp	 BYTE PTR _bIsIntervalEnd$1$[ebp], 0
  00175	75 72		 jne	 SHORT $LN104@GetAllTime
$LN98@GetAllTime:

; 935  : 	int nFindIndex = strFormat.Find('H');

  00177	8b 4d 10	 mov	 ecx, DWORD PTR _strFormat$[ebp]
  0017a	6a 00		 push	 0
  0017c	6a 48		 push	 72			; 00000048H
  0017e	ff 15 00 00 00
	00		 call	 DWORD PTR __imp_?Find@?$CStringT@DV?$StrTraitMFC_DLL@DV?$ChTraitsCRT@D@ATL@@@@@ATL@@QBEHDH@Z
  00184	8b c8		 mov	 ecx, eax

; 936  : 	if(nFindIndex < 0)

  00186	85 c9		 test	 ecx, ecx
  00188	78 5f		 js	 SHORT $LN104@GetAllTime
; File C:\Program Files (x86)\Microsoft Visual Studio\2019\Community\VC\Tools\MSVC\14.29.30133\atlmfc\include\atlsimpstr.h

; 519  : 		return( GetData()->nDataLength );

  0018a	8b 45 10	 mov	 eax, DWORD PTR _strFormat$[ebp]
  0018d	8b 00		 mov	 eax, DWORD PTR [eax]
  0018f	8b 40 f4	 mov	 eax, DWORD PTR [eax-12]
; File D:\git\src\IBK\IBK_DRFN\ProjSrc\SrcDrfn\Chart\chart_common\DataList\Conversion.cpp

; 939  : 	int nMaxGap = CMath::Power(10, (strFormat.GetLength() - nFindIndex));

  00192	2b c1		 sub	 eax, ecx
  00194	50		 push	 eax
  00195	6a 0a		 push	 10			; 0000000aH
  00197	e8 00 00 00 00	 call	 ?Power@CMath@@SAHHH@Z	; CMath::Power
  0019c	8b c8		 mov	 ecx, eax
  0019e	83 c4 08	 add	 esp, 8

; 940  : 	int nMinGap = nMaxGap / 100;

  001a1	b8 1f 85 eb 51	 mov	 eax, 1374389535		; 51eb851fH
  001a6	89 4d 0c	 mov	 DWORD PTR _nMaxGap$1$[ebp], ecx
  001a9	f7 e9		 imul	 ecx
  001ab	c1 fa 05	 sar	 edx, 5
  001ae	8b ca		 mov	 ecx, edx
  001b0	c1 e9 1f	 shr	 ecx, 31			; 0000001fH
  001b3	03 ca		 add	 ecx, edx

; 949  : 	if(nLimitData1 <= 0 || nMaxGap <= 0 || nMinGap <= 0)

  001b5	83 7d 0c 00	 cmp	 DWORD PTR _nMaxGap$1$[ebp], 0
  001b9	7e 2e		 jle	 SHORT $LN104@GetAllTime
  001bb	85 c9		 test	 ecx, ecx
  001bd	7e 2a		 jle	 SHORT $LN104@GetAllTime

; 953  : 	int nAddData = nAddIndex * ((nInterval % nMaxGap) / nMinGap);

  001bf	8b c7		 mov	 eax, edi
  001c1	99		 cdq
  001c2	f7 7d 0c	 idiv	 DWORD PTR _nMaxGap$1$[ebp]
  001c5	8b c2		 mov	 eax, edx
  001c7	99		 cdq
  001c8	f7 f9		 idiv	 ecx

; 962  : 	while(nData1 >= nLimitData1)

  001ca	8b 4d 14	 mov	 ecx, DWORD PTR _nDay$[ebp]

; 953  : 	int nAddData = nAddIndex * ((nInterval % nMaxGap) / nMinGap);

  001cd	0f af 45 08	 imul	 eax, DWORD PTR _nAddIndex$[ebp]

; 954  : 	nData1 += nAddData;

  001d1	01 06		 add	 DWORD PTR [esi], eax

; 962  : 	while(nData1 >= nLimitData1)

  001d3	83 3e 18	 cmp	 DWORD PTR [esi], 24	; 00000018H
  001d6	7c 14		 jl	 SHORT $LN105@GetAllTime
$LL58@GetAllTime:

; 963  : 	{
; 964  : 		nData1 -= nLimitData1;

  001d8	83 06 e8	 add	 DWORD PTR [esi], -24	; ffffffe8H

; 965  : 		nData2++;

  001db	ff 01		 inc	 DWORD PTR [ecx]
  001dd	83 3e 18	 cmp	 DWORD PTR [esi], 24	; 00000018H
  001e0	7d f6		 jge	 SHORT $LL58@GetAllTime

; 868  : 	bool bIsIntervalEnd = false;
; 869  : 	// 
; 870  : 	GetAllTime_Second(nAddIndex, nInterval, strFormat, nSec, nMin, bIsIntervalEnd);
; 871  : 	// 
; 872  : 	if(!bIsIntervalEnd)

  001e2	eb 08		 jmp	 SHORT $LN105@GetAllTime
$LN100@GetAllTime:
  001e4	8b 4d 14	 mov	 ecx, DWORD PTR _nDay$[ebp]
  001e7	eb 06		 jmp	 SHORT $LN59@GetAllTime
$LN104@GetAllTime:

; 962  : 	while(nData1 >= nLimitData1)

  001e9	8b 4d 14	 mov	 ecx, DWORD PTR _nDay$[ebp]
$LN105@GetAllTime:
  001ec	8b 55 20	 mov	 edx, DWORD PTR _nSec$[ebp]
$LN59@GetAllTime:
  001ef	83 3b 3c	 cmp	 DWORD PTR [ebx], 60	; 0000003cH
  001f2	7c 0f		 jl	 SHORT $LN87@GetAllTime
$LL62@GetAllTime:

; 963  : 	{
; 964  : 		nData1 -= nLimitData1;

  001f4	83 03 c4	 add	 DWORD PTR [ebx], -60	; ffffffc4H

; 965  : 		nData2++;

  001f7	8b 06		 mov	 eax, DWORD PTR [esi]
  001f9	40		 inc	 eax
  001fa	89 06		 mov	 DWORD PTR [esi], eax
  001fc	83 3b 3c	 cmp	 DWORD PTR [ebx], 60	; 0000003cH
  001ff	7d f3		 jge	 SHORT $LL62@GetAllTime
  00201	eb 02		 jmp	 SHORT $LN74@GetAllTime
$LN87@GetAllTime:
  00203	8b 06		 mov	 eax, DWORD PTR [esi]
$LN74@GetAllTime:

; 962  : 	while(nData1 >= nLimitData1)

  00205	83 f8 18	 cmp	 eax, 24			; 00000018H
  00208	7c 12		 jl	 SHORT $LN99@GetAllTime
  0020a	66 0f 1f 44 00
	00		 npad	 6
$LL66@GetAllTime:

; 963  : 	{
; 964  : 		nData1 -= nLimitData1;

  00210	83 06 e8	 add	 DWORD PTR [esi], -24	; ffffffe8H

; 965  : 		nData2++;

  00213	ff 01		 inc	 DWORD PTR [ecx]
  00215	8b 06		 mov	 eax, DWORD PTR [esi]
  00217	83 f8 18	 cmp	 eax, 24			; 00000018H
  0021a	7d f4		 jge	 SHORT $LL66@GetAllTime
$LN99@GetAllTime:

; 878  : 	{
; 879  : 		GetAllTime_Hour(nAddIndex, nInterval, strFormat, nHour, nDay, bIsIntervalEnd);
; 880  : 	}
; 881  : 
; 882  : 	GetDataInLimit(60, nMin, nHour);
; 883  : 	GetDataInLimit(24, nHour, nDay);
; 884  : 	return (nSec > 0 || nMin > 0 || nHour > 0 || nDay > 0);

  0021c	83 3a 00	 cmp	 DWORD PTR [edx], 0
  0021f	7f 22		 jg	 SHORT $LN5@GetAllTime
  00221	83 3b 00	 cmp	 DWORD PTR [ebx], 0
  00224	7f 1d		 jg	 SHORT $LN5@GetAllTime
  00226	85 c0		 test	 eax, eax
  00228	7f 19		 jg	 SHORT $LN5@GetAllTime
  0022a	83 39 00	 cmp	 DWORD PTR [ecx], 0
  0022d	7f 14		 jg	 SHORT $LN5@GetAllTime
  0022f	32 c0		 xor	 al, al

; 885  : }

  00231	8b 4d f4	 mov	 ecx, DWORD PTR __$EHRec$[ebp]
  00234	64 89 0d 00 00
	00 00		 mov	 DWORD PTR fs:0, ecx
  0023b	59		 pop	 ecx
  0023c	5f		 pop	 edi
  0023d	5e		 pop	 esi
  0023e	5b		 pop	 ebx
  0023f	8b e5		 mov	 esp, ebp
  00241	5d		 pop	 ebp
  00242	c3		 ret	 0
$LN5@GetAllTime:

; 878  : 	{
; 879  : 		GetAllTime_Hour(nAddIndex, nInterval, strFormat, nHour, nDay, bIsIntervalEnd);
; 880  : 	}
; 881  : 
; 882  : 	GetDataInLimit(60, nMin, nHour);
; 883  : 	GetDataInLimit(24, nHour, nDay);
; 884  : 	return (nSec > 0 || nMin > 0 || nHour > 0 || nDay > 0);

  00243	b0 01		 mov	 al, 1

; 885  : }

  00245	8b 4d f4	 mov	 ecx, DWORD PTR __$EHRec$[ebp]
  00248	64 89 0d 00 00
	00 00		 mov	 DWORD PTR fs:0, ecx
  0024f	59		 pop	 ecx
  00250	5f		 pop	 edi
  00251	5e		 pop	 esi
  00252	5b		 pop	 ebx
  00253	8b e5		 mov	 esp, ebp
  00255	5d		 pop	 ebp
  00256	c3		 ret	 0
_TEXT	ENDS
;	COMDAT text$x
text$x	SEGMENT
__unwindfunclet$?GetAllTime_TimePart@CDataConversion@@CA_NHHABV?$CStringT@DV?$StrTraitMFC_DLL@DV?$ChTraitsCRT@D@ATL@@@@@ATL@@AAH111@Z$0:
  00000	8d 4d 18	 lea	 ecx, DWORD PTR $T2[ebp]
  00003	ff 25 00 00 00
	00		 jmp	 DWORD PTR __imp_??1?$CStringT@DV?$StrTraitMFC_DLL@DV?$ChTraitsCRT@D@ATL@@@@@ATL@@QAE@XZ
__unwindfunclet$?GetAllTime_TimePart@CDataConversion@@CA_NHHABV?$CStringT@DV?$StrTraitMFC_DLL@DV?$ChTraitsCRT@D@ATL@@@@@ATL@@AAH111@Z$1:
  00009	8d 4d 1c	 lea	 ecx, DWORD PTR $T3[ebp]
  0000c	ff 25 00 00 00
	00		 jmp	 DWORD PTR __imp_??1?$CStringT@DV?$StrTraitMFC_DLL@DV?$ChTraitsCRT@D@ATL@@@@@ATL@@QAE@XZ
  00012	cc		 int	 3
  00013	cc		 int	 3
  00014	cc		 int	 3
  00015	cc		 int	 3
  00016	cc		 int	 3
__ehhandler$?GetAllTime_TimePart@CDataConversion@@CA_NHHABV?$CStringT@DV?$StrTraitMFC_DLL@DV?$ChTraitsCRT@D@ATL@@@@@ATL@@AAH111@Z:
  00017	90		 npad	 1
  00018	90		 npad	 1
  00019	8b 54 24 08	 mov	 edx, DWORD PTR [esp+8]
  0001d	8d 42 0c	 lea	 eax, DWORD PTR [edx+12]
  00020	8b 4a f0	 mov	 ecx, DWORD PTR [edx-16]
  00023	33 c8		 xor	 ecx, eax
  00025	e8 00 00 00 00	 call	 @__security_check_cookie@4
  0002a	b8 00 00 00 00	 mov	 eax, OFFSET __ehfuncinfo$?GetAllTime_TimePart@CDataConversion@@CA_NHHABV?$CStringT@DV?$StrTraitMFC_DLL@DV?$ChTraitsCRT@D@ATL@@@@@ATL@@AAH111@Z
  0002f	e9 00 00 00 00	 jmp	 ___CxxFrameHandler3
text$x	ENDS
?GetAllTime_TimePart@CDataConversion@@CA_NHHABV?$CStringT@DV?$StrTraitMFC_DLL@DV?$ChTraitsCRT@D@ATL@@@@@ATL@@AAH111@Z ENDP ; CDataConversion::GetAllTime_TimePart
; Function compile flags: /Ogtp
; File D:\git\src\IBK\IBK_DRFN\ProjSrc\SrcDrfn\Chart\chart_common\DataList\Conversion.cpp
;	COMDAT ?GetAllTime@CDataConversion@@CA_NHHABV?$CStringT@DV?$StrTraitMFC_DLL@DV?$ChTraitsCRT@D@ATL@@@@@ATL@@AAH1111@Z
_TEXT	SEGMENT
_nAddIndex$ = 8						; size = 4
_nInterval$ = 12					; size = 4
_strFormat$ = 16					; size = 4
_nMon$ = 20						; size = 4
_nDay$ = 24						; size = 4
_nHour$ = 28						; size = 4
_nMin$ = 32						; size = 4
_nSec$ = 36						; size = 4
?GetAllTime@CDataConversion@@CA_NHHABV?$CStringT@DV?$StrTraitMFC_DLL@DV?$ChTraitsCRT@D@ATL@@@@@ATL@@AAH1111@Z PROC ; CDataConversion::GetAllTime, COMDAT

; 854  : {

  00000	55		 push	 ebp
  00001	8b ec		 mov	 ebp, esp
  00003	56		 push	 esi

; 855  : 	//   - , , 
; 856  : 	if(!GetAllTime_TimePart(nAddIndex, nInterval, strFormat, nDay, nHour, nMin, nSec))

  00004	ff 75 24	 push	 DWORD PTR _nSec$[ebp]
  00007	8b 75 10	 mov	 esi, DWORD PTR _strFormat$[ebp]
  0000a	ff 75 20	 push	 DWORD PTR _nMin$[ebp]
  0000d	ff 75 1c	 push	 DWORD PTR _nHour$[ebp]
  00010	ff 75 18	 push	 DWORD PTR _nDay$[ebp]
  00013	56		 push	 esi
  00014	ff 75 0c	 push	 DWORD PTR _nInterval$[ebp]
  00017	ff 75 08	 push	 DWORD PTR _nAddIndex$[ebp]
  0001a	e8 00 00 00 00	 call	 ?GetAllTime_TimePart@CDataConversion@@CA_NHHABV?$CStringT@DV?$StrTraitMFC_DLL@DV?$ChTraitsCRT@D@ATL@@@@@ATL@@AAH111@Z ; CDataConversion::GetAllTime_TimePart
  0001f	83 c4 1c	 add	 esp, 28			; 0000001cH
  00022	84 c0		 test	 al, al
  00024	75 03		 jne	 SHORT $LN2@GetAllTime
  00026	5e		 pop	 esi

; 862  : }

  00027	5d		 pop	 ebp
  00028	c3		 ret	 0
$LN2@GetAllTime:

; 892  : 	if(strFormat.Find("DD") >= 0)

  00029	6a 00		 push	 0
  0002b	68 00 00 00 00	 push	 OFFSET ??_C@_02ODDIIJPA@DD@
  00030	8b ce		 mov	 ecx, esi
  00032	ff 15 00 00 00
	00		 call	 DWORD PTR __imp_?Find@?$CStringT@DV?$StrTraitMFC_DLL@DV?$ChTraitsCRT@D@ATL@@@@@ATL@@QBEHPBDH@Z

; 893  : 	{
; 894  : 	}
; 895  : 	// 
; 896  : 	if(strFormat.Find("MMDD") >= 0)

  00038	6a 00		 push	 0
  0003a	68 00 00 00 00	 push	 OFFSET ??_C@_04BDEGLLOH@MMDD@
  0003f	8b ce		 mov	 ecx, esi
  00041	ff 15 00 00 00
	00		 call	 DWORD PTR __imp_?Find@?$CStringT@DV?$StrTraitMFC_DLL@DV?$ChTraitsCRT@D@ATL@@@@@ATL@@QBEHPBDH@Z

; 857  : 		return false;
; 858  : 
; 859  : 	//   - , 
; 860  : 	GetAllTime_DatePart(nAddIndex, nInterval, strFormat, nMon, nDay);
; 861  : 	return true;

  00047	b0 01		 mov	 al, 1
  00049	5e		 pop	 esi

; 862  : }

  0004a	5d		 pop	 ebp
  0004b	c3		 ret	 0
?GetAllTime@CDataConversion@@CA_NHHABV?$CStringT@DV?$StrTraitMFC_DLL@DV?$ChTraitsCRT@D@ATL@@@@@ATL@@AAH1111@Z ENDP ; CDataConversion::GetAllTime
_TEXT	ENDS
; Function compile flags: /Ogtp
; File D:\git\src\IBK\IBK_DRFN\ProjSrc\SrcDrfn\Chart\chart_common\DataList\Conversion.cpp
; File C:\Program Files (x86)\Microsoft Visual Studio\2019\Community\VC\Tools\MSVC\14.29.30133\atlmfc\include\cstringt.h
; File D:\git\src\IBK\IBK_DRFN\ProjSrc\SrcDrfn\Chart\chart_common\DataList\Conversion.cpp
; File C:\Program Files (x86)\Microsoft Visual Studio\2019\Community\VC\Tools\MSVC\14.29.30133\atlmfc\include\cstringt.h
; File D:\git\src\IBK\IBK_DRFN\ProjSrc\SrcDrfn\Chart\chart_common\DataList\Conversion.cpp
; File C:\Program Files (x86)\Microsoft Visual Studio\2019\Community\VC\Tools\MSVC\14.29.30133\atlmfc\include\cstringt.h
; File D:\git\src\IBK\IBK_DRFN\ProjSrc\SrcDrfn\Chart\chart_common\DataList\Conversion.cpp
;	COMDAT ?GetAdditionDataInFormat@CDataConversion@@CA?AV?$CStringT@DV?$StrTraitMFC_DLL@DV?$ChTraitsCRT@D@ATL@@@@@ATL@@HHABV23@H@Z
_TEXT	SEGMENT
$T2 = -36						; size = 4
$T3 = -36						; size = 4
$T4 = -36						; size = 4
$T5 = -36						; size = 4
$T6 = -36						; size = 4
$T7 = -36						; size = 4
_nSec$ = -32						; size = 4
_nMin$ = -28						; size = 4
_nHour$ = -24						; size = 4
_nDay$ = -20						; size = 4
_strAdditionTime$ = -16					; size = 4
__$EHRec$ = -12						; size = 12
___$ReturnUdt$ = 8					; size = 4
_nBaseTime$ = 12					; size = 4
_nAddIndex$ = 16					; size = 4
_strFormat$ = 20					; size = 4
_nInterval$ = 24					; size = 4
?GetAdditionDataInFormat@CDataConversion@@CA?AV?$CStringT@DV?$StrTraitMFC_DLL@DV?$ChTraitsCRT@D@ATL@@@@@ATL@@HHABV23@H@Z PROC ; CDataConversion::GetAdditionDataInFormat, COMDAT

; 826  : {

  00000	55		 push	 ebp
  00001	8b ec		 mov	 ebp, esp
  00003	6a ff		 push	 -1
  00005	68 00 00 00 00	 push	 __ehhandler$?GetAdditionDataInFormat@CDataConversion@@CA?AV?$CStringT@DV?$StrTraitMFC_DLL@DV?$ChTraitsCRT@D@ATL@@@@@ATL@@HHABV23@H@Z
  0000a	64 a1 00 00 00
	00		 mov	 eax, DWORD PTR fs:0
  00010	50		 push	 eax
  00011	83 ec 18	 sub	 esp, 24			; 00000018H
  00014	56		 push	 esi
  00015	57		 push	 edi
  00016	a1 00 00 00 00	 mov	 eax, DWORD PTR ___security_cookie
  0001b	33 c5		 xor	 eax, ebp
  0001d	50		 push	 eax
  0001e	8d 45 f4	 lea	 eax, DWORD PTR __$EHRec$[ebp]
  00021	64 a3 00 00 00
	00		 mov	 DWORD PTR fs:0, eax

; 828  : 	if(!GetAllTime(abs(nAddIndex), nInterval, strFormat, nMon, nDay, nHour, nMin, nSec))

  00027	8b 45 10	 mov	 eax, DWORD PTR _nAddIndex$[ebp]

; 856  : 	if(!GetAllTime_TimePart(nAddIndex, nInterval, strFormat, nDay, nHour, nMin, nSec))

  0002a	8d 4d e0	 lea	 ecx, DWORD PTR _nSec$[ebp]
  0002d	8b 7d 14	 mov	 edi, DWORD PTR _strFormat$[ebp]
  00030	51		 push	 ecx
  00031	8d 4d e4	 lea	 ecx, DWORD PTR _nMin$[ebp]

; 828  : 	if(!GetAllTime(abs(nAddIndex), nInterval, strFormat, nMon, nDay, nHour, nMin, nSec))

  00034	99		 cdq

; 856  : 	if(!GetAllTime_TimePart(nAddIndex, nInterval, strFormat, nDay, nHour, nMin, nSec))

  00035	51		 push	 ecx
  00036	8d 4d e8	 lea	 ecx, DWORD PTR _nHour$[ebp]

; 827  : 	int nMon = 0, nDay = 0, nHour = 0, nMin = 0, nSec = 0;

  00039	c7 45 ec 00 00
	00 00		 mov	 DWORD PTR _nDay$[ebp], 0

; 856  : 	if(!GetAllTime_TimePart(nAddIndex, nInterval, strFormat, nDay, nHour, nMin, nSec))

  00040	51		 push	 ecx
  00041	8d 4d ec	 lea	 ecx, DWORD PTR _nDay$[ebp]

; 827  : 	int nMon = 0, nDay = 0, nHour = 0, nMin = 0, nSec = 0;

  00044	c7 45 e8 00 00
	00 00		 mov	 DWORD PTR _nHour$[ebp], 0

; 856  : 	if(!GetAllTime_TimePart(nAddIndex, nInterval, strFormat, nDay, nHour, nMin, nSec))

  0004b	51		 push	 ecx
  0004c	57		 push	 edi
  0004d	ff 75 18	 push	 DWORD PTR _nInterval$[ebp]

; 828  : 	if(!GetAllTime(abs(nAddIndex), nInterval, strFormat, nMon, nDay, nHour, nMin, nSec))

  00050	33 c2		 xor	 eax, edx
  00052	c7 45 e4 00 00
	00 00		 mov	 DWORD PTR _nMin$[ebp], 0
  00059	2b c2		 sub	 eax, edx
  0005b	c7 45 e0 00 00
	00 00		 mov	 DWORD PTR _nSec$[ebp], 0

; 856  : 	if(!GetAllTime_TimePart(nAddIndex, nInterval, strFormat, nDay, nHour, nMin, nSec))

  00062	50		 push	 eax
  00063	e8 00 00 00 00	 call	 ?GetAllTime_TimePart@CDataConversion@@CA_NHHABV?$CStringT@DV?$StrTraitMFC_DLL@DV?$ChTraitsCRT@D@ATL@@@@@ATL@@AAH111@Z ; CDataConversion::GetAllTime_TimePart
  00068	83 c4 1c	 add	 esp, 28			; 0000001cH
  0006b	84 c0		 test	 al, al
  0006d	0f 84 b0 01 00
	00		 je	 $LN29@GetAdditio

; 892  : 	if(strFormat.Find("DD") >= 0)

  00073	6a 00		 push	 0
  00075	68 00 00 00 00	 push	 OFFSET ??_C@_02ODDIIJPA@DD@
  0007a	8b cf		 mov	 ecx, edi
  0007c	ff 15 00 00 00
	00		 call	 DWORD PTR __imp_?Find@?$CStringT@DV?$StrTraitMFC_DLL@DV?$ChTraitsCRT@D@ATL@@@@@ATL@@QBEHPBDH@Z

; 893  : 	{
; 894  : 	}
; 895  : 	// 
; 896  : 	if(strFormat.Find("MMDD") >= 0)

  00082	6a 00		 push	 0
  00084	68 00 00 00 00	 push	 OFFSET ??_C@_04BDEGLLOH@MMDD@
  00089	8b cf		 mov	 ecx, edi
  0008b	ff 15 00 00 00
	00		 call	 DWORD PTR __imp_?Find@?$CStringT@DV?$StrTraitMFC_DLL@DV?$ChTraitsCRT@D@ATL@@@@@ATL@@QBEHPBDH@Z

; 830  : 
; 831  : /*	nMon = nDay = nHour = nMin = nSec = 0;
; 832  : 	if(!OnPickoutTime(nBaseTime, abs(nAddIndex), strFormat, nInterval, nMon, nDay, nHour, nMin, nSec))
; 833  : 		return "";*/
; 834  : 
; 835  : 	CString strAdditionTime;

  00091	8d 4d f0	 lea	 ecx, DWORD PTR _strAdditionTime$[ebp]
  00094	ff 15 00 00 00
	00		 call	 DWORD PTR __imp_??0?$CStringT@DV?$StrTraitMFC_DLL@DV?$ChTraitsCRT@D@ATL@@@@@ATL@@QAE@XZ

; 836  : 	if(strFormat.Left(2) == "MM")

  0009a	6a 02		 push	 2
  0009c	8d 45 dc	 lea	 eax, DWORD PTR $T7[ebp]
  0009f	c7 45 fc 00 00
	00 00		 mov	 DWORD PTR __$EHRec$[ebp+8], 0
  000a6	50		 push	 eax
  000a7	8b cf		 mov	 ecx, edi
  000a9	ff 15 00 00 00
	00		 call	 DWORD PTR __imp_?Left@?$CStringT@DV?$StrTraitMFC_DLL@DV?$ChTraitsCRT@D@ATL@@@@@ATL@@QBE?AV12@H@Z
; File C:\Program Files (x86)\Microsoft Visual Studio\2019\Community\VC\Tools\MSVC\14.29.30133\atlmfc\include\cstringt.h

; 2486 : 		return(str1.Compare(psz2) == 0);

  000af	68 00 00 00 00	 push	 OFFSET ??_C@_02DNCLAJDG@MM@
  000b4	8b c8		 mov	 ecx, eax
; File D:\git\src\IBK\IBK_DRFN\ProjSrc\SrcDrfn\Chart\chart_common\DataList\Conversion.cpp

; 836  : 	if(strFormat.Left(2) == "MM")

  000b6	c6 45 fc 01	 mov	 BYTE PTR __$EHRec$[ebp+8], 1
; File C:\Program Files (x86)\Microsoft Visual Studio\2019\Community\VC\Tools\MSVC\14.29.30133\atlmfc\include\cstringt.h

; 2486 : 		return(str1.Compare(psz2) == 0);

  000ba	ff 15 00 00 00
	00		 call	 DWORD PTR __imp_?Compare@?$CStringT@DV?$StrTraitMFC_DLL@DV?$ChTraitsCRT@D@ATL@@@@@ATL@@QBEHPBD@Z
; File D:\git\src\IBK\IBK_DRFN\ProjSrc\SrcDrfn\Chart\chart_common\DataList\Conversion.cpp

; 836  : 	if(strFormat.Left(2) == "MM")

  000c0	8d 4d dc	 lea	 ecx, DWORD PTR $T7[ebp]
  000c3	c6 45 fc 00	 mov	 BYTE PTR __$EHRec$[ebp+8], 0
; File C:\Program Files (x86)\Microsoft Visual Studio\2019\Community\VC\Tools\MSVC\14.29.30133\atlmfc\include\cstringt.h

; 2486 : 		return(str1.Compare(psz2) == 0);

  000c7	8b f0		 mov	 esi, eax
; File D:\git\src\IBK\IBK_DRFN\ProjSrc\SrcDrfn\Chart\chart_common\DataList\Conversion.cpp

; 836  : 	if(strFormat.Left(2) == "MM")

  000c9	ff 15 00 00 00
	00		 call	 DWORD PTR __imp_??1?$CStringT@DV?$StrTraitMFC_DLL@DV?$ChTraitsCRT@D@ATL@@@@@ATL@@QAE@XZ
  000cf	85 f6		 test	 esi, esi
  000d1	75 2a		 jne	 SHORT $LN3@GetAdditio

; 837  : 		strAdditionTime += IntToString(nMon, 2);

  000d3	6a 02		 push	 2
  000d5	8d 45 dc	 lea	 eax, DWORD PTR $T6[ebp]
  000d8	56		 push	 esi
  000d9	50		 push	 eax
  000da	e8 00 00 00 00	 call	 ?IntToString@CDataConversion@@SA?AV?$CStringT@DV?$StrTraitMFC_DLL@DV?$ChTraitsCRT@D@ATL@@@@@ATL@@HH@Z ; CDataConversion::IntToString
  000df	83 c4 0c	 add	 esp, 12			; 0000000cH
  000e2	50		 push	 eax
  000e3	8d 4d f0	 lea	 ecx, DWORD PTR _strAdditionTime$[ebp]
  000e6	c6 45 fc 02	 mov	 BYTE PTR __$EHRec$[ebp+8], 2
  000ea	ff 15 00 00 00
	00		 call	 DWORD PTR __imp_??Y?$CStringT@DV?$StrTraitMFC_DLL@DV?$ChTraitsCRT@D@ATL@@@@@ATL@@QAEAAV01@ABV?$CSimpleStringT@D$00@1@@Z
  000f0	8d 4d dc	 lea	 ecx, DWORD PTR $T6[ebp]
  000f3	c6 45 fc 00	 mov	 BYTE PTR __$EHRec$[ebp+8], 0
  000f7	ff 15 00 00 00
	00		 call	 DWORD PTR __imp_??1?$CStringT@DV?$StrTraitMFC_DLL@DV?$ChTraitsCRT@D@ATL@@@@@ATL@@QAE@XZ
$LN3@GetAdditio:

; 838  : 	if(strFormat.Find("DD") >= 0)

  000fd	6a 00		 push	 0
  000ff	68 00 00 00 00	 push	 OFFSET ??_C@_02ODDIIJPA@DD@
  00104	8b cf		 mov	 ecx, edi
  00106	ff 15 00 00 00
	00		 call	 DWORD PTR __imp_?Find@?$CStringT@DV?$StrTraitMFC_DLL@DV?$ChTraitsCRT@D@ATL@@@@@ATL@@QBEHPBDH@Z
  0010c	85 c0		 test	 eax, eax
  0010e	78 2c		 js	 SHORT $LN4@GetAdditio

; 839  : 		strAdditionTime += IntToString(nDay, 2);

  00110	6a 02		 push	 2
  00112	ff 75 ec	 push	 DWORD PTR _nDay$[ebp]
  00115	8d 45 dc	 lea	 eax, DWORD PTR $T5[ebp]
  00118	50		 push	 eax
  00119	e8 00 00 00 00	 call	 ?IntToString@CDataConversion@@SA?AV?$CStringT@DV?$StrTraitMFC_DLL@DV?$ChTraitsCRT@D@ATL@@@@@ATL@@HH@Z ; CDataConversion::IntToString
  0011e	83 c4 0c	 add	 esp, 12			; 0000000cH
  00121	50		 push	 eax
  00122	8d 4d f0	 lea	 ecx, DWORD PTR _strAdditionTime$[ebp]
  00125	c6 45 fc 03	 mov	 BYTE PTR __$EHRec$[ebp+8], 3
  00129	ff 15 00 00 00
	00		 call	 DWORD PTR __imp_??Y?$CStringT@DV?$StrTraitMFC_DLL@DV?$ChTraitsCRT@D@ATL@@@@@ATL@@QAEAAV01@ABV?$CSimpleStringT@D$00@1@@Z
  0012f	8d 4d dc	 lea	 ecx, DWORD PTR $T5[ebp]
  00132	c6 45 fc 00	 mov	 BYTE PTR __$EHRec$[ebp+8], 0
  00136	ff 15 00 00 00
	00		 call	 DWORD PTR __imp_??1?$CStringT@DV?$StrTraitMFC_DLL@DV?$ChTraitsCRT@D@ATL@@@@@ATL@@QAE@XZ
$LN4@GetAdditio:

; 840  : 	if(strFormat.Find("HH") >= 0)

  0013c	6a 00		 push	 0
  0013e	68 00 00 00 00	 push	 OFFSET ??_C@_02EGJHDPJI@HH@
  00143	8b cf		 mov	 ecx, edi
  00145	ff 15 00 00 00
	00		 call	 DWORD PTR __imp_?Find@?$CStringT@DV?$StrTraitMFC_DLL@DV?$ChTraitsCRT@D@ATL@@@@@ATL@@QBEHPBDH@Z
  0014b	85 c0		 test	 eax, eax
  0014d	78 2c		 js	 SHORT $LN5@GetAdditio

; 841  : 		strAdditionTime += IntToString(nHour, 2);

  0014f	6a 02		 push	 2
  00151	ff 75 e8	 push	 DWORD PTR _nHour$[ebp]
  00154	8d 45 dc	 lea	 eax, DWORD PTR $T4[ebp]
  00157	50		 push	 eax
  00158	e8 00 00 00 00	 call	 ?IntToString@CDataConversion@@SA?AV?$CStringT@DV?$StrTraitMFC_DLL@DV?$ChTraitsCRT@D@ATL@@@@@ATL@@HH@Z ; CDataConversion::IntToString
  0015d	83 c4 0c	 add	 esp, 12			; 0000000cH
  00160	50		 push	 eax
  00161	8d 4d f0	 lea	 ecx, DWORD PTR _strAdditionTime$[ebp]
  00164	c6 45 fc 04	 mov	 BYTE PTR __$EHRec$[ebp+8], 4
  00168	ff 15 00 00 00
	00		 call	 DWORD PTR __imp_??Y?$CStringT@DV?$StrTraitMFC_DLL@DV?$ChTraitsCRT@D@ATL@@@@@ATL@@QAEAAV01@ABV?$CSimpleStringT@D$00@1@@Z
  0016e	8d 4d dc	 lea	 ecx, DWORD PTR $T4[ebp]
  00171	c6 45 fc 00	 mov	 BYTE PTR __$EHRec$[ebp+8], 0
  00175	ff 15 00 00 00
	00		 call	 DWORD PTR __imp_??1?$CStringT@DV?$StrTraitMFC_DLL@DV?$ChTraitsCRT@D@ATL@@@@@ATL@@QAE@XZ
$LN5@GetAdditio:

; 842  : 	if(strFormat.Find("MM") >= 0)

  0017b	6a 00		 push	 0
  0017d	68 00 00 00 00	 push	 OFFSET ??_C@_02DNCLAJDG@MM@
  00182	8b cf		 mov	 ecx, edi
  00184	ff 15 00 00 00
	00		 call	 DWORD PTR __imp_?Find@?$CStringT@DV?$StrTraitMFC_DLL@DV?$ChTraitsCRT@D@ATL@@@@@ATL@@QBEHPBDH@Z
  0018a	85 c0		 test	 eax, eax
  0018c	78 2c		 js	 SHORT $LN6@GetAdditio

; 843  : 		strAdditionTime += IntToString(nMin, 2);

  0018e	6a 02		 push	 2
  00190	ff 75 e4	 push	 DWORD PTR _nMin$[ebp]
  00193	8d 45 dc	 lea	 eax, DWORD PTR $T3[ebp]
  00196	50		 push	 eax
  00197	e8 00 00 00 00	 call	 ?IntToString@CDataConversion@@SA?AV?$CStringT@DV?$StrTraitMFC_DLL@DV?$ChTraitsCRT@D@ATL@@@@@ATL@@HH@Z ; CDataConversion::IntToString
  0019c	83 c4 0c	 add	 esp, 12			; 0000000cH
  0019f	50		 push	 eax
  001a0	8d 4d f0	 lea	 ecx, DWORD PTR _strAdditionTime$[ebp]
  001a3	c6 45 fc 05	 mov	 BYTE PTR __$EHRec$[ebp+8], 5
  001a7	ff 15 00 00 00
	00		 call	 DWORD PTR __imp_??Y?$CStringT@DV?$StrTraitMFC_DLL@DV?$ChTraitsCRT@D@ATL@@@@@ATL@@QAEAAV01@ABV?$CSimpleStringT@D$00@1@@Z
  001ad	8d 4d dc	 lea	 ecx, DWORD PTR $T3[ebp]
  001b0	c6 45 fc 00	 mov	 BYTE PTR __$EHRec$[ebp+8], 0
  001b4	ff 15 00 00 00
	00		 call	 DWORD PTR __imp_??1?$CStringT@DV?$StrTraitMFC_DLL@DV?$ChTraitsCRT@D@ATL@@@@@ATL@@QAE@XZ
$LN6@GetAdditio:

; 844  : 	if(strFormat.Find("SS") >= 0)

  001ba	6a 00		 push	 0
  001bc	68 00 00 00 00	 push	 OFFSET ??_C@_02PPNCLIJD@SS@
  001c1	8b cf		 mov	 ecx, edi
  001c3	ff 15 00 00 00
	00		 call	 DWORD PTR __imp_?Find@?$CStringT@DV?$StrTraitMFC_DLL@DV?$ChTraitsCRT@D@ATL@@@@@ATL@@QBEHPBDH@Z
  001c9	85 c0		 test	 eax, eax
  001cb	78 2c		 js	 SHORT $LN7@GetAdditio

; 845  : 		strAdditionTime += IntToString(nSec, 2);

  001cd	6a 02		 push	 2
  001cf	ff 75 e0	 push	 DWORD PTR _nSec$[ebp]
  001d2	8d 45 dc	 lea	 eax, DWORD PTR $T2[ebp]
  001d5	50		 push	 eax
  001d6	e8 00 00 00 00	 call	 ?IntToString@CDataConversion@@SA?AV?$CStringT@DV?$StrTraitMFC_DLL@DV?$ChTraitsCRT@D@ATL@@@@@ATL@@HH@Z ; CDataConversion::IntToString
  001db	83 c4 0c	 add	 esp, 12			; 0000000cH
  001de	50		 push	 eax
  001df	8d 4d f0	 lea	 ecx, DWORD PTR _strAdditionTime$[ebp]
  001e2	c6 45 fc 06	 mov	 BYTE PTR __$EHRec$[ebp+8], 6
  001e6	ff 15 00 00 00
	00		 call	 DWORD PTR __imp_??Y?$CStringT@DV?$StrTraitMFC_DLL@DV?$ChTraitsCRT@D@ATL@@@@@ATL@@QAEAAV01@ABV?$CSimpleStringT@D$00@1@@Z
  001ec	8d 4d dc	 lea	 ecx, DWORD PTR $T2[ebp]
  001ef	c6 45 fc 00	 mov	 BYTE PTR __$EHRec$[ebp+8], 0
  001f3	ff 15 00 00 00
	00		 call	 DWORD PTR __imp_??1?$CStringT@DV?$StrTraitMFC_DLL@DV?$ChTraitsCRT@D@ATL@@@@@ATL@@QAE@XZ
$LN7@GetAdditio:

; 846  : 	
; 847  : 	return strAdditionTime;

  001f9	8b 4d 08	 mov	 ecx, DWORD PTR ___$ReturnUdt$[ebp]
  001fc	8d 45 f0	 lea	 eax, DWORD PTR _strAdditionTime$[ebp]
  001ff	50		 push	 eax
  00200	ff 15 00 00 00
	00		 call	 DWORD PTR __imp_??0?$CStringT@DV?$StrTraitMFC_DLL@DV?$ChTraitsCRT@D@ATL@@@@@ATL@@QAE@ABV01@@Z
  00206	8d 4d f0	 lea	 ecx, DWORD PTR _strAdditionTime$[ebp]
  00209	ff 15 00 00 00
	00		 call	 DWORD PTR __imp_??1?$CStringT@DV?$StrTraitMFC_DLL@DV?$ChTraitsCRT@D@ATL@@@@@ATL@@QAE@XZ

; 848  : }

  0020f	8b 45 08	 mov	 eax, DWORD PTR ___$ReturnUdt$[ebp]
  00212	8b 4d f4	 mov	 ecx, DWORD PTR __$EHRec$[ebp]
  00215	64 89 0d 00 00
	00 00		 mov	 DWORD PTR fs:0, ecx
  0021c	59		 pop	 ecx
  0021d	5f		 pop	 edi
  0021e	5e		 pop	 esi
  0021f	8b e5		 mov	 esp, ebp
  00221	5d		 pop	 ebp
  00222	c3		 ret	 0
$LN29@GetAdditio:

; 829  : 		return "";

  00223	8b 4d 08	 mov	 ecx, DWORD PTR ___$ReturnUdt$[ebp]
  00226	68 00 00 00 00	 push	 OFFSET ??_C@_00CNPNBAHC@@
  0022b	ff 15 00 00 00
	00		 call	 DWORD PTR __imp_??0?$CStringT@DV?$StrTraitMFC_DLL@DV?$ChTraitsCRT@D@ATL@@@@@ATL@@QAE@PBD@Z

; 848  : }

  00231	8b 45 08	 mov	 eax, DWORD PTR ___$ReturnUdt$[ebp]
  00234	8b 4d f4	 mov	 ecx, DWORD PTR __$EHRec$[ebp]
  00237	64 89 0d 00 00
	00 00		 mov	 DWORD PTR fs:0, ecx
  0023e	59		 pop	 ecx
  0023f	5f		 pop	 edi
  00240	5e		 pop	 esi
  00241	8b e5		 mov	 esp, ebp
  00243	5d		 pop	 ebp
  00244	c3		 ret	 0
_TEXT	ENDS
;	COMDAT text$x
text$x	SEGMENT
__unwindfunclet$?GetAdditionDataInFormat@CDataConversion@@CA?AV?$CStringT@DV?$StrTraitMFC_DLL@DV?$ChTraitsCRT@D@ATL@@@@@ATL@@HHABV23@H@Z$1:
  00000	8d 4d f0	 lea	 ecx, DWORD PTR _strAdditionTime$[ebp]
  00003	ff 25 00 00 00
	00		 jmp	 DWORD PTR __imp_??1?$CStringT@DV?$StrTraitMFC_DLL@DV?$ChTraitsCRT@D@ATL@@@@@ATL@@QAE@XZ
__unwindfunclet$?GetAdditionDataInFormat@CDataConversion@@CA?AV?$CStringT@DV?$StrTraitMFC_DLL@DV?$ChTraitsCRT@D@ATL@@@@@ATL@@HHABV23@H@Z$2:
  00009	8d 4d dc	 lea	 ecx, DWORD PTR $T7[ebp]
  0000c	ff 25 00 00 00
	00		 jmp	 DWORD PTR __imp_??1?$CStringT@DV?$StrTraitMFC_DLL@DV?$ChTraitsCRT@D@ATL@@@@@ATL@@QAE@XZ
__unwindfunclet$?GetAdditionDataInFormat@CDataConversion@@CA?AV?$CStringT@DV?$StrTraitMFC_DLL@DV?$ChTraitsCRT@D@ATL@@@@@ATL@@HHABV23@H@Z$3:
  00012	8d 4d dc	 lea	 ecx, DWORD PTR $T6[ebp]
  00015	ff 25 00 00 00
	00		 jmp	 DWORD PTR __imp_??1?$CStringT@DV?$StrTraitMFC_DLL@DV?$ChTraitsCRT@D@ATL@@@@@ATL@@QAE@XZ
__unwindfunclet$?GetAdditionDataInFormat@CDataConversion@@CA?AV?$CStringT@DV?$StrTraitMFC_DLL@DV?$ChTraitsCRT@D@ATL@@@@@ATL@@HHABV23@H@Z$4:
  0001b	8d 4d dc	 lea	 ecx, DWORD PTR $T5[ebp]
  0001e	ff 25 00 00 00
	00		 jmp	 DWORD PTR __imp_??1?$CStringT@DV?$StrTraitMFC_DLL@DV?$ChTraitsCRT@D@ATL@@@@@ATL@@QAE@XZ
__unwindfunclet$?GetAdditionDataInFormat@CDataConversion@@CA?AV?$CStringT@DV?$StrTraitMFC_DLL@DV?$ChTraitsCRT@D@ATL@@@@@ATL@@HHABV23@H@Z$5:
  00024	8d 4d dc	 lea	 ecx, DWORD PTR $T4[ebp]
  00027	ff 25 00 00 00
	00		 jmp	 DWORD PTR __imp_??1?$CStringT@DV?$StrTraitMFC_DLL@DV?$ChTraitsCRT@D@ATL@@@@@ATL@@QAE@XZ
__unwindfunclet$?GetAdditionDataInFormat@CDataConversion@@CA?AV?$CStringT@DV?$StrTraitMFC_DLL@DV?$ChTraitsCRT@D@ATL@@@@@ATL@@HHABV23@H@Z$6:
  0002d	8d 4d dc	 lea	 ecx, DWORD PTR $T3[ebp]
  00030	ff 25 00 00 00
	00		 jmp	 DWORD PTR __imp_??1?$CStringT@DV?$StrTraitMFC_DLL@DV?$ChTraitsCRT@D@ATL@@@@@ATL@@QAE@XZ
__unwindfunclet$?GetAdditionDataInFormat@CDataConversion@@CA?AV?$CStringT@DV?$StrTraitMFC_DLL@DV?$ChTraitsCRT@D@ATL@@@@@ATL@@HHABV23@H@Z$7:
  00036	8d 4d dc	 lea	 ecx, DWORD PTR $T2[ebp]
  00039	ff 25 00 00 00
	00		 jmp	 DWORD PTR __imp_??1?$CStringT@DV?$StrTraitMFC_DLL@DV?$ChTraitsCRT@D@ATL@@@@@ATL@@QAE@XZ
  0003f	cc		 int	 3
  00040	cc		 int	 3
  00041	cc		 int	 3
  00042	cc		 int	 3
  00043	cc		 int	 3
__ehhandler$?GetAdditionDataInFormat@CDataConversion@@CA?AV?$CStringT@DV?$StrTraitMFC_DLL@DV?$ChTraitsCRT@D@ATL@@@@@ATL@@HHABV23@H@Z:
  00044	90		 npad	 1
  00045	90		 npad	 1
  00046	8b 54 24 08	 mov	 edx, DWORD PTR [esp+8]
  0004a	8d 42 0c	 lea	 eax, DWORD PTR [edx+12]
  0004d	8b 4a dc	 mov	 ecx, DWORD PTR [edx-36]
  00050	33 c8		 xor	 ecx, eax
  00052	e8 00 00 00 00	 call	 @__security_check_cookie@4
  00057	b8 00 00 00 00	 mov	 eax, OFFSET __ehfuncinfo$?GetAdditionDataInFormat@CDataConversion@@CA?AV?$CStringT@DV?$StrTraitMFC_DLL@DV?$ChTraitsCRT@D@ATL@@@@@ATL@@HHABV23@H@Z
  0005c	e9 00 00 00 00	 jmp	 ___CxxFrameHandler3
text$x	ENDS
?GetAdditionDataInFormat@CDataConversion@@CA?AV?$CStringT@DV?$StrTraitMFC_DLL@DV?$ChTraitsCRT@D@ATL@@@@@ATL@@HHABV23@H@Z ENDP ; CDataConversion::GetAdditionDataInFormat
; Function compile flags: /Ogtp
; File D:\git\src\IBK\IBK_DRFN\ProjSrc\SrcDrfn\Chart\chart_common\DataList\Conversion.cpp
; File C:\Program Files (x86)\Microsoft Visual Studio\2019\Community\VC\Tools\MSVC\14.29.30133\atlmfc\include\atlsimpstr.h
; File D:\git\src\IBK\IBK_DRFN\ProjSrc\SrcDrfn\Chart\chart_common\DataList\Conversion.cpp
; File C:\Program Files (x86)\Microsoft Visual Studio\2019\Community\VC\Tools\MSVC\14.29.30133\atlmfc\include\cstringt.h
; File D:\git\src\IBK\IBK_DRFN\ProjSrc\SrcDrfn\Chart\chart_common\DataList\Conversion.cpp
; File C:\Program Files (x86)\Microsoft Visual Studio\2019\Community\VC\Tools\MSVC\14.29.30133\atlmfc\include\cstringt.h
; File D:\git\src\IBK\IBK_DRFN\ProjSrc\SrcDrfn\Chart\chart_common\DataList\Conversion.cpp
; File C:\Program Files (x86)\Microsoft Visual Studio\2019\Community\VC\Tools\MSVC\14.29.30133\atlmfc\include\cstringt.h
; File D:\git\src\IBK\IBK_DRFN\ProjSrc\SrcDrfn\Chart\chart_common\DataList\Conversion.cpp
; File C:\Program Files (x86)\Microsoft Visual Studio\2019\Community\VC\Tools\MSVC\14.29.30133\atlmfc\include\cstringt.h
; File D:\git\src\IBK\IBK_DRFN\ProjSrc\SrcDrfn\Chart\chart_common\DataList\Conversion.cpp
; File C:\Program Files (x86)\Microsoft Visual Studio\2019\Community\VC\Tools\MSVC\14.29.30133\atlmfc\include\cstringt.h
; File D:\git\src\IBK\IBK_DRFN\ProjSrc\SrcDrfn\Chart\chart_common\DataList\Conversion.cpp
;	COMDAT ?IsCalcTimeFormatforCharge@CDataConversion@@CA_NHHABV?$CStringT@DV?$StrTraitMFC_DLL@DV?$ChTraitsCRT@D@ATL@@@@@ATL@@H@Z
_TEXT	SEGMENT
__$EHRec$ = -12						; size = 12
_strRight$ = 8						; size = 4
_nBaseTime$ = 8						; size = 4
_nAddIndex$ = 12					; size = 4
_strFormat$ = 16					; size = 4
_nInterval$ = 20					; size = 4
?IsCalcTimeFormatforCharge@CDataConversion@@CA_NHHABV?$CStringT@DV?$StrTraitMFC_DLL@DV?$ChTraitsCRT@D@ATL@@@@@ATL@@H@Z PROC ; CDataConversion::IsCalcTimeFormatforCharge, COMDAT

; 813  : {

  00000	55		 push	 ebp
  00001	8b ec		 mov	 ebp, esp
  00003	6a ff		 push	 -1
  00005	68 00 00 00 00	 push	 __ehhandler$?IsCalcTimeFormatforCharge@CDataConversion@@CA_NHHABV?$CStringT@DV?$StrTraitMFC_DLL@DV?$ChTraitsCRT@D@ATL@@@@@ATL@@H@Z
  0000a	64 a1 00 00 00
	00		 mov	 eax, DWORD PTR fs:0
  00010	50		 push	 eax
  00011	53		 push	 ebx
  00012	56		 push	 esi
  00013	a1 00 00 00 00	 mov	 eax, DWORD PTR ___security_cookie
  00018	33 c5		 xor	 eax, ebp
  0001a	50		 push	 eax
  0001b	8d 45 f4	 lea	 eax, DWORD PTR __$EHRec$[ebp]
  0001e	64 a3 00 00 00
	00		 mov	 DWORD PTR fs:0, eax

; 814  : 	if(nBaseTime <= 0 || nAddIndex == 0 || strFormat.IsEmpty() || nInterval <= 0)

  00024	83 7d 08 00	 cmp	 DWORD PTR _nBaseTime$[ebp], 0
  00028	0f 8e a8 00 00
	00		 jle	 $LN3@IsCalcTime
  0002e	83 7d 0c 00	 cmp	 DWORD PTR _nAddIndex$[ebp], 0
  00032	0f 84 9e 00 00
	00		 je	 $LN3@IsCalcTime
; File C:\Program Files (x86)\Microsoft Visual Studio\2019\Community\VC\Tools\MSVC\14.29.30133\atlmfc\include\atlsimpstr.h

; 519  : 		return( GetData()->nDataLength );

  00038	8b 75 10	 mov	 esi, DWORD PTR _strFormat$[ebp]
  0003b	8b 06		 mov	 eax, DWORD PTR [esi]

; 533  : 		return( GetLength() == 0 );

  0003d	83 78 f4 00	 cmp	 DWORD PTR [eax-12], 0
; File D:\git\src\IBK\IBK_DRFN\ProjSrc\SrcDrfn\Chart\chart_common\DataList\Conversion.cpp

; 814  : 	if(nBaseTime <= 0 || nAddIndex == 0 || strFormat.IsEmpty() || nInterval <= 0)

  00041	0f 84 8f 00 00
	00		 je	 $LN3@IsCalcTime
  00047	83 7d 14 00	 cmp	 DWORD PTR _nInterval$[ebp], 0
  0004b	0f 8e 85 00 00
	00		 jle	 $LN3@IsCalcTime

; 817  : 	CString strRight = strFormat.Right(1);

  00051	6a 01		 push	 1
  00053	8d 45 08	 lea	 eax, DWORD PTR _strRight$[ebp]
  00056	8b ce		 mov	 ecx, esi
  00058	50		 push	 eax
  00059	ff 15 00 00 00
	00		 call	 DWORD PTR __imp_?Right@?$CStringT@DV?$StrTraitMFC_DLL@DV?$ChTraitsCRT@D@ATL@@@@@ATL@@QBE?AV12@H@Z
; File C:\Program Files (x86)\Microsoft Visual Studio\2019\Community\VC\Tools\MSVC\14.29.30133\atlmfc\include\cstringt.h

; 2486 : 		return(str1.Compare(psz2) == 0);

  0005f	68 00 00 00 00	 push	 OFFSET ??_C@_01NFFPALBN@Y@
  00064	8d 4d 08	 lea	 ecx, DWORD PTR _strRight$[ebp]
; File D:\git\src\IBK\IBK_DRFN\ProjSrc\SrcDrfn\Chart\chart_common\DataList\Conversion.cpp

; 817  : 	CString strRight = strFormat.Right(1);

  00067	c7 45 fc 00 00
	00 00		 mov	 DWORD PTR __$EHRec$[ebp+8], 0
; File C:\Program Files (x86)\Microsoft Visual Studio\2019\Community\VC\Tools\MSVC\14.29.30133\atlmfc\include\cstringt.h

; 2486 : 		return(str1.Compare(psz2) == 0);

  0006e	ff 15 00 00 00
	00		 call	 DWORD PTR __imp_?Compare@?$CStringT@DV?$StrTraitMFC_DLL@DV?$ChTraitsCRT@D@ATL@@@@@ATL@@QBEHPBD@Z
  00074	85 c0		 test	 eax, eax
; File D:\git\src\IBK\IBK_DRFN\ProjSrc\SrcDrfn\Chart\chart_common\DataList\Conversion.cpp

; 818  : 	if(strRight == "Y" || strRight == "D")

  00076	74 40		 je	 SHORT $LN5@IsCalcTime
; File C:\Program Files (x86)\Microsoft Visual Studio\2019\Community\VC\Tools\MSVC\14.29.30133\atlmfc\include\cstringt.h

; 2486 : 		return(str1.Compare(psz2) == 0);

  00078	68 00 00 00 00	 push	 OFFSET ??_C@_01CKDDGHAB@D@
  0007d	8d 4d 08	 lea	 ecx, DWORD PTR _strRight$[ebp]
  00080	ff 15 00 00 00
	00		 call	 DWORD PTR __imp_?Compare@?$CStringT@DV?$StrTraitMFC_DLL@DV?$ChTraitsCRT@D@ATL@@@@@ATL@@QBEHPBD@Z
  00086	85 c0		 test	 eax, eax
; File D:\git\src\IBK\IBK_DRFN\ProjSrc\SrcDrfn\Chart\chart_common\DataList\Conversion.cpp

; 818  : 	if(strRight == "Y" || strRight == "D")

  00088	74 2e		 je	 SHORT $LN5@IsCalcTime
; File C:\Program Files (x86)\Microsoft Visual Studio\2019\Community\VC\Tools\MSVC\14.29.30133\atlmfc\include\cstringt.h

; 2567 : 		return( str1.Compare( psz2 ) != 0 );

  0008a	68 00 00 00 00	 push	 OFFSET ??_C@_06EBMMBHJD@YYYYMM@
  0008f	8b ce		 mov	 ecx, esi
  00091	ff 15 00 00 00
	00		 call	 DWORD PTR __imp_?Compare@?$CStringT@DV?$StrTraitMFC_DLL@DV?$ChTraitsCRT@D@ATL@@@@@ATL@@QBEHPBD@Z
  00097	85 c0		 test	 eax, eax
; File D:\git\src\IBK\IBK_DRFN\ProjSrc\SrcDrfn\Chart\chart_common\DataList\Conversion.cpp

; 821  : 	return (strFormat != "YYYYMM");

  00099	8d 4d 08	 lea	 ecx, DWORD PTR _strRight$[ebp]
; File C:\Program Files (x86)\Microsoft Visual Studio\2019\Community\VC\Tools\MSVC\14.29.30133\atlmfc\include\cstringt.h

; 2567 : 		return( str1.Compare( psz2 ) != 0 );

  0009c	0f 95 c3	 setne	 bl
; File D:\git\src\IBK\IBK_DRFN\ProjSrc\SrcDrfn\Chart\chart_common\DataList\Conversion.cpp

; 821  : 	return (strFormat != "YYYYMM");

  0009f	ff 15 00 00 00
	00		 call	 DWORD PTR __imp_??1?$CStringT@DV?$StrTraitMFC_DLL@DV?$ChTraitsCRT@D@ATL@@@@@ATL@@QAE@XZ
  000a5	8a c3		 mov	 al, bl

; 822  : }

  000a7	8b 4d f4	 mov	 ecx, DWORD PTR __$EHRec$[ebp]
  000aa	64 89 0d 00 00
	00 00		 mov	 DWORD PTR fs:0, ecx
  000b1	59		 pop	 ecx
  000b2	5e		 pop	 esi
  000b3	5b		 pop	 ebx
  000b4	8b e5		 mov	 esp, ebp
  000b6	5d		 pop	 ebp
  000b7	c3		 ret	 0
$LN5@IsCalcTime:

; 821  : 	return (strFormat != "YYYYMM");

  000b8	8d 4d 08	 lea	 ecx, DWORD PTR _strRight$[ebp]
  000bb	32 db		 xor	 bl, bl
  000bd	ff 15 00 00 00
	00		 call	 DWORD PTR __imp_??1?$CStringT@DV?$StrTraitMFC_DLL@DV?$ChTraitsCRT@D@ATL@@@@@ATL@@QAE@XZ
  000c3	8a c3		 mov	 al, bl

; 822  : }

  000c5	8b 4d f4	 mov	 ecx, DWORD PTR __$EHRec$[ebp]
  000c8	64 89 0d 00 00
	00 00		 mov	 DWORD PTR fs:0, ecx
  000cf	59		 pop	 ecx
  000d0	5e		 pop	 esi
  000d1	5b		 pop	 ebx
  000d2	8b e5		 mov	 esp, ebp
  000d4	5d		 pop	 ebp
  000d5	c3		 ret	 0
$LN3@IsCalcTime:

; 815  : 		return false;	

  000d6	32 c0		 xor	 al, al

; 822  : }

  000d8	8b 4d f4	 mov	 ecx, DWORD PTR __$EHRec$[ebp]
  000db	64 89 0d 00 00
	00 00		 mov	 DWORD PTR fs:0, ecx
  000e2	59		 pop	 ecx
  000e3	5e		 pop	 esi
  000e4	5b		 pop	 ebx
  000e5	8b e5		 mov	 esp, ebp
  000e7	5d		 pop	 ebp
  000e8	c3		 ret	 0
_TEXT	ENDS
;	COMDAT text$x
text$x	SEGMENT
__unwindfunclet$?IsCalcTimeFormatforCharge@CDataConversion@@CA_NHHABV?$CStringT@DV?$StrTraitMFC_DLL@DV?$ChTraitsCRT@D@ATL@@@@@ATL@@H@Z$0:
  00000	8d 4d 08	 lea	 ecx, DWORD PTR _strRight$[ebp]
  00003	ff 25 00 00 00
	00		 jmp	 DWORD PTR __imp_??1?$CStringT@DV?$StrTraitMFC_DLL@DV?$ChTraitsCRT@D@ATL@@@@@ATL@@QAE@XZ
  00009	cc		 int	 3
  0000a	cc		 int	 3
  0000b	cc		 int	 3
  0000c	cc		 int	 3
  0000d	cc		 int	 3
__ehhandler$?IsCalcTimeFormatforCharge@CDataConversion@@CA_NHHABV?$CStringT@DV?$StrTraitMFC_DLL@DV?$ChTraitsCRT@D@ATL@@@@@ATL@@H@Z:
  0000e	90		 npad	 1
  0000f	90		 npad	 1
  00010	8b 54 24 08	 mov	 edx, DWORD PTR [esp+8]
  00014	8d 42 0c	 lea	 eax, DWORD PTR [edx+12]
  00017	8b 4a f4	 mov	 ecx, DWORD PTR [edx-12]
  0001a	33 c8		 xor	 ecx, eax
  0001c	e8 00 00 00 00	 call	 @__security_check_cookie@4
  00021	b8 00 00 00 00	 mov	 eax, OFFSET __ehfuncinfo$?IsCalcTimeFormatforCharge@CDataConversion@@CA_NHHABV?$CStringT@DV?$StrTraitMFC_DLL@DV?$ChTraitsCRT@D@ATL@@@@@ATL@@H@Z
  00026	e9 00 00 00 00	 jmp	 ___CxxFrameHandler3
text$x	ENDS
?IsCalcTimeFormatforCharge@CDataConversion@@CA_NHHABV?$CStringT@DV?$StrTraitMFC_DLL@DV?$ChTraitsCRT@D@ATL@@@@@ATL@@H@Z ENDP ; CDataConversion::IsCalcTimeFormatforCharge
; Function compile flags: /Ogtp
; File D:\git\src\IBK\IBK_DRFN\ProjSrc\SrcDrfn\Chart\chart_common\DataList\Conversion.cpp
;	COMDAT ?GetComplementColor@CDataConversion@@SAKK@Z
_TEXT	SEGMENT
tv556 = -4						; size = 4
tv565 = 8						; size = 4
tv561 = 8						; size = 4
_p_crOrg$ = 8						; size = 4
?GetComplementColor@CDataConversion@@SAKK@Z PROC	; CDataConversion::GetComplementColor, COMDAT

; 2256 : {

  00000	55		 push	 ebp
  00001	8b ec		 mov	 ebp, esp
  00003	51		 push	 ecx

; 2257 : 	// 1.   .
; 2258 : 	BYTE btR = GetRValue( p_crOrg);
; 2259 : 	BYTE btG = GetGValue( p_crOrg);

  00004	8b 55 08	 mov	 edx, DWORD PTR _p_crOrg$[ebp]
  00007	8b ca		 mov	 ecx, edx
  00009	53		 push	 ebx
  0000a	c1 e9 08	 shr	 ecx, 8

; 2260 : 	BYTE btB = GetBValue( p_crOrg);

  0000d	8b da		 mov	 ebx, edx
  0000f	c1 eb 10	 shr	 ebx, 16			; 00000010H
  00012	89 4d fc	 mov	 DWORD PTR tv556[ebp], ecx

; 2261 : 	// 2.   .
; 2262 : 	// 2.1 RGB Min/Max .
; 2263 : 	BYTE btMin = ( btR < btG) ? ( btB < btR ? btB : btR) : ( btB < btG ? btB : btG);

  00015	3a d1		 cmp	 dl, cl
  00017	73 20		 jae	 SHORT $LN9@GetComplem
  00019	0f b6 c2	 movzx	 eax, dl
  0001c	3a da		 cmp	 bl, dl
  0001e	89 45 08	 mov	 DWORD PTR tv561[ebp], eax
  00021	8b d0		 mov	 edx, eax
  00023	0f b6 c3	 movzx	 eax, bl
  00026	0f 42 d0	 cmovb	 edx, eax

; 2264 : 	BYTE btMax = ( btR < btG) ? ( btB < btG ? btG : btB) : ( btB < btR ? btR : btB);

  00029	0f b6 c3	 movzx	 eax, bl
  0002c	89 45 08	 mov	 DWORD PTR tv565[ebp], eax
  0002f	3a d9		 cmp	 bl, cl
  00031	0f b6 c1	 movzx	 eax, cl
  00034	8b 4d 08	 mov	 ecx, DWORD PTR tv565[ebp]
  00037	eb 17		 jmp	 SHORT $LN14@GetComplem
$LN9@GetComplem:

; 2261 : 	// 2.   .
; 2262 : 	// 2.1 RGB Min/Max .
; 2263 : 	BYTE btMin = ( btR < btG) ? ( btB < btR ? btB : btR) : ( btB < btG ? btB : btG);

  00039	3a d9		 cmp	 bl, cl
  0003b	0f b6 d1	 movzx	 edx, cl
  0003e	0f b6 c3	 movzx	 eax, bl
  00041	0f 42 d0	 cmovb	 edx, eax

; 2264 : 	BYTE btMax = ( btR < btG) ? ( btB < btG ? btG : btB) : ( btB < btR ? btR : btB);

  00044	0f b6 cb	 movzx	 ecx, bl
  00047	8b 45 08	 mov	 eax, DWORD PTR _p_crOrg$[ebp]
  0004a	3a 5d 08	 cmp	 bl, BYTE PTR _p_crOrg$[ebp]
  0004d	0f b6 c0	 movzx	 eax, al
$LN14@GetComplem:

; 2265 : 	// 2.2   I .
; 2266 : 	double dI = ( btMax + btMin) / 2. * 240. / 255.;

  00050	f2 0f 10 3d 00
	00 00 00	 movsd	 xmm7, QWORD PTR __real@406e000000000000
  00058	0f 42 c8	 cmovb	 ecx, eax
  0005b	f2 0f 10 35 00
	00 00 00	 movsd	 xmm6, QWORD PTR __real@406fe00000000000
  00063	0f b6 c2	 movzx	 eax, dl
  00066	0f b6 c9	 movzx	 ecx, cl
  00069	03 c8		 add	 ecx, eax

; 2267 : 	// 3.   .
; 2268 : 	if( dI < 120)

  0006b	f2 0f 10 1d 00
	00 00 00	 movsd	 xmm3, QWORD PTR __real@405e000000000000
  00073	8b 45 fc	 mov	 eax, DWORD PTR tv556[ebp]
  00076	0f b6 c0	 movzx	 eax, al
  00079	66 0f 6e d1	 movd	 xmm2, ecx
  0007d	f3 0f e6 d2	 cvtdq2pd xmm2, xmm2
  00081	66 0f 6e e0	 movd	 xmm4, eax
  00085	f2 0f 59 15 00
	00 00 00	 mulsd	 xmm2, QWORD PTR __real@3fe0000000000000
  0008d	0f b6 c3	 movzx	 eax, bl
  00090	f3 0f e6 e4	 cvtdq2pd xmm4, xmm4
  00094	5b		 pop	 ebx
  00095	f2 0f 59 d7	 mulsd	 xmm2, xmm7
  00099	66 0f 6e e8	 movd	 xmm5, eax
  0009d	f3 0f e6 ed	 cvtdq2pd xmm5, xmm5
  000a1	f2 0f 5e d6	 divsd	 xmm2, xmm6
  000a5	66 0f 2f da	 comisd	 xmm3, xmm2
  000a9	76 12		 jbe	 SHORT $LN2@GetComplem

; 2269 : 	{
; 2270 : 		btR = BYTE( btR / dI * 120.);
; 2271 : 		btG = BYTE( btG / dI * 120.);

  000ab	f2 0f 5e e2	 divsd	 xmm4, xmm2

; 2272 : 		btB = BYTE( btB / dI * 120.);

  000af	f2 0f 5e ea	 divsd	 xmm5, xmm2
  000b3	f2 0f 59 e3	 mulsd	 xmm4, xmm3
  000b7	f2 0f 59 eb	 mulsd	 xmm5, xmm3

; 2273 : 	}

  000bb	eb 33		 jmp	 SHORT $LN3@GetComplem
$LN2@GetComplem:

; 2274 : 	else
; 2275 : 	{
; 2276 : 		btR = BYTE( 255. - ( 255. - btR) * 120. / (240. - dI));
; 2277 : 		btG = BYTE( 255. - ( 255. - btG) * 120. / (240. - dI));

  000bd	0f 28 c6	 movaps	 xmm0, xmm6
  000c0	0f 28 cf	 movaps	 xmm1, xmm7
  000c3	f2 0f 5c c4	 subsd	 xmm0, xmm4
  000c7	0f 28 e6	 movaps	 xmm4, xmm6
  000ca	f2 0f 5c ca	 subsd	 xmm1, xmm2
  000ce	f2 0f 59 c3	 mulsd	 xmm0, xmm3
  000d2	f2 0f 5e c1	 divsd	 xmm0, xmm1
  000d6	f2 0f 5c e0	 subsd	 xmm4, xmm0

; 2278 : 		btB = BYTE( 255. - ( 255. - btB) * 120. / (240. - dI));

  000da	0f 28 c6	 movaps	 xmm0, xmm6
  000dd	f2 0f 5c c5	 subsd	 xmm0, xmm5
  000e1	0f 28 ee	 movaps	 xmm5, xmm6
  000e4	f2 0f 59 c3	 mulsd	 xmm0, xmm3
  000e8	f2 0f 5e c1	 divsd	 xmm0, xmm1
  000ec	f2 0f 5c e8	 subsd	 xmm5, xmm0
$LN3@GetComplem:

; 2279 : 	}
; 2280 : 	// 4.  .
; 2281 : 	btR = BYTE( 255 - btR);
; 2282 : 	btR = BYTE( 255 - btG);
; 2283 : 	btR = BYTE( 255 - btB);

  000f0	f2 0f 2c cd	 cvttsd2si ecx, xmm5
  000f4	f2 0f 2c d4	 cvttsd2si edx, xmm4
  000f8	8a c1		 mov	 al, cl
  000fa	f6 d0		 not	 al

; 2284 : 	// 5.    . ( 50%)
; 2285 : 	if( dI <= 120) dI += 120;

  000fc	72 06		 jb	 SHORT $LN4@GetComplem
  000fe	f2 0f 58 d3	 addsd	 xmm2, xmm3
  00102	eb 04		 jmp	 SHORT $LN5@GetComplem
$LN4@GetComplem:

; 2286 : 	else dI -= 120;

  00104	f2 0f 5c d3	 subsd	 xmm2, xmm3
$LN5@GetComplem:

; 2287 : 	// 6.     .
; 2288 : 	if( dI < 120)

  00108	66 0f 2f da	 comisd	 xmm3, xmm2
  0010c	0f b6 c0	 movzx	 eax, al
  0010f	66 0f 6e c8	 movd	 xmm1, eax
  00113	0f b6 c2	 movzx	 eax, dl
  00116	f3 0f e6 c9	 cvtdq2pd xmm1, xmm1
  0011a	66 0f 6e e0	 movd	 xmm4, eax
  0011e	0f b6 c1	 movzx	 eax, cl
  00121	f3 0f e6 e4	 cvtdq2pd xmm4, xmm4
  00125	66 0f 6e e8	 movd	 xmm5, eax
  00129	f3 0f e6 ed	 cvtdq2pd xmm5, xmm5
  0012d	76 1a		 jbe	 SHORT $LN6@GetComplem

; 2289 : 	{
; 2290 : 		btR = BYTE( btR * dI / 120.);

  0012f	f2 0f 59 ca	 mulsd	 xmm1, xmm2

; 2291 : 		btG = BYTE( btG * dI / 120.);

  00133	f2 0f 59 e2	 mulsd	 xmm4, xmm2

; 2292 : 		btB = BYTE( btB * dI / 120.);

  00137	f2 0f 59 ea	 mulsd	 xmm5, xmm2
  0013b	f2 0f 5e cb	 divsd	 xmm1, xmm3
  0013f	f2 0f 5e e3	 divsd	 xmm4, xmm3
  00143	f2 0f 5e eb	 divsd	 xmm5, xmm3

; 2293 : 	}

  00147	eb 46		 jmp	 SHORT $LN7@GetComplem
$LN6@GetComplem:

; 2294 : 	else
; 2295 : 	{
; 2296 : 		btR = BYTE( 255. - ( 255. - btR) * (240. - dI) / 120.);

  00149	0f 28 c6	 movaps	 xmm0, xmm6
  0014c	f2 0f 5c fa	 subsd	 xmm7, xmm2
  00150	f2 0f 5c c1	 subsd	 xmm0, xmm1
  00154	0f 28 ce	 movaps	 xmm1, xmm6
  00157	f2 0f 59 c7	 mulsd	 xmm0, xmm7
  0015b	f2 0f 5e c3	 divsd	 xmm0, xmm3
  0015f	f2 0f 5c c8	 subsd	 xmm1, xmm0

; 2297 : 		btG = BYTE( 255. - ( 255. - btG) * (240. - dI) / 120.);

  00163	0f 28 c6	 movaps	 xmm0, xmm6
  00166	f2 0f 5c c4	 subsd	 xmm0, xmm4
  0016a	0f 28 e6	 movaps	 xmm4, xmm6
  0016d	f2 0f 59 c7	 mulsd	 xmm0, xmm7
  00171	f2 0f 5e c3	 divsd	 xmm0, xmm3
  00175	f2 0f 5c e0	 subsd	 xmm4, xmm0

; 2298 : 		btB = BYTE( 255. - ( 255. - btB) * (240. - dI) / 120.);

  00179	0f 28 c6	 movaps	 xmm0, xmm6
  0017c	f2 0f 5c c5	 subsd	 xmm0, xmm5
  00180	0f 28 ee	 movaps	 xmm5, xmm6
  00183	f2 0f 59 c7	 mulsd	 xmm0, xmm7
  00187	f2 0f 5e c3	 divsd	 xmm0, xmm3
  0018b	f2 0f 5c e8	 subsd	 xmm5, xmm0
$LN7@GetComplem:

; 2299 : 	}
; 2300 : 	// 7.   .
; 2301 : 	return RGB( btR, btG, btB);

  0018f	f2 0f 2c c5	 cvttsd2si eax, xmm5
  00193	f2 0f 2c cc	 cvttsd2si ecx, xmm4
  00197	0f b6 c0	 movzx	 eax, al
  0019a	c1 e0 08	 shl	 eax, 8
  0019d	0f b6 c9	 movzx	 ecx, cl
  001a0	0b c1		 or	 eax, ecx
  001a2	f2 0f 2c c9	 cvttsd2si ecx, xmm1
  001a6	c1 e0 08	 shl	 eax, 8
  001a9	0f b6 c9	 movzx	 ecx, cl
  001ac	0b c1		 or	 eax, ecx

; 2302 : }

  001ae	8b e5		 mov	 esp, ebp
  001b0	5d		 pop	 ebp
  001b1	c3		 ret	 0
?GetComplementColor@CDataConversion@@SAKK@Z ENDP	; CDataConversion::GetComplementColor
_TEXT	ENDS
; Function compile flags: /Ogtp
; File D:\git\src\IBK\IBK_DRFN\ProjSrc\SrcDrfn\Chart\chart_common\DataList\Conversion.cpp
; File C:\Program Files (x86)\Microsoft Visual Studio\2019\Community\VC\Tools\MSVC\14.29.30133\atlmfc\include\atltypes.h
; File D:\git\src\IBK\IBK_DRFN\ProjSrc\SrcDrfn\Chart\chart_common\DataList\Conversion.cpp
; File C:\Program Files (x86)\Microsoft Visual Studio\2019\Community\VC\Tools\MSVC\14.29.30133\atlmfc\include\atltypes.h
; File D:\git\src\IBK\IBK_DRFN\ProjSrc\SrcDrfn\Chart\chart_common\DataList\Conversion.cpp
;	COMDAT ?InvertGraphDataPt@CDataConversion@@SAHABVCRect@@H@Z
_TEXT	SEGMENT
_region$ = 8						; size = 4
_dataPt_y$ = 12						; size = 4
?InvertGraphDataPt@CDataConversion@@SAHABVCRect@@H@Z PROC ; CDataConversion::InvertGraphDataPt, COMDAT

; 1835 : {

  00000	55		 push	 ebp
  00001	8b ec		 mov	 ebp, esp
; File C:\Program Files (x86)\Microsoft Visual Studio\2019\Community\VC\Tools\MSVC\14.29.30133\atlmfc\include\atltypes.h

; 581  : 	return bottom - top;

  00003	8b 45 08	 mov	 eax, DWORD PTR _region$[ebp]
; File D:\git\src\IBK\IBK_DRFN\ProjSrc\SrcDrfn\Chart\chart_common\DataList\Conversion.cpp

; 1835 : {

  00006	56		 push	 esi
; File C:\Program Files (x86)\Microsoft Visual Studio\2019\Community\VC\Tools\MSVC\14.29.30133\atlmfc\include\atltypes.h

; 581  : 	return bottom - top;

  00007	8b 48 04	 mov	 ecx, DWORD PTR [eax+4]
  0000a	8b 70 0c	 mov	 esi, DWORD PTR [eax+12]
  0000d	8b c6		 mov	 eax, esi
  0000f	2b c1		 sub	 eax, ecx
; File D:\git\src\IBK\IBK_DRFN\ProjSrc\SrcDrfn\Chart\chart_common\DataList\Conversion.cpp

; 1836 : 	int halfHeight  = region.Height() / 2;

  00011	99		 cdq
  00012	2b c2		 sub	 eax, edx
  00014	d1 f8		 sar	 eax, 1

; 1837 : 
; 1838 : 	if(dataPt_y > region.top + halfHeight)

  00016	8d 14 01	 lea	 edx, DWORD PTR [ecx+eax]
  00019	8b 45 0c	 mov	 eax, DWORD PTR _dataPt_y$[ebp]
  0001c	3b c2		 cmp	 eax, edx
  0001e	7f 02		 jg	 SHORT $LN9@InvertGrap

; 1839 : 		return region.top + (region.bottom - dataPt_y);
; 1840 : 	else if(dataPt_y < region.top + halfHeight)

  00020	7d 05		 jge	 SHORT $LN1@InvertGrap
$LN9@InvertGrap:

; 1841 : 		return region.bottom - (dataPt_y - region.top);
; 1842 : 	else 
; 1843 : 		return dataPt_y;
; 1844 : 
; 1845 : 	return dataPt_y;
; 1846 : }

  00022	2b c8		 sub	 ecx, eax
  00024	8d 04 0e	 lea	 eax, DWORD PTR [esi+ecx]
$LN1@InvertGrap:
  00027	5e		 pop	 esi
  00028	5d		 pop	 ebp
  00029	c3		 ret	 0
?InvertGraphDataPt@CDataConversion@@SAHABVCRect@@H@Z ENDP ; CDataConversion::InvertGraphDataPt
_TEXT	ENDS
; Function compile flags: /Ogtp
; File D:\git\src\IBK\IBK_DRFN\ProjSrc\SrcDrfn\Chart\chart_common\DataList\Conversion.cpp
;	COMDAT ?GetRealWidth@CDataConversion@@SANABNH@Z
_TEXT	SEGMENT
tv131 = -8						; size = 8
_dWidth$ = 8						; size = 4
_nIndex$ = 12						; size = 4
?GetRealWidth@CDataConversion@@SANABNH@Z PROC		; CDataConversion::GetRealWidth, COMDAT

; 1825 : {

  00000	55		 push	 ebp
  00001	8b ec		 mov	 ebp, esp

; 1826 : 	if(nIndex <= 0)

  00003	8b 45 0c	 mov	 eax, DWORD PTR _nIndex$[ebp]
  00006	83 ec 08	 sub	 esp, 8
  00009	85 c0		 test	 eax, eax
  0000b	7f 06		 jg	 SHORT $LN2@GetRealWid

; 1827 : 		return 0.0;

  0000d	d9 ee		 fldz

; 1830 : }

  0000f	8b e5		 mov	 esp, ebp
  00011	5d		 pop	 ebp
  00012	c3		 ret	 0
$LN2@GetRealWid:
  00013	66 0f 6e c8	 movd	 xmm1, eax

; 1828 : 
; 1829 : 	return (dWidth / (double)nIndex);

  00017	8b 45 08	 mov	 eax, DWORD PTR _dWidth$[ebp]
  0001a	f3 0f e6 c9	 cvtdq2pd xmm1, xmm1
  0001e	f2 0f 10 00	 movsd	 xmm0, QWORD PTR [eax]
  00022	f2 0f 5e c1	 divsd	 xmm0, xmm1
  00026	f2 0f 11 45 f8	 movsd	 QWORD PTR tv131[ebp], xmm0
  0002b	dd 45 f8	 fld	 QWORD PTR tv131[ebp]

; 1830 : }

  0002e	8b e5		 mov	 esp, ebp
  00030	5d		 pop	 ebp
  00031	c3		 ret	 0
?GetRealWidth@CDataConversion@@SANABNH@Z ENDP		; CDataConversion::GetRealWidth
_TEXT	ENDS
; Function compile flags: /Ogtp
; File D:\git\src\IBK\IBK_DRFN\ProjSrc\SrcDrfn\Chart\chart_common\DataList\Conversion.cpp
; File C:\Program Files (x86)\Microsoft Visual Studio\2019\Community\VC\Tools\MSVC\14.29.30133\atlmfc\include\atltypes.h
; File D:\git\src\IBK\IBK_DRFN\ProjSrc\SrcDrfn\Chart\chart_common\DataList\Conversion.cpp
;	COMDAT ?GetPacketDataIndex_Date@CDataConversion@@SAHABVCRect@@ABVCPoint@@HH@Z
_TEXT	SEGMENT
_region$ = 8						; size = 4
_point$ = 12						; size = 4
_dataStart$ = 16					; size = 4
_dataEnd$ = 20						; size = 4
?GetPacketDataIndex_Date@CDataConversion@@SAHABVCRect@@ABVCPoint@@HH@Z PROC ; CDataConversion::GetPacketDataIndex_Date, COMDAT

; 1814 : {

  00000	55		 push	 ebp
  00001	8b ec		 mov	 ebp, esp

; 1816 : 	if(dataEnd < dataStart || dataStart < 0 || region.Width() == 0)

  00003	8b 4d 14	 mov	 ecx, DWORD PTR _dataEnd$[ebp]
  00006	8b 55 10	 mov	 edx, DWORD PTR _dataStart$[ebp]
  00009	56		 push	 esi
  0000a	57		 push	 edi
  0000b	3b ca		 cmp	 ecx, edx
  0000d	7c 3b		 jl	 SHORT $LN3@GetPacketD
  0000f	85 d2		 test	 edx, edx
  00011	78 37		 js	 SHORT $LN3@GetPacketD
; File C:\Program Files (x86)\Microsoft Visual Studio\2019\Community\VC\Tools\MSVC\14.29.30133\atlmfc\include\atltypes.h

; 576  : 	return right - left;

  00013	8b 45 08	 mov	 eax, DWORD PTR _region$[ebp]
  00016	8b 70 08	 mov	 esi, DWORD PTR [eax+8]
  00019	8b 38		 mov	 edi, DWORD PTR [eax]
  0001b	2b f7		 sub	 esi, edi
; File D:\git\src\IBK\IBK_DRFN\ProjSrc\SrcDrfn\Chart\chart_common\DataList\Conversion.cpp

; 1816 : 	if(dataEnd < dataStart || dataStart < 0 || region.Width() == 0)

  0001d	74 2b		 je	 SHORT $LN3@GetPacketD

; 1818 : 
; 1819 : 	int index = int((double)((point.x - region.left)*(dataEnd - dataStart +1)) / (double)region.Width());

  0001f	8b 45 0c	 mov	 eax, DWORD PTR _point$[ebp]
  00022	2b ca		 sub	 ecx, edx
  00024	41		 inc	 ecx
  00025	66 0f 6e c6	 movd	 xmm0, esi
  00029	f3 0f e6 c0	 cvtdq2pd xmm0, xmm0
  0002d	8b 00		 mov	 eax, DWORD PTR [eax]
  0002f	2b c7		 sub	 eax, edi
  00031	5f		 pop	 edi

; 1820 : 	return dataStart + index;
; 1821 : }

  00032	5e		 pop	 esi
  00033	0f af c8	 imul	 ecx, eax
  00036	66 0f 6e c9	 movd	 xmm1, ecx
  0003a	f3 0f e6 c9	 cvtdq2pd xmm1, xmm1
  0003e	f2 0f 5e c8	 divsd	 xmm1, xmm0
  00042	f2 0f 2c c1	 cvttsd2si eax, xmm1
  00046	03 c2		 add	 eax, edx
  00048	5d		 pop	 ebp
  00049	c3		 ret	 0
$LN3@GetPacketD:
  0004a	5f		 pop	 edi

; 1817 : 		return -1;

  0004b	83 c8 ff	 or	 eax, -1

; 1820 : 	return dataStart + index;
; 1821 : }

  0004e	5e		 pop	 esi
  0004f	5d		 pop	 ebp
  00050	c3		 ret	 0
?GetPacketDataIndex_Date@CDataConversion@@SAHABVCRect@@ABVCPoint@@HH@Z ENDP ; CDataConversion::GetPacketDataIndex_Date
_TEXT	ENDS
; Function compile flags: /Ogtp
; File D:\git\src\IBK\IBK_DRFN\ProjSrc\SrcDrfn\Chart\chart_common\DataList\Conversion.cpp
; File C:\Program Files (x86)\Microsoft Visual Studio\2019\Community\VC\Tools\MSVC\14.29.30133\atlmfc\include\atltypes.h
; File D:\git\src\IBK\IBK_DRFN\ProjSrc\SrcDrfn\Chart\chart_common\DataList\Conversion.cpp
;	COMDAT ?RelativeToAbsolute_X@CDataConversion@@SAHABVCRect@@HHH_N@Z
_TEXT	SEGMENT
_realWidth$ = -8					; size = 8
_region$ = 8						; size = 4
_startIndex$ = 12					; size = 4
_endIndex$ = 16						; size = 4
_currentIndex$ = 20					; size = 4
_bCenter$ = 24						; size = 1
?RelativeToAbsolute_X@CDataConversion@@SAHABVCRect@@HHH_N@Z PROC ; CDataConversion::RelativeToAbsolute_X, COMDAT

; 1800 : {

  00000	55		 push	 ebp
  00001	8b ec		 mov	 ebp, esp

; 1801 : 	double realWidth = GetRealWidth((double)region.Width(), (endIndex - startIndex +1));

  00003	8b 55 0c	 mov	 edx, DWORD PTR _startIndex$[ebp]
  00006	83 ec 08	 sub	 esp, 8
  00009	56		 push	 esi

; 1826 : 	if(nIndex <= 0)

  0000a	8b 75 08	 mov	 esi, DWORD PTR _region$[ebp]

; 1800 : {

  0000d	57		 push	 edi

; 1801 : 	double realWidth = GetRealWidth((double)region.Width(), (endIndex - startIndex +1));

  0000e	8b 7d 10	 mov	 edi, DWORD PTR _endIndex$[ebp]
  00011	8b cf		 mov	 ecx, edi
  00013	2b ca		 sub	 ecx, edx
  00015	41		 inc	 ecx

; 1826 : 	if(nIndex <= 0)

  00016	85 c9		 test	 ecx, ecx
  00018	7f 05		 jg	 SHORT $LN7@RelativeTo
  0001a	0f 57 c9	 xorps	 xmm1, xmm1

; 1827 : 		return 0.0;

  0001d	eb 19		 jmp	 SHORT $LN6@RelativeTo
$LN7@RelativeTo:
; File C:\Program Files (x86)\Microsoft Visual Studio\2019\Community\VC\Tools\MSVC\14.29.30133\atlmfc\include\atltypes.h

; 576  : 	return right - left;

  0001f	8b 46 08	 mov	 eax, DWORD PTR [esi+8]
  00022	2b 06		 sub	 eax, DWORD PTR [esi]
  00024	66 0f 6e c1	 movd	 xmm0, ecx
; File D:\git\src\IBK\IBK_DRFN\ProjSrc\SrcDrfn\Chart\chart_common\DataList\Conversion.cpp

; 1829 : 	return (dWidth / (double)nIndex);

  00028	f3 0f e6 c0	 cvtdq2pd xmm0, xmm0
  0002c	66 0f 6e c8	 movd	 xmm1, eax

; 1801 : 	double realWidth = GetRealWidth((double)region.Width(), (endIndex - startIndex +1));

  00030	f3 0f e6 c9	 cvtdq2pd xmm1, xmm1

; 1829 : 	return (dWidth / (double)nIndex);

  00034	f2 0f 5e c8	 divsd	 xmm1, xmm0
$LN6@RelativeTo:

; 1802 : 
; 1803 : 	//    start/end   
; 1804 : 	if(currentIndex >= startIndex && currentIndex <= endIndex)

  00038	8b 45 14	 mov	 eax, DWORD PTR _currentIndex$[ebp]
  0003b	f2 0f 11 4d f8	 movsd	 QWORD PTR _realWidth$[ebp], xmm1
  00040	3b c2		 cmp	 eax, edx
  00042	7c 48		 jl	 SHORT $LN14@RelativeTo
  00044	3b c7		 cmp	 eax, edi
  00046	7f 19		 jg	 SHORT $LN10@RelativeTo

; 1805 : 		return RelativeToAbsoluteInDisplayIndex_X(region, realWidth, (currentIndex - startIndex), bCenter);

  00048	ff 75 18	 push	 DWORD PTR _bCenter$[ebp]
  0004b	2b c2		 sub	 eax, edx
  0004d	50		 push	 eax
  0004e	8d 45 f8	 lea	 eax, DWORD PTR _realWidth$[ebp]
  00051	50		 push	 eax
  00052	56		 push	 esi
  00053	e8 00 00 00 00	 call	 ?RelativeToAbsoluteInDisplayIndex_X@CDataConversion@@CAHABVCRect@@ABNH_N@Z ; CDataConversion::RelativeToAbsoluteInDisplayIndex_X
  00058	83 c4 10	 add	 esp, 16			; 00000010H
  0005b	5f		 pop	 edi

; 1809 : }

  0005c	5e		 pop	 esi
  0005d	8b e5		 mov	 esp, ebp
  0005f	5d		 pop	 ebp
  00060	c3		 ret	 0
$LN10@RelativeTo:

; 1922 : 		return region.right + CMath::Round(double(currentIndex - endIndex)*realWidth);

  00061	2b c7		 sub	 eax, edi
  00063	83 ec 08	 sub	 esp, 8
  00066	66 0f 6e c0	 movd	 xmm0, eax
  0006a	f3 0f e6 c0	 cvtdq2pd xmm0, xmm0
  0006e	f2 0f 59 c1	 mulsd	 xmm0, xmm1
  00072	f2 0f 11 04 24	 movsd	 QWORD PTR [esp], xmm0
  00077	e8 00 00 00 00	 call	 ?Round@CMath@@SAHN@Z	; CMath::Round
  0007c	8b 4e 08	 mov	 ecx, DWORD PTR [esi+8]
  0007f	83 c4 08	 add	 esp, 8
  00082	03 c8		 add	 ecx, eax

; 1806 : 
; 1807 : 	//    (start/end)  
; 1808 : 	return RelativeToAbsoluteOutDisplayIndex_X(region, realWidth, startIndex, endIndex, currentIndex);

  00084	8b c1		 mov	 eax, ecx
  00086	5f		 pop	 edi

; 1809 : }

  00087	5e		 pop	 esi
  00088	8b e5		 mov	 esp, ebp
  0008a	5d		 pop	 ebp
  0008b	c3		 ret	 0
$LN14@RelativeTo:

; 1920 : 		return region.left - CMath::Round(double(startIndex - currentIndex)*realWidth);

  0008c	2b d0		 sub	 edx, eax
  0008e	83 ec 08	 sub	 esp, 8
  00091	66 0f 6e c2	 movd	 xmm0, edx
  00095	f3 0f e6 c0	 cvtdq2pd xmm0, xmm0
  00099	f2 0f 59 c1	 mulsd	 xmm0, xmm1
  0009d	f2 0f 11 04 24	 movsd	 QWORD PTR [esp], xmm0
  000a2	e8 00 00 00 00	 call	 ?Round@CMath@@SAHN@Z	; CMath::Round
  000a7	8b 0e		 mov	 ecx, DWORD PTR [esi]
  000a9	83 c4 08	 add	 esp, 8
  000ac	2b c8		 sub	 ecx, eax

; 1806 : 
; 1807 : 	//    (start/end)  
; 1808 : 	return RelativeToAbsoluteOutDisplayIndex_X(region, realWidth, startIndex, endIndex, currentIndex);

  000ae	8b c1		 mov	 eax, ecx
  000b0	5f		 pop	 edi

; 1809 : }

  000b1	5e		 pop	 esi
  000b2	8b e5		 mov	 esp, ebp
  000b4	5d		 pop	 ebp
  000b5	c3		 ret	 0
?RelativeToAbsolute_X@CDataConversion@@SAHABVCRect@@HHH_N@Z ENDP ; CDataConversion::RelativeToAbsolute_X
_TEXT	ENDS
; Function compile flags: /Ogtp
; File D:\git\src\IBK\IBK_DRFN\ProjSrc\SrcDrfn\Chart\chart_common\DataList\Conversion.cpp
; File C:\Program Files (x86)\Microsoft Visual Studio\2019\Community\VC\Tools\MSVC\14.29.30133\atlmfc\include\atltypes.h
; File D:\git\src\IBK\IBK_DRFN\ProjSrc\SrcDrfn\Chart\chart_common\DataList\Conversion.cpp
; File C:\Program Files (x86)\Microsoft Visual Studio\2019\Community\VC\Tools\MSVC\14.29.30133\atlmfc\include\atltypes.h
; File D:\git\src\IBK\IBK_DRFN\ProjSrc\SrcDrfn\Chart\chart_common\DataList\Conversion.cpp
; File C:\Program Files (x86)\Microsoft Visual Studio\2019\Community\VC\Tools\MSVC\14.29.30133\atlmfc\include\atltypes.h
; File D:\git\src\IBK\IBK_DRFN\ProjSrc\SrcDrfn\Chart\chart_common\DataList\Conversion.cpp
; File C:\Program Files (x86)\Microsoft Visual Studio\2019\Community\VC\Tools\MSVC\14.29.30133\atlmfc\include\atltypes.h
; File D:\git\src\IBK\IBK_DRFN\ProjSrc\SrcDrfn\Chart\chart_common\DataList\Conversion.cpp
; File C:\Program Files (x86)\Microsoft Visual Studio\2019\Community\VC\Tools\MSVC\14.29.30133\atlmfc\include\atltypes.h
; File D:\git\src\IBK\IBK_DRFN\ProjSrc\SrcDrfn\Chart\chart_common\DataList\Conversion.cpp
; File C:\Program Files (x86)\Microsoft Visual Studio\2019\Community\VC\Tools\MSVC\14.29.30133\atlmfc\include\atltypes.h
; File D:\git\src\IBK\IBK_DRFN\ProjSrc\SrcDrfn\Chart\chart_common\DataList\Conversion.cpp
;	COMDAT ?RelativeToAbsolute@CDataConversion@@SA?AVCPoint@@ABVCRect@@HHABN1H1@Z
_TEXT	SEGMENT
_realHeight$1$ = -8					; size = 8
_realWidth$1$ = -8					; size = 8
___$ReturnUdt$ = 8					; size = 4
_region$ = 12						; size = 4
_startIndex$ = 16					; size = 4
_startPos$1$ = 20					; size = 4
_endIndex$ = 20						; size = 4
_dataViewMin$ = 24					; size = 4
_dataViewMax$ = 28					; size = 4
_currentIndex$ = 32					; size = 4
_currentPrice$ = 36					; size = 4
?RelativeToAbsolute@CDataConversion@@SA?AVCPoint@@ABVCRect@@HHABN1H1@Z PROC ; CDataConversion::RelativeToAbsolute, COMDAT

; 1785 : {

  00000	55		 push	 ebp
  00001	8b ec		 mov	 ebp, esp

; 1786 : 	double realWidth = GetRealWidth((double)region.Width(), (endIndex - startIndex +1));

  00003	8b 55 10	 mov	 edx, DWORD PTR _startIndex$[ebp]
  00006	83 ec 08	 sub	 esp, 8
  00009	0f 57 e4	 xorps	 xmm4, xmm4
  0000c	53		 push	 ebx
  0000d	56		 push	 esi
  0000e	8b 75 14	 mov	 esi, DWORD PTR _endIndex$[ebp]
  00011	8b ce		 mov	 ecx, esi
  00013	2b ca		 sub	 ecx, edx
  00015	41		 inc	 ecx
  00016	57		 push	 edi

; 1826 : 	if(nIndex <= 0)

  00017	8b 7d 0c	 mov	 edi, DWORD PTR _region$[ebp]
  0001a	85 c9		 test	 ecx, ecx
  0001c	7f 05		 jg	 SHORT $LN7@RelativeTo
  0001e	0f 57 c9	 xorps	 xmm1, xmm1

; 1827 : 		return 0.0;

  00021	eb 19		 jmp	 SHORT $LN51@RelativeTo
$LN7@RelativeTo:
; File C:\Program Files (x86)\Microsoft Visual Studio\2019\Community\VC\Tools\MSVC\14.29.30133\atlmfc\include\atltypes.h

; 576  : 	return right - left;

  00023	8b 47 08	 mov	 eax, DWORD PTR [edi+8]
  00026	2b 07		 sub	 eax, DWORD PTR [edi]
  00028	66 0f 6e c1	 movd	 xmm0, ecx
; File D:\git\src\IBK\IBK_DRFN\ProjSrc\SrcDrfn\Chart\chart_common\DataList\Conversion.cpp

; 1829 : 	return (dWidth / (double)nIndex);

  0002c	f3 0f e6 c0	 cvtdq2pd xmm0, xmm0
  00030	66 0f 6e c8	 movd	 xmm1, eax

; 1786 : 	double realWidth = GetRealWidth((double)region.Width(), (endIndex - startIndex +1));

  00034	f3 0f e6 c9	 cvtdq2pd xmm1, xmm1

; 1829 : 	return (dWidth / (double)nIndex);

  00038	f2 0f 5e c8	 divsd	 xmm1, xmm0
$LN51@RelativeTo:

; 1787 : 
; 1788 : 	//    start/end   
; 1789 : 	if(currentIndex >= startIndex  &&  currentIndex <= endIndex)

  0003c	8b 5d 20	 mov	 ebx, DWORD PTR _currentIndex$[ebp]
  0003f	f2 0f 11 4d f8	 movsd	 QWORD PTR _realWidth$1$[ebp], xmm1
  00044	3b da		 cmp	 ebx, edx
  00046	0f 8c cc 00 00
	00		 jl	 $LN2@RelativeTo
  0004c	3b de		 cmp	 ebx, esi
  0004e	0f 8f c4 00 00
	00		 jg	 $LN2@RelativeTo

; 1790 : 		return RelativeToAbsoluteInDisplayIndex(region, realWidth, dataViewMin, dataViewMax, (currentIndex - startIndex), currentPrice);

  00054	2b da		 sub	 ebx, edx

; 1908 : 	int	x = GetChangingPosition(currentIndex, region.left, realWidth, bCenter);

  00056	8b 07		 mov	 eax, DWORD PTR [edi]
  00058	89 45 14	 mov	 DWORD PTR _startPos$1$[ebp], eax

; 1868 : 	if(nowIndex < 0)

  0005b	78 4a		 js	 SHORT $LN50@RelativeTo
  0005d	66 0f 6e c3	 movd	 xmm0, ebx

; 1869 : 		return -1;
; 1870 : 
; 1871 : 	int nNowPos = CMath::Round(width * nowIndex);

  00061	83 ec 08	 sub	 esp, 8
  00064	f3 0f e6 c0	 cvtdq2pd xmm0, xmm0
  00068	f2 0f 59 c1	 mulsd	 xmm0, xmm1
  0006c	f2 0f 11 04 24	 movsd	 QWORD PTR [esp], xmm0
  00071	e8 00 00 00 00	 call	 ?Round@CMath@@SAHN@Z	; CMath::Round

; 1872 : 	if(bCenter){
; 1873 : 		int nNextPos = CMath::Round(width * (nowIndex +1));

  00076	8d 4b 01	 lea	 ecx, DWORD PTR [ebx+1]
  00079	8b f0		 mov	 esi, eax
  0007b	66 0f 6e c1	 movd	 xmm0, ecx
  0007f	f3 0f e6 c0	 cvtdq2pd xmm0, xmm0
  00083	f2 0f 59 45 f8	 mulsd	 xmm0, QWORD PTR _realWidth$1$[ebp]
  00088	f2 0f 11 04 24	 movsd	 QWORD PTR [esp], xmm0
  0008d	e8 00 00 00 00	 call	 ?Round@CMath@@SAHN@Z	; CMath::Round

; 1874 : 		// line     "". gap 3, 5   .
; 1875 : 		int nHalf = (nNextPos - nNowPos) / 2;

  00092	2b c6		 sub	 eax, esi
  00094	83 c4 08	 add	 esp, 8
  00097	99		 cdq
  00098	2b c2		 sub	 eax, edx
  0009a	d1 f8		 sar	 eax, 1

; 1876 : 		nNowPos += nHalf;

  0009c	8d 1c 30	 lea	 ebx, DWORD PTR [eax+esi]

; 1877 : 	}
; 1878 : 
; 1879 : 	return (startPos + nNowPos);

  0009f	03 5d 14	 add	 ebx, DWORD PTR _startPos$1$[ebp]

; 1909 : 	if(x == -1)

  000a2	83 fb ff	 cmp	 ebx, -1
  000a5	75 02		 jne	 SHORT $LN11@RelativeTo
$LN50@RelativeTo:

; 1910 : 		return region.left;

  000a7	8b 1f		 mov	 ebx, DWORD PTR [edi]
$LN11@RelativeTo:
; File C:\Program Files (x86)\Microsoft Visual Studio\2019\Community\VC\Tools\MSVC\14.29.30133\atlmfc\include\atltypes.h

; 581  : 	return bottom - top;

  000a9	8b 77 0c	 mov	 esi, DWORD PTR [edi+12]
  000ac	8b ce		 mov	 ecx, esi
; File D:\git\src\IBK\IBK_DRFN\ProjSrc\SrcDrfn\Chart\chart_common\DataList\Conversion.cpp

; 1930 : 	return GetChangingPosition(region.bottom, region.Height(), dataViewMin, dataViewMax - dataViewMin, currentPrice);

  000ae	8b 45 18	 mov	 eax, DWORD PTR _dataViewMin$[ebp]
; File C:\Program Files (x86)\Microsoft Visual Studio\2019\Community\VC\Tools\MSVC\14.29.30133\atlmfc\include\atltypes.h

; 581  : 	return bottom - top;

  000b1	2b 4f 04	 sub	 ecx, DWORD PTR [edi+4]
; File D:\git\src\IBK\IBK_DRFN\ProjSrc\SrcDrfn\Chart\chart_common\DataList\Conversion.cpp

; 1930 : 	return GetChangingPosition(region.bottom, region.Height(), dataViewMin, dataViewMax - dataViewMin, currentPrice);

  000b4	f2 0f 10 10	 movsd	 xmm2, QWORD PTR [eax]

; 1859 : 	if(length <= 0 || originLength == 0)

  000b8	85 c9		 test	 ecx, ecx
  000ba	0f 8e ab 01 00
	00		 jle	 $LN46@RelativeTo

; 1930 : 	return GetChangingPosition(region.bottom, region.Height(), dataViewMin, dataViewMax - dataViewMin, currentPrice);

  000c0	8b 45 1c	 mov	 eax, DWORD PTR _dataViewMax$[ebp]
  000c3	0f 57 c9	 xorps	 xmm1, xmm1
  000c6	f2 0f 10 00	 movsd	 xmm0, QWORD PTR [eax]
  000ca	f2 0f 5c c2	 subsd	 xmm0, xmm2

; 1859 : 	if(length <= 0 || originLength == 0)

  000ce	66 0f 2e c1	 ucomisd xmm0, xmm1
  000d2	9f		 lahf
  000d3	f6 c4 44	 test	 ah, 68			; 00000044H
  000d6	0f 8b 8f 01 00
	00		 jnp	 $LN46@RelativeTo

; 1860 : 		return -1;
; 1861 : 
; 1862 : 	int ChangingLength = CMath::Round(length * ((nowData - originStartData) / originLength));

  000dc	8b 45 24	 mov	 eax, DWORD PTR _currentPrice$[ebp]
  000df	83 ec 08	 sub	 esp, 8
  000e2	f2 0f 10 08	 movsd	 xmm1, QWORD PTR [eax]
  000e6	f2 0f 5c ca	 subsd	 xmm1, xmm2
  000ea	f2 0f 5e c8	 divsd	 xmm1, xmm0
  000ee	66 0f 6e c1	 movd	 xmm0, ecx
  000f2	f3 0f e6 c0	 cvtdq2pd xmm0, xmm0
  000f6	f2 0f 59 c8	 mulsd	 xmm1, xmm0
  000fa	f2 0f 11 0c 24	 movsd	 QWORD PTR [esp], xmm1
  000ff	e8 00 00 00 00	 call	 ?Round@CMath@@SAHN@Z	; CMath::Round
  00104	83 c4 08	 add	 esp, 8

; 1863 : 	return (startPos - ChangingLength);

  00107	2b f0		 sub	 esi, eax

; 1794 : 	return RelativeToAbsoluteOutDisplayIndex(region, realWidth, realHeight, 
; 1795 : 		dataViewMin, dataViewMax, startIndex, endIndex, currentIndex, currentPrice);
; 1796 : }

  00109	8b 45 08	 mov	 eax, DWORD PTR ___$ReturnUdt$[ebp]
  0010c	5f		 pop	 edi
  0010d	89 70 04	 mov	 DWORD PTR [eax+4], esi
  00110	5e		 pop	 esi
  00111	89 18		 mov	 DWORD PTR [eax], ebx
  00113	5b		 pop	 ebx
  00114	8b e5		 mov	 esp, ebp
  00116	5d		 pop	 ebp
  00117	c3		 ret	 0
$LN2@RelativeTo:

; 1793 : 	double realHeight = (double)region.Height()/(dataViewMax - dataViewMin);

  00118	8b 4d 1c	 mov	 ecx, DWORD PTR _dataViewMax$[ebp]
; File C:\Program Files (x86)\Microsoft Visual Studio\2019\Community\VC\Tools\MSVC\14.29.30133\atlmfc\include\atltypes.h

; 581  : 	return bottom - top;

  0011b	8b 47 0c	 mov	 eax, DWORD PTR [edi+12]
  0011e	2b 47 04	 sub	 eax, DWORD PTR [edi+4]
; File D:\git\src\IBK\IBK_DRFN\ProjSrc\SrcDrfn\Chart\chart_common\DataList\Conversion.cpp

; 1793 : 	double realHeight = (double)region.Height()/(dataViewMax - dataViewMin);

  00121	f2 0f 10 01	 movsd	 xmm0, QWORD PTR [ecx]
  00125	8b 4d 18	 mov	 ecx, DWORD PTR _dataViewMin$[ebp]
  00128	66 0f 6e d8	 movd	 xmm3, eax
  0012c	f3 0f e6 db	 cvtdq2pd xmm3, xmm3
  00130	f2 0f 5c 01	 subsd	 xmm0, QWORD PTR [ecx]
  00134	f2 0f 5e d8	 divsd	 xmm3, xmm0
  00138	f2 0f 11 5d f8	 movsd	 QWORD PTR _realHeight$1$[ebp], xmm3

; 1919 : 	if(currentIndex < startIndex)

  0013d	3b da		 cmp	 ebx, edx
  0013f	7d 2f		 jge	 SHORT $LN33@RelativeTo

; 1920 : 		return region.left - CMath::Round(double(startIndex - currentIndex)*realWidth);

  00141	2b d3		 sub	 edx, ebx
  00143	83 ec 08	 sub	 esp, 8
  00146	66 0f 6e c2	 movd	 xmm0, edx
  0014a	f3 0f e6 c0	 cvtdq2pd xmm0, xmm0
  0014e	f2 0f 59 c1	 mulsd	 xmm0, xmm1
  00152	f2 0f 11 04 24	 movsd	 QWORD PTR [esp], xmm0
  00157	e8 00 00 00 00	 call	 ?Round@CMath@@SAHN@Z	; CMath::Round
  0015c	8b 1f		 mov	 ebx, DWORD PTR [edi]
  0015e	83 c4 08	 add	 esp, 8
  00161	f2 0f 10 5d f8	 movsd	 xmm3, QWORD PTR _realHeight$1$[ebp]
  00166	2b d8		 sub	 ebx, eax
  00168	8b 4d 18	 mov	 ecx, DWORD PTR _dataViewMin$[ebp]
  0016b	0f 57 e4	 xorps	 xmm4, xmm4
  0016e	eb 36		 jmp	 SHORT $LN32@RelativeTo
$LN33@RelativeTo:

; 1921 : 	else if(currentIndex > endIndex)

  00170	3b de		 cmp	 ebx, esi
  00172	7e 30		 jle	 SHORT $LN35@RelativeTo

; 1922 : 		return region.right + CMath::Round(double(currentIndex - endIndex)*realWidth);

  00174	2b de		 sub	 ebx, esi
  00176	83 ec 08	 sub	 esp, 8
  00179	66 0f 6e c3	 movd	 xmm0, ebx
  0017d	f3 0f e6 c0	 cvtdq2pd xmm0, xmm0
  00181	f2 0f 59 c1	 mulsd	 xmm0, xmm1
  00185	f2 0f 11 04 24	 movsd	 QWORD PTR [esp], xmm0
  0018a	e8 00 00 00 00	 call	 ?Round@CMath@@SAHN@Z	; CMath::Round
  0018f	f2 0f 10 5d f8	 movsd	 xmm3, QWORD PTR _realHeight$1$[ebp]
  00194	8b d8		 mov	 ebx, eax
  00196	8b 4d 18	 mov	 ecx, DWORD PTR _dataViewMin$[ebp]
  00199	83 c4 08	 add	 esp, 8
  0019c	03 5f 08	 add	 ebx, DWORD PTR [edi+8]
  0019f	0f 57 e4	 xorps	 xmm4, xmm4
  001a2	eb 02		 jmp	 SHORT $LN32@RelativeTo
$LN35@RelativeTo:

; 1923 : 
; 1924 : 	return 0;

  001a4	33 db		 xor	 ebx, ebx
$LN32@RelativeTo:

; 1938 : 	if(dataViewMax < currentPrice)

  001a6	8b 45 1c	 mov	 eax, DWORD PTR _dataViewMax$[ebp]
  001a9	f2 0f 10 10	 movsd	 xmm2, QWORD PTR [eax]
  001ad	8b 45 24	 mov	 eax, DWORD PTR _currentPrice$[ebp]
  001b0	f2 0f 10 08	 movsd	 xmm1, QWORD PTR [eax]
  001b4	66 0f 2f ca	 comisd	 xmm1, xmm2
  001b8	76 2c		 jbe	 SHORT $LN38@RelativeTo

; 1939 : 		return region.top - CMath::Round((currentPrice - dataViewMax)*realHeight);

  001ba	f2 0f 5c ca	 subsd	 xmm1, xmm2
  001be	83 ec 08	 sub	 esp, 8
  001c1	f2 0f 59 cb	 mulsd	 xmm1, xmm3
  001c5	f2 0f 11 0c 24	 movsd	 QWORD PTR [esp], xmm1
  001ca	e8 00 00 00 00	 call	 ?Round@CMath@@SAHN@Z	; CMath::Round
  001cf	8b 77 04	 mov	 esi, DWORD PTR [edi+4]
  001d2	83 c4 08	 add	 esp, 8
  001d5	2b f0		 sub	 esi, eax

; 1794 : 	return RelativeToAbsoluteOutDisplayIndex(region, realWidth, realHeight, 
; 1795 : 		dataViewMin, dataViewMax, startIndex, endIndex, currentIndex, currentPrice);
; 1796 : }

  001d7	8b 45 08	 mov	 eax, DWORD PTR ___$ReturnUdt$[ebp]
  001da	5f		 pop	 edi
  001db	89 70 04	 mov	 DWORD PTR [eax+4], esi
  001de	5e		 pop	 esi
  001df	89 18		 mov	 DWORD PTR [eax], ebx
  001e1	5b		 pop	 ebx
  001e2	8b e5		 mov	 esp, ebp
  001e4	5d		 pop	 ebp
  001e5	c3		 ret	 0
$LN38@RelativeTo:

; 1940 : 	else if(dataViewMax > currentPrice)

  001e6	66 0f 2f d1	 comisd	 xmm2, xmm1
  001ea	f2 0f 10 01	 movsd	 xmm0, QWORD PTR [ecx]
  001ee	76 2c		 jbe	 SHORT $LN40@RelativeTo

; 1941 : 		return region.bottom + CMath::Round((dataViewMin - currentPrice)*realHeight);

  001f0	f2 0f 5c c1	 subsd	 xmm0, xmm1
  001f4	83 ec 08	 sub	 esp, 8
  001f7	f2 0f 59 c3	 mulsd	 xmm0, xmm3
  001fb	f2 0f 11 04 24	 movsd	 QWORD PTR [esp], xmm0
  00200	e8 00 00 00 00	 call	 ?Round@CMath@@SAHN@Z	; CMath::Round
  00205	8b 77 0c	 mov	 esi, DWORD PTR [edi+12]
  00208	83 c4 08	 add	 esp, 8
  0020b	03 f0		 add	 esi, eax

; 1794 : 	return RelativeToAbsoluteOutDisplayIndex(region, realWidth, realHeight, 
; 1795 : 		dataViewMin, dataViewMax, startIndex, endIndex, currentIndex, currentPrice);
; 1796 : }

  0020d	8b 45 08	 mov	 eax, DWORD PTR ___$ReturnUdt$[ebp]
  00210	5f		 pop	 edi
  00211	89 70 04	 mov	 DWORD PTR [eax+4], esi
  00214	5e		 pop	 esi
  00215	89 18		 mov	 DWORD PTR [eax], ebx
  00217	5b		 pop	 ebx
  00218	8b e5		 mov	 esp, ebp
  0021a	5d		 pop	 ebp
  0021b	c3		 ret	 0
$LN40@RelativeTo:
; File C:\Program Files (x86)\Microsoft Visual Studio\2019\Community\VC\Tools\MSVC\14.29.30133\atlmfc\include\atltypes.h

; 581  : 	return bottom - top;

  0021c	8b 77 0c	 mov	 esi, DWORD PTR [edi+12]
; File D:\git\src\IBK\IBK_DRFN\ProjSrc\SrcDrfn\Chart\chart_common\DataList\Conversion.cpp

; 1943 : 	return GetChangingPosition(region.bottom, region.Height(), dataViewMin, dataViewMax - dataViewMin, currentPrice);

  0021f	f2 0f 5c d0	 subsd	 xmm2, xmm0
; File C:\Program Files (x86)\Microsoft Visual Studio\2019\Community\VC\Tools\MSVC\14.29.30133\atlmfc\include\atltypes.h

; 581  : 	return bottom - top;

  00223	8b ce		 mov	 ecx, esi
  00225	2b 4f 04	 sub	 ecx, DWORD PTR [edi+4]
; File D:\git\src\IBK\IBK_DRFN\ProjSrc\SrcDrfn\Chart\chart_common\DataList\Conversion.cpp

; 1859 : 	if(length <= 0 || originLength == 0)

  00228	85 c9		 test	 ecx, ecx
  0022a	7e 3f		 jle	 SHORT $LN46@RelativeTo
  0022c	66 0f 2e d4	 ucomisd xmm2, xmm4
  00230	9f		 lahf
  00231	f6 c4 44	 test	 ah, 68			; 00000044H
  00234	7b 35		 jnp	 SHORT $LN46@RelativeTo

; 1860 : 		return -1;
; 1861 : 
; 1862 : 	int ChangingLength = CMath::Round(length * ((nowData - originStartData) / originLength));

  00236	f2 0f 5c c8	 subsd	 xmm1, xmm0
  0023a	83 ec 08	 sub	 esp, 8
  0023d	66 0f 6e c1	 movd	 xmm0, ecx
  00241	f3 0f e6 c0	 cvtdq2pd xmm0, xmm0
  00245	f2 0f 5e ca	 divsd	 xmm1, xmm2
  00249	f2 0f 59 c8	 mulsd	 xmm1, xmm0
  0024d	f2 0f 11 0c 24	 movsd	 QWORD PTR [esp], xmm1
  00252	e8 00 00 00 00	 call	 ?Round@CMath@@SAHN@Z	; CMath::Round
  00257	83 c4 08	 add	 esp, 8

; 1863 : 	return (startPos - ChangingLength);

  0025a	2b f0		 sub	 esi, eax

; 1794 : 	return RelativeToAbsoluteOutDisplayIndex(region, realWidth, realHeight, 
; 1795 : 		dataViewMin, dataViewMax, startIndex, endIndex, currentIndex, currentPrice);
; 1796 : }

  0025c	8b 45 08	 mov	 eax, DWORD PTR ___$ReturnUdt$[ebp]
  0025f	5f		 pop	 edi
  00260	89 70 04	 mov	 DWORD PTR [eax+4], esi
  00263	5e		 pop	 esi
  00264	89 18		 mov	 DWORD PTR [eax], ebx
  00266	5b		 pop	 ebx
  00267	8b e5		 mov	 esp, ebp
  00269	5d		 pop	 ebp
  0026a	c3		 ret	 0
$LN46@RelativeTo:
  0026b	8b 45 08	 mov	 eax, DWORD PTR ___$ReturnUdt$[ebp]
  0026e	83 ce ff	 or	 esi, -1
  00271	5f		 pop	 edi
  00272	89 70 04	 mov	 DWORD PTR [eax+4], esi
  00275	5e		 pop	 esi
  00276	89 18		 mov	 DWORD PTR [eax], ebx
  00278	5b		 pop	 ebx
  00279	8b e5		 mov	 esp, ebp
  0027b	5d		 pop	 ebp
  0027c	c3		 ret	 0
?RelativeToAbsolute@CDataConversion@@SA?AVCPoint@@ABVCRect@@HHABN1H1@Z ENDP ; CDataConversion::RelativeToAbsolute
_TEXT	ENDS
; Function compile flags: /Ogtp
; File D:\git\src\IBK\IBK_DRFN\ProjSrc\SrcDrfn\Chart\chart_common\DataList\Conversion.cpp
; File C:\Program Files (x86)\Microsoft Visual Studio\2019\Community\VC\Tools\MSVC\14.29.30133\atlmfc\include\atltypes.h
; File D:\git\src\IBK\IBK_DRFN\ProjSrc\SrcDrfn\Chart\chart_common\DataList\Conversion.cpp
; File C:\Program Files (x86)\Microsoft Visual Studio\2019\Community\VC\Tools\MSVC\14.29.30133\atlmfc\include\atltypes.h
; File D:\git\src\IBK\IBK_DRFN\ProjSrc\SrcDrfn\Chart\chart_common\DataList\Conversion.cpp
;	COMDAT ?RelativeToAbsolute_Y@CDataConversion@@SAHABVCRect@@ABN11@Z
_TEXT	SEGMENT
_region$ = 8						; size = 4
_relative_y$ = 12					; size = 4
_dataViewMin$ = 16					; size = 4
_dataViewMax$ = 20					; size = 4
?RelativeToAbsolute_Y@CDataConversion@@SAHABVCRect@@ABN11@Z PROC ; CDataConversion::RelativeToAbsolute_Y, COMDAT

; 1776 : {

  00000	55		 push	 ebp
  00001	8b ec		 mov	 ebp, esp

; 1777 : 	double dData = (relative_y - dataViewMin) * (double)region.Height() / (dataViewMax - dataViewMin);

  00003	8b 45 10	 mov	 eax, DWORD PTR _dataViewMin$[ebp]
  00006	56		 push	 esi
; File C:\Program Files (x86)\Microsoft Visual Studio\2019\Community\VC\Tools\MSVC\14.29.30133\atlmfc\include\atltypes.h

; 581  : 	return bottom - top;

  00007	8b 75 08	 mov	 esi, DWORD PTR _region$[ebp]
; File D:\git\src\IBK\IBK_DRFN\ProjSrc\SrcDrfn\Chart\chart_common\DataList\Conversion.cpp

; 1778 : 	return (region.bottom - CMath::Round(dData));

  0000a	83 ec 08	 sub	 esp, 8
  0000d	f2 0f 10 08	 movsd	 xmm1, QWORD PTR [eax]
; File C:\Program Files (x86)\Microsoft Visual Studio\2019\Community\VC\Tools\MSVC\14.29.30133\atlmfc\include\atltypes.h

; 581  : 	return bottom - top;

  00011	8b 46 0c	 mov	 eax, DWORD PTR [esi+12]
  00014	2b 46 04	 sub	 eax, DWORD PTR [esi+4]
  00017	66 0f 6e d0	 movd	 xmm2, eax
; File D:\git\src\IBK\IBK_DRFN\ProjSrc\SrcDrfn\Chart\chart_common\DataList\Conversion.cpp

; 1777 : 	double dData = (relative_y - dataViewMin) * (double)region.Height() / (dataViewMax - dataViewMin);

  0001b	8b 45 0c	 mov	 eax, DWORD PTR _relative_y$[ebp]
  0001e	f3 0f e6 d2	 cvtdq2pd xmm2, xmm2
  00022	f2 0f 10 00	 movsd	 xmm0, QWORD PTR [eax]
  00026	8b 45 14	 mov	 eax, DWORD PTR _dataViewMax$[ebp]
  00029	f2 0f 5c c1	 subsd	 xmm0, xmm1
  0002d	f2 0f 59 d0	 mulsd	 xmm2, xmm0
  00031	f2 0f 10 00	 movsd	 xmm0, QWORD PTR [eax]
  00035	f2 0f 5c c1	 subsd	 xmm0, xmm1
  00039	f2 0f 5e d0	 divsd	 xmm2, xmm0

; 1778 : 	return (region.bottom - CMath::Round(dData));

  0003d	f2 0f 11 14 24	 movsd	 QWORD PTR [esp], xmm2
  00042	e8 00 00 00 00	 call	 ?Round@CMath@@SAHN@Z	; CMath::Round
  00047	8b 4e 0c	 mov	 ecx, DWORD PTR [esi+12]
  0004a	83 c4 08	 add	 esp, 8
  0004d	2b c8		 sub	 ecx, eax
  0004f	8b c1		 mov	 eax, ecx
  00051	5e		 pop	 esi

; 1779 : }

  00052	5d		 pop	 ebp
  00053	c3		 ret	 0
?RelativeToAbsolute_Y@CDataConversion@@SAHABVCRect@@ABN11@Z ENDP ; CDataConversion::RelativeToAbsolute_Y
_TEXT	ENDS
; Function compile flags: /Ogtp
; File D:\git\src\IBK\IBK_DRFN\ProjSrc\SrcDrfn\Chart\chart_common\DataList\Conversion.cpp
; File C:\Program Files (x86)\Microsoft Visual Studio\2019\Community\VC\Tools\MSVC\14.29.30133\atlmfc\include\atltypes.h
; File D:\git\src\IBK\IBK_DRFN\ProjSrc\SrcDrfn\Chart\chart_common\DataList\Conversion.cpp
; File C:\Program Files (x86)\Microsoft Visual Studio\2019\Community\VC\Tools\MSVC\14.29.30133\atlmfc\include\atltypes.h
; File D:\git\src\IBK\IBK_DRFN\ProjSrc\SrcDrfn\Chart\chart_common\DataList\Conversion.cpp
; File C:\Program Files (x86)\Microsoft Visual Studio\2019\Community\VC\Tools\MSVC\14.29.30133\atlmfc\include\atltypes.h
; File D:\git\src\IBK\IBK_DRFN\ProjSrc\SrcDrfn\Chart\chart_common\DataList\Conversion.cpp
;	COMDAT ?AbsoluteToRelative_Y@CDataConversion@@SANABVCRect@@HABN1@Z
_TEXT	SEGMENT
tv265 = -8						; size = 8
tv260 = -8						; size = 8
tv256 = -8						; size = 8
_region$ = 8						; size = 4
_absolute_y$ = 12					; size = 4
_dataViewMin$ = 16					; size = 4
_dataViewMax$ = 20					; size = 4
?AbsoluteToRelative_Y@CDataConversion@@SANABVCRect@@HABN1@Z PROC ; CDataConversion::AbsoluteToRelative_Y, COMDAT

; 1763 : {

  00000	55		 push	 ebp
  00001	8b ec		 mov	 ebp, esp

; 1764 : 	double unitHeight = (dataViewMax - dataViewMin) / (double)region.Height();

  00003	8b 45 14	 mov	 eax, DWORD PTR _dataViewMax$[ebp]
  00006	83 ec 08	 sub	 esp, 8
  00009	f2 0f 10 20	 movsd	 xmm4, QWORD PTR [eax]
  0000d	8b 45 10	 mov	 eax, DWORD PTR _dataViewMin$[ebp]
  00010	0f 28 dc	 movaps	 xmm3, xmm4
  00013	f2 0f 10 08	 movsd	 xmm1, QWORD PTR [eax]
; File C:\Program Files (x86)\Microsoft Visual Studio\2019\Community\VC\Tools\MSVC\14.29.30133\atlmfc\include\atltypes.h

; 581  : 	return bottom - top;

  00017	8b 45 08	 mov	 eax, DWORD PTR _region$[ebp]
; File D:\git\src\IBK\IBK_DRFN\ProjSrc\SrcDrfn\Chart\chart_common\DataList\Conversion.cpp

; 1764 : 	double unitHeight = (dataViewMax - dataViewMin) / (double)region.Height();

  0001a	f2 0f 5c d9	 subsd	 xmm3, xmm1
; File C:\Program Files (x86)\Microsoft Visual Studio\2019\Community\VC\Tools\MSVC\14.29.30133\atlmfc\include\atltypes.h

; 581  : 	return bottom - top;

  0001e	8b 50 04	 mov	 edx, DWORD PTR [eax+4]
  00021	8b 48 0c	 mov	 ecx, DWORD PTR [eax+12]
; File D:\git\src\IBK\IBK_DRFN\ProjSrc\SrcDrfn\Chart\chart_common\DataList\Conversion.cpp

; 1764 : 	double unitHeight = (dataViewMax - dataViewMin) / (double)region.Height();

  00024	0f 28 d3	 movaps	 xmm2, xmm3
; File C:\Program Files (x86)\Microsoft Visual Studio\2019\Community\VC\Tools\MSVC\14.29.30133\atlmfc\include\atltypes.h

; 581  : 	return bottom - top;

  00027	8b c1		 mov	 eax, ecx
  00029	2b c2		 sub	 eax, edx
  0002b	66 0f 6e e8	 movd	 xmm5, eax
; File D:\git\src\IBK\IBK_DRFN\ProjSrc\SrcDrfn\Chart\chart_common\DataList\Conversion.cpp

; 1765 : 	if(absolute_y < region.top)

  0002f	8b 45 0c	 mov	 eax, DWORD PTR _absolute_y$[ebp]
  00032	f3 0f e6 ed	 cvtdq2pd xmm5, xmm5
  00036	f2 0f 5e d5	 divsd	 xmm2, xmm5
  0003a	3b c2		 cmp	 eax, edx
  0003c	7d 1e		 jge	 SHORT $LN2@AbsoluteTo

; 1766 : 		return dataViewMax + ((double)(region.top - absolute_y) * unitHeight);

  0003e	2b d0		 sub	 edx, eax
  00040	66 0f 6e c2	 movd	 xmm0, edx
  00044	f3 0f e6 c0	 cvtdq2pd xmm0, xmm0
  00048	f2 0f 59 c2	 mulsd	 xmm0, xmm2
  0004c	f2 0f 58 c4	 addsd	 xmm0, xmm4
  00050	f2 0f 11 45 f8	 movsd	 QWORD PTR tv265[ebp], xmm0
  00055	dd 45 f8	 fld	 QWORD PTR tv265[ebp]

; 1772 : }

  00058	8b e5		 mov	 esp, ebp
  0005a	5d		 pop	 ebp
  0005b	c3		 ret	 0
$LN2@AbsoluteTo:

; 1767 : 	else if(absolute_y > region.bottom)

  0005c	3b c1		 cmp	 eax, ecx
  0005e	7e 1e		 jle	 SHORT $LN4@AbsoluteTo

; 1768 : 		return dataViewMin - ((double)(absolute_y - region.bottom) * unitHeight);

  00060	2b c1		 sub	 eax, ecx
  00062	66 0f 6e c0	 movd	 xmm0, eax
  00066	f3 0f e6 c0	 cvtdq2pd xmm0, xmm0
  0006a	f2 0f 59 c2	 mulsd	 xmm0, xmm2
  0006e	f2 0f 5c c8	 subsd	 xmm1, xmm0
  00072	f2 0f 11 4d f8	 movsd	 QWORD PTR tv260[ebp], xmm1
  00077	dd 45 f8	 fld	 QWORD PTR tv260[ebp]

; 1772 : }

  0007a	8b e5		 mov	 esp, ebp
  0007c	5d		 pop	 ebp
  0007d	c3		 ret	 0
$LN4@AbsoluteTo:

; 1769 : 
; 1770 : 	double dData = (double)(region.bottom - absolute_y) * (dataViewMax - dataViewMin) / (double)region.Height();

  0007e	2b c8		 sub	 ecx, eax
  00080	66 0f 6e c1	 movd	 xmm0, ecx
  00084	f3 0f e6 c0	 cvtdq2pd xmm0, xmm0
  00088	f2 0f 59 c3	 mulsd	 xmm0, xmm3
  0008c	f2 0f 5e c5	 divsd	 xmm0, xmm5

; 1771 : 	return (dataViewMin + dData);

  00090	f2 0f 58 c1	 addsd	 xmm0, xmm1
  00094	f2 0f 11 45 f8	 movsd	 QWORD PTR tv256[ebp], xmm0
  00099	dd 45 f8	 fld	 QWORD PTR tv256[ebp]

; 1772 : }

  0009c	8b e5		 mov	 esp, ebp
  0009e	5d		 pop	 ebp
  0009f	c3		 ret	 0
?AbsoluteToRelative_Y@CDataConversion@@SANABVCRect@@HABN1@Z ENDP ; CDataConversion::AbsoluteToRelative_Y
_TEXT	ENDS
; Function compile flags: /Ogtp
; File D:\git\src\IBK\IBK_DRFN\ProjSrc\SrcDrfn\Chart\chart_common\DataList\Conversion.cpp
; File C:\Program Files (x86)\Microsoft Visual Studio\2019\Community\VC\Tools\MSVC\14.29.30133\atlmfc\include\atltypes.h
; File D:\git\src\IBK\IBK_DRFN\ProjSrc\SrcDrfn\Chart\chart_common\DataList\Conversion.cpp
;	COMDAT ?AbsoluteToRelative_X@CDataConversion@@SAHABVCRect@@HABN1@Z
_TEXT	SEGMENT
_region$ = 8						; size = 4
_absolute_x$ = 12					; size = 4
_dataViewMin$ = 16					; size = 4
_dataViewMax$ = 20					; size = 4
?AbsoluteToRelative_X@CDataConversion@@SAHABVCRect@@HABN1@Z PROC ; CDataConversion::AbsoluteToRelative_X, COMDAT

; 1753 : {

  00000	55		 push	 ebp
  00001	8b ec		 mov	 ebp, esp

; 1754 : 	if(absolute_x < region.left ||  absolute_x > region.right)

  00003	8b 45 08	 mov	 eax, DWORD PTR _region$[ebp]
  00006	8b 4d 0c	 mov	 ecx, DWORD PTR _absolute_x$[ebp]
  00009	56		 push	 esi
  0000a	8b 30		 mov	 esi, DWORD PTR [eax]
  0000c	3b ce		 cmp	 ecx, esi
  0000e	7c 55		 jl	 SHORT $LN3@AbsoluteTo
  00010	8b 50 08	 mov	 edx, DWORD PTR [eax+8]
  00013	3b ca		 cmp	 ecx, edx
  00015	7f 4e		 jg	 SHORT $LN3@AbsoluteTo

; 1757 : 	double dData = ((double)region.right - absolute_x) * (dataViewMax - dataViewMin);

  00017	8b 45 14	 mov	 eax, DWORD PTR _dataViewMax$[ebp]

; 1759 : 	return CMath::Round(dataViewMax - dData);	

  0001a	83 ec 08	 sub	 esp, 8
  0001d	66 0f 6e ca	 movd	 xmm1, edx
; File C:\Program Files (x86)\Microsoft Visual Studio\2019\Community\VC\Tools\MSVC\14.29.30133\atlmfc\include\atltypes.h

; 576  : 	return right - left;

  00021	2b d6		 sub	 edx, esi
; File D:\git\src\IBK\IBK_DRFN\ProjSrc\SrcDrfn\Chart\chart_common\DataList\Conversion.cpp

; 1757 : 	double dData = ((double)region.right - absolute_x) * (dataViewMax - dataViewMin);

  00023	f3 0f e6 c9	 cvtdq2pd xmm1, xmm1
  00027	f2 0f 10 10	 movsd	 xmm2, QWORD PTR [eax]
  0002b	8b 45 10	 mov	 eax, DWORD PTR _dataViewMin$[ebp]
  0002e	66 0f 6e c1	 movd	 xmm0, ecx
  00032	f3 0f e6 c0	 cvtdq2pd xmm0, xmm0
  00036	f2 0f 5c c8	 subsd	 xmm1, xmm0
  0003a	0f 28 c2	 movaps	 xmm0, xmm2
  0003d	f2 0f 5c 00	 subsd	 xmm0, QWORD PTR [eax]
  00041	f2 0f 59 c8	 mulsd	 xmm1, xmm0
  00045	66 0f 6e c2	 movd	 xmm0, edx

; 1758 : 	dData = dData / (double)region.Width();

  00049	f3 0f e6 c0	 cvtdq2pd xmm0, xmm0
  0004d	f2 0f 5e c8	 divsd	 xmm1, xmm0

; 1759 : 	return CMath::Round(dataViewMax - dData);	

  00051	f2 0f 5c d1	 subsd	 xmm2, xmm1
  00055	f2 0f 11 14 24	 movsd	 QWORD PTR [esp], xmm2
  0005a	e8 00 00 00 00	 call	 ?Round@CMath@@SAHN@Z	; CMath::Round
  0005f	83 c4 08	 add	 esp, 8
  00062	5e		 pop	 esi

; 1760 : }

  00063	5d		 pop	 ebp
  00064	c3		 ret	 0
$LN3@AbsoluteTo:

; 1755 : 		return 0;

  00065	33 c0		 xor	 eax, eax
  00067	5e		 pop	 esi

; 1760 : }

  00068	5d		 pop	 ebp
  00069	c3		 ret	 0
?AbsoluteToRelative_X@CDataConversion@@SAHABVCRect@@HABN1@Z ENDP ; CDataConversion::AbsoluteToRelative_X
_TEXT	ENDS
; Function compile flags: /Ogtp
; File D:\git\src\IBK\IBK_DRFN\ProjSrc\SrcDrfn\Chart\chart_common\DataList\Conversion.cpp
; File C:\Program Files (x86)\Microsoft Visual Studio\2019\Community\VC\Tools\MSVC\14.29.30133\atlmfc\include\atltypes.h
; File D:\git\src\IBK\IBK_DRFN\ProjSrc\SrcDrfn\Chart\chart_common\DataList\Conversion.cpp
;	COMDAT ?AbsoluteToRelative_X@CDataConversion@@SAHABVCRect@@HH@Z
_TEXT	SEGMENT
_region$ = 8						; size = 4
_absolute_x$ = 12					; size = 4
_pageDataCount$ = 16					; size = 4
?AbsoluteToRelative_X@CDataConversion@@SAHABVCRect@@HH@Z PROC ; CDataConversion::AbsoluteToRelative_X, COMDAT

; 1745 : {

  00000	55		 push	 ebp
  00001	8b ec		 mov	 ebp, esp

; 1746 : 	if(pageDataCount <= 0 || absolute_x < region.left ||  absolute_x > region.right)

  00003	8b 55 10	 mov	 edx, DWORD PTR _pageDataCount$[ebp]
  00006	56		 push	 esi
  00007	85 d2		 test	 edx, edx
  00009	7e 35		 jle	 SHORT $LN3@AbsoluteTo
  0000b	8b 4d 08	 mov	 ecx, DWORD PTR _region$[ebp]
  0000e	8b 45 0c	 mov	 eax, DWORD PTR _absolute_x$[ebp]
  00011	8b 31		 mov	 esi, DWORD PTR [ecx]
  00013	3b c6		 cmp	 eax, esi
  00015	7c 29		 jl	 SHORT $LN3@AbsoluteTo
  00017	8b 49 08	 mov	 ecx, DWORD PTR [ecx+8]
  0001a	3b c1		 cmp	 eax, ecx
  0001c	7f 22		 jg	 SHORT $LN3@AbsoluteTo

; 1749 : 	return int((double)((absolute_x - region.left)*pageDataCount) / (double)region.Width());

  0001e	2b c6		 sub	 eax, esi
  00020	0f af c2	 imul	 eax, edx
; File C:\Program Files (x86)\Microsoft Visual Studio\2019\Community\VC\Tools\MSVC\14.29.30133\atlmfc\include\atltypes.h

; 576  : 	return right - left;

  00023	2b ce		 sub	 ecx, esi
  00025	5e		 pop	 esi
  00026	66 0f 6e c1	 movd	 xmm0, ecx
; File D:\git\src\IBK\IBK_DRFN\ProjSrc\SrcDrfn\Chart\chart_common\DataList\Conversion.cpp

; 1749 : 	return int((double)((absolute_x - region.left)*pageDataCount) / (double)region.Width());

  0002a	f3 0f e6 c0	 cvtdq2pd xmm0, xmm0
  0002e	66 0f 6e c8	 movd	 xmm1, eax
  00032	f3 0f e6 c9	 cvtdq2pd xmm1, xmm1
  00036	f2 0f 5e c8	 divsd	 xmm1, xmm0
  0003a	f2 0f 2c c1	 cvttsd2si eax, xmm1

; 1750 : }

  0003e	5d		 pop	 ebp
  0003f	c3		 ret	 0
$LN3@AbsoluteTo:

; 1747 : 		return 0;

  00040	33 c0		 xor	 eax, eax
  00042	5e		 pop	 esi

; 1750 : }

  00043	5d		 pop	 ebp
  00044	c3		 ret	 0
?AbsoluteToRelative_X@CDataConversion@@SAHABVCRect@@HH@Z ENDP ; CDataConversion::AbsoluteToRelative_X
_TEXT	ENDS
; Function compile flags: /Ogtp
; File D:\git\src\IBK\IBK_DRFN\ProjSrc\SrcDrfn\Chart\chart_common\DataList\Conversion.cpp
; File C:\Program Files (x86)\Microsoft Visual Studio\2019\Community\VC\Tools\MSVC\14.29.30133\atlmfc\include\atltypes.h
; File D:\git\src\IBK\IBK_DRFN\ProjSrc\SrcDrfn\Chart\chart_common\DataList\Conversion.cpp
; File C:\Program Files (x86)\Microsoft Visual Studio\2019\Community\VC\Tools\MSVC\14.29.30133\atlmfc\include\atltypes.h
; File D:\git\src\IBK\IBK_DRFN\ProjSrc\SrcDrfn\Chart\chart_common\DataList\Conversion.cpp
;	COMDAT ?GetHorizontalPoint_X@CDataConversion@@SAHABVCRect@@ABN11@Z
_TEXT	SEGMENT
_blockRegion$ = 8					; size = 4
_min$ = 12						; size = 4
_max$ = 16						; size = 4
_nowData$ = 20						; size = 4
?GetHorizontalPoint_X@CDataConversion@@SAHABVCRect@@ABN11@Z PROC ; CDataConversion::GetHorizontalPoint_X, COMDAT

; 1729 : {

  00000	55		 push	 ebp
  00001	8b ec		 mov	 ebp, esp

; 1730 : 	int x = GetChangingPosition(blockRegion.right, blockRegion.Width(), min, max-min, nowData);

  00003	8b 55 0c	 mov	 edx, DWORD PTR _min$[ebp]

; 1859 : 	if(length <= 0 || originLength == 0)

  00006	0f 57 c0	 xorps	 xmm0, xmm0

; 1729 : {

  00009	53		 push	 ebx
  0000a	56		 push	 esi
  0000b	57		 push	 edi
; File C:\Program Files (x86)\Microsoft Visual Studio\2019\Community\VC\Tools\MSVC\14.29.30133\atlmfc\include\atltypes.h

; 576  : 	return right - left;

  0000c	8b 7d 08	 mov	 edi, DWORD PTR _blockRegion$[ebp]
  0000f	8b 5f 08	 mov	 ebx, DWORD PTR [edi+8]
  00012	8d 77 08	 lea	 esi, DWORD PTR [edi+8]
; File D:\git\src\IBK\IBK_DRFN\ProjSrc\SrcDrfn\Chart\chart_common\DataList\Conversion.cpp

; 1730 : 	int x = GetChangingPosition(blockRegion.right, blockRegion.Width(), min, max-min, nowData);

  00015	f2 0f 10 1a	 movsd	 xmm3, QWORD PTR [edx]
; File C:\Program Files (x86)\Microsoft Visual Studio\2019\Community\VC\Tools\MSVC\14.29.30133\atlmfc\include\atltypes.h

; 576  : 	return right - left;

  00019	8b cb		 mov	 ecx, ebx
  0001b	2b 0f		 sub	 ecx, DWORD PTR [edi]
; File D:\git\src\IBK\IBK_DRFN\ProjSrc\SrcDrfn\Chart\chart_common\DataList\Conversion.cpp

; 1859 : 	if(length <= 0 || originLength == 0)

  0001d	85 c9		 test	 ecx, ecx
  0001f	7e 55		 jle	 SHORT $LN13@GetHorizon

; 1730 : 	int x = GetChangingPosition(blockRegion.right, blockRegion.Width(), min, max-min, nowData);

  00021	8b 45 10	 mov	 eax, DWORD PTR _max$[ebp]
  00024	f2 0f 10 10	 movsd	 xmm2, QWORD PTR [eax]
  00028	f2 0f 5c d3	 subsd	 xmm2, xmm3

; 1859 : 	if(length <= 0 || originLength == 0)

  0002c	66 0f 2e d0	 ucomisd xmm2, xmm0
  00030	9f		 lahf
  00031	f6 c4 44	 test	 ah, 68			; 00000044H
  00034	7b 40		 jnp	 SHORT $LN13@GetHorizon

; 1860 : 		return -1;
; 1861 : 
; 1862 : 	int ChangingLength = CMath::Round(length * ((nowData - originStartData) / originLength));

  00036	8b 45 14	 mov	 eax, DWORD PTR _nowData$[ebp]
  00039	83 ec 08	 sub	 esp, 8
  0003c	66 0f 6e c1	 movd	 xmm0, ecx
  00040	f3 0f e6 c0	 cvtdq2pd xmm0, xmm0
  00044	f2 0f 10 08	 movsd	 xmm1, QWORD PTR [eax]
  00048	f2 0f 5c cb	 subsd	 xmm1, xmm3
  0004c	f2 0f 5e ca	 divsd	 xmm1, xmm2
  00050	f2 0f 59 c8	 mulsd	 xmm1, xmm0
  00054	f2 0f 11 0c 24	 movsd	 QWORD PTR [esp], xmm1
  00059	e8 00 00 00 00	 call	 ?Round@CMath@@SAHN@Z	; CMath::Round
  0005e	83 c4 08	 add	 esp, 8

; 1863 : 	return (startPos - ChangingLength);

  00061	2b d8		 sub	 ebx, eax

; 1731 : 	if(x < 0){

  00063	78 0b		 js	 SHORT $LN15@GetHorizon

; 1737 : 	else
; 1738 : 		x = blockRegion.right - x + blockRegion.left; 

  00065	8b 06		 mov	 eax, DWORD PTR [esi]
  00067	2b c3		 sub	 eax, ebx
  00069	03 07		 add	 eax, DWORD PTR [edi]
  0006b	5f		 pop	 edi

; 1739 : 
; 1740 : 	return x;
; 1741 : }

  0006c	5e		 pop	 esi
  0006d	5b		 pop	 ebx
  0006e	5d		 pop	 ebp
  0006f	c3		 ret	 0
$LN15@GetHorizon:

; 1731 : 	if(x < 0){

  00070	8b 55 0c	 mov	 edx, DWORD PTR _min$[ebp]
  00073	0f 57 c0	 xorps	 xmm0, xmm0
$LN13@GetHorizon:

; 1732 : 		if(max < 0 && min < 0)

  00076	8b 45 10	 mov	 eax, DWORD PTR _max$[ebp]
  00079	66 0f 2f 00	 comisd	 xmm0, QWORD PTR [eax]
  0007d	76 06		 jbe	 SHORT $LN4@GetHorizon
  0007f	66 0f 2f 02	 comisd	 xmm0, QWORD PTR [edx]
  00083	77 02		 ja	 SHORT $LN5@GetHorizon
$LN4@GetHorizon:

; 1733 : 			x = blockRegion.right;
; 1734 : 		else
; 1735 : 			x = blockRegion.left;

  00085	8b f7		 mov	 esi, edi
$LN5@GetHorizon:

; 1736 : 	}

  00087	8b 06		 mov	 eax, DWORD PTR [esi]
  00089	5f		 pop	 edi

; 1739 : 
; 1740 : 	return x;
; 1741 : }

  0008a	5e		 pop	 esi
  0008b	5b		 pop	 ebx
  0008c	5d		 pop	 ebp
  0008d	c3		 ret	 0
?GetHorizontalPoint_X@CDataConversion@@SAHABVCRect@@ABN11@Z ENDP ; CDataConversion::GetHorizontalPoint_X
_TEXT	ENDS
; Function compile flags: /Ogtp
; File D:\git\src\IBK\IBK_DRFN\ProjSrc\SrcDrfn\Chart\chart_common\DataList\Conversion.cpp
; File C:\Program Files (x86)\Microsoft Visual Studio\2019\Community\VC\Tools\MSVC\14.29.30133\atlmfc\include\atltypes.h
; File D:\git\src\IBK\IBK_DRFN\ProjSrc\SrcDrfn\Chart\chart_common\DataList\Conversion.cpp
; File C:\Program Files (x86)\Microsoft Visual Studio\2019\Community\VC\Tools\MSVC\14.29.30133\atlmfc\include\atltypes.h
; File D:\git\src\IBK\IBK_DRFN\ProjSrc\SrcDrfn\Chart\chart_common\DataList\Conversion.cpp
; File C:\Program Files (x86)\Microsoft Visual Studio\2019\Community\VC\Tools\MSVC\14.29.30133\atlmfc\include\atltypes.h
; File D:\git\src\IBK\IBK_DRFN\ProjSrc\SrcDrfn\Chart\chart_common\DataList\Conversion.cpp
; File C:\Program Files (x86)\Microsoft Visual Studio\2019\Community\VC\Tools\MSVC\14.29.30133\atlmfc\include\atltypes.h
; File D:\git\src\IBK\IBK_DRFN\ProjSrc\SrcDrfn\Chart\chart_common\DataList\Conversion.cpp
;	COMDAT ?GetHorizontalPoint@CDataConversion@@SA?AVCPoint@@ABVCRect@@HABN111@Z
_TEXT	SEGMENT
_x$1$ = -4						; size = 4
___$ReturnUdt$ = 8					; size = 4
_blockRegion$ = 12					; size = 4
_nIndex$ = 16						; size = 4
_realWidth$ = 20					; size = 4
_startPos$1$ = 24					; size = 4
_min$ = 24						; size = 4
_max$ = 28						; size = 4
_nowData$ = 32						; size = 4
?GetHorizontalPoint@CDataConversion@@SA?AVCPoint@@ABVCRect@@HABN111@Z PROC ; CDataConversion::GetHorizontalPoint, COMDAT

; 1710 : {

  00000	55		 push	 ebp
  00001	8b ec		 mov	 ebp, esp
  00003	51		 push	 ecx

; 1711 : 	int x = GetChangingPosition(blockRegion.right, blockRegion.Width(), min, max-min, nowData);

  00004	8b 55 18	 mov	 edx, DWORD PTR _min$[ebp]

; 1859 : 	if(length <= 0 || originLength == 0)

  00007	0f 57 c0	 xorps	 xmm0, xmm0

; 1710 : {

  0000a	53		 push	 ebx
  0000b	56		 push	 esi
; File C:\Program Files (x86)\Microsoft Visual Studio\2019\Community\VC\Tools\MSVC\14.29.30133\atlmfc\include\atltypes.h

; 576  : 	return right - left;

  0000c	8b 75 0c	 mov	 esi, DWORD PTR _blockRegion$[ebp]
  0000f	8b 5e 08	 mov	 ebx, DWORD PTR [esi+8]
  00012	8b cb		 mov	 ecx, ebx
; File D:\git\src\IBK\IBK_DRFN\ProjSrc\SrcDrfn\Chart\chart_common\DataList\Conversion.cpp

; 1711 : 	int x = GetChangingPosition(blockRegion.right, blockRegion.Width(), min, max-min, nowData);

  00014	f2 0f 10 1a	 movsd	 xmm3, QWORD PTR [edx]
  00018	57		 push	 edi
; File C:\Program Files (x86)\Microsoft Visual Studio\2019\Community\VC\Tools\MSVC\14.29.30133\atlmfc\include\atltypes.h

; 576  : 	return right - left;

  00019	2b 0e		 sub	 ecx, DWORD PTR [esi]
  0001b	8d 7e 08	 lea	 edi, DWORD PTR [esi+8]
; File D:\git\src\IBK\IBK_DRFN\ProjSrc\SrcDrfn\Chart\chart_common\DataList\Conversion.cpp

; 1859 : 	if(length <= 0 || originLength == 0)

  0001e	85 c9		 test	 ecx, ecx
  00020	7e 56		 jle	 SHORT $LN20@GetHorizon

; 1711 : 	int x = GetChangingPosition(blockRegion.right, blockRegion.Width(), min, max-min, nowData);

  00022	8b 45 1c	 mov	 eax, DWORD PTR _max$[ebp]
  00025	f2 0f 10 10	 movsd	 xmm2, QWORD PTR [eax]
  00029	f2 0f 5c d3	 subsd	 xmm2, xmm3

; 1859 : 	if(length <= 0 || originLength == 0)

  0002d	66 0f 2e d0	 ucomisd xmm2, xmm0
  00031	9f		 lahf
  00032	f6 c4 44	 test	 ah, 68			; 00000044H
  00035	7b 41		 jnp	 SHORT $LN20@GetHorizon

; 1860 : 		return -1;
; 1861 : 
; 1862 : 	int ChangingLength = CMath::Round(length * ((nowData - originStartData) / originLength));

  00037	8b 45 20	 mov	 eax, DWORD PTR _nowData$[ebp]
  0003a	83 ec 08	 sub	 esp, 8
  0003d	66 0f 6e c1	 movd	 xmm0, ecx
  00041	f3 0f e6 c0	 cvtdq2pd xmm0, xmm0
  00045	f2 0f 10 08	 movsd	 xmm1, QWORD PTR [eax]
  00049	f2 0f 5c cb	 subsd	 xmm1, xmm3
  0004d	f2 0f 5e ca	 divsd	 xmm1, xmm2
  00051	f2 0f 59 c8	 mulsd	 xmm1, xmm0
  00055	f2 0f 11 0c 24	 movsd	 QWORD PTR [esp], xmm1
  0005a	e8 00 00 00 00	 call	 ?Round@CMath@@SAHN@Z	; CMath::Round
  0005f	83 c4 08	 add	 esp, 8

; 1863 : 	return (startPos - ChangingLength);

  00062	2b d8		 sub	 ebx, eax
  00064	89 5d fc	 mov	 DWORD PTR _x$1$[ebp], ebx

; 1712 : 	if(x < 0){

  00067	78 09		 js	 SHORT $LN23@GetHorizon

; 1718 : 	else
; 1719 : 		x = blockRegion.right - x + blockRegion.left; 

  00069	8b 1e		 mov	 ebx, DWORD PTR [esi]
  0006b	2b 5d fc	 sub	 ebx, DWORD PTR _x$1$[ebp]
  0006e	03 1f		 add	 ebx, DWORD PTR [edi]
  00070	eb 19		 jmp	 SHORT $LN3@GetHorizon
$LN23@GetHorizon:

; 1712 : 	if(x < 0){

  00072	8b 55 18	 mov	 edx, DWORD PTR _min$[ebp]
  00075	0f 57 c0	 xorps	 xmm0, xmm0
$LN20@GetHorizon:

; 1713 : 		if(max < 0 && min < 0)

  00078	8b 45 1c	 mov	 eax, DWORD PTR _max$[ebp]
  0007b	66 0f 2f 00	 comisd	 xmm0, QWORD PTR [eax]
  0007f	76 06		 jbe	 SHORT $LN4@GetHorizon
  00081	66 0f 2f 02	 comisd	 xmm0, QWORD PTR [edx]
  00085	77 02		 ja	 SHORT $LN5@GetHorizon
$LN4@GetHorizon:

; 1714 : 			x = blockRegion.right;
; 1715 : 		else
; 1716 : 			x = blockRegion.left;

  00087	8b fe		 mov	 edi, esi
$LN5@GetHorizon:

; 1717 : 	}

  00089	8b 1f		 mov	 ebx, DWORD PTR [edi]
$LN3@GetHorizon:

; 1720 : 
; 1721 : 	int y = GetChangingPosition(nIndex, blockRegion.top, realWidth, true);

  0008b	8b 46 04	 mov	 eax, DWORD PTR [esi+4]
  0008e	89 45 18	 mov	 DWORD PTR _startPos$1$[ebp], eax

; 1868 : 	if(nowIndex < 0)

  00091	8b 45 10	 mov	 eax, DWORD PTR _nIndex$[ebp]
  00094	85 c0		 test	 eax, eax
  00096	78 4d		 js	 SHORT $LN21@GetHorizon

; 1869 : 		return -1;
; 1870 : 
; 1871 : 	int nNowPos = CMath::Round(width * nowIndex);

  00098	8b 75 14	 mov	 esi, DWORD PTR _realWidth$[ebp]
  0009b	83 ec 08	 sub	 esp, 8
  0009e	66 0f 6e c0	 movd	 xmm0, eax
  000a2	f3 0f e6 c0	 cvtdq2pd xmm0, xmm0
  000a6	f2 0f 59 06	 mulsd	 xmm0, QWORD PTR [esi]
  000aa	f2 0f 11 04 24	 movsd	 QWORD PTR [esp], xmm0
  000af	e8 00 00 00 00	 call	 ?Round@CMath@@SAHN@Z	; CMath::Round

; 1872 : 	if(bCenter){
; 1873 : 		int nNextPos = CMath::Round(width * (nowIndex +1));

  000b4	8b 4d 10	 mov	 ecx, DWORD PTR _nIndex$[ebp]
  000b7	8b f8		 mov	 edi, eax
  000b9	41		 inc	 ecx
  000ba	66 0f 6e c1	 movd	 xmm0, ecx
  000be	f3 0f e6 c0	 cvtdq2pd xmm0, xmm0
  000c2	f2 0f 59 06	 mulsd	 xmm0, QWORD PTR [esi]
  000c6	f2 0f 11 04 24	 movsd	 QWORD PTR [esp], xmm0
  000cb	e8 00 00 00 00	 call	 ?Round@CMath@@SAHN@Z	; CMath::Round

; 1874 : 		// line     "". gap 3, 5   .
; 1875 : 		int nHalf = (nNextPos - nNowPos) / 2;

  000d0	2b c7		 sub	 eax, edi
  000d2	83 c4 08	 add	 esp, 8
  000d5	99		 cdq
  000d6	2b c2		 sub	 eax, edx
  000d8	d1 f8		 sar	 eax, 1

; 1876 : 		nNowPos += nHalf;

  000da	8d 0c 38	 lea	 ecx, DWORD PTR [eax+edi]

; 1877 : 	}
; 1878 : 
; 1879 : 	return (startPos + nNowPos);

  000dd	03 4d 18	 add	 ecx, DWORD PTR _startPos$1$[ebp]

; 1722 : 	if(y < 0)

  000e0	79 06		 jns	 SHORT $LN6@GetHorizon
  000e2	8b 75 0c	 mov	 esi, DWORD PTR _blockRegion$[ebp]
$LN21@GetHorizon:

; 1723 : 		y = blockRegion.top;

  000e5	8b 4e 04	 mov	 ecx, DWORD PTR [esi+4]
$LN6@GetHorizon:
; File C:\Program Files (x86)\Microsoft Visual Studio\2019\Community\VC\Tools\MSVC\14.29.30133\atlmfc\include\atltypes.h

; 408  : 	x = initX;

  000e8	8b 45 08	 mov	 eax, DWORD PTR ___$ReturnUdt$[ebp]
; File D:\git\src\IBK\IBK_DRFN\ProjSrc\SrcDrfn\Chart\chart_common\DataList\Conversion.cpp

; 1725 : 	return CPoint(x, y);

  000eb	5f		 pop	 edi
  000ec	5e		 pop	 esi
; File C:\Program Files (x86)\Microsoft Visual Studio\2019\Community\VC\Tools\MSVC\14.29.30133\atlmfc\include\atltypes.h

; 408  : 	x = initX;

  000ed	89 18		 mov	 DWORD PTR [eax], ebx

; 409  : 	y = initY;

  000ef	89 48 04	 mov	 DWORD PTR [eax+4], ecx
; File D:\git\src\IBK\IBK_DRFN\ProjSrc\SrcDrfn\Chart\chart_common\DataList\Conversion.cpp

; 1725 : 	return CPoint(x, y);

  000f2	5b		 pop	 ebx

; 1726 : }

  000f3	8b e5		 mov	 esp, ebp
  000f5	5d		 pop	 ebp
  000f6	c3		 ret	 0
?GetHorizontalPoint@CDataConversion@@SA?AVCPoint@@ABVCRect@@HABN111@Z ENDP ; CDataConversion::GetHorizontalPoint
_TEXT	ENDS
; Function compile flags: /Ogtp
; File D:\git\src\IBK\IBK_DRFN\ProjSrc\SrcDrfn\Chart\chart_common\DataList\Conversion.cpp
; File C:\Program Files (x86)\Microsoft Visual Studio\2019\Community\VC\Tools\MSVC\14.29.30133\atlmfc\include\atltypes.h
; File D:\git\src\IBK\IBK_DRFN\ProjSrc\SrcDrfn\Chart\chart_common\DataList\Conversion.cpp
; File C:\Program Files (x86)\Microsoft Visual Studio\2019\Community\VC\Tools\MSVC\14.29.30133\atlmfc\include\atltypes.h
; File D:\git\src\IBK\IBK_DRFN\ProjSrc\SrcDrfn\Chart\chart_common\DataList\Conversion.cpp
; File C:\Program Files (x86)\Microsoft Visual Studio\2019\Community\VC\Tools\MSVC\14.29.30133\atlmfc\include\atltypes.h
; File D:\git\src\IBK\IBK_DRFN\ProjSrc\SrcDrfn\Chart\chart_common\DataList\Conversion.cpp
; File C:\Program Files (x86)\Microsoft Visual Studio\2019\Community\VC\Tools\MSVC\14.29.30133\atlmfc\include\atltypes.h
; File D:\git\src\IBK\IBK_DRFN\ProjSrc\SrcDrfn\Chart\chart_common\DataList\Conversion.cpp
; File C:\Program Files (x86)\Microsoft Visual Studio\2019\Community\VC\Tools\MSVC\14.29.30133\atlmfc\include\atltypes.h
; File D:\git\src\IBK\IBK_DRFN\ProjSrc\SrcDrfn\Chart\chart_common\DataList\Conversion.cpp
; File C:\Program Files (x86)\Microsoft Visual Studio\2019\Community\VC\Tools\MSVC\14.29.30133\atlmfc\include\atltypes.h
; File D:\git\src\IBK\IBK_DRFN\ProjSrc\SrcDrfn\Chart\chart_common\DataList\Conversion.cpp
; File C:\Program Files (x86)\Microsoft Visual Studio\2019\Community\VC\Tools\MSVC\14.29.30133\atlmfc\include\atltypes.h
; File D:\git\src\IBK\IBK_DRFN\ProjSrc\SrcDrfn\Chart\chart_common\DataList\Conversion.cpp
; File C:\Program Files (x86)\Microsoft Visual Studio\2019\Community\VC\Tools\MSVC\14.29.30133\atlmfc\include\atltypes.h
; File D:\git\src\IBK\IBK_DRFN\ProjSrc\SrcDrfn\Chart\chart_common\DataList\Conversion.cpp
;	COMDAT ?GetVerticalPointBox@CDataConversion@@SA?AVCPoint@@ABVCRect@@HABN111_N@Z
_TEXT	SEGMENT
___$ReturnUdt$ = 8					; size = 4
_startPos$1$ = 12					; size = 4
_blockRegion$ = 12					; size = 4
_nIndex$ = 16						; size = 4
_realWidth$ = 20					; size = 4
_min$ = 24						; size = 4
_max$ = 28						; size = 4
_nowData$ = 32						; size = 4
_bCenter$ = 36						; size = 1
?GetVerticalPointBox@CDataConversion@@SA?AVCPoint@@ABVCRect@@HABN111_N@Z PROC ; CDataConversion::GetVerticalPointBox, COMDAT

; 1699 : {

  00000	55		 push	 ebp
  00001	8b ec		 mov	 ebp, esp
  00003	53		 push	 ebx
  00004	56		 push	 esi

; 1868 : 	if(nowIndex < 0)

  00005	8b 75 10	 mov	 esi, DWORD PTR _nIndex$[ebp]

; 1699 : {

  00008	57		 push	 edi

; 1700 : 	int x = GetChangingPosition(nIndex, blockRegion.left, realWidth, bCenter);

  00009	8b 7d 0c	 mov	 edi, DWORD PTR _blockRegion$[ebp]
  0000c	8b 07		 mov	 eax, DWORD PTR [edi]
  0000e	89 45 0c	 mov	 DWORD PTR _startPos$1$[ebp], eax

; 1868 : 	if(nowIndex < 0)

  00011	85 f6		 test	 esi, esi
  00013	79 05		 jns	 SHORT $LN4@GetVertica

; 1869 : 		return -1;

  00015	83 cb ff	 or	 ebx, -1
  00018	eb 55		 jmp	 SHORT $LN3@GetVertica
$LN4@GetVertica:

; 1870 : 
; 1871 : 	int nNowPos = CMath::Round(width * nowIndex);

  0001a	8b 45 14	 mov	 eax, DWORD PTR _realWidth$[ebp]
  0001d	83 ec 08	 sub	 esp, 8
  00020	66 0f 6e c6	 movd	 xmm0, esi
  00024	f3 0f e6 c0	 cvtdq2pd xmm0, xmm0
  00028	f2 0f 59 00	 mulsd	 xmm0, QWORD PTR [eax]
  0002c	f2 0f 11 04 24	 movsd	 QWORD PTR [esp], xmm0
  00031	e8 00 00 00 00	 call	 ?Round@CMath@@SAHN@Z	; CMath::Round
  00036	83 c4 08	 add	 esp, 8
  00039	8b d8		 mov	 ebx, eax

; 1872 : 	if(bCenter){

  0003b	80 7d 24 00	 cmp	 BYTE PTR _bCenter$[ebp], 0
  0003f	74 2b		 je	 SHORT $LN5@GetVertica

; 1873 : 		int nNextPos = CMath::Round(width * (nowIndex +1));

  00041	8b 45 14	 mov	 eax, DWORD PTR _realWidth$[ebp]
  00044	8d 4e 01	 lea	 ecx, DWORD PTR [esi+1]
  00047	66 0f 6e c1	 movd	 xmm0, ecx
  0004b	83 ec 08	 sub	 esp, 8
  0004e	f3 0f e6 c0	 cvtdq2pd xmm0, xmm0
  00052	f2 0f 59 00	 mulsd	 xmm0, QWORD PTR [eax]
  00056	f2 0f 11 04 24	 movsd	 QWORD PTR [esp], xmm0
  0005b	e8 00 00 00 00	 call	 ?Round@CMath@@SAHN@Z	; CMath::Round

; 1874 : 		// line     "". gap 3, 5   .
; 1875 : 		int nHalf = (nNextPos - nNowPos) / 2;

  00060	2b c3		 sub	 eax, ebx
  00062	83 c4 08	 add	 esp, 8
  00065	99		 cdq
  00066	2b c2		 sub	 eax, edx
  00068	d1 f8		 sar	 eax, 1

; 1876 : 		nNowPos += nHalf;

  0006a	03 d8		 add	 ebx, eax
$LN5@GetVertica:

; 1877 : 	}
; 1878 : 
; 1879 : 	return (startPos + nNowPos);

  0006c	03 5d 0c	 add	 ebx, DWORD PTR _startPos$1$[ebp]
$LN3@GetVertica:
; File C:\Program Files (x86)\Microsoft Visual Studio\2019\Community\VC\Tools\MSVC\14.29.30133\atlmfc\include\atltypes.h

; 581  : 	return bottom - top;

  0006f	8b 77 0c	 mov	 esi, DWORD PTR [edi+12]
  00072	8b ce		 mov	 ecx, esi
; File D:\git\src\IBK\IBK_DRFN\ProjSrc\SrcDrfn\Chart\chart_common\DataList\Conversion.cpp

; 1701 : 	int y = GetChangingPosition(blockRegion.bottom, blockRegion.Height(), min, max-min, nowData);

  00074	8b 45 18	 mov	 eax, DWORD PTR _min$[ebp]
; File C:\Program Files (x86)\Microsoft Visual Studio\2019\Community\VC\Tools\MSVC\14.29.30133\atlmfc\include\atltypes.h

; 581  : 	return bottom - top;

  00077	2b 4f 04	 sub	 ecx, DWORD PTR [edi+4]
; File D:\git\src\IBK\IBK_DRFN\ProjSrc\SrcDrfn\Chart\chart_common\DataList\Conversion.cpp

; 1701 : 	int y = GetChangingPosition(blockRegion.bottom, blockRegion.Height(), min, max-min, nowData);

  0007a	f2 0f 10 10	 movsd	 xmm2, QWORD PTR [eax]

; 1859 : 	if(length <= 0 || originLength == 0)

  0007e	85 c9		 test	 ecx, ecx
  00080	7e 53		 jle	 SHORT $LN11@GetVertica

; 1701 : 	int y = GetChangingPosition(blockRegion.bottom, blockRegion.Height(), min, max-min, nowData);

  00082	8b 45 1c	 mov	 eax, DWORD PTR _max$[ebp]
  00085	f2 0f 10 00	 movsd	 xmm0, QWORD PTR [eax]
  00089	f2 0f 5c c2	 subsd	 xmm0, xmm2

; 1859 : 	if(length <= 0 || originLength == 0)

  0008d	66 0f 2e 05 00
	00 00 00	 ucomisd xmm0, QWORD PTR __real@0000000000000000
  00095	9f		 lahf
  00096	f6 c4 44	 test	 ah, 68			; 00000044H
  00099	7b 3a		 jnp	 SHORT $LN11@GetVertica

; 1861 : 
; 1862 : 	int ChangingLength = CMath::Round(length * ((nowData - originStartData) / originLength));

  0009b	8b 45 20	 mov	 eax, DWORD PTR _nowData$[ebp]
  0009e	83 ec 08	 sub	 esp, 8
  000a1	f2 0f 10 08	 movsd	 xmm1, QWORD PTR [eax]
  000a5	f2 0f 5c ca	 subsd	 xmm1, xmm2
  000a9	f2 0f 5e c8	 divsd	 xmm1, xmm0
  000ad	66 0f 6e c1	 movd	 xmm0, ecx
  000b1	f3 0f e6 c0	 cvtdq2pd xmm0, xmm0
  000b5	f2 0f 59 c8	 mulsd	 xmm1, xmm0
  000b9	f2 0f 11 0c 24	 movsd	 QWORD PTR [esp], xmm1
  000be	e8 00 00 00 00	 call	 ?Round@CMath@@SAHN@Z	; CMath::Round
  000c3	83 c4 08	 add	 esp, 8

; 1863 : 	return (startPos - ChangingLength);

  000c6	2b f0		 sub	 esi, eax
; File C:\Program Files (x86)\Microsoft Visual Studio\2019\Community\VC\Tools\MSVC\14.29.30133\atlmfc\include\atltypes.h

; 408  : 	x = initX;

  000c8	8b 45 08	 mov	 eax, DWORD PTR ___$ReturnUdt$[ebp]
; File D:\git\src\IBK\IBK_DRFN\ProjSrc\SrcDrfn\Chart\chart_common\DataList\Conversion.cpp

; 1705 : 	return CPoint(x, y);

  000cb	5f		 pop	 edi
; File C:\Program Files (x86)\Microsoft Visual Studio\2019\Community\VC\Tools\MSVC\14.29.30133\atlmfc\include\atltypes.h

; 409  : 	y = initY;

  000cc	89 70 04	 mov	 DWORD PTR [eax+4], esi
; File D:\git\src\IBK\IBK_DRFN\ProjSrc\SrcDrfn\Chart\chart_common\DataList\Conversion.cpp

; 1705 : 	return CPoint(x, y);

  000cf	5e		 pop	 esi
; File C:\Program Files (x86)\Microsoft Visual Studio\2019\Community\VC\Tools\MSVC\14.29.30133\atlmfc\include\atltypes.h

; 408  : 	x = initX;

  000d0	89 18		 mov	 DWORD PTR [eax], ebx
; File D:\git\src\IBK\IBK_DRFN\ProjSrc\SrcDrfn\Chart\chart_common\DataList\Conversion.cpp

; 1705 : 	return CPoint(x, y);

  000d2	5b		 pop	 ebx

; 1706 : }

  000d3	5d		 pop	 ebp
  000d4	c3		 ret	 0
$LN11@GetVertica:
; File C:\Program Files (x86)\Microsoft Visual Studio\2019\Community\VC\Tools\MSVC\14.29.30133\atlmfc\include\atltypes.h

; 408  : 	x = initX;

  000d5	8b 45 08	 mov	 eax, DWORD PTR ___$ReturnUdt$[ebp]
; File D:\git\src\IBK\IBK_DRFN\ProjSrc\SrcDrfn\Chart\chart_common\DataList\Conversion.cpp

; 1860 : 		return -1;

  000d8	83 ce ff	 or	 esi, -1

; 1705 : 	return CPoint(x, y);

  000db	5f		 pop	 edi
; File C:\Program Files (x86)\Microsoft Visual Studio\2019\Community\VC\Tools\MSVC\14.29.30133\atlmfc\include\atltypes.h

; 409  : 	y = initY;

  000dc	89 70 04	 mov	 DWORD PTR [eax+4], esi
; File D:\git\src\IBK\IBK_DRFN\ProjSrc\SrcDrfn\Chart\chart_common\DataList\Conversion.cpp

; 1705 : 	return CPoint(x, y);

  000df	5e		 pop	 esi
; File C:\Program Files (x86)\Microsoft Visual Studio\2019\Community\VC\Tools\MSVC\14.29.30133\atlmfc\include\atltypes.h

; 408  : 	x = initX;

  000e0	89 18		 mov	 DWORD PTR [eax], ebx
; File D:\git\src\IBK\IBK_DRFN\ProjSrc\SrcDrfn\Chart\chart_common\DataList\Conversion.cpp

; 1705 : 	return CPoint(x, y);

  000e2	5b		 pop	 ebx

; 1706 : }

  000e3	5d		 pop	 ebp
  000e4	c3		 ret	 0
?GetVerticalPointBox@CDataConversion@@SA?AVCPoint@@ABVCRect@@HABN111_N@Z ENDP ; CDataConversion::GetVerticalPointBox
_TEXT	ENDS
; Function compile flags: /Ogtp
; File D:\git\src\IBK\IBK_DRFN\ProjSrc\SrcDrfn\Chart\chart_common\DataList\Conversion.cpp
; File C:\Program Files (x86)\Microsoft Visual Studio\2019\Community\VC\Tools\MSVC\14.29.30133\atlmfc\include\atltypes.h
; File D:\git\src\IBK\IBK_DRFN\ProjSrc\SrcDrfn\Chart\chart_common\DataList\Conversion.cpp
; File C:\Program Files (x86)\Microsoft Visual Studio\2019\Community\VC\Tools\MSVC\14.29.30133\atlmfc\include\atltypes.h
; File D:\git\src\IBK\IBK_DRFN\ProjSrc\SrcDrfn\Chart\chart_common\DataList\Conversion.cpp
; File C:\Program Files (x86)\Microsoft Visual Studio\2019\Community\VC\Tools\MSVC\14.29.30133\atlmfc\include\atltypes.h
; File D:\git\src\IBK\IBK_DRFN\ProjSrc\SrcDrfn\Chart\chart_common\DataList\Conversion.cpp
; File C:\Program Files (x86)\Microsoft Visual Studio\2019\Community\VC\Tools\MSVC\14.29.30133\atlmfc\include\atltypes.h
; File D:\git\src\IBK\IBK_DRFN\ProjSrc\SrcDrfn\Chart\chart_common\DataList\Conversion.cpp
; File C:\Program Files (x86)\Microsoft Visual Studio\2019\Community\VC\Tools\MSVC\14.29.30133\atlmfc\include\atltypes.h
; File D:\git\src\IBK\IBK_DRFN\ProjSrc\SrcDrfn\Chart\chart_common\DataList\Conversion.cpp
; File C:\Program Files (x86)\Microsoft Visual Studio\2019\Community\VC\Tools\MSVC\14.29.30133\atlmfc\include\atltypes.h
; File D:\git\src\IBK\IBK_DRFN\ProjSrc\SrcDrfn\Chart\chart_common\DataList\Conversion.cpp
; File C:\Program Files (x86)\Microsoft Visual Studio\2019\Community\VC\Tools\MSVC\14.29.30133\atlmfc\include\atltypes.h
; File D:\git\src\IBK\IBK_DRFN\ProjSrc\SrcDrfn\Chart\chart_common\DataList\Conversion.cpp
; File C:\Program Files (x86)\Microsoft Visual Studio\2019\Community\VC\Tools\MSVC\14.29.30133\atlmfc\include\atltypes.h
; File D:\git\src\IBK\IBK_DRFN\ProjSrc\SrcDrfn\Chart\chart_common\DataList\Conversion.cpp
; File C:\Program Files (x86)\Microsoft Visual Studio\2019\Community\VC\Tools\MSVC\14.29.30133\atlmfc\include\atltypes.h
; File D:\git\src\IBK\IBK_DRFN\ProjSrc\SrcDrfn\Chart\chart_common\DataList\Conversion.cpp
; File C:\Program Files (x86)\Microsoft Visual Studio\2019\Community\VC\Tools\MSVC\14.29.30133\atlmfc\include\atltypes.h
; File D:\git\src\IBK\IBK_DRFN\ProjSrc\SrcDrfn\Chart\chart_common\DataList\Conversion.cpp
;	COMDAT ?GetVerticalPoint@CDataConversion@@SA?AVCPoint@@ABVCRect@@ABN11111@Z
_TEXT	SEGMENT
___$ReturnUdt$ = 8					; size = 4
_blockRegion$ = 12					; size = 4
_yMin$ = 16						; size = 4
_yMax$ = 20						; size = 4
_xMin$ = 24						; size = 4
_xMax$ = 28						; size = 4
_nowYData$ = 32						; size = 4
_nowXData$ = 36						; size = 4
?GetVerticalPoint@CDataConversion@@SA?AVCPoint@@ABVCRect@@ABN11111@Z PROC ; CDataConversion::GetVerticalPoint, COMDAT

; 1684 : {

  00000	55		 push	 ebp
  00001	8b ec		 mov	 ebp, esp

; 1685 : 	int x = GetChangingPosition(blockRegion.right, blockRegion.Width(), xMin, xMax-xMin, nowXData);

  00003	8b 45 18	 mov	 eax, DWORD PTR _xMin$[ebp]
  00006	0f 57 c9	 xorps	 xmm1, xmm1
  00009	53		 push	 ebx
  0000a	56		 push	 esi
  0000b	57		 push	 edi
; File C:\Program Files (x86)\Microsoft Visual Studio\2019\Community\VC\Tools\MSVC\14.29.30133\atlmfc\include\atltypes.h

; 576  : 	return right - left;

  0000c	8b 7d 0c	 mov	 edi, DWORD PTR _blockRegion$[ebp]
; File D:\git\src\IBK\IBK_DRFN\ProjSrc\SrcDrfn\Chart\chart_common\DataList\Conversion.cpp

; 1685 : 	int x = GetChangingPosition(blockRegion.right, blockRegion.Width(), xMin, xMax-xMin, nowXData);

  0000f	f2 0f 10 10	 movsd	 xmm2, QWORD PTR [eax]
; File C:\Program Files (x86)\Microsoft Visual Studio\2019\Community\VC\Tools\MSVC\14.29.30133\atlmfc\include\atltypes.h

; 576  : 	return right - left;

  00013	8b 5f 08	 mov	 ebx, DWORD PTR [edi+8]
  00016	8b cb		 mov	 ecx, ebx
  00018	2b 0f		 sub	 ecx, DWORD PTR [edi]
; File D:\git\src\IBK\IBK_DRFN\ProjSrc\SrcDrfn\Chart\chart_common\DataList\Conversion.cpp

; 1859 : 	if(length <= 0 || originLength == 0)

  0001a	85 c9		 test	 ecx, ecx
  0001c	7e 4d		 jle	 SHORT $LN19@GetVertica

; 1685 : 	int x = GetChangingPosition(blockRegion.right, blockRegion.Width(), xMin, xMax-xMin, nowXData);

  0001e	8b 45 1c	 mov	 eax, DWORD PTR _xMax$[ebp]
  00021	f2 0f 10 00	 movsd	 xmm0, QWORD PTR [eax]
  00025	f2 0f 5c c2	 subsd	 xmm0, xmm2

; 1859 : 	if(length <= 0 || originLength == 0)

  00029	66 0f 2e c1	 ucomisd xmm0, xmm1
  0002d	9f		 lahf
  0002e	f6 c4 44	 test	 ah, 68			; 00000044H
  00031	7b 38		 jnp	 SHORT $LN19@GetVertica

; 1861 : 
; 1862 : 	int ChangingLength = CMath::Round(length * ((nowData - originStartData) / originLength));

  00033	8b 45 24	 mov	 eax, DWORD PTR _nowXData$[ebp]
  00036	83 ec 08	 sub	 esp, 8
  00039	f2 0f 10 08	 movsd	 xmm1, QWORD PTR [eax]
  0003d	f2 0f 5c ca	 subsd	 xmm1, xmm2
  00041	f2 0f 5e c8	 divsd	 xmm1, xmm0
  00045	66 0f 6e c1	 movd	 xmm0, ecx
  00049	f3 0f e6 c0	 cvtdq2pd xmm0, xmm0
  0004d	f2 0f 59 c8	 mulsd	 xmm1, xmm0
  00051	f2 0f 11 0c 24	 movsd	 QWORD PTR [esp], xmm1
  00056	e8 00 00 00 00	 call	 ?Round@CMath@@SAHN@Z	; CMath::Round
  0005b	83 c4 08	 add	 esp, 8

; 1863 : 	return (startPos - ChangingLength);

  0005e	2b d8		 sub	 ebx, eax

; 1686 : 	if(x < 0)

  00060	78 09		 js	 SHORT $LN19@GetVertica

; 1688 : 	else
; 1689 : 		x = blockRegion.right - x + blockRegion.left; 

  00062	8b 37		 mov	 esi, DWORD PTR [edi]
  00064	2b f3		 sub	 esi, ebx
  00066	03 77 08	 add	 esi, DWORD PTR [edi+8]
  00069	eb 02		 jmp	 SHORT $LN3@GetVertica
$LN19@GetVertica:

; 1687 : 		x = blockRegion.left;

  0006b	8b 37		 mov	 esi, DWORD PTR [edi]
$LN3@GetVertica:
; File C:\Program Files (x86)\Microsoft Visual Studio\2019\Community\VC\Tools\MSVC\14.29.30133\atlmfc\include\atltypes.h

; 581  : 	return bottom - top;

  0006d	8b 5f 0c	 mov	 ebx, DWORD PTR [edi+12]
  00070	8b cb		 mov	 ecx, ebx
; File D:\git\src\IBK\IBK_DRFN\ProjSrc\SrcDrfn\Chart\chart_common\DataList\Conversion.cpp

; 1691 : 	int y = GetChangingPosition(blockRegion.bottom, blockRegion.Height(), yMin, yMax-yMin, nowYData);

  00072	8b 45 10	 mov	 eax, DWORD PTR _yMin$[ebp]
; File C:\Program Files (x86)\Microsoft Visual Studio\2019\Community\VC\Tools\MSVC\14.29.30133\atlmfc\include\atltypes.h

; 581  : 	return bottom - top;

  00075	2b 4f 04	 sub	 ecx, DWORD PTR [edi+4]
; File D:\git\src\IBK\IBK_DRFN\ProjSrc\SrcDrfn\Chart\chart_common\DataList\Conversion.cpp

; 1691 : 	int y = GetChangingPosition(blockRegion.bottom, blockRegion.Height(), yMin, yMax-yMin, nowYData);

  00078	f2 0f 10 10	 movsd	 xmm2, QWORD PTR [eax]

; 1859 : 	if(length <= 0 || originLength == 0)

  0007c	85 c9		 test	 ecx, ecx
  0007e	7e 52		 jle	 SHORT $LN15@GetVertica

; 1691 : 	int y = GetChangingPosition(blockRegion.bottom, blockRegion.Height(), yMin, yMax-yMin, nowYData);

  00080	8b 45 14	 mov	 eax, DWORD PTR _yMax$[ebp]
  00083	0f 57 c9	 xorps	 xmm1, xmm1
  00086	f2 0f 10 00	 movsd	 xmm0, QWORD PTR [eax]
  0008a	f2 0f 5c c2	 subsd	 xmm0, xmm2

; 1859 : 	if(length <= 0 || originLength == 0)

  0008e	66 0f 2e c1	 ucomisd xmm0, xmm1
  00092	9f		 lahf
  00093	f6 c4 44	 test	 ah, 68			; 00000044H
  00096	7b 3a		 jnp	 SHORT $LN15@GetVertica

; 1861 : 
; 1862 : 	int ChangingLength = CMath::Round(length * ((nowData - originStartData) / originLength));

  00098	8b 45 20	 mov	 eax, DWORD PTR _nowYData$[ebp]
  0009b	83 ec 08	 sub	 esp, 8
  0009e	f2 0f 10 08	 movsd	 xmm1, QWORD PTR [eax]
  000a2	f2 0f 5c ca	 subsd	 xmm1, xmm2
  000a6	f2 0f 5e c8	 divsd	 xmm1, xmm0
  000aa	66 0f 6e c1	 movd	 xmm0, ecx
  000ae	f3 0f e6 c0	 cvtdq2pd xmm0, xmm0
  000b2	f2 0f 59 c8	 mulsd	 xmm1, xmm0
  000b6	f2 0f 11 0c 24	 movsd	 QWORD PTR [esp], xmm1
  000bb	e8 00 00 00 00	 call	 ?Round@CMath@@SAHN@Z	; CMath::Round
  000c0	83 c4 08	 add	 esp, 8

; 1863 : 	return (startPos - ChangingLength);

  000c3	2b d8		 sub	 ebx, eax
; File C:\Program Files (x86)\Microsoft Visual Studio\2019\Community\VC\Tools\MSVC\14.29.30133\atlmfc\include\atltypes.h

; 408  : 	x = initX;

  000c5	8b 45 08	 mov	 eax, DWORD PTR ___$ReturnUdt$[ebp]
; File D:\git\src\IBK\IBK_DRFN\ProjSrc\SrcDrfn\Chart\chart_common\DataList\Conversion.cpp

; 1695 : 	return CPoint(x, y);

  000c8	5f		 pop	 edi
; File C:\Program Files (x86)\Microsoft Visual Studio\2019\Community\VC\Tools\MSVC\14.29.30133\atlmfc\include\atltypes.h

; 408  : 	x = initX;

  000c9	89 30		 mov	 DWORD PTR [eax], esi
; File D:\git\src\IBK\IBK_DRFN\ProjSrc\SrcDrfn\Chart\chart_common\DataList\Conversion.cpp

; 1695 : 	return CPoint(x, y);

  000cb	5e		 pop	 esi
; File C:\Program Files (x86)\Microsoft Visual Studio\2019\Community\VC\Tools\MSVC\14.29.30133\atlmfc\include\atltypes.h

; 409  : 	y = initY;

  000cc	89 58 04	 mov	 DWORD PTR [eax+4], ebx
; File D:\git\src\IBK\IBK_DRFN\ProjSrc\SrcDrfn\Chart\chart_common\DataList\Conversion.cpp

; 1695 : 	return CPoint(x, y);

  000cf	5b		 pop	 ebx

; 1696 : }

  000d0	5d		 pop	 ebp
  000d1	c3		 ret	 0
$LN15@GetVertica:
; File C:\Program Files (x86)\Microsoft Visual Studio\2019\Community\VC\Tools\MSVC\14.29.30133\atlmfc\include\atltypes.h

; 408  : 	x = initX;

  000d2	8b 45 08	 mov	 eax, DWORD PTR ___$ReturnUdt$[ebp]
; File D:\git\src\IBK\IBK_DRFN\ProjSrc\SrcDrfn\Chart\chart_common\DataList\Conversion.cpp

; 1860 : 		return -1;

  000d5	83 cb ff	 or	 ebx, -1

; 1695 : 	return CPoint(x, y);

  000d8	5f		 pop	 edi
; File C:\Program Files (x86)\Microsoft Visual Studio\2019\Community\VC\Tools\MSVC\14.29.30133\atlmfc\include\atltypes.h

; 408  : 	x = initX;

  000d9	89 30		 mov	 DWORD PTR [eax], esi
; File D:\git\src\IBK\IBK_DRFN\ProjSrc\SrcDrfn\Chart\chart_common\DataList\Conversion.cpp

; 1695 : 	return CPoint(x, y);

  000db	5e		 pop	 esi
; File C:\Program Files (x86)\Microsoft Visual Studio\2019\Community\VC\Tools\MSVC\14.29.30133\atlmfc\include\atltypes.h

; 409  : 	y = initY;

  000dc	89 58 04	 mov	 DWORD PTR [eax+4], ebx
; File D:\git\src\IBK\IBK_DRFN\ProjSrc\SrcDrfn\Chart\chart_common\DataList\Conversion.cpp

; 1695 : 	return CPoint(x, y);

  000df	5b		 pop	 ebx

; 1696 : }

  000e0	5d		 pop	 ebp
  000e1	c3		 ret	 0
?GetVerticalPoint@CDataConversion@@SA?AVCPoint@@ABVCRect@@ABN11111@Z ENDP ; CDataConversion::GetVerticalPoint
_TEXT	ENDS
; Function compile flags: /Ogtp
; File D:\git\src\IBK\IBK_DRFN\ProjSrc\SrcDrfn\Chart\chart_common\DataList\Conversion.cpp
; File C:\Program Files (x86)\Microsoft Visual Studio\2019\Community\VC\Tools\MSVC\14.29.30133\atlmfc\include\atltypes.h
; File D:\git\src\IBK\IBK_DRFN\ProjSrc\SrcDrfn\Chart\chart_common\DataList\Conversion.cpp
; File C:\Program Files (x86)\Microsoft Visual Studio\2019\Community\VC\Tools\MSVC\14.29.30133\atlmfc\include\atltypes.h
; File D:\git\src\IBK\IBK_DRFN\ProjSrc\SrcDrfn\Chart\chart_common\DataList\Conversion.cpp
; File C:\Program Files (x86)\Microsoft Visual Studio\2019\Community\VC\Tools\MSVC\14.29.30133\atlmfc\include\atltypes.h
; File D:\git\src\IBK\IBK_DRFN\ProjSrc\SrcDrfn\Chart\chart_common\DataList\Conversion.cpp
; File C:\Program Files (x86)\Microsoft Visual Studio\2019\Community\VC\Tools\MSVC\14.29.30133\atlmfc\include\atltypes.h
; File D:\git\src\IBK\IBK_DRFN\ProjSrc\SrcDrfn\Chart\chart_common\DataList\Conversion.cpp
; File C:\Program Files (x86)\Microsoft Visual Studio\2019\Community\VC\Tools\MSVC\14.29.30133\atlmfc\include\atltypes.h
; File D:\git\src\IBK\IBK_DRFN\ProjSrc\SrcDrfn\Chart\chart_common\DataList\Conversion.cpp
; File C:\Program Files (x86)\Microsoft Visual Studio\2019\Community\VC\Tools\MSVC\14.29.30133\atlmfc\include\atltypes.h
; File D:\git\src\IBK\IBK_DRFN\ProjSrc\SrcDrfn\Chart\chart_common\DataList\Conversion.cpp
; File C:\Program Files (x86)\Microsoft Visual Studio\2019\Community\VC\Tools\MSVC\14.29.30133\atlmfc\include\atltypes.h
; File D:\git\src\IBK\IBK_DRFN\ProjSrc\SrcDrfn\Chart\chart_common\DataList\Conversion.cpp
;	COMDAT ?GetVerticalPoint@CDataConversion@@SA?AVCPoint@@ABVCRect@@HABN111_N@Z
_TEXT	SEGMENT
___$ReturnUdt$ = 8					; size = 4
_startPos$1$ = 12					; size = 4
_blockRegion$ = 12					; size = 4
_nIndex$ = 16						; size = 4
_realWidth$ = 20					; size = 4
_min$ = 24						; size = 4
_max$ = 28						; size = 4
_nowData$ = 32						; size = 4
_bCenter$ = 36						; size = 1
?GetVerticalPoint@CDataConversion@@SA?AVCPoint@@ABVCRect@@HABN111_N@Z PROC ; CDataConversion::GetVerticalPoint, COMDAT

; 1671 : {

  00000	55		 push	 ebp
  00001	8b ec		 mov	 ebp, esp
  00003	53		 push	 ebx
  00004	56		 push	 esi

; 1672 : 	int x = GetChangingPosition(nIndex, blockRegion.left, realWidth, bCenter);

  00005	8b 75 0c	 mov	 esi, DWORD PTR _blockRegion$[ebp]
  00008	57		 push	 edi

; 1868 : 	if(nowIndex < 0)

  00009	8b 7d 10	 mov	 edi, DWORD PTR _nIndex$[ebp]

; 1672 : 	int x = GetChangingPosition(nIndex, blockRegion.left, realWidth, bCenter);

  0000c	8b 06		 mov	 eax, DWORD PTR [esi]
  0000e	89 45 0c	 mov	 DWORD PTR _startPos$1$[ebp], eax

; 1868 : 	if(nowIndex < 0)

  00011	85 ff		 test	 edi, edi
  00013	78 57		 js	 SHORT $LN16@GetVertica

; 1869 : 		return -1;
; 1870 : 
; 1871 : 	int nNowPos = CMath::Round(width * nowIndex);

  00015	8b 45 14	 mov	 eax, DWORD PTR _realWidth$[ebp]
  00018	83 ec 08	 sub	 esp, 8
  0001b	66 0f 6e c7	 movd	 xmm0, edi
  0001f	f3 0f e6 c0	 cvtdq2pd xmm0, xmm0
  00023	f2 0f 59 00	 mulsd	 xmm0, QWORD PTR [eax]
  00027	f2 0f 11 04 24	 movsd	 QWORD PTR [esp], xmm0
  0002c	e8 00 00 00 00	 call	 ?Round@CMath@@SAHN@Z	; CMath::Round
  00031	83 c4 08	 add	 esp, 8
  00034	8b d8		 mov	 ebx, eax

; 1872 : 	if(bCenter){

  00036	80 7d 24 00	 cmp	 BYTE PTR _bCenter$[ebp], 0
  0003a	74 2b		 je	 SHORT $LN6@GetVertica

; 1873 : 		int nNextPos = CMath::Round(width * (nowIndex +1));

  0003c	8b 45 14	 mov	 eax, DWORD PTR _realWidth$[ebp]
  0003f	8d 4f 01	 lea	 ecx, DWORD PTR [edi+1]
  00042	66 0f 6e c1	 movd	 xmm0, ecx
  00046	83 ec 08	 sub	 esp, 8
  00049	f3 0f e6 c0	 cvtdq2pd xmm0, xmm0
  0004d	f2 0f 59 00	 mulsd	 xmm0, QWORD PTR [eax]
  00051	f2 0f 11 04 24	 movsd	 QWORD PTR [esp], xmm0
  00056	e8 00 00 00 00	 call	 ?Round@CMath@@SAHN@Z	; CMath::Round

; 1874 : 		// line     "". gap 3, 5   .
; 1875 : 		int nHalf = (nNextPos - nNowPos) / 2;

  0005b	2b c3		 sub	 eax, ebx
  0005d	83 c4 08	 add	 esp, 8
  00060	99		 cdq
  00061	2b c2		 sub	 eax, edx
  00063	d1 f8		 sar	 eax, 1

; 1876 : 		nNowPos += nHalf;

  00065	03 d8		 add	 ebx, eax
$LN6@GetVertica:

; 1877 : 	}
; 1878 : 
; 1879 : 	return (startPos + nNowPos);

  00067	03 5d 0c	 add	 ebx, DWORD PTR _startPos$1$[ebp]

; 1673 : 	if(x < 0)

  0006a	79 02		 jns	 SHORT $LN2@GetVertica
$LN16@GetVertica:

; 1674 : 		x = blockRegion.left;

  0006c	8b 1e		 mov	 ebx, DWORD PTR [esi]
$LN2@GetVertica:
; File C:\Program Files (x86)\Microsoft Visual Studio\2019\Community\VC\Tools\MSVC\14.29.30133\atlmfc\include\atltypes.h

; 581  : 	return bottom - top;

  0006e	8b 7e 0c	 mov	 edi, DWORD PTR [esi+12]
  00071	8b cf		 mov	 ecx, edi
; File D:\git\src\IBK\IBK_DRFN\ProjSrc\SrcDrfn\Chart\chart_common\DataList\Conversion.cpp

; 1676 : 	int y = GetChangingPosition(blockRegion.bottom, blockRegion.Height(), min, max-min, nowData);

  00073	8b 45 18	 mov	 eax, DWORD PTR _min$[ebp]
; File C:\Program Files (x86)\Microsoft Visual Studio\2019\Community\VC\Tools\MSVC\14.29.30133\atlmfc\include\atltypes.h

; 581  : 	return bottom - top;

  00076	2b 4e 04	 sub	 ecx, DWORD PTR [esi+4]
; File D:\git\src\IBK\IBK_DRFN\ProjSrc\SrcDrfn\Chart\chart_common\DataList\Conversion.cpp

; 1676 : 	int y = GetChangingPosition(blockRegion.bottom, blockRegion.Height(), min, max-min, nowData);

  00079	f2 0f 10 10	 movsd	 xmm2, QWORD PTR [eax]

; 1859 : 	if(length <= 0 || originLength == 0)

  0007d	85 c9		 test	 ecx, ecx
  0007f	7e 53		 jle	 SHORT $LN12@GetVertica

; 1676 : 	int y = GetChangingPosition(blockRegion.bottom, blockRegion.Height(), min, max-min, nowData);

  00081	8b 45 1c	 mov	 eax, DWORD PTR _max$[ebp]
  00084	f2 0f 10 00	 movsd	 xmm0, QWORD PTR [eax]
  00088	f2 0f 5c c2	 subsd	 xmm0, xmm2

; 1859 : 	if(length <= 0 || originLength == 0)

  0008c	66 0f 2e 05 00
	00 00 00	 ucomisd xmm0, QWORD PTR __real@0000000000000000
  00094	9f		 lahf
  00095	f6 c4 44	 test	 ah, 68			; 00000044H
  00098	7b 3a		 jnp	 SHORT $LN12@GetVertica

; 1861 : 
; 1862 : 	int ChangingLength = CMath::Round(length * ((nowData - originStartData) / originLength));

  0009a	8b 45 20	 mov	 eax, DWORD PTR _nowData$[ebp]
  0009d	83 ec 08	 sub	 esp, 8
  000a0	f2 0f 10 08	 movsd	 xmm1, QWORD PTR [eax]
  000a4	f2 0f 5c ca	 subsd	 xmm1, xmm2
  000a8	f2 0f 5e c8	 divsd	 xmm1, xmm0
  000ac	66 0f 6e c1	 movd	 xmm0, ecx
  000b0	f3 0f e6 c0	 cvtdq2pd xmm0, xmm0
  000b4	f2 0f 59 c8	 mulsd	 xmm1, xmm0
  000b8	f2 0f 11 0c 24	 movsd	 QWORD PTR [esp], xmm1
  000bd	e8 00 00 00 00	 call	 ?Round@CMath@@SAHN@Z	; CMath::Round
  000c2	83 c4 08	 add	 esp, 8

; 1863 : 	return (startPos - ChangingLength);

  000c5	2b f8		 sub	 edi, eax
; File C:\Program Files (x86)\Microsoft Visual Studio\2019\Community\VC\Tools\MSVC\14.29.30133\atlmfc\include\atltypes.h

; 408  : 	x = initX;

  000c7	8b 45 08	 mov	 eax, DWORD PTR ___$ReturnUdt$[ebp]

; 409  : 	y = initY;

  000ca	89 78 04	 mov	 DWORD PTR [eax+4], edi
; File D:\git\src\IBK\IBK_DRFN\ProjSrc\SrcDrfn\Chart\chart_common\DataList\Conversion.cpp

; 1680 : 	return CPoint(x, y);

  000cd	5f		 pop	 edi
  000ce	5e		 pop	 esi
; File C:\Program Files (x86)\Microsoft Visual Studio\2019\Community\VC\Tools\MSVC\14.29.30133\atlmfc\include\atltypes.h

; 408  : 	x = initX;

  000cf	89 18		 mov	 DWORD PTR [eax], ebx
; File D:\git\src\IBK\IBK_DRFN\ProjSrc\SrcDrfn\Chart\chart_common\DataList\Conversion.cpp

; 1680 : 	return CPoint(x, y);

  000d1	5b		 pop	 ebx

; 1681 : }

  000d2	5d		 pop	 ebp
  000d3	c3		 ret	 0
$LN12@GetVertica:
; File C:\Program Files (x86)\Microsoft Visual Studio\2019\Community\VC\Tools\MSVC\14.29.30133\atlmfc\include\atltypes.h

; 408  : 	x = initX;

  000d4	8b 45 08	 mov	 eax, DWORD PTR ___$ReturnUdt$[ebp]
; File D:\git\src\IBK\IBK_DRFN\ProjSrc\SrcDrfn\Chart\chart_common\DataList\Conversion.cpp

; 1860 : 		return -1;

  000d7	83 cf ff	 or	 edi, -1
; File C:\Program Files (x86)\Microsoft Visual Studio\2019\Community\VC\Tools\MSVC\14.29.30133\atlmfc\include\atltypes.h

; 409  : 	y = initY;

  000da	89 78 04	 mov	 DWORD PTR [eax+4], edi
; File D:\git\src\IBK\IBK_DRFN\ProjSrc\SrcDrfn\Chart\chart_common\DataList\Conversion.cpp

; 1680 : 	return CPoint(x, y);

  000dd	5f		 pop	 edi
  000de	5e		 pop	 esi
; File C:\Program Files (x86)\Microsoft Visual Studio\2019\Community\VC\Tools\MSVC\14.29.30133\atlmfc\include\atltypes.h

; 408  : 	x = initX;

  000df	89 18		 mov	 DWORD PTR [eax], ebx
; File D:\git\src\IBK\IBK_DRFN\ProjSrc\SrcDrfn\Chart\chart_common\DataList\Conversion.cpp

; 1680 : 	return CPoint(x, y);

  000e1	5b		 pop	 ebx

; 1681 : }

  000e2	5d		 pop	 ebp
  000e3	c3		 ret	 0
?GetVerticalPoint@CDataConversion@@SA?AVCPoint@@ABVCRect@@HABN111_N@Z ENDP ; CDataConversion::GetVerticalPoint
_TEXT	ENDS
; Function compile flags: /Ogtp
; File D:\git\src\IBK\IBK_DRFN\ProjSrc\SrcDrfn\Chart\chart_common\DataList\Conversion.cpp
;	COMDAT ?SelectClipRegion@CDataConversion@@SAXPAVCDC@@@Z
_TEXT	SEGMENT
_pDC$ = 8						; size = 4
?SelectClipRegion@CDataConversion@@SAXPAVCDC@@@Z PROC	; CDataConversion::SelectClipRegion, COMDAT

; 1663 : {

  00000	55		 push	 ebp
  00001	8b ec		 mov	 ebp, esp

; 1664 : 	pDC->SelectClipRgn(NULL);

  00003	8b 4d 08	 mov	 ecx, DWORD PTR _pDC$[ebp]
  00006	6a 00		 push	 0
  00008	e8 00 00 00 00	 call	 ?SelectClipRgn@CDC@@QAEHPAVCRgn@@@Z ; CDC::SelectClipRgn

; 1665 : }

  0000d	5d		 pop	 ebp
  0000e	c3		 ret	 0
?SelectClipRegion@CDataConversion@@SAXPAVCDC@@@Z ENDP	; CDataConversion::SelectClipRegion
_TEXT	ENDS
; Function compile flags: /Ogtp
; File D:\git\src\IBK\IBK_DRFN\ProjSrc\SrcDrfn\Chart\chart_common\DataList\Conversion.cpp
; File C:\Program Files (x86)\Microsoft Visual Studio\2019\Community\VC\Tools\MSVC\14.29.30133\atlmfc\include\afxwin1.inl
; File D:\git\src\IBK\IBK_DRFN\ProjSrc\SrcDrfn\Chart\chart_common\DataList\Conversion.cpp
; File C:\Program Files (x86)\Microsoft Visual Studio\2019\Community\VC\Tools\MSVC\14.29.30133\atlmfc\include\afxwin1.inl
; File D:\git\src\IBK\IBK_DRFN\ProjSrc\SrcDrfn\Chart\chart_common\DataList\Conversion.cpp
; File C:\Program Files (x86)\Microsoft Visual Studio\2019\Community\VC\Tools\MSVC\14.29.30133\atlmfc\include\afxwin1.inl
; File D:\git\src\IBK\IBK_DRFN\ProjSrc\SrcDrfn\Chart\chart_common\DataList\Conversion.cpp
;	COMDAT ?SelectClipRegion@CDataConversion@@SAXPAVCDC@@ABVCRect@@@Z
_TEXT	SEGMENT
_rgn$ = -20						; size = 8
__$EHRec$ = -12						; size = 12
_pDC$ = 8						; size = 4
_rect$ = 12						; size = 4
?SelectClipRegion@CDataConversion@@SAXPAVCDC@@ABVCRect@@@Z PROC ; CDataConversion::SelectClipRegion, COMDAT

; 1655 : {

  00000	55		 push	 ebp
  00001	8b ec		 mov	 ebp, esp
  00003	6a ff		 push	 -1
  00005	68 00 00 00 00	 push	 __ehhandler$?SelectClipRegion@CDataConversion@@SAXPAVCDC@@ABVCRect@@@Z
  0000a	64 a1 00 00 00
	00		 mov	 eax, DWORD PTR fs:0
  00010	50		 push	 eax
  00011	83 ec 08	 sub	 esp, 8
  00014	a1 00 00 00 00	 mov	 eax, DWORD PTR ___security_cookie
  00019	33 c5		 xor	 eax, ebp
  0001b	50		 push	 eax
  0001c	8d 45 f4	 lea	 eax, DWORD PTR __$EHRec$[ebp]
  0001f	64 a3 00 00 00
	00		 mov	 DWORD PTR fs:0, eax
; File C:\Program Files (x86)\Microsoft Visual Studio\2019\Community\VC\Tools\MSVC\14.29.30133\atlmfc\include\afxwin1.inl

; 70   : 	{ m_hObject = NULL; }

  00025	c7 45 f0 00 00
	00 00		 mov	 DWORD PTR _rgn$[ebp+4], 0

; 264  : 	{ }

  0002c	c7 45 ec 00 00
	00 00		 mov	 DWORD PTR _rgn$[ebp], OFFSET ??_7CRgn@@6B@
; File D:\git\src\IBK\IBK_DRFN\ProjSrc\SrcDrfn\Chart\chart_common\DataList\Conversion.cpp

; 1657 : 	rgn.CreateRectRgn((int)rect.left, (int)rect.top, (int)rect.right, (int)rect.bottom+1);

  00033	8b 45 0c	 mov	 eax, DWORD PTR _rect$[ebp]
  00036	c7 45 fc 00 00
	00 00		 mov	 DWORD PTR __$EHRec$[ebp+8], 0
  0003d	8b 48 0c	 mov	 ecx, DWORD PTR [eax+12]
  00040	41		 inc	 ecx
; File C:\Program Files (x86)\Microsoft Visual Studio\2019\Community\VC\Tools\MSVC\14.29.30133\atlmfc\include\afxwin1.inl

; 268  : 	{ return Attach(::CreateRectRgn(x1, y1, x2, y2)); }

  00041	51		 push	 ecx
  00042	ff 70 08	 push	 DWORD PTR [eax+8]
  00045	ff 70 04	 push	 DWORD PTR [eax+4]
  00048	ff 30		 push	 DWORD PTR [eax]
  0004a	ff 15 00 00 00
	00		 call	 DWORD PTR __imp__CreateRectRgn@16
  00050	50		 push	 eax
  00051	8d 4d ec	 lea	 ecx, DWORD PTR _rgn$[ebp]
  00054	e8 00 00 00 00	 call	 ?Attach@CGdiObject@@QAEHPAX@Z ; CGdiObject::Attach
; File D:\git\src\IBK\IBK_DRFN\ProjSrc\SrcDrfn\Chart\chart_common\DataList\Conversion.cpp

; 1658 : 	pDC->SelectClipRgn(&rgn);

  00059	8b 4d 08	 mov	 ecx, DWORD PTR _pDC$[ebp]
  0005c	8d 45 ec	 lea	 eax, DWORD PTR _rgn$[ebp]
  0005f	50		 push	 eax
  00060	e8 00 00 00 00	 call	 ?SelectClipRgn@CDC@@QAEHPAVCRgn@@@Z ; CDC::SelectClipRgn
; File C:\Program Files (x86)\Microsoft Visual Studio\2019\Community\VC\Tools\MSVC\14.29.30133\atlmfc\include\afxwin1.inl

; 266  : 	{ }

  00065	8d 4d ec	 lea	 ecx, DWORD PTR _rgn$[ebp]
  00068	c7 45 ec 00 00
	00 00		 mov	 DWORD PTR _rgn$[ebp], OFFSET ??_7CRgn@@6B@
  0006f	e8 00 00 00 00	 call	 ??1CGdiObject@@UAE@XZ	; CGdiObject::~CGdiObject
; File D:\git\src\IBK\IBK_DRFN\ProjSrc\SrcDrfn\Chart\chart_common\DataList\Conversion.cpp

; 1659 : }

  00074	8b 4d f4	 mov	 ecx, DWORD PTR __$EHRec$[ebp]
  00077	64 89 0d 00 00
	00 00		 mov	 DWORD PTR fs:0, ecx
  0007e	59		 pop	 ecx
  0007f	8b e5		 mov	 esp, ebp
  00081	5d		 pop	 ebp
  00082	c3		 ret	 0
_TEXT	ENDS
;	COMDAT text$x
text$x	SEGMENT
__unwindfunclet$?SelectClipRegion@CDataConversion@@SAXPAVCDC@@ABVCRect@@@Z$0:
  00000	8d 4d ec	 lea	 ecx, DWORD PTR _rgn$[ebp]
  00003	e9 00 00 00 00	 jmp	 ??1CRgn@@UAE@XZ		; CRgn::~CRgn
  00008	cc		 int	 3
  00009	cc		 int	 3
  0000a	cc		 int	 3
  0000b	cc		 int	 3
  0000c	cc		 int	 3
__ehhandler$?SelectClipRegion@CDataConversion@@SAXPAVCDC@@ABVCRect@@@Z:
  0000d	90		 npad	 1
  0000e	90		 npad	 1
  0000f	8b 54 24 08	 mov	 edx, DWORD PTR [esp+8]
  00013	8d 42 0c	 lea	 eax, DWORD PTR [edx+12]
  00016	8b 4a f4	 mov	 ecx, DWORD PTR [edx-12]
  00019	33 c8		 xor	 ecx, eax
  0001b	e8 00 00 00 00	 call	 @__security_check_cookie@4
  00020	b8 00 00 00 00	 mov	 eax, OFFSET __ehfuncinfo$?SelectClipRegion@CDataConversion@@SAXPAVCDC@@ABVCRect@@@Z
  00025	e9 00 00 00 00	 jmp	 ___CxxFrameHandler3
text$x	ENDS
?SelectClipRegion@CDataConversion@@SAXPAVCDC@@ABVCRect@@@Z ENDP ; CDataConversion::SelectClipRegion
; Function compile flags: /Ogtp
; File D:\git\src\IBK\IBK_DRFN\ProjSrc\SrcDrfn\Chart\chart_common\DataList\Conversion.cpp
; File C:\Program Files (x86)\Microsoft Visual Studio\2019\Community\VC\Tools\MSVC\14.29.30133\atlmfc\include\cstringt.h
; File D:\git\src\IBK\IBK_DRFN\ProjSrc\SrcDrfn\Chart\chart_common\DataList\Conversion.cpp
; File C:\Program Files (x86)\Microsoft Visual Studio\2019\Community\VC\Tools\MSVC\14.29.30133\atlmfc\include\cstringt.h
; File C:\Program Files (x86)\Microsoft Visual Studio\2019\Community\VC\Tools\MSVC\14.29.30133\atlmfc\include\atlsimpstr.h
; File C:\Program Files (x86)\Microsoft Visual Studio\2019\Community\VC\Tools\MSVC\14.29.30133\atlmfc\include\cstringt.h
; File D:\git\src\IBK\IBK_DRFN\ProjSrc\SrcDrfn\Chart\chart_common\DataList\Conversion.cpp
;	COMDAT ?InsertString@CDataConversion@@SA?AV?$CStringT@DV?$StrTraitMFC_DLL@DV?$ChTraitsCRT@D@ATL@@@@@ATL@@ABV23@0HH@Z
_TEXT	SEGMENT
$T2 = -24						; size = 4
$T3 = -20						; size = 4
_szData$ = -16						; size = 4
__$EHRec$ = -12						; size = 12
___$ReturnUdt$ = 8					; size = 4
_strData$ = 12						; size = 4
_strInsert$ = 16					; size = 4
_szInsert$ = 20						; size = 4
_nInsertLength$ = 20					; size = 4
_nInsertType$ = 24					; size = 4
?InsertString@CDataConversion@@SA?AV?$CStringT@DV?$StrTraitMFC_DLL@DV?$ChTraitsCRT@D@ATL@@@@@ATL@@ABV23@0HH@Z PROC ; CDataConversion::InsertString, COMDAT

; 1312 : {

  00000	55		 push	 ebp
  00001	8b ec		 mov	 ebp, esp
  00003	6a ff		 push	 -1
  00005	68 00 00 00 00	 push	 __ehhandler$?InsertString@CDataConversion@@SA?AV?$CStringT@DV?$StrTraitMFC_DLL@DV?$ChTraitsCRT@D@ATL@@@@@ATL@@ABV23@0HH@Z
  0000a	64 a1 00 00 00
	00		 mov	 eax, DWORD PTR fs:0
  00010	50		 push	 eax
  00011	83 ec 0c	 sub	 esp, 12			; 0000000cH
  00014	56		 push	 esi
  00015	57		 push	 edi
  00016	a1 00 00 00 00	 mov	 eax, DWORD PTR ___security_cookie
  0001b	33 c5		 xor	 eax, ebp
  0001d	50		 push	 eax
  0001e	8d 45 f4	 lea	 eax, DWORD PTR __$EHRec$[ebp]
  00021	64 a3 00 00 00
	00		 mov	 DWORD PTR fs:0, eax

; 1313 : 	if(nInsertLength <= 0)

  00027	ff 75 0c	 push	 DWORD PTR _strData$[ebp]
  0002a	c7 45 e8 00 00
	00 00		 mov	 DWORD PTR $T2[ebp], 0
  00031	8b 75 14	 mov	 esi, DWORD PTR _nInsertLength$[ebp]
  00034	85 f6		 test	 esi, esi
  00036	7f 1d		 jg	 SHORT $LN5@InsertStri

; 1314 : 		return strData;

  00038	8b 4d 08	 mov	 ecx, DWORD PTR ___$ReturnUdt$[ebp]
  0003b	ff 15 00 00 00
	00		 call	 DWORD PTR __imp_??0?$CStringT@DV?$StrTraitMFC_DLL@DV?$ChTraitsCRT@D@ATL@@@@@ATL@@QAE@ABV01@@Z

; 1328 : }

  00041	8b 45 08	 mov	 eax, DWORD PTR ___$ReturnUdt$[ebp]
  00044	8b 4d f4	 mov	 ecx, DWORD PTR __$EHRec$[ebp]
  00047	64 89 0d 00 00
	00 00		 mov	 DWORD PTR fs:0, ecx
  0004e	59		 pop	 ecx
  0004f	5f		 pop	 edi
  00050	5e		 pop	 esi
  00051	8b e5		 mov	 esp, ebp
  00053	5d		 pop	 ebp
  00054	c3		 ret	 0
$LN5@InsertStri:

; 1315 : 	CString szData = strData, szInsert;

  00055	8d 4d f0	 lea	 ecx, DWORD PTR _szData$[ebp]
  00058	ff 15 00 00 00
	00		 call	 DWORD PTR __imp_??0?$CStringT@DV?$StrTraitMFC_DLL@DV?$ChTraitsCRT@D@ATL@@@@@ATL@@QAE@ABV01@@Z
  0005e	8d 4d 14	 lea	 ecx, DWORD PTR _szInsert$[ebp]
  00061	c7 45 fc 00 00
	00 00		 mov	 DWORD PTR __$EHRec$[ebp+8], 0
  00068	ff 15 00 00 00
	00		 call	 DWORD PTR __imp_??0?$CStringT@DV?$StrTraitMFC_DLL@DV?$ChTraitsCRT@D@ATL@@@@@ATL@@QAE@XZ
  0006e	8b 7d 10	 mov	 edi, DWORD PTR _strInsert$[ebp]
  00071	c6 45 fc 01	 mov	 BYTE PTR __$EHRec$[ebp+8], 1
$LL4@InsertStri:

; 1316 : 
; 1317 : 	for(int i = 0 ; i < nInsertLength ; i++)	{
; 1318 : 		szInsert += strInsert;

  00075	57		 push	 edi
  00076	8d 4d 14	 lea	 ecx, DWORD PTR _szInsert$[ebp]
  00079	ff 15 00 00 00
	00		 call	 DWORD PTR __imp_??Y?$CStringT@DV?$StrTraitMFC_DLL@DV?$ChTraitsCRT@D@ATL@@@@@ATL@@QAEAAV01@ABV?$CSimpleStringT@D$00@1@@Z
  0007f	83 ee 01	 sub	 esi, 1
  00082	75 f1		 jne	 SHORT $LL4@InsertStri

; 1319 : 	}
; 1320 : 	if(nInsertType == 0)	{

  00084	8b 45 18	 mov	 eax, DWORD PTR _nInsertType$[ebp]
  00087	85 c0		 test	 eax, eax
  00089	75 55		 jne	 SHORT $LN6@InsertStri
; File C:\Program Files (x86)\Microsoft Visual Studio\2019\Community\VC\Tools\MSVC\14.29.30133\atlmfc\include\cstringt.h

; 2390 : 		CStringT strResult( str1.GetManager() );

  0008b	8d 4d 14	 lea	 ecx, DWORD PTR _szInsert$[ebp]
; File D:\git\src\IBK\IBK_DRFN\ProjSrc\SrcDrfn\Chart\chart_common\DataList\Conversion.cpp

; 1321 : 		szData = szInsert + szData;

  0008e	c6 45 fc 02	 mov	 BYTE PTR __$EHRec$[ebp+8], 2
; File C:\Program Files (x86)\Microsoft Visual Studio\2019\Community\VC\Tools\MSVC\14.29.30133\atlmfc\include\cstringt.h

; 2390 : 		CStringT strResult( str1.GetManager() );

  00092	ff 15 00 00 00
	00		 call	 DWORD PTR __imp_?GetManager@?$CStringT@DV?$StrTraitMFC_DLL@DV?$ChTraitsCRT@D@ATL@@@@@ATL@@QBEPAUIAtlStringMgr@2@XZ
  00098	50		 push	 eax
  00099	8d 4d ec	 lea	 ecx, DWORD PTR $T3[ebp]
  0009c	ff 15 00 00 00
	00		 call	 DWORD PTR __imp_??0?$CStringT@DV?$StrTraitMFC_DLL@DV?$ChTraitsCRT@D@ATL@@@@@ATL@@QAE@PAUIAtlStringMgr@1@@Z
; File C:\Program Files (x86)\Microsoft Visual Studio\2019\Community\VC\Tools\MSVC\14.29.30133\atlmfc\include\atlsimpstr.h

; 519  : 		return( GetData()->nDataLength );

  000a2	8b 45 f0	 mov	 eax, DWORD PTR _szData$[ebp]
  000a5	8b 4d 14	 mov	 ecx, DWORD PTR _szInsert$[ebp]
; File C:\Program Files (x86)\Microsoft Visual Studio\2019\Community\VC\Tools\MSVC\14.29.30133\atlmfc\include\cstringt.h

; 2394 : 		return( strResult );

  000a8	c7 45 e8 02 00
	00 00		 mov	 DWORD PTR $T2[ebp], 2
  000af	ff 70 f4	 push	 DWORD PTR [eax-12]
  000b2	50		 push	 eax
  000b3	ff 71 f4	 push	 DWORD PTR [ecx-12]
  000b6	8d 45 ec	 lea	 eax, DWORD PTR $T3[ebp]
  000b9	51		 push	 ecx
  000ba	50		 push	 eax
  000bb	ff 15 00 00 00
	00		 call	 DWORD PTR __imp_?Concatenate@?$CSimpleStringT@D$00@ATL@@KAXAAV12@PBDH1H@Z
  000c1	83 c4 14	 add	 esp, 20			; 00000014H
; File D:\git\src\IBK\IBK_DRFN\ProjSrc\SrcDrfn\Chart\chart_common\DataList\Conversion.cpp

; 1321 : 		szData = szInsert + szData;

  000c4	8d 45 ec	 lea	 eax, DWORD PTR $T3[ebp]
  000c7	8d 4d f0	 lea	 ecx, DWORD PTR _szData$[ebp]
  000ca	50		 push	 eax
  000cb	ff 15 00 00 00
	00		 call	 DWORD PTR __imp_??4?$CStringT@DV?$StrTraitMFC_DLL@DV?$ChTraitsCRT@D@ATL@@@@@ATL@@QAEAAV01@ABV01@@Z
  000d1	8d 4d ec	 lea	 ecx, DWORD PTR $T3[ebp]
  000d4	c6 45 fc 01	 mov	 BYTE PTR __$EHRec$[ebp+8], 1
  000d8	ff 15 00 00 00
	00		 call	 DWORD PTR __imp_??1?$CStringT@DV?$StrTraitMFC_DLL@DV?$ChTraitsCRT@D@ATL@@@@@ATL@@QAE@XZ

; 1322 : 	}

  000de	eb 12		 jmp	 SHORT $LN8@InsertStri
$LN6@InsertStri:

; 1323 : 	else if(nInsertType == 1)	{

  000e0	83 f8 01	 cmp	 eax, 1
  000e3	75 0d		 jne	 SHORT $LN8@InsertStri

; 1324 : 		szData += szInsert;

  000e5	8d 45 14	 lea	 eax, DWORD PTR _szInsert$[ebp]
  000e8	50		 push	 eax
  000e9	8d 4d f0	 lea	 ecx, DWORD PTR _szData$[ebp]
  000ec	ff 15 00 00 00
	00		 call	 DWORD PTR __imp_??Y?$CStringT@DV?$StrTraitMFC_DLL@DV?$ChTraitsCRT@D@ATL@@@@@ATL@@QAEAAV01@ABV?$CSimpleStringT@D$00@1@@Z
$LN8@InsertStri:

; 1325 : 	}
; 1326 : 
; 1327 : 	return szData;

  000f2	8b 4d 08	 mov	 ecx, DWORD PTR ___$ReturnUdt$[ebp]
  000f5	8d 45 f0	 lea	 eax, DWORD PTR _szData$[ebp]
  000f8	50		 push	 eax
  000f9	ff 15 00 00 00
	00		 call	 DWORD PTR __imp_??0?$CStringT@DV?$StrTraitMFC_DLL@DV?$ChTraitsCRT@D@ATL@@@@@ATL@@QAE@ABV01@@Z
  000ff	8d 4d 14	 lea	 ecx, DWORD PTR _szInsert$[ebp]
  00102	ff 15 00 00 00
	00		 call	 DWORD PTR __imp_??1?$CStringT@DV?$StrTraitMFC_DLL@DV?$ChTraitsCRT@D@ATL@@@@@ATL@@QAE@XZ
  00108	8d 4d f0	 lea	 ecx, DWORD PTR _szData$[ebp]
  0010b	ff 15 00 00 00
	00		 call	 DWORD PTR __imp_??1?$CStringT@DV?$StrTraitMFC_DLL@DV?$ChTraitsCRT@D@ATL@@@@@ATL@@QAE@XZ

; 1328 : }

  00111	8b 45 08	 mov	 eax, DWORD PTR ___$ReturnUdt$[ebp]
  00114	8b 4d f4	 mov	 ecx, DWORD PTR __$EHRec$[ebp]
  00117	64 89 0d 00 00
	00 00		 mov	 DWORD PTR fs:0, ecx
  0011e	59		 pop	 ecx
  0011f	5f		 pop	 edi
  00120	5e		 pop	 esi
  00121	8b e5		 mov	 esp, ebp
  00123	5d		 pop	 ebp
  00124	c3		 ret	 0
_TEXT	ENDS
;	COMDAT text$x
text$x	SEGMENT
__unwindfunclet$?InsertString@CDataConversion@@SA?AV?$CStringT@DV?$StrTraitMFC_DLL@DV?$ChTraitsCRT@D@ATL@@@@@ATL@@ABV23@0HH@Z$1:
  00000	8d 4d f0	 lea	 ecx, DWORD PTR _szData$[ebp]
  00003	ff 25 00 00 00
	00		 jmp	 DWORD PTR __imp_??1?$CStringT@DV?$StrTraitMFC_DLL@DV?$ChTraitsCRT@D@ATL@@@@@ATL@@QAE@XZ
__unwindfunclet$?InsertString@CDataConversion@@SA?AV?$CStringT@DV?$StrTraitMFC_DLL@DV?$ChTraitsCRT@D@ATL@@@@@ATL@@ABV23@0HH@Z$2:
  00009	8d 4d 14	 lea	 ecx, DWORD PTR _szInsert$[ebp]
  0000c	ff 25 00 00 00
	00		 jmp	 DWORD PTR __imp_??1?$CStringT@DV?$StrTraitMFC_DLL@DV?$ChTraitsCRT@D@ATL@@@@@ATL@@QAE@XZ
__unwindfunclet$?InsertString@CDataConversion@@SA?AV?$CStringT@DV?$StrTraitMFC_DLL@DV?$ChTraitsCRT@D@ATL@@@@@ATL@@ABV23@0HH@Z$4:
  00012	8b 45 e8	 mov	 eax, DWORD PTR $T2[ebp]
  00015	83 e0 02	 and	 eax, 2
  00018	0f 84 0d 00 00
	00		 je	 $LN18@InsertStri
  0001e	83 65 e8 fd	 and	 DWORD PTR $T2[ebp], -3	; fffffffdH
  00022	8d 4d ec	 lea	 ecx, DWORD PTR $T3[ebp]
  00025	ff 25 00 00 00
	00		 jmp	 DWORD PTR __imp_??1?$CStringT@DV?$StrTraitMFC_DLL@DV?$ChTraitsCRT@D@ATL@@@@@ATL@@QAE@XZ
$LN18@InsertStri:
  0002b	c3		 ret	 0
  0002c	cc		 int	 3
  0002d	cc		 int	 3
  0002e	cc		 int	 3
  0002f	cc		 int	 3
  00030	cc		 int	 3
__ehhandler$?InsertString@CDataConversion@@SA?AV?$CStringT@DV?$StrTraitMFC_DLL@DV?$ChTraitsCRT@D@ATL@@@@@ATL@@ABV23@0HH@Z:
  00031	90		 npad	 1
  00032	90		 npad	 1
  00033	8b 54 24 08	 mov	 edx, DWORD PTR [esp+8]
  00037	8d 42 0c	 lea	 eax, DWORD PTR [edx+12]
  0003a	8b 4a e8	 mov	 ecx, DWORD PTR [edx-24]
  0003d	33 c8		 xor	 ecx, eax
  0003f	e8 00 00 00 00	 call	 @__security_check_cookie@4
  00044	b8 00 00 00 00	 mov	 eax, OFFSET __ehfuncinfo$?InsertString@CDataConversion@@SA?AV?$CStringT@DV?$StrTraitMFC_DLL@DV?$ChTraitsCRT@D@ATL@@@@@ATL@@ABV23@0HH@Z
  00049	e9 00 00 00 00	 jmp	 ___CxxFrameHandler3
text$x	ENDS
?InsertString@CDataConversion@@SA?AV?$CStringT@DV?$StrTraitMFC_DLL@DV?$ChTraitsCRT@D@ATL@@@@@ATL@@ABV23@0HH@Z ENDP ; CDataConversion::InsertString
; Function compile flags: /Ogtp
; File D:\git\src\IBK\IBK_DRFN\ProjSrc\SrcDrfn\Chart\chart_common\DataList\Conversion.cpp
;	COMDAT ?GetStringFormatTransCutoff@CDataConversion@@SAHABN0AAV?$CStringT@DV?$StrTraitMFC_DLL@DV?$ChTraitsCRT@D@ATL@@@@@ATL@@1@Z
_TEXT	SEGMENT
$T2 = -16						; size = 4
__$EHRec$ = -12						; size = 12
_dData$ = 8						; size = 4
_dFormat$ = 12						; size = 4
_strData$ = 16						; size = 4
_strFormatTrans$ = 20					; size = 4
?GetStringFormatTransCutoff@CDataConversion@@SAHABN0AAV?$CStringT@DV?$StrTraitMFC_DLL@DV?$ChTraitsCRT@D@ATL@@@@@ATL@@1@Z PROC ; CDataConversion::GetStringFormatTransCutoff, COMDAT

; 1400 : {

  00000	55		 push	 ebp
  00001	8b ec		 mov	 ebp, esp
  00003	6a ff		 push	 -1
  00005	68 00 00 00 00	 push	 __ehhandler$?GetStringFormatTransCutoff@CDataConversion@@SAHABN0AAV?$CStringT@DV?$StrTraitMFC_DLL@DV?$ChTraitsCRT@D@ATL@@@@@ATL@@1@Z
  0000a	64 a1 00 00 00
	00		 mov	 eax, DWORD PTR fs:0
  00010	50		 push	 eax
  00011	51		 push	 ecx
  00012	56		 push	 esi
  00013	a1 00 00 00 00	 mov	 eax, DWORD PTR ___security_cookie
  00018	33 c5		 xor	 eax, ebp
  0001a	50		 push	 eax
  0001b	8d 45 f4	 lea	 eax, DWORD PTR __$EHRec$[ebp]
  0001e	64 a3 00 00 00
	00		 mov	 DWORD PTR fs:0, eax

; 1401 : 	return GetStringFormatTransCutoff(dData, DoubleToString(dFormat), strData, strFormatTrans);

  00024	ff 75 0c	 push	 DWORD PTR _dFormat$[ebp]
  00027	8d 45 f0	 lea	 eax, DWORD PTR $T2[ebp]
  0002a	50		 push	 eax
  0002b	e8 00 00 00 00	 call	 ?DoubleToString@CDataConversion@@SA?AV?$CStringT@DV?$StrTraitMFC_DLL@DV?$ChTraitsCRT@D@ATL@@@@@ATL@@ABN@Z ; CDataConversion::DoubleToString
  00030	ff 75 14	 push	 DWORD PTR _strFormatTrans$[ebp]
  00033	c7 45 fc 00 00
	00 00		 mov	 DWORD PTR __$EHRec$[ebp+8], 0
  0003a	ff 75 10	 push	 DWORD PTR _strData$[ebp]
  0003d	50		 push	 eax
  0003e	ff 75 08	 push	 DWORD PTR _dData$[ebp]
  00041	e8 00 00 00 00	 call	 ?GetStringFormatTransCutoff@CDataConversion@@SAHABNABV?$CStringT@DV?$StrTraitMFC_DLL@DV?$ChTraitsCRT@D@ATL@@@@@ATL@@AAV23@2@Z ; CDataConversion::GetStringFormatTransCutoff
  00046	83 c4 18	 add	 esp, 24			; 00000018H
  00049	8d 4d f0	 lea	 ecx, DWORD PTR $T2[ebp]
  0004c	8b f0		 mov	 esi, eax
  0004e	ff 15 00 00 00
	00		 call	 DWORD PTR __imp_??1?$CStringT@DV?$StrTraitMFC_DLL@DV?$ChTraitsCRT@D@ATL@@@@@ATL@@QAE@XZ
  00054	8b c6		 mov	 eax, esi

; 1402 : }

  00056	8b 4d f4	 mov	 ecx, DWORD PTR __$EHRec$[ebp]
  00059	64 89 0d 00 00
	00 00		 mov	 DWORD PTR fs:0, ecx
  00060	59		 pop	 ecx
  00061	5e		 pop	 esi
  00062	8b e5		 mov	 esp, ebp
  00064	5d		 pop	 ebp
  00065	c3		 ret	 0
_TEXT	ENDS
;	COMDAT text$x
text$x	SEGMENT
__unwindfunclet$?GetStringFormatTransCutoff@CDataConversion@@SAHABN0AAV?$CStringT@DV?$StrTraitMFC_DLL@DV?$ChTraitsCRT@D@ATL@@@@@ATL@@1@Z$0:
  00000	8d 4d f0	 lea	 ecx, DWORD PTR $T2[ebp]
  00003	ff 25 00 00 00
	00		 jmp	 DWORD PTR __imp_??1?$CStringT@DV?$StrTraitMFC_DLL@DV?$ChTraitsCRT@D@ATL@@@@@ATL@@QAE@XZ
  00009	cc		 int	 3
  0000a	cc		 int	 3
  0000b	cc		 int	 3
  0000c	cc		 int	 3
  0000d	cc		 int	 3
__ehhandler$?GetStringFormatTransCutoff@CDataConversion@@SAHABN0AAV?$CStringT@DV?$StrTraitMFC_DLL@DV?$ChTraitsCRT@D@ATL@@@@@ATL@@1@Z:
  0000e	90		 npad	 1
  0000f	90		 npad	 1
  00010	8b 54 24 08	 mov	 edx, DWORD PTR [esp+8]
  00014	8d 42 0c	 lea	 eax, DWORD PTR [edx+12]
  00017	8b 4a f4	 mov	 ecx, DWORD PTR [edx-12]
  0001a	33 c8		 xor	 ecx, eax
  0001c	e8 00 00 00 00	 call	 @__security_check_cookie@4
  00021	b8 00 00 00 00	 mov	 eax, OFFSET __ehfuncinfo$?GetStringFormatTransCutoff@CDataConversion@@SAHABN0AAV?$CStringT@DV?$StrTraitMFC_DLL@DV?$ChTraitsCRT@D@ATL@@@@@ATL@@1@Z
  00026	e9 00 00 00 00	 jmp	 ___CxxFrameHandler3
text$x	ENDS
?GetStringFormatTransCutoff@CDataConversion@@SAHABN0AAV?$CStringT@DV?$StrTraitMFC_DLL@DV?$ChTraitsCRT@D@ATL@@@@@ATL@@1@Z ENDP ; CDataConversion::GetStringFormatTransCutoff
; Function compile flags: /Ogtp
; File D:\git\src\IBK\IBK_DRFN\ProjSrc\SrcDrfn\Chart\chart_common\DataList\Conversion.cpp
; File C:\Program Files (x86)\Microsoft Visual Studio\2019\Community\VC\Tools\MSVC\14.29.30133\atlmfc\include\atlsimpstr.h
; File D:\git\src\IBK\IBK_DRFN\ProjSrc\SrcDrfn\Chart\chart_common\DataList\Conversion.cpp
; File C:\Program Files (x86)\Microsoft Visual Studio\2019\Community\VC\Tools\MSVC\14.29.30133\atlmfc\include\cstringt.h
; File D:\git\src\IBK\IBK_DRFN\ProjSrc\SrcDrfn\Chart\chart_common\DataList\Conversion.cpp
; File C:\Program Files (x86)\Microsoft Visual Studio\2019\Community\VC\Tools\MSVC\14.29.30133\atlmfc\include\cstringt.h
; File D:\git\src\IBK\IBK_DRFN\ProjSrc\SrcDrfn\Chart\chart_common\DataList\Conversion.cpp
; File C:\Program Files (x86)\Microsoft Visual Studio\2019\Community\VC\Tools\MSVC\14.29.30133\atlmfc\include\cstringt.h
; File D:\git\src\IBK\IBK_DRFN\ProjSrc\SrcDrfn\Chart\chart_common\DataList\Conversion.cpp
; File C:\Program Files (x86)\Microsoft Visual Studio\2019\Community\VC\Tools\MSVC\14.29.30133\atlmfc\include\cstringt.h
; File D:\git\src\IBK\IBK_DRFN\ProjSrc\SrcDrfn\Chart\chart_common\DataList\Conversion.cpp
; File C:\Program Files (x86)\Microsoft Visual Studio\2019\Community\VC\Tools\MSVC\14.29.30133\atlmfc\include\cstringt.h
; File D:\git\src\IBK\IBK_DRFN\ProjSrc\SrcDrfn\Chart\chart_common\DataList\Conversion.cpp
; File C:\Program Files (x86)\Microsoft Visual Studio\2019\Community\VC\Tools\MSVC\14.29.30133\atlmfc\include\atlsimpstr.h
; File D:\git\src\IBK\IBK_DRFN\ProjSrc\SrcDrfn\Chart\chart_common\DataList\Conversion.cpp
; File C:\Program Files (x86)\Microsoft Visual Studio\2019\Community\VC\Tools\MSVC\14.29.30133\atlmfc\include\atlsimpstr.h
; File D:\git\src\IBK\IBK_DRFN\ProjSrc\SrcDrfn\Chart\chart_common\DataList\Conversion.cpp
; File C:\Program Files (x86)\Microsoft Visual Studio\2019\Community\VC\Tools\MSVC\14.29.30133\atlmfc\include\cstringt.h
; File D:\git\src\IBK\IBK_DRFN\ProjSrc\SrcDrfn\Chart\chart_common\DataList\Conversion.cpp
; File C:\Program Files (x86)\Microsoft Visual Studio\2019\Community\VC\Tools\MSVC\14.29.30133\atlmfc\include\cstringt.h
; File D:\git\src\IBK\IBK_DRFN\ProjSrc\SrcDrfn\Chart\chart_common\DataList\Conversion.cpp
; File C:\Program Files (x86)\Microsoft Visual Studio\2019\Community\VC\Tools\MSVC\14.29.30133\atlmfc\include\atlsimpstr.h
; File D:\git\src\IBK\IBK_DRFN\ProjSrc\SrcDrfn\Chart\chart_common\DataList\Conversion.cpp
; File C:\Program Files (x86)\Microsoft Visual Studio\2019\Community\VC\Tools\MSVC\14.29.30133\atlmfc\include\atlsimpstr.h
; File D:\git\src\IBK\IBK_DRFN\ProjSrc\SrcDrfn\Chart\chart_common\DataList\Conversion.cpp
; File C:\Program Files (x86)\Microsoft Visual Studio\2019\Community\VC\Tools\MSVC\14.29.30133\atlmfc\include\atlsimpstr.h
; File D:\git\src\IBK\IBK_DRFN\ProjSrc\SrcDrfn\Chart\chart_common\DataList\Conversion.cpp
; File C:\Program Files (x86)\Microsoft Visual Studio\2019\Community\VC\Tools\MSVC\14.29.30133\atlmfc\include\atlsimpstr.h
; File D:\git\src\IBK\IBK_DRFN\ProjSrc\SrcDrfn\Chart\chart_common\DataList\Conversion.cpp
; File C:\Program Files (x86)\Microsoft Visual Studio\2019\Community\VC\Tools\MSVC\14.29.30133\atlmfc\include\cstringt.h
; File D:\git\src\IBK\IBK_DRFN\ProjSrc\SrcDrfn\Chart\chart_common\DataList\Conversion.cpp
; File C:\Program Files (x86)\Microsoft Visual Studio\2019\Community\VC\Tools\MSVC\14.29.30133\atlmfc\include\atlsimpstr.h
; File C:\Program Files (x86)\Microsoft Visual Studio\2019\Community\VC\Tools\MSVC\14.29.30133\atlmfc\include\cstringt.h
; File D:\git\src\IBK\IBK_DRFN\ProjSrc\SrcDrfn\Chart\chart_common\DataList\Conversion.cpp
; File C:\Program Files (x86)\Microsoft Visual Studio\2019\Community\VC\Tools\MSVC\14.29.30133\atlmfc\include\atlsimpstr.h
; File D:\git\src\IBK\IBK_DRFN\ProjSrc\SrcDrfn\Chart\chart_common\DataList\Conversion.cpp
; File C:\Program Files (x86)\Microsoft Visual Studio\2019\Community\VC\Tools\MSVC\14.29.30133\atlmfc\include\atlsimpstr.h
; File D:\git\src\IBK\IBK_DRFN\ProjSrc\SrcDrfn\Chart\chart_common\DataList\Conversion.cpp
; File C:\Program Files (x86)\Microsoft Visual Studio\2019\Community\VC\Tools\MSVC\14.29.30133\atlmfc\include\atlsimpstr.h
; File D:\git\src\IBK\IBK_DRFN\ProjSrc\SrcDrfn\Chart\chart_common\DataList\Conversion.cpp
; File C:\Program Files (x86)\Microsoft Visual Studio\2019\Community\VC\Tools\MSVC\14.29.30133\atlmfc\include\atlsimpstr.h
; File D:\git\src\IBK\IBK_DRFN\ProjSrc\SrcDrfn\Chart\chart_common\DataList\Conversion.cpp
; File C:\Program Files (x86)\Microsoft Visual Studio\2019\Community\VC\Tools\MSVC\14.29.30133\atlmfc\include\atlsimpstr.h
; File D:\git\src\IBK\IBK_DRFN\ProjSrc\SrcDrfn\Chart\chart_common\DataList\Conversion.cpp
; File C:\Program Files (x86)\Microsoft Visual Studio\2019\Community\VC\Tools\MSVC\14.29.30133\atlmfc\include\atlsimpstr.h
; File D:\git\src\IBK\IBK_DRFN\ProjSrc\SrcDrfn\Chart\chart_common\DataList\Conversion.cpp
; File C:\Program Files (x86)\Microsoft Visual Studio\2019\Community\VC\Tools\MSVC\14.29.30133\atlmfc\include\atlsimpstr.h
; File D:\git\src\IBK\IBK_DRFN\ProjSrc\SrcDrfn\Chart\chart_common\DataList\Conversion.cpp
; File C:\Program Files (x86)\Microsoft Visual Studio\2019\Community\VC\Tools\MSVC\14.29.30133\atlmfc\include\atlsimpstr.h
; File D:\git\src\IBK\IBK_DRFN\ProjSrc\SrcDrfn\Chart\chart_common\DataList\Conversion.cpp
;	COMDAT ?GetStringFormatTransCutoff@CDataConversion@@SAHABNABV?$CStringT@DV?$StrTraitMFC_DLL@DV?$ChTraitsCRT@D@ATL@@@@@ATL@@AAV23@2@Z
_TEXT	SEGMENT
$T2 = -36						; size = 4
$T3 = -36						; size = 4
$T4 = -36						; size = 4
$T5 = -36						; size = 4
$T6 = -32						; size = 4
$T7 = -32						; size = 4
_szFormatType$ = -28					; size = 4
$T8 = -24						; size = 4
_szFormat$ = -20					; size = 4
_szData$ = -16						; size = 4
__$EHRec$ = -12						; size = 12
_dData$ = 8						; size = 4
$T9 = 12						; size = 4
$T10 = 12						; size = 4
$T11 = 12						; size = 4
$T12 = 12						; size = 4
$T13 = 12						; size = 4
$T14 = 12						; size = 4
$T15 = 12						; size = 4
$T16 = 12						; size = 4
$T17 = 12						; size = 4
$T18 = 12						; size = 4
_strFormat$ = 12					; size = 4
$T19 = 15						; size = 1
$T20 = 15						; size = 1
$T21 = 15						; size = 1
_npoint$1$ = 16						; size = 4
$T22 = 16						; size = 4
$T23 = 16						; size = 4
_strData$ = 16						; size = 4
_strFormatTrans$ = 20					; size = 4
?GetStringFormatTransCutoff@CDataConversion@@SAHABNABV?$CStringT@DV?$StrTraitMFC_DLL@DV?$ChTraitsCRT@D@ATL@@@@@ATL@@AAV23@2@Z PROC ; CDataConversion::GetStringFormatTransCutoff, COMDAT

; 1336 : {

  00000	55		 push	 ebp
  00001	8b ec		 mov	 ebp, esp
  00003	6a ff		 push	 -1
  00005	68 00 00 00 00	 push	 __ehhandler$?GetStringFormatTransCutoff@CDataConversion@@SAHABNABV?$CStringT@DV?$StrTraitMFC_DLL@DV?$ChTraitsCRT@D@ATL@@@@@ATL@@AAV23@2@Z
  0000a	64 a1 00 00 00
	00		 mov	 eax, DWORD PTR fs:0
  00010	50		 push	 eax
  00011	83 ec 18	 sub	 esp, 24			; 00000018H
  00014	53		 push	 ebx
  00015	56		 push	 esi
  00016	57		 push	 edi
  00017	a1 00 00 00 00	 mov	 eax, DWORD PTR ___security_cookie
  0001c	33 c5		 xor	 eax, ebp
  0001e	50		 push	 eax
  0001f	8d 45 f4	 lea	 eax, DWORD PTR __$EHRec$[ebp]
  00022	64 a3 00 00 00
	00		 mov	 DWORD PTR fs:0, eax
  00028	33 db		 xor	 ebx, ebx

; 1337 : 	CString szFormatType, szFormat = strFormat;

  0002a	8d 4d e4	 lea	 ecx, DWORD PTR _szFormatType$[ebp]
  0002d	89 5d e8	 mov	 DWORD PTR $T8[ebp], ebx
  00030	ff 15 00 00 00
	00		 call	 DWORD PTR __imp_??0?$CStringT@DV?$StrTraitMFC_DLL@DV?$ChTraitsCRT@D@ATL@@@@@ATL@@QAE@XZ
  00036	8b 75 0c	 mov	 esi, DWORD PTR _strFormat$[ebp]
  00039	8d 4d ec	 lea	 ecx, DWORD PTR _szFormat$[ebp]
  0003c	56		 push	 esi
  0003d	89 5d fc	 mov	 DWORD PTR __$EHRec$[ebp+8], ebx
  00040	ff 15 00 00 00
	00		 call	 DWORD PTR __imp_??0?$CStringT@DV?$StrTraitMFC_DLL@DV?$ChTraitsCRT@D@ATL@@@@@ATL@@QAE@ABV01@@Z

; 1338 : 	strFormatTrans = szFormat;

  00046	8b 4d 14	 mov	 ecx, DWORD PTR _strFormatTrans$[ebp]
  00049	8d 45 ec	 lea	 eax, DWORD PTR _szFormat$[ebp]
  0004c	50		 push	 eax
  0004d	c6 45 fc 01	 mov	 BYTE PTR __$EHRec$[ebp+8], 1
  00051	ff 15 00 00 00
	00		 call	 DWORD PTR __imp_??4?$CStringT@DV?$StrTraitMFC_DLL@DV?$ChTraitsCRT@D@ATL@@@@@ATL@@QAEAAV01@ABV01@@Z
; File C:\Program Files (x86)\Microsoft Visual Studio\2019\Community\VC\Tools\MSVC\14.29.30133\atlmfc\include\atlsimpstr.h

; 519  : 		return( GetData()->nDataLength );

  00057	8b 06		 mov	 eax, DWORD PTR [esi]

; 533  : 		return( GetLength() == 0 );

  00059	39 58 f4	 cmp	 DWORD PTR [eax-12], ebx
; File D:\git\src\IBK\IBK_DRFN\ProjSrc\SrcDrfn\Chart\chart_common\DataList\Conversion.cpp

; 1340 : 	if(!strFormat.IsEmpty() && strFormat.Right(1) != "0" && strFormat.Right(1) != "1")	{

  0005c	74 5c		 je	 SHORT $LN14@GetStringF
  0005e	6a 01		 push	 1
  00060	8d 45 dc	 lea	 eax, DWORD PTR $T5[ebp]
  00063	8b ce		 mov	 ecx, esi
  00065	50		 push	 eax
  00066	ff 15 00 00 00
	00		 call	 DWORD PTR __imp_?Right@?$CStringT@DV?$StrTraitMFC_DLL@DV?$ChTraitsCRT@D@ATL@@@@@ATL@@QBE?AV12@H@Z
  0006c	bb 01 00 00 00	 mov	 ebx, 1
  00071	c6 45 fc 02	 mov	 BYTE PTR __$EHRec$[ebp+8], 2
; File C:\Program Files (x86)\Microsoft Visual Studio\2019\Community\VC\Tools\MSVC\14.29.30133\atlmfc\include\cstringt.h

; 2567 : 		return( str1.Compare( psz2 ) != 0 );

  00075	68 00 00 00 00	 push	 OFFSET ??_C@_01GBGANLPD@0@
  0007a	8b c8		 mov	 ecx, eax
; File D:\git\src\IBK\IBK_DRFN\ProjSrc\SrcDrfn\Chart\chart_common\DataList\Conversion.cpp

; 1340 : 	if(!strFormat.IsEmpty() && strFormat.Right(1) != "0" && strFormat.Right(1) != "1")	{

  0007c	89 5d e8	 mov	 DWORD PTR $T8[ebp], ebx
; File C:\Program Files (x86)\Microsoft Visual Studio\2019\Community\VC\Tools\MSVC\14.29.30133\atlmfc\include\cstringt.h

; 2567 : 		return( str1.Compare( psz2 ) != 0 );

  0007f	ff 15 00 00 00
	00		 call	 DWORD PTR __imp_?Compare@?$CStringT@DV?$StrTraitMFC_DLL@DV?$ChTraitsCRT@D@ATL@@@@@ATL@@QBEHPBD@Z
  00085	85 c0		 test	 eax, eax
; File D:\git\src\IBK\IBK_DRFN\ProjSrc\SrcDrfn\Chart\chart_common\DataList\Conversion.cpp

; 1340 : 	if(!strFormat.IsEmpty() && strFormat.Right(1) != "0" && strFormat.Right(1) != "1")	{

  00087	74 31		 je	 SHORT $LN14@GetStringF
  00089	53		 push	 ebx
  0008a	8d 45 e0	 lea	 eax, DWORD PTR $T7[ebp]
  0008d	8b ce		 mov	 ecx, esi
  0008f	50		 push	 eax
  00090	ff 15 00 00 00
	00		 call	 DWORD PTR __imp_?Right@?$CStringT@DV?$StrTraitMFC_DLL@DV?$ChTraitsCRT@D@ATL@@@@@ATL@@QBE?AV12@H@Z
  00096	bb 03 00 00 00	 mov	 ebx, 3
  0009b	c7 45 fc 03 00
	00 00		 mov	 DWORD PTR __$EHRec$[ebp+8], 3
; File C:\Program Files (x86)\Microsoft Visual Studio\2019\Community\VC\Tools\MSVC\14.29.30133\atlmfc\include\cstringt.h

; 2567 : 		return( str1.Compare( psz2 ) != 0 );

  000a2	68 00 00 00 00	 push	 OFFSET ??_C@_01HIHLOKLC@1@
  000a7	8b c8		 mov	 ecx, eax
; File D:\git\src\IBK\IBK_DRFN\ProjSrc\SrcDrfn\Chart\chart_common\DataList\Conversion.cpp

; 1340 : 	if(!strFormat.IsEmpty() && strFormat.Right(1) != "0" && strFormat.Right(1) != "1")	{

  000a9	89 5d e8	 mov	 DWORD PTR $T8[ebp], ebx
; File C:\Program Files (x86)\Microsoft Visual Studio\2019\Community\VC\Tools\MSVC\14.29.30133\atlmfc\include\cstringt.h

; 2567 : 		return( str1.Compare( psz2 ) != 0 );

  000ac	ff 15 00 00 00
	00		 call	 DWORD PTR __imp_?Compare@?$CStringT@DV?$StrTraitMFC_DLL@DV?$ChTraitsCRT@D@ATL@@@@@ATL@@QBEHPBD@Z
; File D:\git\src\IBK\IBK_DRFN\ProjSrc\SrcDrfn\Chart\chart_common\DataList\Conversion.cpp

; 1340 : 	if(!strFormat.IsEmpty() && strFormat.Right(1) != "0" && strFormat.Right(1) != "1")	{

  000b2	c6 45 0f 01	 mov	 BYTE PTR $T21[ebp], 1
; File C:\Program Files (x86)\Microsoft Visual Studio\2019\Community\VC\Tools\MSVC\14.29.30133\atlmfc\include\cstringt.h

; 2567 : 		return( str1.Compare( psz2 ) != 0 );

  000b6	85 c0		 test	 eax, eax
; File D:\git\src\IBK\IBK_DRFN\ProjSrc\SrcDrfn\Chart\chart_common\DataList\Conversion.cpp

; 1340 : 	if(!strFormat.IsEmpty() && strFormat.Right(1) != "0" && strFormat.Right(1) != "1")	{

  000b8	75 04		 jne	 SHORT $LN15@GetStringF
$LN14@GetStringF:
  000ba	c6 45 0f 00	 mov	 BYTE PTR $T21[ebp], 0
$LN15@GetStringF:
  000be	f6 c3 02	 test	 bl, 2
  000c1	74 0c		 je	 SHORT $LN28@GetStringF
  000c3	8d 4d e0	 lea	 ecx, DWORD PTR $T7[ebp]
  000c6	83 e3 fd	 and	 ebx, -3			; fffffffdH
  000c9	ff 15 00 00 00
	00		 call	 DWORD PTR __imp_??1?$CStringT@DV?$StrTraitMFC_DLL@DV?$ChTraitsCRT@D@ATL@@@@@ATL@@QAE@XZ
$LN28@GetStringF:
  000cf	c7 45 fc 01 00
	00 00		 mov	 DWORD PTR __$EHRec$[ebp+8], 1
  000d6	f6 c3 01	 test	 bl, 1
  000d9	74 0c		 je	 SHORT $LN29@GetStringF
  000db	8d 4d dc	 lea	 ecx, DWORD PTR $T5[ebp]
  000de	83 e3 fe	 and	 ebx, -2			; fffffffeH
  000e1	ff 15 00 00 00
	00		 call	 DWORD PTR __imp_??1?$CStringT@DV?$StrTraitMFC_DLL@DV?$ChTraitsCRT@D@ATL@@@@@ATL@@QAE@XZ
$LN29@GetStringF:
  000e7	80 7d 0f 00	 cmp	 BYTE PTR $T21[ebp], 0
  000eb	74 57		 je	 SHORT $LN2@GetStringF

; 1341 : 		szFormatType = strFormat.Right(1);

  000ed	6a 01		 push	 1
  000ef	8d 45 0c	 lea	 eax, DWORD PTR $T18[ebp]
  000f2	8b ce		 mov	 ecx, esi
  000f4	50		 push	 eax
  000f5	ff 15 00 00 00
	00		 call	 DWORD PTR __imp_?Right@?$CStringT@DV?$StrTraitMFC_DLL@DV?$ChTraitsCRT@D@ATL@@@@@ATL@@QBE?AV12@H@Z
  000fb	50		 push	 eax
  000fc	8d 4d e4	 lea	 ecx, DWORD PTR _szFormatType$[ebp]
  000ff	c6 45 fc 04	 mov	 BYTE PTR __$EHRec$[ebp+8], 4
  00103	ff 15 00 00 00
	00		 call	 DWORD PTR __imp_??4?$CStringT@DV?$StrTraitMFC_DLL@DV?$ChTraitsCRT@D@ATL@@@@@ATL@@QAEAAV01@ABV01@@Z
  00109	8d 4d 0c	 lea	 ecx, DWORD PTR $T18[ebp]
  0010c	c6 45 fc 01	 mov	 BYTE PTR __$EHRec$[ebp+8], 1
  00110	ff 15 00 00 00
	00		 call	 DWORD PTR __imp_??1?$CStringT@DV?$StrTraitMFC_DLL@DV?$ChTraitsCRT@D@ATL@@@@@ATL@@QAE@XZ
; File C:\Program Files (x86)\Microsoft Visual Studio\2019\Community\VC\Tools\MSVC\14.29.30133\atlmfc\include\atlsimpstr.h

; 519  : 		return( GetData()->nDataLength );

  00116	8b 06		 mov	 eax, DWORD PTR [esi]
; File D:\git\src\IBK\IBK_DRFN\ProjSrc\SrcDrfn\Chart\chart_common\DataList\Conversion.cpp

; 1342 : 		szFormat = strFormat.Left(strFormat.GetLength() -1);

  00118	8b ce		 mov	 ecx, esi
; File C:\Program Files (x86)\Microsoft Visual Studio\2019\Community\VC\Tools\MSVC\14.29.30133\atlmfc\include\atlsimpstr.h

; 519  : 		return( GetData()->nDataLength );

  0011a	8b 40 f4	 mov	 eax, DWORD PTR [eax-12]
; File D:\git\src\IBK\IBK_DRFN\ProjSrc\SrcDrfn\Chart\chart_common\DataList\Conversion.cpp

; 1342 : 		szFormat = strFormat.Left(strFormat.GetLength() -1);

  0011d	48		 dec	 eax
  0011e	50		 push	 eax
  0011f	8d 45 0c	 lea	 eax, DWORD PTR $T17[ebp]
  00122	50		 push	 eax
  00123	ff 15 00 00 00
	00		 call	 DWORD PTR __imp_?Left@?$CStringT@DV?$StrTraitMFC_DLL@DV?$ChTraitsCRT@D@ATL@@@@@ATL@@QBE?AV12@H@Z
  00129	50		 push	 eax
  0012a	8d 4d ec	 lea	 ecx, DWORD PTR _szFormat$[ebp]
  0012d	c6 45 fc 05	 mov	 BYTE PTR __$EHRec$[ebp+8], 5
  00131	ff 15 00 00 00
	00		 call	 DWORD PTR __imp_??4?$CStringT@DV?$StrTraitMFC_DLL@DV?$ChTraitsCRT@D@ATL@@@@@ATL@@QAEAAV01@ABV01@@Z
  00137	8d 4d 0c	 lea	 ecx, DWORD PTR $T17[ebp]
  0013a	c6 45 fc 01	 mov	 BYTE PTR __$EHRec$[ebp+8], 1
  0013e	ff 15 00 00 00
	00		 call	 DWORD PTR __imp_??1?$CStringT@DV?$StrTraitMFC_DLL@DV?$ChTraitsCRT@D@ATL@@@@@ATL@@QAE@XZ
$LN2@GetStringF:

; 1343 : 	}
; 1344 : 
; 1345 : 	CString szData = DoubleToString(dData);

  00144	ff 75 08	 push	 DWORD PTR _dData$[ebp]
  00147	8d 45 f0	 lea	 eax, DWORD PTR _szData$[ebp]
  0014a	50		 push	 eax
  0014b	e8 00 00 00 00	 call	 ?DoubleToString@CDataConversion@@SA?AV?$CStringT@DV?$StrTraitMFC_DLL@DV?$ChTraitsCRT@D@ATL@@@@@ATL@@ABN@Z ; CDataConversion::DoubleToString
  00150	83 c4 08	 add	 esp, 8

; 1347 : 	if(strFormat.Right(1) == "1" && szData.Find(".") > 0){

  00153	6a 01		 push	 1
  00155	8d 45 dc	 lea	 eax, DWORD PTR $T4[ebp]
  00158	c6 45 fc 06	 mov	 BYTE PTR __$EHRec$[ebp+8], 6
  0015c	50		 push	 eax
  0015d	8b ce		 mov	 ecx, esi
  0015f	ff 15 00 00 00
	00		 call	 DWORD PTR __imp_?Right@?$CStringT@DV?$StrTraitMFC_DLL@DV?$ChTraitsCRT@D@ATL@@@@@ATL@@QBE?AV12@H@Z
  00165	83 cb 04	 or	 ebx, 4
  00168	c6 45 fc 07	 mov	 BYTE PTR __$EHRec$[ebp+8], 7
; File C:\Program Files (x86)\Microsoft Visual Studio\2019\Community\VC\Tools\MSVC\14.29.30133\atlmfc\include\cstringt.h

; 2486 : 		return(str1.Compare(psz2) == 0);

  0016c	68 00 00 00 00	 push	 OFFSET ??_C@_01HIHLOKLC@1@
  00171	8b c8		 mov	 ecx, eax
; File D:\git\src\IBK\IBK_DRFN\ProjSrc\SrcDrfn\Chart\chart_common\DataList\Conversion.cpp

; 1347 : 	if(strFormat.Right(1) == "1" && szData.Find(".") > 0){

  00173	89 5d e8	 mov	 DWORD PTR $T8[ebp], ebx
; File C:\Program Files (x86)\Microsoft Visual Studio\2019\Community\VC\Tools\MSVC\14.29.30133\atlmfc\include\cstringt.h

; 2486 : 		return(str1.Compare(psz2) == 0);

  00176	ff 15 00 00 00
	00		 call	 DWORD PTR __imp_?Compare@?$CStringT@DV?$StrTraitMFC_DLL@DV?$ChTraitsCRT@D@ATL@@@@@ATL@@QBEHPBD@Z
  0017c	85 c0		 test	 eax, eax
; File D:\git\src\IBK\IBK_DRFN\ProjSrc\SrcDrfn\Chart\chart_common\DataList\Conversion.cpp

; 1347 : 	if(strFormat.Right(1) == "1" && szData.Find(".") > 0){

  0017e	75 17		 jne	 SHORT $LN16@GetStringF
  00180	50		 push	 eax
  00181	68 00 00 00 00	 push	 OFFSET ??_C@_01LFCBOECM@?4@
  00186	8d 4d f0	 lea	 ecx, DWORD PTR _szData$[ebp]
  00189	ff 15 00 00 00
	00		 call	 DWORD PTR __imp_?Find@?$CStringT@DV?$StrTraitMFC_DLL@DV?$ChTraitsCRT@D@ATL@@@@@ATL@@QBEHPBDH@Z
  0018f	c6 45 0f 01	 mov	 BYTE PTR $T20[ebp], 1
  00193	85 c0		 test	 eax, eax
  00195	7f 04		 jg	 SHORT $LN17@GetStringF
$LN16@GetStringF:
  00197	c6 45 0f 00	 mov	 BYTE PTR $T20[ebp], 0
$LN17@GetStringF:
  0019b	c7 45 fc 06 00
	00 00		 mov	 DWORD PTR __$EHRec$[ebp+8], 6
  001a2	f6 c3 04	 test	 bl, 4
  001a5	74 0c		 je	 SHORT $LN35@GetStringF
  001a7	8d 4d dc	 lea	 ecx, DWORD PTR $T4[ebp]
  001aa	83 e3 fb	 and	 ebx, -5			; fffffffbH
  001ad	ff 15 00 00 00
	00		 call	 DWORD PTR __imp_??1?$CStringT@DV?$StrTraitMFC_DLL@DV?$ChTraitsCRT@D@ATL@@@@@ATL@@QAE@XZ
$LN35@GetStringF:
  001b3	80 7d 0f 00	 cmp	 BYTE PTR $T20[ebp], 0
  001b7	74 50		 je	 SHORT $LN3@GetStringF

; 1348 : 		int nDecimalDownCount = 0;

  001b9	33 ff		 xor	 edi, edi

; 1349 : 		int nFormatIndex = strFormat.Find(".");

  001bb	8b ce		 mov	 ecx, esi
  001bd	57		 push	 edi
  001be	68 00 00 00 00	 push	 OFFSET ??_C@_01LFCBOECM@?4@
  001c3	ff 15 00 00 00
	00		 call	 DWORD PTR __imp_?Find@?$CStringT@DV?$StrTraitMFC_DLL@DV?$ChTraitsCRT@D@ATL@@@@@ATL@@QBEHPBDH@Z

; 1350 : 		if(nFormatIndex >= 0 && nFormatIndex <= (strFormat.GetLength() -1))

  001c9	85 c0		 test	 eax, eax
  001cb	78 11		 js	 SHORT $LN4@GetStringF
; File C:\Program Files (x86)\Microsoft Visual Studio\2019\Community\VC\Tools\MSVC\14.29.30133\atlmfc\include\atlsimpstr.h

; 519  : 		return( GetData()->nDataLength );

  001cd	8b 0e		 mov	 ecx, DWORD PTR [esi]
  001cf	8b 51 f4	 mov	 edx, DWORD PTR [ecx-12]
; File D:\git\src\IBK\IBK_DRFN\ProjSrc\SrcDrfn\Chart\chart_common\DataList\Conversion.cpp

; 1350 : 		if(nFormatIndex >= 0 && nFormatIndex <= (strFormat.GetLength() -1))

  001d2	8d 4a ff	 lea	 ecx, DWORD PTR [edx-1]
  001d5	3b c1		 cmp	 eax, ecx
  001d7	7f 05		 jg	 SHORT $LN4@GetStringF

; 1351 : 			nDecimalDownCount = strFormat.GetLength() - (nFormatIndex +1);

  001d9	8b fa		 mov	 edi, edx
  001db	2b f8		 sub	 edi, eax
  001dd	4f		 dec	 edi
$LN4@GetStringF:

; 1352 : 		szData = DoubleToString(dData, nDecimalDownCount);

  001de	57		 push	 edi
  001df	ff 75 08	 push	 DWORD PTR _dData$[ebp]
  001e2	8d 45 0c	 lea	 eax, DWORD PTR $T16[ebp]
  001e5	50		 push	 eax
  001e6	e8 00 00 00 00	 call	 ?DoubleToString@CDataConversion@@SA?AV?$CStringT@DV?$StrTraitMFC_DLL@DV?$ChTraitsCRT@D@ATL@@@@@ATL@@ABNH@Z ; CDataConversion::DoubleToString
  001eb	83 c4 0c	 add	 esp, 12			; 0000000cH
  001ee	50		 push	 eax
  001ef	8d 4d f0	 lea	 ecx, DWORD PTR _szData$[ebp]
  001f2	c6 45 fc 08	 mov	 BYTE PTR __$EHRec$[ebp+8], 8
  001f6	ff 15 00 00 00
	00		 call	 DWORD PTR __imp_??4?$CStringT@DV?$StrTraitMFC_DLL@DV?$ChTraitsCRT@D@ATL@@@@@ATL@@QAEAAV01@ABV01@@Z
  001fc	8d 4d 0c	 lea	 ecx, DWORD PTR $T16[ebp]
  001ff	c6 45 fc 06	 mov	 BYTE PTR __$EHRec$[ebp+8], 6
  00203	ff 15 00 00 00
	00		 call	 DWORD PTR __imp_??1?$CStringT@DV?$StrTraitMFC_DLL@DV?$ChTraitsCRT@D@ATL@@@@@ATL@@QAE@XZ
$LN3@GetStringF:

; 1353 : 	}
; 1354 : 	
; 1355 : 	//sy 2002.9.11. -> 1140000 :  -114000 :   ( -  )
; 1356 : 	if(szFormat.Find(".") < 0 && szData.Find(".") != -1) //sy 2002.10.28.

  00209	6a 00		 push	 0
  0020b	68 00 00 00 00	 push	 OFFSET ??_C@_01LFCBOECM@?4@
  00210	8d 4d ec	 lea	 ecx, DWORD PTR _szFormat$[ebp]
  00213	ff 15 00 00 00
	00		 call	 DWORD PTR __imp_?Find@?$CStringT@DV?$StrTraitMFC_DLL@DV?$ChTraitsCRT@D@ATL@@@@@ATL@@QBEHPBDH@Z
  00219	85 c0		 test	 eax, eax
  0021b	79 61		 jns	 SHORT $LN5@GetStringF
  0021d	6a 00		 push	 0
  0021f	68 00 00 00 00	 push	 OFFSET ??_C@_01LFCBOECM@?4@
  00224	8d 4d f0	 lea	 ecx, DWORD PTR _szData$[ebp]
  00227	ff 15 00 00 00
	00		 call	 DWORD PTR __imp_?Find@?$CStringT@DV?$StrTraitMFC_DLL@DV?$ChTraitsCRT@D@ATL@@@@@ATL@@QBEHPBDH@Z
  0022d	83 f8 ff	 cmp	 eax, -1
  00230	74 4c		 je	 SHORT $LN5@GetStringF

; 1357 : 		szData = GetStringData(szData, ".");

  00232	68 00 00 00 00	 push	 OFFSET ??_C@_01LFCBOECM@?4@
  00237	8d 4d 0c	 lea	 ecx, DWORD PTR $T15[ebp]
  0023a	ff 15 00 00 00
	00		 call	 DWORD PTR __imp_??0?$CStringT@DV?$StrTraitMFC_DLL@DV?$ChTraitsCRT@D@ATL@@@@@ATL@@QAE@PBD@Z
  00240	6a 01		 push	 1
  00242	8d 45 0c	 lea	 eax, DWORD PTR $T15[ebp]
  00245	c6 45 fc 09	 mov	 BYTE PTR __$EHRec$[ebp+8], 9
  00249	50		 push	 eax
  0024a	8d 45 f0	 lea	 eax, DWORD PTR _szData$[ebp]
  0024d	50		 push	 eax
  0024e	8d 45 dc	 lea	 eax, DWORD PTR $T3[ebp]
  00251	50		 push	 eax
  00252	e8 00 00 00 00	 call	 ?GetStringData@CDataConversion@@SA?AV?$CStringT@DV?$StrTraitMFC_DLL@DV?$ChTraitsCRT@D@ATL@@@@@ATL@@AAV23@ABV23@_N@Z ; CDataConversion::GetStringData
  00257	83 c4 10	 add	 esp, 16			; 00000010H
  0025a	50		 push	 eax
  0025b	8d 4d f0	 lea	 ecx, DWORD PTR _szData$[ebp]
  0025e	c6 45 fc 0a	 mov	 BYTE PTR __$EHRec$[ebp+8], 10 ; 0000000aH
  00262	ff 15 00 00 00
	00		 call	 DWORD PTR __imp_??4?$CStringT@DV?$StrTraitMFC_DLL@DV?$ChTraitsCRT@D@ATL@@@@@ATL@@QAEAAV01@ABV01@@Z
  00268	8d 4d dc	 lea	 ecx, DWORD PTR $T3[ebp]
  0026b	ff 15 00 00 00
	00		 call	 DWORD PTR __imp_??1?$CStringT@DV?$StrTraitMFC_DLL@DV?$ChTraitsCRT@D@ATL@@@@@ATL@@QAE@XZ
  00271	8d 4d 0c	 lea	 ecx, DWORD PTR $T15[ebp]
  00274	c6 45 fc 06	 mov	 BYTE PTR __$EHRec$[ebp+8], 6
  00278	ff 15 00 00 00
	00		 call	 DWORD PTR __imp_??1?$CStringT@DV?$StrTraitMFC_DLL@DV?$ChTraitsCRT@D@ATL@@@@@ATL@@QAE@XZ
$LN5@GetStringF:
; File C:\Program Files (x86)\Microsoft Visual Studio\2019\Community\VC\Tools\MSVC\14.29.30133\atlmfc\include\atlsimpstr.h

; 519  : 		return( GetData()->nDataLength );

  0027e	8b 45 f0	 mov	 eax, DWORD PTR _szData$[ebp]
; File D:\git\src\IBK\IBK_DRFN\ProjSrc\SrcDrfn\Chart\chart_common\DataList\Conversion.cpp

; 1359 : 	if((szData.Left(1) == '-' && nNumLength > 7) || (szData.Left(1) != '-' && nNumLength > 6)){

  00281	8d 4d f0	 lea	 ecx, DWORD PTR _szData$[ebp]
  00284	6a 01		 push	 1
; File C:\Program Files (x86)\Microsoft Visual Studio\2019\Community\VC\Tools\MSVC\14.29.30133\atlmfc\include\atlsimpstr.h

; 519  : 		return( GetData()->nDataLength );

  00286	8b 70 f4	 mov	 esi, DWORD PTR [eax-12]
; File D:\git\src\IBK\IBK_DRFN\ProjSrc\SrcDrfn\Chart\chart_common\DataList\Conversion.cpp

; 1359 : 	if((szData.Left(1) == '-' && nNumLength > 7) || (szData.Left(1) != '-' && nNumLength > 6)){

  00289	8d 45 e0	 lea	 eax, DWORD PTR $T6[ebp]
  0028c	50		 push	 eax
  0028d	ff 15 00 00 00
	00		 call	 DWORD PTR __imp_?Left@?$CStringT@DV?$StrTraitMFC_DLL@DV?$ChTraitsCRT@D@ATL@@@@@ATL@@QBE?AV12@H@Z
; File C:\Program Files (x86)\Microsoft Visual Studio\2019\Community\VC\Tools\MSVC\14.29.30133\atlmfc\include\atlsimpstr.h

; 519  : 		return( GetData()->nDataLength );

  00293	8b 08		 mov	 ecx, DWORD PTR [eax]
; File D:\git\src\IBK\IBK_DRFN\ProjSrc\SrcDrfn\Chart\chart_common\DataList\Conversion.cpp

; 1359 : 	if((szData.Left(1) == '-' && nNumLength > 7) || (szData.Left(1) != '-' && nNumLength > 6)){

  00295	83 cb 08	 or	 ebx, 8
  00298	c6 45 fc 0b	 mov	 BYTE PTR __$EHRec$[ebp+8], 11 ; 0000000bH
  0029c	89 5d e8	 mov	 DWORD PTR $T8[ebp], ebx
; File C:\Program Files (x86)\Microsoft Visual Studio\2019\Community\VC\Tools\MSVC\14.29.30133\atlmfc\include\cstringt.h

; 2510 : 		return((str1.GetLength() == 1) && (str1[0] == ch2));

  0029f	83 79 f4 01	 cmp	 DWORD PTR [ecx-12], 1
  002a3	75 13		 jne	 SHORT $LN18@GetStringF
  002a5	6a 00		 push	 0
  002a7	8b c8		 mov	 ecx, eax
  002a9	ff 15 00 00 00
	00		 call	 DWORD PTR __imp_??A?$CSimpleStringT@D$00@ATL@@QBEDH@Z
  002af	3c 2d		 cmp	 al, 45			; 0000002dH
  002b1	75 05		 jne	 SHORT $LN18@GetStringF
; File D:\git\src\IBK\IBK_DRFN\ProjSrc\SrcDrfn\Chart\chart_common\DataList\Conversion.cpp

; 1359 : 	if((szData.Left(1) == '-' && nNumLength > 7) || (szData.Left(1) != '-' && nNumLength > 6)){

  002b3	83 fe 07	 cmp	 esi, 7
  002b6	7f 30		 jg	 SHORT $LN20@GetStringF
$LN18@GetStringF:
  002b8	6a 01		 push	 1
  002ba	8d 45 dc	 lea	 eax, DWORD PTR $T2[ebp]
  002bd	50		 push	 eax
  002be	8d 4d f0	 lea	 ecx, DWORD PTR _szData$[ebp]
  002c1	ff 15 00 00 00
	00		 call	 DWORD PTR __imp_?Left@?$CStringT@DV?$StrTraitMFC_DLL@DV?$ChTraitsCRT@D@ATL@@@@@ATL@@QBE?AV12@H@Z
  002c7	83 cb 10	 or	 ebx, 16			; 00000010H
  002ca	89 5d e8	 mov	 DWORD PTR $T8[ebp], ebx
; File C:\Program Files (x86)\Microsoft Visual Studio\2019\Community\VC\Tools\MSVC\14.29.30133\atlmfc\include\atlsimpstr.h

; 519  : 		return( GetData()->nDataLength );

  002cd	8b 08		 mov	 ecx, DWORD PTR [eax]
; File C:\Program Files (x86)\Microsoft Visual Studio\2019\Community\VC\Tools\MSVC\14.29.30133\atlmfc\include\cstringt.h

; 2699 : 		return((str1.GetLength() != 1) || (str1[0] != ch2));

  002cf	83 79 f4 01	 cmp	 DWORD PTR [ecx-12], 1
  002d3	75 0e		 jne	 SHORT $LN91@GetStringF
  002d5	6a 00		 push	 0
  002d7	8b c8		 mov	 ecx, eax
  002d9	ff 15 00 00 00
	00		 call	 DWORD PTR __imp_??A?$CSimpleStringT@D$00@ATL@@QBEDH@Z
  002df	3c 2d		 cmp	 al, 45			; 0000002dH
  002e1	74 0b		 je	 SHORT $LN19@GetStringF
$LN91@GetStringF:
; File D:\git\src\IBK\IBK_DRFN\ProjSrc\SrcDrfn\Chart\chart_common\DataList\Conversion.cpp

; 1359 : 	if((szData.Left(1) == '-' && nNumLength > 7) || (szData.Left(1) != '-' && nNumLength > 6)){

  002e3	83 fe 06	 cmp	 esi, 6
  002e6	7e 06		 jle	 SHORT $LN19@GetStringF
$LN20@GetStringF:
  002e8	c6 45 0f 01	 mov	 BYTE PTR $T19[ebp], 1
  002ec	eb 04		 jmp	 SHORT $LN21@GetStringF
$LN19@GetStringF:
  002ee	c6 45 0f 00	 mov	 BYTE PTR $T19[ebp], 0
$LN21@GetStringF:
  002f2	f6 c3 10	 test	 bl, 16			; 00000010H
  002f5	74 0c		 je	 SHORT $LN43@GetStringF
  002f7	8d 4d dc	 lea	 ecx, DWORD PTR $T2[ebp]
  002fa	83 e3 ef	 and	 ebx, -17		; ffffffefH
  002fd	ff 15 00 00 00
	00		 call	 DWORD PTR __imp_??1?$CStringT@DV?$StrTraitMFC_DLL@DV?$ChTraitsCRT@D@ATL@@@@@ATL@@QAE@XZ
$LN43@GetStringF:
  00303	c7 45 fc 06 00
	00 00		 mov	 DWORD PTR __$EHRec$[ebp+8], 6
  0030a	f6 c3 08	 test	 bl, 8
  0030d	74 09		 je	 SHORT $LN44@GetStringF
  0030f	8d 4d e0	 lea	 ecx, DWORD PTR $T6[ebp]
  00312	ff 15 00 00 00
	00		 call	 DWORD PTR __imp_??1?$CStringT@DV?$StrTraitMFC_DLL@DV?$ChTraitsCRT@D@ATL@@@@@ATL@@QAE@XZ
$LN44@GetStringF:
  00318	80 7d 0f 00	 cmp	 BYTE PTR $T19[ebp], 0
  0031c	8b 7d 10	 mov	 edi, DWORD PTR _strData$[ebp]
  0031f	0f 84 9e 01 00
	00		 je	 $LN6@GetStringF

; 1360 : //	if((szData.Left(1) == '-' && szData.GetLength() > 7) || (szData.Left(1) != '-' && szData.GetLength() > 6)){
; 1361 : 		if(szFormat.Find(".") < 0){

  00325	6a 00		 push	 0
  00327	68 00 00 00 00	 push	 OFFSET ??_C@_01LFCBOECM@?4@
  0032c	8d 4d ec	 lea	 ecx, DWORD PTR _szFormat$[ebp]
  0032f	ff 15 00 00 00
	00		 call	 DWORD PTR __imp_?Find@?$CStringT@DV?$StrTraitMFC_DLL@DV?$ChTraitsCRT@D@ATL@@@@@ATL@@QBEHPBDH@Z
  00335	85 c0		 test	 eax, eax
  00337	79 67		 jns	 SHORT $LN8@GetStringF

; 1362 : 			strData = szData.Left(szData.GetLength() - (szData.GetLength() - 6));

  00339	6a 06		 push	 6
  0033b	8d 45 0c	 lea	 eax, DWORD PTR $T14[ebp]
  0033e	50		 push	 eax
  0033f	8d 4d f0	 lea	 ecx, DWORD PTR _szData$[ebp]
  00342	ff 15 00 00 00
	00		 call	 DWORD PTR __imp_?Left@?$CStringT@DV?$StrTraitMFC_DLL@DV?$ChTraitsCRT@D@ATL@@@@@ATL@@QBE?AV12@H@Z
  00348	50		 push	 eax
  00349	8b cf		 mov	 ecx, edi
  0034b	c6 45 fc 0c	 mov	 BYTE PTR __$EHRec$[ebp+8], 12 ; 0000000cH
  0034f	ff 15 00 00 00
	00		 call	 DWORD PTR __imp_??4?$CStringT@DV?$StrTraitMFC_DLL@DV?$ChTraitsCRT@D@ATL@@@@@ATL@@QAEAAV01@ABV01@@Z
  00355	8d 4d 0c	 lea	 ecx, DWORD PTR $T14[ebp]
  00358	c6 45 fc 06	 mov	 BYTE PTR __$EHRec$[ebp+8], 6
  0035c	ff 15 00 00 00
	00		 call	 DWORD PTR __imp_??1?$CStringT@DV?$StrTraitMFC_DLL@DV?$ChTraitsCRT@D@ATL@@@@@ATL@@QAE@XZ

; 1363 : 			strFormatTrans = InsertString(szFormat, "0", szData.GetLength() - 6, 1);//strFormat + "0";

  00362	68 00 00 00 00	 push	 OFFSET ??_C@_01GBGANLPD@0@
  00367	8d 4d 0c	 lea	 ecx, DWORD PTR $T13[ebp]
  0036a	ff 15 00 00 00
	00		 call	 DWORD PTR __imp_??0?$CStringT@DV?$StrTraitMFC_DLL@DV?$ChTraitsCRT@D@ATL@@@@@ATL@@QAE@PBD@Z
; File C:\Program Files (x86)\Microsoft Visual Studio\2019\Community\VC\Tools\MSVC\14.29.30133\atlmfc\include\atlsimpstr.h

; 519  : 		return( GetData()->nDataLength );

  00370	8b 45 f0	 mov	 eax, DWORD PTR _szData$[ebp]
; File D:\git\src\IBK\IBK_DRFN\ProjSrc\SrcDrfn\Chart\chart_common\DataList\Conversion.cpp

; 1363 : 			strFormatTrans = InsertString(szFormat, "0", szData.GetLength() - 6, 1);//strFormat + "0";

  00373	6a 01		 push	 1
  00375	c6 45 fc 0d	 mov	 BYTE PTR __$EHRec$[ebp+8], 13 ; 0000000dH
; File C:\Program Files (x86)\Microsoft Visual Studio\2019\Community\VC\Tools\MSVC\14.29.30133\atlmfc\include\atlsimpstr.h

; 519  : 		return( GetData()->nDataLength );

  00379	8b 40 f4	 mov	 eax, DWORD PTR [eax-12]
; File D:\git\src\IBK\IBK_DRFN\ProjSrc\SrcDrfn\Chart\chart_common\DataList\Conversion.cpp

; 1363 : 			strFormatTrans = InsertString(szFormat, "0", szData.GetLength() - 6, 1);//strFormat + "0";

  0037c	83 c0 fa	 add	 eax, -6			; fffffffaH
  0037f	50		 push	 eax
  00380	8d 45 0c	 lea	 eax, DWORD PTR $T13[ebp]
  00383	50		 push	 eax
  00384	8d 45 ec	 lea	 eax, DWORD PTR _szFormat$[ebp]
  00387	50		 push	 eax
  00388	8d 45 10	 lea	 eax, DWORD PTR $T23[ebp]
  0038b	50		 push	 eax
  0038c	e8 00 00 00 00	 call	 ?InsertString@CDataConversion@@SA?AV?$CStringT@DV?$StrTraitMFC_DLL@DV?$ChTraitsCRT@D@ATL@@@@@ATL@@ABV23@0HH@Z ; CDataConversion::InsertString
  00391	83 c4 14	 add	 esp, 20			; 00000014H
  00394	8b 75 14	 mov	 esi, DWORD PTR _strFormatTrans$[ebp]
  00397	c6 45 fc 0e	 mov	 BYTE PTR __$EHRec$[ebp+8], 14 ; 0000000eH

; 1364 : 		}

  0039b	e9 02 01 00 00	 jmp	 $LN135@GetStringF
$LN8@GetStringF:

; 1365 : 		else if(szFormat.Find(".") >= 0)	{

  003a0	6a 00		 push	 0
  003a2	68 00 00 00 00	 push	 OFFSET ??_C@_01LFCBOECM@?4@
  003a7	8d 4d ec	 lea	 ecx, DWORD PTR _szFormat$[ebp]
  003aa	ff 15 00 00 00
	00		 call	 DWORD PTR __imp_?Find@?$CStringT@DV?$StrTraitMFC_DLL@DV?$ChTraitsCRT@D@ATL@@@@@ATL@@QBEHPBDH@Z
  003b0	85 c0		 test	 eax, eax
  003b2	0f 88 28 01 00
	00		 js	 $LN132@GetStringF

; 1366 : //			int npow = szData.GetLength() - 6;//string point  
; 1367 : //			int npoint = GetStringDataCount(szFormat, "0");
; 1368 : //			strData = szData.Left(szData.GetLength() - (szData.GetLength() - 6));			
; 1369 : 			int npoint = GetStringDataCount(szFormat, "0"); //   

  003b8	68 00 00 00 00	 push	 OFFSET ??_C@_01GBGANLPD@0@
  003bd	8d 4d 0c	 lea	 ecx, DWORD PTR $T12[ebp]
  003c0	ff 15 00 00 00
	00		 call	 DWORD PTR __imp_??0?$CStringT@DV?$StrTraitMFC_DLL@DV?$ChTraitsCRT@D@ATL@@@@@ATL@@QAE@PBD@Z
  003c6	8d 45 0c	 lea	 eax, DWORD PTR $T12[ebp]
  003c9	c6 45 fc 0f	 mov	 BYTE PTR __$EHRec$[ebp+8], 15 ; 0000000fH
  003cd	50		 push	 eax
  003ce	8d 45 ec	 lea	 eax, DWORD PTR _szFormat$[ebp]
  003d1	50		 push	 eax
  003d2	e8 00 00 00 00	 call	 ?GetStringDataCount@CDataConversion@@SAHABV?$CStringT@DV?$StrTraitMFC_DLL@DV?$ChTraitsCRT@D@ATL@@@@@ATL@@0@Z ; CDataConversion::GetStringDataCount
  003d7	83 c4 08	 add	 esp, 8
  003da	c6 45 fc 06	 mov	 BYTE PTR __$EHRec$[ebp+8], 6
  003de	8b f0		 mov	 esi, eax
  003e0	8d 4d 0c	 lea	 ecx, DWORD PTR $T12[ebp]
  003e3	89 75 10	 mov	 DWORD PTR _npoint$1$[ebp], esi
  003e6	ff 15 00 00 00
	00		 call	 DWORD PTR __imp_??1?$CStringT@DV?$StrTraitMFC_DLL@DV?$ChTraitsCRT@D@ATL@@@@@ATL@@QAE@XZ

; 1370 : 			strData = szData.Left(szData.GetLength() - (szData.GetLength() - 6));

  003ec	6a 06		 push	 6
  003ee	8d 45 0c	 lea	 eax, DWORD PTR $T11[ebp]
  003f1	50		 push	 eax
  003f2	8d 4d f0	 lea	 ecx, DWORD PTR _szData$[ebp]
  003f5	ff 15 00 00 00
	00		 call	 DWORD PTR __imp_?Left@?$CStringT@DV?$StrTraitMFC_DLL@DV?$ChTraitsCRT@D@ATL@@@@@ATL@@QBE?AV12@H@Z
  003fb	50		 push	 eax
  003fc	8b cf		 mov	 ecx, edi
  003fe	c6 45 fc 10	 mov	 BYTE PTR __$EHRec$[ebp+8], 16 ; 00000010H
  00402	ff 15 00 00 00
	00		 call	 DWORD PTR __imp_??4?$CStringT@DV?$StrTraitMFC_DLL@DV?$ChTraitsCRT@D@ATL@@@@@ATL@@QAEAAV01@ABV01@@Z
  00408	8d 4d 0c	 lea	 ecx, DWORD PTR $T11[ebp]
  0040b	c6 45 fc 06	 mov	 BYTE PTR __$EHRec$[ebp+8], 6
  0040f	ff 15 00 00 00
	00		 call	 DWORD PTR __imp_??1?$CStringT@DV?$StrTraitMFC_DLL@DV?$ChTraitsCRT@D@ATL@@@@@ATL@@QAE@XZ
; File C:\Program Files (x86)\Microsoft Visual Studio\2019\Community\VC\Tools\MSVC\14.29.30133\atlmfc\include\atlsimpstr.h

; 519  : 		return( GetData()->nDataLength );

  00415	8b 45 f0	 mov	 eax, DWORD PTR _szData$[ebp]
; File D:\git\src\IBK\IBK_DRFN\ProjSrc\SrcDrfn\Chart\chart_common\DataList\Conversion.cpp

; 1372 : 			if(szData.Find(".") > 0)

  00418	8d 4d f0	 lea	 ecx, DWORD PTR _szData$[ebp]
  0041b	6a 00		 push	 0
  0041d	68 00 00 00 00	 push	 OFFSET ??_C@_01LFCBOECM@?4@
; File C:\Program Files (x86)\Microsoft Visual Studio\2019\Community\VC\Tools\MSVC\14.29.30133\atlmfc\include\atlsimpstr.h

; 519  : 		return( GetData()->nDataLength );

  00422	8b 58 f4	 mov	 ebx, DWORD PTR [eax-12]
; File D:\git\src\IBK\IBK_DRFN\ProjSrc\SrcDrfn\Chart\chart_common\DataList\Conversion.cpp

; 1371 : 			int npow = szData.GetLength() - 6;

  00425	83 c3 fa	 add	 ebx, -6			; fffffffaH

; 1372 : 			if(szData.Find(".") > 0)

  00428	ff 15 00 00 00
	00		 call	 DWORD PTR __imp_?Find@?$CStringT@DV?$StrTraitMFC_DLL@DV?$ChTraitsCRT@D@ATL@@@@@ATL@@QBEHPBDH@Z
  0042e	85 c0		 test	 eax, eax
  00430	7e 1d		 jle	 SHORT $LN11@GetStringF
; File C:\Program Files (x86)\Microsoft Visual Studio\2019\Community\VC\Tools\MSVC\14.29.30133\atlmfc\include\atlsimpstr.h

; 519  : 		return( GetData()->nDataLength );

  00432	8b 45 f0	 mov	 eax, DWORD PTR _szData$[ebp]
; File D:\git\src\IBK\IBK_DRFN\ProjSrc\SrcDrfn\Chart\chart_common\DataList\Conversion.cpp

; 1373 : 				npow -= szData.GetLength() - szData.Find(".");

  00435	8d 4d f0	 lea	 ecx, DWORD PTR _szData$[ebp]
  00438	6a 00		 push	 0
  0043a	68 00 00 00 00	 push	 OFFSET ??_C@_01LFCBOECM@?4@
; File C:\Program Files (x86)\Microsoft Visual Studio\2019\Community\VC\Tools\MSVC\14.29.30133\atlmfc\include\atlsimpstr.h

; 519  : 		return( GetData()->nDataLength );

  0043f	8b 70 f4	 mov	 esi, DWORD PTR [eax-12]
; File D:\git\src\IBK\IBK_DRFN\ProjSrc\SrcDrfn\Chart\chart_common\DataList\Conversion.cpp

; 1373 : 				npow -= szData.GetLength() - szData.Find(".");

  00442	ff 15 00 00 00
	00		 call	 DWORD PTR __imp_?Find@?$CStringT@DV?$StrTraitMFC_DLL@DV?$ChTraitsCRT@D@ATL@@@@@ATL@@QBEHPBDH@Z
  00448	2b c6		 sub	 eax, esi
  0044a	8b 75 10	 mov	 esi, DWORD PTR _npoint$1$[ebp]
  0044d	03 d8		 add	 ebx, eax
$LN11@GetStringF:

; 1374 : 
; 1375 : /*			if(npow - npoint < 0)	{
; 1376 : 				strFormatTrans.Delete(szFormat.Find(".") + 1, npow);
; 1377 : 			}
; 1378 : 			else if(npow - npoint >= 0)	{
; 1379 : */			
; 1380 : 			if(npow > 0)	{

  0044f	85 db		 test	 ebx, ebx
  00451	0f 8e 89 00 00
	00		 jle	 $LN132@GetStringF

; 1381 : 				strFormatTrans.Delete(szFormat.Find(".") - 1, npoint + 1);

  00457	8d 46 01	 lea	 eax, DWORD PTR [esi+1]
  0045a	50		 push	 eax
  0045b	6a 00		 push	 0
  0045d	68 00 00 00 00	 push	 OFFSET ??_C@_01LFCBOECM@?4@
  00462	8d 4d ec	 lea	 ecx, DWORD PTR _szFormat$[ebp]
  00465	ff 15 00 00 00
	00		 call	 DWORD PTR __imp_?Find@?$CStringT@DV?$StrTraitMFC_DLL@DV?$ChTraitsCRT@D@ATL@@@@@ATL@@QBEHPBDH@Z
  0046b	8b 75 14	 mov	 esi, DWORD PTR _strFormatTrans$[ebp]
  0046e	48		 dec	 eax
  0046f	50		 push	 eax
  00470	8b ce		 mov	 ecx, esi
  00472	ff 15 00 00 00
	00		 call	 DWORD PTR __imp_?Delete@?$CStringT@DV?$StrTraitMFC_DLL@DV?$ChTraitsCRT@D@ATL@@@@@ATL@@QAEHHH@Z

; 1382 : 				strFormatTrans = InsertString(strFormatTrans, "0", npow, 1);

  00478	68 00 00 00 00	 push	 OFFSET ??_C@_01GBGANLPD@0@
  0047d	8d 4d 0c	 lea	 ecx, DWORD PTR $T10[ebp]
  00480	ff 15 00 00 00
	00		 call	 DWORD PTR __imp_??0?$CStringT@DV?$StrTraitMFC_DLL@DV?$ChTraitsCRT@D@ATL@@@@@ATL@@QAE@PBD@Z
  00486	6a 01		 push	 1
  00488	53		 push	 ebx
  00489	8d 45 0c	 lea	 eax, DWORD PTR $T10[ebp]
  0048c	c6 45 fc 11	 mov	 BYTE PTR __$EHRec$[ebp+8], 17 ; 00000011H
  00490	50		 push	 eax
  00491	8d 45 10	 lea	 eax, DWORD PTR $T22[ebp]
  00494	56		 push	 esi
  00495	50		 push	 eax
  00496	e8 00 00 00 00	 call	 ?InsertString@CDataConversion@@SA?AV?$CStringT@DV?$StrTraitMFC_DLL@DV?$ChTraitsCRT@D@ATL@@@@@ATL@@ABV23@0HH@Z ; CDataConversion::InsertString
  0049b	83 c4 14	 add	 esp, 20			; 00000014H
  0049e	c6 45 fc 12	 mov	 BYTE PTR __$EHRec$[ebp+8], 18 ; 00000012H
$LN135@GetStringF:

; 1389 : 	}
; 1390 : 
; 1391 : 	strFormatTrans += szFormatType;

  004a2	50		 push	 eax
  004a3	8b ce		 mov	 ecx, esi
  004a5	ff 15 00 00 00
	00		 call	 DWORD PTR __imp_??4?$CStringT@DV?$StrTraitMFC_DLL@DV?$ChTraitsCRT@D@ATL@@@@@ATL@@QAEAAV01@ABV01@@Z
  004ab	8d 4d 10	 lea	 ecx, DWORD PTR $T22[ebp]
  004ae	ff 15 00 00 00
	00		 call	 DWORD PTR __imp_??1?$CStringT@DV?$StrTraitMFC_DLL@DV?$ChTraitsCRT@D@ATL@@@@@ATL@@QAE@XZ
  004b4	8d 4d 0c	 lea	 ecx, DWORD PTR $T10[ebp]
  004b7	c6 45 fc 06	 mov	 BYTE PTR __$EHRec$[ebp+8], 6
  004bb	ff 15 00 00 00
	00		 call	 DWORD PTR __imp_??1?$CStringT@DV?$StrTraitMFC_DLL@DV?$ChTraitsCRT@D@ATL@@@@@ATL@@QAE@XZ
  004c1	eb 20		 jmp	 SHORT $LN7@GetStringF
$LN6@GetStringF:

; 1383 : 			}
; 1384 : 		}
; 1385 : 	}
; 1386 : 	else	{
; 1387 : 		strData = szData;

  004c3	8d 45 f0	 lea	 eax, DWORD PTR _szData$[ebp]
  004c6	8b cf		 mov	 ecx, edi
  004c8	50		 push	 eax
  004c9	ff 15 00 00 00
	00		 call	 DWORD PTR __imp_??4?$CStringT@DV?$StrTraitMFC_DLL@DV?$ChTraitsCRT@D@ATL@@@@@ATL@@QAEAAV01@ABV01@@Z

; 1388 : 		strFormatTrans = szFormat;

  004cf	8b 75 14	 mov	 esi, DWORD PTR _strFormatTrans$[ebp]
  004d2	8d 45 ec	 lea	 eax, DWORD PTR _szFormat$[ebp]
  004d5	50		 push	 eax
  004d6	8b ce		 mov	 ecx, esi
  004d8	ff 15 00 00 00
	00		 call	 DWORD PTR __imp_??4?$CStringT@DV?$StrTraitMFC_DLL@DV?$ChTraitsCRT@D@ATL@@@@@ATL@@QAEAAV01@ABV01@@Z
  004de	eb 03		 jmp	 SHORT $LN7@GetStringF
$LN132@GetStringF:

; 1389 : 	}
; 1390 : 
; 1391 : 	strFormatTrans += szFormatType;

  004e0	8b 75 14	 mov	 esi, DWORD PTR _strFormatTrans$[ebp]
$LN7@GetStringF:
  004e3	8d 45 e4	 lea	 eax, DWORD PTR _szFormatType$[ebp]
  004e6	8b ce		 mov	 ecx, esi
  004e8	50		 push	 eax
  004e9	ff 15 00 00 00
	00		 call	 DWORD PTR __imp_??Y?$CStringT@DV?$StrTraitMFC_DLL@DV?$ChTraitsCRT@D@ATL@@@@@ATL@@QAEAAV01@ABV?$CSimpleStringT@D$00@1@@Z

; 1392 : 
; 1393 : 	strData = GetStringFormatTrans(strData, strFormatTrans);

  004ef	56		 push	 esi
  004f0	8d 45 0c	 lea	 eax, DWORD PTR $T9[ebp]
  004f3	57		 push	 edi
  004f4	50		 push	 eax
  004f5	e8 00 00 00 00	 call	 ?GetStringFormatTrans@CDataConversion@@SA?AV?$CStringT@DV?$StrTraitMFC_DLL@DV?$ChTraitsCRT@D@ATL@@@@@ATL@@ABV23@0@Z ; CDataConversion::GetStringFormatTrans
  004fa	83 c4 0c	 add	 esp, 12			; 0000000cH
  004fd	50		 push	 eax
  004fe	8b cf		 mov	 ecx, edi
  00500	c6 45 fc 13	 mov	 BYTE PTR __$EHRec$[ebp+8], 19 ; 00000013H
  00504	ff 15 00 00 00
	00		 call	 DWORD PTR __imp_??4?$CStringT@DV?$StrTraitMFC_DLL@DV?$ChTraitsCRT@D@ATL@@@@@ATL@@QAEAAV01@ABV01@@Z
  0050a	8d 4d 0c	 lea	 ecx, DWORD PTR $T9[ebp]
  0050d	ff 15 00 00 00
	00		 call	 DWORD PTR __imp_??1?$CStringT@DV?$StrTraitMFC_DLL@DV?$ChTraitsCRT@D@ATL@@@@@ATL@@QAE@XZ
; File C:\Program Files (x86)\Microsoft Visual Studio\2019\Community\VC\Tools\MSVC\14.29.30133\atlmfc\include\atlsimpstr.h

; 519  : 		return( GetData()->nDataLength );

  00513	8b 07		 mov	 eax, DWORD PTR [edi]
; File D:\git\src\IBK\IBK_DRFN\ProjSrc\SrcDrfn\Chart\chart_common\DataList\Conversion.cpp

; 1396 : 	return strData.GetLength();	

  00515	8d 4d f0	 lea	 ecx, DWORD PTR _szData$[ebp]
; File C:\Program Files (x86)\Microsoft Visual Studio\2019\Community\VC\Tools\MSVC\14.29.30133\atlmfc\include\atlsimpstr.h

; 519  : 		return( GetData()->nDataLength );

  00518	8b 70 f4	 mov	 esi, DWORD PTR [eax-12]
; File D:\git\src\IBK\IBK_DRFN\ProjSrc\SrcDrfn\Chart\chart_common\DataList\Conversion.cpp

; 1396 : 	return strData.GetLength();	

  0051b	ff 15 00 00 00
	00		 call	 DWORD PTR __imp_??1?$CStringT@DV?$StrTraitMFC_DLL@DV?$ChTraitsCRT@D@ATL@@@@@ATL@@QAE@XZ
  00521	8d 4d ec	 lea	 ecx, DWORD PTR _szFormat$[ebp]
  00524	ff 15 00 00 00
	00		 call	 DWORD PTR __imp_??1?$CStringT@DV?$StrTraitMFC_DLL@DV?$ChTraitsCRT@D@ATL@@@@@ATL@@QAE@XZ
  0052a	8d 4d e4	 lea	 ecx, DWORD PTR _szFormatType$[ebp]
  0052d	ff 15 00 00 00
	00		 call	 DWORD PTR __imp_??1?$CStringT@DV?$StrTraitMFC_DLL@DV?$ChTraitsCRT@D@ATL@@@@@ATL@@QAE@XZ
  00533	8b c6		 mov	 eax, esi

; 1397 : }

  00535	8b 4d f4	 mov	 ecx, DWORD PTR __$EHRec$[ebp]
  00538	64 89 0d 00 00
	00 00		 mov	 DWORD PTR fs:0, ecx
  0053f	59		 pop	 ecx
  00540	5f		 pop	 edi
  00541	5e		 pop	 esi
  00542	5b		 pop	 ebx
  00543	8b e5		 mov	 esp, ebp
  00545	5d		 pop	 ebp
  00546	c3		 ret	 0
_TEXT	ENDS
;	COMDAT text$x
text$x	SEGMENT
__unwindfunclet$?GetStringFormatTransCutoff@CDataConversion@@SAHABNABV?$CStringT@DV?$StrTraitMFC_DLL@DV?$ChTraitsCRT@D@ATL@@@@@ATL@@AAV23@2@Z$0:
  00000	8d 4d e4	 lea	 ecx, DWORD PTR _szFormatType$[ebp]
  00003	ff 25 00 00 00
	00		 jmp	 DWORD PTR __imp_??1?$CStringT@DV?$StrTraitMFC_DLL@DV?$ChTraitsCRT@D@ATL@@@@@ATL@@QAE@XZ
__unwindfunclet$?GetStringFormatTransCutoff@CDataConversion@@SAHABNABV?$CStringT@DV?$StrTraitMFC_DLL@DV?$ChTraitsCRT@D@ATL@@@@@ATL@@AAV23@2@Z$1:
  00009	8d 4d ec	 lea	 ecx, DWORD PTR _szFormat$[ebp]
  0000c	ff 25 00 00 00
	00		 jmp	 DWORD PTR __imp_??1?$CStringT@DV?$StrTraitMFC_DLL@DV?$ChTraitsCRT@D@ATL@@@@@ATL@@QAE@XZ
__unwindfunclet$?GetStringFormatTransCutoff@CDataConversion@@SAHABNABV?$CStringT@DV?$StrTraitMFC_DLL@DV?$ChTraitsCRT@D@ATL@@@@@ATL@@AAV23@2@Z$2:
  00012	8b 45 e8	 mov	 eax, DWORD PTR $T8[ebp]
  00015	83 e0 01	 and	 eax, 1
  00018	0f 84 0d 00 00
	00		 je	 $LN25@GetStringF
  0001e	83 65 e8 fe	 and	 DWORD PTR $T8[ebp], -2	; fffffffeH
  00022	8d 4d dc	 lea	 ecx, DWORD PTR $T5[ebp]
  00025	ff 25 00 00 00
	00		 jmp	 DWORD PTR __imp_??1?$CStringT@DV?$StrTraitMFC_DLL@DV?$ChTraitsCRT@D@ATL@@@@@ATL@@QAE@XZ
$LN25@GetStringF:
  0002b	c3		 ret	 0
__unwindfunclet$?GetStringFormatTransCutoff@CDataConversion@@SAHABNABV?$CStringT@DV?$StrTraitMFC_DLL@DV?$ChTraitsCRT@D@ATL@@@@@ATL@@AAV23@2@Z$3:
  0002c	8b 45 e8	 mov	 eax, DWORD PTR $T8[ebp]
  0002f	83 e0 02	 and	 eax, 2
  00032	0f 84 0d 00 00
	00		 je	 $LN27@GetStringF
  00038	83 65 e8 fd	 and	 DWORD PTR $T8[ebp], -3	; fffffffdH
  0003c	8d 4d e0	 lea	 ecx, DWORD PTR $T7[ebp]
  0003f	ff 25 00 00 00
	00		 jmp	 DWORD PTR __imp_??1?$CStringT@DV?$StrTraitMFC_DLL@DV?$ChTraitsCRT@D@ATL@@@@@ATL@@QAE@XZ
$LN27@GetStringF:
  00045	c3		 ret	 0
__unwindfunclet$?GetStringFormatTransCutoff@CDataConversion@@SAHABNABV?$CStringT@DV?$StrTraitMFC_DLL@DV?$ChTraitsCRT@D@ATL@@@@@ATL@@AAV23@2@Z$4:
  00046	8d 4d 0c	 lea	 ecx, DWORD PTR $T18[ebp]
  00049	ff 25 00 00 00
	00		 jmp	 DWORD PTR __imp_??1?$CStringT@DV?$StrTraitMFC_DLL@DV?$ChTraitsCRT@D@ATL@@@@@ATL@@QAE@XZ
__unwindfunclet$?GetStringFormatTransCutoff@CDataConversion@@SAHABNABV?$CStringT@DV?$StrTraitMFC_DLL@DV?$ChTraitsCRT@D@ATL@@@@@ATL@@AAV23@2@Z$5:
  0004f	8d 4d 0c	 lea	 ecx, DWORD PTR $T17[ebp]
  00052	ff 25 00 00 00
	00		 jmp	 DWORD PTR __imp_??1?$CStringT@DV?$StrTraitMFC_DLL@DV?$ChTraitsCRT@D@ATL@@@@@ATL@@QAE@XZ
__unwindfunclet$?GetStringFormatTransCutoff@CDataConversion@@SAHABNABV?$CStringT@DV?$StrTraitMFC_DLL@DV?$ChTraitsCRT@D@ATL@@@@@ATL@@AAV23@2@Z$6:
  00058	8d 4d f0	 lea	 ecx, DWORD PTR _szData$[ebp]
  0005b	ff 25 00 00 00
	00		 jmp	 DWORD PTR __imp_??1?$CStringT@DV?$StrTraitMFC_DLL@DV?$ChTraitsCRT@D@ATL@@@@@ATL@@QAE@XZ
__unwindfunclet$?GetStringFormatTransCutoff@CDataConversion@@SAHABNABV?$CStringT@DV?$StrTraitMFC_DLL@DV?$ChTraitsCRT@D@ATL@@@@@ATL@@AAV23@2@Z$7:
  00061	8b 45 e8	 mov	 eax, DWORD PTR $T8[ebp]
  00064	83 e0 04	 and	 eax, 4
  00067	0f 84 0d 00 00
	00		 je	 $LN34@GetStringF
  0006d	83 65 e8 fb	 and	 DWORD PTR $T8[ebp], -5	; fffffffbH
  00071	8d 4d dc	 lea	 ecx, DWORD PTR $T4[ebp]
  00074	ff 25 00 00 00
	00		 jmp	 DWORD PTR __imp_??1?$CStringT@DV?$StrTraitMFC_DLL@DV?$ChTraitsCRT@D@ATL@@@@@ATL@@QAE@XZ
$LN34@GetStringF:
  0007a	c3		 ret	 0
__unwindfunclet$?GetStringFormatTransCutoff@CDataConversion@@SAHABNABV?$CStringT@DV?$StrTraitMFC_DLL@DV?$ChTraitsCRT@D@ATL@@@@@ATL@@AAV23@2@Z$8:
  0007b	8d 4d 0c	 lea	 ecx, DWORD PTR $T16[ebp]
  0007e	ff 25 00 00 00
	00		 jmp	 DWORD PTR __imp_??1?$CStringT@DV?$StrTraitMFC_DLL@DV?$ChTraitsCRT@D@ATL@@@@@ATL@@QAE@XZ
__unwindfunclet$?GetStringFormatTransCutoff@CDataConversion@@SAHABNABV?$CStringT@DV?$StrTraitMFC_DLL@DV?$ChTraitsCRT@D@ATL@@@@@ATL@@AAV23@2@Z$9:
  00084	8d 4d 0c	 lea	 ecx, DWORD PTR $T15[ebp]
  00087	ff 25 00 00 00
	00		 jmp	 DWORD PTR __imp_??1?$CStringT@DV?$StrTraitMFC_DLL@DV?$ChTraitsCRT@D@ATL@@@@@ATL@@QAE@XZ
__unwindfunclet$?GetStringFormatTransCutoff@CDataConversion@@SAHABNABV?$CStringT@DV?$StrTraitMFC_DLL@DV?$ChTraitsCRT@D@ATL@@@@@ATL@@AAV23@2@Z$10:
  0008d	8d 4d dc	 lea	 ecx, DWORD PTR $T3[ebp]
  00090	ff 25 00 00 00
	00		 jmp	 DWORD PTR __imp_??1?$CStringT@DV?$StrTraitMFC_DLL@DV?$ChTraitsCRT@D@ATL@@@@@ATL@@QAE@XZ
__unwindfunclet$?GetStringFormatTransCutoff@CDataConversion@@SAHABNABV?$CStringT@DV?$StrTraitMFC_DLL@DV?$ChTraitsCRT@D@ATL@@@@@ATL@@AAV23@2@Z$11:
  00096	8b 45 e8	 mov	 eax, DWORD PTR $T8[ebp]
  00099	83 e0 08	 and	 eax, 8
  0009c	0f 84 0d 00 00
	00		 je	 $LN40@GetStringF
  000a2	83 65 e8 f7	 and	 DWORD PTR $T8[ebp], -9	; fffffff7H
  000a6	8d 4d e0	 lea	 ecx, DWORD PTR $T6[ebp]
  000a9	ff 25 00 00 00
	00		 jmp	 DWORD PTR __imp_??1?$CStringT@DV?$StrTraitMFC_DLL@DV?$ChTraitsCRT@D@ATL@@@@@ATL@@QAE@XZ
$LN40@GetStringF:
  000af	c3		 ret	 0
__unwindfunclet$?GetStringFormatTransCutoff@CDataConversion@@SAHABNABV?$CStringT@DV?$StrTraitMFC_DLL@DV?$ChTraitsCRT@D@ATL@@@@@ATL@@AAV23@2@Z$13:
  000b0	8d 4d 0c	 lea	 ecx, DWORD PTR $T14[ebp]
  000b3	ff 25 00 00 00
	00		 jmp	 DWORD PTR __imp_??1?$CStringT@DV?$StrTraitMFC_DLL@DV?$ChTraitsCRT@D@ATL@@@@@ATL@@QAE@XZ
__unwindfunclet$?GetStringFormatTransCutoff@CDataConversion@@SAHABNABV?$CStringT@DV?$StrTraitMFC_DLL@DV?$ChTraitsCRT@D@ATL@@@@@ATL@@AAV23@2@Z$14:
  000b9	8d 4d 0c	 lea	 ecx, DWORD PTR $T13[ebp]
  000bc	ff 25 00 00 00
	00		 jmp	 DWORD PTR __imp_??1?$CStringT@DV?$StrTraitMFC_DLL@DV?$ChTraitsCRT@D@ATL@@@@@ATL@@QAE@XZ
__unwindfunclet$?GetStringFormatTransCutoff@CDataConversion@@SAHABNABV?$CStringT@DV?$StrTraitMFC_DLL@DV?$ChTraitsCRT@D@ATL@@@@@ATL@@AAV23@2@Z$15:
  000c2	8d 4d 10	 lea	 ecx, DWORD PTR $T23[ebp]
  000c5	ff 25 00 00 00
	00		 jmp	 DWORD PTR __imp_??1?$CStringT@DV?$StrTraitMFC_DLL@DV?$ChTraitsCRT@D@ATL@@@@@ATL@@QAE@XZ
__unwindfunclet$?GetStringFormatTransCutoff@CDataConversion@@SAHABNABV?$CStringT@DV?$StrTraitMFC_DLL@DV?$ChTraitsCRT@D@ATL@@@@@ATL@@AAV23@2@Z$16:
  000cb	8d 4d 0c	 lea	 ecx, DWORD PTR $T12[ebp]
  000ce	ff 25 00 00 00
	00		 jmp	 DWORD PTR __imp_??1?$CStringT@DV?$StrTraitMFC_DLL@DV?$ChTraitsCRT@D@ATL@@@@@ATL@@QAE@XZ
__unwindfunclet$?GetStringFormatTransCutoff@CDataConversion@@SAHABNABV?$CStringT@DV?$StrTraitMFC_DLL@DV?$ChTraitsCRT@D@ATL@@@@@ATL@@AAV23@2@Z$17:
  000d4	8d 4d 0c	 lea	 ecx, DWORD PTR $T11[ebp]
  000d7	ff 25 00 00 00
	00		 jmp	 DWORD PTR __imp_??1?$CStringT@DV?$StrTraitMFC_DLL@DV?$ChTraitsCRT@D@ATL@@@@@ATL@@QAE@XZ
__unwindfunclet$?GetStringFormatTransCutoff@CDataConversion@@SAHABNABV?$CStringT@DV?$StrTraitMFC_DLL@DV?$ChTraitsCRT@D@ATL@@@@@ATL@@AAV23@2@Z$18:
  000dd	8d 4d 0c	 lea	 ecx, DWORD PTR $T10[ebp]
  000e0	ff 25 00 00 00
	00		 jmp	 DWORD PTR __imp_??1?$CStringT@DV?$StrTraitMFC_DLL@DV?$ChTraitsCRT@D@ATL@@@@@ATL@@QAE@XZ
__unwindfunclet$?GetStringFormatTransCutoff@CDataConversion@@SAHABNABV?$CStringT@DV?$StrTraitMFC_DLL@DV?$ChTraitsCRT@D@ATL@@@@@ATL@@AAV23@2@Z$19:
  000e6	8d 4d 10	 lea	 ecx, DWORD PTR $T22[ebp]
  000e9	ff 25 00 00 00
	00		 jmp	 DWORD PTR __imp_??1?$CStringT@DV?$StrTraitMFC_DLL@DV?$ChTraitsCRT@D@ATL@@@@@ATL@@QAE@XZ
__unwindfunclet$?GetStringFormatTransCutoff@CDataConversion@@SAHABNABV?$CStringT@DV?$StrTraitMFC_DLL@DV?$ChTraitsCRT@D@ATL@@@@@ATL@@AAV23@2@Z$20:
  000ef	8d 4d 0c	 lea	 ecx, DWORD PTR $T9[ebp]
  000f2	ff 25 00 00 00
	00		 jmp	 DWORD PTR __imp_??1?$CStringT@DV?$StrTraitMFC_DLL@DV?$ChTraitsCRT@D@ATL@@@@@ATL@@QAE@XZ
  000f8	cc		 int	 3
  000f9	cc		 int	 3
  000fa	cc		 int	 3
  000fb	cc		 int	 3
  000fc	cc		 int	 3
__ehhandler$?GetStringFormatTransCutoff@CDataConversion@@SAHABNABV?$CStringT@DV?$StrTraitMFC_DLL@DV?$ChTraitsCRT@D@ATL@@@@@ATL@@AAV23@2@Z:
  000fd	90		 npad	 1
  000fe	90		 npad	 1
  000ff	8b 54 24 08	 mov	 edx, DWORD PTR [esp+8]
  00103	8d 42 0c	 lea	 eax, DWORD PTR [edx+12]
  00106	8b 4a d8	 mov	 ecx, DWORD PTR [edx-40]
  00109	33 c8		 xor	 ecx, eax
  0010b	e8 00 00 00 00	 call	 @__security_check_cookie@4
  00110	b8 00 00 00 00	 mov	 eax, OFFSET __ehfuncinfo$?GetStringFormatTransCutoff@CDataConversion@@SAHABNABV?$CStringT@DV?$StrTraitMFC_DLL@DV?$ChTraitsCRT@D@ATL@@@@@ATL@@AAV23@2@Z
  00115	e9 00 00 00 00	 jmp	 ___CxxFrameHandler3
text$x	ENDS
?GetStringFormatTransCutoff@CDataConversion@@SAHABNABV?$CStringT@DV?$StrTraitMFC_DLL@DV?$ChTraitsCRT@D@ATL@@@@@ATL@@AAV23@2@Z ENDP ; CDataConversion::GetStringFormatTransCutoff
; Function compile flags: /Ogtp
; File D:\git\src\IBK\IBK_DRFN\ProjSrc\SrcDrfn\Chart\chart_common\DataList\Conversion.cpp
; File C:\Program Files (x86)\Microsoft Visual Studio\2019\Community\VC\Tools\MSVC\14.29.30133\atlmfc\include\atlsimpstr.h
; File D:\git\src\IBK\IBK_DRFN\ProjSrc\SrcDrfn\Chart\chart_common\DataList\Conversion.cpp
; File C:\Program Files (x86)\Microsoft Visual Studio\2019\Community\VC\Tools\MSVC\14.29.30133\atlmfc\include\cstringt.h
; File D:\git\src\IBK\IBK_DRFN\ProjSrc\SrcDrfn\Chart\chart_common\DataList\Conversion.cpp
; File C:\Program Files (x86)\Microsoft Visual Studio\2019\Community\VC\Tools\MSVC\14.29.30133\atlmfc\include\cstringt.h
; File D:\git\src\IBK\IBK_DRFN\ProjSrc\SrcDrfn\Chart\chart_common\DataList\Conversion.cpp
; File C:\Program Files (x86)\Microsoft Visual Studio\2019\Community\VC\Tools\MSVC\14.29.30133\atlmfc\include\cstringt.h
; File D:\git\src\IBK\IBK_DRFN\ProjSrc\SrcDrfn\Chart\chart_common\DataList\Conversion.cpp
; File C:\Program Files (x86)\Microsoft Visual Studio\2019\Community\VC\Tools\MSVC\14.29.30133\atlmfc\include\cstringt.h
; File D:\git\src\IBK\IBK_DRFN\ProjSrc\SrcDrfn\Chart\chart_common\DataList\Conversion.cpp
;	COMDAT ?GetCompartType@CDataConversion@@SA?AV?$CStringT@DV?$StrTraitMFC_DLL@DV?$ChTraitsCRT@D@ATL@@@@@ATL@@ABV23@00@Z
_TEXT	SEGMENT
$T2 = -20						; size = 4
_szcurType$ = -16					; size = 4
__$EHRec$ = -12						; size = 12
___$ReturnUdt$ = 8					; size = 4
_sznextType$ = 12					; size = 4
_strFormat$ = 12					; size = 4
_strCompartDate$ = 16					; size = 4
_strCompartTime$ = 20					; size = 4
?GetCompartType@CDataConversion@@SA?AV?$CStringT@DV?$StrTraitMFC_DLL@DV?$ChTraitsCRT@D@ATL@@@@@ATL@@ABV23@00@Z PROC ; CDataConversion::GetCompartType, COMDAT

; 1640 : {

  00000	55		 push	 ebp
  00001	8b ec		 mov	 ebp, esp
  00003	6a ff		 push	 -1
  00005	68 00 00 00 00	 push	 __ehhandler$?GetCompartType@CDataConversion@@SA?AV?$CStringT@DV?$StrTraitMFC_DLL@DV?$ChTraitsCRT@D@ATL@@@@@ATL@@ABV23@00@Z
  0000a	64 a1 00 00 00
	00		 mov	 eax, DWORD PTR fs:0
  00010	50		 push	 eax
  00011	83 ec 08	 sub	 esp, 8
  00014	56		 push	 esi
  00015	a1 00 00 00 00	 mov	 eax, DWORD PTR ___security_cookie
  0001a	33 c5		 xor	 eax, ebp
  0001c	50		 push	 eax
  0001d	8d 45 f4	 lea	 eax, DWORD PTR __$EHRec$[ebp]
  00020	64 a3 00 00 00
	00		 mov	 DWORD PTR fs:0, eax

; 1641 : 	CString szcurType = strFormat.Left(1);

  00026	8b 75 0c	 mov	 esi, DWORD PTR _strFormat$[ebp]
  00029	8d 45 f0	 lea	 eax, DWORD PTR _szcurType$[ebp]
  0002c	6a 01		 push	 1
  0002e	50		 push	 eax
  0002f	8b ce		 mov	 ecx, esi
  00031	ff 15 00 00 00
	00		 call	 DWORD PTR __imp_?Left@?$CStringT@DV?$StrTraitMFC_DLL@DV?$ChTraitsCRT@D@ATL@@@@@ATL@@QBE?AV12@H@Z

; 1642 : 	CString sznextType = "";

  00037	68 00 00 00 00	 push	 OFFSET ??_C@_00CNPNBAHC@@
  0003c	8d 4d 0c	 lea	 ecx, DWORD PTR _sznextType$[ebp]
  0003f	c7 45 fc 00 00
	00 00		 mov	 DWORD PTR __$EHRec$[ebp+8], 0
  00046	ff 15 00 00 00
	00		 call	 DWORD PTR __imp_??0?$CStringT@DV?$StrTraitMFC_DLL@DV?$ChTraitsCRT@D@ATL@@@@@ATL@@QAE@PBD@Z
; File C:\Program Files (x86)\Microsoft Visual Studio\2019\Community\VC\Tools\MSVC\14.29.30133\atlmfc\include\atlsimpstr.h

; 519  : 		return( GetData()->nDataLength );

  0004c	8b 06		 mov	 eax, DWORD PTR [esi]
; File D:\git\src\IBK\IBK_DRFN\ProjSrc\SrcDrfn\Chart\chart_common\DataList\Conversion.cpp

; 1642 : 	CString sznextType = "";

  0004e	c6 45 fc 01	 mov	 BYTE PTR __$EHRec$[ebp+8], 1

; 1643 : 	if(strFormat.GetLength() > 3)

  00052	83 78 f4 03	 cmp	 DWORD PTR [eax-12], 3
  00056	7e 2b		 jle	 SHORT $LN2@GetCompart

; 1644 : 		sznextType = strFormat.Mid(3, 1);

  00058	6a 01		 push	 1
  0005a	6a 03		 push	 3
  0005c	8d 45 ec	 lea	 eax, DWORD PTR $T2[ebp]
  0005f	8b ce		 mov	 ecx, esi
  00061	50		 push	 eax
  00062	ff 15 00 00 00
	00		 call	 DWORD PTR __imp_?Mid@?$CStringT@DV?$StrTraitMFC_DLL@DV?$ChTraitsCRT@D@ATL@@@@@ATL@@QBE?AV12@HH@Z
  00068	50		 push	 eax
  00069	8d 4d 0c	 lea	 ecx, DWORD PTR _sznextType$[ebp]
  0006c	c6 45 fc 02	 mov	 BYTE PTR __$EHRec$[ebp+8], 2
  00070	ff 15 00 00 00
	00		 call	 DWORD PTR __imp_??4?$CStringT@DV?$StrTraitMFC_DLL@DV?$ChTraitsCRT@D@ATL@@@@@ATL@@QAEAAV01@ABV01@@Z
  00076	8d 4d ec	 lea	 ecx, DWORD PTR $T2[ebp]
  00079	c6 45 fc 01	 mov	 BYTE PTR __$EHRec$[ebp+8], 1
  0007d	ff 15 00 00 00
	00		 call	 DWORD PTR __imp_??1?$CStringT@DV?$StrTraitMFC_DLL@DV?$ChTraitsCRT@D@ATL@@@@@ATL@@QAE@XZ
$LN2@GetCompart:
; File C:\Program Files (x86)\Microsoft Visual Studio\2019\Community\VC\Tools\MSVC\14.29.30133\atlmfc\include\cstringt.h

; 2486 : 		return(str1.Compare(psz2) == 0);

  00083	68 00 00 00 00	 push	 OFFSET ??_C@_01NFFPALBN@Y@
  00088	8d 4d f0	 lea	 ecx, DWORD PTR _szcurType$[ebp]
  0008b	ff 15 00 00 00
	00		 call	 DWORD PTR __imp_?Compare@?$CStringT@DV?$StrTraitMFC_DLL@DV?$ChTraitsCRT@D@ATL@@@@@ATL@@QBEHPBD@Z
  00091	85 c0		 test	 eax, eax
; File D:\git\src\IBK\IBK_DRFN\ProjSrc\SrcDrfn\Chart\chart_common\DataList\Conversion.cpp

; 1646 : 	if((szcurType == "Y" || szcurType == "M" || szcurType == "D") && !(sznextType == "S"))

  00093	74 24		 je	 SHORT $LN5@GetCompart
; File C:\Program Files (x86)\Microsoft Visual Studio\2019\Community\VC\Tools\MSVC\14.29.30133\atlmfc\include\cstringt.h

; 2486 : 		return(str1.Compare(psz2) == 0);

  00095	68 00 00 00 00	 push	 OFFSET ??_C@_01PLPBNMEI@M@
  0009a	8d 4d f0	 lea	 ecx, DWORD PTR _szcurType$[ebp]
  0009d	ff 15 00 00 00
	00		 call	 DWORD PTR __imp_?Compare@?$CStringT@DV?$StrTraitMFC_DLL@DV?$ChTraitsCRT@D@ATL@@@@@ATL@@QBEHPBD@Z
  000a3	85 c0		 test	 eax, eax
; File D:\git\src\IBK\IBK_DRFN\ProjSrc\SrcDrfn\Chart\chart_common\DataList\Conversion.cpp

; 1646 : 	if((szcurType == "Y" || szcurType == "M" || szcurType == "D") && !(sznextType == "S"))

  000a5	74 12		 je	 SHORT $LN5@GetCompart
; File C:\Program Files (x86)\Microsoft Visual Studio\2019\Community\VC\Tools\MSVC\14.29.30133\atlmfc\include\cstringt.h

; 2486 : 		return(str1.Compare(psz2) == 0);

  000a7	68 00 00 00 00	 push	 OFFSET ??_C@_01CKDDGHAB@D@
  000ac	8d 4d f0	 lea	 ecx, DWORD PTR _szcurType$[ebp]
  000af	ff 15 00 00 00
	00		 call	 DWORD PTR __imp_?Compare@?$CStringT@DV?$StrTraitMFC_DLL@DV?$ChTraitsCRT@D@ATL@@@@@ATL@@QBEHPBD@Z
  000b5	85 c0		 test	 eax, eax
; File D:\git\src\IBK\IBK_DRFN\ProjSrc\SrcDrfn\Chart\chart_common\DataList\Conversion.cpp

; 1646 : 	if((szcurType == "Y" || szcurType == "M" || szcurType == "D") && !(sznextType == "S"))

  000b7	75 17		 jne	 SHORT $LN3@GetCompart
$LN5@GetCompart:
; File C:\Program Files (x86)\Microsoft Visual Studio\2019\Community\VC\Tools\MSVC\14.29.30133\atlmfc\include\cstringt.h

; 2486 : 		return(str1.Compare(psz2) == 0);

  000b9	68 00 00 00 00	 push	 OFFSET ??_C@_01CPLAODJH@S@
  000be	8d 4d 0c	 lea	 ecx, DWORD PTR _sznextType$[ebp]
  000c1	ff 15 00 00 00
	00		 call	 DWORD PTR __imp_?Compare@?$CStringT@DV?$StrTraitMFC_DLL@DV?$ChTraitsCRT@D@ATL@@@@@ATL@@QBEHPBD@Z
  000c7	85 c0		 test	 eax, eax
; File D:\git\src\IBK\IBK_DRFN\ProjSrc\SrcDrfn\Chart\chart_common\DataList\Conversion.cpp

; 1646 : 	if((szcurType == "Y" || szcurType == "M" || szcurType == "D") && !(sznextType == "S"))

  000c9	74 05		 je	 SHORT $LN3@GetCompart

; 1647 : 		return strCompartDate;

  000cb	ff 75 10	 push	 DWORD PTR _strCompartDate$[ebp]
  000ce	eb 03		 jmp	 SHORT $LN25@GetCompart
$LN3@GetCompart:

; 1648 : 	else
; 1649 : 		return strCompartTime;

  000d0	ff 75 14	 push	 DWORD PTR _strCompartTime$[ebp]
$LN25@GetCompart:

; 1650 : }

  000d3	8b 4d 08	 mov	 ecx, DWORD PTR ___$ReturnUdt$[ebp]
  000d6	ff 15 00 00 00
	00		 call	 DWORD PTR __imp_??0?$CStringT@DV?$StrTraitMFC_DLL@DV?$ChTraitsCRT@D@ATL@@@@@ATL@@QAE@ABV01@@Z
  000dc	8d 4d 0c	 lea	 ecx, DWORD PTR _sznextType$[ebp]
  000df	ff 15 00 00 00
	00		 call	 DWORD PTR __imp_??1?$CStringT@DV?$StrTraitMFC_DLL@DV?$ChTraitsCRT@D@ATL@@@@@ATL@@QAE@XZ
  000e5	8d 4d f0	 lea	 ecx, DWORD PTR _szcurType$[ebp]
  000e8	ff 15 00 00 00
	00		 call	 DWORD PTR __imp_??1?$CStringT@DV?$StrTraitMFC_DLL@DV?$ChTraitsCRT@D@ATL@@@@@ATL@@QAE@XZ
  000ee	8b 45 08	 mov	 eax, DWORD PTR ___$ReturnUdt$[ebp]
  000f1	8b 4d f4	 mov	 ecx, DWORD PTR __$EHRec$[ebp]
  000f4	64 89 0d 00 00
	00 00		 mov	 DWORD PTR fs:0, ecx
  000fb	59		 pop	 ecx
  000fc	5e		 pop	 esi
  000fd	8b e5		 mov	 esp, ebp
  000ff	5d		 pop	 ebp
  00100	c3		 ret	 0
_TEXT	ENDS
;	COMDAT text$x
text$x	SEGMENT
__unwindfunclet$?GetCompartType@CDataConversion@@SA?AV?$CStringT@DV?$StrTraitMFC_DLL@DV?$ChTraitsCRT@D@ATL@@@@@ATL@@ABV23@00@Z$0:
  00000	8d 4d f0	 lea	 ecx, DWORD PTR _szcurType$[ebp]
  00003	ff 25 00 00 00
	00		 jmp	 DWORD PTR __imp_??1?$CStringT@DV?$StrTraitMFC_DLL@DV?$ChTraitsCRT@D@ATL@@@@@ATL@@QAE@XZ
__unwindfunclet$?GetCompartType@CDataConversion@@SA?AV?$CStringT@DV?$StrTraitMFC_DLL@DV?$ChTraitsCRT@D@ATL@@@@@ATL@@ABV23@00@Z$1:
  00009	8d 4d 0c	 lea	 ecx, DWORD PTR _sznextType$[ebp]
  0000c	ff 25 00 00 00
	00		 jmp	 DWORD PTR __imp_??1?$CStringT@DV?$StrTraitMFC_DLL@DV?$ChTraitsCRT@D@ATL@@@@@ATL@@QAE@XZ
__unwindfunclet$?GetCompartType@CDataConversion@@SA?AV?$CStringT@DV?$StrTraitMFC_DLL@DV?$ChTraitsCRT@D@ATL@@@@@ATL@@ABV23@00@Z$2:
  00012	8d 4d ec	 lea	 ecx, DWORD PTR $T2[ebp]
  00015	ff 25 00 00 00
	00		 jmp	 DWORD PTR __imp_??1?$CStringT@DV?$StrTraitMFC_DLL@DV?$ChTraitsCRT@D@ATL@@@@@ATL@@QAE@XZ
  0001b	cc		 int	 3
  0001c	cc		 int	 3
  0001d	cc		 int	 3
  0001e	cc		 int	 3
  0001f	cc		 int	 3
__ehhandler$?GetCompartType@CDataConversion@@SA?AV?$CStringT@DV?$StrTraitMFC_DLL@DV?$ChTraitsCRT@D@ATL@@@@@ATL@@ABV23@00@Z:
  00020	90		 npad	 1
  00021	90		 npad	 1
  00022	8b 54 24 08	 mov	 edx, DWORD PTR [esp+8]
  00026	8d 42 0c	 lea	 eax, DWORD PTR [edx+12]
  00029	8b 4a f0	 mov	 ecx, DWORD PTR [edx-16]
  0002c	33 c8		 xor	 ecx, eax
  0002e	e8 00 00 00 00	 call	 @__security_check_cookie@4
  00033	b8 00 00 00 00	 mov	 eax, OFFSET __ehfuncinfo$?GetCompartType@CDataConversion@@SA?AV?$CStringT@DV?$StrTraitMFC_DLL@DV?$ChTraitsCRT@D@ATL@@@@@ATL@@ABV23@00@Z
  00038	e9 00 00 00 00	 jmp	 ___CxxFrameHandler3
text$x	ENDS
?GetCompartType@CDataConversion@@SA?AV?$CStringT@DV?$StrTraitMFC_DLL@DV?$ChTraitsCRT@D@ATL@@@@@ATL@@ABV23@00@Z ENDP ; CDataConversion::GetCompartType
; Function compile flags: /Ogtp
; File D:\git\src\IBK\IBK_DRFN\ProjSrc\SrcDrfn\Chart\chart_common\DataList\Conversion.cpp
; File C:\Program Files (x86)\Microsoft Visual Studio\2019\Community\VC\Tools\MSVC\14.29.30133\atlmfc\include\atlsimpstr.h
; File D:\git\src\IBK\IBK_DRFN\ProjSrc\SrcDrfn\Chart\chart_common\DataList\Conversion.cpp
; File C:\Program Files (x86)\Microsoft Visual Studio\2019\Community\VC\Tools\MSVC\14.29.30133\atlmfc\include\atlsimpstr.h
; File D:\git\src\IBK\IBK_DRFN\ProjSrc\SrcDrfn\Chart\chart_common\DataList\Conversion.cpp
; File C:\Program Files (x86)\Microsoft Visual Studio\2019\Community\VC\Tools\MSVC\14.29.30133\atlmfc\include\atlsimpstr.h
; File D:\git\src\IBK\IBK_DRFN\ProjSrc\SrcDrfn\Chart\chart_common\DataList\Conversion.cpp
; File C:\Program Files (x86)\Microsoft Visual Studio\2019\Community\VC\Tools\MSVC\14.29.30133\atlmfc\include\cstringt.h
; File D:\git\src\IBK\IBK_DRFN\ProjSrc\SrcDrfn\Chart\chart_common\DataList\Conversion.cpp
; File C:\Program Files (x86)\Microsoft Visual Studio\2019\Community\VC\Tools\MSVC\14.29.30133\atlmfc\include\cstringt.h
; File D:\git\src\IBK\IBK_DRFN\ProjSrc\SrcDrfn\Chart\chart_common\DataList\Conversion.cpp
; File C:\Program Files (x86)\Microsoft Visual Studio\2019\Community\VC\Tools\MSVC\14.29.30133\atlmfc\include\cstringt.h
; File D:\git\src\IBK\IBK_DRFN\ProjSrc\SrcDrfn\Chart\chart_common\DataList\Conversion.cpp
; File C:\Program Files (x86)\Microsoft Visual Studio\2019\Community\VC\Tools\MSVC\14.29.30133\atlmfc\include\atlsimpstr.h
; File D:\git\src\IBK\IBK_DRFN\ProjSrc\SrcDrfn\Chart\chart_common\DataList\Conversion.cpp
; File C:\Program Files (x86)\Microsoft Visual Studio\2019\Community\VC\Tools\MSVC\14.29.30133\atlmfc\include\cstringt.h
; File D:\git\src\IBK\IBK_DRFN\ProjSrc\SrcDrfn\Chart\chart_common\DataList\Conversion.cpp
; File C:\Program Files (x86)\Microsoft Visual Studio\2019\Community\VC\Tools\MSVC\14.29.30133\atlmfc\include\cstringt.h
; File C:\Program Files (x86)\Microsoft Visual Studio\2019\Community\VC\Tools\MSVC\14.29.30133\atlmfc\include\atlsimpstr.h
; File C:\Program Files (x86)\Microsoft Visual Studio\2019\Community\VC\Tools\MSVC\14.29.30133\atlmfc\include\cstringt.h
; File C:\Program Files (x86)\Microsoft Visual Studio\2019\Community\VC\Tools\MSVC\14.29.30133\atlmfc\include\atlsimpstr.h
; File C:\Program Files (x86)\Microsoft Visual Studio\2019\Community\VC\Tools\MSVC\14.29.30133\atlmfc\include\cstringt.h
; File D:\git\src\IBK\IBK_DRFN\ProjSrc\SrcDrfn\Chart\chart_common\DataList\Conversion.cpp
; File C:\Program Files (x86)\Microsoft Visual Studio\2019\Community\VC\Tools\MSVC\14.29.30133\atlmfc\include\atlsimpstr.h
; File D:\git\src\IBK\IBK_DRFN\ProjSrc\SrcDrfn\Chart\chart_common\DataList\Conversion.cpp
; File C:\Program Files (x86)\Microsoft Visual Studio\2019\Community\VC\Tools\MSVC\14.29.30133\atlmfc\include\atlsimpstr.h
; File D:\git\src\IBK\IBK_DRFN\ProjSrc\SrcDrfn\Chart\chart_common\DataList\Conversion.cpp
; File C:\Program Files (x86)\Microsoft Visual Studio\2019\Community\VC\Tools\MSVC\14.29.30133\atlmfc\include\atlsimpstr.h
; File D:\git\src\IBK\IBK_DRFN\ProjSrc\SrcDrfn\Chart\chart_common\DataList\Conversion.cpp
; File C:\Program Files (x86)\Microsoft Visual Studio\2019\Community\VC\Tools\MSVC\14.29.30133\atlmfc\include\cstringt.h
; File D:\git\src\IBK\IBK_DRFN\ProjSrc\SrcDrfn\Chart\chart_common\DataList\Conversion.cpp
; File C:\Program Files (x86)\Microsoft Visual Studio\2019\Community\VC\Tools\MSVC\14.29.30133\atlmfc\include\cstringt.h
; File D:\git\src\IBK\IBK_DRFN\ProjSrc\SrcDrfn\Chart\chart_common\DataList\Conversion.cpp
; File C:\Program Files (x86)\Microsoft Visual Studio\2019\Community\VC\Tools\MSVC\14.29.30133\atlmfc\include\cstringt.h
; File D:\git\src\IBK\IBK_DRFN\ProjSrc\SrcDrfn\Chart\chart_common\DataList\Conversion.cpp
; File C:\Program Files (x86)\Microsoft Visual Studio\2019\Community\VC\Tools\MSVC\14.29.30133\atlmfc\include\cstringt.h
; File D:\git\src\IBK\IBK_DRFN\ProjSrc\SrcDrfn\Chart\chart_common\DataList\Conversion.cpp
; File C:\Program Files (x86)\Microsoft Visual Studio\2019\Community\VC\Tools\MSVC\14.29.30133\atlmfc\include\cstringt.h
; File D:\git\src\IBK\IBK_DRFN\ProjSrc\SrcDrfn\Chart\chart_common\DataList\Conversion.cpp
; File C:\Program Files (x86)\Microsoft Visual Studio\2019\Community\VC\Tools\MSVC\14.29.30133\atlmfc\include\cstringt.h
; File C:\Program Files (x86)\Microsoft Visual Studio\2019\Community\VC\Tools\MSVC\14.29.30133\atlmfc\include\atlsimpstr.h
; File C:\Program Files (x86)\Microsoft Visual Studio\2019\Community\VC\Tools\MSVC\14.29.30133\atlmfc\include\cstringt.h
; File D:\git\src\IBK\IBK_DRFN\ProjSrc\SrcDrfn\Chart\chart_common\DataList\Conversion.cpp
; File C:\Program Files (x86)\Microsoft Visual Studio\2019\Community\VC\Tools\MSVC\14.29.30133\atlmfc\include\cstringt.h
; File C:\Program Files (x86)\Microsoft Visual Studio\2019\Community\VC\Tools\MSVC\14.29.30133\atlmfc\include\atlsimpstr.h
; File C:\Program Files (x86)\Microsoft Visual Studio\2019\Community\VC\Tools\MSVC\14.29.30133\atlmfc\include\cstringt.h
; File D:\git\src\IBK\IBK_DRFN\ProjSrc\SrcDrfn\Chart\chart_common\DataList\Conversion.cpp
; File C:\Program Files (x86)\Microsoft Visual Studio\2019\Community\VC\Tools\MSVC\14.29.30133\atlmfc\include\atlsimpstr.h
; File D:\git\src\IBK\IBK_DRFN\ProjSrc\SrcDrfn\Chart\chart_common\DataList\Conversion.cpp
; File C:\Program Files (x86)\Microsoft Visual Studio\2019\Community\VC\Tools\MSVC\14.29.30133\atlmfc\include\atlsimpstr.h
; File D:\git\src\IBK\IBK_DRFN\ProjSrc\SrcDrfn\Chart\chart_common\DataList\Conversion.cpp
;	COMDAT ?GetStringFormatbyCompart@CDataConversion@@SA?AV?$CStringT@DV?$StrTraitMFC_DLL@DV?$ChTraitsCRT@D@ATL@@@@@ATL@@ABV23@AAV23@001@Z
_TEXT	SEGMENT
$T2 = -56						; size = 4
$T3 = -52						; size = 4
_strRemainder$ = -48					; size = 4
$T4 = -44						; size = 4
$T5 = -44						; size = 4
_nMax$1$ = -40						; size = 4
$T6 = -40						; size = 4
$T7 = -36						; size = 4
_strSpecialTime$ = -32					; size = 4
_nFcount$1$ = -28					; size = 4
$T8 = -28						; size = 4
_length$1$ = -24					; size = 4
$T9 = -24						; size = 4
_sznextType$10 = -20					; size = 4
_szType$ = -16						; size = 4
__$EHRec$ = -12						; size = 12
___$ReturnUdt$ = 8					; size = 4
_szcurType$11 = 12					; size = 4
$T12 = 12						; size = 4
_strData$ = 12						; size = 4
_strFormat$ = 16					; size = 4
_strCompartDate$ = 20					; size = 4
_strCompartTime$ = 24					; size = 4
_strResult$ = 28					; size = 4
?GetStringFormatbyCompart@CDataConversion@@SA?AV?$CStringT@DV?$StrTraitMFC_DLL@DV?$ChTraitsCRT@D@ATL@@@@@ATL@@ABV23@AAV23@001@Z PROC ; CDataConversion::GetStringFormatbyCompart, COMDAT

; 1602 : {

  00000	55		 push	 ebp
  00001	8b ec		 mov	 ebp, esp
  00003	6a ff		 push	 -1
  00005	68 00 00 00 00	 push	 __ehhandler$?GetStringFormatbyCompart@CDataConversion@@SA?AV?$CStringT@DV?$StrTraitMFC_DLL@DV?$ChTraitsCRT@D@ATL@@@@@ATL@@ABV23@AAV23@001@Z
  0000a	64 a1 00 00 00
	00		 mov	 eax, DWORD PTR fs:0
  00010	50		 push	 eax
  00011	83 ec 2c	 sub	 esp, 44			; 0000002cH
  00014	53		 push	 ebx
  00015	56		 push	 esi
  00016	57		 push	 edi
  00017	a1 00 00 00 00	 mov	 eax, DWORD PTR ___security_cookie
  0001c	33 c5		 xor	 eax, ebp
  0001e	50		 push	 eax
  0001f	8d 45 f4	 lea	 eax, DWORD PTR __$EHRec$[ebp]
  00022	64 a3 00 00 00
	00		 mov	 DWORD PTR fs:0, eax
  00028	c7 45 dc 00 00
	00 00		 mov	 DWORD PTR $T7[ebp], 0
; File C:\Program Files (x86)\Microsoft Visual Studio\2019\Community\VC\Tools\MSVC\14.29.30133\atlmfc\include\atlsimpstr.h

; 519  : 		return( GetData()->nDataLength );

  0002f	8b 45 0c	 mov	 eax, DWORD PTR _strData$[ebp]
  00032	8b 00		 mov	 eax, DWORD PTR [eax]

; 533  : 		return( GetLength() == 0 );

  00034	83 78 f4 00	 cmp	 DWORD PTR [eax-12], 0
; File D:\git\src\IBK\IBK_DRFN\ProjSrc\SrcDrfn\Chart\chart_common\DataList\Conversion.cpp

; 1603 : 	if(strData.IsEmpty())

  00038	75 23		 jne	 SHORT $LN5@GetStringF

; 1604 : 		return "" ;

  0003a	8b 4d 08	 mov	 ecx, DWORD PTR ___$ReturnUdt$[ebp]
  0003d	68 00 00 00 00	 push	 OFFSET ??_C@_00CNPNBAHC@@
  00042	ff 15 00 00 00
	00		 call	 DWORD PTR __imp_??0?$CStringT@DV?$StrTraitMFC_DLL@DV?$ChTraitsCRT@D@ATL@@@@@ATL@@QAE@PBD@Z
  00048	8b 45 08	 mov	 eax, DWORD PTR ___$ReturnUdt$[ebp]

; 1637 : }

  0004b	8b 4d f4	 mov	 ecx, DWORD PTR __$EHRec$[ebp]
  0004e	64 89 0d 00 00
	00 00		 mov	 DWORD PTR fs:0, ecx
  00055	59		 pop	 ecx
  00056	5f		 pop	 edi
  00057	5e		 pop	 esi
  00058	5b		 pop	 ebx
  00059	8b e5		 mov	 esp, ebp
  0005b	5d		 pop	 ebp
  0005c	c3		 ret	 0
$LN5@GetStringF:

; 1605 : 	CString szType = strFormat.Left(1);

  0005d	8b 5d 10	 mov	 ebx, DWORD PTR _strFormat$[ebp]
  00060	8d 45 f0	 lea	 eax, DWORD PTR _szType$[ebp]
  00063	6a 01		 push	 1
  00065	50		 push	 eax
  00066	8b cb		 mov	 ecx, ebx
  00068	ff 15 00 00 00
	00		 call	 DWORD PTR __imp_?Left@?$CStringT@DV?$StrTraitMFC_DLL@DV?$ChTraitsCRT@D@ATL@@@@@ATL@@QBE?AV12@H@Z
; File C:\Program Files (x86)\Microsoft Visual Studio\2019\Community\VC\Tools\MSVC\14.29.30133\atlmfc\include\atlsimpstr.h

; 519  : 		return( GetData()->nDataLength );

  0006e	8b 45 f0	 mov	 eax, DWORD PTR _szType$[ebp]
; File D:\git\src\IBK\IBK_DRFN\ProjSrc\SrcDrfn\Chart\chart_common\DataList\Conversion.cpp

; 1607 : 	int nFcount = 0;

  00071	33 ff		 xor	 edi, edi
  00073	c7 45 fc 00 00
	00 00		 mov	 DWORD PTR __$EHRec$[ebp+8], 0

; 1610 : 	for(int i = 0; i <= nMax; i++){

  0007a	8b f7		 mov	 esi, edi
  0007c	89 7d e4	 mov	 DWORD PTR _nFcount$1$[ebp], edi
; File C:\Program Files (x86)\Microsoft Visual Studio\2019\Community\VC\Tools\MSVC\14.29.30133\atlmfc\include\atlsimpstr.h

; 519  : 		return( GetData()->nDataLength );

  0007f	8b 48 f4	 mov	 ecx, DWORD PTR [eax-12]
  00082	8b 03		 mov	 eax, DWORD PTR [ebx]
  00084	89 4d e8	 mov	 DWORD PTR _length$1$[ebp], ecx
  00087	8b 40 f4	 mov	 eax, DWORD PTR [eax-12]
; File D:\git\src\IBK\IBK_DRFN\ProjSrc\SrcDrfn\Chart\chart_common\DataList\Conversion.cpp

; 1609 : 	int nMax = strFormat.GetLength() - length;

  0008a	2b c1		 sub	 eax, ecx
  0008c	89 45 d8	 mov	 DWORD PTR _nMax$1$[ebp], eax

; 1610 : 	for(int i = 0; i <= nMax; i++){

  0008f	78 40		 js	 SHORT $LN6@GetStringF
$LL4@GetStringF:

; 1611 : 		if(strFormat.Mid(i, length) == szType)

  00091	51		 push	 ecx
  00092	56		 push	 esi
  00093	8d 45 d4	 lea	 eax, DWORD PTR $T5[ebp]
  00096	8b cb		 mov	 ecx, ebx
  00098	50		 push	 eax
  00099	ff 15 00 00 00
	00		 call	 DWORD PTR __imp_?Mid@?$CStringT@DV?$StrTraitMFC_DLL@DV?$ChTraitsCRT@D@ATL@@@@@ATL@@QBE?AV12@HH@Z
; File C:\Program Files (x86)\Microsoft Visual Studio\2019\Community\VC\Tools\MSVC\14.29.30133\atlmfc\include\cstringt.h

; 2479 : 		return(str1.Compare(str2) == 0);

  0009f	ff 75 f0	 push	 DWORD PTR _szType$[ebp]
  000a2	8b c8		 mov	 ecx, eax
; File D:\git\src\IBK\IBK_DRFN\ProjSrc\SrcDrfn\Chart\chart_common\DataList\Conversion.cpp

; 1611 : 		if(strFormat.Mid(i, length) == szType)

  000a4	c6 45 fc 01	 mov	 BYTE PTR __$EHRec$[ebp+8], 1
; File C:\Program Files (x86)\Microsoft Visual Studio\2019\Community\VC\Tools\MSVC\14.29.30133\atlmfc\include\cstringt.h

; 2479 : 		return(str1.Compare(str2) == 0);

  000a8	ff 15 00 00 00
	00		 call	 DWORD PTR __imp_?Compare@?$CStringT@DV?$StrTraitMFC_DLL@DV?$ChTraitsCRT@D@ATL@@@@@ATL@@QBEHPBD@Z
; File D:\git\src\IBK\IBK_DRFN\ProjSrc\SrcDrfn\Chart\chart_common\DataList\Conversion.cpp

; 1611 : 		if(strFormat.Mid(i, length) == szType)

  000ae	8d 4d d4	 lea	 ecx, DWORD PTR $T5[ebp]
  000b1	c6 45 fc 00	 mov	 BYTE PTR __$EHRec$[ebp+8], 0
; File C:\Program Files (x86)\Microsoft Visual Studio\2019\Community\VC\Tools\MSVC\14.29.30133\atlmfc\include\cstringt.h

; 2479 : 		return(str1.Compare(str2) == 0);

  000b5	8b f8		 mov	 edi, eax
; File D:\git\src\IBK\IBK_DRFN\ProjSrc\SrcDrfn\Chart\chart_common\DataList\Conversion.cpp

; 1611 : 		if(strFormat.Mid(i, length) == szType)

  000b7	ff 15 00 00 00
	00		 call	 DWORD PTR __imp_??1?$CStringT@DV?$StrTraitMFC_DLL@DV?$ChTraitsCRT@D@ATL@@@@@ATL@@QAE@XZ
  000bd	85 ff		 test	 edi, edi
  000bf	8b 7d e4	 mov	 edi, DWORD PTR _nFcount$1$[ebp]
  000c2	75 0d		 jne	 SHORT $LN6@GetStringF

; 1612 : 			nFcount++;

  000c4	8b 4d e8	 mov	 ecx, DWORD PTR _length$1$[ebp]
  000c7	47		 inc	 edi
  000c8	46		 inc	 esi
  000c9	89 7d e4	 mov	 DWORD PTR _nFcount$1$[ebp], edi
  000cc	3b 75 d8	 cmp	 esi, DWORD PTR _nMax$1$[ebp]
  000cf	7e c0		 jle	 SHORT $LL4@GetStringF
$LN6@GetStringF:
; File C:\Program Files (x86)\Microsoft Visual Studio\2019\Community\VC\Tools\MSVC\14.29.30133\atlmfc\include\atlsimpstr.h

; 519  : 		return( GetData()->nDataLength );

  000d1	8b 03		 mov	 eax, DWORD PTR [ebx]
; File D:\git\src\IBK\IBK_DRFN\ProjSrc\SrcDrfn\Chart\chart_common\DataList\Conversion.cpp

; 1617 : 	if(strFormat.GetLength() == nFcount)	{

  000d3	39 78 f4	 cmp	 DWORD PTR [eax-12], edi
  000d6	0f 85 81 00 00
	00		 jne	 $LN8@GetStringF
; File C:\Program Files (x86)\Microsoft Visual Studio\2019\Community\VC\Tools\MSVC\14.29.30133\atlmfc\include\cstringt.h

; 2390 : 		CStringT strResult( str1.GetManager() );

  000dc	8b 75 1c	 mov	 esi, DWORD PTR _strResult$[ebp]
  000df	8b ce		 mov	 ecx, esi
; File D:\git\src\IBK\IBK_DRFN\ProjSrc\SrcDrfn\Chart\chart_common\DataList\Conversion.cpp

; 1618 : 		strResult = strResult + strData ;

  000e1	c6 45 fc 02	 mov	 BYTE PTR __$EHRec$[ebp+8], 2
; File C:\Program Files (x86)\Microsoft Visual Studio\2019\Community\VC\Tools\MSVC\14.29.30133\atlmfc\include\cstringt.h

; 2390 : 		CStringT strResult( str1.GetManager() );

  000e5	ff 15 00 00 00
	00		 call	 DWORD PTR __imp_?GetManager@?$CStringT@DV?$StrTraitMFC_DLL@DV?$ChTraitsCRT@D@ATL@@@@@ATL@@QBEPAUIAtlStringMgr@2@XZ
  000eb	50		 push	 eax
  000ec	8d 4d e4	 lea	 ecx, DWORD PTR $T8[ebp]
  000ef	ff 15 00 00 00
	00		 call	 DWORD PTR __imp_??0?$CStringT@DV?$StrTraitMFC_DLL@DV?$ChTraitsCRT@D@ATL@@@@@ATL@@QAE@PAUIAtlStringMgr@1@@Z
; File C:\Program Files (x86)\Microsoft Visual Studio\2019\Community\VC\Tools\MSVC\14.29.30133\atlmfc\include\atlsimpstr.h

; 519  : 		return( GetData()->nDataLength );

  000f5	8b 45 0c	 mov	 eax, DWORD PTR _strData$[ebp]
  000f8	8b 0e		 mov	 ecx, DWORD PTR [esi]
; File C:\Program Files (x86)\Microsoft Visual Studio\2019\Community\VC\Tools\MSVC\14.29.30133\atlmfc\include\cstringt.h

; 2394 : 		return( strResult );

  000fa	c7 45 dc 02 00
	00 00		 mov	 DWORD PTR $T7[ebp], 2
; File C:\Program Files (x86)\Microsoft Visual Studio\2019\Community\VC\Tools\MSVC\14.29.30133\atlmfc\include\atlsimpstr.h

; 519  : 		return( GetData()->nDataLength );

  00101	8b 00		 mov	 eax, DWORD PTR [eax]
; File C:\Program Files (x86)\Microsoft Visual Studio\2019\Community\VC\Tools\MSVC\14.29.30133\atlmfc\include\cstringt.h

; 2392 : 		CThisSimpleString::Concatenate( strResult, str1, str1.GetLength(), str2, str2.GetLength() );

  00103	ff 70 f4	 push	 DWORD PTR [eax-12]
  00106	50		 push	 eax
  00107	ff 71 f4	 push	 DWORD PTR [ecx-12]
  0010a	8d 45 e4	 lea	 eax, DWORD PTR $T8[ebp]
  0010d	51		 push	 ecx
  0010e	50		 push	 eax
  0010f	ff 15 00 00 00
	00		 call	 DWORD PTR __imp_?Concatenate@?$CSimpleStringT@D$00@ATL@@KAXAAV12@PBDH1H@Z
  00115	83 c4 14	 add	 esp, 20			; 00000014H
; File D:\git\src\IBK\IBK_DRFN\ProjSrc\SrcDrfn\Chart\chart_common\DataList\Conversion.cpp

; 1618 : 		strResult = strResult + strData ;

  00118	8d 45 e4	 lea	 eax, DWORD PTR $T8[ebp]
  0011b	8b ce		 mov	 ecx, esi
  0011d	50		 push	 eax
  0011e	ff 15 00 00 00
	00		 call	 DWORD PTR __imp_??4?$CStringT@DV?$StrTraitMFC_DLL@DV?$ChTraitsCRT@D@ATL@@@@@ATL@@QAEAAV01@ABV01@@Z
  00124	8d 4d e4	 lea	 ecx, DWORD PTR $T8[ebp]
  00127	c6 45 fc 00	 mov	 BYTE PTR __$EHRec$[ebp+8], 0
  0012b	ff 15 00 00 00
	00		 call	 DWORD PTR __imp_??1?$CStringT@DV?$StrTraitMFC_DLL@DV?$ChTraitsCRT@D@ATL@@@@@ATL@@QAE@XZ

; 1619 : 		return "" ;

  00131	8b 4d 08	 mov	 ecx, DWORD PTR ___$ReturnUdt$[ebp]
  00134	68 00 00 00 00	 push	 OFFSET ??_C@_00CNPNBAHC@@
  00139	ff 15 00 00 00
	00		 call	 DWORD PTR __imp_??0?$CStringT@DV?$StrTraitMFC_DLL@DV?$ChTraitsCRT@D@ATL@@@@@ATL@@QAE@PBD@Z
  0013f	8d 4d f0	 lea	 ecx, DWORD PTR _szType$[ebp]
  00142	ff 15 00 00 00
	00		 call	 DWORD PTR __imp_??1?$CStringT@DV?$StrTraitMFC_DLL@DV?$ChTraitsCRT@D@ATL@@@@@ATL@@QAE@XZ
  00148	8b 45 08	 mov	 eax, DWORD PTR ___$ReturnUdt$[ebp]

; 1637 : }

  0014b	8b 4d f4	 mov	 ecx, DWORD PTR __$EHRec$[ebp]
  0014e	64 89 0d 00 00
	00 00		 mov	 DWORD PTR fs:0, ecx
  00155	59		 pop	 ecx
  00156	5f		 pop	 edi
  00157	5e		 pop	 esi
  00158	5b		 pop	 ebx
  00159	8b e5		 mov	 esp, ebp
  0015b	5d		 pop	 ebp
  0015c	c3		 ret	 0
$LN8@GetStringF:

; 1620 : 	}
; 1621 : 
; 1622 : 	//sy 2004.04.16
; 1623 : 	CString strSpecialTime;

  0015d	8d 4d e0	 lea	 ecx, DWORD PTR _strSpecialTime$[ebp]
  00160	ff 15 00 00 00
	00		 call	 DWORD PTR __imp_??0?$CStringT@DV?$StrTraitMFC_DLL@DV?$ChTraitsCRT@D@ATL@@@@@ATL@@QAE@XZ

; 1624 : 	if(GetSpecialTime(strFormat, strData, strSpecialTime))

  00166	8b 75 0c	 mov	 esi, DWORD PTR _strData$[ebp]
  00169	8d 45 e0	 lea	 eax, DWORD PTR _strSpecialTime$[ebp]
  0016c	50		 push	 eax
  0016d	56		 push	 esi
  0016e	53		 push	 ebx
  0016f	c6 45 fc 03	 mov	 BYTE PTR __$EHRec$[ebp+8], 3
  00173	e8 00 00 00 00	 call	 ?GetSpecialTime@CDataConversion@@SA_NABV?$CStringT@DV?$StrTraitMFC_DLL@DV?$ChTraitsCRT@D@ATL@@@@@ATL@@0AAV23@@Z ; CDataConversion::GetSpecialTime
  00178	83 c4 0c	 add	 esp, 12			; 0000000cH
  0017b	84 c0		 test	 al, al
  0017d	74 40		 je	 SHORT $LN9@GetStringF

; 1625 : 	{
; 1626 : 		strResult = strSpecialTime;

  0017f	8b 75 1c	 mov	 esi, DWORD PTR _strResult$[ebp]
  00182	8d 45 e0	 lea	 eax, DWORD PTR _strSpecialTime$[ebp]
  00185	50		 push	 eax
  00186	8b ce		 mov	 ecx, esi
  00188	ff 15 00 00 00
	00		 call	 DWORD PTR __imp_??4?$CStringT@DV?$StrTraitMFC_DLL@DV?$ChTraitsCRT@D@ATL@@@@@ATL@@QAEAAV01@ABV01@@Z

; 1627 : 		return strResult;

  0018e	8b 4d 08	 mov	 ecx, DWORD PTR ___$ReturnUdt$[ebp]
  00191	56		 push	 esi
  00192	ff 15 00 00 00
	00		 call	 DWORD PTR __imp_??0?$CStringT@DV?$StrTraitMFC_DLL@DV?$ChTraitsCRT@D@ATL@@@@@ATL@@QAE@ABV01@@Z
  00198	8d 4d e0	 lea	 ecx, DWORD PTR _strSpecialTime$[ebp]
  0019b	ff 15 00 00 00
	00		 call	 DWORD PTR __imp_??1?$CStringT@DV?$StrTraitMFC_DLL@DV?$ChTraitsCRT@D@ATL@@@@@ATL@@QAE@XZ
  001a1	8d 4d f0	 lea	 ecx, DWORD PTR _szType$[ebp]
  001a4	ff 15 00 00 00
	00		 call	 DWORD PTR __imp_??1?$CStringT@DV?$StrTraitMFC_DLL@DV?$ChTraitsCRT@D@ATL@@@@@ATL@@QAE@XZ
  001aa	8b 45 08	 mov	 eax, DWORD PTR ___$ReturnUdt$[ebp]

; 1637 : }

  001ad	8b 4d f4	 mov	 ecx, DWORD PTR __$EHRec$[ebp]
  001b0	64 89 0d 00 00
	00 00		 mov	 DWORD PTR fs:0, ecx
  001b7	59		 pop	 ecx
  001b8	5f		 pop	 edi
  001b9	5e		 pop	 esi
  001ba	5b		 pop	 ebx
  001bb	8b e5		 mov	 esp, ebp
  001bd	5d		 pop	 ebp
  001be	c3		 ret	 0
$LN9@GetStringF:
; File C:\Program Files (x86)\Microsoft Visual Studio\2019\Community\VC\Tools\MSVC\14.29.30133\atlmfc\include\atlsimpstr.h

; 519  : 		return( GetData()->nDataLength );

  001bf	8b 06		 mov	 eax, DWORD PTR [esi]
; File D:\git\src\IBK\IBK_DRFN\ProjSrc\SrcDrfn\Chart\chart_common\DataList\Conversion.cpp

; 1631 : 	CString strRemainder = strData.Right(strData.GetLength() - nFcount);

  001c1	8b ce		 mov	 ecx, esi
; File C:\Program Files (x86)\Microsoft Visual Studio\2019\Community\VC\Tools\MSVC\14.29.30133\atlmfc\include\atlsimpstr.h

; 519  : 		return( GetData()->nDataLength );

  001c3	8b 40 f4	 mov	 eax, DWORD PTR [eax-12]
; File D:\git\src\IBK\IBK_DRFN\ProjSrc\SrcDrfn\Chart\chart_common\DataList\Conversion.cpp

; 1631 : 	CString strRemainder = strData.Right(strData.GetLength() - nFcount);

  001c6	2b c7		 sub	 eax, edi
  001c8	50		 push	 eax
  001c9	8d 45 d0	 lea	 eax, DWORD PTR _strRemainder$[ebp]
  001cc	50		 push	 eax
  001cd	ff 15 00 00 00
	00		 call	 DWORD PTR __imp_?Right@?$CStringT@DV?$StrTraitMFC_DLL@DV?$ChTraitsCRT@D@ATL@@@@@ATL@@QBE?AV12@H@Z

; 1641 : 	CString szcurType = strFormat.Left(1);

  001d3	6a 01		 push	 1
  001d5	8d 45 0c	 lea	 eax, DWORD PTR _szcurType$11[ebp]

; 1631 : 	CString strRemainder = strData.Right(strData.GetLength() - nFcount);

  001d8	c6 45 fc 04	 mov	 BYTE PTR __$EHRec$[ebp+8], 4

; 1641 : 	CString szcurType = strFormat.Left(1);

  001dc	50		 push	 eax
  001dd	8b cb		 mov	 ecx, ebx
  001df	ff 15 00 00 00
	00		 call	 DWORD PTR __imp_?Left@?$CStringT@DV?$StrTraitMFC_DLL@DV?$ChTraitsCRT@D@ATL@@@@@ATL@@QBE?AV12@H@Z

; 1642 : 	CString sznextType = "";

  001e5	68 00 00 00 00	 push	 OFFSET ??_C@_00CNPNBAHC@@
  001ea	8d 4d ec	 lea	 ecx, DWORD PTR _sznextType$10[ebp]
  001ed	c6 45 fc 05	 mov	 BYTE PTR __$EHRec$[ebp+8], 5
  001f1	ff 15 00 00 00
	00		 call	 DWORD PTR __imp_??0?$CStringT@DV?$StrTraitMFC_DLL@DV?$ChTraitsCRT@D@ATL@@@@@ATL@@QAE@PBD@Z
; File C:\Program Files (x86)\Microsoft Visual Studio\2019\Community\VC\Tools\MSVC\14.29.30133\atlmfc\include\atlsimpstr.h

; 519  : 		return( GetData()->nDataLength );

  001f7	8b 03		 mov	 eax, DWORD PTR [ebx]
; File D:\git\src\IBK\IBK_DRFN\ProjSrc\SrcDrfn\Chart\chart_common\DataList\Conversion.cpp

; 1642 : 	CString sznextType = "";

  001f9	c6 45 fc 06	 mov	 BYTE PTR __$EHRec$[ebp+8], 6

; 1643 : 	if(strFormat.GetLength() > 3)

  001fd	83 78 f4 03	 cmp	 DWORD PTR [eax-12], 3
  00201	7e 2b		 jle	 SHORT $LN66@GetStringF

; 1644 : 		sznextType = strFormat.Mid(3, 1);

  00203	6a 01		 push	 1
  00205	6a 03		 push	 3
  00207	8d 45 cc	 lea	 eax, DWORD PTR $T3[ebp]
  0020a	8b cb		 mov	 ecx, ebx
  0020c	50		 push	 eax
  0020d	ff 15 00 00 00
	00		 call	 DWORD PTR __imp_?Mid@?$CStringT@DV?$StrTraitMFC_DLL@DV?$ChTraitsCRT@D@ATL@@@@@ATL@@QBE?AV12@HH@Z
  00213	50		 push	 eax
  00214	8d 4d ec	 lea	 ecx, DWORD PTR _sznextType$10[ebp]
  00217	c6 45 fc 07	 mov	 BYTE PTR __$EHRec$[ebp+8], 7
  0021b	ff 15 00 00 00
	00		 call	 DWORD PTR __imp_??4?$CStringT@DV?$StrTraitMFC_DLL@DV?$ChTraitsCRT@D@ATL@@@@@ATL@@QAEAAV01@ABV01@@Z
  00221	8d 4d cc	 lea	 ecx, DWORD PTR $T3[ebp]
  00224	c6 45 fc 06	 mov	 BYTE PTR __$EHRec$[ebp+8], 6
  00228	ff 15 00 00 00
	00		 call	 DWORD PTR __imp_??1?$CStringT@DV?$StrTraitMFC_DLL@DV?$ChTraitsCRT@D@ATL@@@@@ATL@@QAE@XZ
$LN66@GetStringF:
; File C:\Program Files (x86)\Microsoft Visual Studio\2019\Community\VC\Tools\MSVC\14.29.30133\atlmfc\include\cstringt.h

; 2486 : 		return(str1.Compare(psz2) == 0);

  0022e	68 00 00 00 00	 push	 OFFSET ??_C@_01NFFPALBN@Y@
  00233	8d 4d 0c	 lea	 ecx, DWORD PTR _szcurType$11[ebp]
  00236	ff 15 00 00 00
	00		 call	 DWORD PTR __imp_?Compare@?$CStringT@DV?$StrTraitMFC_DLL@DV?$ChTraitsCRT@D@ATL@@@@@ATL@@QBEHPBD@Z
  0023c	85 c0		 test	 eax, eax
; File D:\git\src\IBK\IBK_DRFN\ProjSrc\SrcDrfn\Chart\chart_common\DataList\Conversion.cpp

; 1646 : 	if((szcurType == "Y" || szcurType == "M" || szcurType == "D") && !(sznextType == "S"))

  0023e	74 24		 je	 SHORT $LN69@GetStringF
; File C:\Program Files (x86)\Microsoft Visual Studio\2019\Community\VC\Tools\MSVC\14.29.30133\atlmfc\include\cstringt.h

; 2486 : 		return(str1.Compare(psz2) == 0);

  00240	68 00 00 00 00	 push	 OFFSET ??_C@_01PLPBNMEI@M@
  00245	8d 4d 0c	 lea	 ecx, DWORD PTR _szcurType$11[ebp]
  00248	ff 15 00 00 00
	00		 call	 DWORD PTR __imp_?Compare@?$CStringT@DV?$StrTraitMFC_DLL@DV?$ChTraitsCRT@D@ATL@@@@@ATL@@QBEHPBD@Z
  0024e	85 c0		 test	 eax, eax
; File D:\git\src\IBK\IBK_DRFN\ProjSrc\SrcDrfn\Chart\chart_common\DataList\Conversion.cpp

; 1646 : 	if((szcurType == "Y" || szcurType == "M" || szcurType == "D") && !(sznextType == "S"))

  00250	74 12		 je	 SHORT $LN69@GetStringF
; File C:\Program Files (x86)\Microsoft Visual Studio\2019\Community\VC\Tools\MSVC\14.29.30133\atlmfc\include\cstringt.h

; 2486 : 		return(str1.Compare(psz2) == 0);

  00252	68 00 00 00 00	 push	 OFFSET ??_C@_01CKDDGHAB@D@
  00257	8d 4d 0c	 lea	 ecx, DWORD PTR _szcurType$11[ebp]
  0025a	ff 15 00 00 00
	00		 call	 DWORD PTR __imp_?Compare@?$CStringT@DV?$StrTraitMFC_DLL@DV?$ChTraitsCRT@D@ATL@@@@@ATL@@QBEHPBD@Z
  00260	85 c0		 test	 eax, eax
; File D:\git\src\IBK\IBK_DRFN\ProjSrc\SrcDrfn\Chart\chart_common\DataList\Conversion.cpp

; 1646 : 	if((szcurType == "Y" || szcurType == "M" || szcurType == "D") && !(sznextType == "S"))

  00262	75 17		 jne	 SHORT $LN67@GetStringF
$LN69@GetStringF:
; File C:\Program Files (x86)\Microsoft Visual Studio\2019\Community\VC\Tools\MSVC\14.29.30133\atlmfc\include\cstringt.h

; 2486 : 		return(str1.Compare(psz2) == 0);

  00264	68 00 00 00 00	 push	 OFFSET ??_C@_01CPLAODJH@S@
  00269	8d 4d ec	 lea	 ecx, DWORD PTR _sznextType$10[ebp]
  0026c	ff 15 00 00 00
	00		 call	 DWORD PTR __imp_?Compare@?$CStringT@DV?$StrTraitMFC_DLL@DV?$ChTraitsCRT@D@ATL@@@@@ATL@@QBEHPBD@Z
  00272	85 c0		 test	 eax, eax
; File D:\git\src\IBK\IBK_DRFN\ProjSrc\SrcDrfn\Chart\chart_common\DataList\Conversion.cpp

; 1646 : 	if((szcurType == "Y" || szcurType == "M" || szcurType == "D") && !(sznextType == "S"))

  00274	74 05		 je	 SHORT $LN67@GetStringF

; 1647 : 		return strCompartDate;

  00276	ff 75 14	 push	 DWORD PTR _strCompartDate$[ebp]
  00279	eb 03		 jmp	 SHORT $LN131@GetStringF
$LN67@GetStringF:

; 1648 : 	else
; 1649 : 		return strCompartTime;

  0027b	ff 75 18	 push	 DWORD PTR _strCompartTime$[ebp]
$LN131@GetStringF:

; 1632 : 	strResult = strResult + strData.Left(nFcount) + GetCompartType(strFormat, strCompartDate, strCompartTime) ;	

  0027e	8d 4d d4	 lea	 ecx, DWORD PTR $T4[ebp]
  00281	ff 15 00 00 00
	00		 call	 DWORD PTR __imp_??0?$CStringT@DV?$StrTraitMFC_DLL@DV?$ChTraitsCRT@D@ATL@@@@@ATL@@QAE@ABV01@@Z
  00287	8d 4d ec	 lea	 ecx, DWORD PTR _sznextType$10[ebp]
  0028a	ff 15 00 00 00
	00		 call	 DWORD PTR __imp_??1?$CStringT@DV?$StrTraitMFC_DLL@DV?$ChTraitsCRT@D@ATL@@@@@ATL@@QAE@XZ
  00290	8d 4d 0c	 lea	 ecx, DWORD PTR _szcurType$11[ebp]
  00293	ff 15 00 00 00
	00		 call	 DWORD PTR __imp_??1?$CStringT@DV?$StrTraitMFC_DLL@DV?$ChTraitsCRT@D@ATL@@@@@ATL@@QAE@XZ
  00299	57		 push	 edi
  0029a	8d 45 c8	 lea	 eax, DWORD PTR $T2[ebp]
  0029d	c6 45 fc 08	 mov	 BYTE PTR __$EHRec$[ebp+8], 8
  002a1	50		 push	 eax
  002a2	8b ce		 mov	 ecx, esi
  002a4	ff 15 00 00 00
	00		 call	 DWORD PTR __imp_?Left@?$CStringT@DV?$StrTraitMFC_DLL@DV?$ChTraitsCRT@D@ATL@@@@@ATL@@QBE?AV12@H@Z
  002aa	8b f0		 mov	 esi, eax
; File C:\Program Files (x86)\Microsoft Visual Studio\2019\Community\VC\Tools\MSVC\14.29.30133\atlmfc\include\cstringt.h

; 2390 : 		CStringT strResult( str1.GetManager() );

  002ac	8b 7d 1c	 mov	 edi, DWORD PTR _strResult$[ebp]
  002af	8b cf		 mov	 ecx, edi
; File D:\git\src\IBK\IBK_DRFN\ProjSrc\SrcDrfn\Chart\chart_common\DataList\Conversion.cpp

; 1632 : 	strResult = strResult + strData.Left(nFcount) + GetCompartType(strFormat, strCompartDate, strCompartTime) ;	

  002b1	c6 45 fc 0a	 mov	 BYTE PTR __$EHRec$[ebp+8], 10 ; 0000000aH
; File C:\Program Files (x86)\Microsoft Visual Studio\2019\Community\VC\Tools\MSVC\14.29.30133\atlmfc\include\cstringt.h

; 2390 : 		CStringT strResult( str1.GetManager() );

  002b5	ff 15 00 00 00
	00		 call	 DWORD PTR __imp_?GetManager@?$CStringT@DV?$StrTraitMFC_DLL@DV?$ChTraitsCRT@D@ATL@@@@@ATL@@QBEPAUIAtlStringMgr@2@XZ
  002bb	50		 push	 eax
  002bc	8d 4d e8	 lea	 ecx, DWORD PTR $T9[ebp]
  002bf	ff 15 00 00 00
	00		 call	 DWORD PTR __imp_??0?$CStringT@DV?$StrTraitMFC_DLL@DV?$ChTraitsCRT@D@ATL@@@@@ATL@@QAE@PAUIAtlStringMgr@1@@Z
; File C:\Program Files (x86)\Microsoft Visual Studio\2019\Community\VC\Tools\MSVC\14.29.30133\atlmfc\include\atlsimpstr.h

; 519  : 		return( GetData()->nDataLength );

  002c5	8b 06		 mov	 eax, DWORD PTR [esi]
  002c7	8b 0f		 mov	 ecx, DWORD PTR [edi]
; File C:\Program Files (x86)\Microsoft Visual Studio\2019\Community\VC\Tools\MSVC\14.29.30133\atlmfc\include\cstringt.h

; 2394 : 		return( strResult );

  002c9	c7 45 dc 0c 00
	00 00		 mov	 DWORD PTR $T7[ebp], 12	; 0000000cH
  002d0	ff 70 f4	 push	 DWORD PTR [eax-12]
  002d3	50		 push	 eax
  002d4	ff 71 f4	 push	 DWORD PTR [ecx-12]
  002d7	8d 45 e8	 lea	 eax, DWORD PTR $T9[ebp]
  002da	51		 push	 ecx
  002db	50		 push	 eax
  002dc	ff 15 00 00 00
	00		 call	 DWORD PTR __imp_?Concatenate@?$CSimpleStringT@D$00@ATL@@KAXAAV12@PBDH1H@Z
  002e2	83 c4 14	 add	 esp, 20			; 00000014H

; 2390 : 		CStringT strResult( str1.GetManager() );

  002e5	8d 4d e8	 lea	 ecx, DWORD PTR $T9[ebp]
; File D:\git\src\IBK\IBK_DRFN\ProjSrc\SrcDrfn\Chart\chart_common\DataList\Conversion.cpp

; 1632 : 	strResult = strResult + strData.Left(nFcount) + GetCompartType(strFormat, strCompartDate, strCompartTime) ;	

  002e8	c6 45 fc 0b	 mov	 BYTE PTR __$EHRec$[ebp+8], 11 ; 0000000bH
; File C:\Program Files (x86)\Microsoft Visual Studio\2019\Community\VC\Tools\MSVC\14.29.30133\atlmfc\include\cstringt.h

; 2390 : 		CStringT strResult( str1.GetManager() );

  002ec	ff 15 00 00 00
	00		 call	 DWORD PTR __imp_?GetManager@?$CStringT@DV?$StrTraitMFC_DLL@DV?$ChTraitsCRT@D@ATL@@@@@ATL@@QBEPAUIAtlStringMgr@2@XZ
  002f2	50		 push	 eax
  002f3	8d 4d d8	 lea	 ecx, DWORD PTR $T6[ebp]
  002f6	ff 15 00 00 00
	00		 call	 DWORD PTR __imp_??0?$CStringT@DV?$StrTraitMFC_DLL@DV?$ChTraitsCRT@D@ATL@@@@@ATL@@QAE@PAUIAtlStringMgr@1@@Z
; File C:\Program Files (x86)\Microsoft Visual Studio\2019\Community\VC\Tools\MSVC\14.29.30133\atlmfc\include\atlsimpstr.h

; 519  : 		return( GetData()->nDataLength );

  002fc	8b 45 d4	 mov	 eax, DWORD PTR $T4[ebp]
  002ff	8b 4d e8	 mov	 ecx, DWORD PTR $T9[ebp]
; File C:\Program Files (x86)\Microsoft Visual Studio\2019\Community\VC\Tools\MSVC\14.29.30133\atlmfc\include\cstringt.h

; 2394 : 		return( strResult );

  00302	c7 45 dc 1c 00
	00 00		 mov	 DWORD PTR $T7[ebp], 28	; 0000001cH
  00309	ff 70 f4	 push	 DWORD PTR [eax-12]
  0030c	50		 push	 eax
  0030d	ff 71 f4	 push	 DWORD PTR [ecx-12]
  00310	8d 45 d8	 lea	 eax, DWORD PTR $T6[ebp]
  00313	51		 push	 ecx
  00314	50		 push	 eax
  00315	ff 15 00 00 00
	00		 call	 DWORD PTR __imp_?Concatenate@?$CSimpleStringT@D$00@ATL@@KAXAAV12@PBDH1H@Z
  0031b	83 c4 14	 add	 esp, 20			; 00000014H
; File D:\git\src\IBK\IBK_DRFN\ProjSrc\SrcDrfn\Chart\chart_common\DataList\Conversion.cpp

; 1632 : 	strResult = strResult + strData.Left(nFcount) + GetCompartType(strFormat, strCompartDate, strCompartTime) ;	

  0031e	8d 45 d8	 lea	 eax, DWORD PTR $T6[ebp]
  00321	8b cf		 mov	 ecx, edi
  00323	50		 push	 eax
  00324	ff 15 00 00 00
	00		 call	 DWORD PTR __imp_??4?$CStringT@DV?$StrTraitMFC_DLL@DV?$ChTraitsCRT@D@ATL@@@@@ATL@@QAEAAV01@ABV01@@Z
  0032a	8d 4d d8	 lea	 ecx, DWORD PTR $T6[ebp]
  0032d	ff 15 00 00 00
	00		 call	 DWORD PTR __imp_??1?$CStringT@DV?$StrTraitMFC_DLL@DV?$ChTraitsCRT@D@ATL@@@@@ATL@@QAE@XZ
  00333	8d 4d e8	 lea	 ecx, DWORD PTR $T9[ebp]
  00336	ff 15 00 00 00
	00		 call	 DWORD PTR __imp_??1?$CStringT@DV?$StrTraitMFC_DLL@DV?$ChTraitsCRT@D@ATL@@@@@ATL@@QAE@XZ
  0033c	8d 4d c8	 lea	 ecx, DWORD PTR $T2[ebp]
  0033f	ff 15 00 00 00
	00		 call	 DWORD PTR __imp_??1?$CStringT@DV?$StrTraitMFC_DLL@DV?$ChTraitsCRT@D@ATL@@@@@ATL@@QAE@XZ
  00345	8d 4d d4	 lea	 ecx, DWORD PTR $T4[ebp]
  00348	c6 45 fc 04	 mov	 BYTE PTR __$EHRec$[ebp+8], 4
  0034c	ff 15 00 00 00
	00		 call	 DWORD PTR __imp_??1?$CStringT@DV?$StrTraitMFC_DLL@DV?$ChTraitsCRT@D@ATL@@@@@ATL@@QAE@XZ
; File C:\Program Files (x86)\Microsoft Visual Studio\2019\Community\VC\Tools\MSVC\14.29.30133\atlmfc\include\atlsimpstr.h

; 519  : 		return( GetData()->nDataLength );

  00352	8b 03		 mov	 eax, DWORD PTR [ebx]
; File D:\git\src\IBK\IBK_DRFN\ProjSrc\SrcDrfn\Chart\chart_common\DataList\Conversion.cpp

; 1634 : 	strFormat = strFormat.Right(strFormat.GetLength() - nFcount);

  00354	8b cb		 mov	 ecx, ebx
; File C:\Program Files (x86)\Microsoft Visual Studio\2019\Community\VC\Tools\MSVC\14.29.30133\atlmfc\include\atlsimpstr.h

; 519  : 		return( GetData()->nDataLength );

  00356	8b 40 f4	 mov	 eax, DWORD PTR [eax-12]
; File D:\git\src\IBK\IBK_DRFN\ProjSrc\SrcDrfn\Chart\chart_common\DataList\Conversion.cpp

; 1634 : 	strFormat = strFormat.Right(strFormat.GetLength() - nFcount);

  00359	2b 45 e4	 sub	 eax, DWORD PTR _nFcount$1$[ebp]
  0035c	50		 push	 eax
  0035d	8d 45 0c	 lea	 eax, DWORD PTR $T12[ebp]
  00360	50		 push	 eax
  00361	ff 15 00 00 00
	00		 call	 DWORD PTR __imp_?Right@?$CStringT@DV?$StrTraitMFC_DLL@DV?$ChTraitsCRT@D@ATL@@@@@ATL@@QBE?AV12@H@Z
  00367	50		 push	 eax
  00368	8b cb		 mov	 ecx, ebx
  0036a	c6 45 fc 0c	 mov	 BYTE PTR __$EHRec$[ebp+8], 12 ; 0000000cH
  0036e	ff 15 00 00 00
	00		 call	 DWORD PTR __imp_??4?$CStringT@DV?$StrTraitMFC_DLL@DV?$ChTraitsCRT@D@ATL@@@@@ATL@@QAEAAV01@ABV01@@Z
  00374	8d 4d 0c	 lea	 ecx, DWORD PTR $T12[ebp]
  00377	c6 45 fc 04	 mov	 BYTE PTR __$EHRec$[ebp+8], 4
  0037b	ff 15 00 00 00
	00		 call	 DWORD PTR __imp_??1?$CStringT@DV?$StrTraitMFC_DLL@DV?$ChTraitsCRT@D@ATL@@@@@ATL@@QAE@XZ

; 1635 : 	
; 1636 : 	return GetStringFormatbyCompart(strRemainder, strFormat, strCompartDate, strCompartTime, strResult);

  00381	8b 75 08	 mov	 esi, DWORD PTR ___$ReturnUdt$[ebp]
  00384	8d 45 d0	 lea	 eax, DWORD PTR _strRemainder$[ebp]
  00387	57		 push	 edi
  00388	ff 75 18	 push	 DWORD PTR _strCompartTime$[ebp]
  0038b	ff 75 14	 push	 DWORD PTR _strCompartDate$[ebp]
  0038e	53		 push	 ebx
  0038f	50		 push	 eax
  00390	56		 push	 esi
  00391	e8 00 00 00 00	 call	 ?GetStringFormatbyCompart@CDataConversion@@SA?AV?$CStringT@DV?$StrTraitMFC_DLL@DV?$ChTraitsCRT@D@ATL@@@@@ATL@@ABV23@AAV23@001@Z ; CDataConversion::GetStringFormatbyCompart
  00396	83 c4 18	 add	 esp, 24			; 00000018H
  00399	8d 4d d0	 lea	 ecx, DWORD PTR _strRemainder$[ebp]
  0039c	ff 15 00 00 00
	00		 call	 DWORD PTR __imp_??1?$CStringT@DV?$StrTraitMFC_DLL@DV?$ChTraitsCRT@D@ATL@@@@@ATL@@QAE@XZ
  003a2	8d 4d e0	 lea	 ecx, DWORD PTR _strSpecialTime$[ebp]
  003a5	ff 15 00 00 00
	00		 call	 DWORD PTR __imp_??1?$CStringT@DV?$StrTraitMFC_DLL@DV?$ChTraitsCRT@D@ATL@@@@@ATL@@QAE@XZ
  003ab	8d 4d f0	 lea	 ecx, DWORD PTR _szType$[ebp]
  003ae	ff 15 00 00 00
	00		 call	 DWORD PTR __imp_??1?$CStringT@DV?$StrTraitMFC_DLL@DV?$ChTraitsCRT@D@ATL@@@@@ATL@@QAE@XZ
  003b4	8b c6		 mov	 eax, esi

; 1637 : }

  003b6	8b 4d f4	 mov	 ecx, DWORD PTR __$EHRec$[ebp]
  003b9	64 89 0d 00 00
	00 00		 mov	 DWORD PTR fs:0, ecx
  003c0	59		 pop	 ecx
  003c1	5f		 pop	 edi
  003c2	5e		 pop	 esi
  003c3	5b		 pop	 ebx
  003c4	8b e5		 mov	 esp, ebp
  003c6	5d		 pop	 ebp
  003c7	c3		 ret	 0
_TEXT	ENDS
;	COMDAT text$x
text$x	SEGMENT
__unwindfunclet$?GetStringFormatbyCompart@CDataConversion@@SA?AV?$CStringT@DV?$StrTraitMFC_DLL@DV?$ChTraitsCRT@D@ATL@@@@@ATL@@ABV23@AAV23@001@Z$1:
  00000	8d 4d f0	 lea	 ecx, DWORD PTR _szType$[ebp]
  00003	ff 25 00 00 00
	00		 jmp	 DWORD PTR __imp_??1?$CStringT@DV?$StrTraitMFC_DLL@DV?$ChTraitsCRT@D@ATL@@@@@ATL@@QAE@XZ
__unwindfunclet$?GetStringFormatbyCompart@CDataConversion@@SA?AV?$CStringT@DV?$StrTraitMFC_DLL@DV?$ChTraitsCRT@D@ATL@@@@@ATL@@ABV23@AAV23@001@Z$2:
  00009	8d 4d d4	 lea	 ecx, DWORD PTR $T5[ebp]
  0000c	ff 25 00 00 00
	00		 jmp	 DWORD PTR __imp_??1?$CStringT@DV?$StrTraitMFC_DLL@DV?$ChTraitsCRT@D@ATL@@@@@ATL@@QAE@XZ
__unwindfunclet$?GetStringFormatbyCompart@CDataConversion@@SA?AV?$CStringT@DV?$StrTraitMFC_DLL@DV?$ChTraitsCRT@D@ATL@@@@@ATL@@ABV23@AAV23@001@Z$11:
  00012	8b 45 dc	 mov	 eax, DWORD PTR $T7[ebp]
  00015	83 e0 02	 and	 eax, 2
  00018	0f 84 0d 00 00
	00		 je	 $LN48@GetStringF
  0001e	83 65 dc fd	 and	 DWORD PTR $T7[ebp], -3	; fffffffdH
  00022	8d 4d e4	 lea	 ecx, DWORD PTR $T8[ebp]
  00025	ff 25 00 00 00
	00		 jmp	 DWORD PTR __imp_??1?$CStringT@DV?$StrTraitMFC_DLL@DV?$ChTraitsCRT@D@ATL@@@@@ATL@@QAE@XZ
$LN48@GetStringF:
  0002b	c3		 ret	 0
__unwindfunclet$?GetStringFormatbyCompart@CDataConversion@@SA?AV?$CStringT@DV?$StrTraitMFC_DLL@DV?$ChTraitsCRT@D@ATL@@@@@ATL@@ABV23@AAV23@001@Z$4:
  0002c	8d 4d e0	 lea	 ecx, DWORD PTR _strSpecialTime$[ebp]
  0002f	ff 25 00 00 00
	00		 jmp	 DWORD PTR __imp_??1?$CStringT@DV?$StrTraitMFC_DLL@DV?$ChTraitsCRT@D@ATL@@@@@ATL@@QAE@XZ
__unwindfunclet$?GetStringFormatbyCompart@CDataConversion@@SA?AV?$CStringT@DV?$StrTraitMFC_DLL@DV?$ChTraitsCRT@D@ATL@@@@@ATL@@ABV23@AAV23@001@Z$5:
  00035	8d 4d d0	 lea	 ecx, DWORD PTR _strRemainder$[ebp]
  00038	ff 25 00 00 00
	00		 jmp	 DWORD PTR __imp_??1?$CStringT@DV?$StrTraitMFC_DLL@DV?$ChTraitsCRT@D@ATL@@@@@ATL@@QAE@XZ
__unwindfunclet$?GetStringFormatbyCompart@CDataConversion@@SA?AV?$CStringT@DV?$StrTraitMFC_DLL@DV?$ChTraitsCRT@D@ATL@@@@@ATL@@ABV23@AAV23@001@Z$12:
  0003e	8d 4d 0c	 lea	 ecx, DWORD PTR _szcurType$11[ebp]
  00041	ff 25 00 00 00
	00		 jmp	 DWORD PTR __imp_??1?$CStringT@DV?$StrTraitMFC_DLL@DV?$ChTraitsCRT@D@ATL@@@@@ATL@@QAE@XZ
__unwindfunclet$?GetStringFormatbyCompart@CDataConversion@@SA?AV?$CStringT@DV?$StrTraitMFC_DLL@DV?$ChTraitsCRT@D@ATL@@@@@ATL@@ABV23@AAV23@001@Z$13:
  00047	8d 4d ec	 lea	 ecx, DWORD PTR _sznextType$10[ebp]
  0004a	ff 25 00 00 00
	00		 jmp	 DWORD PTR __imp_??1?$CStringT@DV?$StrTraitMFC_DLL@DV?$ChTraitsCRT@D@ATL@@@@@ATL@@QAE@XZ
__unwindfunclet$?GetStringFormatbyCompart@CDataConversion@@SA?AV?$CStringT@DV?$StrTraitMFC_DLL@DV?$ChTraitsCRT@D@ATL@@@@@ATL@@ABV23@AAV23@001@Z$14:
  00050	8d 4d cc	 lea	 ecx, DWORD PTR $T3[ebp]
  00053	ff 25 00 00 00
	00		 jmp	 DWORD PTR __imp_??1?$CStringT@DV?$StrTraitMFC_DLL@DV?$ChTraitsCRT@D@ATL@@@@@ATL@@QAE@XZ
__unwindfunclet$?GetStringFormatbyCompart@CDataConversion@@SA?AV?$CStringT@DV?$StrTraitMFC_DLL@DV?$ChTraitsCRT@D@ATL@@@@@ATL@@ABV23@AAV23@001@Z$6:
  00059	8d 4d d4	 lea	 ecx, DWORD PTR $T4[ebp]
  0005c	ff 25 00 00 00
	00		 jmp	 DWORD PTR __imp_??1?$CStringT@DV?$StrTraitMFC_DLL@DV?$ChTraitsCRT@D@ATL@@@@@ATL@@QAE@XZ
__unwindfunclet$?GetStringFormatbyCompart@CDataConversion@@SA?AV?$CStringT@DV?$StrTraitMFC_DLL@DV?$ChTraitsCRT@D@ATL@@@@@ATL@@ABV23@AAV23@001@Z$7:
  00062	8d 4d c8	 lea	 ecx, DWORD PTR $T2[ebp]
  00065	ff 25 00 00 00
	00		 jmp	 DWORD PTR __imp_??1?$CStringT@DV?$StrTraitMFC_DLL@DV?$ChTraitsCRT@D@ATL@@@@@ATL@@QAE@XZ
__unwindfunclet$?GetStringFormatbyCompart@CDataConversion@@SA?AV?$CStringT@DV?$StrTraitMFC_DLL@DV?$ChTraitsCRT@D@ATL@@@@@ATL@@ABV23@AAV23@001@Z$16:
  0006b	8b 45 dc	 mov	 eax, DWORD PTR $T7[ebp]
  0006e	83 e0 08	 and	 eax, 8
  00071	0f 84 0d 00 00
	00		 je	 $LN91@GetStringF
  00077	83 65 dc f7	 and	 DWORD PTR $T7[ebp], -9	; fffffff7H
  0007b	8d 4d e8	 lea	 ecx, DWORD PTR $T9[ebp]
  0007e	ff 25 00 00 00
	00		 jmp	 DWORD PTR __imp_??1?$CStringT@DV?$StrTraitMFC_DLL@DV?$ChTraitsCRT@D@ATL@@@@@ATL@@QAE@XZ
$LN91@GetStringF:
  00084	c3		 ret	 0
__unwindfunclet$?GetStringFormatbyCompart@CDataConversion@@SA?AV?$CStringT@DV?$StrTraitMFC_DLL@DV?$ChTraitsCRT@D@ATL@@@@@ATL@@ABV23@AAV23@001@Z$17:
  00085	8b 45 dc	 mov	 eax, DWORD PTR $T7[ebp]
  00088	83 e0 10	 and	 eax, 16			; 00000010H
  0008b	0f 84 0d 00 00
	00		 je	 $LN107@GetStringF
  00091	83 65 dc ef	 and	 DWORD PTR $T7[ebp], -17	; ffffffefH
  00095	8d 4d d8	 lea	 ecx, DWORD PTR $T6[ebp]
  00098	ff 25 00 00 00
	00		 jmp	 DWORD PTR __imp_??1?$CStringT@DV?$StrTraitMFC_DLL@DV?$ChTraitsCRT@D@ATL@@@@@ATL@@QAE@XZ
$LN107@GetStringF:
  0009e	c3		 ret	 0
__unwindfunclet$?GetStringFormatbyCompart@CDataConversion@@SA?AV?$CStringT@DV?$StrTraitMFC_DLL@DV?$ChTraitsCRT@D@ATL@@@@@ATL@@ABV23@AAV23@001@Z$10:
  0009f	8d 4d 0c	 lea	 ecx, DWORD PTR $T12[ebp]
  000a2	ff 25 00 00 00
	00		 jmp	 DWORD PTR __imp_??1?$CStringT@DV?$StrTraitMFC_DLL@DV?$ChTraitsCRT@D@ATL@@@@@ATL@@QAE@XZ
  000a8	cc		 int	 3
  000a9	cc		 int	 3
  000aa	cc		 int	 3
  000ab	cc		 int	 3
  000ac	cc		 int	 3
__ehhandler$?GetStringFormatbyCompart@CDataConversion@@SA?AV?$CStringT@DV?$StrTraitMFC_DLL@DV?$ChTraitsCRT@D@ATL@@@@@ATL@@ABV23@AAV23@001@Z:
  000ad	90		 npad	 1
  000ae	90		 npad	 1
  000af	8b 54 24 08	 mov	 edx, DWORD PTR [esp+8]
  000b3	8d 42 0c	 lea	 eax, DWORD PTR [edx+12]
  000b6	8b 4a c4	 mov	 ecx, DWORD PTR [edx-60]
  000b9	33 c8		 xor	 ecx, eax
  000bb	e8 00 00 00 00	 call	 @__security_check_cookie@4
  000c0	b8 00 00 00 00	 mov	 eax, OFFSET __ehfuncinfo$?GetStringFormatbyCompart@CDataConversion@@SA?AV?$CStringT@DV?$StrTraitMFC_DLL@DV?$ChTraitsCRT@D@ATL@@@@@ATL@@ABV23@AAV23@001@Z
  000c5	e9 00 00 00 00	 jmp	 ___CxxFrameHandler3
text$x	ENDS
?GetStringFormatbyCompart@CDataConversion@@SA?AV?$CStringT@DV?$StrTraitMFC_DLL@DV?$ChTraitsCRT@D@ATL@@@@@ATL@@ABV23@AAV23@001@Z ENDP ; CDataConversion::GetStringFormatbyCompart
; Function compile flags: /Ogtp
; File D:\git\src\IBK\IBK_DRFN\ProjSrc\SrcDrfn\Chart\chart_common\DataList\Conversion.cpp
; File C:\Program Files (x86)\Microsoft Visual Studio\2019\Community\VC\Tools\MSVC\14.29.30133\atlmfc\include\atlsimpstr.h
; File D:\git\src\IBK\IBK_DRFN\ProjSrc\SrcDrfn\Chart\chart_common\DataList\Conversion.cpp
; File C:\Program Files (x86)\Microsoft Visual Studio\2019\Community\VC\Tools\MSVC\14.29.30133\atlmfc\include\atlsimpstr.h
; File D:\git\src\IBK\IBK_DRFN\ProjSrc\SrcDrfn\Chart\chart_common\DataList\Conversion.cpp
; File C:\Program Files (x86)\Microsoft Visual Studio\2019\Community\VC\Tools\MSVC\14.29.30133\atlmfc\include\atlsimpstr.h
; File D:\git\src\IBK\IBK_DRFN\ProjSrc\SrcDrfn\Chart\chart_common\DataList\Conversion.cpp
; File C:\Program Files (x86)\Microsoft Visual Studio\2019\Community\VC\Tools\MSVC\14.29.30133\atlmfc\include\atlsimpstr.h
; File D:\git\src\IBK\IBK_DRFN\ProjSrc\SrcDrfn\Chart\chart_common\DataList\Conversion.cpp
;	COMDAT ?GetStringFormatTrans@CDataConversion@@SA?AV?$CStringT@DV?$StrTraitMFC_DLL@DV?$ChTraitsCRT@D@ATL@@@@@ATL@@ABV23@000@Z
_TEXT	SEGMENT
_strValue$ = -36					; size = 4
_szData$ = -32						; size = 4
_szCompartDate$ = -28					; size = 4
_szCompartTime$ = -24					; size = 4
_strSpecialTime$ = -20					; size = 4
_szFormat$ = -16					; size = 4
__$EHRec$ = -12						; size = 12
___$ReturnUdt$ = 8					; size = 4
_strData$ = 12						; size = 4
_strFormat$ = 16					; size = 4
$T2 = 20						; size = 4
_strCompartDate$ = 20					; size = 4
_strCompartTime$ = 24					; size = 4
?GetStringFormatTrans@CDataConversion@@SA?AV?$CStringT@DV?$StrTraitMFC_DLL@DV?$ChTraitsCRT@D@ATL@@@@@ATL@@ABV23@000@Z PROC ; CDataConversion::GetStringFormatTrans, COMDAT

; 1575 : {

  00000	55		 push	 ebp
  00001	8b ec		 mov	 ebp, esp
  00003	6a ff		 push	 -1
  00005	68 00 00 00 00	 push	 __ehhandler$?GetStringFormatTrans@CDataConversion@@SA?AV?$CStringT@DV?$StrTraitMFC_DLL@DV?$ChTraitsCRT@D@ATL@@@@@ATL@@ABV23@000@Z
  0000a	64 a1 00 00 00
	00		 mov	 eax, DWORD PTR fs:0
  00010	50		 push	 eax
  00011	83 ec 18	 sub	 esp, 24			; 00000018H
  00014	56		 push	 esi
  00015	57		 push	 edi
  00016	a1 00 00 00 00	 mov	 eax, DWORD PTR ___security_cookie
  0001b	33 c5		 xor	 eax, ebp
  0001d	50		 push	 eax
  0001e	8d 45 f4	 lea	 eax, DWORD PTR __$EHRec$[ebp]
  00021	64 a3 00 00 00
	00		 mov	 DWORD PTR fs:0, eax

; 1576 : 	CString szFormat = strFormat, szData = "", szCompartDate = strCompartDate, szCompartTime = strCompartTime ;

  00027	ff 75 10	 push	 DWORD PTR _strFormat$[ebp]
  0002a	8d 4d f0	 lea	 ecx, DWORD PTR _szFormat$[ebp]
  0002d	ff 15 00 00 00
	00		 call	 DWORD PTR __imp_??0?$CStringT@DV?$StrTraitMFC_DLL@DV?$ChTraitsCRT@D@ATL@@@@@ATL@@QAE@ABV01@@Z
  00033	68 00 00 00 00	 push	 OFFSET ??_C@_00CNPNBAHC@@
  00038	8d 4d e0	 lea	 ecx, DWORD PTR _szData$[ebp]
  0003b	c7 45 fc 00 00
	00 00		 mov	 DWORD PTR __$EHRec$[ebp+8], 0
  00042	ff 15 00 00 00
	00		 call	 DWORD PTR __imp_??0?$CStringT@DV?$StrTraitMFC_DLL@DV?$ChTraitsCRT@D@ATL@@@@@ATL@@QAE@PBD@Z
  00048	8b 75 14	 mov	 esi, DWORD PTR _strCompartDate$[ebp]
  0004b	8d 4d e4	 lea	 ecx, DWORD PTR _szCompartDate$[ebp]
  0004e	56		 push	 esi
  0004f	c6 45 fc 01	 mov	 BYTE PTR __$EHRec$[ebp+8], 1
  00053	ff 15 00 00 00
	00		 call	 DWORD PTR __imp_??0?$CStringT@DV?$StrTraitMFC_DLL@DV?$ChTraitsCRT@D@ATL@@@@@ATL@@QAE@ABV01@@Z
  00059	8b 7d 18	 mov	 edi, DWORD PTR _strCompartTime$[ebp]
  0005c	8d 4d e8	 lea	 ecx, DWORD PTR _szCompartTime$[ebp]
  0005f	57		 push	 edi
  00060	c6 45 fc 02	 mov	 BYTE PTR __$EHRec$[ebp+8], 2
  00064	ff 15 00 00 00
	00		 call	 DWORD PTR __imp_??0?$CStringT@DV?$StrTraitMFC_DLL@DV?$ChTraitsCRT@D@ATL@@@@@ATL@@QAE@ABV01@@Z
; File C:\Program Files (x86)\Microsoft Visual Studio\2019\Community\VC\Tools\MSVC\14.29.30133\atlmfc\include\atlsimpstr.h

; 519  : 		return( GetData()->nDataLength );

  0006a	8b 06		 mov	 eax, DWORD PTR [esi]
; File D:\git\src\IBK\IBK_DRFN\ProjSrc\SrcDrfn\Chart\chart_common\DataList\Conversion.cpp

; 1576 : 	CString szFormat = strFormat, szData = "", szCompartDate = strCompartDate, szCompartTime = strCompartTime ;

  0006c	c6 45 fc 03	 mov	 BYTE PTR __$EHRec$[ebp+8], 3
; File C:\Program Files (x86)\Microsoft Visual Studio\2019\Community\VC\Tools\MSVC\14.29.30133\atlmfc\include\atlsimpstr.h

; 533  : 		return( GetLength() == 0 );

  00070	83 78 f4 00	 cmp	 DWORD PTR [eax-12], 0
; File D:\git\src\IBK\IBK_DRFN\ProjSrc\SrcDrfn\Chart\chart_common\DataList\Conversion.cpp

; 1578 : 	if(strCompartDate.IsEmpty())

  00074	75 0e		 jne	 SHORT $LN2@GetStringF

; 1579 : 		szCompartDate = "/" ;

  00076	68 00 00 00 00	 push	 OFFSET ??_C@_01KMDKNFGN@?1@
  0007b	8d 4d e4	 lea	 ecx, DWORD PTR _szCompartDate$[ebp]
  0007e	ff 15 00 00 00
	00		 call	 DWORD PTR __imp_??4?$CStringT@DV?$StrTraitMFC_DLL@DV?$ChTraitsCRT@D@ATL@@@@@ATL@@QAEAAV01@PBD@Z
$LN2@GetStringF:
; File C:\Program Files (x86)\Microsoft Visual Studio\2019\Community\VC\Tools\MSVC\14.29.30133\atlmfc\include\atlsimpstr.h

; 519  : 		return( GetData()->nDataLength );

  00084	8b 07		 mov	 eax, DWORD PTR [edi]

; 533  : 		return( GetLength() == 0 );

  00086	83 78 f4 00	 cmp	 DWORD PTR [eax-12], 0
; File D:\git\src\IBK\IBK_DRFN\ProjSrc\SrcDrfn\Chart\chart_common\DataList\Conversion.cpp

; 1580 : 	if(strCompartTime.IsEmpty())

  0008a	75 0e		 jne	 SHORT $LN3@GetStringF

; 1581 : 		szCompartTime = ":" ;

  0008c	68 00 00 00 00	 push	 OFFSET ??_C@_01JLIPDDHJ@?3@
  00091	8d 4d e8	 lea	 ecx, DWORD PTR _szCompartTime$[ebp]
  00094	ff 15 00 00 00
	00		 call	 DWORD PTR __imp_??4?$CStringT@DV?$StrTraitMFC_DLL@DV?$ChTraitsCRT@D@ATL@@@@@ATL@@QAEAAV01@PBD@Z
$LN3@GetStringF:

; 1582 : 
; 1583 : 	szFormat.TrimLeft();

  0009a	8d 4d f0	 lea	 ecx, DWORD PTR _szFormat$[ebp]
  0009d	ff 15 00 00 00
	00		 call	 DWORD PTR __imp_?TrimLeft@?$CStringT@DV?$StrTraitMFC_DLL@DV?$ChTraitsCRT@D@ATL@@@@@ATL@@QAEAAV12@XZ

; 1584 : 	szFormat.TrimRight();

  000a3	8d 4d f0	 lea	 ecx, DWORD PTR _szFormat$[ebp]
  000a6	ff 15 00 00 00
	00		 call	 DWORD PTR __imp_?TrimRight@?$CStringT@DV?$StrTraitMFC_DLL@DV?$ChTraitsCRT@D@ATL@@@@@ATL@@QAEAAV12@XZ
; File C:\Program Files (x86)\Microsoft Visual Studio\2019\Community\VC\Tools\MSVC\14.29.30133\atlmfc\include\atlsimpstr.h

; 519  : 		return( GetData()->nDataLength );

  000ac	8b 45 f0	 mov	 eax, DWORD PTR _szFormat$[ebp]

; 377  : 		return( m_pszData );

  000af	8b 75 0c	 mov	 esi, DWORD PTR _strData$[ebp]
; File D:\git\src\IBK\IBK_DRFN\ProjSrc\SrcDrfn\Chart\chart_common\DataList\Conversion.cpp

; 1586 : 	CString strValue = IntToString(atoi(strData), szFormat.GetLength());

  000b2	ff 70 f4	 push	 DWORD PTR [eax-12]
  000b5	ff 36		 push	 DWORD PTR [esi]
  000b7	ff 15 00 00 00
	00		 call	 DWORD PTR __imp__atoi
  000bd	83 c4 04	 add	 esp, 4
  000c0	50		 push	 eax
  000c1	8d 45 dc	 lea	 eax, DWORD PTR _strValue$[ebp]
  000c4	50		 push	 eax
  000c5	e8 00 00 00 00	 call	 ?IntToString@CDataConversion@@SA?AV?$CStringT@DV?$StrTraitMFC_DLL@DV?$ChTraitsCRT@D@ATL@@@@@ATL@@HH@Z ; CDataConversion::IntToString
  000ca	83 c4 0c	 add	 esp, 12			; 0000000cH

; 1587 : 
; 1588 : 	//sy 2004.04.16
; 1589 : 	CString strSpecialTime;

  000cd	8d 4d ec	 lea	 ecx, DWORD PTR _strSpecialTime$[ebp]
  000d0	ff 15 00 00 00
	00		 call	 DWORD PTR __imp_??0?$CStringT@DV?$StrTraitMFC_DLL@DV?$ChTraitsCRT@D@ATL@@@@@ATL@@QAE@XZ

; 1590 : 	if(GetSpecialTime(strFormat, strData, strSpecialTime))

  000d6	8d 45 ec	 lea	 eax, DWORD PTR _strSpecialTime$[ebp]
  000d9	c6 45 fc 05	 mov	 BYTE PTR __$EHRec$[ebp+8], 5
  000dd	50		 push	 eax
  000de	56		 push	 esi
  000df	ff 75 10	 push	 DWORD PTR _strFormat$[ebp]
  000e2	e8 00 00 00 00	 call	 ?GetSpecialTime@CDataConversion@@SA_NABV?$CStringT@DV?$StrTraitMFC_DLL@DV?$ChTraitsCRT@D@ATL@@@@@ATL@@0AAV23@@Z ; CDataConversion::GetSpecialTime
  000e7	83 c4 0c	 add	 esp, 12			; 0000000cH
  000ea	84 c0		 test	 al, al
  000ec	74 05		 je	 SHORT $LN4@GetStringF

; 1591 : 		return strSpecialTime;

  000ee	8d 45 ec	 lea	 eax, DWORD PTR _strSpecialTime$[ebp]
  000f1	eb 2c		 jmp	 SHORT $LN34@GetStringF
$LN4@GetStringF:

; 1592 : 	//end
; 1593 : 
; 1594 : 	GetStringFormatbyCompart(strValue, szFormat, szCompartDate, szCompartTime, szData);

  000f3	8d 45 e0	 lea	 eax, DWORD PTR _szData$[ebp]
  000f6	50		 push	 eax
  000f7	8d 45 e8	 lea	 eax, DWORD PTR _szCompartTime$[ebp]
  000fa	50		 push	 eax
  000fb	8d 45 e4	 lea	 eax, DWORD PTR _szCompartDate$[ebp]
  000fe	50		 push	 eax
  000ff	8d 45 f0	 lea	 eax, DWORD PTR _szFormat$[ebp]
  00102	50		 push	 eax
  00103	8d 45 dc	 lea	 eax, DWORD PTR _strValue$[ebp]
  00106	50		 push	 eax
  00107	8d 45 14	 lea	 eax, DWORD PTR $T2[ebp]
  0010a	50		 push	 eax
  0010b	e8 00 00 00 00	 call	 ?GetStringFormatbyCompart@CDataConversion@@SA?AV?$CStringT@DV?$StrTraitMFC_DLL@DV?$ChTraitsCRT@D@ATL@@@@@ATL@@ABV23@AAV23@001@Z ; CDataConversion::GetStringFormatbyCompart
  00110	83 c4 18	 add	 esp, 24			; 00000018H
  00113	8d 4d 14	 lea	 ecx, DWORD PTR $T2[ebp]
  00116	ff 15 00 00 00
	00		 call	 DWORD PTR __imp_??1?$CStringT@DV?$StrTraitMFC_DLL@DV?$ChTraitsCRT@D@ATL@@@@@ATL@@QAE@XZ

; 1595 : 
; 1596 : 	return szData;

  0011c	8d 45 e0	 lea	 eax, DWORD PTR _szData$[ebp]
$LN34@GetStringF:

; 1597 : }

  0011f	8b 4d 08	 mov	 ecx, DWORD PTR ___$ReturnUdt$[ebp]
  00122	50		 push	 eax
  00123	ff 15 00 00 00
	00		 call	 DWORD PTR __imp_??0?$CStringT@DV?$StrTraitMFC_DLL@DV?$ChTraitsCRT@D@ATL@@@@@ATL@@QAE@ABV01@@Z
  00129	8d 4d ec	 lea	 ecx, DWORD PTR _strSpecialTime$[ebp]
  0012c	ff 15 00 00 00
	00		 call	 DWORD PTR __imp_??1?$CStringT@DV?$StrTraitMFC_DLL@DV?$ChTraitsCRT@D@ATL@@@@@ATL@@QAE@XZ
  00132	8d 4d dc	 lea	 ecx, DWORD PTR _strValue$[ebp]
  00135	ff 15 00 00 00
	00		 call	 DWORD PTR __imp_??1?$CStringT@DV?$StrTraitMFC_DLL@DV?$ChTraitsCRT@D@ATL@@@@@ATL@@QAE@XZ
  0013b	8d 4d e8	 lea	 ecx, DWORD PTR _szCompartTime$[ebp]
  0013e	ff 15 00 00 00
	00		 call	 DWORD PTR __imp_??1?$CStringT@DV?$StrTraitMFC_DLL@DV?$ChTraitsCRT@D@ATL@@@@@ATL@@QAE@XZ
  00144	8d 4d e4	 lea	 ecx, DWORD PTR _szCompartDate$[ebp]
  00147	ff 15 00 00 00
	00		 call	 DWORD PTR __imp_??1?$CStringT@DV?$StrTraitMFC_DLL@DV?$ChTraitsCRT@D@ATL@@@@@ATL@@QAE@XZ
  0014d	8d 4d e0	 lea	 ecx, DWORD PTR _szData$[ebp]
  00150	ff 15 00 00 00
	00		 call	 DWORD PTR __imp_??1?$CStringT@DV?$StrTraitMFC_DLL@DV?$ChTraitsCRT@D@ATL@@@@@ATL@@QAE@XZ
  00156	8d 4d f0	 lea	 ecx, DWORD PTR _szFormat$[ebp]
  00159	ff 15 00 00 00
	00		 call	 DWORD PTR __imp_??1?$CStringT@DV?$StrTraitMFC_DLL@DV?$ChTraitsCRT@D@ATL@@@@@ATL@@QAE@XZ
  0015f	8b 45 08	 mov	 eax, DWORD PTR ___$ReturnUdt$[ebp]
  00162	8b 4d f4	 mov	 ecx, DWORD PTR __$EHRec$[ebp]
  00165	64 89 0d 00 00
	00 00		 mov	 DWORD PTR fs:0, ecx
  0016c	59		 pop	 ecx
  0016d	5f		 pop	 edi
  0016e	5e		 pop	 esi
  0016f	8b e5		 mov	 esp, ebp
  00171	5d		 pop	 ebp
  00172	c3		 ret	 0
_TEXT	ENDS
;	COMDAT text$x
text$x	SEGMENT
__unwindfunclet$?GetStringFormatTrans@CDataConversion@@SA?AV?$CStringT@DV?$StrTraitMFC_DLL@DV?$ChTraitsCRT@D@ATL@@@@@ATL@@ABV23@000@Z$0:
  00000	8d 4d f0	 lea	 ecx, DWORD PTR _szFormat$[ebp]
  00003	ff 25 00 00 00
	00		 jmp	 DWORD PTR __imp_??1?$CStringT@DV?$StrTraitMFC_DLL@DV?$ChTraitsCRT@D@ATL@@@@@ATL@@QAE@XZ
__unwindfunclet$?GetStringFormatTrans@CDataConversion@@SA?AV?$CStringT@DV?$StrTraitMFC_DLL@DV?$ChTraitsCRT@D@ATL@@@@@ATL@@ABV23@000@Z$1:
  00009	8d 4d e0	 lea	 ecx, DWORD PTR _szData$[ebp]
  0000c	ff 25 00 00 00
	00		 jmp	 DWORD PTR __imp_??1?$CStringT@DV?$StrTraitMFC_DLL@DV?$ChTraitsCRT@D@ATL@@@@@ATL@@QAE@XZ
__unwindfunclet$?GetStringFormatTrans@CDataConversion@@SA?AV?$CStringT@DV?$StrTraitMFC_DLL@DV?$ChTraitsCRT@D@ATL@@@@@ATL@@ABV23@000@Z$2:
  00012	8d 4d e4	 lea	 ecx, DWORD PTR _szCompartDate$[ebp]
  00015	ff 25 00 00 00
	00		 jmp	 DWORD PTR __imp_??1?$CStringT@DV?$StrTraitMFC_DLL@DV?$ChTraitsCRT@D@ATL@@@@@ATL@@QAE@XZ
__unwindfunclet$?GetStringFormatTrans@CDataConversion@@SA?AV?$CStringT@DV?$StrTraitMFC_DLL@DV?$ChTraitsCRT@D@ATL@@@@@ATL@@ABV23@000@Z$3:
  0001b	8d 4d e8	 lea	 ecx, DWORD PTR _szCompartTime$[ebp]
  0001e	ff 25 00 00 00
	00		 jmp	 DWORD PTR __imp_??1?$CStringT@DV?$StrTraitMFC_DLL@DV?$ChTraitsCRT@D@ATL@@@@@ATL@@QAE@XZ
__unwindfunclet$?GetStringFormatTrans@CDataConversion@@SA?AV?$CStringT@DV?$StrTraitMFC_DLL@DV?$ChTraitsCRT@D@ATL@@@@@ATL@@ABV23@000@Z$4:
  00024	8d 4d dc	 lea	 ecx, DWORD PTR _strValue$[ebp]
  00027	ff 25 00 00 00
	00		 jmp	 DWORD PTR __imp_??1?$CStringT@DV?$StrTraitMFC_DLL@DV?$ChTraitsCRT@D@ATL@@@@@ATL@@QAE@XZ
__unwindfunclet$?GetStringFormatTrans@CDataConversion@@SA?AV?$CStringT@DV?$StrTraitMFC_DLL@DV?$ChTraitsCRT@D@ATL@@@@@ATL@@ABV23@000@Z$5:
  0002d	8d 4d ec	 lea	 ecx, DWORD PTR _strSpecialTime$[ebp]
  00030	ff 25 00 00 00
	00		 jmp	 DWORD PTR __imp_??1?$CStringT@DV?$StrTraitMFC_DLL@DV?$ChTraitsCRT@D@ATL@@@@@ATL@@QAE@XZ
  00036	cc		 int	 3
  00037	cc		 int	 3
  00038	cc		 int	 3
  00039	cc		 int	 3
  0003a	cc		 int	 3
__ehhandler$?GetStringFormatTrans@CDataConversion@@SA?AV?$CStringT@DV?$StrTraitMFC_DLL@DV?$ChTraitsCRT@D@ATL@@@@@ATL@@ABV23@000@Z:
  0003b	90		 npad	 1
  0003c	90		 npad	 1
  0003d	8b 54 24 08	 mov	 edx, DWORD PTR [esp+8]
  00041	8d 42 0c	 lea	 eax, DWORD PTR [edx+12]
  00044	8b 4a dc	 mov	 ecx, DWORD PTR [edx-36]
  00047	33 c8		 xor	 ecx, eax
  00049	e8 00 00 00 00	 call	 @__security_check_cookie@4
  0004e	b8 00 00 00 00	 mov	 eax, OFFSET __ehfuncinfo$?GetStringFormatTrans@CDataConversion@@SA?AV?$CStringT@DV?$StrTraitMFC_DLL@DV?$ChTraitsCRT@D@ATL@@@@@ATL@@ABV23@000@Z
  00053	e9 00 00 00 00	 jmp	 ___CxxFrameHandler3
text$x	ENDS
?GetStringFormatTrans@CDataConversion@@SA?AV?$CStringT@DV?$StrTraitMFC_DLL@DV?$ChTraitsCRT@D@ATL@@@@@ATL@@ABV23@000@Z ENDP ; CDataConversion::GetStringFormatTrans
; Function compile flags: /Ogtp
; File D:\git\src\IBK\IBK_DRFN\ProjSrc\SrcDrfn\Chart\chart_common\DataList\Conversion.cpp
; File C:\Program Files (x86)\Microsoft Visual Studio\2019\Community\VC\Tools\MSVC\14.29.30133\atlmfc\include\atlsimpstr.h
; File D:\git\src\IBK\IBK_DRFN\ProjSrc\SrcDrfn\Chart\chart_common\DataList\Conversion.cpp
; File C:\Program Files (x86)\Microsoft Visual Studio\2019\Community\VC\Tools\MSVC\14.29.30133\atlmfc\include\atlsimpstr.h
; File D:\git\src\IBK\IBK_DRFN\ProjSrc\SrcDrfn\Chart\chart_common\DataList\Conversion.cpp
; File C:\Program Files (x86)\Microsoft Visual Studio\2019\Community\VC\Tools\MSVC\14.29.30133\atlmfc\include\atlsimpstr.h
; File D:\git\src\IBK\IBK_DRFN\ProjSrc\SrcDrfn\Chart\chart_common\DataList\Conversion.cpp
; File C:\Program Files (x86)\Microsoft Visual Studio\2019\Community\VC\Tools\MSVC\14.29.30133\atlmfc\include\atlsimpstr.h
; File D:\git\src\IBK\IBK_DRFN\ProjSrc\SrcDrfn\Chart\chart_common\DataList\Conversion.cpp
; File C:\Program Files (x86)\Microsoft Visual Studio\2019\Community\VC\Tools\MSVC\14.29.30133\atlmfc\include\atlsimpstr.h
; File D:\git\src\IBK\IBK_DRFN\ProjSrc\SrcDrfn\Chart\chart_common\DataList\Conversion.cpp
; File C:\Program Files (x86)\Microsoft Visual Studio\2019\Community\VC\Tools\MSVC\14.29.30133\atlmfc\include\cstringt.h
; File D:\git\src\IBK\IBK_DRFN\ProjSrc\SrcDrfn\Chart\chart_common\DataList\Conversion.cpp
; File C:\Program Files (x86)\Microsoft Visual Studio\2019\Community\VC\Tools\MSVC\14.29.30133\atlmfc\include\cstringt.h
; File C:\Program Files (x86)\Microsoft Visual Studio\2019\Community\VC\Tools\MSVC\14.29.30133\atlmfc\include\atlsimpstr.h
; File C:\Program Files (x86)\Microsoft Visual Studio\2019\Community\VC\Tools\MSVC\14.29.30133\atlmfc\include\cstringt.h
; File D:\git\src\IBK\IBK_DRFN\ProjSrc\SrcDrfn\Chart\chart_common\DataList\Conversion.cpp
; File C:\Program Files (x86)\Microsoft Visual Studio\2019\Community\VC\Tools\MSVC\14.29.30133\atlmfc\include\cstringt.h
; File C:\Program Files (x86)\Microsoft Visual Studio\2019\Community\VC\Tools\MSVC\14.29.30133\atlmfc\include\atlsimpstr.h
; File C:\Program Files (x86)\Microsoft Visual Studio\2019\Community\VC\Tools\MSVC\14.29.30133\atlmfc\include\cstringt.h
; File C:\Program Files (x86)\Microsoft Visual Studio\2019\Community\VC\Tools\MSVC\14.29.30133\atlmfc\include\atlsimpstr.h
; File C:\Program Files (x86)\Microsoft Visual Studio\2019\Community\VC\Tools\MSVC\14.29.30133\atlmfc\include\cstringt.h
; File D:\git\src\IBK\IBK_DRFN\ProjSrc\SrcDrfn\Chart\chart_common\DataList\Conversion.cpp
; File C:\Program Files (x86)\Microsoft Visual Studio\2019\Community\VC\Tools\MSVC\14.29.30133\atlmfc\include\atlsimpstr.h
; File D:\git\src\IBK\IBK_DRFN\ProjSrc\SrcDrfn\Chart\chart_common\DataList\Conversion.cpp
; File C:\Program Files (x86)\Microsoft Visual Studio\2019\Community\VC\Tools\MSVC\14.29.30133\atlmfc\include\atlsimpstr.h
; File D:\git\src\IBK\IBK_DRFN\ProjSrc\SrcDrfn\Chart\chart_common\DataList\Conversion.cpp
; File C:\Program Files (x86)\Microsoft Visual Studio\2019\Community\VC\Tools\MSVC\14.29.30133\atlmfc\include\cstringt.h
; File D:\git\src\IBK\IBK_DRFN\ProjSrc\SrcDrfn\Chart\chart_common\DataList\Conversion.cpp
; File C:\Program Files (x86)\Microsoft Visual Studio\2019\Community\VC\Tools\MSVC\14.29.30133\atlmfc\include\cstringt.h
; File C:\Program Files (x86)\Microsoft Visual Studio\2019\Community\VC\Tools\MSVC\14.29.30133\atlmfc\include\atlsimpstr.h
; File C:\Program Files (x86)\Microsoft Visual Studio\2019\Community\VC\Tools\MSVC\14.29.30133\atlmfc\include\cstringt.h
; File C:\Program Files (x86)\Microsoft Visual Studio\2019\Community\VC\Tools\MSVC\14.29.30133\atlmfc\include\atlsimpstr.h
; File C:\Program Files (x86)\Microsoft Visual Studio\2019\Community\VC\Tools\MSVC\14.29.30133\atlmfc\include\cstringt.h
; File D:\git\src\IBK\IBK_DRFN\ProjSrc\SrcDrfn\Chart\chart_common\DataList\Conversion.cpp
; File C:\Program Files (x86)\Microsoft Visual Studio\2019\Community\VC\Tools\MSVC\14.29.30133\atlmfc\include\atlsimpstr.h
; File D:\git\src\IBK\IBK_DRFN\ProjSrc\SrcDrfn\Chart\chart_common\DataList\Conversion.cpp
;	COMDAT ?GetStringThousandFormat@CDataConversion@@SA?AV?$CStringT@DV?$StrTraitMFC_DLL@DV?$ChTraitsCRT@D@ATL@@@@@ATL@@ABV23@@Z
_TEXT	SEGMENT
$T2 = -48						; size = 4
$T3 = -48						; size = 4
$T4 = -44						; size = 4
$T5 = -44						; size = 4
$T6 = -40						; size = 4
$T7 = -36						; size = 4
$T8 = -32						; size = 4
_strDecimal$ = -28					; size = 4
_temp$ = -24						; size = 4
_str$ = -20						; size = 4
_strT$ = -16						; size = 4
__$EHRec$ = -12						; size = 12
___$ReturnUdt$ = 8					; size = 4
_strData$ = 12						; size = 4
?GetStringThousandFormat@CDataConversion@@SA?AV?$CStringT@DV?$StrTraitMFC_DLL@DV?$ChTraitsCRT@D@ATL@@@@@ATL@@ABV23@@Z PROC ; CDataConversion::GetStringThousandFormat, COMDAT

; 1539 : {

  00000	55		 push	 ebp
  00001	8b ec		 mov	 ebp, esp
  00003	6a ff		 push	 -1
  00005	68 00 00 00 00	 push	 __ehhandler$?GetStringThousandFormat@CDataConversion@@SA?AV?$CStringT@DV?$StrTraitMFC_DLL@DV?$ChTraitsCRT@D@ATL@@@@@ATL@@ABV23@@Z
  0000a	64 a1 00 00 00
	00		 mov	 eax, DWORD PTR fs:0
  00010	50		 push	 eax
  00011	83 ec 24	 sub	 esp, 36			; 00000024H
  00014	53		 push	 ebx
  00015	56		 push	 esi
  00016	57		 push	 edi
  00017	a1 00 00 00 00	 mov	 eax, DWORD PTR ___security_cookie
  0001c	33 c5		 xor	 eax, ebp
  0001e	50		 push	 eax
  0001f	8d 45 f4	 lea	 eax, DWORD PTR __$EHRec$[ebp]
  00022	64 a3 00 00 00
	00		 mov	 DWORD PTR fs:0, eax

; 1540 : 	CString temp = strData;

  00028	8b 75 0c	 mov	 esi, DWORD PTR _strData$[ebp]
  0002b	8d 4d e8	 lea	 ecx, DWORD PTR _temp$[ebp]
  0002e	33 ff		 xor	 edi, edi
  00030	56		 push	 esi
  00031	89 7d d8	 mov	 DWORD PTR $T6[ebp], edi
  00034	ff 15 00 00 00
	00		 call	 DWORD PTR __imp_??0?$CStringT@DV?$StrTraitMFC_DLL@DV?$ChTraitsCRT@D@ATL@@@@@ATL@@QAE@ABV01@@Z

; 1541 : 	bool puls = true;
; 1542 : 	if(temp.Find('-') == 0){

  0003a	57		 push	 edi
  0003b	6a 2d		 push	 45			; 0000002dH
  0003d	8d 4d e8	 lea	 ecx, DWORD PTR _temp$[ebp]
  00040	89 7d fc	 mov	 DWORD PTR __$EHRec$[ebp+8], edi
  00043	b3 01		 mov	 bl, 1
  00045	ff 15 00 00 00
	00		 call	 DWORD PTR __imp_?Find@?$CStringT@DV?$StrTraitMFC_DLL@DV?$ChTraitsCRT@D@ATL@@@@@ATL@@QBEHDH@Z
  0004b	85 c0		 test	 eax, eax
  0004d	75 0d		 jne	 SHORT $LN4@GetStringT

; 1543 : 		puls = false;
; 1544 : 		temp.TrimLeft('-');

  0004f	6a 2d		 push	 45			; 0000002dH
  00051	8d 4d e8	 lea	 ecx, DWORD PTR _temp$[ebp]
  00054	32 db		 xor	 bl, bl
  00056	ff 15 00 00 00
	00		 call	 DWORD PTR __imp_?TrimLeft@?$CStringT@DV?$StrTraitMFC_DLL@DV?$ChTraitsCRT@D@ATL@@@@@ATL@@QAEAAV12@D@Z
$LN4@GetStringT:
; File C:\Program Files (x86)\Microsoft Visual Studio\2019\Community\VC\Tools\MSVC\14.29.30133\atlmfc\include\atlsimpstr.h

; 519  : 		return( GetData()->nDataLength );

  0005c	8b 45 e8	 mov	 eax, DWORD PTR _temp$[ebp]
; File D:\git\src\IBK\IBK_DRFN\ProjSrc\SrcDrfn\Chart\chart_common\DataList\Conversion.cpp

; 1546 : 	if(temp.GetLength() <= 3)

  0005f	83 78 f4 03	 cmp	 DWORD PTR [eax-12], 3
  00063	7f 28		 jg	 SHORT $LN5@GetStringT

; 1547 : 		return strData ;

  00065	8b 4d 08	 mov	 ecx, DWORD PTR ___$ReturnUdt$[ebp]
  00068	56		 push	 esi
  00069	ff 15 00 00 00
	00		 call	 DWORD PTR __imp_??0?$CStringT@DV?$StrTraitMFC_DLL@DV?$ChTraitsCRT@D@ATL@@@@@ATL@@QAE@ABV01@@Z
  0006f	8d 4d e8	 lea	 ecx, DWORD PTR _temp$[ebp]
  00072	ff 15 00 00 00
	00		 call	 DWORD PTR __imp_??1?$CStringT@DV?$StrTraitMFC_DLL@DV?$ChTraitsCRT@D@ATL@@@@@ATL@@QAE@XZ
  00078	8b 45 08	 mov	 eax, DWORD PTR ___$ReturnUdt$[ebp]

; 1571 : }

  0007b	8b 4d f4	 mov	 ecx, DWORD PTR __$EHRec$[ebp]
  0007e	64 89 0d 00 00
	00 00		 mov	 DWORD PTR fs:0, ecx
  00085	59		 pop	 ecx
  00086	5f		 pop	 edi
  00087	5e		 pop	 esi
  00088	5b		 pop	 ebx
  00089	8b e5		 mov	 esp, ebp
  0008b	5d		 pop	 ebp
  0008c	c3		 ret	 0
$LN5@GetStringT:

; 1548 : 
; 1549 : 	CString strDecimal, strT = temp;

  0008d	8d 4d e4	 lea	 ecx, DWORD PTR _strDecimal$[ebp]
  00090	ff 15 00 00 00
	00		 call	 DWORD PTR __imp_??0?$CStringT@DV?$StrTraitMFC_DLL@DV?$ChTraitsCRT@D@ATL@@@@@ATL@@QAE@XZ
  00096	8d 45 e8	 lea	 eax, DWORD PTR _temp$[ebp]
  00099	c6 45 fc 01	 mov	 BYTE PTR __$EHRec$[ebp+8], 1
  0009d	50		 push	 eax
  0009e	8d 4d f0	 lea	 ecx, DWORD PTR _strT$[ebp]
  000a1	ff 15 00 00 00
	00		 call	 DWORD PTR __imp_??0?$CStringT@DV?$StrTraitMFC_DLL@DV?$ChTraitsCRT@D@ATL@@@@@ATL@@QAE@ABV01@@Z

; 1550 : 	//sy ->   
; 1551 : 	if(strT.Find('.') != -1){

  000a7	6a 00		 push	 0
  000a9	6a 2e		 push	 46			; 0000002eH
  000ab	8d 4d f0	 lea	 ecx, DWORD PTR _strT$[ebp]
  000ae	c6 45 fc 02	 mov	 BYTE PTR __$EHRec$[ebp+8], 2
  000b2	ff 15 00 00 00
	00		 call	 DWORD PTR __imp_?Find@?$CStringT@DV?$StrTraitMFC_DLL@DV?$ChTraitsCRT@D@ATL@@@@@ATL@@QBEHDH@Z
  000b8	83 f8 ff	 cmp	 eax, -1
  000bb	74 4f		 je	 SHORT $LN6@GetStringT
; File C:\Program Files (x86)\Microsoft Visual Studio\2019\Community\VC\Tools\MSVC\14.29.30133\atlmfc\include\atlsimpstr.h

; 519  : 		return( GetData()->nDataLength );

  000bd	8b 45 f0	 mov	 eax, DWORD PTR _strT$[ebp]
; File D:\git\src\IBK\IBK_DRFN\ProjSrc\SrcDrfn\Chart\chart_common\DataList\Conversion.cpp

; 1552 : 		strDecimal = strT.Right(strT.GetLength() - strT.Find('.'));

  000c0	8d 4d f0	 lea	 ecx, DWORD PTR _strT$[ebp]
  000c3	6a 00		 push	 0
  000c5	6a 2e		 push	 46			; 0000002eH
; File C:\Program Files (x86)\Microsoft Visual Studio\2019\Community\VC\Tools\MSVC\14.29.30133\atlmfc\include\atlsimpstr.h

; 519  : 		return( GetData()->nDataLength );

  000c7	8b 70 f4	 mov	 esi, DWORD PTR [eax-12]
; File D:\git\src\IBK\IBK_DRFN\ProjSrc\SrcDrfn\Chart\chart_common\DataList\Conversion.cpp

; 1552 : 		strDecimal = strT.Right(strT.GetLength() - strT.Find('.'));

  000ca	ff 15 00 00 00
	00		 call	 DWORD PTR __imp_?Find@?$CStringT@DV?$StrTraitMFC_DLL@DV?$ChTraitsCRT@D@ATL@@@@@ATL@@QBEHDH@Z
  000d0	2b f0		 sub	 esi, eax
  000d2	8d 4d f0	 lea	 ecx, DWORD PTR _strT$[ebp]
  000d5	56		 push	 esi
  000d6	8d 45 d4	 lea	 eax, DWORD PTR $T5[ebp]
  000d9	50		 push	 eax
  000da	ff 15 00 00 00
	00		 call	 DWORD PTR __imp_?Right@?$CStringT@DV?$StrTraitMFC_DLL@DV?$ChTraitsCRT@D@ATL@@@@@ATL@@QBE?AV12@H@Z
  000e0	50		 push	 eax
  000e1	8d 4d e4	 lea	 ecx, DWORD PTR _strDecimal$[ebp]
  000e4	c6 45 fc 03	 mov	 BYTE PTR __$EHRec$[ebp+8], 3
  000e8	ff 15 00 00 00
	00		 call	 DWORD PTR __imp_??4?$CStringT@DV?$StrTraitMFC_DLL@DV?$ChTraitsCRT@D@ATL@@@@@ATL@@QAEAAV01@ABV01@@Z
  000ee	8d 4d d4	 lea	 ecx, DWORD PTR $T5[ebp]
  000f1	c6 45 fc 02	 mov	 BYTE PTR __$EHRec$[ebp+8], 2
  000f5	ff 15 00 00 00
	00		 call	 DWORD PTR __imp_??1?$CStringT@DV?$StrTraitMFC_DLL@DV?$ChTraitsCRT@D@ATL@@@@@ATL@@QAE@XZ

; 1553 : 		strT.Replace(strDecimal, "");

  000fb	68 00 00 00 00	 push	 OFFSET ??_C@_00CNPNBAHC@@
  00100	ff 75 e4	 push	 DWORD PTR _strDecimal$[ebp]
  00103	8d 4d f0	 lea	 ecx, DWORD PTR _strT$[ebp]
  00106	ff 15 00 00 00
	00		 call	 DWORD PTR __imp_?Replace@?$CStringT@DV?$StrTraitMFC_DLL@DV?$ChTraitsCRT@D@ATL@@@@@ATL@@QAEHPBD0@Z
$LN6@GetStringT:

; 1557 : 	CString str;

  0010c	8d 4d ec	 lea	 ecx, DWORD PTR _str$[ebp]
  0010f	ff 15 00 00 00
	00		 call	 DWORD PTR __imp_??0?$CStringT@DV?$StrTraitMFC_DLL@DV?$ChTraitsCRT@D@ATL@@@@@ATL@@QAE@XZ
; File C:\Program Files (x86)\Microsoft Visual Studio\2019\Community\VC\Tools\MSVC\14.29.30133\atlmfc\include\atlsimpstr.h

; 519  : 		return( GetData()->nDataLength );

  00115	8b 45 f0	 mov	 eax, DWORD PTR _strT$[ebp]
; File D:\git\src\IBK\IBK_DRFN\ProjSrc\SrcDrfn\Chart\chart_common\DataList\Conversion.cpp

; 1557 : 	CString str;

  00118	c6 45 fc 04	 mov	 BYTE PTR __$EHRec$[ebp+8], 4
; File C:\Program Files (x86)\Microsoft Visual Studio\2019\Community\VC\Tools\MSVC\14.29.30133\atlmfc\include\atlsimpstr.h

; 519  : 		return( GetData()->nDataLength );

  0011c	8b 40 f4	 mov	 eax, DWORD PTR [eax-12]

; 533  : 		return( GetLength() == 0 );

  0011f	85 c0		 test	 eax, eax
; File D:\git\src\IBK\IBK_DRFN\ProjSrc\SrcDrfn\Chart\chart_common\DataList\Conversion.cpp

; 1558 : 	while(!strT.IsEmpty())	{

  00121	0f 84 3d 01 00
	00		 je	 $LN3@GetStringT
$LL2@GetStringT:

; 1559 : 		if(strT.GetLength() > 3)	{

  00127	83 f8 03	 cmp	 eax, 3
  0012a	0f 8e c8 00 00
	00		 jle	 $LN7@GetStringT

; 1560 : 			str = "," + strT.Right(3) + str ;

  00130	6a 03		 push	 3
  00132	8d 45 d0	 lea	 eax, DWORD PTR $T3[ebp]
  00135	50		 push	 eax
  00136	8d 4d f0	 lea	 ecx, DWORD PTR _strT$[ebp]
  00139	ff 15 00 00 00
	00		 call	 DWORD PTR __imp_?Right@?$CStringT@DV?$StrTraitMFC_DLL@DV?$ChTraitsCRT@D@ATL@@@@@ATL@@QBE?AV12@H@Z
  0013f	8b f0		 mov	 esi, eax
; File C:\Program Files (x86)\Microsoft Visual Studio\2019\Community\VC\Tools\MSVC\14.29.30133\atlmfc\include\cstringt.h

; 2412 : 		CStringT strResult( str2.GetManager() );

  00141	8b ce		 mov	 ecx, esi
; File D:\git\src\IBK\IBK_DRFN\ProjSrc\SrcDrfn\Chart\chart_common\DataList\Conversion.cpp

; 1560 : 			str = "," + strT.Right(3) + str ;

  00143	c6 45 fc 06	 mov	 BYTE PTR __$EHRec$[ebp+8], 6
; File C:\Program Files (x86)\Microsoft Visual Studio\2019\Community\VC\Tools\MSVC\14.29.30133\atlmfc\include\cstringt.h

; 2412 : 		CStringT strResult( str2.GetManager() );

  00147	ff 15 00 00 00
	00		 call	 DWORD PTR __imp_?GetManager@?$CStringT@DV?$StrTraitMFC_DLL@DV?$ChTraitsCRT@D@ATL@@@@@ATL@@QBEPAUIAtlStringMgr@2@XZ
  0014d	50		 push	 eax
  0014e	8d 4d e0	 lea	 ecx, DWORD PTR $T8[ebp]
  00151	ff 15 00 00 00
	00		 call	 DWORD PTR __imp_??0?$CStringT@DV?$StrTraitMFC_DLL@DV?$ChTraitsCRT@D@ATL@@@@@ATL@@QAE@PAUIAtlStringMgr@1@@Z
; File C:\Program Files (x86)\Microsoft Visual Studio\2019\Community\VC\Tools\MSVC\14.29.30133\atlmfc\include\atlsimpstr.h

; 519  : 		return( GetData()->nDataLength );

  00157	8b 06		 mov	 eax, DWORD PTR [esi]
; File C:\Program Files (x86)\Microsoft Visual Studio\2019\Community\VC\Tools\MSVC\14.29.30133\atlmfc\include\cstringt.h

; 2416 : 		return( strResult );

  00159	83 cf 02	 or	 edi, 2
  0015c	89 7d d8	 mov	 DWORD PTR $T6[ebp], edi
  0015f	ff 70 f4	 push	 DWORD PTR [eax-12]
  00162	50		 push	 eax
  00163	6a 01		 push	 1
  00165	8d 45 e0	 lea	 eax, DWORD PTR $T8[ebp]
  00168	68 00 00 00 00	 push	 OFFSET ??_C@_01IHBHIGKO@?0@
  0016d	50		 push	 eax
  0016e	ff 15 00 00 00
	00		 call	 DWORD PTR __imp_?Concatenate@?$CSimpleStringT@D$00@ATL@@KAXAAV12@PBDH1H@Z
  00174	83 c4 14	 add	 esp, 20			; 00000014H

; 2390 : 		CStringT strResult( str1.GetManager() );

  00177	8d 4d e0	 lea	 ecx, DWORD PTR $T8[ebp]
; File D:\git\src\IBK\IBK_DRFN\ProjSrc\SrcDrfn\Chart\chart_common\DataList\Conversion.cpp

; 1560 : 			str = "," + strT.Right(3) + str ;

  0017a	c6 45 fc 07	 mov	 BYTE PTR __$EHRec$[ebp+8], 7
; File C:\Program Files (x86)\Microsoft Visual Studio\2019\Community\VC\Tools\MSVC\14.29.30133\atlmfc\include\cstringt.h

; 2390 : 		CStringT strResult( str1.GetManager() );

  0017e	ff 15 00 00 00
	00		 call	 DWORD PTR __imp_?GetManager@?$CStringT@DV?$StrTraitMFC_DLL@DV?$ChTraitsCRT@D@ATL@@@@@ATL@@QBEPAUIAtlStringMgr@2@XZ
  00184	50		 push	 eax
  00185	8d 4d dc	 lea	 ecx, DWORD PTR $T7[ebp]
  00188	ff 15 00 00 00
	00		 call	 DWORD PTR __imp_??0?$CStringT@DV?$StrTraitMFC_DLL@DV?$ChTraitsCRT@D@ATL@@@@@ATL@@QAE@PAUIAtlStringMgr@1@@Z
; File C:\Program Files (x86)\Microsoft Visual Studio\2019\Community\VC\Tools\MSVC\14.29.30133\atlmfc\include\atlsimpstr.h

; 519  : 		return( GetData()->nDataLength );

  0018e	8b 45 ec	 mov	 eax, DWORD PTR _str$[ebp]
; File C:\Program Files (x86)\Microsoft Visual Studio\2019\Community\VC\Tools\MSVC\14.29.30133\atlmfc\include\cstringt.h

; 2394 : 		return( strResult );

  00191	83 cf 04	 or	 edi, 4
; File C:\Program Files (x86)\Microsoft Visual Studio\2019\Community\VC\Tools\MSVC\14.29.30133\atlmfc\include\atlsimpstr.h

; 519  : 		return( GetData()->nDataLength );

  00194	8b 4d e0	 mov	 ecx, DWORD PTR $T8[ebp]
; File C:\Program Files (x86)\Microsoft Visual Studio\2019\Community\VC\Tools\MSVC\14.29.30133\atlmfc\include\cstringt.h

; 2394 : 		return( strResult );

  00197	89 7d d8	 mov	 DWORD PTR $T6[ebp], edi
  0019a	ff 70 f4	 push	 DWORD PTR [eax-12]
  0019d	50		 push	 eax
  0019e	ff 71 f4	 push	 DWORD PTR [ecx-12]
  001a1	8d 45 dc	 lea	 eax, DWORD PTR $T7[ebp]
  001a4	51		 push	 ecx
  001a5	50		 push	 eax
  001a6	ff 15 00 00 00
	00		 call	 DWORD PTR __imp_?Concatenate@?$CSimpleStringT@D$00@ATL@@KAXAAV12@PBDH1H@Z
  001ac	83 c4 14	 add	 esp, 20			; 00000014H
; File D:\git\src\IBK\IBK_DRFN\ProjSrc\SrcDrfn\Chart\chart_common\DataList\Conversion.cpp

; 1560 : 			str = "," + strT.Right(3) + str ;

  001af	8d 45 dc	 lea	 eax, DWORD PTR $T7[ebp]
  001b2	8d 4d ec	 lea	 ecx, DWORD PTR _str$[ebp]
  001b5	50		 push	 eax
  001b6	ff 15 00 00 00
	00		 call	 DWORD PTR __imp_??4?$CStringT@DV?$StrTraitMFC_DLL@DV?$ChTraitsCRT@D@ATL@@@@@ATL@@QAEAAV01@ABV01@@Z
  001bc	8d 4d dc	 lea	 ecx, DWORD PTR $T7[ebp]
  001bf	83 e7 fb	 and	 edi, -5			; fffffffbH
  001c2	ff 15 00 00 00
	00		 call	 DWORD PTR __imp_??1?$CStringT@DV?$StrTraitMFC_DLL@DV?$ChTraitsCRT@D@ATL@@@@@ATL@@QAE@XZ
  001c8	8d 4d e0	 lea	 ecx, DWORD PTR $T8[ebp]
  001cb	83 e7 fd	 and	 edi, -3			; fffffffdH
  001ce	ff 15 00 00 00
	00		 call	 DWORD PTR __imp_??1?$CStringT@DV?$StrTraitMFC_DLL@DV?$ChTraitsCRT@D@ATL@@@@@ATL@@QAE@XZ
  001d4	8d 4d d0	 lea	 ecx, DWORD PTR $T3[ebp]
  001d7	c6 45 fc 04	 mov	 BYTE PTR __$EHRec$[ebp+8], 4
  001db	ff 15 00 00 00
	00		 call	 DWORD PTR __imp_??1?$CStringT@DV?$StrTraitMFC_DLL@DV?$ChTraitsCRT@D@ATL@@@@@ATL@@QAE@XZ
; File C:\Program Files (x86)\Microsoft Visual Studio\2019\Community\VC\Tools\MSVC\14.29.30133\atlmfc\include\atlsimpstr.h

; 519  : 		return( GetData()->nDataLength );

  001e1	8b 45 f0	 mov	 eax, DWORD PTR _strT$[ebp]
; File D:\git\src\IBK\IBK_DRFN\ProjSrc\SrcDrfn\Chart\chart_common\DataList\Conversion.cpp

; 1561 : 			strT.Delete(strT.GetLength() - 3, 3) ;

  001e4	8d 4d f0	 lea	 ecx, DWORD PTR _strT$[ebp]
  001e7	6a 03		 push	 3
; File C:\Program Files (x86)\Microsoft Visual Studio\2019\Community\VC\Tools\MSVC\14.29.30133\atlmfc\include\atlsimpstr.h

; 519  : 		return( GetData()->nDataLength );

  001e9	8b 40 f4	 mov	 eax, DWORD PTR [eax-12]
; File D:\git\src\IBK\IBK_DRFN\ProjSrc\SrcDrfn\Chart\chart_common\DataList\Conversion.cpp

; 1561 : 			strT.Delete(strT.GetLength() - 3, 3) ;

  001ec	83 c0 fd	 add	 eax, -3			; fffffffdH
  001ef	50		 push	 eax
  001f0	ff 15 00 00 00
	00		 call	 DWORD PTR __imp_?Delete@?$CStringT@DV?$StrTraitMFC_DLL@DV?$ChTraitsCRT@D@ATL@@@@@ATL@@QAEHHH@Z

; 1562 : 		}

  001f6	eb 5e		 jmp	 SHORT $LN8@GetStringT
$LN7@GetStringT:
; File C:\Program Files (x86)\Microsoft Visual Studio\2019\Community\VC\Tools\MSVC\14.29.30133\atlmfc\include\cstringt.h

; 2390 : 		CStringT strResult( str1.GetManager() );

  001f8	8d 4d f0	 lea	 ecx, DWORD PTR _strT$[ebp]
; File D:\git\src\IBK\IBK_DRFN\ProjSrc\SrcDrfn\Chart\chart_common\DataList\Conversion.cpp

; 1564 : 			str = strT + str ;

  001fb	c6 45 fc 08	 mov	 BYTE PTR __$EHRec$[ebp+8], 8
; File C:\Program Files (x86)\Microsoft Visual Studio\2019\Community\VC\Tools\MSVC\14.29.30133\atlmfc\include\cstringt.h

; 2390 : 		CStringT strResult( str1.GetManager() );

  001ff	ff 15 00 00 00
	00		 call	 DWORD PTR __imp_?GetManager@?$CStringT@DV?$StrTraitMFC_DLL@DV?$ChTraitsCRT@D@ATL@@@@@ATL@@QBEPAUIAtlStringMgr@2@XZ
  00205	50		 push	 eax
  00206	8d 4d d4	 lea	 ecx, DWORD PTR $T4[ebp]
  00209	ff 15 00 00 00
	00		 call	 DWORD PTR __imp_??0?$CStringT@DV?$StrTraitMFC_DLL@DV?$ChTraitsCRT@D@ATL@@@@@ATL@@QAE@PAUIAtlStringMgr@1@@Z
; File C:\Program Files (x86)\Microsoft Visual Studio\2019\Community\VC\Tools\MSVC\14.29.30133\atlmfc\include\atlsimpstr.h

; 519  : 		return( GetData()->nDataLength );

  0020f	8b 45 ec	 mov	 eax, DWORD PTR _str$[ebp]
; File C:\Program Files (x86)\Microsoft Visual Studio\2019\Community\VC\Tools\MSVC\14.29.30133\atlmfc\include\cstringt.h

; 2394 : 		return( strResult );

  00212	83 cf 08	 or	 edi, 8
; File C:\Program Files (x86)\Microsoft Visual Studio\2019\Community\VC\Tools\MSVC\14.29.30133\atlmfc\include\atlsimpstr.h

; 519  : 		return( GetData()->nDataLength );

  00215	8b 4d f0	 mov	 ecx, DWORD PTR _strT$[ebp]
; File C:\Program Files (x86)\Microsoft Visual Studio\2019\Community\VC\Tools\MSVC\14.29.30133\atlmfc\include\cstringt.h

; 2394 : 		return( strResult );

  00218	89 7d d8	 mov	 DWORD PTR $T6[ebp], edi
  0021b	ff 70 f4	 push	 DWORD PTR [eax-12]
  0021e	50		 push	 eax
  0021f	ff 71 f4	 push	 DWORD PTR [ecx-12]
  00222	8d 45 d4	 lea	 eax, DWORD PTR $T4[ebp]
  00225	51		 push	 ecx
  00226	50		 push	 eax
  00227	ff 15 00 00 00
	00		 call	 DWORD PTR __imp_?Concatenate@?$CSimpleStringT@D$00@ATL@@KAXAAV12@PBDH1H@Z
  0022d	83 c4 14	 add	 esp, 20			; 00000014H
; File D:\git\src\IBK\IBK_DRFN\ProjSrc\SrcDrfn\Chart\chart_common\DataList\Conversion.cpp

; 1564 : 			str = strT + str ;

  00230	8d 45 d4	 lea	 eax, DWORD PTR $T4[ebp]
  00233	8d 4d ec	 lea	 ecx, DWORD PTR _str$[ebp]
  00236	50		 push	 eax
  00237	ff 15 00 00 00
	00		 call	 DWORD PTR __imp_??4?$CStringT@DV?$StrTraitMFC_DLL@DV?$ChTraitsCRT@D@ATL@@@@@ATL@@QAEAAV01@ABV01@@Z
  0023d	8d 4d d4	 lea	 ecx, DWORD PTR $T4[ebp]
  00240	c6 45 fc 04	 mov	 BYTE PTR __$EHRec$[ebp+8], 4
  00244	83 e7 f7	 and	 edi, -9			; fffffff7H
  00247	ff 15 00 00 00
	00		 call	 DWORD PTR __imp_??1?$CStringT@DV?$StrTraitMFC_DLL@DV?$ChTraitsCRT@D@ATL@@@@@ATL@@QAE@XZ

; 1565 : 			strT.Empty();

  0024d	8d 4d f0	 lea	 ecx, DWORD PTR _strT$[ebp]
  00250	ff 15 00 00 00
	00		 call	 DWORD PTR __imp_?Empty@?$CSimpleStringT@D$00@ATL@@QAEXXZ
$LN8@GetStringT:
; File C:\Program Files (x86)\Microsoft Visual Studio\2019\Community\VC\Tools\MSVC\14.29.30133\atlmfc\include\atlsimpstr.h

; 519  : 		return( GetData()->nDataLength );

  00256	8b 45 f0	 mov	 eax, DWORD PTR _strT$[ebp]
  00259	8b 40 f4	 mov	 eax, DWORD PTR [eax-12]

; 533  : 		return( GetLength() == 0 );

  0025c	85 c0		 test	 eax, eax
; File D:\git\src\IBK\IBK_DRFN\ProjSrc\SrcDrfn\Chart\chart_common\DataList\Conversion.cpp

; 1558 : 	while(!strT.IsEmpty())	{

  0025e	0f 85 c3 fe ff
	ff		 jne	 $LL2@GetStringT
$LN3@GetStringT:

; 1566 : 		}
; 1567 : 	}
; 1568 : 	if(puls)

  00264	84 db		 test	 bl, bl
  00266	74 16		 je	 SHORT $LN9@GetStringT

; 1569 : 		return str + strDecimal;

  00268	8b 75 08	 mov	 esi, DWORD PTR ___$ReturnUdt$[ebp]
  0026b	8d 45 e4	 lea	 eax, DWORD PTR _strDecimal$[ebp]
  0026e	50		 push	 eax
  0026f	8d 45 ec	 lea	 eax, DWORD PTR _str$[ebp]
  00272	50		 push	 eax
  00273	56		 push	 esi
  00274	e8 00 00 00 00	 call	 ??HATL@@YA?AV?$CStringT@DV?$StrTraitMFC_DLL@DV?$ChTraitsCRT@D@ATL@@@@@0@ABV10@0@Z ; ATL::operator+
  00279	83 c4 0c	 add	 esp, 12			; 0000000cH
  0027c	eb 2d		 jmp	 SHORT $LN96@GetStringT
$LN9@GetStringT:

; 1570 : 	return '-' + str + strDecimal;

  0027e	8d 45 ec	 lea	 eax, DWORD PTR _str$[ebp]
  00281	50		 push	 eax
  00282	8d 45 d0	 lea	 eax, DWORD PTR $T2[ebp]
  00285	6a 2d		 push	 45			; 0000002dH
  00287	50		 push	 eax
  00288	e8 00 00 00 00	 call	 ??HATL@@YA?AV?$CStringT@DV?$StrTraitMFC_DLL@DV?$ChTraitsCRT@D@ATL@@@@@0@DABV10@@Z ; ATL::operator+
  0028d	8b 75 08	 mov	 esi, DWORD PTR ___$ReturnUdt$[ebp]
  00290	8d 4d e4	 lea	 ecx, DWORD PTR _strDecimal$[ebp]
  00293	51		 push	 ecx
  00294	50		 push	 eax
  00295	56		 push	 esi
  00296	c6 45 fc 09	 mov	 BYTE PTR __$EHRec$[ebp+8], 9
  0029a	e8 00 00 00 00	 call	 ??HATL@@YA?AV?$CStringT@DV?$StrTraitMFC_DLL@DV?$ChTraitsCRT@D@ATL@@@@@0@ABV10@0@Z ; ATL::operator+
  0029f	83 c4 18	 add	 esp, 24			; 00000018H
  002a2	8d 4d d0	 lea	 ecx, DWORD PTR $T2[ebp]
  002a5	ff 15 00 00 00
	00		 call	 DWORD PTR __imp_??1?$CStringT@DV?$StrTraitMFC_DLL@DV?$ChTraitsCRT@D@ATL@@@@@ATL@@QAE@XZ
$LN96@GetStringT:

; 1571 : }

  002ab	8d 4d ec	 lea	 ecx, DWORD PTR _str$[ebp]
  002ae	ff 15 00 00 00
	00		 call	 DWORD PTR __imp_??1?$CStringT@DV?$StrTraitMFC_DLL@DV?$ChTraitsCRT@D@ATL@@@@@ATL@@QAE@XZ
  002b4	8d 4d f0	 lea	 ecx, DWORD PTR _strT$[ebp]
  002b7	ff 15 00 00 00
	00		 call	 DWORD PTR __imp_??1?$CStringT@DV?$StrTraitMFC_DLL@DV?$ChTraitsCRT@D@ATL@@@@@ATL@@QAE@XZ
  002bd	8d 4d e4	 lea	 ecx, DWORD PTR _strDecimal$[ebp]
  002c0	ff 15 00 00 00
	00		 call	 DWORD PTR __imp_??1?$CStringT@DV?$StrTraitMFC_DLL@DV?$ChTraitsCRT@D@ATL@@@@@ATL@@QAE@XZ
  002c6	8d 4d e8	 lea	 ecx, DWORD PTR _temp$[ebp]
  002c9	ff 15 00 00 00
	00		 call	 DWORD PTR __imp_??1?$CStringT@DV?$StrTraitMFC_DLL@DV?$ChTraitsCRT@D@ATL@@@@@ATL@@QAE@XZ
  002cf	8b c6		 mov	 eax, esi
  002d1	8b 4d f4	 mov	 ecx, DWORD PTR __$EHRec$[ebp]
  002d4	64 89 0d 00 00
	00 00		 mov	 DWORD PTR fs:0, ecx
  002db	59		 pop	 ecx
  002dc	5f		 pop	 edi
  002dd	5e		 pop	 esi
  002de	5b		 pop	 ebx
  002df	8b e5		 mov	 esp, ebp
  002e1	5d		 pop	 ebp
  002e2	c3		 ret	 0
_TEXT	ENDS
;	COMDAT text$x
text$x	SEGMENT
__unwindfunclet$?GetStringThousandFormat@CDataConversion@@SA?AV?$CStringT@DV?$StrTraitMFC_DLL@DV?$ChTraitsCRT@D@ATL@@@@@ATL@@ABV23@@Z$0:
  00000	8d 4d e8	 lea	 ecx, DWORD PTR _temp$[ebp]
  00003	ff 25 00 00 00
	00		 jmp	 DWORD PTR __imp_??1?$CStringT@DV?$StrTraitMFC_DLL@DV?$ChTraitsCRT@D@ATL@@@@@ATL@@QAE@XZ
__unwindfunclet$?GetStringThousandFormat@CDataConversion@@SA?AV?$CStringT@DV?$StrTraitMFC_DLL@DV?$ChTraitsCRT@D@ATL@@@@@ATL@@ABV23@@Z$2:
  00009	8d 4d e4	 lea	 ecx, DWORD PTR _strDecimal$[ebp]
  0000c	ff 25 00 00 00
	00		 jmp	 DWORD PTR __imp_??1?$CStringT@DV?$StrTraitMFC_DLL@DV?$ChTraitsCRT@D@ATL@@@@@ATL@@QAE@XZ
__unwindfunclet$?GetStringThousandFormat@CDataConversion@@SA?AV?$CStringT@DV?$StrTraitMFC_DLL@DV?$ChTraitsCRT@D@ATL@@@@@ATL@@ABV23@@Z$3:
  00012	8d 4d f0	 lea	 ecx, DWORD PTR _strT$[ebp]
  00015	ff 25 00 00 00
	00		 jmp	 DWORD PTR __imp_??1?$CStringT@DV?$StrTraitMFC_DLL@DV?$ChTraitsCRT@D@ATL@@@@@ATL@@QAE@XZ
__unwindfunclet$?GetStringThousandFormat@CDataConversion@@SA?AV?$CStringT@DV?$StrTraitMFC_DLL@DV?$ChTraitsCRT@D@ATL@@@@@ATL@@ABV23@@Z$4:
  0001b	8d 4d d4	 lea	 ecx, DWORD PTR $T5[ebp]
  0001e	ff 25 00 00 00
	00		 jmp	 DWORD PTR __imp_??1?$CStringT@DV?$StrTraitMFC_DLL@DV?$ChTraitsCRT@D@ATL@@@@@ATL@@QAE@XZ
__unwindfunclet$?GetStringThousandFormat@CDataConversion@@SA?AV?$CStringT@DV?$StrTraitMFC_DLL@DV?$ChTraitsCRT@D@ATL@@@@@ATL@@ABV23@@Z$5:
  00024	8d 4d ec	 lea	 ecx, DWORD PTR _str$[ebp]
  00027	ff 25 00 00 00
	00		 jmp	 DWORD PTR __imp_??1?$CStringT@DV?$StrTraitMFC_DLL@DV?$ChTraitsCRT@D@ATL@@@@@ATL@@QAE@XZ
__unwindfunclet$?GetStringThousandFormat@CDataConversion@@SA?AV?$CStringT@DV?$StrTraitMFC_DLL@DV?$ChTraitsCRT@D@ATL@@@@@ATL@@ABV23@@Z$6:
  0002d	8d 4d d0	 lea	 ecx, DWORD PTR $T3[ebp]
  00030	ff 25 00 00 00
	00		 jmp	 DWORD PTR __imp_??1?$CStringT@DV?$StrTraitMFC_DLL@DV?$ChTraitsCRT@D@ATL@@@@@ATL@@QAE@XZ
__unwindfunclet$?GetStringThousandFormat@CDataConversion@@SA?AV?$CStringT@DV?$StrTraitMFC_DLL@DV?$ChTraitsCRT@D@ATL@@@@@ATL@@ABV23@@Z$11:
  00036	8b 45 d8	 mov	 eax, DWORD PTR $T6[ebp]
  00039	83 e0 02	 and	 eax, 2
  0003c	0f 84 0d 00 00
	00		 je	 $LN46@GetStringT
  00042	83 65 d8 fd	 and	 DWORD PTR $T6[ebp], -3	; fffffffdH
  00046	8d 4d e0	 lea	 ecx, DWORD PTR $T8[ebp]
  00049	ff 25 00 00 00
	00		 jmp	 DWORD PTR __imp_??1?$CStringT@DV?$StrTraitMFC_DLL@DV?$ChTraitsCRT@D@ATL@@@@@ATL@@QAE@XZ
$LN46@GetStringT:
  0004f	c3		 ret	 0
__unwindfunclet$?GetStringThousandFormat@CDataConversion@@SA?AV?$CStringT@DV?$StrTraitMFC_DLL@DV?$ChTraitsCRT@D@ATL@@@@@ATL@@ABV23@@Z$12:
  00050	8b 45 d8	 mov	 eax, DWORD PTR $T6[ebp]
  00053	83 e0 04	 and	 eax, 4
  00056	0f 84 0d 00 00
	00		 je	 $LN59@GetStringT
  0005c	83 65 d8 fb	 and	 DWORD PTR $T6[ebp], -5	; fffffffbH
  00060	8d 4d dc	 lea	 ecx, DWORD PTR $T7[ebp]
  00063	ff 25 00 00 00
	00		 jmp	 DWORD PTR __imp_??1?$CStringT@DV?$StrTraitMFC_DLL@DV?$ChTraitsCRT@D@ATL@@@@@ATL@@QAE@XZ
$LN59@GetStringT:
  00069	c3		 ret	 0
__unwindfunclet$?GetStringThousandFormat@CDataConversion@@SA?AV?$CStringT@DV?$StrTraitMFC_DLL@DV?$ChTraitsCRT@D@ATL@@@@@ATL@@ABV23@@Z$13:
  0006a	8b 45 d8	 mov	 eax, DWORD PTR $T6[ebp]
  0006d	83 e0 08	 and	 eax, 8
  00070	0f 84 0d 00 00
	00		 je	 $LN79@GetStringT
  00076	83 65 d8 f7	 and	 DWORD PTR $T6[ebp], -9	; fffffff7H
  0007a	8d 4d d4	 lea	 ecx, DWORD PTR $T4[ebp]
  0007d	ff 25 00 00 00
	00		 jmp	 DWORD PTR __imp_??1?$CStringT@DV?$StrTraitMFC_DLL@DV?$ChTraitsCRT@D@ATL@@@@@ATL@@QAE@XZ
$LN79@GetStringT:
  00083	c3		 ret	 0
__unwindfunclet$?GetStringThousandFormat@CDataConversion@@SA?AV?$CStringT@DV?$StrTraitMFC_DLL@DV?$ChTraitsCRT@D@ATL@@@@@ATL@@ABV23@@Z$10:
  00084	8d 4d d0	 lea	 ecx, DWORD PTR $T2[ebp]
  00087	ff 25 00 00 00
	00		 jmp	 DWORD PTR __imp_??1?$CStringT@DV?$StrTraitMFC_DLL@DV?$ChTraitsCRT@D@ATL@@@@@ATL@@QAE@XZ
  0008d	cc		 int	 3
  0008e	cc		 int	 3
  0008f	cc		 int	 3
  00090	cc		 int	 3
  00091	cc		 int	 3
__ehhandler$?GetStringThousandFormat@CDataConversion@@SA?AV?$CStringT@DV?$StrTraitMFC_DLL@DV?$ChTraitsCRT@D@ATL@@@@@ATL@@ABV23@@Z:
  00092	90		 npad	 1
  00093	90		 npad	 1
  00094	8b 54 24 08	 mov	 edx, DWORD PTR [esp+8]
  00098	8d 42 0c	 lea	 eax, DWORD PTR [edx+12]
  0009b	8b 4a cc	 mov	 ecx, DWORD PTR [edx-52]
  0009e	33 c8		 xor	 ecx, eax
  000a0	e8 00 00 00 00	 call	 @__security_check_cookie@4
  000a5	b8 00 00 00 00	 mov	 eax, OFFSET __ehfuncinfo$?GetStringThousandFormat@CDataConversion@@SA?AV?$CStringT@DV?$StrTraitMFC_DLL@DV?$ChTraitsCRT@D@ATL@@@@@ATL@@ABV23@@Z
  000aa	e9 00 00 00 00	 jmp	 ___CxxFrameHandler3
text$x	ENDS
?GetStringThousandFormat@CDataConversion@@SA?AV?$CStringT@DV?$StrTraitMFC_DLL@DV?$ChTraitsCRT@D@ATL@@@@@ATL@@ABV23@@Z ENDP ; CDataConversion::GetStringThousandFormat
; Function compile flags: /Ogtp
; File D:\git\src\IBK\IBK_DRFN\ProjSrc\SrcDrfn\Chart\chart_common\DataList\Conversion.cpp
; File C:\Program Files (x86)\Microsoft Visual Studio\2019\Community\VC\Tools\MSVC\14.29.30133\atlmfc\include\atlsimpstr.h
; File D:\git\src\IBK\IBK_DRFN\ProjSrc\SrcDrfn\Chart\chart_common\DataList\Conversion.cpp
; File C:\Program Files (x86)\Microsoft Visual Studio\2019\Community\VC\Tools\MSVC\14.29.30133\atlmfc\include\atlsimpstr.h
; File D:\git\src\IBK\IBK_DRFN\ProjSrc\SrcDrfn\Chart\chart_common\DataList\Conversion.cpp
; File C:\Program Files (x86)\Microsoft Visual Studio\2019\Community\VC\Tools\MSVC\14.29.30133\atlmfc\include\atlsimpstr.h
; File C:\Program Files (x86)\Microsoft Visual Studio\2019\Community\VC\Tools\MSVC\14.29.30133\atlmfc\include\cstringt.h
; File D:\git\src\IBK\IBK_DRFN\ProjSrc\SrcDrfn\Chart\chart_common\DataList\Conversion.cpp
; File C:\Program Files (x86)\Microsoft Visual Studio\2019\Community\VC\Tools\MSVC\14.29.30133\atlmfc\include\cstringt.h
; File D:\git\src\IBK\IBK_DRFN\ProjSrc\SrcDrfn\Chart\chart_common\DataList\Conversion.cpp
; File C:\Program Files (x86)\Microsoft Visual Studio\2019\Community\VC\Tools\MSVC\14.29.30133\atlmfc\include\cstringt.h
; File D:\git\src\IBK\IBK_DRFN\ProjSrc\SrcDrfn\Chart\chart_common\DataList\Conversion.cpp
;	COMDAT ?GetStringThousandFormat@CDataConversion@@SA?AV?$CStringT@DV?$StrTraitMFC_DLL@DV?$ChTraitsCRT@D@ATL@@@@@ATL@@ABN0@Z
_TEXT	SEGMENT
$T2 = -32						; size = 4
$T3 = -28						; size = 4
$T4 = -28						; size = 4
_strData$ = -24						; size = 4
_strNumberData$ = -20					; size = 4
_strDecimalData$ = -16					; size = 4
__$EHRec$ = -12						; size = 12
___$ReturnUdt$ = 8					; size = 4
_dData$ = 12						; size = 4
$T5 = 16						; size = 4
$T6 = 16						; size = 4
$T7 = 16						; size = 4
_dFormat$ = 16						; size = 4
$T8 = 19						; size = 1
?GetStringThousandFormat@CDataConversion@@SA?AV?$CStringT@DV?$StrTraitMFC_DLL@DV?$ChTraitsCRT@D@ATL@@@@@ATL@@ABN0@Z PROC ; CDataConversion::GetStringThousandFormat, COMDAT

; 1501 : {

  00000	55		 push	 ebp
  00001	8b ec		 mov	 ebp, esp
  00003	6a ff		 push	 -1
  00005	68 00 00 00 00	 push	 __ehhandler$?GetStringThousandFormat@CDataConversion@@SA?AV?$CStringT@DV?$StrTraitMFC_DLL@DV?$ChTraitsCRT@D@ATL@@@@@ATL@@ABN0@Z
  0000a	64 a1 00 00 00
	00		 mov	 eax, DWORD PTR fs:0
  00010	50		 push	 eax
  00011	83 ec 14	 sub	 esp, 20			; 00000014H
  00014	53		 push	 ebx
  00015	56		 push	 esi
  00016	a1 00 00 00 00	 mov	 eax, DWORD PTR ___security_cookie
  0001b	33 c5		 xor	 eax, ebp
  0001d	50		 push	 eax
  0001e	8d 45 f4	 lea	 eax, DWORD PTR __$EHRec$[ebp]
  00021	64 a3 00 00 00
	00		 mov	 DWORD PTR fs:0, eax
  00027	33 db		 xor	 ebx, ebx

; 1502 : 	int decimalDownCount = 0;

  00029	33 c9		 xor	 ecx, ecx
  0002b	89 5d e0	 mov	 DWORD PTR $T2[ebp], ebx

; 1503 : 	// 0.1, 0.01 
; 1504 : 	if(dFormat < 1.0){

  0002e	8b 45 10	 mov	 eax, DWORD PTR _dFormat$[ebp]
  00031	f2 0f 10 0d 00
	00 00 00	 movsd	 xmm1, QWORD PTR __real@3ff0000000000000
  00039	f2 0f 10 00	 movsd	 xmm0, QWORD PTR [eax]
  0003d	66 0f 2f c8	 comisd	 xmm1, xmm0
  00041	76 1a		 jbe	 SHORT $LN6@GetStringT

; 1505 : 		double temp = dFormat;

  00043	f2 0f 10 15 00
	00 00 00	 movsd	 xmm2, QWORD PTR __real@4024000000000000
  0004b	0f 1f 44 00 00	 npad	 5
$LL2@GetStringT:

; 1506 : 		while(temp < 1.0){
; 1507 : 			temp *= 10;

  00050	f2 0f 59 c2	 mulsd	 xmm0, xmm2

; 1508 : 			decimalDownCount++;

  00054	41		 inc	 ecx
  00055	66 0f 2f c8	 comisd	 xmm1, xmm0
  00059	77 f5		 ja	 SHORT $LL2@GetStringT

; 1509 : 		}
; 1510 : 	}

  0005b	eb 1e		 jmp	 SHORT $LN5@GetStringT
$LN6@GetStringT:

; 1511 : 	// 10, 100, 1000 
; 1512 : 	else if(dFormat > 1.0){

  0005d	66 0f 2f c1	 comisd	 xmm0, xmm1
  00061	76 18		 jbe	 SHORT $LN5@GetStringT

; 1513 : 		double temp = dFormat;

  00063	f2 0f 10 15 00
	00 00 00	 movsd	 xmm2, QWORD PTR __real@4024000000000000
  0006b	0f 1f 44 00 00	 npad	 5
$LL4@GetStringT:

; 1514 : 		while(temp > 1.0){
; 1515 : 			temp /= 10;

  00070	f2 0f 5e c2	 divsd	 xmm0, xmm2

; 1516 : 			decimalDownCount--;

  00074	49		 dec	 ecx
  00075	66 0f 2f c1	 comisd	 xmm0, xmm1
  00079	77 f5		 ja	 SHORT $LL4@GetStringT
$LN5@GetStringT:

; 1517 : 		}
; 1518 : 	}
; 1519 : 
; 1520 : 	CString strData = DoubleToString(dData, decimalDownCount);

  0007b	51		 push	 ecx
  0007c	ff 75 0c	 push	 DWORD PTR _dData$[ebp]
  0007f	8d 45 e8	 lea	 eax, DWORD PTR _strData$[ebp]
  00082	50		 push	 eax
  00083	e8 00 00 00 00	 call	 ?DoubleToString@CDataConversion@@SA?AV?$CStringT@DV?$StrTraitMFC_DLL@DV?$ChTraitsCRT@D@ATL@@@@@ATL@@ABNH@Z ; CDataConversion::DoubleToString
  00088	83 c4 0c	 add	 esp, 12			; 0000000cH

; 1521 : 	CString strNumberData = strData, strDecimalData;

  0008b	8d 45 e8	 lea	 eax, DWORD PTR _strData$[ebp]
  0008e	c7 45 fc 00 00
	00 00		 mov	 DWORD PTR __$EHRec$[ebp+8], 0
  00095	50		 push	 eax
  00096	8d 4d ec	 lea	 ecx, DWORD PTR _strNumberData$[ebp]
  00099	ff 15 00 00 00
	00		 call	 DWORD PTR __imp_??0?$CStringT@DV?$StrTraitMFC_DLL@DV?$ChTraitsCRT@D@ATL@@@@@ATL@@QAE@ABV01@@Z
  0009f	8d 4d f0	 lea	 ecx, DWORD PTR _strDecimalData$[ebp]
  000a2	ff 15 00 00 00
	00		 call	 DWORD PTR __imp_??0?$CStringT@DV?$StrTraitMFC_DLL@DV?$ChTraitsCRT@D@ATL@@@@@ATL@@QAE@XZ

; 1522 : 	if(strData.Find('.') >= 0){

  000a8	6a 00		 push	 0
  000aa	6a 2e		 push	 46			; 0000002eH
  000ac	8d 4d e8	 lea	 ecx, DWORD PTR _strData$[ebp]
  000af	c6 45 fc 02	 mov	 BYTE PTR __$EHRec$[ebp+8], 2
  000b3	ff 15 00 00 00
	00		 call	 DWORD PTR __imp_?Find@?$CStringT@DV?$StrTraitMFC_DLL@DV?$ChTraitsCRT@D@ATL@@@@@ATL@@QBEHDH@Z
  000b9	85 c0		 test	 eax, eax
  000bb	78 58		 js	 SHORT $LN9@GetStringT

; 1523 : 		strNumberData = GetStringData(strData, '.');

  000bd	6a 01		 push	 1
  000bf	6a 2e		 push	 46			; 0000002eH
  000c1	8d 4d 10	 lea	 ecx, DWORD PTR $T7[ebp]
  000c4	ff 15 00 00 00
	00		 call	 DWORD PTR __imp_??0?$CStringT@DV?$StrTraitMFC_DLL@DV?$ChTraitsCRT@D@ATL@@@@@ATL@@QAE@DH@Z
  000ca	6a 01		 push	 1
  000cc	8d 45 10	 lea	 eax, DWORD PTR $T7[ebp]
  000cf	c6 45 fc 03	 mov	 BYTE PTR __$EHRec$[ebp+8], 3
  000d3	50		 push	 eax
  000d4	8d 45 e8	 lea	 eax, DWORD PTR _strData$[ebp]
  000d7	50		 push	 eax
  000d8	8d 45 e4	 lea	 eax, DWORD PTR $T4[ebp]
  000db	50		 push	 eax
  000dc	e8 00 00 00 00	 call	 ?GetStringData@CDataConversion@@SA?AV?$CStringT@DV?$StrTraitMFC_DLL@DV?$ChTraitsCRT@D@ATL@@@@@ATL@@AAV23@ABV23@_N@Z ; CDataConversion::GetStringData
  000e1	83 c4 10	 add	 esp, 16			; 00000010H
  000e4	50		 push	 eax
  000e5	8d 4d ec	 lea	 ecx, DWORD PTR _strNumberData$[ebp]
  000e8	c6 45 fc 04	 mov	 BYTE PTR __$EHRec$[ebp+8], 4
  000ec	ff 15 00 00 00
	00		 call	 DWORD PTR __imp_??4?$CStringT@DV?$StrTraitMFC_DLL@DV?$ChTraitsCRT@D@ATL@@@@@ATL@@QAEAAV01@ABV01@@Z
  000f2	8d 4d e4	 lea	 ecx, DWORD PTR $T4[ebp]
  000f5	ff 15 00 00 00
	00		 call	 DWORD PTR __imp_??1?$CStringT@DV?$StrTraitMFC_DLL@DV?$ChTraitsCRT@D@ATL@@@@@ATL@@QAE@XZ
  000fb	8d 4d 10	 lea	 ecx, DWORD PTR $T7[ebp]
  000fe	c6 45 fc 02	 mov	 BYTE PTR __$EHRec$[ebp+8], 2
  00102	ff 15 00 00 00
	00		 call	 DWORD PTR __imp_??1?$CStringT@DV?$StrTraitMFC_DLL@DV?$ChTraitsCRT@D@ATL@@@@@ATL@@QAE@XZ

; 1524 : 		strDecimalData = strData;

  00108	8d 45 e8	 lea	 eax, DWORD PTR _strData$[ebp]
  0010b	50		 push	 eax
  0010c	8d 4d f0	 lea	 ecx, DWORD PTR _strDecimalData$[ebp]
  0010f	ff 15 00 00 00
	00		 call	 DWORD PTR __imp_??4?$CStringT@DV?$StrTraitMFC_DLL@DV?$ChTraitsCRT@D@ATL@@@@@ATL@@QAEAAV01@ABV01@@Z
$LN9@GetStringT:
; File C:\Program Files (x86)\Microsoft Visual Studio\2019\Community\VC\Tools\MSVC\14.29.30133\atlmfc\include\atlsimpstr.h

; 519  : 		return( GetData()->nDataLength );

  00115	8b 45 ec	 mov	 eax, DWORD PTR _strNumberData$[ebp]

; 533  : 		return( GetLength() == 0 );

  00118	83 78 f4 00	 cmp	 DWORD PTR [eax-12], 0
; File D:\git\src\IBK\IBK_DRFN\ProjSrc\SrcDrfn\Chart\chart_common\DataList\Conversion.cpp

; 1527 : 	if(strNumberData.IsEmpty())

  0011c	75 3d		 jne	 SHORT $LN10@GetStringT

; 1528 : 		return "";

  0011e	8b 4d 08	 mov	 ecx, DWORD PTR ___$ReturnUdt$[ebp]
  00121	68 00 00 00 00	 push	 OFFSET ??_C@_00CNPNBAHC@@
  00126	ff 15 00 00 00
	00		 call	 DWORD PTR __imp_??0?$CStringT@DV?$StrTraitMFC_DLL@DV?$ChTraitsCRT@D@ATL@@@@@ATL@@QAE@PBD@Z
  0012c	8d 4d f0	 lea	 ecx, DWORD PTR _strDecimalData$[ebp]
  0012f	ff 15 00 00 00
	00		 call	 DWORD PTR __imp_??1?$CStringT@DV?$StrTraitMFC_DLL@DV?$ChTraitsCRT@D@ATL@@@@@ATL@@QAE@XZ
  00135	8d 4d ec	 lea	 ecx, DWORD PTR _strNumberData$[ebp]
  00138	ff 15 00 00 00
	00		 call	 DWORD PTR __imp_??1?$CStringT@DV?$StrTraitMFC_DLL@DV?$ChTraitsCRT@D@ATL@@@@@ATL@@QAE@XZ
  0013e	8d 4d e8	 lea	 ecx, DWORD PTR _strData$[ebp]
  00141	ff 15 00 00 00
	00		 call	 DWORD PTR __imp_??1?$CStringT@DV?$StrTraitMFC_DLL@DV?$ChTraitsCRT@D@ATL@@@@@ATL@@QAE@XZ
  00147	8b 45 08	 mov	 eax, DWORD PTR ___$ReturnUdt$[ebp]

; 1535 : }

  0014a	8b 4d f4	 mov	 ecx, DWORD PTR __$EHRec$[ebp]
  0014d	64 89 0d 00 00
	00 00		 mov	 DWORD PTR fs:0, ecx
  00154	59		 pop	 ecx
  00155	5e		 pop	 esi
  00156	5b		 pop	 ebx
  00157	8b e5		 mov	 esp, ebp
  00159	5d		 pop	 ebp
  0015a	c3		 ret	 0
$LN10@GetStringT:

; 1529 : 
; 1530 : 	strNumberData = GetStringThousandFormat(strNumberData);

  0015b	8d 45 ec	 lea	 eax, DWORD PTR _strNumberData$[ebp]
  0015e	50		 push	 eax
  0015f	8d 45 10	 lea	 eax, DWORD PTR $T6[ebp]
  00162	50		 push	 eax
  00163	e8 00 00 00 00	 call	 ?GetStringThousandFormat@CDataConversion@@SA?AV?$CStringT@DV?$StrTraitMFC_DLL@DV?$ChTraitsCRT@D@ATL@@@@@ATL@@ABV23@@Z ; CDataConversion::GetStringThousandFormat
  00168	83 c4 08	 add	 esp, 8
  0016b	50		 push	 eax
  0016c	8d 4d ec	 lea	 ecx, DWORD PTR _strNumberData$[ebp]
  0016f	c6 45 fc 05	 mov	 BYTE PTR __$EHRec$[ebp+8], 5
  00173	ff 15 00 00 00
	00		 call	 DWORD PTR __imp_??4?$CStringT@DV?$StrTraitMFC_DLL@DV?$ChTraitsCRT@D@ATL@@@@@ATL@@QAEAAV01@ABV01@@Z
  00179	8d 4d 10	 lea	 ecx, DWORD PTR $T6[ebp]
  0017c	c6 45 fc 02	 mov	 BYTE PTR __$EHRec$[ebp+8], 2
  00180	ff 15 00 00 00
	00		 call	 DWORD PTR __imp_??1?$CStringT@DV?$StrTraitMFC_DLL@DV?$ChTraitsCRT@D@ATL@@@@@ATL@@QAE@XZ
; File C:\Program Files (x86)\Microsoft Visual Studio\2019\Community\VC\Tools\MSVC\14.29.30133\atlmfc\include\atlsimpstr.h

; 519  : 		return( GetData()->nDataLength );

  00186	8b 45 f0	 mov	 eax, DWORD PTR _strDecimalData$[ebp]

; 533  : 		return( GetLength() == 0 );

  00189	83 78 f4 00	 cmp	 DWORD PTR [eax-12], 0
; File D:\git\src\IBK\IBK_DRFN\ProjSrc\SrcDrfn\Chart\chart_common\DataList\Conversion.cpp

; 1531 : 	if(!strDecimalData.IsEmpty() && strDecimalData.Left(1) != '.')

  0018d	74 30		 je	 SHORT $LN13@GetStringT
  0018f	6a 01		 push	 1
  00191	8d 45 e4	 lea	 eax, DWORD PTR $T3[ebp]
  00194	50		 push	 eax
  00195	8d 4d f0	 lea	 ecx, DWORD PTR _strDecimalData$[ebp]
  00198	ff 15 00 00 00
	00		 call	 DWORD PTR __imp_?Left@?$CStringT@DV?$StrTraitMFC_DLL@DV?$ChTraitsCRT@D@ATL@@@@@ATL@@QBE?AV12@H@Z
  0019e	bb 02 00 00 00	 mov	 ebx, 2
; File C:\Program Files (x86)\Microsoft Visual Studio\2019\Community\VC\Tools\MSVC\14.29.30133\atlmfc\include\atlsimpstr.h

; 519  : 		return( GetData()->nDataLength );

  001a3	8b 08		 mov	 ecx, DWORD PTR [eax]
; File C:\Program Files (x86)\Microsoft Visual Studio\2019\Community\VC\Tools\MSVC\14.29.30133\atlmfc\include\cstringt.h

; 2699 : 		return((str1.GetLength() != 1) || (str1[0] != ch2));

  001a5	83 79 f4 01	 cmp	 DWORD PTR [ecx-12], 1
  001a9	75 0e		 jne	 SHORT $LN41@GetStringT
  001ab	6a 00		 push	 0
  001ad	8b c8		 mov	 ecx, eax
  001af	ff 15 00 00 00
	00		 call	 DWORD PTR __imp_??A?$CSimpleStringT@D$00@ATL@@QBEDH@Z
  001b5	3c 2e		 cmp	 al, 46			; 0000002eH
  001b7	74 06		 je	 SHORT $LN13@GetStringT
$LN41@GetStringT:
; File D:\git\src\IBK\IBK_DRFN\ProjSrc\SrcDrfn\Chart\chart_common\DataList\Conversion.cpp

; 1531 : 	if(!strDecimalData.IsEmpty() && strDecimalData.Left(1) != '.')

  001b9	c6 45 13 01	 mov	 BYTE PTR $T8[ebp], 1
  001bd	eb 04		 jmp	 SHORT $LN14@GetStringT
$LN13@GetStringT:
  001bf	c6 45 13 00	 mov	 BYTE PTR $T8[ebp], 0
$LN14@GetStringT:
  001c3	f6 c3 02	 test	 bl, 2
  001c6	74 0c		 je	 SHORT $LN25@GetStringT
  001c8	8d 4d e4	 lea	 ecx, DWORD PTR $T3[ebp]
  001cb	83 e3 fd	 and	 ebx, -3			; fffffffdH
  001ce	ff 15 00 00 00
	00		 call	 DWORD PTR __imp_??1?$CStringT@DV?$StrTraitMFC_DLL@DV?$ChTraitsCRT@D@ATL@@@@@ATL@@QAE@XZ
$LN25@GetStringT:
  001d4	80 7d 13 00	 cmp	 BYTE PTR $T8[ebp], 0
  001d8	74 29		 je	 SHORT $LN11@GetStringT

; 1532 : 		strDecimalData = '.' + strDecimalData;

  001da	8d 45 f0	 lea	 eax, DWORD PTR _strDecimalData$[ebp]
  001dd	50		 push	 eax
  001de	8d 45 10	 lea	 eax, DWORD PTR $T5[ebp]
  001e1	6a 2e		 push	 46			; 0000002eH
  001e3	50		 push	 eax
  001e4	e8 00 00 00 00	 call	 ??HATL@@YA?AV?$CStringT@DV?$StrTraitMFC_DLL@DV?$ChTraitsCRT@D@ATL@@@@@0@DABV10@@Z ; ATL::operator+
  001e9	83 c4 0c	 add	 esp, 12			; 0000000cH
  001ec	50		 push	 eax
  001ed	8d 4d f0	 lea	 ecx, DWORD PTR _strDecimalData$[ebp]
  001f0	c6 45 fc 06	 mov	 BYTE PTR __$EHRec$[ebp+8], 6
  001f4	ff 15 00 00 00
	00		 call	 DWORD PTR __imp_??4?$CStringT@DV?$StrTraitMFC_DLL@DV?$ChTraitsCRT@D@ATL@@@@@ATL@@QAEAAV01@ABV01@@Z
  001fa	8d 4d 10	 lea	 ecx, DWORD PTR $T5[ebp]
  001fd	ff 15 00 00 00
	00		 call	 DWORD PTR __imp_??1?$CStringT@DV?$StrTraitMFC_DLL@DV?$ChTraitsCRT@D@ATL@@@@@ATL@@QAE@XZ
$LN11@GetStringT:
; File C:\Program Files (x86)\Microsoft Visual Studio\2019\Community\VC\Tools\MSVC\14.29.30133\atlmfc\include\cstringt.h

; 2390 : 		CStringT strResult( str1.GetManager() );

  00203	8d 4d ec	 lea	 ecx, DWORD PTR _strNumberData$[ebp]
; File D:\git\src\IBK\IBK_DRFN\ProjSrc\SrcDrfn\Chart\chart_common\DataList\Conversion.cpp

; 1534 : 	return strNumberData + strDecimalData;

  00206	c6 45 fc 07	 mov	 BYTE PTR __$EHRec$[ebp+8], 7
; File C:\Program Files (x86)\Microsoft Visual Studio\2019\Community\VC\Tools\MSVC\14.29.30133\atlmfc\include\cstringt.h

; 2390 : 		CStringT strResult( str1.GetManager() );

  0020a	ff 15 00 00 00
	00		 call	 DWORD PTR __imp_?GetManager@?$CStringT@DV?$StrTraitMFC_DLL@DV?$ChTraitsCRT@D@ATL@@@@@ATL@@QBEPAUIAtlStringMgr@2@XZ
  00210	8b 75 08	 mov	 esi, DWORD PTR ___$ReturnUdt$[ebp]
  00213	8b ce		 mov	 ecx, esi
  00215	50		 push	 eax
  00216	ff 15 00 00 00
	00		 call	 DWORD PTR __imp_??0?$CStringT@DV?$StrTraitMFC_DLL@DV?$ChTraitsCRT@D@ATL@@@@@ATL@@QAE@PAUIAtlStringMgr@1@@Z

; 2391 : 
; 2392 : 		CThisSimpleString::Concatenate( strResult, str1, str1.GetLength(), str2, str2.GetLength() );

  0021c	8b 45 f0	 mov	 eax, DWORD PTR _strDecimalData$[ebp]

; 2393 : 
; 2394 : 		return( strResult );

  0021f	83 cb 04	 or	 ebx, 4
  00222	89 5d e0	 mov	 DWORD PTR $T2[ebp], ebx
  00225	ff 70 f4	 push	 DWORD PTR [eax-12]
  00228	50		 push	 eax
  00229	8b 45 ec	 mov	 eax, DWORD PTR _strNumberData$[ebp]
  0022c	ff 70 f4	 push	 DWORD PTR [eax-12]
  0022f	50		 push	 eax
  00230	56		 push	 esi
  00231	ff 15 00 00 00
	00		 call	 DWORD PTR __imp_?Concatenate@?$CSimpleStringT@D$00@ATL@@KAXAAV12@PBDH1H@Z
  00237	83 c4 14	 add	 esp, 20			; 00000014H
; File D:\git\src\IBK\IBK_DRFN\ProjSrc\SrcDrfn\Chart\chart_common\DataList\Conversion.cpp

; 1534 : 	return strNumberData + strDecimalData;

  0023a	8d 4d f0	 lea	 ecx, DWORD PTR _strDecimalData$[ebp]
  0023d	ff 15 00 00 00
	00		 call	 DWORD PTR __imp_??1?$CStringT@DV?$StrTraitMFC_DLL@DV?$ChTraitsCRT@D@ATL@@@@@ATL@@QAE@XZ
  00243	8d 4d ec	 lea	 ecx, DWORD PTR _strNumberData$[ebp]
  00246	ff 15 00 00 00
	00		 call	 DWORD PTR __imp_??1?$CStringT@DV?$StrTraitMFC_DLL@DV?$ChTraitsCRT@D@ATL@@@@@ATL@@QAE@XZ
  0024c	8d 4d e8	 lea	 ecx, DWORD PTR _strData$[ebp]
  0024f	ff 15 00 00 00
	00		 call	 DWORD PTR __imp_??1?$CStringT@DV?$StrTraitMFC_DLL@DV?$ChTraitsCRT@D@ATL@@@@@ATL@@QAE@XZ
  00255	8b c6		 mov	 eax, esi

; 1535 : }

  00257	8b 4d f4	 mov	 ecx, DWORD PTR __$EHRec$[ebp]
  0025a	64 89 0d 00 00
	00 00		 mov	 DWORD PTR fs:0, ecx
  00261	59		 pop	 ecx
  00262	5e		 pop	 esi
  00263	5b		 pop	 ebx
  00264	8b e5		 mov	 esp, ebp
  00266	5d		 pop	 ebp
  00267	c3		 ret	 0
_TEXT	ENDS
;	COMDAT text$x
text$x	SEGMENT
__unwindfunclet$?GetStringThousandFormat@CDataConversion@@SA?AV?$CStringT@DV?$StrTraitMFC_DLL@DV?$ChTraitsCRT@D@ATL@@@@@ATL@@ABN0@Z$0:
  00000	8d 4d e8	 lea	 ecx, DWORD PTR _strData$[ebp]
  00003	ff 25 00 00 00
	00		 jmp	 DWORD PTR __imp_??1?$CStringT@DV?$StrTraitMFC_DLL@DV?$ChTraitsCRT@D@ATL@@@@@ATL@@QAE@XZ
__unwindfunclet$?GetStringThousandFormat@CDataConversion@@SA?AV?$CStringT@DV?$StrTraitMFC_DLL@DV?$ChTraitsCRT@D@ATL@@@@@ATL@@ABN0@Z$1:
  00009	8d 4d ec	 lea	 ecx, DWORD PTR _strNumberData$[ebp]
  0000c	ff 25 00 00 00
	00		 jmp	 DWORD PTR __imp_??1?$CStringT@DV?$StrTraitMFC_DLL@DV?$ChTraitsCRT@D@ATL@@@@@ATL@@QAE@XZ
__unwindfunclet$?GetStringThousandFormat@CDataConversion@@SA?AV?$CStringT@DV?$StrTraitMFC_DLL@DV?$ChTraitsCRT@D@ATL@@@@@ATL@@ABN0@Z$2:
  00012	8d 4d f0	 lea	 ecx, DWORD PTR _strDecimalData$[ebp]
  00015	ff 25 00 00 00
	00		 jmp	 DWORD PTR __imp_??1?$CStringT@DV?$StrTraitMFC_DLL@DV?$ChTraitsCRT@D@ATL@@@@@ATL@@QAE@XZ
__unwindfunclet$?GetStringThousandFormat@CDataConversion@@SA?AV?$CStringT@DV?$StrTraitMFC_DLL@DV?$ChTraitsCRT@D@ATL@@@@@ATL@@ABN0@Z$3:
  0001b	8d 4d 10	 lea	 ecx, DWORD PTR $T7[ebp]
  0001e	ff 25 00 00 00
	00		 jmp	 DWORD PTR __imp_??1?$CStringT@DV?$StrTraitMFC_DLL@DV?$ChTraitsCRT@D@ATL@@@@@ATL@@QAE@XZ
__unwindfunclet$?GetStringThousandFormat@CDataConversion@@SA?AV?$CStringT@DV?$StrTraitMFC_DLL@DV?$ChTraitsCRT@D@ATL@@@@@ATL@@ABN0@Z$4:
  00024	8d 4d e4	 lea	 ecx, DWORD PTR $T4[ebp]
  00027	ff 25 00 00 00
	00		 jmp	 DWORD PTR __imp_??1?$CStringT@DV?$StrTraitMFC_DLL@DV?$ChTraitsCRT@D@ATL@@@@@ATL@@QAE@XZ
__unwindfunclet$?GetStringThousandFormat@CDataConversion@@SA?AV?$CStringT@DV?$StrTraitMFC_DLL@DV?$ChTraitsCRT@D@ATL@@@@@ATL@@ABN0@Z$6:
  0002d	8d 4d 10	 lea	 ecx, DWORD PTR $T6[ebp]
  00030	ff 25 00 00 00
	00		 jmp	 DWORD PTR __imp_??1?$CStringT@DV?$StrTraitMFC_DLL@DV?$ChTraitsCRT@D@ATL@@@@@ATL@@QAE@XZ
__unwindfunclet$?GetStringThousandFormat@CDataConversion@@SA?AV?$CStringT@DV?$StrTraitMFC_DLL@DV?$ChTraitsCRT@D@ATL@@@@@ATL@@ABN0@Z$8:
  00036	8d 4d 10	 lea	 ecx, DWORD PTR $T5[ebp]
  00039	ff 25 00 00 00
	00		 jmp	 DWORD PTR __imp_??1?$CStringT@DV?$StrTraitMFC_DLL@DV?$ChTraitsCRT@D@ATL@@@@@ATL@@QAE@XZ
__unwindfunclet$?GetStringThousandFormat@CDataConversion@@SA?AV?$CStringT@DV?$StrTraitMFC_DLL@DV?$ChTraitsCRT@D@ATL@@@@@ATL@@ABN0@Z$9:
  0003f	8b 45 e0	 mov	 eax, DWORD PTR $T2[ebp]
  00042	83 e0 04	 and	 eax, 4
  00045	0f 84 0d 00 00
	00		 je	 $LN50@GetStringT
  0004b	83 65 e0 fb	 and	 DWORD PTR $T2[ebp], -5	; fffffffbH
  0004f	8b 4d 08	 mov	 ecx, DWORD PTR ___$ReturnUdt$[ebp]
  00052	ff 25 00 00 00
	00		 jmp	 DWORD PTR __imp_??1?$CStringT@DV?$StrTraitMFC_DLL@DV?$ChTraitsCRT@D@ATL@@@@@ATL@@QAE@XZ
$LN50@GetStringT:
  00058	c3		 ret	 0
  00059	cc		 int	 3
  0005a	cc		 int	 3
  0005b	cc		 int	 3
  0005c	cc		 int	 3
  0005d	cc		 int	 3
__ehhandler$?GetStringThousandFormat@CDataConversion@@SA?AV?$CStringT@DV?$StrTraitMFC_DLL@DV?$ChTraitsCRT@D@ATL@@@@@ATL@@ABN0@Z:
  0005e	90		 npad	 1
  0005f	90		 npad	 1
  00060	8b 54 24 08	 mov	 edx, DWORD PTR [esp+8]
  00064	8d 42 0c	 lea	 eax, DWORD PTR [edx+12]
  00067	8b 4a e0	 mov	 ecx, DWORD PTR [edx-32]
  0006a	33 c8		 xor	 ecx, eax
  0006c	e8 00 00 00 00	 call	 @__security_check_cookie@4
  00071	b8 00 00 00 00	 mov	 eax, OFFSET __ehfuncinfo$?GetStringThousandFormat@CDataConversion@@SA?AV?$CStringT@DV?$StrTraitMFC_DLL@DV?$ChTraitsCRT@D@ATL@@@@@ATL@@ABN0@Z
  00076	e9 00 00 00 00	 jmp	 ___CxxFrameHandler3
text$x	ENDS
?GetStringThousandFormat@CDataConversion@@SA?AV?$CStringT@DV?$StrTraitMFC_DLL@DV?$ChTraitsCRT@D@ATL@@@@@ATL@@ABN0@Z ENDP ; CDataConversion::GetStringThousandFormat
; Function compile flags: /Ogtp
; File D:\git\src\IBK\IBK_DRFN\ProjSrc\SrcDrfn\Chart\chart_common\DataList\Conversion.cpp
; File C:\Program Files (x86)\Microsoft Visual Studio\2019\Community\VC\Tools\MSVC\14.29.30133\atlmfc\include\atlsimpstr.h
; File D:\git\src\IBK\IBK_DRFN\ProjSrc\SrcDrfn\Chart\chart_common\DataList\Conversion.cpp
; File C:\Program Files (x86)\Microsoft Visual Studio\2019\Community\VC\Tools\MSVC\14.29.30133\atlmfc\include\atlsimpstr.h
; File D:\git\src\IBK\IBK_DRFN\ProjSrc\SrcDrfn\Chart\chart_common\DataList\Conversion.cpp
; File C:\Program Files (x86)\Microsoft Visual Studio\2019\Community\VC\Tools\MSVC\14.29.30133\atlmfc\include\atlsimpstr.h
; File D:\git\src\IBK\IBK_DRFN\ProjSrc\SrcDrfn\Chart\chart_common\DataList\Conversion.cpp
; File C:\Program Files (x86)\Microsoft Visual Studio\2019\Community\VC\Tools\MSVC\14.29.30133\atlmfc\include\atlsimpstr.h
; File D:\git\src\IBK\IBK_DRFN\ProjSrc\SrcDrfn\Chart\chart_common\DataList\Conversion.cpp
; File C:\Program Files (x86)\Microsoft Visual Studio\2019\Community\VC\Tools\MSVC\14.29.30133\atlmfc\include\atlsimpstr.h
; File D:\git\src\IBK\IBK_DRFN\ProjSrc\SrcDrfn\Chart\chart_common\DataList\Conversion.cpp
; File C:\Program Files (x86)\Microsoft Visual Studio\2019\Community\VC\Tools\MSVC\14.29.30133\atlmfc\include\atlsimpstr.h
; File D:\git\src\IBK\IBK_DRFN\ProjSrc\SrcDrfn\Chart\chart_common\DataList\Conversion.cpp
; File C:\Program Files (x86)\Microsoft Visual Studio\2019\Community\VC\Tools\MSVC\14.29.30133\atlmfc\include\atlsimpstr.h
; File D:\git\src\IBK\IBK_DRFN\ProjSrc\SrcDrfn\Chart\chart_common\DataList\Conversion.cpp
; File C:\Program Files (x86)\Microsoft Visual Studio\2019\Community\VC\Tools\MSVC\14.29.30133\atlmfc\include\atlsimpstr.h
; File D:\git\src\IBK\IBK_DRFN\ProjSrc\SrcDrfn\Chart\chart_common\DataList\Conversion.cpp
; File C:\Program Files (x86)\Microsoft Visual Studio\2019\Community\VC\Tools\MSVC\14.29.30133\atlmfc\include\cstringt.h
; File D:\git\src\IBK\IBK_DRFN\ProjSrc\SrcDrfn\Chart\chart_common\DataList\Conversion.cpp
; File C:\Program Files (x86)\Microsoft Visual Studio\2019\Community\VC\Tools\MSVC\14.29.30133\atlmfc\include\cstringt.h
; File D:\git\src\IBK\IBK_DRFN\ProjSrc\SrcDrfn\Chart\chart_common\DataList\Conversion.cpp
; File C:\Program Files (x86)\Microsoft Visual Studio\2019\Community\VC\Tools\MSVC\14.29.30133\atlmfc\include\atlsimpstr.h
; File D:\git\src\IBK\IBK_DRFN\ProjSrc\SrcDrfn\Chart\chart_common\DataList\Conversion.cpp
; File C:\Program Files (x86)\Microsoft Visual Studio\2019\Community\VC\Tools\MSVC\14.29.30133\atlmfc\include\atlsimpstr.h
; File D:\git\src\IBK\IBK_DRFN\ProjSrc\SrcDrfn\Chart\chart_common\DataList\Conversion.cpp
; File C:\Program Files (x86)\Microsoft Visual Studio\2019\Community\VC\Tools\MSVC\14.29.30133\atlmfc\include\atlsimpstr.h
; File D:\git\src\IBK\IBK_DRFN\ProjSrc\SrcDrfn\Chart\chart_common\DataList\Conversion.cpp
; File C:\Program Files (x86)\Microsoft Visual Studio\2019\Community\VC\Tools\MSVC\14.29.30133\atlmfc\include\atlsimpstr.h
; File D:\git\src\IBK\IBK_DRFN\ProjSrc\SrcDrfn\Chart\chart_common\DataList\Conversion.cpp
; File C:\Program Files (x86)\Microsoft Visual Studio\2019\Community\VC\Tools\MSVC\14.29.30133\atlmfc\include\atlsimpstr.h
; File D:\git\src\IBK\IBK_DRFN\ProjSrc\SrcDrfn\Chart\chart_common\DataList\Conversion.cpp
; File C:\Program Files (x86)\Microsoft Visual Studio\2019\Community\VC\Tools\MSVC\14.29.30133\atlmfc\include\atlsimpstr.h
; File D:\git\src\IBK\IBK_DRFN\ProjSrc\SrcDrfn\Chart\chart_common\DataList\Conversion.cpp
; File C:\Program Files (x86)\Microsoft Visual Studio\2019\Community\VC\Tools\MSVC\14.29.30133\atlmfc\include\atlsimpstr.h
; File D:\git\src\IBK\IBK_DRFN\ProjSrc\SrcDrfn\Chart\chart_common\DataList\Conversion.cpp
;	COMDAT ?GetStringFormatTrans@CDataConversion@@SA?AV?$CStringT@DV?$StrTraitMFC_DLL@DV?$ChTraitsCRT@D@ATL@@@@@ATL@@ABV23@0@Z
_TEXT	SEGMENT
_dData$ = -64						; size = 8
$T2 = -56						; size = 4
_cData$3 = -52						; size = 1
$T4 = -52						; size = 4
$T5 = -52						; size = 4
_strRealData$ = -48					; size = 4
_strUnit$ = -44						; size = 4
_nFindIndex_1$1$ = -40					; size = 4
_strRealData$6 = -40					; size = 4
$T7 = -40						; size = 4
$T8 = -36						; size = 4
$T9 = -36						; size = 4
_strValue$10 = -32					; size = 4
_szData$11 = -28					; size = 4
_szCompartDate$12 = -24					; size = 4
_szCompartTime$13 = -20					; size = 4
_strSpecialTime$14 = -16				; size = 4
__$EHRec$ = -12						; size = 12
___$ReturnUdt$ = 8					; size = 4
_szFormat$15 = 12					; size = 4
_strType$16 = 12					; size = 4
$T17 = 12						; size = 4
$T18 = 12						; size = 4
_strData$ = 12						; size = 4
$T19 = 15						; size = 1
_strFormat$ = 16					; size = 4
?GetStringFormatTrans@CDataConversion@@SA?AV?$CStringT@DV?$StrTraitMFC_DLL@DV?$ChTraitsCRT@D@ATL@@@@@ATL@@ABV23@0@Z PROC ; CDataConversion::GetStringFormatTrans, COMDAT

; 1407 : {

  00000	55		 push	 ebp
  00001	8b ec		 mov	 ebp, esp
  00003	6a ff		 push	 -1
  00005	68 00 00 00 00	 push	 __ehhandler$?GetStringFormatTrans@CDataConversion@@SA?AV?$CStringT@DV?$StrTraitMFC_DLL@DV?$ChTraitsCRT@D@ATL@@@@@ATL@@ABV23@0@Z
  0000a	64 a1 00 00 00
	00		 mov	 eax, DWORD PTR fs:0
  00010	50		 push	 eax
  00011	83 ec 34	 sub	 esp, 52			; 00000034H
  00014	53		 push	 ebx
  00015	56		 push	 esi
  00016	57		 push	 edi
  00017	a1 00 00 00 00	 mov	 eax, DWORD PTR ___security_cookie
  0001c	33 c5		 xor	 eax, ebp
  0001e	50		 push	 eax
  0001f	8d 45 f4	 lea	 eax, DWORD PTR __$EHRec$[ebp]
  00022	64 a3 00 00 00
	00		 mov	 DWORD PTR fs:0, eax
  00028	c7 45 c8 00 00
	00 00		 mov	 DWORD PTR $T2[ebp], 0
; File C:\Program Files (x86)\Microsoft Visual Studio\2019\Community\VC\Tools\MSVC\14.29.30133\atlmfc\include\atlsimpstr.h

; 519  : 		return( GetData()->nDataLength );

  0002f	8b 5d 0c	 mov	 ebx, DWORD PTR _strData$[ebp]
  00032	8b 03		 mov	 eax, DWORD PTR [ebx]

; 533  : 		return( GetLength() == 0 );

  00034	83 78 f4 00	 cmp	 DWORD PTR [eax-12], 0
; File D:\git\src\IBK\IBK_DRFN\ProjSrc\SrcDrfn\Chart\chart_common\DataList\Conversion.cpp

; 1408 : 	if(strData.IsEmpty())

  00038	75 1f		 jne	 SHORT $LN2@GetStringF

; 1409 : 		return strData;

  0003a	8b 4d 08	 mov	 ecx, DWORD PTR ___$ReturnUdt$[ebp]
  0003d	53		 push	 ebx
  0003e	ff 15 00 00 00
	00		 call	 DWORD PTR __imp_??0?$CStringT@DV?$StrTraitMFC_DLL@DV?$ChTraitsCRT@D@ATL@@@@@ATL@@QAE@ABV01@@Z
  00044	8b 45 08	 mov	 eax, DWORD PTR ___$ReturnUdt$[ebp]

; 1433 : }

  00047	8b 4d f4	 mov	 ecx, DWORD PTR __$EHRec$[ebp]
  0004a	64 89 0d 00 00
	00 00		 mov	 DWORD PTR fs:0, ecx
  00051	59		 pop	 ecx
  00052	5f		 pop	 edi
  00053	5e		 pop	 esi
  00054	5b		 pop	 ebx
  00055	8b e5		 mov	 esp, ebp
  00057	5d		 pop	 ebp
  00058	c3		 ret	 0
$LN2@GetStringF:
; File C:\Program Files (x86)\Microsoft Visual Studio\2019\Community\VC\Tools\MSVC\14.29.30133\atlmfc\include\atlsimpstr.h

; 519  : 		return( GetData()->nDataLength );

  00059	8b 75 10	 mov	 esi, DWORD PTR _strFormat$[ebp]
  0005c	8b 06		 mov	 eax, DWORD PTR [esi]

; 533  : 		return( GetLength() == 0 );

  0005e	83 78 f4 00	 cmp	 DWORD PTR [eax-12], 0
; File D:\git\src\IBK\IBK_DRFN\ProjSrc\SrcDrfn\Chart\chart_common\DataList\Conversion.cpp

; 1411 : 	if(strFormat.IsEmpty())

  00062	75 21		 jne	 SHORT $LN3@GetStringF

; 1412 : 		return GetStringThousandFormat(strData);

  00064	8b 75 08	 mov	 esi, DWORD PTR ___$ReturnUdt$[ebp]
  00067	53		 push	 ebx
  00068	56		 push	 esi
  00069	e8 00 00 00 00	 call	 ?GetStringThousandFormat@CDataConversion@@SA?AV?$CStringT@DV?$StrTraitMFC_DLL@DV?$ChTraitsCRT@D@ATL@@@@@ATL@@ABV23@@Z ; CDataConversion::GetStringThousandFormat
  0006e	83 c4 08	 add	 esp, 8

; 1433 : }

  00071	8b c6		 mov	 eax, esi
  00073	8b 4d f4	 mov	 ecx, DWORD PTR __$EHRec$[ebp]
  00076	64 89 0d 00 00
	00 00		 mov	 DWORD PTR fs:0, ecx
  0007d	59		 pop	 ecx
  0007e	5f		 pop	 edi
  0007f	5e		 pop	 esi
  00080	5b		 pop	 ebx
  00081	8b e5		 mov	 esp, ebp
  00083	5d		 pop	 ebp
  00084	c3		 ret	 0
$LN3@GetStringF:

; 1414 : 	int nFindIndex_1 = strFormat.Find("1");

  00085	6a 00		 push	 0
  00087	68 00 00 00 00	 push	 OFFSET ??_C@_01HIHLOKLC@1@
  0008c	8b ce		 mov	 ecx, esi
  0008e	ff 15 00 00 00
	00		 call	 DWORD PTR __imp_?Find@?$CStringT@DV?$StrTraitMFC_DLL@DV?$ChTraitsCRT@D@ATL@@@@@ATL@@QBEHPBDH@Z
; File C:\Program Files (x86)\Microsoft Visual Studio\2019\Community\VC\Tools\MSVC\14.29.30133\atlmfc\include\atlsimpstr.h

; 519  : 		return( GetData()->nDataLength );

  00094	8b 0e		 mov	 ecx, DWORD PTR [esi]
; File D:\git\src\IBK\IBK_DRFN\ProjSrc\SrcDrfn\Chart\chart_common\DataList\Conversion.cpp

; 1414 : 	int nFindIndex_1 = strFormat.Find("1");

  00096	89 45 d8	 mov	 DWORD PTR _nFindIndex_1$1$[ebp], eax
; File C:\Program Files (x86)\Microsoft Visual Studio\2019\Community\VC\Tools\MSVC\14.29.30133\atlmfc\include\atlsimpstr.h

; 519  : 		return( GetData()->nDataLength );

  00099	8b 79 f4	 mov	 edi, DWORD PTR [ecx-12]
; File D:\git\src\IBK\IBK_DRFN\ProjSrc\SrcDrfn\Chart\chart_common\DataList\Conversion.cpp

; 1417 : 	if(nFindIndex_1 < 0 && nFormatLength > 1)

  0009c	85 c0		 test	 eax, eax
  0009e	0f 89 73 01 00
	00		 jns	 $LN4@GetStringF
  000a4	83 ff 01	 cmp	 edi, 1
  000a7	0f 8e 6a 01 00
	00		 jle	 $LN4@GetStringF

; 1418 : 		return GetStringFormatTrans(strData, strFormat, "");

  000ad	68 00 00 00 00	 push	 OFFSET ??_C@_00CNPNBAHC@@
  000b2	8d 4d d8	 lea	 ecx, DWORD PTR $T7[ebp]
  000b5	ff 15 00 00 00
	00		 call	 DWORD PTR __imp_??0?$CStringT@DV?$StrTraitMFC_DLL@DV?$ChTraitsCRT@D@ATL@@@@@ATL@@QAE@PBD@Z
  000bb	68 00 00 00 00	 push	 OFFSET ??_C@_00CNPNBAHC@@
  000c0	8d 4d dc	 lea	 ecx, DWORD PTR $T9[ebp]
  000c3	c7 45 fc 00 00
	00 00		 mov	 DWORD PTR __$EHRec$[ebp+8], 0
  000ca	ff 15 00 00 00
	00		 call	 DWORD PTR __imp_??0?$CStringT@DV?$StrTraitMFC_DLL@DV?$ChTraitsCRT@D@ATL@@@@@ATL@@QAE@PBD@Z

; 1576 : 	CString szFormat = strFormat, szData = "", szCompartDate = strCompartDate, szCompartTime = strCompartTime ;

  000d0	56		 push	 esi
  000d1	8d 4d 0c	 lea	 ecx, DWORD PTR _szFormat$15[ebp]

; 1418 : 		return GetStringFormatTrans(strData, strFormat, "");

  000d4	c6 45 fc 01	 mov	 BYTE PTR __$EHRec$[ebp+8], 1

; 1576 : 	CString szFormat = strFormat, szData = "", szCompartDate = strCompartDate, szCompartTime = strCompartTime ;

  000d8	ff 15 00 00 00
	00		 call	 DWORD PTR __imp_??0?$CStringT@DV?$StrTraitMFC_DLL@DV?$ChTraitsCRT@D@ATL@@@@@ATL@@QAE@ABV01@@Z
  000de	68 00 00 00 00	 push	 OFFSET ??_C@_00CNPNBAHC@@
  000e3	8d 4d e4	 lea	 ecx, DWORD PTR _szData$11[ebp]
  000e6	c6 45 fc 02	 mov	 BYTE PTR __$EHRec$[ebp+8], 2
  000ea	ff 15 00 00 00
	00		 call	 DWORD PTR __imp_??0?$CStringT@DV?$StrTraitMFC_DLL@DV?$ChTraitsCRT@D@ATL@@@@@ATL@@QAE@PBD@Z
  000f0	8d 45 dc	 lea	 eax, DWORD PTR $T9[ebp]
  000f3	c6 45 fc 03	 mov	 BYTE PTR __$EHRec$[ebp+8], 3
  000f7	50		 push	 eax
  000f8	8d 4d e8	 lea	 ecx, DWORD PTR _szCompartDate$12[ebp]
  000fb	ff 15 00 00 00
	00		 call	 DWORD PTR __imp_??0?$CStringT@DV?$StrTraitMFC_DLL@DV?$ChTraitsCRT@D@ATL@@@@@ATL@@QAE@ABV01@@Z
  00101	8d 45 d8	 lea	 eax, DWORD PTR $T7[ebp]
  00104	c6 45 fc 04	 mov	 BYTE PTR __$EHRec$[ebp+8], 4
  00108	50		 push	 eax
  00109	8d 4d ec	 lea	 ecx, DWORD PTR _szCompartTime$13[ebp]
  0010c	ff 15 00 00 00
	00		 call	 DWORD PTR __imp_??0?$CStringT@DV?$StrTraitMFC_DLL@DV?$ChTraitsCRT@D@ATL@@@@@ATL@@QAE@ABV01@@Z
; File C:\Program Files (x86)\Microsoft Visual Studio\2019\Community\VC\Tools\MSVC\14.29.30133\atlmfc\include\atlsimpstr.h

; 519  : 		return( GetData()->nDataLength );

  00112	8b 45 dc	 mov	 eax, DWORD PTR $T9[ebp]
; File D:\git\src\IBK\IBK_DRFN\ProjSrc\SrcDrfn\Chart\chart_common\DataList\Conversion.cpp

; 1576 : 	CString szFormat = strFormat, szData = "", szCompartDate = strCompartDate, szCompartTime = strCompartTime ;

  00115	c6 45 fc 05	 mov	 BYTE PTR __$EHRec$[ebp+8], 5
; File C:\Program Files (x86)\Microsoft Visual Studio\2019\Community\VC\Tools\MSVC\14.29.30133\atlmfc\include\atlsimpstr.h

; 533  : 		return( GetLength() == 0 );

  00119	83 78 f4 00	 cmp	 DWORD PTR [eax-12], 0
; File D:\git\src\IBK\IBK_DRFN\ProjSrc\SrcDrfn\Chart\chart_common\DataList\Conversion.cpp

; 1578 : 	if(strCompartDate.IsEmpty())

  0011d	75 0e		 jne	 SHORT $LN38@GetStringF

; 1579 : 		szCompartDate = "/" ;

  0011f	68 00 00 00 00	 push	 OFFSET ??_C@_01KMDKNFGN@?1@
  00124	8d 4d e8	 lea	 ecx, DWORD PTR _szCompartDate$12[ebp]
  00127	ff 15 00 00 00
	00		 call	 DWORD PTR __imp_??4?$CStringT@DV?$StrTraitMFC_DLL@DV?$ChTraitsCRT@D@ATL@@@@@ATL@@QAEAAV01@PBD@Z
$LN38@GetStringF:
; File C:\Program Files (x86)\Microsoft Visual Studio\2019\Community\VC\Tools\MSVC\14.29.30133\atlmfc\include\atlsimpstr.h

; 519  : 		return( GetData()->nDataLength );

  0012d	8b 45 d8	 mov	 eax, DWORD PTR $T7[ebp]

; 533  : 		return( GetLength() == 0 );

  00130	83 78 f4 00	 cmp	 DWORD PTR [eax-12], 0
; File D:\git\src\IBK\IBK_DRFN\ProjSrc\SrcDrfn\Chart\chart_common\DataList\Conversion.cpp

; 1580 : 	if(strCompartTime.IsEmpty())

  00134	75 0e		 jne	 SHORT $LN39@GetStringF

; 1581 : 		szCompartTime = ":" ;

  00136	68 00 00 00 00	 push	 OFFSET ??_C@_01JLIPDDHJ@?3@
  0013b	8d 4d ec	 lea	 ecx, DWORD PTR _szCompartTime$13[ebp]
  0013e	ff 15 00 00 00
	00		 call	 DWORD PTR __imp_??4?$CStringT@DV?$StrTraitMFC_DLL@DV?$ChTraitsCRT@D@ATL@@@@@ATL@@QAEAAV01@PBD@Z
$LN39@GetStringF:

; 1582 : 
; 1583 : 	szFormat.TrimLeft();

  00144	8d 4d 0c	 lea	 ecx, DWORD PTR _szFormat$15[ebp]
  00147	ff 15 00 00 00
	00		 call	 DWORD PTR __imp_?TrimLeft@?$CStringT@DV?$StrTraitMFC_DLL@DV?$ChTraitsCRT@D@ATL@@@@@ATL@@QAEAAV12@XZ

; 1584 : 	szFormat.TrimRight();

  0014d	8d 4d 0c	 lea	 ecx, DWORD PTR _szFormat$15[ebp]
  00150	ff 15 00 00 00
	00		 call	 DWORD PTR __imp_?TrimRight@?$CStringT@DV?$StrTraitMFC_DLL@DV?$ChTraitsCRT@D@ATL@@@@@ATL@@QAEAAV12@XZ
; File C:\Program Files (x86)\Microsoft Visual Studio\2019\Community\VC\Tools\MSVC\14.29.30133\atlmfc\include\atlsimpstr.h

; 519  : 		return( GetData()->nDataLength );

  00156	8b 45 0c	 mov	 eax, DWORD PTR _szFormat$15[ebp]
; File D:\git\src\IBK\IBK_DRFN\ProjSrc\SrcDrfn\Chart\chart_common\DataList\Conversion.cpp

; 1586 : 	CString strValue = IntToString(atoi(strData), szFormat.GetLength());

  00159	ff 70 f4	 push	 DWORD PTR [eax-12]
  0015c	ff 33		 push	 DWORD PTR [ebx]
  0015e	ff 15 00 00 00
	00		 call	 DWORD PTR __imp__atoi
  00164	83 c4 04	 add	 esp, 4
  00167	50		 push	 eax
  00168	8d 45 e0	 lea	 eax, DWORD PTR _strValue$10[ebp]
  0016b	50		 push	 eax
  0016c	e8 00 00 00 00	 call	 ?IntToString@CDataConversion@@SA?AV?$CStringT@DV?$StrTraitMFC_DLL@DV?$ChTraitsCRT@D@ATL@@@@@ATL@@HH@Z ; CDataConversion::IntToString
  00171	83 c4 0c	 add	 esp, 12			; 0000000cH

; 1587 : 
; 1588 : 	//sy 2004.04.16
; 1589 : 	CString strSpecialTime;

  00174	8d 4d f0	 lea	 ecx, DWORD PTR _strSpecialTime$14[ebp]
  00177	ff 15 00 00 00
	00		 call	 DWORD PTR __imp_??0?$CStringT@DV?$StrTraitMFC_DLL@DV?$ChTraitsCRT@D@ATL@@@@@ATL@@QAE@XZ

; 1590 : 	if(GetSpecialTime(strFormat, strData, strSpecialTime))

  0017d	8d 45 f0	 lea	 eax, DWORD PTR _strSpecialTime$14[ebp]
  00180	c6 45 fc 07	 mov	 BYTE PTR __$EHRec$[ebp+8], 7
  00184	50		 push	 eax
  00185	53		 push	 ebx
  00186	56		 push	 esi
  00187	e8 00 00 00 00	 call	 ?GetSpecialTime@CDataConversion@@SA_NABV?$CStringT@DV?$StrTraitMFC_DLL@DV?$ChTraitsCRT@D@ATL@@@@@ATL@@0AAV23@@Z ; CDataConversion::GetSpecialTime
  0018c	83 c4 0c	 add	 esp, 12			; 0000000cH
  0018f	84 c0		 test	 al, al
  00191	74 05		 je	 SHORT $LN40@GetStringF

; 1591 : 		return strSpecialTime;

  00193	8d 45 f0	 lea	 eax, DWORD PTR _strSpecialTime$14[ebp]
  00196	eb 2c		 jmp	 SHORT $LN125@GetStringF
$LN40@GetStringF:

; 1592 : 	//end
; 1593 : 
; 1594 : 	GetStringFormatbyCompart(strValue, szFormat, szCompartDate, szCompartTime, szData);

  00198	8d 45 e4	 lea	 eax, DWORD PTR _szData$11[ebp]
  0019b	50		 push	 eax
  0019c	8d 45 ec	 lea	 eax, DWORD PTR _szCompartTime$13[ebp]
  0019f	50		 push	 eax
  001a0	8d 45 e8	 lea	 eax, DWORD PTR _szCompartDate$12[ebp]
  001a3	50		 push	 eax
  001a4	8d 45 0c	 lea	 eax, DWORD PTR _szFormat$15[ebp]
  001a7	50		 push	 eax
  001a8	8d 45 e0	 lea	 eax, DWORD PTR _strValue$10[ebp]
  001ab	50		 push	 eax
  001ac	8d 45 cc	 lea	 eax, DWORD PTR $T4[ebp]
  001af	50		 push	 eax
  001b0	e8 00 00 00 00	 call	 ?GetStringFormatbyCompart@CDataConversion@@SA?AV?$CStringT@DV?$StrTraitMFC_DLL@DV?$ChTraitsCRT@D@ATL@@@@@ATL@@ABV23@AAV23@001@Z ; CDataConversion::GetStringFormatbyCompart
  001b5	83 c4 18	 add	 esp, 24			; 00000018H
  001b8	8d 4d cc	 lea	 ecx, DWORD PTR $T4[ebp]
  001bb	ff 15 00 00 00
	00		 call	 DWORD PTR __imp_??1?$CStringT@DV?$StrTraitMFC_DLL@DV?$ChTraitsCRT@D@ATL@@@@@ATL@@QAE@XZ

; 1595 : 
; 1596 : 	return szData;

  001c1	8d 45 e4	 lea	 eax, DWORD PTR _szData$11[ebp]
$LN125@GetStringF:

; 1418 : 		return GetStringFormatTrans(strData, strFormat, "");

  001c4	8b 75 08	 mov	 esi, DWORD PTR ___$ReturnUdt$[ebp]
  001c7	8b ce		 mov	 ecx, esi
  001c9	50		 push	 eax
  001ca	ff 15 00 00 00
	00		 call	 DWORD PTR __imp_??0?$CStringT@DV?$StrTraitMFC_DLL@DV?$ChTraitsCRT@D@ATL@@@@@ATL@@QAE@ABV01@@Z
  001d0	8d 4d f0	 lea	 ecx, DWORD PTR _strSpecialTime$14[ebp]
  001d3	ff 15 00 00 00
	00		 call	 DWORD PTR __imp_??1?$CStringT@DV?$StrTraitMFC_DLL@DV?$ChTraitsCRT@D@ATL@@@@@ATL@@QAE@XZ
  001d9	8d 4d e0	 lea	 ecx, DWORD PTR _strValue$10[ebp]
  001dc	ff 15 00 00 00
	00		 call	 DWORD PTR __imp_??1?$CStringT@DV?$StrTraitMFC_DLL@DV?$ChTraitsCRT@D@ATL@@@@@ATL@@QAE@XZ
  001e2	8d 4d ec	 lea	 ecx, DWORD PTR _szCompartTime$13[ebp]
  001e5	ff 15 00 00 00
	00		 call	 DWORD PTR __imp_??1?$CStringT@DV?$StrTraitMFC_DLL@DV?$ChTraitsCRT@D@ATL@@@@@ATL@@QAE@XZ
  001eb	8d 4d e8	 lea	 ecx, DWORD PTR _szCompartDate$12[ebp]
  001ee	ff 15 00 00 00
	00		 call	 DWORD PTR __imp_??1?$CStringT@DV?$StrTraitMFC_DLL@DV?$ChTraitsCRT@D@ATL@@@@@ATL@@QAE@XZ
  001f4	8d 4d e4	 lea	 ecx, DWORD PTR _szData$11[ebp]
  001f7	ff 15 00 00 00
	00		 call	 DWORD PTR __imp_??1?$CStringT@DV?$StrTraitMFC_DLL@DV?$ChTraitsCRT@D@ATL@@@@@ATL@@QAE@XZ
  001fd	8d 4d 0c	 lea	 ecx, DWORD PTR _szFormat$15[ebp]
  00200	ff 15 00 00 00
	00		 call	 DWORD PTR __imp_??1?$CStringT@DV?$StrTraitMFC_DLL@DV?$ChTraitsCRT@D@ATL@@@@@ATL@@QAE@XZ
  00206	8d 4d dc	 lea	 ecx, DWORD PTR $T9[ebp]
  00209	ff 15 00 00 00
	00		 call	 DWORD PTR __imp_??1?$CStringT@DV?$StrTraitMFC_DLL@DV?$ChTraitsCRT@D@ATL@@@@@ATL@@QAE@XZ
  0020f	8d 4d d8	 lea	 ecx, DWORD PTR $T7[ebp]
  00212	e9 ee 01 00 00	 jmp	 $LN126@GetStringF
$LN4@GetStringF:

; 1419 : 
; 1420 : 	//  
; 1421 : 	CString strUnit; //  (%)

  00217	8d 4d d4	 lea	 ecx, DWORD PTR _strUnit$[ebp]
  0021a	ff 15 00 00 00
	00		 call	 DWORD PTR __imp_??0?$CStringT@DV?$StrTraitMFC_DLL@DV?$ChTraitsCRT@D@ATL@@@@@ATL@@QAE@XZ

; 1422 : 	if(strFormat.Right(1) != "0" && nFindIndex_1 != nFormatLength -1){

  00220	6a 01		 push	 1
  00222	8d 45 cc	 lea	 eax, DWORD PTR $T5[ebp]
  00225	c7 45 fc 08 00
	00 00		 mov	 DWORD PTR __$EHRec$[ebp+8], 8
  0022c	50		 push	 eax
  0022d	8b ce		 mov	 ecx, esi
  0022f	ff 15 00 00 00
	00		 call	 DWORD PTR __imp_?Right@?$CStringT@DV?$StrTraitMFC_DLL@DV?$ChTraitsCRT@D@ATL@@@@@ATL@@QBE?AV12@H@Z
; File C:\Program Files (x86)\Microsoft Visual Studio\2019\Community\VC\Tools\MSVC\14.29.30133\atlmfc\include\cstringt.h

; 2567 : 		return( str1.Compare( psz2 ) != 0 );

  00235	68 00 00 00 00	 push	 OFFSET ??_C@_01GBGANLPD@0@
  0023a	8b c8		 mov	 ecx, eax
; File D:\git\src\IBK\IBK_DRFN\ProjSrc\SrcDrfn\Chart\chart_common\DataList\Conversion.cpp

; 1422 : 	if(strFormat.Right(1) != "0" && nFindIndex_1 != nFormatLength -1){

  0023c	c6 45 fc 09	 mov	 BYTE PTR __$EHRec$[ebp+8], 9
  00240	c7 45 c8 02 00
	00 00		 mov	 DWORD PTR $T2[ebp], 2
; File C:\Program Files (x86)\Microsoft Visual Studio\2019\Community\VC\Tools\MSVC\14.29.30133\atlmfc\include\cstringt.h

; 2567 : 		return( str1.Compare( psz2 ) != 0 );

  00247	ff 15 00 00 00
	00		 call	 DWORD PTR __imp_?Compare@?$CStringT@DV?$StrTraitMFC_DLL@DV?$ChTraitsCRT@D@ATL@@@@@ATL@@QBEHPBD@Z
  0024d	85 c0		 test	 eax, eax
; File D:\git\src\IBK\IBK_DRFN\ProjSrc\SrcDrfn\Chart\chart_common\DataList\Conversion.cpp

; 1422 : 	if(strFormat.Right(1) != "0" && nFindIndex_1 != nFormatLength -1){

  0024f	74 0c		 je	 SHORT $LN8@GetStringF
  00251	8d 47 ff	 lea	 eax, DWORD PTR [edi-1]
  00254	c6 45 0f 01	 mov	 BYTE PTR $T19[ebp], 1
  00258	39 45 d8	 cmp	 DWORD PTR _nFindIndex_1$1$[ebp], eax
  0025b	75 04		 jne	 SHORT $LN9@GetStringF
$LN8@GetStringF:
  0025d	c6 45 0f 00	 mov	 BYTE PTR $T19[ebp], 0
$LN9@GetStringF:
  00261	8d 4d cc	 lea	 ecx, DWORD PTR $T5[ebp]
  00264	c7 45 fc 08 00
	00 00		 mov	 DWORD PTR __$EHRec$[ebp+8], 8
  0026b	ff 15 00 00 00
	00		 call	 DWORD PTR __imp_??1?$CStringT@DV?$StrTraitMFC_DLL@DV?$ChTraitsCRT@D@ATL@@@@@ATL@@QAE@XZ
  00271	80 7d 0f 00	 cmp	 BYTE PTR $T19[ebp], 0
  00275	74 2c		 je	 SHORT $LN5@GetStringF

; 1423 : 		strUnit = strFormat.Right(nFormatLength - (nFindIndex_1 + 1));

  00277	2b 7d d8	 sub	 edi, DWORD PTR _nFindIndex_1$1$[ebp]
  0027a	8d 45 0c	 lea	 eax, DWORD PTR $T18[ebp]
  0027d	4f		 dec	 edi
  0027e	8b ce		 mov	 ecx, esi
  00280	57		 push	 edi
  00281	50		 push	 eax
  00282	ff 15 00 00 00
	00		 call	 DWORD PTR __imp_?Right@?$CStringT@DV?$StrTraitMFC_DLL@DV?$ChTraitsCRT@D@ATL@@@@@ATL@@QBE?AV12@H@Z
  00288	50		 push	 eax
  00289	8d 4d d4	 lea	 ecx, DWORD PTR _strUnit$[ebp]
  0028c	c6 45 fc 0a	 mov	 BYTE PTR __$EHRec$[ebp+8], 10 ; 0000000aH
  00290	ff 15 00 00 00
	00		 call	 DWORD PTR __imp_??4?$CStringT@DV?$StrTraitMFC_DLL@DV?$ChTraitsCRT@D@ATL@@@@@ATL@@QAEAAV01@ABV01@@Z
  00296	8d 4d 0c	 lea	 ecx, DWORD PTR $T18[ebp]
  00299	c6 45 fc 08	 mov	 BYTE PTR __$EHRec$[ebp+8], 8
  0029d	ff 15 00 00 00
	00		 call	 DWORD PTR __imp_??1?$CStringT@DV?$StrTraitMFC_DLL@DV?$ChTraitsCRT@D@ATL@@@@@ATL@@QAE@XZ
$LN5@GetStringF:

; 1425 : 	double dData = atof(strData);

  002a3	ff 33		 push	 DWORD PTR [ebx]
  002a5	ff 15 00 00 00
	00		 call	 DWORD PTR __imp__atof
; File C:\Program Files (x86)\Microsoft Visual Studio\2019\Community\VC\Tools\MSVC\14.29.30133\atlmfc\include\atlsimpstr.h

; 519  : 		return( GetData()->nDataLength );

  002ab	8b 06		 mov	 eax, DWORD PTR [esi]
; File D:\git\src\IBK\IBK_DRFN\ProjSrc\SrcDrfn\Chart\chart_common\DataList\Conversion.cpp

; 1425 : 	double dData = atof(strData);

  002ad	83 c4 04	 add	 esp, 4
  002b0	dd 5d c0	 fstp	 QWORD PTR _dData$[ebp]
; File C:\Program Files (x86)\Microsoft Visual Studio\2019\Community\VC\Tools\MSVC\14.29.30133\atlmfc\include\atlsimpstr.h

; 533  : 		return( GetLength() == 0 );

  002b3	83 78 f4 00	 cmp	 DWORD PTR [eax-12], 0
; File D:\git\src\IBK\IBK_DRFN\ProjSrc\SrcDrfn\Chart\chart_common\DataList\Conversion.cpp

; 1244 : 	if(strDecimalType.IsEmpty() || strDecimalType.Find('.') < 0)

  002b7	0f 84 f6 00 00
	00		 je	 $LN75@GetStringF
  002bd	6a 00		 push	 0
  002bf	6a 2e		 push	 46			; 0000002eH
  002c1	8b ce		 mov	 ecx, esi
  002c3	ff 15 00 00 00
	00		 call	 DWORD PTR __imp_?Find@?$CStringT@DV?$StrTraitMFC_DLL@DV?$ChTraitsCRT@D@ATL@@@@@ATL@@QBEHDH@Z
  002c9	85 c0		 test	 eax, eax
  002cb	0f 88 e2 00 00
	00		 js	 $LN75@GetStringF

; 1247 : 	CString strType = strDecimalType;

  002d1	56		 push	 esi
  002d2	8d 4d 0c	 lea	 ecx, DWORD PTR _strType$16[ebp]
  002d5	ff 15 00 00 00
	00		 call	 DWORD PTR __imp_??0?$CStringT@DV?$StrTraitMFC_DLL@DV?$ChTraitsCRT@D@ATL@@@@@ATL@@QAE@ABV01@@Z
; File C:\Program Files (x86)\Microsoft Visual Studio\2019\Community\VC\Tools\MSVC\14.29.30133\atlmfc\include\atlsimpstr.h

; 519  : 		return( GetData()->nDataLength );

  002db	8b 06		 mov	 eax, DWORD PTR [esi]
; File D:\git\src\IBK\IBK_DRFN\ProjSrc\SrcDrfn\Chart\chart_common\DataList\Conversion.cpp

; 1247 : 	CString strType = strDecimalType;

  002dd	c6 45 fc 0b	 mov	 BYTE PTR __$EHRec$[ebp+8], 11 ; 0000000bH
; File C:\Program Files (x86)\Microsoft Visual Studio\2019\Community\VC\Tools\MSVC\14.29.30133\atlmfc\include\atlsimpstr.h

; 533  : 		return( GetLength() == 0 );

  002e1	83 78 f4 00	 cmp	 DWORD PTR [eax-12], 0
; File D:\git\src\IBK\IBK_DRFN\ProjSrc\SrcDrfn\Chart\chart_common\DataList\Conversion.cpp

; 237  : 	if(strData.IsEmpty())

  002e5	75 10		 jne	 SHORT $LN92@GetStringF

; 238  : 		return "";

  002e7	68 00 00 00 00	 push	 OFFSET ??_C@_00CNPNBAHC@@
  002ec	8d 4d dc	 lea	 ecx, DWORD PTR $T8[ebp]
  002ef	ff 15 00 00 00
	00		 call	 DWORD PTR __imp_??0?$CStringT@DV?$StrTraitMFC_DLL@DV?$ChTraitsCRT@D@ATL@@@@@ATL@@QAE@PBD@Z
  002f5	eb 63		 jmp	 SHORT $LN88@GetStringF
$LN92@GetStringF:

; 239  : 
; 240  : 	CString strRealData;

  002f7	8d 4d d8	 lea	 ecx, DWORD PTR _strRealData$6[ebp]
  002fa	ff 15 00 00 00
	00		 call	 DWORD PTR __imp_??0?$CStringT@DV?$StrTraitMFC_DLL@DV?$ChTraitsCRT@D@ATL@@@@@ATL@@QAE@XZ
; File C:\Program Files (x86)\Microsoft Visual Studio\2019\Community\VC\Tools\MSVC\14.29.30133\atlmfc\include\atlsimpstr.h

; 519  : 		return( GetData()->nDataLength );

  00300	8b 06		 mov	 eax, DWORD PTR [esi]
; File D:\git\src\IBK\IBK_DRFN\ProjSrc\SrcDrfn\Chart\chart_common\DataList\Conversion.cpp

; 241  : 	for(int nIndex = 0; nIndex < strData.GetLength(); nIndex++){

  00302	33 ff		 xor	 edi, edi
  00304	c6 45 fc 0c	 mov	 BYTE PTR __$EHRec$[ebp+8], 12 ; 0000000cH
  00308	39 78 f4	 cmp	 DWORD PTR [eax-12], edi
  0030b	7e 37		 jle	 SHORT $LN90@GetStringF
  0030d	8b 1d 00 00 00
	00		 mov	 ebx, DWORD PTR __imp__isdigit
$LL91@GetStringF:

; 242  : 		char cData = strData[nIndex];

  00313	57		 push	 edi
  00314	8b ce		 mov	 ecx, esi
  00316	ff 15 00 00 00
	00		 call	 DWORD PTR __imp_??A?$CSimpleStringT@D$00@ATL@@QBEDH@Z
  0031c	88 45 cc	 mov	 BYTE PTR _cData$3[ebp], al

; 243  : 		if(cData == '.' || isdigit(cData) != 0)

  0031f	3c 2e		 cmp	 al, 46			; 0000002eH
  00321	74 0d		 je	 SHORT $LN94@GetStringF
  00323	0f be c0	 movsx	 eax, al
  00326	50		 push	 eax
  00327	ff d3		 call	 ebx
  00329	83 c4 04	 add	 esp, 4
  0032c	85 c0		 test	 eax, eax
  0032e	74 0c		 je	 SHORT $LN89@GetStringF
$LN94@GetStringF:

; 244  : 			strRealData += cData;

  00330	ff 75 cc	 push	 DWORD PTR _cData$3[ebp]
  00333	8d 4d d8	 lea	 ecx, DWORD PTR _strRealData$6[ebp]
  00336	ff 15 00 00 00
	00		 call	 DWORD PTR __imp_??Y?$CStringT@DV?$StrTraitMFC_DLL@DV?$ChTraitsCRT@D@ATL@@@@@ATL@@QAEAAV01@D@Z
$LN89@GetStringF:
; File C:\Program Files (x86)\Microsoft Visual Studio\2019\Community\VC\Tools\MSVC\14.29.30133\atlmfc\include\atlsimpstr.h

; 519  : 		return( GetData()->nDataLength );

  0033c	8b 06		 mov	 eax, DWORD PTR [esi]
; File D:\git\src\IBK\IBK_DRFN\ProjSrc\SrcDrfn\Chart\chart_common\DataList\Conversion.cpp

; 241  : 	for(int nIndex = 0; nIndex < strData.GetLength(); nIndex++){

  0033e	47		 inc	 edi
  0033f	3b 78 f4	 cmp	 edi, DWORD PTR [eax-12]
  00342	7c cf		 jl	 SHORT $LL91@GetStringF
$LN90@GetStringF:

; 245  : 	}
; 246  : 	return strRealData;

  00344	8d 45 d8	 lea	 eax, DWORD PTR _strRealData$6[ebp]
  00347	50		 push	 eax
  00348	8d 4d dc	 lea	 ecx, DWORD PTR $T8[ebp]
  0034b	ff 15 00 00 00
	00		 call	 DWORD PTR __imp_??0?$CStringT@DV?$StrTraitMFC_DLL@DV?$ChTraitsCRT@D@ATL@@@@@ATL@@QAE@ABV01@@Z
  00351	8d 4d d8	 lea	 ecx, DWORD PTR _strRealData$6[ebp]
  00354	ff 15 00 00 00
	00		 call	 DWORD PTR __imp_??1?$CStringT@DV?$StrTraitMFC_DLL@DV?$ChTraitsCRT@D@ATL@@@@@ATL@@QAE@XZ
$LN88@GetStringF:

; 1249 : 		strType = NormalNumberString(strDecimalType);

  0035a	8d 45 dc	 lea	 eax, DWORD PTR $T8[ebp]
  0035d	c6 45 fc 0d	 mov	 BYTE PTR __$EHRec$[ebp+8], 13 ; 0000000dH
  00361	50		 push	 eax
  00362	8d 4d 0c	 lea	 ecx, DWORD PTR _strType$16[ebp]
  00365	ff 15 00 00 00
	00		 call	 DWORD PTR __imp_??4?$CStringT@DV?$StrTraitMFC_DLL@DV?$ChTraitsCRT@D@ATL@@@@@ATL@@QAEAAV01@ABV01@@Z
  0036b	8d 4d dc	 lea	 ecx, DWORD PTR $T8[ebp]
  0036e	ff 15 00 00 00
	00		 call	 DWORD PTR __imp_??1?$CStringT@DV?$StrTraitMFC_DLL@DV?$ChTraitsCRT@D@ATL@@@@@ATL@@QAE@XZ

; 1250 : 
; 1251 : 	int nIndex = strType.Find(".");

  00374	6a 00		 push	 0
  00376	68 00 00 00 00	 push	 OFFSET ??_C@_01LFCBOECM@?4@
  0037b	8d 4d 0c	 lea	 ecx, DWORD PTR _strType$16[ebp]
  0037e	ff 15 00 00 00
	00		 call	 DWORD PTR __imp_?Find@?$CStringT@DV?$StrTraitMFC_DLL@DV?$ChTraitsCRT@D@ATL@@@@@ATL@@QBEHPBDH@Z
; File C:\Program Files (x86)\Microsoft Visual Studio\2019\Community\VC\Tools\MSVC\14.29.30133\atlmfc\include\atlsimpstr.h

; 519  : 		return( GetData()->nDataLength );

  00384	8b 4d 0c	 mov	 ecx, DWORD PTR _strType$16[ebp]
  00387	8b 49 f4	 mov	 ecx, DWORD PTR [ecx-12]

; 533  : 		return( GetLength() == 0 );

  0038a	85 c9		 test	 ecx, ecx
; File D:\git\src\IBK\IBK_DRFN\ProjSrc\SrcDrfn\Chart\chart_common\DataList\Conversion.cpp

; 1252 : 	if(strType.IsEmpty() || nIndex < 0)

  0038c	74 18		 je	 SHORT $LN78@GetStringF
  0038e	85 c0		 test	 eax, eax
  00390	78 14		 js	 SHORT $LN78@GetStringF

; 1254 : 
; 1255 : 	return (strType.GetLength() - (nIndex +1));

  00392	2b c8		 sub	 ecx, eax
  00394	c6 45 fc 08	 mov	 BYTE PTR __$EHRec$[ebp+8], 8
  00398	8d 71 ff	 lea	 esi, DWORD PTR [ecx-1]
  0039b	8d 4d 0c	 lea	 ecx, DWORD PTR _strType$16[ebp]
  0039e	ff 15 00 00 00
	00		 call	 DWORD PTR __imp_??1?$CStringT@DV?$StrTraitMFC_DLL@DV?$ChTraitsCRT@D@ATL@@@@@ATL@@QAE@XZ
  003a4	eb 0f		 jmp	 SHORT $LN73@GetStringF
$LN78@GetStringF:

; 1253 : 		return 0;

  003a6	8d 4d 0c	 lea	 ecx, DWORD PTR _strType$16[ebp]
  003a9	c6 45 fc 08	 mov	 BYTE PTR __$EHRec$[ebp+8], 8
  003ad	ff 15 00 00 00
	00		 call	 DWORD PTR __imp_??1?$CStringT@DV?$StrTraitMFC_DLL@DV?$ChTraitsCRT@D@ATL@@@@@ATL@@QAE@XZ
$LN75@GetStringF:

; 1426 : 	int nDecimalDownCount = GetDecimalDownCount(strFormat, true);
; 1427 : 	if(nDecimalDownCount < 0)
; 1428 : 		nDecimalDownCount = 0;
; 1429 : 
; 1430 : 	// data type   (x1, x10, x0.1, x0.01)
; 1431 : 	CString strRealData = DoubleToString(dData, nDecimalDownCount);

  003b3	33 f6		 xor	 esi, esi
$LN73@GetStringF:
  003b5	33 c0		 xor	 eax, eax
  003b7	85 f6		 test	 esi, esi
  003b9	0f 49 c6	 cmovns	 eax, esi
  003bc	50		 push	 eax
  003bd	8d 45 c0	 lea	 eax, DWORD PTR _dData$[ebp]
  003c0	50		 push	 eax
  003c1	8d 45 d0	 lea	 eax, DWORD PTR _strRealData$[ebp]
  003c4	50		 push	 eax
  003c5	e8 00 00 00 00	 call	 ?DoubleToString@CDataConversion@@SA?AV?$CStringT@DV?$StrTraitMFC_DLL@DV?$ChTraitsCRT@D@ATL@@@@@ATL@@ABNH@Z ; CDataConversion::DoubleToString

; 1432 : 	return GetStringThousandFormat(strRealData) + strUnit;

  003ca	8d 45 d0	 lea	 eax, DWORD PTR _strRealData$[ebp]
  003cd	c6 45 fc 0e	 mov	 BYTE PTR __$EHRec$[ebp+8], 14 ; 0000000eH
  003d1	50		 push	 eax
  003d2	8d 45 0c	 lea	 eax, DWORD PTR $T17[ebp]
  003d5	50		 push	 eax
  003d6	e8 00 00 00 00	 call	 ?GetStringThousandFormat@CDataConversion@@SA?AV?$CStringT@DV?$StrTraitMFC_DLL@DV?$ChTraitsCRT@D@ATL@@@@@ATL@@ABV23@@Z ; CDataConversion::GetStringThousandFormat
  003db	8b 75 08	 mov	 esi, DWORD PTR ___$ReturnUdt$[ebp]
  003de	8d 4d d4	 lea	 ecx, DWORD PTR _strUnit$[ebp]
  003e1	51		 push	 ecx
  003e2	50		 push	 eax
  003e3	56		 push	 esi
  003e4	c6 45 fc 0f	 mov	 BYTE PTR __$EHRec$[ebp+8], 15 ; 0000000fH
  003e8	e8 00 00 00 00	 call	 ??HATL@@YA?AV?$CStringT@DV?$StrTraitMFC_DLL@DV?$ChTraitsCRT@D@ATL@@@@@0@ABV10@0@Z ; ATL::operator+
  003ed	83 c4 20	 add	 esp, 32			; 00000020H
  003f0	8d 4d 0c	 lea	 ecx, DWORD PTR $T17[ebp]
  003f3	ff 15 00 00 00
	00		 call	 DWORD PTR __imp_??1?$CStringT@DV?$StrTraitMFC_DLL@DV?$ChTraitsCRT@D@ATL@@@@@ATL@@QAE@XZ
  003f9	8d 4d d0	 lea	 ecx, DWORD PTR _strRealData$[ebp]
  003fc	ff 15 00 00 00
	00		 call	 DWORD PTR __imp_??1?$CStringT@DV?$StrTraitMFC_DLL@DV?$ChTraitsCRT@D@ATL@@@@@ATL@@QAE@XZ
  00402	8d 4d d4	 lea	 ecx, DWORD PTR _strUnit$[ebp]
$LN126@GetStringF:

; 1433 : }

  00405	ff 15 00 00 00
	00		 call	 DWORD PTR __imp_??1?$CStringT@DV?$StrTraitMFC_DLL@DV?$ChTraitsCRT@D@ATL@@@@@ATL@@QAE@XZ
  0040b	8b c6		 mov	 eax, esi
  0040d	8b 4d f4	 mov	 ecx, DWORD PTR __$EHRec$[ebp]
  00410	64 89 0d 00 00
	00 00		 mov	 DWORD PTR fs:0, ecx
  00417	59		 pop	 ecx
  00418	5f		 pop	 edi
  00419	5e		 pop	 esi
  0041a	5b		 pop	 ebx
  0041b	8b e5		 mov	 esp, ebp
  0041d	5d		 pop	 ebp
  0041e	c3		 ret	 0
_TEXT	ENDS
;	COMDAT text$x
text$x	SEGMENT
__unwindfunclet$?GetStringFormatTrans@CDataConversion@@SA?AV?$CStringT@DV?$StrTraitMFC_DLL@DV?$ChTraitsCRT@D@ATL@@@@@ATL@@ABV23@0@Z$1:
  00000	8d 4d d8	 lea	 ecx, DWORD PTR $T7[ebp]
  00003	ff 25 00 00 00
	00		 jmp	 DWORD PTR __imp_??1?$CStringT@DV?$StrTraitMFC_DLL@DV?$ChTraitsCRT@D@ATL@@@@@ATL@@QAE@XZ
__unwindfunclet$?GetStringFormatTrans@CDataConversion@@SA?AV?$CStringT@DV?$StrTraitMFC_DLL@DV?$ChTraitsCRT@D@ATL@@@@@ATL@@ABV23@0@Z$2:
  00009	8d 4d dc	 lea	 ecx, DWORD PTR $T9[ebp]
  0000c	ff 25 00 00 00
	00		 jmp	 DWORD PTR __imp_??1?$CStringT@DV?$StrTraitMFC_DLL@DV?$ChTraitsCRT@D@ATL@@@@@ATL@@QAE@XZ
__unwindfunclet$?GetStringFormatTrans@CDataConversion@@SA?AV?$CStringT@DV?$StrTraitMFC_DLL@DV?$ChTraitsCRT@D@ATL@@@@@ATL@@ABV23@0@Z$8:
  00012	8d 4d 0c	 lea	 ecx, DWORD PTR _szFormat$15[ebp]
  00015	ff 25 00 00 00
	00		 jmp	 DWORD PTR __imp_??1?$CStringT@DV?$StrTraitMFC_DLL@DV?$ChTraitsCRT@D@ATL@@@@@ATL@@QAE@XZ
__unwindfunclet$?GetStringFormatTrans@CDataConversion@@SA?AV?$CStringT@DV?$StrTraitMFC_DLL@DV?$ChTraitsCRT@D@ATL@@@@@ATL@@ABV23@0@Z$9:
  0001b	8d 4d e4	 lea	 ecx, DWORD PTR _szData$11[ebp]
  0001e	ff 25 00 00 00
	00		 jmp	 DWORD PTR __imp_??1?$CStringT@DV?$StrTraitMFC_DLL@DV?$ChTraitsCRT@D@ATL@@@@@ATL@@QAE@XZ
__unwindfunclet$?GetStringFormatTrans@CDataConversion@@SA?AV?$CStringT@DV?$StrTraitMFC_DLL@DV?$ChTraitsCRT@D@ATL@@@@@ATL@@ABV23@0@Z$10:
  00024	8d 4d e8	 lea	 ecx, DWORD PTR _szCompartDate$12[ebp]
  00027	ff 25 00 00 00
	00		 jmp	 DWORD PTR __imp_??1?$CStringT@DV?$StrTraitMFC_DLL@DV?$ChTraitsCRT@D@ATL@@@@@ATL@@QAE@XZ
__unwindfunclet$?GetStringFormatTrans@CDataConversion@@SA?AV?$CStringT@DV?$StrTraitMFC_DLL@DV?$ChTraitsCRT@D@ATL@@@@@ATL@@ABV23@0@Z$11:
  0002d	8d 4d ec	 lea	 ecx, DWORD PTR _szCompartTime$13[ebp]
  00030	ff 25 00 00 00
	00		 jmp	 DWORD PTR __imp_??1?$CStringT@DV?$StrTraitMFC_DLL@DV?$ChTraitsCRT@D@ATL@@@@@ATL@@QAE@XZ
__unwindfunclet$?GetStringFormatTrans@CDataConversion@@SA?AV?$CStringT@DV?$StrTraitMFC_DLL@DV?$ChTraitsCRT@D@ATL@@@@@ATL@@ABV23@0@Z$12:
  00036	8d 4d e0	 lea	 ecx, DWORD PTR _strValue$10[ebp]
  00039	ff 25 00 00 00
	00		 jmp	 DWORD PTR __imp_??1?$CStringT@DV?$StrTraitMFC_DLL@DV?$ChTraitsCRT@D@ATL@@@@@ATL@@QAE@XZ
__unwindfunclet$?GetStringFormatTrans@CDataConversion@@SA?AV?$CStringT@DV?$StrTraitMFC_DLL@DV?$ChTraitsCRT@D@ATL@@@@@ATL@@ABV23@0@Z$13:
  0003f	8d 4d f0	 lea	 ecx, DWORD PTR _strSpecialTime$14[ebp]
  00042	ff 25 00 00 00
	00		 jmp	 DWORD PTR __imp_??1?$CStringT@DV?$StrTraitMFC_DLL@DV?$ChTraitsCRT@D@ATL@@@@@ATL@@QAE@XZ
__unwindfunclet$?GetStringFormatTrans@CDataConversion@@SA?AV?$CStringT@DV?$StrTraitMFC_DLL@DV?$ChTraitsCRT@D@ATL@@@@@ATL@@ABV23@0@Z$3:
  00048	8d 4d d4	 lea	 ecx, DWORD PTR _strUnit$[ebp]
  0004b	ff 25 00 00 00
	00		 jmp	 DWORD PTR __imp_??1?$CStringT@DV?$StrTraitMFC_DLL@DV?$ChTraitsCRT@D@ATL@@@@@ATL@@QAE@XZ
__unwindfunclet$?GetStringFormatTrans@CDataConversion@@SA?AV?$CStringT@DV?$StrTraitMFC_DLL@DV?$ChTraitsCRT@D@ATL@@@@@ATL@@ABV23@0@Z$4:
  00051	8b 45 c8	 mov	 eax, DWORD PTR $T2[ebp]
  00054	83 e0 02	 and	 eax, 2
  00057	0f 84 0d 00 00
	00		 je	 $LN16@GetStringF
  0005d	83 65 c8 fd	 and	 DWORD PTR $T2[ebp], -3	; fffffffdH
  00061	8d 4d cc	 lea	 ecx, DWORD PTR $T5[ebp]
  00064	ff 25 00 00 00
	00		 jmp	 DWORD PTR __imp_??1?$CStringT@DV?$StrTraitMFC_DLL@DV?$ChTraitsCRT@D@ATL@@@@@ATL@@QAE@XZ
$LN16@GetStringF:
  0006a	c3		 ret	 0
__unwindfunclet$?GetStringFormatTrans@CDataConversion@@SA?AV?$CStringT@DV?$StrTraitMFC_DLL@DV?$ChTraitsCRT@D@ATL@@@@@ATL@@ABV23@0@Z$5:
  0006b	8d 4d 0c	 lea	 ecx, DWORD PTR $T18[ebp]
  0006e	ff 25 00 00 00
	00		 jmp	 DWORD PTR __imp_??1?$CStringT@DV?$StrTraitMFC_DLL@DV?$ChTraitsCRT@D@ATL@@@@@ATL@@QAE@XZ
__unwindfunclet$?GetStringFormatTrans@CDataConversion@@SA?AV?$CStringT@DV?$StrTraitMFC_DLL@DV?$ChTraitsCRT@D@ATL@@@@@ATL@@ABV23@0@Z$16:
  00074	8d 4d 0c	 lea	 ecx, DWORD PTR _strType$16[ebp]
  00077	ff 25 00 00 00
	00		 jmp	 DWORD PTR __imp_??1?$CStringT@DV?$StrTraitMFC_DLL@DV?$ChTraitsCRT@D@ATL@@@@@ATL@@QAE@XZ
__unwindfunclet$?GetStringFormatTrans@CDataConversion@@SA?AV?$CStringT@DV?$StrTraitMFC_DLL@DV?$ChTraitsCRT@D@ATL@@@@@ATL@@ABV23@0@Z$19:
  0007d	8d 4d d8	 lea	 ecx, DWORD PTR _strRealData$6[ebp]
  00080	ff 25 00 00 00
	00		 jmp	 DWORD PTR __imp_??1?$CStringT@DV?$StrTraitMFC_DLL@DV?$ChTraitsCRT@D@ATL@@@@@ATL@@QAE@XZ
__unwindfunclet$?GetStringFormatTrans@CDataConversion@@SA?AV?$CStringT@DV?$StrTraitMFC_DLL@DV?$ChTraitsCRT@D@ATL@@@@@ATL@@ABV23@0@Z$17:
  00086	8d 4d dc	 lea	 ecx, DWORD PTR $T8[ebp]
  00089	ff 25 00 00 00
	00		 jmp	 DWORD PTR __imp_??1?$CStringT@DV?$StrTraitMFC_DLL@DV?$ChTraitsCRT@D@ATL@@@@@ATL@@QAE@XZ
__unwindfunclet$?GetStringFormatTrans@CDataConversion@@SA?AV?$CStringT@DV?$StrTraitMFC_DLL@DV?$ChTraitsCRT@D@ATL@@@@@ATL@@ABV23@0@Z$6:
  0008f	8d 4d d0	 lea	 ecx, DWORD PTR _strRealData$[ebp]
  00092	ff 25 00 00 00
	00		 jmp	 DWORD PTR __imp_??1?$CStringT@DV?$StrTraitMFC_DLL@DV?$ChTraitsCRT@D@ATL@@@@@ATL@@QAE@XZ
__unwindfunclet$?GetStringFormatTrans@CDataConversion@@SA?AV?$CStringT@DV?$StrTraitMFC_DLL@DV?$ChTraitsCRT@D@ATL@@@@@ATL@@ABV23@0@Z$7:
  00098	8d 4d 0c	 lea	 ecx, DWORD PTR $T17[ebp]
  0009b	ff 25 00 00 00
	00		 jmp	 DWORD PTR __imp_??1?$CStringT@DV?$StrTraitMFC_DLL@DV?$ChTraitsCRT@D@ATL@@@@@ATL@@QAE@XZ
  000a1	cc		 int	 3
  000a2	cc		 int	 3
  000a3	cc		 int	 3
  000a4	cc		 int	 3
  000a5	cc		 int	 3
__ehhandler$?GetStringFormatTrans@CDataConversion@@SA?AV?$CStringT@DV?$StrTraitMFC_DLL@DV?$ChTraitsCRT@D@ATL@@@@@ATL@@ABV23@0@Z:
  000a6	90		 npad	 1
  000a7	90		 npad	 1
  000a8	8b 54 24 08	 mov	 edx, DWORD PTR [esp+8]
  000ac	8d 42 0c	 lea	 eax, DWORD PTR [edx+12]
  000af	8b 4a bc	 mov	 ecx, DWORD PTR [edx-68]
  000b2	33 c8		 xor	 ecx, eax
  000b4	e8 00 00 00 00	 call	 @__security_check_cookie@4
  000b9	b8 00 00 00 00	 mov	 eax, OFFSET __ehfuncinfo$?GetStringFormatTrans@CDataConversion@@SA?AV?$CStringT@DV?$StrTraitMFC_DLL@DV?$ChTraitsCRT@D@ATL@@@@@ATL@@ABV23@0@Z
  000be	e9 00 00 00 00	 jmp	 ___CxxFrameHandler3
text$x	ENDS
?GetStringFormatTrans@CDataConversion@@SA?AV?$CStringT@DV?$StrTraitMFC_DLL@DV?$ChTraitsCRT@D@ATL@@@@@ATL@@ABV23@0@Z ENDP ; CDataConversion::GetStringFormatTrans
; Function compile flags: /Ogtp
; File D:\git\src\IBK\IBK_DRFN\ProjSrc\SrcDrfn\Chart\chart_common\DataList\Conversion.cpp
;	COMDAT ?GetChangeFormat_NumCharUnit@CDataConversion@@SA?AV?$CStringT@DV?$StrTraitMFC_DLL@DV?$ChTraitsCRT@D@ATL@@@@@ATL@@ABV23@@Z
_TEXT	SEGMENT
$T2 = -16						; size = 4
__$EHRec$ = -12						; size = 12
___$ReturnUdt$ = 8					; size = 4
_strOrgFormat$ = 12					; size = 4
?GetChangeFormat_NumCharUnit@CDataConversion@@SA?AV?$CStringT@DV?$StrTraitMFC_DLL@DV?$ChTraitsCRT@D@ATL@@@@@ATL@@ABV23@@Z PROC ; CDataConversion::GetChangeFormat_NumCharUnit, COMDAT

; 1274 : {

  00000	55		 push	 ebp
  00001	8b ec		 mov	 ebp, esp
  00003	6a ff		 push	 -1
  00005	68 00 00 00 00	 push	 __ehhandler$?GetChangeFormat_NumCharUnit@CDataConversion@@SA?AV?$CStringT@DV?$StrTraitMFC_DLL@DV?$ChTraitsCRT@D@ATL@@@@@ATL@@ABV23@@Z
  0000a	64 a1 00 00 00
	00		 mov	 eax, DWORD PTR fs:0
  00010	50		 push	 eax
  00011	51		 push	 ecx
  00012	56		 push	 esi
  00013	57		 push	 edi
  00014	a1 00 00 00 00	 mov	 eax, DWORD PTR ___security_cookie
  00019	33 c5		 xor	 eax, ebp
  0001b	50		 push	 eax
  0001c	8d 45 f4	 lea	 eax, DWORD PTR __$EHRec$[ebp]
  0001f	64 a3 00 00 00
	00		 mov	 DWORD PTR fs:0, eax

; 1275 : 	CString strNewFormat = strOrgFormat;

  00025	8b 7d 0c	 mov	 edi, DWORD PTR _strOrgFormat$[ebp]
  00028	c7 45 f0 00 00
	00 00		 mov	 DWORD PTR $T2[ebp], 0
  0002f	8b 75 08	 mov	 esi, DWORD PTR ___$ReturnUdt$[ebp]
  00032	8b ce		 mov	 ecx, esi
  00034	57		 push	 edi
  00035	c7 45 fc 00 00
	00 00		 mov	 DWORD PTR __$EHRec$[ebp+8], 0
  0003c	ff 15 00 00 00
	00		 call	 DWORD PTR __imp_??0?$CStringT@DV?$StrTraitMFC_DLL@DV?$ChTraitsCRT@D@ATL@@@@@ATL@@QAE@ABV01@@Z

; 1303 : 	}
; 1304 : 
; 1305 : 	return strNewFormat;

  00042	6a 00		 push	 0
  00044	68 00 00 00 00	 push	 OFFSET ??_C@_0O@OGJGJDOB@1000000000000@
  00049	8b cf		 mov	 ecx, edi
  0004b	c7 45 fc 00 00
	00 00		 mov	 DWORD PTR __$EHRec$[ebp+8], 0
  00052	c7 45 f0 01 00
	00 00		 mov	 DWORD PTR $T2[ebp], 1
  00059	ff 15 00 00 00
	00		 call	 DWORD PTR __imp_?Find@?$CStringT@DV?$StrTraitMFC_DLL@DV?$ChTraitsCRT@D@ATL@@@@@ATL@@QBEHPBDH@Z
  0005f	83 f8 ff	 cmp	 eax, -1
  00062	74 0f		 je	 SHORT $LN2@GetChangeF

; 1276 : 
; 1277 : 	if(strOrgFormat.Find("1000000000000") != -1){	// 
; 1278 : 		strNewFormat.Replace("1000000000000", "");

  00064	68 00 00 00 00	 push	 OFFSET ??_C@_02CCEMNDKE@?A?$LG@
  00069	68 00 00 00 00	 push	 OFFSET ??_C@_0O@OGJGJDOB@1000000000000@

; 1279 : 	}

  0006e	e9 07 01 00 00	 jmp	 $LN23@GetChangeF
$LN2@GetChangeF:

; 1280 : 	else if(strOrgFormat.Find("100000000000") != -1){// 

  00073	6a 00		 push	 0
  00075	68 00 00 00 00	 push	 OFFSET ??_C@_0N@NDBGNAOD@100000000000@
  0007a	8b cf		 mov	 ecx, edi
  0007c	ff 15 00 00 00
	00		 call	 DWORD PTR __imp_?Find@?$CStringT@DV?$StrTraitMFC_DLL@DV?$ChTraitsCRT@D@ATL@@@@@ATL@@QBEHPBDH@Z
  00082	83 f8 ff	 cmp	 eax, -1
  00085	74 0f		 je	 SHORT $LN4@GetChangeF

; 1281 : 		strNewFormat.Replace("100000000000", "");

  00087	68 00 00 00 00	 push	 OFFSET ??_C@_04KLOCBIHI@?C?$LF?$LO?o@
  0008c	68 00 00 00 00	 push	 OFFSET ??_C@_0N@NDBGNAOD@100000000000@

; 1282 : 	}

  00091	e9 e4 00 00 00	 jmp	 $LN23@GetChangeF
$LN4@GetChangeF:

; 1283 : 	else if(strOrgFormat.Find("10000000000") != -1){// 

  00096	6a 00		 push	 0
  00098	68 00 00 00 00	 push	 OFFSET ??_C@_0M@OGPNCIML@10000000000@
  0009d	8b cf		 mov	 ecx, edi
  0009f	ff 15 00 00 00
	00		 call	 DWORD PTR __imp_?Find@?$CStringT@DV?$StrTraitMFC_DLL@DV?$ChTraitsCRT@D@ATL@@@@@ATL@@QBEHPBDH@Z
  000a5	83 f8 ff	 cmp	 eax, -1
  000a8	74 0f		 je	 SHORT $LN6@GetChangeF

; 1284 : 		strNewFormat.Replace("10000000000", "");

  000aa	68 00 00 00 00	 push	 OFFSET ??_C@_04JJFLFAAM@?$LJ?i?$LO?o@
  000af	68 00 00 00 00	 push	 OFFSET ??_C@_0M@OGPNCIML@10000000000@

; 1285 : 	}

  000b4	e9 c1 00 00 00	 jmp	 $LN23@GetChangeF
$LN6@GetChangeF:

; 1286 : 	else if(strOrgFormat.Find("1000000000") != -1){	// 

  000b9	6a 00		 push	 0
  000bb	68 00 00 00 00	 push	 OFFSET ??_C@_0L@LIKNPKOD@1000000000@
  000c0	8b cf		 mov	 ecx, edi
  000c2	ff 15 00 00 00
	00		 call	 DWORD PTR __imp_?Find@?$CStringT@DV?$StrTraitMFC_DLL@DV?$ChTraitsCRT@D@ATL@@@@@ATL@@QBEHPBDH@Z
  000c8	83 f8 ff	 cmp	 eax, -1
  000cb	74 0f		 je	 SHORT $LN8@GetChangeF

; 1287 : 		strNewFormat.Replace("1000000000", "");

  000cd	68 00 00 00 00	 push	 OFFSET ??_C@_04NOFMPGBM@?$LN?J?$LO?o@
  000d2	68 00 00 00 00	 push	 OFFSET ??_C@_0L@LIKNPKOD@1000000000@

; 1288 : 	}

  000d7	e9 9e 00 00 00	 jmp	 $LN23@GetChangeF
$LN8@GetChangeF:

; 1289 : 	else if(strOrgFormat.Find("100000000") != -1){	// 

  000dc	6a 00		 push	 0
  000de	68 00 00 00 00	 push	 OFFSET ??_C@_09DGIGNMJL@100000000@
  000e3	8b cf		 mov	 ecx, edi
  000e5	ff 15 00 00 00
	00		 call	 DWORD PTR __imp_?Find@?$CStringT@DV?$StrTraitMFC_DLL@DV?$ChTraitsCRT@D@ATL@@@@@ATL@@QBEHPBDH@Z
  000eb	83 f8 ff	 cmp	 eax, -1
  000ee	74 0c		 je	 SHORT $LN10@GetChangeF

; 1290 : 		strNewFormat.Replace("100000000", "");

  000f0	68 00 00 00 00	 push	 OFFSET ??_C@_02BGJIBKNE@?$LO?o@
  000f5	68 00 00 00 00	 push	 OFFSET ??_C@_09DGIGNMJL@100000000@

; 1291 : 	}

  000fa	eb 7e		 jmp	 SHORT $LN23@GetChangeF
$LN10@GetChangeF:

; 1292 : 	else if(strOrgFormat.Find("10000000") != -1){	// 

  000fc	6a 00		 push	 0
  000fe	68 00 00 00 00	 push	 OFFSET ??_C@_08KDEPFNAG@10000000@
  00103	8b cf		 mov	 ecx, edi
  00105	ff 15 00 00 00
	00		 call	 DWORD PTR __imp_?Find@?$CStringT@DV?$StrTraitMFC_DLL@DV?$ChTraitsCRT@D@ATL@@@@@ATL@@QBEHPBDH@Z
  0010b	83 f8 ff	 cmp	 eax, -1
  0010e	74 0c		 je	 SHORT $LN12@GetChangeF

; 1293 : 		strNewFormat.Replace("10000000", "");

  00110	68 00 00 00 00	 push	 OFFSET ??_C@_04FKJFKPFJ@?C?$LF?$LI?$LI@
  00115	68 00 00 00 00	 push	 OFFSET ??_C@_08KDEPFNAG@10000000@

; 1294 : 	}

  0011a	eb 5e		 jmp	 SHORT $LN23@GetChangeF
$LN12@GetChangeF:

; 1295 : 	else if(strOrgFormat.Find("1000000") != -1){	// 

  0011c	6a 00		 push	 0
  0011e	68 00 00 00 00	 push	 OFFSET ??_C@_07NFIEECMO@1000000@
  00123	8b cf		 mov	 ecx, edi
  00125	ff 15 00 00 00
	00		 call	 DWORD PTR __imp_?Find@?$CStringT@DV?$StrTraitMFC_DLL@DV?$ChTraitsCRT@D@ATL@@@@@ATL@@QBEHPBDH@Z
  0012b	83 f8 ff	 cmp	 eax, -1
  0012e	74 0c		 je	 SHORT $LN14@GetChangeF

; 1296 : 		strNewFormat.Replace("1000000", "");

  00130	68 00 00 00 00	 push	 OFFSET ??_C@_04GICMOHCN@?$LJ?i?$LI?$LI@
  00135	68 00 00 00 00	 push	 OFFSET ??_C@_07NFIEECMO@1000000@

; 1297 : 	}

  0013a	eb 3e		 jmp	 SHORT $LN23@GetChangeF
$LN14@GetChangeF:

; 1298 : 	else if(strOrgFormat.Find("100000") != -1){		// 

  0013c	6a 00		 push	 0
  0013e	68 00 00 00 00	 push	 OFFSET ??_C@_06MCNKBKIO@100000@
  00143	8b cf		 mov	 ecx, edi
  00145	ff 15 00 00 00
	00		 call	 DWORD PTR __imp_?Find@?$CStringT@DV?$StrTraitMFC_DLL@DV?$ChTraitsCRT@D@ATL@@@@@ATL@@QBEHPBDH@Z
  0014b	83 f8 ff	 cmp	 eax, -1
  0014e	74 0c		 je	 SHORT $LN16@GetChangeF

; 1299 : 		strNewFormat.Replace("100000", "");

  00150	68 00 00 00 00	 push	 OFFSET ??_C@_04CPCLEBDN@?$LN?J?$LI?$LI@
  00155	68 00 00 00 00	 push	 OFFSET ??_C@_06MCNKBKIO@100000@

; 1300 : 	}

  0015a	eb 1e		 jmp	 SHORT $LN23@GetChangeF
$LN16@GetChangeF:

; 1301 : 	else if(strOrgFormat.Find("10000") != -1){		// 

  0015c	6a 00		 push	 0
  0015e	68 00 00 00 00	 push	 OFFSET ??_C@_05CLDMBJBA@10000@
  00163	8b cf		 mov	 ecx, edi
  00165	ff 15 00 00 00
	00		 call	 DWORD PTR __imp_?Find@?$CStringT@DV?$StrTraitMFC_DLL@DV?$ChTraitsCRT@D@ATL@@@@@ATL@@QBEHPBDH@Z
  0016b	83 f8 ff	 cmp	 eax, -1
  0016e	74 12		 je	 SHORT $LN18@GetChangeF

; 1302 : 		strNewFormat.Replace("10000", "");

  00170	68 00 00 00 00	 push	 OFFSET ??_C@_02OHOPKNPF@?$LI?$LI@
  00175	68 00 00 00 00	 push	 OFFSET ??_C@_05CLDMBJBA@10000@
$LN23@GetChangeF:

; 1303 : 	}
; 1304 : 
; 1305 : 	return strNewFormat;

  0017a	8b ce		 mov	 ecx, esi
  0017c	ff 15 00 00 00
	00		 call	 DWORD PTR __imp_?Replace@?$CStringT@DV?$StrTraitMFC_DLL@DV?$ChTraitsCRT@D@ATL@@@@@ATL@@QAEHPBD0@Z
$LN18@GetChangeF:
  00182	8b c6		 mov	 eax, esi

; 1306 : }

  00184	8b 4d f4	 mov	 ecx, DWORD PTR __$EHRec$[ebp]
  00187	64 89 0d 00 00
	00 00		 mov	 DWORD PTR fs:0, ecx
  0018e	59		 pop	 ecx
  0018f	5f		 pop	 edi
  00190	5e		 pop	 esi
  00191	8b e5		 mov	 esp, ebp
  00193	5d		 pop	 ebp
  00194	c3		 ret	 0
_TEXT	ENDS
;	COMDAT text$x
text$x	SEGMENT
__unwindfunclet$?GetChangeFormat_NumCharUnit@CDataConversion@@SA?AV?$CStringT@DV?$StrTraitMFC_DLL@DV?$ChTraitsCRT@D@ATL@@@@@ATL@@ABV23@@Z$0:
  00000	8b 45 f0	 mov	 eax, DWORD PTR $T2[ebp]
  00003	83 e0 01	 and	 eax, 1
  00006	0f 84 0d 00 00
	00		 je	 $LN21@GetChangeF
  0000c	83 65 f0 fe	 and	 DWORD PTR $T2[ebp], -2	; fffffffeH
  00010	8b 4d 08	 mov	 ecx, DWORD PTR ___$ReturnUdt$[ebp]
  00013	ff 25 00 00 00
	00		 jmp	 DWORD PTR __imp_??1?$CStringT@DV?$StrTraitMFC_DLL@DV?$ChTraitsCRT@D@ATL@@@@@ATL@@QAE@XZ
$LN21@GetChangeF:
  00019	c3		 ret	 0
  0001a	cc		 int	 3
  0001b	cc		 int	 3
  0001c	cc		 int	 3
  0001d	cc		 int	 3
  0001e	cc		 int	 3
__ehhandler$?GetChangeFormat_NumCharUnit@CDataConversion@@SA?AV?$CStringT@DV?$StrTraitMFC_DLL@DV?$ChTraitsCRT@D@ATL@@@@@ATL@@ABV23@@Z:
  0001f	90		 npad	 1
  00020	90		 npad	 1
  00021	8b 54 24 08	 mov	 edx, DWORD PTR [esp+8]
  00025	8d 42 0c	 lea	 eax, DWORD PTR [edx+12]
  00028	8b 4a f0	 mov	 ecx, DWORD PTR [edx-16]
  0002b	33 c8		 xor	 ecx, eax
  0002d	e8 00 00 00 00	 call	 @__security_check_cookie@4
  00032	b8 00 00 00 00	 mov	 eax, OFFSET __ehfuncinfo$?GetChangeFormat_NumCharUnit@CDataConversion@@SA?AV?$CStringT@DV?$StrTraitMFC_DLL@DV?$ChTraitsCRT@D@ATL@@@@@ATL@@ABV23@@Z
  00037	e9 00 00 00 00	 jmp	 ___CxxFrameHandler3
text$x	ENDS
?GetChangeFormat_NumCharUnit@CDataConversion@@SA?AV?$CStringT@DV?$StrTraitMFC_DLL@DV?$ChTraitsCRT@D@ATL@@@@@ATL@@ABV23@@Z ENDP ; CDataConversion::GetChangeFormat_NumCharUnit
; Function compile flags: /Ogtp
; File D:\git\src\IBK\IBK_DRFN\ProjSrc\SrcDrfn\Chart\chart_common\DataList\Conversion.cpp
;	COMDAT ?GetDataType@CDataConversion@@SANV?$CStringT@DV?$StrTraitMFC_DLL@DV?$ChTraitsCRT@D@ATL@@@@@ATL@@@Z
_TEXT	SEGMENT
$T2 = -20						; size = 8
__$EHRec$ = -12						; size = 12
_strDataType$ = 8					; size = 4
?GetDataType@CDataConversion@@SANV?$CStringT@DV?$StrTraitMFC_DLL@DV?$ChTraitsCRT@D@ATL@@@@@ATL@@@Z PROC ; CDataConversion::GetDataType, COMDAT

; 1262 : {

  00000	55		 push	 ebp
  00001	8b ec		 mov	 ebp, esp
  00003	6a ff		 push	 -1
  00005	68 00 00 00 00	 push	 __ehhandler$?GetDataType@CDataConversion@@SANV?$CStringT@DV?$StrTraitMFC_DLL@DV?$ChTraitsCRT@D@ATL@@@@@ATL@@@Z
  0000a	64 a1 00 00 00
	00		 mov	 eax, DWORD PTR fs:0
  00010	50		 push	 eax
  00011	83 ec 08	 sub	 esp, 8
  00014	a1 00 00 00 00	 mov	 eax, DWORD PTR ___security_cookie
  00019	33 c5		 xor	 eax, ebp
  0001b	50		 push	 eax
  0001c	8d 45 f4	 lea	 eax, DWORD PTR __$EHRec$[ebp]
  0001f	64 a3 00 00 00
	00		 mov	 DWORD PTR fs:0, eax

; 1263 : 	strDataType.Remove('%');

  00025	6a 25		 push	 37			; 00000025H
  00027	8d 4d 08	 lea	 ecx, DWORD PTR _strDataType$[ebp]
  0002a	c7 45 fc 00 00
	00 00		 mov	 DWORD PTR __$EHRec$[ebp+8], 0
  00031	ff 15 00 00 00
	00		 call	 DWORD PTR __imp_?Remove@?$CStringT@DV?$StrTraitMFC_DLL@DV?$ChTraitsCRT@D@ATL@@@@@ATL@@QAEHD@Z

; 1264 : 	strDataType.Remove('x');

  00037	6a 78		 push	 120			; 00000078H
  00039	8d 4d 08	 lea	 ecx, DWORD PTR _strDataType$[ebp]
  0003c	ff 15 00 00 00
	00		 call	 DWORD PTR __imp_?Remove@?$CStringT@DV?$StrTraitMFC_DLL@DV?$ChTraitsCRT@D@ATL@@@@@ATL@@QAEHD@Z

; 1265 : 	strDataType.Remove('X');

  00042	6a 58		 push	 88			; 00000058H
  00044	8d 4d 08	 lea	 ecx, DWORD PTR _strDataType$[ebp]
  00047	ff 15 00 00 00
	00		 call	 DWORD PTR __imp_?Remove@?$CStringT@DV?$StrTraitMFC_DLL@DV?$ChTraitsCRT@D@ATL@@@@@ATL@@QAEHD@Z

; 1266 : 	strDataType.Remove(',');

  0004d	6a 2c		 push	 44			; 0000002cH
  0004f	8d 4d 08	 lea	 ecx, DWORD PTR _strDataType$[ebp]
  00052	ff 15 00 00 00
	00		 call	 DWORD PTR __imp_?Remove@?$CStringT@DV?$StrTraitMFC_DLL@DV?$ChTraitsCRT@D@ATL@@@@@ATL@@QAEHD@Z

; 1267 : 	strDataType.Replace("", "");

  00058	68 00 00 00 00	 push	 OFFSET ??_C@_00CNPNBAHC@@
  0005d	68 00 00 00 00	 push	 OFFSET ??_C@_02LLFJKDMN@?$KB?$LP@
  00062	8d 4d 08	 lea	 ecx, DWORD PTR _strDataType$[ebp]
  00065	ff 15 00 00 00
	00		 call	 DWORD PTR __imp_?Replace@?$CStringT@DV?$StrTraitMFC_DLL@DV?$ChTraitsCRT@D@ATL@@@@@ATL@@QAEHPBD0@Z

; 1268 : 
; 1269 : 	return atof(strDataType);

  0006b	ff 75 08	 push	 DWORD PTR _strDataType$[ebp]
  0006e	ff 15 00 00 00
	00		 call	 DWORD PTR __imp__atof
  00074	83 c4 04	 add	 esp, 4
  00077	8d 4d 08	 lea	 ecx, DWORD PTR _strDataType$[ebp]
  0007a	dd 5d ec	 fstp	 QWORD PTR $T2[ebp]
  0007d	ff 15 00 00 00
	00		 call	 DWORD PTR __imp_??1?$CStringT@DV?$StrTraitMFC_DLL@DV?$ChTraitsCRT@D@ATL@@@@@ATL@@QAE@XZ
  00083	dd 45 ec	 fld	 QWORD PTR $T2[ebp]

; 1270 : }

  00086	8b 4d f4	 mov	 ecx, DWORD PTR __$EHRec$[ebp]
  00089	64 89 0d 00 00
	00 00		 mov	 DWORD PTR fs:0, ecx
  00090	59		 pop	 ecx
  00091	8b e5		 mov	 esp, ebp
  00093	5d		 pop	 ebp
  00094	c3		 ret	 0
_TEXT	ENDS
;	COMDAT text$x
text$x	SEGMENT
__unwindfunclet$?GetDataType@CDataConversion@@SANV?$CStringT@DV?$StrTraitMFC_DLL@DV?$ChTraitsCRT@D@ATL@@@@@ATL@@@Z$0:
  00000	8d 4d 08	 lea	 ecx, DWORD PTR _strDataType$[ebp]
  00003	ff 25 00 00 00
	00		 jmp	 DWORD PTR __imp_??1?$CStringT@DV?$StrTraitMFC_DLL@DV?$ChTraitsCRT@D@ATL@@@@@ATL@@QAE@XZ
  00009	cc		 int	 3
  0000a	cc		 int	 3
  0000b	cc		 int	 3
  0000c	cc		 int	 3
  0000d	cc		 int	 3
__ehhandler$?GetDataType@CDataConversion@@SANV?$CStringT@DV?$StrTraitMFC_DLL@DV?$ChTraitsCRT@D@ATL@@@@@ATL@@@Z:
  0000e	90		 npad	 1
  0000f	90		 npad	 1
  00010	8b 54 24 08	 mov	 edx, DWORD PTR [esp+8]
  00014	8d 42 0c	 lea	 eax, DWORD PTR [edx+12]
  00017	8b 4a f4	 mov	 ecx, DWORD PTR [edx-12]
  0001a	33 c8		 xor	 ecx, eax
  0001c	e8 00 00 00 00	 call	 @__security_check_cookie@4
  00021	b8 00 00 00 00	 mov	 eax, OFFSET __ehfuncinfo$?GetDataType@CDataConversion@@SANV?$CStringT@DV?$StrTraitMFC_DLL@DV?$ChTraitsCRT@D@ATL@@@@@ATL@@@Z
  00026	e9 00 00 00 00	 jmp	 ___CxxFrameHandler3
text$x	ENDS
?GetDataType@CDataConversion@@SANV?$CStringT@DV?$StrTraitMFC_DLL@DV?$ChTraitsCRT@D@ATL@@@@@ATL@@@Z ENDP ; CDataConversion::GetDataType
; Function compile flags: /Ogtp
; File D:\git\src\IBK\IBK_DRFN\ProjSrc\SrcDrfn\Chart\chart_common\DataList\Conversion.cpp
; File C:\Program Files (x86)\Microsoft Visual Studio\2019\Community\VC\Tools\MSVC\14.29.30133\atlmfc\include\atlsimpstr.h
; File D:\git\src\IBK\IBK_DRFN\ProjSrc\SrcDrfn\Chart\chart_common\DataList\Conversion.cpp
; File C:\Program Files (x86)\Microsoft Visual Studio\2019\Community\VC\Tools\MSVC\14.29.30133\atlmfc\include\atlsimpstr.h
; File D:\git\src\IBK\IBK_DRFN\ProjSrc\SrcDrfn\Chart\chart_common\DataList\Conversion.cpp
; File C:\Program Files (x86)\Microsoft Visual Studio\2019\Community\VC\Tools\MSVC\14.29.30133\atlmfc\include\atlsimpstr.h
; File D:\git\src\IBK\IBK_DRFN\ProjSrc\SrcDrfn\Chart\chart_common\DataList\Conversion.cpp
; File C:\Program Files (x86)\Microsoft Visual Studio\2019\Community\VC\Tools\MSVC\14.29.30133\atlmfc\include\atlsimpstr.h
; File D:\git\src\IBK\IBK_DRFN\ProjSrc\SrcDrfn\Chart\chart_common\DataList\Conversion.cpp
; File C:\Program Files (x86)\Microsoft Visual Studio\2019\Community\VC\Tools\MSVC\14.29.30133\atlmfc\include\atlsimpstr.h
; File D:\git\src\IBK\IBK_DRFN\ProjSrc\SrcDrfn\Chart\chart_common\DataList\Conversion.cpp
;	COMDAT ?GetDecimalDownCount@CDataConversion@@SAHABV?$CStringT@DV?$StrTraitMFC_DLL@DV?$ChTraitsCRT@D@ATL@@@@@ATL@@_N@Z
_TEXT	SEGMENT
_cData$2 = -24						; size = 1
$T3 = -20						; size = 4
_strRealData$4 = -16					; size = 4
__$EHRec$ = -12						; size = 12
_strType$ = 8						; size = 4
_strDecimalType$ = 8					; size = 4
_bIsCheckDigit$ = 12					; size = 1
?GetDecimalDownCount@CDataConversion@@SAHABV?$CStringT@DV?$StrTraitMFC_DLL@DV?$ChTraitsCRT@D@ATL@@@@@ATL@@_N@Z PROC ; CDataConversion::GetDecimalDownCount, COMDAT

; 1243 : {

  00000	55		 push	 ebp
  00001	8b ec		 mov	 ebp, esp
  00003	6a ff		 push	 -1
  00005	68 00 00 00 00	 push	 __ehhandler$?GetDecimalDownCount@CDataConversion@@SAHABV?$CStringT@DV?$StrTraitMFC_DLL@DV?$ChTraitsCRT@D@ATL@@@@@ATL@@_N@Z
  0000a	64 a1 00 00 00
	00		 mov	 eax, DWORD PTR fs:0
  00010	50		 push	 eax
  00011	83 ec 0c	 sub	 esp, 12			; 0000000cH
  00014	53		 push	 ebx
  00015	56		 push	 esi
  00016	57		 push	 edi
  00017	a1 00 00 00 00	 mov	 eax, DWORD PTR ___security_cookie
  0001c	33 c5		 xor	 eax, ebp
  0001e	50		 push	 eax
  0001f	8d 45 f4	 lea	 eax, DWORD PTR __$EHRec$[ebp]
  00022	64 a3 00 00 00
	00		 mov	 DWORD PTR fs:0, eax
; File C:\Program Files (x86)\Microsoft Visual Studio\2019\Community\VC\Tools\MSVC\14.29.30133\atlmfc\include\atlsimpstr.h

; 519  : 		return( GetData()->nDataLength );

  00028	8b 7d 08	 mov	 edi, DWORD PTR _strDecimalType$[ebp]
  0002b	8b 07		 mov	 eax, DWORD PTR [edi]

; 533  : 		return( GetLength() == 0 );

  0002d	83 78 f4 00	 cmp	 DWORD PTR [eax-12], 0
; File D:\git\src\IBK\IBK_DRFN\ProjSrc\SrcDrfn\Chart\chart_common\DataList\Conversion.cpp

; 1244 : 	if(strDecimalType.IsEmpty() || strDecimalType.Find('.') < 0)

  00031	0f 84 27 01 00
	00		 je	 $LN3@GetDecimal
  00037	6a 00		 push	 0
  00039	6a 2e		 push	 46			; 0000002eH
  0003b	8b cf		 mov	 ecx, edi
  0003d	ff 15 00 00 00
	00		 call	 DWORD PTR __imp_?Find@?$CStringT@DV?$StrTraitMFC_DLL@DV?$ChTraitsCRT@D@ATL@@@@@ATL@@QBEHDH@Z
  00043	85 c0		 test	 eax, eax
  00045	0f 88 13 01 00
	00		 js	 $LN3@GetDecimal

; 1246 : 
; 1247 : 	CString strType = strDecimalType;

  0004b	57		 push	 edi
  0004c	8d 4d 08	 lea	 ecx, DWORD PTR _strType$[ebp]
  0004f	ff 15 00 00 00
	00		 call	 DWORD PTR __imp_??0?$CStringT@DV?$StrTraitMFC_DLL@DV?$ChTraitsCRT@D@ATL@@@@@ATL@@QAE@ABV01@@Z

; 1248 : 	if(bIsCheckDigit)

  00055	80 7d 0c 00	 cmp	 BYTE PTR _bIsCheckDigit$[ebp], 0
  00059	c7 45 fc 00 00
	00 00		 mov	 DWORD PTR __$EHRec$[ebp+8], 0
  00060	0f 84 9b 00 00
	00		 je	 $LN4@GetDecimal
; File C:\Program Files (x86)\Microsoft Visual Studio\2019\Community\VC\Tools\MSVC\14.29.30133\atlmfc\include\atlsimpstr.h

; 519  : 		return( GetData()->nDataLength );

  00066	8b 07		 mov	 eax, DWORD PTR [edi]

; 533  : 		return( GetLength() == 0 );

  00068	83 78 f4 00	 cmp	 DWORD PTR [eax-12], 0
; File D:\git\src\IBK\IBK_DRFN\ProjSrc\SrcDrfn\Chart\chart_common\DataList\Conversion.cpp

; 237  : 	if(strData.IsEmpty())

  0006c	75 10		 jne	 SHORT $LN21@GetDecimal

; 238  : 		return "";

  0006e	68 00 00 00 00	 push	 OFFSET ??_C@_00CNPNBAHC@@
  00073	8d 4d ec	 lea	 ecx, DWORD PTR $T3[ebp]
  00076	ff 15 00 00 00
	00		 call	 DWORD PTR __imp_??0?$CStringT@DV?$StrTraitMFC_DLL@DV?$ChTraitsCRT@D@ATL@@@@@ATL@@QAE@PBD@Z
  0007c	eb 69		 jmp	 SHORT $LN17@GetDecimal
$LN21@GetDecimal:

; 239  : 
; 240  : 	CString strRealData;

  0007e	8d 4d f0	 lea	 ecx, DWORD PTR _strRealData$4[ebp]
  00081	ff 15 00 00 00
	00		 call	 DWORD PTR __imp_??0?$CStringT@DV?$StrTraitMFC_DLL@DV?$ChTraitsCRT@D@ATL@@@@@ATL@@QAE@XZ
; File C:\Program Files (x86)\Microsoft Visual Studio\2019\Community\VC\Tools\MSVC\14.29.30133\atlmfc\include\atlsimpstr.h

; 519  : 		return( GetData()->nDataLength );

  00087	8b 07		 mov	 eax, DWORD PTR [edi]
; File D:\git\src\IBK\IBK_DRFN\ProjSrc\SrcDrfn\Chart\chart_common\DataList\Conversion.cpp

; 241  : 	for(int nIndex = 0; nIndex < strData.GetLength(); nIndex++){

  00089	33 f6		 xor	 esi, esi
  0008b	c6 45 fc 01	 mov	 BYTE PTR __$EHRec$[ebp+8], 1
  0008f	39 70 f4	 cmp	 DWORD PTR [eax-12], esi
  00092	7e 3d		 jle	 SHORT $LN19@GetDecimal
  00094	8b 1d 00 00 00
	00		 mov	 ebx, DWORD PTR __imp__isdigit
  0009a	66 0f 1f 44 00
	00		 npad	 6
$LL20@GetDecimal:

; 242  : 		char cData = strData[nIndex];

  000a0	56		 push	 esi
  000a1	8b cf		 mov	 ecx, edi
  000a3	ff 15 00 00 00
	00		 call	 DWORD PTR __imp_??A?$CSimpleStringT@D$00@ATL@@QBEDH@Z
  000a9	88 45 e8	 mov	 BYTE PTR _cData$2[ebp], al

; 243  : 		if(cData == '.' || isdigit(cData) != 0)

  000ac	3c 2e		 cmp	 al, 46			; 0000002eH
  000ae	74 0d		 je	 SHORT $LN23@GetDecimal
  000b0	0f be c0	 movsx	 eax, al
  000b3	50		 push	 eax
  000b4	ff d3		 call	 ebx
  000b6	83 c4 04	 add	 esp, 4
  000b9	85 c0		 test	 eax, eax
  000bb	74 0c		 je	 SHORT $LN18@GetDecimal
$LN23@GetDecimal:

; 244  : 			strRealData += cData;

  000bd	ff 75 e8	 push	 DWORD PTR _cData$2[ebp]
  000c0	8d 4d f0	 lea	 ecx, DWORD PTR _strRealData$4[ebp]
  000c3	ff 15 00 00 00
	00		 call	 DWORD PTR __imp_??Y?$CStringT@DV?$StrTraitMFC_DLL@DV?$ChTraitsCRT@D@ATL@@@@@ATL@@QAEAAV01@D@Z
$LN18@GetDecimal:
; File C:\Program Files (x86)\Microsoft Visual Studio\2019\Community\VC\Tools\MSVC\14.29.30133\atlmfc\include\atlsimpstr.h

; 519  : 		return( GetData()->nDataLength );

  000c9	8b 07		 mov	 eax, DWORD PTR [edi]
; File D:\git\src\IBK\IBK_DRFN\ProjSrc\SrcDrfn\Chart\chart_common\DataList\Conversion.cpp

; 241  : 	for(int nIndex = 0; nIndex < strData.GetLength(); nIndex++){

  000cb	46		 inc	 esi
  000cc	3b 70 f4	 cmp	 esi, DWORD PTR [eax-12]
  000cf	7c cf		 jl	 SHORT $LL20@GetDecimal
$LN19@GetDecimal:

; 245  : 	}
; 246  : 	return strRealData;

  000d1	8d 45 f0	 lea	 eax, DWORD PTR _strRealData$4[ebp]
  000d4	50		 push	 eax
  000d5	8d 4d ec	 lea	 ecx, DWORD PTR $T3[ebp]
  000d8	ff 15 00 00 00
	00		 call	 DWORD PTR __imp_??0?$CStringT@DV?$StrTraitMFC_DLL@DV?$ChTraitsCRT@D@ATL@@@@@ATL@@QAE@ABV01@@Z
  000de	8d 4d f0	 lea	 ecx, DWORD PTR _strRealData$4[ebp]
  000e1	ff 15 00 00 00
	00		 call	 DWORD PTR __imp_??1?$CStringT@DV?$StrTraitMFC_DLL@DV?$ChTraitsCRT@D@ATL@@@@@ATL@@QAE@XZ
$LN17@GetDecimal:

; 1249 : 		strType = NormalNumberString(strDecimalType);

  000e7	8d 45 ec	 lea	 eax, DWORD PTR $T3[ebp]
  000ea	c6 45 fc 02	 mov	 BYTE PTR __$EHRec$[ebp+8], 2
  000ee	50		 push	 eax
  000ef	8d 4d 08	 lea	 ecx, DWORD PTR _strType$[ebp]
  000f2	ff 15 00 00 00
	00		 call	 DWORD PTR __imp_??4?$CStringT@DV?$StrTraitMFC_DLL@DV?$ChTraitsCRT@D@ATL@@@@@ATL@@QAEAAV01@ABV01@@Z
  000f8	8d 4d ec	 lea	 ecx, DWORD PTR $T3[ebp]
  000fb	ff 15 00 00 00
	00		 call	 DWORD PTR __imp_??1?$CStringT@DV?$StrTraitMFC_DLL@DV?$ChTraitsCRT@D@ATL@@@@@ATL@@QAE@XZ
$LN4@GetDecimal:

; 1250 : 
; 1251 : 	int nIndex = strType.Find(".");

  00101	6a 00		 push	 0
  00103	68 00 00 00 00	 push	 OFFSET ??_C@_01LFCBOECM@?4@
  00108	8d 4d 08	 lea	 ecx, DWORD PTR _strType$[ebp]
  0010b	ff 15 00 00 00
	00		 call	 DWORD PTR __imp_?Find@?$CStringT@DV?$StrTraitMFC_DLL@DV?$ChTraitsCRT@D@ATL@@@@@ATL@@QBEHPBDH@Z
; File C:\Program Files (x86)\Microsoft Visual Studio\2019\Community\VC\Tools\MSVC\14.29.30133\atlmfc\include\atlsimpstr.h

; 533  : 		return( GetLength() == 0 );

  00111	8b 4d 08	 mov	 ecx, DWORD PTR _strType$[ebp]
  00114	8b 71 f4	 mov	 esi, DWORD PTR [ecx-12]
  00117	85 f6		 test	 esi, esi
; File D:\git\src\IBK\IBK_DRFN\ProjSrc\SrcDrfn\Chart\chart_common\DataList\Conversion.cpp

; 1252 : 	if(strType.IsEmpty() || nIndex < 0)

  00119	74 24		 je	 SHORT $LN6@GetDecimal
  0011b	85 c0		 test	 eax, eax
  0011d	78 20		 js	 SHORT $LN6@GetDecimal

; 1253 : 		return 0;
; 1254 : 
; 1255 : 	return (strType.GetLength() - (nIndex +1));

  0011f	2b f0		 sub	 esi, eax
  00121	8d 4d 08	 lea	 ecx, DWORD PTR _strType$[ebp]
  00124	4e		 dec	 esi
  00125	ff 15 00 00 00
	00		 call	 DWORD PTR __imp_??1?$CStringT@DV?$StrTraitMFC_DLL@DV?$ChTraitsCRT@D@ATL@@@@@ATL@@QAE@XZ
  0012b	8b c6		 mov	 eax, esi

; 1256 : }

  0012d	8b 4d f4	 mov	 ecx, DWORD PTR __$EHRec$[ebp]
  00130	64 89 0d 00 00
	00 00		 mov	 DWORD PTR fs:0, ecx
  00137	59		 pop	 ecx
  00138	5f		 pop	 edi
  00139	5e		 pop	 esi
  0013a	5b		 pop	 ebx
  0013b	8b e5		 mov	 esp, ebp
  0013d	5d		 pop	 ebp
  0013e	c3		 ret	 0
$LN6@GetDecimal:

; 1253 : 		return 0;
; 1254 : 
; 1255 : 	return (strType.GetLength() - (nIndex +1));

  0013f	8d 4d 08	 lea	 ecx, DWORD PTR _strType$[ebp]
  00142	33 f6		 xor	 esi, esi
  00144	ff 15 00 00 00
	00		 call	 DWORD PTR __imp_??1?$CStringT@DV?$StrTraitMFC_DLL@DV?$ChTraitsCRT@D@ATL@@@@@ATL@@QAE@XZ
  0014a	8b c6		 mov	 eax, esi

; 1256 : }

  0014c	8b 4d f4	 mov	 ecx, DWORD PTR __$EHRec$[ebp]
  0014f	64 89 0d 00 00
	00 00		 mov	 DWORD PTR fs:0, ecx
  00156	59		 pop	 ecx
  00157	5f		 pop	 edi
  00158	5e		 pop	 esi
  00159	5b		 pop	 ebx
  0015a	8b e5		 mov	 esp, ebp
  0015c	5d		 pop	 ebp
  0015d	c3		 ret	 0
$LN3@GetDecimal:

; 1245 : 		return 0;

  0015e	33 c0		 xor	 eax, eax

; 1256 : }

  00160	8b 4d f4	 mov	 ecx, DWORD PTR __$EHRec$[ebp]
  00163	64 89 0d 00 00
	00 00		 mov	 DWORD PTR fs:0, ecx
  0016a	59		 pop	 ecx
  0016b	5f		 pop	 edi
  0016c	5e		 pop	 esi
  0016d	5b		 pop	 ebx
  0016e	8b e5		 mov	 esp, ebp
  00170	5d		 pop	 ebp
  00171	c3		 ret	 0
_TEXT	ENDS
;	COMDAT text$x
text$x	SEGMENT
__unwindfunclet$?GetDecimalDownCount@CDataConversion@@SAHABV?$CStringT@DV?$StrTraitMFC_DLL@DV?$ChTraitsCRT@D@ATL@@@@@ATL@@_N@Z$0:
  00000	8d 4d 08	 lea	 ecx, DWORD PTR _strType$[ebp]
  00003	ff 25 00 00 00
	00		 jmp	 DWORD PTR __imp_??1?$CStringT@DV?$StrTraitMFC_DLL@DV?$ChTraitsCRT@D@ATL@@@@@ATL@@QAE@XZ
__unwindfunclet$?GetDecimalDownCount@CDataConversion@@SAHABV?$CStringT@DV?$StrTraitMFC_DLL@DV?$ChTraitsCRT@D@ATL@@@@@ATL@@_N@Z$3:
  00009	8d 4d f0	 lea	 ecx, DWORD PTR _strRealData$4[ebp]
  0000c	ff 25 00 00 00
	00		 jmp	 DWORD PTR __imp_??1?$CStringT@DV?$StrTraitMFC_DLL@DV?$ChTraitsCRT@D@ATL@@@@@ATL@@QAE@XZ
__unwindfunclet$?GetDecimalDownCount@CDataConversion@@SAHABV?$CStringT@DV?$StrTraitMFC_DLL@DV?$ChTraitsCRT@D@ATL@@@@@ATL@@_N@Z$1:
  00012	8d 4d ec	 lea	 ecx, DWORD PTR $T3[ebp]
  00015	ff 25 00 00 00
	00		 jmp	 DWORD PTR __imp_??1?$CStringT@DV?$StrTraitMFC_DLL@DV?$ChTraitsCRT@D@ATL@@@@@ATL@@QAE@XZ
  0001b	cc		 int	 3
  0001c	cc		 int	 3
  0001d	cc		 int	 3
  0001e	cc		 int	 3
  0001f	cc		 int	 3
__ehhandler$?GetDecimalDownCount@CDataConversion@@SAHABV?$CStringT@DV?$StrTraitMFC_DLL@DV?$ChTraitsCRT@D@ATL@@@@@ATL@@_N@Z:
  00020	90		 npad	 1
  00021	90		 npad	 1
  00022	8b 54 24 08	 mov	 edx, DWORD PTR [esp+8]
  00026	8d 42 0c	 lea	 eax, DWORD PTR [edx+12]
  00029	8b 4a e4	 mov	 ecx, DWORD PTR [edx-28]
  0002c	33 c8		 xor	 ecx, eax
  0002e	e8 00 00 00 00	 call	 @__security_check_cookie@4
  00033	b8 00 00 00 00	 mov	 eax, OFFSET __ehfuncinfo$?GetDecimalDownCount@CDataConversion@@SAHABV?$CStringT@DV?$StrTraitMFC_DLL@DV?$ChTraitsCRT@D@ATL@@@@@ATL@@_N@Z
  00038	e9 00 00 00 00	 jmp	 ___CxxFrameHandler3
text$x	ENDS
?GetDecimalDownCount@CDataConversion@@SAHABV?$CStringT@DV?$StrTraitMFC_DLL@DV?$ChTraitsCRT@D@ATL@@@@@ATL@@_N@Z ENDP ; CDataConversion::GetDecimalDownCount
; Function compile flags: /Ogtp
; File D:\git\src\IBK\IBK_DRFN\ProjSrc\SrcDrfn\Chart\chart_common\DataList\Conversion.cpp
; File C:\Program Files (x86)\Microsoft Visual Studio\2019\Community\VC\Tools\MSVC\14.29.30133\atlmfc\include\atlsimpstr.h
; File D:\git\src\IBK\IBK_DRFN\ProjSrc\SrcDrfn\Chart\chart_common\DataList\Conversion.cpp
; File C:\Program Files (x86)\Microsoft Visual Studio\2019\Community\VC\Tools\MSVC\14.29.30133\atlmfc\include\atlsimpstr.h
; File D:\git\src\IBK\IBK_DRFN\ProjSrc\SrcDrfn\Chart\chart_common\DataList\Conversion.cpp
; File C:\Program Files (x86)\Microsoft Visual Studio\2019\Community\VC\Tools\MSVC\14.29.30133\atlmfc\include\atlsimpstr.h
; File D:\git\src\IBK\IBK_DRFN\ProjSrc\SrcDrfn\Chart\chart_common\DataList\Conversion.cpp
;	COMDAT ?FindIndex@CDataConversion@@SAHABV?$CStringT@DV?$StrTraitMFC_DLL@DV?$ChTraitsCRT@D@ATL@@@@@ATL@@0H@Z
_TEXT	SEGMENT
_orgData$ = 8						; size = 4
_findData$ = 12						; size = 4
_nFindDataCountIndex$ = 16				; size = 4
?FindIndex@CDataConversion@@SAHABV?$CStringT@DV?$StrTraitMFC_DLL@DV?$ChTraitsCRT@D@ATL@@@@@ATL@@0H@Z PROC ; CDataConversion::FindIndex, COMDAT

; 1223 : {

  00000	55		 push	 ebp
  00001	8b ec		 mov	 ebp, esp
  00003	53		 push	 ebx
; File C:\Program Files (x86)\Microsoft Visual Studio\2019\Community\VC\Tools\MSVC\14.29.30133\atlmfc\include\atlsimpstr.h

; 533  : 		return( GetLength() == 0 );

  00004	8b 5d 08	 mov	 ebx, DWORD PTR _orgData$[ebp]
; File D:\git\src\IBK\IBK_DRFN\ProjSrc\SrcDrfn\Chart\chart_common\DataList\Conversion.cpp

; 1223 : {

  00007	56		 push	 esi
  00008	57		 push	 edi
; File C:\Program Files (x86)\Microsoft Visual Studio\2019\Community\VC\Tools\MSVC\14.29.30133\atlmfc\include\atlsimpstr.h

; 533  : 		return( GetLength() == 0 );

  00009	8b 03		 mov	 eax, DWORD PTR [ebx]
  0000b	83 78 f4 00	 cmp	 DWORD PTR [eax-12], 0
; File D:\git\src\IBK\IBK_DRFN\ProjSrc\SrcDrfn\Chart\chart_common\DataList\Conversion.cpp

; 1224 : 	if(orgData.IsEmpty() || findData.IsEmpty() || nFindDataCountIndex < 0)

  0000f	74 34		 je	 SHORT $LN6@FindIndex
; File C:\Program Files (x86)\Microsoft Visual Studio\2019\Community\VC\Tools\MSVC\14.29.30133\atlmfc\include\atlsimpstr.h

; 533  : 		return( GetLength() == 0 );

  00011	8b 4d 0c	 mov	 ecx, DWORD PTR _findData$[ebp]
  00014	8b 01		 mov	 eax, DWORD PTR [ecx]
  00016	83 78 f4 00	 cmp	 DWORD PTR [eax-12], 0
; File D:\git\src\IBK\IBK_DRFN\ProjSrc\SrcDrfn\Chart\chart_common\DataList\Conversion.cpp

; 1224 : 	if(orgData.IsEmpty() || findData.IsEmpty() || nFindDataCountIndex < 0)

  0001a	74 29		 je	 SHORT $LN6@FindIndex
  0001c	8b 7d 10	 mov	 edi, DWORD PTR _nFindDataCountIndex$[ebp]
  0001f	85 ff		 test	 edi, edi
  00021	78 22		 js	 SHORT $LN6@FindIndex

; 1225 : 		return -1;
; 1226 : 
; 1227 : 	int nFindStartIndex = -1;

  00023	83 c8 ff	 or	 eax, -1

; 1228 : 	for(int nCount = 0; nCount <= nFindDataCountIndex; nCount++){

  00026	33 f6		 xor	 esi, esi
$LL4@FindIndex:

; 1229 : 		int nIndex = orgData.Find(findData, nFindStartIndex +1);

  00028	40		 inc	 eax
  00029	50		 push	 eax
  0002a	ff 31		 push	 DWORD PTR [ecx]
  0002c	8b cb		 mov	 ecx, ebx
  0002e	ff 15 00 00 00
	00		 call	 DWORD PTR __imp_?Find@?$CStringT@DV?$StrTraitMFC_DLL@DV?$ChTraitsCRT@D@ATL@@@@@ATL@@QBEHPBDH@Z

; 1230 : 		if(nIndex < 0)

  00034	85 c0		 test	 eax, eax
  00036	78 0d		 js	 SHORT $LN6@FindIndex

; 1228 : 	for(int nCount = 0; nCount <= nFindDataCountIndex; nCount++){

  00038	8b 4d 0c	 mov	 ecx, DWORD PTR _findData$[ebp]
  0003b	46		 inc	 esi
  0003c	3b f7		 cmp	 esi, edi
  0003e	7e e8		 jle	 SHORT $LL4@FindIndex

; 1231 : 			return -1;
; 1232 : 
; 1233 : 		nFindStartIndex = nIndex;
; 1234 : 	}
; 1235 : 
; 1236 : 	return nFindStartIndex;
; 1237 : }

  00040	5f		 pop	 edi
  00041	5e		 pop	 esi
  00042	5b		 pop	 ebx
  00043	5d		 pop	 ebp
  00044	c3		 ret	 0
$LN6@FindIndex:
  00045	5f		 pop	 edi
  00046	5e		 pop	 esi
  00047	83 c8 ff	 or	 eax, -1
  0004a	5b		 pop	 ebx
  0004b	5d		 pop	 ebp
  0004c	c3		 ret	 0
?FindIndex@CDataConversion@@SAHABV?$CStringT@DV?$StrTraitMFC_DLL@DV?$ChTraitsCRT@D@ATL@@@@@ATL@@0H@Z ENDP ; CDataConversion::FindIndex
_TEXT	ENDS
; Function compile flags: /Ogtp
; File D:\git\src\IBK\IBK_DRFN\ProjSrc\SrcDrfn\Chart\chart_common\DataList\Conversion.cpp
; File C:\Program Files (x86)\Microsoft Visual Studio\2019\Community\VC\Tools\MSVC\14.29.30133\atlmfc\include\atlsimpstr.h
; File D:\git\src\IBK\IBK_DRFN\ProjSrc\SrcDrfn\Chart\chart_common\DataList\Conversion.cpp
; File C:\Program Files (x86)\Microsoft Visual Studio\2019\Community\VC\Tools\MSVC\14.29.30133\atlmfc\include\atlsimpstr.h
; File D:\git\src\IBK\IBK_DRFN\ProjSrc\SrcDrfn\Chart\chart_common\DataList\Conversion.cpp
; File C:\Program Files (x86)\Microsoft Visual Studio\2019\Community\VC\Tools\MSVC\14.29.30133\atlmfc\include\cstringt.h
; File D:\git\src\IBK\IBK_DRFN\ProjSrc\SrcDrfn\Chart\chart_common\DataList\Conversion.cpp
; File C:\Program Files (x86)\Microsoft Visual Studio\2019\Community\VC\Tools\MSVC\14.29.30133\atlmfc\include\cstringt.h
; File D:\git\src\IBK\IBK_DRFN\ProjSrc\SrcDrfn\Chart\chart_common\DataList\Conversion.cpp
; File C:\Program Files (x86)\Microsoft Visual Studio\2019\Community\VC\Tools\MSVC\14.29.30133\atlmfc\include\cstringt.h
; File D:\git\src\IBK\IBK_DRFN\ProjSrc\SrcDrfn\Chart\chart_common\DataList\Conversion.cpp
;	COMDAT ?GetStringDataCount@CDataConversion@@SAHABV?$CStringT@DV?$StrTraitMFC_DLL@DV?$ChTraitsCRT@D@ATL@@@@@ATL@@0@Z
_TEXT	SEGMENT
_length$1$ = -24					; size = 4
_nMax$1$ = -20						; size = 4
$T2 = -16						; size = 4
__$EHRec$ = -12						; size = 12
_orgStr$ = 8						; size = 4
_comparisonStr$ = 12					; size = 4
?GetStringDataCount@CDataConversion@@SAHABV?$CStringT@DV?$StrTraitMFC_DLL@DV?$ChTraitsCRT@D@ATL@@@@@ATL@@0@Z PROC ; CDataConversion::GetStringDataCount, COMDAT

; 1203 : {

  00000	55		 push	 ebp
  00001	8b ec		 mov	 ebp, esp
  00003	6a ff		 push	 -1
  00005	68 00 00 00 00	 push	 __ehhandler$?GetStringDataCount@CDataConversion@@SAHABV?$CStringT@DV?$StrTraitMFC_DLL@DV?$ChTraitsCRT@D@ATL@@@@@ATL@@0@Z
  0000a	64 a1 00 00 00
	00		 mov	 eax, DWORD PTR fs:0
  00010	50		 push	 eax
  00011	83 ec 0c	 sub	 esp, 12			; 0000000cH
  00014	53		 push	 ebx
  00015	56		 push	 esi
  00016	57		 push	 edi
  00017	a1 00 00 00 00	 mov	 eax, DWORD PTR ___security_cookie
  0001c	33 c5		 xor	 eax, ebp
  0001e	50		 push	 eax
  0001f	8d 45 f4	 lea	 eax, DWORD PTR __$EHRec$[ebp]
  00022	64 a3 00 00 00
	00		 mov	 DWORD PTR fs:0, eax
; File C:\Program Files (x86)\Microsoft Visual Studio\2019\Community\VC\Tools\MSVC\14.29.30133\atlmfc\include\atlsimpstr.h

; 519  : 		return( GetData()->nDataLength );

  00028	8b 55 08	 mov	 edx, DWORD PTR _orgStr$[ebp]
  0002b	8b 02		 mov	 eax, DWORD PTR [edx]
  0002d	8b 48 f4	 mov	 ecx, DWORD PTR [eax-12]

; 533  : 		return( GetLength() == 0 );

  00030	85 c9		 test	 ecx, ecx
; File D:\git\src\IBK\IBK_DRFN\ProjSrc\SrcDrfn\Chart\chart_common\DataList\Conversion.cpp

; 1204 : 	if(orgStr.IsEmpty() != 0 || comparisonStr.IsEmpty() != 0)

  00032	74 75		 je	 SHORT $LN6@GetStringD
; File C:\Program Files (x86)\Microsoft Visual Studio\2019\Community\VC\Tools\MSVC\14.29.30133\atlmfc\include\atlsimpstr.h

; 519  : 		return( GetData()->nDataLength );

  00034	8b 7d 0c	 mov	 edi, DWORD PTR _comparisonStr$[ebp]
  00037	8b 07		 mov	 eax, DWORD PTR [edi]
  00039	8b 40 f4	 mov	 eax, DWORD PTR [eax-12]
  0003c	89 45 e8	 mov	 DWORD PTR _length$1$[ebp], eax

; 533  : 		return( GetLength() == 0 );

  0003f	85 c0		 test	 eax, eax
; File D:\git\src\IBK\IBK_DRFN\ProjSrc\SrcDrfn\Chart\chart_common\DataList\Conversion.cpp

; 1204 : 	if(orgStr.IsEmpty() != 0 || comparisonStr.IsEmpty() != 0)

  00041	74 66		 je	 SHORT $LN6@GetStringD

; 1206 : 
; 1207 : 	int count = 0;

  00043	33 db		 xor	 ebx, ebx

; 1208 : 	int length = comparisonStr.GetLength();
; 1209 : 	int nMax = orgStr.GetLength() - length;

  00045	2b c8		 sub	 ecx, eax
  00047	89 4d ec	 mov	 DWORD PTR _nMax$1$[ebp], ecx

; 1210 : 	for(int i = 0; i <= nMax; i++){

  0004a	8b f3		 mov	 esi, ebx
  0004c	78 47		 js	 SHORT $LN3@GetStringD
  0004e	66 90		 npad	 2
$LL4@GetStringD:

; 1211 : 		if(orgStr.Mid(i, length) == comparisonStr)

  00050	50		 push	 eax
  00051	56		 push	 esi
  00052	8d 45 f0	 lea	 eax, DWORD PTR $T2[ebp]
  00055	8b ca		 mov	 ecx, edx
  00057	50		 push	 eax
  00058	ff 15 00 00 00
	00		 call	 DWORD PTR __imp_?Mid@?$CStringT@DV?$StrTraitMFC_DLL@DV?$ChTraitsCRT@D@ATL@@@@@ATL@@QBE?AV12@HH@Z
; File C:\Program Files (x86)\Microsoft Visual Studio\2019\Community\VC\Tools\MSVC\14.29.30133\atlmfc\include\cstringt.h

; 2479 : 		return(str1.Compare(str2) == 0);

  0005e	ff 37		 push	 DWORD PTR [edi]
  00060	8b c8		 mov	 ecx, eax
; File D:\git\src\IBK\IBK_DRFN\ProjSrc\SrcDrfn\Chart\chart_common\DataList\Conversion.cpp

; 1211 : 		if(orgStr.Mid(i, length) == comparisonStr)

  00062	c7 45 fc 00 00
	00 00		 mov	 DWORD PTR __$EHRec$[ebp+8], 0
; File C:\Program Files (x86)\Microsoft Visual Studio\2019\Community\VC\Tools\MSVC\14.29.30133\atlmfc\include\cstringt.h

; 2479 : 		return(str1.Compare(str2) == 0);

  00069	ff 15 00 00 00
	00		 call	 DWORD PTR __imp_?Compare@?$CStringT@DV?$StrTraitMFC_DLL@DV?$ChTraitsCRT@D@ATL@@@@@ATL@@QBEHPBD@Z
; File D:\git\src\IBK\IBK_DRFN\ProjSrc\SrcDrfn\Chart\chart_common\DataList\Conversion.cpp

; 1211 : 		if(orgStr.Mid(i, length) == comparisonStr)

  0006f	8d 4d f0	 lea	 ecx, DWORD PTR $T2[ebp]
  00072	c7 45 fc ff ff
	ff ff		 mov	 DWORD PTR __$EHRec$[ebp+8], -1
; File C:\Program Files (x86)\Microsoft Visual Studio\2019\Community\VC\Tools\MSVC\14.29.30133\atlmfc\include\cstringt.h

; 2479 : 		return(str1.Compare(str2) == 0);

  00079	8b f8		 mov	 edi, eax
; File D:\git\src\IBK\IBK_DRFN\ProjSrc\SrcDrfn\Chart\chart_common\DataList\Conversion.cpp

; 1211 : 		if(orgStr.Mid(i, length) == comparisonStr)

  0007b	ff 15 00 00 00
	00		 call	 DWORD PTR __imp_??1?$CStringT@DV?$StrTraitMFC_DLL@DV?$ChTraitsCRT@D@ATL@@@@@ATL@@QAE@XZ
  00081	85 ff		 test	 edi, edi
  00083	75 01		 jne	 SHORT $LN2@GetStringD

; 1212 : 			count++;

  00085	43		 inc	 ebx
$LN2@GetStringD:

; 1210 : 	for(int i = 0; i <= nMax; i++){

  00086	8b 45 e8	 mov	 eax, DWORD PTR _length$1$[ebp]
  00089	46		 inc	 esi
  0008a	8b 55 08	 mov	 edx, DWORD PTR _orgStr$[ebp]
  0008d	8b 7d 0c	 mov	 edi, DWORD PTR _comparisonStr$[ebp]
  00090	3b 75 ec	 cmp	 esi, DWORD PTR _nMax$1$[ebp]
  00093	7e bb		 jle	 SHORT $LL4@GetStringD
$LN3@GetStringD:

; 1213 : 	}
; 1214 : 
; 1215 : 	return count;

  00095	8b c3		 mov	 eax, ebx

; 1216 : }

  00097	8b 4d f4	 mov	 ecx, DWORD PTR __$EHRec$[ebp]
  0009a	64 89 0d 00 00
	00 00		 mov	 DWORD PTR fs:0, ecx
  000a1	59		 pop	 ecx
  000a2	5f		 pop	 edi
  000a3	5e		 pop	 esi
  000a4	5b		 pop	 ebx
  000a5	8b e5		 mov	 esp, ebp
  000a7	5d		 pop	 ebp
  000a8	c3		 ret	 0
$LN6@GetStringD:

; 1205 : 		return -1;

  000a9	83 c8 ff	 or	 eax, -1

; 1216 : }

  000ac	8b 4d f4	 mov	 ecx, DWORD PTR __$EHRec$[ebp]
  000af	64 89 0d 00 00
	00 00		 mov	 DWORD PTR fs:0, ecx
  000b6	59		 pop	 ecx
  000b7	5f		 pop	 edi
  000b8	5e		 pop	 esi
  000b9	5b		 pop	 ebx
  000ba	8b e5		 mov	 esp, ebp
  000bc	5d		 pop	 ebp
  000bd	c3		 ret	 0
_TEXT	ENDS
;	COMDAT text$x
text$x	SEGMENT
__unwindfunclet$?GetStringDataCount@CDataConversion@@SAHABV?$CStringT@DV?$StrTraitMFC_DLL@DV?$ChTraitsCRT@D@ATL@@@@@ATL@@0@Z$0:
  00000	8d 4d f0	 lea	 ecx, DWORD PTR $T2[ebp]
  00003	ff 25 00 00 00
	00		 jmp	 DWORD PTR __imp_??1?$CStringT@DV?$StrTraitMFC_DLL@DV?$ChTraitsCRT@D@ATL@@@@@ATL@@QAE@XZ
  00009	cc		 int	 3
  0000a	cc		 int	 3
  0000b	cc		 int	 3
  0000c	cc		 int	 3
  0000d	cc		 int	 3
__ehhandler$?GetStringDataCount@CDataConversion@@SAHABV?$CStringT@DV?$StrTraitMFC_DLL@DV?$ChTraitsCRT@D@ATL@@@@@ATL@@0@Z:
  0000e	90		 npad	 1
  0000f	90		 npad	 1
  00010	8b 54 24 08	 mov	 edx, DWORD PTR [esp+8]
  00014	8d 42 0c	 lea	 eax, DWORD PTR [edx+12]
  00017	8b 4a e4	 mov	 ecx, DWORD PTR [edx-28]
  0001a	33 c8		 xor	 ecx, eax
  0001c	e8 00 00 00 00	 call	 @__security_check_cookie@4
  00021	b8 00 00 00 00	 mov	 eax, OFFSET __ehfuncinfo$?GetStringDataCount@CDataConversion@@SAHABV?$CStringT@DV?$StrTraitMFC_DLL@DV?$ChTraitsCRT@D@ATL@@@@@ATL@@0@Z
  00026	e9 00 00 00 00	 jmp	 ___CxxFrameHandler3
text$x	ENDS
?GetStringDataCount@CDataConversion@@SAHABV?$CStringT@DV?$StrTraitMFC_DLL@DV?$ChTraitsCRT@D@ATL@@@@@ATL@@0@Z ENDP ; CDataConversion::GetStringDataCount
; Function compile flags: /Ogtp
; File D:\git\src\IBK\IBK_DRFN\ProjSrc\SrcDrfn\Chart\chart_common\DataList\Conversion.cpp
; File C:\Program Files (x86)\Microsoft Visual Studio\2019\Community\VC\Tools\MSVC\14.29.30133\atlmfc\include\atlsimpstr.h
; File D:\git\src\IBK\IBK_DRFN\ProjSrc\SrcDrfn\Chart\chart_common\DataList\Conversion.cpp
; File C:\Program Files (x86)\Microsoft Visual Studio\2019\Community\VC\Tools\MSVC\14.29.30133\atlmfc\include\atlsimpstr.h
; File D:\git\src\IBK\IBK_DRFN\ProjSrc\SrcDrfn\Chart\chart_common\DataList\Conversion.cpp
; File C:\Program Files (x86)\Microsoft Visual Studio\2019\Community\VC\Tools\MSVC\14.29.30133\atlmfc\include\atlsimpstr.h
; File D:\git\src\IBK\IBK_DRFN\ProjSrc\SrcDrfn\Chart\chart_common\DataList\Conversion.cpp
; File C:\Program Files (x86)\Microsoft Visual Studio\2019\Community\VC\Tools\MSVC\14.29.30133\atlmfc\include\atlsimpstr.h
; File D:\git\src\IBK\IBK_DRFN\ProjSrc\SrcDrfn\Chart\chart_common\DataList\Conversion.cpp
;	COMDAT ?GetMidToTrimDataIndex@CDataConversion@@SA?AV?$CStringT@DV?$StrTraitMFC_DLL@DV?$ChTraitsCRT@D@ATL@@@@@ATL@@ABV23@00H_N@Z
_TEXT	SEGMENT
___$ReturnUdt$ = 8					; size = 4
_data$ = 12						; size = 4
_trimStart$ = 16					; size = 4
_trimEnd$ = 20						; size = 4
_nStartIndex$ = 24					; size = 4
_bIsInside$ = 28					; size = 1
?GetMidToTrimDataIndex@CDataConversion@@SA?AV?$CStringT@DV?$StrTraitMFC_DLL@DV?$ChTraitsCRT@D@ATL@@@@@ATL@@ABV23@00H_N@Z PROC ; CDataConversion::GetMidToTrimDataIndex, COMDAT

; 1173 : {

  00000	55		 push	 ebp
  00001	8b ec		 mov	 ebp, esp
  00003	53		 push	 ebx
  00004	56		 push	 esi
  00005	57		 push	 edi
; File C:\Program Files (x86)\Microsoft Visual Studio\2019\Community\VC\Tools\MSVC\14.29.30133\atlmfc\include\atlsimpstr.h

; 533  : 		return( GetLength() == 0 );

  00006	8b 7d 0c	 mov	 edi, DWORD PTR _data$[ebp]
  00009	8b 07		 mov	 eax, DWORD PTR [edi]
  0000b	83 78 f4 00	 cmp	 DWORD PTR [eax-12], 0
; File D:\git\src\IBK\IBK_DRFN\ProjSrc\SrcDrfn\Chart\chart_common\DataList\Conversion.cpp

; 1174 : 	if(data.IsEmpty())

  0000f	74 71		 je	 SHORT $LN6@GetMidToTr

; 1175 : 		return "";
; 1176 : 
; 1177 : 	// trim   .
; 1178 : 	//  trim  null      .
; 1179 : 	int nFindIndex_trimStart = FindIndex(data, trimStart, nStartIndex);

  00011	ff 75 18	 push	 DWORD PTR _nStartIndex$[ebp]
  00014	8b 5d 10	 mov	 ebx, DWORD PTR _trimStart$[ebp]
  00017	53		 push	 ebx
  00018	57		 push	 edi
  00019	e8 00 00 00 00	 call	 ?FindIndex@CDataConversion@@SAHABV?$CStringT@DV?$StrTraitMFC_DLL@DV?$ChTraitsCRT@D@ATL@@@@@ATL@@0H@Z ; CDataConversion::FindIndex
  0001e	8b f0		 mov	 esi, eax
  00020	83 c4 0c	 add	 esp, 12			; 0000000cH
; File C:\Program Files (x86)\Microsoft Visual Studio\2019\Community\VC\Tools\MSVC\14.29.30133\atlmfc\include\atlsimpstr.h

; 519  : 		return( GetData()->nDataLength );

  00023	8b 45 14	 mov	 eax, DWORD PTR _trimEnd$[ebp]
  00026	8b 08		 mov	 ecx, DWORD PTR [eax]

; 533  : 		return( GetLength() == 0 );

  00028	83 79 f4 00	 cmp	 DWORD PTR [ecx-12], 0
; File D:\git\src\IBK\IBK_DRFN\ProjSrc\SrcDrfn\Chart\chart_common\DataList\Conversion.cpp

; 1181 : 	if(trimEnd.IsEmpty())

  0002c	75 07		 jne	 SHORT $LN3@GetMidToTr
; File C:\Program Files (x86)\Microsoft Visual Studio\2019\Community\VC\Tools\MSVC\14.29.30133\atlmfc\include\atlsimpstr.h

; 519  : 		return( GetData()->nDataLength );

  0002e	8b 0f		 mov	 ecx, DWORD PTR [edi]
  00030	8b 49 f4	 mov	 ecx, DWORD PTR [ecx-12]
; File D:\git\src\IBK\IBK_DRFN\ProjSrc\SrcDrfn\Chart\chart_common\DataList\Conversion.cpp

; 1182 : 		nFindIndex_trimEnd = data.GetLength();

  00033	eb 16		 jmp	 SHORT $LN4@GetMidToTr
$LN3@GetMidToTr:
; File C:\Program Files (x86)\Microsoft Visual Studio\2019\Community\VC\Tools\MSVC\14.29.30133\atlmfc\include\atlsimpstr.h

; 519  : 		return( GetData()->nDataLength );

  00035	8b 03		 mov	 eax, DWORD PTR [ebx]
  00037	8b 40 f4	 mov	 eax, DWORD PTR [eax-12]
; File D:\git\src\IBK\IBK_DRFN\ProjSrc\SrcDrfn\Chart\chart_common\DataList\Conversion.cpp

; 1184 : 		nFindIndex_trimEnd = data.Find(trimEnd, nFindIndex_trimStart +trimStart.GetLength());

  0003a	03 c6		 add	 eax, esi
  0003c	50		 push	 eax
  0003d	51		 push	 ecx
  0003e	8b cf		 mov	 ecx, edi
  00040	ff 15 00 00 00
	00		 call	 DWORD PTR __imp_?Find@?$CStringT@DV?$StrTraitMFC_DLL@DV?$ChTraitsCRT@D@ATL@@@@@ATL@@QBEHPBDH@Z
  00046	8b c8		 mov	 ecx, eax
  00048	8b 45 14	 mov	 eax, DWORD PTR _trimEnd$[ebp]
$LN4@GetMidToTr:

; 1185 : 
; 1186 : 	if(nFindIndex_trimStart < 0 || nFindIndex_trimEnd < 0)

  0004b	85 f6		 test	 esi, esi
  0004d	78 33		 js	 SHORT $LN6@GetMidToTr
  0004f	85 c9		 test	 ecx, ecx
  00051	78 2f		 js	 SHORT $LN6@GetMidToTr

; 1188 : 
; 1189 : 	//  string   .
; 1190 : 	int nFirst = nFindIndex_trimStart;
; 1191 : 	if(bIsInside)

  00053	80 7d 1c 00	 cmp	 BYTE PTR _bIsInside$[ebp], 0
  00057	74 0b		 je	 SHORT $LN7@GetMidToTr

; 1192 : 		nFirst += trimStart.GetLength();

  00059	8b 03		 mov	 eax, DWORD PTR [ebx]
  0005b	8b 40 f4	 mov	 eax, DWORD PTR [eax-12]
  0005e	03 c6		 add	 eax, esi
  00060	2b c8		 sub	 ecx, eax
  00062	eb 09		 jmp	 SHORT $LN8@GetMidToTr
$LN7@GetMidToTr:

; 1193 : 
; 1194 : 	int nCount = nFindIndex_trimEnd - nFirst;
; 1195 : 	if(!bIsInside)
; 1196 : 		nCount += trimEnd.GetLength();

  00064	8b 00		 mov	 eax, DWORD PTR [eax]
  00066	2b ce		 sub	 ecx, esi
  00068	03 48 f4	 add	 ecx, DWORD PTR [eax-12]
  0006b	8b c6		 mov	 eax, esi
$LN8@GetMidToTr:

; 1197 : 
; 1198 : 	return data.Mid(nFirst, nCount);

  0006d	8b 75 08	 mov	 esi, DWORD PTR ___$ReturnUdt$[ebp]
  00070	51		 push	 ecx
  00071	50		 push	 eax
  00072	56		 push	 esi
  00073	8b cf		 mov	 ecx, edi
  00075	ff 15 00 00 00
	00		 call	 DWORD PTR __imp_?Mid@?$CStringT@DV?$StrTraitMFC_DLL@DV?$ChTraitsCRT@D@ATL@@@@@ATL@@QBE?AV12@HH@Z
  0007b	5f		 pop	 edi
  0007c	8b c6		 mov	 eax, esi

; 1199 : }

  0007e	5e		 pop	 esi
  0007f	5b		 pop	 ebx
  00080	5d		 pop	 ebp
  00081	c3		 ret	 0
$LN6@GetMidToTr:

; 1187 : 		return "";

  00082	8b 4d 08	 mov	 ecx, DWORD PTR ___$ReturnUdt$[ebp]
  00085	68 00 00 00 00	 push	 OFFSET ??_C@_00CNPNBAHC@@
  0008a	ff 15 00 00 00
	00		 call	 DWORD PTR __imp_??0?$CStringT@DV?$StrTraitMFC_DLL@DV?$ChTraitsCRT@D@ATL@@@@@ATL@@QAE@PBD@Z
  00090	8b 45 08	 mov	 eax, DWORD PTR ___$ReturnUdt$[ebp]
  00093	5f		 pop	 edi

; 1199 : }

  00094	5e		 pop	 esi
  00095	5b		 pop	 ebx
  00096	5d		 pop	 ebp
  00097	c3		 ret	 0
?GetMidToTrimDataIndex@CDataConversion@@SA?AV?$CStringT@DV?$StrTraitMFC_DLL@DV?$ChTraitsCRT@D@ATL@@@@@ATL@@ABV23@00H_N@Z ENDP ; CDataConversion::GetMidToTrimDataIndex
_TEXT	ENDS
; Function compile flags: /Ogtp
; File D:\git\src\IBK\IBK_DRFN\ProjSrc\SrcDrfn\Chart\chart_common\DataList\Conversion.cpp
; File C:\Program Files (x86)\Microsoft Visual Studio\2019\Community\VC\Tools\MSVC\14.29.30133\atlmfc\include\atlsimpstr.h
; File D:\git\src\IBK\IBK_DRFN\ProjSrc\SrcDrfn\Chart\chart_common\DataList\Conversion.cpp
; File C:\Program Files (x86)\Microsoft Visual Studio\2019\Community\VC\Tools\MSVC\14.29.30133\atlmfc\include\cstringt.h
; File D:\git\src\IBK\IBK_DRFN\ProjSrc\SrcDrfn\Chart\chart_common\DataList\Conversion.cpp
; File C:\Program Files (x86)\Microsoft Visual Studio\2019\Community\VC\Tools\MSVC\14.29.30133\atlmfc\include\cstringt.h
; File D:\git\src\IBK\IBK_DRFN\ProjSrc\SrcDrfn\Chart\chart_common\DataList\Conversion.cpp
; File C:\Program Files (x86)\Microsoft Visual Studio\2019\Community\VC\Tools\MSVC\14.29.30133\atlmfc\include\cstringt.h
; File D:\git\src\IBK\IBK_DRFN\ProjSrc\SrcDrfn\Chart\chart_common\DataList\Conversion.cpp
;	COMDAT ?GetMidToTrimDataIndex@CDataConversion@@SA?AV?$CStringT@DV?$StrTraitMFC_DLL@DV?$ChTraitsCRT@D@ATL@@@@@ATL@@ABV23@0H_N@Z
_TEXT	SEGMENT
$T2 = -24						; size = 4
$T3 = -20						; size = 4
$T4 = -13						; size = 1
__$EHRec$ = -12						; size = 12
___$ReturnUdt$ = 8					; size = 4
_data$ = 12						; size = 4
_trimStr$ = 16						; size = 4
_nEndIndex$ = 20					; size = 4
_bIsInside$ = 24					; size = 1
?GetMidToTrimDataIndex@CDataConversion@@SA?AV?$CStringT@DV?$StrTraitMFC_DLL@DV?$ChTraitsCRT@D@ATL@@@@@ATL@@ABV23@0H_N@Z PROC ; CDataConversion::GetMidToTrimDataIndex, COMDAT

; 1165 : {

  00000	55		 push	 ebp
  00001	8b ec		 mov	 ebp, esp
  00003	6a ff		 push	 -1
  00005	68 00 00 00 00	 push	 __ehhandler$?GetMidToTrimDataIndex@CDataConversion@@SA?AV?$CStringT@DV?$StrTraitMFC_DLL@DV?$ChTraitsCRT@D@ATL@@@@@ATL@@ABV23@0H_N@Z
  0000a	64 a1 00 00 00
	00		 mov	 eax, DWORD PTR fs:0
  00010	50		 push	 eax
  00011	83 ec 0c	 sub	 esp, 12			; 0000000cH
  00014	53		 push	 ebx
  00015	56		 push	 esi
  00016	57		 push	 edi
  00017	a1 00 00 00 00	 mov	 eax, DWORD PTR ___security_cookie
  0001c	33 c5		 xor	 eax, ebp
  0001e	50		 push	 eax
  0001f	8d 45 f4	 lea	 eax, DWORD PTR __$EHRec$[ebp]
  00022	64 a3 00 00 00
	00		 mov	 DWORD PTR fs:0, eax

; 1136 : 	int nFindIndex = FindIndex(data, trimStr, nEndIndex);

  00028	ff 75 14	 push	 DWORD PTR _nEndIndex$[ebp]
  0002b	8b 5d 10	 mov	 ebx, DWORD PTR _trimStr$[ebp]
  0002e	53		 push	 ebx
  0002f	ff 75 0c	 push	 DWORD PTR _data$[ebp]

; 1165 : {

  00032	c7 45 ec 00 00
	00 00		 mov	 DWORD PTR $T3[ebp], 0

; 1136 : 	int nFindIndex = FindIndex(data, trimStr, nEndIndex);

  00039	e8 00 00 00 00	 call	 ?FindIndex@CDataConversion@@SAHABV?$CStringT@DV?$StrTraitMFC_DLL@DV?$ChTraitsCRT@D@ATL@@@@@ATL@@0H@Z ; CDataConversion::FindIndex
  0003e	8b f0		 mov	 esi, eax
  00040	83 c4 0c	 add	 esp, 12			; 0000000cH

; 1137 : 	if(nFindIndex < 0)

  00043	85 f6		 test	 esi, esi
  00045	79 23		 jns	 SHORT $LN6@GetMidToTr

; 1138 : 		return "";

  00047	8b 4d 08	 mov	 ecx, DWORD PTR ___$ReturnUdt$[ebp]
  0004a	68 00 00 00 00	 push	 OFFSET ??_C@_00CNPNBAHC@@
  0004f	ff 15 00 00 00
	00		 call	 DWORD PTR __imp_??0?$CStringT@DV?$StrTraitMFC_DLL@DV?$ChTraitsCRT@D@ATL@@@@@ATL@@QAE@PBD@Z

; 1166 : 	return GetMidToTrimDataEndIndex(data, trimStr, nEndIndex, true, bIsInside);

  00055	8b 45 08	 mov	 eax, DWORD PTR ___$ReturnUdt$[ebp]

; 1167 : }

  00058	8b 4d f4	 mov	 ecx, DWORD PTR __$EHRec$[ebp]
  0005b	64 89 0d 00 00
	00 00		 mov	 DWORD PTR fs:0, ecx
  00062	59		 pop	 ecx
  00063	5f		 pop	 edi
  00064	5e		 pop	 esi
  00065	5b		 pop	 ebx
  00066	8b e5		 mov	 esp, ebp
  00068	5d		 pop	 ebp
  00069	c3		 ret	 0
$LN6@GetMidToTr:

; 1142 : 	if(nEndIndex > 0)

  0006a	8b 45 14	 mov	 eax, DWORD PTR _nEndIndex$[ebp]
  0006d	33 ff		 xor	 edi, edi
  0006f	85 c0		 test	 eax, eax
  00071	7e 14		 jle	 SHORT $LN35@GetMidToTr

; 1143 : 		nFirst = FindIndex(data, trimStr, nEndIndex -1);

  00073	48		 dec	 eax
  00074	50		 push	 eax
  00075	53		 push	 ebx
  00076	ff 75 0c	 push	 DWORD PTR _data$[ebp]
  00079	e8 00 00 00 00	 call	 ?FindIndex@CDataConversion@@SAHABV?$CStringT@DV?$StrTraitMFC_DLL@DV?$ChTraitsCRT@D@ATL@@@@@ATL@@0H@Z ; CDataConversion::FindIndex
  0007e	8b f8		 mov	 edi, eax
  00080	83 c4 0c	 add	 esp, 12			; 0000000cH

; 1148 : 		if(nFirst > 0 || data.Left(trimStr.GetLength()) == trimStr){

  00083	85 ff		 test	 edi, edi
  00085	7f 32		 jg	 SHORT $LN12@GetMidToTr
$LN35@GetMidToTr:
; File C:\Program Files (x86)\Microsoft Visual Studio\2019\Community\VC\Tools\MSVC\14.29.30133\atlmfc\include\atlsimpstr.h

; 519  : 		return( GetData()->nDataLength );

  00087	8b 0b		 mov	 ecx, DWORD PTR [ebx]
; File D:\git\src\IBK\IBK_DRFN\ProjSrc\SrcDrfn\Chart\chart_common\DataList\Conversion.cpp

; 1148 : 		if(nFirst > 0 || data.Left(trimStr.GetLength()) == trimStr){

  00089	8d 45 e8	 lea	 eax, DWORD PTR $T2[ebp]
  0008c	ff 71 f4	 push	 DWORD PTR [ecx-12]
  0008f	8b 4d 0c	 mov	 ecx, DWORD PTR _data$[ebp]
  00092	50		 push	 eax
  00093	ff 15 00 00 00
	00		 call	 DWORD PTR __imp_?Left@?$CStringT@DV?$StrTraitMFC_DLL@DV?$ChTraitsCRT@D@ATL@@@@@ATL@@QBE?AV12@H@Z
  00099	c7 45 ec 04 00
	00 00		 mov	 DWORD PTR $T3[ebp], 4
; File C:\Program Files (x86)\Microsoft Visual Studio\2019\Community\VC\Tools\MSVC\14.29.30133\atlmfc\include\cstringt.h

; 2479 : 		return(str1.Compare(str2) == 0);

  000a0	8b c8		 mov	 ecx, eax
  000a2	ff 33		 push	 DWORD PTR [ebx]
; File D:\git\src\IBK\IBK_DRFN\ProjSrc\SrcDrfn\Chart\chart_common\DataList\Conversion.cpp

; 1148 : 		if(nFirst > 0 || data.Left(trimStr.GetLength()) == trimStr){

  000a4	c7 45 fc 00 00
	00 00		 mov	 DWORD PTR __$EHRec$[ebp+8], 0
; File C:\Program Files (x86)\Microsoft Visual Studio\2019\Community\VC\Tools\MSVC\14.29.30133\atlmfc\include\cstringt.h

; 2479 : 		return(str1.Compare(str2) == 0);

  000ab	ff 15 00 00 00
	00		 call	 DWORD PTR __imp_?Compare@?$CStringT@DV?$StrTraitMFC_DLL@DV?$ChTraitsCRT@D@ATL@@@@@ATL@@QBEHPBD@Z
; File D:\git\src\IBK\IBK_DRFN\ProjSrc\SrcDrfn\Chart\chart_common\DataList\Conversion.cpp

; 1148 : 		if(nFirst > 0 || data.Left(trimStr.GetLength()) == trimStr){

  000b1	c6 45 f3 00	 mov	 BYTE PTR $T4[ebp], 0
; File C:\Program Files (x86)\Microsoft Visual Studio\2019\Community\VC\Tools\MSVC\14.29.30133\atlmfc\include\cstringt.h

; 2479 : 		return(str1.Compare(str2) == 0);

  000b5	85 c0		 test	 eax, eax
; File D:\git\src\IBK\IBK_DRFN\ProjSrc\SrcDrfn\Chart\chart_common\DataList\Conversion.cpp

; 1148 : 		if(nFirst > 0 || data.Left(trimStr.GetLength()) == trimStr){

  000b7	75 04		 jne	 SHORT $LN13@GetMidToTr
$LN12@GetMidToTr:
  000b9	c6 45 f3 01	 mov	 BYTE PTR $T4[ebp], 1
$LN13@GetMidToTr:
  000bd	f6 45 ec 04	 test	 BYTE PTR $T3[ebp], 4
  000c1	c7 45 fc ff ff
	ff ff		 mov	 DWORD PTR __$EHRec$[ebp+8], -1
  000c8	74 09		 je	 SHORT $LN18@GetMidToTr
  000ca	8d 4d e8	 lea	 ecx, DWORD PTR $T2[ebp]
  000cd	ff 15 00 00 00
	00		 call	 DWORD PTR __imp_??1?$CStringT@DV?$StrTraitMFC_DLL@DV?$ChTraitsCRT@D@ATL@@@@@ATL@@QAE@XZ
$LN18@GetMidToTr:
  000d3	80 7d f3 00	 cmp	 BYTE PTR $T4[ebp], 0
  000d7	74 05		 je	 SHORT $LN36@GetMidToTr

; 1149 : 			nFirst += trimStr.GetLength();

  000d9	8b 03		 mov	 eax, DWORD PTR [ebx]
  000db	03 78 f4	 add	 edi, DWORD PTR [eax-12]
$LN36@GetMidToTr:

; 1150 : 		}
; 1151 : 	}
; 1152 : 
; 1153 : 	int nCount = nFindIndex - nFirst;

  000de	2b f7		 sub	 esi, edi

; 1154 : 	if(!bIsInside_end) // trim data   

  000e0	80 7d 18 00	 cmp	 BYTE PTR _bIsInside$[ebp], 0
  000e4	75 05		 jne	 SHORT $LN10@GetMidToTr

; 1155 : 		nCount += trimStr.GetLength();

  000e6	8b 03		 mov	 eax, DWORD PTR [ebx]
  000e8	03 70 f4	 add	 esi, DWORD PTR [eax-12]
$LN10@GetMidToTr:

; 1156 : 
; 1157 : 	return data.Mid(nFirst, nCount);

  000eb	8b 4d 0c	 mov	 ecx, DWORD PTR _data$[ebp]
  000ee	56		 push	 esi
  000ef	8b 75 08	 mov	 esi, DWORD PTR ___$ReturnUdt$[ebp]
  000f2	57		 push	 edi
  000f3	56		 push	 esi
  000f4	ff 15 00 00 00
	00		 call	 DWORD PTR __imp_?Mid@?$CStringT@DV?$StrTraitMFC_DLL@DV?$ChTraitsCRT@D@ATL@@@@@ATL@@QBE?AV12@HH@Z

; 1166 : 	return GetMidToTrimDataEndIndex(data, trimStr, nEndIndex, true, bIsInside);

  000fa	8b c6		 mov	 eax, esi

; 1167 : }

  000fc	8b 4d f4	 mov	 ecx, DWORD PTR __$EHRec$[ebp]
  000ff	64 89 0d 00 00
	00 00		 mov	 DWORD PTR fs:0, ecx
  00106	59		 pop	 ecx
  00107	5f		 pop	 edi
  00108	5e		 pop	 esi
  00109	5b		 pop	 ebx
  0010a	8b e5		 mov	 esp, ebp
  0010c	5d		 pop	 ebp
  0010d	c3		 ret	 0
_TEXT	ENDS
;	COMDAT text$x
text$x	SEGMENT
__unwindfunclet$?GetMidToTrimDataIndex@CDataConversion@@SA?AV?$CStringT@DV?$StrTraitMFC_DLL@DV?$ChTraitsCRT@D@ATL@@@@@ATL@@ABV23@0H_N@Z$2:
  00000	8b 45 ec	 mov	 eax, DWORD PTR $T3[ebp]
  00003	83 e0 04	 and	 eax, 4
  00006	0f 84 0d 00 00
	00		 je	 $LN17@GetMidToTr
  0000c	83 65 ec fb	 and	 DWORD PTR $T3[ebp], -5	; fffffffbH
  00010	8d 4d e8	 lea	 ecx, DWORD PTR $T2[ebp]
  00013	ff 25 00 00 00
	00		 jmp	 DWORD PTR __imp_??1?$CStringT@DV?$StrTraitMFC_DLL@DV?$ChTraitsCRT@D@ATL@@@@@ATL@@QAE@XZ
$LN17@GetMidToTr:
  00019	c3		 ret	 0
  0001a	cc		 int	 3
  0001b	cc		 int	 3
  0001c	cc		 int	 3
  0001d	cc		 int	 3
  0001e	cc		 int	 3
__ehhandler$?GetMidToTrimDataIndex@CDataConversion@@SA?AV?$CStringT@DV?$StrTraitMFC_DLL@DV?$ChTraitsCRT@D@ATL@@@@@ATL@@ABV23@0H_N@Z:
  0001f	90		 npad	 1
  00020	90		 npad	 1
  00021	8b 54 24 08	 mov	 edx, DWORD PTR [esp+8]
  00025	8d 42 0c	 lea	 eax, DWORD PTR [edx+12]
  00028	8b 4a e4	 mov	 ecx, DWORD PTR [edx-28]
  0002b	33 c8		 xor	 ecx, eax
  0002d	e8 00 00 00 00	 call	 @__security_check_cookie@4
  00032	b8 00 00 00 00	 mov	 eax, OFFSET __ehfuncinfo$?GetMidToTrimDataIndex@CDataConversion@@SA?AV?$CStringT@DV?$StrTraitMFC_DLL@DV?$ChTraitsCRT@D@ATL@@@@@ATL@@ABV23@0H_N@Z
  00037	e9 00 00 00 00	 jmp	 ___CxxFrameHandler3
text$x	ENDS
?GetMidToTrimDataIndex@CDataConversion@@SA?AV?$CStringT@DV?$StrTraitMFC_DLL@DV?$ChTraitsCRT@D@ATL@@@@@ATL@@ABV23@0H_N@Z ENDP ; CDataConversion::GetMidToTrimDataIndex
; Function compile flags: /Ogtp
; File D:\git\src\IBK\IBK_DRFN\ProjSrc\SrcDrfn\Chart\chart_common\DataList\Conversion.cpp
; File C:\Program Files (x86)\Microsoft Visual Studio\2019\Community\VC\Tools\MSVC\14.29.30133\atlmfc\include\atlsimpstr.h
; File D:\git\src\IBK\IBK_DRFN\ProjSrc\SrcDrfn\Chart\chart_common\DataList\Conversion.cpp
; File C:\Program Files (x86)\Microsoft Visual Studio\2019\Community\VC\Tools\MSVC\14.29.30133\atlmfc\include\cstringt.h
; File D:\git\src\IBK\IBK_DRFN\ProjSrc\SrcDrfn\Chart\chart_common\DataList\Conversion.cpp
; File C:\Program Files (x86)\Microsoft Visual Studio\2019\Community\VC\Tools\MSVC\14.29.30133\atlmfc\include\cstringt.h
; File D:\git\src\IBK\IBK_DRFN\ProjSrc\SrcDrfn\Chart\chart_common\DataList\Conversion.cpp
; File C:\Program Files (x86)\Microsoft Visual Studio\2019\Community\VC\Tools\MSVC\14.29.30133\atlmfc\include\cstringt.h
; File D:\git\src\IBK\IBK_DRFN\ProjSrc\SrcDrfn\Chart\chart_common\DataList\Conversion.cpp
;	COMDAT ?GetMidToTrimDataEndIndex@CDataConversion@@SA?AV?$CStringT@DV?$StrTraitMFC_DLL@DV?$ChTraitsCRT@D@ATL@@@@@ATL@@ABV23@0H_N1@Z
_TEXT	SEGMENT
$T2 = -24						; size = 4
$T3 = -20						; size = 4
$T4 = -13						; size = 1
__$EHRec$ = -12						; size = 12
___$ReturnUdt$ = 8					; size = 4
_data$ = 12						; size = 4
_trimStr$ = 16						; size = 4
_nEndIndex$ = 20					; size = 4
_bIsInside_start$ = 24					; size = 1
_bIsInside_end$ = 28					; size = 1
?GetMidToTrimDataEndIndex@CDataConversion@@SA?AV?$CStringT@DV?$StrTraitMFC_DLL@DV?$ChTraitsCRT@D@ATL@@@@@ATL@@ABV23@0H_N1@Z PROC ; CDataConversion::GetMidToTrimDataEndIndex, COMDAT

; 1135 : {

  00000	55		 push	 ebp
  00001	8b ec		 mov	 ebp, esp
  00003	6a ff		 push	 -1
  00005	68 00 00 00 00	 push	 __ehhandler$?GetMidToTrimDataEndIndex@CDataConversion@@SA?AV?$CStringT@DV?$StrTraitMFC_DLL@DV?$ChTraitsCRT@D@ATL@@@@@ATL@@ABV23@0H_N1@Z
  0000a	64 a1 00 00 00
	00		 mov	 eax, DWORD PTR fs:0
  00010	50		 push	 eax
  00011	83 ec 0c	 sub	 esp, 12			; 0000000cH
  00014	53		 push	 ebx
  00015	56		 push	 esi
  00016	57		 push	 edi
  00017	a1 00 00 00 00	 mov	 eax, DWORD PTR ___security_cookie
  0001c	33 c5		 xor	 eax, ebp
  0001e	50		 push	 eax
  0001f	8d 45 f4	 lea	 eax, DWORD PTR __$EHRec$[ebp]
  00022	64 a3 00 00 00
	00		 mov	 DWORD PTR fs:0, eax

; 1136 : 	int nFindIndex = FindIndex(data, trimStr, nEndIndex);

  00028	ff 75 14	 push	 DWORD PTR _nEndIndex$[ebp]
  0002b	8b 5d 10	 mov	 ebx, DWORD PTR _trimStr$[ebp]
  0002e	53		 push	 ebx
  0002f	ff 75 0c	 push	 DWORD PTR _data$[ebp]
  00032	c7 45 ec 00 00
	00 00		 mov	 DWORD PTR $T3[ebp], 0
  00039	e8 00 00 00 00	 call	 ?FindIndex@CDataConversion@@SAHABV?$CStringT@DV?$StrTraitMFC_DLL@DV?$ChTraitsCRT@D@ATL@@@@@ATL@@0H@Z ; CDataConversion::FindIndex
  0003e	8b f8		 mov	 edi, eax
  00040	83 c4 0c	 add	 esp, 12			; 0000000cH

; 1137 : 	if(nFindIndex < 0)

  00043	85 ff		 test	 edi, edi
  00045	79 23		 jns	 SHORT $LN2@GetMidToTr

; 1138 : 		return "";

  00047	8b 4d 08	 mov	 ecx, DWORD PTR ___$ReturnUdt$[ebp]
  0004a	68 00 00 00 00	 push	 OFFSET ??_C@_00CNPNBAHC@@
  0004f	ff 15 00 00 00
	00		 call	 DWORD PTR __imp_??0?$CStringT@DV?$StrTraitMFC_DLL@DV?$ChTraitsCRT@D@ATL@@@@@ATL@@QAE@PBD@Z
  00055	8b 45 08	 mov	 eax, DWORD PTR ___$ReturnUdt$[ebp]

; 1158 : }

  00058	8b 4d f4	 mov	 ecx, DWORD PTR __$EHRec$[ebp]
  0005b	64 89 0d 00 00
	00 00		 mov	 DWORD PTR fs:0, ecx
  00062	59		 pop	 ecx
  00063	5f		 pop	 edi
  00064	5e		 pop	 esi
  00065	5b		 pop	 ebx
  00066	8b e5		 mov	 esp, ebp
  00068	5d		 pop	 ebp
  00069	c3		 ret	 0
$LN2@GetMidToTr:

; 1139 : 
; 1140 : 	// get   .
; 1141 : 	int nFirst = 0;
; 1142 : 	if(nEndIndex > 0)

  0006a	8b 45 14	 mov	 eax, DWORD PTR _nEndIndex$[ebp]
  0006d	33 f6		 xor	 esi, esi
  0006f	85 c0		 test	 eax, eax
  00071	7e 10		 jle	 SHORT $LN3@GetMidToTr

; 1143 : 		nFirst = FindIndex(data, trimStr, nEndIndex -1);

  00073	48		 dec	 eax
  00074	50		 push	 eax
  00075	53		 push	 ebx
  00076	ff 75 0c	 push	 DWORD PTR _data$[ebp]
  00079	e8 00 00 00 00	 call	 ?FindIndex@CDataConversion@@SAHABV?$CStringT@DV?$StrTraitMFC_DLL@DV?$ChTraitsCRT@D@ATL@@@@@ATL@@0H@Z ; CDataConversion::FindIndex
  0007e	83 c4 0c	 add	 esp, 12			; 0000000cH
  00081	8b f0		 mov	 esi, eax
$LN3@GetMidToTr:

; 1144 : 
; 1145 : 	// trim data   
; 1146 : 	if(bIsInside_start){

  00083	80 7d 18 00	 cmp	 BYTE PTR _bIsInside_start$[ebp], 0
  00087	74 5b		 je	 SHORT $LN5@GetMidToTr

; 1148 : 		if(nFirst > 0 || data.Left(trimStr.GetLength()) == trimStr){

  00089	85 f6		 test	 esi, esi
  0008b	7f 32		 jg	 SHORT $LN8@GetMidToTr
; File C:\Program Files (x86)\Microsoft Visual Studio\2019\Community\VC\Tools\MSVC\14.29.30133\atlmfc\include\atlsimpstr.h

; 519  : 		return( GetData()->nDataLength );

  0008d	8b 0b		 mov	 ecx, DWORD PTR [ebx]
; File D:\git\src\IBK\IBK_DRFN\ProjSrc\SrcDrfn\Chart\chart_common\DataList\Conversion.cpp

; 1148 : 		if(nFirst > 0 || data.Left(trimStr.GetLength()) == trimStr){

  0008f	8d 45 e8	 lea	 eax, DWORD PTR $T2[ebp]
  00092	ff 71 f4	 push	 DWORD PTR [ecx-12]
  00095	8b 4d 0c	 mov	 ecx, DWORD PTR _data$[ebp]
  00098	50		 push	 eax
  00099	ff 15 00 00 00
	00		 call	 DWORD PTR __imp_?Left@?$CStringT@DV?$StrTraitMFC_DLL@DV?$ChTraitsCRT@D@ATL@@@@@ATL@@QBE?AV12@H@Z
  0009f	c7 45 ec 02 00
	00 00		 mov	 DWORD PTR $T3[ebp], 2
; File C:\Program Files (x86)\Microsoft Visual Studio\2019\Community\VC\Tools\MSVC\14.29.30133\atlmfc\include\cstringt.h

; 2479 : 		return(str1.Compare(str2) == 0);

  000a6	8b c8		 mov	 ecx, eax
  000a8	ff 33		 push	 DWORD PTR [ebx]
; File D:\git\src\IBK\IBK_DRFN\ProjSrc\SrcDrfn\Chart\chart_common\DataList\Conversion.cpp

; 1148 : 		if(nFirst > 0 || data.Left(trimStr.GetLength()) == trimStr){

  000aa	c7 45 fc 00 00
	00 00		 mov	 DWORD PTR __$EHRec$[ebp+8], 0
; File C:\Program Files (x86)\Microsoft Visual Studio\2019\Community\VC\Tools\MSVC\14.29.30133\atlmfc\include\cstringt.h

; 2479 : 		return(str1.Compare(str2) == 0);

  000b1	ff 15 00 00 00
	00		 call	 DWORD PTR __imp_?Compare@?$CStringT@DV?$StrTraitMFC_DLL@DV?$ChTraitsCRT@D@ATL@@@@@ATL@@QBEHPBD@Z
; File D:\git\src\IBK\IBK_DRFN\ProjSrc\SrcDrfn\Chart\chart_common\DataList\Conversion.cpp

; 1148 : 		if(nFirst > 0 || data.Left(trimStr.GetLength()) == trimStr){

  000b7	c6 45 f3 00	 mov	 BYTE PTR $T4[ebp], 0
; File C:\Program Files (x86)\Microsoft Visual Studio\2019\Community\VC\Tools\MSVC\14.29.30133\atlmfc\include\cstringt.h

; 2479 : 		return(str1.Compare(str2) == 0);

  000bb	85 c0		 test	 eax, eax
; File D:\git\src\IBK\IBK_DRFN\ProjSrc\SrcDrfn\Chart\chart_common\DataList\Conversion.cpp

; 1148 : 		if(nFirst > 0 || data.Left(trimStr.GetLength()) == trimStr){

  000bd	75 04		 jne	 SHORT $LN9@GetMidToTr
$LN8@GetMidToTr:
  000bf	c6 45 f3 01	 mov	 BYTE PTR $T4[ebp], 1
$LN9@GetMidToTr:
  000c3	f6 45 ec 02	 test	 BYTE PTR $T3[ebp], 2
  000c7	c7 45 fc ff ff
	ff ff		 mov	 DWORD PTR __$EHRec$[ebp+8], -1
  000ce	74 09		 je	 SHORT $LN14@GetMidToTr
  000d0	8d 4d e8	 lea	 ecx, DWORD PTR $T2[ebp]
  000d3	ff 15 00 00 00
	00		 call	 DWORD PTR __imp_??1?$CStringT@DV?$StrTraitMFC_DLL@DV?$ChTraitsCRT@D@ATL@@@@@ATL@@QAE@XZ
$LN14@GetMidToTr:
  000d9	80 7d f3 00	 cmp	 BYTE PTR $T4[ebp], 0
  000dd	74 05		 je	 SHORT $LN5@GetMidToTr

; 1149 : 			nFirst += trimStr.GetLength();

  000df	8b 03		 mov	 eax, DWORD PTR [ebx]
  000e1	03 70 f4	 add	 esi, DWORD PTR [eax-12]
$LN5@GetMidToTr:

; 1150 : 		}
; 1151 : 	}
; 1152 : 
; 1153 : 	int nCount = nFindIndex - nFirst;

  000e4	2b fe		 sub	 edi, esi

; 1154 : 	if(!bIsInside_end) // trim data   

  000e6	80 7d 1c 00	 cmp	 BYTE PTR _bIsInside_end$[ebp], 0
  000ea	75 05		 jne	 SHORT $LN6@GetMidToTr

; 1155 : 		nCount += trimStr.GetLength();

  000ec	8b 03		 mov	 eax, DWORD PTR [ebx]
  000ee	03 78 f4	 add	 edi, DWORD PTR [eax-12]
$LN6@GetMidToTr:

; 1156 : 
; 1157 : 	return data.Mid(nFirst, nCount);

  000f1	8b 4d 0c	 mov	 ecx, DWORD PTR _data$[ebp]
  000f4	57		 push	 edi
  000f5	56		 push	 esi
  000f6	8b 75 08	 mov	 esi, DWORD PTR ___$ReturnUdt$[ebp]
  000f9	56		 push	 esi
  000fa	ff 15 00 00 00
	00		 call	 DWORD PTR __imp_?Mid@?$CStringT@DV?$StrTraitMFC_DLL@DV?$ChTraitsCRT@D@ATL@@@@@ATL@@QBE?AV12@HH@Z
  00100	8b c6		 mov	 eax, esi

; 1158 : }

  00102	8b 4d f4	 mov	 ecx, DWORD PTR __$EHRec$[ebp]
  00105	64 89 0d 00 00
	00 00		 mov	 DWORD PTR fs:0, ecx
  0010c	59		 pop	 ecx
  0010d	5f		 pop	 edi
  0010e	5e		 pop	 esi
  0010f	5b		 pop	 ebx
  00110	8b e5		 mov	 esp, ebp
  00112	5d		 pop	 ebp
  00113	c3		 ret	 0
_TEXT	ENDS
;	COMDAT text$x
text$x	SEGMENT
__unwindfunclet$?GetMidToTrimDataEndIndex@CDataConversion@@SA?AV?$CStringT@DV?$StrTraitMFC_DLL@DV?$ChTraitsCRT@D@ATL@@@@@ATL@@ABV23@0H_N1@Z$1:
  00000	8b 45 ec	 mov	 eax, DWORD PTR $T3[ebp]
  00003	83 e0 02	 and	 eax, 2
  00006	0f 84 0d 00 00
	00		 je	 $LN13@GetMidToTr
  0000c	83 65 ec fd	 and	 DWORD PTR $T3[ebp], -3	; fffffffdH
  00010	8d 4d e8	 lea	 ecx, DWORD PTR $T2[ebp]
  00013	ff 25 00 00 00
	00		 jmp	 DWORD PTR __imp_??1?$CStringT@DV?$StrTraitMFC_DLL@DV?$ChTraitsCRT@D@ATL@@@@@ATL@@QAE@XZ
$LN13@GetMidToTr:
  00019	c3		 ret	 0
  0001a	cc		 int	 3
  0001b	cc		 int	 3
  0001c	cc		 int	 3
  0001d	cc		 int	 3
  0001e	cc		 int	 3
__ehhandler$?GetMidToTrimDataEndIndex@CDataConversion@@SA?AV?$CStringT@DV?$StrTraitMFC_DLL@DV?$ChTraitsCRT@D@ATL@@@@@ATL@@ABV23@0H_N1@Z:
  0001f	90		 npad	 1
  00020	90		 npad	 1
  00021	8b 54 24 08	 mov	 edx, DWORD PTR [esp+8]
  00025	8d 42 0c	 lea	 eax, DWORD PTR [edx+12]
  00028	8b 4a e4	 mov	 ecx, DWORD PTR [edx-28]
  0002b	33 c8		 xor	 ecx, eax
  0002d	e8 00 00 00 00	 call	 @__security_check_cookie@4
  00032	b8 00 00 00 00	 mov	 eax, OFFSET __ehfuncinfo$?GetMidToTrimDataEndIndex@CDataConversion@@SA?AV?$CStringT@DV?$StrTraitMFC_DLL@DV?$ChTraitsCRT@D@ATL@@@@@ATL@@ABV23@0H_N1@Z
  00037	e9 00 00 00 00	 jmp	 ___CxxFrameHandler3
text$x	ENDS
?GetMidToTrimDataEndIndex@CDataConversion@@SA?AV?$CStringT@DV?$StrTraitMFC_DLL@DV?$ChTraitsCRT@D@ATL@@@@@ATL@@ABV23@0H_N1@Z ENDP ; CDataConversion::GetMidToTrimDataEndIndex
; Function compile flags: /Ogtp
; File D:\git\src\IBK\IBK_DRFN\ProjSrc\SrcDrfn\Chart\chart_common\DataList\Conversion.cpp
; File C:\Program Files (x86)\Microsoft Visual Studio\2019\Community\VC\Tools\MSVC\14.29.30133\atlmfc\include\atlsimpstr.h
; File D:\git\src\IBK\IBK_DRFN\ProjSrc\SrcDrfn\Chart\chart_common\DataList\Conversion.cpp
; File C:\Program Files (x86)\Microsoft Visual Studio\2019\Community\VC\Tools\MSVC\14.29.30133\atlmfc\include\atlsimpstr.h
; File D:\git\src\IBK\IBK_DRFN\ProjSrc\SrcDrfn\Chart\chart_common\DataList\Conversion.cpp
;	COMDAT ?GetMidToTrimDataStartIndex@CDataConversion@@SA?AV?$CStringT@DV?$StrTraitMFC_DLL@DV?$ChTraitsCRT@D@ATL@@@@@ATL@@ABV23@0H_N1@Z
_TEXT	SEGMENT
___$ReturnUdt$ = 8					; size = 4
_data$ = 12						; size = 4
_trimStr$ = 16						; size = 4
_nStartIndex$ = 20					; size = 4
_bIsInside_start$ = 24					; size = 1
_bIsInside_end$ = 28					; size = 1
?GetMidToTrimDataStartIndex@CDataConversion@@SA?AV?$CStringT@DV?$StrTraitMFC_DLL@DV?$ChTraitsCRT@D@ATL@@@@@ATL@@ABV23@0H_N1@Z PROC ; CDataConversion::GetMidToTrimDataStartIndex, COMDAT

; 1103 : {

  00000	55		 push	 ebp
  00001	8b ec		 mov	 ebp, esp
  00003	53		 push	 ebx
  00004	56		 push	 esi

; 1104 : 	if(nStartIndex < 0 || data.Find(trimStr) < 0)

  00005	8b 75 14	 mov	 esi, DWORD PTR _nStartIndex$[ebp]
  00008	57		 push	 edi
  00009	85 f6		 test	 esi, esi
  0000b	78 77		 js	 SHORT $LN3@GetMidToTr
; File C:\Program Files (x86)\Microsoft Visual Studio\2019\Community\VC\Tools\MSVC\14.29.30133\atlmfc\include\atlsimpstr.h

; 377  : 		return( m_pszData );

  0000d	8b 5d 10	 mov	 ebx, DWORD PTR _trimStr$[ebp]
; File D:\git\src\IBK\IBK_DRFN\ProjSrc\SrcDrfn\Chart\chart_common\DataList\Conversion.cpp

; 1104 : 	if(nStartIndex < 0 || data.Find(trimStr) < 0)

  00010	8b 7d 0c	 mov	 edi, DWORD PTR _data$[ebp]
  00013	8b cf		 mov	 ecx, edi
  00015	6a 00		 push	 0
  00017	ff 33		 push	 DWORD PTR [ebx]
  00019	ff 15 00 00 00
	00		 call	 DWORD PTR __imp_?Find@?$CStringT@DV?$StrTraitMFC_DLL@DV?$ChTraitsCRT@D@ATL@@@@@ATL@@QBEHPBDH@Z
  0001f	85 c0		 test	 eax, eax
  00021	78 61		 js	 SHORT $LN3@GetMidToTr

; 1106 : 
; 1107 : 	// get  .
; 1108 : 	int nFirstIndex = CDataConversion::FindIndex(data, trimStr, nStartIndex);

  00023	56		 push	 esi
  00024	53		 push	 ebx
  00025	57		 push	 edi
  00026	e8 00 00 00 00	 call	 ?FindIndex@CDataConversion@@SAHABV?$CStringT@DV?$StrTraitMFC_DLL@DV?$ChTraitsCRT@D@ATL@@@@@ATL@@0H@Z ; CDataConversion::FindIndex
  0002b	8b f0		 mov	 esi, eax
  0002d	83 c4 0c	 add	 esp, 12			; 0000000cH

; 1109 : 	if(nFirstIndex < 0)

  00030	85 f6		 test	 esi, esi
  00032	78 50		 js	 SHORT $LN3@GetMidToTr

; 1110 : 		return "";
; 1111 : 
; 1112 : 	//  trimdata  
; 1113 : 	if(bIsInside_start)

  00034	80 7d 18 00	 cmp	 BYTE PTR _bIsInside_start$[ebp], 0
  00038	74 05		 je	 SHORT $LN33@GetMidToTr

; 1114 : 		nFirstIndex += trimStr.GetLength();

  0003a	8b 0b		 mov	 ecx, DWORD PTR [ebx]
  0003c	03 71 f4	 add	 esi, DWORD PTR [ecx-12]
$LN33@GetMidToTr:

; 1115 : 
; 1116 : 	// get  .
; 1117 : 	int nEndIndex = CDataConversion::FindIndex(data, trimStr, nStartIndex +1);

  0003f	8b 45 14	 mov	 eax, DWORD PTR _nStartIndex$[ebp]
  00042	40		 inc	 eax
  00043	50		 push	 eax
  00044	53		 push	 ebx
  00045	57		 push	 edi
  00046	e8 00 00 00 00	 call	 ?FindIndex@CDataConversion@@SAHABV?$CStringT@DV?$StrTraitMFC_DLL@DV?$ChTraitsCRT@D@ATL@@@@@ATL@@0H@Z ; CDataConversion::FindIndex
  0004b	8b d0		 mov	 edx, eax
  0004d	83 c4 0c	 add	 esp, 12			; 0000000cH

; 1118 : 	if(nEndIndex < 0){

  00050	85 d2		 test	 edx, edx
  00052	79 05		 jns	 SHORT $LN32@GetMidToTr
; File C:\Program Files (x86)\Microsoft Visual Studio\2019\Community\VC\Tools\MSVC\14.29.30133\atlmfc\include\atlsimpstr.h

; 519  : 		return( GetData()->nDataLength );

  00054	8b 07		 mov	 eax, DWORD PTR [edi]
  00056	8b 50 f4	 mov	 edx, DWORD PTR [eax-12]
$LN32@GetMidToTr:
; File D:\git\src\IBK\IBK_DRFN\ProjSrc\SrcDrfn\Chart\chart_common\DataList\Conversion.cpp

; 1122 : 	int nCount = nEndIndex - nFirstIndex;

  00059	8b ca		 mov	 ecx, edx
  0005b	2b ce		 sub	 ecx, esi

; 1123 : 	if(!bIsInside_end){ // trim data   

  0005d	80 7d 1c 00	 cmp	 BYTE PTR _bIsInside_end$[ebp], 0
  00061	75 0c		 jne	 SHORT $LN8@GetMidToTr

; 1124 : 		if(nEndIndex < data.GetLength())

  00063	8b 07		 mov	 eax, DWORD PTR [edi]
  00065	3b 50 f4	 cmp	 edx, DWORD PTR [eax-12]
  00068	7d 05		 jge	 SHORT $LN8@GetMidToTr

; 1125 : 			nCount += trimStr.GetLength();

  0006a	8b 03		 mov	 eax, DWORD PTR [ebx]
  0006c	03 48 f4	 add	 ecx, DWORD PTR [eax-12]
$LN8@GetMidToTr:

; 1126 : 	}
; 1127 : 
; 1128 : 	return data.Mid(nFirstIndex, nCount);

  0006f	51		 push	 ecx
  00070	56		 push	 esi
  00071	8b 75 08	 mov	 esi, DWORD PTR ___$ReturnUdt$[ebp]
  00074	8b cf		 mov	 ecx, edi
  00076	56		 push	 esi
  00077	ff 15 00 00 00
	00		 call	 DWORD PTR __imp_?Mid@?$CStringT@DV?$StrTraitMFC_DLL@DV?$ChTraitsCRT@D@ATL@@@@@ATL@@QBE?AV12@HH@Z
  0007d	5f		 pop	 edi
  0007e	8b c6		 mov	 eax, esi

; 1129 : }

  00080	5e		 pop	 esi
  00081	5b		 pop	 ebx
  00082	5d		 pop	 ebp
  00083	c3		 ret	 0
$LN3@GetMidToTr:

; 1105 : 		return "";

  00084	8b 4d 08	 mov	 ecx, DWORD PTR ___$ReturnUdt$[ebp]
  00087	68 00 00 00 00	 push	 OFFSET ??_C@_00CNPNBAHC@@
  0008c	ff 15 00 00 00
	00		 call	 DWORD PTR __imp_??0?$CStringT@DV?$StrTraitMFC_DLL@DV?$ChTraitsCRT@D@ATL@@@@@ATL@@QAE@PBD@Z
  00092	8b 45 08	 mov	 eax, DWORD PTR ___$ReturnUdt$[ebp]
  00095	5f		 pop	 edi

; 1129 : }

  00096	5e		 pop	 esi
  00097	5b		 pop	 ebx
  00098	5d		 pop	 ebp
  00099	c3		 ret	 0
?GetMidToTrimDataStartIndex@CDataConversion@@SA?AV?$CStringT@DV?$StrTraitMFC_DLL@DV?$ChTraitsCRT@D@ATL@@@@@ATL@@ABV23@0H_N1@Z ENDP ; CDataConversion::GetMidToTrimDataStartIndex
_TEXT	ENDS
; Function compile flags: /Ogtp
; File D:\git\src\IBK\IBK_DRFN\ProjSrc\SrcDrfn\Chart\chart_common\DataList\Conversion.cpp
;	COMDAT ?GetLeftToTrimDataIndex@CDataConversion@@SA?AV?$CStringT@DV?$StrTraitMFC_DLL@DV?$ChTraitsCRT@D@ATL@@@@@ATL@@ABV23@0H_N@Z
_TEXT	SEGMENT
___$ReturnUdt$ = 8					; size = 4
_data$ = 12						; size = 4
_trimStr$ = 16						; size = 4
_nEndIndex$ = 20					; size = 4
_bIsInside$ = 24					; size = 1
?GetLeftToTrimDataIndex@CDataConversion@@SA?AV?$CStringT@DV?$StrTraitMFC_DLL@DV?$ChTraitsCRT@D@ATL@@@@@ATL@@ABV23@0H_N@Z PROC ; CDataConversion::GetLeftToTrimDataIndex, COMDAT

; 1088 : {

  00000	55		 push	 ebp
  00001	8b ec		 mov	 ebp, esp
  00003	56		 push	 esi

; 1089 : 	int nFindIndex = FindIndex(data, trimStr, nEndIndex);

  00004	ff 75 14	 push	 DWORD PTR _nEndIndex$[ebp]
  00007	8b 75 10	 mov	 esi, DWORD PTR _trimStr$[ebp]
  0000a	56		 push	 esi
  0000b	ff 75 0c	 push	 DWORD PTR _data$[ebp]
  0000e	e8 00 00 00 00	 call	 ?FindIndex@CDataConversion@@SAHABV?$CStringT@DV?$StrTraitMFC_DLL@DV?$ChTraitsCRT@D@ATL@@@@@ATL@@0H@Z ; CDataConversion::FindIndex
  00013	8b c8		 mov	 ecx, eax
  00015	83 c4 0c	 add	 esp, 12			; 0000000cH

; 1090 : 	if(nFindIndex < 0)

  00018	85 c9		 test	 ecx, ecx
  0001a	79 14		 jns	 SHORT $LN2@GetLeftToT

; 1091 : 		return "";

  0001c	8b 4d 08	 mov	 ecx, DWORD PTR ___$ReturnUdt$[ebp]
  0001f	68 00 00 00 00	 push	 OFFSET ??_C@_00CNPNBAHC@@
  00024	ff 15 00 00 00
	00		 call	 DWORD PTR __imp_??0?$CStringT@DV?$StrTraitMFC_DLL@DV?$ChTraitsCRT@D@ATL@@@@@ATL@@QAE@PBD@Z
  0002a	8b 45 08	 mov	 eax, DWORD PTR ___$ReturnUdt$[ebp]
  0002d	5e		 pop	 esi

; 1097 : }

  0002e	5d		 pop	 ebp
  0002f	c3		 ret	 0
$LN2@GetLeftToT:

; 1092 : 
; 1093 : 	if(!bIsInside)

  00030	80 7d 18 00	 cmp	 BYTE PTR _bIsInside$[ebp], 0
  00034	75 05		 jne	 SHORT $LN3@GetLeftToT

; 1094 : 		nFindIndex += trimStr.GetLength();

  00036	8b 06		 mov	 eax, DWORD PTR [esi]
  00038	03 48 f4	 add	 ecx, DWORD PTR [eax-12]
$LN3@GetLeftToT:

; 1095 : 
; 1096 : 	return data.Left(nFindIndex);

  0003b	8b 75 08	 mov	 esi, DWORD PTR ___$ReturnUdt$[ebp]
  0003e	51		 push	 ecx
  0003f	8b 4d 0c	 mov	 ecx, DWORD PTR _data$[ebp]
  00042	56		 push	 esi
  00043	ff 15 00 00 00
	00		 call	 DWORD PTR __imp_?Left@?$CStringT@DV?$StrTraitMFC_DLL@DV?$ChTraitsCRT@D@ATL@@@@@ATL@@QBE?AV12@H@Z
  00049	8b c6		 mov	 eax, esi
  0004b	5e		 pop	 esi

; 1097 : }

  0004c	5d		 pop	 ebp
  0004d	c3		 ret	 0
?GetLeftToTrimDataIndex@CDataConversion@@SA?AV?$CStringT@DV?$StrTraitMFC_DLL@DV?$ChTraitsCRT@D@ATL@@@@@ATL@@ABV23@0H_N@Z ENDP ; CDataConversion::GetLeftToTrimDataIndex
_TEXT	ENDS
; Function compile flags: /Ogtp
; File D:\git\src\IBK\IBK_DRFN\ProjSrc\SrcDrfn\Chart\chart_common\DataList\Conversion.cpp
; File C:\Program Files (x86)\Microsoft Visual Studio\2019\Community\VC\Tools\MSVC\14.29.30133\atlmfc\include\atlsimpstr.h
; File D:\git\src\IBK\IBK_DRFN\ProjSrc\SrcDrfn\Chart\chart_common\DataList\Conversion.cpp
; File C:\Program Files (x86)\Microsoft Visual Studio\2019\Community\VC\Tools\MSVC\14.29.30133\atlmfc\include\atlsimpstr.h
; File D:\git\src\IBK\IBK_DRFN\ProjSrc\SrcDrfn\Chart\chart_common\DataList\Conversion.cpp
; File C:\Program Files (x86)\Microsoft Visual Studio\2019\Community\VC\Tools\MSVC\14.29.30133\atlmfc\include\atlsimpstr.h
; File D:\git\src\IBK\IBK_DRFN\ProjSrc\SrcDrfn\Chart\chart_common\DataList\Conversion.cpp
; File C:\Program Files (x86)\Microsoft Visual Studio\2019\Community\VC\Tools\MSVC\14.29.30133\atlmfc\include\atlsimpstr.h
; File D:\git\src\IBK\IBK_DRFN\ProjSrc\SrcDrfn\Chart\chart_common\DataList\Conversion.cpp
; File C:\Program Files (x86)\Microsoft Visual Studio\2019\Community\VC\Tools\MSVC\14.29.30133\atlmfc\include\atlsimpstr.h
; File D:\git\src\IBK\IBK_DRFN\ProjSrc\SrcDrfn\Chart\chart_common\DataList\Conversion.cpp
;	COMDAT ?GetStringData@CDataConversion@@SA?AV?$CStringT@DV?$StrTraitMFC_DLL@DV?$ChTraitsCRT@D@ATL@@@@@ATL@@AAV23@ABV23@H@Z
_TEXT	SEGMENT
$T2 = -28						; size = 4
_i$1$ = -24						; size = 4
_tempData$ = -20					; size = 4
_retData$ = -16						; size = 4
__$EHRec$ = -12						; size = 12
___$ReturnUdt$ = 8					; size = 4
_totalCount$1$ = 12					; size = 4
$T3 = 12						; size = 4
_data$ = 12						; size = 4
_trimStr$ = 16						; size = 4
_nIndex$ = 20						; size = 4
?GetStringData@CDataConversion@@SA?AV?$CStringT@DV?$StrTraitMFC_DLL@DV?$ChTraitsCRT@D@ATL@@@@@ATL@@AAV23@ABV23@H@Z PROC ; CDataConversion::GetStringData, COMDAT

; 1065 : {

  00000	55		 push	 ebp
  00001	8b ec		 mov	 ebp, esp
  00003	6a ff		 push	 -1
  00005	68 00 00 00 00	 push	 __ehhandler$?GetStringData@CDataConversion@@SA?AV?$CStringT@DV?$StrTraitMFC_DLL@DV?$ChTraitsCRT@D@ATL@@@@@ATL@@AAV23@ABV23@H@Z
  0000a	64 a1 00 00 00
	00		 mov	 eax, DWORD PTR fs:0
  00010	50		 push	 eax
  00011	83 ec 10	 sub	 esp, 16			; 00000010H
  00014	53		 push	 ebx
  00015	56		 push	 esi
  00016	57		 push	 edi
  00017	a1 00 00 00 00	 mov	 eax, DWORD PTR ___security_cookie
  0001c	33 c5		 xor	 eax, ebp
  0001e	50		 push	 eax
  0001f	8d 45 f4	 lea	 eax, DWORD PTR __$EHRec$[ebp]
  00022	64 a3 00 00 00
	00		 mov	 DWORD PTR fs:0, eax
; File C:\Program Files (x86)\Microsoft Visual Studio\2019\Community\VC\Tools\MSVC\14.29.30133\atlmfc\include\atlsimpstr.h

; 519  : 		return( GetData()->nDataLength );

  00028	8b 7d 0c	 mov	 edi, DWORD PTR _data$[ebp]
  0002b	8b 07		 mov	 eax, DWORD PTR [edi]

; 533  : 		return( GetLength() == 0 );

  0002d	83 78 f4 00	 cmp	 DWORD PTR [eax-12], 0
; File D:\git\src\IBK\IBK_DRFN\ProjSrc\SrcDrfn\Chart\chart_common\DataList\Conversion.cpp

; 1066 : 	if(data.IsEmpty())

  00031	75 13		 jne	 SHORT $LN5@GetStringD

; 1067 : 		return "";

  00033	8b 4d 08	 mov	 ecx, DWORD PTR ___$ReturnUdt$[ebp]
  00036	68 00 00 00 00	 push	 OFFSET ??_C@_00CNPNBAHC@@
  0003b	ff 15 00 00 00
	00		 call	 DWORD PTR __imp_??0?$CStringT@DV?$StrTraitMFC_DLL@DV?$ChTraitsCRT@D@ATL@@@@@ATL@@QAE@PBD@Z
  00041	e9 e1 00 00 00	 jmp	 $LN42@GetStringD
$LN5@GetStringD:

; 1068 : 
; 1069 : 	CString tempData = data;

  00046	57		 push	 edi
  00047	8d 4d ec	 lea	 ecx, DWORD PTR _tempData$[ebp]
  0004a	ff 15 00 00 00
	00		 call	 DWORD PTR __imp_??0?$CStringT@DV?$StrTraitMFC_DLL@DV?$ChTraitsCRT@D@ATL@@@@@ATL@@QAE@ABV01@@Z

; 1070 : 	CString retData;

  00050	8d 4d f0	 lea	 ecx, DWORD PTR _retData$[ebp]
  00053	c7 45 fc 00 00
	00 00		 mov	 DWORD PTR __$EHRec$[ebp+8], 0
  0005a	ff 15 00 00 00
	00		 call	 DWORD PTR __imp_??0?$CStringT@DV?$StrTraitMFC_DLL@DV?$ChTraitsCRT@D@ATL@@@@@ATL@@QAE@XZ

; 1071 : 	int totalCount = 0;

  00060	33 d2		 xor	 edx, edx
  00062	c6 45 fc 01	 mov	 BYTE PTR __$EHRec$[ebp+8], 1
  00066	89 55 0c	 mov	 DWORD PTR _totalCount$1$[ebp], edx

; 1072 : 	for(int i = 0; i < nIndex; i++){

  00069	89 55 e8	 mov	 DWORD PTR _i$1$[ebp], edx
  0006c	39 55 14	 cmp	 DWORD PTR _nIndex$[ebp], edx
  0006f	7e 6e		 jle	 SHORT $LN35@GetStringD
  00071	8b 5d 10	 mov	 ebx, DWORD PTR _trimStr$[ebp]
  00074	8b 0b		 mov	 ecx, DWORD PTR [ebx]
$LL4@GetStringD:

; 1073 : 		int count = data.Find(trimStr);

  00076	6a 00		 push	 0
  00078	51		 push	 ecx
  00079	8b cf		 mov	 ecx, edi
  0007b	ff 15 00 00 00
	00		 call	 DWORD PTR __imp_?Find@?$CStringT@DV?$StrTraitMFC_DLL@DV?$ChTraitsCRT@D@ATL@@@@@ATL@@QBEHPBDH@Z
  00081	8b f0		 mov	 esi, eax

; 1074 : 		if(count == -1)

  00083	83 fe ff	 cmp	 esi, -1
  00086	74 54		 je	 SHORT $LN40@GetStringD
; File C:\Program Files (x86)\Microsoft Visual Studio\2019\Community\VC\Tools\MSVC\14.29.30133\atlmfc\include\atlsimpstr.h

; 519  : 		return( GetData()->nDataLength );

  00088	8b 4d ec	 mov	 ecx, DWORD PTR _tempData$[ebp]
  0008b	8b 51 f4	 mov	 edx, DWORD PTR [ecx-12]
  0008e	8b 0b		 mov	 ecx, DWORD PTR [ebx]
; File D:\git\src\IBK\IBK_DRFN\ProjSrc\SrcDrfn\Chart\chart_common\DataList\Conversion.cpp

; 1076 : 		data = data.Mid(count+trimStr.GetLength(), tempData.GetLength() - count);

  00090	2b d6		 sub	 edx, esi
  00092	52		 push	 edx
; File C:\Program Files (x86)\Microsoft Visual Studio\2019\Community\VC\Tools\MSVC\14.29.30133\atlmfc\include\atlsimpstr.h

; 519  : 		return( GetData()->nDataLength );

  00093	8b 41 f4	 mov	 eax, DWORD PTR [ecx-12]
; File D:\git\src\IBK\IBK_DRFN\ProjSrc\SrcDrfn\Chart\chart_common\DataList\Conversion.cpp

; 1076 : 		data = data.Mid(count+trimStr.GetLength(), tempData.GetLength() - count);

  00096	8b cf		 mov	 ecx, edi
  00098	03 c6		 add	 eax, esi
  0009a	50		 push	 eax
  0009b	8d 45 e4	 lea	 eax, DWORD PTR $T2[ebp]
  0009e	50		 push	 eax
  0009f	ff 15 00 00 00
	00		 call	 DWORD PTR __imp_?Mid@?$CStringT@DV?$StrTraitMFC_DLL@DV?$ChTraitsCRT@D@ATL@@@@@ATL@@QBE?AV12@HH@Z
  000a5	50		 push	 eax
  000a6	8b cf		 mov	 ecx, edi
  000a8	c6 45 fc 02	 mov	 BYTE PTR __$EHRec$[ebp+8], 2
  000ac	ff 15 00 00 00
	00		 call	 DWORD PTR __imp_??4?$CStringT@DV?$StrTraitMFC_DLL@DV?$ChTraitsCRT@D@ATL@@@@@ATL@@QAEAAV01@ABV01@@Z
  000b2	8d 4d e4	 lea	 ecx, DWORD PTR $T2[ebp]
  000b5	c6 45 fc 01	 mov	 BYTE PTR __$EHRec$[ebp+8], 1
  000b9	ff 15 00 00 00
	00		 call	 DWORD PTR __imp_??1?$CStringT@DV?$StrTraitMFC_DLL@DV?$ChTraitsCRT@D@ATL@@@@@ATL@@QAE@XZ
; File C:\Program Files (x86)\Microsoft Visual Studio\2019\Community\VC\Tools\MSVC\14.29.30133\atlmfc\include\atlsimpstr.h

; 519  : 		return( GetData()->nDataLength );

  000bf	8b 0b		 mov	 ecx, DWORD PTR [ebx]
; File D:\git\src\IBK\IBK_DRFN\ProjSrc\SrcDrfn\Chart\chart_common\DataList\Conversion.cpp

; 1078 : 		totalCount += trimStr.GetLength();

  000c1	8b 55 0c	 mov	 edx, DWORD PTR _totalCount$1$[ebp]
; File C:\Program Files (x86)\Microsoft Visual Studio\2019\Community\VC\Tools\MSVC\14.29.30133\atlmfc\include\atlsimpstr.h

; 519  : 		return( GetData()->nDataLength );

  000c4	8b 41 f4	 mov	 eax, DWORD PTR [ecx-12]
; File D:\git\src\IBK\IBK_DRFN\ProjSrc\SrcDrfn\Chart\chart_common\DataList\Conversion.cpp

; 1078 : 		totalCount += trimStr.GetLength();

  000c7	03 c6		 add	 eax, esi
  000c9	03 d0		 add	 edx, eax
  000cb	8b 45 e8	 mov	 eax, DWORD PTR _i$1$[ebp]
  000ce	40		 inc	 eax
  000cf	89 55 0c	 mov	 DWORD PTR _totalCount$1$[ebp], edx
  000d2	89 45 e8	 mov	 DWORD PTR _i$1$[ebp], eax
  000d5	3b 45 14	 cmp	 eax, DWORD PTR _nIndex$[ebp]
  000d8	7c 9c		 jl	 SHORT $LL4@GetStringD

; 1074 : 		if(count == -1)

  000da	eb 03		 jmp	 SHORT $LN35@GetStringD
$LN40@GetStringD:
  000dc	8b 55 0c	 mov	 edx, DWORD PTR _totalCount$1$[ebp]
$LN35@GetStringD:

; 1079 : 	}
; 1080 : 	retData = tempData.Left(totalCount);

  000df	52		 push	 edx
  000e0	8d 45 0c	 lea	 eax, DWORD PTR $T3[ebp]
  000e3	50		 push	 eax
  000e4	8d 4d ec	 lea	 ecx, DWORD PTR _tempData$[ebp]
  000e7	ff 15 00 00 00
	00		 call	 DWORD PTR __imp_?Left@?$CStringT@DV?$StrTraitMFC_DLL@DV?$ChTraitsCRT@D@ATL@@@@@ATL@@QBE?AV12@H@Z
  000ed	50		 push	 eax
  000ee	8d 4d f0	 lea	 ecx, DWORD PTR _retData$[ebp]
  000f1	c6 45 fc 03	 mov	 BYTE PTR __$EHRec$[ebp+8], 3
  000f5	ff 15 00 00 00
	00		 call	 DWORD PTR __imp_??4?$CStringT@DV?$StrTraitMFC_DLL@DV?$ChTraitsCRT@D@ATL@@@@@ATL@@QAEAAV01@ABV01@@Z
  000fb	8d 4d 0c	 lea	 ecx, DWORD PTR $T3[ebp]
  000fe	c6 45 fc 01	 mov	 BYTE PTR __$EHRec$[ebp+8], 1
  00102	ff 15 00 00 00
	00		 call	 DWORD PTR __imp_??1?$CStringT@DV?$StrTraitMFC_DLL@DV?$ChTraitsCRT@D@ATL@@@@@ATL@@QAE@XZ

; 1081 : 	return retData;

  00108	8b 4d 08	 mov	 ecx, DWORD PTR ___$ReturnUdt$[ebp]
  0010b	8d 45 f0	 lea	 eax, DWORD PTR _retData$[ebp]
  0010e	50		 push	 eax
  0010f	ff 15 00 00 00
	00		 call	 DWORD PTR __imp_??0?$CStringT@DV?$StrTraitMFC_DLL@DV?$ChTraitsCRT@D@ATL@@@@@ATL@@QAE@ABV01@@Z
  00115	8d 4d f0	 lea	 ecx, DWORD PTR _retData$[ebp]
  00118	ff 15 00 00 00
	00		 call	 DWORD PTR __imp_??1?$CStringT@DV?$StrTraitMFC_DLL@DV?$ChTraitsCRT@D@ATL@@@@@ATL@@QAE@XZ
  0011e	8d 4d ec	 lea	 ecx, DWORD PTR _tempData$[ebp]
  00121	ff 15 00 00 00
	00		 call	 DWORD PTR __imp_??1?$CStringT@DV?$StrTraitMFC_DLL@DV?$ChTraitsCRT@D@ATL@@@@@ATL@@QAE@XZ
$LN42@GetStringD:

; 1082 : }

  00127	8b 45 08	 mov	 eax, DWORD PTR ___$ReturnUdt$[ebp]
  0012a	8b 4d f4	 mov	 ecx, DWORD PTR __$EHRec$[ebp]
  0012d	64 89 0d 00 00
	00 00		 mov	 DWORD PTR fs:0, ecx
  00134	59		 pop	 ecx
  00135	5f		 pop	 edi
  00136	5e		 pop	 esi
  00137	5b		 pop	 ebx
  00138	8b e5		 mov	 esp, ebp
  0013a	5d		 pop	 ebp
  0013b	c3		 ret	 0
_TEXT	ENDS
;	COMDAT text$x
text$x	SEGMENT
__unwindfunclet$?GetStringData@CDataConversion@@SA?AV?$CStringT@DV?$StrTraitMFC_DLL@DV?$ChTraitsCRT@D@ATL@@@@@ATL@@AAV23@ABV23@H@Z$1:
  00000	8d 4d ec	 lea	 ecx, DWORD PTR _tempData$[ebp]
  00003	ff 25 00 00 00
	00		 jmp	 DWORD PTR __imp_??1?$CStringT@DV?$StrTraitMFC_DLL@DV?$ChTraitsCRT@D@ATL@@@@@ATL@@QAE@XZ
__unwindfunclet$?GetStringData@CDataConversion@@SA?AV?$CStringT@DV?$StrTraitMFC_DLL@DV?$ChTraitsCRT@D@ATL@@@@@ATL@@AAV23@ABV23@H@Z$2:
  00009	8d 4d f0	 lea	 ecx, DWORD PTR _retData$[ebp]
  0000c	ff 25 00 00 00
	00		 jmp	 DWORD PTR __imp_??1?$CStringT@DV?$StrTraitMFC_DLL@DV?$ChTraitsCRT@D@ATL@@@@@ATL@@QAE@XZ
__unwindfunclet$?GetStringData@CDataConversion@@SA?AV?$CStringT@DV?$StrTraitMFC_DLL@DV?$ChTraitsCRT@D@ATL@@@@@ATL@@AAV23@ABV23@H@Z$3:
  00012	8d 4d e4	 lea	 ecx, DWORD PTR $T2[ebp]
  00015	ff 25 00 00 00
	00		 jmp	 DWORD PTR __imp_??1?$CStringT@DV?$StrTraitMFC_DLL@DV?$ChTraitsCRT@D@ATL@@@@@ATL@@QAE@XZ
__unwindfunclet$?GetStringData@CDataConversion@@SA?AV?$CStringT@DV?$StrTraitMFC_DLL@DV?$ChTraitsCRT@D@ATL@@@@@ATL@@AAV23@ABV23@H@Z$4:
  0001b	8d 4d 0c	 lea	 ecx, DWORD PTR $T3[ebp]
  0001e	ff 25 00 00 00
	00		 jmp	 DWORD PTR __imp_??1?$CStringT@DV?$StrTraitMFC_DLL@DV?$ChTraitsCRT@D@ATL@@@@@ATL@@QAE@XZ
  00024	cc		 int	 3
  00025	cc		 int	 3
  00026	cc		 int	 3
  00027	cc		 int	 3
  00028	cc		 int	 3
__ehhandler$?GetStringData@CDataConversion@@SA?AV?$CStringT@DV?$StrTraitMFC_DLL@DV?$ChTraitsCRT@D@ATL@@@@@ATL@@AAV23@ABV23@H@Z:
  00029	90		 npad	 1
  0002a	90		 npad	 1
  0002b	8b 54 24 08	 mov	 edx, DWORD PTR [esp+8]
  0002f	8d 42 0c	 lea	 eax, DWORD PTR [edx+12]
  00032	8b 4a e0	 mov	 ecx, DWORD PTR [edx-32]
  00035	33 c8		 xor	 ecx, eax
  00037	e8 00 00 00 00	 call	 @__security_check_cookie@4
  0003c	b8 00 00 00 00	 mov	 eax, OFFSET __ehfuncinfo$?GetStringData@CDataConversion@@SA?AV?$CStringT@DV?$StrTraitMFC_DLL@DV?$ChTraitsCRT@D@ATL@@@@@ATL@@AAV23@ABV23@H@Z
  00041	e9 00 00 00 00	 jmp	 ___CxxFrameHandler3
text$x	ENDS
?GetStringData@CDataConversion@@SA?AV?$CStringT@DV?$StrTraitMFC_DLL@DV?$ChTraitsCRT@D@ATL@@@@@ATL@@AAV23@ABV23@H@Z ENDP ; CDataConversion::GetStringData
; Function compile flags: /Ogtp
; File D:\git\src\IBK\IBK_DRFN\ProjSrc\SrcDrfn\Chart\chart_common\DataList\Conversion.cpp
; File C:\Program Files (x86)\Microsoft Visual Studio\2019\Community\VC\Tools\MSVC\14.29.30133\atlmfc\include\atlsimpstr.h
; File D:\git\src\IBK\IBK_DRFN\ProjSrc\SrcDrfn\Chart\chart_common\DataList\Conversion.cpp
;	COMDAT ?GetStringData@CDataConversion@@SA?AV?$CStringT@DV?$StrTraitMFC_DLL@DV?$ChTraitsCRT@D@ATL@@@@@ATL@@AAV23@ABV23@1_N@Z
_TEXT	SEGMENT
$T2 = -20						; size = 4
$T3 = -16						; size = 4
__$EHRec$ = -12						; size = 12
___$ReturnUdt$ = 8					; size = 4
_strInsideData$ = 12					; size = 4
_data$ = 12						; size = 4
_trimStart$ = 16					; size = 4
_trimEnd$ = 20						; size = 4
_bIsInside$ = 24					; size = 1
?GetStringData@CDataConversion@@SA?AV?$CStringT@DV?$StrTraitMFC_DLL@DV?$ChTraitsCRT@D@ATL@@@@@ATL@@AAV23@ABV23@1_N@Z PROC ; CDataConversion::GetStringData, COMDAT

; 1050 : {

  00000	55		 push	 ebp
  00001	8b ec		 mov	 ebp, esp
  00003	6a ff		 push	 -1
  00005	68 00 00 00 00	 push	 __ehhandler$?GetStringData@CDataConversion@@SA?AV?$CStringT@DV?$StrTraitMFC_DLL@DV?$ChTraitsCRT@D@ATL@@@@@ATL@@AAV23@ABV23@1_N@Z
  0000a	64 a1 00 00 00
	00		 mov	 eax, DWORD PTR fs:0
  00010	50		 push	 eax
  00011	83 ec 08	 sub	 esp, 8
  00014	56		 push	 esi
  00015	a1 00 00 00 00	 mov	 eax, DWORD PTR ___security_cookie
  0001a	33 c5		 xor	 eax, ebp
  0001c	50		 push	 eax
  0001d	8d 45 f4	 lea	 eax, DWORD PTR __$EHRec$[ebp]
  00020	64 a3 00 00 00
	00		 mov	 DWORD PTR fs:0, eax
; File C:\Program Files (x86)\Microsoft Visual Studio\2019\Community\VC\Tools\MSVC\14.29.30133\atlmfc\include\atlsimpstr.h

; 519  : 		return( GetData()->nDataLength );

  00026	8b 75 0c	 mov	 esi, DWORD PTR _data$[ebp]
  00029	8b 06		 mov	 eax, DWORD PTR [esi]

; 533  : 		return( GetLength() == 0 );

  0002b	83 78 f4 00	 cmp	 DWORD PTR [eax-12], 0
; File D:\git\src\IBK\IBK_DRFN\ProjSrc\SrcDrfn\Chart\chart_common\DataList\Conversion.cpp

; 1051 : 	if(data.IsEmpty())

  0002f	75 21		 jne	 SHORT $LN2@GetStringD

; 1052 : 		return "";

  00031	8b 4d 08	 mov	 ecx, DWORD PTR ___$ReturnUdt$[ebp]
  00034	68 00 00 00 00	 push	 OFFSET ??_C@_00CNPNBAHC@@
  00039	ff 15 00 00 00
	00		 call	 DWORD PTR __imp_??0?$CStringT@DV?$StrTraitMFC_DLL@DV?$ChTraitsCRT@D@ATL@@@@@ATL@@QAE@PBD@Z
  0003f	8b 45 08	 mov	 eax, DWORD PTR ___$ReturnUdt$[ebp]

; 1060 : }

  00042	8b 4d f4	 mov	 ecx, DWORD PTR __$EHRec$[ebp]
  00045	64 89 0d 00 00
	00 00		 mov	 DWORD PTR fs:0, ecx
  0004c	59		 pop	 ecx
  0004d	5e		 pop	 esi
  0004e	8b e5		 mov	 esp, ebp
  00050	5d		 pop	 ebp
  00051	c3		 ret	 0
$LN2@GetStringD:

; 1053 : 
; 1054 : 	GetStringData(data, trimStart);

  00052	6a 01		 push	 1
  00054	ff 75 10	 push	 DWORD PTR _trimStart$[ebp]
  00057	8d 45 f0	 lea	 eax, DWORD PTR $T3[ebp]
  0005a	56		 push	 esi
  0005b	50		 push	 eax
  0005c	e8 00 00 00 00	 call	 ?GetStringData@CDataConversion@@SA?AV?$CStringT@DV?$StrTraitMFC_DLL@DV?$ChTraitsCRT@D@ATL@@@@@ATL@@AAV23@ABV23@_N@Z ; CDataConversion::GetStringData
  00061	83 c4 10	 add	 esp, 16			; 00000010H
  00064	8d 4d f0	 lea	 ecx, DWORD PTR $T3[ebp]
  00067	ff 15 00 00 00
	00		 call	 DWORD PTR __imp_??1?$CStringT@DV?$StrTraitMFC_DLL@DV?$ChTraitsCRT@D@ATL@@@@@ATL@@QAE@XZ

; 1055 : 	CString strInsideData = GetStringData(data, trimEnd);

  0006d	6a 01		 push	 1
  0006f	ff 75 14	 push	 DWORD PTR _trimEnd$[ebp]
  00072	8d 45 0c	 lea	 eax, DWORD PTR _strInsideData$[ebp]
  00075	56		 push	 esi
  00076	50		 push	 eax
  00077	e8 00 00 00 00	 call	 ?GetStringData@CDataConversion@@SA?AV?$CStringT@DV?$StrTraitMFC_DLL@DV?$ChTraitsCRT@D@ATL@@@@@ATL@@AAV23@ABV23@_N@Z ; CDataConversion::GetStringData
  0007c	83 c4 10	 add	 esp, 16			; 00000010H

; 1056 : 
; 1057 : 	if(bIsInside)

  0007f	80 7d 18 00	 cmp	 BYTE PTR _bIsInside$[ebp], 0
  00083	8d 45 0c	 lea	 eax, DWORD PTR _strInsideData$[ebp]
  00086	c7 45 fc 00 00
	00 00		 mov	 DWORD PTR __$EHRec$[ebp+8], 0
  0008d	50		 push	 eax
  0008e	74 25		 je	 SHORT $LN3@GetStringD

; 1058 : 		return strInsideData;

  00090	8b 4d 08	 mov	 ecx, DWORD PTR ___$ReturnUdt$[ebp]
  00093	ff 15 00 00 00
	00		 call	 DWORD PTR __imp_??0?$CStringT@DV?$StrTraitMFC_DLL@DV?$ChTraitsCRT@D@ATL@@@@@ATL@@QAE@ABV01@@Z
  00099	8d 4d 0c	 lea	 ecx, DWORD PTR _strInsideData$[ebp]
  0009c	ff 15 00 00 00
	00		 call	 DWORD PTR __imp_??1?$CStringT@DV?$StrTraitMFC_DLL@DV?$ChTraitsCRT@D@ATL@@@@@ATL@@QAE@XZ
  000a2	8b 45 08	 mov	 eax, DWORD PTR ___$ReturnUdt$[ebp]

; 1060 : }

  000a5	8b 4d f4	 mov	 ecx, DWORD PTR __$EHRec$[ebp]
  000a8	64 89 0d 00 00
	00 00		 mov	 DWORD PTR fs:0, ecx
  000af	59		 pop	 ecx
  000b0	5e		 pop	 esi
  000b1	8b e5		 mov	 esp, ebp
  000b3	5d		 pop	 ebp
  000b4	c3		 ret	 0
$LN3@GetStringD:

; 1059 : 	return (trimStart + strInsideData + trimEnd);

  000b5	ff 75 10	 push	 DWORD PTR _trimStart$[ebp]
  000b8	8d 45 ec	 lea	 eax, DWORD PTR $T2[ebp]
  000bb	50		 push	 eax
  000bc	e8 00 00 00 00	 call	 ??HATL@@YA?AV?$CStringT@DV?$StrTraitMFC_DLL@DV?$ChTraitsCRT@D@ATL@@@@@0@ABV10@0@Z ; ATL::operator+
  000c1	ff 75 14	 push	 DWORD PTR _trimEnd$[ebp]
  000c4	8b 75 08	 mov	 esi, DWORD PTR ___$ReturnUdt$[ebp]
  000c7	50		 push	 eax
  000c8	56		 push	 esi
  000c9	c6 45 fc 01	 mov	 BYTE PTR __$EHRec$[ebp+8], 1
  000cd	e8 00 00 00 00	 call	 ??HATL@@YA?AV?$CStringT@DV?$StrTraitMFC_DLL@DV?$ChTraitsCRT@D@ATL@@@@@0@ABV10@0@Z ; ATL::operator+
  000d2	83 c4 18	 add	 esp, 24			; 00000018H
  000d5	8d 4d ec	 lea	 ecx, DWORD PTR $T2[ebp]
  000d8	ff 15 00 00 00
	00		 call	 DWORD PTR __imp_??1?$CStringT@DV?$StrTraitMFC_DLL@DV?$ChTraitsCRT@D@ATL@@@@@ATL@@QAE@XZ
  000de	8d 4d 0c	 lea	 ecx, DWORD PTR _strInsideData$[ebp]
  000e1	ff 15 00 00 00
	00		 call	 DWORD PTR __imp_??1?$CStringT@DV?$StrTraitMFC_DLL@DV?$ChTraitsCRT@D@ATL@@@@@ATL@@QAE@XZ
  000e7	8b c6		 mov	 eax, esi

; 1060 : }

  000e9	8b 4d f4	 mov	 ecx, DWORD PTR __$EHRec$[ebp]
  000ec	64 89 0d 00 00
	00 00		 mov	 DWORD PTR fs:0, ecx
  000f3	59		 pop	 ecx
  000f4	5e		 pop	 esi
  000f5	8b e5		 mov	 esp, ebp
  000f7	5d		 pop	 ebp
  000f8	c3		 ret	 0
_TEXT	ENDS
;	COMDAT text$x
text$x	SEGMENT
__unwindfunclet$?GetStringData@CDataConversion@@SA?AV?$CStringT@DV?$StrTraitMFC_DLL@DV?$ChTraitsCRT@D@ATL@@@@@ATL@@AAV23@ABV23@1_N@Z$2:
  00000	8d 4d 0c	 lea	 ecx, DWORD PTR _strInsideData$[ebp]
  00003	ff 25 00 00 00
	00		 jmp	 DWORD PTR __imp_??1?$CStringT@DV?$StrTraitMFC_DLL@DV?$ChTraitsCRT@D@ATL@@@@@ATL@@QAE@XZ
__unwindfunclet$?GetStringData@CDataConversion@@SA?AV?$CStringT@DV?$StrTraitMFC_DLL@DV?$ChTraitsCRT@D@ATL@@@@@ATL@@AAV23@ABV23@1_N@Z$3:
  00009	8d 4d ec	 lea	 ecx, DWORD PTR $T2[ebp]
  0000c	ff 25 00 00 00
	00		 jmp	 DWORD PTR __imp_??1?$CStringT@DV?$StrTraitMFC_DLL@DV?$ChTraitsCRT@D@ATL@@@@@ATL@@QAE@XZ
  00012	cc		 int	 3
  00013	cc		 int	 3
  00014	cc		 int	 3
  00015	cc		 int	 3
  00016	cc		 int	 3
__ehhandler$?GetStringData@CDataConversion@@SA?AV?$CStringT@DV?$StrTraitMFC_DLL@DV?$ChTraitsCRT@D@ATL@@@@@ATL@@AAV23@ABV23@1_N@Z:
  00017	90		 npad	 1
  00018	90		 npad	 1
  00019	8b 54 24 08	 mov	 edx, DWORD PTR [esp+8]
  0001d	8d 42 0c	 lea	 eax, DWORD PTR [edx+12]
  00020	8b 4a f0	 mov	 ecx, DWORD PTR [edx-16]
  00023	33 c8		 xor	 ecx, eax
  00025	e8 00 00 00 00	 call	 @__security_check_cookie@4
  0002a	b8 00 00 00 00	 mov	 eax, OFFSET __ehfuncinfo$?GetStringData@CDataConversion@@SA?AV?$CStringT@DV?$StrTraitMFC_DLL@DV?$ChTraitsCRT@D@ATL@@@@@ATL@@AAV23@ABV23@1_N@Z
  0002f	e9 00 00 00 00	 jmp	 ___CxxFrameHandler3
text$x	ENDS
?GetStringData@CDataConversion@@SA?AV?$CStringT@DV?$StrTraitMFC_DLL@DV?$ChTraitsCRT@D@ATL@@@@@ATL@@AAV23@ABV23@1_N@Z ENDP ; CDataConversion::GetStringData
; Function compile flags: /Ogtp
; File D:\git\src\IBK\IBK_DRFN\ProjSrc\SrcDrfn\Chart\chart_common\DataList\Conversion.cpp
; File C:\Program Files (x86)\Microsoft Visual Studio\2019\Community\VC\Tools\MSVC\14.29.30133\atlmfc\include\atlsimpstr.h
; File D:\git\src\IBK\IBK_DRFN\ProjSrc\SrcDrfn\Chart\chart_common\DataList\Conversion.cpp
; File C:\Program Files (x86)\Microsoft Visual Studio\2019\Community\VC\Tools\MSVC\14.29.30133\atlmfc\include\atlsimpstr.h
; File D:\git\src\IBK\IBK_DRFN\ProjSrc\SrcDrfn\Chart\chart_common\DataList\Conversion.cpp
; File C:\Program Files (x86)\Microsoft Visual Studio\2019\Community\VC\Tools\MSVC\14.29.30133\atlmfc\include\atlsimpstr.h
; File D:\git\src\IBK\IBK_DRFN\ProjSrc\SrcDrfn\Chart\chart_common\DataList\Conversion.cpp
; File C:\Program Files (x86)\Microsoft Visual Studio\2019\Community\VC\Tools\MSVC\14.29.30133\atlmfc\include\atlsimpstr.h
; File D:\git\src\IBK\IBK_DRFN\ProjSrc\SrcDrfn\Chart\chart_common\DataList\Conversion.cpp
; File C:\Program Files (x86)\Microsoft Visual Studio\2019\Community\VC\Tools\MSVC\14.29.30133\atlmfc\include\atlsimpstr.h
; File D:\git\src\IBK\IBK_DRFN\ProjSrc\SrcDrfn\Chart\chart_common\DataList\Conversion.cpp
; File C:\Program Files (x86)\Microsoft Visual Studio\2019\Community\VC\Tools\MSVC\14.29.30133\atlmfc\include\atlsimpstr.h
; File D:\git\src\IBK\IBK_DRFN\ProjSrc\SrcDrfn\Chart\chart_common\DataList\Conversion.cpp
;	COMDAT ?GetStringData@CDataConversion@@SA?AV?$CStringT@DV?$StrTraitMFC_DLL@DV?$ChTraitsCRT@D@ATL@@@@@ATL@@AAV23@ABV23@_N@Z
_TEXT	SEGMENT
_length$1$ = -20					; size = 4
$T2 = -20						; size = 4
$T3 = -16						; size = 4
__$EHRec$ = -12						; size = 12
___$ReturnUdt$ = 8					; size = 4
_retData$ = 12						; size = 4
_data$ = 12						; size = 4
_trimData$ = 16						; size = 4
_bIsInside$ = 20					; size = 1
?GetStringData@CDataConversion@@SA?AV?$CStringT@DV?$StrTraitMFC_DLL@DV?$ChTraitsCRT@D@ATL@@@@@ATL@@AAV23@ABV23@_N@Z PROC ; CDataConversion::GetStringData, COMDAT

; 1030 : {

  00000	55		 push	 ebp
  00001	8b ec		 mov	 ebp, esp
  00003	6a ff		 push	 -1
  00005	68 00 00 00 00	 push	 __ehhandler$?GetStringData@CDataConversion@@SA?AV?$CStringT@DV?$StrTraitMFC_DLL@DV?$ChTraitsCRT@D@ATL@@@@@ATL@@AAV23@ABV23@_N@Z
  0000a	64 a1 00 00 00
	00		 mov	 eax, DWORD PTR fs:0
  00010	50		 push	 eax
  00011	83 ec 08	 sub	 esp, 8
  00014	53		 push	 ebx
  00015	56		 push	 esi
  00016	57		 push	 edi
  00017	a1 00 00 00 00	 mov	 eax, DWORD PTR ___security_cookie
  0001c	33 c5		 xor	 eax, ebp
  0001e	50		 push	 eax
  0001f	8d 45 f4	 lea	 eax, DWORD PTR __$EHRec$[ebp]
  00022	64 a3 00 00 00
	00		 mov	 DWORD PTR fs:0, eax
; File C:\Program Files (x86)\Microsoft Visual Studio\2019\Community\VC\Tools\MSVC\14.29.30133\atlmfc\include\atlsimpstr.h

; 519  : 		return( GetData()->nDataLength );

  00028	8b 75 0c	 mov	 esi, DWORD PTR _data$[ebp]
  0002b	8b 06		 mov	 eax, DWORD PTR [esi]

; 533  : 		return( GetLength() == 0 );

  0002d	83 78 f4 00	 cmp	 DWORD PTR [eax-12], 0
; File D:\git\src\IBK\IBK_DRFN\ProjSrc\SrcDrfn\Chart\chart_common\DataList\Conversion.cpp

; 1031 : 	if(data.IsEmpty())

  00031	0f 84 da 00 00
	00		 je	 $LN28@GetStringD
; File C:\Program Files (x86)\Microsoft Visual Studio\2019\Community\VC\Tools\MSVC\14.29.30133\atlmfc\include\atlsimpstr.h

; 377  : 		return( m_pszData );

  00037	8b 5d 10	 mov	 ebx, DWORD PTR _trimData$[ebp]
; File D:\git\src\IBK\IBK_DRFN\ProjSrc\SrcDrfn\Chart\chart_common\DataList\Conversion.cpp

; 1034 : 	int count = data.Find(trimData);

  0003a	8b ce		 mov	 ecx, esi
  0003c	6a 00		 push	 0
  0003e	ff 33		 push	 DWORD PTR [ebx]
  00040	ff 15 00 00 00
	00		 call	 DWORD PTR __imp_?Find@?$CStringT@DV?$StrTraitMFC_DLL@DV?$ChTraitsCRT@D@ATL@@@@@ATL@@QBEHPBDH@Z
  00046	8b f8		 mov	 edi, eax

; 1035 : 	if(count < 0)

  00048	85 ff		 test	 edi, edi
  0004a	0f 88 c1 00 00
	00		 js	 $LN28@GetStringD
; File C:\Program Files (x86)\Microsoft Visual Studio\2019\Community\VC\Tools\MSVC\14.29.30133\atlmfc\include\atlsimpstr.h

; 519  : 		return( GetData()->nDataLength );

  00050	8b 0e		 mov	 ecx, DWORD PTR [esi]
  00052	8b 41 f4	 mov	 eax, DWORD PTR [ecx-12]
; File D:\git\src\IBK\IBK_DRFN\ProjSrc\SrcDrfn\Chart\chart_common\DataList\Conversion.cpp

; 1039 : 	CString retData;

  00055	8d 4d 0c	 lea	 ecx, DWORD PTR _retData$[ebp]
; File C:\Program Files (x86)\Microsoft Visual Studio\2019\Community\VC\Tools\MSVC\14.29.30133\atlmfc\include\atlsimpstr.h

; 519  : 		return( GetData()->nDataLength );

  00058	89 45 ec	 mov	 DWORD PTR _length$1$[ebp], eax
; File D:\git\src\IBK\IBK_DRFN\ProjSrc\SrcDrfn\Chart\chart_common\DataList\Conversion.cpp

; 1039 : 	CString retData;

  0005b	ff 15 00 00 00
	00		 call	 DWORD PTR __imp_??0?$CStringT@DV?$StrTraitMFC_DLL@DV?$ChTraitsCRT@D@ATL@@@@@ATL@@QAE@XZ
  00061	c7 45 fc 00 00
	00 00		 mov	 DWORD PTR __$EHRec$[ebp+8], 0

; 1040 : 	if(count > 0)

  00068	85 ff		 test	 edi, edi
  0006a	7e 28		 jle	 SHORT $LN4@GetStringD

; 1041 : 		retData = data.Left(count);

  0006c	57		 push	 edi
  0006d	8d 45 f0	 lea	 eax, DWORD PTR $T3[ebp]
  00070	8b ce		 mov	 ecx, esi
  00072	50		 push	 eax
  00073	ff 15 00 00 00
	00		 call	 DWORD PTR __imp_?Left@?$CStringT@DV?$StrTraitMFC_DLL@DV?$ChTraitsCRT@D@ATL@@@@@ATL@@QBE?AV12@H@Z
  00079	50		 push	 eax
  0007a	8d 4d 0c	 lea	 ecx, DWORD PTR _retData$[ebp]
  0007d	c6 45 fc 01	 mov	 BYTE PTR __$EHRec$[ebp+8], 1
  00081	ff 15 00 00 00
	00		 call	 DWORD PTR __imp_??4?$CStringT@DV?$StrTraitMFC_DLL@DV?$ChTraitsCRT@D@ATL@@@@@ATL@@QAEAAV01@ABV01@@Z
  00087	8d 4d f0	 lea	 ecx, DWORD PTR $T3[ebp]
  0008a	c6 45 fc 00	 mov	 BYTE PTR __$EHRec$[ebp+8], 0
  0008e	ff 15 00 00 00
	00		 call	 DWORD PTR __imp_??1?$CStringT@DV?$StrTraitMFC_DLL@DV?$ChTraitsCRT@D@ATL@@@@@ATL@@QAE@XZ
$LN4@GetStringD:
; File C:\Program Files (x86)\Microsoft Visual Studio\2019\Community\VC\Tools\MSVC\14.29.30133\atlmfc\include\atlsimpstr.h

; 519  : 		return( GetData()->nDataLength );

  00094	8b 03		 mov	 eax, DWORD PTR [ebx]
; File D:\git\src\IBK\IBK_DRFN\ProjSrc\SrcDrfn\Chart\chart_common\DataList\Conversion.cpp

; 1042 : 	data = data.Mid(count+trimData.GetLength(), length - count);

  00096	8b 4d ec	 mov	 ecx, DWORD PTR _length$1$[ebp]
  00099	2b cf		 sub	 ecx, edi
  0009b	51		 push	 ecx
; File C:\Program Files (x86)\Microsoft Visual Studio\2019\Community\VC\Tools\MSVC\14.29.30133\atlmfc\include\atlsimpstr.h

; 519  : 		return( GetData()->nDataLength );

  0009c	8b 40 f4	 mov	 eax, DWORD PTR [eax-12]
; File D:\git\src\IBK\IBK_DRFN\ProjSrc\SrcDrfn\Chart\chart_common\DataList\Conversion.cpp

; 1042 : 	data = data.Mid(count+trimData.GetLength(), length - count);

  0009f	8b ce		 mov	 ecx, esi
  000a1	03 c7		 add	 eax, edi
  000a3	50		 push	 eax
  000a4	8d 45 ec	 lea	 eax, DWORD PTR $T2[ebp]
  000a7	50		 push	 eax
  000a8	ff 15 00 00 00
	00		 call	 DWORD PTR __imp_?Mid@?$CStringT@DV?$StrTraitMFC_DLL@DV?$ChTraitsCRT@D@ATL@@@@@ATL@@QBE?AV12@HH@Z
  000ae	50		 push	 eax
  000af	8b ce		 mov	 ecx, esi
  000b1	c6 45 fc 02	 mov	 BYTE PTR __$EHRec$[ebp+8], 2
  000b5	ff 15 00 00 00
	00		 call	 DWORD PTR __imp_??4?$CStringT@DV?$StrTraitMFC_DLL@DV?$ChTraitsCRT@D@ATL@@@@@ATL@@QAEAAV01@ABV01@@Z
  000bb	8d 4d ec	 lea	 ecx, DWORD PTR $T2[ebp]
  000be	c6 45 fc 00	 mov	 BYTE PTR __$EHRec$[ebp+8], 0
  000c2	ff 15 00 00 00
	00		 call	 DWORD PTR __imp_??1?$CStringT@DV?$StrTraitMFC_DLL@DV?$ChTraitsCRT@D@ATL@@@@@ATL@@QAE@XZ

; 1043 : 
; 1044 : 	if(bIsInside)

  000c8	80 7d 14 00	 cmp	 BYTE PTR _bIsInside$[ebp], 0
  000cc	8d 45 0c	 lea	 eax, DWORD PTR _retData$[ebp]
  000cf	74 15		 je	 SHORT $LN5@GetStringD

; 1045 : 		return retData;

  000d1	8b 4d 08	 mov	 ecx, DWORD PTR ___$ReturnUdt$[ebp]
  000d4	50		 push	 eax
  000d5	ff 15 00 00 00
	00		 call	 DWORD PTR __imp_??0?$CStringT@DV?$StrTraitMFC_DLL@DV?$ChTraitsCRT@D@ATL@@@@@ATL@@QAE@ABV01@@Z
  000db	8d 4d 0c	 lea	 ecx, DWORD PTR _retData$[ebp]
  000de	ff 15 00 00 00
	00		 call	 DWORD PTR __imp_??1?$CStringT@DV?$StrTraitMFC_DLL@DV?$ChTraitsCRT@D@ATL@@@@@ATL@@QAE@XZ
  000e4	eb 39		 jmp	 SHORT $LN30@GetStringD
$LN5@GetStringD:

; 1046 : 	return (retData + trimData);

  000e6	8b 75 08	 mov	 esi, DWORD PTR ___$ReturnUdt$[ebp]
  000e9	53		 push	 ebx
  000ea	50		 push	 eax
  000eb	56		 push	 esi
  000ec	e8 00 00 00 00	 call	 ??HATL@@YA?AV?$CStringT@DV?$StrTraitMFC_DLL@DV?$ChTraitsCRT@D@ATL@@@@@0@ABV10@0@Z ; ATL::operator+
  000f1	83 c4 0c	 add	 esp, 12			; 0000000cH
  000f4	8d 4d 0c	 lea	 ecx, DWORD PTR _retData$[ebp]
  000f7	ff 15 00 00 00
	00		 call	 DWORD PTR __imp_??1?$CStringT@DV?$StrTraitMFC_DLL@DV?$ChTraitsCRT@D@ATL@@@@@ATL@@QAE@XZ
  000fd	8b c6		 mov	 eax, esi

; 1047 : }

  000ff	8b 4d f4	 mov	 ecx, DWORD PTR __$EHRec$[ebp]
  00102	64 89 0d 00 00
	00 00		 mov	 DWORD PTR fs:0, ecx
  00109	59		 pop	 ecx
  0010a	5f		 pop	 edi
  0010b	5e		 pop	 esi
  0010c	5b		 pop	 ebx
  0010d	8b e5		 mov	 esp, ebp
  0010f	5d		 pop	 ebp
  00110	c3		 ret	 0
$LN28@GetStringD:

; 1036 : 		return "";

  00111	8b 4d 08	 mov	 ecx, DWORD PTR ___$ReturnUdt$[ebp]
  00114	68 00 00 00 00	 push	 OFFSET ??_C@_00CNPNBAHC@@
  00119	ff 15 00 00 00
	00		 call	 DWORD PTR __imp_??0?$CStringT@DV?$StrTraitMFC_DLL@DV?$ChTraitsCRT@D@ATL@@@@@ATL@@QAE@PBD@Z
$LN30@GetStringD:

; 1047 : }

  0011f	8b 45 08	 mov	 eax, DWORD PTR ___$ReturnUdt$[ebp]
  00122	8b 4d f4	 mov	 ecx, DWORD PTR __$EHRec$[ebp]
  00125	64 89 0d 00 00
	00 00		 mov	 DWORD PTR fs:0, ecx
  0012c	59		 pop	 ecx
  0012d	5f		 pop	 edi
  0012e	5e		 pop	 esi
  0012f	5b		 pop	 ebx
  00130	8b e5		 mov	 esp, ebp
  00132	5d		 pop	 ebp
  00133	c3		 ret	 0
_TEXT	ENDS
;	COMDAT text$x
text$x	SEGMENT
__unwindfunclet$?GetStringData@CDataConversion@@SA?AV?$CStringT@DV?$StrTraitMFC_DLL@DV?$ChTraitsCRT@D@ATL@@@@@ATL@@AAV23@ABV23@_N@Z$1:
  00000	8d 4d 0c	 lea	 ecx, DWORD PTR _retData$[ebp]
  00003	ff 25 00 00 00
	00		 jmp	 DWORD PTR __imp_??1?$CStringT@DV?$StrTraitMFC_DLL@DV?$ChTraitsCRT@D@ATL@@@@@ATL@@QAE@XZ
__unwindfunclet$?GetStringData@CDataConversion@@SA?AV?$CStringT@DV?$StrTraitMFC_DLL@DV?$ChTraitsCRT@D@ATL@@@@@ATL@@AAV23@ABV23@_N@Z$2:
  00009	8d 4d f0	 lea	 ecx, DWORD PTR $T3[ebp]
  0000c	ff 25 00 00 00
	00		 jmp	 DWORD PTR __imp_??1?$CStringT@DV?$StrTraitMFC_DLL@DV?$ChTraitsCRT@D@ATL@@@@@ATL@@QAE@XZ
__unwindfunclet$?GetStringData@CDataConversion@@SA?AV?$CStringT@DV?$StrTraitMFC_DLL@DV?$ChTraitsCRT@D@ATL@@@@@ATL@@AAV23@ABV23@_N@Z$3:
  00012	8d 4d ec	 lea	 ecx, DWORD PTR $T2[ebp]
  00015	ff 25 00 00 00
	00		 jmp	 DWORD PTR __imp_??1?$CStringT@DV?$StrTraitMFC_DLL@DV?$ChTraitsCRT@D@ATL@@@@@ATL@@QAE@XZ
  0001b	cc		 int	 3
  0001c	cc		 int	 3
  0001d	cc		 int	 3
  0001e	cc		 int	 3
  0001f	cc		 int	 3
__ehhandler$?GetStringData@CDataConversion@@SA?AV?$CStringT@DV?$StrTraitMFC_DLL@DV?$ChTraitsCRT@D@ATL@@@@@ATL@@AAV23@ABV23@_N@Z:
  00020	90		 npad	 1
  00021	90		 npad	 1
  00022	8b 54 24 08	 mov	 edx, DWORD PTR [esp+8]
  00026	8d 42 0c	 lea	 eax, DWORD PTR [edx+12]
  00029	8b 4a e8	 mov	 ecx, DWORD PTR [edx-24]
  0002c	33 c8		 xor	 ecx, eax
  0002e	e8 00 00 00 00	 call	 @__security_check_cookie@4
  00033	b8 00 00 00 00	 mov	 eax, OFFSET __ehfuncinfo$?GetStringData@CDataConversion@@SA?AV?$CStringT@DV?$StrTraitMFC_DLL@DV?$ChTraitsCRT@D@ATL@@@@@ATL@@AAV23@ABV23@_N@Z
  00038	e9 00 00 00 00	 jmp	 ___CxxFrameHandler3
text$x	ENDS
?GetStringData@CDataConversion@@SA?AV?$CStringT@DV?$StrTraitMFC_DLL@DV?$ChTraitsCRT@D@ATL@@@@@ATL@@AAV23@ABV23@_N@Z ENDP ; CDataConversion::GetStringData
; Function compile flags: /Ogtp
; File D:\git\src\IBK\IBK_DRFN\ProjSrc\SrcDrfn\Chart\chart_common\DataList\Conversion.cpp
;	COMDAT ?GetSpecialTime@CDataConversion@@SA_NABV?$CStringT@DV?$StrTraitMFC_DLL@DV?$ChTraitsCRT@D@ATL@@@@@ATL@@0AAV23@@Z
_TEXT	SEGMENT
_strFormat$ = 8						; size = 4
_strData$ = 12						; size = 4
_strSpecialTime$ = 16					; size = 4
?GetSpecialTime@CDataConversion@@SA_NABV?$CStringT@DV?$StrTraitMFC_DLL@DV?$ChTraitsCRT@D@ATL@@@@@ATL@@0AAV23@@Z PROC ; CDataConversion::GetSpecialTime, COMDAT

; 2138 : {

  00000	55		 push	 ebp
  00001	8b ec		 mov	 ebp, esp

; 2139 : 	if(strFormat.GetLength() < 4 || strFormat.Find("HHMM") == -1)

  00003	8b 4d 08	 mov	 ecx, DWORD PTR _strFormat$[ebp]
  00006	56		 push	 esi
  00007	8b 01		 mov	 eax, DWORD PTR [ecx]
  00009	83 78 f4 04	 cmp	 DWORD PTR [eax-12], 4
  0000d	0f 8c b5 00 00
	00		 jl	 $LN3@GetSpecial
  00013	6a 00		 push	 0
  00015	68 00 00 00 00	 push	 OFFSET ??_C@_04DCGLEEGD@HHMM@
  0001a	ff 15 00 00 00
	00		 call	 DWORD PTR __imp_?Find@?$CStringT@DV?$StrTraitMFC_DLL@DV?$ChTraitsCRT@D@ATL@@@@@ATL@@QBEHPBDH@Z
  00020	83 f8 ff	 cmp	 eax, -1
  00023	0f 84 9f 00 00
	00		 je	 $LN3@GetSpecial

; 2141 : 
; 2142 : 	if(strData.Find("6666") != -1)

  00029	8b 75 0c	 mov	 esi, DWORD PTR _strData$[ebp]
  0002c	8b ce		 mov	 ecx, esi
  0002e	6a 00		 push	 0
  00030	68 00 00 00 00	 push	 OFFSET ??_C@_04GLAGOKOO@6666@
  00035	ff 15 00 00 00
	00		 call	 DWORD PTR __imp_?Find@?$CStringT@DV?$StrTraitMFC_DLL@DV?$ChTraitsCRT@D@ATL@@@@@ATL@@QBEHPBDH@Z
  0003b	83 f8 ff	 cmp	 eax, -1
  0003e	74 13		 je	 SHORT $LN4@GetSpecial

; 2143 : 	{
; 2144 : 		strSpecialTime = "";

  00040	8b 4d 10	 mov	 ecx, DWORD PTR _strSpecialTime$[ebp]
  00043	68 00 00 00 00	 push	 OFFSET ??_C@_08GKOAFHAP@?$MA?e?$MA?$PM?A?$LO?$LH?a@
  00048	ff 15 00 00 00
	00		 call	 DWORD PTR __imp_??4?$CStringT@DV?$StrTraitMFC_DLL@DV?$ChTraitsCRT@D@ATL@@@@@ATL@@QAEAAV01@PBD@Z

; 2145 : 		return true;

  0004e	b0 01		 mov	 al, 1
  00050	5e		 pop	 esi

; 2161 : 	}
; 2162 : 
; 2163 : 	return false;
; 2164 : }

  00051	5d		 pop	 ebp
  00052	c3		 ret	 0
$LN4@GetSpecial:

; 2146 : 	}
; 2147 : 	else if(strData.Find("7777") != -1)

  00053	6a 00		 push	 0
  00055	68 00 00 00 00	 push	 OFFSET ??_C@_04PGADPPEN@7777@
  0005a	8b ce		 mov	 ecx, esi
  0005c	ff 15 00 00 00
	00		 call	 DWORD PTR __imp_?Find@?$CStringT@DV?$StrTraitMFC_DLL@DV?$ChTraitsCRT@D@ATL@@@@@ATL@@QBEHPBDH@Z
  00062	83 f8 ff	 cmp	 eax, -1
  00065	74 13		 je	 SHORT $LN6@GetSpecial

; 2148 : 	{
; 2149 : 		strSpecialTime = "";

  00067	8b 4d 10	 mov	 ecx, DWORD PTR _strSpecialTime$[ebp]
  0006a	68 00 00 00 00	 push	 OFFSET ??_C@_0L@HMKJBHCK@?$MA?e?$LI?$LG?$LA?$KI?A?$LO?$LH?a@
  0006f	ff 15 00 00 00
	00		 call	 DWORD PTR __imp_??4?$CStringT@DV?$StrTraitMFC_DLL@DV?$ChTraitsCRT@D@ATL@@@@@ATL@@QAEAAV01@PBD@Z

; 2150 : 		return true;

  00075	b0 01		 mov	 al, 1
  00077	5e		 pop	 esi

; 2161 : 	}
; 2162 : 
; 2163 : 	return false;
; 2164 : }

  00078	5d		 pop	 ebp
  00079	c3		 ret	 0
$LN6@GetSpecial:

; 2151 : 	}
; 2152 : 	else if(strData.Find("8888") != -1)

  0007a	6a 00		 push	 0
  0007c	68 00 00 00 00	 push	 OFFSET ??_C@_04KAPECDDI@8888@
  00081	8b ce		 mov	 ecx, esi
  00083	ff 15 00 00 00
	00		 call	 DWORD PTR __imp_?Find@?$CStringT@DV?$StrTraitMFC_DLL@DV?$ChTraitsCRT@D@ATL@@@@@ATL@@QBEHPBDH@Z
  00089	83 f8 ff	 cmp	 eax, -1
  0008c	74 13		 je	 SHORT $LN8@GetSpecial

; 2153 : 	{
; 2154 : 		strSpecialTime = "";

  0008e	8b 4d 10	 mov	 ecx, DWORD PTR _strSpecialTime$[ebp]
  00091	68 00 00 00 00	 push	 OFFSET ??_C@_06FDCJKPFJ@?$MA?e?$LI?$LG?$LA?$KI@
  00096	ff 15 00 00 00
	00		 call	 DWORD PTR __imp_??4?$CStringT@DV?$StrTraitMFC_DLL@DV?$ChTraitsCRT@D@ATL@@@@@ATL@@QAEAAV01@PBD@Z

; 2155 : 		return true;

  0009c	b0 01		 mov	 al, 1
  0009e	5e		 pop	 esi

; 2161 : 	}
; 2162 : 
; 2163 : 	return false;
; 2164 : }

  0009f	5d		 pop	 ebp
  000a0	c3		 ret	 0
$LN8@GetSpecial:

; 2156 : 	}
; 2157 : 	else if(strData.Find("9999") != -1)

  000a1	6a 00		 push	 0
  000a3	68 00 00 00 00	 push	 OFFSET ??_C@_04DNPBDGJL@9999@
  000a8	8b ce		 mov	 ecx, esi
  000aa	ff 15 00 00 00
	00		 call	 DWORD PTR __imp_?Find@?$CStringT@DV?$StrTraitMFC_DLL@DV?$ChTraitsCRT@D@ATL@@@@@ATL@@QBEHPBDH@Z
  000b0	83 f8 ff	 cmp	 eax, -1
  000b3	74 13		 je	 SHORT $LN3@GetSpecial

; 2158 : 	{
; 2159 : 		strSpecialTime = "";

  000b5	8b 4d 10	 mov	 ecx, DWORD PTR _strSpecialTime$[ebp]
  000b8	68 00 00 00 00	 push	 OFFSET ??_C@_06BINLOPDK@?$LN?C?$LA?$KD?$LP?$NM@
  000bd	ff 15 00 00 00
	00		 call	 DWORD PTR __imp_??4?$CStringT@DV?$StrTraitMFC_DLL@DV?$ChTraitsCRT@D@ATL@@@@@ATL@@QAEAAV01@PBD@Z

; 2160 : 		return true;

  000c3	b0 01		 mov	 al, 1
  000c5	5e		 pop	 esi

; 2161 : 	}
; 2162 : 
; 2163 : 	return false;
; 2164 : }

  000c6	5d		 pop	 ebp
  000c7	c3		 ret	 0
$LN3@GetSpecial:

; 2140 : 		return false;

  000c8	32 c0		 xor	 al, al
  000ca	5e		 pop	 esi

; 2161 : 	}
; 2162 : 
; 2163 : 	return false;
; 2164 : }

  000cb	5d		 pop	 ebp
  000cc	c3		 ret	 0
?GetSpecialTime@CDataConversion@@SA_NABV?$CStringT@DV?$StrTraitMFC_DLL@DV?$ChTraitsCRT@D@ATL@@@@@ATL@@0AAV23@@Z ENDP ; CDataConversion::GetSpecialTime
_TEXT	ENDS
; Function compile flags: /Ogtp
; File D:\git\src\IBK\IBK_DRFN\ProjSrc\SrcDrfn\Chart\chart_common\DataList\Conversion.cpp
; File C:\Program Files (x86)\Microsoft Visual Studio\2019\Community\VC\Tools\MSVC\14.29.30133\atlmfc\include\atlsimpstr.h
; File D:\git\src\IBK\IBK_DRFN\ProjSrc\SrcDrfn\Chart\chart_common\DataList\Conversion.cpp
; File C:\Program Files (x86)\Microsoft Visual Studio\2019\Community\VC\Tools\MSVC\14.29.30133\atlmfc\include\atlsimpstr.h
; File D:\git\src\IBK\IBK_DRFN\ProjSrc\SrcDrfn\Chart\chart_common\DataList\Conversion.cpp
;	COMDAT ?CalcDateFormat@CDataConversion@@SAHHHABV?$CStringT@DV?$StrTraitMFC_DLL@DV?$ChTraitsCRT@D@ATL@@@@@ATL@@HH@Z
_TEXT	SEGMENT
_len$3$ = -40						; size = 4
_len$2$ = -40						; size = 4
$T2 = -40						; size = 4
$T3 = -40						; size = 4
$T4 = -40						; size = 4
$T5 = -36						; size = 4
_year_c$ = -36						; size = 4
$T6 = -32						; size = 4
_mon_c$ = -32						; size = 4
$T7 = -28						; size = 4
$T8 = -28						; size = 4
$T9 = -28						; size = 4
$T10 = -28						; size = 4
_retStr$ = -24						; size = 4
_day_c$ = -20						; size = 4
_strDate$ = -16						; size = 4
__$EHRec$ = -12						; size = 12
_nValue$ = 8						; size = 4
_nCharge$ = 12						; size = 4
$T11 = 16						; size = 4
_mon$ = 16						; size = 4
_year$ = 16						; size = 4
_strFormat$ = 16					; size = 4
_nCalcType$ = 20					; size = 4
_nInterval$ = 24					; size = 4
?CalcDateFormat@CDataConversion@@SAHHHABV?$CStringT@DV?$StrTraitMFC_DLL@DV?$ChTraitsCRT@D@ATL@@@@@ATL@@HH@Z PROC ; CDataConversion::CalcDateFormat, COMDAT

; 971  : {

  00000	55		 push	 ebp
  00001	8b ec		 mov	 ebp, esp
  00003	6a ff		 push	 -1
  00005	68 00 00 00 00	 push	 __ehhandler$?CalcDateFormat@CDataConversion@@SAHHHABV?$CStringT@DV?$StrTraitMFC_DLL@DV?$ChTraitsCRT@D@ATL@@@@@ATL@@HH@Z
  0000a	64 a1 00 00 00
	00		 mov	 eax, DWORD PTR fs:0
  00010	50		 push	 eax
  00011	83 ec 1c	 sub	 esp, 28			; 0000001cH
  00014	53		 push	 ebx
  00015	56		 push	 esi
  00016	57		 push	 edi
  00017	a1 00 00 00 00	 mov	 eax, DWORD PTR ___security_cookie
  0001c	33 c5		 xor	 eax, ebp
  0001e	50		 push	 eax
  0001f	8d 45 f4	 lea	 eax, DWORD PTR __$EHRec$[ebp]
  00022	64 a3 00 00 00
	00		 mov	 DWORD PTR fs:0, eax
; File C:\Program Files (x86)\Microsoft Visual Studio\2019\Community\VC\Tools\MSVC\14.29.30133\atlmfc\include\atlsimpstr.h

; 519  : 		return( GetData()->nDataLength );

  00028	8b 75 10	 mov	 esi, DWORD PTR _strFormat$[ebp]
  0002b	8b 06		 mov	 eax, DWORD PTR [esi]

; 533  : 		return( GetLength() == 0 );

  0002d	83 78 f4 00	 cmp	 DWORD PTR [eax-12], 0
; File D:\git\src\IBK\IBK_DRFN\ProjSrc\SrcDrfn\Chart\chart_common\DataList\Conversion.cpp

; 972  : 	if(strFormat.IsEmpty())

  00031	0f 84 1e 03 00
	00		 je	 $LN48@CalcDateFo

; 973  : 		return 0;
; 974  : 	
; 975  : 	int year, mon, day = 0, len, year_c, mon_c, day_c = 0;
; 976  : 	if(OnPickoutDate(abs(nCharge), strFormat, nCalcType, year_c, mon_c, day_c) == false)

  00037	8d 45 ec	 lea	 eax, DWORD PTR _day_c$[ebp]
  0003a	33 ff		 xor	 edi, edi
  0003c	50		 push	 eax
  0003d	8d 45 e0	 lea	 eax, DWORD PTR _mon_c$[ebp]
  00040	89 7d ec	 mov	 DWORD PTR _day_c$[ebp], edi
  00043	50		 push	 eax
  00044	8d 45 dc	 lea	 eax, DWORD PTR _year_c$[ebp]
  00047	50		 push	 eax
  00048	8b 45 0c	 mov	 eax, DWORD PTR _nCharge$[ebp]
  0004b	ff 75 14	 push	 DWORD PTR _nCalcType$[ebp]
  0004e	99		 cdq
  0004f	33 c2		 xor	 eax, edx
  00051	2b c2		 sub	 eax, edx
  00053	56		 push	 esi
  00054	50		 push	 eax
  00055	e8 00 00 00 00	 call	 ?OnPickoutDate@CDataConversion@@CA_NHABV?$CStringT@DV?$StrTraitMFC_DLL@DV?$ChTraitsCRT@D@ATL@@@@@ATL@@HAAH11@Z ; CDataConversion::OnPickoutDate
  0005a	83 c4 18	 add	 esp, 24			; 00000018H
  0005d	84 c0		 test	 al, al
  0005f	0f 84 f0 02 00
	00		 je	 $LN48@CalcDateFo
; File C:\Program Files (x86)\Microsoft Visual Studio\2019\Community\VC\Tools\MSVC\14.29.30133\atlmfc\include\atlsimpstr.h

; 519  : 		return( GetData()->nDataLength );

  00065	8b 06		 mov	 eax, DWORD PTR [esi]
; File D:\git\src\IBK\IBK_DRFN\ProjSrc\SrcDrfn\Chart\chart_common\DataList\Conversion.cpp

; 980  : 	CString strDate = IntToString(nValue, strFormat.GetLength());

  00067	ff 70 f4	 push	 DWORD PTR [eax-12]
  0006a	8d 45 f0	 lea	 eax, DWORD PTR _strDate$[ebp]
  0006d	ff 75 08	 push	 DWORD PTR _nValue$[ebp]
  00070	50		 push	 eax
  00071	e8 00 00 00 00	 call	 ?IntToString@CDataConversion@@SA?AV?$CStringT@DV?$StrTraitMFC_DLL@DV?$ChTraitsCRT@D@ATL@@@@@ATL@@HH@Z ; CDataConversion::IntToString
  00076	83 c4 0c	 add	 esp, 12			; 0000000cH

; 981  : 	if((len = GetStringDataCount(strFormat, "Y")) > 0)

  00079	68 00 00 00 00	 push	 OFFSET ??_C@_01NFFPALBN@Y@
  0007e	8d 4d e4	 lea	 ecx, DWORD PTR $T10[ebp]
  00081	89 7d fc	 mov	 DWORD PTR __$EHRec$[ebp+8], edi
  00084	ff 15 00 00 00
	00		 call	 DWORD PTR __imp_??0?$CStringT@DV?$StrTraitMFC_DLL@DV?$ChTraitsCRT@D@ATL@@@@@ATL@@QAE@PBD@Z
  0008a	8d 45 e4	 lea	 eax, DWORD PTR $T10[ebp]
  0008d	c6 45 fc 01	 mov	 BYTE PTR __$EHRec$[ebp+8], 1
  00091	50		 push	 eax
  00092	56		 push	 esi
  00093	e8 00 00 00 00	 call	 ?GetStringDataCount@CDataConversion@@SAHABV?$CStringT@DV?$StrTraitMFC_DLL@DV?$ChTraitsCRT@D@ATL@@@@@ATL@@0@Z ; CDataConversion::GetStringDataCount
  00098	83 c4 08	 add	 esp, 8
  0009b	c6 45 fc 00	 mov	 BYTE PTR __$EHRec$[ebp+8], 0
  0009f	8d 4d e4	 lea	 ecx, DWORD PTR $T10[ebp]
  000a2	8b d8		 mov	 ebx, eax
  000a4	ff 15 00 00 00
	00		 call	 DWORD PTR __imp_??1?$CStringT@DV?$StrTraitMFC_DLL@DV?$ChTraitsCRT@D@ATL@@@@@ATL@@QAE@XZ
  000aa	85 db		 test	 ebx, ebx
  000ac	7e 35		 jle	 SHORT $LN49@CalcDateFo

; 982  : 		year = atoi(strDate.Mid(strFormat.Find("Y"), len));

  000ae	53		 push	 ebx
  000af	57		 push	 edi
  000b0	68 00 00 00 00	 push	 OFFSET ??_C@_01NFFPALBN@Y@
  000b5	8b ce		 mov	 ecx, esi
  000b7	ff 15 00 00 00
	00		 call	 DWORD PTR __imp_?Find@?$CStringT@DV?$StrTraitMFC_DLL@DV?$ChTraitsCRT@D@ATL@@@@@ATL@@QBEHPBDH@Z
  000bd	50		 push	 eax
  000be	8d 45 e4	 lea	 eax, DWORD PTR $T9[ebp]
  000c1	50		 push	 eax
  000c2	8d 4d f0	 lea	 ecx, DWORD PTR _strDate$[ebp]
  000c5	ff 15 00 00 00
	00		 call	 DWORD PTR __imp_?Mid@?$CStringT@DV?$StrTraitMFC_DLL@DV?$ChTraitsCRT@D@ATL@@@@@ATL@@QBE?AV12@HH@Z
  000cb	ff 30		 push	 DWORD PTR [eax]
  000cd	ff 15 00 00 00
	00		 call	 DWORD PTR __imp__atoi
  000d3	83 c4 04	 add	 esp, 4
  000d6	8d 4d e4	 lea	 ecx, DWORD PTR $T9[ebp]
  000d9	8b d8		 mov	 ebx, eax
  000db	ff 15 00 00 00
	00		 call	 DWORD PTR __imp_??1?$CStringT@DV?$StrTraitMFC_DLL@DV?$ChTraitsCRT@D@ATL@@@@@ATL@@QAE@XZ
  000e1	eb 03		 jmp	 SHORT $LN4@CalcDateFo
$LN49@CalcDateFo:

; 981  : 	if((len = GetStringDataCount(strFormat, "Y")) > 0)

  000e3	8b 5d 10	 mov	 ebx, DWORD PTR _year$[ebp]
$LN4@CalcDateFo:

; 983  : 	if((len = GetStringDataCount(strFormat, "M")) > 0)

  000e6	68 00 00 00 00	 push	 OFFSET ??_C@_01PLPBNMEI@M@
  000eb	8d 4d e4	 lea	 ecx, DWORD PTR $T8[ebp]
  000ee	ff 15 00 00 00
	00		 call	 DWORD PTR __imp_??0?$CStringT@DV?$StrTraitMFC_DLL@DV?$ChTraitsCRT@D@ATL@@@@@ATL@@QAE@PBD@Z
  000f4	8d 45 e4	 lea	 eax, DWORD PTR $T8[ebp]
  000f7	c6 45 fc 02	 mov	 BYTE PTR __$EHRec$[ebp+8], 2
  000fb	50		 push	 eax
  000fc	56		 push	 esi
  000fd	e8 00 00 00 00	 call	 ?GetStringDataCount@CDataConversion@@SAHABV?$CStringT@DV?$StrTraitMFC_DLL@DV?$ChTraitsCRT@D@ATL@@@@@ATL@@0@Z ; CDataConversion::GetStringDataCount
  00102	83 c4 08	 add	 esp, 8
  00105	89 45 d8	 mov	 DWORD PTR _len$2$[ebp], eax
  00108	8d 4d e4	 lea	 ecx, DWORD PTR $T8[ebp]
  0010b	c6 45 fc 00	 mov	 BYTE PTR __$EHRec$[ebp+8], 0
  0010f	ff 15 00 00 00
	00		 call	 DWORD PTR __imp_??1?$CStringT@DV?$StrTraitMFC_DLL@DV?$ChTraitsCRT@D@ATL@@@@@ATL@@QAE@XZ
  00115	8b 45 d8	 mov	 eax, DWORD PTR _len$2$[ebp]
  00118	85 c0		 test	 eax, eax
  0011a	7e 36		 jle	 SHORT $LN50@CalcDateFo

; 984  : 		mon = atoi(strDate.Mid(strFormat.Find("M"), len));

  0011c	50		 push	 eax
  0011d	6a 00		 push	 0
  0011f	68 00 00 00 00	 push	 OFFSET ??_C@_01PLPBNMEI@M@
  00124	8b ce		 mov	 ecx, esi
  00126	ff 15 00 00 00
	00		 call	 DWORD PTR __imp_?Find@?$CStringT@DV?$StrTraitMFC_DLL@DV?$ChTraitsCRT@D@ATL@@@@@ATL@@QBEHPBDH@Z
  0012c	50		 push	 eax
  0012d	8d 45 d8	 lea	 eax, DWORD PTR $T4[ebp]
  00130	50		 push	 eax
  00131	8d 4d f0	 lea	 ecx, DWORD PTR _strDate$[ebp]
  00134	ff 15 00 00 00
	00		 call	 DWORD PTR __imp_?Mid@?$CStringT@DV?$StrTraitMFC_DLL@DV?$ChTraitsCRT@D@ATL@@@@@ATL@@QBE?AV12@HH@Z
  0013a	ff 30		 push	 DWORD PTR [eax]
  0013c	ff 15 00 00 00
	00		 call	 DWORD PTR __imp__atoi
  00142	83 c4 04	 add	 esp, 4
  00145	8d 4d d8	 lea	 ecx, DWORD PTR $T4[ebp]
  00148	8b f0		 mov	 esi, eax
  0014a	ff 15 00 00 00
	00		 call	 DWORD PTR __imp_??1?$CStringT@DV?$StrTraitMFC_DLL@DV?$ChTraitsCRT@D@ATL@@@@@ATL@@QAE@XZ
  00150	eb 03		 jmp	 SHORT $LN5@CalcDateFo
$LN50@CalcDateFo:

; 983  : 	if((len = GetStringDataCount(strFormat, "M")) > 0)

  00152	8b 75 10	 mov	 esi, DWORD PTR _mon$[ebp]
$LN5@CalcDateFo:

; 985  : 	if((len = GetStringDataCount(strFormat, "D")) > 0)

  00155	68 00 00 00 00	 push	 OFFSET ??_C@_01CKDDGHAB@D@
  0015a	8d 4d e4	 lea	 ecx, DWORD PTR $T7[ebp]
  0015d	ff 15 00 00 00
	00		 call	 DWORD PTR __imp_??0?$CStringT@DV?$StrTraitMFC_DLL@DV?$ChTraitsCRT@D@ATL@@@@@ATL@@QAE@PBD@Z
  00163	8d 45 e4	 lea	 eax, DWORD PTR $T7[ebp]
  00166	c6 45 fc 03	 mov	 BYTE PTR __$EHRec$[ebp+8], 3
  0016a	50		 push	 eax
  0016b	ff 75 10	 push	 DWORD PTR _strFormat$[ebp]
  0016e	e8 00 00 00 00	 call	 ?GetStringDataCount@CDataConversion@@SAHABV?$CStringT@DV?$StrTraitMFC_DLL@DV?$ChTraitsCRT@D@ATL@@@@@ATL@@0@Z ; CDataConversion::GetStringDataCount
  00173	83 c4 08	 add	 esp, 8
  00176	89 45 d8	 mov	 DWORD PTR _len$3$[ebp], eax
  00179	8d 4d e4	 lea	 ecx, DWORD PTR $T7[ebp]
  0017c	c6 45 fc 00	 mov	 BYTE PTR __$EHRec$[ebp+8], 0
  00180	ff 15 00 00 00
	00		 call	 DWORD PTR __imp_??1?$CStringT@DV?$StrTraitMFC_DLL@DV?$ChTraitsCRT@D@ATL@@@@@ATL@@QAE@XZ
  00186	8b 45 d8	 mov	 eax, DWORD PTR _len$3$[ebp]
  00189	85 c0		 test	 eax, eax
  0018b	7e 35		 jle	 SHORT $LN6@CalcDateFo

; 986  : 		day = atoi(strDate.Mid(strFormat.Find("D"), len));

  0018d	8b 4d 10	 mov	 ecx, DWORD PTR _strFormat$[ebp]
  00190	50		 push	 eax
  00191	6a 00		 push	 0
  00193	68 00 00 00 00	 push	 OFFSET ??_C@_01CKDDGHAB@D@
  00198	ff 15 00 00 00
	00		 call	 DWORD PTR __imp_?Find@?$CStringT@DV?$StrTraitMFC_DLL@DV?$ChTraitsCRT@D@ATL@@@@@ATL@@QBEHPBDH@Z
  0019e	50		 push	 eax
  0019f	8d 45 d8	 lea	 eax, DWORD PTR $T3[ebp]
  001a2	50		 push	 eax
  001a3	8d 4d f0	 lea	 ecx, DWORD PTR _strDate$[ebp]
  001a6	ff 15 00 00 00
	00		 call	 DWORD PTR __imp_?Mid@?$CStringT@DV?$StrTraitMFC_DLL@DV?$ChTraitsCRT@D@ATL@@@@@ATL@@QBE?AV12@HH@Z
  001ac	ff 30		 push	 DWORD PTR [eax]
  001ae	ff 15 00 00 00
	00		 call	 DWORD PTR __imp__atoi
  001b4	83 c4 04	 add	 esp, 4
  001b7	8d 4d d8	 lea	 ecx, DWORD PTR $T3[ebp]
  001ba	8b f8		 mov	 edi, eax
  001bc	ff 15 00 00 00
	00		 call	 DWORD PTR __imp_??1?$CStringT@DV?$StrTraitMFC_DLL@DV?$ChTraitsCRT@D@ATL@@@@@ATL@@QAE@XZ
$LN6@CalcDateFo:

; 987  : 	
; 988  : 	if(nCharge > 0)	{

  001c2	8b 45 0c	 mov	 eax, DWORD PTR _nCharge$[ebp]
  001c5	85 c0		 test	 eax, eax
  001c7	7e 56		 jle	 SHORT $LN52@CalcDateFo

; 989  : 		if((day += day_c) > 30)	{

  001c9	03 7d ec	 add	 edi, DWORD PTR _day_c$[ebp]
  001cc	83 ff 1e	 cmp	 edi, 30			; 0000001eH
  001cf	7e 21		 jle	 SHORT $LN9@CalcDateFo

; 990  : 			int nmon = day / 30;

  001d1	b8 89 88 88 88	 mov	 eax, -2004318071	; 88888889H
  001d6	f7 ef		 imul	 edi
  001d8	03 d7		 add	 edx, edi
  001da	c1 fa 04	 sar	 edx, 4
  001dd	8b ca		 mov	 ecx, edx
  001df	c1 e9 1f	 shr	 ecx, 31			; 0000001fH
  001e2	03 ca		 add	 ecx, edx

; 991  : 			day -= 30 * nmon;

  001e4	8b c1		 mov	 eax, ecx
  001e6	c1 e0 04	 shl	 eax, 4
  001e9	2b c1		 sub	 eax, ecx
  001eb	f7 d8		 neg	 eax

; 992  : 			mon += nmon;

  001ed	03 f1		 add	 esi, ecx
  001ef	8d 3c 47	 lea	 edi, DWORD PTR [edi+eax*2]
$LN9@CalcDateFo:

; 993  : 		}
; 994  : 		if((mon += mon_c) > 12)	{

  001f2	03 75 e0	 add	 esi, DWORD PTR _mon_c$[ebp]
  001f5	83 fe 0c	 cmp	 esi, 12			; 0000000cH
  001f8	7e 20		 jle	 SHORT $LN10@CalcDateFo

; 995  : 			int nyear = mon / 12;

  001fa	b8 ab aa aa 2a	 mov	 eax, 715827883		; 2aaaaaabH
  001ff	f7 ee		 imul	 esi
  00201	d1 fa		 sar	 edx, 1
  00203	8b ca		 mov	 ecx, edx
  00205	c1 e9 1f	 shr	 ecx, 31			; 0000001fH
  00208	03 ca		 add	 ecx, edx

; 996  : 			mon -= 12 * nyear;

  0020a	8d 04 8d 00 00
	00 00		 lea	 eax, DWORD PTR [ecx*4]
  00211	2b c1		 sub	 eax, ecx
  00213	f7 d8		 neg	 eax

; 997  : 			year += nyear;

  00215	03 d9		 add	 ebx, ecx
  00217	8d 34 86	 lea	 esi, DWORD PTR [esi+eax*4]
$LN10@CalcDateFo:

; 998  : 		}
; 999  : 		year += year_c;

  0021a	03 5d dc	 add	 ebx, DWORD PTR _year_c$[ebp]

; 1000 : 	}

  0021d	eb 5a		 jmp	 SHORT $LN12@CalcDateFo
$LN52@CalcDateFo:

; 1001 : 	else if(nCharge < 0)	{

  0021f	0f 89 12 01 00
	00		 jns	 $LN29@CalcDateFo

; 1002 : 		if((day -= day_c) <= 0)	{

  00225	2b 7d ec	 sub	 edi, DWORD PTR _day_c$[ebp]
  00228	85 ff		 test	 edi, edi
  0022a	7f 22		 jg	 SHORT $LN13@CalcDateFo

; 1003 : 			int nmon = day / 30 - 1;

  0022c	b8 89 88 88 88	 mov	 eax, -2004318071	; 88888889H
  00231	f7 ef		 imul	 edi
  00233	03 d7		 add	 edx, edi
  00235	c1 fa 04	 sar	 edx, 4
  00238	8b ca		 mov	 ecx, edx
  0023a	c1 e9 1f	 shr	 ecx, 31			; 0000001fH
  0023d	49		 dec	 ecx
  0023e	03 ca		 add	 ecx, edx

; 1004 : 			day -= 30 * nmon;

  00240	8b c1		 mov	 eax, ecx
  00242	c1 e0 04	 shl	 eax, 4
  00245	2b c1		 sub	 eax, ecx
  00247	f7 d8		 neg	 eax

; 1005 : 			mon += nmon;

  00249	03 f1		 add	 esi, ecx
  0024b	8d 3c 47	 lea	 edi, DWORD PTR [edi+eax*2]
$LN13@CalcDateFo:

; 1006 : 		}
; 1007 : 		if((mon -= mon_c) <= 0)	{

  0024e	2b 75 e0	 sub	 esi, DWORD PTR _mon_c$[ebp]
  00251	85 f6		 test	 esi, esi
  00253	7f 21		 jg	 SHORT $LN14@CalcDateFo

; 1008 : 			int nyear = mon / 12 - 1;

  00255	b8 ab aa aa 2a	 mov	 eax, 715827883		; 2aaaaaabH
  0025a	f7 ee		 imul	 esi
  0025c	d1 fa		 sar	 edx, 1
  0025e	8b ca		 mov	 ecx, edx
  00260	c1 e9 1f	 shr	 ecx, 31			; 0000001fH
  00263	49		 dec	 ecx
  00264	03 ca		 add	 ecx, edx

; 1009 : 			mon -= 12 * nyear;

  00266	8d 04 8d 00 00
	00 00		 lea	 eax, DWORD PTR [ecx*4]
  0026d	2b c1		 sub	 eax, ecx
  0026f	f7 d8		 neg	 eax

; 1010 : 			year += nyear;

  00271	03 d9		 add	 ebx, ecx
  00273	8d 34 86	 lea	 esi, DWORD PTR [esi+eax*4]
$LN14@CalcDateFo:

; 1011 : 		}
; 1012 : 		year -= year_c;

  00276	2b 5d dc	 sub	 ebx, DWORD PTR _year_c$[ebp]
$LN12@CalcDateFo:

; 1013 : 	}
; 1014 : 	else
; 1015 : 		return nValue;
; 1016 : 
; 1017 : 	CString retStr = IntToString(year, GetStringDataCount(strFormat, "Y")) + IntToString(mon, 2);

  00279	68 00 00 00 00	 push	 OFFSET ??_C@_01NFFPALBN@Y@
  0027e	8d 4d dc	 lea	 ecx, DWORD PTR $T5[ebp]
  00281	ff 15 00 00 00
	00		 call	 DWORD PTR __imp_??0?$CStringT@DV?$StrTraitMFC_DLL@DV?$ChTraitsCRT@D@ATL@@@@@ATL@@QAE@PBD@Z
  00287	6a 02		 push	 2
  00289	8d 45 e0	 lea	 eax, DWORD PTR $T6[ebp]
  0028c	c6 45 fc 04	 mov	 BYTE PTR __$EHRec$[ebp+8], 4
  00290	56		 push	 esi
  00291	50		 push	 eax
  00292	e8 00 00 00 00	 call	 ?IntToString@CDataConversion@@SA?AV?$CStringT@DV?$StrTraitMFC_DLL@DV?$ChTraitsCRT@D@ATL@@@@@ATL@@HH@Z ; CDataConversion::IntToString
  00297	8b f0		 mov	 esi, eax
  00299	8d 45 dc	 lea	 eax, DWORD PTR $T5[ebp]
  0029c	c6 45 fc 05	 mov	 BYTE PTR __$EHRec$[ebp+8], 5
  002a0	50		 push	 eax
  002a1	ff 75 10	 push	 DWORD PTR _strFormat$[ebp]
  002a4	e8 00 00 00 00	 call	 ?GetStringDataCount@CDataConversion@@SAHABV?$CStringT@DV?$StrTraitMFC_DLL@DV?$ChTraitsCRT@D@ATL@@@@@ATL@@0@Z ; CDataConversion::GetStringDataCount
  002a9	50		 push	 eax
  002aa	8d 45 d8	 lea	 eax, DWORD PTR $T2[ebp]
  002ad	53		 push	 ebx
  002ae	50		 push	 eax
  002af	e8 00 00 00 00	 call	 ?IntToString@CDataConversion@@SA?AV?$CStringT@DV?$StrTraitMFC_DLL@DV?$ChTraitsCRT@D@ATL@@@@@ATL@@HH@Z ; CDataConversion::IntToString
  002b4	56		 push	 esi
  002b5	50		 push	 eax
  002b6	8d 45 e8	 lea	 eax, DWORD PTR _retStr$[ebp]
  002b9	c6 45 fc 06	 mov	 BYTE PTR __$EHRec$[ebp+8], 6
  002bd	50		 push	 eax
  002be	e8 00 00 00 00	 call	 ??HATL@@YA?AV?$CStringT@DV?$StrTraitMFC_DLL@DV?$ChTraitsCRT@D@ATL@@@@@0@ABV10@0@Z ; ATL::operator+
  002c3	83 c4 2c	 add	 esp, 44			; 0000002cH
  002c6	8d 4d d8	 lea	 ecx, DWORD PTR $T2[ebp]
  002c9	ff 15 00 00 00
	00		 call	 DWORD PTR __imp_??1?$CStringT@DV?$StrTraitMFC_DLL@DV?$ChTraitsCRT@D@ATL@@@@@ATL@@QAE@XZ
  002cf	8d 4d e0	 lea	 ecx, DWORD PTR $T6[ebp]
  002d2	ff 15 00 00 00
	00		 call	 DWORD PTR __imp_??1?$CStringT@DV?$StrTraitMFC_DLL@DV?$ChTraitsCRT@D@ATL@@@@@ATL@@QAE@XZ
  002d8	8d 4d dc	 lea	 ecx, DWORD PTR $T5[ebp]
  002db	c6 45 fc 0a	 mov	 BYTE PTR __$EHRec$[ebp+8], 10 ; 0000000aH
  002df	ff 15 00 00 00
	00		 call	 DWORD PTR __imp_??1?$CStringT@DV?$StrTraitMFC_DLL@DV?$ChTraitsCRT@D@ATL@@@@@ATL@@QAE@XZ

; 1018 : 	if(strFormat.Find("DD") >= 0)

  002e5	8b 4d 10	 mov	 ecx, DWORD PTR _strFormat$[ebp]
  002e8	6a 00		 push	 0
  002ea	68 00 00 00 00	 push	 OFFSET ??_C@_02ODDIIJPA@DD@
  002ef	ff 15 00 00 00
	00		 call	 DWORD PTR __imp_?Find@?$CStringT@DV?$StrTraitMFC_DLL@DV?$ChTraitsCRT@D@ATL@@@@@ATL@@QBEHPBDH@Z
  002f5	85 c0		 test	 eax, eax
  002f7	78 26		 js	 SHORT $LN15@CalcDateFo

; 1019 : 		retStr += IntToString(day, 2);

  002f9	6a 02		 push	 2
  002fb	8d 45 10	 lea	 eax, DWORD PTR $T11[ebp]
  002fe	57		 push	 edi
  002ff	50		 push	 eax
  00300	e8 00 00 00 00	 call	 ?IntToString@CDataConversion@@SA?AV?$CStringT@DV?$StrTraitMFC_DLL@DV?$ChTraitsCRT@D@ATL@@@@@ATL@@HH@Z ; CDataConversion::IntToString
  00305	83 c4 0c	 add	 esp, 12			; 0000000cH
  00308	50		 push	 eax
  00309	8d 4d e8	 lea	 ecx, DWORD PTR _retStr$[ebp]
  0030c	c6 45 fc 0b	 mov	 BYTE PTR __$EHRec$[ebp+8], 11 ; 0000000bH
  00310	ff 15 00 00 00
	00		 call	 DWORD PTR __imp_??Y?$CStringT@DV?$StrTraitMFC_DLL@DV?$ChTraitsCRT@D@ATL@@@@@ATL@@QAEAAV01@ABV?$CSimpleStringT@D$00@1@@Z
  00316	8d 4d 10	 lea	 ecx, DWORD PTR $T11[ebp]
  00319	ff 15 00 00 00
	00		 call	 DWORD PTR __imp_??1?$CStringT@DV?$StrTraitMFC_DLL@DV?$ChTraitsCRT@D@ATL@@@@@ATL@@QAE@XZ
$LN15@CalcDateFo:

; 1020 : 
; 1021 : 	return atoi(retStr) ;

  0031f	ff 75 e8	 push	 DWORD PTR _retStr$[ebp]
  00322	ff 15 00 00 00
	00		 call	 DWORD PTR __imp__atoi
  00328	83 c4 04	 add	 esp, 4
  0032b	89 45 08	 mov	 DWORD PTR _nValue$[ebp], eax
  0032e	8d 4d e8	 lea	 ecx, DWORD PTR _retStr$[ebp]
  00331	ff 15 00 00 00
	00		 call	 DWORD PTR __imp_??1?$CStringT@DV?$StrTraitMFC_DLL@DV?$ChTraitsCRT@D@ATL@@@@@ATL@@QAE@XZ
$LN29@CalcDateFo:
  00337	8d 4d f0	 lea	 ecx, DWORD PTR _strDate$[ebp]
  0033a	ff 15 00 00 00
	00		 call	 DWORD PTR __imp_??1?$CStringT@DV?$StrTraitMFC_DLL@DV?$ChTraitsCRT@D@ATL@@@@@ATL@@QAE@XZ
  00340	8b 45 08	 mov	 eax, DWORD PTR _nValue$[ebp]

; 1022 : }

  00343	8b 4d f4	 mov	 ecx, DWORD PTR __$EHRec$[ebp]
  00346	64 89 0d 00 00
	00 00		 mov	 DWORD PTR fs:0, ecx
  0034d	59		 pop	 ecx
  0034e	5f		 pop	 edi
  0034f	5e		 pop	 esi
  00350	5b		 pop	 ebx
  00351	8b e5		 mov	 esp, ebp
  00353	5d		 pop	 ebp
  00354	c3		 ret	 0
$LN48@CalcDateFo:

; 977  : 		return 0;

  00355	33 c0		 xor	 eax, eax

; 1022 : }

  00357	8b 4d f4	 mov	 ecx, DWORD PTR __$EHRec$[ebp]
  0035a	64 89 0d 00 00
	00 00		 mov	 DWORD PTR fs:0, ecx
  00361	59		 pop	 ecx
  00362	5f		 pop	 edi
  00363	5e		 pop	 esi
  00364	5b		 pop	 ebx
  00365	8b e5		 mov	 esp, ebp
  00367	5d		 pop	 ebp
  00368	c3		 ret	 0
_TEXT	ENDS
;	COMDAT text$x
text$x	SEGMENT
__unwindfunclet$?CalcDateFormat@CDataConversion@@SAHHHABV?$CStringT@DV?$StrTraitMFC_DLL@DV?$ChTraitsCRT@D@ATL@@@@@ATL@@HH@Z$0:
  00000	8d 4d f0	 lea	 ecx, DWORD PTR _strDate$[ebp]
  00003	ff 25 00 00 00
	00		 jmp	 DWORD PTR __imp_??1?$CStringT@DV?$StrTraitMFC_DLL@DV?$ChTraitsCRT@D@ATL@@@@@ATL@@QAE@XZ
__unwindfunclet$?CalcDateFormat@CDataConversion@@SAHHHABV?$CStringT@DV?$StrTraitMFC_DLL@DV?$ChTraitsCRT@D@ATL@@@@@ATL@@HH@Z$1:
  00009	8d 4d e4	 lea	 ecx, DWORD PTR $T10[ebp]
  0000c	ff 25 00 00 00
	00		 jmp	 DWORD PTR __imp_??1?$CStringT@DV?$StrTraitMFC_DLL@DV?$ChTraitsCRT@D@ATL@@@@@ATL@@QAE@XZ
__unwindfunclet$?CalcDateFormat@CDataConversion@@SAHHHABV?$CStringT@DV?$StrTraitMFC_DLL@DV?$ChTraitsCRT@D@ATL@@@@@ATL@@HH@Z$3:
  00012	8d 4d e4	 lea	 ecx, DWORD PTR $T8[ebp]
  00015	ff 25 00 00 00
	00		 jmp	 DWORD PTR __imp_??1?$CStringT@DV?$StrTraitMFC_DLL@DV?$ChTraitsCRT@D@ATL@@@@@ATL@@QAE@XZ
__unwindfunclet$?CalcDateFormat@CDataConversion@@SAHHHABV?$CStringT@DV?$StrTraitMFC_DLL@DV?$ChTraitsCRT@D@ATL@@@@@ATL@@HH@Z$5:
  0001b	8d 4d e4	 lea	 ecx, DWORD PTR $T7[ebp]
  0001e	ff 25 00 00 00
	00		 jmp	 DWORD PTR __imp_??1?$CStringT@DV?$StrTraitMFC_DLL@DV?$ChTraitsCRT@D@ATL@@@@@ATL@@QAE@XZ
__unwindfunclet$?CalcDateFormat@CDataConversion@@SAHHHABV?$CStringT@DV?$StrTraitMFC_DLL@DV?$ChTraitsCRT@D@ATL@@@@@ATL@@HH@Z$7:
  00024	8d 4d dc	 lea	 ecx, DWORD PTR $T5[ebp]
  00027	ff 25 00 00 00
	00		 jmp	 DWORD PTR __imp_??1?$CStringT@DV?$StrTraitMFC_DLL@DV?$ChTraitsCRT@D@ATL@@@@@ATL@@QAE@XZ
__unwindfunclet$?CalcDateFormat@CDataConversion@@SAHHHABV?$CStringT@DV?$StrTraitMFC_DLL@DV?$ChTraitsCRT@D@ATL@@@@@ATL@@HH@Z$8:
  0002d	8d 4d e0	 lea	 ecx, DWORD PTR $T6[ebp]
  00030	ff 25 00 00 00
	00		 jmp	 DWORD PTR __imp_??1?$CStringT@DV?$StrTraitMFC_DLL@DV?$ChTraitsCRT@D@ATL@@@@@ATL@@QAE@XZ
__unwindfunclet$?CalcDateFormat@CDataConversion@@SAHHHABV?$CStringT@DV?$StrTraitMFC_DLL@DV?$ChTraitsCRT@D@ATL@@@@@ATL@@HH@Z$9:
  00036	8d 4d d8	 lea	 ecx, DWORD PTR $T2[ebp]
  00039	ff 25 00 00 00
	00		 jmp	 DWORD PTR __imp_??1?$CStringT@DV?$StrTraitMFC_DLL@DV?$ChTraitsCRT@D@ATL@@@@@ATL@@QAE@XZ
__unwindfunclet$?CalcDateFormat@CDataConversion@@SAHHHABV?$CStringT@DV?$StrTraitMFC_DLL@DV?$ChTraitsCRT@D@ATL@@@@@ATL@@HH@Z$10:
  0003f	8d 4d e8	 lea	 ecx, DWORD PTR _retStr$[ebp]
  00042	ff 25 00 00 00
	00		 jmp	 DWORD PTR __imp_??1?$CStringT@DV?$StrTraitMFC_DLL@DV?$ChTraitsCRT@D@ATL@@@@@ATL@@QAE@XZ
__unwindfunclet$?CalcDateFormat@CDataConversion@@SAHHHABV?$CStringT@DV?$StrTraitMFC_DLL@DV?$ChTraitsCRT@D@ATL@@@@@ATL@@HH@Z$11:
  00048	8d 4d 10	 lea	 ecx, DWORD PTR $T11[ebp]
  0004b	ff 25 00 00 00
	00		 jmp	 DWORD PTR __imp_??1?$CStringT@DV?$StrTraitMFC_DLL@DV?$ChTraitsCRT@D@ATL@@@@@ATL@@QAE@XZ
  00051	cc		 int	 3
  00052	cc		 int	 3
  00053	cc		 int	 3
  00054	cc		 int	 3
  00055	cc		 int	 3
__ehhandler$?CalcDateFormat@CDataConversion@@SAHHHABV?$CStringT@DV?$StrTraitMFC_DLL@DV?$ChTraitsCRT@D@ATL@@@@@ATL@@HH@Z:
  00056	90		 npad	 1
  00057	90		 npad	 1
  00058	8b 54 24 08	 mov	 edx, DWORD PTR [esp+8]
  0005c	8d 42 0c	 lea	 eax, DWORD PTR [edx+12]
  0005f	8b 4a d4	 mov	 ecx, DWORD PTR [edx-44]
  00062	33 c8		 xor	 ecx, eax
  00064	e8 00 00 00 00	 call	 @__security_check_cookie@4
  00069	b8 00 00 00 00	 mov	 eax, OFFSET __ehfuncinfo$?CalcDateFormat@CDataConversion@@SAHHHABV?$CStringT@DV?$StrTraitMFC_DLL@DV?$ChTraitsCRT@D@ATL@@@@@ATL@@HH@Z
  0006e	e9 00 00 00 00	 jmp	 ___CxxFrameHandler3
text$x	ENDS
?CalcDateFormat@CDataConversion@@SAHHHABV?$CStringT@DV?$StrTraitMFC_DLL@DV?$ChTraitsCRT@D@ATL@@@@@ATL@@HH@Z ENDP ; CDataConversion::CalcDateFormat
; Function compile flags: /Ogtp
; File D:\git\src\IBK\IBK_DRFN\ProjSrc\SrcDrfn\Chart\chart_common\DataList\Conversion.cpp
; File C:\Program Files (x86)\Microsoft Visual Studio\2019\Community\VC\Tools\MSVC\14.29.30133\atlmfc\include\atlsimpstr.h
; File D:\git\src\IBK\IBK_DRFN\ProjSrc\SrcDrfn\Chart\chart_common\DataList\Conversion.cpp
; File C:\Program Files (x86)\Microsoft Visual Studio\2019\Community\VC\Tools\MSVC\14.29.30133\atlmfc\include\cstringt.h
; File D:\git\src\IBK\IBK_DRFN\ProjSrc\SrcDrfn\Chart\chart_common\DataList\Conversion.cpp
; File C:\Program Files (x86)\Microsoft Visual Studio\2019\Community\VC\Tools\MSVC\14.29.30133\atlmfc\include\cstringt.h
; File D:\git\src\IBK\IBK_DRFN\ProjSrc\SrcDrfn\Chart\chart_common\DataList\Conversion.cpp
; File C:\Program Files (x86)\Microsoft Visual Studio\2019\Community\VC\Tools\MSVC\14.29.30133\atlmfc\include\cstringt.h
; File D:\git\src\IBK\IBK_DRFN\ProjSrc\SrcDrfn\Chart\chart_common\DataList\Conversion.cpp
; File C:\Program Files (x86)\Microsoft Visual Studio\2019\Community\VC\Tools\MSVC\14.29.30133\atlmfc\include\cstringt.h
; File D:\git\src\IBK\IBK_DRFN\ProjSrc\SrcDrfn\Chart\chart_common\DataList\Conversion.cpp
; File C:\Program Files (x86)\Microsoft Visual Studio\2019\Community\VC\Tools\MSVC\14.29.30133\atlmfc\include\cstringt.h
; File D:\git\src\IBK\IBK_DRFN\ProjSrc\SrcDrfn\Chart\chart_common\DataList\Conversion.cpp
; File C:\Program Files (x86)\Microsoft Visual Studio\2019\Community\VC\Tools\MSVC\14.29.30133\atlmfc\include\atlsimpstr.h
; File D:\git\src\IBK\IBK_DRFN\ProjSrc\SrcDrfn\Chart\chart_common\DataList\Conversion.cpp
; File C:\Program Files (x86)\Microsoft Visual Studio\2019\Community\VC\Tools\MSVC\14.29.30133\atlmfc\include\atlsimpstr.h
; File D:\git\src\IBK\IBK_DRFN\ProjSrc\SrcDrfn\Chart\chart_common\DataList\Conversion.cpp
; File C:\Program Files (x86)\Microsoft Visual Studio\2019\Community\VC\Tools\MSVC\14.29.30133\atlmfc\include\atlsimpstr.h
; File D:\git\src\IBK\IBK_DRFN\ProjSrc\SrcDrfn\Chart\chart_common\DataList\Conversion.cpp
;	COMDAT ?CalcTimeFormatforCharge@CDataConversion@@SAHHHABV?$CStringT@DV?$StrTraitMFC_DLL@DV?$ChTraitsCRT@D@ATL@@@@@ATL@@H_N@Z
_TEXT	SEGMENT
_strCurTime$ = -20					; size = 4
_strAdditionTime$ = -16					; size = 4
__$EHRec$ = -12						; size = 12
_strRight$2 = 8						; size = 4
_nValue$ = 8						; size = 4
_nIndex$ = 12						; size = 4
_strFormat$ = 16					; size = 4
_nInterval$ = 20					; size = 4
_bIsTransactionTime$ = 24				; size = 1
?CalcTimeFormatforCharge@CDataConversion@@SAHHHABV?$CStringT@DV?$StrTraitMFC_DLL@DV?$ChTraitsCRT@D@ATL@@@@@ATL@@H_N@Z PROC ; CDataConversion::CalcTimeFormatforCharge, COMDAT

; 800  : {

  00000	55		 push	 ebp
  00001	8b ec		 mov	 ebp, esp
  00003	6a ff		 push	 -1
  00005	68 00 00 00 00	 push	 __ehhandler$?CalcTimeFormatforCharge@CDataConversion@@SAHHHABV?$CStringT@DV?$StrTraitMFC_DLL@DV?$ChTraitsCRT@D@ATL@@@@@ATL@@H_N@Z
  0000a	64 a1 00 00 00
	00		 mov	 eax, DWORD PTR fs:0
  00010	50		 push	 eax
  00011	83 ec 08	 sub	 esp, 8
  00014	53		 push	 ebx
  00015	56		 push	 esi
  00016	57		 push	 edi
  00017	a1 00 00 00 00	 mov	 eax, DWORD PTR ___security_cookie
  0001c	33 c5		 xor	 eax, ebp
  0001e	50		 push	 eax
  0001f	8d 45 f4	 lea	 eax, DWORD PTR __$EHRec$[ebp]
  00022	64 a3 00 00 00
	00		 mov	 DWORD PTR fs:0, eax

; 814  : 	if(nBaseTime <= 0 || nAddIndex == 0 || strFormat.IsEmpty() || nInterval <= 0)

  00028	8b 75 08	 mov	 esi, DWORD PTR _nValue$[ebp]
  0002b	85 f6		 test	 esi, esi
  0002d	0f 8e f9 00 00
	00		 jle	 $LN37@CalcTimeFo
  00033	83 7d 0c 00	 cmp	 DWORD PTR _nIndex$[ebp], 0
  00037	0f 84 ef 00 00
	00		 je	 $LN37@CalcTimeFo
; File C:\Program Files (x86)\Microsoft Visual Studio\2019\Community\VC\Tools\MSVC\14.29.30133\atlmfc\include\atlsimpstr.h

; 519  : 		return( GetData()->nDataLength );

  0003d	8b 7d 10	 mov	 edi, DWORD PTR _strFormat$[ebp]
  00040	8b 07		 mov	 eax, DWORD PTR [edi]

; 533  : 		return( GetLength() == 0 );

  00042	83 78 f4 00	 cmp	 DWORD PTR [eax-12], 0
; File D:\git\src\IBK\IBK_DRFN\ProjSrc\SrcDrfn\Chart\chart_common\DataList\Conversion.cpp

; 814  : 	if(nBaseTime <= 0 || nAddIndex == 0 || strFormat.IsEmpty() || nInterval <= 0)

  00046	0f 84 e0 00 00
	00		 je	 $LN37@CalcTimeFo
  0004c	83 7d 14 00	 cmp	 DWORD PTR _nInterval$[ebp], 0
  00050	0f 8e d6 00 00
	00		 jle	 $LN37@CalcTimeFo

; 817  : 	CString strRight = strFormat.Right(1);

  00056	6a 01		 push	 1
  00058	8d 45 08	 lea	 eax, DWORD PTR _strRight$2[ebp]
  0005b	8b cf		 mov	 ecx, edi
  0005d	50		 push	 eax
  0005e	ff 15 00 00 00
	00		 call	 DWORD PTR __imp_?Right@?$CStringT@DV?$StrTraitMFC_DLL@DV?$ChTraitsCRT@D@ATL@@@@@ATL@@QBE?AV12@H@Z
; File C:\Program Files (x86)\Microsoft Visual Studio\2019\Community\VC\Tools\MSVC\14.29.30133\atlmfc\include\cstringt.h

; 2486 : 		return(str1.Compare(psz2) == 0);

  00064	68 00 00 00 00	 push	 OFFSET ??_C@_01NFFPALBN@Y@
  00069	8d 4d 08	 lea	 ecx, DWORD PTR _strRight$2[ebp]
; File D:\git\src\IBK\IBK_DRFN\ProjSrc\SrcDrfn\Chart\chart_common\DataList\Conversion.cpp

; 817  : 	CString strRight = strFormat.Right(1);

  0006c	c7 45 fc 00 00
	00 00		 mov	 DWORD PTR __$EHRec$[ebp+8], 0
; File C:\Program Files (x86)\Microsoft Visual Studio\2019\Community\VC\Tools\MSVC\14.29.30133\atlmfc\include\cstringt.h

; 2486 : 		return(str1.Compare(psz2) == 0);

  00073	ff 15 00 00 00
	00		 call	 DWORD PTR __imp_?Compare@?$CStringT@DV?$StrTraitMFC_DLL@DV?$ChTraitsCRT@D@ATL@@@@@ATL@@QBEHPBD@Z
  00079	85 c0		 test	 eax, eax
; File D:\git\src\IBK\IBK_DRFN\ProjSrc\SrcDrfn\Chart\chart_common\DataList\Conversion.cpp

; 818  : 	if(strRight == "Y" || strRight == "D")

  0007b	0f 84 a2 00 00
	00		 je	 $LN12@CalcTimeFo
; File C:\Program Files (x86)\Microsoft Visual Studio\2019\Community\VC\Tools\MSVC\14.29.30133\atlmfc\include\cstringt.h

; 2486 : 		return(str1.Compare(psz2) == 0);

  00081	68 00 00 00 00	 push	 OFFSET ??_C@_01CKDDGHAB@D@
  00086	8d 4d 08	 lea	 ecx, DWORD PTR _strRight$2[ebp]
  00089	ff 15 00 00 00
	00		 call	 DWORD PTR __imp_?Compare@?$CStringT@DV?$StrTraitMFC_DLL@DV?$ChTraitsCRT@D@ATL@@@@@ATL@@QBEHPBD@Z
  0008f	85 c0		 test	 eax, eax
; File D:\git\src\IBK\IBK_DRFN\ProjSrc\SrcDrfn\Chart\chart_common\DataList\Conversion.cpp

; 818  : 	if(strRight == "Y" || strRight == "D")

  00091	0f 84 8c 00 00
	00		 je	 $LN12@CalcTimeFo
; File C:\Program Files (x86)\Microsoft Visual Studio\2019\Community\VC\Tools\MSVC\14.29.30133\atlmfc\include\cstringt.h

; 2567 : 		return( str1.Compare( psz2 ) != 0 );

  00097	68 00 00 00 00	 push	 OFFSET ??_C@_06EBMMBHJD@YYYYMM@
  0009c	8b cf		 mov	 ecx, edi
  0009e	ff 15 00 00 00
	00		 call	 DWORD PTR __imp_?Compare@?$CStringT@DV?$StrTraitMFC_DLL@DV?$ChTraitsCRT@D@ATL@@@@@ATL@@QBEHPBD@Z
  000a4	85 c0		 test	 eax, eax
; File D:\git\src\IBK\IBK_DRFN\ProjSrc\SrcDrfn\Chart\chart_common\DataList\Conversion.cpp

; 821  : 	return (strFormat != "YYYYMM");

  000a6	c7 45 fc ff ff
	ff ff		 mov	 DWORD PTR __$EHRec$[ebp+8], -1
  000ad	8d 4d 08	 lea	 ecx, DWORD PTR _strRight$2[ebp]
; File C:\Program Files (x86)\Microsoft Visual Studio\2019\Community\VC\Tools\MSVC\14.29.30133\atlmfc\include\cstringt.h

; 2567 : 		return( str1.Compare( psz2 ) != 0 );

  000b0	0f 95 c3	 setne	 bl
; File D:\git\src\IBK\IBK_DRFN\ProjSrc\SrcDrfn\Chart\chart_common\DataList\Conversion.cpp

; 821  : 	return (strFormat != "YYYYMM");

  000b3	ff 15 00 00 00
	00		 call	 DWORD PTR __imp_??1?$CStringT@DV?$StrTraitMFC_DLL@DV?$ChTraitsCRT@D@ATL@@@@@ATL@@QAE@XZ

; 801  : 	if(!IsCalcTimeFormatforCharge(nValue, nIndex, strFormat, nInterval))

  000b9	84 db		 test	 bl, bl
  000bb	74 6f		 je	 SHORT $LN37@CalcTimeFo

; 804  : 	CString strAdditionTime = GetAdditionDataInFormat(nValue, nIndex, strFormat, nInterval);

  000bd	ff 75 14	 push	 DWORD PTR _nInterval$[ebp]
  000c0	8b 5d 0c	 mov	 ebx, DWORD PTR _nIndex$[ebp]
  000c3	8d 45 f0	 lea	 eax, DWORD PTR _strAdditionTime$[ebp]
  000c6	57		 push	 edi
  000c7	53		 push	 ebx
  000c8	56		 push	 esi
  000c9	50		 push	 eax
  000ca	e8 00 00 00 00	 call	 ?GetAdditionDataInFormat@CDataConversion@@CA?AV?$CStringT@DV?$StrTraitMFC_DLL@DV?$ChTraitsCRT@D@ATL@@@@@ATL@@HHABV23@H@Z ; CDataConversion::GetAdditionDataInFormat
  000cf	83 c4 14	 add	 esp, 20			; 00000014H
; File C:\Program Files (x86)\Microsoft Visual Studio\2019\Community\VC\Tools\MSVC\14.29.30133\atlmfc\include\atlsimpstr.h

; 519  : 		return( GetData()->nDataLength );

  000d2	8b 45 f0	 mov	 eax, DWORD PTR _strAdditionTime$[ebp]
; File D:\git\src\IBK\IBK_DRFN\ProjSrc\SrcDrfn\Chart\chart_common\DataList\Conversion.cpp

; 804  : 	CString strAdditionTime = GetAdditionDataInFormat(nValue, nIndex, strFormat, nInterval);

  000d5	c7 45 fc 01 00
	00 00		 mov	 DWORD PTR __$EHRec$[ebp+8], 1
; File C:\Program Files (x86)\Microsoft Visual Studio\2019\Community\VC\Tools\MSVC\14.29.30133\atlmfc\include\atlsimpstr.h

; 533  : 		return( GetLength() == 0 );

  000dc	83 78 f4 00	 cmp	 DWORD PTR [eax-12], 0
; File D:\git\src\IBK\IBK_DRFN\ProjSrc\SrcDrfn\Chart\chart_common\DataList\Conversion.cpp

; 805  : 	if(strAdditionTime.IsEmpty())

  000e0	74 3c		 je	 SHORT $LN7@CalcTimeFo
; File C:\Program Files (x86)\Microsoft Visual Studio\2019\Community\VC\Tools\MSVC\14.29.30133\atlmfc\include\atlsimpstr.h

; 519  : 		return( GetData()->nDataLength );

  000e2	8b 07		 mov	 eax, DWORD PTR [edi]
; File D:\git\src\IBK\IBK_DRFN\ProjSrc\SrcDrfn\Chart\chart_common\DataList\Conversion.cpp

; 808  : 	CString strCurTime = IntToString(nValue, strFormat.GetLength());

  000e4	ff 70 f4	 push	 DWORD PTR [eax-12]
  000e7	8d 45 ec	 lea	 eax, DWORD PTR _strCurTime$[ebp]
  000ea	56		 push	 esi
  000eb	50		 push	 eax
  000ec	e8 00 00 00 00	 call	 ?IntToString@CDataConversion@@SA?AV?$CStringT@DV?$StrTraitMFC_DLL@DV?$ChTraitsCRT@D@ATL@@@@@ATL@@HH@Z ; CDataConversion::IntToString

; 809  : 	return CalcTimeFormat(strCurTime, strAdditionTime, strFormat, (nIndex >= 0), bIsTransactionTime);

  000f1	ff 75 18	 push	 DWORD PTR _bIsTransactionTime$[ebp]
  000f4	c1 eb 1f	 shr	 ebx, 31			; 0000001fH
  000f7	80 f3 01	 xor	 bl, 1
  000fa	c6 45 fc 02	 mov	 BYTE PTR __$EHRec$[ebp+8], 2
  000fe	0f b6 c3	 movzx	 eax, bl
  00101	50		 push	 eax
  00102	57		 push	 edi
  00103	8d 45 f0	 lea	 eax, DWORD PTR _strAdditionTime$[ebp]
  00106	50		 push	 eax
  00107	8d 45 ec	 lea	 eax, DWORD PTR _strCurTime$[ebp]
  0010a	50		 push	 eax
  0010b	e8 00 00 00 00	 call	 ?CalcTimeFormat@CDataConversion@@CAHABV?$CStringT@DV?$StrTraitMFC_DLL@DV?$ChTraitsCRT@D@ATL@@@@@ATL@@00_N1@Z ; CDataConversion::CalcTimeFormat
  00110	83 c4 20	 add	 esp, 32			; 00000020H
  00113	8d 4d ec	 lea	 ecx, DWORD PTR _strCurTime$[ebp]
  00116	8b f0		 mov	 esi, eax
  00118	ff 15 00 00 00
	00		 call	 DWORD PTR __imp_??1?$CStringT@DV?$StrTraitMFC_DLL@DV?$ChTraitsCRT@D@ATL@@@@@ATL@@QAE@XZ
$LN7@CalcTimeFo:
  0011e	8d 4d f0	 lea	 ecx, DWORD PTR _strAdditionTime$[ebp]
  00121	eb 03		 jmp	 SHORT $LN39@CalcTimeFo
$LN12@CalcTimeFo:

; 819  : 		return false;

  00123	8d 4d 08	 lea	 ecx, DWORD PTR _strRight$2[ebp]
$LN39@CalcTimeFo:

; 810  : }

  00126	ff 15 00 00 00
	00		 call	 DWORD PTR __imp_??1?$CStringT@DV?$StrTraitMFC_DLL@DV?$ChTraitsCRT@D@ATL@@@@@ATL@@QAE@XZ
$LN37@CalcTimeFo:
  0012c	8b c6		 mov	 eax, esi
  0012e	8b 4d f4	 mov	 ecx, DWORD PTR __$EHRec$[ebp]
  00131	64 89 0d 00 00
	00 00		 mov	 DWORD PTR fs:0, ecx
  00138	59		 pop	 ecx
  00139	5f		 pop	 edi
  0013a	5e		 pop	 esi
  0013b	5b		 pop	 ebx
  0013c	8b e5		 mov	 esp, ebp
  0013e	5d		 pop	 ebp
  0013f	c3		 ret	 0
_TEXT	ENDS
;	COMDAT text$x
text$x	SEGMENT
__unwindfunclet$?CalcTimeFormatforCharge@CDataConversion@@SAHHHABV?$CStringT@DV?$StrTraitMFC_DLL@DV?$ChTraitsCRT@D@ATL@@@@@ATL@@H_N@Z$2:
  00000	8d 4d 08	 lea	 ecx, DWORD PTR _strRight$2[ebp]
  00003	ff 25 00 00 00
	00		 jmp	 DWORD PTR __imp_??1?$CStringT@DV?$StrTraitMFC_DLL@DV?$ChTraitsCRT@D@ATL@@@@@ATL@@QAE@XZ
__unwindfunclet$?CalcTimeFormatforCharge@CDataConversion@@SAHHHABV?$CStringT@DV?$StrTraitMFC_DLL@DV?$ChTraitsCRT@D@ATL@@@@@ATL@@H_N@Z$0:
  00009	8d 4d f0	 lea	 ecx, DWORD PTR _strAdditionTime$[ebp]
  0000c	ff 25 00 00 00
	00		 jmp	 DWORD PTR __imp_??1?$CStringT@DV?$StrTraitMFC_DLL@DV?$ChTraitsCRT@D@ATL@@@@@ATL@@QAE@XZ
__unwindfunclet$?CalcTimeFormatforCharge@CDataConversion@@SAHHHABV?$CStringT@DV?$StrTraitMFC_DLL@DV?$ChTraitsCRT@D@ATL@@@@@ATL@@H_N@Z$1:
  00012	8d 4d ec	 lea	 ecx, DWORD PTR _strCurTime$[ebp]
  00015	ff 25 00 00 00
	00		 jmp	 DWORD PTR __imp_??1?$CStringT@DV?$StrTraitMFC_DLL@DV?$ChTraitsCRT@D@ATL@@@@@ATL@@QAE@XZ
  0001b	cc		 int	 3
  0001c	cc		 int	 3
  0001d	cc		 int	 3
  0001e	cc		 int	 3
  0001f	cc		 int	 3
__ehhandler$?CalcTimeFormatforCharge@CDataConversion@@SAHHHABV?$CStringT@DV?$StrTraitMFC_DLL@DV?$ChTraitsCRT@D@ATL@@@@@ATL@@H_N@Z:
  00020	90		 npad	 1
  00021	90		 npad	 1
  00022	8b 54 24 08	 mov	 edx, DWORD PTR [esp+8]
  00026	8d 42 0c	 lea	 eax, DWORD PTR [edx+12]
  00029	8b 4a e8	 mov	 ecx, DWORD PTR [edx-24]
  0002c	33 c8		 xor	 ecx, eax
  0002e	e8 00 00 00 00	 call	 @__security_check_cookie@4
  00033	b8 00 00 00 00	 mov	 eax, OFFSET __ehfuncinfo$?CalcTimeFormatforCharge@CDataConversion@@SAHHHABV?$CStringT@DV?$StrTraitMFC_DLL@DV?$ChTraitsCRT@D@ATL@@@@@ATL@@H_N@Z
  00038	e9 00 00 00 00	 jmp	 ___CxxFrameHandler3
text$x	ENDS
?CalcTimeFormatforCharge@CDataConversion@@SAHHHABV?$CStringT@DV?$StrTraitMFC_DLL@DV?$ChTraitsCRT@D@ATL@@@@@ATL@@H_N@Z ENDP ; CDataConversion::CalcTimeFormatforCharge
; Function compile flags: /Ogtp
; File D:\git\src\IBK\IBK_DRFN\ProjSrc\SrcDrfn\Chart\chart_common\DataList\Conversion.cpp
; File C:\Program Files (x86)\Microsoft Visual Studio\2019\Community\VC\Tools\MSVC\14.29.30133\atlmfc\include\atlsimpstr.h
; File D:\git\src\IBK\IBK_DRFN\ProjSrc\SrcDrfn\Chart\chart_common\DataList\Conversion.cpp
; File C:\Program Files (x86)\Microsoft Visual Studio\2019\Community\VC\Tools\MSVC\14.29.30133\atlmfc\include\atlsimpstr.h
; File D:\git\src\IBK\IBK_DRFN\ProjSrc\SrcDrfn\Chart\chart_common\DataList\Conversion.cpp
; File C:\Program Files (x86)\Microsoft Visual Studio\2019\Community\VC\Tools\MSVC\14.29.30133\atlmfc\include\atlsimpstr.h
; File D:\git\src\IBK\IBK_DRFN\ProjSrc\SrcDrfn\Chart\chart_common\DataList\Conversion.cpp
;	COMDAT ?CalcTimeFormat@CDataConversion@@SAHHHABV?$CStringT@DV?$StrTraitMFC_DLL@DV?$ChTraitsCRT@D@ATL@@@@@ATL@@_N@Z
_TEXT	SEGMENT
_szTime$ = -16						; size = 4
__$EHRec$ = -12						; size = 12
_nValue$ = 8						; size = 4
_nCharge$ = 12						; size = 4
_szCharge$ = 16						; size = 4
_strFormat$ = 16					; size = 4
_bIsTransactionTime$ = 20				; size = 1
?CalcTimeFormat@CDataConversion@@SAHHHABV?$CStringT@DV?$StrTraitMFC_DLL@DV?$ChTraitsCRT@D@ATL@@@@@ATL@@_N@Z PROC ; CDataConversion::CalcTimeFormat, COMDAT

; 760  : {

  00000	55		 push	 ebp
  00001	8b ec		 mov	 ebp, esp
  00003	6a ff		 push	 -1
  00005	68 00 00 00 00	 push	 __ehhandler$?CalcTimeFormat@CDataConversion@@SAHHHABV?$CStringT@DV?$StrTraitMFC_DLL@DV?$ChTraitsCRT@D@ATL@@@@@ATL@@_N@Z
  0000a	64 a1 00 00 00
	00		 mov	 eax, DWORD PTR fs:0
  00010	50		 push	 eax
  00011	51		 push	 ecx
  00012	53		 push	 ebx
  00013	56		 push	 esi
  00014	a1 00 00 00 00	 mov	 eax, DWORD PTR ___security_cookie
  00019	33 c5		 xor	 eax, ebp
  0001b	50		 push	 eax
  0001c	8d 45 f4	 lea	 eax, DWORD PTR __$EHRec$[ebp]
  0001f	64 a3 00 00 00
	00		 mov	 DWORD PTR fs:0, eax
; File C:\Program Files (x86)\Microsoft Visual Studio\2019\Community\VC\Tools\MSVC\14.29.30133\atlmfc\include\atlsimpstr.h

; 519  : 		return( GetData()->nDataLength );

  00025	8b 75 10	 mov	 esi, DWORD PTR _strFormat$[ebp]
; File D:\git\src\IBK\IBK_DRFN\ProjSrc\SrcDrfn\Chart\chart_common\DataList\Conversion.cpp

; 760  : {

  00028	8b 5d 0c	 mov	 ebx, DWORD PTR _nCharge$[ebp]
; File C:\Program Files (x86)\Microsoft Visual Studio\2019\Community\VC\Tools\MSVC\14.29.30133\atlmfc\include\atlsimpstr.h

; 519  : 		return( GetData()->nDataLength );

  0002b	8b 06		 mov	 eax, DWORD PTR [esi]
  0002d	8b 40 f4	 mov	 eax, DWORD PTR [eax-12]

; 533  : 		return( GetLength() == 0 );

  00030	85 c0		 test	 eax, eax
; File D:\git\src\IBK\IBK_DRFN\ProjSrc\SrcDrfn\Chart\chart_common\DataList\Conversion.cpp

; 761  : 	if(strFormat.IsEmpty() || nCharge <= 0)

  00032	74 70		 je	 SHORT $LN3@CalcTimeFo
  00034	85 db		 test	 ebx, ebx
  00036	7e 6c		 jle	 SHORT $LN3@CalcTimeFo

; 764  : 	CString szTime = IntToString(nValue, strFormat.GetLength());	

  00038	50		 push	 eax
  00039	ff 75 08	 push	 DWORD PTR _nValue$[ebp]
  0003c	8d 45 f0	 lea	 eax, DWORD PTR _szTime$[ebp]
  0003f	50		 push	 eax
  00040	e8 00 00 00 00	 call	 ?IntToString@CDataConversion@@SA?AV?$CStringT@DV?$StrTraitMFC_DLL@DV?$ChTraitsCRT@D@ATL@@@@@ATL@@HH@Z ; CDataConversion::IntToString
; File C:\Program Files (x86)\Microsoft Visual Studio\2019\Community\VC\Tools\MSVC\14.29.30133\atlmfc\include\atlsimpstr.h

; 519  : 		return( GetData()->nDataLength );

  00045	8b 06		 mov	 eax, DWORD PTR [esi]
; File D:\git\src\IBK\IBK_DRFN\ProjSrc\SrcDrfn\Chart\chart_common\DataList\Conversion.cpp

; 764  : 	CString szTime = IntToString(nValue, strFormat.GetLength());	

  00047	c7 45 fc 00 00
	00 00		 mov	 DWORD PTR __$EHRec$[ebp+8], 0

; 765  : 	CString szCharge = IntToString(abs(nCharge), strFormat.GetLength());

  0004e	ff 70 f4	 push	 DWORD PTR [eax-12]
  00051	8d 45 10	 lea	 eax, DWORD PTR _szCharge$[ebp]
  00054	53		 push	 ebx
  00055	50		 push	 eax
  00056	e8 00 00 00 00	 call	 ?IntToString@CDataConversion@@SA?AV?$CStringT@DV?$StrTraitMFC_DLL@DV?$ChTraitsCRT@D@ATL@@@@@ATL@@HH@Z ; CDataConversion::IntToString

; 766  : 	
; 767  : 	return CalcTimeFormat(szTime, szCharge, strFormat, (nCharge >= 0), bIsTransactionTime);

  0005b	ff 75 14	 push	 DWORD PTR _bIsTransactionTime$[ebp]
  0005e	c1 eb 1f	 shr	 ebx, 31			; 0000001fH
  00061	80 f3 01	 xor	 bl, 1
  00064	c6 45 fc 01	 mov	 BYTE PTR __$EHRec$[ebp+8], 1
  00068	0f b6 c3	 movzx	 eax, bl
  0006b	50		 push	 eax
  0006c	56		 push	 esi
  0006d	8d 45 10	 lea	 eax, DWORD PTR _szCharge$[ebp]
  00070	50		 push	 eax
  00071	8d 45 f0	 lea	 eax, DWORD PTR _szTime$[ebp]
  00074	50		 push	 eax
  00075	e8 00 00 00 00	 call	 ?CalcTimeFormat@CDataConversion@@CAHABV?$CStringT@DV?$StrTraitMFC_DLL@DV?$ChTraitsCRT@D@ATL@@@@@ATL@@00_N1@Z ; CDataConversion::CalcTimeFormat
  0007a	83 c4 2c	 add	 esp, 44			; 0000002cH
  0007d	8d 4d 10	 lea	 ecx, DWORD PTR _szCharge$[ebp]
  00080	8b f0		 mov	 esi, eax
  00082	ff 15 00 00 00
	00		 call	 DWORD PTR __imp_??1?$CStringT@DV?$StrTraitMFC_DLL@DV?$ChTraitsCRT@D@ATL@@@@@ATL@@QAE@XZ
  00088	8d 4d f0	 lea	 ecx, DWORD PTR _szTime$[ebp]
  0008b	ff 15 00 00 00
	00		 call	 DWORD PTR __imp_??1?$CStringT@DV?$StrTraitMFC_DLL@DV?$ChTraitsCRT@D@ATL@@@@@ATL@@QAE@XZ
  00091	8b c6		 mov	 eax, esi

; 768  : }

  00093	8b 4d f4	 mov	 ecx, DWORD PTR __$EHRec$[ebp]
  00096	64 89 0d 00 00
	00 00		 mov	 DWORD PTR fs:0, ecx
  0009d	59		 pop	 ecx
  0009e	5e		 pop	 esi
  0009f	5b		 pop	 ebx
  000a0	8b e5		 mov	 esp, ebp
  000a2	5d		 pop	 ebp
  000a3	c3		 ret	 0
$LN3@CalcTimeFo:

; 762  : 		return 0;

  000a4	33 c0		 xor	 eax, eax

; 768  : }

  000a6	8b 4d f4	 mov	 ecx, DWORD PTR __$EHRec$[ebp]
  000a9	64 89 0d 00 00
	00 00		 mov	 DWORD PTR fs:0, ecx
  000b0	59		 pop	 ecx
  000b1	5e		 pop	 esi
  000b2	5b		 pop	 ebx
  000b3	8b e5		 mov	 esp, ebp
  000b5	5d		 pop	 ebp
  000b6	c3		 ret	 0
_TEXT	ENDS
;	COMDAT text$x
text$x	SEGMENT
__unwindfunclet$?CalcTimeFormat@CDataConversion@@SAHHHABV?$CStringT@DV?$StrTraitMFC_DLL@DV?$ChTraitsCRT@D@ATL@@@@@ATL@@_N@Z$0:
  00000	8d 4d f0	 lea	 ecx, DWORD PTR _szTime$[ebp]
  00003	ff 25 00 00 00
	00		 jmp	 DWORD PTR __imp_??1?$CStringT@DV?$StrTraitMFC_DLL@DV?$ChTraitsCRT@D@ATL@@@@@ATL@@QAE@XZ
__unwindfunclet$?CalcTimeFormat@CDataConversion@@SAHHHABV?$CStringT@DV?$StrTraitMFC_DLL@DV?$ChTraitsCRT@D@ATL@@@@@ATL@@_N@Z$1:
  00009	8d 4d 10	 lea	 ecx, DWORD PTR _szCharge$[ebp]
  0000c	ff 25 00 00 00
	00		 jmp	 DWORD PTR __imp_??1?$CStringT@DV?$StrTraitMFC_DLL@DV?$ChTraitsCRT@D@ATL@@@@@ATL@@QAE@XZ
  00012	cc		 int	 3
  00013	cc		 int	 3
  00014	cc		 int	 3
  00015	cc		 int	 3
  00016	cc		 int	 3
__ehhandler$?CalcTimeFormat@CDataConversion@@SAHHHABV?$CStringT@DV?$StrTraitMFC_DLL@DV?$ChTraitsCRT@D@ATL@@@@@ATL@@_N@Z:
  00017	90		 npad	 1
  00018	90		 npad	 1
  00019	8b 54 24 08	 mov	 edx, DWORD PTR [esp+8]
  0001d	8d 42 0c	 lea	 eax, DWORD PTR [edx+12]
  00020	8b 4a f0	 mov	 ecx, DWORD PTR [edx-16]
  00023	33 c8		 xor	 ecx, eax
  00025	e8 00 00 00 00	 call	 @__security_check_cookie@4
  0002a	b8 00 00 00 00	 mov	 eax, OFFSET __ehfuncinfo$?CalcTimeFormat@CDataConversion@@SAHHHABV?$CStringT@DV?$StrTraitMFC_DLL@DV?$ChTraitsCRT@D@ATL@@@@@ATL@@_N@Z
  0002f	e9 00 00 00 00	 jmp	 ___CxxFrameHandler3
text$x	ENDS
?CalcTimeFormat@CDataConversion@@SAHHHABV?$CStringT@DV?$StrTraitMFC_DLL@DV?$ChTraitsCRT@D@ATL@@@@@ATL@@_N@Z ENDP ; CDataConversion::CalcTimeFormat
; Function compile flags: /Ogtp
; File D:\git\src\IBK\IBK_DRFN\ProjSrc\SrcDrfn\Chart\chart_common\DataList\Conversion.cpp
; File C:\Program Files (x86)\Microsoft Visual Studio\2019\Community\VC\Tools\MSVC\14.29.30133\atlmfc\include\atlsimpstr.h
; File D:\git\src\IBK\IBK_DRFN\ProjSrc\SrcDrfn\Chart\chart_common\DataList\Conversion.cpp
;	COMDAT ?NormalNumberString@CDataConversion@@SA?AV?$CStringT@DV?$StrTraitMFC_DLL@DV?$ChTraitsCRT@D@ATL@@@@@ATL@@ABV23@@Z
_TEXT	SEGMENT
_cData$2 = -16						; size = 1
__$EHRec$ = -12						; size = 12
___$ReturnUdt$ = 8					; size = 4
_strRealData$ = 12					; size = 4
_strData$ = 12						; size = 4
?NormalNumberString@CDataConversion@@SA?AV?$CStringT@DV?$StrTraitMFC_DLL@DV?$ChTraitsCRT@D@ATL@@@@@ATL@@ABV23@@Z PROC ; CDataConversion::NormalNumberString, COMDAT

; 236  : {

  00000	55		 push	 ebp
  00001	8b ec		 mov	 ebp, esp
  00003	6a ff		 push	 -1
  00005	68 00 00 00 00	 push	 __ehhandler$?NormalNumberString@CDataConversion@@SA?AV?$CStringT@DV?$StrTraitMFC_DLL@DV?$ChTraitsCRT@D@ATL@@@@@ATL@@ABV23@@Z
  0000a	64 a1 00 00 00
	00		 mov	 eax, DWORD PTR fs:0
  00010	50		 push	 eax
  00011	51		 push	 ecx
  00012	53		 push	 ebx
  00013	56		 push	 esi
  00014	57		 push	 edi
  00015	a1 00 00 00 00	 mov	 eax, DWORD PTR ___security_cookie
  0001a	33 c5		 xor	 eax, ebp
  0001c	50		 push	 eax
  0001d	8d 45 f4	 lea	 eax, DWORD PTR __$EHRec$[ebp]
  00020	64 a3 00 00 00
	00		 mov	 DWORD PTR fs:0, eax
; File C:\Program Files (x86)\Microsoft Visual Studio\2019\Community\VC\Tools\MSVC\14.29.30133\atlmfc\include\atlsimpstr.h

; 519  : 		return( GetData()->nDataLength );

  00026	8b 7d 0c	 mov	 edi, DWORD PTR _strData$[ebp]
  00029	8b 07		 mov	 eax, DWORD PTR [edi]

; 533  : 		return( GetLength() == 0 );

  0002b	83 78 f4 00	 cmp	 DWORD PTR [eax-12], 0
; File D:\git\src\IBK\IBK_DRFN\ProjSrc\SrcDrfn\Chart\chart_common\DataList\Conversion.cpp

; 237  : 	if(strData.IsEmpty())

  0002f	75 10		 jne	 SHORT $LN5@NormalNumb

; 238  : 		return "";

  00031	8b 4d 08	 mov	 ecx, DWORD PTR ___$ReturnUdt$[ebp]
  00034	68 00 00 00 00	 push	 OFFSET ??_C@_00CNPNBAHC@@
  00039	ff 15 00 00 00
	00		 call	 DWORD PTR __imp_??0?$CStringT@DV?$StrTraitMFC_DLL@DV?$ChTraitsCRT@D@ATL@@@@@ATL@@QAE@PBD@Z
  0003f	eb 66		 jmp	 SHORT $LN27@NormalNumb
$LN5@NormalNumb:

; 239  : 
; 240  : 	CString strRealData;

  00041	8d 4d 0c	 lea	 ecx, DWORD PTR _strRealData$[ebp]
  00044	ff 15 00 00 00
	00		 call	 DWORD PTR __imp_??0?$CStringT@DV?$StrTraitMFC_DLL@DV?$ChTraitsCRT@D@ATL@@@@@ATL@@QAE@XZ

; 241  : 	for(int nIndex = 0; nIndex < strData.GetLength(); nIndex++){

  0004a	8b 07		 mov	 eax, DWORD PTR [edi]
  0004c	33 f6		 xor	 esi, esi
  0004e	c7 45 fc 00 00
	00 00		 mov	 DWORD PTR __$EHRec$[ebp+8], 0
  00055	39 70 f4	 cmp	 DWORD PTR [eax-12], esi
  00058	7e 37		 jle	 SHORT $LN3@NormalNumb
  0005a	8b 1d 00 00 00
	00		 mov	 ebx, DWORD PTR __imp__isdigit
$LL4@NormalNumb:

; 242  : 		char cData = strData[nIndex];

  00060	56		 push	 esi
  00061	8b cf		 mov	 ecx, edi
  00063	ff 15 00 00 00
	00		 call	 DWORD PTR __imp_??A?$CSimpleStringT@D$00@ATL@@QBEDH@Z
  00069	88 45 f0	 mov	 BYTE PTR _cData$2[ebp], al

; 243  : 		if(cData == '.' || isdigit(cData) != 0)

  0006c	3c 2e		 cmp	 al, 46			; 0000002eH
  0006e	74 0d		 je	 SHORT $LN7@NormalNumb
  00070	0f be c0	 movsx	 eax, al
  00073	50		 push	 eax
  00074	ff d3		 call	 ebx
  00076	83 c4 04	 add	 esp, 4
  00079	85 c0		 test	 eax, eax
  0007b	74 0c		 je	 SHORT $LN2@NormalNumb
$LN7@NormalNumb:

; 244  : 			strRealData += cData;

  0007d	ff 75 f0	 push	 DWORD PTR _cData$2[ebp]
  00080	8d 4d 0c	 lea	 ecx, DWORD PTR _strRealData$[ebp]
  00083	ff 15 00 00 00
	00		 call	 DWORD PTR __imp_??Y?$CStringT@DV?$StrTraitMFC_DLL@DV?$ChTraitsCRT@D@ATL@@@@@ATL@@QAEAAV01@D@Z
$LN2@NormalNumb:

; 241  : 	for(int nIndex = 0; nIndex < strData.GetLength(); nIndex++){

  00089	8b 07		 mov	 eax, DWORD PTR [edi]
  0008b	46		 inc	 esi
  0008c	3b 70 f4	 cmp	 esi, DWORD PTR [eax-12]
  0008f	7c cf		 jl	 SHORT $LL4@NormalNumb
$LN3@NormalNumb:

; 245  : 	}
; 246  : 	return strRealData;

  00091	8b 4d 08	 mov	 ecx, DWORD PTR ___$ReturnUdt$[ebp]
  00094	8d 45 0c	 lea	 eax, DWORD PTR _strRealData$[ebp]
  00097	50		 push	 eax
  00098	ff 15 00 00 00
	00		 call	 DWORD PTR __imp_??0?$CStringT@DV?$StrTraitMFC_DLL@DV?$ChTraitsCRT@D@ATL@@@@@ATL@@QAE@ABV01@@Z
  0009e	8d 4d 0c	 lea	 ecx, DWORD PTR _strRealData$[ebp]
  000a1	ff 15 00 00 00
	00		 call	 DWORD PTR __imp_??1?$CStringT@DV?$StrTraitMFC_DLL@DV?$ChTraitsCRT@D@ATL@@@@@ATL@@QAE@XZ
$LN27@NormalNumb:

; 247  : }

  000a7	8b 45 08	 mov	 eax, DWORD PTR ___$ReturnUdt$[ebp]
  000aa	8b 4d f4	 mov	 ecx, DWORD PTR __$EHRec$[ebp]
  000ad	64 89 0d 00 00
	00 00		 mov	 DWORD PTR fs:0, ecx
  000b4	59		 pop	 ecx
  000b5	5f		 pop	 edi
  000b6	5e		 pop	 esi
  000b7	5b		 pop	 ebx
  000b8	8b e5		 mov	 esp, ebp
  000ba	5d		 pop	 ebp
  000bb	c3		 ret	 0
_TEXT	ENDS
;	COMDAT text$x
text$x	SEGMENT
__unwindfunclet$?NormalNumberString@CDataConversion@@SA?AV?$CStringT@DV?$StrTraitMFC_DLL@DV?$ChTraitsCRT@D@ATL@@@@@ATL@@ABV23@@Z$1:
  00000	8d 4d 0c	 lea	 ecx, DWORD PTR _strRealData$[ebp]
  00003	ff 25 00 00 00
	00		 jmp	 DWORD PTR __imp_??1?$CStringT@DV?$StrTraitMFC_DLL@DV?$ChTraitsCRT@D@ATL@@@@@ATL@@QAE@XZ
  00009	cc		 int	 3
  0000a	cc		 int	 3
  0000b	cc		 int	 3
  0000c	cc		 int	 3
  0000d	cc		 int	 3
__ehhandler$?NormalNumberString@CDataConversion@@SA?AV?$CStringT@DV?$StrTraitMFC_DLL@DV?$ChTraitsCRT@D@ATL@@@@@ATL@@ABV23@@Z:
  0000e	90		 npad	 1
  0000f	90		 npad	 1
  00010	8b 54 24 08	 mov	 edx, DWORD PTR [esp+8]
  00014	8d 42 0c	 lea	 eax, DWORD PTR [edx+12]
  00017	8b 4a ec	 mov	 ecx, DWORD PTR [edx-20]
  0001a	33 c8		 xor	 ecx, eax
  0001c	e8 00 00 00 00	 call	 @__security_check_cookie@4
  00021	b8 00 00 00 00	 mov	 eax, OFFSET __ehfuncinfo$?NormalNumberString@CDataConversion@@SA?AV?$CStringT@DV?$StrTraitMFC_DLL@DV?$ChTraitsCRT@D@ATL@@@@@ATL@@ABV23@@Z
  00026	e9 00 00 00 00	 jmp	 ___CxxFrameHandler3
text$x	ENDS
?NormalNumberString@CDataConversion@@SA?AV?$CStringT@DV?$StrTraitMFC_DLL@DV?$ChTraitsCRT@D@ATL@@@@@ATL@@ABV23@@Z ENDP ; CDataConversion::NormalNumberString
; Function compile flags: /Ogtp
; File D:\git\src\IBK\IBK_DRFN\ProjSrc\SrcDrfn\Chart\chart_common\DataList\Conversion.cpp
; File C:\Program Files (x86)\Microsoft Visual Studio\2019\Community\VC\Tools\MSVC\14.29.30133\atlmfc\include\atlsimpstr.h
; File D:\git\src\IBK\IBK_DRFN\ProjSrc\SrcDrfn\Chart\chart_common\DataList\Conversion.cpp
; File C:\Program Files (x86)\Microsoft Visual Studio\2019\Community\VC\Tools\MSVC\14.29.30133\atlmfc\include\atlsimpstr.h
; File D:\git\src\IBK\IBK_DRFN\ProjSrc\SrcDrfn\Chart\chart_common\DataList\Conversion.cpp
; File C:\Program Files (x86)\Microsoft Visual Studio\2019\Community\VC\Tools\MSVC\14.29.30133\atlmfc\include\atlsimpstr.h
; File D:\git\src\IBK\IBK_DRFN\ProjSrc\SrcDrfn\Chart\chart_common\DataList\Conversion.cpp
;	COMDAT ?DoubleToString@CDataConversion@@SA?AV?$CStringT@DV?$StrTraitMFC_DLL@DV?$ChTraitsCRT@D@ATL@@@@@ATL@@ABNH@Z
_TEXT	SEGMENT
_dData$ = -28						; size = 8
_dRoundNum$2 = -28					; size = 8
$T3 = -28						; size = 8
$T4 = -20						; size = 4
$T5 = -20						; size = 4
_strData$ = -16						; size = 4
__$EHRec$ = -12						; size = 12
___$ReturnUdt$ = 8					; size = 4
_Num$ = 12						; size = 4
_strData$6 = 16						; size = 4
_decimalDownCount$ = 16					; size = 4
?DoubleToString@CDataConversion@@SA?AV?$CStringT@DV?$StrTraitMFC_DLL@DV?$ChTraitsCRT@D@ATL@@@@@ATL@@ABNH@Z PROC ; CDataConversion::DoubleToString, COMDAT

; 171  : {

  00000	55		 push	 ebp
  00001	8b ec		 mov	 ebp, esp
  00003	6a ff		 push	 -1
  00005	68 00 00 00 00	 push	 __ehhandler$?DoubleToString@CDataConversion@@SA?AV?$CStringT@DV?$StrTraitMFC_DLL@DV?$ChTraitsCRT@D@ATL@@@@@ATL@@ABNH@Z
  0000a	64 a1 00 00 00
	00		 mov	 eax, DWORD PTR fs:0
  00010	50		 push	 eax
  00011	83 ec 10	 sub	 esp, 16			; 00000010H
  00014	56		 push	 esi
  00015	57		 push	 edi
  00016	a1 00 00 00 00	 mov	 eax, DWORD PTR ___security_cookie
  0001b	33 c5		 xor	 eax, ebp
  0001d	50		 push	 eax
  0001e	8d 45 f4	 lea	 eax, DWORD PTR __$EHRec$[ebp]
  00021	64 a3 00 00 00
	00		 mov	 DWORD PTR fs:0, eax

; 172  : 	if(decimalDownCount == 0){

  00027	8b 75 10	 mov	 esi, DWORD PTR _decimalDownCount$[ebp]
  0002a	85 f6		 test	 esi, esi
  0002c	75 2e		 jne	 SHORT $LN31@DoubleToSt

; 173  : 		return DoubleToString(CMath::Round_Double(Num));

  0002e	ff 75 0c	 push	 DWORD PTR _Num$[ebp]
  00031	e8 00 00 00 00	 call	 ?Round_Double@CMath@@SANABN@Z ; CMath::Round_Double
  00036	8b 75 08	 mov	 esi, DWORD PTR ___$ReturnUdt$[ebp]
  00039	8d 45 e4	 lea	 eax, DWORD PTR $T3[ebp]
  0003c	50		 push	 eax
  0003d	56		 push	 esi
  0003e	dd 5d e4	 fstp	 QWORD PTR $T3[ebp]
  00041	e8 00 00 00 00	 call	 ?DoubleToString@CDataConversion@@SA?AV?$CStringT@DV?$StrTraitMFC_DLL@DV?$ChTraitsCRT@D@ATL@@@@@ATL@@ABN@Z ; CDataConversion::DoubleToString
  00046	83 c4 0c	 add	 esp, 12			; 0000000cH
  00049	8b c6		 mov	 eax, esi

; 200  : }

  0004b	8b 4d f4	 mov	 ecx, DWORD PTR __$EHRec$[ebp]
  0004e	64 89 0d 00 00
	00 00		 mov	 DWORD PTR fs:0, ecx
  00055	59		 pop	 ecx
  00056	5f		 pop	 edi
  00057	5e		 pop	 esi
  00058	8b e5		 mov	 esp, ebp
  0005a	5d		 pop	 ebp
  0005b	c3		 ret	 0
$LN31@DoubleToSt:

; 174  : 	}
; 175  : 	if(decimalDownCount > 0){

  0005c	0f 8e b3 00 00
	00		 jle	 $LN6@DoubleToSt

; 176  : 		double dRoundNum = CMath::Round(Num, decimalDownCount +1);

  00062	8d 46 01	 lea	 eax, DWORD PTR [esi+1]
  00065	50		 push	 eax
  00066	ff 75 0c	 push	 DWORD PTR _Num$[ebp]
  00069	e8 00 00 00 00	 call	 ?Round@CMath@@SANABNH@Z	; CMath::Round

; 177  : 		CString strData = DoubleToString(dRoundNum);

  0006e	8d 45 e4	 lea	 eax, DWORD PTR _dRoundNum$2[ebp]
  00071	50		 push	 eax
  00072	8d 45 10	 lea	 eax, DWORD PTR _strData$6[ebp]
  00075	50		 push	 eax
  00076	dd 5d e4	 fstp	 QWORD PTR _dRoundNum$2[ebp]
  00079	e8 00 00 00 00	 call	 ?DoubleToString@CDataConversion@@SA?AV?$CStringT@DV?$StrTraitMFC_DLL@DV?$ChTraitsCRT@D@ATL@@@@@ATL@@ABN@Z ; CDataConversion::DoubleToString
  0007e	83 c4 10	 add	 esp, 16			; 00000010H

; 178  : 		int nStart = 0;

  00081	33 ff		 xor	 edi, edi
  00083	c7 45 fc 00 00
	00 00		 mov	 DWORD PTR __$EHRec$[ebp+8], 0

; 179  : 		int nFindIndex = strData.Find('.');

  0008a	57		 push	 edi
  0008b	6a 2e		 push	 46			; 0000002eH
  0008d	8d 4d 10	 lea	 ecx, DWORD PTR _strData$6[ebp]
  00090	ff 15 00 00 00
	00		 call	 DWORD PTR __imp_?Find@?$CStringT@DV?$StrTraitMFC_DLL@DV?$ChTraitsCRT@D@ATL@@@@@ATL@@QBEHDH@Z

; 180  : 		if(nFindIndex >= 0)

  00096	85 c0		 test	 eax, eax
  00098	78 3f		 js	 SHORT $LN7@DoubleToSt
; File C:\Program Files (x86)\Microsoft Visual Studio\2019\Community\VC\Tools\MSVC\14.29.30133\atlmfc\include\atlsimpstr.h

; 519  : 		return( GetData()->nDataLength );

  0009a	8b 4d 10	 mov	 ecx, DWORD PTR _strData$6[ebp]
  0009d	8b 79 f4	 mov	 edi, DWORD PTR [ecx-12]
; File D:\git\src\IBK\IBK_DRFN\ProjSrc\SrcDrfn\Chart\chart_common\DataList\Conversion.cpp

; 181  : 			nStart = strData.GetLength() - (nFindIndex +1);

  000a0	2b f8		 sub	 edi, eax
  000a2	4f		 dec	 edi

; 184  : 
; 185  : 		if(nStart > decimalDownCount){

  000a3	3b fe		 cmp	 edi, esi
  000a5	7e 2e		 jle	 SHORT $LN9@DoubleToSt

; 186  : 			strData = strData.Left(nFindIndex + decimalDownCount + 1);

  000a7	40		 inc	 eax
  000a8	8d 4d 10	 lea	 ecx, DWORD PTR _strData$6[ebp]
  000ab	03 c6		 add	 eax, esi
  000ad	50		 push	 eax
  000ae	8d 45 ec	 lea	 eax, DWORD PTR $T5[ebp]
  000b1	50		 push	 eax
  000b2	ff 15 00 00 00
	00		 call	 DWORD PTR __imp_?Left@?$CStringT@DV?$StrTraitMFC_DLL@DV?$ChTraitsCRT@D@ATL@@@@@ATL@@QBE?AV12@H@Z
  000b8	50		 push	 eax
  000b9	8d 4d 10	 lea	 ecx, DWORD PTR _strData$6[ebp]
  000bc	c6 45 fc 01	 mov	 BYTE PTR __$EHRec$[ebp+8], 1
  000c0	ff 15 00 00 00
	00		 call	 DWORD PTR __imp_??4?$CStringT@DV?$StrTraitMFC_DLL@DV?$ChTraitsCRT@D@ATL@@@@@ATL@@QAEAAV01@ABV01@@Z
  000c6	8d 4d ec	 lea	 ecx, DWORD PTR $T5[ebp]
  000c9	c6 45 fc 00	 mov	 BYTE PTR __$EHRec$[ebp+8], 0
  000cd	ff 15 00 00 00
	00		 call	 DWORD PTR __imp_??1?$CStringT@DV?$StrTraitMFC_DLL@DV?$ChTraitsCRT@D@ATL@@@@@ATL@@QAE@XZ
  000d3	eb 2b		 jmp	 SHORT $LN3@DoubleToSt
$LN9@DoubleToSt:

; 187  : 		}
; 188  : 
; 189  : 		for(int nIndex = nStart; nIndex < decimalDownCount; nIndex++)

  000d5	7d 29		 jge	 SHORT $LN3@DoubleToSt
  000d7	eb 0b		 jmp	 SHORT $LN29@DoubleToSt
$LN7@DoubleToSt:

; 182  : 		else
; 183  : 			strData += '.';

  000d9	6a 2e		 push	 46			; 0000002eH
  000db	8d 4d 10	 lea	 ecx, DWORD PTR _strData$6[ebp]
  000de	ff 15 00 00 00
	00		 call	 DWORD PTR __imp_??Y?$CStringT@DV?$StrTraitMFC_DLL@DV?$ChTraitsCRT@D@ATL@@@@@ATL@@QAEAAV01@D@Z
$LN29@DoubleToSt:

; 187  : 		}
; 188  : 
; 189  : 		for(int nIndex = nStart; nIndex < decimalDownCount; nIndex++)

  000e4	2b f7		 sub	 esi, edi
  000e6	66 66 0f 1f 84
	00 00 00 00 00	 npad	 10
$LL4@DoubleToSt:

; 190  : 			strData += '0';

  000f0	6a 30		 push	 48			; 00000030H
  000f2	8d 4d 10	 lea	 ecx, DWORD PTR _strData$6[ebp]
  000f5	ff 15 00 00 00
	00		 call	 DWORD PTR __imp_??Y?$CStringT@DV?$StrTraitMFC_DLL@DV?$ChTraitsCRT@D@ATL@@@@@ATL@@QAEAAV01@D@Z
  000fb	83 ee 01	 sub	 esi, 1
  000fe	75 f0		 jne	 SHORT $LL4@DoubleToSt
$LN3@DoubleToSt:

; 191  : 
; 192  : 		return strData;

  00100	8b 4d 08	 mov	 ecx, DWORD PTR ___$ReturnUdt$[ebp]
  00103	8d 45 10	 lea	 eax, DWORD PTR _strData$6[ebp]
  00106	50		 push	 eax
  00107	ff 15 00 00 00
	00		 call	 DWORD PTR __imp_??0?$CStringT@DV?$StrTraitMFC_DLL@DV?$ChTraitsCRT@D@ATL@@@@@ATL@@QAE@ABV01@@Z
  0010d	8d 4d 10	 lea	 ecx, DWORD PTR _strData$6[ebp]
  00110	e9 86 00 00 00	 jmp	 $LN32@DoubleToSt
$LN6@DoubleToSt:

; 193  : 	}
; 194  : 
; 195  : 	double dData = CMath::Round(Num, abs(decimalDownCount));

  00115	8b c6		 mov	 eax, esi
  00117	99		 cdq
  00118	33 c2		 xor	 eax, edx
  0011a	2b c2		 sub	 eax, edx
  0011c	50		 push	 eax
  0011d	ff 75 0c	 push	 DWORD PTR _Num$[ebp]
  00120	e8 00 00 00 00	 call	 ?Round@CMath@@SANABNH@Z	; CMath::Round
  00125	83 c4 08	 add	 esp, 8

; 196  : 	CString strData;

  00128	8d 4d f0	 lea	 ecx, DWORD PTR _strData$[ebp]
  0012b	dd 5d e4	 fstp	 QWORD PTR _dData$[ebp]
  0012e	ff 15 00 00 00
	00		 call	 DWORD PTR __imp_??0?$CStringT@DV?$StrTraitMFC_DLL@DV?$ChTraitsCRT@D@ATL@@@@@ATL@@QAE@XZ

; 197  : 	strData.Format("%.0f", dData);

  00134	f2 0f 10 45 e4	 movsd	 xmm0, QWORD PTR _dData$[ebp]
  00139	8d 45 f0	 lea	 eax, DWORD PTR _strData$[ebp]
  0013c	83 ec 08	 sub	 esp, 8
  0013f	c7 45 fc 02 00
	00 00		 mov	 DWORD PTR __$EHRec$[ebp+8], 2
  00146	f2 0f 11 04 24	 movsd	 QWORD PTR [esp], xmm0
  0014b	68 00 00 00 00	 push	 OFFSET ??_C@_04GHNNFJCK@?$CF?40f@
  00150	50		 push	 eax
  00151	ff 15 00 00 00
	00		 call	 DWORD PTR __imp_?Format@?$CStringT@DV?$StrTraitMFC_DLL@DV?$ChTraitsCRT@D@ATL@@@@@ATL@@QAAXPBDZZ
; File C:\Program Files (x86)\Microsoft Visual Studio\2019\Community\VC\Tools\MSVC\14.29.30133\atlmfc\include\atlsimpstr.h

; 519  : 		return( GetData()->nDataLength );

  00157	8b 45 f0	 mov	 eax, DWORD PTR _strData$[ebp]
; File D:\git\src\IBK\IBK_DRFN\ProjSrc\SrcDrfn\Chart\chart_common\DataList\Conversion.cpp

; 198  : 	strData = strData.Left(strData.GetLength() + decimalDownCount); // "xxxxxx" -> "xxxx" (negativeCount = 2 )

  0015a	8d 4d f0	 lea	 ecx, DWORD PTR _strData$[ebp]
  0015d	83 c4 10	 add	 esp, 16			; 00000010H
; File C:\Program Files (x86)\Microsoft Visual Studio\2019\Community\VC\Tools\MSVC\14.29.30133\atlmfc\include\atlsimpstr.h

; 519  : 		return( GetData()->nDataLength );

  00160	8b 40 f4	 mov	 eax, DWORD PTR [eax-12]
; File D:\git\src\IBK\IBK_DRFN\ProjSrc\SrcDrfn\Chart\chart_common\DataList\Conversion.cpp

; 198  : 	strData = strData.Left(strData.GetLength() + decimalDownCount); // "xxxxxx" -> "xxxx" (negativeCount = 2 )

  00163	03 c6		 add	 eax, esi
  00165	50		 push	 eax
  00166	8d 45 ec	 lea	 eax, DWORD PTR $T4[ebp]
  00169	50		 push	 eax
  0016a	ff 15 00 00 00
	00		 call	 DWORD PTR __imp_?Left@?$CStringT@DV?$StrTraitMFC_DLL@DV?$ChTraitsCRT@D@ATL@@@@@ATL@@QBE?AV12@H@Z
  00170	50		 push	 eax
  00171	8d 4d f0	 lea	 ecx, DWORD PTR _strData$[ebp]
  00174	c6 45 fc 03	 mov	 BYTE PTR __$EHRec$[ebp+8], 3
  00178	ff 15 00 00 00
	00		 call	 DWORD PTR __imp_??4?$CStringT@DV?$StrTraitMFC_DLL@DV?$ChTraitsCRT@D@ATL@@@@@ATL@@QAEAAV01@ABV01@@Z
  0017e	8d 4d ec	 lea	 ecx, DWORD PTR $T4[ebp]
  00181	c6 45 fc 02	 mov	 BYTE PTR __$EHRec$[ebp+8], 2
  00185	ff 15 00 00 00
	00		 call	 DWORD PTR __imp_??1?$CStringT@DV?$StrTraitMFC_DLL@DV?$ChTraitsCRT@D@ATL@@@@@ATL@@QAE@XZ

; 199  : 	return strData;

  0018b	8b 4d 08	 mov	 ecx, DWORD PTR ___$ReturnUdt$[ebp]
  0018e	8d 45 f0	 lea	 eax, DWORD PTR _strData$[ebp]
  00191	50		 push	 eax
  00192	ff 15 00 00 00
	00		 call	 DWORD PTR __imp_??0?$CStringT@DV?$StrTraitMFC_DLL@DV?$ChTraitsCRT@D@ATL@@@@@ATL@@QAE@ABV01@@Z
  00198	8d 4d f0	 lea	 ecx, DWORD PTR _strData$[ebp]
$LN32@DoubleToSt:

; 200  : }

  0019b	ff 15 00 00 00
	00		 call	 DWORD PTR __imp_??1?$CStringT@DV?$StrTraitMFC_DLL@DV?$ChTraitsCRT@D@ATL@@@@@ATL@@QAE@XZ
  001a1	8b 45 08	 mov	 eax, DWORD PTR ___$ReturnUdt$[ebp]
  001a4	8b 4d f4	 mov	 ecx, DWORD PTR __$EHRec$[ebp]
  001a7	64 89 0d 00 00
	00 00		 mov	 DWORD PTR fs:0, ecx
  001ae	59		 pop	 ecx
  001af	5f		 pop	 edi
  001b0	5e		 pop	 esi
  001b1	8b e5		 mov	 esp, ebp
  001b3	5d		 pop	 ebp
  001b4	c3		 ret	 0
_TEXT	ENDS
;	COMDAT text$x
text$x	SEGMENT
__unwindfunclet$?DoubleToString@CDataConversion@@SA?AV?$CStringT@DV?$StrTraitMFC_DLL@DV?$ChTraitsCRT@D@ATL@@@@@ATL@@ABNH@Z$1:
  00000	8d 4d 10	 lea	 ecx, DWORD PTR _strData$6[ebp]
  00003	ff 25 00 00 00
	00		 jmp	 DWORD PTR __imp_??1?$CStringT@DV?$StrTraitMFC_DLL@DV?$ChTraitsCRT@D@ATL@@@@@ATL@@QAE@XZ
__unwindfunclet$?DoubleToString@CDataConversion@@SA?AV?$CStringT@DV?$StrTraitMFC_DLL@DV?$ChTraitsCRT@D@ATL@@@@@ATL@@ABNH@Z$2:
  00009	8d 4d ec	 lea	 ecx, DWORD PTR $T5[ebp]
  0000c	ff 25 00 00 00
	00		 jmp	 DWORD PTR __imp_??1?$CStringT@DV?$StrTraitMFC_DLL@DV?$ChTraitsCRT@D@ATL@@@@@ATL@@QAE@XZ
__unwindfunclet$?DoubleToString@CDataConversion@@SA?AV?$CStringT@DV?$StrTraitMFC_DLL@DV?$ChTraitsCRT@D@ATL@@@@@ATL@@ABNH@Z$3:
  00012	8d 4d f0	 lea	 ecx, DWORD PTR _strData$[ebp]
  00015	ff 25 00 00 00
	00		 jmp	 DWORD PTR __imp_??1?$CStringT@DV?$StrTraitMFC_DLL@DV?$ChTraitsCRT@D@ATL@@@@@ATL@@QAE@XZ
__unwindfunclet$?DoubleToString@CDataConversion@@SA?AV?$CStringT@DV?$StrTraitMFC_DLL@DV?$ChTraitsCRT@D@ATL@@@@@ATL@@ABNH@Z$4:
  0001b	8d 4d ec	 lea	 ecx, DWORD PTR $T4[ebp]
  0001e	ff 25 00 00 00
	00		 jmp	 DWORD PTR __imp_??1?$CStringT@DV?$StrTraitMFC_DLL@DV?$ChTraitsCRT@D@ATL@@@@@ATL@@QAE@XZ
  00024	cc		 int	 3
  00025	cc		 int	 3
  00026	cc		 int	 3
  00027	cc		 int	 3
  00028	cc		 int	 3
__ehhandler$?DoubleToString@CDataConversion@@SA?AV?$CStringT@DV?$StrTraitMFC_DLL@DV?$ChTraitsCRT@D@ATL@@@@@ATL@@ABNH@Z:
  00029	90		 npad	 1
  0002a	90		 npad	 1
  0002b	8b 54 24 08	 mov	 edx, DWORD PTR [esp+8]
  0002f	8d 42 0c	 lea	 eax, DWORD PTR [edx+12]
  00032	8b 4a e4	 mov	 ecx, DWORD PTR [edx-28]
  00035	33 c8		 xor	 ecx, eax
  00037	e8 00 00 00 00	 call	 @__security_check_cookie@4
  0003c	b8 00 00 00 00	 mov	 eax, OFFSET __ehfuncinfo$?DoubleToString@CDataConversion@@SA?AV?$CStringT@DV?$StrTraitMFC_DLL@DV?$ChTraitsCRT@D@ATL@@@@@ATL@@ABNH@Z
  00041	e9 00 00 00 00	 jmp	 ___CxxFrameHandler3
text$x	ENDS
?DoubleToString@CDataConversion@@SA?AV?$CStringT@DV?$StrTraitMFC_DLL@DV?$ChTraitsCRT@D@ATL@@@@@ATL@@ABNH@Z ENDP ; CDataConversion::DoubleToString
; Function compile flags: /Ogtp
; File D:\git\src\IBK\IBK_DRFN\ProjSrc\SrcDrfn\Chart\chart_common\DataList\Conversion.cpp
; File C:\Program Files (x86)\Microsoft Visual Studio\2019\Community\VC\Tools\MSVC\14.29.30133\atlmfc\include\cstringt.h
; File D:\git\src\IBK\IBK_DRFN\ProjSrc\SrcDrfn\Chart\chart_common\DataList\Conversion.cpp
; File C:\Program Files (x86)\Microsoft Visual Studio\2019\Community\VC\Tools\MSVC\14.29.30133\atlmfc\include\cstringt.h
; File D:\git\src\IBK\IBK_DRFN\ProjSrc\SrcDrfn\Chart\chart_common\DataList\Conversion.cpp
;	COMDAT ?DoubleToString@CDataConversion@@SA?AV?$CStringT@DV?$StrTraitMFC_DLL@DV?$ChTraitsCRT@D@ATL@@@@@ATL@@ABN@Z
_TEXT	SEGMENT
$T2 = -20						; size = 4
$T3 = -16						; size = 4
__$EHRec$ = -12						; size = 12
___$ReturnUdt$ = 8					; size = 4
_Num$ = 12						; size = 4
?DoubleToString@CDataConversion@@SA?AV?$CStringT@DV?$StrTraitMFC_DLL@DV?$ChTraitsCRT@D@ATL@@@@@ATL@@ABN@Z PROC ; CDataConversion::DoubleToString, COMDAT

; 122  : {

  00000	55		 push	 ebp
  00001	8b ec		 mov	 ebp, esp
  00003	6a ff		 push	 -1
  00005	68 00 00 00 00	 push	 __ehhandler$?DoubleToString@CDataConversion@@SA?AV?$CStringT@DV?$StrTraitMFC_DLL@DV?$ChTraitsCRT@D@ATL@@@@@ATL@@ABN@Z
  0000a	64 a1 00 00 00
	00		 mov	 eax, DWORD PTR fs:0
  00010	50		 push	 eax
  00011	83 ec 08	 sub	 esp, 8
  00014	56		 push	 esi
  00015	a1 00 00 00 00	 mov	 eax, DWORD PTR ___security_cookie
  0001a	33 c5		 xor	 eax, ebp
  0001c	50		 push	 eax
  0001d	8d 45 f4	 lea	 eax, DWORD PTR __$EHRec$[ebp]
  00020	64 a3 00 00 00
	00		 mov	 DWORD PTR fs:0, eax
  00026	c7 45 ec 00 00
	00 00		 mov	 DWORD PTR $T2[ebp], 0

; 123  : 	//assert(Num != DBL_MAX);
; 124  : 	//assert(Num != -DBL_MAX);
; 125  : 
; 126  : 	CString strData;

  0002d	8b 75 08	 mov	 esi, DWORD PTR ___$ReturnUdt$[ebp]
  00030	8b ce		 mov	 ecx, esi
  00032	ff 15 00 00 00
	00		 call	 DWORD PTR __imp_??0?$CStringT@DV?$StrTraitMFC_DLL@DV?$ChTraitsCRT@D@ATL@@@@@ATL@@QAE@XZ

; 131  : 
; 132  : 	return strData;

  00038	8b 45 0c	 mov	 eax, DWORD PTR _Num$[ebp]
  0003b	83 ec 08	 sub	 esp, 8
  0003e	c7 45 fc 00 00
	00 00		 mov	 DWORD PTR __$EHRec$[ebp+8], 0
  00045	c7 45 ec 01 00
	00 00		 mov	 DWORD PTR $T2[ebp], 1
  0004c	f2 0f 10 00	 movsd	 xmm0, QWORD PTR [eax]
  00050	f2 0f 11 04 24	 movsd	 QWORD PTR [esp], xmm0
  00055	68 00 00 00 00	 push	 OFFSET ??_C@_02NJPGOMH@?$CFf@
  0005a	56		 push	 esi
  0005b	ff 15 00 00 00
	00		 call	 DWORD PTR __imp_?Format@?$CStringT@DV?$StrTraitMFC_DLL@DV?$ChTraitsCRT@D@ATL@@@@@ATL@@QAAXPBDZZ
  00061	83 c4 10	 add	 esp, 16			; 00000010H
  00064	8b ce		 mov	 ecx, esi
  00066	68 00 00 00 00	 push	 OFFSET ??_C@_01GBGANLPD@0@
  0006b	ff 15 00 00 00
	00		 call	 DWORD PTR __imp_?TrimRight@?$CStringT@DV?$StrTraitMFC_DLL@DV?$ChTraitsCRT@D@ATL@@@@@ATL@@QAEAAV12@PBD@Z
  00071	6a 01		 push	 1
  00073	8d 45 f0	 lea	 eax, DWORD PTR $T3[ebp]
  00076	8b ce		 mov	 ecx, esi
  00078	50		 push	 eax
  00079	ff 15 00 00 00
	00		 call	 DWORD PTR __imp_?Right@?$CStringT@DV?$StrTraitMFC_DLL@DV?$ChTraitsCRT@D@ATL@@@@@ATL@@QBE?AV12@H@Z
  0007f	8b c8		 mov	 ecx, eax
; File C:\Program Files (x86)\Microsoft Visual Studio\2019\Community\VC\Tools\MSVC\14.29.30133\atlmfc\include\cstringt.h

; 2510 : 		return((str1.GetLength() == 1) && (str1[0] == ch2));

  00081	8b 01		 mov	 eax, DWORD PTR [ecx]
  00083	83 78 f4 01	 cmp	 DWORD PTR [eax-12], 1
  00087	75 34		 jne	 SHORT $LN9@DoubleToSt
  00089	6a 00		 push	 0
  0008b	ff 15 00 00 00
	00		 call	 DWORD PTR __imp_??A?$CSimpleStringT@D$00@ATL@@QBEDH@Z
  00091	3c 2e		 cmp	 al, 46			; 0000002eH
  00093	75 28		 jne	 SHORT $LN9@DoubleToSt
  00095	8d 4d f0	 lea	 ecx, DWORD PTR $T3[ebp]
  00098	ff 15 00 00 00
	00		 call	 DWORD PTR __imp_??1?$CStringT@DV?$StrTraitMFC_DLL@DV?$ChTraitsCRT@D@ATL@@@@@ATL@@QAE@XZ
; File D:\git\src\IBK\IBK_DRFN\ProjSrc\SrcDrfn\Chart\chart_common\DataList\Conversion.cpp

; 130  : 		strData.TrimRight(".");

  0009e	68 00 00 00 00	 push	 OFFSET ??_C@_01LFCBOECM@?4@
  000a3	8b ce		 mov	 ecx, esi
  000a5	ff 15 00 00 00
	00		 call	 DWORD PTR __imp_?TrimRight@?$CStringT@DV?$StrTraitMFC_DLL@DV?$ChTraitsCRT@D@ATL@@@@@ATL@@QAEAAV12@PBD@Z

; 133  : }

  000ab	8b c6		 mov	 eax, esi
  000ad	8b 4d f4	 mov	 ecx, DWORD PTR __$EHRec$[ebp]
  000b0	64 89 0d 00 00
	00 00		 mov	 DWORD PTR fs:0, ecx
  000b7	59		 pop	 ecx
  000b8	5e		 pop	 esi
  000b9	8b e5		 mov	 esp, ebp
  000bb	5d		 pop	 ebp
  000bc	c3		 ret	 0
$LN9@DoubleToSt:
; File C:\Program Files (x86)\Microsoft Visual Studio\2019\Community\VC\Tools\MSVC\14.29.30133\atlmfc\include\cstringt.h

; 2510 : 		return((str1.GetLength() == 1) && (str1[0] == ch2));

  000bd	8d 4d f0	 lea	 ecx, DWORD PTR $T3[ebp]
  000c0	ff 15 00 00 00
	00		 call	 DWORD PTR __imp_??1?$CStringT@DV?$StrTraitMFC_DLL@DV?$ChTraitsCRT@D@ATL@@@@@ATL@@QAE@XZ
; File D:\git\src\IBK\IBK_DRFN\ProjSrc\SrcDrfn\Chart\chart_common\DataList\Conversion.cpp

; 133  : }

  000c6	8b c6		 mov	 eax, esi
  000c8	8b 4d f4	 mov	 ecx, DWORD PTR __$EHRec$[ebp]
  000cb	64 89 0d 00 00
	00 00		 mov	 DWORD PTR fs:0, ecx
  000d2	59		 pop	 ecx
  000d3	5e		 pop	 esi
  000d4	8b e5		 mov	 esp, ebp
  000d6	5d		 pop	 ebp
  000d7	c3		 ret	 0
_TEXT	ENDS
;	COMDAT text$x
text$x	SEGMENT
__unwindfunclet$?DoubleToString@CDataConversion@@SA?AV?$CStringT@DV?$StrTraitMFC_DLL@DV?$ChTraitsCRT@D@ATL@@@@@ATL@@ABN@Z$0:
  00000	8b 45 ec	 mov	 eax, DWORD PTR $T2[ebp]
  00003	83 e0 01	 and	 eax, 1
  00006	0f 84 0d 00 00
	00		 je	 $LN5@DoubleToSt
  0000c	83 65 ec fe	 and	 DWORD PTR $T2[ebp], -2	; fffffffeH
  00010	8b 4d 08	 mov	 ecx, DWORD PTR ___$ReturnUdt$[ebp]
  00013	ff 25 00 00 00
	00		 jmp	 DWORD PTR __imp_??1?$CStringT@DV?$StrTraitMFC_DLL@DV?$ChTraitsCRT@D@ATL@@@@@ATL@@QAE@XZ
$LN5@DoubleToSt:
  00019	c3		 ret	 0
  0001a	cc		 int	 3
  0001b	cc		 int	 3
  0001c	cc		 int	 3
  0001d	cc		 int	 3
  0001e	cc		 int	 3
__ehhandler$?DoubleToString@CDataConversion@@SA?AV?$CStringT@DV?$StrTraitMFC_DLL@DV?$ChTraitsCRT@D@ATL@@@@@ATL@@ABN@Z:
  0001f	90		 npad	 1
  00020	90		 npad	 1
  00021	8b 54 24 08	 mov	 edx, DWORD PTR [esp+8]
  00025	8d 42 0c	 lea	 eax, DWORD PTR [edx+12]
  00028	8b 4a f0	 mov	 ecx, DWORD PTR [edx-16]
  0002b	33 c8		 xor	 ecx, eax
  0002d	e8 00 00 00 00	 call	 @__security_check_cookie@4
  00032	b8 00 00 00 00	 mov	 eax, OFFSET __ehfuncinfo$?DoubleToString@CDataConversion@@SA?AV?$CStringT@DV?$StrTraitMFC_DLL@DV?$ChTraitsCRT@D@ATL@@@@@ATL@@ABN@Z
  00037	e9 00 00 00 00	 jmp	 ___CxxFrameHandler3
text$x	ENDS
?DoubleToString@CDataConversion@@SA?AV?$CStringT@DV?$StrTraitMFC_DLL@DV?$ChTraitsCRT@D@ATL@@@@@ATL@@ABN@Z ENDP ; CDataConversion::DoubleToString
; Function compile flags: /Ogtp
; File D:\git\src\IBK\IBK_DRFN\ProjSrc\SrcDrfn\Chart\chart_common\DataList\Conversion.cpp
; File C:\Program Files (x86)\Microsoft Visual Studio\2019\Community\VC\Tools\MSVC\14.29.30133\atlmfc\include\atlsimpstr.h
; File D:\git\src\IBK\IBK_DRFN\ProjSrc\SrcDrfn\Chart\chart_common\DataList\Conversion.cpp
; File C:\Program Files (x86)\Microsoft Visual Studio\2019\Community\VC\Tools\MSVC\14.29.30133\atlmfc\include\atlsimpstr.h
; File D:\git\src\IBK\IBK_DRFN\ProjSrc\SrcDrfn\Chart\chart_common\DataList\Conversion.cpp
; File C:\Program Files (x86)\Microsoft Visual Studio\2019\Community\VC\Tools\MSVC\14.29.30133\atlmfc\include\cstringt.h
; File D:\git\src\IBK\IBK_DRFN\ProjSrc\SrcDrfn\Chart\chart_common\DataList\Conversion.cpp
; File C:\Program Files (x86)\Microsoft Visual Studio\2019\Community\VC\Tools\MSVC\14.29.30133\atlmfc\include\cstringt.h
; File D:\git\src\IBK\IBK_DRFN\ProjSrc\SrcDrfn\Chart\chart_common\DataList\Conversion.cpp
; File C:\Program Files (x86)\Microsoft Visual Studio\2019\Community\VC\Tools\MSVC\14.29.30133\atlmfc\include\cstringt.h
; File D:\git\src\IBK\IBK_DRFN\ProjSrc\SrcDrfn\Chart\chart_common\DataList\Conversion.cpp
; File C:\Program Files (x86)\Microsoft Visual Studio\2019\Community\VC\Tools\MSVC\14.29.30133\atlmfc\include\cstringt.h
; File D:\git\src\IBK\IBK_DRFN\ProjSrc\SrcDrfn\Chart\chart_common\DataList\Conversion.cpp
;	COMDAT ?IntToString@CDataConversion@@SA?AV?$CStringT@DV?$StrTraitMFC_DLL@DV?$ChTraitsCRT@D@ATL@@@@@ATL@@HH@Z
_TEXT	SEGMENT
$T2 = -20						; size = 4
_temp$3 = -16						; size = 4
_temp$4 = -16						; size = 4
__$EHRec$ = -12						; size = 12
___$ReturnUdt$ = 8					; size = 4
_Num$ = 12						; size = 4
_strData$ = 16						; size = 4
_length$ = 16						; size = 4
?IntToString@CDataConversion@@SA?AV?$CStringT@DV?$StrTraitMFC_DLL@DV?$ChTraitsCRT@D@ATL@@@@@ATL@@HH@Z PROC ; CDataConversion::IntToString, COMDAT

; 95   : {

  00000	55		 push	 ebp
  00001	8b ec		 mov	 ebp, esp
  00003	6a ff		 push	 -1
  00005	68 00 00 00 00	 push	 __ehhandler$?IntToString@CDataConversion@@SA?AV?$CStringT@DV?$StrTraitMFC_DLL@DV?$ChTraitsCRT@D@ATL@@@@@ATL@@HH@Z
  0000a	64 a1 00 00 00
	00		 mov	 eax, DWORD PTR fs:0
  00010	50		 push	 eax
  00011	83 ec 08	 sub	 esp, 8
  00014	56		 push	 esi
  00015	57		 push	 edi
  00016	a1 00 00 00 00	 mov	 eax, DWORD PTR ___security_cookie
  0001b	33 c5		 xor	 eax, ebp
  0001d	50		 push	 eax
  0001e	8d 45 f4	 lea	 eax, DWORD PTR __$EHRec$[ebp]
  00021	64 a3 00 00 00
	00		 mov	 DWORD PTR fs:0, eax
  00027	8b 7d 10	 mov	 edi, DWORD PTR _length$[ebp]

; 96   : 	CString strData;

  0002a	8d 4d 10	 lea	 ecx, DWORD PTR _strData$[ebp]
  0002d	c7 45 ec 00 00
	00 00		 mov	 DWORD PTR $T2[ebp], 0
  00034	ff 15 00 00 00
	00		 call	 DWORD PTR __imp_??0?$CStringT@DV?$StrTraitMFC_DLL@DV?$ChTraitsCRT@D@ATL@@@@@ATL@@QAE@XZ

; 97   : 	strData.Format("%d", Num);

  0003a	ff 75 0c	 push	 DWORD PTR _Num$[ebp]
  0003d	8d 45 10	 lea	 eax, DWORD PTR _strData$[ebp]
  00040	c7 45 fc 00 00
	00 00		 mov	 DWORD PTR __$EHRec$[ebp+8], 0
  00047	68 00 00 00 00	 push	 OFFSET ??_C@_02DPKJAMEF@?$CFd@
  0004c	50		 push	 eax
  0004d	ff 15 00 00 00
	00		 call	 DWORD PTR __imp_?Format@?$CStringT@DV?$StrTraitMFC_DLL@DV?$ChTraitsCRT@D@ATL@@@@@ATL@@QAAXPBDZZ
  00053	83 c4 0c	 add	 esp, 12			; 0000000cH

; 98   : 
; 99   : 	if(length > 0){

  00056	85 ff		 test	 edi, edi
  00058	0f 8e da 00 00
	00		 jle	 $LN73@IntToStrin
; File C:\Program Files (x86)\Microsoft Visual Studio\2019\Community\VC\Tools\MSVC\14.29.30133\atlmfc\include\atlsimpstr.h

; 519  : 		return( GetData()->nDataLength );

  0005e	8b 45 10	 mov	 eax, DWORD PTR _strData$[ebp]
  00061	8b 40 f4	 mov	 eax, DWORD PTR [eax-12]
; File D:\git\src\IBK\IBK_DRFN\ProjSrc\SrcDrfn\Chart\chart_common\DataList\Conversion.cpp

; 100  : 		if(strData.GetLength() > length){

  00064	3b c7		 cmp	 eax, edi
  00066	7e 2a		 jle	 SHORT $LN10@IntToStrin

; 101  : 			return strData.Left(length);

  00068	8b 75 08	 mov	 esi, DWORD PTR ___$ReturnUdt$[ebp]
  0006b	8d 4d 10	 lea	 ecx, DWORD PTR _strData$[ebp]
  0006e	57		 push	 edi
  0006f	56		 push	 esi
  00070	ff 15 00 00 00
	00		 call	 DWORD PTR __imp_?Left@?$CStringT@DV?$StrTraitMFC_DLL@DV?$ChTraitsCRT@D@ATL@@@@@ATL@@QBE?AV12@H@Z
  00076	8d 4d 10	 lea	 ecx, DWORD PTR _strData$[ebp]
  00079	ff 15 00 00 00
	00		 call	 DWORD PTR __imp_??1?$CStringT@DV?$StrTraitMFC_DLL@DV?$ChTraitsCRT@D@ATL@@@@@ATL@@QAE@XZ
  0007f	8b c6		 mov	 eax, esi

; 118  : }

  00081	8b 4d f4	 mov	 ecx, DWORD PTR __$EHRec$[ebp]
  00084	64 89 0d 00 00
	00 00		 mov	 DWORD PTR fs:0, ecx
  0008b	59		 pop	 ecx
  0008c	5f		 pop	 edi
  0008d	5e		 pop	 esi
  0008e	8b e5		 mov	 esp, ebp
  00090	5d		 pop	 ebp
  00091	c3		 ret	 0
$LN10@IntToStrin:

; 102  : 		}
; 103  : 		else if(strData.GetLength() < length){

  00092	0f 8d d3 00 00
	00		 jge	 $LN13@IntToStrin

; 104  : 			CString temp;

  00098	8d 4d f0	 lea	 ecx, DWORD PTR _temp$4[ebp]
  0009b	ff 15 00 00 00
	00		 call	 DWORD PTR __imp_??0?$CStringT@DV?$StrTraitMFC_DLL@DV?$ChTraitsCRT@D@ATL@@@@@ATL@@QAE@XZ
; File C:\Program Files (x86)\Microsoft Visual Studio\2019\Community\VC\Tools\MSVC\14.29.30133\atlmfc\include\atlsimpstr.h

; 519  : 		return( GetData()->nDataLength );

  000a1	8b 45 10	 mov	 eax, DWORD PTR _strData$[ebp]
; File D:\git\src\IBK\IBK_DRFN\ProjSrc\SrcDrfn\Chart\chart_common\DataList\Conversion.cpp

; 105  : 			for(int i = 0; i < length - strData.GetLength(); i++)

  000a4	8b cf		 mov	 ecx, edi
  000a6	33 f6		 xor	 esi, esi
  000a8	c6 45 fc 01	 mov	 BYTE PTR __$EHRec$[ebp+8], 1
  000ac	2b 48 f4	 sub	 ecx, DWORD PTR [eax-12]
  000af	85 c9		 test	 ecx, ecx
  000b1	7e 28		 jle	 SHORT $LN3@IntToStrin
  000b3	0f 1f 40 00 66
	0f 1f 84 00 00
	00 00 00	 npad	 13
$LL4@IntToStrin:

; 106  : 				temp += "0";

  000c0	68 00 00 00 00	 push	 OFFSET ??_C@_01GBGANLPD@0@
  000c5	8d 4d f0	 lea	 ecx, DWORD PTR _temp$4[ebp]
  000c8	ff 15 00 00 00
	00		 call	 DWORD PTR __imp_??Y?$CStringT@DV?$StrTraitMFC_DLL@DV?$ChTraitsCRT@D@ATL@@@@@ATL@@QAEAAV01@PBD@Z
  000ce	8b 45 10	 mov	 eax, DWORD PTR _strData$[ebp]
  000d1	8b cf		 mov	 ecx, edi
  000d3	46		 inc	 esi
  000d4	2b 48 f4	 sub	 ecx, DWORD PTR [eax-12]
  000d7	3b f1		 cmp	 esi, ecx
  000d9	7c e5		 jl	 SHORT $LL4@IntToStrin
$LN3@IntToStrin:
; File C:\Program Files (x86)\Microsoft Visual Studio\2019\Community\VC\Tools\MSVC\14.29.30133\atlmfc\include\cstringt.h

; 2390 : 		CStringT strResult( str1.GetManager() );

  000db	8d 4d f0	 lea	 ecx, DWORD PTR _temp$4[ebp]
; File D:\git\src\IBK\IBK_DRFN\ProjSrc\SrcDrfn\Chart\chart_common\DataList\Conversion.cpp

; 107  : 			return temp + strData;

  000de	c6 45 fc 02	 mov	 BYTE PTR __$EHRec$[ebp+8], 2
; File C:\Program Files (x86)\Microsoft Visual Studio\2019\Community\VC\Tools\MSVC\14.29.30133\atlmfc\include\cstringt.h

; 2390 : 		CStringT strResult( str1.GetManager() );

  000e2	ff 15 00 00 00
	00		 call	 DWORD PTR __imp_?GetManager@?$CStringT@DV?$StrTraitMFC_DLL@DV?$ChTraitsCRT@D@ATL@@@@@ATL@@QBEPAUIAtlStringMgr@2@XZ
  000e8	8b 75 08	 mov	 esi, DWORD PTR ___$ReturnUdt$[ebp]
  000eb	8b ce		 mov	 ecx, esi
  000ed	50		 push	 eax
  000ee	ff 15 00 00 00
	00		 call	 DWORD PTR __imp_??0?$CStringT@DV?$StrTraitMFC_DLL@DV?$ChTraitsCRT@D@ATL@@@@@ATL@@QAE@PAUIAtlStringMgr@1@@Z

; 2391 : 
; 2392 : 		CThisSimpleString::Concatenate( strResult, str1, str1.GetLength(), str2, str2.GetLength() );

  000f4	8b 45 10	 mov	 eax, DWORD PTR _strData$[ebp]
  000f7	8b 4d f0	 mov	 ecx, DWORD PTR _temp$4[ebp]

; 2393 : 
; 2394 : 		return( strResult );

  000fa	c7 45 ec 02 00
	00 00		 mov	 DWORD PTR $T2[ebp], 2
$LN75@IntToStrin:
; File D:\git\src\IBK\IBK_DRFN\ProjSrc\SrcDrfn\Chart\chart_common\DataList\Conversion.cpp

; 118  : }

  00101	ff 70 f4	 push	 DWORD PTR [eax-12]
  00104	50		 push	 eax
  00105	ff 71 f4	 push	 DWORD PTR [ecx-12]
  00108	51		 push	 ecx
  00109	56		 push	 esi
  0010a	ff 15 00 00 00
	00		 call	 DWORD PTR __imp_?Concatenate@?$CSimpleStringT@D$00@ATL@@KAXAAV12@PBDH1H@Z
  00110	83 c4 14	 add	 esp, 20			; 00000014H
  00113	8d 4d f0	 lea	 ecx, DWORD PTR _temp$4[ebp]
  00116	ff 15 00 00 00
	00		 call	 DWORD PTR __imp_??1?$CStringT@DV?$StrTraitMFC_DLL@DV?$ChTraitsCRT@D@ATL@@@@@ATL@@QAE@XZ
  0011c	8d 4d 10	 lea	 ecx, DWORD PTR _strData$[ebp]
  0011f	ff 15 00 00 00
	00		 call	 DWORD PTR __imp_??1?$CStringT@DV?$StrTraitMFC_DLL@DV?$ChTraitsCRT@D@ATL@@@@@ATL@@QAE@XZ
  00125	8b c6		 mov	 eax, esi
  00127	8b 4d f4	 mov	 ecx, DWORD PTR __$EHRec$[ebp]
  0012a	64 89 0d 00 00
	00 00		 mov	 DWORD PTR fs:0, ecx
  00131	59		 pop	 ecx
  00132	5f		 pop	 edi
  00133	5e		 pop	 esi
  00134	8b e5		 mov	 esp, ebp
  00136	5d		 pop	 ebp
  00137	c3		 ret	 0
$LN73@IntToStrin:

; 108  : 		}
; 109  : 	}
; 110  : 	else if(length < 0){

  00138	79 31		 jns	 SHORT $LN13@IntToStrin

; 111  : 		CString temp;

  0013a	8d 4d f0	 lea	 ecx, DWORD PTR _temp$3[ebp]
  0013d	ff 15 00 00 00
	00		 call	 DWORD PTR __imp_??0?$CStringT@DV?$StrTraitMFC_DLL@DV?$ChTraitsCRT@D@ATL@@@@@ATL@@QAE@XZ
; File C:\Program Files (x86)\Microsoft Visual Studio\2019\Community\VC\Tools\MSVC\14.29.30133\atlmfc\include\cstringt.h

; 2390 : 		CStringT strResult( str1.GetManager() );

  00143	8d 4d 10	 lea	 ecx, DWORD PTR _strData$[ebp]
; File D:\git\src\IBK\IBK_DRFN\ProjSrc\SrcDrfn\Chart\chart_common\DataList\Conversion.cpp

; 114  : 		return strData + temp;

  00146	c6 45 fc 04	 mov	 BYTE PTR __$EHRec$[ebp+8], 4
; File C:\Program Files (x86)\Microsoft Visual Studio\2019\Community\VC\Tools\MSVC\14.29.30133\atlmfc\include\cstringt.h

; 2390 : 		CStringT strResult( str1.GetManager() );

  0014a	ff 15 00 00 00
	00		 call	 DWORD PTR __imp_?GetManager@?$CStringT@DV?$StrTraitMFC_DLL@DV?$ChTraitsCRT@D@ATL@@@@@ATL@@QBEPAUIAtlStringMgr@2@XZ
  00150	8b 75 08	 mov	 esi, DWORD PTR ___$ReturnUdt$[ebp]
  00153	8b ce		 mov	 ecx, esi
  00155	50		 push	 eax
  00156	ff 15 00 00 00
	00		 call	 DWORD PTR __imp_??0?$CStringT@DV?$StrTraitMFC_DLL@DV?$ChTraitsCRT@D@ATL@@@@@ATL@@QAE@PAUIAtlStringMgr@1@@Z

; 2391 : 
; 2392 : 		CThisSimpleString::Concatenate( strResult, str1, str1.GetLength(), str2, str2.GetLength() );

  0015c	8b 45 f0	 mov	 eax, DWORD PTR _temp$3[ebp]
  0015f	8b 4d 10	 mov	 ecx, DWORD PTR _strData$[ebp]

; 2393 : 
; 2394 : 		return( strResult );

  00162	c7 45 ec 04 00
	00 00		 mov	 DWORD PTR $T2[ebp], 4
; File D:\git\src\IBK\IBK_DRFN\ProjSrc\SrcDrfn\Chart\chart_common\DataList\Conversion.cpp

; 114  : 		return strData + temp;

  00169	eb 96		 jmp	 SHORT $LN75@IntToStrin
$LN13@IntToStrin:

; 115  : 	}
; 116  : 
; 117  : 	return strData;

  0016b	8b 4d 08	 mov	 ecx, DWORD PTR ___$ReturnUdt$[ebp]
  0016e	8d 45 10	 lea	 eax, DWORD PTR _strData$[ebp]
  00171	50		 push	 eax
  00172	ff 15 00 00 00
	00		 call	 DWORD PTR __imp_??0?$CStringT@DV?$StrTraitMFC_DLL@DV?$ChTraitsCRT@D@ATL@@@@@ATL@@QAE@ABV01@@Z
  00178	8d 4d 10	 lea	 ecx, DWORD PTR _strData$[ebp]
  0017b	ff 15 00 00 00
	00		 call	 DWORD PTR __imp_??1?$CStringT@DV?$StrTraitMFC_DLL@DV?$ChTraitsCRT@D@ATL@@@@@ATL@@QAE@XZ
  00181	8b 45 08	 mov	 eax, DWORD PTR ___$ReturnUdt$[ebp]

; 118  : }

  00184	8b 4d f4	 mov	 ecx, DWORD PTR __$EHRec$[ebp]
  00187	64 89 0d 00 00
	00 00		 mov	 DWORD PTR fs:0, ecx
  0018e	59		 pop	 ecx
  0018f	5f		 pop	 edi
  00190	5e		 pop	 esi
  00191	8b e5		 mov	 esp, ebp
  00193	5d		 pop	 ebp
  00194	c3		 ret	 0
_TEXT	ENDS
;	COMDAT text$x
text$x	SEGMENT
__unwindfunclet$?IntToString@CDataConversion@@SA?AV?$CStringT@DV?$StrTraitMFC_DLL@DV?$ChTraitsCRT@D@ATL@@@@@ATL@@HH@Z$0:
  00000	8d 4d 10	 lea	 ecx, DWORD PTR _strData$[ebp]
  00003	ff 25 00 00 00
	00		 jmp	 DWORD PTR __imp_??1?$CStringT@DV?$StrTraitMFC_DLL@DV?$ChTraitsCRT@D@ATL@@@@@ATL@@QAE@XZ
__unwindfunclet$?IntToString@CDataConversion@@SA?AV?$CStringT@DV?$StrTraitMFC_DLL@DV?$ChTraitsCRT@D@ATL@@@@@ATL@@HH@Z$2:
  00009	8d 4d f0	 lea	 ecx, DWORD PTR _temp$4[ebp]
  0000c	ff 25 00 00 00
	00		 jmp	 DWORD PTR __imp_??1?$CStringT@DV?$StrTraitMFC_DLL@DV?$ChTraitsCRT@D@ATL@@@@@ATL@@QAE@XZ
__unwindfunclet$?IntToString@CDataConversion@@SA?AV?$CStringT@DV?$StrTraitMFC_DLL@DV?$ChTraitsCRT@D@ATL@@@@@ATL@@HH@Z$4:
  00012	8b 45 ec	 mov	 eax, DWORD PTR $T2[ebp]
  00015	83 e0 02	 and	 eax, 2
  00018	0f 84 0d 00 00
	00		 je	 $LN35@IntToStrin
  0001e	83 65 ec fd	 and	 DWORD PTR $T2[ebp], -3	; fffffffdH
  00022	8b 4d 08	 mov	 ecx, DWORD PTR ___$ReturnUdt$[ebp]
  00025	ff 25 00 00 00
	00		 jmp	 DWORD PTR __imp_??1?$CStringT@DV?$StrTraitMFC_DLL@DV?$ChTraitsCRT@D@ATL@@@@@ATL@@QAE@XZ
$LN35@IntToStrin:
  0002b	c3		 ret	 0
__unwindfunclet$?IntToString@CDataConversion@@SA?AV?$CStringT@DV?$StrTraitMFC_DLL@DV?$ChTraitsCRT@D@ATL@@@@@ATL@@HH@Z$3:
  0002c	8d 4d f0	 lea	 ecx, DWORD PTR _temp$3[ebp]
  0002f	ff 25 00 00 00
	00		 jmp	 DWORD PTR __imp_??1?$CStringT@DV?$StrTraitMFC_DLL@DV?$ChTraitsCRT@D@ATL@@@@@ATL@@QAE@XZ
__unwindfunclet$?IntToString@CDataConversion@@SA?AV?$CStringT@DV?$StrTraitMFC_DLL@DV?$ChTraitsCRT@D@ATL@@@@@ATL@@HH@Z$5:
  00035	8b 45 ec	 mov	 eax, DWORD PTR $T2[ebp]
  00038	83 e0 04	 and	 eax, 4
  0003b	0f 84 0d 00 00
	00		 je	 $LN51@IntToStrin
  00041	83 65 ec fb	 and	 DWORD PTR $T2[ebp], -5	; fffffffbH
  00045	8b 4d 08	 mov	 ecx, DWORD PTR ___$ReturnUdt$[ebp]
  00048	ff 25 00 00 00
	00		 jmp	 DWORD PTR __imp_??1?$CStringT@DV?$StrTraitMFC_DLL@DV?$ChTraitsCRT@D@ATL@@@@@ATL@@QAE@XZ
$LN51@IntToStrin:
  0004e	c3		 ret	 0
  0004f	cc		 int	 3
  00050	cc		 int	 3
  00051	cc		 int	 3
  00052	cc		 int	 3
  00053	cc		 int	 3
__ehhandler$?IntToString@CDataConversion@@SA?AV?$CStringT@DV?$StrTraitMFC_DLL@DV?$ChTraitsCRT@D@ATL@@@@@ATL@@HH@Z:
  00054	90		 npad	 1
  00055	90		 npad	 1
  00056	8b 54 24 08	 mov	 edx, DWORD PTR [esp+8]
  0005a	8d 42 0c	 lea	 eax, DWORD PTR [edx+12]
  0005d	8b 4a ec	 mov	 ecx, DWORD PTR [edx-20]
  00060	33 c8		 xor	 ecx, eax
  00062	e8 00 00 00 00	 call	 @__security_check_cookie@4
  00067	b8 00 00 00 00	 mov	 eax, OFFSET __ehfuncinfo$?IntToString@CDataConversion@@SA?AV?$CStringT@DV?$StrTraitMFC_DLL@DV?$ChTraitsCRT@D@ATL@@@@@ATL@@HH@Z
  0006c	e9 00 00 00 00	 jmp	 ___CxxFrameHandler3
text$x	ENDS
?IntToString@CDataConversion@@SA?AV?$CStringT@DV?$StrTraitMFC_DLL@DV?$ChTraitsCRT@D@ATL@@@@@ATL@@HH@Z ENDP ; CDataConversion::IntToString
; Function compile flags: /Ogtp
; File D:\git\src\IBK\IBK_DRFN\ProjSrc\SrcDrfn\Chart\chart_common\DataList\Conversion.cpp
;	COMDAT ?IntToString@CDataConversion@@SA?AV?$CStringT@DV?$StrTraitMFC_DLL@DV?$ChTraitsCRT@D@ATL@@@@@ATL@@H@Z
_TEXT	SEGMENT
$T2 = -16						; size = 4
__$EHRec$ = -12						; size = 12
___$ReturnUdt$ = 8					; size = 4
_Num$ = 12						; size = 4
?IntToString@CDataConversion@@SA?AV?$CStringT@DV?$StrTraitMFC_DLL@DV?$ChTraitsCRT@D@ATL@@@@@ATL@@H@Z PROC ; CDataConversion::IntToString, COMDAT

; 84   : {

  00000	55		 push	 ebp
  00001	8b ec		 mov	 ebp, esp
  00003	6a ff		 push	 -1
  00005	68 00 00 00 00	 push	 __ehhandler$?IntToString@CDataConversion@@SA?AV?$CStringT@DV?$StrTraitMFC_DLL@DV?$ChTraitsCRT@D@ATL@@@@@ATL@@H@Z
  0000a	64 a1 00 00 00
	00		 mov	 eax, DWORD PTR fs:0
  00010	50		 push	 eax
  00011	51		 push	 ecx
  00012	56		 push	 esi
  00013	a1 00 00 00 00	 mov	 eax, DWORD PTR ___security_cookie
  00018	33 c5		 xor	 eax, ebp
  0001a	50		 push	 eax
  0001b	8d 45 f4	 lea	 eax, DWORD PTR __$EHRec$[ebp]
  0001e	64 a3 00 00 00
	00		 mov	 DWORD PTR fs:0, eax
  00024	c7 45 f0 00 00
	00 00		 mov	 DWORD PTR $T2[ebp], 0

; 85   : 	CString strData;

  0002b	8b 75 08	 mov	 esi, DWORD PTR ___$ReturnUdt$[ebp]
  0002e	8b ce		 mov	 ecx, esi
  00030	ff 15 00 00 00
	00		 call	 DWORD PTR __imp_??0?$CStringT@DV?$StrTraitMFC_DLL@DV?$ChTraitsCRT@D@ATL@@@@@ATL@@QAE@XZ

; 86   : 	strData.Format("%d", Num);
; 87   : 	return strData;

  00036	ff 75 0c	 push	 DWORD PTR _Num$[ebp]
  00039	c7 45 fc 00 00
	00 00		 mov	 DWORD PTR __$EHRec$[ebp+8], 0
  00040	68 00 00 00 00	 push	 OFFSET ??_C@_02DPKJAMEF@?$CFd@
  00045	56		 push	 esi
  00046	c7 45 f0 01 00
	00 00		 mov	 DWORD PTR $T2[ebp], 1
  0004d	ff 15 00 00 00
	00		 call	 DWORD PTR __imp_?Format@?$CStringT@DV?$StrTraitMFC_DLL@DV?$ChTraitsCRT@D@ATL@@@@@ATL@@QAAXPBDZZ
  00053	83 c4 0c	 add	 esp, 12			; 0000000cH
  00056	8b c6		 mov	 eax, esi

; 88   : }

  00058	8b 4d f4	 mov	 ecx, DWORD PTR __$EHRec$[ebp]
  0005b	64 89 0d 00 00
	00 00		 mov	 DWORD PTR fs:0, ecx
  00062	59		 pop	 ecx
  00063	5e		 pop	 esi
  00064	8b e5		 mov	 esp, ebp
  00066	5d		 pop	 ebp
  00067	c3		 ret	 0
_TEXT	ENDS
;	COMDAT text$x
text$x	SEGMENT
__unwindfunclet$?IntToString@CDataConversion@@SA?AV?$CStringT@DV?$StrTraitMFC_DLL@DV?$ChTraitsCRT@D@ATL@@@@@ATL@@H@Z$0:
  00000	8b 45 f0	 mov	 eax, DWORD PTR $T2[ebp]
  00003	83 e0 01	 and	 eax, 1
  00006	0f 84 0d 00 00
	00		 je	 $LN4@IntToStrin
  0000c	83 65 f0 fe	 and	 DWORD PTR $T2[ebp], -2	; fffffffeH
  00010	8b 4d 08	 mov	 ecx, DWORD PTR ___$ReturnUdt$[ebp]
  00013	ff 25 00 00 00
	00		 jmp	 DWORD PTR __imp_??1?$CStringT@DV?$StrTraitMFC_DLL@DV?$ChTraitsCRT@D@ATL@@@@@ATL@@QAE@XZ
$LN4@IntToStrin:
  00019	c3		 ret	 0
  0001a	cc		 int	 3
  0001b	cc		 int	 3
  0001c	cc		 int	 3
  0001d	cc		 int	 3
  0001e	cc		 int	 3
__ehhandler$?IntToString@CDataConversion@@SA?AV?$CStringT@DV?$StrTraitMFC_DLL@DV?$ChTraitsCRT@D@ATL@@@@@ATL@@H@Z:
  0001f	90		 npad	 1
  00020	90		 npad	 1
  00021	8b 54 24 08	 mov	 edx, DWORD PTR [esp+8]
  00025	8d 42 0c	 lea	 eax, DWORD PTR [edx+12]
  00028	8b 4a f4	 mov	 ecx, DWORD PTR [edx-12]
  0002b	33 c8		 xor	 ecx, eax
  0002d	e8 00 00 00 00	 call	 @__security_check_cookie@4
  00032	b8 00 00 00 00	 mov	 eax, OFFSET __ehfuncinfo$?IntToString@CDataConversion@@SA?AV?$CStringT@DV?$StrTraitMFC_DLL@DV?$ChTraitsCRT@D@ATL@@@@@ATL@@H@Z
  00037	e9 00 00 00 00	 jmp	 ___CxxFrameHandler3
text$x	ENDS
?IntToString@CDataConversion@@SA?AV?$CStringT@DV?$StrTraitMFC_DLL@DV?$ChTraitsCRT@D@ATL@@@@@ATL@@H@Z ENDP ; CDataConversion::IntToString
; Function compile flags: /Ogtp
; File D:\git\src\IBK\IBK_DRFN\ProjSrc\SrcDrfn\Chart\chart_common\DataList\Conversion.cpp
;	COMDAT ?atod@CDataConversion@@SANM@Z
_TEXT	SEGMENT
_ch$ = -16						; size = 10
__$ArrayPad$ = -4					; size = 4
_x$ = 8							; size = 4
?atod@CDataConversion@@SANM@Z PROC			; CDataConversion::atod, COMDAT

; 76   : {

  00000	55		 push	 ebp
  00001	8b ec		 mov	 ebp, esp
  00003	83 ec 10	 sub	 esp, 16			; 00000010H
  00006	a1 00 00 00 00	 mov	 eax, DWORD PTR ___security_cookie
  0000b	33 c5		 xor	 eax, ebp
  0000d	89 45 fc	 mov	 DWORD PTR __$ArrayPad$[ebp], eax
  00010	f3 0f 10 45 08	 movss	 xmm0, DWORD PTR _x$[ebp]

; 77   : 	char ch[10];
; 78   : 	sprintf(ch, "%f", x);

  00015	8d 45 f0	 lea	 eax, DWORD PTR _ch$[ebp]
  00018	0f 5a c0	 cvtps2pd xmm0, xmm0
  0001b	83 ec 08	 sub	 esp, 8
  0001e	f2 0f 11 04 24	 movsd	 QWORD PTR [esp], xmm0
  00023	68 00 00 00 00	 push	 OFFSET ??_C@_02NJPGOMH@?$CFf@
  00028	50		 push	 eax
  00029	e8 00 00 00 00	 call	 _sprintf

; 79   : 	return atof(ch);

  0002e	8d 45 f0	 lea	 eax, DWORD PTR _ch$[ebp]
  00031	50		 push	 eax
  00032	ff 15 00 00 00
	00		 call	 DWORD PTR __imp__atof

; 80   : }

  00038	8b 4d fc	 mov	 ecx, DWORD PTR __$ArrayPad$[ebp]
  0003b	83 c4 14	 add	 esp, 20			; 00000014H
  0003e	33 cd		 xor	 ecx, ebp
  00040	e8 00 00 00 00	 call	 @__security_check_cookie@4
  00045	8b e5		 mov	 esp, ebp
  00047	5d		 pop	 ebp
  00048	c3		 ret	 0
?atod@CDataConversion@@SANM@Z ENDP			; CDataConversion::atod
_TEXT	ENDS
; Function compile flags: /Ogtp
; File D:\git\src\IBK\IBK_DRFN\ProjSrc\SrcDrfn\Chart\chart_common\DataList\Conversion.cpp
;	COMDAT ?Bool2Str@CDataConversion@@SA?AV?$CStringT@DV?$StrTraitMFC_DLL@DV?$ChTraitsCRT@D@ATL@@@@@ATL@@H@Z
_TEXT	SEGMENT
$T2 = -16						; size = 4
__$EHRec$ = -12						; size = 12
___$ReturnUdt$ = 8					; size = 4
_bValue$ = 12						; size = 4
?Bool2Str@CDataConversion@@SA?AV?$CStringT@DV?$StrTraitMFC_DLL@DV?$ChTraitsCRT@D@ATL@@@@@ATL@@H@Z PROC ; CDataConversion::Bool2Str, COMDAT

; 64   : {

  00000	55		 push	 ebp
  00001	8b ec		 mov	 ebp, esp
  00003	6a ff		 push	 -1
  00005	68 00 00 00 00	 push	 __ehhandler$?Bool2Str@CDataConversion@@SA?AV?$CStringT@DV?$StrTraitMFC_DLL@DV?$ChTraitsCRT@D@ATL@@@@@ATL@@H@Z
  0000a	64 a1 00 00 00
	00		 mov	 eax, DWORD PTR fs:0
  00010	50		 push	 eax
  00011	51		 push	 ecx
  00012	56		 push	 esi
  00013	a1 00 00 00 00	 mov	 eax, DWORD PTR ___security_cookie
  00018	33 c5		 xor	 eax, ebp
  0001a	50		 push	 eax
  0001b	8d 45 f4	 lea	 eax, DWORD PTR __$EHRec$[ebp]
  0001e	64 a3 00 00 00
	00		 mov	 DWORD PTR fs:0, eax
  00024	c7 45 f0 00 00
	00 00		 mov	 DWORD PTR $T2[ebp], 0

; 85   : 	CString strData;

  0002b	8b 75 08	 mov	 esi, DWORD PTR ___$ReturnUdt$[ebp]
  0002e	8b ce		 mov	 ecx, esi

; 65   : 	int nValue = 0 ;
; 66   : 	if(bValue == FALSE)
; 67   : 		nValue = 0;
; 68   : 	else
; 69   : 		nValue = 1;
; 70   : 
; 71   : 	return IntToString(nValue) ;

  00030	c7 45 fc 00 00
	00 00		 mov	 DWORD PTR __$EHRec$[ebp+8], 0

; 85   : 	CString strData;

  00037	ff 15 00 00 00
	00		 call	 DWORD PTR __imp_??0?$CStringT@DV?$StrTraitMFC_DLL@DV?$ChTraitsCRT@D@ATL@@@@@ATL@@QAE@XZ

; 65   : 	int nValue = 0 ;
; 66   : 	if(bValue == FALSE)
; 67   : 		nValue = 0;
; 68   : 	else
; 69   : 		nValue = 1;
; 70   : 
; 71   : 	return IntToString(nValue) ;

  0003d	33 c9		 xor	 ecx, ecx

; 87   : 	return strData;

  0003f	c7 45 f0 02 00
	00 00		 mov	 DWORD PTR $T2[ebp], 2

; 65   : 	int nValue = 0 ;
; 66   : 	if(bValue == FALSE)
; 67   : 		nValue = 0;
; 68   : 	else
; 69   : 		nValue = 1;
; 70   : 
; 71   : 	return IntToString(nValue) ;

  00046	39 4d 0c	 cmp	 DWORD PTR _bValue$[ebp], ecx
  00049	0f 95 c1	 setne	 cl

; 86   : 	strData.Format("%d", Num);

  0004c	51		 push	 ecx
  0004d	68 00 00 00 00	 push	 OFFSET ??_C@_02DPKJAMEF@?$CFd@
  00052	56		 push	 esi
  00053	ff 15 00 00 00
	00		 call	 DWORD PTR __imp_?Format@?$CStringT@DV?$StrTraitMFC_DLL@DV?$ChTraitsCRT@D@ATL@@@@@ATL@@QAAXPBDZZ
  00059	83 c4 0c	 add	 esp, 12			; 0000000cH

; 65   : 	int nValue = 0 ;
; 66   : 	if(bValue == FALSE)
; 67   : 		nValue = 0;
; 68   : 	else
; 69   : 		nValue = 1;
; 70   : 
; 71   : 	return IntToString(nValue) ;

  0005c	8b c6		 mov	 eax, esi

; 72   : }

  0005e	8b 4d f4	 mov	 ecx, DWORD PTR __$EHRec$[ebp]
  00061	64 89 0d 00 00
	00 00		 mov	 DWORD PTR fs:0, ecx
  00068	59		 pop	 ecx
  00069	5e		 pop	 esi
  0006a	8b e5		 mov	 esp, ebp
  0006c	5d		 pop	 ebp
  0006d	c3		 ret	 0
_TEXT	ENDS
;	COMDAT text$x
text$x	SEGMENT
__unwindfunclet$?Bool2Str@CDataConversion@@SA?AV?$CStringT@DV?$StrTraitMFC_DLL@DV?$ChTraitsCRT@D@ATL@@@@@ATL@@H@Z$1:
  00000	8b 45 f0	 mov	 eax, DWORD PTR $T2[ebp]
  00003	83 e0 02	 and	 eax, 2
  00006	0f 84 0d 00 00
	00		 je	 $LN10@Bool2Str
  0000c	83 65 f0 fd	 and	 DWORD PTR $T2[ebp], -3	; fffffffdH
  00010	8b 4d 08	 mov	 ecx, DWORD PTR ___$ReturnUdt$[ebp]
  00013	ff 25 00 00 00
	00		 jmp	 DWORD PTR __imp_??1?$CStringT@DV?$StrTraitMFC_DLL@DV?$ChTraitsCRT@D@ATL@@@@@ATL@@QAE@XZ
$LN10@Bool2Str:
  00019	c3		 ret	 0
  0001a	cc		 int	 3
  0001b	cc		 int	 3
  0001c	cc		 int	 3
  0001d	cc		 int	 3
  0001e	cc		 int	 3
__ehhandler$?Bool2Str@CDataConversion@@SA?AV?$CStringT@DV?$StrTraitMFC_DLL@DV?$ChTraitsCRT@D@ATL@@@@@ATL@@H@Z:
  0001f	90		 npad	 1
  00020	90		 npad	 1
  00021	8b 54 24 08	 mov	 edx, DWORD PTR [esp+8]
  00025	8d 42 0c	 lea	 eax, DWORD PTR [edx+12]
  00028	8b 4a f4	 mov	 ecx, DWORD PTR [edx-12]
  0002b	33 c8		 xor	 ecx, eax
  0002d	e8 00 00 00 00	 call	 @__security_check_cookie@4
  00032	b8 00 00 00 00	 mov	 eax, OFFSET __ehfuncinfo$?Bool2Str@CDataConversion@@SA?AV?$CStringT@DV?$StrTraitMFC_DLL@DV?$ChTraitsCRT@D@ATL@@@@@ATL@@H@Z
  00037	e9 00 00 00 00	 jmp	 ___CxxFrameHandler3
text$x	ENDS
?Bool2Str@CDataConversion@@SA?AV?$CStringT@DV?$StrTraitMFC_DLL@DV?$ChTraitsCRT@D@ATL@@@@@ATL@@H@Z ENDP ; CDataConversion::Bool2Str
; Function compile flags: /Ogtp
; File D:\git\src\IBK\IBK_DRFN\ProjSrc\SrcDrfn\Chart\chart_common\DataList\Conversion.cpp
;	COMDAT ?atob@CDataConversion@@SA_NH@Z
_TEXT	SEGMENT
_nData$ = 8						; size = 4
?atob@CDataConversion@@SA_NH@Z PROC			; CDataConversion::atob, COMDAT

; 58   : {

  00000	55		 push	 ebp
  00001	8b ec		 mov	 ebp, esp

; 59   : 	return (nData == 0 ? false: true);

  00003	83 7d 08 00	 cmp	 DWORD PTR _nData$[ebp], 0
  00007	0f 95 c0	 setne	 al

; 60   : }

  0000a	5d		 pop	 ebp
  0000b	c3		 ret	 0
?atob@CDataConversion@@SA_NH@Z ENDP			; CDataConversion::atob
_TEXT	ENDS
; Function compile flags: /Ogtp
; File D:\git\src\IBK\IBK_DRFN\ProjSrc\SrcDrfn\Chart\chart_common\DataList\Conversion.cpp
;	COMDAT ?atob@CDataConversion@@SA_NPBD@Z
_TEXT	SEGMENT
_string$ = 8						; size = 4
?atob@CDataConversion@@SA_NPBD@Z PROC			; CDataConversion::atob, COMDAT

; 51   : {

  00000	55		 push	 ebp
  00001	8b ec		 mov	 ebp, esp

; 52   : 	if(atoi(string) == 1)

  00003	ff 75 08	 push	 DWORD PTR _string$[ebp]
  00006	ff 15 00 00 00
	00		 call	 DWORD PTR __imp__atoi
  0000c	83 c4 04	 add	 esp, 4
  0000f	83 f8 01	 cmp	 eax, 1
  00012	0f 94 c0	 sete	 al

; 53   : 		return true;
; 54   : 	return false;
; 55   : }

  00015	5d		 pop	 ebp
  00016	c3		 ret	 0
?atob@CDataConversion@@SA_NPBD@Z ENDP			; CDataConversion::atob
_TEXT	ENDS
; Function compile flags: /Ogtp
; File D:\git\src\IBK\IBK_DRFN\ProjSrc\SrcDrfn\Chart\chart_common\DataList\Conversion.cpp
;	COMDAT ?Str2RGB@CDataConversion@@SAKABV?$CStringT@DV?$StrTraitMFC_DLL@DV?$ChTraitsCRT@D@ATL@@@@@ATL@@@Z
_TEXT	SEGMENT
_nR$ = -28						; size = 4
_nG$ = -24						; size = 4
_nB$ = -20						; size = 4
_strClr$ = -16						; size = 4
__$EHRec$ = -12						; size = 12
_strColor$ = 8						; size = 4
?Str2RGB@CDataConversion@@SAKABV?$CStringT@DV?$StrTraitMFC_DLL@DV?$ChTraitsCRT@D@ATL@@@@@ATL@@@Z PROC ; CDataConversion::Str2RGB, COMDAT

; 39   : {

  00000	55		 push	 ebp
  00001	8b ec		 mov	 ebp, esp
  00003	6a ff		 push	 -1
  00005	68 00 00 00 00	 push	 __ehhandler$?Str2RGB@CDataConversion@@SAKABV?$CStringT@DV?$StrTraitMFC_DLL@DV?$ChTraitsCRT@D@ATL@@@@@ATL@@@Z
  0000a	64 a1 00 00 00
	00		 mov	 eax, DWORD PTR fs:0
  00010	50		 push	 eax
  00011	83 ec 10	 sub	 esp, 16			; 00000010H
  00014	56		 push	 esi
  00015	a1 00 00 00 00	 mov	 eax, DWORD PTR ___security_cookie
  0001a	33 c5		 xor	 eax, ebp
  0001c	50		 push	 eax
  0001d	8d 45 f4	 lea	 eax, DWORD PTR __$EHRec$[ebp]
  00020	64 a3 00 00 00
	00		 mov	 DWORD PTR fs:0, eax

; 40   : 	CString strClr = strColor ;

  00026	ff 75 08	 push	 DWORD PTR _strColor$[ebp]
  00029	8d 4d f0	 lea	 ecx, DWORD PTR _strClr$[ebp]
  0002c	ff 15 00 00 00
	00		 call	 DWORD PTR __imp_??0?$CStringT@DV?$StrTraitMFC_DLL@DV?$ChTraitsCRT@D@ATL@@@@@ATL@@QAE@ABV01@@Z

; 41   : 	strClr.TrimLeft() ;

  00032	8d 4d f0	 lea	 ecx, DWORD PTR _strClr$[ebp]
  00035	c7 45 fc 00 00
	00 00		 mov	 DWORD PTR __$EHRec$[ebp+8], 0
  0003c	ff 15 00 00 00
	00		 call	 DWORD PTR __imp_?TrimLeft@?$CStringT@DV?$StrTraitMFC_DLL@DV?$ChTraitsCRT@D@ATL@@@@@ATL@@QAEAAV12@XZ

; 42   : 	strClr.TrimRight() ;

  00042	8d 4d f0	 lea	 ecx, DWORD PTR _strClr$[ebp]
  00045	ff 15 00 00 00
	00		 call	 DWORD PTR __imp_?TrimRight@?$CStringT@DV?$StrTraitMFC_DLL@DV?$ChTraitsCRT@D@ATL@@@@@ATL@@QAEAAV12@XZ

; 43   : 	int nR, nG, nB ;
; 44   : 	sscanf(strClr, "%d,%d,%d", &nR, &nG, &nB);

  0004b	8d 45 ec	 lea	 eax, DWORD PTR _nB$[ebp]
  0004e	50		 push	 eax
  0004f	8d 45 e8	 lea	 eax, DWORD PTR _nG$[ebp]
  00052	50		 push	 eax
  00053	8d 45 e4	 lea	 eax, DWORD PTR _nR$[ebp]
  00056	50		 push	 eax
  00057	68 00 00 00 00	 push	 OFFSET ??_C@_08GDAMKODC@?$CFd?0?$CFd?0?$CFd@
  0005c	ff 75 f0	 push	 DWORD PTR _strClr$[ebp]
  0005f	e8 00 00 00 00	 call	 _sscanf

; 45   : 	COLORREF clrValue = RGB(nR, nG, nB) ;

  00064	0f b6 75 ec	 movzx	 esi, BYTE PTR _nB$[ebp]
  00068	83 c4 14	 add	 esp, 20			; 00000014H
  0006b	0f b6 4d e8	 movzx	 ecx, BYTE PTR _nG$[ebp]
  0006f	c1 e6 08	 shl	 esi, 8
  00072	0b f1		 or	 esi, ecx
  00074	0f b6 4d e4	 movzx	 ecx, BYTE PTR _nR$[ebp]
  00078	c1 e6 08	 shl	 esi, 8
  0007b	0b f1		 or	 esi, ecx

; 46   : 	return clrValue ;

  0007d	8d 4d f0	 lea	 ecx, DWORD PTR _strClr$[ebp]
  00080	ff 15 00 00 00
	00		 call	 DWORD PTR __imp_??1?$CStringT@DV?$StrTraitMFC_DLL@DV?$ChTraitsCRT@D@ATL@@@@@ATL@@QAE@XZ
  00086	8b c6		 mov	 eax, esi

; 47   : };

  00088	8b 4d f4	 mov	 ecx, DWORD PTR __$EHRec$[ebp]
  0008b	64 89 0d 00 00
	00 00		 mov	 DWORD PTR fs:0, ecx
  00092	59		 pop	 ecx
  00093	5e		 pop	 esi
  00094	8b e5		 mov	 esp, ebp
  00096	5d		 pop	 ebp
  00097	c3		 ret	 0
_TEXT	ENDS
;	COMDAT text$x
text$x	SEGMENT
__unwindfunclet$?Str2RGB@CDataConversion@@SAKABV?$CStringT@DV?$StrTraitMFC_DLL@DV?$ChTraitsCRT@D@ATL@@@@@ATL@@@Z$0:
  00000	8d 4d f0	 lea	 ecx, DWORD PTR _strClr$[ebp]
  00003	ff 25 00 00 00
	00		 jmp	 DWORD PTR __imp_??1?$CStringT@DV?$StrTraitMFC_DLL@DV?$ChTraitsCRT@D@ATL@@@@@ATL@@QAE@XZ
  00009	cc		 int	 3
  0000a	cc		 int	 3
  0000b	cc		 int	 3
  0000c	cc		 int	 3
  0000d	cc		 int	 3
__ehhandler$?Str2RGB@CDataConversion@@SAKABV?$CStringT@DV?$StrTraitMFC_DLL@DV?$ChTraitsCRT@D@ATL@@@@@ATL@@@Z:
  0000e	90		 npad	 1
  0000f	90		 npad	 1
  00010	8b 54 24 08	 mov	 edx, DWORD PTR [esp+8]
  00014	8d 42 0c	 lea	 eax, DWORD PTR [edx+12]
  00017	8b 4a e8	 mov	 ecx, DWORD PTR [edx-24]
  0001a	33 c8		 xor	 ecx, eax
  0001c	e8 00 00 00 00	 call	 @__security_check_cookie@4
  00021	b8 00 00 00 00	 mov	 eax, OFFSET __ehfuncinfo$?Str2RGB@CDataConversion@@SAKABV?$CStringT@DV?$StrTraitMFC_DLL@DV?$ChTraitsCRT@D@ATL@@@@@ATL@@@Z
  00026	e9 00 00 00 00	 jmp	 ___CxxFrameHandler3
text$x	ENDS
?Str2RGB@CDataConversion@@SAKABV?$CStringT@DV?$StrTraitMFC_DLL@DV?$ChTraitsCRT@D@ATL@@@@@ATL@@@Z ENDP ; CDataConversion::Str2RGB
; Function compile flags: /Ogtp
; File D:\git\src\IBK\IBK_DRFN\ProjSrc\SrcDrfn\Chart\chart_common\DataList\Conversion.cpp
;	COMDAT ?RGB2Str@CDataConversion@@SA?AV?$CStringT@DV?$StrTraitMFC_DLL@DV?$ChTraitsCRT@D@ATL@@@@@ATL@@K@Z
_TEXT	SEGMENT
$T2 = -16						; size = 4
__$EHRec$ = -12						; size = 12
___$ReturnUdt$ = 8					; size = 4
_nR$1$ = 12						; size = 4
_clrValue$ = 12						; size = 4
?RGB2Str@CDataConversion@@SA?AV?$CStringT@DV?$StrTraitMFC_DLL@DV?$ChTraitsCRT@D@ATL@@@@@ATL@@K@Z PROC ; CDataConversion::RGB2Str, COMDAT

; 28   : {

  00000	55		 push	 ebp
  00001	8b ec		 mov	 ebp, esp
  00003	6a ff		 push	 -1
  00005	68 00 00 00 00	 push	 __ehhandler$?RGB2Str@CDataConversion@@SA?AV?$CStringT@DV?$StrTraitMFC_DLL@DV?$ChTraitsCRT@D@ATL@@@@@ATL@@K@Z
  0000a	64 a1 00 00 00
	00		 mov	 eax, DWORD PTR fs:0
  00010	50		 push	 eax
  00011	51		 push	 ecx
  00012	53		 push	 ebx
  00013	56		 push	 esi
  00014	57		 push	 edi
  00015	a1 00 00 00 00	 mov	 eax, DWORD PTR ___security_cookie
  0001a	33 c5		 xor	 eax, ebp
  0001c	50		 push	 eax
  0001d	8d 45 f4	 lea	 eax, DWORD PTR __$EHRec$[ebp]
  00020	64 a3 00 00 00
	00		 mov	 DWORD PTR fs:0, eax

; 29   : 	int nR = GetRValue(clrValue) ;

  00026	8b 45 0c	 mov	 eax, DWORD PTR _clrValue$[ebp]
  00029	0f b6 c8	 movzx	 ecx, al

; 30   : 	int nG = GetGValue(clrValue) ;

  0002c	0f b7 d8	 movzx	 ebx, ax
  0002f	c7 45 f0 00 00
	00 00		 mov	 DWORD PTR $T2[ebp], 0

; 31   : 	int nB = GetBValue(clrValue) ;
; 32   : 
; 33   : 	CString strValue ;

  00036	8b 7d 08	 mov	 edi, DWORD PTR ___$ReturnUdt$[ebp]
  00039	89 4d 0c	 mov	 DWORD PTR _nR$1$[ebp], ecx
  0003c	8b cf		 mov	 ecx, edi
  0003e	c1 e8 10	 shr	 eax, 16			; 00000010H
  00041	c1 eb 08	 shr	 ebx, 8
  00044	0f b6 f0	 movzx	 esi, al
  00047	ff 15 00 00 00
	00		 call	 DWORD PTR __imp_??0?$CStringT@DV?$StrTraitMFC_DLL@DV?$ChTraitsCRT@D@ATL@@@@@ATL@@QAE@XZ

; 34   : 	strValue.Format("%d,%d,%d", nR, nG, nB) ;
; 35   : 	return strValue ;

  0004d	56		 push	 esi
  0004e	53		 push	 ebx
  0004f	ff 75 0c	 push	 DWORD PTR _nR$1$[ebp]
  00052	c7 45 fc 00 00
	00 00		 mov	 DWORD PTR __$EHRec$[ebp+8], 0
  00059	68 00 00 00 00	 push	 OFFSET ??_C@_08GDAMKODC@?$CFd?0?$CFd?0?$CFd@
  0005e	57		 push	 edi
  0005f	c7 45 f0 01 00
	00 00		 mov	 DWORD PTR $T2[ebp], 1
  00066	ff 15 00 00 00
	00		 call	 DWORD PTR __imp_?Format@?$CStringT@DV?$StrTraitMFC_DLL@DV?$ChTraitsCRT@D@ATL@@@@@ATL@@QAAXPBDZZ
  0006c	83 c4 14	 add	 esp, 20			; 00000014H
  0006f	8b c7		 mov	 eax, edi

; 36   : }

  00071	8b 4d f4	 mov	 ecx, DWORD PTR __$EHRec$[ebp]
  00074	64 89 0d 00 00
	00 00		 mov	 DWORD PTR fs:0, ecx
  0007b	59		 pop	 ecx
  0007c	5f		 pop	 edi
  0007d	5e		 pop	 esi
  0007e	5b		 pop	 ebx
  0007f	8b e5		 mov	 esp, ebp
  00081	5d		 pop	 ebp
  00082	c3		 ret	 0
_TEXT	ENDS
;	COMDAT text$x
text$x	SEGMENT
__unwindfunclet$?RGB2Str@CDataConversion@@SA?AV?$CStringT@DV?$StrTraitMFC_DLL@DV?$ChTraitsCRT@D@ATL@@@@@ATL@@K@Z$0:
  00000	8b 45 f0	 mov	 eax, DWORD PTR $T2[ebp]
  00003	83 e0 01	 and	 eax, 1
  00006	0f 84 0d 00 00
	00		 je	 $LN4@RGB2Str
  0000c	83 65 f0 fe	 and	 DWORD PTR $T2[ebp], -2	; fffffffeH
  00010	8b 4d 08	 mov	 ecx, DWORD PTR ___$ReturnUdt$[ebp]
  00013	ff 25 00 00 00
	00		 jmp	 DWORD PTR __imp_??1?$CStringT@DV?$StrTraitMFC_DLL@DV?$ChTraitsCRT@D@ATL@@@@@ATL@@QAE@XZ
$LN4@RGB2Str:
  00019	c3		 ret	 0
  0001a	cc		 int	 3
  0001b	cc		 int	 3
  0001c	cc		 int	 3
  0001d	cc		 int	 3
  0001e	cc		 int	 3
__ehhandler$?RGB2Str@CDataConversion@@SA?AV?$CStringT@DV?$StrTraitMFC_DLL@DV?$ChTraitsCRT@D@ATL@@@@@ATL@@K@Z:
  0001f	90		 npad	 1
  00020	90		 npad	 1
  00021	8b 54 24 08	 mov	 edx, DWORD PTR [esp+8]
  00025	8d 42 0c	 lea	 eax, DWORD PTR [edx+12]
  00028	8b 4a ec	 mov	 ecx, DWORD PTR [edx-20]
  0002b	33 c8		 xor	 ecx, eax
  0002d	e8 00 00 00 00	 call	 @__security_check_cookie@4
  00032	b8 00 00 00 00	 mov	 eax, OFFSET __ehfuncinfo$?RGB2Str@CDataConversion@@SA?AV?$CStringT@DV?$StrTraitMFC_DLL@DV?$ChTraitsCRT@D@ATL@@@@@ATL@@K@Z
  00037	e9 00 00 00 00	 jmp	 ___CxxFrameHandler3
text$x	ENDS
?RGB2Str@CDataConversion@@SA?AV?$CStringT@DV?$StrTraitMFC_DLL@DV?$ChTraitsCRT@D@ATL@@@@@ATL@@K@Z ENDP ; CDataConversion::RGB2Str
; Function compile flags: /Ogtp
; File C:\Program Files (x86)\Microsoft Visual Studio\2019\Community\VC\Tools\MSVC\14.29.30133\atlmfc\include\afxwin1.inl
; File C:\Program Files (x86)\Microsoft Visual Studio\2019\Community\VC\Tools\MSVC\14.29.30133\atlmfc\include\afx.inl
;	COMDAT ??_GCRgn@@UAEPAXI@Z
_TEXT	SEGMENT
___flags$ = 8						; size = 4
??_GCRgn@@UAEPAXI@Z PROC				; CRgn::`scalar deleting destructor', COMDAT
; _this$ = ecx
  00000	55		 push	 ebp
  00001	8b ec		 mov	 ebp, esp
; File C:\Program Files (x86)\Microsoft Visual Studio\2019\Community\VC\Tools\MSVC\14.29.30133\atlmfc\include\afxwin1.inl

; 266  : 	{ }

  00003	56		 push	 esi
  00004	8b f1		 mov	 esi, ecx
  00006	c7 06 00 00 00
	00		 mov	 DWORD PTR [esi], OFFSET ??_7CRgn@@6B@
  0000c	e8 00 00 00 00	 call	 ??1CGdiObject@@UAE@XZ	; CGdiObject::~CGdiObject
  00011	8b 45 08	 mov	 eax, DWORD PTR ___flags$[ebp]
  00014	a8 01		 test	 al, 1
  00016	74 1f		 je	 SHORT $LN12@scalar
  00018	a8 04		 test	 al, 4
  0001a	75 10		 jne	 SHORT $LN3@scalar
; File C:\Program Files (x86)\Microsoft Visual Studio\2019\Community\VC\Tools\MSVC\14.29.30133\atlmfc\include\afx.inl

; 112  : 	{ ::operator delete(p); }

  0001c	56		 push	 esi
  0001d	e8 00 00 00 00	 call	 ??3@YAXPAX@Z		; operator delete
  00022	83 c4 04	 add	 esp, 4
  00025	8b c6		 mov	 eax, esi
  00027	5e		 pop	 esi
  00028	5d		 pop	 ebp
  00029	c2 04 00	 ret	 4
$LN3@scalar:
  0002c	6a 08		 push	 8
  0002e	56		 push	 esi
  0002f	e8 00 00 00 00	 call	 ?__global_delete@@YAXPAXI@Z ; __global_delete
  00034	83 c4 08	 add	 esp, 8
$LN12@scalar:
  00037	8b c6		 mov	 eax, esi
  00039	5e		 pop	 esi
  0003a	5d		 pop	 ebp
  0003b	c2 04 00	 ret	 4
??_GCRgn@@UAEPAXI@Z ENDP				; CRgn::`scalar deleting destructor'
_TEXT	ENDS
; Function compile flags: /Ogtp
; File C:\Program Files (x86)\Microsoft Visual Studio\2019\Community\VC\Tools\MSVC\14.29.30133\atlmfc\include\afxwin1.inl
;	COMDAT ??1CRgn@@UAE@XZ
_TEXT	SEGMENT
??1CRgn@@UAE@XZ PROC					; CRgn::~CRgn, COMDAT
; _this$ = ecx

; 266  : 	{ }

  00000	c7 01 00 00 00
	00		 mov	 DWORD PTR [ecx], OFFSET ??_7CRgn@@6B@
  00006	e9 00 00 00 00	 jmp	 ??1CGdiObject@@UAE@XZ	; CGdiObject::~CGdiObject
??1CRgn@@UAE@XZ ENDP					; CRgn::~CRgn
_TEXT	ENDS
; Function compile flags: /Ogtp
; File C:\Program Files (x86)\Microsoft Visual Studio\2019\Community\VC\Tools\MSVC\14.29.30133\atlmfc\include\afx.inl
;	COMDAT ??_GCGdiObject@@UAEPAXI@Z
_TEXT	SEGMENT
___flags$ = 8						; size = 4
??_GCGdiObject@@UAEPAXI@Z PROC				; CGdiObject::`scalar deleting destructor', COMDAT
; _this$ = ecx
  00000	55		 push	 ebp
  00001	8b ec		 mov	 ebp, esp
  00003	56		 push	 esi
  00004	8b f1		 mov	 esi, ecx
  00006	e8 00 00 00 00	 call	 ??1CGdiObject@@UAE@XZ	; CGdiObject::~CGdiObject
  0000b	8b 45 08	 mov	 eax, DWORD PTR ___flags$[ebp]
  0000e	a8 01		 test	 al, 1
  00010	74 1f		 je	 SHORT $LN9@scalar
  00012	a8 04		 test	 al, 4
  00014	75 10		 jne	 SHORT $LN3@scalar

; 112  : 	{ ::operator delete(p); }

  00016	56		 push	 esi
  00017	e8 00 00 00 00	 call	 ??3@YAXPAX@Z		; operator delete
  0001c	83 c4 04	 add	 esp, 4
  0001f	8b c6		 mov	 eax, esi
  00021	5e		 pop	 esi
  00022	5d		 pop	 ebp
  00023	c2 04 00	 ret	 4
$LN3@scalar:
  00026	6a 08		 push	 8
  00028	56		 push	 esi
  00029	e8 00 00 00 00	 call	 ?__global_delete@@YAXPAXI@Z ; __global_delete
  0002e	83 c4 08	 add	 esp, 8
$LN9@scalar:
  00031	8b c6		 mov	 eax, esi
  00033	5e		 pop	 esi
  00034	5d		 pop	 ebp
  00035	c2 04 00	 ret	 4
??_GCGdiObject@@UAEPAXI@Z ENDP				; CGdiObject::`scalar deleting destructor'
_TEXT	ENDS
; Function compile flags: /Ogtp
; File C:\Program Files (x86)\Microsoft Visual Studio\2019\Community\VC\Tools\MSVC\14.29.30133\atlmfc\include\afxwin1.inl
;	COMDAT ??1CGdiObject@@UAE@XZ
_TEXT	SEGMENT
_pException$2 = -540					; size = 4
_strMsg$3 = -536					; size = 4
_szErrorMessage$4 = -532				; size = 512
__$ArrayPad$ = -20					; size = 4
__$EHRec$ = -16						; size = 16
??1CGdiObject@@UAE@XZ PROC				; CGdiObject::~CGdiObject, COMDAT
; _this$ = ecx

; 74   : {

  00000	55		 push	 ebp
  00001	8b ec		 mov	 ebp, esp
  00003	6a ff		 push	 -1
  00005	68 00 00 00 00	 push	 __ehhandler$??1CGdiObject@@UAE@XZ
  0000a	64 a1 00 00 00
	00		 mov	 eax, DWORD PTR fs:0
  00010	50		 push	 eax
  00011	81 ec 10 02 00
	00		 sub	 esp, 528		; 00000210H
  00017	a1 00 00 00 00	 mov	 eax, DWORD PTR ___security_cookie
  0001c	33 c5		 xor	 eax, ebp
  0001e	89 45 ec	 mov	 DWORD PTR __$ArrayPad$[ebp], eax
  00021	53		 push	 ebx
  00022	56		 push	 esi
  00023	57		 push	 edi
  00024	50		 push	 eax
  00025	8d 45 f4	 lea	 eax, DWORD PTR __$EHRec$[ebp+4]
  00028	64 a3 00 00 00
	00		 mov	 DWORD PTR fs:0, eax
  0002e	89 65 f0	 mov	 DWORD PTR __$EHRec$[ebp], esp
  00031	c7 01 00 00 00
	00		 mov	 DWORD PTR [ecx], OFFSET ??_7CGdiObject@@6B@

; 75   : 	AFX_BEGIN_DESTRUCTOR

  00037	c7 45 fc 00 00
	00 00		 mov	 DWORD PTR __$EHRec$[ebp+12], 0

; 76   : 	DeleteObject();

  0003e	e8 00 00 00 00	 call	 ?DeleteObject@CGdiObject@@QAEHXZ ; CGdiObject::DeleteObject
$LN18@CGdiObject:

; 78   : }

  00043	8b 4d f4	 mov	 ecx, DWORD PTR __$EHRec$[ebp+4]
  00046	64 89 0d 00 00
	00 00		 mov	 DWORD PTR fs:0, ecx
  0004d	59		 pop	 ecx
  0004e	5f		 pop	 edi
  0004f	5e		 pop	 esi
  00050	5b		 pop	 ebx
  00051	8b 4d ec	 mov	 ecx, DWORD PTR __$ArrayPad$[ebp]
  00054	33 cd		 xor	 ecx, ebp
  00056	e8 00 00 00 00	 call	 @__security_check_cookie@4
  0005b	8b e5		 mov	 esp, ebp
  0005d	5d		 pop	 ebp
  0005e	c3		 ret	 0
__catch$??1CGdiObject@@UAE@XZ$0:

; 77   : 	AFX_END_DESTRUCTOR

  0005f	8d 8d e8 fd ff
	ff		 lea	 ecx, DWORD PTR _strMsg$3[ebp]
  00065	ff 15 00 00 00
	00		 call	 DWORD PTR __imp_??0?$CStringT@DV?$StrTraitMFC_DLL@DV?$ChTraitsCRT@D@ATL@@@@@ATL@@QAE@XZ
  0006b	8b b5 e4 fd ff
	ff		 mov	 esi, DWORD PTR _pException$2[ebp]
  00071	8d 8d ec fd ff
	ff		 lea	 ecx, DWORD PTR _szErrorMessage$4[ebp]
  00077	6a 00		 push	 0
  00079	68 00 02 00 00	 push	 512			; 00000200H
  0007e	51		 push	 ecx
  0007f	8b 06		 mov	 eax, DWORD PTR [esi]
  00081	8b ce		 mov	 ecx, esi
  00083	c6 45 fc 02	 mov	 BYTE PTR __$EHRec$[ebp+12], 2
  00087	ff 50 14	 call	 DWORD PTR [eax+20]
  0008a	85 c0		 test	 eax, eax
  0008c	74 2a		 je	 SHORT $LN9@CGdiObject
  0008e	8d 85 ec fd ff
	ff		 lea	 eax, DWORD PTR _szErrorMessage$4[ebp]
  00094	50		 push	 eax
  00095	6a 4d		 push	 77			; 0000004dH
  00097	68 00 00 00 00	 push	 OFFSET ??_C@_0HD@JJCHHHNK@C?3?2Program?5Files?5?$CIx86?$CJ?2Microsof@
  0009c	68 00 00 00 00	 push	 OFFSET ??_C@_0BP@OIEOKIDM@Exception?5thrown?5in?5destructor@
  000a1	8d 85 e8 fd ff
	ff		 lea	 eax, DWORD PTR _strMsg$3[ebp]
  000a7	68 00 00 00 00	 push	 OFFSET ??_C@_0BB@HBOOMJBF@?$CFTs?5?$CI?$CFTs?3?$CFd?$CJ?6?$CFTs@
  000ac	50		 push	 eax
  000ad	ff 15 00 00 00
	00		 call	 DWORD PTR __imp_?Format@?$CStringT@DV?$StrTraitMFC_DLL@DV?$ChTraitsCRT@D@ATL@@@@@ATL@@QAAXPBDZZ
  000b3	83 c4 18	 add	 esp, 24			; 00000018H
  000b6	eb 21		 jmp	 SHORT $LN10@CGdiObject
$LN9@CGdiObject:
  000b8	6a 4d		 push	 77			; 0000004dH
  000ba	68 00 00 00 00	 push	 OFFSET ??_C@_0HD@JJCHHHNK@C?3?2Program?5Files?5?$CIx86?$CJ?2Microsof@
  000bf	68 00 00 00 00	 push	 OFFSET ??_C@_0BP@OIEOKIDM@Exception?5thrown?5in?5destructor@
  000c4	8d 85 e8 fd ff
	ff		 lea	 eax, DWORD PTR _strMsg$3[ebp]
  000ca	68 00 00 00 00	 push	 OFFSET ??_C@_0N@OMEMOKLE@?$CFTs?5?$CI?$CFTs?3?$CFd?$CJ@
  000cf	50		 push	 eax
  000d0	ff 15 00 00 00
	00		 call	 DWORD PTR __imp_?Format@?$CStringT@DV?$StrTraitMFC_DLL@DV?$ChTraitsCRT@D@ATL@@@@@ATL@@QAAXPBDZZ
  000d6	83 c4 14	 add	 esp, 20			; 00000014H
$LN10@CGdiObject:
  000d9	6a 00		 push	 0
  000db	6a 00		 push	 0
  000dd	ff b5 e8 fd ff
	ff		 push	 DWORD PTR _strMsg$3[ebp]
  000e3	e8 00 00 00 00	 call	 ?AfxMessageBox@@YGHPBDII@Z ; AfxMessageBox
  000e8	8d 8d e8 fd ff
	ff		 lea	 ecx, DWORD PTR _strMsg$3[ebp]
  000ee	ff 15 00 00 00
	00		 call	 DWORD PTR __imp_??1?$CStringT@DV?$StrTraitMFC_DLL@DV?$ChTraitsCRT@D@ATL@@@@@ATL@@QAE@XZ
  000f4	8b 06		 mov	 eax, DWORD PTR [esi]
  000f6	8b ce		 mov	 ecx, esi
  000f8	6a 01		 push	 1
  000fa	ff 50 04	 call	 DWORD PTR [eax+4]
  000fd	b8 00 00 00 00	 mov	 eax, $LN18@CGdiObject
  00102	c3		 ret	 0
_TEXT	ENDS
;	COMDAT text$x
text$x	SEGMENT
__unwindfunclet$??1CGdiObject@@UAE@XZ$2:
  00000	8d 8d e8 fd ff
	ff		 lea	 ecx, DWORD PTR _strMsg$3[ebp]
  00006	ff 25 00 00 00
	00		 jmp	 DWORD PTR __imp_??1?$CStringT@DV?$StrTraitMFC_DLL@DV?$ChTraitsCRT@D@ATL@@@@@ATL@@QAE@XZ
  0000c	cc		 int	 3
  0000d	cc		 int	 3
  0000e	cc		 int	 3
  0000f	cc		 int	 3
  00010	cc		 int	 3
__ehhandler$??1CGdiObject@@UAE@XZ:
  00011	90		 npad	 1
  00012	90		 npad	 1
  00013	8b 54 24 08	 mov	 edx, DWORD PTR [esp+8]
  00017	8d 42 0c	 lea	 eax, DWORD PTR [edx+12]
  0001a	8b 8a e0 fd ff
	ff		 mov	 ecx, DWORD PTR [edx-544]
  00020	33 c8		 xor	 ecx, eax
  00022	e8 00 00 00 00	 call	 @__security_check_cookie@4
  00027	8b 4a f8	 mov	 ecx, DWORD PTR [edx-8]
  0002a	33 c8		 xor	 ecx, eax
  0002c	e8 00 00 00 00	 call	 @__security_check_cookie@4
  00031	b8 00 00 00 00	 mov	 eax, OFFSET __ehfuncinfo$??1CGdiObject@@UAE@XZ
  00036	e9 00 00 00 00	 jmp	 ___CxxFrameHandler3
text$x	ENDS
??1CGdiObject@@UAE@XZ ENDP				; CGdiObject::~CGdiObject
; Function compile flags: /Ogtp
; File C:\Program Files (x86)\Microsoft Visual Studio\2019\Community\VC\Tools\MSVC\14.29.30133\atlmfc\include\cstringt.h
; File C:\Program Files (x86)\Microsoft Visual Studio\2019\Community\VC\Tools\MSVC\14.29.30133\atlmfc\include\atlsimpstr.h
; File C:\Program Files (x86)\Microsoft Visual Studio\2019\Community\VC\Tools\MSVC\14.29.30133\atlmfc\include\cstringt.h
;	COMDAT ??HATL@@YA?AV?$CStringT@DV?$StrTraitMFC_DLL@DV?$ChTraitsCRT@D@ATL@@@@@0@DABV10@@Z
_TEXT	SEGMENT
$T2 = -16						; size = 4
__$EHRec$ = -12						; size = 12
___$ReturnUdt$ = 8					; size = 4
_ch1$ = 12						; size = 1
_str2$ = 16						; size = 4
_chTemp$ = 19						; size = 1
??HATL@@YA?AV?$CStringT@DV?$StrTraitMFC_DLL@DV?$ChTraitsCRT@D@ATL@@@@@0@DABV10@@Z PROC ; ATL::operator+, COMDAT

; 2440 : 	{

  00000	55		 push	 ebp
  00001	8b ec		 mov	 ebp, esp
  00003	6a ff		 push	 -1
  00005	68 00 00 00 00	 push	 __ehhandler$??HATL@@YA?AV?$CStringT@DV?$StrTraitMFC_DLL@DV?$ChTraitsCRT@D@ATL@@@@@0@DABV10@@Z
  0000a	64 a1 00 00 00
	00		 mov	 eax, DWORD PTR fs:0
  00010	50		 push	 eax
  00011	51		 push	 ecx
  00012	56		 push	 esi
  00013	57		 push	 edi
  00014	a1 00 00 00 00	 mov	 eax, DWORD PTR ___security_cookie
  00019	33 c5		 xor	 eax, ebp
  0001b	50		 push	 eax
  0001c	8d 45 f4	 lea	 eax, DWORD PTR __$EHRec$[ebp]
  0001f	64 a3 00 00 00
	00		 mov	 DWORD PTR fs:0, eax
  00025	c7 45 f0 00 00
	00 00		 mov	 DWORD PTR $T2[ebp], 0

; 2441 : 		CStringT strResult( str2.GetManager() );

  0002c	8b 75 10	 mov	 esi, DWORD PTR _str2$[ebp]
  0002f	8b ce		 mov	 ecx, esi
  00031	ff 15 00 00 00
	00		 call	 DWORD PTR __imp_?GetManager@?$CStringT@DV?$StrTraitMFC_DLL@DV?$ChTraitsCRT@D@ATL@@@@@ATL@@QBEPAUIAtlStringMgr@2@XZ
  00037	8b 7d 08	 mov	 edi, DWORD PTR ___$ReturnUdt$[ebp]
  0003a	8b cf		 mov	 ecx, edi
  0003c	50		 push	 eax
  0003d	ff 15 00 00 00
	00		 call	 DWORD PTR __imp_??0?$CStringT@DV?$StrTraitMFC_DLL@DV?$ChTraitsCRT@D@ATL@@@@@ATL@@QAE@PAUIAtlStringMgr@1@@Z
; File C:\Program Files (x86)\Microsoft Visual Studio\2019\Community\VC\Tools\MSVC\14.29.30133\atlmfc\include\atlsimpstr.h

; 519  : 		return( GetData()->nDataLength );

  00043	8b 0e		 mov	 ecx, DWORD PTR [esi]
; File C:\Program Files (x86)\Microsoft Visual Studio\2019\Community\VC\Tools\MSVC\14.29.30133\atlmfc\include\cstringt.h

; 2442 : 		XCHAR chTemp = XCHAR( ch1 );

  00045	8a 45 0c	 mov	 al, BYTE PTR _ch1$[ebp]
  00048	88 45 13	 mov	 BYTE PTR _chTemp$[ebp], al

; 2443 : 
; 2444 : 		CThisSimpleString::Concatenate( strResult, &chTemp, 1, str2, str2.GetLength() );

  0004b	8d 45 13	 lea	 eax, DWORD PTR _chTemp$[ebp]

; 2445 : 
; 2446 : 		return( strResult );

  0004e	c7 45 fc 00 00
	00 00		 mov	 DWORD PTR __$EHRec$[ebp+8], 0
  00055	ff 71 f4	 push	 DWORD PTR [ecx-12]
  00058	c7 45 f0 01 00
	00 00		 mov	 DWORD PTR $T2[ebp], 1
  0005f	51		 push	 ecx
  00060	6a 01		 push	 1
  00062	50		 push	 eax
  00063	57		 push	 edi
  00064	ff 15 00 00 00
	00		 call	 DWORD PTR __imp_?Concatenate@?$CSimpleStringT@D$00@ATL@@KAXAAV12@PBDH1H@Z
  0006a	83 c4 14	 add	 esp, 20			; 00000014H
  0006d	8b c7		 mov	 eax, edi

; 2447 : 	}

  0006f	8b 4d f4	 mov	 ecx, DWORD PTR __$EHRec$[ebp]
  00072	64 89 0d 00 00
	00 00		 mov	 DWORD PTR fs:0, ecx
  00079	59		 pop	 ecx
  0007a	5f		 pop	 edi
  0007b	5e		 pop	 esi
  0007c	8b e5		 mov	 esp, ebp
  0007e	5d		 pop	 ebp
  0007f	c3		 ret	 0
_TEXT	ENDS
;	COMDAT text$x
text$x	SEGMENT
__unwindfunclet$??HATL@@YA?AV?$CStringT@DV?$StrTraitMFC_DLL@DV?$ChTraitsCRT@D@ATL@@@@@0@DABV10@@Z$0:
  00000	8b 45 f0	 mov	 eax, DWORD PTR $T2[ebp]
  00003	83 e0 01	 and	 eax, 1
  00006	0f 84 0d 00 00
	00		 je	 $LN4@operator
  0000c	83 65 f0 fe	 and	 DWORD PTR $T2[ebp], -2	; fffffffeH
  00010	8b 4d 08	 mov	 ecx, DWORD PTR ___$ReturnUdt$[ebp]
  00013	ff 25 00 00 00
	00		 jmp	 DWORD PTR __imp_??1?$CStringT@DV?$StrTraitMFC_DLL@DV?$ChTraitsCRT@D@ATL@@@@@ATL@@QAE@XZ
$LN4@operator:
  00019	c3		 ret	 0
  0001a	cc		 int	 3
  0001b	cc		 int	 3
  0001c	cc		 int	 3
  0001d	cc		 int	 3
  0001e	cc		 int	 3
__ehhandler$??HATL@@YA?AV?$CStringT@DV?$StrTraitMFC_DLL@DV?$ChTraitsCRT@D@ATL@@@@@0@DABV10@@Z:
  0001f	90		 npad	 1
  00020	90		 npad	 1
  00021	8b 54 24 08	 mov	 edx, DWORD PTR [esp+8]
  00025	8d 42 0c	 lea	 eax, DWORD PTR [edx+12]
  00028	8b 4a f0	 mov	 ecx, DWORD PTR [edx-16]
  0002b	33 c8		 xor	 ecx, eax
  0002d	e8 00 00 00 00	 call	 @__security_check_cookie@4
  00032	b8 00 00 00 00	 mov	 eax, OFFSET __ehfuncinfo$??HATL@@YA?AV?$CStringT@DV?$StrTraitMFC_DLL@DV?$ChTraitsCRT@D@ATL@@@@@0@DABV10@@Z
  00037	e9 00 00 00 00	 jmp	 ___CxxFrameHandler3
text$x	ENDS
??HATL@@YA?AV?$CStringT@DV?$StrTraitMFC_DLL@DV?$ChTraitsCRT@D@ATL@@@@@0@DABV10@@Z ENDP ; ATL::operator+
; Function compile flags: /Ogtp
; File C:\Program Files (x86)\Microsoft Visual Studio\2019\Community\VC\Tools\MSVC\14.29.30133\atlmfc\include\cstringt.h
; File C:\Program Files (x86)\Microsoft Visual Studio\2019\Community\VC\Tools\MSVC\14.29.30133\atlmfc\include\atlsimpstr.h
; File C:\Program Files (x86)\Microsoft Visual Studio\2019\Community\VC\Tools\MSVC\14.29.30133\atlmfc\include\cstringt.h
; File C:\Program Files (x86)\Microsoft Visual Studio\2019\Community\VC\Tools\MSVC\14.29.30133\atlmfc\include\atlsimpstr.h
; File C:\Program Files (x86)\Microsoft Visual Studio\2019\Community\VC\Tools\MSVC\14.29.30133\atlmfc\include\cstringt.h
;	COMDAT ??HATL@@YA?AV?$CStringT@DV?$StrTraitMFC_DLL@DV?$ChTraitsCRT@D@ATL@@@@@0@ABV10@0@Z
_TEXT	SEGMENT
$T2 = -16						; size = 4
__$EHRec$ = -12						; size = 12
___$ReturnUdt$ = 8					; size = 4
_str1$ = 12						; size = 4
_str2$ = 16						; size = 4
??HATL@@YA?AV?$CStringT@DV?$StrTraitMFC_DLL@DV?$ChTraitsCRT@D@ATL@@@@@0@ABV10@0@Z PROC ; ATL::operator+, COMDAT

; 2389 : 	{

  00000	55		 push	 ebp
  00001	8b ec		 mov	 ebp, esp
  00003	6a ff		 push	 -1
  00005	68 00 00 00 00	 push	 __ehhandler$??HATL@@YA?AV?$CStringT@DV?$StrTraitMFC_DLL@DV?$ChTraitsCRT@D@ATL@@@@@0@ABV10@0@Z
  0000a	64 a1 00 00 00
	00		 mov	 eax, DWORD PTR fs:0
  00010	50		 push	 eax
  00011	51		 push	 ecx
  00012	56		 push	 esi
  00013	57		 push	 edi
  00014	a1 00 00 00 00	 mov	 eax, DWORD PTR ___security_cookie
  00019	33 c5		 xor	 eax, ebp
  0001b	50		 push	 eax
  0001c	8d 45 f4	 lea	 eax, DWORD PTR __$EHRec$[ebp]
  0001f	64 a3 00 00 00
	00		 mov	 DWORD PTR fs:0, eax

; 2390 : 		CStringT strResult( str1.GetManager() );

  00025	8b 75 0c	 mov	 esi, DWORD PTR _str1$[ebp]
  00028	8b ce		 mov	 ecx, esi
  0002a	c7 45 f0 00 00
	00 00		 mov	 DWORD PTR $T2[ebp], 0
  00031	ff 15 00 00 00
	00		 call	 DWORD PTR __imp_?GetManager@?$CStringT@DV?$StrTraitMFC_DLL@DV?$ChTraitsCRT@D@ATL@@@@@ATL@@QBEPAUIAtlStringMgr@2@XZ
  00037	8b 7d 08	 mov	 edi, DWORD PTR ___$ReturnUdt$[ebp]
  0003a	8b cf		 mov	 ecx, edi
  0003c	50		 push	 eax
  0003d	ff 15 00 00 00
	00		 call	 DWORD PTR __imp_??0?$CStringT@DV?$StrTraitMFC_DLL@DV?$ChTraitsCRT@D@ATL@@@@@ATL@@QAE@PAUIAtlStringMgr@1@@Z
; File C:\Program Files (x86)\Microsoft Visual Studio\2019\Community\VC\Tools\MSVC\14.29.30133\atlmfc\include\atlsimpstr.h

; 519  : 		return( GetData()->nDataLength );

  00043	8b 45 10	 mov	 eax, DWORD PTR _str2$[ebp]
  00046	8b 16		 mov	 edx, DWORD PTR [esi]
; File C:\Program Files (x86)\Microsoft Visual Studio\2019\Community\VC\Tools\MSVC\14.29.30133\atlmfc\include\cstringt.h

; 2394 : 		return( strResult );

  00048	c7 45 fc 00 00
	00 00		 mov	 DWORD PTR __$EHRec$[ebp+8], 0
  0004f	c7 45 f0 01 00
	00 00		 mov	 DWORD PTR $T2[ebp], 1
; File C:\Program Files (x86)\Microsoft Visual Studio\2019\Community\VC\Tools\MSVC\14.29.30133\atlmfc\include\atlsimpstr.h

; 519  : 		return( GetData()->nDataLength );

  00056	8b 08		 mov	 ecx, DWORD PTR [eax]
; File C:\Program Files (x86)\Microsoft Visual Studio\2019\Community\VC\Tools\MSVC\14.29.30133\atlmfc\include\cstringt.h

; 2392 : 		CThisSimpleString::Concatenate( strResult, str1, str1.GetLength(), str2, str2.GetLength() );

  00058	ff 71 f4	 push	 DWORD PTR [ecx-12]
  0005b	51		 push	 ecx
  0005c	ff 72 f4	 push	 DWORD PTR [edx-12]
  0005f	52		 push	 edx
  00060	57		 push	 edi
  00061	ff 15 00 00 00
	00		 call	 DWORD PTR __imp_?Concatenate@?$CSimpleStringT@D$00@ATL@@KAXAAV12@PBDH1H@Z
  00067	83 c4 14	 add	 esp, 20			; 00000014H

; 2394 : 		return( strResult );

  0006a	8b c7		 mov	 eax, edi

; 2395 : 	}

  0006c	8b 4d f4	 mov	 ecx, DWORD PTR __$EHRec$[ebp]
  0006f	64 89 0d 00 00
	00 00		 mov	 DWORD PTR fs:0, ecx
  00076	59		 pop	 ecx
  00077	5f		 pop	 edi
  00078	5e		 pop	 esi
  00079	8b e5		 mov	 esp, ebp
  0007b	5d		 pop	 ebp
  0007c	c3		 ret	 0
_TEXT	ENDS
;	COMDAT text$x
text$x	SEGMENT
__unwindfunclet$??HATL@@YA?AV?$CStringT@DV?$StrTraitMFC_DLL@DV?$ChTraitsCRT@D@ATL@@@@@0@ABV10@0@Z$0:
  00000	8b 45 f0	 mov	 eax, DWORD PTR $T2[ebp]
  00003	83 e0 01	 and	 eax, 1
  00006	0f 84 0d 00 00
	00		 je	 $LN4@operator
  0000c	83 65 f0 fe	 and	 DWORD PTR $T2[ebp], -2	; fffffffeH
  00010	8b 4d 08	 mov	 ecx, DWORD PTR ___$ReturnUdt$[ebp]
  00013	ff 25 00 00 00
	00		 jmp	 DWORD PTR __imp_??1?$CStringT@DV?$StrTraitMFC_DLL@DV?$ChTraitsCRT@D@ATL@@@@@ATL@@QAE@XZ
$LN4@operator:
  00019	c3		 ret	 0
  0001a	cc		 int	 3
  0001b	cc		 int	 3
  0001c	cc		 int	 3
  0001d	cc		 int	 3
  0001e	cc		 int	 3
__ehhandler$??HATL@@YA?AV?$CStringT@DV?$StrTraitMFC_DLL@DV?$ChTraitsCRT@D@ATL@@@@@0@ABV10@0@Z:
  0001f	90		 npad	 1
  00020	90		 npad	 1
  00021	8b 54 24 08	 mov	 edx, DWORD PTR [esp+8]
  00025	8d 42 0c	 lea	 eax, DWORD PTR [edx+12]
  00028	8b 4a f0	 mov	 ecx, DWORD PTR [edx-16]
  0002b	33 c8		 xor	 ecx, eax
  0002d	e8 00 00 00 00	 call	 @__security_check_cookie@4
  00032	b8 00 00 00 00	 mov	 eax, OFFSET __ehfuncinfo$??HATL@@YA?AV?$CStringT@DV?$StrTraitMFC_DLL@DV?$ChTraitsCRT@D@ATL@@@@@0@ABV10@0@Z
  00037	e9 00 00 00 00	 jmp	 ___CxxFrameHandler3
text$x	ENDS
??HATL@@YA?AV?$CStringT@DV?$StrTraitMFC_DLL@DV?$ChTraitsCRT@D@ATL@@@@@0@ABV10@0@Z ENDP ; ATL::operator+
; Function compile flags: /Ogtp
; File C:\Program Files (x86)\Microsoft Visual Studio\2019\Community\VC\Tools\MSVC\14.29.30133\atlmfc\include\afx.inl
;	COMDAT ?Dump@CObject@@UBEXAAVCDumpContext@@@Z
_TEXT	SEGMENT
___formal$ = 8						; size = 4
?Dump@CObject@@UBEXAAVCDumpContext@@@Z PROC		; CObject::Dump, COMDAT
; _this$ = ecx

; 122  : 	{ /* no dumping in release builds */ }

  00000	c2 04 00	 ret	 4
?Dump@CObject@@UBEXAAVCDumpContext@@@Z ENDP		; CObject::Dump
_TEXT	ENDS
; Function compile flags: /Ogtp
; File C:\Program Files (x86)\Microsoft Visual Studio\2019\Community\VC\Tools\MSVC\14.29.30133\atlmfc\include\afx.inl
;	COMDAT ?AssertValid@CObject@@UBEXXZ
_TEXT	SEGMENT
?AssertValid@CObject@@UBEXXZ PROC			; CObject::AssertValid, COMDAT
; _this$ = ecx

; 120  : 	{ /* no asserts in release builds */ }

  00000	c2 00 00	 ret	 0
?AssertValid@CObject@@UBEXXZ ENDP			; CObject::AssertValid
_TEXT	ENDS
; Function compile flags: /Ogtp
; File C:\Program Files (x86)\Microsoft Visual Studio\2019\Community\VC\Tools\MSVC\14.29.30133\atlmfc\include\afx.inl
;	COMDAT ?Serialize@CObject@@UAEXAAVCArchive@@@Z
_TEXT	SEGMENT
___formal$ = 8						; size = 4
?Serialize@CObject@@UAEXAAVCArchive@@@Z PROC		; CObject::Serialize, COMDAT
; _this$ = ecx

; 106  : 	{ /* CObject does not serialize anything by default */ }

  00000	c2 04 00	 ret	 4
?Serialize@CObject@@UAEXAAVCArchive@@@Z ENDP		; CObject::Serialize
_TEXT	ENDS
; Function compile flags: /Ogtp
; File C:\Program Files (x86)\Microsoft Visual Studio\2019\Community\VC\Tools\MSVC\14.29.30133\atlmfc\include\afx.inl
;	COMDAT ??1CObject@@UAE@XZ
_TEXT	SEGMENT
??1CObject@@UAE@XZ PROC					; CObject::~CObject, COMDAT
; _this$ = ecx

; 104  : 	{ }

  00000	c2 00 00	 ret	 0
??1CObject@@UAE@XZ ENDP					; CObject::~CObject
_TEXT	ENDS
; Function compile flags: /Ogtp
; File C:\Program Files (x86)\Windows Kits\10\Include\10.0.22000.0\ucrt\stdio.h
;	COMDAT _sscanf
_TEXT	SEGMENT
__Buffer$ = 8						; size = 4
__Format$ = 12						; size = 4
_sscanf	PROC						; COMDAT

; 2247 :     {

  00000	55		 push	 ebp
  00001	8b ec		 mov	 ebp, esp

; 2153 :         return __stdio_common_vsscanf(

  00003	8d 45 10	 lea	 eax, DWORD PTR __Format$[ebp+4]
  00006	50		 push	 eax
  00007	6a 00		 push	 0
  00009	ff 75 0c	 push	 DWORD PTR __Format$[ebp]
  0000c	6a ff		 push	 -1
  0000e	ff 75 08	 push	 DWORD PTR __Buffer$[ebp]
  00011	e8 00 00 00 00	 call	 ___local_stdio_scanf_options
  00016	ff 70 04	 push	 DWORD PTR [eax+4]
  00019	ff 30		 push	 DWORD PTR [eax]
  0001b	ff 15 00 00 00
	00		 call	 DWORD PTR __imp____stdio_common_vsscanf
  00021	83 c4 1c	 add	 esp, 28			; 0000001cH

; 2248 :         int _Result;
; 2249 :         va_list _ArgList;
; 2250 :         __crt_va_start(_ArgList, _Format);
; 2251 :         _Result = _vsscanf_l(_Buffer, _Format, NULL, _ArgList);
; 2252 :         __crt_va_end(_ArgList);
; 2253 :         return _Result;
; 2254 :     }

  00024	5d		 pop	 ebp
  00025	c3		 ret	 0
_sscanf	ENDP
_TEXT	ENDS
; Function compile flags: /Ogtp
; File C:\Program Files (x86)\Windows Kits\10\Include\10.0.22000.0\ucrt\stdio.h
;	COMDAT _sprintf
_TEXT	SEGMENT
__Buffer$ = 8						; size = 4
__Format$ = 12						; size = 4
_sprintf PROC						; COMDAT

; 1771 :     {

  00000	55		 push	 ebp
  00001	8b ec		 mov	 ebp, esp

; 1392 :         int const _Result = __stdio_common_vsprintf(

  00003	8d 45 10	 lea	 eax, DWORD PTR __Format$[ebp+4]
  00006	50		 push	 eax
  00007	6a 00		 push	 0
  00009	ff 75 0c	 push	 DWORD PTR __Format$[ebp]
  0000c	6a ff		 push	 -1
  0000e	ff 75 08	 push	 DWORD PTR __Buffer$[ebp]
  00011	e8 00 00 00 00	 call	 ___local_stdio_printf_options
  00016	8b 08		 mov	 ecx, DWORD PTR [eax]
  00018	ff 70 04	 push	 DWORD PTR [eax+4]
  0001b	83 c9 01	 or	 ecx, 1
  0001e	51		 push	 ecx
  0001f	ff 15 00 00 00
	00		 call	 DWORD PTR __imp____stdio_common_vsprintf

; 1393 :             _CRT_INTERNAL_LOCAL_PRINTF_OPTIONS | _CRT_INTERNAL_PRINTF_LEGACY_VSPRINTF_NULL_TERMINATION,
; 1394 :             _Buffer, _BufferCount, _Format, _Locale, _ArgList);
; 1395 : 
; 1396 :         return _Result < 0 ? -1 : _Result;

  00025	83 c9 ff	 or	 ecx, -1
  00028	83 c4 1c	 add	 esp, 28			; 0000001cH
  0002b	85 c0		 test	 eax, eax
  0002d	0f 48 c1	 cmovs	 eax, ecx

; 1772 :         int _Result;
; 1773 :         va_list _ArgList;
; 1774 :         __crt_va_start(_ArgList, _Format);
; 1775 : 
; 1776 :         _Result = _vsprintf_l(_Buffer, _Format, NULL, _ArgList);
; 1777 : 
; 1778 :         __crt_va_end(_ArgList);
; 1779 :         return _Result;
; 1780 :     }

  00030	5d		 pop	 ebp
  00031	c3		 ret	 0
_sprintf ENDP
_TEXT	ENDS
; Function compile flags: /Ogtp
; File C:\Program Files (x86)\Windows Kits\10\Include\10.0.22000.0\ucrt\corecrt_stdio_config.h
;	COMDAT ___local_stdio_scanf_options
_TEXT	SEGMENT
___local_stdio_scanf_options PROC			; COMDAT

; 101  :         static unsigned __int64 _OptionsStorage;
; 102  :         return &_OptionsStorage;

  00000	b8 00 00 00 00	 mov	 eax, OFFSET ?_OptionsStorage@?1??__local_stdio_scanf_options@@9@4_KA ; `__local_stdio_scanf_options'::`2'::_OptionsStorage

; 103  :     }

  00005	c3		 ret	 0
___local_stdio_scanf_options ENDP
_TEXT	ENDS
; Function compile flags: /Ogtp
; File C:\Program Files (x86)\Windows Kits\10\Include\10.0.22000.0\ucrt\corecrt_stdio_config.h
;	COMDAT ___local_stdio_printf_options
_TEXT	SEGMENT
___local_stdio_printf_options PROC			; COMDAT

; 91   :         static unsigned __int64 _OptionsStorage;
; 92   :         return &_OptionsStorage;

  00000	b8 00 00 00 00	 mov	 eax, OFFSET ?_OptionsStorage@?1??__local_stdio_printf_options@@9@4_KA ; `__local_stdio_printf_options'::`2'::_OptionsStorage

; 93   :     }

  00005	c3		 ret	 0
___local_stdio_printf_options ENDP
_TEXT	ENDS
; Function compile flags: /Ogtp
; File D:\git\src\IBK\IBK_DRFN\ProjSrc\SrcDrfn\Chart\chart_common\DataList\Conversion.cpp
;	COMDAT ?__empty_global_delete@@YAXPAXI@Z
_TEXT	SEGMENT
___formal$ = 8						; size = 4
___formal$ = 12						; size = 4
?__empty_global_delete@@YAXPAXI@Z PROC			; __empty_global_delete, COMDAT

  00000	c2 00 00	 ret	 0
?__empty_global_delete@@YAXPAXI@Z ENDP			; __empty_global_delete
_TEXT	ENDS
; Function compile flags: /Ogtp
; File D:\git\src\IBK\IBK_DRFN\ProjSrc\SrcDrfn\Chart\chart_common\DataList\Conversion.cpp
;	COMDAT ?__empty_global_delete@@YAXPAX@Z
_TEXT	SEGMENT
___formal$ = 8						; size = 4
?__empty_global_delete@@YAXPAX@Z PROC			; __empty_global_delete, COMDAT

  00000	c2 00 00	 ret	 0
?__empty_global_delete@@YAXPAX@Z ENDP			; __empty_global_delete
_TEXT	ENDS
END
