; Listing generated by Microsoft (R) Optimizing Compiler Version 19.29.30145.0 

	TITLE	D:\git\src\IBK\IBK_DRFN\#DRfn-CS\_Obj\MultiChart\DataMath.obj
	.686P
	.XMM
	include listing.inc
	.model	flat

INCLUDELIB MSVCRT
INCLUDELIB OLDNAMES

PUBLIC	?__empty_global_delete@@YAXPAX@Z		; __empty_global_delete
PUBLIC	?__empty_global_delete@@YAXPAXI@Z		; __empty_global_delete
PUBLIC	?Round@CMath@@SAHN@Z				; CMath::Round
PUBLIC	?Round_Double@CMath@@SANABN@Z			; CMath::Round_Double
PUBLIC	?Round@CMath@@SANABNH@Z				; CMath::Round
PUBLIC	?Round@CMath@@SAHHH@Z				; CMath::Round
PUBLIC	?Floor@CMath@@SANABNH@Z				; CMath::Floor
PUBLIC	?Floor@CMath@@SAHHH@Z				; CMath::Floor
PUBLIC	?Divide10@CMath@@SANABNH@Z			; CMath::Divide10
PUBLIC	?Power@CMath@@SAHHH@Z				; CMath::Power
PUBLIC	?Distance@CMath@@SANABVCPoint@@0@Z		; CMath::Distance
PUBLIC	?Center@CMath@@SAHHH@Z				; CMath::Center
PUBLIC	?Log@CMath@@SANABN@Z				; CMath::Log
PUBLIC	?Exp@CMath@@SANABN@Z				; CMath::Exp
PUBLIC	?Modulus@CMath@@SANABN0@Z			; CMath::Modulus
PUBLIC	?TanI@CMath@@SAHH@Z				; CMath::TanI
PUBLIC	?TanD@CMath@@SANABN@Z				; CMath::TanD
PUBLIC	?Angle@CMath@@SANABN@Z				; CMath::Angle
PUBLIC	?NumberCount@CMath@@SAHH@Z			; CMath::NumberCount
PUBLIC	??_C@_02DPKJAMEF@?$CFd@				; `string'
PUBLIC	__real@0000000000000000
PUBLIC	__real@3fe0000000000000
PUBLIC	__real@3ff0000000000000
PUBLIC	__real@4000000000000000
PUBLIC	__real@400921fb54442d11
PUBLIC	__real@4024000000000000
PUBLIC	__real@4046800000000000
PUBLIC	__real@4056800000000000
PUBLIC	__real@4060e00000000000
PUBLIC	__real@4066800000000000
PUBLIC	__real@4076800000000000
PUBLIC	__real@bff0000000000000
PUBLIC	__xmm@7fffffffffffffff7fffffffffffffff
PUBLIC	__xmm@80000000000000008000000000000000
EXTRN	__imp_??0?$CStringT@DV?$StrTraitMFC_DLL@DV?$ChTraitsCRT@D@ATL@@@@@ATL@@QAE@XZ:PROC
EXTRN	__imp_??1?$CStringT@DV?$StrTraitMFC_DLL@DV?$ChTraitsCRT@D@ATL@@@@@ATL@@QAE@XZ:PROC
EXTRN	__imp_?Format@?$CStringT@DV?$StrTraitMFC_DLL@DV?$ChTraitsCRT@D@ATL@@@@@ATL@@QAAXPBDZZ:PROC
EXTRN	@__security_check_cookie@4:PROC
EXTRN	___CxxFrameHandler3:PROC
EXTRN	__libm_sse2_atan_precise:PROC
EXTRN	__libm_sse2_exp_precise:PROC
EXTRN	__libm_sse2_log_precise:PROC
EXTRN	__libm_sse2_pow_precise:PROC
EXTRN	__libm_sse2_sqrt_precise:PROC
EXTRN	__libm_sse2_tan_precise:PROC
EXTRN	_floor:PROC
EXTRN	___security_cookie:DWORD
EXTRN	__fltused:DWORD
;	COMDAT __xmm@80000000000000008000000000000000
CONST	SEGMENT
__xmm@80000000000000008000000000000000 DB 00H, 00H, 00H, 00H, 00H, 00H, 00H
	DB	080H, 00H, 00H, 00H, 00H, 00H, 00H, 00H, 080H
CONST	ENDS
;	COMDAT __xmm@7fffffffffffffff7fffffffffffffff
CONST	SEGMENT
__xmm@7fffffffffffffff7fffffffffffffff DB 0ffH, 0ffH, 0ffH, 0ffH, 0ffH, 0ffH
	DB	0ffH, 07fH, 0ffH, 0ffH, 0ffH, 0ffH, 0ffH, 0ffH, 0ffH, 07fH
CONST	ENDS
;	COMDAT __real@bff0000000000000
CONST	SEGMENT
__real@bff0000000000000 DQ 0bff0000000000000r	; -1
CONST	ENDS
;	COMDAT __real@4076800000000000
CONST	SEGMENT
__real@4076800000000000 DQ 04076800000000000r	; 360
CONST	ENDS
;	COMDAT __real@4066800000000000
CONST	SEGMENT
__real@4066800000000000 DQ 04066800000000000r	; 180
CONST	ENDS
;	COMDAT __real@4060e00000000000
CONST	SEGMENT
__real@4060e00000000000 DQ 04060e00000000000r	; 135
CONST	ENDS
;	COMDAT __real@4056800000000000
CONST	SEGMENT
__real@4056800000000000 DQ 04056800000000000r	; 90
CONST	ENDS
;	COMDAT __real@4046800000000000
CONST	SEGMENT
__real@4046800000000000 DQ 04046800000000000r	; 45
CONST	ENDS
;	COMDAT __real@4024000000000000
CONST	SEGMENT
__real@4024000000000000 DQ 04024000000000000r	; 10
CONST	ENDS
;	COMDAT __real@400921fb54442d11
CONST	SEGMENT
__real@400921fb54442d11 DQ 0400921fb54442d11r	; 3.14159
CONST	ENDS
;	COMDAT __real@4000000000000000
CONST	SEGMENT
__real@4000000000000000 DQ 04000000000000000r	; 2
CONST	ENDS
;	COMDAT __real@3ff0000000000000
CONST	SEGMENT
__real@3ff0000000000000 DQ 03ff0000000000000r	; 1
CONST	ENDS
;	COMDAT __real@3fe0000000000000
CONST	SEGMENT
__real@3fe0000000000000 DQ 03fe0000000000000r	; 0.5
CONST	ENDS
;	COMDAT __real@0000000000000000
CONST	SEGMENT
__real@0000000000000000 DQ 00000000000000000r	; 0
CONST	ENDS
;	COMDAT ??_C@_02DPKJAMEF@?$CFd@
CONST	SEGMENT
??_C@_02DPKJAMEF@?$CFd@ DB '%d', 00H			; `string'
CONST	ENDS
;	COMDAT xdata$x
xdata$x	SEGMENT
__unwindtable$?NumberCount@CMath@@SAHH@Z DD 0ffffffffH
	DD	FLAT:__unwindfunclet$?NumberCount@CMath@@SAHH@Z$0
__ehfuncinfo$?NumberCount@CMath@@SAHH@Z DD 019930522H
	DD	01H
	DD	FLAT:__unwindtable$?NumberCount@CMath@@SAHH@Z
	DD	2 DUP(00H)
	DD	2 DUP(00H)
	DD	00H
	DD	01H
xdata$x	ENDS
; Function compile flags: /Ogtp
; File D:\git\src\IBK\IBK_DRFN\ProjSrc\SrcDrfn\Chart\chart_common\DataList\DataMath.cpp
; File C:\Program Files (x86)\Microsoft Visual Studio\2019\Community\VC\Tools\MSVC\14.29.30133\atlmfc\include\atlsimpstr.h
; File D:\git\src\IBK\IBK_DRFN\ProjSrc\SrcDrfn\Chart\chart_common\DataList\DataMath.cpp
; File C:\Program Files (x86)\Microsoft Visual Studio\2019\Community\VC\Tools\MSVC\14.29.30133\atlmfc\include\atlsimpstr.h
; File D:\git\src\IBK\IBK_DRFN\ProjSrc\SrcDrfn\Chart\chart_common\DataList\DataMath.cpp
;	COMDAT ?NumberCount@CMath@@SAHH@Z
_TEXT	SEGMENT
_data$ = -16						; size = 4
__$EHRec$ = -12						; size = 12
_x$ = 8							; size = 4
?NumberCount@CMath@@SAHH@Z PROC				; CMath::NumberCount, COMDAT

; 193  : {

  00000	55		 push	 ebp
  00001	8b ec		 mov	 ebp, esp
  00003	6a ff		 push	 -1
  00005	68 00 00 00 00	 push	 __ehhandler$?NumberCount@CMath@@SAHH@Z
  0000a	64 a1 00 00 00
	00		 mov	 eax, DWORD PTR fs:0
  00010	50		 push	 eax
  00011	51		 push	 ecx
  00012	56		 push	 esi
  00013	a1 00 00 00 00	 mov	 eax, DWORD PTR ___security_cookie
  00018	33 c5		 xor	 eax, ebp
  0001a	50		 push	 eax
  0001b	8d 45 f4	 lea	 eax, DWORD PTR __$EHRec$[ebp]
  0001e	64 a3 00 00 00
	00		 mov	 DWORD PTR fs:0, eax

; 194  : 	CString data;

  00024	8d 4d f0	 lea	 ecx, DWORD PTR _data$[ebp]
  00027	ff 15 00 00 00
	00		 call	 DWORD PTR __imp_??0?$CStringT@DV?$StrTraitMFC_DLL@DV?$ChTraitsCRT@D@ATL@@@@@ATL@@QAE@XZ

; 195  : 	data.Format("%d", x);

  0002d	ff 75 08	 push	 DWORD PTR _x$[ebp]
  00030	8d 45 f0	 lea	 eax, DWORD PTR _data$[ebp]
  00033	c7 45 fc 00 00
	00 00		 mov	 DWORD PTR __$EHRec$[ebp+8], 0
  0003a	68 00 00 00 00	 push	 OFFSET ??_C@_02DPKJAMEF@?$CFd@
  0003f	50		 push	 eax
  00040	ff 15 00 00 00
	00		 call	 DWORD PTR __imp_?Format@?$CStringT@DV?$StrTraitMFC_DLL@DV?$ChTraitsCRT@D@ATL@@@@@ATL@@QAAXPBDZZ
; File C:\Program Files (x86)\Microsoft Visual Studio\2019\Community\VC\Tools\MSVC\14.29.30133\atlmfc\include\atlsimpstr.h

; 519  : 		return( GetData()->nDataLength );

  00046	8b 45 f0	 mov	 eax, DWORD PTR _data$[ebp]
; File D:\git\src\IBK\IBK_DRFN\ProjSrc\SrcDrfn\Chart\chart_common\DataList\DataMath.cpp

; 197  : 	return data.GetLength();

  00049	8d 4d f0	 lea	 ecx, DWORD PTR _data$[ebp]
  0004c	83 c4 0c	 add	 esp, 12			; 0000000cH
; File C:\Program Files (x86)\Microsoft Visual Studio\2019\Community\VC\Tools\MSVC\14.29.30133\atlmfc\include\atlsimpstr.h

; 519  : 		return( GetData()->nDataLength );

  0004f	8b 70 f4	 mov	 esi, DWORD PTR [eax-12]
; File D:\git\src\IBK\IBK_DRFN\ProjSrc\SrcDrfn\Chart\chart_common\DataList\DataMath.cpp

; 197  : 	return data.GetLength();

  00052	ff 15 00 00 00
	00		 call	 DWORD PTR __imp_??1?$CStringT@DV?$StrTraitMFC_DLL@DV?$ChTraitsCRT@D@ATL@@@@@ATL@@QAE@XZ
  00058	8b c6		 mov	 eax, esi

; 198  : }

  0005a	8b 4d f4	 mov	 ecx, DWORD PTR __$EHRec$[ebp]
  0005d	64 89 0d 00 00
	00 00		 mov	 DWORD PTR fs:0, ecx
  00064	59		 pop	 ecx
  00065	5e		 pop	 esi
  00066	8b e5		 mov	 esp, ebp
  00068	5d		 pop	 ebp
  00069	c3		 ret	 0
_TEXT	ENDS
;	COMDAT text$x
text$x	SEGMENT
__unwindfunclet$?NumberCount@CMath@@SAHH@Z$0:
  00000	8d 4d f0	 lea	 ecx, DWORD PTR _data$[ebp]
  00003	ff 25 00 00 00
	00		 jmp	 DWORD PTR __imp_??1?$CStringT@DV?$StrTraitMFC_DLL@DV?$ChTraitsCRT@D@ATL@@@@@ATL@@QAE@XZ
  00009	cc		 int	 3
  0000a	cc		 int	 3
  0000b	cc		 int	 3
  0000c	cc		 int	 3
  0000d	cc		 int	 3
__ehhandler$?NumberCount@CMath@@SAHH@Z:
  0000e	90		 npad	 1
  0000f	90		 npad	 1
  00010	8b 54 24 08	 mov	 edx, DWORD PTR [esp+8]
  00014	8d 42 0c	 lea	 eax, DWORD PTR [edx+12]
  00017	8b 4a f4	 mov	 ecx, DWORD PTR [edx-12]
  0001a	33 c8		 xor	 ecx, eax
  0001c	e8 00 00 00 00	 call	 @__security_check_cookie@4
  00021	b8 00 00 00 00	 mov	 eax, OFFSET __ehfuncinfo$?NumberCount@CMath@@SAHH@Z
  00026	e9 00 00 00 00	 jmp	 ___CxxFrameHandler3
text$x	ENDS
?NumberCount@CMath@@SAHH@Z ENDP				; CMath::NumberCount
; Function compile flags: /Ogtp
; File D:\git\src\IBK\IBK_DRFN\ProjSrc\SrcDrfn\Chart\chart_common\DataList\DataMath.cpp
;	COMDAT ?Angle@CMath@@SANABN@Z
_TEXT	SEGMENT
tv147 = -8						; size = 8
_dTan$ = 8						; size = 4
?Angle@CMath@@SANABN@Z PROC				; CMath::Angle, COMDAT

; 177  : {

  00000	55		 push	 ebp
  00001	8b ec		 mov	 ebp, esp

; 178  : 	if(dTan == 1.0)

  00003	8b 45 08	 mov	 eax, DWORD PTR _dTan$[ebp]
  00006	83 ec 08	 sub	 esp, 8
  00009	f2 0f 10 00	 movsd	 xmm0, QWORD PTR [eax]
  0000d	66 0f 2e 05 00
	00 00 00	 ucomisd xmm0, QWORD PTR __real@3ff0000000000000
  00015	9f		 lahf
  00016	f6 c4 44	 test	 ah, 68			; 00000044H
  00019	7a 0a		 jp	 SHORT $LN2@Angle

; 179  : 		return 45.0;

  0001b	dd 05 00 00 00
	00		 fld	 QWORD PTR __real@4046800000000000

; 188  : }

  00021	8b e5		 mov	 esp, ebp
  00023	5d		 pop	 ebp
  00024	c3		 ret	 0
$LN2@Angle:

; 180  : 	else if(dTan == -1.0)

  00025	66 0f 2e 05 00
	00 00 00	 ucomisd xmm0, QWORD PTR __real@bff0000000000000
  0002d	9f		 lahf
  0002e	f6 c4 44	 test	 ah, 68			; 00000044H
  00031	7a 0a		 jp	 SHORT $LN4@Angle

; 181  : 		return 135.0;

  00033	dd 05 00 00 00
	00		 fld	 QWORD PTR __real@4060e00000000000

; 188  : }

  00039	8b e5		 mov	 esp, ebp
  0003b	5d		 pop	 ebp
  0003c	c3		 ret	 0
$LN4@Angle:

; 182  : 	else if(dTan == 0.0)

  0003d	66 0f 2e 05 00
	00 00 00	 ucomisd xmm0, QWORD PTR __real@0000000000000000
  00045	9f		 lahf
  00046	f6 c4 44	 test	 ah, 68			; 00000044H
  00049	7a 0a		 jp	 SHORT $LN6@Angle

; 183  : 		return 180.0;

  0004b	dd 05 00 00 00
	00		 fld	 QWORD PTR __real@4066800000000000

; 188  : }

  00051	8b e5		 mov	 esp, ebp
  00053	5d		 pop	 ebp
  00054	c3		 ret	 0
$LN6@Angle:

; 184  : 
; 185  : 	double pi = 3.14159265358979;
; 186  : 	double dAngle = atan(dTan) * 180.0 / pi;

  00055	e8 00 00 00 00	 call	 __libm_sse2_atan_precise
  0005a	f2 0f 59 05 00
	00 00 00	 mulsd	 xmm0, QWORD PTR __real@4066800000000000
  00062	f2 0f 5e 05 00
	00 00 00	 divsd	 xmm0, QWORD PTR __real@400921fb54442d11

; 187  : 	return dAngle;

  0006a	f2 0f 11 45 f8	 movsd	 QWORD PTR tv147[ebp], xmm0
  0006f	dd 45 f8	 fld	 QWORD PTR tv147[ebp]

; 188  : }

  00072	8b e5		 mov	 esp, ebp
  00074	5d		 pop	 ebp
  00075	c3		 ret	 0
?Angle@CMath@@SANABN@Z ENDP				; CMath::Angle
_TEXT	ENDS
; Function compile flags: /Ogtp
; File D:\git\src\IBK\IBK_DRFN\ProjSrc\SrcDrfn\Chart\chart_common\DataList\DataMath.cpp
;	COMDAT ?TanD@CMath@@SANABN@Z
_TEXT	SEGMENT
tv225 = -8						; size = 8
_dAngle$ = 8						; size = 4
?TanD@CMath@@SANABN@Z PROC				; CMath::TanD, COMDAT

; 163  : {

  00000	55		 push	 ebp
  00001	8b ec		 mov	 ebp, esp

; 144  : 	double dTemp = int(data1/data2) * data2;

  00003	8b 45 08	 mov	 eax, DWORD PTR _dAngle$[ebp]

; 163  : {

  00006	83 ec 08	 sub	 esp, 8

; 144  : 	double dTemp = int(data1/data2) * data2;

  00009	f2 0f 10 25 00
	00 00 00	 movsd	 xmm4, QWORD PTR __real@4066800000000000
  00011	0f 57 d2	 xorps	 xmm2, xmm2
  00014	f2 0f 10 18	 movsd	 xmm3, QWORD PTR [eax]
  00018	0f 28 c3	 movaps	 xmm0, xmm3

; 145  : 	return (data1 - dTemp);

  0001b	0f 28 cb	 movaps	 xmm1, xmm3
  0001e	f2 0f 5e c4	 divsd	 xmm0, xmm4
  00022	f2 0f 2c c0	 cvttsd2si eax, xmm0
  00026	66 0f 6e c0	 movd	 xmm0, eax

; 144  : 	double dTemp = int(data1/data2) * data2;

  0002a	f3 0f e6 c0	 cvtdq2pd xmm0, xmm0
  0002e	f2 0f 59 c4	 mulsd	 xmm0, xmm4

; 145  : 	return (data1 - dTemp);

  00032	f2 0f 5c c8	 subsd	 xmm1, xmm0

; 164  : 	if(Modulus(dAngle, 180.0) == 0.0)

  00036	66 0f 2e ca	 ucomisd xmm1, xmm2
  0003a	9f		 lahf
  0003b	f6 c4 44	 test	 ah, 68			; 00000044H
  0003e	7b 72		 jnp	 SHORT $LN15@TanD

; 144  : 	double dTemp = int(data1/data2) * data2;

  00040	0f 28 c3	 movaps	 xmm0, xmm3

; 145  : 	return (data1 - dTemp);

  00043	0f 28 cb	 movaps	 xmm1, xmm3
  00046	f2 0f 5e 05 00
	00 00 00	 divsd	 xmm0, QWORD PTR __real@4056800000000000
  0004e	f2 0f 2c c0	 cvttsd2si eax, xmm0
  00052	66 0f 6e c0	 movd	 xmm0, eax

; 144  : 	double dTemp = int(data1/data2) * data2;

  00056	f3 0f e6 c0	 cvtdq2pd xmm0, xmm0
  0005a	f2 0f 59 05 00
	00 00 00	 mulsd	 xmm0, QWORD PTR __real@4056800000000000

; 145  : 	return (data1 - dTemp);

  00062	f2 0f 5c c8	 subsd	 xmm1, xmm0

; 165  : 		return 0.0;
; 166  : 	else if(Modulus(dAngle, 90.0) == 0.0)

  00066	66 0f 2e ca	 ucomisd xmm1, xmm2
  0006a	9f		 lahf
  0006b	f6 c4 44	 test	 ah, 68			; 00000044H
  0006e	7b 42		 jnp	 SHORT $LN15@TanD

; 144  : 	double dTemp = int(data1/data2) * data2;

  00070	0f 28 cb	 movaps	 xmm1, xmm3
  00073	f2 0f 5e 0d 00
	00 00 00	 divsd	 xmm1, QWORD PTR __real@4076800000000000
  0007b	f2 0f 2c c1	 cvttsd2si eax, xmm1
  0007f	0f 57 c9	 xorps	 xmm1, xmm1
  00082	f2 0f 2a c8	 cvtsi2sd xmm1, eax
  00086	f2 0f 59 0d 00
	00 00 00	 mulsd	 xmm1, QWORD PTR __real@4076800000000000

; 145  : 	return (data1 - dTemp);

  0008e	f2 0f 5c d9	 subsd	 xmm3, xmm1

; 168  : 
; 169  : 	double dRealAngle = Modulus(dAngle, 360.0);
; 170  : 
; 171  : 	double pi = 3.14159265358979;
; 172  : 	dRealAngle = pi * dRealAngle / 180.0;

  00092	f2 0f 59 1d 00
	00 00 00	 mulsd	 xmm3, QWORD PTR __real@400921fb54442d11
  0009a	f2 0f 5e dc	 divsd	 xmm3, xmm4

; 173  : 	return tan(dRealAngle);

  0009e	0f 28 c3	 movaps	 xmm0, xmm3
  000a1	e8 00 00 00 00	 call	 __libm_sse2_tan_precise
  000a6	f2 0f 11 45 f8	 movsd	 QWORD PTR tv225[ebp], xmm0
  000ab	dd 45 f8	 fld	 QWORD PTR tv225[ebp]

; 174  : }

  000ae	8b e5		 mov	 esp, ebp
  000b0	5d		 pop	 ebp
  000b1	c3		 ret	 0
$LN15@TanD:

; 167  : 		return 0.0;

  000b2	d9 ee		 fldz

; 174  : }

  000b4	8b e5		 mov	 esp, ebp
  000b6	5d		 pop	 ebp
  000b7	c3		 ret	 0
?TanD@CMath@@SANABN@Z ENDP				; CMath::TanD
_TEXT	ENDS
; Function compile flags: /Ogtp
; File D:\git\src\IBK\IBK_DRFN\ProjSrc\SrcDrfn\Chart\chart_common\DataList\DataMath.cpp
;	COMDAT ?TanI@CMath@@SAHH@Z
_TEXT	SEGMENT
tv138 = -8						; size = 8
tv132 = -8						; size = 8
_nAngle$ = 8						; size = 4
?TanI@CMath@@SAHH@Z PROC				; CMath::TanI, COMDAT

; 150  : {

  00000	55		 push	 ebp
  00001	8b ec		 mov	 ebp, esp
  00003	83 ec 08	 sub	 esp, 8

; 151  : 	if((nAngle%180) == 0)

  00006	b8 b7 60 0b b6	 mov	 eax, -1240768329	; b60b60b7H
  0000b	56		 push	 esi
  0000c	8b 75 08	 mov	 esi, DWORD PTR _nAngle$[ebp]
  0000f	8b ce		 mov	 ecx, esi
  00011	f7 ee		 imul	 esi
  00013	03 d6		 add	 edx, esi
  00015	c1 fa 07	 sar	 edx, 7
  00018	8b c2		 mov	 eax, edx
  0001a	c1 e8 1f	 shr	 eax, 31			; 0000001fH
  0001d	03 c2		 add	 eax, edx
  0001f	69 c0 b4 00 00
	00		 imul	 eax, eax, 180
  00025	2b c8		 sub	 ecx, eax
  00027	74 7f		 je	 SHORT $LN8@TanI

; 152  : 		return 0;
; 153  : 	else if((nAngle%90) == 0)

  00029	b8 b7 60 0b b6	 mov	 eax, -1240768329	; b60b60b7H
  0002e	f7 ee		 imul	 esi
  00030	03 d6		 add	 edx, esi
  00032	c1 fa 06	 sar	 edx, 6
  00035	8b ca		 mov	 ecx, edx
  00037	c1 e9 1f	 shr	 ecx, 31			; 0000001fH
  0003a	03 ca		 add	 ecx, edx
  0003c	8b d6		 mov	 edx, esi
  0003e	6b c9 5a	 imul	 ecx, ecx, 90
  00041	2b d1		 sub	 edx, ecx
  00043	74 63		 je	 SHORT $LN8@TanI

; 155  : 
; 156  : 	int nRealAngle = nAngle%360;

  00045	b8 b7 60 0b b6	 mov	 eax, -1240768329	; b60b60b7H
  0004a	f7 ee		 imul	 esi
  0004c	03 d6		 add	 edx, esi
  0004e	c1 fa 08	 sar	 edx, 8
  00051	8b c2		 mov	 eax, edx
  00053	c1 e8 1f	 shr	 eax, 31			; 0000001fH
  00056	03 c2		 add	 eax, edx
  00058	69 c0 68 01 00
	00		 imul	 eax, eax, 360
  0005e	2b f0		 sub	 esi, eax
  00060	66 0f 6e c6	 movd	 xmm0, esi

; 157  : 	double pi = 3.14159265358979;
; 158  : 	double dAngle = pi * (double)nRealAngle / 180.0;

  00064	f3 0f e6 c0	 cvtdq2pd xmm0, xmm0
  00068	f2 0f 59 05 00
	00 00 00	 mulsd	 xmm0, QWORD PTR __real@400921fb54442d11
  00070	f2 0f 5e 05 00
	00 00 00	 divsd	 xmm0, QWORD PTR __real@4066800000000000

; 159  : 	return Round(tan(dAngle));

  00078	e8 00 00 00 00	 call	 __libm_sse2_tan_precise

; 24   : 	return (int)floor(x + 0.5);

  0007d	f2 0f 58 05 00
	00 00 00	 addsd	 xmm0, QWORD PTR __real@3fe0000000000000
  00085	83 ec 08	 sub	 esp, 8
  00088	f2 0f 11 45 f8	 movsd	 QWORD PTR tv132[ebp], xmm0
  0008d	dd 45 f8	 fld	 QWORD PTR tv132[ebp]
  00090	dd 1c 24	 fstp	 QWORD PTR [esp]
  00093	e8 00 00 00 00	 call	 _floor
  00098	83 c4 08	 add	 esp, 8
  0009b	dd 5d f8	 fstp	 QWORD PTR tv138[ebp]
  0009e	f2 0f 2c 45 f8	 cvttsd2si eax, QWORD PTR tv138[ebp]
  000a3	5e		 pop	 esi

; 160  : }

  000a4	8b e5		 mov	 esp, ebp
  000a6	5d		 pop	 ebp
  000a7	c3		 ret	 0
$LN8@TanI:

; 154  : 		return 0;

  000a8	33 c0		 xor	 eax, eax
  000aa	5e		 pop	 esi

; 160  : }

  000ab	8b e5		 mov	 esp, ebp
  000ad	5d		 pop	 ebp
  000ae	c3		 ret	 0
?TanI@CMath@@SAHH@Z ENDP				; CMath::TanI
_TEXT	ENDS
; Function compile flags: /Ogtp
; File D:\git\src\IBK\IBK_DRFN\ProjSrc\SrcDrfn\Chart\chart_common\DataList\DataMath.cpp
;	COMDAT ?Modulus@CMath@@SANABN0@Z
_TEXT	SEGMENT
tv152 = -8						; size = 8
_data1$ = 8						; size = 4
_data2$ = 12						; size = 4
?Modulus@CMath@@SANABN0@Z PROC				; CMath::Modulus, COMDAT

; 140  : {

  00000	55		 push	 ebp
  00001	8b ec		 mov	 ebp, esp

; 141  : 	if(data2 == 0)

  00003	8b 45 0c	 mov	 eax, DWORD PTR _data2$[ebp]
  00006	83 ec 08	 sub	 esp, 8
  00009	f2 0f 10 10	 movsd	 xmm2, QWORD PTR [eax]
  0000d	66 0f 2e 15 00
	00 00 00	 ucomisd xmm2, QWORD PTR __real@0000000000000000
  00015	9f		 lahf
  00016	f6 c4 44	 test	 ah, 68			; 00000044H
  00019	7a 06		 jp	 SHORT $LN2@Modulus

; 142  : 		return 0.0;

  0001b	d9 ee		 fldz

; 146  : }

  0001d	8b e5		 mov	 esp, ebp
  0001f	5d		 pop	 ebp
  00020	c3		 ret	 0
$LN2@Modulus:

; 143  : 
; 144  : 	double dTemp = int(data1/data2) * data2;

  00021	8b 45 08	 mov	 eax, DWORD PTR _data1$[ebp]
  00024	f2 0f 10 08	 movsd	 xmm1, QWORD PTR [eax]
  00028	0f 28 c1	 movaps	 xmm0, xmm1
  0002b	f2 0f 5e c2	 divsd	 xmm0, xmm2
  0002f	f2 0f 2c c0	 cvttsd2si eax, xmm0
  00033	66 0f 6e c0	 movd	 xmm0, eax
  00037	f3 0f e6 c0	 cvtdq2pd xmm0, xmm0
  0003b	f2 0f 59 c2	 mulsd	 xmm0, xmm2

; 145  : 	return (data1 - dTemp);

  0003f	f2 0f 5c c8	 subsd	 xmm1, xmm0
  00043	f2 0f 11 4d f8	 movsd	 QWORD PTR tv152[ebp], xmm1
  00048	dd 45 f8	 fld	 QWORD PTR tv152[ebp]

; 146  : }

  0004b	8b e5		 mov	 esp, ebp
  0004d	5d		 pop	 ebp
  0004e	c3		 ret	 0
?Modulus@CMath@@SANABN0@Z ENDP				; CMath::Modulus
_TEXT	ENDS
; Function compile flags: /Ogtp
; File D:\git\src\IBK\IBK_DRFN\ProjSrc\SrcDrfn\Chart\chart_common\DataList\DataMath.cpp
;	COMDAT ?Exp@CMath@@SANABN@Z
_TEXT	SEGMENT
tv146 = -8						; size = 8
tv140 = -8						; size = 8
_data$ = 8						; size = 4
?Exp@CMath@@SANABN@Z PROC				; CMath::Exp, COMDAT

; 128  : {

  00000	55		 push	 ebp
  00001	8b ec		 mov	 ebp, esp

; 129  : 	//return exp(data / 10000.0);
; 130  : 	if(data == 0.0)

  00003	8b 45 08	 mov	 eax, DWORD PTR _data$[ebp]
  00006	83 ec 08	 sub	 esp, 8
  00009	0f 57 c9	 xorps	 xmm1, xmm1
  0000c	f2 0f 10 00	 movsd	 xmm0, QWORD PTR [eax]
  00010	66 0f 2e c1	 ucomisd xmm0, xmm1
  00014	9f		 lahf
  00015	f6 c4 44	 test	 ah, 68			; 00000044H
  00018	7a 06		 jp	 SHORT $LN2@Exp

; 131  : 		return 0.0;

  0001a	d9 ee		 fldz

; 136  : }

  0001c	8b e5		 mov	 esp, ebp
  0001e	5d		 pop	 ebp
  0001f	c3		 ret	 0
$LN2@Exp:

; 132  : 
; 133  : 	if(data > 0)

  00020	66 0f 2f c1	 comisd	 xmm0, xmm1
  00024	76 11		 jbe	 SHORT $LN3@Exp

; 134  : 		return exp(data);

  00026	e8 00 00 00 00	 call	 __libm_sse2_exp_precise
  0002b	f2 0f 11 45 f8	 movsd	 QWORD PTR tv146[ebp], xmm0
  00030	dd 45 f8	 fld	 QWORD PTR tv146[ebp]

; 136  : }

  00033	8b e5		 mov	 esp, ebp
  00035	5d		 pop	 ebp
  00036	c3		 ret	 0
$LN3@Exp:

; 135  : 	return -exp(fabs(data));

  00037	0f 54 05 00 00
	00 00		 andps	 xmm0, QWORD PTR __xmm@7fffffffffffffff7fffffffffffffff
  0003e	e8 00 00 00 00	 call	 __libm_sse2_exp_precise
  00043	0f 57 05 00 00
	00 00		 xorps	 xmm0, QWORD PTR __xmm@80000000000000008000000000000000
  0004a	f2 0f 11 45 f8	 movsd	 QWORD PTR tv140[ebp], xmm0
  0004f	dd 45 f8	 fld	 QWORD PTR tv140[ebp]

; 136  : }

  00052	8b e5		 mov	 esp, ebp
  00054	5d		 pop	 ebp
  00055	c3		 ret	 0
?Exp@CMath@@SANABN@Z ENDP				; CMath::Exp
_TEXT	ENDS
; Function compile flags: /Ogtp
; File D:\git\src\IBK\IBK_DRFN\ProjSrc\SrcDrfn\Chart\chart_common\DataList\DataMath.cpp
;	COMDAT ?Log@CMath@@SANABN@Z
_TEXT	SEGMENT
tv146 = -8						; size = 8
tv140 = -8						; size = 8
_data$ = 8						; size = 4
?Log@CMath@@SANABN@Z PROC				; CMath::Log, COMDAT

; 116  : {

  00000	55		 push	 ebp
  00001	8b ec		 mov	 ebp, esp

; 117  : 	//return (log(data) * 10000.0);
; 118  : 	if(data == 0.0)

  00003	8b 45 08	 mov	 eax, DWORD PTR _data$[ebp]
  00006	83 ec 08	 sub	 esp, 8
  00009	0f 57 c9	 xorps	 xmm1, xmm1
  0000c	f2 0f 10 00	 movsd	 xmm0, QWORD PTR [eax]
  00010	66 0f 2e c1	 ucomisd xmm0, xmm1
  00014	9f		 lahf
  00015	f6 c4 44	 test	 ah, 68			; 00000044H
  00018	7a 06		 jp	 SHORT $LN2@Log

; 119  : 		return 0.0;

  0001a	d9 ee		 fldz

; 124  : }

  0001c	8b e5		 mov	 esp, ebp
  0001e	5d		 pop	 ebp
  0001f	c3		 ret	 0
$LN2@Log:

; 120  : 
; 121  : 	if(data > 0)

  00020	66 0f 2f c1	 comisd	 xmm0, xmm1
  00024	76 11		 jbe	 SHORT $LN3@Log

; 122  : 		return log(data);

  00026	e8 00 00 00 00	 call	 __libm_sse2_log_precise
  0002b	f2 0f 11 45 f8	 movsd	 QWORD PTR tv146[ebp], xmm0
  00030	dd 45 f8	 fld	 QWORD PTR tv146[ebp]

; 124  : }

  00033	8b e5		 mov	 esp, ebp
  00035	5d		 pop	 ebp
  00036	c3		 ret	 0
$LN3@Log:

; 123  : 	return -log(fabs(data));

  00037	0f 54 05 00 00
	00 00		 andps	 xmm0, QWORD PTR __xmm@7fffffffffffffff7fffffffffffffff
  0003e	e8 00 00 00 00	 call	 __libm_sse2_log_precise
  00043	0f 57 05 00 00
	00 00		 xorps	 xmm0, QWORD PTR __xmm@80000000000000008000000000000000
  0004a	f2 0f 11 45 f8	 movsd	 QWORD PTR tv140[ebp], xmm0
  0004f	dd 45 f8	 fld	 QWORD PTR tv140[ebp]

; 124  : }

  00052	8b e5		 mov	 esp, ebp
  00054	5d		 pop	 ebp
  00055	c3		 ret	 0
?Log@CMath@@SANABN@Z ENDP				; CMath::Log
_TEXT	ENDS
; Function compile flags: /Ogtp
; File D:\git\src\IBK\IBK_DRFN\ProjSrc\SrcDrfn\Chart\chart_common\DataList\DataMath.cpp
;	COMDAT ?Center@CMath@@SAHHH@Z
_TEXT	SEGMENT
tv130 = -8						; size = 8
tv68 = -8						; size = 8
_pt1$ = 8						; size = 4
_pt2$ = 12						; size = 4
?Center@CMath@@SAHHH@Z PROC				; CMath::Center, COMDAT

; 110  : {

  00000	55		 push	 ebp
  00001	8b ec		 mov	 ebp, esp
  00003	83 ec 08	 sub	 esp, 8

; 111  : 	return (pt1 + Round((double)(pt2 - pt1) / 2.0));

  00006	8b 45 0c	 mov	 eax, DWORD PTR _pt2$[ebp]

; 24   : 	return (int)floor(x + 0.5);

  00009	83 ec 08	 sub	 esp, 8

; 111  : 	return (pt1 + Round((double)(pt2 - pt1) / 2.0));

  0000c	2b 45 08	 sub	 eax, DWORD PTR _pt1$[ebp]
  0000f	66 0f 6e c8	 movd	 xmm1, eax
  00013	f3 0f e6 c9	 cvtdq2pd xmm1, xmm1
  00017	f2 0f 59 0d 00
	00 00 00	 mulsd	 xmm1, QWORD PTR __real@3fe0000000000000

; 24   : 	return (int)floor(x + 0.5);

  0001f	f2 0f 58 0d 00
	00 00 00	 addsd	 xmm1, QWORD PTR __real@3fe0000000000000
  00027	f2 0f 11 4d f8	 movsd	 QWORD PTR tv130[ebp], xmm1
  0002c	dd 45 f8	 fld	 QWORD PTR tv130[ebp]
  0002f	dd 1c 24	 fstp	 QWORD PTR [esp]
  00032	e8 00 00 00 00	 call	 _floor
  00037	dd 5d f8	 fstp	 QWORD PTR tv68[ebp]
  0003a	f2 0f 2c 45 f8	 cvttsd2si eax, QWORD PTR tv68[ebp]
  0003f	83 c4 08	 add	 esp, 8

; 111  : 	return (pt1 + Round((double)(pt2 - pt1) / 2.0));

  00042	03 45 08	 add	 eax, DWORD PTR _pt1$[ebp]

; 112  : }

  00045	8b e5		 mov	 esp, ebp
  00047	5d		 pop	 ebp
  00048	c3		 ret	 0
?Center@CMath@@SAHHH@Z ENDP				; CMath::Center
_TEXT	ENDS
; Function compile flags: /Ogtp
; File D:\git\src\IBK\IBK_DRFN\ProjSrc\SrcDrfn\Chart\chart_common\DataList\DataMath.cpp
;	COMDAT ?Distance@CMath@@SANABVCPoint@@0@Z
_TEXT	SEGMENT
tv170 = -8						; size = 8
tv164 = -8						; size = 8
_pt1$ = 8						; size = 4
_pt2$ = 12						; size = 4
?Distance@CMath@@SANABVCPoint@@0@Z PROC			; CMath::Distance, COMDAT

; 104  : {

  00000	55		 push	 ebp
  00001	8b ec		 mov	 ebp, esp
  00003	83 e4 f8	 and	 esp, -8			; fffffff8H
  00006	83 ec 08	 sub	 esp, 8

; 105  : 	return sqrt(pow((pt1.x - pt2.x), 2) + pow((pt1.y - pt2.y), 2));

  00009	f2 0f 10 0d 00
	00 00 00	 movsd	 xmm1, QWORD PTR __real@4000000000000000
  00011	56		 push	 esi
  00012	8b 75 0c	 mov	 esi, DWORD PTR _pt2$[ebp]
  00015	57		 push	 edi
  00016	8b 7d 08	 mov	 edi, DWORD PTR _pt1$[ebp]
  00019	8b 47 04	 mov	 eax, DWORD PTR [edi+4]
  0001c	2b 46 04	 sub	 eax, DWORD PTR [esi+4]
  0001f	66 0f 6e c0	 movd	 xmm0, eax
  00023	f3 0f e6 c0	 cvtdq2pd xmm0, xmm0
  00027	e8 00 00 00 00	 call	 __libm_sse2_pow_precise
  0002c	8b 07		 mov	 eax, DWORD PTR [edi]
  0002e	2b 06		 sub	 eax, DWORD PTR [esi]
  00030	f2 0f 10 0d 00
	00 00 00	 movsd	 xmm1, QWORD PTR __real@4000000000000000
  00038	f2 0f 11 44 24
	08		 movsd	 QWORD PTR tv164[esp+16], xmm0
  0003e	66 0f 6e c0	 movd	 xmm0, eax
  00042	f3 0f e6 c0	 cvtdq2pd xmm0, xmm0
  00046	e8 00 00 00 00	 call	 __libm_sse2_pow_precise
  0004b	f2 0f 58 44 24
	08		 addsd	 xmm0, QWORD PTR tv164[esp+16]
  00051	0f 57 c9	 xorps	 xmm1, xmm1
  00054	66 0f 2e c8	 ucomisd xmm1, xmm0
  00058	77 14		 ja	 SHORT $LN3@Distance
  0005a	f2 0f 51 c0	 sqrtsd	 xmm0, xmm0
  0005e	f2 0f 11 44 24
	08		 movsd	 QWORD PTR tv170[esp+16], xmm0
  00064	dd 44 24 08	 fld	 QWORD PTR tv170[esp+16]

; 106  : }

  00068	5f		 pop	 edi
  00069	5e		 pop	 esi
  0006a	8b e5		 mov	 esp, ebp
  0006c	5d		 pop	 ebp
  0006d	c3		 ret	 0
$LN3@Distance:

; 105  : 	return sqrt(pow((pt1.x - pt2.x), 2) + pow((pt1.y - pt2.y), 2));

  0006e	e8 00 00 00 00	 call	 __libm_sse2_sqrt_precise
  00073	f2 0f 11 44 24
	08		 movsd	 QWORD PTR tv170[esp+16], xmm0
  00079	dd 44 24 08	 fld	 QWORD PTR tv170[esp+16]

; 106  : }

  0007d	5f		 pop	 edi
  0007e	5e		 pop	 esi
  0007f	8b e5		 mov	 esp, ebp
  00081	5d		 pop	 ebp
  00082	c3		 ret	 0
?Distance@CMath@@SANABVCPoint@@0@Z ENDP			; CMath::Distance
_TEXT	ENDS
; Function compile flags: /Ogtp
; File D:\git\src\IBK\IBK_DRFN\ProjSrc\SrcDrfn\Chart\chart_common\DataList\DataMath.cpp
;	COMDAT ?Power@CMath@@SAHHH@Z
_TEXT	SEGMENT
tv79 = -8						; size = 8
tv74 = -8						; size = 8
_data$ = 8						; size = 4
_count$ = 12						; size = 4
?Power@CMath@@SAHHH@Z PROC				; CMath::Power, COMDAT

; 98   : {

  00000	55		 push	 ebp
  00001	8b ec		 mov	 ebp, esp
  00003	83 ec 08	 sub	 esp, 8
  00006	66 0f 6e 4d 0c	 movd	 xmm1, DWORD PTR _count$[ebp]
  0000b	66 0f 6e 45 08	 movd	 xmm0, DWORD PTR _data$[ebp]

; 99   : 	return (int)floor(pow((double)data, (double)count));

  00010	f3 0f e6 c0	 cvtdq2pd xmm0, xmm0
  00014	f3 0f e6 c9	 cvtdq2pd xmm1, xmm1
  00018	e8 00 00 00 00	 call	 __libm_sse2_pow_precise
  0001d	83 ec 08	 sub	 esp, 8
  00020	f2 0f 11 45 f8	 movsd	 QWORD PTR tv74[ebp], xmm0
  00025	dd 45 f8	 fld	 QWORD PTR tv74[ebp]
  00028	dd 1c 24	 fstp	 QWORD PTR [esp]
  0002b	e8 00 00 00 00	 call	 _floor
  00030	dd 5d f8	 fstp	 QWORD PTR tv79[ebp]
  00033	f2 0f 2c 45 f8	 cvttsd2si eax, QWORD PTR tv79[ebp]
  00038	83 c4 08	 add	 esp, 8

; 100  : }

  0003b	8b e5		 mov	 esp, ebp
  0003d	5d		 pop	 ebp
  0003e	c3		 ret	 0
?Power@CMath@@SAHHH@Z ENDP				; CMath::Power
_TEXT	ENDS
; Function compile flags: /Ogtp
; File D:\git\src\IBK\IBK_DRFN\ProjSrc\SrcDrfn\Chart\chart_common\DataList\DataMath.cpp
;	COMDAT ?Divide10@CMath@@SANABNH@Z
_TEXT	SEGMENT
_dValue$ = -8						; size = 8
_dData$ = 8						; size = 4
_count$ = 12						; size = 4
?Divide10@CMath@@SANABNH@Z PROC				; CMath::Divide10, COMDAT

; 89   : {

  00000	55		 push	 ebp
  00001	8b ec		 mov	 ebp, esp
  00003	83 ec 08	 sub	 esp, 8

; 90   : 	double dValue = dData;

  00006	8b 45 08	 mov	 eax, DWORD PTR _dData$[ebp]
  00009	33 d2		 xor	 edx, edx
  0000b	8b 4d 0c	 mov	 ecx, DWORD PTR _count$[ebp]

; 91   : 	for(int nIndex = 0; nIndex < count; nIndex++){

  0000e	f2 0f 10 0d 00
	00 00 00	 movsd	 xmm1, QWORD PTR __real@4024000000000000
  00016	f2 0f 10 00	 movsd	 xmm0, QWORD PTR [eax]
  0001a	f2 0f 11 45 f8	 movsd	 QWORD PTR _dValue$[ebp], xmm0
  0001f	83 f9 08	 cmp	 ecx, 8
  00022	7c 38		 jl	 SHORT $LC12@Divide10

; 90   : 	double dValue = dData;

  00024	8d 41 f8	 lea	 eax, DWORD PTR [ecx-8]
  00027	c1 e8 03	 shr	 eax, 3
  0002a	40		 inc	 eax
  0002b	8d 14 c5 00 00
	00 00		 lea	 edx, DWORD PTR [eax*8]

; 91   : 	for(int nIndex = 0; nIndex < count; nIndex++){

$LL13@Divide10:

; 92   : 		dValue = dValue / 10.0;

  00032	f2 0f 5e c1	 divsd	 xmm0, xmm1
  00036	f2 0f 5e c1	 divsd	 xmm0, xmm1
  0003a	f2 0f 5e c1	 divsd	 xmm0, xmm1
  0003e	f2 0f 5e c1	 divsd	 xmm0, xmm1
  00042	f2 0f 5e c1	 divsd	 xmm0, xmm1
  00046	f2 0f 5e c1	 divsd	 xmm0, xmm1
  0004a	f2 0f 5e c1	 divsd	 xmm0, xmm1
  0004e	f2 0f 5e c1	 divsd	 xmm0, xmm1
  00052	83 e8 01	 sub	 eax, 1
  00055	75 db		 jne	 SHORT $LL13@Divide10
  00057	f2 0f 11 45 f8	 movsd	 QWORD PTR _dValue$[ebp], xmm0
$LC12@Divide10:

; 91   : 	for(int nIndex = 0; nIndex < count; nIndex++){

  0005c	3b d1		 cmp	 edx, ecx
  0005e	7d 10		 jge	 SHORT $LN16@Divide10
  00060	2b ca		 sub	 ecx, edx
$LC8@Divide10:

; 92   : 		dValue = dValue / 10.0;

  00062	f2 0f 5e c1	 divsd	 xmm0, xmm1
  00066	83 e9 01	 sub	 ecx, 1
  00069	75 f7		 jne	 SHORT $LC8@Divide10
  0006b	f2 0f 11 45 f8	 movsd	 QWORD PTR _dValue$[ebp], xmm0
$LN16@Divide10:

; 93   : 	}
; 94   : 	return dValue;
; 95   : }

  00070	dd 45 f8	 fld	 QWORD PTR _dValue$[ebp]
  00073	8b e5		 mov	 esp, ebp
  00075	5d		 pop	 ebp
  00076	c3		 ret	 0
?Divide10@CMath@@SANABNH@Z ENDP				; CMath::Divide10
_TEXT	ENDS
; Function compile flags: /Ogtp
; File D:\git\src\IBK\IBK_DRFN\ProjSrc\SrcDrfn\Chart\chart_common\DataList\DataMath.cpp
;	COMDAT ?Floor@CMath@@SAHHH@Z
_TEXT	SEGMENT
tv81 = -8						; size = 8
$T1 = -8						; size = 8
_x$ = 8							; size = 4
_roundPosition$ = 12					; size = 4
?Floor@CMath@@SAHHH@Z PROC				; CMath::Floor, COMDAT

; 76   : {

  00000	55		 push	 ebp
  00001	8b ec		 mov	 ebp, esp
  00003	83 ec 08	 sub	 esp, 8
  00006	56		 push	 esi

; 77   : 	if(roundPosition <= 0)

  00007	8b 75 0c	 mov	 esi, DWORD PTR _roundPosition$[ebp]
  0000a	85 f6		 test	 esi, esi
  0000c	7f 08		 jg	 SHORT $LN2@Floor

; 78   : 		return x;

  0000e	8b 45 08	 mov	 eax, DWORD PTR _x$[ebp]
  00011	5e		 pop	 esi

; 84   : }

  00012	8b e5		 mov	 esp, ebp
  00014	5d		 pop	 ebp
  00015	c3		 ret	 0
$LN2@Floor:
  00016	66 0f 6e 45 08	 movd	 xmm0, DWORD PTR _x$[ebp]

; 79   : 
; 80   : 	//double value = (double)x * pow(0.1, (double)roundPosition);
; 81   : 	double value = Divide10((double)x, roundPosition);

  0001b	8d 45 f8	 lea	 eax, DWORD PTR $T1[ebp]
  0001e	f3 0f e6 c0	 cvtdq2pd xmm0, xmm0
  00022	56		 push	 esi
  00023	50		 push	 eax
  00024	f2 0f 11 45 f8	 movsd	 QWORD PTR $T1[ebp], xmm0
  00029	e8 00 00 00 00	 call	 ?Divide10@CMath@@SANABNH@Z ; CMath::Divide10

; 82   : 	value = floor(value) * pow(10.0, (double)roundPosition);

  0002e	dd 1c 24	 fstp	 QWORD PTR [esp]
  00031	e8 00 00 00 00	 call	 _floor
  00036	f2 0f 10 05 00
	00 00 00	 movsd	 xmm0, QWORD PTR __real@4024000000000000
  0003e	83 c4 08	 add	 esp, 8
  00041	66 0f 6e ce	 movd	 xmm1, esi
  00045	f3 0f e6 c9	 cvtdq2pd xmm1, xmm1
  00049	dd 5d f8	 fstp	 QWORD PTR tv81[ebp]
  0004c	e8 00 00 00 00	 call	 __libm_sse2_pow_precise
  00051	f2 0f 10 4d f8	 movsd	 xmm1, QWORD PTR tv81[ebp]
  00056	f2 0f 59 c8	 mulsd	 xmm1, xmm0
  0005a	5e		 pop	 esi

; 83   : 	return (int)value;

  0005b	f2 0f 2c c1	 cvttsd2si eax, xmm1

; 84   : }

  0005f	8b e5		 mov	 esp, ebp
  00061	5d		 pop	 ebp
  00062	c3		 ret	 0
?Floor@CMath@@SAHHH@Z ENDP				; CMath::Floor
_TEXT	ENDS
; Function compile flags: /Ogtp
; File D:\git\src\IBK\IBK_DRFN\ProjSrc\SrcDrfn\Chart\chart_common\DataList\DataMath.cpp
;	COMDAT ?Floor@CMath@@SANABNH@Z
_TEXT	SEGMENT
tv152 = -8						; size = 8
tv145 = -8						; size = 8
$T1 = -8						; size = 8
_x$ = 8							; size = 4
_roundPosition$ = 12					; size = 4
?Floor@CMath@@SANABNH@Z PROC				; CMath::Floor, COMDAT

; 65   : {

  00000	55		 push	 ebp
  00001	8b ec		 mov	 ebp, esp
  00003	83 ec 08	 sub	 esp, 8
  00006	56		 push	 esi
  00007	8b 75 08	 mov	 esi, DWORD PTR _x$[ebp]
  0000a	57		 push	 edi

; 66   : 	if(roundPosition <= 0)

  0000b	8b 7d 0c	 mov	 edi, DWORD PTR _roundPosition$[ebp]
  0000e	f2 0f 10 06	 movsd	 xmm0, QWORD PTR [esi]
  00012	f2 0f 11 45 f8	 movsd	 QWORD PTR tv145[ebp], xmm0
  00017	85 ff		 test	 edi, edi
  00019	7f 17		 jg	 SHORT $LN2@Floor

; 67   : 		return floor(x);

  0001b	dd 45 f8	 fld	 QWORD PTR tv145[ebp]
  0001e	83 ec 08	 sub	 esp, 8
  00021	dd 1c 24	 fstp	 QWORD PTR [esp]
  00024	e8 00 00 00 00	 call	 _floor
  00029	83 c4 08	 add	 esp, 8
  0002c	5f		 pop	 edi

; 72   : }

  0002d	5e		 pop	 esi
  0002e	8b e5		 mov	 esp, ebp
  00030	5d		 pop	 ebp
  00031	c3		 ret	 0
$LN2@Floor:

; 68   : 
; 69   : 	double temp = x * pow(10.0, (double)(roundPosition-1));

  00032	f2 0f 10 05 00
	00 00 00	 movsd	 xmm0, QWORD PTR __real@4024000000000000
  0003a	4f		 dec	 edi
  0003b	0f 57 c9	 xorps	 xmm1, xmm1
  0003e	f2 0f 2a cf	 cvtsi2sd xmm1, edi
  00042	e8 00 00 00 00	 call	 __libm_sse2_pow_precise
  00047	f2 0f 59 06	 mulsd	 xmm0, QWORD PTR [esi]

; 70   : 	//return (floor(temp) * pow(0.1, (double)(roundPosition-1)));
; 71   : 	return Divide10(floor(temp), (roundPosition-1));

  0004b	83 ec 08	 sub	 esp, 8
  0004e	f2 0f 11 45 f8	 movsd	 QWORD PTR tv152[ebp], xmm0
  00053	dd 45 f8	 fld	 QWORD PTR tv152[ebp]
  00056	dd 1c 24	 fstp	 QWORD PTR [esp]
  00059	e8 00 00 00 00	 call	 _floor
  0005e	8d 45 f8	 lea	 eax, DWORD PTR $T1[ebp]
  00061	57		 push	 edi
  00062	dd 5d f8	 fstp	 QWORD PTR $T1[ebp]
  00065	50		 push	 eax
  00066	e8 00 00 00 00	 call	 ?Divide10@CMath@@SANABNH@Z ; CMath::Divide10
  0006b	83 c4 10	 add	 esp, 16			; 00000010H
  0006e	5f		 pop	 edi

; 72   : }

  0006f	5e		 pop	 esi
  00070	8b e5		 mov	 esp, ebp
  00072	5d		 pop	 ebp
  00073	c3		 ret	 0
?Floor@CMath@@SANABNH@Z ENDP				; CMath::Floor
_TEXT	ENDS
; Function compile flags: /Ogtp
; File D:\git\src\IBK\IBK_DRFN\ProjSrc\SrcDrfn\Chart\chart_common\DataList\DataMath.cpp
;	COMDAT ?Round@CMath@@SAHHH@Z
_TEXT	SEGMENT
tv90 = -8						; size = 8
$T1 = -8						; size = 8
_x$ = 8							; size = 4
_roundPosition$ = 12					; size = 4
?Round@CMath@@SAHHH@Z PROC				; CMath::Round, COMDAT

; 52   : {

  00000	55		 push	 ebp
  00001	8b ec		 mov	 ebp, esp
  00003	83 ec 08	 sub	 esp, 8
  00006	57		 push	 edi

; 53   : 	if(roundPosition <= 0)

  00007	8b 7d 0c	 mov	 edi, DWORD PTR _roundPosition$[ebp]
  0000a	85 ff		 test	 edi, edi
  0000c	7f 08		 jg	 SHORT $LN2@Round

; 54   : 		return x;

  0000e	8b 45 08	 mov	 eax, DWORD PTR _x$[ebp]
  00011	5f		 pop	 edi

; 60   : }

  00012	8b e5		 mov	 esp, ebp
  00014	5d		 pop	 ebp
  00015	c3		 ret	 0
$LN2@Round:
  00016	66 0f 6e 45 08	 movd	 xmm0, DWORD PTR _x$[ebp]

; 55   : 
; 56   : 	//double value = (double)x * pow(0.1, (double)roundPosition);
; 57   : 	double value = Divide10((double)x, roundPosition);

  0001b	8d 45 f8	 lea	 eax, DWORD PTR $T1[ebp]
  0001e	f3 0f e6 c0	 cvtdq2pd xmm0, xmm0
  00022	56		 push	 esi
  00023	57		 push	 edi
  00024	50		 push	 eax
  00025	f2 0f 11 45 f8	 movsd	 QWORD PTR $T1[ebp], xmm0
  0002a	e8 00 00 00 00	 call	 ?Divide10@CMath@@SANABNH@Z ; CMath::Divide10

; 24   : 	return (int)floor(x + 0.5);

  0002f	dc 05 00 00 00
	00		 fadd	 QWORD PTR __real@3fe0000000000000
  00035	dd 1c 24	 fstp	 QWORD PTR [esp]
  00038	e8 00 00 00 00	 call	 _floor

; 58   : 	value = Round(value) * pow(10.0, (double)roundPosition);

  0003d	f2 0f 10 05 00
	00 00 00	 movsd	 xmm0, QWORD PTR __real@4024000000000000

; 24   : 	return (int)floor(x + 0.5);

  00045	83 c4 08	 add	 esp, 8
  00048	66 0f 6e cf	 movd	 xmm1, edi

; 58   : 	value = Round(value) * pow(10.0, (double)roundPosition);

  0004c	f3 0f e6 c9	 cvtdq2pd xmm1, xmm1

; 24   : 	return (int)floor(x + 0.5);

  00050	dd 5d f8	 fstp	 QWORD PTR tv90[ebp]
  00053	f2 0f 2c 75 f8	 cvttsd2si esi, QWORD PTR tv90[ebp]

; 58   : 	value = Round(value) * pow(10.0, (double)roundPosition);

  00058	e8 00 00 00 00	 call	 __libm_sse2_pow_precise
  0005d	66 0f 6e ce	 movd	 xmm1, esi
  00061	f3 0f e6 c9	 cvtdq2pd xmm1, xmm1

; 59   : 	return (int)value;

  00065	5e		 pop	 esi
  00066	5f		 pop	 edi
  00067	f2 0f 59 c8	 mulsd	 xmm1, xmm0
  0006b	f2 0f 2c c1	 cvttsd2si eax, xmm1

; 60   : }

  0006f	8b e5		 mov	 esp, ebp
  00071	5d		 pop	 ebp
  00072	c3		 ret	 0
?Round@CMath@@SAHHH@Z ENDP				; CMath::Round
_TEXT	ENDS
; Function compile flags: /Ogtp
; File D:\git\src\IBK\IBK_DRFN\ProjSrc\SrcDrfn\Chart\chart_common\DataList\DataMath.cpp
;	COMDAT ?Round@CMath@@SANABNH@Z
_TEXT	SEGMENT
tv210 = -8						; size = 8
tv197 = -8						; size = 8
tv185 = -8						; size = 8
$T1 = -8						; size = 8
_x$ = 8							; size = 4
_roundPosition$ = 12					; size = 4
?Round@CMath@@SANABNH@Z PROC				; CMath::Round, COMDAT

; 34   : {

  00000	55		 push	 ebp
  00001	8b ec		 mov	 ebp, esp
  00003	83 ec 08	 sub	 esp, 8
  00006	56		 push	 esi
  00007	8b 75 08	 mov	 esi, DWORD PTR _x$[ebp]
  0000a	57		 push	 edi

; 35   : 	if(roundPosition <= 0)

  0000b	8b 7d 0c	 mov	 edi, DWORD PTR _roundPosition$[ebp]
  0000e	f2 0f 10 0e	 movsd	 xmm1, QWORD PTR [esi]
  00012	f2 0f 11 4d f8	 movsd	 QWORD PTR tv185[ebp], xmm1
  00017	85 ff		 test	 edi, edi
  00019	7f 24		 jg	 SHORT $LN2@Round

; 29   : 	return floor(x + 0.5);

  0001b	f2 0f 58 0d 00
	00 00 00	 addsd	 xmm1, QWORD PTR __real@3fe0000000000000
  00023	83 ec 08	 sub	 esp, 8
  00026	f2 0f 11 4d f8	 movsd	 QWORD PTR tv210[ebp], xmm1
  0002b	dd 45 f8	 fld	 QWORD PTR tv210[ebp]
  0002e	dd 1c 24	 fstp	 QWORD PTR [esp]
  00031	e8 00 00 00 00	 call	 _floor
  00036	83 c4 08	 add	 esp, 8
  00039	5f		 pop	 edi

; 48   : }

  0003a	5e		 pop	 esi
  0003b	8b e5		 mov	 esp, ebp
  0003d	5d		 pop	 ebp
  0003e	c3		 ret	 0
$LN2@Round:

; 36   : 		return Round_Double(x);
; 37   : 
; 38   : 	// 소숫점 아래 부분이 "0" 일 경우
; 39   : 	// 아래 부분을 구현 안할 경우 4969221000.0000 -> 4969221000.00001 로 된다.
; 40   : 	if(x == (int)x)

  0003f	f2 0f 2c c1	 cvttsd2si eax, xmm1
  00043	66 0f 6e c0	 movd	 xmm0, eax
  00047	f3 0f e6 c0	 cvtdq2pd xmm0, xmm0
  0004b	66 0f 2e c8	 ucomisd xmm1, xmm0
  0004f	9f		 lahf
  00050	f6 c4 44	 test	 ah, 68			; 00000044H
  00053	7a 09		 jp	 SHORT $LN3@Round

; 41   : 		return x;

  00055	dd 45 f8	 fld	 QWORD PTR tv185[ebp]
  00058	5f		 pop	 edi

; 48   : }

  00059	5e		 pop	 esi
  0005a	8b e5		 mov	 esp, ebp
  0005c	5d		 pop	 ebp
  0005d	c3		 ret	 0
$LN3@Round:

; 42   : 
; 43   : 	double value = x * pow(10.0, (double)(roundPosition-1));

  0005e	f2 0f 10 05 00
	00 00 00	 movsd	 xmm0, QWORD PTR __real@4024000000000000
  00066	4f		 dec	 edi
  00067	0f 57 c9	 xorps	 xmm1, xmm1
  0006a	f2 0f 2a cf	 cvtsi2sd xmm1, edi
  0006e	e8 00 00 00 00	 call	 __libm_sse2_pow_precise
  00073	f2 0f 59 06	 mulsd	 xmm0, QWORD PTR [esi]

; 29   : 	return floor(x + 0.5);

  00077	83 ec 08	 sub	 esp, 8
  0007a	f2 0f 58 05 00
	00 00 00	 addsd	 xmm0, QWORD PTR __real@3fe0000000000000
  00082	f2 0f 11 45 f8	 movsd	 QWORD PTR tv197[ebp], xmm0
  00087	dd 45 f8	 fld	 QWORD PTR tv197[ebp]
  0008a	dd 1c 24	 fstp	 QWORD PTR [esp]
  0008d	e8 00 00 00 00	 call	 _floor

; 44   : 
; 45   : 	// 아래부분을 수정한 이유는 소숫점이 부분이 "0" 이였을 경우 뒤에 "1"이 붙는 경우 발생.
; 46   : 	//return (Round_Double(value) * pow(0.1, (double)(roundPosition-1)));
; 47   : 	return Divide10(Round_Double(value), (roundPosition -1));

  00092	8d 45 f8	 lea	 eax, DWORD PTR $T1[ebp]
  00095	57		 push	 edi
  00096	dd 5d f8	 fstp	 QWORD PTR $T1[ebp]
  00099	50		 push	 eax
  0009a	e8 00 00 00 00	 call	 ?Divide10@CMath@@SANABNH@Z ; CMath::Divide10
  0009f	83 c4 10	 add	 esp, 16			; 00000010H
  000a2	5f		 pop	 edi

; 48   : }

  000a3	5e		 pop	 esi
  000a4	8b e5		 mov	 esp, ebp
  000a6	5d		 pop	 ebp
  000a7	c3		 ret	 0
?Round@CMath@@SANABNH@Z ENDP				; CMath::Round
_TEXT	ENDS
; Function compile flags: /Ogtp
; File D:\git\src\IBK\IBK_DRFN\ProjSrc\SrcDrfn\Chart\chart_common\DataList\DataMath.cpp
;	COMDAT ?Round_Double@CMath@@SANABN@Z
_TEXT	SEGMENT
tv130 = -8						; size = 8
_x$ = 8							; size = 4
?Round_Double@CMath@@SANABN@Z PROC			; CMath::Round_Double, COMDAT

; 28   : {

  00000	55		 push	 ebp
  00001	8b ec		 mov	 ebp, esp
  00003	83 ec 08	 sub	 esp, 8

; 29   : 	return floor(x + 0.5);

  00006	8b 45 08	 mov	 eax, DWORD PTR _x$[ebp]
  00009	83 ec 08	 sub	 esp, 8
  0000c	f2 0f 10 00	 movsd	 xmm0, QWORD PTR [eax]
  00010	f2 0f 58 05 00
	00 00 00	 addsd	 xmm0, QWORD PTR __real@3fe0000000000000
  00018	f2 0f 11 45 f8	 movsd	 QWORD PTR tv130[ebp], xmm0
  0001d	dd 45 f8	 fld	 QWORD PTR tv130[ebp]
  00020	dd 1c 24	 fstp	 QWORD PTR [esp]
  00023	e8 00 00 00 00	 call	 _floor
  00028	83 c4 08	 add	 esp, 8

; 30   : }

  0002b	8b e5		 mov	 esp, ebp
  0002d	5d		 pop	 ebp
  0002e	c3		 ret	 0
?Round_Double@CMath@@SANABN@Z ENDP			; CMath::Round_Double
_TEXT	ENDS
; Function compile flags: /Ogtp
; File D:\git\src\IBK\IBK_DRFN\ProjSrc\SrcDrfn\Chart\chart_common\DataList\DataMath.cpp
;	COMDAT ?Round@CMath@@SAHN@Z
_TEXT	SEGMENT
tv75 = 8						; size = 8
tv69 = 8						; size = 8
_x$ = 8							; size = 8
?Round@CMath@@SAHN@Z PROC				; CMath::Round, COMDAT

; 23   : {

  00000	55		 push	 ebp
  00001	8b ec		 mov	 ebp, esp

; 24   : 	return (int)floor(x + 0.5);

  00003	f2 0f 10 45 08	 movsd	 xmm0, QWORD PTR _x$[ebp]
  00008	83 ec 08	 sub	 esp, 8
  0000b	f2 0f 58 05 00
	00 00 00	 addsd	 xmm0, QWORD PTR __real@3fe0000000000000
  00013	f2 0f 11 45 08	 movsd	 QWORD PTR tv69[ebp], xmm0
  00018	dd 45 08	 fld	 QWORD PTR tv69[ebp]
  0001b	dd 1c 24	 fstp	 QWORD PTR [esp]
  0001e	e8 00 00 00 00	 call	 _floor
  00023	dd 5d 08	 fstp	 QWORD PTR tv75[ebp]
  00026	f2 0f 2c 45 08	 cvttsd2si eax, QWORD PTR tv75[ebp]
  0002b	83 c4 08	 add	 esp, 8

; 25   : }

  0002e	5d		 pop	 ebp
  0002f	c3		 ret	 0
?Round@CMath@@SAHN@Z ENDP				; CMath::Round
_TEXT	ENDS
; Function compile flags: /Ogtp
; File D:\git\src\IBK\IBK_DRFN\ProjSrc\SrcDrfn\Chart\chart_common\DataList\DataMath.cpp
;	COMDAT ?__empty_global_delete@@YAXPAXI@Z
_TEXT	SEGMENT
___formal$ = 8						; size = 4
___formal$ = 12						; size = 4
?__empty_global_delete@@YAXPAXI@Z PROC			; __empty_global_delete, COMDAT

  00000	c2 00 00	 ret	 0
?__empty_global_delete@@YAXPAXI@Z ENDP			; __empty_global_delete
_TEXT	ENDS
; Function compile flags: /Ogtp
; File D:\git\src\IBK\IBK_DRFN\ProjSrc\SrcDrfn\Chart\chart_common\DataList\DataMath.cpp
;	COMDAT ?__empty_global_delete@@YAXPAX@Z
_TEXT	SEGMENT
___formal$ = 8						; size = 4
?__empty_global_delete@@YAXPAX@Z PROC			; __empty_global_delete, COMDAT

  00000	c2 00 00	 ret	 0
?__empty_global_delete@@YAXPAX@Z ENDP			; __empty_global_delete
_TEXT	ENDS
END
