; Listing generated by Microsoft (R) Optimizing Compiler Version 19.29.30145.0 

	TITLE	D:\git\src\IBK\IBK_DRFN\#DRfn-CS\_Obj\MultiChart\DlgSettingToolBar.obj
	.686P
	.XMM
	include listing.inc
	.model	flat

INCLUDELIB MSVCRT
INCLUDELIB OLDNAMES

PUBLIC	?__empty_global_delete@@YAXPAX@Z		; __empty_global_delete
PUBLIC	?__empty_global_delete@@YAXPAXI@Z		; __empty_global_delete
PUBLIC	___local_stdio_printf_options
PUBLIC	___local_stdio_scanf_options
PUBLIC	_sprintf
PUBLIC	_sscanf
PUBLIC	?AfxCrtErrorCheck@@YAHH@Z			; AfxCrtErrorCheck
PUBLIC	??1CObject@@UAE@XZ				; CObject::~CObject
PUBLIC	?Serialize@CObject@@UAEXAAVCArchive@@@Z		; CObject::Serialize
PUBLIC	?AssertValid@CObject@@UBEXXZ			; CObject::AssertValid
PUBLIC	?Dump@CObject@@UBEXAAVCDumpContext@@@Z		; CObject::Dump
PUBLIC	?DoDataExchange@CWnd@@MAEXPAVCDataExchange@@@Z	; CWnd::DoDataExchange
PUBLIC	?BeginModalState@CWnd@@UAEXXZ			; CWnd::BeginModalState
PUBLIC	?EndModalState@CWnd@@UAEXXZ			; CWnd::EndModalState
PUBLIC	?Create@CDialog@@UAEHIPAVCWnd@@@Z		; CDialog::Create
PUBLIC	??_GCListBox@@UAEPAXI@Z				; CListBox::`scalar deleting destructor'
PUBLIC	??_GCComboBox@@UAEPAXI@Z			; CComboBox::`scalar deleting destructor'
PUBLIC	??0?$CArray@HH@@QAE@XZ				; CArray<int,int>::CArray<int,int>
PUBLIC	?SetSize@?$CArray@HH@@QAEXHH@Z			; CArray<int,int>::SetSize
PUBLIC	?GetAt@?$CArray@HH@@QAEAAHH@Z			; CArray<int,int>::GetAt
PUBLIC	?SetAtGrow@?$CArray@HH@@QAEXHH@Z		; CArray<int,int>::SetAtGrow
PUBLIC	?InsertAt@?$CArray@HH@@QAEXHHH@Z		; CArray<int,int>::InsertAt
PUBLIC	?RemoveAt@?$CArray@HH@@QAEXHH@Z			; CArray<int,int>::RemoveAt
PUBLIC	??1?$CArray@HH@@UAE@XZ				; CArray<int,int>::~CArray<int,int>
PUBLIC	?Serialize@?$CArray@HH@@UAEXAAVCArchive@@@Z	; CArray<int,int>::Serialize
PUBLIC	??_G?$CArray@HH@@UAEPAXI@Z			; CArray<int,int>::`scalar deleting destructor'
PUBLIC	??0?$CMap@HHV?$CStringT@DV?$StrTraitMFC_DLL@DV?$ChTraitsCRT@D@ATL@@@@@ATL@@V12@@@QAE@H@Z ; CMap<int,int,ATL::CStringT<char,StrTraitMFC_DLL<char,ATL::ChTraitsCRT<char> > >,ATL::CStringT<char,StrTraitMFC_DLL<char,ATL::ChTraitsCRT<char> > > >::CMap<int,int,ATL::CStringT<char,StrTraitMFC_DLL<char,ATL::ChTraitsCRT<char> > >,ATL::CStringT<char,StrTraitMFC_DLL<char,ATL::ChTraitsCRT<char> > > >
PUBLIC	?Lookup@?$CMap@HHV?$CStringT@DV?$StrTraitMFC_DLL@DV?$ChTraitsCRT@D@ATL@@@@@ATL@@V12@@@QBEHHAAV?$CStringT@DV?$StrTraitMFC_DLL@DV?$ChTraitsCRT@D@ATL@@@@@ATL@@@Z ; CMap<int,int,ATL::CStringT<char,StrTraitMFC_DLL<char,ATL::ChTraitsCRT<char> > >,ATL::CStringT<char,StrTraitMFC_DLL<char,ATL::ChTraitsCRT<char> > > >::Lookup
PUBLIC	??A?$CMap@HHV?$CStringT@DV?$StrTraitMFC_DLL@DV?$ChTraitsCRT@D@ATL@@@@@ATL@@V12@@@QAEAAV?$CStringT@DV?$StrTraitMFC_DLL@DV?$ChTraitsCRT@D@ATL@@@@@ATL@@H@Z ; CMap<int,int,ATL::CStringT<char,StrTraitMFC_DLL<char,ATL::ChTraitsCRT<char> > >,ATL::CStringT<char,StrTraitMFC_DLL<char,ATL::ChTraitsCRT<char> > > >::operator[]
PUBLIC	?SetAt@?$CMap@HHV?$CStringT@DV?$StrTraitMFC_DLL@DV?$ChTraitsCRT@D@ATL@@@@@ATL@@V12@@@QAEXHV?$CStringT@DV?$StrTraitMFC_DLL@DV?$ChTraitsCRT@D@ATL@@@@@ATL@@@Z ; CMap<int,int,ATL::CStringT<char,StrTraitMFC_DLL<char,ATL::ChTraitsCRT<char> > >,ATL::CStringT<char,StrTraitMFC_DLL<char,ATL::ChTraitsCRT<char> > > >::SetAt
PUBLIC	?RemoveKey@?$CMap@HHV?$CStringT@DV?$StrTraitMFC_DLL@DV?$ChTraitsCRT@D@ATL@@@@@ATL@@V12@@@QAEHH@Z ; CMap<int,int,ATL::CStringT<char,StrTraitMFC_DLL<char,ATL::ChTraitsCRT<char> > >,ATL::CStringT<char,StrTraitMFC_DLL<char,ATL::ChTraitsCRT<char> > > >::RemoveKey
PUBLIC	?RemoveAll@?$CMap@HHV?$CStringT@DV?$StrTraitMFC_DLL@DV?$ChTraitsCRT@D@ATL@@@@@ATL@@V12@@@QAEXXZ ; CMap<int,int,ATL::CStringT<char,StrTraitMFC_DLL<char,ATL::ChTraitsCRT<char> > >,ATL::CStringT<char,StrTraitMFC_DLL<char,ATL::ChTraitsCRT<char> > > >::RemoveAll
PUBLIC	?InitHashTable@?$CMap@HHV?$CStringT@DV?$StrTraitMFC_DLL@DV?$ChTraitsCRT@D@ATL@@@@@ATL@@V12@@@QAEXIH@Z ; CMap<int,int,ATL::CStringT<char,StrTraitMFC_DLL<char,ATL::ChTraitsCRT<char> > >,ATL::CStringT<char,StrTraitMFC_DLL<char,ATL::ChTraitsCRT<char> > > >::InitHashTable
PUBLIC	?NewAssoc@?$CMap@HHV?$CStringT@DV?$StrTraitMFC_DLL@DV?$ChTraitsCRT@D@ATL@@@@@ATL@@V12@@@IAEPAVCAssoc@1@H@Z ; CMap<int,int,ATL::CStringT<char,StrTraitMFC_DLL<char,ATL::ChTraitsCRT<char> > >,ATL::CStringT<char,StrTraitMFC_DLL<char,ATL::ChTraitsCRT<char> > > >::NewAssoc
PUBLIC	?FreeAssoc@?$CMap@HHV?$CStringT@DV?$StrTraitMFC_DLL@DV?$ChTraitsCRT@D@ATL@@@@@ATL@@V12@@@IAEXPAVCAssoc@1@@Z ; CMap<int,int,ATL::CStringT<char,StrTraitMFC_DLL<char,ATL::ChTraitsCRT<char> > >,ATL::CStringT<char,StrTraitMFC_DLL<char,ATL::ChTraitsCRT<char> > > >::FreeAssoc
PUBLIC	?GetAssocAt@?$CMap@HHV?$CStringT@DV?$StrTraitMFC_DLL@DV?$ChTraitsCRT@D@ATL@@@@@ATL@@V12@@@IBEPAVCAssoc@1@HAAI0@Z ; CMap<int,int,ATL::CStringT<char,StrTraitMFC_DLL<char,ATL::ChTraitsCRT<char> > >,ATL::CStringT<char,StrTraitMFC_DLL<char,ATL::ChTraitsCRT<char> > > >::GetAssocAt
PUBLIC	??1?$CMap@HHV?$CStringT@DV?$StrTraitMFC_DLL@DV?$ChTraitsCRT@D@ATL@@@@@ATL@@V12@@@UAE@XZ ; CMap<int,int,ATL::CStringT<char,StrTraitMFC_DLL<char,ATL::ChTraitsCRT<char> > >,ATL::CStringT<char,StrTraitMFC_DLL<char,ATL::ChTraitsCRT<char> > > >::~CMap<int,int,ATL::CStringT<char,StrTraitMFC_DLL<char,ATL::ChTraitsCRT<char> > >,ATL::CStringT<char,StrTraitMFC_DLL<char,ATL::ChTraitsCRT<char> > > >
PUBLIC	?Serialize@?$CMap@HHV?$CStringT@DV?$StrTraitMFC_DLL@DV?$ChTraitsCRT@D@ATL@@@@@ATL@@V12@@@UAEXAAVCArchive@@@Z ; CMap<int,int,ATL::CStringT<char,StrTraitMFC_DLL<char,ATL::ChTraitsCRT<char> > >,ATL::CStringT<char,StrTraitMFC_DLL<char,ATL::ChTraitsCRT<char> > > >::Serialize
PUBLIC	??_G?$CMap@HHV?$CStringT@DV?$StrTraitMFC_DLL@DV?$ChTraitsCRT@D@ATL@@@@@ATL@@V12@@@UAEPAXI@Z ; CMap<int,int,ATL::CStringT<char,StrTraitMFC_DLL<char,ATL::ChTraitsCRT<char> > >,ATL::CStringT<char,StrTraitMFC_DLL<char,ATL::ChTraitsCRT<char> > > >::`scalar deleting destructor'
PUBLIC	?GetFieldData@CDlgSettingToolBar@@AAEXV?$CStringT@DV?$StrTraitMFC_DLL@DV?$ChTraitsCRT@D@ATL@@@@@ATL@@AAHAAV23@@Z ; CDlgSettingToolBar::GetFieldData
PUBLIC	?ReadIniFile@CDlgSettingToolBar@@AAEXH@Z	; CDlgSettingToolBar::ReadIniFile
PUBLIC	?FillShowList@CDlgSettingToolBar@@AAEXAAV?$CArray@HH@@AAV?$CMap@HHV?$CStringT@DV?$StrTraitMFC_DLL@DV?$ChTraitsCRT@D@ATL@@@@@ATL@@V12@@@@Z ; CDlgSettingToolBar::FillShowList
PUBLIC	?FillAvailableList@CDlgSettingToolBar@@AAEXAAV?$CArray@HH@@AAV?$CMap@HHV?$CStringT@DV?$StrTraitMFC_DLL@DV?$ChTraitsCRT@D@ATL@@@@@ATL@@V12@@@@Z ; CDlgSettingToolBar::FillAvailableList
PUBLIC	??0CDlgSettingToolBar@@QAE@PAVCWnd@@@Z		; CDlgSettingToolBar::CDlgSettingToolBar
PUBLIC	?DoDataExchange@CDlgSettingToolBar@@MAEXPAVCDataExchange@@@Z ; CDlgSettingToolBar::DoDataExchange
PUBLIC	?OnInitDialog@CDlgSettingToolBar@@MAEHXZ	; CDlgSettingToolBar::OnInitDialog
PUBLIC	?OnOK@CDlgSettingToolBar@@MAEXXZ		; CDlgSettingToolBar::OnOK
PUBLIC	?OnCancel@CDlgSettingToolBar@@MAEXXZ		; CDlgSettingToolBar::OnCancel
PUBLIC	?OnApply@CDlgSettingToolBar@@IAEXXZ		; CDlgSettingToolBar::OnApply
PUBLIC	?OnSelchangeCmbAvailable@CDlgSettingToolBar@@IAEXXZ ; CDlgSettingToolBar::OnSelchangeCmbAvailable
PUBLIC	?OnSelchangeCmbShow@CDlgSettingToolBar@@IAEXXZ	; CDlgSettingToolBar::OnSelchangeCmbShow
PUBLIC	?OnBtnAdd@CDlgSettingToolBar@@IAEXXZ		; CDlgSettingToolBar::OnBtnAdd
PUBLIC	?OnBtnInit@CDlgSettingToolBar@@IAEXXZ		; CDlgSettingToolBar::OnBtnInit
PUBLIC	?OnBtnMovedown@CDlgSettingToolBar@@IAEXXZ	; CDlgSettingToolBar::OnBtnMovedown
PUBLIC	?OnBtnMovsyp@CDlgSettingToolBar@@IAEXXZ		; CDlgSettingToolBar::OnBtnMovsyp
PUBLIC	?OnBtnRemove@CDlgSettingToolBar@@IAEXXZ		; CDlgSettingToolBar::OnBtnRemove
PUBLIC	?OnBtnRemoveall@CDlgSettingToolBar@@IAEXXZ	; CDlgSettingToolBar::OnBtnRemoveall
PUBLIC	?OnBtnAddall@CDlgSettingToolBar@@IAEXXZ		; CDlgSettingToolBar::OnBtnAddall
PUBLIC	?OnDblclkListAdd@CDlgSettingToolBar@@IAEXXZ	; CDlgSettingToolBar::OnDblclkListAdd
PUBLIC	?OnDblclkListRemove@CDlgSettingToolBar@@IAEXXZ	; CDlgSettingToolBar::OnDblclkListRemove
PUBLIC	?GetThisMessageMap@CDlgSettingToolBar@@KGPBUAFX_MSGMAP@@XZ ; CDlgSettingToolBar::GetThisMessageMap
PUBLIC	?GetMessageMap@CDlgSettingToolBar@@MBEPBUAFX_MSGMAP@@XZ ; CDlgSettingToolBar::GetMessageMap
PUBLIC	??_GCDlgSettingToolBar@@UAEPAXI@Z		; CDlgSettingToolBar::`scalar deleting destructor'
PUBLIC	??$SerializeElements@H@@YGXAAVCArchive@@PAHH@Z	; SerializeElements<int>
PUBLIC	??$CompareElements@HH@@YGHPBH0@Z		; CompareElements<int,int>
PUBLIC	?_OptionsStorage@?1??__local_stdio_printf_options@@9@4_KA ; `__local_stdio_printf_options'::`2'::_OptionsStorage
PUBLIC	?_OptionsStorage@?1??__local_stdio_scanf_options@@9@4_KA ; `__local_stdio_scanf_options'::`2'::_OptionsStorage
PUBLIC	??_C@_02DPKJAMEF@?$CFd@				; `string'
PUBLIC	??_C@_00CNPNBAHC@@				; `string'
PUBLIC	??_7CListBox@@6B@				; CListBox::`vftable'
PUBLIC	??_7CComboBox@@6B@				; CComboBox::`vftable'
PUBLIC	??_C@_02DKCKIIND@?$CFs@				; `string'
PUBLIC	??_C@_0M@CBBNGGHM@PcTrMng?4dll@			; `string'
PUBLIC	??_C@_06NDLAHCHE@?$CFs?$CF08X@			; `string'
PUBLIC	??_C@_02EMFKHFLK@?$CFX@				; `string'
PUBLIC	??_R0?AVCObject@@@8				; CObject `RTTI Type Descriptor'
PUBLIC	??_R3CObject@@8					; CObject::`RTTI Class Hierarchy Descriptor'
PUBLIC	??_R2CObject@@8					; CObject::`RTTI Base Class Array'
PUBLIC	??_R1A@?0A@EA@CObject@@8			; CObject::`RTTI Base Class Descriptor at (0,-1,0,64)'
PUBLIC	??_R1A@?0A@EA@CWnd@@8				; CWnd::`RTTI Base Class Descriptor at (0,-1,0,64)'
PUBLIC	??_R0?AVCWnd@@@8				; CWnd `RTTI Type Descriptor'
PUBLIC	??_R3CWnd@@8					; CWnd::`RTTI Class Hierarchy Descriptor'
PUBLIC	??_R2CWnd@@8					; CWnd::`RTTI Base Class Array'
PUBLIC	??_R1A@?0A@EA@CCmdTarget@@8			; CCmdTarget::`RTTI Base Class Descriptor at (0,-1,0,64)'
PUBLIC	??_R0?AVCCmdTarget@@@8				; CCmdTarget `RTTI Type Descriptor'
PUBLIC	??_R3CCmdTarget@@8				; CCmdTarget::`RTTI Class Hierarchy Descriptor'
PUBLIC	??_R2CCmdTarget@@8				; CCmdTarget::`RTTI Base Class Array'
PUBLIC	??_R4CListBox@@6B@				; CListBox::`RTTI Complete Object Locator'
PUBLIC	??_R0?AVCListBox@@@8				; CListBox `RTTI Type Descriptor'
PUBLIC	??_R3CListBox@@8				; CListBox::`RTTI Class Hierarchy Descriptor'
PUBLIC	??_R2CListBox@@8				; CListBox::`RTTI Base Class Array'
PUBLIC	??_R1A@?0A@EA@CListBox@@8			; CListBox::`RTTI Base Class Descriptor at (0,-1,0,64)'
PUBLIC	??_R4CComboBox@@6B@				; CComboBox::`RTTI Complete Object Locator'
PUBLIC	??_R0?AVCComboBox@@@8				; CComboBox `RTTI Type Descriptor'
PUBLIC	??_R3CComboBox@@8				; CComboBox::`RTTI Class Hierarchy Descriptor'
PUBLIC	??_R2CComboBox@@8				; CComboBox::`RTTI Base Class Array'
PUBLIC	??_R1A@?0A@EA@CComboBox@@8			; CComboBox::`RTTI Base Class Descriptor at (0,-1,0,64)'
PUBLIC	??_R1A@?0A@EA@CDialog@@8			; CDialog::`RTTI Base Class Descriptor at (0,-1,0,64)'
PUBLIC	??_R0?AVCDialog@@@8				; CDialog `RTTI Type Descriptor'
PUBLIC	??_R3CDialog@@8					; CDialog::`RTTI Class Hierarchy Descriptor'
PUBLIC	??_R2CDialog@@8					; CDialog::`RTTI Base Class Array'
PUBLIC	??_7?$CArray@HH@@6B@				; CArray<int,int>::`vftable'
PUBLIC	??_7?$CMap@HHV?$CStringT@DV?$StrTraitMFC_DLL@DV?$ChTraitsCRT@D@ATL@@@@@ATL@@V12@@@6B@ ; CMap<int,int,ATL::CStringT<char,StrTraitMFC_DLL<char,ATL::ChTraitsCRT<char> > >,ATL::CStringT<char,StrTraitMFC_DLL<char,ATL::ChTraitsCRT<char> > > >::`vftable'
PUBLIC	??_7CDlgSettingToolBar@@6B@			; CDlgSettingToolBar::`vftable'
PUBLIC	??_C@_0BD@CMCCCNBF@HANAROIGATEMANAGER@		; `string'
PUBLIC	??_C@_06DJNEHHKG@?2Chart@			; `string'
PUBLIC	??_C@_0BI@OIIEJFGC@ChartToolBarSetting?4dat@	; `string'
PUBLIC	??_C@_05BMGBEOOC@?$CFs?2?$CFs@			; `string'
PUBLIC	??_C@_07NCHCCDCP@VERSION@			; `string'
PUBLIC	??_C@_05GKHKKECO@TOTAL@				; `string'
PUBLIC	??_C@_09NBFPFBIM@ANAL?5LIST@			; `string'
PUBLIC	??_C@_05EFFCCOAM@COUNT@				; `string'
PUBLIC	??_C@_04OGKJMPGK@?$CF02d@			; `string'
PUBLIC	??_C@_05KFJOKFOM@?$CFd?0?$CFs@			; `string'
PUBLIC	??_C@_0O@PLHPCCBM@ADDITION?5LIST@		; `string'
PUBLIC	??_C@_09BBDODMFB@USER?5LIST@			; `string'
PUBLIC	??_C@_0CE@IAFEBKKH@?G?X?$LE?g?5?G?W?$LI?q?$MA?$LK?5?$MA?L?$LJ?L?5?$LI?q?$LH?O?$LP?$KB?5?A?$LI?$MA?g?G?U?$LE@ ; `string'
PUBLIC	??_C@_0CA@JNNFKBLA@?G?X?$LE?g?5?G?W?$LI?q?$MA?$LK?5?$LL?h?A?$KG?G?R?5?$LM?v?5?$LO?x?$LN?$MA?$LE?O?$LE?Y?4@ ; `string'
PUBLIC	??_C@_0L@PPOMAPHP@?B?w?F?$KO?E?x?F?m?A?$PN@	; `string'
PUBLIC	??_C@_0BL@NGMPOBLI@?$LE?u?$MA?L?$LL?s?5?$MA?L?$LF?$LP?G?R?5?$LM?v?5?$LO?x?$LN?$MA?$LE?O?$LE?Y?4@ ; `string'
PUBLIC	??_R4CDlgSettingToolBar@@6B@			; CDlgSettingToolBar::`RTTI Complete Object Locator'
PUBLIC	??_R0?AVCDlgSettingToolBar@@@8			; CDlgSettingToolBar `RTTI Type Descriptor'
PUBLIC	??_R3CDlgSettingToolBar@@8			; CDlgSettingToolBar::`RTTI Class Hierarchy Descriptor'
PUBLIC	??_R2CDlgSettingToolBar@@8			; CDlgSettingToolBar::`RTTI Base Class Array'
PUBLIC	??_R1A@?0A@EA@CDlgSettingToolBar@@8		; CDlgSettingToolBar::`RTTI Base Class Descriptor at (0,-1,0,64)'
PUBLIC	??_R4?$CArray@HH@@6B@				; CArray<int,int>::`RTTI Complete Object Locator'
PUBLIC	??_R0?AV?$CArray@HH@@@8				; CArray<int,int> `RTTI Type Descriptor'
PUBLIC	??_R3?$CArray@HH@@8				; CArray<int,int>::`RTTI Class Hierarchy Descriptor'
PUBLIC	??_R2?$CArray@HH@@8				; CArray<int,int>::`RTTI Base Class Array'
PUBLIC	??_R1A@?0A@EA@?$CArray@HH@@8			; CArray<int,int>::`RTTI Base Class Descriptor at (0,-1,0,64)'
PUBLIC	??_R4?$CMap@HHV?$CStringT@DV?$StrTraitMFC_DLL@DV?$ChTraitsCRT@D@ATL@@@@@ATL@@V12@@@6B@ ; CMap<int,int,ATL::CStringT<char,StrTraitMFC_DLL<char,ATL::ChTraitsCRT<char> > >,ATL::CStringT<char,StrTraitMFC_DLL<char,ATL::ChTraitsCRT<char> > > >::`RTTI Complete Object Locator'
PUBLIC	??_R0?AV?$CMap@HHV?$CStringT@DV?$StrTraitMFC_DLL@DV?$ChTraitsCRT@D@ATL@@@@@ATL@@V12@@@@8 ; CMap<int,int,ATL::CStringT<char,StrTraitMFC_DLL<char,ATL::ChTraitsCRT<char> > >,ATL::CStringT<char,StrTraitMFC_DLL<char,ATL::ChTraitsCRT<char> > > > `RTTI Type Descriptor'
PUBLIC	??_R3?$CMap@HHV?$CStringT@DV?$StrTraitMFC_DLL@DV?$ChTraitsCRT@D@ATL@@@@@ATL@@V12@@@8 ; CMap<int,int,ATL::CStringT<char,StrTraitMFC_DLL<char,ATL::ChTraitsCRT<char> > >,ATL::CStringT<char,StrTraitMFC_DLL<char,ATL::ChTraitsCRT<char> > > >::`RTTI Class Hierarchy Descriptor'
PUBLIC	??_R2?$CMap@HHV?$CStringT@DV?$StrTraitMFC_DLL@DV?$ChTraitsCRT@D@ATL@@@@@ATL@@V12@@@8 ; CMap<int,int,ATL::CStringT<char,StrTraitMFC_DLL<char,ATL::ChTraitsCRT<char> > >,ATL::CStringT<char,StrTraitMFC_DLL<char,ATL::ChTraitsCRT<char> > > >::`RTTI Base Class Array'
PUBLIC	??_R1A@?0A@EA@?$CMap@HHV?$CStringT@DV?$StrTraitMFC_DLL@DV?$ChTraitsCRT@D@ATL@@@@@ATL@@V12@@@8 ; CMap<int,int,ATL::CStringT<char,StrTraitMFC_DLL<char,ATL::ChTraitsCRT<char> > >,ATL::CStringT<char,StrTraitMFC_DLL<char,ATL::ChTraitsCRT<char> > > >::`RTTI Base Class Descriptor at (0,-1,0,64)'
EXTRN	??_L@YGXPAXIIP6EX0@Z1@Z:PROC			; `eh vector constructor iterator'
EXTRN	??_M@YGXPAXIIP6EX0@Z@Z:PROC			; `eh vector destructor iterator'
EXTRN	??3@YAXPAX@Z:PROC				; operator delete
EXTRN	?__global_delete@@YAXPAXI@Z:PROC		; __global_delete
EXTRN	??_U@YAPAXI@Z:PROC				; operator new[]
EXTRN	??_V@YAXPAX@Z:PROC				; operator delete[]
EXTRN	___std_terminate:PROC
EXTRN	__imp___invalid_parameter_noinfo:PROC
EXTRN	__imp___errno:PROC
EXTRN	__imp__GetEnvironmentVariableA@12:PROC
EXTRN	__imp__GetModuleHandleA@4:PROC
EXTRN	__imp__GetPrivateProfileIntA@16:PROC
EXTRN	__imp__GetPrivateProfileStringA@24:PROC
EXTRN	__imp__WritePrivateProfileStringA@16:PROC
EXTRN	__imp__SendMessageA@16:PROC
EXTRN	__imp__EnableWindow@8:PROC
EXTRN	__imp____stdio_common_vsprintf:PROC
EXTRN	__imp____stdio_common_vsscanf:PROC
EXTRN	__imp__atoi:PROC
EXTRN	?AfxThrowMemoryException@@YGXXZ:PROC		; AfxThrowMemoryException
EXTRN	?AfxThrowInvalidArgException@@YGXXZ:PROC	; AfxThrowInvalidArgException
EXTRN	?AfxThrowArchiveException@@YGXHPBD@Z:PROC	; AfxThrowArchiveException
EXTRN	?GetRuntimeClass@CObject@@UBEPAUCRuntimeClass@@XZ:PROC ; CObject::GetRuntimeClass
EXTRN	__imp_?GetBuffer@?$CSimpleStringT@D$00@ATL@@QAEPADH@Z:PROC
EXTRN	__imp_?ReleaseBuffer@?$CSimpleStringT@D$00@ATL@@QAEXH@Z:PROC
EXTRN	__imp_??0?$CStringT@DV?$StrTraitMFC_DLL@DV?$ChTraitsCRT@D@ATL@@@@@ATL@@QAE@XZ:PROC
EXTRN	__imp_??0?$CStringT@DV?$StrTraitMFC_DLL@DV?$ChTraitsCRT@D@ATL@@@@@ATL@@QAE@ABV01@@Z:PROC
EXTRN	__imp_??0?$CStringT@DV?$StrTraitMFC_DLL@DV?$ChTraitsCRT@D@ATL@@@@@ATL@@QAE@PBD@Z:PROC
EXTRN	__imp_??1?$CStringT@DV?$StrTraitMFC_DLL@DV?$ChTraitsCRT@D@ATL@@@@@ATL@@QAE@XZ:PROC
EXTRN	__imp_??4?$CStringT@DV?$StrTraitMFC_DLL@DV?$ChTraitsCRT@D@ATL@@@@@ATL@@QAEAAV01@ABV01@@Z:PROC
EXTRN	__imp_??4?$CStringT@DV?$StrTraitMFC_DLL@DV?$ChTraitsCRT@D@ATL@@@@@ATL@@QAEAAV01@PBD@Z:PROC
EXTRN	__imp_??Y?$CStringT@DV?$StrTraitMFC_DLL@DV?$ChTraitsCRT@D@ATL@@@@@ATL@@QAEAAV01@PBD@Z:PROC
EXTRN	__imp_?Delete@?$CStringT@DV?$StrTraitMFC_DLL@DV?$ChTraitsCRT@D@ATL@@@@@ATL@@QAEHHH@Z:PROC
EXTRN	__imp_?Find@?$CStringT@DV?$StrTraitMFC_DLL@DV?$ChTraitsCRT@D@ATL@@@@@ATL@@QBEHDH@Z:PROC
EXTRN	__imp_?Left@?$CStringT@DV?$StrTraitMFC_DLL@DV?$ChTraitsCRT@D@ATL@@@@@ATL@@QBE?AV12@H@Z:PROC
EXTRN	__imp_?Format@?$CStringT@DV?$StrTraitMFC_DLL@DV?$ChTraitsCRT@D@ATL@@@@@ATL@@QAAXPBDZZ:PROC
EXTRN	??0CFileFind@@QAE@XZ:PROC			; CFileFind::CFileFind
EXTRN	??1CFileFind@@UAE@XZ:PROC			; CFileFind::~CFileFind
EXTRN	?FindFile@CFileFind@@UAEHPBDK@Z:PROC		; CFileFind::FindFile
EXTRN	?Read@CArchive@@QAEIPAXI@Z:PROC			; CArchive::Read
EXTRN	?Write@CArchive@@QAEXPBXI@Z:PROC		; CArchive::Write
EXTRN	?ReadCount@CArchive@@QAEKXZ:PROC		; CArchive::ReadCount
EXTRN	?WriteCount@CArchive@@QAEXK@Z:PROC		; CArchive::WriteCount
EXTRN	?Create@CPlex@@SGPAU1@AAPAU1@II@Z:PROC		; CPlex::Create
EXTRN	?FreeDataChain@CPlex@@QAEXXZ:PROC		; CPlex::FreeDataChain
EXTRN	??$SerializeElements@V?$CStringT@DV?$StrTraitMFC_DLL@DV?$ChTraitsCRT@D@ATL@@@@@ATL@@@@YGXAAVCArchive@@PAV?$CStringT@DV?$StrTraitMFC_DLL@DV?$ChTraitsCRT@D@ATL@@@@@ATL@@H@Z:PROC ; SerializeElements<ATL::CStringT<char,StrTraitMFC_DLL<char,ATL::ChTraitsCRT<char> > > >
EXTRN	?DDX_Control@@YGXPAVCDataExchange@@HAAVCWnd@@@Z:PROC ; DDX_Control
EXTRN	?OnCmdMsg@CCmdTarget@@UAEHIHPAXPAUAFX_CMDHANDLERINFO@@@Z:PROC ; CCmdTarget::OnCmdMsg
EXTRN	?IsInvokeAllowed@CCmdTarget@@UAEHJ@Z:PROC	; CCmdTarget::IsInvokeAllowed
EXTRN	?GetDispatchIID@CCmdTarget@@UAEHPAU_GUID@@@Z:PROC ; CCmdTarget::GetDispatchIID
EXTRN	?GetTypeInfoCount@CCmdTarget@@UAEIXZ:PROC	; CCmdTarget::GetTypeInfoCount
EXTRN	?GetTypeLibCache@CCmdTarget@@UAEPAVCTypeLibCache@@XZ:PROC ; CCmdTarget::GetTypeLibCache
EXTRN	?GetTypeLib@CCmdTarget@@UAEJKPAPAUITypeLib@@@Z:PROC ; CCmdTarget::GetTypeLib
EXTRN	?GetCommandMap@CCmdTarget@@MBEPBUAFX_OLECMDMAP@@XZ:PROC ; CCmdTarget::GetCommandMap
EXTRN	?GetDispatchMap@CCmdTarget@@MBEPBUAFX_DISPMAP@@XZ:PROC ; CCmdTarget::GetDispatchMap
EXTRN	?GetConnectionMap@CCmdTarget@@MBEPBUAFX_CONNECTIONMAP@@XZ:PROC ; CCmdTarget::GetConnectionMap
EXTRN	?GetEventSinkMap@CCmdTarget@@MBEPBUAFX_EVENTSINKMAP@@XZ:PROC ; CCmdTarget::GetEventSinkMap
EXTRN	?OnCreateAggregates@CCmdTarget@@UAEHXZ:PROC	; CCmdTarget::OnCreateAggregates
EXTRN	?GetInterfaceHook@CCmdTarget@@UAEPAUIUnknown@@PBX@Z:PROC ; CCmdTarget::GetInterfaceHook
EXTRN	?GetExtraConnectionPoints@CCmdTarget@@MAEHPAVCPtrArray@@@Z:PROC ; CCmdTarget::GetExtraConnectionPoints
EXTRN	?GetConnectionHook@CCmdTarget@@MAEPAUIConnectionPoint@@ABU_GUID@@@Z:PROC ; CCmdTarget::GetConnectionHook
EXTRN	??0CWnd@@QAE@XZ:PROC				; CWnd::CWnd
EXTRN	?PreSubclassWindow@CWnd@@UAEXXZ:PROC		; CWnd::PreSubclassWindow
EXTRN	?Create@CWnd@@UAEHPBD0KABUtagRECT@@PAV1@IPAUCCreateContext@@@Z:PROC ; CWnd::Create
EXTRN	?CreateEx@CWnd@@UAEHKPBD0KHHHHPAUHWND__@@PAUHMENU__@@PAX@Z:PROC ; CWnd::CreateEx
EXTRN	?CreateEx@CWnd@@UAEHKPBD0KABUtagRECT@@PAV1@IPAX@Z:PROC ; CWnd::CreateEx
EXTRN	?DestroyWindow@CWnd@@UAEHXZ:PROC		; CWnd::DestroyWindow
EXTRN	?PreCreateWindow@CWnd@@UAEHAAUtagCREATESTRUCTA@@@Z:PROC ; CWnd::PreCreateWindow
EXTRN	?CalcWindowRect@CWnd@@UAEXPAUtagRECT@@I@Z:PROC	; CWnd::CalcWindowRect
EXTRN	?GetDlgItem@CWnd@@QBEPAV1@H@Z:PROC		; CWnd::GetDlgItem
EXTRN	?GetMenu@CWnd@@UBEPAVCMenu@@XZ:PROC		; CWnd::GetMenu
EXTRN	?SetMenu@CWnd@@UAEHPAVCMenu@@@Z:PROC		; CWnd::SetMenu
EXTRN	?OnToolHitTest@CWnd@@UBEHVCPoint@@PAUtagTOOLINFOA@@@Z:PROC ; CWnd::OnToolHitTest
EXTRN	?EnableWindow@CWnd@@QAEHH@Z:PROC		; CWnd::EnableWindow
EXTRN	?GetScrollBarCtrl@CWnd@@UBEPAVCScrollBar@@H@Z:PROC ; CWnd::GetScrollBarCtrl
EXTRN	?WinHelpA@CWnd@@UAEXKI@Z:PROC			; CWnd::WinHelpA
EXTRN	?HtmlHelpA@CWnd@@UAEXKI@Z:PROC			; CWnd::HtmlHelpA
EXTRN	?WinHelpInternal@CWnd@@UAEXKI@Z:PROC		; CWnd::WinHelpInternal
EXTRN	?ContinueModal@CWnd@@UAEHXZ:PROC		; CWnd::ContinueModal
EXTRN	?EndModalLoop@CWnd@@UAEXH@Z:PROC		; CWnd::EndModalLoop
EXTRN	?OnDrawIconicThumbnailOrLivePreview@CWnd@@UAEXAAVCDC@@VCRect@@VCSize@@HAAH@Z:PROC ; CWnd::OnDrawIconicThumbnailOrLivePreview
EXTRN	?GetInterfaceMap@CWnd@@MBEPBUAFX_INTERFACEMAP@@XZ:PROC ; CWnd::GetInterfaceMap
EXTRN	?EnsureStdObj@CWnd@@UAEJXZ:PROC			; CWnd::EnsureStdObj
EXTRN	?get_accParent@CWnd@@UAEJPAPAUIDispatch@@@Z:PROC ; CWnd::get_accParent
EXTRN	?get_accChildCount@CWnd@@UAEJPAJ@Z:PROC		; CWnd::get_accChildCount
EXTRN	?get_accChild@CWnd@@UAEJUtagVARIANT@@PAPAUIDispatch@@@Z:PROC ; CWnd::get_accChild
EXTRN	?get_accName@CWnd@@UAEJUtagVARIANT@@PAPA_W@Z:PROC ; CWnd::get_accName
EXTRN	?get_accValue@CWnd@@UAEJUtagVARIANT@@PAPA_W@Z:PROC ; CWnd::get_accValue
EXTRN	?get_accDescription@CWnd@@UAEJUtagVARIANT@@PAPA_W@Z:PROC ; CWnd::get_accDescription
EXTRN	?get_accRole@CWnd@@UAEJUtagVARIANT@@PAU2@@Z:PROC ; CWnd::get_accRole
EXTRN	?get_accState@CWnd@@UAEJUtagVARIANT@@PAU2@@Z:PROC ; CWnd::get_accState
EXTRN	?get_accHelp@CWnd@@UAEJUtagVARIANT@@PAPA_W@Z:PROC ; CWnd::get_accHelp
EXTRN	?get_accHelpTopic@CWnd@@UAEJPAPA_WUtagVARIANT@@PAJ@Z:PROC ; CWnd::get_accHelpTopic
EXTRN	?get_accKeyboardShortcut@CWnd@@UAEJUtagVARIANT@@PAPA_W@Z:PROC ; CWnd::get_accKeyboardShortcut
EXTRN	?get_accFocus@CWnd@@UAEJPAUtagVARIANT@@@Z:PROC	; CWnd::get_accFocus
EXTRN	?get_accSelection@CWnd@@UAEJPAUtagVARIANT@@@Z:PROC ; CWnd::get_accSelection
EXTRN	?get_accDefaultAction@CWnd@@UAEJUtagVARIANT@@PAPA_W@Z:PROC ; CWnd::get_accDefaultAction
EXTRN	?accSelect@CWnd@@UAEJJUtagVARIANT@@@Z:PROC	; CWnd::accSelect
EXTRN	?accLocation@CWnd@@UAEJPAJ000UtagVARIANT@@@Z:PROC ; CWnd::accLocation
EXTRN	?accNavigate@CWnd@@UAEJJUtagVARIANT@@PAU2@@Z:PROC ; CWnd::accNavigate
EXTRN	?accHitTest@CWnd@@UAEJJJPAUtagVARIANT@@@Z:PROC	; CWnd::accHitTest
EXTRN	?accDoDefaultAction@CWnd@@UAEJUtagVARIANT@@@Z:PROC ; CWnd::accDoDefaultAction
EXTRN	?put_accName@CWnd@@UAEJUtagVARIANT@@PA_W@Z:PROC	; CWnd::put_accName
EXTRN	?put_accValue@CWnd@@UAEJUtagVARIANT@@PA_W@Z:PROC ; CWnd::put_accValue
EXTRN	?SetProxy@CWnd@@UAEJPAUIAccessibleProxy@@@Z:PROC ; CWnd::SetProxy
EXTRN	?CreateAccessibleProxy@CWnd@@UAEJIJPAJ@Z:PROC	; CWnd::CreateAccessibleProxy
EXTRN	?OnCommand@CWnd@@MAEHIJ@Z:PROC			; CWnd::OnCommand
EXTRN	?OnNotify@CWnd@@MAEHIJPAJ@Z:PROC		; CWnd::OnNotify
EXTRN	?GetSuperWndProcAddr@CWnd@@MAEPAP6GJPAUHWND__@@IIJ@ZXZ:PROC ; CWnd::GetSuperWndProcAddr
EXTRN	?PreTranslateMessage@CWnd@@UAEHPAUtagMSG@@@Z:PROC ; CWnd::PreTranslateMessage
EXTRN	?OnAmbientProperty@CWnd@@UAEHPAVCOleControlSite@@JPAUtagVARIANT@@@Z:PROC ; CWnd::OnAmbientProperty
EXTRN	?WindowProc@CWnd@@MAEJIIJ@Z:PROC		; CWnd::WindowProc
EXTRN	?OnWndMsg@CWnd@@MAEHIIJPAJ@Z:PROC		; CWnd::OnWndMsg
EXTRN	?DefWindowProcA@CWnd@@MAEJIIJ@Z:PROC		; CWnd::DefWindowProcA
EXTRN	?PostNcDestroy@CWnd@@MAEXXZ:PROC		; CWnd::PostNcDestroy
EXTRN	?OnChildNotify@CWnd@@MAEHIIJPAJ@Z:PROC		; CWnd::OnChildNotify
EXTRN	?OnTouchInputs@CWnd@@MAEHIPAUtagTOUCHINPUT@@@Z:PROC ; CWnd::OnTouchInputs
EXTRN	?OnTouchInput@CWnd@@MAEHVCPoint@@HHPAUtagTOUCHINPUT@@@Z:PROC ; CWnd::OnTouchInput
EXTRN	?GetGestureStatus@CWnd@@MAEKVCPoint@@@Z:PROC	; CWnd::GetGestureStatus
EXTRN	?OnGestureZoom@CWnd@@MAEHVCPoint@@J@Z:PROC	; CWnd::OnGestureZoom
EXTRN	?OnGesturePan@CWnd@@MAEHVCPoint@@0@Z:PROC	; CWnd::OnGesturePan
EXTRN	?OnGestureRotate@CWnd@@MAEHVCPoint@@N@Z:PROC	; CWnd::OnGestureRotate
EXTRN	?OnGestureTwoFingerTap@CWnd@@MAEHVCPoint@@@Z:PROC ; CWnd::OnGestureTwoFingerTap
EXTRN	?OnGesturePressAndTap@CWnd@@MAEHVCPoint@@J@Z:PROC ; CWnd::OnGesturePressAndTap
EXTRN	?ResizeDynamicLayout@CWnd@@MAEXXZ:PROC		; CWnd::ResizeDynamicLayout
EXTRN	?CheckAutoCenter@CWnd@@UAEHXZ:PROC		; CWnd::CheckAutoCenter
EXTRN	?IsFrameWnd@CWnd@@UBEHXZ:PROC			; CWnd::IsFrameWnd
EXTRN	?OnFinalRelease@CWnd@@UAEXXZ:PROC		; CWnd::OnFinalRelease
EXTRN	?CreateControlContainer@CWnd@@MAEHPAPAVCOleControlContainer@@@Z:PROC ; CWnd::CreateControlContainer
EXTRN	?CreateControlSite@CWnd@@MAEHPAVCOleControlContainer@@PAPAVCOleControlSite@@IABU_GUID@@@Z:PROC ; CWnd::CreateControlSite
EXTRN	?SetOccDialogInfo@CWnd@@MAEHPAU_AFX_OCC_DIALOG_INFO@@@Z:PROC ; CWnd::SetOccDialogInfo
EXTRN	?GetOccDialogInfo@CWnd@@MAEPAU_AFX_OCC_DIALOG_INFO@@XZ:PROC ; CWnd::GetOccDialogInfo
EXTRN	?GetMessageMap@CWnd@@MBEPBUAFX_MSGMAP@@XZ:PROC	; CWnd::GetMessageMap
EXTRN	?GetRuntimeClass@CDialog@@UBEPAUCRuntimeClass@@XZ:PROC ; CDialog::GetRuntimeClass
EXTRN	?Create@CDialog@@UAEHPBDPAVCWnd@@@Z:PROC	; CDialog::Create
EXTRN	?CreateIndirect@CDialog@@UAEHPBUDLGTEMPLATE@@PAVCWnd@@PAX@Z:PROC ; CDialog::CreateIndirect
EXTRN	?CreateIndirect@CDialog@@UAEHPAXPAVCWnd@@@Z:PROC ; CDialog::CreateIndirect
EXTRN	??0CDialog@@QAE@IPAVCWnd@@@Z:PROC		; CDialog::CDialog
EXTRN	?DoModal@CDialog@@UAEHXZ:PROC			; CDialog::DoModal
EXTRN	?OnInitDialog@CDialog@@UAEHXZ:PROC		; CDialog::OnInitDialog
EXTRN	?OnSetFont@CDialog@@UAEXPAVCFont@@@Z:PROC	; CDialog::OnSetFont
EXTRN	?OnOK@CDialog@@MAEXXZ:PROC			; CDialog::OnOK
EXTRN	?OnCancel@CDialog@@MAEXXZ:PROC			; CDialog::OnCancel
EXTRN	??1CDialog@@UAE@XZ:PROC				; CDialog::~CDialog
EXTRN	?PreTranslateMessage@CDialog@@UAEHPAUtagMSG@@@Z:PROC ; CDialog::PreTranslateMessage
EXTRN	?OnCmdMsg@CDialog@@UAEHIHPAXPAUAFX_CMDHANDLERINFO@@@Z:PROC ; CDialog::OnCmdMsg
EXTRN	?CheckAutoCenter@CDialog@@UAEHXZ:PROC		; CDialog::CheckAutoCenter
EXTRN	?SetOccDialogInfo@CDialog@@MAEHPAU_AFX_OCC_DIALOG_INFO@@@Z:PROC ; CDialog::SetOccDialogInfo
EXTRN	?GetOccDialogInfo@CDialog@@MAEPAU_AFX_OCC_DIALOG_INFO@@XZ:PROC ; CDialog::GetOccDialogInfo
EXTRN	?PreInitDialog@CDialog@@MAEXXZ:PROC		; CDialog::PreInitDialog
EXTRN	?GetThisMessageMap@CDialog@@KGPBUAFX_MSGMAP@@XZ:PROC ; CDialog::GetThisMessageMap
EXTRN	?GetRuntimeClass@CListBox@@UBEPAUCRuntimeClass@@XZ:PROC ; CListBox::GetRuntimeClass
EXTRN	?Create@CListBox@@UAEHKABUtagRECT@@PAVCWnd@@I@Z:PROC ; CListBox::Create
EXTRN	?DrawItem@CListBox@@UAEXPAUtagDRAWITEMSTRUCT@@@Z:PROC ; CListBox::DrawItem
EXTRN	?MeasureItem@CListBox@@UAEXPAUtagMEASUREITEMSTRUCT@@@Z:PROC ; CListBox::MeasureItem
EXTRN	?CompareItem@CListBox@@UAEHPAUtagCOMPAREITEMSTRUCT@@@Z:PROC ; CListBox::CompareItem
EXTRN	?DeleteItem@CListBox@@UAEXPAUtagDELETEITEMSTRUCT@@@Z:PROC ; CListBox::DeleteItem
EXTRN	?VKeyToItem@CListBox@@UAEHII@Z:PROC		; CListBox::VKeyToItem
EXTRN	?CharToItem@CListBox@@UAEHII@Z:PROC		; CListBox::CharToItem
EXTRN	??1CListBox@@UAE@XZ:PROC			; CListBox::~CListBox
EXTRN	?OnChildNotify@CListBox@@MAEHIIJPAJ@Z:PROC	; CListBox::OnChildNotify
EXTRN	??_ECListBox@@UAEPAXI@Z:PROC			; CListBox::`vector deleting destructor'
EXTRN	?GetRuntimeClass@CComboBox@@UBEPAUCRuntimeClass@@XZ:PROC ; CComboBox::GetRuntimeClass
EXTRN	?Create@CComboBox@@UAEHKABUtagRECT@@PAVCWnd@@I@Z:PROC ; CComboBox::Create
EXTRN	?DrawItem@CComboBox@@UAEXPAUtagDRAWITEMSTRUCT@@@Z:PROC ; CComboBox::DrawItem
EXTRN	?MeasureItem@CComboBox@@UAEXPAUtagMEASUREITEMSTRUCT@@@Z:PROC ; CComboBox::MeasureItem
EXTRN	?CompareItem@CComboBox@@UAEHPAUtagCOMPAREITEMSTRUCT@@@Z:PROC ; CComboBox::CompareItem
EXTRN	?DeleteItem@CComboBox@@UAEXPAUtagDELETEITEMSTRUCT@@@Z:PROC ; CComboBox::DeleteItem
EXTRN	??1CComboBox@@UAE@XZ:PROC			; CComboBox::~CComboBox
EXTRN	?OnChildNotify@CComboBox@@MAEHIIJPAJ@Z:PROC	; CComboBox::OnChildNotify
EXTRN	??_ECComboBox@@UAEPAXI@Z:PROC			; CComboBox::`vector deleting destructor'
EXTRN	?AfxMessageBox@@YGHPBDII@Z:PROC			; AfxMessageBox
EXTRN	??_E?$CArray@HH@@UAEPAXI@Z:PROC			; CArray<int,int>::`vector deleting destructor'
EXTRN	??_E?$CMap@HHV?$CStringT@DV?$StrTraitMFC_DLL@DV?$ChTraitsCRT@D@ATL@@@@@ATL@@V12@@@UAEPAXI@Z:PROC ; CMap<int,int,ATL::CStringT<char,StrTraitMFC_DLL<char,ATL::ChTraitsCRT<char> > >,ATL::CStringT<char,StrTraitMFC_DLL<char,ATL::ChTraitsCRT<char> > > >::`vector deleting destructor'
EXTRN	??_ECDlgSettingToolBar@@UAEPAXI@Z:PROC		; CDlgSettingToolBar::`vector deleting destructor'
EXTRN	@__security_check_cookie@4:PROC
EXTRN	___CxxFrameHandler3:PROC
EXTRN	_memcpy:PROC
EXTRN	_memmove:PROC
EXTRN	_memset:PROC
EXTRN	??_7type_info@@6B@:QWORD			; type_info::`vftable'
EXTRN	___security_cookie:DWORD
;	COMDAT ?_OptionsStorage@?1??__local_stdio_printf_options@@9@4_KA
_BSS	SEGMENT
?_OptionsStorage@?1??__local_stdio_printf_options@@9@4_KA DQ 01H DUP (?) ; `__local_stdio_printf_options'::`2'::_OptionsStorage
_BSS	ENDS
;	COMDAT ?_OptionsStorage@?1??__local_stdio_scanf_options@@9@4_KA
_BSS	SEGMENT
?_OptionsStorage@?1??__local_stdio_scanf_options@@9@4_KA DQ 01H DUP (?) ; `__local_stdio_scanf_options'::`2'::_OptionsStorage
_BSS	ENDS
;	COMDAT ??_R1A@?0A@EA@?$CMap@HHV?$CStringT@DV?$StrTraitMFC_DLL@DV?$ChTraitsCRT@D@ATL@@@@@ATL@@V12@@@8
rdata$r	SEGMENT
??_R1A@?0A@EA@?$CMap@HHV?$CStringT@DV?$StrTraitMFC_DLL@DV?$ChTraitsCRT@D@ATL@@@@@ATL@@V12@@@8 DD FLAT:??_R0?AV?$CMap@HHV?$CStringT@DV?$StrTraitMFC_DLL@DV?$ChTraitsCRT@D@ATL@@@@@ATL@@V12@@@@8 ; CMap<int,int,ATL::CStringT<char,StrTraitMFC_DLL<char,ATL::ChTraitsCRT<char> > >,ATL::CStringT<char,StrTraitMFC_DLL<char,ATL::ChTraitsCRT<char> > > >::`RTTI Base Class Descriptor at (0,-1,0,64)'
	DD	01H
	DD	00H
	DD	0ffffffffH
	DD	00H
	DD	040H
	DD	FLAT:??_R3?$CMap@HHV?$CStringT@DV?$StrTraitMFC_DLL@DV?$ChTraitsCRT@D@ATL@@@@@ATL@@V12@@@8
rdata$r	ENDS
;	COMDAT ??_R2?$CMap@HHV?$CStringT@DV?$StrTraitMFC_DLL@DV?$ChTraitsCRT@D@ATL@@@@@ATL@@V12@@@8
rdata$r	SEGMENT
??_R2?$CMap@HHV?$CStringT@DV?$StrTraitMFC_DLL@DV?$ChTraitsCRT@D@ATL@@@@@ATL@@V12@@@8 DD FLAT:??_R1A@?0A@EA@?$CMap@HHV?$CStringT@DV?$StrTraitMFC_DLL@DV?$ChTraitsCRT@D@ATL@@@@@ATL@@V12@@@8 ; CMap<int,int,ATL::CStringT<char,StrTraitMFC_DLL<char,ATL::ChTraitsCRT<char> > >,ATL::CStringT<char,StrTraitMFC_DLL<char,ATL::ChTraitsCRT<char> > > >::`RTTI Base Class Array'
	DD	FLAT:??_R1A@?0A@EA@CObject@@8
rdata$r	ENDS
;	COMDAT ??_R3?$CMap@HHV?$CStringT@DV?$StrTraitMFC_DLL@DV?$ChTraitsCRT@D@ATL@@@@@ATL@@V12@@@8
rdata$r	SEGMENT
??_R3?$CMap@HHV?$CStringT@DV?$StrTraitMFC_DLL@DV?$ChTraitsCRT@D@ATL@@@@@ATL@@V12@@@8 DD 00H ; CMap<int,int,ATL::CStringT<char,StrTraitMFC_DLL<char,ATL::ChTraitsCRT<char> > >,ATL::CStringT<char,StrTraitMFC_DLL<char,ATL::ChTraitsCRT<char> > > >::`RTTI Class Hierarchy Descriptor'
	DD	00H
	DD	02H
	DD	FLAT:??_R2?$CMap@HHV?$CStringT@DV?$StrTraitMFC_DLL@DV?$ChTraitsCRT@D@ATL@@@@@ATL@@V12@@@8
rdata$r	ENDS
;	COMDAT ??_R0?AV?$CMap@HHV?$CStringT@DV?$StrTraitMFC_DLL@DV?$ChTraitsCRT@D@ATL@@@@@ATL@@V12@@@@8
data$rs	SEGMENT
??_R0?AV?$CMap@HHV?$CStringT@DV?$StrTraitMFC_DLL@DV?$ChTraitsCRT@D@ATL@@@@@ATL@@V12@@@@8 DD FLAT:??_7type_info@@6B@ ; CMap<int,int,ATL::CStringT<char,StrTraitMFC_DLL<char,ATL::ChTraitsCRT<char> > >,ATL::CStringT<char,StrTraitMFC_DLL<char,ATL::ChTraitsCRT<char> > > > `RTTI Type Descriptor'
	DD	00H
	DB	'.?AV?$CMap@HHV?$CStringT@DV?$StrTraitMFC_DLL@DV?$ChTrait'
	DB	'sCRT@D@ATL@@@@@ATL@@V12@@@', 00H
data$rs	ENDS
;	COMDAT ??_R4?$CMap@HHV?$CStringT@DV?$StrTraitMFC_DLL@DV?$ChTraitsCRT@D@ATL@@@@@ATL@@V12@@@6B@
rdata$r	SEGMENT
??_R4?$CMap@HHV?$CStringT@DV?$StrTraitMFC_DLL@DV?$ChTraitsCRT@D@ATL@@@@@ATL@@V12@@@6B@ DD 00H ; CMap<int,int,ATL::CStringT<char,StrTraitMFC_DLL<char,ATL::ChTraitsCRT<char> > >,ATL::CStringT<char,StrTraitMFC_DLL<char,ATL::ChTraitsCRT<char> > > >::`RTTI Complete Object Locator'
	DD	00H
	DD	00H
	DD	FLAT:??_R0?AV?$CMap@HHV?$CStringT@DV?$StrTraitMFC_DLL@DV?$ChTraitsCRT@D@ATL@@@@@ATL@@V12@@@@8
	DD	FLAT:??_R3?$CMap@HHV?$CStringT@DV?$StrTraitMFC_DLL@DV?$ChTraitsCRT@D@ATL@@@@@ATL@@V12@@@8
rdata$r	ENDS
;	COMDAT ??_R1A@?0A@EA@?$CArray@HH@@8
rdata$r	SEGMENT
??_R1A@?0A@EA@?$CArray@HH@@8 DD FLAT:??_R0?AV?$CArray@HH@@@8 ; CArray<int,int>::`RTTI Base Class Descriptor at (0,-1,0,64)'
	DD	01H
	DD	00H
	DD	0ffffffffH
	DD	00H
	DD	040H
	DD	FLAT:??_R3?$CArray@HH@@8
rdata$r	ENDS
;	COMDAT ??_R2?$CArray@HH@@8
rdata$r	SEGMENT
??_R2?$CArray@HH@@8 DD FLAT:??_R1A@?0A@EA@?$CArray@HH@@8 ; CArray<int,int>::`RTTI Base Class Array'
	DD	FLAT:??_R1A@?0A@EA@CObject@@8
rdata$r	ENDS
;	COMDAT ??_R3?$CArray@HH@@8
rdata$r	SEGMENT
??_R3?$CArray@HH@@8 DD 00H				; CArray<int,int>::`RTTI Class Hierarchy Descriptor'
	DD	00H
	DD	02H
	DD	FLAT:??_R2?$CArray@HH@@8
rdata$r	ENDS
;	COMDAT ??_R0?AV?$CArray@HH@@@8
data$rs	SEGMENT
??_R0?AV?$CArray@HH@@@8 DD FLAT:??_7type_info@@6B@	; CArray<int,int> `RTTI Type Descriptor'
	DD	00H
	DB	'.?AV?$CArray@HH@@', 00H
data$rs	ENDS
;	COMDAT ??_R4?$CArray@HH@@6B@
rdata$r	SEGMENT
??_R4?$CArray@HH@@6B@ DD 00H				; CArray<int,int>::`RTTI Complete Object Locator'
	DD	00H
	DD	00H
	DD	FLAT:??_R0?AV?$CArray@HH@@@8
	DD	FLAT:??_R3?$CArray@HH@@8
rdata$r	ENDS
;	COMDAT ??_R1A@?0A@EA@CDlgSettingToolBar@@8
rdata$r	SEGMENT
??_R1A@?0A@EA@CDlgSettingToolBar@@8 DD FLAT:??_R0?AVCDlgSettingToolBar@@@8 ; CDlgSettingToolBar::`RTTI Base Class Descriptor at (0,-1,0,64)'
	DD	04H
	DD	00H
	DD	0ffffffffH
	DD	00H
	DD	040H
	DD	FLAT:??_R3CDlgSettingToolBar@@8
rdata$r	ENDS
;	COMDAT ??_R2CDlgSettingToolBar@@8
rdata$r	SEGMENT
??_R2CDlgSettingToolBar@@8 DD FLAT:??_R1A@?0A@EA@CDlgSettingToolBar@@8 ; CDlgSettingToolBar::`RTTI Base Class Array'
	DD	FLAT:??_R1A@?0A@EA@CDialog@@8
	DD	FLAT:??_R1A@?0A@EA@CWnd@@8
	DD	FLAT:??_R1A@?0A@EA@CCmdTarget@@8
	DD	FLAT:??_R1A@?0A@EA@CObject@@8
rdata$r	ENDS
;	COMDAT ??_R3CDlgSettingToolBar@@8
rdata$r	SEGMENT
??_R3CDlgSettingToolBar@@8 DD 00H			; CDlgSettingToolBar::`RTTI Class Hierarchy Descriptor'
	DD	00H
	DD	05H
	DD	FLAT:??_R2CDlgSettingToolBar@@8
rdata$r	ENDS
;	COMDAT ??_R0?AVCDlgSettingToolBar@@@8
data$rs	SEGMENT
??_R0?AVCDlgSettingToolBar@@@8 DD FLAT:??_7type_info@@6B@ ; CDlgSettingToolBar `RTTI Type Descriptor'
	DD	00H
	DB	'.?AVCDlgSettingToolBar@@', 00H
data$rs	ENDS
;	COMDAT ??_R4CDlgSettingToolBar@@6B@
rdata$r	SEGMENT
??_R4CDlgSettingToolBar@@6B@ DD 00H			; CDlgSettingToolBar::`RTTI Complete Object Locator'
	DD	00H
	DD	00H
	DD	FLAT:??_R0?AVCDlgSettingToolBar@@@8
	DD	FLAT:??_R3CDlgSettingToolBar@@8
rdata$r	ENDS
;	COMDAT ??_C@_0BL@NGMPOBLI@?$LE?u?$MA?L?$LL?s?5?$MA?L?$LF?$LP?G?R?5?$LM?v?5?$LO?x?$LN?$MA?$LE?O?$LE?Y?4@
CONST	SEGMENT
??_C@_0BL@NGMPOBLI@?$LE?u?$MA?L?$LL?s?5?$MA?L?$LF?$LP?G?R?5?$LM?v?5?$LO?x?$LN?$MA?$LE?O?$LE?Y?4@ DB 0b4H
	DB	0f5H, 0c0H, 0ccH, 0bbH, 0f3H, ' ', 0c0H, 0ccH, 0b5H, 0bfH, 0c7H
	DB	0d2H, ' ', 0bcH, 0f6H, ' ', 0beH, 0f8H, 0bdH, 0c0H, 0b4H, 0cfH
	DB	0b4H, 0d9H, '.', 00H				; `string'
CONST	ENDS
;	COMDAT ??_C@_0L@PPOMAPHP@?B?w?F?$KO?E?x?F?m?A?$PN@
CONST	SEGMENT
??_C@_0L@PPOMAPHP@?B?w?F?$KO?E?x?F?m?A?$PN@ DB 0c2H, 0f7H, 0c6H, 0aeH, 0c5H
	DB	0f8H, 0c6H, 0edH, 0c1H, 0fdH, 00H		; `string'
CONST	ENDS
;	COMDAT ??_C@_0CA@JNNFKBLA@?G?X?$LE?g?5?G?W?$LI?q?$MA?$LK?5?$LL?h?A?$KG?G?R?5?$LM?v?5?$LO?x?$LN?$MA?$LE?O?$LE?Y?4@
CONST	SEGMENT
??_C@_0CA@JNNFKBLA@?G?X?$LE?g?5?G?W?$LI?q?$MA?$LK?5?$LL?h?A?$KG?G?R?5?$LM?v?5?$LO?x?$LN?$MA?$LE?O?$LE?Y?4@ DB 0c7H
	DB	0d8H, 0b4H, 0e7H, ' ', 0c7H, 0d7H, 0b8H, 0f1H, 0c0H, 0baH, ' ', 0bbH
	DB	0e8H, 0c1H, 0a6H, 0c7H, 0d2H, ' ', 0bcH, 0f6H, ' ', 0beH, 0f8H
	DB	0bdH, 0c0H, 0b4H, 0cfH, 0b4H, 0d9H, '.', 00H	; `string'
CONST	ENDS
;	COMDAT ??_C@_0CE@IAFEBKKH@?G?X?$LE?g?5?G?W?$LI?q?$MA?$LK?5?$MA?L?$LJ?L?5?$LI?q?$LH?O?$LP?$KB?5?A?$LI?$MA?g?G?U?$LE@
CONST	SEGMENT
??_C@_0CE@IAFEBKKH@?G?X?$LE?g?5?G?W?$LI?q?$MA?$LK?5?$MA?L?$LJ?L?5?$LI?q?$LH?O?$LP?$KB?5?A?$LI?$MA?g?G?U?$LE@ DB 0c7H
	DB	0d8H, 0b4H, 0e7H, ' ', 0c7H, 0d7H, 0b8H, 0f1H, 0c0H, 0baH, ' ', 0c0H
	DB	0ccH, 0b9H, 0ccH, ' ', 0b8H, 0f1H, 0b7H, 0cfH, 0bfH, 0a1H, ' ', 0c1H
	DB	0b8H, 0c0H, 0e7H, 0c7H, 0d5H, 0b4H, 0cfH, 0b4H, 0d9H, '.', 00H ; `string'
CONST	ENDS
;	COMDAT ??_C@_09BBDODMFB@USER?5LIST@
CONST	SEGMENT
??_C@_09BBDODMFB@USER?5LIST@ DB 'USER LIST', 00H	; `string'
CONST	ENDS
;	COMDAT ??_C@_0O@PLHPCCBM@ADDITION?5LIST@
CONST	SEGMENT
??_C@_0O@PLHPCCBM@ADDITION?5LIST@ DB 'ADDITION LIST', 00H ; `string'
CONST	ENDS
;	COMDAT ??_C@_05KFJOKFOM@?$CFd?0?$CFs@
CONST	SEGMENT
??_C@_05KFJOKFOM@?$CFd?0?$CFs@ DB '%d,%s', 00H		; `string'
CONST	ENDS
;	COMDAT ??_C@_04OGKJMPGK@?$CF02d@
CONST	SEGMENT
??_C@_04OGKJMPGK@?$CF02d@ DB '%02d', 00H		; `string'
CONST	ENDS
;	COMDAT ??_C@_05EFFCCOAM@COUNT@
CONST	SEGMENT
??_C@_05EFFCCOAM@COUNT@ DB 'COUNT', 00H			; `string'
CONST	ENDS
;	COMDAT ??_C@_09NBFPFBIM@ANAL?5LIST@
CONST	SEGMENT
??_C@_09NBFPFBIM@ANAL?5LIST@ DB 'ANAL LIST', 00H	; `string'
CONST	ENDS
;	COMDAT ??_C@_05GKHKKECO@TOTAL@
CONST	SEGMENT
??_C@_05GKHKKECO@TOTAL@ DB 'TOTAL', 00H			; `string'
CONST	ENDS
;	COMDAT ??_C@_07NCHCCDCP@VERSION@
CONST	SEGMENT
??_C@_07NCHCCDCP@VERSION@ DB 'VERSION', 00H		; `string'
CONST	ENDS
;	COMDAT ??_C@_05BMGBEOOC@?$CFs?2?$CFs@
CONST	SEGMENT
??_C@_05BMGBEOOC@?$CFs?2?$CFs@ DB '%s\%s', 00H		; `string'
CONST	ENDS
;	COMDAT ??_C@_0BI@OIIEJFGC@ChartToolBarSetting?4dat@
CONST	SEGMENT
??_C@_0BI@OIIEJFGC@ChartToolBarSetting?4dat@ DB 'ChartToolBarSetting.dat', 00H ; `string'
CONST	ENDS
;	COMDAT ??_C@_06DJNEHHKG@?2Chart@
CONST	SEGMENT
??_C@_06DJNEHHKG@?2Chart@ DB '\Chart', 00H		; `string'
CONST	ENDS
;	COMDAT ??_C@_0BD@CMCCCNBF@HANAROIGATEMANAGER@
CONST	SEGMENT
??_C@_0BD@CMCCCNBF@HANAROIGATEMANAGER@ DB 'HANAROIGATEMANAGER', 00H ; `string'
CONST	ENDS
;	COMDAT ?messageMap@?1??GetThisMessageMap@CDlgSettingToolBar@@KGPBUAFX_MSGMAP@@XZ@4U3@B
CONST	SEGMENT
?messageMap@?1??GetThisMessageMap@CDlgSettingToolBar@@KGPBUAFX_MSGMAP@@XZ@4U3@B DD FLAT:?GetThisMessageMap@CDialog@@KGPBUAFX_MSGMAP@@XZ ; `CDlgSettingToolBar::GetThisMessageMap'::`2'::messageMap
	DD	FLAT:?_messageEntries@?1??GetThisMessageMap@CDlgSettingToolBar@@KGPBUAFX_MSGMAP@@XZ@4QBUAFX_MSGMAP_ENTRY@@B
CONST	ENDS
;	COMDAT ?_messageEntries@?1??GetThisMessageMap@CDlgSettingToolBar@@KGPBUAFX_MSGMAP@@XZ@4QBUAFX_MSGMAP_ENTRY@@B
CONST	SEGMENT
?_messageEntries@?1??GetThisMessageMap@CDlgSettingToolBar@@KGPBUAFX_MSGMAP@@XZ@4QBUAFX_MSGMAP_ENTRY@@B DD 0111H ; `CDlgSettingToolBar::GetThisMessageMap'::`2'::_messageEntries
	DD	00H
	DD	03H
	DD	03H
	DD	03aH
	DD	FLAT:?OnApply@CDlgSettingToolBar@@IAEXXZ
	DD	0111H
	DD	01H
	DD	01876H
	DD	01876H
	DD	03aH
	DD	FLAT:?OnSelchangeCmbAvailable@CDlgSettingToolBar@@IAEXXZ
	DD	0111H
	DD	01H
	DD	01877H
	DD	01877H
	DD	03aH
	DD	FLAT:?OnSelchangeCmbShow@CDlgSettingToolBar@@IAEXXZ
	DD	0111H
	DD	00H
	DD	02b01H
	DD	02b01H
	DD	03aH
	DD	FLAT:?OnBtnAdd@CDlgSettingToolBar@@IAEXXZ
	DD	0111H
	DD	00H
	DD	02b02H
	DD	02b02H
	DD	03aH
	DD	FLAT:?OnBtnInit@CDlgSettingToolBar@@IAEXXZ
	DD	0111H
	DD	00H
	DD	02b07H
	DD	02b07H
	DD	03aH
	DD	FLAT:?OnBtnMovedown@CDlgSettingToolBar@@IAEXXZ
	DD	0111H
	DD	00H
	DD	02b06H
	DD	02b06H
	DD	03aH
	DD	FLAT:?OnBtnMovsyp@CDlgSettingToolBar@@IAEXXZ
	DD	0111H
	DD	00H
	DD	02b03H
	DD	02b03H
	DD	03aH
	DD	FLAT:?OnBtnRemove@CDlgSettingToolBar@@IAEXXZ
	DD	0111H
	DD	00H
	DD	02b04H
	DD	02b04H
	DD	03aH
	DD	FLAT:?OnBtnRemoveall@CDlgSettingToolBar@@IAEXXZ
	DD	0111H
	DD	00H
	DD	02b08H
	DD	02b08H
	DD	03aH
	DD	FLAT:?OnBtnAddall@CDlgSettingToolBar@@IAEXXZ
	DD	0111H
	DD	02H
	DD	02b00H
	DD	02b00H
	DD	03aH
	DD	FLAT:?OnDblclkListAdd@CDlgSettingToolBar@@IAEXXZ
	DD	0111H
	DD	02H
	DD	02b05H
	DD	02b05H
	DD	03aH
	DD	FLAT:?OnDblclkListRemove@CDlgSettingToolBar@@IAEXXZ
	DD	00H
	DD	00H
	DD	00H
	DD	00H
	DD	00H
	DD	00H
CONST	ENDS
;	COMDAT ??_7CDlgSettingToolBar@@6B@
CONST	SEGMENT
??_7CDlgSettingToolBar@@6B@ DD FLAT:??_R4CDlgSettingToolBar@@6B@ ; CDlgSettingToolBar::`vftable'
	DD	FLAT:?GetRuntimeClass@CDialog@@UBEPAUCRuntimeClass@@XZ
	DD	FLAT:??_ECDlgSettingToolBar@@UAEPAXI@Z
	DD	FLAT:?Serialize@CObject@@UAEXAAVCArchive@@@Z
	DD	FLAT:?AssertValid@CObject@@UBEXXZ
	DD	FLAT:?Dump@CObject@@UBEXAAVCDumpContext@@@Z
	DD	FLAT:?OnCmdMsg@CDialog@@UAEHIHPAXPAUAFX_CMDHANDLERINFO@@@Z
	DD	FLAT:?OnFinalRelease@CWnd@@UAEXXZ
	DD	FLAT:?IsInvokeAllowed@CCmdTarget@@UAEHJ@Z
	DD	FLAT:?GetDispatchIID@CCmdTarget@@UAEHPAU_GUID@@@Z
	DD	FLAT:?GetTypeInfoCount@CCmdTarget@@UAEIXZ
	DD	FLAT:?GetTypeLibCache@CCmdTarget@@UAEPAVCTypeLibCache@@XZ
	DD	FLAT:?GetTypeLib@CCmdTarget@@UAEJKPAPAUITypeLib@@@Z
	DD	FLAT:?GetMessageMap@CDlgSettingToolBar@@MBEPBUAFX_MSGMAP@@XZ
	DD	FLAT:?GetCommandMap@CCmdTarget@@MBEPBUAFX_OLECMDMAP@@XZ
	DD	FLAT:?GetDispatchMap@CCmdTarget@@MBEPBUAFX_DISPMAP@@XZ
	DD	FLAT:?GetConnectionMap@CCmdTarget@@MBEPBUAFX_CONNECTIONMAP@@XZ
	DD	FLAT:?GetInterfaceMap@CWnd@@MBEPBUAFX_INTERFACEMAP@@XZ
	DD	FLAT:?GetEventSinkMap@CCmdTarget@@MBEPBUAFX_EVENTSINKMAP@@XZ
	DD	FLAT:?OnCreateAggregates@CCmdTarget@@UAEHXZ
	DD	FLAT:?GetInterfaceHook@CCmdTarget@@UAEPAUIUnknown@@PBX@Z
	DD	FLAT:?GetExtraConnectionPoints@CCmdTarget@@MAEHPAVCPtrArray@@@Z
	DD	FLAT:?GetConnectionHook@CCmdTarget@@MAEPAUIConnectionPoint@@ABU_GUID@@@Z
	DD	FLAT:?PreSubclassWindow@CWnd@@UAEXXZ
	DD	FLAT:?Create@CWnd@@UAEHPBD0KABUtagRECT@@PAV1@IPAUCCreateContext@@@Z
	DD	FLAT:?CreateEx@CWnd@@UAEHKPBD0KABUtagRECT@@PAV1@IPAX@Z
	DD	FLAT:?CreateEx@CWnd@@UAEHKPBD0KHHHHPAUHWND__@@PAUHMENU__@@PAX@Z
	DD	FLAT:?DestroyWindow@CWnd@@UAEHXZ
	DD	FLAT:?PreCreateWindow@CWnd@@UAEHAAUtagCREATESTRUCTA@@@Z
	DD	FLAT:?CalcWindowRect@CWnd@@UAEXPAUtagRECT@@I@Z
	DD	FLAT:?GetMenu@CWnd@@UBEPAVCMenu@@XZ
	DD	FLAT:?SetMenu@CWnd@@UAEHPAVCMenu@@@Z
	DD	FLAT:?OnToolHitTest@CWnd@@UBEHVCPoint@@PAUtagTOOLINFOA@@@Z
	DD	FLAT:?GetScrollBarCtrl@CWnd@@UBEPAVCScrollBar@@H@Z
	DD	FLAT:?WinHelpA@CWnd@@UAEXKI@Z
	DD	FLAT:?HtmlHelpA@CWnd@@UAEXKI@Z
	DD	FLAT:?WinHelpInternal@CWnd@@UAEXKI@Z
	DD	FLAT:?ContinueModal@CWnd@@UAEHXZ
	DD	FLAT:?EndModalLoop@CWnd@@UAEXH@Z
	DD	FLAT:?OnDrawIconicThumbnailOrLivePreview@CWnd@@UAEXAAVCDC@@VCRect@@VCSize@@HAAH@Z
	DD	FLAT:?EnsureStdObj@CWnd@@UAEJXZ
	DD	FLAT:?get_accParent@CWnd@@UAEJPAPAUIDispatch@@@Z
	DD	FLAT:?get_accChildCount@CWnd@@UAEJPAJ@Z
	DD	FLAT:?get_accChild@CWnd@@UAEJUtagVARIANT@@PAPAUIDispatch@@@Z
	DD	FLAT:?get_accName@CWnd@@UAEJUtagVARIANT@@PAPA_W@Z
	DD	FLAT:?get_accValue@CWnd@@UAEJUtagVARIANT@@PAPA_W@Z
	DD	FLAT:?get_accDescription@CWnd@@UAEJUtagVARIANT@@PAPA_W@Z
	DD	FLAT:?get_accRole@CWnd@@UAEJUtagVARIANT@@PAU2@@Z
	DD	FLAT:?get_accState@CWnd@@UAEJUtagVARIANT@@PAU2@@Z
	DD	FLAT:?get_accHelp@CWnd@@UAEJUtagVARIANT@@PAPA_W@Z
	DD	FLAT:?get_accHelpTopic@CWnd@@UAEJPAPA_WUtagVARIANT@@PAJ@Z
	DD	FLAT:?get_accKeyboardShortcut@CWnd@@UAEJUtagVARIANT@@PAPA_W@Z
	DD	FLAT:?get_accFocus@CWnd@@UAEJPAUtagVARIANT@@@Z
	DD	FLAT:?get_accSelection@CWnd@@UAEJPAUtagVARIANT@@@Z
	DD	FLAT:?get_accDefaultAction@CWnd@@UAEJUtagVARIANT@@PAPA_W@Z
	DD	FLAT:?accSelect@CWnd@@UAEJJUtagVARIANT@@@Z
	DD	FLAT:?accLocation@CWnd@@UAEJPAJ000UtagVARIANT@@@Z
	DD	FLAT:?accNavigate@CWnd@@UAEJJUtagVARIANT@@PAU2@@Z
	DD	FLAT:?accHitTest@CWnd@@UAEJJJPAUtagVARIANT@@@Z
	DD	FLAT:?accDoDefaultAction@CWnd@@UAEJUtagVARIANT@@@Z
	DD	FLAT:?put_accName@CWnd@@UAEJUtagVARIANT@@PA_W@Z
	DD	FLAT:?put_accValue@CWnd@@UAEJUtagVARIANT@@PA_W@Z
	DD	FLAT:?SetProxy@CWnd@@UAEJPAUIAccessibleProxy@@@Z
	DD	FLAT:?CreateAccessibleProxy@CWnd@@UAEJIJPAJ@Z
	DD	FLAT:?OnCommand@CWnd@@MAEHIJ@Z
	DD	FLAT:?OnNotify@CWnd@@MAEHIJPAJ@Z
	DD	FLAT:?GetSuperWndProcAddr@CWnd@@MAEPAP6GJPAUHWND__@@IIJ@ZXZ
	DD	FLAT:?DoDataExchange@CDlgSettingToolBar@@MAEXPAVCDataExchange@@@Z
	DD	FLAT:?BeginModalState@CWnd@@UAEXXZ
	DD	FLAT:?EndModalState@CWnd@@UAEXXZ
	DD	FLAT:?PreTranslateMessage@CDialog@@UAEHPAUtagMSG@@@Z
	DD	FLAT:?OnAmbientProperty@CWnd@@UAEHPAVCOleControlSite@@JPAUtagVARIANT@@@Z
	DD	FLAT:?WindowProc@CWnd@@MAEJIIJ@Z
	DD	FLAT:?OnWndMsg@CWnd@@MAEHIIJPAJ@Z
	DD	FLAT:?DefWindowProcA@CWnd@@MAEJIIJ@Z
	DD	FLAT:?PostNcDestroy@CWnd@@MAEXXZ
	DD	FLAT:?OnChildNotify@CWnd@@MAEHIIJPAJ@Z
	DD	FLAT:?OnTouchInputs@CWnd@@MAEHIPAUtagTOUCHINPUT@@@Z
	DD	FLAT:?OnTouchInput@CWnd@@MAEHVCPoint@@HHPAUtagTOUCHINPUT@@@Z
	DD	FLAT:?GetGestureStatus@CWnd@@MAEKVCPoint@@@Z
	DD	FLAT:?OnGestureZoom@CWnd@@MAEHVCPoint@@J@Z
	DD	FLAT:?OnGesturePan@CWnd@@MAEHVCPoint@@0@Z
	DD	FLAT:?OnGestureRotate@CWnd@@MAEHVCPoint@@N@Z
	DD	FLAT:?OnGestureTwoFingerTap@CWnd@@MAEHVCPoint@@@Z
	DD	FLAT:?OnGesturePressAndTap@CWnd@@MAEHVCPoint@@J@Z
	DD	FLAT:?ResizeDynamicLayout@CWnd@@MAEXXZ
	DD	FLAT:?CheckAutoCenter@CDialog@@UAEHXZ
	DD	FLAT:?IsFrameWnd@CWnd@@UBEHXZ
	DD	FLAT:?CreateControlContainer@CWnd@@MAEHPAPAVCOleControlContainer@@@Z
	DD	FLAT:?CreateControlSite@CWnd@@MAEHPAVCOleControlContainer@@PAPAVCOleControlSite@@IABU_GUID@@@Z
	DD	FLAT:?SetOccDialogInfo@CDialog@@MAEHPAU_AFX_OCC_DIALOG_INFO@@@Z
	DD	FLAT:?GetOccDialogInfo@CDialog@@MAEPAU_AFX_OCC_DIALOG_INFO@@XZ
	DD	FLAT:?Create@CDialog@@UAEHIPAVCWnd@@@Z
	DD	FLAT:?Create@CDialog@@UAEHPBDPAVCWnd@@@Z
	DD	FLAT:?CreateIndirect@CDialog@@UAEHPAXPAVCWnd@@@Z
	DD	FLAT:?CreateIndirect@CDialog@@UAEHPBUDLGTEMPLATE@@PAVCWnd@@PAX@Z
	DD	FLAT:?DoModal@CDialog@@UAEHXZ
	DD	FLAT:?OnInitDialog@CDlgSettingToolBar@@MAEHXZ
	DD	FLAT:?OnSetFont@CDialog@@UAEXPAVCFont@@@Z
	DD	FLAT:?OnOK@CDlgSettingToolBar@@MAEXXZ
	DD	FLAT:?OnCancel@CDlgSettingToolBar@@MAEXXZ
	DD	FLAT:?PreInitDialog@CDialog@@MAEXXZ
CONST	ENDS
;	COMDAT ??_7?$CMap@HHV?$CStringT@DV?$StrTraitMFC_DLL@DV?$ChTraitsCRT@D@ATL@@@@@ATL@@V12@@@6B@
CONST	SEGMENT
??_7?$CMap@HHV?$CStringT@DV?$StrTraitMFC_DLL@DV?$ChTraitsCRT@D@ATL@@@@@ATL@@V12@@@6B@ DD FLAT:??_R4?$CMap@HHV?$CStringT@DV?$StrTraitMFC_DLL@DV?$ChTraitsCRT@D@ATL@@@@@ATL@@V12@@@6B@ ; CMap<int,int,ATL::CStringT<char,StrTraitMFC_DLL<char,ATL::ChTraitsCRT<char> > >,ATL::CStringT<char,StrTraitMFC_DLL<char,ATL::ChTraitsCRT<char> > > >::`vftable'
	DD	FLAT:?GetRuntimeClass@CObject@@UBEPAUCRuntimeClass@@XZ
	DD	FLAT:??_E?$CMap@HHV?$CStringT@DV?$StrTraitMFC_DLL@DV?$ChTraitsCRT@D@ATL@@@@@ATL@@V12@@@UAEPAXI@Z
	DD	FLAT:?Serialize@?$CMap@HHV?$CStringT@DV?$StrTraitMFC_DLL@DV?$ChTraitsCRT@D@ATL@@@@@ATL@@V12@@@UAEXAAVCArchive@@@Z
	DD	FLAT:?AssertValid@CObject@@UBEXXZ
	DD	FLAT:?Dump@CObject@@UBEXAAVCDumpContext@@@Z
CONST	ENDS
;	COMDAT ??_7?$CArray@HH@@6B@
CONST	SEGMENT
??_7?$CArray@HH@@6B@ DD FLAT:??_R4?$CArray@HH@@6B@	; CArray<int,int>::`vftable'
	DD	FLAT:?GetRuntimeClass@CObject@@UBEPAUCRuntimeClass@@XZ
	DD	FLAT:??_E?$CArray@HH@@UAEPAXI@Z
	DD	FLAT:?Serialize@?$CArray@HH@@UAEXAAVCArchive@@@Z
	DD	FLAT:?AssertValid@CObject@@UBEXXZ
	DD	FLAT:?Dump@CObject@@UBEXAAVCDumpContext@@@Z
CONST	ENDS
;	COMDAT ??_R2CDialog@@8
rdata$r	SEGMENT
??_R2CDialog@@8 DD FLAT:??_R1A@?0A@EA@CDialog@@8	; CDialog::`RTTI Base Class Array'
	DD	FLAT:??_R1A@?0A@EA@CWnd@@8
	DD	FLAT:??_R1A@?0A@EA@CCmdTarget@@8
	DD	FLAT:??_R1A@?0A@EA@CObject@@8
rdata$r	ENDS
;	COMDAT ??_R3CDialog@@8
rdata$r	SEGMENT
??_R3CDialog@@8 DD 00H					; CDialog::`RTTI Class Hierarchy Descriptor'
	DD	00H
	DD	04H
	DD	FLAT:??_R2CDialog@@8
rdata$r	ENDS
;	COMDAT ??_R0?AVCDialog@@@8
data$rs	SEGMENT
??_R0?AVCDialog@@@8 DD FLAT:??_7type_info@@6B@		; CDialog `RTTI Type Descriptor'
	DD	00H
	DB	'.?AVCDialog@@', 00H
data$rs	ENDS
;	COMDAT ??_R1A@?0A@EA@CDialog@@8
rdata$r	SEGMENT
??_R1A@?0A@EA@CDialog@@8 DD FLAT:??_R0?AVCDialog@@@8	; CDialog::`RTTI Base Class Descriptor at (0,-1,0,64)'
	DD	03H
	DD	00H
	DD	0ffffffffH
	DD	00H
	DD	040H
	DD	FLAT:??_R3CDialog@@8
rdata$r	ENDS
;	COMDAT ??_R1A@?0A@EA@CComboBox@@8
rdata$r	SEGMENT
??_R1A@?0A@EA@CComboBox@@8 DD FLAT:??_R0?AVCComboBox@@@8 ; CComboBox::`RTTI Base Class Descriptor at (0,-1,0,64)'
	DD	03H
	DD	00H
	DD	0ffffffffH
	DD	00H
	DD	040H
	DD	FLAT:??_R3CComboBox@@8
rdata$r	ENDS
;	COMDAT ??_R2CComboBox@@8
rdata$r	SEGMENT
??_R2CComboBox@@8 DD FLAT:??_R1A@?0A@EA@CComboBox@@8	; CComboBox::`RTTI Base Class Array'
	DD	FLAT:??_R1A@?0A@EA@CWnd@@8
	DD	FLAT:??_R1A@?0A@EA@CCmdTarget@@8
	DD	FLAT:??_R1A@?0A@EA@CObject@@8
rdata$r	ENDS
;	COMDAT ??_R3CComboBox@@8
rdata$r	SEGMENT
??_R3CComboBox@@8 DD 00H				; CComboBox::`RTTI Class Hierarchy Descriptor'
	DD	00H
	DD	04H
	DD	FLAT:??_R2CComboBox@@8
rdata$r	ENDS
;	COMDAT ??_R0?AVCComboBox@@@8
data$rs	SEGMENT
??_R0?AVCComboBox@@@8 DD FLAT:??_7type_info@@6B@	; CComboBox `RTTI Type Descriptor'
	DD	00H
	DB	'.?AVCComboBox@@', 00H
data$rs	ENDS
;	COMDAT ??_R4CComboBox@@6B@
rdata$r	SEGMENT
??_R4CComboBox@@6B@ DD 00H				; CComboBox::`RTTI Complete Object Locator'
	DD	00H
	DD	00H
	DD	FLAT:??_R0?AVCComboBox@@@8
	DD	FLAT:??_R3CComboBox@@8
rdata$r	ENDS
;	COMDAT ??_R1A@?0A@EA@CListBox@@8
rdata$r	SEGMENT
??_R1A@?0A@EA@CListBox@@8 DD FLAT:??_R0?AVCListBox@@@8	; CListBox::`RTTI Base Class Descriptor at (0,-1,0,64)'
	DD	03H
	DD	00H
	DD	0ffffffffH
	DD	00H
	DD	040H
	DD	FLAT:??_R3CListBox@@8
rdata$r	ENDS
;	COMDAT ??_R2CListBox@@8
rdata$r	SEGMENT
??_R2CListBox@@8 DD FLAT:??_R1A@?0A@EA@CListBox@@8	; CListBox::`RTTI Base Class Array'
	DD	FLAT:??_R1A@?0A@EA@CWnd@@8
	DD	FLAT:??_R1A@?0A@EA@CCmdTarget@@8
	DD	FLAT:??_R1A@?0A@EA@CObject@@8
rdata$r	ENDS
;	COMDAT ??_R3CListBox@@8
rdata$r	SEGMENT
??_R3CListBox@@8 DD 00H					; CListBox::`RTTI Class Hierarchy Descriptor'
	DD	00H
	DD	04H
	DD	FLAT:??_R2CListBox@@8
rdata$r	ENDS
;	COMDAT ??_R0?AVCListBox@@@8
data$rs	SEGMENT
??_R0?AVCListBox@@@8 DD FLAT:??_7type_info@@6B@		; CListBox `RTTI Type Descriptor'
	DD	00H
	DB	'.?AVCListBox@@', 00H
data$rs	ENDS
;	COMDAT ??_R4CListBox@@6B@
rdata$r	SEGMENT
??_R4CListBox@@6B@ DD 00H				; CListBox::`RTTI Complete Object Locator'
	DD	00H
	DD	00H
	DD	FLAT:??_R0?AVCListBox@@@8
	DD	FLAT:??_R3CListBox@@8
rdata$r	ENDS
;	COMDAT ??_R2CCmdTarget@@8
rdata$r	SEGMENT
??_R2CCmdTarget@@8 DD FLAT:??_R1A@?0A@EA@CCmdTarget@@8	; CCmdTarget::`RTTI Base Class Array'
	DD	FLAT:??_R1A@?0A@EA@CObject@@8
rdata$r	ENDS
;	COMDAT ??_R3CCmdTarget@@8
rdata$r	SEGMENT
??_R3CCmdTarget@@8 DD 00H				; CCmdTarget::`RTTI Class Hierarchy Descriptor'
	DD	00H
	DD	02H
	DD	FLAT:??_R2CCmdTarget@@8
rdata$r	ENDS
;	COMDAT ??_R0?AVCCmdTarget@@@8
data$rs	SEGMENT
??_R0?AVCCmdTarget@@@8 DD FLAT:??_7type_info@@6B@	; CCmdTarget `RTTI Type Descriptor'
	DD	00H
	DB	'.?AVCCmdTarget@@', 00H
data$rs	ENDS
;	COMDAT ??_R1A@?0A@EA@CCmdTarget@@8
rdata$r	SEGMENT
??_R1A@?0A@EA@CCmdTarget@@8 DD FLAT:??_R0?AVCCmdTarget@@@8 ; CCmdTarget::`RTTI Base Class Descriptor at (0,-1,0,64)'
	DD	01H
	DD	00H
	DD	0ffffffffH
	DD	00H
	DD	040H
	DD	FLAT:??_R3CCmdTarget@@8
rdata$r	ENDS
;	COMDAT ??_R2CWnd@@8
rdata$r	SEGMENT
??_R2CWnd@@8 DD	FLAT:??_R1A@?0A@EA@CWnd@@8		; CWnd::`RTTI Base Class Array'
	DD	FLAT:??_R1A@?0A@EA@CCmdTarget@@8
	DD	FLAT:??_R1A@?0A@EA@CObject@@8
rdata$r	ENDS
;	COMDAT ??_R3CWnd@@8
rdata$r	SEGMENT
??_R3CWnd@@8 DD	00H					; CWnd::`RTTI Class Hierarchy Descriptor'
	DD	00H
	DD	03H
	DD	FLAT:??_R2CWnd@@8
rdata$r	ENDS
;	COMDAT ??_R0?AVCWnd@@@8
data$rs	SEGMENT
??_R0?AVCWnd@@@8 DD FLAT:??_7type_info@@6B@		; CWnd `RTTI Type Descriptor'
	DD	00H
	DB	'.?AVCWnd@@', 00H
data$rs	ENDS
;	COMDAT ??_R1A@?0A@EA@CWnd@@8
rdata$r	SEGMENT
??_R1A@?0A@EA@CWnd@@8 DD FLAT:??_R0?AVCWnd@@@8		; CWnd::`RTTI Base Class Descriptor at (0,-1,0,64)'
	DD	02H
	DD	00H
	DD	0ffffffffH
	DD	00H
	DD	040H
	DD	FLAT:??_R3CWnd@@8
rdata$r	ENDS
;	COMDAT ??_R1A@?0A@EA@CObject@@8
rdata$r	SEGMENT
??_R1A@?0A@EA@CObject@@8 DD FLAT:??_R0?AVCObject@@@8	; CObject::`RTTI Base Class Descriptor at (0,-1,0,64)'
	DD	00H
	DD	00H
	DD	0ffffffffH
	DD	00H
	DD	040H
	DD	FLAT:??_R3CObject@@8
rdata$r	ENDS
;	COMDAT ??_R2CObject@@8
rdata$r	SEGMENT
??_R2CObject@@8 DD FLAT:??_R1A@?0A@EA@CObject@@8	; CObject::`RTTI Base Class Array'
rdata$r	ENDS
;	COMDAT ??_R3CObject@@8
rdata$r	SEGMENT
??_R3CObject@@8 DD 00H					; CObject::`RTTI Class Hierarchy Descriptor'
	DD	00H
	DD	01H
	DD	FLAT:??_R2CObject@@8
rdata$r	ENDS
;	COMDAT ??_R0?AVCObject@@@8
data$rs	SEGMENT
??_R0?AVCObject@@@8 DD FLAT:??_7type_info@@6B@		; CObject `RTTI Type Descriptor'
	DD	00H
	DB	'.?AVCObject@@', 00H
data$rs	ENDS
;	COMDAT ??_C@_02EMFKHFLK@?$CFX@
CONST	SEGMENT
??_C@_02EMFKHFLK@?$CFX@ DB '%X', 00H			; `string'
CONST	ENDS
;	COMDAT ??_C@_06NDLAHCHE@?$CFs?$CF08X@
CONST	SEGMENT
??_C@_06NDLAHCHE@?$CFs?$CF08X@ DB '%s%08X', 00H		; `string'
CONST	ENDS
;	COMDAT ??_C@_0M@CBBNGGHM@PcTrMng?4dll@
CONST	SEGMENT
??_C@_0M@CBBNGGHM@PcTrMng?4dll@ DB 'PcTrMng.dll', 00H	; `string'
CONST	ENDS
;	COMDAT ??_C@_02DKCKIIND@?$CFs@
CONST	SEGMENT
??_C@_02DKCKIIND@?$CFs@ DB '%s', 00H			; `string'
CONST	ENDS
;	COMDAT ??_7CComboBox@@6B@
CONST	SEGMENT
??_7CComboBox@@6B@ DD FLAT:??_R4CComboBox@@6B@		; CComboBox::`vftable'
	DD	FLAT:?GetRuntimeClass@CComboBox@@UBEPAUCRuntimeClass@@XZ
	DD	FLAT:??_ECComboBox@@UAEPAXI@Z
	DD	FLAT:?Serialize@CObject@@UAEXAAVCArchive@@@Z
	DD	FLAT:?AssertValid@CObject@@UBEXXZ
	DD	FLAT:?Dump@CObject@@UBEXAAVCDumpContext@@@Z
	DD	FLAT:?OnCmdMsg@CCmdTarget@@UAEHIHPAXPAUAFX_CMDHANDLERINFO@@@Z
	DD	FLAT:?OnFinalRelease@CWnd@@UAEXXZ
	DD	FLAT:?IsInvokeAllowed@CCmdTarget@@UAEHJ@Z
	DD	FLAT:?GetDispatchIID@CCmdTarget@@UAEHPAU_GUID@@@Z
	DD	FLAT:?GetTypeInfoCount@CCmdTarget@@UAEIXZ
	DD	FLAT:?GetTypeLibCache@CCmdTarget@@UAEPAVCTypeLibCache@@XZ
	DD	FLAT:?GetTypeLib@CCmdTarget@@UAEJKPAPAUITypeLib@@@Z
	DD	FLAT:?GetMessageMap@CWnd@@MBEPBUAFX_MSGMAP@@XZ
	DD	FLAT:?GetCommandMap@CCmdTarget@@MBEPBUAFX_OLECMDMAP@@XZ
	DD	FLAT:?GetDispatchMap@CCmdTarget@@MBEPBUAFX_DISPMAP@@XZ
	DD	FLAT:?GetConnectionMap@CCmdTarget@@MBEPBUAFX_CONNECTIONMAP@@XZ
	DD	FLAT:?GetInterfaceMap@CWnd@@MBEPBUAFX_INTERFACEMAP@@XZ
	DD	FLAT:?GetEventSinkMap@CCmdTarget@@MBEPBUAFX_EVENTSINKMAP@@XZ
	DD	FLAT:?OnCreateAggregates@CCmdTarget@@UAEHXZ
	DD	FLAT:?GetInterfaceHook@CCmdTarget@@UAEPAUIUnknown@@PBX@Z
	DD	FLAT:?GetExtraConnectionPoints@CCmdTarget@@MAEHPAVCPtrArray@@@Z
	DD	FLAT:?GetConnectionHook@CCmdTarget@@MAEPAUIConnectionPoint@@ABU_GUID@@@Z
	DD	FLAT:?PreSubclassWindow@CWnd@@UAEXXZ
	DD	FLAT:?Create@CWnd@@UAEHPBD0KABUtagRECT@@PAV1@IPAUCCreateContext@@@Z
	DD	FLAT:?CreateEx@CWnd@@UAEHKPBD0KABUtagRECT@@PAV1@IPAX@Z
	DD	FLAT:?CreateEx@CWnd@@UAEHKPBD0KHHHHPAUHWND__@@PAUHMENU__@@PAX@Z
	DD	FLAT:?DestroyWindow@CWnd@@UAEHXZ
	DD	FLAT:?PreCreateWindow@CWnd@@UAEHAAUtagCREATESTRUCTA@@@Z
	DD	FLAT:?CalcWindowRect@CWnd@@UAEXPAUtagRECT@@I@Z
	DD	FLAT:?GetMenu@CWnd@@UBEPAVCMenu@@XZ
	DD	FLAT:?SetMenu@CWnd@@UAEHPAVCMenu@@@Z
	DD	FLAT:?OnToolHitTest@CWnd@@UBEHVCPoint@@PAUtagTOOLINFOA@@@Z
	DD	FLAT:?GetScrollBarCtrl@CWnd@@UBEPAVCScrollBar@@H@Z
	DD	FLAT:?WinHelpA@CWnd@@UAEXKI@Z
	DD	FLAT:?HtmlHelpA@CWnd@@UAEXKI@Z
	DD	FLAT:?WinHelpInternal@CWnd@@UAEXKI@Z
	DD	FLAT:?ContinueModal@CWnd@@UAEHXZ
	DD	FLAT:?EndModalLoop@CWnd@@UAEXH@Z
	DD	FLAT:?OnDrawIconicThumbnailOrLivePreview@CWnd@@UAEXAAVCDC@@VCRect@@VCSize@@HAAH@Z
	DD	FLAT:?EnsureStdObj@CWnd@@UAEJXZ
	DD	FLAT:?get_accParent@CWnd@@UAEJPAPAUIDispatch@@@Z
	DD	FLAT:?get_accChildCount@CWnd@@UAEJPAJ@Z
	DD	FLAT:?get_accChild@CWnd@@UAEJUtagVARIANT@@PAPAUIDispatch@@@Z
	DD	FLAT:?get_accName@CWnd@@UAEJUtagVARIANT@@PAPA_W@Z
	DD	FLAT:?get_accValue@CWnd@@UAEJUtagVARIANT@@PAPA_W@Z
	DD	FLAT:?get_accDescription@CWnd@@UAEJUtagVARIANT@@PAPA_W@Z
	DD	FLAT:?get_accRole@CWnd@@UAEJUtagVARIANT@@PAU2@@Z
	DD	FLAT:?get_accState@CWnd@@UAEJUtagVARIANT@@PAU2@@Z
	DD	FLAT:?get_accHelp@CWnd@@UAEJUtagVARIANT@@PAPA_W@Z
	DD	FLAT:?get_accHelpTopic@CWnd@@UAEJPAPA_WUtagVARIANT@@PAJ@Z
	DD	FLAT:?get_accKeyboardShortcut@CWnd@@UAEJUtagVARIANT@@PAPA_W@Z
	DD	FLAT:?get_accFocus@CWnd@@UAEJPAUtagVARIANT@@@Z
	DD	FLAT:?get_accSelection@CWnd@@UAEJPAUtagVARIANT@@@Z
	DD	FLAT:?get_accDefaultAction@CWnd@@UAEJUtagVARIANT@@PAPA_W@Z
	DD	FLAT:?accSelect@CWnd@@UAEJJUtagVARIANT@@@Z
	DD	FLAT:?accLocation@CWnd@@UAEJPAJ000UtagVARIANT@@@Z
	DD	FLAT:?accNavigate@CWnd@@UAEJJUtagVARIANT@@PAU2@@Z
	DD	FLAT:?accHitTest@CWnd@@UAEJJJPAUtagVARIANT@@@Z
	DD	FLAT:?accDoDefaultAction@CWnd@@UAEJUtagVARIANT@@@Z
	DD	FLAT:?put_accName@CWnd@@UAEJUtagVARIANT@@PA_W@Z
	DD	FLAT:?put_accValue@CWnd@@UAEJUtagVARIANT@@PA_W@Z
	DD	FLAT:?SetProxy@CWnd@@UAEJPAUIAccessibleProxy@@@Z
	DD	FLAT:?CreateAccessibleProxy@CWnd@@UAEJIJPAJ@Z
	DD	FLAT:?OnCommand@CWnd@@MAEHIJ@Z
	DD	FLAT:?OnNotify@CWnd@@MAEHIJPAJ@Z
	DD	FLAT:?GetSuperWndProcAddr@CWnd@@MAEPAP6GJPAUHWND__@@IIJ@ZXZ
	DD	FLAT:?DoDataExchange@CWnd@@MAEXPAVCDataExchange@@@Z
	DD	FLAT:?BeginModalState@CWnd@@UAEXXZ
	DD	FLAT:?EndModalState@CWnd@@UAEXXZ
	DD	FLAT:?PreTranslateMessage@CWnd@@UAEHPAUtagMSG@@@Z
	DD	FLAT:?OnAmbientProperty@CWnd@@UAEHPAVCOleControlSite@@JPAUtagVARIANT@@@Z
	DD	FLAT:?WindowProc@CWnd@@MAEJIIJ@Z
	DD	FLAT:?OnWndMsg@CWnd@@MAEHIIJPAJ@Z
	DD	FLAT:?DefWindowProcA@CWnd@@MAEJIIJ@Z
	DD	FLAT:?PostNcDestroy@CWnd@@MAEXXZ
	DD	FLAT:?OnChildNotify@CComboBox@@MAEHIIJPAJ@Z
	DD	FLAT:?OnTouchInputs@CWnd@@MAEHIPAUtagTOUCHINPUT@@@Z
	DD	FLAT:?OnTouchInput@CWnd@@MAEHVCPoint@@HHPAUtagTOUCHINPUT@@@Z
	DD	FLAT:?GetGestureStatus@CWnd@@MAEKVCPoint@@@Z
	DD	FLAT:?OnGestureZoom@CWnd@@MAEHVCPoint@@J@Z
	DD	FLAT:?OnGesturePan@CWnd@@MAEHVCPoint@@0@Z
	DD	FLAT:?OnGestureRotate@CWnd@@MAEHVCPoint@@N@Z
	DD	FLAT:?OnGestureTwoFingerTap@CWnd@@MAEHVCPoint@@@Z
	DD	FLAT:?OnGesturePressAndTap@CWnd@@MAEHVCPoint@@J@Z
	DD	FLAT:?ResizeDynamicLayout@CWnd@@MAEXXZ
	DD	FLAT:?CheckAutoCenter@CWnd@@UAEHXZ
	DD	FLAT:?IsFrameWnd@CWnd@@UBEHXZ
	DD	FLAT:?CreateControlContainer@CWnd@@MAEHPAPAVCOleControlContainer@@@Z
	DD	FLAT:?CreateControlSite@CWnd@@MAEHPAVCOleControlContainer@@PAPAVCOleControlSite@@IABU_GUID@@@Z
	DD	FLAT:?SetOccDialogInfo@CWnd@@MAEHPAU_AFX_OCC_DIALOG_INFO@@@Z
	DD	FLAT:?GetOccDialogInfo@CWnd@@MAEPAU_AFX_OCC_DIALOG_INFO@@XZ
	DD	FLAT:?Create@CComboBox@@UAEHKABUtagRECT@@PAVCWnd@@I@Z
	DD	FLAT:?DrawItem@CComboBox@@UAEXPAUtagDRAWITEMSTRUCT@@@Z
	DD	FLAT:?MeasureItem@CComboBox@@UAEXPAUtagMEASUREITEMSTRUCT@@@Z
	DD	FLAT:?CompareItem@CComboBox@@UAEHPAUtagCOMPAREITEMSTRUCT@@@Z
	DD	FLAT:?DeleteItem@CComboBox@@UAEXPAUtagDELETEITEMSTRUCT@@@Z
CONST	ENDS
;	COMDAT ??_7CListBox@@6B@
CONST	SEGMENT
??_7CListBox@@6B@ DD FLAT:??_R4CListBox@@6B@		; CListBox::`vftable'
	DD	FLAT:?GetRuntimeClass@CListBox@@UBEPAUCRuntimeClass@@XZ
	DD	FLAT:??_ECListBox@@UAEPAXI@Z
	DD	FLAT:?Serialize@CObject@@UAEXAAVCArchive@@@Z
	DD	FLAT:?AssertValid@CObject@@UBEXXZ
	DD	FLAT:?Dump@CObject@@UBEXAAVCDumpContext@@@Z
	DD	FLAT:?OnCmdMsg@CCmdTarget@@UAEHIHPAXPAUAFX_CMDHANDLERINFO@@@Z
	DD	FLAT:?OnFinalRelease@CWnd@@UAEXXZ
	DD	FLAT:?IsInvokeAllowed@CCmdTarget@@UAEHJ@Z
	DD	FLAT:?GetDispatchIID@CCmdTarget@@UAEHPAU_GUID@@@Z
	DD	FLAT:?GetTypeInfoCount@CCmdTarget@@UAEIXZ
	DD	FLAT:?GetTypeLibCache@CCmdTarget@@UAEPAVCTypeLibCache@@XZ
	DD	FLAT:?GetTypeLib@CCmdTarget@@UAEJKPAPAUITypeLib@@@Z
	DD	FLAT:?GetMessageMap@CWnd@@MBEPBUAFX_MSGMAP@@XZ
	DD	FLAT:?GetCommandMap@CCmdTarget@@MBEPBUAFX_OLECMDMAP@@XZ
	DD	FLAT:?GetDispatchMap@CCmdTarget@@MBEPBUAFX_DISPMAP@@XZ
	DD	FLAT:?GetConnectionMap@CCmdTarget@@MBEPBUAFX_CONNECTIONMAP@@XZ
	DD	FLAT:?GetInterfaceMap@CWnd@@MBEPBUAFX_INTERFACEMAP@@XZ
	DD	FLAT:?GetEventSinkMap@CCmdTarget@@MBEPBUAFX_EVENTSINKMAP@@XZ
	DD	FLAT:?OnCreateAggregates@CCmdTarget@@UAEHXZ
	DD	FLAT:?GetInterfaceHook@CCmdTarget@@UAEPAUIUnknown@@PBX@Z
	DD	FLAT:?GetExtraConnectionPoints@CCmdTarget@@MAEHPAVCPtrArray@@@Z
	DD	FLAT:?GetConnectionHook@CCmdTarget@@MAEPAUIConnectionPoint@@ABU_GUID@@@Z
	DD	FLAT:?PreSubclassWindow@CWnd@@UAEXXZ
	DD	FLAT:?Create@CWnd@@UAEHPBD0KABUtagRECT@@PAV1@IPAUCCreateContext@@@Z
	DD	FLAT:?CreateEx@CWnd@@UAEHKPBD0KABUtagRECT@@PAV1@IPAX@Z
	DD	FLAT:?CreateEx@CWnd@@UAEHKPBD0KHHHHPAUHWND__@@PAUHMENU__@@PAX@Z
	DD	FLAT:?DestroyWindow@CWnd@@UAEHXZ
	DD	FLAT:?PreCreateWindow@CWnd@@UAEHAAUtagCREATESTRUCTA@@@Z
	DD	FLAT:?CalcWindowRect@CWnd@@UAEXPAUtagRECT@@I@Z
	DD	FLAT:?GetMenu@CWnd@@UBEPAVCMenu@@XZ
	DD	FLAT:?SetMenu@CWnd@@UAEHPAVCMenu@@@Z
	DD	FLAT:?OnToolHitTest@CWnd@@UBEHVCPoint@@PAUtagTOOLINFOA@@@Z
	DD	FLAT:?GetScrollBarCtrl@CWnd@@UBEPAVCScrollBar@@H@Z
	DD	FLAT:?WinHelpA@CWnd@@UAEXKI@Z
	DD	FLAT:?HtmlHelpA@CWnd@@UAEXKI@Z
	DD	FLAT:?WinHelpInternal@CWnd@@UAEXKI@Z
	DD	FLAT:?ContinueModal@CWnd@@UAEHXZ
	DD	FLAT:?EndModalLoop@CWnd@@UAEXH@Z
	DD	FLAT:?OnDrawIconicThumbnailOrLivePreview@CWnd@@UAEXAAVCDC@@VCRect@@VCSize@@HAAH@Z
	DD	FLAT:?EnsureStdObj@CWnd@@UAEJXZ
	DD	FLAT:?get_accParent@CWnd@@UAEJPAPAUIDispatch@@@Z
	DD	FLAT:?get_accChildCount@CWnd@@UAEJPAJ@Z
	DD	FLAT:?get_accChild@CWnd@@UAEJUtagVARIANT@@PAPAUIDispatch@@@Z
	DD	FLAT:?get_accName@CWnd@@UAEJUtagVARIANT@@PAPA_W@Z
	DD	FLAT:?get_accValue@CWnd@@UAEJUtagVARIANT@@PAPA_W@Z
	DD	FLAT:?get_accDescription@CWnd@@UAEJUtagVARIANT@@PAPA_W@Z
	DD	FLAT:?get_accRole@CWnd@@UAEJUtagVARIANT@@PAU2@@Z
	DD	FLAT:?get_accState@CWnd@@UAEJUtagVARIANT@@PAU2@@Z
	DD	FLAT:?get_accHelp@CWnd@@UAEJUtagVARIANT@@PAPA_W@Z
	DD	FLAT:?get_accHelpTopic@CWnd@@UAEJPAPA_WUtagVARIANT@@PAJ@Z
	DD	FLAT:?get_accKeyboardShortcut@CWnd@@UAEJUtagVARIANT@@PAPA_W@Z
	DD	FLAT:?get_accFocus@CWnd@@UAEJPAUtagVARIANT@@@Z
	DD	FLAT:?get_accSelection@CWnd@@UAEJPAUtagVARIANT@@@Z
	DD	FLAT:?get_accDefaultAction@CWnd@@UAEJUtagVARIANT@@PAPA_W@Z
	DD	FLAT:?accSelect@CWnd@@UAEJJUtagVARIANT@@@Z
	DD	FLAT:?accLocation@CWnd@@UAEJPAJ000UtagVARIANT@@@Z
	DD	FLAT:?accNavigate@CWnd@@UAEJJUtagVARIANT@@PAU2@@Z
	DD	FLAT:?accHitTest@CWnd@@UAEJJJPAUtagVARIANT@@@Z
	DD	FLAT:?accDoDefaultAction@CWnd@@UAEJUtagVARIANT@@@Z
	DD	FLAT:?put_accName@CWnd@@UAEJUtagVARIANT@@PA_W@Z
	DD	FLAT:?put_accValue@CWnd@@UAEJUtagVARIANT@@PA_W@Z
	DD	FLAT:?SetProxy@CWnd@@UAEJPAUIAccessibleProxy@@@Z
	DD	FLAT:?CreateAccessibleProxy@CWnd@@UAEJIJPAJ@Z
	DD	FLAT:?OnCommand@CWnd@@MAEHIJ@Z
	DD	FLAT:?OnNotify@CWnd@@MAEHIJPAJ@Z
	DD	FLAT:?GetSuperWndProcAddr@CWnd@@MAEPAP6GJPAUHWND__@@IIJ@ZXZ
	DD	FLAT:?DoDataExchange@CWnd@@MAEXPAVCDataExchange@@@Z
	DD	FLAT:?BeginModalState@CWnd@@UAEXXZ
	DD	FLAT:?EndModalState@CWnd@@UAEXXZ
	DD	FLAT:?PreTranslateMessage@CWnd@@UAEHPAUtagMSG@@@Z
	DD	FLAT:?OnAmbientProperty@CWnd@@UAEHPAVCOleControlSite@@JPAUtagVARIANT@@@Z
	DD	FLAT:?WindowProc@CWnd@@MAEJIIJ@Z
	DD	FLAT:?OnWndMsg@CWnd@@MAEHIIJPAJ@Z
	DD	FLAT:?DefWindowProcA@CWnd@@MAEJIIJ@Z
	DD	FLAT:?PostNcDestroy@CWnd@@MAEXXZ
	DD	FLAT:?OnChildNotify@CListBox@@MAEHIIJPAJ@Z
	DD	FLAT:?OnTouchInputs@CWnd@@MAEHIPAUtagTOUCHINPUT@@@Z
	DD	FLAT:?OnTouchInput@CWnd@@MAEHVCPoint@@HHPAUtagTOUCHINPUT@@@Z
	DD	FLAT:?GetGestureStatus@CWnd@@MAEKVCPoint@@@Z
	DD	FLAT:?OnGestureZoom@CWnd@@MAEHVCPoint@@J@Z
	DD	FLAT:?OnGesturePan@CWnd@@MAEHVCPoint@@0@Z
	DD	FLAT:?OnGestureRotate@CWnd@@MAEHVCPoint@@N@Z
	DD	FLAT:?OnGestureTwoFingerTap@CWnd@@MAEHVCPoint@@@Z
	DD	FLAT:?OnGesturePressAndTap@CWnd@@MAEHVCPoint@@J@Z
	DD	FLAT:?ResizeDynamicLayout@CWnd@@MAEXXZ
	DD	FLAT:?CheckAutoCenter@CWnd@@UAEHXZ
	DD	FLAT:?IsFrameWnd@CWnd@@UBEHXZ
	DD	FLAT:?CreateControlContainer@CWnd@@MAEHPAPAVCOleControlContainer@@@Z
	DD	FLAT:?CreateControlSite@CWnd@@MAEHPAVCOleControlContainer@@PAPAVCOleControlSite@@IABU_GUID@@@Z
	DD	FLAT:?SetOccDialogInfo@CWnd@@MAEHPAU_AFX_OCC_DIALOG_INFO@@@Z
	DD	FLAT:?GetOccDialogInfo@CWnd@@MAEPAU_AFX_OCC_DIALOG_INFO@@XZ
	DD	FLAT:?Create@CListBox@@UAEHKABUtagRECT@@PAVCWnd@@I@Z
	DD	FLAT:?DrawItem@CListBox@@UAEXPAUtagDRAWITEMSTRUCT@@@Z
	DD	FLAT:?MeasureItem@CListBox@@UAEXPAUtagMEASUREITEMSTRUCT@@@Z
	DD	FLAT:?CompareItem@CListBox@@UAEHPAUtagCOMPAREITEMSTRUCT@@@Z
	DD	FLAT:?DeleteItem@CListBox@@UAEXPAUtagDELETEITEMSTRUCT@@@Z
	DD	FLAT:?VKeyToItem@CListBox@@UAEHII@Z
	DD	FLAT:?CharToItem@CListBox@@UAEHII@Z
CONST	ENDS
;	COMDAT ??_C@_00CNPNBAHC@@
CONST	SEGMENT
??_C@_00CNPNBAHC@@ DB 00H				; `string'
CONST	ENDS
;	COMDAT ??_C@_02DPKJAMEF@?$CFd@
CONST	SEGMENT
??_C@_02DPKJAMEF@?$CFd@ DB '%d', 00H			; `string'
CONST	ENDS
;	COMDAT xdata$x
xdata$x	SEGMENT
__unwindtable$??_GCDlgSettingToolBar@@UAEPAXI@Z DD 0ffffffffH
	DD	FLAT:___std_terminate
	DD	0ffffffffH
	DD	FLAT:___std_terminate
	DD	0ffffffffH
	DD	FLAT:___std_terminate
__ehfuncinfo$??_GCDlgSettingToolBar@@UAEPAXI@Z DD 019930522H
	DD	03H
	DD	FLAT:__unwindtable$??_GCDlgSettingToolBar@@UAEPAXI@Z
	DD	2 DUP(00H)
	DD	2 DUP(00H)
	DD	00H
	DD	05H
xdata$x	ENDS
;	COMDAT xdata$x
xdata$x	SEGMENT
__unwindtable$??1CDlgSettingToolBar@@UAE@XZ DD 0ffffffffH
	DD	FLAT:___std_terminate
	DD	0ffffffffH
	DD	FLAT:___std_terminate
	DD	0ffffffffH
	DD	FLAT:___std_terminate
__ehfuncinfo$??1CDlgSettingToolBar@@UAE@XZ DD 019930522H
	DD	03H
	DD	FLAT:__unwindtable$??1CDlgSettingToolBar@@UAE@XZ
	DD	2 DUP(00H)
	DD	2 DUP(00H)
	DD	00H
	DD	05H
xdata$x	ENDS
;	COMDAT xdata$x
xdata$x	SEGMENT
__unwindtable$?OnBtnAddall@CDlgSettingToolBar@@IAEXXZ DD 0ffffffffH
	DD	FLAT:__unwindfunclet$?OnBtnAddall@CDlgSettingToolBar@@IAEXXZ$0
	DD	00H
	DD	FLAT:__unwindfunclet$?OnBtnAddall@CDlgSettingToolBar@@IAEXXZ$4
	DD	00H
	DD	FLAT:__unwindfunclet$?OnBtnAddall@CDlgSettingToolBar@@IAEXXZ$5
__ehfuncinfo$?OnBtnAddall@CDlgSettingToolBar@@IAEXXZ DD 019930522H
	DD	03H
	DD	FLAT:__unwindtable$?OnBtnAddall@CDlgSettingToolBar@@IAEXXZ
	DD	2 DUP(00H)
	DD	2 DUP(00H)
	DD	00H
	DD	01H
xdata$x	ENDS
;	COMDAT xdata$x
xdata$x	SEGMENT
__unwindtable$?OnBtnAdd@CDlgSettingToolBar@@IAEXXZ DD 0ffffffffH
	DD	FLAT:__unwindfunclet$?OnBtnAdd@CDlgSettingToolBar@@IAEXXZ$0
__ehfuncinfo$?OnBtnAdd@CDlgSettingToolBar@@IAEXXZ DD 019930522H
	DD	01H
	DD	FLAT:__unwindtable$?OnBtnAdd@CDlgSettingToolBar@@IAEXXZ
	DD	2 DUP(00H)
	DD	2 DUP(00H)
	DD	00H
	DD	01H
xdata$x	ENDS
;	COMDAT xdata$x
xdata$x	SEGMENT
__ehfuncinfo$?OnApply@CDlgSettingToolBar@@IAEXXZ DD 019930522H
	DD	07H
	DD	FLAT:__unwindtable$?OnApply@CDlgSettingToolBar@@IAEXXZ
	DD	2 DUP(00H)
	DD	2 DUP(00H)
	DD	00H
	DD	01H
__unwindtable$?OnApply@CDlgSettingToolBar@@IAEXXZ DD 0ffffffffH
	DD	FLAT:__unwindfunclet$?OnApply@CDlgSettingToolBar@@IAEXXZ$0
	DD	00H
	DD	FLAT:__unwindfunclet$?OnApply@CDlgSettingToolBar@@IAEXXZ$1
	DD	01H
	DD	FLAT:__unwindfunclet$?OnApply@CDlgSettingToolBar@@IAEXXZ$2
	DD	02H
	DD	FLAT:__unwindfunclet$?OnApply@CDlgSettingToolBar@@IAEXXZ$3
	DD	03H
	DD	FLAT:__unwindfunclet$?OnApply@CDlgSettingToolBar@@IAEXXZ$4
	DD	04H
	DD	FLAT:__unwindfunclet$?OnApply@CDlgSettingToolBar@@IAEXXZ$5
	DD	05H
	DD	FLAT:__unwindfunclet$?OnApply@CDlgSettingToolBar@@IAEXXZ$6
xdata$x	ENDS
;	COMDAT xdata$x
xdata$x	SEGMENT
__unwindtable$?OnInitDialog@CDlgSettingToolBar@@MAEHXZ DD 0ffffffffH
	DD	FLAT:__unwindfunclet$?OnInitDialog@CDlgSettingToolBar@@MAEHXZ$0
__ehfuncinfo$?OnInitDialog@CDlgSettingToolBar@@MAEHXZ DD 019930522H
	DD	01H
	DD	FLAT:__unwindtable$?OnInitDialog@CDlgSettingToolBar@@MAEHXZ
	DD	2 DUP(00H)
	DD	2 DUP(00H)
	DD	00H
	DD	01H
xdata$x	ENDS
;	COMDAT xdata$x
xdata$x	SEGMENT
__ehfuncinfo$??0CDlgSettingToolBar@@QAE@PAVCWnd@@@Z DD 019930522H
	DD	0aH
	DD	FLAT:__unwindtable$??0CDlgSettingToolBar@@QAE@PAVCWnd@@@Z
	DD	2 DUP(00H)
	DD	2 DUP(00H)
	DD	00H
	DD	01H
__unwindtable$??0CDlgSettingToolBar@@QAE@PAVCWnd@@@Z DD 0ffffffffH
	DD	FLAT:__unwindfunclet$??0CDlgSettingToolBar@@QAE@PAVCWnd@@@Z$0
	DD	00H
	DD	FLAT:__unwindfunclet$??0CDlgSettingToolBar@@QAE@PAVCWnd@@@Z$1
	DD	01H
	DD	FLAT:__unwindfunclet$??0CDlgSettingToolBar@@QAE@PAVCWnd@@@Z$2
	DD	02H
	DD	FLAT:__unwindfunclet$??0CDlgSettingToolBar@@QAE@PAVCWnd@@@Z$3
	DD	03H
	DD	FLAT:__unwindfunclet$??0CDlgSettingToolBar@@QAE@PAVCWnd@@@Z$4
	DD	04H
	DD	FLAT:__unwindfunclet$??0CDlgSettingToolBar@@QAE@PAVCWnd@@@Z$5
	DD	05H
	DD	FLAT:__unwindfunclet$??0CDlgSettingToolBar@@QAE@PAVCWnd@@@Z$6
	DD	06H
	DD	FLAT:__unwindfunclet$??0CDlgSettingToolBar@@QAE@PAVCWnd@@@Z$7
	DD	07H
	DD	FLAT:__unwindfunclet$??0CDlgSettingToolBar@@QAE@PAVCWnd@@@Z$8
	DD	08H
	DD	FLAT:__unwindfunclet$??0CDlgSettingToolBar@@QAE@PAVCWnd@@@Z$9
xdata$x	ENDS
;	COMDAT xdata$x
xdata$x	SEGMENT
__unwindtable$?FillAvailableList@CDlgSettingToolBar@@AAEXAAV?$CArray@HH@@AAV?$CMap@HHV?$CStringT@DV?$StrTraitMFC_DLL@DV?$ChTraitsCRT@D@ATL@@@@@ATL@@V12@@@@Z DD 0ffffffffH
	DD	FLAT:__unwindfunclet$?FillAvailableList@CDlgSettingToolBar@@AAEXAAV?$CArray@HH@@AAV?$CMap@HHV?$CStringT@DV?$StrTraitMFC_DLL@DV?$ChTraitsCRT@D@ATL@@@@@ATL@@V12@@@@Z$0
__ehfuncinfo$?FillAvailableList@CDlgSettingToolBar@@AAEXAAV?$CArray@HH@@AAV?$CMap@HHV?$CStringT@DV?$StrTraitMFC_DLL@DV?$ChTraitsCRT@D@ATL@@@@@ATL@@V12@@@@Z DD 019930522H
	DD	01H
	DD	FLAT:__unwindtable$?FillAvailableList@CDlgSettingToolBar@@AAEXAAV?$CArray@HH@@AAV?$CMap@HHV?$CStringT@DV?$StrTraitMFC_DLL@DV?$ChTraitsCRT@D@ATL@@@@@ATL@@V12@@@@Z
	DD	2 DUP(00H)
	DD	2 DUP(00H)
	DD	00H
	DD	01H
xdata$x	ENDS
;	COMDAT xdata$x
xdata$x	SEGMENT
__unwindtable$?FillShowList@CDlgSettingToolBar@@AAEXAAV?$CArray@HH@@AAV?$CMap@HHV?$CStringT@DV?$StrTraitMFC_DLL@DV?$ChTraitsCRT@D@ATL@@@@@ATL@@V12@@@@Z DD 0ffffffffH
	DD	FLAT:__unwindfunclet$?FillShowList@CDlgSettingToolBar@@AAEXAAV?$CArray@HH@@AAV?$CMap@HHV?$CStringT@DV?$StrTraitMFC_DLL@DV?$ChTraitsCRT@D@ATL@@@@@ATL@@V12@@@@Z$0
__ehfuncinfo$?FillShowList@CDlgSettingToolBar@@AAEXAAV?$CArray@HH@@AAV?$CMap@HHV?$CStringT@DV?$StrTraitMFC_DLL@DV?$ChTraitsCRT@D@ATL@@@@@ATL@@V12@@@@Z DD 019930522H
	DD	01H
	DD	FLAT:__unwindtable$?FillShowList@CDlgSettingToolBar@@AAEXAAV?$CArray@HH@@AAV?$CMap@HHV?$CStringT@DV?$StrTraitMFC_DLL@DV?$ChTraitsCRT@D@ATL@@@@@ATL@@V12@@@@Z
	DD	2 DUP(00H)
	DD	2 DUP(00H)
	DD	00H
	DD	01H
xdata$x	ENDS
;	COMDAT xdata$x
xdata$x	SEGMENT
__ehfuncinfo$?ReadIniFile@CDlgSettingToolBar@@AAEXH@Z DD 019930522H
	DD	0eH
	DD	FLAT:__unwindtable$?ReadIniFile@CDlgSettingToolBar@@AAEXH@Z
	DD	2 DUP(00H)
	DD	2 DUP(00H)
	DD	00H
	DD	01H
__unwindtable$?ReadIniFile@CDlgSettingToolBar@@AAEXH@Z DD 0ffffffffH
	DD	FLAT:__unwindfunclet$?ReadIniFile@CDlgSettingToolBar@@AAEXH@Z$0
	DD	00H
	DD	FLAT:__unwindfunclet$?ReadIniFile@CDlgSettingToolBar@@AAEXH@Z$1
	DD	01H
	DD	FLAT:__unwindfunclet$?ReadIniFile@CDlgSettingToolBar@@AAEXH@Z$2
	DD	02H
	DD	FLAT:__unwindfunclet$?ReadIniFile@CDlgSettingToolBar@@AAEXH@Z$3
	DD	03H
	DD	FLAT:__unwindfunclet$?ReadIniFile@CDlgSettingToolBar@@AAEXH@Z$4
	DD	04H
	DD	FLAT:__unwindfunclet$?ReadIniFile@CDlgSettingToolBar@@AAEXH@Z$5
	DD	05H
	DD	FLAT:__unwindfunclet$?ReadIniFile@CDlgSettingToolBar@@AAEXH@Z$6
	DD	06H
	DD	FLAT:__unwindfunclet$?ReadIniFile@CDlgSettingToolBar@@AAEXH@Z$7
	DD	07H
	DD	FLAT:__unwindfunclet$?ReadIniFile@CDlgSettingToolBar@@AAEXH@Z$8
	DD	08H
	DD	FLAT:__unwindfunclet$?ReadIniFile@CDlgSettingToolBar@@AAEXH@Z$9
	DD	09H
	DD	FLAT:__unwindfunclet$?ReadIniFile@CDlgSettingToolBar@@AAEXH@Z$10
	DD	0aH
	DD	FLAT:__unwindfunclet$?ReadIniFile@CDlgSettingToolBar@@AAEXH@Z$17
	DD	0aH
	DD	FLAT:__unwindfunclet$?ReadIniFile@CDlgSettingToolBar@@AAEXH@Z$18
	DD	0aH
	DD	FLAT:__unwindfunclet$?ReadIniFile@CDlgSettingToolBar@@AAEXH@Z$19
xdata$x	ENDS
;	COMDAT xdata$x
xdata$x	SEGMENT
__unwindtable$?GetFieldData@CDlgSettingToolBar@@AAEXV?$CStringT@DV?$StrTraitMFC_DLL@DV?$ChTraitsCRT@D@ATL@@@@@ATL@@AAHAAV23@@Z DD 0ffffffffH
	DD	FLAT:__unwindfunclet$?GetFieldData@CDlgSettingToolBar@@AAEXV?$CStringT@DV?$StrTraitMFC_DLL@DV?$ChTraitsCRT@D@ATL@@@@@ATL@@AAHAAV23@@Z$0
	DD	00H
	DD	FLAT:__unwindfunclet$?GetFieldData@CDlgSettingToolBar@@AAEXV?$CStringT@DV?$StrTraitMFC_DLL@DV?$ChTraitsCRT@D@ATL@@@@@ATL@@AAHAAV23@@Z$1
	DD	01H
	DD	FLAT:__unwindfunclet$?GetFieldData@CDlgSettingToolBar@@AAEXV?$CStringT@DV?$StrTraitMFC_DLL@DV?$ChTraitsCRT@D@ATL@@@@@ATL@@AAHAAV23@@Z$2
__ehfuncinfo$?GetFieldData@CDlgSettingToolBar@@AAEXV?$CStringT@DV?$StrTraitMFC_DLL@DV?$ChTraitsCRT@D@ATL@@@@@ATL@@AAHAAV23@@Z DD 019930522H
	DD	03H
	DD	FLAT:__unwindtable$?GetFieldData@CDlgSettingToolBar@@AAEXV?$CStringT@DV?$StrTraitMFC_DLL@DV?$ChTraitsCRT@D@ATL@@@@@ATL@@AAHAAV23@@Z
	DD	2 DUP(00H)
	DD	2 DUP(00H)
	DD	00H
	DD	01H
xdata$x	ENDS
;	COMDAT xdata$x
xdata$x	SEGMENT
__unwindtable$??_G?$CMap@HHV?$CStringT@DV?$StrTraitMFC_DLL@DV?$ChTraitsCRT@D@ATL@@@@@ATL@@V12@@@UAEPAXI@Z DD 0ffffffffH
	DD	FLAT:___std_terminate
__ehfuncinfo$??_G?$CMap@HHV?$CStringT@DV?$StrTraitMFC_DLL@DV?$ChTraitsCRT@D@ATL@@@@@ATL@@V12@@@UAEPAXI@Z DD 019930522H
	DD	01H
	DD	FLAT:__unwindtable$??_G?$CMap@HHV?$CStringT@DV?$StrTraitMFC_DLL@DV?$ChTraitsCRT@D@ATL@@@@@ATL@@V12@@@UAEPAXI@Z
	DD	2 DUP(00H)
	DD	2 DUP(00H)
	DD	00H
	DD	05H
xdata$x	ENDS
;	COMDAT xdata$x
xdata$x	SEGMENT
__unwindtable$?Serialize@?$CMap@HHV?$CStringT@DV?$StrTraitMFC_DLL@DV?$ChTraitsCRT@D@ATL@@@@@ATL@@V12@@@UAEXAAVCArchive@@@Z DD 0ffffffffH
	DD	FLAT:__unwindfunclet$?Serialize@?$CMap@HHV?$CStringT@DV?$StrTraitMFC_DLL@DV?$ChTraitsCRT@D@ATL@@@@@ATL@@V12@@@UAEXAAVCArchive@@@Z$0
	DD	00H
	DD	FLAT:__unwindfunclet$?Serialize@?$CMap@HHV?$CStringT@DV?$StrTraitMFC_DLL@DV?$ChTraitsCRT@D@ATL@@@@@ATL@@V12@@@UAEXAAVCArchive@@@Z$2
__ehfuncinfo$?Serialize@?$CMap@HHV?$CStringT@DV?$StrTraitMFC_DLL@DV?$ChTraitsCRT@D@ATL@@@@@ATL@@V12@@@UAEXAAVCArchive@@@Z DD 019930522H
	DD	02H
	DD	FLAT:__unwindtable$?Serialize@?$CMap@HHV?$CStringT@DV?$StrTraitMFC_DLL@DV?$ChTraitsCRT@D@ATL@@@@@ATL@@V12@@@UAEXAAVCArchive@@@Z
	DD	2 DUP(00H)
	DD	2 DUP(00H)
	DD	00H
	DD	01H
xdata$x	ENDS
;	COMDAT xdata$x
xdata$x	SEGMENT
__ehfuncinfo$??1?$CMap@HHV?$CStringT@DV?$StrTraitMFC_DLL@DV?$ChTraitsCRT@D@ATL@@@@@ATL@@V12@@@UAE@XZ DD 019930522H
	DD	00H
	DD	00H
	DD	2 DUP(00H)
	DD	2 DUP(00H)
	DD	00H
	DD	05H
xdata$x	ENDS
;	COMDAT xdata$x
xdata$x	SEGMENT
__unwindtable$?SetAt@?$CMap@HHV?$CStringT@DV?$StrTraitMFC_DLL@DV?$ChTraitsCRT@D@ATL@@@@@ATL@@V12@@@QAEXHV?$CStringT@DV?$StrTraitMFC_DLL@DV?$ChTraitsCRT@D@ATL@@@@@ATL@@@Z DD 0ffffffffH
	DD	FLAT:__unwindfunclet$?SetAt@?$CMap@HHV?$CStringT@DV?$StrTraitMFC_DLL@DV?$ChTraitsCRT@D@ATL@@@@@ATL@@V12@@@QAEXHV?$CStringT@DV?$StrTraitMFC_DLL@DV?$ChTraitsCRT@D@ATL@@@@@ATL@@@Z$0
__ehfuncinfo$?SetAt@?$CMap@HHV?$CStringT@DV?$StrTraitMFC_DLL@DV?$ChTraitsCRT@D@ATL@@@@@ATL@@V12@@@QAEXHV?$CStringT@DV?$StrTraitMFC_DLL@DV?$ChTraitsCRT@D@ATL@@@@@ATL@@@Z DD 019930522H
	DD	01H
	DD	FLAT:__unwindtable$?SetAt@?$CMap@HHV?$CStringT@DV?$StrTraitMFC_DLL@DV?$ChTraitsCRT@D@ATL@@@@@ATL@@V12@@@QAEXHV?$CStringT@DV?$StrTraitMFC_DLL@DV?$ChTraitsCRT@D@ATL@@@@@ATL@@@Z
	DD	2 DUP(00H)
	DD	2 DUP(00H)
	DD	00H
	DD	01H
xdata$x	ENDS
; Function compile flags: /Ogtp
; File C:\Program Files (x86)\Microsoft Visual Studio\2019\Community\VC\Tools\MSVC\14.29.30133\atlmfc\include\afxtempl.h
;	COMDAT ??$CompareElements@HH@@YGHPBH0@Z
_TEXT	SEGMENT
_pElement1$ = 8						; size = 4
_pElement2$ = 12					; size = 4
??$CompareElements@HH@@YGHPBH0@Z PROC			; CompareElements<int,int>, COMDAT

; 151  : {

  00000	55		 push	 ebp
  00001	8b ec		 mov	 ebp, esp

; 152  : 	ENSURE(pElement1 != NULL && pElement2 != NULL);

  00003	8b 4d 08	 mov	 ecx, DWORD PTR _pElement1$[ebp]
  00006	85 c9		 test	 ecx, ecx
  00008	74 14		 je	 SHORT $LN7@CompareEle
  0000a	8b 55 0c	 mov	 edx, DWORD PTR _pElement2$[ebp]
  0000d	85 d2		 test	 edx, edx
  0000f	74 0d		 je	 SHORT $LN7@CompareEle

; 153  : 	ASSERT(AfxIsValidAddress(pElement1, sizeof(TYPE), FALSE));
; 154  : 	ASSERT(AfxIsValidAddress(pElement2, sizeof(ARG_TYPE), FALSE));
; 155  : 
; 156  : 	return *pElement1 == *pElement2;

  00011	8b 09		 mov	 ecx, DWORD PTR [ecx]
  00013	33 c0		 xor	 eax, eax
  00015	3b 0a		 cmp	 ecx, DWORD PTR [edx]
  00017	0f 94 c0	 sete	 al

; 157  : }

  0001a	5d		 pop	 ebp
  0001b	c2 08 00	 ret	 8
$LN7@CompareEle:

; 152  : 	ENSURE(pElement1 != NULL && pElement2 != NULL);

  0001e	e8 00 00 00 00	 call	 ?AfxThrowInvalidArgException@@YGXXZ ; AfxThrowInvalidArgException
$LN10@CompareEle:
  00023	cc		 int	 3
??$CompareElements@HH@@YGHPBH0@Z ENDP			; CompareElements<int,int>
_TEXT	ENDS
; Function compile flags: /Ogtp
; File C:\Program Files (x86)\Microsoft Visual Studio\2019\Community\VC\Tools\MSVC\14.29.30133\atlmfc\include\afxtempl.h
; File C:\Program Files (x86)\Microsoft Visual Studio\2019\Community\VC\Tools\MSVC\14.29.30133\atlmfc\include\afx.inl
; File C:\Program Files (x86)\Microsoft Visual Studio\2019\Community\VC\Tools\MSVC\14.29.30133\atlmfc\include\afxtempl.h
; File C:\Program Files (x86)\Microsoft Visual Studio\2019\Community\VC\Tools\MSVC\14.29.30133\atlmfc\include\afx.inl
; File C:\Program Files (x86)\Microsoft Visual Studio\2019\Community\VC\Tools\MSVC\14.29.30133\atlmfc\include\afxtempl.h
; File C:\Program Files (x86)\Microsoft Visual Studio\2019\Community\VC\Tools\MSVC\14.29.30133\atlmfc\include\afx.inl
; File C:\Program Files (x86)\Microsoft Visual Studio\2019\Community\VC\Tools\MSVC\14.29.30133\atlmfc\include\afxtempl.h
;	COMDAT ??$SerializeElements@H@@YGXAAVCArchive@@PAHH@Z
_TEXT	SEGMENT
_ar$ = 8						; size = 4
_pElements$ = 12					; size = 4
_nCount$ = 16						; size = 4
??$SerializeElements@H@@YGXAAVCArchive@@PAHH@Z PROC	; SerializeElements<int>, COMDAT

; 67   : {

  00000	55		 push	 ebp
  00001	8b ec		 mov	 ebp, esp

; 68   : 	ENSURE(nCount == 0 || pElements != NULL);

  00003	8b 4d 0c	 mov	 ecx, DWORD PTR _pElements$[ebp]
  00006	53		 push	 ebx
  00007	56		 push	 esi
  00008	8b 75 10	 mov	 esi, DWORD PTR _nCount$[ebp]
  0000b	57		 push	 edi
  0000c	85 f6		 test	 esi, esi
  0000e	74 08		 je	 SHORT $LN2@SerializeE
  00010	85 c9		 test	 ecx, ecx
  00012	0f 84 89 00 00
	00		 je	 $LN34@SerializeE
$LN2@SerializeE:
; File C:\Program Files (x86)\Microsoft Visual Studio\2019\Community\VC\Tools\MSVC\14.29.30133\atlmfc\include\afx.inl

; 212  : 	{ return (m_nMode & CArchive::load) == 0; }

  00018	8b 55 08	 mov	 edx, DWORD PTR _ar$[ebp]
  0001b	8b 42 18	 mov	 eax, DWORD PTR [edx+24]
  0001e	f7 d0		 not	 eax
  00020	a8 01		 test	 al, 1
; File C:\Program Files (x86)\Microsoft Visual Studio\2019\Community\VC\Tools\MSVC\14.29.30133\atlmfc\include\afxtempl.h

; 73   : 	if (ar.IsStoring())

  00022	74 3c		 je	 SHORT $LN10@SerializeE

; 74   : 	{
; 75   : 		TYPE* pData;
; 76   : 		UINT_PTR nElementsLeft;
; 77   : 
; 78   : 		nElementsLeft = nCount;
; 79   : 		pData = pElements;
; 80   : 		while( nElementsLeft > 0 )

  00024	85 f6		 test	 esi, esi
  00026	74 31		 je	 SHORT $LN8@SerializeE
  00028	0f 1f 84 00 00
	00 00 00	 npad	 8
$LL5@SerializeE:

; 81   : 		{
; 82   : 			UINT nElementsToWrite;
; 83   : 
; 84   : 			nElementsToWrite = UINT(__min(nElementsLeft, INT_MAX/sizeof(TYPE)));

  00030	bb ff ff ff 1f	 mov	 ebx, 536870911		; 1fffffffH
  00035	3b f3		 cmp	 esi, ebx
  00037	0f 42 de	 cmovb	 ebx, esi

; 85   : 			ar.Write(pData, nElementsToWrite*sizeof(TYPE));

  0003a	8d 3c 9d 00 00
	00 00		 lea	 edi, DWORD PTR [ebx*4]
  00041	57		 push	 edi
  00042	51		 push	 ecx
  00043	8b ca		 mov	 ecx, edx
  00045	e8 00 00 00 00	 call	 ?Write@CArchive@@QAEXPBXI@Z ; CArchive::Write

; 86   : 			nElementsLeft -= nElementsToWrite;
; 87   : 			pData += nElementsToWrite;

  0004a	8b 4d 0c	 mov	 ecx, DWORD PTR _pElements$[ebp]
  0004d	8b 55 08	 mov	 edx, DWORD PTR _ar$[ebp]
  00050	03 cf		 add	 ecx, edi
  00052	89 4d 0c	 mov	 DWORD PTR _pElements$[ebp], ecx
  00055	2b f3		 sub	 esi, ebx
  00057	75 d7		 jne	 SHORT $LL5@SerializeE
$LN8@SerializeE:
  00059	5f		 pop	 edi

; 105  : 		}
; 106  : 	}
; 107  : }

  0005a	5e		 pop	 esi
  0005b	5b		 pop	 ebx
  0005c	5d		 pop	 ebp
  0005d	c2 0c 00	 ret	 12			; 0000000cH
$LN10@SerializeE:

; 97   : 		while( nElementsLeft > 0 )

  00060	85 f6		 test	 esi, esi
  00062	74 f5		 je	 SHORT $LN8@SerializeE
$LL7@SerializeE:

; 98   : 		{
; 99   : 			UINT nElementsToRead;
; 100  : 
; 101  : 			nElementsToRead = UINT(__min(nElementsLeft, INT_MAX/sizeof(TYPE)));

  00064	bf ff ff ff 1f	 mov	 edi, 536870911		; 1fffffffH
  00069	3b f7		 cmp	 esi, edi
  0006b	0f 42 fe	 cmovb	 edi, esi

; 102  : 			ar.EnsureRead(pData, nElementsToRead*sizeof(TYPE));

  0006e	8d 1c bd 00 00
	00 00		 lea	 ebx, DWORD PTR [edi*4]
; File C:\Program Files (x86)\Microsoft Visual Studio\2019\Community\VC\Tools\MSVC\14.29.30133\atlmfc\include\afx.inl

; 399  : 	UINT nRead=Read(lpBuf, nCount);

  00075	53		 push	 ebx
  00076	51		 push	 ecx
  00077	8b ca		 mov	 ecx, edx
  00079	e8 00 00 00 00	 call	 ?Read@CArchive@@QAEIPAXI@Z ; CArchive::Read

; 400  : 	if(nRead!=nCount)

  0007e	3b c3		 cmp	 eax, ebx
  00080	75 16		 jne	 SHORT $LN23@SerializeE
; File C:\Program Files (x86)\Microsoft Visual Studio\2019\Community\VC\Tools\MSVC\14.29.30133\atlmfc\include\afxtempl.h

; 97   : 		while( nElementsLeft > 0 )

  00082	8b 4d 0c	 mov	 ecx, DWORD PTR _pElements$[ebp]
  00085	8b 55 08	 mov	 edx, DWORD PTR _ar$[ebp]

; 103  : 			nElementsLeft -= nElementsToRead;
; 104  : 			pData += nElementsToRead;

  00088	03 cb		 add	 ecx, ebx
  0008a	89 4d 0c	 mov	 DWORD PTR _pElements$[ebp], ecx
  0008d	2b f7		 sub	 esi, edi
  0008f	75 d3		 jne	 SHORT $LL7@SerializeE

; 105  : 		}
; 106  : 	}
; 107  : }

  00091	5f		 pop	 edi
  00092	5e		 pop	 esi
  00093	5b		 pop	 ebx
  00094	5d		 pop	 ebp
  00095	c2 0c 00	 ret	 12			; 0000000cH
$LN23@SerializeE:
; File C:\Program Files (x86)\Microsoft Visual Studio\2019\Community\VC\Tools\MSVC\14.29.30133\atlmfc\include\afx.inl

; 402  : 		AfxThrowArchiveException(CArchiveException::endOfFile);

  00098	6a 00		 push	 0
  0009a	6a 03		 push	 3
  0009c	e8 00 00 00 00	 call	 ?AfxThrowArchiveException@@YGXHPBD@Z ; AfxThrowArchiveException
$LN34@SerializeE:
; File C:\Program Files (x86)\Microsoft Visual Studio\2019\Community\VC\Tools\MSVC\14.29.30133\atlmfc\include\afxtempl.h

; 68   : 	ENSURE(nCount == 0 || pElements != NULL);

  000a1	e8 00 00 00 00	 call	 ?AfxThrowInvalidArgException@@YGXXZ ; AfxThrowInvalidArgException
$LN32@SerializeE:
  000a6	cc		 int	 3
??$SerializeElements@H@@YGXAAVCArchive@@PAHH@Z ENDP	; SerializeElements<int>
_TEXT	ENDS
; Function compile flags: /Ogtp
; File C:\Program Files (x86)\Microsoft Visual Studio\2019\Community\VC\Tools\MSVC\14.29.30133\atlmfc\include\afxtempl.h
; File C:\Program Files (x86)\Microsoft Visual Studio\2019\Community\VC\Tools\MSVC\14.29.30133\atlmfc\include\afx.inl
;	COMDAT ??_GCDlgSettingToolBar@@UAEPAXI@Z
_TEXT	SEGMENT
__$EHRec$ = -12						; size = 12
___flags$ = 8						; size = 4
??_GCDlgSettingToolBar@@UAEPAXI@Z PROC			; CDlgSettingToolBar::`scalar deleting destructor', COMDAT
; _this$ = ecx
  00000	55		 push	 ebp
  00001	8b ec		 mov	 ebp, esp
  00003	6a ff		 push	 -1
  00005	68 00 00 00 00	 push	 __ehhandler$??_GCDlgSettingToolBar@@UAEPAXI@Z
  0000a	64 a1 00 00 00
	00		 mov	 eax, DWORD PTR fs:0
  00010	50		 push	 eax
  00011	56		 push	 esi
  00012	a1 00 00 00 00	 mov	 eax, DWORD PTR ___security_cookie
  00017	33 c5		 xor	 eax, ebp
  00019	50		 push	 eax
  0001a	8d 45 f4	 lea	 eax, DWORD PTR __$EHRec$[ebp]
  0001d	64 a3 00 00 00
	00		 mov	 DWORD PTR fs:0, eax
  00023	8b f1		 mov	 esi, ecx
  00025	8d 8e c8 02 00
	00		 lea	 ecx, DWORD PTR [esi+712]
  0002b	e8 00 00 00 00	 call	 ??1CComboBox@@UAE@XZ	; CComboBox::~CComboBox
  00030	8d 8e 48 02 00
	00		 lea	 ecx, DWORD PTR [esi+584]
  00036	e8 00 00 00 00	 call	 ??1CComboBox@@UAE@XZ	; CComboBox::~CComboBox
  0003b	8d 8e c8 01 00
	00		 lea	 ecx, DWORD PTR [esi+456]
  00041	e8 00 00 00 00	 call	 ??1CListBox@@UAE@XZ	; CListBox::~CListBox
  00046	8d 8e 48 01 00
	00		 lea	 ecx, DWORD PTR [esi+328]
  0004c	e8 00 00 00 00	 call	 ??1CListBox@@UAE@XZ	; CListBox::~CListBox
  00051	8d 8e 20 01 00
	00		 lea	 ecx, DWORD PTR [esi+288]
; File C:\Program Files (x86)\Microsoft Visual Studio\2019\Community\VC\Tools\MSVC\14.29.30133\atlmfc\include\afxtempl.h

; 1472 : {

  00057	c7 45 fc 00 00
	00 00		 mov	 DWORD PTR __$EHRec$[ebp+8], 0
  0005e	c7 01 00 00 00
	00		 mov	 DWORD PTR [ecx], OFFSET ??_7?$CMap@HHV?$CStringT@DV?$StrTraitMFC_DLL@DV?$ChTraitsCRT@D@ATL@@@@@ATL@@V12@@@6B@

; 1473 : 	RemoveAll();

  00064	e8 00 00 00 00	 call	 ?RemoveAll@?$CMap@HHV?$CStringT@DV?$StrTraitMFC_DLL@DV?$ChTraitsCRT@D@ATL@@@@@ATL@@V12@@@QAEXXZ ; CMap<int,int,ATL::CStringT<char,StrTraitMFC_DLL<char,ATL::ChTraitsCRT<char> > >,ATL::CStringT<char,StrTraitMFC_DLL<char,ATL::ChTraitsCRT<char> > > >::RemoveAll
  00069	8d 8e 04 01 00
	00		 lea	 ecx, DWORD PTR [esi+260]

; 1472 : {

  0006f	c7 45 fc 01 00
	00 00		 mov	 DWORD PTR __$EHRec$[ebp+8], 1
  00076	c7 01 00 00 00
	00		 mov	 DWORD PTR [ecx], OFFSET ??_7?$CMap@HHV?$CStringT@DV?$StrTraitMFC_DLL@DV?$ChTraitsCRT@D@ATL@@@@@ATL@@V12@@@6B@

; 1473 : 	RemoveAll();

  0007c	e8 00 00 00 00	 call	 ?RemoveAll@?$CMap@HHV?$CStringT@DV?$StrTraitMFC_DLL@DV?$ChTraitsCRT@D@ATL@@@@@ATL@@V12@@@QAEXXZ ; CMap<int,int,ATL::CStringT<char,StrTraitMFC_DLL<char,ATL::ChTraitsCRT<char> > >,ATL::CStringT<char,StrTraitMFC_DLL<char,ATL::ChTraitsCRT<char> > > >::RemoveAll
  00081	8d 8e e8 00 00
	00		 lea	 ecx, DWORD PTR [esi+232]

; 1472 : {

  00087	c7 45 fc 02 00
	00 00		 mov	 DWORD PTR __$EHRec$[ebp+8], 2
  0008e	c7 01 00 00 00
	00		 mov	 DWORD PTR [ecx], OFFSET ??_7?$CMap@HHV?$CStringT@DV?$StrTraitMFC_DLL@DV?$ChTraitsCRT@D@ATL@@@@@ATL@@V12@@@6B@

; 1473 : 	RemoveAll();

  00094	e8 00 00 00 00	 call	 ?RemoveAll@?$CMap@HHV?$CStringT@DV?$StrTraitMFC_DLL@DV?$ChTraitsCRT@D@ATL@@@@@ATL@@V12@@@QAEXXZ ; CMap<int,int,ATL::CStringT<char,StrTraitMFC_DLL<char,ATL::ChTraitsCRT<char> > >,ATL::CStringT<char,StrTraitMFC_DLL<char,ATL::ChTraitsCRT<char> > > >::RemoveAll

; 358  : 	if (m_pData != NULL)

  00099	8b 86 d8 00 00
	00		 mov	 eax, DWORD PTR [esi+216]
  0009f	c7 86 d4 00 00
	00 00 00 00 00	 mov	 DWORD PTR [esi+212], OFFSET ??_7?$CArray@HH@@6B@
  000a9	85 c0		 test	 eax, eax
  000ab	74 13		 je	 SHORT $LN23@scalar

; 359  : 	{
; 360  : 		for( int i = 0; i < m_nSize; i++ )

  000ad	83 be dc 00 00
	00 00		 cmp	 DWORD PTR [esi+220], 0
  000b4	0f 4f c0	 cmovg	 eax, eax

; 361  : 			(m_pData + i)->~TYPE();
; 362  : 		delete[] (BYTE*)m_pData;

  000b7	50		 push	 eax
  000b8	e8 00 00 00 00	 call	 ??_V@YAXPAX@Z		; operator delete[]
  000bd	83 c4 04	 add	 esp, 4
$LN23@scalar:

; 358  : 	if (m_pData != NULL)

  000c0	8b 86 c4 00 00
	00		 mov	 eax, DWORD PTR [esi+196]
  000c6	c7 86 c0 00 00
	00 00 00 00 00	 mov	 DWORD PTR [esi+192], OFFSET ??_7?$CArray@HH@@6B@
  000d0	85 c0		 test	 eax, eax
  000d2	74 13		 je	 SHORT $LN30@scalar

; 359  : 	{
; 360  : 		for( int i = 0; i < m_nSize; i++ )

  000d4	83 be c8 00 00
	00 00		 cmp	 DWORD PTR [esi+200], 0
  000db	0f 4f c0	 cmovg	 eax, eax

; 361  : 			(m_pData + i)->~TYPE();
; 362  : 		delete[] (BYTE*)m_pData;

  000de	50		 push	 eax
  000df	e8 00 00 00 00	 call	 ??_V@YAXPAX@Z		; operator delete[]
  000e4	83 c4 04	 add	 esp, 4
$LN30@scalar:

; 358  : 	if (m_pData != NULL)

  000e7	8b 86 b0 00 00
	00		 mov	 eax, DWORD PTR [esi+176]
  000ed	c7 86 ac 00 00
	00 00 00 00 00	 mov	 DWORD PTR [esi+172], OFFSET ??_7?$CArray@HH@@6B@
  000f7	85 c0		 test	 eax, eax
  000f9	74 13		 je	 SHORT $LN37@scalar

; 359  : 	{
; 360  : 		for( int i = 0; i < m_nSize; i++ )

  000fb	83 be b4 00 00
	00 00		 cmp	 DWORD PTR [esi+180], 0
  00102	0f 4f c0	 cmovg	 eax, eax

; 361  : 			(m_pData + i)->~TYPE();
; 362  : 		delete[] (BYTE*)m_pData;

  00105	50		 push	 eax
  00106	e8 00 00 00 00	 call	 ??_V@YAXPAX@Z		; operator delete[]
  0010b	83 c4 04	 add	 esp, 4
$LN37@scalar:
  0010e	8b ce		 mov	 ecx, esi
  00110	e8 00 00 00 00	 call	 ??1CDialog@@UAE@XZ	; CDialog::~CDialog
  00115	8b 45 08	 mov	 eax, DWORD PTR ___flags$[ebp]
  00118	a8 01		 test	 al, 1
  0011a	74 2f		 je	 SHORT $LN54@scalar
  0011c	a8 04		 test	 al, 4
  0011e	75 1d		 jne	 SHORT $LN3@scalar
; File C:\Program Files (x86)\Microsoft Visual Studio\2019\Community\VC\Tools\MSVC\14.29.30133\atlmfc\include\afx.inl

; 112  : 	{ ::operator delete(p); }

  00120	56		 push	 esi
  00121	e8 00 00 00 00	 call	 ??3@YAXPAX@Z		; operator delete
  00126	83 c4 04	 add	 esp, 4
  00129	8b c6		 mov	 eax, esi
  0012b	8b 4d f4	 mov	 ecx, DWORD PTR __$EHRec$[ebp]
  0012e	64 89 0d 00 00
	00 00		 mov	 DWORD PTR fs:0, ecx
  00135	59		 pop	 ecx
  00136	5e		 pop	 esi
  00137	8b e5		 mov	 esp, ebp
  00139	5d		 pop	 ebp
  0013a	c2 04 00	 ret	 4
$LN3@scalar:
  0013d	68 48 03 00 00	 push	 840			; 00000348H
  00142	56		 push	 esi
  00143	e8 00 00 00 00	 call	 ?__global_delete@@YAXPAXI@Z ; __global_delete
  00148	83 c4 08	 add	 esp, 8
$LN54@scalar:
  0014b	8b c6		 mov	 eax, esi
  0014d	8b 4d f4	 mov	 ecx, DWORD PTR __$EHRec$[ebp]
  00150	64 89 0d 00 00
	00 00		 mov	 DWORD PTR fs:0, ecx
  00157	59		 pop	 ecx
  00158	5e		 pop	 esi
  00159	8b e5		 mov	 esp, ebp
  0015b	5d		 pop	 ebp
  0015c	c2 04 00	 ret	 4
  0015f	cc		 int	 3
  00160	cc		 int	 3
  00161	cc		 int	 3
  00162	cc		 int	 3
  00163	cc		 int	 3
_TEXT	ENDS
;	COMDAT text$x
text$x	SEGMENT
__ehhandler$??_GCDlgSettingToolBar@@UAEPAXI@Z:
  00000	90		 npad	 1
  00001	90		 npad	 1
  00002	8b 54 24 08	 mov	 edx, DWORD PTR [esp+8]
  00006	8d 42 0c	 lea	 eax, DWORD PTR [edx+12]
  00009	8b 4a f8	 mov	 ecx, DWORD PTR [edx-8]
  0000c	33 c8		 xor	 ecx, eax
  0000e	e8 00 00 00 00	 call	 @__security_check_cookie@4
  00013	b8 00 00 00 00	 mov	 eax, OFFSET __ehfuncinfo$??_GCDlgSettingToolBar@@UAEPAXI@Z
  00018	e9 00 00 00 00	 jmp	 ___CxxFrameHandler3
text$x	ENDS
??_GCDlgSettingToolBar@@UAEPAXI@Z ENDP			; CDlgSettingToolBar::`scalar deleting destructor'
; Function compile flags: /Ogtp
; File D:\git\src\IBK\IBK_DRFN\ProjSrc\SrcDrfn\Chart\MULTICHART\DlgSettingToolBar.cpp
;	COMDAT ?GetMessageMap@CDlgSettingToolBar@@MBEPBUAFX_MSGMAP@@XZ
_TEXT	SEGMENT
?GetMessageMap@CDlgSettingToolBar@@MBEPBUAFX_MSGMAP@@XZ PROC ; CDlgSettingToolBar::GetMessageMap, COMDAT
; _this$ = ecx

; 42   : BEGIN_MESSAGE_MAP(CDlgSettingToolBar, CDialog)

  00000	b8 00 00 00 00	 mov	 eax, OFFSET ?messageMap@?1??GetThisMessageMap@CDlgSettingToolBar@@KGPBUAFX_MSGMAP@@XZ@4U3@B
  00005	c3		 ret	 0
?GetMessageMap@CDlgSettingToolBar@@MBEPBUAFX_MSGMAP@@XZ ENDP ; CDlgSettingToolBar::GetMessageMap
_TEXT	ENDS
; Function compile flags: /Ogtp
; File D:\git\src\IBK\IBK_DRFN\ProjSrc\SrcDrfn\Chart\MULTICHART\DlgSettingToolBar.cpp
;	COMDAT ?GetThisMessageMap@CDlgSettingToolBar@@KGPBUAFX_MSGMAP@@XZ
_TEXT	SEGMENT
?GetThisMessageMap@CDlgSettingToolBar@@KGPBUAFX_MSGMAP@@XZ PROC ; CDlgSettingToolBar::GetThisMessageMap, COMDAT

; 43   : 	//{{AFX_MSG_MAP(CDlgSettingToolBar)
; 44   : 	ON_BN_CLICKED(IDC_APPLY, OnApply)
; 45   : 	ON_CBN_SELCHANGE(IDC_CMB_AVAILABLE, OnSelchangeCmbAvailable)
; 46   : 	ON_CBN_SELCHANGE(IDC_CMB_SHOW, OnSelchangeCmbShow)
; 47   : 	ON_BN_CLICKED(IDC_BTN_ADD, OnBtnAdd)
; 48   : 	ON_BN_CLICKED(IDC_BTN_INIT, OnBtnInit)
; 49   : 	ON_BN_CLICKED(IDC_BTN_MOVEDOWN, OnBtnMovedown)
; 50   : 	ON_BN_CLICKED(IDC_BTN_MOVSYP, OnBtnMovsyp)
; 51   : 	ON_BN_CLICKED(IDC_BTN_REMOVE, OnBtnRemove)
; 52   : 	ON_BN_CLICKED(IDC_BTN_REMOVEALL, OnBtnRemoveall)
; 53   : 	ON_BN_CLICKED(IDC_BTN_ADDALL, OnBtnAddall)
; 54   : 	ON_LBN_DBLCLK(IDC_LIST_AVAILABLE, OnDblclkListAdd)
; 55   : 	ON_LBN_DBLCLK(IDC_LIST_SHOW, OnDblclkListRemove)
; 56   : 	//}}AFX_MSG_MAP
; 57   : END_MESSAGE_MAP()

  00000	b8 00 00 00 00	 mov	 eax, OFFSET ?messageMap@?1??GetThisMessageMap@CDlgSettingToolBar@@KGPBUAFX_MSGMAP@@XZ@4U3@B
  00005	c3		 ret	 0
?GetThisMessageMap@CDlgSettingToolBar@@KGPBUAFX_MSGMAP@@XZ ENDP ; CDlgSettingToolBar::GetThisMessageMap
_TEXT	ENDS
; Function compile flags: /Ogtp
; File D:\git\src\IBK\IBK_DRFN\ProjSrc\SrcDrfn\Chart\MULTICHART\DlgSettingToolBar.cpp
; File C:\Program Files (x86)\Microsoft Visual Studio\2019\Community\VC\Tools\MSVC\14.29.30133\atlmfc\include\afxwin2.inl
; File D:\git\src\IBK\IBK_DRFN\ProjSrc\SrcDrfn\Chart\MULTICHART\DlgSettingToolBar.cpp
; File C:\Program Files (x86)\Microsoft Visual Studio\2019\Community\VC\Tools\MSVC\14.29.30133\atlmfc\include\afxwin2.inl
; File D:\git\src\IBK\IBK_DRFN\ProjSrc\SrcDrfn\Chart\MULTICHART\DlgSettingToolBar.cpp
;	COMDAT ?OnDblclkListRemove@CDlgSettingToolBar@@IAEXXZ
_TEXT	SEGMENT
?OnDblclkListRemove@CDlgSettingToolBar@@IAEXXZ PROC	; CDlgSettingToolBar::OnDblclkListRemove, COMDAT
; _this$ = ecx

; 656  : {

  00000	56		 push	 esi
; File C:\Program Files (x86)\Microsoft Visual Studio\2019\Community\VC\Tools\MSVC\14.29.30133\atlmfc\include\afxwin2.inl

; 765  : 	{ ASSERT(::IsWindow(m_hWnd)); return (int)::SendMessage(m_hWnd, CB_GETCURSEL, 0, 0); }

  00001	6a 00		 push	 0
; File D:\git\src\IBK\IBK_DRFN\ProjSrc\SrcDrfn\Chart\MULTICHART\DlgSettingToolBar.cpp

; 656  : {

  00003	8b f1		 mov	 esi, ecx
; File C:\Program Files (x86)\Microsoft Visual Studio\2019\Community\VC\Tools\MSVC\14.29.30133\atlmfc\include\afxwin2.inl

; 765  : 	{ ASSERT(::IsWindow(m_hWnd)); return (int)::SendMessage(m_hWnd, CB_GETCURSEL, 0, 0); }

  00005	6a 00		 push	 0
  00007	68 47 01 00 00	 push	 327			; 00000147H
  0000c	ff b6 68 02 00
	00		 push	 DWORD PTR [esi+616]
  00012	ff 15 00 00 00
	00		 call	 DWORD PTR __imp__SendMessageA@16
; File D:\git\src\IBK\IBK_DRFN\ProjSrc\SrcDrfn\Chart\MULTICHART\DlgSettingToolBar.cpp

; 659  : 	if(nCurSel == 0)

  00018	85 c0		 test	 eax, eax
  0001a	75 08		 jne	 SHORT $LN2@OnDblclkLi

; 660  : 		OnBtnRemove();

  0001c	8b ce		 mov	 ecx, esi
  0001e	5e		 pop	 esi
  0001f	e9 00 00 00 00	 jmp	 ?OnBtnRemove@CDlgSettingToolBar@@IAEXXZ ; CDlgSettingToolBar::OnBtnRemove
$LN2@OnDblclkLi:
  00024	5e		 pop	 esi

; 661  : }

  00025	c3		 ret	 0
?OnDblclkListRemove@CDlgSettingToolBar@@IAEXXZ ENDP	; CDlgSettingToolBar::OnDblclkListRemove
_TEXT	ENDS
; Function compile flags: /Ogtp
; File D:\git\src\IBK\IBK_DRFN\ProjSrc\SrcDrfn\Chart\MULTICHART\DlgSettingToolBar.cpp
; File C:\Program Files (x86)\Microsoft Visual Studio\2019\Community\VC\Tools\MSVC\14.29.30133\atlmfc\include\afxwin2.inl
; File D:\git\src\IBK\IBK_DRFN\ProjSrc\SrcDrfn\Chart\MULTICHART\DlgSettingToolBar.cpp
; File C:\Program Files (x86)\Microsoft Visual Studio\2019\Community\VC\Tools\MSVC\14.29.30133\atlmfc\include\afxwin2.inl
; File D:\git\src\IBK\IBK_DRFN\ProjSrc\SrcDrfn\Chart\MULTICHART\DlgSettingToolBar.cpp
;	COMDAT ?OnDblclkListAdd@CDlgSettingToolBar@@IAEXXZ
_TEXT	SEGMENT
?OnDblclkListAdd@CDlgSettingToolBar@@IAEXXZ PROC	; CDlgSettingToolBar::OnDblclkListAdd, COMDAT
; _this$ = ecx

; 648  : {

  00000	56		 push	 esi
; File C:\Program Files (x86)\Microsoft Visual Studio\2019\Community\VC\Tools\MSVC\14.29.30133\atlmfc\include\afxwin2.inl

; 765  : 	{ ASSERT(::IsWindow(m_hWnd)); return (int)::SendMessage(m_hWnd, CB_GETCURSEL, 0, 0); }

  00001	6a 00		 push	 0
; File D:\git\src\IBK\IBK_DRFN\ProjSrc\SrcDrfn\Chart\MULTICHART\DlgSettingToolBar.cpp

; 648  : {

  00003	8b f1		 mov	 esi, ecx
; File C:\Program Files (x86)\Microsoft Visual Studio\2019\Community\VC\Tools\MSVC\14.29.30133\atlmfc\include\afxwin2.inl

; 765  : 	{ ASSERT(::IsWindow(m_hWnd)); return (int)::SendMessage(m_hWnd, CB_GETCURSEL, 0, 0); }

  00005	6a 00		 push	 0
  00007	68 47 01 00 00	 push	 327			; 00000147H
  0000c	ff b6 68 02 00
	00		 push	 DWORD PTR [esi+616]
  00012	ff 15 00 00 00
	00		 call	 DWORD PTR __imp__SendMessageA@16
; File D:\git\src\IBK\IBK_DRFN\ProjSrc\SrcDrfn\Chart\MULTICHART\DlgSettingToolBar.cpp

; 651  : 	if(nCurSel == 0)

  00018	85 c0		 test	 eax, eax
  0001a	75 08		 jne	 SHORT $LN2@OnDblclkLi

; 652  : 		OnBtnAdd();

  0001c	8b ce		 mov	 ecx, esi
  0001e	5e		 pop	 esi
  0001f	e9 00 00 00 00	 jmp	 ?OnBtnAdd@CDlgSettingToolBar@@IAEXXZ ; CDlgSettingToolBar::OnBtnAdd
$LN2@OnDblclkLi:
  00024	5e		 pop	 esi

; 653  : }

  00025	c3		 ret	 0
?OnDblclkListAdd@CDlgSettingToolBar@@IAEXXZ ENDP	; CDlgSettingToolBar::OnDblclkListAdd
_TEXT	ENDS
; Function compile flags: /Ogtp
; File D:\git\src\IBK\IBK_DRFN\ProjSrc\SrcDrfn\Chart\MULTICHART\DlgSettingToolBar.cpp
; File C:\Program Files (x86)\Microsoft Visual Studio\2019\Community\VC\Tools\MSVC\14.29.30133\atlmfc\include\afxtempl.h
; File D:\git\src\IBK\IBK_DRFN\ProjSrc\SrcDrfn\Chart\MULTICHART\DlgSettingToolBar.cpp
; File C:\Program Files (x86)\Microsoft Visual Studio\2019\Community\VC\Tools\MSVC\14.29.30133\atlmfc\include\afxtempl.h
; File D:\git\src\IBK\IBK_DRFN\ProjSrc\SrcDrfn\Chart\MULTICHART\DlgSettingToolBar.cpp
; File C:\Program Files (x86)\Microsoft Visual Studio\2019\Community\VC\Tools\MSVC\14.29.30133\atlmfc\include\afxtempl.h
; File D:\git\src\IBK\IBK_DRFN\ProjSrc\SrcDrfn\Chart\MULTICHART\DlgSettingToolBar.cpp
; File C:\Program Files (x86)\Microsoft Visual Studio\2019\Community\VC\Tools\MSVC\14.29.30133\atlmfc\include\afxtempl.h
; File D:\git\src\IBK\IBK_DRFN\ProjSrc\SrcDrfn\Chart\MULTICHART\DlgSettingToolBar.cpp
; File C:\Program Files (x86)\Microsoft Visual Studio\2019\Community\VC\Tools\MSVC\14.29.30133\atlmfc\include\afxtempl.h
; File D:\git\src\IBK\IBK_DRFN\ProjSrc\SrcDrfn\Chart\MULTICHART\DlgSettingToolBar.cpp
; File C:\Program Files (x86)\Microsoft Visual Studio\2019\Community\VC\Tools\MSVC\14.29.30133\atlmfc\include\afxtempl.h
; File D:\git\src\IBK\IBK_DRFN\ProjSrc\SrcDrfn\Chart\MULTICHART\DlgSettingToolBar.cpp
; File C:\Program Files (x86)\Microsoft Visual Studio\2019\Community\VC\Tools\MSVC\14.29.30133\atlmfc\include\afxtempl.h
; File D:\git\src\IBK\IBK_DRFN\ProjSrc\SrcDrfn\Chart\MULTICHART\DlgSettingToolBar.cpp
; File C:\Program Files (x86)\Microsoft Visual Studio\2019\Community\VC\Tools\MSVC\14.29.30133\atlmfc\include\afxwin2.inl
; File D:\git\src\IBK\IBK_DRFN\ProjSrc\SrcDrfn\Chart\MULTICHART\DlgSettingToolBar.cpp
; File C:\Program Files (x86)\Microsoft Visual Studio\2019\Community\VC\Tools\MSVC\14.29.30133\atlmfc\include\afxtempl.h
; File D:\git\src\IBK\IBK_DRFN\ProjSrc\SrcDrfn\Chart\MULTICHART\DlgSettingToolBar.cpp
; File C:\Program Files (x86)\Microsoft Visual Studio\2019\Community\VC\Tools\MSVC\14.29.30133\atlmfc\include\afxtempl.h
; File D:\git\src\IBK\IBK_DRFN\ProjSrc\SrcDrfn\Chart\MULTICHART\DlgSettingToolBar.cpp
; File C:\Program Files (x86)\Microsoft Visual Studio\2019\Community\VC\Tools\MSVC\14.29.30133\atlmfc\include\afxtempl.h
; File D:\git\src\IBK\IBK_DRFN\ProjSrc\SrcDrfn\Chart\MULTICHART\DlgSettingToolBar.cpp
; File C:\Program Files (x86)\Microsoft Visual Studio\2019\Community\VC\Tools\MSVC\14.29.30133\atlmfc\include\afxtempl.h
; File D:\git\src\IBK\IBK_DRFN\ProjSrc\SrcDrfn\Chart\MULTICHART\DlgSettingToolBar.cpp
; File C:\Program Files (x86)\Microsoft Visual Studio\2019\Community\VC\Tools\MSVC\14.29.30133\atlmfc\include\afxtempl.h
; File D:\git\src\IBK\IBK_DRFN\ProjSrc\SrcDrfn\Chart\MULTICHART\DlgSettingToolBar.cpp
; File C:\Program Files (x86)\Microsoft Visual Studio\2019\Community\VC\Tools\MSVC\14.29.30133\atlmfc\include\afxtempl.h
; File D:\git\src\IBK\IBK_DRFN\ProjSrc\SrcDrfn\Chart\MULTICHART\DlgSettingToolBar.cpp
; File C:\Program Files (x86)\Microsoft Visual Studio\2019\Community\VC\Tools\MSVC\14.29.30133\atlmfc\include\afxtempl.h
; File D:\git\src\IBK\IBK_DRFN\ProjSrc\SrcDrfn\Chart\MULTICHART\DlgSettingToolBar.cpp
; File C:\Program Files (x86)\Microsoft Visual Studio\2019\Community\VC\Tools\MSVC\14.29.30133\atlmfc\include\afxtempl.h
; File D:\git\src\IBK\IBK_DRFN\ProjSrc\SrcDrfn\Chart\MULTICHART\DlgSettingToolBar.cpp
; File C:\Program Files (x86)\Microsoft Visual Studio\2019\Community\VC\Tools\MSVC\14.29.30133\atlmfc\include\afxtempl.h
; File D:\git\src\IBK\IBK_DRFN\ProjSrc\SrcDrfn\Chart\MULTICHART\DlgSettingToolBar.cpp
; File C:\Program Files (x86)\Microsoft Visual Studio\2019\Community\VC\Tools\MSVC\14.29.30133\atlmfc\include\afxtempl.h
; File D:\git\src\IBK\IBK_DRFN\ProjSrc\SrcDrfn\Chart\MULTICHART\DlgSettingToolBar.cpp
;	COMDAT ?OnBtnAddall@CDlgSettingToolBar@@IAEXXZ
_TEXT	SEGMENT
_nHashValue$2 = -52					; size = 4
_nHashBucket$3 = -52					; size = 4
_nHashBucket$4 = -48					; size = 4
_nHashValue$5 = -48					; size = 4
_nHashValue$6 = -44					; size = 4
_nHashBucket$7 = -44					; size = 4
_nHashBucket$8 = -40					; size = 4
_nHashValue$9 = -40					; size = 4
_this$1$ = -36						; size = 4
_this$1$ = -32						; size = 4
_nIndex$1$ = -28					; size = 4
_nIdx$1$ = -28						; size = 4
$T10 = -28						; size = 4
_nIdx$1$ = -24						; size = 4
$T11 = -24						; size = 4
_nKey$1$ = -20						; size = 4
_nKey$2$ = -20						; size = 4
_strFieldName$ = -16					; size = 4
__$EHRec$ = -12						; size = 12
?OnBtnAddall@CDlgSettingToolBar@@IAEXXZ PROC		; CDlgSettingToolBar::OnBtnAddall, COMDAT
; _this$ = ecx

; 608  : {

  00000	55		 push	 ebp
  00001	8b ec		 mov	 ebp, esp
  00003	6a ff		 push	 -1
  00005	68 00 00 00 00	 push	 __ehhandler$?OnBtnAddall@CDlgSettingToolBar@@IAEXXZ
  0000a	64 a1 00 00 00
	00		 mov	 eax, DWORD PTR fs:0
  00010	50		 push	 eax
  00011	83 ec 28	 sub	 esp, 40			; 00000028H
  00014	56		 push	 esi
  00015	57		 push	 edi
  00016	a1 00 00 00 00	 mov	 eax, DWORD PTR ___security_cookie
  0001b	33 c5		 xor	 eax, ebp
  0001d	50		 push	 eax
  0001e	8d 45 f4	 lea	 eax, DWORD PTR __$EHRec$[ebp]
  00021	64 a3 00 00 00
	00		 mov	 DWORD PTR fs:0, eax
  00027	8b f9		 mov	 edi, ecx
  00029	89 7d dc	 mov	 DWORD PTR _this$1$[ebp], edi

; 610  : 	CString strFieldName;

  0002c	8d 4d f0	 lea	 ecx, DWORD PTR _strFieldName$[ebp]
  0002f	ff 15 00 00 00
	00		 call	 DWORD PTR __imp_??0?$CStringT@DV?$StrTraitMFC_DLL@DV?$ChTraitsCRT@D@ATL@@@@@ATL@@QAE@XZ
; File C:\Program Files (x86)\Microsoft Visual Studio\2019\Community\VC\Tools\MSVC\14.29.30133\atlmfc\include\afxtempl.h

; 381  : 		if (m_pData != NULL)

  00035	8b 87 d8 00 00
	00		 mov	 eax, DWORD PTR [edi+216]
; File D:\git\src\IBK\IBK_DRFN\ProjSrc\SrcDrfn\Chart\MULTICHART\DlgSettingToolBar.cpp

; 610  : 	CString strFieldName;

  0003b	c7 45 fc 00 00
	00 00		 mov	 DWORD PTR __$EHRec$[ebp+8], 0
; File C:\Program Files (x86)\Microsoft Visual Studio\2019\Community\VC\Tools\MSVC\14.29.30133\atlmfc\include\afxtempl.h

; 381  : 		if (m_pData != NULL)

  00042	85 c0		 test	 eax, eax
  00044	74 13		 je	 SHORT $LN38@OnBtnAddal

; 382  : 		{
; 383  : 			for( int i = 0; i < m_nSize; i++ )
; 384  : 				(m_pData + i)->~TYPE();
; 385  : 			delete[] (BYTE*)m_pData;

  00046	50		 push	 eax
  00047	e8 00 00 00 00	 call	 ??_V@YAXPAX@Z		; operator delete[]
  0004c	83 c4 04	 add	 esp, 4

; 386  : 			m_pData = NULL;

  0004f	c7 87 d8 00 00
	00 00 00 00 00	 mov	 DWORD PTR [edi+216], 0
$LN38@OnBtnAddal:
; File D:\git\src\IBK\IBK_DRFN\ProjSrc\SrcDrfn\Chart\MULTICHART\DlgSettingToolBar.cpp

; 614  : 	m_mapUserList.RemoveAll();

  00059	8d b7 20 01 00
	00		 lea	 esi, DWORD PTR [edi+288]
; File C:\Program Files (x86)\Microsoft Visual Studio\2019\Community\VC\Tools\MSVC\14.29.30133\atlmfc\include\afxtempl.h

; 388  : 		m_nSize = m_nMaxSize = 0;

  0005f	c7 87 e0 00 00
	00 00 00 00 00	 mov	 DWORD PTR [edi+224], 0
; File D:\git\src\IBK\IBK_DRFN\ProjSrc\SrcDrfn\Chart\MULTICHART\DlgSettingToolBar.cpp

; 614  : 	m_mapUserList.RemoveAll();

  00069	8b ce		 mov	 ecx, esi
; File C:\Program Files (x86)\Microsoft Visual Studio\2019\Community\VC\Tools\MSVC\14.29.30133\atlmfc\include\afxtempl.h

; 388  : 		m_nSize = m_nMaxSize = 0;

  0006b	c7 87 dc 00 00
	00 00 00 00 00	 mov	 DWORD PTR [edi+220], 0
; File D:\git\src\IBK\IBK_DRFN\ProjSrc\SrcDrfn\Chart\MULTICHART\DlgSettingToolBar.cpp

; 614  : 	m_mapUserList.RemoveAll();

  00075	e8 00 00 00 00	 call	 ?RemoveAll@?$CMap@HHV?$CStringT@DV?$StrTraitMFC_DLL@DV?$ChTraitsCRT@D@ATL@@@@@ATL@@V12@@@QAEXXZ ; CMap<int,int,ATL::CStringT<char,StrTraitMFC_DLL<char,ATL::ChTraitsCRT<char> > >,ATL::CStringT<char,StrTraitMFC_DLL<char,ATL::ChTraitsCRT<char> > > >::RemoveAll
; File C:\Program Files (x86)\Microsoft Visual Studio\2019\Community\VC\Tools\MSVC\14.29.30133\atlmfc\include\afxtempl.h

; 333  : 	{ INT_PTR nIndex = m_nSize;

  0007a	8b 87 dc 00 00
	00		 mov	 eax, DWORD PTR [edi+220]
; File D:\git\src\IBK\IBK_DRFN\ProjSrc\SrcDrfn\Chart\MULTICHART\DlgSettingToolBar.cpp

; 617  : 	m_arrayUserIdx.Add(CHART_TOOL);	//

  00080	8d 8f d4 00 00
	00		 lea	 ecx, DWORD PTR [edi+212]
  00086	89 4d e0	 mov	 DWORD PTR _this$1$[ebp], ecx
; File C:\Program Files (x86)\Microsoft Visual Studio\2019\Community\VC\Tools\MSVC\14.29.30133\atlmfc\include\afxtempl.h

; 333  : 	{ INT_PTR nIndex = m_nSize;

  00089	89 45 e4	 mov	 DWORD PTR _nIndex$1$[ebp], eax

; 538  : 	if(nIndex < 0)

  0008c	85 c0		 test	 eax, eax
  0008e	0f 88 ea 03 00
	00		 js	 $LN180@OnBtnAddal

; 539  : 		AfxThrowInvalidArgException();
; 540  : 
; 541  : 	if (nIndex >= m_nSize)
; 542  : 		SetSize(nIndex+1, -1);

  00094	6a ff		 push	 -1
  00096	40		 inc	 eax
  00097	50		 push	 eax
  00098	e8 00 00 00 00	 call	 ?SetSize@?$CArray@HH@@QAEXHH@Z ; CArray<int,int>::SetSize

; 543  : 	m_pData[nIndex] = newElement;

  0009d	8b 4d e4	 mov	 ecx, DWORD PTR _nIndex$1$[ebp]
  000a0	8b 87 d8 00 00
	00		 mov	 eax, DWORD PTR [edi+216]
; File D:\git\src\IBK\IBK_DRFN\ProjSrc\SrcDrfn\Chart\MULTICHART\DlgSettingToolBar.cpp

; 618  : 	m_mapUserList.SetAt(CHART_TOOL, "");

  000a6	51		 push	 ecx
; File C:\Program Files (x86)\Microsoft Visual Studio\2019\Community\VC\Tools\MSVC\14.29.30133\atlmfc\include\afxtempl.h

; 543  : 	m_pData[nIndex] = newElement;

  000a7	c7 04 88 03 00
	00 00		 mov	 DWORD PTR [eax+ecx*4], 3
; File D:\git\src\IBK\IBK_DRFN\ProjSrc\SrcDrfn\Chart\MULTICHART\DlgSettingToolBar.cpp

; 618  : 	m_mapUserList.SetAt(CHART_TOOL, "");

  000ae	8b cc		 mov	 ecx, esp
  000b0	68 00 00 00 00	 push	 OFFSET ??_C@_0L@PPOMAPHP@?B?w?F?$KO?E?x?F?m?A?$PN@
  000b5	ff 15 00 00 00
	00		 call	 DWORD PTR __imp_??0?$CStringT@DV?$StrTraitMFC_DLL@DV?$ChTraitsCRT@D@ATL@@@@@ATL@@QAE@PBD@Z
  000bb	6a 03		 push	 3
  000bd	8b ce		 mov	 ecx, esi
  000bf	e8 00 00 00 00	 call	 ?SetAt@?$CMap@HHV?$CStringT@DV?$StrTraitMFC_DLL@DV?$ChTraitsCRT@D@ATL@@@@@ATL@@V12@@@QAEXHV?$CStringT@DV?$StrTraitMFC_DLL@DV?$ChTraitsCRT@D@ATL@@@@@ATL@@@Z ; CMap<int,int,ATL::CStringT<char,StrTraitMFC_DLL<char,ATL::ChTraitsCRT<char> > >,ATL::CStringT<char,StrTraitMFC_DLL<char,ATL::ChTraitsCRT<char> > > >::SetAt
; File C:\Program Files (x86)\Microsoft Visual Studio\2019\Community\VC\Tools\MSVC\14.29.30133\atlmfc\include\afxwin2.inl

; 765  : 	{ ASSERT(::IsWindow(m_hWnd)); return (int)::SendMessage(m_hWnd, CB_GETCURSEL, 0, 0); }

  000c4	6a 00		 push	 0
  000c6	6a 00		 push	 0
  000c8	68 47 01 00 00	 push	 327			; 00000147H
  000cd	ff b7 e8 02 00
	00		 push	 DWORD PTR [edi+744]
  000d3	ff 15 00 00 00
	00		 call	 DWORD PTR __imp__SendMessageA@16
; File D:\git\src\IBK\IBK_DRFN\ProjSrc\SrcDrfn\Chart\MULTICHART\DlgSettingToolBar.cpp

; 621  : 	if(0 ==nCmbCurSel)		// Anal

  000d9	85 c0		 test	 eax, eax
  000db	0f 85 b8 01 00
	00		 jne	 $LN8@OnBtnAddal

; 623  : 		for (int nIdx=0; nIdx<m_arrayAnalIdx.GetSize(); nIdx++)

  000e1	8b 87 b4 00 00
	00		 mov	 eax, DWORD PTR [edi+180]
  000e7	33 c9		 xor	 ecx, ecx
  000e9	89 4d e4	 mov	 DWORD PTR _nIdx$1$[ebp], ecx
  000ec	85 c0		 test	 eax, eax
  000ee	0f 8e 61 03 00
	00		 jle	 $LN6@OnBtnAddal
$LL4@OnBtnAddal:
; File C:\Program Files (x86)\Microsoft Visual Studio\2019\Community\VC\Tools\MSVC\14.29.30133\atlmfc\include\afxtempl.h

; 288  : 	if(nIndex >= 0 && nIndex < m_nSize)

  000f4	85 c9		 test	 ecx, ecx
  000f6	0f 88 82 03 00
	00		 js	 $LN180@OnBtnAddal
  000fc	3b c8		 cmp	 ecx, eax
  000fe	0f 8d 7a 03 00
	00		 jge	 $LN180@OnBtnAddal

; 289  : 		return m_pData[nIndex];

  00104	8b 87 b0 00 00
	00		 mov	 eax, DWORD PTR [edi+176]
; File D:\git\src\IBK\IBK_DRFN\ProjSrc\SrcDrfn\Chart\MULTICHART\DlgSettingToolBar.cpp

; 625  : 			nKey = m_arrayAnalIdx.GetAt(nIdx);

  0010a	8b 04 88	 mov	 eax, DWORD PTR [eax+ecx*4]
; File C:\Program Files (x86)\Microsoft Visual Studio\2019\Community\VC\Tools\MSVC\14.29.30133\atlmfc\include\afxtempl.h

; 1555 : 	CAssoc* pAssoc = GetAssocAt(key, nHashBucket, nHashValue);

  0010d	8d 4d d0	 lea	 ecx, DWORD PTR _nHashValue$5[ebp]
  00110	51		 push	 ecx
  00111	8d 4d cc	 lea	 ecx, DWORD PTR _nHashBucket$3[ebp]
; File D:\git\src\IBK\IBK_DRFN\ProjSrc\SrcDrfn\Chart\MULTICHART\DlgSettingToolBar.cpp

; 625  : 			nKey = m_arrayAnalIdx.GetAt(nIdx);

  00114	89 45 ec	 mov	 DWORD PTR _nKey$1$[ebp], eax
; File C:\Program Files (x86)\Microsoft Visual Studio\2019\Community\VC\Tools\MSVC\14.29.30133\atlmfc\include\afxtempl.h

; 1555 : 	CAssoc* pAssoc = GetAssocAt(key, nHashBucket, nHashValue);

  00117	51		 push	 ecx
  00118	50		 push	 eax
; File D:\git\src\IBK\IBK_DRFN\ProjSrc\SrcDrfn\Chart\MULTICHART\DlgSettingToolBar.cpp

; 626  : 			m_mapAnalList.Lookup(nKey, strFieldName);

  00119	8d 8f e8 00 00
	00		 lea	 ecx, DWORD PTR [edi+232]
; File C:\Program Files (x86)\Microsoft Visual Studio\2019\Community\VC\Tools\MSVC\14.29.30133\atlmfc\include\afxtempl.h

; 1555 : 	CAssoc* pAssoc = GetAssocAt(key, nHashBucket, nHashValue);

  0011f	e8 00 00 00 00	 call	 ?GetAssocAt@?$CMap@HHV?$CStringT@DV?$StrTraitMFC_DLL@DV?$ChTraitsCRT@D@ATL@@@@@ATL@@V12@@@IBEPAVCAssoc@1@HAAI0@Z ; CMap<int,int,ATL::CStringT<char,StrTraitMFC_DLL<char,ATL::ChTraitsCRT<char> > >,ATL::CStringT<char,StrTraitMFC_DLL<char,ATL::ChTraitsCRT<char> > > >::GetAssocAt

; 1556 : 	if (pAssoc == NULL)

  00124	85 c0		 test	 eax, eax
  00126	74 0d		 je	 SHORT $LN79@OnBtnAddal

; 1557 : 		return FALSE;  // not in map
; 1558 : 
; 1559 : 	rValue = pAssoc->value;

  00128	83 c0 04	 add	 eax, 4
  0012b	8d 4d f0	 lea	 ecx, DWORD PTR _strFieldName$[ebp]
  0012e	50		 push	 eax
  0012f	ff 15 00 00 00
	00		 call	 DWORD PTR __imp_??4?$CStringT@DV?$StrTraitMFC_DLL@DV?$ChTraitsCRT@D@ATL@@@@@ATL@@QAEAAV01@ABV01@@Z
$LN79@OnBtnAddal:

; 333  : 	{ INT_PTR nIndex = m_nSize;

  00135	8d 8f d4 00 00
	00		 lea	 ecx, DWORD PTR [edi+212]
  0013b	8b 79 08	 mov	 edi, DWORD PTR [ecx+8]

; 538  : 	if(nIndex < 0)

  0013e	85 ff		 test	 edi, edi
  00140	0f 88 38 03 00
	00		 js	 $LN180@OnBtnAddal

; 539  : 		AfxThrowInvalidArgException();
; 540  : 
; 541  : 	if (nIndex >= m_nSize)
; 542  : 		SetSize(nIndex+1, -1);

  00146	6a ff		 push	 -1
  00148	8d 47 01	 lea	 eax, DWORD PTR [edi+1]
  0014b	50		 push	 eax
  0014c	e8 00 00 00 00	 call	 ?SetSize@?$CArray@HH@@QAEXHH@Z ; CArray<int,int>::SetSize

; 543  : 	m_pData[nIndex] = newElement;

  00151	8b 4d e0	 mov	 ecx, DWORD PTR _this$1$[ebp]
  00154	8b 41 04	 mov	 eax, DWORD PTR [ecx+4]
  00157	8b 4d ec	 mov	 ecx, DWORD PTR _nKey$1$[ebp]
  0015a	89 0c b8	 mov	 DWORD PTR [eax+edi*4], ecx
; File D:\git\src\IBK\IBK_DRFN\ProjSrc\SrcDrfn\Chart\MULTICHART\DlgSettingToolBar.cpp

; 629  : 			m_mapUserList.SetAt(nKey, strFieldName);

  0015d	8d 45 f0	 lea	 eax, DWORD PTR _strFieldName$[ebp]
  00160	50		 push	 eax
  00161	8d 4d e8	 lea	 ecx, DWORD PTR $T11[ebp]
  00164	ff 15 00 00 00
	00		 call	 DWORD PTR __imp_??0?$CStringT@DV?$StrTraitMFC_DLL@DV?$ChTraitsCRT@D@ATL@@@@@ATL@@QAE@ABV01@@Z
; File C:\Program Files (x86)\Microsoft Visual Studio\2019\Community\VC\Tools\MSVC\14.29.30133\atlmfc\include\afxtempl.h

; 1590 : 	if ((pAssoc = GetAssocAt(key, nHashBucket, nHashValue)) == NULL)

  0016a	8d 45 d8	 lea	 eax, DWORD PTR _nHashValue$9[ebp]

; 1350 : 	{ (*this)[key] = newValue; }

  0016d	c6 45 fc 01	 mov	 BYTE PTR __$EHRec$[ebp+8], 1

; 1590 : 	if ((pAssoc = GetAssocAt(key, nHashBucket, nHashValue)) == NULL)

  00171	50		 push	 eax
  00172	8d 45 d4	 lea	 eax, DWORD PTR _nHashBucket$7[ebp]
  00175	8b ce		 mov	 ecx, esi
  00177	50		 push	 eax
  00178	ff 75 ec	 push	 DWORD PTR _nKey$1$[ebp]
  0017b	e8 00 00 00 00	 call	 ?GetAssocAt@?$CMap@HHV?$CStringT@DV?$StrTraitMFC_DLL@DV?$ChTraitsCRT@D@ATL@@@@@ATL@@V12@@@IBEPAVCAssoc@1@HAAI0@Z ; CMap<int,int,ATL::CStringT<char,StrTraitMFC_DLL<char,ATL::ChTraitsCRT<char> > >,ATL::CStringT<char,StrTraitMFC_DLL<char,ATL::ChTraitsCRT<char> > > >::GetAssocAt
  00180	8b f8		 mov	 edi, eax
  00182	85 ff		 test	 edi, edi
  00184	0f 85 d8 00 00
	00		 jne	 $LN96@OnBtnAddal

; 1591 : 	{
; 1592 : 		if (m_pHashTable == NULL)

  0018a	8b 46 04	 mov	 eax, DWORD PTR [esi+4]
  0018d	85 c0		 test	 eax, eax
  0018f	75 4a		 jne	 SHORT $LN205@OnBtnAddal

; 1593 : 			InitHashTable(m_nHashTableSize);

  00191	8b 7e 08	 mov	 edi, DWORD PTR [esi+8]

; 1434 : 		m_pHashTable = new CAssoc* [nHashSize];

  00194	33 c9		 xor	 ecx, ecx
  00196	8b c7		 mov	 eax, edi
  00198	ba 04 00 00 00	 mov	 edx, 4
  0019d	f7 e2		 mul	 edx
  0019f	0f 90 c1	 seto	 cl
  001a2	f7 d9		 neg	 ecx
  001a4	0b c8		 or	 ecx, eax
  001a6	51		 push	 ecx
  001a7	e8 00 00 00 00	 call	 ??_U@YAPAXI@Z		; operator new[]
  001ac	83 c4 04	 add	 esp, 4
  001af	89 46 04	 mov	 DWORD PTR [esi+4], eax

; 1435 : 		ENSURE(m_pHashTable != NULL);

  001b2	85 c0		 test	 eax, eax
  001b4	0f 84 c4 02 00
	00		 je	 $LN180@OnBtnAddal

; 1436 : 		memset(m_pHashTable, 0, sizeof(CAssoc*) * nHashSize);

  001ba	8d 0c bd 00 00
	00 00		 lea	 ecx, DWORD PTR [edi*4]
  001c1	51		 push	 ecx
  001c2	6a 00		 push	 0
  001c4	50		 push	 eax
  001c5	e8 00 00 00 00	 call	 _memset

; 1437 : 	}
; 1438 : 	m_nHashTableSize = nHashSize;

  001ca	8b 46 04	 mov	 eax, DWORD PTR [esi+4]
  001cd	83 c4 0c	 add	 esp, 12			; 0000000cH
  001d0	89 7e 08	 mov	 DWORD PTR [esi+8], edi

; 1595 : 		ENSURE(m_pHashTable);

  001d3	85 c0		 test	 eax, eax
  001d5	0f 84 a3 02 00
	00		 je	 $LN180@OnBtnAddal
$LN205@OnBtnAddal:

; 1481 : 	if (m_pFreeList == NULL)

  001db	83 7e 10 00	 cmp	 DWORD PTR [esi+16], 0
  001df	75 31		 jne	 SHORT $LN115@OnBtnAddal

; 1482 : 	{
; 1483 : 		// add another block
; 1484 : 		CPlex* newBlock = CPlex::Create(m_pBlocks, m_nBlockSize, sizeof(CMap::CAssoc));

  001e1	6a 10		 push	 16			; 00000010H
  001e3	ff 76 18	 push	 DWORD PTR [esi+24]
  001e6	8d 46 14	 lea	 eax, DWORD PTR [esi+20]
  001e9	50		 push	 eax
  001ea	e8 00 00 00 00	 call	 ?Create@CPlex@@SGPAU1@AAPAU1@II@Z ; CPlex::Create

; 1485 : 		// chain them into free list
; 1486 : 		CMap::CAssoc* pAssoc = (CMap::CAssoc*) newBlock->data();
; 1487 : 		// free in reverse order to make it easier to debug
; 1488 : 		pAssoc += m_nBlockSize - 1;

  001ef	8b 56 18	 mov	 edx, DWORD PTR [esi+24]
  001f2	8b ca		 mov	 ecx, edx
  001f4	c1 e1 04	 shl	 ecx, 4
  001f7	83 c1 f8	 add	 ecx, -8			; fffffff8H
  001fa	03 c8		 add	 ecx, eax

; 1489 : 		for (INT_PTR i = m_nBlockSize-1; i >= 0; i--, pAssoc--)

  001fc	83 c2 ff	 add	 edx, -1
  001ff	78 11		 js	 SHORT $LN115@OnBtnAddal
$LL112@OnBtnAddal:

; 1490 : 		{
; 1491 : 			pAssoc->pNext = m_pFreeList;

  00201	8b 46 10	 mov	 eax, DWORD PTR [esi+16]
  00204	89 41 08	 mov	 DWORD PTR [ecx+8], eax

; 1492 : 			m_pFreeList = pAssoc;

  00207	89 4e 10	 mov	 DWORD PTR [esi+16], ecx
  0020a	83 e9 10	 sub	 ecx, 16			; 00000010H
  0020d	83 ea 01	 sub	 edx, 1
  00210	79 ef		 jns	 SHORT $LL112@OnBtnAddal
$LN115@OnBtnAddal:

; 1493 : 		}
; 1494 : 	}
; 1495 : 	ENSURE(m_pFreeList != NULL);  // we must have something

  00212	8b 7e 10	 mov	 edi, DWORD PTR [esi+16]
  00215	85 ff		 test	 edi, edi
  00217	0f 84 61 02 00
	00		 je	 $LN180@OnBtnAddal

; 1496 : 
; 1497 : 	CMap::CAssoc* pAssoc = m_pFreeList;
; 1498 : 
; 1499 : 	// zero the memory
; 1500 : 	CMap::CAssoc* pTemp = pAssoc->pNext;

  0021d	8b 47 08	 mov	 eax, DWORD PTR [edi+8]

; 1256 : 		CPair( ARG_KEY keyval ) : key( keyval )	{}

  00220	8d 4f 04	 lea	 ecx, DWORD PTR [edi+4]
  00223	0f 57 c0	 xorps	 xmm0, xmm0

; 1501 : 	memset( pAssoc, 0, sizeof(CMap::CAssoc) );

  00226	0f 11 07	 movups	 XMMWORD PTR [edi], xmm0

; 1502 : 	pAssoc->pNext = pTemp;

  00229	89 47 08	 mov	 DWORD PTR [edi+8], eax

; 1503 : 
; 1504 : 	m_pFreeList = m_pFreeList->pNext;

  0022c	8b 46 10	 mov	 eax, DWORD PTR [esi+16]
  0022f	8b 40 08	 mov	 eax, DWORD PTR [eax+8]

; 1505 : 	m_nCount++;

  00232	ff 46 0c	 inc	 DWORD PTR [esi+12]
  00235	89 46 10	 mov	 DWORD PTR [esi+16], eax

; 1256 : 		CPair( ARG_KEY keyval ) : key( keyval )	{}

  00238	8b 45 ec	 mov	 eax, DWORD PTR _nKey$1$[ebp]
  0023b	89 07		 mov	 DWORD PTR [edi], eax
  0023d	ff 15 00 00 00
	00		 call	 DWORD PTR __imp_??0?$CStringT@DV?$StrTraitMFC_DLL@DV?$ChTraitsCRT@D@ATL@@@@@ATL@@QAE@XZ

; 1598 : 		pAssoc->nHashValue = nHashValue;

  00243	8b 45 d8	 mov	 eax, DWORD PTR _nHashValue$9[ebp]
  00246	89 47 0c	 mov	 DWORD PTR [edi+12], eax

; 1599 : 		//'pAssoc->value' is a constructed object, nothing more
; 1600 : 
; 1601 : 		// put into hash table
; 1602 : 		pAssoc->pNext = m_pHashTable[nHashBucket];

  00249	8b 45 d4	 mov	 eax, DWORD PTR _nHashBucket$7[ebp]
  0024c	8d 0c 85 00 00
	00 00		 lea	 ecx, DWORD PTR [eax*4]
  00253	8b 46 04	 mov	 eax, DWORD PTR [esi+4]
  00256	8b 04 01	 mov	 eax, DWORD PTR [ecx+eax]
  00259	89 47 08	 mov	 DWORD PTR [edi+8], eax

; 1603 : 		m_pHashTable[nHashBucket] = pAssoc;

  0025c	8b 46 04	 mov	 eax, DWORD PTR [esi+4]
  0025f	89 3c 01	 mov	 DWORD PTR [ecx+eax], edi
$LN96@OnBtnAddal:

; 1350 : 	{ (*this)[key] = newValue; }

  00262	8d 45 e8	 lea	 eax, DWORD PTR $T11[ebp]

; 1605 : 	return pAssoc->value;  // return new reference

  00265	8d 4f 04	 lea	 ecx, DWORD PTR [edi+4]

; 1350 : 	{ (*this)[key] = newValue; }

  00268	50		 push	 eax
  00269	ff 15 00 00 00
	00		 call	 DWORD PTR __imp_??4?$CStringT@DV?$StrTraitMFC_DLL@DV?$ChTraitsCRT@D@ATL@@@@@ATL@@QAEAAV01@ABV01@@Z
  0026f	8d 4d e8	 lea	 ecx, DWORD PTR $T11[ebp]
  00272	c6 45 fc 00	 mov	 BYTE PTR __$EHRec$[ebp+8], 0
  00276	ff 15 00 00 00
	00		 call	 DWORD PTR __imp_??1?$CStringT@DV?$StrTraitMFC_DLL@DV?$ChTraitsCRT@D@ATL@@@@@ATL@@QAE@XZ
; File D:\git\src\IBK\IBK_DRFN\ProjSrc\SrcDrfn\Chart\MULTICHART\DlgSettingToolBar.cpp

; 623  : 		for (int nIdx=0; nIdx<m_arrayAnalIdx.GetSize(); nIdx++)

  0027c	8b 7d dc	 mov	 edi, DWORD PTR _this$1$[ebp]
  0027f	8b 4d e4	 mov	 ecx, DWORD PTR _nIdx$1$[ebp]
  00282	41		 inc	 ecx
  00283	89 4d e4	 mov	 DWORD PTR _nIdx$1$[ebp], ecx
  00286	8b 87 b4 00 00
	00		 mov	 eax, DWORD PTR [edi+180]
  0028c	3b c8		 cmp	 ecx, eax
  0028e	0f 8c 60 fe ff
	ff		 jl	 $LL4@OnBtnAddal
  00294	e9 bc 01 00 00	 jmp	 $LN6@OnBtnAddal
$LN8@OnBtnAddal:

; 630  : 		}
; 631  : 	}
; 632  : 	else if(1 == nCmbCurSel)	// Addition

  00299	83 f8 01	 cmp	 eax, 1
  0029c	0f 85 b3 01 00
	00		 jne	 $LN6@OnBtnAddal

; 634  : 		for (int nIdx=0; nIdx<m_arrayAdditionIdx.GetSize(); nIdx++)

  002a2	8b 87 c8 00 00
	00		 mov	 eax, DWORD PTR [edi+200]
  002a8	33 c9		 xor	 ecx, ecx
  002aa	89 4d e8	 mov	 DWORD PTR _nIdx$1$[ebp], ecx
  002ad	85 c0		 test	 eax, eax
  002af	0f 8e a0 01 00
	00		 jle	 $LN6@OnBtnAddal
$LL7@OnBtnAddal:
; File C:\Program Files (x86)\Microsoft Visual Studio\2019\Community\VC\Tools\MSVC\14.29.30133\atlmfc\include\afxtempl.h

; 288  : 	if(nIndex >= 0 && nIndex < m_nSize)

  002b5	85 c9		 test	 ecx, ecx
  002b7	0f 88 c1 01 00
	00		 js	 $LN180@OnBtnAddal
  002bd	3b c8		 cmp	 ecx, eax
  002bf	0f 8d b9 01 00
	00		 jge	 $LN180@OnBtnAddal

; 289  : 		return m_pData[nIndex];

  002c5	8b 87 c4 00 00
	00		 mov	 eax, DWORD PTR [edi+196]
; File D:\git\src\IBK\IBK_DRFN\ProjSrc\SrcDrfn\Chart\MULTICHART\DlgSettingToolBar.cpp

; 636  : 			nKey = m_arrayAdditionIdx.GetAt(nIdx);

  002cb	8b 04 88	 mov	 eax, DWORD PTR [eax+ecx*4]
; File C:\Program Files (x86)\Microsoft Visual Studio\2019\Community\VC\Tools\MSVC\14.29.30133\atlmfc\include\afxtempl.h

; 1555 : 	CAssoc* pAssoc = GetAssocAt(key, nHashBucket, nHashValue);

  002ce	8d 4d cc	 lea	 ecx, DWORD PTR _nHashValue$2[ebp]
  002d1	51		 push	 ecx
  002d2	8d 4d d0	 lea	 ecx, DWORD PTR _nHashBucket$4[ebp]
; File D:\git\src\IBK\IBK_DRFN\ProjSrc\SrcDrfn\Chart\MULTICHART\DlgSettingToolBar.cpp

; 636  : 			nKey = m_arrayAdditionIdx.GetAt(nIdx);

  002d5	89 45 ec	 mov	 DWORD PTR _nKey$2$[ebp], eax
; File C:\Program Files (x86)\Microsoft Visual Studio\2019\Community\VC\Tools\MSVC\14.29.30133\atlmfc\include\afxtempl.h

; 1555 : 	CAssoc* pAssoc = GetAssocAt(key, nHashBucket, nHashValue);

  002d8	51		 push	 ecx
  002d9	50		 push	 eax
; File D:\git\src\IBK\IBK_DRFN\ProjSrc\SrcDrfn\Chart\MULTICHART\DlgSettingToolBar.cpp

; 637  : 			m_mapAdditionList.Lookup(nKey, strFieldName);

  002da	8d 8f 04 01 00
	00		 lea	 ecx, DWORD PTR [edi+260]
; File C:\Program Files (x86)\Microsoft Visual Studio\2019\Community\VC\Tools\MSVC\14.29.30133\atlmfc\include\afxtempl.h

; 1555 : 	CAssoc* pAssoc = GetAssocAt(key, nHashBucket, nHashValue);

  002e0	e8 00 00 00 00	 call	 ?GetAssocAt@?$CMap@HHV?$CStringT@DV?$StrTraitMFC_DLL@DV?$ChTraitsCRT@D@ATL@@@@@ATL@@V12@@@IBEPAVCAssoc@1@HAAI0@Z ; CMap<int,int,ATL::CStringT<char,StrTraitMFC_DLL<char,ATL::ChTraitsCRT<char> > >,ATL::CStringT<char,StrTraitMFC_DLL<char,ATL::ChTraitsCRT<char> > > >::GetAssocAt

; 1556 : 	if (pAssoc == NULL)

  002e5	85 c0		 test	 eax, eax
  002e7	74 0d		 je	 SHORT $LN127@OnBtnAddal

; 1557 : 		return FALSE;  // not in map
; 1558 : 
; 1559 : 	rValue = pAssoc->value;

  002e9	83 c0 04	 add	 eax, 4
  002ec	8d 4d f0	 lea	 ecx, DWORD PTR _strFieldName$[ebp]
  002ef	50		 push	 eax
  002f0	ff 15 00 00 00
	00		 call	 DWORD PTR __imp_??4?$CStringT@DV?$StrTraitMFC_DLL@DV?$ChTraitsCRT@D@ATL@@@@@ATL@@QAEAAV01@ABV01@@Z
$LN127@OnBtnAddal:

; 333  : 	{ INT_PTR nIndex = m_nSize;

  002f6	8d 8f d4 00 00
	00		 lea	 ecx, DWORD PTR [edi+212]
  002fc	8b 79 08	 mov	 edi, DWORD PTR [ecx+8]

; 538  : 	if(nIndex < 0)

  002ff	85 ff		 test	 edi, edi
  00301	0f 88 77 01 00
	00		 js	 $LN180@OnBtnAddal

; 539  : 		AfxThrowInvalidArgException();
; 540  : 
; 541  : 	if (nIndex >= m_nSize)
; 542  : 		SetSize(nIndex+1, -1);

  00307	6a ff		 push	 -1
  00309	8d 47 01	 lea	 eax, DWORD PTR [edi+1]
  0030c	50		 push	 eax
  0030d	e8 00 00 00 00	 call	 ?SetSize@?$CArray@HH@@QAEXHH@Z ; CArray<int,int>::SetSize

; 543  : 	m_pData[nIndex] = newElement;

  00312	8b 4d e0	 mov	 ecx, DWORD PTR _this$1$[ebp]
  00315	8b 41 04	 mov	 eax, DWORD PTR [ecx+4]
  00318	8b 4d ec	 mov	 ecx, DWORD PTR _nKey$2$[ebp]
  0031b	89 0c b8	 mov	 DWORD PTR [eax+edi*4], ecx
; File D:\git\src\IBK\IBK_DRFN\ProjSrc\SrcDrfn\Chart\MULTICHART\DlgSettingToolBar.cpp

; 640  : 			m_mapUserList.SetAt(nKey, strFieldName);

  0031e	8d 45 f0	 lea	 eax, DWORD PTR _strFieldName$[ebp]
  00321	50		 push	 eax
  00322	8d 4d e4	 lea	 ecx, DWORD PTR $T10[ebp]
  00325	ff 15 00 00 00
	00		 call	 DWORD PTR __imp_??0?$CStringT@DV?$StrTraitMFC_DLL@DV?$ChTraitsCRT@D@ATL@@@@@ATL@@QAE@ABV01@@Z
; File C:\Program Files (x86)\Microsoft Visual Studio\2019\Community\VC\Tools\MSVC\14.29.30133\atlmfc\include\afxtempl.h

; 1590 : 	if ((pAssoc = GetAssocAt(key, nHashBucket, nHashValue)) == NULL)

  0032b	8d 45 d4	 lea	 eax, DWORD PTR _nHashValue$6[ebp]

; 1350 : 	{ (*this)[key] = newValue; }

  0032e	c6 45 fc 02	 mov	 BYTE PTR __$EHRec$[ebp+8], 2

; 1590 : 	if ((pAssoc = GetAssocAt(key, nHashBucket, nHashValue)) == NULL)

  00332	50		 push	 eax
  00333	8d 45 d8	 lea	 eax, DWORD PTR _nHashBucket$8[ebp]
  00336	8b ce		 mov	 ecx, esi
  00338	50		 push	 eax
  00339	ff 75 ec	 push	 DWORD PTR _nKey$2$[ebp]
  0033c	e8 00 00 00 00	 call	 ?GetAssocAt@?$CMap@HHV?$CStringT@DV?$StrTraitMFC_DLL@DV?$ChTraitsCRT@D@ATL@@@@@ATL@@V12@@@IBEPAVCAssoc@1@HAAI0@Z ; CMap<int,int,ATL::CStringT<char,StrTraitMFC_DLL<char,ATL::ChTraitsCRT<char> > >,ATL::CStringT<char,StrTraitMFC_DLL<char,ATL::ChTraitsCRT<char> > > >::GetAssocAt
  00341	8b f8		 mov	 edi, eax
  00343	85 ff		 test	 edi, edi
  00345	0f 85 d8 00 00
	00		 jne	 $LN144@OnBtnAddal

; 1591 : 	{
; 1592 : 		if (m_pHashTable == NULL)

  0034b	8b 46 04	 mov	 eax, DWORD PTR [esi+4]
  0034e	85 c0		 test	 eax, eax
  00350	75 4a		 jne	 SHORT $LN207@OnBtnAddal

; 1593 : 			InitHashTable(m_nHashTableSize);

  00352	8b 7e 08	 mov	 edi, DWORD PTR [esi+8]

; 1434 : 		m_pHashTable = new CAssoc* [nHashSize];

  00355	33 c9		 xor	 ecx, ecx
  00357	8b c7		 mov	 eax, edi
  00359	ba 04 00 00 00	 mov	 edx, 4
  0035e	f7 e2		 mul	 edx
  00360	0f 90 c1	 seto	 cl
  00363	f7 d9		 neg	 ecx
  00365	0b c8		 or	 ecx, eax
  00367	51		 push	 ecx
  00368	e8 00 00 00 00	 call	 ??_U@YAPAXI@Z		; operator new[]
  0036d	83 c4 04	 add	 esp, 4
  00370	89 46 04	 mov	 DWORD PTR [esi+4], eax

; 1435 : 		ENSURE(m_pHashTable != NULL);

  00373	85 c0		 test	 eax, eax
  00375	0f 84 03 01 00
	00		 je	 $LN180@OnBtnAddal

; 1436 : 		memset(m_pHashTable, 0, sizeof(CAssoc*) * nHashSize);

  0037b	8d 0c bd 00 00
	00 00		 lea	 ecx, DWORD PTR [edi*4]
  00382	51		 push	 ecx
  00383	6a 00		 push	 0
  00385	50		 push	 eax
  00386	e8 00 00 00 00	 call	 _memset

; 1437 : 	}
; 1438 : 	m_nHashTableSize = nHashSize;

  0038b	8b 46 04	 mov	 eax, DWORD PTR [esi+4]
  0038e	83 c4 0c	 add	 esp, 12			; 0000000cH
  00391	89 7e 08	 mov	 DWORD PTR [esi+8], edi

; 1595 : 		ENSURE(m_pHashTable);

  00394	85 c0		 test	 eax, eax
  00396	0f 84 e2 00 00
	00		 je	 $LN180@OnBtnAddal
$LN207@OnBtnAddal:

; 1481 : 	if (m_pFreeList == NULL)

  0039c	83 7e 10 00	 cmp	 DWORD PTR [esi+16], 0
  003a0	75 31		 jne	 SHORT $LN163@OnBtnAddal

; 1482 : 	{
; 1483 : 		// add another block
; 1484 : 		CPlex* newBlock = CPlex::Create(m_pBlocks, m_nBlockSize, sizeof(CMap::CAssoc));

  003a2	6a 10		 push	 16			; 00000010H
  003a4	ff 76 18	 push	 DWORD PTR [esi+24]
  003a7	8d 46 14	 lea	 eax, DWORD PTR [esi+20]
  003aa	50		 push	 eax
  003ab	e8 00 00 00 00	 call	 ?Create@CPlex@@SGPAU1@AAPAU1@II@Z ; CPlex::Create

; 1485 : 		// chain them into free list
; 1486 : 		CMap::CAssoc* pAssoc = (CMap::CAssoc*) newBlock->data();
; 1487 : 		// free in reverse order to make it easier to debug
; 1488 : 		pAssoc += m_nBlockSize - 1;

  003b0	8b 56 18	 mov	 edx, DWORD PTR [esi+24]
  003b3	8b ca		 mov	 ecx, edx
  003b5	c1 e1 04	 shl	 ecx, 4
  003b8	83 c1 f8	 add	 ecx, -8			; fffffff8H
  003bb	03 c8		 add	 ecx, eax

; 1489 : 		for (INT_PTR i = m_nBlockSize-1; i >= 0; i--, pAssoc--)

  003bd	83 c2 ff	 add	 edx, -1
  003c0	78 11		 js	 SHORT $LN163@OnBtnAddal
$LL160@OnBtnAddal:

; 1490 : 		{
; 1491 : 			pAssoc->pNext = m_pFreeList;

  003c2	8b 46 10	 mov	 eax, DWORD PTR [esi+16]
  003c5	89 41 08	 mov	 DWORD PTR [ecx+8], eax

; 1492 : 			m_pFreeList = pAssoc;

  003c8	89 4e 10	 mov	 DWORD PTR [esi+16], ecx
  003cb	83 e9 10	 sub	 ecx, 16			; 00000010H
  003ce	83 ea 01	 sub	 edx, 1
  003d1	79 ef		 jns	 SHORT $LL160@OnBtnAddal
$LN163@OnBtnAddal:

; 1493 : 		}
; 1494 : 	}
; 1495 : 	ENSURE(m_pFreeList != NULL);  // we must have something

  003d3	8b 7e 10	 mov	 edi, DWORD PTR [esi+16]
  003d6	85 ff		 test	 edi, edi
  003d8	0f 84 a0 00 00
	00		 je	 $LN180@OnBtnAddal

; 1496 : 
; 1497 : 	CMap::CAssoc* pAssoc = m_pFreeList;
; 1498 : 
; 1499 : 	// zero the memory
; 1500 : 	CMap::CAssoc* pTemp = pAssoc->pNext;

  003de	8b 47 08	 mov	 eax, DWORD PTR [edi+8]

; 1256 : 		CPair( ARG_KEY keyval ) : key( keyval )	{}

  003e1	8d 4f 04	 lea	 ecx, DWORD PTR [edi+4]
  003e4	0f 57 c0	 xorps	 xmm0, xmm0

; 1501 : 	memset( pAssoc, 0, sizeof(CMap::CAssoc) );

  003e7	0f 11 07	 movups	 XMMWORD PTR [edi], xmm0

; 1502 : 	pAssoc->pNext = pTemp;

  003ea	89 47 08	 mov	 DWORD PTR [edi+8], eax

; 1503 : 
; 1504 : 	m_pFreeList = m_pFreeList->pNext;

  003ed	8b 46 10	 mov	 eax, DWORD PTR [esi+16]
  003f0	8b 40 08	 mov	 eax, DWORD PTR [eax+8]

; 1505 : 	m_nCount++;

  003f3	ff 46 0c	 inc	 DWORD PTR [esi+12]
  003f6	89 46 10	 mov	 DWORD PTR [esi+16], eax

; 1256 : 		CPair( ARG_KEY keyval ) : key( keyval )	{}

  003f9	8b 45 ec	 mov	 eax, DWORD PTR _nKey$2$[ebp]
  003fc	89 07		 mov	 DWORD PTR [edi], eax
  003fe	ff 15 00 00 00
	00		 call	 DWORD PTR __imp_??0?$CStringT@DV?$StrTraitMFC_DLL@DV?$ChTraitsCRT@D@ATL@@@@@ATL@@QAE@XZ

; 1598 : 		pAssoc->nHashValue = nHashValue;

  00404	8b 45 d4	 mov	 eax, DWORD PTR _nHashValue$6[ebp]
  00407	89 47 0c	 mov	 DWORD PTR [edi+12], eax

; 1599 : 		//'pAssoc->value' is a constructed object, nothing more
; 1600 : 
; 1601 : 		// put into hash table
; 1602 : 		pAssoc->pNext = m_pHashTable[nHashBucket];

  0040a	8b 45 d8	 mov	 eax, DWORD PTR _nHashBucket$8[ebp]
  0040d	8d 0c 85 00 00
	00 00		 lea	 ecx, DWORD PTR [eax*4]
  00414	8b 46 04	 mov	 eax, DWORD PTR [esi+4]
  00417	8b 04 01	 mov	 eax, DWORD PTR [ecx+eax]
  0041a	89 47 08	 mov	 DWORD PTR [edi+8], eax

; 1603 : 		m_pHashTable[nHashBucket] = pAssoc;

  0041d	8b 46 04	 mov	 eax, DWORD PTR [esi+4]
  00420	89 3c 01	 mov	 DWORD PTR [ecx+eax], edi
$LN144@OnBtnAddal:

; 1350 : 	{ (*this)[key] = newValue; }

  00423	8d 45 e4	 lea	 eax, DWORD PTR $T10[ebp]

; 1605 : 	return pAssoc->value;  // return new reference

  00426	8d 4f 04	 lea	 ecx, DWORD PTR [edi+4]

; 1350 : 	{ (*this)[key] = newValue; }

  00429	50		 push	 eax
  0042a	ff 15 00 00 00
	00		 call	 DWORD PTR __imp_??4?$CStringT@DV?$StrTraitMFC_DLL@DV?$ChTraitsCRT@D@ATL@@@@@ATL@@QAEAAV01@ABV01@@Z
  00430	8d 4d e4	 lea	 ecx, DWORD PTR $T10[ebp]
  00433	c6 45 fc 00	 mov	 BYTE PTR __$EHRec$[ebp+8], 0
  00437	ff 15 00 00 00
	00		 call	 DWORD PTR __imp_??1?$CStringT@DV?$StrTraitMFC_DLL@DV?$ChTraitsCRT@D@ATL@@@@@ATL@@QAE@XZ
; File D:\git\src\IBK\IBK_DRFN\ProjSrc\SrcDrfn\Chart\MULTICHART\DlgSettingToolBar.cpp

; 634  : 		for (int nIdx=0; nIdx<m_arrayAdditionIdx.GetSize(); nIdx++)

  0043d	8b 7d dc	 mov	 edi, DWORD PTR _this$1$[ebp]
  00440	8b 4d e8	 mov	 ecx, DWORD PTR _nIdx$1$[ebp]
  00443	41		 inc	 ecx
  00444	89 4d e8	 mov	 DWORD PTR _nIdx$1$[ebp], ecx
  00447	8b 87 c8 00 00
	00		 mov	 eax, DWORD PTR [edi+200]
  0044d	3b c8		 cmp	 ecx, eax
  0044f	0f 8c 60 fe ff
	ff		 jl	 $LL7@OnBtnAddal
$LN6@OnBtnAddal:

; 641  : 		}
; 642  : 	}	
; 643  : 
; 644  : 	FillShowList(m_arrayUserIdx, m_mapUserList);

  00455	56		 push	 esi
  00456	8d 87 d4 00 00
	00		 lea	 eax, DWORD PTR [edi+212]
  0045c	8b cf		 mov	 ecx, edi
  0045e	50		 push	 eax
  0045f	e8 00 00 00 00	 call	 ?FillShowList@CDlgSettingToolBar@@AAEXAAV?$CArray@HH@@AAV?$CMap@HHV?$CStringT@DV?$StrTraitMFC_DLL@DV?$ChTraitsCRT@D@ATL@@@@@ATL@@V12@@@@Z ; CDlgSettingToolBar::FillShowList

; 645  : }

  00464	8d 4d f0	 lea	 ecx, DWORD PTR _strFieldName$[ebp]
  00467	ff 15 00 00 00
	00		 call	 DWORD PTR __imp_??1?$CStringT@DV?$StrTraitMFC_DLL@DV?$ChTraitsCRT@D@ATL@@@@@ATL@@QAE@XZ
  0046d	8b 4d f4	 mov	 ecx, DWORD PTR __$EHRec$[ebp]
  00470	64 89 0d 00 00
	00 00		 mov	 DWORD PTR fs:0, ecx
  00477	59		 pop	 ecx
  00478	5f		 pop	 edi
  00479	5e		 pop	 esi
  0047a	8b e5		 mov	 esp, ebp
  0047c	5d		 pop	 ebp
  0047d	c3		 ret	 0
$LN180@OnBtnAddal:
  0047e	e8 00 00 00 00	 call	 ?AfxThrowInvalidArgException@@YGXXZ ; AfxThrowInvalidArgException
$LN203@OnBtnAddal:
  00483	cc		 int	 3
_TEXT	ENDS
;	COMDAT text$x
text$x	SEGMENT
__unwindfunclet$?OnBtnAddall@CDlgSettingToolBar@@IAEXXZ$0:
  00000	8d 4d f0	 lea	 ecx, DWORD PTR _strFieldName$[ebp]
  00003	ff 25 00 00 00
	00		 jmp	 DWORD PTR __imp_??1?$CStringT@DV?$StrTraitMFC_DLL@DV?$ChTraitsCRT@D@ATL@@@@@ATL@@QAE@XZ
__unwindfunclet$?OnBtnAddall@CDlgSettingToolBar@@IAEXXZ$4:
  00009	8d 4d e8	 lea	 ecx, DWORD PTR $T11[ebp]
  0000c	ff 25 00 00 00
	00		 jmp	 DWORD PTR __imp_??1?$CStringT@DV?$StrTraitMFC_DLL@DV?$ChTraitsCRT@D@ATL@@@@@ATL@@QAE@XZ
__unwindfunclet$?OnBtnAddall@CDlgSettingToolBar@@IAEXXZ$5:
  00012	8d 4d e4	 lea	 ecx, DWORD PTR $T10[ebp]
  00015	ff 25 00 00 00
	00		 jmp	 DWORD PTR __imp_??1?$CStringT@DV?$StrTraitMFC_DLL@DV?$ChTraitsCRT@D@ATL@@@@@ATL@@QAE@XZ
  0001b	cc		 int	 3
  0001c	cc		 int	 3
  0001d	cc		 int	 3
  0001e	cc		 int	 3
  0001f	cc		 int	 3
__ehhandler$?OnBtnAddall@CDlgSettingToolBar@@IAEXXZ:
  00020	90		 npad	 1
  00021	90		 npad	 1
  00022	8b 54 24 08	 mov	 edx, DWORD PTR [esp+8]
  00026	8d 42 0c	 lea	 eax, DWORD PTR [edx+12]
  00029	8b 4a cc	 mov	 ecx, DWORD PTR [edx-52]
  0002c	33 c8		 xor	 ecx, eax
  0002e	e8 00 00 00 00	 call	 @__security_check_cookie@4
  00033	b8 00 00 00 00	 mov	 eax, OFFSET __ehfuncinfo$?OnBtnAddall@CDlgSettingToolBar@@IAEXXZ
  00038	e9 00 00 00 00	 jmp	 ___CxxFrameHandler3
text$x	ENDS
?OnBtnAddall@CDlgSettingToolBar@@IAEXXZ ENDP		; CDlgSettingToolBar::OnBtnAddall
; Function compile flags: /Ogtp
; File D:\git\src\IBK\IBK_DRFN\ProjSrc\SrcDrfn\Chart\MULTICHART\DlgSettingToolBar.cpp
; File C:\Program Files (x86)\Microsoft Visual Studio\2019\Community\VC\Tools\MSVC\14.29.30133\atlmfc\include\afxtempl.h
; File D:\git\src\IBK\IBK_DRFN\ProjSrc\SrcDrfn\Chart\MULTICHART\DlgSettingToolBar.cpp
; File C:\Program Files (x86)\Microsoft Visual Studio\2019\Community\VC\Tools\MSVC\14.29.30133\atlmfc\include\afxtempl.h
; File D:\git\src\IBK\IBK_DRFN\ProjSrc\SrcDrfn\Chart\MULTICHART\DlgSettingToolBar.cpp
; File C:\Program Files (x86)\Microsoft Visual Studio\2019\Community\VC\Tools\MSVC\14.29.30133\atlmfc\include\afxtempl.h
; File D:\git\src\IBK\IBK_DRFN\ProjSrc\SrcDrfn\Chart\MULTICHART\DlgSettingToolBar.cpp
; File C:\Program Files (x86)\Microsoft Visual Studio\2019\Community\VC\Tools\MSVC\14.29.30133\atlmfc\include\afxtempl.h
; File D:\git\src\IBK\IBK_DRFN\ProjSrc\SrcDrfn\Chart\MULTICHART\DlgSettingToolBar.cpp
; File C:\Program Files (x86)\Microsoft Visual Studio\2019\Community\VC\Tools\MSVC\14.29.30133\atlmfc\include\afxtempl.h
; File D:\git\src\IBK\IBK_DRFN\ProjSrc\SrcDrfn\Chart\MULTICHART\DlgSettingToolBar.cpp
; File C:\Program Files (x86)\Microsoft Visual Studio\2019\Community\VC\Tools\MSVC\14.29.30133\atlmfc\include\afxtempl.h
; File D:\git\src\IBK\IBK_DRFN\ProjSrc\SrcDrfn\Chart\MULTICHART\DlgSettingToolBar.cpp
; File C:\Program Files (x86)\Microsoft Visual Studio\2019\Community\VC\Tools\MSVC\14.29.30133\atlmfc\include\afxtempl.h
; File D:\git\src\IBK\IBK_DRFN\ProjSrc\SrcDrfn\Chart\MULTICHART\DlgSettingToolBar.cpp
;	COMDAT ?OnBtnRemoveall@CDlgSettingToolBar@@IAEXXZ
_TEXT	SEGMENT
_nIndex$1$ = -4						; size = 4
?OnBtnRemoveall@CDlgSettingToolBar@@IAEXXZ PROC		; CDlgSettingToolBar::OnBtnRemoveall, COMDAT
; _this$ = ecx

; 480  : {

  00000	55		 push	 ebp
  00001	8b ec		 mov	 ebp, esp
  00003	51		 push	 ecx
  00004	53		 push	 ebx
  00005	56		 push	 esi
  00006	8b f1		 mov	 esi, ecx
  00008	57		 push	 edi
; File C:\Program Files (x86)\Microsoft Visual Studio\2019\Community\VC\Tools\MSVC\14.29.30133\atlmfc\include\afxtempl.h

; 381  : 		if (m_pData != NULL)

  00009	8b 86 d8 00 00
	00		 mov	 eax, DWORD PTR [esi+216]
  0000f	85 c0		 test	 eax, eax
  00011	74 13		 je	 SHORT $LN26@OnBtnRemov

; 382  : 		{
; 383  : 			for( int i = 0; i < m_nSize; i++ )
; 384  : 				(m_pData + i)->~TYPE();
; 385  : 			delete[] (BYTE*)m_pData;

  00013	50		 push	 eax
  00014	e8 00 00 00 00	 call	 ??_V@YAXPAX@Z		; operator delete[]
  00019	83 c4 04	 add	 esp, 4

; 386  : 			m_pData = NULL;

  0001c	c7 86 d8 00 00
	00 00 00 00 00	 mov	 DWORD PTR [esi+216], 0
$LN26@OnBtnRemov:
; File D:\git\src\IBK\IBK_DRFN\ProjSrc\SrcDrfn\Chart\MULTICHART\DlgSettingToolBar.cpp

; 482  : 	m_mapUserList.RemoveAll();

  00026	8d 9e 20 01 00
	00		 lea	 ebx, DWORD PTR [esi+288]
; File C:\Program Files (x86)\Microsoft Visual Studio\2019\Community\VC\Tools\MSVC\14.29.30133\atlmfc\include\afxtempl.h

; 388  : 		m_nSize = m_nMaxSize = 0;

  0002c	c7 86 e0 00 00
	00 00 00 00 00	 mov	 DWORD PTR [esi+224], 0
; File D:\git\src\IBK\IBK_DRFN\ProjSrc\SrcDrfn\Chart\MULTICHART\DlgSettingToolBar.cpp

; 482  : 	m_mapUserList.RemoveAll();

  00036	8b cb		 mov	 ecx, ebx
; File C:\Program Files (x86)\Microsoft Visual Studio\2019\Community\VC\Tools\MSVC\14.29.30133\atlmfc\include\afxtempl.h

; 388  : 		m_nSize = m_nMaxSize = 0;

  00038	c7 86 dc 00 00
	00 00 00 00 00	 mov	 DWORD PTR [esi+220], 0
; File D:\git\src\IBK\IBK_DRFN\ProjSrc\SrcDrfn\Chart\MULTICHART\DlgSettingToolBar.cpp

; 482  : 	m_mapUserList.RemoveAll();

  00042	e8 00 00 00 00	 call	 ?RemoveAll@?$CMap@HHV?$CStringT@DV?$StrTraitMFC_DLL@DV?$ChTraitsCRT@D@ATL@@@@@ATL@@V12@@@QAEXXZ ; CMap<int,int,ATL::CStringT<char,StrTraitMFC_DLL<char,ATL::ChTraitsCRT<char> > >,ATL::CStringT<char,StrTraitMFC_DLL<char,ATL::ChTraitsCRT<char> > > >::RemoveAll
; File C:\Program Files (x86)\Microsoft Visual Studio\2019\Community\VC\Tools\MSVC\14.29.30133\atlmfc\include\afxtempl.h

; 333  : 	{ INT_PTR nIndex = m_nSize;

  00047	8b 86 dc 00 00
	00		 mov	 eax, DWORD PTR [esi+220]
; File D:\git\src\IBK\IBK_DRFN\ProjSrc\SrcDrfn\Chart\MULTICHART\DlgSettingToolBar.cpp

; 484  : 	m_arrayUserIdx.Add(CHART_TOOL);	//

  0004d	8d be d4 00 00
	00		 lea	 edi, DWORD PTR [esi+212]
; File C:\Program Files (x86)\Microsoft Visual Studio\2019\Community\VC\Tools\MSVC\14.29.30133\atlmfc\include\afxtempl.h

; 333  : 	{ INT_PTR nIndex = m_nSize;

  00053	89 45 fc	 mov	 DWORD PTR _nIndex$1$[ebp], eax

; 538  : 	if(nIndex < 0)

  00056	85 c0		 test	 eax, eax
  00058	78 3f		 js	 SHORT $LN68@OnBtnRemov

; 540  : 
; 541  : 	if (nIndex >= m_nSize)
; 542  : 		SetSize(nIndex+1, -1);

  0005a	6a ff		 push	 -1
  0005c	40		 inc	 eax
  0005d	8b cf		 mov	 ecx, edi
  0005f	50		 push	 eax
  00060	e8 00 00 00 00	 call	 ?SetSize@?$CArray@HH@@QAEXHH@Z ; CArray<int,int>::SetSize

; 543  : 	m_pData[nIndex] = newElement;

  00065	8b 4d fc	 mov	 ecx, DWORD PTR _nIndex$1$[ebp]
  00068	8b 47 04	 mov	 eax, DWORD PTR [edi+4]
; File D:\git\src\IBK\IBK_DRFN\ProjSrc\SrcDrfn\Chart\MULTICHART\DlgSettingToolBar.cpp

; 485  : 	m_mapUserList.SetAt(CHART_TOOL, "");

  0006b	51		 push	 ecx
; File C:\Program Files (x86)\Microsoft Visual Studio\2019\Community\VC\Tools\MSVC\14.29.30133\atlmfc\include\afxtempl.h

; 543  : 	m_pData[nIndex] = newElement;

  0006c	c7 04 88 03 00
	00 00		 mov	 DWORD PTR [eax+ecx*4], 3
; File D:\git\src\IBK\IBK_DRFN\ProjSrc\SrcDrfn\Chart\MULTICHART\DlgSettingToolBar.cpp

; 485  : 	m_mapUserList.SetAt(CHART_TOOL, "");

  00073	8b cc		 mov	 ecx, esp
  00075	68 00 00 00 00	 push	 OFFSET ??_C@_0L@PPOMAPHP@?B?w?F?$KO?E?x?F?m?A?$PN@
  0007a	ff 15 00 00 00
	00		 call	 DWORD PTR __imp_??0?$CStringT@DV?$StrTraitMFC_DLL@DV?$ChTraitsCRT@D@ATL@@@@@ATL@@QAE@PBD@Z
  00080	6a 03		 push	 3
  00082	8b cb		 mov	 ecx, ebx
  00084	e8 00 00 00 00	 call	 ?SetAt@?$CMap@HHV?$CStringT@DV?$StrTraitMFC_DLL@DV?$ChTraitsCRT@D@ATL@@@@@ATL@@V12@@@QAEXHV?$CStringT@DV?$StrTraitMFC_DLL@DV?$ChTraitsCRT@D@ATL@@@@@ATL@@@Z ; CMap<int,int,ATL::CStringT<char,StrTraitMFC_DLL<char,ATL::ChTraitsCRT<char> > >,ATL::CStringT<char,StrTraitMFC_DLL<char,ATL::ChTraitsCRT<char> > > >::SetAt

; 486  : 
; 487  : 	FillShowList(m_arrayUserIdx, m_mapUserList);

  00089	53		 push	 ebx
  0008a	57		 push	 edi
  0008b	8b ce		 mov	 ecx, esi
  0008d	e8 00 00 00 00	 call	 ?FillShowList@CDlgSettingToolBar@@AAEXAAV?$CArray@HH@@AAV?$CMap@HHV?$CStringT@DV?$StrTraitMFC_DLL@DV?$ChTraitsCRT@D@ATL@@@@@ATL@@V12@@@@Z ; CDlgSettingToolBar::FillShowList

; 488  : }

  00092	5f		 pop	 edi
  00093	5e		 pop	 esi
  00094	5b		 pop	 ebx
  00095	8b e5		 mov	 esp, ebp
  00097	5d		 pop	 ebp
  00098	c3		 ret	 0
$LN68@OnBtnRemov:
; File C:\Program Files (x86)\Microsoft Visual Studio\2019\Community\VC\Tools\MSVC\14.29.30133\atlmfc\include\afxtempl.h

; 539  : 		AfxThrowInvalidArgException();

  00099	e8 00 00 00 00	 call	 ?AfxThrowInvalidArgException@@YGXXZ ; AfxThrowInvalidArgException
$LN66@OnBtnRemov:
  0009e	cc		 int	 3
?OnBtnRemoveall@CDlgSettingToolBar@@IAEXXZ ENDP		; CDlgSettingToolBar::OnBtnRemoveall
_TEXT	ENDS
; Function compile flags: /Ogtp
; File D:\git\src\IBK\IBK_DRFN\ProjSrc\SrcDrfn\Chart\MULTICHART\DlgSettingToolBar.cpp
; File C:\Program Files (x86)\Microsoft Visual Studio\2019\Community\VC\Tools\MSVC\14.29.30133\atlmfc\include\afxwin2.inl
; File D:\git\src\IBK\IBK_DRFN\ProjSrc\SrcDrfn\Chart\MULTICHART\DlgSettingToolBar.cpp
; File C:\Program Files (x86)\Microsoft Visual Studio\2019\Community\VC\Tools\MSVC\14.29.30133\atlmfc\include\afxwin2.inl
; File D:\git\src\IBK\IBK_DRFN\ProjSrc\SrcDrfn\Chart\MULTICHART\DlgSettingToolBar.cpp
; File C:\Program Files (x86)\Microsoft Visual Studio\2019\Community\VC\Tools\MSVC\14.29.30133\atlmfc\include\afxtempl.h
; File D:\git\src\IBK\IBK_DRFN\ProjSrc\SrcDrfn\Chart\MULTICHART\DlgSettingToolBar.cpp
; File C:\Program Files (x86)\Microsoft Visual Studio\2019\Community\VC\Tools\MSVC\14.29.30133\atlmfc\include\afxtempl.h
; File D:\git\src\IBK\IBK_DRFN\ProjSrc\SrcDrfn\Chart\MULTICHART\DlgSettingToolBar.cpp
; File C:\Program Files (x86)\Microsoft Visual Studio\2019\Community\VC\Tools\MSVC\14.29.30133\atlmfc\include\afxtempl.h
; File D:\git\src\IBK\IBK_DRFN\ProjSrc\SrcDrfn\Chart\MULTICHART\DlgSettingToolBar.cpp
; File C:\Program Files (x86)\Microsoft Visual Studio\2019\Community\VC\Tools\MSVC\14.29.30133\atlmfc\include\afxwin2.inl
; File D:\git\src\IBK\IBK_DRFN\ProjSrc\SrcDrfn\Chart\MULTICHART\DlgSettingToolBar.cpp
; File C:\Program Files (x86)\Microsoft Visual Studio\2019\Community\VC\Tools\MSVC\14.29.30133\atlmfc\include\afxtempl.h
; File D:\git\src\IBK\IBK_DRFN\ProjSrc\SrcDrfn\Chart\MULTICHART\DlgSettingToolBar.cpp
;	COMDAT ?OnBtnRemove@CDlgSettingToolBar@@IAEXXZ
_TEXT	SEGMENT
tv383 = -12						; size = 4
_nKey$1$ = -8						; size = 4
tv377 = -4						; size = 4
?OnBtnRemove@CDlgSettingToolBar@@IAEXXZ PROC		; CDlgSettingToolBar::OnBtnRemove, COMDAT
; _this$ = ecx

; 458  : {

  00000	55		 push	 ebp
  00001	8b ec		 mov	 ebp, esp
  00003	83 ec 0c	 sub	 esp, 12			; 0000000cH
  00006	53		 push	 ebx
  00007	57		 push	 edi
; File C:\Program Files (x86)\Microsoft Visual Studio\2019\Community\VC\Tools\MSVC\14.29.30133\atlmfc\include\afxwin2.inl

; 666  : 	{ ASSERT(::IsWindow(m_hWnd)); return (int)::SendMessage(m_hWnd, LB_GETCURSEL, 0, 0); }

  00008	6a 00		 push	 0
; File D:\git\src\IBK\IBK_DRFN\ProjSrc\SrcDrfn\Chart\MULTICHART\DlgSettingToolBar.cpp

; 458  : {

  0000a	8b d9		 mov	 ebx, ecx
; File C:\Program Files (x86)\Microsoft Visual Studio\2019\Community\VC\Tools\MSVC\14.29.30133\atlmfc\include\afxwin2.inl

; 666  : 	{ ASSERT(::IsWindow(m_hWnd)); return (int)::SendMessage(m_hWnd, LB_GETCURSEL, 0, 0); }

  0000c	6a 00		 push	 0
  0000e	68 88 01 00 00	 push	 392			; 00000188H
  00013	ff b3 68 01 00
	00		 push	 DWORD PTR [ebx+360]
  00019	ff 15 00 00 00
	00		 call	 DWORD PTR __imp__SendMessageA@16
; File D:\git\src\IBK\IBK_DRFN\ProjSrc\SrcDrfn\Chart\MULTICHART\DlgSettingToolBar.cpp

; 459  : 	int nCurSel = m_listShow.GetCurSel();

  0001f	8b f8		 mov	 edi, eax

; 460  : 	if(nCurSel < 0) return;

  00021	85 ff		 test	 edi, edi
  00023	78 2d		 js	 SHORT $LN1@OnBtnRemov
; File C:\Program Files (x86)\Microsoft Visual Studio\2019\Community\VC\Tools\MSVC\14.29.30133\atlmfc\include\afxtempl.h

; 288  : 	if(nIndex >= 0 && nIndex < m_nSize)

  00025	3b bb dc 00 00
	00		 cmp	 edi, DWORD PTR [ebx+220]
  0002b	0f 8d 08 01 00
	00		 jge	 $LN10@OnBtnRemov
; File D:\git\src\IBK\IBK_DRFN\ProjSrc\SrcDrfn\Chart\MULTICHART\DlgSettingToolBar.cpp

; 461  : 	int nKey = m_arrayUserIdx.GetAt(nCurSel);

  00031	8b 8b d8 00 00
	00		 mov	 ecx, DWORD PTR [ebx+216]
  00037	56		 push	 esi
  00038	8b 34 b9	 mov	 esi, DWORD PTR [ecx+edi*4]
  0003b	89 75 f8	 mov	 DWORD PTR _nKey$1$[ebp], esi

; 462  : 
; 463  : 	if(3 == nKey)		// 

  0003e	83 fe 03	 cmp	 esi, 3
  00041	75 15		 jne	 SHORT $LN3@OnBtnRemov

; 464  : 	{
; 465  : 		AfxMessageBox("    .");

  00043	6a 00		 push	 0
  00045	6a 00		 push	 0
  00047	68 00 00 00 00	 push	 OFFSET ??_C@_0CA@JNNFKBLA@?G?X?$LE?g?5?G?W?$LI?q?$MA?$LK?5?$LL?h?A?$KG?G?R?5?$LM?v?5?$LO?x?$LN?$MA?$LE?O?$LE?Y?4@
  0004c	e8 00 00 00 00	 call	 ?AfxMessageBox@@YGHPBDII@Z ; AfxMessageBox
  00051	5e		 pop	 esi
$LN1@OnBtnRemov:

; 477  : }

  00052	5f		 pop	 edi
  00053	5b		 pop	 ebx
  00054	8b e5		 mov	 esp, ebp
  00056	5d		 pop	 ebp
  00057	c3		 ret	 0
$LN3@OnBtnRemov:

; 466  : 		return;
; 467  : 	}
; 468  : 	m_arrayUserIdx.RemoveAt(nCurSel);

  00058	6a 01		 push	 1
  0005a	57		 push	 edi
  0005b	8d 8b d4 00 00
	00		 lea	 ecx, DWORD PTR [ebx+212]
  00061	e8 00 00 00 00	 call	 ?RemoveAt@?$CArray@HH@@QAEXHH@Z ; CArray<int,int>::RemoveAt
; File C:\Program Files (x86)\Microsoft Visual Studio\2019\Community\VC\Tools\MSVC\14.29.30133\atlmfc\include\afxtempl.h

; 1614 : 	if (m_pHashTable == NULL)

  00066	8b 83 24 01 00
	00		 mov	 eax, DWORD PTR [ebx+292]
; File D:\git\src\IBK\IBK_DRFN\ProjSrc\SrcDrfn\Chart\MULTICHART\DlgSettingToolBar.cpp

; 469  : 	m_mapUserList.RemoveKey(nKey);

  0006c	8d 8b 20 01 00
	00		 lea	 ecx, DWORD PTR [ebx+288]
; File C:\Program Files (x86)\Microsoft Visual Studio\2019\Community\VC\Tools\MSVC\14.29.30133\atlmfc\include\afxtempl.h

; 1614 : 	if (m_pHashTable == NULL)

  00072	89 45 fc	 mov	 DWORD PTR tv377[ebp], eax
  00075	85 c0		 test	 eax, eax
  00077	0f 84 88 00 00
	00		 je	 $LN49@OnBtnRemov

; 165  : 	ldiv_t HashVal = ldiv((long)(ARG_KEY)key, 127773);

  0007d	8b c6		 mov	 eax, esi
  0007f	b9 1d f3 01 00	 mov	 ecx, 127773		; 0001f31dH
  00084	99		 cdq
  00085	f7 f9		 idiv	 ecx

; 166  : 	HashVal.rem = 16807 * HashVal.rem - 2836 * HashVal.quot;

  00087	69 c0 14 0b 00
	00		 imul	 eax, eax, 2836
  0008d	69 ca a7 41 00
	00		 imul	 ecx, edx, 16807
  00093	2b c8		 sub	 ecx, eax

; 1620 : 	ppAssocPrev = &m_pHashTable[nHashValue%m_nHashTableSize];

  00095	8d 81 ff ff ff
	7f		 lea	 eax, DWORD PTR [ecx+2147483647]
  0009b	0f 49 c1	 cmovns	 eax, ecx
  0009e	33 d2		 xor	 edx, edx
  000a0	89 45 f4	 mov	 DWORD PTR tv383[ebp], eax
  000a3	f7 b3 28 01 00
	00		 div	 DWORD PTR [ebx+296]
  000a9	8b 45 fc	 mov	 eax, DWORD PTR tv377[ebp]

; 1621 : 
; 1622 : 	CAssoc* pAssoc;
; 1623 : 	for (pAssoc = *ppAssocPrev; pAssoc != NULL; pAssoc = pAssoc->pNext)

  000ac	8b 34 90	 mov	 esi, DWORD PTR [eax+edx*4]
  000af	8d 0c 90	 lea	 ecx, DWORD PTR [eax+edx*4]
  000b2	85 f6		 test	 esi, esi
  000b4	74 49		 je	 SHORT $LN51@OnBtnRemov
  000b6	8b 45 f8	 mov	 eax, DWORD PTR _nKey$1$[ebp]
  000b9	8b 55 f4	 mov	 edx, DWORD PTR tv383[ebp]
  000bc	0f 1f 40 00	 npad	 4
$LL16@OnBtnRemov:

; 1624 : 	{
; 1625 : 		if ((pAssoc->nHashValue == nHashValue) && CompareElements(&pAssoc->key, &key))

  000c0	39 56 0c	 cmp	 DWORD PTR [esi+12], edx
  000c3	75 04		 jne	 SHORT $LN18@OnBtnRemov

; 156  : 	return *pElement1 == *pElement2;

  000c5	39 06		 cmp	 DWORD PTR [esi], eax

; 1625 : 		if ((pAssoc->nHashValue == nHashValue) && CompareElements(&pAssoc->key, &key))

  000c7	74 0b		 je	 SHORT $LN45@OnBtnRemov
$LN18@OnBtnRemov:

; 1629 : 			FreeAssoc(pAssoc);
; 1630 : 			return TRUE;
; 1631 : 		}
; 1632 : 		ppAssocPrev = &pAssoc->pNext;

  000c9	8d 4e 08	 lea	 ecx, DWORD PTR [esi+8]
  000cc	8b 31		 mov	 esi, DWORD PTR [ecx]
  000ce	85 f6		 test	 esi, esi
  000d0	75 ee		 jne	 SHORT $LL16@OnBtnRemov

; 1621 : 
; 1622 : 	CAssoc* pAssoc;
; 1623 : 	for (pAssoc = *ppAssocPrev; pAssoc != NULL; pAssoc = pAssoc->pNext)

  000d2	eb 2b		 jmp	 SHORT $LN51@OnBtnRemov
$LN45@OnBtnRemov:

; 1626 : 		{
; 1627 : 			// remove it
; 1628 : 			*ppAssocPrev = pAssoc->pNext;  // remove from list

  000d4	8b 46 08	 mov	 eax, DWORD PTR [esi+8]
  000d7	89 01		 mov	 DWORD PTR [ecx], eax
  000d9	8d 4e 04	 lea	 ecx, DWORD PTR [esi+4]
  000dc	ff 15 00 00 00
	00		 call	 DWORD PTR __imp_??1?$CStringT@DV?$StrTraitMFC_DLL@DV?$ChTraitsCRT@D@ATL@@@@@ATL@@QAE@XZ

; 1518 : 	pAssoc->pNext = m_pFreeList;

  000e2	8b 83 30 01 00
	00		 mov	 eax, DWORD PTR [ebx+304]
  000e8	8d 8b 20 01 00
	00		 lea	 ecx, DWORD PTR [ebx+288]
  000ee	89 46 08	 mov	 DWORD PTR [esi+8], eax

; 1519 : 	m_pFreeList = pAssoc;
; 1520 : 	m_nCount--;

  000f1	83 41 0c ff	 add	 DWORD PTR [ecx+12], -1
  000f5	89 71 10	 mov	 DWORD PTR [ecx+16], esi

; 1521 : 	ASSERT(m_nCount >= 0);  // make sure we don't underflow
; 1522 : 
; 1523 : 	// if no more elements, cleanup completely
; 1524 : 	if (m_nCount == 0)

  000f8	75 0b		 jne	 SHORT $LN49@OnBtnRemov

; 1525 : 		RemoveAll();

  000fa	e8 00 00 00 00	 call	 ?RemoveAll@?$CMap@HHV?$CStringT@DV?$StrTraitMFC_DLL@DV?$ChTraitsCRT@D@ATL@@@@@ATL@@V12@@@QAEXXZ ; CMap<int,int,ATL::CStringT<char,StrTraitMFC_DLL<char,ATL::ChTraitsCRT<char> > >,ATL::CStringT<char,StrTraitMFC_DLL<char,ATL::ChTraitsCRT<char> > > >::RemoveAll
$LN51@OnBtnRemov:
; File D:\git\src\IBK\IBK_DRFN\ProjSrc\SrcDrfn\Chart\MULTICHART\DlgSettingToolBar.cpp

; 471  : 	FillShowList(m_arrayUserIdx, m_mapUserList);

  000ff	8d 8b 20 01 00
	00		 lea	 ecx, DWORD PTR [ebx+288]
$LN49@OnBtnRemov:
  00105	51		 push	 ecx
  00106	8d 83 d4 00 00
	00		 lea	 eax, DWORD PTR [ebx+212]
  0010c	8b cb		 mov	 ecx, ebx
  0010e	50		 push	 eax
  0010f	e8 00 00 00 00	 call	 ?FillShowList@CDlgSettingToolBar@@AAEXAAV?$CArray@HH@@AAV?$CMap@HHV?$CStringT@DV?$StrTraitMFC_DLL@DV?$ChTraitsCRT@D@ATL@@@@@ATL@@V12@@@@Z ; CDlgSettingToolBar::FillShowList

; 472  : 	if(nCurSel < 1)

  00114	83 ff 01	 cmp	 edi, 1
  00117	7d 04		 jge	 SHORT $LN4@OnBtnRemov

; 473  : 		nCurSel = 0;

  00119	33 ff		 xor	 edi, edi
  0011b	eb 01		 jmp	 SHORT $LN5@OnBtnRemov
$LN4@OnBtnRemov:

; 474  : 	else
; 475  : 		nCurSel--;

  0011d	4f		 dec	 edi
$LN5@OnBtnRemov:
; File C:\Program Files (x86)\Microsoft Visual Studio\2019\Community\VC\Tools\MSVC\14.29.30133\atlmfc\include\afxwin2.inl

; 668  : 	{ ASSERT(::IsWindow(m_hWnd)); return (int)::SendMessage(m_hWnd, LB_SETCURSEL, nSelect, 0); }

  0011e	6a 00		 push	 0
  00120	57		 push	 edi
  00121	68 86 01 00 00	 push	 390			; 00000186H
  00126	ff b3 68 01 00
	00		 push	 DWORD PTR [ebx+360]
  0012c	ff 15 00 00 00
	00		 call	 DWORD PTR __imp__SendMessageA@16
  00132	5e		 pop	 esi
  00133	5f		 pop	 edi
; File D:\git\src\IBK\IBK_DRFN\ProjSrc\SrcDrfn\Chart\MULTICHART\DlgSettingToolBar.cpp

; 477  : }

  00134	5b		 pop	 ebx
  00135	8b e5		 mov	 esp, ebp
  00137	5d		 pop	 ebp
  00138	c3		 ret	 0
$LN10@OnBtnRemov:
; File C:\Program Files (x86)\Microsoft Visual Studio\2019\Community\VC\Tools\MSVC\14.29.30133\atlmfc\include\afxtempl.h

; 290  : 	AfxThrowInvalidArgException();

  00139	e8 00 00 00 00	 call	 ?AfxThrowInvalidArgException@@YGXXZ ; AfxThrowInvalidArgException
$LN53@OnBtnRemov:
  0013e	cc		 int	 3
?OnBtnRemove@CDlgSettingToolBar@@IAEXXZ ENDP		; CDlgSettingToolBar::OnBtnRemove
_TEXT	ENDS
; Function compile flags: /Ogtp
; File D:\git\src\IBK\IBK_DRFN\ProjSrc\SrcDrfn\Chart\MULTICHART\DlgSettingToolBar.cpp
; File C:\Program Files (x86)\Microsoft Visual Studio\2019\Community\VC\Tools\MSVC\14.29.30133\atlmfc\include\afxwin2.inl
; File D:\git\src\IBK\IBK_DRFN\ProjSrc\SrcDrfn\Chart\MULTICHART\DlgSettingToolBar.cpp
; File C:\Program Files (x86)\Microsoft Visual Studio\2019\Community\VC\Tools\MSVC\14.29.30133\atlmfc\include\afxwin2.inl
; File D:\git\src\IBK\IBK_DRFN\ProjSrc\SrcDrfn\Chart\MULTICHART\DlgSettingToolBar.cpp
; File C:\Program Files (x86)\Microsoft Visual Studio\2019\Community\VC\Tools\MSVC\14.29.30133\atlmfc\include\afxwin2.inl
; File D:\git\src\IBK\IBK_DRFN\ProjSrc\SrcDrfn\Chart\MULTICHART\DlgSettingToolBar.cpp
; File C:\Program Files (x86)\Microsoft Visual Studio\2019\Community\VC\Tools\MSVC\14.29.30133\atlmfc\include\afxwin2.inl
; File D:\git\src\IBK\IBK_DRFN\ProjSrc\SrcDrfn\Chart\MULTICHART\DlgSettingToolBar.cpp
; File C:\Program Files (x86)\Microsoft Visual Studio\2019\Community\VC\Tools\MSVC\14.29.30133\atlmfc\include\afxwin2.inl
; File D:\git\src\IBK\IBK_DRFN\ProjSrc\SrcDrfn\Chart\MULTICHART\DlgSettingToolBar.cpp
; File C:\Program Files (x86)\Microsoft Visual Studio\2019\Community\VC\Tools\MSVC\14.29.30133\atlmfc\include\afxtempl.h
; File D:\git\src\IBK\IBK_DRFN\ProjSrc\SrcDrfn\Chart\MULTICHART\DlgSettingToolBar.cpp
; File C:\Program Files (x86)\Microsoft Visual Studio\2019\Community\VC\Tools\MSVC\14.29.30133\atlmfc\include\afxtempl.h
; File D:\git\src\IBK\IBK_DRFN\ProjSrc\SrcDrfn\Chart\MULTICHART\DlgSettingToolBar.cpp
; File C:\Program Files (x86)\Microsoft Visual Studio\2019\Community\VC\Tools\MSVC\14.29.30133\atlmfc\include\afxtempl.h
; File D:\git\src\IBK\IBK_DRFN\ProjSrc\SrcDrfn\Chart\MULTICHART\DlgSettingToolBar.cpp
; File C:\Program Files (x86)\Microsoft Visual Studio\2019\Community\VC\Tools\MSVC\14.29.30133\atlmfc\include\afxtempl.h
; File D:\git\src\IBK\IBK_DRFN\ProjSrc\SrcDrfn\Chart\MULTICHART\DlgSettingToolBar.cpp
;	COMDAT ?OnBtnMovsyp@CDlgSettingToolBar@@IAEXXZ
_TEXT	SEGMENT
?OnBtnMovsyp@CDlgSettingToolBar@@IAEXXZ PROC		; CDlgSettingToolBar::OnBtnMovsyp, COMDAT
; _this$ = ecx

; 566  : {

  00000	53		 push	 ebx
; File C:\Program Files (x86)\Microsoft Visual Studio\2019\Community\VC\Tools\MSVC\14.29.30133\atlmfc\include\afxwin2.inl

; 765  : 	{ ASSERT(::IsWindow(m_hWnd)); return (int)::SendMessage(m_hWnd, CB_GETCURSEL, 0, 0); }

  00001	8b 1d 00 00 00
	00		 mov	 ebx, DWORD PTR __imp__SendMessageA@16
; File D:\git\src\IBK\IBK_DRFN\ProjSrc\SrcDrfn\Chart\MULTICHART\DlgSettingToolBar.cpp

; 566  : {

  00007	56		 push	 esi
  00008	57		 push	 edi
; File C:\Program Files (x86)\Microsoft Visual Studio\2019\Community\VC\Tools\MSVC\14.29.30133\atlmfc\include\afxwin2.inl

; 765  : 	{ ASSERT(::IsWindow(m_hWnd)); return (int)::SendMessage(m_hWnd, CB_GETCURSEL, 0, 0); }

  00009	6a 00		 push	 0
; File D:\git\src\IBK\IBK_DRFN\ProjSrc\SrcDrfn\Chart\MULTICHART\DlgSettingToolBar.cpp

; 566  : {

  0000b	8b f9		 mov	 edi, ecx
; File C:\Program Files (x86)\Microsoft Visual Studio\2019\Community\VC\Tools\MSVC\14.29.30133\atlmfc\include\afxwin2.inl

; 765  : 	{ ASSERT(::IsWindow(m_hWnd)); return (int)::SendMessage(m_hWnd, CB_GETCURSEL, 0, 0); }

  0000d	6a 00		 push	 0
  0000f	68 47 01 00 00	 push	 327			; 00000147H
  00014	ff b7 68 02 00
	00		 push	 DWORD PTR [edi+616]
  0001a	ff d3		 call	 ebx

; 666  : 	{ ASSERT(::IsWindow(m_hWnd)); return (int)::SendMessage(m_hWnd, LB_GETCURSEL, 0, 0); }

  0001c	6a 00		 push	 0
  0001e	6a 00		 push	 0
  00020	68 88 01 00 00	 push	 392			; 00000188H
  00025	ff b7 68 01 00
	00		 push	 DWORD PTR [edi+360]
; File D:\git\src\IBK\IBK_DRFN\ProjSrc\SrcDrfn\Chart\MULTICHART\DlgSettingToolBar.cpp

; 569  : 	int nCurSel = m_cmbShow.GetCurSel();

  0002b	8b f0		 mov	 esi, eax
; File C:\Program Files (x86)\Microsoft Visual Studio\2019\Community\VC\Tools\MSVC\14.29.30133\atlmfc\include\afxwin2.inl

; 666  : 	{ ASSERT(::IsWindow(m_hWnd)); return (int)::SendMessage(m_hWnd, LB_GETCURSEL, 0, 0); }

  0002d	ff d3		 call	 ebx
; File D:\git\src\IBK\IBK_DRFN\ProjSrc\SrcDrfn\Chart\MULTICHART\DlgSettingToolBar.cpp

; 570  : 	int nSelected = m_listShow.GetCurSel();

  0002f	8b d8		 mov	 ebx, eax

; 571  : 	if(nSelected < 1) return;

  00031	83 fb 01	 cmp	 ebx, 1
  00034	0f 8c 8e 00 00
	00		 jl	 $LN9@OnBtnMovsy

; 572  : 	if(0 == nCurSel && 1 == nSelected) 

  0003a	85 f6		 test	 esi, esi
  0003c	75 19		 jne	 SHORT $LN5@OnBtnMovsy
  0003e	83 fb 01	 cmp	 ebx, 1
  00041	0f 85 c0 00 00
	00		 jne	 $LN6@OnBtnMovsy

; 573  : 	{
; 574  : 		AfxMessageBox("   .");

  00047	56		 push	 esi
  00048	56		 push	 esi
  00049	68 00 00 00 00	 push	 OFFSET ??_C@_0BL@NGMPOBLI@?$LE?u?$MA?L?$LL?s?5?$MA?L?$LF?$LP?G?R?5?$LM?v?5?$LO?x?$LN?$MA?$LE?O?$LE?Y?4@
  0004e	e8 00 00 00 00	 call	 ?AfxMessageBox@@YGHPBDII@Z ; AfxMessageBox
; File C:\Program Files (x86)\Microsoft Visual Studio\2019\Community\VC\Tools\MSVC\14.29.30133\atlmfc\include\afxwin2.inl

; 668  : 	{ ASSERT(::IsWindow(m_hWnd)); return (int)::SendMessage(m_hWnd, LB_SETCURSEL, nSelect, 0); }

  00053	56		 push	 esi
  00054	53		 push	 ebx
; File D:\git\src\IBK\IBK_DRFN\ProjSrc\SrcDrfn\Chart\MULTICHART\DlgSettingToolBar.cpp

; 576  : 		return;

  00055	eb 5f		 jmp	 SHORT $LN34@OnBtnMovsy
$LN5@OnBtnMovsy:

; 577  : 	}
; 578  : 
; 579  : 	switch(nCurSel)

  00057	83 ee 00	 sub	 esi, 0
  0005a	0f 84 a7 00 00
	00		 je	 $LN6@OnBtnMovsy
  00060	83 ee 01	 sub	 esi, 1
  00063	74 67		 je	 SHORT $LN7@OnBtnMovsy
  00065	83 ee 01	 sub	 esi, 1
  00068	75 5e		 jne	 SHORT $LN9@OnBtnMovsy

; 595  : 	case 2:		//
; 596  : 		nSelectedKey = m_arrayAdditionIdx.GetAt(nSelected);

  0006a	8d 8f c0 00 00
	00		 lea	 ecx, DWORD PTR [edi+192]
; File C:\Program Files (x86)\Microsoft Visual Studio\2019\Community\VC\Tools\MSVC\14.29.30133\atlmfc\include\afxtempl.h

; 288  : 	if(nIndex >= 0 && nIndex < m_nSize)

  00070	3b 9f c8 00 00
	00		 cmp	 ebx, DWORD PTR [edi+200]
  00076	0f 8d c9 00 00
	00		 jge	 $LN18@OnBtnMovsy
; File D:\git\src\IBK\IBK_DRFN\ProjSrc\SrcDrfn\Chart\MULTICHART\DlgSettingToolBar.cpp

; 597  : 		m_arrayAdditionIdx.RemoveAt(nSelected);

  0007c	8b 87 c4 00 00
	00		 mov	 eax, DWORD PTR [edi+196]
  00082	6a 01		 push	 1
  00084	53		 push	 ebx
  00085	8b 34 98	 mov	 esi, DWORD PTR [eax+ebx*4]
  00088	e8 00 00 00 00	 call	 ?RemoveAt@?$CArray@HH@@QAEXHH@Z ; CArray<int,int>::RemoveAt

; 598  : 		m_arrayAdditionIdx.InsertAt(nSelected-1, nSelectedKey);

  0008d	6a 01		 push	 1
  0008f	56		 push	 esi
  00090	8d 43 ff	 lea	 eax, DWORD PTR [ebx-1]
  00093	8d b7 c0 00 00
	00		 lea	 esi, DWORD PTR [edi+192]
  00099	50		 push	 eax
  0009a	8b ce		 mov	 ecx, esi
  0009c	e8 00 00 00 00	 call	 ?InsertAt@?$CArray@HH@@QAEXHHH@Z ; CArray<int,int>::InsertAt

; 599  : 		FillShowList(m_arrayAdditionIdx, m_mapAdditionList);

  000a1	8d 87 04 01 00
	00		 lea	 eax, DWORD PTR [edi+260]
$LN35@OnBtnMovsy:

; 605  : }

  000a7	50		 push	 eax
  000a8	56		 push	 esi
  000a9	8b cf		 mov	 ecx, edi
  000ab	e8 00 00 00 00	 call	 ?FillShowList@CDlgSettingToolBar@@AAEXAAV?$CArray@HH@@AAV?$CMap@HHV?$CStringT@DV?$StrTraitMFC_DLL@DV?$ChTraitsCRT@D@ATL@@@@@ATL@@V12@@@@Z ; CDlgSettingToolBar::FillShowList
  000b0	6a 00		 push	 0
  000b2	8d 43 ff	 lea	 eax, DWORD PTR [ebx-1]
  000b5	50		 push	 eax
$LN34@OnBtnMovsy:
  000b6	a1 00 00 00 00	 mov	 eax, DWORD PTR __imp__SendMessageA@16
  000bb	68 86 01 00 00	 push	 390			; 00000186H
  000c0	ff b7 68 01 00
	00		 push	 DWORD PTR [edi+360]
  000c6	ff d0		 call	 eax
$LN9@OnBtnMovsy:
  000c8	5f		 pop	 edi
  000c9	5e		 pop	 esi
  000ca	5b		 pop	 ebx
  000cb	c3		 ret	 0
$LN7@OnBtnMovsy:

; 586  : 		m_listShow.SetCurSel(nSelected-1);
; 587  : 		break;
; 588  : 	case 1:		// 
; 589  : 		nSelectedKey = m_arrayAnalIdx.GetAt(nSelected);

  000cc	8d 8f ac 00 00
	00		 lea	 ecx, DWORD PTR [edi+172]
; File C:\Program Files (x86)\Microsoft Visual Studio\2019\Community\VC\Tools\MSVC\14.29.30133\atlmfc\include\afxtempl.h

; 288  : 	if(nIndex >= 0 && nIndex < m_nSize)

  000d2	3b 9f b4 00 00
	00		 cmp	 ebx, DWORD PTR [edi+180]
  000d8	7d 6b		 jge	 SHORT $LN18@OnBtnMovsy
; File D:\git\src\IBK\IBK_DRFN\ProjSrc\SrcDrfn\Chart\MULTICHART\DlgSettingToolBar.cpp

; 590  : 		m_arrayAnalIdx.RemoveAt(nSelected);

  000da	8b 87 b0 00 00
	00		 mov	 eax, DWORD PTR [edi+176]
  000e0	6a 01		 push	 1
  000e2	53		 push	 ebx
  000e3	8b 34 98	 mov	 esi, DWORD PTR [eax+ebx*4]
  000e6	e8 00 00 00 00	 call	 ?RemoveAt@?$CArray@HH@@QAEXHH@Z ; CArray<int,int>::RemoveAt

; 591  : 		m_arrayAnalIdx.InsertAt(nSelected-1, nSelectedKey);

  000eb	6a 01		 push	 1
  000ed	56		 push	 esi
  000ee	8d 43 ff	 lea	 eax, DWORD PTR [ebx-1]
  000f1	8d b7 ac 00 00
	00		 lea	 esi, DWORD PTR [edi+172]
  000f7	50		 push	 eax
  000f8	8b ce		 mov	 ecx, esi
  000fa	e8 00 00 00 00	 call	 ?InsertAt@?$CArray@HH@@QAEXHHH@Z ; CArray<int,int>::InsertAt

; 592  : 		FillShowList(m_arrayAnalIdx, m_mapAnalList);

  000ff	8d 87 e8 00 00
	00		 lea	 eax, DWORD PTR [edi+232]

; 593  : 		m_listShow.SetCurSel(nSelected-1);
; 594  : 		break;

  00105	eb a0		 jmp	 SHORT $LN35@OnBtnMovsy
$LN6@OnBtnMovsy:

; 580  : 	{
; 581  : 	case 0:		// 
; 582  : 		nSelectedKey = m_arrayUserIdx.GetAt(nSelected);

  00107	8d 8f d4 00 00
	00		 lea	 ecx, DWORD PTR [edi+212]
; File C:\Program Files (x86)\Microsoft Visual Studio\2019\Community\VC\Tools\MSVC\14.29.30133\atlmfc\include\afxtempl.h

; 288  : 	if(nIndex >= 0 && nIndex < m_nSize)

  0010d	3b 9f dc 00 00
	00		 cmp	 ebx, DWORD PTR [edi+220]
  00113	7d 30		 jge	 SHORT $LN18@OnBtnMovsy
; File D:\git\src\IBK\IBK_DRFN\ProjSrc\SrcDrfn\Chart\MULTICHART\DlgSettingToolBar.cpp

; 583  : 		m_arrayUserIdx.RemoveAt(nSelected);

  00115	8b 87 d8 00 00
	00		 mov	 eax, DWORD PTR [edi+216]
  0011b	6a 01		 push	 1
  0011d	53		 push	 ebx
  0011e	8b 34 98	 mov	 esi, DWORD PTR [eax+ebx*4]
  00121	e8 00 00 00 00	 call	 ?RemoveAt@?$CArray@HH@@QAEXHH@Z ; CArray<int,int>::RemoveAt

; 584  : 		m_arrayUserIdx.InsertAt(nSelected-1, nSelectedKey);

  00126	6a 01		 push	 1
  00128	56		 push	 esi
  00129	8d 43 ff	 lea	 eax, DWORD PTR [ebx-1]
  0012c	8d b7 d4 00 00
	00		 lea	 esi, DWORD PTR [edi+212]
  00132	50		 push	 eax
  00133	8b ce		 mov	 ecx, esi
  00135	e8 00 00 00 00	 call	 ?InsertAt@?$CArray@HH@@QAEXHHH@Z ; CArray<int,int>::InsertAt

; 585  : 		FillShowList(m_arrayUserIdx, m_mapUserList);

  0013a	8d 87 20 01 00
	00		 lea	 eax, DWORD PTR [edi+288]

; 605  : }

  00140	e9 62 ff ff ff	 jmp	 $LN35@OnBtnMovsy
$LN18@OnBtnMovsy:
; File C:\Program Files (x86)\Microsoft Visual Studio\2019\Community\VC\Tools\MSVC\14.29.30133\atlmfc\include\afxtempl.h

; 290  : 	AfxThrowInvalidArgException();

  00145	e8 00 00 00 00	 call	 ?AfxThrowInvalidArgException@@YGXXZ ; AfxThrowInvalidArgException
$LN33@OnBtnMovsy:
  0014a	cc		 int	 3
?OnBtnMovsyp@CDlgSettingToolBar@@IAEXXZ ENDP		; CDlgSettingToolBar::OnBtnMovsyp
_TEXT	ENDS
; Function compile flags: /Ogtp
; File D:\git\src\IBK\IBK_DRFN\ProjSrc\SrcDrfn\Chart\MULTICHART\DlgSettingToolBar.cpp
; File C:\Program Files (x86)\Microsoft Visual Studio\2019\Community\VC\Tools\MSVC\14.29.30133\atlmfc\include\afxwin2.inl
; File D:\git\src\IBK\IBK_DRFN\ProjSrc\SrcDrfn\Chart\MULTICHART\DlgSettingToolBar.cpp
; File C:\Program Files (x86)\Microsoft Visual Studio\2019\Community\VC\Tools\MSVC\14.29.30133\atlmfc\include\afxwin2.inl
; File D:\git\src\IBK\IBK_DRFN\ProjSrc\SrcDrfn\Chart\MULTICHART\DlgSettingToolBar.cpp
; File C:\Program Files (x86)\Microsoft Visual Studio\2019\Community\VC\Tools\MSVC\14.29.30133\atlmfc\include\afxwin2.inl
; File D:\git\src\IBK\IBK_DRFN\ProjSrc\SrcDrfn\Chart\MULTICHART\DlgSettingToolBar.cpp
; File C:\Program Files (x86)\Microsoft Visual Studio\2019\Community\VC\Tools\MSVC\14.29.30133\atlmfc\include\afxwin2.inl
; File D:\git\src\IBK\IBK_DRFN\ProjSrc\SrcDrfn\Chart\MULTICHART\DlgSettingToolBar.cpp
; File C:\Program Files (x86)\Microsoft Visual Studio\2019\Community\VC\Tools\MSVC\14.29.30133\atlmfc\include\afxwin2.inl
; File D:\git\src\IBK\IBK_DRFN\ProjSrc\SrcDrfn\Chart\MULTICHART\DlgSettingToolBar.cpp
; File C:\Program Files (x86)\Microsoft Visual Studio\2019\Community\VC\Tools\MSVC\14.29.30133\atlmfc\include\afxwin2.inl
; File D:\git\src\IBK\IBK_DRFN\ProjSrc\SrcDrfn\Chart\MULTICHART\DlgSettingToolBar.cpp
; File C:\Program Files (x86)\Microsoft Visual Studio\2019\Community\VC\Tools\MSVC\14.29.30133\atlmfc\include\afxwin2.inl
; File D:\git\src\IBK\IBK_DRFN\ProjSrc\SrcDrfn\Chart\MULTICHART\DlgSettingToolBar.cpp
;	COMDAT ?OnBtnMovedown@CDlgSettingToolBar@@IAEXXZ
_TEXT	SEGMENT
_this$1$ = -8						; size = 4
_nSelected$1$ = -4					; size = 4
?OnBtnMovedown@CDlgSettingToolBar@@IAEXXZ PROC		; CDlgSettingToolBar::OnBtnMovedown, COMDAT
; _this$ = ecx

; 520  : {

  00000	55		 push	 ebp
  00001	8b ec		 mov	 ebp, esp
  00003	83 ec 08	 sub	 esp, 8
  00006	53		 push	 ebx
; File C:\Program Files (x86)\Microsoft Visual Studio\2019\Community\VC\Tools\MSVC\14.29.30133\atlmfc\include\afxwin2.inl

; 765  : 	{ ASSERT(::IsWindow(m_hWnd)); return (int)::SendMessage(m_hWnd, CB_GETCURSEL, 0, 0); }

  00007	8b 1d 00 00 00
	00		 mov	 ebx, DWORD PTR __imp__SendMessageA@16
; File D:\git\src\IBK\IBK_DRFN\ProjSrc\SrcDrfn\Chart\MULTICHART\DlgSettingToolBar.cpp

; 520  : {

  0000d	56		 push	 esi
  0000e	57		 push	 edi
; File C:\Program Files (x86)\Microsoft Visual Studio\2019\Community\VC\Tools\MSVC\14.29.30133\atlmfc\include\afxwin2.inl

; 765  : 	{ ASSERT(::IsWindow(m_hWnd)); return (int)::SendMessage(m_hWnd, CB_GETCURSEL, 0, 0); }

  0000f	6a 00		 push	 0
; File D:\git\src\IBK\IBK_DRFN\ProjSrc\SrcDrfn\Chart\MULTICHART\DlgSettingToolBar.cpp

; 520  : {

  00011	8b f9		 mov	 edi, ecx
; File C:\Program Files (x86)\Microsoft Visual Studio\2019\Community\VC\Tools\MSVC\14.29.30133\atlmfc\include\afxwin2.inl

; 765  : 	{ ASSERT(::IsWindow(m_hWnd)); return (int)::SendMessage(m_hWnd, CB_GETCURSEL, 0, 0); }

  00013	6a 00		 push	 0
  00015	68 47 01 00 00	 push	 327			; 00000147H
; File D:\git\src\IBK\IBK_DRFN\ProjSrc\SrcDrfn\Chart\MULTICHART\DlgSettingToolBar.cpp

; 520  : {

  0001a	89 7d f8	 mov	 DWORD PTR _this$1$[ebp], edi
; File C:\Program Files (x86)\Microsoft Visual Studio\2019\Community\VC\Tools\MSVC\14.29.30133\atlmfc\include\afxwin2.inl

; 765  : 	{ ASSERT(::IsWindow(m_hWnd)); return (int)::SendMessage(m_hWnd, CB_GETCURSEL, 0, 0); }

  0001d	ff b7 68 02 00
	00		 push	 DWORD PTR [edi+616]
  00023	ff d3		 call	 ebx

; 666  : 	{ ASSERT(::IsWindow(m_hWnd)); return (int)::SendMessage(m_hWnd, LB_GETCURSEL, 0, 0); }

  00025	6a 00		 push	 0
  00027	6a 00		 push	 0
  00029	68 88 01 00 00	 push	 392			; 00000188H
  0002e	ff b7 68 01 00
	00		 push	 DWORD PTR [edi+360]
; File D:\git\src\IBK\IBK_DRFN\ProjSrc\SrcDrfn\Chart\MULTICHART\DlgSettingToolBar.cpp

; 523  : 	int nCurSel = m_cmbShow.GetCurSel();

  00034	8b f0		 mov	 esi, eax
; File C:\Program Files (x86)\Microsoft Visual Studio\2019\Community\VC\Tools\MSVC\14.29.30133\atlmfc\include\afxwin2.inl

; 666  : 	{ ASSERT(::IsWindow(m_hWnd)); return (int)::SendMessage(m_hWnd, LB_GETCURSEL, 0, 0); }

  00036	ff d3		 call	 ebx
; File D:\git\src\IBK\IBK_DRFN\ProjSrc\SrcDrfn\Chart\MULTICHART\DlgSettingToolBar.cpp

; 524  : 	int nSelected = m_listShow.GetCurSel();

  00038	8b d8		 mov	 ebx, eax
  0003a	89 5d fc	 mov	 DWORD PTR _nSelected$1$[ebp], ebx

; 525  : 	if( nSelected < 0 || 

  0003d	85 db		 test	 ebx, ebx
  0003f	0f 88 18 01 00
	00		 js	 $LN5@OnBtnMoved
; File C:\Program Files (x86)\Microsoft Visual Studio\2019\Community\VC\Tools\MSVC\14.29.30133\atlmfc\include\afxwin2.inl

; 664  : 	{ ASSERT(::IsWindow(m_hWnd)); return (int)::SendMessage(m_hWnd, LB_GETCOUNT, 0, 0); }

  00045	6a 00		 push	 0
  00047	6a 00		 push	 0
  00049	68 8b 01 00 00	 push	 395			; 0000018bH
  0004e	ff b7 68 01 00
	00		 push	 DWORD PTR [edi+360]
  00054	ff 15 00 00 00
	00		 call	 DWORD PTR __imp__SendMessageA@16
; File D:\git\src\IBK\IBK_DRFN\ProjSrc\SrcDrfn\Chart\MULTICHART\DlgSettingToolBar.cpp

; 525  : 	if( nSelected < 0 || 

  0005a	48		 dec	 eax
  0005b	3b d8		 cmp	 ebx, eax
  0005d	0f 8d fa 00 00
	00		 jge	 $LN5@OnBtnMoved

; 526  : 	    nSelected >= m_listShow.GetCount()-1)	
; 527  : 	   return;
; 528  : 
; 529  : 	if(0 == nCurSel && 0 == nSelected)

  00063	85 f6		 test	 esi, esi
  00065	75 2f		 jne	 SHORT $LN6@OnBtnMoved
  00067	85 db		 test	 ebx, ebx
  00069	0f 85 a0 00 00
	00		 jne	 $LN7@OnBtnMoved

; 530  : 	{
; 531  : 		AfxMessageBox("   .");

  0006f	56		 push	 esi
  00070	56		 push	 esi
  00071	68 00 00 00 00	 push	 OFFSET ??_C@_0BL@NGMPOBLI@?$LE?u?$MA?L?$LL?s?5?$MA?L?$LF?$LP?G?R?5?$LM?v?5?$LO?x?$LN?$MA?$LE?O?$LE?Y?4@
  00076	e8 00 00 00 00	 call	 ?AfxMessageBox@@YGHPBDII@Z ; AfxMessageBox
; File C:\Program Files (x86)\Microsoft Visual Studio\2019\Community\VC\Tools\MSVC\14.29.30133\atlmfc\include\afxwin2.inl

; 668  : 	{ ASSERT(::IsWindow(m_hWnd)); return (int)::SendMessage(m_hWnd, LB_SETCURSEL, nSelect, 0); }

  0007b	56		 push	 esi
  0007c	6a 01		 push	 1
  0007e	68 86 01 00 00	 push	 390			; 00000186H
  00083	ff b7 68 01 00
	00		 push	 DWORD PTR [edi+360]
; File D:\git\src\IBK\IBK_DRFN\ProjSrc\SrcDrfn\Chart\MULTICHART\DlgSettingToolBar.cpp

; 563  : }

  00089	ff 15 00 00 00
	00		 call	 DWORD PTR __imp__SendMessageA@16
  0008f	5f		 pop	 edi
  00090	5e		 pop	 esi
  00091	5b		 pop	 ebx
  00092	8b e5		 mov	 esp, ebp
  00094	5d		 pop	 ebp
  00095	c3		 ret	 0
$LN6@OnBtnMoved:

; 532  : 		m_listShow.SetCurSel(nSelected+1);
; 533  : 		return;
; 534  : 	}
; 535  : 
; 536  : 	switch(nCurSel)

  00096	83 ee 00	 sub	 esi, 0
  00099	74 74		 je	 SHORT $LN7@OnBtnMoved
  0009b	83 ee 01	 sub	 esi, 1
  0009e	74 3c		 je	 SHORT $LN8@OnBtnMoved
  000a0	83 ee 01	 sub	 esi, 1
  000a3	0f 85 b4 00 00
	00		 jne	 $LN5@OnBtnMoved

; 552  : 	case 2:		//
; 553  : 		nNextKey = m_arrayAdditionIdx.GetAt(nSelected+1);

  000a9	43		 inc	 ebx
  000aa	81 c7 c0 00 00
	00		 add	 edi, 192		; 000000c0H
  000b0	53		 push	 ebx
  000b1	8b cf		 mov	 ecx, edi
  000b3	e8 00 00 00 00	 call	 ?GetAt@?$CArray@HH@@QAEAAHH@Z ; CArray<int,int>::GetAt

; 554  : 		m_arrayAdditionIdx.RemoveAt(nSelected+1);

  000b8	6a 01		 push	 1
  000ba	53		 push	 ebx
  000bb	8b cf		 mov	 ecx, edi
  000bd	8b 30		 mov	 esi, DWORD PTR [eax]
  000bf	e8 00 00 00 00	 call	 ?RemoveAt@?$CArray@HH@@QAEXHH@Z ; CArray<int,int>::RemoveAt

; 555  : 		m_arrayAdditionIdx.InsertAt(nSelected, nNextKey);

  000c4	6a 01		 push	 1
  000c6	56		 push	 esi
  000c7	ff 75 fc	 push	 DWORD PTR _nSelected$1$[ebp]
  000ca	8b cf		 mov	 ecx, edi
  000cc	e8 00 00 00 00	 call	 ?InsertAt@?$CArray@HH@@QAEXHHH@Z ; CArray<int,int>::InsertAt

; 556  : 		FillShowList(m_arrayAdditionIdx, m_mapAdditionList);

  000d1	8b 75 f8	 mov	 esi, DWORD PTR _this$1$[ebp]
  000d4	8d 86 04 01 00
	00		 lea	 eax, DWORD PTR [esi+260]

; 557  : 		m_listShow.SetCurSel(nSelected+1);
; 558  : 		break;

  000da	eb 64		 jmp	 SHORT $LN27@OnBtnMoved
$LN8@OnBtnMoved:

; 543  : 		m_listShow.SetCurSel(nSelected+1);
; 544  : 		break;
; 545  : 	case 1:		// 
; 546  : 		nNextKey = m_arrayAnalIdx.GetAt(nSelected+1);

  000dc	43		 inc	 ebx
  000dd	81 c7 ac 00 00
	00		 add	 edi, 172		; 000000acH
  000e3	53		 push	 ebx
  000e4	8b cf		 mov	 ecx, edi
  000e6	e8 00 00 00 00	 call	 ?GetAt@?$CArray@HH@@QAEAAHH@Z ; CArray<int,int>::GetAt

; 547  : 		m_arrayAnalIdx.RemoveAt(nSelected+1);

  000eb	6a 01		 push	 1
  000ed	53		 push	 ebx
  000ee	8b cf		 mov	 ecx, edi
  000f0	8b 30		 mov	 esi, DWORD PTR [eax]
  000f2	e8 00 00 00 00	 call	 ?RemoveAt@?$CArray@HH@@QAEXHH@Z ; CArray<int,int>::RemoveAt

; 548  : 		m_arrayAnalIdx.InsertAt(nSelected, nNextKey);

  000f7	6a 01		 push	 1
  000f9	56		 push	 esi
  000fa	ff 75 fc	 push	 DWORD PTR _nSelected$1$[ebp]
  000fd	8b cf		 mov	 ecx, edi
  000ff	e8 00 00 00 00	 call	 ?InsertAt@?$CArray@HH@@QAEXHHH@Z ; CArray<int,int>::InsertAt

; 549  : 		FillShowList(m_arrayAnalIdx, m_mapAnalList);

  00104	8b 75 f8	 mov	 esi, DWORD PTR _this$1$[ebp]
  00107	8d 86 e8 00 00
	00		 lea	 eax, DWORD PTR [esi+232]

; 550  : 		m_listShow.SetCurSel(nSelected+1);
; 551  : 		break;

  0010d	eb 31		 jmp	 SHORT $LN27@OnBtnMoved
$LN7@OnBtnMoved:

; 537  : 	{
; 538  : 	case 0:		// 
; 539  : 		nNextKey = m_arrayUserIdx.GetAt(nSelected+1);

  0010f	43		 inc	 ebx
  00110	81 c7 d4 00 00
	00		 add	 edi, 212		; 000000d4H
  00116	53		 push	 ebx
  00117	8b cf		 mov	 ecx, edi
  00119	e8 00 00 00 00	 call	 ?GetAt@?$CArray@HH@@QAEAAHH@Z ; CArray<int,int>::GetAt

; 540  : 		m_arrayUserIdx.RemoveAt(nSelected+1);

  0011e	6a 01		 push	 1
  00120	53		 push	 ebx
  00121	8b cf		 mov	 ecx, edi
  00123	8b 30		 mov	 esi, DWORD PTR [eax]
  00125	e8 00 00 00 00	 call	 ?RemoveAt@?$CArray@HH@@QAEXHH@Z ; CArray<int,int>::RemoveAt

; 541  : 		m_arrayUserIdx.InsertAt(nSelected, nNextKey);

  0012a	6a 01		 push	 1
  0012c	56		 push	 esi
  0012d	ff 75 fc	 push	 DWORD PTR _nSelected$1$[ebp]
  00130	8b cf		 mov	 ecx, edi
  00132	e8 00 00 00 00	 call	 ?InsertAt@?$CArray@HH@@QAEXHHH@Z ; CArray<int,int>::InsertAt

; 542  : 		FillShowList(m_arrayUserIdx, m_mapUserList);

  00137	8b 75 f8	 mov	 esi, DWORD PTR _this$1$[ebp]
  0013a	8d 86 20 01 00
	00		 lea	 eax, DWORD PTR [esi+288]
$LN27@OnBtnMoved:

; 563  : }

  00140	50		 push	 eax
  00141	57		 push	 edi
  00142	8b ce		 mov	 ecx, esi
  00144	e8 00 00 00 00	 call	 ?FillShowList@CDlgSettingToolBar@@AAEXAAV?$CArray@HH@@AAV?$CMap@HHV?$CStringT@DV?$StrTraitMFC_DLL@DV?$ChTraitsCRT@D@ATL@@@@@ATL@@V12@@@@Z ; CDlgSettingToolBar::FillShowList
  00149	6a 00		 push	 0
  0014b	53		 push	 ebx
  0014c	68 86 01 00 00	 push	 390			; 00000186H
  00151	ff b6 68 01 00
	00		 push	 DWORD PTR [esi+360]
  00157	ff 15 00 00 00
	00		 call	 DWORD PTR __imp__SendMessageA@16
$LN5@OnBtnMoved:
  0015d	5f		 pop	 edi
  0015e	5e		 pop	 esi
  0015f	5b		 pop	 ebx
  00160	8b e5		 mov	 esp, ebp
  00162	5d		 pop	 ebp
  00163	c3		 ret	 0
?OnBtnMovedown@CDlgSettingToolBar@@IAEXXZ ENDP		; CDlgSettingToolBar::OnBtnMovedown
_TEXT	ENDS
; Function compile flags: /Ogtp
; File D:\git\src\IBK\IBK_DRFN\ProjSrc\SrcDrfn\Chart\MULTICHART\DlgSettingToolBar.cpp
; File C:\Program Files (x86)\Microsoft Visual Studio\2019\Community\VC\Tools\MSVC\14.29.30133\atlmfc\include\afxwin2.inl
; File D:\git\src\IBK\IBK_DRFN\ProjSrc\SrcDrfn\Chart\MULTICHART\DlgSettingToolBar.cpp
; File C:\Program Files (x86)\Microsoft Visual Studio\2019\Community\VC\Tools\MSVC\14.29.30133\atlmfc\include\afxwin2.inl
; File D:\git\src\IBK\IBK_DRFN\ProjSrc\SrcDrfn\Chart\MULTICHART\DlgSettingToolBar.cpp
; File C:\Program Files (x86)\Microsoft Visual Studio\2019\Community\VC\Tools\MSVC\14.29.30133\atlmfc\include\afxtempl.h
; File D:\git\src\IBK\IBK_DRFN\ProjSrc\SrcDrfn\Chart\MULTICHART\DlgSettingToolBar.cpp
; File C:\Program Files (x86)\Microsoft Visual Studio\2019\Community\VC\Tools\MSVC\14.29.30133\atlmfc\include\afxtempl.h
; File D:\git\src\IBK\IBK_DRFN\ProjSrc\SrcDrfn\Chart\MULTICHART\DlgSettingToolBar.cpp
; File C:\Program Files (x86)\Microsoft Visual Studio\2019\Community\VC\Tools\MSVC\14.29.30133\atlmfc\include\afxtempl.h
; File D:\git\src\IBK\IBK_DRFN\ProjSrc\SrcDrfn\Chart\MULTICHART\DlgSettingToolBar.cpp
; File C:\Program Files (x86)\Microsoft Visual Studio\2019\Community\VC\Tools\MSVC\14.29.30133\atlmfc\include\afxtempl.h
; File D:\git\src\IBK\IBK_DRFN\ProjSrc\SrcDrfn\Chart\MULTICHART\DlgSettingToolBar.cpp
; File C:\Program Files (x86)\Microsoft Visual Studio\2019\Community\VC\Tools\MSVC\14.29.30133\atlmfc\include\afxtempl.h
; File D:\git\src\IBK\IBK_DRFN\ProjSrc\SrcDrfn\Chart\MULTICHART\DlgSettingToolBar.cpp
; File C:\Program Files (x86)\Microsoft Visual Studio\2019\Community\VC\Tools\MSVC\14.29.30133\atlmfc\include\afxtempl.h
; File D:\git\src\IBK\IBK_DRFN\ProjSrc\SrcDrfn\Chart\MULTICHART\DlgSettingToolBar.cpp
; File C:\Program Files (x86)\Microsoft Visual Studio\2019\Community\VC\Tools\MSVC\14.29.30133\atlmfc\include\afxtempl.h
; File D:\git\src\IBK\IBK_DRFN\ProjSrc\SrcDrfn\Chart\MULTICHART\DlgSettingToolBar.cpp
; File C:\Program Files (x86)\Microsoft Visual Studio\2019\Community\VC\Tools\MSVC\14.29.30133\atlmfc\include\afxtempl.h
; File D:\git\src\IBK\IBK_DRFN\ProjSrc\SrcDrfn\Chart\MULTICHART\DlgSettingToolBar.cpp
; File C:\Program Files (x86)\Microsoft Visual Studio\2019\Community\VC\Tools\MSVC\14.29.30133\atlmfc\include\afxtempl.h
; File D:\git\src\IBK\IBK_DRFN\ProjSrc\SrcDrfn\Chart\MULTICHART\DlgSettingToolBar.cpp
; File C:\Program Files (x86)\Microsoft Visual Studio\2019\Community\VC\Tools\MSVC\14.29.30133\atlmfc\include\afxtempl.h
; File D:\git\src\IBK\IBK_DRFN\ProjSrc\SrcDrfn\Chart\MULTICHART\DlgSettingToolBar.cpp
; File C:\Program Files (x86)\Microsoft Visual Studio\2019\Community\VC\Tools\MSVC\14.29.30133\atlmfc\include\afxtempl.h
; File D:\git\src\IBK\IBK_DRFN\ProjSrc\SrcDrfn\Chart\MULTICHART\DlgSettingToolBar.cpp
; File C:\Program Files (x86)\Microsoft Visual Studio\2019\Community\VC\Tools\MSVC\14.29.30133\atlmfc\include\afxtempl.h
; File D:\git\src\IBK\IBK_DRFN\ProjSrc\SrcDrfn\Chart\MULTICHART\DlgSettingToolBar.cpp
;	COMDAT ?OnBtnInit@CDlgSettingToolBar@@IAEXXZ
_TEXT	SEGMENT
?OnBtnInit@CDlgSettingToolBar@@IAEXXZ PROC		; CDlgSettingToolBar::OnBtnInit, COMDAT
; _this$ = ecx

; 491  : {

  00000	53		 push	 ebx
  00001	56		 push	 esi
  00002	57		 push	 edi
; File C:\Program Files (x86)\Microsoft Visual Studio\2019\Community\VC\Tools\MSVC\14.29.30133\atlmfc\include\afxwin2.inl

; 765  : 	{ ASSERT(::IsWindow(m_hWnd)); return (int)::SendMessage(m_hWnd, CB_GETCURSEL, 0, 0); }

  00003	6a 00		 push	 0
; File D:\git\src\IBK\IBK_DRFN\ProjSrc\SrcDrfn\Chart\MULTICHART\DlgSettingToolBar.cpp

; 491  : {

  00005	8b f9		 mov	 edi, ecx
; File C:\Program Files (x86)\Microsoft Visual Studio\2019\Community\VC\Tools\MSVC\14.29.30133\atlmfc\include\afxwin2.inl

; 765  : 	{ ASSERT(::IsWindow(m_hWnd)); return (int)::SendMessage(m_hWnd, CB_GETCURSEL, 0, 0); }

  00007	6a 00		 push	 0
  00009	68 47 01 00 00	 push	 327			; 00000147H
  0000e	ff b7 68 02 00
	00		 push	 DWORD PTR [edi+616]
  00014	ff 15 00 00 00
	00		 call	 DWORD PTR __imp__SendMessageA@16
; File D:\git\src\IBK\IBK_DRFN\ProjSrc\SrcDrfn\Chart\MULTICHART\DlgSettingToolBar.cpp

; 494  : 	switch(nCurSel)

  0001a	83 e8 00	 sub	 eax, 0
  0001d	0f 84 da 00 00
	00		 je	 $LN4@OnBtnInit
  00023	83 e8 01	 sub	 eax, 1
  00026	74 6f		 je	 SHORT $LN5@OnBtnInit
  00028	83 e8 01	 sub	 eax, 1
  0002b	0f 85 2e 01 00
	00		 jne	 $LN7@OnBtnInit
; File C:\Program Files (x86)\Microsoft Visual Studio\2019\Community\VC\Tools\MSVC\14.29.30133\atlmfc\include\afxtempl.h

; 381  : 		if (m_pData != NULL)

  00031	8b 87 c4 00 00
	00		 mov	 eax, DWORD PTR [edi+196]
; File D:\git\src\IBK\IBK_DRFN\ProjSrc\SrcDrfn\Chart\MULTICHART\DlgSettingToolBar.cpp

; 509  : 		m_arrayAdditionIdx.RemoveAll();

  00037	8d 9f c0 00 00
	00		 lea	 ebx, DWORD PTR [edi+192]
; File C:\Program Files (x86)\Microsoft Visual Studio\2019\Community\VC\Tools\MSVC\14.29.30133\atlmfc\include\afxtempl.h

; 381  : 		if (m_pData != NULL)

  0003d	85 c0		 test	 eax, eax
  0003f	74 1f		 je	 SHORT $LN134@OnBtnInit

; 382  : 		{
; 383  : 			for( int i = 0; i < m_nSize; i++ )

  00041	83 bf c8 00 00
	00 00		 cmp	 DWORD PTR [edi+200], 0
  00048	7e 03		 jle	 SHORT $LN116@OnBtnInit
  0004a	8b 43 04	 mov	 eax, DWORD PTR [ebx+4]
$LN116@OnBtnInit:

; 384  : 				(m_pData + i)->~TYPE();
; 385  : 			delete[] (BYTE*)m_pData;

  0004d	50		 push	 eax
  0004e	e8 00 00 00 00	 call	 ??_V@YAXPAX@Z		; operator delete[]
  00053	83 c4 04	 add	 esp, 4

; 386  : 			m_pData = NULL;

  00056	c7 87 c4 00 00
	00 00 00 00 00	 mov	 DWORD PTR [edi+196], 0
$LN134@OnBtnInit:
; File D:\git\src\IBK\IBK_DRFN\ProjSrc\SrcDrfn\Chart\MULTICHART\DlgSettingToolBar.cpp

; 510  : 		m_mapAdditionList.RemoveAll();

  00060	8d b7 04 01 00
	00		 lea	 esi, DWORD PTR [edi+260]
; File C:\Program Files (x86)\Microsoft Visual Studio\2019\Community\VC\Tools\MSVC\14.29.30133\atlmfc\include\afxtempl.h

; 388  : 		m_nSize = m_nMaxSize = 0;

  00066	c7 87 cc 00 00
	00 00 00 00 00	 mov	 DWORD PTR [edi+204], 0
; File D:\git\src\IBK\IBK_DRFN\ProjSrc\SrcDrfn\Chart\MULTICHART\DlgSettingToolBar.cpp

; 510  : 		m_mapAdditionList.RemoveAll();

  00070	8b ce		 mov	 ecx, esi
; File C:\Program Files (x86)\Microsoft Visual Studio\2019\Community\VC\Tools\MSVC\14.29.30133\atlmfc\include\afxtempl.h

; 388  : 		m_nSize = m_nMaxSize = 0;

  00072	c7 87 c8 00 00
	00 00 00 00 00	 mov	 DWORD PTR [edi+200], 0
; File D:\git\src\IBK\IBK_DRFN\ProjSrc\SrcDrfn\Chart\MULTICHART\DlgSettingToolBar.cpp

; 510  : 		m_mapAdditionList.RemoveAll();

  0007c	e8 00 00 00 00	 call	 ?RemoveAll@?$CMap@HHV?$CStringT@DV?$StrTraitMFC_DLL@DV?$ChTraitsCRT@D@ATL@@@@@ATL@@V12@@@QAEXXZ ; CMap<int,int,ATL::CStringT<char,StrTraitMFC_DLL<char,ATL::ChTraitsCRT<char> > >,ATL::CStringT<char,StrTraitMFC_DLL<char,ATL::ChTraitsCRT<char> > > >::RemoveAll

; 511  : 		ReadIniFile(nCurSel);

  00081	6a 02		 push	 2

; 512  : 		FillShowList(m_arrayAdditionIdx, m_mapAdditionList);
; 513  : 		break;
; 514  : 	default:
; 515  : 		break;
; 516  : 	}
; 517  : }

  00083	8b cf		 mov	 ecx, edi
  00085	e8 00 00 00 00	 call	 ?ReadIniFile@CDlgSettingToolBar@@AAEXH@Z ; CDlgSettingToolBar::ReadIniFile
  0008a	56		 push	 esi
  0008b	53		 push	 ebx
  0008c	8b cf		 mov	 ecx, edi
  0008e	e8 00 00 00 00	 call	 ?FillShowList@CDlgSettingToolBar@@AAEXAAV?$CArray@HH@@AAV?$CMap@HHV?$CStringT@DV?$StrTraitMFC_DLL@DV?$ChTraitsCRT@D@ATL@@@@@ATL@@V12@@@@Z ; CDlgSettingToolBar::FillShowList
  00093	5f		 pop	 edi
  00094	5e		 pop	 esi
  00095	5b		 pop	 ebx
  00096	c3		 ret	 0
$LN5@OnBtnInit:
; File C:\Program Files (x86)\Microsoft Visual Studio\2019\Community\VC\Tools\MSVC\14.29.30133\atlmfc\include\afxtempl.h

; 381  : 		if (m_pData != NULL)

  00097	8b 87 b0 00 00
	00		 mov	 eax, DWORD PTR [edi+176]
; File D:\git\src\IBK\IBK_DRFN\ProjSrc\SrcDrfn\Chart\MULTICHART\DlgSettingToolBar.cpp

; 503  : 		m_arrayAnalIdx.RemoveAll();

  0009d	8d 9f ac 00 00
	00		 lea	 ebx, DWORD PTR [edi+172]
; File C:\Program Files (x86)\Microsoft Visual Studio\2019\Community\VC\Tools\MSVC\14.29.30133\atlmfc\include\afxtempl.h

; 381  : 		if (m_pData != NULL)

  000a3	85 c0		 test	 eax, eax
  000a5	74 1f		 je	 SHORT $LN84@OnBtnInit

; 382  : 		{
; 383  : 			for( int i = 0; i < m_nSize; i++ )

  000a7	83 bf b4 00 00
	00 00		 cmp	 DWORD PTR [edi+180], 0
  000ae	7e 03		 jle	 SHORT $LN66@OnBtnInit
  000b0	8b 43 04	 mov	 eax, DWORD PTR [ebx+4]
$LN66@OnBtnInit:

; 384  : 				(m_pData + i)->~TYPE();
; 385  : 			delete[] (BYTE*)m_pData;

  000b3	50		 push	 eax
  000b4	e8 00 00 00 00	 call	 ??_V@YAXPAX@Z		; operator delete[]
  000b9	83 c4 04	 add	 esp, 4

; 386  : 			m_pData = NULL;

  000bc	c7 87 b0 00 00
	00 00 00 00 00	 mov	 DWORD PTR [edi+176], 0
$LN84@OnBtnInit:
; File D:\git\src\IBK\IBK_DRFN\ProjSrc\SrcDrfn\Chart\MULTICHART\DlgSettingToolBar.cpp

; 504  : 		m_mapAnalList.RemoveAll();

  000c6	8d b7 e8 00 00
	00		 lea	 esi, DWORD PTR [edi+232]
; File C:\Program Files (x86)\Microsoft Visual Studio\2019\Community\VC\Tools\MSVC\14.29.30133\atlmfc\include\afxtempl.h

; 388  : 		m_nSize = m_nMaxSize = 0;

  000cc	c7 87 b8 00 00
	00 00 00 00 00	 mov	 DWORD PTR [edi+184], 0
; File D:\git\src\IBK\IBK_DRFN\ProjSrc\SrcDrfn\Chart\MULTICHART\DlgSettingToolBar.cpp

; 504  : 		m_mapAnalList.RemoveAll();

  000d6	8b ce		 mov	 ecx, esi
; File C:\Program Files (x86)\Microsoft Visual Studio\2019\Community\VC\Tools\MSVC\14.29.30133\atlmfc\include\afxtempl.h

; 388  : 		m_nSize = m_nMaxSize = 0;

  000d8	c7 87 b4 00 00
	00 00 00 00 00	 mov	 DWORD PTR [edi+180], 0
; File D:\git\src\IBK\IBK_DRFN\ProjSrc\SrcDrfn\Chart\MULTICHART\DlgSettingToolBar.cpp

; 504  : 		m_mapAnalList.RemoveAll();

  000e2	e8 00 00 00 00	 call	 ?RemoveAll@?$CMap@HHV?$CStringT@DV?$StrTraitMFC_DLL@DV?$ChTraitsCRT@D@ATL@@@@@ATL@@V12@@@QAEXXZ ; CMap<int,int,ATL::CStringT<char,StrTraitMFC_DLL<char,ATL::ChTraitsCRT<char> > >,ATL::CStringT<char,StrTraitMFC_DLL<char,ATL::ChTraitsCRT<char> > > >::RemoveAll

; 505  : 		ReadIniFile(nCurSel);

  000e7	6a 01		 push	 1

; 512  : 		FillShowList(m_arrayAdditionIdx, m_mapAdditionList);
; 513  : 		break;
; 514  : 	default:
; 515  : 		break;
; 516  : 	}
; 517  : }

  000e9	8b cf		 mov	 ecx, edi
  000eb	e8 00 00 00 00	 call	 ?ReadIniFile@CDlgSettingToolBar@@AAEXH@Z ; CDlgSettingToolBar::ReadIniFile
  000f0	56		 push	 esi
  000f1	53		 push	 ebx
  000f2	8b cf		 mov	 ecx, edi
  000f4	e8 00 00 00 00	 call	 ?FillShowList@CDlgSettingToolBar@@AAEXAAV?$CArray@HH@@AAV?$CMap@HHV?$CStringT@DV?$StrTraitMFC_DLL@DV?$ChTraitsCRT@D@ATL@@@@@ATL@@V12@@@@Z ; CDlgSettingToolBar::FillShowList
  000f9	5f		 pop	 edi
  000fa	5e		 pop	 esi
  000fb	5b		 pop	 ebx
  000fc	c3		 ret	 0
$LN4@OnBtnInit:
; File C:\Program Files (x86)\Microsoft Visual Studio\2019\Community\VC\Tools\MSVC\14.29.30133\atlmfc\include\afxtempl.h

; 381  : 		if (m_pData != NULL)

  000fd	8b 87 d8 00 00
	00		 mov	 eax, DWORD PTR [edi+216]
; File D:\git\src\IBK\IBK_DRFN\ProjSrc\SrcDrfn\Chart\MULTICHART\DlgSettingToolBar.cpp

; 497  : 		m_arrayUserIdx.RemoveAll();

  00103	8d 9f d4 00 00
	00		 lea	 ebx, DWORD PTR [edi+212]
; File C:\Program Files (x86)\Microsoft Visual Studio\2019\Community\VC\Tools\MSVC\14.29.30133\atlmfc\include\afxtempl.h

; 381  : 		if (m_pData != NULL)

  00109	85 c0		 test	 eax, eax
  0010b	74 1f		 je	 SHORT $LN33@OnBtnInit

; 382  : 		{
; 383  : 			for( int i = 0; i < m_nSize; i++ )

  0010d	83 bf dc 00 00
	00 00		 cmp	 DWORD PTR [edi+220], 0
  00114	7e 03		 jle	 SHORT $LN15@OnBtnInit
  00116	8b 43 04	 mov	 eax, DWORD PTR [ebx+4]
$LN15@OnBtnInit:

; 384  : 				(m_pData + i)->~TYPE();
; 385  : 			delete[] (BYTE*)m_pData;

  00119	50		 push	 eax
  0011a	e8 00 00 00 00	 call	 ??_V@YAXPAX@Z		; operator delete[]
  0011f	83 c4 04	 add	 esp, 4

; 386  : 			m_pData = NULL;

  00122	c7 87 d8 00 00
	00 00 00 00 00	 mov	 DWORD PTR [edi+216], 0
$LN33@OnBtnInit:
; File D:\git\src\IBK\IBK_DRFN\ProjSrc\SrcDrfn\Chart\MULTICHART\DlgSettingToolBar.cpp

; 498  : 		m_mapUserList.RemoveAll();

  0012c	8d b7 20 01 00
	00		 lea	 esi, DWORD PTR [edi+288]
; File C:\Program Files (x86)\Microsoft Visual Studio\2019\Community\VC\Tools\MSVC\14.29.30133\atlmfc\include\afxtempl.h

; 388  : 		m_nSize = m_nMaxSize = 0;

  00132	c7 87 e0 00 00
	00 00 00 00 00	 mov	 DWORD PTR [edi+224], 0
; File D:\git\src\IBK\IBK_DRFN\ProjSrc\SrcDrfn\Chart\MULTICHART\DlgSettingToolBar.cpp

; 498  : 		m_mapUserList.RemoveAll();

  0013c	8b ce		 mov	 ecx, esi
; File C:\Program Files (x86)\Microsoft Visual Studio\2019\Community\VC\Tools\MSVC\14.29.30133\atlmfc\include\afxtempl.h

; 388  : 		m_nSize = m_nMaxSize = 0;

  0013e	c7 87 dc 00 00
	00 00 00 00 00	 mov	 DWORD PTR [edi+220], 0
; File D:\git\src\IBK\IBK_DRFN\ProjSrc\SrcDrfn\Chart\MULTICHART\DlgSettingToolBar.cpp

; 498  : 		m_mapUserList.RemoveAll();

  00148	e8 00 00 00 00	 call	 ?RemoveAll@?$CMap@HHV?$CStringT@DV?$StrTraitMFC_DLL@DV?$ChTraitsCRT@D@ATL@@@@@ATL@@V12@@@QAEXXZ ; CMap<int,int,ATL::CStringT<char,StrTraitMFC_DLL<char,ATL::ChTraitsCRT<char> > >,ATL::CStringT<char,StrTraitMFC_DLL<char,ATL::ChTraitsCRT<char> > > >::RemoveAll

; 499  : 		ReadIniFile(nCurSel);

  0014d	6a 00		 push	 0

; 512  : 		FillShowList(m_arrayAdditionIdx, m_mapAdditionList);
; 513  : 		break;
; 514  : 	default:
; 515  : 		break;
; 516  : 	}
; 517  : }

  0014f	8b cf		 mov	 ecx, edi
  00151	e8 00 00 00 00	 call	 ?ReadIniFile@CDlgSettingToolBar@@AAEXH@Z ; CDlgSettingToolBar::ReadIniFile
  00156	56		 push	 esi
  00157	53		 push	 ebx
  00158	8b cf		 mov	 ecx, edi
  0015a	e8 00 00 00 00	 call	 ?FillShowList@CDlgSettingToolBar@@AAEXAAV?$CArray@HH@@AAV?$CMap@HHV?$CStringT@DV?$StrTraitMFC_DLL@DV?$ChTraitsCRT@D@ATL@@@@@ATL@@V12@@@@Z ; CDlgSettingToolBar::FillShowList
$LN7@OnBtnInit:
  0015f	5f		 pop	 edi
  00160	5e		 pop	 esi
  00161	5b		 pop	 ebx
  00162	c3		 ret	 0
?OnBtnInit@CDlgSettingToolBar@@IAEXXZ ENDP		; CDlgSettingToolBar::OnBtnInit
_TEXT	ENDS
; Function compile flags: /Ogtp
; File D:\git\src\IBK\IBK_DRFN\ProjSrc\SrcDrfn\Chart\MULTICHART\DlgSettingToolBar.cpp
; File C:\Program Files (x86)\Microsoft Visual Studio\2019\Community\VC\Tools\MSVC\14.29.30133\atlmfc\include\afxwin2.inl
; File D:\git\src\IBK\IBK_DRFN\ProjSrc\SrcDrfn\Chart\MULTICHART\DlgSettingToolBar.cpp
; File C:\Program Files (x86)\Microsoft Visual Studio\2019\Community\VC\Tools\MSVC\14.29.30133\atlmfc\include\afxwin2.inl
; File D:\git\src\IBK\IBK_DRFN\ProjSrc\SrcDrfn\Chart\MULTICHART\DlgSettingToolBar.cpp
; File C:\Program Files (x86)\Microsoft Visual Studio\2019\Community\VC\Tools\MSVC\14.29.30133\atlmfc\include\afxwin2.inl
; File D:\git\src\IBK\IBK_DRFN\ProjSrc\SrcDrfn\Chart\MULTICHART\DlgSettingToolBar.cpp
; File C:\Program Files (x86)\Microsoft Visual Studio\2019\Community\VC\Tools\MSVC\14.29.30133\atlmfc\include\afxtempl.h
; File D:\git\src\IBK\IBK_DRFN\ProjSrc\SrcDrfn\Chart\MULTICHART\DlgSettingToolBar.cpp
; File C:\Program Files (x86)\Microsoft Visual Studio\2019\Community\VC\Tools\MSVC\14.29.30133\atlmfc\include\afxtempl.h
; File D:\git\src\IBK\IBK_DRFN\ProjSrc\SrcDrfn\Chart\MULTICHART\DlgSettingToolBar.cpp
; File C:\Program Files (x86)\Microsoft Visual Studio\2019\Community\VC\Tools\MSVC\14.29.30133\atlmfc\include\afxtempl.h
; File D:\git\src\IBK\IBK_DRFN\ProjSrc\SrcDrfn\Chart\MULTICHART\DlgSettingToolBar.cpp
; File C:\Program Files (x86)\Microsoft Visual Studio\2019\Community\VC\Tools\MSVC\14.29.30133\atlmfc\include\afxtempl.h
; File D:\git\src\IBK\IBK_DRFN\ProjSrc\SrcDrfn\Chart\MULTICHART\DlgSettingToolBar.cpp
; File C:\Program Files (x86)\Microsoft Visual Studio\2019\Community\VC\Tools\MSVC\14.29.30133\atlmfc\include\afxtempl.h
; File D:\git\src\IBK\IBK_DRFN\ProjSrc\SrcDrfn\Chart\MULTICHART\DlgSettingToolBar.cpp
; File C:\Program Files (x86)\Microsoft Visual Studio\2019\Community\VC\Tools\MSVC\14.29.30133\atlmfc\include\afxtempl.h
; File D:\git\src\IBK\IBK_DRFN\ProjSrc\SrcDrfn\Chart\MULTICHART\DlgSettingToolBar.cpp
; File C:\Program Files (x86)\Microsoft Visual Studio\2019\Community\VC\Tools\MSVC\14.29.30133\atlmfc\include\afxtempl.h
; File D:\git\src\IBK\IBK_DRFN\ProjSrc\SrcDrfn\Chart\MULTICHART\DlgSettingToolBar.cpp
; File C:\Program Files (x86)\Microsoft Visual Studio\2019\Community\VC\Tools\MSVC\14.29.30133\atlmfc\include\afxtempl.h
; File D:\git\src\IBK\IBK_DRFN\ProjSrc\SrcDrfn\Chart\MULTICHART\DlgSettingToolBar.cpp
; File C:\Program Files (x86)\Microsoft Visual Studio\2019\Community\VC\Tools\MSVC\14.29.30133\atlmfc\include\afxtempl.h
; File D:\git\src\IBK\IBK_DRFN\ProjSrc\SrcDrfn\Chart\MULTICHART\DlgSettingToolBar.cpp
;	COMDAT ?OnBtnAdd@CDlgSettingToolBar@@IAEXXZ
_TEXT	SEGMENT
_nHashValue$2 = -24					; size = 4
_nHashValue$3 = -24					; size = 4
_nHashBucket$4 = -24					; size = 4
_nKey$ = -24						; size = 4
_nIndex$1$ = -20					; size = 4
_nHashBucket$5 = -20					; size = 4
_nHashBucket$6 = -20					; size = 4
_nHashValue$7 = -20					; size = 4
_strFieldName$ = -16					; size = 4
__$EHRec$ = -12						; size = 12
?OnBtnAdd@CDlgSettingToolBar@@IAEXXZ PROC		; CDlgSettingToolBar::OnBtnAdd, COMDAT
; _this$ = ecx

; 427  : {

  00000	55		 push	 ebp
  00001	8b ec		 mov	 ebp, esp
  00003	6a ff		 push	 -1
  00005	68 00 00 00 00	 push	 __ehhandler$?OnBtnAdd@CDlgSettingToolBar@@IAEXXZ
  0000a	64 a1 00 00 00
	00		 mov	 eax, DWORD PTR fs:0
  00010	50		 push	 eax
  00011	83 ec 0c	 sub	 esp, 12			; 0000000cH
  00014	53		 push	 ebx
  00015	56		 push	 esi
  00016	57		 push	 edi
  00017	a1 00 00 00 00	 mov	 eax, DWORD PTR ___security_cookie
  0001c	33 c5		 xor	 eax, ebp
  0001e	50		 push	 eax
  0001f	8d 45 f4	 lea	 eax, DWORD PTR __$EHRec$[ebp]
  00022	64 a3 00 00 00
	00		 mov	 DWORD PTR fs:0, eax
  00028	8b f9		 mov	 edi, ecx

; 430  : 	CString strFieldName;

  0002a	8d 4d f0	 lea	 ecx, DWORD PTR _strFieldName$[ebp]
  0002d	ff 15 00 00 00
	00		 call	 DWORD PTR __imp_??0?$CStringT@DV?$StrTraitMFC_DLL@DV?$ChTraitsCRT@D@ATL@@@@@ATL@@QAE@XZ
; File C:\Program Files (x86)\Microsoft Visual Studio\2019\Community\VC\Tools\MSVC\14.29.30133\atlmfc\include\afxwin2.inl

; 765  : 	{ ASSERT(::IsWindow(m_hWnd)); return (int)::SendMessage(m_hWnd, CB_GETCURSEL, 0, 0); }

  00033	8b 35 00 00 00
	00		 mov	 esi, DWORD PTR __imp__SendMessageA@16
  00039	6a 00		 push	 0
  0003b	6a 00		 push	 0
  0003d	68 47 01 00 00	 push	 327			; 00000147H
  00042	ff b7 e8 02 00
	00		 push	 DWORD PTR [edi+744]
; File D:\git\src\IBK\IBK_DRFN\ProjSrc\SrcDrfn\Chart\MULTICHART\DlgSettingToolBar.cpp

; 430  : 	CString strFieldName;

  00048	c7 45 fc 00 00
	00 00		 mov	 DWORD PTR __$EHRec$[ebp+8], 0
; File C:\Program Files (x86)\Microsoft Visual Studio\2019\Community\VC\Tools\MSVC\14.29.30133\atlmfc\include\afxwin2.inl

; 765  : 	{ ASSERT(::IsWindow(m_hWnd)); return (int)::SendMessage(m_hWnd, CB_GETCURSEL, 0, 0); }

  0004f	ff d6		 call	 esi

; 666  : 	{ ASSERT(::IsWindow(m_hWnd)); return (int)::SendMessage(m_hWnd, LB_GETCURSEL, 0, 0); }

  00051	6a 00		 push	 0
  00053	6a 00		 push	 0
  00055	68 88 01 00 00	 push	 392			; 00000188H
  0005a	ff b7 e8 01 00
	00		 push	 DWORD PTR [edi+488]
; File D:\git\src\IBK\IBK_DRFN\ProjSrc\SrcDrfn\Chart\MULTICHART\DlgSettingToolBar.cpp

; 431  : 	int nCmbCurSel = m_cmbAvailable.GetCurSel();

  00060	8b d8		 mov	 ebx, eax
; File C:\Program Files (x86)\Microsoft Visual Studio\2019\Community\VC\Tools\MSVC\14.29.30133\atlmfc\include\afxwin2.inl

; 666  : 	{ ASSERT(::IsWindow(m_hWnd)); return (int)::SendMessage(m_hWnd, LB_GETCURSEL, 0, 0); }

  00062	ff d6		 call	 esi
; File D:\git\src\IBK\IBK_DRFN\ProjSrc\SrcDrfn\Chart\MULTICHART\DlgSettingToolBar.cpp

; 432  : 	int nCurSel = m_listAvailable.GetCurSel();

  00064	8b f0		 mov	 esi, eax

; 433  : 	if(nCurSel < 0) return;

  00066	85 f6		 test	 esi, esi
  00068	0f 88 04 01 00
	00		 js	 $LN7@OnBtnAdd

; 434  : 	if(0 ==nCmbCurSel)		// Anal

  0006e	85 db		 test	 ebx, ebx
  00070	75 3c		 jne	 SHORT $LN3@OnBtnAdd
; File C:\Program Files (x86)\Microsoft Visual Studio\2019\Community\VC\Tools\MSVC\14.29.30133\atlmfc\include\afxtempl.h

; 288  : 	if(nIndex >= 0 && nIndex < m_nSize)

  00072	3b b7 b4 00 00
	00		 cmp	 esi, DWORD PTR [edi+180]
  00078	0f 8d 0f 01 00
	00		 jge	 $LN40@OnBtnAdd
; File D:\git\src\IBK\IBK_DRFN\ProjSrc\SrcDrfn\Chart\MULTICHART\DlgSettingToolBar.cpp

; 437  : 		m_mapAnalList.Lookup(nKey, strFieldName);

  0007e	8b 87 b0 00 00
	00		 mov	 eax, DWORD PTR [edi+176]
  00084	8d 8f e8 00 00
	00		 lea	 ecx, DWORD PTR [edi+232]
  0008a	8b 34 b0	 mov	 esi, DWORD PTR [eax+esi*4]
; File C:\Program Files (x86)\Microsoft Visual Studio\2019\Community\VC\Tools\MSVC\14.29.30133\atlmfc\include\afxtempl.h

; 1555 : 	CAssoc* pAssoc = GetAssocAt(key, nHashBucket, nHashValue);

  0008d	8d 45 ec	 lea	 eax, DWORD PTR _nHashValue$7[ebp]
  00090	50		 push	 eax
  00091	8d 45 e8	 lea	 eax, DWORD PTR _nHashBucket$4[ebp]
  00094	50		 push	 eax
  00095	56		 push	 esi
  00096	e8 00 00 00 00	 call	 ?GetAssocAt@?$CMap@HHV?$CStringT@DV?$StrTraitMFC_DLL@DV?$ChTraitsCRT@D@ATL@@@@@ATL@@V12@@@IBEPAVCAssoc@1@HAAI0@Z ; CMap<int,int,ATL::CStringT<char,StrTraitMFC_DLL<char,ATL::ChTraitsCRT<char> > >,ATL::CStringT<char,StrTraitMFC_DLL<char,ATL::ChTraitsCRT<char> > > >::GetAssocAt

; 1556 : 	if (pAssoc == NULL)

  0009b	85 c0		 test	 eax, eax
  0009d	74 53		 je	 SHORT $LN26@OnBtnAdd

; 1557 : 		return FALSE;  // not in map
; 1558 : 
; 1559 : 	rValue = pAssoc->value;

  0009f	83 c0 04	 add	 eax, 4
  000a2	8d 4d f0	 lea	 ecx, DWORD PTR _strFieldName$[ebp]
  000a5	50		 push	 eax
  000a6	ff 15 00 00 00
	00		 call	 DWORD PTR __imp_??4?$CStringT@DV?$StrTraitMFC_DLL@DV?$ChTraitsCRT@D@ATL@@@@@ATL@@QAEAAV01@ABV01@@Z
; File D:\git\src\IBK\IBK_DRFN\ProjSrc\SrcDrfn\Chart\MULTICHART\DlgSettingToolBar.cpp

; 438  : 	}

  000ac	eb 44		 jmp	 SHORT $LN26@OnBtnAdd
$LN3@OnBtnAdd:

; 439  : 	else if(1 == nCmbCurSel)	// Addition

  000ae	83 fb 01	 cmp	 ebx, 1
  000b1	75 3c		 jne	 SHORT $LN41@OnBtnAdd
; File C:\Program Files (x86)\Microsoft Visual Studio\2019\Community\VC\Tools\MSVC\14.29.30133\atlmfc\include\afxtempl.h

; 288  : 	if(nIndex >= 0 && nIndex < m_nSize)

  000b3	3b b7 c8 00 00
	00		 cmp	 esi, DWORD PTR [edi+200]
  000b9	0f 8d ce 00 00
	00		 jge	 $LN40@OnBtnAdd
; File D:\git\src\IBK\IBK_DRFN\ProjSrc\SrcDrfn\Chart\MULTICHART\DlgSettingToolBar.cpp

; 442  : 		m_mapAdditionList.Lookup(nKey, strFieldName);

  000bf	8b 87 c4 00 00
	00		 mov	 eax, DWORD PTR [edi+196]
  000c5	8d 8f 04 01 00
	00		 lea	 ecx, DWORD PTR [edi+260]
  000cb	8b 34 b0	 mov	 esi, DWORD PTR [eax+esi*4]
; File C:\Program Files (x86)\Microsoft Visual Studio\2019\Community\VC\Tools\MSVC\14.29.30133\atlmfc\include\afxtempl.h

; 1555 : 	CAssoc* pAssoc = GetAssocAt(key, nHashBucket, nHashValue);

  000ce	8d 45 e8	 lea	 eax, DWORD PTR _nHashValue$3[ebp]
  000d1	50		 push	 eax
  000d2	8d 45 ec	 lea	 eax, DWORD PTR _nHashBucket$6[ebp]
  000d5	50		 push	 eax
  000d6	56		 push	 esi
  000d7	e8 00 00 00 00	 call	 ?GetAssocAt@?$CMap@HHV?$CStringT@DV?$StrTraitMFC_DLL@DV?$ChTraitsCRT@D@ATL@@@@@ATL@@V12@@@IBEPAVCAssoc@1@HAAI0@Z ; CMap<int,int,ATL::CStringT<char,StrTraitMFC_DLL<char,ATL::ChTraitsCRT<char> > >,ATL::CStringT<char,StrTraitMFC_DLL<char,ATL::ChTraitsCRT<char> > > >::GetAssocAt

; 1556 : 	if (pAssoc == NULL)

  000dc	85 c0		 test	 eax, eax
  000de	74 12		 je	 SHORT $LN26@OnBtnAdd

; 1557 : 		return FALSE;  // not in map
; 1558 : 
; 1559 : 	rValue = pAssoc->value;

  000e0	83 c0 04	 add	 eax, 4
  000e3	8d 4d f0	 lea	 ecx, DWORD PTR _strFieldName$[ebp]
  000e6	50		 push	 eax
  000e7	ff 15 00 00 00
	00		 call	 DWORD PTR __imp_??4?$CStringT@DV?$StrTraitMFC_DLL@DV?$ChTraitsCRT@D@ATL@@@@@ATL@@QAEAAV01@ABV01@@Z
; File D:\git\src\IBK\IBK_DRFN\ProjSrc\SrcDrfn\Chart\MULTICHART\DlgSettingToolBar.cpp

; 439  : 	else if(1 == nCmbCurSel)	// Addition

  000ed	eb 03		 jmp	 SHORT $LN26@OnBtnAdd
$LN41@OnBtnAdd:
  000ef	8b 75 e8	 mov	 esi, DWORD PTR _nKey$[ebp]
$LN26@OnBtnAdd:
; File C:\Program Files (x86)\Microsoft Visual Studio\2019\Community\VC\Tools\MSVC\14.29.30133\atlmfc\include\afxtempl.h

; 1555 : 	CAssoc* pAssoc = GetAssocAt(key, nHashBucket, nHashValue);

  000f2	8d 4d e8	 lea	 ecx, DWORD PTR _nHashValue$2[ebp]
  000f5	51		 push	 ecx
  000f6	8d 4d ec	 lea	 ecx, DWORD PTR _nHashBucket$5[ebp]
  000f9	51		 push	 ecx
  000fa	56		 push	 esi
  000fb	8d 8f 20 01 00
	00		 lea	 ecx, DWORD PTR [edi+288]
  00101	e8 00 00 00 00	 call	 ?GetAssocAt@?$CMap@HHV?$CStringT@DV?$StrTraitMFC_DLL@DV?$ChTraitsCRT@D@ATL@@@@@ATL@@V12@@@IBEPAVCAssoc@1@HAAI0@Z ; CMap<int,int,ATL::CStringT<char,StrTraitMFC_DLL<char,ATL::ChTraitsCRT<char> > >,ATL::CStringT<char,StrTraitMFC_DLL<char,ATL::ChTraitsCRT<char> > > >::GetAssocAt

; 1556 : 	if (pAssoc == NULL)

  00106	85 c0		 test	 eax, eax
  00108	74 1d		 je	 SHORT $LN39@OnBtnAdd

; 1557 : 		return FALSE;  // not in map
; 1558 : 
; 1559 : 	rValue = pAssoc->value;

  0010a	83 c0 04	 add	 eax, 4
  0010d	8d 4d f0	 lea	 ecx, DWORD PTR _strFieldName$[ebp]
  00110	50		 push	 eax
  00111	ff 15 00 00 00
	00		 call	 DWORD PTR __imp_??4?$CStringT@DV?$StrTraitMFC_DLL@DV?$ChTraitsCRT@D@ATL@@@@@ATL@@QAEAAV01@ABV01@@Z
; File D:\git\src\IBK\IBK_DRFN\ProjSrc\SrcDrfn\Chart\MULTICHART\DlgSettingToolBar.cpp

; 453  : 		AfxMessageBox("    .");

  00117	6a 00		 push	 0
  00119	6a 00		 push	 0
  0011b	68 00 00 00 00	 push	 OFFSET ??_C@_0CE@IAFEBKKH@?G?X?$LE?g?5?G?W?$LI?q?$MA?$LK?5?$MA?L?$LJ?L?5?$LI?q?$LH?O?$LP?$KB?5?A?$LI?$MA?g?G?U?$LE@
  00120	e8 00 00 00 00	 call	 ?AfxMessageBox@@YGHPBDII@Z ; AfxMessageBox
  00125	eb 4b		 jmp	 SHORT $LN7@OnBtnAdd
$LN39@OnBtnAdd:
; File C:\Program Files (x86)\Microsoft Visual Studio\2019\Community\VC\Tools\MSVC\14.29.30133\atlmfc\include\afxtempl.h

; 333  : 	{ INT_PTR nIndex = m_nSize;

  00127	8b 87 dc 00 00
	00		 mov	 eax, DWORD PTR [edi+220]
; File D:\git\src\IBK\IBK_DRFN\ProjSrc\SrcDrfn\Chart\MULTICHART\DlgSettingToolBar.cpp

; 447  : 		m_arrayUserIdx.Add(nKey);

  0012d	8d 9f d4 00 00
	00		 lea	 ebx, DWORD PTR [edi+212]
; File C:\Program Files (x86)\Microsoft Visual Studio\2019\Community\VC\Tools\MSVC\14.29.30133\atlmfc\include\afxtempl.h

; 333  : 	{ INT_PTR nIndex = m_nSize;

  00133	89 45 ec	 mov	 DWORD PTR _nIndex$1$[ebp], eax

; 538  : 	if(nIndex < 0)

  00136	85 c0		 test	 eax, eax
  00138	78 53		 js	 SHORT $LN40@OnBtnAdd

; 540  : 
; 541  : 	if (nIndex >= m_nSize)
; 542  : 		SetSize(nIndex+1, -1);

  0013a	6a ff		 push	 -1
  0013c	40		 inc	 eax
  0013d	8b cb		 mov	 ecx, ebx
  0013f	50		 push	 eax
  00140	e8 00 00 00 00	 call	 ?SetSize@?$CArray@HH@@QAEXHH@Z ; CArray<int,int>::SetSize

; 543  : 	m_pData[nIndex] = newElement;

  00145	8b 43 04	 mov	 eax, DWORD PTR [ebx+4]
  00148	8b 4d ec	 mov	 ecx, DWORD PTR _nIndex$1$[ebp]
; File D:\git\src\IBK\IBK_DRFN\ProjSrc\SrcDrfn\Chart\MULTICHART\DlgSettingToolBar.cpp

; 448  : 		m_mapUserList.SetAt(nKey, strFieldName);

  0014b	51		 push	 ecx
; File C:\Program Files (x86)\Microsoft Visual Studio\2019\Community\VC\Tools\MSVC\14.29.30133\atlmfc\include\afxtempl.h

; 543  : 	m_pData[nIndex] = newElement;

  0014c	89 34 88	 mov	 DWORD PTR [eax+ecx*4], esi
; File D:\git\src\IBK\IBK_DRFN\ProjSrc\SrcDrfn\Chart\MULTICHART\DlgSettingToolBar.cpp

; 448  : 		m_mapUserList.SetAt(nKey, strFieldName);

  0014f	8d 45 f0	 lea	 eax, DWORD PTR _strFieldName$[ebp]
  00152	8b cc		 mov	 ecx, esp
  00154	50		 push	 eax
  00155	ff 15 00 00 00
	00		 call	 DWORD PTR __imp_??0?$CStringT@DV?$StrTraitMFC_DLL@DV?$ChTraitsCRT@D@ATL@@@@@ATL@@QAE@ABV01@@Z
  0015b	56		 push	 esi
  0015c	8d b7 20 01 00
	00		 lea	 esi, DWORD PTR [edi+288]
  00162	8b ce		 mov	 ecx, esi
  00164	e8 00 00 00 00	 call	 ?SetAt@?$CMap@HHV?$CStringT@DV?$StrTraitMFC_DLL@DV?$ChTraitsCRT@D@ATL@@@@@ATL@@V12@@@QAEXHV?$CStringT@DV?$StrTraitMFC_DLL@DV?$ChTraitsCRT@D@ATL@@@@@ATL@@@Z ; CMap<int,int,ATL::CStringT<char,StrTraitMFC_DLL<char,ATL::ChTraitsCRT<char> > >,ATL::CStringT<char,StrTraitMFC_DLL<char,ATL::ChTraitsCRT<char> > > >::SetAt

; 449  : 
; 450  : 		FillShowList(m_arrayUserIdx, m_mapUserList);

  00169	56		 push	 esi
  0016a	53		 push	 ebx
  0016b	8b cf		 mov	 ecx, edi
  0016d	e8 00 00 00 00	 call	 ?FillShowList@CDlgSettingToolBar@@AAEXAAV?$CArray@HH@@AAV?$CMap@HHV?$CStringT@DV?$StrTraitMFC_DLL@DV?$ChTraitsCRT@D@ATL@@@@@ATL@@V12@@@@Z ; CDlgSettingToolBar::FillShowList
$LN7@OnBtnAdd:

; 455  : }

  00172	8d 4d f0	 lea	 ecx, DWORD PTR _strFieldName$[ebp]
  00175	ff 15 00 00 00
	00		 call	 DWORD PTR __imp_??1?$CStringT@DV?$StrTraitMFC_DLL@DV?$ChTraitsCRT@D@ATL@@@@@ATL@@QAE@XZ
  0017b	8b 4d f4	 mov	 ecx, DWORD PTR __$EHRec$[ebp]
  0017e	64 89 0d 00 00
	00 00		 mov	 DWORD PTR fs:0, ecx
  00185	59		 pop	 ecx
  00186	5f		 pop	 edi
  00187	5e		 pop	 esi
  00188	5b		 pop	 ebx
  00189	8b e5		 mov	 esp, ebp
  0018b	5d		 pop	 ebp
  0018c	c3		 ret	 0
$LN40@OnBtnAdd:
; File C:\Program Files (x86)\Microsoft Visual Studio\2019\Community\VC\Tools\MSVC\14.29.30133\atlmfc\include\afxtempl.h

; 539  : 		AfxThrowInvalidArgException();

  0018d	e8 00 00 00 00	 call	 ?AfxThrowInvalidArgException@@YGXXZ ; AfxThrowInvalidArgException
$LN43@OnBtnAdd:
  00192	cc		 int	 3
_TEXT	ENDS
;	COMDAT text$x
text$x	SEGMENT
__unwindfunclet$?OnBtnAdd@CDlgSettingToolBar@@IAEXXZ$0:
  00000	8d 4d f0	 lea	 ecx, DWORD PTR _strFieldName$[ebp]
  00003	ff 25 00 00 00
	00		 jmp	 DWORD PTR __imp_??1?$CStringT@DV?$StrTraitMFC_DLL@DV?$ChTraitsCRT@D@ATL@@@@@ATL@@QAE@XZ
  00009	cc		 int	 3
  0000a	cc		 int	 3
  0000b	cc		 int	 3
  0000c	cc		 int	 3
  0000d	cc		 int	 3
__ehhandler$?OnBtnAdd@CDlgSettingToolBar@@IAEXXZ:
  0000e	90		 npad	 1
  0000f	90		 npad	 1
  00010	8b 54 24 08	 mov	 edx, DWORD PTR [esp+8]
  00014	8d 42 0c	 lea	 eax, DWORD PTR [edx+12]
  00017	8b 4a e4	 mov	 ecx, DWORD PTR [edx-28]
  0001a	33 c8		 xor	 ecx, eax
  0001c	e8 00 00 00 00	 call	 @__security_check_cookie@4
  00021	b8 00 00 00 00	 mov	 eax, OFFSET __ehfuncinfo$?OnBtnAdd@CDlgSettingToolBar@@IAEXXZ
  00026	e9 00 00 00 00	 jmp	 ___CxxFrameHandler3
text$x	ENDS
?OnBtnAdd@CDlgSettingToolBar@@IAEXXZ ENDP		; CDlgSettingToolBar::OnBtnAdd
; Function compile flags: /Ogtp
; File D:\git\src\IBK\IBK_DRFN\ProjSrc\SrcDrfn\Chart\MULTICHART\DlgSettingToolBar.cpp
; File C:\Program Files (x86)\Microsoft Visual Studio\2019\Community\VC\Tools\MSVC\14.29.30133\atlmfc\include\afxwin2.inl
; File D:\git\src\IBK\IBK_DRFN\ProjSrc\SrcDrfn\Chart\MULTICHART\DlgSettingToolBar.cpp
; File C:\Program Files (x86)\Microsoft Visual Studio\2019\Community\VC\Tools\MSVC\14.29.30133\atlmfc\include\afxwin2.inl
; File D:\git\src\IBK\IBK_DRFN\ProjSrc\SrcDrfn\Chart\MULTICHART\DlgSettingToolBar.cpp
;	COMDAT ?OnSelchangeCmbShow@CDlgSettingToolBar@@IAEXXZ
_TEXT	SEGMENT
?OnSelchangeCmbShow@CDlgSettingToolBar@@IAEXXZ PROC	; CDlgSettingToolBar::OnSelchangeCmbShow, COMDAT
; _this$ = ecx

; 350  : {

  00000	56		 push	 esi
; File C:\Program Files (x86)\Microsoft Visual Studio\2019\Community\VC\Tools\MSVC\14.29.30133\atlmfc\include\afxwin2.inl

; 765  : 	{ ASSERT(::IsWindow(m_hWnd)); return (int)::SendMessage(m_hWnd, CB_GETCURSEL, 0, 0); }

  00001	6a 00		 push	 0
; File D:\git\src\IBK\IBK_DRFN\ProjSrc\SrcDrfn\Chart\MULTICHART\DlgSettingToolBar.cpp

; 350  : {

  00003	8b f1		 mov	 esi, ecx
; File C:\Program Files (x86)\Microsoft Visual Studio\2019\Community\VC\Tools\MSVC\14.29.30133\atlmfc\include\afxwin2.inl

; 765  : 	{ ASSERT(::IsWindow(m_hWnd)); return (int)::SendMessage(m_hWnd, CB_GETCURSEL, 0, 0); }

  00005	6a 00		 push	 0
  00007	68 47 01 00 00	 push	 327			; 00000147H
  0000c	ff b6 68 02 00
	00		 push	 DWORD PTR [esi+616]
  00012	ff 15 00 00 00
	00		 call	 DWORD PTR __imp__SendMessageA@16
; File D:\git\src\IBK\IBK_DRFN\ProjSrc\SrcDrfn\Chart\MULTICHART\DlgSettingToolBar.cpp

; 352  : 	switch(nCul)

  00018	83 e8 00	 sub	 eax, 0
  0001b	0f 84 3b 01 00
	00		 je	 $LN4@OnSelchang
  00021	83 e8 01	 sub	 eax, 1
  00024	0f 84 9d 00 00
	00		 je	 $LN5@OnSelchang
  0002a	83 e8 01	 sub	 eax, 1
  0002d	0f 85 bc 01 00
	00		 jne	 $LN7@OnSelchang

; 373  : 		break;
; 374  : 	case 2:		// 
; 375  : 		GetDlgItem(IDC_CMB_AVAILABLE)->EnableWindow(FALSE);

  00033	50		 push	 eax
  00034	68 76 18 00 00	 push	 6262			; 00001876H
  00039	8b ce		 mov	 ecx, esi
  0003b	e8 00 00 00 00	 call	 ?GetDlgItem@CWnd@@QBEPAV1@H@Z ; CWnd::GetDlgItem
  00040	8b c8		 mov	 ecx, eax
  00042	e8 00 00 00 00	 call	 ?EnableWindow@CWnd@@QAEHH@Z ; CWnd::EnableWindow

; 376  : 		GetDlgItem(IDC_LIST_AVAILABLE)->EnableWindow(FALSE);

  00047	6a 00		 push	 0
  00049	68 00 2b 00 00	 push	 11008			; 00002b00H
  0004e	8b ce		 mov	 ecx, esi
  00050	e8 00 00 00 00	 call	 ?GetDlgItem@CWnd@@QBEPAV1@H@Z ; CWnd::GetDlgItem
  00055	8b c8		 mov	 ecx, eax
  00057	e8 00 00 00 00	 call	 ?EnableWindow@CWnd@@QAEHH@Z ; CWnd::EnableWindow

; 377  : 		GetDlgItem(IDC_BTN_ADD)->EnableWindow(FALSE);

  0005c	6a 00		 push	 0
  0005e	68 01 2b 00 00	 push	 11009			; 00002b01H
  00063	8b ce		 mov	 ecx, esi
  00065	e8 00 00 00 00	 call	 ?GetDlgItem@CWnd@@QBEPAV1@H@Z ; CWnd::GetDlgItem
  0006a	8b c8		 mov	 ecx, eax
  0006c	e8 00 00 00 00	 call	 ?EnableWindow@CWnd@@QAEHH@Z ; CWnd::EnableWindow

; 378  : 		GetDlgItem(IDC_BTN_REMOVE)->EnableWindow(FALSE);

  00071	6a 00		 push	 0
  00073	68 03 2b 00 00	 push	 11011			; 00002b03H
  00078	8b ce		 mov	 ecx, esi
  0007a	e8 00 00 00 00	 call	 ?GetDlgItem@CWnd@@QBEPAV1@H@Z ; CWnd::GetDlgItem
  0007f	8b c8		 mov	 ecx, eax
  00081	e8 00 00 00 00	 call	 ?EnableWindow@CWnd@@QAEHH@Z ; CWnd::EnableWindow

; 379  : 		GetDlgItem(IDC_BTN_REMOVEALL)->EnableWindow(FALSE);

  00086	6a 00		 push	 0
  00088	68 04 2b 00 00	 push	 11012			; 00002b04H
  0008d	8b ce		 mov	 ecx, esi
  0008f	e8 00 00 00 00	 call	 ?GetDlgItem@CWnd@@QBEPAV1@H@Z ; CWnd::GetDlgItem
  00094	8b c8		 mov	 ecx, eax
  00096	e8 00 00 00 00	 call	 ?EnableWindow@CWnd@@QAEHH@Z ; CWnd::EnableWindow

; 380  : 		GetDlgItem(IDC_BTN_ADDALL)->EnableWindow(FALSE);

  0009b	6a 00		 push	 0
  0009d	68 08 2b 00 00	 push	 11016			; 00002b08H
  000a2	8b ce		 mov	 ecx, esi
  000a4	e8 00 00 00 00	 call	 ?GetDlgItem@CWnd@@QBEPAV1@H@Z ; CWnd::GetDlgItem
  000a9	8b c8		 mov	 ecx, eax
  000ab	e8 00 00 00 00	 call	 ?EnableWindow@CWnd@@QAEHH@Z ; CWnd::EnableWindow

; 381  : 
; 382  : 		FillShowList(m_arrayAdditionIdx, m_mapAdditionList);

  000b0	8d 86 04 01 00
	00		 lea	 eax, DWORD PTR [esi+260]

; 383  : 		break;	
; 384  : 	default:
; 385  : 		break;
; 386  : 	}
; 387  : }

  000b6	8b ce		 mov	 ecx, esi
  000b8	50		 push	 eax
  000b9	8d 86 c0 00 00
	00		 lea	 eax, DWORD PTR [esi+192]
  000bf	50		 push	 eax
  000c0	e8 00 00 00 00	 call	 ?FillShowList@CDlgSettingToolBar@@AAEXAAV?$CArray@HH@@AAV?$CMap@HHV?$CStringT@DV?$StrTraitMFC_DLL@DV?$ChTraitsCRT@D@ATL@@@@@ATL@@V12@@@@Z ; CDlgSettingToolBar::FillShowList
  000c5	5e		 pop	 esi
  000c6	c3		 ret	 0
$LN5@OnSelchang:

; 363  : 		break;
; 364  : 	case 1:		// 
; 365  : 		GetDlgItem(IDC_CMB_AVAILABLE)->EnableWindow(FALSE);

  000c7	6a 00		 push	 0
  000c9	68 76 18 00 00	 push	 6262			; 00001876H
  000ce	8b ce		 mov	 ecx, esi
  000d0	e8 00 00 00 00	 call	 ?GetDlgItem@CWnd@@QBEPAV1@H@Z ; CWnd::GetDlgItem
  000d5	8b c8		 mov	 ecx, eax
  000d7	e8 00 00 00 00	 call	 ?EnableWindow@CWnd@@QAEHH@Z ; CWnd::EnableWindow

; 366  : 		GetDlgItem(IDC_LIST_AVAILABLE)->EnableWindow(FALSE);

  000dc	6a 00		 push	 0
  000de	68 00 2b 00 00	 push	 11008			; 00002b00H
  000e3	8b ce		 mov	 ecx, esi
  000e5	e8 00 00 00 00	 call	 ?GetDlgItem@CWnd@@QBEPAV1@H@Z ; CWnd::GetDlgItem
  000ea	8b c8		 mov	 ecx, eax
  000ec	e8 00 00 00 00	 call	 ?EnableWindow@CWnd@@QAEHH@Z ; CWnd::EnableWindow

; 367  : 		GetDlgItem(IDC_BTN_ADD)->EnableWindow(FALSE);

  000f1	6a 00		 push	 0
  000f3	68 01 2b 00 00	 push	 11009			; 00002b01H
  000f8	8b ce		 mov	 ecx, esi
  000fa	e8 00 00 00 00	 call	 ?GetDlgItem@CWnd@@QBEPAV1@H@Z ; CWnd::GetDlgItem
  000ff	8b c8		 mov	 ecx, eax
  00101	e8 00 00 00 00	 call	 ?EnableWindow@CWnd@@QAEHH@Z ; CWnd::EnableWindow

; 368  : 		GetDlgItem(IDC_BTN_REMOVE)->EnableWindow(FALSE);

  00106	6a 00		 push	 0
  00108	68 03 2b 00 00	 push	 11011			; 00002b03H
  0010d	8b ce		 mov	 ecx, esi
  0010f	e8 00 00 00 00	 call	 ?GetDlgItem@CWnd@@QBEPAV1@H@Z ; CWnd::GetDlgItem
  00114	8b c8		 mov	 ecx, eax
  00116	e8 00 00 00 00	 call	 ?EnableWindow@CWnd@@QAEHH@Z ; CWnd::EnableWindow

; 369  : 		GetDlgItem(IDC_BTN_REMOVEALL)->EnableWindow(FALSE);

  0011b	6a 00		 push	 0
  0011d	68 04 2b 00 00	 push	 11012			; 00002b04H
  00122	8b ce		 mov	 ecx, esi
  00124	e8 00 00 00 00	 call	 ?GetDlgItem@CWnd@@QBEPAV1@H@Z ; CWnd::GetDlgItem
  00129	8b c8		 mov	 ecx, eax
  0012b	e8 00 00 00 00	 call	 ?EnableWindow@CWnd@@QAEHH@Z ; CWnd::EnableWindow

; 370  : 		GetDlgItem(IDC_BTN_ADDALL)->EnableWindow(FALSE);

  00130	6a 00		 push	 0
  00132	68 08 2b 00 00	 push	 11016			; 00002b08H
  00137	8b ce		 mov	 ecx, esi
  00139	e8 00 00 00 00	 call	 ?GetDlgItem@CWnd@@QBEPAV1@H@Z ; CWnd::GetDlgItem
  0013e	8b c8		 mov	 ecx, eax
  00140	e8 00 00 00 00	 call	 ?EnableWindow@CWnd@@QAEHH@Z ; CWnd::EnableWindow

; 371  : 
; 372  : 		FillShowList(m_arrayAnalIdx, m_mapAnalList);

  00145	8d 86 e8 00 00
	00		 lea	 eax, DWORD PTR [esi+232]

; 383  : 		break;	
; 384  : 	default:
; 385  : 		break;
; 386  : 	}
; 387  : }

  0014b	8b ce		 mov	 ecx, esi
  0014d	50		 push	 eax
  0014e	8d 86 ac 00 00
	00		 lea	 eax, DWORD PTR [esi+172]
  00154	50		 push	 eax
  00155	e8 00 00 00 00	 call	 ?FillShowList@CDlgSettingToolBar@@AAEXAAV?$CArray@HH@@AAV?$CMap@HHV?$CStringT@DV?$StrTraitMFC_DLL@DV?$ChTraitsCRT@D@ATL@@@@@ATL@@V12@@@@Z ; CDlgSettingToolBar::FillShowList
  0015a	5e		 pop	 esi
  0015b	c3		 ret	 0
$LN4@OnSelchang:

; 353  : 	{
; 354  : 	case 0:		// 
; 355  : 		GetDlgItem(IDC_CMB_AVAILABLE)->EnableWindow(TRUE);

  0015c	6a 01		 push	 1
  0015e	68 76 18 00 00	 push	 6262			; 00001876H
  00163	8b ce		 mov	 ecx, esi
  00165	e8 00 00 00 00	 call	 ?GetDlgItem@CWnd@@QBEPAV1@H@Z ; CWnd::GetDlgItem
  0016a	8b c8		 mov	 ecx, eax
  0016c	e8 00 00 00 00	 call	 ?EnableWindow@CWnd@@QAEHH@Z ; CWnd::EnableWindow

; 356  : 		GetDlgItem(IDC_LIST_AVAILABLE)->EnableWindow(TRUE);

  00171	6a 01		 push	 1
  00173	68 00 2b 00 00	 push	 11008			; 00002b00H
  00178	8b ce		 mov	 ecx, esi
  0017a	e8 00 00 00 00	 call	 ?GetDlgItem@CWnd@@QBEPAV1@H@Z ; CWnd::GetDlgItem
  0017f	8b c8		 mov	 ecx, eax
  00181	e8 00 00 00 00	 call	 ?EnableWindow@CWnd@@QAEHH@Z ; CWnd::EnableWindow

; 357  : 		GetDlgItem(IDC_BTN_ADD)->EnableWindow(TRUE);

  00186	6a 01		 push	 1
  00188	68 01 2b 00 00	 push	 11009			; 00002b01H
  0018d	8b ce		 mov	 ecx, esi
  0018f	e8 00 00 00 00	 call	 ?GetDlgItem@CWnd@@QBEPAV1@H@Z ; CWnd::GetDlgItem
  00194	8b c8		 mov	 ecx, eax
  00196	e8 00 00 00 00	 call	 ?EnableWindow@CWnd@@QAEHH@Z ; CWnd::EnableWindow

; 358  : 		GetDlgItem(IDC_BTN_REMOVE)->EnableWindow(TRUE);

  0019b	6a 01		 push	 1
  0019d	68 03 2b 00 00	 push	 11011			; 00002b03H
  001a2	8b ce		 mov	 ecx, esi
  001a4	e8 00 00 00 00	 call	 ?GetDlgItem@CWnd@@QBEPAV1@H@Z ; CWnd::GetDlgItem
  001a9	8b c8		 mov	 ecx, eax
  001ab	e8 00 00 00 00	 call	 ?EnableWindow@CWnd@@QAEHH@Z ; CWnd::EnableWindow

; 359  : 		GetDlgItem(IDC_BTN_REMOVEALL)->EnableWindow(TRUE);

  001b0	6a 01		 push	 1
  001b2	68 04 2b 00 00	 push	 11012			; 00002b04H
  001b7	8b ce		 mov	 ecx, esi
  001b9	e8 00 00 00 00	 call	 ?GetDlgItem@CWnd@@QBEPAV1@H@Z ; CWnd::GetDlgItem
  001be	8b c8		 mov	 ecx, eax
  001c0	e8 00 00 00 00	 call	 ?EnableWindow@CWnd@@QAEHH@Z ; CWnd::EnableWindow

; 360  : 		GetDlgItem(IDC_BTN_ADDALL)->EnableWindow(TRUE);

  001c5	6a 01		 push	 1
  001c7	68 08 2b 00 00	 push	 11016			; 00002b08H
  001cc	8b ce		 mov	 ecx, esi
  001ce	e8 00 00 00 00	 call	 ?GetDlgItem@CWnd@@QBEPAV1@H@Z ; CWnd::GetDlgItem
  001d3	8b c8		 mov	 ecx, eax
  001d5	e8 00 00 00 00	 call	 ?EnableWindow@CWnd@@QAEHH@Z ; CWnd::EnableWindow

; 361  : 
; 362  : 		FillShowList(m_arrayUserIdx, m_mapUserList);

  001da	8d 86 20 01 00
	00		 lea	 eax, DWORD PTR [esi+288]

; 383  : 		break;	
; 384  : 	default:
; 385  : 		break;
; 386  : 	}
; 387  : }

  001e0	8b ce		 mov	 ecx, esi
  001e2	50		 push	 eax
  001e3	8d 86 d4 00 00
	00		 lea	 eax, DWORD PTR [esi+212]
  001e9	50		 push	 eax
  001ea	e8 00 00 00 00	 call	 ?FillShowList@CDlgSettingToolBar@@AAEXAAV?$CArray@HH@@AAV?$CMap@HHV?$CStringT@DV?$StrTraitMFC_DLL@DV?$ChTraitsCRT@D@ATL@@@@@ATL@@V12@@@@Z ; CDlgSettingToolBar::FillShowList
$LN7@OnSelchang:
  001ef	5e		 pop	 esi
  001f0	c3		 ret	 0
?OnSelchangeCmbShow@CDlgSettingToolBar@@IAEXXZ ENDP	; CDlgSettingToolBar::OnSelchangeCmbShow
_TEXT	ENDS
; Function compile flags: /Ogtp
; File D:\git\src\IBK\IBK_DRFN\ProjSrc\SrcDrfn\Chart\MULTICHART\DlgSettingToolBar.cpp
; File C:\Program Files (x86)\Microsoft Visual Studio\2019\Community\VC\Tools\MSVC\14.29.30133\atlmfc\include\afxwin2.inl
; File D:\git\src\IBK\IBK_DRFN\ProjSrc\SrcDrfn\Chart\MULTICHART\DlgSettingToolBar.cpp
; File C:\Program Files (x86)\Microsoft Visual Studio\2019\Community\VC\Tools\MSVC\14.29.30133\atlmfc\include\afxwin2.inl
; File D:\git\src\IBK\IBK_DRFN\ProjSrc\SrcDrfn\Chart\MULTICHART\DlgSettingToolBar.cpp
;	COMDAT ?OnSelchangeCmbAvailable@CDlgSettingToolBar@@IAEXXZ
_TEXT	SEGMENT
?OnSelchangeCmbAvailable@CDlgSettingToolBar@@IAEXXZ PROC ; CDlgSettingToolBar::OnSelchangeCmbAvailable, COMDAT
; _this$ = ecx

; 334  : {

  00000	56		 push	 esi
; File C:\Program Files (x86)\Microsoft Visual Studio\2019\Community\VC\Tools\MSVC\14.29.30133\atlmfc\include\afxwin2.inl

; 765  : 	{ ASSERT(::IsWindow(m_hWnd)); return (int)::SendMessage(m_hWnd, CB_GETCURSEL, 0, 0); }

  00001	6a 00		 push	 0
; File D:\git\src\IBK\IBK_DRFN\ProjSrc\SrcDrfn\Chart\MULTICHART\DlgSettingToolBar.cpp

; 334  : {

  00003	8b f1		 mov	 esi, ecx
; File C:\Program Files (x86)\Microsoft Visual Studio\2019\Community\VC\Tools\MSVC\14.29.30133\atlmfc\include\afxwin2.inl

; 765  : 	{ ASSERT(::IsWindow(m_hWnd)); return (int)::SendMessage(m_hWnd, CB_GETCURSEL, 0, 0); }

  00005	6a 00		 push	 0
  00007	68 47 01 00 00	 push	 327			; 00000147H
  0000c	ff b6 e8 02 00
	00		 push	 DWORD PTR [esi+744]
  00012	ff 15 00 00 00
	00		 call	 DWORD PTR __imp__SendMessageA@16
; File D:\git\src\IBK\IBK_DRFN\ProjSrc\SrcDrfn\Chart\MULTICHART\DlgSettingToolBar.cpp

; 336  : 	switch(nCul)

  00018	83 e8 00	 sub	 eax, 0
  0001b	74 1c		 je	 SHORT $LN4@OnSelchang
  0001d	83 e8 01	 sub	 eax, 1
  00020	75 2c		 jne	 SHORT $LN6@OnSelchang

; 340  : 		break;
; 341  : 	case 1:		// 
; 342  : 		FillAvailableList(m_arrayAdditionIdx, m_mapAdditionList);

  00022	8d 86 04 01 00
	00		 lea	 eax, DWORD PTR [esi+260]

; 343  : 		break;	
; 344  : 	default:
; 345  : 		break;
; 346  : 	}
; 347  : }

  00028	8b ce		 mov	 ecx, esi
  0002a	50		 push	 eax
  0002b	8d 86 c0 00 00
	00		 lea	 eax, DWORD PTR [esi+192]
  00031	50		 push	 eax
  00032	e8 00 00 00 00	 call	 ?FillAvailableList@CDlgSettingToolBar@@AAEXAAV?$CArray@HH@@AAV?$CMap@HHV?$CStringT@DV?$StrTraitMFC_DLL@DV?$ChTraitsCRT@D@ATL@@@@@ATL@@V12@@@@Z ; CDlgSettingToolBar::FillAvailableList
  00037	5e		 pop	 esi
  00038	c3		 ret	 0
$LN4@OnSelchang:

; 337  : 	{
; 338  : 	case 0:		// 
; 339  : 		FillAvailableList(m_arrayAnalIdx, m_mapAnalList);

  00039	8d 86 e8 00 00
	00		 lea	 eax, DWORD PTR [esi+232]

; 343  : 		break;	
; 344  : 	default:
; 345  : 		break;
; 346  : 	}
; 347  : }

  0003f	8b ce		 mov	 ecx, esi
  00041	50		 push	 eax
  00042	8d 86 ac 00 00
	00		 lea	 eax, DWORD PTR [esi+172]
  00048	50		 push	 eax
  00049	e8 00 00 00 00	 call	 ?FillAvailableList@CDlgSettingToolBar@@AAEXAAV?$CArray@HH@@AAV?$CMap@HHV?$CStringT@DV?$StrTraitMFC_DLL@DV?$ChTraitsCRT@D@ATL@@@@@ATL@@V12@@@@Z ; CDlgSettingToolBar::FillAvailableList
$LN6@OnSelchang:
  0004e	5e		 pop	 esi
  0004f	c3		 ret	 0
?OnSelchangeCmbAvailable@CDlgSettingToolBar@@IAEXXZ ENDP ; CDlgSettingToolBar::OnSelchangeCmbAvailable
_TEXT	ENDS
; Function compile flags: /Ogtp
; File D:\git\src\IBK\IBK_DRFN\ProjSrc\SrcDrfn\Chart\MULTICHART\DlgSettingToolBar.cpp
; File C:\Program Files (x86)\Microsoft Visual Studio\2019\Community\VC\Tools\MSVC\14.29.30133\atlmfc\include\afxtempl.h
; File D:\git\src\IBK\IBK_DRFN\ProjSrc\SrcDrfn\Chart\MULTICHART\DlgSettingToolBar.cpp
; File C:\Program Files (x86)\Microsoft Visual Studio\2019\Community\VC\Tools\MSVC\14.29.30133\atlmfc\include\afxtempl.h
; File D:\git\src\IBK\IBK_DRFN\ProjSrc\SrcDrfn\Chart\MULTICHART\DlgSettingToolBar.cpp
; File C:\Program Files (x86)\Microsoft Visual Studio\2019\Community\VC\Tools\MSVC\14.29.30133\atlmfc\include\afxtempl.h
; File D:\git\src\IBK\IBK_DRFN\ProjSrc\SrcDrfn\Chart\MULTICHART\DlgSettingToolBar.cpp
; File C:\Program Files (x86)\Microsoft Visual Studio\2019\Community\VC\Tools\MSVC\14.29.30133\atlmfc\include\afxtempl.h
; File D:\git\src\IBK\IBK_DRFN\ProjSrc\SrcDrfn\Chart\MULTICHART\DlgSettingToolBar.cpp
; File C:\Program Files (x86)\Microsoft Visual Studio\2019\Community\VC\Tools\MSVC\14.29.30133\atlmfc\include\afxtempl.h
; File D:\git\src\IBK\IBK_DRFN\ProjSrc\SrcDrfn\Chart\MULTICHART\DlgSettingToolBar.cpp
; File C:\Program Files (x86)\Microsoft Visual Studio\2019\Community\VC\Tools\MSVC\14.29.30133\atlmfc\include\afxtempl.h
; File D:\git\src\IBK\IBK_DRFN\ProjSrc\SrcDrfn\Chart\MULTICHART\DlgSettingToolBar.cpp
; File C:\Program Files (x86)\Microsoft Visual Studio\2019\Community\VC\Tools\MSVC\14.29.30133\atlmfc\include\afxtempl.h
; File D:\git\src\IBK\IBK_DRFN\ProjSrc\SrcDrfn\Chart\MULTICHART\DlgSettingToolBar.cpp
; File C:\Program Files (x86)\Microsoft Visual Studio\2019\Community\VC\Tools\MSVC\14.29.30133\atlmfc\include\afxtempl.h
; File D:\git\src\IBK\IBK_DRFN\ProjSrc\SrcDrfn\Chart\MULTICHART\DlgSettingToolBar.cpp
; File C:\Program Files (x86)\Microsoft Visual Studio\2019\Community\VC\Tools\MSVC\14.29.30133\atlmfc\include\afxtempl.h
; File D:\git\src\IBK\IBK_DRFN\ProjSrc\SrcDrfn\Chart\MULTICHART\DlgSettingToolBar.cpp
; File C:\Program Files (x86)\Microsoft Visual Studio\2019\Community\VC\Tools\MSVC\14.29.30133\atlmfc\include\afxtempl.h
; File D:\git\src\IBK\IBK_DRFN\ProjSrc\SrcDrfn\Chart\MULTICHART\DlgSettingToolBar.cpp
;	COMDAT ?OnApply@CDlgSettingToolBar@@IAEXXZ
_TEXT	SEGMENT
_FileFind$ = -108					; size = 28
_strVersion$ = -80					; size = 4
_strPath$ = -76						; size = 4
_str$ = -72						; size = 4
_strFieldName$ = -68					; size = 4
_nFieldKey$3$ = -64					; size = 4
_nFieldKey$2$ = -64					; size = 4
_nFieldKey$1$ = -64					; size = 4
_nCnt$3$ = -60						; size = 4
_nCnt$2$ = -60						; size = 4
_nCnt$1$ = -60						; size = 4
_strConfigPath$ = -56					; size = 4
_strValue$ = -52					; size = 4
_szKey$ = -48						; size = 30
__$ArrayPad$ = -16					; size = 4
__$EHRec$ = -12						; size = 12
?OnApply@CDlgSettingToolBar@@IAEXXZ PROC		; CDlgSettingToolBar::OnApply, COMDAT
; _this$ = ecx

; 92   : {

  00000	55		 push	 ebp
  00001	8b ec		 mov	 ebp, esp
  00003	6a ff		 push	 -1
  00005	68 00 00 00 00	 push	 __ehhandler$?OnApply@CDlgSettingToolBar@@IAEXXZ
  0000a	64 a1 00 00 00
	00		 mov	 eax, DWORD PTR fs:0
  00010	50		 push	 eax
  00011	83 ec 60	 sub	 esp, 96			; 00000060H
  00014	a1 00 00 00 00	 mov	 eax, DWORD PTR ___security_cookie
  00019	33 c5		 xor	 eax, ebp
  0001b	89 45 f0	 mov	 DWORD PTR __$ArrayPad$[ebp], eax
  0001e	53		 push	 ebx
  0001f	56		 push	 esi
  00020	57		 push	 edi
  00021	50		 push	 eax
  00022	8d 45 f4	 lea	 eax, DWORD PTR __$EHRec$[ebp]
  00025	64 a3 00 00 00
	00		 mov	 DWORD PTR fs:0, eax
  0002b	8b f9		 mov	 edi, ecx

; 93   : 	m_bApply = FALSE;
; 94   : 	GetDlgItem(IDC_APPLY)->EnableWindow(m_bApply);

  0002d	6a 00		 push	 0
  0002f	6a 03		 push	 3
  00031	c7 87 a8 00 00
	00 00 00 00 00	 mov	 DWORD PTR [edi+168], 0
  0003b	e8 00 00 00 00	 call	 ?GetDlgItem@CWnd@@QBEPAV1@H@Z ; CWnd::GetDlgItem
  00040	8b c8		 mov	 ecx, eax
  00042	e8 00 00 00 00	 call	 ?EnableWindow@CWnd@@QAEHH@Z ; CWnd::EnableWindow

; 95   : 
; 96   : 	int nID = 21;
; 97   : 	IMainInfoManager* pMng = (IMainInfoManager*)m_pGMng->GetInterface(nID);

  00047	8b 87 3c 01 00
	00		 mov	 eax, DWORD PTR [edi+316]
  0004d	6a 00		 push	 0
  0004f	6a 15		 push	 21			; 00000015H
  00051	50		 push	 eax
  00052	8b 08		 mov	 ecx, DWORD PTR [eax]
  00054	ff 11		 call	 DWORD PTR [ecx]

; 98   : 	
; 99   : 	CFileFind FileFind;

  00056	8d 4d 94	 lea	 ecx, DWORD PTR _FileFind$[ebp]
  00059	8b f0		 mov	 esi, eax
  0005b	e8 00 00 00 00	 call	 ??0CFileFind@@QAE@XZ	; CFileFind::CFileFind

; 100  : 	CString strPath, strConfigPath;

  00060	8d 4d b4	 lea	 ecx, DWORD PTR _strPath$[ebp]
  00063	c7 45 fc 00 00
	00 00		 mov	 DWORD PTR __$EHRec$[ebp+8], 0
  0006a	ff 15 00 00 00
	00		 call	 DWORD PTR __imp_??0?$CStringT@DV?$StrTraitMFC_DLL@DV?$ChTraitsCRT@D@ATL@@@@@ATL@@QAE@XZ
  00070	8d 4d c8	 lea	 ecx, DWORD PTR _strConfigPath$[ebp]
  00073	ff 15 00 00 00
	00		 call	 DWORD PTR __imp_??0?$CStringT@DV?$StrTraitMFC_DLL@DV?$ChTraitsCRT@D@ATL@@@@@ATL@@QAE@XZ

; 101  : 	strPath = pMng->GetEncUserDir();

  00079	8b 06		 mov	 eax, DWORD PTR [esi]
  0007b	6a 00		 push	 0
  0007d	56		 push	 esi
  0007e	c6 45 fc 02	 mov	 BYTE PTR __$EHRec$[ebp+8], 2
  00082	ff 50 18	 call	 DWORD PTR [eax+24]
  00085	50		 push	 eax
  00086	8d 4d b4	 lea	 ecx, DWORD PTR _strPath$[ebp]
  00089	ff 15 00 00 00
	00		 call	 DWORD PTR __imp_??4?$CStringT@DV?$StrTraitMFC_DLL@DV?$ChTraitsCRT@D@ATL@@@@@ATL@@QAEAAV01@PBD@Z

; 102  : 	strPath += "\\Chart";

  0008f	68 00 00 00 00	 push	 OFFSET ??_C@_06DJNEHHKG@?2Chart@
  00094	8d 4d b4	 lea	 ecx, DWORD PTR _strPath$[ebp]
  00097	ff 15 00 00 00
	00		 call	 DWORD PTR __imp_??Y?$CStringT@DV?$StrTraitMFC_DLL@DV?$ChTraitsCRT@D@ATL@@@@@ATL@@QAEAAV01@PBD@Z

; 103  : 	//strPath = ((CStdDialog*)m_pMultiChartWnd)->m_strUserDir;
; 104  : 	strConfigPath.Format("%s\\%s", strPath, "ChartToolBarSetting.dat");

  0009d	8b 35 00 00 00
	00		 mov	 esi, DWORD PTR __imp_?Format@?$CStringT@DV?$StrTraitMFC_DLL@DV?$ChTraitsCRT@D@ATL@@@@@ATL@@QAAXPBDZZ
  000a3	8d 45 c8	 lea	 eax, DWORD PTR _strConfigPath$[ebp]
  000a6	68 00 00 00 00	 push	 OFFSET ??_C@_0BI@OIIEJFGC@ChartToolBarSetting?4dat@
  000ab	ff 75 b4	 push	 DWORD PTR _strPath$[ebp]
  000ae	68 00 00 00 00	 push	 OFFSET ??_C@_05BMGBEOOC@?$CFs?2?$CFs@
  000b3	50		 push	 eax
  000b4	ff d6		 call	 esi
  000b6	83 c4 10	 add	 esp, 16			; 00000010H

; 105  : 
; 106  : 	CString strVersion;

  000b9	8d 4d b0	 lea	 ecx, DWORD PTR _strVersion$[ebp]
  000bc	ff 15 00 00 00
	00		 call	 DWORD PTR __imp_??0?$CStringT@DV?$StrTraitMFC_DLL@DV?$ChTraitsCRT@D@ATL@@@@@ATL@@QAE@XZ

; 107  : 	strVersion.Format("%d", m_nDataVer);

  000c2	ff b7 40 01 00
	00		 push	 DWORD PTR [edi+320]
  000c8	8d 45 b0	 lea	 eax, DWORD PTR _strVersion$[ebp]
  000cb	c6 45 fc 03	 mov	 BYTE PTR __$EHRec$[ebp+8], 3
  000cf	68 00 00 00 00	 push	 OFFSET ??_C@_02DPKJAMEF@?$CFd@
  000d4	50		 push	 eax
  000d5	ff d6		 call	 esi

; 108  : 	::WritePrivateProfileString("TOTAL", "VERSION", strVersion, strConfigPath);

  000d7	8b 1d 00 00 00
	00		 mov	 ebx, DWORD PTR __imp__WritePrivateProfileStringA@16
  000dd	83 c4 0c	 add	 esp, 12			; 0000000cH
  000e0	ff 75 c8	 push	 DWORD PTR _strConfigPath$[ebp]
  000e3	ff 75 b0	 push	 DWORD PTR _strVersion$[ebp]
  000e6	68 00 00 00 00	 push	 OFFSET ??_C@_07NCHCCDCP@VERSION@
  000eb	68 00 00 00 00	 push	 OFFSET ??_C@_05GKHKKECO@TOTAL@
  000f0	ff d3		 call	 ebx

; 109  : 	
; 110  : 	//***********************************************************
; 111  : 	// Anal List Item User file Write
; 112  : 	//***********************************************************
; 113  : 	char szKey[30];
; 114  : 	CString str, strValue, strFieldName;

  000f2	8d 4d b8	 lea	 ecx, DWORD PTR _str$[ebp]
  000f5	ff 15 00 00 00
	00		 call	 DWORD PTR __imp_??0?$CStringT@DV?$StrTraitMFC_DLL@DV?$ChTraitsCRT@D@ATL@@@@@ATL@@QAE@XZ
  000fb	8d 4d cc	 lea	 ecx, DWORD PTR _strValue$[ebp]
  000fe	ff 15 00 00 00
	00		 call	 DWORD PTR __imp_??0?$CStringT@DV?$StrTraitMFC_DLL@DV?$ChTraitsCRT@D@ATL@@@@@ATL@@QAE@XZ
  00104	8d 4d bc	 lea	 ecx, DWORD PTR _strFieldName$[ebp]
  00107	ff 15 00 00 00
	00		 call	 DWORD PTR __imp_??0?$CStringT@DV?$StrTraitMFC_DLL@DV?$ChTraitsCRT@D@ATL@@@@@ATL@@QAE@XZ

; 115  : 	int nCnt = m_arrayAnalIdx.GetSize();

  0010d	8b 87 b4 00 00
	00		 mov	 eax, DWORD PTR [edi+180]

; 116  : 	int nFieldKey;
; 117  : 	
; 118  : 	sprintf(szKey,"%s","ANAL LIST");

  00113	68 00 00 00 00	 push	 OFFSET ??_C@_09NBFPFBIM@ANAL?5LIST@
  00118	89 45 c4	 mov	 DWORD PTR _nCnt$1$[ebp], eax
  0011b	8d 45 d0	 lea	 eax, DWORD PTR _szKey$[ebp]
  0011e	68 00 00 00 00	 push	 OFFSET ??_C@_02DKCKIIND@?$CFs@
  00123	50		 push	 eax
  00124	c6 45 fc 06	 mov	 BYTE PTR __$EHRec$[ebp+8], 6
  00128	e8 00 00 00 00	 call	 _sprintf

; 119  : 
; 120  : 	strValue.Format("%d",nCnt);

  0012d	ff 75 c4	 push	 DWORD PTR _nCnt$1$[ebp]
  00130	8d 45 cc	 lea	 eax, DWORD PTR _strValue$[ebp]
  00133	68 00 00 00 00	 push	 OFFSET ??_C@_02DPKJAMEF@?$CFd@
  00138	50		 push	 eax
  00139	ff d6		 call	 esi
  0013b	83 c4 18	 add	 esp, 24			; 00000018H

; 121  : 	::WritePrivateProfileString(szKey, "COUNT", strValue, strConfigPath);

  0013e	ff 75 c8	 push	 DWORD PTR _strConfigPath$[ebp]
  00141	8d 45 d0	 lea	 eax, DWORD PTR _szKey$[ebp]
  00144	ff 75 cc	 push	 DWORD PTR _strValue$[ebp]
  00147	68 00 00 00 00	 push	 OFFSET ??_C@_05EFFCCOAM@COUNT@
  0014c	50		 push	 eax
  0014d	ff d3		 call	 ebx

; 122  : 	int i = 0;
; 123  : 	for ( i=0; i < nCnt ; i++)

  0014f	33 db		 xor	 ebx, ebx
  00151	39 5d c4	 cmp	 DWORD PTR _nCnt$1$[ebp], ebx
  00154	0f 8e cc 00 00
	00		 jle	 $LN3@OnApply
  0015a	66 0f 1f 44 00
	00		 npad	 6
$LL4@OnApply:

; 124  : 	{ //CListBox
; 125  : 		str.Format("%02d", i);

  00160	53		 push	 ebx
  00161	8d 45 b8	 lea	 eax, DWORD PTR _str$[ebp]
  00164	68 00 00 00 00	 push	 OFFSET ??_C@_04OGKJMPGK@?$CF02d@
  00169	50		 push	 eax
  0016a	ff d6		 call	 esi
  0016c	83 c4 0c	 add	 esp, 12			; 0000000cH
; File C:\Program Files (x86)\Microsoft Visual Studio\2019\Community\VC\Tools\MSVC\14.29.30133\atlmfc\include\afxtempl.h

; 288  : 	if(nIndex >= 0 && nIndex < m_nSize)

  0016f	85 db		 test	 ebx, ebx
  00171	0f 88 25 03 00
	00		 js	 $LN101@OnApply
  00177	3b 9f b4 00 00
	00		 cmp	 ebx, DWORD PTR [edi+180]
  0017d	0f 8d 19 03 00
	00		 jge	 $LN101@OnApply
; File D:\git\src\IBK\IBK_DRFN\ProjSrc\SrcDrfn\Chart\MULTICHART\DlgSettingToolBar.cpp

; 127  : 		nFieldKey = m_arrayAnalIdx.GetAt(i);

  00183	8b 87 b0 00 00
	00		 mov	 eax, DWORD PTR [edi+176]
; File C:\Program Files (x86)\Microsoft Visual Studio\2019\Community\VC\Tools\MSVC\14.29.30133\atlmfc\include\afxtempl.h

; 165  : 	ldiv_t HashVal = ldiv((long)(ARG_KEY)key, 127773);

  00189	b9 1d f3 01 00	 mov	 ecx, 127773		; 0001f31dH
; File D:\git\src\IBK\IBK_DRFN\ProjSrc\SrcDrfn\Chart\MULTICHART\DlgSettingToolBar.cpp

; 127  : 		nFieldKey = m_arrayAnalIdx.GetAt(i);

  0018e	8b 04 98	 mov	 eax, DWORD PTR [eax+ebx*4]
  00191	89 45 c0	 mov	 DWORD PTR _nFieldKey$1$[ebp], eax
; File C:\Program Files (x86)\Microsoft Visual Studio\2019\Community\VC\Tools\MSVC\14.29.30133\atlmfc\include\afxtempl.h

; 165  : 	ldiv_t HashVal = ldiv((long)(ARG_KEY)key, 127773);

  00194	99		 cdq
  00195	f7 f9		 idiv	 ecx

; 166  : 	HashVal.rem = 16807 * HashVal.rem - 2836 * HashVal.quot;

  00197	69 ca a7 41 00
	00		 imul	 ecx, edx, 16807
  0019d	69 c0 14 0b 00
	00		 imul	 eax, eax, 2836
  001a3	2b c8		 sub	 ecx, eax

; 1536 : 	if (m_pHashTable == NULL)

  001a5	8d b1 ff ff ff
	7f		 lea	 esi, DWORD PTR [ecx+2147483647]
  001ab	0f 49 f1	 cmovns	 esi, ecx
  001ae	8b 8f ec 00 00
	00		 mov	 ecx, DWORD PTR [edi+236]
  001b4	85 c9		 test	 ecx, ecx
  001b6	74 37		 je	 SHORT $LN162@OnApply

; 291  : }
; 292  : template<class TYPE, class ARG_TYPE>
; 293  : AFX_INLINE const TYPE& CArray<TYPE, ARG_TYPE>::GetAt(INT_PTR nIndex) const
; 294  : {
; 295  : 	ASSERT(nIndex >= 0 && nIndex < m_nSize);
; 296  : 	if(nIndex >= 0 && nIndex < m_nSize)
; 297  : 		return m_pData[nIndex];
; 298  : 	AfxThrowInvalidArgException();
; 299  : }
; 300  : template<class TYPE, class ARG_TYPE>
; 301  : AFX_INLINE void CArray<TYPE, ARG_TYPE>::SetAt(INT_PTR nIndex, ARG_TYPE newElement)
; 302  : {
; 303  : 	ASSERT(nIndex >= 0 && nIndex < m_nSize);
; 304  : 	if(nIndex >= 0 && nIndex < m_nSize)
; 305  : 		m_pData[nIndex] = newElement;
; 306  : 	else
; 307  : 		AfxThrowInvalidArgException();
; 308  : }
; 309  : template<class TYPE, class ARG_TYPE>
; 310  : AFX_INLINE const TYPE& CArray<TYPE, ARG_TYPE>::ElementAt(INT_PTR nIndex) const
; 311  : {
; 312  : 	ASSERT(nIndex >= 0 && nIndex < m_nSize);
; 313  : 	if(nIndex >= 0 && nIndex < m_nSize)
; 314  : 		return m_pData[nIndex];
; 315  : 	AfxThrowInvalidArgException();
; 316  : }
; 317  : template<class TYPE, class ARG_TYPE>
; 318  : AFX_INLINE TYPE& CArray<TYPE, ARG_TYPE>::ElementAt(INT_PTR nIndex)
; 319  : {
; 320  : 	ASSERT(nIndex >= 0 && nIndex < m_nSize);
; 321  : 	if(nIndex >= 0 && nIndex < m_nSize)
; 322  : 		return m_pData[nIndex];
; 323  : 	AfxThrowInvalidArgException();
; 324  : }
; 325  : template<class TYPE, class ARG_TYPE>
; 326  : AFX_INLINE const TYPE* CArray<TYPE, ARG_TYPE>::GetData() const
; 327  : 	{ return (const TYPE*)m_pData; }
; 328  : template<class TYPE, class ARG_TYPE>
; 329  : AFX_INLINE TYPE* CArray<TYPE, ARG_TYPE>::GetData()
; 330  : 	{ return (TYPE*)m_pData; }
; 331  : template<class TYPE, class ARG_TYPE>
; 332  : AFX_INLINE INT_PTR CArray<TYPE, ARG_TYPE>::Add(ARG_TYPE newElement)
; 333  : 	{ INT_PTR nIndex = m_nSize;
; 334  : 		SetAtGrow(nIndex, newElement);
; 335  : 		return nIndex; }
; 336  : template<class TYPE, class ARG_TYPE>
; 337  : AFX_INLINE const TYPE& CArray<TYPE, ARG_TYPE>::operator[](INT_PTR nIndex) const
; 338  : 	{ return GetAt(nIndex); }
; 339  : template<class TYPE, class ARG_TYPE>
; 340  : AFX_INLINE TYPE& CArray<TYPE, ARG_TYPE>::operator[](INT_PTR nIndex)
; 341  : 	{ return ElementAt(nIndex); }
; 342  : 
; 343  : /*============================================================================*/
; 344  : // CArray<TYPE, ARG_TYPE> out-of-line functions
; 345  : 
; 346  : template<class TYPE, class ARG_TYPE>
; 347  : CArray<TYPE, ARG_TYPE>::CArray()
; 348  : {
; 349  : 	m_pData = NULL;
; 350  : 	m_nSize = m_nMaxSize = m_nGrowBy = 0;
; 351  : }
; 352  : 
; 353  : template<class TYPE, class ARG_TYPE>
; 354  : CArray<TYPE, ARG_TYPE>::~CArray()
; 355  : {
; 356  : 	ASSERT_VALID(this);
; 357  : 
; 358  : 	if (m_pData != NULL)
; 359  : 	{
; 360  : 		for( int i = 0; i < m_nSize; i++ )
; 361  : 			(m_pData + i)->~TYPE();
; 362  : 		delete[] (BYTE*)m_pData;
; 363  : 	}
; 364  : }
; 365  : 
; 366  : template<class TYPE, class ARG_TYPE>
; 367  : void CArray<TYPE, ARG_TYPE>::SetSize(INT_PTR nNewSize, INT_PTR nGrowBy)
; 368  : {
; 369  : 	ASSERT_VALID(this);
; 370  : 	ASSERT(nNewSize >= 0);
; 371  : 
; 372  : 	if(nNewSize < 0 )
; 373  : 		AfxThrowInvalidArgException();
; 374  : 
; 375  : 	if (nGrowBy >= 0)
; 376  : 		m_nGrowBy = nGrowBy;  // set new size
; 377  : 
; 378  : 	if (nNewSize == 0)
; 379  : 	{
; 380  : 		// shrink to nothing
; 381  : 		if (m_pData != NULL)
; 382  : 		{
; 383  : 			for( int i = 0; i < m_nSize; i++ )
; 384  : 				(m_pData + i)->~TYPE();
; 385  : 			delete[] (BYTE*)m_pData;
; 386  : 			m_pData = NULL;
; 387  : 		}
; 388  : 		m_nSize = m_nMaxSize = 0;
; 389  : 	}
; 390  : 	else if (m_pData == NULL)
; 391  : 	{
; 392  : 		// create buffer big enough to hold number of requested elements or
; 393  : 		// m_nGrowBy elements, whichever is larger.
; 394  : #ifdef SIZE_T_MAX
; 395  : 		ASSERT(nNewSize <= SIZE_T_MAX/sizeof(TYPE));    // no overflow
; 396  : #endif
; 397  : 		size_t nAllocSize = __max(nNewSize, m_nGrowBy);
; 398  : 		m_pData = (TYPE*) new BYTE[(size_t)nAllocSize * sizeof(TYPE)];
; 399  : 		memset((void*)m_pData, 0, (size_t)nAllocSize * sizeof(TYPE));
; 400  : 		for( int i = 0; i < nNewSize; i++ )
; 401  : #pragma push_macro("new")
; 402  : #undef new
; 403  : 			::new( (void*)( m_pData + i ) ) TYPE;
; 404  : #pragma pop_macro("new")
; 405  : 		m_nSize = nNewSize;
; 406  : 		m_nMaxSize = nAllocSize;
; 407  : 	}
; 408  : 	else if (nNewSize <= m_nMaxSize)
; 409  : 	{
; 410  : 		// it fits
; 411  : 		if (nNewSize > m_nSize)
; 412  : 		{
; 413  : 			// initialize the new elements
; 414  : 			memset((void*)(m_pData + m_nSize), 0, (size_t)(nNewSize-m_nSize) * sizeof(TYPE));
; 415  : 			for( int i = 0; i < nNewSize-m_nSize; i++ )
; 416  : #pragma push_macro("new")
; 417  : #undef new
; 418  : 				::new( (void*)( m_pData + m_nSize + i ) ) TYPE;
; 419  : #pragma pop_macro("new")
; 420  : 		}
; 421  : 		else if (m_nSize > nNewSize)
; 422  : 		{
; 423  : 			// destroy the old elements
; 424  : 			for( int i = 0; i < m_nSize-nNewSize; i++ )
; 425  : 				(m_pData + nNewSize + i)->~TYPE();
; 426  : 		}
; 427  : 		m_nSize = nNewSize;
; 428  : 	}
; 429  : 	else
; 430  : 	{
; 431  : 		// otherwise, grow array
; 432  : 		nGrowBy = m_nGrowBy;
; 433  : 		if (nGrowBy == 0)
; 434  : 		{
; 435  : 			// heuristically determine growth when nGrowBy == 0
; 436  : 			//  (this avoids heap fragmentation in many situations)
; 437  : 			nGrowBy = m_nSize / 8;
; 438  : 			nGrowBy = (nGrowBy < 4) ? 4 : ((nGrowBy > 1024) ? 1024 : nGrowBy);
; 439  : 		}
; 440  : 		INT_PTR nNewMax;
; 441  : 		if (nNewSize < m_nMaxSize + nGrowBy)
; 442  : 			nNewMax = m_nMaxSize + nGrowBy;  // granularity
; 443  : 		else
; 444  : 			nNewMax = nNewSize;  // no slush
; 445  : 
; 446  : 		ASSERT(nNewMax >= m_nMaxSize);  // no wrap around
; 447  : 
; 448  : 		if(nNewMax  < m_nMaxSize)
; 449  : 			AfxThrowInvalidArgException();
; 450  : 
; 451  : #ifdef SIZE_T_MAX
; 452  : 		ASSERT(nNewMax <= SIZE_T_MAX/sizeof(TYPE)); // no overflow
; 453  : #endif
; 454  : 		TYPE* pNewData = (TYPE*) new BYTE[(size_t)nNewMax * sizeof(TYPE)];
; 455  : 
; 456  : 		// copy new data from old
; 457  : 		::ATL::Checked::memcpy_s(pNewData, (size_t)nNewMax * sizeof(TYPE),
; 458  : 			m_pData, (size_t)m_nSize * sizeof(TYPE));
; 459  : 
; 460  : 		// construct remaining elements
; 461  : 		ASSERT(nNewSize > m_nSize);
; 462  : 		memset((void*)(pNewData + m_nSize), 0, (size_t)(nNewSize-m_nSize) * sizeof(TYPE));
; 463  : 		for( int i = 0; i < nNewSize-m_nSize; i++ )
; 464  : #pragma push_macro("new")
; 465  : #undef new
; 466  : 			::new( (void*)( pNewData + m_nSize + i ) ) TYPE;
; 467  : #pragma pop_macro("new")
; 468  : 
; 469  : 		// get rid of old stuff (note: no destructors called)
; 470  : 		delete[] (BYTE*)m_pData;
; 471  : 		m_pData = pNewData;
; 472  : 		m_nSize = nNewSize;
; 473  : 		m_nMaxSize = nNewMax;
; 474  : 	}
; 475  : }
; 476  : 
; 477  : template<class TYPE, class ARG_TYPE>
; 478  : INT_PTR CArray<TYPE, ARG_TYPE>::Append(const CArray& src)
; 479  : {
; 480  : 	ASSERT_VALID(this);
; 481  : 	ASSERT(this != &src);   // cannot append to itself
; 482  : 
; 483  : 	if(this == &src)
; 484  : 		AfxThrowInvalidArgException();
; 485  : 
; 486  : 	INT_PTR nOldSize = m_nSize;
; 487  : 	SetSize(m_nSize + src.m_nSize);
; 488  : 	CopyElements<TYPE>(m_pData + nOldSize, src.m_pData, src.m_nSize);
; 489  : 	return nOldSize;
; 490  : }
; 491  : 
; 492  : template<class TYPE, class ARG_TYPE>
; 493  : void CArray<TYPE, ARG_TYPE>::Copy(const CArray& src)
; 494  : {
; 495  : 	ASSERT_VALID(this);
; 496  : 	ASSERT(this != &src);   // cannot append to itself
; 497  : 
; 498  : 	if(this != &src)
; 499  : 	{
; 500  : 		SetSize(src.m_nSize);
; 501  : 		CopyElements<TYPE>(m_pData, src.m_pData, src.m_nSize);
; 502  : 	}
; 503  : }
; 504  : 
; 505  : template<class TYPE, class ARG_TYPE>
; 506  : void CArray<TYPE, ARG_TYPE>::FreeExtra()
; 507  : {
; 508  : 	ASSERT_VALID(this);
; 509  : 
; 510  : 	if (m_nSize != m_nMaxSize)
; 511  : 	{
; 512  : 		// shrink to desired size
; 513  : #ifdef SIZE_T_MAX
; 514  : 		ASSERT(m_nSize <= SIZE_T_MAX/sizeof(TYPE)); // no overflow
; 515  : #endif
; 516  : 		TYPE* pNewData = NULL;
; 517  : 		if (m_nSize != 0)
; 518  : 		{
; 519  : 			pNewData = (TYPE*) new BYTE[m_nSize * sizeof(TYPE)];
; 520  : 			// copy new data from old
; 521  : 			::ATL::Checked::memcpy_s(pNewData, m_nSize * sizeof(TYPE),
; 522  : 				m_pData, m_nSize * sizeof(TYPE));
; 523  : 		}
; 524  : 
; 525  : 		// get rid of old stuff (note: no destructors called)
; 526  : 		delete[] (BYTE*)m_pData;
; 527  : 		m_pData = pNewData;
; 528  : 		m_nMaxSize = m_nSize;
; 529  : 	}
; 530  : }
; 531  : 
; 532  : template<class TYPE, class ARG_TYPE>
; 533  : void CArray<TYPE, ARG_TYPE>::SetAtGrow(INT_PTR nIndex, ARG_TYPE newElement)
; 534  : {
; 535  : 	ASSERT_VALID(this);
; 536  : 	ASSERT(nIndex >= 0);
; 537  : 
; 538  : 	if(nIndex < 0)
; 539  : 		AfxThrowInvalidArgException();
; 540  : 
; 541  : 	if (nIndex >= m_nSize)
; 542  : 		SetSize(nIndex+1, -1);
; 543  : 	m_pData[nIndex] = newElement;
; 544  : }
; 545  : 
; 546  : template<class TYPE, class ARG_TYPE>
; 547  : void CArray<TYPE, ARG_TYPE>::InsertAt(INT_PTR nIndex, ARG_TYPE newElement, INT_PTR nCount /*=1*/)
; 548  : {
; 549  : 	ASSERT_VALID(this);
; 550  : 	ASSERT(nIndex >= 0);    // will expand to meet need
; 551  : 	ASSERT(nCount > 0);     // zero or negative size not allowed
; 552  : 
; 553  : 	if(nIndex < 0 || nCount <= 0)
; 554  : 		AfxThrowInvalidArgException();
; 555  : 
; 556  : 	if (nIndex >= m_nSize)
; 557  : 	{
; 558  : 		// adding after the end of the array
; 559  : 		SetSize(nIndex + nCount, -1);   // grow so nIndex is valid
; 560  : 	}
; 561  : 	else
; 562  : 	{
; 563  : 		// inserting in the middle of the array
; 564  : 		INT_PTR nOldSize = m_nSize;
; 565  : 		SetSize(m_nSize + nCount, -1);  // grow it to new size
; 566  : 		// destroy intial data before copying over it
; 567  : 		for( int i = 0; i < nCount; i++ )
; 568  : 			(m_pData + nOldSize + i)->~TYPE();
; 569  : 		// shift old data up to fill gap
; 570  : 		::ATL::Checked::memmove_s(m_pData + nIndex + nCount, (nOldSize-nIndex) * sizeof(TYPE),
; 571  : 			m_pData + nIndex, (nOldSize-nIndex) * sizeof(TYPE));
; 572  : 
; 573  : 		// re-init slots we copied from
; 574  : 		memset((void*)(m_pData + nIndex), 0, (size_t)nCount * sizeof(TYPE));
; 575  : 		for( int i = 0; i < nCount; i++ )
; 576  : #pragma push_macro("new")
; 577  : #undef new
; 578  : 			::new( (void*)( m_pData + nIndex + i ) ) TYPE;
; 579  : #pragma pop_macro("new")
; 580  : 	}
; 581  : 
; 582  : 	// insert new value in the gap
; 583  : 	ASSERT(nIndex + nCount <= m_nSize);
; 584  : 	while (nCount--)
; 585  : 		m_pData[nIndex++] = newElement;
; 586  : }
; 587  : 
; 588  : template<class TYPE, class ARG_TYPE>
; 589  : void CArray<TYPE, ARG_TYPE>::RemoveAt(INT_PTR nIndex, INT_PTR nCount)
; 590  : {
; 591  : 	ASSERT_VALID(this);
; 592  : 	ASSERT(nIndex >= 0);
; 593  : 	ASSERT(nCount >= 0);
; 594  : 	INT_PTR nUpperBound = nIndex + nCount;
; 595  : 	ASSERT(nUpperBound <= m_nSize && nUpperBound >= nIndex && nUpperBound >= nCount);
; 596  : 
; 597  : 	if(nIndex < 0 || nCount < 0 || (nUpperBound > m_nSize) || (nUpperBound < nIndex) || (nUpperBound < nCount))
; 598  : 		AfxThrowInvalidArgException();
; 599  : 
; 600  : 	// just remove a range
; 601  : 	INT_PTR nMoveCount = m_nSize - (nUpperBound);
; 602  : 	for( int i = 0; i < nCount; i++ )
; 603  : 		(m_pData + nIndex + i)->~TYPE();
; 604  : 	if (nMoveCount)
; 605  : 	{
; 606  : 		::ATL::Checked::memmove_s(m_pData + nIndex, (size_t)nMoveCount * sizeof(TYPE),
; 607  : 			m_pData + nUpperBound, (size_t)nMoveCount * sizeof(TYPE));
; 608  : 	}
; 609  : 	m_nSize -= nCount;
; 610  : }
; 611  : 
; 612  : template<class TYPE, class ARG_TYPE>
; 613  : void CArray<TYPE, ARG_TYPE>::InsertAt(INT_PTR nStartIndex, CArray* pNewArray)
; 614  : {
; 615  : 	ASSERT_VALID(this);
; 616  : 	ASSERT(pNewArray != NULL);
; 617  : 	ASSERT_VALID(pNewArray);
; 618  : 	ASSERT(nStartIndex >= 0);
; 619  : 
; 620  : 	if(pNewArray == NULL || nStartIndex < 0)
; 621  : 		AfxThrowInvalidArgException();
; 622  : 
; 623  : 	if (pNewArray->GetSize() > 0)
; 624  : 	{
; 625  : 		InsertAt(nStartIndex, pNewArray->GetAt(0), pNewArray->GetSize());
; 626  : 		for (INT_PTR i = 0; i < pNewArray->GetSize(); i++)
; 627  : 			SetAt(nStartIndex + i, pNewArray->GetAt(i));
; 628  : 	}
; 629  : }
; 630  : 
; 631  : template<class TYPE, class ARG_TYPE>
; 632  : void CArray<TYPE, ARG_TYPE>::Serialize(CArchive& ar)
; 633  : {
; 634  : 	ASSERT_VALID(this);
; 635  : 
; 636  : 	CObject::Serialize(ar);
; 637  : 	if (ar.IsStoring())
; 638  : 	{
; 639  : 		ar.WriteCount(m_nSize);
; 640  : 	}
; 641  : 	else
; 642  : 	{
; 643  : 		DWORD_PTR nOldSize = ar.ReadCount();
; 644  : 		SetSize(nOldSize, -1);
; 645  : 	}
; 646  : 	SerializeElements<TYPE>(ar, m_pData, m_nSize);
; 647  : }
; 648  : 
; 649  : #ifdef _DEBUG
; 650  : template<class TYPE, class ARG_TYPE>
; 651  : void CArray<TYPE, ARG_TYPE>::Dump(CDumpContext& dc) const
; 652  : {
; 653  : 	CObject::Dump(dc);
; 654  : 
; 655  : 	dc << "with " << m_nSize << " elements";
; 656  : 	if (dc.GetDepth() > 0)
; 657  : 	{
; 658  : 		dc << "\n";
; 659  : 		DumpElements<TYPE>(dc, m_pData, m_nSize);
; 660  : 	}
; 661  : 
; 662  : 	dc << "\n";
; 663  : }
; 664  : 
; 665  : template<class TYPE, class ARG_TYPE>
; 666  : void CArray<TYPE, ARG_TYPE>::AssertValid() const
; 667  : {
; 668  : 	CObject::AssertValid();
; 669  : 
; 670  : 	if (m_pData == NULL)
; 671  : 	{
; 672  : 		ASSERT(m_nSize == 0);
; 673  : 		ASSERT(m_nMaxSize == 0);
; 674  : 	}
; 675  : 	else
; 676  : 	{
; 677  : 		ASSERT(m_nSize >= 0);
; 678  : 		ASSERT(m_nMaxSize >= 0);
; 679  : 		ASSERT(m_nSize <= m_nMaxSize);
; 680  : 		ASSERT(AfxIsValidAddress(m_pData, m_nMaxSize * sizeof(TYPE)));
; 681  : 	}
; 682  : }
; 683  : #endif //_DEBUG
; 684  : 
; 685  : /*============================================================================*/
; 686  : // CList<TYPE, ARG_TYPE>
; 687  : 
; 688  : template<class TYPE, class ARG_TYPE = const TYPE&>
; 689  : class CList : public CObject
; 690  : {
; 691  : protected:
; 692  : 	struct CNode
; 693  : 	{
; 694  : 		CNode* pNext;
; 695  : 		CNode* pPrev;
; 696  : 		TYPE data;
; 697  : 	};
; 698  : public:
; 699  : // Construction
; 700  : 	explicit CList(INT_PTR nBlockSize = 10);
; 701  : 
; 702  : // Attributes (head and tail)
; 703  : 	// count of elements
; 704  : 	INT_PTR GetCount() const;
; 705  : 	INT_PTR GetSize() const;
; 706  : 	BOOL IsEmpty() const;
; 707  : 
; 708  : 	// peek at head or tail
; 709  : 	TYPE& GetHead();
; 710  : 	const TYPE& GetHead() const;
; 711  : 	TYPE& GetTail();
; 712  : 	const TYPE& GetTail() const;
; 713  : 
; 714  : // Operations
; 715  : 	// get head or tail (and remove it) - don't call on empty list !
; 716  : 	TYPE RemoveHead();
; 717  : 	TYPE RemoveTail();
; 718  : 
; 719  : 	// add before head or after tail
; 720  : 	POSITION AddHead(ARG_TYPE newElement);
; 721  : 	POSITION AddTail(ARG_TYPE newElement);
; 722  : 
; 723  : 	// add another list of elements before head or after tail
; 724  : 	void AddHead(CList* pNewList);
; 725  : 	void AddTail(CList* pNewList);
; 726  : 
; 727  : 	// remove all elements
; 728  : 	void RemoveAll();
; 729  : 
; 730  : 	// iteration
; 731  : 	POSITION GetHeadPosition() const;
; 732  : 	POSITION GetTailPosition() const;
; 733  : 	TYPE& GetNext(POSITION& rPosition); // return *Position++
; 734  : 	const TYPE& GetNext(POSITION& rPosition) const; // return *Position++
; 735  : 	TYPE& GetPrev(POSITION& rPosition); // return *Position--
; 736  : 	const TYPE& GetPrev(POSITION& rPosition) const; // return *Position--
; 737  : 
; 738  : 	// getting/modifying an element at a given position
; 739  : 	TYPE& GetAt(POSITION position);
; 740  : 	const TYPE& GetAt(POSITION position) const;
; 741  : 	void SetAt(POSITION pos, ARG_TYPE newElement);
; 742  : 	void RemoveAt(POSITION position);
; 743  : 
; 744  : 	// inserting before or after a given position
; 745  : 	POSITION InsertBefore(POSITION position, ARG_TYPE newElement);
; 746  : 	POSITION InsertAfter(POSITION position, ARG_TYPE newElement);
; 747  : 
; 748  : 	// helper functions (note: O(n) speed)
; 749  : 	POSITION Find(ARG_TYPE searchValue, POSITION startAfter = NULL) const;
; 750  : 		// defaults to starting at the HEAD, return NULL if not found
; 751  : 	POSITION FindIndex(INT_PTR nIndex) const;
; 752  : 		// get the 'nIndex'th element (may return NULL)
; 753  : 
; 754  : // Implementation
; 755  : protected:
; 756  : 	CNode* m_pNodeHead;
; 757  : 	CNode* m_pNodeTail;
; 758  : 	INT_PTR m_nCount;
; 759  : 	CNode* m_pNodeFree;
; 760  : 	struct CPlex* m_pBlocks;
; 761  : 	INT_PTR m_nBlockSize;
; 762  : 
; 763  : 	CNode* NewNode(CNode*, CNode*);
; 764  : 	void FreeNode(CNode*);
; 765  : 
; 766  : public:
; 767  : 	~CList();
; 768  : 	void Serialize(CArchive&);
; 769  : #ifdef _DEBUG
; 770  : 	void Dump(CDumpContext&) const;
; 771  : 	void AssertValid() const;
; 772  : #endif
; 773  : };
; 774  : 
; 775  : /*============================================================================*/
; 776  : // CList<TYPE, ARG_TYPE> inline functions
; 777  : 
; 778  : template<class TYPE, class ARG_TYPE>
; 779  : AFX_INLINE INT_PTR CList<TYPE, ARG_TYPE>::GetCount() const
; 780  : 	{ return m_nCount; }
; 781  : template<class TYPE, class ARG_TYPE>
; 782  : AFX_INLINE INT_PTR CList<TYPE, ARG_TYPE>::GetSize() const
; 783  : 	{ return m_nCount; }
; 784  : template<class TYPE, class ARG_TYPE>
; 785  : AFX_INLINE BOOL CList<TYPE, ARG_TYPE>::IsEmpty() const
; 786  : 	{ return m_nCount == 0; }
; 787  : template<class TYPE, class ARG_TYPE>
; 788  : AFX_INLINE TYPE& CList<TYPE, ARG_TYPE>::GetHead()
; 789  : 	{ ENSURE(m_pNodeHead != NULL);
; 790  : 		return m_pNodeHead->data; }
; 791  : template<class TYPE, class ARG_TYPE>
; 792  : AFX_INLINE const TYPE& CList<TYPE, ARG_TYPE>::GetHead() const
; 793  : 	{ ENSURE(m_pNodeHead != NULL);
; 794  : 		return m_pNodeHead->data; }
; 795  : template<class TYPE, class ARG_TYPE>
; 796  : AFX_INLINE TYPE& CList<TYPE, ARG_TYPE>::GetTail()
; 797  : 	{ ENSURE(m_pNodeTail != NULL);
; 798  : 		return m_pNodeTail->data; }
; 799  : template<class TYPE, class ARG_TYPE>
; 800  : AFX_INLINE const TYPE& CList<TYPE, ARG_TYPE>::GetTail() const
; 801  : 	{ ENSURE(m_pNodeTail != NULL);
; 802  : 		return m_pNodeTail->data; }
; 803  : template<class TYPE, class ARG_TYPE>
; 804  : AFX_INLINE POSITION CList<TYPE, ARG_TYPE>::GetHeadPosition() const
; 805  : 	{ return (POSITION) m_pNodeHead; }
; 806  : template<class TYPE, class ARG_TYPE>
; 807  : AFX_INLINE POSITION CList<TYPE, ARG_TYPE>::GetTailPosition() const
; 808  : 	{ return (POSITION) m_pNodeTail; }
; 809  : template<class TYPE, class ARG_TYPE>
; 810  : AFX_INLINE TYPE& CList<TYPE, ARG_TYPE>::GetNext(POSITION& rPosition) // return *Position++
; 811  : 	{ CNode* pNode = (CNode*) rPosition;
; 812  : 		ASSERT(AfxIsValidAddress(pNode, sizeof(CNode)));
; 813  : 		rPosition = (POSITION) pNode->pNext;
; 814  : 		return pNode->data; }
; 815  : template<class TYPE, class ARG_TYPE>
; 816  : AFX_INLINE const TYPE& CList<TYPE, ARG_TYPE>::GetNext(POSITION& rPosition) const // return *Position++
; 817  : 	{ CNode* pNode = (CNode*) rPosition;
; 818  : 		ASSERT(AfxIsValidAddress(pNode, sizeof(CNode)));
; 819  : 		rPosition = (POSITION) pNode->pNext;
; 820  : 		return pNode->data; }
; 821  : template<class TYPE, class ARG_TYPE>
; 822  : AFX_INLINE TYPE& CList<TYPE, ARG_TYPE>::GetPrev(POSITION& rPosition) // return *Position--
; 823  : 	{ CNode* pNode = (CNode*) rPosition;
; 824  : 		ASSERT(AfxIsValidAddress(pNode, sizeof(CNode)));
; 825  : 		rPosition = (POSITION) pNode->pPrev;
; 826  : 		return pNode->data; }
; 827  : template<class TYPE, class ARG_TYPE>
; 828  : AFX_INLINE const TYPE& CList<TYPE, ARG_TYPE>::GetPrev(POSITION& rPosition) const // return *Position--
; 829  : 	{ CNode* pNode = (CNode*) rPosition;
; 830  : 		ASSERT(AfxIsValidAddress(pNode, sizeof(CNode)));
; 831  : 		rPosition = (POSITION) pNode->pPrev;
; 832  : 		return pNode->data; }
; 833  : template<class TYPE, class ARG_TYPE>
; 834  : AFX_INLINE TYPE& CList<TYPE, ARG_TYPE>::GetAt(POSITION position)
; 835  : 	{ CNode* pNode = (CNode*) position;
; 836  : 		ASSERT(AfxIsValidAddress(pNode, sizeof(CNode)));
; 837  : 		return pNode->data; }
; 838  : template<class TYPE, class ARG_TYPE>
; 839  : AFX_INLINE const TYPE& CList<TYPE, ARG_TYPE>::GetAt(POSITION position) const
; 840  : 	{ CNode* pNode = (CNode*) position;
; 841  : 		ASSERT(AfxIsValidAddress(pNode, sizeof(CNode)));
; 842  : 		return pNode->data; }
; 843  : template<class TYPE, class ARG_TYPE>
; 844  : AFX_INLINE void CList<TYPE, ARG_TYPE>::SetAt(POSITION pos, ARG_TYPE newElement)
; 845  : 	{ CNode* pNode = (CNode*) pos;
; 846  : 		ASSERT(AfxIsValidAddress(pNode, sizeof(CNode)));
; 847  : 		pNode->data = newElement; }
; 848  : 
; 849  : template<class TYPE, class ARG_TYPE>
; 850  : CList<TYPE, ARG_TYPE>::CList(INT_PTR nBlockSize)
; 851  : {
; 852  : 	ASSERT(nBlockSize > 0);
; 853  : 
; 854  : 	m_nCount = 0;
; 855  : 	m_pNodeHead = m_pNodeTail = m_pNodeFree = NULL;
; 856  : 	m_pBlocks = NULL;
; 857  : 	m_nBlockSize = nBlockSize;
; 858  : }
; 859  : 
; 860  : template<class TYPE, class ARG_TYPE>
; 861  : void CList<TYPE, ARG_TYPE>::RemoveAll()
; 862  : {
; 863  : 	ASSERT_VALID(this);
; 864  : 
; 865  : 	// destroy elements
; 866  : 	CNode* pNode;
; 867  : 	for (pNode = m_pNodeHead; pNode != NULL; pNode = pNode->pNext)
; 868  : 		pNode->data.~TYPE();
; 869  : 
; 870  : 	m_nCount = 0;
; 871  : 	m_pNodeHead = m_pNodeTail = m_pNodeFree = NULL;
; 872  : 	m_pBlocks->FreeDataChain();
; 873  : 	m_pBlocks = NULL;
; 874  : }
; 875  : 
; 876  : template<class TYPE, class ARG_TYPE>
; 877  : CList<TYPE, ARG_TYPE>::~CList()
; 878  : {
; 879  : 	RemoveAll();
; 880  : 	ASSERT(m_nCount == 0);
; 881  : }
; 882  : 
; 883  : /*============================================================================*/
; 884  : // Node helpers
; 885  : //
; 886  : // Implementation note: CNode's are stored in CPlex blocks and
; 887  : //  chained together. Free blocks are maintained in a singly linked list
; 888  : //  using the 'pNext' member of CNode with 'm_pNodeFree' as the head.
; 889  : //  Used blocks are maintained in a doubly linked list using both 'pNext'
; 890  : //  and 'pPrev' as links and 'm_pNodeHead' and 'm_pNodeTail'
; 891  : //   as the head/tail.
; 892  : //
; 893  : // We never free a CPlex block unless the List is destroyed or RemoveAll()
; 894  : //  is used - so the total number of CPlex blocks may grow large depending
; 895  : //  on the maximum past size of the list.
; 896  : //
; 897  : 
; 898  : template<class TYPE, class ARG_TYPE>
; 899  : typename CList<TYPE, ARG_TYPE>::CNode*
; 900  : CList<TYPE, ARG_TYPE>::NewNode(CNode* pPrev, CNode* pNext)
; 901  : {
; 902  : 	if (m_pNodeFree == NULL)
; 903  : 	{
; 904  : 		// add another block
; 905  : 		CPlex* pNewBlock = CPlex::Create(m_pBlocks, m_nBlockSize,
; 906  : 				 sizeof(CNode));
; 907  : 
; 908  : 		// chain them into free list
; 909  : 		CNode* pNode = (CNode*) pNewBlock->data();
; 910  : 		// free in reverse order to make it easier to debug
; 911  : 		pNode += m_nBlockSize - 1;
; 912  : 		for (INT_PTR i = m_nBlockSize-1; i >= 0; i--, pNode--)
; 913  : 		{
; 914  : 			pNode->pNext = m_pNodeFree;
; 915  : 			m_pNodeFree = pNode;
; 916  : 		}
; 917  : 	}
; 918  : 	ENSURE(m_pNodeFree != NULL);  // we must have something
; 919  : 
; 920  : 	CList::CNode* pNode = m_pNodeFree;
; 921  : 	m_pNodeFree = m_pNodeFree->pNext;
; 922  : 	pNode->pPrev = pPrev;
; 923  : 	pNode->pNext = pNext;
; 924  : 	m_nCount++;
; 925  : 	ASSERT(m_nCount > 0);  // make sure we don't overflow
; 926  : 
; 927  : #pragma push_macro("new")
; 928  : #undef new
; 929  : 	::new( (void*)( &pNode->data ) ) TYPE;
; 930  : #pragma pop_macro("new")
; 931  : 	return pNode;
; 932  : }
; 933  : 
; 934  : template<class TYPE, class ARG_TYPE>
; 935  : void CList<TYPE, ARG_TYPE>::FreeNode(CNode* pNode)
; 936  : {
; 937  : 	pNode->data.~TYPE();
; 938  : 	pNode->pNext = m_pNodeFree;
; 939  : 	m_pNodeFree = pNode;
; 940  : 	m_nCount--;
; 941  : 	ASSERT(m_nCount >= 0);  // make sure we don't underflow
; 942  : 
; 943  : 	// if no more elements, cleanup completely
; 944  : 	if (m_nCount == 0)
; 945  : 		RemoveAll();
; 946  : }
; 947  : 
; 948  : template<class TYPE, class ARG_TYPE>
; 949  : POSITION CList<TYPE, ARG_TYPE>::AddHead(ARG_TYPE newElement)
; 950  : {
; 951  : 	ASSERT_VALID(this);
; 952  : 
; 953  : 	CNode* pNewNode = NewNode(NULL, m_pNodeHead);
; 954  : 	pNewNode->data = newElement;
; 955  : 	if (m_pNodeHead != NULL)
; 956  : 		m_pNodeHead->pPrev = pNewNode;
; 957  : 	else
; 958  : 		m_pNodeTail = pNewNode;
; 959  : 	m_pNodeHead = pNewNode;
; 960  : 	return (POSITION) pNewNode;
; 961  : }
; 962  : 
; 963  : template<class TYPE, class ARG_TYPE>
; 964  : POSITION CList<TYPE, ARG_TYPE>::AddTail(ARG_TYPE newElement)
; 965  : {
; 966  : 	ASSERT_VALID(this);
; 967  : 
; 968  : 	CNode* pNewNode = NewNode(m_pNodeTail, NULL);
; 969  : 	pNewNode->data = newElement;
; 970  : 	if (m_pNodeTail != NULL)
; 971  : 		m_pNodeTail->pNext = pNewNode;
; 972  : 	else
; 973  : 		m_pNodeHead = pNewNode;
; 974  : 	m_pNodeTail = pNewNode;
; 975  : 	return (POSITION) pNewNode;
; 976  : }
; 977  : 
; 978  : template<class TYPE, class ARG_TYPE>
; 979  : void CList<TYPE, ARG_TYPE>::AddHead(CList* pNewList)
; 980  : {
; 981  : 	ASSERT_VALID(this);
; 982  : 
; 983  : 	ENSURE(pNewList != NULL);
; 984  : 	ASSERT_VALID(pNewList);
; 985  : 
; 986  : 	// add a list of same elements to head (maintain order)
; 987  : 	POSITION pos = pNewList->GetTailPosition();
; 988  : 	while (pos != NULL)
; 989  : 		AddHead(pNewList->GetPrev(pos));
; 990  : }
; 991  : 
; 992  : template<class TYPE, class ARG_TYPE>
; 993  : void CList<TYPE, ARG_TYPE>::AddTail(CList* pNewList)
; 994  : {
; 995  : 	ASSERT_VALID(this);
; 996  : 	ENSURE(pNewList != NULL);
; 997  : 	ASSERT_VALID(pNewList);
; 998  : 
; 999  : 	// add a list of same elements
; 1000 : 	POSITION pos = pNewList->GetHeadPosition();
; 1001 : 	while (pos != NULL)
; 1002 : 		AddTail(pNewList->GetNext(pos));
; 1003 : }
; 1004 : 
; 1005 : template<class TYPE, class ARG_TYPE>
; 1006 : TYPE CList<TYPE, ARG_TYPE>::RemoveHead()
; 1007 : {
; 1008 : 	ASSERT_VALID(this);
; 1009 : 	ENSURE(m_pNodeHead != NULL);  // don't call on empty list !!!
; 1010 : 	ASSERT(AfxIsValidAddress(m_pNodeHead, sizeof(CNode)));
; 1011 : 
; 1012 : 	CNode* pOldNode = m_pNodeHead;
; 1013 : 	TYPE returnValue = pOldNode->data;
; 1014 : 
; 1015 : 	m_pNodeHead = pOldNode->pNext;
; 1016 : 	if (m_pNodeHead != NULL)
; 1017 : 		m_pNodeHead->pPrev = NULL;
; 1018 : 	else
; 1019 : 		m_pNodeTail = NULL;
; 1020 : 	FreeNode(pOldNode);
; 1021 : 	return returnValue;
; 1022 : }
; 1023 : 
; 1024 : template<class TYPE, class ARG_TYPE>
; 1025 : TYPE CList<TYPE, ARG_TYPE>::RemoveTail()
; 1026 : {
; 1027 : 	ASSERT_VALID(this);
; 1028 : 	ENSURE(m_pNodeTail != NULL);  // don't call on empty list !!!
; 1029 : 	ASSERT(AfxIsValidAddress(m_pNodeTail, sizeof(CNode)));
; 1030 : 
; 1031 : 	CNode* pOldNode = m_pNodeTail;
; 1032 : 	TYPE returnValue = pOldNode->data;
; 1033 : 
; 1034 : 	m_pNodeTail = pOldNode->pPrev;
; 1035 : 	if (m_pNodeTail != NULL)
; 1036 : 		m_pNodeTail->pNext = NULL;
; 1037 : 	else
; 1038 : 		m_pNodeHead = NULL;
; 1039 : 	FreeNode(pOldNode);
; 1040 : 	return returnValue;
; 1041 : }
; 1042 : 
; 1043 : template<class TYPE, class ARG_TYPE>
; 1044 : POSITION CList<TYPE, ARG_TYPE>::InsertBefore(POSITION position, ARG_TYPE newElement)
; 1045 : {
; 1046 : 	ASSERT_VALID(this);
; 1047 : 
; 1048 : 	if (position == NULL)
; 1049 : 		return AddHead(newElement); // insert before nothing -> head of the list
; 1050 : 
; 1051 : 	// Insert it before position
; 1052 : 	CNode* pOldNode = (CNode*) position;
; 1053 : 	CNode* pNewNode = NewNode(pOldNode->pPrev, pOldNode);
; 1054 : 	pNewNode->data = newElement;
; 1055 : 
; 1056 : 	if (pOldNode->pPrev != NULL)
; 1057 : 	{
; 1058 : 		ASSERT(AfxIsValidAddress(pOldNode->pPrev, sizeof(CNode)));
; 1059 : 		pOldNode->pPrev->pNext = pNewNode;
; 1060 : 	}
; 1061 : 	else
; 1062 : 	{
