; Listing generated by Microsoft (R) Optimizing Compiler Version 19.29.30148.0 

	TITLE	D:\git\src\IBK\IBK_DRFN\#DRfn-CS\_Obj\MultiChart\DlgSTExOption.obj
	.686P
	.XMM
	include listing.inc
	.model	flat

INCLUDELIB MSVCRT
INCLUDELIB OLDNAMES

PUBLIC	?WM_ATLGETHOST@ATL@@3IA				; ATL::WM_ATLGETHOST
PUBLIC	?WM_ATLGETCONTROL@ATL@@3IA			; ATL::WM_ATLGETCONTROL
PUBLIC	??_C@_0BG@OHIMHJEO@RMSG_STTREE_ITEMCLICK@	; `string'
PUBLIC	??_C@_0BH@LAAMLACL@RMSG_STTREE_ITEMDBLCLK@	; `string'
PUBLIC	??_C@_0BB@IBKHOHJL@RMSG_REPLAY_REAL@		; `string'
PUBLIC	??_C@_0BB@JFLGBADG@RMSG_REPLAY_FAIL@		; `string'
PUBLIC	??_C@_0BI@KDGAIIMD@RMSG_REPLAY_CHANGE_DATE@	; `string'
PUBLIC	??_C@_0BA@NKHHCPON@RMSG_REPLAY_END@		; `string'
PUBLIC	??_C@_0BE@JFCIMCIP@RMSG_REPLAY_INC_SEC@		; `string'
PUBLIC	??_C@_0BG@GIAJEIJF@RMSG_REPLAY_TOTAL_SEC@	; `string'
PUBLIC	??_C@_0BE@FJPKENOB@RMSG_GETSIGNAL_REAL@		; `string'
PUBLIC	??_C@_0BB@CNOFPEHG@RMSG_SETQUERYOPT@		; `string'
PUBLIC	??_C@_0P@KHFCBIOH@RMSG_CHARTMAIN@		; `string'
PUBLIC	??_C@_0BC@MMPGLPDH@RMS_ANALYSIS_FUNC@		; `string'
PUBLIC	??_C@_0BA@HKNFENJL@RMSG_GET_USERID@		; `string'
PUBLIC	??_C@_0BG@CNPAHNGG@RMSG_CHANGE_SKINCOLOR@	; `string'
PUBLIC	??_C@_0BD@FLDNDDHK@RMSG_GET_SKINCOLOR@		; `string'
PUBLIC	??_C@_0BJ@JLKHIBIK@RMSG_CHANGEVERTSCALETYPE@	; `string'
PUBLIC	??_C@_0BG@LNLCJKPF@RMSG_CHANGE_CROSSLINE@	; `string'
PUBLIC	??_C@_0BH@IFDMIMBP@RMSG_ADD_PLATFORM_MENU@	; `string'
PUBLIC	??_C@_0BJ@OGNAJHHI@RMSG_SETINITIALCHARTDATA@	; `string'
PUBLIC	??_C@_0N@IIOKMIEH@RMSG_GETINFO@			; `string'
PUBLIC	??_C@_0N@HABLPHJG@RMSG_SETINFO@			; `string'
PUBLIC	?m_bInitFailed@CAtlBaseModule@ATL@@2_NA		; ATL::CAtlBaseModule::m_bInitFailed
PUBLIC	?_pAtlModule@ATL@@3PAVCAtlModule@1@A		; ATL::_pAtlModule
PUBLIC	?_pAtlAutoThreadModule@ATL@@3PAUIAtlAutoThreadModule@1@A ; ATL::_pAtlAutoThreadModule
EXTRN	?_AtlBaseModule@ATL@@3VCAtlBaseModule@1@A:BYTE	; ATL::_AtlBaseModule
;	COMDAT ?WM_ATLGETHOST@ATL@@3IA
_BSS	SEGMENT
?WM_ATLGETHOST@ATL@@3IA DD 01H DUP (?)			; ATL::WM_ATLGETHOST
_BSS	ENDS
;	COMDAT ?WM_ATLGETCONTROL@ATL@@3IA
_BSS	SEGMENT
?WM_ATLGETCONTROL@ATL@@3IA DD 01H DUP (?)		; ATL::WM_ATLGETCONTROL
_BSS	ENDS
;	COMDAT ?m_bInitFailed@CAtlBaseModule@ATL@@2_NA
_BSS	SEGMENT
?m_bInitFailed@CAtlBaseModule@ATL@@2_NA DB 01H DUP (?)	; ATL::CAtlBaseModule::m_bInitFailed
_BSS	ENDS
;	COMDAT ?_pAtlModule@ATL@@3PAVCAtlModule@1@A
_BSS	SEGMENT
?_pAtlModule@ATL@@3PAVCAtlModule@1@A DD 01H DUP (?)	; ATL::_pAtlModule
_BSS	ENDS
;	COMDAT ?_pAtlAutoThreadModule@ATL@@3PAUIAtlAutoThreadModule@1@A
_BSS	SEGMENT
?_pAtlAutoThreadModule@ATL@@3PAUIAtlAutoThreadModule@1@A DD 01H DUP (?) ; ATL::_pAtlAutoThreadModule
_BSS	ENDS
;	COMDAT ??_C@_0N@HABLPHJG@RMSG_SETINFO@
CONST	SEGMENT
??_C@_0N@HABLPHJG@RMSG_SETINFO@ DB 'RMSG_SETINFO', 00H	; `string'
CONST	ENDS
;	COMDAT ??_C@_0N@IIOKMIEH@RMSG_GETINFO@
CONST	SEGMENT
??_C@_0N@IIOKMIEH@RMSG_GETINFO@ DB 'RMSG_GETINFO', 00H	; `string'
CONST	ENDS
;	COMDAT ??_C@_0BJ@OGNAJHHI@RMSG_SETINITIALCHARTDATA@
CONST	SEGMENT
??_C@_0BJ@OGNAJHHI@RMSG_SETINITIALCHARTDATA@ DB 'RMSG_SETINITIALCHARTDATA'
	DB	00H						; `string'
CONST	ENDS
;	COMDAT ??_C@_0BH@IFDMIMBP@RMSG_ADD_PLATFORM_MENU@
CONST	SEGMENT
??_C@_0BH@IFDMIMBP@RMSG_ADD_PLATFORM_MENU@ DB 'RMSG_ADD_PLATFORM_MENU', 00H ; `string'
CONST	ENDS
;	COMDAT ??_C@_0BG@LNLCJKPF@RMSG_CHANGE_CROSSLINE@
CONST	SEGMENT
??_C@_0BG@LNLCJKPF@RMSG_CHANGE_CROSSLINE@ DB 'RMSG_CHANGE_CROSSLINE', 00H ; `string'
CONST	ENDS
;	COMDAT ??_C@_0BJ@JLKHIBIK@RMSG_CHANGEVERTSCALETYPE@
CONST	SEGMENT
??_C@_0BJ@JLKHIBIK@RMSG_CHANGEVERTSCALETYPE@ DB 'RMSG_CHANGEVERTSCALETYPE'
	DB	00H						; `string'
CONST	ENDS
;	COMDAT ??_C@_0BD@FLDNDDHK@RMSG_GET_SKINCOLOR@
CONST	SEGMENT
??_C@_0BD@FLDNDDHK@RMSG_GET_SKINCOLOR@ DB 'RMSG_GET_SKINCOLOR', 00H ; `string'
CONST	ENDS
;	COMDAT ??_C@_0BG@CNPAHNGG@RMSG_CHANGE_SKINCOLOR@
CONST	SEGMENT
??_C@_0BG@CNPAHNGG@RMSG_CHANGE_SKINCOLOR@ DB 'RMSG_CHANGE_SKINCOLOR', 00H ; `string'
CONST	ENDS
;	COMDAT ??_C@_0BA@HKNFENJL@RMSG_GET_USERID@
CONST	SEGMENT
??_C@_0BA@HKNFENJL@RMSG_GET_USERID@ DB 'RMSG_GET_USERID', 00H ; `string'
CONST	ENDS
;	COMDAT ??_C@_0BC@MMPGLPDH@RMS_ANALYSIS_FUNC@
CONST	SEGMENT
??_C@_0BC@MMPGLPDH@RMS_ANALYSIS_FUNC@ DB 'RMS_ANALYSIS_FUNC', 00H ; `string'
CONST	ENDS
;	COMDAT ??_C@_0P@KHFCBIOH@RMSG_CHARTMAIN@
CONST	SEGMENT
??_C@_0P@KHFCBIOH@RMSG_CHARTMAIN@ DB 'RMSG_CHARTMAIN', 00H ; `string'
CONST	ENDS
;	COMDAT ??_C@_0BB@CNOFPEHG@RMSG_SETQUERYOPT@
CONST	SEGMENT
??_C@_0BB@CNOFPEHG@RMSG_SETQUERYOPT@ DB 'RMSG_SETQUERYOPT', 00H ; `string'
CONST	ENDS
;	COMDAT ??_C@_0BE@FJPKENOB@RMSG_GETSIGNAL_REAL@
CONST	SEGMENT
??_C@_0BE@FJPKENOB@RMSG_GETSIGNAL_REAL@ DB 'RMSG_GETSIGNAL_REAL', 00H ; `string'
CONST	ENDS
;	COMDAT ??_C@_0BG@GIAJEIJF@RMSG_REPLAY_TOTAL_SEC@
CONST	SEGMENT
??_C@_0BG@GIAJEIJF@RMSG_REPLAY_TOTAL_SEC@ DB 'RMSG_REPLAY_TOTAL_SEC', 00H ; `string'
CONST	ENDS
;	COMDAT ??_C@_0BE@JFCIMCIP@RMSG_REPLAY_INC_SEC@
CONST	SEGMENT
??_C@_0BE@JFCIMCIP@RMSG_REPLAY_INC_SEC@ DB 'RMSG_REPLAY_INC_SEC', 00H ; `string'
CONST	ENDS
;	COMDAT ??_C@_0BA@NKHHCPON@RMSG_REPLAY_END@
CONST	SEGMENT
??_C@_0BA@NKHHCPON@RMSG_REPLAY_END@ DB 'RMSG_REPLAY_END', 00H ; `string'
CONST	ENDS
;	COMDAT ??_C@_0BI@KDGAIIMD@RMSG_REPLAY_CHANGE_DATE@
CONST	SEGMENT
??_C@_0BI@KDGAIIMD@RMSG_REPLAY_CHANGE_DATE@ DB 'RMSG_REPLAY_CHANGE_DATE', 00H ; `string'
CONST	ENDS
;	COMDAT ??_C@_0BB@JFLGBADG@RMSG_REPLAY_FAIL@
CONST	SEGMENT
??_C@_0BB@JFLGBADG@RMSG_REPLAY_FAIL@ DB 'RMSG_REPLAY_FAIL', 00H ; `string'
CONST	ENDS
;	COMDAT ??_C@_0BB@IBKHOHJL@RMSG_REPLAY_REAL@
CONST	SEGMENT
??_C@_0BB@IBKHOHJL@RMSG_REPLAY_REAL@ DB 'RMSG_REPLAY_REAL', 00H ; `string'
CONST	ENDS
;	COMDAT ??_C@_0BH@LAAMLACL@RMSG_STTREE_ITEMDBLCLK@
CONST	SEGMENT
??_C@_0BH@LAAMLACL@RMSG_STTREE_ITEMDBLCLK@ DB 'RMSG_STTREE_ITEMDBLCLK', 00H ; `string'
CONST	ENDS
;	COMDAT ??_C@_0BG@OHIMHJEO@RMSG_STTREE_ITEMCLICK@
CONST	SEGMENT
??_C@_0BG@OHIMHJEO@RMSG_STTREE_ITEMCLICK@ DB 'RMSG_STTREE_ITEMCLICK', 00H ; `string'
CONST	ENDS
PUBLIC	?__empty_global_delete@@YAXPAX@Z		; __empty_global_delete
PUBLIC	?__empty_global_delete@@YAXPAXI@Z		; __empty_global_delete
PUBLIC	??3CObject@@SGXPAX@Z				; CObject::operator delete
PUBLIC	?Serialize@CObject@@UAEXAAVCArchive@@@Z		; CObject::Serialize
PUBLIC	?AssertValid@CObject@@UBEXXZ			; CObject::AssertValid
PUBLIC	?Dump@CObject@@UBEXAAVCDumpContext@@@Z		; CObject::Dump
PUBLIC	?_AtlRaiseException@ATL@@YAXKK@Z		; ATL::_AtlRaiseException
PUBLIC	?_AtlInitializeCriticalSectionEx@ATL@@YAHPAU_RTL_CRITICAL_SECTION@@KK@Z ; ATL::_AtlInitializeCriticalSectionEx
PUBLIC	?DoDataExchange@CWnd@@MAEXPAVCDataExchange@@@Z	; CWnd::DoDataExchange
PUBLIC	?BeginModalState@CWnd@@UAEXXZ			; CWnd::BeginModalState
PUBLIC	?EndModalState@CWnd@@UAEXXZ			; CWnd::EndModalState
PUBLIC	?Create@CDialog@@UAEHIPAVCWnd@@@Z		; CDialog::Create
PUBLIC	??0CDlgSTExOption@@QAE@PAVCWnd@@@Z		; CDlgSTExOption::CDlgSTExOption
PUBLIC	??1CDlgSTExOption@@UAE@XZ			; CDlgSTExOption::~CDlgSTExOption
PUBLIC	?InitColumn@CDlgSTExOption@@QAEXPAVCXListCtrl@@@Z ; CDlgSTExOption::InitColumn
PUBLIC	?DoDataExchange@CDlgSTExOption@@MAEXPAVCDataExchange@@@Z ; CDlgSTExOption::DoDataExchange
PUBLIC	?OnInitDialog@CDlgSTExOption@@MAEHXZ		; CDlgSTExOption::OnInitDialog
PUBLIC	?OnSize@CDlgSTExOption@@IAEXIHH@Z		; CDlgSTExOption::OnSize
PUBLIC	?OnCtlColor@CDlgSTExOption@@IAEPAUHBRUSH__@@PAVCDC@@PAVCWnd@@I@Z ; CDlgSTExOption::OnCtlColor
PUBLIC	?OnBnClickedStshowoption@CDlgSTExOption@@IAEXXZ	; CDlgSTExOption::OnBnClickedStshowoption
PUBLIC	?OnBnClickedStreport@CDlgSTExOption@@IAEXXZ	; CDlgSTExOption::OnBnClickedStreport
PUBLIC	?GetThisMessageMap@CDlgSTExOption@@KGPBUAFX_MSGMAP@@XZ ; CDlgSTExOption::GetThisMessageMap
PUBLIC	?GetMessageMap@CDlgSTExOption@@MBEPBUAFX_MSGMAP@@XZ ; CDlgSTExOption::GetMessageMap
PUBLIC	?GetDivCount@CDlgSTExOption@@QAEHXZ		; CDlgSTExOption::GetDivCount
PUBLIC	?GetRepRate@CDlgSTExOption@@QAENXZ		; CDlgSTExOption::GetRepRate
PUBLIC	?OpenRefort@CDlgSTExOption@@QAEXXZ		; CDlgSTExOption::OpenRefort
PUBLIC	?SetInitDlg@CDlgSTExOption@@QAEXXZ		; CDlgSTExOption::SetInitDlg
PUBLIC	?OnBnClickedStapply@CDlgSTExOption@@QAEXXZ	; CDlgSTExOption::OnBnClickedStapply
PUBLIC	?OnDestroy@CDlgSTExOption@@QAEXXZ		; CDlgSTExOption::OnDestroy
PUBLIC	??_GCDlgSTExOption@@UAEPAXI@Z			; CDlgSTExOption::`scalar deleting destructor'
PUBLIC	??1stringdispid@CComTypeInfoHolder@ATL@@QAE@XZ	; ATL::CComTypeInfoHolder::stringdispid::~stringdispid
PUBLIC	??_Estringdispid@CComTypeInfoHolder@ATL@@QAEPAXI@Z ; ATL::CComTypeInfoHolder::stringdispid::`vector deleting destructor'
PUBLIC	?_AtlWinModule@ATL@@3VCAtlWinModule@1@A		; ATL::_AtlWinModule
PUBLIC	??_C@_01GBGANLPD@0@				; `string'
PUBLIC	??_R0?AVCObject@@@8				; CObject `RTTI Type Descriptor'
PUBLIC	??_R3CObject@@8					; CObject::`RTTI Class Hierarchy Descriptor'
PUBLIC	??_R2CObject@@8					; CObject::`RTTI Base Class Array'
PUBLIC	??_R1A@?0A@EA@CObject@@8			; CObject::`RTTI Base Class Descriptor at (0,-1,0,64)'
PUBLIC	??_R1A@?0A@EA@CWnd@@8				; CWnd::`RTTI Base Class Descriptor at (0,-1,0,64)'
PUBLIC	??_R0?AVCWnd@@@8				; CWnd `RTTI Type Descriptor'
PUBLIC	??_R3CWnd@@8					; CWnd::`RTTI Class Hierarchy Descriptor'
PUBLIC	??_R2CWnd@@8					; CWnd::`RTTI Base Class Array'
PUBLIC	??_R1A@?0A@EA@CCmdTarget@@8			; CCmdTarget::`RTTI Base Class Descriptor at (0,-1,0,64)'
PUBLIC	??_R0?AVCCmdTarget@@@8				; CCmdTarget `RTTI Type Descriptor'
PUBLIC	??_R3CCmdTarget@@8				; CCmdTarget::`RTTI Class Hierarchy Descriptor'
PUBLIC	??_R2CCmdTarget@@8				; CCmdTarget::`RTTI Base Class Array'
PUBLIC	??_R1A@?0A@EA@CDialog@@8			; CDialog::`RTTI Base Class Descriptor at (0,-1,0,64)'
PUBLIC	??_R0?AVCDialog@@@8				; CDialog `RTTI Type Descriptor'
PUBLIC	??_R3CDialog@@8					; CDialog::`RTTI Class Hierarchy Descriptor'
PUBLIC	??_R2CDialog@@8					; CDialog::`RTTI Base Class Array'
PUBLIC	??_7CDlgSTExOption@@6B@				; CDlgSTExOption::`vftable'
PUBLIC	??_C@_04HDOCAJNK@?$CFs?$CFs@			; `string'
PUBLIC	??_C@_03COHLPAFH@?4ST@				; `string'
PUBLIC	??_C@_04OGKJMPGK@?$CF02d@			; `string'
PUBLIC	??_C@_03FKLEIKFA@10?$CF@			; `string'
PUBLIC	??_C@_03EIABCFLO@20?$CF@			; `string'
PUBLIC	??_C@_03PALNECNL@30?$CF@			; `string'
PUBLIC	??_C@_03GNGKHKGC@40?$CF@			; `string'
PUBLIC	??_C@_03NFNGBNAH@50?$CF@			; `string'
PUBLIC	??_C@_04PCCHOCJF@?$MA?$PL?$LP?k@		; `string'
PUBLIC	??_C@_06PDDAPFFG@?$LK?$LI?$LA?m?$LM?$KN@	; `string'
PUBLIC	??_C@_0L@DLNLHHBM@?$LL?g?$LP?k?$MA?Z?A?v?G?$KF@	; `string'
PUBLIC	??_C@_08BHLLDOMG@?$LA?$KN?$LM?$LM?$LO?$OA?$LM?$LM@ ; `string'
PUBLIC	??_C@_0CC@GDBOGPKH@?$LA?$KN?$LM?$LM?$LO?$OA?$LM?$LM?$LE?B?5?$LM?$LK?$LA?z?$LK?P?$LM?$KO?$MA?L?5?$LK?R?$LA?$KB?G?U?$LE?O?$LE@ ; `string'
PUBLIC	??_C@_0BI@PFKPIPEB@?A?$LO?$LI?q?A?$LG?H?$LI?5?H?D?5?$LA?$KB?$LE?I?G?U?$LE?O?$LE?Y?4@ ; `string'
PUBLIC	??_C@_0CE@LIBOKAIK@?$MA?$PL?$LP?k?G?R?5?$MA?$PM?$LH?$KL?$MA?$LL?5?$LM?$LB?E?C?G?X?A?V?$LN?C?$LB?b?5?$LJ?Y?$LG?x@ ; `string'
PUBLIC	??_C@_0EJ@JEOKELGF@?C?V?$MA?$PL?H?$KN?$LP?$KB?$LM?$KN?5?G?J?$LP?d?G?Q?5OCX?$CITeeChart7@ ; `string'
PUBLIC	??_C@_0BG@CHJJKIAP@ChartSTIndexAddIn?4dll@	; `string'
PUBLIC	??_C@_0FI@MIHHDMHK@?$LM?$LK?$LA?z?$LK?P?$LM?$KO?$MA?$LK?5?G?v?$MA?g?5?$LP?n?$LP?k?A?$NP?$MA?N?5?$MA?$PM?$LH?$KL?$MA?$LL@ ; `string'
PUBLIC	??_C@_0BI@NPODHFEC@?2Dev?2HWStrategyAnalysis@	; `string'
PUBLIC	??_C@_0L@OPFBKEGP@?$LM?$LK?$LA?z?$LK?$LI?$LA?m?$LM?$KN@ ; `string'
PUBLIC	??_C@_0DD@IBPJBNAL@?$LL?g?$LP?k?$MA?Z?A?v?G?$KF?0?$LL?g?$LP?k?$MA?Z?$LA?$KN?$LM?$LM?$LO?$OA?$LM?$LM?$LE?B?5?$LM?$LK?$LA@ ; `string'
PUBLIC	??_C@_0O@LHAJBKH@SA_ApplyChart@			; `string'
PUBLIC	??_C@_01CLKCMJKC@?5@				; `string'
PUBLIC	??_C@_04EGBBAPDL@?$LN?C?$MA?$NL@		; `string'
PUBLIC	??_C@_02HALKOLAM@?$LD?$KB@			; `string'
PUBLIC	??_C@_0BA@NAEFDOEC@DESTROY_TRADING@		; `string'
PUBLIC	??_R4CDlgSTExOption@@6B@			; CDlgSTExOption::`RTTI Complete Object Locator'
PUBLIC	??_R0?AVCDlgSTExOption@@@8			; CDlgSTExOption `RTTI Type Descriptor'
PUBLIC	??_R3CDlgSTExOption@@8				; CDlgSTExOption::`RTTI Class Hierarchy Descriptor'
PUBLIC	??_R2CDlgSTExOption@@8				; CDlgSTExOption::`RTTI Base Class Array'
PUBLIC	??_R1A@?0A@EA@CDlgSTExOption@@8			; CDlgSTExOption::`RTTI Base Class Descriptor at (0,-1,0,64)'
PUBLIC	__real@0000000000000000
EXTRN	??_M@YGXPAXIIP6EX0@Z@Z:PROC			; `eh vector destructor iterator'
EXTRN	??2@YAPAXI@Z:PROC				; operator new
EXTRN	??3@YAXPAX@Z:PROC				; operator delete
EXTRN	??3@YAXPAXI@Z:PROC				; operator delete
EXTRN	?__global_delete@@YAXPAXI@Z:PROC		; __global_delete
EXTRN	??_V@YAXPAXI@Z:PROC				; operator delete[]
EXTRN	_atexit:PROC
EXTRN	__imp__RaiseException@16:PROC
EXTRN	__imp__GetLastError@0:PROC
EXTRN	__imp__InitializeCriticalSectionEx@12:PROC
EXTRN	__imp__DeleteCriticalSection@4:PROC
EXTRN	__imp__FreeLibrary@4:PROC
EXTRN	__imp__GetProcAddress@8:PROC
EXTRN	__imp__LoadLibraryA@4:PROC
EXTRN	__imp__RegisterWindowMessageA@4:PROC
EXTRN	__imp__SendMessageA@16:PROC
EXTRN	__imp__UnregisterClassA@8:PROC
EXTRN	__imp__EnableWindow@8:PROC
EXTRN	__imp__GetWindowRect@8:PROC
EXTRN	__imp__GetParent@4:PROC
EXTRN	__imp__free:PROC
EXTRN	__imp__atof:PROC
EXTRN	__imp__atoi:PROC
EXTRN	__imp__SysFreeString@4:PROC
EXTRN	__imp_??0?$CStringT@DV?$StrTraitMFC_DLL@DV?$ChTraitsCRT@D@ATL@@@@@ATL@@QAE@XZ:PROC
EXTRN	__imp_??0?$CStringT@DV?$StrTraitMFC_DLL@DV?$ChTraitsCRT@D@ATL@@@@@ATL@@QAE@PBD@Z:PROC
EXTRN	__imp_??1?$CStringT@DV?$StrTraitMFC_DLL@DV?$ChTraitsCRT@D@ATL@@@@@ATL@@QAE@XZ:PROC
EXTRN	__imp_??4?$CStringT@DV?$StrTraitMFC_DLL@DV?$ChTraitsCRT@D@ATL@@@@@ATL@@QAEAAV01@ABV01@@Z:PROC
EXTRN	__imp_?CompareNoCase@?$CStringT@DV?$StrTraitMFC_DLL@DV?$ChTraitsCRT@D@ATL@@@@@ATL@@QBEHPBD@Z:PROC
EXTRN	__imp_?Find@?$CStringT@DV?$StrTraitMFC_DLL@DV?$ChTraitsCRT@D@ATL@@@@@ATL@@QBEHPBDH@Z:PROC
EXTRN	__imp_?Format@?$CStringT@DV?$StrTraitMFC_DLL@DV?$ChTraitsCRT@D@ATL@@@@@ATL@@QAAXPBDZZ:PROC
EXTRN	?AfxGetModuleState@@YGPAVAFX_MODULE_STATE@@XZ:PROC ; AfxGetModuleState
EXTRN	?DDX_Control@@YGXPAVCDataExchange@@HAAVCWnd@@@Z:PROC ; DDX_Control
EXTRN	?IsInvokeAllowed@CCmdTarget@@UAEHJ@Z:PROC	; CCmdTarget::IsInvokeAllowed
EXTRN	?GetDispatchIID@CCmdTarget@@UAEHPAU_GUID@@@Z:PROC ; CCmdTarget::GetDispatchIID
EXTRN	?GetTypeInfoCount@CCmdTarget@@UAEIXZ:PROC	; CCmdTarget::GetTypeInfoCount
EXTRN	?GetTypeLibCache@CCmdTarget@@UAEPAVCTypeLibCache@@XZ:PROC ; CCmdTarget::GetTypeLibCache
EXTRN	?GetTypeLib@CCmdTarget@@UAEJKPAPAUITypeLib@@@Z:PROC ; CCmdTarget::GetTypeLib
EXTRN	?GetCommandMap@CCmdTarget@@MBEPBUAFX_OLECMDMAP@@XZ:PROC ; CCmdTarget::GetCommandMap
EXTRN	?GetDispatchMap@CCmdTarget@@MBEPBUAFX_DISPMAP@@XZ:PROC ; CCmdTarget::GetDispatchMap
EXTRN	?GetConnectionMap@CCmdTarget@@MBEPBUAFX_CONNECTIONMAP@@XZ:PROC ; CCmdTarget::GetConnectionMap
EXTRN	?GetEventSinkMap@CCmdTarget@@MBEPBUAFX_EVENTSINKMAP@@XZ:PROC ; CCmdTarget::GetEventSinkMap
EXTRN	?OnCreateAggregates@CCmdTarget@@UAEHXZ:PROC	; CCmdTarget::OnCreateAggregates
EXTRN	?GetInterfaceHook@CCmdTarget@@UAEPAUIUnknown@@PBX@Z:PROC ; CCmdTarget::GetInterfaceHook
EXTRN	?GetExtraConnectionPoints@CCmdTarget@@MAEHPAVCPtrArray@@@Z:PROC ; CCmdTarget::GetExtraConnectionPoints
EXTRN	?GetConnectionHook@CCmdTarget@@MAEPAUIConnectionPoint@@ABU_GUID@@@Z:PROC ; CCmdTarget::GetConnectionHook
EXTRN	?FromHandle@CWnd@@SGPAV1@PAUHWND__@@@Z:PROC	; CWnd::FromHandle
EXTRN	?PreSubclassWindow@CWnd@@UAEXXZ:PROC		; CWnd::PreSubclassWindow
EXTRN	?Create@CWnd@@UAEHPBD0KABUtagRECT@@PAV1@IPAUCCreateContext@@@Z:PROC ; CWnd::Create
EXTRN	?CreateEx@CWnd@@UAEHKPBD0KHHHHPAUHWND__@@PAUHMENU__@@PAX@Z:PROC ; CWnd::CreateEx
EXTRN	?CreateEx@CWnd@@UAEHKPBD0KABUtagRECT@@PAV1@IPAX@Z:PROC ; CWnd::CreateEx
EXTRN	?DestroyWindow@CWnd@@UAEHXZ:PROC		; CWnd::DestroyWindow
EXTRN	?PreCreateWindow@CWnd@@UAEHAAUtagCREATESTRUCTA@@@Z:PROC ; CWnd::PreCreateWindow
EXTRN	?CalcWindowRect@CWnd@@UAEXPAUtagRECT@@I@Z:PROC	; CWnd::CalcWindowRect
EXTRN	?GetMenu@CWnd@@UBEPAVCMenu@@XZ:PROC		; CWnd::GetMenu
EXTRN	?SetMenu@CWnd@@UAEHPAVCMenu@@@Z:PROC		; CWnd::SetMenu
EXTRN	?SetWindowPos@CWnd@@QAEHPBV1@HHHHI@Z:PROC	; CWnd::SetWindowPos
EXTRN	?ShowWindow@CWnd@@QAEHH@Z:PROC			; CWnd::ShowWindow
EXTRN	?OnToolHitTest@CWnd@@UBEHVCPoint@@PAUtagTOOLINFOA@@@Z:PROC ; CWnd::OnToolHitTest
EXTRN	?GetScrollBarCtrl@CWnd@@UBEPAVCScrollBar@@H@Z:PROC ; CWnd::GetScrollBarCtrl
EXTRN	?WinHelpA@CWnd@@UAEXKI@Z:PROC			; CWnd::WinHelpA
EXTRN	?HtmlHelpA@CWnd@@UAEXKI@Z:PROC			; CWnd::HtmlHelpA
EXTRN	?WinHelpInternal@CWnd@@UAEXKI@Z:PROC		; CWnd::WinHelpInternal
EXTRN	?ContinueModal@CWnd@@UAEHXZ:PROC		; CWnd::ContinueModal
EXTRN	?EndModalLoop@CWnd@@UAEXH@Z:PROC		; CWnd::EndModalLoop
EXTRN	?OnDrawIconicThumbnailOrLivePreview@CWnd@@UAEXAAVCDC@@VCRect@@VCSize@@HAAH@Z:PROC ; CWnd::OnDrawIconicThumbnailOrLivePreview
EXTRN	?GetInterfaceMap@CWnd@@MBEPBUAFX_INTERFACEMAP@@XZ:PROC ; CWnd::GetInterfaceMap
EXTRN	?EnsureStdObj@CWnd@@UAEJXZ:PROC			; CWnd::EnsureStdObj
EXTRN	?get_accParent@CWnd@@UAEJPAPAUIDispatch@@@Z:PROC ; CWnd::get_accParent
EXTRN	?get_accChildCount@CWnd@@UAEJPAJ@Z:PROC		; CWnd::get_accChildCount
EXTRN	?get_accChild@CWnd@@UAEJUtagVARIANT@@PAPAUIDispatch@@@Z:PROC ; CWnd::get_accChild
EXTRN	?get_accName@CWnd@@UAEJUtagVARIANT@@PAPA_W@Z:PROC ; CWnd::get_accName
EXTRN	?get_accValue@CWnd@@UAEJUtagVARIANT@@PAPA_W@Z:PROC ; CWnd::get_accValue
EXTRN	?get_accDescription@CWnd@@UAEJUtagVARIANT@@PAPA_W@Z:PROC ; CWnd::get_accDescription
EXTRN	?get_accRole@CWnd@@UAEJUtagVARIANT@@PAU2@@Z:PROC ; CWnd::get_accRole
EXTRN	?get_accState@CWnd@@UAEJUtagVARIANT@@PAU2@@Z:PROC ; CWnd::get_accState
EXTRN	?get_accHelp@CWnd@@UAEJUtagVARIANT@@PAPA_W@Z:PROC ; CWnd::get_accHelp
EXTRN	?get_accHelpTopic@CWnd@@UAEJPAPA_WUtagVARIANT@@PAJ@Z:PROC ; CWnd::get_accHelpTopic
EXTRN	?get_accKeyboardShortcut@CWnd@@UAEJUtagVARIANT@@PAPA_W@Z:PROC ; CWnd::get_accKeyboardShortcut
EXTRN	?get_accFocus@CWnd@@UAEJPAUtagVARIANT@@@Z:PROC	; CWnd::get_accFocus
EXTRN	?get_accSelection@CWnd@@UAEJPAUtagVARIANT@@@Z:PROC ; CWnd::get_accSelection
EXTRN	?get_accDefaultAction@CWnd@@UAEJUtagVARIANT@@PAPA_W@Z:PROC ; CWnd::get_accDefaultAction
EXTRN	?accSelect@CWnd@@UAEJJUtagVARIANT@@@Z:PROC	; CWnd::accSelect
EXTRN	?accLocation@CWnd@@UAEJPAJ000UtagVARIANT@@@Z:PROC ; CWnd::accLocation
EXTRN	?accNavigate@CWnd@@UAEJJUtagVARIANT@@PAU2@@Z:PROC ; CWnd::accNavigate
EXTRN	?accHitTest@CWnd@@UAEJJJPAUtagVARIANT@@@Z:PROC	; CWnd::accHitTest
EXTRN	?accDoDefaultAction@CWnd@@UAEJUtagVARIANT@@@Z:PROC ; CWnd::accDoDefaultAction
EXTRN	?put_accName@CWnd@@UAEJUtagVARIANT@@PA_W@Z:PROC	; CWnd::put_accName
EXTRN	?put_accValue@CWnd@@UAEJUtagVARIANT@@PA_W@Z:PROC ; CWnd::put_accValue
EXTRN	?SetProxy@CWnd@@UAEJPAUIAccessibleProxy@@@Z:PROC ; CWnd::SetProxy
EXTRN	?CreateAccessibleProxy@CWnd@@UAEJIJPAJ@Z:PROC	; CWnd::CreateAccessibleProxy
EXTRN	?OnCommand@CWnd@@MAEHIJ@Z:PROC			; CWnd::OnCommand
EXTRN	?OnNotify@CWnd@@MAEHIJPAJ@Z:PROC		; CWnd::OnNotify
EXTRN	?OnCtlColor@CWnd@@IAEPAUHBRUSH__@@PAVCDC@@PAV1@I@Z:PROC ; CWnd::OnCtlColor
EXTRN	?OnDestroy@CWnd@@IAEXXZ:PROC			; CWnd::OnDestroy
EXTRN	?GetSuperWndProcAddr@CWnd@@MAEPAP6GJPAUHWND__@@IIJ@ZXZ:PROC ; CWnd::GetSuperWndProcAddr
EXTRN	?OnAmbientProperty@CWnd@@UAEHPAVCOleControlSite@@JPAUtagVARIANT@@@Z:PROC ; CWnd::OnAmbientProperty
EXTRN	?WindowProc@CWnd@@MAEJIIJ@Z:PROC		; CWnd::WindowProc
EXTRN	?OnWndMsg@CWnd@@MAEHIIJPAJ@Z:PROC		; CWnd::OnWndMsg
EXTRN	?Default@CWnd@@IAEJXZ:PROC			; CWnd::Default
EXTRN	?DefWindowProcA@CWnd@@MAEJIIJ@Z:PROC		; CWnd::DefWindowProcA
EXTRN	?PostNcDestroy@CWnd@@MAEXXZ:PROC		; CWnd::PostNcDestroy
EXTRN	?OnChildNotify@CWnd@@MAEHIIJPAJ@Z:PROC		; CWnd::OnChildNotify
EXTRN	?OnTouchInputs@CWnd@@MAEHIPAUtagTOUCHINPUT@@@Z:PROC ; CWnd::OnTouchInputs
EXTRN	?OnTouchInput@CWnd@@MAEHVCPoint@@HHPAUtagTOUCHINPUT@@@Z:PROC ; CWnd::OnTouchInput
EXTRN	?GetGestureStatus@CWnd@@MAEKVCPoint@@@Z:PROC	; CWnd::GetGestureStatus
EXTRN	?OnGestureZoom@CWnd@@MAEHVCPoint@@J@Z:PROC	; CWnd::OnGestureZoom
EXTRN	?OnGesturePan@CWnd@@MAEHVCPoint@@0@Z:PROC	; CWnd::OnGesturePan
EXTRN	?OnGestureRotate@CWnd@@MAEHVCPoint@@N@Z:PROC	; CWnd::OnGestureRotate
EXTRN	?OnGestureTwoFingerTap@CWnd@@MAEHVCPoint@@@Z:PROC ; CWnd::OnGestureTwoFingerTap
EXTRN	?OnGesturePressAndTap@CWnd@@MAEHVCPoint@@J@Z:PROC ; CWnd::OnGesturePressAndTap
EXTRN	?ResizeDynamicLayout@CWnd@@MAEXXZ:PROC		; CWnd::ResizeDynamicLayout
EXTRN	?IsFrameWnd@CWnd@@UBEHXZ:PROC			; CWnd::IsFrameWnd
EXTRN	?OnFinalRelease@CWnd@@UAEXXZ:PROC		; CWnd::OnFinalRelease
EXTRN	?CreateControlContainer@CWnd@@MAEHPAPAVCOleControlContainer@@@Z:PROC ; CWnd::CreateControlContainer
EXTRN	?CreateControlSite@CWnd@@MAEHPAVCOleControlContainer@@PAPAVCOleControlSite@@IABU_GUID@@@Z:PROC ; CWnd::CreateControlSite
EXTRN	?GetRuntimeClass@CDialog@@UBEPAUCRuntimeClass@@XZ:PROC ; CDialog::GetRuntimeClass
EXTRN	?Create@CDialog@@UAEHPBDPAVCWnd@@@Z:PROC	; CDialog::Create
EXTRN	?CreateIndirect@CDialog@@UAEHPBUDLGTEMPLATE@@PAVCWnd@@PAX@Z:PROC ; CDialog::CreateIndirect
EXTRN	?CreateIndirect@CDialog@@UAEHPAXPAVCWnd@@@Z:PROC ; CDialog::CreateIndirect
EXTRN	??0CDialog@@QAE@IPAVCWnd@@@Z:PROC		; CDialog::CDialog
EXTRN	?DoModal@CDialog@@UAEHXZ:PROC			; CDialog::DoModal
EXTRN	?OnInitDialog@CDialog@@UAEHXZ:PROC		; CDialog::OnInitDialog
EXTRN	?OnSetFont@CDialog@@UAEXPAVCFont@@@Z:PROC	; CDialog::OnSetFont
EXTRN	?OnOK@CDialog@@MAEXXZ:PROC			; CDialog::OnOK
EXTRN	?OnCancel@CDialog@@MAEXXZ:PROC			; CDialog::OnCancel
EXTRN	??1CDialog@@UAE@XZ:PROC				; CDialog::~CDialog
EXTRN	?PreTranslateMessage@CDialog@@UAEHPAUtagMSG@@@Z:PROC ; CDialog::PreTranslateMessage
EXTRN	?OnCmdMsg@CDialog@@UAEHIHPAXPAUAFX_CMDHANDLERINFO@@@Z:PROC ; CDialog::OnCmdMsg
EXTRN	?CheckAutoCenter@CDialog@@UAEHXZ:PROC		; CDialog::CheckAutoCenter
EXTRN	?SetOccDialogInfo@CDialog@@MAEHPAU_AFX_OCC_DIALOG_INFO@@@Z:PROC ; CDialog::SetOccDialogInfo
EXTRN	?GetOccDialogInfo@CDialog@@MAEPAU_AFX_OCC_DIALOG_INFO@@XZ:PROC ; CDialog::GetOccDialogInfo
EXTRN	?PreInitDialog@CDialog@@MAEXXZ:PROC		; CDialog::PreInitDialog
EXTRN	?GetThisMessageMap@CDialog@@KGPBUAFX_MSGMAP@@XZ:PROC ; CDialog::GetThisMessageMap
EXTRN	?GetLBText@CComboBox@@QBEXHAAV?$CStringT@DV?$StrTraitMFC_DLL@DV?$ChTraitsCRT@D@ATL@@@@@ATL@@@Z:PROC ; CComboBox::GetLBText
EXTRN	?AfxMessageBox@@YGHPBDII@Z:PROC			; AfxMessageBox
EXTRN	??0CILButton@@QAE@XZ:PROC			; CILButton::CILButton
EXTRN	?FP_vSetImage@CILButton@@QAEXPAVCImageList@@HHHV?$CStringT@DV?$StrTraitMFC_DLL@DV?$ChTraitsCRT@D@ATL@@@@@ATL@@HHH@Z:PROC ; CILButton::FP_vSetImage
EXTRN	?FP_vSetToolTipText@CILButton@@QAEXV?$CStringT@DV?$StrTraitMFC_DLL@DV?$ChTraitsCRT@D@ATL@@@@@ATL@@@Z:PROC ; CILButton::FP_vSetToolTipText
EXTRN	??1CILButton@@UAE@XZ:PROC			; CILButton::~CILButton
EXTRN	??0CExComboBox@@QAE@H@Z:PROC			; CExComboBox::CExComboBox
EXTRN	??1CExComboBox@@UAE@XZ:PROC			; CExComboBox::~CExComboBox
EXTRN	??0CXListCtrl@@QAE@XZ:PROC			; CXListCtrl::CXListCtrl
EXTRN	??1CXListCtrl@@UAE@XZ:PROC			; CXListCtrl::~CXListCtrl
EXTRN	?DeleteAllItems@CXListCtrl@@QAEHXZ:PROC		; CXListCtrl::DeleteAllItems
EXTRN	??0CDllDlg@@QAE@PBD0PAXPAUHINSTANCE__@@PAVCWnd@@@Z:PROC ; CDllDlg::CDllDlg
EXTRN	??_ECDlgSTExOption@@UAEPAXI@Z:PROC		; CDlgSTExOption::`vector deleting destructor'
EXTRN	?InvokeAddInSTIndex@CChartItem@@QAEHPBDFJ@Z:PROC ; CChartItem::InvokeAddInSTIndex
EXTRN	?IsSTSelected@CTabSystemTradingEx@@QAEHXZ:PROC	; CTabSystemTradingEx::IsSTSelected
EXTRN	?CanSTModule@CTabSystemTradingEx@@QAEHXZ:PROC	; CTabSystemTradingEx::CanSTModule
EXTRN	?CheckOcx@CTabSystemTradingEx@@QAEHXZ:PROC	; CTabSystemTradingEx::CheckOcx
EXTRN	?HideStOptimaA@CTabSystemTradingEx@@QAEXXZ:PROC	; CTabSystemTradingEx::HideStOptimaA
EXTRN	?STClear@CTabSystemTradingEx@@QAEXXZ:PROC	; CTabSystemTradingEx::STClear
EXTRN	?GetpChartItemSelected@CChartMng@@QAEPAVCChartItem@@XZ:PROC ; CChartMng::GetpChartItemSelected
EXTRN	@__security_check_cookie@4:PROC
EXTRN	___CxxFrameHandler3:PROC
EXTRN	??_7type_info@@6B@:QWORD			; type_info::`vftable'
EXTRN	?g_hInstance@@3PAUHINSTANCE__@@A:DWORD		; g_hInstance
EXTRN	___security_cookie:DWORD
EXTRN	__fltused:DWORD
_BSS	SEGMENT
?RMSG_STTREE_ITEMCLICK@@3IB DD 01H DUP (?)		; RMSG_STTREE_ITEMCLICK
?RMSG_STTREE_ITEMDBLCLK@@3IB DD 01H DUP (?)		; RMSG_STTREE_ITEMDBLCLK
?RMSG_GETSIGNAL_REAL@@3IB DD 01H DUP (?)		; RMSG_GETSIGNAL_REAL
?RMSG_SETQUERYOPT@@3IB DD 01H DUP (?)			; RMSG_SETQUERYOPT
?RMSG_CHARTMAIN@@3IB DD 01H DUP (?)			; RMSG_CHARTMAIN
?RMS_ANALYSIS_FUNC@@3IB DD 01H DUP (?)			; RMS_ANALYSIS_FUNC
?RMSG_GET_USERID@@3IB DD 01H DUP (?)			; RMSG_GET_USERID
?RMSG_CHANGE_SKINCOLOR@@3IB DD 01H DUP (?)		; RMSG_CHANGE_SKINCOLOR
?RMSG_GET_SKINCOLOR@@3IB DD 01H DUP (?)			; RMSG_GET_SKINCOLOR
?RMSG_CHANGEVERTSCALETYPE@@3IB DD 01H DUP (?)		; RMSG_CHANGEVERTSCALETYPE
?RMSG_CHANGE_CROSSLINE@@3IB DD 01H DUP (?)		; RMSG_CHANGE_CROSSLINE
?RMSG_ADD_PLATFORM_MENU@@3IB DD 01H DUP (?)		; RMSG_ADD_PLATFORM_MENU
?RMSG_SETINITIALCHARTDATA@@3IB DD 01H DUP (?)		; RMSG_SETINITIALCHARTDATA
?RMSG_GETINFO@@3IB DD 01H DUP (?)			; RMSG_GETINFO
?RMSG_SETINFO@@3IB DD 01H DUP (?)			; RMSG_SETINFO
?RMSG_REPLAY_REAL@@3IB DD 01H DUP (?)			; RMSG_REPLAY_REAL
?RMSG_REPLAY_FAIL@@3IB DD 01H DUP (?)			; RMSG_REPLAY_FAIL
?RMSG_REPLAY_CHANGE_DATE@@3IB DD 01H DUP (?)		; RMSG_REPLAY_CHANGE_DATE
?RMSG_REPLAY_END@@3IB DD 01H DUP (?)			; RMSG_REPLAY_END
?RMSG_REPLAY_INC_SEC@@3IB DD 01H DUP (?)		; RMSG_REPLAY_INC_SEC
?RMSG_REPLAY_TOTAL_SEC@@3IB DD 01H DUP (?)		; RMSG_REPLAY_TOTAL_SEC
_BSS	ENDS
;	COMDAT CRT$XCU
CRT$XCU	SEGMENT
?_AtlWinModule$initializer$@ATL@@3P6AXXZA DD FLAT:??__E_AtlWinModule@ATL@@YAXXZ ; ATL::_AtlWinModule$initializer$
CRT$XCU	ENDS
;	COMDAT __real@0000000000000000
CONST	SEGMENT
__real@0000000000000000 DQ 00000000000000000r	; 0
CONST	ENDS
;	COMDAT ??_R1A@?0A@EA@CDlgSTExOption@@8
rdata$r	SEGMENT
??_R1A@?0A@EA@CDlgSTExOption@@8 DD FLAT:??_R0?AVCDlgSTExOption@@@8 ; CDlgSTExOption::`RTTI Base Class Descriptor at (0,-1,0,64)'
	DD	04H
	DD	00H
	DD	0ffffffffH
	DD	00H
	DD	040H
	DD	FLAT:??_R3CDlgSTExOption@@8
rdata$r	ENDS
;	COMDAT ??_R2CDlgSTExOption@@8
rdata$r	SEGMENT
??_R2CDlgSTExOption@@8 DD FLAT:??_R1A@?0A@EA@CDlgSTExOption@@8 ; CDlgSTExOption::`RTTI Base Class Array'
	DD	FLAT:??_R1A@?0A@EA@CDialog@@8
	DD	FLAT:??_R1A@?0A@EA@CWnd@@8
	DD	FLAT:??_R1A@?0A@EA@CCmdTarget@@8
	DD	FLAT:??_R1A@?0A@EA@CObject@@8
rdata$r	ENDS
;	COMDAT ??_R3CDlgSTExOption@@8
rdata$r	SEGMENT
??_R3CDlgSTExOption@@8 DD 00H				; CDlgSTExOption::`RTTI Class Hierarchy Descriptor'
	DD	00H
	DD	05H
	DD	FLAT:??_R2CDlgSTExOption@@8
rdata$r	ENDS
;	COMDAT ??_R0?AVCDlgSTExOption@@@8
data$rs	SEGMENT
??_R0?AVCDlgSTExOption@@@8 DD FLAT:??_7type_info@@6B@	; CDlgSTExOption `RTTI Type Descriptor'
	DD	00H
	DB	'.?AVCDlgSTExOption@@', 00H
data$rs	ENDS
;	COMDAT ??_R4CDlgSTExOption@@6B@
rdata$r	SEGMENT
??_R4CDlgSTExOption@@6B@ DD 00H				; CDlgSTExOption::`RTTI Complete Object Locator'
	DD	00H
	DD	00H
	DD	FLAT:??_R0?AVCDlgSTExOption@@@8
	DD	FLAT:??_R3CDlgSTExOption@@8
rdata$r	ENDS
;	COMDAT ??_C@_0BA@NAEFDOEC@DESTROY_TRADING@
CONST	SEGMENT
??_C@_0BA@NAEFDOEC@DESTROY_TRADING@ DB 'DESTROY_TRADING', 00H ; `string'
CONST	ENDS
;	COMDAT ??_C@_02HALKOLAM@?$LD?$KB@
CONST	SEGMENT
??_C@_02HALKOLAM@?$LD?$KB@ DB 0b3H, 0a1H, 00H		; `string'
CONST	ENDS
;	COMDAT ??_C@_04EGBBAPDL@?$LN?C?$MA?$NL@
CONST	SEGMENT
??_C@_04EGBBAPDL@?$LN?C?$MA?$NL@ DB 0bdH, 0c3H, 0c0H, 0dbH, 00H ; `string'
CONST	ENDS
;	COMDAT ??_C@_01CLKCMJKC@?5@
CONST	SEGMENT
??_C@_01CLKCMJKC@?5@ DB ' ', 00H			; `string'
CONST	ENDS
;	COMDAT ??_C@_0O@LHAJBKH@SA_ApplyChart@
CONST	SEGMENT
??_C@_0O@LHAJBKH@SA_ApplyChart@ DB 'SA_ApplyChart', 00H	; `string'
CONST	ENDS
;	COMDAT ??_C@_0DD@IBPJBNAL@?$LL?g?$LP?k?$MA?Z?A?v?G?$KF?0?$LL?g?$LP?k?$MA?Z?$LA?$KN?$LM?$LM?$LO?$OA?$LM?$LM?$LE?B?5?$LM?$LK?$LA@
CONST	SEGMENT
??_C@_0DD@IBPJBNAL@?$LL?g?$LP?k?$MA?Z?A?v?G?$KF?0?$LL?g?$LP?k?$MA?Z?$LA?$KN?$LM?$LM?$LO?$OA?$LM?$LM?$LE?B?5?$LM?$LK?$LA@ DB 0bbH
	DB	0e7H, 0bfH, 0ebH, 0c0H, 0daH, 0c1H, 0f6H, 0c7H, 0a5H, ',', 0bbH
	DB	0e7H, 0bfH, 0ebH, 0c0H, 0daH, 0b0H, 0adH, 0bcH, 0bcH, 0beH, 0e0H
	DB	0bcH, 0bcH, 0b4H, 0c2H, ' ', 0bcH, 0baH, 0b0H, 0faH, 0baH, 0d0H
	DB	0bcH, 0aeH, 0c0H, 0ccH, ' ', 0baH, 0d2H, 0b0H, 0a1H, 0c7H, 0d5H
	DB	0b4H, 0cfH, 0b4H, 0d9H, '.', 00H		; `string'
CONST	ENDS
;	COMDAT ??_C@_0L@OPFBKEGP@?$LM?$LK?$LA?z?$LK?$LI?$LA?m?$LM?$KN@
CONST	SEGMENT
??_C@_0L@OPFBKEGP@?$LM?$LK?$LA?z?$LK?$LI?$LA?m?$LM?$KN@ DB 0bcH, 0baH, 0b0H
	DB	0faH, 0baH, 0b8H, 0b0H, 0edH, 0bcH, 0adH, 00H ; `string'
CONST	ENDS
;	COMDAT ??_C@_0BI@NPODHFEC@?2Dev?2HWStrategyAnalysis@
CONST	SEGMENT
??_C@_0BI@NPODHFEC@?2Dev?2HWStrategyAnalysis@ DB '\Dev\HWStrategyAnalysis'
	DB	00H						; `string'
CONST	ENDS
;	COMDAT ??_C@_0FI@MIHHDMHK@?$LM?$LK?$LA?z?$LK?P?$LM?$KO?$MA?$LK?5?G?v?$MA?g?5?$LP?n?$LP?k?A?$NP?$MA?N?5?$MA?$PM?$LH?$KL?$MA?$LL@
CONST	SEGMENT
??_C@_0FI@MIHHDMHK@?$LM?$LK?$LA?z?$LK?P?$LM?$KO?$MA?$LK?5?G?v?$MA?g?5?$LP?n?$LP?k?A?$NP?$MA?N?5?$MA?$PM?$LH?$KL?$MA?$LL@ DB 0bcH
	DB	0baH, 0b0H, 0faH, 0baH, 0d0H, 0bcH, 0aeH, 0c0H, 0baH, ' ', 0c7H
	DB	0f6H, 0c0H, 0e7H, ' ', 0bfH, 0eeH, 0bfH, 0ebH, 0c1H, 0dfH, 0c0H
	DB	0ceH, ' ', 0c0H, 0fcH, 0b7H, 0abH, 0c0H, 0bbH, ' ', 0c7H, 0d8H
	DB	0c1H, 0a6H, 0c7H, 0cfH, 0bfH, 0a9H, 0beH, 0dfH, ' ', 0c0H, 0fbH
	DB	0bfH, 0ebH, 0c0H, 0ccH, ' ', 0b0H, 0a1H, 0b4H, 0c9H, 0c7H, 0d5H
	DB	0b4H, 0cfH, 0b4H, 0d9H, '.', 0aH, 0aH, 0c0H, 0fcH, 0b7H, 0abH, 0c0H
	DB	0bbH, ' ', 0c7H, 0d8H, 0c1H, 0a6H, 0c7H, 0cfH, 0bdH, 0c3H, 0b0H
	DB	0daH, 0bdH, 0c0H, 0b4H, 0cfH, 0b1H, 0eeH, '?', 00H ; `string'
CONST	ENDS
;	COMDAT ??_C@_0BG@CHJJKIAP@ChartSTIndexAddIn?4dll@
CONST	SEGMENT
??_C@_0BG@CHJJKIAP@ChartSTIndexAddIn?4dll@ DB 'ChartSTIndexAddIn.dll', 00H ; `string'
CONST	ENDS
;	COMDAT ??_C@_0EJ@JEOKELGF@?C?V?$MA?$PL?H?$KN?$LP?$KB?$LM?$KN?5?G?J?$LP?d?G?Q?5OCX?$CITeeChart7@
CONST	SEGMENT
??_C@_0EJ@JEOKELGF@?C?V?$MA?$PL?H?$KN?$LP?$KB?$LM?$KN?5?G?J?$LP?d?G?Q?5OCX?$CITeeChart7@ DB 0c3H
	DB	0d6H, 0c0H, 0fbH, 0c8H, 0adH, 0bfH, 0a1H, 0bcH, 0adH, ' ', 0c7H
	DB	0caH, 0bfH, 0e4H, 0c7H, 0d1H, ' OCX(TeeChart7.ocx, MSChrt20.oc'
	DB	'x)', 0b5H, 0eeH, 0b7H, 0cfH, 0c0H, 0ccH, ' ', 0beH, 0c8H, 0b5H
	DB	0c7H, 0beH, 0eeH, 0c0H, 0d6H, 0bdH, 0c0H, 0b4H, 0cfH, 0b4H, 0d9H
	DB	'.', 00H					; `string'
CONST	ENDS
;	COMDAT ??_C@_0CE@LIBOKAIK@?$MA?$PL?$LP?k?G?R?5?$MA?$PM?$LH?$KL?$MA?$LL?5?$LM?$LB?E?C?G?X?A?V?$LN?C?$LB?b?5?$LJ?Y?$LG?x@
CONST	SEGMENT
??_C@_0CE@LIBOKAIK@?$MA?$PL?$LP?k?G?R?5?$MA?$PM?$LH?$KL?$MA?$LL?5?$LM?$LB?E?C?G?X?A?V?$LN?C?$LB?b?5?$LJ?Y?$LG?x@ DB 0c0H
	DB	0fbH, 0bfH, 0ebH, 0c7H, 0d2H, ' ', 0c0H, 0fcH, 0b7H, 0abH, 0c0H
	DB	0bbH, ' ', 0bcH, 0b1H, 0c5H, 0c3H, 0c7H, 0d8H, 0c1H, 0d6H, 0bdH
	DB	0c3H, 0b1H, 0e2H, ' ', 0b9H, 0d9H, 0b6H, 0f8H, 0b4H, 0cfH, 0b4H
	DB	0d9H, 00H					; `string'
CONST	ENDS
;	COMDAT ??_C@_0BI@PFKPIPEB@?A?$LO?$LI?q?A?$LG?H?$LI?5?H?D?5?$LA?$KB?$LE?I?G?U?$LE?O?$LE?Y?4@
CONST	SEGMENT
??_C@_0BI@PFKPIPEB@?A?$LO?$LI?q?A?$LG?H?$LI?5?H?D?5?$LA?$KB?$LE?I?G?U?$LE?O?$LE?Y?4@ DB 0c1H
	DB	0beH, 0b8H, 0f1H, 0c1H, 0b6H, 0c8H, 0b8H, ' ', 0c8H, 0c4H, ' ', 0b0H
	DB	0a1H, 0b4H, 0c9H, 0c7H, 0d5H, 0b4H, 0cfH, 0b4H, 0d9H, '.', 00H ; `string'
CONST	ENDS
;	COMDAT ??_C@_0CC@GDBOGPKH@?$LA?$KN?$LM?$LM?$LO?$OA?$LM?$LM?$LE?B?5?$LM?$LK?$LA?z?$LK?P?$LM?$KO?$MA?L?5?$LK?R?$LA?$KB?G?U?$LE?O?$LE@
CONST	SEGMENT
??_C@_0CC@GDBOGPKH@?$LA?$KN?$LM?$LM?$LO?$OA?$LM?$LM?$LE?B?5?$LM?$LK?$LA?z?$LK?P?$LM?$KO?$MA?L?5?$LK?R?$LA?$KB?G?U?$LE?O?$LE@ DB 0b0H
	DB	0adH, 0bcH, 0bcH, 0beH, 0e0H, 0bcH, 0bcH, 0b4H, 0c2H, ' ', 0bcH
	DB	0baH, 0b0H, 0faH, 0baH, 0d0H, 0bcH, 0aeH, 0c0H, 0ccH, ' ', 0baH
	DB	0d2H, 0b0H, 0a1H, 0c7H, 0d5H, 0b4H, 0cfH, 0b4H, 0d9H, '.', 00H ; `string'
CONST	ENDS
;	COMDAT ??_C@_08BHLLDOMG@?$LA?$KN?$LM?$LM?$LO?$OA?$LM?$LM@
CONST	SEGMENT
??_C@_08BHLLDOMG@?$LA?$KN?$LM?$LM?$LO?$OA?$LM?$LM@ DB 0b0H, 0adH, 0bcH, 0bcH
	DB	0beH, 0e0H, 0bcH, 0bcH, 00H			; `string'
CONST	ENDS
;	COMDAT ??_C@_0L@DLNLHHBM@?$LL?g?$LP?k?$MA?Z?A?v?G?$KF@
CONST	SEGMENT
??_C@_0L@DLNLHHBM@?$LL?g?$LP?k?$MA?Z?A?v?G?$KF@ DB 0bbH, 0e7H, 0bfH, 0ebH
	DB	0c0H, 0daH, 0c1H, 0f6H, 0c7H, 0a5H, 00H	; `string'
CONST	ENDS
;	COMDAT ??_C@_06PDDAPFFG@?$LK?$LI?$LA?m?$LM?$KN@
CONST	SEGMENT
??_C@_06PDDAPFFG@?$LK?$LI?$LA?m?$LM?$KN@ DB 0baH, 0b8H, 0b0H, 0edH, 0bcH, 0adH
	DB	00H						; `string'
CONST	ENDS
;	COMDAT ??_C@_04PCCHOCJF@?$MA?$PL?$LP?k@
CONST	SEGMENT
??_C@_04PCCHOCJF@?$MA?$PL?$LP?k@ DB 0c0H, 0fbH, 0bfH, 0ebH, 00H ; `string'
CONST	ENDS
;	COMDAT ??_C@_03NFNGBNAH@50?$CF@
CONST	SEGMENT
??_C@_03NFNGBNAH@50?$CF@ DB '50%', 00H			; `string'
CONST	ENDS
;	COMDAT ??_C@_03GNGKHKGC@40?$CF@
CONST	SEGMENT
??_C@_03GNGKHKGC@40?$CF@ DB '40%', 00H			; `string'
CONST	ENDS
;	COMDAT ??_C@_03PALNECNL@30?$CF@
CONST	SEGMENT
??_C@_03PALNECNL@30?$CF@ DB '30%', 00H			; `string'
CONST	ENDS
;	COMDAT ??_C@_03EIABCFLO@20?$CF@
CONST	SEGMENT
??_C@_03EIABCFLO@20?$CF@ DB '20%', 00H			; `string'
CONST	ENDS
;	COMDAT ??_C@_03FKLEIKFA@10?$CF@
CONST	SEGMENT
??_C@_03FKLEIKFA@10?$CF@ DB '10%', 00H			; `string'
CONST	ENDS
;	COMDAT ??_C@_04OGKJMPGK@?$CF02d@
CONST	SEGMENT
??_C@_04OGKJMPGK@?$CF02d@ DB '%02d', 00H		; `string'
CONST	ENDS
;	COMDAT ?messageMap@?1??GetThisMessageMap@CDlgSTExOption@@KGPBUAFX_MSGMAP@@XZ@4U3@B
CONST	SEGMENT
?messageMap@?1??GetThisMessageMap@CDlgSTExOption@@KGPBUAFX_MSGMAP@@XZ@4U3@B DD FLAT:?GetThisMessageMap@CDialog@@KGPBUAFX_MSGMAP@@XZ ; `CDlgSTExOption::GetThisMessageMap'::`2'::messageMap
	DD	FLAT:?_messageEntries@?1??GetThisMessageMap@CDlgSTExOption@@KGPBUAFX_MSGMAP@@XZ@4QBUAFX_MSGMAP_ENTRY@@B
CONST	ENDS
;	COMDAT ?_messageEntries@?1??GetThisMessageMap@CDlgSTExOption@@KGPBUAFX_MSGMAP@@XZ@4QBUAFX_MSGMAP_ENTRY@@B
CONST	SEGMENT
?_messageEntries@?1??GetThisMessageMap@CDlgSTExOption@@KGPBUAFX_MSGMAP@@XZ@4QBUAFX_MSGMAP_ENTRY@@B DD 019H ; `CDlgSTExOption::GetThisMessageMap'::`2'::_messageEntries
	DD	00H
	DD	00H
	DD	00H
	DD	08H
	DD	FLAT:?OnCtlColor@CDlgSTExOption@@IAEPAUHBRUSH__@@PAVCDC@@PAVCWnd@@I@Z
	DD	05H
	DD	00H
	DD	00H
	DD	00H
	DD	01aH
	DD	FLAT:?OnSize@CDlgSTExOption@@IAEXIHH@Z
	DD	0111H
	DD	00H
	DD	01849H
	DD	01849H
	DD	03aH
	DD	FLAT:?OnBnClickedStreport@CDlgSTExOption@@IAEXXZ
	DD	0111H
	DD	00H
	DD	01863H
	DD	01863H
	DD	03aH
	DD	FLAT:?OnBnClickedStshowoption@CDlgSTExOption@@IAEXXZ
	DD	0111H
	DD	00H
	DD	017b7H
	DD	017b7H
	DD	03aH
	DD	FLAT:?OnBnClickedStapply@CDlgSTExOption@@QAEXXZ
	DD	02H
	DD	00H
	DD	00H
	DD	00H
	DD	013H
	DD	FLAT:?OnDestroy@CDlgSTExOption@@QAEXXZ
	DD	00H
	DD	00H
	DD	00H
	DD	00H
	DD	00H
	DD	00H
CONST	ENDS
;	COMDAT ??_C@_03COHLPAFH@?4ST@
CONST	SEGMENT
??_C@_03COHLPAFH@?4ST@ DB '.ST', 00H			; `string'
CONST	ENDS
;	COMDAT ??_C@_04HDOCAJNK@?$CFs?$CFs@
CONST	SEGMENT
??_C@_04HDOCAJNK@?$CFs?$CFs@ DB '%s%s', 00H		; `string'
CONST	ENDS
;	COMDAT ??_7CDlgSTExOption@@6B@
CONST	SEGMENT
??_7CDlgSTExOption@@6B@ DD FLAT:??_R4CDlgSTExOption@@6B@ ; CDlgSTExOption::`vftable'
	DD	FLAT:?GetRuntimeClass@CDialog@@UBEPAUCRuntimeClass@@XZ
	DD	FLAT:??_ECDlgSTExOption@@UAEPAXI@Z
	DD	FLAT:?Serialize@CObject@@UAEXAAVCArchive@@@Z
	DD	FLAT:?AssertValid@CObject@@UBEXXZ
	DD	FLAT:?Dump@CObject@@UBEXAAVCDumpContext@@@Z
	DD	FLAT:?OnCmdMsg@CDialog@@UAEHIHPAXPAUAFX_CMDHANDLERINFO@@@Z
	DD	FLAT:?OnFinalRelease@CWnd@@UAEXXZ
	DD	FLAT:?IsInvokeAllowed@CCmdTarget@@UAEHJ@Z
	DD	FLAT:?GetDispatchIID@CCmdTarget@@UAEHPAU_GUID@@@Z
	DD	FLAT:?GetTypeInfoCount@CCmdTarget@@UAEIXZ
	DD	FLAT:?GetTypeLibCache@CCmdTarget@@UAEPAVCTypeLibCache@@XZ
	DD	FLAT:?GetTypeLib@CCmdTarget@@UAEJKPAPAUITypeLib@@@Z
	DD	FLAT:?GetMessageMap@CDlgSTExOption@@MBEPBUAFX_MSGMAP@@XZ
	DD	FLAT:?GetCommandMap@CCmdTarget@@MBEPBUAFX_OLECMDMAP@@XZ
	DD	FLAT:?GetDispatchMap@CCmdTarget@@MBEPBUAFX_DISPMAP@@XZ
	DD	FLAT:?GetConnectionMap@CCmdTarget@@MBEPBUAFX_CONNECTIONMAP@@XZ
	DD	FLAT:?GetInterfaceMap@CWnd@@MBEPBUAFX_INTERFACEMAP@@XZ
	DD	FLAT:?GetEventSinkMap@CCmdTarget@@MBEPBUAFX_EVENTSINKMAP@@XZ
	DD	FLAT:?OnCreateAggregates@CCmdTarget@@UAEHXZ
	DD	FLAT:?GetInterfaceHook@CCmdTarget@@UAEPAUIUnknown@@PBX@Z
	DD	FLAT:?GetExtraConnectionPoints@CCmdTarget@@MAEHPAVCPtrArray@@@Z
	DD	FLAT:?GetConnectionHook@CCmdTarget@@MAEPAUIConnectionPoint@@ABU_GUID@@@Z
	DD	FLAT:?PreSubclassWindow@CWnd@@UAEXXZ
	DD	FLAT:?Create@CWnd@@UAEHPBD0KABUtagRECT@@PAV1@IPAUCCreateContext@@@Z
	DD	FLAT:?CreateEx@CWnd@@UAEHKPBD0KABUtagRECT@@PAV1@IPAX@Z
	DD	FLAT:?CreateEx@CWnd@@UAEHKPBD0KHHHHPAUHWND__@@PAUHMENU__@@PAX@Z
	DD	FLAT:?DestroyWindow@CWnd@@UAEHXZ
	DD	FLAT:?PreCreateWindow@CWnd@@UAEHAAUtagCREATESTRUCTA@@@Z
	DD	FLAT:?CalcWindowRect@CWnd@@UAEXPAUtagRECT@@I@Z
	DD	FLAT:?GetMenu@CWnd@@UBEPAVCMenu@@XZ
	DD	FLAT:?SetMenu@CWnd@@UAEHPAVCMenu@@@Z
	DD	FLAT:?OnToolHitTest@CWnd@@UBEHVCPoint@@PAUtagTOOLINFOA@@@Z
	DD	FLAT:?GetScrollBarCtrl@CWnd@@UBEPAVCScrollBar@@H@Z
	DD	FLAT:?WinHelpA@CWnd@@UAEXKI@Z
	DD	FLAT:?HtmlHelpA@CWnd@@UAEXKI@Z
	DD	FLAT:?WinHelpInternal@CWnd@@UAEXKI@Z
	DD	FLAT:?ContinueModal@CWnd@@UAEHXZ
	DD	FLAT:?EndModalLoop@CWnd@@UAEXH@Z
	DD	FLAT:?OnDrawIconicThumbnailOrLivePreview@CWnd@@UAEXAAVCDC@@VCRect@@VCSize@@HAAH@Z
	DD	FLAT:?EnsureStdObj@CWnd@@UAEJXZ
	DD	FLAT:?get_accParent@CWnd@@UAEJPAPAUIDispatch@@@Z
	DD	FLAT:?get_accChildCount@CWnd@@UAEJPAJ@Z
	DD	FLAT:?get_accChild@CWnd@@UAEJUtagVARIANT@@PAPAUIDispatch@@@Z
	DD	FLAT:?get_accName@CWnd@@UAEJUtagVARIANT@@PAPA_W@Z
	DD	FLAT:?get_accValue@CWnd@@UAEJUtagVARIANT@@PAPA_W@Z
	DD	FLAT:?get_accDescription@CWnd@@UAEJUtagVARIANT@@PAPA_W@Z
	DD	FLAT:?get_accRole@CWnd@@UAEJUtagVARIANT@@PAU2@@Z
	DD	FLAT:?get_accState@CWnd@@UAEJUtagVARIANT@@PAU2@@Z
	DD	FLAT:?get_accHelp@CWnd@@UAEJUtagVARIANT@@PAPA_W@Z
	DD	FLAT:?get_accHelpTopic@CWnd@@UAEJPAPA_WUtagVARIANT@@PAJ@Z
	DD	FLAT:?get_accKeyboardShortcut@CWnd@@UAEJUtagVARIANT@@PAPA_W@Z
	DD	FLAT:?get_accFocus@CWnd@@UAEJPAUtagVARIANT@@@Z
	DD	FLAT:?get_accSelection@CWnd@@UAEJPAUtagVARIANT@@@Z
	DD	FLAT:?get_accDefaultAction@CWnd@@UAEJUtagVARIANT@@PAPA_W@Z
	DD	FLAT:?accSelect@CWnd@@UAEJJUtagVARIANT@@@Z
	DD	FLAT:?accLocation@CWnd@@UAEJPAJ000UtagVARIANT@@@Z
	DD	FLAT:?accNavigate@CWnd@@UAEJJUtagVARIANT@@PAU2@@Z
	DD	FLAT:?accHitTest@CWnd@@UAEJJJPAUtagVARIANT@@@Z
	DD	FLAT:?accDoDefaultAction@CWnd@@UAEJUtagVARIANT@@@Z
	DD	FLAT:?put_accName@CWnd@@UAEJUtagVARIANT@@PA_W@Z
	DD	FLAT:?put_accValue@CWnd@@UAEJUtagVARIANT@@PA_W@Z
	DD	FLAT:?SetProxy@CWnd@@UAEJPAUIAccessibleProxy@@@Z
	DD	FLAT:?CreateAccessibleProxy@CWnd@@UAEJIJPAJ@Z
	DD	FLAT:?OnCommand@CWnd@@MAEHIJ@Z
	DD	FLAT:?OnNotify@CWnd@@MAEHIJPAJ@Z
	DD	FLAT:?GetSuperWndProcAddr@CWnd@@MAEPAP6GJPAUHWND__@@IIJ@ZXZ
	DD	FLAT:?DoDataExchange@CDlgSTExOption@@MAEXPAVCDataExchange@@@Z
	DD	FLAT:?BeginModalState@CWnd@@UAEXXZ
	DD	FLAT:?EndModalState@CWnd@@UAEXXZ
	DD	FLAT:?PreTranslateMessage@CDialog@@UAEHPAUtagMSG@@@Z
	DD	FLAT:?OnAmbientProperty@CWnd@@UAEHPAVCOleControlSite@@JPAUtagVARIANT@@@Z
	DD	FLAT:?WindowProc@CWnd@@MAEJIIJ@Z
	DD	FLAT:?OnWndMsg@CWnd@@MAEHIIJPAJ@Z
	DD	FLAT:?DefWindowProcA@CWnd@@MAEJIIJ@Z
	DD	FLAT:?PostNcDestroy@CWnd@@MAEXXZ
	DD	FLAT:?OnChildNotify@CWnd@@MAEHIIJPAJ@Z
	DD	FLAT:?OnTouchInputs@CWnd@@MAEHIPAUtagTOUCHINPUT@@@Z
	DD	FLAT:?OnTouchInput@CWnd@@MAEHVCPoint@@HHPAUtagTOUCHINPUT@@@Z
	DD	FLAT:?GetGestureStatus@CWnd@@MAEKVCPoint@@@Z
	DD	FLAT:?OnGestureZoom@CWnd@@MAEHVCPoint@@J@Z
	DD	FLAT:?OnGesturePan@CWnd@@MAEHVCPoint@@0@Z
	DD	FLAT:?OnGestureRotate@CWnd@@MAEHVCPoint@@N@Z
	DD	FLAT:?OnGestureTwoFingerTap@CWnd@@MAEHVCPoint@@@Z
	DD	FLAT:?OnGesturePressAndTap@CWnd@@MAEHVCPoint@@J@Z
	DD	FLAT:?ResizeDynamicLayout@CWnd@@MAEXXZ
	DD	FLAT:?CheckAutoCenter@CDialog@@UAEHXZ
	DD	FLAT:?IsFrameWnd@CWnd@@UBEHXZ
	DD	FLAT:?CreateControlContainer@CWnd@@MAEHPAPAVCOleControlContainer@@@Z
	DD	FLAT:?CreateControlSite@CWnd@@MAEHPAVCOleControlContainer@@PAPAVCOleControlSite@@IABU_GUID@@@Z
	DD	FLAT:?SetOccDialogInfo@CDialog@@MAEHPAU_AFX_OCC_DIALOG_INFO@@@Z
	DD	FLAT:?GetOccDialogInfo@CDialog@@MAEPAU_AFX_OCC_DIALOG_INFO@@XZ
	DD	FLAT:?Create@CDialog@@UAEHIPAVCWnd@@@Z
	DD	FLAT:?Create@CDialog@@UAEHPBDPAVCWnd@@@Z
	DD	FLAT:?CreateIndirect@CDialog@@UAEHPAXPAVCWnd@@@Z
	DD	FLAT:?CreateIndirect@CDialog@@UAEHPBUDLGTEMPLATE@@PAVCWnd@@PAX@Z
	DD	FLAT:?DoModal@CDialog@@UAEHXZ
	DD	FLAT:?OnInitDialog@CDlgSTExOption@@MAEHXZ
	DD	FLAT:?OnSetFont@CDialog@@UAEXPAVCFont@@@Z
	DD	FLAT:?OnOK@CDialog@@MAEXXZ
	DD	FLAT:?OnCancel@CDialog@@MAEXXZ
	DD	FLAT:?PreInitDialog@CDialog@@MAEXXZ
CONST	ENDS
;	COMDAT ??_R2CDialog@@8
rdata$r	SEGMENT
??_R2CDialog@@8 DD FLAT:??_R1A@?0A@EA@CDialog@@8	; CDialog::`RTTI Base Class Array'
	DD	FLAT:??_R1A@?0A@EA@CWnd@@8
	DD	FLAT:??_R1A@?0A@EA@CCmdTarget@@8
	DD	FLAT:??_R1A@?0A@EA@CObject@@8
rdata$r	ENDS
;	COMDAT ??_R3CDialog@@8
rdata$r	SEGMENT
??_R3CDialog@@8 DD 00H					; CDialog::`RTTI Class Hierarchy Descriptor'
	DD	00H
	DD	04H
	DD	FLAT:??_R2CDialog@@8
rdata$r	ENDS
;	COMDAT ??_R0?AVCDialog@@@8
data$rs	SEGMENT
??_R0?AVCDialog@@@8 DD FLAT:??_7type_info@@6B@		; CDialog `RTTI Type Descriptor'
	DD	00H
	DB	'.?AVCDialog@@', 00H
data$rs	ENDS
;	COMDAT ??_R1A@?0A@EA@CDialog@@8
rdata$r	SEGMENT
??_R1A@?0A@EA@CDialog@@8 DD FLAT:??_R0?AVCDialog@@@8	; CDialog::`RTTI Base Class Descriptor at (0,-1,0,64)'
	DD	03H
	DD	00H
	DD	0ffffffffH
	DD	00H
	DD	040H
	DD	FLAT:??_R3CDialog@@8
rdata$r	ENDS
;	COMDAT ??_R2CCmdTarget@@8
rdata$r	SEGMENT
??_R2CCmdTarget@@8 DD FLAT:??_R1A@?0A@EA@CCmdTarget@@8	; CCmdTarget::`RTTI Base Class Array'
	DD	FLAT:??_R1A@?0A@EA@CObject@@8
rdata$r	ENDS
;	COMDAT ??_R3CCmdTarget@@8
rdata$r	SEGMENT
??_R3CCmdTarget@@8 DD 00H				; CCmdTarget::`RTTI Class Hierarchy Descriptor'
	DD	00H
	DD	02H
	DD	FLAT:??_R2CCmdTarget@@8
rdata$r	ENDS
;	COMDAT ??_R0?AVCCmdTarget@@@8
data$rs	SEGMENT
??_R0?AVCCmdTarget@@@8 DD FLAT:??_7type_info@@6B@	; CCmdTarget `RTTI Type Descriptor'
	DD	00H
	DB	'.?AVCCmdTarget@@', 00H
data$rs	ENDS
;	COMDAT ??_R1A@?0A@EA@CCmdTarget@@8
rdata$r	SEGMENT
??_R1A@?0A@EA@CCmdTarget@@8 DD FLAT:??_R0?AVCCmdTarget@@@8 ; CCmdTarget::`RTTI Base Class Descriptor at (0,-1,0,64)'
	DD	01H
	DD	00H
	DD	0ffffffffH
	DD	00H
	DD	040H
	DD	FLAT:??_R3CCmdTarget@@8
rdata$r	ENDS
;	COMDAT ??_R2CWnd@@8
rdata$r	SEGMENT
??_R2CWnd@@8 DD	FLAT:??_R1A@?0A@EA@CWnd@@8		; CWnd::`RTTI Base Class Array'
	DD	FLAT:??_R1A@?0A@EA@CCmdTarget@@8
	DD	FLAT:??_R1A@?0A@EA@CObject@@8
rdata$r	ENDS
;	COMDAT ??_R3CWnd@@8
rdata$r	SEGMENT
??_R3CWnd@@8 DD	00H					; CWnd::`RTTI Class Hierarchy Descriptor'
	DD	00H
	DD	03H
	DD	FLAT:??_R2CWnd@@8
rdata$r	ENDS
;	COMDAT ??_R0?AVCWnd@@@8
data$rs	SEGMENT
??_R0?AVCWnd@@@8 DD FLAT:??_7type_info@@6B@		; CWnd `RTTI Type Descriptor'
	DD	00H
	DB	'.?AVCWnd@@', 00H
data$rs	ENDS
;	COMDAT ??_R1A@?0A@EA@CWnd@@8
rdata$r	SEGMENT
??_R1A@?0A@EA@CWnd@@8 DD FLAT:??_R0?AVCWnd@@@8		; CWnd::`RTTI Base Class Descriptor at (0,-1,0,64)'
	DD	02H
	DD	00H
	DD	0ffffffffH
	DD	00H
	DD	040H
	DD	FLAT:??_R3CWnd@@8
rdata$r	ENDS
;	COMDAT ??_R1A@?0A@EA@CObject@@8
rdata$r	SEGMENT
??_R1A@?0A@EA@CObject@@8 DD FLAT:??_R0?AVCObject@@@8	; CObject::`RTTI Base Class Descriptor at (0,-1,0,64)'
	DD	00H
	DD	00H
	DD	0ffffffffH
	DD	00H
	DD	040H
	DD	FLAT:??_R3CObject@@8
rdata$r	ENDS
;	COMDAT ??_R2CObject@@8
rdata$r	SEGMENT
??_R2CObject@@8 DD FLAT:??_R1A@?0A@EA@CObject@@8	; CObject::`RTTI Base Class Array'
rdata$r	ENDS
;	COMDAT ??_R3CObject@@8
rdata$r	SEGMENT
??_R3CObject@@8 DD 00H					; CObject::`RTTI Class Hierarchy Descriptor'
	DD	00H
	DD	01H
	DD	FLAT:??_R2CObject@@8
rdata$r	ENDS
;	COMDAT ??_R0?AVCObject@@@8
data$rs	SEGMENT
??_R0?AVCObject@@@8 DD FLAT:??_7type_info@@6B@		; CObject `RTTI Type Descriptor'
	DD	00H
	DB	'.?AVCObject@@', 00H
data$rs	ENDS
;	COMDAT ??_C@_01GBGANLPD@0@
CONST	SEGMENT
??_C@_01GBGANLPD@0@ DB '0', 00H				; `string'
CONST	ENDS
;	COMDAT ?_AtlWinModule@ATL@@3VCAtlWinModule@1@A
_DATA	SEGMENT
?_AtlWinModule@ATL@@3VCAtlWinModule@1@A DD 02cH		; ATL::_AtlWinModule
	DB	24 DUP(00H)
	DD	00H
_DATA	ENDS
;	COMDAT xdata$x
xdata$x	SEGMENT
__ehfuncinfo$??_Estringdispid@CComTypeInfoHolder@ATL@@QAEPAXI@Z DD 019930522H
	DD	00H
	DD	00H
	DD	2 DUP(00H)
	DD	2 DUP(00H)
	DD	00H
	DD	05H
xdata$x	ENDS
;	COMDAT xdata$x
xdata$x	SEGMENT
__unwindtable$?OnBnClickedStapply@CDlgSTExOption@@QAEXXZ DD 0ffffffffH
	DD	FLAT:__unwindfunclet$?OnBnClickedStapply@CDlgSTExOption@@QAEXXZ$0
	DD	00H
	DD	FLAT:__unwindfunclet$?OnBnClickedStapply@CDlgSTExOption@@QAEXXZ$1
	DD	0ffffffffH
	DD	FLAT:__unwindfunclet$?OnBnClickedStapply@CDlgSTExOption@@QAEXXZ$2
__ehfuncinfo$?OnBnClickedStapply@CDlgSTExOption@@QAEXXZ DD 019930522H
	DD	03H
	DD	FLAT:__unwindtable$?OnBnClickedStapply@CDlgSTExOption@@QAEXXZ
	DD	2 DUP(00H)
	DD	2 DUP(00H)
	DD	00H
	DD	01H
xdata$x	ENDS
;	COMDAT xdata$x
xdata$x	SEGMENT
__unwindtable$?GetRepRate@CDlgSTExOption@@QAENXZ DD 0ffffffffH
	DD	FLAT:__unwindfunclet$?GetRepRate@CDlgSTExOption@@QAENXZ$0
__ehfuncinfo$?GetRepRate@CDlgSTExOption@@QAENXZ DD 019930522H
	DD	01H
	DD	FLAT:__unwindtable$?GetRepRate@CDlgSTExOption@@QAENXZ
	DD	2 DUP(00H)
	DD	2 DUP(00H)
	DD	00H
	DD	01H
xdata$x	ENDS
;	COMDAT xdata$x
xdata$x	SEGMENT
__unwindtable$?GetDivCount@CDlgSTExOption@@QAEHXZ DD 0ffffffffH
	DD	FLAT:__unwindfunclet$?GetDivCount@CDlgSTExOption@@QAEHXZ$0
__ehfuncinfo$?GetDivCount@CDlgSTExOption@@QAEHXZ DD 019930522H
	DD	01H
	DD	FLAT:__unwindtable$?GetDivCount@CDlgSTExOption@@QAEHXZ
	DD	2 DUP(00H)
	DD	2 DUP(00H)
	DD	00H
	DD	01H
xdata$x	ENDS
;	COMDAT xdata$x
xdata$x	SEGMENT
__unwindtable$?OnBnClickedStreport@CDlgSTExOption@@IAEXXZ DD 0ffffffffH
	DD	FLAT:__unwindfunclet$?OnBnClickedStreport@CDlgSTExOption@@IAEXXZ$0
	DD	00H
	DD	FLAT:__unwindfunclet$?OnBnClickedStreport@CDlgSTExOption@@IAEXXZ$1
	DD	0ffffffffH
	DD	FLAT:__unwindfunclet$?OnBnClickedStreport@CDlgSTExOption@@IAEXXZ$2
	DD	02H
	DD	FLAT:__unwindfunclet$?OnBnClickedStreport@CDlgSTExOption@@IAEXXZ$3
__ehfuncinfo$?OnBnClickedStreport@CDlgSTExOption@@IAEXXZ DD 019930522H
	DD	04H
	DD	FLAT:__unwindtable$?OnBnClickedStreport@CDlgSTExOption@@IAEXXZ
	DD	2 DUP(00H)
	DD	2 DUP(00H)
	DD	00H
	DD	01H
xdata$x	ENDS
;	COMDAT xdata$x
xdata$x	SEGMENT
__unwindtable$?OnInitDialog@CDlgSTExOption@@MAEHXZ DD 0ffffffffH
	DD	FLAT:__unwindfunclet$?OnInitDialog@CDlgSTExOption@@MAEHXZ$0
__ehfuncinfo$?OnInitDialog@CDlgSTExOption@@MAEHXZ DD 019930522H
	DD	01H
	DD	FLAT:__unwindtable$?OnInitDialog@CDlgSTExOption@@MAEHXZ
	DD	2 DUP(00H)
	DD	2 DUP(00H)
	DD	00H
	DD	01H
xdata$x	ENDS
;	COMDAT xdata$x
xdata$x	SEGMENT
__ehfuncinfo$??0CDlgSTExOption@@QAE@PAVCWnd@@@Z DD 019930522H
	DD	06H
	DD	FLAT:__unwindtable$??0CDlgSTExOption@@QAE@PAVCWnd@@@Z
	DD	2 DUP(00H)
	DD	2 DUP(00H)
	DD	00H
	DD	01H
__unwindtable$??0CDlgSTExOption@@QAE@PAVCWnd@@@Z DD 0ffffffffH
	DD	FLAT:__unwindfunclet$??0CDlgSTExOption@@QAE@PAVCWnd@@@Z$0
	DD	00H
	DD	FLAT:__unwindfunclet$??0CDlgSTExOption@@QAE@PAVCWnd@@@Z$1
	DD	01H
	DD	FLAT:__unwindfunclet$??0CDlgSTExOption@@QAE@PAVCWnd@@@Z$2
	DD	02H
	DD	FLAT:__unwindfunclet$??0CDlgSTExOption@@QAE@PAVCWnd@@@Z$3
	DD	03H
	DD	FLAT:__unwindfunclet$??0CDlgSTExOption@@QAE@PAVCWnd@@@Z$4
	DD	04H
	DD	FLAT:__unwindfunclet$??0CDlgSTExOption@@QAE@PAVCWnd@@@Z$5
xdata$x	ENDS
CRT$XCU	SEGMENT
?RMSG_STTREE_ITEMCLICK$initializer$@@3P6AXXZA DD FLAT:??__ERMSG_STTREE_ITEMCLICK@@YAXXZ ; RMSG_STTREE_ITEMCLICK$initializer$
CRT$XCU	ENDS
CRT$XCU	SEGMENT
?RMSG_STTREE_ITEMDBLCLK$initializer$@@3P6AXXZA DD FLAT:??__ERMSG_STTREE_ITEMDBLCLK@@YAXXZ ; RMSG_STTREE_ITEMDBLCLK$initializer$
CRT$XCU	ENDS
CRT$XCU	SEGMENT
?RMSG_GETSIGNAL_REAL$initializer$@@3P6AXXZA DD FLAT:??__ERMSG_GETSIGNAL_REAL@@YAXXZ ; RMSG_GETSIGNAL_REAL$initializer$
CRT$XCU	ENDS
CRT$XCU	SEGMENT
?RMSG_SETQUERYOPT$initializer$@@3P6AXXZA DD FLAT:??__ERMSG_SETQUERYOPT@@YAXXZ ; RMSG_SETQUERYOPT$initializer$
CRT$XCU	ENDS
CRT$XCU	SEGMENT
?RMSG_CHARTMAIN$initializer$@@3P6AXXZA DD FLAT:??__ERMSG_CHARTMAIN@@YAXXZ ; RMSG_CHARTMAIN$initializer$
CRT$XCU	ENDS
CRT$XCU	SEGMENT
?RMS_ANALYSIS_FUNC$initializer$@@3P6AXXZA DD FLAT:??__ERMS_ANALYSIS_FUNC@@YAXXZ ; RMS_ANALYSIS_FUNC$initializer$
CRT$XCU	ENDS
CRT$XCU	SEGMENT
?RMSG_GET_USERID$initializer$@@3P6AXXZA DD FLAT:??__ERMSG_GET_USERID@@YAXXZ ; RMSG_GET_USERID$initializer$
CRT$XCU	ENDS
CRT$XCU	SEGMENT
?RMSG_CHANGE_SKINCOLOR$initializer$@@3P6AXXZA DD FLAT:??__ERMSG_CHANGE_SKINCOLOR@@YAXXZ ; RMSG_CHANGE_SKINCOLOR$initializer$
CRT$XCU	ENDS
CRT$XCU	SEGMENT
?RMSG_GET_SKINCOLOR$initializer$@@3P6AXXZA DD FLAT:??__ERMSG_GET_SKINCOLOR@@YAXXZ ; RMSG_GET_SKINCOLOR$initializer$
CRT$XCU	ENDS
CRT$XCU	SEGMENT
?RMSG_CHANGEVERTSCALETYPE$initializer$@@3P6AXXZA DD FLAT:??__ERMSG_CHANGEVERTSCALETYPE@@YAXXZ ; RMSG_CHANGEVERTSCALETYPE$initializer$
CRT$XCU	ENDS
CRT$XCU	SEGMENT
?RMSG_CHANGE_CROSSLINE$initializer$@@3P6AXXZA DD FLAT:??__ERMSG_CHANGE_CROSSLINE@@YAXXZ ; RMSG_CHANGE_CROSSLINE$initializer$
CRT$XCU	ENDS
CRT$XCU	SEGMENT
?RMSG_ADD_PLATFORM_MENU$initializer$@@3P6AXXZA DD FLAT:??__ERMSG_ADD_PLATFORM_MENU@@YAXXZ ; RMSG_ADD_PLATFORM_MENU$initializer$
CRT$XCU	ENDS
CRT$XCU	SEGMENT
?RMSG_SETINITIALCHARTDATA$initializer$@@3P6AXXZA DD FLAT:??__ERMSG_SETINITIALCHARTDATA@@YAXXZ ; RMSG_SETINITIALCHARTDATA$initializer$
CRT$XCU	ENDS
CRT$XCU	SEGMENT
?RMSG_GETINFO$initializer$@@3P6AXXZA DD FLAT:??__ERMSG_GETINFO@@YAXXZ ; RMSG_GETINFO$initializer$
CRT$XCU	ENDS
CRT$XCU	SEGMENT
?RMSG_SETINFO$initializer$@@3P6AXXZA DD FLAT:??__ERMSG_SETINFO@@YAXXZ ; RMSG_SETINFO$initializer$
CRT$XCU	ENDS
CRT$XCU	SEGMENT
?RMSG_REPLAY_REAL$initializer$@@3P6AXXZA DD FLAT:??__ERMSG_REPLAY_REAL@@YAXXZ ; RMSG_REPLAY_REAL$initializer$
CRT$XCU	ENDS
CRT$XCU	SEGMENT
?RMSG_REPLAY_FAIL$initializer$@@3P6AXXZA DD FLAT:??__ERMSG_REPLAY_FAIL@@YAXXZ ; RMSG_REPLAY_FAIL$initializer$
CRT$XCU	ENDS
CRT$XCU	SEGMENT
?RMSG_REPLAY_CHANGE_DATE$initializer$@@3P6AXXZA DD FLAT:??__ERMSG_REPLAY_CHANGE_DATE@@YAXXZ ; RMSG_REPLAY_CHANGE_DATE$initializer$
CRT$XCU	ENDS
CRT$XCU	SEGMENT
?RMSG_REPLAY_END$initializer$@@3P6AXXZA DD FLAT:??__ERMSG_REPLAY_END@@YAXXZ ; RMSG_REPLAY_END$initializer$
CRT$XCU	ENDS
CRT$XCU	SEGMENT
?RMSG_REPLAY_INC_SEC$initializer$@@3P6AXXZA DD FLAT:??__ERMSG_REPLAY_INC_SEC@@YAXXZ ; RMSG_REPLAY_INC_SEC$initializer$
CRT$XCU	ENDS
CRT$XCU	SEGMENT
?RMSG_REPLAY_TOTAL_SEC$initializer$@@3P6AXXZA DD FLAT:??__ERMSG_REPLAY_TOTAL_SEC@@YAXXZ ; RMSG_REPLAY_TOTAL_SEC$initializer$
CRT$XCU	ENDS
; Function compile flags: /Ogtp
; File C:\Program Files (x86)\Microsoft Visual Studio\2019\Community\VC\Tools\MSVC\14.29.30133\atlmfc\include\atlcomcli.h
;	COMDAT ??_Estringdispid@CComTypeInfoHolder@ATL@@QAEPAXI@Z
_TEXT	SEGMENT
__$EHRec$ = -12						; size = 12
___flags$ = 8						; size = 4
??_Estringdispid@CComTypeInfoHolder@ATL@@QAEPAXI@Z PROC	; ATL::CComTypeInfoHolder::stringdispid::`vector deleting destructor', COMDAT
; _this$ = ecx
  00000	55		 push	 ebp
  00001	8b ec		 mov	 ebp, esp
  00003	6a ff		 push	 -1
  00005	68 00 00 00 00	 push	 __ehhandler$??_Estringdispid@CComTypeInfoHolder@ATL@@QAEPAXI@Z
  0000a	64 a1 00 00 00
	00		 mov	 eax, DWORD PTR fs:0
  00010	50		 push	 eax
  00011	53		 push	 ebx
  00012	56		 push	 esi
  00013	57		 push	 edi
  00014	a1 00 00 00 00	 mov	 eax, DWORD PTR ___security_cookie
  00019	33 c5		 xor	 eax, ebp
  0001b	50		 push	 eax
  0001c	8d 45 f4	 lea	 eax, DWORD PTR __$EHRec$[ebp]
  0001f	64 a3 00 00 00
	00		 mov	 DWORD PTR fs:0, eax
  00025	8b f1		 mov	 esi, ecx
  00027	8b 45 08	 mov	 eax, DWORD PTR ___flags$[ebp]
  0002a	8b d8		 mov	 ebx, eax
  0002c	83 e3 01	 and	 ebx, 1
  0002f	a8 02		 test	 al, 2
  00031	74 43		 je	 SHORT $LN2@vector
  00033	68 00 00 00 00	 push	 OFFSET ??1stringdispid@CComTypeInfoHolder@ATL@@QAE@XZ
  00038	ff 76 fc	 push	 DWORD PTR [esi-4]
  0003b	8d 7e fc	 lea	 edi, DWORD PTR [esi-4]
  0003e	6a 0c		 push	 12			; 0000000cH
  00040	56		 push	 esi
  00041	e8 00 00 00 00	 call	 ??_M@YGXPAXIIP6EX0@Z@Z
  00046	85 db		 test	 ebx, ebx
  00048	74 16		 je	 SHORT $LN3@vector
  0004a	8b 0f		 mov	 ecx, DWORD PTR [edi]
  0004c	8d 0c 49	 lea	 ecx, DWORD PTR [ecx+ecx*2]
  0004f	8d 0c 8d 04 00
	00 00		 lea	 ecx, DWORD PTR [ecx*4+4]
  00056	51		 push	 ecx
  00057	57		 push	 edi
  00058	e8 00 00 00 00	 call	 ??_V@YAXPAXI@Z		; operator delete[]
  0005d	83 c4 08	 add	 esp, 8
$LN3@vector:
  00060	8b c7		 mov	 eax, edi
  00062	8b 4d f4	 mov	 ecx, DWORD PTR __$EHRec$[ebp]
  00065	64 89 0d 00 00
	00 00		 mov	 DWORD PTR fs:0, ecx
  0006c	59		 pop	 ecx
  0006d	5f		 pop	 edi
  0006e	5e		 pop	 esi
  0006f	5b		 pop	 ebx
  00070	8b e5		 mov	 esp, ebp
  00072	5d		 pop	 ebp
  00073	c2 04 00	 ret	 4
$LN2@vector:

; 1680 :     ::SysFreeString(m_str);

  00076	ff 36		 push	 DWORD PTR [esi]
  00078	ff 15 00 00 00
	00		 call	 DWORD PTR __imp__SysFreeString@4
  0007e	85 db		 test	 ebx, ebx
  00080	74 0b		 je	 SHORT $LN4@vector
  00082	6a 0c		 push	 12			; 0000000cH
  00084	56		 push	 esi
  00085	e8 00 00 00 00	 call	 ??3@YAXPAXI@Z		; operator delete
  0008a	83 c4 08	 add	 esp, 8
$LN4@vector:
  0008d	8b c6		 mov	 eax, esi
  0008f	8b 4d f4	 mov	 ecx, DWORD PTR __$EHRec$[ebp]
  00092	64 89 0d 00 00
	00 00		 mov	 DWORD PTR fs:0, ecx
  00099	59		 pop	 ecx
  0009a	5f		 pop	 edi
  0009b	5e		 pop	 esi
  0009c	5b		 pop	 ebx
  0009d	8b e5		 mov	 esp, ebp
  0009f	5d		 pop	 ebp
  000a0	c2 04 00	 ret	 4
  000a3	cc		 int	 3
  000a4	cc		 int	 3
  000a5	cc		 int	 3
  000a6	cc		 int	 3
  000a7	cc		 int	 3
_TEXT	ENDS
;	COMDAT text$x
text$x	SEGMENT
__ehhandler$??_Estringdispid@CComTypeInfoHolder@ATL@@QAEPAXI@Z:
  00000	90		 npad	 1
  00001	90		 npad	 1
  00002	8b 54 24 08	 mov	 edx, DWORD PTR [esp+8]
  00006	8d 42 0c	 lea	 eax, DWORD PTR [edx+12]
  00009	8b 4a f0	 mov	 ecx, DWORD PTR [edx-16]
  0000c	33 c8		 xor	 ecx, eax
  0000e	e8 00 00 00 00	 call	 @__security_check_cookie@4
  00013	b8 00 00 00 00	 mov	 eax, OFFSET __ehfuncinfo$??_Estringdispid@CComTypeInfoHolder@ATL@@QAEPAXI@Z
  00018	e9 00 00 00 00	 jmp	 ___CxxFrameHandler3
text$x	ENDS
??_Estringdispid@CComTypeInfoHolder@ATL@@QAEPAXI@Z ENDP	; ATL::CComTypeInfoHolder::stringdispid::`vector deleting destructor'
; Function compile flags: /Ogtp
; File C:\Program Files (x86)\Microsoft Visual Studio\2019\Community\VC\Tools\MSVC\14.29.30133\atlmfc\include\atlcomcli.h
;	COMDAT ??1stringdispid@CComTypeInfoHolder@ATL@@QAE@XZ
_TEXT	SEGMENT
??1stringdispid@CComTypeInfoHolder@ATL@@QAE@XZ PROC	; ATL::CComTypeInfoHolder::stringdispid::~stringdispid, COMDAT
; _this$ = ecx

; 1680 :     ::SysFreeString(m_str);

  00000	ff 31		 push	 DWORD PTR [ecx]
  00002	ff 15 00 00 00
	00		 call	 DWORD PTR __imp__SysFreeString@4
  00008	c3		 ret	 0
??1stringdispid@CComTypeInfoHolder@ATL@@QAE@XZ ENDP	; ATL::CComTypeInfoHolder::stringdispid::~stringdispid
_TEXT	ENDS
; Function compile flags: /Ogtp
; File D:\git\src\IBK\IBK_DRFN\ProjSrc\SrcDrfn\Chart\chart_common\ReplayChartInfoDef.h
;	COMDAT ??__ERMSG_REPLAY_TOTAL_SEC@@YAXXZ
text$di	SEGMENT
??__ERMSG_REPLAY_TOTAL_SEC@@YAXXZ PROC			; `dynamic initializer for 'RMSG_REPLAY_TOTAL_SEC'', COMDAT

; 97   : 	const UINT RMSG_REPLAY_TOTAL_SEC = ::RegisterWindowMessage(_T("RMSG_REPLAY_TOTAL_SEC"));		//  () 

  00000	68 00 00 00 00	 push	 OFFSET ??_C@_0BG@GIAJEIJF@RMSG_REPLAY_TOTAL_SEC@
  00005	ff 15 00 00 00
	00		 call	 DWORD PTR __imp__RegisterWindowMessageA@4
  0000b	a3 00 00 00 00	 mov	 DWORD PTR ?RMSG_REPLAY_TOTAL_SEC@@3IB, eax
  00010	c3		 ret	 0
??__ERMSG_REPLAY_TOTAL_SEC@@YAXXZ ENDP			; `dynamic initializer for 'RMSG_REPLAY_TOTAL_SEC''
text$di	ENDS
; Function compile flags: /Ogtp
; File D:\git\src\IBK\IBK_DRFN\ProjSrc\SrcDrfn\Chart\chart_common\ReplayChartInfoDef.h
;	COMDAT ??__ERMSG_REPLAY_INC_SEC@@YAXXZ
text$di	SEGMENT
??__ERMSG_REPLAY_INC_SEC@@YAXXZ PROC			; `dynamic initializer for 'RMSG_REPLAY_INC_SEC'', COMDAT

; 96   : 	const UINT RMSG_REPLAY_INC_SEC = ::RegisterWindowMessage(_T("RMSG_REPLAY_INC_SEC"));			// 1   

  00000	68 00 00 00 00	 push	 OFFSET ??_C@_0BE@JFCIMCIP@RMSG_REPLAY_INC_SEC@
  00005	ff 15 00 00 00
	00		 call	 DWORD PTR __imp__RegisterWindowMessageA@4
  0000b	a3 00 00 00 00	 mov	 DWORD PTR ?RMSG_REPLAY_INC_SEC@@3IB, eax
  00010	c3		 ret	 0
??__ERMSG_REPLAY_INC_SEC@@YAXXZ ENDP			; `dynamic initializer for 'RMSG_REPLAY_INC_SEC''
text$di	ENDS
; Function compile flags: /Ogtp
; File D:\git\src\IBK\IBK_DRFN\ProjSrc\SrcDrfn\Chart\chart_common\ReplayChartInfoDef.h
;	COMDAT ??__ERMSG_REPLAY_END@@YAXXZ
text$di	SEGMENT
??__ERMSG_REPLAY_END@@YAXXZ PROC			; `dynamic initializer for 'RMSG_REPLAY_END'', COMDAT

; 95   : 	const UINT RMSG_REPLAY_END			= ::RegisterWindowMessage(_T("RMSG_REPLAY_END"));

  00000	68 00 00 00 00	 push	 OFFSET ??_C@_0BA@NKHHCPON@RMSG_REPLAY_END@
  00005	ff 15 00 00 00
	00		 call	 DWORD PTR __imp__RegisterWindowMessageA@4
  0000b	a3 00 00 00 00	 mov	 DWORD PTR ?RMSG_REPLAY_END@@3IB, eax
  00010	c3		 ret	 0
??__ERMSG_REPLAY_END@@YAXXZ ENDP			; `dynamic initializer for 'RMSG_REPLAY_END''
text$di	ENDS
; Function compile flags: /Ogtp
; File D:\git\src\IBK\IBK_DRFN\ProjSrc\SrcDrfn\Chart\chart_common\ReplayChartInfoDef.h
;	COMDAT ??__ERMSG_REPLAY_CHANGE_DATE@@YAXXZ
text$di	SEGMENT
??__ERMSG_REPLAY_CHANGE_DATE@@YAXXZ PROC		; `dynamic initializer for 'RMSG_REPLAY_CHANGE_DATE'', COMDAT

; 94   : 	const UINT RMSG_REPLAY_CHANGE_DATE	= ::RegisterWindowMessage(_T("RMSG_REPLAY_CHANGE_DATE"));

  00000	68 00 00 00 00	 push	 OFFSET ??_C@_0BI@KDGAIIMD@RMSG_REPLAY_CHANGE_DATE@
  00005	ff 15 00 00 00
	00		 call	 DWORD PTR __imp__RegisterWindowMessageA@4
  0000b	a3 00 00 00 00	 mov	 DWORD PTR ?RMSG_REPLAY_CHANGE_DATE@@3IB, eax
  00010	c3		 ret	 0
??__ERMSG_REPLAY_CHANGE_DATE@@YAXXZ ENDP		; `dynamic initializer for 'RMSG_REPLAY_CHANGE_DATE''
text$di	ENDS
; Function compile flags: /Ogtp
; File D:\git\src\IBK\IBK_DRFN\ProjSrc\SrcDrfn\Chart\chart_common\ReplayChartInfoDef.h
;	COMDAT ??__ERMSG_REPLAY_FAIL@@YAXXZ
text$di	SEGMENT
??__ERMSG_REPLAY_FAIL@@YAXXZ PROC			; `dynamic initializer for 'RMSG_REPLAY_FAIL'', COMDAT

; 93   : 	const UINT RMSG_REPLAY_FAIL			= ::RegisterWindowMessage(_T("RMSG_REPLAY_FAIL"));

  00000	68 00 00 00 00	 push	 OFFSET ??_C@_0BB@JFLGBADG@RMSG_REPLAY_FAIL@
  00005	ff 15 00 00 00
	00		 call	 DWORD PTR __imp__RegisterWindowMessageA@4
  0000b	a3 00 00 00 00	 mov	 DWORD PTR ?RMSG_REPLAY_FAIL@@3IB, eax
  00010	c3		 ret	 0
??__ERMSG_REPLAY_FAIL@@YAXXZ ENDP			; `dynamic initializer for 'RMSG_REPLAY_FAIL''
text$di	ENDS
; Function compile flags: /Ogtp
; File D:\git\src\IBK\IBK_DRFN\ProjSrc\SrcDrfn\Chart\chart_common\ReplayChartInfoDef.h
;	COMDAT ??__ERMSG_REPLAY_REAL@@YAXXZ
text$di	SEGMENT
??__ERMSG_REPLAY_REAL@@YAXXZ PROC			; `dynamic initializer for 'RMSG_REPLAY_REAL'', COMDAT

; 92   : 	const UINT RMSG_REPLAY_REAL			= ::RegisterWindowMessage(_T("RMSG_REPLAY_REAL"));

  00000	68 00 00 00 00	 push	 OFFSET ??_C@_0BB@IBKHOHJL@RMSG_REPLAY_REAL@
  00005	ff 15 00 00 00
	00		 call	 DWORD PTR __imp__RegisterWindowMessageA@4
  0000b	a3 00 00 00 00	 mov	 DWORD PTR ?RMSG_REPLAY_REAL@@3IB, eax
  00010	c3		 ret	 0
??__ERMSG_REPLAY_REAL@@YAXXZ ENDP			; `dynamic initializer for 'RMSG_REPLAY_REAL''
text$di	ENDS
; Function compile flags: /Ogtp
; File D:\git\src\IBK\IBK_DRFN\ProjSrc\SrcDrfn\Chart\MULTICHART\Define\ChartMsgDef.h
;	COMDAT ??__ERMSG_SETINFO@@YAXXZ
text$di	SEGMENT
??__ERMSG_SETINFO@@YAXXZ PROC				; `dynamic initializer for 'RMSG_SETINFO'', COMDAT

; 238  : const UINT RMSG_SETINFO = ::RegisterWindowMessage(_T("RMSG_SETINFO"));

  00000	68 00 00 00 00	 push	 OFFSET ??_C@_0N@HABLPHJG@RMSG_SETINFO@
  00005	ff 15 00 00 00
	00		 call	 DWORD PTR __imp__RegisterWindowMessageA@4
  0000b	a3 00 00 00 00	 mov	 DWORD PTR ?RMSG_SETINFO@@3IB, eax
  00010	c3		 ret	 0
??__ERMSG_SETINFO@@YAXXZ ENDP				; `dynamic initializer for 'RMSG_SETINFO''
text$di	ENDS
; Function compile flags: /Ogtp
; File D:\git\src\IBK\IBK_DRFN\ProjSrc\SrcDrfn\Chart\MULTICHART\Define\ChartMsgDef.h
;	COMDAT ??__ERMSG_GETINFO@@YAXXZ
text$di	SEGMENT
??__ERMSG_GETINFO@@YAXXZ PROC				; `dynamic initializer for 'RMSG_GETINFO'', COMDAT

; 237  : const UINT RMSG_GETINFO = ::RegisterWindowMessage(_T("RMSG_GETINFO"));

  00000	68 00 00 00 00	 push	 OFFSET ??_C@_0N@IIOKMIEH@RMSG_GETINFO@
  00005	ff 15 00 00 00
	00		 call	 DWORD PTR __imp__RegisterWindowMessageA@4
  0000b	a3 00 00 00 00	 mov	 DWORD PTR ?RMSG_GETINFO@@3IB, eax
  00010	c3		 ret	 0
??__ERMSG_GETINFO@@YAXXZ ENDP				; `dynamic initializer for 'RMSG_GETINFO''
text$di	ENDS
; Function compile flags: /Ogtp
; File D:\git\src\IBK\IBK_DRFN\ProjSrc\SrcDrfn\Chart\MULTICHART\Define\ChartMsgDef.h
;	COMDAT ??__ERMSG_SETINITIALCHARTDATA@@YAXXZ
text$di	SEGMENT
??__ERMSG_SETINITIALCHARTDATA@@YAXXZ PROC		; `dynamic initializer for 'RMSG_SETINITIALCHARTDATA'', COMDAT

; 235  : const UINT RMSG_SETINITIALCHARTDATA = ::RegisterWindowMessage(_T("RMSG_SETINITIALCHARTDATA"));

  00000	68 00 00 00 00	 push	 OFFSET ??_C@_0BJ@OGNAJHHI@RMSG_SETINITIALCHARTDATA@
  00005	ff 15 00 00 00
	00		 call	 DWORD PTR __imp__RegisterWindowMessageA@4
  0000b	a3 00 00 00 00	 mov	 DWORD PTR ?RMSG_SETINITIALCHARTDATA@@3IB, eax
  00010	c3		 ret	 0
??__ERMSG_SETINITIALCHARTDATA@@YAXXZ ENDP		; `dynamic initializer for 'RMSG_SETINITIALCHARTDATA''
text$di	ENDS
; Function compile flags: /Ogtp
; File D:\git\src\IBK\IBK_DRFN\ProjSrc\SrcDrfn\Chart\MULTICHART\Define\ChartMsgDef.h
;	COMDAT ??__ERMSG_ADD_PLATFORM_MENU@@YAXXZ
text$di	SEGMENT
??__ERMSG_ADD_PLATFORM_MENU@@YAXXZ PROC			; `dynamic initializer for 'RMSG_ADD_PLATFORM_MENU'', COMDAT

; 233  : const UINT RMSG_ADD_PLATFORM_MENU = ::RegisterWindowMessage(_T("RMSG_ADD_PLATFORM_MENU"));

  00000	68 00 00 00 00	 push	 OFFSET ??_C@_0BH@IFDMIMBP@RMSG_ADD_PLATFORM_MENU@
  00005	ff 15 00 00 00
	00		 call	 DWORD PTR __imp__RegisterWindowMessageA@4
  0000b	a3 00 00 00 00	 mov	 DWORD PTR ?RMSG_ADD_PLATFORM_MENU@@3IB, eax
  00010	c3		 ret	 0
??__ERMSG_ADD_PLATFORM_MENU@@YAXXZ ENDP			; `dynamic initializer for 'RMSG_ADD_PLATFORM_MENU''
text$di	ENDS
; Function compile flags: /Ogtp
; File D:\git\src\IBK\IBK_DRFN\ProjSrc\SrcDrfn\Chart\MULTICHART\Define\ChartMsgDef.h
;	COMDAT ??__ERMSG_CHANGE_CROSSLINE@@YAXXZ
text$di	SEGMENT
??__ERMSG_CHANGE_CROSSLINE@@YAXXZ PROC			; `dynamic initializer for 'RMSG_CHANGE_CROSSLINE'', COMDAT

; 231  : const UINT RMSG_CHANGE_CROSSLINE = ::RegisterWindowMessage(_T("RMSG_CHANGE_CROSSLINE"));

  00000	68 00 00 00 00	 push	 OFFSET ??_C@_0BG@LNLCJKPF@RMSG_CHANGE_CROSSLINE@
  00005	ff 15 00 00 00
	00		 call	 DWORD PTR __imp__RegisterWindowMessageA@4
  0000b	a3 00 00 00 00	 mov	 DWORD PTR ?RMSG_CHANGE_CROSSLINE@@3IB, eax
  00010	c3		 ret	 0
??__ERMSG_CHANGE_CROSSLINE@@YAXXZ ENDP			; `dynamic initializer for 'RMSG_CHANGE_CROSSLINE''
text$di	ENDS
; Function compile flags: /Ogtp
; File D:\git\src\IBK\IBK_DRFN\ProjSrc\SrcDrfn\Chart\MULTICHART\Define\ChartMsgDef.h
;	COMDAT ??__ERMSG_CHANGEVERTSCALETYPE@@YAXXZ
text$di	SEGMENT
??__ERMSG_CHANGEVERTSCALETYPE@@YAXXZ PROC		; `dynamic initializer for 'RMSG_CHANGEVERTSCALETYPE'', COMDAT

; 229  : const UINT RMSG_CHANGEVERTSCALETYPE = ::RegisterWindowMessage(_T("RMSG_CHANGEVERTSCALETYPE"));

  00000	68 00 00 00 00	 push	 OFFSET ??_C@_0BJ@JLKHIBIK@RMSG_CHANGEVERTSCALETYPE@
  00005	ff 15 00 00 00
	00		 call	 DWORD PTR __imp__RegisterWindowMessageA@4
  0000b	a3 00 00 00 00	 mov	 DWORD PTR ?RMSG_CHANGEVERTSCALETYPE@@3IB, eax
  00010	c3		 ret	 0
??__ERMSG_CHANGEVERTSCALETYPE@@YAXXZ ENDP		; `dynamic initializer for 'RMSG_CHANGEVERTSCALETYPE''
text$di	ENDS
; Function compile flags: /Ogtp
; File D:\git\src\IBK\IBK_DRFN\ProjSrc\SrcDrfn\Chart\MULTICHART\Define\ChartMsgDef.h
;	COMDAT ??__ERMSG_GET_SKINCOLOR@@YAXXZ
text$di	SEGMENT
??__ERMSG_GET_SKINCOLOR@@YAXXZ PROC			; `dynamic initializer for 'RMSG_GET_SKINCOLOR'', COMDAT

; 226  : const UINT RMSG_GET_SKINCOLOR = ::RegisterWindowMessage(_T("RMSG_GET_SKINCOLOR"));

  00000	68 00 00 00 00	 push	 OFFSET ??_C@_0BD@FLDNDDHK@RMSG_GET_SKINCOLOR@
  00005	ff 15 00 00 00
	00		 call	 DWORD PTR __imp__RegisterWindowMessageA@4
  0000b	a3 00 00 00 00	 mov	 DWORD PTR ?RMSG_GET_SKINCOLOR@@3IB, eax
  00010	c3		 ret	 0
??__ERMSG_GET_SKINCOLOR@@YAXXZ ENDP			; `dynamic initializer for 'RMSG_GET_SKINCOLOR''
text$di	ENDS
; Function compile flags: /Ogtp
; File D:\git\src\IBK\IBK_DRFN\ProjSrc\SrcDrfn\Chart\MULTICHART\Define\ChartMsgDef.h
;	COMDAT ??__ERMSG_CHANGE_SKINCOLOR@@YAXXZ
text$di	SEGMENT
??__ERMSG_CHANGE_SKINCOLOR@@YAXXZ PROC			; `dynamic initializer for 'RMSG_CHANGE_SKINCOLOR'', COMDAT

; 225  : const UINT RMSG_CHANGE_SKINCOLOR = ::RegisterWindowMessage(_T("RMSG_CHANGE_SKINCOLOR"));

  00000	68 00 00 00 00	 push	 OFFSET ??_C@_0BG@CNPAHNGG@RMSG_CHANGE_SKINCOLOR@
  00005	ff 15 00 00 00
	00		 call	 DWORD PTR __imp__RegisterWindowMessageA@4
  0000b	a3 00 00 00 00	 mov	 DWORD PTR ?RMSG_CHANGE_SKINCOLOR@@3IB, eax
  00010	c3		 ret	 0
??__ERMSG_CHANGE_SKINCOLOR@@YAXXZ ENDP			; `dynamic initializer for 'RMSG_CHANGE_SKINCOLOR''
text$di	ENDS
; Function compile flags: /Ogtp
; File D:\git\src\IBK\IBK_DRFN\ProjSrc\SrcDrfn\Chart\MULTICHART\Define\ChartMsgDef.h
;	COMDAT ??__ERMSG_GET_USERID@@YAXXZ
text$di	SEGMENT
??__ERMSG_GET_USERID@@YAXXZ PROC			; `dynamic initializer for 'RMSG_GET_USERID'', COMDAT

; 215  : const UINT RMSG_GET_USERID = ::RegisterWindowMessage(_T("RMSG_GET_USERID"));	// User ID 

  00000	68 00 00 00 00	 push	 OFFSET ??_C@_0BA@HKNFENJL@RMSG_GET_USERID@
  00005	ff 15 00 00 00
	00		 call	 DWORD PTR __imp__RegisterWindowMessageA@4
  0000b	a3 00 00 00 00	 mov	 DWORD PTR ?RMSG_GET_USERID@@3IB, eax
  00010	c3		 ret	 0
??__ERMSG_GET_USERID@@YAXXZ ENDP			; `dynamic initializer for 'RMSG_GET_USERID''
text$di	ENDS
; Function compile flags: /Ogtp
; File D:\git\src\IBK\IBK_DRFN\ProjSrc\SrcDrfn\Chart\MULTICHART\Define\ChartMsgDef.h
;	COMDAT ??__ERMS_ANALYSIS_FUNC@@YAXXZ
text$di	SEGMENT
??__ERMS_ANALYSIS_FUNC@@YAXXZ PROC			; `dynamic initializer for 'RMS_ANALYSIS_FUNC'', COMDAT

; 211  : const UINT RMS_ANALYSIS_FUNC	= ::RegisterWindowMessage(_T("RMS_ANALYSIS_FUNC"));

  00000	68 00 00 00 00	 push	 OFFSET ??_C@_0BC@MMPGLPDH@RMS_ANALYSIS_FUNC@
  00005	ff 15 00 00 00
	00		 call	 DWORD PTR __imp__RegisterWindowMessageA@4
  0000b	a3 00 00 00 00	 mov	 DWORD PTR ?RMS_ANALYSIS_FUNC@@3IB, eax
  00010	c3		 ret	 0
??__ERMS_ANALYSIS_FUNC@@YAXXZ ENDP			; `dynamic initializer for 'RMS_ANALYSIS_FUNC''
text$di	ENDS
; Function compile flags: /Ogtp
; File D:\git\src\IBK\IBK_DRFN\ProjSrc\SrcDrfn\Chart\MULTICHART\Define\ChartMsgDef.h
;	COMDAT ??__ERMSG_CHARTMAIN@@YAXXZ
text$di	SEGMENT
??__ERMSG_CHARTMAIN@@YAXXZ PROC				; `dynamic initializer for 'RMSG_CHARTMAIN'', COMDAT

; 208  : const UINT RMSG_CHARTMAIN		= ::RegisterWindowMessage(_T("RMSG_CHARTMAIN"));

  00000	68 00 00 00 00	 push	 OFFSET ??_C@_0P@KHFCBIOH@RMSG_CHARTMAIN@
  00005	ff 15 00 00 00
	00		 call	 DWORD PTR __imp__RegisterWindowMessageA@4
  0000b	a3 00 00 00 00	 mov	 DWORD PTR ?RMSG_CHARTMAIN@@3IB, eax
  00010	c3		 ret	 0
??__ERMSG_CHARTMAIN@@YAXXZ ENDP				; `dynamic initializer for 'RMSG_CHARTMAIN''
text$di	ENDS
; Function compile flags: /Ogtp
; File D:\git\src\IBK\IBK_DRFN\ProjSrc\SrcDrfn\Chart\MULTICHART\Define\ChartMsgDef.h
;	COMDAT ??__ERMSG_SETQUERYOPT@@YAXXZ
text$di	SEGMENT
??__ERMSG_SETQUERYOPT@@YAXXZ PROC			; `dynamic initializer for 'RMSG_SETQUERYOPT'', COMDAT

; 183  : const UINT RMSG_SETQUERYOPT = ::RegisterWindowMessage(_T("RMSG_SETQUERYOPT"));

  00000	68 00 00 00 00	 push	 OFFSET ??_C@_0BB@CNOFPEHG@RMSG_SETQUERYOPT@
  00005	ff 15 00 00 00
	00		 call	 DWORD PTR __imp__RegisterWindowMessageA@4
  0000b	a3 00 00 00 00	 mov	 DWORD PTR ?RMSG_SETQUERYOPT@@3IB, eax
  00010	c3		 ret	 0
??__ERMSG_SETQUERYOPT@@YAXXZ ENDP			; `dynamic initializer for 'RMSG_SETQUERYOPT''
text$di	ENDS
; Function compile flags: /Ogtp
; File D:\git\src\IBK\IBK_DRFN\ProjSrc\SrcDrfn\Chart\commontr\TRDefine.h
;	COMDAT ??__ERMSG_GETSIGNAL_REAL@@YAXXZ
text$di	SEGMENT
??__ERMSG_GETSIGNAL_REAL@@YAXXZ PROC			; `dynamic initializer for 'RMSG_GETSIGNAL_REAL'', COMDAT

; 213  : const UINT RMSG_GETSIGNAL_REAL = ::RegisterWindowMessage(_T("RMSG_GETSIGNAL_REAL"));

  00000	68 00 00 00 00	 push	 OFFSET ??_C@_0BE@FJPKENOB@RMSG_GETSIGNAL_REAL@
  00005	ff 15 00 00 00
	00		 call	 DWORD PTR __imp__RegisterWindowMessageA@4
  0000b	a3 00 00 00 00	 mov	 DWORD PTR ?RMSG_GETSIGNAL_REAL@@3IB, eax
  00010	c3		 ret	 0
??__ERMSG_GETSIGNAL_REAL@@YAXXZ ENDP			; `dynamic initializer for 'RMSG_GETSIGNAL_REAL''
text$di	ENDS
; Function compile flags: /Ogtp
; File D:\git\src\IBK\IBK_DRFN\ProjSrc\SrcDrfn\Chart\Common_ST\STTreeCtrl.h
;	COMDAT ??__ERMSG_STTREE_ITEMDBLCLK@@YAXXZ
text$di	SEGMENT
??__ERMSG_STTREE_ITEMDBLCLK@@YAXXZ PROC			; `dynamic initializer for 'RMSG_STTREE_ITEMDBLCLK'', COMDAT

; 12   : const UINT RMSG_STTREE_ITEMDBLCLK	= ::RegisterWindowMessage("RMSG_STTREE_ITEMDBLCLK");

  00000	68 00 00 00 00	 push	 OFFSET ??_C@_0BH@LAAMLACL@RMSG_STTREE_ITEMDBLCLK@
  00005	ff 15 00 00 00
	00		 call	 DWORD PTR __imp__RegisterWindowMessageA@4
  0000b	a3 00 00 00 00	 mov	 DWORD PTR ?RMSG_STTREE_ITEMDBLCLK@@3IB, eax
  00010	c3		 ret	 0
??__ERMSG_STTREE_ITEMDBLCLK@@YAXXZ ENDP			; `dynamic initializer for 'RMSG_STTREE_ITEMDBLCLK''
text$di	ENDS
; Function compile flags: /Ogtp
; File D:\git\src\IBK\IBK_DRFN\ProjSrc\SrcDrfn\Chart\Common_ST\STTreeCtrl.h
;	COMDAT ??__ERMSG_STTREE_ITEMCLICK@@YAXXZ
text$di	SEGMENT
??__ERMSG_STTREE_ITEMCLICK@@YAXXZ PROC			; `dynamic initializer for 'RMSG_STTREE_ITEMCLICK'', COMDAT

; 11   : const UINT RMSG_STTREE_ITEMCLICK	= ::RegisterWindowMessage("RMSG_STTREE_ITEMCLICK");

  00000	68 00 00 00 00	 push	 OFFSET ??_C@_0BG@OHIMHJEO@RMSG_STTREE_ITEMCLICK@
  00005	ff 15 00 00 00
	00		 call	 DWORD PTR __imp__RegisterWindowMessageA@4
  0000b	a3 00 00 00 00	 mov	 DWORD PTR ?RMSG_STTREE_ITEMCLICK@@3IB, eax
  00010	c3		 ret	 0
??__ERMSG_STTREE_ITEMCLICK@@YAXXZ ENDP			; `dynamic initializer for 'RMSG_STTREE_ITEMCLICK''
text$di	ENDS
; Function compile flags: /Ogtp
; File D:\git\src\IBK\IBK_DRFN\ProjSrc\SrcDrfn\Chart\MULTICHART\DlgSTExOption.cpp
; File C:\Program Files (x86)\Microsoft Visual Studio\2019\Community\VC\Tools\MSVC\14.29.30133\atlmfc\include\afx.inl
;	COMDAT ??_GCDlgSTExOption@@UAEPAXI@Z
_TEXT	SEGMENT
___flags$ = 8						; size = 4
??_GCDlgSTExOption@@UAEPAXI@Z PROC			; CDlgSTExOption::`scalar deleting destructor', COMDAT
; _this$ = ecx
  00000	55		 push	 ebp
  00001	8b ec		 mov	 ebp, esp
; File D:\git\src\IBK\IBK_DRFN\ProjSrc\SrcDrfn\Chart\MULTICHART\DlgSTExOption.cpp

; 32   : {

  00003	56		 push	 esi
  00004	8b f1		 mov	 esi, ecx

; 33   : }

  00006	8d 8e 90 06 00
	00		 lea	 ecx, DWORD PTR [esi+1680]
  0000c	c7 06 00 00 00
	00		 mov	 DWORD PTR [esi], OFFSET ??_7CDlgSTExOption@@6B@
  00012	e8 00 00 00 00	 call	 ??1CILButton@@UAE@XZ	; CILButton::~CILButton
  00017	8d 8e 30 05 00
	00		 lea	 ecx, DWORD PTR [esi+1328]
  0001d	e8 00 00 00 00	 call	 ??1CILButton@@UAE@XZ	; CILButton::~CILButton
  00022	8d 8e d0 03 00
	00		 lea	 ecx, DWORD PTR [esi+976]
  00028	e8 00 00 00 00	 call	 ??1CILButton@@UAE@XZ	; CILButton::~CILButton
  0002d	8d 8e c0 01 00
	00		 lea	 ecx, DWORD PTR [esi+448]
  00033	e8 00 00 00 00	 call	 ??1CXListCtrl@@UAE@XZ	; CXListCtrl::~CXListCtrl
  00038	8d 8e 38 01 00
	00		 lea	 ecx, DWORD PTR [esi+312]
  0003e	e8 00 00 00 00	 call	 ??1CExComboBox@@UAE@XZ	; CExComboBox::~CExComboBox
  00043	8d 8e b0 00 00
	00		 lea	 ecx, DWORD PTR [esi+176]
  00049	e8 00 00 00 00	 call	 ??1CExComboBox@@UAE@XZ	; CExComboBox::~CExComboBox
  0004e	8b ce		 mov	 ecx, esi
  00050	e8 00 00 00 00	 call	 ??1CDialog@@UAE@XZ	; CDialog::~CDialog
  00055	8b 45 08	 mov	 eax, DWORD PTR ___flags$[ebp]
  00058	a8 01		 test	 al, 1
  0005a	74 22		 je	 SHORT $LN12@scalar
  0005c	a8 04		 test	 al, 4
  0005e	75 10		 jne	 SHORT $LN3@scalar
; File C:\Program Files (x86)\Microsoft Visual Studio\2019\Community\VC\Tools\MSVC\14.29.30133\atlmfc\include\afx.inl

; 112  : 	{ ::operator delete(p); }

  00060	56		 push	 esi
  00061	e8 00 00 00 00	 call	 ??3@YAXPAX@Z		; operator delete
  00066	83 c4 04	 add	 esp, 4
  00069	8b c6		 mov	 eax, esi
  0006b	5e		 pop	 esi
  0006c	5d		 pop	 ebp
  0006d	c2 04 00	 ret	 4
$LN3@scalar:
  00070	68 10 08 00 00	 push	 2064			; 00000810H
  00075	56		 push	 esi
  00076	e8 00 00 00 00	 call	 ?__global_delete@@YAXPAXI@Z ; __global_delete
  0007b	83 c4 08	 add	 esp, 8
$LN12@scalar:
  0007e	8b c6		 mov	 eax, esi
  00080	5e		 pop	 esi
  00081	5d		 pop	 ebp
  00082	c2 04 00	 ret	 4
??_GCDlgSTExOption@@UAEPAXI@Z ENDP			; CDlgSTExOption::`scalar deleting destructor'
_TEXT	ENDS
; Function compile flags: /Ogtp
; File D:\git\src\IBK\IBK_DRFN\ProjSrc\SrcDrfn\Chart\MULTICHART\DlgSTExOption.cpp
;	COMDAT ?OnDestroy@CDlgSTExOption@@QAEXXZ
_TEXT	SEGMENT
?OnDestroy@CDlgSTExOption@@QAEXXZ PROC			; CDlgSTExOption::OnDestroy, COMDAT
; _this$ = ecx

; 423  : {

  00000	56		 push	 esi
  00001	8b f1		 mov	 esi, ecx

; 424  : 	CDialog::OnDestroy();

  00003	e8 00 00 00 00	 call	 ?OnDestroy@CWnd@@IAEXXZ	; CWnd::OnDestroy

; 425  : 
; 426  : 	if(m_pDlgAnalysis)

  00008	8b 8e 08 08 00
	00		 mov	 ecx, DWORD PTR [esi+2056]
  0000e	85 c9		 test	 ecx, ecx
  00010	74 20		 je	 SHORT $LN2@OnDestroy

; 427  : 	{
; 428  : 		m_pDlgAnalysis->DestroyWindow();

  00012	8b 01		 mov	 eax, DWORD PTR [ecx]
  00014	ff 50 68	 call	 DWORD PTR [eax+104]

; 429  : 		delete m_pDlgAnalysis;

  00017	8b 8e 08 08 00
	00		 mov	 ecx, DWORD PTR [esi+2056]
  0001d	85 c9		 test	 ecx, ecx
  0001f	74 07		 je	 SHORT $LN6@OnDestroy
  00021	8b 01		 mov	 eax, DWORD PTR [ecx]
  00023	6a 01		 push	 1
  00025	ff 50 04	 call	 DWORD PTR [eax+4]
$LN6@OnDestroy:

; 430  : 		m_pDlgAnalysis = NULL;

  00028	c7 86 08 08 00
	00 00 00 00 00	 mov	 DWORD PTR [esi+2056], 0
$LN2@OnDestroy:

; 431  : 	}
; 432  : 
; 433  : 	if(m_hTradeInst!=NULL)

  00032	8b 86 00 08 00
	00		 mov	 eax, DWORD PTR [esi+2048]
  00038	85 c0		 test	 eax, eax
  0003a	74 2d		 je	 SHORT $LN3@OnDestroy

; 434  : 	{
; 435  : 		if(m_pWndTrader)

  0003c	83 be a8 00 00
	00 00		 cmp	 DWORD PTR [esi+168], 0
  00043	74 1d		 je	 SHORT $LN4@OnDestroy

; 436  : 		{
; 437  : 			FPSA_Delete* pDeleteFunc = (FPSA_Delete*)GetProcAddress(m_hTradeInst,_T("DESTROY_TRADING"));

  00045	68 00 00 00 00	 push	 OFFSET ??_C@_0BA@NAEFDOEC@DESTROY_TRADING@
  0004a	50		 push	 eax
  0004b	ff 15 00 00 00
	00		 call	 DWORD PTR __imp__GetProcAddress@8

; 438  : 			pDeleteFunc(m_pWndTrader);

  00051	ff b6 a8 00 00
	00		 push	 DWORD PTR [esi+168]
  00057	ff d0		 call	 eax
  00059	8b 86 00 08 00
	00		 mov	 eax, DWORD PTR [esi+2048]
  0005f	83 c4 04	 add	 esp, 4
$LN4@OnDestroy:

; 439  : 		}
; 440  : 		FreeLibrary(m_hTradeInst);

  00062	50		 push	 eax
  00063	ff 15 00 00 00
	00		 call	 DWORD PTR __imp__FreeLibrary@4
$LN3@OnDestroy:

; 441  : 	}
; 442  : 	//if(m_pWndTrader)
; 443  : 	//{
; 444  : 	//	LPCSTR strTradingName = "HWStrategyAnalysis.dll";
; 445  : 
; 446  : 	//	HINSTANCE hTradeInst = LoadLibrary(strTradingName);
; 447  : 
; 448  : 	//	FPSA_Delete* pDeleteFunc = (FPSA_Delete*)GetProcAddress(hTradeInst,_T("DESTROY_TRADING"));
; 449  : 	//	pDeleteFunc(m_pWndTrader);
; 450  : 	//	FreeLibrary(hTradeInst);
; 451  : 	//}
; 452  : 	m_CtlList.DeleteAllItems();

  00069	8d 8e c0 01 00
	00		 lea	 ecx, DWORD PTR [esi+448]
  0006f	5e		 pop	 esi
  00070	e9 00 00 00 00	 jmp	 ?DeleteAllItems@CXListCtrl@@QAEHXZ ; CXListCtrl::DeleteAllItems
?OnDestroy@CDlgSTExOption@@QAEXXZ ENDP			; CDlgSTExOption::OnDestroy
_TEXT	ENDS
; Function compile flags: /Ogtp
; File D:\git\src\IBK\IBK_DRFN\ProjSrc\SrcDrfn\Chart\MULTICHART\DlgSTExOption.cpp
; File C:\Program Files (x86)\Microsoft Visual Studio\2019\Community\VC\Tools\MSVC\14.29.30133\atlmfc\include\afxwin2.inl
; File D:\git\src\IBK\IBK_DRFN\ProjSrc\SrcDrfn\Chart\MULTICHART\DlgSTExOption.cpp
; File C:\Program Files (x86)\Microsoft Visual Studio\2019\Community\VC\Tools\MSVC\14.29.30133\atlmfc\include\atlsimpstr.h
; File D:\git\src\IBK\IBK_DRFN\ProjSrc\SrcDrfn\Chart\MULTICHART\DlgSTExOption.cpp
;	COMDAT ?OnBnClickedStapply@CDlgSTExOption@@QAEXXZ
_TEXT	SEGMENT
_szDllName$ = -24					; size = 4
_strMsg$2 = -20						; size = 4
_strSTPath$3 = -16					; size = 4
__$EHRec$ = -12						; size = 12
?OnBnClickedStapply@CDlgSTExOption@@QAEXXZ PROC		; CDlgSTExOption::OnBnClickedStapply, COMDAT
; _this$ = ecx

; 259  : {

  00000	55		 push	 ebp
  00001	8b ec		 mov	 ebp, esp
  00003	6a ff		 push	 -1
  00005	68 00 00 00 00	 push	 __ehhandler$?OnBnClickedStapply@CDlgSTExOption@@QAEXXZ
  0000a	64 a1 00 00 00
	00		 mov	 eax, DWORD PTR fs:0
  00010	50		 push	 eax
  00011	83 ec 0c	 sub	 esp, 12			; 0000000cH
  00014	53		 push	 ebx
  00015	56		 push	 esi
  00016	57		 push	 edi
  00017	a1 00 00 00 00	 mov	 eax, DWORD PTR ___security_cookie
  0001c	33 c5		 xor	 eax, ebp
  0001e	50		 push	 eax
  0001f	8d 45 f4	 lea	 eax, DWORD PTR __$EHRec$[ebp]
  00022	64 a3 00 00 00
	00		 mov	 DWORD PTR fs:0, eax
  00028	8b f9		 mov	 edi, ecx
; File C:\Program Files (x86)\Microsoft Visual Studio\2019\Community\VC\Tools\MSVC\14.29.30133\atlmfc\include\afxwin2.inl

; 213  : 	{ ASSERT(::IsWindow(m_hWnd)); return CWnd::FromHandle(::GetParent(m_hWnd)); }

  0002a	ff 77 20	 push	 DWORD PTR [edi+32]
  0002d	ff 15 00 00 00
	00		 call	 DWORD PTR __imp__GetParent@4
  00033	50		 push	 eax
  00034	e8 00 00 00 00	 call	 ?FromHandle@CWnd@@SGPAV1@PAUHWND__@@@Z ; CWnd::FromHandle
; File D:\git\src\IBK\IBK_DRFN\ProjSrc\SrcDrfn\Chart\MULTICHART\DlgSTExOption.cpp

; 260  : 	CTabSystemTradingEx* pParentDlg = (CTabSystemTradingEx*)GetParent();

  00039	8b f0		 mov	 esi, eax

; 261  : 	if(pParentDlg->m_xSTAnalysisInput.m_InfoForAnalysis.szSTRData.CompareNoCase("")==0 ||

  0003b	68 00 00 00 00	 push	 OFFSET ??_C@_0L@DLNLHHBM@?$LL?g?$LP?k?$MA?Z?A?v?G?$KF@
  00040	8d 8e 90 09 00
	00		 lea	 ecx, DWORD PTR [esi+2448]
  00046	ff 15 00 00 00
	00		 call	 DWORD PTR __imp_?CompareNoCase@?$CStringT@DV?$StrTraitMFC_DLL@DV?$ChTraitsCRT@D@ATL@@@@@ATL@@QBEHPBD@Z
  0004c	85 c0		 test	 eax, eax
  0004e	0f 84 c4 01 00
	00		 je	 $LN3@OnBnClicke
  00054	6a 00		 push	 0
  00056	68 00 00 00 00	 push	 OFFSET ??_C@_08BHLLDOMG@?$LA?$KN?$LM?$LM?$LO?$OA?$LM?$LM@
  0005b	8d 8e 90 09 00
	00		 lea	 ecx, DWORD PTR [esi+2448]
  00061	ff 15 00 00 00
	00		 call	 DWORD PTR __imp_?Find@?$CStringT@DV?$StrTraitMFC_DLL@DV?$ChTraitsCRT@D@ATL@@@@@ATL@@QBEHPBDH@Z
  00067	85 c0		 test	 eax, eax
  00069	0f 89 a9 01 00
	00		 jns	 $LN3@OnBnClicke

; 265  : 		return;
; 266  : 	}
; 267  : 
; 268  : 	if(pParentDlg->m_xSTAnalysisInput.GetCount()==0)

  0006f	8b 8e 74 09 00
	00		 mov	 ecx, DWORD PTR [esi+2420]
  00075	8d 86 74 09 00
	00		 lea	 eax, DWORD PTR [esi+2420]
  0007b	50		 push	 eax
  0007c	ff 51 20	 call	 DWORD PTR [ecx+32]
  0007f	85 c0		 test	 eax, eax
  00081	75 0c		 jne	 SHORT $LN4@OnBnClicke

; 269  : 	{
; 270  : 		AfxMessageBox("  .");

  00083	50		 push	 eax
  00084	50		 push	 eax
  00085	68 00 00 00 00	 push	 OFFSET ??_C@_0BI@PFKPIPEB@?A?$LO?$LI?q?A?$LG?H?$LI?5?H?D?5?$LA?$KB?$LE?I?G?U?$LE?O?$LE?Y?4@

; 271  : 		return;

  0008a	e9 92 01 00 00	 jmp	 $LN30@OnBnClicke
$LN4@OnBnClicke:

; 272  : 	}
; 273  : 	//KHD 
; 274  : 	BOOL bSel = pParentDlg->IsSTSelected();

  0008f	8b ce		 mov	 ecx, esi
  00091	e8 00 00 00 00	 call	 ?IsSTSelected@CTabSystemTradingEx@@QAEHXZ ; CTabSystemTradingEx::IsSTSelected

; 275  : 	if(!bSel)

  00096	85 c0		 test	 eax, eax
  00098	75 0c		 jne	 SHORT $LN5@OnBnClicke

; 276  : 	{
; 277  : 		AfxMessageBox("   ");

  0009a	50		 push	 eax
  0009b	50		 push	 eax
  0009c	68 00 00 00 00	 push	 OFFSET ??_C@_0CE@LIBOKAIK@?$MA?$PL?$LP?k?G?R?5?$MA?$PM?$LH?$KL?$MA?$LL?5?$LM?$LB?E?C?G?X?A?V?$LN?C?$LB?b?5?$LJ?Y?$LG?x@

; 278  : 		return;

  000a1	e9 7b 01 00 00	 jmp	 $LN30@OnBnClicke
$LN5@OnBnClicke:

; 279  : 	}
; 280  : 	//END 
; 281  : 
; 282  : 	if(pParentDlg->CanSTModule()==FALSE) return;

  000a6	8b ce		 mov	 ecx, esi
  000a8	e8 00 00 00 00	 call	 ?CanSTModule@CTabSystemTradingEx@@QAEHXZ ; CTabSystemTradingEx::CanSTModule
  000ad	85 c0		 test	 eax, eax
  000af	0f 84 71 01 00
	00		 je	 $LN1@OnBnClicke

; 283  : 
; 284  : 	CChartItem* pCItem = ((CChartMng*)pParentDlg->m_pChartMng)->GetpChartItemSelected();

  000b5	8b 8e c4 00 00
	00		 mov	 ecx, DWORD PTR [esi+196]
  000bb	e8 00 00 00 00	 call	 ?GetpChartItemSelected@CChartMng@@QAEPAVCChartItem@@XZ ; CChartMng::GetpChartItemSelected
  000c0	8b d8		 mov	 ebx, eax

; 285  : 	if(pCItem)

  000c2	85 db		 test	 ebx, ebx
  000c4	74 7f		 je	 SHORT $LN7@OnBnClicke

; 286  : 	{
; 287  : 		//    
; 288  : 		CString strSTPath;

  000c6	8d 4d f0	 lea	 ecx, DWORD PTR _strSTPath$3[ebp]
  000c9	ff 15 00 00 00
	00		 call	 DWORD PTR __imp_??0?$CStringT@DV?$StrTraitMFC_DLL@DV?$ChTraitsCRT@D@ATL@@@@@ATL@@QAE@XZ

; 289  : 		pCItem->InvokeAddInSTIndex("ChartSTIndexAddIn.dll", 8, (long)&strSTPath);

  000cf	8d 45 f0	 lea	 eax, DWORD PTR _strSTPath$3[ebp]
  000d2	c7 45 fc 00 00
	00 00		 mov	 DWORD PTR __$EHRec$[ebp+8], 0
  000d9	50		 push	 eax
  000da	6a 08		 push	 8
  000dc	68 00 00 00 00	 push	 OFFSET ??_C@_0BG@CHJJKIAP@ChartSTIndexAddIn?4dll@
  000e1	8b cb		 mov	 ecx, ebx
  000e3	e8 00 00 00 00	 call	 ?InvokeAddInSTIndex@CChartItem@@QAEHPBDFJ@Z ; CChartItem::InvokeAddInSTIndex
; File C:\Program Files (x86)\Microsoft Visual Studio\2019\Community\VC\Tools\MSVC\14.29.30133\atlmfc\include\atlsimpstr.h

; 519  : 		return( GetData()->nDataLength );

  000e8	8b 45 f0	 mov	 eax, DWORD PTR _strSTPath$3[ebp]
; File D:\git\src\IBK\IBK_DRFN\ProjSrc\SrcDrfn\Chart\MULTICHART\DlgSTExOption.cpp

; 291  : 		if(strSTPath.GetLength() && strSTPath.Find(".ST") > 0)

  000eb	83 78 f4 00	 cmp	 DWORD PTR [eax-12], 0
  000ef	74 4b		 je	 SHORT $LN8@OnBnClicke
  000f1	6a 00		 push	 0
  000f3	68 00 00 00 00	 push	 OFFSET ??_C@_03COHLPAFH@?4ST@
  000f8	8d 4d f0	 lea	 ecx, DWORD PTR _strSTPath$3[ebp]
  000fb	ff 15 00 00 00
	00		 call	 DWORD PTR __imp_?Find@?$CStringT@DV?$StrTraitMFC_DLL@DV?$ChTraitsCRT@D@ATL@@@@@ATL@@QBEHPBDH@Z
  00101	85 c0		 test	 eax, eax
  00103	7e 37		 jle	 SHORT $LN8@OnBnClicke

; 292  : 		{
; 293  : 			CString strMsg("      .\n\n ?");

  00105	68 00 00 00 00	 push	 OFFSET ??_C@_0FI@MIHHDMHK@?$LM?$LK?$LA?z?$LK?P?$LM?$KO?$MA?$LK?5?G?v?$MA?g?5?$LP?n?$LP?k?A?$NP?$MA?N?5?$MA?$PM?$LH?$KL?$MA?$LL@
  0010a	8d 4d ec	 lea	 ecx, DWORD PTR _strMsg$2[ebp]
  0010d	ff 15 00 00 00
	00		 call	 DWORD PTR __imp_??0?$CStringT@DV?$StrTraitMFC_DLL@DV?$ChTraitsCRT@D@ATL@@@@@ATL@@QAE@PBD@Z

; 294  : 			if(IDYES == AfxMessageBox(strMsg, MB_YESNO))

  00113	6a 00		 push	 0
  00115	6a 04		 push	 4
  00117	ff 75 ec	 push	 DWORD PTR _strMsg$2[ebp]
  0011a	c6 45 fc 01	 mov	 BYTE PTR __$EHRec$[ebp+8], 1
  0011e	e8 00 00 00 00	 call	 ?AfxMessageBox@@YGHPBDII@Z ; AfxMessageBox
  00123	83 f8 06	 cmp	 eax, 6
  00126	0f 85 c8 00 00
	00		 jne	 $LN9@OnBnClicke

; 295  : 			{
; 296  : 				pParentDlg->STClear();

  0012c	8b ce		 mov	 ecx, esi
  0012e	e8 00 00 00 00	 call	 ?STClear@CTabSystemTradingEx@@QAEXXZ ; CTabSystemTradingEx::STClear

; 301  : 			}
; 302  : 		}

  00133	8d 4d ec	 lea	 ecx, DWORD PTR _strMsg$2[ebp]
  00136	ff 15 00 00 00
	00		 call	 DWORD PTR __imp_??1?$CStringT@DV?$StrTraitMFC_DLL@DV?$ChTraitsCRT@D@ATL@@@@@ATL@@QAE@XZ
$LN8@OnBnClicke:

; 303  : 	
; 304  : 	}

  0013c	8d 4d f0	 lea	 ecx, DWORD PTR _strSTPath$3[ebp]
  0013f	ff 15 00 00 00
	00		 call	 DWORD PTR __imp_??1?$CStringT@DV?$StrTraitMFC_DLL@DV?$ChTraitsCRT@D@ATL@@@@@ATL@@QAE@XZ
$LN7@OnBnClicke:

; 305  : 
; 306  : 	m_bIsApplyBtn = TRUE;
; 307  : 	LPCSTR strTradingName = "HWStrategyAnalysis.dll";
; 308  : 	CString szDllName;

  00145	8d 4d e8	 lea	 ecx, DWORD PTR _szDllName$[ebp]
  00148	c7 87 04 08 00
	00 01 00 00 00	 mov	 DWORD PTR [edi+2052], 1
  00152	ff 15 00 00 00
	00		 call	 DWORD PTR __imp_??0?$CStringT@DV?$StrTraitMFC_DLL@DV?$ChTraitsCRT@D@ATL@@@@@ATL@@QAE@XZ

; 309  : 	szDllName.Format("%s%s", pParentDlg->m_szRootDir, "\\Dev\\HWStrategyAnalysis");	// DLL .

  00158	68 00 00 00 00	 push	 OFFSET ??_C@_0BI@NPODHFEC@?2Dev?2HWStrategyAnalysis@
  0015d	ff b6 1c 08 00
	00		 push	 DWORD PTR [esi+2076]
  00163	8d 45 e8	 lea	 eax, DWORD PTR _szDllName$[ebp]
  00166	c7 45 fc 02 00
	00 00		 mov	 DWORD PTR __$EHRec$[ebp+8], 2
  0016d	68 00 00 00 00	 push	 OFFSET ??_C@_04HDOCAJNK@?$CFs?$CFs@
  00172	50		 push	 eax
  00173	ff 15 00 00 00
	00		 call	 DWORD PTR __imp_?Format@?$CStringT@DV?$StrTraitMFC_DLL@DV?$ChTraitsCRT@D@ATL@@@@@ATL@@QAAXPBDZZ

; 310  : 
; 311  : 	if(m_hTradeInst!=NULL)

  00179	8b 87 00 08 00
	00		 mov	 eax, DWORD PTR [edi+2048]
  0017f	83 c4 10	 add	 esp, 16			; 00000010H
  00182	85 c0		 test	 eax, eax
  00184	74 11		 je	 SHORT $LN11@OnBnClicke

; 312  : 	{
; 313  : 		FreeLibrary(m_hTradeInst);

  00186	50		 push	 eax
  00187	ff 15 00 00 00
	00		 call	 DWORD PTR __imp__FreeLibrary@4

; 314  : 		m_hTradeInst = NULL;

  0018d	c7 87 00 08 00
	00 00 00 00 00	 mov	 DWORD PTR [edi+2048], 0
$LN11@OnBnClicke:

; 315  : 	}
; 316  : 	m_hTradeInst = LoadLibrary(szDllName);

  00197	ff 75 e8	 push	 DWORD PTR _szDllName$[ebp]
  0019a	ff 15 00 00 00
	00		 call	 DWORD PTR __imp__LoadLibraryA@4

; 317  : 	if(m_hTradeInst == NULL)
; 318  : 	{
; 319  : 		#ifdef _DEBUG
; 320  : 			CString strError;
; 321  : 			strError.Format(_T("%s File Load Faile"),strTradingName);
; 322  : 			MessageBox(strError);
; 323  : 		#endif
; 324  : 		
; 325  : 	}
; 326  : 
; 327  : 	FPSA_ApplyChart* pFunc = (FPSA_ApplyChart*)GetProcAddress(m_hTradeInst,_T("SA_ApplyChart"));

  001a0	68 00 00 00 00	 push	 OFFSET ??_C@_0O@LHAJBKH@SA_ApplyChart@
  001a5	50		 push	 eax
  001a6	89 87 00 08 00
	00		 mov	 DWORD PTR [edi+2048], eax
  001ac	ff 15 00 00 00
	00		 call	 DWORD PTR __imp__GetProcAddress@8

; 328  : 	if(pFunc == NULL)

  001b2	85 c0		 test	 eax, eax
  001b4	74 23		 je	 SHORT $LN18@OnBnClicke

; 329  : 	{
; 330  : 		#ifdef _DEBUG
; 331  : 			CString strError;
; 332  : 			strError.Format(_T("%s[%s] Load Error!"), strTradingName, "SA_ApplyChart");
; 333  : 			MessageBox(strError);
; 334  : 		#endif
; 335  : 		return ;
; 336  : 	}
; 337  : 
; 338  : 	LONG pChartOcx = (LONG)pCItem;
; 339  : 	LONG dwReserved1 = 0, dwReserved2 = 0;
; 340  : 
; 341  : 	//if(!m_pWndTrader) :KHD :        ..
; 342  : 		m_pWndTrader = pFunc(pChartOcx, &m_CtlList, (LONG)&pParentDlg->m_xSTAnalysisInput.m_InfoForAnalysis, (LONG)&pParentDlg->m_xSTInterface, dwReserved2);

  001b6	6a 00		 push	 0
  001b8	8d 8e 70 09 00
	00		 lea	 ecx, DWORD PTR [esi+2416]
  001be	51		 push	 ecx
  001bf	8d 8e 90 09 00
	00		 lea	 ecx, DWORD PTR [esi+2448]
  001c5	51		 push	 ecx
  001c6	8d 8f c0 01 00
	00		 lea	 ecx, DWORD PTR [edi+448]
  001cc	51		 push	 ecx
  001cd	53		 push	 ebx
  001ce	ff d0		 call	 eax
  001d0	83 c4 14	 add	 esp, 20			; 00000014H
  001d3	89 87 a8 00 00
	00		 mov	 DWORD PTR [edi+168], eax
$LN18@OnBnClicke:

; 343  : //	FreeLibrary(hTradeInst);
; 344  : }

  001d9	8d 4d e8	 lea	 ecx, DWORD PTR _szDllName$[ebp]
  001dc	ff 15 00 00 00
	00		 call	 DWORD PTR __imp_??1?$CStringT@DV?$StrTraitMFC_DLL@DV?$ChTraitsCRT@D@ATL@@@@@ATL@@QAE@XZ
  001e2	8b 4d f4	 mov	 ecx, DWORD PTR __$EHRec$[ebp]
  001e5	64 89 0d 00 00
	00 00		 mov	 DWORD PTR fs:0, ecx
  001ec	59		 pop	 ecx
  001ed	5f		 pop	 edi
  001ee	5e		 pop	 esi
  001ef	5b		 pop	 ebx
  001f0	8b e5		 mov	 esp, ebp
  001f2	5d		 pop	 ebp
  001f3	c3		 ret	 0
$LN9@OnBnClicke:

; 297  : 			}
; 298  : 			else	// IDNO
; 299  : 			{
; 300  : 				return;

  001f4	8d 4d ec	 lea	 ecx, DWORD PTR _strMsg$2[ebp]
  001f7	ff 15 00 00 00
	00		 call	 DWORD PTR __imp_??1?$CStringT@DV?$StrTraitMFC_DLL@DV?$ChTraitsCRT@D@ATL@@@@@ATL@@QAE@XZ
  001fd	8d 4d f0	 lea	 ecx, DWORD PTR _strSTPath$3[ebp]
  00200	ff 15 00 00 00
	00		 call	 DWORD PTR __imp_??1?$CStringT@DV?$StrTraitMFC_DLL@DV?$ChTraitsCRT@D@ATL@@@@@ATL@@QAE@XZ

; 343  : //	FreeLibrary(hTradeInst);
; 344  : }

  00206	8b 4d f4	 mov	 ecx, DWORD PTR __$EHRec$[ebp]
  00209	64 89 0d 00 00
	00 00		 mov	 DWORD PTR fs:0, ecx
  00210	59		 pop	 ecx
  00211	5f		 pop	 edi
  00212	5e		 pop	 esi
  00213	5b		 pop	 ebx
  00214	8b e5		 mov	 esp, ebp
  00216	5d		 pop	 ebp
  00217	c3		 ret	 0
$LN3@OnBnClicke:

; 262  : 		pParentDlg->m_xSTAnalysisInput.m_InfoForAnalysis.szSTRData.Find("")>=0)
; 263  : 	{
; 264  : 		AfxMessageBox(",  .");

  00218	6a 00		 push	 0
  0021a	6a 00		 push	 0
  0021c	68 00 00 00 00	 push	 OFFSET ??_C@_0DD@IBPJBNAL@?$LL?g?$LP?k?$MA?Z?A?v?G?$KF?0?$LL?g?$LP?k?$MA?Z?$LA?$KN?$LM?$LM?$LO?$OA?$LM?$LM?$LE?B?5?$LM?$LK?$LA@
$LN30@OnBnClicke:

; 343  : //	FreeLibrary(hTradeInst);
; 344  : }

  00221	e8 00 00 00 00	 call	 ?AfxMessageBox@@YGHPBDII@Z ; AfxMessageBox
$LN1@OnBnClicke:
  00226	8b 4d f4	 mov	 ecx, DWORD PTR __$EHRec$[ebp]
  00229	64 89 0d 00 00
	00 00		 mov	 DWORD PTR fs:0, ecx
  00230	59		 pop	 ecx
  00231	5f		 pop	 edi
  00232	5e		 pop	 esi
  00233	5b		 pop	 ebx
  00234	8b e5		 mov	 esp, ebp
  00236	5d		 pop	 ebp
  00237	c3		 ret	 0
_TEXT	ENDS
;	COMDAT text$x
text$x	SEGMENT
__unwindfunclet$?OnBnClickedStapply@CDlgSTExOption@@QAEXXZ$0:
  00000	8d 4d f0	 lea	 ecx, DWORD PTR _strSTPath$3[ebp]
  00003	ff 25 00 00 00
	00		 jmp	 DWORD PTR __imp_??1?$CStringT@DV?$StrTraitMFC_DLL@DV?$ChTraitsCRT@D@ATL@@@@@ATL@@QAE@XZ
__unwindfunclet$?OnBnClickedStapply@CDlgSTExOption@@QAEXXZ$1:
  00009	8d 4d ec	 lea	 ecx, DWORD PTR _strMsg$2[ebp]
  0000c	ff 25 00 00 00
	00		 jmp	 DWORD PTR __imp_??1?$CStringT@DV?$StrTraitMFC_DLL@DV?$ChTraitsCRT@D@ATL@@@@@ATL@@QAE@XZ
__unwindfunclet$?OnBnClickedStapply@CDlgSTExOption@@QAEXXZ$2:
  00012	8d 4d e8	 lea	 ecx, DWORD PTR _szDllName$[ebp]
  00015	ff 25 00 00 00
	00		 jmp	 DWORD PTR __imp_??1?$CStringT@DV?$StrTraitMFC_DLL@DV?$ChTraitsCRT@D@ATL@@@@@ATL@@QAE@XZ
  0001b	cc		 int	 3
  0001c	cc		 int	 3
  0001d	cc		 int	 3
  0001e	cc		 int	 3
  0001f	cc		 int	 3
__ehhandler$?OnBnClickedStapply@CDlgSTExOption@@QAEXXZ:
  00020	90		 npad	 1
  00021	90		 npad	 1
  00022	8b 54 24 08	 mov	 edx, DWORD PTR [esp+8]
  00026	8d 42 0c	 lea	 eax, DWORD PTR [edx+12]
  00029	8b 4a e4	 mov	 ecx, DWORD PTR [edx-28]
  0002c	33 c8		 xor	 ecx, eax
  0002e	e8 00 00 00 00	 call	 @__security_check_cookie@4
  00033	b8 00 00 00 00	 mov	 eax, OFFSET __ehfuncinfo$?OnBnClickedStapply@CDlgSTExOption@@QAEXXZ
  00038	e9 00 00 00 00	 jmp	 ___CxxFrameHandler3
text$x	ENDS
?OnBnClickedStapply@CDlgSTExOption@@QAEXXZ ENDP		; CDlgSTExOption::OnBnClickedStapply
; Function compile flags: /Ogtp
; File D:\git\src\IBK\IBK_DRFN\ProjSrc\SrcDrfn\Chart\MULTICHART\DlgSTExOption.cpp
; File C:\Program Files (x86)\Microsoft Visual Studio\2019\Community\VC\Tools\MSVC\14.29.30133\atlmfc\include\afxwin2.inl
; File D:\git\src\IBK\IBK_DRFN\ProjSrc\SrcDrfn\Chart\MULTICHART\DlgSTExOption.cpp
;	COMDAT ?SetInitDlg@CDlgSTExOption@@QAEXXZ
_TEXT	SEGMENT
?SetInitDlg@CDlgSTExOption@@QAEXXZ PROC			; CDlgSTExOption::SetInitDlg, COMDAT
; _this$ = ecx

; 349  : {

  00000	57		 push	 edi
  00001	8b f9		 mov	 edi, ecx

; 350  : 	m_bIsApplyBtn = FALSE;
; 351  : 	m_CtlList.DeleteAllItems();

  00003	8d 8f c0 01 00
	00		 lea	 ecx, DWORD PTR [edi+448]
  00009	c7 87 04 08 00
	00 00 00 00 00	 mov	 DWORD PTR [edi+2052], 0
  00013	e8 00 00 00 00	 call	 ?DeleteAllItems@CXListCtrl@@QAEHXZ ; CXListCtrl::DeleteAllItems
; File C:\Program Files (x86)\Microsoft Visual Studio\2019\Community\VC\Tools\MSVC\14.29.30133\atlmfc\include\afxwin2.inl

; 767  : 	{ ASSERT(::IsWindow(m_hWnd)); return (int)::SendMessage(m_hWnd, CB_SETCURSEL, nSelect, 0); }

  00018	6a 00		 push	 0
  0001a	6a 00		 push	 0
  0001c	68 4e 01 00 00	 push	 334			; 0000014eH
  00021	ff b7 58 01 00
	00		 push	 DWORD PTR [edi+344]
  00027	ff 15 00 00 00
	00		 call	 DWORD PTR __imp__SendMessageA@16
  0002d	6a 00		 push	 0
  0002f	6a 00		 push	 0
  00031	68 4e 01 00 00	 push	 334			; 0000014eH
  00036	ff b7 d0 00 00
	00		 push	 DWORD PTR [edi+208]
  0003c	ff 15 00 00 00
	00		 call	 DWORD PTR __imp__SendMessageA@16
  00042	5f		 pop	 edi
; File D:\git\src\IBK\IBK_DRFN\ProjSrc\SrcDrfn\Chart\MULTICHART\DlgSTExOption.cpp

; 354  : }

  00043	c3		 ret	 0
?SetInitDlg@CDlgSTExOption@@QAEXXZ ENDP			; CDlgSTExOption::SetInitDlg
_TEXT	ENDS
; Function compile flags: /Ogtp
; File D:\git\src\IBK\IBK_DRFN\ProjSrc\SrcDrfn\Chart\MULTICHART\DlgSTExOption.cpp
;	COMDAT ?OpenRefort@CDlgSTExOption@@QAEXXZ
_TEXT	SEGMENT
?OpenRefort@CDlgSTExOption@@QAEXXZ PROC			; CDlgSTExOption::OpenRefort, COMDAT
; _this$ = ecx

; 152  : 	OnBnClickedStreport();

  00000	e9 00 00 00 00	 jmp	 ?OnBnClickedStreport@CDlgSTExOption@@IAEXXZ ; CDlgSTExOption::OnBnClickedStreport
?OpenRefort@CDlgSTExOption@@QAEXXZ ENDP			; CDlgSTExOption::OpenRefort
_TEXT	ENDS
; Function compile flags: /Ogtp
; File D:\git\src\IBK\IBK_DRFN\ProjSrc\SrcDrfn\Chart\MULTICHART\DlgSTExOption.cpp
; File C:\Program Files (x86)\Microsoft Visual Studio\2019\Community\VC\Tools\MSVC\14.29.30133\atlmfc\include\afxwin2.inl
; File D:\git\src\IBK\IBK_DRFN\ProjSrc\SrcDrfn\Chart\MULTICHART\DlgSTExOption.cpp
;	COMDAT ?GetRepRate@CDlgSTExOption@@QAENXZ
_TEXT	SEGMENT
$T2 = -24						; size = 8
_szTmp$ = -16						; size = 4
__$EHRec$ = -12						; size = 12
?GetRepRate@CDlgSTExOption@@QAENXZ PROC			; CDlgSTExOption::GetRepRate, COMDAT
; _this$ = ecx

; 127  : {

  00000	55		 push	 ebp
  00001	8b ec		 mov	 ebp, esp
  00003	6a ff		 push	 -1
  00005	68 00 00 00 00	 push	 __ehhandler$?GetRepRate@CDlgSTExOption@@QAENXZ
  0000a	64 a1 00 00 00
	00		 mov	 eax, DWORD PTR fs:0
  00010	50		 push	 eax
  00011	83 ec 0c	 sub	 esp, 12			; 0000000cH
  00014	56		 push	 esi
  00015	57		 push	 edi
  00016	a1 00 00 00 00	 mov	 eax, DWORD PTR ___security_cookie
  0001b	33 c5		 xor	 eax, ebp
  0001d	50		 push	 eax
  0001e	8d 45 f4	 lea	 eax, DWORD PTR __$EHRec$[ebp]
  00021	64 a3 00 00 00
	00		 mov	 DWORD PTR fs:0, eax
  00027	8b f1		 mov	 esi, ecx
; File C:\Program Files (x86)\Microsoft Visual Studio\2019\Community\VC\Tools\MSVC\14.29.30133\atlmfc\include\afxwin2.inl

; 765  : 	{ ASSERT(::IsWindow(m_hWnd)); return (int)::SendMessage(m_hWnd, CB_GETCURSEL, 0, 0); }

  00029	6a 00		 push	 0
  0002b	6a 00		 push	 0
  0002d	68 47 01 00 00	 push	 327			; 00000147H
  00032	ff b6 d0 00 00
	00		 push	 DWORD PTR [esi+208]
  00038	ff 15 00 00 00
	00		 call	 DWORD PTR __imp__SendMessageA@16
; File D:\git\src\IBK\IBK_DRFN\ProjSrc\SrcDrfn\Chart\MULTICHART\DlgSTExOption.cpp

; 128  : 	int nSel = m_CtlComboRep.GetCurSel();

  0003e	8b f8		 mov	 edi, eax

; 129  : 	if(nSel<0) return 0.0f;

  00040	85 ff		 test	 edi, edi
  00042	79 13		 jns	 SHORT $LN2@GetRepRate
  00044	d9 ee		 fldz

; 137  : }

  00046	8b 4d f4	 mov	 ecx, DWORD PTR __$EHRec$[ebp]
  00049	64 89 0d 00 00
	00 00		 mov	 DWORD PTR fs:0, ecx
  00050	59		 pop	 ecx
  00051	5f		 pop	 edi
  00052	5e		 pop	 esi
  00053	8b e5		 mov	 esp, ebp
  00055	5d		 pop	 ebp
  00056	c3		 ret	 0
$LN2@GetRepRate:

; 130  : 
; 131  : 	CString szTmp;

  00057	8d 4d f0	 lea	 ecx, DWORD PTR _szTmp$[ebp]
  0005a	ff 15 00 00 00
	00		 call	 DWORD PTR __imp_??0?$CStringT@DV?$StrTraitMFC_DLL@DV?$ChTraitsCRT@D@ATL@@@@@ATL@@QAE@XZ

; 132  : 	m_CtlComboRep.GetLBText(nSel, szTmp);

  00060	8d 45 f0	 lea	 eax, DWORD PTR _szTmp$[ebp]
  00063	c7 45 fc 00 00
	00 00		 mov	 DWORD PTR __$EHRec$[ebp+8], 0
  0006a	50		 push	 eax
  0006b	57		 push	 edi
  0006c	8d 8e b0 00 00
	00		 lea	 ecx, DWORD PTR [esi+176]
  00072	e8 00 00 00 00	 call	 ?GetLBText@CComboBox@@QBEXHAAV?$CStringT@DV?$StrTraitMFC_DLL@DV?$ChTraitsCRT@D@ATL@@@@@ATL@@@Z ; CComboBox::GetLBText

; 133  : 
; 134  : 	double rTmp = 0.00f;
; 135  : 	rTmp = atof(szTmp);

  00077	ff 75 f0	 push	 DWORD PTR _szTmp$[ebp]
  0007a	ff 15 00 00 00
	00		 call	 DWORD PTR __imp__atof
  00080	83 c4 04	 add	 esp, 4

; 136  : 	return rTmp;

  00083	8d 4d f0	 lea	 ecx, DWORD PTR _szTmp$[ebp]
  00086	dd 5d e8	 fstp	 QWORD PTR $T2[ebp]
  00089	ff 15 00 00 00
	00		 call	 DWORD PTR __imp_??1?$CStringT@DV?$StrTraitMFC_DLL@DV?$ChTraitsCRT@D@ATL@@@@@ATL@@QAE@XZ
  0008f	dd 45 e8	 fld	 QWORD PTR $T2[ebp]

; 137  : }

  00092	8b 4d f4	 mov	 ecx, DWORD PTR __$EHRec$[ebp]
  00095	64 89 0d 00 00
	00 00		 mov	 DWORD PTR fs:0, ecx
  0009c	59		 pop	 ecx
  0009d	5f		 pop	 edi
  0009e	5e		 pop	 esi
  0009f	8b e5		 mov	 esp, ebp
  000a1	5d		 pop	 ebp
  000a2	c3		 ret	 0
_TEXT	ENDS
;	COMDAT text$x
text$x	SEGMENT
__unwindfunclet$?GetRepRate@CDlgSTExOption@@QAENXZ$0:
  00000	8d 4d f0	 lea	 ecx, DWORD PTR _szTmp$[ebp]
  00003	ff 25 00 00 00
	00		 jmp	 DWORD PTR __imp_??1?$CStringT@DV?$StrTraitMFC_DLL@DV?$ChTraitsCRT@D@ATL@@@@@ATL@@QAE@XZ
  00009	cc		 int	 3
  0000a	cc		 int	 3
  0000b	cc		 int	 3
  0000c	cc		 int	 3
  0000d	cc		 int	 3
__ehhandler$?GetRepRate@CDlgSTExOption@@QAENXZ:
  0000e	90		 npad	 1
  0000f	90		 npad	 1
  00010	8b 54 24 08	 mov	 edx, DWORD PTR [esp+8]
  00014	8d 42 0c	 lea	 eax, DWORD PTR [edx+12]
  00017	8b 4a e8	 mov	 ecx, DWORD PTR [edx-24]
  0001a	33 c8		 xor	 ecx, eax
  0001c	e8 00 00 00 00	 call	 @__security_check_cookie@4
  00021	b8 00 00 00 00	 mov	 eax, OFFSET __ehfuncinfo$?GetRepRate@CDlgSTExOption@@QAENXZ
  00026	e9 00 00 00 00	 jmp	 ___CxxFrameHandler3
text$x	ENDS
?GetRepRate@CDlgSTExOption@@QAENXZ ENDP			; CDlgSTExOption::GetRepRate
; Function compile flags: /Ogtp
; File D:\git\src\IBK\IBK_DRFN\ProjSrc\SrcDrfn\Chart\MULTICHART\DlgSTExOption.cpp
; File C:\Program Files (x86)\Microsoft Visual Studio\2019\Community\VC\Tools\MSVC\14.29.30133\atlmfc\include\afxwin2.inl
; File D:\git\src\IBK\IBK_DRFN\ProjSrc\SrcDrfn\Chart\MULTICHART\DlgSTExOption.cpp
;	COMDAT ?GetDivCount@CDlgSTExOption@@QAEHXZ
_TEXT	SEGMENT
_szTmp$ = -16						; size = 4
__$EHRec$ = -12						; size = 12
?GetDivCount@CDlgSTExOption@@QAEHXZ PROC		; CDlgSTExOption::GetDivCount, COMDAT
; _this$ = ecx

; 112  : {

  00000	55		 push	 ebp
  00001	8b ec		 mov	 ebp, esp
  00003	6a ff		 push	 -1
  00005	68 00 00 00 00	 push	 __ehhandler$?GetDivCount@CDlgSTExOption@@QAEHXZ
  0000a	64 a1 00 00 00
	00		 mov	 eax, DWORD PTR fs:0
  00010	50		 push	 eax
  00011	51		 push	 ecx
  00012	56		 push	 esi
  00013	57		 push	 edi
  00014	a1 00 00 00 00	 mov	 eax, DWORD PTR ___security_cookie
  00019	33 c5		 xor	 eax, ebp
  0001b	50		 push	 eax
  0001c	8d 45 f4	 lea	 eax, DWORD PTR __$EHRec$[ebp]
  0001f	64 a3 00 00 00
	00		 mov	 DWORD PTR fs:0, eax
  00025	8b f1		 mov	 esi, ecx
; File C:\Program Files (x86)\Microsoft Visual Studio\2019\Community\VC\Tools\MSVC\14.29.30133\atlmfc\include\afxwin2.inl

; 765  : 	{ ASSERT(::IsWindow(m_hWnd)); return (int)::SendMessage(m_hWnd, CB_GETCURSEL, 0, 0); }

  00027	6a 00		 push	 0
  00029	6a 00		 push	 0
  0002b	68 47 01 00 00	 push	 327			; 00000147H
  00030	ff b6 58 01 00
	00		 push	 DWORD PTR [esi+344]
  00036	ff 15 00 00 00
	00		 call	 DWORD PTR __imp__SendMessageA@16
; File D:\git\src\IBK\IBK_DRFN\ProjSrc\SrcDrfn\Chart\MULTICHART\DlgSTExOption.cpp

; 114  : 	int nSel = m_CtlComboDiv.GetCurSel();

  0003c	8b f8		 mov	 edi, eax

; 115  : 	if(nSel<0) return nTmp;

  0003e	85 ff		 test	 edi, edi
  00040	79 13		 jns	 SHORT $LN2@GetDivCoun
  00042	33 c0		 xor	 eax, eax

; 123  : }

  00044	8b 4d f4	 mov	 ecx, DWORD PTR __$EHRec$[ebp]
  00047	64 89 0d 00 00
	00 00		 mov	 DWORD PTR fs:0, ecx
  0004e	59		 pop	 ecx
  0004f	5f		 pop	 edi
  00050	5e		 pop	 esi
  00051	8b e5		 mov	 esp, ebp
  00053	5d		 pop	 ebp
  00054	c3		 ret	 0
$LN2@GetDivCoun:

; 116  : 
; 117  : 
; 118  : 	CString szTmp;

  00055	8d 4d f0	 lea	 ecx, DWORD PTR _szTmp$[ebp]
  00058	ff 15 00 00 00
	00		 call	 DWORD PTR __imp_??0?$CStringT@DV?$StrTraitMFC_DLL@DV?$ChTraitsCRT@D@ATL@@@@@ATL@@QAE@XZ

; 119  : 	m_CtlComboDiv.GetLBText(nSel, szTmp);

  0005e	8d 45 f0	 lea	 eax, DWORD PTR _szTmp$[ebp]
  00061	c7 45 fc 00 00
	00 00		 mov	 DWORD PTR __$EHRec$[ebp+8], 0
  00068	50		 push	 eax
  00069	57		 push	 edi
  0006a	8d 8e 38 01 00
	00		 lea	 ecx, DWORD PTR [esi+312]
  00070	e8 00 00 00 00	 call	 ?GetLBText@CComboBox@@QBEXHAAV?$CStringT@DV?$StrTraitMFC_DLL@DV?$ChTraitsCRT@D@ATL@@@@@ATL@@@Z ; CComboBox::GetLBText

; 120  : 
; 121  : 	nTmp = atoi(szTmp);

  00075	ff 75 f0	 push	 DWORD PTR _szTmp$[ebp]
  00078	ff 15 00 00 00
	00		 call	 DWORD PTR __imp__atoi
  0007e	83 c4 04	 add	 esp, 4

; 122  : 	return nTmp;

  00081	8d 4d f0	 lea	 ecx, DWORD PTR _szTmp$[ebp]
  00084	8b f0		 mov	 esi, eax
  00086	ff 15 00 00 00
	00		 call	 DWORD PTR __imp_??1?$CStringT@DV?$StrTraitMFC_DLL@DV?$ChTraitsCRT@D@ATL@@@@@ATL@@QAE@XZ
  0008c	8b c6		 mov	 eax, esi

; 123  : }

  0008e	8b 4d f4	 mov	 ecx, DWORD PTR __$EHRec$[ebp]
  00091	64 89 0d 00 00
	00 00		 mov	 DWORD PTR fs:0, ecx
  00098	59		 pop	 ecx
  00099	5f		 pop	 edi
  0009a	5e		 pop	 esi
  0009b	8b e5		 mov	 esp, ebp
  0009d	5d		 pop	 ebp
  0009e	c3		 ret	 0
_TEXT	ENDS
;	COMDAT text$x
text$x	SEGMENT
__unwindfunclet$?GetDivCount@CDlgSTExOption@@QAEHXZ$0:
  00000	8d 4d f0	 lea	 ecx, DWORD PTR _szTmp$[ebp]
  00003	ff 25 00 00 00
	00		 jmp	 DWORD PTR __imp_??1?$CStringT@DV?$StrTraitMFC_DLL@DV?$ChTraitsCRT@D@ATL@@@@@ATL@@QAE@XZ
  00009	cc		 int	 3
  0000a	cc		 int	 3
  0000b	cc		 int	 3
  0000c	cc		 int	 3
  0000d	cc		 int	 3
__ehhandler$?GetDivCount@CDlgSTExOption@@QAEHXZ:
  0000e	90		 npad	 1
  0000f	90		 npad	 1
  00010	8b 54 24 08	 mov	 edx, DWORD PTR [esp+8]
  00014	8d 42 0c	 lea	 eax, DWORD PTR [edx+12]
  00017	8b 4a f0	 mov	 ecx, DWORD PTR [edx-16]
  0001a	33 c8		 xor	 ecx, eax
  0001c	e8 00 00 00 00	 call	 @__security_check_cookie@4
  00021	b8 00 00 00 00	 mov	 eax, OFFSET __ehfuncinfo$?GetDivCount@CDlgSTExOption@@QAEHXZ
  00026	e9 00 00 00 00	 jmp	 ___CxxFrameHandler3
text$x	ENDS
?GetDivCount@CDlgSTExOption@@QAEHXZ ENDP		; CDlgSTExOption::GetDivCount
; Function compile flags: /Ogtp
; File D:\git\src\IBK\IBK_DRFN\ProjSrc\SrcDrfn\Chart\MULTICHART\DlgSTExOption.cpp
;	COMDAT ?GetMessageMap@CDlgSTExOption@@MBEPBUAFX_MSGMAP@@XZ
_TEXT	SEGMENT
?GetMessageMap@CDlgSTExOption@@MBEPBUAFX_MSGMAP@@XZ PROC ; CDlgSTExOption::GetMessageMap, COMDAT
; _this$ = ecx

; 50   : BEGIN_MESSAGE_MAP(CDlgSTExOption, CDialog)

  00000	b8 00 00 00 00	 mov	 eax, OFFSET ?messageMap@?1??GetThisMessageMap@CDlgSTExOption@@KGPBUAFX_MSGMAP@@XZ@4U3@B
  00005	c3		 ret	 0
?GetMessageMap@CDlgSTExOption@@MBEPBUAFX_MSGMAP@@XZ ENDP ; CDlgSTExOption::GetMessageMap
_TEXT	ENDS
; Function compile flags: /Ogtp
; File D:\git\src\IBK\IBK_DRFN\ProjSrc\SrcDrfn\Chart\MULTICHART\DlgSTExOption.cpp
;	COMDAT ?GetThisMessageMap@CDlgSTExOption@@KGPBUAFX_MSGMAP@@XZ
_TEXT	SEGMENT
?GetThisMessageMap@CDlgSTExOption@@KGPBUAFX_MSGMAP@@XZ PROC ; CDlgSTExOption::GetThisMessageMap, COMDAT

; 51   : 	//{{AFX_MSG_MAP(CDlgSTExOption)
; 52   : 	ON_WM_CTLCOLOR()
; 53   : 	ON_WM_SIZE()
; 54   : 	ON_BN_CLICKED(IDC_STREPORT, OnBnClickedStreport)
; 55   : 	ON_BN_CLICKED(IDC_STSHOWOPTION, OnBnClickedStshowoption)
; 56   : 	ON_COMMAND(IDC_STAPPLY, OnBnClickedStapply)
; 57   : 	//}}AFX_MSG_MAP
; 58   : 	ON_WM_DESTROY()
; 59   : END_MESSAGE_MAP()

  00000	b8 00 00 00 00	 mov	 eax, OFFSET ?messageMap@?1??GetThisMessageMap@CDlgSTExOption@@KGPBUAFX_MSGMAP@@XZ@4U3@B
  00005	c3		 ret	 0
?GetThisMessageMap@CDlgSTExOption@@KGPBUAFX_MSGMAP@@XZ ENDP ; CDlgSTExOption::GetThisMessageMap
_TEXT	ENDS
; Function compile flags: /Ogtp
; File D:\git\src\IBK\IBK_DRFN\ProjSrc\SrcDrfn\Chart\MULTICHART\DlgSTExOption.cpp
; File C:\Program Files (x86)\Microsoft Visual Studio\2019\Community\VC\Tools\MSVC\14.29.30133\atlmfc\include\afxwin2.inl
; File D:\git\src\IBK\IBK_DRFN\ProjSrc\SrcDrfn\Chart\MULTICHART\DlgSTExOption.cpp
; File C:\Program Files (x86)\Microsoft Visual Studio\2019\Community\VC\Tools\MSVC\14.29.30133\atlmfc\include\atlsimpstr.h
; File D:\git\src\IBK\IBK_DRFN\ProjSrc\SrcDrfn\Chart\MULTICHART\DlgSTExOption.cpp
; File C:\Program Files (x86)\Microsoft Visual Studio\2019\Community\VC\Tools\MSVC\14.29.30133\atlmfc\include\afxwin1.inl
; File D:\git\src\IBK\IBK_DRFN\ProjSrc\SrcDrfn\Chart\MULTICHART\DlgSTExOption.cpp
; File C:\Program Files (x86)\Microsoft Visual Studio\2019\Community\VC\Tools\MSVC\14.29.30133\atlmfc\include\afxwin1.inl
; File D:\git\src\IBK\IBK_DRFN\ProjSrc\SrcDrfn\Chart\MULTICHART\DlgSTExOption.cpp
; File C:\Program Files (x86)\Microsoft Visual Studio\2019\Community\VC\Tools\MSVC\14.29.30133\atlmfc\include\afxwin1.inl
; File D:\git\src\IBK\IBK_DRFN\ProjSrc\SrcDrfn\Chart\MULTICHART\DlgSTExOption.cpp
; File C:\Program Files (x86)\Microsoft Visual Studio\2019\Community\VC\Tools\MSVC\14.29.30133\atlmfc\include\afx.inl
; File D:\git\src\IBK\IBK_DRFN\ProjSrc\SrcDrfn\Chart\MULTICHART\DlgSTExOption.cpp
; File C:\Program Files (x86)\Microsoft Visual Studio\2019\Community\VC\Tools\MSVC\14.29.30133\atlmfc\include\atltypes.h
; File D:\git\src\IBK\IBK_DRFN\ProjSrc\SrcDrfn\Chart\MULTICHART\DlgSTExOption.cpp
; File C:\Program Files (x86)\Microsoft Visual Studio\2019\Community\VC\Tools\MSVC\14.29.30133\atlmfc\include\afxwin2.inl
; File D:\git\src\IBK\IBK_DRFN\ProjSrc\SrcDrfn\Chart\MULTICHART\DlgSTExOption.cpp
;	COMDAT ?OnBnClickedStreport@CDlgSTExOption@@IAEXXZ
_TEXT	SEGMENT
_szDllName$ = -44					; size = 4
_hOld$1$ = -40						; size = 4
_strMsg$2 = -40						; size = 4
$T3 = -36						; size = 4
_strSTPath$4 = -36					; size = 4
_rcChart$5 = -32					; size = 16
__$ArrayPad$ = -16					; size = 4
__$EHRec$ = -12						; size = 12
?OnBnClickedStreport@CDlgSTExOption@@IAEXXZ PROC	; CDlgSTExOption::OnBnClickedStreport, COMDAT
; _this$ = ecx

; 155  : {

  00000	55		 push	 ebp
  00001	8b ec		 mov	 ebp, esp
  00003	6a ff		 push	 -1
  00005	68 00 00 00 00	 push	 __ehhandler$?OnBnClickedStreport@CDlgSTExOption@@IAEXXZ
  0000a	64 a1 00 00 00
	00		 mov	 eax, DWORD PTR fs:0
  00010	50		 push	 eax
  00011	83 ec 20	 sub	 esp, 32			; 00000020H
  00014	a1 00 00 00 00	 mov	 eax, DWORD PTR ___security_cookie
  00019	33 c5		 xor	 eax, ebp
  0001b	89 45 f0	 mov	 DWORD PTR __$ArrayPad$[ebp], eax
  0001e	53		 push	 ebx
  0001f	56		 push	 esi
  00020	57		 push	 edi
  00021	50		 push	 eax
  00022	8d 45 f4	 lea	 eax, DWORD PTR __$EHRec$[ebp]
  00025	64 a3 00 00 00
	00		 mov	 DWORD PTR fs:0, eax
  0002b	8b d9		 mov	 ebx, ecx
; File C:\Program Files (x86)\Microsoft Visual Studio\2019\Community\VC\Tools\MSVC\14.29.30133\atlmfc\include\afxwin2.inl

; 213  : 	{ ASSERT(::IsWindow(m_hWnd)); return CWnd::FromHandle(::GetParent(m_hWnd)); }

  0002d	ff 73 20	 push	 DWORD PTR [ebx+32]
  00030	ff 15 00 00 00
	00		 call	 DWORD PTR __imp__GetParent@4
  00036	50		 push	 eax
  00037	e8 00 00 00 00	 call	 ?FromHandle@CWnd@@SGPAV1@PAUHWND__@@@Z ; CWnd::FromHandle
; File D:\git\src\IBK\IBK_DRFN\ProjSrc\SrcDrfn\Chart\MULTICHART\DlgSTExOption.cpp

; 156  : 	CTabSystemTradingEx* pParentDlg = (CTabSystemTradingEx*)GetParent();

  0003c	8b f8		 mov	 edi, eax

; 157  : 
; 158  : 	if(pParentDlg->m_xSTAnalysisInput.m_InfoForAnalysis.szSTRData.CompareNoCase("")==0 ||

  0003e	68 00 00 00 00	 push	 OFFSET ??_C@_0L@DLNLHHBM@?$LL?g?$LP?k?$MA?Z?A?v?G?$KF@
  00043	8d 8f 90 09 00
	00		 lea	 ecx, DWORD PTR [edi+2448]
  00049	ff 15 00 00 00
	00		 call	 DWORD PTR __imp_?CompareNoCase@?$CStringT@DV?$StrTraitMFC_DLL@DV?$ChTraitsCRT@D@ATL@@@@@ATL@@QBEHPBD@Z
  0004f	85 c0		 test	 eax, eax
  00051	0f 84 69 02 00
	00		 je	 $LN3@OnBnClicke
  00057	6a 00		 push	 0
  00059	68 00 00 00 00	 push	 OFFSET ??_C@_08BHLLDOMG@?$LA?$KN?$LM?$LM?$LO?$OA?$LM?$LM@
  0005e	8d 8f 90 09 00
	00		 lea	 ecx, DWORD PTR [edi+2448]
  00064	ff 15 00 00 00
	00		 call	 DWORD PTR __imp_?Find@?$CStringT@DV?$StrTraitMFC_DLL@DV?$ChTraitsCRT@D@ATL@@@@@ATL@@QBEHPBDH@Z
  0006a	85 c0		 test	 eax, eax
  0006c	0f 89 4e 02 00
	00		 jns	 $LN3@OnBnClicke

; 162  : 		return;
; 163  : 	}
; 164  : 
; 165  : 	if(pParentDlg->m_xSTAnalysisInput.GetCount()==0)

  00072	8b 8f 74 09 00
	00		 mov	 ecx, DWORD PTR [edi+2420]
  00078	8d 87 74 09 00
	00		 lea	 eax, DWORD PTR [edi+2420]
  0007e	50		 push	 eax
  0007f	ff 51 20	 call	 DWORD PTR [ecx+32]
  00082	85 c0		 test	 eax, eax
  00084	75 0c		 jne	 SHORT $LN4@OnBnClicke

; 166  : 	{
; 167  : 		AfxMessageBox("  .");

  00086	50		 push	 eax
  00087	50		 push	 eax
  00088	68 00 00 00 00	 push	 OFFSET ??_C@_0BI@PFKPIPEB@?A?$LO?$LI?q?A?$LG?H?$LI?5?H?D?5?$LA?$KB?$LE?I?G?U?$LE?O?$LE?Y?4@

; 168  : 		return;

  0008d	e9 37 02 00 00	 jmp	 $LN51@OnBnClicke
$LN4@OnBnClicke:

; 169  : 	}
; 170  : 
; 171  : 	if(pParentDlg->CanSTModule()==FALSE)	return;

  00092	8b cf		 mov	 ecx, edi
  00094	e8 00 00 00 00	 call	 ?CanSTModule@CTabSystemTradingEx@@QAEHXZ ; CTabSystemTradingEx::CanSTModule
  00099	85 c0		 test	 eax, eax
  0009b	0f 84 2d 02 00
	00		 je	 $LN1@OnBnClicke

; 172  : 
; 173  : 	BOOL bSel = pParentDlg->IsSTSelected();

  000a1	8b cf		 mov	 ecx, edi
  000a3	e8 00 00 00 00	 call	 ?IsSTSelected@CTabSystemTradingEx@@QAEHXZ ; CTabSystemTradingEx::IsSTSelected

; 174  : 	if(!bSel)

  000a8	85 c0		 test	 eax, eax
  000aa	75 0c		 jne	 SHORT $LN6@OnBnClicke

; 175  : 	{
; 176  : 		AfxMessageBox("   ");

  000ac	50		 push	 eax
  000ad	50		 push	 eax
  000ae	68 00 00 00 00	 push	 OFFSET ??_C@_0CE@LIBOKAIK@?$MA?$PL?$LP?k?G?R?5?$MA?$PM?$LH?$KL?$MA?$LL?5?$LM?$LB?E?C?G?X?A?V?$LN?C?$LB?b?5?$LJ?Y?$LG?x@

; 177  : 		return;

  000b3	e9 11 02 00 00	 jmp	 $LN51@OnBnClicke
$LN6@OnBnClicke:

; 178  : 	}
; 179  : 
; 180  : 	//  TeeChart MSChart .
; 181  : 	if(!pParentDlg->CheckOcx())

  000b8	8b cf		 mov	 ecx, edi
  000ba	e8 00 00 00 00	 call	 ?CheckOcx@CTabSystemTradingEx@@QAEHXZ ; CTabSystemTradingEx::CheckOcx
  000bf	85 c0		 test	 eax, eax
  000c1	75 0c		 jne	 SHORT $LN7@OnBnClicke

; 182  : 	{
; 183  : 		AfxMessageBox("  OCX(TeeChart7.ocx, MSChrt20.ocx) .");

  000c3	50		 push	 eax
  000c4	50		 push	 eax
  000c5	68 00 00 00 00	 push	 OFFSET ??_C@_0EJ@JEOKELGF@?C?V?$MA?$PL?H?$KN?$LP?$KB?$LM?$KN?5?G?J?$LP?d?G?Q?5OCX?$CITeeChart7@

; 184  : 		return;

  000ca	e9 fa 01 00 00	 jmp	 $LN51@OnBnClicke
$LN7@OnBnClicke:

; 185  : 	}
; 186  : 
; 187  : 	CChartItem* pCItem = ((CChartMng*)pParentDlg->m_pChartMng)->GetpChartItemSelected();

  000cf	8b 8f c4 00 00
	00		 mov	 ecx, DWORD PTR [edi+196]
  000d5	e8 00 00 00 00	 call	 ?GetpChartItemSelected@CChartMng@@QAEPAVCChartItem@@XZ ; CChartMng::GetpChartItemSelected
  000da	8b f0		 mov	 esi, eax

; 188  : 	if(pCItem)

  000dc	85 f6		 test	 esi, esi
  000de	0f 84 86 00 00
	00		 je	 $LN8@OnBnClicke

; 189  : 	{
; 190  : 		//    
; 191  : 		CString strSTPath;

  000e4	8d 4d dc	 lea	 ecx, DWORD PTR _strSTPath$4[ebp]
  000e7	ff 15 00 00 00
	00		 call	 DWORD PTR __imp_??0?$CStringT@DV?$StrTraitMFC_DLL@DV?$ChTraitsCRT@D@ATL@@@@@ATL@@QAE@XZ

; 192  : 		pCItem->InvokeAddInSTIndex("ChartSTIndexAddIn.dll", 8, (long)&strSTPath);

  000ed	8d 45 dc	 lea	 eax, DWORD PTR _strSTPath$4[ebp]
  000f0	c7 45 fc 00 00
	00 00		 mov	 DWORD PTR __$EHRec$[ebp+8], 0
  000f7	50		 push	 eax
  000f8	6a 08		 push	 8
  000fa	68 00 00 00 00	 push	 OFFSET ??_C@_0BG@CHJJKIAP@ChartSTIndexAddIn?4dll@
  000ff	8b ce		 mov	 ecx, esi
  00101	e8 00 00 00 00	 call	 ?InvokeAddInSTIndex@CChartItem@@QAEHPBDFJ@Z ; CChartItem::InvokeAddInSTIndex
; File C:\Program Files (x86)\Microsoft Visual Studio\2019\Community\VC\Tools\MSVC\14.29.30133\atlmfc\include\atlsimpstr.h

; 519  : 		return( GetData()->nDataLength );

  00106	8b 45 dc	 mov	 eax, DWORD PTR _strSTPath$4[ebp]
; File D:\git\src\IBK\IBK_DRFN\ProjSrc\SrcDrfn\Chart\MULTICHART\DlgSTExOption.cpp

; 193  : 		if(strSTPath.GetLength() && strSTPath.Find(".ST") > 0)

  00109	83 78 f4 00	 cmp	 DWORD PTR [eax-12], 0
  0010d	74 4b		 je	 SHORT $LN9@OnBnClicke
  0010f	6a 00		 push	 0
  00111	68 00 00 00 00	 push	 OFFSET ??_C@_03COHLPAFH@?4ST@
  00116	8d 4d dc	 lea	 ecx, DWORD PTR _strSTPath$4[ebp]
  00119	ff 15 00 00 00
	00		 call	 DWORD PTR __imp_?Find@?$CStringT@DV?$StrTraitMFC_DLL@DV?$ChTraitsCRT@D@ATL@@@@@ATL@@QBEHPBDH@Z
  0011f	85 c0		 test	 eax, eax
  00121	7e 37		 jle	 SHORT $LN9@OnBnClicke

; 194  : 		{
; 195  : 			CString strMsg("      .\n\n ?");

  00123	68 00 00 00 00	 push	 OFFSET ??_C@_0FI@MIHHDMHK@?$LM?$LK?$LA?z?$LK?P?$LM?$KO?$MA?$LK?5?G?v?$MA?g?5?$LP?n?$LP?k?A?$NP?$MA?N?5?$MA?$PM?$LH?$KL?$MA?$LL@
  00128	8d 4d d8	 lea	 ecx, DWORD PTR _strMsg$2[ebp]
  0012b	ff 15 00 00 00
	00		 call	 DWORD PTR __imp_??0?$CStringT@DV?$StrTraitMFC_DLL@DV?$ChTraitsCRT@D@ATL@@@@@ATL@@QAE@PBD@Z

; 196  : 			if(IDYES == AfxMessageBox(strMsg, MB_YESNO))

  00131	6a 00		 push	 0
  00133	6a 04		 push	 4
  00135	ff 75 d8	 push	 DWORD PTR _strMsg$2[ebp]
  00138	c6 45 fc 01	 mov	 BYTE PTR __$EHRec$[ebp+8], 1
  0013c	e8 00 00 00 00	 call	 ?AfxMessageBox@@YGHPBDII@Z ; AfxMessageBox
  00141	83 f8 06	 cmp	 eax, 6
  00144	0f 85 c7 00 00
	00		 jne	 $LN10@OnBnClicke

; 197  : 			{
; 198  : 				pParentDlg->STClear();

  0014a	8b cf		 mov	 ecx, edi
  0014c	e8 00 00 00 00	 call	 ?STClear@CTabSystemTradingEx@@QAEXXZ ; CTabSystemTradingEx::STClear

; 203  : 			}
; 204  : 		}

  00151	8d 4d d8	 lea	 ecx, DWORD PTR _strMsg$2[ebp]
  00154	ff 15 00 00 00
	00		 call	 DWORD PTR __imp_??1?$CStringT@DV?$StrTraitMFC_DLL@DV?$ChTraitsCRT@D@ATL@@@@@ATL@@QAE@XZ
$LN9@OnBnClicke:

; 205  : 	}

  0015a	8d 4d dc	 lea	 ecx, DWORD PTR _strSTPath$4[ebp]
  0015d	c7 45 fc ff ff
	ff ff		 mov	 DWORD PTR __$EHRec$[ebp+8], -1
  00164	ff 15 00 00 00
	00		 call	 DWORD PTR __imp_??1?$CStringT@DV?$StrTraitMFC_DLL@DV?$ChTraitsCRT@D@ATL@@@@@ATL@@QAE@XZ
$LN8@OnBnClicke:
; File C:\Program Files (x86)\Microsoft Visual Studio\2019\Community\VC\Tools\MSVC\14.29.30133\atlmfc\include\afxwin1.inl

; 25   : 		return afxCurrentResourceHandle; }

  0016a	e8 00 00 00 00	 call	 ?AfxGetModuleState@@YGPAVAFX_MODULE_STATE@@XZ ; AfxGetModuleState
; File D:\git\src\IBK\IBK_DRFN\ProjSrc\SrcDrfn\Chart\MULTICHART\DlgSTExOption.cpp

; 209  : 	AfxSetResourceHandle(g_hInstance);

  0016f	8b 35 00 00 00
	00		 mov	 esi, DWORD PTR ?g_hInstance@@3PAUHINSTANCE__@@A ; g_hInstance
; File C:\Program Files (x86)\Microsoft Visual Studio\2019\Community\VC\Tools\MSVC\14.29.30133\atlmfc\include\afxwin1.inl

; 25   : 		return afxCurrentResourceHandle; }

  00175	8b 40 0c	 mov	 eax, DWORD PTR [eax+12]
  00178	89 45 d8	 mov	 DWORD PTR _hOld$1$[ebp], eax

; 27   : 	{ ASSERT(hInstResource != NULL); afxCurrentResourceHandle = hInstResource; }

  0017b	e8 00 00 00 00	 call	 ?AfxGetModuleState@@YGPAVAFX_MODULE_STATE@@XZ ; AfxGetModuleState
; File D:\git\src\IBK\IBK_DRFN\ProjSrc\SrcDrfn\Chart\MULTICHART\DlgSTExOption.cpp

; 211  : 	CString szDllName;

  00180	8d 4d d4	 lea	 ecx, DWORD PTR _szDllName$[ebp]
; File C:\Program Files (x86)\Microsoft Visual Studio\2019\Community\VC\Tools\MSVC\14.29.30133\atlmfc\include\afxwin1.inl

; 27   : 	{ ASSERT(hInstResource != NULL); afxCurrentResourceHandle = hInstResource; }

  00183	89 70 0c	 mov	 DWORD PTR [eax+12], esi
; File D:\git\src\IBK\IBK_DRFN\ProjSrc\SrcDrfn\Chart\MULTICHART\DlgSTExOption.cpp

; 211  : 	CString szDllName;

  00186	ff 15 00 00 00
	00		 call	 DWORD PTR __imp_??0?$CStringT@DV?$StrTraitMFC_DLL@DV?$ChTraitsCRT@D@ATL@@@@@ATL@@QAE@XZ

; 212  : 	szDllName.Format("%s%s", pParentDlg->m_szRootDir, "\\Dev\\HWStrategyAnalysis");	// DLL .

  0018c	68 00 00 00 00	 push	 OFFSET ??_C@_0BI@NPODHFEC@?2Dev?2HWStrategyAnalysis@
  00191	ff b7 1c 08 00
	00		 push	 DWORD PTR [edi+2076]
  00197	8d 45 d4	 lea	 eax, DWORD PTR _szDllName$[ebp]
  0019a	c7 45 fc 02 00
	00 00		 mov	 DWORD PTR __$EHRec$[ebp+8], 2
  001a1	68 00 00 00 00	 push	 OFFSET ??_C@_04HDOCAJNK@?$CFs?$CFs@
  001a6	50		 push	 eax
  001a7	ff 15 00 00 00
	00		 call	 DWORD PTR __imp_?Format@?$CStringT@DV?$StrTraitMFC_DLL@DV?$ChTraitsCRT@D@ATL@@@@@ATL@@QAAXPBDZZ

; 213  : //	CDllDlg dlg(szDllName, "", &pParentDlg->m_xSTInterface, NULL,this);	
; 214  : //	dlg.m_strImageDir = pParentDlg->m_pParentDlg->m_szImageDir;
; 215  : //	dlg.DoModal();
; 216  : 
; 217  : 	if(m_pDlgAnalysis)

  001ad	8b 8b 08 08 00
	00		 mov	 ecx, DWORD PTR [ebx+2056]
  001b3	83 c4 10	 add	 esp, 16			; 00000010H
  001b6	85 c9		 test	 ecx, ecx
  001b8	74 20		 je	 SHORT $LN12@OnBnClicke

; 218  : 	{
; 219  : 		m_pDlgAnalysis->DestroyWindow();

  001ba	8b 01		 mov	 eax, DWORD PTR [ecx]
  001bc	ff 50 68	 call	 DWORD PTR [eax+104]

; 220  : 		delete m_pDlgAnalysis;

  001bf	8b 8b 08 08 00
	00		 mov	 ecx, DWORD PTR [ebx+2056]
  001c5	85 c9		 test	 ecx, ecx
  001c7	74 07		 je	 SHORT $LN17@OnBnClicke
  001c9	8b 01		 mov	 eax, DWORD PTR [ecx]
  001cb	6a 01		 push	 1
  001cd	ff 50 04	 call	 DWORD PTR [eax+4]
$LN17@OnBnClicke:

; 221  : 		m_pDlgAnalysis = NULL;

  001d0	c7 83 08 08 00
	00 00 00 00 00	 mov	 DWORD PTR [ebx+2056], 0
$LN12@OnBnClicke:
; File C:\Program Files (x86)\Microsoft Visual Studio\2019\Community\VC\Tools\MSVC\14.29.30133\atlmfc\include\afx.inl

; 116  : 	{ return ::operator new(nSize); }

  001da	68 f8 00 00 00	 push	 248			; 000000f8H
  001df	e8 00 00 00 00	 call	 ??2@YAPAXI@Z		; operator new
  001e4	83 c4 04	 add	 esp, 4
; File D:\git\src\IBK\IBK_DRFN\ProjSrc\SrcDrfn\Chart\MULTICHART\DlgSTExOption.cpp

; 223  : 	m_pDlgAnalysis = new CDllDlg(szDllName, "", &pParentDlg->m_xSTInterface, hOld,this);

  001e7	89 45 dc	 mov	 DWORD PTR $T3[ebp], eax
  001ea	8b 75 d8	 mov	 esi, DWORD PTR _hOld$1$[ebp]
  001ed	c6 45 fc 03	 mov	 BYTE PTR __$EHRec$[ebp+8], 3
  001f1	85 c0		 test	 eax, eax
  001f3	74 33		 je	 SHORT $LN19@OnBnClicke
  001f5	53		 push	 ebx
  001f6	56		 push	 esi
  001f7	8d 8f 70 09 00
	00		 lea	 ecx, DWORD PTR [edi+2416]
  001fd	51		 push	 ecx
  001fe	68 00 00 00 00	 push	 OFFSET ??_C@_0L@OPFBKEGP@?$LM?$LK?$LA?z?$LK?$LI?$LA?m?$LM?$KN@
  00203	ff 75 d4	 push	 DWORD PTR _szDllName$[ebp]
  00206	8b c8		 mov	 ecx, eax
  00208	e8 00 00 00 00	 call	 ??0CDllDlg@@QAE@PBD0PAXPAUHINSTANCE__@@PAVCWnd@@@Z ; CDllDlg::CDllDlg
  0020d	8b c8		 mov	 ecx, eax
  0020f	eb 19		 jmp	 SHORT $LN20@OnBnClicke
$LN10@OnBnClicke:

; 199  : 			}
; 200  : 			else	// IDNO
; 201  : 			{
; 202  : 				return;

  00211	8d 4d d8	 lea	 ecx, DWORD PTR _strMsg$2[ebp]
  00214	ff 15 00 00 00
	00		 call	 DWORD PTR __imp_??1?$CStringT@DV?$StrTraitMFC_DLL@DV?$ChTraitsCRT@D@ATL@@@@@ATL@@QAE@XZ
  0021a	8d 4d dc	 lea	 ecx, DWORD PTR _strSTPath$4[ebp]
  0021d	ff 15 00 00 00
	00		 call	 DWORD PTR __imp_??1?$CStringT@DV?$StrTraitMFC_DLL@DV?$ChTraitsCRT@D@ATL@@@@@ATL@@QAE@XZ
  00223	e9 a6 00 00 00	 jmp	 $LN1@OnBnClicke
$LN19@OnBnClicke:

; 223  : 	m_pDlgAnalysis = new CDllDlg(szDllName, "", &pParentDlg->m_xSTInterface, hOld,this);

  00228	33 c9		 xor	 ecx, ecx
$LN20@OnBnClicke:
  0022a	89 8b 08 08 00
	00		 mov	 DWORD PTR [ebx+2056], ecx

; 224  : 	m_pDlgAnalysis->m_strImageDir = pParentDlg->m_pParentDlg->m_szImageDir;

  00230	81 c1 c8 00 00
	00		 add	 ecx, 200		; 000000c8H
  00236	8b 87 bc 00 00
	00		 mov	 eax, DWORD PTR [edi+188]
  0023c	05 ac 01 00 00	 add	 eax, 428		; 000001acH
  00241	c6 45 fc 02	 mov	 BYTE PTR __$EHRec$[ebp+8], 2
  00245	50		 push	 eax
  00246	ff 15 00 00 00
	00		 call	 DWORD PTR __imp_??4?$CStringT@DV?$StrTraitMFC_DLL@DV?$ChTraitsCRT@D@ATL@@@@@ATL@@QAEAAV01@ABV01@@Z

; 225  : 	if(m_pDlgAnalysis)

  0024c	8b 8b 08 08 00
	00		 mov	 ecx, DWORD PTR [ebx+2056]
  00252	85 c9		 test	 ecx, ecx
  00254	74 57		 je	 SHORT $LN13@OnBnClicke

; 226  : 	{
; 227  : 		if(!m_pDlgAnalysis->Create(CDllDlg::IDD))

  00256	8b 01		 mov	 eax, DWORD PTR [ecx]
  00258	6a 00		 push	 0
  0025a	68 ae 17 00 00	 push	 6062			; 000017aeH
  0025f	ff 90 6c 01 00
	00		 call	 DWORD PTR [eax+364]
  00265	85 c0		 test	 eax, eax
  00267	74 44		 je	 SHORT $LN13@OnBnClicke

; 228  : 		{
; 229  : 			AfxSetResourceHandle(hOld);
; 230  : 			return;
; 231  : 		}
; 232  : 		
; 233  : 		CRect rcChart;
; 234  : 		CChartMng* pChartMng = (CChartMng*)pParentDlg->m_pChartMng;

  00269	8b 87 c4 00 00
	00		 mov	 eax, DWORD PTR [edi+196]
  0026f	0f 57 c0	 xorps	 xmm0, xmm0
; File C:\Program Files (x86)\Microsoft Visual Studio\2019\Community\VC\Tools\MSVC\14.29.30133\atlmfc\include\atltypes.h

; 528  : 	left = 0;

  00272	0f 11 45 e0	 movups	 XMMWORD PTR _rcChart$5[ebp], xmm0
; File D:\git\src\IBK\IBK_DRFN\ProjSrc\SrcDrfn\Chart\MULTICHART\DlgSTExOption.cpp

; 235  : 		if(pChartMng)

  00276	85 c0		 test	 eax, eax
  00278	74 0d		 je	 SHORT $LN15@OnBnClicke
; File C:\Program Files (x86)\Microsoft Visual Studio\2019\Community\VC\Tools\MSVC\14.29.30133\atlmfc\include\afxwin2.inl

; 84   : 	{ ASSERT(::IsWindow(m_hWnd)); ::GetWindowRect(m_hWnd, lpRect); }

  0027a	8d 4d e0	 lea	 ecx, DWORD PTR _rcChart$5[ebp]
  0027d	51		 push	 ecx
  0027e	ff 70 20	 push	 DWORD PTR [eax+32]
  00281	ff 15 00 00 00
	00		 call	 DWORD PTR __imp__GetWindowRect@8
$LN15@OnBnClicke:
; File D:\git\src\IBK\IBK_DRFN\ProjSrc\SrcDrfn\Chart\MULTICHART\DlgSTExOption.cpp

; 238  : 		m_pDlgAnalysis->SetWindowPos(NULL, rcChart.left, rcChart.top,0,0, SWP_NOSIZE);

  00287	8b 8b 08 08 00
	00		 mov	 ecx, DWORD PTR [ebx+2056]
  0028d	6a 01		 push	 1
  0028f	6a 00		 push	 0
  00291	6a 00		 push	 0
  00293	ff 75 e4	 push	 DWORD PTR _rcChart$5[ebp+4]
  00296	ff 75 e0	 push	 DWORD PTR _rcChart$5[ebp]
  00299	6a 00		 push	 0
  0029b	e8 00 00 00 00	 call	 ?SetWindowPos@CWnd@@QAEHPBV1@HHHHI@Z ; CWnd::SetWindowPos

; 239  : 		m_pDlgAnalysis->ShowWindow(SW_SHOW);

  002a0	8b 8b 08 08 00
	00		 mov	 ecx, DWORD PTR [ebx+2056]
  002a6	6a 05		 push	 5
  002a8	e8 00 00 00 00	 call	 ?ShowWindow@CWnd@@QAEHH@Z ; CWnd::ShowWindow
$LN13@OnBnClicke:

; 240  : 	}
; 241  : 	//<< KB ISSUE#152 - vntsorl(20100305)
; 242  : 	
; 243  : 	AfxSetResourceHandle(hOld);
; 244  : 
; 245  : 
; 246  : }

  002ad	e8 00 00 00 00	 call	 ?AfxGetModuleState@@YGPAVAFX_MODULE_STATE@@XZ ; AfxGetModuleState
  002b2	8d 4d d4	 lea	 ecx, DWORD PTR _szDllName$[ebp]
  002b5	89 70 0c	 mov	 DWORD PTR [eax+12], esi
  002b8	ff 15 00 00 00
	00		 call	 DWORD PTR __imp_??1?$CStringT@DV?$StrTraitMFC_DLL@DV?$ChTraitsCRT@D@ATL@@@@@ATL@@QAE@XZ
  002be	eb 0e		 jmp	 SHORT $LN1@OnBnClicke
$LN3@OnBnClicke:

; 159  : 		pParentDlg->m_xSTAnalysisInput.m_InfoForAnalysis.szSTRData.Find("")>=0)
; 160  : 	{
; 161  : 		AfxMessageBox("  .");

  002c0	6a 00		 push	 0
  002c2	6a 00		 push	 0
  002c4	68 00 00 00 00	 push	 OFFSET ??_C@_0CC@GDBOGPKH@?$LA?$KN?$LM?$LM?$LO?$OA?$LM?$LM?$LE?B?5?$LM?$LK?$LA?z?$LK?P?$LM?$KO?$MA?L?5?$LK?R?$LA?$KB?G?U?$LE?O?$LE@
$LN51@OnBnClicke:

; 240  : 	}
; 241  : 	//<< KB ISSUE#152 - vntsorl(20100305)
; 242  : 	
; 243  : 	AfxSetResourceHandle(hOld);
; 244  : 
; 245  : 
; 246  : }

  002c9	e8 00 00 00 00	 call	 ?AfxMessageBox@@YGHPBDII@Z ; AfxMessageBox
$LN1@OnBnClicke:
  002ce	8b 4d f4	 mov	 ecx, DWORD PTR __$EHRec$[ebp]
  002d1	64 89 0d 00 00
	00 00		 mov	 DWORD PTR fs:0, ecx
  002d8	59		 pop	 ecx
  002d9	5f		 pop	 edi
  002da	5e		 pop	 esi
  002db	5b		 pop	 ebx
  002dc	8b 4d f0	 mov	 ecx, DWORD PTR __$ArrayPad$[ebp]
  002df	33 cd		 xor	 ecx, ebp
  002e1	e8 00 00 00 00	 call	 @__security_check_cookie@4
  002e6	8b e5		 mov	 esp, ebp
  002e8	5d		 pop	 ebp
  002e9	c3		 ret	 0
_TEXT	ENDS
;	COMDAT text$x
text$x	SEGMENT
__unwindfunclet$?OnBnClickedStreport@CDlgSTExOption@@IAEXXZ$0:
  00000	8d 4d dc	 lea	 ecx, DWORD PTR _strSTPath$4[ebp]
  00003	ff 25 00 00 00
	00		 jmp	 DWORD PTR __imp_??1?$CStringT@DV?$StrTraitMFC_DLL@DV?$ChTraitsCRT@D@ATL@@@@@ATL@@QAE@XZ
__unwindfunclet$?OnBnClickedStreport@CDlgSTExOption@@IAEXXZ$1:
  00009	8d 4d d8	 lea	 ecx, DWORD PTR _strMsg$2[ebp]
  0000c	ff 25 00 00 00
	00		 jmp	 DWORD PTR __imp_??1?$CStringT@DV?$StrTraitMFC_DLL@DV?$ChTraitsCRT@D@ATL@@@@@ATL@@QAE@XZ
__unwindfunclet$?OnBnClickedStreport@CDlgSTExOption@@IAEXXZ$2:
  00012	8d 4d d4	 lea	 ecx, DWORD PTR _szDllName$[ebp]
  00015	ff 25 00 00 00
	00		 jmp	 DWORD PTR __imp_??1?$CStringT@DV?$StrTraitMFC_DLL@DV?$ChTraitsCRT@D@ATL@@@@@ATL@@QAE@XZ
__unwindfunclet$?OnBnClickedStreport@CDlgSTExOption@@IAEXXZ$3:
  0001b	8b 45 dc	 mov	 eax, DWORD PTR $T3[ebp]
  0001e	50		 push	 eax
  0001f	e8 00 00 00 00	 call	 ??3CObject@@SGXPAX@Z	; CObject::operator delete
  00024	c3		 ret	 0
  00025	cc		 int	 3
  00026	cc		 int	 3
  00027	cc		 int	 3
  00028	cc		 int	 3
  00029	cc		 int	 3
__ehhandler$?OnBnClickedStreport@CDlgSTExOption@@IAEXXZ:
  0002a	90		 npad	 1
  0002b	90		 npad	 1
  0002c	8b 54 24 08	 mov	 edx, DWORD PTR [esp+8]
  00030	8d 42 0c	 lea	 eax, DWORD PTR [edx+12]
  00033	8b 4a d0	 mov	 ecx, DWORD PTR [edx-48]
  00036	33 c8		 xor	 ecx, eax
  00038	e8 00 00 00 00	 call	 @__security_check_cookie@4
  0003d	8b 4a fc	 mov	 ecx, DWORD PTR [edx-4]
  00040	33 c8		 xor	 ecx, eax
  00042	e8 00 00 00 00	 call	 @__security_check_cookie@4
  00047	b8 00 00 00 00	 mov	 eax, OFFSET __ehfuncinfo$?OnBnClickedStreport@CDlgSTExOption@@IAEXXZ
  0004c	e9 00 00 00 00	 jmp	 ___CxxFrameHandler3
text$x	ENDS
?OnBnClickedStreport@CDlgSTExOption@@IAEXXZ ENDP	; CDlgSTExOption::OnBnClickedStreport
; Function compile flags: /Ogtp
; File D:\git\src\IBK\IBK_DRFN\ProjSrc\SrcDrfn\Chart\MULTICHART\DlgSTExOption.cpp
; File C:\Program Files (x86)\Microsoft Visual Studio\2019\Community\VC\Tools\MSVC\14.29.30133\atlmfc\include\afxwin2.inl
; File D:\git\src\IBK\IBK_DRFN\ProjSrc\SrcDrfn\Chart\MULTICHART\DlgSTExOption.cpp
;	COMDAT ?OnBnClickedStshowoption@CDlgSTExOption@@IAEXXZ
_TEXT	SEGMENT
?OnBnClickedStshowoption@CDlgSTExOption@@IAEXXZ PROC	; CDlgSTExOption::OnBnClickedStshowoption, COMDAT
; _this$ = ecx
; File C:\Program Files (x86)\Microsoft Visual Studio\2019\Community\VC\Tools\MSVC\14.29.30133\atlmfc\include\afxwin2.inl

; 213  : 	{ ASSERT(::IsWindow(m_hWnd)); return CWnd::FromHandle(::GetParent(m_hWnd)); }

  00000	ff 71 20	 push	 DWORD PTR [ecx+32]
  00003	ff 15 00 00 00
	00		 call	 DWORD PTR __imp__GetParent@4
  00009	50		 push	 eax
  0000a	e8 00 00 00 00	 call	 ?FromHandle@CWnd@@SGPAV1@PAUHWND__@@@Z ; CWnd::FromHandle
; File D:\git\src\IBK\IBK_DRFN\ProjSrc\SrcDrfn\Chart\MULTICHART\DlgSTExOption.cpp

; 142  : 	pParentDlg->HideStOptimaA();

  0000f	8b c8		 mov	 ecx, eax
  00011	e9 00 00 00 00	 jmp	 ?HideStOptimaA@CTabSystemTradingEx@@QAEXXZ ; CTabSystemTradingEx::HideStOptimaA
?OnBnClickedStshowoption@CDlgSTExOption@@IAEXXZ ENDP	; CDlgSTExOption::OnBnClickedStshowoption
_TEXT	ENDS
; Function compile flags: /Ogtp
; File D:\git\src\IBK\IBK_DRFN\ProjSrc\SrcDrfn\Chart\MULTICHART\DlgSTExOption.cpp
; File C:\Program Files (x86)\Microsoft Visual Studio\2019\Community\VC\Tools\MSVC\14.29.30133\atlmfc\include\afxwin2.inl
; File D:\git\src\IBK\IBK_DRFN\ProjSrc\SrcDrfn\Chart\MULTICHART\DlgSTExOption.cpp
; File D:\git\src\IBK\IBK_DRFN\ProjSrc\SrcDrfn\Chart\MULTICHART\TabSystemTradingEx.h
; File C:\Program Files (x86)\Microsoft Visual Studio\2019\Community\VC\Tools\MSVC\14.29.30133\atlmfc\include\afxwin1.inl
; File D:\git\src\IBK\IBK_DRFN\ProjSrc\SrcDrfn\Chart\MULTICHART\DlgSTExOption.cpp
; File C:\Program Files (x86)\Microsoft Visual Studio\2019\Community\VC\Tools\MSVC\14.29.30133\atlmfc\include\afxwin1.inl
; File D:\git\src\IBK\IBK_DRFN\ProjSrc\SrcDrfn\Chart\MULTICHART\DlgSTExOption.cpp
;	COMDAT ?OnCtlColor@CDlgSTExOption@@IAEPAUHBRUSH__@@PAVCDC@@PAVCWnd@@I@Z
_TEXT	SEGMENT
_pDC$ = 8						; size = 4
_pWnd$ = 12						; size = 4
_nCtlColor$ = 16					; size = 4
?OnCtlColor@CDlgSTExOption@@IAEPAUHBRUSH__@@PAVCDC@@PAVCWnd@@I@Z PROC ; CDlgSTExOption::OnCtlColor, COMDAT
; _this$ = ecx

; 388  : {

  00000	55		 push	 ebp
  00001	8b ec		 mov	 ebp, esp
  00003	53		 push	 ebx
  00004	56		 push	 esi

; 389  : 	HBRUSH hbr = CDialog::OnCtlColor(pDC, pWnd, nCtlColor);

  00005	8b 75 10	 mov	 esi, DWORD PTR _nCtlColor$[ebp]
  00008	8b d9		 mov	 ebx, ecx
  0000a	57		 push	 edi
  0000b	8b 7d 08	 mov	 edi, DWORD PTR _pDC$[ebp]
  0000e	56		 push	 esi
  0000f	ff 75 0c	 push	 DWORD PTR _pWnd$[ebp]
  00012	57		 push	 edi
  00013	e8 00 00 00 00	 call	 ?OnCtlColor@CWnd@@IAEPAUHBRUSH__@@PAVCDC@@PAV1@I@Z ; CWnd::OnCtlColor

; 390  : 
; 391  : 	// TODO: Change any attributes of the DC here
; 392  : 	switch(nCtlColor) 

  00018	83 ee 01	 sub	 esi, 1
  0001b	74 37		 je	 SHORT $LN1@OnCtlColor
  0001d	83 ee 01	 sub	 esi, 1
  00020	74 32		 je	 SHORT $LN1@OnCtlColor
; File C:\Program Files (x86)\Microsoft Visual Studio\2019\Community\VC\Tools\MSVC\14.29.30133\atlmfc\include\afxwin2.inl

; 213  : 	{ ASSERT(::IsWindow(m_hWnd)); return CWnd::FromHandle(::GetParent(m_hWnd)); }

  00022	ff 73 20	 push	 DWORD PTR [ebx+32]
  00025	ff 15 00 00 00
	00		 call	 DWORD PTR __imp__GetParent@4
  0002b	50		 push	 eax
  0002c	e8 00 00 00 00	 call	 ?FromHandle@CWnd@@SGPAV1@PAUHWND__@@@Z ; CWnd::FromHandle
; File D:\git\src\IBK\IBK_DRFN\ProjSrc\SrcDrfn\Chart\MULTICHART\DlgSTExOption.cpp

; 400  : 			pDC->SetBkColor(pParentDlg->GetBkColor());

  00031	8b 17		 mov	 edx, DWORD PTR [edi]
  00033	8b f0		 mov	 esi, eax
  00035	8b cf		 mov	 ecx, edi
  00037	ff b6 d0 00 00
	00		 push	 DWORD PTR [esi+208]
  0003d	ff 52 34	 call	 DWORD PTR [edx+52]
; File D:\git\src\IBK\IBK_DRFN\ProjSrc\SrcDrfn\Chart\MULTICHART\TabSystemTradingEx.h

; 74   : 	HBRUSH GetBkColorBrush() { return (HBRUSH)m_brBkColor.GetSafeHandle(); }

  00040	8d 86 c8 00 00
	00		 lea	 eax, DWORD PTR [esi+200]
; File C:\Program Files (x86)\Microsoft Visual Studio\2019\Community\VC\Tools\MSVC\14.29.30133\atlmfc\include\afxwin1.inl

; 68   : 	{ return this == NULL ? NULL : m_hObject; }

  00046	85 c0		 test	 eax, eax
  00048	75 07		 jne	 SHORT $LN14@OnCtlColor
; File D:\git\src\IBK\IBK_DRFN\ProjSrc\SrcDrfn\Chart\MULTICHART\DlgSTExOption.cpp

; 408  : }

  0004a	5f		 pop	 edi
  0004b	5e		 pop	 esi
  0004c	5b		 pop	 ebx
  0004d	5d		 pop	 ebp
  0004e	c2 0c 00	 ret	 12			; 0000000cH
$LN14@OnCtlColor:
; File C:\Program Files (x86)\Microsoft Visual Studio\2019\Community\VC\Tools\MSVC\14.29.30133\atlmfc\include\afxwin1.inl

; 68   : 	{ return this == NULL ? NULL : m_hObject; }

  00051	8b 40 04	 mov	 eax, DWORD PTR [eax+4]
$LN1@OnCtlColor:
  00054	5f		 pop	 edi
; File D:\git\src\IBK\IBK_DRFN\ProjSrc\SrcDrfn\Chart\MULTICHART\DlgSTExOption.cpp

; 408  : }

  00055	5e		 pop	 esi
  00056	5b		 pop	 ebx
  00057	5d		 pop	 ebp
  00058	c2 0c 00	 ret	 12			; 0000000cH
?OnCtlColor@CDlgSTExOption@@IAEPAUHBRUSH__@@PAVCDC@@PAVCWnd@@I@Z ENDP ; CDlgSTExOption::OnCtlColor
_TEXT	ENDS
; Function compile flags: /Ogtp
; File D:\git\src\IBK\IBK_DRFN\ProjSrc\SrcDrfn\Chart\MULTICHART\DlgSTExOption.cpp
; File C:\Program Files (x86)\Microsoft Visual Studio\2019\Community\VC\Tools\MSVC\14.29.30133\atlmfc\include\afxwin2.inl
; File D:\git\src\IBK\IBK_DRFN\ProjSrc\SrcDrfn\Chart\MULTICHART\DlgSTExOption.cpp
; File C:\Program Files (x86)\Microsoft Visual Studio\2019\Community\VC\Tools\MSVC\14.29.30133\atlmfc\include\afxwin2.inl
; File D:\git\src\IBK\IBK_DRFN\ProjSrc\SrcDrfn\Chart\MULTICHART\DlgSTExOption.cpp
; File C:\Program Files (x86)\Microsoft Visual Studio\2019\Community\VC\Tools\MSVC\14.29.30133\atlmfc\include\atltypes.h
; File D:\git\src\IBK\IBK_DRFN\ProjSrc\SrcDrfn\Chart\MULTICHART\DlgSTExOption.cpp
;	COMDAT ?OnSize@CDlgSTExOption@@IAEXIHH@Z
_TEXT	SEGMENT
_nType$ = 8						; size = 4
_cx$ = 12						; size = 4
_cy$ = 16						; size = 4
?OnSize@CDlgSTExOption@@IAEXIHH@Z PROC			; CDlgSTExOption::OnSize, COMDAT
; _this$ = ecx

; 411  : {

  00000	55		 push	 ebp
  00001	8b ec		 mov	 ebp, esp
  00003	56		 push	 esi
  00004	8b f1		 mov	 esi, ecx
; File C:\Program Files (x86)\Microsoft Visual Studio\2019\Community\VC\Tools\MSVC\14.29.30133\atlmfc\include\afxwin2.inl

; 330  : 	{ Default(); }

  00006	e8 00 00 00 00	 call	 ?Default@CWnd@@IAEJXZ	; CWnd::Default
; File D:\git\src\IBK\IBK_DRFN\ProjSrc\SrcDrfn\Chart\MULTICHART\DlgSTExOption.cpp

; 415  : 	if(m_CtlList.GetSafeHwnd())

  0000b	8d 8e c0 01 00
	00		 lea	 ecx, DWORD PTR [esi+448]
; File C:\Program Files (x86)\Microsoft Visual Studio\2019\Community\VC\Tools\MSVC\14.29.30133\atlmfc\include\afxwin2.inl

; 25   : 	{ return this == NULL ? NULL : m_hWnd; }

  00011	85 c9		 test	 ecx, ecx
  00013	74 23		 je	 SHORT $LN2@OnSize
; File D:\git\src\IBK\IBK_DRFN\ProjSrc\SrcDrfn\Chart\MULTICHART\DlgSTExOption.cpp

; 415  : 	if(m_CtlList.GetSafeHwnd())

  00015	83 79 20 00	 cmp	 DWORD PTR [ecx+32], 0
  00019	74 1d		 je	 SHORT $LN2@OnSize
; File C:\Program Files (x86)\Microsoft Visual Studio\2019\Community\VC\Tools\MSVC\14.29.30133\atlmfc\include\atltypes.h

; 581  : 	return bottom - top;

  0001b	8b 86 fc 07 00
	00		 mov	 eax, DWORD PTR [esi+2044]
  00021	2b 86 f4 07 00
	00		 sub	 eax, DWORD PTR [esi+2036]
; File D:\git\src\IBK\IBK_DRFN\ProjSrc\SrcDrfn\Chart\MULTICHART\DlgSTExOption.cpp

; 417  : 		m_CtlList.SetWindowPos(NULL, 0, 0, cx, m_rcList.Height(), SWP_NOACTIVATE|SWP_NOMOVE);

  00027	6a 12		 push	 18			; 00000012H
  00029	50		 push	 eax
  0002a	ff 75 0c	 push	 DWORD PTR _cx$[ebp]
  0002d	6a 00		 push	 0
  0002f	6a 00		 push	 0
  00031	6a 00		 push	 0
  00033	e8 00 00 00 00	 call	 ?SetWindowPos@CWnd@@QAEHPBV1@HHHHI@Z ; CWnd::SetWindowPos
$LN2@OnSize:
  00038	5e		 pop	 esi

; 418  : 	}
; 419  : }

  00039	5d		 pop	 ebp
  0003a	c2 0c 00	 ret	 12			; 0000000cH
?OnSize@CDlgSTExOption@@IAEXIHH@Z ENDP			; CDlgSTExOption::OnSize
_TEXT	ENDS
; Function compile flags: /Ogtp
; File D:\git\src\IBK\IBK_DRFN\ProjSrc\SrcDrfn\Chart\MULTICHART\DlgSTExOption.cpp
; File C:\Program Files (x86)\Microsoft Visual Studio\2019\Community\VC\Tools\MSVC\14.29.30133\atlmfc\include\afxcmn2.inl
; File D:\git\src\IBK\IBK_DRFN\ProjSrc\SrcDrfn\Chart\MULTICHART\DlgSTExOption.cpp
; File C:\Program Files (x86)\Microsoft Visual Studio\2019\Community\VC\Tools\MSVC\14.29.30133\atlmfc\include\afxcmn2.inl
; File D:\git\src\IBK\IBK_DRFN\ProjSrc\SrcDrfn\Chart\MULTICHART\DlgSTExOption.cpp
; File C:\Program Files (x86)\Microsoft Visual Studio\2019\Community\VC\Tools\MSVC\14.29.30133\atlmfc\include\afxcmn.inl
; File D:\git\src\IBK\IBK_DRFN\ProjSrc\SrcDrfn\Chart\MULTICHART\DlgSTExOption.cpp
; File C:\Program Files (x86)\Microsoft Visual Studio\2019\Community\VC\Tools\MSVC\14.29.30133\atlmfc\include\afxcmn.inl
; File D:\git\src\IBK\IBK_DRFN\ProjSrc\SrcDrfn\Chart\MULTICHART\DlgSTExOption.cpp
; File C:\Program Files (x86)\Microsoft Visual Studio\2019\Community\VC\Tools\MSVC\14.29.30133\atlmfc\include\afxwin2.inl
; File D:\git\src\IBK\IBK_DRFN\ProjSrc\SrcDrfn\Chart\MULTICHART\DlgSTExOption.cpp
; File C:\Program Files (x86)\Microsoft Visual Studio\2019\Community\VC\Tools\MSVC\14.29.30133\atlmfc\include\afxwin2.inl
; File D:\git\src\IBK\IBK_DRFN\ProjSrc\SrcDrfn\Chart\MULTICHART\DlgSTExOption.cpp
; File C:\Program Files (x86)\Microsoft Visual Studio\2019\Community\VC\Tools\MSVC\14.29.30133\atlmfc\include\afxwin2.inl
; File D:\git\src\IBK\IBK_DRFN\ProjSrc\SrcDrfn\Chart\MULTICHART\DlgSTExOption.cpp
; File C:\Program Files (x86)\Microsoft Visual Studio\2019\Community\VC\Tools\MSVC\14.29.30133\atlmfc\include\afxwin2.inl
; File D:\git\src\IBK\IBK_DRFN\ProjSrc\SrcDrfn\Chart\MULTICHART\DlgSTExOption.cpp
; File C:\Program Files (x86)\Microsoft Visual Studio\2019\Community\VC\Tools\MSVC\14.29.30133\atlmfc\include\afxwin2.inl
; File D:\git\src\IBK\IBK_DRFN\ProjSrc\SrcDrfn\Chart\MULTICHART\DlgSTExOption.cpp
;	COMDAT ?OnInitDialog@CDlgSTExOption@@MAEHXZ
_TEXT	SEGMENT
_lvcolumn$2 = -96					; size = 44
_szKey$3 = -48						; size = 4
_lpszHeadersType0$4 = -44				; size = 16
_colwidthsType0$5 = -28					; size = 12
__$ArrayPad$ = -16					; size = 4
__$EHRec$ = -12						; size = 12
?OnInitDialog@CDlgSTExOption@@MAEHXZ PROC		; CDlgSTExOption::OnInitDialog, COMDAT
; _this$ = ecx

; 65   : {

  00000	55		 push	 ebp
  00001	8b ec		 mov	 ebp, esp
  00003	6a ff		 push	 -1
  00005	68 00 00 00 00	 push	 __ehhandler$?OnInitDialog@CDlgSTExOption@@MAEHXZ
  0000a	64 a1 00 00 00
	00		 mov	 eax, DWORD PTR fs:0
  00010	50		 push	 eax
  00011	83 ec 54	 sub	 esp, 84			; 00000054H
  00014	a1 00 00 00 00	 mov	 eax, DWORD PTR ___security_cookie
  00019	33 c5		 xor	 eax, ebp
  0001b	89 45 f0	 mov	 DWORD PTR __$ArrayPad$[ebp], eax
  0001e	53		 push	 ebx
  0001f	56		 push	 esi
  00020	57		 push	 edi
  00021	50		 push	 eax
  00022	8d 45 f4	 lea	 eax, DWORD PTR __$EHRec$[ebp]
  00025	64 a3 00 00 00
	00		 mov	 DWORD PTR fs:0, eax
  0002b	8b f1		 mov	 esi, ecx

; 66   : 	CDialog::OnInitDialog();

  0002d	e8 00 00 00 00	 call	 ?OnInitDialog@CDialog@@UAEHXZ ; CDialog::OnInitDialog
; File C:\Program Files (x86)\Microsoft Visual Studio\2019\Community\VC\Tools\MSVC\14.29.30133\atlmfc\include\afxcmn2.inl

; 117  : 	{ ASSERT(::IsWindow(m_hWnd)); return (DWORD) ::SendMessage(m_hWnd, LVM_SETEXTENDEDLISTVIEWSTYLE, 0, (LPARAM) dwNewStyle); }

  00032	8b 1d 00 00 00
	00		 mov	 ebx, DWORD PTR __imp__SendMessageA@16
  00038	6a 20		 push	 32			; 00000020H
  0003a	6a 00		 push	 0
  0003c	68 36 10 00 00	 push	 4150			; 00001036H
  00041	ff b6 e0 01 00
	00		 push	 DWORD PTR [esi+480]
; File D:\git\src\IBK\IBK_DRFN\ProjSrc\SrcDrfn\Chart\MULTICHART\DlgSTExOption.cpp

; 364  : 	int colwidthsType0[3] = { 14, 70, 70};	// KHD :  sixty-fourths

  00047	c7 45 e4 0e 00
	00 00		 mov	 DWORD PTR _colwidthsType0$5[ebp], 14 ; 0000000eH
  0004e	c7 45 e8 46 00
	00 00		 mov	 DWORD PTR _colwidthsType0$5[ebp+4], 70 ; 00000046H
  00055	c7 45 ec 46 00
	00 00		 mov	 DWORD PTR _colwidthsType0$5[ebp+8], 70 ; 00000046H

; 365  : 
; 366  : 	TCHAR *	lpszHeadersType0[] = { _T(" "), _T(""), _T(""),NULL };

  0005c	c7 45 d4 00 00
	00 00		 mov	 DWORD PTR _lpszHeadersType0$4[ebp], OFFSET ??_C@_01CLKCMJKC@?5@
  00063	c7 45 d8 00 00
	00 00		 mov	 DWORD PTR _lpszHeadersType0$4[ebp+4], OFFSET ??_C@_04EGBBAPDL@?$LN?C?$MA?$NL@
  0006a	c7 45 dc 00 00
	00 00		 mov	 DWORD PTR _lpszHeadersType0$4[ebp+8], OFFSET ??_C@_02HALKOLAM@?$LD?$KB@
  00071	c7 45 e0 00 00
	00 00		 mov	 DWORD PTR _lpszHeadersType0$4[ebp+12], 0
; File C:\Program Files (x86)\Microsoft Visual Studio\2019\Community\VC\Tools\MSVC\14.29.30133\atlmfc\include\afxcmn2.inl

; 117  : 	{ ASSERT(::IsWindow(m_hWnd)); return (DWORD) ::SendMessage(m_hWnd, LVM_SETEXTENDEDLISTVIEWSTYLE, 0, (LPARAM) dwNewStyle); }

  00078	ff d3		 call	 ebx
  0007a	0f 57 c0	 xorps	 xmm0, xmm0
; File D:\git\src\IBK\IBK_DRFN\ProjSrc\SrcDrfn\Chart\MULTICHART\DlgSTExOption.cpp

; 371  : 	memset(&lvcolumn, 0, sizeof(lvcolumn));

  0007d	c7 45 b0 00 00
	00 00		 mov	 DWORD PTR _lvcolumn$2[ebp+16], 0

; 373  : 	for (int i = 0; ; i++)

  00084	33 ff		 xor	 edi, edi
  00086	66 0f 13 45 b8	 movlpd	 QWORD PTR _lvcolumn$2[ebp+24], xmm0
  0008b	66 0f 13 45 c0	 movlpd	 QWORD PTR _lvcolumn$2[ebp+32], xmm0
  00090	b8 00 00 00 00	 mov	 eax, OFFSET ??_C@_01CLKCMJKC@?5@

; 371  : 	memset(&lvcolumn, 0, sizeof(lvcolumn));

  00095	c7 45 c8 00 00
	00 00		 mov	 DWORD PTR _lvcolumn$2[ebp+40], 0
  0009c	33 c9		 xor	 ecx, ecx
  0009e	66 90		 npad	 2
$LL16@OnInitDial:

; 379  : 		lvcolumn.pszText = lpszHeadersType0[i];

  000a0	89 45 ac	 mov	 DWORD PTR _lvcolumn$2[ebp+12], eax

; 381  : 		lvcolumn.cx = colwidthsType0[i];

  000a3	8b 44 0d e4	 mov	 eax, DWORD PTR _colwidthsType0$5[ebp+ecx]
  000a7	89 45 a8	 mov	 DWORD PTR _lvcolumn$2[ebp+8], eax
; File C:\Program Files (x86)\Microsoft Visual Studio\2019\Community\VC\Tools\MSVC\14.29.30133\atlmfc\include\afxcmn.inl

; 209  : 	{ ASSERT(::IsWindow(m_hWnd)); return (int) ::SendMessage(m_hWnd, LVM_INSERTCOLUMN, nCol, (LPARAM)pColumn); }

  000aa	8d 45 a0	 lea	 eax, DWORD PTR _lvcolumn$2[ebp]
  000ad	50		 push	 eax
  000ae	57		 push	 edi
  000af	68 1b 10 00 00	 push	 4123			; 0000101bH
  000b4	ff b6 e0 01 00
	00		 push	 DWORD PTR [esi+480]
; File D:\git\src\IBK\IBK_DRFN\ProjSrc\SrcDrfn\Chart\MULTICHART\DlgSTExOption.cpp

; 377  : 		lvcolumn.mask = LVCF_FMT | LVCF_SUBITEM | LVCF_TEXT | LVCF_WIDTH;

  000ba	c7 45 a0 0f 00
	00 00		 mov	 DWORD PTR _lvcolumn$2[ebp], 15 ; 0000000fH

; 378  : 		lvcolumn.fmt = LVCFMT_LEFT;

  000c1	c7 45 a4 00 00
	00 00		 mov	 DWORD PTR _lvcolumn$2[ebp+4], 0

; 380  : 		lvcolumn.iSubItem = i;

  000c8	89 7d b4	 mov	 DWORD PTR _lvcolumn$2[ebp+20], edi
; File C:\Program Files (x86)\Microsoft Visual Studio\2019\Community\VC\Tools\MSVC\14.29.30133\atlmfc\include\afxcmn.inl

; 209  : 	{ ASSERT(::IsWindow(m_hWnd)); return (int) ::SendMessage(m_hWnd, LVM_INSERTCOLUMN, nCol, (LPARAM)pColumn); }

  000cb	ff d3		 call	 ebx
; File D:\git\src\IBK\IBK_DRFN\ProjSrc\SrcDrfn\Chart\MULTICHART\DlgSTExOption.cpp

; 373  : 	for (int i = 0; ; i++)

  000cd	47		 inc	 edi

; 374  : 	{
; 375  : 		if (lpszHeadersType0[i] == NULL)

  000ce	8d 0c bd 00 00
	00 00		 lea	 ecx, DWORD PTR [edi*4]
  000d5	8b 44 0d d4	 mov	 eax, DWORD PTR _lpszHeadersType0$4[ebp+ecx]
  000d9	85 c0		 test	 eax, eax
  000db	75 c3		 jne	 SHORT $LL16@OnInitDial
; File C:\Program Files (x86)\Microsoft Visual Studio\2019\Community\VC\Tools\MSVC\14.29.30133\atlmfc\include\afxwin2.inl

; 763  : 	{ ASSERT(::IsWindow(m_hWnd)); return (int)::SendMessage(m_hWnd, CB_GETCOUNT, 0, 0); }

  000dd	50		 push	 eax
  000de	50		 push	 eax
  000df	68 46 01 00 00	 push	 326			; 00000146H
  000e4	ff b6 58 01 00
	00		 push	 DWORD PTR [esi+344]
  000ea	ff d3		 call	 ebx
; File D:\git\src\IBK\IBK_DRFN\ProjSrc\SrcDrfn\Chart\MULTICHART\DlgSTExOption.cpp

; 71   : 	if(m_CtlComboDiv.GetCount()==0)

  000ec	85 c0		 test	 eax, eax
  000ee	75 50		 jne	 SHORT $LN5@OnInitDial

; 72   : 	{
; 73   : 		CString szKey;

  000f0	8d 4d d0	 lea	 ecx, DWORD PTR _szKey$3[ebp]
  000f3	ff 15 00 00 00
	00		 call	 DWORD PTR __imp_??0?$CStringT@DV?$StrTraitMFC_DLL@DV?$ChTraitsCRT@D@ATL@@@@@ATL@@QAE@XZ
  000f9	c7 45 fc 00 00
	00 00		 mov	 DWORD PTR __$EHRec$[ebp+8], 0
  00100	bf 01 00 00 00	 mov	 edi, 1
$LL4@OnInitDial:

; 76   : 		{
; 77   : 			szKey.Format("%02d", i);

  00105	57		 push	 edi
  00106	8d 45 d0	 lea	 eax, DWORD PTR _szKey$3[ebp]
  00109	68 00 00 00 00	 push	 OFFSET ??_C@_04OGKJMPGK@?$CF02d@
  0010e	50		 push	 eax
  0010f	ff 15 00 00 00
	00		 call	 DWORD PTR __imp_?Format@?$CStringT@DV?$StrTraitMFC_DLL@DV?$ChTraitsCRT@D@ATL@@@@@ATL@@QAAXPBDZZ
  00115	83 c4 0c	 add	 esp, 12			; 0000000cH
; File C:\Program Files (x86)\Microsoft Visual Studio\2019\Community\VC\Tools\MSVC\14.29.30133\atlmfc\include\afxwin2.inl

; 795  : 	{ ASSERT(::IsWindow(m_hWnd)); return (int)::SendMessage(m_hWnd, CB_ADDSTRING, 0, (LPARAM)lpszString); }

  00118	ff 75 d0	 push	 DWORD PTR _szKey$3[ebp]
  0011b	6a 00		 push	 0
  0011d	68 43 01 00 00	 push	 323			; 00000143H
  00122	ff b6 58 01 00
	00		 push	 DWORD PTR [esi+344]
  00128	ff d3		 call	 ebx
; File D:\git\src\IBK\IBK_DRFN\ProjSrc\SrcDrfn\Chart\MULTICHART\DlgSTExOption.cpp

; 75   : 		for(i=1; i<=10; i++)

  0012a	47		 inc	 edi
  0012b	83 ff 0a	 cmp	 edi, 10			; 0000000aH
  0012e	7e d5		 jle	 SHORT $LL4@OnInitDial

; 78   : 			m_CtlComboDiv.AddString(szKey);
; 79   : 		}
; 80   : 	}

  00130	8d 4d d0	 lea	 ecx, DWORD PTR _szKey$3[ebp]
  00133	c7 45 fc ff ff
	ff ff		 mov	 DWORD PTR __$EHRec$[ebp+8], -1
  0013a	ff 15 00 00 00
	00		 call	 DWORD PTR __imp_??1?$CStringT@DV?$StrTraitMFC_DLL@DV?$ChTraitsCRT@D@ATL@@@@@ATL@@QAE@XZ
$LN5@OnInitDial:
; File C:\Program Files (x86)\Microsoft Visual Studio\2019\Community\VC\Tools\MSVC\14.29.30133\atlmfc\include\afxwin2.inl

; 763  : 	{ ASSERT(::IsWindow(m_hWnd)); return (int)::SendMessage(m_hWnd, CB_GETCOUNT, 0, 0); }

  00140	6a 00		 push	 0
  00142	6a 00		 push	 0
  00144	68 46 01 00 00	 push	 326			; 00000146H
  00149	ff b6 d0 00 00
	00		 push	 DWORD PTR [esi+208]
  0014f	ff d3		 call	 ebx
; File D:\git\src\IBK\IBK_DRFN\ProjSrc\SrcDrfn\Chart\MULTICHART\DlgSTExOption.cpp

; 81   : 	if(m_CtlComboRep.GetCount()==0)

  00151	85 c0		 test	 eax, eax
  00153	75 77		 jne	 SHORT $LN6@OnInitDial
; File C:\Program Files (x86)\Microsoft Visual Studio\2019\Community\VC\Tools\MSVC\14.29.30133\atlmfc\include\afxwin2.inl

; 795  : 	{ ASSERT(::IsWindow(m_hWnd)); return (int)::SendMessage(m_hWnd, CB_ADDSTRING, 0, (LPARAM)lpszString); }

  00155	68 00 00 00 00	 push	 OFFSET ??_C@_01GBGANLPD@0@
  0015a	50		 push	 eax
  0015b	68 43 01 00 00	 push	 323			; 00000143H
  00160	ff b6 d0 00 00
	00		 push	 DWORD PTR [esi+208]
  00166	ff d3		 call	 ebx
  00168	68 00 00 00 00	 push	 OFFSET ??_C@_03FKLEIKFA@10?$CF@
  0016d	6a 00		 push	 0
  0016f	68 43 01 00 00	 push	 323			; 00000143H
  00174	ff b6 d0 00 00
	00		 push	 DWORD PTR [esi+208]
  0017a	ff d3		 call	 ebx
  0017c	68 00 00 00 00	 push	 OFFSET ??_C@_03EIABCFLO@20?$CF@
  00181	6a 00		 push	 0
  00183	68 43 01 00 00	 push	 323			; 00000143H
  00188	ff b6 d0 00 00
	00		 push	 DWORD PTR [esi+208]
  0018e	ff d3		 call	 ebx
  00190	68 00 00 00 00	 push	 OFFSET ??_C@_03PALNECNL@30?$CF@
  00195	6a 00		 push	 0
  00197	68 43 01 00 00	 push	 323			; 00000143H
  0019c	ff b6 d0 00 00
	00		 push	 DWORD PTR [esi+208]
  001a2	ff d3		 call	 ebx
  001a4	68 00 00 00 00	 push	 OFFSET ??_C@_03GNGKHKGC@40?$CF@
  001a9	6a 00		 push	 0
  001ab	68 43 01 00 00	 push	 323			; 00000143H
  001b0	ff b6 d0 00 00
	00		 push	 DWORD PTR [esi+208]
  001b6	ff d3		 call	 ebx
  001b8	68 00 00 00 00	 push	 OFFSET ??_C@_03NFNGBNAH@50?$CF@
  001bd	6a 00		 push	 0
  001bf	68 43 01 00 00	 push	 323			; 00000143H
  001c4	ff b6 d0 00 00
	00		 push	 DWORD PTR [esi+208]
  001ca	ff d3		 call	 ebx
$LN6@OnInitDial:

; 767  : 	{ ASSERT(::IsWindow(m_hWnd)); return (int)::SendMessage(m_hWnd, CB_SETCURSEL, nSelect, 0); }

  001cc	6a 00		 push	 0
  001ce	6a 00		 push	 0
  001d0	68 4e 01 00 00	 push	 334			; 0000014eH
  001d5	ff b6 58 01 00
	00		 push	 DWORD PTR [esi+344]
  001db	ff d3		 call	 ebx
  001dd	6a 00		 push	 0
  001df	6a 00		 push	 0
  001e1	68 4e 01 00 00	 push	 334			; 0000014eH
  001e6	ff b6 d0 00 00
	00		 push	 DWORD PTR [esi+208]
  001ec	ff d3		 call	 ebx

; 213  : 	{ ASSERT(::IsWindow(m_hWnd)); return CWnd::FromHandle(::GetParent(m_hWnd)); }

  001ee	ff 76 20	 push	 DWORD PTR [esi+32]
  001f1	ff 15 00 00 00
	00		 call	 DWORD PTR __imp__GetParent@4
  001f7	50		 push	 eax
  001f8	e8 00 00 00 00	 call	 ?FromHandle@CWnd@@SGPAV1@PAUHWND__@@@Z ; CWnd::FromHandle
; File D:\git\src\IBK\IBK_DRFN\ProjSrc\SrcDrfn\Chart\MULTICHART\DlgSTExOption.cpp

; 96   : 	m_BtnSTApply.FP_vSetImage( pParentDlg->m_pIL_W58H20, 0, 2, TRUE, "", FALSE);//KHD : 2006.11.16

  001fd	6a ff		 push	 -1
  001ff	6a ff		 push	 -1
  00201	6a 00		 push	 0
  00203	51		 push	 ecx
  00204	8b cc		 mov	 ecx, esp
  00206	8b d8		 mov	 ebx, eax
  00208	68 00 00 00 00	 push	 OFFSET ??_C@_04PCCHOCJF@?$MA?$PL?$LP?k@
  0020d	ff 15 00 00 00
	00		 call	 DWORD PTR __imp_??0?$CStringT@DV?$StrTraitMFC_DLL@DV?$ChTraitsCRT@D@ATL@@@@@ATL@@QAE@PBD@Z
  00213	6a 01		 push	 1
  00215	6a 02		 push	 2
  00217	6a 00		 push	 0
  00219	ff b3 b4 00 00
	00		 push	 DWORD PTR [ebx+180]
  0021f	8d 8e d0 03 00
	00		 lea	 ecx, DWORD PTR [esi+976]
  00225	e8 00 00 00 00	 call	 ?FP_vSetImage@CILButton@@QAEXPAVCImageList@@HHHV?$CStringT@DV?$StrTraitMFC_DLL@DV?$ChTraitsCRT@D@ATL@@@@@ATL@@HHH@Z ; CILButton::FP_vSetImage

; 97   : 	m_BtnSTApply.FP_vSetToolTipText("");

  0022a	51		 push	 ecx
  0022b	8b cc		 mov	 ecx, esp
  0022d	68 00 00 00 00	 push	 OFFSET ??_C@_04PCCHOCJF@?$MA?$PL?$LP?k@
  00232	ff 15 00 00 00
	00		 call	 DWORD PTR __imp_??0?$CStringT@DV?$StrTraitMFC_DLL@DV?$ChTraitsCRT@D@ATL@@@@@ATL@@QAE@PBD@Z
  00238	8d 8e d0 03 00
	00		 lea	 ecx, DWORD PTR [esi+976]
  0023e	e8 00 00 00 00	 call	 ?FP_vSetToolTipText@CILButton@@QAEXV?$CStringT@DV?$StrTraitMFC_DLL@DV?$ChTraitsCRT@D@ATL@@@@@ATL@@@Z ; CILButton::FP_vSetToolTipText

; 98   : 	//m_BtnOption.FP_vSetImage( pParentDlg->m_pIL_W20H20, 44, 46);KHD : 
; 99   : 
; 100  : 	m_BtnSTReport.FP_vSetImage(pParentDlg->m_pIL_W58H20, 0, 2, TRUE, "", FALSE);

  00243	6a ff		 push	 -1
  00245	6a ff		 push	 -1
  00247	6a 00		 push	 0
  00249	51		 push	 ecx
  0024a	8b cc		 mov	 ecx, esp
  0024c	68 00 00 00 00	 push	 OFFSET ??_C@_06PDDAPFFG@?$LK?$LI?$LA?m?$LM?$KN@
  00251	ff 15 00 00 00
	00		 call	 DWORD PTR __imp_??0?$CStringT@DV?$StrTraitMFC_DLL@DV?$ChTraitsCRT@D@ATL@@@@@ATL@@QAE@PBD@Z
  00257	6a 01		 push	 1
  00259	6a 02		 push	 2
  0025b	6a 00		 push	 0
  0025d	ff b3 b4 00 00
	00		 push	 DWORD PTR [ebx+180]
  00263	8d 8e 90 06 00
	00		 lea	 ecx, DWORD PTR [esi+1680]
  00269	e8 00 00 00 00	 call	 ?FP_vSetImage@CILButton@@QAEXPAVCImageList@@HHHV?$CStringT@DV?$StrTraitMFC_DLL@DV?$ChTraitsCRT@D@ATL@@@@@ATL@@HHH@Z ; CILButton::FP_vSetImage

; 101  : 	m_BtnSTReport.FP_vSetToolTipText("");

  0026e	51		 push	 ecx
  0026f	8b cc		 mov	 ecx, esp
  00271	68 00 00 00 00	 push	 OFFSET ??_C@_06PDDAPFFG@?$LK?$LI?$LA?m?$LM?$KN@
  00276	ff 15 00 00 00
	00		 call	 DWORD PTR __imp_??0?$CStringT@DV?$StrTraitMFC_DLL@DV?$ChTraitsCRT@D@ATL@@@@@ATL@@QAE@PBD@Z
  0027c	8d 8e 90 06 00
	00		 lea	 ecx, DWORD PTR [esi+1680]
  00282	e8 00 00 00 00	 call	 ?FP_vSetToolTipText@CILButton@@QAEXV?$CStringT@DV?$StrTraitMFC_DLL@DV?$ChTraitsCRT@D@ATL@@@@@ATL@@@Z ; CILButton::FP_vSetToolTipText

; 102  : 
; 103  : 	m_CtlList.GetWindowRect(m_rcList);

  00287	8d 86 f0 07 00
	00		 lea	 eax, DWORD PTR [esi+2032]
; File C:\Program Files (x86)\Microsoft Visual Studio\2019\Community\VC\Tools\MSVC\14.29.30133\atlmfc\include\afxwin2.inl

; 84   : 	{ ASSERT(::IsWindow(m_hWnd)); ::GetWindowRect(m_hWnd, lpRect); }

  0028d	50		 push	 eax
  0028e	ff b6 e0 01 00
	00		 push	 DWORD PTR [esi+480]
  00294	ff 15 00 00 00
	00		 call	 DWORD PTR __imp__GetWindowRect@8
; File D:\git\src\IBK\IBK_DRFN\ProjSrc\SrcDrfn\Chart\MULTICHART\DlgSTExOption.cpp

; 105  : 	return TRUE;  // return TRUE unless you set the focus to a control

  0029a	b8 01 00 00 00	 mov	 eax, 1

; 106  : 	// EXCEPTION: OCX Property Pages should return FALSE
; 107  : }

  0029f	8b 4d f4	 mov	 ecx, DWORD PTR __$EHRec$[ebp]
  002a2	64 89 0d 00 00
	00 00		 mov	 DWORD PTR fs:0, ecx
  002a9	59		 pop	 ecx
  002aa	5f		 pop	 edi
  002ab	5e		 pop	 esi
  002ac	5b		 pop	 ebx
  002ad	8b 4d f0	 mov	 ecx, DWORD PTR __$ArrayPad$[ebp]
  002b0	33 cd		 xor	 ecx, ebp
  002b2	e8 00 00 00 00	 call	 @__security_check_cookie@4
  002b7	8b e5		 mov	 esp, ebp
  002b9	5d		 pop	 ebp
  002ba	c3		 ret	 0
_TEXT	ENDS
;	COMDAT text$x
text$x	SEGMENT
__unwindfunclet$?OnInitDialog@CDlgSTExOption@@MAEHXZ$0:
  00000	8d 4d d0	 lea	 ecx, DWORD PTR _szKey$3[ebp]
  00003	ff 25 00 00 00
	00		 jmp	 DWORD PTR __imp_??1?$CStringT@DV?$StrTraitMFC_DLL@DV?$ChTraitsCRT@D@ATL@@@@@ATL@@QAE@XZ
  00009	cc		 int	 3
  0000a	cc		 int	 3
  0000b	cc		 int	 3
  0000c	cc		 int	 3
  0000d	cc		 int	 3
__ehhandler$?OnInitDialog@CDlgSTExOption@@MAEHXZ:
  0000e	90		 npad	 1
  0000f	90		 npad	 1
  00010	8b 54 24 08	 mov	 edx, DWORD PTR [esp+8]
  00014	8d 42 0c	 lea	 eax, DWORD PTR [edx+12]
  00017	8b 4a 9c	 mov	 ecx, DWORD PTR [edx-100]
  0001a	33 c8		 xor	 ecx, eax
  0001c	e8 00 00 00 00	 call	 @__security_check_cookie@4
  00021	8b 4a fc	 mov	 ecx, DWORD PTR [edx-4]
  00024	33 c8		 xor	 ecx, eax
  00026	e8 00 00 00 00	 call	 @__security_check_cookie@4
  0002b	b8 00 00 00 00	 mov	 eax, OFFSET __ehfuncinfo$?OnInitDialog@CDlgSTExOption@@MAEHXZ
  00030	e9 00 00 00 00	 jmp	 ___CxxFrameHandler3
text$x	ENDS
?OnInitDialog@CDlgSTExOption@@MAEHXZ ENDP		; CDlgSTExOption::OnInitDialog
; Function compile flags: /Ogtp
; File D:\git\src\IBK\IBK_DRFN\ProjSrc\SrcDrfn\Chart\MULTICHART\DlgSTExOption.cpp
;	COMDAT ?DoDataExchange@CDlgSTExOption@@MAEXPAVCDataExchange@@@Z
_TEXT	SEGMENT
_pDX$ = 8						; size = 4
?DoDataExchange@CDlgSTExOption@@MAEXPAVCDataExchange@@@Z PROC ; CDlgSTExOption::DoDataExchange, COMDAT
; _this$ = ecx

; 36   : {

  00000	55		 push	 ebp
  00001	8b ec		 mov	 ebp, esp
  00003	56		 push	 esi

; 37   : 	CDialog::DoDataExchange(pDX);
; 38   : 	//{{AFX_DATA_MAP(CDlgSTExOption)
; 39   : 	DDX_Control(pDX, IDC_COMBO_REP, m_CtlComboRep);

  00004	8b 75 08	 mov	 esi, DWORD PTR _pDX$[ebp]
  00007	57		 push	 edi
  00008	8b f9		 mov	 edi, ecx
  0000a	8d 87 b0 00 00
	00		 lea	 eax, DWORD PTR [edi+176]
  00010	50		 push	 eax
  00011	68 77 18 00 00	 push	 6263			; 00001877H
  00016	56		 push	 esi
  00017	e8 00 00 00 00	 call	 ?DDX_Control@@YGXPAVCDataExchange@@HAAVCWnd@@@Z ; DDX_Control

; 40   : 	DDX_Control(pDX, IDC_COMBO_DIV, m_CtlComboDiv);

  0001c	8d 87 38 01 00
	00		 lea	 eax, DWORD PTR [edi+312]
  00022	50		 push	 eax
  00023	68 76 18 00 00	 push	 6262			; 00001876H
  00028	56		 push	 esi
  00029	e8 00 00 00 00	 call	 ?DDX_Control@@YGXPAVCDataExchange@@HAAVCWnd@@@Z ; DDX_Control

; 41   : 	DDX_Control(pDX, IDC_LIST_DAY, m_CtlList);

  0002e	8d 87 c0 01 00
	00		 lea	 eax, DWORD PTR [edi+448]
  00034	50		 push	 eax
  00035	68 7d 18 00 00	 push	 6269			; 0000187dH
  0003a	56		 push	 esi
  0003b	e8 00 00 00 00	 call	 ?DDX_Control@@YGXPAVCDataExchange@@HAAVCWnd@@@Z ; DDX_Control

; 42   : 	DDX_Control(pDX, IDC_STAPPLY, m_BtnSTApply);

  00040	8d 87 d0 03 00
	00		 lea	 eax, DWORD PTR [edi+976]
  00046	50		 push	 eax
  00047	68 b7 17 00 00	 push	 6071			; 000017b7H
  0004c	56		 push	 esi
  0004d	e8 00 00 00 00	 call	 ?DDX_Control@@YGXPAVCDataExchange@@HAAVCWnd@@@Z ; DDX_Control

; 43   : 	DDX_Control(pDX, IDC_STSHOWOPTION, m_BtnOption);

  00052	8d 87 30 05 00
	00		 lea	 eax, DWORD PTR [edi+1328]
  00058	50		 push	 eax
  00059	68 63 18 00 00	 push	 6243			; 00001863H
  0005e	56		 push	 esi
  0005f	e8 00 00 00 00	 call	 ?DDX_Control@@YGXPAVCDataExchange@@HAAVCWnd@@@Z ; DDX_Control

; 44   : 	DDX_Control(pDX, IDC_STREPORT, m_BtnSTReport);

  00064	8d 87 90 06 00
	00		 lea	 eax, DWORD PTR [edi+1680]
  0006a	50		 push	 eax
  0006b	68 49 18 00 00	 push	 6217			; 00001849H
  00070	56		 push	 esi
  00071	e8 00 00 00 00	 call	 ?DDX_Control@@YGXPAVCDataExchange@@HAAVCWnd@@@Z ; DDX_Control
  00076	5f		 pop	 edi
  00077	5e		 pop	 esi

; 45   : 	//}}AFX_DATA_MAP
; 46   : }

  00078	5d		 pop	 ebp
  00079	c2 04 00	 ret	 4
?DoDataExchange@CDlgSTExOption@@MAEXPAVCDataExchange@@@Z ENDP ; CDlgSTExOption::DoDataExchange
_TEXT	ENDS
; Function compile flags: /Ogtp
; File D:\git\src\IBK\IBK_DRFN\ProjSrc\SrcDrfn\Chart\MULTICHART\DlgSTExOption.cpp
; File C:\Program Files (x86)\Microsoft Visual Studio\2019\Community\VC\Tools\MSVC\14.29.30133\atlmfc\include\afxcmn2.inl
; File D:\git\src\IBK\IBK_DRFN\ProjSrc\SrcDrfn\Chart\MULTICHART\DlgSTExOption.cpp
; File C:\Program Files (x86)\Microsoft Visual Studio\2019\Community\VC\Tools\MSVC\14.29.30133\atlmfc\include\afxcmn2.inl
; File D:\git\src\IBK\IBK_DRFN\ProjSrc\SrcDrfn\Chart\MULTICHART\DlgSTExOption.cpp
; File C:\Program Files (x86)\Microsoft Visual Studio\2019\Community\VC\Tools\MSVC\14.29.30133\atlmfc\include\afxcmn2.inl
; File D:\git\src\IBK\IBK_DRFN\ProjSrc\SrcDrfn\Chart\MULTICHART\DlgSTExOption.cpp
; File C:\Program Files (x86)\Microsoft Visual Studio\2019\Community\VC\Tools\MSVC\14.29.30133\atlmfc\include\afxcmn.inl
; File D:\git\src\IBK\IBK_DRFN\ProjSrc\SrcDrfn\Chart\MULTICHART\DlgSTExOption.cpp
; File C:\Program Files (x86)\Microsoft Visual Studio\2019\Community\VC\Tools\MSVC\14.29.30133\atlmfc\include\afxcmn.inl
; File D:\git\src\IBK\IBK_DRFN\ProjSrc\SrcDrfn\Chart\MULTICHART\DlgSTExOption.cpp
;	COMDAT ?InitColumn@CDlgSTExOption@@QAEXPAVCXListCtrl@@@Z
_TEXT	SEGMENT
_lvcolumn$ = -76					; size = 44
_lpszHeadersType0$ = -32				; size = 16
_colwidthsType0$ = -16					; size = 12
__$ArrayPad$ = -4					; size = 4
_pListCtrl$ = 8						; size = 4
?InitColumn@CDlgSTExOption@@QAEXPAVCXListCtrl@@@Z PROC	; CDlgSTExOption::InitColumn, COMDAT
; _this$ = ecx

; 363  : {

  00000	55		 push	 ebp
  00001	8b ec		 mov	 ebp, esp
  00003	83 ec 4c	 sub	 esp, 76			; 0000004cH
  00006	a1 00 00 00 00	 mov	 eax, DWORD PTR ___security_cookie
  0000b	33 c5		 xor	 eax, ebp
  0000d	89 45 fc	 mov	 DWORD PTR __$ArrayPad$[ebp], eax
  00010	53		 push	 ebx
; File C:\Program Files (x86)\Microsoft Visual Studio\2019\Community\VC\Tools\MSVC\14.29.30133\atlmfc\include\afxcmn2.inl

; 117  : 	{ ASSERT(::IsWindow(m_hWnd)); return (DWORD) ::SendMessage(m_hWnd, LVM_SETEXTENDEDLISTVIEWSTYLE, 0, (LPARAM) dwNewStyle); }

  00011	8b 1d 00 00 00
	00		 mov	 ebx, DWORD PTR __imp__SendMessageA@16
; File D:\git\src\IBK\IBK_DRFN\ProjSrc\SrcDrfn\Chart\MULTICHART\DlgSTExOption.cpp

; 363  : {

  00017	56		 push	 esi
  00018	57		 push	 edi
  00019	8b 7d 08	 mov	 edi, DWORD PTR _pListCtrl$[ebp]
; File C:\Program Files (x86)\Microsoft Visual Studio\2019\Community\VC\Tools\MSVC\14.29.30133\atlmfc\include\afxcmn2.inl

; 117  : 	{ ASSERT(::IsWindow(m_hWnd)); return (DWORD) ::SendMessage(m_hWnd, LVM_SETEXTENDEDLISTVIEWSTYLE, 0, (LPARAM) dwNewStyle); }

  0001c	6a 20		 push	 32			; 00000020H
  0001e	6a 00		 push	 0
  00020	68 36 10 00 00	 push	 4150			; 00001036H
  00025	ff 77 20	 push	 DWORD PTR [edi+32]
; File D:\git\src\IBK\IBK_DRFN\ProjSrc\SrcDrfn\Chart\MULTICHART\DlgSTExOption.cpp

; 364  : 	int colwidthsType0[3] = { 14, 70, 70};	// KHD :  sixty-fourths

  00028	c7 45 f0 0e 00
	00 00		 mov	 DWORD PTR _colwidthsType0$[ebp], 14 ; 0000000eH
  0002f	c7 45 f4 46 00
	00 00		 mov	 DWORD PTR _colwidthsType0$[ebp+4], 70 ; 00000046H
  00036	c7 45 f8 46 00
	00 00		 mov	 DWORD PTR _colwidthsType0$[ebp+8], 70 ; 00000046H

; 365  : 
; 366  : 	TCHAR *	lpszHeadersType0[] = { _T(" "), _T(""), _T(""),NULL };

  0003d	c7 45 e0 00 00
	00 00		 mov	 DWORD PTR _lpszHeadersType0$[ebp], OFFSET ??_C@_01CLKCMJKC@?5@
  00044	c7 45 e4 00 00
	00 00		 mov	 DWORD PTR _lpszHeadersType0$[ebp+4], OFFSET ??_C@_04EGBBAPDL@?$LN?C?$MA?$NL@
  0004b	c7 45 e8 00 00
	00 00		 mov	 DWORD PTR _lpszHeadersType0$[ebp+8], OFFSET ??_C@_02HALKOLAM@?$LD?$KB@
  00052	c7 45 ec 00 00
	00 00		 mov	 DWORD PTR _lpszHeadersType0$[ebp+12], 0
; File C:\Program Files (x86)\Microsoft Visual Studio\2019\Community\VC\Tools\MSVC\14.29.30133\atlmfc\include\afxcmn2.inl

; 117  : 	{ ASSERT(::IsWindow(m_hWnd)); return (DWORD) ::SendMessage(m_hWnd, LVM_SETEXTENDEDLISTVIEWSTYLE, 0, (LPARAM) dwNewStyle); }

  00059	ff d3		 call	 ebx
  0005b	0f 57 c0	 xorps	 xmm0, xmm0
; File D:\git\src\IBK\IBK_DRFN\ProjSrc\SrcDrfn\Chart\MULTICHART\DlgSTExOption.cpp

; 371  : 	memset(&lvcolumn, 0, sizeof(lvcolumn));

  0005e	c7 45 c4 00 00
	00 00		 mov	 DWORD PTR _lvcolumn$[ebp+16], 0

; 373  : 	for (int i = 0; ; i++)

  00065	33 f6		 xor	 esi, esi
  00067	66 0f 13 45 cc	 movlpd	 QWORD PTR _lvcolumn$[ebp+24], xmm0
  0006c	66 0f 13 45 d4	 movlpd	 QWORD PTR _lvcolumn$[ebp+32], xmm0
  00071	b8 00 00 00 00	 mov	 eax, OFFSET ??_C@_01CLKCMJKC@?5@
  00076	c7 45 dc 00 00
	00 00		 mov	 DWORD PTR _lvcolumn$[ebp+40], 0
  0007d	33 c9		 xor	 ecx, ecx
  0007f	90		 npad	 1
$LL4@InitColumn:

; 379  : 		lvcolumn.pszText = lpszHeadersType0[i];

  00080	89 45 c0	 mov	 DWORD PTR _lvcolumn$[ebp+12], eax

; 381  : 		lvcolumn.cx = colwidthsType0[i];

  00083	8b 44 0d f0	 mov	 eax, DWORD PTR _colwidthsType0$[ebp+ecx]
  00087	89 45 bc	 mov	 DWORD PTR _lvcolumn$[ebp+8], eax
; File C:\Program Files (x86)\Microsoft Visual Studio\2019\Community\VC\Tools\MSVC\14.29.30133\atlmfc\include\afxcmn.inl

; 209  : 	{ ASSERT(::IsWindow(m_hWnd)); return (int) ::SendMessage(m_hWnd, LVM_INSERTCOLUMN, nCol, (LPARAM)pColumn); }

  0008a	8d 45 b4	 lea	 eax, DWORD PTR _lvcolumn$[ebp]
  0008d	50		 push	 eax
  0008e	56		 push	 esi
  0008f	68 1b 10 00 00	 push	 4123			; 0000101bH
  00094	ff 77 20	 push	 DWORD PTR [edi+32]
; File D:\git\src\IBK\IBK_DRFN\ProjSrc\SrcDrfn\Chart\MULTICHART\DlgSTExOption.cpp

; 377  : 		lvcolumn.mask = LVCF_FMT | LVCF_SUBITEM | LVCF_TEXT | LVCF_WIDTH;

  00097	c7 45 b4 0f 00
	00 00		 mov	 DWORD PTR _lvcolumn$[ebp], 15 ; 0000000fH

; 378  : 		lvcolumn.fmt = LVCFMT_LEFT;

  0009e	c7 45 b8 00 00
	00 00		 mov	 DWORD PTR _lvcolumn$[ebp+4], 0

; 380  : 		lvcolumn.iSubItem = i;

  000a5	89 75 c8	 mov	 DWORD PTR _lvcolumn$[ebp+20], esi
; File C:\Program Files (x86)\Microsoft Visual Studio\2019\Community\VC\Tools\MSVC\14.29.30133\atlmfc\include\afxcmn.inl

; 209  : 	{ ASSERT(::IsWindow(m_hWnd)); return (int) ::SendMessage(m_hWnd, LVM_INSERTCOLUMN, nCol, (LPARAM)pColumn); }

  000a8	ff d3		 call	 ebx
; File D:\git\src\IBK\IBK_DRFN\ProjSrc\SrcDrfn\Chart\MULTICHART\DlgSTExOption.cpp

; 373  : 	for (int i = 0; ; i++)

  000aa	46		 inc	 esi

; 374  : 	{
; 375  : 		if (lpszHeadersType0[i] == NULL)

  000ab	8d 0c b5 00 00
	00 00		 lea	 ecx, DWORD PTR [esi*4]
  000b2	8b 44 0d e0	 mov	 eax, DWORD PTR _lpszHeadersType0$[ebp+ecx]
  000b6	85 c0		 test	 eax, eax
  000b8	75 c6		 jne	 SHORT $LL4@InitColumn

; 382  : 		total_cx += lvcolumn.cx;
; 383  : 		pListCtrl->InsertColumn(i, &lvcolumn);
; 384  : 	}
; 385  : }

  000ba	8b 4d fc	 mov	 ecx, DWORD PTR __$ArrayPad$[ebp]
  000bd	5f		 pop	 edi
  000be	5e		 pop	 esi
  000bf	33 cd		 xor	 ecx, ebp
  000c1	5b		 pop	 ebx
  000c2	e8 00 00 00 00	 call	 @__security_check_cookie@4
  000c7	8b e5		 mov	 esp, ebp
  000c9	5d		 pop	 ebp
  000ca	c2 04 00	 ret	 4
?InitColumn@CDlgSTExOption@@QAEXPAVCXListCtrl@@@Z ENDP	; CDlgSTExOption::InitColumn
_TEXT	ENDS
; Function compile flags: /Ogtp
; File D:\git\src\IBK\IBK_DRFN\ProjSrc\SrcDrfn\Chart\MULTICHART\DlgSTExOption.cpp
;	COMDAT ??1CDlgSTExOption@@UAE@XZ
_TEXT	SEGMENT
??1CDlgSTExOption@@UAE@XZ PROC				; CDlgSTExOption::~CDlgSTExOption, COMDAT
; _this$ = ecx

; 32   : {

  00000	56		 push	 esi
  00001	8b f1		 mov	 esi, ecx

; 33   : }

  00003	8d 8e 90 06 00
	00		 lea	 ecx, DWORD PTR [esi+1680]
  00009	c7 06 00 00 00
	00		 mov	 DWORD PTR [esi], OFFSET ??_7CDlgSTExOption@@6B@
  0000f	e8 00 00 00 00	 call	 ??1CILButton@@UAE@XZ	; CILButton::~CILButton
  00014	8d 8e 30 05 00
	00		 lea	 ecx, DWORD PTR [esi+1328]
  0001a	e8 00 00 00 00	 call	 ??1CILButton@@UAE@XZ	; CILButton::~CILButton
  0001f	8d 8e d0 03 00
	00		 lea	 ecx, DWORD PTR [esi+976]
  00025	e8 00 00 00 00	 call	 ??1CILButton@@UAE@XZ	; CILButton::~CILButton
  0002a	8d 8e c0 01 00
	00		 lea	 ecx, DWORD PTR [esi+448]
  00030	e8 00 00 00 00	 call	 ??1CXListCtrl@@UAE@XZ	; CXListCtrl::~CXListCtrl
  00035	8d 8e 38 01 00
	00		 lea	 ecx, DWORD PTR [esi+312]
  0003b	e8 00 00 00 00	 call	 ??1CExComboBox@@UAE@XZ	; CExComboBox::~CExComboBox
  00040	8d 8e b0 00 00
	00		 lea	 ecx, DWORD PTR [esi+176]
  00046	e8 00 00 00 00	 call	 ??1CExComboBox@@UAE@XZ	; CExComboBox::~CExComboBox
  0004b	8b ce		 mov	 ecx, esi
  0004d	5e		 pop	 esi
  0004e	e9 00 00 00 00	 jmp	 ??1CDialog@@UAE@XZ	; CDialog::~CDialog
??1CDlgSTExOption@@UAE@XZ ENDP				; CDlgSTExOption::~CDlgSTExOption
_TEXT	ENDS
; Function compile flags: /Ogtp
; File D:\git\src\IBK\IBK_DRFN\ProjSrc\SrcDrfn\Chart\MULTICHART\DlgSTExOption.cpp
; File C:\Program Files (x86)\Microsoft Visual Studio\2019\Community\VC\Tools\MSVC\14.29.30133\atlmfc\include\atltypes.h
; File D:\git\src\IBK\IBK_DRFN\ProjSrc\SrcDrfn\Chart\MULTICHART\DlgSTExOption.cpp
; File C:\Program Files (x86)\Microsoft Visual Studio\2019\Community\VC\Tools\MSVC\14.29.30133\atlmfc\include\atltypes.h
; File D:\git\src\IBK\IBK_DRFN\ProjSrc\SrcDrfn\Chart\MULTICHART\DlgSTExOption.cpp
;	COMDAT ??0CDlgSTExOption@@QAE@PAVCWnd@@@Z
_TEXT	SEGMENT
_this$ = -16						; size = 4
__$EHRec$ = -12						; size = 12
_pParent$ = 8						; size = 4
??0CDlgSTExOption@@QAE@PAVCWnd@@@Z PROC			; CDlgSTExOption::CDlgSTExOption, COMDAT
; _this$ = ecx

; 21   : {

  00000	55		 push	 ebp
  00001	8b ec		 mov	 ebp, esp
  00003	6a ff		 push	 -1
  00005	68 00 00 00 00	 push	 __ehhandler$??0CDlgSTExOption@@QAE@PAVCWnd@@@Z
  0000a	64 a1 00 00 00
	00		 mov	 eax, DWORD PTR fs:0
  00010	50		 push	 eax
  00011	51		 push	 ecx
  00012	56		 push	 esi
  00013	a1 00 00 00 00	 mov	 eax, DWORD PTR ___security_cookie
  00018	33 c5		 xor	 eax, ebp
  0001a	50		 push	 eax
  0001b	8d 45 f4	 lea	 eax, DWORD PTR __$EHRec$[ebp]
  0001e	64 a3 00 00 00
	00		 mov	 DWORD PTR fs:0, eax
  00024	8b f1		 mov	 esi, ecx
  00026	89 75 f0	 mov	 DWORD PTR _this$[ebp], esi

; 20   : 	: CDialog(CDlgSTExOption::IDD, pParent)

  00029	ff 75 08	 push	 DWORD PTR _pParent$[ebp]
  0002c	68 af 17 00 00	 push	 6063			; 000017afH
  00031	e8 00 00 00 00	 call	 ??0CDialog@@QAE@IPAVCWnd@@@Z ; CDialog::CDialog

; 21   : {

  00036	6a 00		 push	 0
  00038	8d 8e b0 00 00
	00		 lea	 ecx, DWORD PTR [esi+176]
  0003e	c7 45 fc 00 00
	00 00		 mov	 DWORD PTR __$EHRec$[ebp+8], 0
  00045	c7 06 00 00 00
	00		 mov	 DWORD PTR [esi], OFFSET ??_7CDlgSTExOption@@6B@
  0004b	e8 00 00 00 00	 call	 ??0CExComboBox@@QAE@H@Z	; CExComboBox::CExComboBox
  00050	6a 00		 push	 0
  00052	8d 8e 38 01 00
	00		 lea	 ecx, DWORD PTR [esi+312]
  00058	c6 45 fc 01	 mov	 BYTE PTR __$EHRec$[ebp+8], 1
  0005c	e8 00 00 00 00	 call	 ??0CExComboBox@@QAE@H@Z	; CExComboBox::CExComboBox
  00061	8d 8e c0 01 00
	00		 lea	 ecx, DWORD PTR [esi+448]
  00067	c6 45 fc 02	 mov	 BYTE PTR __$EHRec$[ebp+8], 2
  0006b	e8 00 00 00 00	 call	 ??0CXListCtrl@@QAE@XZ	; CXListCtrl::CXListCtrl
  00070	8d 8e d0 03 00
	00		 lea	 ecx, DWORD PTR [esi+976]
  00076	c6 45 fc 03	 mov	 BYTE PTR __$EHRec$[ebp+8], 3
  0007a	e8 00 00 00 00	 call	 ??0CILButton@@QAE@XZ	; CILButton::CILButton
  0007f	8d 8e 30 05 00
	00		 lea	 ecx, DWORD PTR [esi+1328]
  00085	c6 45 fc 04	 mov	 BYTE PTR __$EHRec$[ebp+8], 4
  00089	e8 00 00 00 00	 call	 ??0CILButton@@QAE@XZ	; CILButton::CILButton
  0008e	8d 8e 90 06 00
	00		 lea	 ecx, DWORD PTR [esi+1680]
  00094	c6 45 fc 05	 mov	 BYTE PTR __$EHRec$[ebp+8], 5
  00098	e8 00 00 00 00	 call	 ??0CILButton@@QAE@XZ	; CILButton::CILButton
; File C:\Program Files (x86)\Microsoft Visual Studio\2019\Community\VC\Tools\MSVC\14.29.30133\atlmfc\include\atltypes.h

; 528  : 	left = 0;

  0009d	c7 86 f0 07 00
	00 00 00 00 00	 mov	 DWORD PTR [esi+2032], 0
; File D:\git\src\IBK\IBK_DRFN\ProjSrc\SrcDrfn\Chart\MULTICHART\DlgSTExOption.cpp

; 29   : }

  000a7	8b c6		 mov	 eax, esi
; File C:\Program Files (x86)\Microsoft Visual Studio\2019\Community\VC\Tools\MSVC\14.29.30133\atlmfc\include\atltypes.h

; 529  : 	top = 0;

  000a9	c7 86 f4 07 00
	00 00 00 00 00	 mov	 DWORD PTR [esi+2036], 0

; 530  : 	right = 0;

  000b3	c7 86 f8 07 00
	00 00 00 00 00	 mov	 DWORD PTR [esi+2040], 0

; 531  : 	bottom = 0;

  000bd	c7 86 fc 07 00
	00 00 00 00 00	 mov	 DWORD PTR [esi+2044], 0
; File D:\git\src\IBK\IBK_DRFN\ProjSrc\SrcDrfn\Chart\MULTICHART\DlgSTExOption.cpp

; 25   : 	m_pWndTrader = NULL;

  000c7	c7 86 a8 00 00
	00 00 00 00 00	 mov	 DWORD PTR [esi+168], 0

; 26   : 	m_hTradeInst = NULL;

  000d1	c7 86 00 08 00
	00 00 00 00 00	 mov	 DWORD PTR [esi+2048], 0

; 27   : 	m_bIsApplyBtn = FALSE;

  000db	c7 86 04 08 00
	00 00 00 00 00	 mov	 DWORD PTR [esi+2052], 0

; 28   : 	m_pDlgAnalysis = NULL;

  000e5	c7 86 08 08 00
	00 00 00 00 00	 mov	 DWORD PTR [esi+2056], 0

; 29   : }

  000ef	8b 4d f4	 mov	 ecx, DWORD PTR __$EHRec$[ebp]
  000f2	64 89 0d 00 00
	00 00		 mov	 DWORD PTR fs:0, ecx
  000f9	59		 pop	 ecx
  000fa	5e		 pop	 esi
  000fb	8b e5		 mov	 esp, ebp
  000fd	5d		 pop	 ebp
  000fe	c2 04 00	 ret	 4
_TEXT	ENDS
;	COMDAT text$x
text$x	SEGMENT
__unwindfunclet$??0CDlgSTExOption@@QAE@PAVCWnd@@@Z$0:
  00000	8b 4d f0	 mov	 ecx, DWORD PTR _this$[ebp]
  00003	e9 00 00 00 00	 jmp	 ??1CDialog@@UAE@XZ	; CDialog::~CDialog
__unwindfunclet$??0CDlgSTExOption@@QAE@PAVCWnd@@@Z$1:
  00008	8b 4d f0	 mov	 ecx, DWORD PTR _this$[ebp]
  0000b	81 c1 b0 00 00
	00		 add	 ecx, 176		; 000000b0H
  00011	e9 00 00 00 00	 jmp	 ??1CExComboBox@@UAE@XZ	; CExComboBox::~CExComboBox
__unwindfunclet$??0CDlgSTExOption@@QAE@PAVCWnd@@@Z$2:
  00016	8b 4d f0	 mov	 ecx, DWORD PTR _this$[ebp]
  00019	81 c1 38 01 00
	00		 add	 ecx, 312		; 00000138H
  0001f	e9 00 00 00 00	 jmp	 ??1CExComboBox@@UAE@XZ	; CExComboBox::~CExComboBox
__unwindfunclet$??0CDlgSTExOption@@QAE@PAVCWnd@@@Z$3:
  00024	8b 4d f0	 mov	 ecx, DWORD PTR _this$[ebp]
  00027	81 c1 c0 01 00
	00		 add	 ecx, 448		; 000001c0H
  0002d	e9 00 00 00 00	 jmp	 ??1CXListCtrl@@UAE@XZ	; CXListCtrl::~CXListCtrl
__unwindfunclet$??0CDlgSTExOption@@QAE@PAVCWnd@@@Z$4:
  00032	8b 4d f0	 mov	 ecx, DWORD PTR _this$[ebp]
  00035	81 c1 d0 03 00
	00		 add	 ecx, 976		; 000003d0H
  0003b	e9 00 00 00 00	 jmp	 ??1CILButton@@UAE@XZ	; CILButton::~CILButton
__unwindfunclet$??0CDlgSTExOption@@QAE@PAVCWnd@@@Z$5:
  00040	8b 4d f0	 mov	 ecx, DWORD PTR _this$[ebp]
  00043	81 c1 30 05 00
	00		 add	 ecx, 1328		; 00000530H
  00049	e9 00 00 00 00	 jmp	 ??1CILButton@@UAE@XZ	; CILButton::~CILButton
  0004e	cc		 int	 3
  0004f	cc		 int	 3
  00050	cc		 int	 3
  00051	cc		 int	 3
  00052	cc		 int	 3
__ehhandler$??0CDlgSTExOption@@QAE@PAVCWnd@@@Z:
  00053	90		 npad	 1
  00054	90		 npad	 1
  00055	8b 54 24 08	 mov	 edx, DWORD PTR [esp+8]
  00059	8d 42 0c	 lea	 eax, DWORD PTR [edx+12]
  0005c	8b 4a f4	 mov	 ecx, DWORD PTR [edx-12]
  0005f	33 c8		 xor	 ecx, eax
  00061	e8 00 00 00 00	 call	 @__security_check_cookie@4
  00066	b8 00 00 00 00	 mov	 eax, OFFSET __ehfuncinfo$??0CDlgSTExOption@@QAE@PAVCWnd@@@Z
  0006b	e9 00 00 00 00	 jmp	 ___CxxFrameHandler3
text$x	ENDS
??0CDlgSTExOption@@QAE@PAVCWnd@@@Z ENDP			; CDlgSTExOption::CDlgSTExOption
; Function compile flags: /Ogtp
; File C:\Program Files (x86)\Microsoft Visual Studio\2019\Community\VC\Tools\MSVC\14.29.30133\atlmfc\include\afxwin2.inl
;	COMDAT ?Create@CDialog@@UAEHIPAVCWnd@@@Z
_TEXT	SEGMENT
_nIDTemplate$ = 8					; size = 4
_pParentWnd$ = 12					; size = 4
?Create@CDialog@@UAEHIPAVCWnd@@@Z PROC			; CDialog::Create, COMDAT
; _this$ = ecx

; 585  : 	{ return CDialog::Create(ATL_MAKEINTRESOURCE(nIDTemplate), pParentWnd); }

  00000	55		 push	 ebp
  00001	8b ec		 mov	 ebp, esp
  00003	0f b7 45 08	 movzx	 eax, WORD PTR _nIDTemplate$[ebp]
  00007	89 45 08	 mov	 DWORD PTR _nIDTemplate$[ebp], eax
  0000a	5d		 pop	 ebp
  0000b	e9 00 00 00 00	 jmp	 ?Create@CDialog@@UAEHPBDPAVCWnd@@@Z ; CDialog::Create
?Create@CDialog@@UAEHIPAVCWnd@@@Z ENDP			; CDialog::Create
_TEXT	ENDS
; Function compile flags: /Ogtp
; File C:\Program Files (x86)\Microsoft Visual Studio\2019\Community\VC\Tools\MSVC\14.29.30133\atlmfc\include\afxwin2.inl
;	COMDAT ?EndModalState@CWnd@@UAEXXZ
_TEXT	SEGMENT
?EndModalState@CWnd@@UAEXXZ PROC			; CWnd::EndModalState, COMDAT
; _this$ = ecx

; 567  : 	{ ::EnableWindow(m_hWnd, TRUE); }

  00000	6a 01		 push	 1
  00002	ff 71 20	 push	 DWORD PTR [ecx+32]
  00005	ff 15 00 00 00
	00		 call	 DWORD PTR __imp__EnableWindow@8
  0000b	c3		 ret	 0
?EndModalState@CWnd@@UAEXXZ ENDP			; CWnd::EndModalState
_TEXT	ENDS
; Function compile flags: /Ogtp
; File C:\Program Files (x86)\Microsoft Visual Studio\2019\Community\VC\Tools\MSVC\14.29.30133\atlmfc\include\afxwin2.inl
;	COMDAT ?BeginModalState@CWnd@@UAEXXZ
_TEXT	SEGMENT
?BeginModalState@CWnd@@UAEXXZ PROC			; CWnd::BeginModalState, COMDAT
; _this$ = ecx

; 565  : 	{ ::EnableWindow(m_hWnd, FALSE); }

  00000	6a 00		 push	 0
  00002	ff 71 20	 push	 DWORD PTR [ecx+32]
  00005	ff 15 00 00 00
	00		 call	 DWORD PTR __imp__EnableWindow@8
  0000b	c3		 ret	 0
?BeginModalState@CWnd@@UAEXXZ ENDP			; CWnd::BeginModalState
_TEXT	ENDS
; Function compile flags: /Ogtp
; File C:\Program Files (x86)\Microsoft Visual Studio\2019\Community\VC\Tools\MSVC\14.29.30133\atlmfc\include\afxwin2.inl
;	COMDAT ?DoDataExchange@CWnd@@MAEXPAVCDataExchange@@@Z
_TEXT	SEGMENT
___formal$ = 8						; size = 4
?DoDataExchange@CWnd@@MAEXPAVCDataExchange@@@Z PROC	; CWnd::DoDataExchange, COMDAT
; _this$ = ecx

; 561  : 	{ } // default does nothing

  00000	c2 04 00	 ret	 4
?DoDataExchange@CWnd@@MAEXPAVCDataExchange@@@Z ENDP	; CWnd::DoDataExchange
_TEXT	ENDS
; Function compile flags: /Ogtp
; File C:\Program Files (x86)\Microsoft Visual Studio\2019\Community\VC\Tools\MSVC\14.29.30133\atlmfc\include\atlbase.h
; File C:\Program Files (x86)\Microsoft Visual Studio\2019\Community\VC\Tools\MSVC\14.29.30133\atlmfc\include\atlsimpcoll.h
; File C:\Program Files (x86)\Microsoft Visual Studio\2019\Community\VC\Tools\MSVC\14.29.30133\atlmfc\include\atlbase.h
; File C:\Program Files (x86)\Microsoft Visual Studio\2019\Community\VC\Tools\MSVC\14.29.30133\atlmfc\include\atlsimpcoll.h
; File C:\Program Files (x86)\Microsoft Visual Studio\2019\Community\VC\Tools\MSVC\14.29.30133\atlmfc\include\atlcore.h
; File C:\Program Files (x86)\Microsoft Visual Studio\2019\Community\VC\Tools\MSVC\14.29.30133\atlmfc\include\atlsimpcoll.h
; File C:\Program Files (x86)\Microsoft Visual Studio\2019\Community\VC\Tools\MSVC\14.29.30133\atlmfc\include\atlcore.h
; File C:\Program Files (x86)\Microsoft Visual Studio\2019\Community\VC\Tools\MSVC\14.29.30133\atlmfc\include\atlbase.h
; File C:\Program Files (x86)\Microsoft Visual Studio\2019\Community\VC\Tools\MSVC\14.29.30133\atlmfc\include\atlsimpcoll.h
;	COMDAT ??__F_AtlWinModule@ATL@@YAXXZ
text$yd	SEGMENT
??__F_AtlWinModule@ATL@@YAXXZ PROC			; ATL::`dynamic atexit destructor for '_AtlWinModule'', COMDAT
; File C:\Program Files (x86)\Microsoft Visual Studio\2019\Community\VC\Tools\MSVC\14.29.30133\atlmfc\include\atlbase.h

; 7655 : 	if (pWinModule->cbSize == 0)

  00000	a1 00 00 00 00	 mov	 eax, DWORD PTR ?_AtlWinModule@ATL@@3VCAtlWinModule@1@A
  00005	8b 0d 00 00 00
	00		 mov	 ecx, DWORD PTR __imp__free

; 2957 : 		AtlWinModuleTerm(this, _AtlBaseModule.GetModuleInstance());

  0000b	57		 push	 edi
  0000c	8b 3d 04 00 00
	00		 mov	 edi, DWORD PTR ?_AtlBaseModule@ATL@@3VCAtlBaseModule@1@A+4

; 7655 : 	if (pWinModule->cbSize == 0)

  00012	85 c0		 test	 eax, eax
  00014	0f 84 93 00 00
	00		 je	 $LN8@dynamic

; 7656 : 		return S_OK;
; 7657 : 	if (pWinModule->cbSize != sizeof(_ATL_WIN_MODULE))

  0001a	83 f8 2c	 cmp	 eax, 44			; 0000002cH
  0001d	0f 85 8a 00 00
	00		 jne	 $LN8@dynamic

; 7658 : 		return E_INVALIDARG;
; 7659 : 
; 7660 : 	for (int i = 0; i < pWinModule->m_rgWindowClassAtoms.GetSize(); i++)

  00023	a1 24 00 00 00	 mov	 eax, DWORD PTR ?_AtlWinModule@ATL@@3VCAtlWinModule@1@A+36
  00028	56		 push	 esi
  00029	33 f6		 xor	 esi, esi
  0002b	85 c0		 test	 eax, eax
  0002d	7e 35		 jle	 SHORT $LN10@dynamic
  0002f	53		 push	 ebx
  00030	8b 1d 00 00 00
	00		 mov	 ebx, DWORD PTR __imp__UnregisterClassA@8
$LL11@dynamic:
; File C:\Program Files (x86)\Microsoft Visual Studio\2019\Community\VC\Tools\MSVC\14.29.30133\atlmfc\include\atlsimpcoll.h

; 238  : 		if(nIndex < 0 || nIndex >= m_nSize)

  00036	85 f6		 test	 esi, esi
  00038	0f 88 9e 00 00
	00		 js	 $LN46@dynamic
  0003e	3b f0		 cmp	 esi, eax
  00040	0f 8d 96 00 00
	00		 jge	 $LN46@dynamic
; File C:\Program Files (x86)\Microsoft Visual Studio\2019\Community\VC\Tools\MSVC\14.29.30133\atlmfc\include\atlbase.h

; 7661 : 		UnregisterClass((LPCTSTR)pWinModule->m_rgWindowClassAtoms[i], hInst);

  00046	a1 20 00 00 00	 mov	 eax, DWORD PTR ?_AtlWinModule@ATL@@3VCAtlWinModule@1@A+32
  0004b	57		 push	 edi
  0004c	0f b7 04 70	 movzx	 eax, WORD PTR [eax+esi*2]
  00050	50		 push	 eax
  00051	ff d3		 call	 ebx
  00053	a1 24 00 00 00	 mov	 eax, DWORD PTR ?_AtlWinModule@ATL@@3VCAtlWinModule@1@A+36
  00058	46		 inc	 esi
  00059	3b f0		 cmp	 esi, eax
  0005b	7c d9		 jl	 SHORT $LL11@dynamic
; File C:\Program Files (x86)\Microsoft Visual Studio\2019\Community\VC\Tools\MSVC\14.29.30133\atlmfc\include\atlsimpcoll.h

; 238  : 		if(nIndex < 0 || nIndex >= m_nSize)

  0005d	8b 0d 00 00 00
	00		 mov	 ecx, DWORD PTR __imp__free
  00063	5b		 pop	 ebx
$LN10@dynamic:

; 216  : 		if(m_aT != NULL)

  00064	a1 20 00 00 00	 mov	 eax, DWORD PTR ?_AtlWinModule@ATL@@3VCAtlWinModule@1@A+32
  00069	5e		 pop	 esi
  0006a	85 c0		 test	 eax, eax
  0006c	74 10		 je	 SHORT $LN25@dynamic

; 217  : 		{
; 218  : 			for(int i = 0; i < m_nSize; i++)
; 219  : 				m_aT[i].~T();
; 220  : 			free(m_aT);

  0006e	50		 push	 eax
  0006f	ff d1		 call	 ecx
  00071	83 c4 04	 add	 esp, 4

; 221  : 			m_aT = NULL;

  00074	c7 05 20 00 00
	00 00 00 00 00	 mov	 DWORD PTR ?_AtlWinModule@ATL@@3VCAtlWinModule@1@A+32, 0
$LN25@dynamic:
; File C:\Program Files (x86)\Microsoft Visual Studio\2019\Community\VC\Tools\MSVC\14.29.30133\atlmfc\include\atlcore.h

; 155  : 		DeleteCriticalSection(&m_sec);

  0007e	68 04 00 00 00	 push	 OFFSET ?_AtlWinModule@ATL@@3VCAtlWinModule@1@A+4
; File C:\Program Files (x86)\Microsoft Visual Studio\2019\Community\VC\Tools\MSVC\14.29.30133\atlmfc\include\atlsimpcoll.h

; 223  : 		m_nSize = 0;

  00083	c7 05 24 00 00
	00 00 00 00 00	 mov	 DWORD PTR ?_AtlWinModule@ATL@@3VCAtlWinModule@1@A+36, 0

; 224  : 		m_nAllocSize = 0;

  0008d	c7 05 28 00 00
	00 00 00 00 00	 mov	 DWORD PTR ?_AtlWinModule@ATL@@3VCAtlWinModule@1@A+40, 0
; File C:\Program Files (x86)\Microsoft Visual Studio\2019\Community\VC\Tools\MSVC\14.29.30133\atlmfc\include\atlcore.h

; 155  : 		DeleteCriticalSection(&m_sec);

  00097	ff 15 00 00 00
	00		 call	 DWORD PTR __imp__DeleteCriticalSection@4
; File C:\Program Files (x86)\Microsoft Visual Studio\2019\Community\VC\Tools\MSVC\14.29.30133\atlmfc\include\atlbase.h

; 7664 : 	pWinModule->cbSize = 0;

  0009d	8b 0d 00 00 00
	00		 mov	 ecx, DWORD PTR __imp__free
  000a3	c7 05 00 00 00
	00 00 00 00 00	 mov	 DWORD PTR ?_AtlWinModule@ATL@@3VCAtlWinModule@1@A, 0
$LN8@dynamic:
; File C:\Program Files (x86)\Microsoft Visual Studio\2019\Community\VC\Tools\MSVC\14.29.30133\atlmfc\include\atlsimpcoll.h

; 216  : 		if(m_aT != NULL)

  000ad	a1 20 00 00 00	 mov	 eax, DWORD PTR ?_AtlWinModule@ATL@@3VCAtlWinModule@1@A+32
  000b2	5f		 pop	 edi
  000b3	85 c0		 test	 eax, eax
  000b5	74 10		 je	 SHORT $LN40@dynamic

; 217  : 		{
; 218  : 			for(int i = 0; i < m_nSize; i++)
; 219  : 				m_aT[i].~T();
; 220  : 			free(m_aT);

  000b7	50		 push	 eax
  000b8	ff d1		 call	 ecx
  000ba	83 c4 04	 add	 esp, 4

; 221  : 			m_aT = NULL;

  000bd	c7 05 20 00 00
	00 00 00 00 00	 mov	 DWORD PTR ?_AtlWinModule@ATL@@3VCAtlWinModule@1@A+32, 0
$LN40@dynamic:

; 223  : 		m_nSize = 0;

  000c7	c7 05 24 00 00
	00 00 00 00 00	 mov	 DWORD PTR ?_AtlWinModule@ATL@@3VCAtlWinModule@1@A+36, 0

; 224  : 		m_nAllocSize = 0;

  000d1	c7 05 28 00 00
	00 00 00 00 00	 mov	 DWORD PTR ?_AtlWinModule@ATL@@3VCAtlWinModule@1@A+40, 0
  000db	c3		 ret	 0
$LN46@dynamic:

; 240  : 			_AtlRaiseException((DWORD)EXCEPTION_ARRAY_BOUNDS_EXCEEDED);

  000dc	6a 01		 push	 1
  000de	68 8c 00 00 c0	 push	 -1073741684		; c000008cH
  000e3	e8 00 00 00 00	 call	 ?_AtlRaiseException@ATL@@YAXKK@Z ; ATL::_AtlRaiseException
$LN56@dynamic:
  000e8	cc		 int	 3
??__F_AtlWinModule@ATL@@YAXXZ ENDP			; ATL::`dynamic atexit destructor for '_AtlWinModule''
text$yd	ENDS
; Function compile flags: /Ogtp
; File C:\Program Files (x86)\Microsoft Visual Studio\2019\Community\VC\Tools\MSVC\14.29.30133\atlmfc\include\atlbase.h
; File C:\Program Files (x86)\Microsoft Visual Studio\2019\Community\VC\Tools\MSVC\14.29.30133\atlmfc\include\atlwinverapi.h
; File C:\Program Files (x86)\Microsoft Visual Studio\2019\Community\VC\Tools\MSVC\14.29.30133\atlmfc\include\atlcore.h
; File C:\Program Files (x86)\Windows Kits\10\Include\10.0.22000.0\shared\winerror.h
; File C:\Program Files (x86)\Microsoft Visual Studio\2019\Community\VC\Tools\MSVC\14.29.30133\atlmfc\include\atlbase.h
;	COMDAT ??__E_AtlWinModule@ATL@@YAXXZ
text$di	SEGMENT
??__E_AtlWinModule@ATL@@YAXXZ PROC			; ATL::`dynamic initializer for '_AtlWinModule'', COMDAT
; File C:\Program Files (x86)\Microsoft Visual Studio\2019\Community\VC\Tools\MSVC\14.29.30133\atlmfc\include\atlwinverapi.h

; 730  : 	return ::InitializeCriticalSectionEx(lpCriticalSection, dwSpinCount, Flags);

  00000	6a 00		 push	 0
  00002	6a 00		 push	 0
  00004	68 04 00 00 00	 push	 OFFSET ?_AtlWinModule@ATL@@3VCAtlWinModule@1@A+4
  00009	ff 15 00 00 00
	00		 call	 DWORD PTR __imp__InitializeCriticalSectionEx@12
; File C:\Program Files (x86)\Microsoft Visual Studio\2019\Community\VC\Tools\MSVC\14.29.30133\atlmfc\include\atlcore.h

; 145  : 		if (!_AtlInitializeCriticalSectionEx(&m_sec, 0, 0))

  0000f	85 c0		 test	 eax, eax
  00011	75 27		 jne	 SHORT $LN4@dynamic

; 146  : 		{
; 147  : 			hRes = HRESULT_FROM_WIN32(GetLastError());

  00013	ff 15 00 00 00
	00		 call	 DWORD PTR __imp__GetLastError@0
; File C:\Program Files (x86)\Windows Kits\10\Include\10.0.22000.0\shared\winerror.h

; 29673: FORCEINLINE _Translates_Win32_to_HRESULT_(x) HRESULT HRESULT_FROM_WIN32(unsigned long x) { return (HRESULT)(x) <= 0 ? (HRESULT)(x) : (HRESULT) (((x) & 0x0000FFFF) | (FACILITY_WIN32 << 16) | 0x80000000);}

  00019	85 c0		 test	 eax, eax
  0001b	7e 0a		 jle	 SHORT $LN26@dynamic
  0001d	0f b7 c0	 movzx	 eax, ax
  00020	0d 00 00 07 80	 or	 eax, -2147024896	; 80070000H
; File C:\Program Files (x86)\Microsoft Visual Studio\2019\Community\VC\Tools\MSVC\14.29.30133\atlmfc\include\atlbase.h

; 2941 : 		if (FAILED(hr))

  00025	85 c0		 test	 eax, eax
$LN26@dynamic:
  00027	79 11		 jns	 SHORT $LN4@dynamic

; 2942 : 		{
; 2943 : 			ATLASSERT(0);
; 2944 : 			CAtlBaseModule::m_bInitFailed = true;

  00029	c6 05 00 00 00
	00 01		 mov	 BYTE PTR ?m_bInitFailed@CAtlBaseModule@ATL@@2_NA, 1 ; ATL::CAtlBaseModule::m_bInitFailed

; 2945 : 			cbSize = 0;

  00030	c7 05 00 00 00
	00 00 00 00 00	 mov	 DWORD PTR ?_AtlWinModule@ATL@@3VCAtlWinModule@1@A, 0
$LN4@dynamic:

; 2972 : __declspec(selectany) CAtlWinModule _AtlWinModule;

  0003a	68 00 00 00 00	 push	 OFFSET ??__F_AtlWinModule@ATL@@YAXXZ ; ATL::`dynamic atexit destructor for '_AtlWinModule''
  0003f	e8 00 00 00 00	 call	 _atexit
  00044	59		 pop	 ecx
  00045	c3		 ret	 0
??__E_AtlWinModule@ATL@@YAXXZ ENDP			; ATL::`dynamic initializer for '_AtlWinModule''
text$di	ENDS
; Function compile flags: /Ogtp
; File C:\Program Files (x86)\Microsoft Visual Studio\2019\Community\VC\Tools\MSVC\14.29.30133\atlmfc\include\atlwinverapi.h
;	COMDAT ?_AtlInitializeCriticalSectionEx@ATL@@YAHPAU_RTL_CRITICAL_SECTION@@KK@Z
_TEXT	SEGMENT
_lpCriticalSection$ = 8					; size = 4
_dwSpinCount$ = 12					; size = 4
_Flags$ = 16						; size = 4
?_AtlInitializeCriticalSectionEx@ATL@@YAHPAU_RTL_CRITICAL_SECTION@@KK@Z PROC ; ATL::_AtlInitializeCriticalSectionEx, COMDAT

; 727  : {

  00000	55		 push	 ebp
  00001	8b ec		 mov	 ebp, esp

; 728  : #if (NTDDI_VERSION >= NTDDI_VISTA) && !defined(_USING_V110_SDK71_) && !defined(_ATL_XP_TARGETING)
; 729  : 	// InitializeCriticalSectionEx is available in Vista or later, desktop or store apps
; 730  : 	return ::InitializeCriticalSectionEx(lpCriticalSection, dwSpinCount, Flags);

  00003	ff 75 10	 push	 DWORD PTR _Flags$[ebp]
  00006	ff 75 0c	 push	 DWORD PTR _dwSpinCount$[ebp]
  00009	ff 75 08	 push	 DWORD PTR _lpCriticalSection$[ebp]
  0000c	ff 15 00 00 00
	00		 call	 DWORD PTR __imp__InitializeCriticalSectionEx@12

; 731  : #else
; 732  : 	UNREFERENCED_PARAMETER(Flags);
; 733  : 
; 734  : 	// ...otherwise fall back to using InitializeCriticalSectionAndSpinCount.
; 735  : 	return ::InitializeCriticalSectionAndSpinCount(lpCriticalSection, dwSpinCount);
; 736  : #endif
; 737  : }

  00012	5d		 pop	 ebp
  00013	c3		 ret	 0
?_AtlInitializeCriticalSectionEx@ATL@@YAHPAU_RTL_CRITICAL_SECTION@@KK@Z ENDP ; ATL::_AtlInitializeCriticalSectionEx
_TEXT	ENDS
; Function compile flags: /Ogtp
; File C:\Program Files (x86)\Microsoft Visual Studio\2019\Community\VC\Tools\MSVC\14.29.30133\atlmfc\include\atlexcept.h
;	COMDAT ?_AtlRaiseException@ATL@@YAXKK@Z
_TEXT	SEGMENT
_dwExceptionCode$ = 8					; size = 4
_dwExceptionFlags$ = 12					; size = 4
?_AtlRaiseException@ATL@@YAXKK@Z PROC			; ATL::_AtlRaiseException, COMDAT

; 30   : {

  00000	55		 push	 ebp
  00001	8b ec		 mov	 ebp, esp

; 31   : 	RaiseException( dwExceptionCode, dwExceptionFlags, 0, NULL );

  00003	6a 00		 push	 0
  00005	6a 00		 push	 0
  00007	ff 75 0c	 push	 DWORD PTR _dwExceptionFlags$[ebp]
  0000a	ff 75 08	 push	 DWORD PTR _dwExceptionCode$[ebp]
  0000d	ff 15 00 00 00
	00		 call	 DWORD PTR __imp__RaiseException@16

; 32   : }

  00013	5d		 pop	 ebp
  00014	c3		 ret	 0
?_AtlRaiseException@ATL@@YAXKK@Z ENDP			; ATL::_AtlRaiseException
_TEXT	ENDS
; Function compile flags: /Ogtp
; File C:\Program Files (x86)\Microsoft Visual Studio\2019\Community\VC\Tools\MSVC\14.29.30133\atlmfc\include\afx.inl
;	COMDAT ?Dump@CObject@@UBEXAAVCDumpContext@@@Z
_TEXT	SEGMENT
___formal$ = 8						; size = 4
?Dump@CObject@@UBEXAAVCDumpContext@@@Z PROC		; CObject::Dump, COMDAT
; _this$ = ecx

; 122  : 	{ /* no dumping in release builds */ }

  00000	c2 04 00	 ret	 4
?Dump@CObject@@UBEXAAVCDumpContext@@@Z ENDP		; CObject::Dump
_TEXT	ENDS
; Function compile flags: /Ogtp
; File C:\Program Files (x86)\Microsoft Visual Studio\2019\Community\VC\Tools\MSVC\14.29.30133\atlmfc\include\afx.inl
;	COMDAT ?AssertValid@CObject@@UBEXXZ
_TEXT	SEGMENT
?AssertValid@CObject@@UBEXXZ PROC			; CObject::AssertValid, COMDAT
; _this$ = ecx

; 120  : 	{ /* no asserts in release builds */ }

  00000	c2 00 00	 ret	 0
?AssertValid@CObject@@UBEXXZ ENDP			; CObject::AssertValid
_TEXT	ENDS
; Function compile flags: /Ogtp
; File C:\Program Files (x86)\Microsoft Visual Studio\2019\Community\VC\Tools\MSVC\14.29.30133\atlmfc\include\afx.inl
;	COMDAT ?Serialize@CObject@@UAEXAAVCArchive@@@Z
_TEXT	SEGMENT
___formal$ = 8						; size = 4
?Serialize@CObject@@UAEXAAVCArchive@@@Z PROC		; CObject::Serialize, COMDAT
; _this$ = ecx

; 106  : 	{ /* CObject does not serialize anything by default */ }

  00000	c2 04 00	 ret	 4
?Serialize@CObject@@UAEXAAVCArchive@@@Z ENDP		; CObject::Serialize
_TEXT	ENDS
; Function compile flags: /Ogtp
; File C:\Program Files (x86)\Microsoft Visual Studio\2019\Community\VC\Tools\MSVC\14.29.30133\atlmfc\include\afx.inl
;	COMDAT ??3CObject@@SGXPAX@Z
_TEXT	SEGMENT
_p$ = 8							; size = 4
??3CObject@@SGXPAX@Z PROC				; CObject::operator delete, COMDAT

; 112  : 	{ ::operator delete(p); }

  00000	55		 push	 ebp
  00001	8b ec		 mov	 ebp, esp
  00003	ff 75 08	 push	 DWORD PTR _p$[ebp]
  00006	e8 00 00 00 00	 call	 ??3@YAXPAX@Z		; operator delete
  0000b	83 c4 04	 add	 esp, 4
  0000e	5d		 pop	 ebp
  0000f	c2 04 00	 ret	 4
??3CObject@@SGXPAX@Z ENDP				; CObject::operator delete
_TEXT	ENDS
; Function compile flags: /Ogtp
; File D:\git\src\IBK\IBK_DRFN\ProjSrc\SrcDrfn\Chart\MULTICHART\DlgSTExOption.cpp
;	COMDAT ?__empty_global_delete@@YAXPAXI@Z
_TEXT	SEGMENT
___formal$ = 8						; size = 4
___formal$ = 12						; size = 4
?__empty_global_delete@@YAXPAXI@Z PROC			; __empty_global_delete, COMDAT

  00000	c2 00 00	 ret	 0
?__empty_global_delete@@YAXPAXI@Z ENDP			; __empty_global_delete
_TEXT	ENDS
; Function compile flags: /Ogtp
; File D:\git\src\IBK\IBK_DRFN\ProjSrc\SrcDrfn\Chart\MULTICHART\DlgSTExOption.cpp
;	COMDAT ?__empty_global_delete@@YAXPAX@Z
_TEXT	SEGMENT
___formal$ = 8						; size = 4
?__empty_global_delete@@YAXPAX@Z PROC			; __empty_global_delete, COMDAT

  00000	c2 00 00	 ret	 0
?__empty_global_delete@@YAXPAX@Z ENDP			; __empty_global_delete
_TEXT	ENDS
END
