; Listing generated by Microsoft (R) Optimizing Compiler Version 19.29.30145.0 

	TITLE	D:\git\src\IBK\IBK_DRFN\#DRfn-CS\_Obj\MultiChart\DlgToolbar.obj
	.686P
	.XMM
	include listing.inc
	.model	flat

INCLUDELIB MSVCRT
INCLUDELIB OLDNAMES

PUBLIC	?g_bToggle_Bar@@3PAHA				; g_bToggle_Bar
PUBLIC	?WM_ATLGETHOST@ATL@@3IA				; ATL::WM_ATLGETHOST
PUBLIC	?WM_ATLGETCONTROL@ATL@@3IA			; ATL::WM_ATLGETCONTROL
PUBLIC	??_C@_0BE@FJPKENOB@RMSG_GETSIGNAL_REAL@		; `string'
PUBLIC	??_C@_0BB@CNOFPEHG@RMSG_SETQUERYOPT@		; `string'
PUBLIC	??_C@_0P@KHFCBIOH@RMSG_CHARTMAIN@		; `string'
PUBLIC	??_C@_0BC@MMPGLPDH@RMS_ANALYSIS_FUNC@		; `string'
PUBLIC	??_C@_0BA@HKNFENJL@RMSG_GET_USERID@		; `string'
PUBLIC	??_C@_0BG@CNPAHNGG@RMSG_CHANGE_SKINCOLOR@	; `string'
PUBLIC	??_C@_0BD@FLDNDDHK@RMSG_GET_SKINCOLOR@		; `string'
PUBLIC	??_C@_0BJ@JLKHIBIK@RMSG_CHANGEVERTSCALETYPE@	; `string'
PUBLIC	??_C@_0BG@LNLCJKPF@RMSG_CHANGE_CROSSLINE@	; `string'
PUBLIC	??_C@_0BH@IFDMIMBP@RMSG_ADD_PLATFORM_MENU@	; `string'
PUBLIC	??_C@_0BJ@OGNAJHHI@RMSG_SETINITIALCHARTDATA@	; `string'
PUBLIC	??_C@_0N@IIOKMIEH@RMSG_GETINFO@			; `string'
PUBLIC	??_C@_0N@HABLPHJG@RMSG_SETINFO@			; `string'
PUBLIC	?m_bInitFailed@CAtlBaseModule@ATL@@2_NA		; ATL::CAtlBaseModule::m_bInitFailed
PUBLIC	?_pAtlModule@ATL@@3PAVCAtlModule@1@A		; ATL::_pAtlModule
PUBLIC	??_C@_0BB@IBKHOHJL@RMSG_REPLAY_REAL@		; `string'
PUBLIC	??_C@_0BB@JFLGBADG@RMSG_REPLAY_FAIL@		; `string'
PUBLIC	??_C@_0BI@KDGAIIMD@RMSG_REPLAY_CHANGE_DATE@	; `string'
PUBLIC	??_C@_0BA@NKHHCPON@RMSG_REPLAY_END@		; `string'
PUBLIC	??_C@_0BE@JFCIMCIP@RMSG_REPLAY_INC_SEC@		; `string'
PUBLIC	??_C@_0BG@GIAJEIJF@RMSG_REPLAY_TOTAL_SEC@	; `string'
PUBLIC	?_pAtlAutoThreadModule@ATL@@3PAUIAtlAutoThreadModule@1@A ; ATL::_pAtlAutoThreadModule
EXTRN	?_AtlBaseModule@ATL@@3VCAtlBaseModule@1@A:BYTE	; ATL::_AtlBaseModule
;	COMDAT ?WM_ATLGETHOST@ATL@@3IA
_BSS	SEGMENT
?WM_ATLGETHOST@ATL@@3IA DD 01H DUP (?)			; ATL::WM_ATLGETHOST
_BSS	ENDS
;	COMDAT ?WM_ATLGETCONTROL@ATL@@3IA
_BSS	SEGMENT
?WM_ATLGETCONTROL@ATL@@3IA DD 01H DUP (?)		; ATL::WM_ATLGETCONTROL
_BSS	ENDS
;	COMDAT ?m_bInitFailed@CAtlBaseModule@ATL@@2_NA
_BSS	SEGMENT
?m_bInitFailed@CAtlBaseModule@ATL@@2_NA DB 01H DUP (?)	; ATL::CAtlBaseModule::m_bInitFailed
_BSS	ENDS
;	COMDAT ?_pAtlModule@ATL@@3PAVCAtlModule@1@A
_BSS	SEGMENT
?_pAtlModule@ATL@@3PAVCAtlModule@1@A DD 01H DUP (?)	; ATL::_pAtlModule
_BSS	ENDS
;	COMDAT ?_pAtlAutoThreadModule@ATL@@3PAUIAtlAutoThreadModule@1@A
_BSS	SEGMENT
?_pAtlAutoThreadModule@ATL@@3PAUIAtlAutoThreadModule@1@A DD 01H DUP (?) ; ATL::_pAtlAutoThreadModule
_BSS	ENDS
;	COMDAT ??_C@_0BG@GIAJEIJF@RMSG_REPLAY_TOTAL_SEC@
CONST	SEGMENT
??_C@_0BG@GIAJEIJF@RMSG_REPLAY_TOTAL_SEC@ DB 'RMSG_REPLAY_TOTAL_SEC', 00H ; `string'
CONST	ENDS
;	COMDAT ??_C@_0BE@JFCIMCIP@RMSG_REPLAY_INC_SEC@
CONST	SEGMENT
??_C@_0BE@JFCIMCIP@RMSG_REPLAY_INC_SEC@ DB 'RMSG_REPLAY_INC_SEC', 00H ; `string'
CONST	ENDS
;	COMDAT ??_C@_0BA@NKHHCPON@RMSG_REPLAY_END@
CONST	SEGMENT
??_C@_0BA@NKHHCPON@RMSG_REPLAY_END@ DB 'RMSG_REPLAY_END', 00H ; `string'
CONST	ENDS
;	COMDAT ??_C@_0BI@KDGAIIMD@RMSG_REPLAY_CHANGE_DATE@
CONST	SEGMENT
??_C@_0BI@KDGAIIMD@RMSG_REPLAY_CHANGE_DATE@ DB 'RMSG_REPLAY_CHANGE_DATE', 00H ; `string'
CONST	ENDS
;	COMDAT ??_C@_0BB@JFLGBADG@RMSG_REPLAY_FAIL@
CONST	SEGMENT
??_C@_0BB@JFLGBADG@RMSG_REPLAY_FAIL@ DB 'RMSG_REPLAY_FAIL', 00H ; `string'
CONST	ENDS
;	COMDAT ??_C@_0BB@IBKHOHJL@RMSG_REPLAY_REAL@
CONST	SEGMENT
??_C@_0BB@IBKHOHJL@RMSG_REPLAY_REAL@ DB 'RMSG_REPLAY_REAL', 00H ; `string'
CONST	ENDS
;	COMDAT ??_C@_0N@HABLPHJG@RMSG_SETINFO@
CONST	SEGMENT
??_C@_0N@HABLPHJG@RMSG_SETINFO@ DB 'RMSG_SETINFO', 00H	; `string'
CONST	ENDS
;	COMDAT ??_C@_0N@IIOKMIEH@RMSG_GETINFO@
CONST	SEGMENT
??_C@_0N@IIOKMIEH@RMSG_GETINFO@ DB 'RMSG_GETINFO', 00H	; `string'
CONST	ENDS
;	COMDAT ??_C@_0BJ@OGNAJHHI@RMSG_SETINITIALCHARTDATA@
CONST	SEGMENT
??_C@_0BJ@OGNAJHHI@RMSG_SETINITIALCHARTDATA@ DB 'RMSG_SETINITIALCHARTDATA'
	DB	00H						; `string'
CONST	ENDS
;	COMDAT ??_C@_0BH@IFDMIMBP@RMSG_ADD_PLATFORM_MENU@
CONST	SEGMENT
??_C@_0BH@IFDMIMBP@RMSG_ADD_PLATFORM_MENU@ DB 'RMSG_ADD_PLATFORM_MENU', 00H ; `string'
CONST	ENDS
;	COMDAT ??_C@_0BG@LNLCJKPF@RMSG_CHANGE_CROSSLINE@
CONST	SEGMENT
??_C@_0BG@LNLCJKPF@RMSG_CHANGE_CROSSLINE@ DB 'RMSG_CHANGE_CROSSLINE', 00H ; `string'
CONST	ENDS
;	COMDAT ??_C@_0BJ@JLKHIBIK@RMSG_CHANGEVERTSCALETYPE@
CONST	SEGMENT
??_C@_0BJ@JLKHIBIK@RMSG_CHANGEVERTSCALETYPE@ DB 'RMSG_CHANGEVERTSCALETYPE'
	DB	00H						; `string'
CONST	ENDS
;	COMDAT ??_C@_0BD@FLDNDDHK@RMSG_GET_SKINCOLOR@
CONST	SEGMENT
??_C@_0BD@FLDNDDHK@RMSG_GET_SKINCOLOR@ DB 'RMSG_GET_SKINCOLOR', 00H ; `string'
CONST	ENDS
;	COMDAT ??_C@_0BG@CNPAHNGG@RMSG_CHANGE_SKINCOLOR@
CONST	SEGMENT
??_C@_0BG@CNPAHNGG@RMSG_CHANGE_SKINCOLOR@ DB 'RMSG_CHANGE_SKINCOLOR', 00H ; `string'
CONST	ENDS
;	COMDAT ??_C@_0BA@HKNFENJL@RMSG_GET_USERID@
CONST	SEGMENT
??_C@_0BA@HKNFENJL@RMSG_GET_USERID@ DB 'RMSG_GET_USERID', 00H ; `string'
CONST	ENDS
;	COMDAT ??_C@_0BC@MMPGLPDH@RMS_ANALYSIS_FUNC@
CONST	SEGMENT
??_C@_0BC@MMPGLPDH@RMS_ANALYSIS_FUNC@ DB 'RMS_ANALYSIS_FUNC', 00H ; `string'
CONST	ENDS
;	COMDAT ??_C@_0P@KHFCBIOH@RMSG_CHARTMAIN@
CONST	SEGMENT
??_C@_0P@KHFCBIOH@RMSG_CHARTMAIN@ DB 'RMSG_CHARTMAIN', 00H ; `string'
CONST	ENDS
;	COMDAT ??_C@_0BB@CNOFPEHG@RMSG_SETQUERYOPT@
CONST	SEGMENT
??_C@_0BB@CNOFPEHG@RMSG_SETQUERYOPT@ DB 'RMSG_SETQUERYOPT', 00H ; `string'
CONST	ENDS
;	COMDAT ??_C@_0BE@FJPKENOB@RMSG_GETSIGNAL_REAL@
CONST	SEGMENT
??_C@_0BE@FJPKENOB@RMSG_GETSIGNAL_REAL@ DB 'RMSG_GETSIGNAL_REAL', 00H ; `string'
CONST	ENDS
_DATA	SEGMENT
?g_bToggle_Bar@@3PAHA DD 00H				; g_bToggle_Bar
	DD	00H
	DD	00H
	DD	00H
	DD	01H
	DD	01H
	DD	01H
	DD	01H
	DD	01H
	DD	01H
	DD	01H
	DD	01H
	DD	01H
	DD	01H
	DD	01H
	DD	01H
	DD	01H
	DD	01H
	DD	01H
	DD	01H
	DD	01H
	DD	00H
	DD	00H
	DD	00H
	DD	00H
	DD	00H
	DD	01H
	DD	00H
	DD	01H
	DD	01H
	DD	01H
	DD	01H
	DD	01H
	DD	01H
	DD	00H
	DD	00H
	DD	00H
	DD	00H
	DD	00H
	DD	00H
	DD	01H
	DD	01H
	DD	01H
	DD	01H
	DD	00H
	DD	00H
	DD	01H
	DD	01H
	DD	01H
	DD	01H
	DD	01H
	DD	01H
	DD	01H
	DD	01H
	DD	01H
	DD	01H
	DD	01H
	DD	01H
	DD	01H
	DD	01H
	DD	01H
	DD	01H
	DD	01H
	DD	01H
	DD	01H
	DD	01H
	DD	01H
	DD	01H
	DD	00H
	DD	00H
	DD	00H
	DD	00H
	DD	00H
	DD	01H
	DD	01H
	DD	01H
	DD	01H
	DD	01H
	DD	01H
	DD	01H
_DATA	ENDS
PUBLIC	?__empty_global_delete@@YAXPAX@Z		; __empty_global_delete
PUBLIC	?__empty_global_delete@@YAXPAXI@Z		; __empty_global_delete
PUBLIC	___local_stdio_printf_options
PUBLIC	___local_stdio_scanf_options
PUBLIC	_sprintf
PUBLIC	_sscanf
PUBLIC	?AfxCrtErrorCheck@@YAHH@Z			; AfxCrtErrorCheck
PUBLIC	??1CObject@@UAE@XZ				; CObject::~CObject
PUBLIC	??3CObject@@SGXPAX@Z				; CObject::operator delete
PUBLIC	?Serialize@CObject@@UAEXAAVCArchive@@@Z		; CObject::Serialize
PUBLIC	?AssertValid@CObject@@UBEXXZ			; CObject::AssertValid
PUBLIC	?Dump@CObject@@UBEXAAVCDumpContext@@@Z		; CObject::Dump
PUBLIC	?_AtlRaiseException@ATL@@YAXKK@Z		; ATL::_AtlRaiseException
PUBLIC	?_AtlInitializeCriticalSectionEx@ATL@@YAHPAU_RTL_CRITICAL_SECTION@@KK@Z ; ATL::_AtlInitializeCriticalSectionEx
PUBLIC	??HATL@@YA?AV?$CStringT@DV?$StrTraitMFC_DLL@DV?$ChTraitsCRT@D@ATL@@@@@0@ABV10@PBD@Z ; ATL::operator+
PUBLIC	?_AfxInitManaged@@YAHXZ				; _AfxInitManaged
PUBLIC	??1CGdiObject@@UAE@XZ				; CGdiObject::~CGdiObject
PUBLIC	??_GCGdiObject@@UAEPAXI@Z			; CGdiObject::`scalar deleting destructor'
PUBLIC	??1CPen@@UAE@XZ					; CPen::~CPen
PUBLIC	??_GCPen@@UAEPAXI@Z				; CPen::`scalar deleting destructor'
PUBLIC	??1CFont@@UAE@XZ				; CFont::~CFont
PUBLIC	??_GCFont@@UAEPAXI@Z				; CFont::`scalar deleting destructor'
PUBLIC	??1CBitmap@@UAE@XZ				; CBitmap::~CBitmap
PUBLIC	??_GCBitmap@@UAEPAXI@Z				; CBitmap::`scalar deleting destructor'
PUBLIC	?DoDataExchange@CWnd@@MAEXPAVCDataExchange@@@Z	; CWnd::DoDataExchange
PUBLIC	?BeginModalState@CWnd@@UAEXXZ			; CWnd::BeginModalState
PUBLIC	?EndModalState@CWnd@@UAEXXZ			; CWnd::EndModalState
PUBLIC	??1CRscDlg@@UAE@XZ				; CRscDlg::~CRscDlg
PUBLIC	??0CDlgToolbar@@QAE@PAVCWnd@@@Z			; CDlgToolbar::CDlgToolbar
PUBLIC	??1CDlgToolbar@@UAE@XZ				; CDlgToolbar::~CDlgToolbar
PUBLIC	?ResizeControl@CDlgToolbar@@UAEXHH@Z		; CDlgToolbar::ResizeControl
PUBLIC	?SelectToolSelection@CDlgToolbar@@QAEXXZ	; CDlgToolbar::SelectToolSelection
PUBLIC	?ResetAllButton@CDlgToolbar@@QAEXXZ		; CDlgToolbar::ResetAllButton
PUBLIC	?SetToggleButton@CDlgToolbar@@QAEXHH@Z		; CDlgToolbar::SetToggleButton
PUBLIC	?GetIndexArray@CDlgToolbar@@QAEHHAAV?$CArray@HH@@0@Z ; CDlgToolbar::GetIndexArray
PUBLIC	?GetToolNameMap@CDlgToolbar@@QAEHAAV?$CMap@HHV?$CStringT@DV?$StrTraitMFC_DLL@DV?$ChTraitsCRT@D@ATL@@@@@ATL@@V12@@@@Z ; CDlgToolbar::GetToolNameMap
PUBLIC	?GetToolOption@CDlgToolbar@@QAE?AW4TOOLOPTION@CToolOptionInfo@@I@Z ; CDlgToolbar::GetToolOption
PUBLIC	?SetToggleBtnFromOutside@CDlgToolbar@@QAEXI@Z	; CDlgToolbar::SetToggleBtnFromOutside
PUBLIC	?CreateToolButton@CDlgToolbar@@IAEHXZ		; CDlgToolbar::CreateToolButton
PUBLIC	??0?$CArray@HH@@QAE@XZ				; CArray<int,int>::CArray<int,int>
PUBLIC	?SetSize@?$CArray@HH@@QAEXHH@Z			; CArray<int,int>::SetSize
PUBLIC	?SetAtGrow@?$CArray@HH@@QAEXHH@Z		; CArray<int,int>::SetAtGrow
PUBLIC	??1?$CArray@HH@@UAE@XZ				; CArray<int,int>::~CArray<int,int>
PUBLIC	?Serialize@?$CArray@HH@@UAEXAAVCArchive@@@Z	; CArray<int,int>::Serialize
PUBLIC	??_G?$CArray@HH@@UAEPAXI@Z			; CArray<int,int>::`scalar deleting destructor'
PUBLIC	??0?$CMap@HHV?$CStringT@DV?$StrTraitMFC_DLL@DV?$ChTraitsCRT@D@ATL@@@@@ATL@@V12@@@QAE@H@Z ; CMap<int,int,ATL::CStringT<char,StrTraitMFC_DLL<char,ATL::ChTraitsCRT<char> > >,ATL::CStringT<char,StrTraitMFC_DLL<char,ATL::ChTraitsCRT<char> > > >::CMap<int,int,ATL::CStringT<char,StrTraitMFC_DLL<char,ATL::ChTraitsCRT<char> > >,ATL::CStringT<char,StrTraitMFC_DLL<char,ATL::ChTraitsCRT<char> > > >
PUBLIC	?Lookup@?$CMap@HHV?$CStringT@DV?$StrTraitMFC_DLL@DV?$ChTraitsCRT@D@ATL@@@@@ATL@@V12@@@QBEHHAAV?$CStringT@DV?$StrTraitMFC_DLL@DV?$ChTraitsCRT@D@ATL@@@@@ATL@@@Z ; CMap<int,int,ATL::CStringT<char,StrTraitMFC_DLL<char,ATL::ChTraitsCRT<char> > >,ATL::CStringT<char,StrTraitMFC_DLL<char,ATL::ChTraitsCRT<char> > > >::Lookup
PUBLIC	??A?$CMap@HHV?$CStringT@DV?$StrTraitMFC_DLL@DV?$ChTraitsCRT@D@ATL@@@@@ATL@@V12@@@QAEAAV?$CStringT@DV?$StrTraitMFC_DLL@DV?$ChTraitsCRT@D@ATL@@@@@ATL@@H@Z ; CMap<int,int,ATL::CStringT<char,StrTraitMFC_DLL<char,ATL::ChTraitsCRT<char> > >,ATL::CStringT<char,StrTraitMFC_DLL<char,ATL::ChTraitsCRT<char> > > >::operator[]
PUBLIC	?RemoveAll@?$CMap@HHV?$CStringT@DV?$StrTraitMFC_DLL@DV?$ChTraitsCRT@D@ATL@@@@@ATL@@V12@@@QAEXXZ ; CMap<int,int,ATL::CStringT<char,StrTraitMFC_DLL<char,ATL::ChTraitsCRT<char> > >,ATL::CStringT<char,StrTraitMFC_DLL<char,ATL::ChTraitsCRT<char> > > >::RemoveAll
PUBLIC	?InitHashTable@?$CMap@HHV?$CStringT@DV?$StrTraitMFC_DLL@DV?$ChTraitsCRT@D@ATL@@@@@ATL@@V12@@@QAEXIH@Z ; CMap<int,int,ATL::CStringT<char,StrTraitMFC_DLL<char,ATL::ChTraitsCRT<char> > >,ATL::CStringT<char,StrTraitMFC_DLL<char,ATL::ChTraitsCRT<char> > > >::InitHashTable
PUBLIC	?NewAssoc@?$CMap@HHV?$CStringT@DV?$StrTraitMFC_DLL@DV?$ChTraitsCRT@D@ATL@@@@@ATL@@V12@@@IAEPAVCAssoc@1@H@Z ; CMap<int,int,ATL::CStringT<char,StrTraitMFC_DLL<char,ATL::ChTraitsCRT<char> > >,ATL::CStringT<char,StrTraitMFC_DLL<char,ATL::ChTraitsCRT<char> > > >::NewAssoc
PUBLIC	?GetAssocAt@?$CMap@HHV?$CStringT@DV?$StrTraitMFC_DLL@DV?$ChTraitsCRT@D@ATL@@@@@ATL@@V12@@@IBEPAVCAssoc@1@HAAI0@Z ; CMap<int,int,ATL::CStringT<char,StrTraitMFC_DLL<char,ATL::ChTraitsCRT<char> > >,ATL::CStringT<char,StrTraitMFC_DLL<char,ATL::ChTraitsCRT<char> > > >::GetAssocAt
PUBLIC	??1?$CMap@HHV?$CStringT@DV?$StrTraitMFC_DLL@DV?$ChTraitsCRT@D@ATL@@@@@ATL@@V12@@@UAE@XZ ; CMap<int,int,ATL::CStringT<char,StrTraitMFC_DLL<char,ATL::ChTraitsCRT<char> > >,ATL::CStringT<char,StrTraitMFC_DLL<char,ATL::ChTraitsCRT<char> > > >::~CMap<int,int,ATL::CStringT<char,StrTraitMFC_DLL<char,ATL::ChTraitsCRT<char> > >,ATL::CStringT<char,StrTraitMFC_DLL<char,ATL::ChTraitsCRT<char> > > >
PUBLIC	?Serialize@?$CMap@HHV?$CStringT@DV?$StrTraitMFC_DLL@DV?$ChTraitsCRT@D@ATL@@@@@ATL@@V12@@@UAEXAAVCArchive@@@Z ; CMap<int,int,ATL::CStringT<char,StrTraitMFC_DLL<char,ATL::ChTraitsCRT<char> > >,ATL::CStringT<char,StrTraitMFC_DLL<char,ATL::ChTraitsCRT<char> > > >::Serialize
PUBLIC	??_G?$CMap@HHV?$CStringT@DV?$StrTraitMFC_DLL@DV?$ChTraitsCRT@D@ATL@@@@@ATL@@V12@@@UAEPAXI@Z ; CMap<int,int,ATL::CStringT<char,StrTraitMFC_DLL<char,ATL::ChTraitsCRT<char> > >,ATL::CStringT<char,StrTraitMFC_DLL<char,ATL::ChTraitsCRT<char> > > >::`scalar deleting destructor'
PUBLIC	?ReadIniFile@CDlgToolbar@@IAEXH@Z		; CDlgToolbar::ReadIniFile
PUBLIC	?GetFieldData@CDlgToolbar@@IAEXV?$CStringT@DV?$StrTraitMFC_DLL@DV?$ChTraitsCRT@D@ATL@@@@@ATL@@AAHAAV23@@Z ; CDlgToolbar::GetFieldData
PUBLIC	?ResizeToolbar@CDlgToolbar@@IAEXH@Z		; CDlgToolbar::ResizeToolbar
PUBLIC	?DrawHighMenu@CDlgToolbar@@IAEHHH@Z		; CDlgToolbar::DrawHighMenu
PUBLIC	?DrawLowMenu@CDlgToolbar@@IAEHHHH@Z		; CDlgToolbar::DrawLowMenu
PUBLIC	?GetDrawInfo@CDlgToolbar@@IAEXHH@Z		; CDlgToolbar::GetDrawInfo
PUBLIC	?OnCmdMsg@CDlgToolbar@@UAEHIHPAXPAUAFX_CMDHANDLERINFO@@@Z ; CDlgToolbar::OnCmdMsg
PUBLIC	?DestroyWindow@CDlgToolbar@@UAEHXZ		; CDlgToolbar::DestroyWindow
PUBLIC	?DoDataExchange@CDlgToolbar@@MAEXPAVCDataExchange@@@Z ; CDlgToolbar::DoDataExchange
PUBLIC	?WindowProc@CDlgToolbar@@MAEJIIJ@Z		; CDlgToolbar::WindowProc
PUBLIC	?PreTranslateMessage@CDlgToolbar@@MAEHPAUtagMSG@@@Z ; CDlgToolbar::PreTranslateMessage
PUBLIC	?OnInitDialog@CDlgToolbar@@MAEHXZ		; CDlgToolbar::OnInitDialog
PUBLIC	?OnPaint@CDlgToolbar@@IAEXXZ			; CDlgToolbar::OnPaint
PUBLIC	?OnSize@CDlgToolbar@@IAEXIHH@Z			; CDlgToolbar::OnSize
PUBLIC	?OnEraseBkgnd@CDlgToolbar@@IAEHPAVCDC@@@Z	; CDlgToolbar::OnEraseBkgnd
PUBLIC	?GetThisMessageMap@CDlgToolbar@@KGPBUAFX_MSGMAP@@XZ ; CDlgToolbar::GetThisMessageMap
PUBLIC	?GetMessageMap@CDlgToolbar@@MBEPBUAFX_MSGMAP@@XZ ; CDlgToolbar::GetMessageMap
PUBLIC	??_GCDlgToolbar@@UAEPAXI@Z			; CDlgToolbar::`scalar deleting destructor'
PUBLIC	??1CDlgSettingToolBar@@UAE@XZ			; CDlgSettingToolBar::~CDlgSettingToolBar
PUBLIC	??1stringdispid@CComTypeInfoHolder@ATL@@QAE@XZ	; ATL::CComTypeInfoHolder::stringdispid::~stringdispid
PUBLIC	??_Estringdispid@CComTypeInfoHolder@ATL@@QAEPAXI@Z ; ATL::CComTypeInfoHolder::stringdispid::`vector deleting destructor'
PUBLIC	??$SerializeElements@H@@YGXAAVCArchive@@PAHH@Z	; SerializeElements<int>
PUBLIC	??$CompareElements@HH@@YGHPBH0@Z		; CompareElements<int,int>
PUBLIC	?_OptionsStorage@?1??__local_stdio_printf_options@@9@4_KA ; `__local_stdio_printf_options'::`2'::_OptionsStorage
PUBLIC	?_OptionsStorage@?1??__local_stdio_scanf_options@@9@4_KA ; `__local_stdio_scanf_options'::`2'::_OptionsStorage
PUBLIC	??_R0PAVCException@@@8				; CException * `RTTI Type Descriptor'
PUBLIC	?_AtlWinModule@ATL@@3VCAtlWinModule@1@A		; ATL::_AtlWinModule
PUBLIC	??_C@_00CNPNBAHC@@				; `string'
PUBLIC	??_7CGdiObject@@6B@				; CGdiObject::`vftable'
PUBLIC	??_7CPen@@6B@					; CPen::`vftable'
PUBLIC	??_7CFont@@6B@					; CFont::`vftable'
PUBLIC	??_7CBitmap@@6B@				; CBitmap::`vftable'
PUBLIC	??_C@_0HD@JJCHHHNK@C?3?2Program?5Files?5?$CIx86?$CJ?2Microsof@ ; `string'
PUBLIC	??_C@_0BP@OIEOKIDM@Exception?5thrown?5in?5destructor@ ; `string'
PUBLIC	??_C@_0BB@HBOOMJBF@?$CFTs?5?$CI?$CFTs?3?$CFd?$CJ?6?$CFTs@ ; `string'
PUBLIC	??_C@_0N@OMEMOKLE@?$CFTs?5?$CI?$CFTs?3?$CFd?$CJ@ ; `string'
PUBLIC	??_C@_02DKCKIIND@?$CFs@				; `string'
PUBLIC	??_C@_0M@CBBNGGHM@PcTrMng?4dll@			; `string'
PUBLIC	??_C@_06NDLAHCHE@?$CFs?$CF08X@			; `string'
PUBLIC	??_C@_02EMFKHFLK@?$CFX@				; `string'
PUBLIC	??_C@_01KICIPPFI@?2@				; `string'
PUBLIC	??_R0?AVCObject@@@8				; CObject `RTTI Type Descriptor'
PUBLIC	??_R3CObject@@8					; CObject::`RTTI Class Hierarchy Descriptor'
PUBLIC	??_R2CObject@@8					; CObject::`RTTI Base Class Array'
PUBLIC	??_R1A@?0A@EA@CObject@@8			; CObject::`RTTI Base Class Descriptor at (0,-1,0,64)'
PUBLIC	??_R4CGdiObject@@6B@				; CGdiObject::`RTTI Complete Object Locator'
PUBLIC	??_R0?AVCGdiObject@@@8				; CGdiObject `RTTI Type Descriptor'
PUBLIC	??_R3CGdiObject@@8				; CGdiObject::`RTTI Class Hierarchy Descriptor'
PUBLIC	??_R2CGdiObject@@8				; CGdiObject::`RTTI Base Class Array'
PUBLIC	??_R1A@?0A@EA@CGdiObject@@8			; CGdiObject::`RTTI Base Class Descriptor at (0,-1,0,64)'
PUBLIC	??_R4CPen@@6B@					; CPen::`RTTI Complete Object Locator'
PUBLIC	??_R0?AVCPen@@@8				; CPen `RTTI Type Descriptor'
PUBLIC	??_R3CPen@@8					; CPen::`RTTI Class Hierarchy Descriptor'
PUBLIC	??_R2CPen@@8					; CPen::`RTTI Base Class Array'
PUBLIC	??_R1A@?0A@EA@CPen@@8				; CPen::`RTTI Base Class Descriptor at (0,-1,0,64)'
PUBLIC	??_R4CFont@@6B@					; CFont::`RTTI Complete Object Locator'
PUBLIC	??_R0?AVCFont@@@8				; CFont `RTTI Type Descriptor'
PUBLIC	??_R3CFont@@8					; CFont::`RTTI Class Hierarchy Descriptor'
PUBLIC	??_R2CFont@@8					; CFont::`RTTI Base Class Array'
PUBLIC	??_R1A@?0A@EA@CFont@@8				; CFont::`RTTI Base Class Descriptor at (0,-1,0,64)'
PUBLIC	??_R4CBitmap@@6B@				; CBitmap::`RTTI Complete Object Locator'
PUBLIC	??_R0?AVCBitmap@@@8				; CBitmap `RTTI Type Descriptor'
PUBLIC	??_R3CBitmap@@8					; CBitmap::`RTTI Class Hierarchy Descriptor'
PUBLIC	??_R2CBitmap@@8					; CBitmap::`RTTI Base Class Array'
PUBLIC	??_R1A@?0A@EA@CBitmap@@8			; CBitmap::`RTTI Base Class Descriptor at (0,-1,0,64)'
PUBLIC	??_R1A@?0A@EA@CWnd@@8				; CWnd::`RTTI Base Class Descriptor at (0,-1,0,64)'
PUBLIC	??_R0?AVCWnd@@@8				; CWnd `RTTI Type Descriptor'
PUBLIC	??_R3CWnd@@8					; CWnd::`RTTI Class Hierarchy Descriptor'
PUBLIC	??_R2CWnd@@8					; CWnd::`RTTI Base Class Array'
PUBLIC	??_R1A@?0A@EA@CCmdTarget@@8			; CCmdTarget::`RTTI Base Class Descriptor at (0,-1,0,64)'
PUBLIC	??_R0?AVCCmdTarget@@@8				; CCmdTarget `RTTI Type Descriptor'
PUBLIC	??_R3CCmdTarget@@8				; CCmdTarget::`RTTI Class Hierarchy Descriptor'
PUBLIC	??_R2CCmdTarget@@8				; CCmdTarget::`RTTI Base Class Array'
PUBLIC	??_R1A@?0A@EA@CDialog@@8			; CDialog::`RTTI Base Class Descriptor at (0,-1,0,64)'
PUBLIC	??_R0?AVCDialog@@@8				; CDialog `RTTI Type Descriptor'
PUBLIC	??_R3CDialog@@8					; CDialog::`RTTI Class Hierarchy Descriptor'
PUBLIC	??_R2CDialog@@8					; CDialog::`RTTI Base Class Array'
PUBLIC	??_7?$CArray@HH@@6B@				; CArray<int,int>::`vftable'
PUBLIC	??_7?$CMap@HHV?$CStringT@DV?$StrTraitMFC_DLL@DV?$ChTraitsCRT@D@ATL@@@@@ATL@@V12@@@6B@ ; CMap<int,int,ATL::CStringT<char,StrTraitMFC_DLL<char,ATL::ChTraitsCRT<char> > >,ATL::CStringT<char,StrTraitMFC_DLL<char,ATL::ChTraitsCRT<char> > > >::`vftable'
PUBLIC	??_7CDlgToolbar@@6B@				; CDlgToolbar::`vftable'
PUBLIC	??_C@_0BD@CMCCCNBF@HANAROIGATEMANAGER@		; `string'
PUBLIC	??_C@_06MFMMLLPC@?$LB?$LM?$LI?$LC?C?$LM@	; `string'
PUBLIC	??_C@_06CDNBHBF@?E?x?$LM?$LB?E?C@		; `string'
PUBLIC	??_C@_01CLKCMJKC@?5@				; `string'
PUBLIC	??_C@_0L@PPOMAPHP@?B?w?F?$KO?E?x?F?m?A?$PN@	; `string'
PUBLIC	??_C@_0BE@ECBLFEAB@?$CFs?2toolbar_move?4bmp@	; `string'
PUBLIC	??_C@_0N@CLMOGOJM@?$LL?s?$MA?$KH?$LJ?v?F?$LA?$LK?$LI?$LB?b@ ; `string'
PUBLIC	??_C@_0N@BKKDNAGG@?G?O?$MA?$KH?$LJ?v?F?$LA?$LK?$LI?$LB?b@ ; `string'
PUBLIC	??_C@_0BI@OIIEJFGC@ChartToolBarSetting?4dat@	; `string'
PUBLIC	??_C@_05BMGBEOOC@?$CFs?2?$CFs@			; `string'
PUBLIC	??_C@_05GKHKKECO@TOTAL@				; `string'
PUBLIC	??_C@_05EFFCCOAM@COUNT@				; `string'
PUBLIC	??_C@_07NCHCCDCP@VERSION@			; `string'
PUBLIC	??_C@_0L@LGBCNOOM@TOTAL?5LIST@			; `string'
PUBLIC	??_C@_04OGKJMPGK@?$CF02d@			; `string'
PUBLIC	??_C@_09NBFPFBIM@ANAL?5LIST@			; `string'
PUBLIC	??_C@_0O@PLHPCCBM@ADDITION?5LIST@		; `string'
PUBLIC	??_C@_09BBDODMFB@USER?5LIST@			; `string'
PUBLIC	??_C@_0L@ILMFLGJO@?$LL?g?$LP?k?$MA?Z?$LM?$LD?A?$KE@ ; `string'
PUBLIC	??_C@_08BMGJALFP@?$LK?P?$LM?$KO?$LF?$LF?$LB?$LI@ ; `string'
PUBLIC	??_C@_08NABLOLGA@?$LK?N?$LA?$KB?$LB?b?$LE?I@	; `string'
PUBLIC	??_C@_04ILLFIHBD@?$MA?z?$MA?e@			; `string'
PUBLIC	??_C@_08MBBCHGKM@?$LK?R?$LH?$KP?$LP?$MA?$LB?b@	; `string'
PUBLIC	??_C@_04OGFGOPBG@?$MA?N?$LM?b@			; `string'
PUBLIC	??_C@_09COBNEPKD@Excel?$LK?$KP?H?$KP@		; `string'
PUBLIC	??_C@_0L@NNFDJLGM@?$MA?Z?$LF?$LP?C?$NP?$LM?$LM?$LM?$LB@ ; `string'
PUBLIC	??_C@_08FGFLHNHO@?C?$NP?$LM?$LM?F?P?E?O@	; `string'
PUBLIC	??_C@_08LKMKHAFD@?D?$LF?$LF?i?F?P?E?O@		; `string'
PUBLIC	??_C@_08NJNPNNKE@?F?P?E?O?E?k?$LA?h@		; `string'
PUBLIC	??_C@_08CKFLHKDJ@?F?P?E?O?$LM?$LD?A?$KE@	; `string'
PUBLIC	??_C@_08JBKIJOF@?H?$KP?$LA?f?$LM?$LD?A?$KE@	; `string'
PUBLIC	??_C@_08NPIGFMCH@?$LA?$KB?$LA?$NN?$MA?L?F?r@	; `string'
PUBLIC	??_C@_07MCHEHJLP@?$MA?L?F?rSet@			; `string'
PUBLIC	??_C@_0L@LPGFGOCL@?$LA?E?$LH?$KB?$LH?$KO?$MA?L?F?r@ ; `string'
PUBLIC	??_C@_08IMLCKOLO@?$MA?O?A?V?$LP?y?$LK?P@	; `string'
PUBLIC	??_C@_06LJBCBGIM@?$LB?b?A?X?$LM?$LB@		; `string'
PUBLIC	??_C@_0N@BNPHCDMM@?$LM?v?D?$KB?A?$LG?H?$LI?G?O?$LE?$NM@ ; `string'
PUBLIC	??_C@_0N@LAKHKAAC@?$LP?x?E?$KM?$LI?$KP?$LM?$PL?$LB?b?$LB?b@ ; `string'
PUBLIC	??_C@_0N@BLLFONEB@?$LE?$KL?$LB?$NN?$LP?$LF?$LP?$KK?$LM?$PL?$LB?h@ ; `string'
PUBLIC	??_C@_0N@IMOJLLBB@?$LN?$LK?E?$KJ?$LH?Q?$LM?$PL?$LB?b?$LB?b@ ; `string'
PUBLIC	??_C@_08DLHMIPKD@?$LM?v?D?$KB?A?$LG?H?$LI@	; `string'
PUBLIC	??_C@_06MMCCKCBH@?$LF?$LI?$LK?$LI?$LB?b@	; `string'
PUBLIC	??_C@_04OHLPBPFK@?$LF?$LF?G?$PM@		; `string'
PUBLIC	??_C@_04HCJKIICH@?$LB?b?H?$KD@			; `string'
PUBLIC	??_C@_0O@OKNAFKHL@?$LG?s?$MA?N?A?$LO?$LH?y?5?A?v?A?$KE@ ; `string'
PUBLIC	??_C@_0M@KBICNPCM@?$LG?s?$MA?N?$LL?v?5?A?v?A?$KE@ ; `string'
PUBLIC	??_C@_0M@DFOJHEAI@Y?C?$OA?$LE?$NM?$MA?$KH?$MA?$PM?H?$KP@ ; `string'
PUBLIC	??_C@_0BM@HJIIOEBE@?G?$KF?$LN?C?G?R?5?G?O?$MA?$KH?$LI?$NO?$LE?$LK?$LA?$KB?5?$LO?x?$LN?$MA?$LE?O?$LE?Y?4@ ; `string'
PUBLIC	??_C@_0BM@EPECFFNJ@?G?$KF?$LN?C?G?R?5?$LL?s?$MA?$KH?$LI?$NO?$LE?$LK?$LA?$KB?5?$LO?x?$LN?$MA?$LE?O?$LE?Y?4@ ; `string'
PUBLIC	??_C@_0CJ@OKMEPDME@ToolBar?$LP?$KB?5?$LL?s?$MA?$KH?$LI?$NO?$LE?$LK?$LI?$KG?5?G?$KF?$LN?C?G?R?5?$LM?v?5@ ; `string'
PUBLIC	??_C@_0CJ@BIEPGJJM@ToolBar?$LP?$KB?5?G?O?$MA?$KH?$LI?$NO?$LE?$LK?$LI?$KG?5?G?$KF?$LN?C?G?R?5?$LM?v?5@ ; `string'
PUBLIC	??_R4CDlgToolbar@@6B@				; CDlgToolbar::`RTTI Complete Object Locator'
PUBLIC	??_R0?AVCDlgToolbar@@@8				; CDlgToolbar `RTTI Type Descriptor'
PUBLIC	??_R3CDlgToolbar@@8				; CDlgToolbar::`RTTI Class Hierarchy Descriptor'
PUBLIC	??_R2CDlgToolbar@@8				; CDlgToolbar::`RTTI Base Class Array'
PUBLIC	??_R1A@?0A@EA@CDlgToolbar@@8			; CDlgToolbar::`RTTI Base Class Descriptor at (0,-1,0,64)'
PUBLIC	??_R1A@?0A@EA@CRscDlg@@8			; CRscDlg::`RTTI Base Class Descriptor at (0,-1,0,64)'
PUBLIC	??_R0?AVCRscDlg@@@8				; CRscDlg `RTTI Type Descriptor'
PUBLIC	??_R3CRscDlg@@8					; CRscDlg::`RTTI Class Hierarchy Descriptor'
PUBLIC	??_R2CRscDlg@@8					; CRscDlg::`RTTI Base Class Array'
PUBLIC	??_R4?$CArray@HH@@6B@				; CArray<int,int>::`RTTI Complete Object Locator'
PUBLIC	??_R0?AV?$CArray@HH@@@8				; CArray<int,int> `RTTI Type Descriptor'
PUBLIC	??_R3?$CArray@HH@@8				; CArray<int,int>::`RTTI Class Hierarchy Descriptor'
PUBLIC	??_R2?$CArray@HH@@8				; CArray<int,int>::`RTTI Base Class Array'
PUBLIC	??_R1A@?0A@EA@?$CArray@HH@@8			; CArray<int,int>::`RTTI Base Class Descriptor at (0,-1,0,64)'
PUBLIC	??_R4?$CMap@HHV?$CStringT@DV?$StrTraitMFC_DLL@DV?$ChTraitsCRT@D@ATL@@@@@ATL@@V12@@@6B@ ; CMap<int,int,ATL::CStringT<char,StrTraitMFC_DLL<char,ATL::ChTraitsCRT<char> > >,ATL::CStringT<char,StrTraitMFC_DLL<char,ATL::ChTraitsCRT<char> > > >::`RTTI Complete Object Locator'
PUBLIC	??_R0?AV?$CMap@HHV?$CStringT@DV?$StrTraitMFC_DLL@DV?$ChTraitsCRT@D@ATL@@@@@ATL@@V12@@@@8 ; CMap<int,int,ATL::CStringT<char,StrTraitMFC_DLL<char,ATL::ChTraitsCRT<char> > >,ATL::CStringT<char,StrTraitMFC_DLL<char,ATL::ChTraitsCRT<char> > > > `RTTI Type Descriptor'
PUBLIC	??_R3?$CMap@HHV?$CStringT@DV?$StrTraitMFC_DLL@DV?$ChTraitsCRT@D@ATL@@@@@ATL@@V12@@@8 ; CMap<int,int,ATL::CStringT<char,StrTraitMFC_DLL<char,ATL::ChTraitsCRT<char> > >,ATL::CStringT<char,StrTraitMFC_DLL<char,ATL::ChTraitsCRT<char> > > >::`RTTI Class Hierarchy Descriptor'
PUBLIC	??_R2?$CMap@HHV?$CStringT@DV?$StrTraitMFC_DLL@DV?$ChTraitsCRT@D@ATL@@@@@ATL@@V12@@@8 ; CMap<int,int,ATL::CStringT<char,StrTraitMFC_DLL<char,ATL::ChTraitsCRT<char> > >,ATL::CStringT<char,StrTraitMFC_DLL<char,ATL::ChTraitsCRT<char> > > >::`RTTI Base Class Array'
PUBLIC	??_R1A@?0A@EA@?$CMap@HHV?$CStringT@DV?$StrTraitMFC_DLL@DV?$ChTraitsCRT@D@ATL@@@@@ATL@@V12@@@8 ; CMap<int,int,ATL::CStringT<char,StrTraitMFC_DLL<char,ATL::ChTraitsCRT<char> > >,ATL::CStringT<char,StrTraitMFC_DLL<char,ATL::ChTraitsCRT<char> > > >::`RTTI Base Class Descriptor at (0,-1,0,64)'
PUBLIC	__xmm@00000190000000000000000000000000
EXTRN	??_L@YGXPAXIIP6EX0@Z1@Z:PROC			; `eh vector constructor iterator'
EXTRN	??_M@YGXPAXIIP6EX0@Z@Z:PROC			; `eh vector destructor iterator'
EXTRN	??2@YAPAXI@Z:PROC				; operator new
EXTRN	??3@YAXPAX@Z:PROC				; operator delete
EXTRN	??3@YAXPAXI@Z:PROC				; operator delete
EXTRN	?__global_delete@@YAXPAXI@Z:PROC		; __global_delete
EXTRN	??_U@YAPAXI@Z:PROC				; operator new[]
EXTRN	??_V@YAXPAX@Z:PROC				; operator delete[]
EXTRN	??_V@YAXPAXI@Z:PROC				; operator delete[]
EXTRN	_atexit:PROC
EXTRN	__imp___invalid_parameter_noinfo:PROC
EXTRN	__imp___errno:PROC
EXTRN	__imp__GetEnvironmentVariableA@12:PROC
EXTRN	__imp__RaiseException@16:PROC
EXTRN	__imp__GetLastError@0:PROC
EXTRN	__imp__InitializeCriticalSectionEx@12:PROC
EXTRN	__imp__DeleteCriticalSection@4:PROC
EXTRN	__imp__GetModuleHandleA@4:PROC
EXTRN	__imp__GetPrivateProfileIntA@16:PROC
EXTRN	__imp__GetPrivateProfileStringA@24:PROC
EXTRN	__imp__BitBlt@36:PROC
EXTRN	__imp__CreateCompatibleBitmap@12:PROC
EXTRN	__imp__CreateCompatibleDC@4:PROC
EXTRN	__imp__CreateFontIndirectA@4:PROC
EXTRN	__imp__CreateSolidBrush@4:PROC
EXTRN	__imp__DeleteObject@4:PROC
EXTRN	__imp__RegisterWindowMessageA@4:PROC
EXTRN	__imp__SendMessageA@16:PROC
EXTRN	__imp__PostMessageA@16:PROC
EXTRN	__imp__UnregisterClassA@8:PROC
EXTRN	__imp__IsWindow@4:PROC
EXTRN	__imp__IsWindowVisible@4:PROC
EXTRN	__imp__EnableWindow@8:PROC
EXTRN	__imp__InvalidateRect@12:PROC
EXTRN	__imp__GetClientRect@8:PROC
EXTRN	__imp__GetWindowRect@8:PROC
EXTRN	__imp__GetParent@4:PROC
EXTRN	__imp__LoadImageA@24:PROC
EXTRN	__imp__ImageList_AddMasked@12:PROC
EXTRN	__imp____stdio_common_vsprintf:PROC
EXTRN	__imp____stdio_common_vsscanf:PROC
EXTRN	__imp__free:PROC
EXTRN	__imp__atoi:PROC
EXTRN	?AfxThrowMemoryException@@YGXXZ:PROC		; AfxThrowMemoryException
EXTRN	?AfxThrowInvalidArgException@@YGXXZ:PROC	; AfxThrowInvalidArgException
EXTRN	?AfxThrowArchiveException@@YGXHPBD@Z:PROC	; AfxThrowArchiveException
EXTRN	?GetRuntimeClass@CObject@@UBEPAUCRuntimeClass@@XZ:PROC ; CObject::GetRuntimeClass
EXTRN	__imp__SysFreeString@4:PROC
EXTRN	__imp_?GetBuffer@?$CSimpleStringT@D$00@ATL@@QAEPADH@Z:PROC
EXTRN	__imp_?ReleaseBuffer@?$CSimpleStringT@D$00@ATL@@QAEXH@Z:PROC
EXTRN	__imp_?Concatenate@?$CSimpleStringT@D$00@ATL@@KAXAAV12@PBDH1H@Z:PROC
EXTRN	__imp_??0?$CStringT@DV?$StrTraitMFC_DLL@DV?$ChTraitsCRT@D@ATL@@@@@ATL@@QAE@XZ:PROC
EXTRN	__imp_??0?$CStringT@DV?$StrTraitMFC_DLL@DV?$ChTraitsCRT@D@ATL@@@@@ATL@@QAE@PAUIAtlStringMgr@1@@Z:PROC
EXTRN	__imp_??0?$CStringT@DV?$StrTraitMFC_DLL@DV?$ChTraitsCRT@D@ATL@@@@@ATL@@QAE@ABV01@@Z:PROC
EXTRN	__imp_??0?$CStringT@DV?$StrTraitMFC_DLL@DV?$ChTraitsCRT@D@ATL@@@@@ATL@@QAE@PBD@Z:PROC
EXTRN	__imp_??1?$CStringT@DV?$StrTraitMFC_DLL@DV?$ChTraitsCRT@D@ATL@@@@@ATL@@QAE@XZ:PROC
EXTRN	__imp_??4?$CStringT@DV?$StrTraitMFC_DLL@DV?$ChTraitsCRT@D@ATL@@@@@ATL@@QAEAAV01@ABV01@@Z:PROC
EXTRN	__imp_??4?$CStringT@DV?$StrTraitMFC_DLL@DV?$ChTraitsCRT@D@ATL@@@@@ATL@@QAEAAV01@PBD@Z:PROC
EXTRN	__imp_?GetManager@?$CStringT@DV?$StrTraitMFC_DLL@DV?$ChTraitsCRT@D@ATL@@@@@ATL@@QBEPAUIAtlStringMgr@2@XZ:PROC
EXTRN	__imp_?Compare@?$CStringT@DV?$StrTraitMFC_DLL@DV?$ChTraitsCRT@D@ATL@@@@@ATL@@QBEHPBD@Z:PROC
EXTRN	__imp_?Delete@?$CStringT@DV?$StrTraitMFC_DLL@DV?$ChTraitsCRT@D@ATL@@@@@ATL@@QAEHHH@Z:PROC
EXTRN	__imp_?Replace@?$CStringT@DV?$StrTraitMFC_DLL@DV?$ChTraitsCRT@D@ATL@@@@@ATL@@QAEHPBD0@Z:PROC
EXTRN	__imp_?Find@?$CStringT@DV?$StrTraitMFC_DLL@DV?$ChTraitsCRT@D@ATL@@@@@ATL@@QBEHDH@Z:PROC
EXTRN	__imp_?Left@?$CStringT@DV?$StrTraitMFC_DLL@DV?$ChTraitsCRT@D@ATL@@@@@ATL@@QBE?AV12@H@Z:PROC
EXTRN	__imp_?Format@?$CStringT@DV?$StrTraitMFC_DLL@DV?$ChTraitsCRT@D@ATL@@@@@ATL@@QAAXPBDZZ:PROC
EXTRN	??0CFileFind@@QAE@XZ:PROC			; CFileFind::CFileFind
EXTRN	??1CFileFind@@UAE@XZ:PROC			; CFileFind::~CFileFind
EXTRN	?FindFile@CFileFind@@UAEHPBDK@Z:PROC		; CFileFind::FindFile
EXTRN	?Read@CArchive@@QAEIPAXI@Z:PROC			; CArchive::Read
EXTRN	?Write@CArchive@@QAEXPBXI@Z:PROC		; CArchive::Write
EXTRN	?ReadCount@CArchive@@QAEKXZ:PROC		; CArchive::ReadCount
EXTRN	?WriteCount@CArchive@@QAEXK@Z:PROC		; CArchive::WriteCount
EXTRN	?AfxGetStaticModuleState@@YGPAVAFX_MODULE_STATE@@XZ:PROC ; AfxGetStaticModuleState
EXTRN	??0AFX_MAINTAIN_STATE2@@QAE@PAVAFX_MODULE_STATE@@@Z:PROC ; AFX_MAINTAIN_STATE2::AFX_MAINTAIN_STATE2
EXTRN	??1AFX_MAINTAIN_STATE2@@QAE@XZ:PROC		; AFX_MAINTAIN_STATE2::~AFX_MAINTAIN_STATE2
EXTRN	?Create@CPlex@@SGPAU1@AAPAU1@II@Z:PROC		; CPlex::Create
EXTRN	?FreeDataChain@CPlex@@QAEXXZ:PROC		; CPlex::FreeDataChain
EXTRN	??$SerializeElements@V?$CStringT@DV?$StrTraitMFC_DLL@DV?$ChTraitsCRT@D@ATL@@@@@ATL@@@@YGXAAVCArchive@@PAV?$CStringT@DV?$StrTraitMFC_DLL@DV?$ChTraitsCRT@D@ATL@@@@@ATL@@H@Z:PROC ; SerializeElements<ATL::CStringT<char,StrTraitMFC_DLL<char,ATL::ChTraitsCRT<char> > > >
EXTRN	?GetRuntimeClass@CGdiObject@@UBEPAUCRuntimeClass@@XZ:PROC ; CGdiObject::GetRuntimeClass
EXTRN	?FromHandle@CGdiObject@@SGPAV1@PAX@Z:PROC	; CGdiObject::FromHandle
EXTRN	?Attach@CGdiObject@@QAEHPAX@Z:PROC		; CGdiObject::Attach
EXTRN	?DeleteObject@CGdiObject@@QAEHXZ:PROC		; CGdiObject::DeleteObject
EXTRN	??_ECGdiObject@@UAEPAXI@Z:PROC			; CGdiObject::`vector deleting destructor'
EXTRN	?GetRuntimeClass@CPen@@UBEPAUCRuntimeClass@@XZ:PROC ; CPen::GetRuntimeClass
EXTRN	??0CPen@@QAE@HHK@Z:PROC				; CPen::CPen
EXTRN	??_ECPen@@UAEPAXI@Z:PROC			; CPen::`vector deleting destructor'
EXTRN	?GetRuntimeClass@CFont@@UBEPAUCRuntimeClass@@XZ:PROC ; CFont::GetRuntimeClass
EXTRN	??_ECFont@@UAEPAXI@Z:PROC			; CFont::`vector deleting destructor'
EXTRN	?GetRuntimeClass@CBitmap@@UBEPAUCRuntimeClass@@XZ:PROC ; CBitmap::GetRuntimeClass
EXTRN	??_ECBitmap@@UAEPAXI@Z:PROC			; CBitmap::`vector deleting destructor'
EXTRN	?Attach@CDC@@QAEHPAUHDC__@@@Z:PROC		; CDC::Attach
EXTRN	??0CDC@@QAE@XZ:PROC				; CDC::CDC
EXTRN	?DeleteDC@CDC@@QAEHXZ:PROC			; CDC::DeleteDC
EXTRN	?SelectObject@CDC@@QAEPAVCPen@@PAV2@@Z:PROC	; CDC::SelectObject
EXTRN	?SelectObject@CDC@@UAEPAVCFont@@PAV2@@Z:PROC	; CDC::SelectObject
EXTRN	?MoveTo@CDC@@QAE?AVCPoint@@HH@Z:PROC		; CDC::MoveTo
EXTRN	?LineTo@CDC@@QAEHHH@Z:PROC			; CDC::LineTo
EXTRN	?FillSolidRect@CDC@@QAEXPBUtagRECT@@K@Z:PROC	; CDC::FillSolidRect
EXTRN	??1CDC@@UAE@XZ:PROC				; CDC::~CDC
EXTRN	?SelectGdiObject@CDC@@KGPAVCGdiObject@@PAUHDC__@@PAX@Z:PROC ; CDC::SelectGdiObject
EXTRN	??0CPaintDC@@QAE@PAVCWnd@@@Z:PROC		; CPaintDC::CPaintDC
EXTRN	??1CPaintDC@@UAE@XZ:PROC			; CPaintDC::~CPaintDC
EXTRN	??0CImageList@@QAE@XZ:PROC			; CImageList::CImageList
EXTRN	?Create@CImageList@@QAEHHHIHH@Z:PROC		; CImageList::Create
EXTRN	?DeleteImageList@CImageList@@QAEHXZ:PROC	; CImageList::DeleteImageList
EXTRN	??1CImageList@@UAE@XZ:PROC			; CImageList::~CImageList
EXTRN	?OnCmdMsg@CCmdTarget@@UAEHIHPAXPAUAFX_CMDHANDLERINFO@@@Z:PROC ; CCmdTarget::OnCmdMsg
EXTRN	?IsInvokeAllowed@CCmdTarget@@UAEHJ@Z:PROC	; CCmdTarget::IsInvokeAllowed
EXTRN	?GetDispatchIID@CCmdTarget@@UAEHPAU_GUID@@@Z:PROC ; CCmdTarget::GetDispatchIID
EXTRN	?GetTypeInfoCount@CCmdTarget@@UAEIXZ:PROC	; CCmdTarget::GetTypeInfoCount
EXTRN	?GetTypeLibCache@CCmdTarget@@UAEPAVCTypeLibCache@@XZ:PROC ; CCmdTarget::GetTypeLibCache
EXTRN	?GetTypeLib@CCmdTarget@@UAEJKPAPAUITypeLib@@@Z:PROC ; CCmdTarget::GetTypeLib
EXTRN	?GetCommandMap@CCmdTarget@@MBEPBUAFX_OLECMDMAP@@XZ:PROC ; CCmdTarget::GetCommandMap
EXTRN	?GetDispatchMap@CCmdTarget@@MBEPBUAFX_DISPMAP@@XZ:PROC ; CCmdTarget::GetDispatchMap
EXTRN	?GetConnectionMap@CCmdTarget@@MBEPBUAFX_CONNECTIONMAP@@XZ:PROC ; CCmdTarget::GetConnectionMap
EXTRN	?GetEventSinkMap@CCmdTarget@@MBEPBUAFX_EVENTSINKMAP@@XZ:PROC ; CCmdTarget::GetEventSinkMap
EXTRN	?OnCreateAggregates@CCmdTarget@@UAEHXZ:PROC	; CCmdTarget::OnCreateAggregates
EXTRN	?GetInterfaceHook@CCmdTarget@@UAEPAUIUnknown@@PBX@Z:PROC ; CCmdTarget::GetInterfaceHook
EXTRN	?GetExtraConnectionPoints@CCmdTarget@@MAEHPAVCPtrArray@@@Z:PROC ; CCmdTarget::GetExtraConnectionPoints
EXTRN	?GetConnectionHook@CCmdTarget@@MAEPAUIConnectionPoint@@ABU_GUID@@@Z:PROC ; CCmdTarget::GetConnectionHook
EXTRN	?FromHandle@CWnd@@SGPAV1@PAUHWND__@@@Z:PROC	; CWnd::FromHandle
EXTRN	?PreSubclassWindow@CWnd@@UAEXXZ:PROC		; CWnd::PreSubclassWindow
EXTRN	?Create@CWnd@@UAEHPBD0KABUtagRECT@@PAV1@IPAUCCreateContext@@@Z:PROC ; CWnd::Create
EXTRN	?CreateEx@CWnd@@UAEHKPBD0KHHHHPAUHWND__@@PAUHMENU__@@PAX@Z:PROC ; CWnd::CreateEx
EXTRN	?CreateEx@CWnd@@UAEHKPBD0KABUtagRECT@@PAV1@IPAX@Z:PROC ; CWnd::CreateEx
EXTRN	?DestroyWindow@CWnd@@UAEHXZ:PROC		; CWnd::DestroyWindow
EXTRN	?PreCreateWindow@CWnd@@UAEHAAUtagCREATESTRUCTA@@@Z:PROC ; CWnd::PreCreateWindow
EXTRN	?CalcWindowRect@CWnd@@UAEXPAUtagRECT@@I@Z:PROC	; CWnd::CalcWindowRect
EXTRN	?GetDlgCtrlID@CWnd@@QBEHXZ:PROC			; CWnd::GetDlgCtrlID
EXTRN	?GetMenu@CWnd@@UBEPAVCMenu@@XZ:PROC		; CWnd::GetMenu
EXTRN	?SetMenu@CWnd@@UAEHPAVCMenu@@@Z:PROC		; CWnd::SetMenu
EXTRN	?MoveWindow@CWnd@@QAEXHHHHH@Z:PROC		; CWnd::MoveWindow
EXTRN	?SetWindowPos@CWnd@@QAEHPBV1@HHHHI@Z:PROC	; CWnd::SetWindowPos
EXTRN	?ShowWindow@CWnd@@QAEHH@Z:PROC			; CWnd::ShowWindow
EXTRN	?OnToolHitTest@CWnd@@UBEHVCPoint@@PAUtagTOOLINFOA@@@Z:PROC ; CWnd::OnToolHitTest
EXTRN	?EnableWindow@CWnd@@QAEHH@Z:PROC		; CWnd::EnableWindow
EXTRN	?GetScrollBarCtrl@CWnd@@UBEPAVCScrollBar@@H@Z:PROC ; CWnd::GetScrollBarCtrl
EXTRN	?WinHelpA@CWnd@@UAEXKI@Z:PROC			; CWnd::WinHelpA
EXTRN	?HtmlHelpA@CWnd@@UAEXKI@Z:PROC			; CWnd::HtmlHelpA
EXTRN	?WinHelpInternal@CWnd@@UAEXKI@Z:PROC		; CWnd::WinHelpInternal
EXTRN	?ContinueModal@CWnd@@UAEHXZ:PROC		; CWnd::ContinueModal
EXTRN	?EndModalLoop@CWnd@@UAEXH@Z:PROC		; CWnd::EndModalLoop
EXTRN	?OnDrawIconicThumbnailOrLivePreview@CWnd@@UAEXAAVCDC@@VCRect@@VCSize@@HAAH@Z:PROC ; CWnd::OnDrawIconicThumbnailOrLivePreview
EXTRN	?GetInterfaceMap@CWnd@@MBEPBUAFX_INTERFACEMAP@@XZ:PROC ; CWnd::GetInterfaceMap
EXTRN	?EnsureStdObj@CWnd@@UAEJXZ:PROC			; CWnd::EnsureStdObj
EXTRN	?get_accParent@CWnd@@UAEJPAPAUIDispatch@@@Z:PROC ; CWnd::get_accParent
EXTRN	?get_accChildCount@CWnd@@UAEJPAJ@Z:PROC		; CWnd::get_accChildCount
EXTRN	?get_accChild@CWnd@@UAEJUtagVARIANT@@PAPAUIDispatch@@@Z:PROC ; CWnd::get_accChild
EXTRN	?get_accName@CWnd@@UAEJUtagVARIANT@@PAPA_W@Z:PROC ; CWnd::get_accName
EXTRN	?get_accValue@CWnd@@UAEJUtagVARIANT@@PAPA_W@Z:PROC ; CWnd::get_accValue
EXTRN	?get_accDescription@CWnd@@UAEJUtagVARIANT@@PAPA_W@Z:PROC ; CWnd::get_accDescription
EXTRN	?get_accRole@CWnd@@UAEJUtagVARIANT@@PAU2@@Z:PROC ; CWnd::get_accRole
EXTRN	?get_accState@CWnd@@UAEJUtagVARIANT@@PAU2@@Z:PROC ; CWnd::get_accState
EXTRN	?get_accHelp@CWnd@@UAEJUtagVARIANT@@PAPA_W@Z:PROC ; CWnd::get_accHelp
EXTRN	?get_accHelpTopic@CWnd@@UAEJPAPA_WUtagVARIANT@@PAJ@Z:PROC ; CWnd::get_accHelpTopic
EXTRN	?get_accKeyboardShortcut@CWnd@@UAEJUtagVARIANT@@PAPA_W@Z:PROC ; CWnd::get_accKeyboardShortcut
EXTRN	?get_accFocus@CWnd@@UAEJPAUtagVARIANT@@@Z:PROC	; CWnd::get_accFocus
EXTRN	?get_accSelection@CWnd@@UAEJPAUtagVARIANT@@@Z:PROC ; CWnd::get_accSelection
EXTRN	?get_accDefaultAction@CWnd@@UAEJUtagVARIANT@@PAPA_W@Z:PROC ; CWnd::get_accDefaultAction
EXTRN	?accSelect@CWnd@@UAEJJUtagVARIANT@@@Z:PROC	; CWnd::accSelect
EXTRN	?accLocation@CWnd@@UAEJPAJ000UtagVARIANT@@@Z:PROC ; CWnd::accLocation
EXTRN	?accNavigate@CWnd@@UAEJJUtagVARIANT@@PAU2@@Z:PROC ; CWnd::accNavigate
EXTRN	?accHitTest@CWnd@@UAEJJJPAUtagVARIANT@@@Z:PROC	; CWnd::accHitTest
EXTRN	?accDoDefaultAction@CWnd@@UAEJUtagVARIANT@@@Z:PROC ; CWnd::accDoDefaultAction
EXTRN	?put_accName@CWnd@@UAEJUtagVARIANT@@PA_W@Z:PROC	; CWnd::put_accName
EXTRN	?put_accValue@CWnd@@UAEJUtagVARIANT@@PA_W@Z:PROC ; CWnd::put_accValue
EXTRN	?SetProxy@CWnd@@UAEJPAUIAccessibleProxy@@@Z:PROC ; CWnd::SetProxy
EXTRN	?CreateAccessibleProxy@CWnd@@UAEJIJPAJ@Z:PROC	; CWnd::CreateAccessibleProxy
EXTRN	?OnCommand@CWnd@@MAEHIJ@Z:PROC			; CWnd::OnCommand
EXTRN	?OnNotify@CWnd@@MAEHIJPAJ@Z:PROC		; CWnd::OnNotify
EXTRN	?GetSuperWndProcAddr@CWnd@@MAEPAP6GJPAUHWND__@@IIJ@ZXZ:PROC ; CWnd::GetSuperWndProcAddr
EXTRN	?OnAmbientProperty@CWnd@@UAEHPAVCOleControlSite@@JPAUtagVARIANT@@@Z:PROC ; CWnd::OnAmbientProperty
EXTRN	?WindowProc@CWnd@@MAEJIIJ@Z:PROC		; CWnd::WindowProc
EXTRN	?OnWndMsg@CWnd@@MAEHIIJPAJ@Z:PROC		; CWnd::OnWndMsg
EXTRN	?Default@CWnd@@IAEJXZ:PROC			; CWnd::Default
EXTRN	?DefWindowProcA@CWnd@@MAEJIIJ@Z:PROC		; CWnd::DefWindowProcA
EXTRN	?PostNcDestroy@CWnd@@MAEXXZ:PROC		; CWnd::PostNcDestroy
EXTRN	?OnChildNotify@CWnd@@MAEHIIJPAJ@Z:PROC		; CWnd::OnChildNotify
EXTRN	?OnTouchInputs@CWnd@@MAEHIPAUtagTOUCHINPUT@@@Z:PROC ; CWnd::OnTouchInputs
EXTRN	?OnTouchInput@CWnd@@MAEHVCPoint@@HHPAUtagTOUCHINPUT@@@Z:PROC ; CWnd::OnTouchInput
EXTRN	?GetGestureStatus@CWnd@@MAEKVCPoint@@@Z:PROC	; CWnd::GetGestureStatus
EXTRN	?OnGestureZoom@CWnd@@MAEHVCPoint@@J@Z:PROC	; CWnd::OnGestureZoom
EXTRN	?OnGesturePan@CWnd@@MAEHVCPoint@@0@Z:PROC	; CWnd::OnGesturePan
EXTRN	?OnGestureRotate@CWnd@@MAEHVCPoint@@N@Z:PROC	; CWnd::OnGestureRotate
EXTRN	?OnGestureTwoFingerTap@CWnd@@MAEHVCPoint@@@Z:PROC ; CWnd::OnGestureTwoFingerTap
EXTRN	?OnGesturePressAndTap@CWnd@@MAEHVCPoint@@J@Z:PROC ; CWnd::OnGesturePressAndTap
EXTRN	?ResizeDynamicLayout@CWnd@@MAEXXZ:PROC		; CWnd::ResizeDynamicLayout
EXTRN	?IsFrameWnd@CWnd@@UBEHXZ:PROC			; CWnd::IsFrameWnd
EXTRN	?OnFinalRelease@CWnd@@UAEXXZ:PROC		; CWnd::OnFinalRelease
EXTRN	?CreateControlContainer@CWnd@@MAEHPAPAVCOleControlContainer@@@Z:PROC ; CWnd::CreateControlContainer
EXTRN	?CreateControlSite@CWnd@@MAEHPAVCOleControlContainer@@PAPAVCOleControlSite@@IABU_GUID@@@Z:PROC ; CWnd::CreateControlSite
EXTRN	?GetRuntimeClass@CDialog@@UBEPAUCRuntimeClass@@XZ:PROC ; CDialog::GetRuntimeClass
EXTRN	?Create@CDialog@@UAEHPBDPAVCWnd@@@Z:PROC	; CDialog::Create
EXTRN	?CreateIndirect@CDialog@@UAEHPBUDLGTEMPLATE@@PAVCWnd@@PAX@Z:PROC ; CDialog::CreateIndirect
EXTRN	?CreateIndirect@CDialog@@UAEHPAXPAVCWnd@@@Z:PROC ; CDialog::CreateIndirect
EXTRN	?DoModal@CDialog@@UAEHXZ:PROC			; CDialog::DoModal
EXTRN	?OnInitDialog@CDialog@@UAEHXZ:PROC		; CDialog::OnInitDialog
EXTRN	?OnSetFont@CDialog@@UAEXPAVCFont@@@Z:PROC	; CDialog::OnSetFont
EXTRN	?OnOK@CDialog@@MAEXXZ:PROC			; CDialog::OnOK
EXTRN	?OnCancel@CDialog@@MAEXXZ:PROC			; CDialog::OnCancel
EXTRN	??1CDialog@@UAE@XZ:PROC				; CDialog::~CDialog
EXTRN	?PreTranslateMessage@CDialog@@UAEHPAUtagMSG@@@Z:PROC ; CDialog::PreTranslateMessage
EXTRN	?CheckAutoCenter@CDialog@@UAEHXZ:PROC		; CDialog::CheckAutoCenter
EXTRN	?SetOccDialogInfo@CDialog@@MAEHPAU_AFX_OCC_DIALOG_INFO@@@Z:PROC ; CDialog::SetOccDialogInfo
EXTRN	?GetOccDialogInfo@CDialog@@MAEPAU_AFX_OCC_DIALOG_INFO@@XZ:PROC ; CDialog::GetOccDialogInfo
EXTRN	?PreInitDialog@CDialog@@MAEXXZ:PROC		; CDialog::PreInitDialog
EXTRN	?GetThisMessageMap@CDialog@@KGPBUAFX_MSGMAP@@XZ:PROC ; CDialog::GetThisMessageMap
EXTRN	??1CListBox@@UAE@XZ:PROC			; CListBox::~CListBox
EXTRN	??1CComboBox@@UAE@XZ:PROC			; CComboBox::~CComboBox
EXTRN	?AfxMessageBox@@YGHPBDII@Z:PROC			; AfxMessageBox
EXTRN	??0CToolTipCtrl@@QAE@XZ:PROC			; CToolTipCtrl::CToolTipCtrl
EXTRN	?AddTool@CToolTipCtrl@@QAEHPAVCWnd@@PBDPBUtagRECT@@I@Z:PROC ; CToolTipCtrl::AddTool
EXTRN	??1CToolTipCtrl@@UAE@XZ:PROC			; CToolTipCtrl::~CToolTipCtrl
EXTRN	??0CRscDlg@@QAE@IPAVCWnd@@@Z:PROC		; CRscDlg::CRscDlg
EXTRN	?Create@CRscDlg@@UAEHIPAVCWnd@@@Z:PROC		; CRscDlg::Create
EXTRN	?DoModal@CRscDlg@@UAEHXZ:PROC			; CRscDlg::DoModal
EXTRN	??0CILButton@@QAE@XZ:PROC			; CILButton::CILButton
EXTRN	?FP_vSetImage@CILButton@@QAEXPAVCImageList@@HHHV?$CStringT@DV?$StrTraitMFC_DLL@DV?$ChTraitsCRT@D@ATL@@@@@ATL@@HHH@Z:PROC ; CILButton::FP_vSetImage
EXTRN	?FP_vSetToolTipText@CILButton@@QAEXV?$CStringT@DV?$StrTraitMFC_DLL@DV?$ChTraitsCRT@D@ATL@@@@@ATL@@@Z:PROC ; CILButton::FP_vSetToolTipText
EXTRN	??_E?$CArray@HH@@UAEPAXI@Z:PROC			; CArray<int,int>::`vector deleting destructor'
EXTRN	??_E?$CMap@HHV?$CStringT@DV?$StrTraitMFC_DLL@DV?$ChTraitsCRT@D@ATL@@@@@ATL@@V12@@@UAEPAXI@Z:PROC ; CMap<int,int,ATL::CStringT<char,StrTraitMFC_DLL<char,ATL::ChTraitsCRT<char> > >,ATL::CStringT<char,StrTraitMFC_DLL<char,ATL::ChTraitsCRT<char> > > >::`vector deleting destructor'
EXTRN	??_ECDlgToolbar@@UAEPAXI@Z:PROC			; CDlgToolbar::`vector deleting destructor'
EXTRN	??0CChartToolBtn@@QAE@XZ:PROC			; CChartToolBtn::CChartToolBtn
EXTRN	?CreateBtn@CChartToolBtn@@QAEHPAVCWnd@@PAVCFont@@H@Z:PROC ; CChartToolBtn::CreateBtn
EXTRN	?GetToggle@CChartToolBtn@@QAEHXZ:PROC		; CChartToolBtn::GetToggle
EXTRN	?ReleaseBtn@CChartToolBtn@@QAEXXZ:PROC		; CChartToolBtn::ReleaseBtn
EXTRN	?SetValueBtn@CChartToolBtn@@QAEXW4TOOLOPTION@CToolOptionInfo@@HPAVCImageList@@HHH@Z:PROC ; CChartToolBtn::SetValueBtn
EXTRN	?SetToggleBtnFromOutside@CChartToolBtn@@QAEXXZ:PROC ; CChartToolBtn::SetToggleBtnFromOutside
EXTRN	??0CDlgSettingToolBar@@QAE@PAVCWnd@@@Z:PROC	; CDlgSettingToolBar::CDlgSettingToolBar
EXTRN	?SetPermanentHandle@CExOCXDLL@@QAEXPAVCWnd@@@Z:PROC ; CExOCXDLL::SetPermanentHandle
EXTRN	?OnMagnifyingglass@CStdDialog@@QAEXH@Z:PROC	; CStdDialog::OnMagnifyingglass
EXTRN	@__security_check_cookie@4:PROC
EXTRN	___CxxFrameHandler3:PROC
EXTRN	_memcpy:PROC
EXTRN	_memset:PROC
EXTRN	??_7type_info@@6B@:QWORD			; type_info::`vftable'
EXTRN	__imp_?wndTopMost@CWnd@@2V1@B:BYTE
EXTRN	?m_ImgList_W28H22@CStdDialog@@2VCImageList@@A:QWORD ; CStdDialog::m_ImgList_W28H22
EXTRN	___security_cookie:DWORD
;	COMDAT ?_OptionsStorage@?1??__local_stdio_printf_options@@9@4_KA
_BSS	SEGMENT
?_OptionsStorage@?1??__local_stdio_printf_options@@9@4_KA DQ 01H DUP (?) ; `__local_stdio_printf_options'::`2'::_OptionsStorage
_BSS	ENDS
;	COMDAT ?_OptionsStorage@?1??__local_stdio_scanf_options@@9@4_KA
_BSS	SEGMENT
?_OptionsStorage@?1??__local_stdio_scanf_options@@9@4_KA DQ 01H DUP (?) ; `__local_stdio_scanf_options'::`2'::_OptionsStorage
_BSS	ENDS
_BSS	SEGMENT
?RMSG_GETSIGNAL_REAL@@3IB DD 01H DUP (?)		; RMSG_GETSIGNAL_REAL
?RMSG_SETQUERYOPT@@3IB DD 01H DUP (?)			; RMSG_SETQUERYOPT
?RMSG_CHARTMAIN@@3IB DD 01H DUP (?)			; RMSG_CHARTMAIN
?RMS_ANALYSIS_FUNC@@3IB DD 01H DUP (?)			; RMS_ANALYSIS_FUNC
?RMSG_GET_USERID@@3IB DD 01H DUP (?)			; RMSG_GET_USERID
?RMSG_CHANGE_SKINCOLOR@@3IB DD 01H DUP (?)		; RMSG_CHANGE_SKINCOLOR
?RMSG_GET_SKINCOLOR@@3IB DD 01H DUP (?)			; RMSG_GET_SKINCOLOR
?RMSG_CHANGEVERTSCALETYPE@@3IB DD 01H DUP (?)		; RMSG_CHANGEVERTSCALETYPE
?RMSG_CHANGE_CROSSLINE@@3IB DD 01H DUP (?)		; RMSG_CHANGE_CROSSLINE
?RMSG_ADD_PLATFORM_MENU@@3IB DD 01H DUP (?)		; RMSG_ADD_PLATFORM_MENU
?RMSG_SETINITIALCHARTDATA@@3IB DD 01H DUP (?)		; RMSG_SETINITIALCHARTDATA
?RMSG_GETINFO@@3IB DD 01H DUP (?)			; RMSG_GETINFO
?RMSG_SETINFO@@3IB DD 01H DUP (?)			; RMSG_SETINFO
?RMSG_REPLAY_REAL@@3IB DD 01H DUP (?)			; RMSG_REPLAY_REAL
?RMSG_REPLAY_FAIL@@3IB DD 01H DUP (?)			; RMSG_REPLAY_FAIL
?RMSG_REPLAY_CHANGE_DATE@@3IB DD 01H DUP (?)		; RMSG_REPLAY_CHANGE_DATE
?RMSG_REPLAY_END@@3IB DD 01H DUP (?)			; RMSG_REPLAY_END
?RMSG_REPLAY_INC_SEC@@3IB DD 01H DUP (?)		; RMSG_REPLAY_INC_SEC
?RMSG_REPLAY_TOTAL_SEC@@3IB DD 01H DUP (?)		; RMSG_REPLAY_TOTAL_SEC
_BSS	ENDS
;	COMDAT CRT$XCU
CRT$XCU	SEGMENT
?_AtlWinModule$initializer$@ATL@@3P6AXXZA DD FLAT:??__E_AtlWinModule@ATL@@YAXXZ ; ATL::_AtlWinModule$initializer$
CRT$XCU	ENDS
;	COMDAT __xmm@00000190000000000000000000000000
CONST	SEGMENT
__xmm@00000190000000000000000000000000 DB 00H, 00H, 00H, 00H, 00H, 00H, 00H
	DB	00H, 00H, 00H, 00H, 00H, 090H, 01H, 00H, 00H
CONST	ENDS
;	COMDAT ??_R1A@?0A@EA@?$CMap@HHV?$CStringT@DV?$StrTraitMFC_DLL@DV?$ChTraitsCRT@D@ATL@@@@@ATL@@V12@@@8
rdata$r	SEGMENT
??_R1A@?0A@EA@?$CMap@HHV?$CStringT@DV?$StrTraitMFC_DLL@DV?$ChTraitsCRT@D@ATL@@@@@ATL@@V12@@@8 DD FLAT:??_R0?AV?$CMap@HHV?$CStringT@DV?$StrTraitMFC_DLL@DV?$ChTraitsCRT@D@ATL@@@@@ATL@@V12@@@@8 ; CMap<int,int,ATL::CStringT<char,StrTraitMFC_DLL<char,ATL::ChTraitsCRT<char> > >,ATL::CStringT<char,StrTraitMFC_DLL<char,ATL::ChTraitsCRT<char> > > >::`RTTI Base Class Descriptor at (0,-1,0,64)'
	DD	01H
	DD	00H
	DD	0ffffffffH
	DD	00H
	DD	040H
	DD	FLAT:??_R3?$CMap@HHV?$CStringT@DV?$StrTraitMFC_DLL@DV?$ChTraitsCRT@D@ATL@@@@@ATL@@V12@@@8
rdata$r	ENDS
;	COMDAT ??_R2?$CMap@HHV?$CStringT@DV?$StrTraitMFC_DLL@DV?$ChTraitsCRT@D@ATL@@@@@ATL@@V12@@@8
rdata$r	SEGMENT
??_R2?$CMap@HHV?$CStringT@DV?$StrTraitMFC_DLL@DV?$ChTraitsCRT@D@ATL@@@@@ATL@@V12@@@8 DD FLAT:??_R1A@?0A@EA@?$CMap@HHV?$CStringT@DV?$StrTraitMFC_DLL@DV?$ChTraitsCRT@D@ATL@@@@@ATL@@V12@@@8 ; CMap<int,int,ATL::CStringT<char,StrTraitMFC_DLL<char,ATL::ChTraitsCRT<char> > >,ATL::CStringT<char,StrTraitMFC_DLL<char,ATL::ChTraitsCRT<char> > > >::`RTTI Base Class Array'
	DD	FLAT:??_R1A@?0A@EA@CObject@@8
rdata$r	ENDS
;	COMDAT ??_R3?$CMap@HHV?$CStringT@DV?$StrTraitMFC_DLL@DV?$ChTraitsCRT@D@ATL@@@@@ATL@@V12@@@8
rdata$r	SEGMENT
??_R3?$CMap@HHV?$CStringT@DV?$StrTraitMFC_DLL@DV?$ChTraitsCRT@D@ATL@@@@@ATL@@V12@@@8 DD 00H ; CMap<int,int,ATL::CStringT<char,StrTraitMFC_DLL<char,ATL::ChTraitsCRT<char> > >,ATL::CStringT<char,StrTraitMFC_DLL<char,ATL::ChTraitsCRT<char> > > >::`RTTI Class Hierarchy Descriptor'
	DD	00H
	DD	02H
	DD	FLAT:??_R2?$CMap@HHV?$CStringT@DV?$StrTraitMFC_DLL@DV?$ChTraitsCRT@D@ATL@@@@@ATL@@V12@@@8
rdata$r	ENDS
;	COMDAT ??_R0?AV?$CMap@HHV?$CStringT@DV?$StrTraitMFC_DLL@DV?$ChTraitsCRT@D@ATL@@@@@ATL@@V12@@@@8
data$rs	SEGMENT
??_R0?AV?$CMap@HHV?$CStringT@DV?$StrTraitMFC_DLL@DV?$ChTraitsCRT@D@ATL@@@@@ATL@@V12@@@@8 DD FLAT:??_7type_info@@6B@ ; CMap<int,int,ATL::CStringT<char,StrTraitMFC_DLL<char,ATL::ChTraitsCRT<char> > >,ATL::CStringT<char,StrTraitMFC_DLL<char,ATL::ChTraitsCRT<char> > > > `RTTI Type Descriptor'
	DD	00H
	DB	'.?AV?$CMap@HHV?$CStringT@DV?$StrTraitMFC_DLL@DV?$ChTrait'
	DB	'sCRT@D@ATL@@@@@ATL@@V12@@@', 00H
data$rs	ENDS
;	COMDAT ??_R4?$CMap@HHV?$CStringT@DV?$StrTraitMFC_DLL@DV?$ChTraitsCRT@D@ATL@@@@@ATL@@V12@@@6B@
rdata$r	SEGMENT
??_R4?$CMap@HHV?$CStringT@DV?$StrTraitMFC_DLL@DV?$ChTraitsCRT@D@ATL@@@@@ATL@@V12@@@6B@ DD 00H ; CMap<int,int,ATL::CStringT<char,StrTraitMFC_DLL<char,ATL::ChTraitsCRT<char> > >,ATL::CStringT<char,StrTraitMFC_DLL<char,ATL::ChTraitsCRT<char> > > >::`RTTI Complete Object Locator'
	DD	00H
	DD	00H
	DD	FLAT:??_R0?AV?$CMap@HHV?$CStringT@DV?$StrTraitMFC_DLL@DV?$ChTraitsCRT@D@ATL@@@@@ATL@@V12@@@@8
	DD	FLAT:??_R3?$CMap@HHV?$CStringT@DV?$StrTraitMFC_DLL@DV?$ChTraitsCRT@D@ATL@@@@@ATL@@V12@@@8
rdata$r	ENDS
;	COMDAT ??_R1A@?0A@EA@?$CArray@HH@@8
rdata$r	SEGMENT
??_R1A@?0A@EA@?$CArray@HH@@8 DD FLAT:??_R0?AV?$CArray@HH@@@8 ; CArray<int,int>::`RTTI Base Class Descriptor at (0,-1,0,64)'
	DD	01H
	DD	00H
	DD	0ffffffffH
	DD	00H
	DD	040H
	DD	FLAT:??_R3?$CArray@HH@@8
rdata$r	ENDS
;	COMDAT ??_R2?$CArray@HH@@8
rdata$r	SEGMENT
??_R2?$CArray@HH@@8 DD FLAT:??_R1A@?0A@EA@?$CArray@HH@@8 ; CArray<int,int>::`RTTI Base Class Array'
	DD	FLAT:??_R1A@?0A@EA@CObject@@8
rdata$r	ENDS
;	COMDAT ??_R3?$CArray@HH@@8
rdata$r	SEGMENT
??_R3?$CArray@HH@@8 DD 00H				; CArray<int,int>::`RTTI Class Hierarchy Descriptor'
	DD	00H
	DD	02H
	DD	FLAT:??_R2?$CArray@HH@@8
rdata$r	ENDS
;	COMDAT ??_R0?AV?$CArray@HH@@@8
data$rs	SEGMENT
??_R0?AV?$CArray@HH@@@8 DD FLAT:??_7type_info@@6B@	; CArray<int,int> `RTTI Type Descriptor'
	DD	00H
	DB	'.?AV?$CArray@HH@@', 00H
data$rs	ENDS
;	COMDAT ??_R4?$CArray@HH@@6B@
rdata$r	SEGMENT
??_R4?$CArray@HH@@6B@ DD 00H				; CArray<int,int>::`RTTI Complete Object Locator'
	DD	00H
	DD	00H
	DD	FLAT:??_R0?AV?$CArray@HH@@@8
	DD	FLAT:??_R3?$CArray@HH@@8
rdata$r	ENDS
;	COMDAT ??_R2CRscDlg@@8
rdata$r	SEGMENT
??_R2CRscDlg@@8 DD FLAT:??_R1A@?0A@EA@CRscDlg@@8	; CRscDlg::`RTTI Base Class Array'
	DD	FLAT:??_R1A@?0A@EA@CDialog@@8
	DD	FLAT:??_R1A@?0A@EA@CWnd@@8
	DD	FLAT:??_R1A@?0A@EA@CCmdTarget@@8
	DD	FLAT:??_R1A@?0A@EA@CObject@@8
rdata$r	ENDS
;	COMDAT ??_R3CRscDlg@@8
rdata$r	SEGMENT
??_R3CRscDlg@@8 DD 00H					; CRscDlg::`RTTI Class Hierarchy Descriptor'
	DD	00H
	DD	05H
	DD	FLAT:??_R2CRscDlg@@8
rdata$r	ENDS
;	COMDAT ??_R0?AVCRscDlg@@@8
data$rs	SEGMENT
??_R0?AVCRscDlg@@@8 DD FLAT:??_7type_info@@6B@		; CRscDlg `RTTI Type Descriptor'
	DD	00H
	DB	'.?AVCRscDlg@@', 00H
data$rs	ENDS
;	COMDAT ??_R1A@?0A@EA@CRscDlg@@8
rdata$r	SEGMENT
??_R1A@?0A@EA@CRscDlg@@8 DD FLAT:??_R0?AVCRscDlg@@@8	; CRscDlg::`RTTI Base Class Descriptor at (0,-1,0,64)'
	DD	04H
	DD	00H
	DD	0ffffffffH
	DD	00H
	DD	040H
	DD	FLAT:??_R3CRscDlg@@8
rdata$r	ENDS
;	COMDAT ??_R1A@?0A@EA@CDlgToolbar@@8
rdata$r	SEGMENT
??_R1A@?0A@EA@CDlgToolbar@@8 DD FLAT:??_R0?AVCDlgToolbar@@@8 ; CDlgToolbar::`RTTI Base Class Descriptor at (0,-1,0,64)'
	DD	05H
	DD	00H
	DD	0ffffffffH
	DD	00H
	DD	040H
	DD	FLAT:??_R3CDlgToolbar@@8
rdata$r	ENDS
;	COMDAT ??_R2CDlgToolbar@@8
rdata$r	SEGMENT
??_R2CDlgToolbar@@8 DD FLAT:??_R1A@?0A@EA@CDlgToolbar@@8 ; CDlgToolbar::`RTTI Base Class Array'
	DD	FLAT:??_R1A@?0A@EA@CRscDlg@@8
	DD	FLAT:??_R1A@?0A@EA@CDialog@@8
	DD	FLAT:??_R1A@?0A@EA@CWnd@@8
	DD	FLAT:??_R1A@?0A@EA@CCmdTarget@@8
	DD	FLAT:??_R1A@?0A@EA@CObject@@8
rdata$r	ENDS
;	COMDAT ??_R3CDlgToolbar@@8
rdata$r	SEGMENT
??_R3CDlgToolbar@@8 DD 00H				; CDlgToolbar::`RTTI Class Hierarchy Descriptor'
	DD	00H
	DD	06H
	DD	FLAT:??_R2CDlgToolbar@@8
rdata$r	ENDS
;	COMDAT ??_R0?AVCDlgToolbar@@@8
data$rs	SEGMENT
??_R0?AVCDlgToolbar@@@8 DD FLAT:??_7type_info@@6B@	; CDlgToolbar `RTTI Type Descriptor'
	DD	00H
	DB	'.?AVCDlgToolbar@@', 00H
data$rs	ENDS
;	COMDAT ??_R4CDlgToolbar@@6B@
rdata$r	SEGMENT
??_R4CDlgToolbar@@6B@ DD 00H				; CDlgToolbar::`RTTI Complete Object Locator'
	DD	00H
	DD	00H
	DD	FLAT:??_R0?AVCDlgToolbar@@@8
	DD	FLAT:??_R3CDlgToolbar@@8
rdata$r	ENDS
;	COMDAT ??_C@_0CJ@BIEPGJJM@ToolBar?$LP?$KB?5?G?O?$MA?$KH?$LI?$NO?$LE?$LK?$LI?$KG?5?G?$KF?$LN?C?G?R?5?$LM?v?5@
CONST	SEGMENT
??_C@_0CJ@BIEPGJJM@ToolBar?$LP?$KB?5?G?O?$MA?$KH?$LI?$NO?$LE?$LK?$LI?$KG?5?G?$KF?$LN?C?G?R?5?$LM?v?5@ DB 'T'
	DB	'oolBar', 0bfH, 0a1H, ' ', 0c7H, 0cfH, 0c0H, 0a7H, 0b8H, 0deH, 0b4H
	DB	0baH, 0b8H, 0a6H, ' ', 0c7H, 0a5H, 0bdH, 0c3H, 0c7H, 0d2H, ' ', 0bcH
	DB	0f6H, ' ', 0beH, 0f8H, 0bdH, 0c0H, 0b4H, 0cfH, 0b4H, 0d9H, '.', 00H ; `string'
CONST	ENDS
;	COMDAT ??_C@_0CJ@OKMEPDME@ToolBar?$LP?$KB?5?$LL?s?$MA?$KH?$LI?$NO?$LE?$LK?$LI?$KG?5?G?$KF?$LN?C?G?R?5?$LM?v?5@
CONST	SEGMENT
??_C@_0CJ@OKMEPDME@ToolBar?$LP?$KB?5?$LL?s?$MA?$KH?$LI?$NO?$LE?$LK?$LI?$KG?5?G?$KF?$LN?C?G?R?5?$LM?v?5@ DB 'T'
	DB	'oolBar', 0bfH, 0a1H, ' ', 0bbH, 0f3H, 0c0H, 0a7H, 0b8H, 0deH, 0b4H
	DB	0baH, 0b8H, 0a6H, ' ', 0c7H, 0a5H, 0bdH, 0c3H, 0c7H, 0d2H, ' ', 0bcH
	DB	0f6H, ' ', 0beH, 0f8H, 0bdH, 0c0H, 0b4H, 0cfH, 0b4H, 0d9H, '.', 00H ; `string'
CONST	ENDS
;	COMDAT ??_C@_0BM@EPECFFNJ@?G?$KF?$LN?C?G?R?5?$LL?s?$MA?$KH?$LI?$NO?$LE?$LK?$LA?$KB?5?$LO?x?$LN?$MA?$LE?O?$LE?Y?4@
CONST	SEGMENT
??_C@_0BM@EPECFFNJ@?G?$KF?$LN?C?G?R?5?$LL?s?$MA?$KH?$LI?$NO?$LE?$LK?$LA?$KB?5?$LO?x?$LN?$MA?$LE?O?$LE?Y?4@ DB 0c7H
	DB	0a5H, 0bdH, 0c3H, 0c7H, 0d2H, ' ', 0bbH, 0f3H, 0c0H, 0a7H, 0b8H
	DB	0deH, 0b4H, 0baH, 0b0H, 0a1H, ' ', 0beH, 0f8H, 0bdH, 0c0H, 0b4H
	DB	0cfH, 0b4H, 0d9H, '.', 00H			; `string'
CONST	ENDS
;	COMDAT ??_C@_0BM@HJIIOEBE@?G?$KF?$LN?C?G?R?5?G?O?$MA?$KH?$LI?$NO?$LE?$LK?$LA?$KB?5?$LO?x?$LN?$MA?$LE?O?$LE?Y?4@
CONST	SEGMENT
??_C@_0BM@HJIIOEBE@?G?$KF?$LN?C?G?R?5?G?O?$MA?$KH?$LI?$NO?$LE?$LK?$LA?$KB?5?$LO?x?$LN?$MA?$LE?O?$LE?Y?4@ DB 0c7H
	DB	0a5H, 0bdH, 0c3H, 0c7H, 0d2H, ' ', 0c7H, 0cfH, 0c0H, 0a7H, 0b8H
	DB	0deH, 0b4H, 0baH, 0b0H, 0a1H, ' ', 0beH, 0f8H, 0bdH, 0c0H, 0b4H
	DB	0cfH, 0b4H, 0d9H, '.', 00H			; `string'
CONST	ENDS
;	COMDAT ??_C@_0M@DFOJHEAI@Y?C?$OA?$LE?$NM?$MA?$KH?$MA?$PM?H?$KP@
CONST	SEGMENT
??_C@_0M@DFOJHEAI@Y?C?$OA?$LE?$NM?$MA?$KH?$MA?$PM?H?$KP@ DB 'Y', 0c3H, 0e0H
	DB	0b4H, 0dcH, 0c0H, 0a7H, 0c0H, 0fcH, 0c8H, 0afH, 00H ; `string'
CONST	ENDS
;	COMDAT ??_C@_0M@KBICNPCM@?$LG?s?$MA?N?$LL?v?5?A?v?A?$KE@
CONST	SEGMENT
??_C@_0M@KBICNPCM@?$LG?s?$MA?N?$LL?v?5?A?v?A?$KE@ DB 0b6H, 0f3H, 0c0H, 0ceH
	DB	0bbH, 0f6H, ' ', 0c1H, 0f6H, 0c1H, 0a4H, 00H	; `string'
CONST	ENDS
;	COMDAT ??_C@_0O@OKNAFKHL@?$LG?s?$MA?N?A?$LO?$LH?y?5?A?v?A?$KE@
CONST	SEGMENT
??_C@_0O@OKNAFKHL@?$LG?s?$MA?N?A?$LO?$LH?y?5?A?v?A?$KE@ DB 0b6H, 0f3H, 0c0H
	DB	0ceH, 0c1H, 0beH, 0b7H, 0f9H, ' ', 0c1H, 0f6H, 0c1H, 0a4H, 00H ; `string'
CONST	ENDS
;	COMDAT ??_C@_04HCJKIICH@?$LB?b?H?$KD@
CONST	SEGMENT
??_C@_04HCJKIICH@?$LB?b?H?$KD@ DB 0b1H, 0e2H, 0c8H, 0a3H, 00H ; `string'
CONST	ENDS
;	COMDAT ??_C@_04OHLPBPFK@?$LF?$LF?G?$PM@
CONST	SEGMENT
??_C@_04OHLPBPFK@?$LF?$LF?G?$PM@ DB 0b5H, 0b5H, 0c7H, 0fcH, 00H ; `string'
CONST	ENDS
;	COMDAT ??_C@_06MMCCKCBH@?$LF?$LI?$LK?$LI?$LB?b@
CONST	SEGMENT
??_C@_06MMCCKCBH@?$LF?$LI?$LK?$LI?$LB?b@ DB 0b5H, 0b8H, 0baH, 0b8H, 0b1H, 0e2H
	DB	00H						; `string'
CONST	ENDS
;	COMDAT ??_C@_08DLHMIPKD@?$LM?v?D?$KB?A?$LG?H?$LI@
CONST	SEGMENT
??_C@_08DLHMIPKD@?$LM?v?D?$KB?A?$LG?H?$LI@ DB 0bcH, 0f6H, 0c4H, 0a1H, 0c1H
	DB	0b6H, 0c8H, 0b8H, 00H			; `string'
CONST	ENDS
;	COMDAT ??_C@_0N@IMOJLLBB@?$LN?$LK?E?$KJ?$LH?Q?$LM?$PL?$LB?b?$LB?b@
CONST	SEGMENT
??_C@_0N@IMOJLLBB@?$LN?$LK?E?$KJ?$LH?Q?$LM?$PL?$LB?b?$LB?b@ DB 0bdH, 0baH
	DB	0c5H, 0a9H, 0b7H, 0d1H, 0bcH, 0fbH, 0b1H, 0e2H, 0b1H, 0e2H, 00H ; `string'
CONST	ENDS
;	COMDAT ??_C@_0N@BLLFONEB@?$LE?$KL?$LB?$NN?$LP?$LF?$LP?$KK?$LM?$PL?$LB?h@
CONST	SEGMENT
??_C@_0N@BLLFONEB@?$LE?$KL?$LB?$NN?$LP?$LF?$LP?$KK?$LM?$PL?$LB?h@ DB 0b4H
	DB	0abH, 0b1H, 0ddH, 0bfH, 0b5H, 0bfH, 0aaH, 0bcH, 0fbH, 0b1H, 0e8H
	DB	00H						; `string'
CONST	ENDS
;	COMDAT ??_C@_0N@LAKHKAAC@?$LP?x?E?$KM?$LI?$KP?$LM?$PL?$LB?b?$LB?b@
CONST	SEGMENT
??_C@_0N@LAKHKAAC@?$LP?x?E?$KM?$LI?$KP?$LM?$PL?$LB?b?$LB?b@ DB 0bfH, 0f8H
	DB	0c5H, 0acH, 0b8H, 0afH, 0bcH, 0fbH, 0b1H, 0e2H, 0b1H, 0e2H, 00H ; `string'
CONST	ENDS
;	COMDAT ??_C@_0N@BNPHCDMM@?$LM?v?D?$KB?A?$LG?H?$LI?G?O?$LE?$NM@
CONST	SEGMENT
??_C@_0N@BNPHCDMM@?$LM?v?D?$KB?A?$LG?H?$LI?G?O?$LE?$NM@ DB 0bcH, 0f6H, 0c4H
	DB	0a1H, 0c1H, 0b6H, 0c8H, 0b8H, 0c7H, 0cfH, 0b4H, 0dcH, 00H ; `string'
CONST	ENDS
;	COMDAT ??_C@_06LJBCBGIM@?$LB?b?A?X?$LM?$LB@
CONST	SEGMENT
??_C@_06LJBCBGIM@?$LB?b?A?X?$LM?$LB@ DB 0b1H, 0e2H, 0c1H, 0d8H, 0bcH, 0b1H
	DB	00H						; `string'
CONST	ENDS
;	COMDAT ??_C@_08IMLCKOLO@?$MA?O?A?V?$LP?y?$LK?P@
CONST	SEGMENT
??_C@_08IMLCKOLO@?$MA?O?A?V?$LP?y?$LK?P@ DB 0c0H, 0cfH, 0c1H, 0d6H, 0bfH, 0f9H
	DB	0baH, 0d0H, 00H				; `string'
CONST	ENDS
;	COMDAT ??_C@_0L@LPGFGOCL@?$LA?E?$LH?$KB?$LH?$KO?$MA?L?F?r@
CONST	SEGMENT
??_C@_0L@LPGFGOCL@?$LA?E?$LH?$KB?$LH?$KO?$MA?L?F?r@ DB 0b0H, 0c5H, 0b7H, 0a1H
	DB	0b7H, 0aeH, 0c0H, 0ccH, 0c6H, 0f2H, 00H	; `string'
CONST	ENDS
;	COMDAT ??_C@_07MCHEHJLP@?$MA?L?F?rSet@
CONST	SEGMENT
??_C@_07MCHEHJLP@?$MA?L?F?rSet@ DB 0c0H, 0ccH, 0c6H, 0f2H, 'Set', 00H ; `string'
CONST	ENDS
;	COMDAT ??_C@_08NPIGFMCH@?$LA?$KB?$LA?$NN?$MA?L?F?r@
CONST	SEGMENT
??_C@_08NPIGFMCH@?$LA?$KB?$LA?$NN?$MA?L?F?r@ DB 0b0H, 0a1H, 0b0H, 0ddH, 0c0H
	DB	0ccH, 0c6H, 0f2H, 00H			; `string'
CONST	ENDS
;	COMDAT ??_C@_08JBKIJOF@?H?$KP?$LA?f?$LM?$LD?A?$KE@
CONST	SEGMENT
??_C@_08JBKIJOF@?H?$KP?$LA?f?$LM?$LD?A?$KE@ DB 0c8H, 0afH, 0b0H, 0e6H, 0bcH
	DB	0b3H, 0c1H, 0a4H, 00H			; `string'
CONST	ENDS
;	COMDAT ??_C@_08CKFLHKDJ@?F?P?E?O?$LM?$LD?A?$KE@
CONST	SEGMENT
??_C@_08CKFLHKDJ@?F?P?E?O?$LM?$LD?A?$KE@ DB 0c6H, 0d0H, 0c5H, 0cfH, 0bcH, 0b3H
	DB	0c1H, 0a4H, 00H				; `string'
CONST	ENDS
;	COMDAT ??_C@_08NJNPNNKE@?F?P?E?O?E?k?$LA?h@
CONST	SEGMENT
??_C@_08NJNPNNKE@?F?P?E?O?E?k?$LA?h@ DB 0c6H, 0d0H, 0c5H, 0cfH, 0c5H, 0ebH
	DB	0b0H, 0e8H, 00H				; `string'
CONST	ENDS
;	COMDAT ??_C@_08LKMKHAFD@?D?$LF?$LF?i?F?P?E?O@
CONST	SEGMENT
??_C@_08LKMKHAFD@?D?$LF?$LF?i?F?P?E?O@ DB 0c4H, 0b5H, 0b5H, 0e9H, 0c6H, 0d0H
	DB	0c5H, 0cfH, 00H				; `string'
CONST	ENDS
;	COMDAT ??_C@_08FGFLHNHO@?C?$NP?$LM?$LM?F?P?E?O@
CONST	SEGMENT
??_C@_08FGFLHNHO@?C?$NP?$LM?$LM?F?P?E?O@ DB 0c3H, 0dfH, 0bcH, 0bcH, 0c6H, 0d0H
	DB	0c5H, 0cfH, 00H				; `string'
CONST	ENDS
;	COMDAT ??_C@_0L@NNFDJLGM@?$MA?Z?$LF?$LP?C?$NP?$LM?$LM?$LM?$LB@
CONST	SEGMENT
??_C@_0L@NNFDJLGM@?$MA?Z?$LF?$LP?C?$NP?$LM?$LM?$LM?$LB@ DB 0c0H, 0daH, 0b5H
	DB	0bfH, 0c3H, 0dfH, 0bcH, 0bcH, 0bcH, 0b1H, 00H ; `string'
CONST	ENDS
;	COMDAT ??_C@_09COBNEPKD@Excel?$LK?$KP?H?$KP@
CONST	SEGMENT
??_C@_09COBNEPKD@Excel?$LK?$KP?H?$KP@ DB 'Excel', 0baH, 0afH, 0c8H, 0afH, 00H ; `string'
CONST	ENDS
;	COMDAT ??_C@_04OGFGOPBG@?$MA?N?$LM?b@
CONST	SEGMENT
??_C@_04OGFGOPBG@?$MA?N?$LM?b@ DB 0c0H, 0ceH, 0bcH, 0e2H, 00H ; `string'
CONST	ENDS
;	COMDAT ??_C@_08MBBCHGKM@?$LK?R?$LH?$KP?$LP?$MA?$LB?b@
CONST	SEGMENT
??_C@_08MBBCHGKM@?$LK?R?$LH?$KP?$LP?$MA?$LB?b@ DB 0baH, 0d2H, 0b7H, 0afH, 0bfH
	DB	0c0H, 0b1H, 0e2H, 00H			; `string'
CONST	ENDS
;	COMDAT ??_C@_04ILLFIHBD@?$MA?z?$MA?e@
CONST	SEGMENT
??_C@_04ILLFIHBD@?$MA?z?$MA?e@ DB 0c0H, 0faH, 0c0H, 0e5H, 00H ; `string'
CONST	ENDS
;	COMDAT ??_C@_08NABLOLGA@?$LK?N?$LA?$KB?$LB?b?$LE?I@
CONST	SEGMENT
??_C@_08NABLOLGA@?$LK?N?$LA?$KB?$LB?b?$LE?I@ DB 0baH, 0ceH, 0b0H, 0a1H, 0b1H
	DB	0e2H, 0b4H, 0c9H, 00H			; `string'
CONST	ENDS
;	COMDAT ??_C@_08BMGJALFP@?$LK?P?$LM?$KO?$LF?$LF?$LB?$LI@
CONST	SEGMENT
??_C@_08BMGJALFP@?$LK?P?$LM?$KO?$LF?$LF?$LB?$LI@ DB 0baH, 0d0H, 0bcH, 0aeH
	DB	0b5H, 0b5H, 0b1H, 0b8H, 00H			; `string'
CONST	ENDS
;	COMDAT ??_C@_0L@ILMFLGJO@?$LL?g?$LP?k?$MA?Z?$LM?$LD?A?$KE@
CONST	SEGMENT
??_C@_0L@ILMFLGJO@?$LL?g?$LP?k?$MA?Z?$LM?$LD?A?$KE@ DB 0bbH, 0e7H, 0bfH, 0ebH
	DB	0c0H, 0daH, 0bcH, 0b3H, 0c1H, 0a4H, 00H	; `string'
CONST	ENDS
;	COMDAT ??_C@_09BBDODMFB@USER?5LIST@
CONST	SEGMENT
??_C@_09BBDODMFB@USER?5LIST@ DB 'USER LIST', 00H	; `string'
CONST	ENDS
;	COMDAT ??_C@_0O@PLHPCCBM@ADDITION?5LIST@
CONST	SEGMENT
??_C@_0O@PLHPCCBM@ADDITION?5LIST@ DB 'ADDITION LIST', 00H ; `string'
CONST	ENDS
;	COMDAT ??_C@_09NBFPFBIM@ANAL?5LIST@
CONST	SEGMENT
??_C@_09NBFPFBIM@ANAL?5LIST@ DB 'ANAL LIST', 00H	; `string'
CONST	ENDS
;	COMDAT ??_C@_04OGKJMPGK@?$CF02d@
CONST	SEGMENT
??_C@_04OGKJMPGK@?$CF02d@ DB '%02d', 00H		; `string'
CONST	ENDS
;	COMDAT ??_C@_0L@LGBCNOOM@TOTAL?5LIST@
CONST	SEGMENT
??_C@_0L@LGBCNOOM@TOTAL?5LIST@ DB 'TOTAL LIST', 00H	; `string'
CONST	ENDS
;	COMDAT ??_C@_07NCHCCDCP@VERSION@
CONST	SEGMENT
??_C@_07NCHCCDCP@VERSION@ DB 'VERSION', 00H		; `string'
CONST	ENDS
;	COMDAT ??_C@_05EFFCCOAM@COUNT@
CONST	SEGMENT
??_C@_05EFFCCOAM@COUNT@ DB 'COUNT', 00H			; `string'
CONST	ENDS
;	COMDAT ??_C@_05GKHKKECO@TOTAL@
CONST	SEGMENT
??_C@_05GKHKKECO@TOTAL@ DB 'TOTAL', 00H			; `string'
CONST	ENDS
;	COMDAT ??_C@_05BMGBEOOC@?$CFs?2?$CFs@
CONST	SEGMENT
??_C@_05BMGBEOOC@?$CFs?2?$CFs@ DB '%s\%s', 00H		; `string'
CONST	ENDS
;	COMDAT ??_C@_0BI@OIIEJFGC@ChartToolBarSetting?4dat@
CONST	SEGMENT
??_C@_0BI@OIIEJFGC@ChartToolBarSetting?4dat@ DB 'ChartToolBarSetting.dat', 00H ; `string'
CONST	ENDS
;	COMDAT ??_C@_0N@BKKDNAGG@?G?O?$MA?$KH?$LJ?v?F?$LA?$LK?$LI?$LB?b@
CONST	SEGMENT
??_C@_0N@BKKDNAGG@?G?O?$MA?$KH?$LJ?v?F?$LA?$LK?$LI?$LB?b@ DB 0c7H, 0cfH, 0c0H
	DB	0a7H, 0b9H, 0f6H, 0c6H, 0b0H, 0baH, 0b8H, 0b1H, 0e2H, 00H ; `string'
CONST	ENDS
;	COMDAT ??_C@_0N@CLMOGOJM@?$LL?s?$MA?$KH?$LJ?v?F?$LA?$LK?$LI?$LB?b@
CONST	SEGMENT
??_C@_0N@CLMOGOJM@?$LL?s?$MA?$KH?$LJ?v?F?$LA?$LK?$LI?$LB?b@ DB 0bbH, 0f3H
	DB	0c0H, 0a7H, 0b9H, 0f6H, 0c6H, 0b0H, 0baH, 0b8H, 0b1H, 0e2H, 00H ; `string'
CONST	ENDS
;	COMDAT ??_C@_0BE@ECBLFEAB@?$CFs?2toolbar_move?4bmp@
CONST	SEGMENT
??_C@_0BE@ECBLFEAB@?$CFs?2toolbar_move?4bmp@ DB '%s\toolbar_move.bmp', 00H ; `string'
CONST	ENDS
;	COMDAT ??_C@_0L@PPOMAPHP@?B?w?F?$KO?E?x?F?m?A?$PN@
CONST	SEGMENT
??_C@_0L@PPOMAPHP@?B?w?F?$KO?E?x?F?m?A?$PN@ DB 0c2H, 0f7H, 0c6H, 0aeH, 0c5H
	DB	0f8H, 0c6H, 0edH, 0c1H, 0fdH, 00H		; `string'
CONST	ENDS
;	COMDAT ??_C@_01CLKCMJKC@?5@
CONST	SEGMENT
??_C@_01CLKCMJKC@?5@ DB ' ', 00H			; `string'
CONST	ENDS
;	COMDAT ??_C@_06CDNBHBF@?E?x?$LM?$LB?E?C@
CONST	SEGMENT
??_C@_06CDNBHBF@?E?x?$LM?$LB?E?C@ DB 0c5H, 0f8H, 0bcH, 0b1H, 0c5H, 0c3H, 00H ; `string'
CONST	ENDS
;	COMDAT ??_C@_06MFMMLLPC@?$LB?$LM?$LI?$LC?C?$LM@
CONST	SEGMENT
??_C@_06MFMMLLPC@?$LB?$LM?$LI?$LC?C?$LM@ DB 0b1H, 0bcH, 0b8H, 0b2H, 0c3H, 0bcH
	DB	00H						; `string'
CONST	ENDS
;	COMDAT ??_C@_0BD@CMCCCNBF@HANAROIGATEMANAGER@
CONST	SEGMENT
??_C@_0BD@CMCCCNBF@HANAROIGATEMANAGER@ DB 'HANAROIGATEMANAGER', 00H ; `string'
CONST	ENDS
;	COMDAT ?messageMap@?1??GetThisMessageMap@CDlgToolbar@@KGPBUAFX_MSGMAP@@XZ@4U3@B
CONST	SEGMENT
?messageMap@?1??GetThisMessageMap@CDlgToolbar@@KGPBUAFX_MSGMAP@@XZ@4U3@B DD FLAT:?GetThisMessageMap@CDialog@@KGPBUAFX_MSGMAP@@XZ ; `CDlgToolbar::GetThisMessageMap'::`2'::messageMap
	DD	FLAT:?_messageEntries@?1??GetThisMessageMap@CDlgToolbar@@KGPBUAFX_MSGMAP@@XZ@4QBUAFX_MSGMAP_ENTRY@@B
CONST	ENDS
;	COMDAT ?_messageEntries@?1??GetThisMessageMap@CDlgToolbar@@KGPBUAFX_MSGMAP@@XZ@4QBUAFX_MSGMAP_ENTRY@@B
CONST	SEGMENT
?_messageEntries@?1??GetThisMessageMap@CDlgToolbar@@KGPBUAFX_MSGMAP@@XZ@4QBUAFX_MSGMAP_ENTRY@@B DD 05H ; `CDlgToolbar::GetThisMessageMap'::`2'::_messageEntries
	DD	00H
	DD	00H
	DD	00H
	DD	01aH
	DD	FLAT:?OnSize@CDlgToolbar@@IAEXIHH@Z
	DD	0fH
	DD	00H
	DD	00H
	DD	00H
	DD	013H
	DD	FLAT:?OnPaint@CDlgToolbar@@IAEXXZ
	DD	014H
	DD	00H
	DD	00H
	DD	00H
	DD	01H
	DD	FLAT:?OnEraseBkgnd@CDlgToolbar@@IAEHPAVCDC@@@Z
	DD	00H
	DD	00H
	DD	00H
	DD	00H
	DD	00H
	DD	00H
CONST	ENDS
;	COMDAT ??_7CDlgToolbar@@6B@
CONST	SEGMENT
??_7CDlgToolbar@@6B@ DD FLAT:??_R4CDlgToolbar@@6B@	; CDlgToolbar::`vftable'
	DD	FLAT:?GetRuntimeClass@CDialog@@UBEPAUCRuntimeClass@@XZ
	DD	FLAT:??_ECDlgToolbar@@UAEPAXI@Z
	DD	FLAT:?Serialize@CObject@@UAEXAAVCArchive@@@Z
	DD	FLAT:?AssertValid@CObject@@UBEXXZ
	DD	FLAT:?Dump@CObject@@UBEXAAVCDumpContext@@@Z
	DD	FLAT:?OnCmdMsg@CDlgToolbar@@UAEHIHPAXPAUAFX_CMDHANDLERINFO@@@Z
	DD	FLAT:?OnFinalRelease@CWnd@@UAEXXZ
	DD	FLAT:?IsInvokeAllowed@CCmdTarget@@UAEHJ@Z
	DD	FLAT:?GetDispatchIID@CCmdTarget@@UAEHPAU_GUID@@@Z
	DD	FLAT:?GetTypeInfoCount@CCmdTarget@@UAEIXZ
	DD	FLAT:?GetTypeLibCache@CCmdTarget@@UAEPAVCTypeLibCache@@XZ
	DD	FLAT:?GetTypeLib@CCmdTarget@@UAEJKPAPAUITypeLib@@@Z
	DD	FLAT:?GetMessageMap@CDlgToolbar@@MBEPBUAFX_MSGMAP@@XZ
	DD	FLAT:?GetCommandMap@CCmdTarget@@MBEPBUAFX_OLECMDMAP@@XZ
	DD	FLAT:?GetDispatchMap@CCmdTarget@@MBEPBUAFX_DISPMAP@@XZ
	DD	FLAT:?GetConnectionMap@CCmdTarget@@MBEPBUAFX_CONNECTIONMAP@@XZ
	DD	FLAT:?GetInterfaceMap@CWnd@@MBEPBUAFX_INTERFACEMAP@@XZ
	DD	FLAT:?GetEventSinkMap@CCmdTarget@@MBEPBUAFX_EVENTSINKMAP@@XZ
	DD	FLAT:?OnCreateAggregates@CCmdTarget@@UAEHXZ
	DD	FLAT:?GetInterfaceHook@CCmdTarget@@UAEPAUIUnknown@@PBX@Z
	DD	FLAT:?GetExtraConnectionPoints@CCmdTarget@@MAEHPAVCPtrArray@@@Z
	DD	FLAT:?GetConnectionHook@CCmdTarget@@MAEPAUIConnectionPoint@@ABU_GUID@@@Z
	DD	FLAT:?PreSubclassWindow@CWnd@@UAEXXZ
	DD	FLAT:?Create@CWnd@@UAEHPBD0KABUtagRECT@@PAV1@IPAUCCreateContext@@@Z
	DD	FLAT:?CreateEx@CWnd@@UAEHKPBD0KABUtagRECT@@PAV1@IPAX@Z
	DD	FLAT:?CreateEx@CWnd@@UAEHKPBD0KHHHHPAUHWND__@@PAUHMENU__@@PAX@Z
	DD	FLAT:?DestroyWindow@CDlgToolbar@@UAEHXZ
	DD	FLAT:?PreCreateWindow@CWnd@@UAEHAAUtagCREATESTRUCTA@@@Z
	DD	FLAT:?CalcWindowRect@CWnd@@UAEXPAUtagRECT@@I@Z
	DD	FLAT:?GetMenu@CWnd@@UBEPAVCMenu@@XZ
	DD	FLAT:?SetMenu@CWnd@@UAEHPAVCMenu@@@Z
	DD	FLAT:?OnToolHitTest@CWnd@@UBEHVCPoint@@PAUtagTOOLINFOA@@@Z
	DD	FLAT:?GetScrollBarCtrl@CWnd@@UBEPAVCScrollBar@@H@Z
	DD	FLAT:?WinHelpA@CWnd@@UAEXKI@Z
	DD	FLAT:?HtmlHelpA@CWnd@@UAEXKI@Z
	DD	FLAT:?WinHelpInternal@CWnd@@UAEXKI@Z
	DD	FLAT:?ContinueModal@CWnd@@UAEHXZ
	DD	FLAT:?EndModalLoop@CWnd@@UAEXH@Z
	DD	FLAT:?OnDrawIconicThumbnailOrLivePreview@CWnd@@UAEXAAVCDC@@VCRect@@VCSize@@HAAH@Z
	DD	FLAT:?EnsureStdObj@CWnd@@UAEJXZ
	DD	FLAT:?get_accParent@CWnd@@UAEJPAPAUIDispatch@@@Z
	DD	FLAT:?get_accChildCount@CWnd@@UAEJPAJ@Z
	DD	FLAT:?get_accChild@CWnd@@UAEJUtagVARIANT@@PAPAUIDispatch@@@Z
	DD	FLAT:?get_accName@CWnd@@UAEJUtagVARIANT@@PAPA_W@Z
	DD	FLAT:?get_accValue@CWnd@@UAEJUtagVARIANT@@PAPA_W@Z
	DD	FLAT:?get_accDescription@CWnd@@UAEJUtagVARIANT@@PAPA_W@Z
	DD	FLAT:?get_accRole@CWnd@@UAEJUtagVARIANT@@PAU2@@Z
	DD	FLAT:?get_accState@CWnd@@UAEJUtagVARIANT@@PAU2@@Z
	DD	FLAT:?get_accHelp@CWnd@@UAEJUtagVARIANT@@PAPA_W@Z
	DD	FLAT:?get_accHelpTopic@CWnd@@UAEJPAPA_WUtagVARIANT@@PAJ@Z
	DD	FLAT:?get_accKeyboardShortcut@CWnd@@UAEJUtagVARIANT@@PAPA_W@Z
	DD	FLAT:?get_accFocus@CWnd@@UAEJPAUtagVARIANT@@@Z
	DD	FLAT:?get_accSelection@CWnd@@UAEJPAUtagVARIANT@@@Z
	DD	FLAT:?get_accDefaultAction@CWnd@@UAEJUtagVARIANT@@PAPA_W@Z
	DD	FLAT:?accSelect@CWnd@@UAEJJUtagVARIANT@@@Z
	DD	FLAT:?accLocation@CWnd@@UAEJPAJ000UtagVARIANT@@@Z
	DD	FLAT:?accNavigate@CWnd@@UAEJJUtagVARIANT@@PAU2@@Z
	DD	FLAT:?accHitTest@CWnd@@UAEJJJPAUtagVARIANT@@@Z
	DD	FLAT:?accDoDefaultAction@CWnd@@UAEJUtagVARIANT@@@Z
	DD	FLAT:?put_accName@CWnd@@UAEJUtagVARIANT@@PA_W@Z
	DD	FLAT:?put_accValue@CWnd@@UAEJUtagVARIANT@@PA_W@Z
	DD	FLAT:?SetProxy@CWnd@@UAEJPAUIAccessibleProxy@@@Z
	DD	FLAT:?CreateAccessibleProxy@CWnd@@UAEJIJPAJ@Z
	DD	FLAT:?OnCommand@CWnd@@MAEHIJ@Z
	DD	FLAT:?OnNotify@CWnd@@MAEHIJPAJ@Z
	DD	FLAT:?GetSuperWndProcAddr@CWnd@@MAEPAP6GJPAUHWND__@@IIJ@ZXZ
	DD	FLAT:?DoDataExchange@CDlgToolbar@@MAEXPAVCDataExchange@@@Z
	DD	FLAT:?BeginModalState@CWnd@@UAEXXZ
	DD	FLAT:?EndModalState@CWnd@@UAEXXZ
	DD	FLAT:?PreTranslateMessage@CDlgToolbar@@MAEHPAUtagMSG@@@Z
	DD	FLAT:?OnAmbientProperty@CWnd@@UAEHPAVCOleControlSite@@JPAUtagVARIANT@@@Z
	DD	FLAT:?WindowProc@CDlgToolbar@@MAEJIIJ@Z
	DD	FLAT:?OnWndMsg@CWnd@@MAEHIIJPAJ@Z
	DD	FLAT:?DefWindowProcA@CWnd@@MAEJIIJ@Z
	DD	FLAT:?PostNcDestroy@CWnd@@MAEXXZ
	DD	FLAT:?OnChildNotify@CWnd@@MAEHIIJPAJ@Z
	DD	FLAT:?OnTouchInputs@CWnd@@MAEHIPAUtagTOUCHINPUT@@@Z
	DD	FLAT:?OnTouchInput@CWnd@@MAEHVCPoint@@HHPAUtagTOUCHINPUT@@@Z
	DD	FLAT:?GetGestureStatus@CWnd@@MAEKVCPoint@@@Z
	DD	FLAT:?OnGestureZoom@CWnd@@MAEHVCPoint@@J@Z
	DD	FLAT:?OnGesturePan@CWnd@@MAEHVCPoint@@0@Z
	DD	FLAT:?OnGestureRotate@CWnd@@MAEHVCPoint@@N@Z
	DD	FLAT:?OnGestureTwoFingerTap@CWnd@@MAEHVCPoint@@@Z
	DD	FLAT:?OnGesturePressAndTap@CWnd@@MAEHVCPoint@@J@Z
	DD	FLAT:?ResizeDynamicLayout@CWnd@@MAEXXZ
	DD	FLAT:?CheckAutoCenter@CDialog@@UAEHXZ
	DD	FLAT:?IsFrameWnd@CWnd@@UBEHXZ
	DD	FLAT:?CreateControlContainer@CWnd@@MAEHPAPAVCOleControlContainer@@@Z
	DD	FLAT:?CreateControlSite@CWnd@@MAEHPAVCOleControlContainer@@PAPAVCOleControlSite@@IABU_GUID@@@Z
	DD	FLAT:?SetOccDialogInfo@CDialog@@MAEHPAU_AFX_OCC_DIALOG_INFO@@@Z
	DD	FLAT:?GetOccDialogInfo@CDialog@@MAEPAU_AFX_OCC_DIALOG_INFO@@XZ
	DD	FLAT:?Create@CRscDlg@@UAEHIPAVCWnd@@@Z
	DD	FLAT:?Create@CDialog@@UAEHPBDPAVCWnd@@@Z
	DD	FLAT:?CreateIndirect@CDialog@@UAEHPAXPAVCWnd@@@Z
	DD	FLAT:?CreateIndirect@CDialog@@UAEHPBUDLGTEMPLATE@@PAVCWnd@@PAX@Z
	DD	FLAT:?DoModal@CRscDlg@@UAEHXZ
	DD	FLAT:?OnInitDialog@CDlgToolbar@@MAEHXZ
	DD	FLAT:?OnSetFont@CDialog@@UAEXPAVCFont@@@Z
	DD	FLAT:?OnOK@CDialog@@MAEXXZ
	DD	FLAT:?OnCancel@CDialog@@MAEXXZ
	DD	FLAT:?PreInitDialog@CDialog@@MAEXXZ
	DD	FLAT:?ResizeControl@CDlgToolbar@@UAEXHH@Z
CONST	ENDS
;	COMDAT ??_7?$CMap@HHV?$CStringT@DV?$StrTraitMFC_DLL@DV?$ChTraitsCRT@D@ATL@@@@@ATL@@V12@@@6B@
CONST	SEGMENT
??_7?$CMap@HHV?$CStringT@DV?$StrTraitMFC_DLL@DV?$ChTraitsCRT@D@ATL@@@@@ATL@@V12@@@6B@ DD FLAT:??_R4?$CMap@HHV?$CStringT@DV?$StrTraitMFC_DLL@DV?$ChTraitsCRT@D@ATL@@@@@ATL@@V12@@@6B@ ; CMap<int,int,ATL::CStringT<char,StrTraitMFC_DLL<char,ATL::ChTraitsCRT<char> > >,ATL::CStringT<char,StrTraitMFC_DLL<char,ATL::ChTraitsCRT<char> > > >::`vftable'
	DD	FLAT:?GetRuntimeClass@CObject@@UBEPAUCRuntimeClass@@XZ
	DD	FLAT:??_E?$CMap@HHV?$CStringT@DV?$StrTraitMFC_DLL@DV?$ChTraitsCRT@D@ATL@@@@@ATL@@V12@@@UAEPAXI@Z
	DD	FLAT:?Serialize@?$CMap@HHV?$CStringT@DV?$StrTraitMFC_DLL@DV?$ChTraitsCRT@D@ATL@@@@@ATL@@V12@@@UAEXAAVCArchive@@@Z
	DD	FLAT:?AssertValid@CObject@@UBEXXZ
	DD	FLAT:?Dump@CObject@@UBEXAAVCDumpContext@@@Z
CONST	ENDS
;	COMDAT ??_7?$CArray@HH@@6B@
CONST	SEGMENT
??_7?$CArray@HH@@6B@ DD FLAT:??_R4?$CArray@HH@@6B@	; CArray<int,int>::`vftable'
	DD	FLAT:?GetRuntimeClass@CObject@@UBEPAUCRuntimeClass@@XZ
	DD	FLAT:??_E?$CArray@HH@@UAEPAXI@Z
	DD	FLAT:?Serialize@?$CArray@HH@@UAEXAAVCArchive@@@Z
	DD	FLAT:?AssertValid@CObject@@UBEXXZ
	DD	FLAT:?Dump@CObject@@UBEXAAVCDumpContext@@@Z
CONST	ENDS
;	COMDAT ??_R2CDialog@@8
rdata$r	SEGMENT
??_R2CDialog@@8 DD FLAT:??_R1A@?0A@EA@CDialog@@8	; CDialog::`RTTI Base Class Array'
	DD	FLAT:??_R1A@?0A@EA@CWnd@@8
	DD	FLAT:??_R1A@?0A@EA@CCmdTarget@@8
	DD	FLAT:??_R1A@?0A@EA@CObject@@8
rdata$r	ENDS
;	COMDAT ??_R3CDialog@@8
rdata$r	SEGMENT
??_R3CDialog@@8 DD 00H					; CDialog::`RTTI Class Hierarchy Descriptor'
	DD	00H
	DD	04H
	DD	FLAT:??_R2CDialog@@8
rdata$r	ENDS
;	COMDAT ??_R0?AVCDialog@@@8
data$rs	SEGMENT
??_R0?AVCDialog@@@8 DD FLAT:??_7type_info@@6B@		; CDialog `RTTI Type Descriptor'
	DD	00H
	DB	'.?AVCDialog@@', 00H
data$rs	ENDS
;	COMDAT ??_R1A@?0A@EA@CDialog@@8
rdata$r	SEGMENT
??_R1A@?0A@EA@CDialog@@8 DD FLAT:??_R0?AVCDialog@@@8	; CDialog::`RTTI Base Class Descriptor at (0,-1,0,64)'
	DD	03H
	DD	00H
	DD	0ffffffffH
	DD	00H
	DD	040H
	DD	FLAT:??_R3CDialog@@8
rdata$r	ENDS
;	COMDAT ??_R2CCmdTarget@@8
rdata$r	SEGMENT
??_R2CCmdTarget@@8 DD FLAT:??_R1A@?0A@EA@CCmdTarget@@8	; CCmdTarget::`RTTI Base Class Array'
	DD	FLAT:??_R1A@?0A@EA@CObject@@8
rdata$r	ENDS
;	COMDAT ??_R3CCmdTarget@@8
rdata$r	SEGMENT
??_R3CCmdTarget@@8 DD 00H				; CCmdTarget::`RTTI Class Hierarchy Descriptor'
	DD	00H
	DD	02H
	DD	FLAT:??_R2CCmdTarget@@8
rdata$r	ENDS
;	COMDAT ??_R0?AVCCmdTarget@@@8
data$rs	SEGMENT
??_R0?AVCCmdTarget@@@8 DD FLAT:??_7type_info@@6B@	; CCmdTarget `RTTI Type Descriptor'
	DD	00H
	DB	'.?AVCCmdTarget@@', 00H
data$rs	ENDS
;	COMDAT ??_R1A@?0A@EA@CCmdTarget@@8
rdata$r	SEGMENT
??_R1A@?0A@EA@CCmdTarget@@8 DD FLAT:??_R0?AVCCmdTarget@@@8 ; CCmdTarget::`RTTI Base Class Descriptor at (0,-1,0,64)'
	DD	01H
	DD	00H
	DD	0ffffffffH
	DD	00H
	DD	040H
	DD	FLAT:??_R3CCmdTarget@@8
rdata$r	ENDS
;	COMDAT ??_R2CWnd@@8
rdata$r	SEGMENT
??_R2CWnd@@8 DD	FLAT:??_R1A@?0A@EA@CWnd@@8		; CWnd::`RTTI Base Class Array'
	DD	FLAT:??_R1A@?0A@EA@CCmdTarget@@8
	DD	FLAT:??_R1A@?0A@EA@CObject@@8
rdata$r	ENDS
;	COMDAT ??_R3CWnd@@8
rdata$r	SEGMENT
??_R3CWnd@@8 DD	00H					; CWnd::`RTTI Class Hierarchy Descriptor'
	DD	00H
	DD	03H
	DD	FLAT:??_R2CWnd@@8
rdata$r	ENDS
;	COMDAT ??_R0?AVCWnd@@@8
data$rs	SEGMENT
??_R0?AVCWnd@@@8 DD FLAT:??_7type_info@@6B@		; CWnd `RTTI Type Descriptor'
	DD	00H
	DB	'.?AVCWnd@@', 00H
data$rs	ENDS
;	COMDAT ??_R1A@?0A@EA@CWnd@@8
rdata$r	SEGMENT
??_R1A@?0A@EA@CWnd@@8 DD FLAT:??_R0?AVCWnd@@@8		; CWnd::`RTTI Base Class Descriptor at (0,-1,0,64)'
	DD	02H
	DD	00H
	DD	0ffffffffH
	DD	00H
	DD	040H
	DD	FLAT:??_R3CWnd@@8
rdata$r	ENDS
;	COMDAT ??_R1A@?0A@EA@CBitmap@@8
rdata$r	SEGMENT
??_R1A@?0A@EA@CBitmap@@8 DD FLAT:??_R0?AVCBitmap@@@8	; CBitmap::`RTTI Base Class Descriptor at (0,-1,0,64)'
	DD	02H
	DD	00H
	DD	0ffffffffH
	DD	00H
	DD	040H
	DD	FLAT:??_R3CBitmap@@8
rdata$r	ENDS
;	COMDAT ??_R2CBitmap@@8
rdata$r	SEGMENT
??_R2CBitmap@@8 DD FLAT:??_R1A@?0A@EA@CBitmap@@8	; CBitmap::`RTTI Base Class Array'
	DD	FLAT:??_R1A@?0A@EA@CGdiObject@@8
	DD	FLAT:??_R1A@?0A@EA@CObject@@8
rdata$r	ENDS
;	COMDAT ??_R3CBitmap@@8
rdata$r	SEGMENT
??_R3CBitmap@@8 DD 00H					; CBitmap::`RTTI Class Hierarchy Descriptor'
	DD	00H
	DD	03H
	DD	FLAT:??_R2CBitmap@@8
rdata$r	ENDS
;	COMDAT ??_R0?AVCBitmap@@@8
data$rs	SEGMENT
??_R0?AVCBitmap@@@8 DD FLAT:??_7type_info@@6B@		; CBitmap `RTTI Type Descriptor'
	DD	00H
	DB	'.?AVCBitmap@@', 00H
data$rs	ENDS
;	COMDAT ??_R4CBitmap@@6B@
rdata$r	SEGMENT
??_R4CBitmap@@6B@ DD 00H				; CBitmap::`RTTI Complete Object Locator'
	DD	00H
	DD	00H
	DD	FLAT:??_R0?AVCBitmap@@@8
	DD	FLAT:??_R3CBitmap@@8
rdata$r	ENDS
;	COMDAT ??_R1A@?0A@EA@CFont@@8
rdata$r	SEGMENT
??_R1A@?0A@EA@CFont@@8 DD FLAT:??_R0?AVCFont@@@8	; CFont::`RTTI Base Class Descriptor at (0,-1,0,64)'
	DD	02H
	DD	00H
	DD	0ffffffffH
	DD	00H
	DD	040H
	DD	FLAT:??_R3CFont@@8
rdata$r	ENDS
;	COMDAT ??_R2CFont@@8
rdata$r	SEGMENT
??_R2CFont@@8 DD FLAT:??_R1A@?0A@EA@CFont@@8		; CFont::`RTTI Base Class Array'
	DD	FLAT:??_R1A@?0A@EA@CGdiObject@@8
	DD	FLAT:??_R1A@?0A@EA@CObject@@8
rdata$r	ENDS
;	COMDAT ??_R3CFont@@8
rdata$r	SEGMENT
??_R3CFont@@8 DD 00H					; CFont::`RTTI Class Hierarchy Descriptor'
	DD	00H
	DD	03H
	DD	FLAT:??_R2CFont@@8
rdata$r	ENDS
;	COMDAT ??_R0?AVCFont@@@8
data$rs	SEGMENT
??_R0?AVCFont@@@8 DD FLAT:??_7type_info@@6B@		; CFont `RTTI Type Descriptor'
	DD	00H
	DB	'.?AVCFont@@', 00H
data$rs	ENDS
;	COMDAT ??_R4CFont@@6B@
rdata$r	SEGMENT
??_R4CFont@@6B@ DD 00H					; CFont::`RTTI Complete Object Locator'
	DD	00H
	DD	00H
	DD	FLAT:??_R0?AVCFont@@@8
	DD	FLAT:??_R3CFont@@8
rdata$r	ENDS
;	COMDAT ??_R1A@?0A@EA@CPen@@8
rdata$r	SEGMENT
??_R1A@?0A@EA@CPen@@8 DD FLAT:??_R0?AVCPen@@@8		; CPen::`RTTI Base Class Descriptor at (0,-1,0,64)'
	DD	02H
	DD	00H
	DD	0ffffffffH
	DD	00H
	DD	040H
	DD	FLAT:??_R3CPen@@8
rdata$r	ENDS
;	COMDAT ??_R2CPen@@8
rdata$r	SEGMENT
??_R2CPen@@8 DD	FLAT:??_R1A@?0A@EA@CPen@@8		; CPen::`RTTI Base Class Array'
	DD	FLAT:??_R1A@?0A@EA@CGdiObject@@8
	DD	FLAT:??_R1A@?0A@EA@CObject@@8
rdata$r	ENDS
;	COMDAT ??_R3CPen@@8
rdata$r	SEGMENT
??_R3CPen@@8 DD	00H					; CPen::`RTTI Class Hierarchy Descriptor'
	DD	00H
	DD	03H
	DD	FLAT:??_R2CPen@@8
rdata$r	ENDS
;	COMDAT ??_R0?AVCPen@@@8
data$rs	SEGMENT
??_R0?AVCPen@@@8 DD FLAT:??_7type_info@@6B@		; CPen `RTTI Type Descriptor'
	DD	00H
	DB	'.?AVCPen@@', 00H
data$rs	ENDS
;	COMDAT ??_R4CPen@@6B@
rdata$r	SEGMENT
??_R4CPen@@6B@ DD 00H					; CPen::`RTTI Complete Object Locator'
	DD	00H
	DD	00H
	DD	FLAT:??_R0?AVCPen@@@8
	DD	FLAT:??_R3CPen@@8
rdata$r	ENDS
;	COMDAT ??_R1A@?0A@EA@CGdiObject@@8
rdata$r	SEGMENT
??_R1A@?0A@EA@CGdiObject@@8 DD FLAT:??_R0?AVCGdiObject@@@8 ; CGdiObject::`RTTI Base Class Descriptor at (0,-1,0,64)'
	DD	01H
	DD	00H
	DD	0ffffffffH
	DD	00H
	DD	040H
	DD	FLAT:??_R3CGdiObject@@8
rdata$r	ENDS
;	COMDAT ??_R2CGdiObject@@8
rdata$r	SEGMENT
??_R2CGdiObject@@8 DD FLAT:??_R1A@?0A@EA@CGdiObject@@8	; CGdiObject::`RTTI Base Class Array'
	DD	FLAT:??_R1A@?0A@EA@CObject@@8
rdata$r	ENDS
;	COMDAT ??_R3CGdiObject@@8
rdata$r	SEGMENT
??_R3CGdiObject@@8 DD 00H				; CGdiObject::`RTTI Class Hierarchy Descriptor'
	DD	00H
	DD	02H
	DD	FLAT:??_R2CGdiObject@@8
rdata$r	ENDS
;	COMDAT ??_R0?AVCGdiObject@@@8
data$rs	SEGMENT
??_R0?AVCGdiObject@@@8 DD FLAT:??_7type_info@@6B@	; CGdiObject `RTTI Type Descriptor'
	DD	00H
	DB	'.?AVCGdiObject@@', 00H
data$rs	ENDS
;	COMDAT ??_R4CGdiObject@@6B@
rdata$r	SEGMENT
??_R4CGdiObject@@6B@ DD 00H				; CGdiObject::`RTTI Complete Object Locator'
	DD	00H
	DD	00H
	DD	FLAT:??_R0?AVCGdiObject@@@8
	DD	FLAT:??_R3CGdiObject@@8
rdata$r	ENDS
;	COMDAT ??_R1A@?0A@EA@CObject@@8
rdata$r	SEGMENT
??_R1A@?0A@EA@CObject@@8 DD FLAT:??_R0?AVCObject@@@8	; CObject::`RTTI Base Class Descriptor at (0,-1,0,64)'
	DD	00H
	DD	00H
	DD	0ffffffffH
	DD	00H
	DD	040H
	DD	FLAT:??_R3CObject@@8
rdata$r	ENDS
;	COMDAT ??_R2CObject@@8
rdata$r	SEGMENT
??_R2CObject@@8 DD FLAT:??_R1A@?0A@EA@CObject@@8	; CObject::`RTTI Base Class Array'
rdata$r	ENDS
;	COMDAT ??_R3CObject@@8
rdata$r	SEGMENT
??_R3CObject@@8 DD 00H					; CObject::`RTTI Class Hierarchy Descriptor'
	DD	00H
	DD	01H
	DD	FLAT:??_R2CObject@@8
rdata$r	ENDS
;	COMDAT ??_R0?AVCObject@@@8
data$rs	SEGMENT
??_R0?AVCObject@@@8 DD FLAT:??_7type_info@@6B@		; CObject `RTTI Type Descriptor'
	DD	00H
	DB	'.?AVCObject@@', 00H
data$rs	ENDS
;	COMDAT ??_C@_01KICIPPFI@?2@
CONST	SEGMENT
??_C@_01KICIPPFI@?2@ DB '\', 00H			; `string'
CONST	ENDS
;	COMDAT ??_C@_02EMFKHFLK@?$CFX@
CONST	SEGMENT
??_C@_02EMFKHFLK@?$CFX@ DB '%X', 00H			; `string'
CONST	ENDS
;	COMDAT ??_C@_06NDLAHCHE@?$CFs?$CF08X@
CONST	SEGMENT
??_C@_06NDLAHCHE@?$CFs?$CF08X@ DB '%s%08X', 00H		; `string'
CONST	ENDS
;	COMDAT ??_C@_0M@CBBNGGHM@PcTrMng?4dll@
CONST	SEGMENT
??_C@_0M@CBBNGGHM@PcTrMng?4dll@ DB 'PcTrMng.dll', 00H	; `string'
CONST	ENDS
;	COMDAT ??_C@_02DKCKIIND@?$CFs@
CONST	SEGMENT
??_C@_02DKCKIIND@?$CFs@ DB '%s', 00H			; `string'
CONST	ENDS
;	COMDAT ??_C@_0N@OMEMOKLE@?$CFTs?5?$CI?$CFTs?3?$CFd?$CJ@
CONST	SEGMENT
??_C@_0N@OMEMOKLE@?$CFTs?5?$CI?$CFTs?3?$CFd?$CJ@ DB '%Ts (%Ts:%d)', 00H ; `string'
CONST	ENDS
;	COMDAT ??_C@_0BB@HBOOMJBF@?$CFTs?5?$CI?$CFTs?3?$CFd?$CJ?6?$CFTs@
CONST	SEGMENT
??_C@_0BB@HBOOMJBF@?$CFTs?5?$CI?$CFTs?3?$CFd?$CJ?6?$CFTs@ DB '%Ts (%Ts:%d'
	DB	')', 0aH, '%Ts', 00H				; `string'
CONST	ENDS
;	COMDAT ??_C@_0BP@OIEOKIDM@Exception?5thrown?5in?5destructor@
CONST	SEGMENT
??_C@_0BP@OIEOKIDM@Exception?5thrown?5in?5destructor@ DB 'Exception throw'
	DB	'n in destructor', 00H			; `string'
CONST	ENDS
;	COMDAT ??_C@_0HD@JJCHHHNK@C?3?2Program?5Files?5?$CIx86?$CJ?2Microsof@
CONST	SEGMENT
??_C@_0HD@JJCHHHNK@C?3?2Program?5Files?5?$CIx86?$CJ?2Microsof@ DB 'C:\Pro'
	DB	'gram Files (x86)\Microsoft Visual Studio\2019\Community\VC\To'
	DB	'ols\MSVC\14.29.30133\atlmfc\include\afxwin1.inl', 00H ; `string'
CONST	ENDS
;	COMDAT ??_7CBitmap@@6B@
CONST	SEGMENT
??_7CBitmap@@6B@ DD FLAT:??_R4CBitmap@@6B@		; CBitmap::`vftable'
	DD	FLAT:?GetRuntimeClass@CBitmap@@UBEPAUCRuntimeClass@@XZ
	DD	FLAT:??_ECBitmap@@UAEPAXI@Z
	DD	FLAT:?Serialize@CObject@@UAEXAAVCArchive@@@Z
	DD	FLAT:?AssertValid@CObject@@UBEXXZ
	DD	FLAT:?Dump@CObject@@UBEXAAVCDumpContext@@@Z
CONST	ENDS
;	COMDAT ??_7CFont@@6B@
CONST	SEGMENT
??_7CFont@@6B@ DD FLAT:??_R4CFont@@6B@			; CFont::`vftable'
	DD	FLAT:?GetRuntimeClass@CFont@@UBEPAUCRuntimeClass@@XZ
	DD	FLAT:??_ECFont@@UAEPAXI@Z
	DD	FLAT:?Serialize@CObject@@UAEXAAVCArchive@@@Z
	DD	FLAT:?AssertValid@CObject@@UBEXXZ
	DD	FLAT:?Dump@CObject@@UBEXAAVCDumpContext@@@Z
CONST	ENDS
;	COMDAT ??_7CPen@@6B@
CONST	SEGMENT
??_7CPen@@6B@ DD FLAT:??_R4CPen@@6B@			; CPen::`vftable'
	DD	FLAT:?GetRuntimeClass@CPen@@UBEPAUCRuntimeClass@@XZ
	DD	FLAT:??_ECPen@@UAEPAXI@Z
	DD	FLAT:?Serialize@CObject@@UAEXAAVCArchive@@@Z
	DD	FLAT:?AssertValid@CObject@@UBEXXZ
	DD	FLAT:?Dump@CObject@@UBEXAAVCDumpContext@@@Z
CONST	ENDS
;	COMDAT ??_7CGdiObject@@6B@
CONST	SEGMENT
??_7CGdiObject@@6B@ DD FLAT:??_R4CGdiObject@@6B@	; CGdiObject::`vftable'
	DD	FLAT:?GetRuntimeClass@CGdiObject@@UBEPAUCRuntimeClass@@XZ
	DD	FLAT:??_ECGdiObject@@UAEPAXI@Z
	DD	FLAT:?Serialize@CObject@@UAEXAAVCArchive@@@Z
	DD	FLAT:?AssertValid@CObject@@UBEXXZ
	DD	FLAT:?Dump@CObject@@UBEXAAVCDumpContext@@@Z
CONST	ENDS
;	COMDAT ??_C@_00CNPNBAHC@@
CONST	SEGMENT
??_C@_00CNPNBAHC@@ DB 00H				; `string'
CONST	ENDS
;	COMDAT ?_AtlWinModule@ATL@@3VCAtlWinModule@1@A
_DATA	SEGMENT
?_AtlWinModule@ATL@@3VCAtlWinModule@1@A DD 02cH		; ATL::_AtlWinModule
	DB	24 DUP(00H)
	DD	00H
_DATA	ENDS
;	COMDAT ??_R0PAVCException@@@8
data$r	SEGMENT
??_R0PAVCException@@@8 DD FLAT:??_7type_info@@6B@	; CException * `RTTI Type Descriptor'
	DD	00H
	DB	'.PAVCException@@', 00H
data$r	ENDS
;	COMDAT xdata$x
xdata$x	SEGMENT
__ehfuncinfo$??_Estringdispid@CComTypeInfoHolder@ATL@@QAEPAXI@Z DD 019930522H
	DD	00H
	DD	00H
	DD	2 DUP(00H)
	DD	2 DUP(00H)
	DD	00H
	DD	05H
xdata$x	ENDS
;	COMDAT xdata$x
xdata$x	SEGMENT
__unwindtable$?OnPaint@CDlgToolbar@@IAEXXZ DD 0ffffffffH
	DD	FLAT:__unwindfunclet$?OnPaint@CDlgToolbar@@IAEXXZ$0
	DD	00H
	DD	FLAT:__unwindfunclet$?OnPaint@CDlgToolbar@@IAEXXZ$1
	DD	01H
	DD	FLAT:__unwindfunclet$?OnPaint@CDlgToolbar@@IAEXXZ$2
	DD	02H
	DD	FLAT:__unwindfunclet$?OnPaint@CDlgToolbar@@IAEXXZ$3
__ehfuncinfo$?OnPaint@CDlgToolbar@@IAEXXZ DD 019930522H
	DD	04H
	DD	FLAT:__unwindtable$?OnPaint@CDlgToolbar@@IAEXXZ
	DD	2 DUP(00H)
	DD	2 DUP(00H)
	DD	00H
	DD	01H
xdata$x	ENDS
;	COMDAT xdata$x
xdata$x	SEGMENT
__unwindtable$?OnInitDialog@CDlgToolbar@@MAEHXZ DD 0ffffffffH
	DD	FLAT:__unwindfunclet$?OnInitDialog@CDlgToolbar@@MAEHXZ$0
__ehfuncinfo$?OnInitDialog@CDlgToolbar@@MAEHXZ DD 019930522H
	DD	01H
	DD	FLAT:__unwindtable$?OnInitDialog@CDlgToolbar@@MAEHXZ
	DD	2 DUP(00H)
	DD	2 DUP(00H)
	DD	00H
	DD	01H
xdata$x	ENDS
;	COMDAT xdata$x
xdata$x	SEGMENT
__ehfuncinfo$?WindowProc@CDlgToolbar@@MAEJIIJ@Z DD 019930522H
	DD	06H
	DD	FLAT:__unwindtable$?WindowProc@CDlgToolbar@@MAEJIIJ@Z
	DD	2 DUP(00H)
	DD	2 DUP(00H)
	DD	00H
	DD	01H
__unwindtable$?WindowProc@CDlgToolbar@@MAEJIIJ@Z DD 0ffffffffH
	DD	FLAT:__unwindfunclet$?WindowProc@CDlgToolbar@@MAEJIIJ@Z$0
	DD	0ffffffffH
	DD	FLAT:__unwindfunclet$?WindowProc@CDlgToolbar@@MAEJIIJ@Z$1
	DD	01H
	DD	FLAT:__unwindfunclet$?WindowProc@CDlgToolbar@@MAEJIIJ@Z$2
	DD	0ffffffffH
	DD	FLAT:__unwindfunclet$?WindowProc@CDlgToolbar@@MAEJIIJ@Z$3
	DD	0ffffffffH
	DD	FLAT:__unwindfunclet$?WindowProc@CDlgToolbar@@MAEJIIJ@Z$4
	DD	0ffffffffH
	DD	FLAT:__unwindfunclet$?WindowProc@CDlgToolbar@@MAEJIIJ@Z$5
xdata$x	ENDS
;	COMDAT xdata$x
xdata$x	SEGMENT
__unwindtable$?GetFieldData@CDlgToolbar@@IAEXV?$CStringT@DV?$StrTraitMFC_DLL@DV?$ChTraitsCRT@D@ATL@@@@@ATL@@AAHAAV23@@Z DD 0ffffffffH
	DD	FLAT:__unwindfunclet$?GetFieldData@CDlgToolbar@@IAEXV?$CStringT@DV?$StrTraitMFC_DLL@DV?$ChTraitsCRT@D@ATL@@@@@ATL@@AAHAAV23@@Z$0
	DD	00H
	DD	FLAT:__unwindfunclet$?GetFieldData@CDlgToolbar@@IAEXV?$CStringT@DV?$StrTraitMFC_DLL@DV?$ChTraitsCRT@D@ATL@@@@@ATL@@AAHAAV23@@Z$1
	DD	01H
	DD	FLAT:__unwindfunclet$?GetFieldData@CDlgToolbar@@IAEXV?$CStringT@DV?$StrTraitMFC_DLL@DV?$ChTraitsCRT@D@ATL@@@@@ATL@@AAHAAV23@@Z$2
__ehfuncinfo$?GetFieldData@CDlgToolbar@@IAEXV?$CStringT@DV?$StrTraitMFC_DLL@DV?$ChTraitsCRT@D@ATL@@@@@ATL@@AAHAAV23@@Z DD 019930522H
	DD	03H
	DD	FLAT:__unwindtable$?GetFieldData@CDlgToolbar@@IAEXV?$CStringT@DV?$StrTraitMFC_DLL@DV?$ChTraitsCRT@D@ATL@@@@@ATL@@AAHAAV23@@Z
	DD	2 DUP(00H)
	DD	2 DUP(00H)
	DD	00H
	DD	01H
xdata$x	ENDS
;	COMDAT xdata$x
xdata$x	SEGMENT
__ehfuncinfo$?ReadIniFile@CDlgToolbar@@IAEXH@Z DD 019930522H
	DD	0fH
	DD	FLAT:__unwindtable$?ReadIniFile@CDlgToolbar@@IAEXH@Z
	DD	2 DUP(00H)
	DD	2 DUP(00H)
	DD	00H
	DD	01H
__unwindtable$?ReadIniFile@CDlgToolbar@@IAEXH@Z DD 0ffffffffH
	DD	FLAT:__unwindfunclet$?ReadIniFile@CDlgToolbar@@IAEXH@Z$0
	DD	00H
	DD	FLAT:__unwindfunclet$?ReadIniFile@CDlgToolbar@@IAEXH@Z$1
	DD	01H
	DD	FLAT:__unwindfunclet$?ReadIniFile@CDlgToolbar@@IAEXH@Z$2
	DD	02H
	DD	FLAT:__unwindfunclet$?ReadIniFile@CDlgToolbar@@IAEXH@Z$3
	DD	03H
	DD	FLAT:__unwindfunclet$?ReadIniFile@CDlgToolbar@@IAEXH@Z$4
	DD	04H
	DD	FLAT:__unwindfunclet$?ReadIniFile@CDlgToolbar@@IAEXH@Z$5
	DD	05H
	DD	FLAT:__unwindfunclet$?ReadIniFile@CDlgToolbar@@IAEXH@Z$6
	DD	06H
	DD	FLAT:__unwindfunclet$?ReadIniFile@CDlgToolbar@@IAEXH@Z$7
	DD	07H
	DD	FLAT:__unwindfunclet$?ReadIniFile@CDlgToolbar@@IAEXH@Z$8
	DD	08H
	DD	FLAT:__unwindfunclet$?ReadIniFile@CDlgToolbar@@IAEXH@Z$9
	DD	09H
	DD	FLAT:__unwindfunclet$?ReadIniFile@CDlgToolbar@@IAEXH@Z$10
	DD	0aH
	DD	FLAT:__unwindfunclet$?ReadIniFile@CDlgToolbar@@IAEXH@Z$11
	DD	0bH
	DD	FLAT:__unwindfunclet$?ReadIniFile@CDlgToolbar@@IAEXH@Z$20
	DD	0bH
	DD	FLAT:__unwindfunclet$?ReadIniFile@CDlgToolbar@@IAEXH@Z$21
	DD	0bH
	DD	FLAT:__unwindfunclet$?ReadIniFile@CDlgToolbar@@IAEXH@Z$22
xdata$x	ENDS
;	COMDAT xdata$x
xdata$x	SEGMENT
__unwindtable$?Serialize@?$CMap@HHV?$CStringT@DV?$StrTraitMFC_DLL@DV?$ChTraitsCRT@D@ATL@@@@@ATL@@V12@@@UAEXAAVCArchive@@@Z DD 0ffffffffH
	DD	FLAT:__unwindfunclet$?Serialize@?$CMap@HHV?$CStringT@DV?$StrTraitMFC_DLL@DV?$ChTraitsCRT@D@ATL@@@@@ATL@@V12@@@UAEXAAVCArchive@@@Z$0
	DD	00H
	DD	FLAT:__unwindfunclet$?Serialize@?$CMap@HHV?$CStringT@DV?$StrTraitMFC_DLL@DV?$ChTraitsCRT@D@ATL@@@@@ATL@@V12@@@UAEXAAVCArchive@@@Z$2
__ehfuncinfo$?Serialize@?$CMap@HHV?$CStringT@DV?$StrTraitMFC_DLL@DV?$ChTraitsCRT@D@ATL@@@@@ATL@@V12@@@UAEXAAVCArchive@@@Z DD 019930522H
	DD	02H
	DD	FLAT:__unwindtable$?Serialize@?$CMap@HHV?$CStringT@DV?$StrTraitMFC_DLL@DV?$ChTraitsCRT@D@ATL@@@@@ATL@@V12@@@UAEXAAVCArchive@@@Z
	DD	2 DUP(00H)
	DD	2 DUP(00H)
	DD	00H
	DD	01H
xdata$x	ENDS
;	COMDAT xdata$x
xdata$x	SEGMENT
__ehfuncinfo$??1?$CMap@HHV?$CStringT@DV?$StrTraitMFC_DLL@DV?$ChTraitsCRT@D@ATL@@@@@ATL@@V12@@@UAE@XZ DD 019930522H
	DD	00H
	DD	00H
	DD	2 DUP(00H)
	DD	2 DUP(00H)
	DD	00H
	DD	05H
xdata$x	ENDS
;	COMDAT xdata$x
xdata$x	SEGMENT
__unwindtable$?SetAt@?$CMap@HHV?$CStringT@DV?$StrTraitMFC_DLL@DV?$ChTraitsCRT@D@ATL@@@@@ATL@@V12@@@QAEXHV?$CStringT@DV?$StrTraitMFC_DLL@DV?$ChTraitsCRT@D@ATL@@@@@ATL@@@Z DD 0ffffffffH
	DD	FLAT:__unwindfunclet$?SetAt@?$CMap@HHV?$CStringT@DV?$StrTraitMFC_DLL@DV?$ChTraitsCRT@D@ATL@@@@@ATL@@V12@@@QAEXHV?$CStringT@DV?$StrTraitMFC_DLL@DV?$ChTraitsCRT@D@ATL@@@@@ATL@@@Z$0
__ehfuncinfo$?SetAt@?$CMap@HHV?$CStringT@DV?$StrTraitMFC_DLL@DV?$ChTraitsCRT@D@ATL@@@@@ATL@@V12@@@QAEXHV?$CStringT@DV?$StrTraitMFC_DLL@DV?$ChTraitsCRT@D@ATL@@@@@ATL@@@Z DD 019930522H
	DD	01H
	DD	FLAT:__unwindtable$?SetAt@?$CMap@HHV?$CStringT@DV?$StrTraitMFC_DLL@DV?$ChTraitsCRT@D@ATL@@@@@ATL@@V12@@@QAEXHV?$CStringT@DV?$StrTraitMFC_DLL@DV?$ChTraitsCRT@D@ATL@@@@@ATL@@@Z
	DD	2 DUP(00H)
	DD	2 DUP(00H)
	DD	00H
	DD	01H
xdata$x	ENDS
;	COMDAT xdata$x
xdata$x	SEGMENT
__ehfuncinfo$?CreateToolButton@CDlgToolbar@@IAEHXZ DD 019930522H
	DD	0bH
	DD	FLAT:__unwindtable$?CreateToolButton@CDlgToolbar@@IAEHXZ
	DD	2 DUP(00H)
	DD	2 DUP(00H)
	DD	00H
	DD	01H
__unwindtable$?CreateToolButton@CDlgToolbar@@IAEHXZ DD 0ffffffffH
	DD	FLAT:__unwindfunclet$?CreateToolButton@CDlgToolbar@@IAEHXZ$0
	DD	00H
	DD	FLAT:__unwindfunclet$?CreateToolButton@CDlgToolbar@@IAEHXZ$1
	DD	01H
	DD	FLAT:__unwindfunclet$?CreateToolButton@CDlgToolbar@@IAEHXZ$2
	DD	02H
	DD	FLAT:__unwindfunclet$?CreateToolButton@CDlgToolbar@@IAEHXZ$3
	DD	03H
	DD	FLAT:__unwindfunclet$?CreateToolButton@CDlgToolbar@@IAEHXZ$4
	DD	03H
	DD	FLAT:__unwindfunclet$?CreateToolButton@CDlgToolbar@@IAEHXZ$5
	DD	03H
	DD	FLAT:__unwindfunclet$?CreateToolButton@CDlgToolbar@@IAEHXZ$6
	DD	03H
	DD	FLAT:__unwindfunclet$?CreateToolButton@CDlgToolbar@@IAEHXZ$7
	DD	07H
	DD	FLAT:__unwindfunclet$?CreateToolButton@CDlgToolbar@@IAEHXZ$8
	DD	08H
	DD	FLAT:__unwindfunclet$?CreateToolButton@CDlgToolbar@@IAEHXZ$9
	DD	08H
	DD	FLAT:__unwindfunclet$?CreateToolButton@CDlgToolbar@@IAEHXZ$12
xdata$x	ENDS
;	COMDAT xdata$x
xdata$x	SEGMENT
__unwindtable$?GetToolNameMap@CDlgToolbar@@QAEHAAV?$CMap@HHV?$CStringT@DV?$StrTraitMFC_DLL@DV?$ChTraitsCRT@D@ATL@@@@@ATL@@V12@@@@Z DD 0ffffffffH
	DD	FLAT:__unwindfunclet$?GetToolNameMap@CDlgToolbar@@QAEHAAV?$CMap@HHV?$CStringT@DV?$StrTraitMFC_DLL@DV?$ChTraitsCRT@D@ATL@@@@@ATL@@V12@@@@Z$0
	DD	00H
	DD	FLAT:__unwindfunclet$?GetToolNameMap@CDlgToolbar@@QAEHAAV?$CMap@HHV?$CStringT@DV?$StrTraitMFC_DLL@DV?$ChTraitsCRT@D@ATL@@@@@ATL@@V12@@@@Z$2
__ehfuncinfo$?GetToolNameMap@CDlgToolbar@@QAEHAAV?$CMap@HHV?$CStringT@DV?$StrTraitMFC_DLL@DV?$ChTraitsCRT@D@ATL@@@@@ATL@@V12@@@@Z DD 019930522H
	DD	02H
	DD	FLAT:__unwindtable$?GetToolNameMap@CDlgToolbar@@QAEHAAV?$CMap@HHV?$CStringT@DV?$StrTraitMFC_DLL@DV?$ChTraitsCRT@D@ATL@@@@@ATL@@V12@@@@Z
	DD	2 DUP(00H)
	DD	2 DUP(00H)
	DD	00H
	DD	01H
xdata$x	ENDS
;	COMDAT xdata$x
xdata$x	SEGMENT
__ehfuncinfo$??1CDlgToolbar@@UAE@XZ DD 019930522H
	DD	00H
	DD	00H
	DD	2 DUP(00H)
	DD	2 DUP(00H)
	DD	00H
	DD	05H
xdata$x	ENDS
;	COMDAT xdata$x
xdata$x	SEGMENT
__ehfuncinfo$??0CDlgToolbar@@QAE@PAVCWnd@@@Z DD 019930522H
	DD	08H
	DD	FLAT:__unwindtable$??0CDlgToolbar@@QAE@PAVCWnd@@@Z
	DD	2 DUP(00H)
	DD	2 DUP(00H)
	DD	00H
	DD	01H
__unwindtable$??0CDlgToolbar@@QAE@PAVCWnd@@@Z DD 0ffffffffH
	DD	FLAT:__unwindfunclet$??0CDlgToolbar@@QAE@PAVCWnd@@@Z$0
	DD	00H
	DD	FLAT:__unwindfunclet$??0CDlgToolbar@@QAE@PAVCWnd@@@Z$1
	DD	01H
	DD	FLAT:__unwindfunclet$??0CDlgToolbar@@QAE@PAVCWnd@@@Z$2
	DD	02H
	DD	FLAT:__unwindfunclet$??0CDlgToolbar@@QAE@PAVCWnd@@@Z$3
	DD	03H
	DD	FLAT:__unwindfunclet$??0CDlgToolbar@@QAE@PAVCWnd@@@Z$4
	DD	04H
	DD	FLAT:__unwindfunclet$??0CDlgToolbar@@QAE@PAVCWnd@@@Z$5
	DD	05H
	DD	FLAT:__unwindfunclet$??0CDlgToolbar@@QAE@PAVCWnd@@@Z$6
	DD	06H
	DD	FLAT:__unwindfunclet$??0CDlgToolbar@@QAE@PAVCWnd@@@Z$7
xdata$x	ENDS
;	COMDAT xdata$x
xdata$x	SEGMENT
__catchsym$??1CGdiObject@@UAE@XZ$3 DD 00H
	DD	FLAT:??_R0PAVCException@@@8
	DD	0fffffde4H
	DD	FLAT:__catch$??1CGdiObject@@UAE@XZ$0
__tryblocktable$??1CGdiObject@@UAE@XZ DD 00H
	DD	00H
	DD	02H
	DD	01H
	DD	FLAT:__catchsym$??1CGdiObject@@UAE@XZ$3
__unwindtable$??1CGdiObject@@UAE@XZ DD 0ffffffffH
	DD	00H
	DD	0ffffffffH
	DD	00H
	DD	01H
	DD	FLAT:__unwindfunclet$??1CGdiObject@@UAE@XZ$2
__ehfuncinfo$??1CGdiObject@@UAE@XZ DD 019930522H
	DD	03H
	DD	FLAT:__unwindtable$??1CGdiObject@@UAE@XZ
	DD	01H
	DD	FLAT:__tryblocktable$??1CGdiObject@@UAE@XZ
	DD	2 DUP(00H)
	DD	00H
	DD	05H
xdata$x	ENDS
;	COMDAT xdata$x
xdata$x	SEGMENT
__unwindtable$??HATL@@YA?AV?$CStringT@DV?$StrTraitMFC_DLL@DV?$ChTraitsCRT@D@ATL@@@@@0@ABV10@PBD@Z DD 0ffffffffH
	DD	FLAT:__unwindfunclet$??HATL@@YA?AV?$CStringT@DV?$StrTraitMFC_DLL@DV?$ChTraitsCRT@D@ATL@@@@@0@ABV10@PBD@Z$0
__ehfuncinfo$??HATL@@YA?AV?$CStringT@DV?$StrTraitMFC_DLL@DV?$ChTraitsCRT@D@ATL@@@@@0@ABV10@PBD@Z DD 019930522H
	DD	01H
	DD	FLAT:__unwindtable$??HATL@@YA?AV?$CStringT@DV?$StrTraitMFC_DLL@DV?$ChTraitsCRT@D@ATL@@@@@0@ABV10@PBD@Z
	DD	2 DUP(00H)
	DD	2 DUP(00H)
	DD	00H
	DD	01H
xdata$x	ENDS
CRT$XCU	SEGMENT
?RMSG_GETSIGNAL_REAL$initializer$@@3P6AXXZA DD FLAT:??__ERMSG_GETSIGNAL_REAL@@YAXXZ ; RMSG_GETSIGNAL_REAL$initializer$
CRT$XCU	ENDS
CRT$XCU	SEGMENT
?RMSG_SETQUERYOPT$initializer$@@3P6AXXZA DD FLAT:??__ERMSG_SETQUERYOPT@@YAXXZ ; RMSG_SETQUERYOPT$initializer$
CRT$XCU	ENDS
CRT$XCU	SEGMENT
?RMSG_CHARTMAIN$initializer$@@3P6AXXZA DD FLAT:??__ERMSG_CHARTMAIN@@YAXXZ ; RMSG_CHARTMAIN$initializer$
CRT$XCU	ENDS
CRT$XCU	SEGMENT
?RMS_ANALYSIS_FUNC$initializer$@@3P6AXXZA DD FLAT:??__ERMS_ANALYSIS_FUNC@@YAXXZ ; RMS_ANALYSIS_FUNC$initializer$
CRT$XCU	ENDS
CRT$XCU	SEGMENT
?RMSG_GET_USERID$initializer$@@3P6AXXZA DD FLAT:??__ERMSG_GET_USERID@@YAXXZ ; RMSG_GET_USERID$initializer$
CRT$XCU	ENDS
CRT$XCU	SEGMENT
?RMSG_CHANGE_SKINCOLOR$initializer$@@3P6AXXZA DD FLAT:??__ERMSG_CHANGE_SKINCOLOR@@YAXXZ ; RMSG_CHANGE_SKINCOLOR$initializer$
CRT$XCU	ENDS
CRT$XCU	SEGMENT
?RMSG_GET_SKINCOLOR$initializer$@@3P6AXXZA DD FLAT:??__ERMSG_GET_SKINCOLOR@@YAXXZ ; RMSG_GET_SKINCOLOR$initializer$
CRT$XCU	ENDS
CRT$XCU	SEGMENT
?RMSG_CHANGEVERTSCALETYPE$initializer$@@3P6AXXZA DD FLAT:??__ERMSG_CHANGEVERTSCALETYPE@@YAXXZ ; RMSG_CHANGEVERTSCALETYPE$initializer$
CRT$XCU	ENDS
CRT$XCU	SEGMENT
?RMSG_CHANGE_CROSSLINE$initializer$@@3P6AXXZA DD FLAT:??__ERMSG_CHANGE_CROSSLINE@@YAXXZ ; RMSG_CHANGE_CROSSLINE$initializer$
CRT$XCU	ENDS
CRT$XCU	SEGMENT
?RMSG_ADD_PLATFORM_MENU$initializer$@@3P6AXXZA DD FLAT:??__ERMSG_ADD_PLATFORM_MENU@@YAXXZ ; RMSG_ADD_PLATFORM_MENU$initializer$
CRT$XCU	ENDS
CRT$XCU	SEGMENT
?RMSG_SETINITIALCHARTDATA$initializer$@@3P6AXXZA DD FLAT:??__ERMSG_SETINITIALCHARTDATA@@YAXXZ ; RMSG_SETINITIALCHARTDATA$initializer$
CRT$XCU	ENDS
CRT$XCU	SEGMENT
?RMSG_GETINFO$initializer$@@3P6AXXZA DD FLAT:??__ERMSG_GETINFO@@YAXXZ ; RMSG_GETINFO$initializer$
CRT$XCU	ENDS
CRT$XCU	SEGMENT
?RMSG_SETINFO$initializer$@@3P6AXXZA DD FLAT:??__ERMSG_SETINFO@@YAXXZ ; RMSG_SETINFO$initializer$
CRT$XCU	ENDS
CRT$XCU	SEGMENT
?RMSG_REPLAY_REAL$initializer$@@3P6AXXZA DD FLAT:??__ERMSG_REPLAY_REAL@@YAXXZ ; RMSG_REPLAY_REAL$initializer$
CRT$XCU	ENDS
CRT$XCU	SEGMENT
?RMSG_REPLAY_FAIL$initializer$@@3P6AXXZA DD FLAT:??__ERMSG_REPLAY_FAIL@@YAXXZ ; RMSG_REPLAY_FAIL$initializer$
CRT$XCU	ENDS
CRT$XCU	SEGMENT
?RMSG_REPLAY_CHANGE_DATE$initializer$@@3P6AXXZA DD FLAT:??__ERMSG_REPLAY_CHANGE_DATE@@YAXXZ ; RMSG_REPLAY_CHANGE_DATE$initializer$
CRT$XCU	ENDS
CRT$XCU	SEGMENT
?RMSG_REPLAY_END$initializer$@@3P6AXXZA DD FLAT:??__ERMSG_REPLAY_END@@YAXXZ ; RMSG_REPLAY_END$initializer$
CRT$XCU	ENDS
CRT$XCU	SEGMENT
?RMSG_REPLAY_INC_SEC$initializer$@@3P6AXXZA DD FLAT:??__ERMSG_REPLAY_INC_SEC@@YAXXZ ; RMSG_REPLAY_INC_SEC$initializer$
CRT$XCU	ENDS
CRT$XCU	SEGMENT
?RMSG_REPLAY_TOTAL_SEC$initializer$@@3P6AXXZA DD FLAT:??__ERMSG_REPLAY_TOTAL_SEC@@YAXXZ ; RMSG_REPLAY_TOTAL_SEC$initializer$
CRT$XCU	ENDS
; Function compile flags: /Ogtp
; File C:\Program Files (x86)\Microsoft Visual Studio\2019\Community\VC\Tools\MSVC\14.29.30133\atlmfc\include\afxtempl.h
;	COMDAT ??$CompareElements@HH@@YGHPBH0@Z
_TEXT	SEGMENT
_pElement1$ = 8						; size = 4
_pElement2$ = 12					; size = 4
??$CompareElements@HH@@YGHPBH0@Z PROC			; CompareElements<int,int>, COMDAT

; 151  : {

  00000	55		 push	 ebp
  00001	8b ec		 mov	 ebp, esp

; 152  : 	ENSURE(pElement1 != NULL && pElement2 != NULL);

  00003	8b 4d 08	 mov	 ecx, DWORD PTR _pElement1$[ebp]
  00006	85 c9		 test	 ecx, ecx
  00008	74 14		 je	 SHORT $LN7@CompareEle
  0000a	8b 55 0c	 mov	 edx, DWORD PTR _pElement2$[ebp]
  0000d	85 d2		 test	 edx, edx
  0000f	74 0d		 je	 SHORT $LN7@CompareEle

; 153  : 	ASSERT(AfxIsValidAddress(pElement1, sizeof(TYPE), FALSE));
; 154  : 	ASSERT(AfxIsValidAddress(pElement2, sizeof(ARG_TYPE), FALSE));
; 155  : 
; 156  : 	return *pElement1 == *pElement2;

  00011	8b 09		 mov	 ecx, DWORD PTR [ecx]
  00013	33 c0		 xor	 eax, eax
  00015	3b 0a		 cmp	 ecx, DWORD PTR [edx]
  00017	0f 94 c0	 sete	 al

; 157  : }

  0001a	5d		 pop	 ebp
  0001b	c2 08 00	 ret	 8
$LN7@CompareEle:

; 152  : 	ENSURE(pElement1 != NULL && pElement2 != NULL);

  0001e	e8 00 00 00 00	 call	 ?AfxThrowInvalidArgException@@YGXXZ ; AfxThrowInvalidArgException
$LN10@CompareEle:
  00023	cc		 int	 3
??$CompareElements@HH@@YGHPBH0@Z ENDP			; CompareElements<int,int>
_TEXT	ENDS
; Function compile flags: /Ogtp
; File C:\Program Files (x86)\Microsoft Visual Studio\2019\Community\VC\Tools\MSVC\14.29.30133\atlmfc\include\afxtempl.h
; File C:\Program Files (x86)\Microsoft Visual Studio\2019\Community\VC\Tools\MSVC\14.29.30133\atlmfc\include\afx.inl
; File C:\Program Files (x86)\Microsoft Visual Studio\2019\Community\VC\Tools\MSVC\14.29.30133\atlmfc\include\afxtempl.h
; File C:\Program Files (x86)\Microsoft Visual Studio\2019\Community\VC\Tools\MSVC\14.29.30133\atlmfc\include\afx.inl
; File C:\Program Files (x86)\Microsoft Visual Studio\2019\Community\VC\Tools\MSVC\14.29.30133\atlmfc\include\afxtempl.h
; File C:\Program Files (x86)\Microsoft Visual Studio\2019\Community\VC\Tools\MSVC\14.29.30133\atlmfc\include\afx.inl
; File C:\Program Files (x86)\Microsoft Visual Studio\2019\Community\VC\Tools\MSVC\14.29.30133\atlmfc\include\afxtempl.h
;	COMDAT ??$SerializeElements@H@@YGXAAVCArchive@@PAHH@Z
_TEXT	SEGMENT
_ar$ = 8						; size = 4
_pElements$ = 12					; size = 4
_nCount$ = 16						; size = 4
??$SerializeElements@H@@YGXAAVCArchive@@PAHH@Z PROC	; SerializeElements<int>, COMDAT

; 67   : {

  00000	55		 push	 ebp
  00001	8b ec		 mov	 ebp, esp

; 68   : 	ENSURE(nCount == 0 || pElements != NULL);

  00003	8b 4d 0c	 mov	 ecx, DWORD PTR _pElements$[ebp]
  00006	53		 push	 ebx
  00007	56		 push	 esi
  00008	8b 75 10	 mov	 esi, DWORD PTR _nCount$[ebp]
  0000b	57		 push	 edi
  0000c	85 f6		 test	 esi, esi
  0000e	74 08		 je	 SHORT $LN2@SerializeE
  00010	85 c9		 test	 ecx, ecx
  00012	0f 84 89 00 00
	00		 je	 $LN34@SerializeE
$LN2@SerializeE:
; File C:\Program Files (x86)\Microsoft Visual Studio\2019\Community\VC\Tools\MSVC\14.29.30133\atlmfc\include\afx.inl

; 212  : 	{ return (m_nMode & CArchive::load) == 0; }

  00018	8b 55 08	 mov	 edx, DWORD PTR _ar$[ebp]
  0001b	8b 42 18	 mov	 eax, DWORD PTR [edx+24]
  0001e	f7 d0		 not	 eax
  00020	a8 01		 test	 al, 1
; File C:\Program Files (x86)\Microsoft Visual Studio\2019\Community\VC\Tools\MSVC\14.29.30133\atlmfc\include\afxtempl.h

; 73   : 	if (ar.IsStoring())

  00022	74 3c		 je	 SHORT $LN10@SerializeE

; 74   : 	{
; 75   : 		TYPE* pData;
; 76   : 		UINT_PTR nElementsLeft;
; 77   : 
; 78   : 		nElementsLeft = nCount;
; 79   : 		pData = pElements;
; 80   : 		while( nElementsLeft > 0 )

  00024	85 f6		 test	 esi, esi
  00026	74 31		 je	 SHORT $LN8@SerializeE
  00028	0f 1f 84 00 00
	00 00 00	 npad	 8
$LL5@SerializeE:

; 81   : 		{
; 82   : 			UINT nElementsToWrite;
; 83   : 
; 84   : 			nElementsToWrite = UINT(__min(nElementsLeft, INT_MAX/sizeof(TYPE)));

  00030	bb ff ff ff 1f	 mov	 ebx, 536870911		; 1fffffffH
  00035	3b f3		 cmp	 esi, ebx
  00037	0f 42 de	 cmovb	 ebx, esi

; 85   : 			ar.Write(pData, nElementsToWrite*sizeof(TYPE));

  0003a	8d 3c 9d 00 00
	00 00		 lea	 edi, DWORD PTR [ebx*4]
  00041	57		 push	 edi
  00042	51		 push	 ecx
  00043	8b ca		 mov	 ecx, edx
  00045	e8 00 00 00 00	 call	 ?Write@CArchive@@QAEXPBXI@Z ; CArchive::Write

; 86   : 			nElementsLeft -= nElementsToWrite;
; 87   : 			pData += nElementsToWrite;

  0004a	8b 4d 0c	 mov	 ecx, DWORD PTR _pElements$[ebp]
  0004d	8b 55 08	 mov	 edx, DWORD PTR _ar$[ebp]
  00050	03 cf		 add	 ecx, edi
  00052	89 4d 0c	 mov	 DWORD PTR _pElements$[ebp], ecx
  00055	2b f3		 sub	 esi, ebx
  00057	75 d7		 jne	 SHORT $LL5@SerializeE
$LN8@SerializeE:
  00059	5f		 pop	 edi

; 105  : 		}
; 106  : 	}
; 107  : }

  0005a	5e		 pop	 esi
  0005b	5b		 pop	 ebx
  0005c	5d		 pop	 ebp
  0005d	c2 0c 00	 ret	 12			; 0000000cH
$LN10@SerializeE:

; 97   : 		while( nElementsLeft > 0 )

  00060	85 f6		 test	 esi, esi
  00062	74 f5		 je	 SHORT $LN8@SerializeE
$LL7@SerializeE:

; 98   : 		{
; 99   : 			UINT nElementsToRead;
; 100  : 
; 101  : 			nElementsToRead = UINT(__min(nElementsLeft, INT_MAX/sizeof(TYPE)));

  00064	bf ff ff ff 1f	 mov	 edi, 536870911		; 1fffffffH
  00069	3b f7		 cmp	 esi, edi
  0006b	0f 42 fe	 cmovb	 edi, esi

; 102  : 			ar.EnsureRead(pData, nElementsToRead*sizeof(TYPE));

  0006e	8d 1c bd 00 00
	00 00		 lea	 ebx, DWORD PTR [edi*4]
; File C:\Program Files (x86)\Microsoft Visual Studio\2019\Community\VC\Tools\MSVC\14.29.30133\atlmfc\include\afx.inl

; 399  : 	UINT nRead=Read(lpBuf, nCount);

  00075	53		 push	 ebx
  00076	51		 push	 ecx
  00077	8b ca		 mov	 ecx, edx
  00079	e8 00 00 00 00	 call	 ?Read@CArchive@@QAEIPAXI@Z ; CArchive::Read

; 400  : 	if(nRead!=nCount)

  0007e	3b c3		 cmp	 eax, ebx
  00080	75 16		 jne	 SHORT $LN23@SerializeE
; File C:\Program Files (x86)\Microsoft Visual Studio\2019\Community\VC\Tools\MSVC\14.29.30133\atlmfc\include\afxtempl.h

; 97   : 		while( nElementsLeft > 0 )

  00082	8b 4d 0c	 mov	 ecx, DWORD PTR _pElements$[ebp]
  00085	8b 55 08	 mov	 edx, DWORD PTR _ar$[ebp]

; 103  : 			nElementsLeft -= nElementsToRead;
; 104  : 			pData += nElementsToRead;

  00088	03 cb		 add	 ecx, ebx
  0008a	89 4d 0c	 mov	 DWORD PTR _pElements$[ebp], ecx
  0008d	2b f7		 sub	 esi, edi
  0008f	75 d3		 jne	 SHORT $LL7@SerializeE

; 105  : 		}
; 106  : 	}
; 107  : }

  00091	5f		 pop	 edi
  00092	5e		 pop	 esi
  00093	5b		 pop	 ebx
  00094	5d		 pop	 ebp
  00095	c2 0c 00	 ret	 12			; 0000000cH
$LN23@SerializeE:
; File C:\Program Files (x86)\Microsoft Visual Studio\2019\Community\VC\Tools\MSVC\14.29.30133\atlmfc\include\afx.inl

; 402  : 		AfxThrowArchiveException(CArchiveException::endOfFile);

  00098	6a 00		 push	 0
  0009a	6a 03		 push	 3
  0009c	e8 00 00 00 00	 call	 ?AfxThrowArchiveException@@YGXHPBD@Z ; AfxThrowArchiveException
$LN34@SerializeE:
; File C:\Program Files (x86)\Microsoft Visual Studio\2019\Community\VC\Tools\MSVC\14.29.30133\atlmfc\include\afxtempl.h

; 68   : 	ENSURE(nCount == 0 || pElements != NULL);

  000a1	e8 00 00 00 00	 call	 ?AfxThrowInvalidArgException@@YGXXZ ; AfxThrowInvalidArgException
$LN32@SerializeE:
  000a6	cc		 int	 3
??$SerializeElements@H@@YGXAAVCArchive@@PAHH@Z ENDP	; SerializeElements<int>
_TEXT	ENDS
; Function compile flags: /Ogtp
; File C:\Program Files (x86)\Microsoft Visual Studio\2019\Community\VC\Tools\MSVC\14.29.30133\atlmfc\include\atlcomcli.h
;	COMDAT ??_Estringdispid@CComTypeInfoHolder@ATL@@QAEPAXI@Z
_TEXT	SEGMENT
__$EHRec$ = -12						; size = 12
___flags$ = 8						; size = 4
??_Estringdispid@CComTypeInfoHolder@ATL@@QAEPAXI@Z PROC	; ATL::CComTypeInfoHolder::stringdispid::`vector deleting destructor', COMDAT
; _this$ = ecx
  00000	55		 push	 ebp
  00001	8b ec		 mov	 ebp, esp
  00003	6a ff		 push	 -1
  00005	68 00 00 00 00	 push	 __ehhandler$??_Estringdispid@CComTypeInfoHolder@ATL@@QAEPAXI@Z
  0000a	64 a1 00 00 00
	00		 mov	 eax, DWORD PTR fs:0
  00010	50		 push	 eax
  00011	53		 push	 ebx
  00012	56		 push	 esi
  00013	57		 push	 edi
  00014	a1 00 00 00 00	 mov	 eax, DWORD PTR ___security_cookie
  00019	33 c5		 xor	 eax, ebp
  0001b	50		 push	 eax
  0001c	8d 45 f4	 lea	 eax, DWORD PTR __$EHRec$[ebp]
  0001f	64 a3 00 00 00
	00		 mov	 DWORD PTR fs:0, eax
  00025	8b f1		 mov	 esi, ecx
  00027	8b 45 08	 mov	 eax, DWORD PTR ___flags$[ebp]
  0002a	8b d8		 mov	 ebx, eax
  0002c	83 e3 01	 and	 ebx, 1
  0002f	a8 02		 test	 al, 2
  00031	74 43		 je	 SHORT $LN2@vector
  00033	68 00 00 00 00	 push	 OFFSET ??1stringdispid@CComTypeInfoHolder@ATL@@QAE@XZ
  00038	ff 76 fc	 push	 DWORD PTR [esi-4]
  0003b	8d 7e fc	 lea	 edi, DWORD PTR [esi-4]
  0003e	6a 0c		 push	 12			; 0000000cH
  00040	56		 push	 esi
  00041	e8 00 00 00 00	 call	 ??_M@YGXPAXIIP6EX0@Z@Z
  00046	85 db		 test	 ebx, ebx
  00048	74 16		 je	 SHORT $LN3@vector
  0004a	8b 0f		 mov	 ecx, DWORD PTR [edi]
  0004c	8d 0c 49	 lea	 ecx, DWORD PTR [ecx+ecx*2]
  0004f	8d 0c 8d 04 00
	00 00		 lea	 ecx, DWORD PTR [ecx*4+4]
  00056	51		 push	 ecx
  00057	57		 push	 edi
  00058	e8 00 00 00 00	 call	 ??_V@YAXPAXI@Z		; operator delete[]
  0005d	83 c4 08	 add	 esp, 8
$LN3@vector:
  00060	8b c7		 mov	 eax, edi
  00062	8b 4d f4	 mov	 ecx, DWORD PTR __$EHRec$[ebp]
  00065	64 89 0d 00 00
	00 00		 mov	 DWORD PTR fs:0, ecx
  0006c	59		 pop	 ecx
  0006d	5f		 pop	 edi
  0006e	5e		 pop	 esi
  0006f	5b		 pop	 ebx
  00070	8b e5		 mov	 esp, ebp
  00072	5d		 pop	 ebp
  00073	c2 04 00	 ret	 4
$LN2@vector:

; 1680 :     ::SysFreeString(m_str);

  00076	ff 36		 push	 DWORD PTR [esi]
  00078	ff 15 00 00 00
	00		 call	 DWORD PTR __imp__SysFreeString@4
  0007e	85 db		 test	 ebx, ebx
  00080	74 0b		 je	 SHORT $LN4@vector
  00082	6a 0c		 push	 12			; 0000000cH
  00084	56		 push	 esi
  00085	e8 00 00 00 00	 call	 ??3@YAXPAXI@Z		; operator delete
  0008a	83 c4 08	 add	 esp, 8
$LN4@vector:
  0008d	8b c6		 mov	 eax, esi
  0008f	8b 4d f4	 mov	 ecx, DWORD PTR __$EHRec$[ebp]
  00092	64 89 0d 00 00
	00 00		 mov	 DWORD PTR fs:0, ecx
  00099	59		 pop	 ecx
  0009a	5f		 pop	 edi
  0009b	5e		 pop	 esi
  0009c	5b		 pop	 ebx
  0009d	8b e5		 mov	 esp, ebp
  0009f	5d		 pop	 ebp
  000a0	c2 04 00	 ret	 4
  000a3	cc		 int	 3
  000a4	cc		 int	 3
  000a5	cc		 int	 3
  000a6	cc		 int	 3
  000a7	cc		 int	 3
_TEXT	ENDS
;	COMDAT text$x
text$x	SEGMENT
__ehhandler$??_Estringdispid@CComTypeInfoHolder@ATL@@QAEPAXI@Z:
  00000	90		 npad	 1
  00001	90		 npad	 1
  00002	8b 54 24 08	 mov	 edx, DWORD PTR [esp+8]
  00006	8d 42 0c	 lea	 eax, DWORD PTR [edx+12]
  00009	8b 4a f0	 mov	 ecx, DWORD PTR [edx-16]
  0000c	33 c8		 xor	 ecx, eax
  0000e	e8 00 00 00 00	 call	 @__security_check_cookie@4
  00013	b8 00 00 00 00	 mov	 eax, OFFSET __ehfuncinfo$??_Estringdispid@CComTypeInfoHolder@ATL@@QAEPAXI@Z
  00018	e9 00 00 00 00	 jmp	 ___CxxFrameHandler3
text$x	ENDS
??_Estringdispid@CComTypeInfoHolder@ATL@@QAEPAXI@Z ENDP	; ATL::CComTypeInfoHolder::stringdispid::`vector deleting destructor'
; Function compile flags: /Ogtp
; File C:\Program Files (x86)\Microsoft Visual Studio\2019\Community\VC\Tools\MSVC\14.29.30133\atlmfc\include\atlcomcli.h
;	COMDAT ??1stringdispid@CComTypeInfoHolder@ATL@@QAE@XZ
_TEXT	SEGMENT
??1stringdispid@CComTypeInfoHolder@ATL@@QAE@XZ PROC	; ATL::CComTypeInfoHolder::stringdispid::~stringdispid, COMDAT
; _this$ = ecx

; 1680 :     ::SysFreeString(m_str);

  00000	ff 31		 push	 DWORD PTR [ecx]
  00002	ff 15 00 00 00
	00		 call	 DWORD PTR __imp__SysFreeString@4
  00008	c3		 ret	 0
??1stringdispid@CComTypeInfoHolder@ATL@@QAE@XZ ENDP	; ATL::CComTypeInfoHolder::stringdispid::~stringdispid
_TEXT	ENDS
; Function compile flags: /Ogtp
; File D:\git\src\IBK\IBK_DRFN\ProjSrc\SrcDrfn\Chart\chart_common\ReplayChartInfoDef.h
;	COMDAT ??__ERMSG_REPLAY_TOTAL_SEC@@YAXXZ
text$di	SEGMENT
??__ERMSG_REPLAY_TOTAL_SEC@@YAXXZ PROC			; `dynamic initializer for 'RMSG_REPLAY_TOTAL_SEC'', COMDAT

; 97   : 	const UINT RMSG_REPLAY_TOTAL_SEC = ::RegisterWindowMessage(_T("RMSG_REPLAY_TOTAL_SEC"));		//  () 

  00000	68 00 00 00 00	 push	 OFFSET ??_C@_0BG@GIAJEIJF@RMSG_REPLAY_TOTAL_SEC@
  00005	ff 15 00 00 00
	00		 call	 DWORD PTR __imp__RegisterWindowMessageA@4
  0000b	a3 00 00 00 00	 mov	 DWORD PTR ?RMSG_REPLAY_TOTAL_SEC@@3IB, eax
  00010	c3		 ret	 0
??__ERMSG_REPLAY_TOTAL_SEC@@YAXXZ ENDP			; `dynamic initializer for 'RMSG_REPLAY_TOTAL_SEC''
text$di	ENDS
; Function compile flags: /Ogtp
; File D:\git\src\IBK\IBK_DRFN\ProjSrc\SrcDrfn\Chart\chart_common\ReplayChartInfoDef.h
;	COMDAT ??__ERMSG_REPLAY_INC_SEC@@YAXXZ
text$di	SEGMENT
??__ERMSG_REPLAY_INC_SEC@@YAXXZ PROC			; `dynamic initializer for 'RMSG_REPLAY_INC_SEC'', COMDAT

; 96   : 	const UINT RMSG_REPLAY_INC_SEC = ::RegisterWindowMessage(_T("RMSG_REPLAY_INC_SEC"));			// 1   

  00000	68 00 00 00 00	 push	 OFFSET ??_C@_0BE@JFCIMCIP@RMSG_REPLAY_INC_SEC@
  00005	ff 15 00 00 00
	00		 call	 DWORD PTR __imp__RegisterWindowMessageA@4
  0000b	a3 00 00 00 00	 mov	 DWORD PTR ?RMSG_REPLAY_INC_SEC@@3IB, eax
  00010	c3		 ret	 0
??__ERMSG_REPLAY_INC_SEC@@YAXXZ ENDP			; `dynamic initializer for 'RMSG_REPLAY_INC_SEC''
text$di	ENDS
; Function compile flags: /Ogtp
; File D:\git\src\IBK\IBK_DRFN\ProjSrc\SrcDrfn\Chart\chart_common\ReplayChartInfoDef.h
;	COMDAT ??__ERMSG_REPLAY_END@@YAXXZ
text$di	SEGMENT
??__ERMSG_REPLAY_END@@YAXXZ PROC			; `dynamic initializer for 'RMSG_REPLAY_END'', COMDAT

; 95   : 	const UINT RMSG_REPLAY_END			= ::RegisterWindowMessage(_T("RMSG_REPLAY_END"));

  00000	68 00 00 00 00	 push	 OFFSET ??_C@_0BA@NKHHCPON@RMSG_REPLAY_END@
  00005	ff 15 00 00 00
	00		 call	 DWORD PTR __imp__RegisterWindowMessageA@4
  0000b	a3 00 00 00 00	 mov	 DWORD PTR ?RMSG_REPLAY_END@@3IB, eax
  00010	c3		 ret	 0
??__ERMSG_REPLAY_END@@YAXXZ ENDP			; `dynamic initializer for 'RMSG_REPLAY_END''
text$di	ENDS
; Function compile flags: /Ogtp
; File D:\git\src\IBK\IBK_DRFN\ProjSrc\SrcDrfn\Chart\chart_common\ReplayChartInfoDef.h
;	COMDAT ??__ERMSG_REPLAY_CHANGE_DATE@@YAXXZ
text$di	SEGMENT
??__ERMSG_REPLAY_CHANGE_DATE@@YAXXZ PROC		; `dynamic initializer for 'RMSG_REPLAY_CHANGE_DATE'', COMDAT

; 94   : 	const UINT RMSG_REPLAY_CHANGE_DATE	= ::RegisterWindowMessage(_T("RMSG_REPLAY_CHANGE_DATE"));

  00000	68 00 00 00 00	 push	 OFFSET ??_C@_0BI@KDGAIIMD@RMSG_REPLAY_CHANGE_DATE@
  00005	ff 15 00 00 00
	00		 call	 DWORD PTR __imp__RegisterWindowMessageA@4
  0000b	a3 00 00 00 00	 mov	 DWORD PTR ?RMSG_REPLAY_CHANGE_DATE@@3IB, eax
  00010	c3		 ret	 0
??__ERMSG_REPLAY_CHANGE_DATE@@YAXXZ ENDP		; `dynamic initializer for 'RMSG_REPLAY_CHANGE_DATE''
text$di	ENDS
; Function compile flags: /Ogtp
; File D:\git\src\IBK\IBK_DRFN\ProjSrc\SrcDrfn\Chart\chart_common\ReplayChartInfoDef.h
;	COMDAT ??__ERMSG_REPLAY_FAIL@@YAXXZ
text$di	SEGMENT
??__ERMSG_REPLAY_FAIL@@YAXXZ PROC			; `dynamic initializer for 'RMSG_REPLAY_FAIL'', COMDAT

; 93   : 	const UINT RMSG_REPLAY_FAIL			= ::RegisterWindowMessage(_T("RMSG_REPLAY_FAIL"));

  00000	68 00 00 00 00	 push	 OFFSET ??_C@_0BB@JFLGBADG@RMSG_REPLAY_FAIL@
  00005	ff 15 00 00 00
	00		 call	 DWORD PTR __imp__RegisterWindowMessageA@4
  0000b	a3 00 00 00 00	 mov	 DWORD PTR ?RMSG_REPLAY_FAIL@@3IB, eax
  00010	c3		 ret	 0
??__ERMSG_REPLAY_FAIL@@YAXXZ ENDP			; `dynamic initializer for 'RMSG_REPLAY_FAIL''
text$di	ENDS
; Function compile flags: /Ogtp
; File D:\git\src\IBK\IBK_DRFN\ProjSrc\SrcDrfn\Chart\chart_common\ReplayChartInfoDef.h
;	COMDAT ??__ERMSG_REPLAY_REAL@@YAXXZ
text$di	SEGMENT
??__ERMSG_REPLAY_REAL@@YAXXZ PROC			; `dynamic initializer for 'RMSG_REPLAY_REAL'', COMDAT

; 92   : 	const UINT RMSG_REPLAY_REAL			= ::RegisterWindowMessage(_T("RMSG_REPLAY_REAL"));

  00000	68 00 00 00 00	 push	 OFFSET ??_C@_0BB@IBKHOHJL@RMSG_REPLAY_REAL@
  00005	ff 15 00 00 00
	00		 call	 DWORD PTR __imp__RegisterWindowMessageA@4
  0000b	a3 00 00 00 00	 mov	 DWORD PTR ?RMSG_REPLAY_REAL@@3IB, eax
  00010	c3		 ret	 0
??__ERMSG_REPLAY_REAL@@YAXXZ ENDP			; `dynamic initializer for 'RMSG_REPLAY_REAL''
text$di	ENDS
; Function compile flags: /Ogtp
; File D:\git\src\IBK\IBK_DRFN\ProjSrc\SrcDrfn\Chart\MULTICHART\define\ChartMsgDef.h
;	COMDAT ??__ERMSG_SETINFO@@YAXXZ
text$di	SEGMENT
??__ERMSG_SETINFO@@YAXXZ PROC				; `dynamic initializer for 'RMSG_SETINFO'', COMDAT

; 238  : const UINT RMSG_SETINFO = ::RegisterWindowMessage(_T("RMSG_SETINFO"));

  00000	68 00 00 00 00	 push	 OFFSET ??_C@_0N@HABLPHJG@RMSG_SETINFO@
  00005	ff 15 00 00 00
	00		 call	 DWORD PTR __imp__RegisterWindowMessageA@4
  0000b	a3 00 00 00 00	 mov	 DWORD PTR ?RMSG_SETINFO@@3IB, eax
  00010	c3		 ret	 0
??__ERMSG_SETINFO@@YAXXZ ENDP				; `dynamic initializer for 'RMSG_SETINFO''
text$di	ENDS
; Function compile flags: /Ogtp
; File D:\git\src\IBK\IBK_DRFN\ProjSrc\SrcDrfn\Chart\MULTICHART\define\ChartMsgDef.h
;	COMDAT ??__ERMSG_GETINFO@@YAXXZ
text$di	SEGMENT
??__ERMSG_GETINFO@@YAXXZ PROC				; `dynamic initializer for 'RMSG_GETINFO'', COMDAT

; 237  : const UINT RMSG_GETINFO = ::RegisterWindowMessage(_T("RMSG_GETINFO"));

  00000	68 00 00 00 00	 push	 OFFSET ??_C@_0N@IIOKMIEH@RMSG_GETINFO@
  00005	ff 15 00 00 00
	00		 call	 DWORD PTR __imp__RegisterWindowMessageA@4
  0000b	a3 00 00 00 00	 mov	 DWORD PTR ?RMSG_GETINFO@@3IB, eax
  00010	c3		 ret	 0
??__ERMSG_GETINFO@@YAXXZ ENDP				; `dynamic initializer for 'RMSG_GETINFO''
text$di	ENDS
; Function compile flags: /Ogtp
; File D:\git\src\IBK\IBK_DRFN\ProjSrc\SrcDrfn\Chart\MULTICHART\define\ChartMsgDef.h
;	COMDAT ??__ERMSG_SETINITIALCHARTDATA@@YAXXZ
text$di	SEGMENT
??__ERMSG_SETINITIALCHARTDATA@@YAXXZ PROC		; `dynamic initializer for 'RMSG_SETINITIALCHARTDATA'', COMDAT

; 235  : const UINT RMSG_SETINITIALCHARTDATA = ::RegisterWindowMessage(_T("RMSG_SETINITIALCHARTDATA"));

  00000	68 00 00 00 00	 push	 OFFSET ??_C@_0BJ@OGNAJHHI@RMSG_SETINITIALCHARTDATA@
  00005	ff 15 00 00 00
	00		 call	 DWORD PTR __imp__RegisterWindowMessageA@4
  0000b	a3 00 00 00 00	 mov	 DWORD PTR ?RMSG_SETINITIALCHARTDATA@@3IB, eax
  00010	c3		 ret	 0
??__ERMSG_SETINITIALCHARTDATA@@YAXXZ ENDP		; `dynamic initializer for 'RMSG_SETINITIALCHARTDATA''
text$di	ENDS
; Function compile flags: /Ogtp
; File D:\git\src\IBK\IBK_DRFN\ProjSrc\SrcDrfn\Chart\MULTICHART\define\ChartMsgDef.h
;	COMDAT ??__ERMSG_ADD_PLATFORM_MENU@@YAXXZ
text$di	SEGMENT
??__ERMSG_ADD_PLATFORM_MENU@@YAXXZ PROC			; `dynamic initializer for 'RMSG_ADD_PLATFORM_MENU'', COMDAT

; 233  : const UINT RMSG_ADD_PLATFORM_MENU = ::RegisterWindowMessage(_T("RMSG_ADD_PLATFORM_MENU"));

  00000	68 00 00 00 00	 push	 OFFSET ??_C@_0BH@IFDMIMBP@RMSG_ADD_PLATFORM_MENU@
  00005	ff 15 00 00 00
	00		 call	 DWORD PTR __imp__RegisterWindowMessageA@4
  0000b	a3 00 00 00 00	 mov	 DWORD PTR ?RMSG_ADD_PLATFORM_MENU@@3IB, eax
  00010	c3		 ret	 0
??__ERMSG_ADD_PLATFORM_MENU@@YAXXZ ENDP			; `dynamic initializer for 'RMSG_ADD_PLATFORM_MENU''
text$di	ENDS
; Function compile flags: /Ogtp
; File D:\git\src\IBK\IBK_DRFN\ProjSrc\SrcDrfn\Chart\MULTICHART\define\ChartMsgDef.h
;	COMDAT ??__ERMSG_CHANGE_CROSSLINE@@YAXXZ
text$di	SEGMENT
??__ERMSG_CHANGE_CROSSLINE@@YAXXZ PROC			; `dynamic initializer for 'RMSG_CHANGE_CROSSLINE'', COMDAT

; 231  : const UINT RMSG_CHANGE_CROSSLINE = ::RegisterWindowMessage(_T("RMSG_CHANGE_CROSSLINE"));

  00000	68 00 00 00 00	 push	 OFFSET ??_C@_0BG@LNLCJKPF@RMSG_CHANGE_CROSSLINE@
  00005	ff 15 00 00 00
	00		 call	 DWORD PTR __imp__RegisterWindowMessageA@4
  0000b	a3 00 00 00 00	 mov	 DWORD PTR ?RMSG_CHANGE_CROSSLINE@@3IB, eax
  00010	c3		 ret	 0
??__ERMSG_CHANGE_CROSSLINE@@YAXXZ ENDP			; `dynamic initializer for 'RMSG_CHANGE_CROSSLINE''
text$di	ENDS
; Function compile flags: /Ogtp
; File D:\git\src\IBK\IBK_DRFN\ProjSrc\SrcDrfn\Chart\MULTICHART\define\ChartMsgDef.h
;	COMDAT ??__ERMSG_CHANGEVERTSCALETYPE@@YAXXZ
text$di	SEGMENT
??__ERMSG_CHANGEVERTSCALETYPE@@YAXXZ PROC		; `dynamic initializer for 'RMSG_CHANGEVERTSCALETYPE'', COMDAT

; 229  : const UINT RMSG_CHANGEVERTSCALETYPE = ::RegisterWindowMessage(_T("RMSG_CHANGEVERTSCALETYPE"));

  00000	68 00 00 00 00	 push	 OFFSET ??_C@_0BJ@JLKHIBIK@RMSG_CHANGEVERTSCALETYPE@
  00005	ff 15 00 00 00
	00		 call	 DWORD PTR __imp__RegisterWindowMessageA@4
  0000b	a3 00 00 00 00	 mov	 DWORD PTR ?RMSG_CHANGEVERTSCALETYPE@@3IB, eax
  00010	c3		 ret	 0
??__ERMSG_CHANGEVERTSCALETYPE@@YAXXZ ENDP		; `dynamic initializer for 'RMSG_CHANGEVERTSCALETYPE''
text$di	ENDS
; Function compile flags: /Ogtp
; File D:\git\src\IBK\IBK_DRFN\ProjSrc\SrcDrfn\Chart\MULTICHART\define\ChartMsgDef.h
;	COMDAT ??__ERMSG_GET_SKINCOLOR@@YAXXZ
text$di	SEGMENT
??__ERMSG_GET_SKINCOLOR@@YAXXZ PROC			; `dynamic initializer for 'RMSG_GET_SKINCOLOR'', COMDAT

; 226  : const UINT RMSG_GET_SKINCOLOR = ::RegisterWindowMessage(_T("RMSG_GET_SKINCOLOR"));

  00000	68 00 00 00 00	 push	 OFFSET ??_C@_0BD@FLDNDDHK@RMSG_GET_SKINCOLOR@
  00005	ff 15 00 00 00
	00		 call	 DWORD PTR __imp__RegisterWindowMessageA@4
  0000b	a3 00 00 00 00	 mov	 DWORD PTR ?RMSG_GET_SKINCOLOR@@3IB, eax
  00010	c3		 ret	 0
??__ERMSG_GET_SKINCOLOR@@YAXXZ ENDP			; `dynamic initializer for 'RMSG_GET_SKINCOLOR''
text$di	ENDS
; Function compile flags: /Ogtp
; File D:\git\src\IBK\IBK_DRFN\ProjSrc\SrcDrfn\Chart\MULTICHART\define\ChartMsgDef.h
;	COMDAT ??__ERMSG_CHANGE_SKINCOLOR@@YAXXZ
text$di	SEGMENT
??__ERMSG_CHANGE_SKINCOLOR@@YAXXZ PROC			; `dynamic initializer for 'RMSG_CHANGE_SKINCOLOR'', COMDAT

; 225  : const UINT RMSG_CHANGE_SKINCOLOR = ::RegisterWindowMessage(_T("RMSG_CHANGE_SKINCOLOR"));

  00000	68 00 00 00 00	 push	 OFFSET ??_C@_0BG@CNPAHNGG@RMSG_CHANGE_SKINCOLOR@
  00005	ff 15 00 00 00
	00		 call	 DWORD PTR __imp__RegisterWindowMessageA@4
  0000b	a3 00 00 00 00	 mov	 DWORD PTR ?RMSG_CHANGE_SKINCOLOR@@3IB, eax
  00010	c3		 ret	 0
??__ERMSG_CHANGE_SKINCOLOR@@YAXXZ ENDP			; `dynamic initializer for 'RMSG_CHANGE_SKINCOLOR''
text$di	ENDS
; Function compile flags: /Ogtp
; File D:\git\src\IBK\IBK_DRFN\ProjSrc\SrcDrfn\Chart\MULTICHART\define\ChartMsgDef.h
;	COMDAT ??__ERMSG_GET_USERID@@YAXXZ
text$di	SEGMENT
??__ERMSG_GET_USERID@@YAXXZ PROC			; `dynamic initializer for 'RMSG_GET_USERID'', COMDAT

; 215  : const UINT RMSG_GET_USERID = ::RegisterWindowMessage(_T("RMSG_GET_USERID"));	// User ID 

  00000	68 00 00 00 00	 push	 OFFSET ??_C@_0BA@HKNFENJL@RMSG_GET_USERID@
  00005	ff 15 00 00 00
	00		 call	 DWORD PTR __imp__RegisterWindowMessageA@4
  0000b	a3 00 00 00 00	 mov	 DWORD PTR ?RMSG_GET_USERID@@3IB, eax
  00010	c3		 ret	 0
??__ERMSG_GET_USERID@@YAXXZ ENDP			; `dynamic initializer for 'RMSG_GET_USERID''
text$di	ENDS
; Function compile flags: /Ogtp
; File D:\git\src\IBK\IBK_DRFN\ProjSrc\SrcDrfn\Chart\MULTICHART\define\ChartMsgDef.h
;	COMDAT ??__ERMS_ANALYSIS_FUNC@@YAXXZ
text$di	SEGMENT
??__ERMS_ANALYSIS_FUNC@@YAXXZ PROC			; `dynamic initializer for 'RMS_ANALYSIS_FUNC'', COMDAT

; 211  : const UINT RMS_ANALYSIS_FUNC	= ::RegisterWindowMessage(_T("RMS_ANALYSIS_FUNC"));

  00000	68 00 00 00 00	 push	 OFFSET ??_C@_0BC@MMPGLPDH@RMS_ANALYSIS_FUNC@
  00005	ff 15 00 00 00
	00		 call	 DWORD PTR __imp__RegisterWindowMessageA@4
  0000b	a3 00 00 00 00	 mov	 DWORD PTR ?RMS_ANALYSIS_FUNC@@3IB, eax
  00010	c3		 ret	 0
??__ERMS_ANALYSIS_FUNC@@YAXXZ ENDP			; `dynamic initializer for 'RMS_ANALYSIS_FUNC''
text$di	ENDS
; Function compile flags: /Ogtp
; File D:\git\src\IBK\IBK_DRFN\ProjSrc\SrcDrfn\Chart\MULTICHART\define\ChartMsgDef.h
;	COMDAT ??__ERMSG_CHARTMAIN@@YAXXZ
text$di	SEGMENT
??__ERMSG_CHARTMAIN@@YAXXZ PROC				; `dynamic initializer for 'RMSG_CHARTMAIN'', COMDAT

; 208  : const UINT RMSG_CHARTMAIN		= ::RegisterWindowMessage(_T("RMSG_CHARTMAIN"));

  00000	68 00 00 00 00	 push	 OFFSET ??_C@_0P@KHFCBIOH@RMSG_CHARTMAIN@
  00005	ff 15 00 00 00
	00		 call	 DWORD PTR __imp__RegisterWindowMessageA@4
  0000b	a3 00 00 00 00	 mov	 DWORD PTR ?RMSG_CHARTMAIN@@3IB, eax
  00010	c3		 ret	 0
??__ERMSG_CHARTMAIN@@YAXXZ ENDP				; `dynamic initializer for 'RMSG_CHARTMAIN''
text$di	ENDS
; Function compile flags: /Ogtp
; File D:\git\src\IBK\IBK_DRFN\ProjSrc\SrcDrfn\Chart\MULTICHART\define\ChartMsgDef.h
;	COMDAT ??__ERMSG_SETQUERYOPT@@YAXXZ
text$di	SEGMENT
??__ERMSG_SETQUERYOPT@@YAXXZ PROC			; `dynamic initializer for 'RMSG_SETQUERYOPT'', COMDAT

; 183  : const UINT RMSG_SETQUERYOPT = ::RegisterWindowMessage(_T("RMSG_SETQUERYOPT"));

  00000	68 00 00 00 00	 push	 OFFSET ??_C@_0BB@CNOFPEHG@RMSG_SETQUERYOPT@
  00005	ff 15 00 00 00
	00		 call	 DWORD PTR __imp__RegisterWindowMessageA@4
  0000b	a3 00 00 00 00	 mov	 DWORD PTR ?RMSG_SETQUERYOPT@@3IB, eax
  00010	c3		 ret	 0
??__ERMSG_SETQUERYOPT@@YAXXZ ENDP			; `dynamic initializer for 'RMSG_SETQUERYOPT''
text$di	ENDS
; Function compile flags: /Ogtp
; File D:\git\src\IBK\IBK_DRFN\ProjSrc\SrcDrfn\Chart\commontr\TRDefine.h
;	COMDAT ??__ERMSG_GETSIGNAL_REAL@@YAXXZ
text$di	SEGMENT
??__ERMSG_GETSIGNAL_REAL@@YAXXZ PROC			; `dynamic initializer for 'RMSG_GETSIGNAL_REAL'', COMDAT

; 213  : const UINT RMSG_GETSIGNAL_REAL = ::RegisterWindowMessage(_T("RMSG_GETSIGNAL_REAL"));

  00000	68 00 00 00 00	 push	 OFFSET ??_C@_0BE@FJPKENOB@RMSG_GETSIGNAL_REAL@
  00005	ff 15 00 00 00
	00		 call	 DWORD PTR __imp__RegisterWindowMessageA@4
  0000b	a3 00 00 00 00	 mov	 DWORD PTR ?RMSG_GETSIGNAL_REAL@@3IB, eax
  00010	c3		 ret	 0
??__ERMSG_GETSIGNAL_REAL@@YAXXZ ENDP			; `dynamic initializer for 'RMSG_GETSIGNAL_REAL''
text$di	ENDS
; Function compile flags: /Ogtp
; File C:\Program Files (x86)\Microsoft Visual Studio\2019\Community\VC\Tools\MSVC\14.29.30133\atlmfc\include\afxtempl.h
;	COMDAT ??1CDlgSettingToolBar@@UAE@XZ
_TEXT	SEGMENT
??1CDlgSettingToolBar@@UAE@XZ PROC			; CDlgSettingToolBar::~CDlgSettingToolBar, COMDAT
; _this$ = ecx

; 355  : {

  00000	56		 push	 esi
  00001	8b f1		 mov	 esi, ecx
  00003	8d 8e c8 02 00
	00		 lea	 ecx, DWORD PTR [esi+712]
  00009	e8 00 00 00 00	 call	 ??1CComboBox@@UAE@XZ	; CComboBox::~CComboBox
  0000e	8d 8e 48 02 00
	00		 lea	 ecx, DWORD PTR [esi+584]
  00014	e8 00 00 00 00	 call	 ??1CComboBox@@UAE@XZ	; CComboBox::~CComboBox
  00019	8d 8e c8 01 00
	00		 lea	 ecx, DWORD PTR [esi+456]
  0001f	e8 00 00 00 00	 call	 ??1CListBox@@UAE@XZ	; CListBox::~CListBox
  00024	8d 8e 48 01 00
	00		 lea	 ecx, DWORD PTR [esi+328]
  0002a	e8 00 00 00 00	 call	 ??1CListBox@@UAE@XZ	; CListBox::~CListBox
  0002f	8d 8e 20 01 00
	00		 lea	 ecx, DWORD PTR [esi+288]
  00035	e8 00 00 00 00	 call	 ??1?$CMap@HHV?$CStringT@DV?$StrTraitMFC_DLL@DV?$ChTraitsCRT@D@ATL@@@@@ATL@@V12@@@UAE@XZ ; CMap<int,int,ATL::CStringT<char,StrTraitMFC_DLL<char,ATL::ChTraitsCRT<char> > >,ATL::CStringT<char,StrTraitMFC_DLL<char,ATL::ChTraitsCRT<char> > > >::~CMap<int,int,ATL::CStringT<char,StrTraitMFC_DLL<char,ATL::ChTraitsCRT<char> > >,ATL::CStringT<char,StrTraitMFC_DLL<char,ATL::ChTraitsCRT<char> > > >
  0003a	8d 8e 04 01 00
	00		 lea	 ecx, DWORD PTR [esi+260]
  00040	e8 00 00 00 00	 call	 ??1?$CMap@HHV?$CStringT@DV?$StrTraitMFC_DLL@DV?$ChTraitsCRT@D@ATL@@@@@ATL@@V12@@@UAE@XZ ; CMap<int,int,ATL::CStringT<char,StrTraitMFC_DLL<char,ATL::ChTraitsCRT<char> > >,ATL::CStringT<char,StrTraitMFC_DLL<char,ATL::ChTraitsCRT<char> > > >::~CMap<int,int,ATL::CStringT<char,StrTraitMFC_DLL<char,ATL::ChTraitsCRT<char> > >,ATL::CStringT<char,StrTraitMFC_DLL<char,ATL::ChTraitsCRT<char> > > >
  00045	8d 8e e8 00 00
	00		 lea	 ecx, DWORD PTR [esi+232]
  0004b	e8 00 00 00 00	 call	 ??1?$CMap@HHV?$CStringT@DV?$StrTraitMFC_DLL@DV?$ChTraitsCRT@D@ATL@@@@@ATL@@V12@@@UAE@XZ ; CMap<int,int,ATL::CStringT<char,StrTraitMFC_DLL<char,ATL::ChTraitsCRT<char> > >,ATL::CStringT<char,StrTraitMFC_DLL<char,ATL::ChTraitsCRT<char> > > >::~CMap<int,int,ATL::CStringT<char,StrTraitMFC_DLL<char,ATL::ChTraitsCRT<char> > >,ATL::CStringT<char,StrTraitMFC_DLL<char,ATL::ChTraitsCRT<char> > > >

; 356  : 	ASSERT_VALID(this);
; 357  : 
; 358  : 	if (m_pData != NULL)

  00050	8b 86 d8 00 00
	00		 mov	 eax, DWORD PTR [esi+216]
  00056	c7 86 d4 00 00
	00 00 00 00 00	 mov	 DWORD PTR [esi+212], OFFSET ??_7?$CArray@HH@@6B@
  00060	85 c0		 test	 eax, eax
  00062	74 13		 je	 SHORT $LN7@CDlgSettin

; 359  : 	{
; 360  : 		for( int i = 0; i < m_nSize; i++ )

  00064	83 be dc 00 00
	00 00		 cmp	 DWORD PTR [esi+220], 0
  0006b	0f 4f c0	 cmovg	 eax, eax

; 361  : 			(m_pData + i)->~TYPE();
; 362  : 		delete[] (BYTE*)m_pData;

  0006e	50		 push	 eax
  0006f	e8 00 00 00 00	 call	 ??_V@YAXPAX@Z		; operator delete[]
  00074	83 c4 04	 add	 esp, 4
$LN7@CDlgSettin:

; 358  : 	if (m_pData != NULL)

  00077	8b 86 c4 00 00
	00		 mov	 eax, DWORD PTR [esi+196]
  0007d	c7 86 c0 00 00
	00 00 00 00 00	 mov	 DWORD PTR [esi+192], OFFSET ??_7?$CArray@HH@@6B@
  00087	85 c0		 test	 eax, eax
  00089	74 13		 je	 SHORT $LN14@CDlgSettin

; 359  : 	{
; 360  : 		for( int i = 0; i < m_nSize; i++ )

  0008b	83 be c8 00 00
	00 00		 cmp	 DWORD PTR [esi+200], 0
  00092	0f 4f c0	 cmovg	 eax, eax

; 361  : 			(m_pData + i)->~TYPE();
; 362  : 		delete[] (BYTE*)m_pData;

  00095	50		 push	 eax
  00096	e8 00 00 00 00	 call	 ??_V@YAXPAX@Z		; operator delete[]
  0009b	83 c4 04	 add	 esp, 4
$LN14@CDlgSettin:

; 358  : 	if (m_pData != NULL)

  0009e	8b 86 b0 00 00
	00		 mov	 eax, DWORD PTR [esi+176]
  000a4	c7 86 ac 00 00
	00 00 00 00 00	 mov	 DWORD PTR [esi+172], OFFSET ??_7?$CArray@HH@@6B@
  000ae	85 c0		 test	 eax, eax
  000b0	74 13		 je	 SHORT $LN21@CDlgSettin

; 359  : 	{
; 360  : 		for( int i = 0; i < m_nSize; i++ )

  000b2	83 be b4 00 00
	00 00		 cmp	 DWORD PTR [esi+180], 0
  000b9	0f 4f c0	 cmovg	 eax, eax

; 361  : 			(m_pData + i)->~TYPE();
; 362  : 		delete[] (BYTE*)m_pData;

  000bc	50		 push	 eax
  000bd	e8 00 00 00 00	 call	 ??_V@YAXPAX@Z		; operator delete[]
  000c2	83 c4 04	 add	 esp, 4
$LN21@CDlgSettin:
  000c5	8b ce		 mov	 ecx, esi
  000c7	5e		 pop	 esi
  000c8	e9 00 00 00 00	 jmp	 ??1CDialog@@UAE@XZ	; CDialog::~CDialog
??1CDlgSettingToolBar@@UAE@XZ ENDP			; CDlgSettingToolBar::~CDlgSettingToolBar
_TEXT	ENDS
; Function compile flags: /Ogtp
; File C:\Program Files (x86)\Microsoft Visual Studio\2019\Community\VC\Tools\MSVC\14.29.30133\atlmfc\include\afx.inl
;	COMDAT ??_GCDlgToolbar@@UAEPAXI@Z
_TEXT	SEGMENT
___flags$ = 8						; size = 4
??_GCDlgToolbar@@UAEPAXI@Z PROC				; CDlgToolbar::`scalar deleting destructor', COMDAT
; _this$ = ecx
  00000	55		 push	 ebp
  00001	8b ec		 mov	 ebp, esp
  00003	56		 push	 esi
  00004	8b f1		 mov	 esi, ecx
  00006	e8 00 00 00 00	 call	 ??1CDlgToolbar@@UAE@XZ	; CDlgToolbar::~CDlgToolbar
  0000b	8b 45 08	 mov	 eax, DWORD PTR ___flags$[ebp]
  0000e	a8 01		 test	 al, 1
  00010	74 22		 je	 SHORT $LN9@scalar
  00012	a8 04		 test	 al, 4
  00014	75 10		 jne	 SHORT $LN3@scalar

; 112  : 	{ ::operator delete(p); }

  00016	56		 push	 esi
  00017	e8 00 00 00 00	 call	 ??3@YAXPAX@Z		; operator delete
  0001c	83 c4 04	 add	 esp, 4
  0001f	8b c6		 mov	 eax, esi
  00021	5e		 pop	 esi
  00022	5d		 pop	 ebp
  00023	c2 04 00	 ret	 4
$LN3@scalar:
  00026	68 78 03 00 00	 push	 888			; 00000378H
  0002b	56		 push	 esi
  0002c	e8 00 00 00 00	 call	 ?__global_delete@@YAXPAXI@Z ; __global_delete
  00031	83 c4 08	 add	 esp, 8
$LN9@scalar:
  00034	8b c6		 mov	 eax, esi
  00036	5e		 pop	 esi
  00037	5d		 pop	 ebp
  00038	c2 04 00	 ret	 4
??_GCDlgToolbar@@UAEPAXI@Z ENDP				; CDlgToolbar::`scalar deleting destructor'
_TEXT	ENDS
; Function compile flags: /Ogtp
; File D:\git\src\IBK\IBK_DRFN\ProjSrc\SrcDrfn\Chart\MULTICHART\DlgToolbar.cpp
;	COMDAT ?GetMessageMap@CDlgToolbar@@MBEPBUAFX_MSGMAP@@XZ
_TEXT	SEGMENT
?GetMessageMap@CDlgToolbar@@MBEPBUAFX_MSGMAP@@XZ PROC	; CDlgToolbar::GetMessageMap, COMDAT
; _this$ = ecx

; 147  : BEGIN_MESSAGE_MAP(CDlgToolbar, CDialog)

  00000	b8 00 00 00 00	 mov	 eax, OFFSET ?messageMap@?1??GetThisMessageMap@CDlgToolbar@@KGPBUAFX_MSGMAP@@XZ@4U3@B
  00005	c3		 ret	 0
?GetMessageMap@CDlgToolbar@@MBEPBUAFX_MSGMAP@@XZ ENDP	; CDlgToolbar::GetMessageMap
_TEXT	ENDS
; Function compile flags: /Ogtp
; File D:\git\src\IBK\IBK_DRFN\ProjSrc\SrcDrfn\Chart\MULTICHART\DlgToolbar.cpp
;	COMDAT ?GetThisMessageMap@CDlgToolbar@@KGPBUAFX_MSGMAP@@XZ
_TEXT	SEGMENT
?GetThisMessageMap@CDlgToolbar@@KGPBUAFX_MSGMAP@@XZ PROC ; CDlgToolbar::GetThisMessageMap, COMDAT

; 148  : 	//{{AFX_MSG_MAP(CDlgToolbar)
; 149  : 		// NOTE: the ClassWizard will add message map macros here
; 150  : 	ON_WM_SIZE()
; 151  : 	ON_WM_PAINT()
; 152  : 	ON_WM_ERASEBKGND()
; 153  : 	//}}AFX_MSG_MAP
; 154  : END_MESSAGE_MAP()

  00000	b8 00 00 00 00	 mov	 eax, OFFSET ?messageMap@?1??GetThisMessageMap@CDlgToolbar@@KGPBUAFX_MSGMAP@@XZ@4U3@B
  00005	c3		 ret	 0
?GetThisMessageMap@CDlgToolbar@@KGPBUAFX_MSGMAP@@XZ ENDP ; CDlgToolbar::GetThisMessageMap
_TEXT	ENDS
; Function compile flags: /Ogtp
; File D:\git\src\IBK\IBK_DRFN\ProjSrc\SrcDrfn\Chart\MULTICHART\DlgToolbar.cpp
;	COMDAT ?OnEraseBkgnd@CDlgToolbar@@IAEHPAVCDC@@@Z
_TEXT	SEGMENT
_pDC$ = 8						; size = 4
?OnEraseBkgnd@CDlgToolbar@@IAEHPAVCDC@@@Z PROC		; CDlgToolbar::OnEraseBkgnd, COMDAT
; _this$ = ecx

; 1329 : 	return TRUE;

  00000	b8 01 00 00 00	 mov	 eax, 1

; 1330 : }

  00005	c2 04 00	 ret	 4
?OnEraseBkgnd@CDlgToolbar@@IAEHPAVCDC@@@Z ENDP		; CDlgToolbar::OnEraseBkgnd
_TEXT	ENDS
; Function compile flags: /Ogtp
; File D:\git\src\IBK\IBK_DRFN\ProjSrc\SrcDrfn\Chart\MULTICHART\DlgToolbar.cpp
; File C:\Program Files (x86)\Microsoft Visual Studio\2019\Community\VC\Tools\MSVC\14.29.30133\atlmfc\include\afxwin2.inl
; File D:\git\src\IBK\IBK_DRFN\ProjSrc\SrcDrfn\Chart\MULTICHART\DlgToolbar.cpp
;	COMDAT ?OnSize@CDlgToolbar@@IAEXIHH@Z
_TEXT	SEGMENT
_nType$ = 8						; size = 4
_cx$ = 12						; size = 4
_cy$ = 16						; size = 4
?OnSize@CDlgToolbar@@IAEXIHH@Z PROC			; CDlgToolbar::OnSize, COMDAT
; _this$ = ecx

; 650  : {

  00000	55		 push	 ebp
  00001	8b ec		 mov	 ebp, esp
  00003	56		 push	 esi
  00004	8b f1		 mov	 esi, ecx

; 651  : 	if(!m_bInit)

  00006	83 be 74 03 00
	00 00		 cmp	 DWORD PTR [esi+884], 0
  0000d	74 14		 je	 SHORT $LN1@OnSize

; 652  : 		return;
; 653  : 
; 654  : 	if(cy > 0)

  0000f	8b 45 10	 mov	 eax, DWORD PTR _cy$[ebp]
  00012	85 c0		 test	 eax, eax
  00014	7e 06		 jle	 SHORT $LN3@OnSize

; 655  : 		ResizeToolbar(cy);

  00016	50		 push	 eax
  00017	e8 00 00 00 00	 call	 ?ResizeToolbar@CDlgToolbar@@IAEXH@Z ; CDlgToolbar::ResizeToolbar
$LN3@OnSize:
; File C:\Program Files (x86)\Microsoft Visual Studio\2019\Community\VC\Tools\MSVC\14.29.30133\atlmfc\include\afxwin2.inl

; 330  : 	{ Default(); }

  0001c	8b ce		 mov	 ecx, esi
  0001e	e8 00 00 00 00	 call	 ?Default@CWnd@@IAEJXZ	; CWnd::Default
$LN1@OnSize:
  00023	5e		 pop	 esi
; File D:\git\src\IBK\IBK_DRFN\ProjSrc\SrcDrfn\Chart\MULTICHART\DlgToolbar.cpp

; 658  : }

  00024	5d		 pop	 ebp
  00025	c2 0c 00	 ret	 12			; 0000000cH
?OnSize@CDlgToolbar@@IAEXIHH@Z ENDP			; CDlgToolbar::OnSize
_TEXT	ENDS
; Function compile flags: /Ogtp
; File D:\git\src\IBK\IBK_DRFN\ProjSrc\SrcDrfn\Chart\MULTICHART\DlgToolbar.cpp
; File C:\Program Files (x86)\Microsoft Visual Studio\2019\Community\VC\Tools\MSVC\14.29.30133\atlmfc\include\afxwin2.inl
; File D:\git\src\IBK\IBK_DRFN\ProjSrc\SrcDrfn\Chart\MULTICHART\DlgToolbar.cpp
; File C:\Program Files (x86)\Microsoft Visual Studio\2019\Community\VC\Tools\MSVC\14.29.30133\atlmfc\include\afxwin2.inl
; File C:\Program Files (x86)\Microsoft Visual Studio\2019\Community\VC\Tools\MSVC\14.29.30133\atlmfc\include\atltypes.h
; File C:\Program Files (x86)\Microsoft Visual Studio\2019\Community\VC\Tools\MSVC\14.29.30133\atlmfc\include\afxwin2.inl
; File D:\git\src\IBK\IBK_DRFN\ProjSrc\SrcDrfn\Chart\MULTICHART\DlgToolbar.cpp
; File C:\Program Files (x86)\Microsoft Visual Studio\2019\Community\VC\Tools\MSVC\14.29.30133\atlmfc\include\afxwin1.inl
; File D:\git\src\IBK\IBK_DRFN\ProjSrc\SrcDrfn\Chart\MULTICHART\DlgToolbar.cpp
; File C:\Program Files (x86)\Microsoft Visual Studio\2019\Community\VC\Tools\MSVC\14.29.30133\atlmfc\include\afxwin1.inl
; File C:\Program Files (x86)\Microsoft Visual Studio\2019\Community\VC\Tools\MSVC\14.29.30133\atlmfc\include\atltypes.h
; File C:\Program Files (x86)\Microsoft Visual Studio\2019\Community\VC\Tools\MSVC\14.29.30133\atlmfc\include\afxwin1.inl
; File C:\Program Files (x86)\Microsoft Visual Studio\2019\Community\VC\Tools\MSVC\14.29.30133\atlmfc\include\afxwin2.inl
; File D:\git\src\IBK\IBK_DRFN\ProjSrc\SrcDrfn\Chart\MULTICHART\DlgToolbar.cpp
; File C:\Program Files (x86)\Microsoft Visual Studio\2019\Community\VC\Tools\MSVC\14.29.30133\atlmfc\include\afxwin2.inl
; File C:\Program Files (x86)\Microsoft Visual Studio\2019\Community\VC\Tools\MSVC\14.29.30133\atlmfc\include\afxwin1.inl
; File D:\git\src\IBK\IBK_DRFN\ProjSrc\SrcDrfn\Chart\MULTICHART\DlgToolbar.cpp
; File C:\Program Files (x86)\Microsoft Visual Studio\2019\Community\VC\Tools\MSVC\14.29.30133\atlmfc\include\afxwin2.inl
; File D:\git\src\IBK\IBK_DRFN\ProjSrc\SrcDrfn\Chart\MULTICHART\DlgToolbar.cpp
; File C:\Program Files (x86)\Microsoft Visual Studio\2019\Community\VC\Tools\MSVC\14.29.30133\atlmfc\include\afxwin2.inl
; File D:\git\src\IBK\IBK_DRFN\ProjSrc\SrcDrfn\Chart\MULTICHART\DlgToolbar.cpp
; File C:\Program Files (x86)\Microsoft Visual Studio\2019\Community\VC\Tools\MSVC\14.29.30133\atlmfc\include\afxwin2.inl
; File D:\git\src\IBK\IBK_DRFN\ProjSrc\SrcDrfn\Chart\MULTICHART\DlgToolbar.cpp
; File C:\Program Files (x86)\Microsoft Visual Studio\2019\Community\VC\Tools\MSVC\14.29.30133\atlmfc\include\atltypes.h
; File C:\Program Files (x86)\Microsoft Visual Studio\2019\Community\VC\Tools\MSVC\14.29.30133\atlmfc\include\afxwin1.inl
; File D:\git\src\IBK\IBK_DRFN\ProjSrc\SrcDrfn\Chart\MULTICHART\DlgToolbar.cpp
; File C:\Program Files (x86)\Microsoft Visual Studio\2019\Community\VC\Tools\MSVC\14.29.30133\atlmfc\include\afxwin1.inl
; File D:\git\src\IBK\IBK_DRFN\ProjSrc\SrcDrfn\Chart\MULTICHART\DlgToolbar.cpp
;	COMDAT ?OnPaint@CDlgToolbar@@IAEXXZ
_TEXT	SEGMENT
_rcBtns$ = -184						; size = 16
$T2 = -176						; size = 8
_penLine1$ = -168					; size = 8
_pFtDefault$1$ = -160					; size = 4
_pOldBitmap$1$ = -156					; size = 4
_pOldPen$1$ = -152					; size = 4
_bitmap$ = -148						; size = 8
$T3 = -140						; size = 8
$T4 = -140						; size = 8
$T5 = -140						; size = 8
$T6 = -140						; size = 8
_this$GSCopy$1$ = -136					; size = 4
_memDC$ = -132						; size = 16
_dc$ = -116						; size = 84
_rcClient$ = -32					; size = 16
__$ArrayPad$ = -16					; size = 4
__$EHRec$ = -12						; size = 12
?OnPaint@CDlgToolbar@@IAEXXZ PROC			; CDlgToolbar::OnPaint, COMDAT
; _this$ = ecx

; 1206 : {

  00000	55		 push	 ebp
  00001	8b ec		 mov	 ebp, esp
  00003	6a ff		 push	 -1
  00005	68 00 00 00 00	 push	 __ehhandler$?OnPaint@CDlgToolbar@@IAEXXZ
  0000a	64 a1 00 00 00
	00		 mov	 eax, DWORD PTR fs:0
  00010	50		 push	 eax
  00011	81 ec ac 00 00
	00		 sub	 esp, 172		; 000000acH
  00017	a1 00 00 00 00	 mov	 eax, DWORD PTR ___security_cookie
  0001c	33 c5		 xor	 eax, ebp
  0001e	89 45 f0	 mov	 DWORD PTR __$ArrayPad$[ebp], eax
  00021	56		 push	 esi
  00022	57		 push	 edi
  00023	50		 push	 eax
  00024	8d 45 f4	 lea	 eax, DWORD PTR __$EHRec$[ebp]
  00027	64 a3 00 00 00
	00		 mov	 DWORD PTR fs:0, eax
  0002d	8b f1		 mov	 esi, ecx
  0002f	89 b5 78 ff ff
	ff		 mov	 DWORD PTR _this$GSCopy$1$[ebp], esi

; 1207 : 	CPaintDC dc(this); // device context for painting

  00035	56		 push	 esi
  00036	8d 4d 8c	 lea	 ecx, DWORD PTR _dc$[ebp]
  00039	e8 00 00 00 00	 call	 ??0CPaintDC@@QAE@PAVCWnd@@@Z ; CPaintDC::CPaintDC
; File C:\Program Files (x86)\Microsoft Visual Studio\2019\Community\VC\Tools\MSVC\14.29.30133\atlmfc\include\afxwin2.inl

; 86   : 	{ ASSERT(::IsWindow(m_hWnd)); ::GetClientRect(m_hWnd, lpRect); }

  0003e	8d 45 e0	 lea	 eax, DWORD PTR _rcClient$[ebp]
; File D:\git\src\IBK\IBK_DRFN\ProjSrc\SrcDrfn\Chart\MULTICHART\DlgToolbar.cpp

; 1207 : 	CPaintDC dc(this); // device context for painting

  00041	c7 45 fc 00 00
	00 00		 mov	 DWORD PTR __$EHRec$[ebp+8], 0
; File C:\Program Files (x86)\Microsoft Visual Studio\2019\Community\VC\Tools\MSVC\14.29.30133\atlmfc\include\afxwin2.inl

; 86   : 	{ ASSERT(::IsWindow(m_hWnd)); ::GetClientRect(m_hWnd, lpRect); }

  00048	50		 push	 eax
  00049	ff 76 20	 push	 DWORD PTR [esi+32]
  0004c	0f 57 c0	 xorps	 xmm0, xmm0
; File C:\Program Files (x86)\Microsoft Visual Studio\2019\Community\VC\Tools\MSVC\14.29.30133\atlmfc\include\atltypes.h

; 528  : 	left = 0;

  0004f	0f 11 45 e0	 movups	 XMMWORD PTR _rcClient$[ebp], xmm0
; File C:\Program Files (x86)\Microsoft Visual Studio\2019\Community\VC\Tools\MSVC\14.29.30133\atlmfc\include\afxwin2.inl

; 86   : 	{ ASSERT(::IsWindow(m_hWnd)); ::GetClientRect(m_hWnd, lpRect); }

  00053	ff 15 00 00 00
	00		 call	 DWORD PTR __imp__GetClientRect@8
; File D:\git\src\IBK\IBK_DRFN\ProjSrc\SrcDrfn\Chart\MULTICHART\DlgToolbar.cpp

; 1215 : 	CDC memDC;

  00059	8d 8d 7c ff ff
	ff		 lea	 ecx, DWORD PTR _memDC$[ebp]
  0005f	e8 00 00 00 00	 call	 ??0CDC@@QAE@XZ		; CDC::CDC
; File C:\Program Files (x86)\Microsoft Visual Studio\2019\Community\VC\Tools\MSVC\14.29.30133\atlmfc\include\afxwin1.inl

; 70   : 	{ m_hObject = NULL; }

  00064	c7 85 70 ff ff
	ff 00 00 00 00	 mov	 DWORD PTR _bitmap$[ebp+4], 0

; 177  : 	{ }

  0006e	c7 85 6c ff ff
	ff 00 00 00 00	 mov	 DWORD PTR _bitmap$[ebp], OFFSET ??_7CBitmap@@6B@

; 330  : 	{ return Attach(::CreateCompatibleDC(pDC->GetSafeHdc())); }

  00078	ff 75 90	 push	 DWORD PTR _dc$[ebp+4]
; File D:\git\src\IBK\IBK_DRFN\ProjSrc\SrcDrfn\Chart\MULTICHART\DlgToolbar.cpp

; 1216 : 	CBitmap bitmap;

  0007b	c6 45 fc 02	 mov	 BYTE PTR __$EHRec$[ebp+8], 2
; File C:\Program Files (x86)\Microsoft Visual Studio\2019\Community\VC\Tools\MSVC\14.29.30133\atlmfc\include\afxwin1.inl

; 330  : 	{ return Attach(::CreateCompatibleDC(pDC->GetSafeHdc())); }

  0007f	ff 15 00 00 00
	00		 call	 DWORD PTR __imp__CreateCompatibleDC@4
  00085	50		 push	 eax
  00086	8d 8d 7c ff ff
	ff		 lea	 ecx, DWORD PTR _memDC$[ebp]
  0008c	e8 00 00 00 00	 call	 ?Attach@CDC@@QAEHPAUHDC__@@@Z ; CDC::Attach
; File C:\Program Files (x86)\Microsoft Visual Studio\2019\Community\VC\Tools\MSVC\14.29.30133\atlmfc\include\atltypes.h

; 581  : 	return bottom - top;

  00091	8b 4d ec	 mov	 ecx, DWORD PTR _rcClient$[ebp+12]
  00094	2b 4d e4	 sub	 ecx, DWORD PTR _rcClient$[ebp+4]

; 576  : 	return right - left;

  00097	8b 45 e8	 mov	 eax, DWORD PTR _rcClient$[ebp+8]
  0009a	2b 45 e0	 sub	 eax, DWORD PTR _rcClient$[ebp]
; File C:\Program Files (x86)\Microsoft Visual Studio\2019\Community\VC\Tools\MSVC\14.29.30133\atlmfc\include\afxwin1.inl

; 217  : 	{ return Attach(::CreateCompatibleBitmap(pDC->m_hDC, nWidth, nHeight)); }

  0009d	51		 push	 ecx
  0009e	50		 push	 eax
  0009f	ff 75 90	 push	 DWORD PTR _dc$[ebp+4]
  000a2	ff 15 00 00 00
	00		 call	 DWORD PTR __imp__CreateCompatibleBitmap@12
  000a8	50		 push	 eax
  000a9	8d 8d 6c ff ff
	ff		 lea	 ecx, DWORD PTR _bitmap$[ebp]
  000af	e8 00 00 00 00	 call	 ?Attach@CGdiObject@@QAEHPAX@Z ; CGdiObject::Attach

; 361  : 	{ ASSERT(m_hDC != NULL); return (CBitmap*) SelectGdiObject(m_hDC, pBitmap->GetSafeHandle()); }

  000b4	ff b5 70 ff ff
	ff		 push	 DWORD PTR _bitmap$[ebp+4]
  000ba	ff 75 80	 push	 DWORD PTR _memDC$[ebp+4]
  000bd	e8 00 00 00 00	 call	 ?SelectGdiObject@CDC@@KGPAVCGdiObject@@PAUHDC__@@PAX@Z ; CDC::SelectGdiObject
; File C:\Program Files (x86)\Microsoft Visual Studio\2019\Community\VC\Tools\MSVC\14.29.30133\atlmfc\include\afxwin2.inl

; 213  : 	{ ASSERT(::IsWindow(m_hWnd)); return CWnd::FromHandle(::GetParent(m_hWnd)); }

  000c2	ff 76 20	 push	 DWORD PTR [esi+32]
  000c5	8b 35 00 00 00
	00		 mov	 esi, DWORD PTR __imp__GetParent@4
; File D:\git\src\IBK\IBK_DRFN\ProjSrc\SrcDrfn\Chart\MULTICHART\DlgToolbar.cpp

; 1219 : 	CBitmap* pOldBitmap = memDC.SelectObject(&bitmap);

  000cb	89 85 64 ff ff
	ff		 mov	 DWORD PTR _pOldBitmap$1$[ebp], eax
; File C:\Program Files (x86)\Microsoft Visual Studio\2019\Community\VC\Tools\MSVC\14.29.30133\atlmfc\include\afxwin2.inl

; 213  : 	{ ASSERT(::IsWindow(m_hWnd)); return CWnd::FromHandle(::GetParent(m_hWnd)); }

  000d1	ff d6		 call	 esi
  000d3	50		 push	 eax
  000d4	e8 00 00 00 00	 call	 ?FromHandle@CWnd@@SGPAV1@PAUHWND__@@@Z ; CWnd::FromHandle

; 45   : 	{ ASSERT(::IsWindow(m_hWnd)); return CFont::FromHandle(

  000d9	8b 3d 00 00 00
	00		 mov	 edi, DWORD PTR __imp__SendMessageA@16
  000df	6a 00		 push	 0
  000e1	6a 00		 push	 0
  000e3	6a 31		 push	 49			; 00000031H
  000e5	ff 70 20	 push	 DWORD PTR [eax+32]
  000e8	ff d7		 call	 edi
; File C:\Program Files (x86)\Microsoft Visual Studio\2019\Community\VC\Tools\MSVC\14.29.30133\atlmfc\include\afxwin1.inl

; 151  : 	{ return (CFont*) CGdiObject::FromHandle(hFont); }

  000ea	50		 push	 eax
  000eb	e8 00 00 00 00	 call	 ?FromHandle@CGdiObject@@SGPAV1@PAX@Z ; CGdiObject::FromHandle
; File D:\git\src\IBK\IBK_DRFN\ProjSrc\SrcDrfn\Chart\MULTICHART\DlgToolbar.cpp

; 1221 : 	CFont *pFtDefault = (CFont *)memDC.SelectObject(GetParent()->GetFont());

  000f0	50		 push	 eax
  000f1	8d 8d 7c ff ff
	ff		 lea	 ecx, DWORD PTR _memDC$[ebp]
  000f7	e8 00 00 00 00	 call	 ?SelectObject@CDC@@UAEPAVCFont@@PAV2@@Z ; CDC::SelectObject
; File C:\Program Files (x86)\Microsoft Visual Studio\2019\Community\VC\Tools\MSVC\14.29.30133\atlmfc\include\afxwin2.inl

; 213  : 	{ ASSERT(::IsWindow(m_hWnd)); return CWnd::FromHandle(::GetParent(m_hWnd)); }

  000fc	8b 8d 78 ff ff
	ff		 mov	 ecx, DWORD PTR _this$GSCopy$1$[ebp]
; File D:\git\src\IBK\IBK_DRFN\ProjSrc\SrcDrfn\Chart\MULTICHART\DlgToolbar.cpp

; 1221 : 	CFont *pFtDefault = (CFont *)memDC.SelectObject(GetParent()->GetFont());

  00102	89 85 60 ff ff
	ff		 mov	 DWORD PTR _pFtDefault$1$[ebp], eax
; File C:\Program Files (x86)\Microsoft Visual Studio\2019\Community\VC\Tools\MSVC\14.29.30133\atlmfc\include\afxwin2.inl

; 213  : 	{ ASSERT(::IsWindow(m_hWnd)); return CWnd::FromHandle(::GetParent(m_hWnd)); }

  00108	ff 71 20	 push	 DWORD PTR [ecx+32]
  0010b	ff d6		 call	 esi
  0010d	50		 push	 eax
  0010e	e8 00 00 00 00	 call	 ?FromHandle@CWnd@@SGPAV1@PAUHWND__@@@Z ; CWnd::FromHandle

; 32   : 	{ ASSERT(::IsWindow(m_hWnd)); return ::SendMessage(m_hWnd, message, wParam, lParam); }

  00113	6a 00		 push	 0
  00115	6a 00		 push	 0
  00117	ff 35 00 00 00
	00		 push	 DWORD PTR ?RMSG_GET_SKINCOLOR@@3IB
  0011d	ff 70 20	 push	 DWORD PTR [eax+32]
  00120	ff d7		 call	 edi
; File D:\git\src\IBK\IBK_DRFN\ProjSrc\SrcDrfn\Chart\MULTICHART\DlgToolbar.cpp

; 1223 : 	memDC.FillSolidRect ( rcClient, (COLORREF)GetParent()->SendMessage(RMSG_GET_SKINCOLOR, (WPARAM)0));

  00122	50		 push	 eax
  00123	8d 45 e0	 lea	 eax, DWORD PTR _rcClient$[ebp]
  00126	50		 push	 eax
  00127	8d 8d 7c ff ff
	ff		 lea	 ecx, DWORD PTR _memDC$[ebp]
  0012d	e8 00 00 00 00	 call	 ?FillSolidRect@CDC@@QAEXPBUtagRECT@@K@Z ; CDC::FillSolidRect

; 1224 : 
; 1225 : //	rcDraw = rcClient;
; 1226 : //	rcDraw.left = X_OFFSET;
; 1227 : //	rcDraw.right = X_OFFSET + TOOL_BUTTON_WIDTH;
; 1228 : //	rcDraw.bottom = Y_OFFSET - 7;
; 1229 : 
; 1230 : 	CRect rcBtns;
; 1231 : 	rcBtns = rcClient;

  00132	0f 10 45 e0	 movups	 xmm0, XMMWORD PTR _rcClient$[ebp]

; 1232 : 	rcBtns.left = X_OFFSET;
; 1233 : 	rcBtns.right = X_OFFSET + TOOL_BUTTON_WIDTH;
; 1234 : 	rcBtns.top = Y_OFFSET + TOOL_BUTTON_HEIGHT + 1;
; 1235 : 
; 1236 : 	CPen penLine1(PS_SOLID, 1, RGB(128,128,128));

  00136	68 80 80 80 00	 push	 8421504			; 00808080H
  0013b	6a 01		 push	 1
  0013d	6a 00		 push	 0
  0013f	8d 8d 58 ff ff
	ff		 lea	 ecx, DWORD PTR _penLine1$[ebp]
  00145	0f 11 85 48 ff
	ff ff		 movups	 XMMWORD PTR _rcBtns$[ebp], xmm0
  0014c	e8 00 00 00 00	 call	 ??0CPen@@QAE@HHK@Z	; CPen::CPen

; 1237 : 	CPen *pOldPen = memDC.SelectObject(&penLine1);

  00151	8d 85 58 ff ff
	ff		 lea	 eax, DWORD PTR _penLine1$[ebp]
  00157	c6 45 fc 03	 mov	 BYTE PTR __$EHRec$[ebp+8], 3
  0015b	50		 push	 eax
  0015c	8d 8d 7c ff ff
	ff		 lea	 ecx, DWORD PTR _memDC$[ebp]
  00162	e8 00 00 00 00	 call	 ?SelectObject@CDC@@QAEPAVCPen@@PAV2@@Z ; CDC::SelectObject

; 1238 : 	if(m_nSelTool == 0)

  00167	8b bd 78 ff ff
	ff		 mov	 edi, DWORD PTR _this$GSCopy$1$[ebp]
  0016d	89 85 68 ff ff
	ff		 mov	 DWORD PTR _pOldPen$1$[ebp], eax
  00173	8b 8f 2c 03 00
	00		 mov	 ecx, DWORD PTR [edi+812]
  00179	85 c9		 test	 ecx, ecx
  0017b	75 47		 jne	 SHORT $LN11@OnPaint

; 1239 : 	{
; 1240 : 		memDC.MoveTo(rcBtns.left, rcBtns.top);

  0017d	6a 19		 push	 25			; 00000019H
  0017f	6a 02		 push	 2
  00181	8d 85 74 ff ff
	ff		 lea	 eax, DWORD PTR $T6[ebp]
  00187	50		 push	 eax
  00188	8d 8d 7c ff ff
	ff		 lea	 ecx, DWORD PTR _memDC$[ebp]
  0018e	e8 00 00 00 00	 call	 ?MoveTo@CDC@@QAE?AVCPoint@@HH@Z ; CDC::MoveTo

; 1241 : 		memDC.LineTo(rcBtns.right, rcBtns.top);

  00193	6a 19		 push	 25			; 00000019H
  00195	6a 1e		 push	 30			; 0000001eH
  00197	8d 8d 7c ff ff
	ff		 lea	 ecx, DWORD PTR _memDC$[ebp]
  0019d	e8 00 00 00 00	 call	 ?LineTo@CDC@@QAEHHH@Z	; CDC::LineTo

; 1242 : 		for(int i = 0; i < m_arrayUserIdx.GetSize(); i++)

  001a2	8b 8f 04 03 00
	00		 mov	 ecx, DWORD PTR [edi+772]
  001a8	85 c9		 test	 ecx, ecx
  001aa	0f 8e a0 00 00
	00		 jle	 $LN104@OnPaint

; 1239 : 	{
; 1240 : 		memDC.MoveTo(rcBtns.left, rcBtns.top);

  001b0	b8 30 00 00 00	 mov	 eax, 48			; 00000030H
$LL90@OnPaint:

; 1243 : 		{
; 1244 : 			rcBtns.left = X_OFFSET;
; 1245 : 			rcBtns.top = Y_OFFSET2 + (i+1) * TOOL_BUTTON_HEIGHT;
; 1246 : 			rcBtns.right = rcBtns.left + TOOL_BUTTON_WIDTH;
; 1247 : 			rcBtns.bottom = rcBtns.top + TOOL_BUTTON_HEIGHT;

  001b5	8b f0		 mov	 esi, eax
  001b7	83 c0 16	 add	 eax, 22			; 00000016H
  001ba	83 e9 01	 sub	 ecx, 1
  001bd	75 f6		 jne	 SHORT $LL90@OnPaint

; 1242 : 		for(int i = 0; i < m_arrayUserIdx.GetSize(); i++)

  001bf	e9 92 00 00 00	 jmp	 $LN9@OnPaint
$LN11@OnPaint:

; 1248 : 		}
; 1249 : 		memDC.MoveTo(rcBtns.left, rcBtns.bottom);
; 1250 : 		memDC.LineTo(rcBtns.right, rcBtns.bottom);
; 1251 : 	}
; 1252 : 	else if(m_nSelTool == 1)

  001c4	83 f9 01	 cmp	 ecx, 1
  001c7	75 43		 jne	 SHORT $LN13@OnPaint

; 1253 : 	{
; 1254 : 		memDC.MoveTo(rcBtns.left, rcBtns.top);

  001c9	6a 19		 push	 25			; 00000019H
  001cb	6a 02		 push	 2
  001cd	8d 85 74 ff ff
	ff		 lea	 eax, DWORD PTR $T5[ebp]
  001d3	50		 push	 eax
  001d4	8d 8d 7c ff ff
	ff		 lea	 ecx, DWORD PTR _memDC$[ebp]
  001da	e8 00 00 00 00	 call	 ?MoveTo@CDC@@QAE?AVCPoint@@HH@Z ; CDC::MoveTo

; 1255 : 		memDC.LineTo(rcBtns.right, rcBtns.top);

  001df	6a 19		 push	 25			; 00000019H
  001e1	6a 1e		 push	 30			; 0000001eH
  001e3	8d 8d 7c ff ff
	ff		 lea	 ecx, DWORD PTR _memDC$[ebp]
  001e9	e8 00 00 00 00	 call	 ?LineTo@CDC@@QAEHHH@Z	; CDC::LineTo

; 1256 : 		for(int i = 0; i < m_arrayAnalIdx.GetSize(); i++)

  001ee	8b 8f dc 02 00
	00		 mov	 ecx, DWORD PTR [edi+732]
  001f4	85 c9		 test	 ecx, ecx
  001f6	7e 58		 jle	 SHORT $LN104@OnPaint

; 1253 : 	{
; 1254 : 		memDC.MoveTo(rcBtns.left, rcBtns.top);

  001f8	b8 30 00 00 00	 mov	 eax, 48			; 00000030H
  001fd	0f 1f 00	 npad	 3
$LL92@OnPaint:

; 1257 : 		{
; 1258 : 			rcBtns.left = X_OFFSET;
; 1259 : 			rcBtns.top = Y_OFFSET2 + (i+1) * TOOL_BUTTON_HEIGHT;
; 1260 : 			rcBtns.right = rcBtns.left + TOOL_BUTTON_WIDTH;
; 1261 : 			rcBtns.bottom = rcBtns.top + TOOL_BUTTON_HEIGHT;

  00200	8b f0		 mov	 esi, eax
  00202	83 c0 16	 add	 eax, 22			; 00000016H
  00205	83 e9 01	 sub	 ecx, 1
  00208	75 f6		 jne	 SHORT $LL92@OnPaint

; 1256 : 		for(int i = 0; i < m_arrayAnalIdx.GetSize(); i++)

  0020a	eb 4a		 jmp	 SHORT $LN9@OnPaint
$LN13@OnPaint:

; 1262 : 		}
; 1263 : 		memDC.MoveTo(rcBtns.left, rcBtns.bottom);
; 1264 : 		memDC.LineTo(rcBtns.right, rcBtns.bottom);
; 1265 : 	}
; 1266 : 	else if(m_nSelTool == 2)

  0020c	83 f9 02	 cmp	 ecx, 2
  0020f	75 68		 jne	 SHORT $LN15@OnPaint

; 1267 : 	{
; 1268 : 		memDC.MoveTo(rcBtns.left, rcBtns.top);

  00211	6a 19		 push	 25			; 00000019H
  00213	51		 push	 ecx
  00214	8d 85 74 ff ff
	ff		 lea	 eax, DWORD PTR $T4[ebp]
  0021a	50		 push	 eax
  0021b	8d 8d 7c ff ff
	ff		 lea	 ecx, DWORD PTR _memDC$[ebp]
  00221	e8 00 00 00 00	 call	 ?MoveTo@CDC@@QAE?AVCPoint@@HH@Z ; CDC::MoveTo

; 1269 : 		memDC.LineTo(rcBtns.right, rcBtns.top);

  00226	6a 19		 push	 25			; 00000019H
  00228	6a 1e		 push	 30			; 0000001eH
  0022a	8d 8d 7c ff ff
	ff		 lea	 ecx, DWORD PTR _memDC$[ebp]
  00230	e8 00 00 00 00	 call	 ?LineTo@CDC@@QAEHHH@Z	; CDC::LineTo

; 1270 : 		for(int i = 0; i < m_arrayAdditionIdx.GetSize(); i++)

  00235	8b 8f f0 02 00
	00		 mov	 ecx, DWORD PTR [edi+752]
  0023b	85 c9		 test	 ecx, ecx
  0023d	7e 11		 jle	 SHORT $LN104@OnPaint

; 1267 : 	{
; 1268 : 		memDC.MoveTo(rcBtns.left, rcBtns.top);

  0023f	b8 30 00 00 00	 mov	 eax, 48			; 00000030H
$LL94@OnPaint:

; 1271 : 		{
; 1272 : 			rcBtns.left = X_OFFSET;
; 1273 : 			rcBtns.top = Y_OFFSET2 + (i+1) * TOOL_BUTTON_HEIGHT;
; 1274 : 			rcBtns.right = rcBtns.left + TOOL_BUTTON_WIDTH;
; 1275 : 			rcBtns.bottom = rcBtns.top + TOOL_BUTTON_HEIGHT;

  00244	8b f0		 mov	 esi, eax
  00246	83 c0 16	 add	 eax, 22			; 00000016H
  00249	83 e9 01	 sub	 ecx, 1
  0024c	75 f6		 jne	 SHORT $LL94@OnPaint

; 1270 : 		for(int i = 0; i < m_arrayAdditionIdx.GetSize(); i++)

  0024e	eb 06		 jmp	 SHORT $LN9@OnPaint
$LN104@OnPaint:

; 1276 : 		}
; 1277 : 		memDC.MoveTo(rcBtns.left, rcBtns.bottom);
; 1278 : 		memDC.LineTo(rcBtns.right, rcBtns.bottom);
; 1279 : 	}
; 1280 : 	
; 1281 : 	rcBtns.bottom = rcClient.bottom - Y_OFFSET*2;

  00250	8b b5 54 ff ff
	ff		 mov	 esi, DWORD PTR _rcBtns$[ebp+12]
$LN9@OnPaint:
  00256	56		 push	 esi
  00257	6a 02		 push	 2
  00259	8d 85 74 ff ff
	ff		 lea	 eax, DWORD PTR $T3[ebp]
  0025f	50		 push	 eax
  00260	8d 8d 7c ff ff
	ff		 lea	 ecx, DWORD PTR _memDC$[ebp]
  00266	e8 00 00 00 00	 call	 ?MoveTo@CDC@@QAE?AVCPoint@@HH@Z ; CDC::MoveTo
  0026b	56		 push	 esi
  0026c	6a 1e		 push	 30			; 0000001eH
  0026e	8d 8d 7c ff ff
	ff		 lea	 ecx, DWORD PTR _memDC$[ebp]
  00274	e8 00 00 00 00	 call	 ?LineTo@CDC@@QAEHHH@Z	; CDC::LineTo
$LN15@OnPaint:
  00279	8b 75 ec	 mov	 esi, DWORD PTR _rcClient$[ebp+12]

; 1282 : 	if(m_pBtnDown && m_pBtnDown->IsWindowVisible())

  0027c	8b 87 68 03 00
	00		 mov	 eax, DWORD PTR [edi+872]
  00282	83 c6 fc	 add	 esi, -4			; fffffffcH
  00285	85 c0		 test	 eax, eax
  00287	74 30		 je	 SHORT $LN16@OnPaint
; File C:\Program Files (x86)\Microsoft Visual Studio\2019\Community\VC\Tools\MSVC\14.29.30133\atlmfc\include\afxwin2.inl

; 124  : 	{ ASSERT(::IsWindow(m_hWnd)); return ::IsWindowVisible(m_hWnd); }

  00289	ff 70 20	 push	 DWORD PTR [eax+32]
  0028c	ff 15 00 00 00
	00		 call	 DWORD PTR __imp__IsWindowVisible@4
; File D:\git\src\IBK\IBK_DRFN\ProjSrc\SrcDrfn\Chart\MULTICHART\DlgToolbar.cpp

; 1282 : 	if(m_pBtnDown && m_pBtnDown->IsWindowVisible())

  00292	85 c0		 test	 eax, eax
  00294	74 23		 je	 SHORT $LN16@OnPaint

; 1283 : 	{
; 1284 : 		memDC.MoveTo(rcBtns.left, rcBtns.bottom);

  00296	56		 push	 esi
  00297	6a 02		 push	 2
  00299	8d 85 50 ff ff
	ff		 lea	 eax, DWORD PTR $T2[ebp]
  0029f	50		 push	 eax
  002a0	8d 8d 7c ff ff
	ff		 lea	 ecx, DWORD PTR _memDC$[ebp]
  002a6	e8 00 00 00 00	 call	 ?MoveTo@CDC@@QAE?AVCPoint@@HH@Z ; CDC::MoveTo

; 1285 : 		memDC.LineTo(rcBtns.right, rcBtns.bottom);

  002ab	56		 push	 esi
  002ac	6a 1e		 push	 30			; 0000001eH
  002ae	8d 8d 7c ff ff
	ff		 lea	 ecx, DWORD PTR _memDC$[ebp]
  002b4	e8 00 00 00 00	 call	 ?LineTo@CDC@@QAEHHH@Z	; CDC::LineTo
$LN16@OnPaint:

; 1286 : 	}
; 1287 : 	memDC.SelectObject(pOldPen);

  002b9	ff b5 68 ff ff
	ff		 push	 DWORD PTR _pOldPen$1$[ebp]
  002bf	8d 8d 7c ff ff
	ff		 lea	 ecx, DWORD PTR _memDC$[ebp]
  002c5	e8 00 00 00 00	 call	 ?SelectObject@CDC@@QAEPAVCPen@@PAV2@@Z ; CDC::SelectObject
; File C:\Program Files (x86)\Microsoft Visual Studio\2019\Community\VC\Tools\MSVC\14.29.30133\atlmfc\include\atltypes.h

; 581  : 	return bottom - top;

  002ca	8b 55 ec	 mov	 edx, DWORD PTR _rcClient$[ebp+12]
  002cd	8b 75 e4	 mov	 esi, DWORD PTR _rcClient$[ebp+4]
  002d0	2b d6		 sub	 edx, esi

; 576  : 	return right - left;

  002d2	8b 45 e8	 mov	 eax, DWORD PTR _rcClient$[ebp+8]
  002d5	8b 4d e0	 mov	 ecx, DWORD PTR _rcClient$[ebp]
  002d8	2b c1		 sub	 eax, ecx
; File C:\Program Files (x86)\Microsoft Visual Studio\2019\Community\VC\Tools\MSVC\14.29.30133\atlmfc\include\afxwin1.inl

; 552  : 	{ ASSERT(m_hDC != NULL); return ::BitBlt(m_hDC, x, y, nWidth, nHeight,

  002da	68 20 00 cc 00	 push	 13369376		; 00cc0020H
  002df	6a 00		 push	 0
  002e1	6a 00		 push	 0
  002e3	ff 75 80	 push	 DWORD PTR _memDC$[ebp+4]
  002e6	52		 push	 edx
  002e7	50		 push	 eax
  002e8	56		 push	 esi
  002e9	51		 push	 ecx
  002ea	ff 75 90	 push	 DWORD PTR _dc$[ebp+4]
  002ed	ff 15 00 00 00
	00		 call	 DWORD PTR __imp__BitBlt@36

; 68   : 	{ return this == NULL ? NULL : m_hObject; }

  002f3	8b 85 64 ff ff
	ff		 mov	 eax, DWORD PTR _pOldBitmap$1$[ebp]
  002f9	85 c0		 test	 eax, eax
  002fb	74 03		 je	 SHORT $LN77@OnPaint
$LN76@OnPaint:
  002fd	8b 40 04	 mov	 eax, DWORD PTR [eax+4]
$LN77@OnPaint:

; 361  : 	{ ASSERT(m_hDC != NULL); return (CBitmap*) SelectGdiObject(m_hDC, pBitmap->GetSafeHandle()); }

  00300	50		 push	 eax
  00301	ff 75 80	 push	 DWORD PTR _memDC$[ebp+4]
  00304	e8 00 00 00 00	 call	 ?SelectGdiObject@CDC@@KGPAVCGdiObject@@PAUHDC__@@PAX@Z ; CDC::SelectGdiObject
; File D:\git\src\IBK\IBK_DRFN\ProjSrc\SrcDrfn\Chart\MULTICHART\DlgToolbar.cpp

; 1321 : 	memDC.SelectObject(pFtDefault);

  00309	ff b5 60 ff ff
	ff		 push	 DWORD PTR _pFtDefault$1$[ebp]
  0030f	8d 8d 7c ff ff
	ff		 lea	 ecx, DWORD PTR _memDC$[ebp]
  00315	e8 00 00 00 00	 call	 ?SelectObject@CDC@@UAEPAVCFont@@PAV2@@Z ; CDC::SelectObject

; 1322 : 	memDC.DeleteDC();

  0031a	8d 8d 7c ff ff
	ff		 lea	 ecx, DWORD PTR _memDC$[ebp]
  00320	e8 00 00 00 00	 call	 ?DeleteDC@CDC@@QAEHXZ	; CDC::DeleteDC

; 1323 : 	bitmap.DeleteObject();

  00325	8d 8d 6c ff ff
	ff		 lea	 ecx, DWORD PTR _bitmap$[ebp]
  0032b	e8 00 00 00 00	 call	 ?DeleteObject@CGdiObject@@QAEHXZ ; CGdiObject::DeleteObject
; File C:\Program Files (x86)\Microsoft Visual Studio\2019\Community\VC\Tools\MSVC\14.29.30133\atlmfc\include\afxwin1.inl

; 106  : 	{ }

  00330	8d 8d 58 ff ff
	ff		 lea	 ecx, DWORD PTR _penLine1$[ebp]
  00336	c7 85 58 ff ff
	ff 00 00 00 00	 mov	 DWORD PTR _penLine1$[ebp], OFFSET ??_7CPen@@6B@
  00340	e8 00 00 00 00	 call	 ??1CGdiObject@@UAE@XZ	; CGdiObject::~CGdiObject

; 179  : 	{ }

  00345	8d 8d 6c ff ff
	ff		 lea	 ecx, DWORD PTR _bitmap$[ebp]
  0034b	c7 85 6c ff ff
	ff 00 00 00 00	 mov	 DWORD PTR _bitmap$[ebp], OFFSET ??_7CBitmap@@6B@
  00355	e8 00 00 00 00	 call	 ??1CGdiObject@@UAE@XZ	; CGdiObject::~CGdiObject
; File D:\git\src\IBK\IBK_DRFN\ProjSrc\SrcDrfn\Chart\MULTICHART\DlgToolbar.cpp

; 1325 : }

  0035a	8d 8d 7c ff ff
	ff		 lea	 ecx, DWORD PTR _memDC$[ebp]
  00360	e8 00 00 00 00	 call	 ??1CDC@@UAE@XZ		; CDC::~CDC
  00365	8d 4d 8c	 lea	 ecx, DWORD PTR _dc$[ebp]
  00368	e8 00 00 00 00	 call	 ??1CPaintDC@@UAE@XZ	; CPaintDC::~CPaintDC
  0036d	8b 4d f4	 mov	 ecx, DWORD PTR __$EHRec$[ebp]
  00370	64 89 0d 00 00
	00 00		 mov	 DWORD PTR fs:0, ecx
  00377	59		 pop	 ecx
  00378	5f		 pop	 edi
  00379	5e		 pop	 esi
  0037a	8b 4d f0	 mov	 ecx, DWORD PTR __$ArrayPad$[ebp]
  0037d	33 cd		 xor	 ecx, ebp
  0037f	e8 00 00 00 00	 call	 @__security_check_cookie@4
  00384	8b e5		 mov	 esp, ebp
  00386	5d		 pop	 ebp
  00387	c3		 ret	 0
_TEXT	ENDS
;	COMDAT text$x
text$x	SEGMENT
__unwindfunclet$?OnPaint@CDlgToolbar@@IAEXXZ$0:
  00000	8d 4d 8c	 lea	 ecx, DWORD PTR _dc$[ebp]
  00003	e9 00 00 00 00	 jmp	 ??1CPaintDC@@UAE@XZ	; CPaintDC::~CPaintDC
__unwindfunclet$?OnPaint@CDlgToolbar@@IAEXXZ$1:
  00008	8d 8d 7c ff ff
	ff		 lea	 ecx, DWORD PTR _memDC$[ebp]
  0000e	e9 00 00 00 00	 jmp	 ??1CDC@@UAE@XZ		; CDC::~CDC
__unwindfunclet$?OnPaint@CDlgToolbar@@IAEXXZ$2:
  00013	8d 8d 6c ff ff
	ff		 lea	 ecx, DWORD PTR _bitmap$[ebp]
  00019	e9 00 00 00 00	 jmp	 ??1CBitmap@@UAE@XZ	; CBitmap::~CBitmap
__unwindfunclet$?OnPaint@CDlgToolbar@@IAEXXZ$3:
  0001e	8d 8d 58 ff ff
	ff		 lea	 ecx, DWORD PTR _penLine1$[ebp]
  00024	e9 00 00 00 00	 jmp	 ??1CPen@@UAE@XZ		; CPen::~CPen
  00029	cc		 int	 3
  0002a	cc		 int	 3
  0002b	cc		 int	 3
  0002c	cc		 int	 3
  0002d	cc		 int	 3
__ehhandler$?OnPaint@CDlgToolbar@@IAEXXZ:
  0002e	90		 npad	 1
  0002f	90		 npad	 1
  00030	8b 54 24 08	 mov	 edx, DWORD PTR [esp+8]
  00034	8d 42 0c	 lea	 eax, DWORD PTR [edx+12]
  00037	8b 8a 48 ff ff
	ff		 mov	 ecx, DWORD PTR [edx-184]
  0003d	33 c8		 xor	 ecx, eax
  0003f	e8 00 00 00 00	 call	 @__security_check_cookie@4
  00044	8b 4a fc	 mov	 ecx, DWORD PTR [edx-4]
  00047	33 c8		 xor	 ecx, eax
  00049	e8 00 00 00 00	 call	 @__security_check_cookie@4
  0004e	b8 00 00 00 00	 mov	 eax, OFFSET __ehfuncinfo$?OnPaint@CDlgToolbar@@IAEXXZ
  00053	e9 00 00 00 00	 jmp	 ___CxxFrameHandler3
text$x	ENDS
?OnPaint@CDlgToolbar@@IAEXXZ ENDP			; CDlgToolbar::OnPaint
; Function compile flags: /Ogtp
; File D:\git\src\IBK\IBK_DRFN\ProjSrc\SrcDrfn\Chart\MULTICHART\DlgToolbar.cpp
;	COMDAT ?OnInitDialog@CDlgToolbar@@MAEHXZ
_TEXT	SEGMENT
_szClipFormat$2 = -32					; size = 4
_aBufWnd$3 = -28					; size = 9
__$ArrayPad$ = -16					; size = 4
__$EHRec$ = -12						; size = 12
?OnInitDialog@CDlgToolbar@@MAEHXZ PROC			; CDlgToolbar::OnInitDialog, COMDAT
; _this$ = ecx

; 159  : {

  00000	55		 push	 ebp
  00001	8b ec		 mov	 ebp, esp
  00003	6a ff		 push	 -1
  00005	68 00 00 00 00	 push	 __ehhandler$?OnInitDialog@CDlgToolbar@@MAEHXZ
  0000a	64 a1 00 00 00
	00		 mov	 eax, DWORD PTR fs:0
  00010	50		 push	 eax
  00011	83 ec 14	 sub	 esp, 20			; 00000014H
  00014	a1 00 00 00 00	 mov	 eax, DWORD PTR ___security_cookie
  00019	33 c5		 xor	 eax, ebp
  0001b	89 45 f0	 mov	 DWORD PTR __$ArrayPad$[ebp], eax
  0001e	56		 push	 esi
  0001f	57		 push	 edi
  00020	50		 push	 eax
  00021	8d 45 f4	 lea	 eax, DWORD PTR __$EHRec$[ebp]
  00024	64 a3 00 00 00
	00		 mov	 DWORD PTR fs:0, eax
  0002a	8b f9		 mov	 edi, ecx

; 160  : 	CDialog::OnInitDialog();

  0002c	e8 00 00 00 00	 call	 ?OnInitDialog@CDialog@@UAEHXZ ; CDialog::OnInitDialog
  00031	0f 57 c0	 xorps	 xmm0, xmm0

; 161  : 
; 162  : 	AfxGetIGateManager(m_pGateManager);

  00034	c7 87 e8 01 00
	00 00 00 00 00	 mov	 DWORD PTR [edi+488], 0
  0003e	8d b7 e8 01 00
	00		 lea	 esi, DWORD PTR [edi+488]
  00044	66 0f d6 45 e4	 movq	 QWORD PTR _aBufWnd$3[ebp], xmm0
  00049	8d 4d e0	 lea	 ecx, DWORD PTR _szClipFormat$2[ebp]
  0004c	c6 45 ec 00	 mov	 BYTE PTR _aBufWnd$3[ebp+8], 0
  00050	ff 15 00 00 00
	00		 call	 DWORD PTR __imp_??0?$CStringT@DV?$StrTraitMFC_DLL@DV?$ChTraitsCRT@D@ATL@@@@@ATL@@QAE@XZ
  00056	68 00 00 00 00	 push	 OFFSET ??_C@_0M@CBBNGGHM@PcTrMng?4dll@
  0005b	c7 45 fc 00 00
	00 00		 mov	 DWORD PTR __$EHRec$[ebp+8], 0
  00062	ff 15 00 00 00
	00		 call	 DWORD PTR __imp__GetModuleHandleA@4
  00068	50		 push	 eax
  00069	68 00 00 00 00	 push	 OFFSET ??_C@_0BD@CMCCCNBF@HANAROIGATEMANAGER@
  0006e	8d 45 e0	 lea	 eax, DWORD PTR _szClipFormat$2[ebp]
  00071	68 00 00 00 00	 push	 OFFSET ??_C@_06NDLAHCHE@?$CFs?$CF08X@
  00076	50		 push	 eax
  00077	ff 15 00 00 00
	00		 call	 DWORD PTR __imp_?Format@?$CStringT@DV?$StrTraitMFC_DLL@DV?$ChTraitsCRT@D@ATL@@@@@ATL@@QAAXPBDZZ
  0007d	83 c4 10	 add	 esp, 16			; 00000010H
  00080	8d 45 e4	 lea	 eax, DWORD PTR _aBufWnd$3[ebp]
  00083	6a 09		 push	 9
  00085	50		 push	 eax
  00086	ff 75 e0	 push	 DWORD PTR _szClipFormat$2[ebp]
  00089	ff 15 00 00 00
	00		 call	 DWORD PTR __imp__GetEnvironmentVariableA@12
  0008f	56		 push	 esi
  00090	8d 45 e4	 lea	 eax, DWORD PTR _aBufWnd$3[ebp]
  00093	68 00 00 00 00	 push	 OFFSET ??_C@_02EMFKHFLK@?$CFX@
  00098	50		 push	 eax
  00099	e8 00 00 00 00	 call	 _sscanf
  0009e	83 c4 0c	 add	 esp, 12			; 0000000cH
  000a1	c7 45 fc ff ff
	ff ff		 mov	 DWORD PTR __$EHRec$[ebp+8], -1
  000a8	8d 4d e0	 lea	 ecx, DWORD PTR _szClipFormat$2[ebp]
  000ab	ff 15 00 00 00
	00		 call	 DWORD PTR __imp_??1?$CStringT@DV?$StrTraitMFC_DLL@DV?$ChTraitsCRT@D@ATL@@@@@ATL@@QAE@XZ

; 163  : 	if(m_pMultiChartWnd)

  000b1	8b 8f a4 02 00
	00		 mov	 ecx, DWORD PTR [edi+676]
  000b7	85 c9		 test	 ecx, ecx
  000b9	74 10		 je	 SHORT $LN2@OnInitDial

; 164  : 	{
; 165  : 		CStdDialog* pMainDlg = (CStdDialog*)m_pMultiChartWnd;
; 166  : 		pMainDlg->SetPermanentHandle(this);

  000bb	57		 push	 edi
  000bc	e8 00 00 00 00	 call	 ?SetPermanentHandle@CExOCXDLL@@QAEXPAVCWnd@@@Z ; CExOCXDLL::SetPermanentHandle

; 167  : //		m_pChartMng = pMainDlg->m_ChartMng;
; 168  : 
; 169  : 		m_pIL_W28H22 = &(pMainDlg->m_ImgList_W28H22); // 28  22  

  000c1	c7 87 bc 02 00
	00 00 00 00 00	 mov	 DWORD PTR [edi+700], OFFSET ?m_ImgList_W28H22@CStdDialog@@2VCImageList@@A ; CStdDialog::m_ImgList_W28H22
$LN2@OnInitDial:

; 170  : 	}
; 171  : 
; 172  : 	// TODO: Add extra initialization here
; 173  : 	ReadIniFile();

  000cb	6a 00		 push	 0
  000cd	8b cf		 mov	 ecx, edi
  000cf	e8 00 00 00 00	 call	 ?ReadIniFile@CDlgToolbar@@IAEXH@Z ; CDlgToolbar::ReadIniFile

; 174  : 	if(!CreateToolButton())

  000d4	8b cf		 mov	 ecx, edi
  000d6	e8 00 00 00 00	 call	 ?CreateToolButton@CDlgToolbar@@IAEHXZ ; CDlgToolbar::CreateToolButton
  000db	85 c0		 test	 eax, eax
  000dd	74 1d		 je	 SHORT $LN1@OnInitDial
$LN3@OnInitDial:

; 175  : 		return FALSE;
; 176  : 
; 177  : 	ResizeControl(25, 0);

  000df	8b 07		 mov	 eax, DWORD PTR [edi]
  000e1	8b cf		 mov	 ecx, edi
  000e3	6a 00		 push	 0
  000e5	6a 19		 push	 25			; 00000019H
  000e7	ff 90 94 01 00
	00		 call	 DWORD PTR [eax+404]

; 178  : 	m_bInit = TRUE;

  000ed	c7 87 74 03 00
	00 01 00 00 00	 mov	 DWORD PTR [edi+884], 1

; 179  : 	return TRUE;  // return TRUE unless you set the focus to a control

  000f7	b8 01 00 00 00	 mov	 eax, 1
$LN1@OnInitDial:

; 180  : 	              // EXCEPTION: OCX Property Pages should return FALSE
; 181  : }

  000fc	8b 4d f4	 mov	 ecx, DWORD PTR __$EHRec$[ebp]
  000ff	64 89 0d 00 00
	00 00		 mov	 DWORD PTR fs:0, ecx
  00106	59		 pop	 ecx
  00107	5f		 pop	 edi
  00108	5e		 pop	 esi
  00109	8b 4d f0	 mov	 ecx, DWORD PTR __$ArrayPad$[ebp]
  0010c	33 cd		 xor	 ecx, ebp
  0010e	e8 00 00 00 00	 call	 @__security_check_cookie@4
  00113	8b e5		 mov	 esp, ebp
  00115	5d		 pop	 ebp
  00116	c3		 ret	 0
_TEXT	ENDS
;	COMDAT text$x
text$x	SEGMENT
__unwindfunclet$?OnInitDialog@CDlgToolbar@@MAEHXZ$0:
  00000	8d 4d e0	 lea	 ecx, DWORD PTR _szClipFormat$2[ebp]
  00003	ff 25 00 00 00
	00		 jmp	 DWORD PTR __imp_??1?$CStringT@DV?$StrTraitMFC_DLL@DV?$ChTraitsCRT@D@ATL@@@@@ATL@@QAE@XZ
  00009	cc		 int	 3
  0000a	cc		 int	 3
  0000b	cc		 int	 3
  0000c	cc		 int	 3
  0000d	cc		 int	 3
__ehhandler$?OnInitDialog@CDlgToolbar@@MAEHXZ:
  0000e	90		 npad	 1
  0000f	90		 npad	 1
  00010	8b 54 24 08	 mov	 edx, DWORD PTR [esp+8]
  00014	8d 42 0c	 lea	 eax, DWORD PTR [edx+12]
  00017	8b 4a e0	 mov	 ecx, DWORD PTR [edx-32]
  0001a	33 c8		 xor	 ecx, eax
  0001c	e8 00 00 00 00	 call	 @__security_check_cookie@4
  00021	8b 4a fc	 mov	 ecx, DWORD PTR [edx-4]
  00024	33 c8		 xor	 ecx, eax
  00026	e8 00 00 00 00	 call	 @__security_check_cookie@4
  0002b	b8 00 00 00 00	 mov	 eax, OFFSET __ehfuncinfo$?OnInitDialog@CDlgToolbar@@MAEHXZ
  00030	e9 00 00 00 00	 jmp	 ___CxxFrameHandler3
text$x	ENDS
?OnInitDialog@CDlgToolbar@@MAEHXZ ENDP			; CDlgToolbar::OnInitDialog
; Function compile flags: /Ogtp
; File D:\git\src\IBK\IBK_DRFN\ProjSrc\SrcDrfn\Chart\MULTICHART\DlgToolbar.cpp
; File C:\Program Files (x86)\Microsoft Visual Studio\2019\Community\VC\Tools\MSVC\14.29.30133\atlmfc\include\afxwin2.inl
; File D:\git\src\IBK\IBK_DRFN\ProjSrc\SrcDrfn\Chart\MULTICHART\DlgToolbar.cpp
; File C:\Program Files (x86)\Microsoft Visual Studio\2019\Community\VC\Tools\MSVC\14.29.30133\atlmfc\include\afxcmn.inl
; File D:\git\src\IBK\IBK_DRFN\ProjSrc\SrcDrfn\Chart\MULTICHART\DlgToolbar.cpp
;	COMDAT ?PreTranslateMessage@CDlgToolbar@@MAEHPAUtagMSG@@@Z
_TEXT	SEGMENT
_pMsg$ = 8						; size = 4
?PreTranslateMessage@CDlgToolbar@@MAEHPAUtagMSG@@@Z PROC ; CDlgToolbar::PreTranslateMessage, COMDAT
; _this$ = ecx

; 755  : {

  00000	55		 push	 ebp
  00001	8b ec		 mov	 ebp, esp
  00003	56		 push	 esi
  00004	8b f1		 mov	 esi, ecx

; 757  : 	if(m_ToolTip.GetSafeHwnd())

  00006	8d 8e f8 01 00
	00		 lea	 ecx, DWORD PTR [esi+504]
; File C:\Program Files (x86)\Microsoft Visual Studio\2019\Community\VC\Tools\MSVC\14.29.30133\atlmfc\include\afxwin2.inl

; 25   : 	{ return this == NULL ? NULL : m_hWnd; }

  0000c	85 c9		 test	 ecx, ecx
  0000e	74 34		 je	 SHORT $LN2@PreTransla
; File D:\git\src\IBK\IBK_DRFN\ProjSrc\SrcDrfn\Chart\MULTICHART\DlgToolbar.cpp

; 757  : 	if(m_ToolTip.GetSafeHwnd())

  00010	83 79 20 00	 cmp	 DWORD PTR [ecx+32], 0
  00014	74 2e		 je	 SHORT $LN2@PreTransla

; 758  : 	{
; 759  : 		m_ToolTip.SetWindowPos(&CWnd::wndTopMost, 0, 0, 0, 0, SWP_NOSIZE|SWP_NOMOVE|SWP_NOACTIVATE|SWP_NOOWNERZORDER);

  00016	68 13 02 00 00	 push	 531			; 00000213H
  0001b	6a 00		 push	 0
  0001d	6a 00		 push	 0
  0001f	6a 00		 push	 0
  00021	6a 00		 push	 0
  00023	ff 35 00 00 00
	00		 push	 DWORD PTR __imp_?wndTopMost@CWnd@@2V1@B
  00029	e8 00 00 00 00	 call	 ?SetWindowPos@CWnd@@QAEHPBV1@HHHHI@Z ; CWnd::SetWindowPos
; File C:\Program Files (x86)\Microsoft Visual Studio\2019\Community\VC\Tools\MSVC\14.29.30133\atlmfc\include\afxcmn.inl

; 429  : 	{ ASSERT(::IsWindow(m_hWnd));  ::SendMessage(m_hWnd, TTM_RELAYEVENT, 0, (LPARAM)lpMsg); }

  0002e	ff 75 08	 push	 DWORD PTR _pMsg$[ebp]
  00031	6a 00		 push	 0
  00033	68 07 04 00 00	 push	 1031			; 00000407H
  00038	ff b6 18 02 00
	00		 push	 DWORD PTR [esi+536]
  0003e	ff 15 00 00 00
	00		 call	 DWORD PTR __imp__SendMessageA@16
$LN2@PreTransla:
; File D:\git\src\IBK\IBK_DRFN\ProjSrc\SrcDrfn\Chart\MULTICHART\DlgToolbar.cpp

; 764  : 	return CDialog::PreTranslateMessage(pMsg);

  00044	ff 75 08	 push	 DWORD PTR _pMsg$[ebp]
  00047	8b ce		 mov	 ecx, esi
  00049	e8 00 00 00 00	 call	 ?PreTranslateMessage@CDialog@@UAEHPAUtagMSG@@@Z ; CDialog::PreTranslateMessage
  0004e	5e		 pop	 esi

; 765  : }

  0004f	5d		 pop	 ebp
  00050	c2 04 00	 ret	 4
?PreTranslateMessage@CDlgToolbar@@MAEHPAUtagMSG@@@Z ENDP ; CDlgToolbar::PreTranslateMessage
_TEXT	ENDS
; Function compile flags: /Ogtp
; File D:\git\src\IBK\IBK_DRFN\ProjSrc\SrcDrfn\Chart\MULTICHART\DlgToolbar.cpp
; File C:\Program Files (x86)\Microsoft Visual Studio\2019\Community\VC\Tools\MSVC\14.29.30133\atlmfc\include\afxtempl.h
; File D:\git\src\IBK\IBK_DRFN\ProjSrc\SrcDrfn\Chart\MULTICHART\DlgToolbar.cpp
; File C:\Program Files (x86)\Microsoft Visual Studio\2019\Community\VC\Tools\MSVC\14.29.30133\atlmfc\include\afxtempl.h
; File D:\git\src\IBK\IBK_DRFN\ProjSrc\SrcDrfn\Chart\MULTICHART\DlgToolbar.cpp
; File C:\Program Files (x86)\Microsoft Visual Studio\2019\Community\VC\Tools\MSVC\14.29.30133\atlmfc\include\afxtempl.h
; File D:\git\src\IBK\IBK_DRFN\ProjSrc\SrcDrfn\Chart\MULTICHART\DlgToolbar.cpp
; File C:\Program Files (x86)\Microsoft Visual Studio\2019\Community\VC\Tools\MSVC\14.29.30133\atlmfc\include\afxwin2.inl
; File C:\Program Files (x86)\Microsoft Visual Studio\2019\Community\VC\Tools\MSVC\14.29.30133\atlmfc\include\atltypes.h
; File C:\Program Files (x86)\Microsoft Visual Studio\2019\Community\VC\Tools\MSVC\14.29.30133\atlmfc\include\afxwin2.inl
; File D:\git\src\IBK\IBK_DRFN\ProjSrc\SrcDrfn\Chart\MULTICHART\DlgToolbar.cpp
; File C:\Program Files (x86)\Microsoft Visual Studio\2019\Community\VC\Tools\MSVC\14.29.30133\atlmfc\include\afxwin2.inl
; File C:\Program Files (x86)\Microsoft Visual Studio\2019\Community\VC\Tools\MSVC\14.29.30133\atlmfc\include\atltypes.h
; File C:\Program Files (x86)\Microsoft Visual Studio\2019\Community\VC\Tools\MSVC\14.29.30133\atlmfc\include\afxwin2.inl
; File D:\git\src\IBK\IBK_DRFN\ProjSrc\SrcDrfn\Chart\MULTICHART\DlgToolbar.cpp
; File C:\Program Files (x86)\Microsoft Visual Studio\2019\Community\VC\Tools\MSVC\14.29.30133\atlmfc\include\afxtempl.h
; File D:\git\src\IBK\IBK_DRFN\ProjSrc\SrcDrfn\Chart\MULTICHART\DlgToolbar.cpp
; File C:\Program Files (x86)\Microsoft Visual Studio\2019\Community\VC\Tools\MSVC\14.29.30133\atlmfc\include\afxtempl.h
; File D:\git\src\IBK\IBK_DRFN\ProjSrc\SrcDrfn\Chart\MULTICHART\DlgToolbar.cpp
; File C:\Program Files (x86)\Microsoft Visual Studio\2019\Community\VC\Tools\MSVC\14.29.30133\atlmfc\include\afxtempl.h
; File D:\git\src\IBK\IBK_DRFN\ProjSrc\SrcDrfn\Chart\MULTICHART\DlgToolbar.cpp
; File C:\Program Files (x86)\Microsoft Visual Studio\2019\Community\VC\Tools\MSVC\14.29.30133\atlmfc\include\afxtempl.h
; File C:\Program Files (x86)\Microsoft Visual Studio\2019\Community\VC\Tools\MSVC\14.29.30133\atlmfc\include\cstringt.h
; File D:\git\src\IBK\IBK_DRFN\ProjSrc\SrcDrfn\Chart\MULTICHART\DlgToolbar.cpp
; File C:\Program Files (x86)\Microsoft Visual Studio\2019\Community\VC\Tools\MSVC\14.29.30133\atlmfc\include\afxwin2.inl
; File C:\Program Files (x86)\Microsoft Visual Studio\2019\Community\VC\Tools\MSVC\14.29.30133\atlmfc\include\atltypes.h
; File C:\Program Files (x86)\Microsoft Visual Studio\2019\Community\VC\Tools\MSVC\14.29.30133\atlmfc\include\afxwin2.inl
; File D:\git\src\IBK\IBK_DRFN\ProjSrc\SrcDrfn\Chart\MULTICHART\DlgToolbar.cpp
; File C:\Program Files (x86)\Microsoft Visual Studio\2019\Community\VC\Tools\MSVC\14.29.30133\atlmfc\include\afxwin2.inl
; File D:\git\src\IBK\IBK_DRFN\ProjSrc\SrcDrfn\Chart\MULTICHART\DlgToolbar.cpp
; File C:\Program Files (x86)\Microsoft Visual Studio\2019\Community\VC\Tools\MSVC\14.29.30133\atlmfc\include\afxwin2.inl
; File D:\git\src\IBK\IBK_DRFN\ProjSrc\SrcDrfn\Chart\MULTICHART\DlgToolbar.cpp
; File C:\Program Files (x86)\Microsoft Visual Studio\2019\Community\VC\Tools\MSVC\14.29.30133\atlmfc\include\cstringt.h
; File D:\git\src\IBK\IBK_DRFN\ProjSrc\SrcDrfn\Chart\MULTICHART\DlgToolbar.cpp
; File C:\Program Files (x86)\Microsoft Visual Studio\2019\Community\VC\Tools\MSVC\14.29.30133\atlmfc\include\afxwin2.inl
; File C:\Program Files (x86)\Microsoft Visual Studio\2019\Community\VC\Tools\MSVC\14.29.30133\atlmfc\include\atltypes.h
; File C:\Program Files (x86)\Microsoft Visual Studio\2019\Community\VC\Tools\MSVC\14.29.30133\atlmfc\include\afxwin2.inl
; File D:\git\src\IBK\IBK_DRFN\ProjSrc\SrcDrfn\Chart\MULTICHART\DlgToolbar.cpp
; File C:\Program Files (x86)\Microsoft Visual Studio\2019\Community\VC\Tools\MSVC\14.29.30133\atlmfc\include\afxwin2.inl
; File D:\git\src\IBK\IBK_DRFN\ProjSrc\SrcDrfn\Chart\MULTICHART\DlgToolbar.cpp
; File C:\Program Files (x86)\Microsoft Visual Studio\2019\Community\VC\Tools\MSVC\14.29.30133\atlmfc\include\afxwin2.inl
; File D:\git\src\IBK\IBK_DRFN\ProjSrc\SrcDrfn\Chart\MULTICHART\DlgToolbar.cpp
; File C:\Program Files (x86)\Microsoft Visual Studio\2019\Community\VC\Tools\MSVC\14.29.30133\atlmfc\include\cstringt.h
; File D:\git\src\IBK\IBK_DRFN\ProjSrc\SrcDrfn\Chart\MULTICHART\DlgToolbar.cpp
; File C:\Program Files (x86)\Microsoft Visual Studio\2019\Community\VC\Tools\MSVC\14.29.30133\atlmfc\include\afxwin2.inl
; File D:\git\src\IBK\IBK_DRFN\ProjSrc\SrcDrfn\Chart\MULTICHART\DlgToolbar.cpp
; File C:\Program Files (x86)\Microsoft Visual Studio\2019\Community\VC\Tools\MSVC\14.29.30133\atlmfc\include\afxwin2.inl
; File D:\git\src\IBK\IBK_DRFN\ProjSrc\SrcDrfn\Chart\MULTICHART\DlgToolbar.cpp
; File C:\Program Files (x86)\Microsoft Visual Studio\2019\Community\VC\Tools\MSVC\14.29.30133\atlmfc\include\cstringt.h
; File D:\git\src\IBK\IBK_DRFN\ProjSrc\SrcDrfn\Chart\MULTICHART\DlgToolbar.cpp
; File C:\Program Files (x86)\Microsoft Visual Studio\2019\Community\VC\Tools\MSVC\14.29.30133\atlmfc\include\afxwin2.inl
; File D:\git\src\IBK\IBK_DRFN\ProjSrc\SrcDrfn\Chart\MULTICHART\DlgToolbar.cpp
; File C:\Program Files (x86)\Microsoft Visual Studio\2019\Community\VC\Tools\MSVC\14.29.30133\atlmfc\include\afxwin2.inl
; File D:\git\src\IBK\IBK_DRFN\ProjSrc\SrcDrfn\Chart\MULTICHART\DlgToolbar.cpp
; File C:\Program Files (x86)\Microsoft Visual Studio\2019\Community\VC\Tools\MSVC\14.29.30133\atlmfc\include\cstringt.h
; File D:\git\src\IBK\IBK_DRFN\ProjSrc\SrcDrfn\Chart\MULTICHART\DlgToolbar.cpp
; File C:\Program Files (x86)\Microsoft Visual Studio\2019\Community\VC\Tools\MSVC\14.29.30133\atlmfc\include\afxwin2.inl
; File D:\git\src\IBK\IBK_DRFN\ProjSrc\SrcDrfn\Chart\MULTICHART\DlgToolbar.cpp
; File C:\Program Files (x86)\Microsoft Visual Studio\2019\Community\VC\Tools\MSVC\14.29.30133\atlmfc\include\afxwin2.inl
; File D:\git\src\IBK\IBK_DRFN\ProjSrc\SrcDrfn\Chart\MULTICHART\DlgToolbar.cpp
; File C:\Program Files (x86)\Microsoft Visual Studio\2019\Community\VC\Tools\MSVC\14.29.30133\atlmfc\include\cstringt.h
; File D:\git\src\IBK\IBK_DRFN\ProjSrc\SrcDrfn\Chart\MULTICHART\DlgToolbar.cpp
; File C:\Program Files (x86)\Microsoft Visual Studio\2019\Community\VC\Tools\MSVC\14.29.30133\atlmfc\include\afxwin2.inl
; File D:\git\src\IBK\IBK_DRFN\ProjSrc\SrcDrfn\Chart\MULTICHART\DlgToolbar.cpp
; File C:\Program Files (x86)\Microsoft Visual Studio\2019\Community\VC\Tools\MSVC\14.29.30133\atlmfc\include\afxwin2.inl
; File D:\git\src\IBK\IBK_DRFN\ProjSrc\SrcDrfn\Chart\MULTICHART\DlgToolbar.cpp
; File C:\Program Files (x86)\Microsoft Visual Studio\2019\Community\VC\Tools\MSVC\14.29.30133\atlmfc\include\cstringt.h
; File D:\git\src\IBK\IBK_DRFN\ProjSrc\SrcDrfn\Chart\MULTICHART\DlgToolbar.cpp
; File C:\Program Files (x86)\Microsoft Visual Studio\2019\Community\VC\Tools\MSVC\14.29.30133\atlmfc\include\afxwin2.inl
; File D:\git\src\IBK\IBK_DRFN\ProjSrc\SrcDrfn\Chart\MULTICHART\DlgToolbar.cpp
; File C:\Program Files (x86)\Microsoft Visual Studio\2019\Community\VC\Tools\MSVC\14.29.30133\atlmfc\include\afxwin2.inl
; File D:\git\src\IBK\IBK_DRFN\ProjSrc\SrcDrfn\Chart\MULTICHART\DlgToolbar.cpp
; File C:\Program Files (x86)\Microsoft Visual Studio\2019\Community\VC\Tools\MSVC\14.29.30133\atlmfc\include\cstringt.h
; File D:\git\src\IBK\IBK_DRFN\ProjSrc\SrcDrfn\Chart\MULTICHART\DlgToolbar.cpp
; File C:\Program Files (x86)\Microsoft Visual Studio\2019\Community\VC\Tools\MSVC\14.29.30133\atlmfc\include\afxwin2.inl
; File D:\git\src\IBK\IBK_DRFN\ProjSrc\SrcDrfn\Chart\MULTICHART\DlgToolbar.cpp
; File C:\Program Files (x86)\Microsoft Visual Studio\2019\Community\VC\Tools\MSVC\14.29.30133\atlmfc\include\afxwin2.inl
; File C:\Program Files (x86)\Microsoft Visual Studio\2019\Community\VC\Tools\MSVC\14.29.30133\atlmfc\include\cstringt.h
; File D:\git\src\IBK\IBK_DRFN\ProjSrc\SrcDrfn\Chart\MULTICHART\DlgToolbar.cpp
; File C:\Program Files (x86)\Microsoft Visual Studio\2019\Community\VC\Tools\MSVC\14.29.30133\atlmfc\include\afxwin2.inl
; File D:\git\src\IBK\IBK_DRFN\ProjSrc\SrcDrfn\Chart\MULTICHART\DlgToolbar.cpp
; File C:\Program Files (x86)\Microsoft Visual Studio\2019\Community\VC\Tools\MSVC\14.29.30133\atlmfc\include\afxwin2.inl
; File D:\git\src\IBK\IBK_DRFN\ProjSrc\SrcDrfn\Chart\MULTICHART\DlgToolbar.cpp
; File C:\Program Files (x86)\Microsoft Visual Studio\2019\Community\VC\Tools\MSVC\14.29.30133\atlmfc\include\cstringt.h
; File D:\git\src\IBK\IBK_DRFN\ProjSrc\SrcDrfn\Chart\MULTICHART\DlgToolbar.cpp
; File C:\Program Files (x86)\Microsoft Visual Studio\2019\Community\VC\Tools\MSVC\14.29.30133\atlmfc\include\afxwin2.inl
; File D:\git\src\IBK\IBK_DRFN\ProjSrc\SrcDrfn\Chart\MULTICHART\DlgToolbar.cpp
; File C:\Program Files (x86)\Microsoft Visual Studio\2019\Community\VC\Tools\MSVC\14.29.30133\atlmfc\include\afxwin2.inl
; File D:\git\src\IBK\IBK_DRFN\ProjSrc\SrcDrfn\Chart\MULTICHART\DlgToolbar.cpp
; File C:\Program Files (x86)\Microsoft Visual Studio\2019\Community\VC\Tools\MSVC\14.29.30133\atlmfc\include\cstringt.h
; File D:\git\src\IBK\IBK_DRFN\ProjSrc\SrcDrfn\Chart\MULTICHART\DlgToolbar.cpp
; File C:\Program Files (x86)\Microsoft Visual Studio\2019\Community\VC\Tools\MSVC\14.29.30133\atlmfc\include\cstringt.h
; File D:\git\src\IBK\IBK_DRFN\ProjSrc\SrcDrfn\Chart\MULTICHART\DlgToolbar.cpp
; File C:\Program Files (x86)\Microsoft Visual Studio\2019\Community\VC\Tools\MSVC\14.29.30133\atlmfc\include\cstringt.h
; File D:\git\src\IBK\IBK_DRFN\ProjSrc\SrcDrfn\Chart\MULTICHART\DlgToolbar.cpp
; File C:\Program Files (x86)\Microsoft Visual Studio\2019\Community\VC\Tools\MSVC\14.29.30133\atlmfc\include\afxwin2.inl
; File D:\git\src\IBK\IBK_DRFN\ProjSrc\SrcDrfn\Chart\MULTICHART\DlgToolbar.cpp
; File C:\Program Files (x86)\Microsoft Visual Studio\2019\Community\VC\Tools\MSVC\14.29.30133\atlmfc\include\afxwin2.inl
; File D:\git\src\IBK\IBK_DRFN\ProjSrc\SrcDrfn\Chart\MULTICHART\DlgToolbar.cpp
; File C:\Program Files (x86)\Microsoft Visual Studio\2019\Community\VC\Tools\MSVC\14.29.30133\atlmfc\include\cstringt.h
; File D:\git\src\IBK\IBK_DRFN\ProjSrc\SrcDrfn\Chart\MULTICHART\DlgToolbar.cpp
; File C:\Program Files (x86)\Microsoft Visual Studio\2019\Community\VC\Tools\MSVC\14.29.30133\atlmfc\include\afxwin2.inl
; File D:\git\src\IBK\IBK_DRFN\ProjSrc\SrcDrfn\Chart\MULTICHART\DlgToolbar.cpp
; File C:\Program Files (x86)\Microsoft Visual Studio\2019\Community\VC\Tools\MSVC\14.29.30133\atlmfc\include\afxwin2.inl
; File D:\git\src\IBK\IBK_DRFN\ProjSrc\SrcDrfn\Chart\MULTICHART\DlgToolbar.cpp
; File C:\Program Files (x86)\Microsoft Visual Studio\2019\Community\VC\Tools\MSVC\14.29.30133\atlmfc\include\cstringt.h
; File D:\git\src\IBK\IBK_DRFN\ProjSrc\SrcDrfn\Chart\MULTICHART\DlgToolbar.cpp
; File C:\Program Files (x86)\Microsoft Visual Studio\2019\Community\VC\Tools\MSVC\14.29.30133\atlmfc\include\afxwin2.inl
; File D:\git\src\IBK\IBK_DRFN\ProjSrc\SrcDrfn\Chart\MULTICHART\DlgToolbar.cpp
; File C:\Program Files (x86)\Microsoft Visual Studio\2019\Community\VC\Tools\MSVC\14.29.30133\atlmfc\include\afxwin2.inl
; File D:\git\src\IBK\IBK_DRFN\ProjSrc\SrcDrfn\Chart\MULTICHART\DlgToolbar.cpp
; File C:\Program Files (x86)\Microsoft Visual Studio\2019\Community\VC\Tools\MSVC\14.29.30133\atlmfc\include\cstringt.h
; File D:\git\src\IBK\IBK_DRFN\ProjSrc\SrcDrfn\Chart\MULTICHART\DlgToolbar.cpp
; File C:\Program Files (x86)\Microsoft Visual Studio\2019\Community\VC\Tools\MSVC\14.29.30133\atlmfc\include\afxwin2.inl
; File D:\git\src\IBK\IBK_DRFN\ProjSrc\SrcDrfn\Chart\MULTICHART\DlgToolbar.cpp
; File C:\Program Files (x86)\Microsoft Visual Studio\2019\Community\VC\Tools\MSVC\14.29.30133\atlmfc\include\cstringt.h
; File D:\git\src\IBK\IBK_DRFN\ProjSrc\SrcDrfn\Chart\MULTICHART\DlgToolbar.cpp
; File C:\Program Files (x86)\Microsoft Visual Studio\2019\Community\VC\Tools\MSVC\14.29.30133\atlmfc\include\afxwin2.inl
; File D:\git\src\IBK\IBK_DRFN\ProjSrc\SrcDrfn\Chart\MULTICHART\DlgToolbar.cpp
; File C:\Program Files (x86)\Microsoft Visual Studio\2019\Community\VC\Tools\MSVC\14.29.30133\atlmfc\include\cstringt.h
; File D:\git\src\IBK\IBK_DRFN\ProjSrc\SrcDrfn\Chart\MULTICHART\DlgToolbar.cpp
; File C:\Program Files (x86)\Microsoft Visual Studio\2019\Community\VC\Tools\MSVC\14.29.30133\atlmfc\include\afxwin2.inl
; File D:\git\src\IBK\IBK_DRFN\ProjSrc\SrcDrfn\Chart\MULTICHART\DlgToolbar.cpp
; File C:\Program Files (x86)\Microsoft Visual Studio\2019\Community\VC\Tools\MSVC\14.29.30133\atlmfc\include\afxwin2.inl
; File D:\git\src\IBK\IBK_DRFN\ProjSrc\SrcDrfn\Chart\MULTICHART\DlgToolbar.cpp
; File C:\Program Files (x86)\Microsoft Visual Studio\2019\Community\VC\Tools\MSVC\14.29.30133\atlmfc\include\afxwin2.inl
; File D:\git\src\IBK\IBK_DRFN\ProjSrc\SrcDrfn\Chart\MULTICHART\DlgToolbar.cpp
; File C:\Program Files (x86)\Microsoft Visual Studio\2019\Community\VC\Tools\MSVC\14.29.30133\atlmfc\include\cstringt.h
; File D:\git\src\IBK\IBK_DRFN\ProjSrc\SrcDrfn\Chart\MULTICHART\DlgToolbar.cpp
; File C:\Program Files (x86)\Microsoft Visual Studio\2019\Community\VC\Tools\MSVC\14.29.30133\atlmfc\include\afxwin2.inl
; File D:\git\src\IBK\IBK_DRFN\ProjSrc\SrcDrfn\Chart\MULTICHART\DlgToolbar.cpp
; File C:\Program Files (x86)\Microsoft Visual Studio\2019\Community\VC\Tools\MSVC\14.29.30133\atlmfc\include\afxwin2.inl
; File D:\git\src\IBK\IBK_DRFN\ProjSrc\SrcDrfn\Chart\MULTICHART\DlgToolbar.cpp
; File C:\Program Files (x86)\Microsoft Visual Studio\2019\Community\VC\Tools\MSVC\14.29.30133\atlmfc\include\cstringt.h
; File D:\git\src\IBK\IBK_DRFN\ProjSrc\SrcDrfn\Chart\MULTICHART\DlgToolbar.cpp
; File C:\Program Files (x86)\Microsoft Visual Studio\2019\Community\VC\Tools\MSVC\14.29.30133\atlmfc\include\afxwin2.inl
; File D:\git\src\IBK\IBK_DRFN\ProjSrc\SrcDrfn\Chart\MULTICHART\DlgToolbar.cpp
; File C:\Program Files (x86)\Microsoft Visual Studio\2019\Community\VC\Tools\MSVC\14.29.30133\atlmfc\include\cstringt.h
; File D:\git\src\IBK\IBK_DRFN\ProjSrc\SrcDrfn\Chart\MULTICHART\DlgToolbar.cpp
; File C:\Program Files (x86)\Microsoft Visual Studio\2019\Community\VC\Tools\MSVC\14.29.30133\atlmfc\include\afxwin2.inl
; File D:\git\src\IBK\IBK_DRFN\ProjSrc\SrcDrfn\Chart\MULTICHART\DlgToolbar.cpp
; File C:\Program Files (x86)\Microsoft Visual Studio\2019\Community\VC\Tools\MSVC\14.29.30133\atlmfc\include\afxwin2.inl
; File D:\git\src\IBK\IBK_DRFN\ProjSrc\SrcDrfn\Chart\MULTICHART\DlgToolbar.cpp
; File C:\Program Files (x86)\Microsoft Visual Studio\2019\Community\VC\Tools\MSVC\14.29.30133\atlmfc\include\afxtempl.h
; File D:\git\src\IBK\IBK_DRFN\ProjSrc\SrcDrfn\Chart\MULTICHART\DlgToolbar.cpp
; File C:\Program Files (x86)\Microsoft Visual Studio\2019\Community\VC\Tools\MSVC\14.29.30133\atlmfc\include\afxtempl.h
; File D:\git\src\IBK\IBK_DRFN\ProjSrc\SrcDrfn\Chart\MULTICHART\DlgToolbar.cpp
; File C:\Program Files (x86)\Microsoft Visual Studio\2019\Community\VC\Tools\MSVC\14.29.30133\atlmfc\include\afxtempl.h
; File C:\Program Files (x86)\Microsoft Visual Studio\2019\Community\VC\Tools\MSVC\14.29.30133\atlmfc\include\cstringt.h
; File D:\git\src\IBK\IBK_DRFN\ProjSrc\SrcDrfn\Chart\MULTICHART\DlgToolbar.cpp
; File C:\Program Files (x86)\Microsoft Visual Studio\2019\Community\VC\Tools\MSVC\14.29.30133\atlmfc\include\afxwin2.inl
; File D:\git\src\IBK\IBK_DRFN\ProjSrc\SrcDrfn\Chart\MULTICHART\DlgToolbar.cpp
; File C:\Program Files (x86)\Microsoft Visual Studio\2019\Community\VC\Tools\MSVC\14.29.30133\atlmfc\include\afxwin2.inl
; File D:\git\src\IBK\IBK_DRFN\ProjSrc\SrcDrfn\Chart\MULTICHART\DlgToolbar.cpp
; File C:\Program Files (x86)\Microsoft Visual Studio\2019\Community\VC\Tools\MSVC\14.29.30133\atlmfc\include\cstringt.h
; File D:\git\src\IBK\IBK_DRFN\ProjSrc\SrcDrfn\Chart\MULTICHART\DlgToolbar.cpp
; File C:\Program Files (x86)\Microsoft Visual Studio\2019\Community\VC\Tools\MSVC\14.29.30133\atlmfc\include\afxwin2.inl
; File D:\git\src\IBK\IBK_DRFN\ProjSrc\SrcDrfn\Chart\MULTICHART\DlgToolbar.cpp
; File C:\Program Files (x86)\Microsoft Visual Studio\2019\Community\VC\Tools\MSVC\14.29.30133\atlmfc\include\afxwin2.inl
; File D:\git\src\IBK\IBK_DRFN\ProjSrc\SrcDrfn\Chart\MULTICHART\DlgToolbar.cpp
; File C:\Program Files (x86)\Microsoft Visual Studio\2019\Community\VC\Tools\MSVC\14.29.30133\atlmfc\include\cstringt.h
; File D:\git\src\IBK\IBK_DRFN\ProjSrc\SrcDrfn\Chart\MULTICHART\DlgToolbar.cpp
; File C:\Program Files (x86)\Microsoft Visual Studio\2019\Community\VC\Tools\MSVC\14.29.30133\atlmfc\include\afxwin2.inl
; File D:\git\src\IBK\IBK_DRFN\ProjSrc\SrcDrfn\Chart\MULTICHART\DlgToolbar.cpp
; File C:\Program Files (x86)\Microsoft Visual Studio\2019\Community\VC\Tools\MSVC\14.29.30133\atlmfc\include\afxwin2.inl
; File D:\git\src\IBK\IBK_DRFN\ProjSrc\SrcDrfn\Chart\MULTICHART\DlgToolbar.cpp
; File C:\Program Files (x86)\Microsoft Visual Studio\2019\Community\VC\Tools\MSVC\14.29.30133\atlmfc\include\cstringt.h
; File D:\git\src\IBK\IBK_DRFN\ProjSrc\SrcDrfn\Chart\MULTICHART\DlgToolbar.cpp
; File C:\Program Files (x86)\Microsoft Visual Studio\2019\Community\VC\Tools\MSVC\14.29.30133\atlmfc\include\afxwin2.inl
; File D:\git\src\IBK\IBK_DRFN\ProjSrc\SrcDrfn\Chart\MULTICHART\DlgToolbar.cpp
; File C:\Program Files (x86)\Microsoft Visual Studio\2019\Community\VC\Tools\MSVC\14.29.30133\atlmfc\include\cstringt.h
; File D:\git\src\IBK\IBK_DRFN\ProjSrc\SrcDrfn\Chart\MULTICHART\DlgToolbar.cpp
; File C:\Program Files (x86)\Microsoft Visual Studio\2019\Community\VC\Tools\MSVC\14.29.30133\atlmfc\include\afxwin2.inl
; File D:\git\src\IBK\IBK_DRFN\ProjSrc\SrcDrfn\Chart\MULTICHART\DlgToolbar.cpp
; File C:\Program Files (x86)\Microsoft Visual Studio\2019\Community\VC\Tools\MSVC\14.29.30133\atlmfc\include\afxwin2.inl
; File D:\git\src\IBK\IBK_DRFN\ProjSrc\SrcDrfn\Chart\MULTICHART\DlgToolbar.cpp
; File C:\Program Files (x86)\Microsoft Visual Studio\2019\Community\VC\Tools\MSVC\14.29.30133\atlmfc\include\afxwin2.inl
; File D:\git\src\IBK\IBK_DRFN\ProjSrc\SrcDrfn\Chart\MULTICHART\DlgToolbar.cpp
; File C:\Program Files (x86)\Microsoft Visual Studio\2019\Community\VC\Tools\MSVC\14.29.30133\atlmfc\include\cstringt.h
; File D:\git\src\IBK\IBK_DRFN\ProjSrc\SrcDrfn\Chart\MULTICHART\DlgToolbar.cpp
; File C:\Program Files (x86)\Microsoft Visual Studio\2019\Community\VC\Tools\MSVC\14.29.30133\atlmfc\include\afxwin2.inl
; File D:\git\src\IBK\IBK_DRFN\ProjSrc\SrcDrfn\Chart\MULTICHART\DlgToolbar.cpp
; File C:\Program Files (x86)\Microsoft Visual Studio\2019\Community\VC\Tools\MSVC\14.29.30133\atlmfc\include\afxwin2.inl
; File D:\git\src\IBK\IBK_DRFN\ProjSrc\SrcDrfn\Chart\MULTICHART\DlgToolbar.cpp
; File C:\Program Files (x86)\Microsoft Visual Studio\2019\Community\VC\Tools\MSVC\14.29.30133\atlmfc\include\cstringt.h
; File D:\git\src\IBK\IBK_DRFN\ProjSrc\SrcDrfn\Chart\MULTICHART\DlgToolbar.cpp
; File C:\Program Files (x86)\Microsoft Visual Studio\2019\Community\VC\Tools\MSVC\14.29.30133\atlmfc\include\afxwin2.inl
; File D:\git\src\IBK\IBK_DRFN\ProjSrc\SrcDrfn\Chart\MULTICHART\DlgToolbar.cpp
; File C:\Program Files (x86)\Microsoft Visual Studio\2019\Community\VC\Tools\MSVC\14.29.30133\atlmfc\include\afxwin2.inl
; File D:\git\src\IBK\IBK_DRFN\ProjSrc\SrcDrfn\Chart\MULTICHART\DlgToolbar.cpp
; File C:\Program Files (x86)\Microsoft Visual Studio\2019\Community\VC\Tools\MSVC\14.29.30133\atlmfc\include\cstringt.h
; File D:\git\src\IBK\IBK_DRFN\ProjSrc\SrcDrfn\Chart\MULTICHART\DlgToolbar.cpp
; File C:\Program Files (x86)\Microsoft Visual Studio\2019\Community\VC\Tools\MSVC\14.29.30133\atlmfc\include\afxwin2.inl
; File D:\git\src\IBK\IBK_DRFN\ProjSrc\SrcDrfn\Chart\MULTICHART\DlgToolbar.cpp
; File C:\Program Files (x86)\Microsoft Visual Studio\2019\Community\VC\Tools\MSVC\14.29.30133\atlmfc\include\cstringt.h
; File D:\git\src\IBK\IBK_DRFN\ProjSrc\SrcDrfn\Chart\MULTICHART\DlgToolbar.cpp
; File C:\Program Files (x86)\Microsoft Visual Studio\2019\Community\VC\Tools\MSVC\14.29.30133\atlmfc\include\afxwin2.inl
; File D:\git\src\IBK\IBK_DRFN\ProjSrc\SrcDrfn\Chart\MULTICHART\DlgToolbar.cpp
; File C:\Program Files (x86)\Microsoft Visual Studio\2019\Community\VC\Tools\MSVC\14.29.30133\atlmfc\include\cstringt.h
; File D:\git\src\IBK\IBK_DRFN\ProjSrc\SrcDrfn\Chart\MULTICHART\DlgToolbar.cpp
; File C:\Program Files (x86)\Microsoft Visual Studio\2019\Community\VC\Tools\MSVC\14.29.30133\atlmfc\include\cstringt.h
; File D:\git\src\IBK\IBK_DRFN\ProjSrc\SrcDrfn\Chart\MULTICHART\DlgToolbar.cpp
; File C:\Program Files (x86)\Microsoft Visual Studio\2019\Community\VC\Tools\MSVC\14.29.30133\atlmfc\include\afxwin2.inl
; File D:\git\src\IBK\IBK_DRFN\ProjSrc\SrcDrfn\Chart\MULTICHART\DlgToolbar.cpp
; File C:\Program Files (x86)\Microsoft Visual Studio\2019\Community\VC\Tools\MSVC\14.29.30133\atlmfc\include\afxwin2.inl
; File D:\git\src\IBK\IBK_DRFN\ProjSrc\SrcDrfn\Chart\MULTICHART\DlgToolbar.cpp
; File C:\Program Files (x86)\Microsoft Visual Studio\2019\Community\VC\Tools\MSVC\14.29.30133\atlmfc\include\cstringt.h
; File D:\git\src\IBK\IBK_DRFN\ProjSrc\SrcDrfn\Chart\MULTICHART\DlgToolbar.cpp
; File C:\Program Files (x86)\Microsoft Visual Studio\2019\Community\VC\Tools\MSVC\14.29.30133\atlmfc\include\cstringt.h
; File D:\git\src\IBK\IBK_DRFN\ProjSrc\SrcDrfn\Chart\MULTICHART\DlgToolbar.cpp
; File C:\Program Files (x86)\Microsoft Visual Studio\2019\Community\VC\Tools\MSVC\14.29.30133\atlmfc\include\cstringt.h
; File D:\git\src\IBK\IBK_DRFN\ProjSrc\SrcDrfn\Chart\MULTICHART\DlgToolbar.cpp
; File C:\Program Files (x86)\Microsoft Visual Studio\2019\Community\VC\Tools\MSVC\14.29.30133\atlmfc\include\cstringt.h
; File D:\git\src\IBK\IBK_DRFN\ProjSrc\SrcDrfn\Chart\MULTICHART\DlgToolbar.cpp
; File C:\Program Files (x86)\Microsoft Visual Studio\2019\Community\VC\Tools\MSVC\14.29.30133\atlmfc\include\cstringt.h
; File D:\git\src\IBK\IBK_DRFN\ProjSrc\SrcDrfn\Chart\MULTICHART\DlgToolbar.cpp
; File C:\Program Files (x86)\Microsoft Visual Studio\2019\Community\VC\Tools\MSVC\14.29.30133\atlmfc\include\afxwin2.inl
; File D:\git\src\IBK\IBK_DRFN\ProjSrc\SrcDrfn\Chart\MULTICHART\DlgToolbar.cpp
; File C:\Program Files (x86)\Microsoft Visual Studio\2019\Community\VC\Tools\MSVC\14.29.30133\atlmfc\include\afxwin2.inl
; File D:\git\src\IBK\IBK_DRFN\ProjSrc\SrcDrfn\Chart\MULTICHART\DlgToolbar.cpp
; File C:\Program Files (x86)\Microsoft Visual Studio\2019\Community\VC\Tools\MSVC\14.29.30133\atlmfc\include\afxwin2.inl
; File D:\git\src\IBK\IBK_DRFN\ProjSrc\SrcDrfn\Chart\MULTICHART\DlgToolbar.cpp
; File C:\Program Files (x86)\Microsoft Visual Studio\2019\Community\VC\Tools\MSVC\14.29.30133\atlmfc\include\afxwin2.inl
; File D:\git\src\IBK\IBK_DRFN\ProjSrc\SrcDrfn\Chart\MULTICHART\DlgToolbar.cpp
;	COMDAT ?WindowProc@CDlgToolbar@@MAEJIIJ@Z
_TEXT	SEGMENT
_dlg$2 = -888						; size = 840
_pt$3 = -48						; size = 8
_pt$4 = -48						; size = 8
__ctlState$5 = -48					; size = 8
_nHashValue$6 = -44					; size = 4
_nHashValue$7 = -44					; size = 4
_nHashBucket$8 = -44					; size = 4
_nHashBucket$9 = -40					; size = 4
_nHashBucket$10 = -40					; size = 4
_nHashValue$11 = -40					; size = 4
_strToolName$12 = -40					; size = 4
_strToolName$13 = -36					; size = 4
_strToolName$14 = -36					; size = 4
_strToolName$15 = -36					; size = 4
_rect$16 = -32						; size = 16
_rect$17 = -32						; size = 16
_rt$18 = -32						; size = 16
_rt$19 = -32						; size = 16
__$ArrayPad$ = -16					; size = 4
__$EHRec$ = -12						; size = 12
_message$ = 8						; size = 4
_wParam$ = 12						; size = 4
_lParam$ = 16						; size = 4
?WindowProc@CDlgToolbar@@MAEJIIJ@Z PROC			; CDlgToolbar::WindowProc, COMDAT
; _this$ = ecx

; 768  : {

  00000	55		 push	 ebp
  00001	8b ec		 mov	 ebp, esp
  00003	6a ff		 push	 -1
  00005	68 00 00 00 00	 push	 __ehhandler$?WindowProc@CDlgToolbar@@MAEJIIJ@Z
  0000a	64 a1 00 00 00
	00		 mov	 eax, DWORD PTR fs:0
  00010	50		 push	 eax
  00011	81 ec 6c 03 00
	00		 sub	 esp, 876		; 0000036cH
  00017	a1 00 00 00 00	 mov	 eax, DWORD PTR ___security_cookie
  0001c	33 c5		 xor	 eax, ebp
  0001e	89 45 f0	 mov	 DWORD PTR __$ArrayPad$[ebp], eax
  00021	53		 push	 ebx
  00022	56		 push	 esi
  00023	57		 push	 edi
  00024	50		 push	 eax
  00025	8d 45 f4	 lea	 eax, DWORD PTR __$EHRec$[ebp]
  00028	64 a3 00 00 00
	00		 mov	 DWORD PTR fs:0, eax
  0002e	8b f9		 mov	 edi, ecx

; 769  : 	//@Solomon:091111SM018-->  PreTranslateMessage   WindowProc .
; 770  : // 	if( (message>=WM_MOUSEFIRST && message<=WM_MOUSELAST)
; 771  : // 		|| message==WM_NOTIFY
; 772  : // 		|| message==WM_SETCURSOR)
; 773  : // 	{
; 774  : // 		MSG msg;
; 775  : // 		msg.hwnd = m_hWnd;
; 776  : // 		msg.message = message;
; 777  : // 		msg.wParam = wParam;
; 778  : // 		msg.lParam = lParam;
; 779  : // 		msg.time = GetTickCount();
; 780  : // 		GetCursorPos(&msg.pt);
; 781  : // 		if(m_ToolTip.GetSafeHwnd())
; 782  : // 		{
; 783  : // 			m_ToolTip.RelayEvent(&msg);
; 784  : // 		}
; 785  : // 	}
; 786  : 
; 787  : 	if(message == UDM_CHARTBUTTON_CLICK)

  00030	8b 45 08	 mov	 eax, DWORD PTR _message$[ebp]
  00033	8b 75 0c	 mov	 esi, DWORD PTR _wParam$[ebp]
  00036	8b 5d 10	 mov	 ebx, DWORD PTR _lParam$[ebp]
  00039	3d 5a 06 00 00	 cmp	 eax, 1626		; 0000065aH
  0003e	0f 85 01 0d 00
	00		 jne	 $LN2@WindowProc

; 788  : 	{
; 789  : 		if(wParam == 3)	//Not Toggle Button Up

  00044	83 fe 03	 cmp	 esi, 3
  00047	0f 85 c2 08 00
	00		 jne	 $LN12@WindowProc

; 790  : 		{
; 791  : 			CWnd* wndButton = (CWnd *)lParam;
; 792  : 			int nIdx = wndButton->GetDlgCtrlID() - TOOL_BUTTON_BASE_ID;

  0004d	8b cb		 mov	 ecx, ebx
  0004f	e8 00 00 00 00	 call	 ?GetDlgCtrlID@CWnd@@QBEHXZ ; CWnd::GetDlgCtrlID
  00054	8b f0		 mov	 esi, eax
  00056	81 ee f4 01 00
	00		 sub	 esi, 500		; 000001f4H

; 793  : 			if(nIdx == 0)

  0005c	0f 85 b8 00 00
	00		 jne	 $LN5@WindowProc

; 794  : 			{				CString strToolName = "";

  00062	68 00 00 00 00	 push	 OFFSET ??_C@_00CNPNBAHC@@
  00067	8d 4d dc	 lea	 ecx, DWORD PTR _strToolName$15[ebp]
  0006a	ff 15 00 00 00
	00		 call	 DWORD PTR __imp_??0?$CStringT@DV?$StrTraitMFC_DLL@DV?$ChTraitsCRT@D@ATL@@@@@ATL@@QAE@PBD@Z
; File C:\Program Files (x86)\Microsoft Visual Studio\2019\Community\VC\Tools\MSVC\14.29.30133\atlmfc\include\afxtempl.h

; 1555 : 	CAssoc* pAssoc = GetAssocAt(key, nHashBucket, nHashValue);

  00070	8d 45 d8	 lea	 eax, DWORD PTR _nHashValue$11[ebp]
; File D:\git\src\IBK\IBK_DRFN\ProjSrc\SrcDrfn\Chart\MULTICHART\DlgToolbar.cpp

; 794  : 			{				CString strToolName = "";

  00073	89 75 fc	 mov	 DWORD PTR __$EHRec$[ebp+8], esi
; File C:\Program Files (x86)\Microsoft Visual Studio\2019\Community\VC\Tools\MSVC\14.29.30133\atlmfc\include\afxtempl.h

; 1555 : 	CAssoc* pAssoc = GetAssocAt(key, nHashBucket, nHashValue);

  00076	50		 push	 eax
  00077	8d 45 d4	 lea	 eax, DWORD PTR _nHashBucket$8[ebp]
  0007a	50		 push	 eax
  0007b	56		 push	 esi
; File D:\git\src\IBK\IBK_DRFN\ProjSrc\SrcDrfn\Chart\MULTICHART\DlgToolbar.cpp

; 795  : 				m_mapToolName.Lookup(nIdx, strToolName);

  0007c	8d 8f 10 03 00
	00		 lea	 ecx, DWORD PTR [edi+784]
; File C:\Program Files (x86)\Microsoft Visual Studio\2019\Community\VC\Tools\MSVC\14.29.30133\atlmfc\include\afxtempl.h

; 1555 : 	CAssoc* pAssoc = GetAssocAt(key, nHashBucket, nHashValue);

  00082	e8 00 00 00 00	 call	 ?GetAssocAt@?$CMap@HHV?$CStringT@DV?$StrTraitMFC_DLL@DV?$ChTraitsCRT@D@ATL@@@@@ATL@@V12@@@IBEPAVCAssoc@1@HAAI0@Z ; CMap<int,int,ATL::CStringT<char,StrTraitMFC_DLL<char,ATL::ChTraitsCRT<char> > >,ATL::CStringT<char,StrTraitMFC_DLL<char,ATL::ChTraitsCRT<char> > > >::GetAssocAt

; 1556 : 	if (pAssoc == NULL)

  00087	85 c0		 test	 eax, eax
  00089	74 0d		 je	 SHORT $LN124@WindowProc

; 1557 : 		return FALSE;  // not in map
; 1558 : 
; 1559 : 	rValue = pAssoc->value;

  0008b	83 c0 04	 add	 eax, 4
  0008e	8d 4d dc	 lea	 ecx, DWORD PTR _strToolName$15[ebp]
  00091	50		 push	 eax
  00092	ff 15 00 00 00
	00		 call	 DWORD PTR __imp_??4?$CStringT@DV?$StrTraitMFC_DLL@DV?$ChTraitsCRT@D@ATL@@@@@ATL@@QAEAAV01@ABV01@@Z
$LN124@WindowProc:
; File D:\git\src\IBK\IBK_DRFN\ProjSrc\SrcDrfn\Chart\MULTICHART\DlgToolbar.cpp

; 796  : 				m_nSelTool += 1;

  00098	ff 87 2c 03 00
	00		 inc	 DWORD PTR [edi+812]

; 797  : 				if(m_nSelTool>2)

  0009e	33 c9		 xor	 ecx, ecx
  000a0	8b 87 2c 03 00
	00		 mov	 eax, DWORD PTR [edi+812]
  000a6	83 f8 02	 cmp	 eax, 2
  000a9	0f 4f c1	 cmovg	 eax, ecx

; 798  : 					m_nSelTool = 0;
; 799  : 				//ResizeControl(25, 0);
; 800  : 				//20070105 by 
; 801  : 				//         /    
; 802  : 				if (m_nResizeFlag == 1)

  000ac	83 bf 60 03 00
	00 01		 cmp	 DWORD PTR [edi+864], 1
  000b3	89 87 2c 03 00
	00		 mov	 DWORD PTR [edi+812], eax
  000b9	75 06		 jne	 SHORT $LN8@WindowProc

; 803  : 				{
; 804  : 					m_nResizeFlag = 0;

  000bb	89 8f 60 03 00
	00		 mov	 DWORD PTR [edi+864], ecx
$LN8@WindowProc:

; 805  : 				}
; 806  : 
; 807  : 				m_pBtnUp->ShowWindow(FALSE);

  000c1	8b 8f 64 03 00
	00		 mov	 ecx, DWORD PTR [edi+868]
  000c7	6a 00		 push	 0
  000c9	e8 00 00 00 00	 call	 ?ShowWindow@CWnd@@QAEHH@Z ; CWnd::ShowWindow

; 808  : 				m_pBtnDown->ShowWindow(FALSE);

  000ce	8b 8f 68 03 00
	00		 mov	 ecx, DWORD PTR [edi+872]
  000d4	6a 00		 push	 0
  000d6	e8 00 00 00 00	 call	 ?ShowWindow@CWnd@@QAEHH@Z ; CWnd::ShowWindow

; 809  : 				//by  end
; 810  : 
; 811  : 				ResizeControl(25, 0);

  000db	8b 07		 mov	 eax, DWORD PTR [edi]
  000dd	8b cf		 mov	 ecx, edi
  000df	6a 00		 push	 0
  000e1	6a 19		 push	 25			; 00000019H
  000e3	ff 90 94 01 00
	00		 call	 DWORD PTR [eax+404]
; File C:\Program Files (x86)\Microsoft Visual Studio\2019\Community\VC\Tools\MSVC\14.29.30133\atlmfc\include\afxwin2.inl

; 86   : 	{ ASSERT(::IsWindow(m_hWnd)); ::GetClientRect(m_hWnd, lpRect); }

  000e9	8d 45 e0	 lea	 eax, DWORD PTR _rt$19[ebp]
  000ec	0f 57 c0	 xorps	 xmm0, xmm0
  000ef	50		 push	 eax
  000f0	ff 77 20	 push	 DWORD PTR [edi+32]
; File C:\Program Files (x86)\Microsoft Visual Studio\2019\Community\VC\Tools\MSVC\14.29.30133\atlmfc\include\atltypes.h

; 528  : 	left = 0;

  000f3	0f 11 45 e0	 movups	 XMMWORD PTR _rt$19[ebp], xmm0
; File C:\Program Files (x86)\Microsoft Visual Studio\2019\Community\VC\Tools\MSVC\14.29.30133\atlmfc\include\afxwin2.inl

; 86   : 	{ ASSERT(::IsWindow(m_hWnd)); ::GetClientRect(m_hWnd, lpRect); }

  000f7	ff 15 00 00 00
	00		 call	 DWORD PTR __imp__GetClientRect@8
; File D:\git\src\IBK\IBK_DRFN\ProjSrc\SrcDrfn\Chart\MULTICHART\DlgToolbar.cpp

; 818  : 				ResizeToolbar(rt.bottom);

  000fd	ff 75 ec	 push	 DWORD PTR _rt$19[ebp+12]
  00100	8b cf		 mov	 ecx, edi
  00102	e8 00 00 00 00	 call	 ?ResizeToolbar@CDlgToolbar@@IAEXH@Z ; CDlgToolbar::ResizeToolbar

; 819  : 				////by  end
; 820  : 			}

  00107	8d 4d dc	 lea	 ecx, DWORD PTR _strToolName$15[ebp]

; 1148 : 		
; 1149 : 		return 1L;

  0010a	ff 15 00 00 00
	00		 call	 DWORD PTR __imp_??1?$CStringT@DV?$StrTraitMFC_DLL@DV?$ChTraitsCRT@D@ATL@@@@@ATL@@QAE@XZ
  00110	b8 01 00 00 00	 mov	 eax, 1
  00115	e9 68 0c 00 00	 jmp	 $LN1@WindowProc
$LN5@WindowProc:

; 821  : 			else if(nIdx == 3)

  0011a	83 fe 03	 cmp	 esi, 3
  0011d	0f 85 58 01 00
	00		 jne	 $LN9@WindowProc

; 822  : 			{
; 823  : 				AFX_MANAGE_STATE(AfxGetStaticModuleState());

  00123	e8 00 00 00 00	 call	 ?AfxGetStaticModuleState@@YGPAVAFX_MODULE_STATE@@XZ ; AfxGetStaticModuleState
  00128	50		 push	 eax
  00129	8d 4d d0	 lea	 ecx, DWORD PTR __ctlState$5[ebp]
  0012c	e8 00 00 00 00	 call	 ??0AFX_MAINTAIN_STATE2@@QAE@PAVAFX_MODULE_STATE@@@Z ; AFX_MAINTAIN_STATE2::AFX_MAINTAIN_STATE2

; 824  : 				//HINSTANCE hInst = AfxGetResourceHandle();
; 825  : 				//AfxSetResourceHandle(g_hInstance);	
; 826  : 
; 827  : 				CDlgSettingToolBar dlg;

  00131	6a 00		 push	 0
  00133	8d 8d 88 fc ff
	ff		 lea	 ecx, DWORD PTR _dlg$2[ebp]
  00139	c7 45 fc 01 00
	00 00		 mov	 DWORD PTR __$EHRec$[ebp+8], 1
  00140	e8 00 00 00 00	 call	 ??0CDlgSettingToolBar@@QAE@PAVCWnd@@@Z ; CDlgSettingToolBar::CDlgSettingToolBar

; 828  : 				int nRet = dlg.DoModal();

  00145	8d 8d 88 fc ff
	ff		 lea	 ecx, DWORD PTR _dlg$2[ebp]
  0014b	c6 45 fc 02	 mov	 BYTE PTR __$EHRec$[ebp+8], 2
  0014f	e8 00 00 00 00	 call	 ?DoModal@CDialog@@UAEHXZ ; CDialog::DoModal

; 829  : 
; 830  : 				if(nRet==IDOK)

  00154	83 f8 01	 cmp	 eax, 1
  00157	75 61		 jne	 SHORT $LN10@WindowProc

; 831  : 				{
; 832  : 					ReadIniFile(TRUE);

  00159	50		 push	 eax
  0015a	8b cf		 mov	 ecx, edi
  0015c	e8 00 00 00 00	 call	 ?ReadIniFile@CDlgToolbar@@IAEXH@Z ; CDlgToolbar::ReadIniFile

; 833  : 					//20070105 by 
; 834  : 					//         /    
; 835  : 					if (m_nResizeFlag == 1)

  00161	83 bf 60 03 00
	00 01		 cmp	 DWORD PTR [edi+864], 1
  00168	75 0a		 jne	 SHORT $LN11@WindowProc

; 836  : 					{
; 837  : 						m_nResizeFlag = 0;

  0016a	c7 87 60 03 00
	00 00 00 00 00	 mov	 DWORD PTR [edi+864], 0
$LN11@WindowProc:

; 838  : 					}
; 839  : 
; 840  : 					m_pBtnUp->ShowWindow(FALSE);

  00174	8b 8f 64 03 00
	00		 mov	 ecx, DWORD PTR [edi+868]
  0017a	6a 00		 push	 0
  0017c	e8 00 00 00 00	 call	 ?ShowWindow@CWnd@@QAEHH@Z ; CWnd::ShowWindow

; 841  : 					m_pBtnDown->ShowWindow(FALSE);

  00181	8b 8f 68 03 00
	00		 mov	 ecx, DWORD PTR [edi+872]
  00187	6a 00		 push	 0
  00189	e8 00 00 00 00	 call	 ?ShowWindow@CWnd@@QAEHH@Z ; CWnd::ShowWindow

; 842  : 					ResizeControl(25, 0);

  0018e	8b 07		 mov	 eax, DWORD PTR [edi]
  00190	8b cf		 mov	 ecx, edi
  00192	6a 00		 push	 0
  00194	6a 19		 push	 25			; 00000019H
  00196	ff 90 94 01 00
	00		 call	 DWORD PTR [eax+404]
; File C:\Program Files (x86)\Microsoft Visual Studio\2019\Community\VC\Tools\MSVC\14.29.30133\atlmfc\include\afxwin2.inl

; 86   : 	{ ASSERT(::IsWindow(m_hWnd)); ::GetClientRect(m_hWnd, lpRect); }

  0019c	8d 45 e0	 lea	 eax, DWORD PTR _rt$18[ebp]
  0019f	0f 57 c0	 xorps	 xmm0, xmm0
  001a2	50		 push	 eax
  001a3	ff 77 20	 push	 DWORD PTR [edi+32]
; File C:\Program Files (x86)\Microsoft Visual Studio\2019\Community\VC\Tools\MSVC\14.29.30133\atlmfc\include\atltypes.h

; 528  : 	left = 0;

  001a6	0f 11 45 e0	 movups	 XMMWORD PTR _rt$18[ebp], xmm0
; File C:\Program Files (x86)\Microsoft Visual Studio\2019\Community\VC\Tools\MSVC\14.29.30133\atlmfc\include\afxwin2.inl

; 86   : 	{ ASSERT(::IsWindow(m_hWnd)); ::GetClientRect(m_hWnd, lpRect); }

  001aa	ff 15 00 00 00
	00		 call	 DWORD PTR __imp__GetClientRect@8
; File D:\git\src\IBK\IBK_DRFN\ProjSrc\SrcDrfn\Chart\MULTICHART\DlgToolbar.cpp

; 848  : 					ResizeToolbar(rt.bottom);

  001b0	ff 75 ec	 push	 DWORD PTR _rt$18[ebp+12]
  001b3	8b cf		 mov	 ecx, edi
  001b5	e8 00 00 00 00	 call	 ?ResizeToolbar@CDlgToolbar@@IAEXH@Z ; CDlgToolbar::ResizeToolbar
$LN10@WindowProc:
  001ba	8d 8d 50 ff ff
	ff		 lea	 ecx, DWORD PTR _dlg$2[ebp+712]
  001c0	e8 00 00 00 00	 call	 ??1CComboBox@@UAE@XZ	; CComboBox::~CComboBox
  001c5	8d 8d d0 fe ff
	ff		 lea	 ecx, DWORD PTR _dlg$2[ebp+584]
  001cb	e8 00 00 00 00	 call	 ??1CComboBox@@UAE@XZ	; CComboBox::~CComboBox
  001d0	8d 8d 50 fe ff
	ff		 lea	 ecx, DWORD PTR _dlg$2[ebp+456]
  001d6	e8 00 00 00 00	 call	 ??1CListBox@@UAE@XZ	; CListBox::~CListBox
  001db	8d 8d d0 fd ff
	ff		 lea	 ecx, DWORD PTR _dlg$2[ebp+328]
  001e1	e8 00 00 00 00	 call	 ??1CListBox@@UAE@XZ	; CListBox::~CListBox
  001e6	8d 8d a8 fd ff
	ff		 lea	 ecx, DWORD PTR _dlg$2[ebp+288]
  001ec	e8 00 00 00 00	 call	 ??1?$CMap@HHV?$CStringT@DV?$StrTraitMFC_DLL@DV?$ChTraitsCRT@D@ATL@@@@@ATL@@V12@@@UAE@XZ ; CMap<int,int,ATL::CStringT<char,StrTraitMFC_DLL<char,ATL::ChTraitsCRT<char> > >,ATL::CStringT<char,StrTraitMFC_DLL<char,ATL::ChTraitsCRT<char> > > >::~CMap<int,int,ATL::CStringT<char,StrTraitMFC_DLL<char,ATL::ChTraitsCRT<char> > >,ATL::CStringT<char,StrTraitMFC_DLL<char,ATL::ChTraitsCRT<char> > > >
  001f1	8d 8d 8c fd ff
	ff		 lea	 ecx, DWORD PTR _dlg$2[ebp+260]
  001f7	e8 00 00 00 00	 call	 ??1?$CMap@HHV?$CStringT@DV?$StrTraitMFC_DLL@DV?$ChTraitsCRT@D@ATL@@@@@ATL@@V12@@@UAE@XZ ; CMap<int,int,ATL::CStringT<char,StrTraitMFC_DLL<char,ATL::ChTraitsCRT<char> > >,ATL::CStringT<char,StrTraitMFC_DLL<char,ATL::ChTraitsCRT<char> > > >::~CMap<int,int,ATL::CStringT<char,StrTraitMFC_DLL<char,ATL::ChTraitsCRT<char> > >,ATL::CStringT<char,StrTraitMFC_DLL<char,ATL::ChTraitsCRT<char> > > >
  001fc	8d 8d 70 fd ff
	ff		 lea	 ecx, DWORD PTR _dlg$2[ebp+232]
  00202	e8 00 00 00 00	 call	 ??1?$CMap@HHV?$CStringT@DV?$StrTraitMFC_DLL@DV?$ChTraitsCRT@D@ATL@@@@@ATL@@V12@@@UAE@XZ ; CMap<int,int,ATL::CStringT<char,StrTraitMFC_DLL<char,ATL::ChTraitsCRT<char> > >,ATL::CStringT<char,StrTraitMFC_DLL<char,ATL::ChTraitsCRT<char> > > >::~CMap<int,int,ATL::CStringT<char,StrTraitMFC_DLL<char,ATL::ChTraitsCRT<char> > >,ATL::CStringT<char,StrTraitMFC_DLL<char,ATL::ChTraitsCRT<char> > > >
; File C:\Program Files (x86)\Microsoft Visual Studio\2019\Community\VC\Tools\MSVC\14.29.30133\atlmfc\include\afxtempl.h

; 358  : 	if (m_pData != NULL)

  00207	8b 85 60 fd ff
	ff		 mov	 eax, DWORD PTR _dlg$2[ebp+216]
  0020d	c7 85 5c fd ff
	ff 00 00 00 00	 mov	 DWORD PTR _dlg$2[ebp+212], OFFSET ??_7?$CArray@HH@@6B@
  00217	85 c0		 test	 eax, eax
  00219	74 09		 je	 SHORT $LN142@WindowProc

; 359  : 	{
; 360  : 		for( int i = 0; i < m_nSize; i++ )
; 361  : 			(m_pData + i)->~TYPE();
; 362  : 		delete[] (BYTE*)m_pData;

  0021b	50		 push	 eax
  0021c	e8 00 00 00 00	 call	 ??_V@YAXPAX@Z		; operator delete[]
  00221	83 c4 04	 add	 esp, 4
$LN142@WindowProc:

; 358  : 	if (m_pData != NULL)

  00224	8b 85 4c fd ff
	ff		 mov	 eax, DWORD PTR _dlg$2[ebp+196]
  0022a	c7 85 48 fd ff
	ff 00 00 00 00	 mov	 DWORD PTR _dlg$2[ebp+192], OFFSET ??_7?$CArray@HH@@6B@
  00234	85 c0		 test	 eax, eax
  00236	74 09		 je	 SHORT $LN149@WindowProc

; 359  : 	{
; 360  : 		for( int i = 0; i < m_nSize; i++ )
; 361  : 			(m_pData + i)->~TYPE();
; 362  : 		delete[] (BYTE*)m_pData;

  00238	50		 push	 eax
  00239	e8 00 00 00 00	 call	 ??_V@YAXPAX@Z		; operator delete[]
  0023e	83 c4 04	 add	 esp, 4
$LN149@WindowProc:

; 358  : 	if (m_pData != NULL)

  00241	8b 85 38 fd ff
	ff		 mov	 eax, DWORD PTR _dlg$2[ebp+176]
  00247	c7 85 34 fd ff
	ff 00 00 00 00	 mov	 DWORD PTR _dlg$2[ebp+172], OFFSET ??_7?$CArray@HH@@6B@
  00251	85 c0		 test	 eax, eax
  00253	74 09		 je	 SHORT $LN156@WindowProc

; 359  : 	{
; 360  : 		for( int i = 0; i < m_nSize; i++ )
; 361  : 			(m_pData + i)->~TYPE();
; 362  : 		delete[] (BYTE*)m_pData;

  00255	50		 push	 eax
  00256	e8 00 00 00 00	 call	 ??_V@YAXPAX@Z		; operator delete[]
  0025b	83 c4 04	 add	 esp, 4
$LN156@WindowProc:
  0025e	8d 8d 88 fc ff
	ff		 lea	 ecx, DWORD PTR _dlg$2[ebp]
  00264	e8 00 00 00 00	 call	 ??1CDialog@@UAE@XZ	; CDialog::~CDialog
; File D:\git\src\IBK\IBK_DRFN\ProjSrc\SrcDrfn\Chart\MULTICHART\DlgToolbar.cpp

; 852  : 			}

  00269	8d 4d d0	 lea	 ecx, DWORD PTR __ctlState$5[ebp]
  0026c	e8 00 00 00 00	 call	 ??1AFX_MAINTAIN_STATE2@@QAE@XZ ; AFX_MAINTAIN_STATE2::~AFX_MAINTAIN_STATE2

; 1148 : 		
; 1149 : 		return 1L;

  00271	b8 01 00 00 00	 mov	 eax, 1
  00276	e9 07 0b 00 00	 jmp	 $LN1@WindowProc
$LN9@WindowProc:

; 853  : 			if(nIdx > 3)

  0027b	0f 8e bd 0a 00
	00		 jle	 $LN97@WindowProc

; 855  : 				CString strToolName = "";

  00281	68 00 00 00 00	 push	 OFFSET ??_C@_00CNPNBAHC@@
  00286	8d 4d dc	 lea	 ecx, DWORD PTR _strToolName$14[ebp]
  00289	ff 15 00 00 00
	00		 call	 DWORD PTR __imp_??0?$CStringT@DV?$StrTraitMFC_DLL@DV?$ChTraitsCRT@D@ATL@@@@@ATL@@QAE@PBD@Z
; File C:\Program Files (x86)\Microsoft Visual Studio\2019\Community\VC\Tools\MSVC\14.29.30133\atlmfc\include\afxtempl.h

; 1555 : 	CAssoc* pAssoc = GetAssocAt(key, nHashBucket, nHashValue);

  0028f	8d 45 d4	 lea	 eax, DWORD PTR _nHashValue$7[ebp]
; File D:\git\src\IBK\IBK_DRFN\ProjSrc\SrcDrfn\Chart\MULTICHART\DlgToolbar.cpp

; 855  : 				CString strToolName = "";

  00292	c7 45 fc 03 00
	00 00		 mov	 DWORD PTR __$EHRec$[ebp+8], 3
; File C:\Program Files (x86)\Microsoft Visual Studio\2019\Community\VC\Tools\MSVC\14.29.30133\atlmfc\include\afxtempl.h

; 1555 : 	CAssoc* pAssoc = GetAssocAt(key, nHashBucket, nHashValue);

  00299	50		 push	 eax
  0029a	8d 45 d8	 lea	 eax, DWORD PTR _nHashBucket$10[ebp]
  0029d	50		 push	 eax
  0029e	56		 push	 esi
; File D:\git\src\IBK\IBK_DRFN\ProjSrc\SrcDrfn\Chart\MULTICHART\DlgToolbar.cpp

; 856  : 				m_mapToolName.Lookup(nIdx, strToolName);

  0029f	8d 8f 10 03 00
	00		 lea	 ecx, DWORD PTR [edi+784]
; File C:\Program Files (x86)\Microsoft Visual Studio\2019\Community\VC\Tools\MSVC\14.29.30133\atlmfc\include\afxtempl.h

; 1555 : 	CAssoc* pAssoc = GetAssocAt(key, nHashBucket, nHashValue);

  002a5	e8 00 00 00 00	 call	 ?GetAssocAt@?$CMap@HHV?$CStringT@DV?$StrTraitMFC_DLL@DV?$ChTraitsCRT@D@ATL@@@@@ATL@@V12@@@IBEPAVCAssoc@1@HAAI0@Z ; CMap<int,int,ATL::CStringT<char,StrTraitMFC_DLL<char,ATL::ChTraitsCRT<char> > >,ATL::CStringT<char,StrTraitMFC_DLL<char,ATL::ChTraitsCRT<char> > > >::GetAssocAt

; 1556 : 	if (pAssoc == NULL)

  002aa	85 c0		 test	 eax, eax
  002ac	74 0d		 je	 SHORT $LN159@WindowProc

; 1557 : 		return FALSE;  // not in map
; 1558 : 
; 1559 : 	rValue = pAssoc->value;

  002ae	83 c0 04	 add	 eax, 4
  002b1	8d 4d dc	 lea	 ecx, DWORD PTR _strToolName$14[ebp]
  002b4	50		 push	 eax
  002b5	ff 15 00 00 00
	00		 call	 DWORD PTR __imp_??4?$CStringT@DV?$StrTraitMFC_DLL@DV?$ChTraitsCRT@D@ATL@@@@@ATL@@QAEAAV01@ABV01@@Z
$LN159@WindowProc:
; File C:\Program Files (x86)\Microsoft Visual Studio\2019\Community\VC\Tools\MSVC\14.29.30133\atlmfc\include\cstringt.h

; 2486 : 		return(str1.Compare(psz2) == 0);

  002bb	68 00 00 00 00	 push	 OFFSET ??_C@_04ILLFIHBD@?$MA?z?$MA?e@
  002c0	8d 4d dc	 lea	 ecx, DWORD PTR _strToolName$14[ebp]
  002c3	ff 15 00 00 00
	00		 call	 DWORD PTR __imp_?Compare@?$CStringT@DV?$StrTraitMFC_DLL@DV?$ChTraitsCRT@D@ATL@@@@@ATL@@QBEHPBD@Z
  002c9	85 c0		 test	 eax, eax
; File D:\git\src\IBK\IBK_DRFN\ProjSrc\SrcDrfn\Chart\MULTICHART\DlgToolbar.cpp

; 858  : 				if(strToolName == "")

  002cb	75 62		 jne	 SHORT $LN13@WindowProc
; File C:\Program Files (x86)\Microsoft Visual Studio\2019\Community\VC\Tools\MSVC\14.29.30133\atlmfc\include\afxwin2.inl

; 84   : 	{ ASSERT(::IsWindow(m_hWnd)); ::GetWindowRect(m_hWnd, lpRect); }

  002cd	8d 45 e0	 lea	 eax, DWORD PTR _rect$17[ebp]
  002d0	0f 57 c0	 xorps	 xmm0, xmm0
  002d3	50		 push	 eax
  002d4	ff 73 20	 push	 DWORD PTR [ebx+32]
; File C:\Program Files (x86)\Microsoft Visual Studio\2019\Community\VC\Tools\MSVC\14.29.30133\atlmfc\include\atltypes.h

; 528  : 	left = 0;

  002d7	0f 11 45 e0	 movups	 XMMWORD PTR _rect$17[ebp], xmm0
; File C:\Program Files (x86)\Microsoft Visual Studio\2019\Community\VC\Tools\MSVC\14.29.30133\atlmfc\include\afxwin2.inl

; 84   : 	{ ASSERT(::IsWindow(m_hWnd)); ::GetWindowRect(m_hWnd, lpRect); }

  002db	ff 15 00 00 00
	00		 call	 DWORD PTR __imp__GetWindowRect@8
; File D:\git\src\IBK\IBK_DRFN\ProjSrc\SrcDrfn\Chart\MULTICHART\DlgToolbar.cpp

; 864  : 					pt.x = rect.left;

  002e1	8b 45 e0	 mov	 eax, DWORD PTR _rect$17[ebp]
  002e4	89 45 d0	 mov	 DWORD PTR _pt$4[ebp], eax

; 865  : 					pt.y = rect.bottom - 250;

  002e7	8b 45 ec	 mov	 eax, DWORD PTR _rect$17[ebp+12]
  002ea	05 06 ff ff ff	 add	 eax, -250		; ffffff06H
  002ef	89 45 d4	 mov	 DWORD PTR _pt$4[ebp+4], eax

; 867  : 					if(m_pChartMng->GetSafeHwnd()) // 2005. 04. 22 by Nam

  002f2	8b 87 a8 02 00
	00		 mov	 eax, DWORD PTR [edi+680]
; File C:\Program Files (x86)\Microsoft Visual Studio\2019\Community\VC\Tools\MSVC\14.29.30133\atlmfc\include\afxwin2.inl

; 25   : 	{ return this == NULL ? NULL : m_hWnd; }

  002f8	85 c0		 test	 eax, eax
  002fa	74 19		 je	 SHORT $LN15@WindowProc
  002fc	8b 40 20	 mov	 eax, DWORD PTR [eax+32]
; File D:\git\src\IBK\IBK_DRFN\ProjSrc\SrcDrfn\Chart\MULTICHART\DlgToolbar.cpp

; 867  : 					if(m_pChartMng->GetSafeHwnd()) // 2005. 04. 22 by Nam

  002ff	85 c0		 test	 eax, eax
  00301	74 12		 je	 SHORT $LN15@WindowProc
; File C:\Program Files (x86)\Microsoft Visual Studio\2019\Community\VC\Tools\MSVC\14.29.30133\atlmfc\include\afxwin2.inl

; 32   : 	{ ASSERT(::IsWindow(m_hWnd)); return ::SendMessage(m_hWnd, message, wParam, lParam); }

  00303	8d 4d d0	 lea	 ecx, DWORD PTR _pt$4[ebp]
  00306	51		 push	 ecx
  00307	6a 00		 push	 0
  00309	68 16 04 00 00	 push	 1046			; 00000416H
  0030e	50		 push	 eax
  0030f	ff 15 00 00 00
	00		 call	 DWORD PTR __imp__SendMessageA@16
$LN15@WindowProc:
; File D:\git\src\IBK\IBK_DRFN\ProjSrc\SrcDrfn\Chart\MULTICHART\DlgToolbar.cpp

; 869  : 					SelectToolSelection();

  00315	8b cf		 mov	 ecx, edi
  00317	e8 00 00 00 00	 call	 ?SelectToolSelection@CDlgToolbar@@QAEXXZ ; CDlgToolbar::SelectToolSelection

; 1005 : 			}

  0031c	8d 4d dc	 lea	 ecx, DWORD PTR _strToolName$14[ebp]

; 1148 : 		
; 1149 : 		return 1L;

  0031f	ff 15 00 00 00
	00		 call	 DWORD PTR __imp_??1?$CStringT@DV?$StrTraitMFC_DLL@DV?$ChTraitsCRT@D@ATL@@@@@ATL@@QAE@XZ
  00325	b8 01 00 00 00	 mov	 eax, 1
  0032a	e9 53 0a 00 00	 jmp	 $LN1@WindowProc
$LN13@WindowProc:
; File C:\Program Files (x86)\Microsoft Visual Studio\2019\Community\VC\Tools\MSVC\14.29.30133\atlmfc\include\cstringt.h

; 2486 : 		return(str1.Compare(psz2) == 0);

  0032f	68 00 00 00 00	 push	 OFFSET ??_C@_08MBBCHGKM@?$LK?R?$LH?$KP?$LP?$MA?$LB?b@
  00334	8d 4d dc	 lea	 ecx, DWORD PTR _strToolName$14[ebp]
  00337	ff 15 00 00 00
	00		 call	 DWORD PTR __imp_?Compare@?$CStringT@DV?$StrTraitMFC_DLL@DV?$ChTraitsCRT@D@ATL@@@@@ATL@@QBEHPBD@Z
  0033d	85 c0		 test	 eax, eax
; File D:\git\src\IBK\IBK_DRFN\ProjSrc\SrcDrfn\Chart\MULTICHART\DlgToolbar.cpp

; 871  : 				else if(strToolName == "")

  0033f	75 5d		 jne	 SHORT $LN16@WindowProc
; File C:\Program Files (x86)\Microsoft Visual Studio\2019\Community\VC\Tools\MSVC\14.29.30133\atlmfc\include\afxwin2.inl

; 84   : 	{ ASSERT(::IsWindow(m_hWnd)); ::GetWindowRect(m_hWnd, lpRect); }

  00341	8d 45 e0	 lea	 eax, DWORD PTR _rect$16[ebp]
  00344	0f 57 c0	 xorps	 xmm0, xmm0
  00347	50		 push	 eax
  00348	ff 73 20	 push	 DWORD PTR [ebx+32]
; File C:\Program Files (x86)\Microsoft Visual Studio\2019\Community\VC\Tools\MSVC\14.29.30133\atlmfc\include\atltypes.h

; 528  : 	left = 0;

  0034b	0f 11 45 e0	 movups	 XMMWORD PTR _rect$16[ebp], xmm0
; File C:\Program Files (x86)\Microsoft Visual Studio\2019\Community\VC\Tools\MSVC\14.29.30133\atlmfc\include\afxwin2.inl

; 84   : 	{ ASSERT(::IsWindow(m_hWnd)); ::GetWindowRect(m_hWnd, lpRect); }

  0034f	ff 15 00 00 00
	00		 call	 DWORD PTR __imp__GetWindowRect@8
; File D:\git\src\IBK\IBK_DRFN\ProjSrc\SrcDrfn\Chart\MULTICHART\DlgToolbar.cpp

; 878  : 					pt.x = rect.left;

  00355	8b 45 e0	 mov	 eax, DWORD PTR _rect$16[ebp]
  00358	89 45 d0	 mov	 DWORD PTR _pt$3[ebp], eax

; 879  : 					pt.y = rect.bottom;

  0035b	8b 45 ec	 mov	 eax, DWORD PTR _rect$16[ebp+12]
  0035e	89 45 d4	 mov	 DWORD PTR _pt$3[ebp+4], eax

; 881  : 					if(m_pChartMng->GetSafeHwnd()) // 2005. 04. 22 by Nam

  00361	8b 87 a8 02 00
	00		 mov	 eax, DWORD PTR [edi+680]
; File C:\Program Files (x86)\Microsoft Visual Studio\2019\Community\VC\Tools\MSVC\14.29.30133\atlmfc\include\afxwin2.inl

; 25   : 	{ return this == NULL ? NULL : m_hWnd; }

  00367	85 c0		 test	 eax, eax
  00369	74 19		 je	 SHORT $LN18@WindowProc
  0036b	8b 40 20	 mov	 eax, DWORD PTR [eax+32]
; File D:\git\src\IBK\IBK_DRFN\ProjSrc\SrcDrfn\Chart\MULTICHART\DlgToolbar.cpp

; 881  : 					if(m_pChartMng->GetSafeHwnd()) // 2005. 04. 22 by Nam

  0036e	85 c0		 test	 eax, eax
  00370	74 12		 je	 SHORT $LN18@WindowProc
; File C:\Program Files (x86)\Microsoft Visual Studio\2019\Community\VC\Tools\MSVC\14.29.30133\atlmfc\include\afxwin2.inl

; 32   : 	{ ASSERT(::IsWindow(m_hWnd)); return ::SendMessage(m_hWnd, message, wParam, lParam); }

  00372	8d 4d d0	 lea	 ecx, DWORD PTR _pt$3[ebp]
  00375	51		 push	 ecx
  00376	6a 00		 push	 0
  00378	68 15 04 00 00	 push	 1045			; 00000415H
  0037d	50		 push	 eax
  0037e	ff 15 00 00 00
	00		 call	 DWORD PTR __imp__SendMessageA@16
$LN18@WindowProc:
; File D:\git\src\IBK\IBK_DRFN\ProjSrc\SrcDrfn\Chart\MULTICHART\DlgToolbar.cpp

; 883  : 					SelectToolSelection();

  00384	8b cf		 mov	 ecx, edi
  00386	e8 00 00 00 00	 call	 ?SelectToolSelection@CDlgToolbar@@QAEXXZ ; CDlgToolbar::SelectToolSelection

; 1005 : 			}

  0038b	8d 4d dc	 lea	 ecx, DWORD PTR _strToolName$14[ebp]

; 1148 : 		
; 1149 : 		return 1L;

  0038e	ff 15 00 00 00
	00		 call	 DWORD PTR __imp_??1?$CStringT@DV?$StrTraitMFC_DLL@DV?$ChTraitsCRT@D@ATL@@@@@ATL@@QAE@XZ
  00394	b8 01 00 00 00	 mov	 eax, 1
  00399	e9 e4 09 00 00	 jmp	 $LN1@WindowProc
$LN16@WindowProc:
; File C:\Program Files (x86)\Microsoft Visual Studio\2019\Community\VC\Tools\MSVC\14.29.30133\atlmfc\include\cstringt.h

; 2486 : 		return(str1.Compare(psz2) == 0);

  0039e	68 00 00 00 00	 push	 OFFSET ??_C@_04OGFGOPBG@?$MA?N?$LM?b@
  003a3	8d 4d dc	 lea	 ecx, DWORD PTR _strToolName$14[ebp]
  003a6	ff 15 00 00 00
	00		 call	 DWORD PTR __imp_?Compare@?$CStringT@DV?$StrTraitMFC_DLL@DV?$ChTraitsCRT@D@ATL@@@@@ATL@@QBEHPBD@Z
  003ac	85 c0		 test	 eax, eax
; File D:\git\src\IBK\IBK_DRFN\ProjSrc\SrcDrfn\Chart\MULTICHART\DlgToolbar.cpp

; 885  : 				else if(strToolName == "")

  003ae	75 43		 jne	 SHORT $LN19@WindowProc

; 888  : 					if(m_pChartMng->GetSafeHwnd()) // 2005. 04. 22 by Nam

  003b0	8b 87 a8 02 00
	00		 mov	 eax, DWORD PTR [edi+680]
; File C:\Program Files (x86)\Microsoft Visual Studio\2019\Community\VC\Tools\MSVC\14.29.30133\atlmfc\include\afxwin2.inl

; 25   : 	{ return this == NULL ? NULL : m_hWnd; }

  003b6	85 c0		 test	 eax, eax
  003b8	0f 84 d0 01 00
	00		 je	 $LN39@WindowProc
  003be	8b 40 20	 mov	 eax, DWORD PTR [eax+32]
; File D:\git\src\IBK\IBK_DRFN\ProjSrc\SrcDrfn\Chart\MULTICHART\DlgToolbar.cpp

; 888  : 					if(m_pChartMng->GetSafeHwnd()) // 2005. 04. 22 by Nam

  003c1	85 c0		 test	 eax, eax
  003c3	0f 84 c5 01 00
	00		 je	 $LN39@WindowProc
; File C:\Program Files (x86)\Microsoft Visual Studio\2019\Community\VC\Tools\MSVC\14.29.30133\atlmfc\include\afxwin2.inl

; 32   : 	{ ASSERT(::IsWindow(m_hWnd)); return ::SendMessage(m_hWnd, message, wParam, lParam); }

  003c9	6a 00		 push	 0
  003cb	6a 00		 push	 0
  003cd	68 c7 04 00 00	 push	 1223			; 000004c7H
; File D:\git\src\IBK\IBK_DRFN\ProjSrc\SrcDrfn\Chart\MULTICHART\DlgToolbar.cpp

; 926  : 					SelectToolSelection();

  003d2	50		 push	 eax
  003d3	ff 15 00 00 00
	00		 call	 DWORD PTR __imp__SendMessageA@16
  003d9	8b cf		 mov	 ecx, edi
  003db	e8 00 00 00 00	 call	 ?SelectToolSelection@CDlgToolbar@@QAEXXZ ; CDlgToolbar::SelectToolSelection

; 1005 : 			}

  003e0	8d 4d dc	 lea	 ecx, DWORD PTR _strToolName$14[ebp]

; 1148 : 		
; 1149 : 		return 1L;

  003e3	ff 15 00 00 00
	00		 call	 DWORD PTR __imp_??1?$CStringT@DV?$StrTraitMFC_DLL@DV?$ChTraitsCRT@D@ATL@@@@@ATL@@QAE@XZ
  003e9	b8 01 00 00 00	 mov	 eax, 1
  003ee	e9 8f 09 00 00	 jmp	 $LN1@WindowProc
$LN19@WindowProc:
; File C:\Program Files (x86)\Microsoft Visual Studio\2019\Community\VC\Tools\MSVC\14.29.30133\atlmfc\include\cstringt.h

; 2486 : 		return(str1.Compare(psz2) == 0);

  003f3	68 00 00 00 00	 push	 OFFSET ??_C@_09COBNEPKD@Excel?$LK?$KP?H?$KP@
  003f8	8d 4d dc	 lea	 ecx, DWORD PTR _strToolName$14[ebp]
  003fb	ff 15 00 00 00
	00		 call	 DWORD PTR __imp_?Compare@?$CStringT@DV?$StrTraitMFC_DLL@DV?$ChTraitsCRT@D@ATL@@@@@ATL@@QBEHPBD@Z
  00401	85 c0		 test	 eax, eax
; File D:\git\src\IBK\IBK_DRFN\ProjSrc\SrcDrfn\Chart\MULTICHART\DlgToolbar.cpp

; 892  : 				else if(strToolName == "Excel")

  00403	75 43		 jne	 SHORT $LN22@WindowProc

; 894  : 					if(m_pChartMng->GetSafeHwnd()) // 2005. 04. 22 by Nam

  00405	8b 87 a8 02 00
	00		 mov	 eax, DWORD PTR [edi+680]
; File C:\Program Files (x86)\Microsoft Visual Studio\2019\Community\VC\Tools\MSVC\14.29.30133\atlmfc\include\afxwin2.inl

; 25   : 	{ return this == NULL ? NULL : m_hWnd; }

  0040b	85 c0		 test	 eax, eax
  0040d	0f 84 7b 01 00
	00		 je	 $LN39@WindowProc
  00413	8b 40 20	 mov	 eax, DWORD PTR [eax+32]
; File D:\git\src\IBK\IBK_DRFN\ProjSrc\SrcDrfn\Chart\MULTICHART\DlgToolbar.cpp

; 894  : 					if(m_pChartMng->GetSafeHwnd()) // 2005. 04. 22 by Nam

  00416	85 c0		 test	 eax, eax
  00418	0f 84 70 01 00
	00		 je	 $LN39@WindowProc
; File C:\Program Files (x86)\Microsoft Visual Studio\2019\Community\VC\Tools\MSVC\14.29.30133\atlmfc\include\afxwin2.inl

; 32   : 	{ ASSERT(::IsWindow(m_hWnd)); return ::SendMessage(m_hWnd, message, wParam, lParam); }

  0041e	6a 00		 push	 0
  00420	6a 00		 push	 0
  00422	68 c8 04 00 00	 push	 1224			; 000004c8H
; File D:\git\src\IBK\IBK_DRFN\ProjSrc\SrcDrfn\Chart\MULTICHART\DlgToolbar.cpp

; 926  : 					SelectToolSelection();

  00427	50		 push	 eax
  00428	ff 15 00 00 00
	00		 call	 DWORD PTR __imp__SendMessageA@16
  0042e	8b cf		 mov	 ecx, edi
  00430	e8 00 00 00 00	 call	 ?SelectToolSelection@CDlgToolbar@@QAEXXZ ; CDlgToolbar::SelectToolSelection

; 1005 : 			}

  00435	8d 4d dc	 lea	 ecx, DWORD PTR _strToolName$14[ebp]

; 1148 : 		
; 1149 : 		return 1L;

  00438	ff 15 00 00 00
	00		 call	 DWORD PTR __imp_??1?$CStringT@DV?$StrTraitMFC_DLL@DV?$ChTraitsCRT@D@ATL@@@@@ATL@@QAE@XZ
  0043e	b8 01 00 00 00	 mov	 eax, 1
  00443	e9 3a 09 00 00	 jmp	 $LN1@WindowProc
$LN22@WindowProc:
; File C:\Program Files (x86)\Microsoft Visual Studio\2019\Community\VC\Tools\MSVC\14.29.30133\atlmfc\include\cstringt.h

; 2486 : 		return(str1.Compare(psz2) == 0);

  00448	68 00 00 00 00	 push	 OFFSET ??_C@_0L@NNFDJLGM@?$MA?Z?$LF?$LP?C?$NP?$LM?$LM?$LM?$LB@
  0044d	8d 4d dc	 lea	 ecx, DWORD PTR _strToolName$14[ebp]
  00450	ff 15 00 00 00
	00		 call	 DWORD PTR __imp_?Compare@?$CStringT@DV?$StrTraitMFC_DLL@DV?$ChTraitsCRT@D@ATL@@@@@ATL@@QBEHPBD@Z
  00456	85 c0		 test	 eax, eax
; File D:\git\src\IBK\IBK_DRFN\ProjSrc\SrcDrfn\Chart\MULTICHART\DlgToolbar.cpp

; 898  : 				else if(strToolName == "")

  00458	75 3c		 jne	 SHORT $LN25@WindowProc

; 900  : 					if(m_pChartMng->GetSafeHwnd()) // 2005. 04. 22 by Nam

  0045a	8b 87 a8 02 00
	00		 mov	 eax, DWORD PTR [edi+680]
; File C:\Program Files (x86)\Microsoft Visual Studio\2019\Community\VC\Tools\MSVC\14.29.30133\atlmfc\include\afxwin2.inl

; 25   : 	{ return this == NULL ? NULL : m_hWnd; }

  00460	85 c0		 test	 eax, eax
  00462	0f 84 94 04 00
	00		 je	 $LN46@WindowProc
  00468	8b 40 20	 mov	 eax, DWORD PTR [eax+32]
; File D:\git\src\IBK\IBK_DRFN\ProjSrc\SrcDrfn\Chart\MULTICHART\DlgToolbar.cpp

; 900  : 					if(m_pChartMng->GetSafeHwnd()) // 2005. 04. 22 by Nam

  0046b	85 c0		 test	 eax, eax
  0046d	0f 84 89 04 00
	00		 je	 $LN46@WindowProc
; File C:\Program Files (x86)\Microsoft Visual Studio\2019\Community\VC\Tools\MSVC\14.29.30133\atlmfc\include\afxwin2.inl

; 32   : 	{ ASSERT(::IsWindow(m_hWnd)); return ::SendMessage(m_hWnd, message, wParam, lParam); }

  00473	6a 00		 push	 0
  00475	6a 04		 push	 4
  00477	68 4a 04 00 00	 push	 1098			; 0000044aH
; File D:\git\src\IBK\IBK_DRFN\ProjSrc\SrcDrfn\Chart\MULTICHART\DlgToolbar.cpp

; 1005 : 			}

  0047c	50		 push	 eax
  0047d	ff 15 00 00 00
	00		 call	 DWORD PTR __imp__SendMessageA@16
  00483	8d 4d dc	 lea	 ecx, DWORD PTR _strToolName$14[ebp]

; 1148 : 		
; 1149 : 		return 1L;

  00486	ff 15 00 00 00
	00		 call	 DWORD PTR __imp_??1?$CStringT@DV?$StrTraitMFC_DLL@DV?$ChTraitsCRT@D@ATL@@@@@ATL@@QAE@XZ
  0048c	b8 01 00 00 00	 mov	 eax, 1
  00491	e9 ec 08 00 00	 jmp	 $LN1@WindowProc
$LN25@WindowProc:
; File C:\Program Files (x86)\Microsoft Visual Studio\2019\Community\VC\Tools\MSVC\14.29.30133\atlmfc\include\cstringt.h

; 2486 : 		return(str1.Compare(psz2) == 0);

  00496	68 00 00 00 00	 push	 OFFSET ??_C@_08FGFLHNHO@?C?$NP?$LM?$LM?F?P?E?O@
  0049b	8d 4d dc	 lea	 ecx, DWORD PTR _strToolName$14[ebp]
  0049e	ff 15 00 00 00
	00		 call	 DWORD PTR __imp_?Compare@?$CStringT@DV?$StrTraitMFC_DLL@DV?$ChTraitsCRT@D@ATL@@@@@ATL@@QBEHPBD@Z
  004a4	85 c0		 test	 eax, eax
; File D:\git\src\IBK\IBK_DRFN\ProjSrc\SrcDrfn\Chart\MULTICHART\DlgToolbar.cpp

; 904  : 				else if(strToolName == "")

  004a6	75 3c		 jne	 SHORT $LN28@WindowProc

; 906  : 					if(m_pChartMng->GetSafeHwnd()) // 2005. 04. 22 by Nam

  004a8	8b 87 a8 02 00
	00		 mov	 eax, DWORD PTR [edi+680]
; File C:\Program Files (x86)\Microsoft Visual Studio\2019\Community\VC\Tools\MSVC\14.29.30133\atlmfc\include\afxwin2.inl

; 25   : 	{ return this == NULL ? NULL : m_hWnd; }

  004ae	85 c0		 test	 eax, eax
  004b0	0f 84 46 04 00
	00		 je	 $LN46@WindowProc
  004b6	8b 40 20	 mov	 eax, DWORD PTR [eax+32]
; File D:\git\src\IBK\IBK_DRFN\ProjSrc\SrcDrfn\Chart\MULTICHART\DlgToolbar.cpp

; 906  : 					if(m_pChartMng->GetSafeHwnd()) // 2005. 04. 22 by Nam

  004b9	85 c0		 test	 eax, eax
  004bb	0f 84 3b 04 00
	00		 je	 $LN46@WindowProc
; File C:\Program Files (x86)\Microsoft Visual Studio\2019\Community\VC\Tools\MSVC\14.29.30133\atlmfc\include\afxwin2.inl

; 32   : 	{ ASSERT(::IsWindow(m_hWnd)); return ::SendMessage(m_hWnd, message, wParam, lParam); }

  004c1	6a 00		 push	 0
  004c3	6a 05		 push	 5
  004c5	68 4a 04 00 00	 push	 1098			; 0000044aH
; File D:\git\src\IBK\IBK_DRFN\ProjSrc\SrcDrfn\Chart\MULTICHART\DlgToolbar.cpp

; 1005 : 			}

  004ca	50		 push	 eax
  004cb	ff 15 00 00 00
	00		 call	 DWORD PTR __imp__SendMessageA@16
  004d1	8d 4d dc	 lea	 ecx, DWORD PTR _strToolName$14[ebp]

; 1148 : 		
; 1149 : 		return 1L;

  004d4	ff 15 00 00 00
	00		 call	 DWORD PTR __imp_??1?$CStringT@DV?$StrTraitMFC_DLL@DV?$ChTraitsCRT@D@ATL@@@@@ATL@@QAE@XZ
  004da	b8 01 00 00 00	 mov	 eax, 1
  004df	e9 9e 08 00 00	 jmp	 $LN1@WindowProc
$LN28@WindowProc:
; File C:\Program Files (x86)\Microsoft Visual Studio\2019\Community\VC\Tools\MSVC\14.29.30133\atlmfc\include\cstringt.h

; 2486 : 		return(str1.Compare(psz2) == 0);

  004e4	68 00 00 00 00	 push	 OFFSET ??_C@_08LKMKHAFD@?D?$LF?$LF?i?F?P?E?O@
  004e9	8d 4d dc	 lea	 ecx, DWORD PTR _strToolName$14[ebp]
  004ec	ff 15 00 00 00
	00		 call	 DWORD PTR __imp_?Compare@?$CStringT@DV?$StrTraitMFC_DLL@DV?$ChTraitsCRT@D@ATL@@@@@ATL@@QBEHPBD@Z
  004f2	85 c0		 test	 eax, eax
; File D:\git\src\IBK\IBK_DRFN\ProjSrc\SrcDrfn\Chart\MULTICHART\DlgToolbar.cpp

; 910  : 				else if(strToolName == "")

  004f4	75 3c		 jne	 SHORT $LN31@WindowProc

; 912  : 					if(m_pChartMng->GetSafeHwnd()) // 2005. 04. 22 by Nam

  004f6	8b 87 a8 02 00
	00		 mov	 eax, DWORD PTR [edi+680]
; File C:\Program Files (x86)\Microsoft Visual Studio\2019\Community\VC\Tools\MSVC\14.29.30133\atlmfc\include\afxwin2.inl

; 25   : 	{ return this == NULL ? NULL : m_hWnd; }

  004fc	85 c0		 test	 eax, eax
  004fe	0f 84 f8 03 00
	00		 je	 $LN46@WindowProc
  00504	8b 40 20	 mov	 eax, DWORD PTR [eax+32]
; File D:\git\src\IBK\IBK_DRFN\ProjSrc\SrcDrfn\Chart\MULTICHART\DlgToolbar.cpp

; 912  : 					if(m_pChartMng->GetSafeHwnd()) // 2005. 04. 22 by Nam

  00507	85 c0		 test	 eax, eax
  00509	0f 84 ed 03 00
	00		 je	 $LN46@WindowProc
; File C:\Program Files (x86)\Microsoft Visual Studio\2019\Community\VC\Tools\MSVC\14.29.30133\atlmfc\include\afxwin2.inl

; 32   : 	{ ASSERT(::IsWindow(m_hWnd)); return ::SendMessage(m_hWnd, message, wParam, lParam); }

  0050f	6a 00		 push	 0
  00511	6a 06		 push	 6
  00513	68 4a 04 00 00	 push	 1098			; 0000044aH
; File D:\git\src\IBK\IBK_DRFN\ProjSrc\SrcDrfn\Chart\MULTICHART\DlgToolbar.cpp

; 1005 : 			}

  00518	50		 push	 eax
  00519	ff 15 00 00 00
	00		 call	 DWORD PTR __imp__SendMessageA@16
  0051f	8d 4d dc	 lea	 ecx, DWORD PTR _strToolName$14[ebp]

; 1148 : 		
; 1149 : 		return 1L;

  00522	ff 15 00 00 00
	00		 call	 DWORD PTR __imp_??1?$CStringT@DV?$StrTraitMFC_DLL@DV?$ChTraitsCRT@D@ATL@@@@@ATL@@QAE@XZ
  00528	b8 01 00 00 00	 mov	 eax, 1
  0052d	e9 50 08 00 00	 jmp	 $LN1@WindowProc
$LN31@WindowProc:
; File C:\Program Files (x86)\Microsoft Visual Studio\2019\Community\VC\Tools\MSVC\14.29.30133\atlmfc\include\cstringt.h

; 2486 : 		return(str1.Compare(psz2) == 0);

  00532	68 00 00 00 00	 push	 OFFSET ??_C@_08NJNPNNKE@?F?P?E?O?E?k?$LA?h@
  00537	8d 4d dc	 lea	 ecx, DWORD PTR _strToolName$14[ebp]
  0053a	ff 15 00 00 00
	00		 call	 DWORD PTR __imp_?Compare@?$CStringT@DV?$StrTraitMFC_DLL@DV?$ChTraitsCRT@D@ATL@@@@@ATL@@QBEHPBD@Z
  00540	85 c0		 test	 eax, eax
; File D:\git\src\IBK\IBK_DRFN\ProjSrc\SrcDrfn\Chart\MULTICHART\DlgToolbar.cpp

; 916  : 				else if(strToolName == "")

  00542	75 17		 jne	 SHORT $LN34@WindowProc

; 918  : 					if(m_pChartMng->GetSafeHwnd()) // 2005. 04. 22 by Nam

  00544	8b 87 a8 02 00
	00		 mov	 eax, DWORD PTR [edi+680]
; File C:\Program Files (x86)\Microsoft Visual Studio\2019\Community\VC\Tools\MSVC\14.29.30133\atlmfc\include\afxwin2.inl

; 25   : 	{ return this == NULL ? NULL : m_hWnd; }

  0054a	85 c0		 test	 eax, eax
  0054c	74 40		 je	 SHORT $LN39@WindowProc
  0054e	8b 40 20	 mov	 eax, DWORD PTR [eax+32]
; File D:\git\src\IBK\IBK_DRFN\ProjSrc\SrcDrfn\Chart\MULTICHART\DlgToolbar.cpp

; 918  : 					if(m_pChartMng->GetSafeHwnd()) // 2005. 04. 22 by Nam

  00551	85 c0		 test	 eax, eax
  00553	74 39		 je	 SHORT $LN39@WindowProc
; File C:\Program Files (x86)\Microsoft Visual Studio\2019\Community\VC\Tools\MSVC\14.29.30133\atlmfc\include\afxwin2.inl

; 32   : 	{ ASSERT(::IsWindow(m_hWnd)); return ::SendMessage(m_hWnd, message, wParam, lParam); }

  00555	6a 00		 push	 0
  00557	6a 07		 push	 7
  00559	eb 27		 jmp	 SHORT $LN405@WindowProc
$LN34@WindowProc:
; File C:\Program Files (x86)\Microsoft Visual Studio\2019\Community\VC\Tools\MSVC\14.29.30133\atlmfc\include\cstringt.h

; 2486 : 		return(str1.Compare(psz2) == 0);

  0055b	68 00 00 00 00	 push	 OFFSET ??_C@_08CKFLHKDJ@?F?P?E?O?$LM?$LD?A?$KE@
  00560	8d 4d dc	 lea	 ecx, DWORD PTR _strToolName$14[ebp]
  00563	ff 15 00 00 00
	00		 call	 DWORD PTR __imp_?Compare@?$CStringT@DV?$StrTraitMFC_DLL@DV?$ChTraitsCRT@D@ATL@@@@@ATL@@QBEHPBD@Z
  00569	85 c0		 test	 eax, eax
; File D:\git\src\IBK\IBK_DRFN\ProjSrc\SrcDrfn\Chart\MULTICHART\DlgToolbar.cpp

; 922  : 				else if(strToolName == "")

  0056b	75 3b		 jne	 SHORT $LN37@WindowProc

; 924  : 					if(m_pChartMng->GetSafeHwnd()) // 2005. 04. 22 by Nam

  0056d	8b 87 a8 02 00
	00		 mov	 eax, DWORD PTR [edi+680]
; File C:\Program Files (x86)\Microsoft Visual Studio\2019\Community\VC\Tools\MSVC\14.29.30133\atlmfc\include\afxwin2.inl

; 25   : 	{ return this == NULL ? NULL : m_hWnd; }

  00573	85 c0		 test	 eax, eax
  00575	74 17		 je	 SHORT $LN39@WindowProc
  00577	8b 40 20	 mov	 eax, DWORD PTR [eax+32]
; File D:\git\src\IBK\IBK_DRFN\ProjSrc\SrcDrfn\Chart\MULTICHART\DlgToolbar.cpp

; 924  : 					if(m_pChartMng->GetSafeHwnd()) // 2005. 04. 22 by Nam

  0057a	85 c0		 test	 eax, eax
  0057c	74 10		 je	 SHORT $LN39@WindowProc
; File C:\Program Files (x86)\Microsoft Visual Studio\2019\Community\VC\Tools\MSVC\14.29.30133\atlmfc\include\afxwin2.inl

; 32   : 	{ ASSERT(::IsWindow(m_hWnd)); return ::SendMessage(m_hWnd, message, wParam, lParam); }

  0057e	6a 00		 push	 0
  00580	6a 08		 push	 8
$LN405@WindowProc:
; File D:\git\src\IBK\IBK_DRFN\ProjSrc\SrcDrfn\Chart\MULTICHART\DlgToolbar.cpp

; 926  : 					SelectToolSelection();

  00582	68 4a 04 00 00	 push	 1098			; 0000044aH
  00587	50		 push	 eax
  00588	ff 15 00 00 00
	00		 call	 DWORD PTR __imp__SendMessageA@16
$LN39@WindowProc:
  0058e	8b cf		 mov	 ecx, edi
  00590	e8 00 00 00 00	 call	 ?SelectToolSelection@CDlgToolbar@@QAEXXZ ; CDlgToolbar::SelectToolSelection

; 1005 : 			}

  00595	8d 4d dc	 lea	 ecx, DWORD PTR _strToolName$14[ebp]

; 1148 : 		
; 1149 : 		return 1L;

  00598	ff 15 00 00 00
	00		 call	 DWORD PTR __imp_??1?$CStringT@DV?$StrTraitMFC_DLL@DV?$ChTraitsCRT@D@ATL@@@@@ATL@@QAE@XZ
  0059e	b8 01 00 00 00	 mov	 eax, 1
  005a3	e9 da 07 00 00	 jmp	 $LN1@WindowProc
$LN37@WindowProc:
; File C:\Program Files (x86)\Microsoft Visual Studio\2019\Community\VC\Tools\MSVC\14.29.30133\atlmfc\include\cstringt.h

; 2486 : 		return(str1.Compare(psz2) == 0);

  005a8	68 00 00 00 00	 push	 OFFSET ??_C@_08JBKIJOF@?H?$KP?$LA?f?$LM?$LD?A?$KE@
  005ad	8d 4d dc	 lea	 ecx, DWORD PTR _strToolName$14[ebp]
  005b0	ff 15 00 00 00
	00		 call	 DWORD PTR __imp_?Compare@?$CStringT@DV?$StrTraitMFC_DLL@DV?$ChTraitsCRT@D@ATL@@@@@ATL@@QBEHPBD@Z
  005b6	85 c0		 test	 eax, eax
; File D:\git\src\IBK\IBK_DRFN\ProjSrc\SrcDrfn\Chart\MULTICHART\DlgToolbar.cpp

; 928  : 				else if(strToolName == "")

  005b8	75 3c		 jne	 SHORT $LN40@WindowProc

; 930  : 					if(m_pChartMng->GetSafeHwnd()) // 2005. 04. 22 by Nam

  005ba	8b 87 a8 02 00
	00		 mov	 eax, DWORD PTR [edi+680]
; File C:\Program Files (x86)\Microsoft Visual Studio\2019\Community\VC\Tools\MSVC\14.29.30133\atlmfc\include\afxwin2.inl

; 25   : 	{ return this == NULL ? NULL : m_hWnd; }

  005c0	85 c0		 test	 eax, eax
  005c2	0f 84 34 03 00
	00		 je	 $LN46@WindowProc
  005c8	8b 40 20	 mov	 eax, DWORD PTR [eax+32]
; File D:\git\src\IBK\IBK_DRFN\ProjSrc\SrcDrfn\Chart\MULTICHART\DlgToolbar.cpp

; 930  : 					if(m_pChartMng->GetSafeHwnd()) // 2005. 04. 22 by Nam

  005cb	85 c0		 test	 eax, eax
  005cd	0f 84 29 03 00
	00		 je	 $LN46@WindowProc
; File C:\Program Files (x86)\Microsoft Visual Studio\2019\Community\VC\Tools\MSVC\14.29.30133\atlmfc\include\afxwin2.inl

; 32   : 	{ ASSERT(::IsWindow(m_hWnd)); return ::SendMessage(m_hWnd, message, wParam, lParam); }

  005d3	6a 00		 push	 0
  005d5	6a 00		 push	 0
  005d7	68 2c 04 00 00	 push	 1068			; 0000042cH
; File D:\git\src\IBK\IBK_DRFN\ProjSrc\SrcDrfn\Chart\MULTICHART\DlgToolbar.cpp

; 1005 : 			}

  005dc	50		 push	 eax
  005dd	ff 15 00 00 00
	00		 call	 DWORD PTR __imp__SendMessageA@16
  005e3	8d 4d dc	 lea	 ecx, DWORD PTR _strToolName$14[ebp]

; 1148 : 		
; 1149 : 		return 1L;

  005e6	ff 15 00 00 00
	00		 call	 DWORD PTR __imp_??1?$CStringT@DV?$StrTraitMFC_DLL@DV?$ChTraitsCRT@D@ATL@@@@@ATL@@QAE@XZ
  005ec	b8 01 00 00 00	 mov	 eax, 1
  005f1	e9 8c 07 00 00	 jmp	 $LN1@WindowProc
$LN40@WindowProc:
; File C:\Program Files (x86)\Microsoft Visual Studio\2019\Community\VC\Tools\MSVC\14.29.30133\atlmfc\include\cstringt.h

; 2486 : 		return(str1.Compare(psz2) == 0);

  005f6	68 00 00 00 00	 push	 OFFSET ??_C@_08NPIGFMCH@?$LA?$KB?$LA?$NN?$MA?L?F?r@
  005fb	8d 4d dc	 lea	 ecx, DWORD PTR _strToolName$14[ebp]
  005fe	ff 15 00 00 00
	00		 call	 DWORD PTR __imp_?Compare@?$CStringT@DV?$StrTraitMFC_DLL@DV?$ChTraitsCRT@D@ATL@@@@@ATL@@QBEHPBD@Z
  00604	85 c0		 test	 eax, eax
; File D:\git\src\IBK\IBK_DRFN\ProjSrc\SrcDrfn\Chart\MULTICHART\DlgToolbar.cpp

; 934  : 				else if(strToolName == "" || strToolName == "Set")

  00606	0f 84 cf 02 00
	00		 je	 $LN45@WindowProc
; File C:\Program Files (x86)\Microsoft Visual Studio\2019\Community\VC\Tools\MSVC\14.29.30133\atlmfc\include\cstringt.h

; 2486 : 		return(str1.Compare(psz2) == 0);

  0060c	68 00 00 00 00	 push	 OFFSET ??_C@_07MCHEHJLP@?$MA?L?F?rSet@
  00611	8d 4d dc	 lea	 ecx, DWORD PTR _strToolName$14[ebp]
  00614	ff 15 00 00 00
	00		 call	 DWORD PTR __imp_?Compare@?$CStringT@DV?$StrTraitMFC_DLL@DV?$ChTraitsCRT@D@ATL@@@@@ATL@@QBEHPBD@Z
  0061a	85 c0		 test	 eax, eax
; File D:\git\src\IBK\IBK_DRFN\ProjSrc\SrcDrfn\Chart\MULTICHART\DlgToolbar.cpp

; 934  : 				else if(strToolName == "" || strToolName == "Set")

  0061c	0f 84 b9 02 00
	00		 je	 $LN45@WindowProc
; File C:\Program Files (x86)\Microsoft Visual Studio\2019\Community\VC\Tools\MSVC\14.29.30133\atlmfc\include\cstringt.h

; 2486 : 		return(str1.Compare(psz2) == 0);

  00622	68 00 00 00 00	 push	 OFFSET ??_C@_0L@LPGFGOCL@?$LA?E?$LH?$KB?$LH?$KO?$MA?L?F?r@
  00627	8d 4d dc	 lea	 ecx, DWORD PTR _strToolName$14[ebp]
  0062a	ff 15 00 00 00
	00		 call	 DWORD PTR __imp_?Compare@?$CStringT@DV?$StrTraitMFC_DLL@DV?$ChTraitsCRT@D@ATL@@@@@ATL@@QBEHPBD@Z
  00630	85 c0		 test	 eax, eax
; File D:\git\src\IBK\IBK_DRFN\ProjSrc\SrcDrfn\Chart\MULTICHART\DlgToolbar.cpp

; 940  : 				else if(strToolName == "")

  00632	75 3c		 jne	 SHORT $LN47@WindowProc

; 942  : 					if(m_pChartMng->GetSafeHwnd()) // 2005. 04. 22 by Nam

  00634	8b 87 a8 02 00
	00		 mov	 eax, DWORD PTR [edi+680]
; File C:\Program Files (x86)\Microsoft Visual Studio\2019\Community\VC\Tools\MSVC\14.29.30133\atlmfc\include\afxwin2.inl

; 25   : 	{ return this == NULL ? NULL : m_hWnd; }

  0063a	85 c0		 test	 eax, eax
  0063c	0f 84 ba 02 00
	00		 je	 $LN46@WindowProc
  00642	8b 40 20	 mov	 eax, DWORD PTR [eax+32]
; File D:\git\src\IBK\IBK_DRFN\ProjSrc\SrcDrfn\Chart\MULTICHART\DlgToolbar.cpp

; 942  : 					if(m_pChartMng->GetSafeHwnd()) // 2005. 04. 22 by Nam

  00645	85 c0		 test	 eax, eax
  00647	0f 84 af 02 00
	00		 je	 $LN46@WindowProc
; File C:\Program Files (x86)\Microsoft Visual Studio\2019\Community\VC\Tools\MSVC\14.29.30133\atlmfc\include\afxwin2.inl

; 32   : 	{ ASSERT(::IsWindow(m_hWnd)); return ::SendMessage(m_hWnd, message, wParam, lParam); }

  0064d	6a 00		 push	 0
  0064f	6a 02		 push	 2
; File D:\git\src\IBK\IBK_DRFN\ProjSrc\SrcDrfn\Chart\MULTICHART\DlgToolbar.cpp

; 1005 : 			}

  00651	68 05 04 00 00	 push	 1029			; 00000405H
  00656	50		 push	 eax
  00657	ff 15 00 00 00
	00		 call	 DWORD PTR __imp__SendMessageA@16
  0065d	8d 4d dc	 lea	 ecx, DWORD PTR _strToolName$14[ebp]

; 1148 : 		
; 1149 : 		return 1L;

  00660	ff 15 00 00 00
	00		 call	 DWORD PTR __imp_??1?$CStringT@DV?$StrTraitMFC_DLL@DV?$ChTraitsCRT@D@ATL@@@@@ATL@@QAE@XZ
  00666	b8 01 00 00 00	 mov	 eax, 1
  0066b	e9 12 07 00 00	 jmp	 $LN1@WindowProc
$LN47@WindowProc:
; File C:\Program Files (x86)\Microsoft Visual Studio\2019\Community\VC\Tools\MSVC\14.29.30133\atlmfc\include\cstringt.h

; 2486 : 		return(str1.Compare(psz2) == 0);

  00670	68 00 00 00 00	 push	 OFFSET ??_C@_08IMLCKOLO@?$MA?O?A?V?$LP?y?$LK?P@
  00675	8d 4d dc	 lea	 ecx, DWORD PTR _strToolName$14[ebp]
  00678	ff 15 00 00 00
	00		 call	 DWORD PTR __imp_?Compare@?$CStringT@DV?$StrTraitMFC_DLL@DV?$ChTraitsCRT@D@ATL@@@@@ATL@@QBEHPBD@Z
  0067e	85 c0		 test	 eax, eax
; File D:\git\src\IBK\IBK_DRFN\ProjSrc\SrcDrfn\Chart\MULTICHART\DlgToolbar.cpp

; 946  : 				else if(strToolName == "")

  00680	75 57		 jne	 SHORT $LN50@WindowProc

; 947  : 				{
; 948  : 					m_bCheckDWMMChart = !m_bCheckDWMMChart;

  00682	39 87 a0 02 00
	00		 cmp	 DWORD PTR [edi+672], eax

; 949  : 					if(m_pChartMng->GetSafeHwnd())

  00688	8b 8f a8 02 00
	00		 mov	 ecx, DWORD PTR [edi+680]
  0068e	0f 94 c0	 sete	 al
  00691	89 87 a0 02 00
	00		 mov	 DWORD PTR [edi+672], eax
; File C:\Program Files (x86)\Microsoft Visual Studio\2019\Community\VC\Tools\MSVC\14.29.30133\atlmfc\include\afxwin2.inl

; 25   : 	{ return this == NULL ? NULL : m_hWnd; }

  00697	85 c9		 test	 ecx, ecx
  00699	74 1c		 je	 SHORT $LN52@WindowProc
  0069b	8b 49 20	 mov	 ecx, DWORD PTR [ecx+32]
; File D:\git\src\IBK\IBK_DRFN\ProjSrc\SrcDrfn\Chart\MULTICHART\DlgToolbar.cpp

; 949  : 					if(m_pChartMng->GetSafeHwnd())

  0069e	85 c9		 test	 ecx, ecx
  006a0	74 15		 je	 SHORT $LN52@WindowProc
; File C:\Program Files (x86)\Microsoft Visual Studio\2019\Community\VC\Tools\MSVC\14.29.30133\atlmfc\include\afxwin2.inl

; 32   : 	{ ASSERT(::IsWindow(m_hWnd)); return ::SendMessage(m_hWnd, message, wParam, lParam); }

  006a2	50		 push	 eax
  006a3	6a 00		 push	 0
  006a5	68 cd 04 00 00	 push	 1229			; 000004cdH
  006aa	51		 push	 ecx
  006ab	ff 15 00 00 00
	00		 call	 DWORD PTR __imp__SendMessageA@16
  006b1	8b 87 a0 02 00
	00		 mov	 eax, DWORD PTR [edi+672]
$LN52@WindowProc:
; File D:\git\src\IBK\IBK_DRFN\ProjSrc\SrcDrfn\Chart\MULTICHART\DlgToolbar.cpp

; 951  : 					if(!m_bCheckDWMMChart)

  006b7	85 c0		 test	 eax, eax
  006b9	0f 85 3d 02 00
	00		 jne	 $LN46@WindowProc

; 952  : 						SelectToolSelection();

  006bf	8b cf		 mov	 ecx, edi
  006c1	e8 00 00 00 00	 call	 ?SelectToolSelection@CDlgToolbar@@QAEXXZ ; CDlgToolbar::SelectToolSelection

; 1005 : 			}

  006c6	8d 4d dc	 lea	 ecx, DWORD PTR _strToolName$14[ebp]

; 1148 : 		
; 1149 : 		return 1L;

  006c9	ff 15 00 00 00
	00		 call	 DWORD PTR __imp_??1?$CStringT@DV?$StrTraitMFC_DLL@DV?$ChTraitsCRT@D@ATL@@@@@ATL@@QAE@XZ
  006cf	b8 01 00 00 00	 mov	 eax, 1
  006d4	e9 a9 06 00 00	 jmp	 $LN1@WindowProc
$LN50@WindowProc:
; File C:\Program Files (x86)\Microsoft Visual Studio\2019\Community\VC\Tools\MSVC\14.29.30133\atlmfc\include\cstringt.h

; 2486 : 		return(str1.Compare(psz2) == 0);

  006d9	68 00 00 00 00	 push	 OFFSET ??_C@_06LJBCBGIM@?$LB?b?A?X?$LM?$LB@
  006de	8d 4d dc	 lea	 ecx, DWORD PTR _strToolName$14[ebp]
  006e1	ff 15 00 00 00
	00		 call	 DWORD PTR __imp_?Compare@?$CStringT@DV?$StrTraitMFC_DLL@DV?$ChTraitsCRT@D@ATL@@@@@ATL@@QBEHPBD@Z
  006e7	85 c0		 test	 eax, eax
; File D:\git\src\IBK\IBK_DRFN\ProjSrc\SrcDrfn\Chart\MULTICHART\DlgToolbar.cpp

; 954  : 				else if(strToolName == "") //

  006e9	75 3c		 jne	 SHORT $LN54@WindowProc

; 956  : 					if(m_pChartMng->GetSafeHwnd())

  006eb	8b 87 a8 02 00
	00		 mov	 eax, DWORD PTR [edi+680]
; File C:\Program Files (x86)\Microsoft Visual Studio\2019\Community\VC\Tools\MSVC\14.29.30133\atlmfc\include\afxwin2.inl

; 25   : 	{ return this == NULL ? NULL : m_hWnd; }

  006f1	85 c0		 test	 eax, eax
  006f3	0f 84 03 02 00
	00		 je	 $LN46@WindowProc
  006f9	8b 40 20	 mov	 eax, DWORD PTR [eax+32]
; File D:\git\src\IBK\IBK_DRFN\ProjSrc\SrcDrfn\Chart\MULTICHART\DlgToolbar.cpp

; 956  : 					if(m_pChartMng->GetSafeHwnd())

  006fc	85 c0		 test	 eax, eax
  006fe	0f 84 f8 01 00
	00		 je	 $LN46@WindowProc
; File C:\Program Files (x86)\Microsoft Visual Studio\2019\Community\VC\Tools\MSVC\14.29.30133\atlmfc\include\afxwin2.inl

; 32   : 	{ ASSERT(::IsWindow(m_hWnd)); return ::SendMessage(m_hWnd, message, wParam, lParam); }

  00704	6a 00		 push	 0
  00706	6a 00		 push	 0
  00708	68 4b 04 00 00	 push	 1099			; 0000044bH
; File D:\git\src\IBK\IBK_DRFN\ProjSrc\SrcDrfn\Chart\MULTICHART\DlgToolbar.cpp

; 1005 : 			}

  0070d	50		 push	 eax
  0070e	ff 15 00 00 00
	00		 call	 DWORD PTR __imp__SendMessageA@16
  00714	8d 4d dc	 lea	 ecx, DWORD PTR _strToolName$14[ebp]

; 1148 : 		
; 1149 : 		return 1L;

  00717	ff 15 00 00 00
	00		 call	 DWORD PTR __imp_??1?$CStringT@DV?$StrTraitMFC_DLL@DV?$ChTraitsCRT@D@ATL@@@@@ATL@@QAE@XZ
  0071d	b8 01 00 00 00	 mov	 eax, 1
  00722	e9 5b 06 00 00	 jmp	 $LN1@WindowProc
$LN54@WindowProc:
; File C:\Program Files (x86)\Microsoft Visual Studio\2019\Community\VC\Tools\MSVC\14.29.30133\atlmfc\include\cstringt.h

; 2486 : 		return(str1.Compare(psz2) == 0);

  00727	68 00 00 00 00	 push	 OFFSET ??_C@_0N@BNPHCDMM@?$LM?v?D?$KB?A?$LG?H?$LI?G?O?$LE?$NM@
  0072c	8d 4d dc	 lea	 ecx, DWORD PTR _strToolName$14[ebp]
  0072f	ff 15 00 00 00
	00		 call	 DWORD PTR __imp_?Compare@?$CStringT@DV?$StrTraitMFC_DLL@DV?$ChTraitsCRT@D@ATL@@@@@ATL@@QBEHPBD@Z
  00735	85 c0		 test	 eax, eax
; File D:\git\src\IBK\IBK_DRFN\ProjSrc\SrcDrfn\Chart\MULTICHART\DlgToolbar.cpp

; 959  : 				else if(strToolName == "")

  00737	75 4f		 jne	 SHORT $LN57@WindowProc

; 960  : 				{
; 961  : 					m_bCheckShowData = !m_bCheckShowData;

  00739	33 c9		 xor	 ecx, ecx
  0073b	39 8f 9c 02 00
	00		 cmp	 DWORD PTR [edi+668], ecx
  00741	0f 94 c1	 sete	 cl
  00744	89 8f 9c 02 00
	00		 mov	 DWORD PTR [edi+668], ecx
; File C:\Program Files (x86)\Microsoft Visual Studio\2019\Community\VC\Tools\MSVC\14.29.30133\atlmfc\include\afxwin2.inl

; 32   : 	{ ASSERT(::IsWindow(m_hWnd)); return ::SendMessage(m_hWnd, message, wParam, lParam); }

  0074a	51		 push	 ecx
$LN416@WindowProc:
; File D:\git\src\IBK\IBK_DRFN\ProjSrc\SrcDrfn\Chart\MULTICHART\DlgToolbar.cpp

; 1005 : 			}

  0074b	8b 87 a4 02 00
	00		 mov	 eax, DWORD PTR [edi+676]
  00751	6a 00		 push	 0
  00753	68 51 04 00 00	 push	 1105			; 00000451H
  00758	ff 70 20	 push	 DWORD PTR [eax+32]
  0075b	ff 15 00 00 00
	00		 call	 DWORD PTR __imp__SendMessageA@16
  00761	83 bf 9c 02 00
	00 00		 cmp	 DWORD PTR [edi+668], 0
$LN414@WindowProc:
  00768	0f 85 8e 01 00
	00		 jne	 $LN46@WindowProc
  0076e	8b cf		 mov	 ecx, edi
  00770	e8 00 00 00 00	 call	 ?SelectToolSelection@CDlgToolbar@@QAEXXZ ; CDlgToolbar::SelectToolSelection
  00775	8d 4d dc	 lea	 ecx, DWORD PTR _strToolName$14[ebp]

; 1148 : 		
; 1149 : 		return 1L;

  00778	ff 15 00 00 00
	00		 call	 DWORD PTR __imp_??1?$CStringT@DV?$StrTraitMFC_DLL@DV?$ChTraitsCRT@D@ATL@@@@@ATL@@QAE@XZ
  0077e	b8 01 00 00 00	 mov	 eax, 1
  00783	e9 fa 05 00 00	 jmp	 $LN1@WindowProc
$LN57@WindowProc:
; File C:\Program Files (x86)\Microsoft Visual Studio\2019\Community\VC\Tools\MSVC\14.29.30133\atlmfc\include\cstringt.h

; 2486 : 		return(str1.Compare(psz2) == 0);

  00788	68 00 00 00 00	 push	 OFFSET ??_C@_0N@LAKHKAAC@?$LP?x?E?$KM?$LI?$KP?$LM?$PL?$LB?b?$LB?b@
  0078d	8d 4d dc	 lea	 ecx, DWORD PTR _strToolName$14[ebp]
  00790	ff 15 00 00 00
	00		 call	 DWORD PTR __imp_?Compare@?$CStringT@DV?$StrTraitMFC_DLL@DV?$ChTraitsCRT@D@ATL@@@@@ATL@@QBEHPBD@Z
  00796	85 c0		 test	 eax, eax
; File D:\git\src\IBK\IBK_DRFN\ProjSrc\SrcDrfn\Chart\MULTICHART\DlgToolbar.cpp

; 972  : 				else if(strToolName == "") //

  00798	75 2b		 jne	 SHORT $LN60@WindowProc

; 973  : 				{
; 974  : 					((CStdDialog*)m_pMultiChartWnd)->SendMessage(UMSG_ONECLICK_HIDE, NULL, FALSE);

  0079a	8b 87 a4 02 00
	00		 mov	 eax, DWORD PTR [edi+676]
; File C:\Program Files (x86)\Microsoft Visual Studio\2019\Community\VC\Tools\MSVC\14.29.30133\atlmfc\include\afxwin2.inl

; 32   : 	{ ASSERT(::IsWindow(m_hWnd)); return ::SendMessage(m_hWnd, message, wParam, lParam); }

  007a0	6a 00		 push	 0
  007a2	6a 00		 push	 0
  007a4	68 cc 04 00 00	 push	 1228			; 000004ccH
  007a9	ff 70 20	 push	 DWORD PTR [eax+32]
; File D:\git\src\IBK\IBK_DRFN\ProjSrc\SrcDrfn\Chart\MULTICHART\DlgToolbar.cpp

; 1005 : 			}

  007ac	ff 15 00 00 00
	00		 call	 DWORD PTR __imp__SendMessageA@16
  007b2	8d 4d dc	 lea	 ecx, DWORD PTR _strToolName$14[ebp]

; 1148 : 		
; 1149 : 		return 1L;

  007b5	ff 15 00 00 00
	00		 call	 DWORD PTR __imp_??1?$CStringT@DV?$StrTraitMFC_DLL@DV?$ChTraitsCRT@D@ATL@@@@@ATL@@QAE@XZ
  007bb	b8 01 00 00 00	 mov	 eax, 1
  007c0	e9 bd 05 00 00	 jmp	 $LN1@WindowProc
$LN60@WindowProc:
; File C:\Program Files (x86)\Microsoft Visual Studio\2019\Community\VC\Tools\MSVC\14.29.30133\atlmfc\include\cstringt.h

; 2486 : 		return(str1.Compare(psz2) == 0);

  007c5	68 00 00 00 00	 push	 OFFSET ??_C@_0N@BLLFONEB@?$LE?$KL?$LB?$NN?$LP?$LF?$LP?$KK?$LM?$PL?$LB?h@
  007ca	8d 4d dc	 lea	 ecx, DWORD PTR _strToolName$14[ebp]
  007cd	ff 15 00 00 00
	00		 call	 DWORD PTR __imp_?Compare@?$CStringT@DV?$StrTraitMFC_DLL@DV?$ChTraitsCRT@D@ATL@@@@@ATL@@QBEHPBD@Z
  007d3	85 c0		 test	 eax, eax
; File D:\git\src\IBK\IBK_DRFN\ProjSrc\SrcDrfn\Chart\MULTICHART\DlgToolbar.cpp

; 976  : 				else if(strToolName == "")

  007d5	75 42		 jne	 SHORT $LN62@WindowProc

; 979  : 					m_pChartMng->SendMessage(UMSG_SHOWSCALE,m_bShowScale);

  007d7	8b 87 a8 02 00
	00		 mov	 eax, DWORD PTR [edi+680]
  007dd	33 c9		 xor	 ecx, ecx
  007df	39 8f b0 02 00
	00		 cmp	 DWORD PTR [edi+688], ecx
; File C:\Program Files (x86)\Microsoft Visual Studio\2019\Community\VC\Tools\MSVC\14.29.30133\atlmfc\include\afxwin2.inl

; 32   : 	{ ASSERT(::IsWindow(m_hWnd)); return ::SendMessage(m_hWnd, message, wParam, lParam); }

  007e5	6a 00		 push	 0
; File D:\git\src\IBK\IBK_DRFN\ProjSrc\SrcDrfn\Chart\MULTICHART\DlgToolbar.cpp

; 978  : 					m_bShowScale = !m_bShowScale;

  007e7	0f 94 c1	 sete	 cl
; File C:\Program Files (x86)\Microsoft Visual Studio\2019\Community\VC\Tools\MSVC\14.29.30133\atlmfc\include\afxwin2.inl

; 32   : 	{ ASSERT(::IsWindow(m_hWnd)); return ::SendMessage(m_hWnd, message, wParam, lParam); }

  007ea	51		 push	 ecx
  007eb	68 1a 04 00 00	 push	 1050			; 0000041aH
; File D:\git\src\IBK\IBK_DRFN\ProjSrc\SrcDrfn\Chart\MULTICHART\DlgToolbar.cpp

; 978  : 					m_bShowScale = !m_bShowScale;

  007f0	89 8f b0 02 00
	00		 mov	 DWORD PTR [edi+688], ecx
; File C:\Program Files (x86)\Microsoft Visual Studio\2019\Community\VC\Tools\MSVC\14.29.30133\atlmfc\include\afxwin2.inl

; 32   : 	{ ASSERT(::IsWindow(m_hWnd)); return ::SendMessage(m_hWnd, message, wParam, lParam); }

  007f6	ff 70 20	 push	 DWORD PTR [eax+32]
  007f9	ff 15 00 00 00
	00		 call	 DWORD PTR __imp__SendMessageA@16
; File D:\git\src\IBK\IBK_DRFN\ProjSrc\SrcDrfn\Chart\MULTICHART\DlgToolbar.cpp

; 980  : 					SelectToolSelection();

  007ff	8b cf		 mov	 ecx, edi
  00801	e8 00 00 00 00	 call	 ?SelectToolSelection@CDlgToolbar@@QAEXXZ ; CDlgToolbar::SelectToolSelection

; 1005 : 			}

  00806	8d 4d dc	 lea	 ecx, DWORD PTR _strToolName$14[ebp]

; 1148 : 		
; 1149 : 		return 1L;

  00809	ff 15 00 00 00
	00		 call	 DWORD PTR __imp_??1?$CStringT@DV?$StrTraitMFC_DLL@DV?$ChTraitsCRT@D@ATL@@@@@ATL@@QAE@XZ
  0080f	b8 01 00 00 00	 mov	 eax, 1
  00814	e9 69 05 00 00	 jmp	 $LN1@WindowProc
$LN62@WindowProc:
; File C:\Program Files (x86)\Microsoft Visual Studio\2019\Community\VC\Tools\MSVC\14.29.30133\atlmfc\include\cstringt.h

; 2486 : 		return(str1.Compare(psz2) == 0);

  00819	68 00 00 00 00	 push	 OFFSET ??_C@_0N@IMOJLLBB@?$LN?$LK?E?$KJ?$LH?Q?$LM?$PL?$LB?b?$LB?b@
  0081e	8d 4d dc	 lea	 ecx, DWORD PTR _strToolName$14[ebp]
  00821	ff 15 00 00 00
	00		 call	 DWORD PTR __imp_?Compare@?$CStringT@DV?$StrTraitMFC_DLL@DV?$ChTraitsCRT@D@ATL@@@@@ATL@@QBEHPBD@Z
  00827	85 c0		 test	 eax, eax
; File D:\git\src\IBK\IBK_DRFN\ProjSrc\SrcDrfn\Chart\MULTICHART\DlgToolbar.cpp

; 982  : 				else if(strToolName == "")

  00829	75 41		 jne	 SHORT $LN64@WindowProc

; 984  : 					m_bShowInnerToolbar = !m_bShowInnerToolbar;

  0082b	33 c9		 xor	 ecx, ecx
  0082d	39 8f b8 02 00
	00		 cmp	 DWORD PTR [edi+696], ecx
; File C:\Program Files (x86)\Microsoft Visual Studio\2019\Community\VC\Tools\MSVC\14.29.30133\atlmfc\include\afxwin2.inl

; 39   : 	{ ASSERT(::IsWindow(m_hWnd)); return ::PostMessage(m_hWnd, message, wParam, lParam); }

  00833	50		 push	 eax
; File D:\git\src\IBK\IBK_DRFN\ProjSrc\SrcDrfn\Chart\MULTICHART\DlgToolbar.cpp

; 984  : 					m_bShowInnerToolbar = !m_bShowInnerToolbar;

  00834	0f 94 c1	 sete	 cl
  00837	89 8f b8 02 00
	00		 mov	 DWORD PTR [edi+696], ecx
; File C:\Program Files (x86)\Microsoft Visual Studio\2019\Community\VC\Tools\MSVC\14.29.30133\atlmfc\include\afxwin2.inl

; 39   : 	{ ASSERT(::IsWindow(m_hWnd)); return ::PostMessage(m_hWnd, message, wParam, lParam); }

  0083d	51		 push	 ecx
$LN415@WindowProc:
; File D:\git\src\IBK\IBK_DRFN\ProjSrc\SrcDrfn\Chart\MULTICHART\DlgToolbar.cpp

; 1005 : 			}

  0083e	8b 87 a8 02 00
	00		 mov	 eax, DWORD PTR [edi+680]
  00844	68 c9 04 00 00	 push	 1225			; 000004c9H
  00849	ff 70 20	 push	 DWORD PTR [eax+32]
  0084c	ff 15 00 00 00
	00		 call	 DWORD PTR __imp__PostMessageA@16
$LN412@WindowProc:
  00852	8b cf		 mov	 ecx, edi
  00854	e8 00 00 00 00	 call	 ?SelectToolSelection@CDlgToolbar@@QAEXXZ ; CDlgToolbar::SelectToolSelection
  00859	8d 4d dc	 lea	 ecx, DWORD PTR _strToolName$14[ebp]

; 1148 : 		
; 1149 : 		return 1L;

  0085c	ff 15 00 00 00
	00		 call	 DWORD PTR __imp_??1?$CStringT@DV?$StrTraitMFC_DLL@DV?$ChTraitsCRT@D@ATL@@@@@ATL@@QAE@XZ
  00862	b8 01 00 00 00	 mov	 eax, 1
  00867	e9 16 05 00 00	 jmp	 $LN1@WindowProc
$LN64@WindowProc:
; File C:\Program Files (x86)\Microsoft Visual Studio\2019\Community\VC\Tools\MSVC\14.29.30133\atlmfc\include\cstringt.h

; 2486 : 		return(str1.Compare(psz2) == 0);

  0086c	68 00 00 00 00	 push	 OFFSET ??_C@_08DLHMIPKD@?$LM?v?D?$KB?A?$LG?H?$LI@
  00871	8d 4d dc	 lea	 ecx, DWORD PTR _strToolName$14[ebp]
  00874	ff 15 00 00 00
	00		 call	 DWORD PTR __imp_?Compare@?$CStringT@DV?$StrTraitMFC_DLL@DV?$ChTraitsCRT@D@ATL@@@@@ATL@@QBEHPBD@Z
  0087a	85 c0		 test	 eax, eax
; File D:\git\src\IBK\IBK_DRFN\ProjSrc\SrcDrfn\Chart\MULTICHART\DlgToolbar.cpp

; 995  : 				else if(strToolName == "")

  0087c	75 2c		 jne	 SHORT $LN66@WindowProc

; 996  : 				{
; 997  : 					((CStdDialog*)m_pMultiChartWnd)->SendMessage(RMS_ANALYSIS_FUNC, CToolOptionInfo::TOOLOPTION::T_NIDLG_OVER, FALSE);

  0087e	8b 87 a4 02 00
	00		 mov	 eax, DWORD PTR [edi+676]
; File C:\Program Files (x86)\Microsoft Visual Studio\2019\Community\VC\Tools\MSVC\14.29.30133\atlmfc\include\afxwin2.inl

; 32   : 	{ ASSERT(::IsWindow(m_hWnd)); return ::SendMessage(m_hWnd, message, wParam, lParam); }

  00884	6a 00		 push	 0
  00886	6a 5e		 push	 94			; 0000005eH
  00888	ff 35 00 00 00
	00		 push	 DWORD PTR ?RMS_ANALYSIS_FUNC@@3IB
  0088e	ff 70 20	 push	 DWORD PTR [eax+32]
; File D:\git\src\IBK\IBK_DRFN\ProjSrc\SrcDrfn\Chart\MULTICHART\DlgToolbar.cpp

; 1005 : 			}

  00891	ff 15 00 00 00
	00		 call	 DWORD PTR __imp__SendMessageA@16
  00897	8d 4d dc	 lea	 ecx, DWORD PTR _strToolName$14[ebp]

; 1148 : 		
; 1149 : 		return 1L;

  0089a	ff 15 00 00 00
	00		 call	 DWORD PTR __imp_??1?$CStringT@DV?$StrTraitMFC_DLL@DV?$ChTraitsCRT@D@ATL@@@@@ATL@@QAE@XZ
  008a0	b8 01 00 00 00	 mov	 eax, 1
  008a5	e9 d8 04 00 00	 jmp	 $LN1@WindowProc
$LN66@WindowProc:
; File C:\Program Files (x86)\Microsoft Visual Studio\2019\Community\VC\Tools\MSVC\14.29.30133\atlmfc\include\cstringt.h

; 2486 : 		return(str1.Compare(psz2) == 0);

  008aa	68 00 00 00 00	 push	 OFFSET ??_C@_06MMCCKCBH@?$LF?$LI?$LK?$LI?$LB?b@
  008af	8d 4d dc	 lea	 ecx, DWORD PTR _strToolName$14[ebp]
  008b2	ff 15 00 00 00
	00		 call	 DWORD PTR __imp_?Compare@?$CStringT@DV?$StrTraitMFC_DLL@DV?$ChTraitsCRT@D@ATL@@@@@ATL@@QBEHPBD@Z
  008b8	85 c0		 test	 eax, eax
; File D:\git\src\IBK\IBK_DRFN\ProjSrc\SrcDrfn\Chart\MULTICHART\DlgToolbar.cpp

; 999  : 				else if(strToolName == "")

  008ba	75 40		 jne	 SHORT $LN46@WindowProc

; 1000 : 				{
; 1001 : 					//   - ojtaso (20080519)
; 1002 : 					((CStdDialog*)m_pMultiChartWnd)->OnMagnifyingglass(FALSE);

  008bc	8b 8f a4 02 00
	00		 mov	 ecx, DWORD PTR [edi+676]
  008c2	50		 push	 eax
$LN410@WindowProc:

; 1005 : 			}

  008c3	e8 00 00 00 00	 call	 ?OnMagnifyingglass@CStdDialog@@QAEXH@Z ; CStdDialog::OnMagnifyingglass
  008c8	8d 4d dc	 lea	 ecx, DWORD PTR _strToolName$14[ebp]

; 1148 : 		
; 1149 : 		return 1L;

  008cb	ff 15 00 00 00
	00		 call	 DWORD PTR __imp_??1?$CStringT@DV?$StrTraitMFC_DLL@DV?$ChTraitsCRT@D@ATL@@@@@ATL@@QAE@XZ
  008d1	b8 01 00 00 00	 mov	 eax, 1
  008d6	e9 a7 04 00 00	 jmp	 $LN1@WindowProc
$LN45@WindowProc:

; 936  : 					if(m_pChartMng->GetSafeHwnd()) // 2005. 04. 22 by Nam

  008db	8b 87 a8 02 00
	00		 mov	 eax, DWORD PTR [edi+680]
; File C:\Program Files (x86)\Microsoft Visual Studio\2019\Community\VC\Tools\MSVC\14.29.30133\atlmfc\include\afxwin2.inl

; 25   : 	{ return this == NULL ? NULL : m_hWnd; }

  008e1	85 c0		 test	 eax, eax
  008e3	74 17		 je	 SHORT $LN46@WindowProc
  008e5	8b 40 20	 mov	 eax, DWORD PTR [eax+32]
; File D:\git\src\IBK\IBK_DRFN\ProjSrc\SrcDrfn\Chart\MULTICHART\DlgToolbar.cpp

; 936  : 					if(m_pChartMng->GetSafeHwnd()) // 2005. 04. 22 by Nam

  008e8	85 c0		 test	 eax, eax
  008ea	74 10		 je	 SHORT $LN46@WindowProc
; File C:\Program Files (x86)\Microsoft Visual Studio\2019\Community\VC\Tools\MSVC\14.29.30133\atlmfc\include\afxwin2.inl

; 32   : 	{ ASSERT(::IsWindow(m_hWnd)); return ::SendMessage(m_hWnd, message, wParam, lParam); }

  008ec	6a 00		 push	 0
  008ee	6a 01		 push	 1
; File D:\git\src\IBK\IBK_DRFN\ProjSrc\SrcDrfn\Chart\MULTICHART\DlgToolbar.cpp

; 1005 : 			}

  008f0	68 05 04 00 00	 push	 1029			; 00000405H
  008f5	50		 push	 eax
  008f6	ff 15 00 00 00
	00		 call	 DWORD PTR __imp__SendMessageA@16
$LN46@WindowProc:
  008fc	8d 4d dc	 lea	 ecx, DWORD PTR _strToolName$14[ebp]

; 1148 : 		
; 1149 : 		return 1L;

  008ff	ff 15 00 00 00
	00		 call	 DWORD PTR __imp_??1?$CStringT@DV?$StrTraitMFC_DLL@DV?$ChTraitsCRT@D@ATL@@@@@ATL@@QAE@XZ
  00905	b8 01 00 00 00	 mov	 eax, 1
  0090a	e9 73 04 00 00	 jmp	 $LN1@WindowProc
$LN12@WindowProc:

; 1006 : 		}
; 1007 : 		if(wParam == 1)		// button up

  0090f	83 fe 01	 cmp	 esi, 1
  00912	0f 85 ca 02 00
	00		 jne	 $LN69@WindowProc

; 1008 : 		{
; 1009 : 			CWnd* pCurWnd = (CWnd *)lParam;
; 1010 : 
; 1011 : 			int nSel = pCurWnd->GetDlgCtrlID() - TOOL_BUTTON_BASE_ID;

  00918	8b cb		 mov	 ecx, ebx
  0091a	e8 00 00 00 00	 call	 ?GetDlgCtrlID@CWnd@@QBEHXZ ; CWnd::GetDlgCtrlID

; 1013 : 			CString strToolName = "";

  0091f	68 00 00 00 00	 push	 OFFSET ??_C@_00CNPNBAHC@@
  00924	8d 4d dc	 lea	 ecx, DWORD PTR _strToolName$13[ebp]
  00927	8d b0 0c fe ff
	ff		 lea	 esi, DWORD PTR [eax-500]
  0092d	ff 15 00 00 00
	00		 call	 DWORD PTR __imp_??0?$CStringT@DV?$StrTraitMFC_DLL@DV?$ChTraitsCRT@D@ATL@@@@@ATL@@QAE@PBD@Z
; File C:\Program Files (x86)\Microsoft Visual Studio\2019\Community\VC\Tools\MSVC\14.29.30133\atlmfc\include\afxtempl.h

; 1555 : 	CAssoc* pAssoc = GetAssocAt(key, nHashBucket, nHashValue);

  00933	8d 45 d4	 lea	 eax, DWORD PTR _nHashValue$6[ebp]
; File D:\git\src\IBK\IBK_DRFN\ProjSrc\SrcDrfn\Chart\MULTICHART\DlgToolbar.cpp

; 1013 : 			CString strToolName = "";

  00936	c7 45 fc 04 00
	00 00		 mov	 DWORD PTR __$EHRec$[ebp+8], 4
; File C:\Program Files (x86)\Microsoft Visual Studio\2019\Community\VC\Tools\MSVC\14.29.30133\atlmfc\include\afxtempl.h

; 1555 : 	CAssoc* pAssoc = GetAssocAt(key, nHashBucket, nHashValue);

  0093d	50		 push	 eax
  0093e	8d 45 d8	 lea	 eax, DWORD PTR _nHashBucket$9[ebp]
  00941	50		 push	 eax
  00942	56		 push	 esi
; File D:\git\src\IBK\IBK_DRFN\ProjSrc\SrcDrfn\Chart\MULTICHART\DlgToolbar.cpp

; 1014 : 			m_mapToolName.Lookup(nSel, strToolName);

  00943	8d 8f 10 03 00
	00		 lea	 ecx, DWORD PTR [edi+784]
; File C:\Program Files (x86)\Microsoft Visual Studio\2019\Community\VC\Tools\MSVC\14.29.30133\atlmfc\include\afxtempl.h

; 1555 : 	CAssoc* pAssoc = GetAssocAt(key, nHashBucket, nHashValue);

  00949	e8 00 00 00 00	 call	 ?GetAssocAt@?$CMap@HHV?$CStringT@DV?$StrTraitMFC_DLL@DV?$ChTraitsCRT@D@ATL@@@@@ATL@@V12@@@IBEPAVCAssoc@1@HAAI0@Z ; CMap<int,int,ATL::CStringT<char,StrTraitMFC_DLL<char,ATL::ChTraitsCRT<char> > >,ATL::CStringT<char,StrTraitMFC_DLL<char,ATL::ChTraitsCRT<char> > > >::GetAssocAt

; 1556 : 	if (pAssoc == NULL)

  0094e	85 c0		 test	 eax, eax
  00950	74 0d		 je	 SHORT $LN310@WindowProc

; 1557 : 		return FALSE;  // not in map
; 1558 : 
; 1559 : 	rValue = pAssoc->value;

  00952	83 c0 04	 add	 eax, 4
  00955	8d 4d dc	 lea	 ecx, DWORD PTR _strToolName$13[ebp]
  00958	50		 push	 eax
  00959	ff 15 00 00 00
	00		 call	 DWORD PTR __imp_??4?$CStringT@DV?$StrTraitMFC_DLL@DV?$ChTraitsCRT@D@ATL@@@@@ATL@@QAEAAV01@ABV01@@Z
$LN310@WindowProc:
; File C:\Program Files (x86)\Microsoft Visual Studio\2019\Community\VC\Tools\MSVC\14.29.30133\atlmfc\include\cstringt.h

; 2486 : 		return(str1.Compare(psz2) == 0);

  0095f	68 00 00 00 00	 push	 OFFSET ??_C@_0L@NNFDJLGM@?$MA?Z?$LF?$LP?C?$NP?$LM?$LM?$LM?$LB@
  00964	8d 4d dc	 lea	 ecx, DWORD PTR _strToolName$13[ebp]
  00967	ff 15 00 00 00
	00		 call	 DWORD PTR __imp_?Compare@?$CStringT@DV?$StrTraitMFC_DLL@DV?$ChTraitsCRT@D@ATL@@@@@ATL@@QBEHPBD@Z
  0096d	85 c0		 test	 eax, eax
; File D:\git\src\IBK\IBK_DRFN\ProjSrc\SrcDrfn\Chart\MULTICHART\DlgToolbar.cpp

; 1015 : 			if(strToolName == "")

  0096f	75 38		 jne	 SHORT $LN71@WindowProc

; 1017 : 				if(m_pChartMng->GetSafeHwnd()) // 2005. 04. 22 by Nam

  00971	8b 87 a8 02 00
	00		 mov	 eax, DWORD PTR [edi+680]
; File C:\Program Files (x86)\Microsoft Visual Studio\2019\Community\VC\Tools\MSVC\14.29.30133\atlmfc\include\afxwin2.inl

; 25   : 	{ return this == NULL ? NULL : m_hWnd; }

  00977	85 c0		 test	 eax, eax
  00979	74 81		 je	 SHORT $LN46@WindowProc
  0097b	8b 40 20	 mov	 eax, DWORD PTR [eax+32]
; File D:\git\src\IBK\IBK_DRFN\ProjSrc\SrcDrfn\Chart\MULTICHART\DlgToolbar.cpp

; 1017 : 				if(m_pChartMng->GetSafeHwnd()) // 2005. 04. 22 by Nam

  0097e	85 c0		 test	 eax, eax
  00980	0f 84 76 ff ff
	ff		 je	 $LN46@WindowProc
; File C:\Program Files (x86)\Microsoft Visual Studio\2019\Community\VC\Tools\MSVC\14.29.30133\atlmfc\include\afxwin2.inl

; 32   : 	{ ASSERT(::IsWindow(m_hWnd)); return ::SendMessage(m_hWnd, message, wParam, lParam); }

  00986	6a 00		 push	 0
  00988	6a 01		 push	 1
  0098a	68 4a 04 00 00	 push	 1098			; 0000044aH
  0098f	50		 push	 eax
; File D:\git\src\IBK\IBK_DRFN\ProjSrc\SrcDrfn\Chart\MULTICHART\DlgToolbar.cpp

; 1097 : 		}

  00990	ff 15 00 00 00
	00		 call	 DWORD PTR __imp__SendMessageA@16
  00996	8d 4d dc	 lea	 ecx, DWORD PTR _strToolName$13[ebp]

; 1148 : 		
; 1149 : 		return 1L;

  00999	ff 15 00 00 00
	00		 call	 DWORD PTR __imp_??1?$CStringT@DV?$StrTraitMFC_DLL@DV?$ChTraitsCRT@D@ATL@@@@@ATL@@QAE@XZ
  0099f	b8 01 00 00 00	 mov	 eax, 1
  009a4	e9 d9 03 00 00	 jmp	 $LN1@WindowProc
$LN71@WindowProc:
; File C:\Program Files (x86)\Microsoft Visual Studio\2019\Community\VC\Tools\MSVC\14.29.30133\atlmfc\include\cstringt.h

; 2486 : 		return(str1.Compare(psz2) == 0);

  009a9	68 00 00 00 00	 push	 OFFSET ??_C@_08FGFLHNHO@?C?$NP?$LM?$LM?F?P?E?O@
  009ae	8d 4d dc	 lea	 ecx, DWORD PTR _strToolName$13[ebp]
  009b1	ff 15 00 00 00
	00		 call	 DWORD PTR __imp_?Compare@?$CStringT@DV?$StrTraitMFC_DLL@DV?$ChTraitsCRT@D@ATL@@@@@ATL@@QBEHPBD@Z
  009b7	85 c0		 test	 eax, eax
; File D:\git\src\IBK\IBK_DRFN\ProjSrc\SrcDrfn\Chart\MULTICHART\DlgToolbar.cpp

; 1021 : 			else if(strToolName == "")

  009b9	75 3c		 jne	 SHORT $LN74@WindowProc

; 1023 : 				if(m_pChartMng->GetSafeHwnd()) // 2005. 04. 22 by Nam

  009bb	8b 87 a8 02 00
	00		 mov	 eax, DWORD PTR [edi+680]
; File C:\Program Files (x86)\Microsoft Visual Studio\2019\Community\VC\Tools\MSVC\14.29.30133\atlmfc\include\afxwin2.inl

; 25   : 	{ return this == NULL ? NULL : m_hWnd; }

  009c1	85 c0		 test	 eax, eax
  009c3	0f 84 33 ff ff
	ff		 je	 $LN46@WindowProc
  009c9	8b 40 20	 mov	 eax, DWORD PTR [eax+32]
; File D:\git\src\IBK\IBK_DRFN\ProjSrc\SrcDrfn\Chart\MULTICHART\DlgToolbar.cpp

; 1023 : 				if(m_pChartMng->GetSafeHwnd()) // 2005. 04. 22 by Nam

  009cc	85 c0		 test	 eax, eax
  009ce	0f 84 28 ff ff
	ff		 je	 $LN46@WindowProc
; File C:\Program Files (x86)\Microsoft Visual Studio\2019\Community\VC\Tools\MSVC\14.29.30133\atlmfc\include\afxwin2.inl

; 32   : 	{ ASSERT(::IsWindow(m_hWnd)); return ::SendMessage(m_hWnd, message, wParam, lParam); }

  009d4	6a 00		 push	 0
  009d6	6a 02		 push	 2
  009d8	68 4a 04 00 00	 push	 1098			; 0000044aH
  009dd	50		 push	 eax
; File D:\git\src\IBK\IBK_DRFN\ProjSrc\SrcDrfn\Chart\MULTICHART\DlgToolbar.cpp

; 1097 : 		}

  009de	ff 15 00 00 00
	00		 call	 DWORD PTR __imp__SendMessageA@16
  009e4	8d 4d dc	 lea	 ecx, DWORD PTR _strToolName$13[ebp]

; 1148 : 		
; 1149 : 		return 1L;

  009e7	ff 15 00 00 00
	00		 call	 DWORD PTR __imp_??1?$CStringT@DV?$StrTraitMFC_DLL@DV?$ChTraitsCRT@D@ATL@@@@@ATL@@QAE@XZ
  009ed	b8 01 00 00 00	 mov	 eax, 1
  009f2	e9 8b 03 00 00	 jmp	 $LN1@WindowProc
$LN74@WindowProc:
; File C:\Program Files (x86)\Microsoft Visual Studio\2019\Community\VC\Tools\MSVC\14.29.30133\atlmfc\include\cstringt.h

; 2486 : 		return(str1.Compare(psz2) == 0);

  009f7	68 00 00 00 00	 push	 OFFSET ??_C@_08LKMKHAFD@?D?$LF?$LF?i?F?P?E?O@
  009fc	8d 4d dc	 lea	 ecx, DWORD PTR _strToolName$13[ebp]
  009ff	ff 15 00 00 00
	00		 call	 DWORD PTR __imp_?Compare@?$CStringT@DV?$StrTraitMFC_DLL@DV?$ChTraitsCRT@D@ATL@@@@@ATL@@QBEHPBD@Z
  00a05	85 c0		 test	 eax, eax
; File D:\git\src\IBK\IBK_DRFN\ProjSrc\SrcDrfn\Chart\MULTICHART\DlgToolbar.cpp

; 1027 : 			else if(strToolName == "")

  00a07	75 3c		 jne	 SHORT $LN77@WindowProc

; 1029 : 				if(m_pChartMng->GetSafeHwnd()) // 2005. 04. 22 by Nam

  00a09	8b 87 a8 02 00
	00		 mov	 eax, DWORD PTR [edi+680]
; File C:\Program Files (x86)\Microsoft Visual Studio\2019\Community\VC\Tools\MSVC\14.29.30133\atlmfc\include\afxwin2.inl

; 25   : 	{ return this == NULL ? NULL : m_hWnd; }

  00a0f	85 c0		 test	 eax, eax
  00a11	0f 84 e5 fe ff
	ff		 je	 $LN46@WindowProc
  00a17	8b 40 20	 mov	 eax, DWORD PTR [eax+32]
; File D:\git\src\IBK\IBK_DRFN\ProjSrc\SrcDrfn\Chart\MULTICHART\DlgToolbar.cpp

; 1029 : 				if(m_pChartMng->GetSafeHwnd()) // 2005. 04. 22 by Nam

  00a1a	85 c0		 test	 eax, eax
  00a1c	0f 84 da fe ff
	ff		 je	 $LN46@WindowProc
; File C:\Program Files (x86)\Microsoft Visual Studio\2019\Community\VC\Tools\MSVC\14.29.30133\atlmfc\include\afxwin2.inl

; 32   : 	{ ASSERT(::IsWindow(m_hWnd)); return ::SendMessage(m_hWnd, message, wParam, lParam); }

  00a22	6a 00		 push	 0
  00a24	6a 03		 push	 3
  00a26	68 4a 04 00 00	 push	 1098			; 0000044aH
  00a2b	50		 push	 eax
; File D:\git\src\IBK\IBK_DRFN\ProjSrc\SrcDrfn\Chart\MULTICHART\DlgToolbar.cpp

; 1097 : 		}

  00a2c	ff 15 00 00 00
	00		 call	 DWORD PTR __imp__SendMessageA@16
  00a32	8d 4d dc	 lea	 ecx, DWORD PTR _strToolName$13[ebp]

; 1148 : 		
; 1149 : 		return 1L;

  00a35	ff 15 00 00 00
	00		 call	 DWORD PTR __imp_??1?$CStringT@DV?$StrTraitMFC_DLL@DV?$ChTraitsCRT@D@ATL@@@@@ATL@@QAE@XZ
  00a3b	b8 01 00 00 00	 mov	 eax, 1
  00a40	e9 3d 03 00 00	 jmp	 $LN1@WindowProc
$LN77@WindowProc:
; File C:\Program Files (x86)\Microsoft Visual Studio\2019\Community\VC\Tools\MSVC\14.29.30133\atlmfc\include\cstringt.h

; 2486 : 		return(str1.Compare(psz2) == 0);

  00a45	68 00 00 00 00	 push	 OFFSET ??_C@_0N@LAKHKAAC@?$LP?x?E?$KM?$LI?$KP?$LM?$PL?$LB?b?$LB?b@
  00a4a	8d 4d dc	 lea	 ecx, DWORD PTR _strToolName$13[ebp]
  00a4d	ff 15 00 00 00
	00		 call	 DWORD PTR __imp_?Compare@?$CStringT@DV?$StrTraitMFC_DLL@DV?$ChTraitsCRT@D@ATL@@@@@ATL@@QBEHPBD@Z
  00a53	85 c0		 test	 eax, eax
; File D:\git\src\IBK\IBK_DRFN\ProjSrc\SrcDrfn\Chart\MULTICHART\DlgToolbar.cpp

; 1044 : 			else if(strToolName == "") //""

  00a55	75 2a		 jne	 SHORT $LN80@WindowProc
; File C:\Program Files (x86)\Microsoft Visual Studio\2019\Community\VC\Tools\MSVC\14.29.30133\atlmfc\include\afxwin2.inl

; 32   : 	{ ASSERT(::IsWindow(m_hWnd)); return ::SendMessage(m_hWnd, message, wParam, lParam); }

  00a57	6a 01		 push	 1
  00a59	50		 push	 eax
  00a5a	8b 87 a4 02 00
	00		 mov	 eax, DWORD PTR [edi+676]
  00a60	68 cc 04 00 00	 push	 1228			; 000004ccH
  00a65	ff 70 20	 push	 DWORD PTR [eax+32]
; File D:\git\src\IBK\IBK_DRFN\ProjSrc\SrcDrfn\Chart\MULTICHART\DlgToolbar.cpp

; 1097 : 		}

  00a68	ff 15 00 00 00
	00		 call	 DWORD PTR __imp__SendMessageA@16
  00a6e	8d 4d dc	 lea	 ecx, DWORD PTR _strToolName$13[ebp]

; 1148 : 		
; 1149 : 		return 1L;

  00a71	ff 15 00 00 00
	00		 call	 DWORD PTR __imp_??1?$CStringT@DV?$StrTraitMFC_DLL@DV?$ChTraitsCRT@D@ATL@@@@@ATL@@QAE@XZ
  00a77	b8 01 00 00 00	 mov	 eax, 1
  00a7c	e9 01 03 00 00	 jmp	 $LN1@WindowProc
$LN80@WindowProc:
; File C:\Program Files (x86)\Microsoft Visual Studio\2019\Community\VC\Tools\MSVC\14.29.30133\atlmfc\include\cstringt.h

; 2486 : 		return(str1.Compare(psz2) == 0);

  00a81	68 00 00 00 00	 push	 OFFSET ??_C@_0N@BLLFONEB@?$LE?$KL?$LB?$NN?$LP?$LF?$LP?$KK?$LM?$PL?$LB?h@
  00a86	8d 4d dc	 lea	 ecx, DWORD PTR _strToolName$13[ebp]
  00a89	ff 15 00 00 00
	00		 call	 DWORD PTR __imp_?Compare@?$CStringT@DV?$StrTraitMFC_DLL@DV?$ChTraitsCRT@D@ATL@@@@@ATL@@QBEHPBD@Z
  00a8f	85 c0		 test	 eax, eax
; File D:\git\src\IBK\IBK_DRFN\ProjSrc\SrcDrfn\Chart\MULTICHART\DlgToolbar.cpp

; 1048 : 			else if(strToolName == "")

  00a91	75 2b		 jne	 SHORT $LN82@WindowProc

; 1050 : 				m_bShowScale = !m_bShowScale;

  00a93	39 87 b0 02 00
	00		 cmp	 DWORD PTR [edi+688], eax
; File C:\Program Files (x86)\Microsoft Visual Studio\2019\Community\VC\Tools\MSVC\14.29.30133\atlmfc\include\afxwin2.inl

; 32   : 	{ ASSERT(::IsWindow(m_hWnd)); return ::SendMessage(m_hWnd, message, wParam, lParam); }

  00a99	6a 00		 push	 0
; File D:\git\src\IBK\IBK_DRFN\ProjSrc\SrcDrfn\Chart\MULTICHART\DlgToolbar.cpp

; 1050 : 				m_bShowScale = !m_bShowScale;

  00a9b	0f 94 c0	 sete	 al
; File C:\Program Files (x86)\Microsoft Visual Studio\2019\Community\VC\Tools\MSVC\14.29.30133\atlmfc\include\afxwin2.inl

; 32   : 	{ ASSERT(::IsWindow(m_hWnd)); return ::SendMessage(m_hWnd, message, wParam, lParam); }

  00a9e	50		 push	 eax
; File D:\git\src\IBK\IBK_DRFN\ProjSrc\SrcDrfn\Chart\MULTICHART\DlgToolbar.cpp

; 1050 : 				m_bShowScale = !m_bShowScale;

  00a9f	89 87 b0 02 00
	00		 mov	 DWORD PTR [edi+688], eax
; File C:\Program Files (x86)\Microsoft Visual Studio\2019\Community\VC\Tools\MSVC\14.29.30133\atlmfc\include\afxwin2.inl

; 32   : 	{ ASSERT(::IsWindow(m_hWnd)); return ::SendMessage(m_hWnd, message, wParam, lParam); }

  00aa5	8b 87 a8 02 00
	00		 mov	 eax, DWORD PTR [edi+680]
  00aab	68 1a 04 00 00	 push	 1050			; 0000041aH
  00ab0	ff 70 20	 push	 DWORD PTR [eax+32]
  00ab3	ff 15 00 00 00
	00		 call	 DWORD PTR __imp__SendMessageA@16
; File D:\git\src\IBK\IBK_DRFN\ProjSrc\SrcDrfn\Chart\MULTICHART\DlgToolbar.cpp

; 1053 : 			}

  00ab9	e9 94 fd ff ff	 jmp	 $LN412@WindowProc
$LN82@WindowProc:
; File C:\Program Files (x86)\Microsoft Visual Studio\2019\Community\VC\Tools\MSVC\14.29.30133\atlmfc\include\cstringt.h

; 2486 : 		return(str1.Compare(psz2) == 0);

  00abe	68 00 00 00 00	 push	 OFFSET ??_C@_0N@IMOJLLBB@?$LN?$LK?E?$KJ?$LH?Q?$LM?$PL?$LB?b?$LB?b@
  00ac3	8d 4d dc	 lea	 ecx, DWORD PTR _strToolName$13[ebp]
  00ac6	ff 15 00 00 00
	00		 call	 DWORD PTR __imp_?Compare@?$CStringT@DV?$StrTraitMFC_DLL@DV?$ChTraitsCRT@D@ATL@@@@@ATL@@QBEHPBD@Z
  00acc	85 c0		 test	 eax, eax
; File D:\git\src\IBK\IBK_DRFN\ProjSrc\SrcDrfn\Chart\MULTICHART\DlgToolbar.cpp

; 1054 : 			else if(strToolName == "")

  00ace	75 17		 jne	 SHORT $LN84@WindowProc

; 1056 : 				m_bShowInnerToolbar = !m_bShowInnerToolbar;

  00ad0	39 87 b8 02 00
	00		 cmp	 DWORD PTR [edi+696], eax
; File C:\Program Files (x86)\Microsoft Visual Studio\2019\Community\VC\Tools\MSVC\14.29.30133\atlmfc\include\afxwin2.inl

; 39   : 	{ ASSERT(::IsWindow(m_hWnd)); return ::PostMessage(m_hWnd, message, wParam, lParam); }

  00ad6	6a 00		 push	 0
; File D:\git\src\IBK\IBK_DRFN\ProjSrc\SrcDrfn\Chart\MULTICHART\DlgToolbar.cpp

; 1056 : 				m_bShowInnerToolbar = !m_bShowInnerToolbar;

  00ad8	0f 94 c0	 sete	 al
  00adb	89 87 b8 02 00
	00		 mov	 DWORD PTR [edi+696], eax
; File C:\Program Files (x86)\Microsoft Visual Studio\2019\Community\VC\Tools\MSVC\14.29.30133\atlmfc\include\afxwin2.inl

; 39   : 	{ ASSERT(::IsWindow(m_hWnd)); return ::PostMessage(m_hWnd, message, wParam, lParam); }

  00ae1	50		 push	 eax
; File D:\git\src\IBK\IBK_DRFN\ProjSrc\SrcDrfn\Chart\MULTICHART\DlgToolbar.cpp

; 1059 : 			}

  00ae2	e9 57 fd ff ff	 jmp	 $LN415@WindowProc
$LN84@WindowProc:
; File C:\Program Files (x86)\Microsoft Visual Studio\2019\Community\VC\Tools\MSVC\14.29.30133\atlmfc\include\cstringt.h

; 2486 : 		return(str1.Compare(psz2) == 0);

  00ae7	68 00 00 00 00	 push	 OFFSET ??_C@_08IMLCKOLO@?$MA?O?A?V?$LP?y?$LK?P@
  00aec	8d 4d dc	 lea	 ecx, DWORD PTR _strToolName$13[ebp]
  00aef	ff 15 00 00 00
	00		 call	 DWORD PTR __imp_?Compare@?$CStringT@DV?$StrTraitMFC_DLL@DV?$ChTraitsCRT@D@ATL@@@@@ATL@@QBEHPBD@Z
  00af5	85 c0		 test	 eax, eax
; File D:\git\src\IBK\IBK_DRFN\ProjSrc\SrcDrfn\Chart\MULTICHART\DlgToolbar.cpp

; 1060 : 			else if(strToolName == "")

  00af7	75 3c		 jne	 SHORT $LN86@WindowProc

; 1061 : 			{
; 1062 : 				m_bCheckDWMMChart = !m_bCheckDWMMChart;

  00af9	39 87 a0 02 00
	00		 cmp	 DWORD PTR [edi+672], eax

; 1063 : 				if(m_pChartMng->GetSafeHwnd())

  00aff	8b 8f a8 02 00
	00		 mov	 ecx, DWORD PTR [edi+680]
  00b05	0f 94 c0	 sete	 al
  00b08	89 87 a0 02 00
	00		 mov	 DWORD PTR [edi+672], eax
; File C:\Program Files (x86)\Microsoft Visual Studio\2019\Community\VC\Tools\MSVC\14.29.30133\atlmfc\include\afxwin2.inl

; 25   : 	{ return this == NULL ? NULL : m_hWnd; }

  00b0e	85 c9		 test	 ecx, ecx
  00b10	74 1c		 je	 SHORT $LN88@WindowProc
  00b12	8b 49 20	 mov	 ecx, DWORD PTR [ecx+32]
; File D:\git\src\IBK\IBK_DRFN\ProjSrc\SrcDrfn\Chart\MULTICHART\DlgToolbar.cpp

; 1063 : 				if(m_pChartMng->GetSafeHwnd())

  00b15	85 c9		 test	 ecx, ecx
  00b17	74 15		 je	 SHORT $LN88@WindowProc
; File C:\Program Files (x86)\Microsoft Visual Studio\2019\Community\VC\Tools\MSVC\14.29.30133\atlmfc\include\afxwin2.inl

; 32   : 	{ ASSERT(::IsWindow(m_hWnd)); return ::SendMessage(m_hWnd, message, wParam, lParam); }

  00b19	50		 push	 eax
  00b1a	6a 00		 push	 0
  00b1c	68 cd 04 00 00	 push	 1229			; 000004cdH
  00b21	51		 push	 ecx
  00b22	ff 15 00 00 00
	00		 call	 DWORD PTR __imp__SendMessageA@16
  00b28	8b 87 a0 02 00
	00		 mov	 eax, DWORD PTR [edi+672]
$LN88@WindowProc:
; File D:\git\src\IBK\IBK_DRFN\ProjSrc\SrcDrfn\Chart\MULTICHART\DlgToolbar.cpp

; 1065 : 				if(!m_bCheckDWMMChart)

  00b2e	85 c0		 test	 eax, eax

; 1066 : 					SelectToolSelection();
; 1067 : 			}

  00b30	e9 33 fc ff ff	 jmp	 $LN414@WindowProc
$LN86@WindowProc:
; File C:\Program Files (x86)\Microsoft Visual Studio\2019\Community\VC\Tools\MSVC\14.29.30133\atlmfc\include\cstringt.h

; 2486 : 		return(str1.Compare(psz2) == 0);

  00b35	68 00 00 00 00	 push	 OFFSET ??_C@_0N@BNPHCDMM@?$LM?v?D?$KB?A?$LG?H?$LI?G?O?$LE?$NM@
  00b3a	8d 4d dc	 lea	 ecx, DWORD PTR _strToolName$13[ebp]
  00b3d	ff 15 00 00 00
	00		 call	 DWORD PTR __imp_?Compare@?$CStringT@DV?$StrTraitMFC_DLL@DV?$ChTraitsCRT@D@ATL@@@@@ATL@@QBEHPBD@Z
  00b43	85 c0		 test	 eax, eax
; File D:\git\src\IBK\IBK_DRFN\ProjSrc\SrcDrfn\Chart\MULTICHART\DlgToolbar.cpp

; 1068 : 			else if(strToolName == "")

  00b45	75 15		 jne	 SHORT $LN90@WindowProc

; 1069 : 			{
; 1070 : 				m_bCheckShowData = !m_bCheckShowData;

  00b47	39 87 9c 02 00
	00		 cmp	 DWORD PTR [edi+668], eax
  00b4d	0f 94 c0	 sete	 al
  00b50	89 87 9c 02 00
	00		 mov	 DWORD PTR [edi+668], eax
; File C:\Program Files (x86)\Microsoft Visual Studio\2019\Community\VC\Tools\MSVC\14.29.30133\atlmfc\include\afxwin2.inl

; 32   : 	{ ASSERT(::IsWindow(m_hWnd)); return ::SendMessage(m_hWnd, message, wParam, lParam); }

  00b56	50		 push	 eax
; File D:\git\src\IBK\IBK_DRFN\ProjSrc\SrcDrfn\Chart\MULTICHART\DlgToolbar.cpp

; 1074 : 			}

  00b57	e9 ef fb ff ff	 jmp	 $LN416@WindowProc
$LN90@WindowProc:
; File C:\Program Files (x86)\Microsoft Visual Studio\2019\Community\VC\Tools\MSVC\14.29.30133\atlmfc\include\cstringt.h

; 2486 : 		return(str1.Compare(psz2) == 0);

  00b5c	68 00 00 00 00	 push	 OFFSET ??_C@_08DLHMIPKD@?$LM?v?D?$KB?A?$LG?H?$LI@
  00b61	8d 4d dc	 lea	 ecx, DWORD PTR _strToolName$13[ebp]
  00b64	ff 15 00 00 00
	00		 call	 DWORD PTR __imp_?Compare@?$CStringT@DV?$StrTraitMFC_DLL@DV?$ChTraitsCRT@D@ATL@@@@@ATL@@QBEHPBD@Z
  00b6a	85 c0		 test	 eax, eax
; File D:\git\src\IBK\IBK_DRFN\ProjSrc\SrcDrfn\Chart\MULTICHART\DlgToolbar.cpp

; 1082 : 			else if(strToolName == "")

  00b6c	75 2c		 jne	 SHORT $LN93@WindowProc
; File C:\Program Files (x86)\Microsoft Visual Studio\2019\Community\VC\Tools\MSVC\14.29.30133\atlmfc\include\afxwin2.inl

; 32   : 	{ ASSERT(::IsWindow(m_hWnd)); return ::SendMessage(m_hWnd, message, wParam, lParam); }

  00b6e	8b 87 a4 02 00
	00		 mov	 eax, DWORD PTR [edi+676]
  00b74	6a 01		 push	 1
  00b76	6a 5e		 push	 94			; 0000005eH
  00b78	ff 35 00 00 00
	00		 push	 DWORD PTR ?RMS_ANALYSIS_FUNC@@3IB
  00b7e	ff 70 20	 push	 DWORD PTR [eax+32]
; File D:\git\src\IBK\IBK_DRFN\ProjSrc\SrcDrfn\Chart\MULTICHART\DlgToolbar.cpp

; 1097 : 		}

  00b81	ff 15 00 00 00
	00		 call	 DWORD PTR __imp__SendMessageA@16
  00b87	8d 4d dc	 lea	 ecx, DWORD PTR _strToolName$13[ebp]

; 1148 : 		
; 1149 : 		return 1L;

  00b8a	ff 15 00 00 00
	00		 call	 DWORD PTR __imp_??1?$CStringT@DV?$StrTraitMFC_DLL@DV?$ChTraitsCRT@D@ATL@@@@@ATL@@QAE@XZ
  00b90	b8 01 00 00 00	 mov	 eax, 1
  00b95	e9 e8 01 00 00	 jmp	 $LN1@WindowProc
$LN93@WindowProc:
; File C:\Program Files (x86)\Microsoft Visual Studio\2019\Community\VC\Tools\MSVC\14.29.30133\atlmfc\include\cstringt.h

; 2486 : 		return(str1.Compare(psz2) == 0);

  00b9a	68 00 00 00 00	 push	 OFFSET ??_C@_06MMCCKCBH@?$LF?$LI?$LK?$LI?$LB?b@
  00b9f	8d 4d dc	 lea	 ecx, DWORD PTR _strToolName$13[ebp]
  00ba2	ff 15 00 00 00
	00		 call	 DWORD PTR __imp_?Compare@?$CStringT@DV?$StrTraitMFC_DLL@DV?$ChTraitsCRT@D@ATL@@@@@ATL@@QBEHPBD@Z
  00ba8	8b 8f a4 02 00
	00		 mov	 ecx, DWORD PTR [edi+676]
; File D:\git\src\IBK\IBK_DRFN\ProjSrc\SrcDrfn\Chart\MULTICHART\DlgToolbar.cpp

; 1086 : 			else if(strToolName == "")

  00bae	6a 01		 push	 1
; File C:\Program Files (x86)\Microsoft Visual Studio\2019\Community\VC\Tools\MSVC\14.29.30133\atlmfc\include\cstringt.h

; 2486 : 		return(str1.Compare(psz2) == 0);

  00bb0	85 c0		 test	 eax, eax
; File D:\git\src\IBK\IBK_DRFN\ProjSrc\SrcDrfn\Chart\MULTICHART\DlgToolbar.cpp

; 1086 : 			else if(strToolName == "")

  00bb2	0f 84 0b fd ff
	ff		 je	 $LN410@WindowProc
; File C:\Program Files (x86)\Microsoft Visual Studio\2019\Community\VC\Tools\MSVC\14.29.30133\atlmfc\include\afxwin2.inl

; 32   : 	{ ASSERT(::IsWindow(m_hWnd)); return ::SendMessage(m_hWnd, message, wParam, lParam); }

  00bb8	6a 20		 push	 32			; 00000020H
  00bba	ff 35 00 00 00
	00		 push	 DWORD PTR ?RMS_ANALYSIS_FUNC@@3IB
; File D:\git\src\IBK\IBK_DRFN\ProjSrc\SrcDrfn\Chart\MULTICHART\DlgToolbar.cpp

; 1094 : 				m_pCurToggleBtn = pCurWnd;	

  00bc0	89 9f 98 02 00
	00		 mov	 DWORD PTR [edi+664], ebx
; File C:\Program Files (x86)\Microsoft Visual Studio\2019\Community\VC\Tools\MSVC\14.29.30133\atlmfc\include\afxwin2.inl

; 32   : 	{ ASSERT(::IsWindow(m_hWnd)); return ::SendMessage(m_hWnd, message, wParam, lParam); }

  00bc6	ff 71 20	 push	 DWORD PTR [ecx+32]
; File D:\git\src\IBK\IBK_DRFN\ProjSrc\SrcDrfn\Chart\MULTICHART\DlgToolbar.cpp

; 1097 : 		}

  00bc9	ff 15 00 00 00
	00		 call	 DWORD PTR __imp__SendMessageA@16
  00bcf	8d 4d dc	 lea	 ecx, DWORD PTR _strToolName$13[ebp]

; 1148 : 		
; 1149 : 		return 1L;

  00bd2	ff 15 00 00 00
	00		 call	 DWORD PTR __imp_??1?$CStringT@DV?$StrTraitMFC_DLL@DV?$ChTraitsCRT@D@ATL@@@@@ATL@@QAE@XZ
  00bd8	b8 01 00 00 00	 mov	 eax, 1
  00bdd	e9 a0 01 00 00	 jmp	 $LN1@WindowProc
$LN69@WindowProc:

; 1098 : 		else if(wParam == 2)	// button down

  00be2	83 fe 02	 cmp	 esi, 2
  00be5	0f 85 53 01 00
	00		 jne	 $LN97@WindowProc

; 1099 : 		{	
; 1100 : 			
; 1101 : 			CChartToolBtn* pBtn = (CChartToolBtn *)m_pCurToggleBtn;

  00beb	8b b7 98 02 00
	00		 mov	 esi, DWORD PTR [edi+664]

; 1102 : 
; 1103 : 			int nID = (int)lParam;
; 1104 : 			int nSel = nID - TOOL_BUTTON_BASE_ID;
; 1105 : 
; 1106 : 			if(!m_pCurToggleBtn)

  00bf1	85 f6		 test	 esi, esi
  00bf3	75 07		 jne	 SHORT $LN98@WindowProc

; 1107 : 				return 0L;

  00bf5	33 c0		 xor	 eax, eax
  00bf7	e9 86 01 00 00	 jmp	 $LN1@WindowProc
$LN98@WindowProc:

; 1108 : 			CString strToolName = "";

  00bfc	68 00 00 00 00	 push	 OFFSET ??_C@_00CNPNBAHC@@
  00c01	8d 4d d8	 lea	 ecx, DWORD PTR _strToolName$12[ebp]
  00c04	ff 15 00 00 00
	00		 call	 DWORD PTR __imp_??0?$CStringT@DV?$StrTraitMFC_DLL@DV?$ChTraitsCRT@D@ATL@@@@@ATL@@QAE@PBD@Z

; 1109 : 			m_mapToolName.Lookup(nSel, strToolName);

  00c0a	8d 45 d8	 lea	 eax, DWORD PTR _strToolName$12[ebp]
  00c0d	c7 45 fc 05 00
	00 00		 mov	 DWORD PTR __$EHRec$[ebp+8], 5
  00c14	50		 push	 eax
  00c15	8d 83 0c fe ff
	ff		 lea	 eax, DWORD PTR [ebx-500]
  00c1b	50		 push	 eax
  00c1c	8d 8f 10 03 00
	00		 lea	 ecx, DWORD PTR [edi+784]
  00c22	e8 00 00 00 00	 call	 ?Lookup@?$CMap@HHV?$CStringT@DV?$StrTraitMFC_DLL@DV?$ChTraitsCRT@D@ATL@@@@@ATL@@V12@@@QBEHHAAV?$CStringT@DV?$StrTraitMFC_DLL@DV?$ChTraitsCRT@D@ATL@@@@@ATL@@@Z ; CMap<int,int,ATL::CStringT<char,StrTraitMFC_DLL<char,ATL::ChTraitsCRT<char> > >,ATL::CStringT<char,StrTraitMFC_DLL<char,ATL::ChTraitsCRT<char> > > >::Lookup

; 1110 : 
; 1111 : 			if(m_pCurToggleBtn->GetDlgCtrlID() != nID)

  00c27	8b 8f 98 02 00
	00		 mov	 ecx, DWORD PTR [edi+664]
  00c2d	e8 00 00 00 00	 call	 ?GetDlgCtrlID@CWnd@@QBEHXZ ; CWnd::GetDlgCtrlID
  00c32	3b c3		 cmp	 eax, ebx
  00c34	74 78		 je	 SHORT $LN102@WindowProc

; 1112 : 			{
; 1113 : 
; 1114 : 				if(pBtn && IsWindow(pBtn->m_hWnd))

  00c36	ff 76 20	 push	 DWORD PTR [esi+32]
  00c39	ff 15 00 00 00
	00		 call	 DWORD PTR __imp__IsWindow@4
  00c3f	85 c0		 test	 eax, eax
  00c41	74 6b		 je	 SHORT $LN102@WindowProc

; 1115 : 				{
; 1116 : 					if(GetToolOption(nID) != -1 && GetToolOption(nID) != CToolOptionInfo::TOOLOPTION::T_TOOL_SELECTION)

  00c43	53		 push	 ebx
  00c44	8b cf		 mov	 ecx, edi
  00c46	e8 00 00 00 00	 call	 ?GetToolOption@CDlgToolbar@@QAE?AW4TOOLOPTION@CToolOptionInfo@@I@Z ; CDlgToolbar::GetToolOption
  00c4b	83 f8 ff	 cmp	 eax, -1
  00c4e	74 0c		 je	 SHORT $LN101@WindowProc
  00c50	83 f8 20	 cmp	 eax, 32			; 00000020H
  00c53	74 07		 je	 SHORT $LN101@WindowProc

; 1117 : 					{
; 1118 : 						pBtn->ReleaseBtn();

  00c55	8b ce		 mov	 ecx, esi
  00c57	e8 00 00 00 00	 call	 ?ReleaseBtn@CChartToolBtn@@QAEXXZ ; CChartToolBtn::ReleaseBtn
$LN101@WindowProc:
; File C:\Program Files (x86)\Microsoft Visual Studio\2019\Community\VC\Tools\MSVC\14.29.30133\atlmfc\include\cstringt.h

; 2486 : 		return(str1.Compare(psz2) == 0);

  00c5c	68 00 00 00 00	 push	 OFFSET ??_C@_04OHLPBPFK@?$LF?$LF?G?$PM@
  00c61	8d 4d d8	 lea	 ecx, DWORD PTR _strToolName$12[ebp]
  00c64	ff 15 00 00 00
	00		 call	 DWORD PTR __imp_?Compare@?$CStringT@DV?$StrTraitMFC_DLL@DV?$ChTraitsCRT@D@ATL@@@@@ATL@@QBEHPBD@Z
  00c6a	85 c0		 test	 eax, eax
; File D:\git\src\IBK\IBK_DRFN\ProjSrc\SrcDrfn\Chart\MULTICHART\DlgToolbar.cpp

; 1121 : 					if(strToolName == _T("") ||strToolName == _T("") || strToolName == _T(" ") || strToolName == _T(" "))

  00c6c	74 36		 je	 SHORT $LN103@WindowProc
; File C:\Program Files (x86)\Microsoft Visual Studio\2019\Community\VC\Tools\MSVC\14.29.30133\atlmfc\include\cstringt.h

; 2486 : 		return(str1.Compare(psz2) == 0);

  00c6e	68 00 00 00 00	 push	 OFFSET ??_C@_04HCJKIICH@?$LB?b?H?$KD@
  00c73	8d 4d d8	 lea	 ecx, DWORD PTR _strToolName$12[ebp]
  00c76	ff 15 00 00 00
	00		 call	 DWORD PTR __imp_?Compare@?$CStringT@DV?$StrTraitMFC_DLL@DV?$ChTraitsCRT@D@ATL@@@@@ATL@@QBEHPBD@Z
  00c7c	85 c0		 test	 eax, eax
; File D:\git\src\IBK\IBK_DRFN\ProjSrc\SrcDrfn\Chart\MULTICHART\DlgToolbar.cpp

; 1121 : 					if(strToolName == _T("") ||strToolName == _T("") || strToolName == _T(" ") || strToolName == _T(" "))

  00c7e	74 24		 je	 SHORT $LN103@WindowProc
; File C:\Program Files (x86)\Microsoft Visual Studio\2019\Community\VC\Tools\MSVC\14.29.30133\atlmfc\include\cstringt.h

; 2486 : 		return(str1.Compare(psz2) == 0);

  00c80	68 00 00 00 00	 push	 OFFSET ??_C@_0O@OKNAFKHL@?$LG?s?$MA?N?A?$LO?$LH?y?5?A?v?A?$KE@
  00c85	8d 4d d8	 lea	 ecx, DWORD PTR _strToolName$12[ebp]
  00c88	ff 15 00 00 00
	00		 call	 DWORD PTR __imp_?Compare@?$CStringT@DV?$StrTraitMFC_DLL@DV?$ChTraitsCRT@D@ATL@@@@@ATL@@QBEHPBD@Z
  00c8e	85 c0		 test	 eax, eax
; File D:\git\src\IBK\IBK_DRFN\ProjSrc\SrcDrfn\Chart\MULTICHART\DlgToolbar.cpp

; 1121 : 					if(strToolName == _T("") ||strToolName == _T("") || strToolName == _T(" ") || strToolName == _T(" "))

  00c90	74 12		 je	 SHORT $LN103@WindowProc
; File C:\Program Files (x86)\Microsoft Visual Studio\2019\Community\VC\Tools\MSVC\14.29.30133\atlmfc\include\cstringt.h

; 2486 : 		return(str1.Compare(psz2) == 0);

  00c92	68 00 00 00 00	 push	 OFFSET ??_C@_0M@KBICNPCM@?$LG?s?$MA?N?$LL?v?5?A?v?A?$KE@
  00c97	8d 4d d8	 lea	 ecx, DWORD PTR _strToolName$12[ebp]
  00c9a	ff 15 00 00 00
	00		 call	 DWORD PTR __imp_?Compare@?$CStringT@DV?$StrTraitMFC_DLL@DV?$ChTraitsCRT@D@ATL@@@@@ATL@@QBEHPBD@Z
  00ca0	85 c0		 test	 eax, eax
; File D:\git\src\IBK\IBK_DRFN\ProjSrc\SrcDrfn\Chart\MULTICHART\DlgToolbar.cpp

; 1121 : 					if(strToolName == _T("") ||strToolName == _T("") || strToolName == _T(" ") || strToolName == _T(" "))

  00ca2	75 0a		 jne	 SHORT $LN102@WindowProc
$LN103@WindowProc:

; 1122 : 						m_pCurToggleBtn = NULL;

  00ca4	c7 87 98 02 00
	00 00 00 00 00	 mov	 DWORD PTR [edi+664], 0
$LN102@WindowProc:

; 1123 : 				}		
; 1124 : 			}
; 1125 : 			strToolName.Replace(" ", "");

  00cae	68 00 00 00 00	 push	 OFFSET ??_C@_00CNPNBAHC@@
  00cb3	68 00 00 00 00	 push	 OFFSET ??_C@_01CLKCMJKC@?5@
  00cb8	8d 4d d8	 lea	 ecx, DWORD PTR _strToolName$12[ebp]
  00cbb	ff 15 00 00 00
	00		 call	 DWORD PTR __imp_?Replace@?$CStringT@DV?$StrTraitMFC_DLL@DV?$ChTraitsCRT@D@ATL@@@@@ATL@@QAEHPBD0@Z
; File C:\Program Files (x86)\Microsoft Visual Studio\2019\Community\VC\Tools\MSVC\14.29.30133\atlmfc\include\cstringt.h

; 2486 : 		return(str1.Compare(psz2) == 0);

  00cc1	68 00 00 00 00	 push	 OFFSET ??_C@_0M@DFOJHEAI@Y?C?$OA?$LE?$NM?$MA?$KH?$MA?$PM?H?$KP@
  00cc6	8d 4d d8	 lea	 ecx, DWORD PTR _strToolName$12[ebp]
  00cc9	ff 15 00 00 00
	00		 call	 DWORD PTR __imp_?Compare@?$CStringT@DV?$StrTraitMFC_DLL@DV?$ChTraitsCRT@D@ATL@@@@@ATL@@QBEHPBD@Z
  00ccf	85 c0		 test	 eax, eax
; File D:\git\src\IBK\IBK_DRFN\ProjSrc\SrcDrfn\Chart\MULTICHART\DlgToolbar.cpp

; 1126 : 			if(strToolName == "Y")

  00cd1	75 62		 jne	 SHORT $LN110@WindowProc

; 1127 : 			{
; 1128 : 				if( m_nYUnitType == WON_TICK)

  00cd3	8b 87 b4 02 00
	00		 mov	 eax, DWORD PTR [edi+692]
  00cd9	85 c0		 test	 eax, eax
  00cdb	75 11		 jne	 SHORT $LN105@WindowProc

; 1129 : 				{
; 1130 : 					m_nYUnitType = PERCENT_TICK;

  00cdd	c7 87 b4 02 00
	00 01 00 00 00	 mov	 DWORD PTR [edi+692], 1
  00ce7	b8 01 00 00 00	 mov	 eax, 1

; 1131 : 					//m_btYUnit.SetWindowText("%");
; 1132 : 				}

  00cec	eb 27		 jmp	 SHORT $LN109@WindowProc
$LN105@WindowProc:

; 1133 : 				else if(m_nYUnitType == DOLLAR_TICK)

  00cee	83 f8 02	 cmp	 eax, 2
  00cf1	75 0e		 jne	 SHORT $LN107@WindowProc

; 1134 : 				{
; 1135 : 					m_nYUnitType = WON_TICK;

  00cf3	c7 87 b4 02 00
	00 00 00 00 00	 mov	 DWORD PTR [edi+692], 0
  00cfd	33 c0		 xor	 eax, eax

; 1136 : 					//m_btYUnit.SetWindowText("\\");
; 1137 : 				}

  00cff	eb 14		 jmp	 SHORT $LN109@WindowProc
$LN107@WindowProc:

; 1138 : 				else if(m_nYUnitType == PERCENT_TICK)

  00d01	83 f8 01	 cmp	 eax, 1
  00d04	75 0f		 jne	 SHORT $LN109@WindowProc

; 1139 : 				{
; 1140 : 					m_nYUnitType = DOLLAR_TICK;

  00d06	c7 87 b4 02 00
	00 02 00 00 00	 mov	 DWORD PTR [edi+692], 2
  00d10	b8 02 00 00 00	 mov	 eax, 2
$LN109@WindowProc:

; 1144 : 				if(m_pChartMng->GetSafeHwnd()) // 2005. 04. 22 by Nam

  00d15	8b 8f a8 02 00
	00		 mov	 ecx, DWORD PTR [edi+680]
; File C:\Program Files (x86)\Microsoft Visual Studio\2019\Community\VC\Tools\MSVC\14.29.30133\atlmfc\include\afxwin2.inl

; 25   : 	{ return this == NULL ? NULL : m_hWnd; }

  00d1b	85 c9		 test	 ecx, ecx
  00d1d	74 16		 je	 SHORT $LN110@WindowProc
  00d1f	8b 49 20	 mov	 ecx, DWORD PTR [ecx+32]
; File D:\git\src\IBK\IBK_DRFN\ProjSrc\SrcDrfn\Chart\MULTICHART\DlgToolbar.cpp

; 1144 : 				if(m_pChartMng->GetSafeHwnd()) // 2005. 04. 22 by Nam

  00d22	85 c9		 test	 ecx, ecx
  00d24	74 0f		 je	 SHORT $LN110@WindowProc
; File C:\Program Files (x86)\Microsoft Visual Studio\2019\Community\VC\Tools\MSVC\14.29.30133\atlmfc\include\afxwin2.inl

; 32   : 	{ ASSERT(::IsWindow(m_hWnd)); return ::SendMessage(m_hWnd, message, wParam, lParam); }

  00d26	6a 00		 push	 0
  00d28	50		 push	 eax
  00d29	68 35 04 00 00	 push	 1077			; 00000435H
  00d2e	51		 push	 ecx
  00d2f	ff 15 00 00 00
	00		 call	 DWORD PTR __imp__SendMessageA@16
$LN110@WindowProc:
; File D:\git\src\IBK\IBK_DRFN\ProjSrc\SrcDrfn\Chart\MULTICHART\DlgToolbar.cpp

; 1147 : 		}	

  00d35	8d 4d d8	 lea	 ecx, DWORD PTR _strToolName$12[ebp]

; 1148 : 		
; 1149 : 		return 1L;

  00d38	ff 15 00 00 00
	00		 call	 DWORD PTR __imp_??1?$CStringT@DV?$StrTraitMFC_DLL@DV?$ChTraitsCRT@D@ATL@@@@@ATL@@QAE@XZ
$LN97@WindowProc:
  00d3e	b8 01 00 00 00	 mov	 eax, 1
  00d43	eb 3d		 jmp	 SHORT $LN1@WindowProc
$LN2@WindowProc:

; 1150 : 	}
; 1151 : 	else if(message == RMS_ANALYSIS_FUNC)

  00d45	8b 0d 00 00 00
	00		 mov	 ecx, DWORD PTR ?RMS_ANALYSIS_FUNC@@3IB
  00d4b	3b c1		 cmp	 eax, ecx
  00d4d	75 29		 jne	 SHORT $LN116@WindowProc

; 1152 : 	{
; 1153 : 		NMHDR* nmhdr = (NMHDR*)lParam;
; 1154 : 
; 1155 : 		int nID = (int)wParam;
; 1156 : 		if(nID < 0)

  00d4f	85 f6		 test	 esi, esi
  00d51	78 25		 js	 SHORT $LN116@WindowProc

; 1161 : 		{
; 1162 : 			if(wParam != CToolOptionInfo::TOOLOPTION::T_TOOL_SELECTION)

  00d53	83 fe 20	 cmp	 esi, 32			; 00000020H
  00d56	74 20		 je	 SHORT $LN116@WindowProc

; 1157 : 			return CDialog::WindowProc(message, wParam, lParam);
; 1158 : 
; 1159 : 		//
; 1160 : 		if(nmhdr->code == 1)

  00d58	83 7b 08 01	 cmp	 DWORD PTR [ebx+8], 1
  00d5c	8b 87 a4 02 00
	00		 mov	 eax, DWORD PTR [edi+676]
  00d62	6a 01		 push	 1
  00d64	75 03		 jne	 SHORT $LN113@WindowProc
; File C:\Program Files (x86)\Microsoft Visual Studio\2019\Community\VC\Tools\MSVC\14.29.30133\atlmfc\include\afxwin2.inl

; 32   : 	{ ASSERT(::IsWindow(m_hWnd)); return ::SendMessage(m_hWnd, message, wParam, lParam); }

  00d66	56		 push	 esi
; File D:\git\src\IBK\IBK_DRFN\ProjSrc\SrcDrfn\Chart\MULTICHART\DlgToolbar.cpp

; 1164 : 		}

  00d67	eb 02		 jmp	 SHORT $LN409@WindowProc
$LN113@WindowProc:
; File C:\Program Files (x86)\Microsoft Visual Studio\2019\Community\VC\Tools\MSVC\14.29.30133\atlmfc\include\afxwin2.inl

; 32   : 	{ ASSERT(::IsWindow(m_hWnd)); return ::SendMessage(m_hWnd, message, wParam, lParam); }

  00d69	6a 20		 push	 32			; 00000020H
$LN409@WindowProc:
; File D:\git\src\IBK\IBK_DRFN\ProjSrc\SrcDrfn\Chart\MULTICHART\DlgToolbar.cpp

; 1178 : }

  00d6b	51		 push	 ecx
  00d6c	ff 70 20	 push	 DWORD PTR [eax+32]
  00d6f	ff 15 00 00 00
	00		 call	 DWORD PTR __imp__SendMessageA@16
  00d75	8b 45 08	 mov	 eax, DWORD PTR _message$[ebp]
$LN116@WindowProc:
  00d78	53		 push	 ebx
  00d79	56		 push	 esi
  00d7a	50		 push	 eax
  00d7b	8b cf		 mov	 ecx, edi
  00d7d	e8 00 00 00 00	 call	 ?WindowProc@CWnd@@MAEJIIJ@Z ; CWnd::WindowProc
$LN1@WindowProc:
  00d82	8b 4d f4	 mov	 ecx, DWORD PTR __$EHRec$[ebp]
  00d85	64 89 0d 00 00
	00 00		 mov	 DWORD PTR fs:0, ecx
  00d8c	59		 pop	 ecx
  00d8d	5f		 pop	 edi
  00d8e	5e		 pop	 esi
  00d8f	5b		 pop	 ebx
  00d90	8b 4d f0	 mov	 ecx, DWORD PTR __$ArrayPad$[ebp]
  00d93	33 cd		 xor	 ecx, ebp
  00d95	e8 00 00 00 00	 call	 @__security_check_cookie@4
  00d9a	8b e5		 mov	 esp, ebp
  00d9c	5d		 pop	 ebp
  00d9d	c2 0c 00	 ret	 12			; 0000000cH
_TEXT	ENDS
;	COMDAT text$x
text$x	SEGMENT
__unwindfunclet$?WindowProc@CDlgToolbar@@MAEJIIJ@Z$0:
  00000	8d 4d dc	 lea	 ecx, DWORD PTR _strToolName$15[ebp]
  00003	ff 25 00 00 00
	00		 jmp	 DWORD PTR __imp_??1?$CStringT@DV?$StrTraitMFC_DLL@DV?$ChTraitsCRT@D@ATL@@@@@ATL@@QAE@XZ
__unwindfunclet$?WindowProc@CDlgToolbar@@MAEJIIJ@Z$1:
  00009	8d 4d d0	 lea	 ecx, DWORD PTR __ctlState$5[ebp]
  0000c	e9 00 00 00 00	 jmp	 ??1AFX_MAINTAIN_STATE2@@QAE@XZ ; AFX_MAINTAIN_STATE2::~AFX_MAINTAIN_STATE2
__unwindfunclet$?WindowProc@CDlgToolbar@@MAEJIIJ@Z$2:
  00011	8d 8d 88 fc ff
	ff		 lea	 ecx, DWORD PTR _dlg$2[ebp]
  00017	e9 00 00 00 00	 jmp	 ??1CDlgSettingToolBar@@UAE@XZ
__unwindfunclet$?WindowProc@CDlgToolbar@@MAEJIIJ@Z$3:
  0001c	8d 4d dc	 lea	 ecx, DWORD PTR _strToolName$14[ebp]
  0001f	ff 25 00 00 00
	00		 jmp	 DWORD PTR __imp_??1?$CStringT@DV?$StrTraitMFC_DLL@DV?$ChTraitsCRT@D@ATL@@@@@ATL@@QAE@XZ
__unwindfunclet$?WindowProc@CDlgToolbar@@MAEJIIJ@Z$4:
  00025	8d 4d dc	 lea	 ecx, DWORD PTR _strToolName$13[ebp]
  00028	ff 25 00 00 00
	00		 jmp	 DWORD PTR __imp_??1?$CStringT@DV?$StrTraitMFC_DLL@DV?$ChTraitsCRT@D@ATL@@@@@ATL@@QAE@XZ
__unwindfunclet$?WindowProc@CDlgToolbar@@MAEJIIJ@Z$5:
  0002e	8d 4d d8	 lea	 ecx, DWORD PTR _strToolName$12[ebp]
  00031	ff 25 00 00 00
	00		 jmp	 DWORD PTR __imp_??1?$CStringT@DV?$StrTraitMFC_DLL@DV?$ChTraitsCRT@D@ATL@@@@@ATL@@QAE@XZ
  00037	cc		 int	 3
  00038	cc		 int	 3
  00039	cc		 int	 3
  0003a	cc		 int	 3
  0003b	cc		 int	 3
__ehhandler$?WindowProc@CDlgToolbar@@MAEJIIJ@Z:
  0003c	90		 npad	 1
  0003d	90		 npad	 1
  0003e	8b 54 24 08	 mov	 edx, DWORD PTR [esp+8]
  00042	8d 42 0c	 lea	 eax, DWORD PTR [edx+12]
  00045	8b 8a 84 fc ff
	ff		 mov	 ecx, DWORD PTR [edx-892]
  0004b	33 c8		 xor	 ecx, eax
  0004d	e8 00 00 00 00	 call	 @__security_check_cookie@4
  00052	8b 4a fc	 mov	 ecx, DWORD PTR [edx-4]
  00055	33 c8		 xor	 ecx, eax
  00057	e8 00 00 00 00	 call	 @__security_check_cookie@4
  0005c	b8 00 00 00 00	 mov	 eax, OFFSET __ehfuncinfo$?WindowProc@CDlgToolbar@@MAEJIIJ@Z
  00061	e9 00 00 00 00	 jmp	 ___CxxFrameHandler3
text$x	ENDS
?WindowProc@CDlgToolbar@@MAEJIIJ@Z ENDP			; CDlgToolbar::WindowProc
; Function compile flags: /Ogtp
; File D:\git\src\IBK\IBK_DRFN\ProjSrc\SrcDrfn\Chart\MULTICHART\DlgToolbar.cpp
;	COMDAT ?DoDataExchange@CDlgToolbar@@MAEXPAVCDataExchange@@@Z
_TEXT	SEGMENT
_pDX$ = 8						; size = 4
?DoDataExchange@CDlgToolbar@@MAEXPAVCDataExchange@@@Z PROC ; CDlgToolbar::DoDataExchange, COMDAT
; _this$ = ecx

; 140  : 	CDialog::DoDataExchange(pDX);
; 141  : 	//{{AFX_DATA_MAP(CDlgToolbar)
; 142  : 		// NOTE: the ClassWizard will add DDX and DDV calls here
; 143  : 	//}}AFX_DATA_MAP
; 144  : }

  00000	c2 04 00	 ret	 4
?DoDataExchange@CDlgToolbar@@MAEXPAVCDataExchange@@@Z ENDP ; CDlgToolbar::DoDataExchange
_TEXT	ENDS
; Function compile flags: /Ogtp
; File D:\git\src\IBK\IBK_DRFN\ProjSrc\SrcDrfn\Chart\MULTICHART\DlgToolbar.cpp
; File C:\Program Files (x86)\Microsoft Visual Studio\2019\Community\VC\Tools\MSVC\14.29.30133\atlmfc\include\afxwin2.inl
; File D:\git\src\IBK\IBK_DRFN\ProjSrc\SrcDrfn\Chart\MULTICHART\DlgToolbar.cpp
;	COMDAT ?DestroyWindow@CDlgToolbar@@UAEHXZ
_TEXT	SEGMENT
?DestroyWindow@CDlgToolbar@@UAEHXZ PROC			; CDlgToolbar::DestroyWindow, COMDAT
; _this$ = ecx

; 1181 : {

  00000	56		 push	 esi
  00001	8b f1		 mov	 esi, ecx
; File C:\Program Files (x86)\Microsoft Visual Studio\2019\Community\VC\Tools\MSVC\14.29.30133\atlmfc\include\afxwin2.inl

; 32   : 	{ ASSERT(::IsWindow(m_hWnd)); return ::SendMessage(m_hWnd, message, wParam, lParam); }

  00003	6a 00		 push	 0
  00005	6a 20		 push	 32			; 00000020H
  00007	ff 35 00 00 00
	00		 push	 DWORD PTR ?RMS_ANALYSIS_FUNC@@3IB
  0000d	8b 86 a4 02 00
	00		 mov	 eax, DWORD PTR [esi+676]
  00013	ff 70 20	 push	 DWORD PTR [eax+32]
  00016	ff 15 00 00 00
	00		 call	 DWORD PTR __imp__SendMessageA@16
; File D:\git\src\IBK\IBK_DRFN\ProjSrc\SrcDrfn\Chart\MULTICHART\DlgToolbar.cpp

; 1183 : 	return CDialog::DestroyWindow();

  0001c	8b ce		 mov	 ecx, esi
  0001e	5e		 pop	 esi
  0001f	e9 00 00 00 00	 jmp	 ?DestroyWindow@CWnd@@UAEHXZ ; CWnd::DestroyWindow
?DestroyWindow@CDlgToolbar@@UAEHXZ ENDP			; CDlgToolbar::DestroyWindow
_TEXT	ENDS
; Function compile flags: /Ogtp
; File D:\git\src\IBK\IBK_DRFN\ProjSrc\SrcDrfn\Chart\MULTICHART\DlgToolbar.cpp
;	COMDAT ?OnCmdMsg@CDlgToolbar@@UAEHIHPAXPAUAFX_CMDHANDLERINFO@@@Z
_TEXT	SEGMENT
_nID$ = 8						; size = 4
_nCode$ = 12						; size = 4
_pExtra$ = 16						; size = 4
_pHandlerInfo$ = 20					; size = 4
?OnCmdMsg@CDlgToolbar@@UAEHIHPAXPAUAFX_CMDHANDLERINFO@@@Z PROC ; CDlgToolbar::OnCmdMsg, COMDAT
; _this$ = ecx

; 1741 : {

  00000	55		 push	 ebp
  00001	8b ec		 mov	 ebp, esp

; 1742 : 	// TODO: Add your specialized code here and/or call the base class
; 1743 : 	if(nCode ==CN_COMMAND)

  00003	83 7d 0c 00	 cmp	 DWORD PTR _nCode$[ebp], 0
  00007	53		 push	 ebx
  00008	8b 5d 08	 mov	 ebx, DWORD PTR _nID$[ebp]
  0000b	56		 push	 esi
  0000c	8b f1		 mov	 esi, ecx
  0000e	75 6c		 jne	 SHORT $LN2@OnCmdMsg

; 1744 : 	{
; 1745 : 		long nCmdID = nID - TOOL_BUTTON_BASE_ID;

  00010	8d 83 0c fe ff
	ff		 lea	 eax, DWORD PTR [ebx-500]

; 1746 : 
; 1747 : 		switch(nCmdID)

  00016	2d c8 00 00 00	 sub	 eax, 200		; 000000c8H
  0001b	74 35		 je	 SHORT $LN5@OnCmdMsg
  0001d	83 e8 01	 sub	 eax, 1
  00020	75 5a		 jne	 SHORT $LN2@OnCmdMsg

; 1755 : 					break;
; 1756 : 			case 201:	//
; 1757 : 				if (m_drawinfo.nCalcMenuCount < 1)

  00022	83 be 3c 03 00
	00 01		 cmp	 DWORD PTR [esi+828], 1
  00029	7d 0c		 jge	 SHORT $LN8@OnCmdMsg

; 1758 : 				{
; 1759 : 					AfxMessageBox("ToolBar    .");

  0002b	50		 push	 eax
  0002c	50		 push	 eax
  0002d	68 00 00 00 00	 push	 OFFSET ??_C@_0CJ@BIEPGJJM@ToolBar?$LP?$KB?5?G?O?$MA?$KH?$LI?$NO?$LE?$LK?$LI?$KG?5?G?$KF?$LN?C?G?R?5?$LM?v?5@
  00032	e8 00 00 00 00	 call	 ?AfxMessageBox@@YGHPBDII@Z ; AfxMessageBox
$LN8@OnCmdMsg:

; 1760 : 				}
; 1761 : 				DrawLowMenu(m_drawinfo.nLowMenuCount,m_drawinfo.nHighMenuCount, m_nSelTool);

  00037	ff b6 2c 03 00
	00		 push	 DWORD PTR [esi+812]
  0003d	8b ce		 mov	 ecx, esi
  0003f	ff b6 40 03 00
	00		 push	 DWORD PTR [esi+832]
  00045	ff b6 44 03 00
	00		 push	 DWORD PTR [esi+836]
  0004b	e8 00 00 00 00	 call	 ?DrawLowMenu@CDlgToolbar@@IAEHHHH@Z ; CDlgToolbar::DrawLowMenu
  00050	eb 2a		 jmp	 SHORT $LN2@OnCmdMsg
$LN5@OnCmdMsg:

; 1748 : 		{
; 1749 : 			case 200:	//Up
; 1750 : 				if (m_drawinfo.nCalcMenuCount < 1)

  00052	83 be 3c 03 00
	00 01		 cmp	 DWORD PTR [esi+828], 1
  00059	7d 0e		 jge	 SHORT $LN6@OnCmdMsg

; 1751 : 				{
; 1752 : 					AfxMessageBox("ToolBar    .");

  0005b	6a 00		 push	 0
  0005d	6a 00		 push	 0
  0005f	68 00 00 00 00	 push	 OFFSET ??_C@_0CJ@OKMEPDME@ToolBar?$LP?$KB?5?$LL?s?$MA?$KH?$LI?$NO?$LE?$LK?$LI?$KG?5?G?$KF?$LN?C?G?R?5?$LM?v?5@
  00064	e8 00 00 00 00	 call	 ?AfxMessageBox@@YGHPBDII@Z ; AfxMessageBox
$LN6@OnCmdMsg:

; 1753 : 				}
; 1754 : 				DrawHighMenu(m_drawinfo.nHighMenuCount, m_nSelTool);

  00069	ff b6 2c 03 00
	00		 push	 DWORD PTR [esi+812]
  0006f	8b ce		 mov	 ecx, esi
  00071	ff b6 40 03 00
	00		 push	 DWORD PTR [esi+832]
  00077	e8 00 00 00 00	 call	 ?DrawHighMenu@CDlgToolbar@@IAEHHH@Z ; CDlgToolbar::DrawHighMenu
$LN2@OnCmdMsg:

; 1762 : 				break;
; 1763 : 		}
; 1764 : 	}
; 1765 : 	return CWnd::OnCmdMsg(nID, nCode, pExtra, pHandlerInfo);

  0007c	ff 75 14	 push	 DWORD PTR _pHandlerInfo$[ebp]
  0007f	8b ce		 mov	 ecx, esi
  00081	ff 75 10	 push	 DWORD PTR _pExtra$[ebp]
  00084	ff 75 0c	 push	 DWORD PTR _nCode$[ebp]
  00087	53		 push	 ebx
  00088	e8 00 00 00 00	 call	 ?OnCmdMsg@CCmdTarget@@UAEHIHPAXPAUAFX_CMDHANDLERINFO@@@Z ; CCmdTarget::OnCmdMsg
  0008d	5e		 pop	 esi
  0008e	5b		 pop	 ebx

; 1766 : }

  0008f	5d		 pop	 ebp
  00090	c2 10 00	 ret	 16			; 00000010H
?OnCmdMsg@CDlgToolbar@@UAEHIHPAXPAUAFX_CMDHANDLERINFO@@@Z ENDP ; CDlgToolbar::OnCmdMsg
_TEXT	ENDS
; Function compile flags: /Ogtp
; File D:\git\src\IBK\IBK_DRFN\ProjSrc\SrcDrfn\Chart\MULTICHART\DlgToolbar.cpp
;	COMDAT ?GetDrawInfo@CDlgToolbar@@IAEXHH@Z
_TEXT	SEGMENT
_nY$ = 8						; size = 4
_nSelTool$ = 12						; size = 4
?GetDrawInfo@CDlgToolbar@@IAEXHH@Z PROC			; CDlgToolbar::GetDrawInfo, COMDAT
; _this$ = ecx

; 1354 : {	

  00000	55		 push	 ebp
  00001	8b ec		 mov	 ebp, esp

; 1355 : 	int		nWinPos, nLow, ncnt;
; 1356 : 
; 1357 : 	//  
; 1358 : 	if (nSelTool == 0)						//

  00003	8b 45 0c	 mov	 eax, DWORD PTR _nSelTool$[ebp]
  00006	56		 push	 esi
  00007	8b f1		 mov	 esi, ecx
  00009	85 c0		 test	 eax, eax
  0000b	75 08		 jne	 SHORT $LN2@GetDrawInf

; 1359 : 		m_drawinfo.nRealMenuCount = m_arrayUserIdx.GetSize();

  0000d	8b 86 04 03 00
	00		 mov	 eax, DWORD PTR [esi+772]
  00013	eb 18		 jmp	 SHORT $LN10@GetDrawInf
$LN2@GetDrawInf:

; 1360 : 	else if (nSelTool == 1)					// 

  00015	83 f8 01	 cmp	 eax, 1
  00018	75 08		 jne	 SHORT $LN4@GetDrawInf

; 1361 : 		m_drawinfo.nRealMenuCount = m_arrayAnalIdx.GetSize();

  0001a	8b 86 dc 02 00
	00		 mov	 eax, DWORD PTR [esi+732]
  00020	eb 0b		 jmp	 SHORT $LN10@GetDrawInf
$LN4@GetDrawInf:

; 1362 : 	else if (nSelTool == 2)					// 

  00022	83 f8 02	 cmp	 eax, 2
  00025	75 0c		 jne	 SHORT $LN6@GetDrawInf

; 1363 : 		m_drawinfo.nRealMenuCount = m_arrayAdditionIdx.GetSize();

  00027	8b 86 f0 02 00
	00		 mov	 eax, DWORD PTR [esi+752]
$LN10@GetDrawInf:

; 1364 : 
; 1365 : 	//   
; 1366 : 	nWinPos = nY - (Y_OFFSET); 

  0002d	89 86 38 03 00
	00		 mov	 DWORD PTR [esi+824], eax
$LN6@GetDrawInf:
  00033	8b 4d 08	 mov	 ecx, DWORD PTR _nY$[ebp]

; 1367 : 	m_drawinfo.nCurrWindowPos = nWinPos;
; 1368 : 
; 1369 : 	//     
; 1370 : 	// -1    
; 1371 : 	ncnt = nWinPos / TOOL_BUTTON_HEIGHT;

  00036	b8 e9 a2 8b 2e	 mov	 eax, 780903145		; 2e8ba2e9H
  0003b	83 c1 fe	 add	 ecx, -2			; fffffffeH
  0003e	f7 e9		 imul	 ecx

; 1372 : 	m_drawinfo.nCalcMenuCount = ncnt - 1;
; 1373 : 
; 1374 : 	//   
; 1375 : 	m_drawinfo.nHighMenuCount = m_drawinfo.nCalcMenuCount;
; 1376 : 
; 1377 : 	//   
; 1378 : 	nLow = m_drawinfo.nRealMenuCount - m_drawinfo.nHighMenuCount + 2;

  00040	8b 86 38 03 00
	00		 mov	 eax, DWORD PTR [esi+824]
  00046	89 8e 34 03 00
	00		 mov	 DWORD PTR [esi+820], ecx
  0004c	c1 fa 02	 sar	 edx, 2
  0004f	8b ca		 mov	 ecx, edx
  00051	c1 e9 1f	 shr	 ecx, 31			; 0000001fH
  00054	49		 dec	 ecx
  00055	03 ca		 add	 ecx, edx
  00057	2b c1		 sub	 eax, ecx
  00059	89 8e 3c 03 00
	00		 mov	 DWORD PTR [esi+828], ecx
  0005f	89 8e 40 03 00
	00		 mov	 DWORD PTR [esi+832], ecx
  00065	8d 48 02	 lea	 ecx, DWORD PTR [eax+2]

; 1379 : 	if (nLow <= 0)
; 1380 : 		m_drawinfo.nLowMenuCount = 0;
; 1381 : 	else
; 1382 : 		m_drawinfo.nLowMenuCount = nLow;
; 1383 : 
; 1384 : 	/*CString st;
; 1385 : 	st.Format("\n = %d /  = %d /  = %d /  = %d / lt = %d\n curr = %d / npos = %d / ncnt = %d\n", m_drawinfo.nRealMenuCount, m_drawinfo.nCalcMenuCount, 
; 1386 : 	m_drawinfo.nHighMenuCount, m_drawinfo.nLowMenuCount, m_drawinfo.nLastBtnPos, m_drawinfo.nCurrWindowPos,nWinPos);
; 1387 : 	OutputDebugString(st);*/
; 1388 : 
; 1389 : 	return;
; 1390 : }

  00068	33 c0		 xor	 eax, eax
  0006a	85 c9		 test	 ecx, ecx
  0006c	0f 4f c1	 cmovg	 eax, ecx
  0006f	89 86 44 03 00
	00		 mov	 DWORD PTR [esi+836], eax
  00075	5e		 pop	 esi
  00076	5d		 pop	 ebp
  00077	c2 08 00	 ret	 8
?GetDrawInfo@CDlgToolbar@@IAEXHH@Z ENDP			; CDlgToolbar::GetDrawInfo
_TEXT	ENDS
; Function compile flags: /Ogtp
; File D:\git\src\IBK\IBK_DRFN\ProjSrc\SrcDrfn\Chart\MULTICHART\DlgToolbar.cpp
; File C:\Program Files (x86)\Microsoft Visual Studio\2019\Community\VC\Tools\MSVC\14.29.30133\atlmfc\include\afxwin2.inl
; File D:\git\src\IBK\IBK_DRFN\ProjSrc\SrcDrfn\Chart\MULTICHART\DlgToolbar.cpp
; File C:\Program Files (x86)\Microsoft Visual Studio\2019\Community\VC\Tools\MSVC\14.29.30133\atlmfc\include\afxwin2.inl
; File D:\git\src\IBK\IBK_DRFN\ProjSrc\SrcDrfn\Chart\MULTICHART\DlgToolbar.cpp
; File C:\Program Files (x86)\Microsoft Visual Studio\2019\Community\VC\Tools\MSVC\14.29.30133\atlmfc\include\afxwin2.inl
; File D:\git\src\IBK\IBK_DRFN\ProjSrc\SrcDrfn\Chart\MULTICHART\DlgToolbar.cpp
; File C:\Program Files (x86)\Microsoft Visual Studio\2019\Community\VC\Tools\MSVC\14.29.30133\atlmfc\include\afxtempl.h
; File D:\git\src\IBK\IBK_DRFN\ProjSrc\SrcDrfn\Chart\MULTICHART\DlgToolbar.cpp
; File C:\Program Files (x86)\Microsoft Visual Studio\2019\Community\VC\Tools\MSVC\14.29.30133\atlmfc\include\afxtempl.h
; File D:\git\src\IBK\IBK_DRFN\ProjSrc\SrcDrfn\Chart\MULTICHART\DlgToolbar.cpp
; File C:\Program Files (x86)\Microsoft Visual Studio\2019\Community\VC\Tools\MSVC\14.29.30133\atlmfc\include\afxtempl.h
; File D:\git\src\IBK\IBK_DRFN\ProjSrc\SrcDrfn\Chart\MULTICHART\DlgToolbar.cpp
; File C:\Program Files (x86)\Microsoft Visual Studio\2019\Community\VC\Tools\MSVC\14.29.30133\atlmfc\include\afxwin2.inl
; File D:\git\src\IBK\IBK_DRFN\ProjSrc\SrcDrfn\Chart\MULTICHART\DlgToolbar.cpp
; File C:\Program Files (x86)\Microsoft Visual Studio\2019\Community\VC\Tools\MSVC\14.29.30133\atlmfc\include\afxwin2.inl
; File C:\Program Files (x86)\Microsoft Visual Studio\2019\Community\VC\Tools\MSVC\14.29.30133\atlmfc\include\atltypes.h
; File C:\Program Files (x86)\Microsoft Visual Studio\2019\Community\VC\Tools\MSVC\14.29.30133\atlmfc\include\afxwin2.inl
; File D:\git\src\IBK\IBK_DRFN\ProjSrc\SrcDrfn\Chart\MULTICHART\DlgToolbar.cpp
; File C:\Program Files (x86)\Microsoft Visual Studio\2019\Community\VC\Tools\MSVC\14.29.30133\atlmfc\include\afxwin2.inl
; File D:\git\src\IBK\IBK_DRFN\ProjSrc\SrcDrfn\Chart\MULTICHART\DlgToolbar.cpp
; File C:\Program Files (x86)\Microsoft Visual Studio\2019\Community\VC\Tools\MSVC\14.29.30133\atlmfc\include\afxwin2.inl
; File D:\git\src\IBK\IBK_DRFN\ProjSrc\SrcDrfn\Chart\MULTICHART\DlgToolbar.cpp
; File C:\Program Files (x86)\Microsoft Visual Studio\2019\Community\VC\Tools\MSVC\14.29.30133\atlmfc\include\afxwin2.inl
; File D:\git\src\IBK\IBK_DRFN\ProjSrc\SrcDrfn\Chart\MULTICHART\DlgToolbar.cpp
; File C:\Program Files (x86)\Microsoft Visual Studio\2019\Community\VC\Tools\MSVC\14.29.30133\atlmfc\include\afxwin2.inl
; File D:\git\src\IBK\IBK_DRFN\ProjSrc\SrcDrfn\Chart\MULTICHART\DlgToolbar.cpp
; File C:\Program Files (x86)\Microsoft Visual Studio\2019\Community\VC\Tools\MSVC\14.29.30133\atlmfc\include\afxtempl.h
; File D:\git\src\IBK\IBK_DRFN\ProjSrc\SrcDrfn\Chart\MULTICHART\DlgToolbar.cpp
;	COMDAT ?DrawLowMenu@CDlgToolbar@@IAEHHHH@Z
_TEXT	SEGMENT
tv1077 = -40						; size = 4
_nLoop$ = -40						; size = 4
_nMod$ = -40						; size = 4
tv1078 = -36						; size = 4
tv1089 = -32						; size = 4
_nKeyIdx$ = -28						; size = 4
_nLoop$1$ = -24						; size = 4
_toolrect$1 = -20					; size = 16
__$ArrayPad$ = -4					; size = 4
_nLowMenuCount$ = 8					; size = 4
_nHighMenuCount$ = 12					; size = 4
_nSelTool$ = 16						; size = 4
?DrawLowMenu@CDlgToolbar@@IAEHHHH@Z PROC		; CDlgToolbar::DrawLowMenu, COMDAT
; _this$ = ecx

; 1457 : {

  00000	55		 push	 ebp
  00001	8b ec		 mov	 ebp, esp
  00003	83 ec 28	 sub	 esp, 40			; 00000028H
  00006	a1 00 00 00 00	 mov	 eax, DWORD PTR ___security_cookie
  0000b	33 c5		 xor	 eax, ebp
  0000d	89 45 fc	 mov	 DWORD PTR __$ArrayPad$[ebp], eax
  00010	56		 push	 esi
  00011	8b f1		 mov	 esi, ecx

; 1458 : 	if (m_drawinfo.nLowBojo == 0)

  00013	83 be 4c 03 00
	00 00		 cmp	 DWORD PTR [esi+844], 0
  0001a	75 2e		 jne	 SHORT $LN8@DrawLowMen

; 1459 : 	{
; 1460 : 		m_pBtnDown->EnableWindow(FALSE);

  0001c	8b 8e 68 03 00
	00		 mov	 ecx, DWORD PTR [esi+872]
  00022	6a 00		 push	 0
  00024	e8 00 00 00 00	 call	 ?EnableWindow@CWnd@@QAEHH@Z ; CWnd::EnableWindow

; 1461 : 		AfxMessageBox("  .");

  00029	6a 00		 push	 0
  0002b	6a 00		 push	 0
  0002d	68 00 00 00 00	 push	 OFFSET ??_C@_0BM@HJIIOEBE@?G?$KF?$LN?C?G?R?5?G?O?$MA?$KH?$LI?$NO?$LE?$LK?$LA?$KB?5?$LO?x?$LN?$MA?$LE?O?$LE?Y?4@
  00032	e8 00 00 00 00	 call	 ?AfxMessageBox@@YGHPBDII@Z ; AfxMessageBox
$LN160@DrawLowMen:

; 1610 : }

  00037	33 c0		 xor	 eax, eax
  00039	5e		 pop	 esi
  0003a	8b 4d fc	 mov	 ecx, DWORD PTR __$ArrayPad$[ebp]
  0003d	33 cd		 xor	 ecx, ebp
  0003f	e8 00 00 00 00	 call	 @__security_check_cookie@4
  00044	8b e5		 mov	 esp, ebp
  00046	5d		 pop	 ebp
  00047	c2 0c 00	 ret	 12			; 0000000cH
$LN8@DrawLowMen:

; 1462 : 		return FALSE;
; 1463 : 
; 1464 : 	}
; 1465 : 	else if ((m_drawinfo.nCalcMenuCount <= 1) && (m_nResizeFlag == 1))

  0004a	83 be 3c 03 00
	00 01		 cmp	 DWORD PTR [esi+828], 1
  00051	7f 26		 jg	 SHORT $LN161@DrawLowMen
  00053	83 be 60 03 00
	00 01		 cmp	 DWORD PTR [esi+864], 1
  0005a	75 1d		 jne	 SHORT $LN161@DrawLowMen

; 1466 : 	{
; 1467 : #ifdef _DEBUG
; 1468 : 		AfxMessageBox("ToolBar    .");
; 1469 : #endif
; 1470 : 		m_nResizeFlag = 0;

  0005c	c7 86 60 03 00
	00 00 00 00 00	 mov	 DWORD PTR [esi+864], 0

; 1610 : }

  00066	33 c0		 xor	 eax, eax
  00068	5e		 pop	 esi
  00069	8b 4d fc	 mov	 ecx, DWORD PTR __$ArrayPad$[ebp]
  0006c	33 cd		 xor	 ecx, ebp
  0006e	e8 00 00 00 00	 call	 @__security_check_cookie@4
  00073	8b e5		 mov	 esp, ebp
  00075	5d		 pop	 ebp
  00076	c2 0c 00	 ret	 12			; 0000000cH
$LN161@DrawLowMen:

; 1474 : 	if(!m_pToolBtn[0]->GetSafeHwnd())

  00079	8b 86 a8 00 00
	00		 mov	 eax, DWORD PTR [esi+168]
; File C:\Program Files (x86)\Microsoft Visual Studio\2019\Community\VC\Tools\MSVC\14.29.30133\atlmfc\include\afxwin2.inl

; 25   : 	{ return this == NULL ? NULL : m_hWnd; }

  0007f	85 c0		 test	 eax, eax
  00081	74 b4		 je	 SHORT $LN160@DrawLowMen
; File D:\git\src\IBK\IBK_DRFN\ProjSrc\SrcDrfn\Chart\MULTICHART\DlgToolbar.cpp

; 1474 : 	if(!m_pToolBtn[0]->GetSafeHwnd())

  00083	83 78 20 00	 cmp	 DWORD PTR [eax+32], 0
  00087	74 ae		 je	 SHORT $LN160@DrawLowMen

; 1475 : 		return FALSE;
; 1476 : 
; 1477 : 	m_pBtnUp->EnableWindow(TRUE);

  00089	8b 8e 64 03 00
	00		 mov	 ecx, DWORD PTR [esi+868]
  0008f	53		 push	 ebx
  00090	57		 push	 edi
  00091	6a 01		 push	 1
  00093	e8 00 00 00 00	 call	 ?EnableWindow@CWnd@@QAEHH@Z ; CWnd::EnableWindow

; 1478 : 	m_pBtnDown->EnableWindow(TRUE);

  00098	8b 8e 68 03 00
	00		 mov	 ecx, DWORD PTR [esi+872]
  0009e	6a 01		 push	 1
  000a0	e8 00 00 00 00	 call	 ?EnableWindow@CWnd@@QAEHH@Z ; CWnd::EnableWindow
; File C:\Program Files (x86)\Microsoft Visual Studio\2019\Community\VC\Tools\MSVC\14.29.30133\atlmfc\include\afxwin2.inl

; 73   : 	{ MoveWindow(lpRect->left, lpRect->top, lpRect->right - lpRect->left,

  000a5	8b 8e a8 00 00
	00		 mov	 ecx, DWORD PTR [esi+168]
  000ab	6a 01		 push	 1
  000ad	6a 16		 push	 22			; 00000016H
  000af	6a 1c		 push	 28			; 0000001cH
  000b1	6a 02		 push	 2
  000b3	6a 02		 push	 2
  000b5	e8 00 00 00 00	 call	 ?MoveWindow@CWnd@@QAEXHHHHH@Z ; CWnd::MoveWindow
; File D:\git\src\IBK\IBK_DRFN\ProjSrc\SrcDrfn\Chart\MULTICHART\DlgToolbar.cpp

; 1495 : 	for( i = 3; i < m_arrayTotalIdx.GetSize()+5; i++)

  000ba	8b 86 c8 02 00
	00		 mov	 eax, DWORD PTR [esi+712]
  000c0	bb 03 00 00 00	 mov	 ebx, 3
  000c5	83 c0 05	 add	 eax, 5
  000c8	3b c3		 cmp	 eax, ebx
  000ca	7e 2c		 jle	 SHORT $LN3@DrawLowMen

; 1475 : 		return FALSE;
; 1476 : 
; 1477 : 	m_pBtnUp->EnableWindow(TRUE);

  000cc	8d be b4 00 00
	00		 lea	 edi, DWORD PTR [esi+180]
$LL4@DrawLowMen:

; 1496 : 	{
; 1497 : 		if(m_pToolBtn[i])

  000d2	8b 0f		 mov	 ecx, DWORD PTR [edi]
  000d4	85 c9		 test	 ecx, ecx
  000d6	74 0f		 je	 SHORT $LN2@DrawLowMen
; File C:\Program Files (x86)\Microsoft Visual Studio\2019\Community\VC\Tools\MSVC\14.29.30133\atlmfc\include\afxwin2.inl

; 73   : 	{ MoveWindow(lpRect->left, lpRect->top, lpRect->right - lpRect->left,

  000d8	6a 01		 push	 1
  000da	6a 00		 push	 0
  000dc	6a 00		 push	 0
  000de	6a 00		 push	 0
  000e0	6a 00		 push	 0
  000e2	e8 00 00 00 00	 call	 ?MoveWindow@CWnd@@QAEXHHHHH@Z ; CWnd::MoveWindow
$LN2@DrawLowMen:
; File D:\git\src\IBK\IBK_DRFN\ProjSrc\SrcDrfn\Chart\MULTICHART\DlgToolbar.cpp

; 1495 : 	for( i = 3; i < m_arrayTotalIdx.GetSize()+5; i++)

  000e7	8b 86 c8 02 00
	00		 mov	 eax, DWORD PTR [esi+712]
  000ed	43		 inc	 ebx
  000ee	83 c0 05	 add	 eax, 5
  000f1	83 c7 04	 add	 edi, 4
  000f4	3b d8		 cmp	 ebx, eax
  000f6	7c da		 jl	 SHORT $LL4@DrawLowMen
$LN3@DrawLowMen:

; 1498 : 			m_pToolBtn[i]->MoveWindow(&rect);
; 1499 : 	}
; 1500 : 	int nKeyInx;
; 1501 : 	int nPos = 0;
; 1502 : 
; 1503 : 	nKeyInx = nSelTool;
; 1504 : 	m_pToolBtn[0]->SetValueBtn(GetToolOption(TOOL_BUTTON_BASE_ID + 0), g_bToggle_Bar[0], m_pIL_W28H22, nKeyInx*3, nKeyInx*3+1, nKeyInx*3+2);

  000f8	8b 45 10	 mov	 eax, DWORD PTR _nSelTool$[ebp]
  000fb	33 ff		 xor	 edi, edi
  000fd	8d 0c 40	 lea	 ecx, DWORD PTR [eax+eax*2]
  00100	8d 41 02	 lea	 eax, DWORD PTR [ecx+2]
  00103	50		 push	 eax
  00104	8d 41 01	 lea	 eax, DWORD PTR [ecx+1]
  00107	50		 push	 eax
  00108	51		 push	 ecx
  00109	ff b6 bc 02 00
	00		 push	 DWORD PTR [esi+700]
  0010f	8b 8e a8 00 00
	00		 mov	 ecx, DWORD PTR [esi+168]
  00115	ff 35 00 00 00
	00		 push	 DWORD PTR ?g_bToggle_Bar@@3PAHA
  0011b	6a ff		 push	 -1
  0011d	e8 00 00 00 00	 call	 ?SetValueBtn@CChartToolBtn@@QAEXW4TOOLOPTION@CToolOptionInfo@@HPAVCImageList@@HHH@Z ; CChartToolBtn::SetValueBtn

; 1505 : 
; 1506 : 	int nTmp, nMod, nLoop;
; 1507 : 	if ( nLowMenuCount >= m_drawinfo.nCalcMenuCount)

  00122	8b 9e 3c 03 00
	00		 mov	 ebx, DWORD PTR [esi+828]
  00128	8b 45 08	 mov	 eax, DWORD PTR _nLowMenuCount$[ebp]
  0012b	89 5d e8	 mov	 DWORD PTR _nLoop$1$[ebp], ebx
  0012e	3b c3		 cmp	 eax, ebx
  00130	7c 3f		 jl	 SHORT $LN163@DrawLowMen

; 1508 : 	{
; 1509 : 		nMod = (nLowMenuCount - 1) % (m_drawinfo.nCalcMenuCount-1);

  00132	48		 dec	 eax
  00133	8d 4b ff	 lea	 ecx, DWORD PTR [ebx-1]
  00136	99		 cdq
  00137	f7 f9		 idiv	 ecx

; 1510 : 
; 1511 : 		if (m_drawinfo.nLowBojo == -1)

  00139	83 be 4c 03 00
	00 ff		 cmp	 DWORD PTR [esi+844], -1
  00140	75 32		 jne	 SHORT $LN19@DrawLowMen

; 1512 : 		{
; 1513 : 			if (nMod > 0)

  00142	85 d2		 test	 edx, edx
  00144	7e 03		 jle	 SHORT $LN167@DrawLowMen

; 1514 : 				nTmp = ((nLowMenuCount - 1) / (m_drawinfo.nCalcMenuCount -1)) + 1;

  00146	40		 inc	 eax
  00147	eb 02		 jmp	 SHORT $LN18@DrawLowMen
$LN167@DrawLowMen:

; 1515 : 			else if (nMod == 0)

  00149	75 18		 jne	 SHORT $LN17@DrawLowMen
$LN18@DrawLowMen:

; 1519 : 
; 1520 : 			m_drawinfo.nLowBojo = nTmp;

  0014b	89 86 4c 03 00
	00		 mov	 DWORD PTR [esi+844], eax

; 1521 : 			m_drawinfo.nTotBojo = nTmp;

  00151	89 86 5c 03 00
	00		 mov	 DWORD PTR [esi+860], eax

; 1522 : 
; 1523 : 			//
; 1524 : 			if (nTmp > 0)

  00157	85 c0		 test	 eax, eax
  00159	7e 19		 jle	 SHORT $LN19@DrawLowMen

; 1525 : 				m_drawinfo.nHighBojo = 0;

  0015b	89 be 54 03 00
	00		 mov	 DWORD PTR [esi+852], edi
  00161	eb 11		 jmp	 SHORT $LN19@DrawLowMen
$LN17@DrawLowMen:

; 1516 : 				nTmp = ((nLowMenuCount - 1) / (m_drawinfo.nCalcMenuCount - 1));
; 1517 : 			else
; 1518 : 				nTmp = 0;

  00163	89 be 4c 03 00
	00		 mov	 DWORD PTR [esi+844], edi
  00169	89 be 5c 03 00
	00		 mov	 DWORD PTR [esi+860], edi
  0016f	eb 03		 jmp	 SHORT $LN19@DrawLowMen
$LN163@DrawLowMen:

; 1505 : 
; 1506 : 	int nTmp, nMod, nLoop;
; 1507 : 	if ( nLowMenuCount >= m_drawinfo.nCalcMenuCount)

  00171	8b 55 d8	 mov	 edx, DWORD PTR _nMod$[ebp]
$LN19@DrawLowMen:

; 1526 : 		}		
; 1527 : 	}
; 1528 : 
; 1529 : 	if (m_drawinfo.nLowBojo > 1) 

  00174	8b 8e 4c 03 00
	00		 mov	 ecx, DWORD PTR [esi+844]
  0017a	83 f9 01	 cmp	 ecx, 1
  0017d	7e 04		 jle	 SHORT $LN20@DrawLowMen

; 1530 : 		nLoop = m_drawinfo.nCalcMenuCount;

  0017f	8b c3		 mov	 eax, ebx
  00181	eb 1b		 jmp	 SHORT $LN26@DrawLowMen
$LN20@DrawLowMen:

; 1531 : 	else if (m_drawinfo.nLowBojo == 1 )

  00183	75 0d		 jne	 SHORT $LN22@DrawLowMen

; 1532 : 	{
; 1533 : 		if (nMod > 0)
; 1534 : 			nLoop = nMod + 1;
; 1535 : 		else
; 1536 : 			nLoop = m_drawinfo.nCalcMenuCount;
; 1537 : 	}

  00185	85 d2		 test	 edx, edx
  00187	8d 42 01	 lea	 eax, DWORD PTR [edx+1]
  0018a	0f 4e c3	 cmovle	 eax, ebx
  0018d	89 45 e8	 mov	 DWORD PTR _nLoop$1$[ebp], eax
  00190	eb 0c		 jmp	 SHORT $LN26@DrawLowMen
$LN22@DrawLowMen:

; 1538 : 	else if (m_drawinfo.nLowBojo < 0)

  00192	8b 45 d8	 mov	 eax, DWORD PTR _nLoop$[ebp]
  00195	85 c9		 test	 ecx, ecx
  00197	0f 48 45 08	 cmovs	 eax, DWORD PTR _nLowMenuCount$[ebp]
  0019b	89 45 e8	 mov	 DWORD PTR _nLoop$1$[ebp], eax
$LN26@DrawLowMen:

; 1541 : 	for(i = 0; i < nLoop ; i++)

  0019e	33 db		 xor	 ebx, ebx
  001a0	8b d1		 mov	 edx, ecx
  001a2	85 c0		 test	 eax, eax
  001a4	0f 8e 38 01 00
	00		 jle	 $LN6@DrawLowMen
  001aa	8b 7d 0c	 mov	 edi, DWORD PTR _nHighMenuCount$[ebp]
  001ad	8d 48 ff	 lea	 ecx, DWORD PTR [eax-1]
  001b0	ba 1a 00 00 00	 mov	 edx, 26			; 0000001aH
  001b5	89 4d e0	 mov	 DWORD PTR tv1089[ebp], ecx
  001b8	4f		 dec	 edi
  001b9	89 55 dc	 mov	 DWORD PTR tv1078[ebp], edx
  001bc	89 7d d8	 mov	 DWORD PTR tv1077[ebp], edi
  001bf	90		 npad	 1
$LL7@DrawLowMen:

; 1542 : 	{
; 1543 : 		if (m_drawinfo.nLowLastIndex < 0)

  001c0	8b 86 50 03 00
	00		 mov	 eax, DWORD PTR [esi+848]
  001c6	85 c0		 test	 eax, eax
  001c8	79 04		 jns	 SHORT $LN27@DrawLowMen

; 1544 : 			nPos = (nHighMenuCount - 1)  + i;

  001ca	03 fb		 add	 edi, ebx
  001cc	eb 03		 jmp	 SHORT $LN28@DrawLowMen
$LN27@DrawLowMen:

; 1545 : 		else
; 1546 : 			nPos = m_drawinfo.nLowLastIndex  + i;

  001ce	8d 3c 18	 lea	 edi, DWORD PTR [eax+ebx]
$LN28@DrawLowMen:

; 1547 : 
; 1548 : 		if ( i < (nLoop - 1))

  001d1	3b d9		 cmp	 ebx, ecx
  001d3	0f 8d 8e 00 00
	00		 jge	 $LN29@DrawLowMen

; 1549 : 		{
; 1550 : 			rect.left = X_OFFSET;
; 1551 : 			rect.top = Y_OFFSET2 + (i+1) * TOOL_BUTTON_HEIGHT;
; 1552 : 			rect.right = rect.left + TOOL_BUTTON_WIDTH;
; 1553 : 			rect.bottom = rect.top + TOOL_BUTTON_HEIGHT;
; 1554 : 
; 1555 : 			if (nSelTool == 0)

  001d9	8b 45 10	 mov	 eax, DWORD PTR _nSelTool$[ebp]
  001dc	85 c0		 test	 eax, eax
  001de	75 22		 jne	 SHORT $LN31@DrawLowMen
; File C:\Program Files (x86)\Microsoft Visual Studio\2019\Community\VC\Tools\MSVC\14.29.30133\atlmfc\include\afxtempl.h

; 288  : 	if(nIndex >= 0 && nIndex < m_nSize)

  001e0	85 ff		 test	 edi, edi
  001e2	0f 88 a3 01 00
	00		 js	 $LN140@DrawLowMen
  001e8	3b be 04 03 00
	00		 cmp	 edi, DWORD PTR [esi+772]
  001ee	0f 8d 97 01 00
	00		 jge	 $LN140@DrawLowMen
; File D:\git\src\IBK\IBK_DRFN\ProjSrc\SrcDrfn\Chart\MULTICHART\DlgToolbar.cpp

; 1556 : 				nKeyIdx = m_arrayUserIdx.GetAt(nPos);

  001f4	8b 86 00 03 00
	00		 mov	 eax, DWORD PTR [esi+768]
  001fa	8b 04 b8	 mov	 eax, DWORD PTR [eax+edi*4]
  001fd	89 45 e4	 mov	 DWORD PTR _nKeyIdx$[ebp], eax
  00200	eb 51		 jmp	 SHORT $LN35@DrawLowMen
$LN31@DrawLowMen:

; 1557 : 			else if(nSelTool == 1)

  00202	83 f8 01	 cmp	 eax, 1
  00205	75 22		 jne	 SHORT $LN33@DrawLowMen
; File C:\Program Files (x86)\Microsoft Visual Studio\2019\Community\VC\Tools\MSVC\14.29.30133\atlmfc\include\afxtempl.h

; 288  : 	if(nIndex >= 0 && nIndex < m_nSize)

  00207	85 ff		 test	 edi, edi
  00209	0f 88 7c 01 00
	00		 js	 $LN140@DrawLowMen
  0020f	3b be dc 02 00
	00		 cmp	 edi, DWORD PTR [esi+732]
  00215	0f 8d 70 01 00
	00		 jge	 $LN140@DrawLowMen
; File D:\git\src\IBK\IBK_DRFN\ProjSrc\SrcDrfn\Chart\MULTICHART\DlgToolbar.cpp

; 1558 : 				nKeyIdx = m_arrayAnalIdx.GetAt(nPos);

  0021b	8b 86 d8 02 00
	00		 mov	 eax, DWORD PTR [esi+728]
  00221	8b 04 b8	 mov	 eax, DWORD PTR [eax+edi*4]
  00224	89 45 e4	 mov	 DWORD PTR _nKeyIdx$[ebp], eax
  00227	eb 2a		 jmp	 SHORT $LN35@DrawLowMen
$LN33@DrawLowMen:

; 1559 : 			else if(nSelTool == 2)

  00229	83 f8 02	 cmp	 eax, 2
  0022c	75 22		 jne	 SHORT $LN164@DrawLowMen
; File C:\Program Files (x86)\Microsoft Visual Studio\2019\Community\VC\Tools\MSVC\14.29.30133\atlmfc\include\afxtempl.h

; 288  : 	if(nIndex >= 0 && nIndex < m_nSize)

  0022e	85 ff		 test	 edi, edi
  00230	0f 88 55 01 00
	00		 js	 $LN140@DrawLowMen
  00236	3b be f0 02 00
	00		 cmp	 edi, DWORD PTR [esi+752]
  0023c	0f 8d 49 01 00
	00		 jge	 $LN140@DrawLowMen
; File D:\git\src\IBK\IBK_DRFN\ProjSrc\SrcDrfn\Chart\MULTICHART\DlgToolbar.cpp

; 1560 : 				nKeyIdx = m_arrayAdditionIdx.GetAt(nPos);

  00242	8b 86 ec 02 00
	00		 mov	 eax, DWORD PTR [esi+748]
  00248	8b 04 b8	 mov	 eax, DWORD PTR [eax+edi*4]
  0024b	89 45 e4	 mov	 DWORD PTR _nKeyIdx$[ebp], eax
  0024e	eb 03		 jmp	 SHORT $LN35@DrawLowMen
$LN164@DrawLowMen:

; 1559 : 			else if(nSelTool == 2)

  00250	8b 45 e4	 mov	 eax, DWORD PTR _nKeyIdx$[ebp]
$LN35@DrawLowMen:

; 1561 : 
; 1562 : 			if(m_pToolBtn[nKeyIdx])

  00253	8b 8c 86 a8 00
	00 00		 mov	 ecx, DWORD PTR [esi+eax*4+168]
  0025a	85 c9		 test	 ecx, ecx
  0025c	74 63		 je	 SHORT $LN165@DrawLowMen
; File C:\Program Files (x86)\Microsoft Visual Studio\2019\Community\VC\Tools\MSVC\14.29.30133\atlmfc\include\afxwin2.inl

; 73   : 	{ MoveWindow(lpRect->left, lpRect->top, lpRect->right - lpRect->left,

  0025e	6a 01		 push	 1
  00260	6a 16		 push	 22			; 00000016H
  00262	6a 1c		 push	 28			; 0000001cH
  00264	52		 push	 edx
; File D:\git\src\IBK\IBK_DRFN\ProjSrc\SrcDrfn\Chart\MULTICHART\DlgToolbar.cpp

; 1565 : 		}

  00265	eb 50		 jmp	 SHORT $LN169@DrawLowMen
$LN29@DrawLowMen:

; 1566 : 		else if ( i < nLoop)

  00267	8b 45 e8	 mov	 eax, DWORD PTR _nLoop$1$[ebp]
  0026a	3b d8		 cmp	 ebx, eax
  0026c	7d 59		 jge	 SHORT $LN5@DrawLowMen
; File C:\Program Files (x86)\Microsoft Visual Studio\2019\Community\VC\Tools\MSVC\14.29.30133\atlmfc\include\afxwin2.inl

; 86   : 	{ ASSERT(::IsWindow(m_hWnd)); ::GetClientRect(m_hWnd, lpRect); }

  0026e	8d 45 ec	 lea	 eax, DWORD PTR _toolrect$1[ebp]
  00271	0f 57 c0	 xorps	 xmm0, xmm0
  00274	50		 push	 eax
  00275	ff 76 20	 push	 DWORD PTR [esi+32]
; File C:\Program Files (x86)\Microsoft Visual Studio\2019\Community\VC\Tools\MSVC\14.29.30133\atlmfc\include\atltypes.h

; 528  : 	left = 0;

  00278	0f 11 45 ec	 movups	 XMMWORD PTR _toolrect$1[ebp], xmm0
; File C:\Program Files (x86)\Microsoft Visual Studio\2019\Community\VC\Tools\MSVC\14.29.30133\atlmfc\include\afxwin2.inl

; 86   : 	{ ASSERT(::IsWindow(m_hWnd)); ::GetClientRect(m_hWnd, lpRect); }

  0027c	ff 15 00 00 00
	00		 call	 DWORD PTR __imp__GetClientRect@8
; File D:\git\src\IBK\IBK_DRFN\ProjSrc\SrcDrfn\Chart\MULTICHART\DlgToolbar.cpp

; 1573 : 			rect.top = toolrect.bottom - TOOL_BUTTON_HEIGHT - Y_OFFSET*2;

  00282	8b 45 f8	 mov	 eax, DWORD PTR _toolrect$1[ebp+12]
; File C:\Program Files (x86)\Microsoft Visual Studio\2019\Community\VC\Tools\MSVC\14.29.30133\atlmfc\include\afxwin2.inl

; 73   : 	{ MoveWindow(lpRect->left, lpRect->top, lpRect->right - lpRect->left,

  00285	6a 01		 push	 1
; File D:\git\src\IBK\IBK_DRFN\ProjSrc\SrcDrfn\Chart\MULTICHART\DlgToolbar.cpp

; 1573 : 			rect.top = toolrect.bottom - TOOL_BUTTON_HEIGHT - Y_OFFSET*2;

  00287	8d 48 e6	 lea	 ecx, DWORD PTR [eax-26]
; File C:\Program Files (x86)\Microsoft Visual Studio\2019\Community\VC\Tools\MSVC\14.29.30133\atlmfc\include\afxwin2.inl

; 73   : 	{ MoveWindow(lpRect->left, lpRect->top, lpRect->right - lpRect->left,

  0028a	2b c1		 sub	 eax, ecx
  0028c	83 e8 0f	 sub	 eax, 15			; 0000000fH
  0028f	50		 push	 eax
  00290	6a 1c		 push	 28			; 0000001cH
  00292	51		 push	 ecx
  00293	8b 8e 64 03 00
	00		 mov	 ecx, DWORD PTR [esi+868]
  00299	6a 02		 push	 2
  0029b	e8 00 00 00 00	 call	 ?MoveWindow@CWnd@@QAEXHHHHH@Z ; CWnd::MoveWindow
; File D:\git\src\IBK\IBK_DRFN\ProjSrc\SrcDrfn\Chart\MULTICHART\DlgToolbar.cpp

; 1580 : 			rect.top = toolrect.bottom - (TOOL_BUTTON_HEIGHT / 2) - Y_OFFSET*2;

  002a0	8b 45 f8	 mov	 eax, DWORD PTR _toolrect$1[ebp+12]
; File C:\Program Files (x86)\Microsoft Visual Studio\2019\Community\VC\Tools\MSVC\14.29.30133\atlmfc\include\afxwin2.inl

; 73   : 	{ MoveWindow(lpRect->left, lpRect->top, lpRect->right - lpRect->left,

  002a3	6a 01		 push	 1
; File D:\git\src\IBK\IBK_DRFN\ProjSrc\SrcDrfn\Chart\MULTICHART\DlgToolbar.cpp

; 1580 : 			rect.top = toolrect.bottom - (TOOL_BUTTON_HEIGHT / 2) - Y_OFFSET*2;

  002a5	8d 48 f1	 lea	 ecx, DWORD PTR [eax-15]
; File C:\Program Files (x86)\Microsoft Visual Studio\2019\Community\VC\Tools\MSVC\14.29.30133\atlmfc\include\afxwin2.inl

; 73   : 	{ MoveWindow(lpRect->left, lpRect->top, lpRect->right - lpRect->left,

  002a8	2b c1		 sub	 eax, ecx
  002aa	83 e8 04	 sub	 eax, 4
  002ad	50		 push	 eax
  002ae	6a 1c		 push	 28			; 0000001cH
  002b0	51		 push	 ecx
  002b1	8b 8e 68 03 00
	00		 mov	 ecx, DWORD PTR [esi+872]
$LN169@DrawLowMen:
; File D:\git\src\IBK\IBK_DRFN\ProjSrc\SrcDrfn\Chart\MULTICHART\DlgToolbar.cpp

; 1541 : 	for(i = 0; i < nLoop ; i++)

  002b7	6a 02		 push	 2
  002b9	e8 00 00 00 00	 call	 ?MoveWindow@CWnd@@QAEXHHHHH@Z ; CWnd::MoveWindow
  002be	8b 55 dc	 mov	 edx, DWORD PTR tv1078[ebp]
$LN165@DrawLowMen:
  002c1	8b 45 e8	 mov	 eax, DWORD PTR _nLoop$1$[ebp]
  002c4	8b 4d e0	 mov	 ecx, DWORD PTR tv1089[ebp]
$LN5@DrawLowMen:
  002c7	43		 inc	 ebx
  002c8	83 c2 16	 add	 edx, 22			; 00000016H
  002cb	89 55 dc	 mov	 DWORD PTR tv1078[ebp], edx
  002ce	3b d8		 cmp	 ebx, eax
  002d0	7d 08		 jge	 SHORT $LN162@DrawLowMen
  002d2	8b 7d d8	 mov	 edi, DWORD PTR tv1077[ebp]
  002d5	e9 e6 fe ff ff	 jmp	 $LL7@DrawLowMen
$LN162@DrawLowMen:

; 1495 : 	for( i = 3; i < m_arrayTotalIdx.GetSize()+5; i++)

  002da	8b 8e 4c 03 00
	00		 mov	 ecx, DWORD PTR [esi+844]
  002e0	8b d1		 mov	 edx, ecx
$LN6@DrawLowMen:

; 1581 : 			rect.right = rect.left + TOOL_BUTTON_WIDTH;
; 1582 : 			rect.bottom = toolrect.bottom - Y_OFFSET*2;
; 1583 : 
; 1584 : 			m_pBtnDown->MoveWindow(&rect);
; 1585 : 		}
; 1586 : 	}
; 1587 : 
; 1588 : 	if (m_drawinfo.nLowBojo > 1)

  002e2	83 f9 01	 cmp	 ecx, 1
  002e5	7e 40		 jle	 SHORT $LN38@DrawLowMen

; 1589 : 	{
; 1590 : 		m_drawinfo.nLowBojo -= 1;
; 1591 : 		m_drawinfo.nLowLastIndex = nPos;
; 1592 : 		m_drawinfo.nHighBojo += 1;

  002e7	ff 86 54 03 00
	00		 inc	 DWORD PTR [esi+852]
  002ed	8d 41 ff	 lea	 eax, DWORD PTR [ecx-1]
  002f0	89 86 4c 03 00
	00		 mov	 DWORD PTR [esi+844], eax

; 1593 : 		m_drawinfo.nHighLastIndex = nPos - (2 * (m_drawinfo.nCalcMenuCount - 1));

  002f6	8b 86 3c 03 00
	00		 mov	 eax, DWORD PTR [esi+828]
  002fc	89 be 50 03 00
	00		 mov	 DWORD PTR [esi+848], edi
  00302	03 c0		 add	 eax, eax
  00304	2b f8		 sub	 edi, eax

; 1607 : 		m_pBtnDown->EnableWindow(FALSE);
; 1608 : 
; 1609 : 	return TRUE;

  00306	b8 01 00 00 00	 mov	 eax, 1
  0030b	83 c7 02	 add	 edi, 2
  0030e	89 be 58 03 00
	00		 mov	 DWORD PTR [esi+856], edi
  00314	5f		 pop	 edi
  00315	5b		 pop	 ebx
  00316	5e		 pop	 esi

; 1610 : }

  00317	8b 4d fc	 mov	 ecx, DWORD PTR __$ArrayPad$[ebp]
  0031a	33 cd		 xor	 ecx, ebp
  0031c	e8 00 00 00 00	 call	 @__security_check_cookie@4
  00321	8b e5		 mov	 esp, ebp
  00323	5d		 pop	 ebp
  00324	c2 0c 00	 ret	 12			; 0000000cH
$LN38@DrawLowMen:

; 1594 : 	}
; 1595 : 	else if (m_drawinfo.nLowBojo == 1)

  00327	75 38		 jne	 SHORT $LN40@DrawLowMen

; 1596 : 	{
; 1597 : 		if(m_drawinfo.nLowLastIndex<=0)

  00329	8b 86 50 03 00
	00		 mov	 eax, DWORD PTR [esi+848]
  0032f	85 c0		 test	 eax, eax
  00331	7f 04		 jg	 SHORT $LN42@DrawLowMen

; 1598 : 			m_drawinfo.nHighLastIndex = 0;

  00333	33 c0		 xor	 eax, eax
  00335	eb 07		 jmp	 SHORT $LN43@DrawLowMen
$LN42@DrawLowMen:

; 1599 : 		else
; 1600 : 			m_drawinfo.nHighLastIndex = m_drawinfo.nLowLastIndex - (m_drawinfo.nCalcMenuCount - 1);

  00337	2b 86 3c 03 00
	00		 sub	 eax, DWORD PTR [esi+828]
  0033d	40		 inc	 eax
$LN43@DrawLowMen:

; 1601 : 		m_drawinfo.nLowBojo -= 1;

  0033e	89 86 58 03 00
	00		 mov	 DWORD PTR [esi+856], eax
  00344	8d 42 ff	 lea	 eax, DWORD PTR [edx-1]
  00347	89 86 4c 03 00
	00		 mov	 DWORD PTR [esi+844], eax

; 1602 : 		m_drawinfo.nLowLastIndex = nPos;
; 1603 : 		m_drawinfo.nHighBojo = m_drawinfo.nTotBojo;

  0034d	8b 86 5c 03 00
	00		 mov	 eax, DWORD PTR [esi+860]
  00353	89 be 50 03 00
	00		 mov	 DWORD PTR [esi+848], edi
  00359	89 86 54 03 00
	00		 mov	 DWORD PTR [esi+852], eax

; 1604 : 		m_pBtnDown->EnableWindow(FALSE);
; 1605 : 	}

  0035f	eb 05		 jmp	 SHORT $LN168@DrawLowMen
$LN40@DrawLowMen:

; 1606 : 	else if (m_drawinfo.nLowBojo == -1)

  00361	83 f9 ff	 cmp	 ecx, -1
  00364	75 0d		 jne	 SHORT $LN44@DrawLowMen
$LN168@DrawLowMen:

; 1607 : 		m_pBtnDown->EnableWindow(FALSE);
; 1608 : 
; 1609 : 	return TRUE;

  00366	8b 8e 68 03 00
	00		 mov	 ecx, DWORD PTR [esi+872]
  0036c	6a 00		 push	 0
  0036e	e8 00 00 00 00	 call	 ?EnableWindow@CWnd@@QAEHH@Z ; CWnd::EnableWindow
$LN44@DrawLowMen:

; 1610 : }

  00373	8b 4d fc	 mov	 ecx, DWORD PTR __$ArrayPad$[ebp]
  00376	b8 01 00 00 00	 mov	 eax, 1
  0037b	5f		 pop	 edi
  0037c	5b		 pop	 ebx
  0037d	33 cd		 xor	 ecx, ebp
  0037f	5e		 pop	 esi
  00380	e8 00 00 00 00	 call	 @__security_check_cookie@4
  00385	8b e5		 mov	 esp, ebp
  00387	5d		 pop	 ebp
  00388	c2 0c 00	 ret	 12			; 0000000cH
$LN140@DrawLowMen:
; File C:\Program Files (x86)\Microsoft Visual Studio\2019\Community\VC\Tools\MSVC\14.29.30133\atlmfc\include\afxtempl.h

; 290  : 	AfxThrowInvalidArgException();

  0038b	e8 00 00 00 00	 call	 ?AfxThrowInvalidArgException@@YGXXZ ; AfxThrowInvalidArgException
$LN166@DrawLowMen:
  00390	cc		 int	 3
?DrawLowMenu@CDlgToolbar@@IAEHHHH@Z ENDP		; CDlgToolbar::DrawLowMenu
_TEXT	ENDS
; Function compile flags: /Ogtp
; File D:\git\src\IBK\IBK_DRFN\ProjSrc\SrcDrfn\Chart\MULTICHART\DlgToolbar.cpp
; File C:\Program Files (x86)\Microsoft Visual Studio\2019\Community\VC\Tools\MSVC\14.29.30133\atlmfc\include\afxwin2.inl
; File D:\git\src\IBK\IBK_DRFN\ProjSrc\SrcDrfn\Chart\MULTICHART\DlgToolbar.cpp
; File C:\Program Files (x86)\Microsoft Visual Studio\2019\Community\VC\Tools\MSVC\14.29.30133\atlmfc\include\afxwin2.inl
; File D:\git\src\IBK\IBK_DRFN\ProjSrc\SrcDrfn\Chart\MULTICHART\DlgToolbar.cpp
; File C:\Program Files (x86)\Microsoft Visual Studio\2019\Community\VC\Tools\MSVC\14.29.30133\atlmfc\include\afxwin2.inl
; File D:\git\src\IBK\IBK_DRFN\ProjSrc\SrcDrfn\Chart\MULTICHART\DlgToolbar.cpp
; File C:\Program Files (x86)\Microsoft Visual Studio\2019\Community\VC\Tools\MSVC\14.29.30133\atlmfc\include\afxtempl.h
; File D:\git\src\IBK\IBK_DRFN\ProjSrc\SrcDrfn\Chart\MULTICHART\DlgToolbar.cpp
; File C:\Program Files (x86)\Microsoft Visual Studio\2019\Community\VC\Tools\MSVC\14.29.30133\atlmfc\include\afxtempl.h
; File D:\git\src\IBK\IBK_DRFN\ProjSrc\SrcDrfn\Chart\MULTICHART\DlgToolbar.cpp
; File C:\Program Files (x86)\Microsoft Visual Studio\2019\Community\VC\Tools\MSVC\14.29.30133\atlmfc\include\afxtempl.h
; File D:\git\src\IBK\IBK_DRFN\ProjSrc\SrcDrfn\Chart\MULTICHART\DlgToolbar.cpp
; File C:\Program Files (x86)\Microsoft Visual Studio\2019\Community\VC\Tools\MSVC\14.29.30133\atlmfc\include\afxwin2.inl
; File D:\git\src\IBK\IBK_DRFN\ProjSrc\SrcDrfn\Chart\MULTICHART\DlgToolbar.cpp
; File C:\Program Files (x86)\Microsoft Visual Studio\2019\Community\VC\Tools\MSVC\14.29.30133\atlmfc\include\afxwin2.inl
; File C:\Program Files (x86)\Microsoft Visual Studio\2019\Community\VC\Tools\MSVC\14.29.30133\atlmfc\include\atltypes.h
; File C:\Program Files (x86)\Microsoft Visual Studio\2019\Community\VC\Tools\MSVC\14.29.30133\atlmfc\include\afxwin2.inl
; File D:\git\src\IBK\IBK_DRFN\ProjSrc\SrcDrfn\Chart\MULTICHART\DlgToolbar.cpp
; File C:\Program Files (x86)\Microsoft Visual Studio\2019\Community\VC\Tools\MSVC\14.29.30133\atlmfc\include\afxwin2.inl
; File D:\git\src\IBK\IBK_DRFN\ProjSrc\SrcDrfn\Chart\MULTICHART\DlgToolbar.cpp
; File C:\Program Files (x86)\Microsoft Visual Studio\2019\Community\VC\Tools\MSVC\14.29.30133\atlmfc\include\afxwin2.inl
; File D:\git\src\IBK\IBK_DRFN\ProjSrc\SrcDrfn\Chart\MULTICHART\DlgToolbar.cpp
; File C:\Program Files (x86)\Microsoft Visual Studio\2019\Community\VC\Tools\MSVC\14.29.30133\atlmfc\include\afxwin2.inl
; File D:\git\src\IBK\IBK_DRFN\ProjSrc\SrcDrfn\Chart\MULTICHART\DlgToolbar.cpp
; File C:\Program Files (x86)\Microsoft Visual Studio\2019\Community\VC\Tools\MSVC\14.29.30133\atlmfc\include\afxwin2.inl
; File D:\git\src\IBK\IBK_DRFN\ProjSrc\SrcDrfn\Chart\MULTICHART\DlgToolbar.cpp
; File C:\Program Files (x86)\Microsoft Visual Studio\2019\Community\VC\Tools\MSVC\14.29.30133\atlmfc\include\afxtempl.h
; File D:\git\src\IBK\IBK_DRFN\ProjSrc\SrcDrfn\Chart\MULTICHART\DlgToolbar.cpp
;	COMDAT ?DrawHighMenu@CDlgToolbar@@IAEHHH@Z
_TEXT	SEGMENT
tv921 = -32						; size = 4
_nPos$ = -32						; size = 4
_nKeyIdx$ = -28						; size = 4
tv913 = -24						; size = 4
_toolrect$1 = -20					; size = 16
__$ArrayPad$ = -4					; size = 4
_nHighMenuCount$ = 8					; size = 4
_nSelTool$ = 12						; size = 4
?DrawHighMenu@CDlgToolbar@@IAEHHH@Z PROC		; CDlgToolbar::DrawHighMenu, COMDAT
; _this$ = ecx

; 1613 : {

  00000	55		 push	 ebp
  00001	8b ec		 mov	 ebp, esp
  00003	83 ec 20	 sub	 esp, 32			; 00000020H
  00006	a1 00 00 00 00	 mov	 eax, DWORD PTR ___security_cookie
  0000b	33 c5		 xor	 eax, ebp
  0000d	89 45 fc	 mov	 DWORD PTR __$ArrayPad$[ebp], eax
  00010	56		 push	 esi
  00011	8b f1		 mov	 esi, ecx

; 1614 : 	if (m_drawinfo.nHighBojo == 0)

  00013	83 be 54 03 00
	00 00		 cmp	 DWORD PTR [esi+852], 0
  0001a	75 21		 jne	 SHORT $LN8@DrawHighMe

; 1615 : 	{
; 1616 : 		AfxMessageBox("  .");

  0001c	6a 00		 push	 0
  0001e	6a 00		 push	 0
  00020	68 00 00 00 00	 push	 OFFSET ??_C@_0BM@EPECFFNJ@?G?$KF?$LN?C?G?R?5?$LL?s?$MA?$KH?$LI?$NO?$LE?$LK?$LA?$KB?5?$LO?x?$LN?$MA?$LE?O?$LE?Y?4@
  00025	e8 00 00 00 00	 call	 ?AfxMessageBox@@YGHPBDII@Z ; AfxMessageBox
$LN146@DrawHighMe:

; 1738 : }

  0002a	33 c0		 xor	 eax, eax
  0002c	5e		 pop	 esi
  0002d	8b 4d fc	 mov	 ecx, DWORD PTR __$ArrayPad$[ebp]
  00030	33 cd		 xor	 ecx, ebp
  00032	e8 00 00 00 00	 call	 @__security_check_cookie@4
  00037	8b e5		 mov	 esp, ebp
  00039	5d		 pop	 ebp
  0003a	c2 08 00	 ret	 8
$LN8@DrawHighMe:

; 1617 : 		return FALSE;
; 1618 : 	}
; 1619 : 	else if ((m_drawinfo.nCalcMenuCount < 1) && (m_nResizeFlag == 1))

  0003d	83 be 3c 03 00
	00 01		 cmp	 DWORD PTR [esi+828], 1
  00044	7d 32		 jge	 SHORT $LN147@DrawHighMe
  00046	83 be 60 03 00
	00 01		 cmp	 DWORD PTR [esi+864], 1
  0004d	75 29		 jne	 SHORT $LN147@DrawHighMe

; 1620 : 	{
; 1621 : #ifdef _DEBUG
; 1622 : 		AfxMessageBox("ToolBar    .");
; 1623 : #endif
; 1624 : 		m_drawinfo.nPreWindowPos = m_drawinfo.nCurrWindowPos;

  0004f	8b 86 34 03 00
	00		 mov	 eax, DWORD PTR [esi+820]
  00055	89 86 30 03 00
	00		 mov	 DWORD PTR [esi+816], eax

; 1738 : }

  0005b	33 c0		 xor	 eax, eax
  0005d	c7 86 60 03 00
	00 00 00 00 00	 mov	 DWORD PTR [esi+864], 0
  00067	5e		 pop	 esi
  00068	8b 4d fc	 mov	 ecx, DWORD PTR __$ArrayPad$[ebp]
  0006b	33 cd		 xor	 ecx, ebp
  0006d	e8 00 00 00 00	 call	 @__security_check_cookie@4
  00072	8b e5		 mov	 esp, ebp
  00074	5d		 pop	 ebp
  00075	c2 08 00	 ret	 8
$LN147@DrawHighMe:

; 1629 : 	if(!m_pToolBtn[0]->GetSafeHwnd())

  00078	8b 86 a8 00 00
	00		 mov	 eax, DWORD PTR [esi+168]
; File C:\Program Files (x86)\Microsoft Visual Studio\2019\Community\VC\Tools\MSVC\14.29.30133\atlmfc\include\afxwin2.inl

; 25   : 	{ return this == NULL ? NULL : m_hWnd; }

  0007e	85 c0		 test	 eax, eax
  00080	74 a8		 je	 SHORT $LN146@DrawHighMe
; File D:\git\src\IBK\IBK_DRFN\ProjSrc\SrcDrfn\Chart\MULTICHART\DlgToolbar.cpp

; 1629 : 	if(!m_pToolBtn[0]->GetSafeHwnd())

  00082	83 78 20 00	 cmp	 DWORD PTR [eax+32], 0
  00086	74 a2		 je	 SHORT $LN146@DrawHighMe

; 1630 : 		return FALSE;
; 1631 : 
; 1632 : 	m_pBtnUp->EnableWindow(TRUE);

  00088	8b 8e 64 03 00
	00		 mov	 ecx, DWORD PTR [esi+868]
  0008e	53		 push	 ebx
  0008f	57		 push	 edi
  00090	6a 01		 push	 1
  00092	e8 00 00 00 00	 call	 ?EnableWindow@CWnd@@QAEHH@Z ; CWnd::EnableWindow

; 1633 : 	m_pBtnDown->EnableWindow(TRUE);

  00097	8b 8e 68 03 00
	00		 mov	 ecx, DWORD PTR [esi+872]
  0009d	6a 01		 push	 1
  0009f	e8 00 00 00 00	 call	 ?EnableWindow@CWnd@@QAEHH@Z ; CWnd::EnableWindow
; File C:\Program Files (x86)\Microsoft Visual Studio\2019\Community\VC\Tools\MSVC\14.29.30133\atlmfc\include\afxwin2.inl

; 73   : 	{ MoveWindow(lpRect->left, lpRect->top, lpRect->right - lpRect->left,

  000a4	8b 8e a8 00 00
	00		 mov	 ecx, DWORD PTR [esi+168]
  000aa	6a 01		 push	 1
  000ac	6a 16		 push	 22			; 00000016H
  000ae	6a 1c		 push	 28			; 0000001cH
  000b0	6a 02		 push	 2
  000b2	6a 02		 push	 2
  000b4	e8 00 00 00 00	 call	 ?MoveWindow@CWnd@@QAEXHHHHH@Z ; CWnd::MoveWindow
; File D:\git\src\IBK\IBK_DRFN\ProjSrc\SrcDrfn\Chart\MULTICHART\DlgToolbar.cpp

; 1649 : 	for( i = 3; i < m_arrayTotalIdx.GetSize()+5; i++)

  000b9	8b 86 c8 02 00
	00		 mov	 eax, DWORD PTR [esi+712]
  000bf	bb 03 00 00 00	 mov	 ebx, 3
  000c4	83 c0 05	 add	 eax, 5
  000c7	3b c3		 cmp	 eax, ebx
  000c9	7e 2c		 jle	 SHORT $LN3@DrawHighMe

; 1630 : 		return FALSE;
; 1631 : 
; 1632 : 	m_pBtnUp->EnableWindow(TRUE);

  000cb	8d be b4 00 00
	00		 lea	 edi, DWORD PTR [esi+180]
$LL4@DrawHighMe:

; 1650 : 	{
; 1651 : 		if(m_pToolBtn[i])

  000d1	8b 0f		 mov	 ecx, DWORD PTR [edi]
  000d3	85 c9		 test	 ecx, ecx
  000d5	74 0f		 je	 SHORT $LN2@DrawHighMe
; File C:\Program Files (x86)\Microsoft Visual Studio\2019\Community\VC\Tools\MSVC\14.29.30133\atlmfc\include\afxwin2.inl

; 73   : 	{ MoveWindow(lpRect->left, lpRect->top, lpRect->right - lpRect->left,

  000d7	6a 01		 push	 1
  000d9	6a 00		 push	 0
  000db	6a 00		 push	 0
  000dd	6a 00		 push	 0
  000df	6a 00		 push	 0
  000e1	e8 00 00 00 00	 call	 ?MoveWindow@CWnd@@QAEXHHHHH@Z ; CWnd::MoveWindow
$LN2@DrawHighMe:
; File D:\git\src\IBK\IBK_DRFN\ProjSrc\SrcDrfn\Chart\MULTICHART\DlgToolbar.cpp

; 1649 : 	for( i = 3; i < m_arrayTotalIdx.GetSize()+5; i++)

  000e6	8b 86 c8 02 00
	00		 mov	 eax, DWORD PTR [esi+712]
  000ec	43		 inc	 ebx
  000ed	83 c0 05	 add	 eax, 5
  000f0	83 c7 04	 add	 edi, 4
  000f3	3b d8		 cmp	 ebx, eax
  000f5	7c da		 jl	 SHORT $LL4@DrawHighMe
$LN3@DrawHighMe:

; 1652 : 			m_pToolBtn[i]->MoveWindow(&rect);
; 1653 : 	}
; 1654 : 	int nKeyInx;
; 1655 : 
; 1656 : 	nKeyInx = m_nSelTool;

  000f7	8b 86 2c 03 00
	00		 mov	 eax, DWORD PTR [esi+812]

; 1657 : 	m_pToolBtn[0]->SetValueBtn(GetToolOption(TOOL_BUTTON_BASE_ID + 0), g_bToggle_Bar[0], m_pIL_W28H22, nKeyInx*3, nKeyInx*3+1, nKeyInx*3+2);

  000fd	8d 0c 40	 lea	 ecx, DWORD PTR [eax+eax*2]
  00100	8d 41 02	 lea	 eax, DWORD PTR [ecx+2]
  00103	50		 push	 eax
  00104	8d 41 01	 lea	 eax, DWORD PTR [ecx+1]
  00107	50		 push	 eax
  00108	51		 push	 ecx
  00109	ff b6 bc 02 00
	00		 push	 DWORD PTR [esi+700]
  0010f	8b 8e a8 00 00
	00		 mov	 ecx, DWORD PTR [esi+168]
  00115	ff 35 00 00 00
	00		 push	 DWORD PTR ?g_bToggle_Bar@@3PAHA
  0011b	6a ff		 push	 -1
  0011d	e8 00 00 00 00	 call	 ?SetValueBtn@CChartToolBtn@@QAEXW4TOOLOPTION@CToolOptionInfo@@HPAVCImageList@@HHH@Z ; CChartToolBtn::SetValueBtn

; 1658 : 
; 1659 : 	int nLoop, nPos;
; 1660 : 
; 1661 : 	if (m_drawinfo.nHighBojo < 0)

  00122	8b 86 54 03 00
	00		 mov	 eax, DWORD PTR [esi+852]
  00128	85 c0		 test	 eax, eax
  0012a	79 05		 jns	 SHORT $LN13@DrawHighMe

; 1662 : 		nLoop = nHighMenuCount;

  0012c	8b 55 08	 mov	 edx, DWORD PTR _nHighMenuCount$[ebp]
  0012f	eb 09		 jmp	 SHORT $LN14@DrawHighMe
$LN13@DrawHighMe:

; 1663 : 	else
; 1664 : 	{
; 1665 : 		nLoop = m_drawinfo.nCalcMenuCount;

  00131	8b 96 3c 03 00
	00		 mov	 edx, DWORD PTR [esi+828]
  00137	89 55 08	 mov	 DWORD PTR _nHighMenuCount$[ebp], edx
$LN14@DrawHighMe:

; 1666 : 		//m_drawinfo.nLowBojo = 0;
; 1667 : 	}
; 1668 : 
; 1669 : 	for(i = 0; i < nLoop ; i++)

  0013a	33 db		 xor	 ebx, ebx
  0013c	85 d2		 test	 edx, edx
  0013e	0f 8e 57 01 00
	00		 jle	 $LN149@DrawHighMe
  00144	8d 42 ff	 lea	 eax, DWORD PTR [edx-1]
  00147	c7 45 e8 1a 00
	00 00		 mov	 DWORD PTR tv913[ebp], 26 ; 0000001aH
  0014e	89 45 e0	 mov	 DWORD PTR tv921[ebp], eax
  00151	8d 4b 1a	 lea	 ecx, DWORD PTR [ebx+26]
  00154	8b 45 0c	 mov	 eax, DWORD PTR _nSelTool$[ebp]
$LL7@DrawHighMe:

; 1670 : 	{
; 1671 : 		if (m_drawinfo.nHighBojo < 0)

  00157	83 be 54 03 00
	00 00		 cmp	 DWORD PTR [esi+852], 0
  0015e	7d 04		 jge	 SHORT $LN15@DrawHighMe

; 1672 : 			nPos = i;

  00160	8b fb		 mov	 edi, ebx
  00162	eb 08		 jmp	 SHORT $LN16@DrawHighMe
$LN15@DrawHighMe:

; 1673 : 		else
; 1674 : 			nPos = m_drawinfo.nHighLastIndex + i;

  00164	8b be 58 03 00
	00		 mov	 edi, DWORD PTR [esi+856]
  0016a	03 fb		 add	 edi, ebx
$LN16@DrawHighMe:

; 1675 : 
; 1676 : 		if ( i < (nLoop - 1))

  0016c	3b 5d e0	 cmp	 ebx, DWORD PTR tv921[ebp]
  0016f	0f 8d 98 00 00
	00		 jge	 $LN17@DrawHighMe

; 1677 : 		{
; 1678 : 			rect.left = X_OFFSET;
; 1679 : 			rect.top = Y_OFFSET2 + (i + 1) * TOOL_BUTTON_HEIGHT ;
; 1680 : 			rect.right = rect.left + TOOL_BUTTON_WIDTH;
; 1681 : 			rect.bottom = rect.top + TOOL_BUTTON_HEIGHT;
; 1682 : 
; 1683 : 			if (nSelTool == 0)

  00175	85 c0		 test	 eax, eax
  00177	75 22		 jne	 SHORT $LN19@DrawHighMe
; File C:\Program Files (x86)\Microsoft Visual Studio\2019\Community\VC\Tools\MSVC\14.29.30133\atlmfc\include\afxtempl.h

; 288  : 	if(nIndex >= 0 && nIndex < m_nSize)

  00179	85 ff		 test	 edi, edi
  0017b	0f 88 bf 01 00
	00		 js	 $LN126@DrawHighMe
  00181	3b be 04 03 00
	00		 cmp	 edi, DWORD PTR [esi+772]
  00187	0f 8d b3 01 00
	00		 jge	 $LN126@DrawHighMe
; File D:\git\src\IBK\IBK_DRFN\ProjSrc\SrcDrfn\Chart\MULTICHART\DlgToolbar.cpp

; 1684 : 				nKeyIdx = m_arrayUserIdx.GetAt(nPos);

  0018d	8b 86 00 03 00
	00		 mov	 eax, DWORD PTR [esi+768]
  00193	8b 04 b8	 mov	 eax, DWORD PTR [eax+edi*4]
  00196	89 45 e4	 mov	 DWORD PTR _nKeyIdx$[ebp], eax
  00199	eb 51		 jmp	 SHORT $LN23@DrawHighMe
$LN19@DrawHighMe:

; 1685 : 			else if (nSelTool == 1)

  0019b	83 f8 01	 cmp	 eax, 1
  0019e	75 22		 jne	 SHORT $LN21@DrawHighMe
; File C:\Program Files (x86)\Microsoft Visual Studio\2019\Community\VC\Tools\MSVC\14.29.30133\atlmfc\include\afxtempl.h

; 288  : 	if(nIndex >= 0 && nIndex < m_nSize)

  001a0	85 ff		 test	 edi, edi
  001a2	0f 88 98 01 00
	00		 js	 $LN126@DrawHighMe
  001a8	3b be dc 02 00
	00		 cmp	 edi, DWORD PTR [esi+732]
  001ae	0f 8d 8c 01 00
	00		 jge	 $LN126@DrawHighMe
; File D:\git\src\IBK\IBK_DRFN\ProjSrc\SrcDrfn\Chart\MULTICHART\DlgToolbar.cpp

; 1686 : 				nKeyIdx = m_arrayAnalIdx.GetAt(nPos);

  001b4	8b 86 d8 02 00
	00		 mov	 eax, DWORD PTR [esi+728]
  001ba	8b 04 b8	 mov	 eax, DWORD PTR [eax+edi*4]
  001bd	89 45 e4	 mov	 DWORD PTR _nKeyIdx$[ebp], eax
  001c0	eb 2a		 jmp	 SHORT $LN23@DrawHighMe
$LN21@DrawHighMe:

; 1687 : 			else if (nSelTool == 2)

  001c2	83 f8 02	 cmp	 eax, 2
  001c5	75 22		 jne	 SHORT $LN150@DrawHighMe
; File C:\Program Files (x86)\Microsoft Visual Studio\2019\Community\VC\Tools\MSVC\14.29.30133\atlmfc\include\afxtempl.h

; 288  : 	if(nIndex >= 0 && nIndex < m_nSize)

  001c7	85 ff		 test	 edi, edi
  001c9	0f 88 71 01 00
	00		 js	 $LN126@DrawHighMe
  001cf	3b be f0 02 00
	00		 cmp	 edi, DWORD PTR [esi+752]
  001d5	0f 8d 65 01 00
	00		 jge	 $LN126@DrawHighMe
; File D:\git\src\IBK\IBK_DRFN\ProjSrc\SrcDrfn\Chart\MULTICHART\DlgToolbar.cpp

; 1688 : 				nKeyIdx = m_arrayAdditionIdx.GetAt(nPos);

  001db	8b 86 ec 02 00
	00		 mov	 eax, DWORD PTR [esi+748]
  001e1	8b 04 b8	 mov	 eax, DWORD PTR [eax+edi*4]
  001e4	89 45 e4	 mov	 DWORD PTR _nKeyIdx$[ebp], eax
  001e7	eb 03		 jmp	 SHORT $LN23@DrawHighMe
$LN150@DrawHighMe:

; 1687 : 			else if (nSelTool == 2)

  001e9	8b 45 e4	 mov	 eax, DWORD PTR _nKeyIdx$[ebp]
$LN23@DrawHighMe:

; 1689 : 
; 1690 : 			if(m_pToolBtn[nKeyIdx])

  001ec	8b 8c 86 a8 00
	00 00		 mov	 ecx, DWORD PTR [esi+eax*4+168]
  001f3	85 c9		 test	 ecx, ecx
  001f5	0f 84 83 00 00
	00		 je	 $LN151@DrawHighMe
; File C:\Program Files (x86)\Microsoft Visual Studio\2019\Community\VC\Tools\MSVC\14.29.30133\atlmfc\include\afxwin2.inl

; 73   : 	{ MoveWindow(lpRect->left, lpRect->top, lpRect->right - lpRect->left,

  001fb	6a 01		 push	 1
  001fd	6a 16		 push	 22			; 00000016H
  001ff	6a 1c		 push	 28			; 0000001cH
  00201	ff 75 e8	 push	 DWORD PTR tv913[ebp]
  00204	6a 02		 push	 2
  00206	e8 00 00 00 00	 call	 ?MoveWindow@CWnd@@QAEXHHHHH@Z ; CWnd::MoveWindow
; File D:\git\src\IBK\IBK_DRFN\ProjSrc\SrcDrfn\Chart\MULTICHART\DlgToolbar.cpp

; 1693 : 		}

  0020b	eb 6e		 jmp	 SHORT $LN154@DrawHighMe
$LN17@DrawHighMe:

; 1694 : 		else if ( i < nLoop)

  0020d	3b da		 cmp	 ebx, edx
  0020f	7d 73		 jge	 SHORT $LN5@DrawHighMe
; File C:\Program Files (x86)\Microsoft Visual Studio\2019\Community\VC\Tools\MSVC\14.29.30133\atlmfc\include\afxwin2.inl

; 86   : 	{ ASSERT(::IsWindow(m_hWnd)); ::GetClientRect(m_hWnd, lpRect); }

  00211	8d 45 ec	 lea	 eax, DWORD PTR _toolrect$1[ebp]
  00214	0f 57 c0	 xorps	 xmm0, xmm0
  00217	50		 push	 eax
  00218	ff 76 20	 push	 DWORD PTR [esi+32]
; File C:\Program Files (x86)\Microsoft Visual Studio\2019\Community\VC\Tools\MSVC\14.29.30133\atlmfc\include\atltypes.h

; 528  : 	left = 0;

  0021b	0f 11 45 ec	 movups	 XMMWORD PTR _toolrect$1[ebp], xmm0
; File C:\Program Files (x86)\Microsoft Visual Studio\2019\Community\VC\Tools\MSVC\14.29.30133\atlmfc\include\afxwin2.inl

; 86   : 	{ ASSERT(::IsWindow(m_hWnd)); ::GetClientRect(m_hWnd, lpRect); }

  0021f	ff 15 00 00 00
	00		 call	 DWORD PTR __imp__GetClientRect@8
; File D:\git\src\IBK\IBK_DRFN\ProjSrc\SrcDrfn\Chart\MULTICHART\DlgToolbar.cpp

; 1700 : 			rect.top = toolrect.bottom - TOOL_BUTTON_HEIGHT - Y_OFFSET*2;

  00225	8b 45 f8	 mov	 eax, DWORD PTR _toolrect$1[ebp+12]
; File C:\Program Files (x86)\Microsoft Visual Studio\2019\Community\VC\Tools\MSVC\14.29.30133\atlmfc\include\afxwin2.inl

; 73   : 	{ MoveWindow(lpRect->left, lpRect->top, lpRect->right - lpRect->left,

  00228	6a 01		 push	 1
; File D:\git\src\IBK\IBK_DRFN\ProjSrc\SrcDrfn\Chart\MULTICHART\DlgToolbar.cpp

; 1700 : 			rect.top = toolrect.bottom - TOOL_BUTTON_HEIGHT - Y_OFFSET*2;

  0022a	8d 48 e6	 lea	 ecx, DWORD PTR [eax-26]
; File C:\Program Files (x86)\Microsoft Visual Studio\2019\Community\VC\Tools\MSVC\14.29.30133\atlmfc\include\afxwin2.inl

; 73   : 	{ MoveWindow(lpRect->left, lpRect->top, lpRect->right - lpRect->left,

  0022d	2b c1		 sub	 eax, ecx
  0022f	83 e8 0f	 sub	 eax, 15			; 0000000fH
  00232	50		 push	 eax
  00233	6a 1c		 push	 28			; 0000001cH
  00235	51		 push	 ecx
  00236	8b 8e 64 03 00
	00		 mov	 ecx, DWORD PTR [esi+868]
  0023c	6a 02		 push	 2
  0023e	e8 00 00 00 00	 call	 ?MoveWindow@CWnd@@QAEXHHHHH@Z ; CWnd::MoveWindow
; File D:\git\src\IBK\IBK_DRFN\ProjSrc\SrcDrfn\Chart\MULTICHART\DlgToolbar.cpp

; 1707 : 			rect.top = toolrect.bottom - (TOOL_BUTTON_HEIGHT / 2) - Y_OFFSET*2;

  00243	8b 45 f8	 mov	 eax, DWORD PTR _toolrect$1[ebp+12]
; File C:\Program Files (x86)\Microsoft Visual Studio\2019\Community\VC\Tools\MSVC\14.29.30133\atlmfc\include\afxwin2.inl

; 73   : 	{ MoveWindow(lpRect->left, lpRect->top, lpRect->right - lpRect->left,

  00246	6a 01		 push	 1
; File D:\git\src\IBK\IBK_DRFN\ProjSrc\SrcDrfn\Chart\MULTICHART\DlgToolbar.cpp

; 1707 : 			rect.top = toolrect.bottom - (TOOL_BUTTON_HEIGHT / 2) - Y_OFFSET*2;

  00248	8d 48 f1	 lea	 ecx, DWORD PTR [eax-15]
; File C:\Program Files (x86)\Microsoft Visual Studio\2019\Community\VC\Tools\MSVC\14.29.30133\atlmfc\include\afxwin2.inl

; 73   : 	{ MoveWindow(lpRect->left, lpRect->top, lpRect->right - lpRect->left,

  0024b	2b c1		 sub	 eax, ecx
  0024d	83 e8 04	 sub	 eax, 4
  00250	50		 push	 eax
  00251	6a 1c		 push	 28			; 0000001cH
  00253	51		 push	 ecx
  00254	8b 8e 68 03 00
	00		 mov	 ecx, DWORD PTR [esi+872]
  0025a	6a 02		 push	 2
  0025c	e8 00 00 00 00	 call	 ?MoveWindow@CWnd@@QAEXHHHHH@Z ; CWnd::MoveWindow
; File D:\git\src\IBK\IBK_DRFN\ProjSrc\SrcDrfn\Chart\MULTICHART\DlgToolbar.cpp

; 1712 : 			m_pBtnUp->ShowWindow(TRUE);

  00261	8b 8e 64 03 00
	00		 mov	 ecx, DWORD PTR [esi+868]
  00267	6a 01		 push	 1
  00269	e8 00 00 00 00	 call	 ?ShowWindow@CWnd@@QAEHH@Z ; CWnd::ShowWindow

; 1713 : 			m_pBtnDown->ShowWindow(TRUE);

  0026e	8b 8e 68 03 00
	00		 mov	 ecx, DWORD PTR [esi+872]
  00274	6a 01		 push	 1
  00276	e8 00 00 00 00	 call	 ?ShowWindow@CWnd@@QAEHH@Z ; CWnd::ShowWindow
$LN154@DrawHighMe:

; 1666 : 		//m_drawinfo.nLowBojo = 0;
; 1667 : 	}
; 1668 : 
; 1669 : 	for(i = 0; i < nLoop ; i++)

  0027b	8b 55 08	 mov	 edx, DWORD PTR _nHighMenuCount$[ebp]
$LN151@DrawHighMe:
  0027e	8b 45 0c	 mov	 eax, DWORD PTR _nSelTool$[ebp]
  00281	8b 4d e8	 mov	 ecx, DWORD PTR tv913[ebp]
$LN5@DrawHighMe:
  00284	43		 inc	 ebx
  00285	83 c1 16	 add	 ecx, 22			; 00000016H
  00288	89 4d e8	 mov	 DWORD PTR tv913[ebp], ecx
  0028b	3b da		 cmp	 ebx, edx
  0028d	0f 8c c4 fe ff
	ff		 jl	 $LL7@DrawHighMe
  00293	8b 86 54 03 00
	00		 mov	 eax, DWORD PTR [esi+852]
  00299	eb 03		 jmp	 SHORT $LN6@DrawHighMe
$LN149@DrawHighMe:
  0029b	8b 7d e0	 mov	 edi, DWORD PTR _nPos$[ebp]
$LN6@DrawHighMe:

; 1714 : 		}
; 1715 : 	}
; 1716 : 
; 1717 : 	if (m_drawinfo.nHighBojo > 1)

  0029e	83 f8 01	 cmp	 eax, 1
  002a1	7e 40		 jle	 SHORT $LN26@DrawHighMe

; 1718 : 	{
; 1719 : 		m_drawinfo.nHighBojo -= 1;

  002a3	48		 dec	 eax

; 1720 : 		//   
; 1721 : 		m_drawinfo.nHighLastIndex = nPos - (2 * (m_drawinfo.nCalcMenuCount - 1));
; 1722 : 		m_drawinfo.nLowBojo += 1;
; 1723 : 		m_drawinfo.nLowLastIndex = nPos;

  002a4	89 be 50 03 00
	00		 mov	 DWORD PTR [esi+848], edi
  002aa	89 86 54 03 00
	00		 mov	 DWORD PTR [esi+852], eax
  002b0	8b cf		 mov	 ecx, edi
  002b2	8b 86 3c 03 00
	00		 mov	 eax, DWORD PTR [esi+828]
  002b8	03 c0		 add	 eax, eax
  002ba	2b c8		 sub	 ecx, eax

; 1735 : 		m_pBtnUp->EnableWindow(FALSE);
; 1736 : 
; 1737 : 	return TRUE;

  002bc	b8 01 00 00 00	 mov	 eax, 1
  002c1	5f		 pop	 edi
  002c2	83 c1 02	 add	 ecx, 2
  002c5	ff 86 4c 03 00
	00		 inc	 DWORD PTR [esi+844]
  002cb	5b		 pop	 ebx
  002cc	89 8e 58 03 00
	00		 mov	 DWORD PTR [esi+856], ecx
  002d2	5e		 pop	 esi

; 1738 : }

  002d3	8b 4d fc	 mov	 ecx, DWORD PTR __$ArrayPad$[ebp]
  002d6	33 cd		 xor	 ecx, ebp
  002d8	e8 00 00 00 00	 call	 @__security_check_cookie@4
  002dd	8b e5		 mov	 esp, ebp
  002df	5d		 pop	 ebp
  002e0	c2 08 00	 ret	 8
$LN26@DrawHighMe:

; 1724 : 	}
; 1725 : 	else if (m_drawinfo.nHighBojo == 1)

  002e3	75 31		 jne	 SHORT $LN28@DrawHighMe

; 1726 : 	{
; 1727 : 		m_drawinfo.nHighBojo -= 1;
; 1728 : 		m_drawinfo.nHighLastIndex = nPos;
; 1729 : 		m_drawinfo.nLowBojo = m_drawinfo.nTotBojo;

  002e5	8b 86 5c 03 00
	00		 mov	 eax, DWORD PTR [esi+860]
  002eb	89 86 4c 03 00
	00		 mov	 DWORD PTR [esi+844], eax

; 1730 : 		m_drawinfo.nLowLastIndex = (2 * (m_drawinfo.nCalcMenuCount - 1)) - nPos;

  002f1	8b 86 3c 03 00
	00		 mov	 eax, DWORD PTR [esi+828]
  002f7	03 c0		 add	 eax, eax
  002f9	c7 86 54 03 00
	00 00 00 00 00	 mov	 DWORD PTR [esi+852], 0
  00303	2b c7		 sub	 eax, edi
  00305	89 be 58 03 00
	00		 mov	 DWORD PTR [esi+856], edi
  0030b	83 e8 02	 sub	 eax, 2
  0030e	89 86 50 03 00
	00		 mov	 DWORD PTR [esi+848], eax

; 1731 : 
; 1732 : 		m_pBtnUp->EnableWindow(FALSE);
; 1733 : 	}

  00314	eb 05		 jmp	 SHORT $LN153@DrawHighMe
$LN28@DrawHighMe:

; 1734 : 	else if (m_drawinfo.nHighBojo == -1)

  00316	83 f8 ff	 cmp	 eax, -1
  00319	75 0d		 jne	 SHORT $LN30@DrawHighMe
$LN153@DrawHighMe:

; 1735 : 		m_pBtnUp->EnableWindow(FALSE);
; 1736 : 
; 1737 : 	return TRUE;

  0031b	8b 8e 64 03 00
	00		 mov	 ecx, DWORD PTR [esi+868]
  00321	6a 00		 push	 0
  00323	e8 00 00 00 00	 call	 ?EnableWindow@CWnd@@QAEHH@Z ; CWnd::EnableWindow
$LN30@DrawHighMe:

; 1738 : }

  00328	8b 4d fc	 mov	 ecx, DWORD PTR __$ArrayPad$[ebp]
  0032b	b8 01 00 00 00	 mov	 eax, 1
  00330	5f		 pop	 edi
  00331	5b		 pop	 ebx
  00332	33 cd		 xor	 ecx, ebp
  00334	5e		 pop	 esi
  00335	e8 00 00 00 00	 call	 @__security_check_cookie@4
  0033a	8b e5		 mov	 esp, ebp
  0033c	5d		 pop	 ebp
  0033d	c2 08 00	 ret	 8
$LN126@DrawHighMe:
; File C:\Program Files (x86)\Microsoft Visual Studio\2019\Community\VC\Tools\MSVC\14.29.30133\atlmfc\include\afxtempl.h

; 290  : 	AfxThrowInvalidArgException();

  00340	e8 00 00 00 00	 call	 ?AfxThrowInvalidArgException@@YGXXZ ; AfxThrowInvalidArgException
$LN152@DrawHighMe:
  00345	cc		 int	 3
?DrawHighMenu@CDlgToolbar@@IAEHHH@Z ENDP		; CDlgToolbar::DrawHighMenu
_TEXT	ENDS
; Function compile flags: /Ogtp
; File D:\git\src\IBK\IBK_DRFN\ProjSrc\SrcDrfn\Chart\MULTICHART\DlgToolbar.cpp
;	COMDAT ?ResizeToolbar@CDlgToolbar@@IAEXH@Z
_TEXT	SEGMENT
_nSelTool$1$ = -4					; size = 4
tv478 = 8						; size = 4
_nY$ = 8						; size = 4
?ResizeToolbar@CDlgToolbar@@IAEXH@Z PROC		; CDlgToolbar::ResizeToolbar, COMDAT
; _this$ = ecx

; 1393 : {

  00000	55		 push	 ebp
  00001	8b ec		 mov	 ebp, esp
  00003	51		 push	 ecx
  00004	53		 push	 ebx
  00005	56		 push	 esi
  00006	8b f1		 mov	 esi, ecx
  00008	57		 push	 edi

; 1394 : 	BOOL bRet = FALSE;
; 1395 : 	//     .
; 1396 : 	GetDrawInfo(nY, m_nSelTool);

  00009	8b 86 2c 03 00
	00		 mov	 eax, DWORD PTR [esi+812]
  0000f	89 45 fc	 mov	 DWORD PTR _nSelTool$1$[ebp], eax

; 1358 : 	if (nSelTool == 0)						//

  00012	85 c0		 test	 eax, eax
  00014	75 08		 jne	 SHORT $LN17@ResizeTool

; 1359 : 		m_drawinfo.nRealMenuCount = m_arrayUserIdx.GetSize();

  00016	8b 86 04 03 00
	00		 mov	 eax, DWORD PTR [esi+772]
  0001c	eb 18		 jmp	 SHORT $LN32@ResizeTool
$LN17@ResizeTool:

; 1360 : 	else if (nSelTool == 1)					// 

  0001e	83 f8 01	 cmp	 eax, 1
  00021	75 08		 jne	 SHORT $LN19@ResizeTool

; 1361 : 		m_drawinfo.nRealMenuCount = m_arrayAnalIdx.GetSize();

  00023	8b 86 dc 02 00
	00		 mov	 eax, DWORD PTR [esi+732]
  00029	eb 0b		 jmp	 SHORT $LN32@ResizeTool
$LN19@ResizeTool:

; 1362 : 	else if (nSelTool == 2)					// 

  0002b	83 f8 02	 cmp	 eax, 2
  0002e	75 0c		 jne	 SHORT $LN21@ResizeTool

; 1363 : 		m_drawinfo.nRealMenuCount = m_arrayAdditionIdx.GetSize();

  00030	8b 86 f0 02 00
	00		 mov	 eax, DWORD PTR [esi+752]
$LN32@ResizeTool:

; 1364 : 
; 1365 : 	//   
; 1366 : 	nWinPos = nY - (Y_OFFSET); 

  00036	89 86 38 03 00
	00		 mov	 DWORD PTR [esi+824], eax
$LN21@ResizeTool:
  0003c	8b 5d 08	 mov	 ebx, DWORD PTR _nY$[ebp]

; 1367 : 	m_drawinfo.nCurrWindowPos = nWinPos;
; 1368 : 
; 1369 : 	//     
; 1370 : 	// -1    
; 1371 : 	ncnt = nWinPos / TOOL_BUTTON_HEIGHT;

  0003f	b8 e9 a2 8b 2e	 mov	 eax, 780903145		; 2e8ba2e9H
  00044	83 c3 fe	 add	 ebx, -2			; fffffffeH
  00047	f7 eb		 imul	 ebx
  00049	89 9e 34 03 00
	00		 mov	 DWORD PTR [esi+820], ebx
  0004f	c1 fa 02	 sar	 edx, 2
  00052	8b c2		 mov	 eax, edx

; 1372 : 	m_drawinfo.nCalcMenuCount = ncnt - 1;

  00054	4a		 dec	 edx
  00055	c1 e8 1f	 shr	 eax, 31			; 0000001fH
  00058	03 d0		 add	 edx, eax

; 1373 : 
; 1374 : 	//   
; 1375 : 	m_drawinfo.nHighMenuCount = m_drawinfo.nCalcMenuCount;
; 1376 : 
; 1377 : 	//   
; 1378 : 	nLow = m_drawinfo.nRealMenuCount - m_drawinfo.nHighMenuCount + 2;

  0005a	8b 86 38 03 00
	00		 mov	 eax, DWORD PTR [esi+824]
  00060	89 45 08	 mov	 DWORD PTR tv478[ebp], eax
  00063	2b c2		 sub	 eax, edx
  00065	89 96 3c 03 00
	00		 mov	 DWORD PTR [esi+828], edx
  0006b	89 96 40 03 00
	00		 mov	 DWORD PTR [esi+832], edx
  00071	8d 48 02	 lea	 ecx, DWORD PTR [eax+2]

; 1397 : 
; 1398 : 	//
; 1399 : 	m_drawinfo.nLowBojo = -1;

  00074	33 c0		 xor	 eax, eax
  00076	85 c9		 test	 ecx, ecx
  00078	0f 4f c1	 cmovg	 eax, ecx
  0007b	89 86 44 03 00
	00		 mov	 DWORD PTR [esi+836], eax

; 1400 : 	m_drawinfo.nLowLastIndex = -1;
; 1401 : 	m_drawinfo.nHighBojo = -1;
; 1402 : 	m_drawinfo.nLowLastIndex = -1;
; 1403 : 	m_drawinfo.nTotBojo = -1;
; 1404 : 
; 1405 : 	//         
; 1406 : 	if ( ((m_drawinfo.nPreWindowPos == 0) || (m_drawinfo.nPreWindowPos == m_drawinfo.nCurrWindowPos)) && (m_nResizeFlag == 0) ) 

  00081	8b 86 30 03 00
	00		 mov	 eax, DWORD PTR [esi+816]
  00087	c7 86 4c 03 00
	00 ff ff ff ff	 mov	 DWORD PTR [esi+844], -1
  00091	c7 86 54 03 00
	00 ff ff ff ff	 mov	 DWORD PTR [esi+852], -1
  0009b	c7 86 50 03 00
	00 ff ff ff ff	 mov	 DWORD PTR [esi+848], -1
  000a5	c7 86 5c 03 00
	00 ff ff ff ff	 mov	 DWORD PTR [esi+860], -1
  000af	85 c0		 test	 eax, eax
  000b1	74 6c		 je	 SHORT $LN25@ResizeTool
  000b3	3b c3		 cmp	 eax, ebx
  000b5	74 68		 je	 SHORT $LN25@ResizeTool
  000b7	8d be 60 03 00
	00		 lea	 edi, DWORD PTR [esi+864]
$LN26@ResizeTool:

; 1409 : 			bRet = DrawHighMenu(m_drawinfo.nCalcMenuCount, m_nSelTool);
; 1410 : 		else
; 1411 : 		{
; 1412 : 			m_drawinfo.nPreWindowPos = 0;
; 1413 : 			m_nResizeFlag = 0;
; 1414 : 			return;
; 1415 : 		}
; 1416 : 	}
; 1417 : 	else if ((m_drawinfo.nPreWindowPos > m_drawinfo.nCurrWindowPos) && (m_nResizeFlag == 1))

  000bd	3b c3		 cmp	 eax, ebx
  000bf	7e 07		 jle	 SHORT $LN33@ResizeTool
  000c1	83 3f 01	 cmp	 DWORD PTR [edi], 1
  000c4	74 74		 je	 SHORT $LN13@ResizeTool

; 1418 : 	{
; 1419 : 		bRet = DrawHighMenu(m_drawinfo.nHighMenuCount, m_nSelTool);
; 1420 : 	}
; 1421 : 	else if ((m_drawinfo.nPreWindowPos < m_drawinfo.nCurrWindowPos) && (m_nResizeFlag == 1))

  000c6	3b c3		 cmp	 eax, ebx
$LN33@ResizeTool:
  000c8	7d 42		 jge	 SHORT $LN9@ResizeTool
  000ca	83 be 60 03 00
	00 01		 cmp	 DWORD PTR [esi+864], 1
  000d1	8d be 60 03 00
	00		 lea	 edi, DWORD PTR [esi+864]
  000d7	75 33		 jne	 SHORT $LN9@ResizeTool

; 1422 : 	{
; 1423 : 		if (m_drawinfo.nCalcMenuCount < m_drawinfo.nRealMenuCount)

  000d9	3b 55 08	 cmp	 edx, DWORD PTR tv478[ebp]
  000dc	7c 5c		 jl	 SHORT $LN13@ResizeTool

; 1424 : 		{
; 1425 : 			bRet = DrawHighMenu(m_drawinfo.nHighMenuCount, m_nSelTool);
; 1426 : 		}
; 1427 : 		else if (m_drawinfo.nCalcMenuCount >= m_drawinfo.nRealMenuCount)
; 1428 : 		{
; 1429 : 			m_pBtnUp->ShowWindow(FALSE);

  000de	8b 8e 64 03 00
	00		 mov	 ecx, DWORD PTR [esi+868]
  000e4	6a 00		 push	 0
  000e6	e8 00 00 00 00	 call	 ?ShowWindow@CWnd@@QAEHH@Z ; CWnd::ShowWindow

; 1430 : 			m_pBtnDown->ShowWindow(FALSE);

  000eb	8b 8e 68 03 00
	00		 mov	 ecx, DWORD PTR [esi+872]
  000f1	6a 00		 push	 0
  000f3	e8 00 00 00 00	 call	 ?ShowWindow@CWnd@@QAEHH@Z ; CWnd::ShowWindow

; 1431 : 			ResizeControl(25, 0);

  000f8	8b 06		 mov	 eax, DWORD PTR [esi]
  000fa	8b ce		 mov	 ecx, esi
  000fc	6a 00		 push	 0
  000fe	6a 19		 push	 25			; 00000019H
  00100	ff 90 94 01 00
	00		 call	 DWORD PTR [eax+404]
$LN5@ResizeTool:

; 1452 : 	}
; 1453 : 
; 1454 : }

  00106	c7 07 00 00 00
	00		 mov	 DWORD PTR [edi], 0
$LN9@ResizeTool:
  0010c	c7 86 30 03 00
	00 00 00 00 00	 mov	 DWORD PTR [esi+816], 0
$LN14@ResizeTool:
  00116	5f		 pop	 edi
  00117	5e		 pop	 esi
  00118	5b		 pop	 ebx
  00119	8b e5		 mov	 esp, ebp
  0011b	5d		 pop	 ebp
  0011c	c2 04 00	 ret	 4
$LN25@ResizeTool:

; 1400 : 	m_drawinfo.nLowLastIndex = -1;
; 1401 : 	m_drawinfo.nHighBojo = -1;
; 1402 : 	m_drawinfo.nLowLastIndex = -1;
; 1403 : 	m_drawinfo.nTotBojo = -1;
; 1404 : 
; 1405 : 	//         
; 1406 : 	if ( ((m_drawinfo.nPreWindowPos == 0) || (m_drawinfo.nPreWindowPos == m_drawinfo.nCurrWindowPos)) && (m_nResizeFlag == 0) ) 

  0011f	83 be 60 03 00
	00 00		 cmp	 DWORD PTR [esi+864], 0
  00126	8d be 60 03 00
	00		 lea	 edi, DWORD PTR [esi+864]
  0012c	75 8f		 jne	 SHORT $LN26@ResizeTool

; 1407 : 	{
; 1408 : 		if ( (m_drawinfo.nCurrWindowPos > 0) && (m_drawinfo.nCurrWindowPos < m_drawinfo.nLastBtnPos))

  0012e	85 db		 test	 ebx, ebx
  00130	7e d4		 jle	 SHORT $LN5@ResizeTool
  00132	3b 9e 48 03 00
	00		 cmp	 ebx, DWORD PTR [esi+840]
  00138	7d cc		 jge	 SHORT $LN5@ResizeTool
$LN13@ResizeTool:

; 1432 : 
; 1433 : 			m_drawinfo.nPreWindowPos = 0;
; 1434 : 			m_nResizeFlag = 0;
; 1435 : 
; 1436 : 			return;
; 1437 : 		}
; 1438 : 	}
; 1439 : 	else
; 1440 : 	{
; 1441 : 		m_drawinfo.nPreWindowPos = 0;
; 1442 : //>> [QC No]090804HMC083
; 1443 : //		m_nResizeFlag = 0;
; 1444 : //<< [QC No]090804HMC083
; 1445 : 		return;
; 1446 : 	}
; 1447 : 
; 1448 : 	if (bRet)

  0013a	ff 75 fc	 push	 DWORD PTR _nSelTool$1$[ebp]
  0013d	8b ce		 mov	 ecx, esi
  0013f	52		 push	 edx
  00140	e8 00 00 00 00	 call	 ?DrawHighMenu@CDlgToolbar@@IAEHHH@Z ; CDlgToolbar::DrawHighMenu
  00145	85 c0		 test	 eax, eax
  00147	74 cd		 je	 SHORT $LN14@ResizeTool

; 1449 : 	{
; 1450 : 		m_drawinfo.nPreWindowPos = m_drawinfo.nCurrWindowPos;

  00149	8b 86 34 03 00
	00		 mov	 eax, DWORD PTR [esi+820]

; 1451 : 		m_nResizeFlag = 1;

  0014f	c7 07 01 00 00
	00		 mov	 DWORD PTR [edi], 1
  00155	5f		 pop	 edi
  00156	89 86 30 03 00
	00		 mov	 DWORD PTR [esi+816], eax

; 1452 : 	}
; 1453 : 
; 1454 : }

  0015c	5e		 pop	 esi
  0015d	5b		 pop	 ebx
  0015e	8b e5		 mov	 esp, ebp
  00160	5d		 pop	 ebp
  00161	c2 04 00	 ret	 4
?ResizeToolbar@CDlgToolbar@@IAEXH@Z ENDP		; CDlgToolbar::ResizeToolbar
_TEXT	ENDS
; Function compile flags: /Ogtp
; File D:\git\src\IBK\IBK_DRFN\ProjSrc\SrcDrfn\Chart\MULTICHART\DlgToolbar.cpp
;	COMDAT ?GetFieldData@CDlgToolbar@@IAEXV?$CStringT@DV?$StrTraitMFC_DLL@DV?$ChTraitsCRT@D@ATL@@@@@ATL@@AAHAAV23@@Z
_TEXT	SEGMENT
$T2 = -20						; size = 4
_strFieldKey$ = -16					; size = 4
__$EHRec$ = -12						; size = 12
_strFieldData$ = 8					; size = 4
_nFieldKey$ = 12					; size = 4
_strFieldName$ = 16					; size = 4
?GetFieldData@CDlgToolbar@@IAEXV?$CStringT@DV?$StrTraitMFC_DLL@DV?$ChTraitsCRT@D@ATL@@@@@ATL@@AAHAAV23@@Z PROC ; CDlgToolbar::GetFieldData, COMDAT
; _this$ = ecx

; 537  : {

  00000	55		 push	 ebp
  00001	8b ec		 mov	 ebp, esp
  00003	6a ff		 push	 -1
  00005	68 00 00 00 00	 push	 __ehhandler$?GetFieldData@CDlgToolbar@@IAEXV?$CStringT@DV?$StrTraitMFC_DLL@DV?$ChTraitsCRT@D@ATL@@@@@ATL@@AAHAAV23@@Z
  0000a	64 a1 00 00 00
	00		 mov	 eax, DWORD PTR fs:0
  00010	50		 push	 eax
  00011	83 ec 08	 sub	 esp, 8
  00014	56		 push	 esi
  00015	a1 00 00 00 00	 mov	 eax, DWORD PTR ___security_cookie
  0001a	33 c5		 xor	 eax, ebp
  0001c	50		 push	 eax
  0001d	8d 45 f4	 lea	 eax, DWORD PTR __$EHRec$[ebp]
  00020	64 a3 00 00 00
	00		 mov	 DWORD PTR fs:0, eax

; 538  : 	CString strFieldKey;

  00026	8d 4d f0	 lea	 ecx, DWORD PTR _strFieldKey$[ebp]
  00029	c7 45 fc 00 00
	00 00		 mov	 DWORD PTR __$EHRec$[ebp+8], 0
  00030	ff 15 00 00 00
	00		 call	 DWORD PTR __imp_??0?$CStringT@DV?$StrTraitMFC_DLL@DV?$ChTraitsCRT@D@ATL@@@@@ATL@@QAE@XZ

; 539  : 
; 540  : 	int nPos = strFieldData.Find(',');

  00036	6a 00		 push	 0
  00038	6a 2c		 push	 44			; 0000002cH
  0003a	8d 4d 08	 lea	 ecx, DWORD PTR _strFieldData$[ebp]
  0003d	c6 45 fc 01	 mov	 BYTE PTR __$EHRec$[ebp+8], 1
  00041	ff 15 00 00 00
	00		 call	 DWORD PTR __imp_?Find@?$CStringT@DV?$StrTraitMFC_DLL@DV?$ChTraitsCRT@D@ATL@@@@@ATL@@QBEHDH@Z
  00047	8b f0		 mov	 esi, eax

; 541  : 	if(nPos==-1)	return;		

  00049	83 fe ff	 cmp	 esi, -1
  0004c	74 56		 je	 SHORT $LN11@GetFieldDa

; 542  : 	strFieldKey = strFieldData.Left(nPos);			//

  0004e	56		 push	 esi
  0004f	8d 45 ec	 lea	 eax, DWORD PTR $T2[ebp]
  00052	50		 push	 eax
  00053	8d 4d 08	 lea	 ecx, DWORD PTR _strFieldData$[ebp]
  00056	ff 15 00 00 00
	00		 call	 DWORD PTR __imp_?Left@?$CStringT@DV?$StrTraitMFC_DLL@DV?$ChTraitsCRT@D@ATL@@@@@ATL@@QBE?AV12@H@Z
  0005c	50		 push	 eax
  0005d	8d 4d f0	 lea	 ecx, DWORD PTR _strFieldKey$[ebp]
  00060	c6 45 fc 02	 mov	 BYTE PTR __$EHRec$[ebp+8], 2
  00064	ff 15 00 00 00
	00		 call	 DWORD PTR __imp_??4?$CStringT@DV?$StrTraitMFC_DLL@DV?$ChTraitsCRT@D@ATL@@@@@ATL@@QAEAAV01@ABV01@@Z
  0006a	8d 4d ec	 lea	 ecx, DWORD PTR $T2[ebp]
  0006d	c6 45 fc 01	 mov	 BYTE PTR __$EHRec$[ebp+8], 1
  00071	ff 15 00 00 00
	00		 call	 DWORD PTR __imp_??1?$CStringT@DV?$StrTraitMFC_DLL@DV?$ChTraitsCRT@D@ATL@@@@@ATL@@QAE@XZ

; 543  : 	nFieldKey = atoi(strFieldKey);

  00077	ff 75 f0	 push	 DWORD PTR _strFieldKey$[ebp]
  0007a	ff 15 00 00 00
	00		 call	 DWORD PTR __imp__atoi
  00080	8b 4d 0c	 mov	 ecx, DWORD PTR _nFieldKey$[ebp]
  00083	83 c4 04	 add	 esp, 4
  00086	89 01		 mov	 DWORD PTR [ecx], eax

; 544  : 	strFieldData.Delete(0,nPos+1);		

  00088	8d 46 01	 lea	 eax, DWORD PTR [esi+1]
  0008b	50		 push	 eax
  0008c	6a 00		 push	 0
  0008e	8d 4d 08	 lea	 ecx, DWORD PTR _strFieldData$[ebp]
  00091	ff 15 00 00 00
	00		 call	 DWORD PTR __imp_?Delete@?$CStringT@DV?$StrTraitMFC_DLL@DV?$ChTraitsCRT@D@ATL@@@@@ATL@@QAEHHH@Z

; 545  : 
; 546  : 	strFieldName = strFieldData;			//

  00097	8b 4d 10	 mov	 ecx, DWORD PTR _strFieldName$[ebp]
  0009a	8d 45 08	 lea	 eax, DWORD PTR _strFieldData$[ebp]
  0009d	50		 push	 eax
  0009e	ff 15 00 00 00
	00		 call	 DWORD PTR __imp_??4?$CStringT@DV?$StrTraitMFC_DLL@DV?$ChTraitsCRT@D@ATL@@@@@ATL@@QAEAAV01@ABV01@@Z
$LN11@GetFieldDa:

; 547  : }

  000a4	8d 4d f0	 lea	 ecx, DWORD PTR _strFieldKey$[ebp]
  000a7	ff 15 00 00 00
	00		 call	 DWORD PTR __imp_??1?$CStringT@DV?$StrTraitMFC_DLL@DV?$ChTraitsCRT@D@ATL@@@@@ATL@@QAE@XZ
  000ad	8d 4d 08	 lea	 ecx, DWORD PTR _strFieldData$[ebp]
  000b0	ff 15 00 00 00
	00		 call	 DWORD PTR __imp_??1?$CStringT@DV?$StrTraitMFC_DLL@DV?$ChTraitsCRT@D@ATL@@@@@ATL@@QAE@XZ
  000b6	8b 4d f4	 mov	 ecx, DWORD PTR __$EHRec$[ebp]
  000b9	64 89 0d 00 00
	00 00		 mov	 DWORD PTR fs:0, ecx
  000c0	59		 pop	 ecx
  000c1	5e		 pop	 esi
  000c2	8b e5		 mov	 esp, ebp
  000c4	5d		 pop	 ebp
  000c5	c2 0c 00	 ret	 12			; 0000000cH
_TEXT	ENDS
;	COMDAT text$x
text$x	SEGMENT
__unwindfunclet$?GetFieldData@CDlgToolbar@@IAEXV?$CStringT@DV?$StrTraitMFC_DLL@DV?$ChTraitsCRT@D@ATL@@@@@ATL@@AAHAAV23@@Z$0:
  00000	8d 4d 08	 lea	 ecx, DWORD PTR _strFieldData$[ebp]
  00003	ff 25 00 00 00
	00		 jmp	 DWORD PTR __imp_??1?$CStringT@DV?$StrTraitMFC_DLL@DV?$ChTraitsCRT@D@ATL@@@@@ATL@@QAE@XZ
__unwindfunclet$?GetFieldData@CDlgToolbar@@IAEXV?$CStringT@DV?$StrTraitMFC_DLL@DV?$ChTraitsCRT@D@ATL@@@@@ATL@@AAHAAV23@@Z$1:
  00009	8d 4d f0	 lea	 ecx, DWORD PTR _strFieldKey$[ebp]
  0000c	ff 25 00 00 00
	00		 jmp	 DWORD PTR __imp_??1?$CStringT@DV?$StrTraitMFC_DLL@DV?$ChTraitsCRT@D@ATL@@@@@ATL@@QAE@XZ
__unwindfunclet$?GetFieldData@CDlgToolbar@@IAEXV?$CStringT@DV?$StrTraitMFC_DLL@DV?$ChTraitsCRT@D@ATL@@@@@ATL@@AAHAAV23@@Z$2:
  00012	8d 4d ec	 lea	 ecx, DWORD PTR $T2[ebp]
  00015	ff 25 00 00 00
	00		 jmp	 DWORD PTR __imp_??1?$CStringT@DV?$StrTraitMFC_DLL@DV?$ChTraitsCRT@D@ATL@@@@@ATL@@QAE@XZ
  0001b	cc		 int	 3
  0001c	cc		 int	 3
  0001d	cc		 int	 3
  0001e	cc		 int	 3
  0001f	cc		 int	 3
__ehhandler$?GetFieldData@CDlgToolbar@@IAEXV?$CStringT@DV?$StrTraitMFC_DLL@DV?$ChTraitsCRT@D@ATL@@@@@ATL@@AAHAAV23@@Z:
  00020	90		 npad	 1
  00021	90		 npad	 1
  00022	8b 54 24 08	 mov	 edx, DWORD PTR [esp+8]
  00026	8d 42 0c	 lea	 eax, DWORD PTR [edx+12]
  00029	8b 4a f0	 mov	 ecx, DWORD PTR [edx-16]
  0002c	33 c8		 xor	 ecx, eax
  0002e	e8 00 00 00 00	 call	 @__security_check_cookie@4
  00033	b8 00 00 00 00	 mov	 eax, OFFSET __ehfuncinfo$?GetFieldData@CDlgToolbar@@IAEXV?$CStringT@DV?$StrTraitMFC_DLL@DV?$ChTraitsCRT@D@ATL@@@@@ATL@@AAHAAV23@@Z
  00038	e9 00 00 00 00	 jmp	 ___CxxFrameHandler3
text$x	ENDS
?GetFieldData@CDlgToolbar@@IAEXV?$CStringT@DV?$StrTraitMFC_DLL@DV?$ChTraitsCRT@D@ATL@@@@@ATL@@AAHAAV23@@Z ENDP ; CDlgToolbar::GetFieldData
; Function compile flags: /Ogtp
; File D:\git\src\IBK\IBK_DRFN\ProjSrc\SrcDrfn\Chart\MULTICHART\DlgToolbar.cpp
; File C:\Program Files (x86)\Microsoft Visual Studio\2019\Community\VC\Tools\MSVC\14.29.30133\atlmfc\include\afxtempl.h
; File D:\git\src\IBK\IBK_DRFN\ProjSrc\SrcDrfn\Chart\MULTICHART\DlgToolbar.cpp
; File C:\Program Files (x86)\Microsoft Visual Studio\2019\Community\VC\Tools\MSVC\14.29.30133\atlmfc\include\atlsimpstr.h
; File D:\git\src\IBK\IBK_DRFN\ProjSrc\SrcDrfn\Chart\MULTICHART\DlgToolbar.cpp
; File C:\Program Files (x86)\Microsoft Visual Studio\2019\Community\VC\Tools\MSVC\14.29.30133\atlmfc\include\atlsimpstr.h
; File D:\git\src\IBK\IBK_DRFN\ProjSrc\SrcDrfn\Chart\MULTICHART\DlgToolbar.cpp
; File C:\Program Files (x86)\Microsoft Visual Studio\2019\Community\VC\Tools\MSVC\14.29.30133\atlmfc\include\afxtempl.h
; File D:\git\src\IBK\IBK_DRFN\ProjSrc\SrcDrfn\Chart\MULTICHART\DlgToolbar.cpp
; File C:\Program Files (x86)\Microsoft Visual Studio\2019\Community\VC\Tools\MSVC\14.29.30133\atlmfc\include\atlsimpstr.h
; File D:\git\src\IBK\IBK_DRFN\ProjSrc\SrcDrfn\Chart\MULTICHART\DlgToolbar.cpp
; File C:\Program Files (x86)\Microsoft Visual Studio\2019\Community\VC\Tools\MSVC\14.29.30133\atlmfc\include\atlsimpstr.h
; File D:\git\src\IBK\IBK_DRFN\ProjSrc\SrcDrfn\Chart\MULTICHART\DlgToolbar.cpp
; File C:\Program Files (x86)\Microsoft Visual Studio\2019\Community\VC\Tools\MSVC\14.29.30133\atlmfc\include\afxtempl.h
; File D:\git\src\IBK\IBK_DRFN\ProjSrc\SrcDrfn\Chart\MULTICHART\DlgToolbar.cpp
; File C:\Program Files (x86)\Microsoft Visual Studio\2019\Community\VC\Tools\MSVC\14.29.30133\atlmfc\include\atlsimpstr.h
; File D:\git\src\IBK\IBK_DRFN\ProjSrc\SrcDrfn\Chart\MULTICHART\DlgToolbar.cpp
; File C:\Program Files (x86)\Microsoft Visual Studio\2019\Community\VC\Tools\MSVC\14.29.30133\atlmfc\include\atlsimpstr.h
; File D:\git\src\IBK\IBK_DRFN\ProjSrc\SrcDrfn\Chart\MULTICHART\DlgToolbar.cpp
; File C:\Program Files (x86)\Microsoft Visual Studio\2019\Community\VC\Tools\MSVC\14.29.30133\atlmfc\include\afxtempl.h
; File D:\git\src\IBK\IBK_DRFN\ProjSrc\SrcDrfn\Chart\MULTICHART\DlgToolbar.cpp
; File C:\Program Files (x86)\Microsoft Visual Studio\2019\Community\VC\Tools\MSVC\14.29.30133\atlmfc\include\atlsimpstr.h
; File D:\git\src\IBK\IBK_DRFN\ProjSrc\SrcDrfn\Chart\MULTICHART\DlgToolbar.cpp
; File C:\Program Files (x86)\Microsoft Visual Studio\2019\Community\VC\Tools\MSVC\14.29.30133\atlmfc\include\atlsimpstr.h
; File D:\git\src\IBK\IBK_DRFN\ProjSrc\SrcDrfn\Chart\MULTICHART\DlgToolbar.cpp
; File C:\Program Files (x86)\Microsoft Visual Studio\2019\Community\VC\Tools\MSVC\14.29.30133\atlmfc\include\afxtempl.h
; File D:\git\src\IBK\IBK_DRFN\ProjSrc\SrcDrfn\Chart\MULTICHART\DlgToolbar.cpp
;	COMDAT ?ReadIniFile@CDlgToolbar@@IAEXH@Z
_TEXT	SEGMENT
_FileFind$ = -148					; size = 28
_strImageFolderPath$ = -120				; size = 4
_szIndex$ = -116					; size = 4
_szFieldKey$ = -112					; size = 4
_nHashValue$6 = -108					; size = 4
_strTemp$ = -104					; size = 4
_strPath$ = -100					; size = 4
_strUserPath$ = -96					; size = 4
_nColCount$4$ = -92					; size = 4
_nColCount$3$ = -92					; size = 4
_nColCount$2$ = -92					; size = 4
_nHashBucket$7 = -92					; size = 4
$T8 = -88						; size = 4
$T9 = -88						; size = 4
$T10 = -88						; size = 4
_strDataPath$ = -84					; size = 4
_szFieldName$ = -80					; size = 4
_szColNum$ = -76					; size = 4
_strConfigPath$ = -72					; size = 4
_i$4$ = -68						; size = 4
_i$1$ = -68						; size = 4
tv3014 = -68						; size = 4
tv3010 = -68						; size = 4
_nHashSize$1$ = -64					; size = 4
_nIndex$1$ = -64					; size = 4
_pAssoc$1$ = -64					; size = 4
_i$3$ = -64						; size = 4
_i$2$ = -64						; size = 4
_nIndex$1$ = -60					; size = 4
_nIndex$1$ = -60					; size = 4
_nHashBucket$1$ = -60					; size = 4
_nIndex$1$ = -60					; size = 4
_nHashBucket$1$ = -60					; size = 4
_nColCount$1$ = -60					; size = 4
_nFieldKey$ = -56					; size = 4
_szColInfo$ = -52					; size = 4
_szKey$ = -48						; size = 30
__$ArrayPad$ = -16					; size = 4
__$EHRec$ = -12						; size = 12
_bReload$ = 8						; size = 4
?ReadIniFile@CDlgToolbar@@IAEXH@Z PROC			; CDlgToolbar::ReadIniFile, COMDAT
; _this$ = ecx

; 312  : {

  00000	55		 push	 ebp
  00001	8b ec		 mov	 ebp, esp
  00003	6a ff		 push	 -1
  00005	68 00 00 00 00	 push	 __ehhandler$?ReadIniFile@CDlgToolbar@@IAEXH@Z
  0000a	64 a1 00 00 00
	00		 mov	 eax, DWORD PTR fs:0
  00010	50		 push	 eax
  00011	81 ec 88 00 00
	00		 sub	 esp, 136		; 00000088H
  00017	a1 00 00 00 00	 mov	 eax, DWORD PTR ___security_cookie
  0001c	33 c5		 xor	 eax, ebp
  0001e	89 45 f0	 mov	 DWORD PTR __$ArrayPad$[ebp], eax
  00021	56		 push	 esi
  00022	57		 push	 edi
  00023	50		 push	 eax
  00024	8d 45 f4	 lea	 eax, DWORD PTR __$EHRec$[ebp]
  00027	64 a3 00 00 00
	00		 mov	 DWORD PTR fs:0, eax
  0002d	8b f1		 mov	 esi, ecx
; File C:\Program Files (x86)\Microsoft Visual Studio\2019\Community\VC\Tools\MSVC\14.29.30133\atlmfc\include\afxtempl.h

; 381  : 		if (m_pData != NULL)

  0002f	8b 86 c4 02 00
	00		 mov	 eax, DWORD PTR [esi+708]
  00035	85 c0		 test	 eax, eax
  00037	74 13		 je	 SHORT $LN67@ReadIniFil

; 382  : 		{
; 383  : 			for( int i = 0; i < m_nSize; i++ )
; 384  : 				(m_pData + i)->~TYPE();
; 385  : 			delete[] (BYTE*)m_pData;

  00039	50		 push	 eax
  0003a	e8 00 00 00 00	 call	 ??_V@YAXPAX@Z		; operator delete[]
  0003f	83 c4 04	 add	 esp, 4

; 386  : 			m_pData = NULL;

  00042	c7 86 c4 02 00
	00 00 00 00 00	 mov	 DWORD PTR [esi+708], 0
$LN67@ReadIniFil:

; 387  : 		}
; 388  : 		m_nSize = m_nMaxSize = 0;

  0004c	c7 86 cc 02 00
	00 00 00 00 00	 mov	 DWORD PTR [esi+716], 0
  00056	c7 86 c8 02 00
	00 00 00 00 00	 mov	 DWORD PTR [esi+712], 0

; 381  : 		if (m_pData != NULL)

  00060	8b 86 d8 02 00
	00		 mov	 eax, DWORD PTR [esi+728]
  00066	85 c0		 test	 eax, eax
  00068	74 13		 je	 SHORT $LN118@ReadIniFil

; 382  : 		{
; 383  : 			for( int i = 0; i < m_nSize; i++ )
; 384  : 				(m_pData + i)->~TYPE();
; 385  : 			delete[] (BYTE*)m_pData;

  0006a	50		 push	 eax
  0006b	e8 00 00 00 00	 call	 ??_V@YAXPAX@Z		; operator delete[]
  00070	83 c4 04	 add	 esp, 4

; 386  : 			m_pData = NULL;

  00073	c7 86 d8 02 00
	00 00 00 00 00	 mov	 DWORD PTR [esi+728], 0
$LN118@ReadIniFil:

; 387  : 		}
; 388  : 		m_nSize = m_nMaxSize = 0;

  0007d	c7 86 e0 02 00
	00 00 00 00 00	 mov	 DWORD PTR [esi+736], 0
  00087	c7 86 dc 02 00
	00 00 00 00 00	 mov	 DWORD PTR [esi+732], 0

; 381  : 		if (m_pData != NULL)

  00091	8b 86 ec 02 00
	00		 mov	 eax, DWORD PTR [esi+748]
  00097	85 c0		 test	 eax, eax
  00099	74 13		 je	 SHORT $LN168@ReadIniFil

; 382  : 		{
; 383  : 			for( int i = 0; i < m_nSize; i++ )
; 384  : 				(m_pData + i)->~TYPE();
; 385  : 			delete[] (BYTE*)m_pData;

  0009b	50		 push	 eax
  0009c	e8 00 00 00 00	 call	 ??_V@YAXPAX@Z		; operator delete[]
  000a1	83 c4 04	 add	 esp, 4

; 386  : 			m_pData = NULL;

  000a4	c7 86 ec 02 00
	00 00 00 00 00	 mov	 DWORD PTR [esi+748], 0
$LN168@ReadIniFil:

; 387  : 		}
; 388  : 		m_nSize = m_nMaxSize = 0;

  000ae	c7 86 f4 02 00
	00 00 00 00 00	 mov	 DWORD PTR [esi+756], 0
  000b8	c7 86 f0 02 00
	00 00 00 00 00	 mov	 DWORD PTR [esi+752], 0

; 381  : 		if (m_pData != NULL)

  000c2	8b 86 00 03 00
	00		 mov	 eax, DWORD PTR [esi+768]
  000c8	85 c0		 test	 eax, eax
  000ca	74 13		 je	 SHORT $LN218@ReadIniFil

; 382  : 		{
; 383  : 			for( int i = 0; i < m_nSize; i++ )
; 384  : 				(m_pData + i)->~TYPE();
; 385  : 			delete[] (BYTE*)m_pData;

  000cc	50		 push	 eax
  000cd	e8 00 00 00 00	 call	 ??_V@YAXPAX@Z		; operator delete[]
  000d2	83 c4 04	 add	 esp, 4

; 386  : 			m_pData = NULL;

  000d5	c7 86 00 03 00
	00 00 00 00 00	 mov	 DWORD PTR [esi+768], 0
$LN218@ReadIniFil:

; 387  : 		}
; 388  : 		m_nSize = m_nMaxSize = 0;

  000df	c7 86 08 03 00
	00 00 00 00 00	 mov	 DWORD PTR [esi+776], 0
  000e9	c7 86 04 03 00
	00 00 00 00 00	 mov	 DWORD PTR [esi+772], 0
; File D:\git\src\IBK\IBK_DRFN\ProjSrc\SrcDrfn\Chart\MULTICHART\DlgToolbar.cpp

; 319  : 	CStdDialog* pMainDlg = (CStdDialog*)m_pMultiChartWnd;

  000f3	8b 86 a4 02 00
	00		 mov	 eax, DWORD PTR [esi+676]

; 320  : 	CString strImageFolderPath = pMainDlg->m_szImageDir+"\\";

  000f9	05 ac 07 00 00	 add	 eax, 1964		; 000007acH
  000fe	68 00 00 00 00	 push	 OFFSET ??_C@_01KICIPPFI@?2@
  00103	50		 push	 eax
  00104	8d 45 88	 lea	 eax, DWORD PTR _strImageFolderPath$[ebp]
  00107	50		 push	 eax
  00108	e8 00 00 00 00	 call	 ??HATL@@YA?AV?$CStringT@DV?$StrTraitMFC_DLL@DV?$ChTraitsCRT@D@ATL@@@@@0@ABV10@PBD@Z ; ATL::operator+
  0010d	83 c4 0c	 add	 esp, 12			; 0000000cH

; 321  : 
; 322  : 	CFileFind FileFind;

  00110	8d 8d 6c ff ff
	ff		 lea	 ecx, DWORD PTR _FileFind$[ebp]
  00116	c7 45 fc 00 00
	00 00		 mov	 DWORD PTR __$EHRec$[ebp+8], 0
  0011d	e8 00 00 00 00	 call	 ??0CFileFind@@QAE@XZ	; CFileFind::CFileFind

; 323  : 	CString strPath, strDataPath, strUserPath, strConfigPath, strTemp;

  00122	8d 4d 9c	 lea	 ecx, DWORD PTR _strPath$[ebp]
  00125	ff 15 00 00 00
	00		 call	 DWORD PTR __imp_??0?$CStringT@DV?$StrTraitMFC_DLL@DV?$ChTraitsCRT@D@ATL@@@@@ATL@@QAE@XZ
  0012b	8d 4d ac	 lea	 ecx, DWORD PTR _strDataPath$[ebp]
  0012e	ff 15 00 00 00
	00		 call	 DWORD PTR __imp_??0?$CStringT@DV?$StrTraitMFC_DLL@DV?$ChTraitsCRT@D@ATL@@@@@ATL@@QAE@XZ
  00134	8d 4d a0	 lea	 ecx, DWORD PTR _strUserPath$[ebp]
  00137	ff 15 00 00 00
	00		 call	 DWORD PTR __imp_??0?$CStringT@DV?$StrTraitMFC_DLL@DV?$ChTraitsCRT@D@ATL@@@@@ATL@@QAE@XZ
  0013d	8d 4d b8	 lea	 ecx, DWORD PTR _strConfigPath$[ebp]
  00140	ff 15 00 00 00
	00		 call	 DWORD PTR __imp_??0?$CStringT@DV?$StrTraitMFC_DLL@DV?$ChTraitsCRT@D@ATL@@@@@ATL@@QAE@XZ
  00146	8d 4d 98	 lea	 ecx, DWORD PTR _strTemp$[ebp]
  00149	ff 15 00 00 00
	00		 call	 DWORD PTR __imp_??0?$CStringT@DV?$StrTraitMFC_DLL@DV?$ChTraitsCRT@D@ATL@@@@@ATL@@QAE@XZ

; 324  : 	char szKey[30];
; 325  : 
; 326  : 	int nID = 21;
; 327  : 	IMainInfoManager* pMainInfoManager = (IMainInfoManager*)m_pGateManager->GetInterface(nID);

  0014f	8b 86 e8 01 00
	00		 mov	 eax, DWORD PTR [esi+488]
  00155	6a 00		 push	 0
  00157	6a 15		 push	 21			; 00000015H
  00159	50		 push	 eax
  0015a	8b 08		 mov	 ecx, DWORD PTR [eax]
  0015c	c6 45 fc 06	 mov	 BYTE PTR __$EHRec$[ebp+8], 6
  00160	ff 11		 call	 DWORD PTR [ecx]

; 328  : 
; 329  : 	//# Data Folder
; 330  : 	strPath = pMainInfoManager->GetDataDir();

  00162	50		 push	 eax
  00163	8b 08		 mov	 ecx, DWORD PTR [eax]
  00165	ff 51 14	 call	 DWORD PTR [ecx+20]
  00168	50		 push	 eax
  00169	8d 4d 9c	 lea	 ecx, DWORD PTR _strPath$[ebp]
  0016c	ff 15 00 00 00
	00		 call	 DWORD PTR __imp_??4?$CStringT@DV?$StrTraitMFC_DLL@DV?$ChTraitsCRT@D@ATL@@@@@ATL@@QAEAAV01@PBD@Z

; 331  : 	strDataPath.Format("%s\\%s", strPath, "ChartToolBarSetting.dat");

  00172	8b 3d 00 00 00
	00		 mov	 edi, DWORD PTR __imp_?Format@?$CStringT@DV?$StrTraitMFC_DLL@DV?$ChTraitsCRT@D@ATL@@@@@ATL@@QAAXPBDZZ
  00178	8d 45 ac	 lea	 eax, DWORD PTR _strDataPath$[ebp]
  0017b	68 00 00 00 00	 push	 OFFSET ??_C@_0BI@OIIEJFGC@ChartToolBarSetting?4dat@
  00180	ff 75 9c	 push	 DWORD PTR _strPath$[ebp]
  00183	68 00 00 00 00	 push	 OFFSET ??_C@_05BMGBEOOC@?$CFs?2?$CFs@
  00188	50		 push	 eax
  00189	ff d7		 call	 edi

; 332  : 	//# User Folder
; 333  : 	//strPath = pMainInfoManager->GetEncUserDir();
; 334  : 	strPath = ((CStdDialog*)m_pMultiChartWnd)->m_strUserDir;

  0018b	8b 86 a4 02 00
	00		 mov	 eax, DWORD PTR [esi+676]
  00191	8d 4d 9c	 lea	 ecx, DWORD PTR _strPath$[ebp]
  00194	83 c4 10	 add	 esp, 16			; 00000010H
  00197	05 b4 07 00 00	 add	 eax, 1972		; 000007b4H
  0019c	50		 push	 eax
  0019d	ff 15 00 00 00
	00		 call	 DWORD PTR __imp_??4?$CStringT@DV?$StrTraitMFC_DLL@DV?$ChTraitsCRT@D@ATL@@@@@ATL@@QAEAAV01@ABV01@@Z

; 335  : 	strUserPath.Format("%s\\%s", strPath, "ChartToolBarSetting.dat");	

  001a3	68 00 00 00 00	 push	 OFFSET ??_C@_0BI@OIIEJFGC@ChartToolBarSetting?4dat@
  001a8	ff 75 9c	 push	 DWORD PTR _strPath$[ebp]
  001ab	8d 45 a0	 lea	 eax, DWORD PTR _strUserPath$[ebp]
  001ae	68 00 00 00 00	 push	 OFFSET ??_C@_05BMGBEOOC@?$CFs?2?$CFs@
  001b3	50		 push	 eax
  001b4	ff d7		 call	 edi
  001b6	83 c4 10	 add	 esp, 16			; 00000010H

; 336  : 
; 337  : 	//# Version
; 338  : 	int nUserCnt, nDataCnt, nUserVer, nDataVer;
; 339  : 
; 340  : 	//      - ojtaso (20070827)
; 341  : 	BOOL bUserFile = FileFind.FindFile(strUserPath);

  001b9	8d 8d 6c ff ff
	ff		 lea	 ecx, DWORD PTR _FileFind$[ebp]
  001bf	6a 00		 push	 0
  001c1	ff 75 a0	 push	 DWORD PTR _strUserPath$[ebp]
  001c4	e8 00 00 00 00	 call	 ?FindFile@CFileFind@@UAEHPBDK@Z ; CFileFind::FindFile

; 342  : 	if (!bUserFile)		//# Data 

  001c9	85 c0		 test	 eax, eax
  001cb	75 19		 jne	 SHORT $LN14@ReadIniFil

; 343  : 	{
; 344  : 		strTemp = strConfigPath = strDataPath;		

  001cd	8d 45 ac	 lea	 eax, DWORD PTR _strDataPath$[ebp]
  001d0	50		 push	 eax
  001d1	8d 4d b8	 lea	 ecx, DWORD PTR _strConfigPath$[ebp]
  001d4	ff 15 00 00 00
	00		 call	 DWORD PTR __imp_??4?$CStringT@DV?$StrTraitMFC_DLL@DV?$ChTraitsCRT@D@ATL@@@@@ATL@@QAEAAV01@ABV01@@Z
  001da	50		 push	 eax
  001db	8d 4d 98	 lea	 ecx, DWORD PTR _strTemp$[ebp]
  001de	ff 15 00 00 00
	00		 call	 DWORD PTR __imp_??4?$CStringT@DV?$StrTraitMFC_DLL@DV?$ChTraitsCRT@D@ATL@@@@@ATL@@QAEAAV01@ABV01@@Z

; 345  : 	}

  001e4	eb 7c		 jmp	 SHORT $LN17@ReadIniFil
$LN14@ReadIniFil:

; 346  : 	else										//# User 
; 347  : 	{
; 348  : 		sprintf(szKey,"%s","TOTAL");

  001e6	68 00 00 00 00	 push	 OFFSET ??_C@_05GKHKKECO@TOTAL@
  001eb	8d 45 d0	 lea	 eax, DWORD PTR _szKey$[ebp]
  001ee	68 00 00 00 00	 push	 OFFSET ??_C@_02DKCKIIND@?$CFs@
  001f3	50		 push	 eax
  001f4	e8 00 00 00 00	 call	 _sprintf

; 349  : 		//# Count
; 350  : 		nUserCnt	= ::GetPrivateProfileInt(szKey, "COUNT", -1, strDataPath);

  001f9	8b 3d 00 00 00
	00		 mov	 edi, DWORD PTR __imp__GetPrivateProfileIntA@16
  001ff	8d 45 d0	 lea	 eax, DWORD PTR _szKey$[ebp]
  00202	83 c4 0c	 add	 esp, 12			; 0000000cH
  00205	ff 75 ac	 push	 DWORD PTR _strDataPath$[ebp]
  00208	6a ff		 push	 -1
  0020a	68 00 00 00 00	 push	 OFFSET ??_C@_05EFFCCOAM@COUNT@
  0020f	50		 push	 eax
  00210	ff d7		 call	 edi

; 351  : 		nDataCnt	= ::GetPrivateProfileInt(szKey, "COUNT", -1, strUserPath);

  00212	ff 75 a0	 push	 DWORD PTR _strUserPath$[ebp]
  00215	8d 45 d0	 lea	 eax, DWORD PTR _szKey$[ebp]
  00218	6a ff		 push	 -1
  0021a	68 00 00 00 00	 push	 OFFSET ??_C@_05EFFCCOAM@COUNT@
  0021f	50		 push	 eax
  00220	ff d7		 call	 edi

; 352  : 		//# Version
; 353  : 		nUserVer = ::GetPrivateProfileInt(szKey, "VERSION", -1, strDataPath);	

  00222	ff 75 ac	 push	 DWORD PTR _strDataPath$[ebp]
  00225	8d 45 d0	 lea	 eax, DWORD PTR _szKey$[ebp]
  00228	6a ff		 push	 -1
  0022a	68 00 00 00 00	 push	 OFFSET ??_C@_07NCHCCDCP@VERSION@
  0022f	50		 push	 eax
  00230	ff d7		 call	 edi

; 354  : 		nDataVer = ::GetPrivateProfileInt(szKey, "VERSION", -1, strUserPath);

  00232	ff 75 a0	 push	 DWORD PTR _strUserPath$[ebp]
  00235	8b f8		 mov	 edi, eax
  00237	8d 45 d0	 lea	 eax, DWORD PTR _szKey$[ebp]
  0023a	6a ff		 push	 -1
  0023c	68 00 00 00 00	 push	 OFFSET ??_C@_07NCHCCDCP@VERSION@
  00241	50		 push	 eax
  00242	ff 15 00 00 00
	00		 call	 DWORD PTR __imp__GetPrivateProfileIntA@16

; 355  : 
; 356  : 		if(nUserVer != nDataVer)

  00248	3b f8		 cmp	 edi, eax
  0024a	8d 4d b8	 lea	 ecx, DWORD PTR _strConfigPath$[ebp]

; 357  : 			strConfigPath = strDataPath;

  0024d	8d 45 ac	 lea	 eax, DWORD PTR _strDataPath$[ebp]
  00250	75 03		 jne	 SHORT $LN563@ReadIniFil

; 358  : 		else // 
; 359  : 			strConfigPath = strUserPath;

  00252	8d 45 a0	 lea	 eax, DWORD PTR _strUserPath$[ebp]
$LN563@ReadIniFil:

; 360  : 	}
; 361  : 
; 362  : 	CString szIndex, szColNum, szColInfo, szFieldKey, szFieldName;

  00255	50		 push	 eax
  00256	ff 15 00 00 00
	00		 call	 DWORD PTR __imp_??4?$CStringT@DV?$StrTraitMFC_DLL@DV?$ChTraitsCRT@D@ATL@@@@@ATL@@QAEAAV01@ABV01@@Z
  0025c	8b 3d 00 00 00
	00		 mov	 edi, DWORD PTR __imp_?Format@?$CStringT@DV?$StrTraitMFC_DLL@DV?$ChTraitsCRT@D@ATL@@@@@ATL@@QAAXPBDZZ
$LN17@ReadIniFil:
  00262	8d 4d 8c	 lea	 ecx, DWORD PTR _szIndex$[ebp]
  00265	ff 15 00 00 00
	00		 call	 DWORD PTR __imp_??0?$CStringT@DV?$StrTraitMFC_DLL@DV?$ChTraitsCRT@D@ATL@@@@@ATL@@QAE@XZ
  0026b	8d 4d b4	 lea	 ecx, DWORD PTR _szColNum$[ebp]
  0026e	ff 15 00 00 00
	00		 call	 DWORD PTR __imp_??0?$CStringT@DV?$StrTraitMFC_DLL@DV?$ChTraitsCRT@D@ATL@@@@@ATL@@QAE@XZ
  00274	8d 4d cc	 lea	 ecx, DWORD PTR _szColInfo$[ebp]
  00277	ff 15 00 00 00
	00		 call	 DWORD PTR __imp_??0?$CStringT@DV?$StrTraitMFC_DLL@DV?$ChTraitsCRT@D@ATL@@@@@ATL@@QAE@XZ
  0027d	8d 4d 90	 lea	 ecx, DWORD PTR _szFieldKey$[ebp]
  00280	ff 15 00 00 00
	00		 call	 DWORD PTR __imp_??0?$CStringT@DV?$StrTraitMFC_DLL@DV?$ChTraitsCRT@D@ATL@@@@@ATL@@QAE@XZ
  00286	8d 4d b0	 lea	 ecx, DWORD PTR _szFieldName$[ebp]
  00289	ff 15 00 00 00
	00		 call	 DWORD PTR __imp_??0?$CStringT@DV?$StrTraitMFC_DLL@DV?$ChTraitsCRT@D@ATL@@@@@ATL@@QAE@XZ

; 363  : 	int nColCount, nFieldKey;;
; 364  : 
; 365  : 	//************************************************
; 366  : 	//  
; 367  : 	//************************************************
; 368  : 	sprintf(szKey,"%s","TOTAL LIST");

  0028f	68 00 00 00 00	 push	 OFFSET ??_C@_0L@LGBCNOOM@TOTAL?5LIST@
  00294	8d 45 d0	 lea	 eax, DWORD PTR _szKey$[ebp]
  00297	c6 45 fc 0b	 mov	 BYTE PTR __$EHRec$[ebp+8], 11 ; 0000000bH
  0029b	68 00 00 00 00	 push	 OFFSET ??_C@_02DKCKIIND@?$CFs@
  002a0	50		 push	 eax
  002a1	e8 00 00 00 00	 call	 _sprintf
  002a6	83 c4 0c	 add	 esp, 12			; 0000000cH

; 369  : 	nColCount = ::GetPrivateProfileInt(szKey, "COUNT", -1, strDataPath);

  002a9	8d 45 d0	 lea	 eax, DWORD PTR _szKey$[ebp]
  002ac	ff 75 ac	 push	 DWORD PTR _strDataPath$[ebp]
  002af	6a ff		 push	 -1
  002b1	68 00 00 00 00	 push	 OFFSET ??_C@_05EFFCCOAM@COUNT@
  002b6	50		 push	 eax
  002b7	ff 15 00 00 00
	00		 call	 DWORD PTR __imp__GetPrivateProfileIntA@16
  002bd	8b c8		 mov	 ecx, eax

; 371  : 	for( i=0;i < nColCount; i++)

  002bf	33 c0		 xor	 eax, eax
  002c1	89 4d c4	 mov	 DWORD PTR _nColCount$1$[ebp], ecx
  002c4	89 45 bc	 mov	 DWORD PTR _i$1$[ebp], eax
  002c7	85 c9		 test	 ecx, ecx
  002c9	0f 8e ec 01 00
	00		 jle	 $LN555@ReadIniFil
  002cf	90		 npad	 1
$LL4@ReadIniFil:

; 372  : 	{
; 373  : 		szColNum.Format("%02d", i);

  002d0	50		 push	 eax
  002d1	8d 45 b4	 lea	 eax, DWORD PTR _szColNum$[ebp]
  002d4	68 00 00 00 00	 push	 OFFSET ??_C@_04OGKJMPGK@?$CF02d@
  002d9	50		 push	 eax
  002da	ff d7		 call	 edi
; File C:\Program Files (x86)\Microsoft Visual Studio\2019\Community\VC\Tools\MSVC\14.29.30133\atlmfc\include\atlsimpstr.h

; 377  : 		return( m_pszData );

  002dc	8b 7d b4	 mov	 edi, DWORD PTR _szColNum$[ebp]
; File D:\git\src\IBK\IBK_DRFN\ProjSrc\SrcDrfn\Chart\MULTICHART\DlgToolbar.cpp

; 374  : 		::GetPrivateProfileString(szKey, szColNum, "", szColInfo.GetBuffer(MAX_PATH), MAX_PATH, strDataPath);	

  002df	8d 4d cc	 lea	 ecx, DWORD PTR _szColInfo$[ebp]
  002e2	83 c4 0c	 add	 esp, 12			; 0000000cH
  002e5	ff 75 ac	 push	 DWORD PTR _strDataPath$[ebp]
  002e8	68 04 01 00 00	 push	 260			; 00000104H
  002ed	68 04 01 00 00	 push	 260			; 00000104H
  002f2	ff 15 00 00 00
	00		 call	 DWORD PTR __imp_?GetBuffer@?$CSimpleStringT@D$00@ATL@@QAEPADH@Z
  002f8	50		 push	 eax
  002f9	68 00 00 00 00	 push	 OFFSET ??_C@_00CNPNBAHC@@
  002fe	57		 push	 edi
  002ff	8d 45 d0	 lea	 eax, DWORD PTR _szKey$[ebp]
  00302	50		 push	 eax
  00303	ff 15 00 00 00
	00		 call	 DWORD PTR __imp__GetPrivateProfileStringA@24

; 375  : 		szColInfo.ReleaseBuffer();

  00309	6a ff		 push	 -1
  0030b	8d 4d cc	 lea	 ecx, DWORD PTR _szColInfo$[ebp]
  0030e	ff 15 00 00 00
	00		 call	 DWORD PTR __imp_?ReleaseBuffer@?$CSimpleStringT@D$00@ATL@@QAEXH@Z
; File C:\Program Files (x86)\Microsoft Visual Studio\2019\Community\VC\Tools\MSVC\14.29.30133\atlmfc\include\atlsimpstr.h

; 519  : 		return( GetData()->nDataLength );

  00314	8b 45 cc	 mov	 eax, DWORD PTR _szColInfo$[ebp]
; File D:\git\src\IBK\IBK_DRFN\ProjSrc\SrcDrfn\Chart\MULTICHART\DlgToolbar.cpp

; 377  : 		if (szColInfo.GetLength() == 0)

  00317	83 78 f4 00	 cmp	 DWORD PTR [eax-12], 0
  0031b	0f 84 83 01 00
	00		 je	 $LN2@ReadIniFil

; 378  : 			continue;
; 379  : 
; 380  : 		GetFieldData(szColInfo, nFieldKey, szFieldName);

  00321	8d 45 b0	 lea	 eax, DWORD PTR _szFieldName$[ebp]
  00324	50		 push	 eax
  00325	8d 45 c8	 lea	 eax, DWORD PTR _nFieldKey$[ebp]
  00328	50		 push	 eax
  00329	51		 push	 ecx
  0032a	8d 45 cc	 lea	 eax, DWORD PTR _szColInfo$[ebp]
  0032d	8b cc		 mov	 ecx, esp
  0032f	50		 push	 eax
  00330	ff 15 00 00 00
	00		 call	 DWORD PTR __imp_??0?$CStringT@DV?$StrTraitMFC_DLL@DV?$ChTraitsCRT@D@ATL@@@@@ATL@@QAE@ABV01@@Z
  00336	8b ce		 mov	 ecx, esi
  00338	e8 00 00 00 00	 call	 ?GetFieldData@CDlgToolbar@@IAEXV?$CStringT@DV?$StrTraitMFC_DLL@DV?$ChTraitsCRT@D@ATL@@@@@ATL@@AAHAAV23@@Z ; CDlgToolbar::GetFieldData

; 381  : 
; 382  : 		if(!bReload)

  0033d	83 7d 08 00	 cmp	 DWORD PTR _bReload$[ebp], 0
  00341	0f 85 2e 01 00
	00		 jne	 $LN313@ReadIniFil

; 383  : 			m_mapToolName.SetAt(nFieldKey, szFieldName);

  00347	8d 45 b0	 lea	 eax, DWORD PTR _szFieldName$[ebp]
  0034a	50		 push	 eax
  0034b	8d 4d a8	 lea	 ecx, DWORD PTR $T10[ebp]
  0034e	ff 15 00 00 00
	00		 call	 DWORD PTR __imp_??0?$CStringT@DV?$StrTraitMFC_DLL@DV?$ChTraitsCRT@D@ATL@@@@@ATL@@QAE@ABV01@@Z
  00354	8d be 10 03 00
	00		 lea	 edi, DWORD PTR [esi+784]
; File C:\Program Files (x86)\Microsoft Visual Studio\2019\Community\VC\Tools\MSVC\14.29.30133\atlmfc\include\afxtempl.h

; 1590 : 	if ((pAssoc = GetAssocAt(key, nHashBucket, nHashValue)) == NULL)

  0035a	8d 45 94	 lea	 eax, DWORD PTR _nHashValue$6[ebp]

; 1350 : 	{ (*this)[key] = newValue; }

  0035d	c6 45 fc 0c	 mov	 BYTE PTR __$EHRec$[ebp+8], 12 ; 0000000cH

; 1590 : 	if ((pAssoc = GetAssocAt(key, nHashBucket, nHashValue)) == NULL)

  00361	50		 push	 eax
  00362	8d 45 a4	 lea	 eax, DWORD PTR _nHashBucket$7[ebp]
  00365	8b cf		 mov	 ecx, edi
  00367	50		 push	 eax
  00368	ff 75 c8	 push	 DWORD PTR _nFieldKey$[ebp]
  0036b	e8 00 00 00 00	 call	 ?GetAssocAt@?$CMap@HHV?$CStringT@DV?$StrTraitMFC_DLL@DV?$ChTraitsCRT@D@ATL@@@@@ATL@@V12@@@IBEPAVCAssoc@1@HAAI0@Z ; CMap<int,int,ATL::CStringT<char,StrTraitMFC_DLL<char,ATL::ChTraitsCRT<char> > >,ATL::CStringT<char,StrTraitMFC_DLL<char,ATL::ChTraitsCRT<char> > > >::GetAssocAt
  00370	8b d0		 mov	 edx, eax
  00372	85 d2		 test	 edx, edx
  00374	0f 85 e1 00 00
	00		 jne	 $LN286@ReadIniFil

; 1591 : 	{
; 1592 : 		if (m_pHashTable == NULL)

  0037a	8b 47 04	 mov	 eax, DWORD PTR [edi+4]
  0037d	85 c0		 test	 eax, eax
  0037f	75 4d		 jne	 SHORT $LN565@ReadIniFil

; 1593 : 			InitHashTable(m_nHashTableSize);

  00381	8b 47 08	 mov	 eax, DWORD PTR [edi+8]

; 1434 : 		m_pHashTable = new CAssoc* [nHashSize];

  00384	33 c9		 xor	 ecx, ecx

; 1593 : 			InitHashTable(m_nHashTableSize);

  00386	89 45 c0	 mov	 DWORD PTR _nHashSize$1$[ebp], eax

; 1434 : 		m_pHashTable = new CAssoc* [nHashSize];

  00389	ba 04 00 00 00	 mov	 edx, 4
  0038e	f7 e2		 mul	 edx
  00390	0f 90 c1	 seto	 cl
  00393	f7 d9		 neg	 ecx
  00395	0b c8		 or	 ecx, eax
  00397	51		 push	 ecx
  00398	e8 00 00 00 00	 call	 ??_U@YAPAXI@Z		; operator new[]
  0039d	83 c4 04	 add	 esp, 4
  003a0	89 47 04	 mov	 DWORD PTR [edi+4], eax

; 1435 : 		ENSURE(m_pHashTable != NULL);

  003a3	85 c0		 test	 eax, eax
  003a5	0f 84 83 07 00
	00		 je	 $LN495@ReadIniFil

; 1436 : 		memset(m_pHashTable, 0, sizeof(CAssoc*) * nHashSize);

  003ab	8b 4d c0	 mov	 ecx, DWORD PTR _nHashSize$1$[ebp]
  003ae	c1 e1 02	 shl	 ecx, 2
  003b1	51		 push	 ecx
  003b2	6a 00		 push	 0
  003b4	50		 push	 eax
  003b5	e8 00 00 00 00	 call	 _memset

; 1437 : 	}
; 1438 : 	m_nHashTableSize = nHashSize;

  003ba	8b 45 c0	 mov	 eax, DWORD PTR _nHashSize$1$[ebp]
  003bd	83 c4 0c	 add	 esp, 12			; 0000000cH
  003c0	89 47 08	 mov	 DWORD PTR [edi+8], eax
  003c3	8b 47 04	 mov	 eax, DWORD PTR [edi+4]

; 1595 : 		ENSURE(m_pHashTable);

  003c6	85 c0		 test	 eax, eax
  003c8	0f 84 60 07 00
	00		 je	 $LN495@ReadIniFil
$LN565@ReadIniFil:

; 1481 : 	if (m_pFreeList == NULL)

  003ce	83 7f 10 00	 cmp	 DWORD PTR [edi+16], 0
  003d2	75 31		 jne	 SHORT $LN305@ReadIniFil

; 1482 : 	{
; 1483 : 		// add another block
; 1484 : 		CPlex* newBlock = CPlex::Create(m_pBlocks, m_nBlockSize, sizeof(CMap::CAssoc));

  003d4	6a 10		 push	 16			; 00000010H
  003d6	ff 77 18	 push	 DWORD PTR [edi+24]
  003d9	8d 47 14	 lea	 eax, DWORD PTR [edi+20]
  003dc	50		 push	 eax
  003dd	e8 00 00 00 00	 call	 ?Create@CPlex@@SGPAU1@AAPAU1@II@Z ; CPlex::Create

; 1485 : 		// chain them into free list
; 1486 : 		CMap::CAssoc* pAssoc = (CMap::CAssoc*) newBlock->data();
; 1487 : 		// free in reverse order to make it easier to debug
; 1488 : 		pAssoc += m_nBlockSize - 1;

  003e2	8b 57 18	 mov	 edx, DWORD PTR [edi+24]
  003e5	8b ca		 mov	 ecx, edx
  003e7	c1 e1 04	 shl	 ecx, 4
  003ea	83 c1 f8	 add	 ecx, -8			; fffffff8H
  003ed	03 c8		 add	 ecx, eax

; 1489 : 		for (INT_PTR i = m_nBlockSize-1; i >= 0; i--, pAssoc--)

  003ef	83 c2 ff	 add	 edx, -1
  003f2	78 11		 js	 SHORT $LN305@ReadIniFil
$LL302@ReadIniFil:

; 1490 : 		{
; 1491 : 			pAssoc->pNext = m_pFreeList;

  003f4	8b 47 10	 mov	 eax, DWORD PTR [edi+16]
  003f7	89 41 08	 mov	 DWORD PTR [ecx+8], eax

; 1492 : 			m_pFreeList = pAssoc;

  003fa	89 4f 10	 mov	 DWORD PTR [edi+16], ecx
  003fd	83 e9 10	 sub	 ecx, 16			; 00000010H
  00400	83 ea 01	 sub	 edx, 1
  00403	79 ef		 jns	 SHORT $LL302@ReadIniFil
$LN305@ReadIniFil:

; 1493 : 		}
; 1494 : 	}
; 1495 : 	ENSURE(m_pFreeList != NULL);  // we must have something

  00405	8b 4f 10	 mov	 ecx, DWORD PTR [edi+16]
  00408	89 4d c0	 mov	 DWORD PTR _pAssoc$1$[ebp], ecx
  0040b	85 c9		 test	 ecx, ecx
  0040d	0f 84 1b 07 00
	00		 je	 $LN495@ReadIniFil

; 1496 : 
; 1497 : 	CMap::CAssoc* pAssoc = m_pFreeList;
; 1498 : 
; 1499 : 	// zero the memory
; 1500 : 	CMap::CAssoc* pTemp = pAssoc->pNext;

  00413	8b 41 08	 mov	 eax, DWORD PTR [ecx+8]
  00416	0f 57 c0	 xorps	 xmm0, xmm0

; 1501 : 	memset( pAssoc, 0, sizeof(CMap::CAssoc) );

  00419	0f 11 01	 movups	 XMMWORD PTR [ecx], xmm0

; 1502 : 	pAssoc->pNext = pTemp;

  0041c	89 41 08	 mov	 DWORD PTR [ecx+8], eax

; 1503 : 
; 1504 : 	m_pFreeList = m_pFreeList->pNext;

  0041f	8b 47 10	 mov	 eax, DWORD PTR [edi+16]
  00422	8b 40 08	 mov	 eax, DWORD PTR [eax+8]

; 1505 : 	m_nCount++;

  00425	ff 47 0c	 inc	 DWORD PTR [edi+12]
  00428	89 47 10	 mov	 DWORD PTR [edi+16], eax

; 1256 : 		CPair( ARG_KEY keyval ) : key( keyval )	{}

  0042b	8b 45 c8	 mov	 eax, DWORD PTR _nFieldKey$[ebp]
  0042e	89 01		 mov	 DWORD PTR [ecx], eax
  00430	83 c1 04	 add	 ecx, 4
  00433	ff 15 00 00 00
	00		 call	 DWORD PTR __imp_??0?$CStringT@DV?$StrTraitMFC_DLL@DV?$ChTraitsCRT@D@ATL@@@@@ATL@@QAE@XZ

; 1598 : 		pAssoc->nHashValue = nHashValue;

  00439	8b 55 c0	 mov	 edx, DWORD PTR _pAssoc$1$[ebp]
  0043c	8b 45 94	 mov	 eax, DWORD PTR _nHashValue$6[ebp]
  0043f	89 42 0c	 mov	 DWORD PTR [edx+12], eax

; 1599 : 		//'pAssoc->value' is a constructed object, nothing more
; 1600 : 
; 1601 : 		// put into hash table
; 1602 : 		pAssoc->pNext = m_pHashTable[nHashBucket];

  00442	8b 45 a4	 mov	 eax, DWORD PTR _nHashBucket$7[ebp]
  00445	8d 0c 85 00 00
	00 00		 lea	 ecx, DWORD PTR [eax*4]
  0044c	8b 47 04	 mov	 eax, DWORD PTR [edi+4]
  0044f	8b 04 01	 mov	 eax, DWORD PTR [ecx+eax]
  00452	89 42 08	 mov	 DWORD PTR [edx+8], eax

; 1603 : 		m_pHashTable[nHashBucket] = pAssoc;

  00455	8b 47 04	 mov	 eax, DWORD PTR [edi+4]
  00458	89 14 01	 mov	 DWORD PTR [ecx+eax], edx
$LN286@ReadIniFil:

; 1350 : 	{ (*this)[key] = newValue; }

  0045b	8d 45 a8	 lea	 eax, DWORD PTR $T10[ebp]

; 1605 : 	return pAssoc->value;  // return new reference

  0045e	8d 4a 04	 lea	 ecx, DWORD PTR [edx+4]

; 1350 : 	{ (*this)[key] = newValue; }

  00461	50		 push	 eax
  00462	ff 15 00 00 00
	00		 call	 DWORD PTR __imp_??4?$CStringT@DV?$StrTraitMFC_DLL@DV?$ChTraitsCRT@D@ATL@@@@@ATL@@QAEAAV01@ABV01@@Z
  00468	8d 4d a8	 lea	 ecx, DWORD PTR $T10[ebp]
  0046b	c6 45 fc 0b	 mov	 BYTE PTR __$EHRec$[ebp+8], 11 ; 0000000bH
  0046f	ff 15 00 00 00
	00		 call	 DWORD PTR __imp_??1?$CStringT@DV?$StrTraitMFC_DLL@DV?$ChTraitsCRT@D@ATL@@@@@ATL@@QAE@XZ
$LN313@ReadIniFil:

; 333  : 	{ INT_PTR nIndex = m_nSize;

  00475	8b 86 c8 02 00
	00		 mov	 eax, DWORD PTR [esi+712]
  0047b	89 45 c0	 mov	 DWORD PTR _nIndex$1$[ebp], eax

; 538  : 	if(nIndex < 0)

  0047e	85 c0		 test	 eax, eax
  00480	0f 88 a8 06 00
	00		 js	 $LN495@ReadIniFil

; 539  : 		AfxThrowInvalidArgException();
; 540  : 
; 541  : 	if (nIndex >= m_nSize)
; 542  : 		SetSize(nIndex+1, -1);

  00486	6a ff		 push	 -1
  00488	40		 inc	 eax
  00489	8d 8e c0 02 00
	00		 lea	 ecx, DWORD PTR [esi+704]
  0048f	50		 push	 eax
  00490	e8 00 00 00 00	 call	 ?SetSize@?$CArray@HH@@QAEXHH@Z ; CArray<int,int>::SetSize

; 543  : 	m_pData[nIndex] = newElement;

  00495	8b 86 c4 02 00
	00		 mov	 eax, DWORD PTR [esi+708]
  0049b	8b 4d c0	 mov	 ecx, DWORD PTR _nIndex$1$[ebp]
  0049e	8b 55 c8	 mov	 edx, DWORD PTR _nFieldKey$[ebp]
  004a1	89 14 88	 mov	 DWORD PTR [eax+ecx*4], edx
$LN2@ReadIniFil:
; File D:\git\src\IBK\IBK_DRFN\ProjSrc\SrcDrfn\Chart\MULTICHART\DlgToolbar.cpp

; 371  : 	for( i=0;i < nColCount; i++)

  004a4	8b 45 bc	 mov	 eax, DWORD PTR _i$1$[ebp]
  004a7	40		 inc	 eax
  004a8	89 45 bc	 mov	 DWORD PTR _i$1$[ebp], eax
  004ab	3b 45 c4	 cmp	 eax, DWORD PTR _nColCount$1$[ebp]
  004ae	7d 0b		 jge	 SHORT $LN555@ReadIniFil
  004b0	8b 3d 00 00 00
	00		 mov	 edi, DWORD PTR __imp_?Format@?$CStringT@DV?$StrTraitMFC_DLL@DV?$ChTraitsCRT@D@ATL@@@@@ATL@@QAAXPBDZZ
  004b6	e9 15 fe ff ff	 jmp	 $LL4@ReadIniFil
$LN555@ReadIniFil:

; 384  : 		m_arrayTotalIdx.Add(nFieldKey);
; 385  : 	}
; 386  : 
; 387  : 	//************************************************
; 388  : 	//  
; 389  : 	//************************************************
; 390  : 	sprintf(szKey,"%s","ANAL LIST");

  004bb	68 00 00 00 00	 push	 OFFSET ??_C@_09NBFPFBIM@ANAL?5LIST@
  004c0	8d 45 d0	 lea	 eax, DWORD PTR _szKey$[ebp]
  004c3	68 00 00 00 00	 push	 OFFSET ??_C@_02DKCKIIND@?$CFs@
  004c8	50		 push	 eax
  004c9	e8 00 00 00 00	 call	 _sprintf
  004ce	83 c4 0c	 add	 esp, 12			; 0000000cH

; 391  : 	nColCount = ::GetPrivateProfileInt(szKey, "COUNT", -1, strConfigPath);

  004d1	8d 45 d0	 lea	 eax, DWORD PTR _szKey$[ebp]
  004d4	ff 75 b8	 push	 DWORD PTR _strConfigPath$[ebp]
  004d7	6a ff		 push	 -1
  004d9	68 00 00 00 00	 push	 OFFSET ??_C@_05EFFCCOAM@COUNT@
  004de	50		 push	 eax
  004df	ff 15 00 00 00
	00		 call	 DWORD PTR __imp__GetPrivateProfileIntA@16
  004e5	8b c8		 mov	 ecx, eax

; 393  : 	for(i=0;i < nColCount; i++)

  004e7	33 c0		 xor	 eax, eax
  004e9	89 4d a4	 mov	 DWORD PTR _nColCount$2$[ebp], ecx
  004ec	89 45 c0	 mov	 DWORD PTR _i$2$[ebp], eax
  004ef	85 c9		 test	 ecx, ecx
  004f1	0f 8e 44 02 00
	00		 jle	 $LN557@ReadIniFil
$LL7@ReadIniFil:

; 394  : 	{
; 395  : 		szColNum.Format("%02d", i);

  004f7	50		 push	 eax
  004f8	8d 45 b4	 lea	 eax, DWORD PTR _szColNum$[ebp]
  004fb	68 00 00 00 00	 push	 OFFSET ??_C@_04OGKJMPGK@?$CF02d@
  00500	50		 push	 eax
  00501	ff 15 00 00 00
	00		 call	 DWORD PTR __imp_?Format@?$CStringT@DV?$StrTraitMFC_DLL@DV?$ChTraitsCRT@D@ATL@@@@@ATL@@QAAXPBDZZ
; File C:\Program Files (x86)\Microsoft Visual Studio\2019\Community\VC\Tools\MSVC\14.29.30133\atlmfc\include\atlsimpstr.h

; 377  : 		return( m_pszData );

  00507	8b 7d b4	 mov	 edi, DWORD PTR _szColNum$[ebp]
; File D:\git\src\IBK\IBK_DRFN\ProjSrc\SrcDrfn\Chart\MULTICHART\DlgToolbar.cpp

; 396  : 		::GetPrivateProfileString(szKey, szColNum, "", szColInfo.GetBuffer(MAX_PATH), MAX_PATH, strConfigPath);	

  0050a	8d 4d cc	 lea	 ecx, DWORD PTR _szColInfo$[ebp]
  0050d	83 c4 0c	 add	 esp, 12			; 0000000cH
  00510	ff 75 b8	 push	 DWORD PTR _strConfigPath$[ebp]
  00513	68 04 01 00 00	 push	 260			; 00000104H
  00518	68 04 01 00 00	 push	 260			; 00000104H
  0051d	ff 15 00 00 00
	00		 call	 DWORD PTR __imp_?GetBuffer@?$CSimpleStringT@D$00@ATL@@QAEPADH@Z
  00523	50		 push	 eax
  00524	68 00 00 00 00	 push	 OFFSET ??_C@_00CNPNBAHC@@
  00529	57		 push	 edi
  0052a	8d 45 d0	 lea	 eax, DWORD PTR _szKey$[ebp]
  0052d	50		 push	 eax
  0052e	ff 15 00 00 00
	00		 call	 DWORD PTR __imp__GetPrivateProfileStringA@24

; 397  : 		szColInfo.ReleaseBuffer();

  00534	6a ff		 push	 -1
  00536	8d 4d cc	 lea	 ecx, DWORD PTR _szColInfo$[ebp]
  00539	ff 15 00 00 00
	00		 call	 DWORD PTR __imp_?ReleaseBuffer@?$CSimpleStringT@D$00@ATL@@QAEXH@Z
; File C:\Program Files (x86)\Microsoft Visual Studio\2019\Community\VC\Tools\MSVC\14.29.30133\atlmfc\include\atlsimpstr.h

; 519  : 		return( GetData()->nDataLength );

  0053f	8b 45 cc	 mov	 eax, DWORD PTR _szColInfo$[ebp]
; File D:\git\src\IBK\IBK_DRFN\ProjSrc\SrcDrfn\Chart\MULTICHART\DlgToolbar.cpp

; 399  : 		if (szColInfo.GetLength() == 0)

  00542	83 78 f4 00	 cmp	 DWORD PTR [eax-12], 0
  00546	0f 84 df 01 00
	00		 je	 $LN5@ReadIniFil

; 400  : 			continue;
; 401  : 
; 402  : 		GetFieldData(szColInfo, nFieldKey, szFieldName);

  0054c	8d 45 b0	 lea	 eax, DWORD PTR _szFieldName$[ebp]
  0054f	50		 push	 eax
  00550	8d 45 c8	 lea	 eax, DWORD PTR _nFieldKey$[ebp]
  00553	50		 push	 eax
  00554	51		 push	 ecx
  00555	8d 45 cc	 lea	 eax, DWORD PTR _szColInfo$[ebp]
  00558	8b cc		 mov	 ecx, esp
  0055a	50		 push	 eax
  0055b	ff 15 00 00 00
	00		 call	 DWORD PTR __imp_??0?$CStringT@DV?$StrTraitMFC_DLL@DV?$ChTraitsCRT@D@ATL@@@@@ATL@@QAE@ABV01@@Z
  00561	8b ce		 mov	 ecx, esi
  00563	e8 00 00 00 00	 call	 ?GetFieldData@CDlgToolbar@@IAEXV?$CStringT@DV?$StrTraitMFC_DLL@DV?$ChTraitsCRT@D@ATL@@@@@ATL@@AAHAAV23@@Z ; CDlgToolbar::GetFieldData

; 403  : 
; 404  : 		if(!bReload)

  00568	83 7d 08 00	 cmp	 DWORD PTR _bReload$[ebp], 0
  0056c	0f 85 8a 01 00
	00		 jne	 $LN384@ReadIniFil

; 405  : 			m_mapToolName.SetAt(nFieldKey, szFieldName);

  00572	8d 45 b0	 lea	 eax, DWORD PTR _szFieldName$[ebp]
  00575	50		 push	 eax
  00576	8d 4d a8	 lea	 ecx, DWORD PTR $T9[ebp]
  00579	ff 15 00 00 00
	00		 call	 DWORD PTR __imp_??0?$CStringT@DV?$StrTraitMFC_DLL@DV?$ChTraitsCRT@D@ATL@@@@@ATL@@QAE@ABV01@@Z
; File C:\Program Files (x86)\Microsoft Visual Studio\2019\Community\VC\Tools\MSVC\14.29.30133\atlmfc\include\afxtempl.h

; 165  : 	ldiv_t HashVal = ldiv((long)(ARG_KEY)key, 127773);

  0057f	8b 45 c8	 mov	 eax, DWORD PTR _nFieldKey$[ebp]
  00582	b9 1d f3 01 00	 mov	 ecx, 127773		; 0001f31dH
  00587	99		 cdq
  00588	f7 f9		 idiv	 ecx

; 1534 : 	nHashBucket = nHashValue % m_nHashTableSize;

  0058a	8b be 18 03 00
	00		 mov	 edi, DWORD PTR [esi+792]

; 166  : 	HashVal.rem = 16807 * HashVal.rem - 2836 * HashVal.quot;

  00590	69 c0 14 0b 00
	00		 imul	 eax, eax, 2836
  00596	69 ca a7 41 00
	00		 imul	 ecx, edx, 16807

; 1350 : 	{ (*this)[key] = newValue; }

  0059c	c6 45 fc 0d	 mov	 BYTE PTR __$EHRec$[ebp+8], 13 ; 0000000dH

; 166  : 	HashVal.rem = 16807 * HashVal.rem - 2836 * HashVal.quot;

  005a0	2b c8		 sub	 ecx, eax

; 1534 : 	nHashBucket = nHashValue % m_nHashTableSize;

  005a2	8d 81 ff ff ff
	7f		 lea	 eax, DWORD PTR [ecx+2147483647]
  005a8	0f 49 c1	 cmovns	 eax, ecx
  005ab	33 d2		 xor	 edx, edx
  005ad	89 45 bc	 mov	 DWORD PTR tv3010[ebp], eax
  005b0	f7 f7		 div	 edi

; 1535 : 
; 1536 : 	if (m_pHashTable == NULL)

  005b2	8b 86 14 03 00
	00		 mov	 eax, DWORD PTR [esi+788]
  005b8	8b ca		 mov	 ecx, edx
  005ba	89 4d c4	 mov	 DWORD PTR _nHashBucket$1$[ebp], ecx
  005bd	85 c0		 test	 eax, eax
  005bf	75 51		 jne	 SHORT $LN346@ReadIniFil

; 1434 : 		m_pHashTable = new CAssoc* [nHashSize];

  005c1	33 c9		 xor	 ecx, ecx
  005c3	8b c7		 mov	 eax, edi
  005c5	ba 04 00 00 00	 mov	 edx, 4
  005ca	f7 e2		 mul	 edx
  005cc	0f 90 c1	 seto	 cl
  005cf	f7 d9		 neg	 ecx
  005d1	0b c8		 or	 ecx, eax
  005d3	51		 push	 ecx
  005d4	e8 00 00 00 00	 call	 ??_U@YAPAXI@Z		; operator new[]
  005d9	83 c4 04	 add	 esp, 4
  005dc	89 86 14 03 00
	00		 mov	 DWORD PTR [esi+788], eax

; 1435 : 		ENSURE(m_pHashTable != NULL);

  005e2	85 c0		 test	 eax, eax
  005e4	0f 84 44 05 00
	00		 je	 $LN495@ReadIniFil

; 1436 : 		memset(m_pHashTable, 0, sizeof(CAssoc*) * nHashSize);

  005ea	8d 0c bd 00 00
	00 00		 lea	 ecx, DWORD PTR [edi*4]
  005f1	51		 push	 ecx
  005f2	6a 00		 push	 0
  005f4	50		 push	 eax
  005f5	e8 00 00 00 00	 call	 _memset
  005fa	83 c4 0c	 add	 esp, 12			; 0000000cH

; 1437 : 	}
; 1438 : 	m_nHashTableSize = nHashSize;

  005fd	89 be 18 03 00
	00		 mov	 DWORD PTR [esi+792], edi

; 1595 : 		ENSURE(m_pHashTable);

  00603	83 be 14 03 00
	00 00		 cmp	 DWORD PTR [esi+788], 0
  0060a	0f 84 1e 05 00
	00		 je	 $LN495@ReadIniFil
  00610	eb 25		 jmp	 SHORT $LN556@ReadIniFil
$LN346@ReadIniFil:

; 1541 : 	for (pAssoc = m_pHashTable[nHashBucket]; pAssoc != NULL; pAssoc = pAssoc->pNext)

  00612	8b 3c 88	 mov	 edi, DWORD PTR [eax+ecx*4]
  00615	85 ff		 test	 edi, edi
  00617	74 1e		 je	 SHORT $LN556@ReadIniFil
  00619	8b 4d bc	 mov	 ecx, DWORD PTR tv3010[ebp]
  0061c	0f 1f 40 00	 npad	 4
$LL345@ReadIniFil:

; 1542 : 	{
; 1543 : 		if (pAssoc->nHashValue == nHashValue && CompareElements(&pAssoc->key, &key))

  00620	39 4f 0c	 cmp	 DWORD PTR [edi+12], ecx
  00623	75 0b		 jne	 SHORT $LN343@ReadIniFil
  00625	8b 45 c8	 mov	 eax, DWORD PTR _nFieldKey$[ebp]
  00628	39 07		 cmp	 DWORD PTR [edi], eax
  0062a	0f 84 b2 00 00
	00		 je	 $LN338@ReadIniFil
$LN343@ReadIniFil:

; 1537 : 		return NULL;
; 1538 : 
; 1539 : 	// see if it exists
; 1540 : 	CAssoc* pAssoc;
; 1541 : 	for (pAssoc = m_pHashTable[nHashBucket]; pAssoc != NULL; pAssoc = pAssoc->pNext)

  00630	8b 7f 08	 mov	 edi, DWORD PTR [edi+8]
  00633	85 ff		 test	 edi, edi
  00635	75 e9		 jne	 SHORT $LL345@ReadIniFil
$LN556@ReadIniFil:

; 1481 : 	if (m_pFreeList == NULL)

  00637	83 be 20 03 00
	00 00		 cmp	 DWORD PTR [esi+800], 0
  0063e	75 47		 jne	 SHORT $LN376@ReadIniFil

; 1482 : 	{
; 1483 : 		// add another block
; 1484 : 		CPlex* newBlock = CPlex::Create(m_pBlocks, m_nBlockSize, sizeof(CMap::CAssoc));

  00640	6a 10		 push	 16			; 00000010H
  00642	ff b6 28 03 00
	00		 push	 DWORD PTR [esi+808]
  00648	8d 86 24 03 00
	00		 lea	 eax, DWORD PTR [esi+804]
  0064e	50		 push	 eax
  0064f	e8 00 00 00 00	 call	 ?Create@CPlex@@SGPAU1@AAPAU1@II@Z ; CPlex::Create

; 1485 : 		// chain them into free list
; 1486 : 		CMap::CAssoc* pAssoc = (CMap::CAssoc*) newBlock->data();
; 1487 : 		// free in reverse order to make it easier to debug
; 1488 : 		pAssoc += m_nBlockSize - 1;

  00654	8b 96 28 03 00
	00		 mov	 edx, DWORD PTR [esi+808]
  0065a	8b ca		 mov	 ecx, edx
  0065c	c1 e1 04	 shl	 ecx, 4
  0065f	83 c1 f8	 add	 ecx, -8			; fffffff8H
  00662	03 c8		 add	 ecx, eax

; 1489 : 		for (INT_PTR i = m_nBlockSize-1; i >= 0; i--, pAssoc--)

  00664	83 c2 ff	 add	 edx, -1
  00667	78 1e		 js	 SHORT $LN376@ReadIniFil
  00669	0f 1f 80 00 00
	00 00		 npad	 7
$LL373@ReadIniFil:

; 1490 : 		{
; 1491 : 			pAssoc->pNext = m_pFreeList;

  00670	8b 86 20 03 00
	00		 mov	 eax, DWORD PTR [esi+800]
  00676	89 41 08	 mov	 DWORD PTR [ecx+8], eax

; 1492 : 			m_pFreeList = pAssoc;

  00679	89 8e 20 03 00
	00		 mov	 DWORD PTR [esi+800], ecx
  0067f	83 e9 10	 sub	 ecx, 16			; 00000010H
  00682	83 ea 01	 sub	 edx, 1
  00685	79 e9		 jns	 SHORT $LL373@ReadIniFil
$LN376@ReadIniFil:

; 1493 : 		}
; 1494 : 	}
; 1495 : 	ENSURE(m_pFreeList != NULL);  // we must have something

  00687	8b be 20 03 00
	00		 mov	 edi, DWORD PTR [esi+800]
  0068d	85 ff		 test	 edi, edi
  0068f	0f 84 99 04 00
	00		 je	 $LN495@ReadIniFil

; 1496 : 
; 1497 : 	CMap::CAssoc* pAssoc = m_pFreeList;
; 1498 : 
; 1499 : 	// zero the memory
; 1500 : 	CMap::CAssoc* pTemp = pAssoc->pNext;

  00695	8b 47 08	 mov	 eax, DWORD PTR [edi+8]

; 1256 : 		CPair( ARG_KEY keyval ) : key( keyval )	{}

  00698	8d 4f 04	 lea	 ecx, DWORD PTR [edi+4]
  0069b	0f 57 c0	 xorps	 xmm0, xmm0

; 1501 : 	memset( pAssoc, 0, sizeof(CMap::CAssoc) );

  0069e	0f 11 07	 movups	 XMMWORD PTR [edi], xmm0

; 1502 : 	pAssoc->pNext = pTemp;

  006a1	89 47 08	 mov	 DWORD PTR [edi+8], eax

; 1503 : 
; 1504 : 	m_pFreeList = m_pFreeList->pNext;

  006a4	8b 86 20 03 00
	00		 mov	 eax, DWORD PTR [esi+800]
  006aa	8b 40 08	 mov	 eax, DWORD PTR [eax+8]

; 1505 : 	m_nCount++;

  006ad	ff 86 1c 03 00
	00		 inc	 DWORD PTR [esi+796]
  006b3	89 86 20 03 00
	00		 mov	 DWORD PTR [esi+800], eax

; 1256 : 		CPair( ARG_KEY keyval ) : key( keyval )	{}

  006b9	8b 45 c8	 mov	 eax, DWORD PTR _nFieldKey$[ebp]
  006bc	89 07		 mov	 DWORD PTR [edi], eax
  006be	ff 15 00 00 00
	00		 call	 DWORD PTR __imp_??0?$CStringT@DV?$StrTraitMFC_DLL@DV?$ChTraitsCRT@D@ATL@@@@@ATL@@QAE@XZ

; 1598 : 		pAssoc->nHashValue = nHashValue;

  006c4	8b 45 bc	 mov	 eax, DWORD PTR tv3010[ebp]

; 1599 : 		//'pAssoc->value' is a constructed object, nothing more
; 1600 : 
; 1601 : 		// put into hash table
; 1602 : 		pAssoc->pNext = m_pHashTable[nHashBucket];

  006c7	8b 4d c4	 mov	 ecx, DWORD PTR _nHashBucket$1$[ebp]
  006ca	89 47 0c	 mov	 DWORD PTR [edi+12], eax
  006cd	8b 86 14 03 00
	00		 mov	 eax, DWORD PTR [esi+788]
  006d3	8b 04 88	 mov	 eax, DWORD PTR [eax+ecx*4]
  006d6	89 47 08	 mov	 DWORD PTR [edi+8], eax

; 1603 : 		m_pHashTable[nHashBucket] = pAssoc;

  006d9	8b 86 14 03 00
	00		 mov	 eax, DWORD PTR [esi+788]
  006df	89 3c 88	 mov	 DWORD PTR [eax+ecx*4], edi
$LN338@ReadIniFil:

; 1350 : 	{ (*this)[key] = newValue; }

  006e2	8d 45 a8	 lea	 eax, DWORD PTR $T9[ebp]

; 1605 : 	return pAssoc->value;  // return new reference

  006e5	8d 4f 04	 lea	 ecx, DWORD PTR [edi+4]

; 1350 : 	{ (*this)[key] = newValue; }

  006e8	50		 push	 eax
  006e9	ff 15 00 00 00
	00		 call	 DWORD PTR __imp_??4?$CStringT@DV?$StrTraitMFC_DLL@DV?$ChTraitsCRT@D@ATL@@@@@ATL@@QAEAAV01@ABV01@@Z
  006ef	8d 4d a8	 lea	 ecx, DWORD PTR $T9[ebp]
  006f2	c6 45 fc 0b	 mov	 BYTE PTR __$EHRec$[ebp+8], 11 ; 0000000bH
  006f6	ff 15 00 00 00
	00		 call	 DWORD PTR __imp_??1?$CStringT@DV?$StrTraitMFC_DLL@DV?$ChTraitsCRT@D@ATL@@@@@ATL@@QAE@XZ
$LN384@ReadIniFil:

; 333  : 	{ INT_PTR nIndex = m_nSize;

  006fc	8b 86 dc 02 00
	00		 mov	 eax, DWORD PTR [esi+732]
  00702	89 45 c4	 mov	 DWORD PTR _nIndex$1$[ebp], eax

; 538  : 	if(nIndex < 0)

  00705	85 c0		 test	 eax, eax
  00707	0f 88 21 04 00
	00		 js	 $LN495@ReadIniFil

; 539  : 		AfxThrowInvalidArgException();
; 540  : 
; 541  : 	if (nIndex >= m_nSize)
; 542  : 		SetSize(nIndex+1, -1);

  0070d	6a ff		 push	 -1
  0070f	40		 inc	 eax
  00710	8d 8e d4 02 00
	00		 lea	 ecx, DWORD PTR [esi+724]
  00716	50		 push	 eax
  00717	e8 00 00 00 00	 call	 ?SetSize@?$CArray@HH@@QAEXHH@Z ; CArray<int,int>::SetSize

; 543  : 	m_pData[nIndex] = newElement;

  0071c	8b 86 d8 02 00
	00		 mov	 eax, DWORD PTR [esi+728]
  00722	8b 55 c4	 mov	 edx, DWORD PTR _nIndex$1$[ebp]
  00725	8b 4d c8	 mov	 ecx, DWORD PTR _nFieldKey$[ebp]
  00728	89 0c 90	 mov	 DWORD PTR [eax+edx*4], ecx
$LN5@ReadIniFil:
; File D:\git\src\IBK\IBK_DRFN\ProjSrc\SrcDrfn\Chart\MULTICHART\DlgToolbar.cpp

; 393  : 	for(i=0;i < nColCount; i++)

  0072b	8b 45 c0	 mov	 eax, DWORD PTR _i$2$[ebp]
  0072e	40		 inc	 eax
  0072f	89 45 c0	 mov	 DWORD PTR _i$2$[ebp], eax
  00732	3b 45 a4	 cmp	 eax, DWORD PTR _nColCount$2$[ebp]
  00735	0f 8c bc fd ff
	ff		 jl	 $LL7@ReadIniFil
$LN557@ReadIniFil:

; 406  : 		m_arrayAnalIdx.Add(nFieldKey);
; 407  : 	}
; 408  : 	
; 409  : 		
; 410  : 	sprintf(szKey,"%s","ADDITION LIST");

  0073b	68 00 00 00 00	 push	 OFFSET ??_C@_0O@PLHPCCBM@ADDITION?5LIST@
  00740	8d 45 d0	 lea	 eax, DWORD PTR _szKey$[ebp]
  00743	68 00 00 00 00	 push	 OFFSET ??_C@_02DKCKIIND@?$CFs@
  00748	50		 push	 eax
  00749	e8 00 00 00 00	 call	 _sprintf
  0074e	83 c4 0c	 add	 esp, 12			; 0000000cH

; 411  : 	nColCount = ::GetPrivateProfileInt(szKey, "COUNT", -1, strConfigPath);

  00751	8d 45 d0	 lea	 eax, DWORD PTR _szKey$[ebp]
  00754	ff 75 b8	 push	 DWORD PTR _strConfigPath$[ebp]
  00757	6a ff		 push	 -1
  00759	68 00 00 00 00	 push	 OFFSET ??_C@_05EFFCCOAM@COUNT@
  0075e	50		 push	 eax
  0075f	ff 15 00 00 00
	00		 call	 DWORD PTR __imp__GetPrivateProfileIntA@16
  00765	8b c8		 mov	 ecx, eax

; 413  : 	for(i=0;i < nColCount; i++)

  00767	33 c0		 xor	 eax, eax
  00769	89 4d a4	 mov	 DWORD PTR _nColCount$3$[ebp], ecx
  0076c	89 45 c0	 mov	 DWORD PTR _i$3$[ebp], eax
  0076f	85 c9		 test	 ecx, ecx
  00771	0f 8e 44 02 00
	00		 jle	 $LN559@ReadIniFil
$LL10@ReadIniFil:

; 414  : 	{
; 415  : 		szColNum.Format("%02d", i);

  00777	50		 push	 eax
  00778	8d 45 b4	 lea	 eax, DWORD PTR _szColNum$[ebp]
  0077b	68 00 00 00 00	 push	 OFFSET ??_C@_04OGKJMPGK@?$CF02d@
  00780	50		 push	 eax
  00781	ff 15 00 00 00
	00		 call	 DWORD PTR __imp_?Format@?$CStringT@DV?$StrTraitMFC_DLL@DV?$ChTraitsCRT@D@ATL@@@@@ATL@@QAAXPBDZZ
; File C:\Program Files (x86)\Microsoft Visual Studio\2019\Community\VC\Tools\MSVC\14.29.30133\atlmfc\include\atlsimpstr.h

; 377  : 		return( m_pszData );

  00787	8b 7d b4	 mov	 edi, DWORD PTR _szColNum$[ebp]
; File D:\git\src\IBK\IBK_DRFN\ProjSrc\SrcDrfn\Chart\MULTICHART\DlgToolbar.cpp

; 416  : 		::GetPrivateProfileString(szKey, szColNum, "", szColInfo.GetBuffer(MAX_PATH), MAX_PATH, strConfigPath);	

  0078a	8d 4d cc	 lea	 ecx, DWORD PTR _szColInfo$[ebp]
  0078d	83 c4 0c	 add	 esp, 12			; 0000000cH
  00790	ff 75 b8	 push	 DWORD PTR _strConfigPath$[ebp]
  00793	68 04 01 00 00	 push	 260			; 00000104H
  00798	68 04 01 00 00	 push	 260			; 00000104H
  0079d	ff 15 00 00 00
	00		 call	 DWORD PTR __imp_?GetBuffer@?$CSimpleStringT@D$00@ATL@@QAEPADH@Z
  007a3	50		 push	 eax
  007a4	68 00 00 00 00	 push	 OFFSET ??_C@_00CNPNBAHC@@
  007a9	57		 push	 edi
  007aa	8d 45 d0	 lea	 eax, DWORD PTR _szKey$[ebp]
  007ad	50		 push	 eax
  007ae	ff 15 00 00 00
	00		 call	 DWORD PTR __imp__GetPrivateProfileStringA@24

; 417  : 		szColInfo.ReleaseBuffer();

  007b4	6a ff		 push	 -1
  007b6	8d 4d cc	 lea	 ecx, DWORD PTR _szColInfo$[ebp]
  007b9	ff 15 00 00 00
	00		 call	 DWORD PTR __imp_?ReleaseBuffer@?$CSimpleStringT@D$00@ATL@@QAEXH@Z
; File C:\Program Files (x86)\Microsoft Visual Studio\2019\Community\VC\Tools\MSVC\14.29.30133\atlmfc\include\atlsimpstr.h

; 519  : 		return( GetData()->nDataLength );

  007bf	8b 45 cc	 mov	 eax, DWORD PTR _szColInfo$[ebp]
; File D:\git\src\IBK\IBK_DRFN\ProjSrc\SrcDrfn\Chart\MULTICHART\DlgToolbar.cpp

; 419  : 		if (szColInfo.GetLength() == 0)

  007c2	83 78 f4 00	 cmp	 DWORD PTR [eax-12], 0
  007c6	0f 84 df 01 00
	00		 je	 $LN8@ReadIniFil

; 420  : 			continue;
; 421  : 
; 422  : 		GetFieldData(szColInfo, nFieldKey, szFieldName);

  007cc	8d 45 b0	 lea	 eax, DWORD PTR _szFieldName$[ebp]
  007cf	50		 push	 eax
  007d0	8d 45 c8	 lea	 eax, DWORD PTR _nFieldKey$[ebp]
  007d3	50		 push	 eax
  007d4	51		 push	 ecx
  007d5	8d 45 cc	 lea	 eax, DWORD PTR _szColInfo$[ebp]
  007d8	8b cc		 mov	 ecx, esp
  007da	50		 push	 eax
  007db	ff 15 00 00 00
	00		 call	 DWORD PTR __imp_??0?$CStringT@DV?$StrTraitMFC_DLL@DV?$ChTraitsCRT@D@ATL@@@@@ATL@@QAE@ABV01@@Z
  007e1	8b ce		 mov	 ecx, esi
  007e3	e8 00 00 00 00	 call	 ?GetFieldData@CDlgToolbar@@IAEXV?$CStringT@DV?$StrTraitMFC_DLL@DV?$ChTraitsCRT@D@ATL@@@@@ATL@@AAHAAV23@@Z ; CDlgToolbar::GetFieldData

; 423  : 
; 424  : 		if(!bReload)

  007e8	83 7d 08 00	 cmp	 DWORD PTR _bReload$[ebp], 0
  007ec	0f 85 8a 01 00
	00		 jne	 $LN455@ReadIniFil

; 425  : 			m_mapToolName.SetAt(nFieldKey, szFieldName);

  007f2	8d 45 b0	 lea	 eax, DWORD PTR _szFieldName$[ebp]
  007f5	50		 push	 eax
  007f6	8d 4d a8	 lea	 ecx, DWORD PTR $T8[ebp]
  007f9	ff 15 00 00 00
	00		 call	 DWORD PTR __imp_??0?$CStringT@DV?$StrTraitMFC_DLL@DV?$ChTraitsCRT@D@ATL@@@@@ATL@@QAE@ABV01@@Z
; File C:\Program Files (x86)\Microsoft Visual Studio\2019\Community\VC\Tools\MSVC\14.29.30133\atlmfc\include\afxtempl.h

; 165  : 	ldiv_t HashVal = ldiv((long)(ARG_KEY)key, 127773);

  007ff	8b 45 c8	 mov	 eax, DWORD PTR _nFieldKey$[ebp]
  00802	b9 1d f3 01 00	 mov	 ecx, 127773		; 0001f31dH
  00807	99		 cdq
  00808	f7 f9		 idiv	 ecx

; 1534 : 	nHashBucket = nHashValue % m_nHashTableSize;

  0080a	8b be 18 03 00
	00		 mov	 edi, DWORD PTR [esi+792]

; 166  : 	HashVal.rem = 16807 * HashVal.rem - 2836 * HashVal.quot;

  00810	69 c0 14 0b 00
	00		 imul	 eax, eax, 2836
  00816	69 ca a7 41 00
	00		 imul	 ecx, edx, 16807

; 1350 : 	{ (*this)[key] = newValue; }

  0081c	c6 45 fc 0e	 mov	 BYTE PTR __$EHRec$[ebp+8], 14 ; 0000000eH

; 166  : 	HashVal.rem = 16807 * HashVal.rem - 2836 * HashVal.quot;

  00820	2b c8		 sub	 ecx, eax

; 1534 : 	nHashBucket = nHashValue % m_nHashTableSize;

  00822	8d 81 ff ff ff
	7f		 lea	 eax, DWORD PTR [ecx+2147483647]
  00828	0f 49 c1	 cmovns	 eax, ecx
  0082b	33 d2		 xor	 edx, edx
  0082d	89 45 bc	 mov	 DWORD PTR tv3014[ebp], eax
  00830	f7 f7		 div	 edi

; 1535 : 
; 1536 : 	if (m_pHashTable == NULL)

  00832	8b 86 14 03 00
	00		 mov	 eax, DWORD PTR [esi+788]
  00838	8b ca		 mov	 ecx, edx
  0083a	89 4d c4	 mov	 DWORD PTR _nHashBucket$1$[ebp], ecx
  0083d	85 c0		 test	 eax, eax
  0083f	75 51		 jne	 SHORT $LN417@ReadIniFil

; 1434 : 		m_pHashTable = new CAssoc* [nHashSize];

  00841	33 c9		 xor	 ecx, ecx
  00843	8b c7		 mov	 eax, edi
  00845	ba 04 00 00 00	 mov	 edx, 4
  0084a	f7 e2		 mul	 edx
  0084c	0f 90 c1	 seto	 cl
  0084f	f7 d9		 neg	 ecx
  00851	0b c8		 or	 ecx, eax
  00853	51		 push	 ecx
  00854	e8 00 00 00 00	 call	 ??_U@YAPAXI@Z		; operator new[]
  00859	83 c4 04	 add	 esp, 4
  0085c	89 86 14 03 00
	00		 mov	 DWORD PTR [esi+788], eax

; 1435 : 		ENSURE(m_pHashTable != NULL);

  00862	85 c0		 test	 eax, eax
  00864	0f 84 c4 02 00
	00		 je	 $LN495@ReadIniFil

; 1436 : 		memset(m_pHashTable, 0, sizeof(CAssoc*) * nHashSize);

  0086a	8d 0c bd 00 00
	00 00		 lea	 ecx, DWORD PTR [edi*4]
  00871	51		 push	 ecx
  00872	6a 00		 push	 0
  00874	50		 push	 eax
  00875	e8 00 00 00 00	 call	 _memset
  0087a	83 c4 0c	 add	 esp, 12			; 0000000cH

; 1437 : 	}
; 1438 : 	m_nHashTableSize = nHashSize;

  0087d	89 be 18 03 00
	00		 mov	 DWORD PTR [esi+792], edi

; 1595 : 		ENSURE(m_pHashTable);

  00883	83 be 14 03 00
	00 00		 cmp	 DWORD PTR [esi+788], 0
  0088a	0f 84 9e 02 00
	00		 je	 $LN495@ReadIniFil
  00890	eb 25		 jmp	 SHORT $LN558@ReadIniFil
$LN417@ReadIniFil:

; 1541 : 	for (pAssoc = m_pHashTable[nHashBucket]; pAssoc != NULL; pAssoc = pAssoc->pNext)

  00892	8b 3c 88	 mov	 edi, DWORD PTR [eax+ecx*4]
  00895	85 ff		 test	 edi, edi
  00897	74 1e		 je	 SHORT $LN558@ReadIniFil
  00899	8b 4d bc	 mov	 ecx, DWORD PTR tv3014[ebp]
  0089c	0f 1f 40 00	 npad	 4
$LL416@ReadIniFil:

; 1542 : 	{
; 1543 : 		if (pAssoc->nHashValue == nHashValue && CompareElements(&pAssoc->key, &key))

  008a0	39 4f 0c	 cmp	 DWORD PTR [edi+12], ecx
  008a3	75 0b		 jne	 SHORT $LN414@ReadIniFil
  008a5	8b 45 c8	 mov	 eax, DWORD PTR _nFieldKey$[ebp]
  008a8	39 07		 cmp	 DWORD PTR [edi], eax
  008aa	0f 84 b2 00 00
	00		 je	 $LN409@ReadIniFil
$LN414@ReadIniFil:

; 1537 : 		return NULL;
; 1538 : 
; 1539 : 	// see if it exists
; 1540 : 	CAssoc* pAssoc;
; 1541 : 	for (pAssoc = m_pHashTable[nHashBucket]; pAssoc != NULL; pAssoc = pAssoc->pNext)

  008b0	8b 7f 08	 mov	 edi, DWORD PTR [edi+8]
  008b3	85 ff		 test	 edi, edi
  008b5	75 e9		 jne	 SHORT $LL416@ReadIniFil
$LN558@ReadIniFil:

; 1481 : 	if (m_pFreeList == NULL)

  008b7	83 be 20 03 00
	00 00		 cmp	 DWORD PTR [esi+800], 0
  008be	75 47		 jne	 SHORT $LN447@ReadIniFil

; 1482 : 	{
; 1483 : 		// add another block
; 1484 : 		CPlex* newBlock = CPlex::Create(m_pBlocks, m_nBlockSize, sizeof(CMap::CAssoc));

  008c0	6a 10		 push	 16			; 00000010H
  008c2	ff b6 28 03 00
	00		 push	 DWORD PTR [esi+808]
  008c8	8d 86 24 03 00
	00		 lea	 eax, DWORD PTR [esi+804]
  008ce	50		 push	 eax
  008cf	e8 00 00 00 00	 call	 ?Create@CPlex@@SGPAU1@AAPAU1@II@Z ; CPlex::Create

; 1485 : 		// chain them into free list
; 1486 : 		CMap::CAssoc* pAssoc = (CMap::CAssoc*) newBlock->data();
; 1487 : 		// free in reverse order to make it easier to debug
; 1488 : 		pAssoc += m_nBlockSize - 1;

  008d4	8b 96 28 03 00
	00		 mov	 edx, DWORD PTR [esi+808]
  008da	8b ca		 mov	 ecx, edx
  008dc	c1 e1 04	 shl	 ecx, 4
  008df	83 c1 f8	 add	 ecx, -8			; fffffff8H
  008e2	03 c8		 add	 ecx, eax

; 1489 : 		for (INT_PTR i = m_nBlockSize-1; i >= 0; i--, pAssoc--)

  008e4	83 c2 ff	 add	 edx, -1
  008e7	78 1e		 js	 SHORT $LN447@ReadIniFil
  008e9	0f 1f 80 00 00
	00 00		 npad	 7
$LL444@ReadIniFil:

; 1490 : 		{
; 1491 : 			pAssoc->pNext = m_pFreeList;

  008f0	8b 86 20 03 00
	00		 mov	 eax, DWORD PTR [esi+800]
  008f6	89 41 08	 mov	 DWORD PTR [ecx+8], eax

; 1492 : 			m_pFreeList = pAssoc;

  008f9	89 8e 20 03 00
	00		 mov	 DWORD PTR [esi+800], ecx
  008ff	83 e9 10	 sub	 ecx, 16			; 00000010H
  00902	83 ea 01	 sub	 edx, 1
  00905	79 e9		 jns	 SHORT $LL444@ReadIniFil
$LN447@ReadIniFil:

; 1493 : 		}
; 1494 : 	}
; 1495 : 	ENSURE(m_pFreeList != NULL);  // we must have something

  00907	8b be 20 03 00
	00		 mov	 edi, DWORD PTR [esi+800]
  0090d	85 ff		 test	 edi, edi
  0090f	0f 84 19 02 00
	00		 je	 $LN495@ReadIniFil

; 1496 : 
; 1497 : 	CMap::CAssoc* pAssoc = m_pFreeList;
; 1498 : 
; 1499 : 	// zero the memory
; 1500 : 	CMap::CAssoc* pTemp = pAssoc->pNext;

  00915	8b 47 08	 mov	 eax, DWORD PTR [edi+8]

; 1256 : 		CPair( ARG_KEY keyval ) : key( keyval )	{}

  00918	8d 4f 04	 lea	 ecx, DWORD PTR [edi+4]
  0091b	0f 57 c0	 xorps	 xmm0, xmm0

; 1501 : 	memset( pAssoc, 0, sizeof(CMap::CAssoc) );

  0091e	0f 11 07	 movups	 XMMWORD PTR [edi], xmm0

; 1502 : 	pAssoc->pNext = pTemp;

  00921	89 47 08	 mov	 DWORD PTR [edi+8], eax

; 1503 : 
; 1504 : 	m_pFreeList = m_pFreeList->pNext;

  00924	8b 86 20 03 00
	00		 mov	 eax, DWORD PTR [esi+800]
  0092a	8b 40 08	 mov	 eax, DWORD PTR [eax+8]

; 1505 : 	m_nCount++;

  0092d	ff 86 1c 03 00
	00		 inc	 DWORD PTR [esi+796]
  00933	89 86 20 03 00
	00		 mov	 DWORD PTR [esi+800], eax

; 1256 : 		CPair( ARG_KEY keyval ) : key( keyval )	{}

  00939	8b 45 c8	 mov	 eax, DWORD PTR _nFieldKey$[ebp]
  0093c	89 07		 mov	 DWORD PTR [edi], eax
  0093e	ff 15 00 00 00
	00		 call	 DWORD PTR __imp_??0?$CStringT@DV?$StrTraitMFC_DLL@DV?$ChTraitsCRT@D@ATL@@@@@ATL@@QAE@XZ

; 1598 : 		pAssoc->nHashValue = nHashValue;

  00944	8b 45 bc	 mov	 eax, DWORD PTR tv3014[ebp]

; 1599 : 		//'pAssoc->value' is a constructed object, nothing more
; 1600 : 
; 1601 : 		// put into hash table
; 1602 : 		pAssoc->pNext = m_pHashTable[nHashBucket];

  00947	8b 4d c4	 mov	 ecx, DWORD PTR _nHashBucket$1$[ebp]
  0094a	89 47 0c	 mov	 DWORD PTR [edi+12], eax
  0094d	8b 86 14 03 00
	00		 mov	 eax, DWORD PTR [esi+788]
  00953	8b 04 88	 mov	 eax, DWORD PTR [eax+ecx*4]
  00956	89 47 08	 mov	 DWORD PTR [edi+8], eax

; 1603 : 		m_pHashTable[nHashBucket] = pAssoc;

  00959	8b 86 14 03 00
	00		 mov	 eax, DWORD PTR [esi+788]
  0095f	89 3c 88	 mov	 DWORD PTR [eax+ecx*4], edi
$LN409@ReadIniFil:

; 1350 : 	{ (*this)[key] = newValue; }

  00962	8d 45 a8	 lea	 eax, DWORD PTR $T8[ebp]

; 1605 : 	return pAssoc->value;  // return new reference

  00965	8d 4f 04	 lea	 ecx, DWORD PTR [edi+4]

; 1350 : 	{ (*this)[key] = newValue; }

  00968	50		 push	 eax
  00969	ff 15 00 00 00
	00		 call	 DWORD PTR __imp_??4?$CStringT@DV?$StrTraitMFC_DLL@DV?$ChTraitsCRT@D@ATL@@@@@ATL@@QAEAAV01@ABV01@@Z
  0096f	8d 4d a8	 lea	 ecx, DWORD PTR $T8[ebp]
  00972	c6 45 fc 0b	 mov	 BYTE PTR __$EHRec$[ebp+8], 11 ; 0000000bH
  00976	ff 15 00 00 00
	00		 call	 DWORD PTR __imp_??1?$CStringT@DV?$StrTraitMFC_DLL@DV?$ChTraitsCRT@D@ATL@@@@@ATL@@QAE@XZ
$LN455@ReadIniFil:

; 333  : 	{ INT_PTR nIndex = m_nSize;

  0097c	8b 86 f0 02 00
	00		 mov	 eax, DWORD PTR [esi+752]
  00982	89 45 c4	 mov	 DWORD PTR _nIndex$1$[ebp], eax

; 538  : 	if(nIndex < 0)

  00985	85 c0		 test	 eax, eax
  00987	0f 88 a1 01 00
	00		 js	 $LN495@ReadIniFil

; 539  : 		AfxThrowInvalidArgException();
; 540  : 
; 541  : 	if (nIndex >= m_nSize)
; 542  : 		SetSize(nIndex+1, -1);

  0098d	6a ff		 push	 -1
  0098f	40		 inc	 eax
  00990	8d 8e e8 02 00
	00		 lea	 ecx, DWORD PTR [esi+744]
  00996	50		 push	 eax
  00997	e8 00 00 00 00	 call	 ?SetSize@?$CArray@HH@@QAEXHH@Z ; CArray<int,int>::SetSize

; 543  : 	m_pData[nIndex] = newElement;

  0099c	8b 86 ec 02 00
	00		 mov	 eax, DWORD PTR [esi+748]
  009a2	8b 55 c4	 mov	 edx, DWORD PTR _nIndex$1$[ebp]
  009a5	8b 4d c8	 mov	 ecx, DWORD PTR _nFieldKey$[ebp]
  009a8	89 0c 90	 mov	 DWORD PTR [eax+edx*4], ecx
$LN8@ReadIniFil:
; File D:\git\src\IBK\IBK_DRFN\ProjSrc\SrcDrfn\Chart\MULTICHART\DlgToolbar.cpp

; 413  : 	for(i=0;i < nColCount; i++)

  009ab	8b 45 c0	 mov	 eax, DWORD PTR _i$3$[ebp]
  009ae	40		 inc	 eax
  009af	89 45 c0	 mov	 DWORD PTR _i$3$[ebp], eax
  009b2	3b 45 a4	 cmp	 eax, DWORD PTR _nColCount$3$[ebp]
  009b5	0f 8c bc fd ff
	ff		 jl	 $LL10@ReadIniFil
$LN559@ReadIniFil:

; 426  : 		m_arrayAdditionIdx.Add(nFieldKey);
; 427  : 	}
; 428  : 	
; 429  : 	sprintf(szKey,"%s","USER LIST");

  009bb	68 00 00 00 00	 push	 OFFSET ??_C@_09BBDODMFB@USER?5LIST@
  009c0	8d 45 d0	 lea	 eax, DWORD PTR _szKey$[ebp]
  009c3	68 00 00 00 00	 push	 OFFSET ??_C@_02DKCKIIND@?$CFs@
  009c8	50		 push	 eax
  009c9	e8 00 00 00 00	 call	 _sprintf
  009ce	83 c4 0c	 add	 esp, 12			; 0000000cH

; 430  : 	nColCount = ::GetPrivateProfileInt(szKey, "COUNT", -1, strConfigPath);

  009d1	8d 45 d0	 lea	 eax, DWORD PTR _szKey$[ebp]
  009d4	ff 75 b8	 push	 DWORD PTR _strConfigPath$[ebp]
  009d7	6a ff		 push	 -1
  009d9	68 00 00 00 00	 push	 OFFSET ??_C@_05EFFCCOAM@COUNT@
  009de	50		 push	 eax
  009df	ff 15 00 00 00
	00		 call	 DWORD PTR __imp__GetPrivateProfileIntA@16
  009e5	8b c8		 mov	 ecx, eax

; 432  : 	for(i=0;i < nColCount; i++)

  009e7	33 c0		 xor	 eax, eax
  009e9	89 4d a4	 mov	 DWORD PTR _nColCount$4$[ebp], ecx
  009ec	89 45 bc	 mov	 DWORD PTR _i$4$[ebp], eax
  009ef	85 c9		 test	 ecx, ecx
  009f1	0f 8e ac 00 00
	00		 jle	 $LN560@ReadIniFil
$LL13@ReadIniFil:

; 433  : 	{
; 434  : 		szColNum.Format("%02d", i);

  009f7	50		 push	 eax
  009f8	8d 45 b4	 lea	 eax, DWORD PTR _szColNum$[ebp]
  009fb	68 00 00 00 00	 push	 OFFSET ??_C@_04OGKJMPGK@?$CF02d@
  00a00	50		 push	 eax
  00a01	ff 15 00 00 00
	00		 call	 DWORD PTR __imp_?Format@?$CStringT@DV?$StrTraitMFC_DLL@DV?$ChTraitsCRT@D@ATL@@@@@ATL@@QAAXPBDZZ
; File C:\Program Files (x86)\Microsoft Visual Studio\2019\Community\VC\Tools\MSVC\14.29.30133\atlmfc\include\atlsimpstr.h

; 377  : 		return( m_pszData );

  00a07	8b 7d b4	 mov	 edi, DWORD PTR _szColNum$[ebp]
; File D:\git\src\IBK\IBK_DRFN\ProjSrc\SrcDrfn\Chart\MULTICHART\DlgToolbar.cpp

; 435  : 		::GetPrivateProfileString(szKey, szColNum, "", szColInfo.GetBuffer(MAX_PATH), MAX_PATH, strConfigPath);	

  00a0a	8d 4d cc	 lea	 ecx, DWORD PTR _szColInfo$[ebp]
  00a0d	83 c4 0c	 add	 esp, 12			; 0000000cH
  00a10	ff 75 b8	 push	 DWORD PTR _strConfigPath$[ebp]
  00a13	68 04 01 00 00	 push	 260			; 00000104H
  00a18	68 04 01 00 00	 push	 260			; 00000104H
  00a1d	ff 15 00 00 00
	00		 call	 DWORD PTR __imp_?GetBuffer@?$CSimpleStringT@D$00@ATL@@QAEPADH@Z
  00a23	50		 push	 eax
  00a24	68 00 00 00 00	 push	 OFFSET ??_C@_00CNPNBAHC@@
  00a29	57		 push	 edi
  00a2a	8d 45 d0	 lea	 eax, DWORD PTR _szKey$[ebp]
  00a2d	50		 push	 eax
  00a2e	ff 15 00 00 00
	00		 call	 DWORD PTR __imp__GetPrivateProfileStringA@24

; 436  : 		szColInfo.ReleaseBuffer();

  00a34	6a ff		 push	 -1
  00a36	8d 4d cc	 lea	 ecx, DWORD PTR _szColInfo$[ebp]
  00a39	ff 15 00 00 00
	00		 call	 DWORD PTR __imp_?ReleaseBuffer@?$CSimpleStringT@D$00@ATL@@QAEXH@Z
; File C:\Program Files (x86)\Microsoft Visual Studio\2019\Community\VC\Tools\MSVC\14.29.30133\atlmfc\include\atlsimpstr.h

; 519  : 		return( GetData()->nDataLength );

  00a3f	8b 45 cc	 mov	 eax, DWORD PTR _szColInfo$[ebp]
; File D:\git\src\IBK\IBK_DRFN\ProjSrc\SrcDrfn\Chart\MULTICHART\DlgToolbar.cpp

; 438  : 		if (szColInfo.GetLength() == 0)

  00a42	83 78 f4 00	 cmp	 DWORD PTR [eax-12], 0
  00a46	74 4b		 je	 SHORT $LN11@ReadIniFil

; 439  : 			continue;
; 440  : 
; 441  : 		GetFieldData(szColInfo, nFieldKey, szFieldName);

  00a48	8d 45 b0	 lea	 eax, DWORD PTR _szFieldName$[ebp]
  00a4b	50		 push	 eax
  00a4c	8d 45 c8	 lea	 eax, DWORD PTR _nFieldKey$[ebp]
  00a4f	50		 push	 eax
  00a50	51		 push	 ecx
  00a51	8d 45 cc	 lea	 eax, DWORD PTR _szColInfo$[ebp]
  00a54	8b cc		 mov	 ecx, esp
  00a56	50		 push	 eax
  00a57	ff 15 00 00 00
	00		 call	 DWORD PTR __imp_??0?$CStringT@DV?$StrTraitMFC_DLL@DV?$ChTraitsCRT@D@ATL@@@@@ATL@@QAE@ABV01@@Z
  00a5d	8b ce		 mov	 ecx, esi
  00a5f	e8 00 00 00 00	 call	 ?GetFieldData@CDlgToolbar@@IAEXV?$CStringT@DV?$StrTraitMFC_DLL@DV?$ChTraitsCRT@D@ATL@@@@@ATL@@AAHAAV23@@Z ; CDlgToolbar::GetFieldData
; File C:\Program Files (x86)\Microsoft Visual Studio\2019\Community\VC\Tools\MSVC\14.29.30133\atlmfc\include\afxtempl.h

; 333  : 	{ INT_PTR nIndex = m_nSize;

  00a64	8b 86 04 03 00
	00		 mov	 eax, DWORD PTR [esi+772]
  00a6a	89 45 c4	 mov	 DWORD PTR _nIndex$1$[ebp], eax

; 538  : 	if(nIndex < 0)

  00a6d	85 c0		 test	 eax, eax
  00a6f	0f 88 b9 00 00
	00		 js	 $LN495@ReadIniFil

; 539  : 		AfxThrowInvalidArgException();
; 540  : 
; 541  : 	if (nIndex >= m_nSize)
; 542  : 		SetSize(nIndex+1, -1);

  00a75	6a ff		 push	 -1
  00a77	40		 inc	 eax
  00a78	8d 8e fc 02 00
	00		 lea	 ecx, DWORD PTR [esi+764]
  00a7e	50		 push	 eax
  00a7f	e8 00 00 00 00	 call	 ?SetSize@?$CArray@HH@@QAEXHH@Z ; CArray<int,int>::SetSize

; 543  : 	m_pData[nIndex] = newElement;

  00a84	8b 8e 00 03 00
	00		 mov	 ecx, DWORD PTR [esi+768]
  00a8a	8b 55 c4	 mov	 edx, DWORD PTR _nIndex$1$[ebp]
  00a8d	8b 45 c8	 mov	 eax, DWORD PTR _nFieldKey$[ebp]
  00a90	89 04 91	 mov	 DWORD PTR [ecx+edx*4], eax
$LN11@ReadIniFil:
; File D:\git\src\IBK\IBK_DRFN\ProjSrc\SrcDrfn\Chart\MULTICHART\DlgToolbar.cpp

; 432  : 	for(i=0;i < nColCount; i++)

  00a93	8b 45 bc	 mov	 eax, DWORD PTR _i$4$[ebp]
  00a96	40		 inc	 eax
  00a97	89 45 bc	 mov	 DWORD PTR _i$4$[ebp], eax
  00a9a	3b 45 a4	 cmp	 eax, DWORD PTR _nColCount$4$[ebp]
  00a9d	0f 8c 54 ff ff
	ff		 jl	 $LL13@ReadIniFil
$LN560@ReadIniFil:

; 442  : 
; 443  : 		m_arrayUserIdx.Add(nFieldKey);
; 444  : 	}
; 445  : 
; 446  : //	//20070105 by 
; 447  : //	//         /    
; 448  : //	sprintf(szKey,"%s","TOOLHEIGHT OVER");
; 449  : //	nColCount = ::GetPrivateProfileInt(szKey, "COUNT", -1, strConfigPath);
; 450  : //
; 451  : //	//        
; 452  : //	if (nColCount <= 0)						
; 453  : //	{
; 454  : //		CString strFieldName, strValue,str;
; 455  : //		int nCnt;
; 456  : //
; 457  : //		nCnt = 2;
; 458  : //
; 459  : //		sprintf(szKey,"%s","TOOLHEIGHT OVER");
; 460  : //
; 461  : //		strValue.Format("%d",nCnt);
; 462  : //		::WritePrivateProfileString(szKey, "COUNT", strValue, strConfigPath);
; 463  : //
; 464  : //		for (i=0; i < nCnt ; i++)
; 465  : //		{ 
; 466  : //			if (i==0)
; 467  : //			{
; 468  : //				nFieldKey = 49;
; 469  : //				strFieldName = "";
; 470  : //			}
; 471  : //			else 
; 472  : //			{
; 473  : //				nFieldKey = 50;
; 474  : //				strFieldName = "";
; 475  : //			}
; 476  : //
; 477  : //			strValue.Format("%d,%s", nFieldKey, strFieldName);
; 478  : //
; 479  : //			str.Format("%02d", i);
; 480  : //			::WritePrivateProfileString(szKey, str, strValue, strConfigPath);
; 481  : //		}	
; 482  : //
; 483  : //		//  read
; 484  : //		for(i=0;i < nColCount; i++)
; 485  : //		{
; 486  : //			szColNum.Format("%02d", i);
; 487  : //			::GetPrivateProfileString(szKey, szColNum, "", szColInfo.GetBuffer(MAX_PATH), MAX_PATH, strConfigPath);	
; 488  : //			szColInfo.ReleaseBuffer();
; 489  : //
; 490  : //			if (szColInfo.GetLength() == 0)
; 491  : //				continue;
; 492  : //
; 493  : //			GetFieldData(szColInfo, nFieldKey, szFieldName);
; 494  : //
; 495  : //			if(!bReload)
; 496  : //				m_mapToolName.SetAt(nFieldKey, szFieldName);
; 497  : //		}
; 498  : //	}
; 499  : //	else
; 500  : //	{
; 501  : //		for(i=0;i < nColCount; i++)
; 502  : //		{
; 503  : //			szColNum.Format("%02d", i);
; 504  : //			::GetPrivateProfileString(szKey, szColNum, "", szColInfo.GetBuffer(MAX_PATH), MAX_PATH, strConfigPath);	
; 505  : //			szColInfo.ReleaseBuffer();
; 506  : //
; 507  : //			if (szColInfo.GetLength() == 0)
; 508  : //				continue;
; 509  : //
; 510  : //			GetFieldData(szColInfo, nFieldKey, szFieldName);
; 511  : //
; 512  : //			if(!bReload)
; 513  : //				m_mapToolName.SetAt(nFieldKey, szFieldName);
; 514  : //		}
; 515  : //	}
; 516  : //	//by  end
; 517  : //
; 518  : //	if(bUserFile)
; 519  : //	{
; 520  : //		if(m_mapToolName.Lookup(52, szFieldName))
; 521  : //			m_mapToolName.SetAt(52, _T(""));
; 522  : //
; 523  : //		if(m_mapToolName.Lookup(53, szFieldName))
; 524  : //			m_mapToolName.SetAt(53, _T(""));
; 525  : //	}
; 526  : }

  00aa3	8d 4d b0	 lea	 ecx, DWORD PTR _szFieldName$[ebp]
  00aa6	ff 15 00 00 00
	00		 call	 DWORD PTR __imp_??1?$CStringT@DV?$StrTraitMFC_DLL@DV?$ChTraitsCRT@D@ATL@@@@@ATL@@QAE@XZ
  00aac	8d 4d 90	 lea	 ecx, DWORD PTR _szFieldKey$[ebp]
  00aaf	ff 15 00 00 00
	00		 call	 DWORD PTR __imp_??1?$CStringT@DV?$StrTraitMFC_DLL@DV?$ChTraitsCRT@D@ATL@@@@@ATL@@QAE@XZ
  00ab5	8d 4d cc	 lea	 ecx, DWORD PTR _szColInfo$[ebp]
  00ab8	ff 15 00 00 00
	00		 call	 DWORD PTR __imp_??1?$CStringT@DV?$StrTraitMFC_DLL@DV?$ChTraitsCRT@D@ATL@@@@@ATL@@QAE@XZ
  00abe	8d 4d b4	 lea	 ecx, DWORD PTR _szColNum$[ebp]
  00ac1	ff 15 00 00 00
	00		 call	 DWORD PTR __imp_??1?$CStringT@DV?$StrTraitMFC_DLL@DV?$ChTraitsCRT@D@ATL@@@@@ATL@@QAE@XZ
  00ac7	8d 4d 8c	 lea	 ecx, DWORD PTR _szIndex$[ebp]
  00aca	ff 15 00 00 00
	00		 call	 DWORD PTR __imp_??1?$CStringT@DV?$StrTraitMFC_DLL@DV?$ChTraitsCRT@D@ATL@@@@@ATL@@QAE@XZ
  00ad0	8d 4d 98	 lea	 ecx, DWORD PTR _strTemp$[ebp]
  00ad3	ff 15 00 00 00
	00		 call	 DWORD PTR __imp_??1?$CStringT@DV?$StrTraitMFC_DLL@DV?$ChTraitsCRT@D@ATL@@@@@ATL@@QAE@XZ
  00ad9	8d 4d b8	 lea	 ecx, DWORD PTR _strConfigPath$[ebp]
  00adc	ff 15 00 00 00
	00		 call	 DWORD PTR __imp_??1?$CStringT@DV?$StrTraitMFC_DLL@DV?$ChTraitsCRT@D@ATL@@@@@ATL@@QAE@XZ
  00ae2	8d 4d a0	 lea	 ecx, DWORD PTR _strUserPath$[ebp]
  00ae5	ff 15 00 00 00
	00		 call	 DWORD PTR __imp_??1?$CStringT@DV?$StrTraitMFC_DLL@DV?$ChTraitsCRT@D@ATL@@@@@ATL@@QAE@XZ
  00aeb	8d 4d ac	 lea	 ecx, DWORD PTR _strDataPath$[ebp]
  00aee	ff 15 00 00 00
	00		 call	 DWORD PTR __imp_??1?$CStringT@DV?$StrTraitMFC_DLL@DV?$ChTraitsCRT@D@ATL@@@@@ATL@@QAE@XZ
  00af4	8d 4d 9c	 lea	 ecx, DWORD PTR _strPath$[ebp]
  00af7	ff 15 00 00 00
	00		 call	 DWORD PTR __imp_??1?$CStringT@DV?$StrTraitMFC_DLL@DV?$ChTraitsCRT@D@ATL@@@@@ATL@@QAE@XZ
  00afd	8d 8d 6c ff ff
	ff		 lea	 ecx, DWORD PTR _FileFind$[ebp]
  00b03	e8 00 00 00 00	 call	 ??1CFileFind@@UAE@XZ	; CFileFind::~CFileFind
  00b08	8d 4d 88	 lea	 ecx, DWORD PTR _strImageFolderPath$[ebp]
  00b0b	ff 15 00 00 00
	00		 call	 DWORD PTR __imp_??1?$CStringT@DV?$StrTraitMFC_DLL@DV?$ChTraitsCRT@D@ATL@@@@@ATL@@QAE@XZ
  00b11	8b 4d f4	 mov	 ecx, DWORD PTR __$EHRec$[ebp]
  00b14	64 89 0d 00 00
	00 00		 mov	 DWORD PTR fs:0, ecx
  00b1b	59		 pop	 ecx
  00b1c	5f		 pop	 edi
  00b1d	5e		 pop	 esi
  00b1e	8b 4d f0	 mov	 ecx, DWORD PTR __$ArrayPad$[ebp]
  00b21	33 cd		 xor	 ecx, ebp
  00b23	e8 00 00 00 00	 call	 @__security_check_cookie@4
  00b28	8b e5		 mov	 esp, ebp
  00b2a	5d		 pop	 ebp
  00b2b	c2 04 00	 ret	 4
$LN495@ReadIniFil:
  00b2e	e8 00 00 00 00	 call	 ?AfxThrowInvalidArgException@@YGXXZ ; AfxThrowInvalidArgException
$LN562@ReadIniFil:
  00b33	cc		 int	 3
_TEXT	ENDS
;	COMDAT text$x
text$x	SEGMENT
__unwindfunclet$?ReadIniFile@CDlgToolbar@@IAEXH@Z$0:
  00000	8d 4d 88	 lea	 ecx, DWORD PTR _strImageFolderPath$[ebp]
  00003	ff 25 00 00 00
	00		 jmp	 DWORD PTR __imp_??1?$CStringT@DV?$StrTraitMFC_DLL@DV?$ChTraitsCRT@D@ATL@@@@@ATL@@QAE@XZ
__unwindfunclet$?ReadIniFile@CDlgToolbar@@IAEXH@Z$1:
  00009	8d 8d 6c ff ff
	ff		 lea	 ecx, DWORD PTR _FileFind$[ebp]
  0000f	e9 00 00 00 00	 jmp	 ??1CFileFind@@UAE@XZ	; CFileFind::~CFileFind
__unwindfunclet$?ReadIniFile@CDlgToolbar@@IAEXH@Z$2:
  00014	8d 4d 9c	 lea	 ecx, DWORD PTR _strPath$[ebp]
  00017	ff 25 00 00 00
	00		 jmp	 DWORD PTR __imp_??1?$CStringT@DV?$StrTraitMFC_DLL@DV?$ChTraitsCRT@D@ATL@@@@@ATL@@QAE@XZ
__unwindfunclet$?ReadIniFile@CDlgToolbar@@IAEXH@Z$3:
  0001d	8d 4d ac	 lea	 ecx, DWORD PTR _strDataPath$[ebp]
  00020	ff 25 00 00 00
	00		 jmp	 DWORD PTR __imp_??1?$CStringT@DV?$StrTraitMFC_DLL@DV?$ChTraitsCRT@D@ATL@@@@@ATL@@QAE@XZ
__unwindfunclet$?ReadIniFile@CDlgToolbar@@IAEXH@Z$4:
  00026	8d 4d a0	 lea	 ecx, DWORD PTR _strUserPath$[ebp]
  00029	ff 25 00 00 00
	00		 jmp	 DWORD PTR __imp_??1?$CStringT@DV?$StrTraitMFC_DLL@DV?$ChTraitsCRT@D@ATL@@@@@ATL@@QAE@XZ
__unwindfunclet$?ReadIniFile@CDlgToolbar@@IAEXH@Z$5:
  0002f	8d 4d b8	 lea	 ecx, DWORD PTR _strConfigPath$[ebp]
  00032	ff 25 00 00 00
	00		 jmp	 DWORD PTR __imp_??1?$CStringT@DV?$StrTraitMFC_DLL@DV?$ChTraitsCRT@D@ATL@@@@@ATL@@QAE@XZ
__unwindfunclet$?ReadIniFile@CDlgToolbar@@IAEXH@Z$6:
  00038	8d 4d 98	 lea	 ecx, DWORD PTR _strTemp$[ebp]
  0003b	ff 25 00 00 00
	00		 jmp	 DWORD PTR __imp_??1?$CStringT@DV?$StrTraitMFC_DLL@DV?$ChTraitsCRT@D@ATL@@@@@ATL@@QAE@XZ
__unwindfunclet$?ReadIniFile@CDlgToolbar@@IAEXH@Z$7:
  00041	8d 4d 8c	 lea	 ecx, DWORD PTR _szIndex$[ebp]
  00044	ff 25 00 00 00
	00		 jmp	 DWORD PTR __imp_??1?$CStringT@DV?$StrTraitMFC_DLL@DV?$ChTraitsCRT@D@ATL@@@@@ATL@@QAE@XZ
__unwindfunclet$?ReadIniFile@CDlgToolbar@@IAEXH@Z$8:
  0004a	8d 4d b4	 lea	 ecx, DWORD PTR _szColNum$[ebp]
  0004d	ff 25 00 00 00
	00		 jmp	 DWORD PTR __imp_??1?$CStringT@DV?$StrTraitMFC_DLL@DV?$ChTraitsCRT@D@ATL@@@@@ATL@@QAE@XZ
__unwindfunclet$?ReadIniFile@CDlgToolbar@@IAEXH@Z$9:
  00053	8d 4d cc	 lea	 ecx, DWORD PTR _szColInfo$[ebp]
  00056	ff 25 00 00 00
	00		 jmp	 DWORD PTR __imp_??1?$CStringT@DV?$StrTraitMFC_DLL@DV?$ChTraitsCRT@D@ATL@@@@@ATL@@QAE@XZ
__unwindfunclet$?ReadIniFile@CDlgToolbar@@IAEXH@Z$10:
  0005c	8d 4d 90	 lea	 ecx, DWORD PTR _szFieldKey$[ebp]
  0005f	ff 25 00 00 00
	00		 jmp	 DWORD PTR __imp_??1?$CStringT@DV?$StrTraitMFC_DLL@DV?$ChTraitsCRT@D@ATL@@@@@ATL@@QAE@XZ
__unwindfunclet$?ReadIniFile@CDlgToolbar@@IAEXH@Z$11:
  00065	8d 4d b0	 lea	 ecx, DWORD PTR _szFieldName$[ebp]
  00068	ff 25 00 00 00
	00		 jmp	 DWORD PTR __imp_??1?$CStringT@DV?$StrTraitMFC_DLL@DV?$ChTraitsCRT@D@ATL@@@@@ATL@@QAE@XZ
__unwindfunclet$?ReadIniFile@CDlgToolbar@@IAEXH@Z$20:
  0006e	8d 4d a8	 lea	 ecx, DWORD PTR $T10[ebp]
  00071	ff 25 00 00 00
	00		 jmp	 DWORD PTR __imp_??1?$CStringT@DV?$StrTraitMFC_DLL@DV?$ChTraitsCRT@D@ATL@@@@@ATL@@QAE@XZ
__unwindfunclet$?ReadIniFile@CDlgToolbar@@IAEXH@Z$21:
  00077	8d 4d a8	 lea	 ecx, DWORD PTR $T9[ebp]
  0007a	ff 25 00 00 00
	00		 jmp	 DWORD PTR __imp_??1?$CStringT@DV?$StrTraitMFC_DLL@DV?$ChTraitsCRT@D@ATL@@@@@ATL@@QAE@XZ
__unwindfunclet$?ReadIniFile@CDlgToolbar@@IAEXH@Z$22:
  00080	8d 4d a8	 lea	 ecx, DWORD PTR $T8[ebp]
  00083	ff 25 00 00 00
	00		 jmp	 DWORD PTR __imp_??1?$CStringT@DV?$StrTraitMFC_DLL@DV?$ChTraitsCRT@D@ATL@@@@@ATL@@QAE@XZ
  00089	cc		 int	 3
  0008a	cc		 int	 3
  0008b	cc		 int	 3
  0008c	cc		 int	 3
  0008d	cc		 int	 3
__ehhandler$?ReadIniFile@CDlgToolbar@@IAEXH@Z:
  0008e	90		 npad	 1
  0008f	90		 npad	 1
  00090	8b 54 24 08	 mov	 edx, DWORD PTR [esp+8]
  00094	8d 42 0c	 lea	 eax, DWORD PTR [edx+12]
  00097	8b 8a 6c ff ff
	ff		 mov	 ecx, DWORD PTR [edx-148]
  0009d	33 c8		 xor	 ecx, eax
  0009f	e8 00 00 00 00	 call	 @__security_check_cookie@4
  000a4	8b 4a fc	 mov	 ecx, DWORD PTR [edx-4]
  000a7	33 c8		 xor	 ecx, eax
  000a9	e8 00 00 00 00	 call	 @__security_check_cookie@4
  000ae	b8 00 00 00 00	 mov	 eax, OFFSET __ehfuncinfo$?ReadIniFile@CDlgToolbar@@IAEXH@Z
  000b3	e9 00 00 00 00	 jmp	 ___CxxFrameHandler3
text$x	ENDS
?ReadIniFile@CDlgToolbar@@IAEXH@Z ENDP			; CDlgToolbar::ReadIniFile
; Function compile flags: /Ogtp
; File C:\Program Files (x86)\Microsoft Visual Studio\2019\Community\VC\Tools\MSVC\14.29.30133\atlmfc\include\afx.inl
;	COMDAT ??_G?$CMap@HHV?$CStringT@DV?$StrTraitMFC_DLL@DV?$ChTraitsCRT@D@ATL@@@@@ATL@@V12@@@UAEPAXI@Z
_TEXT	SEGMENT
___flags$ = 8						; size = 4
??_G?$CMap@HHV?$CStringT@DV?$StrTraitMFC_DLL@DV?$ChTraitsCRT@D@ATL@@@@@ATL@@V12@@@UAEPAXI@Z PROC ; CMap<int,int,ATL::CStringT<char,StrTraitMFC_DLL<char,ATL::ChTraitsCRT<char> > >,ATL::CStringT<char,StrTraitMFC_DLL<char,ATL::ChTraitsCRT<char> > > >::`scalar deleting destructor', COMDAT
; _this$ = ecx
  00000	55		 push	 ebp
  00001	8b ec		 mov	 ebp, esp
  00003	56		 push	 esi
  00004	8b f1		 mov	 esi, ecx
  00006	e8 00 00 00 00	 call	 ??1?$CMap@HHV?$CStringT@DV?$StrTraitMFC_DLL@DV?$ChTraitsCRT@D@ATL@@@@@ATL@@V12@@@UAE@XZ ; CMap<int,int,ATL::CStringT<char,StrTraitMFC_DLL<char,ATL::ChTraitsCRT<char> > >,ATL::CStringT<char,StrTraitMFC_DLL<char,ATL::ChTraitsCRT<char> > > >::~CMap<int,int,ATL::CStringT<char,StrTraitMFC_DLL<char,ATL::ChTraitsCRT<char> > >,ATL::CStringT<char,StrTraitMFC_DLL<char,ATL::ChTraitsCRT<char> > > >
  0000b	8b 45 08	 mov	 eax, DWORD PTR ___flags$[ebp]
  0000e	a8 01		 test	 al, 1
  00010	74 1f		 je	 SHORT $LN9@scalar
  00012	a8 04		 test	 al, 4
  00014	75 10		 jne	 SHORT $LN3@scalar

; 112  : 	{ ::operator delete(p); }

  00016	56		 push	 esi
  00017	e8 00 00 00 00	 call	 ??3@YAXPAX@Z		; operator delete
  0001c	83 c4 04	 add	 esp, 4
  0001f	8b c6		 mov	 eax, esi
  00021	5e		 pop	 esi
  00022	5d		 pop	 ebp
  00023	c2 04 00	 ret	 4
$LN3@scalar:
  00026	6a 1c		 push	 28			; 0000001cH
  00028	56		 push	 esi
  00029	e8 00 00 00 00	 call	 ?__global_delete@@YAXPAXI@Z ; __global_delete
  0002e	83 c4 08	 add	 esp, 8
$LN9@scalar:
  00031	8b c6		 mov	 eax, esi
  00033	5e		 pop	 esi
  00034	5d		 pop	 ebp
  00035	c2 04 00	 ret	 4
??_G?$CMap@HHV?$CStringT@DV?$StrTraitMFC_DLL@DV?$ChTraitsCRT@D@ATL@@@@@ATL@@V12@@@UAEPAXI@Z ENDP ; CMap<int,int,ATL::CStringT<char,StrTraitMFC_DLL<char,ATL::ChTraitsCRT<char> > >,ATL::CStringT<char,StrTraitMFC_DLL<char,ATL::ChTraitsCRT<char> > > >::`scalar deleting destructor'
_TEXT	ENDS
; Function compile flags: /Ogtp
; File C:\Program Files (x86)\Microsoft Visual Studio\2019\Community\VC\Tools\MSVC\14.29.30133\atlmfc\include\afxtempl.h
; File C:\Program Files (x86)\Microsoft Visual Studio\2019\Community\VC\Tools\MSVC\14.29.30133\atlmfc\include\afx.inl
; File C:\Program Files (x86)\Microsoft Visual Studio\2019\Community\VC\Tools\MSVC\14.29.30133\atlmfc\include\afxtempl.h
; File C:\Program Files (x86)\Microsoft Visual Studio\2019\Community\VC\Tools\MSVC\14.29.30133\atlmfc\include\afx.inl
; File C:\Program Files (x86)\Microsoft Visual Studio\2019\Community\VC\Tools\MSVC\14.29.30133\atlmfc\include\afxtempl.h
; File C:\Program Files (x86)\Microsoft Visual Studio\2019\Community\VC\Tools\MSVC\14.29.30133\atlmfc\include\afx.inl
; File C:\Program Files (x86)\Microsoft Visual Studio\2019\Community\VC\Tools\MSVC\14.29.30133\atlmfc\include\afxtempl.h
; File C:\Program Files (x86)\Microsoft Visual Studio\2019\Community\VC\Tools\MSVC\14.29.30133\atlmfc\include\afx.inl
; File C:\Program Files (x86)\Microsoft Visual Studio\2019\Community\VC\Tools\MSVC\14.29.30133\atlmfc\include\afxtempl.h
; File C:\Program Files (x86)\Microsoft Visual Studio\2019\Community\VC\Tools\MSVC\14.29.30133\atlmfc\include\afx.inl
; File C:\Program Files (x86)\Microsoft Visual Studio\2019\Community\VC\Tools\MSVC\14.29.30133\atlmfc\include\afxtempl.h
; File C:\Program Files (x86)\Microsoft Visual Studio\2019\Community\VC\Tools\MSVC\14.29.30133\atlmfc\include\afx.inl
; File C:\Program Files (x86)\Microsoft Visual Studio\2019\Community\VC\Tools\MSVC\14.29.30133\atlmfc\include\afxtempl.h
; File C:\Program Files (x86)\Microsoft Visual Studio\2019\Community\VC\Tools\MSVC\14.29.30133\atlmfc\include\afx.inl
; File C:\Program Files (x86)\Microsoft Visual Studio\2019\Community\VC\Tools\MSVC\14.29.30133\atlmfc\include\afxtempl.h
;	COMDAT ?Serialize@?$CMap@HHV?$CStringT@DV?$StrTraitMFC_DLL@DV?$ChTraitsCRT@D@ATL@@@@@ATL@@V12@@@UAEXAAVCArchive@@@Z
_TEXT	SEGMENT
_nNewCount$1$ = -44					; size = 4
_nHashBucket$1$ = -40					; size = 4
_pValue$1$ = -40					; size = 4
_this$1$ = -36						; size = 4
_newKey$4 = -32						; size = 4
_pData$1$ = -28						; size = 4
_nElementsLeft$1$ = -28					; size = 4
_key$1$ = -28						; size = 4
_nHash$1$ = -28						; size = 4
tv846 = -24						; size = 4
_pData$1$ = -24						; size = 4
_pAssoc$1$ = -24					; size = 4
_pData$1$ = -20						; size = 4
_pData$1$ = -20						; size = 4
$T5 = -20						; size = 4
_nElementsLeft$1$ = -16					; size = 4
_newValue$6 = -16					; size = 4
__$EHRec$ = -12						; size = 12
_ar$ = 8						; size = 4
?Serialize@?$CMap@HHV?$CStringT@DV?$StrTraitMFC_DLL@DV?$ChTraitsCRT@D@ATL@@@@@ATL@@V12@@@UAEXAAVCArchive@@@Z PROC ; CMap<int,int,ATL::CStringT<char,StrTraitMFC_DLL<char,ATL::ChTraitsCRT<char> > >,ATL::CStringT<char,StrTraitMFC_DLL<char,ATL::ChTraitsCRT<char> > > >::Serialize, COMDAT
; _this$ = ecx

; 1743 : {

  00000	55		 push	 ebp
  00001	8b ec		 mov	 ebp, esp
  00003	6a ff		 push	 -1
  00005	68 00 00 00 00	 push	 __ehhandler$?Serialize@?$CMap@HHV?$CStringT@DV?$StrTraitMFC_DLL@DV?$ChTraitsCRT@D@ATL@@@@@ATL@@V12@@@UAEXAAVCArchive@@@Z
  0000a	64 a1 00 00 00
	00		 mov	 eax, DWORD PTR fs:0
  00010	50		 push	 eax
  00011	83 ec 20	 sub	 esp, 32			; 00000020H
  00014	56		 push	 esi
  00015	57		 push	 edi
  00016	a1 00 00 00 00	 mov	 eax, DWORD PTR ___security_cookie
  0001b	33 c5		 xor	 eax, ebp
  0001d	50		 push	 eax
  0001e	8d 45 f4	 lea	 eax, DWORD PTR __$EHRec$[ebp]
  00021	64 a3 00 00 00
	00		 mov	 DWORD PTR fs:0, eax
  00027	8b f9		 mov	 edi, ecx
  00029	89 7d dc	 mov	 DWORD PTR _this$1$[ebp], edi
; File C:\Program Files (x86)\Microsoft Visual Studio\2019\Community\VC\Tools\MSVC\14.29.30133\atlmfc\include\afx.inl

; 212  : 	{ return (m_nMode & CArchive::load) == 0; }

  0002c	8b 4d 08	 mov	 ecx, DWORD PTR _ar$[ebp]
  0002f	8b 41 18	 mov	 eax, DWORD PTR [ecx+24]
  00032	f7 d0		 not	 eax
  00034	a8 01		 test	 al, 1
; File C:\Program Files (x86)\Microsoft Visual Studio\2019\Community\VC\Tools\MSVC\14.29.30133\atlmfc\include\afxtempl.h

; 1748 : 	if (ar.IsStoring())

  00036	0f 84 0e 01 00
	00		 je	 $LN10@Serialize

; 1749 : 	{
; 1750 : 		ar.WriteCount(m_nCount);

  0003c	ff 77 0c	 push	 DWORD PTR [edi+12]
  0003f	e8 00 00 00 00	 call	 ?WriteCount@CArchive@@QAEXK@Z ; CArchive::WriteCount

; 1751 : 		if (m_nCount == 0)

  00044	83 7f 0c 00	 cmp	 DWORD PTR [edi+12], 0
  00048	0f 84 e9 00 00
	00		 je	 $LN140@Serialize

; 1752 : 			return;  // nothing more to do
; 1753 : 
; 1754 : 		ASSERT(m_pHashTable != NULL);
; 1755 : 		if (m_pHashTable != NULL)

  0004e	83 7f 04 00	 cmp	 DWORD PTR [edi+4], 0
  00052	0f 84 df 00 00
	00		 je	 $LN140@Serialize

; 1756 : 		{
; 1757 : 			for (UINT nHash = 0; nHash < m_nHashTableSize; nHash++)

  00058	33 c9		 xor	 ecx, ecx
  0005a	89 4d e4	 mov	 DWORD PTR _nHash$1$[ebp], ecx
  0005d	39 4f 08	 cmp	 DWORD PTR [edi+8], ecx
  00060	0f 86 d1 00 00
	00		 jbe	 $LN140@Serialize
$LL4@Serialize:

; 1758 : 			{
; 1759 : 				CAssoc* pAssoc;
; 1760 : 				for (pAssoc = m_pHashTable[nHash]; pAssoc != NULL; pAssoc = pAssoc->pNext)

  00066	8b 47 04	 mov	 eax, DWORD PTR [edi+4]
  00069	8b 14 88	 mov	 edx, DWORD PTR [eax+ecx*4]
  0006c	89 55 e8	 mov	 DWORD PTR _pAssoc$1$[ebp], edx
  0006f	85 d2		 test	 edx, edx
  00071	0f 84 b3 00 00
	00		 je	 $LN2@Serialize
$LL7@Serialize:
; File C:\Program Files (x86)\Microsoft Visual Studio\2019\Community\VC\Tools\MSVC\14.29.30133\atlmfc\include\afx.inl

; 212  : 	{ return (m_nMode & CArchive::load) == 0; }

  00077	8b 4d 08	 mov	 ecx, DWORD PTR _ar$[ebp]
; File C:\Program Files (x86)\Microsoft Visual Studio\2019\Community\VC\Tools\MSVC\14.29.30133\atlmfc\include\afxtempl.h

; 1770 : 					pValue = reinterpret_cast< VALUE* >( &reinterpret_cast< int& >( static_cast< VALUE& >( pAssoc->value ) ) );

  0007a	8d 42 04	 lea	 eax, DWORD PTR [edx+4]
  0007d	89 45 d8	 mov	 DWORD PTR _pValue$1$[ebp], eax

; 73   : 	if (ar.IsStoring())

  00080	89 55 ec	 mov	 DWORD PTR _pData$1$[ebp], edx
; File C:\Program Files (x86)\Microsoft Visual Studio\2019\Community\VC\Tools\MSVC\14.29.30133\atlmfc\include\afx.inl

; 212  : 	{ return (m_nMode & CArchive::load) == 0; }

  00083	8b 41 18	 mov	 eax, DWORD PTR [ecx+24]
  00086	f7 d0		 not	 eax
  00088	a8 01		 test	 al, 1
; File C:\Program Files (x86)\Microsoft Visual Studio\2019\Community\VC\Tools\MSVC\14.29.30133\atlmfc\include\afxtempl.h

; 73   : 	if (ar.IsStoring())

  0008a	74 3b		 je	 SHORT $LN28@Serialize

; 74   : 	{
; 75   : 		TYPE* pData;
; 76   : 		UINT_PTR nElementsLeft;
; 77   : 
; 78   : 		nElementsLeft = nCount;

  0008c	b8 01 00 00 00	 mov	 eax, 1

; 79   : 		pData = pElements;

  00091	8b ca		 mov	 ecx, edx
  00093	89 45 f0	 mov	 DWORD PTR _nElementsLeft$1$[ebp], eax
$LL23@Serialize:

; 80   : 		while( nElementsLeft > 0 )
; 81   : 		{
; 82   : 			UINT nElementsToWrite;
; 83   : 
; 84   : 			nElementsToWrite = UINT(__min(nElementsLeft, INT_MAX/sizeof(TYPE)));

  00096	bf ff ff ff 1f	 mov	 edi, 536870911		; 1fffffffH
  0009b	3b c7		 cmp	 eax, edi
  0009d	0f 42 f8	 cmovb	 edi, eax

; 85   : 			ar.Write(pData, nElementsToWrite*sizeof(TYPE));

  000a0	8d 34 bd 00 00
	00 00		 lea	 esi, DWORD PTR [edi*4]
  000a7	56		 push	 esi
  000a8	51		 push	 ecx
  000a9	8b 4d 08	 mov	 ecx, DWORD PTR _ar$[ebp]
  000ac	e8 00 00 00 00	 call	 ?Write@CArchive@@QAEXPBXI@Z ; CArchive::Write

; 86   : 			nElementsLeft -= nElementsToWrite;

  000b1	8b 45 f0	 mov	 eax, DWORD PTR _nElementsLeft$1$[ebp]

; 87   : 			pData += nElementsToWrite;

  000b4	8b 4d ec	 mov	 ecx, DWORD PTR _pData$1$[ebp]
  000b7	2b c7		 sub	 eax, edi
  000b9	03 ce		 add	 ecx, esi
  000bb	89 45 f0	 mov	 DWORD PTR _nElementsLeft$1$[ebp], eax
  000be	89 4d ec	 mov	 DWORD PTR _pData$1$[ebp], ecx
  000c1	85 c0		 test	 eax, eax
  000c3	75 d1		 jne	 SHORT $LL23@Serialize

; 88   : 		}
; 89   : 	}

  000c5	eb 3f		 jmp	 SHORT $LN26@Serialize
$LN28@Serialize:

; 90   : 	else
; 91   : 	{
; 92   : 		TYPE* pData;
; 93   : 		UINT_PTR nElementsLeft;
; 94   : 
; 95   : 		nElementsLeft = nCount;

  000c7	be 01 00 00 00	 mov	 esi, 1
  000cc	0f 1f 40 00	 npad	 4
$LL25@Serialize:

; 97   : 		while( nElementsLeft > 0 )
; 98   : 		{
; 99   : 			UINT nElementsToRead;
; 100  : 
; 101  : 			nElementsToRead = UINT(__min(nElementsLeft, INT_MAX/sizeof(TYPE)));

  000d0	bf ff ff ff 1f	 mov	 edi, 536870911		; 1fffffffH
  000d5	3b f7		 cmp	 esi, edi
  000d7	0f 42 fe	 cmovb	 edi, esi

; 102  : 			ar.EnsureRead(pData, nElementsToRead*sizeof(TYPE));

  000da	8d 04 bd 00 00
	00 00		 lea	 eax, DWORD PTR [edi*4]
; File C:\Program Files (x86)\Microsoft Visual Studio\2019\Community\VC\Tools\MSVC\14.29.30133\atlmfc\include\afx.inl

; 399  : 	UINT nRead=Read(lpBuf, nCount);

  000e1	50		 push	 eax
  000e2	52		 push	 edx
  000e3	e8 00 00 00 00	 call	 ?Read@CArchive@@QAEIPAXI@Z ; CArchive::Read

; 400  : 	if(nRead!=nCount)

  000e8	8d 0c bd 00 00
	00 00		 lea	 ecx, DWORD PTR [edi*4]
  000ef	3b c1		 cmp	 eax, ecx
  000f1	0f 85 a3 02 00
	00		 jne	 $LN123@Serialize
; File C:\Program Files (x86)\Microsoft Visual Studio\2019\Community\VC\Tools\MSVC\14.29.30133\atlmfc\include\afxtempl.h

; 104  : 			pData += nElementsToRead;

  000f7	8b 55 ec	 mov	 edx, DWORD PTR _pData$1$[ebp]
  000fa	03 d1		 add	 edx, ecx
  000fc	8b 4d 08	 mov	 ecx, DWORD PTR _ar$[ebp]
  000ff	89 55 ec	 mov	 DWORD PTR _pData$1$[ebp], edx
  00102	2b f7		 sub	 esi, edi
  00104	75 ca		 jne	 SHORT $LL25@Serialize
$LN26@Serialize:

; 1771 : 					SerializeElements<KEY>(ar, pKey, 1);
; 1772 : 					SerializeElements<VALUE>(ar, pValue, 1);

  00106	6a 01		 push	 1
  00108	ff 75 d8	 push	 DWORD PTR _pValue$1$[ebp]
  0010b	ff 75 08	 push	 DWORD PTR _ar$[ebp]
  0010e	e8 00 00 00 00	 call	 ??$SerializeElements@V?$CStringT@DV?$StrTraitMFC_DLL@DV?$ChTraitsCRT@D@ATL@@@@@ATL@@@@YGXAAVCArchive@@PAV?$CStringT@DV?$StrTraitMFC_DLL@DV?$ChTraitsCRT@D@ATL@@@@@ATL@@H@Z ; SerializeElements<ATL::CStringT<char,StrTraitMFC_DLL<char,ATL::ChTraitsCRT<char> > > >
  00113	8b 55 e8	 mov	 edx, DWORD PTR _pAssoc$1$[ebp]
  00116	8b 52 08	 mov	 edx, DWORD PTR [edx+8]
  00119	89 55 e8	 mov	 DWORD PTR _pAssoc$1$[ebp], edx
  0011c	85 d2		 test	 edx, edx
  0011e	0f 85 53 ff ff
	ff		 jne	 $LL7@Serialize
  00124	8b 7d dc	 mov	 edi, DWORD PTR _this$1$[ebp]
  00127	8b 4d e4	 mov	 ecx, DWORD PTR _nHash$1$[ebp]
$LN2@Serialize:

; 1756 : 		{
; 1757 : 			for (UINT nHash = 0; nHash < m_nHashTableSize; nHash++)

  0012a	41		 inc	 ecx
  0012b	89 4d e4	 mov	 DWORD PTR _nHash$1$[ebp], ecx
  0012e	3b 4f 08	 cmp	 ecx, DWORD PTR [edi+8]
  00131	0f 82 2f ff ff
	ff		 jb	 $LL4@Serialize
$LN140@Serialize:

; 1788 : 	}
; 1789 : }

  00137	8b 4d f4	 mov	 ecx, DWORD PTR __$EHRec$[ebp]
  0013a	64 89 0d 00 00
	00 00		 mov	 DWORD PTR fs:0, ecx
  00141	59		 pop	 ecx
  00142	5f		 pop	 edi
  00143	5e		 pop	 esi
  00144	8b e5		 mov	 esp, ebp
  00146	5d		 pop	 ebp
  00147	c2 04 00	 ret	 4
$LN10@Serialize:

; 1773 : 				}
; 1774 : 			}
; 1775 : 		}
; 1776 : 	}
; 1777 : 	else
; 1778 : 	{
; 1779 : 		DWORD_PTR nNewCount = ar.ReadCount();

  0014a	e8 00 00 00 00	 call	 ?ReadCount@CArchive@@QAEKXZ ; CArchive::ReadCount

; 1780 : 		while (nNewCount--)

  0014f	85 c0		 test	 eax, eax
  00151	74 e4		 je	 SHORT $LN140@Serialize
$LL8@Serialize:

; 1781 : 		{
; 1782 : 			KEY newKey[1];
; 1783 : 			VALUE newValue[1];

  00153	ff 35 00 00 00
	00		 push	 DWORD PTR __imp_??1?$CStringT@DV?$StrTraitMFC_DLL@DV?$ChTraitsCRT@D@ATL@@@@@ATL@@QAE@XZ
  00159	48		 dec	 eax
  0015a	ff 35 00 00 00
	00		 push	 DWORD PTR __imp_??0?$CStringT@DV?$StrTraitMFC_DLL@DV?$ChTraitsCRT@D@ATL@@@@@ATL@@QAE@XZ
  00160	89 45 d4	 mov	 DWORD PTR _nNewCount$1$[ebp], eax
  00163	8d 45 f0	 lea	 eax, DWORD PTR _newValue$6[ebp]
  00166	6a 01		 push	 1
  00168	6a 04		 push	 4
  0016a	50		 push	 eax
  0016b	e8 00 00 00 00	 call	 ??_L@YGXPAXIIP6EX0@Z1@Z
; File C:\Program Files (x86)\Microsoft Visual Studio\2019\Community\VC\Tools\MSVC\14.29.30133\atlmfc\include\afx.inl

; 212  : 	{ return (m_nMode & CArchive::load) == 0; }

  00170	8b 4d 08	 mov	 ecx, DWORD PTR _ar$[ebp]
; File C:\Program Files (x86)\Microsoft Visual Studio\2019\Community\VC\Tools\MSVC\14.29.30133\atlmfc\include\afxtempl.h

; 73   : 	if (ar.IsStoring())

  00173	8d 55 e0	 lea	 edx, DWORD PTR _newKey$4[ebp]

; 1781 : 		{
; 1782 : 			KEY newKey[1];
; 1783 : 			VALUE newValue[1];

  00176	c7 45 fc 00 00
	00 00		 mov	 DWORD PTR __$EHRec$[ebp+8], 0
; File C:\Program Files (x86)\Microsoft Visual Studio\2019\Community\VC\Tools\MSVC\14.29.30133\atlmfc\include\afx.inl

; 212  : 	{ return (m_nMode & CArchive::load) == 0; }

  0017d	8b 41 18	 mov	 eax, DWORD PTR [ecx+24]
  00180	f7 d0		 not	 eax
  00182	a8 01		 test	 al, 1
; File C:\Program Files (x86)\Microsoft Visual Studio\2019\Community\VC\Tools\MSVC\14.29.30133\atlmfc\include\afxtempl.h

; 73   : 	if (ar.IsStoring())

  00184	74 3c		 je	 SHORT $LN49@Serialize

; 74   : 	{
; 75   : 		TYPE* pData;
; 76   : 		UINT_PTR nElementsLeft;
; 77   : 
; 78   : 		nElementsLeft = nCount;

  00186	b8 01 00 00 00	 mov	 eax, 1

; 79   : 		pData = pElements;

  0018b	89 55 e8	 mov	 DWORD PTR _pData$1$[ebp], edx
  0018e	89 45 e4	 mov	 DWORD PTR _nElementsLeft$1$[ebp], eax
$LL44@Serialize:

; 80   : 		while( nElementsLeft > 0 )
; 81   : 		{
; 82   : 			UINT nElementsToWrite;
; 83   : 
; 84   : 			nElementsToWrite = UINT(__min(nElementsLeft, INT_MAX/sizeof(TYPE)));

  00191	bf ff ff ff 1f	 mov	 edi, 536870911		; 1fffffffH
  00196	3b c7		 cmp	 eax, edi
  00198	0f 42 f8	 cmovb	 edi, eax

; 85   : 			ar.Write(pData, nElementsToWrite*sizeof(TYPE));

  0019b	8d 34 bd 00 00
	00 00		 lea	 esi, DWORD PTR [edi*4]
  001a2	56		 push	 esi
  001a3	52		 push	 edx
  001a4	e8 00 00 00 00	 call	 ?Write@CArchive@@QAEXPBXI@Z ; CArchive::Write

; 86   : 			nElementsLeft -= nElementsToWrite;

  001a9	8b 45 e4	 mov	 eax, DWORD PTR _nElementsLeft$1$[ebp]

; 87   : 			pData += nElementsToWrite;

  001ac	8b 55 e8	 mov	 edx, DWORD PTR _pData$1$[ebp]
  001af	2b c7		 sub	 eax, edi
  001b1	8b 4d 08	 mov	 ecx, DWORD PTR _ar$[ebp]
  001b4	03 d6		 add	 edx, esi
  001b6	89 45 e4	 mov	 DWORD PTR _nElementsLeft$1$[ebp], eax
  001b9	89 55 e8	 mov	 DWORD PTR _pData$1$[ebp], edx
  001bc	85 c0		 test	 eax, eax
  001be	75 d1		 jne	 SHORT $LL44@Serialize

; 88   : 		}
; 89   : 	}

  001c0	eb 44		 jmp	 SHORT $LN47@Serialize
$LN49@Serialize:

; 90   : 	else
; 91   : 	{
; 92   : 		TYPE* pData;
; 93   : 		UINT_PTR nElementsLeft;
; 94   : 
; 95   : 		nElementsLeft = nCount;

  001c2	be 01 00 00 00	 mov	 esi, 1

; 96   : 		pData = pElements;

  001c7	89 55 e4	 mov	 DWORD PTR _pData$1$[ebp], edx
  001ca	66 0f 1f 44 00
	00		 npad	 6
$LL46@Serialize:

; 97   : 		while( nElementsLeft > 0 )
; 98   : 		{
; 99   : 			UINT nElementsToRead;
; 100  : 
; 101  : 			nElementsToRead = UINT(__min(nElementsLeft, INT_MAX/sizeof(TYPE)));

  001d0	bf ff ff ff 1f	 mov	 edi, 536870911		; 1fffffffH
  001d5	3b f7		 cmp	 esi, edi
  001d7	0f 42 fe	 cmovb	 edi, esi

; 102  : 			ar.EnsureRead(pData, nElementsToRead*sizeof(TYPE));

  001da	8d 04 bd 00 00
	00 00		 lea	 eax, DWORD PTR [edi*4]
; File C:\Program Files (x86)\Microsoft Visual Studio\2019\Community\VC\Tools\MSVC\14.29.30133\atlmfc\include\afx.inl

; 399  : 	UINT nRead=Read(lpBuf, nCount);

  001e1	50		 push	 eax
  001e2	52		 push	 edx
  001e3	e8 00 00 00 00	 call	 ?Read@CArchive@@QAEIPAXI@Z ; CArchive::Read

; 400  : 	if(nRead!=nCount)

  001e8	8d 0c bd 00 00
	00 00		 lea	 ecx, DWORD PTR [edi*4]
  001ef	3b c1		 cmp	 eax, ecx
  001f1	0f 85 a3 01 00
	00		 jne	 $LN123@Serialize
; File C:\Program Files (x86)\Microsoft Visual Studio\2019\Community\VC\Tools\MSVC\14.29.30133\atlmfc\include\afxtempl.h

; 104  : 			pData += nElementsToRead;

  001f7	8b 55 e4	 mov	 edx, DWORD PTR _pData$1$[ebp]
  001fa	03 d1		 add	 edx, ecx
  001fc	8b 4d 08	 mov	 ecx, DWORD PTR _ar$[ebp]
  001ff	89 55 e4	 mov	 DWORD PTR _pData$1$[ebp], edx
  00202	2b f7		 sub	 esi, edi
  00204	75 ca		 jne	 SHORT $LL46@Serialize
$LN47@Serialize:

; 1784 : 			SerializeElements<KEY>(ar, newKey, 1);
; 1785 : 			SerializeElements<VALUE>(ar, newValue, 1);

  00206	6a 01		 push	 1
  00208	8d 45 f0	 lea	 eax, DWORD PTR _newValue$6[ebp]
  0020b	50		 push	 eax
  0020c	ff 75 08	 push	 DWORD PTR _ar$[ebp]
  0020f	e8 00 00 00 00	 call	 ??$SerializeElements@V?$CStringT@DV?$StrTraitMFC_DLL@DV?$ChTraitsCRT@D@ATL@@@@@ATL@@@@YGXAAVCArchive@@PAV?$CStringT@DV?$StrTraitMFC_DLL@DV?$ChTraitsCRT@D@ATL@@@@@ATL@@H@Z ; SerializeElements<ATL::CStringT<char,StrTraitMFC_DLL<char,ATL::ChTraitsCRT<char> > > >

; 1786 : 			SetAt(newKey[0], newValue[0]);

  00214	8d 45 f0	 lea	 eax, DWORD PTR _newValue$6[ebp]
  00217	50		 push	 eax
  00218	8d 4d ec	 lea	 ecx, DWORD PTR $T5[ebp]
  0021b	ff 15 00 00 00
	00		 call	 DWORD PTR __imp_??0?$CStringT@DV?$StrTraitMFC_DLL@DV?$ChTraitsCRT@D@ATL@@@@@ATL@@QAE@ABV01@@Z
  00221	8b 45 e0	 mov	 eax, DWORD PTR _newKey$4[ebp]
  00224	89 45 e4	 mov	 DWORD PTR _key$1$[ebp], eax

; 1350 : 	{ (*this)[key] = newValue; }

  00227	99		 cdq
  00228	b9 1d f3 01 00	 mov	 ecx, 127773		; 0001f31dH
  0022d	f7 f9		 idiv	 ecx

; 1534 : 	nHashBucket = nHashValue % m_nHashTableSize;

  0022f	8b 7d dc	 mov	 edi, DWORD PTR _this$1$[ebp]

; 166  : 	HashVal.rem = 16807 * HashVal.rem - 2836 * HashVal.quot;

  00232	69 c0 14 0b 00
	00		 imul	 eax, eax, 2836
  00238	69 ca a7 41 00
	00		 imul	 ecx, edx, 16807

; 1350 : 	{ (*this)[key] = newValue; }

  0023e	c6 45 fc 01	 mov	 BYTE PTR __$EHRec$[ebp+8], 1

; 1534 : 	nHashBucket = nHashValue % m_nHashTableSize;

  00242	8b 77 08	 mov	 esi, DWORD PTR [edi+8]

; 166  : 	HashVal.rem = 16807 * HashVal.rem - 2836 * HashVal.quot;

  00245	2b c8		 sub	 ecx, eax

; 1534 : 	nHashBucket = nHashValue % m_nHashTableSize;

  00247	8d 81 ff ff ff
	7f		 lea	 eax, DWORD PTR [ecx+2147483647]
  0024d	0f 49 c1	 cmovns	 eax, ecx
  00250	33 d2		 xor	 edx, edx
  00252	89 45 e8	 mov	 DWORD PTR tv846[ebp], eax
  00255	f7 f6		 div	 esi

; 1535 : 
; 1536 : 	if (m_pHashTable == NULL)

  00257	8b 47 04	 mov	 eax, DWORD PTR [edi+4]
  0025a	8b ca		 mov	 ecx, edx
  0025c	89 4d d8	 mov	 DWORD PTR _nHashBucket$1$[ebp], ecx
  0025f	85 c0		 test	 eax, eax
  00261	75 48		 jne	 SHORT $LN75@Serialize

; 1434 : 		m_pHashTable = new CAssoc* [nHashSize];

  00263	33 c9		 xor	 ecx, ecx
  00265	8b c6		 mov	 eax, esi
  00267	ba 04 00 00 00	 mov	 edx, 4
  0026c	f7 e2		 mul	 edx
  0026e	0f 90 c1	 seto	 cl
  00271	f7 d9		 neg	 ecx
  00273	0b c8		 or	 ecx, eax
  00275	51		 push	 ecx
  00276	e8 00 00 00 00	 call	 ??_U@YAPAXI@Z		; operator new[]
  0027b	83 c4 04	 add	 esp, 4
  0027e	89 47 04	 mov	 DWORD PTR [edi+4], eax

; 1435 : 		ENSURE(m_pHashTable != NULL);

  00281	85 c0		 test	 eax, eax
  00283	0f 84 1a 01 00
	00		 je	 $LN131@Serialize

; 1436 : 		memset(m_pHashTable, 0, sizeof(CAssoc*) * nHashSize);

  00289	8d 0c b5 00 00
	00 00		 lea	 ecx, DWORD PTR [esi*4]
  00290	51		 push	 ecx
  00291	6a 00		 push	 0
  00293	50		 push	 eax
  00294	e8 00 00 00 00	 call	 _memset
  00299	83 c4 0c	 add	 esp, 12			; 0000000cH

; 1437 : 	}
; 1438 : 	m_nHashTableSize = nHashSize;

  0029c	89 77 08	 mov	 DWORD PTR [edi+8], esi

; 1595 : 		ENSURE(m_pHashTable);

  0029f	83 7f 04 00	 cmp	 DWORD PTR [edi+4], 0
  002a3	0f 84 fa 00 00
	00		 je	 $LN131@Serialize
  002a9	eb 21		 jmp	 SHORT $LN166@Serialize
$LN75@Serialize:

; 1541 : 	for (pAssoc = m_pHashTable[nHashBucket]; pAssoc != NULL; pAssoc = pAssoc->pNext)

  002ab	8b 34 88	 mov	 esi, DWORD PTR [eax+ecx*4]
  002ae	85 f6		 test	 esi, esi
  002b0	74 1a		 je	 SHORT $LN166@Serialize
  002b2	8b 45 e8	 mov	 eax, DWORD PTR tv846[ebp]
  002b5	8b 4d e4	 mov	 ecx, DWORD PTR _key$1$[ebp]
$LL74@Serialize:

; 1542 : 	{
; 1543 : 		if (pAssoc->nHashValue == nHashValue && CompareElements(&pAssoc->key, &key))

  002b8	39 46 0c	 cmp	 DWORD PTR [esi+12], eax
  002bb	75 08		 jne	 SHORT $LN72@Serialize
  002bd	39 0e		 cmp	 DWORD PTR [esi], ecx
  002bf	0f 84 87 00 00
	00		 je	 $LN67@Serialize
$LN72@Serialize:

; 1537 : 		return NULL;
; 1538 : 
; 1539 : 	// see if it exists
; 1540 : 	CAssoc* pAssoc;
; 1541 : 	for (pAssoc = m_pHashTable[nHashBucket]; pAssoc != NULL; pAssoc = pAssoc->pNext)

  002c5	8b 76 08	 mov	 esi, DWORD PTR [esi+8]
  002c8	85 f6		 test	 esi, esi
  002ca	75 ec		 jne	 SHORT $LL74@Serialize
$LN166@Serialize:

; 1481 : 	if (m_pFreeList == NULL)

  002cc	83 7f 10 00	 cmp	 DWORD PTR [edi+16], 0
  002d0	75 31		 jne	 SHORT $LN105@Serialize

; 1482 : 	{
; 1483 : 		// add another block
; 1484 : 		CPlex* newBlock = CPlex::Create(m_pBlocks, m_nBlockSize, sizeof(CMap::CAssoc));

  002d2	6a 10		 push	 16			; 00000010H
  002d4	ff 77 18	 push	 DWORD PTR [edi+24]
  002d7	8d 47 14	 lea	 eax, DWORD PTR [edi+20]
  002da	50		 push	 eax
  002db	e8 00 00 00 00	 call	 ?Create@CPlex@@SGPAU1@AAPAU1@II@Z ; CPlex::Create

; 1485 : 		// chain them into free list
; 1486 : 		CMap::CAssoc* pAssoc = (CMap::CAssoc*) newBlock->data();
; 1487 : 		// free in reverse order to make it easier to debug
; 1488 : 		pAssoc += m_nBlockSize - 1;

  002e0	8b 57 18	 mov	 edx, DWORD PTR [edi+24]
  002e3	8b ca		 mov	 ecx, edx
  002e5	c1 e1 04	 shl	 ecx, 4
  002e8	83 c1 f8	 add	 ecx, -8			; fffffff8H
  002eb	03 c8		 add	 ecx, eax

; 1489 : 		for (INT_PTR i = m_nBlockSize-1; i >= 0; i--, pAssoc--)

  002ed	83 c2 ff	 add	 edx, -1
  002f0	78 11		 js	 SHORT $LN105@Serialize
$LL102@Serialize:

; 1490 : 		{
; 1491 : 			pAssoc->pNext = m_pFreeList;

  002f2	8b 47 10	 mov	 eax, DWORD PTR [edi+16]
  002f5	89 41 08	 mov	 DWORD PTR [ecx+8], eax

; 1492 : 			m_pFreeList = pAssoc;

  002f8	89 4f 10	 mov	 DWORD PTR [edi+16], ecx
  002fb	83 e9 10	 sub	 ecx, 16			; 00000010H
  002fe	83 ea 01	 sub	 edx, 1
  00301	79 ef		 jns	 SHORT $LL102@Serialize
$LN105@Serialize:

; 1493 : 		}
; 1494 : 	}
; 1495 : 	ENSURE(m_pFreeList != NULL);  // we must have something

  00303	8b 77 10	 mov	 esi, DWORD PTR [edi+16]
  00306	85 f6		 test	 esi, esi
  00308	0f 84 95 00 00
	00		 je	 $LN131@Serialize

; 1496 : 
; 1497 : 	CMap::CAssoc* pAssoc = m_pFreeList;
; 1498 : 
; 1499 : 	// zero the memory
; 1500 : 	CMap::CAssoc* pTemp = pAssoc->pNext;

  0030e	8b 46 08	 mov	 eax, DWORD PTR [esi+8]

; 1256 : 		CPair( ARG_KEY keyval ) : key( keyval )	{}

  00311	8d 4e 04	 lea	 ecx, DWORD PTR [esi+4]
  00314	0f 57 c0	 xorps	 xmm0, xmm0

; 1501 : 	memset( pAssoc, 0, sizeof(CMap::CAssoc) );

  00317	0f 11 06	 movups	 XMMWORD PTR [esi], xmm0

; 1502 : 	pAssoc->pNext = pTemp;

  0031a	89 46 08	 mov	 DWORD PTR [esi+8], eax

; 1503 : 
; 1504 : 	m_pFreeList = m_pFreeList->pNext;

  0031d	8b 47 10	 mov	 eax, DWORD PTR [edi+16]
  00320	8b 40 08	 mov	 eax, DWORD PTR [eax+8]

; 1505 : 	m_nCount++;

  00323	ff 47 0c	 inc	 DWORD PTR [edi+12]
  00326	89 47 10	 mov	 DWORD PTR [edi+16], eax

; 1256 : 		CPair( ARG_KEY keyval ) : key( keyval )	{}

  00329	8b 45 e4	 mov	 eax, DWORD PTR _key$1$[ebp]
  0032c	89 06		 mov	 DWORD PTR [esi], eax
  0032e	ff 15 00 00 00
	00		 call	 DWORD PTR __imp_??0?$CStringT@DV?$StrTraitMFC_DLL@DV?$ChTraitsCRT@D@ATL@@@@@ATL@@QAE@XZ

; 1598 : 		pAssoc->nHashValue = nHashValue;

  00334	8b 45 e8	 mov	 eax, DWORD PTR tv846[ebp]

; 1599 : 		//'pAssoc->value' is a constructed object, nothing more
; 1600 : 
; 1601 : 		// put into hash table
; 1602 : 		pAssoc->pNext = m_pHashTable[nHashBucket];

  00337	8b 4d d8	 mov	 ecx, DWORD PTR _nHashBucket$1$[ebp]
  0033a	89 46 0c	 mov	 DWORD PTR [esi+12], eax
  0033d	8b 47 04	 mov	 eax, DWORD PTR [edi+4]
  00340	8b 04 88	 mov	 eax, DWORD PTR [eax+ecx*4]
  00343	89 46 08	 mov	 DWORD PTR [esi+8], eax

; 1603 : 		m_pHashTable[nHashBucket] = pAssoc;

  00346	8b 47 04	 mov	 eax, DWORD PTR [edi+4]
  00349	89 34 88	 mov	 DWORD PTR [eax+ecx*4], esi
$LN67@Serialize:

; 1350 : 	{ (*this)[key] = newValue; }

  0034c	8d 45 ec	 lea	 eax, DWORD PTR $T5[ebp]

; 1605 : 	return pAssoc->value;  // return new reference

  0034f	8d 4e 04	 lea	 ecx, DWORD PTR [esi+4]

; 1350 : 	{ (*this)[key] = newValue; }

  00352	50		 push	 eax
  00353	ff 15 00 00 00
	00		 call	 DWORD PTR __imp_??4?$CStringT@DV?$StrTraitMFC_DLL@DV?$ChTraitsCRT@D@ATL@@@@@ATL@@QAEAAV01@ABV01@@Z
  00359	8d 4d ec	 lea	 ecx, DWORD PTR $T5[ebp]
  0035c	ff 15 00 00 00
	00		 call	 DWORD PTR __imp_??1?$CStringT@DV?$StrTraitMFC_DLL@DV?$ChTraitsCRT@D@ATL@@@@@ATL@@QAE@XZ

; 1787 : 		}

  00362	ff 35 00 00 00
	00		 push	 DWORD PTR __imp_??1?$CStringT@DV?$StrTraitMFC_DLL@DV?$ChTraitsCRT@D@ATL@@@@@ATL@@QAE@XZ
  00368	8d 45 f0	 lea	 eax, DWORD PTR _newValue$6[ebp]
  0036b	c7 45 fc ff ff
	ff ff		 mov	 DWORD PTR __$EHRec$[ebp+8], -1
  00372	6a 01		 push	 1
  00374	6a 04		 push	 4
  00376	50		 push	 eax
  00377	e8 00 00 00 00	 call	 ??_M@YGXPAXIIP6EX0@Z@Z
  0037c	8b 45 d4	 mov	 eax, DWORD PTR _nNewCount$1$[ebp]
  0037f	85 c0		 test	 eax, eax
  00381	0f 85 cc fd ff
	ff		 jne	 $LL8@Serialize

; 1788 : 	}
; 1789 : }

  00387	8b 4d f4	 mov	 ecx, DWORD PTR __$EHRec$[ebp]
  0038a	64 89 0d 00 00
	00 00		 mov	 DWORD PTR fs:0, ecx
  00391	59		 pop	 ecx
  00392	5f		 pop	 edi
  00393	5e		 pop	 esi
  00394	8b e5		 mov	 esp, ebp
  00396	5d		 pop	 ebp
  00397	c2 04 00	 ret	 4
$LN123@Serialize:
  0039a	6a 00		 push	 0
  0039c	6a 03		 push	 3
  0039e	e8 00 00 00 00	 call	 ?AfxThrowArchiveException@@YGXHPBD@Z ; AfxThrowArchiveException
$LN131@Serialize:

; 1495 : 	ENSURE(m_pFreeList != NULL);  // we must have something

  003a3	e8 00 00 00 00	 call	 ?AfxThrowInvalidArgException@@YGXXZ ; AfxThrowInvalidArgException
$LN168@Serialize:
  003a8	cc		 int	 3
_TEXT	ENDS
;	COMDAT text$x
text$x	SEGMENT
__unwindfunclet$?Serialize@?$CMap@HHV?$CStringT@DV?$StrTraitMFC_DLL@DV?$ChTraitsCRT@D@ATL@@@@@ATL@@V12@@@UAEXAAVCArchive@@@Z$0:
  00000	a1 00 00 00 00	 mov	 eax, DWORD PTR __imp_??1?$CStringT@DV?$StrTraitMFC_DLL@DV?$ChTraitsCRT@D@ATL@@@@@ATL@@QAE@XZ
  00005	50		 push	 eax
  00006	6a 01		 push	 1
  00008	6a 04		 push	 4
  0000a	8d 45 f0	 lea	 eax, DWORD PTR _newValue$6[ebp]
  0000d	50		 push	 eax
  0000e	e8 00 00 00 00	 call	 ??_M@YGXPAXIIP6EX0@Z@Z
  00013	c3		 ret	 0
__unwindfunclet$?Serialize@?$CMap@HHV?$CStringT@DV?$StrTraitMFC_DLL@DV?$ChTraitsCRT@D@ATL@@@@@ATL@@V12@@@UAEXAAVCArchive@@@Z$2:
  00014	8d 4d ec	 lea	 ecx, DWORD PTR $T5[ebp]
  00017	ff 25 00 00 00
	00		 jmp	 DWORD PTR __imp_??1?$CStringT@DV?$StrTraitMFC_DLL@DV?$ChTraitsCRT@D@ATL@@@@@ATL@@QAE@XZ
  0001d	cc		 int	 3
  0001e	cc		 int	 3
  0001f	cc		 int	 3
  00020	cc		 int	 3
  00021	cc		 int	 3
__ehhandler$?Serialize@?$CMap@HHV?$CStringT@DV?$StrTraitMFC_DLL@DV?$ChTraitsCRT@D@ATL@@@@@ATL@@V12@@@UAEXAAVCArchive@@@Z:
  00022	90		 npad	 1
  00023	90		 npad	 1
  00024	8b 54 24 08	 mov	 edx, DWORD PTR [esp+8]
  00028	8d 42 0c	 lea	 eax, DWORD PTR [edx+12]
  0002b	8b 4a d4	 mov	 ecx, DWORD PTR [edx-44]
  0002e	33 c8		 xor	 ecx, eax
  00030	e8 00 00 00 00	 call	 @__security_check_cookie@4
  00035	b8 00 00 00 00	 mov	 eax, OFFSET __ehfuncinfo$?Serialize@?$CMap@HHV?$CStringT@DV?$StrTraitMFC_DLL@DV?$ChTraitsCRT@D@ATL@@@@@ATL@@V12@@@UAEXAAVCArchive@@@Z
  0003a	e9 00 00 00 00	 jmp	 ___CxxFrameHandler3
text$x	ENDS
?Serialize@?$CMap@HHV?$CStringT@DV?$StrTraitMFC_DLL@DV?$ChTraitsCRT@D@ATL@@@@@ATL@@V12@@@UAEXAAVCArchive@@@Z ENDP ; CMap<int,int,ATL::CStringT<char,StrTraitMFC_DLL<char,ATL::ChTraitsCRT<char> > >,ATL::CStringT<char,StrTraitMFC_DLL<char,ATL::ChTraitsCRT<char> > > >::Serialize
; Function compile flags: /Ogtp
; File C:\Program Files (x86)\Microsoft Visual Studio\2019\Community\VC\Tools\MSVC\14.29.30133\atlmfc\include\afxtempl.h
;	COMDAT ??1?$CMap@HHV?$CStringT@DV?$StrTraitMFC_DLL@DV?$ChTraitsCRT@D@ATL@@@@@ATL@@V12@@@UAE@XZ
_TEXT	SEGMENT
__$EHRec$ = -12						; size = 12
??1?$CMap@HHV?$CStringT@DV?$StrTraitMFC_DLL@DV?$ChTraitsCRT@D@ATL@@@@@ATL@@V12@@@UAE@XZ PROC ; CMap<int,int,ATL::CStringT<char,StrTraitMFC_DLL<char,ATL::ChTraitsCRT<char> > >,ATL::CStringT<char,StrTraitMFC_DLL<char,ATL::ChTraitsCRT<char> > > >::~CMap<int,int,ATL::CStringT<char,StrTraitMFC_DLL<char,ATL::ChTraitsCRT<char> > >,ATL::CStringT<char,StrTraitMFC_DLL<char,ATL::ChTraitsCRT<char> > > >, COMDAT
; _this$ = ecx

; 1472 : {

  00000	55		 push	 ebp
  00001	8b ec		 mov	 ebp, esp
  00003	6a ff		 push	 -1
  00005	68 00 00 00 00	 push	 __ehhandler$??1?$CMap@HHV?$CStringT@DV?$StrTraitMFC_DLL@DV?$ChTraitsCRT@D@ATL@@@@@ATL@@V12@@@UAE@XZ
  0000a	64 a1 00 00 00
	00		 mov	 eax, DWORD PTR fs:0
  00010	50		 push	 eax
  00011	53		 push	 ebx
  00012	56		 push	 esi
  00013	57		 push	 edi
  00014	a1 00 00 00 00	 mov	 eax, DWORD PTR ___security_cookie
  00019	33 c5		 xor	 eax, ebp
  0001b	50		 push	 eax
  0001c	8d 45 f4	 lea	 eax, DWORD PTR __$EHRec$[ebp]
  0001f	64 a3 00 00 00
	00		 mov	 DWORD PTR fs:0, eax
  00025	8b f9		 mov	 edi, ecx

; 1446 : 	if (m_pHashTable != NULL)

  00027	8b 47 04	 mov	 eax, DWORD PTR [edi+4]

; 1472 : {

  0002a	c7 07 00 00 00
	00		 mov	 DWORD PTR [edi], OFFSET ??_7?$CMap@HHV?$CStringT@DV?$StrTraitMFC_DLL@DV?$ChTraitsCRT@D@ATL@@@@@ATL@@V12@@@6B@

; 1446 : 	if (m_pHashTable != NULL)

  00030	85 c0		 test	 eax, eax
  00032	74 49		 je	 SHORT $LN10@CMap

; 1447 : 	{
; 1448 : 		// destroy elements (values and keys)
; 1449 : 		for (UINT nHash = 0; nHash < m_nHashTableSize; nHash++)

  00034	33 db		 xor	 ebx, ebx
  00036	39 5f 08	 cmp	 DWORD PTR [edi+8], ebx
  00039	76 32		 jbe	 SHORT $LN5@CMap
  0003b	0f 1f 44 00 00	 npad	 5
$LL6@CMap:

; 1450 : 		{
; 1451 : 			CAssoc* pAssoc;
; 1452 : 			for (pAssoc = m_pHashTable[nHash]; pAssoc != NULL;

  00040	8b 34 98	 mov	 esi, DWORD PTR [eax+ebx*4]
  00043	8b c8		 mov	 ecx, eax
  00045	85 f6		 test	 esi, esi
  00047	74 1c		 je	 SHORT $LN4@CMap
  00049	0f 1f 80 00 00
	00 00		 npad	 7
$LL9@CMap:
  00050	8d 4e 04	 lea	 ecx, DWORD PTR [esi+4]
  00053	ff 15 00 00 00
	00		 call	 DWORD PTR __imp_??1?$CStringT@DV?$StrTraitMFC_DLL@DV?$ChTraitsCRT@D@ATL@@@@@ATL@@QAE@XZ

; 1453 : 			  pAssoc = pAssoc->pNext)

  00059	8b 76 08	 mov	 esi, DWORD PTR [esi+8]
  0005c	85 f6		 test	 esi, esi
  0005e	75 f0		 jne	 SHORT $LL9@CMap
  00060	8b 47 04	 mov	 eax, DWORD PTR [edi+4]
  00063	8b c8		 mov	 ecx, eax
$LN4@CMap:

; 1447 : 	{
; 1448 : 		// destroy elements (values and keys)
; 1449 : 		for (UINT nHash = 0; nHash < m_nHashTableSize; nHash++)

  00065	43		 inc	 ebx
  00066	3b 5f 08	 cmp	 ebx, DWORD PTR [edi+8]
  00069	72 d5		 jb	 SHORT $LL6@CMap
  0006b	8b c1		 mov	 eax, ecx
$LN5@CMap:

; 1454 : 			{
; 1455 : 				pAssoc->CAssoc::~CAssoc();
; 1456 : 			}
; 1457 : 		}
; 1458 : 
; 1459 : 		// free hash table
; 1460 : 		delete[] m_pHashTable;

  0006d	50		 push	 eax
  0006e	e8 00 00 00 00	 call	 ??_V@YAXPAX@Z		; operator delete[]
  00073	83 c4 04	 add	 esp, 4

; 1461 : 		m_pHashTable = NULL;

  00076	c7 47 04 00 00
	00 00		 mov	 DWORD PTR [edi+4], 0
$LN10@CMap:

; 1462 : 	}
; 1463 : 
; 1464 : 	m_nCount = 0;
; 1465 : 	m_pFreeList = NULL;
; 1466 : 	m_pBlocks->FreeDataChain();

  0007d	8b 4f 14	 mov	 ecx, DWORD PTR [edi+20]
  00080	c7 47 0c 00 00
	00 00		 mov	 DWORD PTR [edi+12], 0
  00087	c7 47 10 00 00
	00 00		 mov	 DWORD PTR [edi+16], 0
  0008e	e8 00 00 00 00	 call	 ?FreeDataChain@CPlex@@QAEXXZ ; CPlex::FreeDataChain

; 1467 : 	m_pBlocks = NULL;

  00093	c7 47 14 00 00
	00 00		 mov	 DWORD PTR [edi+20], 0

; 1473 : 	RemoveAll();
; 1474 : 	ASSERT(m_nCount == 0);
; 1475 : }

  0009a	8b 4d f4	 mov	 ecx, DWORD PTR __$EHRec$[ebp]
  0009d	64 89 0d 00 00
	00 00		 mov	 DWORD PTR fs:0, ecx
  000a4	59		 pop	 ecx
  000a5	5f		 pop	 edi
  000a6	5e		 pop	 esi
  000a7	5b		 pop	 ebx
  000a8	8b e5		 mov	 esp, ebp
  000aa	5d		 pop	 ebp
  000ab	c3		 ret	 0
  000ac	cc		 int	 3
  000ad	cc		 int	 3
  000ae	cc		 int	 3
  000af	cc		 int	 3
  000b0	cc		 int	 3
_TEXT	ENDS
;	COMDAT text$x
text$x	SEGMENT
__ehhandler$??1?$CMap@HHV?$CStringT@DV?$StrTraitMFC_DLL@DV?$ChTraitsCRT@D@ATL@@@@@ATL@@V12@@@UAE@XZ:
  00000	90		 npad	 1
  00001	90		 npad	 1
  00002	8b 54 24 08	 mov	 edx, DWORD PTR [esp+8]
  00006	8d 42 0c	 lea	 eax, DWORD PTR [edx+12]
  00009	8b 4a f0	 mov	 ecx, DWORD PTR [edx-16]
  0000c	33 c8		 xor	 ecx, eax
  0000e	e8 00 00 00 00	 call	 @__security_check_cookie@4
  00013	b8 00 00 00 00	 mov	 eax, OFFSET __ehfuncinfo$??1?$CMap@HHV?$CStringT@DV?$StrTraitMFC_DLL@DV?$ChTraitsCRT@D@ATL@@@@@ATL@@V12@@@UAE@XZ
  00018	e9 00 00 00 00	 jmp	 ___CxxFrameHandler3
text$x	ENDS
??1?$CMap@HHV?$CStringT@DV?$StrTraitMFC_DLL@DV?$ChTraitsCRT@D@ATL@@@@@ATL@@V12@@@UAE@XZ ENDP ; CMap<int,int,ATL::CStringT<char,StrTraitMFC_DLL<char,ATL::ChTraitsCRT<char> > >,ATL::CStringT<char,StrTraitMFC_DLL<char,ATL::ChTraitsCRT<char> > > >::~CMap<int,int,ATL::CStringT<char,StrTraitMFC_DLL<char,ATL::ChTraitsCRT<char> > >,ATL::CStringT<char,StrTraitMFC_DLL<char,ATL::ChTraitsCRT<char> > > >
; Function compile flags: /Ogtp
; File C:\Program Files (x86)\Microsoft Visual Studio\2019\Community\VC\Tools\MSVC\14.29.30133\atlmfc\include\afxtempl.h
;	COMDAT ?GetAssocAt@?$CMap@HHV?$CStringT@DV?$StrTraitMFC_DLL@DV?$ChTraitsCRT@D@ATL@@@@@ATL@@V12@@@IBEPAVCAssoc@1@HAAI0@Z
_TEXT	SEGMENT
_key$ = 8						; size = 4
_nHashBucket$ = 12					; size = 4
_nHashValue$ = 16					; size = 4
?GetAssocAt@?$CMap@HHV?$CStringT@DV?$StrTraitMFC_DLL@DV?$ChTraitsCRT@D@ATL@@@@@ATL@@V12@@@IBEPAVCAssoc@1@HAAI0@Z PROC ; CMap<int,int,ATL::CStringT<char,StrTraitMFC_DLL<char,ATL::ChTraitsCRT<char> > >,ATL::CStringT<char,StrTraitMFC_DLL<char,ATL::ChTraitsCRT<char> > > >::GetAssocAt, COMDAT
; _this$ = ecx

; 1532 : {

  00000	55		 push	 ebp
  00001	8b ec		 mov	 ebp, esp
  00003	56		 push	 esi
  00004	8b f1		 mov	 esi, ecx

; 165  : 	ldiv_t HashVal = ldiv((long)(ARG_KEY)key, 127773);

  00006	b9 1d f3 01 00	 mov	 ecx, 127773		; 0001f31dH

; 1532 : {

  0000b	57		 push	 edi

; 165  : 	ldiv_t HashVal = ldiv((long)(ARG_KEY)key, 127773);

  0000c	8b 7d 08	 mov	 edi, DWORD PTR _key$[ebp]
  0000f	8b c7		 mov	 eax, edi
  00011	99		 cdq
  00012	f7 f9		 idiv	 ecx

; 166  : 	HashVal.rem = 16807 * HashVal.rem - 2836 * HashVal.quot;

  00014	69 c0 14 0b 00
	00		 imul	 eax, eax, 2836
  0001a	69 ca a7 41 00
	00		 imul	 ecx, edx, 16807
  00020	2b c8		 sub	 ecx, eax

; 1533 : 	nHashValue = HashKey<ARG_KEY>(key);

  00022	8d 81 ff ff ff
	7f		 lea	 eax, DWORD PTR [ecx+2147483647]
  00028	0f 49 c1	 cmovns	 eax, ecx
  0002b	8b 4d 10	 mov	 ecx, DWORD PTR _nHashValue$[ebp]

; 1534 : 	nHashBucket = nHashValue % m_nHashTableSize;

  0002e	33 d2		 xor	 edx, edx
  00030	89 01		 mov	 DWORD PTR [ecx], eax
  00032	f7 76 08	 div	 DWORD PTR [esi+8]
  00035	8b 45 0c	 mov	 eax, DWORD PTR _nHashBucket$[ebp]
  00038	89 10		 mov	 DWORD PTR [eax], edx

; 1535 : 
; 1536 : 	if (m_pHashTable == NULL)

  0003a	8b 46 04	 mov	 eax, DWORD PTR [esi+4]
  0003d	85 c0		 test	 eax, eax
  0003f	74 1f		 je	 SHORT $LN26@GetAssocAt

; 1537 : 		return NULL;
; 1538 : 
; 1539 : 	// see if it exists
; 1540 : 	CAssoc* pAssoc;
; 1541 : 	for (pAssoc = m_pHashTable[nHashBucket]; pAssoc != NULL; pAssoc = pAssoc->pNext)

  00041	8b 04 90	 mov	 eax, DWORD PTR [eax+edx*4]
  00044	85 c0		 test	 eax, eax
  00046	74 18		 je	 SHORT $LN26@GetAssocAt

; 1542 : 	{
; 1543 : 		if (pAssoc->nHashValue == nHashValue && CompareElements(&pAssoc->key, &key))

  00048	8b 09		 mov	 ecx, DWORD PTR [ecx]
  0004a	66 0f 1f 44 00
	00		 npad	 6
$LL4@GetAssocAt:
  00050	39 48 0c	 cmp	 DWORD PTR [eax+12], ecx
  00053	75 04		 jne	 SHORT $LN2@GetAssocAt

; 156  : 	return *pElement1 == *pElement2;

  00055	39 38		 cmp	 DWORD PTR [eax], edi

; 1542 : 	{
; 1543 : 		if (pAssoc->nHashValue == nHashValue && CompareElements(&pAssoc->key, &key))

  00057	74 09		 je	 SHORT $LN1@GetAssocAt
$LN2@GetAssocAt:

; 1537 : 		return NULL;
; 1538 : 
; 1539 : 	// see if it exists
; 1540 : 	CAssoc* pAssoc;
; 1541 : 	for (pAssoc = m_pHashTable[nHashBucket]; pAssoc != NULL; pAssoc = pAssoc->pNext)

  00059	8b 40 08	 mov	 eax, DWORD PTR [eax+8]
  0005c	85 c0		 test	 eax, eax
  0005e	75 f0		 jne	 SHORT $LL4@GetAssocAt
$LN26@GetAssocAt:

; 1544 : 			return pAssoc;
; 1545 : 	}
; 1546 : 	return NULL;

  00060	33 c0		 xor	 eax, eax
$LN1@GetAssocAt:
  00062	5f		 pop	 edi

; 1547 : }

  00063	5e		 pop	 esi
  00064	5d		 pop	 ebp
  00065	c2 0c 00	 ret	 12			; 0000000cH
?GetAssocAt@?$CMap@HHV?$CStringT@DV?$StrTraitMFC_DLL@DV?$ChTraitsCRT@D@ATL@@@@@ATL@@V12@@@IBEPAVCAssoc@1@HAAI0@Z ENDP ; CMap<int,int,ATL::CStringT<char,StrTraitMFC_DLL<char,ATL::ChTraitsCRT<char> > >,ATL::CStringT<char,StrTraitMFC_DLL<char,ATL::ChTraitsCRT<char> > > >::GetAssocAt
_TEXT	ENDS
; Function compile flags: /Ogtp
; File C:\Program Files (x86)\Microsoft Visual Studio\2019\Community\VC\Tools\MSVC\14.29.30133\atlmfc\include\afxtempl.h
;	COMDAT ?NewAssoc@?$CMap@HHV?$CStringT@DV?$StrTraitMFC_DLL@DV?$ChTraitsCRT@D@ATL@@@@@ATL@@V12@@@IAEPAVCAssoc@1@H@Z
_TEXT	SEGMENT
_key$ = 8						; size = 4
?NewAssoc@?$CMap@HHV?$CStringT@DV?$StrTraitMFC_DLL@DV?$ChTraitsCRT@D@ATL@@@@@ATL@@V12@@@IAEPAVCAssoc@1@H@Z PROC ; CMap<int,int,ATL::CStringT<char,StrTraitMFC_DLL<char,ATL::ChTraitsCRT<char> > >,ATL::CStringT<char,StrTraitMFC_DLL<char,ATL::ChTraitsCRT<char> > > >::NewAssoc, COMDAT
; _this$ = ecx

; 1480 : {

  00000	55		 push	 ebp
  00001	8b ec		 mov	 ebp, esp
  00003	56		 push	 esi
  00004	8b f1		 mov	 esi, ecx
  00006	57		 push	 edi

; 1481 : 	if (m_pFreeList == NULL)

  00007	83 7e 10 00	 cmp	 DWORD PTR [esi+16], 0
  0000b	75 34		 jne	 SHORT $LN7@NewAssoc

; 1482 : 	{
; 1483 : 		// add another block
; 1484 : 		CPlex* newBlock = CPlex::Create(m_pBlocks, m_nBlockSize, sizeof(CMap::CAssoc));

  0000d	6a 10		 push	 16			; 00000010H
  0000f	ff 76 18	 push	 DWORD PTR [esi+24]
  00012	8d 46 14	 lea	 eax, DWORD PTR [esi+20]
  00015	50		 push	 eax
  00016	e8 00 00 00 00	 call	 ?Create@CPlex@@SGPAU1@AAPAU1@II@Z ; CPlex::Create

; 1485 : 		// chain them into free list
; 1486 : 		CMap::CAssoc* pAssoc = (CMap::CAssoc*) newBlock->data();
; 1487 : 		// free in reverse order to make it easier to debug
; 1488 : 		pAssoc += m_nBlockSize - 1;

  0001b	8b 56 18	 mov	 edx, DWORD PTR [esi+24]
  0001e	83 c0 08	 add	 eax, 8
  00021	8b ca		 mov	 ecx, edx
  00023	c1 e1 04	 shl	 ecx, 4
  00026	83 c1 f0	 add	 ecx, -16		; fffffff0H
  00029	03 c1		 add	 eax, ecx

; 1489 : 		for (INT_PTR i = m_nBlockSize-1; i >= 0; i--, pAssoc--)

  0002b	83 c2 ff	 add	 edx, -1
  0002e	78 11		 js	 SHORT $LN7@NewAssoc
$LL4@NewAssoc:

; 1490 : 		{
; 1491 : 			pAssoc->pNext = m_pFreeList;

  00030	8b 4e 10	 mov	 ecx, DWORD PTR [esi+16]
  00033	89 48 08	 mov	 DWORD PTR [eax+8], ecx

; 1492 : 			m_pFreeList = pAssoc;

  00036	89 46 10	 mov	 DWORD PTR [esi+16], eax
  00039	83 e8 10	 sub	 eax, 16			; 00000010H
  0003c	83 ea 01	 sub	 edx, 1
  0003f	79 ef		 jns	 SHORT $LL4@NewAssoc
$LN7@NewAssoc:

; 1493 : 		}
; 1494 : 	}
; 1495 : 	ENSURE(m_pFreeList != NULL);  // we must have something

  00041	8b 7e 10	 mov	 edi, DWORD PTR [esi+16]
  00044	85 ff		 test	 edi, edi
  00046	74 2e		 je	 SHORT $LN21@NewAssoc

; 1496 : 
; 1497 : 	CMap::CAssoc* pAssoc = m_pFreeList;
; 1498 : 
; 1499 : 	// zero the memory
; 1500 : 	CMap::CAssoc* pTemp = pAssoc->pNext;

  00048	8b 47 08	 mov	 eax, DWORD PTR [edi+8]
  0004b	0f 57 c0	 xorps	 xmm0, xmm0

; 1501 : 	memset( pAssoc, 0, sizeof(CMap::CAssoc) );

  0004e	0f 11 07	 movups	 XMMWORD PTR [edi], xmm0

; 1502 : 	pAssoc->pNext = pTemp;

  00051	89 47 08	 mov	 DWORD PTR [edi+8], eax

; 1503 : 
; 1504 : 	m_pFreeList = m_pFreeList->pNext;

  00054	8b 4e 10	 mov	 ecx, DWORD PTR [esi+16]
  00057	8b 49 08	 mov	 ecx, DWORD PTR [ecx+8]

; 1505 : 	m_nCount++;

  0005a	ff 46 0c	 inc	 DWORD PTR [esi+12]
  0005d	89 4e 10	 mov	 DWORD PTR [esi+16], ecx

; 1256 : 		CPair( ARG_KEY keyval ) : key( keyval )	{}

  00060	8b 4d 08	 mov	 ecx, DWORD PTR _key$[ebp]
  00063	89 0f		 mov	 DWORD PTR [edi], ecx
  00065	8d 4f 04	 lea	 ecx, DWORD PTR [edi+4]
  00068	ff 15 00 00 00
	00		 call	 DWORD PTR __imp_??0?$CStringT@DV?$StrTraitMFC_DLL@DV?$ChTraitsCRT@D@ATL@@@@@ATL@@QAE@XZ

; 1506 : 	ASSERT(m_nCount > 0);  // make sure we don't overflow
; 1507 : #pragma push_macro("new")
; 1508 : #undef new
; 1509 : 	::new(pAssoc) CMap::CAssoc(key);
; 1510 : #pragma pop_macro("new")
; 1511 : 	return pAssoc;

  0006e	8b c7		 mov	 eax, edi
  00070	5f		 pop	 edi
  00071	5e		 pop	 esi

; 1512 : }

  00072	5d		 pop	 ebp
  00073	c2 04 00	 ret	 4
$LN21@NewAssoc:

; 1493 : 		}
; 1494 : 	}
; 1495 : 	ENSURE(m_pFreeList != NULL);  // we must have something

  00076	e8 00 00 00 00	 call	 ?AfxThrowInvalidArgException@@YGXXZ ; AfxThrowInvalidArgException
$LN19@NewAssoc:
  0007b	cc		 int	 3
?NewAssoc@?$CMap@HHV?$CStringT@DV?$StrTraitMFC_DLL@DV?$ChTraitsCRT@D@ATL@@@@@ATL@@V12@@@IAEPAVCAssoc@1@H@Z ENDP ; CMap<int,int,ATL::CStringT<char,StrTraitMFC_DLL<char,ATL::ChTraitsCRT<char> > >,ATL::CStringT<char,StrTraitMFC_DLL<char,ATL::ChTraitsCRT<char> > > >::NewAssoc
_TEXT	ENDS
; Function compile flags: /Ogtp
; File C:\Program Files (x86)\Microsoft Visual Studio\2019\Community\VC\Tools\MSVC\14.29.30133\atlmfc\include\afxtempl.h
;	COMDAT ?InitHashTable@?$CMap@HHV?$CStringT@DV?$StrTraitMFC_DLL@DV?$ChTraitsCRT@D@ATL@@@@@ATL@@V12@@@QAEXIH@Z
_TEXT	SEGMENT
_nHashSize$ = 8						; size = 4
_bAllocNow$ = 12					; size = 4
?InitHashTable@?$CMap@HHV?$CStringT@DV?$StrTraitMFC_DLL@DV?$ChTraitsCRT@D@ATL@@@@@ATL@@V12@@@QAEXIH@Z PROC ; CMap<int,int,ATL::CStringT<char,StrTraitMFC_DLL<char,ATL::ChTraitsCRT<char> > >,ATL::CStringT<char,StrTraitMFC_DLL<char,ATL::ChTraitsCRT<char> > > >::InitHashTable, COMDAT
; _this$ = ecx

; 1420 : {

  00000	55		 push	 ebp
  00001	8b ec		 mov	 ebp, esp
  00003	56		 push	 esi
  00004	8b f1		 mov	 esi, ecx
  00006	57		 push	 edi

; 1421 : 	ASSERT_VALID(this);
; 1422 : 	ASSERT(m_nCount == 0);
; 1423 : 	ASSERT(nHashSize > 0);
; 1424 : 
; 1425 : 	if (m_pHashTable != NULL)

  00007	8b 46 04	 mov	 eax, DWORD PTR [esi+4]
  0000a	85 c0		 test	 eax, eax
  0000c	74 10		 je	 SHORT $LN5@InitHashTa

; 1426 : 	{
; 1427 : 		// free hash table
; 1428 : 		delete[] m_pHashTable;

  0000e	50		 push	 eax
  0000f	e8 00 00 00 00	 call	 ??_V@YAXPAX@Z		; operator delete[]
  00014	83 c4 04	 add	 esp, 4

; 1429 : 		m_pHashTable = NULL;

  00017	c7 46 04 00 00
	00 00		 mov	 DWORD PTR [esi+4], 0
$LN5@InitHashTa:

; 1430 : 	}
; 1431 : 
; 1432 : 	if (bAllocNow)

  0001e	83 7d 0c 00	 cmp	 DWORD PTR _bAllocNow$[ebp], 0
  00022	8b 7d 08	 mov	 edi, DWORD PTR _nHashSize$[ebp]
  00025	74 37		 je	 SHORT $LN6@InitHashTa

; 1433 : 	{
; 1434 : 		m_pHashTable = new CAssoc* [nHashSize];

  00027	33 c9		 xor	 ecx, ecx
  00029	8b c7		 mov	 eax, edi
  0002b	ba 04 00 00 00	 mov	 edx, 4
  00030	f7 e2		 mul	 edx
  00032	0f 90 c1	 seto	 cl
  00035	f7 d9		 neg	 ecx
  00037	0b c8		 or	 ecx, eax
  00039	51		 push	 ecx
  0003a	e8 00 00 00 00	 call	 ??_U@YAPAXI@Z		; operator new[]
  0003f	8b c8		 mov	 ecx, eax
  00041	83 c4 04	 add	 esp, 4
  00044	89 4e 04	 mov	 DWORD PTR [esi+4], ecx

; 1435 : 		ENSURE(m_pHashTable != NULL);

  00047	85 c9		 test	 ecx, ecx
  00049	74 1c		 je	 SHORT $LN11@InitHashTa

; 1436 : 		memset(m_pHashTable, 0, sizeof(CAssoc*) * nHashSize);

  0004b	8d 04 bd 00 00
	00 00		 lea	 eax, DWORD PTR [edi*4]
  00052	50		 push	 eax
  00053	6a 00		 push	 0
  00055	51		 push	 ecx
  00056	e8 00 00 00 00	 call	 _memset
  0005b	83 c4 0c	 add	 esp, 12			; 0000000cH
$LN6@InitHashTa:

; 1437 : 	}
; 1438 : 	m_nHashTableSize = nHashSize;

  0005e	89 7e 08	 mov	 DWORD PTR [esi+8], edi
  00061	5f		 pop	 edi
  00062	5e		 pop	 esi

; 1439 : }

  00063	5d		 pop	 ebp
  00064	c2 08 00	 ret	 8
$LN11@InitHashTa:

; 1435 : 		ENSURE(m_pHashTable != NULL);

  00067	e8 00 00 00 00	 call	 ?AfxThrowInvalidArgException@@YGXXZ ; AfxThrowInvalidArgException
$LN9@InitHashTa:
  0006c	cc		 int	 3
?InitHashTable@?$CMap@HHV?$CStringT@DV?$StrTraitMFC_DLL@DV?$ChTraitsCRT@D@ATL@@@@@ATL@@V12@@@QAEXIH@Z ENDP ; CMap<int,int,ATL::CStringT<char,StrTraitMFC_DLL<char,ATL::ChTraitsCRT<char> > >,ATL::CStringT<char,StrTraitMFC_DLL<char,ATL::ChTraitsCRT<char> > > >::InitHashTable
_TEXT	ENDS
; Function compile flags: /Ogtp
; File C:\Program Files (x86)\Microsoft Visual Studio\2019\Community\VC\Tools\MSVC\14.29.30133\atlmfc\include\afxtempl.h
;	COMDAT ?RemoveAll@?$CMap@HHV?$CStringT@DV?$StrTraitMFC_DLL@DV?$ChTraitsCRT@D@ATL@@@@@ATL@@V12@@@QAEXXZ
_TEXT	SEGMENT
?RemoveAll@?$CMap@HHV?$CStringT@DV?$StrTraitMFC_DLL@DV?$ChTraitsCRT@D@ATL@@@@@ATL@@V12@@@QAEXXZ PROC ; CMap<int,int,ATL::CStringT<char,StrTraitMFC_DLL<char,ATL::ChTraitsCRT<char> > >,ATL::CStringT<char,StrTraitMFC_DLL<char,ATL::ChTraitsCRT<char> > > >::RemoveAll, COMDAT
; _this$ = ecx

; 1443 : {

  00000	57		 push	 edi
  00001	8b f9		 mov	 edi, ecx

; 1444 : 	ASSERT_VALID(this);
; 1445 : 
; 1446 : 	if (m_pHashTable != NULL)

  00003	8b 47 04	 mov	 eax, DWORD PTR [edi+4]
  00006	85 c0		 test	 eax, eax
  00008	74 45		 je	 SHORT $LN8@RemoveAll

; 1447 : 	{
; 1448 : 		// destroy elements (values and keys)
; 1449 : 		for (UINT nHash = 0; nHash < m_nHashTableSize; nHash++)

  0000a	53		 push	 ebx
  0000b	33 db		 xor	 ebx, ebx
  0000d	39 5f 08	 cmp	 DWORD PTR [edi+8], ebx
  00010	76 2c		 jbe	 SHORT $LN3@RemoveAll
  00012	56		 push	 esi
$LL4@RemoveAll:

; 1450 : 		{
; 1451 : 			CAssoc* pAssoc;
; 1452 : 			for (pAssoc = m_pHashTable[nHash]; pAssoc != NULL;

  00013	8b 34 98	 mov	 esi, DWORD PTR [eax+ebx*4]
  00016	8b c8		 mov	 ecx, eax
  00018	85 f6		 test	 esi, esi
  0001a	74 19		 je	 SHORT $LN2@RemoveAll
  0001c	0f 1f 40 00	 npad	 4
$LL7@RemoveAll:
  00020	8d 4e 04	 lea	 ecx, DWORD PTR [esi+4]
  00023	ff 15 00 00 00
	00		 call	 DWORD PTR __imp_??1?$CStringT@DV?$StrTraitMFC_DLL@DV?$ChTraitsCRT@D@ATL@@@@@ATL@@QAE@XZ

; 1453 : 			  pAssoc = pAssoc->pNext)

  00029	8b 76 08	 mov	 esi, DWORD PTR [esi+8]
  0002c	85 f6		 test	 esi, esi
  0002e	75 f0		 jne	 SHORT $LL7@RemoveAll
  00030	8b 47 04	 mov	 eax, DWORD PTR [edi+4]
  00033	8b c8		 mov	 ecx, eax
$LN2@RemoveAll:

; 1447 : 	{
; 1448 : 		// destroy elements (values and keys)
; 1449 : 		for (UINT nHash = 0; nHash < m_nHashTableSize; nHash++)

  00035	43		 inc	 ebx
  00036	3b 5f 08	 cmp	 ebx, DWORD PTR [edi+8]
  00039	72 d8		 jb	 SHORT $LL4@RemoveAll
  0003b	8b c1		 mov	 eax, ecx
  0003d	5e		 pop	 esi
$LN3@RemoveAll:

; 1454 : 			{
; 1455 : 				pAssoc->CAssoc::~CAssoc();
; 1456 : 			}
; 1457 : 		}
; 1458 : 
; 1459 : 		// free hash table
; 1460 : 		delete[] m_pHashTable;

  0003e	50		 push	 eax
  0003f	e8 00 00 00 00	 call	 ??_V@YAXPAX@Z		; operator delete[]
  00044	83 c4 04	 add	 esp, 4

; 1461 : 		m_pHashTable = NULL;

  00047	c7 47 04 00 00
	00 00		 mov	 DWORD PTR [edi+4], 0
  0004e	5b		 pop	 ebx
$LN8@RemoveAll:

; 1462 : 	}
; 1463 : 
; 1464 : 	m_nCount = 0;
; 1465 : 	m_pFreeList = NULL;
; 1466 : 	m_pBlocks->FreeDataChain();

  0004f	8b 4f 14	 mov	 ecx, DWORD PTR [edi+20]
  00052	c7 47 0c 00 00
	00 00		 mov	 DWORD PTR [edi+12], 0
  00059	c7 47 10 00 00
	00 00		 mov	 DWORD PTR [edi+16], 0
  00060	e8 00 00 00 00	 call	 ?FreeDataChain@CPlex@@QAEXXZ ; CPlex::FreeDataChain

; 1467 : 	m_pBlocks = NULL;

  00065	c7 47 14 00 00
	00 00		 mov	 DWORD PTR [edi+20], 0
  0006c	5f		 pop	 edi

; 1468 : }

  0006d	c3		 ret	 0
?RemoveAll@?$CMap@HHV?$CStringT@DV?$StrTraitMFC_DLL@DV?$ChTraitsCRT@D@ATL@@@@@ATL@@V12@@@QAEXXZ ENDP ; CMap<int,int,ATL::CStringT<char,StrTraitMFC_DLL<char,ATL::ChTraitsCRT<char> > >,ATL::CStringT<char,StrTraitMFC_DLL<char,ATL::ChTraitsCRT<char> > > >::RemoveAll
_TEXT	ENDS
; Function compile flags: /Ogtp
; File C:\Program Files (x86)\Microsoft Visual Studio\2019\Community\VC\Tools\MSVC\14.29.30133\atlmfc\include\afxtempl.h
;	COMDAT ??A?$CMap@HHV?$CStringT@DV?$StrTraitMFC_DLL@DV?$ChTraitsCRT@D@ATL@@@@@ATL@@V12@@@QAEAAV?$CStringT@DV?$StrTraitMFC_DLL@DV?$ChTraitsCRT@D@ATL@@@@@ATL@@H@Z
_TEXT	SEGMENT
_nHashBucket$ = -8					; size = 4
_nHashValue$ = -4					; size = 4
_key$ = 8						; size = 4
??A?$CMap@HHV?$CStringT@DV?$StrTraitMFC_DLL@DV?$ChTraitsCRT@D@ATL@@@@@ATL@@V12@@@QAEAAV?$CStringT@DV?$StrTraitMFC_DLL@DV?$ChTraitsCRT@D@ATL@@@@@ATL@@H@Z PROC ; CMap<int,int,ATL::CStringT<char,StrTraitMFC_DLL<char,ATL::ChTraitsCRT<char> > >,ATL::CStringT<char,StrTraitMFC_DLL<char,ATL::ChTraitsCRT<char> > > >::operator[], COMDAT
; _this$ = ecx

; 1585 : {

  00000	55		 push	 ebp
  00001	8b ec		 mov	 ebp, esp
  00003	83 ec 08	 sub	 esp, 8

; 1586 : 	ASSERT_VALID(this);
; 1587 : 
; 1588 : 	UINT nHashBucket, nHashValue;
; 1589 : 	CAssoc* pAssoc;
; 1590 : 	if ((pAssoc = GetAssocAt(key, nHashBucket, nHashValue)) == NULL)

  00006	8d 45 fc	 lea	 eax, DWORD PTR _nHashValue$[ebp]
  00009	53		 push	 ebx
  0000a	8b 5d 08	 mov	 ebx, DWORD PTR _key$[ebp]
  0000d	56		 push	 esi
  0000e	57		 push	 edi
  0000f	50		 push	 eax
  00010	8d 45 f8	 lea	 eax, DWORD PTR _nHashBucket$[ebp]
  00013	8b f1		 mov	 esi, ecx
  00015	50		 push	 eax
  00016	53		 push	 ebx
  00017	e8 00 00 00 00	 call	 ?GetAssocAt@?$CMap@HHV?$CStringT@DV?$StrTraitMFC_DLL@DV?$ChTraitsCRT@D@ATL@@@@@ATL@@V12@@@IBEPAVCAssoc@1@HAAI0@Z ; CMap<int,int,ATL::CStringT<char,StrTraitMFC_DLL<char,ATL::ChTraitsCRT<char> > >,ATL::CStringT<char,StrTraitMFC_DLL<char,ATL::ChTraitsCRT<char> > > >::GetAssocAt
  0001c	8b f8		 mov	 edi, eax
  0001e	85 ff		 test	 edi, edi
  00020	0f 85 d4 00 00
	00		 jne	 $LN5@operator

; 1591 : 	{
; 1592 : 		if (m_pHashTable == NULL)

  00026	8b 46 04	 mov	 eax, DWORD PTR [esi+4]
  00029	85 c0		 test	 eax, eax
  0002b	75 4a		 jne	 SHORT $LN39@operator

; 1593 : 			InitHashTable(m_nHashTableSize);

  0002d	8b 7e 08	 mov	 edi, DWORD PTR [esi+8]

; 1434 : 		m_pHashTable = new CAssoc* [nHashSize];

  00030	33 c9		 xor	 ecx, ecx
  00032	8b c7		 mov	 eax, edi
  00034	ba 04 00 00 00	 mov	 edx, 4
  00039	f7 e2		 mul	 edx
  0003b	0f 90 c1	 seto	 cl
  0003e	f7 d9		 neg	 ecx
  00040	0b c8		 or	 ecx, eax
  00042	51		 push	 ecx
  00043	e8 00 00 00 00	 call	 ??_U@YAPAXI@Z		; operator new[]
  00048	83 c4 04	 add	 esp, 4
  0004b	89 46 04	 mov	 DWORD PTR [esi+4], eax

; 1435 : 		ENSURE(m_pHashTable != NULL);

  0004e	85 c0		 test	 eax, eax
  00050	0f 84 b0 00 00
	00		 je	 $LN36@operator

; 1436 : 		memset(m_pHashTable, 0, sizeof(CAssoc*) * nHashSize);

  00056	8d 0c bd 00 00
	00 00		 lea	 ecx, DWORD PTR [edi*4]
  0005d	51		 push	 ecx
  0005e	6a 00		 push	 0
  00060	50		 push	 eax
  00061	e8 00 00 00 00	 call	 _memset

; 1437 : 	}
; 1438 : 	m_nHashTableSize = nHashSize;

  00066	8b 46 04	 mov	 eax, DWORD PTR [esi+4]
  00069	83 c4 0c	 add	 esp, 12			; 0000000cH
  0006c	89 7e 08	 mov	 DWORD PTR [esi+8], edi

; 1594 : 
; 1595 : 		ENSURE(m_pHashTable);

  0006f	85 c0		 test	 eax, eax
  00071	0f 84 8f 00 00
	00		 je	 $LN36@operator
$LN39@operator:

; 1481 : 	if (m_pFreeList == NULL)

  00077	83 7e 10 00	 cmp	 DWORD PTR [esi+16], 0
  0007b	75 34		 jne	 SHORT $LN24@operator

; 1482 : 	{
; 1483 : 		// add another block
; 1484 : 		CPlex* newBlock = CPlex::Create(m_pBlocks, m_nBlockSize, sizeof(CMap::CAssoc));

  0007d	6a 10		 push	 16			; 00000010H
  0007f	ff 76 18	 push	 DWORD PTR [esi+24]
  00082	8d 46 14	 lea	 eax, DWORD PTR [esi+20]
  00085	50		 push	 eax
  00086	e8 00 00 00 00	 call	 ?Create@CPlex@@SGPAU1@AAPAU1@II@Z ; CPlex::Create

; 1485 : 		// chain them into free list
; 1486 : 		CMap::CAssoc* pAssoc = (CMap::CAssoc*) newBlock->data();
; 1487 : 		// free in reverse order to make it easier to debug
; 1488 : 		pAssoc += m_nBlockSize - 1;

  0008b	8b 56 18	 mov	 edx, DWORD PTR [esi+24]
  0008e	83 c0 08	 add	 eax, 8
  00091	8b ca		 mov	 ecx, edx
  00093	c1 e1 04	 shl	 ecx, 4
  00096	83 c1 f0	 add	 ecx, -16		; fffffff0H
  00099	03 c8		 add	 ecx, eax

; 1489 : 		for (INT_PTR i = m_nBlockSize-1; i >= 0; i--, pAssoc--)

  0009b	83 c2 ff	 add	 edx, -1
  0009e	78 11		 js	 SHORT $LN24@operator
$LL21@operator:

; 1490 : 		{
; 1491 : 			pAssoc->pNext = m_pFreeList;

  000a0	8b 46 10	 mov	 eax, DWORD PTR [esi+16]
  000a3	89 41 08	 mov	 DWORD PTR [ecx+8], eax

; 1492 : 			m_pFreeList = pAssoc;

  000a6	89 4e 10	 mov	 DWORD PTR [esi+16], ecx
  000a9	83 e9 10	 sub	 ecx, 16			; 00000010H
  000ac	83 ea 01	 sub	 edx, 1
  000af	79 ef		 jns	 SHORT $LL21@operator
$LN24@operator:

; 1493 : 		}
; 1494 : 	}
; 1495 : 	ENSURE(m_pFreeList != NULL);  // we must have something

  000b1	8b 7e 10	 mov	 edi, DWORD PTR [esi+16]
  000b4	85 ff		 test	 edi, edi
  000b6	74 4e		 je	 SHORT $LN36@operator

; 1496 : 
; 1497 : 	CMap::CAssoc* pAssoc = m_pFreeList;
; 1498 : 
; 1499 : 	// zero the memory
; 1500 : 	CMap::CAssoc* pTemp = pAssoc->pNext;

  000b8	8b 47 08	 mov	 eax, DWORD PTR [edi+8]

; 1256 : 		CPair( ARG_KEY keyval ) : key( keyval )	{}

  000bb	8d 4f 04	 lea	 ecx, DWORD PTR [edi+4]
  000be	0f 57 c0	 xorps	 xmm0, xmm0

; 1501 : 	memset( pAssoc, 0, sizeof(CMap::CAssoc) );

  000c1	0f 11 07	 movups	 XMMWORD PTR [edi], xmm0

; 1502 : 	pAssoc->pNext = pTemp;

  000c4	89 47 08	 mov	 DWORD PTR [edi+8], eax

; 1503 : 
; 1504 : 	m_pFreeList = m_pFreeList->pNext;

  000c7	8b 46 10	 mov	 eax, DWORD PTR [esi+16]
  000ca	8b 40 08	 mov	 eax, DWORD PTR [eax+8]

; 1505 : 	m_nCount++;

  000cd	ff 46 0c	 inc	 DWORD PTR [esi+12]
  000d0	89 46 10	 mov	 DWORD PTR [esi+16], eax

; 1256 : 		CPair( ARG_KEY keyval ) : key( keyval )	{}

  000d3	89 1f		 mov	 DWORD PTR [edi], ebx
  000d5	ff 15 00 00 00
	00		 call	 DWORD PTR __imp_??0?$CStringT@DV?$StrTraitMFC_DLL@DV?$ChTraitsCRT@D@ATL@@@@@ATL@@QAE@XZ

; 1596 : 		// it doesn't exist, add a new Association
; 1597 : 		pAssoc = NewAssoc(key);
; 1598 : 		pAssoc->nHashValue = nHashValue;

  000db	8b 45 fc	 mov	 eax, DWORD PTR _nHashValue$[ebp]
  000de	89 47 0c	 mov	 DWORD PTR [edi+12], eax

; 1599 : 		//'pAssoc->value' is a constructed object, nothing more
; 1600 : 
; 1601 : 		// put into hash table
; 1602 : 		pAssoc->pNext = m_pHashTable[nHashBucket];

  000e1	8b 45 f8	 mov	 eax, DWORD PTR _nHashBucket$[ebp]
  000e4	8d 0c 85 00 00
	00 00		 lea	 ecx, DWORD PTR [eax*4]
  000eb	8b 46 04	 mov	 eax, DWORD PTR [esi+4]
  000ee	8b 04 01	 mov	 eax, DWORD PTR [ecx+eax]
  000f1	89 47 08	 mov	 DWORD PTR [edi+8], eax

; 1603 : 		m_pHashTable[nHashBucket] = pAssoc;

  000f4	8b 46 04	 mov	 eax, DWORD PTR [esi+4]
  000f7	89 3c 01	 mov	 DWORD PTR [ecx+eax], edi
$LN5@operator:

; 1604 : 	}
; 1605 : 	return pAssoc->value;  // return new reference

  000fa	8d 47 04	 lea	 eax, DWORD PTR [edi+4]
  000fd	5f		 pop	 edi
  000fe	5e		 pop	 esi
  000ff	5b		 pop	 ebx

; 1606 : }

  00100	8b e5		 mov	 esp, ebp
  00102	5d		 pop	 ebp
  00103	c2 04 00	 ret	 4
$LN36@operator:

; 1495 : 	ENSURE(m_pFreeList != NULL);  // we must have something

  00106	e8 00 00 00 00	 call	 ?AfxThrowInvalidArgException@@YGXXZ ; AfxThrowInvalidArgException
$LN37@operator:
  0010b	cc		 int	 3
??A?$CMap@HHV?$CStringT@DV?$StrTraitMFC_DLL@DV?$ChTraitsCRT@D@ATL@@@@@ATL@@V12@@@QAEAAV?$CStringT@DV?$StrTraitMFC_DLL@DV?$ChTraitsCRT@D@ATL@@@@@ATL@@H@Z ENDP ; CMap<int,int,ATL::CStringT<char,StrTraitMFC_DLL<char,ATL::ChTraitsCRT<char> > >,ATL::CStringT<char,StrTraitMFC_DLL<char,ATL::ChTraitsCRT<char> > > >::operator[]
_TEXT	ENDS
; Function compile flags: /Ogtp
; File C:\Program Files (x86)\Microsoft Visual Studio\2019\Community\VC\Tools\MSVC\14.29.30133\atlmfc\include\afxtempl.h
;	COMDAT ?Lookup@?$CMap@HHV?$CStringT@DV?$StrTraitMFC_DLL@DV?$ChTraitsCRT@D@ATL@@@@@ATL@@V12@@@QBEHHAAV?$CStringT@DV?$StrTraitMFC_DLL@DV?$ChTraitsCRT@D@ATL@@@@@ATL@@@Z
_TEXT	SEGMENT
_nHashBucket$ = -8					; size = 4
_nHashValue$ = -4					; size = 4
_key$ = 8						; size = 4
_rValue$ = 12						; size = 4
?Lookup@?$CMap@HHV?$CStringT@DV?$StrTraitMFC_DLL@DV?$ChTraitsCRT@D@ATL@@@@@ATL@@V12@@@QBEHHAAV?$CStringT@DV?$StrTraitMFC_DLL@DV?$ChTraitsCRT@D@ATL@@@@@ATL@@@Z PROC ; CMap<int,int,ATL::CStringT<char,StrTraitMFC_DLL<char,ATL::ChTraitsCRT<char> > >,ATL::CStringT<char,StrTraitMFC_DLL<char,ATL::ChTraitsCRT<char> > > >::Lookup, COMDAT
; _this$ = ecx

; 1551 : {

  00000	55		 push	 ebp
  00001	8b ec		 mov	 ebp, esp
  00003	83 ec 08	 sub	 esp, 8

; 1552 : 	ASSERT_VALID(this);
; 1553 : 
; 1554 : 	UINT nHashBucket, nHashValue;
; 1555 : 	CAssoc* pAssoc = GetAssocAt(key, nHashBucket, nHashValue);

  00006	8d 45 fc	 lea	 eax, DWORD PTR _nHashValue$[ebp]
  00009	50		 push	 eax
  0000a	8d 45 f8	 lea	 eax, DWORD PTR _nHashBucket$[ebp]
  0000d	50		 push	 eax
  0000e	ff 75 08	 push	 DWORD PTR _key$[ebp]
  00011	e8 00 00 00 00	 call	 ?GetAssocAt@?$CMap@HHV?$CStringT@DV?$StrTraitMFC_DLL@DV?$ChTraitsCRT@D@ATL@@@@@ATL@@V12@@@IBEPAVCAssoc@1@HAAI0@Z ; CMap<int,int,ATL::CStringT<char,StrTraitMFC_DLL<char,ATL::ChTraitsCRT<char> > >,ATL::CStringT<char,StrTraitMFC_DLL<char,ATL::ChTraitsCRT<char> > > >::GetAssocAt

; 1556 : 	if (pAssoc == NULL)

  00016	85 c0		 test	 eax, eax
  00018	75 06		 jne	 SHORT $LN2@Lookup

; 1561 : }

  0001a	8b e5		 mov	 esp, ebp
  0001c	5d		 pop	 ebp
  0001d	c2 08 00	 ret	 8
$LN2@Lookup:

; 1557 : 		return FALSE;  // not in map
; 1558 : 
; 1559 : 	rValue = pAssoc->value;

  00020	8b 4d 0c	 mov	 ecx, DWORD PTR _rValue$[ebp]
  00023	83 c0 04	 add	 eax, 4
  00026	50		 push	 eax
  00027	ff 15 00 00 00
	00		 call	 DWORD PTR __imp_??4?$CStringT@DV?$StrTraitMFC_DLL@DV?$ChTraitsCRT@D@ATL@@@@@ATL@@QAEAAV01@ABV01@@Z

; 1560 : 	return TRUE;

  0002d	b8 01 00 00 00	 mov	 eax, 1

; 1561 : }

  00032	8b e5		 mov	 esp, ebp
  00034	5d		 pop	 ebp
  00035	c2 08 00	 ret	 8
?Lookup@?$CMap@HHV?$CStringT@DV?$StrTraitMFC_DLL@DV?$ChTraitsCRT@D@ATL@@@@@ATL@@V12@@@QBEHHAAV?$CStringT@DV?$StrTraitMFC_DLL@DV?$ChTraitsCRT@D@ATL@@@@@ATL@@@Z ENDP ; CMap<int,int,ATL::CStringT<char,StrTraitMFC_DLL<char,ATL::ChTraitsCRT<char> > >,ATL::CStringT<char,StrTraitMFC_DLL<char,ATL::ChTraitsCRT<char> > > >::Lookup
_TEXT	ENDS
; Function compile flags: /Ogtp
; File C:\Program Files (x86)\Microsoft Visual Studio\2019\Community\VC\Tools\MSVC\14.29.30133\atlmfc\include\afxtempl.h
;	COMDAT ??0?$CMap@HHV?$CStringT@DV?$StrTraitMFC_DLL@DV?$ChTraitsCRT@D@ATL@@@@@ATL@@V12@@@QAE@H@Z
_TEXT	SEGMENT
_nBlockSize$ = 8					; size = 4
??0?$CMap@HHV?$CStringT@DV?$StrTraitMFC_DLL@DV?$ChTraitsCRT@D@ATL@@@@@ATL@@V12@@@QAE@H@Z PROC ; CMap<int,int,ATL::CStringT<char,StrTraitMFC_DLL<char,ATL::ChTraitsCRT<char> > >,ATL::CStringT<char,StrTraitMFC_DLL<char,ATL::ChTraitsCRT<char> > > >::CMap<int,int,ATL::CStringT<char,StrTraitMFC_DLL<char,ATL::ChTraitsCRT<char> > >,ATL::CStringT<char,StrTraitMFC_DLL<char,ATL::ChTraitsCRT<char> > > >, COMDAT
; _this$ = ecx

; 1403 : {

  00000	55		 push	 ebp
  00001	8b ec		 mov	 ebp, esp

; 1404 : 	ASSERT(nBlockSize > 0);
; 1405 : 
; 1406 : 	m_pHashTable = NULL;
; 1407 : 	m_nHashTableSize = 17;  // default size
; 1408 : 	m_nCount = 0;
; 1409 : 	m_pFreeList = NULL;
; 1410 : 	m_pBlocks = NULL;
; 1411 : 	m_nBlockSize = nBlockSize;

  00003	8b 45 08	 mov	 eax, DWORD PTR _nBlockSize$[ebp]
  00006	89 41 18	 mov	 DWORD PTR [ecx+24], eax

; 1412 : }

  00009	8b c1		 mov	 eax, ecx
  0000b	c7 01 00 00 00
	00		 mov	 DWORD PTR [ecx], OFFSET ??_7?$CMap@HHV?$CStringT@DV?$StrTraitMFC_DLL@DV?$ChTraitsCRT@D@ATL@@@@@ATL@@V12@@@6B@
  00011	c7 41 04 00 00
	00 00		 mov	 DWORD PTR [ecx+4], 0
  00018	c7 41 08 11 00
	00 00		 mov	 DWORD PTR [ecx+8], 17	; 00000011H
  0001f	c7 41 0c 00 00
	00 00		 mov	 DWORD PTR [ecx+12], 0
  00026	c7 41 10 00 00
	00 00		 mov	 DWORD PTR [ecx+16], 0
  0002d	c7 41 14 00 00
	00 00		 mov	 DWORD PTR [ecx+20], 0
  00034	5d		 pop	 ebp
  00035	c2 04 00	 ret	 4
??0?$CMap@HHV?$CStringT@DV?$StrTraitMFC_DLL@DV?$ChTraitsCRT@D@ATL@@@@@ATL@@V12@@@QAE@H@Z ENDP ; CMap<int,int,ATL::CStringT<char,StrTraitMFC_DLL<char,ATL::ChTraitsCRT<char> > >,ATL::CStringT<char,StrTraitMFC_DLL<char,ATL::ChTraitsCRT<char> > > >::CMap<int,int,ATL::CStringT<char,StrTraitMFC_DLL<char,ATL::ChTraitsCRT<char> > >,ATL::CStringT<char,StrTraitMFC_DLL<char,ATL::ChTraitsCRT<char> > > >
_TEXT	ENDS
; Function compile flags: /Ogtp
; File C:\Program Files (x86)\Microsoft Visual Studio\2019\Community\VC\Tools\MSVC\14.29.30133\atlmfc\include\afxtempl.h
; File C:\Program Files (x86)\Microsoft Visual Studio\2019\Community\VC\Tools\MSVC\14.29.30133\atlmfc\include\afx.inl
;	COMDAT ??_G?$CArray@HH@@UAEPAXI@Z
_TEXT	SEGMENT
___flags$ = 8						; size = 4
??_G?$CArray@HH@@UAEPAXI@Z PROC				; CArray<int,int>::`scalar deleting destructor', COMDAT
; _this$ = ecx
  00000	55		 push	 ebp
  00001	8b ec		 mov	 ebp, esp
; File C:\Program Files (x86)\Microsoft Visual Studio\2019\Community\VC\Tools\MSVC\14.29.30133\atlmfc\include\afxtempl.h

; 355  : {

  00003	56		 push	 esi
  00004	8b f1		 mov	 esi, ecx

; 356  : 	ASSERT_VALID(this);
; 357  : 
; 358  : 	if (m_pData != NULL)

  00006	8b 46 04	 mov	 eax, DWORD PTR [esi+4]
  00009	c7 06 00 00 00
	00		 mov	 DWORD PTR [esi], OFFSET ??_7?$CArray@HH@@6B@
  0000f	85 c0		 test	 eax, eax
  00011	74 09		 je	 SHORT $LN11@scalar

; 359  : 	{
; 360  : 		for( int i = 0; i < m_nSize; i++ )
; 361  : 			(m_pData + i)->~TYPE();
; 362  : 		delete[] (BYTE*)m_pData;

  00013	50		 push	 eax
  00014	e8 00 00 00 00	 call	 ??_V@YAXPAX@Z		; operator delete[]
  00019	83 c4 04	 add	 esp, 4
$LN11@scalar:
  0001c	8b 45 08	 mov	 eax, DWORD PTR ___flags$[ebp]
  0001f	a8 01		 test	 al, 1
  00021	74 1f		 je	 SHORT $LN20@scalar
  00023	a8 04		 test	 al, 4
  00025	75 10		 jne	 SHORT $LN3@scalar
; File C:\Program Files (x86)\Microsoft Visual Studio\2019\Community\VC\Tools\MSVC\14.29.30133\atlmfc\include\afx.inl

; 112  : 	{ ::operator delete(p); }

  00027	56		 push	 esi
  00028	e8 00 00 00 00	 call	 ??3@YAXPAX@Z		; operator delete
  0002d	83 c4 04	 add	 esp, 4
  00030	8b c6		 mov	 eax, esi
  00032	5e		 pop	 esi
  00033	5d		 pop	 ebp
  00034	c2 04 00	 ret	 4
$LN3@scalar:
  00037	6a 14		 push	 20			; 00000014H
  00039	56		 push	 esi
  0003a	e8 00 00 00 00	 call	 ?__global_delete@@YAXPAXI@Z ; __global_delete
  0003f	83 c4 08	 add	 esp, 8
$LN20@scalar:
  00042	8b c6		 mov	 eax, esi
  00044	5e		 pop	 esi
  00045	5d		 pop	 ebp
  00046	c2 04 00	 ret	 4
??_G?$CArray@HH@@UAEPAXI@Z ENDP				; CArray<int,int>::`scalar deleting destructor'
_TEXT	ENDS
; Function compile flags: /Ogtp
; File C:\Program Files (x86)\Microsoft Visual Studio\2019\Community\VC\Tools\MSVC\14.29.30133\atlmfc\include\afxtempl.h
; File C:\Program Files (x86)\Microsoft Visual Studio\2019\Community\VC\Tools\MSVC\14.29.30133\atlmfc\include\afx.inl
; File C:\Program Files (x86)\Microsoft Visual Studio\2019\Community\VC\Tools\MSVC\14.29.30133\atlmfc\include\afxtempl.h
; File C:\Program Files (x86)\Microsoft Visual Studio\2019\Community\VC\Tools\MSVC\14.29.30133\atlmfc\include\afx.inl
; File C:\Program Files (x86)\Microsoft Visual Studio\2019\Community\VC\Tools\MSVC\14.29.30133\atlmfc\include\afxtempl.h
;	COMDAT ?Serialize@?$CArray@HH@@UAEXAAVCArchive@@@Z
_TEXT	SEGMENT
_ar$ = 8						; size = 4
?Serialize@?$CArray@HH@@UAEXAAVCArchive@@@Z PROC	; CArray<int,int>::Serialize, COMDAT
; _this$ = ecx

; 633  : {

  00000	55		 push	 ebp
  00001	8b ec		 mov	 ebp, esp
  00003	56		 push	 esi
  00004	57		 push	 edi
; File C:\Program Files (x86)\Microsoft Visual Studio\2019\Community\VC\Tools\MSVC\14.29.30133\atlmfc\include\afx.inl

; 212  : 	{ return (m_nMode & CArchive::load) == 0; }

  00005	8b 7d 08	 mov	 edi, DWORD PTR _ar$[ebp]
; File C:\Program Files (x86)\Microsoft Visual Studio\2019\Community\VC\Tools\MSVC\14.29.30133\atlmfc\include\afxtempl.h

; 633  : {

  00008	8b f1		 mov	 esi, ecx

; 637  : 	if (ar.IsStoring())

  0000a	8b cf		 mov	 ecx, edi
; File C:\Program Files (x86)\Microsoft Visual Studio\2019\Community\VC\Tools\MSVC\14.29.30133\atlmfc\include\afx.inl

; 212  : 	{ return (m_nMode & CArchive::load) == 0; }

  0000c	8b 47 18	 mov	 eax, DWORD PTR [edi+24]
  0000f	f7 d0		 not	 eax
  00011	a8 01		 test	 al, 1
; File C:\Program Files (x86)\Microsoft Visual Studio\2019\Community\VC\Tools\MSVC\14.29.30133\atlmfc\include\afxtempl.h

; 637  : 	if (ar.IsStoring())

  00013	74 1a		 je	 SHORT $LN2@Serialize

; 638  : 	{
; 639  : 		ar.WriteCount(m_nSize);

  00015	ff 76 08	 push	 DWORD PTR [esi+8]
  00018	e8 00 00 00 00	 call	 ?WriteCount@CArchive@@QAEXK@Z ; CArchive::WriteCount

; 645  : 	}
; 646  : 	SerializeElements<TYPE>(ar, m_pData, m_nSize);

  0001d	ff 76 08	 push	 DWORD PTR [esi+8]
  00020	ff 76 04	 push	 DWORD PTR [esi+4]
  00023	57		 push	 edi
  00024	e8 00 00 00 00	 call	 ??$SerializeElements@H@@YGXAAVCArchive@@PAHH@Z ; SerializeElements<int>
  00029	5f		 pop	 edi
  0002a	5e		 pop	 esi

; 647  : }

  0002b	5d		 pop	 ebp
  0002c	c2 04 00	 ret	 4
$LN2@Serialize:

; 640  : 	}
; 641  : 	else
; 642  : 	{
; 643  : 		DWORD_PTR nOldSize = ar.ReadCount();

  0002f	e8 00 00 00 00	 call	 ?ReadCount@CArchive@@QAEKXZ ; CArchive::ReadCount

; 644  : 		SetSize(nOldSize, -1);

  00034	6a ff		 push	 -1
  00036	50		 push	 eax
  00037	8b ce		 mov	 ecx, esi
  00039	e8 00 00 00 00	 call	 ?SetSize@?$CArray@HH@@QAEXHH@Z ; CArray<int,int>::SetSize

; 645  : 	}
; 646  : 	SerializeElements<TYPE>(ar, m_pData, m_nSize);

  0003e	ff 76 08	 push	 DWORD PTR [esi+8]
  00041	ff 76 04	 push	 DWORD PTR [esi+4]
  00044	57		 push	 edi
  00045	e8 00 00 00 00	 call	 ??$SerializeElements@H@@YGXAAVCArchive@@PAHH@Z ; SerializeElements<int>
  0004a	5f		 pop	 edi
  0004b	5e		 pop	 esi

; 647  : }

  0004c	5d		 pop	 ebp
  0004d	c2 04 00	 ret	 4
?Serialize@?$CArray@HH@@UAEXAAVCArchive@@@Z ENDP	; CArray<int,int>::Serialize
_TEXT	ENDS
; Function compile flags: /Ogtp
; File C:\Program Files (x86)\Microsoft Visual Studio\2019\Community\VC\Tools\MSVC\14.29.30133\atlmfc\include\afxtempl.h
;	COMDAT ??1?$CArray@HH@@UAE@XZ
_TEXT	SEGMENT
??1?$CArray@HH@@UAE@XZ PROC				; CArray<int,int>::~CArray<int,int>, COMDAT
; _this$ = ecx

; 356  : 	ASSERT_VALID(this);
; 357  : 
; 358  : 	if (m_pData != NULL)

  00000	8b 41 04	 mov	 eax, DWORD PTR [ecx+4]
  00003	c7 01 00 00 00
	00		 mov	 DWORD PTR [ecx], OFFSET ??_7?$CArray@HH@@6B@
  00009	85 c0		 test	 eax, eax
  0000b	74 07		 je	 SHORT $LN5@CArray

; 359  : 	{
; 360  : 		for( int i = 0; i < m_nSize; i++ )
; 361  : 			(m_pData + i)->~TYPE();
; 362  : 		delete[] (BYTE*)m_pData;

  0000d	50		 push	 eax
  0000e	e8 00 00 00 00	 call	 ??_V@YAXPAX@Z		; operator delete[]
  00013	59		 pop	 ecx
$LN5@CArray:

; 363  : 	}
; 364  : }

  00014	c3		 ret	 0
??1?$CArray@HH@@UAE@XZ ENDP				; CArray<int,int>::~CArray<int,int>
_TEXT	ENDS
; Function compile flags: /Ogtp
; File C:\Program Files (x86)\Microsoft Visual Studio\2019\Community\VC\Tools\MSVC\14.29.30133\atlmfc\include\afxtempl.h
;	COMDAT ?SetAtGrow@?$CArray@HH@@QAEXHH@Z
_TEXT	SEGMENT
_nIndex$ = 8						; size = 4
_newElement$ = 12					; size = 4
?SetAtGrow@?$CArray@HH@@QAEXHH@Z PROC			; CArray<int,int>::SetAtGrow, COMDAT
; _this$ = ecx

; 534  : {

  00000	55		 push	 ebp
  00001	8b ec		 mov	 ebp, esp
  00003	56		 push	 esi

; 535  : 	ASSERT_VALID(this);
; 536  : 	ASSERT(nIndex >= 0);
; 537  : 
; 538  : 	if(nIndex < 0)

  00004	8b 75 08	 mov	 esi, DWORD PTR _nIndex$[ebp]
  00007	57		 push	 edi
  00008	8b f9		 mov	 edi, ecx
  0000a	85 f6		 test	 esi, esi
  0000c	78 1f		 js	 SHORT $LN7@SetAtGrow

; 540  : 
; 541  : 	if (nIndex >= m_nSize)

  0000e	3b 77 08	 cmp	 esi, DWORD PTR [edi+8]
  00011	7c 0b		 jl	 SHORT $LN3@SetAtGrow

; 542  : 		SetSize(nIndex+1, -1);

  00013	6a ff		 push	 -1
  00015	8d 46 01	 lea	 eax, DWORD PTR [esi+1]
  00018	50		 push	 eax
  00019	e8 00 00 00 00	 call	 ?SetSize@?$CArray@HH@@QAEXHH@Z ; CArray<int,int>::SetSize
$LN3@SetAtGrow:

; 543  : 	m_pData[nIndex] = newElement;

  0001e	8b 4f 04	 mov	 ecx, DWORD PTR [edi+4]
  00021	8b 45 0c	 mov	 eax, DWORD PTR _newElement$[ebp]
  00024	5f		 pop	 edi
  00025	89 04 b1	 mov	 DWORD PTR [ecx+esi*4], eax
  00028	5e		 pop	 esi

; 544  : }

  00029	5d		 pop	 ebp
  0002a	c2 08 00	 ret	 8
$LN7@SetAtGrow:

; 539  : 		AfxThrowInvalidArgException();

  0002d	e8 00 00 00 00	 call	 ?AfxThrowInvalidArgException@@YGXXZ ; AfxThrowInvalidArgException
$LN5@SetAtGrow:
  00032	cc		 int	 3
?SetAtGrow@?$CArray@HH@@QAEXHH@Z ENDP			; CArray<int,int>::SetAtGrow
_TEXT	ENDS
; Function compile flags: /Ogtp
; File C:\Program Files (x86)\Microsoft Visual Studio\2019\Community\VC\Tools\MSVC\14.29.30133\atlmfc\include\afxtempl.h
; File C:\Program Files (x86)\Windows Kits\10\Include\10.0.22000.0\ucrt\corecrt_memcpy_s.h
; File C:\Program Files (x86)\Microsoft Visual Studio\2019\Community\VC\Tools\MSVC\14.29.30133\atlmfc\include\atlchecked.h
; File C:\Program Files (x86)\Microsoft Visual Studio\2019\Community\VC\Tools\MSVC\14.29.30133\atlmfc\include\afxtempl.h
; File C:\Program Files (x86)\Windows Kits\10\Include\10.0.22000.0\ucrt\corecrt_memcpy_s.h
; File C:\Program Files (x86)\Microsoft Visual Studio\2019\Community\VC\Tools\MSVC\14.29.30133\atlmfc\include\atlchecked.h
; File C:\Program Files (x86)\Windows Kits\10\Include\10.0.22000.0\ucrt\corecrt_memcpy_s.h
; File C:\Program Files (x86)\Microsoft Visual Studio\2019\Community\VC\Tools\MSVC\14.29.30133\atlmfc\include\afxtempl.h
;	COMDAT ?SetSize@?$CArray@HH@@QAEXHH@Z
_TEXT	SEGMENT
__N$1$ = -4						; size = 4
__S2$1$ = 8						; size = 4
_nNewSize$ = 8						; size = 4
_pNewData$1$ = 12					; size = 4
_nGrowBy$ = 12						; size = 4
?SetSize@?$CArray@HH@@QAEXHH@Z PROC			; CArray<int,int>::SetSize, COMDAT
; _this$ = ecx

; 368  : {

  00000	55		 push	 ebp
  00001	8b ec		 mov	 ebp, esp
  00003	51		 push	 ecx
  00004	53		 push	 ebx
  00005	56		 push	 esi

; 369  : 	ASSERT_VALID(this);
; 370  : 	ASSERT(nNewSize >= 0);
; 371  : 
; 372  : 	if(nNewSize < 0 )

  00006	8b 75 08	 mov	 esi, DWORD PTR _nNewSize$[ebp]
  00009	8b d9		 mov	 ebx, ecx
  0000b	57		 push	 edi
  0000c	85 f6		 test	 esi, esi
  0000e	0f 88 c2 01 00
	00		 js	 $LN70@SetSize

; 373  : 		AfxThrowInvalidArgException();
; 374  : 
; 375  : 	if (nGrowBy >= 0)

  00014	8b 45 0c	 mov	 eax, DWORD PTR _nGrowBy$[ebp]
  00017	85 c0		 test	 eax, eax
  00019	78 03		 js	 SHORT $LN69@SetSize

; 376  : 		m_nGrowBy = nGrowBy;  // set new size

  0001b	89 43 10	 mov	 DWORD PTR [ebx+16], eax
$LN69@SetSize:

; 377  : 
; 378  : 	if (nNewSize == 0)

  0001e	8b 4b 04	 mov	 ecx, DWORD PTR [ebx+4]
  00021	85 f6		 test	 esi, esi
  00023	75 27		 jne	 SHORT $LN19@SetSize

; 379  : 	{
; 380  : 		// shrink to nothing
; 381  : 		if (m_pData != NULL)

  00025	85 c9		 test	 ecx, ecx
  00027	74 0c		 je	 SHORT $LN21@SetSize

; 382  : 		{
; 383  : 			for( int i = 0; i < m_nSize; i++ )
; 384  : 				(m_pData + i)->~TYPE();
; 385  : 			delete[] (BYTE*)m_pData;

  00029	51		 push	 ecx
  0002a	e8 00 00 00 00	 call	 ??_V@YAXPAX@Z		; operator delete[]
  0002f	83 c4 04	 add	 esp, 4

; 386  : 			m_pData = NULL;

  00032	89 73 04	 mov	 DWORD PTR [ebx+4], esi
$LN21@SetSize:

; 472  : 		m_nSize = nNewSize;
; 473  : 		m_nMaxSize = nNewMax;
; 474  : 	}
; 475  : }

  00035	5f		 pop	 edi
  00036	5e		 pop	 esi
  00037	c7 43 0c 00 00
	00 00		 mov	 DWORD PTR [ebx+12], 0
  0003e	c7 43 08 00 00
	00 00		 mov	 DWORD PTR [ebx+8], 0
  00045	5b		 pop	 ebx
  00046	8b e5		 mov	 esp, ebp
  00048	5d		 pop	 ebp
  00049	c2 08 00	 ret	 8
$LN19@SetSize:

; 387  : 		}
; 388  : 		m_nSize = m_nMaxSize = 0;
; 389  : 	}
; 390  : 	else if (m_pData == NULL)

  0004c	85 c9		 test	 ecx, ecx
  0004e	75 36		 jne	 SHORT $LN22@SetSize

; 391  : 	{
; 392  : 		// create buffer big enough to hold number of requested elements or
; 393  : 		// m_nGrowBy elements, whichever is larger.
; 394  : #ifdef SIZE_T_MAX
; 395  : 		ASSERT(nNewSize <= SIZE_T_MAX/sizeof(TYPE));    // no overflow
; 396  : #endif
; 397  : 		size_t nAllocSize = __max(nNewSize, m_nGrowBy);

  00050	8b 7b 10	 mov	 edi, DWORD PTR [ebx+16]
  00053	3b f7		 cmp	 esi, edi
  00055	0f 4f fe	 cmovg	 edi, esi

; 398  : 		m_pData = (TYPE*) new BYTE[(size_t)nAllocSize * sizeof(TYPE)];

  00058	8d 34 bd 00 00
	00 00		 lea	 esi, DWORD PTR [edi*4]
  0005f	56		 push	 esi
  00060	e8 00 00 00 00	 call	 ??_U@YAPAXI@Z		; operator new[]

; 399  : 		memset((void*)m_pData, 0, (size_t)nAllocSize * sizeof(TYPE));

  00065	56		 push	 esi
  00066	6a 00		 push	 0
  00068	50		 push	 eax
  00069	89 43 04	 mov	 DWORD PTR [ebx+4], eax
  0006c	e8 00 00 00 00	 call	 _memset

; 400  : 		for( int i = 0; i < nNewSize; i++ )
; 401  : #pragma push_macro("new")
; 402  : #undef new
; 403  : 			::new( (void*)( m_pData + i ) ) TYPE;
; 404  : #pragma pop_macro("new")
; 405  : 		m_nSize = nNewSize;

  00071	8b 45 08	 mov	 eax, DWORD PTR _nNewSize$[ebp]
  00074	83 c4 10	 add	 esp, 16			; 00000010H

; 472  : 		m_nSize = nNewSize;
; 473  : 		m_nMaxSize = nNewMax;
; 474  : 	}
; 475  : }

  00077	89 7b 0c	 mov	 DWORD PTR [ebx+12], edi
  0007a	89 43 08	 mov	 DWORD PTR [ebx+8], eax
  0007d	5f		 pop	 edi
  0007e	5e		 pop	 esi
  0007f	5b		 pop	 ebx
  00080	8b e5		 mov	 esp, ebp
  00082	5d		 pop	 ebp
  00083	c2 08 00	 ret	 8
$LN22@SetSize:

; 406  : 		m_nMaxSize = nAllocSize;
; 407  : 	}
; 408  : 	else if (nNewSize <= m_nMaxSize)

  00086	8b 7b 0c	 mov	 edi, DWORD PTR [ebx+12]
  00089	3b f7		 cmp	 esi, edi
  0008b	7f 29		 jg	 SHORT $LN24@SetSize

; 409  : 	{
; 410  : 		// it fits
; 411  : 		if (nNewSize > m_nSize)

  0008d	8b 53 08	 mov	 edx, DWORD PTR [ebx+8]
  00090	3b f2		 cmp	 esi, edx
  00092	7e 16		 jle	 SHORT $LN26@SetSize

; 412  : 		{
; 413  : 			// initialize the new elements
; 414  : 			memset((void*)(m_pData + m_nSize), 0, (size_t)(nNewSize-m_nSize) * sizeof(TYPE));

  00094	8b c6		 mov	 eax, esi
  00096	2b c2		 sub	 eax, edx
  00098	c1 e0 02	 shl	 eax, 2
  0009b	50		 push	 eax
  0009c	8d 04 91	 lea	 eax, DWORD PTR [ecx+edx*4]
  0009f	6a 00		 push	 0
  000a1	50		 push	 eax
  000a2	e8 00 00 00 00	 call	 _memset
  000a7	83 c4 0c	 add	 esp, 12			; 0000000cH
$LN26@SetSize:

; 415  : 			for( int i = 0; i < nNewSize-m_nSize; i++ )
; 416  : #pragma push_macro("new")
; 417  : #undef new
; 418  : 				::new( (void*)( m_pData + m_nSize + i ) ) TYPE;
; 419  : #pragma pop_macro("new")
; 420  : 		}
; 421  : 		else if (m_nSize > nNewSize)
; 422  : 		{
; 423  : 			// destroy the old elements
; 424  : 			for( int i = 0; i < m_nSize-nNewSize; i++ )
; 425  : 				(m_pData + nNewSize + i)->~TYPE();
; 426  : 		}
; 427  : 		m_nSize = nNewSize;

  000aa	5f		 pop	 edi
  000ab	89 73 08	 mov	 DWORD PTR [ebx+8], esi

; 472  : 		m_nSize = nNewSize;
; 473  : 		m_nMaxSize = nNewMax;
; 474  : 	}
; 475  : }

  000ae	5e		 pop	 esi
  000af	5b		 pop	 ebx
  000b0	8b e5		 mov	 esp, ebp
  000b2	5d		 pop	 ebp
  000b3	c2 08 00	 ret	 8
$LN24@SetSize:

; 428  : 	}
; 429  : 	else
; 430  : 	{
; 431  : 		// otherwise, grow array
; 432  : 		nGrowBy = m_nGrowBy;

  000b6	8b 43 10	 mov	 eax, DWORD PTR [ebx+16]

; 433  : 		if (nGrowBy == 0)

  000b9	85 c0		 test	 eax, eax
  000bb	75 22		 jne	 SHORT $LN37@SetSize

; 434  : 		{
; 435  : 			// heuristically determine growth when nGrowBy == 0
; 436  : 			//  (this avoids heap fragmentation in many situations)
; 437  : 			nGrowBy = m_nSize / 8;

  000bd	8b 43 08	 mov	 eax, DWORD PTR [ebx+8]
  000c0	99		 cdq
  000c1	83 e2 07	 and	 edx, 7
  000c4	03 c2		 add	 eax, edx
  000c6	c1 f8 03	 sar	 eax, 3

; 438  : 			nGrowBy = (nGrowBy < 4) ? 4 : ((nGrowBy > 1024) ? 1024 : nGrowBy);

  000c9	83 f8 04	 cmp	 eax, 4
  000cc	7d 07		 jge	 SHORT $LN36@SetSize
  000ce	b8 04 00 00 00	 mov	 eax, 4
  000d3	eb 0a		 jmp	 SHORT $LN37@SetSize
$LN36@SetSize:
  000d5	b9 00 04 00 00	 mov	 ecx, 1024		; 00000400H
  000da	3b c1		 cmp	 eax, ecx
  000dc	0f 4f c1	 cmovg	 eax, ecx
$LN37@SetSize:

; 439  : 		}
; 440  : 		INT_PTR nNewMax;
; 441  : 		if (nNewSize < m_nMaxSize + nGrowBy)

  000df	03 f8		 add	 edi, eax
  000e1	3b f7		 cmp	 esi, edi
  000e3	7d 0b		 jge	 SHORT $LN30@SetSize

; 445  : 
; 446  : 		ASSERT(nNewMax >= m_nMaxSize);  // no wrap around
; 447  : 
; 448  : 		if(nNewMax  < m_nMaxSize)

  000e5	3b 7b 0c	 cmp	 edi, DWORD PTR [ebx+12]
  000e8	0f 8c e8 00 00
	00		 jl	 $LN70@SetSize
  000ee	eb 02		 jmp	 SHORT $LN32@SetSize
$LN30@SetSize:

; 442  : 			nNewMax = m_nMaxSize + nGrowBy;  // granularity
; 443  : 		else
; 444  : 			nNewMax = nNewSize;  // no slush

  000f0	8b fe		 mov	 edi, esi
$LN32@SetSize:

; 450  : 
; 451  : #ifdef SIZE_T_MAX
; 452  : 		ASSERT(nNewMax <= SIZE_T_MAX/sizeof(TYPE)); // no overflow
; 453  : #endif
; 454  : 		TYPE* pNewData = (TYPE*) new BYTE[(size_t)nNewMax * sizeof(TYPE)];

  000f2	8d 04 bd 00 00
	00 00		 lea	 eax, DWORD PTR [edi*4]
  000f9	50		 push	 eax
  000fa	e8 00 00 00 00	 call	 ??_U@YAPAXI@Z		; operator new[]

; 455  : 
; 456  : 		// copy new data from old
; 457  : 		::ATL::Checked::memcpy_s(pNewData, (size_t)nNewMax * sizeof(TYPE),

  000ff	8b 53 04	 mov	 edx, DWORD PTR [ebx+4]
  00102	8b c8		 mov	 ecx, eax
  00104	8b 43 08	 mov	 eax, DWORD PTR [ebx+8]
  00107	83 c4 04	 add	 esp, 4
  0010a	c1 e0 02	 shl	 eax, 2
  0010d	89 4d 0c	 mov	 DWORD PTR _pNewData$1$[ebp], ecx
  00110	89 45 fc	 mov	 DWORD PTR __N$1$[ebp], eax
  00113	89 55 08	 mov	 DWORD PTR __S2$1$[ebp], edx
; File C:\Program Files (x86)\Windows Kits\10\Include\10.0.22000.0\ucrt\corecrt_memcpy_s.h

; 46   :         if (_SourceSize == 0)

  00116	85 c0		 test	 eax, eax
  00118	74 76		 je	 SHORT $LN74@SetSize

; 47   :         {
; 48   :             return 0;
; 49   :         }
; 50   : 
; 51   :         _CRT_MEMCPY_S_VALIDATE_RETURN_ERRCODE(_Destination != NULL, EINVAL);

  0011a	85 c9		 test	 ecx, ecx
  0011c	75 56		 jne	 SHORT $LN42@SetSize
$LN73@SetSize:
; File C:\Program Files (x86)\Microsoft Visual Studio\2019\Community\VC\Tools\MSVC\14.29.30133\atlmfc\include\atlchecked.h

; 69   : 	ATLMFC_CRT_ERRORCHECK(::memcpy_s(_S1, _S1max, _S2, _N));

  0011e	ff 15 00 00 00
	00		 call	 DWORD PTR __imp___errno
  00124	c7 00 16 00 00
	00		 mov	 DWORD PTR [eax], 22	; 00000016H
  0012a	ff 15 00 00 00
	00		 call	 DWORD PTR __imp___invalid_parameter_noinfo
$LN46@SetSize:
  00130	b8 16 00 00 00	 mov	 eax, 22			; 00000016H
$LN40@SetSize:
  00135	50		 push	 eax
  00136	e8 00 00 00 00	 call	 ?AfxCrtErrorCheck@@YAHH@Z ; AfxCrtErrorCheck
; File C:\Program Files (x86)\Microsoft Visual Studio\2019\Community\VC\Tools\MSVC\14.29.30133\atlmfc\include\afxtempl.h

; 462  : 		memset((void*)(pNewData + m_nSize), 0, (size_t)(nNewSize-m_nSize) * sizeof(TYPE));

  0013b	8b 4b 08	 mov	 ecx, DWORD PTR [ebx+8]
  0013e	8b c6		 mov	 eax, esi
  00140	2b c1		 sub	 eax, ecx
  00142	c1 e0 02	 shl	 eax, 2
  00145	50		 push	 eax
  00146	8b 45 0c	 mov	 eax, DWORD PTR _pNewData$1$[ebp]
  00149	6a 00		 push	 0
  0014b	8d 04 88	 lea	 eax, DWORD PTR [eax+ecx*4]
  0014e	50		 push	 eax
  0014f	e8 00 00 00 00	 call	 _memset

; 463  : 		for( int i = 0; i < nNewSize-m_nSize; i++ )
; 464  : #pragma push_macro("new")
; 465  : #undef new
; 466  : 			::new( (void*)( pNewData + m_nSize + i ) ) TYPE;
; 467  : #pragma pop_macro("new")
; 468  : 
; 469  : 		// get rid of old stuff (note: no destructors called)
; 470  : 		delete[] (BYTE*)m_pData;

  00154	ff 73 04	 push	 DWORD PTR [ebx+4]
  00157	e8 00 00 00 00	 call	 ??_V@YAXPAX@Z		; operator delete[]

; 471  : 		m_pData = pNewData;

  0015c	8b 45 0c	 mov	 eax, DWORD PTR _pNewData$1$[ebp]
  0015f	83 c4 14	 add	 esp, 20			; 00000014H

; 472  : 		m_nSize = nNewSize;
; 473  : 		m_nMaxSize = nNewMax;
; 474  : 	}
; 475  : }

  00162	89 7b 0c	 mov	 DWORD PTR [ebx+12], edi
  00165	89 73 08	 mov	 DWORD PTR [ebx+8], esi
  00168	89 43 04	 mov	 DWORD PTR [ebx+4], eax
  0016b	5f		 pop	 edi
  0016c	5e		 pop	 esi
  0016d	5b		 pop	 ebx
  0016e	8b e5		 mov	 esp, ebp
  00170	5d		 pop	 ebp
  00171	c2 08 00	 ret	 8
$LN42@SetSize:
; File C:\Program Files (x86)\Windows Kits\10\Include\10.0.22000.0\ucrt\corecrt_memcpy_s.h

; 52   :         if (_Source == NULL || _DestinationSize < _SourceSize)

  00174	85 d2		 test	 edx, edx
  00176	8d 14 bd 00 00
	00 00		 lea	 edx, DWORD PTR [edi*4]
  0017d	74 15		 je	 SHORT $LN44@SetSize
  0017f	3b d0		 cmp	 edx, eax
  00181	72 11		 jb	 SHORT $LN44@SetSize

; 58   : 
; 59   :             // Unreachable, but required to suppress /analyze warnings:
; 60   :             return EINVAL;
; 61   :         }
; 62   :         memcpy(_Destination, _Source, _SourceSize);

  00183	50		 push	 eax
  00184	ff 75 08	 push	 DWORD PTR __S2$1$[ebp]
  00187	51		 push	 ecx
  00188	e8 00 00 00 00	 call	 _memcpy
  0018d	83 c4 0c	 add	 esp, 12			; 0000000cH
$LN74@SetSize:
; File C:\Program Files (x86)\Microsoft Visual Studio\2019\Community\VC\Tools\MSVC\14.29.30133\atlmfc\include\atlchecked.h

; 69   : 	ATLMFC_CRT_ERRORCHECK(::memcpy_s(_S1, _S1max, _S2, _N));

  00190	33 c0		 xor	 eax, eax
  00192	eb a1		 jmp	 SHORT $LN40@SetSize
$LN44@SetSize:
; File C:\Program Files (x86)\Windows Kits\10\Include\10.0.22000.0\ucrt\corecrt_memcpy_s.h

; 54   :             memset(_Destination, 0, _DestinationSize);

  00194	52		 push	 edx
  00195	6a 00		 push	 0
  00197	51		 push	 ecx
  00198	e8 00 00 00 00	 call	 _memset
  0019d	83 c4 0c	 add	 esp, 12			; 0000000cH

; 55   : 
; 56   :             _CRT_MEMCPY_S_VALIDATE_RETURN_ERRCODE(_Source != NULL,                 EINVAL);

  001a0	83 7d 08 00	 cmp	 DWORD PTR __S2$1$[ebp], 0
  001a4	0f 84 74 ff ff
	ff		 je	 $LN73@SetSize

; 57   :             _CRT_MEMCPY_S_VALIDATE_RETURN_ERRCODE(_DestinationSize >= _SourceSize, ERANGE);

  001aa	8d 04 bd 00 00
	00 00		 lea	 eax, DWORD PTR [edi*4]
  001b1	3b 45 fc	 cmp	 eax, DWORD PTR __N$1$[ebp]
  001b4	0f 83 76 ff ff
	ff		 jae	 $LN46@SetSize
  001ba	ff 15 00 00 00
	00		 call	 DWORD PTR __imp___errno
  001c0	c7 00 22 00 00
	00		 mov	 DWORD PTR [eax], 34	; 00000022H
  001c6	ff 15 00 00 00
	00		 call	 DWORD PTR __imp___invalid_parameter_noinfo
  001cc	b8 22 00 00 00	 mov	 eax, 34			; 00000022H
  001d1	e9 5f ff ff ff	 jmp	 $LN40@SetSize
$LN70@SetSize:
; File C:\Program Files (x86)\Microsoft Visual Studio\2019\Community\VC\Tools\MSVC\14.29.30133\atlmfc\include\afxtempl.h

; 449  : 			AfxThrowInvalidArgException();

  001d6	e8 00 00 00 00	 call	 ?AfxThrowInvalidArgException@@YGXXZ ; AfxThrowInvalidArgException
$LN72@SetSize:
  001db	cc		 int	 3
?SetSize@?$CArray@HH@@QAEXHH@Z ENDP			; CArray<int,int>::SetSize
_TEXT	ENDS
; Function compile flags: /Ogtp
; File C:\Program Files (x86)\Microsoft Visual Studio\2019\Community\VC\Tools\MSVC\14.29.30133\atlmfc\include\afxtempl.h
;	COMDAT ??0?$CArray@HH@@QAE@XZ
_TEXT	SEGMENT
??0?$CArray@HH@@QAE@XZ PROC				; CArray<int,int>::CArray<int,int>, COMDAT
; _this$ = ecx

; 348  : {

  00000	c7 01 00 00 00
	00		 mov	 DWORD PTR [ecx], OFFSET ??_7?$CArray@HH@@6B@

; 349  : 	m_pData = NULL;
; 350  : 	m_nSize = m_nMaxSize = m_nGrowBy = 0;
; 351  : }

  00006	8b c1		 mov	 eax, ecx
  00008	c7 41 04 00 00
	00 00		 mov	 DWORD PTR [ecx+4], 0
  0000f	c7 41 10 00 00
	00 00		 mov	 DWORD PTR [ecx+16], 0
  00016	c7 41 0c 00 00
	00 00		 mov	 DWORD PTR [ecx+12], 0
  0001d	c7 41 08 00 00
	00 00		 mov	 DWORD PTR [ecx+8], 0
  00024	c3		 ret	 0
??0?$CArray@HH@@QAE@XZ ENDP				; CArray<int,int>::CArray<int,int>
_TEXT	ENDS
; Function compile flags: /Ogtp
; File D:\git\src\IBK\IBK_DRFN\ProjSrc\SrcDrfn\Chart\MULTICHART\DlgToolbar.cpp
; File C:\Program Files (x86)\Microsoft Visual Studio\2019\Community\VC\Tools\MSVC\14.29.30133\atlmfc\include\afxcmn.inl
; File D:\git\src\IBK\IBK_DRFN\ProjSrc\SrcDrfn\Chart\MULTICHART\DlgToolbar.cpp
; File C:\Program Files (x86)\Microsoft Visual Studio\2019\Community\VC\Tools\MSVC\14.29.30133\atlmfc\include\afxwin1.inl
; File D:\git\src\IBK\IBK_DRFN\ProjSrc\SrcDrfn\Chart\MULTICHART\DlgToolbar.cpp
; File C:\Program Files (x86)\Microsoft Visual Studio\2019\Community\VC\Tools\MSVC\14.29.30133\atlmfc\include\afxwin1.inl
; File D:\git\src\IBK\IBK_DRFN\ProjSrc\SrcDrfn\Chart\MULTICHART\DlgToolbar.cpp
; File C:\Program Files (x86)\Microsoft Visual Studio\2019\Community\VC\Tools\MSVC\14.29.30133\atlmfc\include\afxwin1.inl
; File D:\git\src\IBK\IBK_DRFN\ProjSrc\SrcDrfn\Chart\MULTICHART\DlgToolbar.cpp
; File C:\Program Files (x86)\Microsoft Visual Studio\2019\Community\VC\Tools\MSVC\14.29.30133\atlmfc\include\afxwin1.inl
; File C:\Program Files (x86)\Microsoft Visual Studio\2019\Community\VC\Tools\MSVC\14.29.30133\atlmfc\include\afxwin2.inl
; File D:\git\src\IBK\IBK_DRFN\ProjSrc\SrcDrfn\Chart\MULTICHART\DlgToolbar.cpp
; File C:\Program Files (x86)\Microsoft Visual Studio\2019\Community\VC\Tools\MSVC\14.29.30133\atlmfc\include\afx.inl
; File D:\git\src\IBK\IBK_DRFN\ProjSrc\SrcDrfn\Chart\MULTICHART\DlgToolbar.cpp
; File C:\Program Files (x86)\Microsoft Visual Studio\2019\Community\VC\Tools\MSVC\14.29.30133\atlmfc\include\afx.inl
; File D:\git\src\IBK\IBK_DRFN\ProjSrc\SrcDrfn\Chart\MULTICHART\DlgToolbar.cpp
; File C:\Program Files (x86)\Microsoft Visual Studio\2019\Community\VC\Tools\MSVC\14.29.30133\atlmfc\include\afx.inl
; File D:\git\src\IBK\IBK_DRFN\ProjSrc\SrcDrfn\Chart\MULTICHART\DlgToolbar.cpp
; File C:\Program Files (x86)\Microsoft Visual Studio\2019\Community\VC\Tools\MSVC\14.29.30133\atlmfc\include\afxtempl.h
; File C:\Program Files (x86)\Microsoft Visual Studio\2019\Community\VC\Tools\MSVC\14.29.30133\atlmfc\include\afx.inl
; File D:\git\src\IBK\IBK_DRFN\ProjSrc\SrcDrfn\Chart\MULTICHART\DlgToolbar.cpp
; File C:\Program Files (x86)\Microsoft Visual Studio\2019\Community\VC\Tools\MSVC\14.29.30133\atlmfc\include\afx.inl
; File D:\git\src\IBK\IBK_DRFN\ProjSrc\SrcDrfn\Chart\MULTICHART\DlgToolbar.cpp
; File C:\Program Files (x86)\Microsoft Visual Studio\2019\Community\VC\Tools\MSVC\14.29.30133\atlmfc\include\afxtempl.h
; File D:\git\src\IBK\IBK_DRFN\ProjSrc\SrcDrfn\Chart\MULTICHART\DlgToolbar.cpp
; File C:\Program Files (x86)\Microsoft Visual Studio\2019\Community\VC\Tools\MSVC\14.29.30133\atlmfc\include\afxtempl.h
; File D:\git\src\IBK\IBK_DRFN\ProjSrc\SrcDrfn\Chart\MULTICHART\DlgToolbar.cpp
; File C:\Program Files (x86)\Microsoft Visual Studio\2019\Community\VC\Tools\MSVC\14.29.30133\atlmfc\include\afxwin1.inl
; File D:\git\src\IBK\IBK_DRFN\ProjSrc\SrcDrfn\Chart\MULTICHART\DlgToolbar.cpp
; File C:\Program Files (x86)\Microsoft Visual Studio\2019\Community\VC\Tools\MSVC\14.29.30133\atlmfc\include\afxwin1.inl
; File D:\git\src\IBK\IBK_DRFN\ProjSrc\SrcDrfn\Chart\MULTICHART\DlgToolbar.cpp
; File C:\Program Files (x86)\Microsoft Visual Studio\2019\Community\VC\Tools\MSVC\14.29.30133\atlmfc\include\afx.inl
; File D:\git\src\IBK\IBK_DRFN\ProjSrc\SrcDrfn\Chart\MULTICHART\DlgToolbar.cpp
; File C:\Program Files (x86)\Microsoft Visual Studio\2019\Community\VC\Tools\MSVC\14.29.30133\atlmfc\include\atltypes.h
; File D:\git\src\IBK\IBK_DRFN\ProjSrc\SrcDrfn\Chart\MULTICHART\DlgToolbar.cpp
; File C:\Program Files (x86)\Microsoft Visual Studio\2019\Community\VC\Tools\MSVC\14.29.30133\atlmfc\include\afx.inl
; File D:\git\src\IBK\IBK_DRFN\ProjSrc\SrcDrfn\Chart\MULTICHART\DlgToolbar.cpp
; File C:\Program Files (x86)\Microsoft Visual Studio\2019\Community\VC\Tools\MSVC\14.29.30133\atlmfc\include\atltypes.h
; File D:\git\src\IBK\IBK_DRFN\ProjSrc\SrcDrfn\Chart\MULTICHART\DlgToolbar.cpp
; File C:\Program Files (x86)\Microsoft Visual Studio\2019\Community\VC\Tools\MSVC\14.29.30133\atlmfc\include\afxwin1.inl
; File D:\git\src\IBK\IBK_DRFN\ProjSrc\SrcDrfn\Chart\MULTICHART\DlgToolbar.cpp
; File C:\Program Files (x86)\Microsoft Visual Studio\2019\Community\VC\Tools\MSVC\14.29.30133\atlmfc\include\afxtempl.h
; File D:\git\src\IBK\IBK_DRFN\ProjSrc\SrcDrfn\Chart\MULTICHART\DlgToolbar.cpp
;	COMDAT ?CreateToolButton@CDlgToolbar@@IAEHXZ
_TEXT	SEGMENT
_nHashValue$2 = -136					; size = 4
_strImageFolderPath$ = -132				; size = 4
_strUpFile$ = -128					; size = 4
_strDownFile$ = -124					; size = 4
tv1147 = -120						; size = 4
$T3 = -116						; size = 4
$T4 = -116						; size = 4
$T5 = -116						; size = 4
_bitmap$ = -112						; size = 8
_strImgPath$ = -104					; size = 4
_nHashBucket$6 = -100					; size = 4
$T7 = -100						; size = 4
$T8 = -100						; size = 4
_strButtonName$ = -96					; size = 4
$T9 = -92						; size = 16
$T10 = -92						; size = 16
_lfont$ = -76						; size = 60
__$ArrayPad$ = -16					; size = 4
__$EHRec$ = -12						; size = 12
?CreateToolButton@CDlgToolbar@@IAEHXZ PROC		; CDlgToolbar::CreateToolButton, COMDAT
; _this$ = ecx

; 184  : {

  00000	55		 push	 ebp
  00001	8b ec		 mov	 ebp, esp
  00003	6a ff		 push	 -1
  00005	68 00 00 00 00	 push	 __ehhandler$?CreateToolButton@CDlgToolbar@@IAEHXZ
  0000a	64 a1 00 00 00
	00		 mov	 eax, DWORD PTR fs:0
  00010	50		 push	 eax
  00011	83 ec 7c	 sub	 esp, 124		; 0000007cH
  00014	a1 00 00 00 00	 mov	 eax, DWORD PTR ___security_cookie
  00019	33 c5		 xor	 eax, ebp
  0001b	89 45 f0	 mov	 DWORD PTR __$ArrayPad$[ebp], eax
  0001e	53		 push	 ebx
  0001f	56		 push	 esi
  00020	57		 push	 edi
  00021	50		 push	 eax
  00022	8d 45 f4	 lea	 eax, DWORD PTR __$EHRec$[ebp]
  00025	64 a3 00 00 00
	00		 mov	 DWORD PTR fs:0, eax
  0002b	8b f1		 mov	 esi, ecx

; 185  : 	// create tooltip
; 186  : 	if(!m_ToolTip.Create(this, TTS_ALWAYSTIP))

  0002d	8b 86 f8 01 00
	00		 mov	 eax, DWORD PTR [esi+504]
  00033	8d 8e f8 01 00
	00		 lea	 ecx, DWORD PTR [esi+504]
  00039	6a 01		 push	 1
  0003b	56		 push	 esi
  0003c	ff 90 6c 01 00
	00		 call	 DWORD PTR [eax+364]
  00042	85 c0		 test	 eax, eax
  00044	0f 84 91 05 00
	00		 je	 $LN141@CreateTool

; 187  : 		return FALSE;
; 188  : 	m_ToolTip.SetWindowPos(&CWnd::wndTopMost, 0, 0, 0, 0, SWP_HIDEWINDOW);

  0004a	68 80 00 00 00	 push	 128			; 00000080H
  0004f	6a 00		 push	 0
  00051	6a 00		 push	 0
  00053	6a 00		 push	 0
  00055	6a 00		 push	 0
  00057	ff 35 00 00 00
	00		 push	 DWORD PTR __imp_?wndTopMost@CWnd@@2V1@B
  0005d	8d 8e f8 01 00
	00		 lea	 ecx, DWORD PTR [esi+504]
  00063	e8 00 00 00 00	 call	 ?SetWindowPos@CWnd@@QAEHPBV1@HHHHI@Z ; CWnd::SetWindowPos
; File C:\Program Files (x86)\Microsoft Visual Studio\2019\Community\VC\Tools\MSVC\14.29.30133\atlmfc\include\afxcmn.inl

; 425  : 	{ ASSERT(::IsWindow(m_hWnd));  ::SendMessage(m_hWnd, TTM_ACTIVATE, bActivate, 0L); }

  00068	6a 00		 push	 0
  0006a	6a 01		 push	 1
  0006c	68 01 04 00 00	 push	 1025			; 00000401H
  00071	ff b6 18 02 00
	00		 push	 DWORD PTR [esi+536]
  00077	ff 15 00 00 00
	00		 call	 DWORD PTR __imp__SendMessageA@16
; File D:\git\src\IBK\IBK_DRFN\ProjSrc\SrcDrfn\Chart\MULTICHART\DlgToolbar.cpp

; 205  : 	strcpy(lfont.lfFaceName, "");

  0007d	a1 00 00 00 00	 mov	 eax, DWORD PTR ??_C@_06MFMMLLPC@?$LB?$LM?$LI?$LC?C?$LM@

; 208  : 	if(!m_BtnFont.CreateFontIndirect(&lfont))

  00082	8d 9e f0 01 00
	00		 lea	 ebx, DWORD PTR [esi+496]
  00088	89 45 d0	 mov	 DWORD PTR _lfont$[ebp+28], eax
  0008b	0f 57 c0	 xorps	 xmm0, xmm0
  0008e	66 a1 04 00 00
	00		 mov	 ax, WORD PTR ??_C@_06MFMMLLPC@?$LB?$LM?$LI?$LC?C?$LM@+4
  00094	66 89 45 d4	 mov	 WORD PTR _lfont$[ebp+32], ax
  00098	a0 06 00 00 00	 mov	 al, BYTE PTR ??_C@_06MFMMLLPC@?$LB?$LM?$LI?$LC?C?$LM@+6
  0009d	88 45 d6	 mov	 BYTE PTR _lfont$[ebp+34], al
; File C:\Program Files (x86)\Microsoft Visual Studio\2019\Community\VC\Tools\MSVC\14.29.30133\atlmfc\include\afxwin1.inl

; 157  : 	{ return Attach(::CreateFontIndirect(lpLogFont)); }

  000a0	8d 45 b4	 lea	 eax, DWORD PTR _lfont$[ebp]
; File D:\git\src\IBK\IBK_DRFN\ProjSrc\SrcDrfn\Chart\MULTICHART\DlgToolbar.cpp

; 192  : 	::memset(&lfont, 0x00, sizeof(LOGFONT));

  000a3	66 0f 13 45 d7	 movlpd	 QWORD PTR _lfont$[ebp+35], xmm0
  000a8	66 0f 13 45 df	 movlpd	 QWORD PTR _lfont$[ebp+43], xmm0
  000ad	66 0f 13 45 e7	 movlpd	 QWORD PTR _lfont$[ebp+51], xmm0

; 193  : 	lfont.lfWidth = 0; 

  000b2	0f 28 05 00 00
	00 00		 movaps	 xmm0, XMMWORD PTR __xmm@00000190000000000000000000000000
; File C:\Program Files (x86)\Microsoft Visual Studio\2019\Community\VC\Tools\MSVC\14.29.30133\atlmfc\include\afxwin1.inl

; 157  : 	{ return Attach(::CreateFontIndirect(lpLogFont)); }

  000b9	50		 push	 eax
; File D:\git\src\IBK\IBK_DRFN\ProjSrc\SrcDrfn\Chart\MULTICHART\DlgToolbar.cpp

; 192  : 	::memset(&lfont, 0x00, sizeof(LOGFONT));

  000ba	c6 45 ef 00	 mov	 BYTE PTR _lfont$[ebp+59], 0

; 193  : 	lfont.lfWidth = 0; 

  000be	0f 11 45 b8	 movups	 XMMWORD PTR _lfont$[ebp+4], xmm0

; 194  : 	lfont.lfEscapement = 0; 
; 195  : 	lfont.lfOrientation = 0; 
; 196  : 	lfont.lfWeight = FW_NORMAL; 
; 197  : 	lfont.lfItalic = 0; 

  000c2	c7 45 c8 00 00
	00 01		 mov	 DWORD PTR _lfont$[ebp+20], 16777216 ; 01000000H

; 198  : 	lfont.lfUnderline = 0; 
; 199  : 	lfont.lfStrikeOut = 0; 
; 200  : 	lfont.lfCharSet = DEFAULT_CHARSET; 
; 201  : 	lfont.lfOutPrecision = OUT_DEFAULT_PRECIS; 

  000c9	c7 45 cc 00 00
	00 10		 mov	 DWORD PTR _lfont$[ebp+24], 268435456 ; 10000000H

; 206  : 	lfont.lfHeight = -12;

  000d0	c7 45 b4 f4 ff
	ff ff		 mov	 DWORD PTR _lfont$[ebp], -12 ; fffffff4H
; File C:\Program Files (x86)\Microsoft Visual Studio\2019\Community\VC\Tools\MSVC\14.29.30133\atlmfc\include\afxwin1.inl

; 157  : 	{ return Attach(::CreateFontIndirect(lpLogFont)); }

  000d7	ff 15 00 00 00
	00		 call	 DWORD PTR __imp__CreateFontIndirectA@4
  000dd	50		 push	 eax
  000de	8b cb		 mov	 ecx, ebx
  000e0	e8 00 00 00 00	 call	 ?Attach@CGdiObject@@QAEHPAX@Z ; CGdiObject::Attach
; File D:\git\src\IBK\IBK_DRFN\ProjSrc\SrcDrfn\Chart\MULTICHART\DlgToolbar.cpp

; 208  : 	if(!m_BtnFont.CreateFontIndirect(&lfont))

  000e5	85 c0		 test	 eax, eax
  000e7	0f 84 ee 04 00
	00		 je	 $LN141@CreateTool
; File C:\Program Files (x86)\Microsoft Visual Studio\2019\Community\VC\Tools\MSVC\14.29.30133\atlmfc\include\afxwin1.inl

; 68   : 	{ return this == NULL ? NULL : m_hObject; }

  000ed	85 db		 test	 ebx, ebx
  000ef	75 04		 jne	 SHORT $LN55@CreateTool
  000f1	33 c0		 xor	 eax, eax
  000f3	eb 03		 jmp	 SHORT $LN56@CreateTool
$LN55@CreateTool:
  000f5	8b 43 04	 mov	 eax, DWORD PTR [ebx+4]
$LN56@CreateTool:
; File C:\Program Files (x86)\Microsoft Visual Studio\2019\Community\VC\Tools\MSVC\14.29.30133\atlmfc\include\afxwin2.inl

; 43   : 	{ ASSERT(::IsWindow(m_hWnd)); ::SendMessage(m_hWnd, WM_SETFONT, (WPARAM)pFont->GetSafeHandle(), bRedraw); }

  000f8	6a 01		 push	 1
  000fa	50		 push	 eax
  000fb	6a 30		 push	 48			; 00000030H
  000fd	ff b6 18 02 00
	00		 push	 DWORD PTR [esi+536]
  00103	ff 15 00 00 00
	00		 call	 DWORD PTR __imp__SendMessageA@16
; File D:\git\src\IBK\IBK_DRFN\ProjSrc\SrcDrfn\Chart\MULTICHART\DlgToolbar.cpp

; 217  : 	CStdDialog* pMainDlg = (CStdDialog*)m_pMultiChartWnd;

  00109	8b 86 a4 02 00
	00		 mov	 eax, DWORD PTR [esi+676]

; 218  : 	CString strImageFolderPath = pMainDlg->m_szImageDir+"\\";

  0010f	05 ac 07 00 00	 add	 eax, 1964		; 000007acH
  00114	c7 86 ac 02 00
	00 01 00 00 00	 mov	 DWORD PTR [esi+684], 1
  0011e	68 00 00 00 00	 push	 OFFSET ??_C@_01KICIPPFI@?2@
  00123	50		 push	 eax
  00124	89 45 88	 mov	 DWORD PTR tv1147[ebp], eax
  00127	8d 85 7c ff ff
	ff		 lea	 eax, DWORD PTR _strImageFolderPath$[ebp]
  0012d	50		 push	 eax
  0012e	e8 00 00 00 00	 call	 ??HATL@@YA?AV?$CStringT@DV?$StrTraitMFC_DLL@DV?$ChTraitsCRT@D@ATL@@@@@0@ABV10@PBD@Z ; ATL::operator+
  00133	83 c4 0c	 add	 esp, 12			; 0000000cH

; 219  : 	CString strButtonName, strUpFile, strDownFile;

  00136	8d 4d a0	 lea	 ecx, DWORD PTR _strButtonName$[ebp]
  00139	c7 45 fc 00 00
	00 00		 mov	 DWORD PTR __$EHRec$[ebp+8], 0
  00140	ff 15 00 00 00
	00		 call	 DWORD PTR __imp_??0?$CStringT@DV?$StrTraitMFC_DLL@DV?$ChTraitsCRT@D@ATL@@@@@ATL@@QAE@XZ
  00146	8d 4d 80	 lea	 ecx, DWORD PTR _strUpFile$[ebp]
  00149	ff 15 00 00 00
	00		 call	 DWORD PTR __imp_??0?$CStringT@DV?$StrTraitMFC_DLL@DV?$ChTraitsCRT@D@ATL@@@@@ATL@@QAE@XZ
  0014f	8d 4d 84	 lea	 ecx, DWORD PTR _strDownFile$[ebp]
  00152	ff 15 00 00 00
	00		 call	 DWORD PTR __imp_??0?$CStringT@DV?$StrTraitMFC_DLL@DV?$ChTraitsCRT@D@ATL@@@@@ATL@@QAE@XZ
; File C:\Program Files (x86)\Microsoft Visual Studio\2019\Community\VC\Tools\MSVC\14.29.30133\atlmfc\include\afx.inl

; 116  : 	{ return ::operator new(nSize); }

  00158	68 38 01 00 00	 push	 312			; 00000138H
; File D:\git\src\IBK\IBK_DRFN\ProjSrc\SrcDrfn\Chart\MULTICHART\DlgToolbar.cpp

; 219  : 	CString strButtonName, strUpFile, strDownFile;

  0015d	c6 45 fc 03	 mov	 BYTE PTR __$EHRec$[ebp+8], 3
; File C:\Program Files (x86)\Microsoft Visual Studio\2019\Community\VC\Tools\MSVC\14.29.30133\atlmfc\include\afx.inl

; 116  : 	{ return ::operator new(nSize); }

  00161	e8 00 00 00 00	 call	 ??2@YAPAXI@Z		; operator new
  00166	83 c4 04	 add	 esp, 4
; File D:\git\src\IBK\IBK_DRFN\ProjSrc\SrcDrfn\Chart\MULTICHART\DlgToolbar.cpp

; 222  : 	m_pToolBtn[nKeyInx] = new CChartToolBtn;

  00169	89 45 8c	 mov	 DWORD PTR $T5[ebp], eax
  0016c	c6 45 fc 04	 mov	 BYTE PTR __$EHRec$[ebp+8], 4
  00170	85 c0		 test	 eax, eax
  00172	74 09		 je	 SHORT $LN16@CreateTool
  00174	8b c8		 mov	 ecx, eax
  00176	e8 00 00 00 00	 call	 ??0CChartToolBtn@@QAE@XZ ; CChartToolBtn::CChartToolBtn
  0017b	eb 02		 jmp	 SHORT $LN17@CreateTool
$LN16@CreateTool:
  0017d	33 c0		 xor	 eax, eax
$LN17@CreateTool:
  0017f	c6 45 fc 03	 mov	 BYTE PTR __$EHRec$[ebp+8], 3
  00183	89 86 a8 00 00
	00		 mov	 DWORD PTR [esi+168], eax

; 223  : 	if(!m_pToolBtn[nKeyInx])

  00189	85 c0		 test	 eax, eax
  0018b	0f 84 1d 04 00
	00		 je	 $LN113@CreateTool

; 224  : 		return FALSE;
; 225  : 
; 226  : 	if(!m_pToolBtn[nKeyInx]->CreateBtn(this, &m_BtnFont, TOOL_BUTTON_BASE_ID + nKeyInx))

  00191	68 f4 01 00 00	 push	 500			; 000001f4H
  00196	53		 push	 ebx
  00197	56		 push	 esi
  00198	8b c8		 mov	 ecx, eax
  0019a	e8 00 00 00 00	 call	 ?CreateBtn@CChartToolBtn@@QAEHPAVCWnd@@PAVCFont@@H@Z ; CChartToolBtn::CreateBtn
  0019f	85 c0		 test	 eax, eax
  001a1	0f 84 07 04 00
	00		 je	 $LN113@CreateTool

; 227  : 		return FALSE;
; 228  : 	
; 229  : 	strButtonName = "";

  001a7	68 00 00 00 00	 push	 OFFSET ??_C@_06CDNBHBF@?E?x?$LM?$LB?E?C@
  001ac	8d 4d a0	 lea	 ecx, DWORD PTR _strButtonName$[ebp]
  001af	ff 15 00 00 00
	00		 call	 DWORD PTR __imp_??4?$CStringT@DV?$StrTraitMFC_DLL@DV?$ChTraitsCRT@D@ATL@@@@@ATL@@QAEAAV01@PBD@Z

; 230  : 	strButtonName.Replace(" ", "");

  001b5	68 00 00 00 00	 push	 OFFSET ??_C@_00CNPNBAHC@@
  001ba	68 00 00 00 00	 push	 OFFSET ??_C@_01CLKCMJKC@?5@
  001bf	8d 4d a0	 lea	 ecx, DWORD PTR _strButtonName$[ebp]
  001c2	ff 15 00 00 00
	00		 call	 DWORD PTR __imp_?Replace@?$CStringT@DV?$StrTraitMFC_DLL@DV?$ChTraitsCRT@D@ATL@@@@@ATL@@QAEHPBD0@Z

; 231  : 
; 232  : 	m_pToolBtn[nKeyInx]->SetValueBtn(GetToolOption(TOOL_BUTTON_BASE_ID + nKeyInx), 

  001c8	6a 02		 push	 2
  001ca	6a 01		 push	 1
  001cc	6a 00		 push	 0
  001ce	ff b6 bc 02 00
	00		 push	 DWORD PTR [esi+700]
  001d4	8b ce		 mov	 ecx, esi
  001d6	ff 35 00 00 00
	00		 push	 DWORD PTR ?g_bToggle_Bar@@3PAHA
  001dc	68 f4 01 00 00	 push	 500			; 000001f4H
  001e1	e8 00 00 00 00	 call	 ?GetToolOption@CDlgToolbar@@QAE?AW4TOOLOPTION@CToolOptionInfo@@I@Z ; CDlgToolbar::GetToolOption
  001e6	8b 8e a8 00 00
	00		 mov	 ecx, DWORD PTR [esi+168]
  001ec	50		 push	 eax
  001ed	e8 00 00 00 00	 call	 ?SetValueBtn@CChartToolBtn@@QAEXW4TOOLOPTION@CToolOptionInfo@@HPAVCImageList@@HHH@Z ; CChartToolBtn::SetValueBtn

; 233  : 							   g_bToggle_Bar[nKeyInx], m_pIL_W28H22, nKeyInx*3, nKeyInx*3+1, nKeyInx*3+2);
; 234  : 
; 235  : 	m_ToolTip.AddTool(m_pToolBtn[nKeyInx], strButtonName);

  001f2	6a 00		 push	 0
  001f4	6a 00		 push	 0
  001f6	ff 75 a0	 push	 DWORD PTR _strButtonName$[ebp]
  001f9	8d 8e f8 01 00
	00		 lea	 ecx, DWORD PTR [esi+504]
  001ff	ff b6 a8 00 00
	00		 push	 DWORD PTR [esi+168]
  00205	e8 00 00 00 00	 call	 ?AddTool@CToolTipCtrl@@QAEHPAVCWnd@@PBDPBUtagRECT@@I@Z ; CToolTipCtrl::AddTool
; File C:\Program Files (x86)\Microsoft Visual Studio\2019\Community\VC\Tools\MSVC\14.29.30133\atlmfc\include\afx.inl

; 116  : 	{ return ::operator new(nSize); }

  0020a	68 38 01 00 00	 push	 312			; 00000138H
  0020f	e8 00 00 00 00	 call	 ??2@YAPAXI@Z		; operator new
  00214	83 c4 04	 add	 esp, 4
; File D:\git\src\IBK\IBK_DRFN\ProjSrc\SrcDrfn\Chart\MULTICHART\DlgToolbar.cpp

; 239  : 	m_pToolBtn[nKeyInx] = new CChartToolBtn;

  00217	89 45 8c	 mov	 DWORD PTR $T4[ebp], eax
  0021a	c6 45 fc 05	 mov	 BYTE PTR __$EHRec$[ebp+8], 5
  0021e	85 c0		 test	 eax, eax
  00220	74 09		 je	 SHORT $LN18@CreateTool
  00222	8b c8		 mov	 ecx, eax
  00224	e8 00 00 00 00	 call	 ??0CChartToolBtn@@QAE@XZ ; CChartToolBtn::CChartToolBtn
  00229	eb 02		 jmp	 SHORT $LN19@CreateTool
$LN18@CreateTool:
  0022b	33 c0		 xor	 eax, eax
$LN19@CreateTool:
  0022d	c6 45 fc 03	 mov	 BYTE PTR __$EHRec$[ebp+8], 3
  00231	89 86 b4 00 00
	00		 mov	 DWORD PTR [esi+180], eax

; 240  : 	if(!m_pToolBtn[nKeyInx])

  00237	85 c0		 test	 eax, eax
  00239	0f 84 6f 03 00
	00		 je	 $LN113@CreateTool

; 241  : 		return FALSE;
; 242  : 
; 243  : 	if(!m_pToolBtn[nKeyInx]->CreateBtn(this, &m_BtnFont, TOOL_BUTTON_BASE_ID + nKeyInx))

  0023f	68 f7 01 00 00	 push	 503			; 000001f7H
  00244	53		 push	 ebx
  00245	56		 push	 esi
  00246	8b c8		 mov	 ecx, eax
  00248	e8 00 00 00 00	 call	 ?CreateBtn@CChartToolBtn@@QAEHPAVCWnd@@PAVCFont@@H@Z ; CChartToolBtn::CreateBtn
  0024d	85 c0		 test	 eax, eax
  0024f	0f 84 59 03 00
	00		 je	 $LN113@CreateTool

; 244  : 		return FALSE;
; 245  : 	
; 246  : 	strButtonName = "";

  00255	68 00 00 00 00	 push	 OFFSET ??_C@_0L@PPOMAPHP@?B?w?F?$KO?E?x?F?m?A?$PN@
  0025a	8d 4d a0	 lea	 ecx, DWORD PTR _strButtonName$[ebp]
  0025d	ff 15 00 00 00
	00		 call	 DWORD PTR __imp_??4?$CStringT@DV?$StrTraitMFC_DLL@DV?$ChTraitsCRT@D@ATL@@@@@ATL@@QAEAAV01@PBD@Z

; 247  : 	strButtonName.Replace(" ", "");

  00263	68 00 00 00 00	 push	 OFFSET ??_C@_00CNPNBAHC@@
  00268	68 00 00 00 00	 push	 OFFSET ??_C@_01CLKCMJKC@?5@
  0026d	8d 4d a0	 lea	 ecx, DWORD PTR _strButtonName$[ebp]
  00270	ff 15 00 00 00
	00		 call	 DWORD PTR __imp_?Replace@?$CStringT@DV?$StrTraitMFC_DLL@DV?$ChTraitsCRT@D@ATL@@@@@ATL@@QAEHPBD0@Z

; 248  : 
; 249  : 	m_pToolBtn[nKeyInx]->SetValueBtn(GetToolOption(TOOL_BUTTON_BASE_ID + nKeyInx), 

  00276	6a 0b		 push	 11			; 0000000bH
  00278	6a 0a		 push	 10			; 0000000aH
  0027a	6a 09		 push	 9
  0027c	ff b6 bc 02 00
	00		 push	 DWORD PTR [esi+700]
  00282	8b ce		 mov	 ecx, esi
  00284	ff 35 0c 00 00
	00		 push	 DWORD PTR ?g_bToggle_Bar@@3PAHA+12
  0028a	68 f7 01 00 00	 push	 503			; 000001f7H
  0028f	e8 00 00 00 00	 call	 ?GetToolOption@CDlgToolbar@@QAE?AW4TOOLOPTION@CToolOptionInfo@@I@Z ; CDlgToolbar::GetToolOption
  00294	8b 8e b4 00 00
	00		 mov	 ecx, DWORD PTR [esi+180]
  0029a	50		 push	 eax
  0029b	e8 00 00 00 00	 call	 ?SetValueBtn@CChartToolBtn@@QAEXW4TOOLOPTION@CToolOptionInfo@@HPAVCImageList@@HHH@Z ; CChartToolBtn::SetValueBtn

; 250  : 							   g_bToggle_Bar[nKeyInx], m_pIL_W28H22, nKeyInx*3, nKeyInx*3+1, nKeyInx*3+2);
; 251  : 	m_ToolTip.AddTool(m_pToolBtn[nKeyInx], strButtonName);

  002a0	6a 00		 push	 0
  002a2	6a 00		 push	 0
  002a4	ff 75 a0	 push	 DWORD PTR _strButtonName$[ebp]
  002a7	8d 8e f8 01 00
	00		 lea	 ecx, DWORD PTR [esi+504]
  002ad	ff b6 b4 00 00
	00		 push	 DWORD PTR [esi+180]
  002b3	e8 00 00 00 00	 call	 ?AddTool@CToolTipCtrl@@QAEHPAVCWnd@@PBDPBUtagRECT@@I@Z ; CToolTipCtrl::AddTool

; 252  : 	
; 253  : 	for(int i = 0; i < m_arrayTotalIdx.GetSize() ; i++)

  002b8	8b 86 c8 02 00
	00		 mov	 eax, DWORD PTR [esi+712]
  002be	33 db		 xor	 ebx, ebx
  002c0	85 c0		 test	 eax, eax
  002c2	0f 8e 04 01 00
	00		 jle	 $LN3@CreateTool
$LL4@CreateTool:
; File C:\Program Files (x86)\Microsoft Visual Studio\2019\Community\VC\Tools\MSVC\14.29.30133\atlmfc\include\afxtempl.h

; 288  : 	if(nIndex >= 0 && nIndex < m_nSize)

  002c8	85 db		 test	 ebx, ebx
  002ca	0f 88 29 03 00
	00		 js	 $LN79@CreateTool
  002d0	3b d8		 cmp	 ebx, eax
  002d2	0f 8d 21 03 00
	00		 jge	 $LN79@CreateTool

; 289  : 		return m_pData[nIndex];

  002d8	8b 86 c4 02 00
	00		 mov	 eax, DWORD PTR [esi+708]
; File C:\Program Files (x86)\Microsoft Visual Studio\2019\Community\VC\Tools\MSVC\14.29.30133\atlmfc\include\afx.inl

; 116  : 	{ return ::operator new(nSize); }

  002de	68 38 01 00 00	 push	 312			; 00000138H
; File D:\git\src\IBK\IBK_DRFN\ProjSrc\SrcDrfn\Chart\MULTICHART\DlgToolbar.cpp

; 255  : 		nKeyInx = m_arrayTotalIdx.GetAt(i);

  002e3	8b 3c 98	 mov	 edi, DWORD PTR [eax+ebx*4]
; File C:\Program Files (x86)\Microsoft Visual Studio\2019\Community\VC\Tools\MSVC\14.29.30133\atlmfc\include\afx.inl

; 116  : 	{ return ::operator new(nSize); }

  002e6	e8 00 00 00 00	 call	 ??2@YAPAXI@Z		; operator new
  002eb	83 c4 04	 add	 esp, 4
; File D:\git\src\IBK\IBK_DRFN\ProjSrc\SrcDrfn\Chart\MULTICHART\DlgToolbar.cpp

; 257  : 		m_pToolBtn[nKeyInx] = new CChartToolBtn;

  002ee	89 45 8c	 mov	 DWORD PTR $T3[ebp], eax
  002f1	c6 45 fc 06	 mov	 BYTE PTR __$EHRec$[ebp+8], 6
  002f5	85 c0		 test	 eax, eax
  002f7	74 09		 je	 SHORT $LN20@CreateTool
  002f9	8b c8		 mov	 ecx, eax
  002fb	e8 00 00 00 00	 call	 ??0CChartToolBtn@@QAE@XZ ; CChartToolBtn::CChartToolBtn
  00300	eb 02		 jmp	 SHORT $LN21@CreateTool
$LN20@CreateTool:
  00302	33 c0		 xor	 eax, eax
$LN21@CreateTool:
  00304	c6 45 fc 03	 mov	 BYTE PTR __$EHRec$[ebp+8], 3
  00308	89 84 be a8 00
	00 00		 mov	 DWORD PTR [esi+edi*4+168], eax

; 258  : 		if(!m_pToolBtn[nKeyInx])

  0030f	85 c0		 test	 eax, eax
  00311	0f 84 97 02 00
	00		 je	 $LN113@CreateTool

; 259  : 			return FALSE;
; 260  : 
; 261  : 		if(!m_pToolBtn[nKeyInx]->CreateBtn(this, &m_BtnFont, TOOL_BUTTON_BASE_ID + nKeyInx))

  00317	8d 8f f4 01 00
	00		 lea	 ecx, DWORD PTR [edi+500]
  0031d	51		 push	 ecx
  0031e	8d 8e f0 01 00
	00		 lea	 ecx, DWORD PTR [esi+496]
  00324	51		 push	 ecx
  00325	56		 push	 esi
  00326	8b c8		 mov	 ecx, eax
  00328	e8 00 00 00 00	 call	 ?CreateBtn@CChartToolBtn@@QAEHPAVCWnd@@PAVCFont@@H@Z ; CChartToolBtn::CreateBtn
  0032d	85 c0		 test	 eax, eax
  0032f	0f 84 79 02 00
	00		 je	 $LN113@CreateTool
; File C:\Program Files (x86)\Microsoft Visual Studio\2019\Community\VC\Tools\MSVC\14.29.30133\atlmfc\include\afxtempl.h

; 1555 : 	CAssoc* pAssoc = GetAssocAt(key, nHashBucket, nHashValue);

  00335	8d 85 78 ff ff
	ff		 lea	 eax, DWORD PTR _nHashValue$2[ebp]
  0033b	50		 push	 eax
  0033c	8d 45 9c	 lea	 eax, DWORD PTR _nHashBucket$6[ebp]
  0033f	50		 push	 eax
  00340	57		 push	 edi
; File D:\git\src\IBK\IBK_DRFN\ProjSrc\SrcDrfn\Chart\MULTICHART\DlgToolbar.cpp

; 264  : 		m_mapToolName.Lookup(nKeyInx, strButtonName);

  00341	8d 8e 10 03 00
	00		 lea	 ecx, DWORD PTR [esi+784]
; File C:\Program Files (x86)\Microsoft Visual Studio\2019\Community\VC\Tools\MSVC\14.29.30133\atlmfc\include\afxtempl.h

; 1555 : 	CAssoc* pAssoc = GetAssocAt(key, nHashBucket, nHashValue);

  00347	e8 00 00 00 00	 call	 ?GetAssocAt@?$CMap@HHV?$CStringT@DV?$StrTraitMFC_DLL@DV?$ChTraitsCRT@D@ATL@@@@@ATL@@V12@@@IBEPAVCAssoc@1@HAAI0@Z ; CMap<int,int,ATL::CStringT<char,StrTraitMFC_DLL<char,ATL::ChTraitsCRT<char> > >,ATL::CStringT<char,StrTraitMFC_DLL<char,ATL::ChTraitsCRT<char> > > >::GetAssocAt

; 1556 : 	if (pAssoc == NULL)

  0034c	85 c0		 test	 eax, eax
  0034e	74 0d		 je	 SHORT $LN84@CreateTool

; 1557 : 		return FALSE;  // not in map
; 1558 : 
; 1559 : 	rValue = pAssoc->value;

  00350	83 c0 04	 add	 eax, 4
  00353	8d 4d a0	 lea	 ecx, DWORD PTR _strButtonName$[ebp]
  00356	50		 push	 eax
  00357	ff 15 00 00 00
	00		 call	 DWORD PTR __imp_??4?$CStringT@DV?$StrTraitMFC_DLL@DV?$ChTraitsCRT@D@ATL@@@@@ATL@@QAEAAV01@ABV01@@Z
$LN84@CreateTool:
; File D:\git\src\IBK\IBK_DRFN\ProjSrc\SrcDrfn\Chart\MULTICHART\DlgToolbar.cpp

; 266  : 		strButtonName.Replace(" ", "");

  0035d	68 00 00 00 00	 push	 OFFSET ??_C@_00CNPNBAHC@@
  00362	68 00 00 00 00	 push	 OFFSET ??_C@_01CLKCMJKC@?5@
  00367	8d 4d a0	 lea	 ecx, DWORD PTR _strButtonName$[ebp]
  0036a	ff 15 00 00 00
	00		 call	 DWORD PTR __imp_?Replace@?$CStringT@DV?$StrTraitMFC_DLL@DV?$ChTraitsCRT@D@ATL@@@@@ATL@@QAEHPBD0@Z

; 267  : 
; 268  : 		m_pToolBtn[nKeyInx]->SetValueBtn(GetToolOption(TOOL_BUTTON_BASE_ID + nKeyInx), 

  00370	8d 0c 7f	 lea	 ecx, DWORD PTR [edi+edi*2]
  00373	8d 41 02	 lea	 eax, DWORD PTR [ecx+2]
  00376	50		 push	 eax
  00377	8d 41 01	 lea	 eax, DWORD PTR [ecx+1]
  0037a	50		 push	 eax
  0037b	51		 push	 ecx
  0037c	ff b6 bc 02 00
	00		 push	 DWORD PTR [esi+700]
  00382	8d 87 f4 01 00
	00		 lea	 eax, DWORD PTR [edi+500]
  00388	8b ce		 mov	 ecx, esi
  0038a	ff 34 bd 00 00
	00 00		 push	 DWORD PTR ?g_bToggle_Bar@@3PAHA[edi*4]
  00391	50		 push	 eax
  00392	e8 00 00 00 00	 call	 ?GetToolOption@CDlgToolbar@@QAE?AW4TOOLOPTION@CToolOptionInfo@@I@Z ; CDlgToolbar::GetToolOption
  00397	8b 8c be a8 00
	00 00		 mov	 ecx, DWORD PTR [esi+edi*4+168]
  0039e	50		 push	 eax
  0039f	e8 00 00 00 00	 call	 ?SetValueBtn@CChartToolBtn@@QAEXW4TOOLOPTION@CToolOptionInfo@@HPAVCImageList@@HHH@Z ; CChartToolBtn::SetValueBtn

; 269  : 			g_bToggle_Bar[nKeyInx], m_pIL_W28H22, nKeyInx*3, nKeyInx*3+1, nKeyInx*3+2);
; 270  : 
; 271  : 		m_ToolTip.AddTool(m_pToolBtn[nKeyInx], strButtonName);

  003a4	6a 00		 push	 0
  003a6	6a 00		 push	 0
  003a8	ff 75 a0	 push	 DWORD PTR _strButtonName$[ebp]
  003ab	8d 8e f8 01 00
	00		 lea	 ecx, DWORD PTR [esi+504]
  003b1	ff b4 be a8 00
	00 00		 push	 DWORD PTR [esi+edi*4+168]
  003b8	e8 00 00 00 00	 call	 ?AddTool@CToolTipCtrl@@QAEHPAVCWnd@@PBDPBUtagRECT@@I@Z ; CToolTipCtrl::AddTool
  003bd	8b 86 c8 02 00
	00		 mov	 eax, DWORD PTR [esi+712]
  003c3	43		 inc	 ebx
  003c4	3b d8		 cmp	 ebx, eax
  003c6	0f 8c fc fe ff
	ff		 jl	 $LL4@CreateTool
$LN3@CreateTool:
; File C:\Program Files (x86)\Microsoft Visual Studio\2019\Community\VC\Tools\MSVC\14.29.30133\atlmfc\include\afxwin1.inl

; 70   : 	{ m_hObject = NULL; }

  003cc	c7 45 94 00 00
	00 00		 mov	 DWORD PTR _bitmap$[ebp+4], 0

; 177  : 	{ }

  003d3	c7 45 90 00 00
	00 00		 mov	 DWORD PTR _bitmap$[ebp], OFFSET ??_7CBitmap@@6B@
; File D:\git\src\IBK\IBK_DRFN\ProjSrc\SrcDrfn\Chart\MULTICHART\DlgToolbar.cpp

; 278  : 	CString			strImgPath;

  003da	8d 4d 98	 lea	 ecx, DWORD PTR _strImgPath$[ebp]
  003dd	ff 15 00 00 00
	00		 call	 DWORD PTR __imp_??0?$CStringT@DV?$StrTraitMFC_DLL@DV?$ChTraitsCRT@D@ATL@@@@@ATL@@QAE@XZ

; 279  : 
; 280  : 	strImgPath.Format("%s\\toolbar_move.bmp",pMainDlg->m_szImageDir);

  003e3	8b 45 88	 mov	 eax, DWORD PTR tv1147[ebp]
  003e6	c6 45 fc 08	 mov	 BYTE PTR __$EHRec$[ebp+8], 8
  003ea	ff 30		 push	 DWORD PTR [eax]
  003ec	8d 45 98	 lea	 eax, DWORD PTR _strImgPath$[ebp]
  003ef	68 00 00 00 00	 push	 OFFSET ??_C@_0BE@ECBLFEAB@?$CFs?2toolbar_move?4bmp@
  003f4	50		 push	 eax
  003f5	ff 15 00 00 00
	00		 call	 DWORD PTR __imp_?Format@?$CStringT@DV?$StrTraitMFC_DLL@DV?$ChTraitsCRT@D@ATL@@@@@ATL@@QAAXPBDZZ
  003fb	83 c4 0c	 add	 esp, 12			; 0000000cH

; 281  : 	m_ImgList.Create(28,12,ILC_MASK | ILC_COLORDDB, 1, 1);

  003fe	8d be 6c 03 00
	00		 lea	 edi, DWORD PTR [esi+876]
  00404	8b cf		 mov	 ecx, edi
  00406	6a 01		 push	 1
  00408	6a 01		 push	 1
  0040a	68 ff 00 00 00	 push	 255			; 000000ffH
  0040f	6a 0c		 push	 12			; 0000000cH
  00411	6a 1c		 push	 28			; 0000001cH
  00413	e8 00 00 00 00	 call	 ?Create@CImageList@@QAEHHHIHH@Z ; CImageList::Create

; 282  : 	bitmap.Attach((HBITMAP)::LoadImage(NULL, (LPSTR)(LPCTSTR)strImgPath, IMAGE_BITMAP, 0, 0, LR_LOADFROMFILE | LR_CREATEDIBSECTION | LR_DEFAULTSIZE));	

  00418	68 50 20 00 00	 push	 8272			; 00002050H
  0041d	6a 00		 push	 0
  0041f	6a 00		 push	 0
  00421	6a 00		 push	 0
  00423	ff 75 98	 push	 DWORD PTR _strImgPath$[ebp]
  00426	6a 00		 push	 0
  00428	ff 15 00 00 00
	00		 call	 DWORD PTR __imp__LoadImageA@24
  0042e	50		 push	 eax
  0042f	8d 4d 90	 lea	 ecx, DWORD PTR _bitmap$[ebp]
  00432	e8 00 00 00 00	 call	 ?Attach@CGdiObject@@QAEHPAX@Z ; CGdiObject::Attach
; File C:\Program Files (x86)\Microsoft Visual Studio\2019\Community\VC\Tools\MSVC\14.29.30133\atlmfc\include\afxwin1.inl

; 859  : 	{ ASSERT(m_hImageList != NULL); return ImageList_AddMasked(m_hImageList, (HBITMAP)pbmImage->GetSafeHandle(), crMask); }

  00437	68 ff 00 ff 00	 push	 16711935		; 00ff00ffH
  0043c	ff 75 94	 push	 DWORD PTR _bitmap$[ebp+4]
  0043f	ff b6 70 03 00
	00		 push	 DWORD PTR [esi+880]
  00445	ff 15 00 00 00
	00		 call	 DWORD PTR __imp__ImageList_AddMasked@12
; File D:\git\src\IBK\IBK_DRFN\ProjSrc\SrcDrfn\Chart\MULTICHART\DlgToolbar.cpp

; 284  : 	bitmap.DeleteObject();

  0044b	8d 4d 90	 lea	 ecx, DWORD PTR _bitmap$[ebp]
  0044e	e8 00 00 00 00	 call	 ?DeleteObject@CGdiObject@@QAEHXZ ; CGdiObject::DeleteObject

; 285  : 
; 286  : 	// 
; 287  : 	if(m_pBtnUp == NULL)

  00453	83 be 64 03 00
	00 00		 cmp	 DWORD PTR [esi+868], 0
  0045a	0f 85 91 00 00
	00		 jne	 $LN13@CreateTool
; File C:\Program Files (x86)\Microsoft Visual Studio\2019\Community\VC\Tools\MSVC\14.29.30133\atlmfc\include\afx.inl

; 116  : 	{ return ::operator new(nSize); }

  00460	68 60 01 00 00	 push	 352			; 00000160H
  00465	e8 00 00 00 00	 call	 ??2@YAPAXI@Z		; operator new
  0046a	83 c4 04	 add	 esp, 4
; File D:\git\src\IBK\IBK_DRFN\ProjSrc\SrcDrfn\Chart\MULTICHART\DlgToolbar.cpp

; 289  : 		m_pBtnUp = new CILButton;

  0046d	89 45 9c	 mov	 DWORD PTR $T8[ebp], eax
  00470	c6 45 fc 09	 mov	 BYTE PTR __$EHRec$[ebp+8], 9
  00474	85 c0		 test	 eax, eax
  00476	74 0b		 je	 SHORT $LN22@CreateTool
  00478	8b c8		 mov	 ecx, eax
  0047a	e8 00 00 00 00	 call	 ??0CILButton@@QAE@XZ	; CILButton::CILButton
  0047f	8b c8		 mov	 ecx, eax
  00481	eb 02		 jmp	 SHORT $LN23@CreateTool
$LN22@CreateTool:
  00483	33 c9		 xor	 ecx, ecx
$LN23@CreateTool:

; 290  : 		m_pBtnUp->Create("", WS_VISIBLE | WS_CHILD | WS_TABSTOP, CRect(0,0,0,0), this, TOOL_BUTTON_BASE_ID+200);

  00485	68 bc 02 00 00	 push	 700			; 000002bcH
  0048a	56		 push	 esi
  0048b	0f 57 c0	 xorps	 xmm0, xmm0
  0048e	89 8e 64 03 00
	00		 mov	 DWORD PTR [esi+868], ecx
  00494	8d 55 a4	 lea	 edx, DWORD PTR $T10[ebp]
  00497	c6 45 fc 08	 mov	 BYTE PTR __$EHRec$[ebp+8], 8
  0049b	52		 push	 edx
; File C:\Program Files (x86)\Microsoft Visual Studio\2019\Community\VC\Tools\MSVC\14.29.30133\atlmfc\include\atltypes.h

; 540  : 	left = l;

  0049c	0f 11 45 a4	 movups	 XMMWORD PTR $T10[ebp], xmm0
; File D:\git\src\IBK\IBK_DRFN\ProjSrc\SrcDrfn\Chart\MULTICHART\DlgToolbar.cpp

; 290  : 		m_pBtnUp->Create("", WS_VISIBLE | WS_CHILD | WS_TABSTOP, CRect(0,0,0,0), this, TOOL_BUTTON_BASE_ID+200);

  004a0	8b 01		 mov	 eax, DWORD PTR [ecx]
  004a2	68 00 00 01 50	 push	 1342242816		; 50010000H
  004a7	68 00 00 00 00	 push	 OFFSET ??_C@_00CNPNBAHC@@
  004ac	ff 90 6c 01 00
	00		 call	 DWORD PTR [eax+364]

; 291  : 		m_pBtnUp->FP_vSetImage( &m_ImgList, 4, 6, FALSE, "", FALSE, 7);

  004b2	6a ff		 push	 -1
  004b4	6a 07		 push	 7
  004b6	6a 00		 push	 0
  004b8	51		 push	 ecx
  004b9	8b cc		 mov	 ecx, esp
  004bb	68 00 00 00 00	 push	 OFFSET ??_C@_00CNPNBAHC@@
  004c0	ff 15 00 00 00
	00		 call	 DWORD PTR __imp_??0?$CStringT@DV?$StrTraitMFC_DLL@DV?$ChTraitsCRT@D@ATL@@@@@ATL@@QAE@PBD@Z
  004c6	8b 8e 64 03 00
	00		 mov	 ecx, DWORD PTR [esi+868]
  004cc	6a 00		 push	 0
  004ce	6a 06		 push	 6
  004d0	6a 04		 push	 4
  004d2	57		 push	 edi
  004d3	e8 00 00 00 00	 call	 ?FP_vSetImage@CILButton@@QAEXPAVCImageList@@HHHV?$CStringT@DV?$StrTraitMFC_DLL@DV?$ChTraitsCRT@D@ATL@@@@@ATL@@HHH@Z ; CILButton::FP_vSetImage

; 292  : 		m_pBtnUp->FP_vSetToolTipText("");

  004d8	51		 push	 ecx
  004d9	8b cc		 mov	 ecx, esp
  004db	68 00 00 00 00	 push	 OFFSET ??_C@_0N@CLMOGOJM@?$LL?s?$MA?$KH?$LJ?v?F?$LA?$LK?$LI?$LB?b@
  004e0	ff 15 00 00 00
	00		 call	 DWORD PTR __imp_??0?$CStringT@DV?$StrTraitMFC_DLL@DV?$ChTraitsCRT@D@ATL@@@@@ATL@@QAE@PBD@Z
  004e6	8b 8e 64 03 00
	00		 mov	 ecx, DWORD PTR [esi+868]
  004ec	e8 00 00 00 00	 call	 ?FP_vSetToolTipText@CILButton@@QAEXV?$CStringT@DV?$StrTraitMFC_DLL@DV?$ChTraitsCRT@D@ATL@@@@@ATL@@@Z ; CILButton::FP_vSetToolTipText
$LN13@CreateTool:

; 293  : 	}
; 294  : 	// 
; 295  : 	if(m_pBtnDown == NULL)

  004f1	83 be 68 03 00
	00 00		 cmp	 DWORD PTR [esi+872], 0
  004f8	0f 85 91 00 00
	00		 jne	 $LN14@CreateTool
; File C:\Program Files (x86)\Microsoft Visual Studio\2019\Community\VC\Tools\MSVC\14.29.30133\atlmfc\include\afx.inl

; 116  : 	{ return ::operator new(nSize); }

  004fe	68 60 01 00 00	 push	 352			; 00000160H
  00503	e8 00 00 00 00	 call	 ??2@YAPAXI@Z		; operator new
  00508	83 c4 04	 add	 esp, 4
; File D:\git\src\IBK\IBK_DRFN\ProjSrc\SrcDrfn\Chart\MULTICHART\DlgToolbar.cpp

; 297  : 		m_pBtnDown = new CILButton();

  0050b	89 45 9c	 mov	 DWORD PTR $T7[ebp], eax
  0050e	c6 45 fc 0a	 mov	 BYTE PTR __$EHRec$[ebp+8], 10 ; 0000000aH
  00512	85 c0		 test	 eax, eax
  00514	74 0b		 je	 SHORT $LN24@CreateTool
  00516	8b c8		 mov	 ecx, eax
  00518	e8 00 00 00 00	 call	 ??0CILButton@@QAE@XZ	; CILButton::CILButton
  0051d	8b c8		 mov	 ecx, eax
  0051f	eb 02		 jmp	 SHORT $LN25@CreateTool
$LN24@CreateTool:
  00521	33 c9		 xor	 ecx, ecx
$LN25@CreateTool:

; 298  : 		m_pBtnDown->Create("", WS_VISIBLE | WS_CHILD | WS_TABSTOP, CRect(0,0,0,0), this, TOOL_BUTTON_BASE_ID+201);

  00523	68 bd 02 00 00	 push	 701			; 000002bdH
  00528	56		 push	 esi
  00529	0f 57 c0	 xorps	 xmm0, xmm0
  0052c	89 8e 68 03 00
	00		 mov	 DWORD PTR [esi+872], ecx
  00532	8d 55 a4	 lea	 edx, DWORD PTR $T9[ebp]
  00535	c6 45 fc 08	 mov	 BYTE PTR __$EHRec$[ebp+8], 8
  00539	52		 push	 edx
; File C:\Program Files (x86)\Microsoft Visual Studio\2019\Community\VC\Tools\MSVC\14.29.30133\atlmfc\include\atltypes.h

; 540  : 	left = l;

  0053a	0f 11 45 a4	 movups	 XMMWORD PTR $T9[ebp], xmm0
; File D:\git\src\IBK\IBK_DRFN\ProjSrc\SrcDrfn\Chart\MULTICHART\DlgToolbar.cpp

; 298  : 		m_pBtnDown->Create("", WS_VISIBLE | WS_CHILD | WS_TABSTOP, CRect(0,0,0,0), this, TOOL_BUTTON_BASE_ID+201);

  0053e	8b 01		 mov	 eax, DWORD PTR [ecx]
  00540	68 00 00 01 50	 push	 1342242816		; 50010000H
  00545	68 00 00 00 00	 push	 OFFSET ??_C@_00CNPNBAHC@@
  0054a	ff 90 6c 01 00
	00		 call	 DWORD PTR [eax+364]

; 299  : 		m_pBtnDown->FP_vSetImage( &m_ImgList, 0, 2, FALSE, "", FALSE, 3);

  00550	6a ff		 push	 -1
  00552	6a 03		 push	 3
  00554	6a 00		 push	 0
  00556	51		 push	 ecx
  00557	8b cc		 mov	 ecx, esp
  00559	68 00 00 00 00	 push	 OFFSET ??_C@_00CNPNBAHC@@
  0055e	ff 15 00 00 00
	00		 call	 DWORD PTR __imp_??0?$CStringT@DV?$StrTraitMFC_DLL@DV?$ChTraitsCRT@D@ATL@@@@@ATL@@QAE@PBD@Z
  00564	8b 8e 68 03 00
	00		 mov	 ecx, DWORD PTR [esi+872]
  0056a	6a 00		 push	 0
  0056c	6a 02		 push	 2
  0056e	6a 00		 push	 0
  00570	57		 push	 edi
  00571	e8 00 00 00 00	 call	 ?FP_vSetImage@CILButton@@QAEXPAVCImageList@@HHHV?$CStringT@DV?$StrTraitMFC_DLL@DV?$ChTraitsCRT@D@ATL@@@@@ATL@@HHH@Z ; CILButton::FP_vSetImage

; 300  : 		m_pBtnDown->FP_vSetToolTipText("");

  00576	51		 push	 ecx
  00577	8b cc		 mov	 ecx, esp
  00579	68 00 00 00 00	 push	 OFFSET ??_C@_0N@BKKDNAGG@?G?O?$MA?$KH?$LJ?v?F?$LA?$LK?$LI?$LB?b@
  0057e	ff 15 00 00 00
	00		 call	 DWORD PTR __imp_??0?$CStringT@DV?$StrTraitMFC_DLL@DV?$ChTraitsCRT@D@ATL@@@@@ATL@@QAE@PBD@Z
  00584	8b 8e 68 03 00
	00		 mov	 ecx, DWORD PTR [esi+872]
  0058a	e8 00 00 00 00	 call	 ?FP_vSetToolTipText@CILButton@@QAEXV?$CStringT@DV?$StrTraitMFC_DLL@DV?$ChTraitsCRT@D@ATL@@@@@ATL@@@Z ; CILButton::FP_vSetToolTipText
$LN14@CreateTool:

; 303  : 	return TRUE;

  0058f	8d 4d 98	 lea	 ecx, DWORD PTR _strImgPath$[ebp]
  00592	be 01 00 00 00	 mov	 esi, 1
  00597	ff 15 00 00 00
	00		 call	 DWORD PTR __imp_??1?$CStringT@DV?$StrTraitMFC_DLL@DV?$ChTraitsCRT@D@ATL@@@@@ATL@@QAE@XZ
; File C:\Program Files (x86)\Microsoft Visual Studio\2019\Community\VC\Tools\MSVC\14.29.30133\atlmfc\include\afxwin1.inl

; 179  : 	{ }

  0059d	8d 4d 90	 lea	 ecx, DWORD PTR _bitmap$[ebp]
  005a0	c7 45 90 00 00
	00 00		 mov	 DWORD PTR _bitmap$[ebp], OFFSET ??_7CBitmap@@6B@
  005a7	e8 00 00 00 00	 call	 ??1CGdiObject@@UAE@XZ	; CGdiObject::~CGdiObject
  005ac	eb 02		 jmp	 SHORT $LN110@CreateTool
$LN113@CreateTool:
  005ae	33 f6		 xor	 esi, esi
$LN110@CreateTool:
; File D:\git\src\IBK\IBK_DRFN\ProjSrc\SrcDrfn\Chart\MULTICHART\DlgToolbar.cpp

; 303  : 	return TRUE;

  005b0	8d 4d 84	 lea	 ecx, DWORD PTR _strDownFile$[ebp]
  005b3	ff 15 00 00 00
	00		 call	 DWORD PTR __imp_??1?$CStringT@DV?$StrTraitMFC_DLL@DV?$ChTraitsCRT@D@ATL@@@@@ATL@@QAE@XZ
  005b9	8d 4d 80	 lea	 ecx, DWORD PTR _strUpFile$[ebp]
  005bc	ff 15 00 00 00
	00		 call	 DWORD PTR __imp_??1?$CStringT@DV?$StrTraitMFC_DLL@DV?$ChTraitsCRT@D@ATL@@@@@ATL@@QAE@XZ
  005c2	8d 4d a0	 lea	 ecx, DWORD PTR _strButtonName$[ebp]
  005c5	ff 15 00 00 00
	00		 call	 DWORD PTR __imp_??1?$CStringT@DV?$StrTraitMFC_DLL@DV?$ChTraitsCRT@D@ATL@@@@@ATL@@QAE@XZ
  005cb	8d 8d 7c ff ff
	ff		 lea	 ecx, DWORD PTR _strImageFolderPath$[ebp]
  005d1	ff 15 00 00 00
	00		 call	 DWORD PTR __imp_??1?$CStringT@DV?$StrTraitMFC_DLL@DV?$ChTraitsCRT@D@ATL@@@@@ATL@@QAE@XZ
  005d7	8b c6		 mov	 eax, esi
  005d9	eb 02		 jmp	 SHORT $LN1@CreateTool
$LN141@CreateTool:

; 209  : 	{
; 210  : 		TRACE("%s[%d] : Tool Button font  !", __FILE__, __LINE__);
; 211  : 		return FALSE;

  005db	33 c0		 xor	 eax, eax
$LN1@CreateTool:

; 304  : }

  005dd	8b 4d f4	 mov	 ecx, DWORD PTR __$EHRec$[ebp]
  005e0	64 89 0d 00 00
	00 00		 mov	 DWORD PTR fs:0, ecx
  005e7	59		 pop	 ecx
  005e8	5f		 pop	 edi
  005e9	5e		 pop	 esi
  005ea	5b		 pop	 ebx
  005eb	8b 4d f0	 mov	 ecx, DWORD PTR __$ArrayPad$[ebp]
  005ee	33 cd		 xor	 ecx, ebp
  005f0	e8 00 00 00 00	 call	 @__security_check_cookie@4
  005f5	8b e5		 mov	 esp, ebp
  005f7	5d		 pop	 ebp
  005f8	c3		 ret	 0
$LN79@CreateTool:
; File C:\Program Files (x86)\Microsoft Visual Studio\2019\Community\VC\Tools\MSVC\14.29.30133\atlmfc\include\afxtempl.h

; 290  : 	AfxThrowInvalidArgException();

  005f9	e8 00 00 00 00	 call	 ?AfxThrowInvalidArgException@@YGXXZ ; AfxThrowInvalidArgException
$LN143@CreateTool:
  005fe	cc		 int	 3
_TEXT	ENDS
;	COMDAT text$x
text$x	SEGMENT
__unwindfunclet$?CreateToolButton@CDlgToolbar@@IAEHXZ$0:
  00000	8d 8d 7c ff ff
	ff		 lea	 ecx, DWORD PTR _strImageFolderPath$[ebp]
  00006	ff 25 00 00 00
	00		 jmp	 DWORD PTR __imp_??1?$CStringT@DV?$StrTraitMFC_DLL@DV?$ChTraitsCRT@D@ATL@@@@@ATL@@QAE@XZ
__unwindfunclet$?CreateToolButton@CDlgToolbar@@IAEHXZ$1:
  0000c	8d 4d a0	 lea	 ecx, DWORD PTR _strButtonName$[ebp]
  0000f	ff 25 00 00 00
	00		 jmp	 DWORD PTR __imp_??1?$CStringT@DV?$StrTraitMFC_DLL@DV?$ChTraitsCRT@D@ATL@@@@@ATL@@QAE@XZ
__unwindfunclet$?CreateToolButton@CDlgToolbar@@IAEHXZ$2:
  00015	8d 4d 80	 lea	 ecx, DWORD PTR _strUpFile$[ebp]
  00018	ff 25 00 00 00
	00		 jmp	 DWORD PTR __imp_??1?$CStringT@DV?$StrTraitMFC_DLL@DV?$ChTraitsCRT@D@ATL@@@@@ATL@@QAE@XZ
__unwindfunclet$?CreateToolButton@CDlgToolbar@@IAEHXZ$3:
  0001e	8d 4d 84	 lea	 ecx, DWORD PTR _strDownFile$[ebp]
  00021	ff 25 00 00 00
	00		 jmp	 DWORD PTR __imp_??1?$CStringT@DV?$StrTraitMFC_DLL@DV?$ChTraitsCRT@D@ATL@@@@@ATL@@QAE@XZ
__unwindfunclet$?CreateToolButton@CDlgToolbar@@IAEHXZ$4:
  00027	8b 45 8c	 mov	 eax, DWORD PTR $T5[ebp]
  0002a	50		 push	 eax
  0002b	e8 00 00 00 00	 call	 ??3CObject@@SGXPAX@Z	; CObject::operator delete
  00030	c3		 ret	 0
__unwindfunclet$?CreateToolButton@CDlgToolbar@@IAEHXZ$5:
  00031	8b 45 8c	 mov	 eax, DWORD PTR $T4[ebp]
  00034	50		 push	 eax
  00035	e8 00 00 00 00	 call	 ??3CObject@@SGXPAX@Z	; CObject::operator delete
  0003a	c3		 ret	 0
__unwindfunclet$?CreateToolButton@CDlgToolbar@@IAEHXZ$6:
  0003b	8b 45 8c	 mov	 eax, DWORD PTR $T3[ebp]
  0003e	50		 push	 eax
  0003f	e8 00 00 00 00	 call	 ??3CObject@@SGXPAX@Z	; CObject::operator delete
  00044	c3		 ret	 0
__unwindfunclet$?CreateToolButton@CDlgToolbar@@IAEHXZ$7:
  00045	8d 4d 90	 lea	 ecx, DWORD PTR _bitmap$[ebp]
  00048	e9 00 00 00 00	 jmp	 ??1CBitmap@@UAE@XZ	; CBitmap::~CBitmap
__unwindfunclet$?CreateToolButton@CDlgToolbar@@IAEHXZ$8:
  0004d	8d 4d 98	 lea	 ecx, DWORD PTR _strImgPath$[ebp]
  00050	ff 25 00 00 00
	00		 jmp	 DWORD PTR __imp_??1?$CStringT@DV?$StrTraitMFC_DLL@DV?$ChTraitsCRT@D@ATL@@@@@ATL@@QAE@XZ
__unwindfunclet$?CreateToolButton@CDlgToolbar@@IAEHXZ$9:
  00056	8b 45 9c	 mov	 eax, DWORD PTR $T8[ebp]
  00059	50		 push	 eax
  0005a	e8 00 00 00 00	 call	 ??3CObject@@SGXPAX@Z	; CObject::operator delete
  0005f	c3		 ret	 0
__unwindfunclet$?CreateToolButton@CDlgToolbar@@IAEHXZ$12:
  00060	8b 45 9c	 mov	 eax, DWORD PTR $T7[ebp]
  00063	50		 push	 eax
  00064	e8 00 00 00 00	 call	 ??3CObject@@SGXPAX@Z	; CObject::operator delete
  00069	c3		 ret	 0
  0006a	cc		 int	 3
  0006b	cc		 int	 3
  0006c	cc		 int	 3
  0006d	cc		 int	 3
  0006e	cc		 int	 3
__ehhandler$?CreateToolButton@CDlgToolbar@@IAEHXZ:
  0006f	90		 npad	 1
  00070	90		 npad	 1
  00071	8b 54 24 08	 mov	 edx, DWORD PTR [esp+8]
  00075	8d 42 0c	 lea	 eax, DWORD PTR [edx+12]
  00078	8b 8a 74 ff ff
	ff		 mov	 ecx, DWORD PTR [edx-140]
  0007e	33 c8		 xor	 ecx, eax
  00080	e8 00 00 00 00	 call	 @__security_check_cookie@4
  00085	8b 4a fc	 mov	 ecx, DWORD PTR [edx-4]
  00088	33 c8		 xor	 ecx, eax
  0008a	e8 00 00 00 00	 call	 @__security_check_cookie@4
  0008f	b8 00 00 00 00	 mov	 eax, OFFSET __ehfuncinfo$?CreateToolButton@CDlgToolbar@@IAEHXZ
  00094	e9 00 00 00 00	 jmp	 ___CxxFrameHandler3
text$x	ENDS
?CreateToolButton@CDlgToolbar@@IAEHXZ ENDP		; CDlgToolbar::CreateToolButton
; Function compile flags: /Ogtp
; File D:\git\src\IBK\IBK_DRFN\ProjSrc\SrcDrfn\Chart\MULTICHART\DlgToolbar.cpp
;	COMDAT ?SetToggleBtnFromOutside@CDlgToolbar@@QAEXI@Z
_TEXT	SEGMENT
_nID$ = 8						; size = 4
?SetToggleBtnFromOutside@CDlgToolbar@@QAEXI@Z PROC	; CDlgToolbar::SetToggleBtnFromOutside, COMDAT
; _this$ = ecx

; 1933 : {

  00000	55		 push	 ebp
  00001	8b ec		 mov	 ebp, esp
  00003	8b c1		 mov	 eax, ecx

; 1934 : 	//nID = nID - TOOL_BUTTON_BASE_ID;
; 1935 : 	m_pToolBtn[nID]->SetToggleBtnFromOutside();

  00005	8b 4d 08	 mov	 ecx, DWORD PTR _nID$[ebp]
  00008	8b 8c 88 a8 00
	00 00		 mov	 ecx, DWORD PTR [eax+ecx*4+168]
  0000f	e8 00 00 00 00	 call	 ?SetToggleBtnFromOutside@CChartToolBtn@@QAEXXZ ; CChartToolBtn::SetToggleBtnFromOutside

; 1936 : }

  00014	5d		 pop	 ebp
  00015	c2 04 00	 ret	 4
?SetToggleBtnFromOutside@CDlgToolbar@@QAEXI@Z ENDP	; CDlgToolbar::SetToggleBtnFromOutside
_TEXT	ENDS
; Function compile flags: /Ogtp
; File D:\git\src\IBK\IBK_DRFN\ProjSrc\SrcDrfn\Chart\MULTICHART\DlgToolbar.cpp
;	COMDAT ?GetToolOption@CDlgToolbar@@QAE?AW4TOOLOPTION@CToolOptionInfo@@I@Z
_TEXT	SEGMENT
_nId$ = 8						; size = 4
?GetToolOption@CDlgToolbar@@QAE?AW4TOOLOPTION@CToolOptionInfo@@I@Z PROC ; CDlgToolbar::GetToolOption, COMDAT
; _this$ = ecx

; 550  : {

  00000	55		 push	 ebp
  00001	8b ec		 mov	 ebp, esp

; 551  : 	nId = nId - TOOL_BUTTON_BASE_ID;
; 552  : 	switch(nId)

  00003	8b 45 08	 mov	 eax, DWORD PTR _nId$[ebp]
  00006	05 0b fe ff ff	 add	 eax, -501		; fffffe0bH
  0000b	83 f8 49	 cmp	 eax, 73			; 00000049H
  0000e	0f 87 c7 01 00
	00		 ja	 $LN77@GetToolOpt
  00014	0f b6 80 00 00
	00 00		 movzx	 eax, BYTE PTR $LN79@GetToolOpt[eax]
  0001b	ff 24 85 00 00
	00 00		 jmp	 DWORD PTR $LN80@GetToolOpt[eax*4]
$LN7@GetToolOpt:

; 553  : 	{
; 554  : 	case  1: return CToolOptionInfo::TOOLOPTION::T_TOOL_SELECTION;			// 
; 555  : 	case  2: return CToolOptionInfo::TOOLOPTION::T_TOOL_SELECTION;			// 
; 556  : 	case  3: return CToolOptionInfo::TOOLOPTION::T_TOOL_SELECTION;			// 
; 557  : 	case  4: return CToolOptionInfo::TOOLOPTION::T_SYMBOL_BULET;			//  

  00022	b8 1b 00 00 00	 mov	 eax, 27			; 0000001bH

; 644  : 	}
; 645  : 	
; 646  : 	return CToolOptionInfo::TOOLOPTION(-1);
; 647  : }

  00027	5d		 pop	 ebp
  00028	c2 04 00	 ret	 4
$LN8@GetToolOpt:

; 558  : 
; 559  : 	case  5: return CToolOptionInfo::TOOLOPTION::T_TOOL_LINE_CROSS;			// 

  0002b	b8 5c 00 00 00	 mov	 eax, 92			; 0000005cH

; 644  : 	}
; 645  : 	
; 646  : 	return CToolOptionInfo::TOOLOPTION(-1);
; 647  : }

  00030	5d		 pop	 ebp
  00031	c2 04 00	 ret	 4
$LN9@GetToolOpt:

; 560  : 	case  6: return CToolOptionInfo::TOOLOPTION::T_TOOL_LINE_HORZ;			// 

  00034	b8 25 00 00 00	 mov	 eax, 37			; 00000025H

; 644  : 	}
; 645  : 	
; 646  : 	return CToolOptionInfo::TOOLOPTION(-1);
; 647  : }

  00039	5d		 pop	 ebp
  0003a	c2 04 00	 ret	 4
$LN10@GetToolOpt:

; 561  : 	case  7: return CToolOptionInfo::TOOLOPTION::T_TOOL_LINE_VERT;			// 

  0003d	b8 24 00 00 00	 mov	 eax, 36			; 00000024H

; 644  : 	}
; 645  : 	
; 646  : 	return CToolOptionInfo::TOOLOPTION(-1);
; 647  : }

  00042	5d		 pop	 ebp
  00043	c2 04 00	 ret	 4
$LN11@GetToolOpt:

; 562  : 	case  8: return CToolOptionInfo::TOOLOPTION::T_TOOL_LINE;				// 

  00046	b8 22 00 00 00	 mov	 eax, 34			; 00000022H

; 644  : 	}
; 645  : 	
; 646  : 	return CToolOptionInfo::TOOLOPTION(-1);
; 647  : }

  0004b	5d		 pop	 ebp
  0004c	c2 04 00	 ret	 4
$LN12@GetToolOpt:

; 563  : 	case  9: return CToolOptionInfo::TOOLOPTION::T_TOOL_PENCIL_LINE;			//  

  0004f	b8 6f 00 00 00	 mov	 eax, 111		; 0000006fH

; 644  : 	}
; 645  : 	
; 646  : 	return CToolOptionInfo::TOOLOPTION(-1);
; 647  : }

  00054	5d		 pop	 ebp
  00055	c2 04 00	 ret	 4
$LN13@GetToolOpt:

; 564  : 
; 565  : 	case 10: return CToolOptionInfo::TOOLOPTION::T_TOOL_ELLIOT_WAVE_LINE;	// 

  00058	b8 36 00 00 00	 mov	 eax, 54			; 00000036H

; 644  : 	}
; 645  : 	
; 646  : 	return CToolOptionInfo::TOOLOPTION(-1);
; 647  : }

  0005d	5d		 pop	 ebp
  0005e	c2 04 00	 ret	 4
$LN14@GetToolOpt:

; 566  : 	case 11: return CToolOptionInfo::TOOLOPTION::T_SYMBOL_SQUARE;			// 

  00061	b8 1c 00 00 00	 mov	 eax, 28			; 0000001cH

; 644  : 	}
; 645  : 	
; 646  : 	return CToolOptionInfo::TOOLOPTION(-1);
; 647  : }

  00066	5d		 pop	 ebp
  00067	c2 04 00	 ret	 4
$LN15@GetToolOpt:

; 567  : 	case 12: return CToolOptionInfo::TOOLOPTION::T_SYMBOL_CIRCLE;			// 

  0006a	b8 1d 00 00 00	 mov	 eax, 29			; 0000001dH

; 644  : 	}
; 645  : 	
; 646  : 	return CToolOptionInfo::TOOLOPTION(-1);
; 647  : }

  0006f	5d		 pop	 ebp
  00070	c2 04 00	 ret	 4
$LN16@GetToolOpt:

; 568  : 	case 13: return CToolOptionInfo::TOOLOPTION::T_SYMBOL_TEXT;				// 

  00073	b8 1f 00 00 00	 mov	 eax, 31			; 0000001fH

; 644  : 	}
; 645  : 	
; 646  : 	return CToolOptionInfo::TOOLOPTION(-1);
; 647  : }

  00078	5d		 pop	 ebp
  00079	c2 04 00	 ret	 4
$LN17@GetToolOpt:

; 569  : 	case 14: return CToolOptionInfo::TOOLOPTION::T_TOOL_ANDREWS_PITCHFORK;	// 

  0007c	b8 35 00 00 00	 mov	 eax, 53			; 00000035H

; 644  : 	}
; 645  : 	
; 646  : 	return CToolOptionInfo::TOOLOPTION(-1);
; 647  : }

  00081	5d		 pop	 ebp
  00082	c2 04 00	 ret	 4
$LN18@GetToolOpt:

; 570  : 
; 571  : 	case 15: return CToolOptionInfo::TOOLOPTION::T_TOOL_FIBO_RETRACE;		// 

  00085	b8 2c 00 00 00	 mov	 eax, 44			; 0000002cH

; 644  : 	}
; 645  : 	
; 646  : 	return CToolOptionInfo::TOOLOPTION(-1);
; 647  : }

  0008a	5d		 pop	 ebp
  0008b	c2 04 00	 ret	 4
$LN19@GetToolOpt:

; 572  : 	case 16: return CToolOptionInfo::TOOLOPTION::T_TOOL_SPEED_FAN;			// 

  0008e	b8 60 00 00 00	 mov	 eax, 96			; 00000060H

; 644  : 	}
; 645  : 	
; 646  : 	return CToolOptionInfo::TOOLOPTION(-1);
; 647  : }

  00093	5d		 pop	 ebp
  00094	c2 04 00	 ret	 4
$LN20@GetToolOpt:

; 573  : 	case 17: return CToolOptionInfo::TOOLOPTION::T_TOOL_FIBONACCI_TIME;		// 

  00097	b8 2d 00 00 00	 mov	 eax, 45			; 0000002dH

; 644  : 	}
; 645  : 	
; 646  : 	return CToolOptionInfo::TOOLOPTION(-1);
; 647  : }

  0009c	5d		 pop	 ebp
  0009d	c2 04 00	 ret	 4
$LN21@GetToolOpt:

; 574  : 	case 18: return CToolOptionInfo::TOOLOPTION::T_TOOL_FIBONACCI_ARC;		// 

  000a0	b8 29 00 00 00	 mov	 eax, 41			; 00000029H

; 644  : 	}
; 645  : 	
; 646  : 	return CToolOptionInfo::TOOLOPTION(-1);
; 647  : }

  000a5	5d		 pop	 ebp
  000a6	c2 04 00	 ret	 4
$LN22@GetToolOpt:

; 575  : 	case 19: return CToolOptionInfo::TOOLOPTION::T_TOOL_FIBONACCI_FAN;		// 

  000a9	b8 2b 00 00 00	 mov	 eax, 43			; 0000002bH

; 644  : 	}
; 645  : 	
; 646  : 	return CToolOptionInfo::TOOLOPTION(-1);
; 647  : }

  000ae	5d		 pop	 ebp
  000af	c2 04 00	 ret	 4
$LN23@GetToolOpt:

; 576  : 
; 577  : 	case 20: return CToolOptionInfo::TOOLOPTION::T_TOOL_GANN_LINE45;		// 

  000b2	b8 2e 00 00 00	 mov	 eax, 46			; 0000002eH

; 644  : 	}
; 645  : 	
; 646  : 	return CToolOptionInfo::TOOLOPTION(-1);
; 647  : }

  000b7	5d		 pop	 ebp
  000b8	c2 04 00	 ret	 4
$LN24@GetToolOpt:

; 578  : 	case 21: return CToolOptionInfo::TOOLOPTION::T_DELETE_INORDER;			//  

  000bb	b8 3c 00 00 00	 mov	 eax, 60			; 0000003cH

; 644  : 	}
; 645  : 	
; 646  : 	return CToolOptionInfo::TOOLOPTION(-1);
; 647  : }

  000c0	5d		 pop	 ebp
  000c1	c2 04 00	 ret	 4
$LN25@GetToolOpt:

; 579  : 	case 22: return CToolOptionInfo::TOOLOPTION::T_DELETE_ALL;				//  

  000c4	b8 3d 00 00 00	 mov	 eax, 61			; 0000003dH

; 644  : 	}
; 645  : 	
; 646  : 	return CToolOptionInfo::TOOLOPTION(-1);
; 647  : }

  000c9	5d		 pop	 ebp
  000ca	c2 04 00	 ret	 4
$LN26@GetToolOpt:

; 580  : 
; 581  : 	case 23: return CToolOptionInfo::TOOLOPTION::T_RESTORE;					// 

  000cd	b8 12 00 00 00	 mov	 eax, 18			; 00000012H

; 644  : 	}
; 645  : 	
; 646  : 	return CToolOptionInfo::TOOLOPTION(-1);
; 647  : }

  000d2	5d		 pop	 ebp
  000d3	c2 04 00	 ret	 4
$LN30@GetToolOpt:

; 582  : 	case 24: return CToolOptionInfo::TOOLOPTION::T_TOOL_SELECTION;			// 
; 583  : 	case 25: return CToolOptionInfo::TOOLOPTION::T_TOOL_SELECTION;			// 
; 584  : 	case 26: return CToolOptionInfo::TOOLOPTION::T_TOOL_SELECTION;			// 
; 585  : 	case 27: return CToolOptionInfo::TOOLOPTION::T_PRICE_YSCALE_SETUP;		// Y

  000d6	b8 69 00 00 00	 mov	 eax, 105		; 00000069H

; 644  : 	}
; 645  : 	
; 646  : 	return CToolOptionInfo::TOOLOPTION(-1);
; 647  : }

  000db	5d		 pop	 ebp
  000dc	c2 04 00	 ret	 4
$LN32@GetToolOpt:

; 586  : 
; 587  : 	case 28: return CToolOptionInfo::TOOLOPTION::T_TOOL_SELECTION ;			// ()
; 588  : 	case 29: return CToolOptionInfo::TOOLOPTION::T_TOOL_TRACEING_TT;		// 

  000df	b8 65 00 00 00	 mov	 eax, 101		; 00000065H

; 644  : 	}
; 645  : 	
; 646  : 	return CToolOptionInfo::TOOLOPTION(-1);
; 647  : }

  000e4	5d		 pop	 ebp
  000e5	c2 04 00	 ret	 4
$LN33@GetToolOpt:

; 589  : 	case 30: return CToolOptionInfo::TOOLOPTION::T_TOOL_PERIOD_SUMMARY ;	// 

  000e8	b8 67 00 00 00	 mov	 eax, 103		; 00000067H

; 644  : 	}
; 645  : 	
; 646  : 	return CToolOptionInfo::TOOLOPTION(-1);
; 647  : }

  000ed	5d		 pop	 ebp
  000ee	c2 04 00	 ret	 4
$LN41@GetToolOpt:

; 590  : //
; 591  : //	case 28: return CToolOptionInfo::TOOLOPTION::T_TOOL_SELECTION ;			// 
; 592  : //	case 29: return CToolOptionInfo::TOOLOPTION::T_TOOL_TRACEING_TT;		// 
; 593  : //	case 30: return CToolOptionInfo::TOOLOPTION::T_TOOL_PERIOD_SUMMARY;		// 
; 594  : 
; 595  : 	case 31: return CToolOptionInfo::TOOLOPTION::T_TOOL_SELECTION;			// 
; 596  : 	case 32: return CToolOptionInfo::TOOLOPTION::T_TOOL_SELECTION;			// 
; 597  : 	case 33: return CToolOptionInfo::TOOLOPTION::T_TOOL_SELECTION;			// 
; 598  : 	case 34: return CToolOptionInfo::TOOLOPTION::T_TOOL_SELECTION;			//  
; 599  : 	case 35: return CToolOptionInfo::TOOLOPTION::T_TOOL_SELECTION;			// 
; 600  : 
; 601  : 	case 36: return CToolOptionInfo::TOOLOPTION::T_TOOL_SELECTION;			// 
; 602  : 	case 37: return CToolOptionInfo::TOOLOPTION::T_TOOL_SELECTION;			// 
; 603  : 	case 38: return CToolOptionInfo::TOOLOPTION::T_PRINT_CHART;				// 

  000f1	b8 70 00 00 00	 mov	 eax, 112		; 00000070H

; 644  : 	}
; 645  : 	
; 646  : 	return CToolOptionInfo::TOOLOPTION(-1);
; 647  : }

  000f6	5d		 pop	 ebp
  000f7	c2 04 00	 ret	 4
$LN47@GetToolOpt:

; 604  : 	case 39: return CToolOptionInfo::TOOLOPTION::T_TOOL_SELECTION;			// Excel
; 605  : 
; 606  : 	case 40: return CToolOptionInfo::TOOLOPTION::T_TOOL_SELECTION;			// 
; 607  : 	case 41: return CToolOptionInfo::TOOLOPTION::T_TOOL_SELECTION;			// 
; 608  : 	case 42: return CToolOptionInfo::TOOLOPTION::T_TOOL_SELECTION;			// 
; 609  : 	case 43: return CToolOptionInfo::TOOLOPTION::T_TOOL_SELECTION;			// 
; 610  : 	case 44: return CToolOptionInfo::TOOLOPTION::T_DATALIST_REPORT;			// 

  000fa	b8 03 00 00 00	 mov	 eax, 3

; 644  : 	}
; 645  : 	
; 646  : 	return CToolOptionInfo::TOOLOPTION(-1);
; 647  : }

  000ff	5d		 pop	 ebp
  00100	c2 04 00	 ret	 4
$LN49@GetToolOpt:

; 611  : 	case 45: return CToolOptionInfo::TOOLOPTION::T_TOOL_SELECTION;			// 
; 612  : 	case 46: return CToolOptionInfo::TOOLOPTION::T_ORDER_LINE;				// 

  00103	b8 71 00 00 00	 mov	 eax, 113		; 00000071H

; 644  : 	}
; 645  : 	
; 646  : 	return CToolOptionInfo::TOOLOPTION(-1);
; 647  : }

  00108	5d		 pop	 ebp
  00109	c2 04 00	 ret	 4
$LN50@GetToolOpt:

; 613  : 	case 47: return CToolOptionInfo::TOOLOPTION::T_TOOL_GANN_FAN45;			// 

  0010c	b8 30 00 00 00	 mov	 eax, 48			; 00000030H

; 644  : 	}
; 645  : 	
; 646  : 	return CToolOptionInfo::TOOLOPTION(-1);
; 647  : }

  00111	5d		 pop	 ebp
  00112	c2 04 00	 ret	 4
$LN51@GetToolOpt:

; 614  : 	case 48: return CToolOptionInfo::TOOLOPTION::T_TOOL_GANN_FAN315;		// 

  00115	b8 33 00 00 00	 mov	 eax, 51			; 00000033H

; 644  : 	}
; 645  : 	
; 646  : 	return CToolOptionInfo::TOOLOPTION(-1);
; 647  : }

  0011a	5d		 pop	 ebp
  0011b	c2 04 00	 ret	 4
$LN52@GetToolOpt:

; 615  : 	case 49: return CToolOptionInfo::TOOLOPTION::T_TOOL_ANGLE_LINE;			// 

  0011e	b8 62 00 00 00	 mov	 eax, 98			; 00000062H

; 644  : 	}
; 645  : 	
; 646  : 	return CToolOptionInfo::TOOLOPTION(-1);
; 647  : }

  00123	5d		 pop	 ebp
  00124	c2 04 00	 ret	 4
$LN53@GetToolOpt:

; 616  : 	case 50: return CToolOptionInfo::TOOLOPTION::T_SYMBOL_TRIANGLE;			// 

  00127	b8 1e 00 00 00	 mov	 eax, 30			; 0000001eH

; 644  : 	}
; 645  : 	
; 646  : 	return CToolOptionInfo::TOOLOPTION(-1);
; 647  : }

  0012c	5d		 pop	 ebp
  0012d	c2 04 00	 ret	 4
$LN54@GetToolOpt:

; 617  : 		//case 51: return CToolOptionInfo::TOOLOPTION::T_TOOL_ANGLE_GRID;			// 
; 618  : 	case 51: return CToolOptionInfo::TOOLOPTION::T_TOOL_GANN_GRID;			// 

  00130	b8 34 00 00 00	 mov	 eax, 52			; 00000034H

; 644  : 	}
; 645  : 	
; 646  : 	return CToolOptionInfo::TOOLOPTION(-1);
; 647  : }

  00135	5d		 pop	 ebp
  00136	c2 04 00	 ret	 4
$LN55@GetToolOpt:

; 619  : 	case 52: return CToolOptionInfo::TOOLOPTION::T_TOOL_SPEED_ARC;			// 

  00139	b8 61 00 00 00	 mov	 eax, 97			; 00000061H

; 644  : 	}
; 645  : 	
; 646  : 	return CToolOptionInfo::TOOLOPTION(-1);
; 647  : }

  0013e	5d		 pop	 ebp
  0013f	c2 04 00	 ret	 4
$LN56@GetToolOpt:

; 620  : 	case 53: return CToolOptionInfo::TOOLOPTION::T_TOOL_SPEED_LINE;			// 

  00142	b8 39 00 00 00	 mov	 eax, 57			; 00000039H

; 644  : 	}
; 645  : 	
; 646  : 	return CToolOptionInfo::TOOLOPTION(-1);
; 647  : }

  00147	5d		 pop	 ebp
  00148	c2 04 00	 ret	 4
$LN57@GetToolOpt:

; 621  : 	case 54: return CToolOptionInfo::TOOLOPTION::T_TOOL_LINE_TRISECT;		// 

  0014b	b8 26 00 00 00	 mov	 eax, 38			; 00000026H

; 644  : 	}
; 645  : 	
; 646  : 	return CToolOptionInfo::TOOLOPTION(-1);
; 647  : }

  00150	5d		 pop	 ebp
  00151	c2 04 00	 ret	 4
$LN58@GetToolOpt:

; 622  : 	case 55: return CToolOptionInfo::TOOLOPTION::T_TOOL_LINE_QUARTER;		// 

  00154	b8 27 00 00 00	 mov	 eax, 39			; 00000027H

; 644  : 	}
; 645  : 	
; 646  : 	return CToolOptionInfo::TOOLOPTION(-1);
; 647  : }

  00159	5d		 pop	 ebp
  0015a	c2 04 00	 ret	 4
$LN59@GetToolOpt:

; 623  : 	case 56: return CToolOptionInfo::TOOLOPTION::T_TOOL_CYCLE_LINES;		// 

  0015d	b8 37 00 00 00	 mov	 eax, 55			; 00000037H

; 644  : 	}
; 645  : 	
; 646  : 	return CToolOptionInfo::TOOLOPTION(-1);
; 647  : }

  00162	5d		 pop	 ebp
  00163	c2 04 00	 ret	 4
$LN60@GetToolOpt:

; 624  : 	case 57: return CToolOptionInfo::TOOLOPTION::T_TOOL_ADJUST_RATIO;		// 

  00166	b8 66 00 00 00	 mov	 eax, 102		; 00000066H

; 644  : 	}
; 645  : 	
; 646  : 	return CToolOptionInfo::TOOLOPTION(-1);
; 647  : }

  0016b	5d		 pop	 ebp
  0016c	c2 04 00	 ret	 4
$LN61@GetToolOpt:

; 625  : 	case 58: return CToolOptionInfo::TOOLOPTION::T_TOOL_LINEAR_REGRESSION;	// 

  0016f	b8 3a 00 00 00	 mov	 eax, 58			; 0000003aH

; 644  : 	}
; 645  : 	
; 646  : 	return CToolOptionInfo::TOOLOPTION(-1);
; 647  : }

  00174	5d		 pop	 ebp
  00175	c2 04 00	 ret	 4
$LN62@GetToolOpt:

; 626  : 	case 59: return CToolOptionInfo::TOOLOPTION::T_TOOL_RAFF_REGRESSION;	// 

  00178	b8 3b 00 00 00	 mov	 eax, 59			; 0000003bH

; 644  : 	}
; 645  : 	
; 646  : 	return CToolOptionInfo::TOOLOPTION(-1);
; 647  : }

  0017d	5d		 pop	 ebp
  0017e	c2 04 00	 ret	 4
$LN63@GetToolOpt:

; 627  : 
; 628  : 	case 60: return CToolOptionInfo::TOOLOPTION::T_DRAG_Y_ZOOM;				// Y

  00181	b8 6b 00 00 00	 mov	 eax, 107		; 0000006bH

; 644  : 	}
; 645  : 	
; 646  : 	return CToolOptionInfo::TOOLOPTION(-1);
; 647  : }

  00186	5d		 pop	 ebp
  00187	c2 04 00	 ret	 4
$LN65@GetToolOpt:

; 629  : 	case 61: return CToolOptionInfo::TOOLOPTION::T_TOOL_SELECTION;			// 
; 630  : //	case 62: return CToolOptionInfo::TOOLOPTION::T_TOOL_SELECTION;			// 
; 631  : 	case 63: return CToolOptionInfo::TOOLOPTION::T_TOOL_CANDLE_LINE;		// 

  0018a	b8 63 00 00 00	 mov	 eax, 99			; 00000063H

; 644  : 	}
; 645  : 	
; 646  : 	return CToolOptionInfo::TOOLOPTION(-1);
; 647  : }

  0018f	5d		 pop	 ebp
  00190	c2 04 00	 ret	 4
$LN66@GetToolOpt:

; 632  : 	case 64: return CToolOptionInfo::TOOLOPTION::T_TOOL_CANDLE_BONG;		// 

  00193	b8 64 00 00 00	 mov	 eax, 100		; 00000064H

; 644  : 	}
; 645  : 	
; 646  : 	return CToolOptionInfo::TOOLOPTION(-1);
; 647  : }

  00198	5d		 pop	 ebp
  00199	c2 04 00	 ret	 4
$LN70@GetToolOpt:

; 633  : 	case 65: return CToolOptionInfo::TOOLOPTION::T_TOOL_SELECTION;			// 
; 634  : 	case 66: return CToolOptionInfo::TOOLOPTION::T_TOOL_SELECTION;			// 
; 635  : 	case 67: return CToolOptionInfo::TOOLOPTION::T_TOOL_SELECTION;			// 
; 636  : 	case 68: return CToolOptionInfo::TOOLOPTION::T_TOOL_SELECTION;			// 

  0019c	b8 20 00 00 00	 mov	 eax, 32			; 00000020H

; 644  : 	}
; 645  : 	
; 646  : 	return CToolOptionInfo::TOOLOPTION(-1);
; 647  : }

  001a1	5d		 pop	 ebp
  001a2	c2 04 00	 ret	 4
$LN71@GetToolOpt:

; 637  : 	case 69: return CToolOptionInfo::TOOLOPTION::T_EXCEL_IMPORT;			// Excel

  001a5	b8 73 00 00 00	 mov	 eax, 115		; 00000073H

; 644  : 	}
; 645  : 	
; 646  : 	return CToolOptionInfo::TOOLOPTION(-1);
; 647  : }

  001aa	5d		 pop	 ebp
  001ab	c2 04 00	 ret	 4
$LN72@GetToolOpt:

; 638  : 	case 70: return CToolOptionInfo::TOOLOPTION::T_UNDO_WORK;				// Undo

  001ae	b8 6d 00 00 00	 mov	 eax, 109		; 0000006dH

; 644  : 	}
; 645  : 	
; 646  : 	return CToolOptionInfo::TOOLOPTION(-1);
; 647  : }

  001b3	5d		 pop	 ebp
  001b4	c2 04 00	 ret	 4
$LN73@GetToolOpt:

; 639  : 	case 71: return CToolOptionInfo::TOOLOPTION::T_REDO_WORK;				// Redo

  001b7	b8 6e 00 00 00	 mov	 eax, 110		; 0000006eH

; 644  : 	}
; 645  : 	
; 646  : 	return CToolOptionInfo::TOOLOPTION(-1);
; 647  : }

  001bc	5d		 pop	 ebp
  001bd	c2 04 00	 ret	 4
$LN74@GetToolOpt:

; 640  : 	case 72: return CToolOptionInfo::TOOLOPTION::T_ORDER_LINE_MANAGER;		// 

  001c0	b8 72 00 00 00	 mov	 eax, 114		; 00000072H

; 644  : 	}
; 645  : 	
; 646  : 	return CToolOptionInfo::TOOLOPTION(-1);
; 647  : }

  001c5	5d		 pop	 ebp
  001c6	c2 04 00	 ret	 4
$LN75@GetToolOpt:

; 641  : 	case 73: return CToolOptionInfo::TOOLOPTION::T_MAGNIFYINGGLASS;			// 

  001c9	b8 4b 00 00 00	 mov	 eax, 75			; 0000004bH

; 644  : 	}
; 645  : 	
; 646  : 	return CToolOptionInfo::TOOLOPTION(-1);
; 647  : }

  001ce	5d		 pop	 ebp
  001cf	c2 04 00	 ret	 4
$LN76@GetToolOpt:

; 642  : 	case 74: return CToolOptionInfo::TOOLOPTION::T_TOOL_BALANCE_BASIC;		// 			// 2014.09.24  : 0010862: [7111]    []  IBK   

  001d2	b8 76 00 00 00	 mov	 eax, 118		; 00000076H

; 644  : 	}
; 645  : 	
; 646  : 	return CToolOptionInfo::TOOLOPTION(-1);
; 647  : }

  001d7	5d		 pop	 ebp
  001d8	c2 04 00	 ret	 4
$LN77@GetToolOpt:

; 643  : 	default: return CToolOptionInfo::TOOLOPTION(-1);

  001db	83 c8 ff	 or	 eax, -1

; 644  : 	}
; 645  : 	
; 646  : 	return CToolOptionInfo::TOOLOPTION(-1);
; 647  : }

  001de	5d		 pop	 ebp
  001df	c2 04 00	 ret	 4
  001e2	66 90		 npad	 2
$LN80@GetToolOpt:
  001e4	00 00 00 00	 DD	 $LN70@GetToolOpt
  001e8	00 00 00 00	 DD	 $LN7@GetToolOpt
  001ec	00 00 00 00	 DD	 $LN8@GetToolOpt
  001f0	00 00 00 00	 DD	 $LN9@GetToolOpt
  001f4	00 00 00 00	 DD	 $LN10@GetToolOpt
  001f8	00 00 00 00	 DD	 $LN11@GetToolOpt
  001fc	00 00 00 00	 DD	 $LN12@GetToolOpt
  00200	00 00 00 00	 DD	 $LN13@GetToolOpt
  00204	00 00 00 00	 DD	 $LN14@GetToolOpt
  00208	00 00 00 00	 DD	 $LN15@GetToolOpt
  0020c	00 00 00 00	 DD	 $LN16@GetToolOpt
  00210	00 00 00 00	 DD	 $LN17@GetToolOpt
  00214	00 00 00 00	 DD	 $LN18@GetToolOpt
  00218	00 00 00 00	 DD	 $LN19@GetToolOpt
  0021c	00 00 00 00	 DD	 $LN20@GetToolOpt
  00220	00 00 00 00	 DD	 $LN21@GetToolOpt
  00224	00 00 00 00	 DD	 $LN22@GetToolOpt
  00228	00 00 00 00	 DD	 $LN23@GetToolOpt
  0022c	00 00 00 00	 DD	 $LN24@GetToolOpt
  00230	00 00 00 00	 DD	 $LN25@GetToolOpt
  00234	00 00 00 00	 DD	 $LN26@GetToolOpt
  00238	00 00 00 00	 DD	 $LN30@GetToolOpt
  0023c	00 00 00 00	 DD	 $LN32@GetToolOpt
  00240	00 00 00 00	 DD	 $LN33@GetToolOpt
  00244	00 00 00 00	 DD	 $LN41@GetToolOpt
  00248	00 00 00 00	 DD	 $LN47@GetToolOpt
  0024c	00 00 00 00	 DD	 $LN49@GetToolOpt
  00250	00 00 00 00	 DD	 $LN50@GetToolOpt
  00254	00 00 00 00	 DD	 $LN51@GetToolOpt
  00258	00 00 00 00	 DD	 $LN52@GetToolOpt
  0025c	00 00 00 00	 DD	 $LN53@GetToolOpt
  00260	00 00 00 00	 DD	 $LN54@GetToolOpt
  00264	00 00 00 00	 DD	 $LN55@GetToolOpt
  00268	00 00 00 00	 DD	 $LN56@GetToolOpt
  0026c	00 00 00 00	 DD	 $LN57@GetToolOpt
  00270	00 00 00 00	 DD	 $LN58@GetToolOpt
  00274	00 00 00 00	 DD	 $LN59@GetToolOpt
  00278	00 00 00 00	 DD	 $LN60@GetToolOpt
  0027c	00 00 00 00	 DD	 $LN61@GetToolOpt
  00280	00 00 00 00	 DD	 $LN62@GetToolOpt
  00284	00 00 00 00	 DD	 $LN63@GetToolOpt
  00288	00 00 00 00	 DD	 $LN65@GetToolOpt
  0028c	00 00 00 00	 DD	 $LN66@GetToolOpt
  00290	00 00 00 00	 DD	 $LN71@GetToolOpt
  00294	00 00 00 00	 DD	 $LN72@GetToolOpt
  00298	00 00 00 00	 DD	 $LN73@GetToolOpt
  0029c	00 00 00 00	 DD	 $LN74@GetToolOpt
  002a0	00 00 00 00	 DD	 $LN75@GetToolOpt
  002a4	00 00 00 00	 DD	 $LN76@GetToolOpt
  002a8	00 00 00 00	 DD	 $LN77@GetToolOpt
$LN79@GetToolOpt:
  002ac	00		 DB	 0
  002ad	00		 DB	 0
  002ae	00		 DB	 0
  002af	01		 DB	 1
  002b0	02		 DB	 2
  002b1	03		 DB	 3
  002b2	04		 DB	 4
  002b3	05		 DB	 5
  002b4	06		 DB	 6
  002b5	07		 DB	 7
  002b6	08		 DB	 8
  002b7	09		 DB	 9
  002b8	0a		 DB	 10			; 0000000aH
  002b9	0b		 DB	 11			; 0000000bH
  002ba	0c		 DB	 12			; 0000000cH
  002bb	0d		 DB	 13			; 0000000dH
  002bc	0e		 DB	 14			; 0000000eH
  002bd	0f		 DB	 15			; 0000000fH
  002be	10		 DB	 16			; 00000010H
  002bf	11		 DB	 17			; 00000011H
  002c0	12		 DB	 18			; 00000012H
  002c1	13		 DB	 19			; 00000013H
  002c2	14		 DB	 20			; 00000014H
  002c3	00		 DB	 0
  002c4	00		 DB	 0
  002c5	00		 DB	 0
  002c6	15		 DB	 21			; 00000015H
  002c7	00		 DB	 0
  002c8	16		 DB	 22			; 00000016H
  002c9	17		 DB	 23			; 00000017H
  002ca	00		 DB	 0
  002cb	00		 DB	 0
  002cc	00		 DB	 0
  002cd	00		 DB	 0
  002ce	00		 DB	 0
  002cf	00		 DB	 0
  002d0	00		 DB	 0
  002d1	18		 DB	 24			; 00000018H
  002d2	00		 DB	 0
  002d3	00		 DB	 0
  002d4	00		 DB	 0
  002d5	00		 DB	 0
  002d6	00		 DB	 0
  002d7	19		 DB	 25			; 00000019H
  002d8	00		 DB	 0
  002d9	1a		 DB	 26			; 0000001aH
  002da	1b		 DB	 27			; 0000001bH
  002db	1c		 DB	 28			; 0000001cH
  002dc	1d		 DB	 29			; 0000001dH
  002dd	1e		 DB	 30			; 0000001eH
  002de	1f		 DB	 31			; 0000001fH
  002df	20		 DB	 32			; 00000020H
  002e0	21		 DB	 33			; 00000021H
  002e1	22		 DB	 34			; 00000022H
  002e2	23		 DB	 35			; 00000023H
  002e3	24		 DB	 36			; 00000024H
  002e4	25		 DB	 37			; 00000025H
  002e5	26		 DB	 38			; 00000026H
  002e6	27		 DB	 39			; 00000027H
  002e7	28		 DB	 40			; 00000028H
  002e8	00		 DB	 0
  002e9	31		 DB	 49			; 00000031H
  002ea	29		 DB	 41			; 00000029H
  002eb	2a		 DB	 42			; 0000002aH
  002ec	00		 DB	 0
  002ed	00		 DB	 0
  002ee	00		 DB	 0
  002ef	00		 DB	 0
  002f0	2b		 DB	 43			; 0000002bH
  002f1	2c		 DB	 44			; 0000002cH
  002f2	2d		 DB	 45			; 0000002dH
  002f3	2e		 DB	 46			; 0000002eH
  002f4	2f		 DB	 47			; 0000002fH
  002f5	30		 DB	 48			; 00000030H
?GetToolOption@CDlgToolbar@@QAE?AW4TOOLOPTION@CToolOptionInfo@@I@Z ENDP ; CDlgToolbar::GetToolOption
_TEXT	ENDS
; Function compile flags: /Ogtp
; File D:\git\src\IBK\IBK_DRFN\ProjSrc\SrcDrfn\Chart\MULTICHART\DlgToolbar.cpp
; File C:\Program Files (x86)\Microsoft Visual Studio\2019\Community\VC\Tools\MSVC\14.29.30133\atlmfc\include\afxtempl.h
; File D:\git\src\IBK\IBK_DRFN\ProjSrc\SrcDrfn\Chart\MULTICHART\DlgToolbar.cpp
; File C:\Program Files (x86)\Microsoft Visual Studio\2019\Community\VC\Tools\MSVC\14.29.30133\atlmfc\include\afxtempl.h
; File D:\git\src\IBK\IBK_DRFN\ProjSrc\SrcDrfn\Chart\MULTICHART\DlgToolbar.cpp
; File C:\Program Files (x86)\Microsoft Visual Studio\2019\Community\VC\Tools\MSVC\14.29.30133\atlmfc\include\afxtempl.h
; File D:\git\src\IBK\IBK_DRFN\ProjSrc\SrcDrfn\Chart\MULTICHART\DlgToolbar.cpp
; File C:\Program Files (x86)\Microsoft Visual Studio\2019\Community\VC\Tools\MSVC\14.29.30133\atlmfc\include\afxtempl.h
; File D:\git\src\IBK\IBK_DRFN\ProjSrc\SrcDrfn\Chart\MULTICHART\DlgToolbar.cpp
;	COMDAT ?GetToolNameMap@CDlgToolbar@@QAEHAAV?$CMap@HHV?$CStringT@DV?$StrTraitMFC_DLL@DV?$ChTraitsCRT@D@ATL@@@@@ATL@@V12@@@@Z
_TEXT	SEGMENT
_i$1$ = -40						; size = 4
$T6 = -36						; size = 4
_nKeyIdx$1$ = -32					; size = 4
_HashVal$2$sroa$439$1$ = -28				; size = 4
_nHashSize$1$ = -28					; size = 4
_nHashBucket$1$ = -28					; size = 4
_strButtonName$ = -24					; size = 4
_this$1$ = -20						; size = 4
_HashVal$4$sroa$443$1$ = -16				; size = 4
__$EHRec$ = -12						; size = 12
_mapToolName$ = 8					; size = 4
?GetToolNameMap@CDlgToolbar@@QAEHAAV?$CMap@HHV?$CStringT@DV?$StrTraitMFC_DLL@DV?$ChTraitsCRT@D@ATL@@@@@ATL@@V12@@@@Z PROC ; CDlgToolbar::GetToolNameMap, COMDAT
; _this$ = ecx

; 1918 : {

  00000	55		 push	 ebp
  00001	8b ec		 mov	 ebp, esp
  00003	6a ff		 push	 -1
  00005	68 00 00 00 00	 push	 __ehhandler$?GetToolNameMap@CDlgToolbar@@QAEHAAV?$CMap@HHV?$CStringT@DV?$StrTraitMFC_DLL@DV?$ChTraitsCRT@D@ATL@@@@@ATL@@V12@@@@Z
  0000a	64 a1 00 00 00
	00		 mov	 eax, DWORD PTR fs:0
  00010	50		 push	 eax
  00011	83 ec 1c	 sub	 esp, 28			; 0000001cH
  00014	56		 push	 esi
  00015	57		 push	 edi
  00016	a1 00 00 00 00	 mov	 eax, DWORD PTR ___security_cookie
  0001b	33 c5		 xor	 eax, ebp
  0001d	50		 push	 eax
  0001e	8d 45 f4	 lea	 eax, DWORD PTR __$EHRec$[ebp]
  00021	64 a3 00 00 00
	00		 mov	 DWORD PTR fs:0, eax
  00027	8b f1		 mov	 esi, ecx
  00029	89 75 ec	 mov	 DWORD PTR _this$1$[ebp], esi

; 1919 : 	int nKeyIdx;
; 1920 : 	CString strButtonName;

  0002c	8d 4d e8	 lea	 ecx, DWORD PTR _strButtonName$[ebp]
  0002f	ff 15 00 00 00
	00		 call	 DWORD PTR __imp_??0?$CStringT@DV?$StrTraitMFC_DLL@DV?$ChTraitsCRT@D@ATL@@@@@ATL@@QAE@XZ

; 1921 : 	for(int i = 0; i < m_arrayTotalIdx.GetSize() ; i++)

  00035	8b 86 c8 02 00
	00		 mov	 eax, DWORD PTR [esi+712]
  0003b	33 c9		 xor	 ecx, ecx
  0003d	c7 45 fc 00 00
	00 00		 mov	 DWORD PTR __$EHRec$[ebp+8], 0
  00044	89 4d d8	 mov	 DWORD PTR _i$1$[ebp], ecx
  00047	85 c0		 test	 eax, eax
  00049	0f 8e ed 01 00
	00		 jle	 $LN3@GetToolNam
  0004f	90		 npad	 1
$LL4@GetToolNam:
; File C:\Program Files (x86)\Microsoft Visual Studio\2019\Community\VC\Tools\MSVC\14.29.30133\atlmfc\include\afxtempl.h

; 288  : 	if(nIndex >= 0 && nIndex < m_nSize)

  00050	85 c9		 test	 ecx, ecx
  00052	0f 88 05 02 00
	00		 js	 $LN99@GetToolNam
  00058	3b c8		 cmp	 ecx, eax
  0005a	0f 8d fd 01 00
	00		 jge	 $LN99@GetToolNam

; 289  : 		return m_pData[nIndex];

  00060	8b 86 c4 02 00
	00		 mov	 eax, DWORD PTR [esi+708]

; 165  : 	ldiv_t HashVal = ldiv((long)(ARG_KEY)key, 127773);

  00066	be 1d f3 01 00	 mov	 esi, 127773		; 0001f31dH
; File D:\git\src\IBK\IBK_DRFN\ProjSrc\SrcDrfn\Chart\MULTICHART\DlgToolbar.cpp

; 1923 : 		nKeyIdx = m_arrayTotalIdx.GetAt(i);

  0006b	8b 0c 88	 mov	 ecx, DWORD PTR [eax+ecx*4]
; File C:\Program Files (x86)\Microsoft Visual Studio\2019\Community\VC\Tools\MSVC\14.29.30133\atlmfc\include\afxtempl.h

; 165  : 	ldiv_t HashVal = ldiv((long)(ARG_KEY)key, 127773);

  0006e	8b c1		 mov	 eax, ecx
  00070	99		 cdq
  00071	f7 fe		 idiv	 esi
; File D:\git\src\IBK\IBK_DRFN\ProjSrc\SrcDrfn\Chart\MULTICHART\DlgToolbar.cpp

; 1923 : 		nKeyIdx = m_arrayTotalIdx.GetAt(i);

  00073	89 4d e0	 mov	 DWORD PTR _nKeyIdx$1$[ebp], ecx
; File C:\Program Files (x86)\Microsoft Visual Studio\2019\Community\VC\Tools\MSVC\14.29.30133\atlmfc\include\afxtempl.h

; 166  : 	HashVal.rem = 16807 * HashVal.rem - 2836 * HashVal.quot;

  00076	69 c0 14 0b 00
	00		 imul	 eax, eax, 2836
  0007c	69 f2 a7 41 00
	00		 imul	 esi, edx, 16807
  00082	2b f0		 sub	 esi, eax
  00084	89 75 f0	 mov	 DWORD PTR _HashVal$4$sroa$443$1$[ebp], esi
  00087	8b c6		 mov	 eax, esi
  00089	89 75 e4	 mov	 DWORD PTR _HashVal$2$sroa$439$1$[ebp], esi

; 167  : 	if (HashVal.rem < 0)

  0008c	79 09		 jns	 SHORT $LN114@GetToolNam

; 168  : 		HashVal.rem += 2147483647;

  0008e	8d 86 ff ff ff
	7f		 lea	 eax, DWORD PTR [esi+2147483647]
  00094	89 45 e4	 mov	 DWORD PTR _HashVal$2$sroa$439$1$[ebp], eax
$LN114@GetToolNam:

; 1534 : 	nHashBucket = nHashValue % m_nHashTableSize;

  00097	8b 7d ec	 mov	 edi, DWORD PTR _this$1$[ebp]
  0009a	33 d2		 xor	 edx, edx
  0009c	f7 b7 18 03 00
	00		 div	 DWORD PTR [edi+792]

; 1535 : 
; 1536 : 	if (m_pHashTable == NULL)

  000a2	8b c7		 mov	 eax, edi
  000a4	8b 7d 08	 mov	 edi, DWORD PTR _mapToolName$[ebp]
  000a7	8b 80 14 03 00
	00		 mov	 eax, DWORD PTR [eax+788]
  000ad	85 c0		 test	 eax, eax
  000af	74 2e		 je	 SHORT $LN116@GetToolNam

; 1537 : 		return NULL;
; 1538 : 
; 1539 : 	// see if it exists
; 1540 : 	CAssoc* pAssoc;
; 1541 : 	for (pAssoc = m_pHashTable[nHashBucket]; pAssoc != NULL; pAssoc = pAssoc->pNext)

  000b1	8b 04 90	 mov	 eax, DWORD PTR [eax+edx*4]
  000b4	85 c0		 test	 eax, eax
  000b6	74 27		 je	 SHORT $LN116@GetToolNam
  000b8	8b 55 e4	 mov	 edx, DWORD PTR _HashVal$2$sroa$439$1$[ebp]
  000bb	0f 1f 44 00 00	 npad	 5
$LL18@GetToolNam:

; 1542 : 	{
; 1543 : 		if (pAssoc->nHashValue == nHashValue && CompareElements(&pAssoc->key, &key))

  000c0	39 50 0c	 cmp	 DWORD PTR [eax+12], edx
  000c3	75 04		 jne	 SHORT $LN16@GetToolNam
  000c5	39 08		 cmp	 DWORD PTR [eax], ecx
  000c7	74 09		 je	 SHORT $LN15@GetToolNam
$LN16@GetToolNam:

; 1537 : 		return NULL;
; 1538 : 
; 1539 : 	// see if it exists
; 1540 : 	CAssoc* pAssoc;
; 1541 : 	for (pAssoc = m_pHashTable[nHashBucket]; pAssoc != NULL; pAssoc = pAssoc->pNext)

  000c9	8b 40 08	 mov	 eax, DWORD PTR [eax+8]
  000cc	85 c0		 test	 eax, eax
  000ce	75 f0		 jne	 SHORT $LL18@GetToolNam
  000d0	eb 0d		 jmp	 SHORT $LN116@GetToolNam
$LN15@GetToolNam:

; 1559 : 	rValue = pAssoc->value;

  000d2	83 c0 04	 add	 eax, 4
  000d5	8d 4d e8	 lea	 ecx, DWORD PTR _strButtonName$[ebp]
  000d8	50		 push	 eax
  000d9	ff 15 00 00 00
	00		 call	 DWORD PTR __imp_??4?$CStringT@DV?$StrTraitMFC_DLL@DV?$ChTraitsCRT@D@ATL@@@@@ATL@@QAEAAV01@ABV01@@Z
$LN116@GetToolNam:
; File D:\git\src\IBK\IBK_DRFN\ProjSrc\SrcDrfn\Chart\MULTICHART\DlgToolbar.cpp

; 1926 : 		mapToolName.SetAt(nKeyIdx, strButtonName);

  000df	8d 45 e8	 lea	 eax, DWORD PTR _strButtonName$[ebp]
  000e2	50		 push	 eax
  000e3	8d 4d dc	 lea	 ecx, DWORD PTR $T6[ebp]
  000e6	ff 15 00 00 00
	00		 call	 DWORD PTR __imp_??0?$CStringT@DV?$StrTraitMFC_DLL@DV?$ChTraitsCRT@D@ATL@@@@@ATL@@QAE@ABV01@@Z
; File C:\Program Files (x86)\Microsoft Visual Studio\2019\Community\VC\Tools\MSVC\14.29.30133\atlmfc\include\afxtempl.h

; 1350 : 	{ (*this)[key] = newValue; }

  000ec	c6 45 fc 01	 mov	 BYTE PTR __$EHRec$[ebp+8], 1

; 166  : 	HashVal.rem = 16807 * HashVal.rem - 2836 * HashVal.quot;

  000f0	85 f6		 test	 esi, esi

; 167  : 	if (HashVal.rem < 0)

  000f2	79 09		 jns	 SHORT $LN54@GetToolNam

; 168  : 		HashVal.rem += 2147483647;

  000f4	81 c6 ff ff ff
	7f		 add	 esi, 2147483647		; 7fffffffH
  000fa	89 75 f0	 mov	 DWORD PTR _HashVal$4$sroa$443$1$[ebp], esi
$LN54@GetToolNam:

; 1534 : 	nHashBucket = nHashValue % m_nHashTableSize;

  000fd	8b 47 08	 mov	 eax, DWORD PTR [edi+8]
  00100	33 d2		 xor	 edx, edx
  00102	89 45 e4	 mov	 DWORD PTR _nHashSize$1$[ebp], eax
  00105	8b c6		 mov	 eax, esi
  00107	8b 75 e4	 mov	 esi, DWORD PTR _nHashSize$1$[ebp]
  0010a	f7 f6		 div	 esi

; 1535 : 
; 1536 : 	if (m_pHashTable == NULL)

  0010c	8b 47 04	 mov	 eax, DWORD PTR [edi+4]
  0010f	8b ca		 mov	 ecx, edx
  00111	89 4d e4	 mov	 DWORD PTR _nHashBucket$1$[ebp], ecx
  00114	85 c0		 test	 eax, eax
  00116	75 48		 jne	 SHORT $LN50@GetToolNam

; 1434 : 		m_pHashTable = new CAssoc* [nHashSize];

  00118	33 c9		 xor	 ecx, ecx
  0011a	8b c6		 mov	 eax, esi
  0011c	ba 04 00 00 00	 mov	 edx, 4
  00121	f7 e2		 mul	 edx
  00123	0f 90 c1	 seto	 cl
  00126	f7 d9		 neg	 ecx
  00128	0b c8		 or	 ecx, eax
  0012a	51		 push	 ecx
  0012b	e8 00 00 00 00	 call	 ??_U@YAPAXI@Z		; operator new[]
  00130	83 c4 04	 add	 esp, 4
  00133	89 47 04	 mov	 DWORD PTR [edi+4], eax

; 1435 : 		ENSURE(m_pHashTable != NULL);

  00136	85 c0		 test	 eax, eax
  00138	0f 84 1f 01 00
	00		 je	 $LN99@GetToolNam

; 1436 : 		memset(m_pHashTable, 0, sizeof(CAssoc*) * nHashSize);

  0013e	8d 0c b5 00 00
	00 00		 lea	 ecx, DWORD PTR [esi*4]
  00145	51		 push	 ecx
  00146	6a 00		 push	 0
  00148	50		 push	 eax
  00149	e8 00 00 00 00	 call	 _memset
  0014e	83 c4 0c	 add	 esp, 12			; 0000000cH

; 1437 : 	}
; 1438 : 	m_nHashTableSize = nHashSize;

  00151	89 77 08	 mov	 DWORD PTR [edi+8], esi

; 1595 : 		ENSURE(m_pHashTable);

  00154	83 7f 04 00	 cmp	 DWORD PTR [edi+4], 0
  00158	0f 84 ff 00 00
	00		 je	 $LN99@GetToolNam
  0015e	eb 24		 jmp	 SHORT $LN117@GetToolNam
$LN50@GetToolNam:

; 1541 : 	for (pAssoc = m_pHashTable[nHashBucket]; pAssoc != NULL; pAssoc = pAssoc->pNext)

  00160	8b 34 88	 mov	 esi, DWORD PTR [eax+ecx*4]
  00163	85 f6		 test	 esi, esi
  00165	74 1d		 je	 SHORT $LN117@GetToolNam
  00167	8b 45 f0	 mov	 eax, DWORD PTR _HashVal$4$sroa$443$1$[ebp]
  0016a	8b 4d e0	 mov	 ecx, DWORD PTR _nKeyIdx$1$[ebp]
  0016d	0f 1f 00	 npad	 3
$LL49@GetToolNam:

; 1542 : 	{
; 1543 : 		if (pAssoc->nHashValue == nHashValue && CompareElements(&pAssoc->key, &key))

  00170	39 46 0c	 cmp	 DWORD PTR [esi+12], eax
  00173	75 08		 jne	 SHORT $LN47@GetToolNam
  00175	39 0e		 cmp	 DWORD PTR [esi], ecx
  00177	0f 84 8d 00 00
	00		 je	 $LN42@GetToolNam
$LN47@GetToolNam:

; 1537 : 		return NULL;
; 1538 : 
; 1539 : 	// see if it exists
; 1540 : 	CAssoc* pAssoc;
; 1541 : 	for (pAssoc = m_pHashTable[nHashBucket]; pAssoc != NULL; pAssoc = pAssoc->pNext)

  0017d	8b 76 08	 mov	 esi, DWORD PTR [esi+8]
  00180	85 f6		 test	 esi, esi
  00182	75 ec		 jne	 SHORT $LL49@GetToolNam
$LN117@GetToolNam:

; 1481 : 	if (m_pFreeList == NULL)

  00184	83 7f 10 00	 cmp	 DWORD PTR [edi+16], 0
  00188	75 37		 jne	 SHORT $LN80@GetToolNam

; 1482 : 	{
; 1483 : 		// add another block
; 1484 : 		CPlex* newBlock = CPlex::Create(m_pBlocks, m_nBlockSize, sizeof(CMap::CAssoc));

  0018a	6a 10		 push	 16			; 00000010H
  0018c	ff 77 18	 push	 DWORD PTR [edi+24]
  0018f	8d 47 14	 lea	 eax, DWORD PTR [edi+20]
  00192	50		 push	 eax
  00193	e8 00 00 00 00	 call	 ?Create@CPlex@@SGPAU1@AAPAU1@II@Z ; CPlex::Create

; 1485 : 		// chain them into free list
; 1486 : 		CMap::CAssoc* pAssoc = (CMap::CAssoc*) newBlock->data();
; 1487 : 		// free in reverse order to make it easier to debug
; 1488 : 		pAssoc += m_nBlockSize - 1;

  00198	8b 57 18	 mov	 edx, DWORD PTR [edi+24]
  0019b	8b ca		 mov	 ecx, edx
  0019d	c1 e1 04	 shl	 ecx, 4
  001a0	83 c1 f8	 add	 ecx, -8			; fffffff8H
  001a3	03 c8		 add	 ecx, eax

; 1489 : 		for (INT_PTR i = m_nBlockSize-1; i >= 0; i--, pAssoc--)

  001a5	83 c2 ff	 add	 edx, -1
  001a8	78 17		 js	 SHORT $LN80@GetToolNam
  001aa	66 0f 1f 44 00
	00		 npad	 6
$LL77@GetToolNam:

; 1490 : 		{
; 1491 : 			pAssoc->pNext = m_pFreeList;

  001b0	8b 47 10	 mov	 eax, DWORD PTR [edi+16]
  001b3	89 41 08	 mov	 DWORD PTR [ecx+8], eax

; 1492 : 			m_pFreeList = pAssoc;

  001b6	89 4f 10	 mov	 DWORD PTR [edi+16], ecx
  001b9	83 e9 10	 sub	 ecx, 16			; 00000010H
  001bc	83 ea 01	 sub	 edx, 1
  001bf	79 ef		 jns	 SHORT $LL77@GetToolNam
$LN80@GetToolNam:

; 1493 : 		}
; 1494 : 	}
; 1495 : 	ENSURE(m_pFreeList != NULL);  // we must have something

  001c1	8b 77 10	 mov	 esi, DWORD PTR [edi+16]
  001c4	85 f6		 test	 esi, esi
  001c6	0f 84 91 00 00
	00		 je	 $LN99@GetToolNam

; 1496 : 
; 1497 : 	CMap::CAssoc* pAssoc = m_pFreeList;
; 1498 : 
; 1499 : 	// zero the memory
; 1500 : 	CMap::CAssoc* pTemp = pAssoc->pNext;

  001cc	8b 46 08	 mov	 eax, DWORD PTR [esi+8]

; 1256 : 		CPair( ARG_KEY keyval ) : key( keyval )	{}

  001cf	8d 4e 04	 lea	 ecx, DWORD PTR [esi+4]
  001d2	0f 57 c0	 xorps	 xmm0, xmm0

; 1501 : 	memset( pAssoc, 0, sizeof(CMap::CAssoc) );

  001d5	0f 11 06	 movups	 XMMWORD PTR [esi], xmm0

; 1502 : 	pAssoc->pNext = pTemp;

  001d8	89 46 08	 mov	 DWORD PTR [esi+8], eax

; 1503 : 
; 1504 : 	m_pFreeList = m_pFreeList->pNext;

  001db	8b 47 10	 mov	 eax, DWORD PTR [edi+16]
  001de	8b 40 08	 mov	 eax, DWORD PTR [eax+8]

; 1505 : 	m_nCount++;

  001e1	ff 47 0c	 inc	 DWORD PTR [edi+12]
  001e4	89 47 10	 mov	 DWORD PTR [edi+16], eax

; 1256 : 		CPair( ARG_KEY keyval ) : key( keyval )	{}

  001e7	8b 45 e0	 mov	 eax, DWORD PTR _nKeyIdx$1$[ebp]
  001ea	89 06		 mov	 DWORD PTR [esi], eax
  001ec	ff 15 00 00 00
	00		 call	 DWORD PTR __imp_??0?$CStringT@DV?$StrTraitMFC_DLL@DV?$ChTraitsCRT@D@ATL@@@@@ATL@@QAE@XZ

; 1598 : 		pAssoc->nHashValue = nHashValue;

  001f2	8b 45 f0	 mov	 eax, DWORD PTR _HashVal$4$sroa$443$1$[ebp]

; 1599 : 		//'pAssoc->value' is a constructed object, nothing more
; 1600 : 
; 1601 : 		// put into hash table
; 1602 : 		pAssoc->pNext = m_pHashTable[nHashBucket];

  001f5	8b 4d e4	 mov	 ecx, DWORD PTR _nHashBucket$1$[ebp]
  001f8	89 46 0c	 mov	 DWORD PTR [esi+12], eax
  001fb	8b 47 04	 mov	 eax, DWORD PTR [edi+4]
  001fe	8b 04 88	 mov	 eax, DWORD PTR [eax+ecx*4]
  00201	89 46 08	 mov	 DWORD PTR [esi+8], eax

; 1603 : 		m_pHashTable[nHashBucket] = pAssoc;

  00204	8b 47 04	 mov	 eax, DWORD PTR [edi+4]
  00207	89 34 88	 mov	 DWORD PTR [eax+ecx*4], esi
$LN42@GetToolNam:

; 1350 : 	{ (*this)[key] = newValue; }

  0020a	8d 45 dc	 lea	 eax, DWORD PTR $T6[ebp]

; 1605 : 	return pAssoc->value;  // return new reference

  0020d	8d 4e 04	 lea	 ecx, DWORD PTR [esi+4]

; 1350 : 	{ (*this)[key] = newValue; }

  00210	50		 push	 eax
  00211	ff 15 00 00 00
	00		 call	 DWORD PTR __imp_??4?$CStringT@DV?$StrTraitMFC_DLL@DV?$ChTraitsCRT@D@ATL@@@@@ATL@@QAEAAV01@ABV01@@Z
  00217	8d 4d dc	 lea	 ecx, DWORD PTR $T6[ebp]
  0021a	c6 45 fc 00	 mov	 BYTE PTR __$EHRec$[ebp+8], 0
  0021e	ff 15 00 00 00
	00		 call	 DWORD PTR __imp_??1?$CStringT@DV?$StrTraitMFC_DLL@DV?$ChTraitsCRT@D@ATL@@@@@ATL@@QAE@XZ
; File D:\git\src\IBK\IBK_DRFN\ProjSrc\SrcDrfn\Chart\MULTICHART\DlgToolbar.cpp

; 1921 : 	for(int i = 0; i < m_arrayTotalIdx.GetSize() ; i++)

  00224	8b 75 ec	 mov	 esi, DWORD PTR _this$1$[ebp]
  00227	8b 4d d8	 mov	 ecx, DWORD PTR _i$1$[ebp]
  0022a	41		 inc	 ecx
  0022b	89 4d d8	 mov	 DWORD PTR _i$1$[ebp], ecx
  0022e	8b 86 c8 02 00
	00		 mov	 eax, DWORD PTR [esi+712]
  00234	3b c8		 cmp	 ecx, eax
  00236	0f 8c 14 fe ff
	ff		 jl	 $LL4@GetToolNam
$LN3@GetToolNam:

; 1927 : 	}
; 1928 : 
; 1929 : 	return TRUE;

  0023c	8d 4d e8	 lea	 ecx, DWORD PTR _strButtonName$[ebp]
  0023f	ff 15 00 00 00
	00		 call	 DWORD PTR __imp_??1?$CStringT@DV?$StrTraitMFC_DLL@DV?$ChTraitsCRT@D@ATL@@@@@ATL@@QAE@XZ
  00245	b8 01 00 00 00	 mov	 eax, 1

; 1930 : }

  0024a	8b 4d f4	 mov	 ecx, DWORD PTR __$EHRec$[ebp]
  0024d	64 89 0d 00 00
	00 00		 mov	 DWORD PTR fs:0, ecx
  00254	59		 pop	 ecx
  00255	5f		 pop	 edi
  00256	5e		 pop	 esi
  00257	8b e5		 mov	 esp, ebp
  00259	5d		 pop	 ebp
  0025a	c2 04 00	 ret	 4
$LN99@GetToolNam:
  0025d	e8 00 00 00 00	 call	 ?AfxThrowInvalidArgException@@YGXXZ ; AfxThrowInvalidArgException
$LN119@GetToolNam:
  00262	cc		 int	 3
_TEXT	ENDS
;	COMDAT text$x
text$x	SEGMENT
__unwindfunclet$?GetToolNameMap@CDlgToolbar@@QAEHAAV?$CMap@HHV?$CStringT@DV?$StrTraitMFC_DLL@DV?$ChTraitsCRT@D@ATL@@@@@ATL@@V12@@@@Z$0:
  00000	8d 4d e8	 lea	 ecx, DWORD PTR _strButtonName$[ebp]
  00003	ff 25 00 00 00
	00		 jmp	 DWORD PTR __imp_??1?$CStringT@DV?$StrTraitMFC_DLL@DV?$ChTraitsCRT@D@ATL@@@@@ATL@@QAE@XZ
__unwindfunclet$?GetToolNameMap@CDlgToolbar@@QAEHAAV?$CMap@HHV?$CStringT@DV?$StrTraitMFC_DLL@DV?$ChTraitsCRT@D@ATL@@@@@ATL@@V12@@@@Z$2:
  00009	8d 4d dc	 lea	 ecx, DWORD PTR $T6[ebp]
  0000c	ff 25 00 00 00
	00		 jmp	 DWORD PTR __imp_??1?$CStringT@DV?$StrTraitMFC_DLL@DV?$ChTraitsCRT@D@ATL@@@@@ATL@@QAE@XZ
  00012	cc		 int	 3
  00013	cc		 int	 3
  00014	cc		 int	 3
  00015	cc		 int	 3
  00016	cc		 int	 3
__ehhandler$?GetToolNameMap@CDlgToolbar@@QAEHAAV?$CMap@HHV?$CStringT@DV?$StrTraitMFC_DLL@DV?$ChTraitsCRT@D@ATL@@@@@ATL@@V12@@@@Z:
  00017	90		 npad	 1
  00018	90		 npad	 1
  00019	8b 54 24 08	 mov	 edx, DWORD PTR [esp+8]
  0001d	8d 42 0c	 lea	 eax, DWORD PTR [edx+12]
  00020	8b 4a d8	 mov	 ecx, DWORD PTR [edx-40]
  00023	33 c8		 xor	 ecx, eax
  00025	e8 00 00 00 00	 call	 @__security_check_cookie@4
  0002a	b8 00 00 00 00	 mov	 eax, OFFSET __ehfuncinfo$?GetToolNameMap@CDlgToolbar@@QAEHAAV?$CMap@HHV?$CStringT@DV?$StrTraitMFC_DLL@DV?$ChTraitsCRT@D@ATL@@@@@ATL@@V12@@@@Z
  0002f	e9 00 00 00 00	 jmp	 ___CxxFrameHandler3
text$x	ENDS
?GetToolNameMap@CDlgToolbar@@QAEHAAV?$CMap@HHV?$CStringT@DV?$StrTraitMFC_DLL@DV?$ChTraitsCRT@D@ATL@@@@@ATL@@V12@@@@Z ENDP ; CDlgToolbar::GetToolNameMap
; Function compile flags: /Ogtp
; File D:\git\src\IBK\IBK_DRFN\ProjSrc\SrcDrfn\Chart\MULTICHART\DlgToolbar.cpp
; File C:\Program Files (x86)\Microsoft Visual Studio\2019\Community\VC\Tools\MSVC\14.29.30133\atlmfc\include\afxtempl.h
; File D:\git\src\IBK\IBK_DRFN\ProjSrc\SrcDrfn\Chart\MULTICHART\DlgToolbar.cpp
; File C:\Program Files (x86)\Microsoft Visual Studio\2019\Community\VC\Tools\MSVC\14.29.30133\atlmfc\include\afxtempl.h
; File D:\git\src\IBK\IBK_DRFN\ProjSrc\SrcDrfn\Chart\MULTICHART\DlgToolbar.cpp
; File C:\Program Files (x86)\Microsoft Visual Studio\2019\Community\VC\Tools\MSVC\14.29.30133\atlmfc\include\afxtempl.h
; File D:\git\src\IBK\IBK_DRFN\ProjSrc\SrcDrfn\Chart\MULTICHART\DlgToolbar.cpp
; File C:\Program Files (x86)\Microsoft Visual Studio\2019\Community\VC\Tools\MSVC\14.29.30133\atlmfc\include\afxtempl.h
; File D:\git\src\IBK\IBK_DRFN\ProjSrc\SrcDrfn\Chart\MULTICHART\DlgToolbar.cpp
; File C:\Program Files (x86)\Microsoft Visual Studio\2019\Community\VC\Tools\MSVC\14.29.30133\atlmfc\include\afxtempl.h
; File D:\git\src\IBK\IBK_DRFN\ProjSrc\SrcDrfn\Chart\MULTICHART\DlgToolbar.cpp
; File C:\Program Files (x86)\Microsoft Visual Studio\2019\Community\VC\Tools\MSVC\14.29.30133\atlmfc\include\afxtempl.h
; File D:\git\src\IBK\IBK_DRFN\ProjSrc\SrcDrfn\Chart\MULTICHART\DlgToolbar.cpp
; File C:\Program Files (x86)\Microsoft Visual Studio\2019\Community\VC\Tools\MSVC\14.29.30133\atlmfc\include\afxtempl.h
; File D:\git\src\IBK\IBK_DRFN\ProjSrc\SrcDrfn\Chart\MULTICHART\DlgToolbar.cpp
; File C:\Program Files (x86)\Microsoft Visual Studio\2019\Community\VC\Tools\MSVC\14.29.30133\atlmfc\include\afxtempl.h
; File D:\git\src\IBK\IBK_DRFN\ProjSrc\SrcDrfn\Chart\MULTICHART\DlgToolbar.cpp
; File C:\Program Files (x86)\Microsoft Visual Studio\2019\Community\VC\Tools\MSVC\14.29.30133\atlmfc\include\afxtempl.h
; File D:\git\src\IBK\IBK_DRFN\ProjSrc\SrcDrfn\Chart\MULTICHART\DlgToolbar.cpp
; File C:\Program Files (x86)\Microsoft Visual Studio\2019\Community\VC\Tools\MSVC\14.29.30133\atlmfc\include\afxtempl.h
; File D:\git\src\IBK\IBK_DRFN\ProjSrc\SrcDrfn\Chart\MULTICHART\DlgToolbar.cpp
; File C:\Program Files (x86)\Microsoft Visual Studio\2019\Community\VC\Tools\MSVC\14.29.30133\atlmfc\include\afxtempl.h
; File D:\git\src\IBK\IBK_DRFN\ProjSrc\SrcDrfn\Chart\MULTICHART\DlgToolbar.cpp
; File C:\Program Files (x86)\Microsoft Visual Studio\2019\Community\VC\Tools\MSVC\14.29.30133\atlmfc\include\afxtempl.h
; File D:\git\src\IBK\IBK_DRFN\ProjSrc\SrcDrfn\Chart\MULTICHART\DlgToolbar.cpp
; File C:\Program Files (x86)\Microsoft Visual Studio\2019\Community\VC\Tools\MSVC\14.29.30133\atlmfc\include\afxtempl.h
; File D:\git\src\IBK\IBK_DRFN\ProjSrc\SrcDrfn\Chart\MULTICHART\DlgToolbar.cpp
; File C:\Program Files (x86)\Microsoft Visual Studio\2019\Community\VC\Tools\MSVC\14.29.30133\atlmfc\include\afxtempl.h
; File D:\git\src\IBK\IBK_DRFN\ProjSrc\SrcDrfn\Chart\MULTICHART\DlgToolbar.cpp
; File C:\Program Files (x86)\Microsoft Visual Studio\2019\Community\VC\Tools\MSVC\14.29.30133\atlmfc\include\afxtempl.h
; File D:\git\src\IBK\IBK_DRFN\ProjSrc\SrcDrfn\Chart\MULTICHART\DlgToolbar.cpp
; File C:\Program Files (x86)\Microsoft Visual Studio\2019\Community\VC\Tools\MSVC\14.29.30133\atlmfc\include\afxtempl.h
; File D:\git\src\IBK\IBK_DRFN\ProjSrc\SrcDrfn\Chart\MULTICHART\DlgToolbar.cpp
;	COMDAT ?GetIndexArray@CDlgToolbar@@QAEHHAAV?$CArray@HH@@0@Z
_TEXT	SEGMENT
_newElement$1$ = 8					; size = 4
_newElement$1$ = 8					; size = 4
_newElement$1$ = 8					; size = 4
_nKeyIdx$3$ = 8						; size = 4
_nKeyIdx$2$ = 8						; size = 4
_nKeyIdx$1$ = 8						; size = 4
_nSelTool$ = 8						; size = 4
_arIndx$ = 12						; size = 4
_arCheck$ = 16						; size = 4
?GetIndexArray@CDlgToolbar@@QAEHHAAV?$CArray@HH@@0@Z PROC ; CDlgToolbar::GetIndexArray, COMDAT
; _this$ = ecx

; 1881 : {

  00000	55		 push	 ebp
  00001	8b ec		 mov	 ebp, esp

; 1882 : 	int nKeyIdx;
; 1883 : 	if(nSelTool == 0)

  00003	8b 45 08	 mov	 eax, DWORD PTR _nSelTool$[ebp]
  00006	53		 push	 ebx
  00007	56		 push	 esi
  00008	8b f1		 mov	 esi, ecx
  0000a	57		 push	 edi
  0000b	85 c0		 test	 eax, eax
  0000d	0f 85 a2 00 00
	00		 jne	 $LN11@GetIndexAr

; 1885 : 		for(int i = 0; i < m_arrayUserIdx.GetSize(); i++)

  00013	8b 86 04 03 00
	00		 mov	 eax, DWORD PTR [esi+772]
  00019	33 ff		 xor	 edi, edi
  0001b	85 c0		 test	 eax, eax
  0001d	0f 8e 86 00 00
	00		 jle	 $LN9@GetIndexAr
$LL4@GetIndexAr:
; File C:\Program Files (x86)\Microsoft Visual Studio\2019\Community\VC\Tools\MSVC\14.29.30133\atlmfc\include\afxtempl.h

; 288  : 	if(nIndex >= 0 && nIndex < m_nSize)

  00023	85 ff		 test	 edi, edi
  00025	0f 88 e4 01 00
	00		 js	 $LN53@GetIndexAr
  0002b	3b f8		 cmp	 edi, eax
  0002d	0f 8d dc 01 00
	00		 jge	 $LN53@GetIndexAr

; 333  : 	{ INT_PTR nIndex = m_nSize;

  00033	8b 4d 0c	 mov	 ecx, DWORD PTR _arIndx$[ebp]
; File D:\git\src\IBK\IBK_DRFN\ProjSrc\SrcDrfn\Chart\MULTICHART\DlgToolbar.cpp

; 1887 : 			nKeyIdx = m_arrayUserIdx.GetAt(i);

  00036	8b 86 00 03 00
	00		 mov	 eax, DWORD PTR [esi+768]
; File C:\Program Files (x86)\Microsoft Visual Studio\2019\Community\VC\Tools\MSVC\14.29.30133\atlmfc\include\afxtempl.h

; 333  : 	{ INT_PTR nIndex = m_nSize;

  0003c	8b 59 08	 mov	 ebx, DWORD PTR [ecx+8]
; File D:\git\src\IBK\IBK_DRFN\ProjSrc\SrcDrfn\Chart\MULTICHART\DlgToolbar.cpp

; 1887 : 			nKeyIdx = m_arrayUserIdx.GetAt(i);

  0003f	8b 04 b8	 mov	 eax, DWORD PTR [eax+edi*4]
  00042	89 45 08	 mov	 DWORD PTR _nKeyIdx$1$[ebp], eax
; File C:\Program Files (x86)\Microsoft Visual Studio\2019\Community\VC\Tools\MSVC\14.29.30133\atlmfc\include\afxtempl.h

; 538  : 	if(nIndex < 0)

  00045	85 db		 test	 ebx, ebx
  00047	0f 88 c2 01 00
	00		 js	 $LN53@GetIndexAr

; 539  : 		AfxThrowInvalidArgException();
; 540  : 
; 541  : 	if (nIndex >= m_nSize)
; 542  : 		SetSize(nIndex+1, -1);

  0004d	6a ff		 push	 -1
  0004f	8d 43 01	 lea	 eax, DWORD PTR [ebx+1]
  00052	50		 push	 eax
  00053	e8 00 00 00 00	 call	 ?SetSize@?$CArray@HH@@QAEXHH@Z ; CArray<int,int>::SetSize

; 543  : 	m_pData[nIndex] = newElement;

  00058	8b 4d 0c	 mov	 ecx, DWORD PTR _arIndx$[ebp]
  0005b	8b 41 04	 mov	 eax, DWORD PTR [ecx+4]
  0005e	8b 4d 08	 mov	 ecx, DWORD PTR _nKeyIdx$1$[ebp]
  00061	89 0c 98	 mov	 DWORD PTR [eax+ebx*4], ecx
; File D:\git\src\IBK\IBK_DRFN\ProjSrc\SrcDrfn\Chart\MULTICHART\DlgToolbar.cpp

; 1889 : 			arCheck.Add(m_pToolBtn[nKeyIdx]->GetToggle());

  00064	8b 8c 8e a8 00
	00 00		 mov	 ecx, DWORD PTR [esi+ecx*4+168]
  0006b	e8 00 00 00 00	 call	 ?GetToggle@CChartToolBtn@@QAEHXZ ; CChartToolBtn::GetToggle
  00070	89 45 08	 mov	 DWORD PTR _newElement$1$[ebp], eax
; File C:\Program Files (x86)\Microsoft Visual Studio\2019\Community\VC\Tools\MSVC\14.29.30133\atlmfc\include\afxtempl.h

; 333  : 	{ INT_PTR nIndex = m_nSize;

  00073	8b 45 10	 mov	 eax, DWORD PTR _arCheck$[ebp]
  00076	8b 58 08	 mov	 ebx, DWORD PTR [eax+8]

; 538  : 	if(nIndex < 0)

  00079	85 db		 test	 ebx, ebx
  0007b	0f 88 8e 01 00
	00		 js	 $LN53@GetIndexAr

; 539  : 		AfxThrowInvalidArgException();
; 540  : 
; 541  : 	if (nIndex >= m_nSize)
; 542  : 		SetSize(nIndex+1, -1);

  00081	6a ff		 push	 -1
  00083	8d 4b 01	 lea	 ecx, DWORD PTR [ebx+1]
  00086	51		 push	 ecx
  00087	8b c8		 mov	 ecx, eax
  00089	e8 00 00 00 00	 call	 ?SetSize@?$CArray@HH@@QAEXHH@Z ; CArray<int,int>::SetSize

; 543  : 	m_pData[nIndex] = newElement;

  0008e	8b 4d 10	 mov	 ecx, DWORD PTR _arCheck$[ebp]
; File D:\git\src\IBK\IBK_DRFN\ProjSrc\SrcDrfn\Chart\MULTICHART\DlgToolbar.cpp

; 1885 : 		for(int i = 0; i < m_arrayUserIdx.GetSize(); i++)

  00091	47		 inc	 edi
; File C:\Program Files (x86)\Microsoft Visual Studio\2019\Community\VC\Tools\MSVC\14.29.30133\atlmfc\include\afxtempl.h

; 543  : 	m_pData[nIndex] = newElement;

  00092	8b 41 04	 mov	 eax, DWORD PTR [ecx+4]
  00095	8b 4d 08	 mov	 ecx, DWORD PTR _newElement$1$[ebp]
  00098	89 0c 98	 mov	 DWORD PTR [eax+ebx*4], ecx
; File D:\git\src\IBK\IBK_DRFN\ProjSrc\SrcDrfn\Chart\MULTICHART\DlgToolbar.cpp

; 1885 : 		for(int i = 0; i < m_arrayUserIdx.GetSize(); i++)

  0009b	8b 86 04 03 00
	00		 mov	 eax, DWORD PTR [esi+772]
  000a1	3b f8		 cmp	 edi, eax
  000a3	0f 8c 7a ff ff
	ff		 jl	 $LL4@GetIndexAr
$LN9@GetIndexAr:
  000a9	5f		 pop	 edi

; 1915 : }

  000aa	5e		 pop	 esi
  000ab	b8 01 00 00 00	 mov	 eax, 1
  000b0	5b		 pop	 ebx
  000b1	5d		 pop	 ebp
  000b2	c2 0c 00	 ret	 12			; 0000000cH
$LN11@GetIndexAr:

; 1890 : 		}
; 1891 : 		return TRUE;
; 1892 : 	}
; 1893 : 	else if(nSelTool == 1)

  000b5	83 f8 01	 cmp	 eax, 1
  000b8	0f 85 a4 00 00
	00		 jne	 $LN13@GetIndexAr

; 1895 : 		for(int i = 0; i < m_arrayAnalIdx.GetSize(); i++)

  000be	8b 86 dc 02 00
	00		 mov	 eax, DWORD PTR [esi+732]
  000c4	33 ff		 xor	 edi, edi
  000c6	85 c0		 test	 eax, eax
  000c8	7e df		 jle	 SHORT $LN9@GetIndexAr
  000ca	66 0f 1f 44 00
	00		 npad	 6
$LL7@GetIndexAr:
; File C:\Program Files (x86)\Microsoft Visual Studio\2019\Community\VC\Tools\MSVC\14.29.30133\atlmfc\include\afxtempl.h

; 288  : 	if(nIndex >= 0 && nIndex < m_nSize)

  000d0	85 ff		 test	 edi, edi
  000d2	0f 88 37 01 00
	00		 js	 $LN53@GetIndexAr
  000d8	3b f8		 cmp	 edi, eax
  000da	0f 8d 2f 01 00
	00		 jge	 $LN53@GetIndexAr

; 333  : 	{ INT_PTR nIndex = m_nSize;

  000e0	8b 4d 0c	 mov	 ecx, DWORD PTR _arIndx$[ebp]
; File D:\git\src\IBK\IBK_DRFN\ProjSrc\SrcDrfn\Chart\MULTICHART\DlgToolbar.cpp

; 1897 : 			nKeyIdx = m_arrayAnalIdx.GetAt(i);

  000e3	8b 86 d8 02 00
	00		 mov	 eax, DWORD PTR [esi+728]
; File C:\Program Files (x86)\Microsoft Visual Studio\2019\Community\VC\Tools\MSVC\14.29.30133\atlmfc\include\afxtempl.h

; 333  : 	{ INT_PTR nIndex = m_nSize;

  000e9	8b 59 08	 mov	 ebx, DWORD PTR [ecx+8]
; File D:\git\src\IBK\IBK_DRFN\ProjSrc\SrcDrfn\Chart\MULTICHART\DlgToolbar.cpp

; 1897 : 			nKeyIdx = m_arrayAnalIdx.GetAt(i);

  000ec	8b 04 b8	 mov	 eax, DWORD PTR [eax+edi*4]
  000ef	89 45 08	 mov	 DWORD PTR _nKeyIdx$2$[ebp], eax
; File C:\Program Files (x86)\Microsoft Visual Studio\2019\Community\VC\Tools\MSVC\14.29.30133\atlmfc\include\afxtempl.h

; 538  : 	if(nIndex < 0)

  000f2	85 db		 test	 ebx, ebx
  000f4	0f 88 15 01 00
	00		 js	 $LN53@GetIndexAr

; 539  : 		AfxThrowInvalidArgException();
; 540  : 
; 541  : 	if (nIndex >= m_nSize)
; 542  : 		SetSize(nIndex+1, -1);

  000fa	6a ff		 push	 -1
  000fc	8d 43 01	 lea	 eax, DWORD PTR [ebx+1]
  000ff	50		 push	 eax
  00100	e8 00 00 00 00	 call	 ?SetSize@?$CArray@HH@@QAEXHH@Z ; CArray<int,int>::SetSize

; 543  : 	m_pData[nIndex] = newElement;

  00105	8b 4d 0c	 mov	 ecx, DWORD PTR _arIndx$[ebp]
  00108	8b 41 04	 mov	 eax, DWORD PTR [ecx+4]
  0010b	8b 4d 08	 mov	 ecx, DWORD PTR _nKeyIdx$2$[ebp]
  0010e	89 0c 98	 mov	 DWORD PTR [eax+ebx*4], ecx
; File D:\git\src\IBK\IBK_DRFN\ProjSrc\SrcDrfn\Chart\MULTICHART\DlgToolbar.cpp

; 1899 : 			arCheck.Add(m_pToolBtn[nKeyIdx]->GetToggle());

  00111	8b 8c 8e a8 00
	00 00		 mov	 ecx, DWORD PTR [esi+ecx*4+168]
  00118	e8 00 00 00 00	 call	 ?GetToggle@CChartToolBtn@@QAEHXZ ; CChartToolBtn::GetToggle
  0011d	89 45 08	 mov	 DWORD PTR _newElement$1$[ebp], eax
; File C:\Program Files (x86)\Microsoft Visual Studio\2019\Community\VC\Tools\MSVC\14.29.30133\atlmfc\include\afxtempl.h

; 333  : 	{ INT_PTR nIndex = m_nSize;

  00120	8b 45 10	 mov	 eax, DWORD PTR _arCheck$[ebp]
  00123	8b 58 08	 mov	 ebx, DWORD PTR [eax+8]

; 538  : 	if(nIndex < 0)

  00126	85 db		 test	 ebx, ebx
  00128	0f 88 e1 00 00
	00		 js	 $LN53@GetIndexAr

; 539  : 		AfxThrowInvalidArgException();
; 540  : 
; 541  : 	if (nIndex >= m_nSize)
; 542  : 		SetSize(nIndex+1, -1);

  0012e	6a ff		 push	 -1
  00130	8d 4b 01	 lea	 ecx, DWORD PTR [ebx+1]
  00133	51		 push	 ecx
  00134	8b c8		 mov	 ecx, eax
  00136	e8 00 00 00 00	 call	 ?SetSize@?$CArray@HH@@QAEXHH@Z ; CArray<int,int>::SetSize

; 543  : 	m_pData[nIndex] = newElement;

  0013b	8b 4d 10	 mov	 ecx, DWORD PTR _arCheck$[ebp]
; File D:\git\src\IBK\IBK_DRFN\ProjSrc\SrcDrfn\Chart\MULTICHART\DlgToolbar.cpp

; 1895 : 		for(int i = 0; i < m_arrayAnalIdx.GetSize(); i++)

  0013e	47		 inc	 edi
; File C:\Program Files (x86)\Microsoft Visual Studio\2019\Community\VC\Tools\MSVC\14.29.30133\atlmfc\include\afxtempl.h

; 543  : 	m_pData[nIndex] = newElement;

  0013f	8b 41 04	 mov	 eax, DWORD PTR [ecx+4]
  00142	8b 4d 08	 mov	 ecx, DWORD PTR _newElement$1$[ebp]
  00145	89 0c 98	 mov	 DWORD PTR [eax+ebx*4], ecx
; File D:\git\src\IBK\IBK_DRFN\ProjSrc\SrcDrfn\Chart\MULTICHART\DlgToolbar.cpp

; 1895 : 		for(int i = 0; i < m_arrayAnalIdx.GetSize(); i++)

  00148	8b 86 dc 02 00
	00		 mov	 eax, DWORD PTR [esi+732]
  0014e	3b f8		 cmp	 edi, eax
  00150	0f 8c 7a ff ff
	ff		 jl	 $LL7@GetIndexAr

; 1915 : }

  00156	5f		 pop	 edi
  00157	5e		 pop	 esi
  00158	b8 01 00 00 00	 mov	 eax, 1
  0015d	5b		 pop	 ebx
  0015e	5d		 pop	 ebp
  0015f	c2 0c 00	 ret	 12			; 0000000cH
$LN13@GetIndexAr:

; 1900 : 		}
; 1901 : 		return TRUE;
; 1902 : 	}
; 1903 : 	else if(nSelTool == 2)

  00162	83 f8 02	 cmp	 eax, 2
  00165	0f 85 9b 00 00
	00		 jne	 $LN15@GetIndexAr

; 1905 : 		for(int i = 0; i < m_arrayAdditionIdx.GetSize(); i++)

  0016b	8b 86 f0 02 00
	00		 mov	 eax, DWORD PTR [esi+752]
  00171	33 ff		 xor	 edi, edi
  00173	85 c0		 test	 eax, eax
  00175	0f 8e 2e ff ff
	ff		 jle	 $LN9@GetIndexAr
  0017b	0f 1f 44 00 00	 npad	 5
$LL10@GetIndexAr:
; File C:\Program Files (x86)\Microsoft Visual Studio\2019\Community\VC\Tools\MSVC\14.29.30133\atlmfc\include\afxtempl.h

; 288  : 	if(nIndex >= 0 && nIndex < m_nSize)

  00180	85 ff		 test	 edi, edi
  00182	0f 88 87 00 00
	00		 js	 $LN53@GetIndexAr
  00188	3b f8		 cmp	 edi, eax
  0018a	0f 8d 7f 00 00
	00		 jge	 $LN53@GetIndexAr

; 333  : 	{ INT_PTR nIndex = m_nSize;

  00190	8b 4d 0c	 mov	 ecx, DWORD PTR _arIndx$[ebp]
; File D:\git\src\IBK\IBK_DRFN\ProjSrc\SrcDrfn\Chart\MULTICHART\DlgToolbar.cpp

; 1907 : 			nKeyIdx = m_arrayAdditionIdx.GetAt(i);

  00193	8b 86 ec 02 00
	00		 mov	 eax, DWORD PTR [esi+748]
; File C:\Program Files (x86)\Microsoft Visual Studio\2019\Community\VC\Tools\MSVC\14.29.30133\atlmfc\include\afxtempl.h

; 333  : 	{ INT_PTR nIndex = m_nSize;

  00199	8b 59 08	 mov	 ebx, DWORD PTR [ecx+8]
; File D:\git\src\IBK\IBK_DRFN\ProjSrc\SrcDrfn\Chart\MULTICHART\DlgToolbar.cpp

; 1907 : 			nKeyIdx = m_arrayAdditionIdx.GetAt(i);

  0019c	8b 04 b8	 mov	 eax, DWORD PTR [eax+edi*4]
  0019f	89 45 08	 mov	 DWORD PTR _nKeyIdx$3$[ebp], eax
; File C:\Program Files (x86)\Microsoft Visual Studio\2019\Community\VC\Tools\MSVC\14.29.30133\atlmfc\include\afxtempl.h

; 538  : 	if(nIndex < 0)

  001a2	85 db		 test	 ebx, ebx
  001a4	78 69		 js	 SHORT $LN53@GetIndexAr

; 539  : 		AfxThrowInvalidArgException();
; 540  : 
; 541  : 	if (nIndex >= m_nSize)
; 542  : 		SetSize(nIndex+1, -1);

  001a6	6a ff		 push	 -1
  001a8	8d 43 01	 lea	 eax, DWORD PTR [ebx+1]
  001ab	50		 push	 eax
  001ac	e8 00 00 00 00	 call	 ?SetSize@?$CArray@HH@@QAEXHH@Z ; CArray<int,int>::SetSize

; 543  : 	m_pData[nIndex] = newElement;

  001b1	8b 4d 0c	 mov	 ecx, DWORD PTR _arIndx$[ebp]
  001b4	8b 41 04	 mov	 eax, DWORD PTR [ecx+4]
  001b7	8b 4d 08	 mov	 ecx, DWORD PTR _nKeyIdx$3$[ebp]
  001ba	89 0c 98	 mov	 DWORD PTR [eax+ebx*4], ecx
; File D:\git\src\IBK\IBK_DRFN\ProjSrc\SrcDrfn\Chart\MULTICHART\DlgToolbar.cpp

; 1909 : 			arCheck.Add(m_pToolBtn[nKeyIdx]->GetToggle());

  001bd	8b 8c 8e a8 00
	00 00		 mov	 ecx, DWORD PTR [esi+ecx*4+168]
  001c4	e8 00 00 00 00	 call	 ?GetToggle@CChartToolBtn@@QAEHXZ ; CChartToolBtn::GetToggle
  001c9	89 45 08	 mov	 DWORD PTR _newElement$1$[ebp], eax
; File C:\Program Files (x86)\Microsoft Visual Studio\2019\Community\VC\Tools\MSVC\14.29.30133\atlmfc\include\afxtempl.h

; 333  : 	{ INT_PTR nIndex = m_nSize;

  001cc	8b 45 10	 mov	 eax, DWORD PTR _arCheck$[ebp]
  001cf	8b 58 08	 mov	 ebx, DWORD PTR [eax+8]

; 538  : 	if(nIndex < 0)

  001d2	85 db		 test	 ebx, ebx
  001d4	78 39		 js	 SHORT $LN53@GetIndexAr

; 539  : 		AfxThrowInvalidArgException();
; 540  : 
; 541  : 	if (nIndex >= m_nSize)
; 542  : 		SetSize(nIndex+1, -1);

  001d6	6a ff		 push	 -1
  001d8	8d 4b 01	 lea	 ecx, DWORD PTR [ebx+1]
  001db	51		 push	 ecx
  001dc	8b c8		 mov	 ecx, eax
  001de	e8 00 00 00 00	 call	 ?SetSize@?$CArray@HH@@QAEXHH@Z ; CArray<int,int>::SetSize

; 543  : 	m_pData[nIndex] = newElement;

  001e3	8b 4d 10	 mov	 ecx, DWORD PTR _arCheck$[ebp]
; File D:\git\src\IBK\IBK_DRFN\ProjSrc\SrcDrfn\Chart\MULTICHART\DlgToolbar.cpp

; 1905 : 		for(int i = 0; i < m_arrayAdditionIdx.GetSize(); i++)

  001e6	47		 inc	 edi
; File C:\Program Files (x86)\Microsoft Visual Studio\2019\Community\VC\Tools\MSVC\14.29.30133\atlmfc\include\afxtempl.h

; 543  : 	m_pData[nIndex] = newElement;

  001e7	8b 41 04	 mov	 eax, DWORD PTR [ecx+4]
  001ea	8b 4d 08	 mov	 ecx, DWORD PTR _newElement$1$[ebp]
  001ed	89 0c 98	 mov	 DWORD PTR [eax+ebx*4], ecx
; File D:\git\src\IBK\IBK_DRFN\ProjSrc\SrcDrfn\Chart\MULTICHART\DlgToolbar.cpp

; 1905 : 		for(int i = 0; i < m_arrayAdditionIdx.GetSize(); i++)

  001f0	8b 86 f0 02 00
	00		 mov	 eax, DWORD PTR [esi+752]
  001f6	3b f8		 cmp	 edi, eax
  001f8	7c 86		 jl	 SHORT $LL10@GetIndexAr

; 1915 : }

  001fa	5f		 pop	 edi
  001fb	5e		 pop	 esi
  001fc	b8 01 00 00 00	 mov	 eax, 1
  00201	5b		 pop	 ebx
  00202	5d		 pop	 ebp
  00203	c2 0c 00	 ret	 12			; 0000000cH
$LN15@GetIndexAr:
  00206	5f		 pop	 edi
  00207	5e		 pop	 esi
  00208	33 c0		 xor	 eax, eax
  0020a	5b		 pop	 ebx
  0020b	5d		 pop	 ebp
  0020c	c2 0c 00	 ret	 12			; 0000000cH
$LN53@GetIndexAr:
; File C:\Program Files (x86)\Microsoft Visual Studio\2019\Community\VC\Tools\MSVC\14.29.30133\atlmfc\include\afxtempl.h

; 290  : 	AfxThrowInvalidArgException();

  0020f	e8 00 00 00 00	 call	 ?AfxThrowInvalidArgException@@YGXXZ ; AfxThrowInvalidArgException
$LN87@GetIndexAr:
  00214	cc		 int	 3
?GetIndexArray@CDlgToolbar@@QAEHHAAV?$CArray@HH@@0@Z ENDP ; CDlgToolbar::GetIndexArray
_TEXT	ENDS
; Function compile flags: /Ogtp
; File D:\git\src\IBK\IBK_DRFN\ProjSrc\SrcDrfn\Chart\MULTICHART\DlgToolbar.cpp
; File C:\Program Files (x86)\Microsoft Visual Studio\2019\Community\VC\Tools\MSVC\14.29.30133\atlmfc\include\afxwin2.inl
; File D:\git\src\IBK\IBK_DRFN\ProjSrc\SrcDrfn\Chart\MULTICHART\DlgToolbar.cpp
; File C:\Program Files (x86)\Microsoft Visual Studio\2019\Community\VC\Tools\MSVC\14.29.30133\atlmfc\include\afxwin2.inl
; File D:\git\src\IBK\IBK_DRFN\ProjSrc\SrcDrfn\Chart\MULTICHART\DlgToolbar.cpp
;	COMDAT ?SetToggleButton@CDlgToolbar@@QAEXHH@Z
_TEXT	SEGMENT
_nSelToolNo$ = 8					; size = 4
_bSelect$ = 12						; size = 4
?SetToggleButton@CDlgToolbar@@QAEXHH@Z PROC		; CDlgToolbar::SetToggleButton, COMDAT
; _this$ = ecx

; 1770 : {

  00000	55		 push	 ebp
  00001	8b ec		 mov	 ebp, esp

; 1771 : 	int nID = -1;
; 1772 : 	if(nSelToolNo > 50000)

  00003	8b 45 08	 mov	 eax, DWORD PTR _nSelToolNo$[ebp]
  00006	57		 push	 edi
  00007	8b 7d 0c	 mov	 edi, DWORD PTR _bSelect$[ebp]
  0000a	3d 50 c3 00 00	 cmp	 eax, 50000		; 0000c350H
  0000f	7e 29		 jle	 SHORT $LN4@SetToggleB

; 1773 : 	{
; 1774 : 		nID = nSelToolNo - 50000;

  00011	05 b0 3c ff ff	 add	 eax, -50000		; ffff3cb0H

; 1775 : 		if(nID == 40)

  00016	83 f8 28	 cmp	 eax, 40			; 00000028H
  00019	75 0b		 jne	 SHORT $LN6@SetToggleB

; 1776 : 		{
; 1777 : 			m_bShowScale = bSelect;

  0001b	89 b9 b0 02 00
	00		 mov	 DWORD PTR [ecx+688], edi

; 1778 : 		}

  00021	e9 d3 01 00 00	 jmp	 $LN66@SetToggleB
$LN6@SetToggleB:

; 1779 : 		else if(nID == 41)

  00026	83 f8 29	 cmp	 eax, 41			; 00000029H
  00029	0f 85 ca 01 00
	00		 jne	 $LN66@SetToggleB

; 1780 : 		{
; 1781 : 			m_bShowInnerToolbar = bSelect;

  0002f	89 b9 b8 02 00
	00		 mov	 DWORD PTR [ecx+696], edi

; 1782 : 		}
; 1783 : 	}

  00035	e9 bf 01 00 00	 jmp	 $LN66@SetToggleB
$LN4@SetToggleB:

; 1784 : 	else
; 1785 : 	{
; 1786 : 		switch(nSelToolNo)

  0003a	83 c0 fd	 add	 eax, -3			; fffffffdH
  0003d	83 f8 73	 cmp	 eax, 115		; 00000073H
  00040	0f 87 13 02 00
	00		 ja	 $LN60@SetToggleB
  00046	0f b6 80 00 00
	00 00		 movzx	 eax, BYTE PTR $LN67@SetToggleB[eax]
  0004d	ff 24 85 00 00
	00 00		 jmp	 DWORD PTR $LN68@SetToggleB[eax*4]
$LN9@SetToggleB:

; 1787 : 		{
; 1788 : 		case CToolOptionInfo::TOOLOPTION::T_SYMBOL_BULET			:nID= 4; break;	//  

  00054	b8 04 00 00 00	 mov	 eax, 4
  00059	e9 9b 01 00 00	 jmp	 $LN66@SetToggleB
$LN10@SetToggleB:

; 1789 : 		case CToolOptionInfo::TOOLOPTION::T_TOOL_LINE_CROSS			:nID= 5; break;	//                                                

  0005e	b8 05 00 00 00	 mov	 eax, 5
  00063	e9 91 01 00 00	 jmp	 $LN66@SetToggleB
$LN11@SetToggleB:

; 1790 : 		case CToolOptionInfo::TOOLOPTION::T_TOOL_LINE_HORZ			:nID= 6; break;	//                                                  

  00068	b8 06 00 00 00	 mov	 eax, 6
  0006d	e9 87 01 00 00	 jmp	 $LN66@SetToggleB
$LN12@SetToggleB:

; 1791 : 		case CToolOptionInfo::TOOLOPTION::T_TOOL_LINE_VERT			:nID= 7; break;	//                                                  

  00072	b8 07 00 00 00	 mov	 eax, 7
  00077	e9 7d 01 00 00	 jmp	 $LN66@SetToggleB
$LN13@SetToggleB:

; 1792 : 		case CToolOptionInfo::TOOLOPTION::T_TOOL_LINE				:nID= 8; break;//                                                  

  0007c	b8 08 00 00 00	 mov	 eax, 8
  00081	e9 73 01 00 00	 jmp	 $LN66@SetToggleB
$LN14@SetToggleB:

; 1793 : 		case CToolOptionInfo::TOOLOPTION::T_TOOL_PENCIL_LINE		:nID= 9; break;	//                                            

  00086	b8 09 00 00 00	 mov	 eax, 9
  0008b	e9 69 01 00 00	 jmp	 $LN66@SetToggleB
$LN15@SetToggleB:

; 1794 : 		case CToolOptionInfo::TOOLOPTION::T_TOOL_ELLIOT_WAVE_LINE	:nID=10; break;//                                            

  00090	b8 0a 00 00 00	 mov	 eax, 10			; 0000000aH
  00095	e9 5f 01 00 00	 jmp	 $LN66@SetToggleB
$LN16@SetToggleB:

; 1795 : 		case CToolOptionInfo::TOOLOPTION::T_SYMBOL_SQUARE			:nID=11; break;//                                                  

  0009a	b8 0b 00 00 00	 mov	 eax, 11			; 0000000bH
  0009f	e9 55 01 00 00	 jmp	 $LN66@SetToggleB
$LN17@SetToggleB:

; 1796 : 		case CToolOptionInfo::TOOLOPTION::T_SYMBOL_CIRCLE			:nID=12; break;//                                                  

  000a4	b8 0c 00 00 00	 mov	 eax, 12			; 0000000cH
  000a9	e9 4b 01 00 00	 jmp	 $LN66@SetToggleB
$LN18@SetToggleB:

; 1797 : 		case CToolOptionInfo::TOOLOPTION::T_SYMBOL_TEXT				:nID=13; break;	//                                                

  000ae	b8 0d 00 00 00	 mov	 eax, 13			; 0000000dH
  000b3	e9 41 01 00 00	 jmp	 $LN66@SetToggleB
$LN19@SetToggleB:

; 1798 : 		case CToolOptionInfo::TOOLOPTION::T_TOOL_ANDREWS_PITCHFORK	:nID=14; break;	//                                            

  000b8	b8 0e 00 00 00	 mov	 eax, 14			; 0000000eH
  000bd	e9 37 01 00 00	 jmp	 $LN66@SetToggleB
$LN20@SetToggleB:

; 1799 : 		case CToolOptionInfo::TOOLOPTION::T_TOOL_FIBO_RETRACE		:nID=15; break;//                                                  

  000c2	b8 0f 00 00 00	 mov	 eax, 15			; 0000000fH
  000c7	e9 2d 01 00 00	 jmp	 $LN66@SetToggleB
$LN21@SetToggleB:

; 1800 : 		case CToolOptionInfo::TOOLOPTION::T_TOOL_SPEED_FAN			:nID=16; break;	//                                                  

  000cc	b8 10 00 00 00	 mov	 eax, 16			; 00000010H
  000d1	e9 23 01 00 00	 jmp	 $LN66@SetToggleB
$LN22@SetToggleB:

; 1801 : 		case CToolOptionInfo::TOOLOPTION::T_TOOL_FIBONACCI_TIME		:nID=17; break;	//                                          

  000d6	b8 11 00 00 00	 mov	 eax, 17			; 00000011H
  000db	e9 19 01 00 00	 jmp	 $LN66@SetToggleB
$LN23@SetToggleB:

; 1802 : 		case CToolOptionInfo::TOOLOPTION::T_TOOL_FIBONACCI_ARC		:nID=18; break;	//                                                  

  000e0	b8 12 00 00 00	 mov	 eax, 18			; 00000012H
  000e5	e9 0f 01 00 00	 jmp	 $LN66@SetToggleB
$LN24@SetToggleB:

; 1803 : 		case CToolOptionInfo::TOOLOPTION::T_TOOL_FIBONACCI_FAN		:nID=19; break;	//                                                

  000ea	b8 13 00 00 00	 mov	 eax, 19			; 00000013H
  000ef	e9 05 01 00 00	 jmp	 $LN66@SetToggleB
$LN25@SetToggleB:

; 1804 : 		case CToolOptionInfo::TOOLOPTION::T_TOOL_GANN_LINE45		:nID=20; break;//                                                  

  000f4	b8 14 00 00 00	 mov	 eax, 20			; 00000014H
  000f9	e9 fb 00 00 00	 jmp	 $LN66@SetToggleB
$LN26@SetToggleB:

; 1805 : 		case CToolOptionInfo::TOOLOPTION::T_DELETE_INORDER			:nID=21; break;//                                                

  000fe	b8 15 00 00 00	 mov	 eax, 21			; 00000015H
  00103	e9 f1 00 00 00	 jmp	 $LN66@SetToggleB
$LN27@SetToggleB:

; 1806 : 		case CToolOptionInfo::TOOLOPTION::T_DELETE_ALL				:nID=22; break;	//  

  00108	b8 16 00 00 00	 mov	 eax, 22			; 00000016H
  0010d	e9 e7 00 00 00	 jmp	 $LN66@SetToggleB
$LN28@SetToggleB:

; 1807 : 		case CToolOptionInfo::TOOLOPTION::T_RESTORE					:nID=23; break;	//  

  00112	b8 17 00 00 00	 mov	 eax, 23			; 00000017H
  00117	e9 dd 00 00 00	 jmp	 $LN66@SetToggleB
$LN29@SetToggleB:

; 1808 : 			//	case CToolOptionInfo::TOOLOPTION::T_TOOL_SELECTION			:nID=24; break;	//                                          
; 1809 : 			//	case CToolOptionInfo::TOOLOPTION::T_TOOL_SELECTION			:nID=25; break;	//                                            
; 1810 : 			//	case CToolOptionInfo::TOOLOPTION::T_TOOL_SELECTION			:nID=26; break;	//                                                  
; 1811 : 		case CToolOptionInfo::TOOLOPTION::T_PRICE_YSCALE_SETUP		:nID=27; break;	// Y                                                 

  0011c	b8 1b 00 00 00	 mov	 eax, 27			; 0000001bH
  00121	e9 d3 00 00 00	 jmp	 $LN66@SetToggleB
$LN30@SetToggleB:

; 1812 : 		case CToolOptionInfo::TOOLOPTION::T_NIDLG_OVER				:nID=28; break;	//                                                  

  00126	b8 1c 00 00 00	 mov	 eax, 28			; 0000001cH
  0012b	e9 c9 00 00 00	 jmp	 $LN66@SetToggleB
$LN31@SetToggleB:

; 1813 : 		case CToolOptionInfo::TOOLOPTION::T_TOOL_TRACEING_TT		:nID=29; break;//                                                  

  00130	b8 1d 00 00 00	 mov	 eax, 29			; 0000001dH
  00135	e9 bf 00 00 00	 jmp	 $LN66@SetToggleB
$LN32@SetToggleB:

; 1814 : 		case CToolOptionInfo::TOOLOPTION::T_TOOL_PERIOD_SUMMARY		:nID=30; break;	//                                              

  0013a	b8 1e 00 00 00	 mov	 eax, 30			; 0000001eH
  0013f	e9 b5 00 00 00	 jmp	 $LN66@SetToggleB
$LN33@SetToggleB:

; 1815 : 			//	case CToolOptionInfo::TOOLOPTION::T_TOOL_SELECTION			:nID=31; break;	// 
; 1816 : 			//	case CToolOptionInfo::TOOLOPTION::T_TOOL_SELECTION			:nID=32; break;	// 
; 1817 : 			//	case CToolOptionInfo::TOOLOPTION::T_TOOL_SELECTION			:nID=33; break;	// 
; 1818 : 			//	case CToolOptionInfo::TOOLOPTION::T_TOOL_SELECTION			:nID=34; break;	//  
; 1819 : 			//	case CToolOptionInfo::TOOLOPTION::T_TOOL_SELECTION			:nID=35; break;	// 
; 1820 : 			//	case CToolOptionInfo::TOOLOPTION::T_TOOL_SELECTION			:nID=36; break;	// 
; 1821 : 			//	case CToolOptionInfo::TOOLOPTION::T_TOOL_SELECTION			:nID=37; break;	// 
; 1822 : 		case CToolOptionInfo::TOOLOPTION::T_PRINT_CHART				:nID=38; break;	// 

  00144	b8 26 00 00 00	 mov	 eax, 38			; 00000026H
  00149	e9 ab 00 00 00	 jmp	 $LN66@SetToggleB
$LN34@SetToggleB:

; 1823 : 			//	case CToolOptionInfo::TOOLOPTION::T_TOOL_SELECTION			:nID=39; break;	// Excel
; 1824 : 			//	case CToolOptionInfo::TOOLOPTION::T_TOOL_SELECTION			:nID=40; break;	// 
; 1825 : 			//	case CToolOptionInfo::TOOLOPTION::T_TOOL_SELECTION			:nID=41; break;	// 
; 1826 : 			//	case CToolOptionInfo::TOOLOPTION::T_TOOL_SELECTION			:nID=42; break;	// 
; 1827 : 			//	case CToolOptionInfo::TOOLOPTION::T_TOOL_SELECTION			:nID=43; break;	// 
; 1828 : 		case CToolOptionInfo::TOOLOPTION::T_DATALIST_REPORT			:nID=44; break;	// 

  0014e	b8 2c 00 00 00	 mov	 eax, 44			; 0000002cH
  00153	e9 a1 00 00 00	 jmp	 $LN66@SetToggleB
$LN35@SetToggleB:

; 1829 : 			//	case CToolOptionInfo::TOOLOPTION::T_TOOL_SELECTION			:nID=45; break;	// 
; 1830 : 		case CToolOptionInfo::TOOLOPTION::T_ORDER_LINE				:nID=46; break;	// 

  00158	b8 2e 00 00 00	 mov	 eax, 46			; 0000002eH
  0015d	e9 97 00 00 00	 jmp	 $LN66@SetToggleB
$LN36@SetToggleB:

; 1831 : 		case CToolOptionInfo::TOOLOPTION::T_TOOL_GANN_FAN45			:nID=47; break;	// 

  00162	b8 2f 00 00 00	 mov	 eax, 47			; 0000002fH
  00167	e9 8d 00 00 00	 jmp	 $LN66@SetToggleB
$LN37@SetToggleB:

; 1832 : 		case CToolOptionInfo::TOOLOPTION::T_TOOL_GANN_FAN315		:nID=48; break;// 

  0016c	b8 30 00 00 00	 mov	 eax, 48			; 00000030H
  00171	e9 83 00 00 00	 jmp	 $LN66@SetToggleB
$LN38@SetToggleB:

; 1833 : 		case CToolOptionInfo::TOOLOPTION::T_TOOL_ANGLE_LINE			:nID=49; break;	// 

  00176	b8 31 00 00 00	 mov	 eax, 49			; 00000031H
  0017b	eb 7c		 jmp	 SHORT $LN66@SetToggleB
$LN39@SetToggleB:

; 1834 : 		case CToolOptionInfo::TOOLOPTION::T_SYMBOL_TRIANGLE			:nID=50; break;	// 

  0017d	b8 32 00 00 00	 mov	 eax, 50			; 00000032H
  00182	eb 75		 jmp	 SHORT $LN66@SetToggleB
$LN40@SetToggleB:

; 1835 : 		case CToolOptionInfo::TOOLOPTION::T_TOOL_GANN_GRID			:nID=51; break;	// 

  00184	b8 33 00 00 00	 mov	 eax, 51			; 00000033H
  00189	eb 6e		 jmp	 SHORT $LN66@SetToggleB
$LN41@SetToggleB:

; 1836 : 		case CToolOptionInfo::TOOLOPTION::T_TOOL_SPEED_ARC			:nID=52; break;	// 

  0018b	b8 34 00 00 00	 mov	 eax, 52			; 00000034H
  00190	eb 67		 jmp	 SHORT $LN66@SetToggleB
$LN42@SetToggleB:

; 1837 : 		case CToolOptionInfo::TOOLOPTION::T_TOOL_SPEED_LINE			:nID=53; break;	// 

  00192	b8 35 00 00 00	 mov	 eax, 53			; 00000035H
  00197	eb 60		 jmp	 SHORT $LN66@SetToggleB
$LN43@SetToggleB:

; 1838 : 		case CToolOptionInfo::TOOLOPTION::T_TOOL_LINE_TRISECT		:nID=54; break;// 

  00199	b8 36 00 00 00	 mov	 eax, 54			; 00000036H
  0019e	eb 59		 jmp	 SHORT $LN66@SetToggleB
$LN44@SetToggleB:

; 1839 : 		case CToolOptionInfo::TOOLOPTION::T_TOOL_LINE_QUARTER		:nID=55; break;// 

  001a0	b8 37 00 00 00	 mov	 eax, 55			; 00000037H
  001a5	eb 52		 jmp	 SHORT $LN66@SetToggleB
$LN45@SetToggleB:

; 1840 : 		case CToolOptionInfo::TOOLOPTION::T_TOOL_CYCLE_LINES		:nID=56; break;// 

  001a7	b8 38 00 00 00	 mov	 eax, 56			; 00000038H
  001ac	eb 4b		 jmp	 SHORT $LN66@SetToggleB
$LN46@SetToggleB:

; 1841 : 		case CToolOptionInfo::TOOLOPTION::T_TOOL_ADJUST_RATIO		:nID=57; break;// 

  001ae	b8 39 00 00 00	 mov	 eax, 57			; 00000039H
  001b3	eb 44		 jmp	 SHORT $LN66@SetToggleB
$LN47@SetToggleB:

; 1842 : 		case CToolOptionInfo::TOOLOPTION::T_TOOL_LINEAR_REGRESSION	:nID=58; break;	// 

  001b5	b8 3a 00 00 00	 mov	 eax, 58			; 0000003aH
  001ba	eb 3d		 jmp	 SHORT $LN66@SetToggleB
$LN48@SetToggleB:

; 1843 : 		case CToolOptionInfo::TOOLOPTION::T_TOOL_RAFF_REGRESSION	:nID=59; break;// 

  001bc	b8 3b 00 00 00	 mov	 eax, 59			; 0000003bH
  001c1	eb 36		 jmp	 SHORT $LN66@SetToggleB
$LN49@SetToggleB:

; 1844 : 		case CToolOptionInfo::TOOLOPTION::T_DRAG_Y_ZOOM				:nID=60; break;	// Y

  001c3	b8 3c 00 00 00	 mov	 eax, 60			; 0000003cH
  001c8	eb 2f		 jmp	 SHORT $LN66@SetToggleB
$LN50@SetToggleB:

; 1845 : 			//	case CToolOptionInfo::TOOLOPTION::T_TOOL_SELECTION			:nID=61; break;	// 
; 1846 : 			//	case CToolOptionInfo::TOOLOPTION::T_TOOL_SELECTION			:nID=62; break;	// 
; 1847 : 		case CToolOptionInfo::TOOLOPTION::T_TOOL_CANDLE_LINE		:nID=63; break;// 

  001ca	b8 3f 00 00 00	 mov	 eax, 63			; 0000003fH
  001cf	eb 28		 jmp	 SHORT $LN66@SetToggleB
$LN51@SetToggleB:

; 1848 : 		case CToolOptionInfo::TOOLOPTION::T_TOOL_CANDLE_BONG		:nID=64; break;// 

  001d1	b8 40 00 00 00	 mov	 eax, 64			; 00000040H
  001d6	eb 21		 jmp	 SHORT $LN66@SetToggleB
$LN52@SetToggleB:

; 1849 : 			//	case CToolOptionInfo::TOOLOPTION::T_TOOL_SELECTION			:nID=65; break;	// 
; 1850 : 			//	case CToolOptionInfo::TOOLOPTION::T_TOOL_SELECTION			:nID=66; break;	// 
; 1851 : 			//	case CToolOptionInfo::TOOLOPTION::T_TOOL_SELECTION			:nID=67; break;	// 
; 1852 : 			//	case CToolOptionInfo::TOOLOPTION::T_TOOL_SELECTION			:nID=68; break;	// 
; 1853 : 			//	case CToolOptionInfo::TOOLOPTION::T_TOOL_SELECTION			:nID=69; break;	// Excel
; 1854 : 		case CToolOptionInfo::TOOLOPTION::T_UNDO_WORK				:nID=70; break;// Undo

  001d8	b8 46 00 00 00	 mov	 eax, 70			; 00000046H
  001dd	eb 1a		 jmp	 SHORT $LN66@SetToggleB
$LN53@SetToggleB:

; 1855 : 		case CToolOptionInfo::TOOLOPTION::T_REDO_WORK				:nID=71; break;// Redo

  001df	b8 47 00 00 00	 mov	 eax, 71			; 00000047H
  001e4	eb 13		 jmp	 SHORT $LN66@SetToggleB
$LN54@SetToggleB:

; 1856 : 		case CToolOptionInfo::TOOLOPTION::T_ORDER_LINE_MANAGER		:nID=72; break;// 

  001e6	b8 48 00 00 00	 mov	 eax, 72			; 00000048H
  001eb	eb 0c		 jmp	 SHORT $LN66@SetToggleB
$LN55@SetToggleB:

; 1857 : 		case CToolOptionInfo::TOOLOPTION::T_MAGNIFYINGGLASS			:nID=73; break;// 

  001ed	b8 49 00 00 00	 mov	 eax, 73			; 00000049H
  001f2	eb 05		 jmp	 SHORT $LN66@SetToggleB
$LN56@SetToggleB:

; 1858 : 		case CToolOptionInfo::TOOLOPTION::T_TOOL_BALANCE_BASIC		:nID=74; break;	// 			// 2014.09.24  : 0010862: [7111]    []  IBK   

  001f4	b8 4a 00 00 00	 mov	 eax, 74			; 0000004aH
$LN66@SetToggleB:
  001f9	56		 push	 esi

; 1859 : 		}
; 1860 : 	}
; 1861 : 	if(nID<0)
; 1862 : 		return;
; 1863 : //	m_pToolBtn[nID]->SetToggleBtnFromOutside();
; 1864 : 	if(m_pToolBtn[nID])

  001fa	8d 34 81	 lea	 esi, DWORD PTR [ecx+eax*4]
  001fd	8b 86 a8 00 00
	00		 mov	 eax, DWORD PTR [esi+168]
  00203	85 c0		 test	 eax, eax
  00205	74 51		 je	 SHORT $LN69@SetToggleB

; 1865 : 	{
; 1866 : 		if (m_pToolBtn[nID]->m_nCurrToggle == 1 && bSelect == 0)

  00207	83 b8 18 01 00
	00 01		 cmp	 DWORD PTR [eax+280], 1
  0020e	75 22		 jne	 SHORT $LN59@SetToggleB
  00210	85 ff		 test	 edi, edi
  00212	75 1e		 jne	 SHORT $LN59@SetToggleB

; 1867 : 		{
; 1868 : 			m_pToolBtn[nID]->m_nCurrToggle = 0;

  00214	89 b8 18 01 00
	00		 mov	 DWORD PTR [eax+280], edi
; File C:\Program Files (x86)\Microsoft Visual Studio\2019\Community\VC\Tools\MSVC\14.29.30133\atlmfc\include\afxwin2.inl

; 116  : 	{ ASSERT(::IsWindow(m_hWnd)); ::InvalidateRect(m_hWnd, lpRect, bErase); }

  0021a	8b 86 a8 00 00
	00		 mov	 eax, DWORD PTR [esi+168]
  00220	6a 01		 push	 1
  00222	57		 push	 edi
  00223	ff 70 20	 push	 DWORD PTR [eax+32]
  00226	ff 15 00 00 00
	00		 call	 DWORD PTR __imp__InvalidateRect@12
  0022c	8b 86 a8 00 00
	00		 mov	 eax, DWORD PTR [esi+168]
$LN59@SetToggleB:
; File D:\git\src\IBK\IBK_DRFN\ProjSrc\SrcDrfn\Chart\MULTICHART\DlgToolbar.cpp

; 1871 : 		if (m_pToolBtn[nID]->m_nCurrToggle == 0 && bSelect == 1)

  00232	83 b8 18 01 00
	00 00		 cmp	 DWORD PTR [eax+280], 0
  00239	75 1d		 jne	 SHORT $LN69@SetToggleB
  0023b	83 ff 01	 cmp	 edi, 1
  0023e	75 18		 jne	 SHORT $LN69@SetToggleB

; 1872 : 		{
; 1873 : 			m_pToolBtn[nID]->m_nCurrToggle = 1;

  00240	89 b8 18 01 00
	00		 mov	 DWORD PTR [eax+280], edi
; File C:\Program Files (x86)\Microsoft Visual Studio\2019\Community\VC\Tools\MSVC\14.29.30133\atlmfc\include\afxwin2.inl

; 116  : 	{ ASSERT(::IsWindow(m_hWnd)); ::InvalidateRect(m_hWnd, lpRect, bErase); }

  00246	8b 86 a8 00 00
	00		 mov	 eax, DWORD PTR [esi+168]
  0024c	57		 push	 edi
  0024d	6a 00		 push	 0
  0024f	ff 70 20	 push	 DWORD PTR [eax+32]
  00252	ff 15 00 00 00
	00		 call	 DWORD PTR __imp__InvalidateRect@12
$LN69@SetToggleB:
  00258	5e		 pop	 esi
$LN60@SetToggleB:
  00259	5f		 pop	 edi
; File D:\git\src\IBK\IBK_DRFN\ProjSrc\SrcDrfn\Chart\MULTICHART\DlgToolbar.cpp

; 1877 : }

  0025a	5d		 pop	 ebp
  0025b	c2 08 00	 ret	 8
  0025e	66 90		 npad	 2
$LN68@SetToggleB:
  00260	00 00 00 00	 DD	 $LN34@SetToggleB
  00264	00 00 00 00	 DD	 $LN28@SetToggleB
  00268	00 00 00 00	 DD	 $LN9@SetToggleB
  0026c	00 00 00 00	 DD	 $LN16@SetToggleB
  00270	00 00 00 00	 DD	 $LN17@SetToggleB
  00274	00 00 00 00	 DD	 $LN39@SetToggleB
  00278	00 00 00 00	 DD	 $LN18@SetToggleB
  0027c	00 00 00 00	 DD	 $LN13@SetToggleB
  00280	00 00 00 00	 DD	 $LN12@SetToggleB
  00284	00 00 00 00	 DD	 $LN11@SetToggleB
  00288	00 00 00 00	 DD	 $LN43@SetToggleB
  0028c	00 00 00 00	 DD	 $LN44@SetToggleB
  00290	00 00 00 00	 DD	 $LN23@SetToggleB
  00294	00 00 00 00	 DD	 $LN24@SetToggleB
  00298	00 00 00 00	 DD	 $LN20@SetToggleB
  0029c	00 00 00 00	 DD	 $LN22@SetToggleB
  002a0	00 00 00 00	 DD	 $LN25@SetToggleB
  002a4	00 00 00 00	 DD	 $LN36@SetToggleB
  002a8	00 00 00 00	 DD	 $LN37@SetToggleB
  002ac	00 00 00 00	 DD	 $LN40@SetToggleB
  002b0	00 00 00 00	 DD	 $LN19@SetToggleB
  002b4	00 00 00 00	 DD	 $LN15@SetToggleB
  002b8	00 00 00 00	 DD	 $LN45@SetToggleB
  002bc	00 00 00 00	 DD	 $LN42@SetToggleB
  002c0	00 00 00 00	 DD	 $LN47@SetToggleB
  002c4	00 00 00 00	 DD	 $LN48@SetToggleB
  002c8	00 00 00 00	 DD	 $LN26@SetToggleB
  002cc	00 00 00 00	 DD	 $LN27@SetToggleB
  002d0	00 00 00 00	 DD	 $LN55@SetToggleB
  002d4	00 00 00 00	 DD	 $LN10@SetToggleB
  002d8	00 00 00 00	 DD	 $LN30@SetToggleB
  002dc	00 00 00 00	 DD	 $LN21@SetToggleB
  002e0	00 00 00 00	 DD	 $LN41@SetToggleB
  002e4	00 00 00 00	 DD	 $LN38@SetToggleB
  002e8	00 00 00 00	 DD	 $LN50@SetToggleB
  002ec	00 00 00 00	 DD	 $LN51@SetToggleB
  002f0	00 00 00 00	 DD	 $LN31@SetToggleB
  002f4	00 00 00 00	 DD	 $LN46@SetToggleB
  002f8	00 00 00 00	 DD	 $LN32@SetToggleB
  002fc	00 00 00 00	 DD	 $LN29@SetToggleB
  00300	00 00 00 00	 DD	 $LN49@SetToggleB
  00304	00 00 00 00	 DD	 $LN52@SetToggleB
  00308	00 00 00 00	 DD	 $LN53@SetToggleB
  0030c	00 00 00 00	 DD	 $LN14@SetToggleB
  00310	00 00 00 00	 DD	 $LN33@SetToggleB
  00314	00 00 00 00	 DD	 $LN35@SetToggleB
  00318	00 00 00 00	 DD	 $LN54@SetToggleB
  0031c	00 00 00 00	 DD	 $LN56@SetToggleB
  00320	00 00 00 00	 DD	 $LN60@SetToggleB
$LN67@SetToggleB:
  00324	00		 DB	 0
  00325	30		 DB	 48			; 00000030H
  00326	30		 DB	 48			; 00000030H
  00327	30		 DB	 48			; 00000030H
  00328	30		 DB	 48			; 00000030H
  00329	30		 DB	 48			; 00000030H
  0032a	30		 DB	 48			; 00000030H
  0032b	30		 DB	 48			; 00000030H
  0032c	30		 DB	 48			; 00000030H
  0032d	30		 DB	 48			; 00000030H
  0032e	30		 DB	 48			; 00000030H
  0032f	30		 DB	 48			; 00000030H
  00330	30		 DB	 48			; 00000030H
  00331	30		 DB	 48			; 00000030H
  00332	30		 DB	 48			; 00000030H
  00333	01		 DB	 1
  00334	30		 DB	 48			; 00000030H
  00335	30		 DB	 48			; 00000030H
  00336	30		 DB	 48			; 00000030H
  00337	30		 DB	 48			; 00000030H
  00338	30		 DB	 48			; 00000030H
  00339	30		 DB	 48			; 00000030H
  0033a	30		 DB	 48			; 00000030H
  0033b	30		 DB	 48			; 00000030H
  0033c	02		 DB	 2
  0033d	03		 DB	 3
  0033e	04		 DB	 4
  0033f	05		 DB	 5
  00340	06		 DB	 6
  00341	30		 DB	 48			; 00000030H
  00342	30		 DB	 48			; 00000030H
  00343	07		 DB	 7
  00344	30		 DB	 48			; 00000030H
  00345	08		 DB	 8
  00346	09		 DB	 9
  00347	0a		 DB	 10			; 0000000aH
  00348	0b		 DB	 11			; 0000000bH
  00349	30		 DB	 48			; 00000030H
  0034a	0c		 DB	 12			; 0000000cH
  0034b	30		 DB	 48			; 00000030H
  0034c	0d		 DB	 13			; 0000000dH
  0034d	0e		 DB	 14			; 0000000eH
  0034e	0f		 DB	 15			; 0000000fH
  0034f	10		 DB	 16			; 00000010H
  00350	30		 DB	 48			; 00000030H
  00351	11		 DB	 17			; 00000011H
  00352	30		 DB	 48			; 00000030H
  00353	30		 DB	 48			; 00000030H
  00354	12		 DB	 18			; 00000012H
  00355	13		 DB	 19			; 00000013H
  00356	14		 DB	 20			; 00000014H
  00357	15		 DB	 21			; 00000015H
  00358	16		 DB	 22			; 00000016H
  00359	30		 DB	 48			; 00000030H
  0035a	17		 DB	 23			; 00000017H
  0035b	18		 DB	 24			; 00000018H
  0035c	19		 DB	 25			; 00000019H
  0035d	1a		 DB	 26			; 0000001aH
  0035e	1b		 DB	 27			; 0000001bH
  0035f	30		 DB	 48			; 00000030H
  00360	30		 DB	 48			; 00000030H
  00361	30		 DB	 48			; 00000030H
  00362	30		 DB	 48			; 00000030H
  00363	30		 DB	 48			; 00000030H
  00364	30		 DB	 48			; 00000030H
  00365	30		 DB	 48			; 00000030H
  00366	30		 DB	 48			; 00000030H
  00367	30		 DB	 48			; 00000030H
  00368	30		 DB	 48			; 00000030H
  00369	30		 DB	 48			; 00000030H
  0036a	30		 DB	 48			; 00000030H
  0036b	30		 DB	 48			; 00000030H
  0036c	1c		 DB	 28			; 0000001cH
  0036d	30		 DB	 48			; 00000030H
  0036e	30		 DB	 48			; 00000030H
  0036f	30		 DB	 48			; 00000030H
  00370	30		 DB	 48			; 00000030H
  00371	30		 DB	 48			; 00000030H
  00372	30		 DB	 48			; 00000030H
  00373	30		 DB	 48			; 00000030H
  00374	30		 DB	 48			; 00000030H
  00375	30		 DB	 48			; 00000030H
  00376	30		 DB	 48			; 00000030H
  00377	30		 DB	 48			; 00000030H
  00378	30		 DB	 48			; 00000030H
  00379	30		 DB	 48			; 00000030H
  0037a	30		 DB	 48			; 00000030H
  0037b	30		 DB	 48			; 00000030H
  0037c	30		 DB	 48			; 00000030H
  0037d	1d		 DB	 29			; 0000001dH
  0037e	30		 DB	 48			; 00000030H
  0037f	1e		 DB	 30			; 0000001eH
  00380	30		 DB	 48			; 00000030H
  00381	1f		 DB	 31			; 0000001fH
  00382	20		 DB	 32			; 00000020H
  00383	21		 DB	 33			; 00000021H
  00384	22		 DB	 34			; 00000022H
  00385	23		 DB	 35			; 00000023H
  00386	24		 DB	 36			; 00000024H
  00387	25		 DB	 37			; 00000025H
  00388	26		 DB	 38			; 00000026H
  00389	30		 DB	 48			; 00000030H
  0038a	27		 DB	 39			; 00000027H
  0038b	30		 DB	 48			; 00000030H
  0038c	28		 DB	 40			; 00000028H
  0038d	30		 DB	 48			; 00000030H
  0038e	29		 DB	 41			; 00000029H
  0038f	2a		 DB	 42			; 0000002aH
  00390	2b		 DB	 43			; 0000002bH
  00391	2c		 DB	 44			; 0000002cH
  00392	2d		 DB	 45			; 0000002dH
  00393	2e		 DB	 46			; 0000002eH
  00394	30		 DB	 48			; 00000030H
  00395	30		 DB	 48			; 00000030H
  00396	30		 DB	 48			; 00000030H
  00397	2f		 DB	 47			; 0000002fH
?SetToggleButton@CDlgToolbar@@QAEXHH@Z ENDP		; CDlgToolbar::SetToggleButton
_TEXT	ENDS
; Function compile flags: /Ogtp
; File D:\git\src\IBK\IBK_DRFN\ProjSrc\SrcDrfn\Chart\MULTICHART\DlgToolbar.cpp
; File C:\Program Files (x86)\Microsoft Visual Studio\2019\Community\VC\Tools\MSVC\14.29.30133\atlmfc\include\afxwin2.inl
; File D:\git\src\IBK\IBK_DRFN\ProjSrc\SrcDrfn\Chart\MULTICHART\DlgToolbar.cpp
;	COMDAT ?ResetAllButton@CDlgToolbar@@QAEXXZ
_TEXT	SEGMENT
?ResetAllButton@CDlgToolbar@@QAEXXZ PROC		; CDlgToolbar::ResetAllButton, COMDAT
; _this$ = ecx

; 1333 : {

  00000	53		 push	 ebx
  00001	56		 push	 esi
  00002	57		 push	 edi
  00003	8b f9		 mov	 edi, ecx

; 1334 : 	for(int i = 0; i < NUM_BUTTONS; i++)

  00005	bb 50 00 00 00	 mov	 ebx, 80			; 00000050H
  0000a	8d b7 a8 00 00
	00		 lea	 esi, DWORD PTR [edi+168]
$LL4@ResetAllBu:

; 1335 : 	{
; 1336 : 		if(m_pToolBtn[i])

  00010	8b 06		 mov	 eax, DWORD PTR [esi]
  00012	85 c0		 test	 eax, eax
  00014	74 22		 je	 SHORT $LN2@ResetAllBu

; 1337 : 		{
; 1338 : 			if (m_pToolBtn[i]->m_nCurrToggle == 1)

  00016	83 b8 18 01 00
	00 01		 cmp	 DWORD PTR [eax+280], 1
  0001d	75 19		 jne	 SHORT $LN2@ResetAllBu

; 1339 : 			{
; 1340 : 				m_pToolBtn[i]->m_nCurrToggle = 0;

  0001f	c7 80 18 01 00
	00 00 00 00 00	 mov	 DWORD PTR [eax+280], 0
; File C:\Program Files (x86)\Microsoft Visual Studio\2019\Community\VC\Tools\MSVC\14.29.30133\atlmfc\include\afxwin2.inl

; 116  : 	{ ASSERT(::IsWindow(m_hWnd)); ::InvalidateRect(m_hWnd, lpRect, bErase); }

  00029	8b 06		 mov	 eax, DWORD PTR [esi]
  0002b	6a 01		 push	 1
  0002d	6a 00		 push	 0
  0002f	ff 70 20	 push	 DWORD PTR [eax+32]
  00032	ff 15 00 00 00
	00		 call	 DWORD PTR __imp__InvalidateRect@12
$LN2@ResetAllBu:
; File D:\git\src\IBK\IBK_DRFN\ProjSrc\SrcDrfn\Chart\MULTICHART\DlgToolbar.cpp

; 1334 : 	for(int i = 0; i < NUM_BUTTONS; i++)

  00038	83 c6 04	 add	 esi, 4
  0003b	83 eb 01	 sub	 ebx, 1
  0003e	75 d0		 jne	 SHORT $LL4@ResetAllBu

; 1341 : 				m_pToolBtn[i]->InvalidateRect(NULL, TRUE);
; 1342 : 			}
; 1343 : 		}
; 1344 : 	}
; 1345 : 	m_nCursorIndex = 1;
; 1346 : 	m_bShowScale = FALSE;

  00040	89 9f b0 02 00
	00		 mov	 DWORD PTR [edi+688], ebx

; 1347 : 	m_bShowInnerToolbar = FALSE;

  00046	89 9f b8 02 00
	00		 mov	 DWORD PTR [edi+696], ebx

; 1348 : 	m_nYUnitType = WON_TICK;

  0004c	89 9f b4 02 00
	00		 mov	 DWORD PTR [edi+692], ebx

; 1349 : 	m_bCheckShowData = FALSE;

  00052	89 9f 9c 02 00
	00		 mov	 DWORD PTR [edi+668], ebx

; 1350 : 	m_bCheckDWMMChart = FALSE;

  00058	89 9f a0 02 00
	00		 mov	 DWORD PTR [edi+672], ebx
  0005e	c7 87 ac 02 00
	00 01 00 00 00	 mov	 DWORD PTR [edi+684], 1
  00068	5f		 pop	 edi
  00069	5e		 pop	 esi
  0006a	5b		 pop	 ebx

; 1351 : }

  0006b	c3		 ret	 0
?ResetAllButton@CDlgToolbar@@QAEXXZ ENDP		; CDlgToolbar::ResetAllButton
_TEXT	ENDS
; Function compile flags: /Ogtp
; File D:\git\src\IBK\IBK_DRFN\ProjSrc\SrcDrfn\Chart\MULTICHART\DlgToolbar.cpp
; File C:\Program Files (x86)\Microsoft Visual Studio\2019\Community\VC\Tools\MSVC\14.29.30133\atlmfc\include\afxwin2.inl
; File D:\git\src\IBK\IBK_DRFN\ProjSrc\SrcDrfn\Chart\MULTICHART\DlgToolbar.cpp
; File C:\Program Files (x86)\Microsoft Visual Studio\2019\Community\VC\Tools\MSVC\14.29.30133\atlmfc\include\afxwin2.inl
; File D:\git\src\IBK\IBK_DRFN\ProjSrc\SrcDrfn\Chart\MULTICHART\DlgToolbar.cpp
; File C:\Program Files (x86)\Microsoft Visual Studio\2019\Community\VC\Tools\MSVC\14.29.30133\atlmfc\include\afxwin2.inl
; File D:\git\src\IBK\IBK_DRFN\ProjSrc\SrcDrfn\Chart\MULTICHART\DlgToolbar.cpp
;	COMDAT ?SelectToolSelection@CDlgToolbar@@QAEXXZ
_TEXT	SEGMENT
?SelectToolSelection@CDlgToolbar@@QAEXXZ PROC		; CDlgToolbar::SelectToolSelection, COMDAT
; _this$ = ecx

; 1187 : {

  00000	56		 push	 esi
  00001	8b f1		 mov	 esi, ecx

; 1188 : 	if (m_nCursorIndex < 0 || m_nCursorIndex >= NUM_BUTTONS)

  00003	8b 86 ac 02 00
	00		 mov	 eax, DWORD PTR [esi+684]
  00009	83 f8 4f	 cmp	 eax, 79			; 0000004fH
  0000c	0f 87 aa 00 00
	00		 ja	 $LN3@SelectTool

; 1189 : 		return;
; 1190 : 
; 1191 : 	if(m_pToolBtn[m_nCursorIndex])

  00012	8b 84 86 a8 00
	00 00		 mov	 eax, DWORD PTR [esi+eax*4+168]
  00019	85 c0		 test	 eax, eax
  0001b	0f 84 9b 00 00
	00		 je	 $LN3@SelectTool

; 1192 : 	{
; 1193 : 		m_pToolBtn[m_nCursorIndex]->m_nBtDown = 3;//BT_DEF_DOWN

  00021	c7 80 e4 00 00
	00 03 00 00 00	 mov	 DWORD PTR [eax+228], 3

; 1194 : 		m_pToolBtn[m_nCursorIndex]->m_bDowned = TRUE;

  0002b	8b 86 ac 02 00
	00		 mov	 eax, DWORD PTR [esi+684]
; File C:\Program Files (x86)\Microsoft Visual Studio\2019\Community\VC\Tools\MSVC\14.29.30133\atlmfc\include\afxwin2.inl

; 116  : 	{ ASSERT(::IsWindow(m_hWnd)); ::InvalidateRect(m_hWnd, lpRect, bErase); }

  00031	6a 01		 push	 1
  00033	6a 00		 push	 0
; File D:\git\src\IBK\IBK_DRFN\ProjSrc\SrcDrfn\Chart\MULTICHART\DlgToolbar.cpp

; 1194 : 		m_pToolBtn[m_nCursorIndex]->m_bDowned = TRUE;

  00035	8b 84 86 a8 00
	00 00		 mov	 eax, DWORD PTR [esi+eax*4+168]
  0003c	c7 80 e8 00 00
	00 01 00 00 00	 mov	 DWORD PTR [eax+232], 1

; 1195 : 		m_pToolBtn[m_nCursorIndex]->m_nBeState = m_pToolBtn[m_nCursorIndex]->m_nBtDown;

  00046	8b 86 ac 02 00
	00		 mov	 eax, DWORD PTR [esi+684]
  0004c	8b 8c 86 a8 00
	00 00		 mov	 ecx, DWORD PTR [esi+eax*4+168]
  00053	8b 81 e4 00 00
	00		 mov	 eax, DWORD PTR [ecx+228]
  00059	89 81 b8 00 00
	00		 mov	 DWORD PTR [ecx+184], eax
; File C:\Program Files (x86)\Microsoft Visual Studio\2019\Community\VC\Tools\MSVC\14.29.30133\atlmfc\include\afxwin2.inl

; 116  : 	{ ASSERT(::IsWindow(m_hWnd)); ::InvalidateRect(m_hWnd, lpRect, bErase); }

  0005f	8b 86 ac 02 00
	00		 mov	 eax, DWORD PTR [esi+684]
  00065	8b 84 86 a8 00
	00 00		 mov	 eax, DWORD PTR [esi+eax*4+168]
  0006c	ff 70 20	 push	 DWORD PTR [eax+32]
  0006f	ff 15 00 00 00
	00		 call	 DWORD PTR __imp__InvalidateRect@12
; File D:\git\src\IBK\IBK_DRFN\ProjSrc\SrcDrfn\Chart\MULTICHART\DlgToolbar.cpp

; 1197 : 		if (m_pToolBtn[m_nCursorIndex]->m_nCurrToggle == 0 && m_pCurToggleBtn != m_pToolBtn[m_nCursorIndex])

  00075	8b 86 ac 02 00
	00		 mov	 eax, DWORD PTR [esi+684]
  0007b	8b 8c 86 a8 00
	00 00		 mov	 ecx, DWORD PTR [esi+eax*4+168]
  00082	83 b9 18 01 00
	00 00		 cmp	 DWORD PTR [ecx+280], 0
  00089	75 31		 jne	 SHORT $LN3@SelectTool
  0008b	39 8e 98 02 00
	00		 cmp	 DWORD PTR [esi+664], ecx
  00091	74 29		 je	 SHORT $LN3@SelectTool

; 1198 : 		{
; 1199 : 			SendMessage(UDM_CHARTBUTTON_CLICK, 2, m_pToolBtn[m_nCursorIndex]->GetDlgCtrlID());

  00093	e8 00 00 00 00	 call	 ?GetDlgCtrlID@CWnd@@QBEHXZ ; CWnd::GetDlgCtrlID
; File C:\Program Files (x86)\Microsoft Visual Studio\2019\Community\VC\Tools\MSVC\14.29.30133\atlmfc\include\afxwin2.inl

; 32   : 	{ ASSERT(::IsWindow(m_hWnd)); return ::SendMessage(m_hWnd, message, wParam, lParam); }

  00098	50		 push	 eax
  00099	6a 02		 push	 2
  0009b	68 5a 06 00 00	 push	 1626			; 0000065aH
  000a0	ff 76 20	 push	 DWORD PTR [esi+32]
  000a3	ff 15 00 00 00
	00		 call	 DWORD PTR __imp__SendMessageA@16
; File D:\git\src\IBK\IBK_DRFN\ProjSrc\SrcDrfn\Chart\MULTICHART\DlgToolbar.cpp

; 1200 : 			m_pCurToggleBtn = m_pToolBtn[m_nCursorIndex];

  000a9	8b 86 ac 02 00
	00		 mov	 eax, DWORD PTR [esi+684]
  000af	8b 84 86 a8 00
	00 00		 mov	 eax, DWORD PTR [esi+eax*4+168]
  000b6	89 86 98 02 00
	00		 mov	 DWORD PTR [esi+664], eax
$LN3@SelectTool:

; 1201 : 		}
; 1202 : 	}
; 1203 : }

  000bc	5e		 pop	 esi
  000bd	c3		 ret	 0
?SelectToolSelection@CDlgToolbar@@QAEXXZ ENDP		; CDlgToolbar::SelectToolSelection
_TEXT	ENDS
; Function compile flags: /Ogtp
; File D:\git\src\IBK\IBK_DRFN\ProjSrc\SrcDrfn\Chart\MULTICHART\DlgToolbar.cpp
; File C:\Program Files (x86)\Microsoft Visual Studio\2019\Community\VC\Tools\MSVC\14.29.30133\atlmfc\include\afxwin2.inl
; File D:\git\src\IBK\IBK_DRFN\ProjSrc\SrcDrfn\Chart\MULTICHART\DlgToolbar.cpp
; File C:\Program Files (x86)\Microsoft Visual Studio\2019\Community\VC\Tools\MSVC\14.29.30133\atlmfc\include\afxwin2.inl
; File D:\git\src\IBK\IBK_DRFN\ProjSrc\SrcDrfn\Chart\MULTICHART\DlgToolbar.cpp
; File C:\Program Files (x86)\Microsoft Visual Studio\2019\Community\VC\Tools\MSVC\14.29.30133\atlmfc\include\afxwin2.inl
; File D:\git\src\IBK\IBK_DRFN\ProjSrc\SrcDrfn\Chart\MULTICHART\DlgToolbar.cpp
; File C:\Program Files (x86)\Microsoft Visual Studio\2019\Community\VC\Tools\MSVC\14.29.30133\atlmfc\include\afxwin2.inl
; File D:\git\src\IBK\IBK_DRFN\ProjSrc\SrcDrfn\Chart\MULTICHART\DlgToolbar.cpp
; File C:\Program Files (x86)\Microsoft Visual Studio\2019\Community\VC\Tools\MSVC\14.29.30133\atlmfc\include\afxtempl.h
; File D:\git\src\IBK\IBK_DRFN\ProjSrc\SrcDrfn\Chart\MULTICHART\DlgToolbar.cpp
; File C:\Program Files (x86)\Microsoft Visual Studio\2019\Community\VC\Tools\MSVC\14.29.30133\atlmfc\include\afxwin2.inl
; File D:\git\src\IBK\IBK_DRFN\ProjSrc\SrcDrfn\Chart\MULTICHART\DlgToolbar.cpp
; File C:\Program Files (x86)\Microsoft Visual Studio\2019\Community\VC\Tools\MSVC\14.29.30133\atlmfc\include\afxtempl.h
; File D:\git\src\IBK\IBK_DRFN\ProjSrc\SrcDrfn\Chart\MULTICHART\DlgToolbar.cpp
; File C:\Program Files (x86)\Microsoft Visual Studio\2019\Community\VC\Tools\MSVC\14.29.30133\atlmfc\include\afxwin2.inl
; File D:\git\src\IBK\IBK_DRFN\ProjSrc\SrcDrfn\Chart\MULTICHART\DlgToolbar.cpp
; File C:\Program Files (x86)\Microsoft Visual Studio\2019\Community\VC\Tools\MSVC\14.29.30133\atlmfc\include\afxtempl.h
; File D:\git\src\IBK\IBK_DRFN\ProjSrc\SrcDrfn\Chart\MULTICHART\DlgToolbar.cpp
; File C:\Program Files (x86)\Microsoft Visual Studio\2019\Community\VC\Tools\MSVC\14.29.30133\atlmfc\include\afxwin2.inl
; File D:\git\src\IBK\IBK_DRFN\ProjSrc\SrcDrfn\Chart\MULTICHART\DlgToolbar.cpp
; File C:\Program Files (x86)\Microsoft Visual Studio\2019\Community\VC\Tools\MSVC\14.29.30133\atlmfc\include\afxtempl.h
; File D:\git\src\IBK\IBK_DRFN\ProjSrc\SrcDrfn\Chart\MULTICHART\DlgToolbar.cpp
;	COMDAT ?ResizeControl@CDlgToolbar@@UAEXHH@Z
_TEXT	SEGMENT
_rect$$sroa$510$1$ = -4					; size = 4
_cx$ = 8						; size = 4
_cy$ = 12						; size = 4
?ResizeControl@CDlgToolbar@@UAEXHH@Z PROC		; CDlgToolbar::ResizeControl, COMDAT
; _this$ = ecx

; 661  : {

  00000	55		 push	 ebp
  00001	8b ec		 mov	 ebp, esp
  00003	51		 push	 ecx
  00004	56		 push	 esi
  00005	8b f1		 mov	 esi, ecx

; 663  : 	if(!m_pToolBtn[0]->GetSafeHwnd())

  00007	8b 8e a8 00 00
	00		 mov	 ecx, DWORD PTR [esi+168]
; File C:\Program Files (x86)\Microsoft Visual Studio\2019\Community\VC\Tools\MSVC\14.29.30133\atlmfc\include\afxwin2.inl

; 25   : 	{ return this == NULL ? NULL : m_hWnd; }

  0000d	85 c9		 test	 ecx, ecx
  0000f	0f 84 0d 01 00
	00		 je	 $LN1@ResizeCont
; File D:\git\src\IBK\IBK_DRFN\ProjSrc\SrcDrfn\Chart\MULTICHART\DlgToolbar.cpp

; 663  : 	if(!m_pToolBtn[0]->GetSafeHwnd())

  00015	83 79 20 00	 cmp	 DWORD PTR [ecx+32], 0
  00019	0f 84 03 01 00
	00		 je	 $LN1@ResizeCont
; File C:\Program Files (x86)\Microsoft Visual Studio\2019\Community\VC\Tools\MSVC\14.29.30133\atlmfc\include\afxwin2.inl

; 73   : 	{ MoveWindow(lpRect->left, lpRect->top, lpRect->right - lpRect->left,

  0001f	53		 push	 ebx
  00020	57		 push	 edi
  00021	6a 01		 push	 1
  00023	6a 16		 push	 22			; 00000016H
  00025	6a 1c		 push	 28			; 0000001cH
  00027	6a 02		 push	 2
  00029	6a 02		 push	 2
  0002b	e8 00 00 00 00	 call	 ?MoveWindow@CWnd@@QAEXHHHHH@Z ; CWnd::MoveWindow
; File D:\git\src\IBK\IBK_DRFN\ProjSrc\SrcDrfn\Chart\MULTICHART\DlgToolbar.cpp

; 683  : 	for(int i = 3; i < m_arrayTotalIdx.GetSize()+5; i++)

  00030	8b 86 c8 02 00
	00		 mov	 eax, DWORD PTR [esi+712]
  00036	bb 03 00 00 00	 mov	 ebx, 3
  0003b	83 c0 05	 add	 eax, 5
  0003e	c7 45 fc 00 00
	00 00		 mov	 DWORD PTR _rect$$sroa$510$1$[ebp], 0
  00045	3b c3		 cmp	 eax, ebx
  00047	7e 2d		 jle	 SHORT $LN3@ResizeCont
; File C:\Program Files (x86)\Microsoft Visual Studio\2019\Community\VC\Tools\MSVC\14.29.30133\atlmfc\include\afxwin2.inl

; 73   : 	{ MoveWindow(lpRect->left, lpRect->top, lpRect->right - lpRect->left,

  00049	8d be b4 00 00
	00		 lea	 edi, DWORD PTR [esi+180]
  0004f	90		 npad	 1
$LL4@ResizeCont:
; File D:\git\src\IBK\IBK_DRFN\ProjSrc\SrcDrfn\Chart\MULTICHART\DlgToolbar.cpp

; 685  : 		if(m_pToolBtn[i])

  00050	8b 0f		 mov	 ecx, DWORD PTR [edi]
  00052	85 c9		 test	 ecx, ecx
  00054	74 0f		 je	 SHORT $LN2@ResizeCont
; File C:\Program Files (x86)\Microsoft Visual Studio\2019\Community\VC\Tools\MSVC\14.29.30133\atlmfc\include\afxwin2.inl

; 73   : 	{ MoveWindow(lpRect->left, lpRect->top, lpRect->right - lpRect->left,

  00056	6a 01		 push	 1
  00058	6a 00		 push	 0
  0005a	6a 00		 push	 0
  0005c	6a 00		 push	 0
  0005e	6a 00		 push	 0
  00060	e8 00 00 00 00	 call	 ?MoveWindow@CWnd@@QAEXHHHHH@Z ; CWnd::MoveWindow
$LN2@ResizeCont:
; File D:\git\src\IBK\IBK_DRFN\ProjSrc\SrcDrfn\Chart\MULTICHART\DlgToolbar.cpp

; 683  : 	for(int i = 3; i < m_arrayTotalIdx.GetSize()+5; i++)

  00065	8b 86 c8 02 00
	00		 mov	 eax, DWORD PTR [esi+712]
  0006b	43		 inc	 ebx
  0006c	83 c0 05	 add	 eax, 5
  0006f	83 c7 04	 add	 edi, 4
  00072	3b d8		 cmp	 ebx, eax
  00074	7c da		 jl	 SHORT $LL4@ResizeCont
$LN3@ResizeCont:

; 686  : 			m_pToolBtn[i]->MoveWindow(&rect);
; 687  : 	}
; 688  : 	int nKeyInx;
; 689  : 	if(m_nSelTool == 0)

  00076	8b 86 2c 03 00
	00		 mov	 eax, DWORD PTR [esi+812]
  0007c	85 c0		 test	 eax, eax
  0007e	0f 85 a5 00 00
	00		 jne	 $LN16@ResizeCont

; 692  : 		m_pToolBtn[0]->SetValueBtn(GetToolOption(TOOL_BUTTON_BASE_ID + 0), 

  00084	8b 8e a8 00 00
	00		 mov	 ecx, DWORD PTR [esi+168]
  0008a	6a 02		 push	 2
  0008c	6a 01		 push	 1
  0008e	50		 push	 eax
  0008f	ff b6 bc 02 00
	00		 push	 DWORD PTR [esi+700]
  00095	ff 35 00 00 00
	00		 push	 DWORD PTR ?g_bToggle_Bar@@3PAHA
  0009b	6a ff		 push	 -1
  0009d	e8 00 00 00 00	 call	 ?SetValueBtn@CChartToolBtn@@QAEXW4TOOLOPTION@CToolOptionInfo@@HPAVCImageList@@HHH@Z ; CChartToolBtn::SetValueBtn

; 693  : 							   g_bToggle_Bar[0], m_pIL_W28H22, nKeyInx*3, nKeyInx*3+1, nKeyInx*3+2);
; 694  : 		m_ToolTip.AddTool(m_pToolBtn[0], "");//KHD :  

  000a2	6a 00		 push	 0
  000a4	6a 00		 push	 0
  000a6	68 00 00 00 00	 push	 OFFSET ??_C@_0L@ILMFLGJO@?$LL?g?$LP?k?$MA?Z?$LM?$LD?A?$KE@
  000ab	ff b6 a8 00 00
	00		 push	 DWORD PTR [esi+168]
  000b1	8d 8e f8 01 00
	00		 lea	 ecx, DWORD PTR [esi+504]
  000b7	e8 00 00 00 00	 call	 ?AddTool@CToolTipCtrl@@QAEHPAVCWnd@@PBDPBUtagRECT@@I@Z ; CToolTipCtrl::AddTool

; 695  : 		for(int i = 0; i < m_arrayUserIdx.GetSize(); i++)

  000bc	8b 96 04 03 00
	00		 mov	 edx, DWORD PTR [esi+772]
  000c2	33 db		 xor	 ebx, ebx
  000c4	85 d2		 test	 edx, edx
  000c6	7e 4f		 jle	 SHORT $LN12@ResizeCont

; 690  : 	{
; 691  : 		nKeyInx = m_nSelTool;

  000c8	bf 1a 00 00 00	 mov	 edi, 26			; 0000001aH
  000cd	0f 1f 00	 npad	 3
$LL7@ResizeCont:

; 696  : 		{
; 697  : 			rect.left = X_OFFSET;
; 698  : 			rect.top = Y_OFFSET2 + (i+1) * TOOL_BUTTON_HEIGHT + (i+1) * nGap;
; 699  : 			nBottom = rect.top + TOOL_BUTTON_HEIGHT;
; 700  : 			rect.right = rect.left + TOOL_BUTTON_WIDTH;
; 701  : 			rect.bottom = rect.top + TOOL_BUTTON_HEIGHT;

  000d0	8d 47 16	 lea	 eax, DWORD PTR [edi+22]
  000d3	89 45 fc	 mov	 DWORD PTR _rect$$sroa$510$1$[ebp], eax
; File C:\Program Files (x86)\Microsoft Visual Studio\2019\Community\VC\Tools\MSVC\14.29.30133\atlmfc\include\afxtempl.h

; 288  : 	if(nIndex >= 0 && nIndex < m_nSize)

  000d6	83 ff 1a	 cmp	 edi, 26			; 0000001aH
  000d9	0f 8c a2 01 00
	00		 jl	 $LN279@ResizeCont
  000df	3b da		 cmp	 ebx, edx
  000e1	0f 8d 9a 01 00
	00		 jge	 $LN279@ResizeCont
; File D:\git\src\IBK\IBK_DRFN\ProjSrc\SrcDrfn\Chart\MULTICHART\DlgToolbar.cpp

; 704  : 			if(m_pToolBtn[nKeyIdx])

  000e7	8b 86 00 03 00
	00		 mov	 eax, DWORD PTR [esi+768]
  000ed	8b 04 98	 mov	 eax, DWORD PTR [eax+ebx*4]
  000f0	8b 8c 86 a8 00
	00 00		 mov	 ecx, DWORD PTR [esi+eax*4+168]
  000f7	85 c9		 test	 ecx, ecx
  000f9	74 14		 je	 SHORT $LN5@ResizeCont
; File C:\Program Files (x86)\Microsoft Visual Studio\2019\Community\VC\Tools\MSVC\14.29.30133\atlmfc\include\afxwin2.inl

; 73   : 	{ MoveWindow(lpRect->left, lpRect->top, lpRect->right - lpRect->left,

  000fb	6a 01		 push	 1
  000fd	6a 16		 push	 22			; 00000016H
  000ff	6a 1c		 push	 28			; 0000001cH
  00101	57		 push	 edi
  00102	6a 02		 push	 2
  00104	e8 00 00 00 00	 call	 ?MoveWindow@CWnd@@QAEXHHHHH@Z ; CWnd::MoveWindow
  00109	8b 96 04 03 00
	00		 mov	 edx, DWORD PTR [esi+772]
$LN5@ResizeCont:
; File D:\git\src\IBK\IBK_DRFN\ProjSrc\SrcDrfn\Chart\MULTICHART\DlgToolbar.cpp

; 695  : 		for(int i = 0; i < m_arrayUserIdx.GetSize(); i++)

  0010f	43		 inc	 ebx
  00110	83 c7 16	 add	 edi, 22			; 00000016H
  00113	3b da		 cmp	 ebx, edx
  00115	7c b9		 jl	 SHORT $LL7@ResizeCont
$LN12@ResizeCont:

; 743  : 				m_pToolBtn[nKeyIdx]->MoveWindow(&rect);
; 744  : 		}
; 745  : 	}
; 746  : 
; 747  : 	//20070104 by 
; 748  : 	//         /    
; 749  : 	//   rect.bottom 
; 750  : 	m_drawinfo.nLastBtnPos = rect.bottom;

  00117	8b 45 fc	 mov	 eax, DWORD PTR _rect$$sroa$510$1$[ebp]
  0011a	5f		 pop	 edi
  0011b	89 86 48 03 00
	00		 mov	 DWORD PTR [esi+840], eax
  00121	5b		 pop	 ebx
$LN1@ResizeCont:
  00122	5e		 pop	 esi

; 752  : }

  00123	8b e5		 mov	 esp, ebp
  00125	5d		 pop	 ebp
  00126	c2 08 00	 ret	 8
$LN16@ResizeCont:

; 705  : 				m_pToolBtn[nKeyIdx]->MoveWindow(&rect);
; 706  : 		}
; 707  : 	}
; 708  : 	else if(m_nSelTool == 1)

  00129	83 f8 01	 cmp	 eax, 1
  0012c	0f 85 a7 00 00
	00		 jne	 $LN19@ResizeCont

; 711  : 		m_pToolBtn[0]->SetValueBtn(GetToolOption(TOOL_BUTTON_BASE_ID + 0), 

  00132	8b 8e a8 00 00
	00		 mov	 ecx, DWORD PTR [esi+168]
  00138	6a 05		 push	 5
  0013a	6a 04		 push	 4
  0013c	6a 03		 push	 3
  0013e	ff b6 bc 02 00
	00		 push	 DWORD PTR [esi+700]
  00144	ff 35 00 00 00
	00		 push	 DWORD PTR ?g_bToggle_Bar@@3PAHA
  0014a	6a ff		 push	 -1
  0014c	e8 00 00 00 00	 call	 ?SetValueBtn@CChartToolBtn@@QAEXW4TOOLOPTION@CToolOptionInfo@@HPAVCImageList@@HHH@Z ; CChartToolBtn::SetValueBtn

; 712  : 							   g_bToggle_Bar[0], m_pIL_W28H22, nKeyInx*3, nKeyInx*3+1, nKeyInx*3+2);
; 713  : 		m_ToolTip.AddTool(m_pToolBtn[0], "");//KHD :  

  00151	6a 00		 push	 0
  00153	6a 00		 push	 0
  00155	68 00 00 00 00	 push	 OFFSET ??_C@_08BMGJALFP@?$LK?P?$LM?$KO?$LF?$LF?$LB?$LI@
  0015a	ff b6 a8 00 00
	00		 push	 DWORD PTR [esi+168]
  00160	8d 8e f8 01 00
	00		 lea	 ecx, DWORD PTR [esi+504]
  00166	e8 00 00 00 00	 call	 ?AddTool@CToolTipCtrl@@QAEHPAVCWnd@@PBDPBUtagRECT@@I@Z ; CToolTipCtrl::AddTool

; 714  : 		for(int i = 0; i < m_arrayAnalIdx.GetSize(); i++)

  0016b	8b 96 dc 02 00
	00		 mov	 edx, DWORD PTR [esi+732]
  00171	33 db		 xor	 ebx, ebx
  00173	85 d2		 test	 edx, edx
  00175	7e a0		 jle	 SHORT $LN12@ResizeCont

; 709  : 	{
; 710  : 		nKeyInx = m_nSelTool;

  00177	bf 1a 00 00 00	 mov	 edi, 26			; 0000001aH
  0017c	0f 1f 40 00	 npad	 4
$LL10@ResizeCont:

; 715  : 		{
; 716  : 			rect.left = X_OFFSET;
; 717  : 			rect.top = Y_OFFSET2 + (i+1) * TOOL_BUTTON_HEIGHT + (i+1) * nGap;
; 718  : 			nBottom = rect.top + TOOL_BUTTON_HEIGHT;
; 719  : 			rect.right = rect.left + TOOL_BUTTON_WIDTH;
; 720  : 			rect.bottom = rect.top + TOOL_BUTTON_HEIGHT;

  00180	8d 47 16	 lea	 eax, DWORD PTR [edi+22]
  00183	89 45 fc	 mov	 DWORD PTR _rect$$sroa$510$1$[ebp], eax
; File C:\Program Files (x86)\Microsoft Visual Studio\2019\Community\VC\Tools\MSVC\14.29.30133\atlmfc\include\afxtempl.h

; 288  : 	if(nIndex >= 0 && nIndex < m_nSize)

  00186	83 ff 1a	 cmp	 edi, 26			; 0000001aH
  00189	0f 8c f2 00 00
	00		 jl	 $LN279@ResizeCont
  0018f	3b da		 cmp	 ebx, edx
  00191	0f 8d ea 00 00
	00		 jge	 $LN279@ResizeCont
; File D:\git\src\IBK\IBK_DRFN\ProjSrc\SrcDrfn\Chart\MULTICHART\DlgToolbar.cpp

; 723  : 			if(m_pToolBtn[nKeyIdx])

  00197	8b 86 d8 02 00
	00		 mov	 eax, DWORD PTR [esi+728]
  0019d	8b 04 98	 mov	 eax, DWORD PTR [eax+ebx*4]
  001a0	8b 8c 86 a8 00
	00 00		 mov	 ecx, DWORD PTR [esi+eax*4+168]
  001a7	85 c9		 test	 ecx, ecx
  001a9	74 14		 je	 SHORT $LN8@ResizeCont
; File C:\Program Files (x86)\Microsoft Visual Studio\2019\Community\VC\Tools\MSVC\14.29.30133\atlmfc\include\afxwin2.inl

; 73   : 	{ MoveWindow(lpRect->left, lpRect->top, lpRect->right - lpRect->left,

  001ab	6a 01		 push	 1
  001ad	6a 16		 push	 22			; 00000016H
  001af	6a 1c		 push	 28			; 0000001cH
  001b1	57		 push	 edi
  001b2	6a 02		 push	 2
  001b4	e8 00 00 00 00	 call	 ?MoveWindow@CWnd@@QAEXHHHHH@Z ; CWnd::MoveWindow
  001b9	8b 96 dc 02 00
	00		 mov	 edx, DWORD PTR [esi+732]
$LN8@ResizeCont:
; File D:\git\src\IBK\IBK_DRFN\ProjSrc\SrcDrfn\Chart\MULTICHART\DlgToolbar.cpp

; 714  : 		for(int i = 0; i < m_arrayAnalIdx.GetSize(); i++)

  001bf	43		 inc	 ebx
  001c0	83 c7 16	 add	 edi, 22			; 00000016H
  001c3	3b da		 cmp	 ebx, edx
  001c5	7c b9		 jl	 SHORT $LL10@ResizeCont

; 743  : 				m_pToolBtn[nKeyIdx]->MoveWindow(&rect);
; 744  : 		}
; 745  : 	}
; 746  : 
; 747  : 	//20070104 by 
; 748  : 	//         /    
; 749  : 	//   rect.bottom 
; 750  : 	m_drawinfo.nLastBtnPos = rect.bottom;

  001c7	8b 45 fc	 mov	 eax, DWORD PTR _rect$$sroa$510$1$[ebp]
  001ca	5f		 pop	 edi
  001cb	5b		 pop	 ebx
  001cc	89 86 48 03 00
	00		 mov	 DWORD PTR [esi+840], eax
  001d2	5e		 pop	 esi

; 752  : }

  001d3	8b e5		 mov	 esp, ebp
  001d5	5d		 pop	 ebp
  001d6	c2 08 00	 ret	 8
$LN19@ResizeCont:

; 724  : 				m_pToolBtn[nKeyIdx]->MoveWindow(&rect);
; 725  : 		}
; 726  : 	}
; 727  : 	else if(m_nSelTool == 2)

  001d9	83 f8 02	 cmp	 eax, 2
  001dc	0f 85 35 ff ff
	ff		 jne	 $LN12@ResizeCont

; 730  : 		m_pToolBtn[0]->SetValueBtn(GetToolOption(TOOL_BUTTON_BASE_ID + 0), 

  001e2	8b 8e a8 00 00
	00		 mov	 ecx, DWORD PTR [esi+168]
  001e8	6a 08		 push	 8
  001ea	6a 07		 push	 7
  001ec	6a 06		 push	 6
  001ee	ff b6 bc 02 00
	00		 push	 DWORD PTR [esi+700]
  001f4	ff 35 00 00 00
	00		 push	 DWORD PTR ?g_bToggle_Bar@@3PAHA
  001fa	6a ff		 push	 -1
  001fc	e8 00 00 00 00	 call	 ?SetValueBtn@CChartToolBtn@@QAEXW4TOOLOPTION@CToolOptionInfo@@HPAVCImageList@@HHH@Z ; CChartToolBtn::SetValueBtn

; 731  : 							   g_bToggle_Bar[0], m_pIL_W28H22, nKeyInx*3, nKeyInx*3+1, nKeyInx*3+2);
; 732  : 		m_ToolTip.AddTool(m_pToolBtn[0], "");//KHD :  

  00201	6a 00		 push	 0
  00203	6a 00		 push	 0
  00205	68 00 00 00 00	 push	 OFFSET ??_C@_08NABLOLGA@?$LK?N?$LA?$KB?$LB?b?$LE?I@
  0020a	ff b6 a8 00 00
	00		 push	 DWORD PTR [esi+168]
  00210	8d 8e f8 01 00
	00		 lea	 ecx, DWORD PTR [esi+504]
  00216	e8 00 00 00 00	 call	 ?AddTool@CToolTipCtrl@@QAEHPAVCWnd@@PBDPBUtagRECT@@I@Z ; CToolTipCtrl::AddTool

; 733  : 		for(int i = 0; i < m_arrayAdditionIdx.GetSize(); i++)

  0021b	8b 96 f0 02 00
	00		 mov	 edx, DWORD PTR [esi+752]
  00221	33 db		 xor	 ebx, ebx
  00223	85 d2		 test	 edx, edx
  00225	0f 8e ec fe ff
	ff		 jle	 $LN12@ResizeCont

; 728  : 	{
; 729  : 		nKeyInx = m_nSelTool;

  0022b	bf 1a 00 00 00	 mov	 edi, 26			; 0000001aH
$LL13@ResizeCont:

; 734  : 		{
; 735  : 			rect.left = X_OFFSET;
; 736  : 			rect.top = Y_OFFSET2 + (i+1) * TOOL_BUTTON_HEIGHT + (i+1) * nGap;
; 737  : 			nBottom = rect.top + TOOL_BUTTON_HEIGHT;
; 738  : 			rect.right = rect.left + TOOL_BUTTON_WIDTH;
; 739  : 			rect.bottom = rect.top + TOOL_BUTTON_HEIGHT;

  00230	8d 47 16	 lea	 eax, DWORD PTR [edi+22]
  00233	89 45 fc	 mov	 DWORD PTR _rect$$sroa$510$1$[ebp], eax
; File C:\Program Files (x86)\Microsoft Visual Studio\2019\Community\VC\Tools\MSVC\14.29.30133\atlmfc\include\afxtempl.h

; 288  : 	if(nIndex >= 0 && nIndex < m_nSize)

  00236	83 ff 1a	 cmp	 edi, 26			; 0000001aH
  00239	7c 46		 jl	 SHORT $LN279@ResizeCont
  0023b	3b da		 cmp	 ebx, edx
  0023d	7d 42		 jge	 SHORT $LN279@ResizeCont
; File D:\git\src\IBK\IBK_DRFN\ProjSrc\SrcDrfn\Chart\MULTICHART\DlgToolbar.cpp

; 742  : 			if(m_pToolBtn[nKeyIdx])

  0023f	8b 86 ec 02 00
	00		 mov	 eax, DWORD PTR [esi+748]
  00245	8b 04 98	 mov	 eax, DWORD PTR [eax+ebx*4]
  00248	8b 8c 86 a8 00
	00 00		 mov	 ecx, DWORD PTR [esi+eax*4+168]
  0024f	85 c9		 test	 ecx, ecx
  00251	74 14		 je	 SHORT $LN11@ResizeCont
; File C:\Program Files (x86)\Microsoft Visual Studio\2019\Community\VC\Tools\MSVC\14.29.30133\atlmfc\include\afxwin2.inl

; 73   : 	{ MoveWindow(lpRect->left, lpRect->top, lpRect->right - lpRect->left,

  00253	6a 01		 push	 1
  00255	6a 16		 push	 22			; 00000016H
  00257	6a 1c		 push	 28			; 0000001cH
  00259	57		 push	 edi
  0025a	6a 02		 push	 2
  0025c	e8 00 00 00 00	 call	 ?MoveWindow@CWnd@@QAEXHHHHH@Z ; CWnd::MoveWindow
  00261	8b 96 f0 02 00
	00		 mov	 edx, DWORD PTR [esi+752]
$LN11@ResizeCont:
; File D:\git\src\IBK\IBK_DRFN\ProjSrc\SrcDrfn\Chart\MULTICHART\DlgToolbar.cpp

; 733  : 		for(int i = 0; i < m_arrayAdditionIdx.GetSize(); i++)

  00267	43		 inc	 ebx
  00268	83 c7 16	 add	 edi, 22			; 00000016H
  0026b	3b da		 cmp	 ebx, edx
  0026d	7c c1		 jl	 SHORT $LL13@ResizeCont

; 743  : 				m_pToolBtn[nKeyIdx]->MoveWindow(&rect);
; 744  : 		}
; 745  : 	}
; 746  : 
; 747  : 	//20070104 by 
; 748  : 	//         /    
; 749  : 	//   rect.bottom 
; 750  : 	m_drawinfo.nLastBtnPos = rect.bottom;

  0026f	8b 45 fc	 mov	 eax, DWORD PTR _rect$$sroa$510$1$[ebp]
  00272	5f		 pop	 edi
  00273	5b		 pop	 ebx
  00274	89 86 48 03 00
	00		 mov	 DWORD PTR [esi+840], eax
  0027a	5e		 pop	 esi

; 752  : }

  0027b	8b e5		 mov	 esp, ebp
  0027d	5d		 pop	 ebp
  0027e	c2 08 00	 ret	 8
$LN279@ResizeCont:
; File C:\Program Files (x86)\Microsoft Visual Studio\2019\Community\VC\Tools\MSVC\14.29.30133\atlmfc\include\afxtempl.h

; 290  : 	AfxThrowInvalidArgException();

  00281	e8 00 00 00 00	 call	 ?AfxThrowInvalidArgException@@YGXXZ ; AfxThrowInvalidArgException
$LN299@ResizeCont:
  00286	cc		 int	 3
?ResizeControl@CDlgToolbar@@UAEXHH@Z ENDP		; CDlgToolbar::ResizeControl
_TEXT	ENDS
; Function compile flags: /Ogtp
; File D:\git\src\IBK\IBK_DRFN\ProjSrc\SrcDrfn\Chart\MULTICHART\DlgToolbar.cpp
; File C:\Program Files (x86)\Microsoft Visual Studio\2019\Community\VC\Tools\MSVC\14.29.30133\atlmfc\include\afxwin1.inl
; File D:\git\src\IBK\IBK_DRFN\ProjSrc\SrcDrfn\Chart\MULTICHART\DlgToolbar.cpp
; File C:\Program Files (x86)\Microsoft Visual Studio\2019\Community\VC\Tools\MSVC\14.29.30133\atlmfc\include\afxtempl.h
; File D:\git\src\IBK\IBK_DRFN\ProjSrc\SrcDrfn\Chart\MULTICHART\DlgToolbar.cpp
; File C:\Program Files (x86)\Microsoft Visual Studio\2019\Community\VC\Tools\MSVC\14.29.30133\atlmfc\include\afxwin1.inl
; File D:\git\src\IBK\IBK_DRFN\ProjSrc\SrcDrfn\Chart\MULTICHART\DlgToolbar.cpp
;	COMDAT ??1CDlgToolbar@@UAE@XZ
_TEXT	SEGMENT
__$EHRec$ = -12						; size = 12
??1CDlgToolbar@@UAE@XZ PROC				; CDlgToolbar::~CDlgToolbar, COMDAT
; _this$ = ecx

; 107  : {

  00000	55		 push	 ebp
  00001	8b ec		 mov	 ebp, esp
  00003	6a ff		 push	 -1
  00005	68 00 00 00 00	 push	 __ehhandler$??1CDlgToolbar@@UAE@XZ
  0000a	64 a1 00 00 00
	00		 mov	 eax, DWORD PTR fs:0
  00010	50		 push	 eax
  00011	53		 push	 ebx
  00012	56		 push	 esi
  00013	57		 push	 edi
  00014	a1 00 00 00 00	 mov	 eax, DWORD PTR ___security_cookie
  00019	33 c5		 xor	 eax, ebp
  0001b	50		 push	 eax
  0001c	8d 45 f4	 lea	 eax, DWORD PTR __$EHRec$[ebp]
  0001f	64 a3 00 00 00
	00		 mov	 DWORD PTR fs:0, eax
  00025	8b f9		 mov	 edi, ecx

; 108  : 	// delete gdi
; 109  : 	if(m_hWhiteBrush)

  00027	8b 87 ec 01 00
	00		 mov	 eax, DWORD PTR [edi+492]
  0002d	c7 07 00 00 00
	00		 mov	 DWORD PTR [edi], OFFSET ??_7CDlgToolbar@@6B@
  00033	85 c0		 test	 eax, eax
  00035	74 07		 je	 SHORT $LN5@CDlgToolba

; 110  : 		::DeleteObject(m_hWhiteBrush);

  00037	50		 push	 eax
  00038	ff 15 00 00 00
	00		 call	 DWORD PTR __imp__DeleteObject@4
$LN5@CDlgToolba:

; 113  : 	if(m_BtnFont.GetSafeHandle())

  0003e	8d 87 f0 01 00
	00		 lea	 eax, DWORD PTR [edi+496]
; File C:\Program Files (x86)\Microsoft Visual Studio\2019\Community\VC\Tools\MSVC\14.29.30133\atlmfc\include\afxwin1.inl

; 68   : 	{ return this == NULL ? NULL : m_hObject; }

  00044	85 c0		 test	 eax, eax
  00046	74 0d		 je	 SHORT $LN6@CDlgToolba
; File D:\git\src\IBK\IBK_DRFN\ProjSrc\SrcDrfn\Chart\MULTICHART\DlgToolbar.cpp

; 113  : 	if(m_BtnFont.GetSafeHandle())

  00048	83 78 04 00	 cmp	 DWORD PTR [eax+4], 0
  0004c	74 07		 je	 SHORT $LN6@CDlgToolba

; 114  : 		m_BtnFont.DeleteObject();

  0004e	8b c8		 mov	 ecx, eax
  00050	e8 00 00 00 00	 call	 ?DeleteObject@CGdiObject@@QAEHXZ ; CGdiObject::DeleteObject
$LN6@CDlgToolba:

; 115  : 
; 116  : 	// delete button
; 117  : 	for(int i = 0; i < NUM_BUTTONS; i++)

  00055	8d b7 a8 00 00
	00		 lea	 esi, DWORD PTR [edi+168]
  0005b	bb 50 00 00 00	 mov	 ebx, 80			; 00000050H
$LL4@CDlgToolba:

; 118  : 	{
; 119  : 		if(m_pToolBtn[i])

  00060	8b 0e		 mov	 ecx, DWORD PTR [esi]
  00062	85 c9		 test	 ecx, ecx
  00064	74 07		 je	 SHORT $LN2@CDlgToolba

; 120  : 			delete m_pToolBtn[i];

  00066	8b 01		 mov	 eax, DWORD PTR [ecx]
  00068	6a 01		 push	 1
  0006a	ff 50 04	 call	 DWORD PTR [eax+4]
$LN2@CDlgToolba:

; 115  : 
; 116  : 	// delete button
; 117  : 	for(int i = 0; i < NUM_BUTTONS; i++)

  0006d	83 c6 04	 add	 esi, 4
  00070	83 eb 01	 sub	 ebx, 1
  00073	75 eb		 jne	 SHORT $LL4@CDlgToolba

; 121  : 	}
; 122  : 	//{{ delete UpDown button
; 123  : 	if (m_pBtnUp) 

  00075	8b 8f 64 03 00
	00		 mov	 ecx, DWORD PTR [edi+868]
  0007b	85 c9		 test	 ecx, ecx
  0007d	74 16		 je	 SHORT $LN13@CDlgToolba

; 124  : 	{
; 125  : 		m_pBtnUp->DestroyWindow();

  0007f	8b 01		 mov	 eax, DWORD PTR [ecx]
  00081	ff 50 68	 call	 DWORD PTR [eax+104]

; 126  : 		delete m_pBtnUp;

  00084	8b 8f 64 03 00
	00		 mov	 ecx, DWORD PTR [edi+868]
  0008a	85 c9		 test	 ecx, ecx
  0008c	74 07		 je	 SHORT $LN13@CDlgToolba
  0008e	8b 01		 mov	 eax, DWORD PTR [ecx]
  00090	6a 01		 push	 1
  00092	ff 50 04	 call	 DWORD PTR [eax+4]
$LN13@CDlgToolba:

; 127  : 	}
; 128  : 
; 129  : 	if (m_pBtnDown) 

  00095	8b 8f 68 03 00
	00		 mov	 ecx, DWORD PTR [edi+872]
  0009b	85 c9		 test	 ecx, ecx
  0009d	74 16		 je	 SHORT $LN15@CDlgToolba

; 130  : 	{
; 131  : 		m_pBtnDown->DestroyWindow();

  0009f	8b 01		 mov	 eax, DWORD PTR [ecx]
  000a1	ff 50 68	 call	 DWORD PTR [eax+104]

; 132  : 		delete m_pBtnDown;

  000a4	8b 8f 68 03 00
	00		 mov	 ecx, DWORD PTR [edi+872]
  000aa	85 c9		 test	 ecx, ecx
  000ac	74 07		 je	 SHORT $LN15@CDlgToolba
  000ae	8b 01		 mov	 eax, DWORD PTR [ecx]
  000b0	6a 01		 push	 1
  000b2	ff 50 04	 call	 DWORD PTR [eax+4]
$LN15@CDlgToolba:

; 133  : 	}
; 134  : 	m_ImgList.DeleteImageList();

  000b5	8d 8f 6c 03 00
	00		 lea	 ecx, DWORD PTR [edi+876]
  000bb	e8 00 00 00 00	 call	 ?DeleteImageList@CImageList@@QAEHXZ ; CImageList::DeleteImageList

; 136  : }

  000c0	8d 8f 6c 03 00
	00		 lea	 ecx, DWORD PTR [edi+876]
  000c6	e8 00 00 00 00	 call	 ??1CImageList@@UAE@XZ	; CImageList::~CImageList
  000cb	8d 8f 10 03 00
	00		 lea	 ecx, DWORD PTR [edi+784]
  000d1	e8 00 00 00 00	 call	 ??1?$CMap@HHV?$CStringT@DV?$StrTraitMFC_DLL@DV?$ChTraitsCRT@D@ATL@@@@@ATL@@V12@@@UAE@XZ ; CMap<int,int,ATL::CStringT<char,StrTraitMFC_DLL<char,ATL::ChTraitsCRT<char> > >,ATL::CStringT<char,StrTraitMFC_DLL<char,ATL::ChTraitsCRT<char> > > >::~CMap<int,int,ATL::CStringT<char,StrTraitMFC_DLL<char,ATL::ChTraitsCRT<char> > >,ATL::CStringT<char,StrTraitMFC_DLL<char,ATL::ChTraitsCRT<char> > > >
; File C:\Program Files (x86)\Microsoft Visual Studio\2019\Community\VC\Tools\MSVC\14.29.30133\atlmfc\include\afxtempl.h

; 358  : 	if (m_pData != NULL)

  000d6	8b 87 00 03 00
	00		 mov	 eax, DWORD PTR [edi+768]
  000dc	c7 87 fc 02 00
	00 00 00 00 00	 mov	 DWORD PTR [edi+764], OFFSET ??_7?$CArray@HH@@6B@
  000e6	85 c0		 test	 eax, eax
  000e8	74 13		 je	 SHORT $LN25@CDlgToolba

; 359  : 	{
; 360  : 		for( int i = 0; i < m_nSize; i++ )

  000ea	83 bf 04 03 00
	00 00		 cmp	 DWORD PTR [edi+772], 0
  000f1	0f 4f c0	 cmovg	 eax, eax

; 361  : 			(m_pData + i)->~TYPE();
; 362  : 		delete[] (BYTE*)m_pData;

  000f4	50		 push	 eax
  000f5	e8 00 00 00 00	 call	 ??_V@YAXPAX@Z		; operator delete[]
  000fa	83 c4 04	 add	 esp, 4
$LN25@CDlgToolba:

; 358  : 	if (m_pData != NULL)

  000fd	8b 87 ec 02 00
	00		 mov	 eax, DWORD PTR [edi+748]
  00103	c7 87 e8 02 00
	00 00 00 00 00	 mov	 DWORD PTR [edi+744], OFFSET ??_7?$CArray@HH@@6B@
  0010d	85 c0		 test	 eax, eax
  0010f	74 13		 je	 SHORT $LN32@CDlgToolba

; 359  : 	{
; 360  : 		for( int i = 0; i < m_nSize; i++ )

  00111	83 bf f0 02 00
	00 00		 cmp	 DWORD PTR [edi+752], 0
  00118	0f 4f c0	 cmovg	 eax, eax

; 361  : 			(m_pData + i)->~TYPE();
; 362  : 		delete[] (BYTE*)m_pData;

  0011b	50		 push	 eax
  0011c	e8 00 00 00 00	 call	 ??_V@YAXPAX@Z		; operator delete[]
  00121	83 c4 04	 add	 esp, 4
$LN32@CDlgToolba:

; 358  : 	if (m_pData != NULL)

  00124	8b 87 d8 02 00
	00		 mov	 eax, DWORD PTR [edi+728]
  0012a	c7 87 d4 02 00
	00 00 00 00 00	 mov	 DWORD PTR [edi+724], OFFSET ??_7?$CArray@HH@@6B@
  00134	85 c0		 test	 eax, eax
  00136	74 13		 je	 SHORT $LN39@CDlgToolba

; 359  : 	{
; 360  : 		for( int i = 0; i < m_nSize; i++ )

  00138	83 bf dc 02 00
	00 00		 cmp	 DWORD PTR [edi+732], 0
  0013f	0f 4f c0	 cmovg	 eax, eax

; 361  : 			(m_pData + i)->~TYPE();
; 362  : 		delete[] (BYTE*)m_pData;

  00142	50		 push	 eax
  00143	e8 00 00 00 00	 call	 ??_V@YAXPAX@Z		; operator delete[]
  00148	83 c4 04	 add	 esp, 4
$LN39@CDlgToolba:

; 358  : 	if (m_pData != NULL)

  0014b	8b 87 c4 02 00
	00		 mov	 eax, DWORD PTR [edi+708]
  00151	c7 87 c0 02 00
	00 00 00 00 00	 mov	 DWORD PTR [edi+704], OFFSET ??_7?$CArray@HH@@6B@
  0015b	85 c0		 test	 eax, eax
  0015d	74 13		 je	 SHORT $LN46@CDlgToolba

; 359  : 	{
; 360  : 		for( int i = 0; i < m_nSize; i++ )

  0015f	83 bf c8 02 00
	00 00		 cmp	 DWORD PTR [edi+712], 0
  00166	0f 4f c0	 cmovg	 eax, eax

; 361  : 			(m_pData + i)->~TYPE();
; 362  : 		delete[] (BYTE*)m_pData;

  00169	50		 push	 eax
  0016a	e8 00 00 00 00	 call	 ??_V@YAXPAX@Z		; operator delete[]
  0016f	83 c4 04	 add	 esp, 4
$LN46@CDlgToolba:
; File D:\git\src\IBK\IBK_DRFN\ProjSrc\SrcDrfn\Chart\MULTICHART\DlgToolbar.cpp

; 136  : }

  00172	8d 8f f8 01 00
	00		 lea	 ecx, DWORD PTR [edi+504]
  00178	e8 00 00 00 00	 call	 ??1CToolTipCtrl@@UAE@XZ	; CToolTipCtrl::~CToolTipCtrl
; File C:\Program Files (x86)\Microsoft Visual Studio\2019\Community\VC\Tools\MSVC\14.29.30133\atlmfc\include\afxwin1.inl

; 155  : 	{ }

  0017d	8d 8f f0 01 00
	00		 lea	 ecx, DWORD PTR [edi+496]
  00183	c7 01 00 00 00
	00		 mov	 DWORD PTR [ecx], OFFSET ??_7CFont@@6B@
  00189	e8 00 00 00 00	 call	 ??1CGdiObject@@UAE@XZ	; CGdiObject::~CGdiObject
  0018e	8b cf		 mov	 ecx, edi
  00190	e8 00 00 00 00	 call	 ??1CDialog@@UAE@XZ	; CDialog::~CDialog
; File D:\git\src\IBK\IBK_DRFN\ProjSrc\SrcDrfn\Chart\MULTICHART\DlgToolbar.cpp

; 136  : }

  00195	8b 4d f4	 mov	 ecx, DWORD PTR __$EHRec$[ebp]
  00198	64 89 0d 00 00
	00 00		 mov	 DWORD PTR fs:0, ecx
  0019f	59		 pop	 ecx
  001a0	5f		 pop	 edi
  001a1	5e		 pop	 esi
  001a2	5b		 pop	 ebx
  001a3	8b e5		 mov	 esp, ebp
  001a5	5d		 pop	 ebp
  001a6	c3		 ret	 0
  001a7	cc		 int	 3
  001a8	cc		 int	 3
  001a9	cc		 int	 3
  001aa	cc		 int	 3
  001ab	cc		 int	 3
_TEXT	ENDS
;	COMDAT text$x
text$x	SEGMENT
__ehhandler$??1CDlgToolbar@@UAE@XZ:
  00000	90		 npad	 1
  00001	90		 npad	 1
  00002	8b 54 24 08	 mov	 edx, DWORD PTR [esp+8]
  00006	8d 42 0c	 lea	 eax, DWORD PTR [edx+12]
  00009	8b 4a f0	 mov	 ecx, DWORD PTR [edx-16]
  0000c	33 c8		 xor	 ecx, eax
  0000e	e8 00 00 00 00	 call	 @__security_check_cookie@4
  00013	b8 00 00 00 00	 mov	 eax, OFFSET __ehfuncinfo$??1CDlgToolbar@@UAE@XZ
  00018	e9 00 00 00 00	 jmp	 ___CxxFrameHandler3
text$x	ENDS
??1CDlgToolbar@@UAE@XZ ENDP				; CDlgToolbar::~CDlgToolbar
; Function compile flags: /Ogtp
; File D:\git\src\IBK\IBK_DRFN\ProjSrc\SrcDrfn\Chart\MULTICHART\DlgToolbar.cpp
; File C:\Program Files (x86)\Microsoft Visual Studio\2019\Community\VC\Tools\MSVC\14.29.30133\atlmfc\include\afxwin1.inl
; File D:\git\src\IBK\IBK_DRFN\ProjSrc\SrcDrfn\Chart\MULTICHART\DlgToolbar.cpp
; File C:\Program Files (x86)\Microsoft Visual Studio\2019\Community\VC\Tools\MSVC\14.29.30133\atlmfc\include\afxtempl.h
; File D:\git\src\IBK\IBK_DRFN\ProjSrc\SrcDrfn\Chart\MULTICHART\DlgToolbar.cpp
;	COMDAT ??0CDlgToolbar@@QAE@PAVCWnd@@@Z
_TEXT	SEGMENT
_this$ = -16						; size = 4
__$EHRec$ = -12						; size = 12
_pParent$ = 8						; size = 4
??0CDlgToolbar@@QAE@PAVCWnd@@@Z PROC			; CDlgToolbar::CDlgToolbar, COMDAT
; _this$ = ecx

; 59   : {

  00000	55		 push	 ebp
  00001	8b ec		 mov	 ebp, esp
  00003	6a ff		 push	 -1
  00005	68 00 00 00 00	 push	 __ehhandler$??0CDlgToolbar@@QAE@PAVCWnd@@@Z
  0000a	64 a1 00 00 00
	00		 mov	 eax, DWORD PTR fs:0
  00010	50		 push	 eax
  00011	51		 push	 ecx
  00012	53		 push	 ebx
  00013	56		 push	 esi
  00014	57		 push	 edi
  00015	a1 00 00 00 00	 mov	 eax, DWORD PTR ___security_cookie
  0001a	33 c5		 xor	 eax, ebp
  0001c	50		 push	 eax
  0001d	8d 45 f4	 lea	 eax, DWORD PTR __$EHRec$[ebp]
  00020	64 a3 00 00 00
	00		 mov	 DWORD PTR fs:0, eax
  00026	8b d9		 mov	 ebx, ecx
  00028	89 5d f0	 mov	 DWORD PTR _this$[ebp], ebx

; 58   : 	: CRscDlg(CDlgToolbar::IDD, pParent)

  0002b	8b 75 08	 mov	 esi, DWORD PTR _pParent$[ebp]
  0002e	56		 push	 esi
  0002f	68 b8 17 00 00	 push	 6072			; 000017b8H
  00034	e8 00 00 00 00	 call	 ??0CRscDlg@@QAE@IPAVCWnd@@@Z ; CRscDlg::CRscDlg

; 59   : {

  00039	c7 03 00 00 00
	00		 mov	 DWORD PTR [ebx], OFFSET ??_7CDlgToolbar@@6B@
  0003f	c7 45 fc 00 00
	00 00		 mov	 DWORD PTR __$EHRec$[ebp+8], 0
; File C:\Program Files (x86)\Microsoft Visual Studio\2019\Community\VC\Tools\MSVC\14.29.30133\atlmfc\include\afxwin1.inl

; 70   : 	{ m_hObject = NULL; }

  00046	c7 83 f4 01 00
	00 00 00 00 00	 mov	 DWORD PTR [ebx+500], 0

; 153  : 	{ }

  00050	c7 83 f0 01 00
	00 00 00 00 00	 mov	 DWORD PTR [ebx+496], OFFSET ??_7CFont@@6B@
; File D:\git\src\IBK\IBK_DRFN\ProjSrc\SrcDrfn\Chart\MULTICHART\DlgToolbar.cpp

; 59   : {

  0005a	8d 8b f8 01 00
	00		 lea	 ecx, DWORD PTR [ebx+504]
  00060	c6 45 fc 01	 mov	 BYTE PTR __$EHRec$[ebp+8], 1
  00064	e8 00 00 00 00	 call	 ??0CToolTipCtrl@@QAE@XZ	; CToolTipCtrl::CToolTipCtrl
; File C:\Program Files (x86)\Microsoft Visual Studio\2019\Community\VC\Tools\MSVC\14.29.30133\atlmfc\include\afxtempl.h

; 348  : {

  00069	c7 83 c0 02 00
	00 00 00 00 00	 mov	 DWORD PTR [ebx+704], OFFSET ??_7?$CArray@HH@@6B@

; 349  : 	m_pData = NULL;

  00073	c7 83 c4 02 00
	00 00 00 00 00	 mov	 DWORD PTR [ebx+708], 0

; 350  : 	m_nSize = m_nMaxSize = m_nGrowBy = 0;

  0007d	c7 83 d0 02 00
	00 00 00 00 00	 mov	 DWORD PTR [ebx+720], 0
  00087	c7 83 cc 02 00
	00 00 00 00 00	 mov	 DWORD PTR [ebx+716], 0
  00091	c7 83 c8 02 00
	00 00 00 00 00	 mov	 DWORD PTR [ebx+712], 0

; 348  : {

  0009b	c7 83 d4 02 00
	00 00 00 00 00	 mov	 DWORD PTR [ebx+724], OFFSET ??_7?$CArray@HH@@6B@

; 349  : 	m_pData = NULL;

  000a5	c7 83 d8 02 00
	00 00 00 00 00	 mov	 DWORD PTR [ebx+728], 0

; 350  : 	m_nSize = m_nMaxSize = m_nGrowBy = 0;

  000af	c7 83 e4 02 00
	00 00 00 00 00	 mov	 DWORD PTR [ebx+740], 0
  000b9	c7 83 e0 02 00
	00 00 00 00 00	 mov	 DWORD PTR [ebx+736], 0
  000c3	c7 83 dc 02 00
	00 00 00 00 00	 mov	 DWORD PTR [ebx+732], 0

; 348  : {

  000cd	c7 83 e8 02 00
	00 00 00 00 00	 mov	 DWORD PTR [ebx+744], OFFSET ??_7?$CArray@HH@@6B@

; 349  : 	m_pData = NULL;

  000d7	c7 83 ec 02 00
	00 00 00 00 00	 mov	 DWORD PTR [ebx+748], 0

; 350  : 	m_nSize = m_nMaxSize = m_nGrowBy = 0;

  000e1	c7 83 f8 02 00
	00 00 00 00 00	 mov	 DWORD PTR [ebx+760], 0
  000eb	c7 83 f4 02 00
	00 00 00 00 00	 mov	 DWORD PTR [ebx+756], 0
  000f5	c7 83 f0 02 00
	00 00 00 00 00	 mov	 DWORD PTR [ebx+752], 0

; 348  : {

  000ff	c7 83 fc 02 00
	00 00 00 00 00	 mov	 DWORD PTR [ebx+764], OFFSET ??_7?$CArray@HH@@6B@

; 349  : 	m_pData = NULL;

  00109	c7 83 00 03 00
	00 00 00 00 00	 mov	 DWORD PTR [ebx+768], 0

; 350  : 	m_nSize = m_nMaxSize = m_nGrowBy = 0;

  00113	c7 83 0c 03 00
	00 00 00 00 00	 mov	 DWORD PTR [ebx+780], 0
  0011d	c7 83 08 03 00
	00 00 00 00 00	 mov	 DWORD PTR [ebx+776], 0
  00127	c7 83 04 03 00
	00 00 00 00 00	 mov	 DWORD PTR [ebx+772], 0

; 1403 : {

  00131	c7 83 10 03 00
	00 00 00 00 00	 mov	 DWORD PTR [ebx+784], OFFSET ??_7?$CMap@HHV?$CStringT@DV?$StrTraitMFC_DLL@DV?$ChTraitsCRT@D@ATL@@@@@ATL@@V12@@@6B@

; 1404 : 	ASSERT(nBlockSize > 0);
; 1405 : 
; 1406 : 	m_pHashTable = NULL;

  0013b	c7 83 14 03 00
	00 00 00 00 00	 mov	 DWORD PTR [ebx+788], 0

; 1407 : 	m_nHashTableSize = 17;  // default size

  00145	c7 83 18 03 00
	00 11 00 00 00	 mov	 DWORD PTR [ebx+792], 17	; 00000011H

; 1408 : 	m_nCount = 0;

  0014f	c7 83 1c 03 00
	00 00 00 00 00	 mov	 DWORD PTR [ebx+796], 0

; 1409 : 	m_pFreeList = NULL;

  00159	c7 83 20 03 00
	00 00 00 00 00	 mov	 DWORD PTR [ebx+800], 0

; 1410 : 	m_pBlocks = NULL;

  00163	c7 83 24 03 00
	00 00 00 00 00	 mov	 DWORD PTR [ebx+804], 0

; 1411 : 	m_nBlockSize = nBlockSize;

  0016d	c7 83 28 03 00
	00 0a 00 00 00	 mov	 DWORD PTR [ebx+808], 10	; 0000000aH
; File D:\git\src\IBK\IBK_DRFN\ProjSrc\SrcDrfn\Chart\MULTICHART\DlgToolbar.cpp

; 59   : {

  00177	8d 8b 6c 03 00
	00		 lea	 ecx, DWORD PTR [ebx+876]
  0017d	c6 45 fc 07	 mov	 BYTE PTR __$EHRec$[ebp+8], 7
  00181	e8 00 00 00 00	 call	 ??0CImageList@@QAE@XZ	; CImageList::CImageList

; 60   : 	//{{AFX_DATA_INIT(CDlgToolbar)
; 61   : 		// NOTE: the ClassWizard will add member initialization here
; 62   : 
; 63   : 	m_pMultiChartWnd = pParent;
; 64   : 	m_hWhiteBrush = ::CreateSolidBrush(RGB(255, 255, 255));

  00186	68 ff ff ff 00	 push	 16777215		; 00ffffffH
  0018b	89 b3 a4 02 00
	00		 mov	 DWORD PTR [ebx+676], esi
  00191	ff 15 00 00 00
	00		 call	 DWORD PTR __imp__CreateSolidBrush@4
  00197	89 83 ec 01 00
	00		 mov	 DWORD PTR [ebx+492], eax
  0019d	8d bb a8 00 00
	00		 lea	 edi, DWORD PTR [ebx+168]
  001a3	33 c0		 xor	 eax, eax
  001a5	b9 50 00 00 00	 mov	 ecx, 80			; 00000050H
  001aa	f3 ab		 rep stosd

; 65   : 	
; 66   : 	for(int i = 0; i < NUM_BUTTONS; i++)
; 67   : 	{
; 68   : 		m_pToolBtn[i] = NULL;
; 69   : 	}
; 70   : 
; 71   : 	m_pCurToggleBtn = NULL;

  001ac	89 83 98 02 00
	00		 mov	 DWORD PTR [ebx+664], eax

; 72   : 
; 73   : 	m_bShowScale = FALSE;

  001b2	89 83 b0 02 00
	00		 mov	 DWORD PTR [ebx+688], eax

; 74   : 	m_bShowInnerToolbar = FALSE;

  001b8	89 83 b8 02 00
	00		 mov	 DWORD PTR [ebx+696], eax

; 75   : 	m_nYUnitType = WON_TICK;

  001be	89 83 b4 02 00
	00		 mov	 DWORD PTR [ebx+692], eax

; 76   : 	m_bCheckShowData = FALSE;

  001c4	89 83 9c 02 00
	00		 mov	 DWORD PTR [ebx+668], eax

; 77   : 	m_bCheckDWMMChart = FALSE;

  001ca	89 83 a0 02 00
	00		 mov	 DWORD PTR [ebx+672], eax

; 78   : 	m_nSelTool = 0;

  001d0	89 83 2c 03 00
	00		 mov	 DWORD PTR [ebx+812], eax

; 79   : 	//}}AFX_DATA_INIT
; 80   : 
; 81   : 	//20070104 by 
; 82   : 	//         /   
; 83   : 	//
; 84   : 	m_drawinfo.nPreWindowPos = 0;

  001d6	89 83 30 03 00
	00		 mov	 DWORD PTR [ebx+816], eax

; 85   : 	m_drawinfo.nCurrWindowPos = 0;

  001dc	89 83 34 03 00
	00		 mov	 DWORD PTR [ebx+820], eax

; 86   : 	m_drawinfo.nRealMenuCount = 0;

  001e2	89 83 38 03 00
	00		 mov	 DWORD PTR [ebx+824], eax

; 87   : 	m_drawinfo.nCalcMenuCount = 0;

  001e8	89 83 3c 03 00
	00		 mov	 DWORD PTR [ebx+828], eax

; 88   : 	m_drawinfo.nHighMenuCount = 0;

  001ee	89 83 40 03 00
	00		 mov	 DWORD PTR [ebx+832], eax

; 89   : 	m_drawinfo.nLowMenuCount = 0;

  001f4	89 83 44 03 00
	00		 mov	 DWORD PTR [ebx+836], eax

; 90   : 	m_drawinfo.nLastBtnPos = 0;

  001fa	89 83 48 03 00
	00		 mov	 DWORD PTR [ebx+840], eax

; 91   : 	m_drawinfo.nLowBojo = -1;

  00200	c7 83 4c 03 00
	00 ff ff ff ff	 mov	 DWORD PTR [ebx+844], -1

; 92   : 	m_drawinfo.nLowLastIndex = -1;

  0020a	c7 83 50 03 00
	00 ff ff ff ff	 mov	 DWORD PTR [ebx+848], -1

; 93   : 	m_drawinfo.nHighBojo = -1;

  00214	c7 83 54 03 00
	00 ff ff ff ff	 mov	 DWORD PTR [ebx+852], -1

; 94   : 	m_drawinfo.nHighLastIndex = -1;

  0021e	c7 83 58 03 00
	00 ff ff ff ff	 mov	 DWORD PTR [ebx+856], -1

; 95   : 	m_drawinfo.nTotBojo = -1;

  00228	c7 83 5c 03 00
	00 ff ff ff ff	 mov	 DWORD PTR [ebx+860], -1

; 96   : 	m_nResizeFlag = 0;

  00232	89 83 60 03 00
	00		 mov	 DWORD PTR [ebx+864], eax

; 97   : 
; 98   : 	m_pBtnUp = NULL;

  00238	89 83 64 03 00
	00		 mov	 DWORD PTR [ebx+868], eax

; 99   : 	m_pBtnDown = NULL;

  0023e	89 83 68 03 00
	00		 mov	 DWORD PTR [ebx+872], eax

; 100  : 	m_bInit = FALSE;

  00244	89 83 74 03 00
	00		 mov	 DWORD PTR [ebx+884], eax

; 101  : 	//by  end
; 102  : 
; 103  : 	m_pGateManager = NULL;

  0024a	89 83 e8 01 00
	00		 mov	 DWORD PTR [ebx+488], eax

; 104  : }

  00250	8b c3		 mov	 eax, ebx
  00252	8b 4d f4	 mov	 ecx, DWORD PTR __$EHRec$[ebp]
  00255	64 89 0d 00 00
	00 00		 mov	 DWORD PTR fs:0, ecx
  0025c	59		 pop	 ecx
  0025d	5f		 pop	 edi
  0025e	5e		 pop	 esi
  0025f	5b		 pop	 ebx
  00260	8b e5		 mov	 esp, ebp
  00262	5d		 pop	 ebp
  00263	c2 04 00	 ret	 4
_TEXT	ENDS
;	COMDAT text$x
text$x	SEGMENT
__unwindfunclet$??0CDlgToolbar@@QAE@PAVCWnd@@@Z$0:
  00000	8b 4d f0	 mov	 ecx, DWORD PTR _this$[ebp]
  00003	e9 00 00 00 00	 jmp	 ??1CRscDlg@@UAE@XZ
__unwindfunclet$??0CDlgToolbar@@QAE@PAVCWnd@@@Z$1:
  00008	8b 4d f0	 mov	 ecx, DWORD PTR _this$[ebp]
  0000b	81 c1 f0 01 00
	00		 add	 ecx, 496		; 000001f0H
  00011	e9 00 00 00 00	 jmp	 ??1CFont@@UAE@XZ	; CFont::~CFont
__unwindfunclet$??0CDlgToolbar@@QAE@PAVCWnd@@@Z$2:
  00016	8b 4d f0	 mov	 ecx, DWORD PTR _this$[ebp]
  00019	81 c1 f8 01 00
	00		 add	 ecx, 504		; 000001f8H
  0001f	e9 00 00 00 00	 jmp	 ??1CToolTipCtrl@@UAE@XZ	; CToolTipCtrl::~CToolTipCtrl
__unwindfunclet$??0CDlgToolbar@@QAE@PAVCWnd@@@Z$3:
  00024	8b 4d f0	 mov	 ecx, DWORD PTR _this$[ebp]
  00027	81 c1 c0 02 00
	00		 add	 ecx, 704		; 000002c0H
  0002d	e9 00 00 00 00	 jmp	 ??1?$CArray@HH@@UAE@XZ	; CArray<int,int>::~CArray<int,int>
__unwindfunclet$??0CDlgToolbar@@QAE@PAVCWnd@@@Z$4:
  00032	8b 4d f0	 mov	 ecx, DWORD PTR _this$[ebp]
  00035	81 c1 d4 02 00
	00		 add	 ecx, 724		; 000002d4H
  0003b	e9 00 00 00 00	 jmp	 ??1?$CArray@HH@@UAE@XZ	; CArray<int,int>::~CArray<int,int>
__unwindfunclet$??0CDlgToolbar@@QAE@PAVCWnd@@@Z$5:
  00040	8b 4d f0	 mov	 ecx, DWORD PTR _this$[ebp]
  00043	81 c1 e8 02 00
	00		 add	 ecx, 744		; 000002e8H
  00049	e9 00 00 00 00	 jmp	 ??1?$CArray@HH@@UAE@XZ	; CArray<int,int>::~CArray<int,int>
__unwindfunclet$??0CDlgToolbar@@QAE@PAVCWnd@@@Z$6:
  0004e	8b 4d f0	 mov	 ecx, DWORD PTR _this$[ebp]
  00051	81 c1 fc 02 00
	00		 add	 ecx, 764		; 000002fcH
  00057	e9 00 00 00 00	 jmp	 ??1?$CArray@HH@@UAE@XZ	; CArray<int,int>::~CArray<int,int>
__unwindfunclet$??0CDlgToolbar@@QAE@PAVCWnd@@@Z$7:
  0005c	8b 4d f0	 mov	 ecx, DWORD PTR _this$[ebp]
  0005f	81 c1 10 03 00
	00		 add	 ecx, 784		; 00000310H
  00065	e9 00 00 00 00	 jmp	 ??1?$CMap@HHV?$CStringT@DV?$StrTraitMFC_DLL@DV?$ChTraitsCRT@D@ATL@@@@@ATL@@V12@@@UAE@XZ ; CMap<int,int,ATL::CStringT<char,StrTraitMFC_DLL<char,ATL::ChTraitsCRT<char> > >,ATL::CStringT<char,StrTraitMFC_DLL<char,ATL::ChTraitsCRT<char> > > >::~CMap<int,int,ATL::CStringT<char,StrTraitMFC_DLL<char,ATL::ChTraitsCRT<char> > >,ATL::CStringT<char,StrTraitMFC_DLL<char,ATL::ChTraitsCRT<char> > > >
  0006a	cc		 int	 3
  0006b	cc		 int	 3
  0006c	cc		 int	 3
  0006d	cc		 int	 3
  0006e	cc		 int	 3
__ehhandler$??0CDlgToolbar@@QAE@PAVCWnd@@@Z:
  0006f	90		 npad	 1
  00070	90		 npad	 1
  00071	8b 54 24 08	 mov	 edx, DWORD PTR [esp+8]
  00075	8d 42 0c	 lea	 eax, DWORD PTR [edx+12]
  00078	8b 4a ec	 mov	 ecx, DWORD PTR [edx-20]
  0007b	33 c8		 xor	 ecx, eax
  0007d	e8 00 00 00 00	 call	 @__security_check_cookie@4
  00082	b8 00 00 00 00	 mov	 eax, OFFSET __ehfuncinfo$??0CDlgToolbar@@QAE@PAVCWnd@@@Z
  00087	e9 00 00 00 00	 jmp	 ___CxxFrameHandler3
text$x	ENDS
??0CDlgToolbar@@QAE@PAVCWnd@@@Z ENDP			; CDlgToolbar::CDlgToolbar
; Function compile flags: /Ogtp
;	COMDAT ??1CRscDlg@@UAE@XZ
_TEXT	SEGMENT
??1CRscDlg@@UAE@XZ PROC					; CRscDlg::~CRscDlg, COMDAT
; _this$ = ecx
  00000	e9 00 00 00 00	 jmp	 ??1CDialog@@UAE@XZ	; CDialog::~CDialog
??1CRscDlg@@UAE@XZ ENDP					; CRscDlg::~CRscDlg
_TEXT	ENDS
; Function compile flags: /Ogtp
; File C:\Program Files (x86)\Microsoft Visual Studio\2019\Community\VC\Tools\MSVC\14.29.30133\atlmfc\include\afxwin2.inl
;	COMDAT ?EndModalState@CWnd@@UAEXXZ
_TEXT	SEGMENT
?EndModalState@CWnd@@UAEXXZ PROC			; CWnd::EndModalState, COMDAT
; _this$ = ecx

; 567  : 	{ ::EnableWindow(m_hWnd, TRUE); }

  00000	6a 01		 push	 1
  00002	ff 71 20	 push	 DWORD PTR [ecx+32]
  00005	ff 15 00 00 00
	00		 call	 DWORD PTR __imp__EnableWindow@8
  0000b	c3		 ret	 0
?EndModalState@CWnd@@UAEXXZ ENDP			; CWnd::EndModalState
_TEXT	ENDS
; Function compile flags: /Ogtp
; File C:\Program Files (x86)\Microsoft Visual Studio\2019\Community\VC\Tools\MSVC\14.29.30133\atlmfc\include\afxwin2.inl
;	COMDAT ?BeginModalState@CWnd@@UAEXXZ
_TEXT	SEGMENT
?BeginModalState@CWnd@@UAEXXZ PROC			; CWnd::BeginModalState, COMDAT
; _this$ = ecx

; 565  : 	{ ::EnableWindow(m_hWnd, FALSE); }

  00000	6a 00		 push	 0
  00002	ff 71 20	 push	 DWORD PTR [ecx+32]
  00005	ff 15 00 00 00
	00		 call	 DWORD PTR __imp__EnableWindow@8
  0000b	c3		 ret	 0
?BeginModalState@CWnd@@UAEXXZ ENDP			; CWnd::BeginModalState
_TEXT	ENDS
; Function compile flags: /Ogtp
; File C:\Program Files (x86)\Microsoft Visual Studio\2019\Community\VC\Tools\MSVC\14.29.30133\atlmfc\include\afxwin2.inl
;	COMDAT ?DoDataExchange@CWnd@@MAEXPAVCDataExchange@@@Z
_TEXT	SEGMENT
___formal$ = 8						; size = 4
?DoDataExchange@CWnd@@MAEXPAVCDataExchange@@@Z PROC	; CWnd::DoDataExchange, COMDAT
; _this$ = ecx

; 561  : 	{ } // default does nothing

  00000	c2 04 00	 ret	 4
?DoDataExchange@CWnd@@MAEXPAVCDataExchange@@@Z ENDP	; CWnd::DoDataExchange
_TEXT	ENDS
; Function compile flags: /Ogtp
; File C:\Program Files (x86)\Microsoft Visual Studio\2019\Community\VC\Tools\MSVC\14.29.30133\atlmfc\include\afxwin1.inl
; File C:\Program Files (x86)\Microsoft Visual Studio\2019\Community\VC\Tools\MSVC\14.29.30133\atlmfc\include\afx.inl
;	COMDAT ??_GCBitmap@@UAEPAXI@Z
_TEXT	SEGMENT
___flags$ = 8						; size = 4
??_GCBitmap@@UAEPAXI@Z PROC				; CBitmap::`scalar deleting destructor', COMDAT
; _this$ = ecx
  00000	55		 push	 ebp
  00001	8b ec		 mov	 ebp, esp
; File C:\Program Files (x86)\Microsoft Visual Studio\2019\Community\VC\Tools\MSVC\14.29.30133\atlmfc\include\afxwin1.inl

; 179  : 	{ }

  00003	56		 push	 esi
  00004	8b f1		 mov	 esi, ecx
  00006	c7 06 00 00 00
	00		 mov	 DWORD PTR [esi], OFFSET ??_7CBitmap@@6B@
  0000c	e8 00 00 00 00	 call	 ??1CGdiObject@@UAE@XZ	; CGdiObject::~CGdiObject
  00011	8b 45 08	 mov	 eax, DWORD PTR ___flags$[ebp]
  00014	a8 01		 test	 al, 1
  00016	74 1f		 je	 SHORT $LN12@scalar
  00018	a8 04		 test	 al, 4
  0001a	75 10		 jne	 SHORT $LN3@scalar
; File C:\Program Files (x86)\Microsoft Visual Studio\2019\Community\VC\Tools\MSVC\14.29.30133\atlmfc\include\afx.inl

; 112  : 	{ ::operator delete(p); }

  0001c	56		 push	 esi
  0001d	e8 00 00 00 00	 call	 ??3@YAXPAX@Z		; operator delete
  00022	83 c4 04	 add	 esp, 4
  00025	8b c6		 mov	 eax, esi
  00027	5e		 pop	 esi
  00028	5d		 pop	 ebp
  00029	c2 04 00	 ret	 4
$LN3@scalar:
  0002c	6a 08		 push	 8
  0002e	56		 push	 esi
  0002f	e8 00 00 00 00	 call	 ?__global_delete@@YAXPAXI@Z ; __global_delete
  00034	83 c4 08	 add	 esp, 8
$LN12@scalar:
  00037	8b c6		 mov	 eax, esi
  00039	5e		 pop	 esi
  0003a	5d		 pop	 ebp
  0003b	c2 04 00	 ret	 4
??_GCBitmap@@UAEPAXI@Z ENDP				; CBitmap::`scalar deleting destructor'
_TEXT	ENDS
; Function compile flags: /Ogtp
; File C:\Program Files (x86)\Microsoft Visual Studio\2019\Community\VC\Tools\MSVC\14.29.30133\atlmfc\include\afxwin1.inl
;	COMDAT ??1CBitmap@@UAE@XZ
_TEXT	SEGMENT
??1CBitmap@@UAE@XZ PROC					; CBitmap::~CBitmap, COMDAT
; _this$ = ecx

; 179  : 	{ }

  00000	c7 01 00 00 00
	00		 mov	 DWORD PTR [ecx], OFFSET ??_7CBitmap@@6B@
  00006	e9 00 00 00 00	 jmp	 ??1CGdiObject@@UAE@XZ	; CGdiObject::~CGdiObject
??1CBitmap@@UAE@XZ ENDP					; CBitmap::~CBitmap
_TEXT	ENDS
; Function compile flags: /Ogtp
; File C:\Program Files (x86)\Microsoft Visual Studio\2019\Community\VC\Tools\MSVC\14.29.30133\atlmfc\include\afxwin1.inl
; File C:\Program Files (x86)\Microsoft Visual Studio\2019\Community\VC\Tools\MSVC\14.29.30133\atlmfc\include\afx.inl
;	COMDAT ??_GCFont@@UAEPAXI@Z
_TEXT	SEGMENT
___flags$ = 8						; size = 4
??_GCFont@@UAEPAXI@Z PROC				; CFont::`scalar deleting destructor', COMDAT
; _this$ = ecx
  00000	55		 push	 ebp
  00001	8b ec		 mov	 ebp, esp
; File C:\Program Files (x86)\Microsoft Visual Studio\2019\Community\VC\Tools\MSVC\14.29.30133\atlmfc\include\afxwin1.inl

; 155  : 	{ }

  00003	56		 push	 esi
  00004	8b f1		 mov	 esi, ecx
  00006	c7 06 00 00 00
	00		 mov	 DWORD PTR [esi], OFFSET ??_7CFont@@6B@
  0000c	e8 00 00 00 00	 call	 ??1CGdiObject@@UAE@XZ	; CGdiObject::~CGdiObject
  00011	8b 45 08	 mov	 eax, DWORD PTR ___flags$[ebp]
  00014	a8 01		 test	 al, 1
  00016	74 1f		 je	 SHORT $LN12@scalar
  00018	a8 04		 test	 al, 4
  0001a	75 10		 jne	 SHORT $LN3@scalar
; File C:\Program Files (x86)\Microsoft Visual Studio\2019\Community\VC\Tools\MSVC\14.29.30133\atlmfc\include\afx.inl

; 112  : 	{ ::operator delete(p); }

  0001c	56		 push	 esi
  0001d	e8 00 00 00 00	 call	 ??3@YAXPAX@Z		; operator delete
  00022	83 c4 04	 add	 esp, 4
  00025	8b c6		 mov	 eax, esi
  00027	5e		 pop	 esi
  00028	5d		 pop	 ebp
  00029	c2 04 00	 ret	 4
$LN3@scalar:
  0002c	6a 08		 push	 8
  0002e	56		 push	 esi
  0002f	e8 00 00 00 00	 call	 ?__global_delete@@YAXPAXI@Z ; __global_delete
  00034	83 c4 08	 add	 esp, 8
$LN12@scalar:
  00037	8b c6		 mov	 eax, esi
  00039	5e		 pop	 esi
  0003a	5d		 pop	 ebp
  0003b	c2 04 00	 ret	 4
??_GCFont@@UAEPAXI@Z ENDP				; CFont::`scalar deleting destructor'
_TEXT	ENDS
; Function compile flags: /Ogtp
; File C:\Program Files (x86)\Microsoft Visual Studio\2019\Community\VC\Tools\MSVC\14.29.30133\atlmfc\include\afxwin1.inl
;	COMDAT ??1CFont@@UAE@XZ
_TEXT	SEGMENT
??1CFont@@UAE@XZ PROC					; CFont::~CFont, COMDAT
; _this$ = ecx

; 155  : 	{ }

  00000	c7 01 00 00 00
	00		 mov	 DWORD PTR [ecx], OFFSET ??_7CFont@@6B@
  00006	e9 00 00 00 00	 jmp	 ??1CGdiObject@@UAE@XZ	; CGdiObject::~CGdiObject
??1CFont@@UAE@XZ ENDP					; CFont::~CFont
_TEXT	ENDS
; Function compile flags: /Ogtp
; File C:\Program Files (x86)\Microsoft Visual Studio\2019\Community\VC\Tools\MSVC\14.29.30133\atlmfc\include\afxwin1.inl
; File C:\Program Files (x86)\Microsoft Visual Studio\2019\Community\VC\Tools\MSVC\14.29.30133\atlmfc\include\afx.inl
;	COMDAT ??_GCPen@@UAEPAXI@Z
_TEXT	SEGMENT
___flags$ = 8						; size = 4
??_GCPen@@UAEPAXI@Z PROC				; CPen::`scalar deleting destructor', COMDAT
; _this$ = ecx
  00000	55		 push	 ebp
  00001	8b ec		 mov	 ebp, esp
; File C:\Program Files (x86)\Microsoft Visual Studio\2019\Community\VC\Tools\MSVC\14.29.30133\atlmfc\include\afxwin1.inl

; 106  : 	{ }

  00003	56		 push	 esi
  00004	8b f1		 mov	 esi, ecx
  00006	c7 06 00 00 00
	00		 mov	 DWORD PTR [esi], OFFSET ??_7CPen@@6B@
  0000c	e8 00 00 00 00	 call	 ??1CGdiObject@@UAE@XZ	; CGdiObject::~CGdiObject
  00011	8b 45 08	 mov	 eax, DWORD PTR ___flags$[ebp]
  00014	a8 01		 test	 al, 1
  00016	74 1f		 je	 SHORT $LN12@scalar
  00018	a8 04		 test	 al, 4
  0001a	75 10		 jne	 SHORT $LN3@scalar
; File C:\Program Files (x86)\Microsoft Visual Studio\2019\Community\VC\Tools\MSVC\14.29.30133\atlmfc\include\afx.inl

; 112  : 	{ ::operator delete(p); }

  0001c	56		 push	 esi
  0001d	e8 00 00 00 00	 call	 ??3@YAXPAX@Z		; operator delete
  00022	83 c4 04	 add	 esp, 4
  00025	8b c6		 mov	 eax, esi
  00027	5e		 pop	 esi
  00028	5d		 pop	 ebp
  00029	c2 04 00	 ret	 4
$LN3@scalar:
  0002c	6a 08		 push	 8
  0002e	56		 push	 esi
  0002f	e8 00 00 00 00	 call	 ?__global_delete@@YAXPAXI@Z ; __global_delete
  00034	83 c4 08	 add	 esp, 8
$LN12@scalar:
  00037	8b c6		 mov	 eax, esi
  00039	5e		 pop	 esi
  0003a	5d		 pop	 ebp
  0003b	c2 04 00	 ret	 4
??_GCPen@@UAEPAXI@Z ENDP				; CPen::`scalar deleting destructor'
_TEXT	ENDS
; Function compile flags: /Ogtp
; File C:\Program Files (x86)\Microsoft Visual Studio\2019\Community\VC\Tools\MSVC\14.29.30133\atlmfc\include\afxwin1.inl
;	COMDAT ??1CPen@@UAE@XZ
_TEXT	SEGMENT
??1CPen@@UAE@XZ PROC					; CPen::~CPen, COMDAT
; _this$ = ecx

; 106  : 	{ }

  00000	c7 01 00 00 00
	00		 mov	 DWORD PTR [ecx], OFFSET ??_7CPen@@6B@
  00006	e9 00 00 00 00	 jmp	 ??1CGdiObject@@UAE@XZ	; CGdiObject::~CGdiObject
??1CPen@@UAE@XZ ENDP					; CPen::~CPen
_TEXT	ENDS
; Function compile flags: /Ogtp
; File C:\Program Files (x86)\Microsoft Visual Studio\2019\Community\VC\Tools\MSVC\14.29.30133\atlmfc\include\afx.inl
;	COMDAT ??_GCGdiObject@@UAEPAXI@Z
_TEXT	SEGMENT
___flags$ = 8						; size = 4
??_GCGdiObject@@UAEPAXI@Z PROC				; CGdiObject::`scalar deleting destructor', COMDAT
; _this$ = ecx
  00000	55		 push	 ebp
  00001	8b ec		 mov	 ebp, esp
  00003	56		 push	 esi
  00004	8b f1		 mov	 esi, ecx
  00006	e8 00 00 00 00	 call	 ??1CGdiObject@@UAE@XZ	; CGdiObject::~CGdiObject
  0000b	8b 45 08	 mov	 eax, DWORD PTR ___flags$[ebp]
  0000e	a8 01		 test	 al, 1
  00010	74 1f		 je	 SHORT $LN9@scalar
  00012	a8 04		 test	 al, 4
  00014	75 10		 jne	 SHORT $LN3@scalar

; 112  : 	{ ::operator delete(p); }

  00016	56		 push	 esi
  00017	e8 00 00 00 00	 call	 ??3@YAXPAX@Z		; operator delete
  0001c	83 c4 04	 add	 esp, 4
  0001f	8b c6		 mov	 eax, esi
  00021	5e		 pop	 esi
  00022	5d		 pop	 ebp
  00023	c2 04 00	 ret	 4
$LN3@scalar:
  00026	6a 08		 push	 8
  00028	56		 push	 esi
  00029	e8 00 00 00 00	 call	 ?__global_delete@@YAXPAXI@Z ; __global_delete
  0002e	83 c4 08	 add	 esp, 8
$LN9@scalar:
  00031	8b c6		 mov	 eax, esi
  00033	5e		 pop	 esi
  00034	5d		 pop	 ebp
  00035	c2 04 00	 ret	 4
??_GCGdiObject@@UAEPAXI@Z ENDP				; CGdiObject::`scalar deleting destructor'
_TEXT	ENDS
; Function compile flags: /Ogtp
; File C:\Program Files (x86)\Microsoft Visual Studio\2019\Community\VC\Tools\MSVC\14.29.30133\atlmfc\include\afxwin1.inl
;	COMDAT ??1CGdiObject@@UAE@XZ
_TEXT	SEGMENT
_pException$2 = -540					; size = 4
_strMsg$3 = -536					; size = 4
_szErrorMessage$4 = -532				; size = 512
__$ArrayPad$ = -20					; size = 4
__$EHRec$ = -16						; size = 16
??1CGdiObject@@UAE@XZ PROC				; CGdiObject::~CGdiObject, COMDAT
; _this$ = ecx

; 74   : {

  00000	55		 push	 ebp
  00001	8b ec		 mov	 ebp, esp
  00003	6a ff		 push	 -1
  00005	68 00 00 00 00	 push	 __ehhandler$??1CGdiObject@@UAE@XZ
  0000a	64 a1 00 00 00
	00		 mov	 eax, DWORD PTR fs:0
  00010	50		 push	 eax
  00011	81 ec 10 02 00
	00		 sub	 esp, 528		; 00000210H
  00017	a1 00 00 00 00	 mov	 eax, DWORD PTR ___security_cookie
  0001c	33 c5		 xor	 eax, ebp
  0001e	89 45 ec	 mov	 DWORD PTR __$ArrayPad$[ebp], eax
  00021	53		 push	 ebx
  00022	56		 push	 esi
  00023	57		 push	 edi
  00024	50		 push	 eax
  00025	8d 45 f4	 lea	 eax, DWORD PTR __$EHRec$[ebp+4]
  00028	64 a3 00 00 00
	00		 mov	 DWORD PTR fs:0, eax
  0002e	89 65 f0	 mov	 DWORD PTR __$EHRec$[ebp], esp
  00031	c7 01 00 00 00
	00		 mov	 DWORD PTR [ecx], OFFSET ??_7CGdiObject@@6B@

; 75   : 	AFX_BEGIN_DESTRUCTOR

  00037	c7 45 fc 00 00
	00 00		 mov	 DWORD PTR __$EHRec$[ebp+12], 0

; 76   : 	DeleteObject();

  0003e	e8 00 00 00 00	 call	 ?DeleteObject@CGdiObject@@QAEHXZ ; CGdiObject::DeleteObject
$LN18@CGdiObject:

; 78   : }

  00043	8b 4d f4	 mov	 ecx, DWORD PTR __$EHRec$[ebp+4]
  00046	64 89 0d 00 00
	00 00		 mov	 DWORD PTR fs:0, ecx
  0004d	59		 pop	 ecx
  0004e	5f		 pop	 edi
  0004f	5e		 pop	 esi
  00050	5b		 pop	 ebx
  00051	8b 4d ec	 mov	 ecx, DWORD PTR __$ArrayPad$[ebp]
  00054	33 cd		 xor	 ecx, ebp
  00056	e8 00 00 00 00	 call	 @__security_check_cookie@4
  0005b	8b e5		 mov	 esp, ebp
  0005d	5d		 pop	 ebp
  0005e	c3		 ret	 0
__catch$??1CGdiObject@@UAE@XZ$0:

; 77   : 	AFX_END_DESTRUCTOR

  0005f	8d 8d e8 fd ff
	ff		 lea	 ecx, DWORD PTR _strMsg$3[ebp]
  00065	ff 15 00 00 00
	00		 call	 DWORD PTR __imp_??0?$CStringT@DV?$StrTraitMFC_DLL@DV?$ChTraitsCRT@D@ATL@@@@@ATL@@QAE@XZ
  0006b	8b b5 e4 fd ff
	ff		 mov	 esi, DWORD PTR _pException$2[ebp]
  00071	8d 8d ec fd ff
	ff		 lea	 ecx, DWORD PTR _szErrorMessage$4[ebp]
  00077	6a 00		 push	 0
  00079	68 00 02 00 00	 push	 512			; 00000200H
  0007e	51		 push	 ecx
  0007f	8b 06		 mov	 eax, DWORD PTR [esi]
  00081	8b ce		 mov	 ecx, esi
  00083	c6 45 fc 02	 mov	 BYTE PTR __$EHRec$[ebp+12], 2
  00087	ff 50 14	 call	 DWORD PTR [eax+20]
  0008a	85 c0		 test	 eax, eax
  0008c	74 2a		 je	 SHORT $LN9@CGdiObject
  0008e	8d 85 ec fd ff
	ff		 lea	 eax, DWORD PTR _szErrorMessage$4[ebp]
  00094	50		 push	 eax
  00095	6a 4d		 push	 77			; 0000004dH
  00097	68 00 00 00 00	 push	 OFFSET ??_C@_0HD@JJCHHHNK@C?3?2Program?5Files?5?$CIx86?$CJ?2Microsof@
  0009c	68 00 00 00 00	 push	 OFFSET ??_C@_0BP@OIEOKIDM@Exception?5thrown?5in?5destructor@
  000a1	8d 85 e8 fd ff
	ff		 lea	 eax, DWORD PTR _strMsg$3[ebp]
  000a7	68 00 00 00 00	 push	 OFFSET ??_C@_0BB@HBOOMJBF@?$CFTs?5?$CI?$CFTs?3?$CFd?$CJ?6?$CFTs@
  000ac	50		 push	 eax
  000ad	ff 15 00 00 00
	00		 call	 DWORD PTR __imp_?Format@?$CStringT@DV?$StrTraitMFC_DLL@DV?$ChTraitsCRT@D@ATL@@@@@ATL@@QAAXPBDZZ
  000b3	83 c4 18	 add	 esp, 24			; 00000018H
  000b6	eb 21		 jmp	 SHORT $LN10@CGdiObject
$LN9@CGdiObject:
  000b8	6a 4d		 push	 77			; 0000004dH
  000ba	68 00 00 00 00	 push	 OFFSET ??_C@_0HD@JJCHHHNK@C?3?2Program?5Files?5?$CIx86?$CJ?2Microsof@
  000bf	68 00 00 00 00	 push	 OFFSET ??_C@_0BP@OIEOKIDM@Exception?5thrown?5in?5destructor@
  000c4	8d 85 e8 fd ff
	ff		 lea	 eax, DWORD PTR _strMsg$3[ebp]
  000ca	68 00 00 00 00	 push	 OFFSET ??_C@_0N@OMEMOKLE@?$CFTs?5?$CI?$CFTs?3?$CFd?$CJ@
  000cf	50		 push	 eax
  000d0	ff 15 00 00 00
	00		 call	 DWORD PTR __imp_?Format@?$CStringT@DV?$StrTraitMFC_DLL@DV?$ChTraitsCRT@D@ATL@@@@@ATL@@QAAXPBDZZ
  000d6	83 c4 14	 add	 esp, 20			; 00000014H
$LN10@CGdiObject:
  000d9	6a 00		 push	 0
  000db	6a 00		 push	 0
  000dd	ff b5 e8 fd ff
	ff		 push	 DWORD PTR _strMsg$3[ebp]
  000e3	e8 00 00 00 00	 call	 ?AfxMessageBox@@YGHPBDII@Z ; AfxMessageBox
  000e8	8d 8d e8 fd ff
	ff		 lea	 ecx, DWORD PTR _strMsg$3[ebp]
  000ee	ff 15 00 00 00
	00		 call	 DWORD PTR __imp_??1?$CStringT@DV?$StrTraitMFC_DLL@DV?$ChTraitsCRT@D@ATL@@@@@ATL@@QAE@XZ
  000f4	8b 06		 mov	 eax, DWORD PTR [esi]
  000f6	8b ce		 mov	 ecx, esi
  000f8	6a 01		 push	 1
  000fa	ff 50 04	 call	 DWORD PTR [eax+4]
  000fd	b8 00 00 00 00	 mov	 eax, $LN18@CGdiObject
  00102	c3		 ret	 0
_TEXT	ENDS
;	COMDAT text$x
text$x	SEGMENT
__unwindfunclet$??1CGdiObject@@UAE@XZ$2:
  00000	8d 8d e8 fd ff
	ff		 lea	 ecx, DWORD PTR _strMsg$3[ebp]
  00006	ff 25 00 00 00
	00		 jmp	 DWORD PTR __imp_??1?$CStringT@DV?$StrTraitMFC_DLL@DV?$ChTraitsCRT@D@ATL@@@@@ATL@@QAE@XZ
  0000c	cc		 int	 3
  0000d	cc		 int	 3
  0000e	cc		 int	 3
  0000f	cc		 int	 3
  00010	cc		 int	 3
__ehhandler$??1CGdiObject@@UAE@XZ:
  00011	90		 npad	 1
  00012	90		 npad	 1
  00013	8b 54 24 08	 mov	 edx, DWORD PTR [esp+8]
  00017	8d 42 0c	 lea	 eax, DWORD PTR [edx+12]
  0001a	8b 8a e0 fd ff
	ff		 mov	 ecx, DWORD PTR [edx-544]
  00020	33 c8		 xor	 ecx, eax
  00022	e8 00 00 00 00	 call	 @__security_check_cookie@4
  00027	8b 4a f8	 mov	 ecx, DWORD PTR [edx-8]
  0002a	33 c8		 xor	 ecx, eax
  0002c	e8 00 00 00 00	 call	 @__security_check_cookie@4
  00031	b8 00 00 00 00	 mov	 eax, OFFSET __ehfuncinfo$??1CGdiObject@@UAE@XZ
  00036	e9 00 00 00 00	 jmp	 ___CxxFrameHandler3
text$x	ENDS
??1CGdiObject@@UAE@XZ ENDP				; CGdiObject::~CGdiObject
; Function compile flags: /Ogtp
; File C:\Program Files (x86)\Microsoft Visual Studio\2019\Community\VC\Tools\MSVC\14.29.30133\atlmfc\include\atlbase.h
; File C:\Program Files (x86)\Microsoft Visual Studio\2019\Community\VC\Tools\MSVC\14.29.30133\atlmfc\include\atlsimpcoll.h
; File C:\Program Files (x86)\Microsoft Visual Studio\2019\Community\VC\Tools\MSVC\14.29.30133\atlmfc\include\atlbase.h
; File C:\Program Files (x86)\Microsoft Visual Studio\2019\Community\VC\Tools\MSVC\14.29.30133\atlmfc\include\atlsimpcoll.h
; File C:\Program Files (x86)\Microsoft Visual Studio\2019\Community\VC\Tools\MSVC\14.29.30133\atlmfc\include\atlcore.h
; File C:\Program Files (x86)\Microsoft Visual Studio\2019\Community\VC\Tools\MSVC\14.29.30133\atlmfc\include\atlsimpcoll.h
; File C:\Program Files (x86)\Microsoft Visual Studio\2019\Community\VC\Tools\MSVC\14.29.30133\atlmfc\include\atlcore.h
; File C:\Program Files (x86)\Microsoft Visual Studio\2019\Community\VC\Tools\MSVC\14.29.30133\atlmfc\include\atlbase.h
; File C:\Program Files (x86)\Microsoft Visual Studio\2019\Community\VC\Tools\MSVC\14.29.30133\atlmfc\include\atlsimpcoll.h
;	COMDAT ??__F_AtlWinModule@ATL@@YAXXZ
text$yd	SEGMENT
??__F_AtlWinModule@ATL@@YAXXZ PROC			; ATL::`dynamic atexit destructor for '_AtlWinModule'', COMDAT
; File C:\Program Files (x86)\Microsoft Visual Studio\2019\Community\VC\Tools\MSVC\14.29.30133\atlmfc\include\atlbase.h

; 7655 : 	if (pWinModule->cbSize == 0)

  00000	a1 00 00 00 00	 mov	 eax, DWORD PTR ?_AtlWinModule@ATL@@3VCAtlWinModule@1@A
  00005	8b 0d 00 00 00
	00		 mov	 ecx, DWORD PTR __imp__free

; 2957 : 		AtlWinModuleTerm(this, _AtlBaseModule.GetModuleInstance());

  0000b	57		 push	 edi
  0000c	8b 3d 04 00 00
	00		 mov	 edi, DWORD PTR ?_AtlBaseModule@ATL@@3VCAtlBaseModule@1@A+4

; 7655 : 	if (pWinModule->cbSize == 0)

  00012	85 c0		 test	 eax, eax
  00014	0f 84 93 00 00
	00		 je	 $LN8@dynamic

; 7656 : 		return S_OK;
; 7657 : 	if (pWinModule->cbSize != sizeof(_ATL_WIN_MODULE))

  0001a	83 f8 2c	 cmp	 eax, 44			; 0000002cH
  0001d	0f 85 8a 00 00
	00		 jne	 $LN8@dynamic

; 7658 : 		return E_INVALIDARG;
; 7659 : 
; 7660 : 	for (int i = 0; i < pWinModule->m_rgWindowClassAtoms.GetSize(); i++)

  00023	a1 24 00 00 00	 mov	 eax, DWORD PTR ?_AtlWinModule@ATL@@3VCAtlWinModule@1@A+36
  00028	56		 push	 esi
  00029	33 f6		 xor	 esi, esi
  0002b	85 c0		 test	 eax, eax
  0002d	7e 35		 jle	 SHORT $LN10@dynamic
  0002f	53		 push	 ebx
  00030	8b 1d 00 00 00
	00		 mov	 ebx, DWORD PTR __imp__UnregisterClassA@8
$LL11@dynamic:
; File C:\Program Files (x86)\Microsoft Visual Studio\2019\Community\VC\Tools\MSVC\14.29.30133\atlmfc\include\atlsimpcoll.h

; 238  : 		if(nIndex < 0 || nIndex >= m_nSize)

  00036	85 f6		 test	 esi, esi
  00038	0f 88 9e 00 00
	00		 js	 $LN46@dynamic
  0003e	3b f0		 cmp	 esi, eax
  00040	0f 8d 96 00 00
	00		 jge	 $LN46@dynamic
; File C:\Program Files (x86)\Microsoft Visual Studio\2019\Community\VC\Tools\MSVC\14.29.30133\atlmfc\include\atlbase.h

; 7661 : 		UnregisterClass((LPCTSTR)pWinModule->m_rgWindowClassAtoms[i], hInst);

  00046	a1 20 00 00 00	 mov	 eax, DWORD PTR ?_AtlWinModule@ATL@@3VCAtlWinModule@1@A+32
  0004b	57		 push	 edi
  0004c	0f b7 04 70	 movzx	 eax, WORD PTR [eax+esi*2]
  00050	50		 push	 eax
  00051	ff d3		 call	 ebx
  00053	a1 24 00 00 00	 mov	 eax, DWORD PTR ?_AtlWinModule@ATL@@3VCAtlWinModule@1@A+36
  00058	46		 inc	 esi
  00059	3b f0		 cmp	 esi, eax
  0005b	7c d9		 jl	 SHORT $LL11@dynamic
; File C:\Program Files (x86)\Microsoft Visual Studio\2019\Community\VC\Tools\MSVC\14.29.30133\atlmfc\include\atlsimpcoll.h

; 238  : 		if(nIndex < 0 || nIndex >= m_nSize)

  0005d	8b 0d 00 00 00
	00		 mov	 ecx, DWORD PTR __imp__free
  00063	5b		 pop	 ebx
$LN10@dynamic:

; 216  : 		if(m_aT != NULL)

  00064	a1 20 00 00 00	 mov	 eax, DWORD PTR ?_AtlWinModule@ATL@@3VCAtlWinModule@1@A+32
  00069	5e		 pop	 esi
  0006a	85 c0		 test	 eax, eax
  0006c	74 10		 je	 SHORT $LN25@dynamic

; 217  : 		{
; 218  : 			for(int i = 0; i < m_nSize; i++)
; 219  : 				m_aT[i].~T();
; 220  : 			free(m_aT);

  0006e	50		 push	 eax
  0006f	ff d1		 call	 ecx
  00071	83 c4 04	 add	 esp, 4

; 221  : 			m_aT = NULL;

  00074	c7 05 20 00 00
	00 00 00 00 00	 mov	 DWORD PTR ?_AtlWinModule@ATL@@3VCAtlWinModule@1@A+32, 0
$LN25@dynamic:
; File C:\Program Files (x86)\Microsoft Visual Studio\2019\Community\VC\Tools\MSVC\14.29.30133\atlmfc\include\atlcore.h

; 155  : 		DeleteCriticalSection(&m_sec);

  0007e	68 04 00 00 00	 push	 OFFSET ?_AtlWinModule@ATL@@3VCAtlWinModule@1@A+4
; File C:\Program Files (x86)\Microsoft Visual Studio\2019\Community\VC\Tools\MSVC\14.29.30133\atlmfc\include\atlsimpcoll.h

; 223  : 		m_nSize = 0;

  00083	c7 05 24 00 00
	00 00 00 00 00	 mov	 DWORD PTR ?_AtlWinModule@ATL@@3VCAtlWinModule@1@A+36, 0

; 224  : 		m_nAllocSize = 0;

  0008d	c7 05 28 00 00
	00 00 00 00 00	 mov	 DWORD PTR ?_AtlWinModule@ATL@@3VCAtlWinModule@1@A+40, 0
; File C:\Program Files (x86)\Microsoft Visual Studio\2019\Community\VC\Tools\MSVC\14.29.30133\atlmfc\include\atlcore.h

; 155  : 		DeleteCriticalSection(&m_sec);

  00097	ff 15 00 00 00
	00		 call	 DWORD PTR __imp__DeleteCriticalSection@4
; File C:\Program Files (x86)\Microsoft Visual Studio\2019\Community\VC\Tools\MSVC\14.29.30133\atlmfc\include\atlbase.h

; 7664 : 	pWinModule->cbSize = 0;

  0009d	8b 0d 00 00 00
	00		 mov	 ecx, DWORD PTR __imp__free
  000a3	c7 05 00 00 00
	00 00 00 00 00	 mov	 DWORD PTR ?_AtlWinModule@ATL@@3VCAtlWinModule@1@A, 0
$LN8@dynamic:
; File C:\Program Files (x86)\Microsoft Visual Studio\2019\Community\VC\Tools\MSVC\14.29.30133\atlmfc\include\atlsimpcoll.h

; 216  : 		if(m_aT != NULL)

  000ad	a1 20 00 00 00	 mov	 eax, DWORD PTR ?_AtlWinModule@ATL@@3VCAtlWinModule@1@A+32
  000b2	5f		 pop	 edi
  000b3	85 c0		 test	 eax, eax
  000b5	74 10		 je	 SHORT $LN40@dynamic

; 217  : 		{
; 218  : 			for(int i = 0; i < m_nSize; i++)
; 219  : 				m_aT[i].~T();
; 220  : 			free(m_aT);

  000b7	50		 push	 eax
  000b8	ff d1		 call	 ecx
  000ba	83 c4 04	 add	 esp, 4

; 221  : 			m_aT = NULL;

  000bd	c7 05 20 00 00
	00 00 00 00 00	 mov	 DWORD PTR ?_AtlWinModule@ATL@@3VCAtlWinModule@1@A+32, 0
$LN40@dynamic:

; 223  : 		m_nSize = 0;

  000c7	c7 05 24 00 00
	00 00 00 00 00	 mov	 DWORD PTR ?_AtlWinModule@ATL@@3VCAtlWinModule@1@A+36, 0

; 224  : 		m_nAllocSize = 0;

  000d1	c7 05 28 00 00
	00 00 00 00 00	 mov	 DWORD PTR ?_AtlWinModule@ATL@@3VCAtlWinModule@1@A+40, 0
  000db	c3		 ret	 0
$LN46@dynamic:

; 240  : 			_AtlRaiseException((DWORD)EXCEPTION_ARRAY_BOUNDS_EXCEEDED);

  000dc	6a 01		 push	 1
  000de	68 8c 00 00 c0	 push	 -1073741684		; c000008cH
  000e3	e8 00 00 00 00	 call	 ?_AtlRaiseException@ATL@@YAXKK@Z ; ATL::_AtlRaiseException
$LN56@dynamic:
  000e8	cc		 int	 3
??__F_AtlWinModule@ATL@@YAXXZ ENDP			; ATL::`dynamic atexit destructor for '_AtlWinModule''
text$yd	ENDS
; Function compile flags: /Ogtp
; File C:\Program Files (x86)\Microsoft Visual Studio\2019\Community\VC\Tools\MSVC\14.29.30133\atlmfc\include\atlbase.h
; File C:\Program Files (x86)\Microsoft Visual Studio\2019\Community\VC\Tools\MSVC\14.29.30133\atlmfc\include\atlwinverapi.h
; File C:\Program Files (x86)\Microsoft Visual Studio\2019\Community\VC\Tools\MSVC\14.29.30133\atlmfc\include\atlcore.h
; File C:\Program Files (x86)\Windows Kits\10\Include\10.0.22000.0\shared\winerror.h
; File C:\Program Files (x86)\Microsoft Visual Studio\2019\Community\VC\Tools\MSVC\14.29.30133\atlmfc\include\atlbase.h
;	COMDAT ??__E_AtlWinModule@ATL@@YAXXZ
text$di	SEGMENT
??__E_AtlWinModule@ATL@@YAXXZ PROC			; ATL::`dynamic initializer for '_AtlWinModule'', COMDAT
; File C:\Program Files (x86)\Microsoft Visual Studio\2019\Community\VC\Tools\MSVC\14.29.30133\atlmfc\include\atlwinverapi.h

; 730  : 	return ::InitializeCriticalSectionEx(lpCriticalSection, dwSpinCount, Flags);

  00000	6a 00		 push	 0
  00002	6a 00		 push	 0
  00004	68 04 00 00 00	 push	 OFFSET ?_AtlWinModule@ATL@@3VCAtlWinModule@1@A+4
  00009	ff 15 00 00 00
	00		 call	 DWORD PTR __imp__InitializeCriticalSectionEx@12
; File C:\Program Files (x86)\Microsoft Visual Studio\2019\Community\VC\Tools\MSVC\14.29.30133\atlmfc\include\atlcore.h

; 145  : 		if (!_AtlInitializeCriticalSectionEx(&m_sec, 0, 0))

  0000f	85 c0		 test	 eax, eax
  00011	75 27		 jne	 SHORT $LN4@dynamic

; 146  : 		{
; 147  : 			hRes = HRESULT_FROM_WIN32(GetLastError());

  00013	ff 15 00 00 00
	00		 call	 DWORD PTR __imp__GetLastError@0
; File C:\Program Files (x86)\Windows Kits\10\Include\10.0.22000.0\shared\winerror.h

; 29673: FORCEINLINE _Translates_Win32_to_HRESULT_(x) HRESULT HRESULT_FROM_WIN32(unsigned long x) { return (HRESULT)(x) <= 0 ? (HRESULT)(x) : (HRESULT) (((x) & 0x0000FFFF) | (FACILITY_WIN32 << 16) | 0x80000000);}

  00019	85 c0		 test	 eax, eax
  0001b	7e 0a		 jle	 SHORT $LN26@dynamic
  0001d	0f b7 c0	 movzx	 eax, ax
  00020	0d 00 00 07 80	 or	 eax, -2147024896	; 80070000H
; File C:\Program Files (x86)\Microsoft Visual Studio\2019\Community\VC\Tools\MSVC\14.29.30133\atlmfc\include\atlbase.h

; 2941 : 		if (FAILED(hr))

  00025	85 c0		 test	 eax, eax
$LN26@dynamic:
  00027	79 11		 jns	 SHORT $LN4@dynamic

; 2942 : 		{
; 2943 : 			ATLASSERT(0);
; 2944 : 			CAtlBaseModule::m_bInitFailed = true;

  00029	c6 05 00 00 00
	00 01		 mov	 BYTE PTR ?m_bInitFailed@CAtlBaseModule@ATL@@2_NA, 1 ; ATL::CAtlBaseModule::m_bInitFailed

; 2945 : 			cbSize = 0;

  00030	c7 05 00 00 00
	00 00 00 00 00	 mov	 DWORD PTR ?_AtlWinModule@ATL@@3VCAtlWinModule@1@A, 0
$LN4@dynamic:

; 2972 : __declspec(selectany) CAtlWinModule _AtlWinModule;

  0003a	68 00 00 00 00	 push	 OFFSET ??__F_AtlWinModule@ATL@@YAXXZ ; ATL::`dynamic atexit destructor for '_AtlWinModule''
  0003f	e8 00 00 00 00	 call	 _atexit
  00044	59		 pop	 ecx
  00045	c3		 ret	 0
??__E_AtlWinModule@ATL@@YAXXZ ENDP			; ATL::`dynamic initializer for '_AtlWinModule''
text$di	ENDS
; Function compile flags: /Ogtp
; File C:\Program Files (x86)\Microsoft Visual Studio\2019\Community\VC\Tools\MSVC\14.29.30133\atlmfc\include\afx.inl
;	COMDAT ?_AfxInitManaged@@YAHXZ
_TEXT	SEGMENT
?_AfxInitManaged@@YAHXZ PROC				; _AfxInitManaged, COMDAT

; 87   : 	return 0;

  00000	33 c0		 xor	 eax, eax

; 88   : }

  00002	c3		 ret	 0
?_AfxInitManaged@@YAHXZ ENDP				; _AfxInitManaged
_TEXT	ENDS
; Function compile flags: /Ogtp
; File C:\Program Files (x86)\Microsoft Visual Studio\2019\Community\VC\Tools\MSVC\14.29.30133\atlmfc\include\cstringt.h
; File C:\Program Files (x86)\Microsoft Visual Studio\2019\Community\VC\Tools\MSVC\14.29.30133\atlmfc\include\atlsimpstr.h
; File C:\Program Files (x86)\Microsoft Visual Studio\2019\Community\VC\Tools\MSVC\14.29.30133\atlmfc\include\cstringt.h
; File C:\Program Files (x86)\Microsoft Visual Studio\2019\Community\VC\Tools\MSVC\14.29.30133\atlmfc\include\atlsimpstr.h
; File C:\Program Files (x86)\Microsoft Visual Studio\2019\Community\VC\Tools\MSVC\14.29.30133\atlmfc\include\cstringt.h
;	COMDAT ??HATL@@YA?AV?$CStringT@DV?$StrTraitMFC_DLL@DV?$ChTraitsCRT@D@ATL@@@@@0@ABV10@PBD@Z
_TEXT	SEGMENT
$T2 = -16						; size = 4
__$EHRec$ = -12						; size = 12
___$ReturnUdt$ = 8					; size = 4
_str1$ = 12						; size = 4
_psz2$ = 16						; size = 4
??HATL@@YA?AV?$CStringT@DV?$StrTraitMFC_DLL@DV?$ChTraitsCRT@D@ATL@@@@@0@ABV10@PBD@Z PROC ; ATL::operator+, COMDAT

; 2400 : 	{

  00000	55		 push	 ebp
  00001	8b ec		 mov	 ebp, esp
  00003	6a ff		 push	 -1
  00005	68 00 00 00 00	 push	 __ehhandler$??HATL@@YA?AV?$CStringT@DV?$StrTraitMFC_DLL@DV?$ChTraitsCRT@D@ATL@@@@@0@ABV10@PBD@Z
  0000a	64 a1 00 00 00
	00		 mov	 eax, DWORD PTR fs:0
  00010	50		 push	 eax
  00011	51		 push	 ecx
  00012	53		 push	 ebx
  00013	56		 push	 esi
  00014	57		 push	 edi
  00015	a1 00 00 00 00	 mov	 eax, DWORD PTR ___security_cookie
  0001a	33 c5		 xor	 eax, ebp
  0001c	50		 push	 eax
  0001d	8d 45 f4	 lea	 eax, DWORD PTR __$EHRec$[ebp]
  00020	64 a3 00 00 00
	00		 mov	 DWORD PTR fs:0, eax

; 2401 : 		CStringT strResult( str1.GetManager() );

  00026	8b 5d 0c	 mov	 ebx, DWORD PTR _str1$[ebp]
  00029	8b cb		 mov	 ecx, ebx
  0002b	c7 45 f0 00 00
	00 00		 mov	 DWORD PTR $T2[ebp], 0
  00032	ff 15 00 00 00
	00		 call	 DWORD PTR __imp_?GetManager@?$CStringT@DV?$StrTraitMFC_DLL@DV?$ChTraitsCRT@D@ATL@@@@@ATL@@QBEPAUIAtlStringMgr@2@XZ
  00038	8b 7d 08	 mov	 edi, DWORD PTR ___$ReturnUdt$[ebp]
  0003b	8b cf		 mov	 ecx, edi
  0003d	50		 push	 eax
  0003e	ff 15 00 00 00
	00		 call	 DWORD PTR __imp_??0?$CStringT@DV?$StrTraitMFC_DLL@DV?$ChTraitsCRT@D@ATL@@@@@ATL@@QAE@PAUIAtlStringMgr@1@@Z
; File C:\Program Files (x86)\Microsoft Visual Studio\2019\Community\VC\Tools\MSVC\14.29.30133\atlmfc\include\atlsimpstr.h

; 722  : 		if( psz == NULL )

  00044	8b 75 10	 mov	 esi, DWORD PTR _psz2$[ebp]
; File C:\Program Files (x86)\Microsoft Visual Studio\2019\Community\VC\Tools\MSVC\14.29.30133\atlmfc\include\cstringt.h

; 2405 : 		return( strResult );

  00047	c7 45 fc 00 00
	00 00		 mov	 DWORD PTR __$EHRec$[ebp+8], 0
  0004e	c7 45 f0 01 00
	00 00		 mov	 DWORD PTR $T2[ebp], 1
; File C:\Program Files (x86)\Microsoft Visual Studio\2019\Community\VC\Tools\MSVC\14.29.30133\atlmfc\include\atlsimpstr.h

; 722  : 		if( psz == NULL )

  00055	85 f6		 test	 esi, esi
  00057	75 04		 jne	 SHORT $LN6@operator

; 723  : 		{
; 724  : 			return( 0 );

  00059	33 d2		 xor	 edx, edx
  0005b	eb 0e		 jmp	 SHORT $LN5@operator
$LN6@operator:

; 725  : 		}
; 726  : 		return( int( strlen( psz ) ) );

  0005d	8b d6		 mov	 edx, esi
  0005f	8d 4a 01	 lea	 ecx, DWORD PTR [edx+1]
$LL14@operator:
  00062	8a 02		 mov	 al, BYTE PTR [edx]
  00064	42		 inc	 edx
  00065	84 c0		 test	 al, al
  00067	75 f9		 jne	 SHORT $LL14@operator
  00069	2b d1		 sub	 edx, ecx
$LN5@operator:

; 519  : 		return( GetData()->nDataLength );

  0006b	8b 0b		 mov	 ecx, DWORD PTR [ebx]
; File C:\Program Files (x86)\Microsoft Visual Studio\2019\Community\VC\Tools\MSVC\14.29.30133\atlmfc\include\cstringt.h

; 2403 : 		CThisSimpleString::Concatenate( strResult, str1, str1.GetLength(), psz2, CThisSimpleString::StringLength( psz2 ) );

  0006d	52		 push	 edx
  0006e	56		 push	 esi
  0006f	ff 71 f4	 push	 DWORD PTR [ecx-12]
  00072	51		 push	 ecx
  00073	57		 push	 edi
  00074	ff 15 00 00 00
	00		 call	 DWORD PTR __imp_?Concatenate@?$CSimpleStringT@D$00@ATL@@KAXAAV12@PBDH1H@Z
  0007a	83 c4 14	 add	 esp, 20			; 00000014H

; 2405 : 		return( strResult );

  0007d	8b c7		 mov	 eax, edi

; 2406 : 	}

  0007f	8b 4d f4	 mov	 ecx, DWORD PTR __$EHRec$[ebp]
  00082	64 89 0d 00 00
	00 00		 mov	 DWORD PTR fs:0, ecx
  00089	59		 pop	 ecx
  0008a	5f		 pop	 edi
  0008b	5e		 pop	 esi
  0008c	5b		 pop	 ebx
  0008d	8b e5		 mov	 esp, ebp
  0008f	5d		 pop	 ebp
  00090	c3		 ret	 0
_TEXT	ENDS
;	COMDAT text$x
text$x	SEGMENT
__unwindfunclet$??HATL@@YA?AV?$CStringT@DV?$StrTraitMFC_DLL@DV?$ChTraitsCRT@D@ATL@@@@@0@ABV10@PBD@Z$0:
  00000	8b 45 f0	 mov	 eax, DWORD PTR $T2[ebp]
  00003	83 e0 01	 and	 eax, 1
  00006	0f 84 0d 00 00
	00		 je	 $LN4@operator
  0000c	83 65 f0 fe	 and	 DWORD PTR $T2[ebp], -2	; fffffffeH
  00010	8b 4d 08	 mov	 ecx, DWORD PTR ___$ReturnUdt$[ebp]
  00013	ff 25 00 00 00
	00		 jmp	 DWORD PTR __imp_??1?$CStringT@DV?$StrTraitMFC_DLL@DV?$ChTraitsCRT@D@ATL@@@@@ATL@@QAE@XZ
$LN4@operator:
  00019	c3		 ret	 0
  0001a	cc		 int	 3
  0001b	cc		 int	 3
  0001c	cc		 int	 3
  0001d	cc		 int	 3
  0001e	cc		 int	 3
__ehhandler$??HATL@@YA?AV?$CStringT@DV?$StrTraitMFC_DLL@DV?$ChTraitsCRT@D@ATL@@@@@0@ABV10@PBD@Z:
  0001f	90		 npad	 1
  00020	90		 npad	 1
  00021	8b 54 24 08	 mov	 edx, DWORD PTR [esp+8]
  00025	8d 42 0c	 lea	 eax, DWORD PTR [edx+12]
  00028	8b 4a ec	 mov	 ecx, DWORD PTR [edx-20]
  0002b	33 c8		 xor	 ecx, eax
  0002d	e8 00 00 00 00	 call	 @__security_check_cookie@4
  00032	b8 00 00 00 00	 mov	 eax, OFFSET __ehfuncinfo$??HATL@@YA?AV?$CStringT@DV?$StrTraitMFC_DLL@DV?$ChTraitsCRT@D@ATL@@@@@0@ABV10@PBD@Z
  00037	e9 00 00 00 00	 jmp	 ___CxxFrameHandler3
text$x	ENDS
??HATL@@YA?AV?$CStringT@DV?$StrTraitMFC_DLL@DV?$ChTraitsCRT@D@ATL@@@@@0@ABV10@PBD@Z ENDP ; ATL::operator+
; Function compile flags: /Ogtp
; File C:\Program Files (x86)\Microsoft Visual Studio\2019\Community\VC\Tools\MSVC\14.29.30133\atlmfc\include\atlwinverapi.h
;	COMDAT ?_AtlInitializeCriticalSectionEx@ATL@@YAHPAU_RTL_CRITICAL_SECTION@@KK@Z
_TEXT	SEGMENT
_lpCriticalSection$ = 8					; size = 4
_dwSpinCount$ = 12					; size = 4
_Flags$ = 16						; size = 4
?_AtlInitializeCriticalSectionEx@ATL@@YAHPAU_RTL_CRITICAL_SECTION@@KK@Z PROC ; ATL::_AtlInitializeCriticalSectionEx, COMDAT

; 727  : {

  00000	55		 push	 ebp
  00001	8b ec		 mov	 ebp, esp

; 728  : #if (NTDDI_VERSION >= NTDDI_VISTA) && !defined(_USING_V110_SDK71_) && !defined(_ATL_XP_TARGETING)
; 729  : 	// InitializeCriticalSectionEx is available in Vista or later, desktop or store apps
; 730  : 	return ::InitializeCriticalSectionEx(lpCriticalSection, dwSpinCount, Flags);

  00003	ff 75 10	 push	 DWORD PTR _Flags$[ebp]
  00006	ff 75 0c	 push	 DWORD PTR _dwSpinCount$[ebp]
  00009	ff 75 08	 push	 DWORD PTR _lpCriticalSection$[ebp]
  0000c	ff 15 00 00 00
	00		 call	 DWORD PTR __imp__InitializeCriticalSectionEx@12

; 731  : #else
; 732  : 	UNREFERENCED_PARAMETER(Flags);
; 733  : 
; 734  : 	// ...otherwise fall back to using InitializeCriticalSectionAndSpinCount.
; 735  : 	return ::InitializeCriticalSectionAndSpinCount(lpCriticalSection, dwSpinCount);
; 736  : #endif
; 737  : }

  00012	5d		 pop	 ebp
  00013	c3		 ret	 0
?_AtlInitializeCriticalSectionEx@ATL@@YAHPAU_RTL_CRITICAL_SECTION@@KK@Z ENDP ; ATL::_AtlInitializeCriticalSectionEx
_TEXT	ENDS
; Function compile flags: /Ogtp
; File C:\Program Files (x86)\Microsoft Visual Studio\2019\Community\VC\Tools\MSVC\14.29.30133\atlmfc\include\atlexcept.h
;	COMDAT ?_AtlRaiseException@ATL@@YAXKK@Z
_TEXT	SEGMENT
_dwExceptionCode$ = 8					; size = 4
_dwExceptionFlags$ = 12					; size = 4
?_AtlRaiseException@ATL@@YAXKK@Z PROC			; ATL::_AtlRaiseException, COMDAT

; 30   : {

  00000	55		 push	 ebp
  00001	8b ec		 mov	 ebp, esp

; 31   : 	RaiseException( dwExceptionCode, dwExceptionFlags, 0, NULL );

  00003	6a 00		 push	 0
  00005	6a 00		 push	 0
  00007	ff 75 0c	 push	 DWORD PTR _dwExceptionFlags$[ebp]
  0000a	ff 75 08	 push	 DWORD PTR _dwExceptionCode$[ebp]
  0000d	ff 15 00 00 00
	00		 call	 DWORD PTR __imp__RaiseException@16

; 32   : }

  00013	5d		 pop	 ebp
  00014	c3		 ret	 0
?_AtlRaiseException@ATL@@YAXKK@Z ENDP			; ATL::_AtlRaiseException
_TEXT	ENDS
; Function compile flags: /Ogtp
; File C:\Program Files (x86)\Microsoft Visual Studio\2019\Community\VC\Tools\MSVC\14.29.30133\atlmfc\include\afx.inl
;	COMDAT ?Dump@CObject@@UBEXAAVCDumpContext@@@Z
_TEXT	SEGMENT
___formal$ = 8						; size = 4
?Dump@CObject@@UBEXAAVCDumpContext@@@Z PROC		; CObject::Dump, COMDAT
; _this$ = ecx

; 122  : 	{ /* no dumping in release builds */ }

  00000	c2 04 00	 ret	 4
?Dump@CObject@@UBEXAAVCDumpContext@@@Z ENDP		; CObject::Dump
_TEXT	ENDS
; Function compile flags: /Ogtp
; File C:\Program Files (x86)\Microsoft Visual Studio\2019\Community\VC\Tools\MSVC\14.29.30133\atlmfc\include\afx.inl
;	COMDAT ?AssertValid@CObject@@UBEXXZ
_TEXT	SEGMENT
?AssertValid@CObject@@UBEXXZ PROC			; CObject::AssertValid, COMDAT
; _this$ = ecx

; 120  : 	{ /* no asserts in release builds */ }

  00000	c2 00 00	 ret	 0
?AssertValid@CObject@@UBEXXZ ENDP			; CObject::AssertValid
_TEXT	ENDS
; Function compile flags: /Ogtp
; File C:\Program Files (x86)\Microsoft Visual Studio\2019\Community\VC\Tools\MSVC\14.29.30133\atlmfc\include\afx.inl
;	COMDAT ?Serialize@CObject@@UAEXAAVCArchive@@@Z
_TEXT	SEGMENT
___formal$ = 8						; size = 4
?Serialize@CObject@@UAEXAAVCArchive@@@Z PROC		; CObject::Serialize, COMDAT
; _this$ = ecx

; 106  : 	{ /* CObject does not serialize anything by default */ }

  00000	c2 04 00	 ret	 4
?Serialize@CObject@@UAEXAAVCArchive@@@Z ENDP		; CObject::Serialize
_TEXT	ENDS
; Function compile flags: /Ogtp
; File C:\Program Files (x86)\Microsoft Visual Studio\2019\Community\VC\Tools\MSVC\14.29.30133\atlmfc\include\afx.inl
;	COMDAT ??3CObject@@SGXPAX@Z
_TEXT	SEGMENT
_p$ = 8							; size = 4
??3CObject@@SGXPAX@Z PROC				; CObject::operator delete, COMDAT

; 112  : 	{ ::operator delete(p); }

  00000	55		 push	 ebp
  00001	8b ec		 mov	 ebp, esp
  00003	ff 75 08	 push	 DWORD PTR _p$[ebp]
  00006	e8 00 00 00 00	 call	 ??3@YAXPAX@Z		; operator delete
  0000b	83 c4 04	 add	 esp, 4
  0000e	5d		 pop	 ebp
  0000f	c2 04 00	 ret	 4
??3CObject@@SGXPAX@Z ENDP				; CObject::operator delete
_TEXT	ENDS
; Function compile flags: /Ogtp
; File C:\Program Files (x86)\Microsoft Visual Studio\2019\Community\VC\Tools\MSVC\14.29.30133\atlmfc\include\afx.inl
;	COMDAT ??1CObject@@UAE@XZ
_TEXT	SEGMENT
??1CObject@@UAE@XZ PROC					; CObject::~CObject, COMDAT
; _this$ = ecx

; 104  : 	{ }

  00000	c2 00 00	 ret	 0
??1CObject@@UAE@XZ ENDP					; CObject::~CObject
_TEXT	ENDS
; Function compile flags: /Ogtp
; File C:\Program Files (x86)\Microsoft Visual Studio\2019\Community\VC\Tools\MSVC\14.29.30133\atlmfc\include\afx.h
;	COMDAT ?AfxCrtErrorCheck@@YAHH@Z
_TEXT	SEGMENT
_error$ = 8						; size = 4
?AfxCrtErrorCheck@@YAHH@Z PROC				; AfxCrtErrorCheck, COMDAT

; 503  : {

  00000	55		 push	 ebp
  00001	8b ec		 mov	 ebp, esp

; 504  : 	switch(error)

  00003	8b 4d 08	 mov	 ecx, DWORD PTR _error$[ebp]
  00006	83 f9 50	 cmp	 ecx, 80			; 00000050H
  00009	77 17		 ja	 SHORT $LN9@AfxCrtErro
  0000b	0f b6 81 00 00
	00 00		 movzx	 eax, BYTE PTR $LN11@AfxCrtErro[ecx]
  00012	ff 24 85 00 00
	00 00		 jmp	 DWORD PTR $LN12@AfxCrtErro[eax*4]
$LN4@AfxCrtErro:

; 505  : 	{
; 506  : 	case ENOMEM:
; 507  : 		AfxThrowMemoryException();

  00019	e9 00 00 00 00	 jmp	 ?AfxThrowMemoryException@@YGXXZ ; AfxThrowMemoryException
$LN7@AfxCrtErro:

; 518  : 		break;
; 519  : 	}
; 520  : 	return error;

  0001e	8b c1		 mov	 eax, ecx

; 521  : }

  00020	5d		 pop	 ebp
  00021	c3		 ret	 0
$LN9@AfxCrtErro:

; 508  : 		break;
; 509  : 	case EINVAL:
; 510  : 	case ERANGE:
; 511  : 		AfxThrowInvalidArgException();
; 512  : 		break;
; 513  : 	case STRUNCATE:
; 514  : 	case 0:
; 515  : 		break;
; 516  : 	default:
; 517  : 		AfxThrowInvalidArgException();

  00022	e9 00 00 00 00	 jmp	 ?AfxThrowInvalidArgException@@YGXXZ ; AfxThrowInvalidArgException
  00027	90		 npad	 1
$LN12@AfxCrtErro:

; 521  : }

  00028	00 00 00 00	 DD	 $LN7@AfxCrtErro
  0002c	00 00 00 00	 DD	 $LN4@AfxCrtErro
  00030	00 00 00 00	 DD	 $LN9@AfxCrtErro
  00034	00 00 00 00	 DD	 $LN9@AfxCrtErro
$LN11@AfxCrtErro:
  00038	00		 DB	 0
  00039	03		 DB	 3
  0003a	03		 DB	 3
  0003b	03		 DB	 3
  0003c	03		 DB	 3
  0003d	03		 DB	 3
  0003e	03		 DB	 3
  0003f	03		 DB	 3
  00040	03		 DB	 3
  00041	03		 DB	 3
  00042	03		 DB	 3
  00043	03		 DB	 3
  00044	01		 DB	 1
  00045	03		 DB	 3
  00046	03		 DB	 3
  00047	03		 DB	 3
  00048	03		 DB	 3
  00049	03		 DB	 3
  0004a	03		 DB	 3
  0004b	03		 DB	 3
  0004c	03		 DB	 3
  0004d	03		 DB	 3
  0004e	02		 DB	 2
  0004f	03		 DB	 3
  00050	03		 DB	 3
  00051	03		 DB	 3
  00052	03		 DB	 3
  00053	03		 DB	 3
  00054	03		 DB	 3
  00055	03		 DB	 3
  00056	03		 DB	 3
  00057	03		 DB	 3
  00058	03		 DB	 3
  00059	03		 DB	 3
  0005a	02		 DB	 2
  0005b	03		 DB	 3
  0005c	03		 DB	 3
  0005d	03		 DB	 3
  0005e	03		 DB	 3
  0005f	03		 DB	 3
  00060	03		 DB	 3
  00061	03		 DB	 3
  00062	03		 DB	 3
  00063	03		 DB	 3
  00064	03		 DB	 3
  00065	03		 DB	 3
  00066	03		 DB	 3
  00067	03		 DB	 3
  00068	03		 DB	 3
  00069	03		 DB	 3
  0006a	03		 DB	 3
  0006b	03		 DB	 3
  0006c	03		 DB	 3
  0006d	03		 DB	 3
  0006e	03		 DB	 3
  0006f	03		 DB	 3
  00070	03		 DB	 3
  00071	03		 DB	 3
  00072	03		 DB	 3
  00073	03		 DB	 3
  00074	03		 DB	 3
  00075	03		 DB	 3
  00076	03		 DB	 3
  00077	03		 DB	 3
  00078	03		 DB	 3
  00079	03		 DB	 3
  0007a	03		 DB	 3
  0007b	03		 DB	 3
  0007c	03		 DB	 3
  0007d	03		 DB	 3
  0007e	03		 DB	 3
  0007f	03		 DB	 3
  00080	03		 DB	 3
  00081	03		 DB	 3
  00082	03		 DB	 3
  00083	03		 DB	 3
  00084	03		 DB	 3
  00085	03		 DB	 3
  00086	03		 DB	 3
  00087	03		 DB	 3
  00088	00		 DB	 0
?AfxCrtErrorCheck@@YAHH@Z ENDP				; AfxCrtErrorCheck
_TEXT	ENDS
; Function compile flags: /Ogtp
; File C:\Program Files (x86)\Windows Kits\10\Include\10.0.22000.0\ucrt\stdio.h
;	COMDAT _sscanf
_TEXT	SEGMENT
__Buffer$ = 8						; size = 4
__Format$ = 12						; size = 4
_sscanf	PROC						; COMDAT

; 2247 :     {

  00000	55		 push	 ebp
  00001	8b ec		 mov	 ebp, esp

; 2153 :         return __stdio_common_vsscanf(

  00003	8d 45 10	 lea	 eax, DWORD PTR __Format$[ebp+4]
  00006	50		 push	 eax
  00007	6a 00		 push	 0
  00009	ff 75 0c	 push	 DWORD PTR __Format$[ebp]
  0000c	6a ff		 push	 -1
  0000e	ff 75 08	 push	 DWORD PTR __Buffer$[ebp]
  00011	e8 00 00 00 00	 call	 ___local_stdio_scanf_options
  00016	ff 70 04	 push	 DWORD PTR [eax+4]
  00019	ff 30		 push	 DWORD PTR [eax]
  0001b	ff 15 00 00 00
	00		 call	 DWORD PTR __imp____stdio_common_vsscanf
  00021	83 c4 1c	 add	 esp, 28			; 0000001cH

; 2248 :         int _Result;
; 2249 :         va_list _ArgList;
; 2250 :         __crt_va_start(_ArgList, _Format);
; 2251 :         _Result = _vsscanf_l(_Buffer, _Format, NULL, _ArgList);
; 2252 :         __crt_va_end(_ArgList);
; 2253 :         return _Result;
; 2254 :     }

  00024	5d		 pop	 ebp
  00025	c3		 ret	 0
_sscanf	ENDP
_TEXT	ENDS
; Function compile flags: /Ogtp
; File C:\Program Files (x86)\Windows Kits\10\Include\10.0.22000.0\ucrt\stdio.h
;	COMDAT _sprintf
_TEXT	SEGMENT
__Buffer$ = 8						; size = 4
__Format$ = 12						; size = 4
_sprintf PROC						; COMDAT

; 1771 :     {

  00000	55		 push	 ebp
  00001	8b ec		 mov	 ebp, esp

; 1392 :         int const _Result = __stdio_common_vsprintf(

  00003	8d 45 10	 lea	 eax, DWORD PTR __Format$[ebp+4]
  00006	50		 push	 eax
  00007	6a 00		 push	 0
  00009	ff 75 0c	 push	 DWORD PTR __Format$[ebp]
  0000c	6a ff		 push	 -1
  0000e	ff 75 08	 push	 DWORD PTR __Buffer$[ebp]
  00011	e8 00 00 00 00	 call	 ___local_stdio_printf_options
  00016	8b 08		 mov	 ecx, DWORD PTR [eax]
  00018	ff 70 04	 push	 DWORD PTR [eax+4]
  0001b	83 c9 01	 or	 ecx, 1
  0001e	51		 push	 ecx
  0001f	ff 15 00 00 00
	00		 call	 DWORD PTR __imp____stdio_common_vsprintf

; 1393 :             _CRT_INTERNAL_LOCAL_PRINTF_OPTIONS | _CRT_INTERNAL_PRINTF_LEGACY_VSPRINTF_NULL_TERMINATION,
; 1394 :             _Buffer, _BufferCount, _Format, _Locale, _ArgList);
; 1395 : 
; 1396 :         return _Result < 0 ? -1 : _Result;

  00025	83 c9 ff	 or	 ecx, -1
  00028	83 c4 1c	 add	 esp, 28			; 0000001cH
  0002b	85 c0		 test	 eax, eax
  0002d	0f 48 c1	 cmovs	 eax, ecx

; 1772 :         int _Result;
; 1773 :         va_list _ArgList;
; 1774 :         __crt_va_start(_ArgList, _Format);
; 1775 : 
; 1776 :         _Result = _vsprintf_l(_Buffer, _Format, NULL, _ArgList);
; 1777 : 
; 1778 :         __crt_va_end(_ArgList);
; 1779 :         return _Result;
; 1780 :     }

  00030	5d		 pop	 ebp
  00031	c3		 ret	 0
_sprintf ENDP
_TEXT	ENDS
; Function compile flags: /Ogtp
; File C:\Program Files (x86)\Windows Kits\10\Include\10.0.22000.0\ucrt\corecrt_stdio_config.h
;	COMDAT ___local_stdio_scanf_options
_TEXT	SEGMENT
___local_stdio_scanf_options PROC			; COMDAT

; 101  :         static unsigned __int64 _OptionsStorage;
; 102  :         return &_OptionsStorage;

  00000	b8 00 00 00 00	 mov	 eax, OFFSET ?_OptionsStorage@?1??__local_stdio_scanf_options@@9@4_KA ; `__local_stdio_scanf_options'::`2'::_OptionsStorage

; 103  :     }

  00005	c3		 ret	 0
___local_stdio_scanf_options ENDP
_TEXT	ENDS
; Function compile flags: /Ogtp
; File C:\Program Files (x86)\Windows Kits\10\Include\10.0.22000.0\ucrt\corecrt_stdio_config.h
;	COMDAT ___local_stdio_printf_options
_TEXT	SEGMENT
___local_stdio_printf_options PROC			; COMDAT

; 91   :         static unsigned __int64 _OptionsStorage;
; 92   :         return &_OptionsStorage;

  00000	b8 00 00 00 00	 mov	 eax, OFFSET ?_OptionsStorage@?1??__local_stdio_printf_options@@9@4_KA ; `__local_stdio_printf_options'::`2'::_OptionsStorage

; 93   :     }

  00005	c3		 ret	 0
___local_stdio_printf_options ENDP
_TEXT	ENDS
; Function compile flags: /Ogtp
; File D:\git\src\IBK\IBK_DRFN\ProjSrc\SrcDrfn\Chart\MULTICHART\DlgToolbar.cpp
;	COMDAT ?__empty_global_delete@@YAXPAXI@Z
_TEXT	SEGMENT
___formal$ = 8						; size = 4
___formal$ = 12						; size = 4
?__empty_global_delete@@YAXPAXI@Z PROC			; __empty_global_delete, COMDAT

  00000	c2 00 00	 ret	 0
?__empty_global_delete@@YAXPAXI@Z ENDP			; __empty_global_delete
_TEXT	ENDS
; Function compile flags: /Ogtp
; File D:\git\src\IBK\IBK_DRFN\ProjSrc\SrcDrfn\Chart\MULTICHART\DlgToolbar.cpp
;	COMDAT ?__empty_global_delete@@YAXPAX@Z
_TEXT	SEGMENT
___formal$ = 8						; size = 4
?__empty_global_delete@@YAXPAX@Z PROC			; __empty_global_delete, COMDAT

  00000	c2 00 00	 ret	 0
?__empty_global_delete@@YAXPAX@Z ENDP			; __empty_global_delete
_TEXT	ENDS
END
