; Listing generated by Microsoft (R) Optimizing Compiler Version 19.29.30148.0 

	TITLE	D:\git\src\IBK\IBK_DRFN\#DRfn-CS\_Obj\MultiChart\DllSTLoader.obj
	.686P
	.XMM
	include listing.inc
	.model	flat

INCLUDELIB MSVCRT
INCLUDELIB OLDNAMES

PUBLIC	?__empty_global_delete@@YAXPAX@Z		; __empty_global_delete
PUBLIC	?__empty_global_delete@@YAXPAXI@Z		; __empty_global_delete
PUBLIC	??0CDllSTLoader@@QAE@XZ				; CDllSTLoader::CDllSTLoader
PUBLIC	??1CDllSTLoader@@UAE@XZ				; CDllSTLoader::~CDllSTLoader
PUBLIC	?Load@CDllSTLoader@@QAEJPBDPAUHWND__@@J0H0J@Z	; CDllSTLoader::Load
PUBLIC	?Execute@CDllSTLoader@@QAEJPBD@Z		; CDllSTLoader::Execute
PUBLIC	?Stop@CDllSTLoader@@QAEJXZ			; CDllSTLoader::Stop
PUBLIC	?Pause@CDllSTLoader@@QAEJXZ			; CDllSTLoader::Pause
PUBLIC	?Update@CDllSTLoader@@QAEJJH@Z			; CDllSTLoader::Update
PUBLIC	?Unload@CDllSTLoader@@QAEJXZ			; CDllSTLoader::Unload
PUBLIC	?Command@CDllSTLoader@@QAEJPBD0@Z		; CDllSTLoader::Command
PUBLIC	?GetInput@CDllSTLoader@@QAE?AV?$CStringT@DV?$StrTraitMFC_DLL@DV?$ChTraitsCRT@D@ATL@@@@@ATL@@J@Z ; CDllSTLoader::GetInput
PUBLIC	?LoadDLL@CDllSTLoader@@AAEHPBD@Z		; CDllSTLoader::LoadDLL
PUBLIC	?UnloadDLL@CDllSTLoader@@AAEHXZ			; CDllSTLoader::UnloadDLL
PUBLIC	??_GCDllSTLoader@@UAEPAXI@Z			; CDllSTLoader::`scalar deleting destructor'
PUBLIC	??_7CDllSTLoader@@6B@				; CDllSTLoader::`vftable'
PUBLIC	??_C@_0BO@KOBAMCF@?$CFs?$MA?$LL?5Load?G?R?5?$LM?v?5?$LO?x?$LN?$MA?$LE?O?$LE?Y?4?$CI?$CFld?$CJ@ ; `string'
PUBLIC	??_C@_0M@BCNLAOEG@fnGetInputs@			; `string'
PUBLIC	??_C@_0CL@EIFKDBLI@?$CFs?$LP?$KB?$LM?$KN?5fnGetInputs?G?T?$LM?v?$LI?$KG?5?C?$KD?$MA?$LL?5?$LM@ ; `string'
PUBLIC	??_C@_08CJNMDFGE@fnLoadST@			; `string'
PUBLIC	??_C@_0CI@EINJOEOM@?$CFs?$LP?$KB?$LM?$KN?5fnLoadST?G?T?$LM?v?$LI?$KG?5?C?$KD?$MA?$LL?5?$LM?v?5?$LO@ ; `string'
PUBLIC	??_C@_0L@LBMDNBF@fnUnloadST@			; `string'
PUBLIC	??_C@_0CK@KJJCAAPE@?$CFs?$LP?$KB?$LM?$KN?5fnUnloadST?G?T?$LM?v?$LI?$KG?5?C?$KD?$MA?$LL?5?$LM?v@ ; `string'
PUBLIC	??_C@_0M@LLDCMNDN@fnExecuteST@			; `string'
PUBLIC	??_C@_0CL@KBJHENCJ@?$CFs?$LP?$KB?$LM?$KN?5fnExecuteST?G?T?$LM?v?$LI?$KG?5?C?$KD?$MA?$LL?5?$LM@ ; `string'
PUBLIC	??_C@_08LBBAFFLC@fnStopST@			; `string'
PUBLIC	??_C@_0CI@NHCBICMH@?$CFs?$LP?$KB?$LM?$KN?5fnStopST?G?T?$LM?v?$LI?$KG?5?C?$KD?$MA?$LL?5?$LM?v?5?$LO@ ; `string'
PUBLIC	??_C@_09HFICAEPK@fnPauseST@			; `string'
PUBLIC	??_C@_0CK@FGAPMHCA@?$CFs?$LP?$KB?$LM?$KN?5fnPauseST?5?G?T?$LM?v?$LI?$KG?5?C?$KD?$MA?$LL?5?$LM?v@ ; `string'
PUBLIC	??_C@_0L@HLHEEOIM@fnUpdateST@			; `string'
PUBLIC	??_C@_0CL@OMDOJGPO@?$CFs?$LP?$KB?$LM?$KN?5fnUpdateST?5?G?T?$LM?v?$LI?$KG?5?C?$KD?$MA?$LL?5?$LM@ ; `string'
PUBLIC	??_C@_0M@PHPMFKOB@fnCommandST@			; `string'
PUBLIC	??_C@_0CM@CNMLDCCM@?$CFs?$LP?$KB?$LM?$KN?5fnCommandST?5?G?T?$LM?v?$LI?$KG?5?C?$KD?$MA?$LL?5@ ; `string'
PUBLIC	??_C@_0BI@CICMPJHD@CDllSTLoader?3?3Unload?$CI0?$CJ@ ; `string'
PUBLIC	??_C@_0BJ@DNCEOOBO@CDllSTLoader?3?3Unload?$CI?91?$CJ@ ; `string'
PUBLIC	??_C@_01IPJKGB@?$CD@				; `string'
PUBLIC	??_R4CDllSTLoader@@6B@				; CDllSTLoader::`RTTI Complete Object Locator'
PUBLIC	??_R0?AVCDllSTLoader@@@8			; CDllSTLoader `RTTI Type Descriptor'
PUBLIC	??_R3CDllSTLoader@@8				; CDllSTLoader::`RTTI Class Hierarchy Descriptor'
PUBLIC	??_R2CDllSTLoader@@8				; CDllSTLoader::`RTTI Base Class Array'
PUBLIC	??_R1A@?0A@EA@CDllSTLoader@@8			; CDllSTLoader::`RTTI Base Class Descriptor at (0,-1,0,64)'
EXTRN	??3@YAXPAXI@Z:PROC				; operator delete
EXTRN	___std_terminate:PROC
EXTRN	__imp__GetLastError@0:PROC
EXTRN	__imp__FreeLibrary@4:PROC
EXTRN	__imp__GetProcAddress@8:PROC
EXTRN	__imp__LoadLibraryA@4:PROC
EXTRN	__imp_??0?$CStringT@DV?$StrTraitMFC_DLL@DV?$ChTraitsCRT@D@ATL@@@@@ATL@@QAE@XZ:PROC
EXTRN	__imp_??0?$CStringT@DV?$StrTraitMFC_DLL@DV?$ChTraitsCRT@D@ATL@@@@@ATL@@QAE@ABV01@@Z:PROC
EXTRN	__imp_??0?$CStringT@DV?$StrTraitMFC_DLL@DV?$ChTraitsCRT@D@ATL@@@@@ATL@@QAE@PBD@Z:PROC
EXTRN	__imp_??1?$CStringT@DV?$StrTraitMFC_DLL@DV?$ChTraitsCRT@D@ATL@@@@@ATL@@QAE@XZ:PROC
EXTRN	__imp_??4?$CStringT@DV?$StrTraitMFC_DLL@DV?$ChTraitsCRT@D@ATL@@@@@ATL@@QAEAAV01@PBD@Z:PROC
EXTRN	__imp_?Format@?$CStringT@DV?$StrTraitMFC_DLL@DV?$ChTraitsCRT@D@ATL@@@@@ATL@@QAAXPBDZZ:PROC
EXTRN	?AfxMessageBox@@YGHPBDII@Z:PROC			; AfxMessageBox
EXTRN	??_ECDllSTLoader@@UAEPAXI@Z:PROC		; CDllSTLoader::`vector deleting destructor'
EXTRN	@__security_check_cookie@4:PROC
EXTRN	___CxxFrameHandler3:PROC
EXTRN	??_7type_info@@6B@:QWORD			; type_info::`vftable'
EXTRN	___security_cookie:DWORD
;	COMDAT ??_R1A@?0A@EA@CDllSTLoader@@8
rdata$r	SEGMENT
??_R1A@?0A@EA@CDllSTLoader@@8 DD FLAT:??_R0?AVCDllSTLoader@@@8 ; CDllSTLoader::`RTTI Base Class Descriptor at (0,-1,0,64)'
	DD	00H
	DD	00H
	DD	0ffffffffH
	DD	00H
	DD	040H
	DD	FLAT:??_R3CDllSTLoader@@8
rdata$r	ENDS
;	COMDAT ??_R2CDllSTLoader@@8
rdata$r	SEGMENT
??_R2CDllSTLoader@@8 DD FLAT:??_R1A@?0A@EA@CDllSTLoader@@8 ; CDllSTLoader::`RTTI Base Class Array'
rdata$r	ENDS
;	COMDAT ??_R3CDllSTLoader@@8
rdata$r	SEGMENT
??_R3CDllSTLoader@@8 DD 00H				; CDllSTLoader::`RTTI Class Hierarchy Descriptor'
	DD	00H
	DD	01H
	DD	FLAT:??_R2CDllSTLoader@@8
rdata$r	ENDS
;	COMDAT ??_R0?AVCDllSTLoader@@@8
data$rs	SEGMENT
??_R0?AVCDllSTLoader@@@8 DD FLAT:??_7type_info@@6B@	; CDllSTLoader `RTTI Type Descriptor'
	DD	00H
	DB	'.?AVCDllSTLoader@@', 00H
data$rs	ENDS
;	COMDAT ??_R4CDllSTLoader@@6B@
rdata$r	SEGMENT
??_R4CDllSTLoader@@6B@ DD 00H				; CDllSTLoader::`RTTI Complete Object Locator'
	DD	00H
	DD	00H
	DD	FLAT:??_R0?AVCDllSTLoader@@@8
	DD	FLAT:??_R3CDllSTLoader@@8
rdata$r	ENDS
;	COMDAT ??_C@_01IPJKGB@?$CD@
CONST	SEGMENT
??_C@_01IPJKGB@?$CD@ DB '#', 00H			; `string'
CONST	ENDS
;	COMDAT ??_C@_0BJ@DNCEOOBO@CDllSTLoader?3?3Unload?$CI?91?$CJ@
CONST	SEGMENT
??_C@_0BJ@DNCEOOBO@CDllSTLoader?3?3Unload?$CI?91?$CJ@ DB 'CDllSTLoader::U'
	DB	'nload(-1)', 00H				; `string'
CONST	ENDS
;	COMDAT ??_C@_0BI@CICMPJHD@CDllSTLoader?3?3Unload?$CI0?$CJ@
CONST	SEGMENT
??_C@_0BI@CICMPJHD@CDllSTLoader?3?3Unload?$CI0?$CJ@ DB 'CDllSTLoader::Unl'
	DB	'oad(0)', 00H				; `string'
CONST	ENDS
;	COMDAT ??_C@_0CM@CNMLDCCM@?$CFs?$LP?$KB?$LM?$KN?5fnCommandST?5?G?T?$LM?v?$LI?$KG?5?C?$KD?$MA?$LL?5@
CONST	SEGMENT
??_C@_0CM@CNMLDCCM@?$CFs?$LP?$KB?$LM?$KN?5fnCommandST?5?G?T?$LM?v?$LI?$KG?5?C?$KD?$MA?$LL?5@ DB '%'
	DB	's', 0bfH, 0a1H, 0bcH, 0adH, ' fnCommandST ', 0c7H, 0d4H, 0bcH
	DB	0f6H, 0b8H, 0a6H, ' ', 0c3H, 0a3H, 0c0H, 0bbH, ' ', 0bcH, 0f6H
	DB	' ', 0beH, 0f8H, 0bdH, 0c0H, 0b4H, 0cfH, 0b4H, 0d9H, '.', 00H ; `string'
CONST	ENDS
;	COMDAT ??_C@_0M@PHPMFKOB@fnCommandST@
CONST	SEGMENT
??_C@_0M@PHPMFKOB@fnCommandST@ DB 'fnCommandST', 00H	; `string'
CONST	ENDS
;	COMDAT ??_C@_0CL@OMDOJGPO@?$CFs?$LP?$KB?$LM?$KN?5fnUpdateST?5?G?T?$LM?v?$LI?$KG?5?C?$KD?$MA?$LL?5?$LM@
CONST	SEGMENT
??_C@_0CL@OMDOJGPO@?$CFs?$LP?$KB?$LM?$KN?5fnUpdateST?5?G?T?$LM?v?$LI?$KG?5?C?$KD?$MA?$LL?5?$LM@ DB '%'
	DB	's', 0bfH, 0a1H, 0bcH, 0adH, ' fnUpdateST ', 0c7H, 0d4H, 0bcH, 0f6H
	DB	0b8H, 0a6H, ' ', 0c3H, 0a3H, 0c0H, 0bbH, ' ', 0bcH, 0f6H, ' ', 0beH
	DB	0f8H, 0bdH, 0c0H, 0b4H, 0cfH, 0b4H, 0d9H, '.', 00H ; `string'
CONST	ENDS
;	COMDAT ??_C@_0L@HLHEEOIM@fnUpdateST@
CONST	SEGMENT
??_C@_0L@HLHEEOIM@fnUpdateST@ DB 'fnUpdateST', 00H	; `string'
CONST	ENDS
;	COMDAT ??_C@_0CK@FGAPMHCA@?$CFs?$LP?$KB?$LM?$KN?5fnPauseST?5?G?T?$LM?v?$LI?$KG?5?C?$KD?$MA?$LL?5?$LM?v@
CONST	SEGMENT
??_C@_0CK@FGAPMHCA@?$CFs?$LP?$KB?$LM?$KN?5fnPauseST?5?G?T?$LM?v?$LI?$KG?5?C?$KD?$MA?$LL?5?$LM?v@ DB '%'
	DB	's', 0bfH, 0a1H, 0bcH, 0adH, ' fnPauseST ', 0c7H, 0d4H, 0bcH, 0f6H
	DB	0b8H, 0a6H, ' ', 0c3H, 0a3H, 0c0H, 0bbH, ' ', 0bcH, 0f6H, ' ', 0beH
	DB	0f8H, 0bdH, 0c0H, 0b4H, 0cfH, 0b4H, 0d9H, '.', 00H ; `string'
CONST	ENDS
;	COMDAT ??_C@_09HFICAEPK@fnPauseST@
CONST	SEGMENT
??_C@_09HFICAEPK@fnPauseST@ DB 'fnPauseST', 00H		; `string'
CONST	ENDS
;	COMDAT ??_C@_0CI@NHCBICMH@?$CFs?$LP?$KB?$LM?$KN?5fnStopST?G?T?$LM?v?$LI?$KG?5?C?$KD?$MA?$LL?5?$LM?v?5?$LO@
CONST	SEGMENT
??_C@_0CI@NHCBICMH@?$CFs?$LP?$KB?$LM?$KN?5fnStopST?G?T?$LM?v?$LI?$KG?5?C?$KD?$MA?$LL?5?$LM?v?5?$LO@ DB '%'
	DB	's', 0bfH, 0a1H, 0bcH, 0adH, ' fnStopST', 0c7H, 0d4H, 0bcH, 0f6H
	DB	0b8H, 0a6H, ' ', 0c3H, 0a3H, 0c0H, 0bbH, ' ', 0bcH, 0f6H, ' ', 0beH
	DB	0f8H, 0bdH, 0c0H, 0b4H, 0cfH, 0b4H, 0d9H, '.', 00H ; `string'
CONST	ENDS
;	COMDAT ??_C@_08LBBAFFLC@fnStopST@
CONST	SEGMENT
??_C@_08LBBAFFLC@fnStopST@ DB 'fnStopST', 00H		; `string'
CONST	ENDS
;	COMDAT ??_C@_0CL@KBJHENCJ@?$CFs?$LP?$KB?$LM?$KN?5fnExecuteST?G?T?$LM?v?$LI?$KG?5?C?$KD?$MA?$LL?5?$LM@
CONST	SEGMENT
??_C@_0CL@KBJHENCJ@?$CFs?$LP?$KB?$LM?$KN?5fnExecuteST?G?T?$LM?v?$LI?$KG?5?C?$KD?$MA?$LL?5?$LM@ DB '%'
	DB	's', 0bfH, 0a1H, 0bcH, 0adH, ' fnExecuteST', 0c7H, 0d4H, 0bcH, 0f6H
	DB	0b8H, 0a6H, ' ', 0c3H, 0a3H, 0c0H, 0bbH, ' ', 0bcH, 0f6H, ' ', 0beH
	DB	0f8H, 0bdH, 0c0H, 0b4H, 0cfH, 0b4H, 0d9H, '.', 00H ; `string'
CONST	ENDS
;	COMDAT ??_C@_0M@LLDCMNDN@fnExecuteST@
CONST	SEGMENT
??_C@_0M@LLDCMNDN@fnExecuteST@ DB 'fnExecuteST', 00H	; `string'
CONST	ENDS
;	COMDAT ??_C@_0CK@KJJCAAPE@?$CFs?$LP?$KB?$LM?$KN?5fnUnloadST?G?T?$LM?v?$LI?$KG?5?C?$KD?$MA?$LL?5?$LM?v@
CONST	SEGMENT
??_C@_0CK@KJJCAAPE@?$CFs?$LP?$KB?$LM?$KN?5fnUnloadST?G?T?$LM?v?$LI?$KG?5?C?$KD?$MA?$LL?5?$LM?v@ DB '%'
	DB	's', 0bfH, 0a1H, 0bcH, 0adH, ' fnUnloadST', 0c7H, 0d4H, 0bcH, 0f6H
	DB	0b8H, 0a6H, ' ', 0c3H, 0a3H, 0c0H, 0bbH, ' ', 0bcH, 0f6H, ' ', 0beH
	DB	0f8H, 0bdH, 0c0H, 0b4H, 0cfH, 0b4H, 0d9H, '.', 00H ; `string'
CONST	ENDS
;	COMDAT ??_C@_0L@LBMDNBF@fnUnloadST@
CONST	SEGMENT
??_C@_0L@LBMDNBF@fnUnloadST@ DB 'fnUnloadST', 00H	; `string'
CONST	ENDS
;	COMDAT ??_C@_0CI@EINJOEOM@?$CFs?$LP?$KB?$LM?$KN?5fnLoadST?G?T?$LM?v?$LI?$KG?5?C?$KD?$MA?$LL?5?$LM?v?5?$LO@
CONST	SEGMENT
??_C@_0CI@EINJOEOM@?$CFs?$LP?$KB?$LM?$KN?5fnLoadST?G?T?$LM?v?$LI?$KG?5?C?$KD?$MA?$LL?5?$LM?v?5?$LO@ DB '%'
	DB	's', 0bfH, 0a1H, 0bcH, 0adH, ' fnLoadST', 0c7H, 0d4H, 0bcH, 0f6H
	DB	0b8H, 0a6H, ' ', 0c3H, 0a3H, 0c0H, 0bbH, ' ', 0bcH, 0f6H, ' ', 0beH
	DB	0f8H, 0bdH, 0c0H, 0b4H, 0cfH, 0b4H, 0d9H, '.', 00H ; `string'
CONST	ENDS
;	COMDAT ??_C@_08CJNMDFGE@fnLoadST@
CONST	SEGMENT
??_C@_08CJNMDFGE@fnLoadST@ DB 'fnLoadST', 00H		; `string'
CONST	ENDS
;	COMDAT ??_C@_0CL@EIFKDBLI@?$CFs?$LP?$KB?$LM?$KN?5fnGetInputs?G?T?$LM?v?$LI?$KG?5?C?$KD?$MA?$LL?5?$LM@
CONST	SEGMENT
??_C@_0CL@EIFKDBLI@?$CFs?$LP?$KB?$LM?$KN?5fnGetInputs?G?T?$LM?v?$LI?$KG?5?C?$KD?$MA?$LL?5?$LM@ DB '%'
	DB	's', 0bfH, 0a1H, 0bcH, 0adH, ' fnGetInputs', 0c7H, 0d4H, 0bcH, 0f6H
	DB	0b8H, 0a6H, ' ', 0c3H, 0a3H, 0c0H, 0bbH, ' ', 0bcH, 0f6H, ' ', 0beH
	DB	0f8H, 0bdH, 0c0H, 0b4H, 0cfH, 0b4H, 0d9H, '.', 00H ; `string'
CONST	ENDS
;	COMDAT ??_C@_0M@BCNLAOEG@fnGetInputs@
CONST	SEGMENT
??_C@_0M@BCNLAOEG@fnGetInputs@ DB 'fnGetInputs', 00H	; `string'
CONST	ENDS
;	COMDAT ??_C@_0BO@KOBAMCF@?$CFs?$MA?$LL?5Load?G?R?5?$LM?v?5?$LO?x?$LN?$MA?$LE?O?$LE?Y?4?$CI?$CFld?$CJ@
CONST	SEGMENT
??_C@_0BO@KOBAMCF@?$CFs?$MA?$LL?5Load?G?R?5?$LM?v?5?$LO?x?$LN?$MA?$LE?O?$LE?Y?4?$CI?$CFld?$CJ@ DB '%'
	DB	's', 0c0H, 0bbH, ' Load', 0c7H, 0d2H, ' ', 0bcH, 0f6H, ' ', 0beH
	DB	0f8H, 0bdH, 0c0H, 0b4H, 0cfH, 0b4H, 0d9H, '.(%ld)', 00H ; `string'
CONST	ENDS
;	COMDAT ??_7CDllSTLoader@@6B@
CONST	SEGMENT
??_7CDllSTLoader@@6B@ DD FLAT:??_R4CDllSTLoader@@6B@	; CDllSTLoader::`vftable'
	DD	FLAT:??_ECDllSTLoader@@UAEPAXI@Z
CONST	ENDS
;	COMDAT xdata$x
xdata$x	SEGMENT
__unwindtable$??_GCDllSTLoader@@UAEPAXI@Z DD 0ffffffffH
	DD	FLAT:___std_terminate
__ehfuncinfo$??_GCDllSTLoader@@UAEPAXI@Z DD 019930522H
	DD	01H
	DD	FLAT:__unwindtable$??_GCDllSTLoader@@UAEPAXI@Z
	DD	2 DUP(00H)
	DD	2 DUP(00H)
	DD	00H
	DD	05H
xdata$x	ENDS
;	COMDAT xdata$x
xdata$x	SEGMENT
__unwindtable$?GetInput@CDllSTLoader@@QAE?AV?$CStringT@DV?$StrTraitMFC_DLL@DV?$ChTraitsCRT@D@ATL@@@@@ATL@@J@Z DD 0ffffffffH
	DD	FLAT:__unwindfunclet$?GetInput@CDllSTLoader@@QAE?AV?$CStringT@DV?$StrTraitMFC_DLL@DV?$ChTraitsCRT@D@ATL@@@@@ATL@@J@Z$1
__ehfuncinfo$?GetInput@CDllSTLoader@@QAE?AV?$CStringT@DV?$StrTraitMFC_DLL@DV?$ChTraitsCRT@D@ATL@@@@@ATL@@J@Z DD 019930522H
	DD	01H
	DD	FLAT:__unwindtable$?GetInput@CDllSTLoader@@QAE?AV?$CStringT@DV?$StrTraitMFC_DLL@DV?$ChTraitsCRT@D@ATL@@@@@ATL@@J@Z
	DD	2 DUP(00H)
	DD	2 DUP(00H)
	DD	00H
	DD	01H
xdata$x	ENDS
;	COMDAT xdata$x
xdata$x	SEGMENT
__ehfuncinfo$??1CDllSTLoader@@UAE@XZ DD 019930522H
	DD	00H
	DD	00H
	DD	2 DUP(00H)
	DD	2 DUP(00H)
	DD	00H
	DD	05H
xdata$x	ENDS
; Function compile flags: /Ogtp
; File D:\git\src\IBK\IBK_DRFN\ProjSrc\SrcDrfn\Chart\Common_ST\DllSTLoader.cpp
;	COMDAT ??_GCDllSTLoader@@UAEPAXI@Z
_TEXT	SEGMENT
__$EHRec$ = -12						; size = 12
___flags$ = 8						; size = 4
??_GCDllSTLoader@@UAEPAXI@Z PROC			; CDllSTLoader::`scalar deleting destructor', COMDAT
; _this$ = ecx
  00000	55		 push	 ebp
  00001	8b ec		 mov	 ebp, esp
  00003	6a ff		 push	 -1
  00005	68 00 00 00 00	 push	 __ehhandler$??_GCDllSTLoader@@UAEPAXI@Z
  0000a	64 a1 00 00 00
	00		 mov	 eax, DWORD PTR fs:0
  00010	50		 push	 eax
  00011	56		 push	 esi
  00012	a1 00 00 00 00	 mov	 eax, DWORD PTR ___security_cookie
  00017	33 c5		 xor	 eax, ebp
  00019	50		 push	 eax
  0001a	8d 45 f4	 lea	 eax, DWORD PTR __$EHRec$[ebp]
  0001d	64 a3 00 00 00
	00		 mov	 DWORD PTR fs:0, eax
  00023	8b f1		 mov	 esi, ecx

; 33   : {

  00025	c7 45 fc 00 00
	00 00		 mov	 DWORD PTR __$EHRec$[ebp+8], 0
  0002c	c7 06 00 00 00
	00		 mov	 DWORD PTR [esi], OFFSET ??_7CDllSTLoader@@6B@

; 34   : 	Unload();

  00032	e8 00 00 00 00	 call	 ?Unload@CDllSTLoader@@QAEJXZ ; CDllSTLoader::Unload

; 35   : }

  00037	8d 4e 30	 lea	 ecx, DWORD PTR [esi+48]
  0003a	ff 15 00 00 00
	00		 call	 DWORD PTR __imp_??1?$CStringT@DV?$StrTraitMFC_DLL@DV?$ChTraitsCRT@D@ATL@@@@@ATL@@QAE@XZ
  00040	8d 4e 28	 lea	 ecx, DWORD PTR [esi+40]
  00043	ff 15 00 00 00
	00		 call	 DWORD PTR __imp_??1?$CStringT@DV?$StrTraitMFC_DLL@DV?$ChTraitsCRT@D@ATL@@@@@ATL@@QAE@XZ
  00049	f6 45 08 01	 test	 BYTE PTR ___flags$[ebp], 1
  0004d	74 0b		 je	 SHORT $LN7@scalar
  0004f	6a 34		 push	 52			; 00000034H
  00051	56		 push	 esi
  00052	e8 00 00 00 00	 call	 ??3@YAXPAXI@Z		; operator delete
  00057	83 c4 08	 add	 esp, 8
$LN7@scalar:
  0005a	8b c6		 mov	 eax, esi
  0005c	8b 4d f4	 mov	 ecx, DWORD PTR __$EHRec$[ebp]
  0005f	64 89 0d 00 00
	00 00		 mov	 DWORD PTR fs:0, ecx
  00066	59		 pop	 ecx
  00067	5e		 pop	 esi
  00068	8b e5		 mov	 esp, ebp
  0006a	5d		 pop	 ebp
  0006b	c2 04 00	 ret	 4
  0006e	cc		 int	 3
  0006f	cc		 int	 3
  00070	cc		 int	 3
  00071	cc		 int	 3
  00072	cc		 int	 3
_TEXT	ENDS
;	COMDAT text$x
text$x	SEGMENT
__ehhandler$??_GCDllSTLoader@@UAEPAXI@Z:
  00000	90		 npad	 1
  00001	90		 npad	 1
  00002	8b 54 24 08	 mov	 edx, DWORD PTR [esp+8]
  00006	8d 42 0c	 lea	 eax, DWORD PTR [edx+12]
  00009	8b 4a f8	 mov	 ecx, DWORD PTR [edx-8]
  0000c	33 c8		 xor	 ecx, eax
  0000e	e8 00 00 00 00	 call	 @__security_check_cookie@4
  00013	b8 00 00 00 00	 mov	 eax, OFFSET __ehfuncinfo$??_GCDllSTLoader@@UAEPAXI@Z
  00018	e9 00 00 00 00	 jmp	 ___CxxFrameHandler3
text$x	ENDS
??_GCDllSTLoader@@UAEPAXI@Z ENDP			; CDllSTLoader::`scalar deleting destructor'
; Function compile flags: /Ogtp
; File D:\git\src\IBK\IBK_DRFN\ProjSrc\SrcDrfn\Chart\Common_ST\DllSTLoader.cpp
;	COMDAT ?UnloadDLL@CDllSTLoader@@AAEHXZ
_TEXT	SEGMENT
?UnloadDLL@CDllSTLoader@@AAEHXZ PROC			; CDllSTLoader::UnloadDLL, COMDAT
; _this$ = ecx

; 123  : {

  00000	56		 push	 esi
  00001	8b f1		 mov	 esi, ecx

; 124  : 	if(!m_hSTDll) return TRUE;

  00003	8b 46 24	 mov	 eax, DWORD PTR [esi+36]
  00006	85 c0		 test	 eax, eax
  00008	74 4a		 je	 SHORT $LN6@UnloadDLL

; 125  : 
; 126  : 	BOOL bResult = FALSE;
; 127  : 	bResult = FreeLibrary(m_hSTDll);

  0000a	50		 push	 eax
  0000b	ff 15 00 00 00
	00		 call	 DWORD PTR __imp__FreeLibrary@4

; 128  : 	if(bResult)

  00011	85 c0		 test	 eax, eax
  00013	74 46		 je	 SHORT $LN3@UnloadDLL

; 129  : 	{
; 130  : 		m_hSTDll = NULL;

  00015	c7 46 24 00 00
	00 00		 mov	 DWORD PTR [esi+36], 0

; 131  : 		m_fnGetInputs = NULL;

  0001c	c7 46 04 00 00
	00 00		 mov	 DWORD PTR [esi+4], 0

; 132  : 		m_fnLoadST = NULL;

  00023	c7 46 08 00 00
	00 00		 mov	 DWORD PTR [esi+8], 0

; 133  : 		m_fnUnloadST = NULL;

  0002a	c7 46 0c 00 00
	00 00		 mov	 DWORD PTR [esi+12], 0

; 134  : 		m_fnExecuteST = NULL;

  00031	c7 46 10 00 00
	00 00		 mov	 DWORD PTR [esi+16], 0

; 135  : 		m_fnStopST = NULL;

  00038	c7 46 14 00 00
	00 00		 mov	 DWORD PTR [esi+20], 0

; 136  : 		m_fnPauseST = NULL;

  0003f	c7 46 18 00 00
	00 00		 mov	 DWORD PTR [esi+24], 0

; 137  : 		m_fnUpdateST = NULL;

  00046	c7 46 1c 00 00
	00 00		 mov	 DWORD PTR [esi+28], 0

; 138  : 		m_fnCommandST = NULL;

  0004d	c7 46 20 00 00
	00 00		 mov	 DWORD PTR [esi+32], 0
$LN6@UnloadDLL:

; 143  : 	}
; 144  : 	return 1;
; 145  : }

  00054	b8 01 00 00 00	 mov	 eax, 1
  00059	5e		 pop	 esi
  0005a	c3		 ret	 0
$LN3@UnloadDLL:

; 139  : 	}
; 140  : 	else
; 141  : 	{
; 142  : 		return 0;

  0005b	33 c0		 xor	 eax, eax
  0005d	5e		 pop	 esi

; 143  : 	}
; 144  : 	return 1;
; 145  : }

  0005e	c3		 ret	 0
?UnloadDLL@CDllSTLoader@@AAEHXZ ENDP			; CDllSTLoader::UnloadDLL
_TEXT	ENDS
; Function compile flags: /Ogtp
; File D:\git\src\IBK\IBK_DRFN\ProjSrc\SrcDrfn\Chart\Common_ST\DllSTLoader.cpp
;	COMDAT ?LoadDLL@CDllSTLoader@@AAEHPBD@Z
_TEXT	SEGMENT
_lpSTFileName$ = 8					; size = 4
?LoadDLL@CDllSTLoader@@AAEHPBD@Z PROC			; CDllSTLoader::LoadDLL, COMDAT
; _this$ = ecx

; 62   : {

  00000	55		 push	 ebp
  00001	8b ec		 mov	 ebp, esp
  00003	53		 push	 ebx

; 63   : 	m_strSTDll = lpSTFileName;

  00004	8b 5d 08	 mov	 ebx, DWORD PTR _lpSTFileName$[ebp]
  00007	56		 push	 esi
  00008	57		 push	 edi
  00009	8b f9		 mov	 edi, ecx
  0000b	53		 push	 ebx
  0000c	8d 4f 28	 lea	 ecx, DWORD PTR [edi+40]
  0000f	ff 15 00 00 00
	00		 call	 DWORD PTR __imp_??4?$CStringT@DV?$StrTraitMFC_DLL@DV?$ChTraitsCRT@D@ATL@@@@@ATL@@QAEAAV01@PBD@Z

; 64   : 	m_hSTDll  = (HINSTANCE) ::LoadLibrary(m_strSTDll);

  00015	ff 77 28	 push	 DWORD PTR [edi+40]
  00018	ff 15 00 00 00
	00		 call	 DWORD PTR __imp__LoadLibraryA@4
  0001e	89 47 24	 mov	 DWORD PTR [edi+36], eax

; 65   : 	if( m_hSTDll == NULL)

  00021	85 c0		 test	 eax, eax
  00023	75 23		 jne	 SHORT $LN2@LoadDLL

; 66   : 	{
; 67   : 		m_strError.Format("%s을 Load할 수 없습니다.(%ld)",lpSTFileName, GetLastError());

  00025	ff 15 00 00 00
	00		 call	 DWORD PTR __imp__GetLastError@0
  0002b	50		 push	 eax
  0002c	53		 push	 ebx
  0002d	8d 47 30	 lea	 eax, DWORD PTR [edi+48]
  00030	68 00 00 00 00	 push	 OFFSET ??_C@_0BO@KOBAMCF@?$CFs?$MA?$LL?5Load?G?R?5?$LM?v?5?$LO?x?$LN?$MA?$LE?O?$LE?Y?4?$CI?$CFld?$CJ@
  00035	50		 push	 eax
  00036	ff 15 00 00 00
	00		 call	 DWORD PTR __imp_?Format@?$CStringT@DV?$StrTraitMFC_DLL@DV?$ChTraitsCRT@D@ATL@@@@@ATL@@QAAXPBDZZ
  0003c	83 c4 10	 add	 esp, 16			; 00000010H

; 68   : 		return FALSE;

  0003f	33 c0		 xor	 eax, eax
  00041	5f		 pop	 edi

; 118  : 	}	
; 119  : 	return TRUE;
; 120  : }

  00042	5e		 pop	 esi
  00043	5b		 pop	 ebx
  00044	5d		 pop	 ebp
  00045	c2 04 00	 ret	 4
$LN2@LoadDLL:

; 69   : 	}
; 70   : 
; 71   : 	m_fnGetInputs = (_DLL_GetInputs)::GetProcAddress(m_hSTDll,"fnGetInputs");

  00048	8b 35 00 00 00
	00		 mov	 esi, DWORD PTR __imp__GetProcAddress@8
  0004e	68 00 00 00 00	 push	 OFFSET ??_C@_0M@BCNLAOEG@fnGetInputs@
  00053	50		 push	 eax
  00054	ff d6		 call	 esi
  00056	89 47 04	 mov	 DWORD PTR [edi+4], eax

; 72   : 	if(m_fnGetInputs == NULL)

  00059	85 c0		 test	 eax, eax
  0005b	75 1c		 jne	 SHORT $LN3@LoadDLL

; 73   : 	{
; 74   : 		m_strError.Format("%s에서 fnGetInputs함수를 찾을 수 없습니다.",lpSTFileName);

  0005d	53		 push	 ebx
  0005e	8d 47 30	 lea	 eax, DWORD PTR [edi+48]
  00061	68 00 00 00 00	 push	 OFFSET ??_C@_0CL@EIFKDBLI@?$CFs?$LP?$KB?$LM?$KN?5fnGetInputs?G?T?$LM?v?$LI?$KG?5?C?$KD?$MA?$LL?5?$LM@
  00066	50		 push	 eax
  00067	ff 15 00 00 00
	00		 call	 DWORD PTR __imp_?Format@?$CStringT@DV?$StrTraitMFC_DLL@DV?$ChTraitsCRT@D@ATL@@@@@ATL@@QAAXPBDZZ
  0006d	83 c4 0c	 add	 esp, 12			; 0000000cH

; 75   : 		return FALSE;

  00070	33 c0		 xor	 eax, eax
  00072	5f		 pop	 edi

; 118  : 	}	
; 119  : 	return TRUE;
; 120  : }

  00073	5e		 pop	 esi
  00074	5b		 pop	 ebx
  00075	5d		 pop	 ebp
  00076	c2 04 00	 ret	 4
$LN3@LoadDLL:

; 76   : 	}
; 77   : 	m_fnLoadST = (_DLL_LoadST)::GetProcAddress(m_hSTDll,"fnLoadST");

  00079	68 00 00 00 00	 push	 OFFSET ??_C@_08CJNMDFGE@fnLoadST@
  0007e	ff 77 24	 push	 DWORD PTR [edi+36]
  00081	ff d6		 call	 esi
  00083	89 47 08	 mov	 DWORD PTR [edi+8], eax

; 78   : 	if(m_fnLoadST == NULL)

  00086	85 c0		 test	 eax, eax
  00088	75 1c		 jne	 SHORT $LN4@LoadDLL

; 79   : 	{
; 80   : 		m_strError.Format("%s에서 fnLoadST함수를 찾을 수 없습니다.",lpSTFileName);

  0008a	53		 push	 ebx
  0008b	8d 47 30	 lea	 eax, DWORD PTR [edi+48]
  0008e	68 00 00 00 00	 push	 OFFSET ??_C@_0CI@EINJOEOM@?$CFs?$LP?$KB?$LM?$KN?5fnLoadST?G?T?$LM?v?$LI?$KG?5?C?$KD?$MA?$LL?5?$LM?v?5?$LO@
  00093	50		 push	 eax
  00094	ff 15 00 00 00
	00		 call	 DWORD PTR __imp_?Format@?$CStringT@DV?$StrTraitMFC_DLL@DV?$ChTraitsCRT@D@ATL@@@@@ATL@@QAAXPBDZZ
  0009a	83 c4 0c	 add	 esp, 12			; 0000000cH

; 81   : 		return FALSE;

  0009d	33 c0		 xor	 eax, eax
  0009f	5f		 pop	 edi

; 118  : 	}	
; 119  : 	return TRUE;
; 120  : }

  000a0	5e		 pop	 esi
  000a1	5b		 pop	 ebx
  000a2	5d		 pop	 ebp
  000a3	c2 04 00	 ret	 4
$LN4@LoadDLL:

; 82   : 	}
; 83   : 	m_fnUnloadST = (_DLL_UnloadST)::GetProcAddress(m_hSTDll,"fnUnloadST");

  000a6	68 00 00 00 00	 push	 OFFSET ??_C@_0L@LBMDNBF@fnUnloadST@
  000ab	ff 77 24	 push	 DWORD PTR [edi+36]
  000ae	ff d6		 call	 esi
  000b0	89 47 0c	 mov	 DWORD PTR [edi+12], eax

; 84   : 	if(m_fnUnloadST == NULL)

  000b3	85 c0		 test	 eax, eax
  000b5	75 1c		 jne	 SHORT $LN5@LoadDLL

; 85   : 	{
; 86   : 		m_strError.Format("%s에서 fnUnloadST함수를 찾을 수 없습니다.",lpSTFileName);

  000b7	53		 push	 ebx
  000b8	8d 47 30	 lea	 eax, DWORD PTR [edi+48]
  000bb	68 00 00 00 00	 push	 OFFSET ??_C@_0CK@KJJCAAPE@?$CFs?$LP?$KB?$LM?$KN?5fnUnloadST?G?T?$LM?v?$LI?$KG?5?C?$KD?$MA?$LL?5?$LM?v@
  000c0	50		 push	 eax
  000c1	ff 15 00 00 00
	00		 call	 DWORD PTR __imp_?Format@?$CStringT@DV?$StrTraitMFC_DLL@DV?$ChTraitsCRT@D@ATL@@@@@ATL@@QAAXPBDZZ
  000c7	83 c4 0c	 add	 esp, 12			; 0000000cH

; 87   : 		return FALSE;

  000ca	33 c0		 xor	 eax, eax
  000cc	5f		 pop	 edi

; 118  : 	}	
; 119  : 	return TRUE;
; 120  : }

  000cd	5e		 pop	 esi
  000ce	5b		 pop	 ebx
  000cf	5d		 pop	 ebp
  000d0	c2 04 00	 ret	 4
$LN5@LoadDLL:

; 88   : 	}
; 89   : 	m_fnExecuteST = (_DLL_ExecuteST)::GetProcAddress(m_hSTDll,"fnExecuteST");

  000d3	68 00 00 00 00	 push	 OFFSET ??_C@_0M@LLDCMNDN@fnExecuteST@
  000d8	ff 77 24	 push	 DWORD PTR [edi+36]
  000db	ff d6		 call	 esi
  000dd	89 47 10	 mov	 DWORD PTR [edi+16], eax

; 90   : 	if(m_fnExecuteST == NULL)

  000e0	85 c0		 test	 eax, eax
  000e2	75 1c		 jne	 SHORT $LN6@LoadDLL

; 91   : 	{
; 92   : 		m_strError.Format("%s에서 fnExecuteST함수를 찾을 수 없습니다.",lpSTFileName);

  000e4	53		 push	 ebx
  000e5	8d 47 30	 lea	 eax, DWORD PTR [edi+48]
  000e8	68 00 00 00 00	 push	 OFFSET ??_C@_0CL@KBJHENCJ@?$CFs?$LP?$KB?$LM?$KN?5fnExecuteST?G?T?$LM?v?$LI?$KG?5?C?$KD?$MA?$LL?5?$LM@
  000ed	50		 push	 eax
  000ee	ff 15 00 00 00
	00		 call	 DWORD PTR __imp_?Format@?$CStringT@DV?$StrTraitMFC_DLL@DV?$ChTraitsCRT@D@ATL@@@@@ATL@@QAAXPBDZZ
  000f4	83 c4 0c	 add	 esp, 12			; 0000000cH

; 93   : 		return FALSE;

  000f7	33 c0		 xor	 eax, eax
  000f9	5f		 pop	 edi

; 118  : 	}	
; 119  : 	return TRUE;
; 120  : }

  000fa	5e		 pop	 esi
  000fb	5b		 pop	 ebx
  000fc	5d		 pop	 ebp
  000fd	c2 04 00	 ret	 4
$LN6@LoadDLL:

; 94   : 	}	
; 95   : 	m_fnStopST = (_DLL_StopST)::GetProcAddress(m_hSTDll,"fnStopST");

  00100	68 00 00 00 00	 push	 OFFSET ??_C@_08LBBAFFLC@fnStopST@
  00105	ff 77 24	 push	 DWORD PTR [edi+36]
  00108	ff d6		 call	 esi
  0010a	89 47 14	 mov	 DWORD PTR [edi+20], eax

; 96   : 	if(m_fnStopST == NULL)

  0010d	85 c0		 test	 eax, eax
  0010f	75 1c		 jne	 SHORT $LN7@LoadDLL

; 97   : 	{
; 98   : 		m_strError.Format("%s에서 fnStopST함수를 찾을 수 없습니다.",lpSTFileName);

  00111	53		 push	 ebx
  00112	8d 47 30	 lea	 eax, DWORD PTR [edi+48]
  00115	68 00 00 00 00	 push	 OFFSET ??_C@_0CI@NHCBICMH@?$CFs?$LP?$KB?$LM?$KN?5fnStopST?G?T?$LM?v?$LI?$KG?5?C?$KD?$MA?$LL?5?$LM?v?5?$LO@
  0011a	50		 push	 eax
  0011b	ff 15 00 00 00
	00		 call	 DWORD PTR __imp_?Format@?$CStringT@DV?$StrTraitMFC_DLL@DV?$ChTraitsCRT@D@ATL@@@@@ATL@@QAAXPBDZZ
  00121	83 c4 0c	 add	 esp, 12			; 0000000cH

; 99   : 		return FALSE;

  00124	33 c0		 xor	 eax, eax
  00126	5f		 pop	 edi

; 118  : 	}	
; 119  : 	return TRUE;
; 120  : }

  00127	5e		 pop	 esi
  00128	5b		 pop	 ebx
  00129	5d		 pop	 ebp
  0012a	c2 04 00	 ret	 4
$LN7@LoadDLL:

; 100  : 	}	
; 101  : 	m_fnPauseST = (_DLL_PauseST)::GetProcAddress(m_hSTDll,"fnPauseST");

  0012d	68 00 00 00 00	 push	 OFFSET ??_C@_09HFICAEPK@fnPauseST@
  00132	ff 77 24	 push	 DWORD PTR [edi+36]
  00135	ff d6		 call	 esi
  00137	89 47 18	 mov	 DWORD PTR [edi+24], eax

; 102  : 	if(m_fnPauseST == NULL)

  0013a	85 c0		 test	 eax, eax
  0013c	75 1c		 jne	 SHORT $LN8@LoadDLL

; 103  : 	{
; 104  : 		m_strError.Format("%s에서 fnPauseST 함수를 찾을 수 없습니다.",lpSTFileName);

  0013e	53		 push	 ebx
  0013f	8d 47 30	 lea	 eax, DWORD PTR [edi+48]
  00142	68 00 00 00 00	 push	 OFFSET ??_C@_0CK@FGAPMHCA@?$CFs?$LP?$KB?$LM?$KN?5fnPauseST?5?G?T?$LM?v?$LI?$KG?5?C?$KD?$MA?$LL?5?$LM?v@
  00147	50		 push	 eax
  00148	ff 15 00 00 00
	00		 call	 DWORD PTR __imp_?Format@?$CStringT@DV?$StrTraitMFC_DLL@DV?$ChTraitsCRT@D@ATL@@@@@ATL@@QAAXPBDZZ
  0014e	83 c4 0c	 add	 esp, 12			; 0000000cH

; 105  : 		return FALSE;

  00151	33 c0		 xor	 eax, eax
  00153	5f		 pop	 edi

; 118  : 	}	
; 119  : 	return TRUE;
; 120  : }

  00154	5e		 pop	 esi
  00155	5b		 pop	 ebx
  00156	5d		 pop	 ebp
  00157	c2 04 00	 ret	 4
$LN8@LoadDLL:

; 106  : 	}	
; 107  : 	m_fnUpdateST = (_DLL_UpdateST)::GetProcAddress(m_hSTDll,"fnUpdateST");

  0015a	68 00 00 00 00	 push	 OFFSET ??_C@_0L@HLHEEOIM@fnUpdateST@
  0015f	ff 77 24	 push	 DWORD PTR [edi+36]
  00162	ff d6		 call	 esi
  00164	89 47 1c	 mov	 DWORD PTR [edi+28], eax

; 108  : 	if(m_fnUpdateST == NULL)

  00167	85 c0		 test	 eax, eax
  00169	75 1c		 jne	 SHORT $LN9@LoadDLL

; 109  : 	{
; 110  : 		m_strError.Format("%s에서 fnUpdateST 함수를 찾을 수 없습니다.",lpSTFileName);

  0016b	53		 push	 ebx
  0016c	8d 47 30	 lea	 eax, DWORD PTR [edi+48]
  0016f	68 00 00 00 00	 push	 OFFSET ??_C@_0CL@OMDOJGPO@?$CFs?$LP?$KB?$LM?$KN?5fnUpdateST?5?G?T?$LM?v?$LI?$KG?5?C?$KD?$MA?$LL?5?$LM@
  00174	50		 push	 eax
  00175	ff 15 00 00 00
	00		 call	 DWORD PTR __imp_?Format@?$CStringT@DV?$StrTraitMFC_DLL@DV?$ChTraitsCRT@D@ATL@@@@@ATL@@QAAXPBDZZ
  0017b	83 c4 0c	 add	 esp, 12			; 0000000cH

; 111  : 		return FALSE;

  0017e	33 c0		 xor	 eax, eax
  00180	5f		 pop	 edi

; 118  : 	}	
; 119  : 	return TRUE;
; 120  : }

  00181	5e		 pop	 esi
  00182	5b		 pop	 ebx
  00183	5d		 pop	 ebp
  00184	c2 04 00	 ret	 4
$LN9@LoadDLL:

; 112  : 	}	
; 113  : 	m_fnCommandST = (_DLL_CommandST)::GetProcAddress(m_hSTDll,"fnCommandST");

  00187	68 00 00 00 00	 push	 OFFSET ??_C@_0M@PHPMFKOB@fnCommandST@
  0018c	ff 77 24	 push	 DWORD PTR [edi+36]
  0018f	ff d6		 call	 esi
  00191	89 47 20	 mov	 DWORD PTR [edi+32], eax

; 114  : 	if(m_fnCommandST == NULL)

  00194	85 c0		 test	 eax, eax
  00196	75 1c		 jne	 SHORT $LN10@LoadDLL

; 115  : 	{
; 116  : 		m_strError.Format("%s에서 fnCommandST 함수를 찾을 수 없습니다.",lpSTFileName);

  00198	53		 push	 ebx
  00199	8d 47 30	 lea	 eax, DWORD PTR [edi+48]
  0019c	68 00 00 00 00	 push	 OFFSET ??_C@_0CM@CNMLDCCM@?$CFs?$LP?$KB?$LM?$KN?5fnCommandST?5?G?T?$LM?v?$LI?$KG?5?C?$KD?$MA?$LL?5@
  001a1	50		 push	 eax
  001a2	ff 15 00 00 00
	00		 call	 DWORD PTR __imp_?Format@?$CStringT@DV?$StrTraitMFC_DLL@DV?$ChTraitsCRT@D@ATL@@@@@ATL@@QAAXPBDZZ
  001a8	83 c4 0c	 add	 esp, 12			; 0000000cH

; 117  : 		return FALSE;

  001ab	33 c0		 xor	 eax, eax
  001ad	5f		 pop	 edi

; 118  : 	}	
; 119  : 	return TRUE;
; 120  : }

  001ae	5e		 pop	 esi
  001af	5b		 pop	 ebx
  001b0	5d		 pop	 ebp
  001b1	c2 04 00	 ret	 4
$LN10@LoadDLL:
  001b4	5f		 pop	 edi
  001b5	5e		 pop	 esi
  001b6	b8 01 00 00 00	 mov	 eax, 1
  001bb	5b		 pop	 ebx
  001bc	5d		 pop	 ebp
  001bd	c2 04 00	 ret	 4
?LoadDLL@CDllSTLoader@@AAEHPBD@Z ENDP			; CDllSTLoader::LoadDLL
_TEXT	ENDS
; Function compile flags: /Ogtp
; File D:\git\src\IBK\IBK_DRFN\ProjSrc\SrcDrfn\Chart\Common_ST\DllSTLoader.cpp
;	COMDAT ?GetInput@CDllSTLoader@@QAE?AV?$CStringT@DV?$StrTraitMFC_DLL@DV?$ChTraitsCRT@D@ATL@@@@@ATL@@J@Z
_TEXT	SEGMENT
__$EHRec$ = -12						; size = 12
___$ReturnUdt$ = 8					; size = 4
$T2 = 12						; size = 4
_lIndex$ = 12						; size = 4
?GetInput@CDllSTLoader@@QAE?AV?$CStringT@DV?$StrTraitMFC_DLL@DV?$ChTraitsCRT@D@ATL@@@@@ATL@@J@Z PROC ; CDllSTLoader::GetInput, COMDAT
; _this$ = ecx

; 206  : {

  00000	55		 push	 ebp
  00001	8b ec		 mov	 ebp, esp
  00003	6a ff		 push	 -1
  00005	68 00 00 00 00	 push	 __ehhandler$?GetInput@CDllSTLoader@@QAE?AV?$CStringT@DV?$StrTraitMFC_DLL@DV?$ChTraitsCRT@D@ATL@@@@@ATL@@J@Z
  0000a	64 a1 00 00 00
	00		 mov	 eax, DWORD PTR fs:0
  00010	50		 push	 eax
  00011	56		 push	 esi
  00012	a1 00 00 00 00	 mov	 eax, DWORD PTR ___security_cookie
  00017	33 c5		 xor	 eax, ebp
  00019	50		 push	 eax
  0001a	8d 45 f4	 lea	 eax, DWORD PTR __$EHRec$[ebp]
  0001d	64 a3 00 00 00
	00		 mov	 DWORD PTR fs:0, eax

; 207  : 	if(!m_lSTActor)	return "#";

  00023	83 79 2c 00	 cmp	 DWORD PTR [ecx+44], 0
  00027	74 2e		 je	 SHORT $LN8@GetInput

; 208  : 	if(!m_hSTDll) return "#";

  00029	83 79 24 00	 cmp	 DWORD PTR [ecx+36], 0
  0002d	74 28		 je	 SHORT $LN8@GetInput

; 209  : 	return m_fnGetInputs(lIndex);

  0002f	ff 75 0c	 push	 DWORD PTR _lIndex$[ebp]
  00032	8d 45 0c	 lea	 eax, DWORD PTR $T2[ebp]
  00035	50		 push	 eax
  00036	8b 41 04	 mov	 eax, DWORD PTR [ecx+4]
  00039	ff d0		 call	 eax
  0003b	8b 4d 08	 mov	 ecx, DWORD PTR ___$ReturnUdt$[ebp]
  0003e	50		 push	 eax
  0003f	c7 45 fc 00 00
	00 00		 mov	 DWORD PTR __$EHRec$[ebp+8], 0
  00046	ff 15 00 00 00
	00		 call	 DWORD PTR __imp_??0?$CStringT@DV?$StrTraitMFC_DLL@DV?$ChTraitsCRT@D@ATL@@@@@ATL@@QAE@ABV01@@Z
  0004c	8d 4d 0c	 lea	 ecx, DWORD PTR $T2[ebp]
  0004f	ff 15 00 00 00
	00		 call	 DWORD PTR __imp_??1?$CStringT@DV?$StrTraitMFC_DLL@DV?$ChTraitsCRT@D@ATL@@@@@ATL@@QAE@XZ
  00055	eb 0e		 jmp	 SHORT $LN10@GetInput
$LN8@GetInput:

; 208  : 	if(!m_hSTDll) return "#";

  00057	8b 4d 08	 mov	 ecx, DWORD PTR ___$ReturnUdt$[ebp]
  0005a	68 00 00 00 00	 push	 OFFSET ??_C@_01IPJKGB@?$CD@
  0005f	ff 15 00 00 00
	00		 call	 DWORD PTR __imp_??0?$CStringT@DV?$StrTraitMFC_DLL@DV?$ChTraitsCRT@D@ATL@@@@@ATL@@QAE@PBD@Z
$LN10@GetInput:

; 210  : }

  00065	8b 45 08	 mov	 eax, DWORD PTR ___$ReturnUdt$[ebp]
  00068	8b 4d f4	 mov	 ecx, DWORD PTR __$EHRec$[ebp]
  0006b	64 89 0d 00 00
	00 00		 mov	 DWORD PTR fs:0, ecx
  00072	59		 pop	 ecx
  00073	5e		 pop	 esi
  00074	8b e5		 mov	 esp, ebp
  00076	5d		 pop	 ebp
  00077	c2 08 00	 ret	 8
_TEXT	ENDS
;	COMDAT text$x
text$x	SEGMENT
__unwindfunclet$?GetInput@CDllSTLoader@@QAE?AV?$CStringT@DV?$StrTraitMFC_DLL@DV?$ChTraitsCRT@D@ATL@@@@@ATL@@J@Z$1:
  00000	8d 4d 0c	 lea	 ecx, DWORD PTR $T2[ebp]
  00003	ff 25 00 00 00
	00		 jmp	 DWORD PTR __imp_??1?$CStringT@DV?$StrTraitMFC_DLL@DV?$ChTraitsCRT@D@ATL@@@@@ATL@@QAE@XZ
  00009	cc		 int	 3
  0000a	cc		 int	 3
  0000b	cc		 int	 3
  0000c	cc		 int	 3
  0000d	cc		 int	 3
__ehhandler$?GetInput@CDllSTLoader@@QAE?AV?$CStringT@DV?$StrTraitMFC_DLL@DV?$ChTraitsCRT@D@ATL@@@@@ATL@@J@Z:
  0000e	90		 npad	 1
  0000f	90		 npad	 1
  00010	8b 54 24 08	 mov	 edx, DWORD PTR [esp+8]
  00014	8d 42 0c	 lea	 eax, DWORD PTR [edx+12]
  00017	8b 4a f8	 mov	 ecx, DWORD PTR [edx-8]
  0001a	33 c8		 xor	 ecx, eax
  0001c	e8 00 00 00 00	 call	 @__security_check_cookie@4
  00021	b8 00 00 00 00	 mov	 eax, OFFSET __ehfuncinfo$?GetInput@CDllSTLoader@@QAE?AV?$CStringT@DV?$StrTraitMFC_DLL@DV?$ChTraitsCRT@D@ATL@@@@@ATL@@J@Z
  00026	e9 00 00 00 00	 jmp	 ___CxxFrameHandler3
text$x	ENDS
?GetInput@CDllSTLoader@@QAE?AV?$CStringT@DV?$StrTraitMFC_DLL@DV?$ChTraitsCRT@D@ATL@@@@@ATL@@J@Z ENDP ; CDllSTLoader::GetInput
; Function compile flags: /Ogtp
; File D:\git\src\IBK\IBK_DRFN\ProjSrc\SrcDrfn\Chart\Common_ST\DllSTLoader.cpp
;	COMDAT ?Command@CDllSTLoader@@QAEJPBD0@Z
_TEXT	SEGMENT
_lpCommand$ = 8						; size = 4
_lpOption$ = 12						; size = 4
?Command@CDllSTLoader@@QAEJPBD0@Z PROC			; CDllSTLoader::Command, COMDAT
; _this$ = ecx

; 199  : {

  00000	55		 push	 ebp
  00001	8b ec		 mov	 ebp, esp

; 200  : 	if(!m_lSTActor)	return 0;

  00003	8b 41 2c	 mov	 eax, DWORD PTR [ecx+44]
  00006	85 c0		 test	 eax, eax
  00008	74 16		 je	 SHORT $LN5@Command

; 201  : 	if(!m_hSTDll) return 0;

  0000a	83 79 24 00	 cmp	 DWORD PTR [ecx+36], 0
  0000e	74 10		 je	 SHORT $LN5@Command

; 202  : 	return m_fnCommandST(m_lSTActor, lpCommand,lpOption);

  00010	ff 75 0c	 push	 DWORD PTR _lpOption$[ebp]
  00013	ff 75 08	 push	 DWORD PTR _lpCommand$[ebp]
  00016	50		 push	 eax
  00017	8b 41 20	 mov	 eax, DWORD PTR [ecx+32]
  0001a	ff d0		 call	 eax

; 203  : }

  0001c	5d		 pop	 ebp
  0001d	c2 08 00	 ret	 8
$LN5@Command:

; 201  : 	if(!m_hSTDll) return 0;

  00020	33 c0		 xor	 eax, eax

; 203  : }

  00022	5d		 pop	 ebp
  00023	c2 08 00	 ret	 8
?Command@CDllSTLoader@@QAEJPBD0@Z ENDP			; CDllSTLoader::Command
_TEXT	ENDS
; Function compile flags: /Ogtp
; File D:\git\src\IBK\IBK_DRFN\ProjSrc\SrcDrfn\Chart\Common_ST\DllSTLoader.cpp
;	COMDAT ?Unload@CDllSTLoader@@QAEJXZ
_TEXT	SEGMENT
?Unload@CDllSTLoader@@QAEJXZ PROC			; CDllSTLoader::Unload, COMDAT
; _this$ = ecx

; 148  : {

  00000	56		 push	 esi
  00001	8b f1		 mov	 esi, ecx

; 149  : 	if(!m_hSTDll) return -1;

  00003	83 7e 24 00	 cmp	 DWORD PTR [esi+36], 0
  00007	74 73		 je	 SHORT $LN13@Unload

; 150  : 
; 151  : 	if(m_lSTActor)	m_fnUnloadST(m_lSTActor);

  00009	8b 46 2c	 mov	 eax, DWORD PTR [esi+44]
  0000c	85 c0		 test	 eax, eax
  0000e	74 71		 je	 SHORT $LN3@Unload
  00010	50		 push	 eax
  00011	8b 46 0c	 mov	 eax, DWORD PTR [esi+12]
  00014	ff d0		 call	 eax

; 156  : 	}
; 157  : 	if(m_hSTDll)	UnloadDLL();

  00016	8b 46 24	 mov	 eax, DWORD PTR [esi+36]
  00019	85 c0		 test	 eax, eax
  0001b	74 51		 je	 SHORT $LN5@Unload

; 127  : 	bResult = FreeLibrary(m_hSTDll);

  0001d	50		 push	 eax
  0001e	ff 15 00 00 00
	00		 call	 DWORD PTR __imp__FreeLibrary@4

; 128  : 	if(bResult)

  00024	85 c0		 test	 eax, eax
  00026	74 3f		 je	 SHORT $LN10@Unload

; 129  : 	{
; 130  : 		m_hSTDll = NULL;

  00028	c7 46 24 00 00
	00 00		 mov	 DWORD PTR [esi+36], 0

; 131  : 		m_fnGetInputs = NULL;

  0002f	c7 46 04 00 00
	00 00		 mov	 DWORD PTR [esi+4], 0

; 132  : 		m_fnLoadST = NULL;

  00036	c7 46 08 00 00
	00 00		 mov	 DWORD PTR [esi+8], 0

; 133  : 		m_fnUnloadST = NULL;

  0003d	c7 46 0c 00 00
	00 00		 mov	 DWORD PTR [esi+12], 0

; 134  : 		m_fnExecuteST = NULL;

  00044	c7 46 10 00 00
	00 00		 mov	 DWORD PTR [esi+16], 0

; 135  : 		m_fnStopST = NULL;

  0004b	c7 46 14 00 00
	00 00		 mov	 DWORD PTR [esi+20], 0

; 136  : 		m_fnPauseST = NULL;

  00052	c7 46 18 00 00
	00 00		 mov	 DWORD PTR [esi+24], 0

; 137  : 		m_fnUpdateST = NULL;

  00059	c7 46 1c 00 00
	00 00		 mov	 DWORD PTR [esi+28], 0

; 138  : 		m_fnCommandST = NULL;

  00060	c7 46 20 00 00
	00 00		 mov	 DWORD PTR [esi+32], 0
$LN10@Unload:

; 161  : 		return -1;
; 162  : 	}
; 163  : 
; 164  : //	if(!m_lSTActor)	return 0;
; 165  : //	if(!m_hSTDll) return -1;
; 166  : 	return 1;

  00067	b8 01 00 00 00	 mov	 eax, 1
  0006c	5e		 pop	 esi

; 167  : }

  0006d	c3		 ret	 0
$LN5@Unload:

; 158  : 	else
; 159  : 	{
; 160  : 		AfxMessageBox("CDllSTLoader::Unload(-1)");

  0006e	6a 00		 push	 0
  00070	6a 00		 push	 0
  00072	68 00 00 00 00	 push	 OFFSET ??_C@_0BJ@DNCEOOBO@CDllSTLoader?3?3Unload?$CI?91?$CJ@
  00077	e8 00 00 00 00	 call	 ?AfxMessageBox@@YGHPBDII@Z ; AfxMessageBox
$LN13@Unload:

; 167  : }

  0007c	83 c8 ff	 or	 eax, -1
  0007f	5e		 pop	 esi
  00080	c3		 ret	 0
$LN3@Unload:

; 152  : 	else
; 153  : 	{
; 154  : 		AfxMessageBox("CDllSTLoader::Unload(0)");

  00081	6a 00		 push	 0
  00083	6a 00		 push	 0
  00085	68 00 00 00 00	 push	 OFFSET ??_C@_0BI@CICMPJHD@CDllSTLoader?3?3Unload?$CI0?$CJ@
  0008a	e8 00 00 00 00	 call	 ?AfxMessageBox@@YGHPBDII@Z ; AfxMessageBox

; 155  : 		return 0;

  0008f	33 c0		 xor	 eax, eax
  00091	5e		 pop	 esi

; 167  : }

  00092	c3		 ret	 0
?Unload@CDllSTLoader@@QAEJXZ ENDP			; CDllSTLoader::Unload
_TEXT	ENDS
; Function compile flags: /Ogtp
; File D:\git\src\IBK\IBK_DRFN\ProjSrc\SrcDrfn\Chart\Common_ST\DllSTLoader.cpp
;	COMDAT ?Update@CDllSTLoader@@QAEJJH@Z
_TEXT	SEGMENT
_lPos$ = 8						; size = 4
_bIsUpdateData$ = 12					; size = 4
?Update@CDllSTLoader@@QAEJJH@Z PROC			; CDllSTLoader::Update, COMDAT
; _this$ = ecx

; 192  : {

  00000	55		 push	 ebp
  00001	8b ec		 mov	 ebp, esp

; 193  : 	if(!m_lSTActor)	return 0;

  00003	8b 41 2c	 mov	 eax, DWORD PTR [ecx+44]
  00006	85 c0		 test	 eax, eax
  00008	74 16		 je	 SHORT $LN5@Update

; 194  : 	if(!m_hSTDll) return 0;

  0000a	83 79 24 00	 cmp	 DWORD PTR [ecx+36], 0
  0000e	74 10		 je	 SHORT $LN5@Update

; 195  : 	return m_fnUpdateST(m_lSTActor,lPos,bIsUpdateData);

  00010	ff 75 0c	 push	 DWORD PTR _bIsUpdateData$[ebp]
  00013	ff 75 08	 push	 DWORD PTR _lPos$[ebp]
  00016	50		 push	 eax
  00017	8b 41 1c	 mov	 eax, DWORD PTR [ecx+28]
  0001a	ff d0		 call	 eax

; 196  : }

  0001c	5d		 pop	 ebp
  0001d	c2 08 00	 ret	 8
$LN5@Update:

; 194  : 	if(!m_hSTDll) return 0;

  00020	33 c0		 xor	 eax, eax

; 196  : }

  00022	5d		 pop	 ebp
  00023	c2 08 00	 ret	 8
?Update@CDllSTLoader@@QAEJJH@Z ENDP			; CDllSTLoader::Update
_TEXT	ENDS
; Function compile flags: /Ogtp
; File D:\git\src\IBK\IBK_DRFN\ProjSrc\SrcDrfn\Chart\Common_ST\DllSTLoader.cpp
;	COMDAT ?Pause@CDllSTLoader@@QAEJXZ
_TEXT	SEGMENT
?Pause@CDllSTLoader@@QAEJXZ PROC			; CDllSTLoader::Pause, COMDAT
; _this$ = ecx

; 186  : 	if(!m_lSTActor)	return 0;

  00000	8b 41 2c	 mov	 eax, DWORD PTR [ecx+44]
  00003	85 c0		 test	 eax, eax
  00005	74 0d		 je	 SHORT $LN5@Pause

; 187  : 	if(!m_hSTDll) return 0;

  00007	83 79 24 00	 cmp	 DWORD PTR [ecx+36], 0
  0000b	74 07		 je	 SHORT $LN5@Pause

; 188  : 	return m_fnPauseST(m_lSTActor);

  0000d	50		 push	 eax
  0000e	8b 41 18	 mov	 eax, DWORD PTR [ecx+24]
  00011	ff d0		 call	 eax

; 189  : }

  00013	c3		 ret	 0
$LN5@Pause:

; 187  : 	if(!m_hSTDll) return 0;

  00014	33 c0		 xor	 eax, eax

; 189  : }

  00016	c3		 ret	 0
?Pause@CDllSTLoader@@QAEJXZ ENDP			; CDllSTLoader::Pause
_TEXT	ENDS
; Function compile flags: /Ogtp
; File D:\git\src\IBK\IBK_DRFN\ProjSrc\SrcDrfn\Chart\Common_ST\DllSTLoader.cpp
;	COMDAT ?Stop@CDllSTLoader@@QAEJXZ
_TEXT	SEGMENT
?Stop@CDllSTLoader@@QAEJXZ PROC				; CDllSTLoader::Stop, COMDAT
; _this$ = ecx

; 179  : 	if(!m_lSTActor)	return 0;

  00000	8b 41 2c	 mov	 eax, DWORD PTR [ecx+44]
  00003	85 c0		 test	 eax, eax
  00005	74 0d		 je	 SHORT $LN5@Stop

; 180  : 	if(!m_hSTDll) return 0;

  00007	83 79 24 00	 cmp	 DWORD PTR [ecx+36], 0
  0000b	74 07		 je	 SHORT $LN5@Stop

; 181  : 	return m_fnStopST(m_lSTActor);

  0000d	50		 push	 eax
  0000e	8b 41 14	 mov	 eax, DWORD PTR [ecx+20]
  00011	ff d0		 call	 eax

; 182  : }

  00013	c3		 ret	 0
$LN5@Stop:

; 180  : 	if(!m_hSTDll) return 0;

  00014	33 c0		 xor	 eax, eax

; 182  : }

  00016	c3		 ret	 0
?Stop@CDllSTLoader@@QAEJXZ ENDP				; CDllSTLoader::Stop
_TEXT	ENDS
; Function compile flags: /Ogtp
; File D:\git\src\IBK\IBK_DRFN\ProjSrc\SrcDrfn\Chart\Common_ST\DllSTLoader.cpp
;	COMDAT ?Execute@CDllSTLoader@@QAEJPBD@Z
_TEXT	SEGMENT
_lpInputData$ = 8					; size = 4
?Execute@CDllSTLoader@@QAEJPBD@Z PROC			; CDllSTLoader::Execute, COMDAT
; _this$ = ecx

; 171  : {

  00000	55		 push	 ebp
  00001	8b ec		 mov	 ebp, esp

; 172  : 	if(!m_lSTActor)	return 0;

  00003	8b 41 2c	 mov	 eax, DWORD PTR [ecx+44]
  00006	85 c0		 test	 eax, eax
  00008	74 13		 je	 SHORT $LN5@Execute

; 173  : 	if(!m_hSTDll) return 0;

  0000a	83 79 24 00	 cmp	 DWORD PTR [ecx+36], 0
  0000e	74 0d		 je	 SHORT $LN5@Execute

; 174  : 	return m_fnExecuteST(m_lSTActor, lpInputData);

  00010	ff 75 08	 push	 DWORD PTR _lpInputData$[ebp]
  00013	50		 push	 eax
  00014	8b 41 10	 mov	 eax, DWORD PTR [ecx+16]
  00017	ff d0		 call	 eax

; 175  : }

  00019	5d		 pop	 ebp
  0001a	c2 04 00	 ret	 4
$LN5@Execute:

; 173  : 	if(!m_hSTDll) return 0;

  0001d	33 c0		 xor	 eax, eax

; 175  : }

  0001f	5d		 pop	 ebp
  00020	c2 04 00	 ret	 4
?Execute@CDllSTLoader@@QAEJPBD@Z ENDP			; CDllSTLoader::Execute
_TEXT	ENDS
; Function compile flags: /Ogtp
; File D:\git\src\IBK\IBK_DRFN\ProjSrc\SrcDrfn\Chart\Common_ST\DllSTLoader.cpp
;	COMDAT ?Load@CDllSTLoader@@QAEJPBDPAUHWND__@@J0H0J@Z
_TEXT	SEGMENT
_lpSDDllNamePath$ = 8					; size = 4
_hParent$ = 12						; size = 4
_lKey$ = 16						; size = 4
_lpSTName$ = 20						; size = 4
_nSTPos$ = 24						; size = 4
_lpAdditionalOption$ = 28				; size = 4
_pChartItem$ = 32					; size = 4
?Load@CDllSTLoader@@QAEJPBDPAUHWND__@@J0H0J@Z PROC	; CDllSTLoader::Load, COMDAT
; _this$ = ecx

; 41   : {

  00000	55		 push	 ebp
  00001	8b ec		 mov	 ebp, esp

; 42   : 	if(!lKey)	return -1;		

  00003	83 7d 10 00	 cmp	 DWORD PTR _lKey$[ebp], 0
  00007	56		 push	 esi
  00008	8b f1		 mov	 esi, ecx
  0000a	74 3a		 je	 SHORT $LN6@Load

; 43   : 	if(m_hSTDll)

  0000c	83 7e 24 00	 cmp	 DWORD PTR [esi+36], 0
  00010	74 05		 je	 SHORT $LN3@Load

; 44   : 	{
; 45   : 		Unload();

  00012	e8 00 00 00 00	 call	 ?Unload@CDllSTLoader@@QAEJXZ ; CDllSTLoader::Unload
$LN3@Load:

; 46   : 	}	
; 47   : 	BOOL bRetValue = LoadDLL(lpSDDllNamePath);

  00017	ff 75 08	 push	 DWORD PTR _lpSDDllNamePath$[ebp]
  0001a	8b ce		 mov	 ecx, esi
  0001c	e8 00 00 00 00	 call	 ?LoadDLL@CDllSTLoader@@AAEHPBD@Z ; CDllSTLoader::LoadDLL

; 48   : 	if(!bRetValue)

  00021	85 c0		 test	 eax, eax
  00023	74 21		 je	 SHORT $LN6@Load

; 51   : 	}
; 52   : 
; 53   : 	// 20060705 함수인자 제거 : , hSocket, (CDBMgr*)pDrMLib_CDBMgr
; 54   : 	//m_lSTActor = m_fnLoadST(hParent, hSocket, (CDBMgr*)pDrMLib_CDBMgr, lKey, lpSTName,nSTPos,lpAdditionalOption);
; 55   : 	m_lSTActor = m_fnLoadST(hParent, NULL, pChartItem, lKey, lpSTName,nSTPos,lpAdditionalOption);

  00025	ff 75 1c	 push	 DWORD PTR _lpAdditionalOption$[ebp]
  00028	8b 46 08	 mov	 eax, DWORD PTR [esi+8]
  0002b	ff 75 18	 push	 DWORD PTR _nSTPos$[ebp]
  0002e	ff 75 14	 push	 DWORD PTR _lpSTName$[ebp]
  00031	ff 75 10	 push	 DWORD PTR _lKey$[ebp]
  00034	ff 75 20	 push	 DWORD PTR _pChartItem$[ebp]
  00037	6a 00		 push	 0
  00039	ff 75 0c	 push	 DWORD PTR _hParent$[ebp]
  0003c	ff d0		 call	 eax
  0003e	89 46 2c	 mov	 DWORD PTR [esi+44], eax
  00041	5e		 pop	 esi

; 56   : 
; 57   : 	return m_lSTActor;
; 58   : }

  00042	5d		 pop	 ebp
  00043	c2 1c 00	 ret	 28			; 0000001cH
$LN6@Load:

; 49   : 	{
; 50   : 		return -1;

  00046	83 c8 ff	 or	 eax, -1
  00049	5e		 pop	 esi

; 56   : 
; 57   : 	return m_lSTActor;
; 58   : }

  0004a	5d		 pop	 ebp
  0004b	c2 1c 00	 ret	 28			; 0000001cH
?Load@CDllSTLoader@@QAEJPBDPAUHWND__@@J0H0J@Z ENDP	; CDllSTLoader::Load
_TEXT	ENDS
; Function compile flags: /Ogtp
; File D:\git\src\IBK\IBK_DRFN\ProjSrc\SrcDrfn\Chart\Common_ST\DllSTLoader.cpp
;	COMDAT ??1CDllSTLoader@@UAE@XZ
_TEXT	SEGMENT
__$EHRec$ = -12						; size = 12
??1CDllSTLoader@@UAE@XZ PROC				; CDllSTLoader::~CDllSTLoader, COMDAT
; _this$ = ecx

; 33   : {

  00000	55		 push	 ebp
  00001	8b ec		 mov	 ebp, esp
  00003	6a ff		 push	 -1
  00005	68 00 00 00 00	 push	 __ehhandler$??1CDllSTLoader@@UAE@XZ
  0000a	64 a1 00 00 00
	00		 mov	 eax, DWORD PTR fs:0
  00010	50		 push	 eax
  00011	56		 push	 esi
  00012	a1 00 00 00 00	 mov	 eax, DWORD PTR ___security_cookie
  00017	33 c5		 xor	 eax, ebp
  00019	50		 push	 eax
  0001a	8d 45 f4	 lea	 eax, DWORD PTR __$EHRec$[ebp]
  0001d	64 a3 00 00 00
	00		 mov	 DWORD PTR fs:0, eax
  00023	8b f1		 mov	 esi, ecx
  00025	c7 06 00 00 00
	00		 mov	 DWORD PTR [esi], OFFSET ??_7CDllSTLoader@@6B@

; 34   : 	Unload();

  0002b	e8 00 00 00 00	 call	 ?Unload@CDllSTLoader@@QAEJXZ ; CDllSTLoader::Unload

; 35   : }

  00030	8d 4e 30	 lea	 ecx, DWORD PTR [esi+48]
  00033	ff 15 00 00 00
	00		 call	 DWORD PTR __imp_??1?$CStringT@DV?$StrTraitMFC_DLL@DV?$ChTraitsCRT@D@ATL@@@@@ATL@@QAE@XZ
  00039	8d 4e 28	 lea	 ecx, DWORD PTR [esi+40]
  0003c	ff 15 00 00 00
	00		 call	 DWORD PTR __imp_??1?$CStringT@DV?$StrTraitMFC_DLL@DV?$ChTraitsCRT@D@ATL@@@@@ATL@@QAE@XZ
  00042	8b 4d f4	 mov	 ecx, DWORD PTR __$EHRec$[ebp]
  00045	64 89 0d 00 00
	00 00		 mov	 DWORD PTR fs:0, ecx
  0004c	59		 pop	 ecx
  0004d	5e		 pop	 esi
  0004e	8b e5		 mov	 esp, ebp
  00050	5d		 pop	 ebp
  00051	c3		 ret	 0
  00052	cc		 int	 3
  00053	cc		 int	 3
  00054	cc		 int	 3
  00055	cc		 int	 3
  00056	cc		 int	 3
_TEXT	ENDS
;	COMDAT text$x
text$x	SEGMENT
__ehhandler$??1CDllSTLoader@@UAE@XZ:
  00000	90		 npad	 1
  00001	90		 npad	 1
  00002	8b 54 24 08	 mov	 edx, DWORD PTR [esp+8]
  00006	8d 42 0c	 lea	 eax, DWORD PTR [edx+12]
  00009	8b 4a f8	 mov	 ecx, DWORD PTR [edx-8]
  0000c	33 c8		 xor	 ecx, eax
  0000e	e8 00 00 00 00	 call	 @__security_check_cookie@4
  00013	b8 00 00 00 00	 mov	 eax, OFFSET __ehfuncinfo$??1CDllSTLoader@@UAE@XZ
  00018	e9 00 00 00 00	 jmp	 ___CxxFrameHandler3
text$x	ENDS
??1CDllSTLoader@@UAE@XZ ENDP				; CDllSTLoader::~CDllSTLoader
; Function compile flags: /Ogtp
; File D:\git\src\IBK\IBK_DRFN\ProjSrc\SrcDrfn\Chart\Common_ST\DllSTLoader.cpp
;	COMDAT ??0CDllSTLoader@@QAE@XZ
_TEXT	SEGMENT
_this$ = -4						; size = 4
??0CDllSTLoader@@QAE@XZ PROC				; CDllSTLoader::CDllSTLoader, COMDAT
; _this$ = ecx

; 19   : {

  00000	55		 push	 ebp
  00001	8b ec		 mov	 ebp, esp
  00003	51		 push	 ecx
  00004	56		 push	 esi
  00005	8b f1		 mov	 esi, ecx
  00007	89 75 fc	 mov	 DWORD PTR _this$[ebp], esi
  0000a	8d 4e 28	 lea	 ecx, DWORD PTR [esi+40]
  0000d	c7 06 00 00 00
	00		 mov	 DWORD PTR [esi], OFFSET ??_7CDllSTLoader@@6B@
  00013	ff 15 00 00 00
	00		 call	 DWORD PTR __imp_??0?$CStringT@DV?$StrTraitMFC_DLL@DV?$ChTraitsCRT@D@ATL@@@@@ATL@@QAE@XZ
  00019	8d 4e 30	 lea	 ecx, DWORD PTR [esi+48]
  0001c	ff 15 00 00 00
	00		 call	 DWORD PTR __imp_??0?$CStringT@DV?$StrTraitMFC_DLL@DV?$ChTraitsCRT@D@ATL@@@@@ATL@@QAE@XZ

; 20   : 	m_hSTDll= NULL;

  00022	c7 46 24 00 00
	00 00		 mov	 DWORD PTR [esi+36], 0

; 21   : 	m_fnGetInputs = NULL;
; 22   : 	m_fnLoadST = NULL;
; 23   : 	m_fnUnloadST = NULL;
; 24   : 	m_fnExecuteST = NULL;
; 25   : 	m_fnStopST = NULL;
; 26   : 	m_fnPauseST = NULL;
; 27   : 	m_fnUpdateST = NULL;
; 28   : 	m_fnCommandST = NULL;
; 29   : 	m_lSTActor = NULL;
; 30   : }

  00029	8b c6		 mov	 eax, esi
  0002b	c7 46 04 00 00
	00 00		 mov	 DWORD PTR [esi+4], 0
  00032	c7 46 08 00 00
	00 00		 mov	 DWORD PTR [esi+8], 0
  00039	c7 46 0c 00 00
	00 00		 mov	 DWORD PTR [esi+12], 0
  00040	c7 46 10 00 00
	00 00		 mov	 DWORD PTR [esi+16], 0
  00047	c7 46 14 00 00
	00 00		 mov	 DWORD PTR [esi+20], 0
  0004e	c7 46 18 00 00
	00 00		 mov	 DWORD PTR [esi+24], 0
  00055	c7 46 1c 00 00
	00 00		 mov	 DWORD PTR [esi+28], 0
  0005c	c7 46 20 00 00
	00 00		 mov	 DWORD PTR [esi+32], 0
  00063	c7 46 2c 00 00
	00 00		 mov	 DWORD PTR [esi+44], 0
  0006a	5e		 pop	 esi
  0006b	8b e5		 mov	 esp, ebp
  0006d	5d		 pop	 ebp
  0006e	c3		 ret	 0
??0CDllSTLoader@@QAE@XZ ENDP				; CDllSTLoader::CDllSTLoader
_TEXT	ENDS
; Function compile flags: /Ogtp
; File D:\git\src\IBK\IBK_DRFN\ProjSrc\SrcDrfn\Chart\Common_ST\DllSTLoader.cpp
;	COMDAT ?__empty_global_delete@@YAXPAXI@Z
_TEXT	SEGMENT
___formal$ = 8						; size = 4
___formal$ = 12						; size = 4
?__empty_global_delete@@YAXPAXI@Z PROC			; __empty_global_delete, COMDAT

  00000	c2 00 00	 ret	 0
?__empty_global_delete@@YAXPAXI@Z ENDP			; __empty_global_delete
_TEXT	ENDS
; Function compile flags: /Ogtp
; File D:\git\src\IBK\IBK_DRFN\ProjSrc\SrcDrfn\Chart\Common_ST\DllSTLoader.cpp
;	COMDAT ?__empty_global_delete@@YAXPAX@Z
_TEXT	SEGMENT
___formal$ = 8						; size = 4
?__empty_global_delete@@YAXPAX@Z PROC			; __empty_global_delete, COMDAT

  00000	c2 00 00	 ret	 0
?__empty_global_delete@@YAXPAX@Z ENDP			; __empty_global_delete
_TEXT	ENDS
END
