; Listing generated by Microsoft (R) Optimizing Compiler Version 19.29.30148.0 

	TITLE	D:\git\src\IBK\IBK_DRFN\#DRfn-CS\_Obj\MultiChart\ExtInputBarDlg.obj
	.686P
	.XMM
	include listing.inc
	.model	flat

INCLUDELIB MSVCRT
INCLUDELIB OLDNAMES

PUBLIC	??_C@_0BE@PJHMBKJL@RMSG_GETOPENEDOWNER@		; `string'
PUBLIC	??_C@_0BB@MOBMECFH@RMSG_PRINTSCREEN@		; `string'
PUBLIC	??_C@_0BF@CFCBGLOI@RMSG_OPENCHARTCONFIG@	; `string'
PUBLIC	??_C@_0BH@KFIGLKAC@RMSG_GET_CONTROLHANDLE@	; `string'
PUBLIC	??_C@_0BE@FJGLHLFN@RMSG_GETCURRENTMODE@		; `string'
PUBLIC	?WM_ATLGETHOST@ATL@@3IA				; ATL::WM_ATLGETHOST
PUBLIC	?WM_ATLGETCONTROL@ATL@@3IA			; ATL::WM_ATLGETCONTROL
PUBLIC	??_C@_0BE@FJPKENOB@RMSG_GETSIGNAL_REAL@		; `string'
PUBLIC	??_C@_0BB@CNOFPEHG@RMSG_SETQUERYOPT@		; `string'
PUBLIC	??_C@_0P@KHFCBIOH@RMSG_CHARTMAIN@		; `string'
PUBLIC	??_C@_0BC@MMPGLPDH@RMS_ANALYSIS_FUNC@		; `string'
PUBLIC	??_C@_0BA@HKNFENJL@RMSG_GET_USERID@		; `string'
PUBLIC	??_C@_0BG@CNPAHNGG@RMSG_CHANGE_SKINCOLOR@	; `string'
PUBLIC	??_C@_0BD@FLDNDDHK@RMSG_GET_SKINCOLOR@		; `string'
PUBLIC	??_C@_0BJ@JLKHIBIK@RMSG_CHANGEVERTSCALETYPE@	; `string'
PUBLIC	??_C@_0BG@LNLCJKPF@RMSG_CHANGE_CROSSLINE@	; `string'
PUBLIC	??_C@_0BH@IFDMIMBP@RMSG_ADD_PLATFORM_MENU@	; `string'
PUBLIC	??_C@_0BJ@OGNAJHHI@RMSG_SETINITIALCHARTDATA@	; `string'
PUBLIC	??_C@_0N@IIOKMIEH@RMSG_GETINFO@			; `string'
PUBLIC	??_C@_0N@HABLPHJG@RMSG_SETINFO@			; `string'
PUBLIC	??_C@_0P@BKKCOCLK@RMSG_INTERFACE@		; `string'
PUBLIC	??_C@_0BB@IBKHOHJL@RMSG_REPLAY_REAL@		; `string'
PUBLIC	??_C@_0BB@JFLGBADG@RMSG_REPLAY_FAIL@		; `string'
PUBLIC	??_C@_0BI@KDGAIIMD@RMSG_REPLAY_CHANGE_DATE@	; `string'
PUBLIC	??_C@_0BA@NKHHCPON@RMSG_REPLAY_END@		; `string'
PUBLIC	??_C@_0BE@JFCIMCIP@RMSG_REPLAY_INC_SEC@		; `string'
PUBLIC	??_C@_0BG@GIAJEIJF@RMSG_REPLAY_TOTAL_SEC@	; `string'
PUBLIC	?m_bInitFailed@CAtlBaseModule@ATL@@2_NA		; ATL::CAtlBaseModule::m_bInitFailed
PUBLIC	??_C@_0BE@LPIAJPJA@RMSG_GET_STDDLG_PTR@		; `string'
PUBLIC	?_pAtlModule@ATL@@3PAVCAtlModule@1@A		; ATL::_pAtlModule
PUBLIC	?_pAtlAutoThreadModule@ATL@@3PAUIAtlAutoThreadModule@1@A ; ATL::_pAtlAutoThreadModule
EXTRN	?_AtlBaseModule@ATL@@3VCAtlBaseModule@1@A:BYTE	; ATL::_AtlBaseModule
;	COMDAT ?WM_ATLGETHOST@ATL@@3IA
_BSS	SEGMENT
?WM_ATLGETHOST@ATL@@3IA DD 01H DUP (?)			; ATL::WM_ATLGETHOST
_BSS	ENDS
;	COMDAT ?WM_ATLGETCONTROL@ATL@@3IA
_BSS	SEGMENT
?WM_ATLGETCONTROL@ATL@@3IA DD 01H DUP (?)		; ATL::WM_ATLGETCONTROL
_BSS	ENDS
;	COMDAT ?m_bInitFailed@CAtlBaseModule@ATL@@2_NA
_BSS	SEGMENT
?m_bInitFailed@CAtlBaseModule@ATL@@2_NA DB 01H DUP (?)	; ATL::CAtlBaseModule::m_bInitFailed
_BSS	ENDS
;	COMDAT ?_pAtlModule@ATL@@3PAVCAtlModule@1@A
_BSS	SEGMENT
?_pAtlModule@ATL@@3PAVCAtlModule@1@A DD 01H DUP (?)	; ATL::_pAtlModule
_BSS	ENDS
;	COMDAT ?_pAtlAutoThreadModule@ATL@@3PAUIAtlAutoThreadModule@1@A
_BSS	SEGMENT
?_pAtlAutoThreadModule@ATL@@3PAUIAtlAutoThreadModule@1@A DD 01H DUP (?) ; ATL::_pAtlAutoThreadModule
_BSS	ENDS
;	COMDAT ??_C@_0BE@LPIAJPJA@RMSG_GET_STDDLG_PTR@
CONST	SEGMENT
??_C@_0BE@LPIAJPJA@RMSG_GET_STDDLG_PTR@ DB 'RMSG_GET_STDDLG_PTR', 00H ; `string'
CONST	ENDS
;	COMDAT ??_C@_0BG@GIAJEIJF@RMSG_REPLAY_TOTAL_SEC@
CONST	SEGMENT
??_C@_0BG@GIAJEIJF@RMSG_REPLAY_TOTAL_SEC@ DB 'RMSG_REPLAY_TOTAL_SEC', 00H ; `string'
CONST	ENDS
;	COMDAT ??_C@_0BE@JFCIMCIP@RMSG_REPLAY_INC_SEC@
CONST	SEGMENT
??_C@_0BE@JFCIMCIP@RMSG_REPLAY_INC_SEC@ DB 'RMSG_REPLAY_INC_SEC', 00H ; `string'
CONST	ENDS
;	COMDAT ??_C@_0BA@NKHHCPON@RMSG_REPLAY_END@
CONST	SEGMENT
??_C@_0BA@NKHHCPON@RMSG_REPLAY_END@ DB 'RMSG_REPLAY_END', 00H ; `string'
CONST	ENDS
;	COMDAT ??_C@_0BI@KDGAIIMD@RMSG_REPLAY_CHANGE_DATE@
CONST	SEGMENT
??_C@_0BI@KDGAIIMD@RMSG_REPLAY_CHANGE_DATE@ DB 'RMSG_REPLAY_CHANGE_DATE', 00H ; `string'
CONST	ENDS
;	COMDAT ??_C@_0BB@JFLGBADG@RMSG_REPLAY_FAIL@
CONST	SEGMENT
??_C@_0BB@JFLGBADG@RMSG_REPLAY_FAIL@ DB 'RMSG_REPLAY_FAIL', 00H ; `string'
CONST	ENDS
;	COMDAT ??_C@_0BB@IBKHOHJL@RMSG_REPLAY_REAL@
CONST	SEGMENT
??_C@_0BB@IBKHOHJL@RMSG_REPLAY_REAL@ DB 'RMSG_REPLAY_REAL', 00H ; `string'
CONST	ENDS
;	COMDAT ??_C@_0P@BKKCOCLK@RMSG_INTERFACE@
CONST	SEGMENT
??_C@_0P@BKKCOCLK@RMSG_INTERFACE@ DB 'RMSG_INTERFACE', 00H ; `string'
CONST	ENDS
;	COMDAT ??_C@_0N@HABLPHJG@RMSG_SETINFO@
CONST	SEGMENT
??_C@_0N@HABLPHJG@RMSG_SETINFO@ DB 'RMSG_SETINFO', 00H	; `string'
CONST	ENDS
;	COMDAT ??_C@_0N@IIOKMIEH@RMSG_GETINFO@
CONST	SEGMENT
??_C@_0N@IIOKMIEH@RMSG_GETINFO@ DB 'RMSG_GETINFO', 00H	; `string'
CONST	ENDS
;	COMDAT ??_C@_0BJ@OGNAJHHI@RMSG_SETINITIALCHARTDATA@
CONST	SEGMENT
??_C@_0BJ@OGNAJHHI@RMSG_SETINITIALCHARTDATA@ DB 'RMSG_SETINITIALCHARTDATA'
	DB	00H						; `string'
CONST	ENDS
;	COMDAT ??_C@_0BH@IFDMIMBP@RMSG_ADD_PLATFORM_MENU@
CONST	SEGMENT
??_C@_0BH@IFDMIMBP@RMSG_ADD_PLATFORM_MENU@ DB 'RMSG_ADD_PLATFORM_MENU', 00H ; `string'
CONST	ENDS
;	COMDAT ??_C@_0BG@LNLCJKPF@RMSG_CHANGE_CROSSLINE@
CONST	SEGMENT
??_C@_0BG@LNLCJKPF@RMSG_CHANGE_CROSSLINE@ DB 'RMSG_CHANGE_CROSSLINE', 00H ; `string'
CONST	ENDS
;	COMDAT ??_C@_0BJ@JLKHIBIK@RMSG_CHANGEVERTSCALETYPE@
CONST	SEGMENT
??_C@_0BJ@JLKHIBIK@RMSG_CHANGEVERTSCALETYPE@ DB 'RMSG_CHANGEVERTSCALETYPE'
	DB	00H						; `string'
CONST	ENDS
;	COMDAT ??_C@_0BD@FLDNDDHK@RMSG_GET_SKINCOLOR@
CONST	SEGMENT
??_C@_0BD@FLDNDDHK@RMSG_GET_SKINCOLOR@ DB 'RMSG_GET_SKINCOLOR', 00H ; `string'
CONST	ENDS
;	COMDAT ??_C@_0BG@CNPAHNGG@RMSG_CHANGE_SKINCOLOR@
CONST	SEGMENT
??_C@_0BG@CNPAHNGG@RMSG_CHANGE_SKINCOLOR@ DB 'RMSG_CHANGE_SKINCOLOR', 00H ; `string'
CONST	ENDS
;	COMDAT ??_C@_0BA@HKNFENJL@RMSG_GET_USERID@
CONST	SEGMENT
??_C@_0BA@HKNFENJL@RMSG_GET_USERID@ DB 'RMSG_GET_USERID', 00H ; `string'
CONST	ENDS
;	COMDAT ??_C@_0BC@MMPGLPDH@RMS_ANALYSIS_FUNC@
CONST	SEGMENT
??_C@_0BC@MMPGLPDH@RMS_ANALYSIS_FUNC@ DB 'RMS_ANALYSIS_FUNC', 00H ; `string'
CONST	ENDS
;	COMDAT ??_C@_0P@KHFCBIOH@RMSG_CHARTMAIN@
CONST	SEGMENT
??_C@_0P@KHFCBIOH@RMSG_CHARTMAIN@ DB 'RMSG_CHARTMAIN', 00H ; `string'
CONST	ENDS
;	COMDAT ??_C@_0BB@CNOFPEHG@RMSG_SETQUERYOPT@
CONST	SEGMENT
??_C@_0BB@CNOFPEHG@RMSG_SETQUERYOPT@ DB 'RMSG_SETQUERYOPT', 00H ; `string'
CONST	ENDS
;	COMDAT ??_C@_0BE@FJPKENOB@RMSG_GETSIGNAL_REAL@
CONST	SEGMENT
??_C@_0BE@FJPKENOB@RMSG_GETSIGNAL_REAL@ DB 'RMSG_GETSIGNAL_REAL', 00H ; `string'
CONST	ENDS
;	COMDAT ??_C@_0BE@FJGLHLFN@RMSG_GETCURRENTMODE@
CONST	SEGMENT
??_C@_0BE@FJGLHLFN@RMSG_GETCURRENTMODE@ DB 'RMSG_GETCURRENTMODE', 00H ; `string'
CONST	ENDS
;	COMDAT ??_C@_0BH@KFIGLKAC@RMSG_GET_CONTROLHANDLE@
CONST	SEGMENT
??_C@_0BH@KFIGLKAC@RMSG_GET_CONTROLHANDLE@ DB 'RMSG_GET_CONTROLHANDLE', 00H ; `string'
CONST	ENDS
;	COMDAT ??_C@_0BF@CFCBGLOI@RMSG_OPENCHARTCONFIG@
CONST	SEGMENT
??_C@_0BF@CFCBGLOI@RMSG_OPENCHARTCONFIG@ DB 'RMSG_OPENCHARTCONFIG', 00H ; `string'
CONST	ENDS
;	COMDAT ??_C@_0BB@MOBMECFH@RMSG_PRINTSCREEN@
CONST	SEGMENT
??_C@_0BB@MOBMECFH@RMSG_PRINTSCREEN@ DB 'RMSG_PRINTSCREEN', 00H ; `string'
CONST	ENDS
;	COMDAT ??_C@_0BE@PJHMBKJL@RMSG_GETOPENEDOWNER@
CONST	SEGMENT
??_C@_0BE@PJHMBKJL@RMSG_GETOPENEDOWNER@ DB 'RMSG_GETOPENEDOWNER', 00H ; `string'
CONST	ENDS
PUBLIC	?__empty_global_delete@@YAXPAX@Z		; __empty_global_delete
PUBLIC	?__empty_global_delete@@YAXPAXI@Z		; __empty_global_delete
PUBLIC	___local_stdio_scanf_options
PUBLIC	_sscanf
PUBLIC	??1CObject@@UAE@XZ				; CObject::~CObject
PUBLIC	?Serialize@CObject@@UAEXAAVCArchive@@@Z		; CObject::Serialize
PUBLIC	?AssertValid@CObject@@UBEXXZ			; CObject::AssertValid
PUBLIC	?Dump@CObject@@UBEXAAVCDumpContext@@@Z		; CObject::Dump
PUBLIC	?AtlThrowImpl@ATL@@YGXJ@Z			; ATL::AtlThrowImpl
PUBLIC	?_AtlRaiseException@ATL@@YAXKK@Z		; ATL::_AtlRaiseException
PUBLIC	?_AtlInitializeCriticalSectionEx@ATL@@YAHPAU_RTL_CRITICAL_SECTION@@KK@Z ; ATL::_AtlInitializeCriticalSectionEx
PUBLIC	??0CTime@ATL@@QAE@HHHHHHH@Z			; ATL::CTime::CTime
PUBLIC	?Format@CTime@ATL@@QBE?AV?$CStringT@DV?$StrTraitMFC_DLL@DV?$ChTraitsCRT@D@ATL@@@@@2@PBD@Z ; ATL::CTime::Format
PUBLIC	??1CGdiObject@@UAE@XZ				; CGdiObject::~CGdiObject
PUBLIC	??_GCGdiObject@@UAEPAXI@Z			; CGdiObject::`scalar deleting destructor'
PUBLIC	??1CBrush@@UAE@XZ				; CBrush::~CBrush
PUBLIC	??_GCBrush@@UAEPAXI@Z				; CBrush::`scalar deleting destructor'
PUBLIC	??1CBitmap@@UAE@XZ				; CBitmap::~CBitmap
PUBLIC	??_GCBitmap@@UAEPAXI@Z				; CBitmap::`scalar deleting destructor'
PUBLIC	??1CMenu@@UAE@XZ				; CMenu::~CMenu
PUBLIC	??_GCMenu@@UAEPAXI@Z				; CMenu::`scalar deleting destructor'
PUBLIC	?DoDataExchange@CWnd@@MAEXPAVCDataExchange@@@Z	; CWnd::DoDataExchange
PUBLIC	?BeginModalState@CWnd@@UAEXXZ			; CWnd::BeginModalState
PUBLIC	?EndModalState@CWnd@@UAEXXZ			; CWnd::EndModalState
PUBLIC	??_GCStatic@@UAEPAXI@Z				; CStatic::`scalar deleting destructor'
PUBLIC	?GetCheck@CButton@@QBEHXZ			; CButton::GetCheck
PUBLIC	??_GCButton@@UAEPAXI@Z				; CButton::`scalar deleting destructor'
PUBLIC	??_GCDateTimeCtrl@@UAEPAXI@Z			; CDateTimeCtrl::`scalar deleting destructor'
PUBLIC	??1CRscDlg@@UAE@XZ				; CRscDlg::~CRscDlg
PUBLIC	??1CMatrixSelecterDlg@@UAE@XZ			; CMatrixSelecterDlg::~CMatrixSelecterDlg
PUBLIC	?GetTimeSyncFlag@CExtInputBarDlg@@QAEHXZ	; CExtInputBarDlg::GetTimeSyncFlag
PUBLIC	?SetTimeSyncFlag@CExtInputBarDlg@@QAEXH@Z	; CExtInputBarDlg::SetTimeSyncFlag
PUBLIC	?OpenMap@CExtInputBarDlg@@QAEJPBD@Z		; CExtInputBarDlg::OpenMap
PUBLIC	?ChangeButtonColor@CExtInputBarDlg@@QAEXXZ	; CExtInputBarDlg::ChangeButtonColor
PUBLIC	??0CExtInputBarDlg@@QAE@PAVCWnd@@@Z		; CExtInputBarDlg::CExtInputBarDlg
PUBLIC	?SetMarketType@CExtInputBarDlg@@QAEXH@Z		; CExtInputBarDlg::SetMarketType
PUBLIC	?PreTranslateMessage@CExtInputBarDlg@@UAEHPAUtagMSG@@@Z ; CExtInputBarDlg::PreTranslateMessage
PUBLIC	?DoDataExchange@CExtInputBarDlg@@MAEXPAVCDataExchange@@@Z ; CExtInputBarDlg::DoDataExchange
PUBLIC	?WindowProc@CExtInputBarDlg@@MAEJIIJ@Z		; CExtInputBarDlg::WindowProc
PUBLIC	?ChangeStatusDateControl@CExtInputBarDlg@@QAEXH@Z ; CExtInputBarDlg::ChangeStatusDateControl
PUBLIC	?SetCheckRevised@CExtInputBarDlg@@QAEXH@Z	; CExtInputBarDlg::SetCheckRevised
PUBLIC	?InitChartMulitItem@CExtInputBarDlg@@QAEXPAU_ST_SELCHART@@@Z ; CExtInputBarDlg::InitChartMulitItem
PUBLIC	?GetQueryOpt@CExtInputBarDlg@@QAEHXZ		; CExtInputBarDlg::GetQueryOpt
PUBLIC	?SetQueryOpt@CExtInputBarDlg@@QAEXH@Z		; CExtInputBarDlg::SetQueryOpt
PUBLIC	?EnableQueryOpt@CExtInputBarDlg@@QAEXH@Z	; CExtInputBarDlg::EnableQueryOpt
PUBLIC	?ChangeSkinColor@CExtInputBarDlg@@QAEXXZ	; CExtInputBarDlg::ChangeSkinColor
PUBLIC	?SaveExtInputBar@CExtInputBarDlg@@QAEXXZ	; CExtInputBarDlg::SaveExtInputBar
PUBLIC	?ResetChartData@CExtInputBarDlg@@QAEXXZ		; CExtInputBarDlg::ResetChartData
PUBLIC	?MoveAccountCtrl@CExtInputBarDlg@@QAEXXZ	; CExtInputBarDlg::MoveAccountCtrl
PUBLIC	?EnableAccount@CExtInputBarDlg@@QAEXH@Z		; CExtInputBarDlg::EnableAccount
PUBLIC	?AddPopupMenuItem@CExtInputBarDlg@@QAEXPAVCMenu@@PAVCPoint@@@Z ; CExtInputBarDlg::AddPopupMenuItem
PUBLIC	?ActionPopupMenuItem@CExtInputBarDlg@@QAEXI@Z	; CExtInputBarDlg::ActionPopupMenuItem
PUBLIC	?SetExt@CExtInputBarDlg@@AAEXH@Z		; CExtInputBarDlg::SetExt
PUBLIC	?ClearLink@CExtInputBarDlg@@AAEXXZ		; CExtInputBarDlg::ClearLink
PUBLIC	??0?$CMap@IIV?$CStringT@DV?$StrTraitMFC_DLL@DV?$ChTraitsCRT@D@ATL@@@@@ATL@@PBD@@QAE@H@Z ; CMap<unsigned int,unsigned int,ATL::CStringT<char,StrTraitMFC_DLL<char,ATL::ChTraitsCRT<char> > >,char const *>::CMap<unsigned int,unsigned int,ATL::CStringT<char,StrTraitMFC_DLL<char,ATL::ChTraitsCRT<char> > >,char const *>
PUBLIC	?Lookup@?$CMap@IIV?$CStringT@DV?$StrTraitMFC_DLL@DV?$ChTraitsCRT@D@ATL@@@@@ATL@@PBD@@QBEHIAAV?$CStringT@DV?$StrTraitMFC_DLL@DV?$ChTraitsCRT@D@ATL@@@@@ATL@@@Z ; CMap<unsigned int,unsigned int,ATL::CStringT<char,StrTraitMFC_DLL<char,ATL::ChTraitsCRT<char> > >,char const *>::Lookup
PUBLIC	??A?$CMap@IIV?$CStringT@DV?$StrTraitMFC_DLL@DV?$ChTraitsCRT@D@ATL@@@@@ATL@@PBD@@QAEAAV?$CStringT@DV?$StrTraitMFC_DLL@DV?$ChTraitsCRT@D@ATL@@@@@ATL@@I@Z ; CMap<unsigned int,unsigned int,ATL::CStringT<char,StrTraitMFC_DLL<char,ATL::ChTraitsCRT<char> > >,char const *>::operator[]
PUBLIC	?RemoveAll@?$CMap@IIV?$CStringT@DV?$StrTraitMFC_DLL@DV?$ChTraitsCRT@D@ATL@@@@@ATL@@PBD@@QAEXXZ ; CMap<unsigned int,unsigned int,ATL::CStringT<char,StrTraitMFC_DLL<char,ATL::ChTraitsCRT<char> > >,char const *>::RemoveAll
PUBLIC	?InitHashTable@?$CMap@IIV?$CStringT@DV?$StrTraitMFC_DLL@DV?$ChTraitsCRT@D@ATL@@@@@ATL@@PBD@@QAEXIH@Z ; CMap<unsigned int,unsigned int,ATL::CStringT<char,StrTraitMFC_DLL<char,ATL::ChTraitsCRT<char> > >,char const *>::InitHashTable
PUBLIC	?NewAssoc@?$CMap@IIV?$CStringT@DV?$StrTraitMFC_DLL@DV?$ChTraitsCRT@D@ATL@@@@@ATL@@PBD@@IAEPAVCAssoc@1@I@Z ; CMap<unsigned int,unsigned int,ATL::CStringT<char,StrTraitMFC_DLL<char,ATL::ChTraitsCRT<char> > >,char const *>::NewAssoc
PUBLIC	?GetAssocAt@?$CMap@IIV?$CStringT@DV?$StrTraitMFC_DLL@DV?$ChTraitsCRT@D@ATL@@@@@ATL@@PBD@@IBEPAVCAssoc@1@IAAI0@Z ; CMap<unsigned int,unsigned int,ATL::CStringT<char,StrTraitMFC_DLL<char,ATL::ChTraitsCRT<char> > >,char const *>::GetAssocAt
PUBLIC	??1?$CMap@IIV?$CStringT@DV?$StrTraitMFC_DLL@DV?$ChTraitsCRT@D@ATL@@@@@ATL@@PBD@@UAE@XZ ; CMap<unsigned int,unsigned int,ATL::CStringT<char,StrTraitMFC_DLL<char,ATL::ChTraitsCRT<char> > >,char const *>::~CMap<unsigned int,unsigned int,ATL::CStringT<char,StrTraitMFC_DLL<char,ATL::ChTraitsCRT<char> > >,char const *>
PUBLIC	?Serialize@?$CMap@IIV?$CStringT@DV?$StrTraitMFC_DLL@DV?$ChTraitsCRT@D@ATL@@@@@ATL@@PBD@@UAEXAAVCArchive@@@Z ; CMap<unsigned int,unsigned int,ATL::CStringT<char,StrTraitMFC_DLL<char,ATL::ChTraitsCRT<char> > >,char const *>::Serialize
PUBLIC	??_G?$CMap@IIV?$CStringT@DV?$StrTraitMFC_DLL@DV?$ChTraitsCRT@D@ATL@@@@@ATL@@PBD@@UAEPAXI@Z ; CMap<unsigned int,unsigned int,ATL::CStringT<char,StrTraitMFC_DLL<char,ATL::ChTraitsCRT<char> > >,char const *>::`scalar deleting destructor'
PUBLIC	?OnCommand@CExtInputBarDlg@@MAEHIJ@Z		; CExtInputBarDlg::OnCommand
PUBLIC	?OnInitDialog@CExtInputBarDlg@@MAEHXZ		; CExtInputBarDlg::OnInitDialog
PUBLIC	?OnBtScrollPre@CExtInputBarDlg@@IAEXXZ		; CExtInputBarDlg::OnBtScrollPre
PUBLIC	?OnBtScrollNext@CExtInputBarDlg@@IAEXXZ		; CExtInputBarDlg::OnBtScrollNext
PUBLIC	?OnBtScrollStop@CExtInputBarDlg@@IAEXXZ		; CExtInputBarDlg::OnBtScrollStop
PUBLIC	?OnBtinitsplit@CExtInputBarDlg@@IAEXXZ		; CExtInputBarDlg::OnBtinitsplit
PUBLIC	?OnBtindex@CExtInputBarDlg@@IAEXXZ		; CExtInputBarDlg::OnBtindex
PUBLIC	?OnChkjongmoklink@CExtInputBarDlg@@IAEXXZ	; CExtInputBarDlg::OnChkjongmoklink
PUBLIC	?OnChktypelink@CExtInputBarDlg@@IAEXXZ		; CExtInputBarDlg::OnChktypelink
PUBLIC	?OnBtload@CExtInputBarDlg@@IAEXXZ		; CExtInputBarDlg::OnBtload
PUBLIC	?OnBtsave@CExtInputBarDlg@@IAEXXZ		; CExtInputBarDlg::OnBtsave
PUBLIC	?OnBtinitial@CExtInputBarDlg@@IAEXXZ		; CExtInputBarDlg::OnBtinitial
PUBLIC	?OnBtchartconfig@CExtInputBarDlg@@IAEXXZ	; CExtInputBarDlg::OnBtchartconfig
PUBLIC	?OnDestroy@CExtInputBarDlg@@IAEXXZ		; CExtInputBarDlg::OnDestroy
PUBLIC	?OnChkshowscale@CExtInputBarDlg@@IAEXXZ		; CExtInputBarDlg::OnChkshowscale
PUBLIC	?OnCtlColor@CExtInputBarDlg@@IAEPAUHBRUSH__@@PAVCDC@@PAVCWnd@@I@Z ; CExtInputBarDlg::OnCtlColor
PUBLIC	?OnBtprint@CExtInputBarDlg@@IAEXXZ		; CExtInputBarDlg::OnBtprint
PUBLIC	?OnBtsetenvir@CExtInputBarDlg@@IAEXXZ		; CExtInputBarDlg::OnBtsetenvir
PUBLIC	?OnBtshowmatrix@CExtInputBarDlg@@IAEXXZ		; CExtInputBarDlg::OnBtshowmatrix
PUBLIC	?OnLButtonDown@CExtInputBarDlg@@IAEXIVCPoint@@@Z ; CExtInputBarDlg::OnLButtonDown
PUBLIC	?OnBtexnext@CExtInputBarDlg@@IAEXXZ		; CExtInputBarDlg::OnBtexnext
PUBLIC	?OnBtexprev@CExtInputBarDlg@@IAEXXZ		; CExtInputBarDlg::OnBtexprev
PUBLIC	?OnBtanalysispattern@CExtInputBarDlg@@IAEXXZ	; CExtInputBarDlg::OnBtanalysispattern
PUBLIC	?OnBtchartguideline@CExtInputBarDlg@@IAEXXZ	; CExtInputBarDlg::OnBtchartguideline
PUBLIC	?OnBthist@CExtInputBarDlg@@IAEXXZ		; CExtInputBarDlg::OnBthist
PUBLIC	?OnBtst@CExtInputBarDlg@@IAEXXZ			; CExtInputBarDlg::OnBtst
PUBLIC	?OnBtnSdate@CExtInputBarDlg@@IAEXXZ		; CExtInputBarDlg::OnBtnSdate
PUBLIC	?OnBtnEdate@CExtInputBarDlg@@IAEXXZ		; CExtInputBarDlg::OnBtnEdate
PUBLIC	?OnDatetimechangeDatetimepicker1@CExtInputBarDlg@@IAEXXZ ; CExtInputBarDlg::OnDatetimechangeDatetimepicker1
PUBLIC	?OnCloseupDatetimepicker1@CExtInputBarDlg@@IAEXPAUtagNMHDR@@PAJ@Z ; CExtInputBarDlg::OnCloseupDatetimepicker1
PUBLIC	?OnBtnSellscr@CExtInputBarDlg@@IAEXXZ		; CExtInputBarDlg::OnBtnSellscr
PUBLIC	?OnBtnBuyscr@CExtInputBarDlg@@IAEXXZ		; CExtInputBarDlg::OnBtnBuyscr
PUBLIC	?OnBtfixperiod@CExtInputBarDlg@@IAEXXZ		; CExtInputBarDlg::OnBtfixperiod
PUBLIC	?OnChkEndsave@CExtInputBarDlg@@IAEXXZ		; CExtInputBarDlg::OnChkEndsave
PUBLIC	?OnChkupdateindex@CExtInputBarDlg@@IAEXXZ	; CExtInputBarDlg::OnChkupdateindex
PUBLIC	?OnBtnAnalizePeriod@CExtInputBarDlg@@IAEXXZ	; CExtInputBarDlg::OnBtnAnalizePeriod
PUBLIC	?OnChkRevised@CExtInputBarDlg@@IAEXXZ		; CExtInputBarDlg::OnChkRevised
PUBLIC	?OnBtnPeriod@CExtInputBarDlg@@IAEXXZ		; CExtInputBarDlg::OnBtnPeriod
PUBLIC	?OnBtetcmenu@CExtInputBarDlg@@IAEXXZ		; CExtInputBarDlg::OnBtetcmenu
PUBLIC	?OnBtSub2@CExtInputBarDlg@@IAEXXZ		; CExtInputBarDlg::OnBtSub2
PUBLIC	?OnBtnChangsynit@CExtInputBarDlg@@IAEXXZ	; CExtInputBarDlg::OnBtnChangsynit
PUBLIC	?OnChkfixperiod@CExtInputBarDlg@@IAEXXZ		; CExtInputBarDlg::OnChkfixperiod
PUBLIC	?OnBtnGwansim@CExtInputBarDlg@@IAEXXZ		; CExtInputBarDlg::OnBtnGwansim
PUBLIC	?OnEraseBkgnd@CExtInputBarDlg@@IAEHPAVCDC@@@Z	; CExtInputBarDlg::OnEraseBkgnd
PUBLIC	?OnPaint@CExtInputBarDlg@@IAEXXZ		; CExtInputBarDlg::OnPaint
PUBLIC	?OnSelchangeCmbScrollSpeed@CExtInputBarDlg@@IAEXXZ ; CExtInputBarDlg::OnSelchangeCmbScrollSpeed
PUBLIC	?OnChkQueryOpt@CExtInputBarDlg@@IAEXXZ		; CExtInputBarDlg::OnChkQueryOpt
PUBLIC	?OnChkAccountavg@CExtInputBarDlg@@IAEXXZ	; CExtInputBarDlg::OnChkAccountavg
PUBLIC	?OnChkAccountconc@CExtInputBarDlg@@IAEXXZ	; CExtInputBarDlg::OnChkAccountconc
PUBLIC	?OnSize@CExtInputBarDlg@@IAEXIHH@Z		; CExtInputBarDlg::OnSize
PUBLIC	?OnTimer@CExtInputBarDlg@@IAEXI@Z		; CExtInputBarDlg::OnTimer
PUBLIC	?OnChangeCrossLine@CExtInputBarDlg@@IAEJIJ@Z	; CExtInputBarDlg::OnChangeCrossLine
PUBLIC	?GetThisMessageMap@CExtInputBarDlg@@KGPBUAFX_MSGMAP@@XZ ; CExtInputBarDlg::GetThisMessageMap
PUBLIC	?GetMessageMap@CExtInputBarDlg@@MBEPBUAFX_MSGMAP@@XZ ; CExtInputBarDlg::GetMessageMap
PUBLIC	??1CExtInputBarDlg@@UAE@XZ			; CExtInputBarDlg::~CExtInputBarDlg
PUBLIC	??_GCExtInputBarDlg@@UAEPAXI@Z			; CExtInputBarDlg::`scalar deleting destructor'
PUBLIC	??1stringdispid@CComTypeInfoHolder@ATL@@QAE@XZ	; ATL::CComTypeInfoHolder::stringdispid::~stringdispid
PUBLIC	??_Estringdispid@CComTypeInfoHolder@ATL@@QAEPAXI@Z ; ATL::CComTypeInfoHolder::stringdispid::`vector deleting destructor'
PUBLIC	??$SerializeElements@I@@YGXAAVCArchive@@PAIH@Z	; SerializeElements<unsigned int>
PUBLIC	??$CompareElements@II@@YGHPBI0@Z		; CompareElements<unsigned int,unsigned int>
PUBLIC	?_OptionsStorage@?1??__local_stdio_scanf_options@@9@4_KA ; `__local_stdio_scanf_options'::`2'::_OptionsStorage
PUBLIC	??_R0PAVCException@@@8				; CException * `RTTI Type Descriptor'
PUBLIC	??_C@_02DPKJAMEF@?$CFd@				; `string'
PUBLIC	?_AtlWinModule@ATL@@3VCAtlWinModule@1@A		; ATL::_AtlWinModule
PUBLIC	??_C@_01CPLAODJH@S@				; `string'
PUBLIC	??_C@_00CNPNBAHC@@				; `string'
PUBLIC	??_7CGdiObject@@6B@				; CGdiObject::`vftable'
PUBLIC	??_7CBrush@@6B@					; CBrush::`vftable'
PUBLIC	??_7CBitmap@@6B@				; CBitmap::`vftable'
PUBLIC	??_7CMenu@@6B@					; CMenu::`vftable'
PUBLIC	??_7CStatic@@6B@				; CStatic::`vftable'
PUBLIC	??_7CButton@@6B@				; CButton::`vftable'
PUBLIC	??_C@_0HD@JJCHHHNK@C?3?2Program?5Files?5?$CIx86?$CJ?2Microsof@ ; `string'
PUBLIC	??_C@_0BP@OIEOKIDM@Exception?5thrown?5in?5destructor@ ; `string'
PUBLIC	??_C@_0BB@HBOOMJBF@?$CFTs?5?$CI?$CFTs?3?$CFd?$CJ?6?$CFTs@ ; `string'
PUBLIC	??_C@_0N@OMEMOKLE@?$CFTs?5?$CI?$CFTs?3?$CFd?$CJ@ ; `string'
PUBLIC	??_7CDateTimeCtrl@@6B@				; CDateTimeCtrl::`vftable'
PUBLIC	??_C@_01HIHLOKLC@1@				; `string'
PUBLIC	??_C@_0M@CBBNGGHM@PcTrMng?4dll@			; `string'
PUBLIC	??_C@_0P@IDMAJEGN@HANAROPCTRMAIN@		; `string'
PUBLIC	??_C@_06NDLAHCHE@?$CFs?$CF08X@			; `string'
PUBLIC	??_C@_02EMFKHFLK@?$CFX@				; `string'
PUBLIC	??_C@_01KICIPPFI@?2@				; `string'
PUBLIC	??_C@_01GBGANLPD@0@				; `string'
PUBLIC	??_R0?AVCObject@@@8				; CObject `RTTI Type Descriptor'
PUBLIC	??_R3CObject@@8					; CObject::`RTTI Class Hierarchy Descriptor'
PUBLIC	??_R2CObject@@8					; CObject::`RTTI Base Class Array'
PUBLIC	??_R1A@?0A@EA@CObject@@8			; CObject::`RTTI Base Class Descriptor at (0,-1,0,64)'
PUBLIC	??_R4CGdiObject@@6B@				; CGdiObject::`RTTI Complete Object Locator'
PUBLIC	??_R0?AVCGdiObject@@@8				; CGdiObject `RTTI Type Descriptor'
PUBLIC	??_R3CGdiObject@@8				; CGdiObject::`RTTI Class Hierarchy Descriptor'
PUBLIC	??_R2CGdiObject@@8				; CGdiObject::`RTTI Base Class Array'
PUBLIC	??_R1A@?0A@EA@CGdiObject@@8			; CGdiObject::`RTTI Base Class Descriptor at (0,-1,0,64)'
PUBLIC	??_R4CBrush@@6B@				; CBrush::`RTTI Complete Object Locator'
PUBLIC	??_R0?AVCBrush@@@8				; CBrush `RTTI Type Descriptor'
PUBLIC	??_R3CBrush@@8					; CBrush::`RTTI Class Hierarchy Descriptor'
PUBLIC	??_R2CBrush@@8					; CBrush::`RTTI Base Class Array'
PUBLIC	??_R1A@?0A@EA@CBrush@@8				; CBrush::`RTTI Base Class Descriptor at (0,-1,0,64)'
PUBLIC	??_R4CBitmap@@6B@				; CBitmap::`RTTI Complete Object Locator'
PUBLIC	??_R0?AVCBitmap@@@8				; CBitmap `RTTI Type Descriptor'
PUBLIC	??_R3CBitmap@@8					; CBitmap::`RTTI Class Hierarchy Descriptor'
PUBLIC	??_R2CBitmap@@8					; CBitmap::`RTTI Base Class Array'
PUBLIC	??_R1A@?0A@EA@CBitmap@@8			; CBitmap::`RTTI Base Class Descriptor at (0,-1,0,64)'
PUBLIC	??_R4CMenu@@6B@					; CMenu::`RTTI Complete Object Locator'
PUBLIC	??_R0?AVCMenu@@@8				; CMenu `RTTI Type Descriptor'
PUBLIC	??_R3CMenu@@8					; CMenu::`RTTI Class Hierarchy Descriptor'
PUBLIC	??_R2CMenu@@8					; CMenu::`RTTI Base Class Array'
PUBLIC	??_R1A@?0A@EA@CMenu@@8				; CMenu::`RTTI Base Class Descriptor at (0,-1,0,64)'
PUBLIC	??_R4CStatic@@6B@				; CStatic::`RTTI Complete Object Locator'
PUBLIC	??_R0?AVCStatic@@@8				; CStatic `RTTI Type Descriptor'
PUBLIC	??_R3CStatic@@8					; CStatic::`RTTI Class Hierarchy Descriptor'
PUBLIC	??_R2CStatic@@8					; CStatic::`RTTI Base Class Array'
PUBLIC	??_R1A@?0A@EA@CStatic@@8			; CStatic::`RTTI Base Class Descriptor at (0,-1,0,64)'
PUBLIC	??_R1A@?0A@EA@CWnd@@8				; CWnd::`RTTI Base Class Descriptor at (0,-1,0,64)'
PUBLIC	??_R0?AVCWnd@@@8				; CWnd `RTTI Type Descriptor'
PUBLIC	??_R3CWnd@@8					; CWnd::`RTTI Class Hierarchy Descriptor'
PUBLIC	??_R2CWnd@@8					; CWnd::`RTTI Base Class Array'
PUBLIC	??_R1A@?0A@EA@CCmdTarget@@8			; CCmdTarget::`RTTI Base Class Descriptor at (0,-1,0,64)'
PUBLIC	??_R0?AVCCmdTarget@@@8				; CCmdTarget `RTTI Type Descriptor'
PUBLIC	??_R3CCmdTarget@@8				; CCmdTarget::`RTTI Class Hierarchy Descriptor'
PUBLIC	??_R2CCmdTarget@@8				; CCmdTarget::`RTTI Base Class Array'
PUBLIC	??_R4CButton@@6B@				; CButton::`RTTI Complete Object Locator'
PUBLIC	??_R0?AVCButton@@@8				; CButton `RTTI Type Descriptor'
PUBLIC	??_R3CButton@@8					; CButton::`RTTI Class Hierarchy Descriptor'
PUBLIC	??_R2CButton@@8					; CButton::`RTTI Base Class Array'
PUBLIC	??_R1A@?0A@EA@CButton@@8			; CButton::`RTTI Base Class Descriptor at (0,-1,0,64)'
PUBLIC	??_R1A@?0A@EA@CDialog@@8			; CDialog::`RTTI Base Class Descriptor at (0,-1,0,64)'
PUBLIC	??_R0?AVCDialog@@@8				; CDialog `RTTI Type Descriptor'
PUBLIC	??_R3CDialog@@8					; CDialog::`RTTI Class Hierarchy Descriptor'
PUBLIC	??_R2CDialog@@8					; CDialog::`RTTI Base Class Array'
PUBLIC	??_R4CDateTimeCtrl@@6B@				; CDateTimeCtrl::`RTTI Complete Object Locator'
PUBLIC	??_R0?AVCDateTimeCtrl@@@8			; CDateTimeCtrl `RTTI Type Descriptor'
PUBLIC	??_R3CDateTimeCtrl@@8				; CDateTimeCtrl::`RTTI Class Hierarchy Descriptor'
PUBLIC	??_R2CDateTimeCtrl@@8				; CDateTimeCtrl::`RTTI Base Class Array'
PUBLIC	??_R1A@?0A@EA@CDateTimeCtrl@@8			; CDateTimeCtrl::`RTTI Base Class Descriptor at (0,-1,0,64)'
PUBLIC	??_7?$CMap@IIV?$CStringT@DV?$StrTraitMFC_DLL@DV?$ChTraitsCRT@D@ATL@@@@@ATL@@PBD@@6B@ ; CMap<unsigned int,unsigned int,ATL::CStringT<char,StrTraitMFC_DLL<char,ATL::ChTraitsCRT<char> > >,char const *>::`vftable'
PUBLIC	??_7CExtInputBarDlg@@6B@			; CExtInputBarDlg::`vftable'
PUBLIC	??_C@_08OOOIJKML@?$LK?$LI?A?$LG?$LB?b?$LE?I@	; `string'
PUBLIC	??_C@_04LJCLIJBJ@?$LM?$LD?A?$KE@		; `string'
PUBLIC	??_C@_0N@FDEEABPE@?B?w?F?$KO?H?$KP?$LA?f?$LM?$LD?A?$KE@ ; `string'
PUBLIC	??_C@_06PKNBDFAO@?C?J?$LB?b?H?$KN@		; `string'
PUBLIC	??_C@_0P@NJHNOOOB@?$MA?$PM?C?$LM?B?w?F?$KO?C?J?$LB?b?H?$KN@ ; `string'
PUBLIC	??_C@_08OMOHNJKO@?$LA?$PM?$LN?I?$LF?n?$LH?O@	; `string'
PUBLIC	??_C@_04JDFEIJL@?A?v?G?$KF@			; `string'
PUBLIC	??_C@_08JBKIJOF@?H?$KP?$LA?f?$LM?$LD?A?$KE@	; `string'
PUBLIC	??_C@_0N@GJHDBHHN@?A?$LO?$LI?q?$LP?$KM?$LF?$LP?A?v?A?$KE@ ; `string'
PUBLIC	??_C@_0N@PAPJAJOF@?A?V?$LB?b?$LP?$KM?$LF?$LP?A?v?A?$KE@ ; `string'
PUBLIC	??_C@_0P@CLKJNIKE@?B?w?F?$KO?A?v?G?$KF?$LF?$LP?$LB?b?H?$KN@ ; `string'
PUBLIC	??_C@_08FGDFCFBI@?$LB?b?$LA?$KD?$LA?m?A?$KE@	; `string'
PUBLIC	??_C@_0M@NINNGGJA@?$LN?J?$MA?Z?$LM?$LB?5?G?$KF?$LN?C@ ; `string'
PUBLIC	??_C@_01EJNLAFE@P@				; `string'
PUBLIC	??_C@_08LIBHLAII@?$LB?b?$LA?$KD?$LM?$LD?A?$KE@	; `string'
PUBLIC	??_C@_0N@GIENCJMH@Y?C?$OA?5?$LE?$KL?$LB?$NN?$MA?$PM?H?$KP@ ; `string'
PUBLIC	??_C@_04GCBAIGJG@?$LK?P?G?R@			; `string'
PUBLIC	??_C@_08LMIHAIFC@?$LK?P?G?R?$LK?$LJ?$LP?x@	; `string'
PUBLIC	??_C@_04MFPFIJHG@?$MA?L?$MA?$PM@		; `string'
PUBLIC	??_C@_0L@CGKGJHBG@?$LN?$LK?E?$KJ?$LH?Q?A?$KE?A?v@ ; `string'
PUBLIC	??_C@_04NMHJGEDF@?$MA?L?H?D@			; `string'
PUBLIC	??_C@_0P@NLDHDBFN@?$LN?$LK?D?I?$MA?O?$LK?$LI?$LP?$KJ?A?V?$LB?b@ ; `string'
PUBLIC	??_C@_08EENKIIBC@?B?w?F?$KO?$MA?z?$MA?e@	; `string'
PUBLIC	??_C@_0BB@MCEEIGDP@?$MA?z?$MA?e?B?w?F?$KO?$LK?R?$LH?$KP?$LP?$MA?$LB?b@ ; `string'
PUBLIC	??_C@_04OGFGOPBG@?$MA?N?$LM?b@			; `string'
PUBLIC	??_C@_02MEGIOJNB@?$KC?$LK@			; `string'
PUBLIC	??_C@_02PGFOILFD@?$KC?$LI@			; `string'
PUBLIC	??_C@_02FKJJEAOL@?$LF?$LF@			; `string'
PUBLIC	??_C@_08MCNDKHIJ@?$LI?E?$LF?$LF?H?$KN?$LI?i@	; `string'
PUBLIC	??_C@_02IOBMGHKC@?$LM?v@			; `string'
PUBLIC	??_C@_08NOIHJKJI@?$LI?E?$LM?v?H?$KN?$LI?i@	; `string'
PUBLIC	??_C@_01BBODEMC@G@				; `string'
PUBLIC	??_C@_01GFHCPBMG@C@				; `string'
PUBLIC	??_C@_05GBKMCCNA@Saved@				; `string'
PUBLIC	??_C@_0M@POCNEIHC@ExtInputBar@			; `string'
PUBLIC	??_C@_0BJ@LOFKHOGA@NormalizedMinuteTimeRule@	; `string'
PUBLIC	??_C@_0N@HBKGNKCN@DragModeType@			; `string'
PUBLIC	??_C@_09GPLOLDLO@CrossLine@			; `string'
PUBLIC	??_C@_0BB@GKDGIIFF@SaveJipyoOneFile@		; `string'
PUBLIC	??_C@_0N@JLBABMHO@AnalToolSave@			; `string'
PUBLIC	??_C@_0BH@NJOBJIAN@SaveJipyoPerCodePeriod@	; `string'
PUBLIC	??_C@_04IBLPHLKF@7111@				; `string'
PUBLIC	??_C@_04GPJMGCIE@X?5?51@			; `string'
PUBLIC	??_C@_04EELBDBEH@X?5?52@			; `string'
PUBLIC	??_C@_04BCOLJGMB@X?5?54@			; `string'
PUBLIC	??_C@_04LOFONJMN@X?5?58@			; `string'
PUBLIC	??_C@_08LCOJJIAL@Account1@			; `string'
PUBLIC	??_C@_08BDLNPKGG@?A?$LO?G?U?B?w?F?$KO@		; `string'
PUBLIC	??_C@_0CF@PONHIKH@?B?w?F?$KO?$MA?G?5?$LM?v?$LI?$KG?520?$LA?$LD?$MA?L?G?O?$LH?N?5?G?O?$LP?$KJ?A?V?$LN?J@ ; `string'
PUBLIC	??_C@_08NHNMFBCG@?$CF2d?5X?$CF2d@		; `string'
PUBLIC	??_C@_01FGNFDNOH@?$CF@				; `string'
PUBLIC	??_C@_01EPMOAMKG@$@				; `string'
PUBLIC	??_C@_06CLONMKIH@?$CFY?$CFm?$CFd@		; `string'
PUBLIC	??_C@_0EM@NGOCGFAP@D?3?2git?2src?2IBK?2IBK_DRFN?2ProjSrc@ ; `string'
PUBLIC	??_C@_0BE@PDLOPEPM@?$LH?g?F?$LOCall?H?$KO?$MA?N?$FL?$CFd?3?$CFs?$FN@ ; `string'
PUBLIC	??_C@_08IJEIMMPG@?$LA?$KB?$LA?$NN?A?v?G?$KF@	; `string'
PUBLIC	??_C@_08PNLEAGMP@?C?$NP?$LM?$LM?A?v?G?$KF@	; `string'
PUBLIC	??_C@_0L@BAEGCNCP@?$LK?$KP?$LF?$LP?$LM?$LK?A?v?G?$KF@ ; `string'
PUBLIC	??_C@_0L@OJKLPOPK@?$LA?E?$LH?$KB?$LH?$KO?A?v?G?$KF@ ; `string'
PUBLIC	??_C@_0M@PJMKPBLB@2?B?w?F?D?$LL?$PN?A?v?G?$KF@	; `string'
PUBLIC	??_C@_08NPEIHMNO@?$LB?b?E?$LI?A?v?G?$KF@	; `string'
PUBLIC	??_C@_08OOIINJIM@?$LN?C?$MA?e?A?v?G?$KF@	; `string'
PUBLIC	??_C@_08LFPPBENI@CodeSync@			; `string'
PUBLIC	??_C@_03OGOJOGPE@DWM@				; `string'
PUBLIC	??_C@_0DF@DEHCJOBF@?$MA?$PM?C?$LM?5?B?w?F?$KO?$MA?G?5?H?$KP?$LA?f?$MA?L?5?C?J?$LB?b?H?$KN?5?$LF?K?$LE?O?$LE@ ; `string'
PUBLIC	??_C@_09LOKPIFAI@?B?w?F?$KO?5?$LM?$LD?A?$KE@	; `string'
PUBLIC	??_C@_08LOPLALKM@?$LA?$PM?$LN?I?A?v?G?$KF@	; `string'
PUBLIC	??_C@_08MDENFGEE@?$LM?v?A?$KE?A?V?$LA?$KB@	; `string'
PUBLIC	??_C@_0BN@INCLMLGM@?B?w?F?$KO?$LA?$PM?$LH?C?5?$LL?g?$LP?k?$MA?Z?F?D?$MA?O?5?$MA?$PM?C?$LM?$LL?h?A?$KG@ ; `string'
PUBLIC	??_C@_0M@HNBDOFEN@?$LK?P?$LM?$KO?E?x?5?$MA?z?$MA?e@ ; `string'
PUBLIC	??_C@_0BE@MMHLHMNE@?A?$LO?$LI?q?A?V?$LB?b?$LK?$LA?5?A?v?G?$KF?$MA?z?$MA?e@ ; `string'
PUBLIC	??_C@_09IBPFDGDO@JipyoFile@			; `string'
PUBLIC	??_C@_0BD@CMCCCNBF@HANAROIGATEMANAGER@		; `string'
PUBLIC	??_C@_0CC@MAPLNIOL@?A?$LO?$LI?q?$LF?$LJ?$LH?A?$LK?$LI?$LB?b?5?$LB?b?$LE?I?$MA?L?5?$LF?$LP?$MA?$NL?A?$NP?$MA?T?$LE?O?$LE@ ; `string'
PUBLIC	??_R4CExtInputBarDlg@@6B@			; CExtInputBarDlg::`RTTI Complete Object Locator'
PUBLIC	??_R0?AVCExtInputBarDlg@@@8			; CExtInputBarDlg `RTTI Type Descriptor'
PUBLIC	??_R3CExtInputBarDlg@@8				; CExtInputBarDlg::`RTTI Class Hierarchy Descriptor'
PUBLIC	??_R2CExtInputBarDlg@@8				; CExtInputBarDlg::`RTTI Base Class Array'
PUBLIC	??_R1A@?0A@EA@CExtInputBarDlg@@8		; CExtInputBarDlg::`RTTI Base Class Descriptor at (0,-1,0,64)'
PUBLIC	??_R1A@?0A@EA@CRscDlg@@8			; CRscDlg::`RTTI Base Class Descriptor at (0,-1,0,64)'
PUBLIC	??_R0?AVCRscDlg@@@8				; CRscDlg `RTTI Type Descriptor'
PUBLIC	??_R3CRscDlg@@8					; CRscDlg::`RTTI Class Hierarchy Descriptor'
PUBLIC	??_R2CRscDlg@@8					; CRscDlg::`RTTI Base Class Array'
PUBLIC	??_R4?$CMap@IIV?$CStringT@DV?$StrTraitMFC_DLL@DV?$ChTraitsCRT@D@ATL@@@@@ATL@@PBD@@6B@ ; CMap<unsigned int,unsigned int,ATL::CStringT<char,StrTraitMFC_DLL<char,ATL::ChTraitsCRT<char> > >,char const *>::`RTTI Complete Object Locator'
PUBLIC	??_R0?AV?$CMap@IIV?$CStringT@DV?$StrTraitMFC_DLL@DV?$ChTraitsCRT@D@ATL@@@@@ATL@@PBD@@@8 ; CMap<unsigned int,unsigned int,ATL::CStringT<char,StrTraitMFC_DLL<char,ATL::ChTraitsCRT<char> > >,char const *> `RTTI Type Descriptor'
PUBLIC	??_R3?$CMap@IIV?$CStringT@DV?$StrTraitMFC_DLL@DV?$ChTraitsCRT@D@ATL@@@@@ATL@@PBD@@8 ; CMap<unsigned int,unsigned int,ATL::CStringT<char,StrTraitMFC_DLL<char,ATL::ChTraitsCRT<char> > >,char const *>::`RTTI Class Hierarchy Descriptor'
PUBLIC	??_R2?$CMap@IIV?$CStringT@DV?$StrTraitMFC_DLL@DV?$ChTraitsCRT@D@ATL@@@@@ATL@@PBD@@8 ; CMap<unsigned int,unsigned int,ATL::CStringT<char,StrTraitMFC_DLL<char,ATL::ChTraitsCRT<char> > >,char const *>::`RTTI Base Class Array'
PUBLIC	??_R1A@?0A@EA@?$CMap@IIV?$CStringT@DV?$StrTraitMFC_DLL@DV?$ChTraitsCRT@D@ATL@@@@@ATL@@PBD@@8 ; CMap<unsigned int,unsigned int,ATL::CStringT<char,StrTraitMFC_DLL<char,ATL::ChTraitsCRT<char> > >,char const *>::`RTTI Base Class Descriptor at (0,-1,0,64)'
PUBLIC	__real@0000000000000000
PUBLIC	__real@4000000000000000
EXTRN	??_L@YGXPAXIIP6EX0@Z1@Z:PROC			; `eh vector constructor iterator'
EXTRN	??_M@YGXPAXIIP6EX0@Z@Z:PROC			; `eh vector destructor iterator'
EXTRN	??2@YAPAXI@Z:PROC				; operator new
EXTRN	??3@YAXPAX@Z:PROC				; operator delete
EXTRN	??3@YAXPAXI@Z:PROC				; operator delete
EXTRN	?__global_delete@@YAXPAXI@Z:PROC		; __global_delete
EXTRN	??_U@YAPAXI@Z:PROC				; operator new[]
EXTRN	??_V@YAXPAX@Z:PROC				; operator delete[]
EXTRN	??_V@YAXPAXI@Z:PROC				; operator delete[]
EXTRN	_atexit:PROC
EXTRN	___std_terminate:PROC
EXTRN	__imp__GetEnvironmentVariableA@12:PROC
EXTRN	__imp__RaiseException@16:PROC
EXTRN	__imp__GetLastError@0:PROC
EXTRN	__imp__InitializeCriticalSectionEx@12:PROC
EXTRN	__imp__DeleteCriticalSection@4:PROC
EXTRN	__imp__GetModuleHandleA@4:PROC
EXTRN	__imp__GetPrivateProfileIntA@16:PROC
EXTRN	__imp__GetPrivateProfileStringA@24:PROC
EXTRN	__imp__WritePrivateProfileStringA@16:PROC
EXTRN	__imp__BitBlt@36:PROC
EXTRN	__imp__CreateCompatibleBitmap@12:PROC
EXTRN	__imp__CreateCompatibleDC@4:PROC
EXTRN	__imp__CreateSolidBrush@4:PROC
EXTRN	__imp__RegisterWindowMessageA@4:PROC
EXTRN	__imp__SendMessageA@16:PROC
EXTRN	__imp__UnregisterClassA@8:PROC
EXTRN	__imp__IsWindow@4:PROC
EXTRN	__imp__SetTimer@16:PROC
EXTRN	__imp__KillTimer@8:PROC
EXTRN	__imp__EnableWindow@8:PROC
EXTRN	__imp__CreatePopupMenu@0:PROC
EXTRN	__imp__GetSubMenu@8:PROC
EXTRN	__imp__GetMenuItemID@8:PROC
EXTRN	__imp__GetMenuItemCount@4:PROC
EXTRN	__imp__AppendMenuA@16:PROC
EXTRN	__imp__InvalidateRect@12:PROC
EXTRN	__imp__GetClientRect@8:PROC
EXTRN	__imp__GetWindowRect@8:PROC
EXTRN	__imp__GetParent@4:PROC
EXTRN	__imp__SetParent@8:PROC
EXTRN	__imp____stdio_common_vsscanf:PROC
EXTRN	__imp__free:PROC
EXTRN	__imp__atoi:PROC
EXTRN	__imp__atol:PROC
EXTRN	__imp___localtime64_s:PROC
EXTRN	__imp___mktime64:PROC
EXTRN	__imp__strftime:PROC
EXTRN	__imp___time64:PROC
EXTRN	?AfxThrowMemoryException@@YGXXZ:PROC		; AfxThrowMemoryException
EXTRN	?AfxThrowInvalidArgException@@YGXXZ:PROC	; AfxThrowInvalidArgException
EXTRN	?AfxThrowArchiveException@@YGXHPBD@Z:PROC	; AfxThrowArchiveException
EXTRN	?AfxThrowOleException@@YGXJ@Z:PROC		; AfxThrowOleException
EXTRN	?GetRuntimeClass@CObject@@UBEPAUCRuntimeClass@@XZ:PROC ; CObject::GetRuntimeClass
EXTRN	__imp__SysFreeString@4:PROC
EXTRN	__imp_??0?$CStringT@DV?$StrTraitMFC_DLL@DV?$ChTraitsCRT@D@ATL@@@@@ATL@@QAE@XZ:PROC
EXTRN	__imp_??0?$CStringT@DV?$StrTraitMFC_DLL@DV?$ChTraitsCRT@D@ATL@@@@@ATL@@QAE@ABV01@@Z:PROC
EXTRN	__imp_??0?$CStringT@DV?$StrTraitMFC_DLL@DV?$ChTraitsCRT@D@ATL@@@@@ATL@@QAE@PBD@Z:PROC
EXTRN	__imp_??1?$CStringT@DV?$StrTraitMFC_DLL@DV?$ChTraitsCRT@D@ATL@@@@@ATL@@QAE@XZ:PROC
EXTRN	__imp_??4?$CStringT@DV?$StrTraitMFC_DLL@DV?$ChTraitsCRT@D@ATL@@@@@ATL@@QAEAAV01@ABV01@@Z:PROC
EXTRN	__imp_??4?$CStringT@DV?$StrTraitMFC_DLL@DV?$ChTraitsCRT@D@ATL@@@@@ATL@@QAEAAV01@PBD@Z:PROC
EXTRN	__imp_?Compare@?$CStringT@DV?$StrTraitMFC_DLL@DV?$ChTraitsCRT@D@ATL@@@@@ATL@@QBEHPBD@Z:PROC
EXTRN	__imp_?CompareNoCase@?$CStringT@DV?$StrTraitMFC_DLL@DV?$ChTraitsCRT@D@ATL@@@@@ATL@@QBEHPBD@Z:PROC
EXTRN	__imp_?TrimRight@?$CStringT@DV?$StrTraitMFC_DLL@DV?$ChTraitsCRT@D@ATL@@@@@ATL@@QAEAAV12@XZ:PROC
EXTRN	__imp_?Mid@?$CStringT@DV?$StrTraitMFC_DLL@DV?$ChTraitsCRT@D@ATL@@@@@ATL@@QBE?AV12@HH@Z:PROC
EXTRN	__imp_?Right@?$CStringT@DV?$StrTraitMFC_DLL@DV?$ChTraitsCRT@D@ATL@@@@@ATL@@QBE?AV12@H@Z:PROC
EXTRN	__imp_?Left@?$CStringT@DV?$StrTraitMFC_DLL@DV?$ChTraitsCRT@D@ATL@@@@@ATL@@QBE?AV12@H@Z:PROC
EXTRN	__imp_?Format@?$CStringT@DV?$StrTraitMFC_DLL@DV?$ChTraitsCRT@D@ATL@@@@@ATL@@QAAXPBDZZ:PROC
EXTRN	?Read@CArchive@@QAEIPAXI@Z:PROC			; CArchive::Read
EXTRN	?Write@CArchive@@QAEXPBXI@Z:PROC		; CArchive::Write
EXTRN	?ReadCount@CArchive@@QAEKXZ:PROC		; CArchive::ReadCount
EXTRN	?WriteCount@CArchive@@QAEXK@Z:PROC		; CArchive::WriteCount
EXTRN	??0CStringArray@@QAE@XZ:PROC			; CStringArray::CStringArray
EXTRN	?SetSize@CStringArray@@QAEXHH@Z:PROC		; CStringArray::SetSize
EXTRN	?SetAtGrow@CStringArray@@QAEXHPBD@Z:PROC	; CStringArray::SetAtGrow
EXTRN	?Append@CStringArray@@QAEHABV1@@Z:PROC		; CStringArray::Append
EXTRN	??1CStringArray@@UAE@XZ:PROC			; CStringArray::~CStringArray
EXTRN	?Create@CPlex@@SGPAU1@AAPAU1@II@Z:PROC		; CPlex::Create
EXTRN	?FreeDataChain@CPlex@@QAEXXZ:PROC		; CPlex::FreeDataChain
EXTRN	??$SerializeElements@V?$CStringT@DV?$StrTraitMFC_DLL@DV?$ChTraitsCRT@D@ATL@@@@@ATL@@@@YGXAAVCArchive@@PAV?$CStringT@DV?$StrTraitMFC_DLL@DV?$ChTraitsCRT@D@ATL@@@@@ATL@@H@Z:PROC ; SerializeElements<ATL::CStringT<char,StrTraitMFC_DLL<char,ATL::ChTraitsCRT<char> > > >
EXTRN	?GetRuntimeClass@CGdiObject@@UBEPAUCRuntimeClass@@XZ:PROC ; CGdiObject::GetRuntimeClass
EXTRN	?Attach@CGdiObject@@QAEHPAX@Z:PROC		; CGdiObject::Attach
EXTRN	?DeleteObject@CGdiObject@@QAEHXZ:PROC		; CGdiObject::DeleteObject
EXTRN	??_ECGdiObject@@UAEPAXI@Z:PROC			; CGdiObject::`vector deleting destructor'
EXTRN	?GetRuntimeClass@CBrush@@UBEPAUCRuntimeClass@@XZ:PROC ; CBrush::GetRuntimeClass
EXTRN	??_ECBrush@@UAEPAXI@Z:PROC			; CBrush::`vector deleting destructor'
EXTRN	?GetRuntimeClass@CBitmap@@UBEPAUCRuntimeClass@@XZ:PROC ; CBitmap::GetRuntimeClass
EXTRN	??_ECBitmap@@UAEPAXI@Z:PROC			; CBitmap::`vector deleting destructor'
EXTRN	?Attach@CDC@@QAEHPAUHDC__@@@Z:PROC		; CDC::Attach
EXTRN	??0CDC@@QAE@XZ:PROC				; CDC::CDC
EXTRN	?DeleteDC@CDC@@QAEHXZ:PROC			; CDC::DeleteDC
EXTRN	?FillSolidRect@CDC@@QAEXPBUtagRECT@@K@Z:PROC	; CDC::FillSolidRect
EXTRN	??1CDC@@UAE@XZ:PROC				; CDC::~CDC
EXTRN	?SelectGdiObject@CDC@@KGPAVCGdiObject@@PAUHDC__@@PAX@Z:PROC ; CDC::SelectGdiObject
EXTRN	??0CPaintDC@@QAE@PAVCWnd@@@Z:PROC		; CPaintDC::CPaintDC
EXTRN	??1CPaintDC@@UAE@XZ:PROC			; CPaintDC::~CPaintDC
EXTRN	?GetRuntimeClass@CMenu@@UBEPAUCRuntimeClass@@XZ:PROC ; CMenu::GetRuntimeClass
EXTRN	?DestroyMenu@CMenu@@QAEHXZ:PROC			; CMenu::DestroyMenu
EXTRN	?FromHandle@CMenu@@SGPAV1@PAUHMENU__@@@Z:PROC	; CMenu::FromHandle
EXTRN	?Attach@CMenu@@QAEHPAUHMENU__@@@Z:PROC		; CMenu::Attach
EXTRN	?TrackPopupMenu@CMenu@@QAEHIHHPAVCWnd@@PBUtagRECT@@@Z:PROC ; CMenu::TrackPopupMenu
EXTRN	?DrawItem@CMenu@@UAEXPAUtagDRAWITEMSTRUCT@@@Z:PROC ; CMenu::DrawItem
EXTRN	?MeasureItem@CMenu@@UAEXPAUtagMEASUREITEMSTRUCT@@@Z:PROC ; CMenu::MeasureItem
EXTRN	??_ECMenu@@UAEPAXI@Z:PROC			; CMenu::`vector deleting destructor'
EXTRN	?DDX_Check@@YGXPAVCDataExchange@@HAAH@Z:PROC	; DDX_Check
EXTRN	?DDX_Control@@YGXPAVCDataExchange@@HAAVCWnd@@@Z:PROC ; DDX_Control
EXTRN	?OnCmdMsg@CCmdTarget@@UAEHIHPAXPAUAFX_CMDHANDLERINFO@@@Z:PROC ; CCmdTarget::OnCmdMsg
EXTRN	?IsInvokeAllowed@CCmdTarget@@UAEHJ@Z:PROC	; CCmdTarget::IsInvokeAllowed
EXTRN	?GetDispatchIID@CCmdTarget@@UAEHPAU_GUID@@@Z:PROC ; CCmdTarget::GetDispatchIID
EXTRN	?GetTypeInfoCount@CCmdTarget@@UAEIXZ:PROC	; CCmdTarget::GetTypeInfoCount
EXTRN	?GetTypeLibCache@CCmdTarget@@UAEPAVCTypeLibCache@@XZ:PROC ; CCmdTarget::GetTypeLibCache
EXTRN	?GetTypeLib@CCmdTarget@@UAEJKPAPAUITypeLib@@@Z:PROC ; CCmdTarget::GetTypeLib
EXTRN	?GetCommandMap@CCmdTarget@@MBEPBUAFX_OLECMDMAP@@XZ:PROC ; CCmdTarget::GetCommandMap
EXTRN	?GetDispatchMap@CCmdTarget@@MBEPBUAFX_DISPMAP@@XZ:PROC ; CCmdTarget::GetDispatchMap
EXTRN	?GetConnectionMap@CCmdTarget@@MBEPBUAFX_CONNECTIONMAP@@XZ:PROC ; CCmdTarget::GetConnectionMap
EXTRN	?GetEventSinkMap@CCmdTarget@@MBEPBUAFX_EVENTSINKMAP@@XZ:PROC ; CCmdTarget::GetEventSinkMap
EXTRN	?OnCreateAggregates@CCmdTarget@@UAEHXZ:PROC	; CCmdTarget::OnCreateAggregates
EXTRN	?GetInterfaceHook@CCmdTarget@@UAEPAUIUnknown@@PBX@Z:PROC ; CCmdTarget::GetInterfaceHook
EXTRN	?GetExtraConnectionPoints@CCmdTarget@@MAEHPAVCPtrArray@@@Z:PROC ; CCmdTarget::GetExtraConnectionPoints
EXTRN	?GetConnectionHook@CCmdTarget@@MAEPAUIConnectionPoint@@ABU_GUID@@@Z:PROC ; CCmdTarget::GetConnectionHook
EXTRN	??0CWnd@@QAE@XZ:PROC				; CWnd::CWnd
EXTRN	?FromHandle@CWnd@@SGPAV1@PAUHWND__@@@Z:PROC	; CWnd::FromHandle
EXTRN	?PreSubclassWindow@CWnd@@UAEXXZ:PROC		; CWnd::PreSubclassWindow
EXTRN	?Create@CWnd@@UAEHPBD0KABUtagRECT@@PAV1@IPAUCCreateContext@@@Z:PROC ; CWnd::Create
EXTRN	?CreateEx@CWnd@@UAEHKPBD0KHHHHPAUHWND__@@PAUHMENU__@@PAX@Z:PROC ; CWnd::CreateEx
EXTRN	?CreateEx@CWnd@@UAEHKPBD0KABUtagRECT@@PAV1@IPAX@Z:PROC ; CWnd::CreateEx
EXTRN	?DestroyWindow@CWnd@@UAEHXZ:PROC		; CWnd::DestroyWindow
EXTRN	?PreCreateWindow@CWnd@@UAEHAAUtagCREATESTRUCTA@@@Z:PROC ; CWnd::PreCreateWindow
EXTRN	?CalcWindowRect@CWnd@@UAEXPAUtagRECT@@I@Z:PROC	; CWnd::CalcWindowRect
EXTRN	?GetDlgItem@CWnd@@QBEPAV1@H@Z:PROC		; CWnd::GetDlgItem
EXTRN	?SetWindowTextA@CWnd@@QAEXPBD@Z:PROC		; CWnd::SetWindowTextA
EXTRN	?GetWindowTextA@CWnd@@QBEXAAV?$CStringT@DV?$StrTraitMFC_DLL@DV?$ChTraitsCRT@D@ATL@@@@@ATL@@@Z:PROC ; CWnd::GetWindowTextA
EXTRN	?GetMenu@CWnd@@UBEPAVCMenu@@XZ:PROC		; CWnd::GetMenu
EXTRN	?SetMenu@CWnd@@UAEHPAVCMenu@@@Z:PROC		; CWnd::SetMenu
EXTRN	?MoveWindow@CWnd@@QAEXHHHHH@Z:PROC		; CWnd::MoveWindow
EXTRN	?SetWindowPos@CWnd@@QAEHPBV1@HHHHI@Z:PROC	; CWnd::SetWindowPos
EXTRN	?ScreenToClient@CWnd@@QBEXPAUtagRECT@@@Z:PROC	; CWnd::ScreenToClient
EXTRN	?ShowWindow@CWnd@@QAEHH@Z:PROC			; CWnd::ShowWindow
EXTRN	?OnToolHitTest@CWnd@@UBEHVCPoint@@PAUtagTOOLINFOA@@@Z:PROC ; CWnd::OnToolHitTest
EXTRN	?IsWindowEnabled@CWnd@@QBEHXZ:PROC		; CWnd::IsWindowEnabled
EXTRN	?EnableWindow@CWnd@@QAEHH@Z:PROC		; CWnd::EnableWindow
EXTRN	?GetScrollBarCtrl@CWnd@@UBEPAVCScrollBar@@H@Z:PROC ; CWnd::GetScrollBarCtrl
EXTRN	?MessageBoxA@CWnd@@QAEHPBD0I@Z:PROC		; CWnd::MessageBoxA
EXTRN	?UpdateData@CWnd@@QAEHH@Z:PROC			; CWnd::UpdateData
EXTRN	?WinHelpA@CWnd@@UAEXKI@Z:PROC			; CWnd::WinHelpA
EXTRN	?HtmlHelpA@CWnd@@UAEXKI@Z:PROC			; CWnd::HtmlHelpA
EXTRN	?WinHelpInternal@CWnd@@UAEXKI@Z:PROC		; CWnd::WinHelpInternal
EXTRN	?ContinueModal@CWnd@@UAEHXZ:PROC		; CWnd::ContinueModal
EXTRN	?EndModalLoop@CWnd@@UAEXH@Z:PROC		; CWnd::EndModalLoop
EXTRN	?OnDrawIconicThumbnailOrLivePreview@CWnd@@UAEXAAVCDC@@VCRect@@VCSize@@HAAH@Z:PROC ; CWnd::OnDrawIconicThumbnailOrLivePreview
EXTRN	?GetInterfaceMap@CWnd@@MBEPBUAFX_INTERFACEMAP@@XZ:PROC ; CWnd::GetInterfaceMap
EXTRN	?EnsureStdObj@CWnd@@UAEJXZ:PROC			; CWnd::EnsureStdObj
EXTRN	?get_accParent@CWnd@@UAEJPAPAUIDispatch@@@Z:PROC ; CWnd::get_accParent
EXTRN	?get_accChildCount@CWnd@@UAEJPAJ@Z:PROC		; CWnd::get_accChildCount
EXTRN	?get_accChild@CWnd@@UAEJUtagVARIANT@@PAPAUIDispatch@@@Z:PROC ; CWnd::get_accChild
EXTRN	?get_accName@CWnd@@UAEJUtagVARIANT@@PAPA_W@Z:PROC ; CWnd::get_accName
EXTRN	?get_accValue@CWnd@@UAEJUtagVARIANT@@PAPA_W@Z:PROC ; CWnd::get_accValue
EXTRN	?get_accDescription@CWnd@@UAEJUtagVARIANT@@PAPA_W@Z:PROC ; CWnd::get_accDescription
EXTRN	?get_accRole@CWnd@@UAEJUtagVARIANT@@PAU2@@Z:PROC ; CWnd::get_accRole
EXTRN	?get_accState@CWnd@@UAEJUtagVARIANT@@PAU2@@Z:PROC ; CWnd::get_accState
EXTRN	?get_accHelp@CWnd@@UAEJUtagVARIANT@@PAPA_W@Z:PROC ; CWnd::get_accHelp
EXTRN	?get_accHelpTopic@CWnd@@UAEJPAPA_WUtagVARIANT@@PAJ@Z:PROC ; CWnd::get_accHelpTopic
EXTRN	?get_accKeyboardShortcut@CWnd@@UAEJUtagVARIANT@@PAPA_W@Z:PROC ; CWnd::get_accKeyboardShortcut
EXTRN	?get_accFocus@CWnd@@UAEJPAUtagVARIANT@@@Z:PROC	; CWnd::get_accFocus
EXTRN	?get_accSelection@CWnd@@UAEJPAUtagVARIANT@@@Z:PROC ; CWnd::get_accSelection
EXTRN	?get_accDefaultAction@CWnd@@UAEJUtagVARIANT@@PAPA_W@Z:PROC ; CWnd::get_accDefaultAction
EXTRN	?accSelect@CWnd@@UAEJJUtagVARIANT@@@Z:PROC	; CWnd::accSelect
EXTRN	?accLocation@CWnd@@UAEJPAJ000UtagVARIANT@@@Z:PROC ; CWnd::accLocation
EXTRN	?accNavigate@CWnd@@UAEJJUtagVARIANT@@PAU2@@Z:PROC ; CWnd::accNavigate
EXTRN	?accHitTest@CWnd@@UAEJJJPAUtagVARIANT@@@Z:PROC	; CWnd::accHitTest
EXTRN	?accDoDefaultAction@CWnd@@UAEJUtagVARIANT@@@Z:PROC ; CWnd::accDoDefaultAction
EXTRN	?put_accName@CWnd@@UAEJUtagVARIANT@@PA_W@Z:PROC	; CWnd::put_accName
EXTRN	?put_accValue@CWnd@@UAEJUtagVARIANT@@PA_W@Z:PROC ; CWnd::put_accValue
EXTRN	?SetProxy@CWnd@@UAEJPAUIAccessibleProxy@@@Z:PROC ; CWnd::SetProxy
EXTRN	?CreateAccessibleProxy@CWnd@@UAEJIJPAJ@Z:PROC	; CWnd::CreateAccessibleProxy
EXTRN	?OnCommand@CWnd@@MAEHIJ@Z:PROC			; CWnd::OnCommand
EXTRN	?OnNotify@CWnd@@MAEHIJPAJ@Z:PROC		; CWnd::OnNotify
EXTRN	?OnCtlColor@CWnd@@IAEPAUHBRUSH__@@PAVCDC@@PAV1@I@Z:PROC ; CWnd::OnCtlColor
EXTRN	?OnDestroy@CWnd@@IAEXXZ:PROC			; CWnd::OnDestroy
EXTRN	?GetSuperWndProcAddr@CWnd@@MAEPAP6GJPAUHWND__@@IIJ@ZXZ:PROC ; CWnd::GetSuperWndProcAddr
EXTRN	?PreTranslateMessage@CWnd@@UAEHPAUtagMSG@@@Z:PROC ; CWnd::PreTranslateMessage
EXTRN	?OnAmbientProperty@CWnd@@UAEHPAVCOleControlSite@@JPAUtagVARIANT@@@Z:PROC ; CWnd::OnAmbientProperty
EXTRN	?WindowProc@CWnd@@MAEJIIJ@Z:PROC		; CWnd::WindowProc
EXTRN	?OnWndMsg@CWnd@@MAEHIIJPAJ@Z:PROC		; CWnd::OnWndMsg
EXTRN	?Default@CWnd@@IAEJXZ:PROC			; CWnd::Default
EXTRN	?DefWindowProcA@CWnd@@MAEJIIJ@Z:PROC		; CWnd::DefWindowProcA
EXTRN	?PostNcDestroy@CWnd@@MAEXXZ:PROC		; CWnd::PostNcDestroy
EXTRN	?OnChildNotify@CWnd@@MAEHIIJPAJ@Z:PROC		; CWnd::OnChildNotify
EXTRN	?OnTouchInputs@CWnd@@MAEHIPAUtagTOUCHINPUT@@@Z:PROC ; CWnd::OnTouchInputs
EXTRN	?OnTouchInput@CWnd@@MAEHVCPoint@@HHPAUtagTOUCHINPUT@@@Z:PROC ; CWnd::OnTouchInput
EXTRN	?GetGestureStatus@CWnd@@MAEKVCPoint@@@Z:PROC	; CWnd::GetGestureStatus
EXTRN	?OnGestureZoom@CWnd@@MAEHVCPoint@@J@Z:PROC	; CWnd::OnGestureZoom
EXTRN	?OnGesturePan@CWnd@@MAEHVCPoint@@0@Z:PROC	; CWnd::OnGesturePan
EXTRN	?OnGestureRotate@CWnd@@MAEHVCPoint@@N@Z:PROC	; CWnd::OnGestureRotate
EXTRN	?OnGestureTwoFingerTap@CWnd@@MAEHVCPoint@@@Z:PROC ; CWnd::OnGestureTwoFingerTap
EXTRN	?OnGesturePressAndTap@CWnd@@MAEHVCPoint@@J@Z:PROC ; CWnd::OnGesturePressAndTap
EXTRN	?ResizeDynamicLayout@CWnd@@MAEXXZ:PROC		; CWnd::ResizeDynamicLayout
EXTRN	?CheckAutoCenter@CWnd@@UAEHXZ:PROC		; CWnd::CheckAutoCenter
EXTRN	?IsFrameWnd@CWnd@@UBEHXZ:PROC			; CWnd::IsFrameWnd
EXTRN	?OnFinalRelease@CWnd@@UAEXXZ:PROC		; CWnd::OnFinalRelease
EXTRN	?CreateControlContainer@CWnd@@MAEHPAPAVCOleControlContainer@@@Z:PROC ; CWnd::CreateControlContainer
EXTRN	?CreateControlSite@CWnd@@MAEHPAVCOleControlContainer@@PAPAVCOleControlSite@@IABU_GUID@@@Z:PROC ; CWnd::CreateControlSite
EXTRN	?SetOccDialogInfo@CWnd@@MAEHPAU_AFX_OCC_DIALOG_INFO@@@Z:PROC ; CWnd::SetOccDialogInfo
EXTRN	?GetOccDialogInfo@CWnd@@MAEPAU_AFX_OCC_DIALOG_INFO@@XZ:PROC ; CWnd::GetOccDialogInfo
EXTRN	?GetMessageMap@CWnd@@MBEPBUAFX_MSGMAP@@XZ:PROC	; CWnd::GetMessageMap
EXTRN	?GetRuntimeClass@CDialog@@UBEPAUCRuntimeClass@@XZ:PROC ; CDialog::GetRuntimeClass
EXTRN	?Create@CDialog@@UAEHPBDPAVCWnd@@@Z:PROC	; CDialog::Create
EXTRN	?CreateIndirect@CDialog@@UAEHPBUDLGTEMPLATE@@PAVCWnd@@PAX@Z:PROC ; CDialog::CreateIndirect
EXTRN	?CreateIndirect@CDialog@@UAEHPAXPAVCWnd@@@Z:PROC ; CDialog::CreateIndirect
EXTRN	?OnInitDialog@CDialog@@UAEHXZ:PROC		; CDialog::OnInitDialog
EXTRN	?OnSetFont@CDialog@@UAEXPAVCFont@@@Z:PROC	; CDialog::OnSetFont
EXTRN	?OnOK@CDialog@@MAEXXZ:PROC			; CDialog::OnOK
EXTRN	?OnCancel@CDialog@@MAEXXZ:PROC			; CDialog::OnCancel
EXTRN	??1CDialog@@UAE@XZ:PROC				; CDialog::~CDialog
EXTRN	?PreTranslateMessage@CDialog@@UAEHPAUtagMSG@@@Z:PROC ; CDialog::PreTranslateMessage
EXTRN	?OnCmdMsg@CDialog@@UAEHIHPAXPAUAFX_CMDHANDLERINFO@@@Z:PROC ; CDialog::OnCmdMsg
EXTRN	?CheckAutoCenter@CDialog@@UAEHXZ:PROC		; CDialog::CheckAutoCenter
EXTRN	?SetOccDialogInfo@CDialog@@MAEHPAU_AFX_OCC_DIALOG_INFO@@@Z:PROC ; CDialog::SetOccDialogInfo
EXTRN	?GetOccDialogInfo@CDialog@@MAEPAU_AFX_OCC_DIALOG_INFO@@XZ:PROC ; CDialog::GetOccDialogInfo
EXTRN	?PreInitDialog@CDialog@@MAEXXZ:PROC		; CDialog::PreInitDialog
EXTRN	?GetRuntimeClass@CStatic@@UBEPAUCRuntimeClass@@XZ:PROC ; CStatic::GetRuntimeClass
EXTRN	?Create@CStatic@@UAEHPBDKABUtagRECT@@PAVCWnd@@I@Z:PROC ; CStatic::Create
EXTRN	?DrawItem@CStatic@@UAEXPAUtagDRAWITEMSTRUCT@@@Z:PROC ; CStatic::DrawItem
EXTRN	??1CStatic@@UAE@XZ:PROC				; CStatic::~CStatic
EXTRN	?OnChildNotify@CStatic@@MAEHIIJPAJ@Z:PROC	; CStatic::OnChildNotify
EXTRN	??_ECStatic@@UAEPAXI@Z:PROC			; CStatic::`vector deleting destructor'
EXTRN	?GetRuntimeClass@CButton@@UBEPAUCRuntimeClass@@XZ:PROC ; CButton::GetRuntimeClass
EXTRN	?Create@CButton@@UAEHPBDKABUtagRECT@@PAVCWnd@@I@Z:PROC ; CButton::Create
EXTRN	?DrawItem@CButton@@UAEXPAUtagDRAWITEMSTRUCT@@@Z:PROC ; CButton::DrawItem
EXTRN	??1CButton@@UAE@XZ:PROC				; CButton::~CButton
EXTRN	?OnChildNotify@CButton@@MAEHIIJPAJ@Z:PROC	; CButton::OnChildNotify
EXTRN	??_ECButton@@UAEPAXI@Z:PROC			; CButton::`vector deleting destructor'
EXTRN	?AfxMessageBox@@YGHPBDII@Z:PROC			; AfxMessageBox
EXTRN	?GetRuntimeClass@CDateTimeCtrl@@UBEPAUCRuntimeClass@@XZ:PROC ; CDateTimeCtrl::GetRuntimeClass
EXTRN	?Create@CDateTimeCtrl@@UAEHKABUtagRECT@@PAVCWnd@@I@Z:PROC ; CDateTimeCtrl::Create
EXTRN	?SetTime@CDateTimeCtrl@@QAEHPBVCTime@ATL@@@Z:PROC ; CDateTimeCtrl::SetTime
EXTRN	?GetTime@CDateTimeCtrl@@QBEKAAVCTime@ATL@@@Z:PROC ; CDateTimeCtrl::GetTime
EXTRN	?SetTime@CDateTimeCtrl@@QAEHPAU_SYSTEMTIME@@@Z:PROC ; CDateTimeCtrl::SetTime
EXTRN	??1CDateTimeCtrl@@UAE@XZ:PROC			; CDateTimeCtrl::~CDateTimeCtrl
EXTRN	??_ECDateTimeCtrl@@UAEPAXI@Z:PROC		; CDateTimeCtrl::`vector deleting destructor'
EXTRN	?GetCommonDataInfo@@YAHPAUHWND__@@HH@Z:PROC	; GetCommonDataInfo
EXTRN	?SetCommonDataInfo@@YAHPAUHWND__@@HH@Z:PROC	; SetCommonDataInfo
EXTRN	??0CRscDlg@@QAE@IPAVCWnd@@@Z:PROC		; CRscDlg::CRscDlg
EXTRN	?Create@CRscDlg@@UAEHIPAVCWnd@@@Z:PROC		; CRscDlg::Create
EXTRN	?DoModal@CRscDlg@@UAEHXZ:PROC			; CRscDlg::DoModal
EXTRN	?DoDataExchange@CRscDlg@@MAEXPAVCDataExchange@@@Z:PROC ; CRscDlg::DoDataExchange
EXTRN	?GetThisMessageMap@CRscDlg@@KGPBUAFX_MSGMAP@@XZ:PROC ; CRscDlg::GetThisMessageMap
EXTRN	??0CMatrixSelecterDlg@@QAE@PAVCWnd@@@Z:PROC	; CMatrixSelecterDlg::CMatrixSelecterDlg
EXTRN	?ShowMatrix@CMatrixSelecterDlg@@QAEXH@Z:PROC	; CMatrixSelecterDlg::ShowMatrix
EXTRN	??0CExComboBox@@QAE@H@Z:PROC			; CExComboBox::CExComboBox
EXTRN	??1CExComboBox@@UAE@XZ:PROC			; CExComboBox::~CExComboBox
EXTRN	??0CILButton@@QAE@XZ:PROC			; CILButton::CILButton
EXTRN	?FP_vSetImage@CILButton@@QAEXPAVCImageList@@HHHV?$CStringT@DV?$StrTraitMFC_DLL@DV?$ChTraitsCRT@D@ATL@@@@@ATL@@HHH@Z:PROC ; CILButton::FP_vSetImage
EXTRN	?SetCheck@CILButton@@QAEXH@Z:PROC		; CILButton::SetCheck
EXTRN	?GetCheck@CILButton@@QAEHXZ:PROC		; CILButton::GetCheck
EXTRN	?FP_vSetToolTipText@CILButton@@QAEXV?$CStringT@DV?$StrTraitMFC_DLL@DV?$ChTraitsCRT@D@ATL@@@@@ATL@@@Z:PROC ; CILButton::FP_vSetToolTipText
EXTRN	??1CILButton@@UAE@XZ:PROC			; CILButton::~CILButton
EXTRN	??_E?$CMap@IIV?$CStringT@DV?$StrTraitMFC_DLL@DV?$ChTraitsCRT@D@ATL@@@@@ATL@@PBD@@UAEPAXI@Z:PROC ; CMap<unsigned int,unsigned int,ATL::CStringT<char,StrTraitMFC_DLL<char,ATL::ChTraitsCRT<char> > >,char const *>::`vector deleting destructor'
EXTRN	??_ECExtInputBarDlg@@UAEPAXI@Z:PROC		; CExtInputBarDlg::`vector deleting destructor'
EXTRN	?GetCountRQ@CChartItem@@QAEHXZ:PROC		; CChartItem::GetCountRQ
EXTRN	?SetEndDateRequested@CChartItem@@QAEXPBD@Z:PROC	; CChartItem::SetEndDateRequested
EXTRN	?GetDataCode@CChartItem@@QAE?AV?$CStringT@DV?$StrTraitMFC_DLL@DV?$ChTraitsCRT@D@ATL@@@@@ATL@@H@Z:PROC ; CChartItem::GetDataCode
EXTRN	?GetRQCount@CChartItem@@QAEHXZ:PROC		; CChartItem::GetRQCount
EXTRN	?GetpChartItemSelected@CChartMng@@QAEPAVCChartItem@@XZ:PROC ; CChartMng::GetpChartItemSelected
EXTRN	?ShowAvgLine@CChartMng@@QAEXV?$CStringT@DV?$StrTraitMFC_DLL@DV?$ChTraitsCRT@D@ATL@@@@@ATL@@0@Z:PROC ; CChartMng::ShowAvgLine
EXTRN	?RemoveConcPacketData@CChartMng@@QAEXXZ:PROC	; CChartMng::RemoveConcPacketData
EXTRN	?UpdateSyncIndicator@CChartMng@@QAEXXZ:PROC	; CChartMng::UpdateSyncIndicator
EXTRN	?LoadGrpInfo@CFavoriteThingsMng@@QAEHXZ:PROC	; CFavoriteThingsMng::LoadGrpInfo
EXTRN	?LoadItemInfo@CFavoriteThingsMng@@QAEHPBD@Z:PROC ; CFavoriteThingsMng::LoadItemInfo
EXTRN	?GetStartEndDateAtStdDialog@CStdDialog@@QAEXAAN0@Z:PROC ; CStdDialog::GetStartEndDateAtStdDialog
EXTRN	?SetJongListPrev@CStdDialog@@QAEXXZ:PROC	; CStdDialog::SetJongListPrev
EXTRN	?SetJongListNext@CStdDialog@@QAEXXZ:PROC	; CStdDialog::SetJongListNext
EXTRN	?RequestAvgUnitPrice@CStdDialog@@QAEXXZ:PROC	; CStdDialog::RequestAvgUnitPrice
EXTRN	?RequestCondUnitPrice@CStdDialog@@QAEXXZ:PROC	; CStdDialog::RequestCondUnitPrice
EXTRN	?GetScreenNo@CStdDialog@@QAE?AV?$CStringT@DV?$StrTraitMFC_DLL@DV?$ChTraitsCRT@D@ATL@@@@@ATL@@XZ:PROC ; CStdDialog::GetScreenNo
EXTRN	?DoClearUserChartData@CStdDialog@@QAEXXZ:PROC	; CStdDialog::DoClearUserChartData
EXTRN	@__security_check_cookie@4:PROC
EXTRN	___CxxFrameHandler3:PROC
EXTRN	__libm_sse2_pow_precise:PROC
EXTRN	_memset:PROC
EXTRN	??_7type_info@@6B@:QWORD			; type_info::`vftable'
EXTRN	__imp_?wndTop@CWnd@@2V1@B:BYTE
EXTRN	?m_ImgList_W20H20@CStdDialog@@2VCImageList@@A:QWORD ; CStdDialog::m_ImgList_W20H20
EXTRN	?m_ImgList_W20H20_Tool@CStdDialog@@2VCImageList@@A:QWORD ; CStdDialog::m_ImgList_W20H20_Tool
EXTRN	?m_ImgList_W46H20@CStdDialog@@2VCImageList@@A:QWORD ; CStdDialog::m_ImgList_W46H20
EXTRN	?m_ImgList_W58H20@CStdDialog@@2VCImageList@@A:QWORD ; CStdDialog::m_ImgList_W58H20
EXTRN	?m_ImgList_W46H20_Gwan@CStdDialog@@2VCImageList@@A:QWORD ; CStdDialog::m_ImgList_W46H20_Gwan
EXTRN	___security_cookie:DWORD
EXTRN	__fltused:DWORD
;	COMDAT ?_OptionsStorage@?1??__local_stdio_scanf_options@@9@4_KA
_BSS	SEGMENT
?_OptionsStorage@?1??__local_stdio_scanf_options@@9@4_KA DQ 01H DUP (?) ; `__local_stdio_scanf_options'::`2'::_OptionsStorage
_BSS	ENDS
_BSS	SEGMENT
?RMSG_INTERFACE@@3IB DD 01H DUP (?)			; RMSG_INTERFACE
?RMSG_GET_STDDLG_PTR@@3IB DD 01H DUP (?)		; RMSG_GET_STDDLG_PTR
?RMSG_GETSIGNAL_REAL@@3IB DD 01H DUP (?)		; RMSG_GETSIGNAL_REAL
?RMSG_SETQUERYOPT@@3IB DD 01H DUP (?)			; RMSG_SETQUERYOPT
?RMSG_CHARTMAIN@@3IB DD 01H DUP (?)			; RMSG_CHARTMAIN
?RMS_ANALYSIS_FUNC@@3IB DD 01H DUP (?)			; RMS_ANALYSIS_FUNC
?RMSG_GET_USERID@@3IB DD 01H DUP (?)			; RMSG_GET_USERID
?RMSG_CHANGE_SKINCOLOR@@3IB DD 01H DUP (?)		; RMSG_CHANGE_SKINCOLOR
?RMSG_GET_SKINCOLOR@@3IB DD 01H DUP (?)			; RMSG_GET_SKINCOLOR
?RMSG_CHANGEVERTSCALETYPE@@3IB DD 01H DUP (?)		; RMSG_CHANGEVERTSCALETYPE
?RMSG_CHANGE_CROSSLINE@@3IB DD 01H DUP (?)		; RMSG_CHANGE_CROSSLINE
?RMSG_ADD_PLATFORM_MENU@@3IB DD 01H DUP (?)		; RMSG_ADD_PLATFORM_MENU
?RMSG_SETINITIALCHARTDATA@@3IB DD 01H DUP (?)		; RMSG_SETINITIALCHARTDATA
?RMSG_GETINFO@@3IB DD 01H DUP (?)			; RMSG_GETINFO
?RMSG_SETINFO@@3IB DD 01H DUP (?)			; RMSG_SETINFO
?RMSG_REPLAY_REAL@@3IB DD 01H DUP (?)			; RMSG_REPLAY_REAL
?RMSG_REPLAY_FAIL@@3IB DD 01H DUP (?)			; RMSG_REPLAY_FAIL
?RMSG_REPLAY_CHANGE_DATE@@3IB DD 01H DUP (?)		; RMSG_REPLAY_CHANGE_DATE
?RMSG_REPLAY_END@@3IB DD 01H DUP (?)			; RMSG_REPLAY_END
?RMSG_REPLAY_INC_SEC@@3IB DD 01H DUP (?)		; RMSG_REPLAY_INC_SEC
?RMSG_REPLAY_TOTAL_SEC@@3IB DD 01H DUP (?)		; RMSG_REPLAY_TOTAL_SEC
?RMSG_GETOPENEDOWNER@@3IB DD 01H DUP (?)		; RMSG_GETOPENEDOWNER
?RMSG_PRINTSCREEN@@3IB DD 01H DUP (?)			; RMSG_PRINTSCREEN
?RMSG_OPENCHARTCONFIG@@3IB DD 01H DUP (?)		; RMSG_OPENCHARTCONFIG
?RMSG_GET_CONTROLHANDLE@@3IB DD 01H DUP (?)		; RMSG_GET_CONTROLHANDLE
?RMSG_GETCURRENTMODE@@3IB DD 01H DUP (?)		; RMSG_GETCURRENTMODE
_BSS	ENDS
;	COMDAT CRT$XCU
CRT$XCU	SEGMENT
?_AtlWinModule$initializer$@ATL@@3P6AXXZA DD FLAT:??__E_AtlWinModule@ATL@@YAXXZ ; ATL::_AtlWinModule$initializer$
CRT$XCU	ENDS
;	COMDAT __real@4000000000000000
CONST	SEGMENT
__real@4000000000000000 DQ 04000000000000000r	; 2
CONST	ENDS
;	COMDAT __real@0000000000000000
CONST	SEGMENT
__real@0000000000000000 DQ 00000000000000000r	; 0
CONST	ENDS
;	COMDAT ??_R1A@?0A@EA@?$CMap@IIV?$CStringT@DV?$StrTraitMFC_DLL@DV?$ChTraitsCRT@D@ATL@@@@@ATL@@PBD@@8
rdata$r	SEGMENT
??_R1A@?0A@EA@?$CMap@IIV?$CStringT@DV?$StrTraitMFC_DLL@DV?$ChTraitsCRT@D@ATL@@@@@ATL@@PBD@@8 DD FLAT:??_R0?AV?$CMap@IIV?$CStringT@DV?$StrTraitMFC_DLL@DV?$ChTraitsCRT@D@ATL@@@@@ATL@@PBD@@@8 ; CMap<unsigned int,unsigned int,ATL::CStringT<char,StrTraitMFC_DLL<char,ATL::ChTraitsCRT<char> > >,char const *>::`RTTI Base Class Descriptor at (0,-1,0,64)'
	DD	01H
	DD	00H
	DD	0ffffffffH
	DD	00H
	DD	040H
	DD	FLAT:??_R3?$CMap@IIV?$CStringT@DV?$StrTraitMFC_DLL@DV?$ChTraitsCRT@D@ATL@@@@@ATL@@PBD@@8
rdata$r	ENDS
;	COMDAT ??_R2?$CMap@IIV?$CStringT@DV?$StrTraitMFC_DLL@DV?$ChTraitsCRT@D@ATL@@@@@ATL@@PBD@@8
rdata$r	SEGMENT
??_R2?$CMap@IIV?$CStringT@DV?$StrTraitMFC_DLL@DV?$ChTraitsCRT@D@ATL@@@@@ATL@@PBD@@8 DD FLAT:??_R1A@?0A@EA@?$CMap@IIV?$CStringT@DV?$StrTraitMFC_DLL@DV?$ChTraitsCRT@D@ATL@@@@@ATL@@PBD@@8 ; CMap<unsigned int,unsigned int,ATL::CStringT<char,StrTraitMFC_DLL<char,ATL::ChTraitsCRT<char> > >,char const *>::`RTTI Base Class Array'
	DD	FLAT:??_R1A@?0A@EA@CObject@@8
rdata$r	ENDS
;	COMDAT ??_R3?$CMap@IIV?$CStringT@DV?$StrTraitMFC_DLL@DV?$ChTraitsCRT@D@ATL@@@@@ATL@@PBD@@8
rdata$r	SEGMENT
??_R3?$CMap@IIV?$CStringT@DV?$StrTraitMFC_DLL@DV?$ChTraitsCRT@D@ATL@@@@@ATL@@PBD@@8 DD 00H ; CMap<unsigned int,unsigned int,ATL::CStringT<char,StrTraitMFC_DLL<char,ATL::ChTraitsCRT<char> > >,char const *>::`RTTI Class Hierarchy Descriptor'
	DD	00H
	DD	02H
	DD	FLAT:??_R2?$CMap@IIV?$CStringT@DV?$StrTraitMFC_DLL@DV?$ChTraitsCRT@D@ATL@@@@@ATL@@PBD@@8
rdata$r	ENDS
;	COMDAT ??_R0?AV?$CMap@IIV?$CStringT@DV?$StrTraitMFC_DLL@DV?$ChTraitsCRT@D@ATL@@@@@ATL@@PBD@@@8
data$rs	SEGMENT
??_R0?AV?$CMap@IIV?$CStringT@DV?$StrTraitMFC_DLL@DV?$ChTraitsCRT@D@ATL@@@@@ATL@@PBD@@@8 DD FLAT:??_7type_info@@6B@ ; CMap<unsigned int,unsigned int,ATL::CStringT<char,StrTraitMFC_DLL<char,ATL::ChTraitsCRT<char> > >,char const *> `RTTI Type Descriptor'
	DD	00H
	DB	'.?AV?$CMap@IIV?$CStringT@DV?$StrTraitMFC_DLL@DV?$ChTrait'
	DB	'sCRT@D@ATL@@@@@ATL@@PBD@@', 00H
data$rs	ENDS
;	COMDAT ??_R4?$CMap@IIV?$CStringT@DV?$StrTraitMFC_DLL@DV?$ChTraitsCRT@D@ATL@@@@@ATL@@PBD@@6B@
rdata$r	SEGMENT
??_R4?$CMap@IIV?$CStringT@DV?$StrTraitMFC_DLL@DV?$ChTraitsCRT@D@ATL@@@@@ATL@@PBD@@6B@ DD 00H ; CMap<unsigned int,unsigned int,ATL::CStringT<char,StrTraitMFC_DLL<char,ATL::ChTraitsCRT<char> > >,char const *>::`RTTI Complete Object Locator'
	DD	00H
	DD	00H
	DD	FLAT:??_R0?AV?$CMap@IIV?$CStringT@DV?$StrTraitMFC_DLL@DV?$ChTraitsCRT@D@ATL@@@@@ATL@@PBD@@@8
	DD	FLAT:??_R3?$CMap@IIV?$CStringT@DV?$StrTraitMFC_DLL@DV?$ChTraitsCRT@D@ATL@@@@@ATL@@PBD@@8
rdata$r	ENDS
;	COMDAT ??_R2CRscDlg@@8
rdata$r	SEGMENT
??_R2CRscDlg@@8 DD FLAT:??_R1A@?0A@EA@CRscDlg@@8	; CRscDlg::`RTTI Base Class Array'
	DD	FLAT:??_R1A@?0A@EA@CDialog@@8
	DD	FLAT:??_R1A@?0A@EA@CWnd@@8
	DD	FLAT:??_R1A@?0A@EA@CCmdTarget@@8
	DD	FLAT:??_R1A@?0A@EA@CObject@@8
rdata$r	ENDS
;	COMDAT ??_R3CRscDlg@@8
rdata$r	SEGMENT
??_R3CRscDlg@@8 DD 00H					; CRscDlg::`RTTI Class Hierarchy Descriptor'
	DD	00H
	DD	05H
	DD	FLAT:??_R2CRscDlg@@8
rdata$r	ENDS
;	COMDAT ??_R0?AVCRscDlg@@@8
data$rs	SEGMENT
??_R0?AVCRscDlg@@@8 DD FLAT:??_7type_info@@6B@		; CRscDlg `RTTI Type Descriptor'
	DD	00H
	DB	'.?AVCRscDlg@@', 00H
data$rs	ENDS
;	COMDAT ??_R1A@?0A@EA@CRscDlg@@8
rdata$r	SEGMENT
??_R1A@?0A@EA@CRscDlg@@8 DD FLAT:??_R0?AVCRscDlg@@@8	; CRscDlg::`RTTI Base Class Descriptor at (0,-1,0,64)'
	DD	04H
	DD	00H
	DD	0ffffffffH
	DD	00H
	DD	040H
	DD	FLAT:??_R3CRscDlg@@8
rdata$r	ENDS
;	COMDAT ??_R1A@?0A@EA@CExtInputBarDlg@@8
rdata$r	SEGMENT
??_R1A@?0A@EA@CExtInputBarDlg@@8 DD FLAT:??_R0?AVCExtInputBarDlg@@@8 ; CExtInputBarDlg::`RTTI Base Class Descriptor at (0,-1,0,64)'
	DD	05H
	DD	00H
	DD	0ffffffffH
	DD	00H
	DD	040H
	DD	FLAT:??_R3CExtInputBarDlg@@8
rdata$r	ENDS
;	COMDAT ??_R2CExtInputBarDlg@@8
rdata$r	SEGMENT
??_R2CExtInputBarDlg@@8 DD FLAT:??_R1A@?0A@EA@CExtInputBarDlg@@8 ; CExtInputBarDlg::`RTTI Base Class Array'
	DD	FLAT:??_R1A@?0A@EA@CRscDlg@@8
	DD	FLAT:??_R1A@?0A@EA@CDialog@@8
	DD	FLAT:??_R1A@?0A@EA@CWnd@@8
	DD	FLAT:??_R1A@?0A@EA@CCmdTarget@@8
	DD	FLAT:??_R1A@?0A@EA@CObject@@8
rdata$r	ENDS
;	COMDAT ??_R3CExtInputBarDlg@@8
rdata$r	SEGMENT
??_R3CExtInputBarDlg@@8 DD 00H				; CExtInputBarDlg::`RTTI Class Hierarchy Descriptor'
	DD	00H
	DD	06H
	DD	FLAT:??_R2CExtInputBarDlg@@8
rdata$r	ENDS
;	COMDAT ??_R0?AVCExtInputBarDlg@@@8
data$rs	SEGMENT
??_R0?AVCExtInputBarDlg@@@8 DD FLAT:??_7type_info@@6B@	; CExtInputBarDlg `RTTI Type Descriptor'
	DD	00H
	DB	'.?AVCExtInputBarDlg@@', 00H
data$rs	ENDS
;	COMDAT ??_R4CExtInputBarDlg@@6B@
rdata$r	SEGMENT
??_R4CExtInputBarDlg@@6B@ DD 00H			; CExtInputBarDlg::`RTTI Complete Object Locator'
	DD	00H
	DD	00H
	DD	FLAT:??_R0?AVCExtInputBarDlg@@@8
	DD	FLAT:??_R3CExtInputBarDlg@@8
rdata$r	ENDS
;	COMDAT ??_C@_0CC@MAPLNIOL@?A?$LO?$LI?q?$LF?$LJ?$LH?A?$LK?$LI?$LB?b?5?$LB?b?$LE?I?$MA?L?5?$LF?$LP?$MA?$NL?A?$NP?$MA?T?$LE?O?$LE@
CONST	SEGMENT
??_C@_0CC@MAPLNIOL@?A?$LO?$LI?q?$LF?$LJ?$LH?A?$LK?$LI?$LB?b?5?$LB?b?$LE?I?$MA?L?5?$LF?$LP?$MA?$NL?A?$NP?$MA?T?$LE?O?$LE@ DB 0c1H
	DB	0beH, 0b8H, 0f1H, 0b5H, 0b9H, 0b7H, 0c1H, 0baH, 0b8H, 0b1H, 0e2H
	DB	' ', 0b1H, 0e2H, 0b4H, 0c9H, 0c0H, 0ccH, ' ', 0b5H, 0bfH, 0c0H
	DB	0dbH, 0c1H, 0dfH, 0c0H, 0d4H, 0b4H, 0cfH, 0b4H, 0d9H, '.', 00H ; `string'
CONST	ENDS
;	COMDAT ??_C@_0BD@CMCCCNBF@HANAROIGATEMANAGER@
CONST	SEGMENT
??_C@_0BD@CMCCCNBF@HANAROIGATEMANAGER@ DB 'HANAROIGATEMANAGER', 00H ; `string'
CONST	ENDS
;	COMDAT ??_C@_09IBPFDGDO@JipyoFile@
CONST	SEGMENT
??_C@_09IBPFDGDO@JipyoFile@ DB 'JipyoFile', 00H		; `string'
CONST	ENDS
;	COMDAT ??_C@_0BE@MMHLHMNE@?A?$LO?$LI?q?A?V?$LB?b?$LK?$LA?5?A?v?G?$KF?$MA?z?$MA?e@
CONST	SEGMENT
??_C@_0BE@MMHLHMNE@?A?$LO?$LI?q?A?V?$LB?b?$LK?$LA?5?A?v?G?$KF?$MA?z?$MA?e@ DB 0c1H
	DB	0beH, 0b8H, 0f1H, 0c1H, 0d6H, 0b1H, 0e2H, 0baH, 0b0H, ' ', 0c1H
	DB	0f6H, 0c7H, 0a5H, 0c0H, 0faH, 0c0H, 0e5H, 00H ; `string'
CONST	ENDS
;	COMDAT ??_C@_0M@HNBDOFEN@?$LK?P?$LM?$KO?E?x?5?$MA?z?$MA?e@
CONST	SEGMENT
??_C@_0M@HNBDOFEN@?$LK?P?$LM?$KO?E?x?5?$MA?z?$MA?e@ DB 0baH, 0d0H, 0bcH, 0aeH
	DB	0c5H, 0f8H, ' ', 0c0H, 0faH, 0c0H, 0e5H, 00H	; `string'
CONST	ENDS
;	COMDAT ??_C@_0BN@INCLMLGM@?B?w?F?$KO?$LA?$PM?$LH?C?5?$LL?g?$LP?k?$MA?Z?F?D?$MA?O?5?$MA?$PM?C?$LM?$LL?h?A?$KG@
CONST	SEGMENT
??_C@_0BN@INCLMLGM@?B?w?F?$KO?$LA?$PM?$LH?C?5?$LL?g?$LP?k?$MA?Z?F?D?$MA?O?5?$MA?$PM?C?$LM?$LL?h?A?$KG@ DB 0c2H
	DB	0f7H, 0c6H, 0aeH, 0b0H, 0fcH, 0b7H, 0c3H, ' ', 0bbH, 0e7H, 0bfH
	DB	0ebH, 0c0H, 0daH, 0c6H, 0c4H, 0c0H, 0cfH, ' ', 0c0H, 0fcH, 0c3H
	DB	0bcH, 0bbH, 0e8H, 0c1H, 0a6H, 00H		; `string'
CONST	ENDS
;	COMDAT ??_C@_08MDENFGEE@?$LM?v?A?$KE?A?V?$LA?$KB@
CONST	SEGMENT
??_C@_08MDENFGEE@?$LM?v?A?$KE?A?V?$LA?$KB@ DB 0bcH, 0f6H, 0c1H, 0a4H, 0c1H
	DB	0d6H, 0b0H, 0a1H, 00H			; `string'
CONST	ENDS
;	COMDAT ??_C@_08LOPLALKM@?$LA?$PM?$LN?I?A?v?G?$KF@
CONST	SEGMENT
??_C@_08LOPLALKM@?$LA?$PM?$LN?I?A?v?G?$KF@ DB 0b0H, 0fcH, 0bdH, 0c9H, 0c1H
	DB	0f6H, 0c7H, 0a5H, 00H			; `string'
CONST	ENDS
;	COMDAT ??_C@_09LOKPIFAI@?B?w?F?$KO?5?$LM?$LD?A?$KE@
CONST	SEGMENT
??_C@_09LOKPIFAI@?B?w?F?$KO?5?$LM?$LD?A?$KE@ DB 0c2H, 0f7H, 0c6H, 0aeH, ' '
	DB	0bcH, 0b3H, 0c1H, 0a4H, 00H			; `string'
CONST	ENDS
;	COMDAT ??_C@_0DF@DEHCJOBF@?$MA?$PM?C?$LM?5?B?w?F?$KO?$MA?G?5?H?$KP?$LA?f?$MA?L?5?C?J?$LB?b?H?$KN?5?$LF?K?$LE?O?$LE@
CONST	SEGMENT
??_C@_0DF@DEHCJOBF@?$MA?$PM?C?$LM?5?B?w?F?$KO?$MA?G?5?H?$KP?$LA?f?$MA?L?5?C?J?$LB?b?H?$KN?5?$LF?K?$LE?O?$LE@ DB 0c0H
	DB	0fcH, 0c3H, 0bcH, ' ', 0c2H, 0f7H, 0c6H, 0aeH, 0c0H, 0c7H, ' ', 0c8H
	DB	0afH, 0b0H, 0e6H, 0c0H, 0ccH, ' ', 0c3H, 0caH, 0b1H, 0e2H, 0c8H
	DB	0adH, ' ', 0b5H, 0cbH, 0b4H, 0cfH, 0b4H, 0d9H, '. ', 0b0H, 0e8H
	DB	0bcH, 0d3H, ' ', 0c7H, 0cfH, 0bdH, 0c3H, 0b0H, 0daH, 0bdH, 0c0H
	DB	0b4H, 0cfH, 0b1H, 0eeH, '?', 00H		; `string'
CONST	ENDS
;	COMDAT ??_C@_03OGOJOGPE@DWM@
CONST	SEGMENT
??_C@_03OGOJOGPE@DWM@ DB 'DWM', 00H			; `string'
CONST	ENDS
;	COMDAT ??_C@_08LFPPBENI@CodeSync@
CONST	SEGMENT
??_C@_08LFPPBENI@CodeSync@ DB 'CodeSync', 00H		; `string'
CONST	ENDS
;	COMDAT ??_C@_08OOIINJIM@?$LN?C?$MA?e?A?v?G?$KF@
CONST	SEGMENT
??_C@_08OOIINJIM@?$LN?C?$MA?e?A?v?G?$KF@ DB 0bdH, 0c3H, 0c0H, 0e5H, 0c1H, 0f6H
	DB	0c7H, 0a5H, 00H				; `string'
CONST	ENDS
;	COMDAT ??_C@_08NPEIHMNO@?$LB?b?E?$LI?A?v?G?$KF@
CONST	SEGMENT
??_C@_08NPEIHMNO@?$LB?b?E?$LI?A?v?G?$KF@ DB 0b1H, 0e2H, 0c5H, 0b8H, 0c1H, 0f6H
	DB	0c7H, 0a5H, 00H				; `string'
CONST	ENDS
;	COMDAT ??_C@_0M@PJMKPBLB@2?B?w?F?D?$LL?$PN?A?v?G?$KF@
CONST	SEGMENT
??_C@_0M@PJMKPBLB@2?B?w?F?D?$LL?$PN?A?v?G?$KF@ DB '2', 0c2H, 0f7H, 0c6H, 0c4H
	DB	0bbH, 0fdH, 0c1H, 0f6H, 0c7H, 0a5H, 00H	; `string'
CONST	ENDS
;	COMDAT ??_C@_0L@OJKLPOPK@?$LA?E?$LH?$KB?$LH?$KO?A?v?G?$KF@
CONST	SEGMENT
??_C@_0L@OJKLPOPK@?$LA?E?$LH?$KB?$LH?$KO?A?v?G?$KF@ DB 0b0H, 0c5H, 0b7H, 0a1H
	DB	0b7H, 0aeH, 0c1H, 0f6H, 0c7H, 0a5H, 00H	; `string'
CONST	ENDS
;	COMDAT ??_C@_0L@BAEGCNCP@?$LK?$KP?$LF?$LP?$LM?$LK?A?v?G?$KF@
CONST	SEGMENT
??_C@_0L@BAEGCNCP@?$LK?$KP?$LF?$LP?$LM?$LK?A?v?G?$KF@ DB 0baH, 0afH, 0b5H
	DB	0bfH, 0bcH, 0baH, 0c1H, 0f6H, 0c7H, 0a5H, 00H ; `string'
CONST	ENDS
;	COMDAT ??_C@_08PNLEAGMP@?C?$NP?$LM?$LM?A?v?G?$KF@
CONST	SEGMENT
??_C@_08PNLEAGMP@?C?$NP?$LM?$LM?A?v?G?$KF@ DB 0c3H, 0dfH, 0bcH, 0bcH, 0c1H
	DB	0f6H, 0c7H, 0a5H, 00H			; `string'
CONST	ENDS
;	COMDAT ??_C@_08IJEIMMPG@?$LA?$KB?$LA?$NN?A?v?G?$KF@
CONST	SEGMENT
??_C@_08IJEIMMPG@?$LA?$KB?$LA?$NN?A?v?G?$KF@ DB 0b0H, 0a1H, 0b0H, 0ddH, 0c1H
	DB	0f6H, 0c7H, 0a5H, 00H			; `string'
CONST	ENDS
;	COMDAT ??_C@_0BE@PDLOPEPM@?$LH?g?F?$LOCall?H?$KO?$MA?N?$FL?$CFd?3?$CFs?$FN@
CONST	SEGMENT
??_C@_0BE@PDLOPEPM@?$LH?g?F?$LOCall?H?$KO?$MA?N?$FL?$CFd?3?$CFs?$FN@ DB 0b7H
	DB	0e7H, 0c6H, 0beH, 'Call', 0c8H, 0aeH, 0c0H, 0ceH, '[%d:%s]', 00H ; `string'
CONST	ENDS
;	COMDAT ??_C@_0EM@NGOCGFAP@D?3?2git?2src?2IBK?2IBK_DRFN?2ProjSrc@
CONST	SEGMENT
??_C@_0EM@NGOCGFAP@D?3?2git?2src?2IBK?2IBK_DRFN?2ProjSrc@ DB 'D:\git\src\'
	DB	'IBK\IBK_DRFN\ProjSrc\SrcDrfn\Chart\MULTICHART\ExtInputBarDlg.'
	DB	'cpp', 00H					; `string'
CONST	ENDS
;	COMDAT ??_C@_06CLONMKIH@?$CFY?$CFm?$CFd@
CONST	SEGMENT
??_C@_06CLONMKIH@?$CFY?$CFm?$CFd@ DB '%Y%m%d', 00H	; `string'
CONST	ENDS
;	COMDAT ??_C@_01EPMOAMKG@$@
CONST	SEGMENT
??_C@_01EPMOAMKG@$@ DB '$', 00H				; `string'
CONST	ENDS
;	COMDAT ??_C@_01FGNFDNOH@?$CF@
CONST	SEGMENT
??_C@_01FGNFDNOH@?$CF@ DB '%', 00H			; `string'
CONST	ENDS
;	COMDAT ??_C@_08NHNMFBCG@?$CF2d?5X?$CF2d@
CONST	SEGMENT
??_C@_08NHNMFBCG@?$CF2d?5X?$CF2d@ DB '%2d X%2d', 00H	; `string'
CONST	ENDS
;	COMDAT ??_C@_0CF@PONHIKH@?B?w?F?$KO?$MA?G?5?$LM?v?$LI?$KG?520?$LA?$LD?$MA?L?G?O?$LH?N?5?G?O?$LP?$KJ?A?V?$LN?J@
CONST	SEGMENT
??_C@_0CF@PONHIKH@?B?w?F?$KO?$MA?G?5?$LM?v?$LI?$KG?520?$LA?$LD?$MA?L?G?O?$LH?N?5?G?O?$LP?$KJ?A?V?$LN?J@ DB 0c2H
	DB	0f7H, 0c6H, 0aeH, 0c0H, 0c7H, ' ', 0bcH, 0f6H, 0b8H, 0a6H, ' 2'
	DB	'0', 0b0H, 0b3H, 0c0H, 0ccH, 0c7H, 0cfH, 0b7H, 0ceH, ' ', 0c7H
	DB	0cfH, 0bfH, 0a9H, 0c1H, 0d6H, 0bdH, 0caH, 0bdH, 0c3H, 0bfH, 0c0H
	DB	'.', 00H					; `string'
CONST	ENDS
;	COMDAT ??_C@_08BDLNPKGG@?A?$LO?G?U?B?w?F?$KO@
CONST	SEGMENT
??_C@_08BDLNPKGG@?A?$LO?G?U?B?w?F?$KO@ DB 0c1H, 0beH, 0c7H, 0d5H, 0c2H, 0f7H
	DB	0c6H, 0aeH, 00H				; `string'
CONST	ENDS
;	COMDAT ??_C@_08LCOJJIAL@Account1@
CONST	SEGMENT
??_C@_08LCOJJIAL@Account1@ DB 'Account1', 00H		; `string'
CONST	ENDS
;	COMDAT ??_C@_04LOFONJMN@X?5?58@
CONST	SEGMENT
??_C@_04LOFONJMN@X?5?58@ DB 'X  8', 00H			; `string'
CONST	ENDS
;	COMDAT ??_C@_04BCOLJGMB@X?5?54@
CONST	SEGMENT
??_C@_04BCOLJGMB@X?5?54@ DB 'X  4', 00H			; `string'
CONST	ENDS
;	COMDAT ??_C@_04EELBDBEH@X?5?52@
CONST	SEGMENT
??_C@_04EELBDBEH@X?5?52@ DB 'X  2', 00H			; `string'
CONST	ENDS
;	COMDAT ??_C@_04GPJMGCIE@X?5?51@
CONST	SEGMENT
??_C@_04GPJMGCIE@X?5?51@ DB 'X  1', 00H			; `string'
CONST	ENDS
;	COMDAT ??_C@_04IBLPHLKF@7111@
CONST	SEGMENT
??_C@_04IBLPHLKF@7111@ DB '7111', 00H			; `string'
CONST	ENDS
;	COMDAT ??_C@_0BH@NJOBJIAN@SaveJipyoPerCodePeriod@
CONST	SEGMENT
??_C@_0BH@NJOBJIAN@SaveJipyoPerCodePeriod@ DB 'SaveJipyoPerCodePeriod', 00H ; `string'
CONST	ENDS
;	COMDAT ??_C@_0N@JLBABMHO@AnalToolSave@
CONST	SEGMENT
??_C@_0N@JLBABMHO@AnalToolSave@ DB 'AnalToolSave', 00H	; `string'
CONST	ENDS
;	COMDAT ??_C@_0BB@GKDGIIFF@SaveJipyoOneFile@
CONST	SEGMENT
??_C@_0BB@GKDGIIFF@SaveJipyoOneFile@ DB 'SaveJipyoOneFile', 00H ; `string'
CONST	ENDS
;	COMDAT ??_C@_09GPLOLDLO@CrossLine@
CONST	SEGMENT
??_C@_09GPLOLDLO@CrossLine@ DB 'CrossLine', 00H		; `string'
CONST	ENDS
;	COMDAT ??_C@_0N@HBKGNKCN@DragModeType@
CONST	SEGMENT
??_C@_0N@HBKGNKCN@DragModeType@ DB 'DragModeType', 00H	; `string'
CONST	ENDS
;	COMDAT ??_C@_0BJ@LOFKHOGA@NormalizedMinuteTimeRule@
CONST	SEGMENT
??_C@_0BJ@LOFKHOGA@NormalizedMinuteTimeRule@ DB 'NormalizedMinuteTimeRule'
	DB	00H						; `string'
CONST	ENDS
;	COMDAT ??_C@_0M@POCNEIHC@ExtInputBar@
CONST	SEGMENT
??_C@_0M@POCNEIHC@ExtInputBar@ DB 'ExtInputBar', 00H	; `string'
CONST	ENDS
;	COMDAT ??_C@_05GBKMCCNA@Saved@
CONST	SEGMENT
??_C@_05GBKMCCNA@Saved@ DB 'Saved', 00H			; `string'
CONST	ENDS
;	COMDAT ??_C@_01GFHCPBMG@C@
CONST	SEGMENT
??_C@_01GFHCPBMG@C@ DB 'C', 00H				; `string'
CONST	ENDS
;	COMDAT ??_C@_01BBODEMC@G@
CONST	SEGMENT
??_C@_01BBODEMC@G@ DB 'G', 00H				; `string'
CONST	ENDS
;	COMDAT ??_C@_08NOIHJKJI@?$LI?E?$LM?v?H?$KN?$LI?i@
CONST	SEGMENT
??_C@_08NOIHJKJI@?$LI?E?$LM?v?H?$KN?$LI?i@ DB 0b8H, 0c5H, 0bcH, 0f6H, 0c8H
	DB	0adH, 0b8H, 0e9H, 00H			; `string'
CONST	ENDS
;	COMDAT ??_C@_02IOBMGHKC@?$LM?v@
CONST	SEGMENT
??_C@_02IOBMGHKC@?$LM?v@ DB 0bcH, 0f6H, 00H		; `string'
CONST	ENDS
;	COMDAT ??_C@_08MCNDKHIJ@?$LI?E?$LF?$LF?H?$KN?$LI?i@
CONST	SEGMENT
??_C@_08MCNDKHIJ@?$LI?E?$LF?$LF?H?$KN?$LI?i@ DB 0b8H, 0c5H, 0b5H, 0b5H, 0c8H
	DB	0adH, 0b8H, 0e9H, 00H			; `string'
CONST	ENDS
;	COMDAT ??_C@_02FKJJEAOL@?$LF?$LF@
CONST	SEGMENT
??_C@_02FKJJEAOL@?$LF?$LF@ DB 0b5H, 0b5H, 00H		; `string'
CONST	ENDS
;	COMDAT ??_C@_02PGFOILFD@?$KC?$LI@
CONST	SEGMENT
??_C@_02PGFOILFD@?$KC?$LI@ DB 0a2H, 0b8H, 00H		; `string'
CONST	ENDS
;	COMDAT ??_C@_02MEGIOJNB@?$KC?$LK@
CONST	SEGMENT
??_C@_02MEGIOJNB@?$KC?$LK@ DB 0a2H, 0baH, 00H		; `string'
CONST	ENDS
;	COMDAT ??_C@_04OGFGOPBG@?$MA?N?$LM?b@
CONST	SEGMENT
??_C@_04OGFGOPBG@?$MA?N?$LM?b@ DB 0c0H, 0ceH, 0bcH, 0e2H, 00H ; `string'
CONST	ENDS
;	COMDAT ??_C@_0BB@MCEEIGDP@?$MA?z?$MA?e?B?w?F?$KO?$LK?R?$LH?$KP?$LP?$MA?$LB?b@
CONST	SEGMENT
??_C@_0BB@MCEEIGDP@?$MA?z?$MA?e?B?w?F?$KO?$LK?R?$LH?$KP?$LP?$MA?$LB?b@ DB 0c0H
	DB	0faH, 0c0H, 0e5H, 0c2H, 0f7H, 0c6H, 0aeH, 0baH, 0d2H, 0b7H, 0afH
	DB	0bfH, 0c0H, 0b1H, 0e2H, 00H			; `string'
CONST	ENDS
;	COMDAT ??_C@_08EENKIIBC@?B?w?F?$KO?$MA?z?$MA?e@
CONST	SEGMENT
??_C@_08EENKIIBC@?B?w?F?$KO?$MA?z?$MA?e@ DB 0c2H, 0f7H, 0c6H, 0aeH, 0c0H, 0faH
	DB	0c0H, 0e5H, 00H				; `string'
CONST	ENDS
;	COMDAT ??_C@_0P@NLDHDBFN@?$LN?$LK?D?I?$MA?O?$LK?$LI?$LP?$KJ?A?V?$LB?b@
CONST	SEGMENT
??_C@_0P@NLDHDBFN@?$LN?$LK?D?I?$MA?O?$LK?$LI?$LP?$KJ?A?V?$LB?b@ DB 0bdH, 0baH
	DB	0c4H, 0c9H, 0c0H, 0cfH, 0baH, 0b8H, 0bfH, 0a9H, 0c1H, 0d6H, 0b1H
	DB	0e2H, 00H					; `string'
CONST	ENDS
;	COMDAT ??_C@_04NMHJGEDF@?$MA?L?H?D@
CONST	SEGMENT
??_C@_04NMHJGEDF@?$MA?L?H?D@ DB 0c0H, 0ccH, 0c8H, 0c4H, 00H ; `string'
CONST	ENDS
;	COMDAT ??_C@_0L@CGKGJHBG@?$LN?$LK?E?$KJ?$LH?Q?A?$KE?A?v@
CONST	SEGMENT
??_C@_0L@CGKGJHBG@?$LN?$LK?E?$KJ?$LH?Q?A?$KE?A?v@ DB 0bdH, 0baH, 0c5H, 0a9H
	DB	0b7H, 0d1H, 0c1H, 0a4H, 0c1H, 0f6H, 00H	; `string'
CONST	ENDS
;	COMDAT ??_C@_04MFPFIJHG@?$MA?L?$MA?$PM@
CONST	SEGMENT
??_C@_04MFPFIJHG@?$MA?L?$MA?$PM@ DB 0c0H, 0ccH, 0c0H, 0fcH, 00H ; `string'
CONST	ENDS
;	COMDAT ??_C@_08LMIHAIFC@?$LK?P?G?R?$LK?$LJ?$LP?x@
CONST	SEGMENT
??_C@_08LMIHAIFC@?$LK?P?G?R?$LK?$LJ?$LP?x@ DB 0baH, 0d0H, 0c7H, 0d2H, 0baH
	DB	0b9H, 0bfH, 0f8H, 00H			; `string'
CONST	ENDS
;	COMDAT ??_C@_04GCBAIGJG@?$LK?P?G?R@
CONST	SEGMENT
??_C@_04GCBAIGJG@?$LK?P?G?R@ DB 0baH, 0d0H, 0c7H, 0d2H, 00H ; `string'
CONST	ENDS
;	COMDAT ??_C@_0N@GIENCJMH@Y?C?$OA?5?$LE?$KL?$LB?$NN?$MA?$PM?H?$KP@
CONST	SEGMENT
??_C@_0N@GIENCJMH@Y?C?$OA?5?$LE?$KL?$LB?$NN?$MA?$PM?H?$KP@ DB 'Y', 0c3H, 0e0H
	DB	' ', 0b4H, 0abH, 0b1H, 0ddH, 0c0H, 0fcH, 0c8H, 0afH, 00H ; `string'
CONST	ENDS
;	COMDAT ??_C@_08LIBHLAII@?$LB?b?$LA?$KD?$LM?$LD?A?$KE@
CONST	SEGMENT
??_C@_08LIBHLAII@?$LB?b?$LA?$KD?$LM?$LD?A?$KE@ DB 0b1H, 0e2H, 0b0H, 0a3H, 0bcH
	DB	0b3H, 0c1H, 0a4H, 00H			; `string'
CONST	ENDS
;	COMDAT ??_C@_01EJNLAFE@P@
CONST	SEGMENT
??_C@_01EJNLAFE@P@ DB 'P', 00H				; `string'
CONST	ENDS
;	COMDAT ??_C@_0M@NINNGGJA@?$LN?J?$MA?Z?$LM?$LB?5?G?$KF?$LN?C@
CONST	SEGMENT
??_C@_0M@NINNGGJA@?$LN?J?$MA?Z?$LM?$LB?5?G?$KF?$LN?C@ DB 0bdH, 0caH, 0c0H
	DB	0daH, 0bcH, 0b1H, ' ', 0c7H, 0a5H, 0bdH, 0c3H, 00H ; `string'
CONST	ENDS
;	COMDAT ??_C@_08FGDFCFBI@?$LB?b?$LA?$KD?$LA?m?A?$KE@
CONST	SEGMENT
??_C@_08FGDFCFBI@?$LB?b?$LA?$KD?$LA?m?A?$KE@ DB 0b1H, 0e2H, 0b0H, 0a3H, 0b0H
	DB	0edH, 0c1H, 0a4H, 00H			; `string'
CONST	ENDS
;	COMDAT ??_C@_0P@CLKJNIKE@?B?w?F?$KO?A?v?G?$KF?$LF?$LP?$LB?b?H?$KN@
CONST	SEGMENT
??_C@_0P@CLKJNIKE@?B?w?F?$KO?A?v?G?$KF?$LF?$LP?$LB?b?H?$KN@ DB 0c2H, 0f7H
	DB	0c6H, 0aeH, 0c1H, 0f6H, 0c7H, 0a5H, 0b5H, 0bfH, 0b1H, 0e2H, 0c8H
	DB	0adH, 00H					; `string'
CONST	ENDS
;	COMDAT ??_C@_0N@PAPJAJOF@?A?V?$LB?b?$LP?$KM?$LF?$LP?A?v?A?$KE@
CONST	SEGMENT
??_C@_0N@PAPJAJOF@?A?V?$LB?b?$LP?$KM?$LF?$LP?A?v?A?$KE@ DB 0c1H, 0d6H, 0b1H
	DB	0e2H, 0bfH, 0acH, 0b5H, 0bfH, 0c1H, 0f6H, 0c1H, 0a4H, 00H ; `string'
CONST	ENDS
;	COMDAT ??_C@_0N@GJHDBHHN@?A?$LO?$LI?q?$LP?$KM?$LF?$LP?A?v?A?$KE@
CONST	SEGMENT
??_C@_0N@GJHDBHHN@?A?$LO?$LI?q?$LP?$KM?$LF?$LP?A?v?A?$KE@ DB 0c1H, 0beH, 0b8H
	DB	0f1H, 0bfH, 0acH, 0b5H, 0bfH, 0c1H, 0f6H, 0c1H, 0a4H, 00H ; `string'
CONST	ENDS
;	COMDAT ??_C@_08JBKIJOF@?H?$KP?$LA?f?$LM?$LD?A?$KE@
CONST	SEGMENT
??_C@_08JBKIJOF@?H?$KP?$LA?f?$LM?$LD?A?$KE@ DB 0c8H, 0afH, 0b0H, 0e6H, 0bcH
	DB	0b3H, 0c1H, 0a4H, 00H			; `string'
CONST	ENDS
;	COMDAT ??_C@_04JDFEIJL@?A?v?G?$KF@
CONST	SEGMENT
??_C@_04JDFEIJL@?A?v?G?$KF@ DB 0c1H, 0f6H, 0c7H, 0a5H, 00H ; `string'
CONST	ENDS
;	COMDAT ??_C@_08OMOHNJKO@?$LA?$PM?$LN?I?$LF?n?$LH?O@
CONST	SEGMENT
??_C@_08OMOHNJKO@?$LA?$PM?$LN?I?$LF?n?$LH?O@ DB 0b0H, 0fcH, 0bdH, 0c9H, 0b5H
	DB	0eeH, 0b7H, 0cfH, 00H			; `string'
CONST	ENDS
;	COMDAT ??_C@_0P@NJHNOOOB@?$MA?$PM?C?$LM?B?w?F?$KO?C?J?$LB?b?H?$KN@
CONST	SEGMENT
??_C@_0P@NJHNOOOB@?$MA?$PM?C?$LM?B?w?F?$KO?C?J?$LB?b?H?$KN@ DB 0c0H, 0fcH
	DB	0c3H, 0bcH, 0c2H, 0f7H, 0c6H, 0aeH, 0c3H, 0caH, 0b1H, 0e2H, 0c8H
	DB	0adH, 00H					; `string'
CONST	ENDS
;	COMDAT ??_C@_06PKNBDFAO@?C?J?$LB?b?H?$KN@
CONST	SEGMENT
??_C@_06PKNBDFAO@?C?J?$LB?b?H?$KN@ DB 0c3H, 0caH, 0b1H, 0e2H, 0c8H, 0adH, 00H ; `string'
CONST	ENDS
;	COMDAT ??_C@_0N@FDEEABPE@?B?w?F?$KO?H?$KP?$LA?f?$LM?$LD?A?$KE@
CONST	SEGMENT
??_C@_0N@FDEEABPE@?B?w?F?$KO?H?$KP?$LA?f?$LM?$LD?A?$KE@ DB 0c2H, 0f7H, 0c6H
	DB	0aeH, 0c8H, 0afH, 0b0H, 0e6H, 0bcH, 0b3H, 0c1H, 0a4H, 00H ; `string'
CONST	ENDS
;	COMDAT ??_C@_04LJCLIJBJ@?$LM?$LD?A?$KE@
CONST	SEGMENT
??_C@_04LJCLIJBJ@?$LM?$LD?A?$KE@ DB 0bcH, 0b3H, 0c1H, 0a4H, 00H ; `string'
CONST	ENDS
;	COMDAT ??_C@_08OOOIJKML@?$LK?$LI?A?$LG?$LB?b?$LE?I@
CONST	SEGMENT
??_C@_08OOOIJKML@?$LK?$LI?A?$LG?$LB?b?$LE?I@ DB 0baH, 0b8H, 0c1H, 0b6H, 0b1H
	DB	0e2H, 0b4H, 0c9H, 00H			; `string'
CONST	ENDS
;	COMDAT ?messageMap@?1??GetThisMessageMap@CExtInputBarDlg@@KGPBUAFX_MSGMAP@@XZ@4U3@B
CONST	SEGMENT
?messageMap@?1??GetThisMessageMap@CExtInputBarDlg@@KGPBUAFX_MSGMAP@@XZ@4U3@B DD FLAT:?GetThisMessageMap@CRscDlg@@KGPBUAFX_MSGMAP@@XZ ; `CExtInputBarDlg::GetThisMessageMap'::`2'::messageMap
	DD	FLAT:?_messageEntries@?1??GetThisMessageMap@CExtInputBarDlg@@KGPBUAFX_MSGMAP@@XZ@4QBUAFX_MSGMAP_ENTRY@@B
CONST	ENDS
;	COMDAT ?_messageEntries@?1??GetThisMessageMap@CExtInputBarDlg@@KGPBUAFX_MSGMAP@@XZ@4QBUAFX_MSGMAP_ENTRY@@B
CONST	SEGMENT
?_messageEntries@?1??GetThisMessageMap@CExtInputBarDlg@@KGPBUAFX_MSGMAP@@XZ@4QBUAFX_MSGMAP_ENTRY@@B DD 0111H ; `CExtInputBarDlg::GetThisMessageMap'::`2'::_messageEntries
	DD	00H
	DD	0183fH
	DD	0183fH
	DD	03aH
	DD	FLAT:?OnBtScrollPre@CExtInputBarDlg@@IAEXXZ
	DD	0111H
	DD	00H
	DD	01840H
	DD	01840H
	DD	03aH
	DD	FLAT:?OnBtScrollNext@CExtInputBarDlg@@IAEXXZ
	DD	0111H
	DD	00H
	DD	0183eH
	DD	0183eH
	DD	03aH
	DD	FLAT:?OnBtScrollStop@CExtInputBarDlg@@IAEXXZ
	DD	0111H
	DD	00H
	DD	01809H
	DD	01809H
	DD	03aH
	DD	FLAT:?OnBtinitsplit@CExtInputBarDlg@@IAEXXZ
	DD	0111H
	DD	00H
	DD	01800H
	DD	01800H
	DD	03aH
	DD	FLAT:?OnBtindex@CExtInputBarDlg@@IAEXXZ
	DD	0111H
	DD	00H
	DD	0181bH
	DD	0181bH
	DD	03aH
	DD	FLAT:?OnChkjongmoklink@CExtInputBarDlg@@IAEXXZ
	DD	0111H
	DD	00H
	DD	0181cH
	DD	0181cH
	DD	03aH
	DD	FLAT:?OnChktypelink@CExtInputBarDlg@@IAEXXZ
	DD	0111H
	DD	00H
	DD	0180dH
	DD	0180dH
	DD	03aH
	DD	FLAT:?OnBtload@CExtInputBarDlg@@IAEXXZ
	DD	0111H
	DD	00H
	DD	0180cH
	DD	0180cH
	DD	03aH
	DD	FLAT:?OnBtsave@CExtInputBarDlg@@IAEXXZ
	DD	0111H
	DD	00H
	DD	0180bH
	DD	0180bH
	DD	03aH
	DD	FLAT:?OnBtinitial@CExtInputBarDlg@@IAEXXZ
	DD	0111H
	DD	00H
	DD	01899H
	DD	01899H
	DD	03aH
	DD	FLAT:?OnBtchartconfig@CExtInputBarDlg@@IAEXXZ
	DD	02H
	DD	00H
	DD	00H
	DD	00H
	DD	013H
	DD	FLAT:?OnDestroy@CExtInputBarDlg@@IAEXXZ
	DD	0111H
	DD	00H
	DD	01817H
	DD	01817H
	DD	03aH
	DD	FLAT:?OnChkshowscale@CExtInputBarDlg@@IAEXXZ
	DD	019H
	DD	00H
	DD	00H
	DD	00H
	DD	08H
	DD	FLAT:?OnCtlColor@CExtInputBarDlg@@IAEPAUHBRUSH__@@PAVCDC@@PAVCWnd@@I@Z
	DD	0111H
	DD	00H
	DD	0180eH
	DD	0180eH
	DD	03aH
	DD	FLAT:?OnBtprint@CExtInputBarDlg@@IAEXXZ
	DD	0111H
	DD	00H
	DD	0180fH
	DD	0180fH
	DD	03aH
	DD	FLAT:?OnBtsetenvir@CExtInputBarDlg@@IAEXXZ
	DD	0111H
	DD	00H
	DD	0183bH
	DD	0183bH
	DD	03aH
	DD	FLAT:?OnBtshowmatrix@CExtInputBarDlg@@IAEXXZ
	DD	0201H
	DD	00H
	DD	00H
	DD	00H
	DD	036H
	DD	FLAT:?OnLButtonDown@CExtInputBarDlg@@IAEXIVCPoint@@@Z
	DD	0111H
	DD	00H
	DD	0183dH
	DD	0183dH
	DD	03aH
	DD	FLAT:?OnBtexnext@CExtInputBarDlg@@IAEXXZ
	DD	0111H
	DD	00H
	DD	0183cH
	DD	0183cH
	DD	03aH
	DD	FLAT:?OnBtexprev@CExtInputBarDlg@@IAEXXZ
	DD	0111H
	DD	00H
	DD	01842H
	DD	01842H
	DD	03aH
	DD	FLAT:?OnBtanalysispattern@CExtInputBarDlg@@IAEXXZ
	DD	0111H
	DD	00H
	DD	01843H
	DD	01843H
	DD	03aH
	DD	FLAT:?OnBtchartguideline@CExtInputBarDlg@@IAEXXZ
	DD	0111H
	DD	00H
	DD	01846H
	DD	01846H
	DD	03aH
	DD	FLAT:?OnBthist@CExtInputBarDlg@@IAEXXZ
	DD	0111H
	DD	00H
	DD	01847H
	DD	01847H
	DD	03aH
	DD	FLAT:?OnBtst@CExtInputBarDlg@@IAEXXZ
	DD	0111H
	DD	00H
	DD	0184dH
	DD	0184dH
	DD	03aH
	DD	FLAT:?OnBtnSdate@CExtInputBarDlg@@IAEXXZ
	DD	0111H
	DD	00H
	DD	0184eH
	DD	0184eH
	DD	03aH
	DD	FLAT:?OnBtnEdate@CExtInputBarDlg@@IAEXXZ
	DD	04eH
	DD	0fd0fH
	DD	01826H
	DD	01826H
	DD	03eH
	DD	FLAT:?OnCloseupDatetimepicker1@CExtInputBarDlg@@IAEXPAUtagNMHDR@@PAJ@Z
	DD	0111H
	DD	00H
	DD	0184bH
	DD	0184bH
	DD	03aH
	DD	FLAT:?OnBtnSellscr@CExtInputBarDlg@@IAEXXZ
	DD	0111H
	DD	00H
	DD	0184cH
	DD	0184cH
	DD	03aH
	DD	FLAT:?OnBtnBuyscr@CExtInputBarDlg@@IAEXXZ
	DD	0111H
	DD	00H
	DD	01801H
	DD	01801H
	DD	03aH
	DD	FLAT:?OnBtfixperiod@CExtInputBarDlg@@IAEXXZ
	DD	0111H
	DD	00H
	DD	01867H
	DD	01867H
	DD	03aH
	DD	FLAT:?OnChkEndsave@CExtInputBarDlg@@IAEXXZ
	DD	0111H
	DD	00H
	DD	0181dH
	DD	0181dH
	DD	03aH
	DD	FLAT:?OnChkupdateindex@CExtInputBarDlg@@IAEXXZ
	DD	0111H
	DD	00H
	DD	01844H
	DD	01844H
	DD	03aH
	DD	FLAT:?OnBtnAnalizePeriod@CExtInputBarDlg@@IAEXXZ
	DD	0111H
	DD	00H
	DD	01797H
	DD	01797H
	DD	03aH
	DD	FLAT:?OnChkRevised@CExtInputBarDlg@@IAEXXZ
	DD	0111H
	DD	00H
	DD	0184fH
	DD	0184fH
	DD	03aH
	DD	FLAT:?OnBtnPeriod@CExtInputBarDlg@@IAEXXZ
	DD	0111H
	DD	00H
	DD	01831H
	DD	01831H
	DD	03aH
	DD	FLAT:?OnBtetcmenu@CExtInputBarDlg@@IAEXXZ
	DD	0111H
	DD	00H
	DD	01813H
	DD	01813H
	DD	03aH
	DD	FLAT:?OnBtSub2@CExtInputBarDlg@@IAEXXZ
	DD	0111H
	DD	00H
	DD	01877H
	DD	01877H
	DD	03aH
	DD	FLAT:?OnBtnChangsynit@CExtInputBarDlg@@IAEXXZ
	DD	0111H
	DD	00H
	DD	01829H
	DD	01829H
	DD	03aH
	DD	FLAT:?OnChkfixperiod@CExtInputBarDlg@@IAEXXZ
	DD	0111H
	DD	00H
	DD	01849H
	DD	01849H
	DD	03aH
	DD	FLAT:?OnBtnGwansim@CExtInputBarDlg@@IAEXXZ
	DD	014H
	DD	00H
	DD	00H
	DD	00H
	DD	01H
	DD	FLAT:?OnEraseBkgnd@CExtInputBarDlg@@IAEHPAVCDC@@@Z
	DD	0fH
	DD	00H
	DD	00H
	DD	00H
	DD	013H
	DD	FLAT:?OnPaint@CExtInputBarDlg@@IAEXXZ
	DD	0111H
	DD	01H
	DD	01876H
	DD	01876H
	DD	03aH
	DD	FLAT:?OnSelchangeCmbScrollSpeed@CExtInputBarDlg@@IAEXXZ
	DD	0111H
	DD	00H
	DD	0187fH
	DD	0187fH
	DD	03aH
	DD	FLAT:?OnChkQueryOpt@CExtInputBarDlg@@IAEXXZ
	DD	0111H
	DD	00H
	DD	018acH
	DD	018acH
	DD	03aH
	DD	FLAT:?OnChkAccountavg@CExtInputBarDlg@@IAEXXZ
	DD	0111H
	DD	00H
	DD	018adH
	DD	018adH
	DD	03aH
	DD	FLAT:?OnChkAccountconc@CExtInputBarDlg@@IAEXXZ
	DD	05H
	DD	00H
	DD	00H
	DD	00H
	DD	01aH
	DD	FLAT:?OnSize@CExtInputBarDlg@@IAEXIHH@Z
	DD	0113H
	DD	00H
	DD	00H
	DD	00H
	DD	015H
	DD	FLAT:?OnTimer@CExtInputBarDlg@@IAEXI@Z
	DD	0c000H
	DD	00H
	DD	00H
	DD	00H
	DD	FLAT:?RMSG_CHANGE_CROSSLINE@@3IB
	DD	FLAT:?OnChangeCrossLine@CExtInputBarDlg@@IAEJIJ@Z
	DD	00H
	DD	00H
	DD	00H
	DD	00H
	DD	00H
	DD	00H
CONST	ENDS
;	COMDAT ??_7CExtInputBarDlg@@6B@
CONST	SEGMENT
??_7CExtInputBarDlg@@6B@ DD FLAT:??_R4CExtInputBarDlg@@6B@ ; CExtInputBarDlg::`vftable'
	DD	FLAT:?GetRuntimeClass@CDialog@@UBEPAUCRuntimeClass@@XZ
	DD	FLAT:??_ECExtInputBarDlg@@UAEPAXI@Z
	DD	FLAT:?Serialize@CObject@@UAEXAAVCArchive@@@Z
	DD	FLAT:?AssertValid@CObject@@UBEXXZ
	DD	FLAT:?Dump@CObject@@UBEXAAVCDumpContext@@@Z
	DD	FLAT:?OnCmdMsg@CDialog@@UAEHIHPAXPAUAFX_CMDHANDLERINFO@@@Z
	DD	FLAT:?OnFinalRelease@CWnd@@UAEXXZ
	DD	FLAT:?IsInvokeAllowed@CCmdTarget@@UAEHJ@Z
	DD	FLAT:?GetDispatchIID@CCmdTarget@@UAEHPAU_GUID@@@Z
	DD	FLAT:?GetTypeInfoCount@CCmdTarget@@UAEIXZ
	DD	FLAT:?GetTypeLibCache@CCmdTarget@@UAEPAVCTypeLibCache@@XZ
	DD	FLAT:?GetTypeLib@CCmdTarget@@UAEJKPAPAUITypeLib@@@Z
	DD	FLAT:?GetMessageMap@CExtInputBarDlg@@MBEPBUAFX_MSGMAP@@XZ
	DD	FLAT:?GetCommandMap@CCmdTarget@@MBEPBUAFX_OLECMDMAP@@XZ
	DD	FLAT:?GetDispatchMap@CCmdTarget@@MBEPBUAFX_DISPMAP@@XZ
	DD	FLAT:?GetConnectionMap@CCmdTarget@@MBEPBUAFX_CONNECTIONMAP@@XZ
	DD	FLAT:?GetInterfaceMap@CWnd@@MBEPBUAFX_INTERFACEMAP@@XZ
	DD	FLAT:?GetEventSinkMap@CCmdTarget@@MBEPBUAFX_EVENTSINKMAP@@XZ
	DD	FLAT:?OnCreateAggregates@CCmdTarget@@UAEHXZ
	DD	FLAT:?GetInterfaceHook@CCmdTarget@@UAEPAUIUnknown@@PBX@Z
	DD	FLAT:?GetExtraConnectionPoints@CCmdTarget@@MAEHPAVCPtrArray@@@Z
	DD	FLAT:?GetConnectionHook@CCmdTarget@@MAEPAUIConnectionPoint@@ABU_GUID@@@Z
	DD	FLAT:?PreSubclassWindow@CWnd@@UAEXXZ
	DD	FLAT:?Create@CWnd@@UAEHPBD0KABUtagRECT@@PAV1@IPAUCCreateContext@@@Z
	DD	FLAT:?CreateEx@CWnd@@UAEHKPBD0KABUtagRECT@@PAV1@IPAX@Z
	DD	FLAT:?CreateEx@CWnd@@UAEHKPBD0KHHHHPAUHWND__@@PAUHMENU__@@PAX@Z
	DD	FLAT:?DestroyWindow@CWnd@@UAEHXZ
	DD	FLAT:?PreCreateWindow@CWnd@@UAEHAAUtagCREATESTRUCTA@@@Z
	DD	FLAT:?CalcWindowRect@CWnd@@UAEXPAUtagRECT@@I@Z
	DD	FLAT:?GetMenu@CWnd@@UBEPAVCMenu@@XZ
	DD	FLAT:?SetMenu@CWnd@@UAEHPAVCMenu@@@Z
	DD	FLAT:?OnToolHitTest@CWnd@@UBEHVCPoint@@PAUtagTOOLINFOA@@@Z
	DD	FLAT:?GetScrollBarCtrl@CWnd@@UBEPAVCScrollBar@@H@Z
	DD	FLAT:?WinHelpA@CWnd@@UAEXKI@Z
	DD	FLAT:?HtmlHelpA@CWnd@@UAEXKI@Z
	DD	FLAT:?WinHelpInternal@CWnd@@UAEXKI@Z
	DD	FLAT:?ContinueModal@CWnd@@UAEHXZ
	DD	FLAT:?EndModalLoop@CWnd@@UAEXH@Z
	DD	FLAT:?OnDrawIconicThumbnailOrLivePreview@CWnd@@UAEXAAVCDC@@VCRect@@VCSize@@HAAH@Z
	DD	FLAT:?EnsureStdObj@CWnd@@UAEJXZ
	DD	FLAT:?get_accParent@CWnd@@UAEJPAPAUIDispatch@@@Z
	DD	FLAT:?get_accChildCount@CWnd@@UAEJPAJ@Z
	DD	FLAT:?get_accChild@CWnd@@UAEJUtagVARIANT@@PAPAUIDispatch@@@Z
	DD	FLAT:?get_accName@CWnd@@UAEJUtagVARIANT@@PAPA_W@Z
	DD	FLAT:?get_accValue@CWnd@@UAEJUtagVARIANT@@PAPA_W@Z
	DD	FLAT:?get_accDescription@CWnd@@UAEJUtagVARIANT@@PAPA_W@Z
	DD	FLAT:?get_accRole@CWnd@@UAEJUtagVARIANT@@PAU2@@Z
	DD	FLAT:?get_accState@CWnd@@UAEJUtagVARIANT@@PAU2@@Z
	DD	FLAT:?get_accHelp@CWnd@@UAEJUtagVARIANT@@PAPA_W@Z
	DD	FLAT:?get_accHelpTopic@CWnd@@UAEJPAPA_WUtagVARIANT@@PAJ@Z
	DD	FLAT:?get_accKeyboardShortcut@CWnd@@UAEJUtagVARIANT@@PAPA_W@Z
	DD	FLAT:?get_accFocus@CWnd@@UAEJPAUtagVARIANT@@@Z
	DD	FLAT:?get_accSelection@CWnd@@UAEJPAUtagVARIANT@@@Z
	DD	FLAT:?get_accDefaultAction@CWnd@@UAEJUtagVARIANT@@PAPA_W@Z
	DD	FLAT:?accSelect@CWnd@@UAEJJUtagVARIANT@@@Z
	DD	FLAT:?accLocation@CWnd@@UAEJPAJ000UtagVARIANT@@@Z
	DD	FLAT:?accNavigate@CWnd@@UAEJJUtagVARIANT@@PAU2@@Z
	DD	FLAT:?accHitTest@CWnd@@UAEJJJPAUtagVARIANT@@@Z
	DD	FLAT:?accDoDefaultAction@CWnd@@UAEJUtagVARIANT@@@Z
	DD	FLAT:?put_accName@CWnd@@UAEJUtagVARIANT@@PA_W@Z
	DD	FLAT:?put_accValue@CWnd@@UAEJUtagVARIANT@@PA_W@Z
	DD	FLAT:?SetProxy@CWnd@@UAEJPAUIAccessibleProxy@@@Z
	DD	FLAT:?CreateAccessibleProxy@CWnd@@UAEJIJPAJ@Z
	DD	FLAT:?OnCommand@CExtInputBarDlg@@MAEHIJ@Z
	DD	FLAT:?OnNotify@CWnd@@MAEHIJPAJ@Z
	DD	FLAT:?GetSuperWndProcAddr@CWnd@@MAEPAP6GJPAUHWND__@@IIJ@ZXZ
	DD	FLAT:?DoDataExchange@CExtInputBarDlg@@MAEXPAVCDataExchange@@@Z
	DD	FLAT:?BeginModalState@CWnd@@UAEXXZ
	DD	FLAT:?EndModalState@CWnd@@UAEXXZ
	DD	FLAT:?PreTranslateMessage@CExtInputBarDlg@@UAEHPAUtagMSG@@@Z
	DD	FLAT:?OnAmbientProperty@CWnd@@UAEHPAVCOleControlSite@@JPAUtagVARIANT@@@Z
	DD	FLAT:?WindowProc@CExtInputBarDlg@@MAEJIIJ@Z
	DD	FLAT:?OnWndMsg@CWnd@@MAEHIIJPAJ@Z
	DD	FLAT:?DefWindowProcA@CWnd@@MAEJIIJ@Z
	DD	FLAT:?PostNcDestroy@CWnd@@MAEXXZ
	DD	FLAT:?OnChildNotify@CWnd@@MAEHIIJPAJ@Z
	DD	FLAT:?OnTouchInputs@CWnd@@MAEHIPAUtagTOUCHINPUT@@@Z
	DD	FLAT:?OnTouchInput@CWnd@@MAEHVCPoint@@HHPAUtagTOUCHINPUT@@@Z
	DD	FLAT:?GetGestureStatus@CWnd@@MAEKVCPoint@@@Z
	DD	FLAT:?OnGestureZoom@CWnd@@MAEHVCPoint@@J@Z
	DD	FLAT:?OnGesturePan@CWnd@@MAEHVCPoint@@0@Z
	DD	FLAT:?OnGestureRotate@CWnd@@MAEHVCPoint@@N@Z
	DD	FLAT:?OnGestureTwoFingerTap@CWnd@@MAEHVCPoint@@@Z
	DD	FLAT:?OnGesturePressAndTap@CWnd@@MAEHVCPoint@@J@Z
	DD	FLAT:?ResizeDynamicLayout@CWnd@@MAEXXZ
	DD	FLAT:?CheckAutoCenter@CDialog@@UAEHXZ
	DD	FLAT:?IsFrameWnd@CWnd@@UBEHXZ
	DD	FLAT:?CreateControlContainer@CWnd@@MAEHPAPAVCOleControlContainer@@@Z
	DD	FLAT:?CreateControlSite@CWnd@@MAEHPAVCOleControlContainer@@PAPAVCOleControlSite@@IABU_GUID@@@Z
	DD	FLAT:?SetOccDialogInfo@CDialog@@MAEHPAU_AFX_OCC_DIALOG_INFO@@@Z
	DD	FLAT:?GetOccDialogInfo@CDialog@@MAEPAU_AFX_OCC_DIALOG_INFO@@XZ
	DD	FLAT:?Create@CRscDlg@@UAEHIPAVCWnd@@@Z
	DD	FLAT:?Create@CDialog@@UAEHPBDPAVCWnd@@@Z
	DD	FLAT:?CreateIndirect@CDialog@@UAEHPAXPAVCWnd@@@Z
	DD	FLAT:?CreateIndirect@CDialog@@UAEHPBUDLGTEMPLATE@@PAVCWnd@@PAX@Z
	DD	FLAT:?DoModal@CRscDlg@@UAEHXZ
	DD	FLAT:?OnInitDialog@CExtInputBarDlg@@MAEHXZ
	DD	FLAT:?OnSetFont@CDialog@@UAEXPAVCFont@@@Z
	DD	FLAT:?OnOK@CDialog@@MAEXXZ
	DD	FLAT:?OnCancel@CDialog@@MAEXXZ
	DD	FLAT:?PreInitDialog@CDialog@@MAEXXZ
CONST	ENDS
;	COMDAT ??_7?$CMap@IIV?$CStringT@DV?$StrTraitMFC_DLL@DV?$ChTraitsCRT@D@ATL@@@@@ATL@@PBD@@6B@
CONST	SEGMENT
??_7?$CMap@IIV?$CStringT@DV?$StrTraitMFC_DLL@DV?$ChTraitsCRT@D@ATL@@@@@ATL@@PBD@@6B@ DD FLAT:??_R4?$CMap@IIV?$CStringT@DV?$StrTraitMFC_DLL@DV?$ChTraitsCRT@D@ATL@@@@@ATL@@PBD@@6B@ ; CMap<unsigned int,unsigned int,ATL::CStringT<char,StrTraitMFC_DLL<char,ATL::ChTraitsCRT<char> > >,char const *>::`vftable'
	DD	FLAT:?GetRuntimeClass@CObject@@UBEPAUCRuntimeClass@@XZ
	DD	FLAT:??_E?$CMap@IIV?$CStringT@DV?$StrTraitMFC_DLL@DV?$ChTraitsCRT@D@ATL@@@@@ATL@@PBD@@UAEPAXI@Z
	DD	FLAT:?Serialize@?$CMap@IIV?$CStringT@DV?$StrTraitMFC_DLL@DV?$ChTraitsCRT@D@ATL@@@@@ATL@@PBD@@UAEXAAVCArchive@@@Z
	DD	FLAT:?AssertValid@CObject@@UBEXXZ
	DD	FLAT:?Dump@CObject@@UBEXAAVCDumpContext@@@Z
CONST	ENDS
;	COMDAT ??_R1A@?0A@EA@CDateTimeCtrl@@8
rdata$r	SEGMENT
??_R1A@?0A@EA@CDateTimeCtrl@@8 DD FLAT:??_R0?AVCDateTimeCtrl@@@8 ; CDateTimeCtrl::`RTTI Base Class Descriptor at (0,-1,0,64)'
	DD	03H
	DD	00H
	DD	0ffffffffH
	DD	00H
	DD	040H
	DD	FLAT:??_R3CDateTimeCtrl@@8
rdata$r	ENDS
;	COMDAT ??_R2CDateTimeCtrl@@8
rdata$r	SEGMENT
??_R2CDateTimeCtrl@@8 DD FLAT:??_R1A@?0A@EA@CDateTimeCtrl@@8 ; CDateTimeCtrl::`RTTI Base Class Array'
	DD	FLAT:??_R1A@?0A@EA@CWnd@@8
	DD	FLAT:??_R1A@?0A@EA@CCmdTarget@@8
	DD	FLAT:??_R1A@?0A@EA@CObject@@8
rdata$r	ENDS
;	COMDAT ??_R3CDateTimeCtrl@@8
rdata$r	SEGMENT
??_R3CDateTimeCtrl@@8 DD 00H				; CDateTimeCtrl::`RTTI Class Hierarchy Descriptor'
	DD	00H
	DD	04H
	DD	FLAT:??_R2CDateTimeCtrl@@8
rdata$r	ENDS
;	COMDAT ??_R0?AVCDateTimeCtrl@@@8
data$rs	SEGMENT
??_R0?AVCDateTimeCtrl@@@8 DD FLAT:??_7type_info@@6B@	; CDateTimeCtrl `RTTI Type Descriptor'
	DD	00H
	DB	'.?AVCDateTimeCtrl@@', 00H
data$rs	ENDS
;	COMDAT ??_R4CDateTimeCtrl@@6B@
rdata$r	SEGMENT
??_R4CDateTimeCtrl@@6B@ DD 00H				; CDateTimeCtrl::`RTTI Complete Object Locator'
	DD	00H
	DD	00H
	DD	FLAT:??_R0?AVCDateTimeCtrl@@@8
	DD	FLAT:??_R3CDateTimeCtrl@@8
rdata$r	ENDS
;	COMDAT ??_R2CDialog@@8
rdata$r	SEGMENT
??_R2CDialog@@8 DD FLAT:??_R1A@?0A@EA@CDialog@@8	; CDialog::`RTTI Base Class Array'
	DD	FLAT:??_R1A@?0A@EA@CWnd@@8
	DD	FLAT:??_R1A@?0A@EA@CCmdTarget@@8
	DD	FLAT:??_R1A@?0A@EA@CObject@@8
rdata$r	ENDS
;	COMDAT ??_R3CDialog@@8
rdata$r	SEGMENT
??_R3CDialog@@8 DD 00H					; CDialog::`RTTI Class Hierarchy Descriptor'
	DD	00H
	DD	04H
	DD	FLAT:??_R2CDialog@@8
rdata$r	ENDS
;	COMDAT ??_R0?AVCDialog@@@8
data$rs	SEGMENT
??_R0?AVCDialog@@@8 DD FLAT:??_7type_info@@6B@		; CDialog `RTTI Type Descriptor'
	DD	00H
	DB	'.?AVCDialog@@', 00H
data$rs	ENDS
;	COMDAT ??_R1A@?0A@EA@CDialog@@8
rdata$r	SEGMENT
??_R1A@?0A@EA@CDialog@@8 DD FLAT:??_R0?AVCDialog@@@8	; CDialog::`RTTI Base Class Descriptor at (0,-1,0,64)'
	DD	03H
	DD	00H
	DD	0ffffffffH
	DD	00H
	DD	040H
	DD	FLAT:??_R3CDialog@@8
rdata$r	ENDS
;	COMDAT ??_R1A@?0A@EA@CButton@@8
rdata$r	SEGMENT
??_R1A@?0A@EA@CButton@@8 DD FLAT:??_R0?AVCButton@@@8	; CButton::`RTTI Base Class Descriptor at (0,-1,0,64)'
	DD	03H
	DD	00H
	DD	0ffffffffH
	DD	00H
	DD	040H
	DD	FLAT:??_R3CButton@@8
rdata$r	ENDS
;	COMDAT ??_R2CButton@@8
rdata$r	SEGMENT
??_R2CButton@@8 DD FLAT:??_R1A@?0A@EA@CButton@@8	; CButton::`RTTI Base Class Array'
	DD	FLAT:??_R1A@?0A@EA@CWnd@@8
	DD	FLAT:??_R1A@?0A@EA@CCmdTarget@@8
	DD	FLAT:??_R1A@?0A@EA@CObject@@8
rdata$r	ENDS
;	COMDAT ??_R3CButton@@8
rdata$r	SEGMENT
??_R3CButton@@8 DD 00H					; CButton::`RTTI Class Hierarchy Descriptor'
	DD	00H
	DD	04H
	DD	FLAT:??_R2CButton@@8
rdata$r	ENDS
;	COMDAT ??_R0?AVCButton@@@8
data$rs	SEGMENT
??_R0?AVCButton@@@8 DD FLAT:??_7type_info@@6B@		; CButton `RTTI Type Descriptor'
	DD	00H
	DB	'.?AVCButton@@', 00H
data$rs	ENDS
;	COMDAT ??_R4CButton@@6B@
rdata$r	SEGMENT
??_R4CButton@@6B@ DD 00H				; CButton::`RTTI Complete Object Locator'
	DD	00H
	DD	00H
	DD	FLAT:??_R0?AVCButton@@@8
	DD	FLAT:??_R3CButton@@8
rdata$r	ENDS
;	COMDAT ??_R2CCmdTarget@@8
rdata$r	SEGMENT
??_R2CCmdTarget@@8 DD FLAT:??_R1A@?0A@EA@CCmdTarget@@8	; CCmdTarget::`RTTI Base Class Array'
	DD	FLAT:??_R1A@?0A@EA@CObject@@8
rdata$r	ENDS
;	COMDAT ??_R3CCmdTarget@@8
rdata$r	SEGMENT
??_R3CCmdTarget@@8 DD 00H				; CCmdTarget::`RTTI Class Hierarchy Descriptor'
	DD	00H
	DD	02H
	DD	FLAT:??_R2CCmdTarget@@8
rdata$r	ENDS
;	COMDAT ??_R0?AVCCmdTarget@@@8
data$rs	SEGMENT
??_R0?AVCCmdTarget@@@8 DD FLAT:??_7type_info@@6B@	; CCmdTarget `RTTI Type Descriptor'
	DD	00H
	DB	'.?AVCCmdTarget@@', 00H
data$rs	ENDS
;	COMDAT ??_R1A@?0A@EA@CCmdTarget@@8
rdata$r	SEGMENT
??_R1A@?0A@EA@CCmdTarget@@8 DD FLAT:??_R0?AVCCmdTarget@@@8 ; CCmdTarget::`RTTI Base Class Descriptor at (0,-1,0,64)'
	DD	01H
	DD	00H
	DD	0ffffffffH
	DD	00H
	DD	040H
	DD	FLAT:??_R3CCmdTarget@@8
rdata$r	ENDS
;	COMDAT ??_R2CWnd@@8
rdata$r	SEGMENT
??_R2CWnd@@8 DD	FLAT:??_R1A@?0A@EA@CWnd@@8		; CWnd::`RTTI Base Class Array'
	DD	FLAT:??_R1A@?0A@EA@CCmdTarget@@8
	DD	FLAT:??_R1A@?0A@EA@CObject@@8
rdata$r	ENDS
;	COMDAT ??_R3CWnd@@8
rdata$r	SEGMENT
??_R3CWnd@@8 DD	00H					; CWnd::`RTTI Class Hierarchy Descriptor'
	DD	00H
	DD	03H
	DD	FLAT:??_R2CWnd@@8
rdata$r	ENDS
;	COMDAT ??_R0?AVCWnd@@@8
data$rs	SEGMENT
??_R0?AVCWnd@@@8 DD FLAT:??_7type_info@@6B@		; CWnd `RTTI Type Descriptor'
	DD	00H
	DB	'.?AVCWnd@@', 00H
data$rs	ENDS
;	COMDAT ??_R1A@?0A@EA@CWnd@@8
rdata$r	SEGMENT
??_R1A@?0A@EA@CWnd@@8 DD FLAT:??_R0?AVCWnd@@@8		; CWnd::`RTTI Base Class Descriptor at (0,-1,0,64)'
	DD	02H
	DD	00H
	DD	0ffffffffH
	DD	00H
	DD	040H
	DD	FLAT:??_R3CWnd@@8
rdata$r	ENDS
;	COMDAT ??_R1A@?0A@EA@CStatic@@8
rdata$r	SEGMENT
??_R1A@?0A@EA@CStatic@@8 DD FLAT:??_R0?AVCStatic@@@8	; CStatic::`RTTI Base Class Descriptor at (0,-1,0,64)'
	DD	03H
	DD	00H
	DD	0ffffffffH
	DD	00H
	DD	040H
	DD	FLAT:??_R3CStatic@@8
rdata$r	ENDS
;	COMDAT ??_R2CStatic@@8
rdata$r	SEGMENT
??_R2CStatic@@8 DD FLAT:??_R1A@?0A@EA@CStatic@@8	; CStatic::`RTTI Base Class Array'
	DD	FLAT:??_R1A@?0A@EA@CWnd@@8
	DD	FLAT:??_R1A@?0A@EA@CCmdTarget@@8
	DD	FLAT:??_R1A@?0A@EA@CObject@@8
rdata$r	ENDS
;	COMDAT ??_R3CStatic@@8
rdata$r	SEGMENT
??_R3CStatic@@8 DD 00H					; CStatic::`RTTI Class Hierarchy Descriptor'
	DD	00H
	DD	04H
	DD	FLAT:??_R2CStatic@@8
rdata$r	ENDS
;	COMDAT ??_R0?AVCStatic@@@8
data$rs	SEGMENT
??_R0?AVCStatic@@@8 DD FLAT:??_7type_info@@6B@		; CStatic `RTTI Type Descriptor'
	DD	00H
	DB	'.?AVCStatic@@', 00H
data$rs	ENDS
;	COMDAT ??_R4CStatic@@6B@
rdata$r	SEGMENT
??_R4CStatic@@6B@ DD 00H				; CStatic::`RTTI Complete Object Locator'
	DD	00H
	DD	00H
	DD	FLAT:??_R0?AVCStatic@@@8
	DD	FLAT:??_R3CStatic@@8
rdata$r	ENDS
;	COMDAT ??_R1A@?0A@EA@CMenu@@8
rdata$r	SEGMENT
??_R1A@?0A@EA@CMenu@@8 DD FLAT:??_R0?AVCMenu@@@8	; CMenu::`RTTI Base Class Descriptor at (0,-1,0,64)'
	DD	01H
	DD	00H
	DD	0ffffffffH
	DD	00H
	DD	040H
	DD	FLAT:??_R3CMenu@@8
rdata$r	ENDS
;	COMDAT ??_R2CMenu@@8
rdata$r	SEGMENT
??_R2CMenu@@8 DD FLAT:??_R1A@?0A@EA@CMenu@@8		; CMenu::`RTTI Base Class Array'
	DD	FLAT:??_R1A@?0A@EA@CObject@@8
rdata$r	ENDS
;	COMDAT ??_R3CMenu@@8
rdata$r	SEGMENT
??_R3CMenu@@8 DD 00H					; CMenu::`RTTI Class Hierarchy Descriptor'
	DD	00H
	DD	02H
	DD	FLAT:??_R2CMenu@@8
rdata$r	ENDS
;	COMDAT ??_R0?AVCMenu@@@8
data$rs	SEGMENT
??_R0?AVCMenu@@@8 DD FLAT:??_7type_info@@6B@		; CMenu `RTTI Type Descriptor'
	DD	00H
	DB	'.?AVCMenu@@', 00H
data$rs	ENDS
;	COMDAT ??_R4CMenu@@6B@
rdata$r	SEGMENT
??_R4CMenu@@6B@ DD 00H					; CMenu::`RTTI Complete Object Locator'
	DD	00H
	DD	00H
	DD	FLAT:??_R0?AVCMenu@@@8
	DD	FLAT:??_R3CMenu@@8
rdata$r	ENDS
;	COMDAT ??_R1A@?0A@EA@CBitmap@@8
rdata$r	SEGMENT
??_R1A@?0A@EA@CBitmap@@8 DD FLAT:??_R0?AVCBitmap@@@8	; CBitmap::`RTTI Base Class Descriptor at (0,-1,0,64)'
	DD	02H
	DD	00H
	DD	0ffffffffH
	DD	00H
	DD	040H
	DD	FLAT:??_R3CBitmap@@8
rdata$r	ENDS
;	COMDAT ??_R2CBitmap@@8
rdata$r	SEGMENT
??_R2CBitmap@@8 DD FLAT:??_R1A@?0A@EA@CBitmap@@8	; CBitmap::`RTTI Base Class Array'
	DD	FLAT:??_R1A@?0A@EA@CGdiObject@@8
	DD	FLAT:??_R1A@?0A@EA@CObject@@8
rdata$r	ENDS
;	COMDAT ??_R3CBitmap@@8
rdata$r	SEGMENT
??_R3CBitmap@@8 DD 00H					; CBitmap::`RTTI Class Hierarchy Descriptor'
	DD	00H
	DD	03H
	DD	FLAT:??_R2CBitmap@@8
rdata$r	ENDS
;	COMDAT ??_R0?AVCBitmap@@@8
data$rs	SEGMENT
??_R0?AVCBitmap@@@8 DD FLAT:??_7type_info@@6B@		; CBitmap `RTTI Type Descriptor'
	DD	00H
	DB	'.?AVCBitmap@@', 00H
data$rs	ENDS
;	COMDAT ??_R4CBitmap@@6B@
rdata$r	SEGMENT
??_R4CBitmap@@6B@ DD 00H				; CBitmap::`RTTI Complete Object Locator'
	DD	00H
	DD	00H
	DD	FLAT:??_R0?AVCBitmap@@@8
	DD	FLAT:??_R3CBitmap@@8
rdata$r	ENDS
;	COMDAT ??_R1A@?0A@EA@CBrush@@8
rdata$r	SEGMENT
??_R1A@?0A@EA@CBrush@@8 DD FLAT:??_R0?AVCBrush@@@8	; CBrush::`RTTI Base Class Descriptor at (0,-1,0,64)'
	DD	02H
	DD	00H
	DD	0ffffffffH
	DD	00H
	DD	040H
	DD	FLAT:??_R3CBrush@@8
rdata$r	ENDS
;	COMDAT ??_R2CBrush@@8
rdata$r	SEGMENT
??_R2CBrush@@8 DD FLAT:??_R1A@?0A@EA@CBrush@@8		; CBrush::`RTTI Base Class Array'
	DD	FLAT:??_R1A@?0A@EA@CGdiObject@@8
	DD	FLAT:??_R1A@?0A@EA@CObject@@8
rdata$r	ENDS
;	COMDAT ??_R3CBrush@@8
rdata$r	SEGMENT
??_R3CBrush@@8 DD 00H					; CBrush::`RTTI Class Hierarchy Descriptor'
	DD	00H
	DD	03H
	DD	FLAT:??_R2CBrush@@8
rdata$r	ENDS
;	COMDAT ??_R0?AVCBrush@@@8
data$rs	SEGMENT
??_R0?AVCBrush@@@8 DD FLAT:??_7type_info@@6B@		; CBrush `RTTI Type Descriptor'
	DD	00H
	DB	'.?AVCBrush@@', 00H
data$rs	ENDS
;	COMDAT ??_R4CBrush@@6B@
rdata$r	SEGMENT
??_R4CBrush@@6B@ DD 00H					; CBrush::`RTTI Complete Object Locator'
	DD	00H
	DD	00H
	DD	FLAT:??_R0?AVCBrush@@@8
	DD	FLAT:??_R3CBrush@@8
rdata$r	ENDS
;	COMDAT ??_R1A@?0A@EA@CGdiObject@@8
rdata$r	SEGMENT
??_R1A@?0A@EA@CGdiObject@@8 DD FLAT:??_R0?AVCGdiObject@@@8 ; CGdiObject::`RTTI Base Class Descriptor at (0,-1,0,64)'
	DD	01H
	DD	00H
	DD	0ffffffffH
	DD	00H
	DD	040H
	DD	FLAT:??_R3CGdiObject@@8
rdata$r	ENDS
;	COMDAT ??_R2CGdiObject@@8
rdata$r	SEGMENT
??_R2CGdiObject@@8 DD FLAT:??_R1A@?0A@EA@CGdiObject@@8	; CGdiObject::`RTTI Base Class Array'
	DD	FLAT:??_R1A@?0A@EA@CObject@@8
rdata$r	ENDS
;	COMDAT ??_R3CGdiObject@@8
rdata$r	SEGMENT
??_R3CGdiObject@@8 DD 00H				; CGdiObject::`RTTI Class Hierarchy Descriptor'
	DD	00H
	DD	02H
	DD	FLAT:??_R2CGdiObject@@8
rdata$r	ENDS
;	COMDAT ??_R0?AVCGdiObject@@@8
data$rs	SEGMENT
??_R0?AVCGdiObject@@@8 DD FLAT:??_7type_info@@6B@	; CGdiObject `RTTI Type Descriptor'
	DD	00H
	DB	'.?AVCGdiObject@@', 00H
data$rs	ENDS
;	COMDAT ??_R4CGdiObject@@6B@
rdata$r	SEGMENT
??_R4CGdiObject@@6B@ DD 00H				; CGdiObject::`RTTI Complete Object Locator'
	DD	00H
	DD	00H
	DD	FLAT:??_R0?AVCGdiObject@@@8
	DD	FLAT:??_R3CGdiObject@@8
rdata$r	ENDS
;	COMDAT ??_R1A@?0A@EA@CObject@@8
rdata$r	SEGMENT
??_R1A@?0A@EA@CObject@@8 DD FLAT:??_R0?AVCObject@@@8	; CObject::`RTTI Base Class Descriptor at (0,-1,0,64)'
	DD	00H
	DD	00H
	DD	0ffffffffH
	DD	00H
	DD	040H
	DD	FLAT:??_R3CObject@@8
rdata$r	ENDS
;	COMDAT ??_R2CObject@@8
rdata$r	SEGMENT
??_R2CObject@@8 DD FLAT:??_R1A@?0A@EA@CObject@@8	; CObject::`RTTI Base Class Array'
rdata$r	ENDS
;	COMDAT ??_R3CObject@@8
rdata$r	SEGMENT
??_R3CObject@@8 DD 00H					; CObject::`RTTI Class Hierarchy Descriptor'
	DD	00H
	DD	01H
	DD	FLAT:??_R2CObject@@8
rdata$r	ENDS
;	COMDAT ??_R0?AVCObject@@@8
data$rs	SEGMENT
??_R0?AVCObject@@@8 DD FLAT:??_7type_info@@6B@		; CObject `RTTI Type Descriptor'
	DD	00H
	DB	'.?AVCObject@@', 00H
data$rs	ENDS
;	COMDAT ??_C@_01GBGANLPD@0@
CONST	SEGMENT
??_C@_01GBGANLPD@0@ DB '0', 00H				; `string'
CONST	ENDS
;	COMDAT ??_C@_01KICIPPFI@?2@
CONST	SEGMENT
??_C@_01KICIPPFI@?2@ DB '\', 00H			; `string'
CONST	ENDS
;	COMDAT ??_C@_02EMFKHFLK@?$CFX@
CONST	SEGMENT
??_C@_02EMFKHFLK@?$CFX@ DB '%X', 00H			; `string'
CONST	ENDS
;	COMDAT ??_C@_06NDLAHCHE@?$CFs?$CF08X@
CONST	SEGMENT
??_C@_06NDLAHCHE@?$CFs?$CF08X@ DB '%s%08X', 00H		; `string'
CONST	ENDS
;	COMDAT ??_C@_0P@IDMAJEGN@HANAROPCTRMAIN@
CONST	SEGMENT
??_C@_0P@IDMAJEGN@HANAROPCTRMAIN@ DB 'HANAROPCTRMAIN', 00H ; `string'
CONST	ENDS
;	COMDAT ??_C@_0M@CBBNGGHM@PcTrMng?4dll@
CONST	SEGMENT
??_C@_0M@CBBNGGHM@PcTrMng?4dll@ DB 'PcTrMng.dll', 00H	; `string'
CONST	ENDS
;	COMDAT ??_C@_01HIHLOKLC@1@
CONST	SEGMENT
??_C@_01HIHLOKLC@1@ DB '1', 00H				; `string'
CONST	ENDS
;	COMDAT ??_7CDateTimeCtrl@@6B@
CONST	SEGMENT
??_7CDateTimeCtrl@@6B@ DD FLAT:??_R4CDateTimeCtrl@@6B@	; CDateTimeCtrl::`vftable'
	DD	FLAT:?GetRuntimeClass@CDateTimeCtrl@@UBEPAUCRuntimeClass@@XZ
	DD	FLAT:??_ECDateTimeCtrl@@UAEPAXI@Z
	DD	FLAT:?Serialize@CObject@@UAEXAAVCArchive@@@Z
	DD	FLAT:?AssertValid@CObject@@UBEXXZ
	DD	FLAT:?Dump@CObject@@UBEXAAVCDumpContext@@@Z
	DD	FLAT:?OnCmdMsg@CCmdTarget@@UAEHIHPAXPAUAFX_CMDHANDLERINFO@@@Z
	DD	FLAT:?OnFinalRelease@CWnd@@UAEXXZ
	DD	FLAT:?IsInvokeAllowed@CCmdTarget@@UAEHJ@Z
	DD	FLAT:?GetDispatchIID@CCmdTarget@@UAEHPAU_GUID@@@Z
	DD	FLAT:?GetTypeInfoCount@CCmdTarget@@UAEIXZ
	DD	FLAT:?GetTypeLibCache@CCmdTarget@@UAEPAVCTypeLibCache@@XZ
	DD	FLAT:?GetTypeLib@CCmdTarget@@UAEJKPAPAUITypeLib@@@Z
	DD	FLAT:?GetMessageMap@CWnd@@MBEPBUAFX_MSGMAP@@XZ
	DD	FLAT:?GetCommandMap@CCmdTarget@@MBEPBUAFX_OLECMDMAP@@XZ
	DD	FLAT:?GetDispatchMap@CCmdTarget@@MBEPBUAFX_DISPMAP@@XZ
	DD	FLAT:?GetConnectionMap@CCmdTarget@@MBEPBUAFX_CONNECTIONMAP@@XZ
	DD	FLAT:?GetInterfaceMap@CWnd@@MBEPBUAFX_INTERFACEMAP@@XZ
	DD	FLAT:?GetEventSinkMap@CCmdTarget@@MBEPBUAFX_EVENTSINKMAP@@XZ
	DD	FLAT:?OnCreateAggregates@CCmdTarget@@UAEHXZ
	DD	FLAT:?GetInterfaceHook@CCmdTarget@@UAEPAUIUnknown@@PBX@Z
	DD	FLAT:?GetExtraConnectionPoints@CCmdTarget@@MAEHPAVCPtrArray@@@Z
	DD	FLAT:?GetConnectionHook@CCmdTarget@@MAEPAUIConnectionPoint@@ABU_GUID@@@Z
	DD	FLAT:?PreSubclassWindow@CWnd@@UAEXXZ
	DD	FLAT:?Create@CWnd@@UAEHPBD0KABUtagRECT@@PAV1@IPAUCCreateContext@@@Z
	DD	FLAT:?CreateEx@CWnd@@UAEHKPBD0KABUtagRECT@@PAV1@IPAX@Z
	DD	FLAT:?CreateEx@CWnd@@UAEHKPBD0KHHHHPAUHWND__@@PAUHMENU__@@PAX@Z
	DD	FLAT:?DestroyWindow@CWnd@@UAEHXZ
	DD	FLAT:?PreCreateWindow@CWnd@@UAEHAAUtagCREATESTRUCTA@@@Z
	DD	FLAT:?CalcWindowRect@CWnd@@UAEXPAUtagRECT@@I@Z
	DD	FLAT:?GetMenu@CWnd@@UBEPAVCMenu@@XZ
	DD	FLAT:?SetMenu@CWnd@@UAEHPAVCMenu@@@Z
	DD	FLAT:?OnToolHitTest@CWnd@@UBEHVCPoint@@PAUtagTOOLINFOA@@@Z
	DD	FLAT:?GetScrollBarCtrl@CWnd@@UBEPAVCScrollBar@@H@Z
	DD	FLAT:?WinHelpA@CWnd@@UAEXKI@Z
	DD	FLAT:?HtmlHelpA@CWnd@@UAEXKI@Z
	DD	FLAT:?WinHelpInternal@CWnd@@UAEXKI@Z
	DD	FLAT:?ContinueModal@CWnd@@UAEHXZ
	DD	FLAT:?EndModalLoop@CWnd@@UAEXH@Z
	DD	FLAT:?OnDrawIconicThumbnailOrLivePreview@CWnd@@UAEXAAVCDC@@VCRect@@VCSize@@HAAH@Z
	DD	FLAT:?EnsureStdObj@CWnd@@UAEJXZ
	DD	FLAT:?get_accParent@CWnd@@UAEJPAPAUIDispatch@@@Z
	DD	FLAT:?get_accChildCount@CWnd@@UAEJPAJ@Z
	DD	FLAT:?get_accChild@CWnd@@UAEJUtagVARIANT@@PAPAUIDispatch@@@Z
	DD	FLAT:?get_accName@CWnd@@UAEJUtagVARIANT@@PAPA_W@Z
	DD	FLAT:?get_accValue@CWnd@@UAEJUtagVARIANT@@PAPA_W@Z
	DD	FLAT:?get_accDescription@CWnd@@UAEJUtagVARIANT@@PAPA_W@Z
	DD	FLAT:?get_accRole@CWnd@@UAEJUtagVARIANT@@PAU2@@Z
	DD	FLAT:?get_accState@CWnd@@UAEJUtagVARIANT@@PAU2@@Z
	DD	FLAT:?get_accHelp@CWnd@@UAEJUtagVARIANT@@PAPA_W@Z
	DD	FLAT:?get_accHelpTopic@CWnd@@UAEJPAPA_WUtagVARIANT@@PAJ@Z
	DD	FLAT:?get_accKeyboardShortcut@CWnd@@UAEJUtagVARIANT@@PAPA_W@Z
	DD	FLAT:?get_accFocus@CWnd@@UAEJPAUtagVARIANT@@@Z
	DD	FLAT:?get_accSelection@CWnd@@UAEJPAUtagVARIANT@@@Z
	DD	FLAT:?get_accDefaultAction@CWnd@@UAEJUtagVARIANT@@PAPA_W@Z
	DD	FLAT:?accSelect@CWnd@@UAEJJUtagVARIANT@@@Z
	DD	FLAT:?accLocation@CWnd@@UAEJPAJ000UtagVARIANT@@@Z
	DD	FLAT:?accNavigate@CWnd@@UAEJJUtagVARIANT@@PAU2@@Z
	DD	FLAT:?accHitTest@CWnd@@UAEJJJPAUtagVARIANT@@@Z
	DD	FLAT:?accDoDefaultAction@CWnd@@UAEJUtagVARIANT@@@Z
	DD	FLAT:?put_accName@CWnd@@UAEJUtagVARIANT@@PA_W@Z
	DD	FLAT:?put_accValue@CWnd@@UAEJUtagVARIANT@@PA_W@Z
	DD	FLAT:?SetProxy@CWnd@@UAEJPAUIAccessibleProxy@@@Z
	DD	FLAT:?CreateAccessibleProxy@CWnd@@UAEJIJPAJ@Z
	DD	FLAT:?OnCommand@CWnd@@MAEHIJ@Z
	DD	FLAT:?OnNotify@CWnd@@MAEHIJPAJ@Z
	DD	FLAT:?GetSuperWndProcAddr@CWnd@@MAEPAP6GJPAUHWND__@@IIJ@ZXZ
	DD	FLAT:?DoDataExchange@CWnd@@MAEXPAVCDataExchange@@@Z
	DD	FLAT:?BeginModalState@CWnd@@UAEXXZ
	DD	FLAT:?EndModalState@CWnd@@UAEXXZ
	DD	FLAT:?PreTranslateMessage@CWnd@@UAEHPAUtagMSG@@@Z
	DD	FLAT:?OnAmbientProperty@CWnd@@UAEHPAVCOleControlSite@@JPAUtagVARIANT@@@Z
	DD	FLAT:?WindowProc@CWnd@@MAEJIIJ@Z
	DD	FLAT:?OnWndMsg@CWnd@@MAEHIIJPAJ@Z
	DD	FLAT:?DefWindowProcA@CWnd@@MAEJIIJ@Z
	DD	FLAT:?PostNcDestroy@CWnd@@MAEXXZ
	DD	FLAT:?OnChildNotify@CWnd@@MAEHIIJPAJ@Z
	DD	FLAT:?OnTouchInputs@CWnd@@MAEHIPAUtagTOUCHINPUT@@@Z
	DD	FLAT:?OnTouchInput@CWnd@@MAEHVCPoint@@HHPAUtagTOUCHINPUT@@@Z
	DD	FLAT:?GetGestureStatus@CWnd@@MAEKVCPoint@@@Z
	DD	FLAT:?OnGestureZoom@CWnd@@MAEHVCPoint@@J@Z
	DD	FLAT:?OnGesturePan@CWnd@@MAEHVCPoint@@0@Z
	DD	FLAT:?OnGestureRotate@CWnd@@MAEHVCPoint@@N@Z
	DD	FLAT:?OnGestureTwoFingerTap@CWnd@@MAEHVCPoint@@@Z
	DD	FLAT:?OnGesturePressAndTap@CWnd@@MAEHVCPoint@@J@Z
	DD	FLAT:?ResizeDynamicLayout@CWnd@@MAEXXZ
	DD	FLAT:?CheckAutoCenter@CWnd@@UAEHXZ
	DD	FLAT:?IsFrameWnd@CWnd@@UBEHXZ
	DD	FLAT:?CreateControlContainer@CWnd@@MAEHPAPAVCOleControlContainer@@@Z
	DD	FLAT:?CreateControlSite@CWnd@@MAEHPAVCOleControlContainer@@PAPAVCOleControlSite@@IABU_GUID@@@Z
	DD	FLAT:?SetOccDialogInfo@CWnd@@MAEHPAU_AFX_OCC_DIALOG_INFO@@@Z
	DD	FLAT:?GetOccDialogInfo@CWnd@@MAEPAU_AFX_OCC_DIALOG_INFO@@XZ
	DD	FLAT:?Create@CDateTimeCtrl@@UAEHKABUtagRECT@@PAVCWnd@@I@Z
CONST	ENDS
;	COMDAT ??_C@_0N@OMEMOKLE@?$CFTs?5?$CI?$CFTs?3?$CFd?$CJ@
CONST	SEGMENT
??_C@_0N@OMEMOKLE@?$CFTs?5?$CI?$CFTs?3?$CFd?$CJ@ DB '%Ts (%Ts:%d)', 00H ; `string'
CONST	ENDS
;	COMDAT ??_C@_0BB@HBOOMJBF@?$CFTs?5?$CI?$CFTs?3?$CFd?$CJ?6?$CFTs@
CONST	SEGMENT
??_C@_0BB@HBOOMJBF@?$CFTs?5?$CI?$CFTs?3?$CFd?$CJ?6?$CFTs@ DB '%Ts (%Ts:%d'
	DB	')', 0aH, '%Ts', 00H				; `string'
CONST	ENDS
;	COMDAT ??_C@_0BP@OIEOKIDM@Exception?5thrown?5in?5destructor@
CONST	SEGMENT
??_C@_0BP@OIEOKIDM@Exception?5thrown?5in?5destructor@ DB 'Exception throw'
	DB	'n in destructor', 00H			; `string'
CONST	ENDS
;	COMDAT ??_C@_0HD@JJCHHHNK@C?3?2Program?5Files?5?$CIx86?$CJ?2Microsof@
CONST	SEGMENT
??_C@_0HD@JJCHHHNK@C?3?2Program?5Files?5?$CIx86?$CJ?2Microsof@ DB 'C:\Pro'
	DB	'gram Files (x86)\Microsoft Visual Studio\2019\Community\VC\To'
	DB	'ols\MSVC\14.29.30133\atlmfc\include\afxwin1.inl', 00H ; `string'
CONST	ENDS
;	COMDAT ??_7CButton@@6B@
CONST	SEGMENT
??_7CButton@@6B@ DD FLAT:??_R4CButton@@6B@		; CButton::`vftable'
	DD	FLAT:?GetRuntimeClass@CButton@@UBEPAUCRuntimeClass@@XZ
	DD	FLAT:??_ECButton@@UAEPAXI@Z
	DD	FLAT:?Serialize@CObject@@UAEXAAVCArchive@@@Z
	DD	FLAT:?AssertValid@CObject@@UBEXXZ
	DD	FLAT:?Dump@CObject@@UBEXAAVCDumpContext@@@Z
	DD	FLAT:?OnCmdMsg@CCmdTarget@@UAEHIHPAXPAUAFX_CMDHANDLERINFO@@@Z
	DD	FLAT:?OnFinalRelease@CWnd@@UAEXXZ
	DD	FLAT:?IsInvokeAllowed@CCmdTarget@@UAEHJ@Z
	DD	FLAT:?GetDispatchIID@CCmdTarget@@UAEHPAU_GUID@@@Z
	DD	FLAT:?GetTypeInfoCount@CCmdTarget@@UAEIXZ
	DD	FLAT:?GetTypeLibCache@CCmdTarget@@UAEPAVCTypeLibCache@@XZ
	DD	FLAT:?GetTypeLib@CCmdTarget@@UAEJKPAPAUITypeLib@@@Z
	DD	FLAT:?GetMessageMap@CWnd@@MBEPBUAFX_MSGMAP@@XZ
	DD	FLAT:?GetCommandMap@CCmdTarget@@MBEPBUAFX_OLECMDMAP@@XZ
	DD	FLAT:?GetDispatchMap@CCmdTarget@@MBEPBUAFX_DISPMAP@@XZ
	DD	FLAT:?GetConnectionMap@CCmdTarget@@MBEPBUAFX_CONNECTIONMAP@@XZ
	DD	FLAT:?GetInterfaceMap@CWnd@@MBEPBUAFX_INTERFACEMAP@@XZ
	DD	FLAT:?GetEventSinkMap@CCmdTarget@@MBEPBUAFX_EVENTSINKMAP@@XZ
	DD	FLAT:?OnCreateAggregates@CCmdTarget@@UAEHXZ
	DD	FLAT:?GetInterfaceHook@CCmdTarget@@UAEPAUIUnknown@@PBX@Z
	DD	FLAT:?GetExtraConnectionPoints@CCmdTarget@@MAEHPAVCPtrArray@@@Z
	DD	FLAT:?GetConnectionHook@CCmdTarget@@MAEPAUIConnectionPoint@@ABU_GUID@@@Z
	DD	FLAT:?PreSubclassWindow@CWnd@@UAEXXZ
	DD	FLAT:?Create@CWnd@@UAEHPBD0KABUtagRECT@@PAV1@IPAUCCreateContext@@@Z
	DD	FLAT:?CreateEx@CWnd@@UAEHKPBD0KABUtagRECT@@PAV1@IPAX@Z
	DD	FLAT:?CreateEx@CWnd@@UAEHKPBD0KHHHHPAUHWND__@@PAUHMENU__@@PAX@Z
	DD	FLAT:?DestroyWindow@CWnd@@UAEHXZ
	DD	FLAT:?PreCreateWindow@CWnd@@UAEHAAUtagCREATESTRUCTA@@@Z
	DD	FLAT:?CalcWindowRect@CWnd@@UAEXPAUtagRECT@@I@Z
	DD	FLAT:?GetMenu@CWnd@@UBEPAVCMenu@@XZ
	DD	FLAT:?SetMenu@CWnd@@UAEHPAVCMenu@@@Z
	DD	FLAT:?OnToolHitTest@CWnd@@UBEHVCPoint@@PAUtagTOOLINFOA@@@Z
	DD	FLAT:?GetScrollBarCtrl@CWnd@@UBEPAVCScrollBar@@H@Z
	DD	FLAT:?WinHelpA@CWnd@@UAEXKI@Z
	DD	FLAT:?HtmlHelpA@CWnd@@UAEXKI@Z
	DD	FLAT:?WinHelpInternal@CWnd@@UAEXKI@Z
	DD	FLAT:?ContinueModal@CWnd@@UAEHXZ
	DD	FLAT:?EndModalLoop@CWnd@@UAEXH@Z
	DD	FLAT:?OnDrawIconicThumbnailOrLivePreview@CWnd@@UAEXAAVCDC@@VCRect@@VCSize@@HAAH@Z
	DD	FLAT:?EnsureStdObj@CWnd@@UAEJXZ
	DD	FLAT:?get_accParent@CWnd@@UAEJPAPAUIDispatch@@@Z
	DD	FLAT:?get_accChildCount@CWnd@@UAEJPAJ@Z
	DD	FLAT:?get_accChild@CWnd@@UAEJUtagVARIANT@@PAPAUIDispatch@@@Z
	DD	FLAT:?get_accName@CWnd@@UAEJUtagVARIANT@@PAPA_W@Z
	DD	FLAT:?get_accValue@CWnd@@UAEJUtagVARIANT@@PAPA_W@Z
	DD	FLAT:?get_accDescription@CWnd@@UAEJUtagVARIANT@@PAPA_W@Z
	DD	FLAT:?get_accRole@CWnd@@UAEJUtagVARIANT@@PAU2@@Z
	DD	FLAT:?get_accState@CWnd@@UAEJUtagVARIANT@@PAU2@@Z
	DD	FLAT:?get_accHelp@CWnd@@UAEJUtagVARIANT@@PAPA_W@Z
	DD	FLAT:?get_accHelpTopic@CWnd@@UAEJPAPA_WUtagVARIANT@@PAJ@Z
	DD	FLAT:?get_accKeyboardShortcut@CWnd@@UAEJUtagVARIANT@@PAPA_W@Z
	DD	FLAT:?get_accFocus@CWnd@@UAEJPAUtagVARIANT@@@Z
	DD	FLAT:?get_accSelection@CWnd@@UAEJPAUtagVARIANT@@@Z
	DD	FLAT:?get_accDefaultAction@CWnd@@UAEJUtagVARIANT@@PAPA_W@Z
	DD	FLAT:?accSelect@CWnd@@UAEJJUtagVARIANT@@@Z
	DD	FLAT:?accLocation@CWnd@@UAEJPAJ000UtagVARIANT@@@Z
	DD	FLAT:?accNavigate@CWnd@@UAEJJUtagVARIANT@@PAU2@@Z
	DD	FLAT:?accHitTest@CWnd@@UAEJJJPAUtagVARIANT@@@Z
	DD	FLAT:?accDoDefaultAction@CWnd@@UAEJUtagVARIANT@@@Z
	DD	FLAT:?put_accName@CWnd@@UAEJUtagVARIANT@@PA_W@Z
	DD	FLAT:?put_accValue@CWnd@@UAEJUtagVARIANT@@PA_W@Z
	DD	FLAT:?SetProxy@CWnd@@UAEJPAUIAccessibleProxy@@@Z
	DD	FLAT:?CreateAccessibleProxy@CWnd@@UAEJIJPAJ@Z
	DD	FLAT:?OnCommand@CWnd@@MAEHIJ@Z
	DD	FLAT:?OnNotify@CWnd@@MAEHIJPAJ@Z
	DD	FLAT:?GetSuperWndProcAddr@CWnd@@MAEPAP6GJPAUHWND__@@IIJ@ZXZ
	DD	FLAT:?DoDataExchange@CWnd@@MAEXPAVCDataExchange@@@Z
	DD	FLAT:?BeginModalState@CWnd@@UAEXXZ
	DD	FLAT:?EndModalState@CWnd@@UAEXXZ
	DD	FLAT:?PreTranslateMessage@CWnd@@UAEHPAUtagMSG@@@Z
	DD	FLAT:?OnAmbientProperty@CWnd@@UAEHPAVCOleControlSite@@JPAUtagVARIANT@@@Z
	DD	FLAT:?WindowProc@CWnd@@MAEJIIJ@Z
	DD	FLAT:?OnWndMsg@CWnd@@MAEHIIJPAJ@Z
	DD	FLAT:?DefWindowProcA@CWnd@@MAEJIIJ@Z
	DD	FLAT:?PostNcDestroy@CWnd@@MAEXXZ
	DD	FLAT:?OnChildNotify@CButton@@MAEHIIJPAJ@Z
	DD	FLAT:?OnTouchInputs@CWnd@@MAEHIPAUtagTOUCHINPUT@@@Z
	DD	FLAT:?OnTouchInput@CWnd@@MAEHVCPoint@@HHPAUtagTOUCHINPUT@@@Z
	DD	FLAT:?GetGestureStatus@CWnd@@MAEKVCPoint@@@Z
	DD	FLAT:?OnGestureZoom@CWnd@@MAEHVCPoint@@J@Z
	DD	FLAT:?OnGesturePan@CWnd@@MAEHVCPoint@@0@Z
	DD	FLAT:?OnGestureRotate@CWnd@@MAEHVCPoint@@N@Z
	DD	FLAT:?OnGestureTwoFingerTap@CWnd@@MAEHVCPoint@@@Z
	DD	FLAT:?OnGesturePressAndTap@CWnd@@MAEHVCPoint@@J@Z
	DD	FLAT:?ResizeDynamicLayout@CWnd@@MAEXXZ
	DD	FLAT:?CheckAutoCenter@CWnd@@UAEHXZ
	DD	FLAT:?IsFrameWnd@CWnd@@UBEHXZ
	DD	FLAT:?CreateControlContainer@CWnd@@MAEHPAPAVCOleControlContainer@@@Z
	DD	FLAT:?CreateControlSite@CWnd@@MAEHPAVCOleControlContainer@@PAPAVCOleControlSite@@IABU_GUID@@@Z
	DD	FLAT:?SetOccDialogInfo@CWnd@@MAEHPAU_AFX_OCC_DIALOG_INFO@@@Z
	DD	FLAT:?GetOccDialogInfo@CWnd@@MAEPAU_AFX_OCC_DIALOG_INFO@@XZ
	DD	FLAT:?Create@CButton@@UAEHPBDKABUtagRECT@@PAVCWnd@@I@Z
	DD	FLAT:?DrawItem@CButton@@UAEXPAUtagDRAWITEMSTRUCT@@@Z
CONST	ENDS
;	COMDAT ??_7CStatic@@6B@
CONST	SEGMENT
??_7CStatic@@6B@ DD FLAT:??_R4CStatic@@6B@		; CStatic::`vftable'
	DD	FLAT:?GetRuntimeClass@CStatic@@UBEPAUCRuntimeClass@@XZ
	DD	FLAT:??_ECStatic@@UAEPAXI@Z
	DD	FLAT:?Serialize@CObject@@UAEXAAVCArchive@@@Z
	DD	FLAT:?AssertValid@CObject@@UBEXXZ
	DD	FLAT:?Dump@CObject@@UBEXAAVCDumpContext@@@Z
	DD	FLAT:?OnCmdMsg@CCmdTarget@@UAEHIHPAXPAUAFX_CMDHANDLERINFO@@@Z
	DD	FLAT:?OnFinalRelease@CWnd@@UAEXXZ
	DD	FLAT:?IsInvokeAllowed@CCmdTarget@@UAEHJ@Z
	DD	FLAT:?GetDispatchIID@CCmdTarget@@UAEHPAU_GUID@@@Z
	DD	FLAT:?GetTypeInfoCount@CCmdTarget@@UAEIXZ
	DD	FLAT:?GetTypeLibCache@CCmdTarget@@UAEPAVCTypeLibCache@@XZ
	DD	FLAT:?GetTypeLib@CCmdTarget@@UAEJKPAPAUITypeLib@@@Z
	DD	FLAT:?GetMessageMap@CWnd@@MBEPBUAFX_MSGMAP@@XZ
	DD	FLAT:?GetCommandMap@CCmdTarget@@MBEPBUAFX_OLECMDMAP@@XZ
	DD	FLAT:?GetDispatchMap@CCmdTarget@@MBEPBUAFX_DISPMAP@@XZ
	DD	FLAT:?GetConnectionMap@CCmdTarget@@MBEPBUAFX_CONNECTIONMAP@@XZ
	DD	FLAT:?GetInterfaceMap@CWnd@@MBEPBUAFX_INTERFACEMAP@@XZ
	DD	FLAT:?GetEventSinkMap@CCmdTarget@@MBEPBUAFX_EVENTSINKMAP@@XZ
	DD	FLAT:?OnCreateAggregates@CCmdTarget@@UAEHXZ
	DD	FLAT:?GetInterfaceHook@CCmdTarget@@UAEPAUIUnknown@@PBX@Z
	DD	FLAT:?GetExtraConnectionPoints@CCmdTarget@@MAEHPAVCPtrArray@@@Z
	DD	FLAT:?GetConnectionHook@CCmdTarget@@MAEPAUIConnectionPoint@@ABU_GUID@@@Z
	DD	FLAT:?PreSubclassWindow@CWnd@@UAEXXZ
	DD	FLAT:?Create@CWnd@@UAEHPBD0KABUtagRECT@@PAV1@IPAUCCreateContext@@@Z
	DD	FLAT:?CreateEx@CWnd@@UAEHKPBD0KABUtagRECT@@PAV1@IPAX@Z
	DD	FLAT:?CreateEx@CWnd@@UAEHKPBD0KHHHHPAUHWND__@@PAUHMENU__@@PAX@Z
	DD	FLAT:?DestroyWindow@CWnd@@UAEHXZ
	DD	FLAT:?PreCreateWindow@CWnd@@UAEHAAUtagCREATESTRUCTA@@@Z
	DD	FLAT:?CalcWindowRect@CWnd@@UAEXPAUtagRECT@@I@Z
	DD	FLAT:?GetMenu@CWnd@@UBEPAVCMenu@@XZ
	DD	FLAT:?SetMenu@CWnd@@UAEHPAVCMenu@@@Z
	DD	FLAT:?OnToolHitTest@CWnd@@UBEHVCPoint@@PAUtagTOOLINFOA@@@Z
	DD	FLAT:?GetScrollBarCtrl@CWnd@@UBEPAVCScrollBar@@H@Z
	DD	FLAT:?WinHelpA@CWnd@@UAEXKI@Z
	DD	FLAT:?HtmlHelpA@CWnd@@UAEXKI@Z
	DD	FLAT:?WinHelpInternal@CWnd@@UAEXKI@Z
	DD	FLAT:?ContinueModal@CWnd@@UAEHXZ
	DD	FLAT:?EndModalLoop@CWnd@@UAEXH@Z
	DD	FLAT:?OnDrawIconicThumbnailOrLivePreview@CWnd@@UAEXAAVCDC@@VCRect@@VCSize@@HAAH@Z
	DD	FLAT:?EnsureStdObj@CWnd@@UAEJXZ
	DD	FLAT:?get_accParent@CWnd@@UAEJPAPAUIDispatch@@@Z
	DD	FLAT:?get_accChildCount@CWnd@@UAEJPAJ@Z
	DD	FLAT:?get_accChild@CWnd@@UAEJUtagVARIANT@@PAPAUIDispatch@@@Z
	DD	FLAT:?get_accName@CWnd@@UAEJUtagVARIANT@@PAPA_W@Z
	DD	FLAT:?get_accValue@CWnd@@UAEJUtagVARIANT@@PAPA_W@Z
	DD	FLAT:?get_accDescription@CWnd@@UAEJUtagVARIANT@@PAPA_W@Z
	DD	FLAT:?get_accRole@CWnd@@UAEJUtagVARIANT@@PAU2@@Z
	DD	FLAT:?get_accState@CWnd@@UAEJUtagVARIANT@@PAU2@@Z
	DD	FLAT:?get_accHelp@CWnd@@UAEJUtagVARIANT@@PAPA_W@Z
	DD	FLAT:?get_accHelpTopic@CWnd@@UAEJPAPA_WUtagVARIANT@@PAJ@Z
	DD	FLAT:?get_accKeyboardShortcut@CWnd@@UAEJUtagVARIANT@@PAPA_W@Z
	DD	FLAT:?get_accFocus@CWnd@@UAEJPAUtagVARIANT@@@Z
	DD	FLAT:?get_accSelection@CWnd@@UAEJPAUtagVARIANT@@@Z
	DD	FLAT:?get_accDefaultAction@CWnd@@UAEJUtagVARIANT@@PAPA_W@Z
	DD	FLAT:?accSelect@CWnd@@UAEJJUtagVARIANT@@@Z
	DD	FLAT:?accLocation@CWnd@@UAEJPAJ000UtagVARIANT@@@Z
	DD	FLAT:?accNavigate@CWnd@@UAEJJUtagVARIANT@@PAU2@@Z
	DD	FLAT:?accHitTest@CWnd@@UAEJJJPAUtagVARIANT@@@Z
	DD	FLAT:?accDoDefaultAction@CWnd@@UAEJUtagVARIANT@@@Z
	DD	FLAT:?put_accName@CWnd@@UAEJUtagVARIANT@@PA_W@Z
	DD	FLAT:?put_accValue@CWnd@@UAEJUtagVARIANT@@PA_W@Z
	DD	FLAT:?SetProxy@CWnd@@UAEJPAUIAccessibleProxy@@@Z
	DD	FLAT:?CreateAccessibleProxy@CWnd@@UAEJIJPAJ@Z
	DD	FLAT:?OnCommand@CWnd@@MAEHIJ@Z
	DD	FLAT:?OnNotify@CWnd@@MAEHIJPAJ@Z
	DD	FLAT:?GetSuperWndProcAddr@CWnd@@MAEPAP6GJPAUHWND__@@IIJ@ZXZ
	DD	FLAT:?DoDataExchange@CWnd@@MAEXPAVCDataExchange@@@Z
	DD	FLAT:?BeginModalState@CWnd@@UAEXXZ
	DD	FLAT:?EndModalState@CWnd@@UAEXXZ
	DD	FLAT:?PreTranslateMessage@CWnd@@UAEHPAUtagMSG@@@Z
	DD	FLAT:?OnAmbientProperty@CWnd@@UAEHPAVCOleControlSite@@JPAUtagVARIANT@@@Z
	DD	FLAT:?WindowProc@CWnd@@MAEJIIJ@Z
	DD	FLAT:?OnWndMsg@CWnd@@MAEHIIJPAJ@Z
	DD	FLAT:?DefWindowProcA@CWnd@@MAEJIIJ@Z
	DD	FLAT:?PostNcDestroy@CWnd@@MAEXXZ
	DD	FLAT:?OnChildNotify@CStatic@@MAEHIIJPAJ@Z
	DD	FLAT:?OnTouchInputs@CWnd@@MAEHIPAUtagTOUCHINPUT@@@Z
	DD	FLAT:?OnTouchInput@CWnd@@MAEHVCPoint@@HHPAUtagTOUCHINPUT@@@Z
	DD	FLAT:?GetGestureStatus@CWnd@@MAEKVCPoint@@@Z
	DD	FLAT:?OnGestureZoom@CWnd@@MAEHVCPoint@@J@Z
	DD	FLAT:?OnGesturePan@CWnd@@MAEHVCPoint@@0@Z
	DD	FLAT:?OnGestureRotate@CWnd@@MAEHVCPoint@@N@Z
	DD	FLAT:?OnGestureTwoFingerTap@CWnd@@MAEHVCPoint@@@Z
	DD	FLAT:?OnGesturePressAndTap@CWnd@@MAEHVCPoint@@J@Z
	DD	FLAT:?ResizeDynamicLayout@CWnd@@MAEXXZ
	DD	FLAT:?CheckAutoCenter@CWnd@@UAEHXZ
	DD	FLAT:?IsFrameWnd@CWnd@@UBEHXZ
	DD	FLAT:?CreateControlContainer@CWnd@@MAEHPAPAVCOleControlContainer@@@Z
	DD	FLAT:?CreateControlSite@CWnd@@MAEHPAVCOleControlContainer@@PAPAVCOleControlSite@@IABU_GUID@@@Z
	DD	FLAT:?SetOccDialogInfo@CWnd@@MAEHPAU_AFX_OCC_DIALOG_INFO@@@Z
	DD	FLAT:?GetOccDialogInfo@CWnd@@MAEPAU_AFX_OCC_DIALOG_INFO@@XZ
	DD	FLAT:?Create@CStatic@@UAEHPBDKABUtagRECT@@PAVCWnd@@I@Z
	DD	FLAT:?DrawItem@CStatic@@UAEXPAUtagDRAWITEMSTRUCT@@@Z
CONST	ENDS
;	COMDAT ??_7CMenu@@6B@
CONST	SEGMENT
??_7CMenu@@6B@ DD FLAT:??_R4CMenu@@6B@			; CMenu::`vftable'
	DD	FLAT:?GetRuntimeClass@CMenu@@UBEPAUCRuntimeClass@@XZ
	DD	FLAT:??_ECMenu@@UAEPAXI@Z
	DD	FLAT:?Serialize@CObject@@UAEXAAVCArchive@@@Z
	DD	FLAT:?AssertValid@CObject@@UBEXXZ
	DD	FLAT:?Dump@CObject@@UBEXAAVCDumpContext@@@Z
	DD	FLAT:?DrawItem@CMenu@@UAEXPAUtagDRAWITEMSTRUCT@@@Z
	DD	FLAT:?MeasureItem@CMenu@@UAEXPAUtagMEASUREITEMSTRUCT@@@Z
CONST	ENDS
;	COMDAT ??_7CBitmap@@6B@
CONST	SEGMENT
??_7CBitmap@@6B@ DD FLAT:??_R4CBitmap@@6B@		; CBitmap::`vftable'
	DD	FLAT:?GetRuntimeClass@CBitmap@@UBEPAUCRuntimeClass@@XZ
	DD	FLAT:??_ECBitmap@@UAEPAXI@Z
	DD	FLAT:?Serialize@CObject@@UAEXAAVCArchive@@@Z
	DD	FLAT:?AssertValid@CObject@@UBEXXZ
	DD	FLAT:?Dump@CObject@@UBEXAAVCDumpContext@@@Z
CONST	ENDS
;	COMDAT ??_7CBrush@@6B@
CONST	SEGMENT
??_7CBrush@@6B@ DD FLAT:??_R4CBrush@@6B@		; CBrush::`vftable'
	DD	FLAT:?GetRuntimeClass@CBrush@@UBEPAUCRuntimeClass@@XZ
	DD	FLAT:??_ECBrush@@UAEPAXI@Z
	DD	FLAT:?Serialize@CObject@@UAEXAAVCArchive@@@Z
	DD	FLAT:?AssertValid@CObject@@UBEXXZ
	DD	FLAT:?Dump@CObject@@UBEXAAVCDumpContext@@@Z
CONST	ENDS
;	COMDAT ??_7CGdiObject@@6B@
CONST	SEGMENT
??_7CGdiObject@@6B@ DD FLAT:??_R4CGdiObject@@6B@	; CGdiObject::`vftable'
	DD	FLAT:?GetRuntimeClass@CGdiObject@@UBEPAUCRuntimeClass@@XZ
	DD	FLAT:??_ECGdiObject@@UAEPAXI@Z
	DD	FLAT:?Serialize@CObject@@UAEXAAVCArchive@@@Z
	DD	FLAT:?AssertValid@CObject@@UBEXXZ
	DD	FLAT:?Dump@CObject@@UBEXAAVCDumpContext@@@Z
CONST	ENDS
;	COMDAT ??_C@_00CNPNBAHC@@
CONST	SEGMENT
??_C@_00CNPNBAHC@@ DB 00H				; `string'
CONST	ENDS
;	COMDAT ??_C@_01CPLAODJH@S@
CONST	SEGMENT
??_C@_01CPLAODJH@S@ DB 'S', 00H				; `string'
CONST	ENDS
;	COMDAT ?_AtlWinModule@ATL@@3VCAtlWinModule@1@A
_DATA	SEGMENT
?_AtlWinModule@ATL@@3VCAtlWinModule@1@A DD 02cH		; ATL::_AtlWinModule
	DB	24 DUP(00H)
	DD	00H
_DATA	ENDS
;	COMDAT ??_C@_02DPKJAMEF@?$CFd@
CONST	SEGMENT
??_C@_02DPKJAMEF@?$CFd@ DB '%d', 00H			; `string'
CONST	ENDS
;	COMDAT ??_R0PAVCException@@@8
data$r	SEGMENT
??_R0PAVCException@@@8 DD FLAT:??_7type_info@@6B@	; CException * `RTTI Type Descriptor'
	DD	00H
	DB	'.PAVCException@@', 00H
data$r	ENDS
;	COMDAT xdata$x
xdata$x	SEGMENT
__ehfuncinfo$??_Estringdispid@CComTypeInfoHolder@ATL@@QAEPAXI@Z DD 019930522H
	DD	00H
	DD	00H
	DD	2 DUP(00H)
	DD	2 DUP(00H)
	DD	00H
	DD	05H
xdata$x	ENDS
;	COMDAT xdata$x
xdata$x	SEGMENT
__unwindtable$??1CExtInputBarDlg@@UAE@XZ DD 0ffffffffH
	DD	FLAT:___std_terminate
__ehfuncinfo$??1CExtInputBarDlg@@UAE@XZ DD 019930522H
	DD	01H
	DD	FLAT:__unwindtable$??1CExtInputBarDlg@@UAE@XZ
	DD	2 DUP(00H)
	DD	2 DUP(00H)
	DD	00H
	DD	05H
xdata$x	ENDS
;	COMDAT xdata$x
xdata$x	SEGMENT
__unwindtable$?OnChkAccountavg@CExtInputBarDlg@@IAEXXZ DD 0ffffffffH
	DD	FLAT:__unwindfunclet$?OnChkAccountavg@CExtInputBarDlg@@IAEXXZ$0
__ehfuncinfo$?OnChkAccountavg@CExtInputBarDlg@@IAEXXZ DD 019930522H
	DD	01H
	DD	FLAT:__unwindtable$?OnChkAccountavg@CExtInputBarDlg@@IAEXXZ
	DD	2 DUP(00H)
	DD	2 DUP(00H)
	DD	00H
	DD	01H
xdata$x	ENDS
;	COMDAT xdata$x
xdata$x	SEGMENT
__unwindtable$?OnPaint@CExtInputBarDlg@@IAEXXZ DD 0ffffffffH
	DD	FLAT:__unwindfunclet$?OnPaint@CExtInputBarDlg@@IAEXXZ$0
	DD	00H
	DD	FLAT:__unwindfunclet$?OnPaint@CExtInputBarDlg@@IAEXXZ$1
	DD	01H
	DD	FLAT:__unwindfunclet$?OnPaint@CExtInputBarDlg@@IAEXXZ$2
__ehfuncinfo$?OnPaint@CExtInputBarDlg@@IAEXXZ DD 019930522H
	DD	03H
	DD	FLAT:__unwindtable$?OnPaint@CExtInputBarDlg@@IAEXXZ
	DD	2 DUP(00H)
	DD	2 DUP(00H)
	DD	00H
	DD	01H
xdata$x	ENDS
;	COMDAT xdata$x
xdata$x	SEGMENT
__ehfuncinfo$?OnBtnGwansim@CExtInputBarDlg@@IAEXXZ DD 019930522H
	DD	012H
	DD	FLAT:__unwindtable$?OnBtnGwansim@CExtInputBarDlg@@IAEXXZ
	DD	2 DUP(00H)
	DD	2 DUP(00H)
	DD	00H
	DD	01H
__unwindtable$?OnBtnGwansim@CExtInputBarDlg@@IAEXXZ DD 0ffffffffH
	DD	FLAT:__unwindfunclet$?OnBtnGwansim@CExtInputBarDlg@@IAEXXZ$0
	DD	00H
	DD	FLAT:__unwindfunclet$?OnBtnGwansim@CExtInputBarDlg@@IAEXXZ$12
	DD	00H
	DD	FLAT:__unwindfunclet$?OnBtnGwansim@CExtInputBarDlg@@IAEXXZ$1
	DD	02H
	DD	FLAT:__unwindfunclet$?OnBtnGwansim@CExtInputBarDlg@@IAEXXZ$2
	DD	03H
	DD	FLAT:__unwindfunclet$?OnBtnGwansim@CExtInputBarDlg@@IAEXXZ$3
	DD	02H
	DD	00H
	DD	00H
	DD	00H
	DD	03H
	DD	FLAT:__unwindfunclet$?OnBtnGwansim@CExtInputBarDlg@@IAEXXZ$4
	DD	07H
	DD	FLAT:__unwindfunclet$?OnBtnGwansim@CExtInputBarDlg@@IAEXXZ$5
	DD	02H
	DD	00H
	DD	00H
	DD	00H
	DD	08H
	DD	FLAT:__unwindfunclet$?OnBtnGwansim@CExtInputBarDlg@@IAEXXZ$6
	DD	08H
	DD	FLAT:__unwindfunclet$?OnBtnGwansim@CExtInputBarDlg@@IAEXXZ$9
	DD	02H
	DD	00H
	DD	00H
	DD	00H
	DD	0cH
	DD	FLAT:__unwindfunclet$?OnBtnGwansim@CExtInputBarDlg@@IAEXXZ$10
	DD	02H
	DD	FLAT:___std_terminate
	DD	00H
	DD	FLAT:___std_terminate
xdata$x	ENDS
;	COMDAT xdata$x
xdata$x	SEGMENT
__unwindtable$?OnBtetcmenu@CExtInputBarDlg@@IAEXXZ DD 0ffffffffH
	DD	FLAT:__unwindfunclet$?OnBtetcmenu@CExtInputBarDlg@@IAEXXZ$0
	DD	00H
	DD	FLAT:__unwindfunclet$?OnBtetcmenu@CExtInputBarDlg@@IAEXXZ$2
	DD	0ffffffffH
	DD	00H
	DD	0ffffffffH
	DD	FLAT:___std_terminate
__ehfuncinfo$?OnBtetcmenu@CExtInputBarDlg@@IAEXXZ DD 019930522H
	DD	04H
	DD	FLAT:__unwindtable$?OnBtetcmenu@CExtInputBarDlg@@IAEXXZ
	DD	2 DUP(00H)
	DD	2 DUP(00H)
	DD	00H
	DD	01H
xdata$x	ENDS
;	COMDAT xdata$x
xdata$x	SEGMENT
__unwindtable$?OnCloseupDatetimepicker1@CExtInputBarDlg@@IAEXPAUtagNMHDR@@PAJ@Z DD 0ffffffffH
	DD	FLAT:__unwindfunclet$?OnCloseupDatetimepicker1@CExtInputBarDlg@@IAEXPAUtagNMHDR@@PAJ@Z$0
	DD	0ffffffffH
	DD	FLAT:__unwindfunclet$?OnCloseupDatetimepicker1@CExtInputBarDlg@@IAEXPAUtagNMHDR@@PAJ@Z$1
__ehfuncinfo$?OnCloseupDatetimepicker1@CExtInputBarDlg@@IAEXPAUtagNMHDR@@PAJ@Z DD 019930522H
	DD	02H
	DD	FLAT:__unwindtable$?OnCloseupDatetimepicker1@CExtInputBarDlg@@IAEXPAUtagNMHDR@@PAJ@Z
	DD	2 DUP(00H)
	DD	2 DUP(00H)
	DD	00H
	DD	01H
xdata$x	ENDS
;	COMDAT xdata$x
xdata$x	SEGMENT
__unwindtable$?OnDatetimechangeDatetimepicker1@CExtInputBarDlg@@IAEXXZ DD 0ffffffffH
	DD	FLAT:__unwindfunclet$?OnDatetimechangeDatetimepicker1@CExtInputBarDlg@@IAEXXZ$0
	DD	0ffffffffH
	DD	FLAT:__unwindfunclet$?OnDatetimechangeDatetimepicker1@CExtInputBarDlg@@IAEXXZ$1
__ehfuncinfo$?OnDatetimechangeDatetimepicker1@CExtInputBarDlg@@IAEXXZ DD 019930522H
	DD	02H
	DD	FLAT:__unwindtable$?OnDatetimechangeDatetimepicker1@CExtInputBarDlg@@IAEXXZ
	DD	2 DUP(00H)
	DD	2 DUP(00H)
	DD	00H
	DD	01H
xdata$x	ENDS
;	COMDAT xdata$x
xdata$x	SEGMENT
__ehfuncinfo$?OnBtnEdate@CExtInputBarDlg@@IAEXXZ DD 019930522H
	DD	05H
	DD	FLAT:__unwindtable$?OnBtnEdate@CExtInputBarDlg@@IAEXXZ
	DD	2 DUP(00H)
	DD	2 DUP(00H)
	DD	00H
	DD	01H
__unwindtable$?OnBtnEdate@CExtInputBarDlg@@IAEXXZ DD 0ffffffffH
	DD	FLAT:__unwindfunclet$?OnBtnEdate@CExtInputBarDlg@@IAEXXZ$2
	DD	00H
	DD	FLAT:__unwindfunclet$?OnBtnEdate@CExtInputBarDlg@@IAEXXZ$3
	DD	01H
	DD	FLAT:__unwindfunclet$?OnBtnEdate@CExtInputBarDlg@@IAEXXZ$4
	DD	02H
	DD	FLAT:__unwindfunclet$?OnBtnEdate@CExtInputBarDlg@@IAEXXZ$5
	DD	00H
	DD	FLAT:__unwindfunclet$?OnBtnEdate@CExtInputBarDlg@@IAEXXZ$7
xdata$x	ENDS
;	COMDAT xdata$x
xdata$x	SEGMENT
__unwindtable$?OnDestroy@CExtInputBarDlg@@IAEXXZ DD 0ffffffffH
	DD	FLAT:__unwindfunclet$?OnDestroy@CExtInputBarDlg@@IAEXXZ$0
	DD	00H
	DD	FLAT:__unwindfunclet$?OnDestroy@CExtInputBarDlg@@IAEXXZ$1
__ehfuncinfo$?OnDestroy@CExtInputBarDlg@@IAEXXZ DD 019930522H
	DD	02H
	DD	FLAT:__unwindtable$?OnDestroy@CExtInputBarDlg@@IAEXXZ
	DD	2 DUP(00H)
	DD	2 DUP(00H)
	DD	00H
	DD	01H
xdata$x	ENDS
;	COMDAT xdata$x
xdata$x	SEGMENT
__unwindtable$?OnBtinitial@CExtInputBarDlg@@IAEXXZ DD 0ffffffffH
	DD	FLAT:__unwindfunclet$?OnBtinitial@CExtInputBarDlg@@IAEXXZ$0
__ehfuncinfo$?OnBtinitial@CExtInputBarDlg@@IAEXXZ DD 019930522H
	DD	01H
	DD	FLAT:__unwindtable$?OnBtinitial@CExtInputBarDlg@@IAEXXZ
	DD	2 DUP(00H)
	DD	2 DUP(00H)
	DD	00H
	DD	01H
xdata$x	ENDS
;	COMDAT xdata$x
xdata$x	SEGMENT
__ehfuncinfo$?OnBtindex@CExtInputBarDlg@@IAEXXZ DD 019930522H
	DD	09H
	DD	FLAT:__unwindtable$?OnBtindex@CExtInputBarDlg@@IAEXXZ
	DD	2 DUP(00H)
	DD	2 DUP(00H)
	DD	00H
	DD	01H
__unwindtable$?OnBtindex@CExtInputBarDlg@@IAEXXZ DD 0ffffffffH
	DD	FLAT:__unwindfunclet$?OnBtindex@CExtInputBarDlg@@IAEXXZ$0
	DD	00H
	DD	FLAT:__unwindfunclet$?OnBtindex@CExtInputBarDlg@@IAEXXZ$1
	DD	01H
	DD	FLAT:__unwindfunclet$?OnBtindex@CExtInputBarDlg@@IAEXXZ$2
	DD	02H
	DD	FLAT:__unwindfunclet$?OnBtindex@CExtInputBarDlg@@IAEXXZ$3
	DD	03H
	DD	FLAT:__unwindfunclet$?OnBtindex@CExtInputBarDlg@@IAEXXZ$4
	DD	04H
	DD	FLAT:__unwindfunclet$?OnBtindex@CExtInputBarDlg@@IAEXXZ$6
	DD	05H
	DD	FLAT:__unwindfunclet$?OnBtindex@CExtInputBarDlg@@IAEXXZ$7
	DD	04H
	DD	FLAT:__unwindfunclet$?OnBtindex@CExtInputBarDlg@@IAEXXZ$8
	DD	0ffffffffH
	DD	FLAT:___std_terminate
xdata$x	ENDS
;	COMDAT xdata$x
xdata$x	SEGMENT
__ehfuncinfo$?OnInitDialog@CExtInputBarDlg@@MAEHXZ DD 019930522H
	DD	07H
	DD	FLAT:__unwindtable$?OnInitDialog@CExtInputBarDlg@@MAEHXZ
	DD	2 DUP(00H)
	DD	2 DUP(00H)
	DD	00H
	DD	01H
__unwindtable$?OnInitDialog@CExtInputBarDlg@@MAEHXZ DD 0ffffffffH
	DD	FLAT:__unwindfunclet$?OnInitDialog@CExtInputBarDlg@@MAEHXZ$8
	DD	00H
	DD	FLAT:__unwindfunclet$?OnInitDialog@CExtInputBarDlg@@MAEHXZ$9
	DD	01H
	DD	FLAT:__unwindfunclet$?OnInitDialog@CExtInputBarDlg@@MAEHXZ$10
	DD	02H
	DD	FLAT:__unwindfunclet$?OnInitDialog@CExtInputBarDlg@@MAEHXZ$11
	DD	03H
	DD	FLAT:__unwindfunclet$?OnInitDialog@CExtInputBarDlg@@MAEHXZ$12
	DD	04H
	DD	FLAT:__unwindfunclet$?OnInitDialog@CExtInputBarDlg@@MAEHXZ$64
	DD	05H
	DD	FLAT:__unwindfunclet$?OnInitDialog@CExtInputBarDlg@@MAEHXZ$65
xdata$x	ENDS
;	COMDAT xdata$x
xdata$x	SEGMENT
__unwindtable$??_G?$CMap@IIV?$CStringT@DV?$StrTraitMFC_DLL@DV?$ChTraitsCRT@D@ATL@@@@@ATL@@PBD@@UAEPAXI@Z DD 0ffffffffH
	DD	FLAT:___std_terminate
__ehfuncinfo$??_G?$CMap@IIV?$CStringT@DV?$StrTraitMFC_DLL@DV?$ChTraitsCRT@D@ATL@@@@@ATL@@PBD@@UAEPAXI@Z DD 019930522H
	DD	01H
	DD	FLAT:__unwindtable$??_G?$CMap@IIV?$CStringT@DV?$StrTraitMFC_DLL@DV?$ChTraitsCRT@D@ATL@@@@@ATL@@PBD@@UAEPAXI@Z
	DD	2 DUP(00H)
	DD	2 DUP(00H)
	DD	00H
	DD	05H
xdata$x	ENDS
;	COMDAT xdata$x
xdata$x	SEGMENT
__unwindtable$?Serialize@?$CMap@IIV?$CStringT@DV?$StrTraitMFC_DLL@DV?$ChTraitsCRT@D@ATL@@@@@ATL@@PBD@@UAEXAAVCArchive@@@Z DD 0ffffffffH
	DD	FLAT:__unwindfunclet$?Serialize@?$CMap@IIV?$CStringT@DV?$StrTraitMFC_DLL@DV?$ChTraitsCRT@D@ATL@@@@@ATL@@PBD@@UAEXAAVCArchive@@@Z$0
__ehfuncinfo$?Serialize@?$CMap@IIV?$CStringT@DV?$StrTraitMFC_DLL@DV?$ChTraitsCRT@D@ATL@@@@@ATL@@PBD@@UAEXAAVCArchive@@@Z DD 019930522H
	DD	01H
	DD	FLAT:__unwindtable$?Serialize@?$CMap@IIV?$CStringT@DV?$StrTraitMFC_DLL@DV?$ChTraitsCRT@D@ATL@@@@@ATL@@PBD@@UAEXAAVCArchive@@@Z
	DD	2 DUP(00H)
	DD	2 DUP(00H)
	DD	00H
	DD	01H
xdata$x	ENDS
;	COMDAT xdata$x
xdata$x	SEGMENT
__ehfuncinfo$??1?$CMap@IIV?$CStringT@DV?$StrTraitMFC_DLL@DV?$ChTraitsCRT@D@ATL@@@@@ATL@@PBD@@UAE@XZ DD 019930522H
	DD	00H
	DD	00H
	DD	2 DUP(00H)
	DD	2 DUP(00H)
	DD	00H
	DD	05H
xdata$x	ENDS
;	COMDAT xdata$x
xdata$x	SEGMENT
__unwindtable$?ActionPopupMenuItem@CExtInputBarDlg@@QAEXI@Z DD 0ffffffffH
	DD	FLAT:__unwindfunclet$?ActionPopupMenuItem@CExtInputBarDlg@@QAEXI@Z$0
__ehfuncinfo$?ActionPopupMenuItem@CExtInputBarDlg@@QAEXI@Z DD 019930522H
	DD	01H
	DD	FLAT:__unwindtable$?ActionPopupMenuItem@CExtInputBarDlg@@QAEXI@Z
	DD	2 DUP(00H)
	DD	2 DUP(00H)
	DD	00H
	DD	01H
xdata$x	ENDS
;	COMDAT xdata$x
xdata$x	SEGMENT
__unwindtable$?ResetChartData@CExtInputBarDlg@@QAEXXZ DD 0ffffffffH
	DD	FLAT:__unwindfunclet$?ResetChartData@CExtInputBarDlg@@QAEXXZ$0
__ehfuncinfo$?ResetChartData@CExtInputBarDlg@@QAEXXZ DD 019930522H
	DD	01H
	DD	FLAT:__unwindtable$?ResetChartData@CExtInputBarDlg@@QAEXXZ
	DD	2 DUP(00H)
	DD	2 DUP(00H)
	DD	00H
	DD	01H
xdata$x	ENDS
;	COMDAT xdata$x
xdata$x	SEGMENT
__unwindtable$?SaveExtInputBar@CExtInputBarDlg@@QAEXXZ DD 0ffffffffH
	DD	FLAT:__unwindfunclet$?SaveExtInputBar@CExtInputBarDlg@@QAEXXZ$0
	DD	00H
	DD	FLAT:__unwindfunclet$?SaveExtInputBar@CExtInputBarDlg@@QAEXXZ$1
__ehfuncinfo$?SaveExtInputBar@CExtInputBarDlg@@QAEXXZ DD 019930522H
	DD	02H
	DD	FLAT:__unwindtable$?SaveExtInputBar@CExtInputBarDlg@@QAEXXZ
	DD	2 DUP(00H)
	DD	2 DUP(00H)
	DD	00H
	DD	01H
xdata$x	ENDS
;	COMDAT xdata$x
xdata$x	SEGMENT
__ehfuncinfo$?WindowProc@CExtInputBarDlg@@MAEJIIJ@Z DD 019930522H
	DD	06H
	DD	FLAT:__unwindtable$?WindowProc@CExtInputBarDlg@@MAEJIIJ@Z
	DD	2 DUP(00H)
	DD	2 DUP(00H)
	DD	00H
	DD	01H
__unwindtable$?WindowProc@CExtInputBarDlg@@MAEJIIJ@Z DD 0ffffffffH
	DD	FLAT:__unwindfunclet$?WindowProc@CExtInputBarDlg@@MAEJIIJ@Z$0
	DD	00H
	DD	FLAT:__unwindfunclet$?WindowProc@CExtInputBarDlg@@MAEJIIJ@Z$1
	DD	0ffffffffH
	DD	FLAT:__unwindfunclet$?WindowProc@CExtInputBarDlg@@MAEJIIJ@Z$2
	DD	0ffffffffH
	DD	FLAT:__unwindfunclet$?WindowProc@CExtInputBarDlg@@MAEJIIJ@Z$6
	DD	0ffffffffH
	DD	FLAT:__unwindfunclet$?WindowProc@CExtInputBarDlg@@MAEJIIJ@Z$9
	DD	0ffffffffH
	DD	FLAT:__unwindfunclet$?WindowProc@CExtInputBarDlg@@MAEJIIJ@Z$14
xdata$x	ENDS
;	COMDAT xdata$x
xdata$x	SEGMENT
__ehfuncinfo$??0CExtInputBarDlg@@QAE@PAVCWnd@@@Z DD 019930522H
	DD	030H
	DD	FLAT:__unwindtable$??0CExtInputBarDlg@@QAE@PAVCWnd@@@Z
	DD	2 DUP(00H)
	DD	2 DUP(00H)
	DD	00H
	DD	01H
__unwindtable$??0CExtInputBarDlg@@QAE@PAVCWnd@@@Z DD 0ffffffffH
	DD	FLAT:__unwindfunclet$??0CExtInputBarDlg@@QAE@PAVCWnd@@@Z$0
	DD	00H
	DD	FLAT:__unwindfunclet$??0CExtInputBarDlg@@QAE@PAVCWnd@@@Z$1
	DD	01H
	DD	FLAT:__unwindfunclet$??0CExtInputBarDlg@@QAE@PAVCWnd@@@Z$2
	DD	02H
	DD	FLAT:__unwindfunclet$??0CExtInputBarDlg@@QAE@PAVCWnd@@@Z$3
	DD	03H
	DD	FLAT:__unwindfunclet$??0CExtInputBarDlg@@QAE@PAVCWnd@@@Z$4
	DD	04H
	DD	FLAT:__unwindfunclet$??0CExtInputBarDlg@@QAE@PAVCWnd@@@Z$5
	DD	05H
	DD	FLAT:__unwindfunclet$??0CExtInputBarDlg@@QAE@PAVCWnd@@@Z$6
	DD	06H
	DD	FLAT:__unwindfunclet$??0CExtInputBarDlg@@QAE@PAVCWnd@@@Z$7
	DD	07H
	DD	FLAT:__unwindfunclet$??0CExtInputBarDlg@@QAE@PAVCWnd@@@Z$8
	DD	08H
	DD	FLAT:__unwindfunclet$??0CExtInputBarDlg@@QAE@PAVCWnd@@@Z$9
	DD	09H
	DD	FLAT:__unwindfunclet$??0CExtInputBarDlg@@QAE@PAVCWnd@@@Z$10
	DD	0aH
	DD	FLAT:__unwindfunclet$??0CExtInputBarDlg@@QAE@PAVCWnd@@@Z$11
	DD	0bH
	DD	FLAT:__unwindfunclet$??0CExtInputBarDlg@@QAE@PAVCWnd@@@Z$12
	DD	0cH
	DD	FLAT:__unwindfunclet$??0CExtInputBarDlg@@QAE@PAVCWnd@@@Z$13
	DD	0dH
	DD	FLAT:__unwindfunclet$??0CExtInputBarDlg@@QAE@PAVCWnd@@@Z$14
	DD	0eH
	DD	FLAT:__unwindfunclet$??0CExtInputBarDlg@@QAE@PAVCWnd@@@Z$15
	DD	0fH
	DD	FLAT:__unwindfunclet$??0CExtInputBarDlg@@QAE@PAVCWnd@@@Z$16
	DD	010H
	DD	FLAT:__unwindfunclet$??0CExtInputBarDlg@@QAE@PAVCWnd@@@Z$17
	DD	011H
	DD	FLAT:__unwindfunclet$??0CExtInputBarDlg@@QAE@PAVCWnd@@@Z$18
	DD	012H
	DD	FLAT:__unwindfunclet$??0CExtInputBarDlg@@QAE@PAVCWnd@@@Z$19
	DD	013H
	DD	FLAT:__unwindfunclet$??0CExtInputBarDlg@@QAE@PAVCWnd@@@Z$20
	DD	014H
	DD	FLAT:__unwindfunclet$??0CExtInputBarDlg@@QAE@PAVCWnd@@@Z$21
	DD	015H
	DD	FLAT:__unwindfunclet$??0CExtInputBarDlg@@QAE@PAVCWnd@@@Z$22
	DD	016H
	DD	FLAT:__unwindfunclet$??0CExtInputBarDlg@@QAE@PAVCWnd@@@Z$23
	DD	017H
	DD	FLAT:__unwindfunclet$??0CExtInputBarDlg@@QAE@PAVCWnd@@@Z$24
	DD	018H
	DD	FLAT:__unwindfunclet$??0CExtInputBarDlg@@QAE@PAVCWnd@@@Z$25
	DD	019H
	DD	FLAT:__unwindfunclet$??0CExtInputBarDlg@@QAE@PAVCWnd@@@Z$26
	DD	01aH
	DD	FLAT:__unwindfunclet$??0CExtInputBarDlg@@QAE@PAVCWnd@@@Z$27
	DD	01bH
	DD	FLAT:__unwindfunclet$??0CExtInputBarDlg@@QAE@PAVCWnd@@@Z$28
	DD	01cH
	DD	FLAT:__unwindfunclet$??0CExtInputBarDlg@@QAE@PAVCWnd@@@Z$29
	DD	01dH
	DD	FLAT:__unwindfunclet$??0CExtInputBarDlg@@QAE@PAVCWnd@@@Z$30
	DD	01eH
	DD	FLAT:__unwindfunclet$??0CExtInputBarDlg@@QAE@PAVCWnd@@@Z$31
	DD	01fH
	DD	FLAT:__unwindfunclet$??0CExtInputBarDlg@@QAE@PAVCWnd@@@Z$32
	DD	020H
	DD	FLAT:__unwindfunclet$??0CExtInputBarDlg@@QAE@PAVCWnd@@@Z$33
	DD	021H
	DD	FLAT:__unwindfunclet$??0CExtInputBarDlg@@QAE@PAVCWnd@@@Z$34
	DD	022H
	DD	FLAT:__unwindfunclet$??0CExtInputBarDlg@@QAE@PAVCWnd@@@Z$35
	DD	023H
	DD	FLAT:__unwindfunclet$??0CExtInputBarDlg@@QAE@PAVCWnd@@@Z$36
	DD	024H
	DD	FLAT:__unwindfunclet$??0CExtInputBarDlg@@QAE@PAVCWnd@@@Z$37
	DD	025H
	DD	FLAT:__unwindfunclet$??0CExtInputBarDlg@@QAE@PAVCWnd@@@Z$38
	DD	026H
	DD	FLAT:__unwindfunclet$??0CExtInputBarDlg@@QAE@PAVCWnd@@@Z$39
	DD	027H
	DD	FLAT:__unwindfunclet$??0CExtInputBarDlg@@QAE@PAVCWnd@@@Z$40
	DD	028H
	DD	FLAT:__unwindfunclet$??0CExtInputBarDlg@@QAE@PAVCWnd@@@Z$41
	DD	029H
	DD	FLAT:__unwindfunclet$??0CExtInputBarDlg@@QAE@PAVCWnd@@@Z$42
	DD	02aH
	DD	FLAT:__unwindfunclet$??0CExtInputBarDlg@@QAE@PAVCWnd@@@Z$43
	DD	02bH
	DD	FLAT:__unwindfunclet$??0CExtInputBarDlg@@QAE@PAVCWnd@@@Z$44
	DD	02cH
	DD	FLAT:__unwindfunclet$??0CExtInputBarDlg@@QAE@PAVCWnd@@@Z$45
	DD	02dH
	DD	FLAT:__unwindfunclet$??0CExtInputBarDlg@@QAE@PAVCWnd@@@Z$46
	DD	02eH
	DD	FLAT:__unwindfunclet$??0CExtInputBarDlg@@QAE@PAVCWnd@@@Z$47
xdata$x	ENDS
;	COMDAT xdata$x
xdata$x	SEGMENT
__unwindtable$?AfxGetPctrInterface@@YGJH@Z DD 0ffffffffH
	DD	FLAT:__unwindfunclet$?AfxGetPctrInterface@@YGJH@Z$0
__ehfuncinfo$?AfxGetPctrInterface@@YGJH@Z DD 019930522H
	DD	01H
	DD	FLAT:__unwindtable$?AfxGetPctrInterface@@YGJH@Z
	DD	2 DUP(00H)
	DD	2 DUP(00H)
	DD	00H
	DD	01H
xdata$x	ENDS
;	COMDAT xdata$x
xdata$x	SEGMENT
__unwindtable$??_GCMenu@@UAEPAXI@Z DD 0ffffffffH
	DD	FLAT:___std_terminate
__ehfuncinfo$??_GCMenu@@UAEPAXI@Z DD 019930522H
	DD	01H
	DD	FLAT:__unwindtable$??_GCMenu@@UAEPAXI@Z
	DD	2 DUP(00H)
	DD	2 DUP(00H)
	DD	00H
	DD	05H
xdata$x	ENDS
;	COMDAT xdata$x
xdata$x	SEGMENT
__ehfuncinfo$??1CMenu@@UAE@XZ DD 019930522H
	DD	00H
	DD	00H
	DD	2 DUP(00H)
	DD	2 DUP(00H)
	DD	00H
	DD	05H
xdata$x	ENDS
;	COMDAT xdata$x
xdata$x	SEGMENT
__catchsym$??1CGdiObject@@UAE@XZ$3 DD 00H
	DD	FLAT:??_R0PAVCException@@@8
	DD	0fffffde4H
	DD	FLAT:__catch$??1CGdiObject@@UAE@XZ$0
__tryblocktable$??1CGdiObject@@UAE@XZ DD 00H
	DD	00H
	DD	02H
	DD	01H
	DD	FLAT:__catchsym$??1CGdiObject@@UAE@XZ$3
__unwindtable$??1CGdiObject@@UAE@XZ DD 0ffffffffH
	DD	00H
	DD	0ffffffffH
	DD	00H
	DD	01H
	DD	FLAT:__unwindfunclet$??1CGdiObject@@UAE@XZ$2
__ehfuncinfo$??1CGdiObject@@UAE@XZ DD 019930522H
	DD	03H
	DD	FLAT:__unwindtable$??1CGdiObject@@UAE@XZ
	DD	01H
	DD	FLAT:__tryblocktable$??1CGdiObject@@UAE@XZ
	DD	2 DUP(00H)
	DD	00H
	DD	05H
xdata$x	ENDS
CRT$XCU	SEGMENT
?RMSG_INTERFACE$initializer$@@3P6AXXZA DD FLAT:??__ERMSG_INTERFACE@@YAXXZ ; RMSG_INTERFACE$initializer$
CRT$XCU	ENDS
CRT$XCU	SEGMENT
?RMSG_GET_STDDLG_PTR$initializer$@@3P6AXXZA DD FLAT:??__ERMSG_GET_STDDLG_PTR@@YAXXZ ; RMSG_GET_STDDLG_PTR$initializer$
CRT$XCU	ENDS
CRT$XCU	SEGMENT
?RMSG_GETSIGNAL_REAL$initializer$@@3P6AXXZA DD FLAT:??__ERMSG_GETSIGNAL_REAL@@YAXXZ ; RMSG_GETSIGNAL_REAL$initializer$
CRT$XCU	ENDS
CRT$XCU	SEGMENT
?RMSG_SETQUERYOPT$initializer$@@3P6AXXZA DD FLAT:??__ERMSG_SETQUERYOPT@@YAXXZ ; RMSG_SETQUERYOPT$initializer$
CRT$XCU	ENDS
CRT$XCU	SEGMENT
?RMSG_CHARTMAIN$initializer$@@3P6AXXZA DD FLAT:??__ERMSG_CHARTMAIN@@YAXXZ ; RMSG_CHARTMAIN$initializer$
CRT$XCU	ENDS
CRT$XCU	SEGMENT
?RMS_ANALYSIS_FUNC$initializer$@@3P6AXXZA DD FLAT:??__ERMS_ANALYSIS_FUNC@@YAXXZ ; RMS_ANALYSIS_FUNC$initializer$
CRT$XCU	ENDS
CRT$XCU	SEGMENT
?RMSG_GET_USERID$initializer$@@3P6AXXZA DD FLAT:??__ERMSG_GET_USERID@@YAXXZ ; RMSG_GET_USERID$initializer$
CRT$XCU	ENDS
CRT$XCU	SEGMENT
?RMSG_CHANGE_SKINCOLOR$initializer$@@3P6AXXZA DD FLAT:??__ERMSG_CHANGE_SKINCOLOR@@YAXXZ ; RMSG_CHANGE_SKINCOLOR$initializer$
CRT$XCU	ENDS
CRT$XCU	SEGMENT
?RMSG_GET_SKINCOLOR$initializer$@@3P6AXXZA DD FLAT:??__ERMSG_GET_SKINCOLOR@@YAXXZ ; RMSG_GET_SKINCOLOR$initializer$
CRT$XCU	ENDS
CRT$XCU	SEGMENT
?RMSG_CHANGEVERTSCALETYPE$initializer$@@3P6AXXZA DD FLAT:??__ERMSG_CHANGEVERTSCALETYPE@@YAXXZ ; RMSG_CHANGEVERTSCALETYPE$initializer$
CRT$XCU	ENDS
CRT$XCU	SEGMENT
?RMSG_CHANGE_CROSSLINE$initializer$@@3P6AXXZA DD FLAT:??__ERMSG_CHANGE_CROSSLINE@@YAXXZ ; RMSG_CHANGE_CROSSLINE$initializer$
CRT$XCU	ENDS
CRT$XCU	SEGMENT
?RMSG_ADD_PLATFORM_MENU$initializer$@@3P6AXXZA DD FLAT:??__ERMSG_ADD_PLATFORM_MENU@@YAXXZ ; RMSG_ADD_PLATFORM_MENU$initializer$
CRT$XCU	ENDS
CRT$XCU	SEGMENT
?RMSG_SETINITIALCHARTDATA$initializer$@@3P6AXXZA DD FLAT:??__ERMSG_SETINITIALCHARTDATA@@YAXXZ ; RMSG_SETINITIALCHARTDATA$initializer$
CRT$XCU	ENDS
CRT$XCU	SEGMENT
?RMSG_GETINFO$initializer$@@3P6AXXZA DD FLAT:??__ERMSG_GETINFO@@YAXXZ ; RMSG_GETINFO$initializer$
CRT$XCU	ENDS
CRT$XCU	SEGMENT
?RMSG_SETINFO$initializer$@@3P6AXXZA DD FLAT:??__ERMSG_SETINFO@@YAXXZ ; RMSG_SETINFO$initializer$
CRT$XCU	ENDS
CRT$XCU	SEGMENT
?RMSG_REPLAY_REAL$initializer$@@3P6AXXZA DD FLAT:??__ERMSG_REPLAY_REAL@@YAXXZ ; RMSG_REPLAY_REAL$initializer$
CRT$XCU	ENDS
CRT$XCU	SEGMENT
?RMSG_REPLAY_FAIL$initializer$@@3P6AXXZA DD FLAT:??__ERMSG_REPLAY_FAIL@@YAXXZ ; RMSG_REPLAY_FAIL$initializer$
CRT$XCU	ENDS
CRT$XCU	SEGMENT
?RMSG_REPLAY_CHANGE_DATE$initializer$@@3P6AXXZA DD FLAT:??__ERMSG_REPLAY_CHANGE_DATE@@YAXXZ ; RMSG_REPLAY_CHANGE_DATE$initializer$
CRT$XCU	ENDS
CRT$XCU	SEGMENT
?RMSG_REPLAY_END$initializer$@@3P6AXXZA DD FLAT:??__ERMSG_REPLAY_END@@YAXXZ ; RMSG_REPLAY_END$initializer$
CRT$XCU	ENDS
CRT$XCU	SEGMENT
?RMSG_REPLAY_INC_SEC$initializer$@@3P6AXXZA DD FLAT:??__ERMSG_REPLAY_INC_SEC@@YAXXZ ; RMSG_REPLAY_INC_SEC$initializer$
CRT$XCU	ENDS
CRT$XCU	SEGMENT
?RMSG_REPLAY_TOTAL_SEC$initializer$@@3P6AXXZA DD FLAT:??__ERMSG_REPLAY_TOTAL_SEC@@YAXXZ ; RMSG_REPLAY_TOTAL_SEC$initializer$
CRT$XCU	ENDS
CRT$XCU	SEGMENT
?RMSG_GETOPENEDOWNER$initializer$@@3P6AXXZA DD FLAT:??__ERMSG_GETOPENEDOWNER@@YAXXZ ; RMSG_GETOPENEDOWNER$initializer$
CRT$XCU	ENDS
CRT$XCU	SEGMENT
?RMSG_PRINTSCREEN$initializer$@@3P6AXXZA DD FLAT:??__ERMSG_PRINTSCREEN@@YAXXZ ; RMSG_PRINTSCREEN$initializer$
CRT$XCU	ENDS
CRT$XCU	SEGMENT
?RMSG_OPENCHARTCONFIG$initializer$@@3P6AXXZA DD FLAT:??__ERMSG_OPENCHARTCONFIG@@YAXXZ ; RMSG_OPENCHARTCONFIG$initializer$
CRT$XCU	ENDS
CRT$XCU	SEGMENT
?RMSG_GET_CONTROLHANDLE$initializer$@@3P6AXXZA DD FLAT:??__ERMSG_GET_CONTROLHANDLE@@YAXXZ ; RMSG_GET_CONTROLHANDLE$initializer$
CRT$XCU	ENDS
CRT$XCU	SEGMENT
?RMSG_GETCURRENTMODE$initializer$@@3P6AXXZA DD FLAT:??__ERMSG_GETCURRENTMODE@@YAXXZ ; RMSG_GETCURRENTMODE$initializer$
CRT$XCU	ENDS
; Function compile flags: /Ogtp
; File C:\Program Files (x86)\Microsoft Visual Studio\2019\Community\VC\Tools\MSVC\14.29.30133\atlmfc\include\afxtempl.h
;	COMDAT ??$CompareElements@II@@YGHPBI0@Z
_TEXT	SEGMENT
_pElement1$ = 8						; size = 4
_pElement2$ = 12					; size = 4
??$CompareElements@II@@YGHPBI0@Z PROC			; CompareElements<unsigned int,unsigned int>, COMDAT

; 151  : {

  00000	55		 push	 ebp
  00001	8b ec		 mov	 ebp, esp

; 152  : 	ENSURE(pElement1 != NULL && pElement2 != NULL);

  00003	8b 4d 08	 mov	 ecx, DWORD PTR _pElement1$[ebp]
  00006	85 c9		 test	 ecx, ecx
  00008	74 14		 je	 SHORT $LN7@CompareEle
  0000a	8b 55 0c	 mov	 edx, DWORD PTR _pElement2$[ebp]
  0000d	85 d2		 test	 edx, edx
  0000f	74 0d		 je	 SHORT $LN7@CompareEle

; 153  : 	ASSERT(AfxIsValidAddress(pElement1, sizeof(TYPE), FALSE));
; 154  : 	ASSERT(AfxIsValidAddress(pElement2, sizeof(ARG_TYPE), FALSE));
; 155  : 
; 156  : 	return *pElement1 == *pElement2;

  00011	8b 09		 mov	 ecx, DWORD PTR [ecx]
  00013	33 c0		 xor	 eax, eax
  00015	3b 0a		 cmp	 ecx, DWORD PTR [edx]
  00017	0f 94 c0	 sete	 al

; 157  : }

  0001a	5d		 pop	 ebp
  0001b	c2 08 00	 ret	 8
$LN7@CompareEle:

; 152  : 	ENSURE(pElement1 != NULL && pElement2 != NULL);

  0001e	e8 00 00 00 00	 call	 ?AfxThrowInvalidArgException@@YGXXZ ; AfxThrowInvalidArgException
$LN10@CompareEle:
  00023	cc		 int	 3
??$CompareElements@II@@YGHPBI0@Z ENDP			; CompareElements<unsigned int,unsigned int>
_TEXT	ENDS
; Function compile flags: /Ogtp
; File C:\Program Files (x86)\Microsoft Visual Studio\2019\Community\VC\Tools\MSVC\14.29.30133\atlmfc\include\afxtempl.h
; File C:\Program Files (x86)\Microsoft Visual Studio\2019\Community\VC\Tools\MSVC\14.29.30133\atlmfc\include\afx.inl
; File C:\Program Files (x86)\Microsoft Visual Studio\2019\Community\VC\Tools\MSVC\14.29.30133\atlmfc\include\afxtempl.h
; File C:\Program Files (x86)\Microsoft Visual Studio\2019\Community\VC\Tools\MSVC\14.29.30133\atlmfc\include\afx.inl
; File C:\Program Files (x86)\Microsoft Visual Studio\2019\Community\VC\Tools\MSVC\14.29.30133\atlmfc\include\afxtempl.h
; File C:\Program Files (x86)\Microsoft Visual Studio\2019\Community\VC\Tools\MSVC\14.29.30133\atlmfc\include\afx.inl
; File C:\Program Files (x86)\Microsoft Visual Studio\2019\Community\VC\Tools\MSVC\14.29.30133\atlmfc\include\afxtempl.h
;	COMDAT ??$SerializeElements@I@@YGXAAVCArchive@@PAIH@Z
_TEXT	SEGMENT
_ar$ = 8						; size = 4
_pElements$ = 12					; size = 4
_nCount$ = 16						; size = 4
??$SerializeElements@I@@YGXAAVCArchive@@PAIH@Z PROC	; SerializeElements<unsigned int>, COMDAT

; 67   : {

  00000	55		 push	 ebp
  00001	8b ec		 mov	 ebp, esp

; 68   : 	ENSURE(nCount == 0 || pElements != NULL);

  00003	8b 4d 0c	 mov	 ecx, DWORD PTR _pElements$[ebp]
  00006	53		 push	 ebx
  00007	56		 push	 esi
  00008	8b 75 10	 mov	 esi, DWORD PTR _nCount$[ebp]
  0000b	57		 push	 edi
  0000c	85 f6		 test	 esi, esi
  0000e	74 08		 je	 SHORT $LN2@SerializeE
  00010	85 c9		 test	 ecx, ecx
  00012	0f 84 89 00 00
	00		 je	 $LN34@SerializeE
$LN2@SerializeE:
; File C:\Program Files (x86)\Microsoft Visual Studio\2019\Community\VC\Tools\MSVC\14.29.30133\atlmfc\include\afx.inl

; 212  : 	{ return (m_nMode & CArchive::load) == 0; }

  00018	8b 55 08	 mov	 edx, DWORD PTR _ar$[ebp]
  0001b	8b 42 18	 mov	 eax, DWORD PTR [edx+24]
  0001e	f7 d0		 not	 eax
  00020	a8 01		 test	 al, 1
; File C:\Program Files (x86)\Microsoft Visual Studio\2019\Community\VC\Tools\MSVC\14.29.30133\atlmfc\include\afxtempl.h

; 73   : 	if (ar.IsStoring())

  00022	74 3c		 je	 SHORT $LN10@SerializeE

; 74   : 	{
; 75   : 		TYPE* pData;
; 76   : 		UINT_PTR nElementsLeft;
; 77   : 
; 78   : 		nElementsLeft = nCount;
; 79   : 		pData = pElements;
; 80   : 		while( nElementsLeft > 0 )

  00024	85 f6		 test	 esi, esi
  00026	74 31		 je	 SHORT $LN8@SerializeE
  00028	0f 1f 84 00 00
	00 00 00	 npad	 8
$LL5@SerializeE:

; 81   : 		{
; 82   : 			UINT nElementsToWrite;
; 83   : 
; 84   : 			nElementsToWrite = UINT(__min(nElementsLeft, INT_MAX/sizeof(TYPE)));

  00030	bb ff ff ff 1f	 mov	 ebx, 536870911		; 1fffffffH
  00035	3b f3		 cmp	 esi, ebx
  00037	0f 42 de	 cmovb	 ebx, esi

; 85   : 			ar.Write(pData, nElementsToWrite*sizeof(TYPE));

  0003a	8d 3c 9d 00 00
	00 00		 lea	 edi, DWORD PTR [ebx*4]
  00041	57		 push	 edi
  00042	51		 push	 ecx
  00043	8b ca		 mov	 ecx, edx
  00045	e8 00 00 00 00	 call	 ?Write@CArchive@@QAEXPBXI@Z ; CArchive::Write

; 86   : 			nElementsLeft -= nElementsToWrite;
; 87   : 			pData += nElementsToWrite;

  0004a	8b 4d 0c	 mov	 ecx, DWORD PTR _pElements$[ebp]
  0004d	8b 55 08	 mov	 edx, DWORD PTR _ar$[ebp]
  00050	03 cf		 add	 ecx, edi
  00052	89 4d 0c	 mov	 DWORD PTR _pElements$[ebp], ecx
  00055	2b f3		 sub	 esi, ebx
  00057	75 d7		 jne	 SHORT $LL5@SerializeE
$LN8@SerializeE:
  00059	5f		 pop	 edi

; 105  : 		}
; 106  : 	}
; 107  : }

  0005a	5e		 pop	 esi
  0005b	5b		 pop	 ebx
  0005c	5d		 pop	 ebp
  0005d	c2 0c 00	 ret	 12			; 0000000cH
$LN10@SerializeE:

; 97   : 		while( nElementsLeft > 0 )

  00060	85 f6		 test	 esi, esi
  00062	74 f5		 je	 SHORT $LN8@SerializeE
$LL7@SerializeE:

; 98   : 		{
; 99   : 			UINT nElementsToRead;
; 100  : 
; 101  : 			nElementsToRead = UINT(__min(nElementsLeft, INT_MAX/sizeof(TYPE)));

  00064	bf ff ff ff 1f	 mov	 edi, 536870911		; 1fffffffH
  00069	3b f7		 cmp	 esi, edi
  0006b	0f 42 fe	 cmovb	 edi, esi

; 102  : 			ar.EnsureRead(pData, nElementsToRead*sizeof(TYPE));

  0006e	8d 1c bd 00 00
	00 00		 lea	 ebx, DWORD PTR [edi*4]
; File C:\Program Files (x86)\Microsoft Visual Studio\2019\Community\VC\Tools\MSVC\14.29.30133\atlmfc\include\afx.inl

; 399  : 	UINT nRead=Read(lpBuf, nCount);

  00075	53		 push	 ebx
  00076	51		 push	 ecx
  00077	8b ca		 mov	 ecx, edx
  00079	e8 00 00 00 00	 call	 ?Read@CArchive@@QAEIPAXI@Z ; CArchive::Read

; 400  : 	if(nRead!=nCount)

  0007e	3b c3		 cmp	 eax, ebx
  00080	75 16		 jne	 SHORT $LN23@SerializeE
; File C:\Program Files (x86)\Microsoft Visual Studio\2019\Community\VC\Tools\MSVC\14.29.30133\atlmfc\include\afxtempl.h

; 97   : 		while( nElementsLeft > 0 )

  00082	8b 4d 0c	 mov	 ecx, DWORD PTR _pElements$[ebp]
  00085	8b 55 08	 mov	 edx, DWORD PTR _ar$[ebp]

; 103  : 			nElementsLeft -= nElementsToRead;
; 104  : 			pData += nElementsToRead;

  00088	03 cb		 add	 ecx, ebx
  0008a	89 4d 0c	 mov	 DWORD PTR _pElements$[ebp], ecx
  0008d	2b f7		 sub	 esi, edi
  0008f	75 d3		 jne	 SHORT $LL7@SerializeE

; 105  : 		}
; 106  : 	}
; 107  : }

  00091	5f		 pop	 edi
  00092	5e		 pop	 esi
  00093	5b		 pop	 ebx
  00094	5d		 pop	 ebp
  00095	c2 0c 00	 ret	 12			; 0000000cH
$LN23@SerializeE:
; File C:\Program Files (x86)\Microsoft Visual Studio\2019\Community\VC\Tools\MSVC\14.29.30133\atlmfc\include\afx.inl

; 402  : 		AfxThrowArchiveException(CArchiveException::endOfFile);

  00098	6a 00		 push	 0
  0009a	6a 03		 push	 3
  0009c	e8 00 00 00 00	 call	 ?AfxThrowArchiveException@@YGXHPBD@Z ; AfxThrowArchiveException
$LN34@SerializeE:
; File C:\Program Files (x86)\Microsoft Visual Studio\2019\Community\VC\Tools\MSVC\14.29.30133\atlmfc\include\afxtempl.h

; 68   : 	ENSURE(nCount == 0 || pElements != NULL);

  000a1	e8 00 00 00 00	 call	 ?AfxThrowInvalidArgException@@YGXXZ ; AfxThrowInvalidArgException
$LN32@SerializeE:
  000a6	cc		 int	 3
??$SerializeElements@I@@YGXAAVCArchive@@PAIH@Z ENDP	; SerializeElements<unsigned int>
_TEXT	ENDS
; Function compile flags: /Ogtp
; File D:\git\src\IBK\IBK_DRFN\ProjSrc\SrcDrfn\Chart\MULTICHART\ExtInputBarDlg.cpp
;	COMDAT ??__ERMSG_GETCURRENTMODE@@YAXXZ
text$di	SEGMENT
??__ERMSG_GETCURRENTMODE@@YAXXZ PROC			; `dynamic initializer for 'RMSG_GETCURRENTMODE'', COMDAT

; 28   : const UINT RMSG_GETCURRENTMODE = ::RegisterWindowMessage("RMSG_GETCURRENTMODE");

  00000	68 00 00 00 00	 push	 OFFSET ??_C@_0BE@FJGLHLFN@RMSG_GETCURRENTMODE@
  00005	ff 15 00 00 00
	00		 call	 DWORD PTR __imp__RegisterWindowMessageA@4
  0000b	a3 00 00 00 00	 mov	 DWORD PTR ?RMSG_GETCURRENTMODE@@3IB, eax
  00010	c3		 ret	 0
??__ERMSG_GETCURRENTMODE@@YAXXZ ENDP			; `dynamic initializer for 'RMSG_GETCURRENTMODE''
text$di	ENDS
; Function compile flags: /Ogtp
; File D:\git\src\IBK\IBK_DRFN\ProjSrc\SrcDrfn\Chart\MULTICHART\ExtInputBarDlg.cpp
;	COMDAT ??__ERMSG_GET_CONTROLHANDLE@@YAXXZ
text$di	SEGMENT
??__ERMSG_GET_CONTROLHANDLE@@YAXXZ PROC			; `dynamic initializer for 'RMSG_GET_CONTROLHANDLE'', COMDAT

; 26   : const UINT RMSG_GET_CONTROLHANDLE = ::RegisterWindowMessage(_T("RMSG_GET_CONTROLHANDLE"));

  00000	68 00 00 00 00	 push	 OFFSET ??_C@_0BH@KFIGLKAC@RMSG_GET_CONTROLHANDLE@
  00005	ff 15 00 00 00
	00		 call	 DWORD PTR __imp__RegisterWindowMessageA@4
  0000b	a3 00 00 00 00	 mov	 DWORD PTR ?RMSG_GET_CONTROLHANDLE@@3IB, eax
  00010	c3		 ret	 0
??__ERMSG_GET_CONTROLHANDLE@@YAXXZ ENDP			; `dynamic initializer for 'RMSG_GET_CONTROLHANDLE''
text$di	ENDS
; Function compile flags: /Ogtp
; File D:\git\src\IBK\IBK_DRFN\ProjSrc\SrcDrfn\Chart\MULTICHART\ExtInputBarDlg.cpp
;	COMDAT ??__ERMSG_OPENCHARTCONFIG@@YAXXZ
text$di	SEGMENT
??__ERMSG_OPENCHARTCONFIG@@YAXXZ PROC			; `dynamic initializer for 'RMSG_OPENCHARTCONFIG'', COMDAT

; 25   : const UINT RMSG_OPENCHARTCONFIG = ::RegisterWindowMessage(_T("RMSG_OPENCHARTCONFIG"));

  00000	68 00 00 00 00	 push	 OFFSET ??_C@_0BF@CFCBGLOI@RMSG_OPENCHARTCONFIG@
  00005	ff 15 00 00 00
	00		 call	 DWORD PTR __imp__RegisterWindowMessageA@4
  0000b	a3 00 00 00 00	 mov	 DWORD PTR ?RMSG_OPENCHARTCONFIG@@3IB, eax
  00010	c3		 ret	 0
??__ERMSG_OPENCHARTCONFIG@@YAXXZ ENDP			; `dynamic initializer for 'RMSG_OPENCHARTCONFIG''
text$di	ENDS
; Function compile flags: /Ogtp
; File D:\git\src\IBK\IBK_DRFN\ProjSrc\SrcDrfn\Chart\MULTICHART\ExtInputBarDlg.cpp
;	COMDAT ??__ERMSG_PRINTSCREEN@@YAXXZ
text$di	SEGMENT
??__ERMSG_PRINTSCREEN@@YAXXZ PROC			; `dynamic initializer for 'RMSG_PRINTSCREEN'', COMDAT

; 24   : const UINT RMSG_PRINTSCREEN = ::RegisterWindowMessage(_T("RMSG_PRINTSCREEN"));

  00000	68 00 00 00 00	 push	 OFFSET ??_C@_0BB@MOBMECFH@RMSG_PRINTSCREEN@
  00005	ff 15 00 00 00
	00		 call	 DWORD PTR __imp__RegisterWindowMessageA@4
  0000b	a3 00 00 00 00	 mov	 DWORD PTR ?RMSG_PRINTSCREEN@@3IB, eax
  00010	c3		 ret	 0
??__ERMSG_PRINTSCREEN@@YAXXZ ENDP			; `dynamic initializer for 'RMSG_PRINTSCREEN''
text$di	ENDS
; Function compile flags: /Ogtp
; File D:\git\src\IBK\IBK_DRFN\ProjSrc\SrcDrfn\Chart\MULTICHART\ExtInputBarDlg.cpp
;	COMDAT ??__ERMSG_GETOPENEDOWNER@@YAXXZ
text$di	SEGMENT
??__ERMSG_GETOPENEDOWNER@@YAXXZ PROC			; `dynamic initializer for 'RMSG_GETOPENEDOWNER'', COMDAT

; 23   : const UINT RMSG_GETOPENEDOWNER = ::RegisterWindowMessage(_T("RMSG_GETOPENEDOWNER"));

  00000	68 00 00 00 00	 push	 OFFSET ??_C@_0BE@PJHMBKJL@RMSG_GETOPENEDOWNER@
  00005	ff 15 00 00 00
	00		 call	 DWORD PTR __imp__RegisterWindowMessageA@4
  0000b	a3 00 00 00 00	 mov	 DWORD PTR ?RMSG_GETOPENEDOWNER@@3IB, eax
  00010	c3		 ret	 0
??__ERMSG_GETOPENEDOWNER@@YAXXZ ENDP			; `dynamic initializer for 'RMSG_GETOPENEDOWNER''
text$di	ENDS
; Function compile flags: /Ogtp
; File C:\Program Files (x86)\Microsoft Visual Studio\2019\Community\VC\Tools\MSVC\14.29.30133\atlmfc\include\atlcomcli.h
;	COMDAT ??_Estringdispid@CComTypeInfoHolder@ATL@@QAEPAXI@Z
_TEXT	SEGMENT
__$EHRec$ = -12						; size = 12
___flags$ = 8						; size = 4
??_Estringdispid@CComTypeInfoHolder@ATL@@QAEPAXI@Z PROC	; ATL::CComTypeInfoHolder::stringdispid::`vector deleting destructor', COMDAT
; _this$ = ecx
  00000	55		 push	 ebp
  00001	8b ec		 mov	 ebp, esp
  00003	6a ff		 push	 -1
  00005	68 00 00 00 00	 push	 __ehhandler$??_Estringdispid@CComTypeInfoHolder@ATL@@QAEPAXI@Z
  0000a	64 a1 00 00 00
	00		 mov	 eax, DWORD PTR fs:0
  00010	50		 push	 eax
  00011	53		 push	 ebx
  00012	56		 push	 esi
  00013	57		 push	 edi
  00014	a1 00 00 00 00	 mov	 eax, DWORD PTR ___security_cookie
  00019	33 c5		 xor	 eax, ebp
  0001b	50		 push	 eax
  0001c	8d 45 f4	 lea	 eax, DWORD PTR __$EHRec$[ebp]
  0001f	64 a3 00 00 00
	00		 mov	 DWORD PTR fs:0, eax
  00025	8b f1		 mov	 esi, ecx
  00027	8b 45 08	 mov	 eax, DWORD PTR ___flags$[ebp]
  0002a	8b d8		 mov	 ebx, eax
  0002c	83 e3 01	 and	 ebx, 1
  0002f	a8 02		 test	 al, 2
  00031	74 43		 je	 SHORT $LN2@vector
  00033	68 00 00 00 00	 push	 OFFSET ??1stringdispid@CComTypeInfoHolder@ATL@@QAE@XZ
  00038	ff 76 fc	 push	 DWORD PTR [esi-4]
  0003b	8d 7e fc	 lea	 edi, DWORD PTR [esi-4]
  0003e	6a 0c		 push	 12			; 0000000cH
  00040	56		 push	 esi
  00041	e8 00 00 00 00	 call	 ??_M@YGXPAXIIP6EX0@Z@Z
  00046	85 db		 test	 ebx, ebx
  00048	74 16		 je	 SHORT $LN3@vector
  0004a	8b 0f		 mov	 ecx, DWORD PTR [edi]
  0004c	8d 0c 49	 lea	 ecx, DWORD PTR [ecx+ecx*2]
  0004f	8d 0c 8d 04 00
	00 00		 lea	 ecx, DWORD PTR [ecx*4+4]
  00056	51		 push	 ecx
  00057	57		 push	 edi
  00058	e8 00 00 00 00	 call	 ??_V@YAXPAXI@Z		; operator delete[]
  0005d	83 c4 08	 add	 esp, 8
$LN3@vector:
  00060	8b c7		 mov	 eax, edi
  00062	8b 4d f4	 mov	 ecx, DWORD PTR __$EHRec$[ebp]
  00065	64 89 0d 00 00
	00 00		 mov	 DWORD PTR fs:0, ecx
  0006c	59		 pop	 ecx
  0006d	5f		 pop	 edi
  0006e	5e		 pop	 esi
  0006f	5b		 pop	 ebx
  00070	8b e5		 mov	 esp, ebp
  00072	5d		 pop	 ebp
  00073	c2 04 00	 ret	 4
$LN2@vector:

; 1680 :     ::SysFreeString(m_str);

  00076	ff 36		 push	 DWORD PTR [esi]
  00078	ff 15 00 00 00
	00		 call	 DWORD PTR __imp__SysFreeString@4
  0007e	85 db		 test	 ebx, ebx
  00080	74 0b		 je	 SHORT $LN4@vector
  00082	6a 0c		 push	 12			; 0000000cH
  00084	56		 push	 esi
  00085	e8 00 00 00 00	 call	 ??3@YAXPAXI@Z		; operator delete
  0008a	83 c4 08	 add	 esp, 8
$LN4@vector:
  0008d	8b c6		 mov	 eax, esi
  0008f	8b 4d f4	 mov	 ecx, DWORD PTR __$EHRec$[ebp]
  00092	64 89 0d 00 00
	00 00		 mov	 DWORD PTR fs:0, ecx
  00099	59		 pop	 ecx
  0009a	5f		 pop	 edi
  0009b	5e		 pop	 esi
  0009c	5b		 pop	 ebx
  0009d	8b e5		 mov	 esp, ebp
  0009f	5d		 pop	 ebp
  000a0	c2 04 00	 ret	 4
  000a3	cc		 int	 3
  000a4	cc		 int	 3
  000a5	cc		 int	 3
  000a6	cc		 int	 3
  000a7	cc		 int	 3
_TEXT	ENDS
;	COMDAT text$x
text$x	SEGMENT
__ehhandler$??_Estringdispid@CComTypeInfoHolder@ATL@@QAEPAXI@Z:
  00000	90		 npad	 1
  00001	90		 npad	 1
  00002	8b 54 24 08	 mov	 edx, DWORD PTR [esp+8]
  00006	8d 42 0c	 lea	 eax, DWORD PTR [edx+12]
  00009	8b 4a f0	 mov	 ecx, DWORD PTR [edx-16]
  0000c	33 c8		 xor	 ecx, eax
  0000e	e8 00 00 00 00	 call	 @__security_check_cookie@4
  00013	b8 00 00 00 00	 mov	 eax, OFFSET __ehfuncinfo$??_Estringdispid@CComTypeInfoHolder@ATL@@QAEPAXI@Z
  00018	e9 00 00 00 00	 jmp	 ___CxxFrameHandler3
text$x	ENDS
??_Estringdispid@CComTypeInfoHolder@ATL@@QAEPAXI@Z ENDP	; ATL::CComTypeInfoHolder::stringdispid::`vector deleting destructor'
; Function compile flags: /Ogtp
; File C:\Program Files (x86)\Microsoft Visual Studio\2019\Community\VC\Tools\MSVC\14.29.30133\atlmfc\include\atlcomcli.h
;	COMDAT ??1stringdispid@CComTypeInfoHolder@ATL@@QAE@XZ
_TEXT	SEGMENT
??1stringdispid@CComTypeInfoHolder@ATL@@QAE@XZ PROC	; ATL::CComTypeInfoHolder::stringdispid::~stringdispid, COMDAT
; _this$ = ecx

; 1680 :     ::SysFreeString(m_str);

  00000	ff 31		 push	 DWORD PTR [ecx]
  00002	ff 15 00 00 00
	00		 call	 DWORD PTR __imp__SysFreeString@4
  00008	c3		 ret	 0
??1stringdispid@CComTypeInfoHolder@ATL@@QAE@XZ ENDP	; ATL::CComTypeInfoHolder::stringdispid::~stringdispid
_TEXT	ENDS
; Function compile flags: /Ogtp
; File D:\git\src\IBK\IBK_DRFN\ProjSrc\SrcDrfn\Chart\chart_common\ReplayChartInfoDef.h
;	COMDAT ??__ERMSG_REPLAY_TOTAL_SEC@@YAXXZ
text$di	SEGMENT
??__ERMSG_REPLAY_TOTAL_SEC@@YAXXZ PROC			; `dynamic initializer for 'RMSG_REPLAY_TOTAL_SEC'', COMDAT

; 97   : 	const UINT RMSG_REPLAY_TOTAL_SEC = ::RegisterWindowMessage(_T("RMSG_REPLAY_TOTAL_SEC"));		//  () 

  00000	68 00 00 00 00	 push	 OFFSET ??_C@_0BG@GIAJEIJF@RMSG_REPLAY_TOTAL_SEC@
  00005	ff 15 00 00 00
	00		 call	 DWORD PTR __imp__RegisterWindowMessageA@4
  0000b	a3 00 00 00 00	 mov	 DWORD PTR ?RMSG_REPLAY_TOTAL_SEC@@3IB, eax
  00010	c3		 ret	 0
??__ERMSG_REPLAY_TOTAL_SEC@@YAXXZ ENDP			; `dynamic initializer for 'RMSG_REPLAY_TOTAL_SEC''
text$di	ENDS
; Function compile flags: /Ogtp
; File D:\git\src\IBK\IBK_DRFN\ProjSrc\SrcDrfn\Chart\chart_common\ReplayChartInfoDef.h
;	COMDAT ??__ERMSG_REPLAY_INC_SEC@@YAXXZ
text$di	SEGMENT
??__ERMSG_REPLAY_INC_SEC@@YAXXZ PROC			; `dynamic initializer for 'RMSG_REPLAY_INC_SEC'', COMDAT

; 96   : 	const UINT RMSG_REPLAY_INC_SEC = ::RegisterWindowMessage(_T("RMSG_REPLAY_INC_SEC"));			// 1   

  00000	68 00 00 00 00	 push	 OFFSET ??_C@_0BE@JFCIMCIP@RMSG_REPLAY_INC_SEC@
  00005	ff 15 00 00 00
	00		 call	 DWORD PTR __imp__RegisterWindowMessageA@4
  0000b	a3 00 00 00 00	 mov	 DWORD PTR ?RMSG_REPLAY_INC_SEC@@3IB, eax
  00010	c3		 ret	 0
??__ERMSG_REPLAY_INC_SEC@@YAXXZ ENDP			; `dynamic initializer for 'RMSG_REPLAY_INC_SEC''
text$di	ENDS
; Function compile flags: /Ogtp
; File D:\git\src\IBK\IBK_DRFN\ProjSrc\SrcDrfn\Chart\chart_common\ReplayChartInfoDef.h
;	COMDAT ??__ERMSG_REPLAY_END@@YAXXZ
text$di	SEGMENT
??__ERMSG_REPLAY_END@@YAXXZ PROC			; `dynamic initializer for 'RMSG_REPLAY_END'', COMDAT

; 95   : 	const UINT RMSG_REPLAY_END			= ::RegisterWindowMessage(_T("RMSG_REPLAY_END"));

  00000	68 00 00 00 00	 push	 OFFSET ??_C@_0BA@NKHHCPON@RMSG_REPLAY_END@
  00005	ff 15 00 00 00
	00		 call	 DWORD PTR __imp__RegisterWindowMessageA@4
  0000b	a3 00 00 00 00	 mov	 DWORD PTR ?RMSG_REPLAY_END@@3IB, eax
  00010	c3		 ret	 0
??__ERMSG_REPLAY_END@@YAXXZ ENDP			; `dynamic initializer for 'RMSG_REPLAY_END''
text$di	ENDS
; Function compile flags: /Ogtp
; File D:\git\src\IBK\IBK_DRFN\ProjSrc\SrcDrfn\Chart\chart_common\ReplayChartInfoDef.h
;	COMDAT ??__ERMSG_REPLAY_CHANGE_DATE@@YAXXZ
text$di	SEGMENT
??__ERMSG_REPLAY_CHANGE_DATE@@YAXXZ PROC		; `dynamic initializer for 'RMSG_REPLAY_CHANGE_DATE'', COMDAT

; 94   : 	const UINT RMSG_REPLAY_CHANGE_DATE	= ::RegisterWindowMessage(_T("RMSG_REPLAY_CHANGE_DATE"));

  00000	68 00 00 00 00	 push	 OFFSET ??_C@_0BI@KDGAIIMD@RMSG_REPLAY_CHANGE_DATE@
  00005	ff 15 00 00 00
	00		 call	 DWORD PTR __imp__RegisterWindowMessageA@4
  0000b	a3 00 00 00 00	 mov	 DWORD PTR ?RMSG_REPLAY_CHANGE_DATE@@3IB, eax
  00010	c3		 ret	 0
??__ERMSG_REPLAY_CHANGE_DATE@@YAXXZ ENDP		; `dynamic initializer for 'RMSG_REPLAY_CHANGE_DATE''
text$di	ENDS
; Function compile flags: /Ogtp
; File D:\git\src\IBK\IBK_DRFN\ProjSrc\SrcDrfn\Chart\chart_common\ReplayChartInfoDef.h
;	COMDAT ??__ERMSG_REPLAY_FAIL@@YAXXZ
text$di	SEGMENT
??__ERMSG_REPLAY_FAIL@@YAXXZ PROC			; `dynamic initializer for 'RMSG_REPLAY_FAIL'', COMDAT

; 93   : 	const UINT RMSG_REPLAY_FAIL			= ::RegisterWindowMessage(_T("RMSG_REPLAY_FAIL"));

  00000	68 00 00 00 00	 push	 OFFSET ??_C@_0BB@JFLGBADG@RMSG_REPLAY_FAIL@
  00005	ff 15 00 00 00
	00		 call	 DWORD PTR __imp__RegisterWindowMessageA@4
  0000b	a3 00 00 00 00	 mov	 DWORD PTR ?RMSG_REPLAY_FAIL@@3IB, eax
  00010	c3		 ret	 0
??__ERMSG_REPLAY_FAIL@@YAXXZ ENDP			; `dynamic initializer for 'RMSG_REPLAY_FAIL''
text$di	ENDS
; Function compile flags: /Ogtp
; File D:\git\src\IBK\IBK_DRFN\ProjSrc\SrcDrfn\Chart\chart_common\ReplayChartInfoDef.h
;	COMDAT ??__ERMSG_REPLAY_REAL@@YAXXZ
text$di	SEGMENT
??__ERMSG_REPLAY_REAL@@YAXXZ PROC			; `dynamic initializer for 'RMSG_REPLAY_REAL'', COMDAT

; 92   : 	const UINT RMSG_REPLAY_REAL			= ::RegisterWindowMessage(_T("RMSG_REPLAY_REAL"));

  00000	68 00 00 00 00	 push	 OFFSET ??_C@_0BB@IBKHOHJL@RMSG_REPLAY_REAL@
  00005	ff 15 00 00 00
	00		 call	 DWORD PTR __imp__RegisterWindowMessageA@4
  0000b	a3 00 00 00 00	 mov	 DWORD PTR ?RMSG_REPLAY_REAL@@3IB, eax
  00010	c3		 ret	 0
??__ERMSG_REPLAY_REAL@@YAXXZ ENDP			; `dynamic initializer for 'RMSG_REPLAY_REAL''
text$di	ENDS
; Function compile flags: /Ogtp
; File C:\Program Files (x86)\Microsoft Visual Studio\2019\Community\VC\Tools\MSVC\14.29.30133\atlmfc\include\afx.inl
;	COMDAT ??_GCExtInputBarDlg@@UAEPAXI@Z
_TEXT	SEGMENT
___flags$ = 8						; size = 4
??_GCExtInputBarDlg@@UAEPAXI@Z PROC			; CExtInputBarDlg::`scalar deleting destructor', COMDAT
; _this$ = ecx
  00000	55		 push	 ebp
  00001	8b ec		 mov	 ebp, esp
  00003	56		 push	 esi
  00004	8b f1		 mov	 esi, ecx
  00006	e8 00 00 00 00	 call	 ??1CExtInputBarDlg@@UAE@XZ
  0000b	8b 45 08	 mov	 eax, DWORD PTR ___flags$[ebp]
  0000e	a8 01		 test	 al, 1
  00010	74 22		 je	 SHORT $LN9@scalar
  00012	a8 04		 test	 al, 4
  00014	75 10		 jne	 SHORT $LN3@scalar

; 112  : 	{ ::operator delete(p); }

  00016	56		 push	 esi
  00017	e8 00 00 00 00	 call	 ??3@YAXPAX@Z		; operator delete
  0001c	83 c4 04	 add	 esp, 4
  0001f	8b c6		 mov	 eax, esi
  00021	5e		 pop	 esi
  00022	5d		 pop	 ebp
  00023	c2 04 00	 ret	 4
$LN3@scalar:
  00026	68 58 33 00 00	 push	 13144			; 00003358H
  0002b	56		 push	 esi
  0002c	e8 00 00 00 00	 call	 ?__global_delete@@YAXPAXI@Z ; __global_delete
  00031	83 c4 08	 add	 esp, 8
$LN9@scalar:
  00034	8b c6		 mov	 eax, esi
  00036	5e		 pop	 esi
  00037	5d		 pop	 ebp
  00038	c2 04 00	 ret	 4
??_GCExtInputBarDlg@@UAEPAXI@Z ENDP			; CExtInputBarDlg::`scalar deleting destructor'
_TEXT	ENDS
; Function compile flags: /Ogtp
; File C:\Program Files (x86)\Microsoft Visual Studio\2019\Community\VC\Tools\MSVC\14.29.30133\atlmfc\include\afxtempl.h
; File C:\Program Files (x86)\Microsoft Visual Studio\2019\Community\VC\Tools\MSVC\14.29.30133\atlmfc\include\afxwin1.inl
;	COMDAT ??1CExtInputBarDlg@@UAE@XZ
_TEXT	SEGMENT
__$EHRec$ = -12						; size = 12
??1CExtInputBarDlg@@UAE@XZ PROC				; CExtInputBarDlg::~CExtInputBarDlg, COMDAT
; _this$ = ecx
  00000	55		 push	 ebp
  00001	8b ec		 mov	 ebp, esp
  00003	6a ff		 push	 -1
  00005	68 00 00 00 00	 push	 __ehhandler$??1CExtInputBarDlg@@UAE@XZ
  0000a	64 a1 00 00 00
	00		 mov	 eax, DWORD PTR fs:0
  00010	50		 push	 eax
  00011	56		 push	 esi
  00012	a1 00 00 00 00	 mov	 eax, DWORD PTR ___security_cookie
  00017	33 c5		 xor	 eax, ebp
  00019	50		 push	 eax
  0001a	8d 45 f4	 lea	 eax, DWORD PTR __$EHRec$[ebp]
  0001d	64 a3 00 00 00
	00		 mov	 DWORD PTR fs:0, eax
  00023	8b f1		 mov	 esi, ecx
  00025	8d 8e 30 33 00
	00		 lea	 ecx, DWORD PTR [esi+13104]
; File C:\Program Files (x86)\Microsoft Visual Studio\2019\Community\VC\Tools\MSVC\14.29.30133\atlmfc\include\afxtempl.h

; 1472 : {

  0002b	c7 45 fc 00 00
	00 00		 mov	 DWORD PTR __$EHRec$[ebp+8], 0
  00032	c7 01 00 00 00
	00		 mov	 DWORD PTR [ecx], OFFSET ??_7?$CMap@IIV?$CStringT@DV?$StrTraitMFC_DLL@DV?$ChTraitsCRT@D@ATL@@@@@ATL@@PBD@@6B@

; 1473 : 	RemoveAll();

  00038	e8 00 00 00 00	 call	 ?RemoveAll@?$CMap@IIV?$CStringT@DV?$StrTraitMFC_DLL@DV?$ChTraitsCRT@D@ATL@@@@@ATL@@PBD@@QAEXXZ ; CMap<unsigned int,unsigned int,ATL::CStringT<char,StrTraitMFC_DLL<char,ATL::ChTraitsCRT<char> > >,char const *>::RemoveAll
  0003d	8d 8e f4 32 00
	00		 lea	 ecx, DWORD PTR [esi+13044]
  00043	ff 15 00 00 00
	00		 call	 DWORD PTR __imp_??1?$CStringT@DV?$StrTraitMFC_DLL@DV?$ChTraitsCRT@D@ATL@@@@@ATL@@QAE@XZ
  00049	8d 8e e8 32 00
	00		 lea	 ecx, DWORD PTR [esi+13032]
; File C:\Program Files (x86)\Microsoft Visual Studio\2019\Community\VC\Tools\MSVC\14.29.30133\atlmfc\include\afxwin1.inl

; 130  : 	{ }

  0004f	c7 01 00 00 00
	00		 mov	 DWORD PTR [ecx], OFFSET ??_7CBrush@@6B@
  00055	e8 00 00 00 00	 call	 ??1CGdiObject@@UAE@XZ	; CGdiObject::~CGdiObject
  0005a	8d 8e e0 31 00
	00		 lea	 ecx, DWORD PTR [esi+12768]
  00060	e8 00 00 00 00	 call	 ??1CDialog@@UAE@XZ	; CDialog::~CDialog
  00065	8d 8e 58 31 00
	00		 lea	 ecx, DWORD PTR [esi+12632]
  0006b	e8 00 00 00 00	 call	 ??1CButton@@UAE@XZ	; CButton::~CButton
  00070	8d 8e d0 30 00
	00		 lea	 ecx, DWORD PTR [esi+12496]
  00076	e8 00 00 00 00	 call	 ??1CExComboBox@@UAE@XZ	; CExComboBox::~CExComboBox
  0007b	8d 8e 70 2f 00
	00		 lea	 ecx, DWORD PTR [esi+12144]
  00081	e8 00 00 00 00	 call	 ??1CILButton@@UAE@XZ	; CILButton::~CILButton
  00086	8d 8e e8 2e 00
	00		 lea	 ecx, DWORD PTR [esi+12008]
  0008c	e8 00 00 00 00	 call	 ??1CButton@@UAE@XZ	; CButton::~CButton
  00091	8d 8e 88 2d 00
	00		 lea	 ecx, DWORD PTR [esi+11656]
  00097	e8 00 00 00 00	 call	 ??1CILButton@@UAE@XZ	; CILButton::~CILButton
  0009c	8d 8e 08 2d 00
	00		 lea	 ecx, DWORD PTR [esi+11528]
  000a2	e8 00 00 00 00	 call	 ??1CStatic@@UAE@XZ	; CStatic::~CStatic
  000a7	8d 8e 88 2c 00
	00		 lea	 ecx, DWORD PTR [esi+11400]
  000ad	e8 00 00 00 00	 call	 ??1CStatic@@UAE@XZ	; CStatic::~CStatic
  000b2	8d 8e 28 2b 00
	00		 lea	 ecx, DWORD PTR [esi+11048]
  000b8	e8 00 00 00 00	 call	 ??1CILButton@@UAE@XZ	; CILButton::~CILButton
  000bd	8d 8e c8 29 00
	00		 lea	 ecx, DWORD PTR [esi+10696]
  000c3	e8 00 00 00 00	 call	 ??1CILButton@@UAE@XZ	; CILButton::~CILButton
  000c8	8d 8e 68 28 00
	00		 lea	 ecx, DWORD PTR [esi+10344]
  000ce	e8 00 00 00 00	 call	 ??1CILButton@@UAE@XZ	; CILButton::~CILButton
  000d3	8d 8e 08 27 00
	00		 lea	 ecx, DWORD PTR [esi+9992]
  000d9	e8 00 00 00 00	 call	 ??1CILButton@@UAE@XZ	; CILButton::~CILButton
  000de	8d 8e a8 25 00
	00		 lea	 ecx, DWORD PTR [esi+9640]
  000e4	e8 00 00 00 00	 call	 ??1CILButton@@UAE@XZ	; CILButton::~CILButton
  000e9	8d 8e 48 24 00
	00		 lea	 ecx, DWORD PTR [esi+9288]
  000ef	e8 00 00 00 00	 call	 ??1CILButton@@UAE@XZ	; CILButton::~CILButton
  000f4	8d 8e e8 22 00
	00		 lea	 ecx, DWORD PTR [esi+8936]
  000fa	e8 00 00 00 00	 call	 ??1CILButton@@UAE@XZ	; CILButton::~CILButton
  000ff	8d 8e 88 21 00
	00		 lea	 ecx, DWORD PTR [esi+8584]
  00105	e8 00 00 00 00	 call	 ??1CILButton@@UAE@XZ	; CILButton::~CILButton
  0010a	8d 8e 28 20 00
	00		 lea	 ecx, DWORD PTR [esi+8232]
  00110	e8 00 00 00 00	 call	 ??1CILButton@@UAE@XZ	; CILButton::~CILButton
  00115	8d 8e c8 1e 00
	00		 lea	 ecx, DWORD PTR [esi+7880]
  0011b	e8 00 00 00 00	 call	 ??1CILButton@@UAE@XZ	; CILButton::~CILButton
  00120	8d 8e 68 1d 00
	00		 lea	 ecx, DWORD PTR [esi+7528]
  00126	e8 00 00 00 00	 call	 ??1CILButton@@UAE@XZ	; CILButton::~CILButton
  0012b	8d 8e 08 1c 00
	00		 lea	 ecx, DWORD PTR [esi+7176]
  00131	e8 00 00 00 00	 call	 ??1CILButton@@UAE@XZ	; CILButton::~CILButton
  00136	8d 8e a8 1a 00
	00		 lea	 ecx, DWORD PTR [esi+6824]
  0013c	e8 00 00 00 00	 call	 ??1CILButton@@UAE@XZ	; CILButton::~CILButton
  00141	8d 8e 48 19 00
	00		 lea	 ecx, DWORD PTR [esi+6472]
  00147	e8 00 00 00 00	 call	 ??1CILButton@@UAE@XZ	; CILButton::~CILButton
  0014c	8d 8e e8 17 00
	00		 lea	 ecx, DWORD PTR [esi+6120]
  00152	e8 00 00 00 00	 call	 ??1CILButton@@UAE@XZ	; CILButton::~CILButton
  00157	8d 8e 88 16 00
	00		 lea	 ecx, DWORD PTR [esi+5768]
  0015d	e8 00 00 00 00	 call	 ??1CILButton@@UAE@XZ	; CILButton::~CILButton
  00162	8d 8e 28 15 00
	00		 lea	 ecx, DWORD PTR [esi+5416]
  00168	e8 00 00 00 00	 call	 ??1CILButton@@UAE@XZ	; CILButton::~CILButton
  0016d	8d 8e c8 13 00
	00		 lea	 ecx, DWORD PTR [esi+5064]
  00173	e8 00 00 00 00	 call	 ??1CILButton@@UAE@XZ	; CILButton::~CILButton
  00178	8d 8e 68 12 00
	00		 lea	 ecx, DWORD PTR [esi+4712]
  0017e	e8 00 00 00 00	 call	 ??1CILButton@@UAE@XZ	; CILButton::~CILButton
  00183	8d 8e 08 11 00
	00		 lea	 ecx, DWORD PTR [esi+4360]
  00189	e8 00 00 00 00	 call	 ??1CILButton@@UAE@XZ	; CILButton::~CILButton
  0018e	8d 8e a8 0f 00
	00		 lea	 ecx, DWORD PTR [esi+4008]
  00194	e8 00 00 00 00	 call	 ??1CILButton@@UAE@XZ	; CILButton::~CILButton
  00199	8d 8e 28 0f 00
	00		 lea	 ecx, DWORD PTR [esi+3880]
  0019f	e8 00 00 00 00	 call	 ??1CButton@@UAE@XZ	; CButton::~CButton
  001a4	8d 8e c8 0d 00
	00		 lea	 ecx, DWORD PTR [esi+3528]
  001aa	e8 00 00 00 00	 call	 ??1CILButton@@UAE@XZ	; CILButton::~CILButton
  001af	8d 8e 68 0c 00
	00		 lea	 ecx, DWORD PTR [esi+3176]
  001b5	e8 00 00 00 00	 call	 ??1CILButton@@UAE@XZ	; CILButton::~CILButton
  001ba	8d 8e 08 0b 00
	00		 lea	 ecx, DWORD PTR [esi+2824]
  001c0	e8 00 00 00 00	 call	 ??1CILButton@@UAE@XZ	; CILButton::~CILButton
  001c5	8d 8e a8 09 00
	00		 lea	 ecx, DWORD PTR [esi+2472]
  001cb	e8 00 00 00 00	 call	 ??1CILButton@@UAE@XZ	; CILButton::~CILButton
  001d0	8d 8e 48 08 00
	00		 lea	 ecx, DWORD PTR [esi+2120]
  001d6	e8 00 00 00 00	 call	 ??1CILButton@@UAE@XZ	; CILButton::~CILButton
  001db	8d 8e e8 06 00
	00		 lea	 ecx, DWORD PTR [esi+1768]
  001e1	e8 00 00 00 00	 call	 ??1CILButton@@UAE@XZ	; CILButton::~CILButton
  001e6	8d 8e 88 05 00
	00		 lea	 ecx, DWORD PTR [esi+1416]
  001ec	e8 00 00 00 00	 call	 ??1CILButton@@UAE@XZ	; CILButton::~CILButton
  001f1	8d 8e 28 04 00
	00		 lea	 ecx, DWORD PTR [esi+1064]
  001f7	e8 00 00 00 00	 call	 ??1CILButton@@UAE@XZ	; CILButton::~CILButton
  001fc	8d 8e c8 02 00
	00		 lea	 ecx, DWORD PTR [esi+712]
  00202	e8 00 00 00 00	 call	 ??1CILButton@@UAE@XZ	; CILButton::~CILButton
  00207	8d 8e 68 01 00
	00		 lea	 ecx, DWORD PTR [esi+360]
  0020d	e8 00 00 00 00	 call	 ??1CILButton@@UAE@XZ	; CILButton::~CILButton
  00212	8d 8e e0 00 00
	00		 lea	 ecx, DWORD PTR [esi+224]
  00218	e8 00 00 00 00	 call	 ??1CDateTimeCtrl@@UAE@XZ ; CDateTimeCtrl::~CDateTimeCtrl
  0021d	8d 8e cc 00 00
	00		 lea	 ecx, DWORD PTR [esi+204]
  00223	ff 15 00 00 00
	00		 call	 DWORD PTR __imp_??1?$CStringT@DV?$StrTraitMFC_DLL@DV?$ChTraitsCRT@D@ATL@@@@@ATL@@QAE@XZ
  00229	8d 8e c8 00 00
	00		 lea	 ecx, DWORD PTR [esi+200]
  0022f	ff 15 00 00 00
	00		 call	 DWORD PTR __imp_??1?$CStringT@DV?$StrTraitMFC_DLL@DV?$ChTraitsCRT@D@ATL@@@@@ATL@@QAE@XZ
  00235	8d 8e c0 00 00
	00		 lea	 ecx, DWORD PTR [esi+192]
  0023b	ff 15 00 00 00
	00		 call	 DWORD PTR __imp_??1?$CStringT@DV?$StrTraitMFC_DLL@DV?$ChTraitsCRT@D@ATL@@@@@ATL@@QAE@XZ
  00241	8b ce		 mov	 ecx, esi
  00243	e8 00 00 00 00	 call	 ??1CDialog@@UAE@XZ	; CDialog::~CDialog
  00248	8b 4d f4	 mov	 ecx, DWORD PTR __$EHRec$[ebp]
  0024b	64 89 0d 00 00
	00 00		 mov	 DWORD PTR fs:0, ecx
  00252	59		 pop	 ecx
  00253	5e		 pop	 esi
  00254	8b e5		 mov	 esp, ebp
  00256	5d		 pop	 ebp
  00257	c3		 ret	 0
  00258	cc		 int	 3
  00259	cc		 int	 3
  0025a	cc		 int	 3
  0025b	cc		 int	 3
  0025c	cc		 int	 3
_TEXT	ENDS
;	COMDAT text$x
text$x	SEGMENT
__ehhandler$??1CExtInputBarDlg@@UAE@XZ:
  00000	90		 npad	 1
  00001	90		 npad	 1
  00002	8b 54 24 08	 mov	 edx, DWORD PTR [esp+8]
  00006	8d 42 0c	 lea	 eax, DWORD PTR [edx+12]
  00009	8b 4a f8	 mov	 ecx, DWORD PTR [edx-8]
  0000c	33 c8		 xor	 ecx, eax
  0000e	e8 00 00 00 00	 call	 @__security_check_cookie@4
  00013	b8 00 00 00 00	 mov	 eax, OFFSET __ehfuncinfo$??1CExtInputBarDlg@@UAE@XZ
  00018	e9 00 00 00 00	 jmp	 ___CxxFrameHandler3
text$x	ENDS
??1CExtInputBarDlg@@UAE@XZ ENDP				; CExtInputBarDlg::~CExtInputBarDlg
; Function compile flags: /Ogtp
; File D:\git\src\IBK\IBK_DRFN\ProjSrc\SrcDrfn\Chart\MULTICHART\ExtInputBarDlg.cpp
;	COMDAT ?GetMessageMap@CExtInputBarDlg@@MBEPBUAFX_MSGMAP@@XZ
_TEXT	SEGMENT
?GetMessageMap@CExtInputBarDlg@@MBEPBUAFX_MSGMAP@@XZ PROC ; CExtInputBarDlg::GetMessageMap, COMDAT
; _this$ = ecx

; 159  : BEGIN_MESSAGE_MAP(CExtInputBarDlg, CRscDlg)

  00000	b8 00 00 00 00	 mov	 eax, OFFSET ?messageMap@?1??GetThisMessageMap@CExtInputBarDlg@@KGPBUAFX_MSGMAP@@XZ@4U3@B
  00005	c3		 ret	 0
?GetMessageMap@CExtInputBarDlg@@MBEPBUAFX_MSGMAP@@XZ ENDP ; CExtInputBarDlg::GetMessageMap
_TEXT	ENDS
; Function compile flags: /Ogtp
; File D:\git\src\IBK\IBK_DRFN\ProjSrc\SrcDrfn\Chart\MULTICHART\ExtInputBarDlg.cpp
;	COMDAT ?GetThisMessageMap@CExtInputBarDlg@@KGPBUAFX_MSGMAP@@XZ
_TEXT	SEGMENT
?GetThisMessageMap@CExtInputBarDlg@@KGPBUAFX_MSGMAP@@XZ PROC ; CExtInputBarDlg::GetThisMessageMap, COMDAT

; 160  : 	//{{AFX_MSG_MAP(CExtInputBarDlg)
; 161  : 	ON_BN_CLICKED(IDC_BTSCROLLPRE, OnBtScrollPre)
; 162  : 	ON_BN_CLICKED(IDC_BTSCROLLNEXT, OnBtScrollNext)
; 163  : 	ON_BN_CLICKED(IDC_BTSCROLLSTOP, OnBtScrollStop)
; 164  : 	ON_BN_CLICKED(IDC_BTINITSPLIT, OnBtinitsplit)
; 165  : 	ON_BN_CLICKED(IDC_BTINDEX, OnBtindex)
; 166  : 	ON_BN_CLICKED(IDC_CHKJONGMOKLINK, OnChkjongmoklink)
; 167  : 	ON_BN_CLICKED(IDC_CHKTYPELINK, OnChktypelink)
; 168  : 	ON_BN_CLICKED(IDC_BTLOAD, OnBtload)
; 169  : 	ON_BN_CLICKED(IDC_BTSAVE, OnBtsave)
; 170  : 	ON_BN_CLICKED(IDC_BTINITIAL, OnBtinitial)
; 171  : 	ON_BN_CLICKED(IDC_BTN_CONFIG, OnBtchartconfig)
; 172  : 	ON_WM_DESTROY()
; 173  : 	ON_BN_CLICKED(IDC_CHKSHOWSCALE, OnChkshowscale)
; 174  : 	ON_WM_CTLCOLOR()
; 175  : 	ON_BN_CLICKED(IDC_BTPRINT, OnBtprint)
; 176  : 	ON_BN_CLICKED(IDC_BTSETENVIR, OnBtsetenvir)
; 177  : 	ON_BN_CLICKED(IDC_BTSHOWMATRIX, OnBtshowmatrix)
; 178  : 	ON_WM_LBUTTONDOWN()
; 179  : 	ON_BN_CLICKED(IDC_BTEXNEXT, OnBtexnext)
; 180  : 	ON_BN_CLICKED(IDC_BTEXPREV, OnBtexprev)
; 181  : 	ON_BN_CLICKED(IDC_BTANALYSISPATTERN, OnBtanalysispattern)
; 182  : 	ON_BN_CLICKED(IDC_BTCHARTGUIDELINE, OnBtchartguideline)
; 183  : 	ON_BN_CLICKED(IDC_BTHIST, OnBthist)
; 184  : 	ON_BN_CLICKED(IDC_BTST, OnBtst)
; 185  : 	ON_BN_CLICKED(IDC_BTN_SDATE, OnBtnSdate)
; 186  : 	ON_BN_CLICKED(IDC_BTN_EDATE, OnBtnEdate)
; 187  : 	ON_NOTIFY(DTN_CLOSEUP, IDC_DATETIMEPICKER1, OnCloseupDatetimepicker1)
; 188  : 	ON_BN_CLICKED(IDC_BTN_SELLSCR, OnBtnSellscr)
; 189  : 	ON_BN_CLICKED(IDC_BTN_BUYSCR, OnBtnBuyscr)
; 190  : 	ON_BN_CLICKED(IDC_BTFIXPERIOD, OnBtfixperiod)
; 191  : 	ON_BN_CLICKED(IDC_CHK_ENDSAVE, OnChkEndsave)
; 192  : 	ON_BN_CLICKED(IDC_CHKUPDATEINDEX, OnChkupdateindex)
; 193  : 	ON_BN_CLICKED(IDC_BTN_ANALIZE_PERIOD, OnBtnAnalizePeriod)
; 194  : 	ON_BN_CLICKED(IDC_CHK_REVISED, OnChkRevised)
; 195  : 	ON_BN_CLICKED(IDC_BTN_PERIOD, OnBtnPeriod)
; 196  : 	ON_BN_CLICKED(IDC_BTETCMENU, OnBtetcmenu)
; 197  : 	ON_BN_CLICKED(IDC_BT_SUB2, OnBtSub2)
; 198  : 	ON_BN_CLICKED(IDC_BTN_CHANGSYNIT, OnBtnChangsynit)
; 199  : 	ON_BN_CLICKED(IDC_CHKFIXPERIOD, OnChkfixperiod)
; 200  : 	ON_BN_CLICKED(IDC_BTN_GWANSIM, OnBtnGwansim)
; 201  : 	ON_WM_ERASEBKGND()
; 202  : 	ON_WM_PAINT()
; 203  : 	ON_CBN_SELCHANGE(IDC_CMB_SCROLLSPEED, OnSelchangeCmbScrollSpeed)
; 204  : 	ON_BN_CLICKED(IDC_CHK_QUERYOPT, OnChkQueryOpt)
; 205  : 	ON_BN_CLICKED(IDC_CHK_ACCOUNTAVG, OnChkAccountavg)
; 206  : 	ON_BN_CLICKED(IDC_CHK_ACCOUNTCONC, OnChkAccountconc)
; 207  : 	ON_WM_SIZE()
; 208  : 	ON_WM_TIMER()
; 209  : 	//}}AFX_MSG_MAP
; 210  : 	ON_REGISTERED_MESSAGE(RMSG_CHANGE_CROSSLINE, OnChangeCrossLine)
; 211  : END_MESSAGE_MAP()

  00000	b8 00 00 00 00	 mov	 eax, OFFSET ?messageMap@?1??GetThisMessageMap@CExtInputBarDlg@@KGPBUAFX_MSGMAP@@XZ@4U3@B
  00005	c3		 ret	 0
?GetThisMessageMap@CExtInputBarDlg@@KGPBUAFX_MSGMAP@@XZ ENDP ; CExtInputBarDlg::GetThisMessageMap
_TEXT	ENDS
; Function compile flags: /Ogtp
; File D:\git\src\IBK\IBK_DRFN\ProjSrc\SrcDrfn\Chart\MULTICHART\ExtInputBarDlg.cpp
;	COMDAT ?OnChangeCrossLine@CExtInputBarDlg@@IAEJIJ@Z
_TEXT	SEGMENT
_wParam$ = 8						; size = 4
_lParam$ = 12						; size = 4
?OnChangeCrossLine@CExtInputBarDlg@@IAEJIJ@Z PROC	; CExtInputBarDlg::OnChangeCrossLine, COMDAT
; _this$ = ecx

; 3483 : {

  00000	55		 push	 ebp
  00001	8b ec		 mov	 ebp, esp

; 3484 : 	if(wParam == 0)

  00003	83 7d 08 00	 cmp	 DWORD PTR _wParam$[ebp], 0
  00007	57		 push	 edi
  00008	8b f9		 mov	 edi, ecx
  0000a	75 0b		 jne	 SHORT $LN2@OnChangeCr

; 3485 : 		return (LRESULT)m_bChkCrossLine;

  0000c	8b 87 24 33 00
	00		 mov	 eax, DWORD PTR [edi+13092]
  00012	5f		 pop	 edi

; 3493 : }

  00013	5d		 pop	 ebp
  00014	c2 08 00	 ret	 8
$LN2@OnChangeCr:
  00017	56		 push	 esi

; 3486 : 	else
; 3487 : 	{
; 3488 : 		m_btSub2.SetCheck(lParam);

  00018	8b 75 0c	 mov	 esi, DWORD PTR _lParam$[ebp]
  0001b	8d 8f e8 06 00
	00		 lea	 ecx, DWORD PTR [edi+1768]
  00021	56		 push	 esi
  00022	e8 00 00 00 00	 call	 ?SetCheck@CILButton@@QAEXH@Z ; CILButton::SetCheck

; 3489 : 		m_bChkCrossLine = (BOOL)lParam;

  00027	89 b7 24 33 00
	00		 mov	 DWORD PTR [edi+13092], esi

; 3490 : 	}
; 3491 : 
; 3492 : 	return 0L;

  0002d	33 c0		 xor	 eax, eax
  0002f	5e		 pop	 esi
  00030	5f		 pop	 edi

; 3493 : }

  00031	5d		 pop	 ebp
  00032	c2 08 00	 ret	 8
?OnChangeCrossLine@CExtInputBarDlg@@IAEJIJ@Z ENDP	; CExtInputBarDlg::OnChangeCrossLine
_TEXT	ENDS
; Function compile flags: /Ogtp
; File D:\git\src\IBK\IBK_DRFN\ProjSrc\SrcDrfn\Chart\MULTICHART\ExtInputBarDlg.cpp
; File C:\Program Files (x86)\Microsoft Visual Studio\2019\Community\VC\Tools\MSVC\14.29.30133\atlmfc\include\afxwin2.inl
; File D:\git\src\IBK\IBK_DRFN\ProjSrc\SrcDrfn\Chart\MULTICHART\ExtInputBarDlg.cpp
; File C:\Program Files (x86)\Microsoft Visual Studio\2019\Community\VC\Tools\MSVC\14.29.30133\atlmfc\include\afxwin2.inl
; File D:\git\src\IBK\IBK_DRFN\ProjSrc\SrcDrfn\Chart\MULTICHART\ExtInputBarDlg.cpp
;	COMDAT ?OnTimer@CExtInputBarDlg@@IAEXI@Z
_TEXT	SEGMENT
_nIDEvent$ = 8						; size = 4
?OnTimer@CExtInputBarDlg@@IAEXI@Z PROC			; CExtInputBarDlg::OnTimer, COMDAT
; _this$ = ecx

; 3496 : {

  00000	55		 push	 ebp
  00001	8b ec		 mov	 ebp, esp

; 3497 : 	if(nIDEvent == ID_CROSSLINE)

  00003	83 7d 08 0a	 cmp	 DWORD PTR _nIDEvent$[ebp], 10 ; 0000000aH
  00007	56		 push	 esi
  00008	8b f1		 mov	 esi, ecx
  0000a	75 49		 jne	 SHORT $LN3@OnTimer

; 3498 : 	{
; 3499 : 		m_btSub2.SetCheck(TRUE);

  0000c	6a 01		 push	 1
  0000e	8d 8e e8 06 00
	00		 lea	 ecx, DWORD PTR [esi+1768]
  00014	e8 00 00 00 00	 call	 ?SetCheck@CILButton@@QAEXH@Z ; CILButton::SetCheck
; File C:\Program Files (x86)\Microsoft Visual Studio\2019\Community\VC\Tools\MSVC\14.29.30133\atlmfc\include\afxwin2.inl

; 213  : 	{ ASSERT(::IsWindow(m_hWnd)); return CWnd::FromHandle(::GetParent(m_hWnd)); }

  00019	ff 76 20	 push	 DWORD PTR [esi+32]
  0001c	ff 15 00 00 00
	00		 call	 DWORD PTR __imp__GetParent@4
  00022	50		 push	 eax
  00023	e8 00 00 00 00	 call	 ?FromHandle@CWnd@@SGPAV1@PAUHWND__@@@Z ; CWnd::FromHandle

; 32   : 	{ ASSERT(::IsWindow(m_hWnd)); return ::SendMessage(m_hWnd, message, wParam, lParam); }

  00028	6a 01		 push	 1
  0002a	6a 59		 push	 89			; 00000059H
  0002c	ff 35 00 00 00
	00		 push	 DWORD PTR ?RMS_ANALYSIS_FUNC@@3IB
  00032	ff 70 20	 push	 DWORD PTR [eax+32]
  00035	ff 15 00 00 00
	00		 call	 DWORD PTR __imp__SendMessageA@16
; File D:\git\src\IBK\IBK_DRFN\ProjSrc\SrcDrfn\Chart\MULTICHART\ExtInputBarDlg.cpp

; 3504 : 		m_nChkCrossLine++;

  0003b	ff 86 54 33 00
	00		 inc	 DWORD PTR [esi+13140]

; 3505 : 		if(m_nChkCrossLine>=3)	KillTimer(nIDEvent);

  00041	83 be 54 33 00
	00 03		 cmp	 DWORD PTR [esi+13140], 3
  00048	7c 0b		 jl	 SHORT $LN3@OnTimer
; File C:\Program Files (x86)\Microsoft Visual Studio\2019\Community\VC\Tools\MSVC\14.29.30133\atlmfc\include\afxwin2.inl

; 155  : 	{ ASSERT(::IsWindow(m_hWnd)); return ::KillTimer(m_hWnd, nIDEvent); }

  0004a	6a 0a		 push	 10			; 0000000aH
  0004c	ff 76 20	 push	 DWORD PTR [esi+32]
  0004f	ff 15 00 00 00
	00		 call	 DWORD PTR __imp__KillTimer@8
$LN3@OnTimer:

; 466  : 	{ Default(); }

  00055	8b ce		 mov	 ecx, esi
  00057	e8 00 00 00 00	 call	 ?Default@CWnd@@IAEJXZ	; CWnd::Default
  0005c	5e		 pop	 esi
; File D:\git\src\IBK\IBK_DRFN\ProjSrc\SrcDrfn\Chart\MULTICHART\ExtInputBarDlg.cpp

; 3508 : }

  0005d	5d		 pop	 ebp
  0005e	c2 04 00	 ret	 4
?OnTimer@CExtInputBarDlg@@IAEXI@Z ENDP			; CExtInputBarDlg::OnTimer
_TEXT	ENDS
; Function compile flags: /Ogtp
; File D:\git\src\IBK\IBK_DRFN\ProjSrc\SrcDrfn\Chart\MULTICHART\ExtInputBarDlg.cpp
; File C:\Program Files (x86)\Microsoft Visual Studio\2019\Community\VC\Tools\MSVC\14.29.30133\atlmfc\include\afxwin2.inl
; File D:\git\src\IBK\IBK_DRFN\ProjSrc\SrcDrfn\Chart\MULTICHART\ExtInputBarDlg.cpp
;	COMDAT ?OnSize@CExtInputBarDlg@@IAEXIHH@Z
_TEXT	SEGMENT
_nType$ = 8						; size = 4
_cx$ = 12						; size = 4
_cy$ = 16						; size = 4
?OnSize@CExtInputBarDlg@@IAEXIHH@Z PROC			; CExtInputBarDlg::OnSize, COMDAT
; _this$ = ecx
; File C:\Program Files (x86)\Microsoft Visual Studio\2019\Community\VC\Tools\MSVC\14.29.30133\atlmfc\include\afxwin2.inl

; 330  : 	{ Default(); }

  00000	e8 00 00 00 00	 call	 ?Default@CWnd@@IAEJXZ	; CWnd::Default
; File D:\git\src\IBK\IBK_DRFN\ProjSrc\SrcDrfn\Chart\MULTICHART\ExtInputBarDlg.cpp

; 3312 : }

  00005	c2 0c 00	 ret	 12			; 0000000cH
?OnSize@CExtInputBarDlg@@IAEXIHH@Z ENDP			; CExtInputBarDlg::OnSize
_TEXT	ENDS
; Function compile flags: /Ogtp
; File D:\git\src\IBK\IBK_DRFN\ProjSrc\SrcDrfn\Chart\MULTICHART\ExtInputBarDlg.cpp
; File C:\Program Files (x86)\Microsoft Visual Studio\2019\Community\VC\Tools\MSVC\14.29.30133\atlmfc\include\afxwin2.inl
; File D:\git\src\IBK\IBK_DRFN\ProjSrc\SrcDrfn\Chart\MULTICHART\ExtInputBarDlg.cpp
; File C:\Program Files (x86)\Microsoft Visual Studio\2019\Community\VC\Tools\MSVC\14.29.30133\atlmfc\include\afxwin2.inl
; File D:\git\src\IBK\IBK_DRFN\ProjSrc\SrcDrfn\Chart\MULTICHART\ExtInputBarDlg.cpp
;	COMDAT ?OnChkAccountconc@CExtInputBarDlg@@IAEXXZ
_TEXT	SEGMENT
?OnChkAccountconc@CExtInputBarDlg@@IAEXXZ PROC		; CExtInputBarDlg::OnChkAccountconc, COMDAT
; _this$ = ecx

; 3345 : {

  00000	56		 push	 esi

; 3346 : 	CButton* pCong = ((CButton*)GetDlgItem(IDC_CHK_ACCOUNTCONC));

  00001	68 ad 18 00 00	 push	 6317			; 000018adH
  00006	8b f1		 mov	 esi, ecx
  00008	e8 00 00 00 00	 call	 ?GetDlgItem@CWnd@@QBEPAV1@H@Z ; CWnd::GetDlgItem
; File C:\Program Files (x86)\Microsoft Visual Studio\2019\Community\VC\Tools\MSVC\14.29.30133\atlmfc\include\afxwin2.inl

; 628  : 	{ ASSERT(::IsWindow(m_hWnd)); return (int)::SendMessage(m_hWnd, BM_GETCHECK, 0, 0); }

  0000d	6a 00		 push	 0
  0000f	6a 00		 push	 0
  00011	68 f0 00 00 00	 push	 240			; 000000f0H
  00016	ff 70 20	 push	 DWORD PTR [eax+32]
  00019	ff 15 00 00 00
	00		 call	 DWORD PTR __imp__SendMessageA@16
; File D:\git\src\IBK\IBK_DRFN\ProjSrc\SrcDrfn\Chart\MULTICHART\ExtInputBarDlg.cpp

; 3347 : 	if(pCong->GetCheck())

  0001f	85 c0		 test	 eax, eax
  00021	74 17		 je	 SHORT $LN2@OnChkAccou
; File C:\Program Files (x86)\Microsoft Visual Studio\2019\Community\VC\Tools\MSVC\14.29.30133\atlmfc\include\afxwin2.inl

; 213  : 	{ ASSERT(::IsWindow(m_hWnd)); return CWnd::FromHandle(::GetParent(m_hWnd)); }

  00023	ff 76 20	 push	 DWORD PTR [esi+32]
  00026	ff 15 00 00 00
	00		 call	 DWORD PTR __imp__GetParent@4
  0002c	50		 push	 eax
  0002d	e8 00 00 00 00	 call	 ?FromHandle@CWnd@@SGPAV1@PAUHWND__@@@Z ; CWnd::FromHandle
; File D:\git\src\IBK\IBK_DRFN\ProjSrc\SrcDrfn\Chart\MULTICHART\ExtInputBarDlg.cpp

; 3348 : 		((CStdDialog*)GetParent())->RequestCondUnitPrice();

  00032	8b c8		 mov	 ecx, eax
  00034	5e		 pop	 esi
  00035	e9 00 00 00 00	 jmp	 ?RequestCondUnitPrice@CStdDialog@@QAEXXZ ; CStdDialog::RequestCondUnitPrice
$LN2@OnChkAccou:

; 3349 : 	else
; 3350 : 		((CChartMng*)m_pChartMng)->RemoveConcPacketData();	

  0003a	8b 8e 00 33 00
	00		 mov	 ecx, DWORD PTR [esi+13056]
  00040	5e		 pop	 esi
  00041	e9 00 00 00 00	 jmp	 ?RemoveConcPacketData@CChartMng@@QAEXXZ ; CChartMng::RemoveConcPacketData
?OnChkAccountconc@CExtInputBarDlg@@IAEXXZ ENDP		; CExtInputBarDlg::OnChkAccountconc
_TEXT	ENDS
; Function compile flags: /Ogtp
; File D:\git\src\IBK\IBK_DRFN\ProjSrc\SrcDrfn\Chart\MULTICHART\ExtInputBarDlg.cpp
; File C:\Program Files (x86)\Microsoft Visual Studio\2019\Community\VC\Tools\MSVC\14.29.30133\atlmfc\include\afxwin2.inl
; File D:\git\src\IBK\IBK_DRFN\ProjSrc\SrcDrfn\Chart\MULTICHART\ExtInputBarDlg.cpp
; File C:\Program Files (x86)\Microsoft Visual Studio\2019\Community\VC\Tools\MSVC\14.29.30133\atlmfc\include\afxwin2.inl
; File D:\git\src\IBK\IBK_DRFN\ProjSrc\SrcDrfn\Chart\MULTICHART\ExtInputBarDlg.cpp
;	COMDAT ?OnChkAccountavg@CExtInputBarDlg@@IAEXXZ
_TEXT	SEGMENT
$T2 = -16						; size = 4
__$EHRec$ = -12						; size = 12
?OnChkAccountavg@CExtInputBarDlg@@IAEXXZ PROC		; CExtInputBarDlg::OnChkAccountavg, COMDAT
; _this$ = ecx

; 3336 : {

  00000	55		 push	 ebp
  00001	8b ec		 mov	 ebp, esp
  00003	6a ff		 push	 -1
  00005	68 00 00 00 00	 push	 __ehhandler$?OnChkAccountavg@CExtInputBarDlg@@IAEXXZ
  0000a	64 a1 00 00 00
	00		 mov	 eax, DWORD PTR fs:0
  00010	50		 push	 eax
  00011	83 ec 08	 sub	 esp, 8
  00014	56		 push	 esi
  00015	a1 00 00 00 00	 mov	 eax, DWORD PTR ___security_cookie
  0001a	33 c5		 xor	 eax, ebp
  0001c	50		 push	 eax
  0001d	8d 45 f4	 lea	 eax, DWORD PTR __$EHRec$[ebp]
  00020	64 a3 00 00 00
	00		 mov	 DWORD PTR fs:0, eax
  00026	8b f1		 mov	 esi, ecx

; 3337 : 	CButton* pAvg = ((CButton*)GetDlgItem(IDC_CHK_ACCOUNTAVG));

  00028	68 ac 18 00 00	 push	 6316			; 000018acH
  0002d	e8 00 00 00 00	 call	 ?GetDlgItem@CWnd@@QBEPAV1@H@Z ; CWnd::GetDlgItem
; File C:\Program Files (x86)\Microsoft Visual Studio\2019\Community\VC\Tools\MSVC\14.29.30133\atlmfc\include\afxwin2.inl

; 628  : 	{ ASSERT(::IsWindow(m_hWnd)); return (int)::SendMessage(m_hWnd, BM_GETCHECK, 0, 0); }

  00032	6a 00		 push	 0
  00034	6a 00		 push	 0
  00036	68 f0 00 00 00	 push	 240			; 000000f0H
  0003b	ff 70 20	 push	 DWORD PTR [eax+32]
  0003e	ff 15 00 00 00
	00		 call	 DWORD PTR __imp__SendMessageA@16
; File D:\git\src\IBK\IBK_DRFN\ProjSrc\SrcDrfn\Chart\MULTICHART\ExtInputBarDlg.cpp

; 3338 : 	if(pAvg->GetCheck())

  00044	85 c0		 test	 eax, eax
  00046	74 26		 je	 SHORT $LN2@OnChkAccou
; File C:\Program Files (x86)\Microsoft Visual Studio\2019\Community\VC\Tools\MSVC\14.29.30133\atlmfc\include\afxwin2.inl

; 213  : 	{ ASSERT(::IsWindow(m_hWnd)); return CWnd::FromHandle(::GetParent(m_hWnd)); }

  00048	ff 76 20	 push	 DWORD PTR [esi+32]
  0004b	ff 15 00 00 00
	00		 call	 DWORD PTR __imp__GetParent@4
  00051	50		 push	 eax
  00052	e8 00 00 00 00	 call	 ?FromHandle@CWnd@@SGPAV1@PAUHWND__@@@Z ; CWnd::FromHandle
; File D:\git\src\IBK\IBK_DRFN\ProjSrc\SrcDrfn\Chart\MULTICHART\ExtInputBarDlg.cpp

; 3339 : 		((CStdDialog*)GetParent())->RequestAvgUnitPrice();

  00057	8b c8		 mov	 ecx, eax
  00059	e8 00 00 00 00	 call	 ?RequestAvgUnitPrice@CStdDialog@@QAEXXZ ; CStdDialog::RequestAvgUnitPrice

; 3342 : }

  0005e	8b 4d f4	 mov	 ecx, DWORD PTR __$EHRec$[ebp]
  00061	64 89 0d 00 00
	00 00		 mov	 DWORD PTR fs:0, ecx
  00068	59		 pop	 ecx
  00069	5e		 pop	 esi
  0006a	8b e5		 mov	 esp, ebp
  0006c	5d		 pop	 ebp
  0006d	c3		 ret	 0
$LN2@OnChkAccou:

; 3340 : 	else
; 3341 : 		((CChartMng*)m_pChartMng)->ShowAvgLine("", "");	

  0006e	51		 push	 ecx
  0006f	8b cc		 mov	 ecx, esp
  00071	89 65 f0	 mov	 DWORD PTR $T2[ebp], esp
  00074	68 00 00 00 00	 push	 OFFSET ??_C@_00CNPNBAHC@@
  00079	ff 15 00 00 00
	00		 call	 DWORD PTR __imp_??0?$CStringT@DV?$StrTraitMFC_DLL@DV?$ChTraitsCRT@D@ATL@@@@@ATL@@QAE@PBD@Z
  0007f	51		 push	 ecx
  00080	8b cc		 mov	 ecx, esp
  00082	c7 45 fc 00 00
	00 00		 mov	 DWORD PTR __$EHRec$[ebp+8], 0
  00089	68 00 00 00 00	 push	 OFFSET ??_C@_00CNPNBAHC@@
  0008e	ff 15 00 00 00
	00		 call	 DWORD PTR __imp_??0?$CStringT@DV?$StrTraitMFC_DLL@DV?$ChTraitsCRT@D@ATL@@@@@ATL@@QAE@PBD@Z
  00094	c7 45 fc ff ff
	ff ff		 mov	 DWORD PTR __$EHRec$[ebp+8], -1
  0009b	8b 8e 00 33 00
	00		 mov	 ecx, DWORD PTR [esi+13056]
  000a1	e8 00 00 00 00	 call	 ?ShowAvgLine@CChartMng@@QAEXV?$CStringT@DV?$StrTraitMFC_DLL@DV?$ChTraitsCRT@D@ATL@@@@@ATL@@0@Z ; CChartMng::ShowAvgLine

; 3342 : }

  000a6	8b 4d f4	 mov	 ecx, DWORD PTR __$EHRec$[ebp]
  000a9	64 89 0d 00 00
	00 00		 mov	 DWORD PTR fs:0, ecx
  000b0	59		 pop	 ecx
  000b1	5e		 pop	 esi
  000b2	8b e5		 mov	 esp, ebp
  000b4	5d		 pop	 ebp
  000b5	c3		 ret	 0
_TEXT	ENDS
;	COMDAT text$x
text$x	SEGMENT
__unwindfunclet$?OnChkAccountavg@CExtInputBarDlg@@IAEXXZ$0:
  00000	8b 4d f0	 mov	 ecx, DWORD PTR $T2[ebp]
  00003	ff 25 00 00 00
	00		 jmp	 DWORD PTR __imp_??1?$CStringT@DV?$StrTraitMFC_DLL@DV?$ChTraitsCRT@D@ATL@@@@@ATL@@QAE@XZ
  00009	cc		 int	 3
  0000a	cc		 int	 3
  0000b	cc		 int	 3
  0000c	cc		 int	 3
  0000d	cc		 int	 3
__ehhandler$?OnChkAccountavg@CExtInputBarDlg@@IAEXXZ:
  0000e	90		 npad	 1
  0000f	90		 npad	 1
  00010	8b 54 24 08	 mov	 edx, DWORD PTR [esp+8]
  00014	8d 42 0c	 lea	 eax, DWORD PTR [edx+12]
  00017	8b 4a f0	 mov	 ecx, DWORD PTR [edx-16]
  0001a	33 c8		 xor	 ecx, eax
  0001c	e8 00 00 00 00	 call	 @__security_check_cookie@4
  00021	b8 00 00 00 00	 mov	 eax, OFFSET __ehfuncinfo$?OnChkAccountavg@CExtInputBarDlg@@IAEXXZ
  00026	e9 00 00 00 00	 jmp	 ___CxxFrameHandler3
text$x	ENDS
?OnChkAccountavg@CExtInputBarDlg@@IAEXXZ ENDP		; CExtInputBarDlg::OnChkAccountavg
; Function compile flags: /Ogtp
; File D:\git\src\IBK\IBK_DRFN\ProjSrc\SrcDrfn\Chart\MULTICHART\ExtInputBarDlg.cpp
; File C:\Program Files (x86)\Microsoft Visual Studio\2019\Community\VC\Tools\MSVC\14.29.30133\atlmfc\include\afxwin2.inl
; File D:\git\src\IBK\IBK_DRFN\ProjSrc\SrcDrfn\Chart\MULTICHART\ExtInputBarDlg.cpp
;	COMDAT ?OnChkQueryOpt@CExtInputBarDlg@@IAEXXZ
_TEXT	SEGMENT
?OnChkQueryOpt@CExtInputBarDlg@@IAEXXZ PROC		; CExtInputBarDlg::OnChkQueryOpt, COMDAT
; _this$ = ecx

; 3231 : {

  00000	56		 push	 esi

; 3232 : 	UpdateData(TRUE);

  00001	6a 01		 push	 1
  00003	8b f1		 mov	 esi, ecx
  00005	e8 00 00 00 00	 call	 ?UpdateData@CWnd@@QAEHH@Z ; CWnd::UpdateData

; 3233 : 	
; 3234 : 	if(m_pChartMng)

  0000a	8b 86 00 33 00
	00		 mov	 eax, DWORD PTR [esi+13056]
  00010	5e		 pop	 esi
  00011	85 c0		 test	 eax, eax
  00013	74 12		 je	 SHORT $LN2@OnChkQuery
; File C:\Program Files (x86)\Microsoft Visual Studio\2019\Community\VC\Tools\MSVC\14.29.30133\atlmfc\include\afxwin2.inl

; 32   : 	{ ASSERT(::IsWindow(m_hWnd)); return ::SendMessage(m_hWnd, message, wParam, lParam); }

  00015	6a 00		 push	 0
  00017	6a 00		 push	 0
  00019	68 d4 04 00 00	 push	 1236			; 000004d4H
  0001e	ff 70 20	 push	 DWORD PTR [eax+32]
  00021	ff 15 00 00 00
	00		 call	 DWORD PTR __imp__SendMessageA@16
$LN2@OnChkQuery:
; File D:\git\src\IBK\IBK_DRFN\ProjSrc\SrcDrfn\Chart\MULTICHART\ExtInputBarDlg.cpp

; 3236 : }

  00027	c3		 ret	 0
?OnChkQueryOpt@CExtInputBarDlg@@IAEXXZ ENDP		; CExtInputBarDlg::OnChkQueryOpt
_TEXT	ENDS
; Function compile flags: /Ogtp
; File D:\git\src\IBK\IBK_DRFN\ProjSrc\SrcDrfn\Chart\MULTICHART\ExtInputBarDlg.cpp
; File C:\Program Files (x86)\Microsoft Visual Studio\2019\Community\VC\Tools\MSVC\14.29.30133\atlmfc\include\afxwin2.inl
; File D:\git\src\IBK\IBK_DRFN\ProjSrc\SrcDrfn\Chart\MULTICHART\ExtInputBarDlg.cpp
; File C:\Program Files (x86)\Microsoft Visual Studio\2019\Community\VC\Tools\MSVC\14.29.30133\atlmfc\include\afxwin2.inl
; File D:\git\src\IBK\IBK_DRFN\ProjSrc\SrcDrfn\Chart\MULTICHART\ExtInputBarDlg.cpp
; File C:\Program Files (x86)\Microsoft Visual Studio\2019\Community\VC\Tools\MSVC\14.29.30133\atlmfc\include\afxwin2.inl
; File D:\git\src\IBK\IBK_DRFN\ProjSrc\SrcDrfn\Chart\MULTICHART\ExtInputBarDlg.cpp
; File C:\Program Files (x86)\Microsoft Visual Studio\2019\Community\VC\Tools\MSVC\14.29.30133\atlmfc\include\afxwin2.inl
; File D:\git\src\IBK\IBK_DRFN\ProjSrc\SrcDrfn\Chart\MULTICHART\ExtInputBarDlg.cpp
;	COMDAT ?OnSelchangeCmbScrollSpeed@CExtInputBarDlg@@IAEXXZ
_TEXT	SEGMENT
?OnSelchangeCmbScrollSpeed@CExtInputBarDlg@@IAEXXZ PROC	; CExtInputBarDlg::OnSelchangeCmbScrollSpeed, COMDAT
; _this$ = ecx

; 3160 : {

  00000	53		 push	 ebx
  00001	56		 push	 esi
  00002	57		 push	 edi
; File C:\Program Files (x86)\Microsoft Visual Studio\2019\Community\VC\Tools\MSVC\14.29.30133\atlmfc\include\afxwin2.inl

; 765  : 	{ ASSERT(::IsWindow(m_hWnd)); return (int)::SendMessage(m_hWnd, CB_GETCURSEL, 0, 0); }

  00003	8b 3d 00 00 00
	00		 mov	 edi, DWORD PTR __imp__SendMessageA@16
; File D:\git\src\IBK\IBK_DRFN\ProjSrc\SrcDrfn\Chart\MULTICHART\ExtInputBarDlg.cpp

; 3160 : {

  00009	8b f1		 mov	 esi, ecx
; File C:\Program Files (x86)\Microsoft Visual Studio\2019\Community\VC\Tools\MSVC\14.29.30133\atlmfc\include\afxwin2.inl

; 765  : 	{ ASSERT(::IsWindow(m_hWnd)); return (int)::SendMessage(m_hWnd, CB_GETCURSEL, 0, 0); }

  0000b	6a 00		 push	 0
  0000d	6a 00		 push	 0
  0000f	68 47 01 00 00	 push	 327			; 00000147H
  00014	ff b6 f0 30 00
	00		 push	 DWORD PTR [esi+12528]
  0001a	ff d7		 call	 edi
; File D:\git\src\IBK\IBK_DRFN\ProjSrc\SrcDrfn\Chart\MULTICHART\ExtInputBarDlg.cpp

; 3167 : 	int nSpeed = (int)pow(2.0, (double)nIdx);

  0001c	f2 0f 10 05 00
	00 00 00	 movsd	 xmm0, QWORD PTR __real@4000000000000000
  00024	33 c9		 xor	 ecx, ecx
  00026	83 f8 ff	 cmp	 eax, -1
  00029	0f 44 c1	 cmove	 eax, ecx
  0002c	66 0f 6e c8	 movd	 xmm1, eax
  00030	f3 0f e6 c9	 cvtdq2pd xmm1, xmm1
  00034	e8 00 00 00 00	 call	 __libm_sse2_pow_precise

; 3168 : 
; 3169 : 	if(m_nScrollState == SCROLL_LEFT)

  00039	8b 86 d0 00 00
	00		 mov	 eax, DWORD PTR [esi+208]
  0003f	f2 0f 2c d8	 cvttsd2si ebx, xmm0
  00043	83 f8 01	 cmp	 eax, 1
  00046	75 24		 jne	 SHORT $LN3@OnSelchang
; File C:\Program Files (x86)\Microsoft Visual Studio\2019\Community\VC\Tools\MSVC\14.29.30133\atlmfc\include\afxwin2.inl

; 213  : 	{ ASSERT(::IsWindow(m_hWnd)); return CWnd::FromHandle(::GetParent(m_hWnd)); }

  00048	ff 76 20	 push	 DWORD PTR [esi+32]
  0004b	ff 15 00 00 00
	00		 call	 DWORD PTR __imp__GetParent@4
  00051	50		 push	 eax
  00052	e8 00 00 00 00	 call	 ?FromHandle@CWnd@@SGPAV1@PAUHWND__@@@Z ; CWnd::FromHandle

; 32   : 	{ ASSERT(::IsWindow(m_hWnd)); return ::SendMessage(m_hWnd, message, wParam, lParam); }

  00057	53		 push	 ebx
  00058	68 f2 03 00 00	 push	 1010			; 000003f2H
; File D:\git\src\IBK\IBK_DRFN\ProjSrc\SrcDrfn\Chart\MULTICHART\ExtInputBarDlg.cpp

; 3173 : }

  0005d	ff 35 00 00 00
	00		 push	 DWORD PTR ?RMS_ANALYSIS_FUNC@@3IB
  00063	ff 70 20	 push	 DWORD PTR [eax+32]
  00066	ff d7		 call	 edi
  00068	5f		 pop	 edi
  00069	5e		 pop	 esi
  0006a	5b		 pop	 ebx
  0006b	c3		 ret	 0
$LN3@OnSelchang:

; 3170 : 		((CStdDialog*)GetParent())->SendMessage(RMS_ANALYSIS_FUNC, CToolOptionInfo::TOOLOPTION::T_ADDIN_AUTOSCROLL_PLAY_LEFT, nSpeed);
; 3171 : 	else if(m_nScrollState == SCROLL_RIGHT)

  0006c	83 f8 02	 cmp	 eax, 2
  0006f	75 20		 jne	 SHORT $LN5@OnSelchang
; File C:\Program Files (x86)\Microsoft Visual Studio\2019\Community\VC\Tools\MSVC\14.29.30133\atlmfc\include\afxwin2.inl

; 213  : 	{ ASSERT(::IsWindow(m_hWnd)); return CWnd::FromHandle(::GetParent(m_hWnd)); }

  00071	ff 76 20	 push	 DWORD PTR [esi+32]
  00074	ff 15 00 00 00
	00		 call	 DWORD PTR __imp__GetParent@4
  0007a	50		 push	 eax
  0007b	e8 00 00 00 00	 call	 ?FromHandle@CWnd@@SGPAV1@PAUHWND__@@@Z ; CWnd::FromHandle

; 32   : 	{ ASSERT(::IsWindow(m_hWnd)); return ::SendMessage(m_hWnd, message, wParam, lParam); }

  00080	53		 push	 ebx
  00081	68 f3 03 00 00	 push	 1011			; 000003f3H
; File D:\git\src\IBK\IBK_DRFN\ProjSrc\SrcDrfn\Chart\MULTICHART\ExtInputBarDlg.cpp

; 3173 : }

  00086	ff 35 00 00 00
	00		 push	 DWORD PTR ?RMS_ANALYSIS_FUNC@@3IB
  0008c	ff 70 20	 push	 DWORD PTR [eax+32]
  0008f	ff d7		 call	 edi
$LN5@OnSelchang:
  00091	5f		 pop	 edi
  00092	5e		 pop	 esi
  00093	5b		 pop	 ebx
  00094	c3		 ret	 0
?OnSelchangeCmbScrollSpeed@CExtInputBarDlg@@IAEXXZ ENDP	; CExtInputBarDlg::OnSelchangeCmbScrollSpeed
_TEXT	ENDS
; Function compile flags: /Ogtp
; File D:\git\src\IBK\IBK_DRFN\ProjSrc\SrcDrfn\Chart\MULTICHART\ExtInputBarDlg.cpp
; File C:\Program Files (x86)\Microsoft Visual Studio\2019\Community\VC\Tools\MSVC\14.29.30133\atlmfc\include\afxwin2.inl
; File D:\git\src\IBK\IBK_DRFN\ProjSrc\SrcDrfn\Chart\MULTICHART\ExtInputBarDlg.cpp
; File C:\Program Files (x86)\Microsoft Visual Studio\2019\Community\VC\Tools\MSVC\14.29.30133\atlmfc\include\afxwin2.inl
; File C:\Program Files (x86)\Microsoft Visual Studio\2019\Community\VC\Tools\MSVC\14.29.30133\atlmfc\include\atltypes.h
; File C:\Program Files (x86)\Microsoft Visual Studio\2019\Community\VC\Tools\MSVC\14.29.30133\atlmfc\include\afxwin2.inl
; File D:\git\src\IBK\IBK_DRFN\ProjSrc\SrcDrfn\Chart\MULTICHART\ExtInputBarDlg.cpp
; File C:\Program Files (x86)\Microsoft Visual Studio\2019\Community\VC\Tools\MSVC\14.29.30133\atlmfc\include\afxwin1.inl
; File D:\git\src\IBK\IBK_DRFN\ProjSrc\SrcDrfn\Chart\MULTICHART\ExtInputBarDlg.cpp
; File C:\Program Files (x86)\Microsoft Visual Studio\2019\Community\VC\Tools\MSVC\14.29.30133\atlmfc\include\afxwin1.inl
; File C:\Program Files (x86)\Microsoft Visual Studio\2019\Community\VC\Tools\MSVC\14.29.30133\atlmfc\include\atltypes.h
; File C:\Program Files (x86)\Microsoft Visual Studio\2019\Community\VC\Tools\MSVC\14.29.30133\atlmfc\include\afxwin1.inl
; File D:\git\src\IBK\IBK_DRFN\ProjSrc\SrcDrfn\Chart\MULTICHART\ExtInputBarDlg.cpp
; File C:\Program Files (x86)\Microsoft Visual Studio\2019\Community\VC\Tools\MSVC\14.29.30133\atlmfc\include\atltypes.h
; File C:\Program Files (x86)\Microsoft Visual Studio\2019\Community\VC\Tools\MSVC\14.29.30133\atlmfc\include\afxwin1.inl
; File D:\git\src\IBK\IBK_DRFN\ProjSrc\SrcDrfn\Chart\MULTICHART\ExtInputBarDlg.cpp
; File C:\Program Files (x86)\Microsoft Visual Studio\2019\Community\VC\Tools\MSVC\14.29.30133\atlmfc\include\afxwin1.inl
; File D:\git\src\IBK\IBK_DRFN\ProjSrc\SrcDrfn\Chart\MULTICHART\ExtInputBarDlg.cpp
;	COMDAT ?OnPaint@CExtInputBarDlg@@IAEXXZ
_TEXT	SEGMENT
_memDC$ = -140						; size = 16
_bitmap$ = -124						; size = 8
_dc$ = -116						; size = 84
_rcClient$ = -32					; size = 16
__$ArrayPad$ = -16					; size = 4
__$EHRec$ = -12						; size = 12
?OnPaint@CExtInputBarDlg@@IAEXXZ PROC			; CExtInputBarDlg::OnPaint, COMDAT
; _this$ = ecx

; 3182 : {

  00000	55		 push	 ebp
  00001	8b ec		 mov	 ebp, esp
  00003	6a ff		 push	 -1
  00005	68 00 00 00 00	 push	 __ehhandler$?OnPaint@CExtInputBarDlg@@IAEXXZ
  0000a	64 a1 00 00 00
	00		 mov	 eax, DWORD PTR fs:0
  00010	50		 push	 eax
  00011	81 ec 80 00 00
	00		 sub	 esp, 128		; 00000080H
  00017	a1 00 00 00 00	 mov	 eax, DWORD PTR ___security_cookie
  0001c	33 c5		 xor	 eax, ebp
  0001e	89 45 f0	 mov	 DWORD PTR __$ArrayPad$[ebp], eax
  00021	56		 push	 esi
  00022	57		 push	 edi
  00023	50		 push	 eax
  00024	8d 45 f4	 lea	 eax, DWORD PTR __$EHRec$[ebp]
  00027	64 a3 00 00 00
	00		 mov	 DWORD PTR fs:0, eax
  0002d	8b f1		 mov	 esi, ecx

; 3183 : 	CPaintDC dc(this); // device context for painting

  0002f	56		 push	 esi
  00030	8d 4d 8c	 lea	 ecx, DWORD PTR _dc$[ebp]
  00033	e8 00 00 00 00	 call	 ??0CPaintDC@@QAE@PAVCWnd@@@Z ; CPaintDC::CPaintDC
; File C:\Program Files (x86)\Microsoft Visual Studio\2019\Community\VC\Tools\MSVC\14.29.30133\atlmfc\include\afxwin2.inl

; 86   : 	{ ASSERT(::IsWindow(m_hWnd)); ::GetClientRect(m_hWnd, lpRect); }

  00038	8d 45 e0	 lea	 eax, DWORD PTR _rcClient$[ebp]
; File D:\git\src\IBK\IBK_DRFN\ProjSrc\SrcDrfn\Chart\MULTICHART\ExtInputBarDlg.cpp

; 3183 : 	CPaintDC dc(this); // device context for painting

  0003b	c7 45 fc 00 00
	00 00		 mov	 DWORD PTR __$EHRec$[ebp+8], 0
; File C:\Program Files (x86)\Microsoft Visual Studio\2019\Community\VC\Tools\MSVC\14.29.30133\atlmfc\include\afxwin2.inl

; 86   : 	{ ASSERT(::IsWindow(m_hWnd)); ::GetClientRect(m_hWnd, lpRect); }

  00042	50		 push	 eax
  00043	ff 76 20	 push	 DWORD PTR [esi+32]
  00046	0f 57 c0	 xorps	 xmm0, xmm0
; File C:\Program Files (x86)\Microsoft Visual Studio\2019\Community\VC\Tools\MSVC\14.29.30133\atlmfc\include\atltypes.h

; 528  : 	left = 0;

  00049	0f 11 45 e0	 movups	 XMMWORD PTR _rcClient$[ebp], xmm0
; File C:\Program Files (x86)\Microsoft Visual Studio\2019\Community\VC\Tools\MSVC\14.29.30133\atlmfc\include\afxwin2.inl

; 86   : 	{ ASSERT(::IsWindow(m_hWnd)); ::GetClientRect(m_hWnd, lpRect); }

  0004d	ff 15 00 00 00
	00		 call	 DWORD PTR __imp__GetClientRect@8
; File D:\git\src\IBK\IBK_DRFN\ProjSrc\SrcDrfn\Chart\MULTICHART\ExtInputBarDlg.cpp

; 3187 : 	CDC memDC;

  00053	8d 8d 74 ff ff
	ff		 lea	 ecx, DWORD PTR _memDC$[ebp]
  00059	e8 00 00 00 00	 call	 ??0CDC@@QAE@XZ		; CDC::CDC
; File C:\Program Files (x86)\Microsoft Visual Studio\2019\Community\VC\Tools\MSVC\14.29.30133\atlmfc\include\afxwin1.inl

; 70   : 	{ m_hObject = NULL; }

  0005e	c7 45 88 00 00
	00 00		 mov	 DWORD PTR _bitmap$[ebp+4], 0

; 177  : 	{ }

  00065	c7 45 84 00 00
	00 00		 mov	 DWORD PTR _bitmap$[ebp], OFFSET ??_7CBitmap@@6B@

; 330  : 	{ return Attach(::CreateCompatibleDC(pDC->GetSafeHdc())); }

  0006c	ff 75 90	 push	 DWORD PTR _dc$[ebp+4]
; File D:\git\src\IBK\IBK_DRFN\ProjSrc\SrcDrfn\Chart\MULTICHART\ExtInputBarDlg.cpp

; 3188 : 	CBitmap bitmap;

  0006f	c6 45 fc 02	 mov	 BYTE PTR __$EHRec$[ebp+8], 2
; File C:\Program Files (x86)\Microsoft Visual Studio\2019\Community\VC\Tools\MSVC\14.29.30133\atlmfc\include\afxwin1.inl

; 330  : 	{ return Attach(::CreateCompatibleDC(pDC->GetSafeHdc())); }

  00073	ff 15 00 00 00
	00		 call	 DWORD PTR __imp__CreateCompatibleDC@4
  00079	50		 push	 eax
  0007a	8d 8d 74 ff ff
	ff		 lea	 ecx, DWORD PTR _memDC$[ebp]
  00080	e8 00 00 00 00	 call	 ?Attach@CDC@@QAEHPAUHDC__@@@Z ; CDC::Attach
; File C:\Program Files (x86)\Microsoft Visual Studio\2019\Community\VC\Tools\MSVC\14.29.30133\atlmfc\include\atltypes.h

; 581  : 	return bottom - top;

  00085	8b 4d ec	 mov	 ecx, DWORD PTR _rcClient$[ebp+12]
  00088	2b 4d e4	 sub	 ecx, DWORD PTR _rcClient$[ebp+4]

; 576  : 	return right - left;

  0008b	8b 45 e8	 mov	 eax, DWORD PTR _rcClient$[ebp+8]
  0008e	2b 45 e0	 sub	 eax, DWORD PTR _rcClient$[ebp]
; File C:\Program Files (x86)\Microsoft Visual Studio\2019\Community\VC\Tools\MSVC\14.29.30133\atlmfc\include\afxwin1.inl

; 217  : 	{ return Attach(::CreateCompatibleBitmap(pDC->m_hDC, nWidth, nHeight)); }

  00091	51		 push	 ecx
  00092	50		 push	 eax
  00093	ff 75 90	 push	 DWORD PTR _dc$[ebp+4]
  00096	ff 15 00 00 00
	00		 call	 DWORD PTR __imp__CreateCompatibleBitmap@12
  0009c	50		 push	 eax
  0009d	8d 4d 84	 lea	 ecx, DWORD PTR _bitmap$[ebp]
  000a0	e8 00 00 00 00	 call	 ?Attach@CGdiObject@@QAEHPAX@Z ; CGdiObject::Attach

; 361  : 	{ ASSERT(m_hDC != NULL); return (CBitmap*) SelectGdiObject(m_hDC, pBitmap->GetSafeHandle()); }

  000a5	ff 75 88	 push	 DWORD PTR _bitmap$[ebp+4]
  000a8	ff b5 78 ff ff
	ff		 push	 DWORD PTR _memDC$[ebp+4]
  000ae	e8 00 00 00 00	 call	 ?SelectGdiObject@CDC@@KGPAVCGdiObject@@PAUHDC__@@PAX@Z ; CDC::SelectGdiObject
; File D:\git\src\IBK\IBK_DRFN\ProjSrc\SrcDrfn\Chart\MULTICHART\ExtInputBarDlg.cpp

; 3193 : 	memDC.FillSolidRect(rcClient, m_crBk);

  000b3	ff b6 f0 32 00
	00		 push	 DWORD PTR [esi+13040]
  000b9	8b f8		 mov	 edi, eax
  000bb	8d 8d 74 ff ff
	ff		 lea	 ecx, DWORD PTR _memDC$[ebp]
  000c1	8d 45 e0	 lea	 eax, DWORD PTR _rcClient$[ebp]
  000c4	50		 push	 eax
  000c5	e8 00 00 00 00	 call	 ?FillSolidRect@CDC@@QAEXPBUtagRECT@@K@Z ; CDC::FillSolidRect
; File C:\Program Files (x86)\Microsoft Visual Studio\2019\Community\VC\Tools\MSVC\14.29.30133\atlmfc\include\atltypes.h

; 581  : 	return bottom - top;

  000ca	8b 55 ec	 mov	 edx, DWORD PTR _rcClient$[ebp+12]
  000cd	8b 75 e4	 mov	 esi, DWORD PTR _rcClient$[ebp+4]
  000d0	2b d6		 sub	 edx, esi

; 576  : 	return right - left;

  000d2	8b 45 e8	 mov	 eax, DWORD PTR _rcClient$[ebp+8]
  000d5	8b 4d e0	 mov	 ecx, DWORD PTR _rcClient$[ebp]
  000d8	2b c1		 sub	 eax, ecx
; File C:\Program Files (x86)\Microsoft Visual Studio\2019\Community\VC\Tools\MSVC\14.29.30133\atlmfc\include\afxwin1.inl

; 552  : 	{ ASSERT(m_hDC != NULL); return ::BitBlt(m_hDC, x, y, nWidth, nHeight,

  000da	68 20 00 cc 00	 push	 13369376		; 00cc0020H
  000df	6a 00		 push	 0
  000e1	6a 00		 push	 0
  000e3	ff b5 78 ff ff
	ff		 push	 DWORD PTR _memDC$[ebp+4]
  000e9	52		 push	 edx
  000ea	50		 push	 eax
  000eb	56		 push	 esi
  000ec	51		 push	 ecx
  000ed	ff 75 90	 push	 DWORD PTR _dc$[ebp+4]
  000f0	ff 15 00 00 00
	00		 call	 DWORD PTR __imp__BitBlt@36

; 68   : 	{ return this == NULL ? NULL : m_hObject; }

  000f6	85 ff		 test	 edi, edi
  000f8	75 04		 jne	 SHORT $LN46@OnPaint
  000fa	33 c0		 xor	 eax, eax
  000fc	eb 03		 jmp	 SHORT $LN47@OnPaint
$LN46@OnPaint:
  000fe	8b 47 04	 mov	 eax, DWORD PTR [edi+4]
$LN47@OnPaint:

; 361  : 	{ ASSERT(m_hDC != NULL); return (CBitmap*) SelectGdiObject(m_hDC, pBitmap->GetSafeHandle()); }

  00101	50		 push	 eax
  00102	ff b5 78 ff ff
	ff		 push	 DWORD PTR _memDC$[ebp+4]
  00108	e8 00 00 00 00	 call	 ?SelectGdiObject@CDC@@KGPAVCGdiObject@@PAUHDC__@@PAX@Z ; CDC::SelectGdiObject
; File D:\git\src\IBK\IBK_DRFN\ProjSrc\SrcDrfn\Chart\MULTICHART\ExtInputBarDlg.cpp

; 3196 : 	memDC.DeleteDC();

  0010d	8d 8d 74 ff ff
	ff		 lea	 ecx, DWORD PTR _memDC$[ebp]
  00113	e8 00 00 00 00	 call	 ?DeleteDC@CDC@@QAEHXZ	; CDC::DeleteDC

; 3197 : 	bitmap.DeleteObject();

  00118	8d 4d 84	 lea	 ecx, DWORD PTR _bitmap$[ebp]
  0011b	e8 00 00 00 00	 call	 ?DeleteObject@CGdiObject@@QAEHXZ ; CGdiObject::DeleteObject
; File C:\Program Files (x86)\Microsoft Visual Studio\2019\Community\VC\Tools\MSVC\14.29.30133\atlmfc\include\afxwin1.inl

; 179  : 	{ }

  00120	8d 4d 84	 lea	 ecx, DWORD PTR _bitmap$[ebp]
  00123	c7 45 84 00 00
	00 00		 mov	 DWORD PTR _bitmap$[ebp], OFFSET ??_7CBitmap@@6B@
  0012a	e8 00 00 00 00	 call	 ??1CGdiObject@@UAE@XZ	; CGdiObject::~CGdiObject
; File D:\git\src\IBK\IBK_DRFN\ProjSrc\SrcDrfn\Chart\MULTICHART\ExtInputBarDlg.cpp

; 3198 : }

  0012f	8d 8d 74 ff ff
	ff		 lea	 ecx, DWORD PTR _memDC$[ebp]
  00135	e8 00 00 00 00	 call	 ??1CDC@@UAE@XZ		; CDC::~CDC
  0013a	8d 4d 8c	 lea	 ecx, DWORD PTR _dc$[ebp]
  0013d	e8 00 00 00 00	 call	 ??1CPaintDC@@UAE@XZ	; CPaintDC::~CPaintDC
  00142	8b 4d f4	 mov	 ecx, DWORD PTR __$EHRec$[ebp]
  00145	64 89 0d 00 00
	00 00		 mov	 DWORD PTR fs:0, ecx
  0014c	59		 pop	 ecx
  0014d	5f		 pop	 edi
  0014e	5e		 pop	 esi
  0014f	8b 4d f0	 mov	 ecx, DWORD PTR __$ArrayPad$[ebp]
  00152	33 cd		 xor	 ecx, ebp
  00154	e8 00 00 00 00	 call	 @__security_check_cookie@4
  00159	8b e5		 mov	 esp, ebp
  0015b	5d		 pop	 ebp
  0015c	c3		 ret	 0
_TEXT	ENDS
;	COMDAT text$x
text$x	SEGMENT
__unwindfunclet$?OnPaint@CExtInputBarDlg@@IAEXXZ$0:
  00000	8d 4d 8c	 lea	 ecx, DWORD PTR _dc$[ebp]
  00003	e9 00 00 00 00	 jmp	 ??1CPaintDC@@UAE@XZ	; CPaintDC::~CPaintDC
__unwindfunclet$?OnPaint@CExtInputBarDlg@@IAEXXZ$1:
  00008	8d 8d 74 ff ff
	ff		 lea	 ecx, DWORD PTR _memDC$[ebp]
  0000e	e9 00 00 00 00	 jmp	 ??1CDC@@UAE@XZ		; CDC::~CDC
__unwindfunclet$?OnPaint@CExtInputBarDlg@@IAEXXZ$2:
  00013	8d 4d 84	 lea	 ecx, DWORD PTR _bitmap$[ebp]
  00016	e9 00 00 00 00	 jmp	 ??1CBitmap@@UAE@XZ	; CBitmap::~CBitmap
  0001b	cc		 int	 3
  0001c	cc		 int	 3
  0001d	cc		 int	 3
  0001e	cc		 int	 3
  0001f	cc		 int	 3
__ehhandler$?OnPaint@CExtInputBarDlg@@IAEXXZ:
  00020	90		 npad	 1
  00021	90		 npad	 1
  00022	8b 54 24 08	 mov	 edx, DWORD PTR [esp+8]
  00026	8d 42 0c	 lea	 eax, DWORD PTR [edx+12]
  00029	8b 8a 74 ff ff
	ff		 mov	 ecx, DWORD PTR [edx-140]
  0002f	33 c8		 xor	 ecx, eax
  00031	e8 00 00 00 00	 call	 @__security_check_cookie@4
  00036	8b 4a fc	 mov	 ecx, DWORD PTR [edx-4]
  00039	33 c8		 xor	 ecx, eax
  0003b	e8 00 00 00 00	 call	 @__security_check_cookie@4
  00040	b8 00 00 00 00	 mov	 eax, OFFSET __ehfuncinfo$?OnPaint@CExtInputBarDlg@@IAEXXZ
  00045	e9 00 00 00 00	 jmp	 ___CxxFrameHandler3
text$x	ENDS
?OnPaint@CExtInputBarDlg@@IAEXXZ ENDP			; CExtInputBarDlg::OnPaint
; Function compile flags: /Ogtp
; File D:\git\src\IBK\IBK_DRFN\ProjSrc\SrcDrfn\Chart\MULTICHART\ExtInputBarDlg.cpp
;	COMDAT ?OnEraseBkgnd@CExtInputBarDlg@@IAEHPAVCDC@@@Z
_TEXT	SEGMENT
_pDC$ = 8						; size = 4
?OnEraseBkgnd@CExtInputBarDlg@@IAEHPAVCDC@@@Z PROC	; CExtInputBarDlg::OnEraseBkgnd, COMDAT
; _this$ = ecx

; 3178 : 	return TRUE;

  00000	b8 01 00 00 00	 mov	 eax, 1

; 3179 : }

  00005	c2 04 00	 ret	 4
?OnEraseBkgnd@CExtInputBarDlg@@IAEHPAVCDC@@@Z ENDP	; CExtInputBarDlg::OnEraseBkgnd
_TEXT	ENDS
; Function compile flags: /Ogtp
; File D:\git\src\IBK\IBK_DRFN\ProjSrc\SrcDrfn\Chart\MULTICHART\ExtInputBarDlg.cpp
; File D:\git\src\IBK\IBK_DRFN\ProjSrc\SrcDrfn\inc\IBaseDefine.h
; File D:\git\src\IBK\IBK_DRFN\ProjSrc\SrcDrfn\Chart\MULTICHART\ExtInputBarDlg.cpp
; File C:\Program Files (x86)\Microsoft Visual Studio\2019\Community\VC\Tools\MSVC\14.29.30133\atlmfc\include\afxwin1.inl
; File D:\git\src\IBK\IBK_DRFN\ProjSrc\SrcDrfn\Chart\MULTICHART\ExtInputBarDlg.cpp
; File C:\Program Files (x86)\Microsoft Visual Studio\2019\Community\VC\Tools\MSVC\14.29.30133\atlmfc\include\afxwin1.inl
; File D:\git\src\IBK\IBK_DRFN\ProjSrc\SrcDrfn\Chart\MULTICHART\ExtInputBarDlg.cpp
; File C:\Program Files (x86)\Microsoft Visual Studio\2019\Community\VC\Tools\MSVC\14.29.30133\atlmfc\include\afxwin2.inl
; File D:\git\src\IBK\IBK_DRFN\ProjSrc\SrcDrfn\Chart\MULTICHART\ExtInputBarDlg.cpp
; File C:\Program Files (x86)\Microsoft Visual Studio\2019\Community\VC\Tools\MSVC\14.29.30133\atlmfc\include\afxwin2.inl
; File D:\git\src\IBK\IBK_DRFN\ProjSrc\SrcDrfn\Chart\MULTICHART\ExtInputBarDlg.cpp
; File C:\Program Files (x86)\Microsoft Visual Studio\2019\Community\VC\Tools\MSVC\14.29.30133\atlmfc\include\afxcoll.inl
; File D:\git\src\IBK\IBK_DRFN\ProjSrc\SrcDrfn\Chart\MULTICHART\ExtInputBarDlg.cpp
; File C:\Program Files (x86)\Microsoft Visual Studio\2019\Community\VC\Tools\MSVC\14.29.30133\atlmfc\include\afxcoll.inl
; File D:\git\src\IBK\IBK_DRFN\ProjSrc\SrcDrfn\Chart\MULTICHART\ExtInputBarDlg.cpp
; File C:\Program Files (x86)\Microsoft Visual Studio\2019\Community\VC\Tools\MSVC\14.29.30133\atlmfc\include\afxwin1.inl
; File D:\git\src\IBK\IBK_DRFN\ProjSrc\SrcDrfn\Chart\MULTICHART\ExtInputBarDlg.cpp
; File C:\Program Files (x86)\Microsoft Visual Studio\2019\Community\VC\Tools\MSVC\14.29.30133\atlmfc\include\afxwin2.inl
; File C:\Program Files (x86)\Microsoft Visual Studio\2019\Community\VC\Tools\MSVC\14.29.30133\atlmfc\include\atltypes.h
; File C:\Program Files (x86)\Microsoft Visual Studio\2019\Community\VC\Tools\MSVC\14.29.30133\atlmfc\include\afxwin2.inl
; File D:\git\src\IBK\IBK_DRFN\ProjSrc\SrcDrfn\Chart\MULTICHART\ExtInputBarDlg.cpp
; File C:\Program Files (x86)\Microsoft Visual Studio\2019\Community\VC\Tools\MSVC\14.29.30133\atlmfc\include\atlsimpstr.h
; File D:\git\src\IBK\IBK_DRFN\ProjSrc\SrcDrfn\Chart\MULTICHART\ExtInputBarDlg.cpp
; File C:\Program Files (x86)\Microsoft Visual Studio\2019\Community\VC\Tools\MSVC\14.29.30133\atlmfc\include\afxcoll.inl
; File D:\git\src\IBK\IBK_DRFN\ProjSrc\SrcDrfn\Chart\MULTICHART\ExtInputBarDlg.cpp
; File C:\Program Files (x86)\Microsoft Visual Studio\2019\Community\VC\Tools\MSVC\14.29.30133\atlmfc\include\afxcoll.inl
; File D:\git\src\IBK\IBK_DRFN\ProjSrc\SrcDrfn\Chart\MULTICHART\ExtInputBarDlg.cpp
; File C:\Program Files (x86)\Microsoft Visual Studio\2019\Community\VC\Tools\MSVC\14.29.30133\atlmfc\include\atlsimpstr.h
; File D:\git\src\IBK\IBK_DRFN\ProjSrc\SrcDrfn\Chart\MULTICHART\ExtInputBarDlg.cpp
; File C:\Program Files (x86)\Microsoft Visual Studio\2019\Community\VC\Tools\MSVC\14.29.30133\atlmfc\include\afxwin1.inl
; File D:\git\src\IBK\IBK_DRFN\ProjSrc\SrcDrfn\Chart\MULTICHART\ExtInputBarDlg.cpp
;	COMDAT ?OnBtnGwansim@CExtInputBarDlg@@IAEXXZ
_TEXT	SEGMENT
_arrKey$ = -124						; size = 20
_arrName$ = -104					; size = 20
_pMenuChild$ = -84					; size = 8
_pGateMng$ = -76					; size = 4
_hMainWnd$2 = -72					; size = 4
_bIsCan$1$ = -68					; size = 4
_menu$ = -64						; size = 8
_this$GSCopy$1$ = -56					; size = 4
$T3 = -56						; size = 4
_strCode$ = -52						; size = 4
_szClipFormat$4 = -48					; size = 4
_strKey$5 = -48						; size = 4
_strGroup$6 = -48					; size = 4
_szClipFormat$7 = -48					; size = 4
_rect$ = -44						; size = 16
_aBufWnd$8 = -28					; size = 9
_aBufWnd$9 = -28					; size = 9
__$ArrayPad$ = -16					; size = 4
__$EHRec$ = -12						; size = 12
?OnBtnGwansim@CExtInputBarDlg@@IAEXXZ PROC		; CExtInputBarDlg::OnBtnGwansim, COMDAT
; _this$ = ecx

; 2998 : {

  00000	55		 push	 ebp
  00001	8b ec		 mov	 ebp, esp
  00003	6a ff		 push	 -1
  00005	68 00 00 00 00	 push	 __ehhandler$?OnBtnGwansim@CExtInputBarDlg@@IAEXXZ
  0000a	64 a1 00 00 00
	00		 mov	 eax, DWORD PTR fs:0
  00010	50		 push	 eax
  00011	83 ec 70	 sub	 esp, 112		; 00000070H
  00014	a1 00 00 00 00	 mov	 eax, DWORD PTR ___security_cookie
  00019	33 c5		 xor	 eax, ebp
  0001b	89 45 f0	 mov	 DWORD PTR __$ArrayPad$[ebp], eax
  0001e	53		 push	 ebx
  0001f	56		 push	 esi
  00020	57		 push	 edi
  00021	50		 push	 eax
  00022	8d 45 f4	 lea	 eax, DWORD PTR __$EHRec$[ebp]
  00025	64 a3 00 00 00
	00		 mov	 DWORD PTR fs:0, eax
  0002b	8b f1		 mov	 esi, ecx
  0002d	89 75 c8	 mov	 DWORD PTR _this$GSCopy$1$[ebp], esi

; 2999 : 	//100311     .
; 3000 : 	BOOL bIsCan = TRUE;
; 3001 : 	CString strCode = ((CChartMng*)m_pChartMng)->GetpChartItemSelected()->GetDataCode();

  00030	8b 8e 00 33 00
	00		 mov	 ecx, DWORD PTR [esi+13056]
  00036	8d 45 cc	 lea	 eax, DWORD PTR _strCode$[ebp]
  00039	6a 00		 push	 0
  0003b	50		 push	 eax
  0003c	c7 45 bc 01 00
	00 00		 mov	 DWORD PTR _bIsCan$1$[ebp], 1
  00043	e8 00 00 00 00	 call	 ?GetpChartItemSelected@CChartMng@@QAEPAVCChartItem@@XZ ; CChartMng::GetpChartItemSelected
  00048	8b c8		 mov	 ecx, eax
  0004a	e8 00 00 00 00	 call	 ?GetDataCode@CChartItem@@QAE?AV?$CStringT@DV?$StrTraitMFC_DLL@DV?$ChTraitsCRT@D@ATL@@@@@ATL@@H@Z ; CChartItem::GetDataCode
  0004f	0f 57 c0	 xorps	 xmm0, xmm0
  00052	c7 45 fc 00 00
	00 00		 mov	 DWORD PTR __$EHRec$[ebp+8], 0
; File D:\git\src\IBK\IBK_DRFN\ProjSrc\SrcDrfn\inc\IBaseDefine.h

; 262  : 	AfxGetHanaroMainWnd(hMainWnd);

  00059	8d 4d d0	 lea	 ecx, DWORD PTR _szClipFormat$4[ebp]
  0005c	c7 45 b8 00 00
	00 00		 mov	 DWORD PTR _hMainWnd$2[ebp], 0
  00063	66 0f d6 45 e4	 movq	 QWORD PTR _aBufWnd$8[ebp], xmm0
  00068	c6 45 ec 00	 mov	 BYTE PTR _aBufWnd$8[ebp+8], 0
  0006c	ff 15 00 00 00
	00		 call	 DWORD PTR __imp_??0?$CStringT@DV?$StrTraitMFC_DLL@DV?$ChTraitsCRT@D@ATL@@@@@ATL@@QAE@XZ
  00072	8b 3d 00 00 00
	00		 mov	 edi, DWORD PTR __imp__GetModuleHandleA@4
  00078	68 00 00 00 00	 push	 OFFSET ??_C@_0M@CBBNGGHM@PcTrMng?4dll@
  0007d	c6 45 fc 01	 mov	 BYTE PTR __$EHRec$[ebp+8], 1
  00081	ff d7		 call	 edi
  00083	50		 push	 eax
  00084	68 00 00 00 00	 push	 OFFSET ??_C@_0P@IDMAJEGN@HANAROPCTRMAIN@
  00089	8d 45 d0	 lea	 eax, DWORD PTR _szClipFormat$4[ebp]
  0008c	68 00 00 00 00	 push	 OFFSET ??_C@_06NDLAHCHE@?$CFs?$CF08X@
  00091	50		 push	 eax
  00092	ff 15 00 00 00
	00		 call	 DWORD PTR __imp_?Format@?$CStringT@DV?$StrTraitMFC_DLL@DV?$ChTraitsCRT@D@ATL@@@@@ATL@@QAAXPBDZZ
  00098	83 c4 10	 add	 esp, 16			; 00000010H
  0009b	8d 45 e4	 lea	 eax, DWORD PTR _aBufWnd$8[ebp]
  0009e	6a 09		 push	 9
  000a0	50		 push	 eax
  000a1	ff 75 d0	 push	 DWORD PTR _szClipFormat$4[ebp]
  000a4	ff 15 00 00 00
	00		 call	 DWORD PTR __imp__GetEnvironmentVariableA@12
  000aa	8d 45 b8	 lea	 eax, DWORD PTR _hMainWnd$2[ebp]
  000ad	50		 push	 eax
  000ae	8d 45 e4	 lea	 eax, DWORD PTR _aBufWnd$8[ebp]
  000b1	68 00 00 00 00	 push	 OFFSET ??_C@_02EMFKHFLK@?$CFX@
  000b6	50		 push	 eax
  000b7	e8 00 00 00 00	 call	 _sscanf
  000bc	83 c4 0c	 add	 esp, 12			; 0000000cH
  000bf	c6 45 fc 00	 mov	 BYTE PTR __$EHRec$[ebp+8], 0
  000c3	8d 4d d0	 lea	 ecx, DWORD PTR _szClipFormat$4[ebp]
  000c6	ff 15 00 00 00
	00		 call	 DWORD PTR __imp_??1?$CStringT@DV?$StrTraitMFC_DLL@DV?$ChTraitsCRT@D@ATL@@@@@ATL@@QAE@XZ

; 263  : 
; 264  : 	return ::SendMessage(hMainWnd, RMSG_INTERFACE, (WPARAM)nID, 0);

  000cc	6a 00		 push	 0
  000ce	6a 05		 push	 5
  000d0	ff 35 00 00 00
	00		 push	 DWORD PTR ?RMSG_INTERFACE@@3IB
  000d6	ff 75 b8	 push	 DWORD PTR _hMainWnd$2[ebp]
  000d9	ff 15 00 00 00
	00		 call	 DWORD PTR __imp__SendMessageA@16
; File D:\git\src\IBK\IBK_DRFN\ProjSrc\SrcDrfn\Chart\MULTICHART\ExtInputBarDlg.cpp

; 3004 : 	int nCodeType = pMasterDataManager->GetCodeTypeFromCode(strCode);

  000df	ff 75 cc	 push	 DWORD PTR _strCode$[ebp]
  000e2	50		 push	 eax
  000e3	8b 08		 mov	 ecx, DWORD PTR [eax]
  000e5	ff 91 d8 00 00
	00		 call	 DWORD PTR [ecx+216]
  000eb	0f b6 c0	 movzx	 eax, al

; 3005 : 	switch(nCodeType)

  000ee	83 e8 0a	 sub	 eax, 10			; 0000000aH
  000f1	74 0a		 je	 SHORT $LN7@OnBtnGwans
  000f3	83 e8 01	 sub	 eax, 1
  000f6	74 05		 je	 SHORT $LN7@OnBtnGwans
  000f8	83 e8 01	 sub	 eax, 1
  000fb	75 07		 jne	 SHORT $LN2@OnBtnGwans
$LN7@OnBtnGwans:

; 3006 : 	{
; 3007 : 		case CDRCodeTypeInfo::CODE_US_ITEM:
; 3008 : 		case CDRCodeTypeInfo::CODE_FUOPT_JIPYO:
; 3009 : 		case CDRCodeTypeInfo::CODE_FUOPT_COMMODITY:
; 3010 : 			bIsCan = FALSE;

  000fd	c7 45 bc 00 00
	00 00		 mov	 DWORD PTR _bIsCan$1$[ebp], 0
$LN2@OnBtnGwans:
; File C:\Program Files (x86)\Microsoft Visual Studio\2019\Community\VC\Tools\MSVC\14.29.30133\atlmfc\include\afxwin1.inl

; 903  : 	{ m_hMenu = NULL; }

  00104	c7 45 c0 00 00
	00 00		 mov	 DWORD PTR _menu$[ebp], OFFSET ??_7CMenu@@6B@
  0010b	c7 45 c4 00 00
	00 00		 mov	 DWORD PTR _menu$[ebp+4], 0
  00112	c7 45 ac 00 00
	00 00		 mov	 DWORD PTR _pMenuChild$[ebp], OFFSET ??_7CMenu@@6B@
  00119	c7 45 b0 00 00
	00 00		 mov	 DWORD PTR _pMenuChild$[ebp+4], 0
; File D:\git\src\IBK\IBK_DRFN\ProjSrc\SrcDrfn\Chart\MULTICHART\ExtInputBarDlg.cpp

; 3014 :     CMenu menu, pMenuChild;

  00120	c6 45 fc 03	 mov	 BYTE PTR __$EHRec$[ebp+8], 3
; File C:\Program Files (x86)\Microsoft Visual Studio\2019\Community\VC\Tools\MSVC\14.29.30133\atlmfc\include\afxwin1.inl

; 909  : 	{ return Attach(::CreatePopupMenu()); }

  00124	ff 15 00 00 00
	00		 call	 DWORD PTR __imp__CreatePopupMenu@0
  0012a	50		 push	 eax
  0012b	8d 4d c0	 lea	 ecx, DWORD PTR _menu$[ebp]
  0012e	e8 00 00 00 00	 call	 ?Attach@CMenu@@QAEHPAUHMENU__@@@Z ; CMenu::Attach

; 924  : 	{ ASSERT(::IsMenu(m_hMenu)); return ::AppendMenu(m_hMenu, nFlags, nIDNewItem, lpszNewItem); }

  00133	8b 1d 00 00 00
	00		 mov	 ebx, DWORD PTR __imp__AppendMenuA@16
  00139	68 00 00 00 00	 push	 OFFSET ??_C@_08OMOHNJKO@?$LA?$PM?$LN?I?$LF?n?$LH?O@
  0013e	6a 65		 push	 101			; 00000065H
  00140	6a 00		 push	 0
  00142	ff 75 c4	 push	 DWORD PTR _menu$[ebp+4]
  00145	ff d3		 call	 ebx
  00147	68 00 00 00 00	 push	 OFFSET ??_C@_00CNPNBAHC@@
  0014c	6a 6e		 push	 110			; 0000006eH
  0014e	68 00 08 00 00	 push	 2048			; 00000800H
  00153	ff 75 c4	 push	 DWORD PTR _menu$[ebp+4]
  00156	ff d3		 call	 ebx
  00158	0f 57 c0	 xorps	 xmm0, xmm0
; File D:\git\src\IBK\IBK_DRFN\ProjSrc\SrcDrfn\Chart\MULTICHART\ExtInputBarDlg.cpp

; 3022 : 	IGateManager* pGateMng;	AfxGetIGateManager(pGateMng);

  0015b	c7 45 b4 00 00
	00 00		 mov	 DWORD PTR _pGateMng$[ebp], 0
  00162	8d 4d d0	 lea	 ecx, DWORD PTR _szClipFormat$7[ebp]
  00165	66 0f d6 45 e4	 movq	 QWORD PTR _aBufWnd$9[ebp], xmm0
  0016a	c6 45 ec 00	 mov	 BYTE PTR _aBufWnd$9[ebp+8], 0
  0016e	ff 15 00 00 00
	00		 call	 DWORD PTR __imp_??0?$CStringT@DV?$StrTraitMFC_DLL@DV?$ChTraitsCRT@D@ATL@@@@@ATL@@QAE@XZ
  00174	68 00 00 00 00	 push	 OFFSET ??_C@_0M@CBBNGGHM@PcTrMng?4dll@
  00179	c6 45 fc 04	 mov	 BYTE PTR __$EHRec$[ebp+8], 4
  0017d	ff d7		 call	 edi
  0017f	50		 push	 eax
  00180	68 00 00 00 00	 push	 OFFSET ??_C@_0BD@CMCCCNBF@HANAROIGATEMANAGER@
  00185	8d 45 d0	 lea	 eax, DWORD PTR _szClipFormat$7[ebp]
  00188	68 00 00 00 00	 push	 OFFSET ??_C@_06NDLAHCHE@?$CFs?$CF08X@
  0018d	50		 push	 eax
  0018e	ff 15 00 00 00
	00		 call	 DWORD PTR __imp_?Format@?$CStringT@DV?$StrTraitMFC_DLL@DV?$ChTraitsCRT@D@ATL@@@@@ATL@@QAAXPBDZZ
  00194	83 c4 10	 add	 esp, 16			; 00000010H
  00197	8d 45 e4	 lea	 eax, DWORD PTR _aBufWnd$9[ebp]
  0019a	6a 09		 push	 9
  0019c	50		 push	 eax
  0019d	ff 75 d0	 push	 DWORD PTR _szClipFormat$7[ebp]
  001a0	ff 15 00 00 00
	00		 call	 DWORD PTR __imp__GetEnvironmentVariableA@12
  001a6	8d 45 b4	 lea	 eax, DWORD PTR _pGateMng$[ebp]
  001a9	50		 push	 eax
  001aa	8d 45 e4	 lea	 eax, DWORD PTR _aBufWnd$9[ebp]
  001ad	68 00 00 00 00	 push	 OFFSET ??_C@_02EMFKHFLK@?$CFX@
  001b2	50		 push	 eax
  001b3	e8 00 00 00 00	 call	 _sscanf
  001b8	83 c4 0c	 add	 esp, 12			; 0000000cH
  001bb	c6 45 fc 03	 mov	 BYTE PTR __$EHRec$[ebp+8], 3
  001bf	8d 4d d0	 lea	 ecx, DWORD PTR _szClipFormat$7[ebp]
  001c2	ff 15 00 00 00
	00		 call	 DWORD PTR __imp_??1?$CStringT@DV?$StrTraitMFC_DLL@DV?$ChTraitsCRT@D@ATL@@@@@ATL@@QAE@XZ

; 3023 : 	if(!pGateMng)

  001c8	83 7d b4 00	 cmp	 DWORD PTR _pGateMng$[ebp], 0
  001cc	0f 84 af 01 00
	00		 je	 $LN32@OnBtnGwans

; 3026 : 	CStringArray arrKey, arrName;

  001d2	8d 4d 84	 lea	 ecx, DWORD PTR _arrKey$[ebp]
  001d5	e8 00 00 00 00	 call	 ??0CStringArray@@QAE@XZ	; CStringArray::CStringArray
  001da	8d 4d 98	 lea	 ecx, DWORD PTR _arrName$[ebp]
  001dd	c6 45 fc 07	 mov	 BYTE PTR __$EHRec$[ebp+8], 7
  001e1	e8 00 00 00 00	 call	 ??0CStringArray@@QAE@XZ	; CStringArray::CStringArray
; File C:\Program Files (x86)\Microsoft Visual Studio\2019\Community\VC\Tools\MSVC\14.29.30133\atlmfc\include\afxwin2.inl

; 213  : 	{ ASSERT(::IsWindow(m_hWnd)); return CWnd::FromHandle(::GetParent(m_hWnd)); }

  001e6	ff 76 20	 push	 DWORD PTR [esi+32]
; File D:\git\src\IBK\IBK_DRFN\ProjSrc\SrcDrfn\Chart\MULTICHART\ExtInputBarDlg.cpp

; 3026 : 	CStringArray arrKey, arrName;

  001e9	c6 45 fc 08	 mov	 BYTE PTR __$EHRec$[ebp+8], 8
; File C:\Program Files (x86)\Microsoft Visual Studio\2019\Community\VC\Tools\MSVC\14.29.30133\atlmfc\include\afxwin2.inl

; 213  : 	{ ASSERT(::IsWindow(m_hWnd)); return CWnd::FromHandle(::GetParent(m_hWnd)); }

  001ed	ff 15 00 00 00
	00		 call	 DWORD PTR __imp__GetParent@4
  001f3	50		 push	 eax
  001f4	e8 00 00 00 00	 call	 ?FromHandle@CWnd@@SGPAV1@PAUHWND__@@@Z ; CWnd::FromHandle
; File D:\git\src\IBK\IBK_DRFN\ProjSrc\SrcDrfn\Chart\MULTICHART\ExtInputBarDlg.cpp

; 3029 : 	CStdDialog* pStdParent = (CStdDialog*)GetParent();

  001f9	8b f8		 mov	 edi, eax

; 3030 : 	//<<20100413_JS.Kim 
; 3031 : 	if( !pStdParent || !pStdParent->m_pGwanMng )

  001fb	85 ff		 test	 edi, edi
  001fd	0f 84 6e 01 00
	00		 je	 $LN12@OnBtnGwans
  00203	8b 87 14 14 00
	00		 mov	 eax, DWORD PTR [edi+5140]
  00209	85 c0		 test	 eax, eax
  0020b	0f 84 60 01 00
	00		 je	 $LN12@OnBtnGwans

; 3032 : 		return;
; 3033 : 	//>>
; 3034 : 
; 3035 : 	pStdParent->m_pGwanMng->GetGwansimGroupName(arrKey, arrName);

  00211	8b 08		 mov	 ecx, DWORD PTR [eax]
  00213	8d 55 98	 lea	 edx, DWORD PTR _arrName$[ebp]
  00216	52		 push	 edx
  00217	8d 55 84	 lea	 edx, DWORD PTR _arrKey$[ebp]
  0021a	52		 push	 edx
  0021b	50		 push	 eax
  0021c	ff 51 0c	 call	 DWORD PTR [ecx+12]

; 3036 : 	//pMng->GetGwansimGroupName(arrKey, arrName);
; 3037 : 
; 3038 : 	if(bIsCan)

  0021f	83 7d bc 00	 cmp	 DWORD PTR _bIsCan$1$[ebp], 0
  00223	74 64		 je	 SHORT $LN13@OnBtnGwans

; 3039 : 	{
; 3040 : 		CString strGroup;

  00225	8d 4d d0	 lea	 ecx, DWORD PTR _strGroup$6[ebp]
  00228	ff 15 00 00 00
	00		 call	 DWORD PTR __imp_??0?$CStringT@DV?$StrTraitMFC_DLL@DV?$ChTraitsCRT@D@ATL@@@@@ATL@@QAE@XZ

; 3041 : 		for(int wIndexItem=0;wIndexItem<arrName.GetSize();wIndexItem++)

  0022e	8b 45 a0	 mov	 eax, DWORD PTR _arrName$[ebp+8]
  00231	33 f6		 xor	 esi, esi
  00233	c6 45 fc 0b	 mov	 BYTE PTR __$EHRec$[ebp+8], 11 ; 0000000bH
  00237	85 c0		 test	 eax, eax
  00239	7e 3e		 jle	 SHORT $LN5@OnBtnGwans
  0023b	0f 1f 44 00 00	 npad	 5
$LL6@OnBtnGwans:
; File C:\Program Files (x86)\Microsoft Visual Studio\2019\Community\VC\Tools\MSVC\14.29.30133\atlmfc\include\afxcoll.inl

; 289  : 		if( nIndex < 0 || nIndex >= m_nSize )

  00240	85 f6		 test	 esi, esi
  00242	0f 88 84 01 00
	00		 js	 $LN108@OnBtnGwans
  00248	3b f0		 cmp	 esi, eax
  0024a	0f 8d 7c 01 00
	00		 jge	 $LN108@OnBtnGwans

; 291  : 		return m_pData[nIndex]; }

  00250	8b 45 9c	 mov	 eax, DWORD PTR _arrName$[ebp+4]
; File D:\git\src\IBK\IBK_DRFN\ProjSrc\SrcDrfn\Chart\MULTICHART\ExtInputBarDlg.cpp

; 3043 : 			strGroup = arrName.GetAt(wIndexItem);

  00253	8d 4d d0	 lea	 ecx, DWORD PTR _strGroup$6[ebp]
; File C:\Program Files (x86)\Microsoft Visual Studio\2019\Community\VC\Tools\MSVC\14.29.30133\atlmfc\include\afxcoll.inl

; 291  : 		return m_pData[nIndex]; }

  00256	8d 04 b0	 lea	 eax, DWORD PTR [eax+esi*4]
; File D:\git\src\IBK\IBK_DRFN\ProjSrc\SrcDrfn\Chart\MULTICHART\ExtInputBarDlg.cpp

; 3043 : 			strGroup = arrName.GetAt(wIndexItem);

  00259	50		 push	 eax
  0025a	ff 15 00 00 00
	00		 call	 DWORD PTR __imp_??4?$CStringT@DV?$StrTraitMFC_DLL@DV?$ChTraitsCRT@D@ATL@@@@@ATL@@QAEAAV01@ABV01@@Z
; File C:\Program Files (x86)\Microsoft Visual Studio\2019\Community\VC\Tools\MSVC\14.29.30133\atlmfc\include\afxwin1.inl

; 924  : 	{ ASSERT(::IsMenu(m_hMenu)); return ::AppendMenu(m_hMenu, nFlags, nIDNewItem, lpszNewItem); }

  00260	ff 75 d0	 push	 DWORD PTR _strGroup$6[ebp]
  00263	8d 86 c8 00 00
	00		 lea	 eax, DWORD PTR [esi+200]
  00269	50		 push	 eax
  0026a	6a 00		 push	 0
  0026c	ff 75 c4	 push	 DWORD PTR _menu$[ebp+4]
  0026f	ff d3		 call	 ebx
; File D:\git\src\IBK\IBK_DRFN\ProjSrc\SrcDrfn\Chart\MULTICHART\ExtInputBarDlg.cpp

; 3041 : 		for(int wIndexItem=0;wIndexItem<arrName.GetSize();wIndexItem++)

  00271	8b 45 a0	 mov	 eax, DWORD PTR _arrName$[ebp+8]
  00274	46		 inc	 esi
  00275	3b f0		 cmp	 esi, eax
  00277	7c c7		 jl	 SHORT $LL6@OnBtnGwans
$LN5@OnBtnGwans:

; 3044 : 			menu.AppendMenu(MF_STRING,200+wIndexItem,strGroup);
; 3045 : 		}
; 3046 : 	}

  00279	8d 4d d0	 lea	 ecx, DWORD PTR _strGroup$6[ebp]
  0027c	c6 45 fc 08	 mov	 BYTE PTR __$EHRec$[ebp+8], 8
  00280	ff 15 00 00 00
	00		 call	 DWORD PTR __imp_??1?$CStringT@DV?$StrTraitMFC_DLL@DV?$ChTraitsCRT@D@ATL@@@@@ATL@@QAE@XZ
  00286	8b 75 c8	 mov	 esi, DWORD PTR _this$GSCopy$1$[ebp]
$LN13@OnBtnGwans:
; File C:\Program Files (x86)\Microsoft Visual Studio\2019\Community\VC\Tools\MSVC\14.29.30133\atlmfc\include\afxwin2.inl

; 84   : 	{ ASSERT(::IsWindow(m_hWnd)); ::GetWindowRect(m_hWnd, lpRect); }

  00289	8d 45 d4	 lea	 eax, DWORD PTR _rect$[ebp]
  0028c	0f 57 c0	 xorps	 xmm0, xmm0
  0028f	50		 push	 eax
  00290	ff b6 a8 05 00
	00		 push	 DWORD PTR [esi+1448]
; File C:\Program Files (x86)\Microsoft Visual Studio\2019\Community\VC\Tools\MSVC\14.29.30133\atlmfc\include\atltypes.h

; 528  : 	left = 0;

  00296	0f 11 45 d4	 movups	 XMMWORD PTR _rect$[ebp], xmm0
; File C:\Program Files (x86)\Microsoft Visual Studio\2019\Community\VC\Tools\MSVC\14.29.30133\atlmfc\include\afxwin2.inl

; 84   : 	{ ASSERT(::IsWindow(m_hWnd)); ::GetWindowRect(m_hWnd, lpRect); }

  0029a	ff 15 00 00 00
	00		 call	 DWORD PTR __imp__GetWindowRect@8
; File D:\git\src\IBK\IBK_DRFN\ProjSrc\SrcDrfn\Chart\MULTICHART\ExtInputBarDlg.cpp

; 3050 :  	int nRetValue = menu.TrackPopupMenu(flags, rect.left, rect.bottom, this);

  002a0	6a 00		 push	 0
  002a2	56		 push	 esi
  002a3	ff 75 e0	 push	 DWORD PTR _rect$[ebp+12]
  002a6	8d 4d c0	 lea	 ecx, DWORD PTR _menu$[ebp]
  002a9	ff 75 d4	 push	 DWORD PTR _rect$[ebp]
  002ac	68 82 01 00 00	 push	 386			; 00000182H
  002b1	e8 00 00 00 00	 call	 ?TrackPopupMenu@CMenu@@QAEHIHHPAVCWnd@@PBUtagRECT@@@Z ; CMenu::TrackPopupMenu

; 3051 : 	
; 3052 :     menu.DestroyMenu();	

  002b6	8d 4d c0	 lea	 ecx, DWORD PTR _menu$[ebp]
  002b9	8b d8		 mov	 ebx, eax
  002bb	e8 00 00 00 00	 call	 ?DestroyMenu@CMenu@@QAEHXZ ; CMenu::DestroyMenu

; 3053 : 
; 3054 : 	if(nRetValue == 101)

  002c0	83 fb 65	 cmp	 ebx, 101		; 00000065H
  002c3	75 33		 jne	 SHORT $LN16@OnBtnGwans
; File C:\Program Files (x86)\Microsoft Visual Studio\2019\Community\VC\Tools\MSVC\14.29.30133\atlmfc\include\atlsimpstr.h

; 519  : 		return( GetData()->nDataLength );

  002c5	8b 45 cc	 mov	 eax, DWORD PTR _strCode$[ebp]

; 533  : 		return( GetLength() == 0 );

  002c8	83 78 f4 00	 cmp	 DWORD PTR [eax-12], 0
; File D:\git\src\IBK\IBK_DRFN\ProjSrc\SrcDrfn\Chart\MULTICHART\ExtInputBarDlg.cpp

; 3058 : 		if (!strCode.IsEmpty() )

  002cc	74 0e		 je	 SHORT $LN15@OnBtnGwans

; 3059 : 		{
; 3060 : 			{
; 3061 : 				strCode = "";

  002ce	68 00 00 00 00	 push	 OFFSET ??_C@_00CNPNBAHC@@
  002d3	8d 4d cc	 lea	 ecx, DWORD PTR _strCode$[ebp]
  002d6	ff 15 00 00 00
	00		 call	 DWORD PTR __imp_??4?$CStringT@DV?$StrTraitMFC_DLL@DV?$ChTraitsCRT@D@ATL@@@@@ATL@@QAEAAV01@PBD@Z
$LN15@OnBtnGwans:

; 3085 : }

  002dc	51		 push	 ecx
  002dd	8d 45 cc	 lea	 eax, DWORD PTR _strCode$[ebp]
  002e0	8b cc		 mov	 ecx, esp
  002e2	50		 push	 eax
  002e3	ff 15 00 00 00
	00		 call	 DWORD PTR __imp_??0?$CStringT@DV?$StrTraitMFC_DLL@DV?$ChTraitsCRT@D@ATL@@@@@ATL@@QAE@ABV01@@Z
  002e9	8b 87 14 14 00
	00		 mov	 eax, DWORD PTR [edi+5140]
  002ef	56		 push	 esi
  002f0	50		 push	 eax
  002f1	8b 08		 mov	 ecx, DWORD PTR [eax]
  002f3	ff 51 14	 call	 DWORD PTR [ecx+20]
  002f6	eb 79		 jmp	 SHORT $LN12@OnBtnGwans
$LN16@OnBtnGwans:

; 3062 : 			}
; 3063 : 			//pMng->ShowGwansimDlg(this, strCode);
; 3064 : 			pStdParent->m_pGwanMng->ShowGwansimDlg(this, strCode);
; 3065 : 		}
; 3066 : 		else
; 3067 : 		{
; 3068 : 			//pMng->ShowGwansimDlg(this);
; 3069 : 			pStdParent->m_pGwanMng->ShowGwansimDlg(this, strCode);
; 3070 : 		}
; 3071 : 	}
; 3072 : 	if(nRetValue >= 200)

  002f8	81 fb c8 00 00
	00		 cmp	 ebx, 200		; 000000c8H
  002fe	7c 71		 jl	 SHORT $LN12@OnBtnGwans

; 3073 : 	{
; 3074 : 		//CString strCode = ((CChartMng*)m_pChartMng)->GetpChartItemSelected()->GetDataCode();
; 3075 : 		CString strKey;//, strGroup;

  00300	8d 4d d0	 lea	 ecx, DWORD PTR _strKey$5[ebp]
  00303	ff 15 00 00 00
	00		 call	 DWORD PTR __imp_??0?$CStringT@DV?$StrTraitMFC_DLL@DV?$ChTraitsCRT@D@ATL@@@@@ATL@@QAE@XZ

; 3077 : 		strKey = arrKey.GetAt(nRetValue-200);

  00309	81 c3 38 ff ff
	ff		 add	 ebx, -200		; ffffff38H
  0030f	c6 45 fc 0c	 mov	 BYTE PTR __$EHRec$[ebp+8], 12 ; 0000000cH
; File C:\Program Files (x86)\Microsoft Visual Studio\2019\Community\VC\Tools\MSVC\14.29.30133\atlmfc\include\afxcoll.inl

; 289  : 		if( nIndex < 0 || nIndex >= m_nSize )

  00313	3b 5d 8c	 cmp	 ebx, DWORD PTR _arrKey$[ebp+8]
  00316	0f 8d b0 00 00
	00		 jge	 $LN108@OnBtnGwans

; 291  : 		return m_pData[nIndex]; }

  0031c	8b 45 88	 mov	 eax, DWORD PTR _arrKey$[ebp+4]
; File D:\git\src\IBK\IBK_DRFN\ProjSrc\SrcDrfn\Chart\MULTICHART\ExtInputBarDlg.cpp

; 3077 : 		strKey = arrKey.GetAt(nRetValue-200);

  0031f	8d 4d d0	 lea	 ecx, DWORD PTR _strKey$5[ebp]
; File C:\Program Files (x86)\Microsoft Visual Studio\2019\Community\VC\Tools\MSVC\14.29.30133\atlmfc\include\afxcoll.inl

; 291  : 		return m_pData[nIndex]; }

  00322	8d 04 98	 lea	 eax, DWORD PTR [eax+ebx*4]
; File D:\git\src\IBK\IBK_DRFN\ProjSrc\SrcDrfn\Chart\MULTICHART\ExtInputBarDlg.cpp

; 3077 : 		strKey = arrKey.GetAt(nRetValue-200);

  00325	50		 push	 eax
  00326	ff 15 00 00 00
	00		 call	 DWORD PTR __imp_??4?$CStringT@DV?$StrTraitMFC_DLL@DV?$ChTraitsCRT@D@ATL@@@@@ATL@@QAEAAV01@ABV01@@Z
; File C:\Program Files (x86)\Microsoft Visual Studio\2019\Community\VC\Tools\MSVC\14.29.30133\atlmfc\include\atlsimpstr.h

; 519  : 		return( GetData()->nDataLength );

  0032c	8b 45 d0	 mov	 eax, DWORD PTR _strKey$5[ebp]
; File D:\git\src\IBK\IBK_DRFN\ProjSrc\SrcDrfn\Chart\MULTICHART\ExtInputBarDlg.cpp

; 3079 : 		if(strKey.GetLength() == 0)

  0032f	83 78 f4 00	 cmp	 DWORD PTR [eax-12], 0
  00333	74 33		 je	 SHORT $LN114@OnBtnGwans

; 3080 : 			return;
; 3081 : 
; 3082 : 		//pMng->ADDGwasimItem(strKey, strCode);
; 3083 : 		pStdParent->m_pGwanMng->ADDGwasimItem(strKey, strCode);

  00335	6a 00		 push	 0
  00337	51		 push	 ecx
  00338	8d 45 cc	 lea	 eax, DWORD PTR _strCode$[ebp]
  0033b	89 65 c8	 mov	 DWORD PTR $T3[ebp], esp
  0033e	8b cc		 mov	 ecx, esp
  00340	50		 push	 eax
  00341	ff 15 00 00 00
	00		 call	 DWORD PTR __imp_??0?$CStringT@DV?$StrTraitMFC_DLL@DV?$ChTraitsCRT@D@ATL@@@@@ATL@@QAE@ABV01@@Z
  00347	51		 push	 ecx
  00348	8d 45 d0	 lea	 eax, DWORD PTR _strKey$5[ebp]
  0034b	c6 45 fc 0f	 mov	 BYTE PTR __$EHRec$[ebp+8], 15 ; 0000000fH
  0034f	8b cc		 mov	 ecx, esp
  00351	50		 push	 eax
  00352	ff 15 00 00 00
	00		 call	 DWORD PTR __imp_??0?$CStringT@DV?$StrTraitMFC_DLL@DV?$ChTraitsCRT@D@ATL@@@@@ATL@@QAE@ABV01@@Z
  00358	8b 87 14 14 00
	00		 mov	 eax, DWORD PTR [edi+5140]
  0035e	50		 push	 eax
  0035f	8b 08		 mov	 ecx, DWORD PTR [eax]
  00361	c6 45 fc 0c	 mov	 BYTE PTR __$EHRec$[ebp+8], 12 ; 0000000cH
  00365	ff 51 18	 call	 DWORD PTR [ecx+24]
$LN114@OnBtnGwans:

; 3085 : }

  00368	8d 4d d0	 lea	 ecx, DWORD PTR _strKey$5[ebp]
  0036b	ff 15 00 00 00
	00		 call	 DWORD PTR __imp_??1?$CStringT@DV?$StrTraitMFC_DLL@DV?$ChTraitsCRT@D@ATL@@@@@ATL@@QAE@XZ
$LN12@OnBtnGwans:
  00371	8d 4d 98	 lea	 ecx, DWORD PTR _arrName$[ebp]
  00374	e8 00 00 00 00	 call	 ??1CStringArray@@UAE@XZ	; CStringArray::~CStringArray
  00379	8d 4d 84	 lea	 ecx, DWORD PTR _arrKey$[ebp]
  0037c	e8 00 00 00 00	 call	 ??1CStringArray@@UAE@XZ	; CStringArray::~CStringArray
$LN32@OnBtnGwans:
; File C:\Program Files (x86)\Microsoft Visual Studio\2019\Community\VC\Tools\MSVC\14.29.30133\atlmfc\include\afxwin1.inl

; 905  : 	{ DestroyMenu(); }

  00381	8d 4d ac	 lea	 ecx, DWORD PTR _pMenuChild$[ebp]
  00384	c6 45 fc 10	 mov	 BYTE PTR __$EHRec$[ebp+8], 16 ; 00000010H
  00388	c7 45 ac 00 00
	00 00		 mov	 DWORD PTR _pMenuChild$[ebp], OFFSET ??_7CMenu@@6B@
  0038f	e8 00 00 00 00	 call	 ?DestroyMenu@CMenu@@QAEHXZ ; CMenu::DestroyMenu
  00394	8d 4d c0	 lea	 ecx, DWORD PTR _menu$[ebp]
  00397	c6 45 fc 11	 mov	 BYTE PTR __$EHRec$[ebp+8], 17 ; 00000011H
  0039b	c7 45 c0 00 00
	00 00		 mov	 DWORD PTR _menu$[ebp], OFFSET ??_7CMenu@@6B@
  003a2	e8 00 00 00 00	 call	 ?DestroyMenu@CMenu@@QAEHXZ ; CMenu::DestroyMenu
; File D:\git\src\IBK\IBK_DRFN\ProjSrc\SrcDrfn\Chart\MULTICHART\ExtInputBarDlg.cpp

; 3085 : }

  003a7	8d 4d cc	 lea	 ecx, DWORD PTR _strCode$[ebp]
  003aa	ff 15 00 00 00
	00		 call	 DWORD PTR __imp_??1?$CStringT@DV?$StrTraitMFC_DLL@DV?$ChTraitsCRT@D@ATL@@@@@ATL@@QAE@XZ
  003b0	8b 4d f4	 mov	 ecx, DWORD PTR __$EHRec$[ebp]
  003b3	64 89 0d 00 00
	00 00		 mov	 DWORD PTR fs:0, ecx
  003ba	59		 pop	 ecx
  003bb	5f		 pop	 edi
  003bc	5e		 pop	 esi
  003bd	5b		 pop	 ebx
  003be	8b 4d f0	 mov	 ecx, DWORD PTR __$ArrayPad$[ebp]
  003c1	33 cd		 xor	 ecx, ebp
  003c3	e8 00 00 00 00	 call	 @__security_check_cookie@4
  003c8	8b e5		 mov	 esp, ebp
  003ca	5d		 pop	 ebp
  003cb	c3		 ret	 0
$LN108@OnBtnGwans:
  003cc	e8 00 00 00 00	 call	 ?AfxThrowInvalidArgException@@YGXXZ ; AfxThrowInvalidArgException
$LN113@OnBtnGwans:
  003d1	cc		 int	 3
_TEXT	ENDS
;	COMDAT text$x
text$x	SEGMENT
__unwindfunclet$?OnBtnGwansim@CExtInputBarDlg@@IAEXXZ$0:
  00000	8d 4d cc	 lea	 ecx, DWORD PTR _strCode$[ebp]
  00003	ff 25 00 00 00
	00		 jmp	 DWORD PTR __imp_??1?$CStringT@DV?$StrTraitMFC_DLL@DV?$ChTraitsCRT@D@ATL@@@@@ATL@@QAE@XZ
__unwindfunclet$?OnBtnGwansim@CExtInputBarDlg@@IAEXXZ$12:
  00009	8d 4d d0	 lea	 ecx, DWORD PTR _szClipFormat$4[ebp]
  0000c	ff 25 00 00 00
	00		 jmp	 DWORD PTR __imp_??1?$CStringT@DV?$StrTraitMFC_DLL@DV?$ChTraitsCRT@D@ATL@@@@@ATL@@QAE@XZ
__unwindfunclet$?OnBtnGwansim@CExtInputBarDlg@@IAEXXZ$1:
  00012	8d 4d c0	 lea	 ecx, DWORD PTR _menu$[ebp]
  00015	e9 00 00 00 00	 jmp	 ??1CMenu@@UAE@XZ	; CMenu::~CMenu
__unwindfunclet$?OnBtnGwansim@CExtInputBarDlg@@IAEXXZ$2:
  0001a	8d 4d ac	 lea	 ecx, DWORD PTR _pMenuChild$[ebp]
  0001d	e9 00 00 00 00	 jmp	 ??1CMenu@@UAE@XZ	; CMenu::~CMenu
__unwindfunclet$?OnBtnGwansim@CExtInputBarDlg@@IAEXXZ$3:
  00022	8d 4d d0	 lea	 ecx, DWORD PTR _szClipFormat$7[ebp]
  00025	ff 25 00 00 00
	00		 jmp	 DWORD PTR __imp_??1?$CStringT@DV?$StrTraitMFC_DLL@DV?$ChTraitsCRT@D@ATL@@@@@ATL@@QAE@XZ
__unwindfunclet$?OnBtnGwansim@CExtInputBarDlg@@IAEXXZ$4:
  0002b	8d 4d 84	 lea	 ecx, DWORD PTR _arrKey$[ebp]
  0002e	e9 00 00 00 00	 jmp	 ??1CStringArray@@UAE@XZ	; CStringArray::~CStringArray
__unwindfunclet$?OnBtnGwansim@CExtInputBarDlg@@IAEXXZ$5:
  00033	8d 4d 98	 lea	 ecx, DWORD PTR _arrName$[ebp]
  00036	e9 00 00 00 00	 jmp	 ??1CStringArray@@UAE@XZ	; CStringArray::~CStringArray
__unwindfunclet$?OnBtnGwansim@CExtInputBarDlg@@IAEXXZ$6:
  0003b	8d 4d d0	 lea	 ecx, DWORD PTR _strGroup$6[ebp]
  0003e	ff 25 00 00 00
	00		 jmp	 DWORD PTR __imp_??1?$CStringT@DV?$StrTraitMFC_DLL@DV?$ChTraitsCRT@D@ATL@@@@@ATL@@QAE@XZ
__unwindfunclet$?OnBtnGwansim@CExtInputBarDlg@@IAEXXZ$9:
  00044	8d 4d d0	 lea	 ecx, DWORD PTR _strKey$5[ebp]
  00047	ff 25 00 00 00
	00		 jmp	 DWORD PTR __imp_??1?$CStringT@DV?$StrTraitMFC_DLL@DV?$ChTraitsCRT@D@ATL@@@@@ATL@@QAE@XZ
__unwindfunclet$?OnBtnGwansim@CExtInputBarDlg@@IAEXXZ$10:
  0004d	8b 4d c8	 mov	 ecx, DWORD PTR $T3[ebp]
  00050	ff 25 00 00 00
	00		 jmp	 DWORD PTR __imp_??1?$CStringT@DV?$StrTraitMFC_DLL@DV?$ChTraitsCRT@D@ATL@@@@@ATL@@QAE@XZ
  00056	cc		 int	 3
  00057	cc		 int	 3
  00058	cc		 int	 3
  00059	cc		 int	 3
  0005a	cc		 int	 3
__ehhandler$?OnBtnGwansim@CExtInputBarDlg@@IAEXXZ:
  0005b	90		 npad	 1
  0005c	90		 npad	 1
  0005d	8b 54 24 08	 mov	 edx, DWORD PTR [esp+8]
  00061	8d 42 0c	 lea	 eax, DWORD PTR [edx+12]
  00064	8b 4a 80	 mov	 ecx, DWORD PTR [edx-128]
  00067	33 c8		 xor	 ecx, eax
  00069	e8 00 00 00 00	 call	 @__security_check_cookie@4
  0006e	8b 4a fc	 mov	 ecx, DWORD PTR [edx-4]
  00071	33 c8		 xor	 ecx, eax
  00073	e8 00 00 00 00	 call	 @__security_check_cookie@4
  00078	b8 00 00 00 00	 mov	 eax, OFFSET __ehfuncinfo$?OnBtnGwansim@CExtInputBarDlg@@IAEXXZ
  0007d	e9 00 00 00 00	 jmp	 ___CxxFrameHandler3
text$x	ENDS
?OnBtnGwansim@CExtInputBarDlg@@IAEXXZ ENDP		; CExtInputBarDlg::OnBtnGwansim
; Function compile flags: /Ogtp
; File D:\git\src\IBK\IBK_DRFN\ProjSrc\SrcDrfn\Chart\MULTICHART\ExtInputBarDlg.cpp
; File C:\Program Files (x86)\Microsoft Visual Studio\2019\Community\VC\Tools\MSVC\14.29.30133\atlmfc\include\afxwin2.inl
; File D:\git\src\IBK\IBK_DRFN\ProjSrc\SrcDrfn\Chart\MULTICHART\ExtInputBarDlg.cpp
; File C:\Program Files (x86)\Microsoft Visual Studio\2019\Community\VC\Tools\MSVC\14.29.30133\atlmfc\include\afxwin2.inl
; File D:\git\src\IBK\IBK_DRFN\ProjSrc\SrcDrfn\Chart\MULTICHART\ExtInputBarDlg.cpp
; File C:\Program Files (x86)\Microsoft Visual Studio\2019\Community\VC\Tools\MSVC\14.29.30133\atlmfc\include\afxwin2.inl
; File D:\git\src\IBK\IBK_DRFN\ProjSrc\SrcDrfn\Chart\MULTICHART\ExtInputBarDlg.cpp
; File C:\Program Files (x86)\Microsoft Visual Studio\2019\Community\VC\Tools\MSVC\14.29.30133\atlmfc\include\afxwin2.inl
; File D:\git\src\IBK\IBK_DRFN\ProjSrc\SrcDrfn\Chart\MULTICHART\ExtInputBarDlg.cpp
; File C:\Program Files (x86)\Microsoft Visual Studio\2019\Community\VC\Tools\MSVC\14.29.30133\atlmfc\include\afxwin2.inl
; File D:\git\src\IBK\IBK_DRFN\ProjSrc\SrcDrfn\Chart\MULTICHART\ExtInputBarDlg.cpp
;	COMDAT ?OnChkfixperiod@CExtInputBarDlg@@IAEXXZ
_TEXT	SEGMENT
_dEndDate$1 = -20					; size = 8
_dStartDate$2 = -12					; size = 8
_strZoomValue$3 = -4					; size = 4
?OnChkfixperiod@CExtInputBarDlg@@IAEXXZ PROC		; CExtInputBarDlg::OnChkfixperiod, COMDAT
; _this$ = ecx

; 2770 : {

  00000	55		 push	 ebp
  00001	8b ec		 mov	 ebp, esp
  00003	83 ec 14	 sub	 esp, 20			; 00000014H
  00006	53		 push	 ebx
; File C:\Program Files (x86)\Microsoft Visual Studio\2019\Community\VC\Tools\MSVC\14.29.30133\atlmfc\include\afxwin2.inl

; 213  : 	{ ASSERT(::IsWindow(m_hWnd)); return CWnd::FromHandle(::GetParent(m_hWnd)); }

  00007	8b 1d 00 00 00
	00		 mov	 ebx, DWORD PTR __imp__GetParent@4
; File D:\git\src\IBK\IBK_DRFN\ProjSrc\SrcDrfn\Chart\MULTICHART\ExtInputBarDlg.cpp

; 2770 : {

  0000d	56		 push	 esi
  0000e	8b f1		 mov	 esi, ecx
  00010	57		 push	 edi
; File C:\Program Files (x86)\Microsoft Visual Studio\2019\Community\VC\Tools\MSVC\14.29.30133\atlmfc\include\afxwin2.inl

; 213  : 	{ ASSERT(::IsWindow(m_hWnd)); return CWnd::FromHandle(::GetParent(m_hWnd)); }

  00011	ff 76 20	 push	 DWORD PTR [esi+32]
  00014	ff d3		 call	 ebx
  00016	50		 push	 eax
  00017	e8 00 00 00 00	 call	 ?FromHandle@CWnd@@SGPAV1@PAUHWND__@@@Z ; CWnd::FromHandle

; 32   : 	{ ASSERT(::IsWindow(m_hWnd)); return ::SendMessage(m_hWnd, message, wParam, lParam); }

  0001c	8b 3d 00 00 00
	00		 mov	 edi, DWORD PTR __imp__SendMessageA@16
  00022	6a 00		 push	 0
  00024	6a 00		 push	 0
  00026	68 44 04 00 00	 push	 1092			; 00000444H
  0002b	ff 70 20	 push	 DWORD PTR [eax+32]
  0002e	ff d7		 call	 edi

; 628  : 	{ ASSERT(::IsWindow(m_hWnd)); return (int)::SendMessage(m_hWnd, BM_GETCHECK, 0, 0); }

  00030	6a 00		 push	 0
  00032	6a 00		 push	 0
  00034	68 f0 00 00 00	 push	 240			; 000000f0H
  00039	ff b6 08 2f 00
	00		 push	 DWORD PTR [esi+12040]
  0003f	ff d7		 call	 edi
; File D:\git\src\IBK\IBK_DRFN\ProjSrc\SrcDrfn\Chart\MULTICHART\ExtInputBarDlg.cpp

; 2774 : 	if(m_chkFixPeriod.GetCheck())

  00041	85 c0		 test	 eax, eax
  00043	0f 84 c0 00 00
	00		 je	 $LN2@OnChkfixpe

; 2781 : 		((CStdDialog*)GetParent())->GetStartEndDateAtStdDialog(dStartDate, dEndDate);

  00049	8d 45 ec	 lea	 eax, DWORD PTR _dEndDate$1[ebp]
  0004c	0f 57 c0	 xorps	 xmm0, xmm0
  0004f	50		 push	 eax
  00050	8d 45 f4	 lea	 eax, DWORD PTR _dStartDate$2[ebp]
  00053	f2 0f 11 45 f4	 movsd	 QWORD PTR _dStartDate$2[ebp], xmm0
  00058	50		 push	 eax
; File C:\Program Files (x86)\Microsoft Visual Studio\2019\Community\VC\Tools\MSVC\14.29.30133\atlmfc\include\afxwin2.inl

; 213  : 	{ ASSERT(::IsWindow(m_hWnd)); return CWnd::FromHandle(::GetParent(m_hWnd)); }

  00059	ff 76 20	 push	 DWORD PTR [esi+32]
; File D:\git\src\IBK\IBK_DRFN\ProjSrc\SrcDrfn\Chart\MULTICHART\ExtInputBarDlg.cpp

; 2779 : 		double dStartDate = 0, dEndDate = 0;

  0005c	f2 0f 11 45 ec	 movsd	 QWORD PTR _dEndDate$1[ebp], xmm0
; File C:\Program Files (x86)\Microsoft Visual Studio\2019\Community\VC\Tools\MSVC\14.29.30133\atlmfc\include\afxwin2.inl

; 213  : 	{ ASSERT(::IsWindow(m_hWnd)); return CWnd::FromHandle(::GetParent(m_hWnd)); }

  00061	ff d3		 call	 ebx
  00063	50		 push	 eax
  00064	e8 00 00 00 00	 call	 ?FromHandle@CWnd@@SGPAV1@PAUHWND__@@@Z ; CWnd::FromHandle
; File D:\git\src\IBK\IBK_DRFN\ProjSrc\SrcDrfn\Chart\MULTICHART\ExtInputBarDlg.cpp

; 2781 : 		((CStdDialog*)GetParent())->GetStartEndDateAtStdDialog(dStartDate, dEndDate);

  00069	8b c8		 mov	 ecx, eax
  0006b	e8 00 00 00 00	 call	 ?GetStartEndDateAtStdDialog@CStdDialog@@QAEXAAN0@Z ; CStdDialog::GetStartEndDateAtStdDialog

; 2782 : 
; 2783 : 		if(dStartDate)

  00070	f2 0f 10 45 f4	 movsd	 xmm0, QWORD PTR _dStartDate$2[ebp]
  00075	66 0f 2e 05 00
	00 00 00	 ucomisd xmm0, QWORD PTR __real@0000000000000000
  0007d	8b 1d 00 00 00
	00		 mov	 ebx, DWORD PTR __imp_?Format@?$CStringT@DV?$StrTraitMFC_DLL@DV?$ChTraitsCRT@D@ATL@@@@@ATL@@QAAXPBDZZ
  00083	9f		 lahf
  00084	f6 c4 44	 test	 ah, 68			; 00000044H
  00087	7b 16		 jnp	 SHORT $LN3@OnChkfixpe

; 2784 : 			m_strStartDate.Format("%d", (long)dStartDate);

  00089	f2 0f 2c c0	 cvttsd2si eax, xmm0
  0008d	50		 push	 eax
  0008e	8d 86 c8 00 00
	00		 lea	 eax, DWORD PTR [esi+200]
  00094	68 00 00 00 00	 push	 OFFSET ??_C@_02DPKJAMEF@?$CFd@
  00099	50		 push	 eax
  0009a	ff d3		 call	 ebx
  0009c	83 c4 0c	 add	 esp, 12			; 0000000cH
$LN3@OnChkfixpe:

; 2785 : 		if(dEndDate)

  0009f	f2 0f 10 45 ec	 movsd	 xmm0, QWORD PTR _dEndDate$1[ebp]
  000a4	66 0f 2e 05 00
	00 00 00	 ucomisd xmm0, QWORD PTR __real@0000000000000000
  000ac	9f		 lahf
  000ad	f6 c4 44	 test	 ah, 68			; 00000044H
  000b0	7b 16		 jnp	 SHORT $LN4@OnChkfixpe

; 2786 : 			m_strEndDate.Format("%d", (long)dEndDate);

  000b2	f2 0f 2c c0	 cvttsd2si eax, xmm0
  000b6	50		 push	 eax
  000b7	8d 86 cc 00 00
	00		 lea	 eax, DWORD PTR [esi+204]
  000bd	68 00 00 00 00	 push	 OFFSET ??_C@_02DPKJAMEF@?$CFd@
  000c2	50		 push	 eax
  000c3	ff d3		 call	 ebx
  000c5	83 c4 0c	 add	 esp, 12			; 0000000cH
$LN4@OnChkfixpe:

; 2787 : 		//================================================================================OnBtnEdate();
; 2788 : //		CString strDate;
; 2789 : //		CTime tmItem;
; 2790 : //		m_datePicker.GetTime(tmItem);
; 2791 : //		strDate = tmItem.Format("%Y%m%d");
; 2792 : 		CString strZoomValue;

  000c8	8d 4d fc	 lea	 ecx, DWORD PTR _strZoomValue$3[ebp]
  000cb	ff 15 00 00 00
	00		 call	 DWORD PTR __imp_??0?$CStringT@DV?$StrTraitMFC_DLL@DV?$ChTraitsCRT@D@ATL@@@@@ATL@@QAE@XZ

; 2793 : 		//long lZoomValue = 0;
; 2794 : 		int lZoomValue = m_pChartMng->SendMessage(UMSG_GETZOOMVALUE, m_nDataType);

  000d1	8b 86 00 33 00
	00		 mov	 eax, DWORD PTR [esi+13056]
; File C:\Program Files (x86)\Microsoft Visual Studio\2019\Community\VC\Tools\MSVC\14.29.30133\atlmfc\include\afxwin2.inl

; 32   : 	{ ASSERT(::IsWindow(m_hWnd)); return ::SendMessage(m_hWnd, message, wParam, lParam); }

  000d7	6a 00		 push	 0
  000d9	ff b6 d8 31 00
	00		 push	 DWORD PTR [esi+12760]
  000df	68 2b 04 00 00	 push	 1067			; 0000042bH
  000e4	ff 70 20	 push	 DWORD PTR [eax+32]
  000e7	ff d7		 call	 edi
  000e9	ff b6 cc 00 00
	00		 push	 DWORD PTR [esi+204]
  000ef	50		 push	 eax
  000f0	8b 86 00 33 00
	00		 mov	 eax, DWORD PTR [esi+13056]
  000f6	68 18 04 00 00	 push	 1048			; 00000418H
  000fb	ff 70 20	 push	 DWORD PTR [eax+32]
  000fe	ff d7		 call	 edi
; File D:\git\src\IBK\IBK_DRFN\ProjSrc\SrcDrfn\Chart\MULTICHART\ExtInputBarDlg.cpp

; 2798 : 	}

  00100	8d 4d fc	 lea	 ecx, DWORD PTR _strZoomValue$3[ebp]
  00103	ff 15 00 00 00
	00		 call	 DWORD PTR __imp_??1?$CStringT@DV?$StrTraitMFC_DLL@DV?$ChTraitsCRT@D@ATL@@@@@ATL@@QAE@XZ
$LN2@OnChkfixpe:

; 2799 : }

  00109	5f		 pop	 edi
  0010a	5e		 pop	 esi
  0010b	5b		 pop	 ebx
  0010c	8b e5		 mov	 esp, ebp
  0010e	5d		 pop	 ebp
  0010f	c3		 ret	 0
?OnChkfixperiod@CExtInputBarDlg@@IAEXXZ ENDP		; CExtInputBarDlg::OnChkfixperiod
_TEXT	ENDS
; Function compile flags: /Ogtp
; File D:\git\src\IBK\IBK_DRFN\ProjSrc\SrcDrfn\Chart\MULTICHART\ExtInputBarDlg.cpp
; File C:\Program Files (x86)\Microsoft Visual Studio\2019\Community\VC\Tools\MSVC\14.29.30133\atlmfc\include\afxwin2.inl
; File D:\git\src\IBK\IBK_DRFN\ProjSrc\SrcDrfn\Chart\MULTICHART\ExtInputBarDlg.cpp
; File C:\Program Files (x86)\Microsoft Visual Studio\2019\Community\VC\Tools\MSVC\14.29.30133\atlmfc\include\afxwin2.inl
; File D:\git\src\IBK\IBK_DRFN\ProjSrc\SrcDrfn\Chart\MULTICHART\ExtInputBarDlg.cpp
;	COMDAT ?OnBtnChangsynit@CExtInputBarDlg@@IAEXXZ
_TEXT	SEGMENT
?OnBtnChangsynit@CExtInputBarDlg@@IAEXXZ PROC		; CExtInputBarDlg::OnBtnChangsynit, COMDAT
; _this$ = ecx

; 1967 : {

  00000	56		 push	 esi
  00001	8b f1		 mov	 esi, ecx

; 1968 : /*	if( m_nYUnitType == WON_TICK)
; 1969 : 	{
; 1970 : 		m_nYUnitType = PERCENT_TICK;
; 1971 : 		m_btYUnit.SetWindowText("%");
; 1972 : 	}
; 1973 : 	else if(m_nYUnitType == DOLLAR_TICK)
; 1974 : 	{
; 1975 : 		m_nYUnitType = WON_TICK;
; 1976 : 		m_btYUnit.SetWindowText("\\");
; 1977 : 	}
; 1978 : 	else if(m_nYUnitType == PERCENT_TICK)
; 1979 : 	{
; 1980 : 		m_nYUnitType = DOLLAR_TICK;
; 1981 : 		m_btYUnit.SetWindowText("$");
; 1982 : 	}
; 1983 : */
; 1984 : 	if( m_nYUnitType == WON_TICK)

  00003	8b 86 d8 00 00
	00		 mov	 eax, DWORD PTR [esi+216]
  00009	85 c0		 test	 eax, eax
  0000b	75 11		 jne	 SHORT $LN2@OnBtnChang

; 1985 : 	{
; 1986 : 		m_nYUnitType = PERCENT_TICK;

  0000d	c7 86 d8 00 00
	00 01 00 00 00	 mov	 DWORD PTR [esi+216], 1

; 1987 : 		m_btYUnit.SetWindowText("%");

  00017	68 00 00 00 00	 push	 OFFSET ??_C@_01FGNFDNOH@?$CF@

; 1988 : 	}

  0001c	eb 14		 jmp	 SHORT $LN13@OnBtnChang
$LN2@OnBtnChang:

; 1989 : 	else if(m_nYUnitType == PERCENT_TICK)

  0001e	83 f8 01	 cmp	 eax, 1
  00021	75 1a		 jne	 SHORT $LN4@OnBtnChang

; 1990 : 	{
; 1991 : 		m_nYUnitType = WON_TICK;

  00023	c7 86 d8 00 00
	00 00 00 00 00	 mov	 DWORD PTR [esi+216], 0

; 1992 : 		m_btYUnit.SetWindowText("\\");

  0002d	68 00 00 00 00	 push	 OFFSET ??_C@_01KICIPPFI@?2@
$LN13@OnBtnChang:

; 1995 : 	if(m_pChartMng->GetSafeHwnd()) // 2005. 04. 22 by Nam

  00032	8d 8e 70 2f 00
	00		 lea	 ecx, DWORD PTR [esi+12144]
  00038	e8 00 00 00 00	 call	 ?SetWindowTextA@CWnd@@QAEXPBD@Z ; CWnd::SetWindowTextA
$LN4@OnBtnChang:
  0003d	8b 86 00 33 00
	00		 mov	 eax, DWORD PTR [esi+13056]
; File C:\Program Files (x86)\Microsoft Visual Studio\2019\Community\VC\Tools\MSVC\14.29.30133\atlmfc\include\afxwin2.inl

; 25   : 	{ return this == NULL ? NULL : m_hWnd; }

  00043	85 c0		 test	 eax, eax
  00045	74 1b		 je	 SHORT $LN5@OnBtnChang
  00047	8b 40 20	 mov	 eax, DWORD PTR [eax+32]
; File D:\git\src\IBK\IBK_DRFN\ProjSrc\SrcDrfn\Chart\MULTICHART\ExtInputBarDlg.cpp

; 1995 : 	if(m_pChartMng->GetSafeHwnd()) // 2005. 04. 22 by Nam

  0004a	85 c0		 test	 eax, eax
  0004c	74 14		 je	 SHORT $LN5@OnBtnChang
; File C:\Program Files (x86)\Microsoft Visual Studio\2019\Community\VC\Tools\MSVC\14.29.30133\atlmfc\include\afxwin2.inl

; 32   : 	{ ASSERT(::IsWindow(m_hWnd)); return ::SendMessage(m_hWnd, message, wParam, lParam); }

  0004e	6a 00		 push	 0
  00050	ff b6 d8 00 00
	00		 push	 DWORD PTR [esi+216]
  00056	68 35 04 00 00	 push	 1077			; 00000435H
  0005b	50		 push	 eax
  0005c	ff 15 00 00 00
	00		 call	 DWORD PTR __imp__SendMessageA@16
$LN5@OnBtnChang:
  00062	5e		 pop	 esi
; File D:\git\src\IBK\IBK_DRFN\ProjSrc\SrcDrfn\Chart\MULTICHART\ExtInputBarDlg.cpp

; 1997 : }

  00063	c3		 ret	 0
?OnBtnChangsynit@CExtInputBarDlg@@IAEXXZ ENDP		; CExtInputBarDlg::OnBtnChangsynit
_TEXT	ENDS
; Function compile flags: /Ogtp
; File D:\git\src\IBK\IBK_DRFN\ProjSrc\SrcDrfn\Chart\MULTICHART\ExtInputBarDlg.cpp
; File C:\Program Files (x86)\Microsoft Visual Studio\2019\Community\VC\Tools\MSVC\14.29.30133\atlmfc\include\afxwin2.inl
; File D:\git\src\IBK\IBK_DRFN\ProjSrc\SrcDrfn\Chart\MULTICHART\ExtInputBarDlg.cpp
; File C:\Program Files (x86)\Microsoft Visual Studio\2019\Community\VC\Tools\MSVC\14.29.30133\atlmfc\include\afxwin2.inl
; File D:\git\src\IBK\IBK_DRFN\ProjSrc\SrcDrfn\Chart\MULTICHART\ExtInputBarDlg.cpp
;	COMDAT ?OnBtSub2@CExtInputBarDlg@@IAEXXZ
_TEXT	SEGMENT
?OnBtSub2@CExtInputBarDlg@@IAEXXZ PROC			; CExtInputBarDlg::OnBtSub2, COMDAT
; _this$ = ecx

; 2699 : {

  00000	56		 push	 esi
  00001	8b f1		 mov	 esi, ecx

; 2700 : 	// TODO: Add your control notification handler code here
; 2701 : 	m_bChkCrossLine = m_btSub2.GetCheck();

  00003	8d 8e e8 06 00
	00		 lea	 ecx, DWORD PTR [esi+1768]
  00009	e8 00 00 00 00	 call	 ?GetCheck@CILButton@@QAEHXZ ; CILButton::GetCheck

; 2702 : 	if(m_bChkCrossLine)

  0000e	8b 4e 20	 mov	 ecx, DWORD PTR [esi+32]
  00011	89 86 24 33 00
	00		 mov	 DWORD PTR [esi+13092], eax
  00017	5e		 pop	 esi
  00018	51		 push	 ecx
  00019	85 c0		 test	 eax, eax
  0001b	74 20		 je	 SHORT $LN2@OnBtSub2
; File C:\Program Files (x86)\Microsoft Visual Studio\2019\Community\VC\Tools\MSVC\14.29.30133\atlmfc\include\afxwin2.inl

; 213  : 	{ ASSERT(::IsWindow(m_hWnd)); return CWnd::FromHandle(::GetParent(m_hWnd)); }

  0001d	ff 15 00 00 00
	00		 call	 DWORD PTR __imp__GetParent@4
  00023	50		 push	 eax
  00024	e8 00 00 00 00	 call	 ?FromHandle@CWnd@@SGPAV1@PAUHWND__@@@Z ; CWnd::FromHandle

; 32   : 	{ ASSERT(::IsWindow(m_hWnd)); return ::SendMessage(m_hWnd, message, wParam, lParam); }

  00029	6a 01		 push	 1
; File D:\git\src\IBK\IBK_DRFN\ProjSrc\SrcDrfn\Chart\MULTICHART\ExtInputBarDlg.cpp

; 2716 : }

  0002b	6a 59		 push	 89			; 00000059H
  0002d	ff 35 00 00 00
	00		 push	 DWORD PTR ?RMS_ANALYSIS_FUNC@@3IB
  00033	ff 70 20	 push	 DWORD PTR [eax+32]
  00036	ff 15 00 00 00
	00		 call	 DWORD PTR __imp__SendMessageA@16
  0003c	c3		 ret	 0
$LN2@OnBtSub2:
; File C:\Program Files (x86)\Microsoft Visual Studio\2019\Community\VC\Tools\MSVC\14.29.30133\atlmfc\include\afxwin2.inl

; 213  : 	{ ASSERT(::IsWindow(m_hWnd)); return CWnd::FromHandle(::GetParent(m_hWnd)); }

  0003d	ff 15 00 00 00
	00		 call	 DWORD PTR __imp__GetParent@4
  00043	50		 push	 eax
  00044	e8 00 00 00 00	 call	 ?FromHandle@CWnd@@SGPAV1@PAUHWND__@@@Z ; CWnd::FromHandle

; 32   : 	{ ASSERT(::IsWindow(m_hWnd)); return ::SendMessage(m_hWnd, message, wParam, lParam); }

  00049	6a 00		 push	 0
; File D:\git\src\IBK\IBK_DRFN\ProjSrc\SrcDrfn\Chart\MULTICHART\ExtInputBarDlg.cpp

; 2716 : }

  0004b	6a 59		 push	 89			; 00000059H
  0004d	ff 35 00 00 00
	00		 push	 DWORD PTR ?RMS_ANALYSIS_FUNC@@3IB
  00053	ff 70 20	 push	 DWORD PTR [eax+32]
  00056	ff 15 00 00 00
	00		 call	 DWORD PTR __imp__SendMessageA@16
  0005c	c3		 ret	 0
?OnBtSub2@CExtInputBarDlg@@IAEXXZ ENDP			; CExtInputBarDlg::OnBtSub2
_TEXT	ENDS
; Function compile flags: /Ogtp
; File D:\git\src\IBK\IBK_DRFN\ProjSrc\SrcDrfn\Chart\MULTICHART\ExtInputBarDlg.cpp
; File C:\Program Files (x86)\Microsoft Visual Studio\2019\Community\VC\Tools\MSVC\14.29.30133\atlmfc\include\afxwin1.inl
; File D:\git\src\IBK\IBK_DRFN\ProjSrc\SrcDrfn\Chart\MULTICHART\ExtInputBarDlg.cpp
; File C:\Program Files (x86)\Microsoft Visual Studio\2019\Community\VC\Tools\MSVC\14.29.30133\atlmfc\include\afxwin1.inl
; File C:\Program Files (x86)\Microsoft Visual Studio\2019\Community\VC\Tools\MSVC\14.29.30133\atlmfc\include\afx.inl
; File D:\git\src\IBK\IBK_DRFN\ProjSrc\SrcDrfn\Chart\MULTICHART\ExtInputBarDlg.cpp
; File C:\Program Files (x86)\Microsoft Visual Studio\2019\Community\VC\Tools\MSVC\14.29.30133\atlmfc\include\afx.inl
; File D:\git\src\IBK\IBK_DRFN\ProjSrc\SrcDrfn\Chart\MULTICHART\ExtInputBarDlg.cpp
; File C:\Program Files (x86)\Microsoft Visual Studio\2019\Community\VC\Tools\MSVC\14.29.30133\atlmfc\include\afxwin1.inl
; File D:\git\src\IBK\IBK_DRFN\ProjSrc\SrcDrfn\Chart\MULTICHART\ExtInputBarDlg.cpp
; File C:\Program Files (x86)\Microsoft Visual Studio\2019\Community\VC\Tools\MSVC\14.29.30133\atlmfc\include\afxwin1.inl
; File D:\git\src\IBK\IBK_DRFN\ProjSrc\SrcDrfn\Chart\MULTICHART\ExtInputBarDlg.cpp
; File C:\Program Files (x86)\Microsoft Visual Studio\2019\Community\VC\Tools\MSVC\14.29.30133\atlmfc\include\afxwin2.inl
; File D:\git\src\IBK\IBK_DRFN\ProjSrc\SrcDrfn\Chart\MULTICHART\ExtInputBarDlg.cpp
; File C:\Program Files (x86)\Microsoft Visual Studio\2019\Community\VC\Tools\MSVC\14.29.30133\atlmfc\include\afxwin2.inl
; File D:\git\src\IBK\IBK_DRFN\ProjSrc\SrcDrfn\Chart\MULTICHART\ExtInputBarDlg.cpp
; File C:\Program Files (x86)\Microsoft Visual Studio\2019\Community\VC\Tools\MSVC\14.29.30133\atlmfc\include\afxwin2.inl
; File D:\git\src\IBK\IBK_DRFN\ProjSrc\SrcDrfn\Chart\MULTICHART\ExtInputBarDlg.cpp
; File C:\Program Files (x86)\Microsoft Visual Studio\2019\Community\VC\Tools\MSVC\14.29.30133\atlmfc\include\afxtempl.h
; File D:\git\src\IBK\IBK_DRFN\ProjSrc\SrcDrfn\Chart\MULTICHART\ExtInputBarDlg.cpp
; File C:\Program Files (x86)\Microsoft Visual Studio\2019\Community\VC\Tools\MSVC\14.29.30133\atlmfc\include\afxtempl.h
; File D:\git\src\IBK\IBK_DRFN\ProjSrc\SrcDrfn\Chart\MULTICHART\ExtInputBarDlg.cpp
; File C:\Program Files (x86)\Microsoft Visual Studio\2019\Community\VC\Tools\MSVC\14.29.30133\atlmfc\include\afxwin2.inl
; File D:\git\src\IBK\IBK_DRFN\ProjSrc\SrcDrfn\Chart\MULTICHART\ExtInputBarDlg.cpp
; File C:\Program Files (x86)\Microsoft Visual Studio\2019\Community\VC\Tools\MSVC\14.29.30133\atlmfc\include\afxwin2.inl
; File D:\git\src\IBK\IBK_DRFN\ProjSrc\SrcDrfn\Chart\MULTICHART\ExtInputBarDlg.cpp
; File C:\Program Files (x86)\Microsoft Visual Studio\2019\Community\VC\Tools\MSVC\14.29.30133\atlmfc\include\afxwin1.inl
; File C:\Program Files (x86)\Microsoft Visual Studio\2019\Community\VC\Tools\MSVC\14.29.30133\atlmfc\include\afxcoll.inl
; File D:\git\src\IBK\IBK_DRFN\ProjSrc\SrcDrfn\Chart\MULTICHART\ExtInputBarDlg.cpp
; File C:\Program Files (x86)\Microsoft Visual Studio\2019\Community\VC\Tools\MSVC\14.29.30133\atlmfc\include\afxcoll.inl
; File D:\git\src\IBK\IBK_DRFN\ProjSrc\SrcDrfn\Chart\MULTICHART\ExtInputBarDlg.cpp
; File C:\Program Files (x86)\Microsoft Visual Studio\2019\Community\VC\Tools\MSVC\14.29.30133\atlmfc\include\afxcoll.inl
; File D:\git\src\IBK\IBK_DRFN\ProjSrc\SrcDrfn\Chart\MULTICHART\ExtInputBarDlg.cpp
; File C:\Program Files (x86)\Microsoft Visual Studio\2019\Community\VC\Tools\MSVC\14.29.30133\atlmfc\include\afxwin1.inl
; File D:\git\src\IBK\IBK_DRFN\ProjSrc\SrcDrfn\Chart\MULTICHART\ExtInputBarDlg.cpp
; File C:\Program Files (x86)\Microsoft Visual Studio\2019\Community\VC\Tools\MSVC\14.29.30133\atlmfc\include\afxwin1.inl
; File D:\git\src\IBK\IBK_DRFN\ProjSrc\SrcDrfn\Chart\MULTICHART\ExtInputBarDlg.cpp
; File C:\Program Files (x86)\Microsoft Visual Studio\2019\Community\VC\Tools\MSVC\14.29.30133\atlmfc\include\afxwin1.inl
; File D:\git\src\IBK\IBK_DRFN\ProjSrc\SrcDrfn\Chart\MULTICHART\ExtInputBarDlg.cpp
; File C:\Program Files (x86)\Microsoft Visual Studio\2019\Community\VC\Tools\MSVC\14.29.30133\atlmfc\include\afxwin1.inl
; File D:\git\src\IBK\IBK_DRFN\ProjSrc\SrcDrfn\Chart\MULTICHART\ExtInputBarDlg.cpp
; File C:\Program Files (x86)\Microsoft Visual Studio\2019\Community\VC\Tools\MSVC\14.29.30133\atlmfc\include\afxwin1.inl
; File D:\git\src\IBK\IBK_DRFN\ProjSrc\SrcDrfn\Chart\MULTICHART\ExtInputBarDlg.cpp
; File C:\Program Files (x86)\Microsoft Visual Studio\2019\Community\VC\Tools\MSVC\14.29.30133\atlmfc\include\afxwin1.inl
; File D:\git\src\IBK\IBK_DRFN\ProjSrc\SrcDrfn\Chart\MULTICHART\ExtInputBarDlg.cpp
; File C:\Program Files (x86)\Microsoft Visual Studio\2019\Community\VC\Tools\MSVC\14.29.30133\atlmfc\include\afxwin1.inl
; File D:\git\src\IBK\IBK_DRFN\ProjSrc\SrcDrfn\Chart\MULTICHART\ExtInputBarDlg.cpp
; File C:\Program Files (x86)\Microsoft Visual Studio\2019\Community\VC\Tools\MSVC\14.29.30133\atlmfc\include\afxwin1.inl
; File D:\git\src\IBK\IBK_DRFN\ProjSrc\SrcDrfn\Chart\MULTICHART\ExtInputBarDlg.cpp
; File C:\Program Files (x86)\Microsoft Visual Studio\2019\Community\VC\Tools\MSVC\14.29.30133\atlmfc\include\afxwin1.inl
; File D:\git\src\IBK\IBK_DRFN\ProjSrc\SrcDrfn\Chart\MULTICHART\ExtInputBarDlg.cpp
; File C:\Program Files (x86)\Microsoft Visual Studio\2019\Community\VC\Tools\MSVC\14.29.30133\atlmfc\include\afxwin1.inl
; File D:\git\src\IBK\IBK_DRFN\ProjSrc\SrcDrfn\Chart\MULTICHART\ExtInputBarDlg.cpp
; File C:\Program Files (x86)\Microsoft Visual Studio\2019\Community\VC\Tools\MSVC\14.29.30133\atlmfc\include\afxwin1.inl
; File C:\Program Files (x86)\Microsoft Visual Studio\2019\Community\VC\Tools\MSVC\14.29.30133\atlmfc\include\afxwin2.inl
; File C:\Program Files (x86)\Microsoft Visual Studio\2019\Community\VC\Tools\MSVC\14.29.30133\atlmfc\include\atltypes.h
; File C:\Program Files (x86)\Microsoft Visual Studio\2019\Community\VC\Tools\MSVC\14.29.30133\atlmfc\include\afxwin2.inl
; File D:\git\src\IBK\IBK_DRFN\ProjSrc\SrcDrfn\Chart\MULTICHART\ExtInputBarDlg.cpp
; File C:\Program Files (x86)\Microsoft Visual Studio\2019\Community\VC\Tools\MSVC\14.29.30133\atlmfc\include\afxwin1.inl
; File D:\git\src\IBK\IBK_DRFN\ProjSrc\SrcDrfn\Chart\MULTICHART\ExtInputBarDlg.cpp
; File C:\Program Files (x86)\Microsoft Visual Studio\2019\Community\VC\Tools\MSVC\14.29.30133\atlmfc\include\afxwin1.inl
; File D:\git\src\IBK\IBK_DRFN\ProjSrc\SrcDrfn\Chart\MULTICHART\ExtInputBarDlg.cpp
; File C:\Program Files (x86)\Microsoft Visual Studio\2019\Community\VC\Tools\MSVC\14.29.30133\atlmfc\include\afxcoll.inl
; File D:\git\src\IBK\IBK_DRFN\ProjSrc\SrcDrfn\Chart\MULTICHART\ExtInputBarDlg.cpp
; File C:\Program Files (x86)\Microsoft Visual Studio\2019\Community\VC\Tools\MSVC\14.29.30133\atlmfc\include\afxwin2.inl
; File D:\git\src\IBK\IBK_DRFN\ProjSrc\SrcDrfn\Chart\MULTICHART\ExtInputBarDlg.cpp
; File C:\Program Files (x86)\Microsoft Visual Studio\2019\Community\VC\Tools\MSVC\14.29.30133\atlmfc\include\afxwin2.inl
; File D:\git\src\IBK\IBK_DRFN\ProjSrc\SrcDrfn\Chart\MULTICHART\ExtInputBarDlg.cpp
; File C:\Program Files (x86)\Microsoft Visual Studio\2019\Community\VC\Tools\MSVC\14.29.30133\atlmfc\include\afxwin2.inl
; File D:\git\src\IBK\IBK_DRFN\ProjSrc\SrcDrfn\Chart\MULTICHART\ExtInputBarDlg.cpp
; File C:\Program Files (x86)\Microsoft Visual Studio\2019\Community\VC\Tools\MSVC\14.29.30133\atlmfc\include\afxwin2.inl
; File D:\git\src\IBK\IBK_DRFN\ProjSrc\SrcDrfn\Chart\MULTICHART\ExtInputBarDlg.cpp
; File C:\Program Files (x86)\Microsoft Visual Studio\2019\Community\VC\Tools\MSVC\14.29.30133\atlmfc\include\afxwin2.inl
; File D:\git\src\IBK\IBK_DRFN\ProjSrc\SrcDrfn\Chart\MULTICHART\ExtInputBarDlg.cpp
; File C:\Program Files (x86)\Microsoft Visual Studio\2019\Community\VC\Tools\MSVC\14.29.30133\atlmfc\include\afxwin2.inl
; File D:\git\src\IBK\IBK_DRFN\ProjSrc\SrcDrfn\Chart\MULTICHART\ExtInputBarDlg.cpp
; File C:\Program Files (x86)\Microsoft Visual Studio\2019\Community\VC\Tools\MSVC\14.29.30133\atlmfc\include\afxwin2.inl
; File D:\git\src\IBK\IBK_DRFN\ProjSrc\SrcDrfn\Chart\MULTICHART\ExtInputBarDlg.cpp
; File C:\Program Files (x86)\Microsoft Visual Studio\2019\Community\VC\Tools\MSVC\14.29.30133\atlmfc\include\afxwin2.inl
; File D:\git\src\IBK\IBK_DRFN\ProjSrc\SrcDrfn\Chart\MULTICHART\ExtInputBarDlg.cpp
; File C:\Program Files (x86)\Microsoft Visual Studio\2019\Community\VC\Tools\MSVC\14.29.30133\atlmfc\include\afxwin2.inl
; File D:\git\src\IBK\IBK_DRFN\ProjSrc\SrcDrfn\Chart\MULTICHART\ExtInputBarDlg.cpp
; File C:\Program Files (x86)\Microsoft Visual Studio\2019\Community\VC\Tools\MSVC\14.29.30133\atlmfc\include\afxwin1.inl
; File D:\git\src\IBK\IBK_DRFN\ProjSrc\SrcDrfn\Chart\MULTICHART\ExtInputBarDlg.cpp
; File C:\Program Files (x86)\Microsoft Visual Studio\2019\Community\VC\Tools\MSVC\14.29.30133\atlmfc\include\afxcoll.inl
; File D:\git\src\IBK\IBK_DRFN\ProjSrc\SrcDrfn\Chart\MULTICHART\ExtInputBarDlg.cpp
;	COMDAT ?OnBtetcmenu@CExtInputBarDlg@@IAEXXZ
_TEXT	SEGMENT
_strArrayIndicatorAll$ = -368				; size = 20
_bExistance$ = -348					; size = 4
tv840 = -344						; size = 4
_wIndexItem$1$ = -340					; size = 4
_wSizeItem$1$ = -336					; size = 4
tv841 = -332						; size = 4
_pFavoriteMng$1$ = -328					; size = 4
_pMenuChild$1$ = -328					; size = 4
$T2 = -324						; size = 4
_menu$ = -320						; size = 8
__stFvrData$ = -312					; size = 280
_rect$ = -32						; size = 16
__$ArrayPad$ = -16					; size = 4
__$EHRec$ = -12						; size = 12
?OnBtetcmenu@CExtInputBarDlg@@IAEXXZ PROC		; CExtInputBarDlg::OnBtetcmenu, COMDAT
; _this$ = ecx

; 2474 : {

  00000	55		 push	 ebp
  00001	8b ec		 mov	 ebp, esp
  00003	6a ff		 push	 -1
  00005	68 00 00 00 00	 push	 __ehhandler$?OnBtetcmenu@CExtInputBarDlg@@IAEXXZ
  0000a	64 a1 00 00 00
	00		 mov	 eax, DWORD PTR fs:0
  00010	50		 push	 eax
  00011	81 ec 64 01 00
	00		 sub	 esp, 356		; 00000164H
  00017	a1 00 00 00 00	 mov	 eax, DWORD PTR ___security_cookie
  0001c	33 c5		 xor	 eax, ebp
  0001e	89 45 f0	 mov	 DWORD PTR __$ArrayPad$[ebp], eax
  00021	53		 push	 ebx
  00022	56		 push	 esi
  00023	57		 push	 edi
  00024	50		 push	 eax
  00025	8d 45 f4	 lea	 eax, DWORD PTR __$EHRec$[ebp]
  00028	64 a3 00 00 00
	00		 mov	 DWORD PTR fs:0, eax
  0002e	8b d9		 mov	 ebx, ecx
; File C:\Program Files (x86)\Microsoft Visual Studio\2019\Community\VC\Tools\MSVC\14.29.30133\atlmfc\include\afxwin1.inl

; 903  : 	{ m_hMenu = NULL; }

  00030	c7 85 c0 fe ff
	ff 00 00 00 00	 mov	 DWORD PTR _menu$[ebp], OFFSET ??_7CMenu@@6B@
  0003a	c7 85 c4 fe ff
	ff 00 00 00 00	 mov	 DWORD PTR _menu$[ebp+4], 0

; 909  : 	{ return Attach(::CreatePopupMenu()); }

  00044	8b 3d 00 00 00
	00		 mov	 edi, DWORD PTR __imp__CreatePopupMenu@0
; File D:\git\src\IBK\IBK_DRFN\ProjSrc\SrcDrfn\Chart\MULTICHART\ExtInputBarDlg.cpp

; 2476 :     CMenu menu;

  0004a	c7 45 fc 00 00
	00 00		 mov	 DWORD PTR __$EHRec$[ebp+8], 0
; File C:\Program Files (x86)\Microsoft Visual Studio\2019\Community\VC\Tools\MSVC\14.29.30133\atlmfc\include\afxwin1.inl

; 909  : 	{ return Attach(::CreatePopupMenu()); }

  00051	ff d7		 call	 edi
  00053	50		 push	 eax
  00054	8d 8d c0 fe ff
	ff		 lea	 ecx, DWORD PTR _menu$[ebp]
  0005a	e8 00 00 00 00	 call	 ?Attach@CMenu@@QAEHPAUHMENU__@@@Z ; CMenu::Attach
; File C:\Program Files (x86)\Microsoft Visual Studio\2019\Community\VC\Tools\MSVC\14.29.30133\atlmfc\include\afx.inl

; 116  : 	{ return ::operator new(nSize); }

  0005f	6a 08		 push	 8
  00061	e8 00 00 00 00	 call	 ??2@YAPAXI@Z		; operator new
; File D:\git\src\IBK\IBK_DRFN\ProjSrc\SrcDrfn\Chart\MULTICHART\ExtInputBarDlg.cpp

; 2505 : 	pMenuChild = new CMenu;

  00066	8b f0		 mov	 esi, eax
; File C:\Program Files (x86)\Microsoft Visual Studio\2019\Community\VC\Tools\MSVC\14.29.30133\atlmfc\include\afx.inl

; 116  : 	{ return ::operator new(nSize); }

  00068	83 c4 04	 add	 esp, 4
; File D:\git\src\IBK\IBK_DRFN\ProjSrc\SrcDrfn\Chart\MULTICHART\ExtInputBarDlg.cpp

; 2505 : 	pMenuChild = new CMenu;

  0006b	89 b5 bc fe ff
	ff		 mov	 DWORD PTR $T2[ebp], esi
  00071	85 f6		 test	 esi, esi
  00073	74 26		 je	 SHORT $LN36@OnBtetcmen
; File C:\Program Files (x86)\Microsoft Visual Studio\2019\Community\VC\Tools\MSVC\14.29.30133\atlmfc\include\afxwin1.inl

; 903  : 	{ m_hMenu = NULL; }

  00075	c7 06 00 00 00
	00		 mov	 DWORD PTR [esi], OFFSET ??_7CMenu@@6B@
  0007b	c7 46 04 00 00
	00 00		 mov	 DWORD PTR [esi+4], 0

; 909  : 	{ return Attach(::CreatePopupMenu()); }

  00082	ff d7		 call	 edi
  00084	50		 push	 eax
  00085	8b ce		 mov	 ecx, esi
  00087	e8 00 00 00 00	 call	 ?Attach@CMenu@@QAEHPAUHMENU__@@@Z ; CMenu::Attach

; 919  : 		return this == NULL ? NULL : m_hMenu; }

  0008c	85 f6		 test	 esi, esi
  0008e	74 1f		 je	 SHORT $LN144@OnBtetcmen
  00090	8b 46 04	 mov	 eax, DWORD PTR [esi+4]
  00093	89 b5 bc fe ff
	ff		 mov	 DWORD PTR $T2[ebp], esi
  00099	eb 16		 jmp	 SHORT $LN57@OnBtetcmen
$LN36@OnBtetcmen:
; File D:\git\src\IBK\IBK_DRFN\ProjSrc\SrcDrfn\Chart\MULTICHART\ExtInputBarDlg.cpp

; 2505 : 	pMenuChild = new CMenu;

  0009b	c7 85 bc fe ff
	ff 00 00 00 00	 mov	 DWORD PTR $T2[ebp], 0
  000a5	ff d7		 call	 edi
  000a7	50		 push	 eax
  000a8	33 c9		 xor	 ecx, ecx
  000aa	e8 00 00 00 00	 call	 ?Attach@CMenu@@QAEHPAUHMENU__@@@Z ; CMenu::Attach
$LN144@OnBtetcmen:
; File C:\Program Files (x86)\Microsoft Visual Studio\2019\Community\VC\Tools\MSVC\14.29.30133\atlmfc\include\afxwin1.inl

; 919  : 		return this == NULL ? NULL : m_hMenu; }

  000af	33 c0		 xor	 eax, eax
$LN57@OnBtetcmen:

; 924  : 	{ ASSERT(::IsMenu(m_hMenu)); return ::AppendMenu(m_hMenu, nFlags, nIDNewItem, lpszNewItem); }

  000b1	68 00 00 00 00	 push	 OFFSET ??_C@_08LOPLALKM@?$LA?$PM?$LN?I?A?v?G?$KF@
  000b6	50		 push	 eax
  000b7	6a 10		 push	 16			; 00000010H
  000b9	ff b5 c4 fe ff
	ff		 push	 DWORD PTR _menu$[ebp+4]
  000bf	ff 15 00 00 00
	00		 call	 DWORD PTR __imp__AppendMenuA@16
; File D:\git\src\IBK\IBK_DRFN\ProjSrc\SrcDrfn\Chart\MULTICHART\ExtInputBarDlg.cpp

; 2514 : 	CStringArray strArrayIndicatorAll;	

  000c5	8d 8d 90 fe ff
	ff		 lea	 ecx, DWORD PTR _strArrayIndicatorAll$[ebp]
  000cb	e8 00 00 00 00	 call	 ??0CStringArray@@QAE@XZ	; CStringArray::CStringArray
; File C:\Program Files (x86)\Microsoft Visual Studio\2019\Community\VC\Tools\MSVC\14.29.30133\atlmfc\include\afxwin2.inl

; 213  : 	{ ASSERT(::IsWindow(m_hWnd)); return CWnd::FromHandle(::GetParent(m_hWnd)); }

  000d0	ff 73 20	 push	 DWORD PTR [ebx+32]
; File D:\git\src\IBK\IBK_DRFN\ProjSrc\SrcDrfn\Chart\MULTICHART\ExtInputBarDlg.cpp

; 2514 : 	CStringArray strArrayIndicatorAll;	

  000d3	c6 45 fc 01	 mov	 BYTE PTR __$EHRec$[ebp+8], 1
; File C:\Program Files (x86)\Microsoft Visual Studio\2019\Community\VC\Tools\MSVC\14.29.30133\atlmfc\include\afxwin2.inl

; 213  : 	{ ASSERT(::IsWindow(m_hWnd)); return CWnd::FromHandle(::GetParent(m_hWnd)); }

  000d7	ff 15 00 00 00
	00		 call	 DWORD PTR __imp__GetParent@4
  000dd	50		 push	 eax
  000de	e8 00 00 00 00	 call	 ?FromHandle@CWnd@@SGPAV1@PAUHWND__@@@Z ; CWnd::FromHandle
; File D:\git\src\IBK\IBK_DRFN\ProjSrc\SrcDrfn\Chart\MULTICHART\ExtInputBarDlg.cpp

; 2520 : 	if(pFavoriteMng)

  000e3	8b 3d 00 00 00
	00		 mov	 edi, DWORD PTR __imp__SendMessageA@16
; File C:\Program Files (x86)\Microsoft Visual Studio\2019\Community\VC\Tools\MSVC\14.29.30133\atlmfc\include\afxwin2.inl

; 213  : 	{ ASSERT(::IsWindow(m_hWnd)); return CWnd::FromHandle(::GetParent(m_hWnd)); }

  000e9	8b f0		 mov	 esi, eax
; File D:\git\src\IBK\IBK_DRFN\ProjSrc\SrcDrfn\Chart\MULTICHART\ExtInputBarDlg.cpp

; 2516 : 	pFavoriteMng = &((CStdDialog*)GetParent())->m_FavoriteMng;

  000eb	81 c6 d4 07 00
	00		 add	 esi, 2004		; 000007d4H
  000f1	89 b5 b8 fe ff
	ff		 mov	 DWORD PTR _pFavoriteMng$1$[ebp], esi

; 2520 : 	if(pFavoriteMng)

  000f7	0f 84 22 01 00
	00		 je	 $LN3@OnBtetcmen

; 2521 : 	{
; 2522 : 		pFavoriteMng->LoadItemInfo("JipyoFile");

  000fd	68 00 00 00 00	 push	 OFFSET ??_C@_09IBPFDGDO@JipyoFile@
  00102	8b ce		 mov	 ecx, esi
  00104	e8 00 00 00 00	 call	 ?LoadItemInfo@CFavoriteThingsMng@@QAEHPBD@Z ; CFavoriteThingsMng::LoadItemInfo

; 2523 : 		int wSizeItem = pFavoriteMng->m_ArrayFvrItem.GetSize();

  00109	8b 4e 20	 mov	 ecx, DWORD PTR [esi+32]

; 2524 : 		for(int wIndexItem=0;wIndexItem<wSizeItem;wIndexItem++)

  0010c	33 c0		 xor	 eax, eax
  0010e	89 8d b0 fe ff
	ff		 mov	 DWORD PTR _wSizeItem$1$[ebp], ecx
  00114	89 85 ac fe ff
	ff		 mov	 DWORD PTR _wIndexItem$1$[ebp], eax
  0011a	85 c9		 test	 ecx, ecx
  0011c	0f 8e fd 00 00
	00		 jle	 $LN3@OnBtetcmen

; 2521 : 	{
; 2522 : 		pFavoriteMng->LoadItemInfo("JipyoFile");

  00122	8b 95 b0 fe ff
	ff		 mov	 edx, DWORD PTR _wSizeItem$1$[ebp]
  00128	33 c9		 xor	 ecx, ecx
  0012a	c7 85 b4 fe ff
	ff c8 00 00 00	 mov	 DWORD PTR tv841[ebp], 200 ; 000000c8H
  00134	89 8d a8 fe ff
	ff		 mov	 DWORD PTR tv840[ebp], ecx
  0013a	66 0f 1f 44 00
	00		 npad	 6
$LL4@OnBtetcmen:
; File C:\Program Files (x86)\Microsoft Visual Studio\2019\Community\VC\Tools\MSVC\14.29.30133\atlmfc\include\afxtempl.h

; 288  : 	if(nIndex >= 0 && nIndex < m_nSize)

  00140	85 c9		 test	 ecx, ecx
  00142	0f 88 8a 03 00
	00		 js	 $LN98@OnBtetcmen
  00148	3b 46 20	 cmp	 eax, DWORD PTR [esi+32]
  0014b	0f 8d 81 03 00
	00		 jge	 $LN98@OnBtetcmen

; 289  : 		return m_pData[nIndex];

  00151	8b 76 1c	 mov	 esi, DWORD PTR [esi+28]
; File D:\git\src\IBK\IBK_DRFN\ProjSrc\SrcDrfn\Chart\MULTICHART\ExtInputBarDlg.cpp

; 2526 : 			_stFvrData = pFavoriteMng->m_ArrayFvrItem.GetAt(wIndexItem);

  00154	8d bd c8 fe ff
	ff		 lea	 edi, DWORD PTR __stFvrData$[ebp]
; File C:\Program Files (x86)\Microsoft Visual Studio\2019\Community\VC\Tools\MSVC\14.29.30133\atlmfc\include\afxtempl.h

; 289  : 		return m_pData[nIndex];

  0015a	03 f1		 add	 esi, ecx
; File D:\git\src\IBK\IBK_DRFN\ProjSrc\SrcDrfn\Chart\MULTICHART\ExtInputBarDlg.cpp

; 2526 : 			_stFvrData = pFavoriteMng->m_ArrayFvrItem.GetAt(wIndexItem);

  0015c	b9 46 00 00 00	 mov	 ecx, 70			; 00000046H
  00161	f3 a5		 rep movsd

; 2527 : 			if(_stFvrData.m_lTabNum==TABNO_ASSISTINDEX)

  00163	83 bd 08 ff ff
	ff 01		 cmp	 DWORD PTR __stFvrData$[ebp+64], 1
  0016a	0f 85 82 00 00
	00		 jne	 $LN2@OnBtetcmen

; 2530 : 				if(m_pChartMng->GetSafeHwnd())

  00170	8b 83 00 33 00
	00		 mov	 eax, DWORD PTR [ebx+13056]
; File C:\Program Files (x86)\Microsoft Visual Studio\2019\Community\VC\Tools\MSVC\14.29.30133\atlmfc\include\afxwin2.inl

; 25   : 	{ return this == NULL ? NULL : m_hWnd; }

  00176	85 c0		 test	 eax, eax
  00178	74 22		 je	 SHORT $LN9@OnBtetcmen
  0017a	8b 40 20	 mov	 eax, DWORD PTR [eax+32]
; File D:\git\src\IBK\IBK_DRFN\ProjSrc\SrcDrfn\Chart\MULTICHART\ExtInputBarDlg.cpp

; 2530 : 				if(m_pChartMng->GetSafeHwnd())

  0017d	85 c0		 test	 eax, eax
  0017f	74 1b		 je	 SHORT $LN9@OnBtetcmen
; File C:\Program Files (x86)\Microsoft Visual Studio\2019\Community\VC\Tools\MSVC\14.29.30133\atlmfc\include\afxwin2.inl

; 32   : 	{ ASSERT(::IsWindow(m_hWnd)); return ::SendMessage(m_hWnd, message, wParam, lParam); }

  00181	6a 00		 push	 0
  00183	8d 8d 20 ff ff
	ff		 lea	 ecx, DWORD PTR __stFvrData$[ebp+88]
  00189	51		 push	 ecx
  0018a	68 10 04 00 00	 push	 1040			; 00000410H
  0018f	50		 push	 eax
  00190	ff 15 00 00 00
	00		 call	 DWORD PTR __imp__SendMessageA@16
; File D:\git\src\IBK\IBK_DRFN\ProjSrc\SrcDrfn\Chart\MULTICHART\ExtInputBarDlg.cpp

; 2531 : 					bExistance = m_pChartMng->SendMessage(UMSG_HASGRAPH,(WPARAM)(LPCTSTR)_stFvrData.m_chData1);

  00196	89 85 a4 fe ff
	ff		 mov	 DWORD PTR _bExistance$[ebp], eax
$LN9@OnBtetcmen:
; File C:\Program Files (x86)\Microsoft Visual Studio\2019\Community\VC\Tools\MSVC\14.29.30133\atlmfc\include\afxwin1.inl

; 924  : 	{ ASSERT(::IsMenu(m_hMenu)); return ::AppendMenu(m_hMenu, nFlags, nIDNewItem, lpszNewItem); }

  0019c	8b 8d a4 fe ff
	ff		 mov	 ecx, DWORD PTR _bExistance$[ebp]
  001a2	8d 85 20 ff ff
	ff		 lea	 eax, DWORD PTR __stFvrData$[ebp+88]
  001a8	8b bd b4 fe ff
	ff		 mov	 edi, DWORD PTR tv841[ebp]
  001ae	f7 d9		 neg	 ecx
  001b0	50		 push	 eax
  001b1	8b 85 bc fe ff
	ff		 mov	 eax, DWORD PTR $T2[ebp]
  001b7	1b c9		 sbb	 ecx, ecx
  001b9	57		 push	 edi
  001ba	83 e1 08	 and	 ecx, 8
  001bd	51		 push	 ecx
  001be	ff 70 04	 push	 DWORD PTR [eax+4]
  001c1	ff 15 00 00 00
	00		 call	 DWORD PTR __imp__AppendMenuA@16
; File C:\Program Files (x86)\Microsoft Visual Studio\2019\Community\VC\Tools\MSVC\14.29.30133\atlmfc\include\afxcoll.inl

; 316  : 		SetAtGrow(nIndex, newElement);

  001c7	8d 85 20 ff ff
	ff		 lea	 eax, DWORD PTR __stFvrData$[ebp+88]
; File D:\git\src\IBK\IBK_DRFN\ProjSrc\SrcDrfn\Chart\MULTICHART\ExtInputBarDlg.cpp

; 2541 : 				lPosAll++;

  001cd	47		 inc	 edi
; File C:\Program Files (x86)\Microsoft Visual Studio\2019\Community\VC\Tools\MSVC\14.29.30133\atlmfc\include\afxcoll.inl

; 316  : 		SetAtGrow(nIndex, newElement);

  001ce	50		 push	 eax
  001cf	ff b5 98 fe ff
	ff		 push	 DWORD PTR _strArrayIndicatorAll$[ebp+8]
  001d5	8d 8d 90 fe ff
	ff		 lea	 ecx, DWORD PTR _strArrayIndicatorAll$[ebp]
; File D:\git\src\IBK\IBK_DRFN\ProjSrc\SrcDrfn\Chart\MULTICHART\ExtInputBarDlg.cpp

; 2541 : 				lPosAll++;

  001db	89 bd b4 fe ff
	ff		 mov	 DWORD PTR tv841[ebp], edi
; File C:\Program Files (x86)\Microsoft Visual Studio\2019\Community\VC\Tools\MSVC\14.29.30133\atlmfc\include\afxcoll.inl

; 316  : 		SetAtGrow(nIndex, newElement);

  001e1	e8 00 00 00 00	 call	 ?SetAtGrow@CStringArray@@QAEXHPBD@Z ; CStringArray::SetAtGrow
  001e6	8b 85 ac fe ff
	ff		 mov	 eax, DWORD PTR _wIndexItem$1$[ebp]
  001ec	8b 95 b0 fe ff
	ff		 mov	 edx, DWORD PTR _wSizeItem$1$[ebp]
$LN2@OnBtetcmen:
; File D:\git\src\IBK\IBK_DRFN\ProjSrc\SrcDrfn\Chart\MULTICHART\ExtInputBarDlg.cpp

; 2524 : 		for(int wIndexItem=0;wIndexItem<wSizeItem;wIndexItem++)

  001f2	8b 8d a8 fe ff
	ff		 mov	 ecx, DWORD PTR tv840[ebp]
  001f8	40		 inc	 eax
  001f9	8b b5 b8 fe ff
	ff		 mov	 esi, DWORD PTR _pFavoriteMng$1$[ebp]
  001ff	81 c1 18 01 00
	00		 add	 ecx, 280		; 00000118H
  00205	89 85 ac fe ff
	ff		 mov	 DWORD PTR _wIndexItem$1$[ebp], eax
  0020b	89 8d a8 fe ff
	ff		 mov	 DWORD PTR tv840[ebp], ecx
  00211	3b c2		 cmp	 eax, edx
  00213	0f 8c 27 ff ff
	ff		 jl	 $LL4@OnBtetcmen
  00219	8b 3d 00 00 00
	00		 mov	 edi, DWORD PTR __imp__SendMessageA@16
$LN3@OnBtetcmen:

; 2560 : 	menu.AppendMenu(nFlags,101,szEtcMenuName[1]);

  0021f	8b 83 68 2f 00
	00		 mov	 eax, DWORD PTR [ebx+12136]
; File C:\Program Files (x86)\Microsoft Visual Studio\2019\Community\VC\Tools\MSVC\14.29.30133\atlmfc\include\afxwin1.inl

; 924  : 	{ ASSERT(::IsMenu(m_hMenu)); return ::AppendMenu(m_hMenu, nFlags, nIDNewItem, lpszNewItem); }

  00225	8b 35 00 00 00
	00		 mov	 esi, DWORD PTR __imp__AppendMenuA@16
; File D:\git\src\IBK\IBK_DRFN\ProjSrc\SrcDrfn\Chart\MULTICHART\ExtInputBarDlg.cpp

; 2560 : 	menu.AppendMenu(nFlags,101,szEtcMenuName[1]);

  0022b	f7 d8		 neg	 eax
; File C:\Program Files (x86)\Microsoft Visual Studio\2019\Community\VC\Tools\MSVC\14.29.30133\atlmfc\include\afxwin1.inl

; 924  : 	{ ASSERT(::IsMenu(m_hMenu)); return ::AppendMenu(m_hMenu, nFlags, nIDNewItem, lpszNewItem); }

  0022d	68 00 00 00 00	 push	 OFFSET ??_C@_08MDENFGEE@?$LM?v?A?$KE?A?V?$LA?$KB@
; File D:\git\src\IBK\IBK_DRFN\ProjSrc\SrcDrfn\Chart\MULTICHART\ExtInputBarDlg.cpp

; 2560 : 	menu.AppendMenu(nFlags,101,szEtcMenuName[1]);

  00232	1b c0		 sbb	 eax, eax
; File C:\Program Files (x86)\Microsoft Visual Studio\2019\Community\VC\Tools\MSVC\14.29.30133\atlmfc\include\afxwin1.inl

; 924  : 	{ ASSERT(::IsMenu(m_hMenu)); return ::AppendMenu(m_hMenu, nFlags, nIDNewItem, lpszNewItem); }

  00234	6a 65		 push	 101			; 00000065H
; File D:\git\src\IBK\IBK_DRFN\ProjSrc\SrcDrfn\Chart\MULTICHART\ExtInputBarDlg.cpp

; 2560 : 	menu.AppendMenu(nFlags,101,szEtcMenuName[1]);

  00236	83 e0 08	 and	 eax, 8
; File C:\Program Files (x86)\Microsoft Visual Studio\2019\Community\VC\Tools\MSVC\14.29.30133\atlmfc\include\afxwin1.inl

; 924  : 	{ ASSERT(::IsMenu(m_hMenu)); return ::AppendMenu(m_hMenu, nFlags, nIDNewItem, lpszNewItem); }

  00239	50		 push	 eax
  0023a	ff b5 c4 fe ff
	ff		 push	 DWORD PTR _menu$[ebp+4]
  00240	ff d6		 call	 esi
; File D:\git\src\IBK\IBK_DRFN\ProjSrc\SrcDrfn\Chart\MULTICHART\ExtInputBarDlg.cpp

; 2570 :  	menu.AppendMenu(nFlags,102,szEtcMenuName[2]);

  00242	8b 83 20 33 00
	00		 mov	 eax, DWORD PTR [ebx+13088]
  00248	f7 d8		 neg	 eax
; File C:\Program Files (x86)\Microsoft Visual Studio\2019\Community\VC\Tools\MSVC\14.29.30133\atlmfc\include\afxwin1.inl

; 924  : 	{ ASSERT(::IsMenu(m_hMenu)); return ::AppendMenu(m_hMenu, nFlags, nIDNewItem, lpszNewItem); }

  0024a	68 00 00 00 00	 push	 OFFSET ??_C@_0BN@INCLMLGM@?B?w?F?$KO?$LA?$PM?$LH?C?5?$LL?g?$LP?k?$MA?Z?F?D?$MA?O?5?$MA?$PM?C?$LM?$LL?h?A?$KG@
; File D:\git\src\IBK\IBK_DRFN\ProjSrc\SrcDrfn\Chart\MULTICHART\ExtInputBarDlg.cpp

; 2570 :  	menu.AppendMenu(nFlags,102,szEtcMenuName[2]);

  0024f	1b c0		 sbb	 eax, eax
; File C:\Program Files (x86)\Microsoft Visual Studio\2019\Community\VC\Tools\MSVC\14.29.30133\atlmfc\include\afxwin1.inl

; 924  : 	{ ASSERT(::IsMenu(m_hMenu)); return ::AppendMenu(m_hMenu, nFlags, nIDNewItem, lpszNewItem); }

  00251	6a 66		 push	 102			; 00000066H
; File D:\git\src\IBK\IBK_DRFN\ProjSrc\SrcDrfn\Chart\MULTICHART\ExtInputBarDlg.cpp

; 2570 :  	menu.AppendMenu(nFlags,102,szEtcMenuName[2]);

  00253	83 e0 08	 and	 eax, 8
; File C:\Program Files (x86)\Microsoft Visual Studio\2019\Community\VC\Tools\MSVC\14.29.30133\atlmfc\include\afxwin1.inl

; 924  : 	{ ASSERT(::IsMenu(m_hMenu)); return ::AppendMenu(m_hMenu, nFlags, nIDNewItem, lpszNewItem); }

  00256	50		 push	 eax
  00257	ff b5 c4 fe ff
	ff		 push	 DWORD PTR _menu$[ebp+4]
  0025d	ff d6		 call	 esi
  0025f	68 00 00 00 00	 push	 OFFSET ??_C@_0M@HNBDOFEN@?$LK?P?$LM?$KO?E?x?5?$MA?z?$MA?e@
  00264	6a 67		 push	 103			; 00000067H
  00266	6a 00		 push	 0
  00268	ff b5 c4 fe ff
	ff		 push	 DWORD PTR _menu$[ebp+4]
  0026e	ff d6		 call	 esi
; File D:\git\src\IBK\IBK_DRFN\ProjSrc\SrcDrfn\Chart\MULTICHART\ExtInputBarDlg.cpp

; 2585 :  	menu.AppendMenu(nFlags,104,szEtcMenuName[4]);

  00270	8b 83 14 33 00
	00		 mov	 eax, DWORD PTR [ebx+13076]
  00276	f7 d8		 neg	 eax
; File C:\Program Files (x86)\Microsoft Visual Studio\2019\Community\VC\Tools\MSVC\14.29.30133\atlmfc\include\afxwin1.inl

; 924  : 	{ ASSERT(::IsMenu(m_hMenu)); return ::AppendMenu(m_hMenu, nFlags, nIDNewItem, lpszNewItem); }

  00278	68 00 00 00 00	 push	 OFFSET ??_C@_0BE@MMHLHMNE@?A?$LO?$LI?q?A?V?$LB?b?$LK?$LA?5?A?v?G?$KF?$MA?z?$MA?e@
; File D:\git\src\IBK\IBK_DRFN\ProjSrc\SrcDrfn\Chart\MULTICHART\ExtInputBarDlg.cpp

; 2585 :  	menu.AppendMenu(nFlags,104,szEtcMenuName[4]);

  0027d	1b c0		 sbb	 eax, eax
; File C:\Program Files (x86)\Microsoft Visual Studio\2019\Community\VC\Tools\MSVC\14.29.30133\atlmfc\include\afxwin1.inl

; 924  : 	{ ASSERT(::IsMenu(m_hMenu)); return ::AppendMenu(m_hMenu, nFlags, nIDNewItem, lpszNewItem); }

  0027f	6a 68		 push	 104			; 00000068H
; File D:\git\src\IBK\IBK_DRFN\ProjSrc\SrcDrfn\Chart\MULTICHART\ExtInputBarDlg.cpp

; 2585 :  	menu.AppendMenu(nFlags,104,szEtcMenuName[4]);

  00281	83 e0 08	 and	 eax, 8
; File C:\Program Files (x86)\Microsoft Visual Studio\2019\Community\VC\Tools\MSVC\14.29.30133\atlmfc\include\afxwin1.inl

; 924  : 	{ ASSERT(::IsMenu(m_hMenu)); return ::AppendMenu(m_hMenu, nFlags, nIDNewItem, lpszNewItem); }

  00284	50		 push	 eax
  00285	ff b5 c4 fe ff
	ff		 push	 DWORD PTR _menu$[ebp+4]
  0028b	ff d6		 call	 esi
; File D:\git\src\IBK\IBK_DRFN\ProjSrc\SrcDrfn\Chart\MULTICHART\ExtInputBarDlg.cpp

; 2589 : 	int nSaveJipyoPerCodePeriod = ::GetCommonDataInfo(GetSafeHwnd(), COMDATA_SAVE_JIPYO_PER_CODE_PERIOD, 0);

  0028d	6a 00		 push	 0
  0028f	6a 00		 push	 0
  00291	ff 73 20	 push	 DWORD PTR [ebx+32]
  00294	e8 00 00 00 00	 call	 ?GetCommonDataInfo@@YAHPAUHWND__@@HH@Z ; GetCommonDataInfo
  00299	83 c4 0c	 add	 esp, 12			; 0000000cH

; 2590 : 	if(!nSaveJipyoPerCodePeriod)

  0029c	f7 d8		 neg	 eax
  0029e	1b c0		 sbb	 eax, eax
  002a0	83 e0 08	 and	 eax, 8
; File C:\Program Files (x86)\Microsoft Visual Studio\2019\Community\VC\Tools\MSVC\14.29.30133\atlmfc\include\afxwin1.inl

; 924  : 	{ ASSERT(::IsMenu(m_hMenu)); return ::AppendMenu(m_hMenu, nFlags, nIDNewItem, lpszNewItem); }

  002a3	68 00 00 00 00	 push	 OFFSET ??_C@_0BE@MMHLHMNE@?A?$LO?$LI?q?A?V?$LB?b?$LK?$LA?5?A?v?G?$KF?$MA?z?$MA?e@
  002a8	6a 69		 push	 105			; 00000069H
  002aa	50		 push	 eax
  002ab	ff b5 c4 fe ff
	ff		 push	 DWORD PTR _menu$[ebp+4]
  002b1	ff d6		 call	 esi
; File C:\Program Files (x86)\Microsoft Visual Studio\2019\Community\VC\Tools\MSVC\14.29.30133\atlmfc\include\afxwin2.inl

; 84   : 	{ ASSERT(::IsWindow(m_hWnd)); ::GetWindowRect(m_hWnd, lpRect); }

  002b3	8d 45 e0	 lea	 eax, DWORD PTR _rect$[ebp]
  002b6	0f 57 c0	 xorps	 xmm0, xmm0
  002b9	50		 push	 eax
  002ba	ff b3 68 08 00
	00		 push	 DWORD PTR [ebx+2152]
; File C:\Program Files (x86)\Microsoft Visual Studio\2019\Community\VC\Tools\MSVC\14.29.30133\atlmfc\include\atltypes.h

; 528  : 	left = 0;

  002c0	0f 11 45 e0	 movups	 XMMWORD PTR _rect$[ebp], xmm0
; File C:\Program Files (x86)\Microsoft Visual Studio\2019\Community\VC\Tools\MSVC\14.29.30133\atlmfc\include\afxwin2.inl

; 84   : 	{ ASSERT(::IsWindow(m_hWnd)); ::GetWindowRect(m_hWnd, lpRect); }

  002c4	ff 15 00 00 00
	00		 call	 DWORD PTR __imp__GetWindowRect@8
; File D:\git\src\IBK\IBK_DRFN\ProjSrc\SrcDrfn\Chart\MULTICHART\ExtInputBarDlg.cpp

; 2599 :  	int nRetValue = menu.TrackPopupMenu(flags, rect.left, rect.bottom, this);

  002ca	6a 00		 push	 0
  002cc	53		 push	 ebx
  002cd	ff 75 ec	 push	 DWORD PTR _rect$[ebp+12]
  002d0	8d 8d c0 fe ff
	ff		 lea	 ecx, DWORD PTR _menu$[ebp]
  002d6	ff 75 e0	 push	 DWORD PTR _rect$[ebp]
  002d9	68 82 01 00 00	 push	 386			; 00000182H
  002de	e8 00 00 00 00	 call	 ?TrackPopupMenu@CMenu@@QAEHIHHPAVCWnd@@PBUtagRECT@@@Z ; CMenu::TrackPopupMenu
; File C:\Program Files (x86)\Microsoft Visual Studio\2019\Community\VC\Tools\MSVC\14.29.30133\atlmfc\include\afxwin1.inl

; 951  : 	{ ASSERT(::IsMenu(m_hMenu)); return CMenu::FromHandle(::GetSubMenu(m_hMenu, nPos)); }

  002e3	6a 00		 push	 0
  002e5	ff b5 c4 fe ff
	ff		 push	 DWORD PTR _menu$[ebp+4]
; File D:\git\src\IBK\IBK_DRFN\ProjSrc\SrcDrfn\Chart\MULTICHART\ExtInputBarDlg.cpp

; 2599 :  	int nRetValue = menu.TrackPopupMenu(flags, rect.left, rect.bottom, this);

  002eb	8b f0		 mov	 esi, eax
; File C:\Program Files (x86)\Microsoft Visual Studio\2019\Community\VC\Tools\MSVC\14.29.30133\atlmfc\include\afxwin1.inl

; 951  : 	{ ASSERT(::IsMenu(m_hMenu)); return CMenu::FromHandle(::GetSubMenu(m_hMenu, nPos)); }

  002ed	ff 15 00 00 00
	00		 call	 DWORD PTR __imp__GetSubMenu@8
  002f3	50		 push	 eax
  002f4	e8 00 00 00 00	 call	 ?FromHandle@CMenu@@SGPAV1@PAUHMENU__@@@Z ; CMenu::FromHandle
; File D:\git\src\IBK\IBK_DRFN\ProjSrc\SrcDrfn\Chart\MULTICHART\ExtInputBarDlg.cpp

; 2601 : 	pMenuChild = menu.GetSubMenu(0);

  002f9	89 85 b8 fe ff
	ff		 mov	 DWORD PTR _pMenuChild$1$[ebp], eax

; 2602 : 	if(pMenuChild)

  002ff	85 c0		 test	 eax, eax
  00301	74 14		 je	 SHORT $LN38@OnBtetcmen

; 2603 : 	{
; 2604 : 		pMenuChild->DestroyMenu();

  00303	8b c8		 mov	 ecx, eax
  00305	e8 00 00 00 00	 call	 ?DestroyMenu@CMenu@@QAEHXZ ; CMenu::DestroyMenu

; 2605 : 		delete pMenuChild;

  0030a	8b 8d b8 fe ff
	ff		 mov	 ecx, DWORD PTR _pMenuChild$1$[ebp]
  00310	6a 01		 push	 1
  00312	8b 11		 mov	 edx, DWORD PTR [ecx]
  00314	ff 52 04	 call	 DWORD PTR [edx+4]
$LN38@OnBtetcmen:

; 2606 : 	}
; 2607 :     menu.DestroyMenu();	

  00317	8d 8d c0 fe ff
	ff		 lea	 ecx, DWORD PTR _menu$[ebp]
  0031d	e8 00 00 00 00	 call	 ?DestroyMenu@CMenu@@QAEHXZ ; CMenu::DestroyMenu

; 2608 : 	if(nRetValue >= 200)

  00322	81 fe c8 00 00
	00		 cmp	 esi, 200		; 000000c8H
  00328	7c 32		 jl	 SHORT $LN21@OnBtetcmen

; 2610 : 		m_pChartMng->SendMessage(UMSG_ADDCHARTBLOCK,(WPARAM)(LPCTSTR)strArrayIndicatorAll.GetAt(nRetValue-200));

  0032a	8d 96 38 ff ff
	ff		 lea	 edx, DWORD PTR [esi-200]
; File C:\Program Files (x86)\Microsoft Visual Studio\2019\Community\VC\Tools\MSVC\14.29.30133\atlmfc\include\afxcoll.inl

; 289  : 		if( nIndex < 0 || nIndex >= m_nSize )

  00330	3b 95 98 fe ff
	ff		 cmp	 edx, DWORD PTR _strArrayIndicatorAll$[ebp+8]
  00336	0f 8d 96 01 00
	00		 jge	 $LN98@OnBtetcmen

; 291  : 		return m_pData[nIndex]; }

  0033c	8b 85 94 fe ff
	ff		 mov	 eax, DWORD PTR _strArrayIndicatorAll$[ebp+4]
; File D:\git\src\IBK\IBK_DRFN\ProjSrc\SrcDrfn\Chart\MULTICHART\ExtInputBarDlg.cpp

; 2610 : 		m_pChartMng->SendMessage(UMSG_ADDCHARTBLOCK,(WPARAM)(LPCTSTR)strArrayIndicatorAll.GetAt(nRetValue-200));

  00342	8b 8b 00 33 00
	00		 mov	 ecx, DWORD PTR [ebx+13056]
; File C:\Program Files (x86)\Microsoft Visual Studio\2019\Community\VC\Tools\MSVC\14.29.30133\atlmfc\include\afxwin2.inl

; 32   : 	{ ASSERT(::IsWindow(m_hWnd)); return ::SendMessage(m_hWnd, message, wParam, lParam); }

  00348	6a 00		 push	 0
  0034a	ff 34 90	 push	 DWORD PTR [eax+edx*4]
  0034d	68 11 04 00 00	 push	 1041			; 00000411H
  00352	ff 71 20	 push	 DWORD PTR [ecx+32]
  00355	ff d7		 call	 edi
  00357	e9 33 01 00 00	 jmp	 $LN32@OnBtetcmen
$LN21@OnBtetcmen:
; File D:\git\src\IBK\IBK_DRFN\ProjSrc\SrcDrfn\Chart\MULTICHART\ExtInputBarDlg.cpp

; 2614 :  	switch(nRetValue)

  0035c	83 c6 9b	 add	 esi, -101		; ffffff9bH
  0035f	83 fe 04	 cmp	 esi, 4
  00362	0f 87 27 01 00
	00		 ja	 $LN32@OnBtetcmen
  00368	ff 24 b5 00 00
	00 00		 jmp	 DWORD PTR $LN145@OnBtetcmen[esi*4]
$LN22@OnBtetcmen:

; 2624 :  		if(m_pChartMng->GetSafeHwnd()) // 2005. 04. 22 by Nam

  0036f	8b 8b 00 33 00
	00		 mov	 ecx, DWORD PTR [ebx+13056]
  00375	33 c0		 xor	 eax, eax
  00377	39 83 68 2f 00
	00		 cmp	 DWORD PTR [ebx+12136], eax
  0037d	0f 94 c0	 sete	 al
  00380	89 83 68 2f 00
	00		 mov	 DWORD PTR [ebx+12136], eax
; File C:\Program Files (x86)\Microsoft Visual Studio\2019\Community\VC\Tools\MSVC\14.29.30133\atlmfc\include\afxwin2.inl

; 25   : 	{ return this == NULL ? NULL : m_hWnd; }

  00386	85 c9		 test	 ecx, ecx
  00388	0f 84 01 01 00
	00		 je	 $LN32@OnBtetcmen
  0038e	8b 49 20	 mov	 ecx, DWORD PTR [ecx+32]
; File D:\git\src\IBK\IBK_DRFN\ProjSrc\SrcDrfn\Chart\MULTICHART\ExtInputBarDlg.cpp

; 2624 :  		if(m_pChartMng->GetSafeHwnd()) // 2005. 04. 22 by Nam

  00391	85 c9		 test	 ecx, ecx
  00393	0f 84 f6 00 00
	00		 je	 $LN32@OnBtetcmen
; File C:\Program Files (x86)\Microsoft Visual Studio\2019\Community\VC\Tools\MSVC\14.29.30133\atlmfc\include\afxwin2.inl

; 32   : 	{ ASSERT(::IsWindow(m_hWnd)); return ::SendMessage(m_hWnd, message, wParam, lParam); }

  00399	6a 00		 push	 0
  0039b	50		 push	 eax
  0039c	68 24 04 00 00	 push	 1060			; 00000424H
  003a1	51		 push	 ecx
  003a2	ff d7		 call	 edi
; File D:\git\src\IBK\IBK_DRFN\ProjSrc\SrcDrfn\Chart\MULTICHART\ExtInputBarDlg.cpp

; 2626 :  		break;

  003a4	e9 e6 00 00 00	 jmp	 $LN32@OnBtetcmen
$LN24@OnBtetcmen:

; 2644 :  		if(m_pChartMng->GetSafeHwnd()) // 2005. 04. 22 by Nam

  003a9	8b 8b 00 33 00
	00		 mov	 ecx, DWORD PTR [ebx+13056]
  003af	33 c0		 xor	 eax, eax
  003b1	39 83 20 33 00
	00		 cmp	 DWORD PTR [ebx+13088], eax
  003b7	0f 94 c0	 sete	 al
  003ba	89 83 20 33 00
	00		 mov	 DWORD PTR [ebx+13088], eax
; File C:\Program Files (x86)\Microsoft Visual Studio\2019\Community\VC\Tools\MSVC\14.29.30133\atlmfc\include\afxwin2.inl

; 25   : 	{ return this == NULL ? NULL : m_hWnd; }

  003c0	85 c9		 test	 ecx, ecx
  003c2	0f 84 c7 00 00
	00		 je	 $LN32@OnBtetcmen
  003c8	8b 49 20	 mov	 ecx, DWORD PTR [ecx+32]
; File D:\git\src\IBK\IBK_DRFN\ProjSrc\SrcDrfn\Chart\MULTICHART\ExtInputBarDlg.cpp

; 2644 :  		if(m_pChartMng->GetSafeHwnd()) // 2005. 04. 22 by Nam

  003cb	85 c9		 test	 ecx, ecx
  003cd	0f 84 bc 00 00
	00		 je	 $LN32@OnBtetcmen
; File C:\Program Files (x86)\Microsoft Visual Studio\2019\Community\VC\Tools\MSVC\14.29.30133\atlmfc\include\afxwin2.inl

; 32   : 	{ ASSERT(::IsWindow(m_hWnd)); return ::SendMessage(m_hWnd, message, wParam, lParam); }

  003d3	6a 00		 push	 0
  003d5	50		 push	 eax
  003d6	68 ca 04 00 00	 push	 1226			; 000004caH
  003db	51		 push	 ecx
  003dc	ff d7		 call	 edi
; File D:\git\src\IBK\IBK_DRFN\ProjSrc\SrcDrfn\Chart\MULTICHART\ExtInputBarDlg.cpp

; 2646 :  		break;

  003de	e9 ac 00 00 00	 jmp	 $LN32@OnBtetcmen
$LN26@OnBtetcmen:
; File C:\Program Files (x86)\Microsoft Visual Studio\2019\Community\VC\Tools\MSVC\14.29.30133\atlmfc\include\afxwin2.inl

; 213  : 	{ ASSERT(::IsWindow(m_hWnd)); return CWnd::FromHandle(::GetParent(m_hWnd)); }

  003e3	ff 73 20	 push	 DWORD PTR [ebx+32]
  003e6	ff 15 00 00 00
	00		 call	 DWORD PTR __imp__GetParent@4
  003ec	50		 push	 eax
  003ed	e8 00 00 00 00	 call	 ?FromHandle@CWnd@@SGPAV1@PAUHWND__@@@Z ; CWnd::FromHandle
; File D:\git\src\IBK\IBK_DRFN\ProjSrc\SrcDrfn\Chart\MULTICHART\ExtInputBarDlg.cpp

; 2648 : 		((CStdDialog*)GetParent())->DoClearUserChartData();

  003f2	8b c8		 mov	 ecx, eax
  003f4	e8 00 00 00 00	 call	 ?DoClearUserChartData@CStdDialog@@QAEXXZ ; CStdDialog::DoClearUserChartData

; 2649 : 		break;

  003f9	e9 91 00 00 00	 jmp	 $LN32@OnBtetcmen
$LN27@OnBtetcmen:

; 2654 :  		if(m_pChartMng->GetSafeHwnd()) // 2005. 04. 22 by Nam

  003fe	8b 8b 00 33 00
	00		 mov	 ecx, DWORD PTR [ebx+13056]
  00404	33 c0		 xor	 eax, eax
  00406	39 83 14 33 00
	00		 cmp	 DWORD PTR [ebx+13076], eax
  0040c	0f 94 c0	 sete	 al
  0040f	89 83 14 33 00
	00		 mov	 DWORD PTR [ebx+13076], eax
; File C:\Program Files (x86)\Microsoft Visual Studio\2019\Community\VC\Tools\MSVC\14.29.30133\atlmfc\include\afxwin2.inl

; 25   : 	{ return this == NULL ? NULL : m_hWnd; }

  00415	85 c9		 test	 ecx, ecx
  00417	74 76		 je	 SHORT $LN32@OnBtetcmen
  00419	8b 49 20	 mov	 ecx, DWORD PTR [ecx+32]
; File D:\git\src\IBK\IBK_DRFN\ProjSrc\SrcDrfn\Chart\MULTICHART\ExtInputBarDlg.cpp

; 2654 :  		if(m_pChartMng->GetSafeHwnd()) // 2005. 04. 22 by Nam

  0041c	85 c9		 test	 ecx, ecx
  0041e	74 6f		 je	 SHORT $LN32@OnBtetcmen
; File C:\Program Files (x86)\Microsoft Visual Studio\2019\Community\VC\Tools\MSVC\14.29.30133\atlmfc\include\afxwin2.inl

; 32   : 	{ ASSERT(::IsWindow(m_hWnd)); return ::SendMessage(m_hWnd, message, wParam, lParam); }

  00420	6a 64		 push	 100			; 00000064H
  00422	50		 push	 eax
  00423	68 ca 04 00 00	 push	 1226			; 000004caH
  00428	51		 push	 ecx
  00429	ff d7		 call	 edi
; File D:\git\src\IBK\IBK_DRFN\ProjSrc\SrcDrfn\Chart\MULTICHART\ExtInputBarDlg.cpp

; 2656 :  		break;

  0042b	eb 62		 jmp	 SHORT $LN32@OnBtetcmen
$LN29@OnBtetcmen:

; 2657 : // vntsorl:[0001250] [5001]  -           
; 2658 :  	case 105:
; 2659 : 		{
; 2660 : 			int nMode = m_pChartMng->SendMessage( RMSG_GETCURRENTMODE);

  0042d	8b 83 00 33 00
	00		 mov	 eax, DWORD PTR [ebx+13056]
; File C:\Program Files (x86)\Microsoft Visual Studio\2019\Community\VC\Tools\MSVC\14.29.30133\atlmfc\include\afxwin2.inl

; 32   : 	{ ASSERT(::IsWindow(m_hWnd)); return ::SendMessage(m_hWnd, message, wParam, lParam); }

  00433	6a 00		 push	 0
  00435	6a 00		 push	 0
  00437	ff 35 00 00 00
	00		 push	 DWORD PTR ?RMSG_GETCURRENTMODE@@3IB
  0043d	ff 70 20	 push	 DWORD PTR [eax+32]
  00440	ff d7		 call	 edi
; File D:\git\src\IBK\IBK_DRFN\ProjSrc\SrcDrfn\Chart\MULTICHART\ExtInputBarDlg.cpp

; 2661 : 			BOOL bSaveJipyoPerCodePeriod = ::GetCommonDataInfo(GetSafeHwnd(), COMDATA_SAVE_JIPYO_PER_CODE_PERIOD, 0);

  00442	6a 00		 push	 0
  00444	6a 00		 push	 0
  00446	ff 73 20	 push	 DWORD PTR [ebx+32]
  00449	8b f8		 mov	 edi, eax
  0044b	e8 00 00 00 00	 call	 ?GetCommonDataInfo@@YAHPAUHWND__@@HH@Z ; GetCommonDataInfo
  00450	83 c4 0c	 add	 esp, 12			; 0000000cH
  00453	8b f0		 mov	 esi, eax

; 2662 : 			if( ( ( nMode == ADD_NEW_ITEM || nMode == OVERLAPP_CHART) && !bSaveJipyoPerCodePeriod) ||

  00455	83 ff 02	 cmp	 edi, 2
  00458	74 05		 je	 SHORT $LN34@OnBtetcmen
  0045a	83 ff 03	 cmp	 edi, 3
  0045d	75 04		 jne	 SHORT $LN33@OnBtetcmen
$LN34@OnBtetcmen:
  0045f	85 f6		 test	 esi, esi
  00461	74 2c		 je	 SHORT $LN32@OnBtetcmen
$LN33@OnBtetcmen:
  00463	8b 8b 00 33 00
	00		 mov	 ecx, DWORD PTR [ebx+13056]
  00469	e8 00 00 00 00	 call	 ?GetpChartItemSelected@CChartMng@@QAEPAVCChartItem@@XZ ; CChartMng::GetpChartItemSelected
  0046e	8b c8		 mov	 ecx, eax
  00470	e8 00 00 00 00	 call	 ?GetCountRQ@CChartItem@@QAEHXZ ; CChartItem::GetCountRQ
  00475	83 f8 01	 cmp	 eax, 1
  00478	7f 15		 jg	 SHORT $LN32@OnBtetcmen

; 2663 : 				( ((CChartMng*)m_pChartMng)->GetpChartItemSelected()->GetCountRQ() > 1))
; 2664 : 			{
; 2665 : //				AfxMessageBox("/ [ ]  .");
; 2666 : 			}
; 2667 : 			else
; 2668 : 			{
; 2669 : 				::SetCommonDataInfo(GetSafeHwnd(), COMDATA_SAVE_JIPYO_PER_CODE_PERIOD, !bSaveJipyoPerCodePeriod);

  0047a	33 c0		 xor	 eax, eax
  0047c	85 f6		 test	 esi, esi
  0047e	0f 94 c0	 sete	 al
  00481	50		 push	 eax
  00482	6a 00		 push	 0
  00484	ff 73 20	 push	 DWORD PTR [ebx+32]
  00487	e8 00 00 00 00	 call	 ?SetCommonDataInfo@@YAHPAUHWND__@@HH@Z ; SetCommonDataInfo
  0048c	83 c4 0c	 add	 esp, 12			; 0000000cH
$LN32@OnBtetcmen:

; 2675 : }

  0048f	8d 8d 90 fe ff
	ff		 lea	 ecx, DWORD PTR _strArrayIndicatorAll$[ebp]
  00495	e8 00 00 00 00	 call	 ??1CStringArray@@UAE@XZ	; CStringArray::~CStringArray
; File C:\Program Files (x86)\Microsoft Visual Studio\2019\Community\VC\Tools\MSVC\14.29.30133\atlmfc\include\afxwin1.inl

; 905  : 	{ DestroyMenu(); }

  0049a	8d 8d c0 fe ff
	ff		 lea	 ecx, DWORD PTR _menu$[ebp]
  004a0	c7 45 fc 03 00
	00 00		 mov	 DWORD PTR __$EHRec$[ebp+8], 3
  004a7	c7 85 c0 fe ff
	ff 00 00 00 00	 mov	 DWORD PTR _menu$[ebp], OFFSET ??_7CMenu@@6B@
  004b1	e8 00 00 00 00	 call	 ?DestroyMenu@CMenu@@QAEHXZ ; CMenu::DestroyMenu
; File D:\git\src\IBK\IBK_DRFN\ProjSrc\SrcDrfn\Chart\MULTICHART\ExtInputBarDlg.cpp

; 2675 : }

  004b6	8b 4d f4	 mov	 ecx, DWORD PTR __$EHRec$[ebp]
  004b9	64 89 0d 00 00
	00 00		 mov	 DWORD PTR fs:0, ecx
  004c0	59		 pop	 ecx
  004c1	5f		 pop	 edi
  004c2	5e		 pop	 esi
  004c3	5b		 pop	 ebx
  004c4	8b 4d f0	 mov	 ecx, DWORD PTR __$ArrayPad$[ebp]
  004c7	33 cd		 xor	 ecx, ebp
  004c9	e8 00 00 00 00	 call	 @__security_check_cookie@4
  004ce	8b e5		 mov	 esp, ebp
  004d0	5d		 pop	 ebp
  004d1	c3		 ret	 0
$LN98@OnBtetcmen:
; File C:\Program Files (x86)\Microsoft Visual Studio\2019\Community\VC\Tools\MSVC\14.29.30133\atlmfc\include\afxcoll.inl

; 290  : 			AfxThrowInvalidArgException();

  004d2	e8 00 00 00 00	 call	 ?AfxThrowInvalidArgException@@YGXXZ ; AfxThrowInvalidArgException
$LN147@OnBtetcmen:
  004d7	90		 npad	 1
$LN145@OnBtetcmen:
; File D:\git\src\IBK\IBK_DRFN\ProjSrc\SrcDrfn\Chart\MULTICHART\ExtInputBarDlg.cpp

; 2675 : }

  004d8	00 00 00 00	 DD	 $LN22@OnBtetcmen
  004dc	00 00 00 00	 DD	 $LN24@OnBtetcmen
  004e0	00 00 00 00	 DD	 $LN26@OnBtetcmen
  004e4	00 00 00 00	 DD	 $LN27@OnBtetcmen
  004e8	00 00 00 00	 DD	 $LN29@OnBtetcmen
_TEXT	ENDS
;	COMDAT text$x
text$x	SEGMENT
__unwindfunclet$?OnBtetcmenu@CExtInputBarDlg@@IAEXXZ$0:
  00000	8d 8d c0 fe ff
	ff		 lea	 ecx, DWORD PTR _menu$[ebp]
  00006	e9 00 00 00 00	 jmp	 ??1CMenu@@UAE@XZ	; CMenu::~CMenu
__unwindfunclet$?OnBtetcmenu@CExtInputBarDlg@@IAEXXZ$2:
  0000b	8d 8d 90 fe ff
	ff		 lea	 ecx, DWORD PTR _strArrayIndicatorAll$[ebp]
  00011	e9 00 00 00 00	 jmp	 ??1CStringArray@@UAE@XZ	; CStringArray::~CStringArray
  00016	cc		 int	 3
  00017	cc		 int	 3
  00018	cc		 int	 3
  00019	cc		 int	 3
  0001a	cc		 int	 3
__ehhandler$?OnBtetcmenu@CExtInputBarDlg@@IAEXXZ:
  0001b	90		 npad	 1
  0001c	90		 npad	 1
  0001d	8b 54 24 08	 mov	 edx, DWORD PTR [esp+8]
  00021	8d 42 0c	 lea	 eax, DWORD PTR [edx+12]
  00024	8b 8a 8c fe ff
	ff		 mov	 ecx, DWORD PTR [edx-372]
  0002a	33 c8		 xor	 ecx, eax
  0002c	e8 00 00 00 00	 call	 @__security_check_cookie@4
  00031	8b 4a fc	 mov	 ecx, DWORD PTR [edx-4]
  00034	33 c8		 xor	 ecx, eax
  00036	e8 00 00 00 00	 call	 @__security_check_cookie@4
  0003b	b8 00 00 00 00	 mov	 eax, OFFSET __ehfuncinfo$?OnBtetcmenu@CExtInputBarDlg@@IAEXXZ
  00040	e9 00 00 00 00	 jmp	 ___CxxFrameHandler3
text$x	ENDS
?OnBtetcmenu@CExtInputBarDlg@@IAEXXZ ENDP		; CExtInputBarDlg::OnBtetcmenu
; Function compile flags: /Ogtp
; File D:\git\src\IBK\IBK_DRFN\ProjSrc\SrcDrfn\Chart\MULTICHART\ExtInputBarDlg.cpp
;	COMDAT ?OnBtnPeriod@CExtInputBarDlg@@IAEXXZ
_TEXT	SEGMENT
?OnBtnPeriod@CExtInputBarDlg@@IAEXXZ PROC		; CExtInputBarDlg::OnBtnPeriod, COMDAT
; _this$ = ecx

; 2469 : 	// TODO: Add your control notification handler code here
; 2470 : 	
; 2471 : }

  00000	c2 00 00	 ret	 0
?OnBtnPeriod@CExtInputBarDlg@@IAEXXZ ENDP		; CExtInputBarDlg::OnBtnPeriod
_TEXT	ENDS
; Function compile flags: /Ogtp
; File D:\git\src\IBK\IBK_DRFN\ProjSrc\SrcDrfn\Chart\MULTICHART\ExtInputBarDlg.cpp
; File C:\Program Files (x86)\Microsoft Visual Studio\2019\Community\VC\Tools\MSVC\14.29.30133\atlmfc\include\afxwin2.inl
; File D:\git\src\IBK\IBK_DRFN\ProjSrc\SrcDrfn\Chart\MULTICHART\ExtInputBarDlg.cpp
;	COMDAT ?OnChkRevised@CExtInputBarDlg@@IAEXXZ
_TEXT	SEGMENT
?OnChkRevised@CExtInputBarDlg@@IAEXXZ PROC		; CExtInputBarDlg::OnChkRevised, COMDAT
; _this$ = ecx

; 2162 : {

  00000	56		 push	 esi

; 2163 : 	// TODO: Add your control notification handler code here
; 2164 : 	UpdateData(TRUE);

  00001	6a 01		 push	 1
  00003	8b f1		 mov	 esi, ecx
  00005	e8 00 00 00 00	 call	 ?UpdateData@CWnd@@QAEHH@Z ; CWnd::UpdateData

; 2165 : 	if(m_pChartMng)

  0000a	8b 86 00 33 00
	00		 mov	 eax, DWORD PTR [esi+13056]
  00010	85 c0		 test	 eax, eax
  00012	74 16		 je	 SHORT $LN2@OnChkRevis
; File C:\Program Files (x86)\Microsoft Visual Studio\2019\Community\VC\Tools\MSVC\14.29.30133\atlmfc\include\afxwin2.inl

; 32   : 	{ ASSERT(::IsWindow(m_hWnd)); return ::SendMessage(m_hWnd, message, wParam, lParam); }

  00014	6a 00		 push	 0
  00016	ff b6 68 2f 00
	00		 push	 DWORD PTR [esi+12136]
  0001c	68 24 04 00 00	 push	 1060			; 00000424H
  00021	ff 70 20	 push	 DWORD PTR [eax+32]
  00024	ff 15 00 00 00
	00		 call	 DWORD PTR __imp__SendMessageA@16
$LN2@OnChkRevis:
  0002a	5e		 pop	 esi
; File D:\git\src\IBK\IBK_DRFN\ProjSrc\SrcDrfn\Chart\MULTICHART\ExtInputBarDlg.cpp

; 2167 : }

  0002b	c3		 ret	 0
?OnChkRevised@CExtInputBarDlg@@IAEXXZ ENDP		; CExtInputBarDlg::OnChkRevised
_TEXT	ENDS
; Function compile flags: /Ogtp
; File D:\git\src\IBK\IBK_DRFN\ProjSrc\SrcDrfn\Chart\MULTICHART\ExtInputBarDlg.cpp
; File C:\Program Files (x86)\Microsoft Visual Studio\2019\Community\VC\Tools\MSVC\14.29.30133\atlmfc\include\afxwin2.inl
; File D:\git\src\IBK\IBK_DRFN\ProjSrc\SrcDrfn\Chart\MULTICHART\ExtInputBarDlg.cpp
; File C:\Program Files (x86)\Microsoft Visual Studio\2019\Community\VC\Tools\MSVC\14.29.30133\atlmfc\include\afxwin2.inl
; File D:\git\src\IBK\IBK_DRFN\ProjSrc\SrcDrfn\Chart\MULTICHART\ExtInputBarDlg.cpp
;	COMDAT ?OnBtnAnalizePeriod@CExtInputBarDlg@@IAEXXZ
_TEXT	SEGMENT
?OnBtnAnalizePeriod@CExtInputBarDlg@@IAEXXZ PROC	; CExtInputBarDlg::OnBtnAnalizePeriod, COMDAT
; _this$ = ecx

; 2463 : 	if(m_pChartMng->GetSafeHwnd()) // 2005. 04. 22 by Nam

  00000	8b 81 00 33 00
	00		 mov	 eax, DWORD PTR [ecx+13056]
; File C:\Program Files (x86)\Microsoft Visual Studio\2019\Community\VC\Tools\MSVC\14.29.30133\atlmfc\include\afxwin2.inl

; 25   : 	{ return this == NULL ? NULL : m_hWnd; }

  00006	85 c0		 test	 eax, eax
  00008	74 17		 je	 SHORT $LN2@OnBtnAnali
  0000a	8b 40 20	 mov	 eax, DWORD PTR [eax+32]
; File D:\git\src\IBK\IBK_DRFN\ProjSrc\SrcDrfn\Chart\MULTICHART\ExtInputBarDlg.cpp

; 2463 : 	if(m_pChartMng->GetSafeHwnd()) // 2005. 04. 22 by Nam

  0000d	85 c0		 test	 eax, eax
  0000f	74 10		 je	 SHORT $LN2@OnBtnAnali
; File C:\Program Files (x86)\Microsoft Visual Studio\2019\Community\VC\Tools\MSVC\14.29.30133\atlmfc\include\afxwin2.inl

; 32   : 	{ ASSERT(::IsWindow(m_hWnd)); return ::SendMessage(m_hWnd, message, wParam, lParam); }

  00011	6a 00		 push	 0
  00013	6a 00		 push	 0
  00015	68 c6 04 00 00	 push	 1222			; 000004c6H
  0001a	50		 push	 eax
  0001b	ff 15 00 00 00
	00		 call	 DWORD PTR __imp__SendMessageA@16
$LN2@OnBtnAnali:
; File D:\git\src\IBK\IBK_DRFN\ProjSrc\SrcDrfn\Chart\MULTICHART\ExtInputBarDlg.cpp

; 2465 : }

  00021	c3		 ret	 0
?OnBtnAnalizePeriod@CExtInputBarDlg@@IAEXXZ ENDP	; CExtInputBarDlg::OnBtnAnalizePeriod
_TEXT	ENDS
; Function compile flags: /Ogtp
; File D:\git\src\IBK\IBK_DRFN\ProjSrc\SrcDrfn\Chart\MULTICHART\ExtInputBarDlg.cpp
; File C:\Program Files (x86)\Microsoft Visual Studio\2019\Community\VC\Tools\MSVC\14.29.30133\atlmfc\include\afxwin2.inl
; File D:\git\src\IBK\IBK_DRFN\ProjSrc\SrcDrfn\Chart\MULTICHART\ExtInputBarDlg.cpp
; File C:\Program Files (x86)\Microsoft Visual Studio\2019\Community\VC\Tools\MSVC\14.29.30133\atlmfc\include\afxwin2.inl
; File D:\git\src\IBK\IBK_DRFN\ProjSrc\SrcDrfn\Chart\MULTICHART\ExtInputBarDlg.cpp
; File C:\Program Files (x86)\Microsoft Visual Studio\2019\Community\VC\Tools\MSVC\14.29.30133\atlmfc\include\afxwin2.inl
; File D:\git\src\IBK\IBK_DRFN\ProjSrc\SrcDrfn\Chart\MULTICHART\ExtInputBarDlg.cpp
;	COMDAT ?OnChkupdateindex@CExtInputBarDlg@@IAEXXZ
_TEXT	SEGMENT
?OnChkupdateindex@CExtInputBarDlg@@IAEXXZ PROC		; CExtInputBarDlg::OnChkupdateindex, COMDAT
; _this$ = ecx

; 2429 : {

  00000	56		 push	 esi
  00001	8b f1		 mov	 esi, ecx
; File C:\Program Files (x86)\Microsoft Visual Studio\2019\Community\VC\Tools\MSVC\14.29.30133\atlmfc\include\afxwin2.inl

; 213  : 	{ ASSERT(::IsWindow(m_hWnd)); return CWnd::FromHandle(::GetParent(m_hWnd)); }

  00003	ff 76 20	 push	 DWORD PTR [esi+32]
  00006	ff 15 00 00 00
	00		 call	 DWORD PTR __imp__GetParent@4
  0000c	50		 push	 eax
  0000d	e8 00 00 00 00	 call	 ?FromHandle@CWnd@@SGPAV1@PAUHWND__@@@Z ; CWnd::FromHandle

; 32   : 	{ ASSERT(::IsWindow(m_hWnd)); return ::SendMessage(m_hWnd, message, wParam, lParam); }

  00012	6a 00		 push	 0
  00014	6a 00		 push	 0
  00016	68 44 04 00 00	 push	 1092			; 00000444H
  0001b	ff 70 20	 push	 DWORD PTR [eax+32]
  0001e	ff 15 00 00 00
	00		 call	 DWORD PTR __imp__SendMessageA@16
; File D:\git\src\IBK\IBK_DRFN\ProjSrc\SrcDrfn\Chart\MULTICHART\ExtInputBarDlg.cpp

; 2433 : 	if(m_pChartMng->GetSafeHwnd()) // 2005. 04. 22 by Nam

  00024	8b 86 00 33 00
	00		 mov	 eax, DWORD PTR [esi+13056]
  0002a	5e		 pop	 esi
; File C:\Program Files (x86)\Microsoft Visual Studio\2019\Community\VC\Tools\MSVC\14.29.30133\atlmfc\include\afxwin2.inl

; 25   : 	{ return this == NULL ? NULL : m_hWnd; }

  0002b	85 c0		 test	 eax, eax
  0002d	74 17		 je	 SHORT $LN2@OnChkupdat
  0002f	8b 40 20	 mov	 eax, DWORD PTR [eax+32]
; File D:\git\src\IBK\IBK_DRFN\ProjSrc\SrcDrfn\Chart\MULTICHART\ExtInputBarDlg.cpp

; 2433 : 	if(m_pChartMng->GetSafeHwnd()) // 2005. 04. 22 by Nam

  00032	85 c0		 test	 eax, eax
  00034	74 10		 je	 SHORT $LN2@OnChkupdat
; File C:\Program Files (x86)\Microsoft Visual Studio\2019\Community\VC\Tools\MSVC\14.29.30133\atlmfc\include\afxwin2.inl

; 32   : 	{ ASSERT(::IsWindow(m_hWnd)); return ::SendMessage(m_hWnd, message, wParam, lParam); }

  00036	6a 00		 push	 0
  00038	6a 00		 push	 0
  0003a	68 1c 04 00 00	 push	 1052			; 0000041cH
  0003f	50		 push	 eax
  00040	ff 15 00 00 00
	00		 call	 DWORD PTR __imp__SendMessageA@16
$LN2@OnChkupdat:
; File D:\git\src\IBK\IBK_DRFN\ProjSrc\SrcDrfn\Chart\MULTICHART\ExtInputBarDlg.cpp

; 2440 : }

  00046	c3		 ret	 0
?OnChkupdateindex@CExtInputBarDlg@@IAEXXZ ENDP		; CExtInputBarDlg::OnChkupdateindex
_TEXT	ENDS
; Function compile flags: /Ogtp
; File D:\git\src\IBK\IBK_DRFN\ProjSrc\SrcDrfn\Chart\MULTICHART\ExtInputBarDlg.cpp
; File C:\Program Files (x86)\Microsoft Visual Studio\2019\Community\VC\Tools\MSVC\14.29.30133\atlmfc\include\afxwin2.inl
; File D:\git\src\IBK\IBK_DRFN\ProjSrc\SrcDrfn\Chart\MULTICHART\ExtInputBarDlg.cpp
; File C:\Program Files (x86)\Microsoft Visual Studio\2019\Community\VC\Tools\MSVC\14.29.30133\atlmfc\include\afxwin2.inl
; File D:\git\src\IBK\IBK_DRFN\ProjSrc\SrcDrfn\Chart\MULTICHART\ExtInputBarDlg.cpp
;	COMDAT ?OnChkEndsave@CExtInputBarDlg@@IAEXXZ
_TEXT	SEGMENT
?OnChkEndsave@CExtInputBarDlg@@IAEXXZ PROC		; CExtInputBarDlg::OnChkEndsave, COMDAT
; _this$ = ecx

; 2420 : {

  00000	56		 push	 esi
; File C:\Program Files (x86)\Microsoft Visual Studio\2019\Community\VC\Tools\MSVC\14.29.30133\atlmfc\include\afxwin2.inl

; 628  : 	{ ASSERT(::IsWindow(m_hWnd)); return (int)::SendMessage(m_hWnd, BM_GETCHECK, 0, 0); }

  00001	6a 00		 push	 0
; File D:\git\src\IBK\IBK_DRFN\ProjSrc\SrcDrfn\Chart\MULTICHART\ExtInputBarDlg.cpp

; 2420 : {

  00003	8b f1		 mov	 esi, ecx
; File C:\Program Files (x86)\Microsoft Visual Studio\2019\Community\VC\Tools\MSVC\14.29.30133\atlmfc\include\afxwin2.inl

; 628  : 	{ ASSERT(::IsWindow(m_hWnd)); return (int)::SendMessage(m_hWnd, BM_GETCHECK, 0, 0); }

  00005	6a 00		 push	 0
  00007	68 f0 00 00 00	 push	 240			; 000000f0H
  0000c	ff b6 48 0f 00
	00		 push	 DWORD PTR [esi+3912]
  00012	ff 15 00 00 00
	00		 call	 DWORD PTR __imp__SendMessageA@16
; File D:\git\src\IBK\IBK_DRFN\ProjSrc\SrcDrfn\Chart\MULTICHART\ExtInputBarDlg.cpp

; 2422 : 	if( m_chkEndSave.GetCheck() )

  00018	f7 d8		 neg	 eax
  0001a	1b c0		 sbb	 eax, eax
  0001c	83 c0 02	 add	 eax, 2

; 2423 : 		m_nSave = SAVE_TRUE	;
; 2424 : 	else
; 2425 : 		m_nSave = SAVE_FALSE;
; 2426 : }

  0001f	89 86 08 33 00
	00		 mov	 DWORD PTR [esi+13064], eax
  00025	5e		 pop	 esi
  00026	c3		 ret	 0
?OnChkEndsave@CExtInputBarDlg@@IAEXXZ ENDP		; CExtInputBarDlg::OnChkEndsave
_TEXT	ENDS
; Function compile flags: /Ogtp
; File D:\git\src\IBK\IBK_DRFN\ProjSrc\SrcDrfn\Chart\MULTICHART\ExtInputBarDlg.cpp
; File C:\Program Files (x86)\Microsoft Visual Studio\2019\Community\VC\Tools\MSVC\14.29.30133\atlmfc\include\afxwin2.inl
; File D:\git\src\IBK\IBK_DRFN\ProjSrc\SrcDrfn\Chart\MULTICHART\ExtInputBarDlg.cpp
; File C:\Program Files (x86)\Microsoft Visual Studio\2019\Community\VC\Tools\MSVC\14.29.30133\atlmfc\include\afxwin2.inl
; File D:\git\src\IBK\IBK_DRFN\ProjSrc\SrcDrfn\Chart\MULTICHART\ExtInputBarDlg.cpp
; File C:\Program Files (x86)\Microsoft Visual Studio\2019\Community\VC\Tools\MSVC\14.29.30133\atlmfc\include\afxwin2.inl
; File D:\git\src\IBK\IBK_DRFN\ProjSrc\SrcDrfn\Chart\MULTICHART\ExtInputBarDlg.cpp
; File C:\Program Files (x86)\Microsoft Visual Studio\2019\Community\VC\Tools\MSVC\14.29.30133\atlmfc\include\afxwin2.inl
; File D:\git\src\IBK\IBK_DRFN\ProjSrc\SrcDrfn\Chart\MULTICHART\ExtInputBarDlg.cpp
;	COMDAT ?OnBtfixperiod@CExtInputBarDlg@@IAEXXZ
_TEXT	SEGMENT
_tm$ = -20						; size = 16
__$ArrayPad$ = -4					; size = 4
?OnBtfixperiod@CExtInputBarDlg@@IAEXXZ PROC		; CExtInputBarDlg::OnBtfixperiod, COMDAT
; _this$ = ecx

; 2361 : {

  00000	55		 push	 ebp
  00001	8b ec		 mov	 ebp, esp
  00003	83 ec 14	 sub	 esp, 20			; 00000014H
  00006	a1 00 00 00 00	 mov	 eax, DWORD PTR ___security_cookie
  0000b	33 c5		 xor	 eax, ebp
  0000d	89 45 fc	 mov	 DWORD PTR __$ArrayPad$[ebp], eax
  00010	56		 push	 esi
  00011	8b f1		 mov	 esi, ecx
  00013	57		 push	 edi
; File C:\Program Files (x86)\Microsoft Visual Studio\2019\Community\VC\Tools\MSVC\14.29.30133\atlmfc\include\afxwin2.inl

; 213  : 	{ ASSERT(::IsWindow(m_hWnd)); return CWnd::FromHandle(::GetParent(m_hWnd)); }

  00014	ff 76 20	 push	 DWORD PTR [esi+32]
  00017	ff 15 00 00 00
	00		 call	 DWORD PTR __imp__GetParent@4
  0001d	50		 push	 eax
  0001e	e8 00 00 00 00	 call	 ?FromHandle@CWnd@@SGPAV1@PAUHWND__@@@Z ; CWnd::FromHandle

; 32   : 	{ ASSERT(::IsWindow(m_hWnd)); return ::SendMessage(m_hWnd, message, wParam, lParam); }

  00023	6a 00		 push	 0
  00025	6a 00		 push	 0
  00027	68 44 04 00 00	 push	 1092			; 00000444H
  0002c	ff 70 20	 push	 DWORD PTR [eax+32]
  0002f	ff 15 00 00 00
	00		 call	 DWORD PTR __imp__SendMessageA@16
; File D:\git\src\IBK\IBK_DRFN\ProjSrc\SrcDrfn\Chart\MULTICHART\ExtInputBarDlg.cpp

; 2381 : 		int lEndDate = atoi(m_strEndDate);

  00035	ff b6 cc 00 00
	00		 push	 DWORD PTR [esi+204]
  0003b	ff 15 00 00 00
	00		 call	 DWORD PTR __imp__atoi

; 2382 : 
; 2383 : 		SYSTEMTIME tm;
; 2384 : 		::ZeroMemory(&tm,sizeof(tm));
; 2385 : 		if(m_chType==DAY_DATA_CHART||m_chType==WEEK_DATA_CHART)

  00041	8a 8e dc 00 00
	00		 mov	 cl, BYTE PTR [esi+220]
  00047	83 c4 04	 add	 esp, 4
  0004a	0f 57 c0	 xorps	 xmm0, xmm0
  0004d	8b f8		 mov	 edi, eax
  0004f	0f 11 45 ec	 movups	 XMMWORD PTR _tm$[ebp], xmm0
  00053	80 f9 32	 cmp	 cl, 50			; 00000032H
  00056	74 70		 je	 SHORT $LN4@OnBtfixper
  00058	80 f9 33	 cmp	 cl, 51			; 00000033H
  0005b	74 6b		 je	 SHORT $LN4@OnBtfixper

; 2390 : 		}
; 2391 : 		else if(m_chType==MONTH_DATA_CHART)

  0005d	80 f9 34	 cmp	 cl, 52			; 00000034H
  00060	75 3d		 jne	 SHORT $LN5@OnBtfixper

; 2392 : 		{
; 2393 : 			tm.wYear = lEndDate/10000;

  00062	b8 ad 8b db 68	 mov	 eax, 1759218605		; 68db8badH
  00067	f7 ef		 imul	 edi
  00069	c1 fa 0c	 sar	 edx, 12			; 0000000cH
  0006c	8b c2		 mov	 eax, edx
  0006e	c1 e8 1f	 shr	 eax, 31			; 0000001fH
  00071	03 c2		 add	 eax, edx
  00073	66 89 45 ec	 mov	 WORD PTR _tm$[ebp], ax

; 2394 : 			tm.wMonth = lEndDate%10000/100;

  00077	69 c0 10 27 00
	00		 imul	 eax, eax, 10000
  0007d	2b f8		 sub	 edi, eax
  0007f	b8 1f 85 eb 51	 mov	 eax, 1374389535		; 51eb851fH
  00084	f7 ef		 imul	 edi
  00086	c1 fa 05	 sar	 edx, 5
  00089	8b c2		 mov	 eax, edx
  0008b	c1 e8 1f	 shr	 eax, 31			; 0000001fH
  0008e	03 c2		 add	 eax, edx
  00090	66 89 45 ee	 mov	 WORD PTR _tm$[ebp+2], ax

; 2395 : 			tm.wDay = 1;

  00094	b8 01 00 00 00	 mov	 eax, 1
  00099	66 89 45 f2	 mov	 WORD PTR _tm$[ebp+6], ax

; 2396 : 		}

  0009d	eb 77		 jmp	 SHORT $LN7@OnBtfixper
$LN5@OnBtfixper:

; 2397 : 		else if(m_chType==YEAR_DATA_CHART)

  0009f	80 f9 35	 cmp	 cl, 53			; 00000035H
  000a2	75 72		 jne	 SHORT $LN7@OnBtfixper

; 2398 : 		{
; 2399 : 			tm.wYear = lEndDate/10000;

  000a4	b8 ad 8b db 68	 mov	 eax, 1759218605		; 68db8badH
  000a9	f7 ef		 imul	 edi
  000ab	c1 fa 0c	 sar	 edx, 12			; 0000000cH
  000ae	8b c2		 mov	 eax, edx
  000b0	c1 e8 1f	 shr	 eax, 31			; 0000001fH
  000b3	03 c2		 add	 eax, edx
  000b5	66 89 45 ec	 mov	 WORD PTR _tm$[ebp], ax

; 2400 : 			tm.wMonth = 1;

  000b9	b8 01 00 00 00	 mov	 eax, 1
  000be	66 89 45 ee	 mov	 WORD PTR _tm$[ebp+2], ax

; 2401 : 			tm.wDay = 1;

  000c2	66 89 45 f2	 mov	 WORD PTR _tm$[ebp+6], ax
  000c6	eb 4e		 jmp	 SHORT $LN7@OnBtfixper
$LN4@OnBtfixper:

; 2386 : 		{
; 2387 : 			tm.wYear = lEndDate/10000;

  000c8	b8 ad 8b db 68	 mov	 eax, 1759218605		; 68db8badH

; 2388 : 			tm.wMonth = lEndDate%10000/100;

  000cd	8b cf		 mov	 ecx, edi
  000cf	f7 ef		 imul	 edi
  000d1	c1 fa 0c	 sar	 edx, 12			; 0000000cH
  000d4	8b c2		 mov	 eax, edx
  000d6	c1 e8 1f	 shr	 eax, 31			; 0000001fH
  000d9	03 c2		 add	 eax, edx
  000db	66 89 45 ec	 mov	 WORD PTR _tm$[ebp], ax
  000df	69 c0 10 27 00
	00		 imul	 eax, eax, 10000
  000e5	2b c8		 sub	 ecx, eax
  000e7	b8 1f 85 eb 51	 mov	 eax, 1374389535		; 51eb851fH
  000ec	f7 e9		 imul	 ecx

; 2389 : 			tm.wDay = lEndDate%100;

  000ee	b8 1f 85 eb 51	 mov	 eax, 1374389535		; 51eb851fH
  000f3	c1 fa 05	 sar	 edx, 5
  000f6	8b ca		 mov	 ecx, edx
  000f8	c1 e9 1f	 shr	 ecx, 31			; 0000001fH
  000fb	03 ca		 add	 ecx, edx
  000fd	f7 ef		 imul	 edi
  000ff	66 89 4d ee	 mov	 WORD PTR _tm$[ebp+2], cx
  00103	c1 fa 05	 sar	 edx, 5
  00106	8b c2		 mov	 eax, edx
  00108	c1 e8 1f	 shr	 eax, 31			; 0000001fH
  0010b	03 c2		 add	 eax, edx
  0010d	6b c0 64	 imul	 eax, eax, 100
  00110	2b f8		 sub	 edi, eax
  00112	66 89 7d f2	 mov	 WORD PTR _tm$[ebp+6], di
$LN7@OnBtfixper:

; 2402 : 		}
; 2403 : 
; 2404 : 		if(m_bEndDate) //        .

  00116	83 be c4 00 00
	00 00		 cmp	 DWORD PTR [esi+196], 0
  0011d	74 0f		 je	 SHORT $LN8@OnBtfixper

; 2405 : 		{
; 2406 : 			//m_datePicker.SetTime(&tm);
; 2407 : //@
; 2408 : //			m_datePicker.SetDataText(m_strEndDate);
; 2409 : //@
; 2410 : //@
; 2411 : 			m_datePicker.SetTime(&tm);

  0011f	8d 45 ec	 lea	 eax, DWORD PTR _tm$[ebp]
  00122	50		 push	 eax
  00123	8d 8e e0 00 00
	00		 lea	 ecx, DWORD PTR [esi+224]
  00129	e8 00 00 00 00	 call	 ?SetTime@CDateTimeCtrl@@QAEHPAU_SYSTEMTIME@@@Z ; CDateTimeCtrl::SetTime
$LN8@OnBtfixper:
; File C:\Program Files (x86)\Microsoft Visual Studio\2019\Community\VC\Tools\MSVC\14.29.30133\atlmfc\include\afxwin2.inl

; 32   : 	{ ASSERT(::IsWindow(m_hWnd)); return ::SendMessage(m_hWnd, message, wParam, lParam); }

  0012e	ff b6 cc 00 00
	00		 push	 DWORD PTR [esi+204]
  00134	8b 86 00 33 00
	00		 mov	 eax, DWORD PTR [esi+13056]
  0013a	6a 00		 push	 0
  0013c	68 18 04 00 00	 push	 1048			; 00000418H
  00141	ff 70 20	 push	 DWORD PTR [eax+32]
  00144	ff 15 00 00 00
	00		 call	 DWORD PTR __imp__SendMessageA@16
; File D:\git\src\IBK\IBK_DRFN\ProjSrc\SrcDrfn\Chart\MULTICHART\ExtInputBarDlg.cpp

; 2417 : }

  0014a	8b 4d fc	 mov	 ecx, DWORD PTR __$ArrayPad$[ebp]
; File C:\Program Files (x86)\Microsoft Visual Studio\2019\Community\VC\Tools\MSVC\14.29.30133\atlmfc\include\afxwin2.inl

; 32   : 	{ ASSERT(::IsWindow(m_hWnd)); return ::SendMessage(m_hWnd, message, wParam, lParam); }

  0014d	5f		 pop	 edi
; File D:\git\src\IBK\IBK_DRFN\ProjSrc\SrcDrfn\Chart\MULTICHART\ExtInputBarDlg.cpp

; 2417 : }

  0014e	33 cd		 xor	 ecx, ebp
; File C:\Program Files (x86)\Microsoft Visual Studio\2019\Community\VC\Tools\MSVC\14.29.30133\atlmfc\include\afxwin2.inl

; 32   : 	{ ASSERT(::IsWindow(m_hWnd)); return ::SendMessage(m_hWnd, message, wParam, lParam); }

  00150	5e		 pop	 esi
; File D:\git\src\IBK\IBK_DRFN\ProjSrc\SrcDrfn\Chart\MULTICHART\ExtInputBarDlg.cpp

; 2417 : }

  00151	e8 00 00 00 00	 call	 @__security_check_cookie@4
  00156	8b e5		 mov	 esp, ebp
  00158	5d		 pop	 ebp
  00159	c3		 ret	 0
?OnBtfixperiod@CExtInputBarDlg@@IAEXXZ ENDP		; CExtInputBarDlg::OnBtfixperiod
_TEXT	ENDS
; Function compile flags: /Ogtp
; File D:\git\src\IBK\IBK_DRFN\ProjSrc\SrcDrfn\Chart\MULTICHART\ExtInputBarDlg.cpp
;	COMDAT ?OnBtnBuyscr@CExtInputBarDlg@@IAEXXZ
_TEXT	SEGMENT
?OnBtnBuyscr@CExtInputBarDlg@@IAEXXZ PROC		; CExtInputBarDlg::OnBtnBuyscr, COMDAT
; _this$ = ecx

; 2321 : 	//OpenMap(BUY_SCR_NO);
; 2322 : 	//  
; 2323 : }

  00000	c2 00 00	 ret	 0
?OnBtnBuyscr@CExtInputBarDlg@@IAEXXZ ENDP		; CExtInputBarDlg::OnBtnBuyscr
_TEXT	ENDS
; Function compile flags: /Ogtp
; File D:\git\src\IBK\IBK_DRFN\ProjSrc\SrcDrfn\Chart\MULTICHART\ExtInputBarDlg.cpp
;	COMDAT ?OnBtnSellscr@CExtInputBarDlg@@IAEXXZ
_TEXT	SEGMENT
?OnBtnSellscr@CExtInputBarDlg@@IAEXXZ PROC		; CExtInputBarDlg::OnBtnSellscr, COMDAT
; _this$ = ecx

; 2314 : 	
; 2315 : 	//OpenMap(SELL_SCR_NO);
; 2316 : 	//  
; 2317 : }

  00000	c2 00 00	 ret	 0
?OnBtnSellscr@CExtInputBarDlg@@IAEXXZ ENDP		; CExtInputBarDlg::OnBtnSellscr
_TEXT	ENDS
; Function compile flags: /Ogtp
; File D:\git\src\IBK\IBK_DRFN\ProjSrc\SrcDrfn\Chart\MULTICHART\ExtInputBarDlg.cpp
; File C:\Program Files (x86)\Microsoft Visual Studio\2019\Community\VC\Tools\MSVC\14.29.30133\atlmfc\include\atltime.h
; File D:\git\src\IBK\IBK_DRFN\ProjSrc\SrcDrfn\Chart\MULTICHART\ExtInputBarDlg.cpp
; File C:\Program Files (x86)\Microsoft Visual Studio\2019\Community\VC\Tools\MSVC\14.29.30133\atlmfc\include\afxwin2.inl
; File C:\Program Files (x86)\Microsoft Visual Studio\2019\Community\VC\Tools\MSVC\14.29.30133\atlmfc\include\atlsimpstr.h
; File C:\Program Files (x86)\Microsoft Visual Studio\2019\Community\VC\Tools\MSVC\14.29.30133\atlmfc\include\afxwin2.inl
; File D:\git\src\IBK\IBK_DRFN\ProjSrc\SrcDrfn\Chart\MULTICHART\ExtInputBarDlg.cpp
; File C:\Program Files (x86)\Microsoft Visual Studio\2019\Community\VC\Tools\MSVC\14.29.30133\atlmfc\include\afxwin2.inl
; File D:\git\src\IBK\IBK_DRFN\ProjSrc\SrcDrfn\Chart\MULTICHART\ExtInputBarDlg.cpp
; File C:\Program Files (x86)\Microsoft Visual Studio\2019\Community\VC\Tools\MSVC\14.29.30133\atlmfc\include\afxwin2.inl
; File D:\git\src\IBK\IBK_DRFN\ProjSrc\SrcDrfn\Chart\MULTICHART\ExtInputBarDlg.cpp
;	COMDAT ?OnCloseupDatetimepicker1@CExtInputBarDlg@@IAEXPAUtagNMHDR@@PAJ@Z
_TEXT	SEGMENT
_timeTime$ = -28					; size = 8
$T2 = -20						; size = 4
$T3 = -16						; size = 4
__$EHRec$ = -12						; size = 12
_pNMHDR$ = 8						; size = 4
_pResult$ = 12						; size = 4
?OnCloseupDatetimepicker1@CExtInputBarDlg@@IAEXPAUtagNMHDR@@PAJ@Z PROC ; CExtInputBarDlg::OnCloseupDatetimepicker1, COMDAT
; _this$ = ecx

; 2264 : {

  00000	55		 push	 ebp
  00001	8b ec		 mov	 ebp, esp
  00003	6a ff		 push	 -1
  00005	68 00 00 00 00	 push	 __ehhandler$?OnCloseupDatetimepicker1@CExtInputBarDlg@@IAEXPAUtagNMHDR@@PAJ@Z
  0000a	64 a1 00 00 00
	00		 mov	 eax, DWORD PTR fs:0
  00010	50		 push	 eax
  00011	83 ec 10	 sub	 esp, 16			; 00000010H
  00014	56		 push	 esi
  00015	57		 push	 edi
  00016	a1 00 00 00 00	 mov	 eax, DWORD PTR ___security_cookie
  0001b	33 c5		 xor	 eax, ebp
  0001d	50		 push	 eax
  0001e	8d 45 f4	 lea	 eax, DWORD PTR __$EHRec$[ebp]
  00021	64 a3 00 00 00
	00		 mov	 DWORD PTR fs:0, eax
  00027	8b f9		 mov	 edi, ecx

; 2271 : 	DWORD dwResult = m_datePicker.GetTime(timeTime);

  00029	8d 45 e4	 lea	 eax, DWORD PTR _timeTime$[ebp]
  0002c	0f 57 c0	 xorps	 xmm0, xmm0
  0002f	50		 push	 eax
  00030	8d 8f e0 00 00
	00		 lea	 ecx, DWORD PTR [edi+224]
; File C:\Program Files (x86)\Microsoft Visual Studio\2019\Community\VC\Tools\MSVC\14.29.30133\atlmfc\include\atltime.h

; 412  : 	m_time(0)

  00036	66 0f 13 45 e4	 movlpd	 QWORD PTR _timeTime$[ebp], xmm0
; File D:\git\src\IBK\IBK_DRFN\ProjSrc\SrcDrfn\Chart\MULTICHART\ExtInputBarDlg.cpp

; 2271 : 	DWORD dwResult = m_datePicker.GetTime(timeTime);

  0003b	e8 00 00 00 00	 call	 ?GetTime@CDateTimeCtrl@@QBEKAAVCTime@ATL@@@Z ; CDateTimeCtrl::GetTime

; 2272 : 	if (dwResult == GDT_VALID)

  00040	85 c0		 test	 eax, eax
  00042	75 5f		 jne	 SHORT $LN6@OnCloseupD

; 2273 : //		strDate = timeTime.Format(_T("%Y%m%d"));
; 2274 : //@
; 2275 : 	if(m_bEndDate)

  00044	8d 4d e4	 lea	 ecx, DWORD PTR _timeTime$[ebp]
  00047	68 00 00 00 00	 push	 OFFSET ??_C@_06CLONMKIH@?$CFY?$CFm?$CFd@
  0004c	39 87 c4 00 00
	00		 cmp	 DWORD PTR [edi+196], eax
  00052	74 22		 je	 SHORT $LN3@OnCloseupD

; 2276 : 	{
; 2277 : //		m_strEndDate = strDate;
; 2278 : 		if (dwResult == GDT_VALID)
; 2279 : 			m_strEndDate = timeTime.Format(_T("%Y%m%d"));

  00054	8d 45 f0	 lea	 eax, DWORD PTR $T3[ebp]
  00057	50		 push	 eax
  00058	e8 00 00 00 00	 call	 ?Format@CTime@ATL@@QBE?AV?$CStringT@DV?$StrTraitMFC_DLL@DV?$ChTraitsCRT@D@ATL@@@@@2@PBD@Z ; ATL::CTime::Format
  0005d	50		 push	 eax
  0005e	8d 8f cc 00 00
	00		 lea	 ecx, DWORD PTR [edi+204]
  00064	c7 45 fc 00 00
	00 00		 mov	 DWORD PTR __$EHRec$[ebp+8], 0
  0006b	ff 15 00 00 00
	00		 call	 DWORD PTR __imp_??4?$CStringT@DV?$StrTraitMFC_DLL@DV?$ChTraitsCRT@D@ATL@@@@@ATL@@QAEAAV01@ABV01@@Z
  00071	8d 4d f0	 lea	 ecx, DWORD PTR $T3[ebp]

; 2280 : 	}

  00074	eb 20		 jmp	 SHORT $LN21@OnCloseupD
$LN3@OnCloseupD:

; 2281 : 	else
; 2282 : 	{
; 2283 : //		m_strStartDate = strDate;
; 2284 : 		if (dwResult == GDT_VALID)
; 2285 : 			m_strStartDate = timeTime.Format(_T("%Y%m%d"));

  00076	8d 45 ec	 lea	 eax, DWORD PTR $T2[ebp]
  00079	50		 push	 eax
  0007a	e8 00 00 00 00	 call	 ?Format@CTime@ATL@@QBE?AV?$CStringT@DV?$StrTraitMFC_DLL@DV?$ChTraitsCRT@D@ATL@@@@@2@PBD@Z ; ATL::CTime::Format
  0007f	50		 push	 eax
  00080	8d 8f c8 00 00
	00		 lea	 ecx, DWORD PTR [edi+200]
  00086	c7 45 fc 01 00
	00 00		 mov	 DWORD PTR __$EHRec$[ebp+8], 1
  0008d	ff 15 00 00 00
	00		 call	 DWORD PTR __imp_??4?$CStringT@DV?$StrTraitMFC_DLL@DV?$ChTraitsCRT@D@ATL@@@@@ATL@@QAEAAV01@ABV01@@Z
  00093	8d 4d ec	 lea	 ecx, DWORD PTR $T2[ebp]
$LN21@OnCloseupD:

; 2286 : 	}	
; 2287 : 
; 2288 : 	if(m_bEndDate) //   TR .

  00096	c7 45 fc ff ff
	ff ff		 mov	 DWORD PTR __$EHRec$[ebp+8], -1
  0009d	ff 15 00 00 00
	00		 call	 DWORD PTR __imp_??1?$CStringT@DV?$StrTraitMFC_DLL@DV?$ChTraitsCRT@D@ATL@@@@@ATL@@QAE@XZ
$LN6@OnCloseupD:
  000a3	83 bf c4 00 00
	00 00		 cmp	 DWORD PTR [edi+196], 0
  000aa	74 32		 je	 SHORT $LN19@OnCloseupD
; File C:\Program Files (x86)\Microsoft Visual Studio\2019\Community\VC\Tools\MSVC\14.29.30133\atlmfc\include\afxwin2.inl

; 213  : 	{ ASSERT(::IsWindow(m_hWnd)); return CWnd::FromHandle(::GetParent(m_hWnd)); }

  000ac	ff 77 20	 push	 DWORD PTR [edi+32]
; File C:\Program Files (x86)\Microsoft Visual Studio\2019\Community\VC\Tools\MSVC\14.29.30133\atlmfc\include\atlsimpstr.h

; 377  : 		return( m_pszData );

  000af	8b b7 cc 00 00
	00		 mov	 esi, DWORD PTR [edi+204]
; File C:\Program Files (x86)\Microsoft Visual Studio\2019\Community\VC\Tools\MSVC\14.29.30133\atlmfc\include\afxwin2.inl

; 213  : 	{ ASSERT(::IsWindow(m_hWnd)); return CWnd::FromHandle(::GetParent(m_hWnd)); }

  000b5	ff 15 00 00 00
	00		 call	 DWORD PTR __imp__GetParent@4
  000bb	50		 push	 eax
  000bc	e8 00 00 00 00	 call	 ?FromHandle@CWnd@@SGPAV1@PAUHWND__@@@Z ; CWnd::FromHandle
; File D:\git\src\IBK\IBK_DRFN\ProjSrc\SrcDrfn\Chart\MULTICHART\ExtInputBarDlg.cpp

; 2290 : 		GetParent()->SendMessage(UMSG_EXTINPUT_CHANGEDATE, 0, atoi(m_strEndDate));

  000c1	56		 push	 esi
; File C:\Program Files (x86)\Microsoft Visual Studio\2019\Community\VC\Tools\MSVC\14.29.30133\atlmfc\include\afxwin2.inl

; 213  : 	{ ASSERT(::IsWindow(m_hWnd)); return CWnd::FromHandle(::GetParent(m_hWnd)); }

  000c2	8b f8		 mov	 edi, eax
; File D:\git\src\IBK\IBK_DRFN\ProjSrc\SrcDrfn\Chart\MULTICHART\ExtInputBarDlg.cpp

; 2290 : 		GetParent()->SendMessage(UMSG_EXTINPUT_CHANGEDATE, 0, atoi(m_strEndDate));

  000c4	ff 15 00 00 00
	00		 call	 DWORD PTR __imp__atoi
  000ca	83 c4 04	 add	 esp, 4
; File C:\Program Files (x86)\Microsoft Visual Studio\2019\Community\VC\Tools\MSVC\14.29.30133\atlmfc\include\afxwin2.inl

; 32   : 	{ ASSERT(::IsWindow(m_hWnd)); return ::SendMessage(m_hWnd, message, wParam, lParam); }

  000cd	50		 push	 eax
  000ce	6a 00		 push	 0
  000d0	68 bf 04 00 00	 push	 1215			; 000004bfH
  000d5	ff 77 20	 push	 DWORD PTR [edi+32]
  000d8	ff 15 00 00 00
	00		 call	 DWORD PTR __imp__SendMessageA@16
$LN19@OnCloseupD:
; File D:\git\src\IBK\IBK_DRFN\ProjSrc\SrcDrfn\Chart\MULTICHART\ExtInputBarDlg.cpp

; 2302 : }

  000de	8b 45 0c	 mov	 eax, DWORD PTR _pResult$[ebp]
  000e1	c7 00 00 00 00
	00		 mov	 DWORD PTR [eax], 0
  000e7	8b 4d f4	 mov	 ecx, DWORD PTR __$EHRec$[ebp]
  000ea	64 89 0d 00 00
	00 00		 mov	 DWORD PTR fs:0, ecx
  000f1	59		 pop	 ecx
  000f2	5f		 pop	 edi
  000f3	5e		 pop	 esi
  000f4	8b e5		 mov	 esp, ebp
  000f6	5d		 pop	 ebp
  000f7	c2 08 00	 ret	 8
_TEXT	ENDS
;	COMDAT text$x
text$x	SEGMENT
__unwindfunclet$?OnCloseupDatetimepicker1@CExtInputBarDlg@@IAEXPAUtagNMHDR@@PAJ@Z$0:
  00000	8d 4d f0	 lea	 ecx, DWORD PTR $T3[ebp]
  00003	ff 25 00 00 00
	00		 jmp	 DWORD PTR __imp_??1?$CStringT@DV?$StrTraitMFC_DLL@DV?$ChTraitsCRT@D@ATL@@@@@ATL@@QAE@XZ
__unwindfunclet$?OnCloseupDatetimepicker1@CExtInputBarDlg@@IAEXPAUtagNMHDR@@PAJ@Z$1:
  00009	8d 4d ec	 lea	 ecx, DWORD PTR $T2[ebp]
  0000c	ff 25 00 00 00
	00		 jmp	 DWORD PTR __imp_??1?$CStringT@DV?$StrTraitMFC_DLL@DV?$ChTraitsCRT@D@ATL@@@@@ATL@@QAE@XZ
  00012	cc		 int	 3
  00013	cc		 int	 3
  00014	cc		 int	 3
  00015	cc		 int	 3
  00016	cc		 int	 3
__ehhandler$?OnCloseupDatetimepicker1@CExtInputBarDlg@@IAEXPAUtagNMHDR@@PAJ@Z:
  00017	90		 npad	 1
  00018	90		 npad	 1
  00019	8b 54 24 08	 mov	 edx, DWORD PTR [esp+8]
  0001d	8d 42 0c	 lea	 eax, DWORD PTR [edx+12]
  00020	8b 4a e4	 mov	 ecx, DWORD PTR [edx-28]
  00023	33 c8		 xor	 ecx, eax
  00025	e8 00 00 00 00	 call	 @__security_check_cookie@4
  0002a	b8 00 00 00 00	 mov	 eax, OFFSET __ehfuncinfo$?OnCloseupDatetimepicker1@CExtInputBarDlg@@IAEXPAUtagNMHDR@@PAJ@Z
  0002f	e9 00 00 00 00	 jmp	 ___CxxFrameHandler3
text$x	ENDS
?OnCloseupDatetimepicker1@CExtInputBarDlg@@IAEXPAUtagNMHDR@@PAJ@Z ENDP ; CExtInputBarDlg::OnCloseupDatetimepicker1
; Function compile flags: /Ogtp
; File D:\git\src\IBK\IBK_DRFN\ProjSrc\SrcDrfn\Chart\MULTICHART\ExtInputBarDlg.cpp
; File C:\Program Files (x86)\Microsoft Visual Studio\2019\Community\VC\Tools\MSVC\14.29.30133\atlmfc\include\atltime.h
; File D:\git\src\IBK\IBK_DRFN\ProjSrc\SrcDrfn\Chart\MULTICHART\ExtInputBarDlg.cpp
; File C:\Program Files (x86)\Microsoft Visual Studio\2019\Community\VC\Tools\MSVC\14.29.30133\atlmfc\include\afxwin2.inl
; File C:\Program Files (x86)\Microsoft Visual Studio\2019\Community\VC\Tools\MSVC\14.29.30133\atlmfc\include\atlsimpstr.h
; File C:\Program Files (x86)\Microsoft Visual Studio\2019\Community\VC\Tools\MSVC\14.29.30133\atlmfc\include\afxwin2.inl
; File D:\git\src\IBK\IBK_DRFN\ProjSrc\SrcDrfn\Chart\MULTICHART\ExtInputBarDlg.cpp
; File C:\Program Files (x86)\Microsoft Visual Studio\2019\Community\VC\Tools\MSVC\14.29.30133\atlmfc\include\afxwin2.inl
; File D:\git\src\IBK\IBK_DRFN\ProjSrc\SrcDrfn\Chart\MULTICHART\ExtInputBarDlg.cpp
; File C:\Program Files (x86)\Microsoft Visual Studio\2019\Community\VC\Tools\MSVC\14.29.30133\atlmfc\include\afxwin2.inl
; File D:\git\src\IBK\IBK_DRFN\ProjSrc\SrcDrfn\Chart\MULTICHART\ExtInputBarDlg.cpp
;	COMDAT ?OnDatetimechangeDatetimepicker1@CExtInputBarDlg@@IAEXXZ
_TEXT	SEGMENT
_timeTime$ = -28					; size = 8
$T2 = -20						; size = 4
$T3 = -16						; size = 4
__$EHRec$ = -12						; size = 12
?OnDatetimechangeDatetimepicker1@CExtInputBarDlg@@IAEXXZ PROC ; CExtInputBarDlg::OnDatetimechangeDatetimepicker1, COMDAT
; _this$ = ecx

; 2232 : {	

  00000	55		 push	 ebp
  00001	8b ec		 mov	 ebp, esp
  00003	6a ff		 push	 -1
  00005	68 00 00 00 00	 push	 __ehhandler$?OnDatetimechangeDatetimepicker1@CExtInputBarDlg@@IAEXXZ
  0000a	64 a1 00 00 00
	00		 mov	 eax, DWORD PTR fs:0
  00010	50		 push	 eax
  00011	83 ec 10	 sub	 esp, 16			; 00000010H
  00014	56		 push	 esi
  00015	57		 push	 edi
  00016	a1 00 00 00 00	 mov	 eax, DWORD PTR ___security_cookie
  0001b	33 c5		 xor	 eax, ebp
  0001d	50		 push	 eax
  0001e	8d 45 f4	 lea	 eax, DWORD PTR __$EHRec$[ebp]
  00021	64 a3 00 00 00
	00		 mov	 DWORD PTR fs:0, eax
  00027	8b f9		 mov	 edi, ecx

; 2239 : 	DWORD dwResult = m_datePicker.GetTime(timeTime);

  00029	8d 45 e4	 lea	 eax, DWORD PTR _timeTime$[ebp]
  0002c	0f 57 c0	 xorps	 xmm0, xmm0
  0002f	50		 push	 eax
  00030	8d 8f e0 00 00
	00		 lea	 ecx, DWORD PTR [edi+224]
; File C:\Program Files (x86)\Microsoft Visual Studio\2019\Community\VC\Tools\MSVC\14.29.30133\atlmfc\include\atltime.h

; 412  : 	m_time(0)

  00036	66 0f 13 45 e4	 movlpd	 QWORD PTR _timeTime$[ebp], xmm0
; File D:\git\src\IBK\IBK_DRFN\ProjSrc\SrcDrfn\Chart\MULTICHART\ExtInputBarDlg.cpp

; 2239 : 	DWORD dwResult = m_datePicker.GetTime(timeTime);

  0003b	e8 00 00 00 00	 call	 ?GetTime@CDateTimeCtrl@@QBEKAAVCTime@ATL@@@Z ; CDateTimeCtrl::GetTime

; 2240 : 	if (dwResult == GDT_VALID)

  00040	85 c0		 test	 eax, eax
  00042	75 5f		 jne	 SHORT $LN6@OnDatetime

; 2241 : //		strDate = timeTime.Format(_T("%Y%m%d"));
; 2242 : //@
; 2243 : 	if(m_bEndDate)

  00044	8d 4d e4	 lea	 ecx, DWORD PTR _timeTime$[ebp]
  00047	68 00 00 00 00	 push	 OFFSET ??_C@_06CLONMKIH@?$CFY?$CFm?$CFd@
  0004c	39 87 c4 00 00
	00		 cmp	 DWORD PTR [edi+196], eax
  00052	74 22		 je	 SHORT $LN3@OnDatetime

; 2244 : 	{
; 2245 : //		m_strEndDate = strDate;
; 2246 : 		if (dwResult == GDT_VALID)
; 2247 : 			m_strEndDate = timeTime.Format(_T("%Y%m%d"));

  00054	8d 45 f0	 lea	 eax, DWORD PTR $T3[ebp]
  00057	50		 push	 eax
  00058	e8 00 00 00 00	 call	 ?Format@CTime@ATL@@QBE?AV?$CStringT@DV?$StrTraitMFC_DLL@DV?$ChTraitsCRT@D@ATL@@@@@2@PBD@Z ; ATL::CTime::Format
  0005d	50		 push	 eax
  0005e	8d 8f cc 00 00
	00		 lea	 ecx, DWORD PTR [edi+204]
  00064	c7 45 fc 00 00
	00 00		 mov	 DWORD PTR __$EHRec$[ebp+8], 0
  0006b	ff 15 00 00 00
	00		 call	 DWORD PTR __imp_??4?$CStringT@DV?$StrTraitMFC_DLL@DV?$ChTraitsCRT@D@ATL@@@@@ATL@@QAEAAV01@ABV01@@Z
  00071	8d 4d f0	 lea	 ecx, DWORD PTR $T3[ebp]

; 2248 : 	}

  00074	eb 20		 jmp	 SHORT $LN20@OnDatetime
$LN3@OnDatetime:

; 2249 : 	else
; 2250 : 	{
; 2251 : //		m_strStartDate = strDate;
; 2252 : 		if (dwResult == GDT_VALID)
; 2253 : 			m_strStartDate = timeTime.Format(_T("%Y%m%d"));

  00076	8d 45 ec	 lea	 eax, DWORD PTR $T2[ebp]
  00079	50		 push	 eax
  0007a	e8 00 00 00 00	 call	 ?Format@CTime@ATL@@QBE?AV?$CStringT@DV?$StrTraitMFC_DLL@DV?$ChTraitsCRT@D@ATL@@@@@2@PBD@Z ; ATL::CTime::Format
  0007f	50		 push	 eax
  00080	8d 8f c8 00 00
	00		 lea	 ecx, DWORD PTR [edi+200]
  00086	c7 45 fc 01 00
	00 00		 mov	 DWORD PTR __$EHRec$[ebp+8], 1
  0008d	ff 15 00 00 00
	00		 call	 DWORD PTR __imp_??4?$CStringT@DV?$StrTraitMFC_DLL@DV?$ChTraitsCRT@D@ATL@@@@@ATL@@QAEAAV01@ABV01@@Z
  00093	8d 4d ec	 lea	 ecx, DWORD PTR $T2[ebp]
$LN20@OnDatetime:

; 2254 : 	}	
; 2255 : 
; 2256 : 	if(m_bEndDate) //   TR .

  00096	c7 45 fc ff ff
	ff ff		 mov	 DWORD PTR __$EHRec$[ebp+8], -1
  0009d	ff 15 00 00 00
	00		 call	 DWORD PTR __imp_??1?$CStringT@DV?$StrTraitMFC_DLL@DV?$ChTraitsCRT@D@ATL@@@@@ATL@@QAE@XZ
$LN6@OnDatetime:
  000a3	83 bf c4 00 00
	00 00		 cmp	 DWORD PTR [edi+196], 0
  000aa	74 32		 je	 SHORT $LN7@OnDatetime
; File C:\Program Files (x86)\Microsoft Visual Studio\2019\Community\VC\Tools\MSVC\14.29.30133\atlmfc\include\afxwin2.inl

; 213  : 	{ ASSERT(::IsWindow(m_hWnd)); return CWnd::FromHandle(::GetParent(m_hWnd)); }

  000ac	ff 77 20	 push	 DWORD PTR [edi+32]
; File C:\Program Files (x86)\Microsoft Visual Studio\2019\Community\VC\Tools\MSVC\14.29.30133\atlmfc\include\atlsimpstr.h

; 377  : 		return( m_pszData );

  000af	8b b7 cc 00 00
	00		 mov	 esi, DWORD PTR [edi+204]
; File C:\Program Files (x86)\Microsoft Visual Studio\2019\Community\VC\Tools\MSVC\14.29.30133\atlmfc\include\afxwin2.inl

; 213  : 	{ ASSERT(::IsWindow(m_hWnd)); return CWnd::FromHandle(::GetParent(m_hWnd)); }

  000b5	ff 15 00 00 00
	00		 call	 DWORD PTR __imp__GetParent@4
  000bb	50		 push	 eax
  000bc	e8 00 00 00 00	 call	 ?FromHandle@CWnd@@SGPAV1@PAUHWND__@@@Z ; CWnd::FromHandle
; File D:\git\src\IBK\IBK_DRFN\ProjSrc\SrcDrfn\Chart\MULTICHART\ExtInputBarDlg.cpp

; 2258 : 		GetParent()->SendMessage(UMSG_EXTINPUT_CHANGEDATE, 0, atoi(m_strEndDate));

  000c1	56		 push	 esi
; File C:\Program Files (x86)\Microsoft Visual Studio\2019\Community\VC\Tools\MSVC\14.29.30133\atlmfc\include\afxwin2.inl

; 213  : 	{ ASSERT(::IsWindow(m_hWnd)); return CWnd::FromHandle(::GetParent(m_hWnd)); }

  000c2	8b f8		 mov	 edi, eax
; File D:\git\src\IBK\IBK_DRFN\ProjSrc\SrcDrfn\Chart\MULTICHART\ExtInputBarDlg.cpp

; 2258 : 		GetParent()->SendMessage(UMSG_EXTINPUT_CHANGEDATE, 0, atoi(m_strEndDate));

  000c4	ff 15 00 00 00
	00		 call	 DWORD PTR __imp__atoi
  000ca	83 c4 04	 add	 esp, 4
; File C:\Program Files (x86)\Microsoft Visual Studio\2019\Community\VC\Tools\MSVC\14.29.30133\atlmfc\include\afxwin2.inl

; 32   : 	{ ASSERT(::IsWindow(m_hWnd)); return ::SendMessage(m_hWnd, message, wParam, lParam); }

  000cd	50		 push	 eax
  000ce	6a 00		 push	 0
  000d0	68 bf 04 00 00	 push	 1215			; 000004bfH
  000d5	ff 77 20	 push	 DWORD PTR [edi+32]
  000d8	ff 15 00 00 00
	00		 call	 DWORD PTR __imp__SendMessageA@16
$LN7@OnDatetime:
; File D:\git\src\IBK\IBK_DRFN\ProjSrc\SrcDrfn\Chart\MULTICHART\ExtInputBarDlg.cpp

; 2261 : }

  000de	8b 4d f4	 mov	 ecx, DWORD PTR __$EHRec$[ebp]
  000e1	64 89 0d 00 00
	00 00		 mov	 DWORD PTR fs:0, ecx
  000e8	59		 pop	 ecx
  000e9	5f		 pop	 edi
  000ea	5e		 pop	 esi
  000eb	8b e5		 mov	 esp, ebp
  000ed	5d		 pop	 ebp
  000ee	c3		 ret	 0
_TEXT	ENDS
;	COMDAT text$x
text$x	SEGMENT
__unwindfunclet$?OnDatetimechangeDatetimepicker1@CExtInputBarDlg@@IAEXXZ$0:
  00000	8d 4d f0	 lea	 ecx, DWORD PTR $T3[ebp]
  00003	ff 25 00 00 00
	00		 jmp	 DWORD PTR __imp_??1?$CStringT@DV?$StrTraitMFC_DLL@DV?$ChTraitsCRT@D@ATL@@@@@ATL@@QAE@XZ
__unwindfunclet$?OnDatetimechangeDatetimepicker1@CExtInputBarDlg@@IAEXXZ$1:
  00009	8d 4d ec	 lea	 ecx, DWORD PTR $T2[ebp]
  0000c	ff 25 00 00 00
	00		 jmp	 DWORD PTR __imp_??1?$CStringT@DV?$StrTraitMFC_DLL@DV?$ChTraitsCRT@D@ATL@@@@@ATL@@QAE@XZ
  00012	cc		 int	 3
  00013	cc		 int	 3
  00014	cc		 int	 3
  00015	cc		 int	 3
  00016	cc		 int	 3
__ehhandler$?OnDatetimechangeDatetimepicker1@CExtInputBarDlg@@IAEXXZ:
  00017	90		 npad	 1
  00018	90		 npad	 1
  00019	8b 54 24 08	 mov	 edx, DWORD PTR [esp+8]
  0001d	8d 42 0c	 lea	 eax, DWORD PTR [edx+12]
  00020	8b 4a e4	 mov	 ecx, DWORD PTR [edx-28]
  00023	33 c8		 xor	 ecx, eax
  00025	e8 00 00 00 00	 call	 @__security_check_cookie@4
  0002a	b8 00 00 00 00	 mov	 eax, OFFSET __ehfuncinfo$?OnDatetimechangeDatetimepicker1@CExtInputBarDlg@@IAEXXZ
  0002f	e9 00 00 00 00	 jmp	 ___CxxFrameHandler3
text$x	ENDS
?OnDatetimechangeDatetimepicker1@CExtInputBarDlg@@IAEXXZ ENDP ; CExtInputBarDlg::OnDatetimechangeDatetimepicker1
; Function compile flags: /Ogtp
; File D:\git\src\IBK\IBK_DRFN\ProjSrc\SrcDrfn\Chart\MULTICHART\ExtInputBarDlg.cpp
; File C:\Program Files (x86)\Microsoft Visual Studio\2019\Community\VC\Tools\MSVC\14.29.30133\atlmfc\include\afxwin2.inl
; File D:\git\src\IBK\IBK_DRFN\ProjSrc\SrcDrfn\Chart\MULTICHART\ExtInputBarDlg.cpp
; File C:\Program Files (x86)\Microsoft Visual Studio\2019\Community\VC\Tools\MSVC\14.29.30133\atlmfc\include\afxwin2.inl
; File D:\git\src\IBK\IBK_DRFN\ProjSrc\SrcDrfn\Chart\MULTICHART\ExtInputBarDlg.cpp
; File C:\Program Files (x86)\Microsoft Visual Studio\2019\Community\VC\Tools\MSVC\14.29.30133\atlmfc\include\afxwin2.inl
; File D:\git\src\IBK\IBK_DRFN\ProjSrc\SrcDrfn\Chart\MULTICHART\ExtInputBarDlg.cpp
; File C:\Program Files (x86)\Microsoft Visual Studio\2019\Community\VC\Tools\MSVC\14.29.30133\atlmfc\include\atltime.h
; File D:\git\src\IBK\IBK_DRFN\ProjSrc\SrcDrfn\Chart\MULTICHART\ExtInputBarDlg.cpp
; File C:\Program Files (x86)\Microsoft Visual Studio\2019\Community\VC\Tools\MSVC\14.29.30133\atlmfc\include\atlsimpstr.h
; File D:\git\src\IBK\IBK_DRFN\ProjSrc\SrcDrfn\Chart\MULTICHART\ExtInputBarDlg.cpp
; File C:\Program Files (x86)\Microsoft Visual Studio\2019\Community\VC\Tools\MSVC\14.29.30133\atlmfc\include\atlsimpstr.h
; File D:\git\src\IBK\IBK_DRFN\ProjSrc\SrcDrfn\Chart\MULTICHART\ExtInputBarDlg.cpp
; File C:\Program Files (x86)\Microsoft Visual Studio\2019\Community\VC\Tools\MSVC\14.29.30133\atlmfc\include\atlsimpstr.h
; File D:\git\src\IBK\IBK_DRFN\ProjSrc\SrcDrfn\Chart\MULTICHART\ExtInputBarDlg.cpp
; File C:\Program Files (x86)\Microsoft Visual Studio\2019\Community\VC\Tools\MSVC\14.29.30133\atlmfc\include\atltime.h
; File D:\git\src\IBK\IBK_DRFN\ProjSrc\SrcDrfn\Chart\MULTICHART\ExtInputBarDlg.cpp
; File C:\Program Files (x86)\Microsoft Visual Studio\2019\Community\VC\Tools\MSVC\14.29.30133\atlmfc\include\afxwin2.inl
; File D:\git\src\IBK\IBK_DRFN\ProjSrc\SrcDrfn\Chart\MULTICHART\ExtInputBarDlg.cpp
; File C:\Program Files (x86)\Microsoft Visual Studio\2019\Community\VC\Tools\MSVC\14.29.30133\atlmfc\include\atltime.h
; File D:\git\src\IBK\IBK_DRFN\ProjSrc\SrcDrfn\Chart\MULTICHART\ExtInputBarDlg.cpp
;	COMDAT ?OnBtnEdate@CExtInputBarDlg@@IAEXXZ
_TEXT	SEGMENT
_myTime$ = -408						; size = 8
_dEndDate$ = -400					; size = 8
_dStartDate$ = -392					; size = 8
_currentTime$ = -384					; size = 8
$T2 = -376						; size = 4
$T3 = -372						; size = 4
_strCurrentTime$ = -368					; size = 4
_currentTime$4 = -364					; size = 8
_this$GSCopy$1$ = -360					; size = 4
$T5 = -356						; size = 4
tv646 = -352						; size = 4
$T6 = -352						; size = 4
$T7 = -348						; size = 4
$T8 = -348						; size = 4
$T9 = -348						; size = 4
_strCurTime$10 = -348					; size = 4
$T11 = -348						; size = 4
_ptmTemp$12 = -344					; size = 36
_ptmTemp$13 = -308					; size = 36
_szBuffer$14 = -272					; size = 128
_szBuffer$15 = -144					; size = 128
__$ArrayPad$ = -16					; size = 4
__$EHRec$ = -12						; size = 12
?OnBtnEdate@CExtInputBarDlg@@IAEXXZ PROC		; CExtInputBarDlg::OnBtnEdate, COMDAT
; _this$ = ecx

; 2069 : {	

  00000	55		 push	 ebp
  00001	8b ec		 mov	 ebp, esp
  00003	6a ff		 push	 -1
  00005	68 00 00 00 00	 push	 __ehhandler$?OnBtnEdate@CExtInputBarDlg@@IAEXXZ
  0000a	64 a1 00 00 00
	00		 mov	 eax, DWORD PTR fs:0
  00010	50		 push	 eax
  00011	81 ec 8c 01 00
	00		 sub	 esp, 396		; 0000018cH
  00017	a1 00 00 00 00	 mov	 eax, DWORD PTR ___security_cookie
  0001c	33 c5		 xor	 eax, ebp
  0001e	89 45 f0	 mov	 DWORD PTR __$ArrayPad$[ebp], eax
  00021	53		 push	 ebx
  00022	56		 push	 esi
  00023	57		 push	 edi
  00024	50		 push	 eax
  00025	8d 45 f4	 lea	 eax, DWORD PTR __$EHRec$[ebp]
  00028	64 a3 00 00 00
	00		 mov	 DWORD PTR fs:0, eax
  0002e	8b f9		 mov	 edi, ecx
  00030	89 bd 98 fe ff
	ff		 mov	 DWORD PTR _this$GSCopy$1$[ebp], edi

; 2070 : 	m_bEndDate = TRUE;
; 2071 : 
; 2072 : 	// 
; 2073 : 	m_btnStartDate	.FP_vSetImage(m_pIL_W20H20, 80, 80, TRUE, "", TRUE);	

  00036	6a ff		 push	 -1
  00038	6a ff		 push	 -1
  0003a	6a 01		 push	 1
  0003c	51		 push	 ecx
  0003d	8b cc		 mov	 ecx, esp
  0003f	c7 85 9c fe ff
	ff 00 00 00 00	 mov	 DWORD PTR $T5[ebp], 0
  00049	68 00 00 00 00	 push	 OFFSET ??_C@_02MEGIOJNB@?$KC?$LK@
  0004e	c7 87 c4 00 00
	00 01 00 00 00	 mov	 DWORD PTR [edi+196], 1
  00058	ff 15 00 00 00
	00		 call	 DWORD PTR __imp_??0?$CStringT@DV?$StrTraitMFC_DLL@DV?$ChTraitsCRT@D@ATL@@@@@ATL@@QAE@PBD@Z
  0005e	6a 01		 push	 1
  00060	6a 50		 push	 80			; 00000050H
  00062	6a 50		 push	 80			; 00000050H
  00064	ff b7 b8 00 00
	00		 push	 DWORD PTR [edi+184]
  0006a	8d 8f 68 12 00
	00		 lea	 ecx, DWORD PTR [edi+4712]
  00070	e8 00 00 00 00	 call	 ?FP_vSetImage@CILButton@@QAEXPAVCImageList@@HHHV?$CStringT@DV?$StrTraitMFC_DLL@DV?$ChTraitsCRT@D@ATL@@@@@ATL@@HHH@Z ; CILButton::FP_vSetImage

; 2074 : 	m_btnEndDate	.FP_vSetImage(m_pIL_W20H20, 82, 82, TRUE, "", TRUE);

  00075	6a ff		 push	 -1
  00077	6a ff		 push	 -1
  00079	6a 01		 push	 1
  0007b	51		 push	 ecx
  0007c	8b cc		 mov	 ecx, esp
  0007e	68 00 00 00 00	 push	 OFFSET ??_C@_02PGFOILFD@?$KC?$LI@
  00083	ff 15 00 00 00
	00		 call	 DWORD PTR __imp_??0?$CStringT@DV?$StrTraitMFC_DLL@DV?$ChTraitsCRT@D@ATL@@@@@ATL@@QAE@PBD@Z
  00089	6a 01		 push	 1
  0008b	6a 52		 push	 82			; 00000052H
  0008d	6a 52		 push	 82			; 00000052H
  0008f	ff b7 b8 00 00
	00		 push	 DWORD PTR [edi+184]
  00095	8d 8f c8 13 00
	00		 lea	 ecx, DWORD PTR [edi+5064]
  0009b	e8 00 00 00 00	 call	 ?FP_vSetImage@CILButton@@QAEXPAVCImageList@@HHHV?$CStringT@DV?$StrTraitMFC_DLL@DV?$ChTraitsCRT@D@ATL@@@@@ATL@@HHH@Z ; CILButton::FP_vSetImage
; File C:\Program Files (x86)\Microsoft Visual Studio\2019\Community\VC\Tools\MSVC\14.29.30133\atlmfc\include\afxwin2.inl

; 114  : 	{ ASSERT(::IsWindow(m_hWnd)); ::InvalidateRect(m_hWnd, NULL, bErase); }

  000a0	8b 35 00 00 00
	00		 mov	 esi, DWORD PTR __imp__InvalidateRect@12
  000a6	6a 01		 push	 1
  000a8	6a 00		 push	 0
  000aa	ff b7 88 12 00
	00		 push	 DWORD PTR [edi+4744]
  000b0	ff d6		 call	 esi
  000b2	6a 01		 push	 1
  000b4	6a 00		 push	 0
  000b6	ff b7 e8 13 00
	00		 push	 DWORD PTR [edi+5096]
  000bc	ff d6		 call	 esi
; File D:\git\src\IBK\IBK_DRFN\ProjSrc\SrcDrfn\Chart\MULTICHART\ExtInputBarDlg.cpp

; 2084 : 	((CStdDialog*)GetParent())->GetStartEndDateAtStdDialog(dStartDate, dEndDate);

  000be	8d 85 70 fe ff
	ff		 lea	 eax, DWORD PTR _dEndDate$[ebp]
  000c4	0f 57 c0	 xorps	 xmm0, xmm0
  000c7	50		 push	 eax
  000c8	8d 85 78 fe ff
	ff		 lea	 eax, DWORD PTR _dStartDate$[ebp]
  000ce	f2 0f 11 85 78
	fe ff ff	 movsd	 QWORD PTR _dStartDate$[ebp], xmm0
  000d6	50		 push	 eax
; File C:\Program Files (x86)\Microsoft Visual Studio\2019\Community\VC\Tools\MSVC\14.29.30133\atlmfc\include\afxwin2.inl

; 213  : 	{ ASSERT(::IsWindow(m_hWnd)); return CWnd::FromHandle(::GetParent(m_hWnd)); }

  000d7	ff 77 20	 push	 DWORD PTR [edi+32]
; File D:\git\src\IBK\IBK_DRFN\ProjSrc\SrcDrfn\Chart\MULTICHART\ExtInputBarDlg.cpp

; 2082 : 	double dStartDate = 0, dEndDate = 0;

  000da	f2 0f 11 85 70
	fe ff ff	 movsd	 QWORD PTR _dEndDate$[ebp], xmm0
; File C:\Program Files (x86)\Microsoft Visual Studio\2019\Community\VC\Tools\MSVC\14.29.30133\atlmfc\include\afxwin2.inl

; 213  : 	{ ASSERT(::IsWindow(m_hWnd)); return CWnd::FromHandle(::GetParent(m_hWnd)); }

  000e2	ff 15 00 00 00
	00		 call	 DWORD PTR __imp__GetParent@4
  000e8	50		 push	 eax
  000e9	e8 00 00 00 00	 call	 ?FromHandle@CWnd@@SGPAV1@PAUHWND__@@@Z ; CWnd::FromHandle
; File D:\git\src\IBK\IBK_DRFN\ProjSrc\SrcDrfn\Chart\MULTICHART\ExtInputBarDlg.cpp

; 2084 : 	((CStdDialog*)GetParent())->GetStartEndDateAtStdDialog(dStartDate, dEndDate);

  000ee	8b c8		 mov	 ecx, eax
  000f0	e8 00 00 00 00	 call	 ?GetStartEndDateAtStdDialog@CStdDialog@@QAEXAAN0@Z ; CStdDialog::GetStartEndDateAtStdDialog
; File C:\Program Files (x86)\Microsoft Visual Studio\2019\Community\VC\Tools\MSVC\14.29.30133\atlmfc\include\atltime.h

; 374  : 	return( CTime( ::_time64( NULL ) ) );

  000f5	6a 00		 push	 0
  000f7	ff 15 00 00 00
	00		 call	 DWORD PTR __imp___time64

; 417  : 	m_time( time )

  000fd	89 85 80 fe ff
	ff		 mov	 DWORD PTR _currentTime$[ebp], eax

; 1066 : 	if (_localtime64_s(&ptmTemp, &m_time) != 0)

  00103	8d 85 80 fe ff
	ff		 lea	 eax, DWORD PTR _currentTime$[ebp]
  00109	50		 push	 eax
  0010a	8d 85 cc fe ff
	ff		 lea	 eax, DWORD PTR _ptmTemp$13[ebp]

; 417  : 	m_time( time )

  00110	89 95 84 fe ff
	ff		 mov	 DWORD PTR _currentTime$[ebp+4], edx

; 1066 : 	if (_localtime64_s(&ptmTemp, &m_time) != 0)

  00116	50		 push	 eax
  00117	ff 15 00 00 00
	00		 call	 DWORD PTR __imp___localtime64_s
  0011d	83 c4 0c	 add	 esp, 12			; 0000000cH
  00120	85 c0		 test	 eax, eax
  00122	0f 85 e6 03 00
	00		 jne	 $LN108@OnBtnEdate

; 1069 : 	}
; 1070 : 
; 1071 : 	if (!_tcsftime(szBuffer, maxTimeBufferSize, pFormat, &ptmTemp))

  00128	8d 85 cc fe ff
	ff		 lea	 eax, DWORD PTR _ptmTemp$13[ebp]
  0012e	50		 push	 eax
  0012f	68 00 00 00 00	 push	 OFFSET ??_C@_06CLONMKIH@?$CFY?$CFm?$CFd@
  00134	8d 85 70 ff ff
	ff		 lea	 eax, DWORD PTR _szBuffer$15[ebp]
  0013a	68 80 00 00 00	 push	 128			; 00000080H
  0013f	50		 push	 eax
  00140	ff 15 00 00 00
	00		 call	 DWORD PTR __imp__strftime
  00146	83 c4 10	 add	 esp, 16			; 00000010H

; 1072 : 	{
; 1073 : 		szBuffer[0] = '\0';
; 1074 : 	}
; 1075 : 
; 1076 : 	return szBuffer;

  00149	8d 8d 90 fe ff
	ff		 lea	 ecx, DWORD PTR _strCurrentTime$[ebp]
  0014f	f7 d8		 neg	 eax
  00151	1a c0		 sbb	 al, al
  00153	20 85 70 ff ff
	ff		 and	 BYTE PTR _szBuffer$15[ebp], al
  00159	8d 85 70 ff ff
	ff		 lea	 eax, DWORD PTR _szBuffer$15[ebp]
  0015f	50		 push	 eax
  00160	ff 15 00 00 00
	00		 call	 DWORD PTR __imp_??0?$CStringT@DV?$StrTraitMFC_DLL@DV?$ChTraitsCRT@D@ATL@@@@@ATL@@QAE@PBD@Z
  00166	bb 10 00 00 00	 mov	 ebx, 16			; 00000010H
; File D:\git\src\IBK\IBK_DRFN\ProjSrc\SrcDrfn\Chart\MULTICHART\ExtInputBarDlg.cpp

; 2088 : 	if(dStartDate)

  0016b	f2 0f 10 85 78
	fe ff ff	 movsd	 xmm0, QWORD PTR _dStartDate$[ebp]
  00173	0f 57 c9	 xorps	 xmm1, xmm1
  00176	8b 35 00 00 00
	00		 mov	 esi, DWORD PTR __imp_?Format@?$CStringT@DV?$StrTraitMFC_DLL@DV?$ChTraitsCRT@D@ATL@@@@@ATL@@QAAXPBDZZ
  0017c	66 0f 2e c1	 ucomisd xmm0, xmm1
  00180	c7 45 fc 00 00
	00 00		 mov	 DWORD PTR __$EHRec$[ebp+8], 0
  00187	9f		 lahf
  00188	f6 c4 44	 test	 ah, 68			; 00000044H
  0018b	7b 19		 jnp	 SHORT $LN2@OnBtnEdate

; 2089 : 		m_strStartDate.Format("%d", (long)dStartDate);

  0018d	f2 0f 2c c0	 cvttsd2si eax, xmm0
  00191	50		 push	 eax
  00192	8d 87 c8 00 00
	00		 lea	 eax, DWORD PTR [edi+200]
  00198	68 00 00 00 00	 push	 OFFSET ??_C@_02DPKJAMEF@?$CFd@
  0019d	50		 push	 eax
  0019e	ff d6		 call	 esi
  001a0	83 c4 0c	 add	 esp, 12			; 0000000cH
  001a3	0f 57 c9	 xorps	 xmm1, xmm1
$LN2@OnBtnEdate:

; 2090 : 	if(dEndDate)

  001a6	f2 0f 10 85 70
	fe ff ff	 movsd	 xmm0, QWORD PTR _dEndDate$[ebp]
  001ae	66 0f 2e c1	 ucomisd xmm0, xmm1
  001b2	9f		 lahf
  001b3	f6 c4 44	 test	 ah, 68			; 00000044H
  001b6	7b 16		 jnp	 SHORT $LN3@OnBtnEdate

; 2091 : 		m_strEndDate.Format("%d", (long)dEndDate);

  001b8	f2 0f 2c c0	 cvttsd2si eax, xmm0
  001bc	50		 push	 eax
  001bd	8d 87 cc 00 00
	00		 lea	 eax, DWORD PTR [edi+204]
  001c3	68 00 00 00 00	 push	 OFFSET ??_C@_02DPKJAMEF@?$CFd@
  001c8	50		 push	 eax
  001c9	ff d6		 call	 esi
  001cb	83 c4 0c	 add	 esp, 12			; 0000000cH
$LN3@OnBtnEdate:
; File C:\Program Files (x86)\Microsoft Visual Studio\2019\Community\VC\Tools\MSVC\14.29.30133\atlmfc\include\atlsimpstr.h

; 519  : 		return( GetData()->nDataLength );

  001ce	8b 8f c8 00 00
	00		 mov	 ecx, DWORD PTR [edi+200]
; File D:\git\src\IBK\IBK_DRFN\ProjSrc\SrcDrfn\Chart\MULTICHART\ExtInputBarDlg.cpp

; 2099 : 			(atoi(m_strEndDate.Mid(4,2)) <= 0)||

  001d4	8b 35 00 00 00
	00		 mov	 esi, DWORD PTR __imp__atoi
  001da	83 79 f4 08	 cmp	 DWORD PTR [ecx-12], 8
  001de	0f 85 f8 00 00
	00		 jne	 $LN10@OnBtnEdate
; File C:\Program Files (x86)\Microsoft Visual Studio\2019\Community\VC\Tools\MSVC\14.29.30133\atlmfc\include\atlsimpstr.h

; 519  : 		return( GetData()->nDataLength );

  001e4	8b 87 cc 00 00
	00		 mov	 eax, DWORD PTR [edi+204]
; File D:\git\src\IBK\IBK_DRFN\ProjSrc\SrcDrfn\Chart\MULTICHART\ExtInputBarDlg.cpp

; 2099 : 			(atoi(m_strEndDate.Mid(4,2)) <= 0)||

  001ea	83 78 f4 08	 cmp	 DWORD PTR [eax-12], 8
  001ee	0f 85 e8 00 00
	00		 jne	 $LN10@OnBtnEdate
  001f4	51		 push	 ecx
  001f5	ff d6		 call	 esi
  001f7	83 c4 04	 add	 esp, 4
  001fa	3d 85 99 2c 01	 cmp	 eax, 19700101		; 012c9985H
  001ff	0f 8e d7 00 00
	00		 jle	 $LN10@OnBtnEdate
  00205	ff b7 cc 00 00
	00		 push	 DWORD PTR [edi+204]
  0020b	ff d6		 call	 esi
  0020d	83 c4 04	 add	 esp, 4
  00210	3d 85 99 2c 01	 cmp	 eax, 19700101		; 012c9985H
  00215	0f 8e c1 00 00
	00		 jle	 $LN10@OnBtnEdate
  0021b	6a 02		 push	 2
  0021d	6a 04		 push	 4
  0021f	8d 85 a4 fe ff
	ff		 lea	 eax, DWORD PTR $T11[ebp]
  00225	50		 push	 eax
  00226	8d 8f c8 00 00
	00		 lea	 ecx, DWORD PTR [edi+200]
  0022c	ff 15 00 00 00
	00		 call	 DWORD PTR __imp_?Mid@?$CStringT@DV?$StrTraitMFC_DLL@DV?$ChTraitsCRT@D@ATL@@@@@ATL@@QBE?AV12@HH@Z
  00232	ff 30		 push	 DWORD PTR [eax]
  00234	bb 11 00 00 00	 mov	 ebx, 17			; 00000011H
  00239	c6 45 fc 01	 mov	 BYTE PTR __$EHRec$[ebp+8], 1
  0023d	89 9d 9c fe ff
	ff		 mov	 DWORD PTR $T5[ebp], ebx
  00243	ff d6		 call	 esi
  00245	83 c4 04	 add	 esp, 4
  00248	85 c0		 test	 eax, eax
  0024a	0f 8e 8c 00 00
	00		 jle	 $LN10@OnBtnEdate
  00250	6a 02		 push	 2
  00252	6a 04		 push	 4
  00254	8d 85 a0 fe ff
	ff		 lea	 eax, DWORD PTR $T6[ebp]
  0025a	50		 push	 eax
  0025b	8d 8f c8 00 00
	00		 lea	 ecx, DWORD PTR [edi+200]
  00261	ff 15 00 00 00
	00		 call	 DWORD PTR __imp_?Mid@?$CStringT@DV?$StrTraitMFC_DLL@DV?$ChTraitsCRT@D@ATL@@@@@ATL@@QBE?AV12@HH@Z
  00267	ff 30		 push	 DWORD PTR [eax]
  00269	bb 13 00 00 00	 mov	 ebx, 19			; 00000013H
  0026e	c7 45 fc 02 00
	00 00		 mov	 DWORD PTR __$EHRec$[ebp+8], 2
  00275	89 9d 9c fe ff
	ff		 mov	 DWORD PTR $T5[ebp], ebx
  0027b	ff d6		 call	 esi
  0027d	83 c4 04	 add	 esp, 4
  00280	83 f8 0c	 cmp	 eax, 12			; 0000000cH
  00283	7f 57		 jg	 SHORT $LN10@OnBtnEdate
  00285	6a 02		 push	 2
  00287	6a 04		 push	 4
  00289	8d 85 88 fe ff
	ff		 lea	 eax, DWORD PTR $T2[ebp]
  0028f	50		 push	 eax
  00290	8d 8f cc 00 00
	00		 lea	 ecx, DWORD PTR [edi+204]
  00296	ff 15 00 00 00
	00		 call	 DWORD PTR __imp_?Mid@?$CStringT@DV?$StrTraitMFC_DLL@DV?$ChTraitsCRT@D@ATL@@@@@ATL@@QBE?AV12@HH@Z
  0029c	ff 30		 push	 DWORD PTR [eax]
  0029e	bb 17 00 00 00	 mov	 ebx, 23			; 00000017H
  002a3	c7 45 fc 03 00
	00 00		 mov	 DWORD PTR __$EHRec$[ebp+8], 3
  002aa	89 9d 9c fe ff
	ff		 mov	 DWORD PTR $T5[ebp], ebx
  002b0	ff d6		 call	 esi
  002b2	83 c4 04	 add	 esp, 4
  002b5	85 c0		 test	 eax, eax
  002b7	7e 23		 jle	 SHORT $LN10@OnBtnEdate
  002b9	6a 02		 push	 2
  002bb	6a 04		 push	 4
  002bd	8d 85 8c fe ff
	ff		 lea	 eax, DWORD PTR $T3[ebp]
  002c3	50		 push	 eax
  002c4	8d 8f cc 00 00
	00		 lea	 ecx, DWORD PTR [edi+204]
  002ca	ff 15 00 00 00
	00		 call	 DWORD PTR __imp_?Mid@?$CStringT@DV?$StrTraitMFC_DLL@DV?$ChTraitsCRT@D@ATL@@@@@ATL@@QBE?AV12@HH@Z
  002d0	bb 1f 00 00 00	 mov	 ebx, 31			; 0000001fH
  002d5	ff 30		 push	 DWORD PTR [eax]
  002d7	ff d6		 call	 esi
  002d9	83 c4 04	 add	 esp, 4
$LN10@OnBtnEdate:
  002dc	f6 c3 08	 test	 bl, 8
  002df	74 0f		 je	 SHORT $LN23@OnBtnEdate
  002e1	8d 8d 8c fe ff
	ff		 lea	 ecx, DWORD PTR $T3[ebp]
  002e7	83 e3 f7	 and	 ebx, -9			; fffffff7H
  002ea	ff 15 00 00 00
	00		 call	 DWORD PTR __imp_??1?$CStringT@DV?$StrTraitMFC_DLL@DV?$ChTraitsCRT@D@ATL@@@@@ATL@@QAE@XZ
$LN23@OnBtnEdate:
  002f0	f6 c3 04	 test	 bl, 4
  002f3	74 0f		 je	 SHORT $LN24@OnBtnEdate
  002f5	8d 8d 88 fe ff
	ff		 lea	 ecx, DWORD PTR $T2[ebp]
  002fb	83 e3 fb	 and	 ebx, -5			; fffffffbH
  002fe	ff 15 00 00 00
	00		 call	 DWORD PTR __imp_??1?$CStringT@DV?$StrTraitMFC_DLL@DV?$ChTraitsCRT@D@ATL@@@@@ATL@@QAE@XZ
$LN24@OnBtnEdate:
  00304	f6 c3 02	 test	 bl, 2
  00307	74 0f		 je	 SHORT $LN25@OnBtnEdate
  00309	8d 8d a0 fe ff
	ff		 lea	 ecx, DWORD PTR $T6[ebp]
  0030f	83 e3 fd	 and	 ebx, -3			; fffffffdH
  00312	ff 15 00 00 00
	00		 call	 DWORD PTR __imp_??1?$CStringT@DV?$StrTraitMFC_DLL@DV?$ChTraitsCRT@D@ATL@@@@@ATL@@QAE@XZ
$LN25@OnBtnEdate:
  00318	c7 45 fc 00 00
	00 00		 mov	 DWORD PTR __$EHRec$[ebp+8], 0
  0031f	f6 c3 01	 test	 bl, 1
  00322	74 0c		 je	 SHORT $LN26@OnBtnEdate
  00324	8d 8d a4 fe ff
	ff		 lea	 ecx, DWORD PTR $T11[ebp]
  0032a	ff 15 00 00 00
	00		 call	 DWORD PTR __imp_??1?$CStringT@DV?$StrTraitMFC_DLL@DV?$ChTraitsCRT@D@ATL@@@@@ATL@@QAE@XZ
$LN26@OnBtnEdate:
; File C:\Program Files (x86)\Microsoft Visual Studio\2019\Community\VC\Tools\MSVC\14.29.30133\atlmfc\include\atlsimpstr.h

; 519  : 		return( GetData()->nDataLength );

  00330	8b 87 cc 00 00
	00		 mov	 eax, DWORD PTR [edi+204]

; 800  : 		return( reinterpret_cast< CStringData* >( m_pszData )-1 );

  00336	8d 9f cc 00 00
	00		 lea	 ebx, DWORD PTR [edi+204]
  0033c	89 9d a0 fe ff
	ff		 mov	 DWORD PTR tv646[ebp], ebx
; File D:\git\src\IBK\IBK_DRFN\ProjSrc\SrcDrfn\Chart\MULTICHART\ExtInputBarDlg.cpp

; 2113 : 	if(!m_strEndDate.GetLength())

  00342	83 78 f4 00	 cmp	 DWORD PTR [eax-12], 0
  00346	0f 85 98 00 00
	00		 jne	 $LN5@OnBtnEdate
; File C:\Program Files (x86)\Microsoft Visual Studio\2019\Community\VC\Tools\MSVC\14.29.30133\atlmfc\include\atltime.h

; 374  : 	return( CTime( ::_time64( NULL ) ) );

  0034c	6a 00		 push	 0
  0034e	ff 15 00 00 00
	00		 call	 DWORD PTR __imp___time64

; 417  : 	m_time( time )

  00354	89 85 94 fe ff
	ff		 mov	 DWORD PTR _currentTime$4[ebp], eax

; 1066 : 	if (_localtime64_s(&ptmTemp, &m_time) != 0)

  0035a	8d 85 94 fe ff
	ff		 lea	 eax, DWORD PTR _currentTime$4[ebp]
  00360	50		 push	 eax
  00361	8d 85 a8 fe ff
	ff		 lea	 eax, DWORD PTR _ptmTemp$12[ebp]

; 417  : 	m_time( time )

  00367	89 95 98 fe ff
	ff		 mov	 DWORD PTR _currentTime$4[ebp+4], edx

; 1066 : 	if (_localtime64_s(&ptmTemp, &m_time) != 0)

  0036d	50		 push	 eax
  0036e	ff 15 00 00 00
	00		 call	 DWORD PTR __imp___localtime64_s
  00374	83 c4 0c	 add	 esp, 12			; 0000000cH
  00377	85 c0		 test	 eax, eax
  00379	0f 85 99 01 00
	00		 jne	 $LN109@OnBtnEdate

; 1069 : 	}
; 1070 : 
; 1071 : 	if (!_tcsftime(szBuffer, maxTimeBufferSize, pFormat, &ptmTemp))

  0037f	8d 85 a8 fe ff
	ff		 lea	 eax, DWORD PTR _ptmTemp$12[ebp]
  00385	50		 push	 eax
  00386	68 00 00 00 00	 push	 OFFSET ??_C@_06CLONMKIH@?$CFY?$CFm?$CFd@
  0038b	8d 85 f0 fe ff
	ff		 lea	 eax, DWORD PTR _szBuffer$14[ebp]
  00391	68 80 00 00 00	 push	 128			; 00000080H
  00396	50		 push	 eax
  00397	ff 15 00 00 00
	00		 call	 DWORD PTR __imp__strftime
  0039d	83 c4 10	 add	 esp, 16			; 00000010H

; 1072 : 	{
; 1073 : 		szBuffer[0] = '\0';
; 1074 : 	}
; 1075 : 
; 1076 : 	return szBuffer;

  003a0	8d 8d a4 fe ff
	ff		 lea	 ecx, DWORD PTR _strCurTime$10[ebp]
  003a6	f7 d8		 neg	 eax
  003a8	1a c0		 sbb	 al, al
  003aa	20 85 f0 fe ff
	ff		 and	 BYTE PTR _szBuffer$14[ebp], al
  003b0	8d 85 f0 fe ff
	ff		 lea	 eax, DWORD PTR _szBuffer$14[ebp]
  003b6	50		 push	 eax
  003b7	ff 15 00 00 00
	00		 call	 DWORD PTR __imp_??0?$CStringT@DV?$StrTraitMFC_DLL@DV?$ChTraitsCRT@D@ATL@@@@@ATL@@QAE@PBD@Z
; File D:\git\src\IBK\IBK_DRFN\ProjSrc\SrcDrfn\Chart\MULTICHART\ExtInputBarDlg.cpp

; 2122 : 		m_datePicker.SetTime(&currentTime);

  003bd	8d 85 94 fe ff
	ff		 lea	 eax, DWORD PTR _currentTime$4[ebp]
  003c3	c6 45 fc 04	 mov	 BYTE PTR __$EHRec$[ebp+8], 4
  003c7	50		 push	 eax
  003c8	8d 8f e0 00 00
	00		 lea	 ecx, DWORD PTR [edi+224]
  003ce	e8 00 00 00 00	 call	 ?SetTime@CDateTimeCtrl@@QAEHPBVCTime@ATL@@@Z ; CDateTimeCtrl::SetTime

; 2123 : //@
; 2124 : 		return;

  003d3	8d 8d a4 fe ff
	ff		 lea	 ecx, DWORD PTR _strCurTime$10[ebp]
  003d9	ff 15 00 00 00
	00		 call	 DWORD PTR __imp_??1?$CStringT@DV?$StrTraitMFC_DLL@DV?$ChTraitsCRT@D@ATL@@@@@ATL@@QAE@XZ
  003df	e9 02 01 00 00	 jmp	 $LN8@OnBtnEdate
$LN5@OnBtnEdate:

; 2125 : 	}
; 2126 : 
; 2127 : 	m_strEndDate.TrimRight();	

  003e4	8b cb		 mov	 ecx, ebx
  003e6	ff 15 00 00 00
	00		 call	 DWORD PTR __imp_?TrimRight@?$CStringT@DV?$StrTraitMFC_DLL@DV?$ChTraitsCRT@D@ATL@@@@@ATL@@QAEAAV12@XZ

; 2128 : 
; 2129 : 	if(m_chType == TICK_DATA_CHART) return;

  003ec	8a 87 dc 00 00
	00		 mov	 al, BYTE PTR [edi+220]
  003f2	3c 30		 cmp	 al, 48			; 00000030H
  003f4	0f 84 ec 00 00
	00		 je	 $LN8@OnBtnEdate

; 2130 : 	if(m_chType == YEAR_DATA_CHART) return;

  003fa	3c 35		 cmp	 al, 53			; 00000035H
  003fc	0f 84 e4 00 00
	00		 je	 $LN8@OnBtnEdate

; 2131 : 
; 2132 : 
; 2133 : 	int nYear	= atoi(m_strEndDate.Left(4)		);

  00402	6a 04		 push	 4
  00404	8d 85 a4 fe ff
	ff		 lea	 eax, DWORD PTR $T9[ebp]
  0040a	8b cb		 mov	 ecx, ebx
  0040c	50		 push	 eax
  0040d	ff 15 00 00 00
	00		 call	 DWORD PTR __imp_?Left@?$CStringT@DV?$StrTraitMFC_DLL@DV?$ChTraitsCRT@D@ATL@@@@@ATL@@QBE?AV12@H@Z
  00413	ff 30		 push	 DWORD PTR [eax]
  00415	ff d6		 call	 esi
  00417	83 c4 04	 add	 esp, 4
  0041a	8d 8d a4 fe ff
	ff		 lea	 ecx, DWORD PTR $T9[ebp]
  00420	8b d8		 mov	 ebx, eax
  00422	ff 15 00 00 00
	00		 call	 DWORD PTR __imp_??1?$CStringT@DV?$StrTraitMFC_DLL@DV?$ChTraitsCRT@D@ATL@@@@@ATL@@QAE@XZ

; 2134 : 	int nMonth	= atoi(m_strEndDate.Mid(4,2)	);

  00428	6a 02		 push	 2
  0042a	6a 04		 push	 4
  0042c	8d 85 a4 fe ff
	ff		 lea	 eax, DWORD PTR $T8[ebp]
  00432	50		 push	 eax
  00433	8d 8f cc 00 00
	00		 lea	 ecx, DWORD PTR [edi+204]
  00439	ff 15 00 00 00
	00		 call	 DWORD PTR __imp_?Mid@?$CStringT@DV?$StrTraitMFC_DLL@DV?$ChTraitsCRT@D@ATL@@@@@ATL@@QBE?AV12@HH@Z
  0043f	ff 30		 push	 DWORD PTR [eax]
  00441	ff d6		 call	 esi
  00443	83 c4 04	 add	 esp, 4
  00446	8d 8d a4 fe ff
	ff		 lea	 ecx, DWORD PTR $T8[ebp]
  0044c	8b f8		 mov	 edi, eax
  0044e	ff 15 00 00 00
	00		 call	 DWORD PTR __imp_??1?$CStringT@DV?$StrTraitMFC_DLL@DV?$ChTraitsCRT@D@ATL@@@@@ATL@@QAE@XZ

; 2135 : 	int nDay	= atoi(m_strEndDate.Right(2)	);

  00454	8b 8d a0 fe ff
	ff		 mov	 ecx, DWORD PTR tv646[ebp]
  0045a	8d 85 a4 fe ff
	ff		 lea	 eax, DWORD PTR $T7[ebp]
  00460	6a 02		 push	 2
  00462	50		 push	 eax
  00463	ff 15 00 00 00
	00		 call	 DWORD PTR __imp_?Right@?$CStringT@DV?$StrTraitMFC_DLL@DV?$ChTraitsCRT@D@ATL@@@@@ATL@@QBE?AV12@H@Z
  00469	ff 30		 push	 DWORD PTR [eax]
  0046b	ff d6		 call	 esi
  0046d	83 c4 04	 add	 esp, 4
  00470	8d 8d a4 fe ff
	ff		 lea	 ecx, DWORD PTR $T7[ebp]
  00476	8b f0		 mov	 esi, eax
  00478	ff 15 00 00 00
	00		 call	 DWORD PTR __imp_??1?$CStringT@DV?$StrTraitMFC_DLL@DV?$ChTraitsCRT@D@ATL@@@@@ATL@@QAE@XZ

; 2136 : 
; 2137 : 	CTime myTime(nYear,nMonth, nDay, 0, 0, 0);      		

  0047e	6a ff		 push	 -1
  00480	6a 00		 push	 0
  00482	6a 00		 push	 0
  00484	6a 00		 push	 0
  00486	56		 push	 esi
  00487	57		 push	 edi
  00488	53		 push	 ebx
  00489	8d 8d 68 fe ff
	ff		 lea	 ecx, DWORD PTR _myTime$[ebp]
  0048f	e8 00 00 00 00	 call	 ??0CTime@ATL@@QAE@HHHHHHH@Z ; ATL::CTime::CTime

; 2138 : 	//m_datePicker.SetTime(&myTime); 
; 2139 : //@
; 2140 : //	m_datePicker.SetDataText(m_strEndDate);
; 2141 : //@
; 2142 : //@
; 2143 : 	m_datePicker.SetTime(&myTime);

  00494	8b b5 98 fe ff
	ff		 mov	 esi, DWORD PTR _this$GSCopy$1$[ebp]
  0049a	8d 85 68 fe ff
	ff		 lea	 eax, DWORD PTR _myTime$[ebp]
  004a0	50		 push	 eax
  004a1	8d 8e e0 00 00
	00		 lea	 ecx, DWORD PTR [esi+224]
  004a7	e8 00 00 00 00	 call	 ?SetTime@CDateTimeCtrl@@QAEHPBVCTime@ATL@@@Z ; CDateTimeCtrl::SetTime

; 2144 : //@
; 2145 : 
; 2146 : 	if(m_pChartMng && m_pChartMng->GetSafeHwnd())

  004ac	8b 86 00 33 00
	00		 mov	 eax, DWORD PTR [esi+13056]
  004b2	85 c0		 test	 eax, eax
  004b4	74 30		 je	 SHORT $LN8@OnBtnEdate
  004b6	83 78 20 00	 cmp	 DWORD PTR [eax+32], 0
  004ba	74 2a		 je	 SHORT $LN8@OnBtnEdate

; 2147 : 		m_pChartMng->SendMessage( UMS_SETCHART_DATEINFO, (WPARAM)m_bEndDate, (LPARAM)atoi(m_strEndDate));

  004bc	ff b6 cc 00 00
	00		 push	 DWORD PTR [esi+204]
  004c2	ff 15 00 00 00
	00		 call	 DWORD PTR __imp__atoi
  004c8	83 c4 04	 add	 esp, 4
; File C:\Program Files (x86)\Microsoft Visual Studio\2019\Community\VC\Tools\MSVC\14.29.30133\atlmfc\include\afxwin2.inl

; 32   : 	{ ASSERT(::IsWindow(m_hWnd)); return ::SendMessage(m_hWnd, message, wParam, lParam); }

  004cb	50		 push	 eax
  004cc	ff b6 c4 00 00
	00		 push	 DWORD PTR [esi+196]
  004d2	8b 86 00 33 00
	00		 mov	 eax, DWORD PTR [esi+13056]
  004d8	68 af 04 00 00	 push	 1199			; 000004afH
  004dd	ff 70 20	 push	 DWORD PTR [eax+32]
  004e0	ff 15 00 00 00
	00		 call	 DWORD PTR __imp__SendMessageA@16
$LN8@OnBtnEdate:
; File D:\git\src\IBK\IBK_DRFN\ProjSrc\SrcDrfn\Chart\MULTICHART\ExtInputBarDlg.cpp

; 2148 : }

  004e6	8d 8d 90 fe ff
	ff		 lea	 ecx, DWORD PTR _strCurrentTime$[ebp]
  004ec	ff 15 00 00 00
	00		 call	 DWORD PTR __imp_??1?$CStringT@DV?$StrTraitMFC_DLL@DV?$ChTraitsCRT@D@ATL@@@@@ATL@@QAE@XZ
  004f2	8b 4d f4	 mov	 ecx, DWORD PTR __$EHRec$[ebp]
  004f5	64 89 0d 00 00
	00 00		 mov	 DWORD PTR fs:0, ecx
  004fc	59		 pop	 ecx
  004fd	5f		 pop	 edi
  004fe	5e		 pop	 esi
  004ff	5b		 pop	 ebx
  00500	8b 4d f0	 mov	 ecx, DWORD PTR __$ArrayPad$[ebp]
  00503	33 cd		 xor	 ecx, ebp
  00505	e8 00 00 00 00	 call	 @__security_check_cookie@4
  0050a	8b e5		 mov	 esp, ebp
  0050c	5d		 pop	 ebp
  0050d	c3		 ret	 0
$LN108@OnBtnEdate:
; File C:\Program Files (x86)\Microsoft Visual Studio\2019\Community\VC\Tools\MSVC\14.29.30133\atlmfc\include\atltime.h

; 1068 : 		AtlThrow(E_INVALIDARG);

  0050e	68 57 00 07 80	 push	 -2147024809		; 80070057H
  00513	e8 00 00 00 00	 call	 ?AtlThrowImpl@ATL@@YGXJ@Z ; ATL::AtlThrowImpl
$LN109@OnBtnEdate:
  00518	68 57 00 07 80	 push	 -2147024809		; 80070057H
  0051d	e8 00 00 00 00	 call	 ?AtlThrowImpl@ATL@@YGXJ@Z ; ATL::AtlThrowImpl
$LN106@OnBtnEdate:
  00522	cc		 int	 3
_TEXT	ENDS
;	COMDAT text$x
text$x	SEGMENT
__unwindfunclet$?OnBtnEdate@CExtInputBarDlg@@IAEXXZ$2:
  00000	8d 8d 90 fe ff
	ff		 lea	 ecx, DWORD PTR _strCurrentTime$[ebp]
  00006	ff 25 00 00 00
	00		 jmp	 DWORD PTR __imp_??1?$CStringT@DV?$StrTraitMFC_DLL@DV?$ChTraitsCRT@D@ATL@@@@@ATL@@QAE@XZ
__unwindfunclet$?OnBtnEdate@CExtInputBarDlg@@IAEXXZ$3:
  0000c	8b 85 9c fe ff
	ff		 mov	 eax, DWORD PTR $T5[ebp]
  00012	83 e0 01	 and	 eax, 1
  00015	0f 84 13 00 00
	00		 je	 $LN16@OnBtnEdate
  0001b	83 a5 9c fe ff
	ff fe		 and	 DWORD PTR $T5[ebp], -2	; fffffffeH
  00022	8d 8d a4 fe ff
	ff		 lea	 ecx, DWORD PTR $T11[ebp]
  00028	ff 25 00 00 00
	00		 jmp	 DWORD PTR __imp_??1?$CStringT@DV?$StrTraitMFC_DLL@DV?$ChTraitsCRT@D@ATL@@@@@ATL@@QAE@XZ
$LN16@OnBtnEdate:
  0002e	c3		 ret	 0
__unwindfunclet$?OnBtnEdate@CExtInputBarDlg@@IAEXXZ$4:
  0002f	8b 85 9c fe ff
	ff		 mov	 eax, DWORD PTR $T5[ebp]
  00035	83 e0 02	 and	 eax, 2
  00038	0f 84 13 00 00
	00		 je	 $LN18@OnBtnEdate
  0003e	83 a5 9c fe ff
	ff fd		 and	 DWORD PTR $T5[ebp], -3	; fffffffdH
  00045	8d 8d a0 fe ff
	ff		 lea	 ecx, DWORD PTR $T6[ebp]
  0004b	ff 25 00 00 00
	00		 jmp	 DWORD PTR __imp_??1?$CStringT@DV?$StrTraitMFC_DLL@DV?$ChTraitsCRT@D@ATL@@@@@ATL@@QAE@XZ
$LN18@OnBtnEdate:
  00051	c3		 ret	 0
__unwindfunclet$?OnBtnEdate@CExtInputBarDlg@@IAEXXZ$5:
  00052	8b 85 9c fe ff
	ff		 mov	 eax, DWORD PTR $T5[ebp]
  00058	83 e0 04	 and	 eax, 4
  0005b	0f 84 13 00 00
	00		 je	 $LN20@OnBtnEdate
  00061	83 a5 9c fe ff
	ff fb		 and	 DWORD PTR $T5[ebp], -5	; fffffffbH
  00068	8d 8d 88 fe ff
	ff		 lea	 ecx, DWORD PTR $T2[ebp]
  0006e	ff 25 00 00 00
	00		 jmp	 DWORD PTR __imp_??1?$CStringT@DV?$StrTraitMFC_DLL@DV?$ChTraitsCRT@D@ATL@@@@@ATL@@QAE@XZ
$LN20@OnBtnEdate:
  00074	c3		 ret	 0
__unwindfunclet$?OnBtnEdate@CExtInputBarDlg@@IAEXXZ$7:
  00075	8d 8d a4 fe ff
	ff		 lea	 ecx, DWORD PTR _strCurTime$10[ebp]
  0007b	ff 25 00 00 00
	00		 jmp	 DWORD PTR __imp_??1?$CStringT@DV?$StrTraitMFC_DLL@DV?$ChTraitsCRT@D@ATL@@@@@ATL@@QAE@XZ
  00081	cc		 int	 3
  00082	cc		 int	 3
  00083	cc		 int	 3
  00084	cc		 int	 3
  00085	cc		 int	 3
__ehhandler$?OnBtnEdate@CExtInputBarDlg@@IAEXXZ:
  00086	90		 npad	 1
  00087	90		 npad	 1
  00088	8b 54 24 08	 mov	 edx, DWORD PTR [esp+8]
  0008c	8d 42 0c	 lea	 eax, DWORD PTR [edx+12]
  0008f	8b 8a 64 fe ff
	ff		 mov	 ecx, DWORD PTR [edx-412]
  00095	33 c8		 xor	 ecx, eax
  00097	e8 00 00 00 00	 call	 @__security_check_cookie@4
  0009c	8b 4a fc	 mov	 ecx, DWORD PTR [edx-4]
  0009f	33 c8		 xor	 ecx, eax
  000a1	e8 00 00 00 00	 call	 @__security_check_cookie@4
  000a6	b8 00 00 00 00	 mov	 eax, OFFSET __ehfuncinfo$?OnBtnEdate@CExtInputBarDlg@@IAEXXZ
  000ab	e9 00 00 00 00	 jmp	 ___CxxFrameHandler3
text$x	ENDS
?OnBtnEdate@CExtInputBarDlg@@IAEXXZ ENDP		; CExtInputBarDlg::OnBtnEdate
; Function compile flags: /Ogtp
; File D:\git\src\IBK\IBK_DRFN\ProjSrc\SrcDrfn\Chart\MULTICHART\ExtInputBarDlg.cpp
; File C:\Program Files (x86)\Microsoft Visual Studio\2019\Community\VC\Tools\MSVC\14.29.30133\atlmfc\include\afxwin2.inl
; File D:\git\src\IBK\IBK_DRFN\ProjSrc\SrcDrfn\Chart\MULTICHART\ExtInputBarDlg.cpp
; File C:\Program Files (x86)\Microsoft Visual Studio\2019\Community\VC\Tools\MSVC\14.29.30133\atlmfc\include\afxwin2.inl
; File D:\git\src\IBK\IBK_DRFN\ProjSrc\SrcDrfn\Chart\MULTICHART\ExtInputBarDlg.cpp
; File C:\Program Files (x86)\Microsoft Visual Studio\2019\Community\VC\Tools\MSVC\14.29.30133\atlmfc\include\afxwin2.inl
; File D:\git\src\IBK\IBK_DRFN\ProjSrc\SrcDrfn\Chart\MULTICHART\ExtInputBarDlg.cpp
; File C:\Program Files (x86)\Microsoft Visual Studio\2019\Community\VC\Tools\MSVC\14.29.30133\atlmfc\include\atlsimpstr.h
; File D:\git\src\IBK\IBK_DRFN\ProjSrc\SrcDrfn\Chart\MULTICHART\ExtInputBarDlg.cpp
; File C:\Program Files (x86)\Microsoft Visual Studio\2019\Community\VC\Tools\MSVC\14.29.30133\atlmfc\include\atltime.h
; File D:\git\src\IBK\IBK_DRFN\ProjSrc\SrcDrfn\Chart\MULTICHART\ExtInputBarDlg.cpp
; File C:\Program Files (x86)\Microsoft Visual Studio\2019\Community\VC\Tools\MSVC\14.29.30133\atlmfc\include\atltime.h
; File D:\git\src\IBK\IBK_DRFN\ProjSrc\SrcDrfn\Chart\MULTICHART\ExtInputBarDlg.cpp
; File C:\Program Files (x86)\Microsoft Visual Studio\2019\Community\VC\Tools\MSVC\14.29.30133\atlmfc\include\afxwin2.inl
; File D:\git\src\IBK\IBK_DRFN\ProjSrc\SrcDrfn\Chart\MULTICHART\ExtInputBarDlg.cpp
;	COMDAT ?OnBtnSdate@CExtInputBarDlg@@IAEXXZ
_TEXT	SEGMENT
_myTime$ = -36						; size = 8
_dEndDate$ = -28					; size = 8
_dStartDate$ = -20					; size = 8
_currentTime$1 = -12					; size = 8
_this$1$ = -8						; size = 4
$T2 = -4						; size = 4
$T3 = -4						; size = 4
$T4 = -4						; size = 4
?OnBtnSdate@CExtInputBarDlg@@IAEXXZ PROC		; CExtInputBarDlg::OnBtnSdate, COMDAT
; _this$ = ecx

; 2000 : {	

  00000	55		 push	 ebp
  00001	8b ec		 mov	 ebp, esp
  00003	83 ec 24	 sub	 esp, 36			; 00000024H
  00006	53		 push	 ebx
  00007	56		 push	 esi
  00008	57		 push	 edi

; 2001 : 	m_bEndDate = FALSE;
; 2002 : 
; 2003 : //	CString strImageUp		= m_strImageChartPath + "\\btn_up.bmp";
; 2004 : //	CString strImageDown	= m_strImageChartPath + "\\btn_down.bmp";		
; 2005 : //	m_btnStartDate	.SetSkin(strImageDown,strImageDown,"","","","",0,0,0);
; 2006 : //	m_btnEndDate	.SetSkin(strImageUp,strImageUp,"","","","",0,0,0);
; 2007 : 
; 2008 : 	// 
; 2009 : 	m_btnStartDate	.FP_vSetImage(m_pIL_W20H20, 90, 90, TRUE, "", TRUE);	

  00009	6a ff		 push	 -1
  0000b	6a ff		 push	 -1
  0000d	8b d9		 mov	 ebx, ecx
  0000f	6a 01		 push	 1
  00011	51		 push	 ecx
  00012	8b cc		 mov	 ecx, esp
  00014	89 5d f8	 mov	 DWORD PTR _this$1$[ebp], ebx
  00017	68 00 00 00 00	 push	 OFFSET ??_C@_02MEGIOJNB@?$KC?$LK@
  0001c	c7 83 c4 00 00
	00 00 00 00 00	 mov	 DWORD PTR [ebx+196], 0
  00026	ff 15 00 00 00
	00		 call	 DWORD PTR __imp_??0?$CStringT@DV?$StrTraitMFC_DLL@DV?$ChTraitsCRT@D@ATL@@@@@ATL@@QAE@PBD@Z
  0002c	6a 01		 push	 1
  0002e	6a 5a		 push	 90			; 0000005aH
  00030	6a 5a		 push	 90			; 0000005aH
  00032	ff b3 b8 00 00
	00		 push	 DWORD PTR [ebx+184]
  00038	8d 8b 68 12 00
	00		 lea	 ecx, DWORD PTR [ebx+4712]
  0003e	e8 00 00 00 00	 call	 ?FP_vSetImage@CILButton@@QAEXPAVCImageList@@HHHV?$CStringT@DV?$StrTraitMFC_DLL@DV?$ChTraitsCRT@D@ATL@@@@@ATL@@HHH@Z ; CILButton::FP_vSetImage

; 2010 : 	m_btnEndDate	.FP_vSetImage(m_pIL_W20H20, 80, 80, TRUE, "", TRUE);

  00043	6a ff		 push	 -1
  00045	6a ff		 push	 -1
  00047	6a 01		 push	 1
  00049	51		 push	 ecx
  0004a	8b cc		 mov	 ecx, esp
  0004c	68 00 00 00 00	 push	 OFFSET ??_C@_02PGFOILFD@?$KC?$LI@
  00051	ff 15 00 00 00
	00		 call	 DWORD PTR __imp_??0?$CStringT@DV?$StrTraitMFC_DLL@DV?$ChTraitsCRT@D@ATL@@@@@ATL@@QAE@PBD@Z
  00057	6a 01		 push	 1
  00059	6a 50		 push	 80			; 00000050H
  0005b	6a 50		 push	 80			; 00000050H
  0005d	ff b3 b8 00 00
	00		 push	 DWORD PTR [ebx+184]
  00063	8d 8b c8 13 00
	00		 lea	 ecx, DWORD PTR [ebx+5064]
  00069	e8 00 00 00 00	 call	 ?FP_vSetImage@CILButton@@QAEXPAVCImageList@@HHHV?$CStringT@DV?$StrTraitMFC_DLL@DV?$ChTraitsCRT@D@ATL@@@@@ATL@@HHH@Z ; CILButton::FP_vSetImage
; File C:\Program Files (x86)\Microsoft Visual Studio\2019\Community\VC\Tools\MSVC\14.29.30133\atlmfc\include\afxwin2.inl

; 114  : 	{ ASSERT(::IsWindow(m_hWnd)); ::InvalidateRect(m_hWnd, NULL, bErase); }

  0006e	8b 35 00 00 00
	00		 mov	 esi, DWORD PTR __imp__InvalidateRect@12
  00074	6a 01		 push	 1
  00076	6a 00		 push	 0
  00078	ff b3 88 12 00
	00		 push	 DWORD PTR [ebx+4744]
  0007e	ff d6		 call	 esi
  00080	6a 01		 push	 1
  00082	6a 00		 push	 0
  00084	ff b3 e8 13 00
	00		 push	 DWORD PTR [ebx+5096]
  0008a	ff d6		 call	 esi
; File D:\git\src\IBK\IBK_DRFN\ProjSrc\SrcDrfn\Chart\MULTICHART\ExtInputBarDlg.cpp

; 2021 : 	((CStdDialog*)GetParent())->GetStartEndDateAtStdDialog(dStartDate, dEndDate);

  0008c	8d 45 e4	 lea	 eax, DWORD PTR _dEndDate$[ebp]
  0008f	0f 57 c0	 xorps	 xmm0, xmm0
  00092	50		 push	 eax
  00093	8d 45 ec	 lea	 eax, DWORD PTR _dStartDate$[ebp]
  00096	f2 0f 11 45 ec	 movsd	 QWORD PTR _dStartDate$[ebp], xmm0
  0009b	50		 push	 eax
; File C:\Program Files (x86)\Microsoft Visual Studio\2019\Community\VC\Tools\MSVC\14.29.30133\atlmfc\include\afxwin2.inl

; 213  : 	{ ASSERT(::IsWindow(m_hWnd)); return CWnd::FromHandle(::GetParent(m_hWnd)); }

  0009c	ff 73 20	 push	 DWORD PTR [ebx+32]
; File D:\git\src\IBK\IBK_DRFN\ProjSrc\SrcDrfn\Chart\MULTICHART\ExtInputBarDlg.cpp

; 2019 : 	double dStartDate = 0, dEndDate = 0;

  0009f	f2 0f 11 45 e4	 movsd	 QWORD PTR _dEndDate$[ebp], xmm0
; File C:\Program Files (x86)\Microsoft Visual Studio\2019\Community\VC\Tools\MSVC\14.29.30133\atlmfc\include\afxwin2.inl

; 213  : 	{ ASSERT(::IsWindow(m_hWnd)); return CWnd::FromHandle(::GetParent(m_hWnd)); }

  000a4	ff 15 00 00 00
	00		 call	 DWORD PTR __imp__GetParent@4
  000aa	50		 push	 eax
  000ab	e8 00 00 00 00	 call	 ?FromHandle@CWnd@@SGPAV1@PAUHWND__@@@Z ; CWnd::FromHandle
; File D:\git\src\IBK\IBK_DRFN\ProjSrc\SrcDrfn\Chart\MULTICHART\ExtInputBarDlg.cpp

; 2021 : 	((CStdDialog*)GetParent())->GetStartEndDateAtStdDialog(dStartDate, dEndDate);

  000b0	8b c8		 mov	 ecx, eax
  000b2	e8 00 00 00 00	 call	 ?GetStartEndDateAtStdDialog@CStdDialog@@QAEXAAN0@Z ; CStdDialog::GetStartEndDateAtStdDialog

; 2022 : 
; 2023 : 	if(dStartDate)

  000b7	f2 0f 10 45 ec	 movsd	 xmm0, QWORD PTR _dStartDate$[ebp]
  000bc	66 0f 2e 05 00
	00 00 00	 ucomisd xmm0, QWORD PTR __real@0000000000000000
  000c4	8b 35 00 00 00
	00		 mov	 esi, DWORD PTR __imp_?Format@?$CStringT@DV?$StrTraitMFC_DLL@DV?$ChTraitsCRT@D@ATL@@@@@ATL@@QAAXPBDZZ
  000ca	9f		 lahf
  000cb	f6 c4 44	 test	 ah, 68			; 00000044H
  000ce	7b 16		 jnp	 SHORT $LN2@OnBtnSdate

; 2024 : 		m_strStartDate.Format("%d", (long)dStartDate);

  000d0	f2 0f 2c c0	 cvttsd2si eax, xmm0
  000d4	50		 push	 eax
  000d5	8d 83 c8 00 00
	00		 lea	 eax, DWORD PTR [ebx+200]
  000db	68 00 00 00 00	 push	 OFFSET ??_C@_02DPKJAMEF@?$CFd@
  000e0	50		 push	 eax
  000e1	ff d6		 call	 esi
  000e3	83 c4 0c	 add	 esp, 12			; 0000000cH
$LN2@OnBtnSdate:

; 2025 : 	if(dEndDate)

  000e6	f2 0f 10 45 e4	 movsd	 xmm0, QWORD PTR _dEndDate$[ebp]
  000eb	66 0f 2e 05 00
	00 00 00	 ucomisd xmm0, QWORD PTR __real@0000000000000000
  000f3	9f		 lahf
  000f4	f6 c4 44	 test	 ah, 68			; 00000044H
  000f7	7b 16		 jnp	 SHORT $LN3@OnBtnSdate

; 2026 : 		m_strEndDate.Format("%d", (long)dEndDate);

  000f9	f2 0f 2c c0	 cvttsd2si eax, xmm0
  000fd	50		 push	 eax
  000fe	8d 83 cc 00 00
	00		 lea	 eax, DWORD PTR [ebx+204]
  00104	68 00 00 00 00	 push	 OFFSET ??_C@_02DPKJAMEF@?$CFd@
  00109	50		 push	 eax
  0010a	ff d6		 call	 esi
  0010c	83 c4 0c	 add	 esp, 12			; 0000000cH
$LN3@OnBtnSdate:

; 2031 : 	if(!m_strStartDate.GetLength())

  0010f	8b 83 c8 00 00
	00		 mov	 eax, DWORD PTR [ebx+200]
; File C:\Program Files (x86)\Microsoft Visual Studio\2019\Community\VC\Tools\MSVC\14.29.30133\atlmfc\include\atlsimpstr.h

; 800  : 		return( reinterpret_cast< CStringData* >( m_pszData )-1 );

  00115	8d b3 c8 00 00
	00		 lea	 esi, DWORD PTR [ebx+200]
; File D:\git\src\IBK\IBK_DRFN\ProjSrc\SrcDrfn\Chart\MULTICHART\ExtInputBarDlg.cpp

; 2031 : 	if(!m_strStartDate.GetLength())

  0011b	83 78 f4 00	 cmp	 DWORD PTR [eax-12], 0
  0011f	75 27		 jne	 SHORT $LN4@OnBtnSdate
; File C:\Program Files (x86)\Microsoft Visual Studio\2019\Community\VC\Tools\MSVC\14.29.30133\atlmfc\include\atltime.h

; 374  : 	return( CTime( ::_time64( NULL ) ) );

  00121	6a 00		 push	 0
  00123	ff 15 00 00 00
	00		 call	 DWORD PTR __imp___time64
  00129	83 c4 04	 add	 esp, 4

; 417  : 	m_time( time )

  0012c	89 45 f4	 mov	 DWORD PTR _currentTime$1[ebp], eax
; File D:\git\src\IBK\IBK_DRFN\ProjSrc\SrcDrfn\Chart\MULTICHART\ExtInputBarDlg.cpp

; 2040 : 		m_datePicker.SetTime(&currentTime);

  0012f	8d 45 f4	 lea	 eax, DWORD PTR _currentTime$1[ebp]
; File C:\Program Files (x86)\Microsoft Visual Studio\2019\Community\VC\Tools\MSVC\14.29.30133\atlmfc\include\atltime.h

; 417  : 	m_time( time )

  00132	89 55 f8	 mov	 DWORD PTR _currentTime$1[ebp+4], edx
; File D:\git\src\IBK\IBK_DRFN\ProjSrc\SrcDrfn\Chart\MULTICHART\ExtInputBarDlg.cpp

; 2040 : 		m_datePicker.SetTime(&currentTime);

  00135	8d 8b e0 00 00
	00		 lea	 ecx, DWORD PTR [ebx+224]
  0013b	50		 push	 eax
  0013c	e8 00 00 00 00	 call	 ?SetTime@CDateTimeCtrl@@QAEHPBVCTime@ATL@@@Z ; CDateTimeCtrl::SetTime

; 2066 : }

  00141	5f		 pop	 edi
  00142	5e		 pop	 esi
  00143	5b		 pop	 ebx
  00144	8b e5		 mov	 esp, ebp
  00146	5d		 pop	 ebp
  00147	c3		 ret	 0
$LN4@OnBtnSdate:

; 2041 : //@
; 2042 : 		return;
; 2043 : 	}
; 2044 : 	
; 2045 : 	m_strStartDate.TrimRight();

  00148	8b ce		 mov	 ecx, esi
  0014a	ff 15 00 00 00
	00		 call	 DWORD PTR __imp_?TrimRight@?$CStringT@DV?$StrTraitMFC_DLL@DV?$ChTraitsCRT@D@ATL@@@@@ATL@@QAEAAV12@XZ

; 2046 : 
; 2047 : 	if(m_chType == TICK_DATA_CHART) return;

  00150	8a 83 dc 00 00
	00		 mov	 al, BYTE PTR [ebx+220]
  00156	3c 30		 cmp	 al, 48			; 00000030H
  00158	0f 84 d3 00 00
	00		 je	 $LN7@OnBtnSdate

; 2048 : 	if(m_chType == YEAR_DATA_CHART) return;

  0015e	3c 35		 cmp	 al, 53			; 00000035H
  00160	0f 84 cb 00 00
	00		 je	 $LN7@OnBtnSdate

; 2049 : 	
; 2050 : 	int nYear	= atoi(m_strStartDate.Left(4)	);	

  00166	6a 04		 push	 4
  00168	8d 45 fc	 lea	 eax, DWORD PTR $T4[ebp]
  0016b	8b ce		 mov	 ecx, esi
  0016d	50		 push	 eax
  0016e	ff 15 00 00 00
	00		 call	 DWORD PTR __imp_?Left@?$CStringT@DV?$StrTraitMFC_DLL@DV?$ChTraitsCRT@D@ATL@@@@@ATL@@QBE?AV12@H@Z
  00174	8b 3d 00 00 00
	00		 mov	 edi, DWORD PTR __imp__atoi
  0017a	ff 30		 push	 DWORD PTR [eax]
  0017c	ff d7		 call	 edi
  0017e	83 c4 04	 add	 esp, 4
  00181	8d 4d fc	 lea	 ecx, DWORD PTR $T4[ebp]
  00184	8b d8		 mov	 ebx, eax
  00186	ff 15 00 00 00
	00		 call	 DWORD PTR __imp_??1?$CStringT@DV?$StrTraitMFC_DLL@DV?$ChTraitsCRT@D@ATL@@@@@ATL@@QAE@XZ

; 2051 : 	int nMonth	= atoi(m_strStartDate.Mid(4,2)	);

  0018c	6a 02		 push	 2
  0018e	6a 04		 push	 4
  00190	8d 45 fc	 lea	 eax, DWORD PTR $T3[ebp]
  00193	8b ce		 mov	 ecx, esi
  00195	50		 push	 eax
  00196	ff 15 00 00 00
	00		 call	 DWORD PTR __imp_?Mid@?$CStringT@DV?$StrTraitMFC_DLL@DV?$ChTraitsCRT@D@ATL@@@@@ATL@@QBE?AV12@HH@Z
  0019c	ff 30		 push	 DWORD PTR [eax]
  0019e	ff d7		 call	 edi
  001a0	83 c4 04	 add	 esp, 4
  001a3	8d 4d fc	 lea	 ecx, DWORD PTR $T3[ebp]
  001a6	8b f8		 mov	 edi, eax
  001a8	ff 15 00 00 00
	00		 call	 DWORD PTR __imp_??1?$CStringT@DV?$StrTraitMFC_DLL@DV?$ChTraitsCRT@D@ATL@@@@@ATL@@QAE@XZ

; 2052 : 	int nDay	= atoi(m_strStartDate.Right(2)	);	

  001ae	6a 02		 push	 2
  001b0	8d 45 fc	 lea	 eax, DWORD PTR $T2[ebp]
  001b3	8b ce		 mov	 ecx, esi
  001b5	50		 push	 eax
  001b6	ff 15 00 00 00
	00		 call	 DWORD PTR __imp_?Right@?$CStringT@DV?$StrTraitMFC_DLL@DV?$ChTraitsCRT@D@ATL@@@@@ATL@@QBE?AV12@H@Z
  001bc	ff 30		 push	 DWORD PTR [eax]
  001be	ff 15 00 00 00
	00		 call	 DWORD PTR __imp__atoi
  001c4	83 c4 04	 add	 esp, 4
  001c7	8d 4d fc	 lea	 ecx, DWORD PTR $T2[ebp]
  001ca	8b f0		 mov	 esi, eax
  001cc	ff 15 00 00 00
	00		 call	 DWORD PTR __imp_??1?$CStringT@DV?$StrTraitMFC_DLL@DV?$ChTraitsCRT@D@ATL@@@@@ATL@@QAE@XZ

; 2053 : 
; 2054 : 
; 2055 : 	CTime myTime(nYear,nMonth, nDay, 0, 0, 0);      		

  001d2	6a ff		 push	 -1
  001d4	6a 00		 push	 0
  001d6	6a 00		 push	 0
  001d8	6a 00		 push	 0
  001da	56		 push	 esi
  001db	57		 push	 edi
  001dc	53		 push	 ebx
  001dd	8d 4d dc	 lea	 ecx, DWORD PTR _myTime$[ebp]
  001e0	e8 00 00 00 00	 call	 ??0CTime@ATL@@QAE@HHHHHHH@Z ; ATL::CTime::CTime

; 2056 : 	//m_datePicker.SetTime(&myTime); 
; 2057 : //@
; 2058 : //	m_datePicker.SetDataText(m_strStartDate);
; 2059 : //@
; 2060 : //@
; 2061 : 	m_datePicker.SetTime(&myTime);

  001e5	8b 75 f8	 mov	 esi, DWORD PTR _this$1$[ebp]
  001e8	8d 45 dc	 lea	 eax, DWORD PTR _myTime$[ebp]
  001eb	50		 push	 eax
  001ec	8d 8e e0 00 00
	00		 lea	 ecx, DWORD PTR [esi+224]
  001f2	e8 00 00 00 00	 call	 ?SetTime@CDateTimeCtrl@@QAEHPBVCTime@ATL@@@Z ; CDateTimeCtrl::SetTime

; 2062 : //@
; 2063 : 
; 2064 : 	if(m_pChartMng && m_pChartMng->GetSafeHwnd())

  001f7	8b 86 00 33 00
	00		 mov	 eax, DWORD PTR [esi+13056]
  001fd	85 c0		 test	 eax, eax
  001ff	74 30		 je	 SHORT $LN7@OnBtnSdate
  00201	83 78 20 00	 cmp	 DWORD PTR [eax+32], 0
  00205	74 2a		 je	 SHORT $LN7@OnBtnSdate

; 2065 : 		m_pChartMng->SendMessage( UMS_SETCHART_DATEINFO, (WPARAM)m_bEndDate, (LPARAM)atoi(m_strStartDate));

  00207	ff b6 c8 00 00
	00		 push	 DWORD PTR [esi+200]
  0020d	ff 15 00 00 00
	00		 call	 DWORD PTR __imp__atoi
  00213	83 c4 04	 add	 esp, 4
; File C:\Program Files (x86)\Microsoft Visual Studio\2019\Community\VC\Tools\MSVC\14.29.30133\atlmfc\include\afxwin2.inl

; 32   : 	{ ASSERT(::IsWindow(m_hWnd)); return ::SendMessage(m_hWnd, message, wParam, lParam); }

  00216	50		 push	 eax
  00217	ff b6 c4 00 00
	00		 push	 DWORD PTR [esi+196]
  0021d	8b 86 00 33 00
	00		 mov	 eax, DWORD PTR [esi+13056]
  00223	68 af 04 00 00	 push	 1199			; 000004afH
  00228	ff 70 20	 push	 DWORD PTR [eax+32]
  0022b	ff 15 00 00 00
	00		 call	 DWORD PTR __imp__SendMessageA@16
$LN7@OnBtnSdate:
; File D:\git\src\IBK\IBK_DRFN\ProjSrc\SrcDrfn\Chart\MULTICHART\ExtInputBarDlg.cpp

; 2066 : }

  00231	5f		 pop	 edi
  00232	5e		 pop	 esi
  00233	5b		 pop	 ebx
  00234	8b e5		 mov	 esp, ebp
  00236	5d		 pop	 ebp
  00237	c3		 ret	 0
?OnBtnSdate@CExtInputBarDlg@@IAEXXZ ENDP		; CExtInputBarDlg::OnBtnSdate
_TEXT	ENDS
; Function compile flags: /Ogtp
; File D:\git\src\IBK\IBK_DRFN\ProjSrc\SrcDrfn\Chart\MULTICHART\ExtInputBarDlg.cpp
; File C:\Program Files (x86)\Microsoft Visual Studio\2019\Community\VC\Tools\MSVC\14.29.30133\atlmfc\include\afxwin2.inl
; File D:\git\src\IBK\IBK_DRFN\ProjSrc\SrcDrfn\Chart\MULTICHART\ExtInputBarDlg.cpp
; File C:\Program Files (x86)\Microsoft Visual Studio\2019\Community\VC\Tools\MSVC\14.29.30133\atlmfc\include\afxwin2.inl
; File D:\git\src\IBK\IBK_DRFN\ProjSrc\SrcDrfn\Chart\MULTICHART\ExtInputBarDlg.cpp
;	COMDAT ?OnBtst@CExtInputBarDlg@@IAEXXZ
_TEXT	SEGMENT
?OnBtst@CExtInputBarDlg@@IAEXXZ PROC			; CExtInputBarDlg::OnBtst, COMDAT
; _this$ = ecx

; 1948 : 	if(m_pChartMng->GetSafeHwnd()) // 2005. 04. 22 by Nam

  00000	8b 81 00 33 00
	00		 mov	 eax, DWORD PTR [ecx+13056]
; File C:\Program Files (x86)\Microsoft Visual Studio\2019\Community\VC\Tools\MSVC\14.29.30133\atlmfc\include\afxwin2.inl

; 25   : 	{ return this == NULL ? NULL : m_hWnd; }

  00006	85 c0		 test	 eax, eax
  00008	74 17		 je	 SHORT $LN2@OnBtst
  0000a	8b 40 20	 mov	 eax, DWORD PTR [eax+32]
; File D:\git\src\IBK\IBK_DRFN\ProjSrc\SrcDrfn\Chart\MULTICHART\ExtInputBarDlg.cpp

; 1948 : 	if(m_pChartMng->GetSafeHwnd()) // 2005. 04. 22 by Nam

  0000d	85 c0		 test	 eax, eax
  0000f	74 10		 je	 SHORT $LN2@OnBtst
; File C:\Program Files (x86)\Microsoft Visual Studio\2019\Community\VC\Tools\MSVC\14.29.30133\atlmfc\include\afxwin2.inl

; 32   : 	{ ASSERT(::IsWindow(m_hWnd)); return ::SendMessage(m_hWnd, message, wParam, lParam); }

  00011	6a 00		 push	 0
  00013	6a 00		 push	 0
  00015	68 50 04 00 00	 push	 1104			; 00000450H
  0001a	50		 push	 eax
  0001b	ff 15 00 00 00
	00		 call	 DWORD PTR __imp__SendMessageA@16
$LN2@OnBtst:
; File D:\git\src\IBK\IBK_DRFN\ProjSrc\SrcDrfn\Chart\MULTICHART\ExtInputBarDlg.cpp

; 1950 : }

  00021	c3		 ret	 0
?OnBtst@CExtInputBarDlg@@IAEXXZ ENDP			; CExtInputBarDlg::OnBtst
_TEXT	ENDS
; Function compile flags: /Ogtp
; File D:\git\src\IBK\IBK_DRFN\ProjSrc\SrcDrfn\Chart\MULTICHART\ExtInputBarDlg.cpp
; File C:\Program Files (x86)\Microsoft Visual Studio\2019\Community\VC\Tools\MSVC\14.29.30133\atlmfc\include\afxwin2.inl
; File D:\git\src\IBK\IBK_DRFN\ProjSrc\SrcDrfn\Chart\MULTICHART\ExtInputBarDlg.cpp
; File C:\Program Files (x86)\Microsoft Visual Studio\2019\Community\VC\Tools\MSVC\14.29.30133\atlmfc\include\afxwin2.inl
; File D:\git\src\IBK\IBK_DRFN\ProjSrc\SrcDrfn\Chart\MULTICHART\ExtInputBarDlg.cpp
;	COMDAT ?OnBthist@CExtInputBarDlg@@IAEXXZ
_TEXT	SEGMENT
?OnBthist@CExtInputBarDlg@@IAEXXZ PROC			; CExtInputBarDlg::OnBthist, COMDAT
; _this$ = ecx

; 1940 : 	if(m_pChartMng->GetSafeHwnd()) // 2005. 04. 22 by Nam

  00000	8b 81 00 33 00
	00		 mov	 eax, DWORD PTR [ecx+13056]
; File C:\Program Files (x86)\Microsoft Visual Studio\2019\Community\VC\Tools\MSVC\14.29.30133\atlmfc\include\afxwin2.inl

; 25   : 	{ return this == NULL ? NULL : m_hWnd; }

  00006	85 c0		 test	 eax, eax
  00008	74 17		 je	 SHORT $LN2@OnBthist
  0000a	8b 40 20	 mov	 eax, DWORD PTR [eax+32]
; File D:\git\src\IBK\IBK_DRFN\ProjSrc\SrcDrfn\Chart\MULTICHART\ExtInputBarDlg.cpp

; 1940 : 	if(m_pChartMng->GetSafeHwnd()) // 2005. 04. 22 by Nam

  0000d	85 c0		 test	 eax, eax
  0000f	74 10		 je	 SHORT $LN2@OnBthist
; File C:\Program Files (x86)\Microsoft Visual Studio\2019\Community\VC\Tools\MSVC\14.29.30133\atlmfc\include\afxwin2.inl

; 32   : 	{ ASSERT(::IsWindow(m_hWnd)); return ::SendMessage(m_hWnd, message, wParam, lParam); }

  00011	6a 00		 push	 0
  00013	6a 00		 push	 0
  00015	68 4f 04 00 00	 push	 1103			; 0000044fH
  0001a	50		 push	 eax
  0001b	ff 15 00 00 00
	00		 call	 DWORD PTR __imp__SendMessageA@16
$LN2@OnBthist:
; File D:\git\src\IBK\IBK_DRFN\ProjSrc\SrcDrfn\Chart\MULTICHART\ExtInputBarDlg.cpp

; 1943 : }

  00021	c3		 ret	 0
?OnBthist@CExtInputBarDlg@@IAEXXZ ENDP			; CExtInputBarDlg::OnBthist
_TEXT	ENDS
; Function compile flags: /Ogtp
; File D:\git\src\IBK\IBK_DRFN\ProjSrc\SrcDrfn\Chart\MULTICHART\ExtInputBarDlg.cpp
; File C:\Program Files (x86)\Microsoft Visual Studio\2019\Community\VC\Tools\MSVC\14.29.30133\atlmfc\include\afxwin2.inl
; File D:\git\src\IBK\IBK_DRFN\ProjSrc\SrcDrfn\Chart\MULTICHART\ExtInputBarDlg.cpp
; File C:\Program Files (x86)\Microsoft Visual Studio\2019\Community\VC\Tools\MSVC\14.29.30133\atlmfc\include\afxwin2.inl
; File D:\git\src\IBK\IBK_DRFN\ProjSrc\SrcDrfn\Chart\MULTICHART\ExtInputBarDlg.cpp
;	COMDAT ?OnBtchartguideline@CExtInputBarDlg@@IAEXXZ
_TEXT	SEGMENT
?OnBtchartguideline@CExtInputBarDlg@@IAEXXZ PROC	; CExtInputBarDlg::OnBtchartguideline, COMDAT
; _this$ = ecx

; 1896 : 	if(m_pChartMng->GetSafeHwnd()) // 2005. 04. 22 by Nam

  00000	8b 81 00 33 00
	00		 mov	 eax, DWORD PTR [ecx+13056]
; File C:\Program Files (x86)\Microsoft Visual Studio\2019\Community\VC\Tools\MSVC\14.29.30133\atlmfc\include\afxwin2.inl

; 25   : 	{ return this == NULL ? NULL : m_hWnd; }

  00006	85 c0		 test	 eax, eax
  00008	74 17		 je	 SHORT $LN2@OnBtchartg
  0000a	8b 40 20	 mov	 eax, DWORD PTR [eax+32]
; File D:\git\src\IBK\IBK_DRFN\ProjSrc\SrcDrfn\Chart\MULTICHART\ExtInputBarDlg.cpp

; 1896 : 	if(m_pChartMng->GetSafeHwnd()) // 2005. 04. 22 by Nam

  0000d	85 c0		 test	 eax, eax
  0000f	74 10		 je	 SHORT $LN2@OnBtchartg
; File C:\Program Files (x86)\Microsoft Visual Studio\2019\Community\VC\Tools\MSVC\14.29.30133\atlmfc\include\afxwin2.inl

; 32   : 	{ ASSERT(::IsWindow(m_hWnd)); return ::SendMessage(m_hWnd, message, wParam, lParam); }

  00011	6a 00		 push	 0
  00013	6a 00		 push	 0
  00015	68 4b 04 00 00	 push	 1099			; 0000044bH
  0001a	50		 push	 eax
  0001b	ff 15 00 00 00
	00		 call	 DWORD PTR __imp__SendMessageA@16
$LN2@OnBtchartg:
; File D:\git\src\IBK\IBK_DRFN\ProjSrc\SrcDrfn\Chart\MULTICHART\ExtInputBarDlg.cpp

; 1898 : }

  00021	c3		 ret	 0
?OnBtchartguideline@CExtInputBarDlg@@IAEXXZ ENDP	; CExtInputBarDlg::OnBtchartguideline
_TEXT	ENDS
; Function compile flags: /Ogtp
; File D:\git\src\IBK\IBK_DRFN\ProjSrc\SrcDrfn\Chart\MULTICHART\ExtInputBarDlg.cpp
; File C:\Program Files (x86)\Microsoft Visual Studio\2019\Community\VC\Tools\MSVC\14.29.30133\atlmfc\include\afxwin2.inl
; File D:\git\src\IBK\IBK_DRFN\ProjSrc\SrcDrfn\Chart\MULTICHART\ExtInputBarDlg.cpp
; File C:\Program Files (x86)\Microsoft Visual Studio\2019\Community\VC\Tools\MSVC\14.29.30133\atlmfc\include\afxwin2.inl
; File D:\git\src\IBK\IBK_DRFN\ProjSrc\SrcDrfn\Chart\MULTICHART\ExtInputBarDlg.cpp
;	COMDAT ?OnBtanalysispattern@CExtInputBarDlg@@IAEXXZ
_TEXT	SEGMENT
?OnBtanalysispattern@CExtInputBarDlg@@IAEXXZ PROC	; CExtInputBarDlg::OnBtanalysispattern, COMDAT
; _this$ = ecx

; 1889 : 	if(m_pChartMng->GetSafeHwnd()) // 2005. 04. 22 by Nam

  00000	8b 81 00 33 00
	00		 mov	 eax, DWORD PTR [ecx+13056]
; File C:\Program Files (x86)\Microsoft Visual Studio\2019\Community\VC\Tools\MSVC\14.29.30133\atlmfc\include\afxwin2.inl

; 25   : 	{ return this == NULL ? NULL : m_hWnd; }

  00006	85 c0		 test	 eax, eax
  00008	74 17		 je	 SHORT $LN2@OnBtanalys
  0000a	8b 40 20	 mov	 eax, DWORD PTR [eax+32]
; File D:\git\src\IBK\IBK_DRFN\ProjSrc\SrcDrfn\Chart\MULTICHART\ExtInputBarDlg.cpp

; 1889 : 	if(m_pChartMng->GetSafeHwnd()) // 2005. 04. 22 by Nam

  0000d	85 c0		 test	 eax, eax
  0000f	74 10		 je	 SHORT $LN2@OnBtanalys
; File C:\Program Files (x86)\Microsoft Visual Studio\2019\Community\VC\Tools\MSVC\14.29.30133\atlmfc\include\afxwin2.inl

; 32   : 	{ ASSERT(::IsWindow(m_hWnd)); return ::SendMessage(m_hWnd, message, wParam, lParam); }

  00011	6a 00		 push	 0
  00013	6a 00		 push	 0
  00015	68 4a 04 00 00	 push	 1098			; 0000044aH
  0001a	50		 push	 eax
  0001b	ff 15 00 00 00
	00		 call	 DWORD PTR __imp__SendMessageA@16
$LN2@OnBtanalys:
; File D:\git\src\IBK\IBK_DRFN\ProjSrc\SrcDrfn\Chart\MULTICHART\ExtInputBarDlg.cpp

; 1891 : }

  00021	c3		 ret	 0
?OnBtanalysispattern@CExtInputBarDlg@@IAEXXZ ENDP	; CExtInputBarDlg::OnBtanalysispattern
_TEXT	ENDS
; Function compile flags: /Ogtp
; File D:\git\src\IBK\IBK_DRFN\ProjSrc\SrcDrfn\Chart\MULTICHART\ExtInputBarDlg.cpp
; File C:\Program Files (x86)\Microsoft Visual Studio\2019\Community\VC\Tools\MSVC\14.29.30133\atlmfc\include\afxwin2.inl
; File D:\git\src\IBK\IBK_DRFN\ProjSrc\SrcDrfn\Chart\MULTICHART\ExtInputBarDlg.cpp
;	COMDAT ?OnBtexprev@CExtInputBarDlg@@IAEXXZ
_TEXT	SEGMENT
?OnBtexprev@CExtInputBarDlg@@IAEXXZ PROC		; CExtInputBarDlg::OnBtexprev, COMDAT
; _this$ = ecx
; File C:\Program Files (x86)\Microsoft Visual Studio\2019\Community\VC\Tools\MSVC\14.29.30133\atlmfc\include\afxwin2.inl

; 213  : 	{ ASSERT(::IsWindow(m_hWnd)); return CWnd::FromHandle(::GetParent(m_hWnd)); }

  00000	ff 71 20	 push	 DWORD PTR [ecx+32]
  00003	ff 15 00 00 00
	00		 call	 DWORD PTR __imp__GetParent@4
  00009	50		 push	 eax
  0000a	e8 00 00 00 00	 call	 ?FromHandle@CWnd@@SGPAV1@PAUHWND__@@@Z ; CWnd::FromHandle
; File D:\git\src\IBK\IBK_DRFN\ProjSrc\SrcDrfn\Chart\MULTICHART\ExtInputBarDlg.cpp

; 1883 : 	((CStdDialog*)GetParent())->SetJongListPrev();	

  0000f	8b c8		 mov	 ecx, eax
  00011	e9 00 00 00 00	 jmp	 ?SetJongListPrev@CStdDialog@@QAEXXZ ; CStdDialog::SetJongListPrev
?OnBtexprev@CExtInputBarDlg@@IAEXXZ ENDP		; CExtInputBarDlg::OnBtexprev
_TEXT	ENDS
; Function compile flags: /Ogtp
; File D:\git\src\IBK\IBK_DRFN\ProjSrc\SrcDrfn\Chart\MULTICHART\ExtInputBarDlg.cpp
; File C:\Program Files (x86)\Microsoft Visual Studio\2019\Community\VC\Tools\MSVC\14.29.30133\atlmfc\include\afxwin2.inl
; File D:\git\src\IBK\IBK_DRFN\ProjSrc\SrcDrfn\Chart\MULTICHART\ExtInputBarDlg.cpp
;	COMDAT ?OnBtexnext@CExtInputBarDlg@@IAEXXZ
_TEXT	SEGMENT
?OnBtexnext@CExtInputBarDlg@@IAEXXZ PROC		; CExtInputBarDlg::OnBtexnext, COMDAT
; _this$ = ecx
; File C:\Program Files (x86)\Microsoft Visual Studio\2019\Community\VC\Tools\MSVC\14.29.30133\atlmfc\include\afxwin2.inl

; 213  : 	{ ASSERT(::IsWindow(m_hWnd)); return CWnd::FromHandle(::GetParent(m_hWnd)); }

  00000	ff 71 20	 push	 DWORD PTR [ecx+32]
  00003	ff 15 00 00 00
	00		 call	 DWORD PTR __imp__GetParent@4
  00009	50		 push	 eax
  0000a	e8 00 00 00 00	 call	 ?FromHandle@CWnd@@SGPAV1@PAUHWND__@@@Z ; CWnd::FromHandle
; File D:\git\src\IBK\IBK_DRFN\ProjSrc\SrcDrfn\Chart\MULTICHART\ExtInputBarDlg.cpp

; 1877 : 	((CStdDialog*)GetParent())->SetJongListNext();	

  0000f	8b c8		 mov	 ecx, eax
  00011	e9 00 00 00 00	 jmp	 ?SetJongListNext@CStdDialog@@QAEXXZ ; CStdDialog::SetJongListNext
?OnBtexnext@CExtInputBarDlg@@IAEXXZ ENDP		; CExtInputBarDlg::OnBtexnext
_TEXT	ENDS
; Function compile flags: /Ogtp
; File D:\git\src\IBK\IBK_DRFN\ProjSrc\SrcDrfn\Chart\MULTICHART\ExtInputBarDlg.cpp
; File C:\Program Files (x86)\Microsoft Visual Studio\2019\Community\VC\Tools\MSVC\14.29.30133\atlmfc\include\afxwin2.inl
; File D:\git\src\IBK\IBK_DRFN\ProjSrc\SrcDrfn\Chart\MULTICHART\ExtInputBarDlg.cpp
; File C:\Program Files (x86)\Microsoft Visual Studio\2019\Community\VC\Tools\MSVC\14.29.30133\atlmfc\include\afxwin2.inl
; File D:\git\src\IBK\IBK_DRFN\ProjSrc\SrcDrfn\Chart\MULTICHART\ExtInputBarDlg.cpp
;	COMDAT ?OnLButtonDown@CExtInputBarDlg@@IAEXIVCPoint@@@Z
_TEXT	SEGMENT
_nFlags$ = 8						; size = 4
_point$ = 12						; size = 8
?OnLButtonDown@CExtInputBarDlg@@IAEXIVCPoint@@@Z PROC	; CExtInputBarDlg::OnLButtonDown, COMDAT
; _this$ = ecx

; 1867 : {

  00000	56		 push	 esi
  00001	8b f1		 mov	 esi, ecx

; 1869 : 	if(m_MatrixSelecter.GetSafeHwnd() != NULL)

  00003	8d 8e e0 31 00
	00		 lea	 ecx, DWORD PTR [esi+12768]
; File C:\Program Files (x86)\Microsoft Visual Studio\2019\Community\VC\Tools\MSVC\14.29.30133\atlmfc\include\afxwin2.inl

; 25   : 	{ return this == NULL ? NULL : m_hWnd; }

  00009	85 c9		 test	 ecx, ecx
  0000b	74 0d		 je	 SHORT $LN2@OnLButtonD
; File D:\git\src\IBK\IBK_DRFN\ProjSrc\SrcDrfn\Chart\MULTICHART\ExtInputBarDlg.cpp

; 1869 : 	if(m_MatrixSelecter.GetSafeHwnd() != NULL)

  0000d	83 79 20 00	 cmp	 DWORD PTR [ecx+32], 0
  00011	74 07		 je	 SHORT $LN2@OnLButtonD

; 1870 : 		m_MatrixSelecter.ShowWindow(SW_HIDE);	

  00013	6a 00		 push	 0
  00015	e8 00 00 00 00	 call	 ?ShowWindow@CWnd@@QAEHH@Z ; CWnd::ShowWindow
$LN2@OnLButtonD:
; File C:\Program Files (x86)\Microsoft Visual Studio\2019\Community\VC\Tools\MSVC\14.29.30133\atlmfc\include\afxwin2.inl

; 432  : 	{ Default(); }

  0001a	8b ce		 mov	 ecx, esi
  0001c	e8 00 00 00 00	 call	 ?Default@CWnd@@IAEJXZ	; CWnd::Default
  00021	5e		 pop	 esi
; File D:\git\src\IBK\IBK_DRFN\ProjSrc\SrcDrfn\Chart\MULTICHART\ExtInputBarDlg.cpp

; 1872 : }

  00022	c2 0c 00	 ret	 12			; 0000000cH
?OnLButtonDown@CExtInputBarDlg@@IAEXIVCPoint@@@Z ENDP	; CExtInputBarDlg::OnLButtonDown
_TEXT	ENDS
; Function compile flags: /Ogtp
; File D:\git\src\IBK\IBK_DRFN\ProjSrc\SrcDrfn\Chart\MULTICHART\ExtInputBarDlg.cpp
; File C:\Program Files (x86)\Microsoft Visual Studio\2019\Community\VC\Tools\MSVC\14.29.30133\atlmfc\include\afxwin2.inl
; File D:\git\src\IBK\IBK_DRFN\ProjSrc\SrcDrfn\Chart\MULTICHART\ExtInputBarDlg.cpp
; File C:\Program Files (x86)\Microsoft Visual Studio\2019\Community\VC\Tools\MSVC\14.29.30133\atlmfc\include\afxwin2.inl
; File D:\git\src\IBK\IBK_DRFN\ProjSrc\SrcDrfn\Chart\MULTICHART\ExtInputBarDlg.cpp
; File D:\git\src\IBK\IBK_DRFN\ProjSrc\SrcDrfn\Chart\MULTICHART\MatrixSelecterDlg.h
; File D:\git\src\IBK\IBK_DRFN\ProjSrc\SrcDrfn\Chart\MULTICHART\ExtInputBarDlg.cpp
;	COMDAT ?OnBtshowmatrix@CExtInputBarDlg@@IAEXXZ
_TEXT	SEGMENT
?OnBtshowmatrix@CExtInputBarDlg@@IAEXXZ PROC		; CExtInputBarDlg::OnBtshowmatrix, COMDAT
; _this$ = ecx

; 1847 : {

  00000	56		 push	 esi
  00001	57		 push	 edi
  00002	8b f9		 mov	 edi, ecx

; 1850 : 	if(m_MatrixSelecter.GetSafeHwnd() )

  00004	8d b7 e0 31 00
	00		 lea	 esi, DWORD PTR [edi+12768]
; File C:\Program Files (x86)\Microsoft Visual Studio\2019\Community\VC\Tools\MSVC\14.29.30133\atlmfc\include\afxwin2.inl

; 25   : 	{ return this == NULL ? NULL : m_hWnd; }

  0000a	85 f6		 test	 esi, esi
  0000c	74 15		 je	 SHORT $LN17@OnBtshowma
; File D:\git\src\IBK\IBK_DRFN\ProjSrc\SrcDrfn\Chart\MULTICHART\ExtInputBarDlg.cpp

; 1850 : 	if(m_MatrixSelecter.GetSafeHwnd() )

  0000e	83 7e 20 00	 cmp	 DWORD PTR [esi+32], 0
  00012	74 07		 je	 SHORT $LN2@OnBtshowma

; 1851 : 	{
; 1852 : 		m_MatrixSelecter.DestroyWindow();

  00014	8b 06		 mov	 eax, DWORD PTR [esi]
  00016	8b ce		 mov	 ecx, esi
  00018	ff 50 68	 call	 DWORD PTR [eax+104]
$LN2@OnBtshowma:

; 1853 : 	}
; 1854 : 	//>>
; 1855 : 	if(m_MatrixSelecter.GetSafeHwnd() == NULL)

  0001b	8b c6		 mov	 eax, esi
  0001d	83 78 20 00	 cmp	 DWORD PTR [eax+32], 0
  00021	75 59		 jne	 SHORT $LN3@OnBtshowma
$LN17@OnBtshowma:
; File C:\Program Files (x86)\Microsoft Visual Studio\2019\Community\VC\Tools\MSVC\14.29.30133\atlmfc\include\afxwin2.inl

; 32   : 	{ ASSERT(::IsWindow(m_hWnd)); return ::SendMessage(m_hWnd, message, wParam, lParam); }

  00023	6a 00		 push	 0
  00025	6a 00		 push	 0
  00027	6a 07		 push	 7
  00029	ff 77 20	 push	 DWORD PTR [edi+32]
  0002c	ff 15 00 00 00
	00		 call	 DWORD PTR __imp__SendMessageA@16
; File D:\git\src\IBK\IBK_DRFN\ProjSrc\SrcDrfn\Chart\MULTICHART\ExtInputBarDlg.cpp

; 1858 : 		m_MatrixSelecter.Create(CMatrixSelecterDlg::IDD,this);

  00032	8b 06		 mov	 eax, DWORD PTR [esi]
  00034	8b ce		 mov	 ecx, esi
  00036	57		 push	 edi
  00037	68 98 17 00 00	 push	 6040			; 00001798H
  0003c	ff 90 6c 01 00
	00		 call	 DWORD PTR [eax+364]

; 1859 : 		m_MatrixSelecter.SetpFrameDlg(this);
; 1860 : 		m_MatrixSelecter.SetBesideWnd(&m_btShowMatrix);

  00042	8d 87 c8 1e 00
	00		 lea	 eax, DWORD PTR [edi+7880]
  00048	89 bf d8 32 00
	00		 mov	 DWORD PTR [edi+13016], edi
  0004e	89 87 dc 32 00
	00		 mov	 DWORD PTR [edi+13020], eax
; File D:\git\src\IBK\IBK_DRFN\ProjSrc\SrcDrfn\Chart\MULTICHART\MatrixSelecterDlg.h

; 19   : 	void SetMatrix(int nX, int nY) { m_nXOriginal = m_nX = nX; m_nYOriginal = m_nY = nY;}

  00054	c7 87 88 32 00
	00 05 00 00 00	 mov	 DWORD PTR [edi+12936], 5
  0005e	c7 87 90 32 00
	00 05 00 00 00	 mov	 DWORD PTR [edi+12944], 5
  00068	c7 87 8c 32 00
	00 04 00 00 00	 mov	 DWORD PTR [edi+12940], 4
  00072	c7 87 94 32 00
	00 04 00 00 00	 mov	 DWORD PTR [edi+12948], 4
$LN3@OnBtshowma:
; File D:\git\src\IBK\IBK_DRFN\ProjSrc\SrcDrfn\Chart\MULTICHART\ExtInputBarDlg.cpp

; 1863 : 	m_MatrixSelecter.ShowMatrix();

  0007c	6a 01		 push	 1
  0007e	8b ce		 mov	 ecx, esi
  00080	e8 00 00 00 00	 call	 ?ShowMatrix@CMatrixSelecterDlg@@QAEXH@Z ; CMatrixSelecterDlg::ShowMatrix
  00085	5f		 pop	 edi
  00086	5e		 pop	 esi

; 1864 : }

  00087	c3		 ret	 0
?OnBtshowmatrix@CExtInputBarDlg@@IAEXXZ ENDP		; CExtInputBarDlg::OnBtshowmatrix
_TEXT	ENDS
; Function compile flags: /Ogtp
; File D:\git\src\IBK\IBK_DRFN\ProjSrc\SrcDrfn\Chart\MULTICHART\ExtInputBarDlg.cpp
; File C:\Program Files (x86)\Microsoft Visual Studio\2019\Community\VC\Tools\MSVC\14.29.30133\atlmfc\include\afxwin2.inl
; File D:\git\src\IBK\IBK_DRFN\ProjSrc\SrcDrfn\Chart\MULTICHART\ExtInputBarDlg.cpp
; File C:\Program Files (x86)\Microsoft Visual Studio\2019\Community\VC\Tools\MSVC\14.29.30133\atlmfc\include\afxwin2.inl
; File D:\git\src\IBK\IBK_DRFN\ProjSrc\SrcDrfn\Chart\MULTICHART\ExtInputBarDlg.cpp
;	COMDAT ?OnBtsetenvir@CExtInputBarDlg@@IAEXXZ
_TEXT	SEGMENT
?OnBtsetenvir@CExtInputBarDlg@@IAEXXZ PROC		; CExtInputBarDlg::OnBtsetenvir, COMDAT
; _this$ = ecx

; 1842 : 	if(m_pChartMng->GetSafeHwnd()) // 2005. 04. 22 by Nam

  00000	8b 81 00 33 00
	00		 mov	 eax, DWORD PTR [ecx+13056]
; File C:\Program Files (x86)\Microsoft Visual Studio\2019\Community\VC\Tools\MSVC\14.29.30133\atlmfc\include\afxwin2.inl

; 25   : 	{ return this == NULL ? NULL : m_hWnd; }

  00006	85 c0		 test	 eax, eax
  00008	74 17		 je	 SHORT $LN2@OnBtsetenv
  0000a	8b 40 20	 mov	 eax, DWORD PTR [eax+32]
; File D:\git\src\IBK\IBK_DRFN\ProjSrc\SrcDrfn\Chart\MULTICHART\ExtInputBarDlg.cpp

; 1842 : 	if(m_pChartMng->GetSafeHwnd()) // 2005. 04. 22 by Nam

  0000d	85 c0		 test	 eax, eax
  0000f	74 10		 je	 SHORT $LN2@OnBtsetenv
; File C:\Program Files (x86)\Microsoft Visual Studio\2019\Community\VC\Tools\MSVC\14.29.30133\atlmfc\include\afxwin2.inl

; 32   : 	{ ASSERT(::IsWindow(m_hWnd)); return ::SendMessage(m_hWnd, message, wParam, lParam); }

  00011	6a 00		 push	 0
  00013	6a 00		 push	 0
  00015	68 2c 04 00 00	 push	 1068			; 0000042cH
  0001a	50		 push	 eax
  0001b	ff 15 00 00 00
	00		 call	 DWORD PTR __imp__SendMessageA@16
$LN2@OnBtsetenv:
; File D:\git\src\IBK\IBK_DRFN\ProjSrc\SrcDrfn\Chart\MULTICHART\ExtInputBarDlg.cpp

; 1844 : }

  00021	c3		 ret	 0
?OnBtsetenvir@CExtInputBarDlg@@IAEXXZ ENDP		; CExtInputBarDlg::OnBtsetenvir
_TEXT	ENDS
; Function compile flags: /Ogtp
; File D:\git\src\IBK\IBK_DRFN\ProjSrc\SrcDrfn\Chart\MULTICHART\ExtInputBarDlg.cpp
;	COMDAT ?OnBtprint@CExtInputBarDlg@@IAEXXZ
_TEXT	SEGMENT
?OnBtprint@CExtInputBarDlg@@IAEXXZ PROC			; CExtInputBarDlg::OnBtprint, COMDAT
; _this$ = ecx

; 1836 : //	::SendMessage(((CStdDialog*)GetParent())->m_hMainFrame,WM_COMMAND, (WPARAM)ID_FILE_PRINT, 0);
; 1837 : }

  00000	c2 00 00	 ret	 0
?OnBtprint@CExtInputBarDlg@@IAEXXZ ENDP			; CExtInputBarDlg::OnBtprint
_TEXT	ENDS
; Function compile flags: /Ogtp
; File D:\git\src\IBK\IBK_DRFN\ProjSrc\SrcDrfn\Chart\MULTICHART\ExtInputBarDlg.cpp
; File C:\Program Files (x86)\Microsoft Visual Studio\2019\Community\VC\Tools\MSVC\14.29.30133\atlmfc\include\afxwin1.inl
; File D:\git\src\IBK\IBK_DRFN\ProjSrc\SrcDrfn\Chart\MULTICHART\ExtInputBarDlg.cpp
; File C:\Program Files (x86)\Microsoft Visual Studio\2019\Community\VC\Tools\MSVC\14.29.30133\atlmfc\include\afxwin1.inl
; File D:\git\src\IBK\IBK_DRFN\ProjSrc\SrcDrfn\Chart\MULTICHART\ExtInputBarDlg.cpp
;	COMDAT ?OnCtlColor@CExtInputBarDlg@@IAEPAUHBRUSH__@@PAVCDC@@PAVCWnd@@I@Z
_TEXT	SEGMENT
_pDC$ = 8						; size = 4
_pWnd$ = 12						; size = 4
_nCtlColor$ = 16					; size = 4
?OnCtlColor@CExtInputBarDlg@@IAEPAUHBRUSH__@@PAVCDC@@PAVCWnd@@I@Z PROC ; CExtInputBarDlg::OnCtlColor, COMDAT
; _this$ = ecx

; 1780 : {

  00000	55		 push	 ebp
  00001	8b ec		 mov	 ebp, esp
  00003	53		 push	 ebx

; 1781 : 	HBRUSH hbr = CRscDlg::OnCtlColor(pDC, pWnd, nCtlColor);

  00004	8b 5d 08	 mov	 ebx, DWORD PTR _pDC$[ebp]
  00007	56		 push	 esi
  00008	8b 75 10	 mov	 esi, DWORD PTR _nCtlColor$[ebp]
  0000b	57		 push	 edi
  0000c	56		 push	 esi
  0000d	ff 75 0c	 push	 DWORD PTR _pWnd$[ebp]
  00010	8b f9		 mov	 edi, ecx
  00012	53		 push	 ebx
  00013	e8 00 00 00 00	 call	 ?OnCtlColor@CWnd@@IAEPAUHBRUSH__@@PAVCDC@@PAV1@I@Z ; CWnd::OnCtlColor

; 1782 : 	
; 1783 : 	// TODO: Change any attributes of the DC here
; 1784 : 	switch(nCtlColor) 

  00018	83 ee 01	 sub	 esi, 1
  0001b	74 26		 je	 SHORT $LN1@OnCtlColor
  0001d	83 ee 01	 sub	 esi, 1
  00020	74 21		 je	 SHORT $LN1@OnCtlColor

; 1785 : 	{
; 1786 : 	case CTLCOLOR_EDIT:
; 1787 : 	case CTLCOLOR_LISTBOX:
; 1788 : 		return hbr;
; 1789 : 		break;
; 1790 : 	default:
; 1791 : 		pDC->SetBkColor(m_crBk);

  00022	8b 03		 mov	 eax, DWORD PTR [ebx]
  00024	8b cb		 mov	 ecx, ebx
  00026	ff b7 f0 32 00
	00		 push	 DWORD PTR [edi+13040]
  0002c	ff 50 34	 call	 DWORD PTR [eax+52]

; 1792 : 		return m_brBkColor;

  0002f	8d 87 e8 32 00
	00		 lea	 eax, DWORD PTR [edi+13032]
; File C:\Program Files (x86)\Microsoft Visual Studio\2019\Community\VC\Tools\MSVC\14.29.30133\atlmfc\include\afxwin1.inl

; 124  : 	{ return (HBRUSH)(this == NULL ? NULL : m_hObject); }

  00035	85 c0		 test	 eax, eax
  00037	75 07		 jne	 SHORT $LN10@OnCtlColor
; File D:\git\src\IBK\IBK_DRFN\ProjSrc\SrcDrfn\Chart\MULTICHART\ExtInputBarDlg.cpp

; 1798 : }

  00039	5f		 pop	 edi
  0003a	5e		 pop	 esi
  0003b	5b		 pop	 ebx
  0003c	5d		 pop	 ebp
  0003d	c2 0c 00	 ret	 12			; 0000000cH
$LN10@OnCtlColor:
; File C:\Program Files (x86)\Microsoft Visual Studio\2019\Community\VC\Tools\MSVC\14.29.30133\atlmfc\include\afxwin1.inl

; 124  : 	{ return (HBRUSH)(this == NULL ? NULL : m_hObject); }

  00040	8b 40 04	 mov	 eax, DWORD PTR [eax+4]
$LN1@OnCtlColor:
  00043	5f		 pop	 edi
; File D:\git\src\IBK\IBK_DRFN\ProjSrc\SrcDrfn\Chart\MULTICHART\ExtInputBarDlg.cpp

; 1798 : }

  00044	5e		 pop	 esi
  00045	5b		 pop	 ebx
  00046	5d		 pop	 ebp
  00047	c2 0c 00	 ret	 12			; 0000000cH
?OnCtlColor@CExtInputBarDlg@@IAEPAUHBRUSH__@@PAVCDC@@PAVCWnd@@I@Z ENDP ; CExtInputBarDlg::OnCtlColor
_TEXT	ENDS
; Function compile flags: /Ogtp
; File D:\git\src\IBK\IBK_DRFN\ProjSrc\SrcDrfn\Chart\MULTICHART\ExtInputBarDlg.cpp
; File C:\Program Files (x86)\Microsoft Visual Studio\2019\Community\VC\Tools\MSVC\14.29.30133\atlmfc\include\afxwin2.inl
; File D:\git\src\IBK\IBK_DRFN\ProjSrc\SrcDrfn\Chart\MULTICHART\ExtInputBarDlg.cpp
; File C:\Program Files (x86)\Microsoft Visual Studio\2019\Community\VC\Tools\MSVC\14.29.30133\atlmfc\include\afxwin2.inl
; File D:\git\src\IBK\IBK_DRFN\ProjSrc\SrcDrfn\Chart\MULTICHART\ExtInputBarDlg.cpp
;	COMDAT ?OnChkshowscale@CExtInputBarDlg@@IAEXXZ
_TEXT	SEGMENT
?OnChkshowscale@CExtInputBarDlg@@IAEXXZ PROC		; CExtInputBarDlg::OnChkshowscale, COMDAT
; _this$ = ecx

; 1765 : {

  00000	56		 push	 esi
  00001	8b f1		 mov	 esi, ecx

; 1767 : 	if(m_pChartMng->GetSafeHwnd()) // 2005. 04. 22 by Nam

  00003	8b 86 00 33 00
	00		 mov	 eax, DWORD PTR [esi+13056]
; File C:\Program Files (x86)\Microsoft Visual Studio\2019\Community\VC\Tools\MSVC\14.29.30133\atlmfc\include\afxwin2.inl

; 25   : 	{ return this == NULL ? NULL : m_hWnd; }

  00009	85 c0		 test	 eax, eax
  0000b	74 28		 je	 SHORT $LN2@OnChkshows
; File D:\git\src\IBK\IBK_DRFN\ProjSrc\SrcDrfn\Chart\MULTICHART\ExtInputBarDlg.cpp

; 1767 : 	if(m_pChartMng->GetSafeHwnd()) // 2005. 04. 22 by Nam

  0000d	83 78 20 00	 cmp	 DWORD PTR [eax+32], 0
  00011	74 22		 je	 SHORT $LN2@OnChkshows

; 1768 : 		m_pChartMng->SendMessage(UMSG_SHOWSCALE,m_chkShowScale.GetCheck());

  00013	8d 8e 88 21 00
	00		 lea	 ecx, DWORD PTR [esi+8584]
  00019	e8 00 00 00 00	 call	 ?GetCheck@CILButton@@QAEHXZ ; CILButton::GetCheck
; File C:\Program Files (x86)\Microsoft Visual Studio\2019\Community\VC\Tools\MSVC\14.29.30133\atlmfc\include\afxwin2.inl

; 32   : 	{ ASSERT(::IsWindow(m_hWnd)); return ::SendMessage(m_hWnd, message, wParam, lParam); }

  0001e	6a 00		 push	 0
  00020	50		 push	 eax
  00021	8b 86 00 33 00
	00		 mov	 eax, DWORD PTR [esi+13056]
  00027	68 1a 04 00 00	 push	 1050			; 0000041aH
  0002c	ff 70 20	 push	 DWORD PTR [eax+32]
  0002f	ff 15 00 00 00
	00		 call	 DWORD PTR __imp__SendMessageA@16
$LN2@OnChkshows:
  00035	5e		 pop	 esi
; File D:\git\src\IBK\IBK_DRFN\ProjSrc\SrcDrfn\Chart\MULTICHART\ExtInputBarDlg.cpp

; 1769 : }

  00036	c3		 ret	 0
?OnChkshowscale@CExtInputBarDlg@@IAEXXZ ENDP		; CExtInputBarDlg::OnChkshowscale
_TEXT	ENDS
; Function compile flags: /Ogtp
; File D:\git\src\IBK\IBK_DRFN\ProjSrc\SrcDrfn\Chart\MULTICHART\ExtInputBarDlg.cpp
; File C:\Program Files (x86)\Microsoft Visual Studio\2019\Community\VC\Tools\MSVC\14.29.30133\atlmfc\include\afxwin2.inl
; File D:\git\src\IBK\IBK_DRFN\ProjSrc\SrcDrfn\Chart\MULTICHART\ExtInputBarDlg.cpp
;	COMDAT ?OnDestroy@CExtInputBarDlg@@IAEXXZ
_TEXT	SEGMENT
_strCfgFile$2 = -20					; size = 4
_strTemp$3 = -16					; size = 4
__$EHRec$ = -12						; size = 12
?OnDestroy@CExtInputBarDlg@@IAEXXZ PROC			; CExtInputBarDlg::OnDestroy, COMDAT
; _this$ = ecx

; 1746 : {	

  00000	55		 push	 ebp
  00001	8b ec		 mov	 ebp, esp
  00003	6a ff		 push	 -1
  00005	68 00 00 00 00	 push	 __ehhandler$?OnDestroy@CExtInputBarDlg@@IAEXXZ
  0000a	64 a1 00 00 00
	00		 mov	 eax, DWORD PTR fs:0
  00010	50		 push	 eax
  00011	83 ec 08	 sub	 esp, 8
  00014	53		 push	 ebx
  00015	56		 push	 esi
  00016	57		 push	 edi
  00017	a1 00 00 00 00	 mov	 eax, DWORD PTR ___security_cookie
  0001c	33 c5		 xor	 eax, ebp
  0001e	50		 push	 eax
  0001f	8d 45 f4	 lea	 eax, DWORD PTR __$EHRec$[ebp]
  00022	64 a3 00 00 00
	00		 mov	 DWORD PTR fs:0, eax
  00028	8b f9		 mov	 edi, ecx

; 1748 : 	if(m_MatrixSelecter.GetSafeHwnd() != NULL)

  0002a	8d 8f e0 31 00
	00		 lea	 ecx, DWORD PTR [edi+12768]
; File C:\Program Files (x86)\Microsoft Visual Studio\2019\Community\VC\Tools\MSVC\14.29.30133\atlmfc\include\afxwin2.inl

; 25   : 	{ return this == NULL ? NULL : m_hWnd; }

  00030	85 c9		 test	 ecx, ecx
  00032	74 0b		 je	 SHORT $LN2@OnDestroy
; File D:\git\src\IBK\IBK_DRFN\ProjSrc\SrcDrfn\Chart\MULTICHART\ExtInputBarDlg.cpp

; 1748 : 	if(m_MatrixSelecter.GetSafeHwnd() != NULL)

  00034	83 79 20 00	 cmp	 DWORD PTR [ecx+32], 0
  00038	74 05		 je	 SHORT $LN2@OnDestroy

; 1749 : 		m_MatrixSelecter.DestroyWindow();

  0003a	8b 01		 mov	 eax, DWORD PTR [ecx]
  0003c	ff 50 68	 call	 DWORD PTR [eax+104]
$LN2@OnDestroy:

; 1750 : 	m_brBkColor.DeleteObject();

  0003f	8d 8f e8 32 00
	00		 lea	 ecx, DWORD PTR [edi+13032]
  00045	e8 00 00 00 00	 call	 ?DeleteObject@CGdiObject@@QAEHXZ ; CGdiObject::DeleteObject

; 3265 : 	CString strCfgFile = m_pStdDialog->m_strConfig;

  0004a	8b 87 a8 00 00
	00		 mov	 eax, DWORD PTR [edi+168]
  00050	8d 4d ec	 lea	 ecx, DWORD PTR _strCfgFile$2[ebp]
  00053	05 a8 07 00 00	 add	 eax, 1960		; 000007a8H
  00058	50		 push	 eax
  00059	ff 15 00 00 00
	00		 call	 DWORD PTR __imp_??0?$CStringT@DV?$StrTraitMFC_DLL@DV?$ChTraitsCRT@D@ATL@@@@@ATL@@QAE@ABV01@@Z

; 3266 : 	
; 3267 : 	CString strTemp;

  0005f	8d 4d f0	 lea	 ecx, DWORD PTR _strTemp$3[ebp]
  00062	c7 45 fc 00 00
	00 00		 mov	 DWORD PTR __$EHRec$[ebp+8], 0
  00069	ff 15 00 00 00
	00		 call	 DWORD PTR __imp_??0?$CStringT@DV?$StrTraitMFC_DLL@DV?$ChTraitsCRT@D@ATL@@@@@ATL@@QAE@XZ

; 3268 : 	UINT nOpenedOwner = 0; //@Solomon-091015::SendMessage(((CStdDialog*)GetParent())->m_hViewInMain,RMSG_GETOPENEDOWNER,0,0);
; 3269 : 	//nOpenedOwner  = 0 : / 
; 3270 : 	//nOpenedOwner  = 1 :     ( )
; 3271 : 	//nOpenedOwner  = 2 : ,dll   (OpenMapData )
; 3272 : 	if(nOpenedOwner==0&&m_nSave)

  0006f	8b 87 08 33 00
	00		 mov	 eax, DWORD PTR [edi+13064]
  00075	8b 1d 00 00 00
	00		 mov	 ebx, DWORD PTR __imp__WritePrivateProfileStringA@16
  0007b	c6 45 fc 01	 mov	 BYTE PTR __$EHRec$[ebp+8], 1
  0007f	85 c0		 test	 eax, eax
  00081	74 31		 je	 SHORT $LN12@OnDestroy

; 3273 : 	{
; 3274 : 		if(m_nSave==SAVE_TRUE)

  00083	83 f8 01	 cmp	 eax, 1
  00086	75 07		 jne	 SHORT $LN13@OnDestroy

; 3275 : 		{
; 3276 : 			strTemp = "1";

  00088	68 00 00 00 00	 push	 OFFSET ??_C@_01HIHLOKLC@1@

; 3277 : 		}

  0008d	eb 0a		 jmp	 SHORT $LN52@OnDestroy
$LN13@OnDestroy:

; 3278 : 		else if(m_nSave==SAVE_FALSE)

  0008f	83 f8 02	 cmp	 eax, 2
  00092	75 0e		 jne	 SHORT $LN15@OnDestroy

; 3279 : 		{
; 3280 : 			strTemp = "0";

  00094	68 00 00 00 00	 push	 OFFSET ??_C@_01GBGANLPD@0@
$LN52@OnDestroy:

; 3281 : 		}
; 3282 : 		::WritePrivateProfileString("ExtInputBar","Saved",strTemp,strCfgFile);

  00099	8d 4d f0	 lea	 ecx, DWORD PTR _strTemp$3[ebp]
  0009c	ff 15 00 00 00
	00		 call	 DWORD PTR __imp_??4?$CStringT@DV?$StrTraitMFC_DLL@DV?$ChTraitsCRT@D@ATL@@@@@ATL@@QAEAAV01@PBD@Z
$LN15@OnDestroy:
  000a2	ff 75 ec	 push	 DWORD PTR _strCfgFile$2[ebp]
  000a5	ff 75 f0	 push	 DWORD PTR _strTemp$3[ebp]
  000a8	68 00 00 00 00	 push	 OFFSET ??_C@_05GBKMCCNA@Saved@
  000ad	68 00 00 00 00	 push	 OFFSET ??_C@_0M@POCNEIHC@ExtInputBar@
  000b2	ff d3		 call	 ebx
$LN12@OnDestroy:

; 3283 : 	}
; 3284 : 	
; 3285 : 	strTemp.Format("%d", m_bNormalizedMinuteTimeRule);

  000b4	ff b7 0c 33 00
	00		 push	 DWORD PTR [edi+13068]
  000ba	8b 35 00 00 00
	00		 mov	 esi, DWORD PTR __imp_?Format@?$CStringT@DV?$StrTraitMFC_DLL@DV?$ChTraitsCRT@D@ATL@@@@@ATL@@QAAXPBDZZ
  000c0	8d 45 f0	 lea	 eax, DWORD PTR _strTemp$3[ebp]
  000c3	68 00 00 00 00	 push	 OFFSET ??_C@_02DPKJAMEF@?$CFd@
  000c8	50		 push	 eax
  000c9	ff d6		 call	 esi
  000cb	83 c4 0c	 add	 esp, 12			; 0000000cH

; 3286 : 	::WritePrivateProfileString("ExtInputBar","NormalizedMinuteTimeRule",strTemp,strCfgFile);	

  000ce	ff 75 ec	 push	 DWORD PTR _strCfgFile$2[ebp]
  000d1	ff 75 f0	 push	 DWORD PTR _strTemp$3[ebp]
  000d4	68 00 00 00 00	 push	 OFFSET ??_C@_0BJ@LOFKHOGA@NormalizedMinuteTimeRule@
  000d9	68 00 00 00 00	 push	 OFFSET ??_C@_0M@POCNEIHC@ExtInputBar@
  000de	ff d3		 call	 ebx

; 3287 : 	
; 3288 : 	strTemp.Format("%d", m_nDragModeType);

  000e0	ff b7 18 33 00
	00		 push	 DWORD PTR [edi+13080]
  000e6	8d 45 f0	 lea	 eax, DWORD PTR _strTemp$3[ebp]
  000e9	68 00 00 00 00	 push	 OFFSET ??_C@_02DPKJAMEF@?$CFd@
  000ee	50		 push	 eax
  000ef	ff d6		 call	 esi
  000f1	83 c4 0c	 add	 esp, 12			; 0000000cH

; 3289 : 	::WritePrivateProfileString("ExtInputBar","DragModeType",strTemp,strCfgFile);

  000f4	ff 75 ec	 push	 DWORD PTR _strCfgFile$2[ebp]
  000f7	ff 75 f0	 push	 DWORD PTR _strTemp$3[ebp]
  000fa	68 00 00 00 00	 push	 OFFSET ??_C@_0N@HBKGNKCN@DragModeType@
  000ff	68 00 00 00 00	 push	 OFFSET ??_C@_0M@POCNEIHC@ExtInputBar@
  00104	ff d3		 call	 ebx

; 3290 : 	
; 3291 : 	strTemp.Format("%d", m_bChkCrossLine);

  00106	ff b7 24 33 00
	00		 push	 DWORD PTR [edi+13092]
  0010c	8d 45 f0	 lea	 eax, DWORD PTR _strTemp$3[ebp]
  0010f	68 00 00 00 00	 push	 OFFSET ??_C@_02DPKJAMEF@?$CFd@
  00114	50		 push	 eax
  00115	ff d6		 call	 esi
  00117	83 c4 0c	 add	 esp, 12			; 0000000cH

; 3292 : 	::WritePrivateProfileString("ExtInputBar","CrossLine",strTemp,strCfgFile);

  0011a	ff 75 ec	 push	 DWORD PTR _strCfgFile$2[ebp]
  0011d	ff 75 f0	 push	 DWORD PTR _strTemp$3[ebp]
  00120	68 00 00 00 00	 push	 OFFSET ??_C@_09GPLOLDLO@CrossLine@
  00125	68 00 00 00 00	 push	 OFFSET ??_C@_0M@POCNEIHC@ExtInputBar@
  0012a	ff d3		 call	 ebx

; 3293 : 	
; 3294 : 	strTemp.Format("%d", m_bChkSaveJipyoOneFile);

  0012c	ff b7 20 33 00
	00		 push	 DWORD PTR [edi+13088]
  00132	8d 45 f0	 lea	 eax, DWORD PTR _strTemp$3[ebp]
  00135	68 00 00 00 00	 push	 OFFSET ??_C@_02DPKJAMEF@?$CFd@
  0013a	50		 push	 eax
  0013b	ff d6		 call	 esi
  0013d	83 c4 0c	 add	 esp, 12			; 0000000cH

; 3295 : 	::WritePrivateProfileString("ExtInputBar","SaveJipyoOneFile",strTemp,strCfgFile);	

  00140	ff 75 ec	 push	 DWORD PTR _strCfgFile$2[ebp]
  00143	ff 75 f0	 push	 DWORD PTR _strTemp$3[ebp]
  00146	68 00 00 00 00	 push	 OFFSET ??_C@_0BB@GKDGIIFF@SaveJipyoOneFile@
  0014b	68 00 00 00 00	 push	 OFFSET ??_C@_0M@POCNEIHC@ExtInputBar@
  00150	ff d3		 call	 ebx

; 3296 : 	
; 3297 : 	//    - ojtaso (20080723)
; 3298 : 	strTemp.Format("%d", m_bChkSaveAnalTool);

  00152	ff b7 14 33 00
	00		 push	 DWORD PTR [edi+13076]
  00158	8d 45 f0	 lea	 eax, DWORD PTR _strTemp$3[ebp]
  0015b	68 00 00 00 00	 push	 OFFSET ??_C@_02DPKJAMEF@?$CFd@
  00160	50		 push	 eax
  00161	ff d6		 call	 esi
  00163	83 c4 0c	 add	 esp, 12			; 0000000cH

; 3299 : 	::WritePrivateProfileString("ExtInputBar","AnalToolSave",strTemp,strCfgFile);	

  00166	ff 75 ec	 push	 DWORD PTR _strCfgFile$2[ebp]
  00169	ff 75 f0	 push	 DWORD PTR _strTemp$3[ebp]
  0016c	68 00 00 00 00	 push	 OFFSET ??_C@_0N@JLBABMHO@AnalToolSave@
  00171	68 00 00 00 00	 push	 OFFSET ??_C@_0M@POCNEIHC@ExtInputBar@
  00176	ff d3		 call	 ebx

; 3300 : 
; 3301 : // vntsorl:[0001250] [5001]  -           
; 3302 : 	//20110502  >>
; 3303 : 	strTemp.Format("%d", ::GetCommonDataInfo(GetSafeHwnd(), COMDATA_SAVE_JIPYO_PER_CODE_PERIOD, 0));

  00178	6a 00		 push	 0
  0017a	6a 00		 push	 0
  0017c	ff 77 20	 push	 DWORD PTR [edi+32]
  0017f	e8 00 00 00 00	 call	 ?GetCommonDataInfo@@YAHPAUHWND__@@HH@Z ; GetCommonDataInfo
  00184	50		 push	 eax
  00185	8d 45 f0	 lea	 eax, DWORD PTR _strTemp$3[ebp]
  00188	68 00 00 00 00	 push	 OFFSET ??_C@_02DPKJAMEF@?$CFd@
  0018d	50		 push	 eax
  0018e	ff d6		 call	 esi
  00190	83 c4 18	 add	 esp, 24			; 00000018H

; 3304 : 	::WritePrivateProfileString("ExtInputBar", "SaveJipyoPerCodePeriod", strTemp, strCfgFile);

  00193	ff 75 ec	 push	 DWORD PTR _strCfgFile$2[ebp]
  00196	ff 75 f0	 push	 DWORD PTR _strTemp$3[ebp]
  00199	68 00 00 00 00	 push	 OFFSET ??_C@_0BH@NJOBJIAN@SaveJipyoPerCodePeriod@
  0019e	68 00 00 00 00	 push	 OFFSET ??_C@_0M@POCNEIHC@ExtInputBar@
  001a3	ff d3		 call	 ebx

; 3305 : 	//20110502  <<
; 3306 : }

  001a5	8d 4d f0	 lea	 ecx, DWORD PTR _strTemp$3[ebp]
  001a8	ff 15 00 00 00
	00		 call	 DWORD PTR __imp_??1?$CStringT@DV?$StrTraitMFC_DLL@DV?$ChTraitsCRT@D@ATL@@@@@ATL@@QAE@XZ
  001ae	8d 4d ec	 lea	 ecx, DWORD PTR _strCfgFile$2[ebp]
  001b1	c7 45 fc ff ff
	ff ff		 mov	 DWORD PTR __$EHRec$[ebp+8], -1
  001b8	ff 15 00 00 00
	00		 call	 DWORD PTR __imp_??1?$CStringT@DV?$StrTraitMFC_DLL@DV?$ChTraitsCRT@D@ATL@@@@@ATL@@QAE@XZ

; 1751 : 
; 1752 : 	SaveExtInputBar();
; 1753 : 
; 1754 : 	if(m_pMenuChild)

  001be	8b 8f 2c 33 00
	00		 mov	 ecx, DWORD PTR [edi+13100]
  001c4	85 c9		 test	 ecx, ecx
  001c6	74 20		 je	 SHORT $LN3@OnDestroy

; 1755 : 	{
; 1756 : 		m_pMenuChild->DestroyMenu();

  001c8	e8 00 00 00 00	 call	 ?DestroyMenu@CMenu@@QAEHXZ ; CMenu::DestroyMenu

; 1757 : 		delete m_pMenuChild;

  001cd	8b 8f 2c 33 00
	00		 mov	 ecx, DWORD PTR [edi+13100]
  001d3	85 c9		 test	 ecx, ecx
  001d5	74 07		 je	 SHORT $LN5@OnDestroy
  001d7	8b 01		 mov	 eax, DWORD PTR [ecx]
  001d9	6a 01		 push	 1
  001db	ff 50 04	 call	 DWORD PTR [eax+4]
$LN5@OnDestroy:

; 1758 : 		m_pMenuChild = NULL;

  001de	c7 87 2c 33 00
	00 00 00 00 00	 mov	 DWORD PTR [edi+13100], 0
$LN3@OnDestroy:

; 1759 : 	}
; 1760 : 
; 1761 : 	CRscDlg::OnDestroy();	

  001e8	8b cf		 mov	 ecx, edi
  001ea	e8 00 00 00 00	 call	 ?OnDestroy@CWnd@@IAEXXZ	; CWnd::OnDestroy

; 1762 : }

  001ef	8b 4d f4	 mov	 ecx, DWORD PTR __$EHRec$[ebp]
  001f2	64 89 0d 00 00
	00 00		 mov	 DWORD PTR fs:0, ecx
  001f9	59		 pop	 ecx
  001fa	5f		 pop	 edi
  001fb	5e		 pop	 esi
  001fc	5b		 pop	 ebx
  001fd	8b e5		 mov	 esp, ebp
  001ff	5d		 pop	 ebp
  00200	c3		 ret	 0
_TEXT	ENDS
;	COMDAT text$x
text$x	SEGMENT
__unwindfunclet$?OnDestroy@CExtInputBarDlg@@IAEXXZ$0:
  00000	8d 4d ec	 lea	 ecx, DWORD PTR _strCfgFile$2[ebp]
  00003	ff 25 00 00 00
	00		 jmp	 DWORD PTR __imp_??1?$CStringT@DV?$StrTraitMFC_DLL@DV?$ChTraitsCRT@D@ATL@@@@@ATL@@QAE@XZ
__unwindfunclet$?OnDestroy@CExtInputBarDlg@@IAEXXZ$1:
  00009	8d 4d f0	 lea	 ecx, DWORD PTR _strTemp$3[ebp]
  0000c	ff 25 00 00 00
	00		 jmp	 DWORD PTR __imp_??1?$CStringT@DV?$StrTraitMFC_DLL@DV?$ChTraitsCRT@D@ATL@@@@@ATL@@QAE@XZ
  00012	cc		 int	 3
  00013	cc		 int	 3
  00014	cc		 int	 3
  00015	cc		 int	 3
  00016	cc		 int	 3
__ehhandler$?OnDestroy@CExtInputBarDlg@@IAEXXZ:
  00017	90		 npad	 1
  00018	90		 npad	 1
  00019	8b 54 24 08	 mov	 edx, DWORD PTR [esp+8]
  0001d	8d 42 0c	 lea	 eax, DWORD PTR [edx+12]
  00020	8b 4a e8	 mov	 ecx, DWORD PTR [edx-24]
  00023	33 c8		 xor	 ecx, eax
  00025	e8 00 00 00 00	 call	 @__security_check_cookie@4
  0002a	b8 00 00 00 00	 mov	 eax, OFFSET __ehfuncinfo$?OnDestroy@CExtInputBarDlg@@IAEXXZ
  0002f	e9 00 00 00 00	 jmp	 ___CxxFrameHandler3
text$x	ENDS
?OnDestroy@CExtInputBarDlg@@IAEXXZ ENDP			; CExtInputBarDlg::OnDestroy
; Function compile flags: /Ogtp
; File D:\git\src\IBK\IBK_DRFN\ProjSrc\SrcDrfn\Chart\MULTICHART\ExtInputBarDlg.cpp
; File C:\Program Files (x86)\Microsoft Visual Studio\2019\Community\VC\Tools\MSVC\14.29.30133\atlmfc\include\afxwin2.inl
; File D:\git\src\IBK\IBK_DRFN\ProjSrc\SrcDrfn\Chart\MULTICHART\ExtInputBarDlg.cpp
;	COMDAT ?OnBtchartconfig@CExtInputBarDlg@@IAEXXZ
_TEXT	SEGMENT
?OnBtchartconfig@CExtInputBarDlg@@IAEXXZ PROC		; CExtInputBarDlg::OnBtchartconfig, COMDAT
; _this$ = ecx
; File C:\Program Files (x86)\Microsoft Visual Studio\2019\Community\VC\Tools\MSVC\14.29.30133\atlmfc\include\afxwin2.inl

; 32   : 	{ ASSERT(::IsWindow(m_hWnd)); return ::SendMessage(m_hWnd, message, wParam, lParam); }

  00000	8b 81 00 33 00
	00		 mov	 eax, DWORD PTR [ecx+13056]
  00006	6a 00		 push	 0
  00008	6a 00		 push	 0
  0000a	68 2c 04 00 00	 push	 1068			; 0000042cH
  0000f	ff 70 20	 push	 DWORD PTR [eax+32]
  00012	ff 15 00 00 00
	00		 call	 DWORD PTR __imp__SendMessageA@16
; File D:\git\src\IBK\IBK_DRFN\ProjSrc\SrcDrfn\Chart\MULTICHART\ExtInputBarDlg.cpp

; 1718 : }

  00018	c3		 ret	 0
?OnBtchartconfig@CExtInputBarDlg@@IAEXXZ ENDP		; CExtInputBarDlg::OnBtchartconfig
_TEXT	ENDS
; Function compile flags: /Ogtp
; File D:\git\src\IBK\IBK_DRFN\ProjSrc\SrcDrfn\Chart\MULTICHART\ExtInputBarDlg.cpp
; File C:\Program Files (x86)\Microsoft Visual Studio\2019\Community\VC\Tools\MSVC\14.29.30133\atlmfc\include\afxwin2.inl
; File D:\git\src\IBK\IBK_DRFN\ProjSrc\SrcDrfn\Chart\MULTICHART\ExtInputBarDlg.cpp
; File C:\Program Files (x86)\Microsoft Visual Studio\2019\Community\VC\Tools\MSVC\14.29.30133\atlmfc\include\afxwin2.inl
; File D:\git\src\IBK\IBK_DRFN\ProjSrc\SrcDrfn\Chart\MULTICHART\ExtInputBarDlg.cpp
;	COMDAT ?OnBtinitial@CExtInputBarDlg@@IAEXXZ
_TEXT	SEGMENT
_strMessage$ = -16					; size = 4
__$EHRec$ = -12						; size = 12
?OnBtinitial@CExtInputBarDlg@@IAEXXZ PROC		; CExtInputBarDlg::OnBtinitial, COMDAT
; _this$ = ecx

; 1721 : {

  00000	55		 push	 ebp
  00001	8b ec		 mov	 ebp, esp
  00003	6a ff		 push	 -1
  00005	68 00 00 00 00	 push	 __ehhandler$?OnBtinitial@CExtInputBarDlg@@IAEXXZ
  0000a	64 a1 00 00 00
	00		 mov	 eax, DWORD PTR fs:0
  00010	50		 push	 eax
  00011	51		 push	 ecx
  00012	57		 push	 edi
  00013	a1 00 00 00 00	 mov	 eax, DWORD PTR ___security_cookie
  00018	33 c5		 xor	 eax, ebp
  0001a	50		 push	 eax
  0001b	8d 45 f4	 lea	 eax, DWORD PTR __$EHRec$[ebp]
  0001e	64 a3 00 00 00
	00		 mov	 DWORD PTR fs:0, eax
  00024	8b f9		 mov	 edi, ecx

; 1722 : 	m_bEndDate	= TRUE;
; 1723 : 	m_strStartDate	= _T("");

  00026	68 00 00 00 00	 push	 OFFSET ??_C@_00CNPNBAHC@@
  0002b	8d 8f c8 00 00
	00		 lea	 ecx, DWORD PTR [edi+200]
  00031	c7 87 c4 00 00
	00 01 00 00 00	 mov	 DWORD PTR [edi+196], 1
  0003b	ff 15 00 00 00
	00		 call	 DWORD PTR __imp_??4?$CStringT@DV?$StrTraitMFC_DLL@DV?$ChTraitsCRT@D@ATL@@@@@ATL@@QAEAAV01@PBD@Z

; 1724 : 	m_strEndDate	= _T("");

  00041	68 00 00 00 00	 push	 OFFSET ??_C@_00CNPNBAHC@@
  00046	8d 8f cc 00 00
	00		 lea	 ecx, DWORD PTR [edi+204]
  0004c	ff 15 00 00 00
	00		 call	 DWORD PTR __imp_??4?$CStringT@DV?$StrTraitMFC_DLL@DV?$ChTraitsCRT@D@ATL@@@@@ATL@@QAEAAV01@PBD@Z

; 1725 : 	
; 1726 : 	// TODO: Add your control notification handler code here
; 1727 : 	CString strMessage = "    .  ?";

  00052	68 00 00 00 00	 push	 OFFSET ??_C@_0DF@DEHCJOBF@?$MA?$PM?C?$LM?5?B?w?F?$KO?$MA?G?5?H?$KP?$LA?f?$MA?L?5?C?J?$LB?b?H?$KN?5?$LF?K?$LE?O?$LE@
  00057	8d 4d f0	 lea	 ecx, DWORD PTR _strMessage$[ebp]
  0005a	ff 15 00 00 00
	00		 call	 DWORD PTR __imp_??0?$CStringT@DV?$StrTraitMFC_DLL@DV?$ChTraitsCRT@D@ATL@@@@@ATL@@QAE@PBD@Z

; 1728 : 	if(MessageBox(strMessage, " ", MB_OKCANCEL | MB_ICONQUESTION) == IDOK)

  00060	6a 21		 push	 33			; 00000021H
  00062	68 00 00 00 00	 push	 OFFSET ??_C@_09LOKPIFAI@?B?w?F?$KO?5?$LM?$LD?A?$KE@
  00067	ff 75 f0	 push	 DWORD PTR _strMessage$[ebp]
  0006a	8b cf		 mov	 ecx, edi
  0006c	c7 45 fc 00 00
	00 00		 mov	 DWORD PTR __$EHRec$[ebp+8], 0
  00073	e8 00 00 00 00	 call	 ?MessageBoxA@CWnd@@QAEHPBD0I@Z ; CWnd::MessageBoxA
  00078	83 f8 01	 cmp	 eax, 1
  0007b	75 58		 jne	 SHORT $LN2@OnBtinitia

; 1730 : 		if(m_pChartMng->GetSafeHwnd()) // 2005. 04. 22 by Nam

  0007d	8b 87 00 33 00
	00		 mov	 eax, DWORD PTR [edi+13056]
; File C:\Program Files (x86)\Microsoft Visual Studio\2019\Community\VC\Tools\MSVC\14.29.30133\atlmfc\include\afxwin2.inl

; 25   : 	{ return this == NULL ? NULL : m_hWnd; }

  00083	85 c0		 test	 eax, eax
  00085	74 17		 je	 SHORT $LN3@OnBtinitia
  00087	8b 40 20	 mov	 eax, DWORD PTR [eax+32]
; File D:\git\src\IBK\IBK_DRFN\ProjSrc\SrcDrfn\Chart\MULTICHART\ExtInputBarDlg.cpp

; 1730 : 		if(m_pChartMng->GetSafeHwnd()) // 2005. 04. 22 by Nam

  0008a	85 c0		 test	 eax, eax
  0008c	74 10		 je	 SHORT $LN3@OnBtinitia
; File C:\Program Files (x86)\Microsoft Visual Studio\2019\Community\VC\Tools\MSVC\14.29.30133\atlmfc\include\afxwin2.inl

; 32   : 	{ ASSERT(::IsWindow(m_hWnd)); return ::SendMessage(m_hWnd, message, wParam, lParam); }

  0008e	6a 00		 push	 0
  00090	6a 00		 push	 0
  00092	68 0d 04 00 00	 push	 1037			; 0000040dH
  00097	50		 push	 eax
  00098	ff 15 00 00 00
	00		 call	 DWORD PTR __imp__SendMessageA@16
$LN3@OnBtinitia:

; 213  : 	{ ASSERT(::IsWindow(m_hWnd)); return CWnd::FromHandle(::GetParent(m_hWnd)); }

  0009e	ff 77 20	 push	 DWORD PTR [edi+32]
  000a1	ff 15 00 00 00
	00		 call	 DWORD PTR __imp__GetParent@4
  000a7	50		 push	 eax
  000a8	e8 00 00 00 00	 call	 ?FromHandle@CWnd@@SGPAV1@PAUHWND__@@@Z ; CWnd::FromHandle

; 32   : 	{ ASSERT(::IsWindow(m_hWnd)); return ::SendMessage(m_hWnd, message, wParam, lParam); }

  000ad	6a 00		 push	 0
  000af	6a 00		 push	 0
  000b1	68 0d 04 00 00	 push	 1037			; 0000040dH
  000b6	ff 70 20	 push	 DWORD PTR [eax+32]
  000b9	ff 15 00 00 00
	00		 call	 DWORD PTR __imp__SendMessageA@16

; 213  : 	{ ASSERT(::IsWindow(m_hWnd)); return CWnd::FromHandle(::GetParent(m_hWnd)); }

  000bf	ff 77 20	 push	 DWORD PTR [edi+32]
  000c2	ff 15 00 00 00
	00		 call	 DWORD PTR __imp__GetParent@4
  000c8	50		 push	 eax
  000c9	e8 00 00 00 00	 call	 ?FromHandle@CWnd@@SGPAV1@PAUHWND__@@@Z ; CWnd::FromHandle
; File D:\git\src\IBK\IBK_DRFN\ProjSrc\SrcDrfn\Chart\MULTICHART\ExtInputBarDlg.cpp

; 1735 : 		((CStdDialog*)GetParent())->DoClearUserChartData();

  000ce	8b c8		 mov	 ecx, eax
  000d0	e8 00 00 00 00	 call	 ?DoClearUserChartData@CStdDialog@@QAEXXZ ; CStdDialog::DoClearUserChartData
$LN2@OnBtinitia:

; 1736 : 	}	
; 1737 : }

  000d5	8d 4d f0	 lea	 ecx, DWORD PTR _strMessage$[ebp]
  000d8	ff 15 00 00 00
	00		 call	 DWORD PTR __imp_??1?$CStringT@DV?$StrTraitMFC_DLL@DV?$ChTraitsCRT@D@ATL@@@@@ATL@@QAE@XZ
  000de	8b 4d f4	 mov	 ecx, DWORD PTR __$EHRec$[ebp]
  000e1	64 89 0d 00 00
	00 00		 mov	 DWORD PTR fs:0, ecx
  000e8	59		 pop	 ecx
  000e9	5f		 pop	 edi
  000ea	8b e5		 mov	 esp, ebp
  000ec	5d		 pop	 ebp
  000ed	c3		 ret	 0
_TEXT	ENDS
;	COMDAT text$x
text$x	SEGMENT
__unwindfunclet$?OnBtinitial@CExtInputBarDlg@@IAEXXZ$0:
  00000	8d 4d f0	 lea	 ecx, DWORD PTR _strMessage$[ebp]
  00003	ff 25 00 00 00
	00		 jmp	 DWORD PTR __imp_??1?$CStringT@DV?$StrTraitMFC_DLL@DV?$ChTraitsCRT@D@ATL@@@@@ATL@@QAE@XZ
  00009	cc		 int	 3
  0000a	cc		 int	 3
  0000b	cc		 int	 3
  0000c	cc		 int	 3
  0000d	cc		 int	 3
__ehhandler$?OnBtinitial@CExtInputBarDlg@@IAEXXZ:
  0000e	90		 npad	 1
  0000f	90		 npad	 1
  00010	8b 54 24 08	 mov	 edx, DWORD PTR [esp+8]
  00014	8d 42 0c	 lea	 eax, DWORD PTR [edx+12]
  00017	8b 4a f4	 mov	 ecx, DWORD PTR [edx-12]
  0001a	33 c8		 xor	 ecx, eax
  0001c	e8 00 00 00 00	 call	 @__security_check_cookie@4
  00021	b8 00 00 00 00	 mov	 eax, OFFSET __ehfuncinfo$?OnBtinitial@CExtInputBarDlg@@IAEXXZ
  00026	e9 00 00 00 00	 jmp	 ___CxxFrameHandler3
text$x	ENDS
?OnBtinitial@CExtInputBarDlg@@IAEXXZ ENDP		; CExtInputBarDlg::OnBtinitial
; Function compile flags: /Ogtp
; File D:\git\src\IBK\IBK_DRFN\ProjSrc\SrcDrfn\Chart\MULTICHART\ExtInputBarDlg.cpp
; File C:\Program Files (x86)\Microsoft Visual Studio\2019\Community\VC\Tools\MSVC\14.29.30133\atlmfc\include\atltypes.h
; File D:\git\src\IBK\IBK_DRFN\ProjSrc\SrcDrfn\Chart\MULTICHART\ExtInputBarDlg.cpp
; File C:\Program Files (x86)\Microsoft Visual Studio\2019\Community\VC\Tools\MSVC\14.29.30133\atlmfc\include\afxwin2.inl
; File D:\git\src\IBK\IBK_DRFN\ProjSrc\SrcDrfn\Chart\MULTICHART\ExtInputBarDlg.cpp
; File C:\Program Files (x86)\Microsoft Visual Studio\2019\Community\VC\Tools\MSVC\14.29.30133\atlmfc\include\afxwin2.inl
; File D:\git\src\IBK\IBK_DRFN\ProjSrc\SrcDrfn\Chart\MULTICHART\ExtInputBarDlg.cpp
; File C:\Program Files (x86)\Microsoft Visual Studio\2019\Community\VC\Tools\MSVC\14.29.30133\atlmfc\include\afxwin2.inl
; File D:\git\src\IBK\IBK_DRFN\ProjSrc\SrcDrfn\Chart\MULTICHART\ExtInputBarDlg.cpp
;	COMDAT ?OnBtsave@CExtInputBarDlg@@IAEXXZ
_TEXT	SEGMENT
_pt$ = -28						; size = 8
_rect$ = -20						; size = 16
__$ArrayPad$ = -4					; size = 4
?OnBtsave@CExtInputBarDlg@@IAEXXZ PROC			; CExtInputBarDlg::OnBtsave, COMDAT
; _this$ = ecx

; 1704 : {

  00000	55		 push	 ebp
  00001	8b ec		 mov	 ebp, esp
  00003	83 ec 1c	 sub	 esp, 28			; 0000001cH
  00006	a1 00 00 00 00	 mov	 eax, DWORD PTR ___security_cookie
  0000b	33 c5		 xor	 eax, ebp
  0000d	89 45 fc	 mov	 DWORD PTR __$ArrayPad$[ebp], eax
  00010	56		 push	 esi
  00011	0f 57 c0	 xorps	 xmm0, xmm0
  00014	8b f1		 mov	 esi, ecx

; 1708 : 	GetDlgItem(IDC_BTSAVE)->GetWindowRect(rect);

  00016	68 0c 18 00 00	 push	 6156			; 0000180cH
; File C:\Program Files (x86)\Microsoft Visual Studio\2019\Community\VC\Tools\MSVC\14.29.30133\atlmfc\include\atltypes.h

; 528  : 	left = 0;

  0001b	0f 11 45 ec	 movups	 XMMWORD PTR _rect$[ebp], xmm0
; File D:\git\src\IBK\IBK_DRFN\ProjSrc\SrcDrfn\Chart\MULTICHART\ExtInputBarDlg.cpp

; 1708 : 	GetDlgItem(IDC_BTSAVE)->GetWindowRect(rect);

  0001f	e8 00 00 00 00	 call	 ?GetDlgItem@CWnd@@QBEPAV1@H@Z ; CWnd::GetDlgItem
; File C:\Program Files (x86)\Microsoft Visual Studio\2019\Community\VC\Tools\MSVC\14.29.30133\atlmfc\include\afxwin2.inl

; 84   : 	{ ASSERT(::IsWindow(m_hWnd)); ::GetWindowRect(m_hWnd, lpRect); }

  00024	8d 4d ec	 lea	 ecx, DWORD PTR _rect$[ebp]
  00027	51		 push	 ecx
  00028	ff 70 20	 push	 DWORD PTR [eax+32]
  0002b	ff 15 00 00 00
	00		 call	 DWORD PTR __imp__GetWindowRect@8
; File D:\git\src\IBK\IBK_DRFN\ProjSrc\SrcDrfn\Chart\MULTICHART\ExtInputBarDlg.cpp

; 1709 : 	pt.x = rect.left;

  00031	8b 45 ec	 mov	 eax, DWORD PTR _rect$[ebp]
  00034	89 45 e4	 mov	 DWORD PTR _pt$[ebp], eax

; 1710 : 	pt.y = rect.bottom;

  00037	8b 45 f8	 mov	 eax, DWORD PTR _rect$[ebp+12]
  0003a	89 45 e8	 mov	 DWORD PTR _pt$[ebp+4], eax

; 1711 : 	if(m_pChartMng->GetSafeHwnd()) // 2005. 04. 22 by Nam

  0003d	8b 86 00 33 00
	00		 mov	 eax, DWORD PTR [esi+13056]
  00043	5e		 pop	 esi
; File C:\Program Files (x86)\Microsoft Visual Studio\2019\Community\VC\Tools\MSVC\14.29.30133\atlmfc\include\afxwin2.inl

; 25   : 	{ return this == NULL ? NULL : m_hWnd; }

  00044	85 c0		 test	 eax, eax
  00046	74 19		 je	 SHORT $LN2@OnBtsave
  00048	8b 40 20	 mov	 eax, DWORD PTR [eax+32]
; File D:\git\src\IBK\IBK_DRFN\ProjSrc\SrcDrfn\Chart\MULTICHART\ExtInputBarDlg.cpp

; 1711 : 	if(m_pChartMng->GetSafeHwnd()) // 2005. 04. 22 by Nam

  0004b	85 c0		 test	 eax, eax
  0004d	74 12		 je	 SHORT $LN2@OnBtsave
; File C:\Program Files (x86)\Microsoft Visual Studio\2019\Community\VC\Tools\MSVC\14.29.30133\atlmfc\include\afxwin2.inl

; 32   : 	{ ASSERT(::IsWindow(m_hWnd)); return ::SendMessage(m_hWnd, message, wParam, lParam); }

  0004f	8d 4d e4	 lea	 ecx, DWORD PTR _pt$[ebp]
  00052	51		 push	 ecx
  00053	6a 00		 push	 0
  00055	68 16 04 00 00	 push	 1046			; 00000416H
  0005a	50		 push	 eax
  0005b	ff 15 00 00 00
	00		 call	 DWORD PTR __imp__SendMessageA@16
$LN2@OnBtsave:
; File D:\git\src\IBK\IBK_DRFN\ProjSrc\SrcDrfn\Chart\MULTICHART\ExtInputBarDlg.cpp

; 1713 : }

  00061	8b 4d fc	 mov	 ecx, DWORD PTR __$ArrayPad$[ebp]
  00064	33 cd		 xor	 ecx, ebp
  00066	e8 00 00 00 00	 call	 @__security_check_cookie@4
  0006b	8b e5		 mov	 esp, ebp
  0006d	5d		 pop	 ebp
  0006e	c3		 ret	 0
?OnBtsave@CExtInputBarDlg@@IAEXXZ ENDP			; CExtInputBarDlg::OnBtsave
_TEXT	ENDS
; Function compile flags: /Ogtp
; File D:\git\src\IBK\IBK_DRFN\ProjSrc\SrcDrfn\Chart\MULTICHART\ExtInputBarDlg.cpp
; File C:\Program Files (x86)\Microsoft Visual Studio\2019\Community\VC\Tools\MSVC\14.29.30133\atlmfc\include\atltypes.h
; File D:\git\src\IBK\IBK_DRFN\ProjSrc\SrcDrfn\Chart\MULTICHART\ExtInputBarDlg.cpp
; File C:\Program Files (x86)\Microsoft Visual Studio\2019\Community\VC\Tools\MSVC\14.29.30133\atlmfc\include\afxwin2.inl
; File D:\git\src\IBK\IBK_DRFN\ProjSrc\SrcDrfn\Chart\MULTICHART\ExtInputBarDlg.cpp
; File C:\Program Files (x86)\Microsoft Visual Studio\2019\Community\VC\Tools\MSVC\14.29.30133\atlmfc\include\afxwin2.inl
; File D:\git\src\IBK\IBK_DRFN\ProjSrc\SrcDrfn\Chart\MULTICHART\ExtInputBarDlg.cpp
; File C:\Program Files (x86)\Microsoft Visual Studio\2019\Community\VC\Tools\MSVC\14.29.30133\atlmfc\include\afxwin2.inl
; File D:\git\src\IBK\IBK_DRFN\ProjSrc\SrcDrfn\Chart\MULTICHART\ExtInputBarDlg.cpp
;	COMDAT ?OnBtload@CExtInputBarDlg@@IAEXXZ
_TEXT	SEGMENT
_pt$ = -28						; size = 8
_rect$ = -20						; size = 16
__$ArrayPad$ = -4					; size = 4
?OnBtload@CExtInputBarDlg@@IAEXXZ PROC			; CExtInputBarDlg::OnBtload, COMDAT
; _this$ = ecx

; 1691 : {

  00000	55		 push	 ebp
  00001	8b ec		 mov	 ebp, esp
  00003	83 ec 1c	 sub	 esp, 28			; 0000001cH
  00006	a1 00 00 00 00	 mov	 eax, DWORD PTR ___security_cookie
  0000b	33 c5		 xor	 eax, ebp
  0000d	89 45 fc	 mov	 DWORD PTR __$ArrayPad$[ebp], eax
  00010	56		 push	 esi
  00011	0f 57 c0	 xorps	 xmm0, xmm0
  00014	8b f1		 mov	 esi, ecx

; 1695 : 	GetDlgItem(IDC_BTLOAD)->GetWindowRect(rect);

  00016	68 0d 18 00 00	 push	 6157			; 0000180dH
; File C:\Program Files (x86)\Microsoft Visual Studio\2019\Community\VC\Tools\MSVC\14.29.30133\atlmfc\include\atltypes.h

; 528  : 	left = 0;

  0001b	0f 11 45 ec	 movups	 XMMWORD PTR _rect$[ebp], xmm0
; File D:\git\src\IBK\IBK_DRFN\ProjSrc\SrcDrfn\Chart\MULTICHART\ExtInputBarDlg.cpp

; 1695 : 	GetDlgItem(IDC_BTLOAD)->GetWindowRect(rect);

  0001f	e8 00 00 00 00	 call	 ?GetDlgItem@CWnd@@QBEPAV1@H@Z ; CWnd::GetDlgItem
; File C:\Program Files (x86)\Microsoft Visual Studio\2019\Community\VC\Tools\MSVC\14.29.30133\atlmfc\include\afxwin2.inl

; 84   : 	{ ASSERT(::IsWindow(m_hWnd)); ::GetWindowRect(m_hWnd, lpRect); }

  00024	8d 4d ec	 lea	 ecx, DWORD PTR _rect$[ebp]
  00027	51		 push	 ecx
  00028	ff 70 20	 push	 DWORD PTR [eax+32]
  0002b	ff 15 00 00 00
	00		 call	 DWORD PTR __imp__GetWindowRect@8
; File D:\git\src\IBK\IBK_DRFN\ProjSrc\SrcDrfn\Chart\MULTICHART\ExtInputBarDlg.cpp

; 1696 : 	pt.x = rect.left;

  00031	8b 45 ec	 mov	 eax, DWORD PTR _rect$[ebp]
  00034	89 45 e4	 mov	 DWORD PTR _pt$[ebp], eax

; 1697 : 	pt.y = rect.bottom;

  00037	8b 45 f8	 mov	 eax, DWORD PTR _rect$[ebp+12]
  0003a	89 45 e8	 mov	 DWORD PTR _pt$[ebp+4], eax

; 1699 : 	if(m_pChartMng->GetSafeHwnd()) // 2005. 04. 22 by Nam

  0003d	8b 86 00 33 00
	00		 mov	 eax, DWORD PTR [esi+13056]
  00043	5e		 pop	 esi
; File C:\Program Files (x86)\Microsoft Visual Studio\2019\Community\VC\Tools\MSVC\14.29.30133\atlmfc\include\afxwin2.inl

; 25   : 	{ return this == NULL ? NULL : m_hWnd; }

  00044	85 c0		 test	 eax, eax
  00046	74 19		 je	 SHORT $LN2@OnBtload
  00048	8b 40 20	 mov	 eax, DWORD PTR [eax+32]
; File D:\git\src\IBK\IBK_DRFN\ProjSrc\SrcDrfn\Chart\MULTICHART\ExtInputBarDlg.cpp

; 1699 : 	if(m_pChartMng->GetSafeHwnd()) // 2005. 04. 22 by Nam

  0004b	85 c0		 test	 eax, eax
  0004d	74 12		 je	 SHORT $LN2@OnBtload
; File C:\Program Files (x86)\Microsoft Visual Studio\2019\Community\VC\Tools\MSVC\14.29.30133\atlmfc\include\afxwin2.inl

; 32   : 	{ ASSERT(::IsWindow(m_hWnd)); return ::SendMessage(m_hWnd, message, wParam, lParam); }

  0004f	8d 4d e4	 lea	 ecx, DWORD PTR _pt$[ebp]
  00052	51		 push	 ecx
  00053	6a 00		 push	 0
  00055	68 15 04 00 00	 push	 1045			; 00000415H
  0005a	50		 push	 eax
  0005b	ff 15 00 00 00
	00		 call	 DWORD PTR __imp__SendMessageA@16
$LN2@OnBtload:
; File D:\git\src\IBK\IBK_DRFN\ProjSrc\SrcDrfn\Chart\MULTICHART\ExtInputBarDlg.cpp

; 1701 : }

  00061	8b 4d fc	 mov	 ecx, DWORD PTR __$ArrayPad$[ebp]
  00064	33 cd		 xor	 ecx, ebp
  00066	e8 00 00 00 00	 call	 @__security_check_cookie@4
  0006b	8b e5		 mov	 esp, ebp
  0006d	5d		 pop	 ebp
  0006e	c3		 ret	 0
?OnBtload@CExtInputBarDlg@@IAEXXZ ENDP			; CExtInputBarDlg::OnBtload
_TEXT	ENDS
; Function compile flags: /Ogtp
; File D:\git\src\IBK\IBK_DRFN\ProjSrc\SrcDrfn\Chart\MULTICHART\ExtInputBarDlg.cpp
; File C:\Program Files (x86)\Microsoft Visual Studio\2019\Community\VC\Tools\MSVC\14.29.30133\atlmfc\include\afxwin2.inl
; File D:\git\src\IBK\IBK_DRFN\ProjSrc\SrcDrfn\Chart\MULTICHART\ExtInputBarDlg.cpp
; File C:\Program Files (x86)\Microsoft Visual Studio\2019\Community\VC\Tools\MSVC\14.29.30133\atlmfc\include\afxwin2.inl
; File D:\git\src\IBK\IBK_DRFN\ProjSrc\SrcDrfn\Chart\MULTICHART\ExtInputBarDlg.cpp
; File C:\Program Files (x86)\Microsoft Visual Studio\2019\Community\VC\Tools\MSVC\14.29.30133\atlmfc\include\afxwin2.inl
; File D:\git\src\IBK\IBK_DRFN\ProjSrc\SrcDrfn\Chart\MULTICHART\ExtInputBarDlg.cpp
;	COMDAT ?OnChktypelink@CExtInputBarDlg@@IAEXXZ
_TEXT	SEGMENT
?OnChktypelink@CExtInputBarDlg@@IAEXXZ PROC		; CExtInputBarDlg::OnChktypelink, COMDAT
; _this$ = ecx

; 1669 : {

  00000	56		 push	 esi
  00001	8b f1		 mov	 esi, ecx
; File C:\Program Files (x86)\Microsoft Visual Studio\2019\Community\VC\Tools\MSVC\14.29.30133\atlmfc\include\afxwin2.inl

; 213  : 	{ ASSERT(::IsWindow(m_hWnd)); return CWnd::FromHandle(::GetParent(m_hWnd)); }

  00003	ff 76 20	 push	 DWORD PTR [esi+32]
  00006	ff 15 00 00 00
	00		 call	 DWORD PTR __imp__GetParent@4
  0000c	50		 push	 eax
  0000d	e8 00 00 00 00	 call	 ?FromHandle@CWnd@@SGPAV1@PAUHWND__@@@Z ; CWnd::FromHandle

; 32   : 	{ ASSERT(::IsWindow(m_hWnd)); return ::SendMessage(m_hWnd, message, wParam, lParam); }

  00012	6a 00		 push	 0
  00014	6a 00		 push	 0
  00016	68 44 04 00 00	 push	 1092			; 00000444H
  0001b	ff 70 20	 push	 DWORD PTR [eax+32]
  0001e	ff 15 00 00 00
	00		 call	 DWORD PTR __imp__SendMessageA@16
; File D:\git\src\IBK\IBK_DRFN\ProjSrc\SrcDrfn\Chart\MULTICHART\ExtInputBarDlg.cpp

; 1686 : 	if(m_pChartMng->GetSafeHwnd()) // 2005. 04. 22 by Nam

  00024	8b 86 00 33 00
	00		 mov	 eax, DWORD PTR [esi+13056]
; File C:\Program Files (x86)\Microsoft Visual Studio\2019\Community\VC\Tools\MSVC\14.29.30133\atlmfc\include\afxwin2.inl

; 25   : 	{ return this == NULL ? NULL : m_hWnd; }

  0002a	85 c0		 test	 eax, eax
  0002c	74 28		 je	 SHORT $LN2@OnChktypel
; File D:\git\src\IBK\IBK_DRFN\ProjSrc\SrcDrfn\Chart\MULTICHART\ExtInputBarDlg.cpp

; 1686 : 	if(m_pChartMng->GetSafeHwnd()) // 2005. 04. 22 by Nam

  0002e	83 78 20 00	 cmp	 DWORD PTR [eax+32], 0
  00032	74 22		 je	 SHORT $LN2@OnChktypel

; 1687 : 		m_pChartMng->SendMessage(UMSG_SETTYPELINK,(WPARAM)m_chkTypeLink.GetCheck());	

  00034	8d 8e c8 29 00
	00		 lea	 ecx, DWORD PTR [esi+10696]
  0003a	e8 00 00 00 00	 call	 ?GetCheck@CILButton@@QAEHXZ ; CILButton::GetCheck
; File C:\Program Files (x86)\Microsoft Visual Studio\2019\Community\VC\Tools\MSVC\14.29.30133\atlmfc\include\afxwin2.inl

; 32   : 	{ ASSERT(::IsWindow(m_hWnd)); return ::SendMessage(m_hWnd, message, wParam, lParam); }

  0003f	6a 00		 push	 0
  00041	50		 push	 eax
  00042	8b 86 00 33 00
	00		 mov	 eax, DWORD PTR [esi+13056]
  00048	68 14 04 00 00	 push	 1044			; 00000414H
  0004d	ff 70 20	 push	 DWORD PTR [eax+32]
  00050	ff 15 00 00 00
	00		 call	 DWORD PTR __imp__SendMessageA@16
$LN2@OnChktypel:
  00056	5e		 pop	 esi
; File D:\git\src\IBK\IBK_DRFN\ProjSrc\SrcDrfn\Chart\MULTICHART\ExtInputBarDlg.cpp

; 1688 : }

  00057	c3		 ret	 0
?OnChktypelink@CExtInputBarDlg@@IAEXXZ ENDP		; CExtInputBarDlg::OnChktypelink
_TEXT	ENDS
; Function compile flags: /Ogtp
; File D:\git\src\IBK\IBK_DRFN\ProjSrc\SrcDrfn\Chart\MULTICHART\ExtInputBarDlg.cpp
; File C:\Program Files (x86)\Microsoft Visual Studio\2019\Community\VC\Tools\MSVC\14.29.30133\atlmfc\include\afxwin2.inl
; File D:\git\src\IBK\IBK_DRFN\ProjSrc\SrcDrfn\Chart\MULTICHART\ExtInputBarDlg.cpp
; File C:\Program Files (x86)\Microsoft Visual Studio\2019\Community\VC\Tools\MSVC\14.29.30133\atlmfc\include\afxwin2.inl
; File D:\git\src\IBK\IBK_DRFN\ProjSrc\SrcDrfn\Chart\MULTICHART\ExtInputBarDlg.cpp
; File C:\Program Files (x86)\Microsoft Visual Studio\2019\Community\VC\Tools\MSVC\14.29.30133\atlmfc\include\afxwin2.inl
; File D:\git\src\IBK\IBK_DRFN\ProjSrc\SrcDrfn\Chart\MULTICHART\ExtInputBarDlg.cpp
; File C:\Program Files (x86)\Microsoft Visual Studio\2019\Community\VC\Tools\MSVC\14.29.30133\atlmfc\include\afxwin2.inl
; File D:\git\src\IBK\IBK_DRFN\ProjSrc\SrcDrfn\Chart\MULTICHART\ExtInputBarDlg.cpp
; File C:\Program Files (x86)\Microsoft Visual Studio\2019\Community\VC\Tools\MSVC\14.29.30133\atlmfc\include\afxwin2.inl
; File D:\git\src\IBK\IBK_DRFN\ProjSrc\SrcDrfn\Chart\MULTICHART\ExtInputBarDlg.cpp
; File C:\Program Files (x86)\Microsoft Visual Studio\2019\Community\VC\Tools\MSVC\14.29.30133\atlmfc\include\afxwin2.inl
; File D:\git\src\IBK\IBK_DRFN\ProjSrc\SrcDrfn\Chart\MULTICHART\ExtInputBarDlg.cpp
; File C:\Program Files (x86)\Microsoft Visual Studio\2019\Community\VC\Tools\MSVC\14.29.30133\atlmfc\include\afxwin2.inl
; File D:\git\src\IBK\IBK_DRFN\ProjSrc\SrcDrfn\Chart\MULTICHART\ExtInputBarDlg.cpp
;	COMDAT ?OnChkjongmoklink@CExtInputBarDlg@@IAEXXZ
_TEXT	SEGMENT
?OnChkjongmoklink@CExtInputBarDlg@@IAEXXZ PROC		; CExtInputBarDlg::OnChkjongmoklink, COMDAT
; _this$ = ecx

; 1631 : {

  00000	53		 push	 ebx
; File C:\Program Files (x86)\Microsoft Visual Studio\2019\Community\VC\Tools\MSVC\14.29.30133\atlmfc\include\afxwin2.inl

; 32   : 	{ ASSERT(::IsWindow(m_hWnd)); return ::SendMessage(m_hWnd, message, wParam, lParam); }

  00001	8b 1d 00 00 00
	00		 mov	 ebx, DWORD PTR __imp__SendMessageA@16
; File D:\git\src\IBK\IBK_DRFN\ProjSrc\SrcDrfn\Chart\MULTICHART\ExtInputBarDlg.cpp

; 1631 : {

  00007	56		 push	 esi
  00008	57		 push	 edi
  00009	8b f1		 mov	 esi, ecx
; File C:\Program Files (x86)\Microsoft Visual Studio\2019\Community\VC\Tools\MSVC\14.29.30133\atlmfc\include\afxwin2.inl

; 32   : 	{ ASSERT(::IsWindow(m_hWnd)); return ::SendMessage(m_hWnd, message, wParam, lParam); }

  0000b	6a 00		 push	 0
  0000d	6a 00		 push	 0
  0000f	68 44 04 00 00	 push	 1092			; 00000444H
; File D:\git\src\IBK\IBK_DRFN\ProjSrc\SrcDrfn\Chart\MULTICHART\ExtInputBarDlg.cpp

; 1633 : 	CStdDialog* pParent = m_pStdDialog;

  00014	8b be a8 00 00
	00		 mov	 edi, DWORD PTR [esi+168]
; File C:\Program Files (x86)\Microsoft Visual Studio\2019\Community\VC\Tools\MSVC\14.29.30133\atlmfc\include\afxwin2.inl

; 32   : 	{ ASSERT(::IsWindow(m_hWnd)); return ::SendMessage(m_hWnd, message, wParam, lParam); }

  0001a	ff 77 20	 push	 DWORD PTR [edi+32]
  0001d	ff d3		 call	 ebx
; File D:\git\src\IBK\IBK_DRFN\ProjSrc\SrcDrfn\Chart\MULTICHART\ExtInputBarDlg.cpp

; 1651 : 	if(m_pChartMng->GetSafeHwnd()) // 2005. 04. 22 by Nam

  0001f	8b 86 00 33 00
	00		 mov	 eax, DWORD PTR [esi+13056]
; File C:\Program Files (x86)\Microsoft Visual Studio\2019\Community\VC\Tools\MSVC\14.29.30133\atlmfc\include\afxwin2.inl

; 25   : 	{ return this == NULL ? NULL : m_hWnd; }

  00025	85 c0		 test	 eax, eax
  00027	74 24		 je	 SHORT $LN23@OnChkjongm
; File D:\git\src\IBK\IBK_DRFN\ProjSrc\SrcDrfn\Chart\MULTICHART\ExtInputBarDlg.cpp

; 1651 : 	if(m_pChartMng->GetSafeHwnd()) // 2005. 04. 22 by Nam

  00029	83 78 20 00	 cmp	 DWORD PTR [eax+32], 0
  0002d	74 1e		 je	 SHORT $LN23@OnChkjongm

; 1652 : 		m_pChartMng->SendMessage(UMSG_SETJONGMOKLINK,(WPARAM)m_chkJongmokLink.GetCheck());

  0002f	8d 8e 48 24 00
	00		 lea	 ecx, DWORD PTR [esi+9288]
  00035	e8 00 00 00 00	 call	 ?GetCheck@CILButton@@QAEHXZ ; CILButton::GetCheck
; File C:\Program Files (x86)\Microsoft Visual Studio\2019\Community\VC\Tools\MSVC\14.29.30133\atlmfc\include\afxwin2.inl

; 32   : 	{ ASSERT(::IsWindow(m_hWnd)); return ::SendMessage(m_hWnd, message, wParam, lParam); }

  0003a	6a 00		 push	 0
  0003c	50		 push	 eax
  0003d	8b 86 00 33 00
	00		 mov	 eax, DWORD PTR [esi+13056]
  00043	68 13 04 00 00	 push	 1043			; 00000413H
  00048	ff 70 20	 push	 DWORD PTR [eax+32]
  0004b	ff d3		 call	 ebx
$LN23@OnChkjongm:
; File D:\git\src\IBK\IBK_DRFN\ProjSrc\SrcDrfn\Chart\MULTICHART\ExtInputBarDlg.cpp

; 1655 : 	if(pParent->m_nScreenID==nScreenID_6301)

  0004d	81 bf 24 03 00
	00 d5 1b 00 00	 cmp	 DWORD PTR [edi+804], 7125 ; 00001bd5H
  00057	75 4a		 jne	 SHORT $LN5@OnChkjongm

; 1656 : 	{
; 1657 : 		int nLayOut = ::GetPrivateProfileInt("DWM", "CodeSync", 1, pParent->m_strConfig);

  00059	ff b7 a8 07 00
	00		 push	 DWORD PTR [edi+1960]
  0005f	6a 01		 push	 1
  00061	68 00 00 00 00	 push	 OFFSET ??_C@_08LFPPBENI@CodeSync@
  00066	68 00 00 00 00	 push	 OFFSET ??_C@_03OGOJOGPE@DWM@
  0006b	ff 15 00 00 00
	00		 call	 DWORD PTR __imp__GetPrivateProfileIntA@16
  00071	8b f8		 mov	 edi, eax

; 1658 : 		if(nLayOut)

  00073	85 ff		 test	 edi, edi
  00075	74 2c		 je	 SHORT $LN5@OnChkjongm

; 1659 : 		{
; 1660 : 			m_chkJongmokLink.SetCheck(TRUE);

  00077	6a 01		 push	 1
  00079	8d 8e 48 24 00
	00		 lea	 ecx, DWORD PTR [esi+9288]
  0007f	e8 00 00 00 00	 call	 ?SetCheck@CILButton@@QAEXH@Z ; CILButton::SetCheck

; 1662 : 			if(m_pChartMng->GetSafeHwnd())

  00084	8b 86 00 33 00
	00		 mov	 eax, DWORD PTR [esi+13056]
; File C:\Program Files (x86)\Microsoft Visual Studio\2019\Community\VC\Tools\MSVC\14.29.30133\atlmfc\include\afxwin2.inl

; 25   : 	{ return this == NULL ? NULL : m_hWnd; }

  0008a	85 c0		 test	 eax, eax
  0008c	74 15		 je	 SHORT $LN5@OnChkjongm
  0008e	8b 40 20	 mov	 eax, DWORD PTR [eax+32]
; File D:\git\src\IBK\IBK_DRFN\ProjSrc\SrcDrfn\Chart\MULTICHART\ExtInputBarDlg.cpp

; 1662 : 			if(m_pChartMng->GetSafeHwnd())

  00091	85 c0		 test	 eax, eax
  00093	74 0e		 je	 SHORT $LN5@OnChkjongm
; File C:\Program Files (x86)\Microsoft Visual Studio\2019\Community\VC\Tools\MSVC\14.29.30133\atlmfc\include\afxwin2.inl

; 32   : 	{ ASSERT(::IsWindow(m_hWnd)); return ::SendMessage(m_hWnd, message, wParam, lParam); }

  00095	68 e7 03 00 00	 push	 999			; 000003e7H
  0009a	57		 push	 edi
  0009b	68 13 04 00 00	 push	 1043			; 00000413H
  000a0	50		 push	 eax
  000a1	ff d3		 call	 ebx
$LN5@OnChkjongm:
  000a3	5f		 pop	 edi
; File D:\git\src\IBK\IBK_DRFN\ProjSrc\SrcDrfn\Chart\MULTICHART\ExtInputBarDlg.cpp

; 1666 : }

  000a4	5e		 pop	 esi
  000a5	5b		 pop	 ebx
  000a6	c3		 ret	 0
?OnChkjongmoklink@CExtInputBarDlg@@IAEXXZ ENDP		; CExtInputBarDlg::OnChkjongmoklink
_TEXT	ENDS
; Function compile flags: /Ogtp
; File D:\git\src\IBK\IBK_DRFN\ProjSrc\SrcDrfn\Chart\MULTICHART\ExtInputBarDlg.cpp
; File C:\Program Files (x86)\Microsoft Visual Studio\2019\Community\VC\Tools\MSVC\14.29.30133\atlmfc\include\afxwin1.inl
; File D:\git\src\IBK\IBK_DRFN\ProjSrc\SrcDrfn\Chart\MULTICHART\ExtInputBarDlg.cpp
; File C:\Program Files (x86)\Microsoft Visual Studio\2019\Community\VC\Tools\MSVC\14.29.30133\atlmfc\include\afxwin1.inl
; File D:\git\src\IBK\IBK_DRFN\ProjSrc\SrcDrfn\Chart\MULTICHART\ExtInputBarDlg.cpp
; File C:\Program Files (x86)\Microsoft Visual Studio\2019\Community\VC\Tools\MSVC\14.29.30133\atlmfc\include\afxwin1.inl
; File D:\git\src\IBK\IBK_DRFN\ProjSrc\SrcDrfn\Chart\MULTICHART\ExtInputBarDlg.cpp
; File C:\Program Files (x86)\Microsoft Visual Studio\2019\Community\VC\Tools\MSVC\14.29.30133\atlmfc\include\afxwin1.inl
; File D:\git\src\IBK\IBK_DRFN\ProjSrc\SrcDrfn\Chart\MULTICHART\ExtInputBarDlg.cpp
; File C:\Program Files (x86)\Microsoft Visual Studio\2019\Community\VC\Tools\MSVC\14.29.30133\atlmfc\include\afxwin1.inl
; File D:\git\src\IBK\IBK_DRFN\ProjSrc\SrcDrfn\Chart\MULTICHART\ExtInputBarDlg.cpp
; File C:\Program Files (x86)\Microsoft Visual Studio\2019\Community\VC\Tools\MSVC\14.29.30133\atlmfc\include\afxcoll.inl
; File D:\git\src\IBK\IBK_DRFN\ProjSrc\SrcDrfn\Chart\MULTICHART\ExtInputBarDlg.cpp
; File C:\Program Files (x86)\Microsoft Visual Studio\2019\Community\VC\Tools\MSVC\14.29.30133\atlmfc\include\afxcoll.inl
; File D:\git\src\IBK\IBK_DRFN\ProjSrc\SrcDrfn\Chart\MULTICHART\ExtInputBarDlg.cpp
; File C:\Program Files (x86)\Microsoft Visual Studio\2019\Community\VC\Tools\MSVC\14.29.30133\atlmfc\include\afx.inl
; File D:\git\src\IBK\IBK_DRFN\ProjSrc\SrcDrfn\Chart\MULTICHART\ExtInputBarDlg.cpp
; File C:\Program Files (x86)\Microsoft Visual Studio\2019\Community\VC\Tools\MSVC\14.29.30133\atlmfc\include\afx.inl
; File D:\git\src\IBK\IBK_DRFN\ProjSrc\SrcDrfn\Chart\MULTICHART\ExtInputBarDlg.cpp
; File C:\Program Files (x86)\Microsoft Visual Studio\2019\Community\VC\Tools\MSVC\14.29.30133\atlmfc\include\afxwin1.inl
; File D:\git\src\IBK\IBK_DRFN\ProjSrc\SrcDrfn\Chart\MULTICHART\ExtInputBarDlg.cpp
; File C:\Program Files (x86)\Microsoft Visual Studio\2019\Community\VC\Tools\MSVC\14.29.30133\atlmfc\include\afxwin1.inl
; File D:\git\src\IBK\IBK_DRFN\ProjSrc\SrcDrfn\Chart\MULTICHART\ExtInputBarDlg.cpp
; File C:\Program Files (x86)\Microsoft Visual Studio\2019\Community\VC\Tools\MSVC\14.29.30133\atlmfc\include\afxwin1.inl
; File D:\git\src\IBK\IBK_DRFN\ProjSrc\SrcDrfn\Chart\MULTICHART\ExtInputBarDlg.cpp
; File C:\Program Files (x86)\Microsoft Visual Studio\2019\Community\VC\Tools\MSVC\14.29.30133\atlmfc\include\afxwin2.inl
; File D:\git\src\IBK\IBK_DRFN\ProjSrc\SrcDrfn\Chart\MULTICHART\ExtInputBarDlg.cpp
; File C:\Program Files (x86)\Microsoft Visual Studio\2019\Community\VC\Tools\MSVC\14.29.30133\atlmfc\include\afxwin2.inl
; File D:\git\src\IBK\IBK_DRFN\ProjSrc\SrcDrfn\Chart\MULTICHART\ExtInputBarDlg.cpp
; File C:\Program Files (x86)\Microsoft Visual Studio\2019\Community\VC\Tools\MSVC\14.29.30133\atlmfc\include\afxcoll.inl
; File D:\git\src\IBK\IBK_DRFN\ProjSrc\SrcDrfn\Chart\MULTICHART\ExtInputBarDlg.cpp
; File C:\Program Files (x86)\Microsoft Visual Studio\2019\Community\VC\Tools\MSVC\14.29.30133\atlmfc\include\afxcoll.inl
; File D:\git\src\IBK\IBK_DRFN\ProjSrc\SrcDrfn\Chart\MULTICHART\ExtInputBarDlg.cpp
; File C:\Program Files (x86)\Microsoft Visual Studio\2019\Community\VC\Tools\MSVC\14.29.30133\atlmfc\include\afxwin2.inl
; File D:\git\src\IBK\IBK_DRFN\ProjSrc\SrcDrfn\Chart\MULTICHART\ExtInputBarDlg.cpp
; File C:\Program Files (x86)\Microsoft Visual Studio\2019\Community\VC\Tools\MSVC\14.29.30133\atlmfc\include\afxwin2.inl
; File D:\git\src\IBK\IBK_DRFN\ProjSrc\SrcDrfn\Chart\MULTICHART\ExtInputBarDlg.cpp
; File C:\Program Files (x86)\Microsoft Visual Studio\2019\Community\VC\Tools\MSVC\14.29.30133\atlmfc\include\afxwin1.inl
; File D:\git\src\IBK\IBK_DRFN\ProjSrc\SrcDrfn\Chart\MULTICHART\ExtInputBarDlg.cpp
; File C:\Program Files (x86)\Microsoft Visual Studio\2019\Community\VC\Tools\MSVC\14.29.30133\atlmfc\include\afxwin2.inl
; File D:\git\src\IBK\IBK_DRFN\ProjSrc\SrcDrfn\Chart\MULTICHART\ExtInputBarDlg.cpp
; File C:\Program Files (x86)\Microsoft Visual Studio\2019\Community\VC\Tools\MSVC\14.29.30133\atlmfc\include\afxwin2.inl
; File D:\git\src\IBK\IBK_DRFN\ProjSrc\SrcDrfn\Chart\MULTICHART\ExtInputBarDlg.cpp
; File C:\Program Files (x86)\Microsoft Visual Studio\2019\Community\VC\Tools\MSVC\14.29.30133\atlmfc\include\afxcoll.inl
; File D:\git\src\IBK\IBK_DRFN\ProjSrc\SrcDrfn\Chart\MULTICHART\ExtInputBarDlg.cpp
; File C:\Program Files (x86)\Microsoft Visual Studio\2019\Community\VC\Tools\MSVC\14.29.30133\atlmfc\include\afxcoll.inl
; File C:\Program Files (x86)\Microsoft Visual Studio\2019\Community\VC\Tools\MSVC\14.29.30133\atlmfc\include\afxtempl.h
; File D:\git\src\IBK\IBK_DRFN\ProjSrc\SrcDrfn\Chart\MULTICHART\ExtInputBarDlg.cpp
; File C:\Program Files (x86)\Microsoft Visual Studio\2019\Community\VC\Tools\MSVC\14.29.30133\atlmfc\include\afxtempl.h
; File D:\git\src\IBK\IBK_DRFN\ProjSrc\SrcDrfn\Chart\MULTICHART\ExtInputBarDlg.cpp
; File C:\Program Files (x86)\Microsoft Visual Studio\2019\Community\VC\Tools\MSVC\14.29.30133\atlmfc\include\afxwin1.inl
; File D:\git\src\IBK\IBK_DRFN\ProjSrc\SrcDrfn\Chart\MULTICHART\ExtInputBarDlg.cpp
; File C:\Program Files (x86)\Microsoft Visual Studio\2019\Community\VC\Tools\MSVC\14.29.30133\atlmfc\include\afxwin2.inl
; File D:\git\src\IBK\IBK_DRFN\ProjSrc\SrcDrfn\Chart\MULTICHART\ExtInputBarDlg.cpp
; File C:\Program Files (x86)\Microsoft Visual Studio\2019\Community\VC\Tools\MSVC\14.29.30133\atlmfc\include\afxwin2.inl
; File D:\git\src\IBK\IBK_DRFN\ProjSrc\SrcDrfn\Chart\MULTICHART\ExtInputBarDlg.cpp
; File C:\Program Files (x86)\Microsoft Visual Studio\2019\Community\VC\Tools\MSVC\14.29.30133\atlmfc\include\afxwin1.inl
; File C:\Program Files (x86)\Microsoft Visual Studio\2019\Community\VC\Tools\MSVC\14.29.30133\atlmfc\include\afxcoll.inl
; File D:\git\src\IBK\IBK_DRFN\ProjSrc\SrcDrfn\Chart\MULTICHART\ExtInputBarDlg.cpp
; File C:\Program Files (x86)\Microsoft Visual Studio\2019\Community\VC\Tools\MSVC\14.29.30133\atlmfc\include\afxcoll.inl
; File D:\git\src\IBK\IBK_DRFN\ProjSrc\SrcDrfn\Chart\MULTICHART\ExtInputBarDlg.cpp
; File C:\Program Files (x86)\Microsoft Visual Studio\2019\Community\VC\Tools\MSVC\14.29.30133\atlmfc\include\afxcoll.inl
; File D:\git\src\IBK\IBK_DRFN\ProjSrc\SrcDrfn\Chart\MULTICHART\ExtInputBarDlg.cpp
; File C:\Program Files (x86)\Microsoft Visual Studio\2019\Community\VC\Tools\MSVC\14.29.30133\atlmfc\include\afxcoll.inl
; File D:\git\src\IBK\IBK_DRFN\ProjSrc\SrcDrfn\Chart\MULTICHART\ExtInputBarDlg.cpp
; File C:\Program Files (x86)\Microsoft Visual Studio\2019\Community\VC\Tools\MSVC\14.29.30133\atlmfc\include\atltypes.h
; File D:\git\src\IBK\IBK_DRFN\ProjSrc\SrcDrfn\Chart\MULTICHART\ExtInputBarDlg.cpp
; File C:\Program Files (x86)\Microsoft Visual Studio\2019\Community\VC\Tools\MSVC\14.29.30133\atlmfc\include\afxwin2.inl
; File D:\git\src\IBK\IBK_DRFN\ProjSrc\SrcDrfn\Chart\MULTICHART\ExtInputBarDlg.cpp
; File C:\Program Files (x86)\Microsoft Visual Studio\2019\Community\VC\Tools\MSVC\14.29.30133\atlmfc\include\afxcoll.inl
; File D:\git\src\IBK\IBK_DRFN\ProjSrc\SrcDrfn\Chart\MULTICHART\ExtInputBarDlg.cpp
; File C:\Program Files (x86)\Microsoft Visual Studio\2019\Community\VC\Tools\MSVC\14.29.30133\atlmfc\include\afxcoll.inl
; File D:\git\src\IBK\IBK_DRFN\ProjSrc\SrcDrfn\Chart\MULTICHART\ExtInputBarDlg.cpp
; File C:\Program Files (x86)\Microsoft Visual Studio\2019\Community\VC\Tools\MSVC\14.29.30133\atlmfc\include\afxwin2.inl
; File D:\git\src\IBK\IBK_DRFN\ProjSrc\SrcDrfn\Chart\MULTICHART\ExtInputBarDlg.cpp
; File C:\Program Files (x86)\Microsoft Visual Studio\2019\Community\VC\Tools\MSVC\14.29.30133\atlmfc\include\afxwin2.inl
; File D:\git\src\IBK\IBK_DRFN\ProjSrc\SrcDrfn\Chart\MULTICHART\ExtInputBarDlg.cpp
; File C:\Program Files (x86)\Microsoft Visual Studio\2019\Community\VC\Tools\MSVC\14.29.30133\atlmfc\include\afxwin1.inl
; File D:\git\src\IBK\IBK_DRFN\ProjSrc\SrcDrfn\Chart\MULTICHART\ExtInputBarDlg.cpp
; File C:\Program Files (x86)\Microsoft Visual Studio\2019\Community\VC\Tools\MSVC\14.29.30133\atlmfc\include\afxwin1.inl
; File D:\git\src\IBK\IBK_DRFN\ProjSrc\SrcDrfn\Chart\MULTICHART\ExtInputBarDlg.cpp
;	COMDAT ?OnBtindex@CExtInputBarDlg@@IAEXXZ
_TEXT	SEGMENT
_strArrayMarket$ = -460					; size = 20
_strArrayIndicator$ = -440				; size = 20
_strArrayIndicatorAll$ = -420				; size = 20
_pFavoriteMng$1$ = -400					; size = 4
_wSizeItem$1$ = -396					; size = 4
_strItemName$2 = -392					; size = 4
$T3 = -392						; size = 4
tv955 = -388						; size = 4
_wSizeGrp$1$ = -384					; size = 4
_wIndexGrp$1$ = -380					; size = 4
tv946 = -376						; size = 4
_strIndicator$ = -372					; size = 4
_nCntAddedByFavorite$1$ = -368				; size = 4
_bExistance$1$ = -364					; size = 4
_menu$ = -360						; size = 8
_lPosAll$1$ = -352					; size = 4
_this$GSCopy$1$ = -348					; size = 4
_lIndex$1$ = -344					; size = 4
_sJipyo$4 = -344					; size = 4
_strGrpName$5 = -344					; size = 4
__stFvrData$6 = -340					; size = 280
_rect$ = -60						; size = 16
_szIndexGroupName$ = -44				; size = 28
__$ArrayPad$ = -16					; size = 4
__$EHRec$ = -12						; size = 12
?OnBtindex@CExtInputBarDlg@@IAEXXZ PROC			; CExtInputBarDlg::OnBtindex, COMDAT
; _this$ = ecx

; 1200 : {

  00000	55		 push	 ebp
  00001	8b ec		 mov	 ebp, esp
  00003	6a ff		 push	 -1
  00005	68 00 00 00 00	 push	 __ehhandler$?OnBtindex@CExtInputBarDlg@@IAEXXZ
  0000a	64 a1 00 00 00
	00		 mov	 eax, DWORD PTR fs:0
  00010	50		 push	 eax
  00011	81 ec c0 01 00
	00		 sub	 esp, 448		; 000001c0H
  00017	a1 00 00 00 00	 mov	 eax, DWORD PTR ___security_cookie
  0001c	33 c5		 xor	 eax, ebp
  0001e	89 45 f0	 mov	 DWORD PTR __$ArrayPad$[ebp], eax
  00021	53		 push	 ebx
  00022	56		 push	 esi
  00023	57		 push	 edi
  00024	50		 push	 eax
  00025	8d 45 f4	 lea	 eax, DWORD PTR __$EHRec$[ebp]
  00028	64 a3 00 00 00
	00		 mov	 DWORD PTR fs:0, eax
  0002e	8b c1		 mov	 eax, ecx
  00030	89 85 a4 fe ff
	ff		 mov	 DWORD PTR _this$GSCopy$1$[ebp], eax
; File C:\Program Files (x86)\Microsoft Visual Studio\2019\Community\VC\Tools\MSVC\14.29.30133\atlmfc\include\afxwin1.inl

; 903  : 	{ m_hMenu = NULL; }

  00036	8b 80 d4 00 00
	00		 mov	 eax, DWORD PTR [eax+212]
  0003c	f7 d8		 neg	 eax
; File D:\git\src\IBK\IBK_DRFN\ProjSrc\SrcDrfn\Chart\MULTICHART\ExtInputBarDlg.cpp

; 1217 : 								 "",

  0003e	c7 45 d4 00 00
	00 00		 mov	 DWORD PTR _szIndexGroupName$[ebp], OFFSET ??_C@_08IJEIMMPG@?$LA?$KB?$LA?$NN?A?v?G?$KF@

; 1218 : 								 "",

  00045	c7 45 d8 00 00
	00 00		 mov	 DWORD PTR _szIndexGroupName$[ebp+4], OFFSET ??_C@_08PNLEAGMP@?C?$NP?$LM?$LM?A?v?G?$KF@
; File C:\Program Files (x86)\Microsoft Visual Studio\2019\Community\VC\Tools\MSVC\14.29.30133\atlmfc\include\afxwin1.inl

; 903  : 	{ m_hMenu = NULL; }

  0004c	1b c0		 sbb	 eax, eax
; File D:\git\src\IBK\IBK_DRFN\ProjSrc\SrcDrfn\Chart\MULTICHART\ExtInputBarDlg.cpp

; 1219 : 								 "",

  0004e	c7 45 dc 00 00
	00 00		 mov	 DWORD PTR _szIndexGroupName$[ebp+8], OFFSET ??_C@_0L@BAEGCNCP@?$LK?$KP?$LF?$LP?$LM?$LK?A?v?G?$KF@
; File C:\Program Files (x86)\Microsoft Visual Studio\2019\Community\VC\Tools\MSVC\14.29.30133\atlmfc\include\afxwin1.inl

; 903  : 	{ m_hMenu = NULL; }

  00055	83 c0 07	 add	 eax, 7
; File D:\git\src\IBK\IBK_DRFN\ProjSrc\SrcDrfn\Chart\MULTICHART\ExtInputBarDlg.cpp

; 1220 : 								 "",

  00058	c7 45 e0 00 00
	00 00		 mov	 DWORD PTR _szIndexGroupName$[ebp+12], OFFSET ??_C@_0L@OJKLPOPK@?$LA?E?$LH?$KB?$LH?$KO?A?v?G?$KF@

; 1221 : 								 "2",

  0005f	c7 45 e4 00 00
	00 00		 mov	 DWORD PTR _szIndexGroupName$[ebp+16], OFFSET ??_C@_0M@PJMKPBLB@2?B?w?F?D?$LL?$PN?A?v?G?$KF@

; 1222 : 								 "",

  00066	c7 45 e8 00 00
	00 00		 mov	 DWORD PTR _szIndexGroupName$[ebp+20], OFFSET ??_C@_08NPEIHMNO@?$LB?b?E?$LI?A?v?G?$KF@

; 1223 : 								 ""

  0006d	c7 45 ec 00 00
	00 00		 mov	 DWORD PTR _szIndexGroupName$[ebp+24], OFFSET ??_C@_08OOIINJIM@?$LN?C?$MA?e?A?v?G?$KF@
; File C:\Program Files (x86)\Microsoft Visual Studio\2019\Community\VC\Tools\MSVC\14.29.30133\atlmfc\include\afxwin1.inl

; 903  : 	{ m_hMenu = NULL; }

  00074	89 85 7c fe ff
	ff		 mov	 DWORD PTR tv955[ebp], eax
  0007a	c7 85 98 fe ff
	ff 00 00 00 00	 mov	 DWORD PTR _menu$[ebp], OFFSET ??_7CMenu@@6B@
  00084	c7 85 9c fe ff
	ff 00 00 00 00	 mov	 DWORD PTR _menu$[ebp+4], 0

; 909  : 	{ return Attach(::CreatePopupMenu()); }

  0008e	8b 35 00 00 00
	00		 mov	 esi, DWORD PTR __imp__CreatePopupMenu@0
; File D:\git\src\IBK\IBK_DRFN\ProjSrc\SrcDrfn\Chart\MULTICHART\ExtInputBarDlg.cpp

; 1237 :     CMenu menu;

  00094	c7 45 fc 00 00
	00 00		 mov	 DWORD PTR __$EHRec$[ebp+8], 0
; File C:\Program Files (x86)\Microsoft Visual Studio\2019\Community\VC\Tools\MSVC\14.29.30133\atlmfc\include\afxwin1.inl

; 909  : 	{ return Attach(::CreatePopupMenu()); }

  0009b	ff d6		 call	 esi
  0009d	50		 push	 eax
  0009e	8d 8d 98 fe ff
	ff		 lea	 ecx, DWORD PTR _menu$[ebp]
  000a4	e8 00 00 00 00	 call	 ?Attach@CMenu@@QAEHPAUHMENU__@@@Z ; CMenu::Attach
; File D:\git\src\IBK\IBK_DRFN\ProjSrc\SrcDrfn\Chart\MULTICHART\ExtInputBarDlg.cpp

; 1240 : 	CStringArray strArrayIndicator;	

  000a9	8d 8d 48 fe ff
	ff		 lea	 ecx, DWORD PTR _strArrayIndicator$[ebp]
  000af	e8 00 00 00 00	 call	 ??0CStringArray@@QAE@XZ	; CStringArray::CStringArray

; 1241 : 	CStringArray strArrayIndicatorAll;	

  000b4	8d 8d 5c fe ff
	ff		 lea	 ecx, DWORD PTR _strArrayIndicatorAll$[ebp]
  000ba	c6 45 fc 01	 mov	 BYTE PTR __$EHRec$[ebp+8], 1
  000be	e8 00 00 00 00	 call	 ??0CStringArray@@QAE@XZ	; CStringArray::CStringArray

; 1242 : 	CStringArray strArrayMarket; //   .

  000c3	8d 8d 34 fe ff
	ff		 lea	 ecx, DWORD PTR _strArrayMarket$[ebp]
  000c9	c6 45 fc 02	 mov	 BYTE PTR __$EHRec$[ebp+8], 2
  000cd	e8 00 00 00 00	 call	 ??0CStringArray@@QAE@XZ	; CStringArray::CStringArray

; 1245 : 	CString strIndicator;

  000d2	8d 8d 8c fe ff
	ff		 lea	 ecx, DWORD PTR _strIndicator$[ebp]
  000d8	c7 85 a0 fe ff
	ff 00 00 00 00	 mov	 DWORD PTR _lPosAll$1$[ebp], 0
  000e2	ff 15 00 00 00
	00		 call	 DWORD PTR __imp_??0?$CStringT@DV?$StrTraitMFC_DLL@DV?$ChTraitsCRT@D@ATL@@@@@ATL@@QAE@XZ
; File C:\Program Files (x86)\Microsoft Visual Studio\2019\Community\VC\Tools\MSVC\14.29.30133\atlmfc\include\afxcoll.inl

; 286  : 	{ SetSize(0); }

  000e8	6a ff		 push	 -1
  000ea	6a 00		 push	 0
  000ec	8d 8d 5c fe ff
	ff		 lea	 ecx, DWORD PTR _strArrayIndicatorAll$[ebp]
; File D:\git\src\IBK\IBK_DRFN\ProjSrc\SrcDrfn\Chart\MULTICHART\ExtInputBarDlg.cpp

; 1245 : 	CString strIndicator;

  000f2	c6 45 fc 04	 mov	 BYTE PTR __$EHRec$[ebp+8], 4
; File C:\Program Files (x86)\Microsoft Visual Studio\2019\Community\VC\Tools\MSVC\14.29.30133\atlmfc\include\afxcoll.inl

; 286  : 	{ SetSize(0); }

  000f6	e8 00 00 00 00	 call	 ?SetSize@CStringArray@@QAEXHH@Z ; CStringArray::SetSize
; File D:\git\src\IBK\IBK_DRFN\ProjSrc\SrcDrfn\Chart\MULTICHART\ExtInputBarDlg.cpp

; 1250 : 	for(long lIndex = 0;lIndex<lAllCnt;lIndex++)

  000fb	33 db		 xor	 ebx, ebx
  000fd	89 9d a8 fe ff
	ff		 mov	 DWORD PTR _lIndex$1$[ebp], ebx
$LL4@OnBtindex:
; File C:\Program Files (x86)\Microsoft Visual Studio\2019\Community\VC\Tools\MSVC\14.29.30133\atlmfc\include\afx.inl

; 116  : 	{ return ::operator new(nSize); }

  00103	6a 08		 push	 8
  00105	e8 00 00 00 00	 call	 ??2@YAPAXI@Z		; operator new
; File D:\git\src\IBK\IBK_DRFN\ProjSrc\SrcDrfn\Chart\MULTICHART\ExtInputBarDlg.cpp

; 1252 : 		pMenuChild = new CMenu;

  0010a	8b f8		 mov	 edi, eax
; File C:\Program Files (x86)\Microsoft Visual Studio\2019\Community\VC\Tools\MSVC\14.29.30133\atlmfc\include\afx.inl

; 116  : 	{ return ::operator new(nSize); }

  0010c	83 c4 04	 add	 esp, 4
; File D:\git\src\IBK\IBK_DRFN\ProjSrc\SrcDrfn\Chart\MULTICHART\ExtInputBarDlg.cpp

; 1252 : 		pMenuChild = new CMenu;

  0010f	89 bd 78 fe ff
	ff		 mov	 DWORD PTR $T3[ebp], edi
  00115	85 ff		 test	 edi, edi
  00117	74 20		 je	 SHORT $LN37@OnBtindex
; File C:\Program Files (x86)\Microsoft Visual Studio\2019\Community\VC\Tools\MSVC\14.29.30133\atlmfc\include\afxwin1.inl

; 903  : 	{ m_hMenu = NULL; }

  00119	c7 07 00 00 00
	00		 mov	 DWORD PTR [edi], OFFSET ??_7CMenu@@6B@
  0011f	c7 47 04 00 00
	00 00		 mov	 DWORD PTR [edi+4], 0

; 909  : 	{ return Attach(::CreatePopupMenu()); }

  00126	ff d6		 call	 esi
  00128	50		 push	 eax
  00129	8b cf		 mov	 ecx, edi
  0012b	e8 00 00 00 00	 call	 ?Attach@CMenu@@QAEHPAUHMENU__@@@Z ; CMenu::Attach

; 919  : 		return this == NULL ? NULL : m_hMenu; }

  00130	85 ff		 test	 edi, edi
  00132	74 11		 je	 SHORT $LN169@OnBtindex
  00134	8b 47 04	 mov	 eax, DWORD PTR [edi+4]
  00137	eb 0e		 jmp	 SHORT $LN65@OnBtindex
$LN37@OnBtindex:
; File D:\git\src\IBK\IBK_DRFN\ProjSrc\SrcDrfn\Chart\MULTICHART\ExtInputBarDlg.cpp

; 1252 : 		pMenuChild = new CMenu;

  00139	33 ff		 xor	 edi, edi
  0013b	ff d6		 call	 esi
  0013d	50		 push	 eax
  0013e	33 c9		 xor	 ecx, ecx
  00140	e8 00 00 00 00	 call	 ?Attach@CMenu@@QAEHPAUHMENU__@@@Z ; CMenu::Attach
$LN169@OnBtindex:
; File C:\Program Files (x86)\Microsoft Visual Studio\2019\Community\VC\Tools\MSVC\14.29.30133\atlmfc\include\afxwin1.inl

; 919  : 		return this == NULL ? NULL : m_hMenu; }

  00145	33 c0		 xor	 eax, eax
$LN65@OnBtindex:
; File D:\git\src\IBK\IBK_DRFN\ProjSrc\SrcDrfn\Chart\MULTICHART\ExtInputBarDlg.cpp

; 1254 : 		menu.AppendMenu(MF_POPUP,(UINT)pMenuChild->GetSafeHmenu(),szIndexGroupName[lIndex]);

  00147	8b 74 9d d4	 mov	 esi, DWORD PTR _szIndexGroupName$[ebp+ebx*4]
; File C:\Program Files (x86)\Microsoft Visual Studio\2019\Community\VC\Tools\MSVC\14.29.30133\atlmfc\include\afxwin1.inl

; 924  : 	{ ASSERT(::IsMenu(m_hMenu)); return ::AppendMenu(m_hMenu, nFlags, nIDNewItem, lpszNewItem); }

  0014b	56		 push	 esi
  0014c	50		 push	 eax
  0014d	6a 10		 push	 16			; 00000010H
  0014f	ff b5 9c fe ff
	ff		 push	 DWORD PTR _menu$[ebp+4]
  00155	ff 15 00 00 00
	00		 call	 DWORD PTR __imp__AppendMenuA@16
; File D:\git\src\IBK\IBK_DRFN\ProjSrc\SrcDrfn\Chart\MULTICHART\ExtInputBarDlg.cpp

; 1256 : 		if(m_pChartMng->GetSafeHwnd())

  0015b	8b 8d a4 fe ff
	ff		 mov	 ecx, DWORD PTR _this$GSCopy$1$[ebp]
  00161	8b 81 00 33 00
	00		 mov	 eax, DWORD PTR [ecx+13056]
; File C:\Program Files (x86)\Microsoft Visual Studio\2019\Community\VC\Tools\MSVC\14.29.30133\atlmfc\include\afxwin2.inl

; 25   : 	{ return this == NULL ? NULL : m_hWnd; }

  00167	85 c0		 test	 eax, eax
  00169	74 1b		 je	 SHORT $LN21@OnBtindex
  0016b	8b 40 20	 mov	 eax, DWORD PTR [eax+32]
; File D:\git\src\IBK\IBK_DRFN\ProjSrc\SrcDrfn\Chart\MULTICHART\ExtInputBarDlg.cpp

; 1256 : 		if(m_pChartMng->GetSafeHwnd())

  0016e	85 c0		 test	 eax, eax
  00170	74 14		 je	 SHORT $LN21@OnBtindex
; File C:\Program Files (x86)\Microsoft Visual Studio\2019\Community\VC\Tools\MSVC\14.29.30133\atlmfc\include\afxwin2.inl

; 32   : 	{ ASSERT(::IsWindow(m_hWnd)); return ::SendMessage(m_hWnd, message, wParam, lParam); }

  00172	8d 8d 48 fe ff
	ff		 lea	 ecx, DWORD PTR _strArrayIndicator$[ebp]
  00178	51		 push	 ecx
  00179	56		 push	 esi
  0017a	68 0f 04 00 00	 push	 1039			; 0000040fH
  0017f	50		 push	 eax
  00180	ff 15 00 00 00
	00		 call	 DWORD PTR __imp__SendMessageA@16
$LN21@OnBtindex:
; File D:\git\src\IBK\IBK_DRFN\ProjSrc\SrcDrfn\Chart\MULTICHART\ExtInputBarDlg.cpp

; 1258 : 		lSize = strArrayIndicator.GetSize();

  00186	8b 85 50 fe ff
	ff		 mov	 eax, DWORD PTR _strArrayIndicator$[ebp+8]

; 1259 : 		nFlagsChild = NULL;
; 1260 : 		bExistance = FALSE;
; 1261 : 
; 1262 : 		for(long lPos=0;lPos<lSize;lPos++)

  0018c	33 f6		 xor	 esi, esi
  0018e	8b d8		 mov	 ebx, eax
  00190	c7 85 94 fe ff
	ff 00 00 00 00	 mov	 DWORD PTR _bExistance$1$[ebp], 0
  0019a	85 db		 test	 ebx, ebx
  0019c	0f 8e 94 00 00
	00		 jle	 $LN177@OnBtindex
$LL7@OnBtindex:
; File C:\Program Files (x86)\Microsoft Visual Studio\2019\Community\VC\Tools\MSVC\14.29.30133\atlmfc\include\afxcoll.inl

; 289  : 		if( nIndex < 0 || nIndex >= m_nSize )

  001a2	85 f6		 test	 esi, esi
  001a4	0f 88 84 04 00
	00		 js	 $LN147@OnBtindex
  001aa	3b f0		 cmp	 esi, eax
  001ac	0f 8d 7c 04 00
	00		 jge	 $LN147@OnBtindex

; 291  : 		return m_pData[nIndex]; }

  001b2	8b 85 4c fe ff
	ff		 mov	 eax, DWORD PTR _strArrayIndicator$[ebp+4]
; File D:\git\src\IBK\IBK_DRFN\ProjSrc\SrcDrfn\Chart\MULTICHART\ExtInputBarDlg.cpp

; 1264 : 			strIndicator = strArrayIndicator.GetAt(lPos);

  001b8	8d 8d 8c fe ff
	ff		 lea	 ecx, DWORD PTR _strIndicator$[ebp]
; File C:\Program Files (x86)\Microsoft Visual Studio\2019\Community\VC\Tools\MSVC\14.29.30133\atlmfc\include\afxcoll.inl

; 291  : 		return m_pData[nIndex]; }

  001be	8d 04 b0	 lea	 eax, DWORD PTR [eax+esi*4]
; File D:\git\src\IBK\IBK_DRFN\ProjSrc\SrcDrfn\Chart\MULTICHART\ExtInputBarDlg.cpp

; 1264 : 			strIndicator = strArrayIndicator.GetAt(lPos);

  001c1	50		 push	 eax
  001c2	ff 15 00 00 00
	00		 call	 DWORD PTR __imp_??4?$CStringT@DV?$StrTraitMFC_DLL@DV?$ChTraitsCRT@D@ATL@@@@@ATL@@QAEAAV01@ABV01@@Z

; 1265 : 			if(m_pChartMng->GetSafeHwnd())

  001c8	8b 8d a4 fe ff
	ff		 mov	 ecx, DWORD PTR _this$GSCopy$1$[ebp]
  001ce	8b 81 00 33 00
	00		 mov	 eax, DWORD PTR [ecx+13056]
; File C:\Program Files (x86)\Microsoft Visual Studio\2019\Community\VC\Tools\MSVC\14.29.30133\atlmfc\include\afxwin2.inl

; 25   : 	{ return this == NULL ? NULL : m_hWnd; }

  001d4	85 c0		 test	 eax, eax
  001d6	74 21		 je	 SHORT $LN22@OnBtindex
  001d8	8b 40 20	 mov	 eax, DWORD PTR [eax+32]
; File D:\git\src\IBK\IBK_DRFN\ProjSrc\SrcDrfn\Chart\MULTICHART\ExtInputBarDlg.cpp

; 1265 : 			if(m_pChartMng->GetSafeHwnd())

  001db	85 c0		 test	 eax, eax
  001dd	74 1a		 je	 SHORT $LN22@OnBtindex
; File C:\Program Files (x86)\Microsoft Visual Studio\2019\Community\VC\Tools\MSVC\14.29.30133\atlmfc\include\afxwin2.inl

; 32   : 	{ ASSERT(::IsWindow(m_hWnd)); return ::SendMessage(m_hWnd, message, wParam, lParam); }

  001df	6a 00		 push	 0
  001e1	ff b5 8c fe ff
	ff		 push	 DWORD PTR _strIndicator$[ebp]
  001e7	68 10 04 00 00	 push	 1040			; 00000410H
  001ec	50		 push	 eax
  001ed	ff 15 00 00 00
	00		 call	 DWORD PTR __imp__SendMessageA@16
; File D:\git\src\IBK\IBK_DRFN\ProjSrc\SrcDrfn\Chart\MULTICHART\ExtInputBarDlg.cpp

; 1266 : 				bExistance = m_pChartMng->SendMessage(UMSG_HASGRAPH,(WPARAM)(LPCTSTR)strIndicator);

  001f3	89 85 94 fe ff
	ff		 mov	 DWORD PTR _bExistance$1$[ebp], eax
$LN22@OnBtindex:
; File C:\Program Files (x86)\Microsoft Visual Studio\2019\Community\VC\Tools\MSVC\14.29.30133\atlmfc\include\afxwin1.inl

; 924  : 	{ ASSERT(::IsMenu(m_hMenu)); return ::AppendMenu(m_hMenu, nFlags, nIDNewItem, lpszNewItem); }

  001f9	ff b5 8c fe ff
	ff		 push	 DWORD PTR _strIndicator$[ebp]
  001ff	8b 8d a0 fe ff
	ff		 mov	 ecx, DWORD PTR _lPosAll$1$[ebp]
  00205	83 c1 64	 add	 ecx, 100		; 00000064H
  00208	51		 push	 ecx
  00209	8b 8d 94 fe ff
	ff		 mov	 ecx, DWORD PTR _bExistance$1$[ebp]
  0020f	f7 d9		 neg	 ecx
  00211	1b c9		 sbb	 ecx, ecx
  00213	83 e1 08	 and	 ecx, 8
  00216	51		 push	 ecx
  00217	ff 77 04	 push	 DWORD PTR [edi+4]
  0021a	ff 15 00 00 00
	00		 call	 DWORD PTR __imp__AppendMenuA@16
; File D:\git\src\IBK\IBK_DRFN\ProjSrc\SrcDrfn\Chart\MULTICHART\ExtInputBarDlg.cpp

; 1277 : 			lPosAll++;

  00220	ff 85 a0 fe ff
	ff		 inc	 DWORD PTR _lPosAll$1$[ebp]
  00226	46		 inc	 esi
  00227	3b f3		 cmp	 esi, ebx
  00229	7d 0b		 jge	 SHORT $LN177@OnBtindex

; 1259 : 		nFlagsChild = NULL;
; 1260 : 		bExistance = FALSE;
; 1261 : 
; 1262 : 		for(long lPos=0;lPos<lSize;lPos++)

  0022b	8b 85 50 fe ff
	ff		 mov	 eax, DWORD PTR _strArrayIndicator$[ebp+8]
  00231	e9 6c ff ff ff	 jmp	 $LL7@OnBtindex
$LN177@OnBtindex:

; 1278 : 		}
; 1279 : 		strArrayIndicatorAll.Append(strArrayIndicator);

  00236	8d 85 48 fe ff
	ff		 lea	 eax, DWORD PTR _strArrayIndicator$[ebp]
  0023c	50		 push	 eax
  0023d	8d 8d 5c fe ff
	ff		 lea	 ecx, DWORD PTR _strArrayIndicatorAll$[ebp]
  00243	e8 00 00 00 00	 call	 ?Append@CStringArray@@QAEHABV1@@Z ; CStringArray::Append

; 1280 : 
; 1281 : 		//==========================================================
; 1282 : 		//       . 05.11. 01
; 1283 : 		//     
; 1284 : 		//==========================================================
; 1285 : 		if(lIndex == lAllCnt - 1)

  00248	8b b5 7c fe ff
	ff		 mov	 esi, DWORD PTR tv955[ebp]
  0024e	8b 9d a8 fe ff
	ff		 mov	 ebx, DWORD PTR _lIndex$1$[ebp]
  00254	8d 46 ff	 lea	 eax, DWORD PTR [esi-1]
  00257	3b d8		 cmp	 ebx, eax
  00259	75 12		 jne	 SHORT $LN2@OnBtindex

; 1286 : 		{
; 1287 : 			strArrayMarket.Append(strArrayIndicator);

  0025b	8d 85 48 fe ff
	ff		 lea	 eax, DWORD PTR _strArrayIndicator$[ebp]
  00261	50		 push	 eax
  00262	8d 8d 34 fe ff
	ff		 lea	 ecx, DWORD PTR _strArrayMarket$[ebp]
  00268	e8 00 00 00 00	 call	 ?Append@CStringArray@@QAEHABV1@@Z ; CStringArray::Append
$LN2@OnBtindex:

; 1250 : 	for(long lIndex = 0;lIndex<lAllCnt;lIndex++)

  0026d	43		 inc	 ebx
  0026e	89 9d a8 fe ff
	ff		 mov	 DWORD PTR _lIndex$1$[ebp], ebx
  00274	3b de		 cmp	 ebx, esi
  00276	7d 0b		 jge	 SHORT $LN170@OnBtindex
  00278	8b 35 00 00 00
	00		 mov	 esi, DWORD PTR __imp__CreatePopupMenu@0
  0027e	e9 80 fe ff ff	 jmp	 $LL4@OnBtindex
$LN170@OnBtindex:
; File C:\Program Files (x86)\Microsoft Visual Studio\2019\Community\VC\Tools\MSVC\14.29.30133\atlmfc\include\afxwin2.inl

; 213  : 	{ ASSERT(::IsWindow(m_hWnd)); return CWnd::FromHandle(::GetParent(m_hWnd)); }

  00283	8b 9d a4 fe ff
	ff		 mov	 ebx, DWORD PTR _this$GSCopy$1$[ebp]
; File D:\git\src\IBK\IBK_DRFN\ProjSrc\SrcDrfn\Chart\MULTICHART\ExtInputBarDlg.cpp

; 1294 : 	int nCntAddedByFavorite = 0;

  00289	33 ff		 xor	 edi, edi
  0028b	89 bd 90 fe ff
	ff		 mov	 DWORD PTR _nCntAddedByFavorite$1$[ebp], edi
; File C:\Program Files (x86)\Microsoft Visual Studio\2019\Community\VC\Tools\MSVC\14.29.30133\atlmfc\include\afxwin2.inl

; 213  : 	{ ASSERT(::IsWindow(m_hWnd)); return CWnd::FromHandle(::GetParent(m_hWnd)); }

  00291	ff 73 20	 push	 DWORD PTR [ebx+32]
  00294	ff 15 00 00 00
	00		 call	 DWORD PTR __imp__GetParent@4
  0029a	50		 push	 eax
  0029b	e8 00 00 00 00	 call	 ?FromHandle@CWnd@@SGPAV1@PAUHWND__@@@Z ; CWnd::FromHandle
  002a0	8b f0		 mov	 esi, eax
; File D:\git\src\IBK\IBK_DRFN\ProjSrc\SrcDrfn\Chart\MULTICHART\ExtInputBarDlg.cpp

; 1298 : 	pFavoriteMng = &((CStdDialog*)GetParent())->m_FavoriteMng;

  002a2	81 c6 d4 07 00
	00		 add	 esi, 2004		; 000007d4H
  002a8	89 b5 70 fe ff
	ff		 mov	 DWORD PTR _pFavoriteMng$1$[ebp], esi

; 1299 : 	if(pFavoriteMng)

  002ae	0f 84 cd 01 00
	00		 je	 $LN26@OnBtindex

; 1300 : 	{
; 1301 : 		pFavoriteMng->LoadGrpInfo();

  002b4	8b ce		 mov	 ecx, esi
  002b6	e8 00 00 00 00	 call	 ?LoadGrpInfo@CFavoriteThingsMng@@QAEHXZ ; CFavoriteThingsMng::LoadGrpInfo

; 1302 : 		DWORD wSizeGrp = pFavoriteMng->m_strArrayGrp.GetSize();

  002bb	8b 46 0c	 mov	 eax, DWORD PTR [esi+12]

; 1303 : 		DWORD wSizeItem = 0;
; 1304 : 		HTREEITEM  hRootItem = NULL;
; 1305 : 		HTREEITEM  hItem = NULL;
; 1306 : 		CString strGrpName;

  002be	8d 8d a8 fe ff
	ff		 lea	 ecx, DWORD PTR _strGrpName$5[ebp]
  002c4	89 85 80 fe ff
	ff		 mov	 DWORD PTR _wSizeGrp$1$[ebp], eax
  002ca	ff 15 00 00 00
	00		 call	 DWORD PTR __imp_??0?$CStringT@DV?$StrTraitMFC_DLL@DV?$ChTraitsCRT@D@ATL@@@@@ATL@@QAE@XZ

; 1307 : 		CString strItemName;

  002d0	8d 8d 78 fe ff
	ff		 lea	 ecx, DWORD PTR _strItemName$2[ebp]
  002d6	ff 15 00 00 00
	00		 call	 DWORD PTR __imp_??0?$CStringT@DV?$StrTraitMFC_DLL@DV?$ChTraitsCRT@D@ATL@@@@@ATL@@QAE@XZ

; 1308 : 		DWORD wIndexGrp = 0;
; 1309 : 		DWORD wIndexItem = 0;
; 1310 : 		stFvrData _stFvrData;
; 1311 : 		BOOL	bCreateRoot = FALSE;
; 1312 : 		for(wIndexGrp=0;wIndexGrp<wSizeGrp;wIndexGrp++)

  002dc	33 c9		 xor	 ecx, ecx
  002de	c6 45 fc 06	 mov	 BYTE PTR __$EHRec$[ebp+8], 6
  002e2	89 8d 84 fe ff
	ff		 mov	 DWORD PTR _wIndexGrp$1$[ebp], ecx
  002e8	39 8d 80 fe ff
	ff		 cmp	 DWORD PTR _wSizeGrp$1$[ebp], ecx
  002ee	0f 86 71 01 00
	00		 jbe	 $LN9@OnBtindex
$LL10@OnBtindex:
; File C:\Program Files (x86)\Microsoft Visual Studio\2019\Community\VC\Tools\MSVC\14.29.30133\atlmfc\include\afxcoll.inl

; 289  : 		if( nIndex < 0 || nIndex >= m_nSize )

  002f4	85 c9		 test	 ecx, ecx
  002f6	0f 88 32 03 00
	00		 js	 $LN147@OnBtindex
  002fc	3b 4e 0c	 cmp	 ecx, DWORD PTR [esi+12]
  002ff	0f 8d 29 03 00
	00		 jge	 $LN147@OnBtindex

; 291  : 		return m_pData[nIndex]; }

  00305	8b 46 08	 mov	 eax, DWORD PTR [esi+8]
  00308	8d 04 88	 lea	 eax, DWORD PTR [eax+ecx*4]
; File D:\git\src\IBK\IBK_DRFN\ProjSrc\SrcDrfn\Chart\MULTICHART\ExtInputBarDlg.cpp

; 1315 : 			strGrpName  = pFavoriteMng->m_strArrayGrp.GetAt(wIndexGrp);

  0030b	50		 push	 eax
  0030c	8d 8d a8 fe ff
	ff		 lea	 ecx, DWORD PTR _strGrpName$5[ebp]
  00312	ff 15 00 00 00
	00		 call	 DWORD PTR __imp_??4?$CStringT@DV?$StrTraitMFC_DLL@DV?$ChTraitsCRT@D@ATL@@@@@ATL@@QAEAAV01@ABV01@@Z

; 1316 : 			pFavoriteMng->LoadItemInfo(strGrpName);

  00318	ff b5 a8 fe ff
	ff		 push	 DWORD PTR _strGrpName$5[ebp]
  0031e	8b ce		 mov	 ecx, esi
  00320	e8 00 00 00 00	 call	 ?LoadItemInfo@CFavoriteThingsMng@@QAEHPBD@Z ; CFavoriteThingsMng::LoadItemInfo

; 1317 : 			wSizeItem = pFavoriteMng->m_ArrayFvrItem.GetSize();

  00325	8b 46 20	 mov	 eax, DWORD PTR [esi+32]

; 1318 : 			for(wIndexItem=0;wIndexItem<wSizeItem;wIndexItem++)

  00328	33 db		 xor	 ebx, ebx
  0032a	89 85 74 fe ff
	ff		 mov	 DWORD PTR _wSizeItem$1$[ebp], eax
  00330	85 c0		 test	 eax, eax
  00332	0f 84 0e 01 00
	00		 je	 $LN8@OnBtindex
; File C:\Program Files (x86)\Microsoft Visual Studio\2019\Community\VC\Tools\MSVC\14.29.30133\atlmfc\include\afxcoll.inl

; 291  : 		return m_pData[nIndex]; }

  00338	33 c0		 xor	 eax, eax
  0033a	89 85 88 fe ff
	ff		 mov	 DWORD PTR tv946[ebp], eax
$LL13@OnBtindex:
; File C:\Program Files (x86)\Microsoft Visual Studio\2019\Community\VC\Tools\MSVC\14.29.30133\atlmfc\include\afxtempl.h

; 288  : 	if(nIndex >= 0 && nIndex < m_nSize)

  00340	85 db		 test	 ebx, ebx
  00342	0f 88 e6 02 00
	00		 js	 $LN147@OnBtindex
  00348	3b 5e 20	 cmp	 ebx, DWORD PTR [esi+32]
  0034b	0f 8d dd 02 00
	00		 jge	 $LN147@OnBtindex

; 289  : 		return m_pData[nIndex];

  00351	8b 76 1c	 mov	 esi, DWORD PTR [esi+28]
; File D:\git\src\IBK\IBK_DRFN\ProjSrc\SrcDrfn\Chart\MULTICHART\ExtInputBarDlg.cpp

; 1320 : 				_stFvrData = pFavoriteMng->m_ArrayFvrItem.GetAt(wIndexItem);

  00354	8d bd ac fe ff
	ff		 lea	 edi, DWORD PTR __stFvrData$6[ebp]
; File C:\Program Files (x86)\Microsoft Visual Studio\2019\Community\VC\Tools\MSVC\14.29.30133\atlmfc\include\afxtempl.h

; 289  : 		return m_pData[nIndex];

  0035a	03 f0		 add	 esi, eax
; File D:\git\src\IBK\IBK_DRFN\ProjSrc\SrcDrfn\Chart\MULTICHART\ExtInputBarDlg.cpp

; 1320 : 				_stFvrData = pFavoriteMng->m_ArrayFvrItem.GetAt(wIndexItem);

  0035c	b9 46 00 00 00	 mov	 ecx, 70			; 00000046H
  00361	f3 a5		 rep movsd

; 1321 : 				if(_stFvrData.m_lTabNum==TABNO_ASSISTINDEX&&_stFvrData.m_lSubData1==0)

  00363	83 bd ec fe ff
	ff 01		 cmp	 DWORD PTR __stFvrData$6[ebp+64], 1
  0036a	8b bd 90 fe ff
	ff		 mov	 edi, DWORD PTR _nCntAddedByFavorite$1$[ebp]
  00370	0f 85 b2 00 00
	00		 jne	 $LN11@OnBtindex
  00376	83 bd f0 fe ff
	ff 00		 cmp	 DWORD PTR __stFvrData$6[ebp+68], 0
  0037d	0f 85 a5 00 00
	00		 jne	 $LN11@OnBtindex

; 1322 : 				{
; 1323 : 					if(!nCntAddedByFavorite)

  00383	85 ff		 test	 edi, edi
  00385	75 18		 jne	 SHORT $LN28@OnBtindex
; File C:\Program Files (x86)\Microsoft Visual Studio\2019\Community\VC\Tools\MSVC\14.29.30133\atlmfc\include\afxwin1.inl

; 924  : 	{ ASSERT(::IsMenu(m_hMenu)); return ::AppendMenu(m_hMenu, nFlags, nIDNewItem, lpszNewItem); }

  00387	57		 push	 edi
  00388	57		 push	 edi
  00389	68 00 08 00 00	 push	 2048			; 00000800H
  0038e	ff b5 9c fe ff
	ff		 push	 DWORD PTR _menu$[ebp+4]
  00394	ff 15 00 00 00
	00		 call	 DWORD PTR __imp__AppendMenuA@16
; File D:\git\src\IBK\IBK_DRFN\ProjSrc\SrcDrfn\Chart\MULTICHART\ExtInputBarDlg.cpp

; 1326 : 						nCntAddedByFavorite++;

  0039a	bf 01 00 00 00	 mov	 edi, 1
$LN28@OnBtindex:

; 1329 : 					if(m_pChartMng->GetSafeHwnd())

  0039f	8b 85 a4 fe ff
	ff		 mov	 eax, DWORD PTR _this$GSCopy$1$[ebp]
  003a5	8b 80 00 33 00
	00		 mov	 eax, DWORD PTR [eax+13056]
; File C:\Program Files (x86)\Microsoft Visual Studio\2019\Community\VC\Tools\MSVC\14.29.30133\atlmfc\include\afxwin2.inl

; 25   : 	{ return this == NULL ? NULL : m_hWnd; }

  003ab	85 c0		 test	 eax, eax
  003ad	74 22		 je	 SHORT $LN29@OnBtindex
  003af	8b 40 20	 mov	 eax, DWORD PTR [eax+32]
; File D:\git\src\IBK\IBK_DRFN\ProjSrc\SrcDrfn\Chart\MULTICHART\ExtInputBarDlg.cpp

; 1329 : 					if(m_pChartMng->GetSafeHwnd())

  003b2	85 c0		 test	 eax, eax
  003b4	74 1b		 je	 SHORT $LN29@OnBtindex
; File C:\Program Files (x86)\Microsoft Visual Studio\2019\Community\VC\Tools\MSVC\14.29.30133\atlmfc\include\afxwin2.inl

; 32   : 	{ ASSERT(::IsWindow(m_hWnd)); return ::SendMessage(m_hWnd, message, wParam, lParam); }

  003b6	6a 00		 push	 0
  003b8	8d 8d 04 ff ff
	ff		 lea	 ecx, DWORD PTR __stFvrData$6[ebp+88]
  003be	51		 push	 ecx
  003bf	68 10 04 00 00	 push	 1040			; 00000410H
  003c4	50		 push	 eax
  003c5	ff 15 00 00 00
	00		 call	 DWORD PTR __imp__SendMessageA@16
; File D:\git\src\IBK\IBK_DRFN\ProjSrc\SrcDrfn\Chart\MULTICHART\ExtInputBarDlg.cpp

; 1330 : 						bExistance = m_pChartMng->SendMessage(UMSG_HASGRAPH,(WPARAM)(LPCTSTR)_stFvrData.m_chData1);

  003cb	89 85 94 fe ff
	ff		 mov	 DWORD PTR _bExistance$1$[ebp], eax
$LN29@OnBtindex:
; File C:\Program Files (x86)\Microsoft Visual Studio\2019\Community\VC\Tools\MSVC\14.29.30133\atlmfc\include\afxwin1.inl

; 924  : 	{ ASSERT(::IsMenu(m_hMenu)); return ::AppendMenu(m_hMenu, nFlags, nIDNewItem, lpszNewItem); }

  003d1	8b b5 a0 fe ff
	ff		 mov	 esi, DWORD PTR _lPosAll$1$[ebp]
  003d7	8d 85 04 ff ff
	ff		 lea	 eax, DWORD PTR __stFvrData$6[ebp+88]
  003dd	50		 push	 eax
  003de	8d 46 64	 lea	 eax, DWORD PTR [esi+100]
  003e1	50		 push	 eax
  003e2	8b 85 94 fe ff
	ff		 mov	 eax, DWORD PTR _bExistance$1$[ebp]
  003e8	f7 d8		 neg	 eax
  003ea	1b c0		 sbb	 eax, eax
  003ec	83 e0 08	 and	 eax, 8
  003ef	50		 push	 eax
  003f0	ff b5 9c fe ff
	ff		 push	 DWORD PTR _menu$[ebp+4]
  003f6	ff 15 00 00 00
	00		 call	 DWORD PTR __imp__AppendMenuA@16
; File C:\Program Files (x86)\Microsoft Visual Studio\2019\Community\VC\Tools\MSVC\14.29.30133\atlmfc\include\afxcoll.inl

; 316  : 		SetAtGrow(nIndex, newElement);

  003fc	8d 85 04 ff ff
	ff		 lea	 eax, DWORD PTR __stFvrData$6[ebp+88]
; File D:\git\src\IBK\IBK_DRFN\ProjSrc\SrcDrfn\Chart\MULTICHART\ExtInputBarDlg.cpp

; 1340 : 					nCntAddedByFavorite++;

  00402	47		 inc	 edi
; File C:\Program Files (x86)\Microsoft Visual Studio\2019\Community\VC\Tools\MSVC\14.29.30133\atlmfc\include\afxcoll.inl

; 316  : 		SetAtGrow(nIndex, newElement);

  00403	50		 push	 eax
  00404	ff b5 64 fe ff
	ff		 push	 DWORD PTR _strArrayIndicatorAll$[ebp+8]
; File D:\git\src\IBK\IBK_DRFN\ProjSrc\SrcDrfn\Chart\MULTICHART\ExtInputBarDlg.cpp

; 1341 : 					lPosAll++;

  0040a	46		 inc	 esi
  0040b	89 bd 90 fe ff
	ff		 mov	 DWORD PTR _nCntAddedByFavorite$1$[ebp], edi
; File C:\Program Files (x86)\Microsoft Visual Studio\2019\Community\VC\Tools\MSVC\14.29.30133\atlmfc\include\afxcoll.inl

; 316  : 		SetAtGrow(nIndex, newElement);

  00411	8d 8d 5c fe ff
	ff		 lea	 ecx, DWORD PTR _strArrayIndicatorAll$[ebp]
; File D:\git\src\IBK\IBK_DRFN\ProjSrc\SrcDrfn\Chart\MULTICHART\ExtInputBarDlg.cpp

; 1341 : 					lPosAll++;

  00417	89 b5 a0 fe ff
	ff		 mov	 DWORD PTR _lPosAll$1$[ebp], esi
; File C:\Program Files (x86)\Microsoft Visual Studio\2019\Community\VC\Tools\MSVC\14.29.30133\atlmfc\include\afxcoll.inl

; 316  : 		SetAtGrow(nIndex, newElement);

  0041d	e8 00 00 00 00	 call	 ?SetAtGrow@CStringArray@@QAEXHPBD@Z ; CStringArray::SetAtGrow
  00422	8b 85 88 fe ff
	ff		 mov	 eax, DWORD PTR tv946[ebp]
$LN11@OnBtindex:
; File D:\git\src\IBK\IBK_DRFN\ProjSrc\SrcDrfn\Chart\MULTICHART\ExtInputBarDlg.cpp

; 1318 : 			for(wIndexItem=0;wIndexItem<wSizeItem;wIndexItem++)

  00428	8b b5 70 fe ff
	ff		 mov	 esi, DWORD PTR _pFavoriteMng$1$[ebp]
  0042e	43		 inc	 ebx
  0042f	05 18 01 00 00	 add	 eax, 280		; 00000118H
  00434	89 85 88 fe ff
	ff		 mov	 DWORD PTR tv946[ebp], eax
  0043a	3b 9d 74 fe ff
	ff		 cmp	 ebx, DWORD PTR _wSizeItem$1$[ebp]
  00440	0f 82 fa fe ff
	ff		 jb	 $LL13@OnBtindex
$LN8@OnBtindex:

; 1308 : 		DWORD wIndexGrp = 0;
; 1309 : 		DWORD wIndexItem = 0;
; 1310 : 		stFvrData _stFvrData;
; 1311 : 		BOOL	bCreateRoot = FALSE;
; 1312 : 		for(wIndexGrp=0;wIndexGrp<wSizeGrp;wIndexGrp++)

  00446	8b 8d 84 fe ff
	ff		 mov	 ecx, DWORD PTR _wIndexGrp$1$[ebp]
  0044c	41		 inc	 ecx
  0044d	89 8d 84 fe ff
	ff		 mov	 DWORD PTR _wIndexGrp$1$[ebp], ecx
  00453	3b 8d 80 fe ff
	ff		 cmp	 ecx, DWORD PTR _wSizeGrp$1$[ebp]
  00459	0f 82 95 fe ff
	ff		 jb	 $LL10@OnBtindex

; 1360 : 			if( sJipyo.CompareNoCase(strArrayMarket.GetAt(k)) == 0 )

  0045f	8b 9d a4 fe ff
	ff		 mov	 ebx, DWORD PTR _this$GSCopy$1$[ebp]
$LN9@OnBtindex:

; 1342 : 					strArrayIndicatorAll.Add(_stFvrData.m_chData1);
; 1343 : 				}
; 1344 : 			}		
; 1345 : 		}
; 1346 : 	}

  00465	8d 8d 78 fe ff
	ff		 lea	 ecx, DWORD PTR _strItemName$2[ebp]
  0046b	ff 15 00 00 00
	00		 call	 DWORD PTR __imp_??1?$CStringT@DV?$StrTraitMFC_DLL@DV?$ChTraitsCRT@D@ATL@@@@@ATL@@QAE@XZ
  00471	8d 8d a8 fe ff
	ff		 lea	 ecx, DWORD PTR _strGrpName$5[ebp]
  00477	c6 45 fc 04	 mov	 BYTE PTR __$EHRec$[ebp+8], 4
  0047b	ff 15 00 00 00
	00		 call	 DWORD PTR __imp_??1?$CStringT@DV?$StrTraitMFC_DLL@DV?$ChTraitsCRT@D@ATL@@@@@ATL@@QAE@XZ
$LN26@OnBtindex:

; 1349 : 	GetDlgItem(IDC_BTINDEX)->GetWindowRect(rect);

  00481	0f 57 c0	 xorps	 xmm0, xmm0
  00484	8b cb		 mov	 ecx, ebx
  00486	68 00 18 00 00	 push	 6144			; 00001800H
; File C:\Program Files (x86)\Microsoft Visual Studio\2019\Community\VC\Tools\MSVC\14.29.30133\atlmfc\include\atltypes.h

; 528  : 	left = 0;

  0048b	0f 11 45 c4	 movups	 XMMWORD PTR _rect$[ebp], xmm0
; File D:\git\src\IBK\IBK_DRFN\ProjSrc\SrcDrfn\Chart\MULTICHART\ExtInputBarDlg.cpp

; 1349 : 	GetDlgItem(IDC_BTINDEX)->GetWindowRect(rect);

  0048f	e8 00 00 00 00	 call	 ?GetDlgItem@CWnd@@QBEPAV1@H@Z ; CWnd::GetDlgItem
; File C:\Program Files (x86)\Microsoft Visual Studio\2019\Community\VC\Tools\MSVC\14.29.30133\atlmfc\include\afxwin2.inl

; 84   : 	{ ASSERT(::IsWindow(m_hWnd)); ::GetWindowRect(m_hWnd, lpRect); }

  00494	8d 4d c4	 lea	 ecx, DWORD PTR _rect$[ebp]
  00497	51		 push	 ecx
  00498	ff 70 20	 push	 DWORD PTR [eax+32]
  0049b	ff 15 00 00 00
	00		 call	 DWORD PTR __imp__GetWindowRect@8
; File D:\git\src\IBK\IBK_DRFN\ProjSrc\SrcDrfn\Chart\MULTICHART\ExtInputBarDlg.cpp

; 1351 : 	int nRetValue = menu.TrackPopupMenu(nFlags, rect.left, rect.bottom, this);

  004a1	6a 00		 push	 0
  004a3	53		 push	 ebx
  004a4	ff 75 d0	 push	 DWORD PTR _rect$[ebp+12]
  004a7	8d 8d 98 fe ff
	ff		 lea	 ecx, DWORD PTR _menu$[ebp]
  004ad	ff 75 c4	 push	 DWORD PTR _rect$[ebp]
  004b0	68 82 01 00 00	 push	 386			; 00000182H
  004b5	e8 00 00 00 00	 call	 ?TrackPopupMenu@CMenu@@QAEHIHHPAVCWnd@@PBUtagRECT@@@Z ; CMenu::TrackPopupMenu

; 1352 : 	if(nRetValue)

  004ba	85 c0		 test	 eax, eax
  004bc	0f 84 bb 00 00
	00		 je	 $LN32@OnBtindex

; 1354 : 		CString sJipyo = strArrayIndicatorAll.GetAt(nRetValue-100);

  004c2	8d 48 9c	 lea	 ecx, DWORD PTR [eax-100]
; File C:\Program Files (x86)\Microsoft Visual Studio\2019\Community\VC\Tools\MSVC\14.29.30133\atlmfc\include\afxcoll.inl

; 289  : 		if( nIndex < 0 || nIndex >= m_nSize )

  004c5	85 c9		 test	 ecx, ecx
  004c7	0f 88 61 01 00
	00		 js	 $LN147@OnBtindex
  004cd	3b 8d 64 fe ff
	ff		 cmp	 ecx, DWORD PTR _strArrayIndicatorAll$[ebp+8]
  004d3	0f 8d 55 01 00
	00		 jge	 $LN147@OnBtindex

; 291  : 		return m_pData[nIndex]; }

  004d9	8b 85 60 fe ff
	ff		 mov	 eax, DWORD PTR _strArrayIndicatorAll$[ebp+4]
  004df	8d 04 88	 lea	 eax, DWORD PTR [eax+ecx*4]
; File D:\git\src\IBK\IBK_DRFN\ProjSrc\SrcDrfn\Chart\MULTICHART\ExtInputBarDlg.cpp

; 1354 : 		CString sJipyo = strArrayIndicatorAll.GetAt(nRetValue-100);

  004e2	50		 push	 eax
  004e3	8d 8d a8 fe ff
	ff		 lea	 ecx, DWORD PTR _sJipyo$4[ebp]
  004e9	ff 15 00 00 00
	00		 call	 DWORD PTR __imp_??0?$CStringT@DV?$StrTraitMFC_DLL@DV?$ChTraitsCRT@D@ATL@@@@@ATL@@QAE@ABV01@@Z

; 1355 : 
; 1356 : 		//==============================================================================
; 1357 : 		BOOL	bMarketJipyo = FALSE;
; 1358 : 		for(int k = 0; k < strArrayMarket.GetSize(); k++)

  004ef	8b 85 3c fe ff
	ff		 mov	 eax, DWORD PTR _strArrayMarket$[ebp+8]
  004f5	33 db		 xor	 ebx, ebx
  004f7	33 f6		 xor	 esi, esi
  004f9	c6 45 fc 07	 mov	 BYTE PTR __$EHRec$[ebp+8], 7
  004fd	85 c0		 test	 eax, eax
  004ff	7e 3b		 jle	 SHORT $LN15@OnBtindex
$LL16@OnBtindex:
; File C:\Program Files (x86)\Microsoft Visual Studio\2019\Community\VC\Tools\MSVC\14.29.30133\atlmfc\include\afxcoll.inl

; 289  : 		if( nIndex < 0 || nIndex >= m_nSize )

  00501	85 f6		 test	 esi, esi
  00503	0f 88 25 01 00
	00		 js	 $LN147@OnBtindex
  00509	3b f0		 cmp	 esi, eax
  0050b	0f 8d 1d 01 00
	00		 jge	 $LN147@OnBtindex

; 291  : 		return m_pData[nIndex]; }

  00511	8b 85 38 fe ff
	ff		 mov	 eax, DWORD PTR _strArrayMarket$[ebp+4]
; File D:\git\src\IBK\IBK_DRFN\ProjSrc\SrcDrfn\Chart\MULTICHART\ExtInputBarDlg.cpp

; 1360 : 			if( sJipyo.CompareNoCase(strArrayMarket.GetAt(k)) == 0 )

  00517	8d 8d a8 fe ff
	ff		 lea	 ecx, DWORD PTR _sJipyo$4[ebp]
  0051d	ff 34 b0	 push	 DWORD PTR [eax+esi*4]
  00520	ff 15 00 00 00
	00		 call	 DWORD PTR __imp_?CompareNoCase@?$CStringT@DV?$StrTraitMFC_DLL@DV?$ChTraitsCRT@D@ATL@@@@@ATL@@QBEHPBD@Z
  00526	85 c0		 test	 eax, eax
  00528	74 0d		 je	 SHORT $LN150@OnBtindex

; 1355 : 
; 1356 : 		//==============================================================================
; 1357 : 		BOOL	bMarketJipyo = FALSE;
; 1358 : 		for(int k = 0; k < strArrayMarket.GetSize(); k++)

  0052a	8b 85 3c fe ff
	ff		 mov	 eax, DWORD PTR _strArrayMarket$[ebp+8]
  00530	46		 inc	 esi
  00531	3b f0		 cmp	 esi, eax
  00533	7c cc		 jl	 SHORT $LL16@OnBtindex

; 1360 : 			if( sJipyo.CompareNoCase(strArrayMarket.GetAt(k)) == 0 )

  00535	eb 05		 jmp	 SHORT $LN15@OnBtindex
$LN150@OnBtindex:

; 1361 : 			{
; 1362 : 				bMarketJipyo = TRUE;

  00537	bb 01 00 00 00	 mov	 ebx, 1
$LN15@OnBtindex:

; 1368 : 		if(m_pChartMng->GetSafeHwnd()) // 2005. 04. 22 by Nam

  0053c	8b 85 a4 fe ff
	ff		 mov	 eax, DWORD PTR _this$GSCopy$1$[ebp]
  00542	8b 80 00 33 00
	00		 mov	 eax, DWORD PTR [eax+13056]
; File C:\Program Files (x86)\Microsoft Visual Studio\2019\Community\VC\Tools\MSVC\14.29.30133\atlmfc\include\afxwin2.inl

; 25   : 	{ return this == NULL ? NULL : m_hWnd; }

  00548	85 c0		 test	 eax, eax
  0054a	74 21		 je	 SHORT $LN34@OnBtindex
  0054c	8b 48 20	 mov	 ecx, DWORD PTR [eax+32]
; File D:\git\src\IBK\IBK_DRFN\ProjSrc\SrcDrfn\Chart\MULTICHART\ExtInputBarDlg.cpp

; 1368 : 		if(m_pChartMng->GetSafeHwnd()) // 2005. 04. 22 by Nam

  0054f	85 c9		 test	 ecx, ecx
  00551	74 1a		 je	 SHORT $LN34@OnBtindex

; 1369 : 			m_pChartMng->SendMessage(UMSG_ADDCHARTBLOCK,(WPARAM)(LPCTSTR)sJipyo, bMarketJipyo ? FROM_EXTINPUTBAR_MARKET : 0) ;

  00553	8d 04 9d 00 00
	00 00		 lea	 eax, DWORD PTR [ebx*4]
; File C:\Program Files (x86)\Microsoft Visual Studio\2019\Community\VC\Tools\MSVC\14.29.30133\atlmfc\include\afxwin2.inl

; 32   : 	{ ASSERT(::IsWindow(m_hWnd)); return ::SendMessage(m_hWnd, message, wParam, lParam); }

  0055a	50		 push	 eax
  0055b	ff b5 a8 fe ff
	ff		 push	 DWORD PTR _sJipyo$4[ebp]
  00561	68 11 04 00 00	 push	 1041			; 00000411H
  00566	51		 push	 ecx
  00567	ff 15 00 00 00
	00		 call	 DWORD PTR __imp__SendMessageA@16
$LN34@OnBtindex:
; File D:\git\src\IBK\IBK_DRFN\ProjSrc\SrcDrfn\Chart\MULTICHART\ExtInputBarDlg.cpp

; 1370 : 	}

  0056d	8d 8d a8 fe ff
	ff		 lea	 ecx, DWORD PTR _sJipyo$4[ebp]
  00573	c6 45 fc 04	 mov	 BYTE PTR __$EHRec$[ebp+8], 4
  00577	ff 15 00 00 00
	00		 call	 DWORD PTR __imp_??1?$CStringT@DV?$StrTraitMFC_DLL@DV?$ChTraitsCRT@D@ATL@@@@@ATL@@QAE@XZ
$LN32@OnBtindex:

; 1371 : 	
; 1372 : 	for(long lIndexOfMenu=0;lIndexOfMenu<(lAllCnt+nCntAddedByFavorite);lIndexOfMenu++)

  0057d	8b 9d 7c fe ff
	ff		 mov	 ebx, DWORD PTR tv955[ebp]
  00583	03 df		 add	 ebx, edi
  00585	33 ff		 xor	 edi, edi
  00587	85 db		 test	 ebx, ebx
  00589	7e 33		 jle	 SHORT $LN18@OnBtindex
  0058b	0f 1f 44 00 00	 npad	 5
$LL19@OnBtindex:
; File C:\Program Files (x86)\Microsoft Visual Studio\2019\Community\VC\Tools\MSVC\14.29.30133\atlmfc\include\afxwin1.inl

; 951  : 	{ ASSERT(::IsMenu(m_hMenu)); return CMenu::FromHandle(::GetSubMenu(m_hMenu, nPos)); }

  00590	57		 push	 edi
  00591	ff b5 9c fe ff
	ff		 push	 DWORD PTR _menu$[ebp+4]
  00597	ff 15 00 00 00
	00		 call	 DWORD PTR __imp__GetSubMenu@8
  0059d	50		 push	 eax
  0059e	e8 00 00 00 00	 call	 ?FromHandle@CMenu@@SGPAV1@PAUHMENU__@@@Z ; CMenu::FromHandle
; File D:\git\src\IBK\IBK_DRFN\ProjSrc\SrcDrfn\Chart\MULTICHART\ExtInputBarDlg.cpp

; 1374 : 		pMenuChild = menu.GetSubMenu(lIndexOfMenu);

  005a3	8b f0		 mov	 esi, eax

; 1375 : 		if(pMenuChild)

  005a5	85 f6		 test	 esi, esi
  005a7	74 10		 je	 SHORT $LN17@OnBtindex

; 1376 : 		{
; 1377 : 			pMenuChild->DestroyMenu();

  005a9	8b ce		 mov	 ecx, esi
  005ab	e8 00 00 00 00	 call	 ?DestroyMenu@CMenu@@QAEHXZ ; CMenu::DestroyMenu

; 1378 : 			delete pMenuChild;

  005b0	8b 16		 mov	 edx, DWORD PTR [esi]
  005b2	8b ce		 mov	 ecx, esi
  005b4	6a 01		 push	 1
  005b6	ff 52 04	 call	 DWORD PTR [edx+4]
$LN17@OnBtindex:

; 1371 : 	
; 1372 : 	for(long lIndexOfMenu=0;lIndexOfMenu<(lAllCnt+nCntAddedByFavorite);lIndexOfMenu++)

  005b9	47		 inc	 edi
  005ba	3b fb		 cmp	 edi, ebx
  005bc	7c d2		 jl	 SHORT $LL19@OnBtindex
$LN18@OnBtindex:

; 1379 : 		}
; 1380 : 	}
; 1381 : 	menu.DestroyMenu();

  005be	8d 8d 98 fe ff
	ff		 lea	 ecx, DWORD PTR _menu$[ebp]
  005c4	e8 00 00 00 00	 call	 ?DestroyMenu@CMenu@@QAEHXZ ; CMenu::DestroyMenu

; 1382 : }

  005c9	8d 8d 8c fe ff
	ff		 lea	 ecx, DWORD PTR _strIndicator$[ebp]
  005cf	ff 15 00 00 00
	00		 call	 DWORD PTR __imp_??1?$CStringT@DV?$StrTraitMFC_DLL@DV?$ChTraitsCRT@D@ATL@@@@@ATL@@QAE@XZ
  005d5	8d 8d 34 fe ff
	ff		 lea	 ecx, DWORD PTR _strArrayMarket$[ebp]
  005db	e8 00 00 00 00	 call	 ??1CStringArray@@UAE@XZ	; CStringArray::~CStringArray
  005e0	8d 8d 5c fe ff
	ff		 lea	 ecx, DWORD PTR _strArrayIndicatorAll$[ebp]
  005e6	e8 00 00 00 00	 call	 ??1CStringArray@@UAE@XZ	; CStringArray::~CStringArray
  005eb	8d 8d 48 fe ff
	ff		 lea	 ecx, DWORD PTR _strArrayIndicator$[ebp]
  005f1	e8 00 00 00 00	 call	 ??1CStringArray@@UAE@XZ	; CStringArray::~CStringArray
; File C:\Program Files (x86)\Microsoft Visual Studio\2019\Community\VC\Tools\MSVC\14.29.30133\atlmfc\include\afxwin1.inl

; 905  : 	{ DestroyMenu(); }

  005f6	8d 8d 98 fe ff
	ff		 lea	 ecx, DWORD PTR _menu$[ebp]
  005fc	c7 45 fc 08 00
	00 00		 mov	 DWORD PTR __$EHRec$[ebp+8], 8
  00603	c7 85 98 fe ff
	ff 00 00 00 00	 mov	 DWORD PTR _menu$[ebp], OFFSET ??_7CMenu@@6B@
  0060d	e8 00 00 00 00	 call	 ?DestroyMenu@CMenu@@QAEHXZ ; CMenu::DestroyMenu
; File D:\git\src\IBK\IBK_DRFN\ProjSrc\SrcDrfn\Chart\MULTICHART\ExtInputBarDlg.cpp

; 1382 : }

  00612	8b 4d f4	 mov	 ecx, DWORD PTR __$EHRec$[ebp]
  00615	64 89 0d 00 00
	00 00		 mov	 DWORD PTR fs:0, ecx
  0061c	59		 pop	 ecx
  0061d	5f		 pop	 edi
  0061e	5e		 pop	 esi
  0061f	5b		 pop	 ebx
  00620	8b 4d f0	 mov	 ecx, DWORD PTR __$ArrayPad$[ebp]
  00623	33 cd		 xor	 ecx, ebp
  00625	e8 00 00 00 00	 call	 @__security_check_cookie@4
  0062a	8b e5		 mov	 esp, ebp
  0062c	5d		 pop	 ebp
  0062d	c3		 ret	 0
$LN147@OnBtindex:
  0062e	e8 00 00 00 00	 call	 ?AfxThrowInvalidArgException@@YGXXZ ; AfxThrowInvalidArgException
$LN181@OnBtindex:
  00633	cc		 int	 3
_TEXT	ENDS
;	COMDAT text$x
text$x	SEGMENT
__unwindfunclet$?OnBtindex@CExtInputBarDlg@@IAEXXZ$0:
  00000	8d 8d 98 fe ff
	ff		 lea	 ecx, DWORD PTR _menu$[ebp]
  00006	e9 00 00 00 00	 jmp	 ??1CMenu@@UAE@XZ	; CMenu::~CMenu
__unwindfunclet$?OnBtindex@CExtInputBarDlg@@IAEXXZ$1:
  0000b	8d 8d 48 fe ff
	ff		 lea	 ecx, DWORD PTR _strArrayIndicator$[ebp]
  00011	e9 00 00 00 00	 jmp	 ??1CStringArray@@UAE@XZ	; CStringArray::~CStringArray
__unwindfunclet$?OnBtindex@CExtInputBarDlg@@IAEXXZ$2:
  00016	8d 8d 5c fe ff
	ff		 lea	 ecx, DWORD PTR _strArrayIndicatorAll$[ebp]
  0001c	e9 00 00 00 00	 jmp	 ??1CStringArray@@UAE@XZ	; CStringArray::~CStringArray
__unwindfunclet$?OnBtindex@CExtInputBarDlg@@IAEXXZ$3:
  00021	8d 8d 34 fe ff
	ff		 lea	 ecx, DWORD PTR _strArrayMarket$[ebp]
  00027	e9 00 00 00 00	 jmp	 ??1CStringArray@@UAE@XZ	; CStringArray::~CStringArray
__unwindfunclet$?OnBtindex@CExtInputBarDlg@@IAEXXZ$4:
  0002c	8d 8d 8c fe ff
	ff		 lea	 ecx, DWORD PTR _strIndicator$[ebp]
  00032	ff 25 00 00 00
	00		 jmp	 DWORD PTR __imp_??1?$CStringT@DV?$StrTraitMFC_DLL@DV?$ChTraitsCRT@D@ATL@@@@@ATL@@QAE@XZ
__unwindfunclet$?OnBtindex@CExtInputBarDlg@@IAEXXZ$6:
  00038	8d 8d a8 fe ff
	ff		 lea	 ecx, DWORD PTR _strGrpName$5[ebp]
  0003e	ff 25 00 00 00
	00		 jmp	 DWORD PTR __imp_??1?$CStringT@DV?$StrTraitMFC_DLL@DV?$ChTraitsCRT@D@ATL@@@@@ATL@@QAE@XZ
__unwindfunclet$?OnBtindex@CExtInputBarDlg@@IAEXXZ$7:
  00044	8d 8d 78 fe ff
	ff		 lea	 ecx, DWORD PTR _strItemName$2[ebp]
  0004a	ff 25 00 00 00
	00		 jmp	 DWORD PTR __imp_??1?$CStringT@DV?$StrTraitMFC_DLL@DV?$ChTraitsCRT@D@ATL@@@@@ATL@@QAE@XZ
__unwindfunclet$?OnBtindex@CExtInputBarDlg@@IAEXXZ$8:
  00050	8d 8d a8 fe ff
	ff		 lea	 ecx, DWORD PTR _sJipyo$4[ebp]
  00056	ff 25 00 00 00
	00		 jmp	 DWORD PTR __imp_??1?$CStringT@DV?$StrTraitMFC_DLL@DV?$ChTraitsCRT@D@ATL@@@@@ATL@@QAE@XZ
  0005c	cc		 int	 3
  0005d	cc		 int	 3
  0005e	cc		 int	 3
  0005f	cc		 int	 3
  00060	cc		 int	 3
__ehhandler$?OnBtindex@CExtInputBarDlg@@IAEXXZ:
  00061	90		 npad	 1
  00062	90		 npad	 1
  00063	8b 54 24 08	 mov	 edx, DWORD PTR [esp+8]
  00067	8d 42 0c	 lea	 eax, DWORD PTR [edx+12]
  0006a	8b 8a 30 fe ff
	ff		 mov	 ecx, DWORD PTR [edx-464]
  00070	33 c8		 xor	 ecx, eax
  00072	e8 00 00 00 00	 call	 @__security_check_cookie@4
  00077	8b 4a fc	 mov	 ecx, DWORD PTR [edx-4]
  0007a	33 c8		 xor	 ecx, eax
  0007c	e8 00 00 00 00	 call	 @__security_check_cookie@4
  00081	b8 00 00 00 00	 mov	 eax, OFFSET __ehfuncinfo$?OnBtindex@CExtInputBarDlg@@IAEXXZ
  00086	e9 00 00 00 00	 jmp	 ___CxxFrameHandler3
text$x	ENDS
?OnBtindex@CExtInputBarDlg@@IAEXXZ ENDP			; CExtInputBarDlg::OnBtindex
; Function compile flags: /Ogtp
; File D:\git\src\IBK\IBK_DRFN\ProjSrc\SrcDrfn\Chart\MULTICHART\ExtInputBarDlg.cpp
; File C:\Program Files (x86)\Microsoft Visual Studio\2019\Community\VC\Tools\MSVC\14.29.30133\atlmfc\include\afxwin2.inl
; File D:\git\src\IBK\IBK_DRFN\ProjSrc\SrcDrfn\Chart\MULTICHART\ExtInputBarDlg.cpp
; File C:\Program Files (x86)\Microsoft Visual Studio\2019\Community\VC\Tools\MSVC\14.29.30133\atlmfc\include\afxwin2.inl
; File D:\git\src\IBK\IBK_DRFN\ProjSrc\SrcDrfn\Chart\MULTICHART\ExtInputBarDlg.cpp
;	COMDAT ?OnBtinitsplit@CExtInputBarDlg@@IAEXXZ
_TEXT	SEGMENT
?OnBtinitsplit@CExtInputBarDlg@@IAEXXZ PROC		; CExtInputBarDlg::OnBtinitsplit, COMDAT
; _this$ = ecx

; 1144 : {

  00000	56		 push	 esi
  00001	8b f1		 mov	 esi, ecx

; 1146 : 	if(m_pChartMng->GetSafeHwnd())

  00003	8b 86 00 33 00
	00		 mov	 eax, DWORD PTR [esi+13056]
; File C:\Program Files (x86)\Microsoft Visual Studio\2019\Community\VC\Tools\MSVC\14.29.30133\atlmfc\include\afxwin2.inl

; 25   : 	{ return this == NULL ? NULL : m_hWnd; }

  00009	85 c0		 test	 eax, eax
  0000b	74 17		 je	 SHORT $LN2@OnBtinitsp
  0000d	8b 40 20	 mov	 eax, DWORD PTR [eax+32]
; File D:\git\src\IBK\IBK_DRFN\ProjSrc\SrcDrfn\Chart\MULTICHART\ExtInputBarDlg.cpp

; 1146 : 	if(m_pChartMng->GetSafeHwnd())

  00010	85 c0		 test	 eax, eax
  00012	74 10		 je	 SHORT $LN2@OnBtinitsp
; File C:\Program Files (x86)\Microsoft Visual Studio\2019\Community\VC\Tools\MSVC\14.29.30133\atlmfc\include\afxwin2.inl

; 32   : 	{ ASSERT(::IsWindow(m_hWnd)); return ::SendMessage(m_hWnd, message, wParam, lParam); }

  00014	6a 00		 push	 0
  00016	6a 00		 push	 0
  00018	68 1f 04 00 00	 push	 1055			; 0000041fH
  0001d	50		 push	 eax
  0001e	ff 15 00 00 00
	00		 call	 DWORD PTR __imp__SendMessageA@16
$LN2@OnBtinitsp:
; File D:\git\src\IBK\IBK_DRFN\ProjSrc\SrcDrfn\Chart\MULTICHART\ExtInputBarDlg.cpp

; 3202 : 	m_chkJongmokLink.SetCheck(0);

  00024	6a 00		 push	 0
  00026	8d 8e 48 24 00
	00		 lea	 ecx, DWORD PTR [esi+9288]
  0002c	e8 00 00 00 00	 call	 ?SetCheck@CILButton@@QAEXH@Z ; CILButton::SetCheck

; 3203 : 	OnChkjongmoklink();

  00031	8b ce		 mov	 ecx, esi
  00033	e8 00 00 00 00	 call	 ?OnChkjongmoklink@CExtInputBarDlg@@IAEXXZ ; CExtInputBarDlg::OnChkjongmoklink

; 3204 : 	m_chkTypeLink.SetCheck(0);

  00038	6a 00		 push	 0
  0003a	8d 8e c8 29 00
	00		 lea	 ecx, DWORD PTR [esi+10696]
  00040	e8 00 00 00 00	 call	 ?SetCheck@CILButton@@QAEXH@Z ; CILButton::SetCheck

; 3205 : 	OnChktypelink();

  00045	8b ce		 mov	 ecx, esi
  00047	5e		 pop	 esi
  00048	e9 00 00 00 00	 jmp	 ?OnChktypelink@CExtInputBarDlg@@IAEXXZ ; CExtInputBarDlg::OnChktypelink
?OnBtinitsplit@CExtInputBarDlg@@IAEXXZ ENDP		; CExtInputBarDlg::OnBtinitsplit
_TEXT	ENDS
; Function compile flags: /Ogtp
; File D:\git\src\IBK\IBK_DRFN\ProjSrc\SrcDrfn\Chart\MULTICHART\ExtInputBarDlg.cpp
; File C:\Program Files (x86)\Microsoft Visual Studio\2019\Community\VC\Tools\MSVC\14.29.30133\atlmfc\include\afxwin2.inl
; File D:\git\src\IBK\IBK_DRFN\ProjSrc\SrcDrfn\Chart\MULTICHART\ExtInputBarDlg.cpp
;	COMDAT ?OnBtScrollStop@CExtInputBarDlg@@IAEXXZ
_TEXT	SEGMENT
?OnBtScrollStop@CExtInputBarDlg@@IAEXXZ PROC		; CExtInputBarDlg::OnBtScrollStop, COMDAT
; _this$ = ecx

; 3118 : {

  00000	55		 push	 ebp
  00001	8b ec		 mov	 ebp, esp
  00003	51		 push	 ecx
  00004	57		 push	 edi

; 3119 : 	m_nScrollState = SCROLL_STOP;
; 3120 : 
; 3121 : 	// TODO: Add your control notification handler code here
; 3122 : 	m_btScrollPre.FP_vSetImage(m_pIL_W20H20, 104, 106);

  00005	6a ff		 push	 -1
  00007	6a ff		 push	 -1
  00009	6a 00		 push	 0
  0000b	8b f9		 mov	 edi, ecx
  0000d	51		 push	 ecx
  0000e	8b cc		 mov	 ecx, esp
  00010	68 00 00 00 00	 push	 OFFSET ??_C@_00CNPNBAHC@@
  00015	c7 87 d0 00 00
	00 00 00 00 00	 mov	 DWORD PTR [edi+208], 0
  0001f	ff 15 00 00 00
	00		 call	 DWORD PTR __imp_??0?$CStringT@DV?$StrTraitMFC_DLL@DV?$ChTraitsCRT@D@ATL@@@@@ATL@@QAE@PBD@Z
  00025	6a 00		 push	 0
  00027	6a 6a		 push	 106			; 0000006aH
  00029	6a 68		 push	 104			; 00000068H
  0002b	ff b7 b8 00 00
	00		 push	 DWORD PTR [edi+184]
  00031	8d 8f 68 01 00
	00		 lea	 ecx, DWORD PTR [edi+360]
  00037	e8 00 00 00 00	 call	 ?FP_vSetImage@CILButton@@QAEXPAVCImageList@@HHHV?$CStringT@DV?$StrTraitMFC_DLL@DV?$ChTraitsCRT@D@ATL@@@@@ATL@@HHH@Z ; CILButton::FP_vSetImage

; 3123 : 	m_btScrollNext.FP_vSetImage(m_pIL_W20H20, 68, 70);

  0003c	6a ff		 push	 -1
  0003e	6a ff		 push	 -1
  00040	6a 00		 push	 0
  00042	51		 push	 ecx
  00043	8b cc		 mov	 ecx, esp
  00045	68 00 00 00 00	 push	 OFFSET ??_C@_00CNPNBAHC@@
  0004a	ff 15 00 00 00
	00		 call	 DWORD PTR __imp_??0?$CStringT@DV?$StrTraitMFC_DLL@DV?$ChTraitsCRT@D@ATL@@@@@ATL@@QAE@PBD@Z
  00050	6a 00		 push	 0
  00052	6a 46		 push	 70			; 00000046H
  00054	6a 44		 push	 68			; 00000044H
  00056	ff b7 b8 00 00
	00		 push	 DWORD PTR [edi+184]
  0005c	8d 8f c8 02 00
	00		 lea	 ecx, DWORD PTR [edi+712]
  00062	e8 00 00 00 00	 call	 ?FP_vSetImage@CILButton@@QAEXPAVCImageList@@HHHV?$CStringT@DV?$StrTraitMFC_DLL@DV?$ChTraitsCRT@D@ATL@@@@@ATL@@HHH@Z ; CILButton::FP_vSetImage
; File C:\Program Files (x86)\Microsoft Visual Studio\2019\Community\VC\Tools\MSVC\14.29.30133\atlmfc\include\afxwin2.inl

; 114  : 	{ ASSERT(::IsWindow(m_hWnd)); ::InvalidateRect(m_hWnd, NULL, bErase); }

  00067	6a 01		 push	 1
  00069	6a 00		 push	 0
  0006b	ff b7 e8 02 00
	00		 push	 DWORD PTR [edi+744]
  00071	ff 15 00 00 00
	00		 call	 DWORD PTR __imp__InvalidateRect@12
  00077	6a 01		 push	 1
  00079	6a 00		 push	 0
  0007b	ff b7 88 01 00
	00		 push	 DWORD PTR [edi+392]
  00081	ff 15 00 00 00
	00		 call	 DWORD PTR __imp__InvalidateRect@12

; 213  : 	{ ASSERT(::IsWindow(m_hWnd)); return CWnd::FromHandle(::GetParent(m_hWnd)); }

  00087	ff 77 20	 push	 DWORD PTR [edi+32]
  0008a	ff 15 00 00 00
	00		 call	 DWORD PTR __imp__GetParent@4
  00090	50		 push	 eax
  00091	e8 00 00 00 00	 call	 ?FromHandle@CWnd@@SGPAV1@PAUHWND__@@@Z ; CWnd::FromHandle

; 32   : 	{ ASSERT(::IsWindow(m_hWnd)); return ::SendMessage(m_hWnd, message, wParam, lParam); }

  00096	6a 01		 push	 1
  00098	68 f4 03 00 00	 push	 1012			; 000003f4H
  0009d	ff 35 00 00 00
	00		 push	 DWORD PTR ?RMS_ANALYSIS_FUNC@@3IB
  000a3	ff 70 20	 push	 DWORD PTR [eax+32]
  000a6	ff 15 00 00 00
	00		 call	 DWORD PTR __imp__SendMessageA@16
; File D:\git\src\IBK\IBK_DRFN\ProjSrc\SrcDrfn\Chart\MULTICHART\ExtInputBarDlg.cpp

; 3127 : }

  000ac	5f		 pop	 edi
  000ad	8b e5		 mov	 esp, ebp
  000af	5d		 pop	 ebp
  000b0	c3		 ret	 0
?OnBtScrollStop@CExtInputBarDlg@@IAEXXZ ENDP		; CExtInputBarDlg::OnBtScrollStop
_TEXT	ENDS
; Function compile flags: /Ogtp
; File D:\git\src\IBK\IBK_DRFN\ProjSrc\SrcDrfn\Chart\MULTICHART\ExtInputBarDlg.cpp
; File C:\Program Files (x86)\Microsoft Visual Studio\2019\Community\VC\Tools\MSVC\14.29.30133\atlmfc\include\afxwin2.inl
; File D:\git\src\IBK\IBK_DRFN\ProjSrc\SrcDrfn\Chart\MULTICHART\ExtInputBarDlg.cpp
; File C:\Program Files (x86)\Microsoft Visual Studio\2019\Community\VC\Tools\MSVC\14.29.30133\atlmfc\include\afxwin2.inl
; File D:\git\src\IBK\IBK_DRFN\ProjSrc\SrcDrfn\Chart\MULTICHART\ExtInputBarDlg.cpp
; File C:\Program Files (x86)\Microsoft Visual Studio\2019\Community\VC\Tools\MSVC\14.29.30133\atlmfc\include\afxwin2.inl
; File D:\git\src\IBK\IBK_DRFN\ProjSrc\SrcDrfn\Chart\MULTICHART\ExtInputBarDlg.cpp
; File C:\Program Files (x86)\Microsoft Visual Studio\2019\Community\VC\Tools\MSVC\14.29.30133\atlmfc\include\afxwin2.inl
; File D:\git\src\IBK\IBK_DRFN\ProjSrc\SrcDrfn\Chart\MULTICHART\ExtInputBarDlg.cpp
; File C:\Program Files (x86)\Microsoft Visual Studio\2019\Community\VC\Tools\MSVC\14.29.30133\atlmfc\include\afxwin2.inl
; File D:\git\src\IBK\IBK_DRFN\ProjSrc\SrcDrfn\Chart\MULTICHART\ExtInputBarDlg.cpp
; File C:\Program Files (x86)\Microsoft Visual Studio\2019\Community\VC\Tools\MSVC\14.29.30133\atlmfc\include\afxwin2.inl
; File D:\git\src\IBK\IBK_DRFN\ProjSrc\SrcDrfn\Chart\MULTICHART\ExtInputBarDlg.cpp
; File C:\Program Files (x86)\Microsoft Visual Studio\2019\Community\VC\Tools\MSVC\14.29.30133\atlmfc\include\afxwin2.inl
; File D:\git\src\IBK\IBK_DRFN\ProjSrc\SrcDrfn\Chart\MULTICHART\ExtInputBarDlg.cpp
; File C:\Program Files (x86)\Microsoft Visual Studio\2019\Community\VC\Tools\MSVC\14.29.30133\atlmfc\include\afxwin2.inl
; File D:\git\src\IBK\IBK_DRFN\ProjSrc\SrcDrfn\Chart\MULTICHART\ExtInputBarDlg.cpp
;	COMDAT ?OnBtScrollNext@CExtInputBarDlg@@IAEXXZ
_TEXT	SEGMENT
?OnBtScrollNext@CExtInputBarDlg@@IAEXXZ PROC		; CExtInputBarDlg::OnBtScrollNext, COMDAT
; _this$ = ecx

; 3130 : {

  00000	55		 push	 ebp
  00001	8b ec		 mov	 ebp, esp
  00003	51		 push	 ecx
  00004	53		 push	 ebx
  00005	56		 push	 esi
  00006	57		 push	 edi
; File C:\Program Files (x86)\Microsoft Visual Studio\2019\Community\VC\Tools\MSVC\14.29.30133\atlmfc\include\afxwin2.inl

; 32   : 	{ ASSERT(::IsWindow(m_hWnd)); return ::SendMessage(m_hWnd, message, wParam, lParam); }

  00007	8b 3d 00 00 00
	00		 mov	 edi, DWORD PTR __imp__SendMessageA@16
; File D:\git\src\IBK\IBK_DRFN\ProjSrc\SrcDrfn\Chart\MULTICHART\ExtInputBarDlg.cpp

; 3130 : {

  0000d	8b d9		 mov	 ebx, ecx
; File C:\Program Files (x86)\Microsoft Visual Studio\2019\Community\VC\Tools\MSVC\14.29.30133\atlmfc\include\afxwin2.inl

; 32   : 	{ ASSERT(::IsWindow(m_hWnd)); return ::SendMessage(m_hWnd, message, wParam, lParam); }

  0000f	6a 01		 push	 1
  00011	6a 01		 push	 1
  00013	ff 35 00 00 00
	00		 push	 DWORD PTR ?RMSG_GETINFO@@3IB
; File D:\git\src\IBK\IBK_DRFN\ProjSrc\SrcDrfn\Chart\MULTICHART\ExtInputBarDlg.cpp

; 3132 : 	if(m_pChartMng->SendMessage(RMSG_GETINFO, 1, 1) != 0)

  00019	8b 83 00 33 00
	00		 mov	 eax, DWORD PTR [ebx+13056]
; File C:\Program Files (x86)\Microsoft Visual Studio\2019\Community\VC\Tools\MSVC\14.29.30133\atlmfc\include\afxwin2.inl

; 32   : 	{ ASSERT(::IsWindow(m_hWnd)); return ::SendMessage(m_hWnd, message, wParam, lParam); }

  0001f	ff 70 20	 push	 DWORD PTR [eax+32]
  00022	ff d7		 call	 edi
; File D:\git\src\IBK\IBK_DRFN\ProjSrc\SrcDrfn\Chart\MULTICHART\ExtInputBarDlg.cpp

; 3132 : 	if(m_pChartMng->SendMessage(RMSG_GETINFO, 1, 1) != 0)

  00024	6a ff		 push	 -1
  00026	6a ff		 push	 -1
  00028	6a 00		 push	 0
  0002a	51		 push	 ecx
  0002b	8b cc		 mov	 ecx, esp
  0002d	68 00 00 00 00	 push	 OFFSET ??_C@_00CNPNBAHC@@
  00032	85 c0		 test	 eax, eax
  00034	74 42		 je	 SHORT $LN2@OnBtScroll

; 3133 : 	{
; 3134 : 		m_btScrollNext.FP_vSetImage(m_pIL_W20H20, 68, 70);

  00036	ff 15 00 00 00
	00		 call	 DWORD PTR __imp_??0?$CStringT@DV?$StrTraitMFC_DLL@DV?$ChTraitsCRT@D@ATL@@@@@ATL@@QAE@PBD@Z
  0003c	6a 00		 push	 0
  0003e	6a 46		 push	 70			; 00000046H
  00040	6a 44		 push	 68			; 00000044H
  00042	ff b3 b8 00 00
	00		 push	 DWORD PTR [ebx+184]
  00048	8d 8b c8 02 00
	00		 lea	 ecx, DWORD PTR [ebx+712]
  0004e	e8 00 00 00 00	 call	 ?FP_vSetImage@CILButton@@QAEXPAVCImageList@@HHHV?$CStringT@DV?$StrTraitMFC_DLL@DV?$ChTraitsCRT@D@ATL@@@@@ATL@@HHH@Z ; CILButton::FP_vSetImage
; File C:\Program Files (x86)\Microsoft Visual Studio\2019\Community\VC\Tools\MSVC\14.29.30133\atlmfc\include\afxwin2.inl

; 114  : 	{ ASSERT(::IsWindow(m_hWnd)); ::InvalidateRect(m_hWnd, NULL, bErase); }

  00053	6a 01		 push	 1
  00055	6a 00		 push	 0
  00057	ff b3 e8 02 00
	00		 push	 DWORD PTR [ebx+744]
  0005d	ff 15 00 00 00
	00		 call	 DWORD PTR __imp__InvalidateRect@12
; File D:\git\src\IBK\IBK_DRFN\ProjSrc\SrcDrfn\Chart\MULTICHART\ExtInputBarDlg.cpp

; 3136 : 		AfxMessageBox("  .");

  00063	6a 00		 push	 0
  00065	6a 00		 push	 0
  00067	68 00 00 00 00	 push	 OFFSET ??_C@_0CC@MAPLNIOL@?A?$LO?$LI?q?$LF?$LJ?$LH?A?$LK?$LI?$LB?b?5?$LB?b?$LE?I?$MA?L?5?$LF?$LP?$MA?$NL?A?$NP?$MA?T?$LE?O?$LE@
  0006c	e8 00 00 00 00	 call	 ?AfxMessageBox@@YGHPBDII@Z ; AfxMessageBox

; 3156 : }

  00071	5f		 pop	 edi
  00072	5e		 pop	 esi
  00073	5b		 pop	 ebx
  00074	8b e5		 mov	 esp, ebp
  00076	5d		 pop	 ebp
  00077	c3		 ret	 0
$LN2@OnBtScroll:

; 3137 : 		return;
; 3138 : 	}
; 3139 : 	m_nScrollState = SCROLL_RIGHT;

  00078	c7 83 d0 00 00
	00 02 00 00 00	 mov	 DWORD PTR [ebx+208], 2

; 3140 : 
; 3141 : 	// TODO: Add your control notification handler code here
; 3142 : 	m_btScrollNext.FP_vSetImage(m_pIL_W20H20, 70, 68);

  00082	ff 15 00 00 00
	00		 call	 DWORD PTR __imp_??0?$CStringT@DV?$StrTraitMFC_DLL@DV?$ChTraitsCRT@D@ATL@@@@@ATL@@QAE@PBD@Z
  00088	6a 00		 push	 0
  0008a	6a 44		 push	 68			; 00000044H
  0008c	6a 46		 push	 70			; 00000046H
  0008e	ff b3 b8 00 00
	00		 push	 DWORD PTR [ebx+184]
  00094	8d 8b c8 02 00
	00		 lea	 ecx, DWORD PTR [ebx+712]
  0009a	e8 00 00 00 00	 call	 ?FP_vSetImage@CILButton@@QAEXPAVCImageList@@HHHV?$CStringT@DV?$StrTraitMFC_DLL@DV?$ChTraitsCRT@D@ATL@@@@@ATL@@HHH@Z ; CILButton::FP_vSetImage

; 3143 : 	m_btScrollPre.FP_vSetImage(m_pIL_W20H20, 104, 106);

  0009f	6a ff		 push	 -1
  000a1	6a ff		 push	 -1
  000a3	6a 00		 push	 0
  000a5	51		 push	 ecx
  000a6	8b cc		 mov	 ecx, esp
  000a8	68 00 00 00 00	 push	 OFFSET ??_C@_00CNPNBAHC@@
  000ad	ff 15 00 00 00
	00		 call	 DWORD PTR __imp_??0?$CStringT@DV?$StrTraitMFC_DLL@DV?$ChTraitsCRT@D@ATL@@@@@ATL@@QAE@PBD@Z
  000b3	6a 00		 push	 0
  000b5	6a 6a		 push	 106			; 0000006aH
  000b7	6a 68		 push	 104			; 00000068H
  000b9	ff b3 b8 00 00
	00		 push	 DWORD PTR [ebx+184]
  000bf	8d 8b 68 01 00
	00		 lea	 ecx, DWORD PTR [ebx+360]
  000c5	e8 00 00 00 00	 call	 ?FP_vSetImage@CILButton@@QAEXPAVCImageList@@HHHV?$CStringT@DV?$StrTraitMFC_DLL@DV?$ChTraitsCRT@D@ATL@@@@@ATL@@HHH@Z ; CILButton::FP_vSetImage
; File C:\Program Files (x86)\Microsoft Visual Studio\2019\Community\VC\Tools\MSVC\14.29.30133\atlmfc\include\afxwin2.inl

; 114  : 	{ ASSERT(::IsWindow(m_hWnd)); ::InvalidateRect(m_hWnd, NULL, bErase); }

  000ca	8b 35 00 00 00
	00		 mov	 esi, DWORD PTR __imp__InvalidateRect@12
  000d0	6a 01		 push	 1
  000d2	6a 00		 push	 0
  000d4	ff b3 e8 02 00
	00		 push	 DWORD PTR [ebx+744]
  000da	ff d6		 call	 esi
  000dc	6a 01		 push	 1
  000de	6a 00		 push	 0
  000e0	ff b3 88 01 00
	00		 push	 DWORD PTR [ebx+392]
  000e6	ff d6		 call	 esi

; 765  : 	{ ASSERT(::IsWindow(m_hWnd)); return (int)::SendMessage(m_hWnd, CB_GETCURSEL, 0, 0); }

  000e8	6a 00		 push	 0
  000ea	6a 00		 push	 0
  000ec	68 47 01 00 00	 push	 327			; 00000147H
  000f1	ff b3 f0 30 00
	00		 push	 DWORD PTR [ebx+12528]
  000f7	ff d7		 call	 edi

; 213  : 	{ ASSERT(::IsWindow(m_hWnd)); return CWnd::FromHandle(::GetParent(m_hWnd)); }

  000f9	ff 73 20	 push	 DWORD PTR [ebx+32]
; File D:\git\src\IBK\IBK_DRFN\ProjSrc\SrcDrfn\Chart\MULTICHART\ExtInputBarDlg.cpp

; 3148 : 	int nIdx = m_cmbScrollSpeed.GetCurSel();

  000fc	8b f8		 mov	 edi, eax

; 3149 : 	if(nIdx == -1)

  000fe	33 c0		 xor	 eax, eax
  00100	83 ff ff	 cmp	 edi, -1
  00103	0f 44 f8	 cmove	 edi, eax
; File C:\Program Files (x86)\Microsoft Visual Studio\2019\Community\VC\Tools\MSVC\14.29.30133\atlmfc\include\afxwin2.inl

; 213  : 	{ ASSERT(::IsWindow(m_hWnd)); return CWnd::FromHandle(::GetParent(m_hWnd)); }

  00106	ff 15 00 00 00
	00		 call	 DWORD PTR __imp__GetParent@4
  0010c	50		 push	 eax
  0010d	e8 00 00 00 00	 call	 ?FromHandle@CWnd@@SGPAV1@PAUHWND__@@@Z ; CWnd::FromHandle
; File D:\git\src\IBK\IBK_DRFN\ProjSrc\SrcDrfn\Chart\MULTICHART\ExtInputBarDlg.cpp

; 3153 : 	int nSpeed = (int)pow(2.0, (double)nIdx);

  00112	f2 0f 10 05 00
	00 00 00	 movsd	 xmm0, QWORD PTR __real@4000000000000000
; File C:\Program Files (x86)\Microsoft Visual Studio\2019\Community\VC\Tools\MSVC\14.29.30133\atlmfc\include\afxwin2.inl

; 213  : 	{ ASSERT(::IsWindow(m_hWnd)); return CWnd::FromHandle(::GetParent(m_hWnd)); }

  0011a	8b f0		 mov	 esi, eax
  0011c	66 0f 6e cf	 movd	 xmm1, edi
; File D:\git\src\IBK\IBK_DRFN\ProjSrc\SrcDrfn\Chart\MULTICHART\ExtInputBarDlg.cpp

; 3153 : 	int nSpeed = (int)pow(2.0, (double)nIdx);

  00120	f3 0f e6 c9	 cvtdq2pd xmm1, xmm1
  00124	e8 00 00 00 00	 call	 __libm_sse2_pow_precise
  00129	f2 0f 2c c8	 cvttsd2si ecx, xmm0
; File C:\Program Files (x86)\Microsoft Visual Studio\2019\Community\VC\Tools\MSVC\14.29.30133\atlmfc\include\afxwin2.inl

; 32   : 	{ ASSERT(::IsWindow(m_hWnd)); return ::SendMessage(m_hWnd, message, wParam, lParam); }

  0012d	51		 push	 ecx
  0012e	68 f3 03 00 00	 push	 1011			; 000003f3H
  00133	ff 35 00 00 00
	00		 push	 DWORD PTR ?RMS_ANALYSIS_FUNC@@3IB
  00139	ff 76 20	 push	 DWORD PTR [esi+32]
  0013c	ff 15 00 00 00
	00		 call	 DWORD PTR __imp__SendMessageA@16
; File D:\git\src\IBK\IBK_DRFN\ProjSrc\SrcDrfn\Chart\MULTICHART\ExtInputBarDlg.cpp

; 3156 : }

  00142	5f		 pop	 edi
  00143	5e		 pop	 esi
  00144	5b		 pop	 ebx
  00145	8b e5		 mov	 esp, ebp
  00147	5d		 pop	 ebp
  00148	c3		 ret	 0
?OnBtScrollNext@CExtInputBarDlg@@IAEXXZ ENDP		; CExtInputBarDlg::OnBtScrollNext
_TEXT	ENDS
; Function compile flags: /Ogtp
; File D:\git\src\IBK\IBK_DRFN\ProjSrc\SrcDrfn\Chart\MULTICHART\ExtInputBarDlg.cpp
; File C:\Program Files (x86)\Microsoft Visual Studio\2019\Community\VC\Tools\MSVC\14.29.30133\atlmfc\include\afxwin2.inl
; File D:\git\src\IBK\IBK_DRFN\ProjSrc\SrcDrfn\Chart\MULTICHART\ExtInputBarDlg.cpp
; File C:\Program Files (x86)\Microsoft Visual Studio\2019\Community\VC\Tools\MSVC\14.29.30133\atlmfc\include\afxwin2.inl
; File D:\git\src\IBK\IBK_DRFN\ProjSrc\SrcDrfn\Chart\MULTICHART\ExtInputBarDlg.cpp
; File C:\Program Files (x86)\Microsoft Visual Studio\2019\Community\VC\Tools\MSVC\14.29.30133\atlmfc\include\afxwin2.inl
; File D:\git\src\IBK\IBK_DRFN\ProjSrc\SrcDrfn\Chart\MULTICHART\ExtInputBarDlg.cpp
; File C:\Program Files (x86)\Microsoft Visual Studio\2019\Community\VC\Tools\MSVC\14.29.30133\atlmfc\include\afxwin2.inl
; File D:\git\src\IBK\IBK_DRFN\ProjSrc\SrcDrfn\Chart\MULTICHART\ExtInputBarDlg.cpp
; File C:\Program Files (x86)\Microsoft Visual Studio\2019\Community\VC\Tools\MSVC\14.29.30133\atlmfc\include\afxwin2.inl
; File D:\git\src\IBK\IBK_DRFN\ProjSrc\SrcDrfn\Chart\MULTICHART\ExtInputBarDlg.cpp
; File C:\Program Files (x86)\Microsoft Visual Studio\2019\Community\VC\Tools\MSVC\14.29.30133\atlmfc\include\afxwin2.inl
; File D:\git\src\IBK\IBK_DRFN\ProjSrc\SrcDrfn\Chart\MULTICHART\ExtInputBarDlg.cpp
; File C:\Program Files (x86)\Microsoft Visual Studio\2019\Community\VC\Tools\MSVC\14.29.30133\atlmfc\include\afxwin2.inl
; File D:\git\src\IBK\IBK_DRFN\ProjSrc\SrcDrfn\Chart\MULTICHART\ExtInputBarDlg.cpp
; File C:\Program Files (x86)\Microsoft Visual Studio\2019\Community\VC\Tools\MSVC\14.29.30133\atlmfc\include\afxwin2.inl
; File D:\git\src\IBK\IBK_DRFN\ProjSrc\SrcDrfn\Chart\MULTICHART\ExtInputBarDlg.cpp
;	COMDAT ?OnBtScrollPre@CExtInputBarDlg@@IAEXXZ
_TEXT	SEGMENT
?OnBtScrollPre@CExtInputBarDlg@@IAEXXZ PROC		; CExtInputBarDlg::OnBtScrollPre, COMDAT
; _this$ = ecx

; 3088 : {

  00000	55		 push	 ebp
  00001	8b ec		 mov	 ebp, esp
  00003	51		 push	 ecx
  00004	53		 push	 ebx
  00005	56		 push	 esi
  00006	57		 push	 edi
; File C:\Program Files (x86)\Microsoft Visual Studio\2019\Community\VC\Tools\MSVC\14.29.30133\atlmfc\include\afxwin2.inl

; 32   : 	{ ASSERT(::IsWindow(m_hWnd)); return ::SendMessage(m_hWnd, message, wParam, lParam); }

  00007	8b 3d 00 00 00
	00		 mov	 edi, DWORD PTR __imp__SendMessageA@16
; File D:\git\src\IBK\IBK_DRFN\ProjSrc\SrcDrfn\Chart\MULTICHART\ExtInputBarDlg.cpp

; 3088 : {

  0000d	8b d9		 mov	 ebx, ecx
; File C:\Program Files (x86)\Microsoft Visual Studio\2019\Community\VC\Tools\MSVC\14.29.30133\atlmfc\include\afxwin2.inl

; 32   : 	{ ASSERT(::IsWindow(m_hWnd)); return ::SendMessage(m_hWnd, message, wParam, lParam); }

  0000f	6a 01		 push	 1
  00011	6a 01		 push	 1
  00013	ff 35 00 00 00
	00		 push	 DWORD PTR ?RMSG_GETINFO@@3IB
; File D:\git\src\IBK\IBK_DRFN\ProjSrc\SrcDrfn\Chart\MULTICHART\ExtInputBarDlg.cpp

; 3090 : 	if(m_pChartMng->SendMessage(RMSG_GETINFO, 1, 1) != 0)

  00019	8b 83 00 33 00
	00		 mov	 eax, DWORD PTR [ebx+13056]
; File C:\Program Files (x86)\Microsoft Visual Studio\2019\Community\VC\Tools\MSVC\14.29.30133\atlmfc\include\afxwin2.inl

; 32   : 	{ ASSERT(::IsWindow(m_hWnd)); return ::SendMessage(m_hWnd, message, wParam, lParam); }

  0001f	ff 70 20	 push	 DWORD PTR [eax+32]
  00022	ff d7		 call	 edi
; File D:\git\src\IBK\IBK_DRFN\ProjSrc\SrcDrfn\Chart\MULTICHART\ExtInputBarDlg.cpp

; 3090 : 	if(m_pChartMng->SendMessage(RMSG_GETINFO, 1, 1) != 0)

  00024	6a ff		 push	 -1
  00026	6a ff		 push	 -1
  00028	6a 00		 push	 0
  0002a	51		 push	 ecx
  0002b	8b cc		 mov	 ecx, esp
  0002d	68 00 00 00 00	 push	 OFFSET ??_C@_00CNPNBAHC@@
  00032	85 c0		 test	 eax, eax
  00034	74 42		 je	 SHORT $LN2@OnBtScroll

; 3091 : 	{
; 3092 : 		m_btScrollPre.FP_vSetImage(m_pIL_W20H20, 104, 106);

  00036	ff 15 00 00 00
	00		 call	 DWORD PTR __imp_??0?$CStringT@DV?$StrTraitMFC_DLL@DV?$ChTraitsCRT@D@ATL@@@@@ATL@@QAE@PBD@Z
  0003c	6a 00		 push	 0
  0003e	6a 6a		 push	 106			; 0000006aH
  00040	6a 68		 push	 104			; 00000068H
  00042	ff b3 b8 00 00
	00		 push	 DWORD PTR [ebx+184]
  00048	8d 8b 68 01 00
	00		 lea	 ecx, DWORD PTR [ebx+360]
  0004e	e8 00 00 00 00	 call	 ?FP_vSetImage@CILButton@@QAEXPAVCImageList@@HHHV?$CStringT@DV?$StrTraitMFC_DLL@DV?$ChTraitsCRT@D@ATL@@@@@ATL@@HHH@Z ; CILButton::FP_vSetImage
; File C:\Program Files (x86)\Microsoft Visual Studio\2019\Community\VC\Tools\MSVC\14.29.30133\atlmfc\include\afxwin2.inl

; 114  : 	{ ASSERT(::IsWindow(m_hWnd)); ::InvalidateRect(m_hWnd, NULL, bErase); }

  00053	6a 01		 push	 1
  00055	6a 00		 push	 0
  00057	ff b3 88 01 00
	00		 push	 DWORD PTR [ebx+392]
  0005d	ff 15 00 00 00
	00		 call	 DWORD PTR __imp__InvalidateRect@12
; File D:\git\src\IBK\IBK_DRFN\ProjSrc\SrcDrfn\Chart\MULTICHART\ExtInputBarDlg.cpp

; 3094 : 		AfxMessageBox("  .");

  00063	6a 00		 push	 0
  00065	6a 00		 push	 0
  00067	68 00 00 00 00	 push	 OFFSET ??_C@_0CC@MAPLNIOL@?A?$LO?$LI?q?$LF?$LJ?$LH?A?$LK?$LI?$LB?b?5?$LB?b?$LE?I?$MA?L?5?$LF?$LP?$MA?$NL?A?$NP?$MA?T?$LE?O?$LE@
  0006c	e8 00 00 00 00	 call	 ?AfxMessageBox@@YGHPBDII@Z ; AfxMessageBox

; 3115 : }

  00071	5f		 pop	 edi
  00072	5e		 pop	 esi
  00073	5b		 pop	 ebx
  00074	8b e5		 mov	 esp, ebp
  00076	5d		 pop	 ebp
  00077	c3		 ret	 0
$LN2@OnBtScroll:

; 3095 : 		return;
; 3096 : 	}
; 3097 : 
; 3098 : 	m_nScrollState = SCROLL_LEFT;

  00078	c7 83 d0 00 00
	00 01 00 00 00	 mov	 DWORD PTR [ebx+208], 1

; 3099 : 
; 3100 : 	// TODO: Add your control notification handler code here
; 3101 : 	m_btScrollPre.FP_vSetImage(m_pIL_W20H20, 106, 104);

  00082	ff 15 00 00 00
	00		 call	 DWORD PTR __imp_??0?$CStringT@DV?$StrTraitMFC_DLL@DV?$ChTraitsCRT@D@ATL@@@@@ATL@@QAE@PBD@Z
  00088	6a 00		 push	 0
  0008a	6a 68		 push	 104			; 00000068H
  0008c	6a 6a		 push	 106			; 0000006aH
  0008e	ff b3 b8 00 00
	00		 push	 DWORD PTR [ebx+184]
  00094	8d 8b 68 01 00
	00		 lea	 ecx, DWORD PTR [ebx+360]
  0009a	e8 00 00 00 00	 call	 ?FP_vSetImage@CILButton@@QAEXPAVCImageList@@HHHV?$CStringT@DV?$StrTraitMFC_DLL@DV?$ChTraitsCRT@D@ATL@@@@@ATL@@HHH@Z ; CILButton::FP_vSetImage

; 3102 : 	m_btScrollNext.FP_vSetImage(m_pIL_W20H20, 68, 70);

  0009f	6a ff		 push	 -1
  000a1	6a ff		 push	 -1
  000a3	6a 00		 push	 0
  000a5	51		 push	 ecx
  000a6	8b cc		 mov	 ecx, esp
  000a8	68 00 00 00 00	 push	 OFFSET ??_C@_00CNPNBAHC@@
  000ad	ff 15 00 00 00
	00		 call	 DWORD PTR __imp_??0?$CStringT@DV?$StrTraitMFC_DLL@DV?$ChTraitsCRT@D@ATL@@@@@ATL@@QAE@PBD@Z
  000b3	6a 00		 push	 0
  000b5	6a 46		 push	 70			; 00000046H
  000b7	6a 44		 push	 68			; 00000044H
  000b9	ff b3 b8 00 00
	00		 push	 DWORD PTR [ebx+184]
  000bf	8d 8b c8 02 00
	00		 lea	 ecx, DWORD PTR [ebx+712]
  000c5	e8 00 00 00 00	 call	 ?FP_vSetImage@CILButton@@QAEXPAVCImageList@@HHHV?$CStringT@DV?$StrTraitMFC_DLL@DV?$ChTraitsCRT@D@ATL@@@@@ATL@@HHH@Z ; CILButton::FP_vSetImage
; File C:\Program Files (x86)\Microsoft Visual Studio\2019\Community\VC\Tools\MSVC\14.29.30133\atlmfc\include\afxwin2.inl

; 114  : 	{ ASSERT(::IsWindow(m_hWnd)); ::InvalidateRect(m_hWnd, NULL, bErase); }

  000ca	8b 35 00 00 00
	00		 mov	 esi, DWORD PTR __imp__InvalidateRect@12
  000d0	6a 01		 push	 1
  000d2	6a 00		 push	 0
  000d4	ff b3 e8 02 00
	00		 push	 DWORD PTR [ebx+744]
  000da	ff d6		 call	 esi
  000dc	6a 01		 push	 1
  000de	6a 00		 push	 0
  000e0	ff b3 88 01 00
	00		 push	 DWORD PTR [ebx+392]
  000e6	ff d6		 call	 esi

; 765  : 	{ ASSERT(::IsWindow(m_hWnd)); return (int)::SendMessage(m_hWnd, CB_GETCURSEL, 0, 0); }

  000e8	6a 00		 push	 0
  000ea	6a 00		 push	 0
  000ec	68 47 01 00 00	 push	 327			; 00000147H
  000f1	ff b3 f0 30 00
	00		 push	 DWORD PTR [ebx+12528]
  000f7	ff d7		 call	 edi

; 213  : 	{ ASSERT(::IsWindow(m_hWnd)); return CWnd::FromHandle(::GetParent(m_hWnd)); }

  000f9	ff 73 20	 push	 DWORD PTR [ebx+32]
; File D:\git\src\IBK\IBK_DRFN\ProjSrc\SrcDrfn\Chart\MULTICHART\ExtInputBarDlg.cpp

; 3107 : 	int nIdx = m_cmbScrollSpeed.GetCurSel();

  000fc	8b f8		 mov	 edi, eax

; 3108 : 	if(nIdx == -1)

  000fe	33 c0		 xor	 eax, eax
  00100	83 ff ff	 cmp	 edi, -1
  00103	0f 44 f8	 cmove	 edi, eax
; File C:\Program Files (x86)\Microsoft Visual Studio\2019\Community\VC\Tools\MSVC\14.29.30133\atlmfc\include\afxwin2.inl

; 213  : 	{ ASSERT(::IsWindow(m_hWnd)); return CWnd::FromHandle(::GetParent(m_hWnd)); }

  00106	ff 15 00 00 00
	00		 call	 DWORD PTR __imp__GetParent@4
  0010c	50		 push	 eax
  0010d	e8 00 00 00 00	 call	 ?FromHandle@CWnd@@SGPAV1@PAUHWND__@@@Z ; CWnd::FromHandle
; File D:\git\src\IBK\IBK_DRFN\ProjSrc\SrcDrfn\Chart\MULTICHART\ExtInputBarDlg.cpp

; 3112 : 	int nSpeed = (int)pow(2.0, (double)nIdx);

  00112	f2 0f 10 05 00
	00 00 00	 movsd	 xmm0, QWORD PTR __real@4000000000000000
; File C:\Program Files (x86)\Microsoft Visual Studio\2019\Community\VC\Tools\MSVC\14.29.30133\atlmfc\include\afxwin2.inl

; 213  : 	{ ASSERT(::IsWindow(m_hWnd)); return CWnd::FromHandle(::GetParent(m_hWnd)); }

  0011a	8b f0		 mov	 esi, eax
  0011c	66 0f 6e cf	 movd	 xmm1, edi
; File D:\git\src\IBK\IBK_DRFN\ProjSrc\SrcDrfn\Chart\MULTICHART\ExtInputBarDlg.cpp

; 3112 : 	int nSpeed = (int)pow(2.0, (double)nIdx);

  00120	f3 0f e6 c9	 cvtdq2pd xmm1, xmm1
  00124	e8 00 00 00 00	 call	 __libm_sse2_pow_precise
  00129	f2 0f 2c c8	 cvttsd2si ecx, xmm0
; File C:\Program Files (x86)\Microsoft Visual Studio\2019\Community\VC\Tools\MSVC\14.29.30133\atlmfc\include\afxwin2.inl

; 32   : 	{ ASSERT(::IsWindow(m_hWnd)); return ::SendMessage(m_hWnd, message, wParam, lParam); }

  0012d	51		 push	 ecx
  0012e	68 f2 03 00 00	 push	 1010			; 000003f2H
  00133	ff 35 00 00 00
	00		 push	 DWORD PTR ?RMS_ANALYSIS_FUNC@@3IB
  00139	ff 76 20	 push	 DWORD PTR [esi+32]
  0013c	ff 15 00 00 00
	00		 call	 DWORD PTR __imp__SendMessageA@16
; File D:\git\src\IBK\IBK_DRFN\ProjSrc\SrcDrfn\Chart\MULTICHART\ExtInputBarDlg.cpp

; 3115 : }

  00142	5f		 pop	 edi
  00143	5e		 pop	 esi
  00144	5b		 pop	 ebx
  00145	8b e5		 mov	 esp, ebp
  00147	5d		 pop	 ebp
  00148	c3		 ret	 0
?OnBtScrollPre@CExtInputBarDlg@@IAEXXZ ENDP		; CExtInputBarDlg::OnBtScrollPre
_TEXT	ENDS
; Function compile flags: /Ogtp
; File D:\git\src\IBK\IBK_DRFN\ProjSrc\SrcDrfn\Chart\MULTICHART\ExtInputBarDlg.cpp
; File C:\Program Files (x86)\Microsoft Visual Studio\2019\Community\VC\Tools\MSVC\14.29.30133\atlmfc\include\afxwin2.inl
; File D:\git\src\IBK\IBK_DRFN\ProjSrc\SrcDrfn\Chart\MULTICHART\ExtInputBarDlg.cpp
; File C:\Program Files (x86)\Microsoft Visual Studio\2019\Community\VC\Tools\MSVC\14.29.30133\atlmfc\include\afxwin2.inl
; File D:\git\src\IBK\IBK_DRFN\ProjSrc\SrcDrfn\Chart\MULTICHART\ExtInputBarDlg.cpp
; File C:\Program Files (x86)\Microsoft Visual Studio\2019\Community\VC\Tools\MSVC\14.29.30133\atlmfc\include\afxwin2.inl
; File D:\git\src\IBK\IBK_DRFN\ProjSrc\SrcDrfn\Chart\MULTICHART\ExtInputBarDlg.cpp
; File C:\Program Files (x86)\Microsoft Visual Studio\2019\Community\VC\Tools\MSVC\14.29.30133\atlmfc\include\afxwin2.inl
; File D:\git\src\IBK\IBK_DRFN\ProjSrc\SrcDrfn\Chart\MULTICHART\ExtInputBarDlg.cpp
; File C:\Program Files (x86)\Microsoft Visual Studio\2019\Community\VC\Tools\MSVC\14.29.30133\atlmfc\include\afxwin2.inl
; File D:\git\src\IBK\IBK_DRFN\ProjSrc\SrcDrfn\Chart\MULTICHART\ExtInputBarDlg.cpp
; File C:\Program Files (x86)\Microsoft Visual Studio\2019\Community\VC\Tools\MSVC\14.29.30133\atlmfc\include\afxwin1.inl
; File D:\git\src\IBK\IBK_DRFN\ProjSrc\SrcDrfn\Chart\MULTICHART\ExtInputBarDlg.cpp
; File C:\Program Files (x86)\Microsoft Visual Studio\2019\Community\VC\Tools\MSVC\14.29.30133\atlmfc\include\afxwin1.inl
; File C:\Program Files (x86)\Microsoft Visual Studio\2019\Community\VC\Tools\MSVC\14.29.30133\atlmfc\include\afxwin2.inl
; File D:\git\src\IBK\IBK_DRFN\ProjSrc\SrcDrfn\Chart\MULTICHART\ExtInputBarDlg.cpp
; File C:\Program Files (x86)\Microsoft Visual Studio\2019\Community\VC\Tools\MSVC\14.29.30133\atlmfc\include\afxwin2.inl
; File D:\git\src\IBK\IBK_DRFN\ProjSrc\SrcDrfn\Chart\MULTICHART\ExtInputBarDlg.cpp
; File C:\Program Files (x86)\Microsoft Visual Studio\2019\Community\VC\Tools\MSVC\14.29.30133\atlmfc\include\afxwin2.inl
; File D:\git\src\IBK\IBK_DRFN\ProjSrc\SrcDrfn\Chart\MULTICHART\ExtInputBarDlg.cpp
; File C:\Program Files (x86)\Microsoft Visual Studio\2019\Community\VC\Tools\MSVC\14.29.30133\atlmfc\include\afxwin2.inl
; File D:\git\src\IBK\IBK_DRFN\ProjSrc\SrcDrfn\Chart\MULTICHART\ExtInputBarDlg.cpp
; File C:\Program Files (x86)\Microsoft Visual Studio\2019\Community\VC\Tools\MSVC\14.29.30133\atlmfc\include\afxwin2.inl
; File D:\git\src\IBK\IBK_DRFN\ProjSrc\SrcDrfn\Chart\MULTICHART\ExtInputBarDlg.cpp
; File C:\Program Files (x86)\Microsoft Visual Studio\2019\Community\VC\Tools\MSVC\14.29.30133\atlmfc\include\afxwin2.inl
; File D:\git\src\IBK\IBK_DRFN\ProjSrc\SrcDrfn\Chart\MULTICHART\ExtInputBarDlg.cpp
; File C:\Program Files (x86)\Microsoft Visual Studio\2019\Community\VC\Tools\MSVC\14.29.30133\atlmfc\include\afxwin2.inl
; File D:\git\src\IBK\IBK_DRFN\ProjSrc\SrcDrfn\Chart\MULTICHART\ExtInputBarDlg.cpp
; File C:\Program Files (x86)\Microsoft Visual Studio\2019\Community\VC\Tools\MSVC\14.29.30133\atlmfc\include\afxwin2.inl
; File D:\git\src\IBK\IBK_DRFN\ProjSrc\SrcDrfn\Chart\MULTICHART\ExtInputBarDlg.cpp
; File C:\Program Files (x86)\Microsoft Visual Studio\2019\Community\VC\Tools\MSVC\14.29.30133\atlmfc\include\atlsimpstr.h
; File D:\git\src\IBK\IBK_DRFN\ProjSrc\SrcDrfn\Chart\MULTICHART\ExtInputBarDlg.cpp
; File C:\Program Files (x86)\Microsoft Visual Studio\2019\Community\VC\Tools\MSVC\14.29.30133\atlmfc\include\afxwin2.inl
; File D:\git\src\IBK\IBK_DRFN\ProjSrc\SrcDrfn\Chart\MULTICHART\ExtInputBarDlg.cpp
; File C:\Program Files (x86)\Microsoft Visual Studio\2019\Community\VC\Tools\MSVC\14.29.30133\atlmfc\include\afxwin2.inl
; File D:\git\src\IBK\IBK_DRFN\ProjSrc\SrcDrfn\Chart\MULTICHART\ExtInputBarDlg.cpp
; File C:\Program Files (x86)\Microsoft Visual Studio\2019\Community\VC\Tools\MSVC\14.29.30133\atlmfc\include\cstringt.h
; File D:\git\src\IBK\IBK_DRFN\ProjSrc\SrcDrfn\Chart\MULTICHART\ExtInputBarDlg.cpp
; File C:\Program Files (x86)\Microsoft Visual Studio\2019\Community\VC\Tools\MSVC\14.29.30133\atlmfc\include\cstringt.h
; File D:\git\src\IBK\IBK_DRFN\ProjSrc\SrcDrfn\Chart\MULTICHART\ExtInputBarDlg.cpp
; File C:\Program Files (x86)\Microsoft Visual Studio\2019\Community\VC\Tools\MSVC\14.29.30133\atlmfc\include\cstringt.h
; File D:\git\src\IBK\IBK_DRFN\ProjSrc\SrcDrfn\Chart\MULTICHART\ExtInputBarDlg.cpp
; File C:\Program Files (x86)\Microsoft Visual Studio\2019\Community\VC\Tools\MSVC\14.29.30133\atlmfc\include\afxwin2.inl
; File D:\git\src\IBK\IBK_DRFN\ProjSrc\SrcDrfn\Chart\MULTICHART\ExtInputBarDlg.cpp
; File C:\Program Files (x86)\Microsoft Visual Studio\2019\Community\VC\Tools\MSVC\14.29.30133\atlmfc\include\afxwin2.inl
; File D:\git\src\IBK\IBK_DRFN\ProjSrc\SrcDrfn\Chart\MULTICHART\ExtInputBarDlg.cpp
; File C:\Program Files (x86)\Microsoft Visual Studio\2019\Community\VC\Tools\MSVC\14.29.30133\atlmfc\include\atltypes.h
; File D:\git\src\IBK\IBK_DRFN\ProjSrc\SrcDrfn\Chart\MULTICHART\ExtInputBarDlg.cpp
; File C:\Program Files (x86)\Microsoft Visual Studio\2019\Community\VC\Tools\MSVC\14.29.30133\atlmfc\include\afxwin2.inl
; File D:\git\src\IBK\IBK_DRFN\ProjSrc\SrcDrfn\Chart\MULTICHART\ExtInputBarDlg.cpp
; File C:\Program Files (x86)\Microsoft Visual Studio\2019\Community\VC\Tools\MSVC\14.29.30133\atlmfc\include\atltypes.h
; File D:\git\src\IBK\IBK_DRFN\ProjSrc\SrcDrfn\Chart\MULTICHART\ExtInputBarDlg.cpp
; File C:\Program Files (x86)\Microsoft Visual Studio\2019\Community\VC\Tools\MSVC\14.29.30133\atlmfc\include\atltypes.h
; File D:\git\src\IBK\IBK_DRFN\ProjSrc\SrcDrfn\Chart\MULTICHART\ExtInputBarDlg.cpp
; File C:\Program Files (x86)\Microsoft Visual Studio\2019\Community\VC\Tools\MSVC\14.29.30133\atlmfc\include\afxwin2.inl
; File D:\git\src\IBK\IBK_DRFN\ProjSrc\SrcDrfn\Chart\MULTICHART\ExtInputBarDlg.cpp
; File C:\Program Files (x86)\Microsoft Visual Studio\2019\Community\VC\Tools\MSVC\14.29.30133\atlmfc\include\afxwin2.inl
; File D:\git\src\IBK\IBK_DRFN\ProjSrc\SrcDrfn\Chart\MULTICHART\ExtInputBarDlg.cpp
; File C:\Program Files (x86)\Microsoft Visual Studio\2019\Community\VC\Tools\MSVC\14.29.30133\atlmfc\include\afxwin2.inl
; File D:\git\src\IBK\IBK_DRFN\ProjSrc\SrcDrfn\Chart\MULTICHART\ExtInputBarDlg.cpp
;	COMDAT ?OnInitDialog@CExtInputBarDlg@@MAEHXZ
_TEXT	SEGMENT
_strImageSelect$ = -136					; size = 4
_strImageUp$ = -132					; size = 4
_strImageDown$ = -128					; size = 4
_strImageOver$ = -124					; size = 4
_strImageDis$ = -120					; size = 4
tv2423 = -116						; size = 4
tv2424 = -112						; size = 4
_strCfgFile$ = -108					; size = 4
_strCfgFile$2 = -104					; size = 4
tv2427 = -100						; size = 4
$T3 = -100						; size = 4
_rectComp$ = -96					; size = 16
_szTemp$ = -80						; size = 64
__$ArrayPad$ = -16					; size = 4
__$EHRec$ = -12						; size = 12
?OnInitDialog@CExtInputBarDlg@@MAEHXZ PROC		; CExtInputBarDlg::OnInitDialog, COMDAT
; _this$ = ecx

; 217  : {

  00000	55		 push	 ebp
  00001	8b ec		 mov	 ebp, esp
  00003	6a ff		 push	 -1
  00005	68 00 00 00 00	 push	 __ehhandler$?OnInitDialog@CExtInputBarDlg@@MAEHXZ
  0000a	64 a1 00 00 00
	00		 mov	 eax, DWORD PTR fs:0
  00010	50		 push	 eax
  00011	83 ec 7c	 sub	 esp, 124		; 0000007cH
  00014	a1 00 00 00 00	 mov	 eax, DWORD PTR ___security_cookie
  00019	33 c5		 xor	 eax, ebp
  0001b	89 45 f0	 mov	 DWORD PTR __$ArrayPad$[ebp], eax
  0001e	53		 push	 ebx
  0001f	56		 push	 esi
  00020	57		 push	 edi
  00021	50		 push	 eax
  00022	8d 45 f4	 lea	 eax, DWORD PTR __$EHRec$[ebp]
  00025	64 a3 00 00 00
	00		 mov	 DWORD PTR fs:0, eax
  0002b	8b d9		 mov	 ebx, ecx

; 218  : 	CRscDlg::OnInitDialog();

  0002d	e8 00 00 00 00	 call	 ?OnInitDialog@CDialog@@UAEHXZ ; CDialog::OnInitDialog
; File C:\Program Files (x86)\Microsoft Visual Studio\2019\Community\VC\Tools\MSVC\14.29.30133\atlmfc\include\afxwin2.inl

; 213  : 	{ ASSERT(::IsWindow(m_hWnd)); return CWnd::FromHandle(::GetParent(m_hWnd)); }

  00032	ff 73 20	 push	 DWORD PTR [ebx+32]
  00035	8b 35 00 00 00
	00		 mov	 esi, DWORD PTR __imp__GetParent@4
  0003b	89 75 90	 mov	 DWORD PTR tv2424[ebp], esi
  0003e	ff d6		 call	 esi
  00040	50		 push	 eax
  00041	e8 00 00 00 00	 call	 ?FromHandle@CWnd@@SGPAV1@PAUHWND__@@@Z ; CWnd::FromHandle

; 32   : 	{ ASSERT(::IsWindow(m_hWnd)); return ::SendMessage(m_hWnd, message, wParam, lParam); }

  00046	8b 3d 00 00 00
	00		 mov	 edi, DWORD PTR __imp__SendMessageA@16
  0004c	6a 00		 push	 0
  0004e	6a 00		 push	 0
  00050	ff 35 00 00 00
	00		 push	 DWORD PTR ?RMSG_GET_STDDLG_PTR@@3IB
  00056	89 7d 8c	 mov	 DWORD PTR tv2423[ebp], edi
  00059	ff 70 20	 push	 DWORD PTR [eax+32]
  0005c	ff d7		 call	 edi

; 213  : 	{ ASSERT(::IsWindow(m_hWnd)); return CWnd::FromHandle(::GetParent(m_hWnd)); }

  0005e	ff 73 20	 push	 DWORD PTR [ebx+32]
; File D:\git\src\IBK\IBK_DRFN\ProjSrc\SrcDrfn\Chart\MULTICHART\ExtInputBarDlg.cpp

; 220  : 	m_pStdDialog = (CStdDialog*)GetParent()->SendMessage(RMSG_GET_STDDLG_PTR);

  00061	89 83 a8 00 00
	00		 mov	 DWORD PTR [ebx+168], eax
; File C:\Program Files (x86)\Microsoft Visual Studio\2019\Community\VC\Tools\MSVC\14.29.30133\atlmfc\include\afxwin2.inl

; 213  : 	{ ASSERT(::IsWindow(m_hWnd)); return CWnd::FromHandle(::GetParent(m_hWnd)); }

  00067	ff d6		 call	 esi
  00069	50		 push	 eax
  0006a	e8 00 00 00 00	 call	 ?FromHandle@CWnd@@SGPAV1@PAUHWND__@@@Z ; CWnd::FromHandle

; 32   : 	{ ASSERT(::IsWindow(m_hWnd)); return ::SendMessage(m_hWnd, message, wParam, lParam); }

  0006f	6a 00		 push	 0
  00071	6a 00		 push	 0
  00073	ff 35 00 00 00
	00		 push	 DWORD PTR ?RMSG_GET_SKINCOLOR@@3IB
  00079	ff 70 20	 push	 DWORD PTR [eax+32]
  0007c	ff d7		 call	 edi

; 213  : 	{ ASSERT(::IsWindow(m_hWnd)); return CWnd::FromHandle(::GetParent(m_hWnd)); }

  0007e	ff 73 20	 push	 DWORD PTR [ebx+32]
; File D:\git\src\IBK\IBK_DRFN\ProjSrc\SrcDrfn\Chart\MULTICHART\ExtInputBarDlg.cpp

; 223  : 	m_crBk = (COLORREF)GetParent()->SendMessage(RMSG_GET_SKINCOLOR, (WPARAM)0);

  00081	89 83 f0 32 00
	00		 mov	 DWORD PTR [ebx+13040], eax
; File C:\Program Files (x86)\Microsoft Visual Studio\2019\Community\VC\Tools\MSVC\14.29.30133\atlmfc\include\afxwin2.inl

; 213  : 	{ ASSERT(::IsWindow(m_hWnd)); return CWnd::FromHandle(::GetParent(m_hWnd)); }

  00087	ff d6		 call	 esi
  00089	50		 push	 eax
  0008a	e8 00 00 00 00	 call	 ?FromHandle@CWnd@@SGPAV1@PAUHWND__@@@Z ; CWnd::FromHandle
  0008f	ff 73 20	 push	 DWORD PTR [ebx+32]
; File D:\git\src\IBK\IBK_DRFN\ProjSrc\SrcDrfn\Chart\MULTICHART\ExtInputBarDlg.cpp

; 228  : 	m_pIL_W46H20 = &(((CStdDialog*)GetParent())->m_ImgList_W46H20);

  00092	c7 83 b4 00 00
	00 00 00 00 00	 mov	 DWORD PTR [ebx+180], OFFSET ?m_ImgList_W46H20@CStdDialog@@2VCImageList@@A ; CStdDialog::m_ImgList_W46H20
; File C:\Program Files (x86)\Microsoft Visual Studio\2019\Community\VC\Tools\MSVC\14.29.30133\atlmfc\include\afxwin2.inl

; 213  : 	{ ASSERT(::IsWindow(m_hWnd)); return CWnd::FromHandle(::GetParent(m_hWnd)); }

  0009c	ff d6		 call	 esi
  0009e	50		 push	 eax
  0009f	e8 00 00 00 00	 call	 ?FromHandle@CWnd@@SGPAV1@PAUHWND__@@@Z ; CWnd::FromHandle
  000a4	ff 73 20	 push	 DWORD PTR [ebx+32]
; File D:\git\src\IBK\IBK_DRFN\ProjSrc\SrcDrfn\Chart\MULTICHART\ExtInputBarDlg.cpp

; 233  : 	m_pIL_W58H20 = &(((CStdDialog*)GetParent())->m_ImgList_W58H20);

  000a7	c7 83 b0 00 00
	00 00 00 00 00	 mov	 DWORD PTR [ebx+176], OFFSET ?m_ImgList_W58H20@CStdDialog@@2VCImageList@@A ; CStdDialog::m_ImgList_W58H20
; File C:\Program Files (x86)\Microsoft Visual Studio\2019\Community\VC\Tools\MSVC\14.29.30133\atlmfc\include\afxwin2.inl

; 213  : 	{ ASSERT(::IsWindow(m_hWnd)); return CWnd::FromHandle(::GetParent(m_hWnd)); }

  000b1	ff d6		 call	 esi
  000b3	50		 push	 eax
  000b4	e8 00 00 00 00	 call	 ?FromHandle@CWnd@@SGPAV1@PAUHWND__@@@Z ; CWnd::FromHandle
; File D:\git\src\IBK\IBK_DRFN\ProjSrc\SrcDrfn\Chart\MULTICHART\ExtInputBarDlg.cpp

; 241  : 	m_btEtcMenu.FP_vSetImage(m_pIL_W58H20, 0, 2, TRUE, "", FALSE);

  000b9	6a ff		 push	 -1
  000bb	6a ff		 push	 -1
  000bd	6a 00		 push	 0
  000bf	51		 push	 ecx
  000c0	8b cc		 mov	 ecx, esp
  000c2	68 00 00 00 00	 push	 OFFSET ??_C@_08OOOIJKML@?$LK?$LI?A?$LG?$LB?b?$LE?I@
  000c7	ff 15 00 00 00
	00		 call	 DWORD PTR __imp_??0?$CStringT@DV?$StrTraitMFC_DLL@DV?$ChTraitsCRT@D@ATL@@@@@ATL@@QAE@PBD@Z
  000cd	6a 01		 push	 1
  000cf	6a 02		 push	 2
  000d1	6a 00		 push	 0
  000d3	ff b3 b0 00 00
	00		 push	 DWORD PTR [ebx+176]
  000d9	8d 8b 48 08 00
	00		 lea	 ecx, DWORD PTR [ebx+2120]
  000df	e8 00 00 00 00	 call	 ?FP_vSetImage@CILButton@@QAEXPAVCImageList@@HHHV?$CStringT@DV?$StrTraitMFC_DLL@DV?$ChTraitsCRT@D@ATL@@@@@ATL@@HHH@Z ; CILButton::FP_vSetImage

; 242  : 	m_btEtcMenu.FP_vSetToolTipText("");

  000e4	51		 push	 ecx
  000e5	8b cc		 mov	 ecx, esp
  000e7	68 00 00 00 00	 push	 OFFSET ??_C@_08OOOIJKML@?$LK?$LI?A?$LG?$LB?b?$LE?I@
  000ec	ff 15 00 00 00
	00		 call	 DWORD PTR __imp_??0?$CStringT@DV?$StrTraitMFC_DLL@DV?$ChTraitsCRT@D@ATL@@@@@ATL@@QAE@PBD@Z
  000f2	8d 8b 48 08 00
	00		 lea	 ecx, DWORD PTR [ebx+2120]
  000f8	e8 00 00 00 00	 call	 ?FP_vSetToolTipText@CILButton@@QAEXV?$CStringT@DV?$StrTraitMFC_DLL@DV?$ChTraitsCRT@D@ATL@@@@@ATL@@@Z ; CILButton::FP_vSetToolTipText

; 243  : 
; 244  : 	m_btChartConfig.FP_vSetImage(m_pIL_W46H20, 32, 34, TRUE, "", FALSE);

  000fd	6a ff		 push	 -1
  000ff	6a ff		 push	 -1
  00101	6a 00		 push	 0
  00103	51		 push	 ecx
  00104	8b cc		 mov	 ecx, esp
  00106	68 00 00 00 00	 push	 OFFSET ??_C@_04LJCLIJBJ@?$LM?$LD?A?$KE@
  0010b	ff 15 00 00 00
	00		 call	 DWORD PTR __imp_??0?$CStringT@DV?$StrTraitMFC_DLL@DV?$ChTraitsCRT@D@ATL@@@@@ATL@@QAE@PBD@Z
  00111	6a 01		 push	 1
  00113	6a 22		 push	 34			; 00000022H
  00115	6a 20		 push	 32			; 00000020H
  00117	ff b3 b4 00 00
	00		 push	 DWORD PTR [ebx+180]
  0011d	8d 8b 08 0b 00
	00		 lea	 ecx, DWORD PTR [ebx+2824]
  00123	e8 00 00 00 00	 call	 ?FP_vSetImage@CILButton@@QAEXPAVCImageList@@HHHV?$CStringT@DV?$StrTraitMFC_DLL@DV?$ChTraitsCRT@D@ATL@@@@@ATL@@HHH@Z ; CILButton::FP_vSetImage

; 245  : 	m_btChartConfig.FP_vSetToolTipText("");

  00128	51		 push	 ecx
  00129	8b cc		 mov	 ecx, esp
  0012b	68 00 00 00 00	 push	 OFFSET ??_C@_0N@FDEEABPE@?B?w?F?$KO?H?$KP?$LA?f?$LM?$LD?A?$KE@
  00130	ff 15 00 00 00
	00		 call	 DWORD PTR __imp_??0?$CStringT@DV?$StrTraitMFC_DLL@DV?$ChTraitsCRT@D@ATL@@@@@ATL@@QAE@PBD@Z
  00136	8d 8b 08 0b 00
	00		 lea	 ecx, DWORD PTR [ebx+2824]
  0013c	e8 00 00 00 00	 call	 ?FP_vSetToolTipText@CILButton@@QAEXV?$CStringT@DV?$StrTraitMFC_DLL@DV?$ChTraitsCRT@D@ATL@@@@@ATL@@@Z ; CILButton::FP_vSetToolTipText

; 246  : 
; 247  : 	m_btInitial.FP_vSetImage(m_pIL_W46H20, 32, 34, TRUE, "", FALSE);

  00141	6a ff		 push	 -1
  00143	6a ff		 push	 -1
  00145	6a 00		 push	 0
  00147	51		 push	 ecx
  00148	8b cc		 mov	 ecx, esp
  0014a	68 00 00 00 00	 push	 OFFSET ??_C@_06PKNBDFAO@?C?J?$LB?b?H?$KN@
  0014f	ff 15 00 00 00
	00		 call	 DWORD PTR __imp_??0?$CStringT@DV?$StrTraitMFC_DLL@DV?$ChTraitsCRT@D@ATL@@@@@ATL@@QAE@PBD@Z
  00155	6a 01		 push	 1
  00157	6a 22		 push	 34			; 00000022H
  00159	6a 20		 push	 32			; 00000020H
  0015b	ff b3 b4 00 00
	00		 push	 DWORD PTR [ebx+180]
  00161	8d 8b a8 09 00
	00		 lea	 ecx, DWORD PTR [ebx+2472]
  00167	e8 00 00 00 00	 call	 ?FP_vSetImage@CILButton@@QAEXPAVCImageList@@HHHV?$CStringT@DV?$StrTraitMFC_DLL@DV?$ChTraitsCRT@D@ATL@@@@@ATL@@HHH@Z ; CILButton::FP_vSetImage

; 248  : 	m_btInitial.FP_vSetToolTipText("");

  0016c	51		 push	 ecx
  0016d	8b cc		 mov	 ecx, esp
  0016f	68 00 00 00 00	 push	 OFFSET ??_C@_0P@NJHNOOOB@?$MA?$PM?C?$LM?B?w?F?$KO?C?J?$LB?b?H?$KN@
  00174	ff 15 00 00 00
	00		 call	 DWORD PTR __imp_??0?$CStringT@DV?$StrTraitMFC_DLL@DV?$ChTraitsCRT@D@ATL@@@@@ATL@@QAE@PBD@Z
  0017a	8d 8b a8 09 00
	00		 lea	 ecx, DWORD PTR [ebx+2472]
  00180	e8 00 00 00 00	 call	 ?FP_vSetToolTipText@CILButton@@QAEXV?$CStringT@DV?$StrTraitMFC_DLL@DV?$ChTraitsCRT@D@ATL@@@@@ATL@@@Z ; CILButton::FP_vSetToolTipText

; 249  : 
; 250  : //@ m_btInitial_Period.FP_vSetImage(m_pIL_W34H20, 0, 2, TRUE, "", FALSE);
; 251  : //@ m_btInitial_Period.FP_vSetToolTipText("");
; 252  : 
; 253  : 	m_btnGwanSim.FP_vSetImage(pIL_W46H20_Gwan, 0, 2, FALSE, "", FALSE);

  00185	6a ff		 push	 -1
  00187	6a ff		 push	 -1
  00189	6a 00		 push	 0
  0018b	51		 push	 ecx
  0018c	8b cc		 mov	 ecx, esp
  0018e	68 00 00 00 00	 push	 OFFSET ??_C@_00CNPNBAHC@@
  00193	ff 15 00 00 00
	00		 call	 DWORD PTR __imp_??0?$CStringT@DV?$StrTraitMFC_DLL@DV?$ChTraitsCRT@D@ATL@@@@@ATL@@QAE@PBD@Z
  00199	6a 00		 push	 0
  0019b	6a 02		 push	 2
  0019d	6a 00		 push	 0
  0019f	68 00 00 00 00	 push	 OFFSET ?m_ImgList_W46H20_Gwan@CStdDialog@@2VCImageList@@A ; CStdDialog::m_ImgList_W46H20_Gwan
  001a4	8d 8b 88 05 00
	00		 lea	 ecx, DWORD PTR [ebx+1416]
  001aa	e8 00 00 00 00	 call	 ?FP_vSetImage@CILButton@@QAEXPAVCImageList@@HHHV?$CStringT@DV?$StrTraitMFC_DLL@DV?$ChTraitsCRT@D@ATL@@@@@ATL@@HHH@Z ; CILButton::FP_vSetImage

; 254  : 	m_btnGwanSim.FP_vSetToolTipText("");

  001af	51		 push	 ecx
  001b0	8b cc		 mov	 ecx, esp
  001b2	68 00 00 00 00	 push	 OFFSET ??_C@_08OMOHNJKO@?$LA?$PM?$LN?I?$LF?n?$LH?O@
  001b7	ff 15 00 00 00
	00		 call	 DWORD PTR __imp_??0?$CStringT@DV?$StrTraitMFC_DLL@DV?$ChTraitsCRT@D@ATL@@@@@ATL@@QAE@PBD@Z
  001bd	8d 8b 88 05 00
	00		 lea	 ecx, DWORD PTR [ebx+1416]
  001c3	e8 00 00 00 00	 call	 ?FP_vSetToolTipText@CILButton@@QAEXV?$CStringT@DV?$StrTraitMFC_DLL@DV?$ChTraitsCRT@D@ATL@@@@@ATL@@@Z ; CILButton::FP_vSetToolTipText
; File C:\Program Files (x86)\Microsoft Visual Studio\2019\Community\VC\Tools\MSVC\14.29.30133\atlmfc\include\afxwin1.inl

; 132  : 	{ return Attach(::CreateSolidBrush(crColor)); }

  001c8	ff b3 f0 32 00
	00		 push	 DWORD PTR [ebx+13040]
  001ce	ff 15 00 00 00
	00		 call	 DWORD PTR __imp__CreateSolidBrush@4
  001d4	50		 push	 eax
; File D:\git\src\IBK\IBK_DRFN\ProjSrc\SrcDrfn\Chart\MULTICHART\ExtInputBarDlg.cpp

; 267  : 	m_brBkColor.CreateSolidBrush(m_crBk);

  001d5	8d 8b e8 32 00
	00		 lea	 ecx, DWORD PTR [ebx+13032]
; File C:\Program Files (x86)\Microsoft Visual Studio\2019\Community\VC\Tools\MSVC\14.29.30133\atlmfc\include\afxwin1.inl

; 132  : 	{ return Attach(::CreateSolidBrush(crColor)); }

  001db	e8 00 00 00 00	 call	 ?Attach@CGdiObject@@QAEHPAX@Z ; CGdiObject::Attach
; File C:\Program Files (x86)\Microsoft Visual Studio\2019\Community\VC\Tools\MSVC\14.29.30133\atlmfc\include\afxwin2.inl

; 213  : 	{ ASSERT(::IsWindow(m_hWnd)); return CWnd::FromHandle(::GetParent(m_hWnd)); }

  001e0	ff 73 20	 push	 DWORD PTR [ebx+32]
  001e3	ff d6		 call	 esi
  001e5	50		 push	 eax
  001e6	e8 00 00 00 00	 call	 ?FromHandle@CWnd@@SGPAV1@PAUHWND__@@@Z ; CWnd::FromHandle
; File D:\git\src\IBK\IBK_DRFN\ProjSrc\SrcDrfn\Chart\MULTICHART\ExtInputBarDlg.cpp

; 269  : 	m_strImageChartPath = ((CStdDialog*)GetParent())->m_szImageDir;

  001eb	05 ac 07 00 00	 add	 eax, 1964		; 000007acH
  001f0	8d 8b f4 32 00
	00		 lea	 ecx, DWORD PTR [ebx+13044]
  001f6	50		 push	 eax
  001f7	ff 15 00 00 00
	00		 call	 DWORD PTR __imp_??4?$CStringT@DV?$StrTraitMFC_DLL@DV?$ChTraitsCRT@D@ATL@@@@@ATL@@QAEAAV01@ABV01@@Z

; 270  : 	//m_strCfgFile		= ((CStdDialog*)GetParent())->m_strUserDir + ENVINFOFILE;
; 271  : 
; 272  : 	//m_strCfgFile = ((CStdDialog*)GetParent())->m_strConfig;
; 273  : 	//	if(m_nMarketType == STOCK_CHART)	
; 274  : 	//	{	
; 275  : 	//		m_strCfgFile = ((CStdDialog*)GetParent())->m_strUserDir + STOCK_ENVINFOFILE;
; 276  : 	//		//m_btnSellScreen.ShowWindow(TRUE);
; 277  : 	//		//m_btnBuyScreen.ShowWindow(TRUE);
; 278  : 	//	}
; 279  : 	//	else if(m_nMarketType == FUTOPT_CHART)
; 280  : 	//		m_strCfgFile = ((CStdDialog*)GetParent())->m_strUserDir + FUTOPT_ENVINFOFILE;
; 281  : 	//	else if(m_nMarketType == UPJONG_CHART)
; 282  : 	//		m_strCfgFile = ((CStdDialog*)GetParent())->m_strUserDir + UPJONG_ENVINFOFILE;
; 283  : 	//	else if(m_nMarketType == FOREIGN_CHART)
; 284  : 	//		m_strCfgFile = ((CStdDialog*)GetParent())->m_strUserDir + FOREIGN_ENVINFOFILE;
; 285  : 
; 286  : 
; 287  : 	CString strImageSelect;

  001fd	8d 8d 78 ff ff
	ff		 lea	 ecx, DWORD PTR _strImageSelect$[ebp]
  00203	ff 15 00 00 00
	00		 call	 DWORD PTR __imp_??0?$CStringT@DV?$StrTraitMFC_DLL@DV?$ChTraitsCRT@D@ATL@@@@@ATL@@QAE@XZ

; 288  : 	CString strImageUp;

  00209	8d 8d 7c ff ff
	ff		 lea	 ecx, DWORD PTR _strImageUp$[ebp]
  0020f	c7 45 fc 00 00
	00 00		 mov	 DWORD PTR __$EHRec$[ebp+8], 0
  00216	ff 15 00 00 00
	00		 call	 DWORD PTR __imp_??0?$CStringT@DV?$StrTraitMFC_DLL@DV?$ChTraitsCRT@D@ATL@@@@@ATL@@QAE@XZ

; 289  : 	CString strImageDown;

  0021c	8d 4d 80	 lea	 ecx, DWORD PTR _strImageDown$[ebp]
  0021f	ff 15 00 00 00
	00		 call	 DWORD PTR __imp_??0?$CStringT@DV?$StrTraitMFC_DLL@DV?$ChTraitsCRT@D@ATL@@@@@ATL@@QAE@XZ

; 290  : 	CString strImageOver;

  00225	8d 4d 84	 lea	 ecx, DWORD PTR _strImageOver$[ebp]
  00228	ff 15 00 00 00
	00		 call	 DWORD PTR __imp_??0?$CStringT@DV?$StrTraitMFC_DLL@DV?$ChTraitsCRT@D@ATL@@@@@ATL@@QAE@XZ

; 291  : 	CString strImageDis;

  0022e	8d 4d 88	 lea	 ecx, DWORD PTR _strImageDis$[ebp]
  00231	ff 15 00 00 00
	00		 call	 DWORD PTR __imp_??0?$CStringT@DV?$StrTraitMFC_DLL@DV?$ChTraitsCRT@D@ATL@@@@@ATL@@QAE@XZ
; File C:\Program Files (x86)\Microsoft Visual Studio\2019\Community\VC\Tools\MSVC\14.29.30133\atlmfc\include\afxwin2.inl

; 213  : 	{ ASSERT(::IsWindow(m_hWnd)); return CWnd::FromHandle(::GetParent(m_hWnd)); }

  00237	ff 73 20	 push	 DWORD PTR [ebx+32]
; File D:\git\src\IBK\IBK_DRFN\ProjSrc\SrcDrfn\Chart\MULTICHART\ExtInputBarDlg.cpp

; 291  : 	CString strImageDis;

  0023a	c6 45 fc 04	 mov	 BYTE PTR __$EHRec$[ebp+8], 4
; File C:\Program Files (x86)\Microsoft Visual Studio\2019\Community\VC\Tools\MSVC\14.29.30133\atlmfc\include\afxwin2.inl

; 213  : 	{ ASSERT(::IsWindow(m_hWnd)); return CWnd::FromHandle(::GetParent(m_hWnd)); }

  0023e	ff d6		 call	 esi
  00240	50		 push	 eax
  00241	e8 00 00 00 00	 call	 ?FromHandle@CWnd@@SGPAV1@PAUHWND__@@@Z ; CWnd::FromHandle
; File D:\git\src\IBK\IBK_DRFN\ProjSrc\SrcDrfn\Chart\MULTICHART\ExtInputBarDlg.cpp

; 297  : 	m_btIndex.FP_vSetImage( m_pIL_W46H20, 2, 3);	

  00246	6a ff		 push	 -1
  00248	6a ff		 push	 -1
  0024a	6a 00		 push	 0
  0024c	51		 push	 ecx
  0024d	8b cc		 mov	 ecx, esp
  0024f	c7 83 b4 00 00
	00 00 00 00 00	 mov	 DWORD PTR [ebx+180], OFFSET ?m_ImgList_W46H20@CStdDialog@@2VCImageList@@A ; CStdDialog::m_ImgList_W46H20
  00259	68 00 00 00 00	 push	 OFFSET ??_C@_00CNPNBAHC@@
  0025e	ff 15 00 00 00
	00		 call	 DWORD PTR __imp_??0?$CStringT@DV?$StrTraitMFC_DLL@DV?$ChTraitsCRT@D@ATL@@@@@ATL@@QAE@PBD@Z
  00264	6a 00		 push	 0
  00266	6a 03		 push	 3
  00268	6a 02		 push	 2
  0026a	ff b3 b4 00 00
	00		 push	 DWORD PTR [ebx+180]
  00270	8d 8b 88 2d 00
	00		 lea	 ecx, DWORD PTR [ebx+11656]
  00276	e8 00 00 00 00	 call	 ?FP_vSetImage@CILButton@@QAEXPAVCImageList@@HHHV?$CStringT@DV?$StrTraitMFC_DLL@DV?$ChTraitsCRT@D@ATL@@@@@ATL@@HHH@Z ; CILButton::FP_vSetImage

; 298  : 	m_btIndex.FP_vSetToolTipText("");

  0027b	51		 push	 ecx
  0027c	8b cc		 mov	 ecx, esp
  0027e	68 00 00 00 00	 push	 OFFSET ??_C@_04JDFEIJL@?A?v?G?$KF@
  00283	ff 15 00 00 00
	00		 call	 DWORD PTR __imp_??0?$CStringT@DV?$StrTraitMFC_DLL@DV?$ChTraitsCRT@D@ATL@@@@@ATL@@QAE@PBD@Z
  00289	8d 8b 88 2d 00
	00		 lea	 ecx, DWORD PTR [ebx+11656]
  0028f	e8 00 00 00 00	 call	 ?FP_vSetToolTipText@CILButton@@QAEXV?$CStringT@DV?$StrTraitMFC_DLL@DV?$ChTraitsCRT@D@ATL@@@@@ATL@@@Z ; CILButton::FP_vSetToolTipText

; 299  : 	m_btIndex.SetWindowPos(NULL, 0, 0, 46, 20, SWP_NOMOVE|SWP_NOZORDER);

  00294	6a 06		 push	 6
  00296	6a 14		 push	 20			; 00000014H
  00298	6a 2e		 push	 46			; 0000002eH
  0029a	6a 00		 push	 0
  0029c	6a 00		 push	 0
  0029e	6a 00		 push	 0
  002a0	8d 8b 88 2d 00
	00		 lea	 ecx, DWORD PTR [ebx+11656]
  002a6	e8 00 00 00 00	 call	 ?SetWindowPos@CWnd@@QAEHPBV1@HHHHI@Z ; CWnd::SetWindowPos

; 300  : 
; 301  : 	// 	
; 302  : 	m_btSetEnvir.FP_vSetImage(m_pIL_W46H20, 24, 25);

  002ab	6a ff		 push	 -1
  002ad	6a ff		 push	 -1
  002af	6a 00		 push	 0
  002b1	51		 push	 ecx
  002b2	8b cc		 mov	 ecx, esp
  002b4	68 00 00 00 00	 push	 OFFSET ??_C@_00CNPNBAHC@@
  002b9	ff 15 00 00 00
	00		 call	 DWORD PTR __imp_??0?$CStringT@DV?$StrTraitMFC_DLL@DV?$ChTraitsCRT@D@ATL@@@@@ATL@@QAE@PBD@Z
  002bf	6a 00		 push	 0
  002c1	6a 19		 push	 25			; 00000019H
  002c3	6a 18		 push	 24			; 00000018H
  002c5	ff b3 b4 00 00
	00		 push	 DWORD PTR [ebx+180]
  002cb	8d 8b 28 20 00
	00		 lea	 ecx, DWORD PTR [ebx+8232]
  002d1	e8 00 00 00 00	 call	 ?FP_vSetImage@CILButton@@QAEXPAVCImageList@@HHHV?$CStringT@DV?$StrTraitMFC_DLL@DV?$ChTraitsCRT@D@ATL@@@@@ATL@@HHH@Z ; CILButton::FP_vSetImage

; 303  : 	m_btSetEnvir.FP_vSetToolTipText("");

  002d6	51		 push	 ecx
  002d7	8b cc		 mov	 ecx, esp
  002d9	68 00 00 00 00	 push	 OFFSET ??_C@_08JBKIJOF@?H?$KP?$LA?f?$LM?$LD?A?$KE@
  002de	ff 15 00 00 00
	00		 call	 DWORD PTR __imp_??0?$CStringT@DV?$StrTraitMFC_DLL@DV?$ChTraitsCRT@D@ATL@@@@@ATL@@QAE@PBD@Z
  002e4	8d 8b 28 20 00
	00		 lea	 ecx, DWORD PTR [ebx+8232]
  002ea	e8 00 00 00 00	 call	 ?FP_vSetToolTipText@CILButton@@QAEXV?$CStringT@DV?$StrTraitMFC_DLL@DV?$ChTraitsCRT@D@ATL@@@@@ATL@@@Z ; CILButton::FP_vSetToolTipText

; 304  : 
; 305  : 	// 
; 306  : 	m_chkJongmokLink.FP_vSetImage(m_pIL_W46H20, 4, 6, FALSE, "", TRUE, 7);

  002ef	6a ff		 push	 -1
  002f1	6a 07		 push	 7
  002f3	6a 01		 push	 1
  002f5	51		 push	 ecx
  002f6	8b cc		 mov	 ecx, esp
  002f8	68 00 00 00 00	 push	 OFFSET ??_C@_00CNPNBAHC@@
  002fd	ff 15 00 00 00
	00		 call	 DWORD PTR __imp_??0?$CStringT@DV?$StrTraitMFC_DLL@DV?$ChTraitsCRT@D@ATL@@@@@ATL@@QAE@PBD@Z
  00303	6a 00		 push	 0
  00305	6a 06		 push	 6
  00307	6a 04		 push	 4
  00309	ff b3 b4 00 00
	00		 push	 DWORD PTR [ebx+180]
  0030f	8d 8b 48 24 00
	00		 lea	 ecx, DWORD PTR [ebx+9288]
  00315	e8 00 00 00 00	 call	 ?FP_vSetImage@CILButton@@QAEXPAVCImageList@@HHHV?$CStringT@DV?$StrTraitMFC_DLL@DV?$ChTraitsCRT@D@ATL@@@@@ATL@@HHH@Z ; CILButton::FP_vSetImage

; 307  : 	m_chkJongmokLink.FP_vSetToolTipText("");

  0031a	51		 push	 ecx
  0031b	8b cc		 mov	 ecx, esp
  0031d	68 00 00 00 00	 push	 OFFSET ??_C@_0N@GJHDBHHN@?A?$LO?$LI?q?$LP?$KM?$LF?$LP?A?v?A?$KE@
  00322	ff 15 00 00 00
	00		 call	 DWORD PTR __imp_??0?$CStringT@DV?$StrTraitMFC_DLL@DV?$ChTraitsCRT@D@ATL@@@@@ATL@@QAE@PBD@Z
  00328	8d 8b 48 24 00
	00		 lea	 ecx, DWORD PTR [ebx+9288]
  0032e	e8 00 00 00 00	 call	 ?FP_vSetToolTipText@CILButton@@QAEXV?$CStringT@DV?$StrTraitMFC_DLL@DV?$ChTraitsCRT@D@ATL@@@@@ATL@@@Z ; CILButton::FP_vSetToolTipText

; 308  : 
; 309  : 	//  		
; 310  : 	m_chkTypeLink.FP_vSetImage(m_pIL_W46H20, 8, 10, FALSE, "", TRUE, 11);

  00333	6a ff		 push	 -1
  00335	6a 0b		 push	 11			; 0000000bH
  00337	6a 01		 push	 1
  00339	51		 push	 ecx
  0033a	8b cc		 mov	 ecx, esp
  0033c	68 00 00 00 00	 push	 OFFSET ??_C@_00CNPNBAHC@@
  00341	ff 15 00 00 00
	00		 call	 DWORD PTR __imp_??0?$CStringT@DV?$StrTraitMFC_DLL@DV?$ChTraitsCRT@D@ATL@@@@@ATL@@QAE@PBD@Z
  00347	6a 00		 push	 0
  00349	6a 0a		 push	 10			; 0000000aH
  0034b	6a 08		 push	 8
  0034d	ff b3 b4 00 00
	00		 push	 DWORD PTR [ebx+180]
  00353	8d 8b c8 29 00
	00		 lea	 ecx, DWORD PTR [ebx+10696]
  00359	e8 00 00 00 00	 call	 ?FP_vSetImage@CILButton@@QAEXPAVCImageList@@HHHV?$CStringT@DV?$StrTraitMFC_DLL@DV?$ChTraitsCRT@D@ATL@@@@@ATL@@HHH@Z ; CILButton::FP_vSetImage

; 311  : 	m_chkTypeLink.FP_vSetToolTipText("");

  0035e	51		 push	 ecx
  0035f	8b cc		 mov	 ecx, esp
  00361	68 00 00 00 00	 push	 OFFSET ??_C@_0N@PAPJAJOF@?A?V?$LB?b?$LP?$KM?$LF?$LP?A?v?A?$KE@
  00366	ff 15 00 00 00
	00		 call	 DWORD PTR __imp_??0?$CStringT@DV?$StrTraitMFC_DLL@DV?$ChTraitsCRT@D@ATL@@@@@ATL@@QAE@PBD@Z
  0036c	8d 8b c8 29 00
	00		 lea	 ecx, DWORD PTR [ebx+10696]
  00372	e8 00 00 00 00	 call	 ?FP_vSetToolTipText@CILButton@@QAEXV?$CStringT@DV?$StrTraitMFC_DLL@DV?$ChTraitsCRT@D@ATL@@@@@ATL@@@Z ; CILButton::FP_vSetToolTipText

; 312  : 
; 313  : 	//=  
; 314  : 	//m_chkUpdateIndex.FP_vSetImage(m_pIL_W46H20, 12, 14, FALSE, "", TRUE);
; 315  : 	//m_chkUpdateIndex.FP_vSetImage(m_pIL_W46H20, 12, 14);
; 316  : 	m_chkUpdateIndex.FP_vSetImage(m_pIL_W46H20, 12, 14, FALSE, "", FALSE, 15);

  00377	6a ff		 push	 -1
  00379	6a 0f		 push	 15			; 0000000fH
  0037b	6a 00		 push	 0
  0037d	51		 push	 ecx
  0037e	8b cc		 mov	 ecx, esp
  00380	68 00 00 00 00	 push	 OFFSET ??_C@_00CNPNBAHC@@
  00385	ff 15 00 00 00
	00		 call	 DWORD PTR __imp_??0?$CStringT@DV?$StrTraitMFC_DLL@DV?$ChTraitsCRT@D@ATL@@@@@ATL@@QAE@PBD@Z
  0038b	6a 00		 push	 0
  0038d	6a 0e		 push	 14			; 0000000eH
  0038f	6a 0c		 push	 12			; 0000000cH
  00391	ff b3 b4 00 00
	00		 push	 DWORD PTR [ebx+180]
  00397	8d 8b c8 0d 00
	00		 lea	 ecx, DWORD PTR [ebx+3528]
  0039d	e8 00 00 00 00	 call	 ?FP_vSetImage@CILButton@@QAEXPAVCImageList@@HHHV?$CStringT@DV?$StrTraitMFC_DLL@DV?$ChTraitsCRT@D@ATL@@@@@ATL@@HHH@Z ; CILButton::FP_vSetImage

; 317  : 	m_chkUpdateIndex.FP_vSetToolTipText("");	

  003a2	51		 push	 ecx
  003a3	8b cc		 mov	 ecx, esp
  003a5	68 00 00 00 00	 push	 OFFSET ??_C@_0P@CLKJNIKE@?B?w?F?$KO?A?v?G?$KF?$LF?$LP?$LB?b?H?$KN@
  003aa	ff 15 00 00 00
	00		 call	 DWORD PTR __imp_??0?$CStringT@DV?$StrTraitMFC_DLL@DV?$ChTraitsCRT@D@ATL@@@@@ATL@@QAE@PBD@Z
  003b0	8d 8b c8 0d 00
	00		 lea	 ecx, DWORD PTR [ebx+3528]
  003b6	e8 00 00 00 00	 call	 ?FP_vSetToolTipText@CILButton@@QAEXV?$CStringT@DV?$StrTraitMFC_DLL@DV?$ChTraitsCRT@D@ATL@@@@@ATL@@@Z ; CILButton::FP_vSetToolTipText

; 318  : 	m_chkUpdateIndex.SetWindowPos(NULL, 0, 0, 46, 20, SWP_NOMOVE|SWP_NOZORDER);

  003bb	6a 06		 push	 6
  003bd	6a 14		 push	 20			; 00000014H
  003bf	6a 2e		 push	 46			; 0000002eH
  003c1	6a 00		 push	 0
  003c3	6a 00		 push	 0
  003c5	6a 00		 push	 0
  003c7	8d 8b c8 0d 00
	00		 lea	 ecx, DWORD PTR [ebx+3528]
  003cd	e8 00 00 00 00	 call	 ?SetWindowPos@CWnd@@QAEHPBV1@HHHHI@Z ; CWnd::SetWindowPos

; 319  : 
; 320  : 	//  	
; 321  : 	m_btFixPeriod.FP_vSetImage(m_pIL_W46H20, 16, 18, FALSE, "", FALSE, 19);

  003d2	6a ff		 push	 -1
  003d4	6a 13		 push	 19			; 00000013H
  003d6	6a 00		 push	 0
  003d8	51		 push	 ecx
  003d9	8b cc		 mov	 ecx, esp
  003db	68 00 00 00 00	 push	 OFFSET ??_C@_00CNPNBAHC@@
  003e0	ff 15 00 00 00
	00		 call	 DWORD PTR __imp_??0?$CStringT@DV?$StrTraitMFC_DLL@DV?$ChTraitsCRT@D@ATL@@@@@ATL@@QAE@PBD@Z
  003e6	6a 00		 push	 0
  003e8	6a 12		 push	 18			; 00000012H
  003ea	6a 10		 push	 16			; 00000010H
  003ec	ff b3 b4 00 00
	00		 push	 DWORD PTR [ebx+180]
  003f2	8d 8b 28 15 00
	00		 lea	 ecx, DWORD PTR [ebx+5416]
  003f8	e8 00 00 00 00	 call	 ?FP_vSetImage@CILButton@@QAEXPAVCImageList@@HHHV?$CStringT@DV?$StrTraitMFC_DLL@DV?$ChTraitsCRT@D@ATL@@@@@ATL@@HHH@Z ; CILButton::FP_vSetImage

; 322  : 	m_btFixPeriod.FP_vSetToolTipText("");

  003fd	51		 push	 ecx
  003fe	8b cc		 mov	 ecx, esp
  00400	68 00 00 00 00	 push	 OFFSET ??_C@_08FGDFCFBI@?$LB?b?$LA?$KD?$LA?m?A?$KE@
  00405	ff 15 00 00 00
	00		 call	 DWORD PTR __imp_??0?$CStringT@DV?$StrTraitMFC_DLL@DV?$ChTraitsCRT@D@ATL@@@@@ATL@@QAE@PBD@Z
  0040b	8d 8b 28 15 00
	00		 lea	 ecx, DWORD PTR [ebx+5416]
  00411	e8 00 00 00 00	 call	 ?FP_vSetToolTipText@CILButton@@QAEXV?$CStringT@DV?$StrTraitMFC_DLL@DV?$ChTraitsCRT@D@ATL@@@@@ATL@@@Z ; CILButton::FP_vSetToolTipText

; 323  : 	m_btFixPeriod.SetWindowPos(NULL, 0, 0, 46, 20, SWP_NOMOVE|SWP_NOZORDER);

  00416	6a 06		 push	 6
  00418	6a 14		 push	 20			; 00000014H
  0041a	6a 2e		 push	 46			; 0000002eH
  0041c	6a 00		 push	 0
  0041e	6a 00		 push	 0
  00420	6a 00		 push	 0
  00422	8d 8b 28 15 00
	00		 lea	 ecx, DWORD PTR [ebx+5416]
  00428	e8 00 00 00 00	 call	 ?SetWindowPos@CWnd@@QAEHPBV1@HHHHI@Z ; CWnd::SetWindowPos
; File C:\Program Files (x86)\Microsoft Visual Studio\2019\Community\VC\Tools\MSVC\14.29.30133\atlmfc\include\afxwin2.inl

; 213  : 	{ ASSERT(::IsWindow(m_hWnd)); return CWnd::FromHandle(::GetParent(m_hWnd)); }

  0042d	ff 73 20	 push	 DWORD PTR [ebx+32]
  00430	ff d6		 call	 esi
  00432	50		 push	 eax
  00433	e8 00 00 00 00	 call	 ?FromHandle@CWnd@@SGPAV1@PAUHWND__@@@Z ; CWnd::FromHandle
  00438	ff 73 20	 push	 DWORD PTR [ebx+32]
; File D:\git\src\IBK\IBK_DRFN\ProjSrc\SrcDrfn\Chart\MULTICHART\ExtInputBarDlg.cpp

; 326  : 	m_pIL_W20H20 = &(((CStdDialog*)GetParent())->m_ImgList_W20H20);

  0043b	c7 83 b8 00 00
	00 00 00 00 00	 mov	 DWORD PTR [ebx+184], OFFSET ?m_ImgList_W20H20@CStdDialog@@2VCImageList@@A ; CStdDialog::m_ImgList_W20H20
; File C:\Program Files (x86)\Microsoft Visual Studio\2019\Community\VC\Tools\MSVC\14.29.30133\atlmfc\include\afxwin2.inl

; 213  : 	{ ASSERT(::IsWindow(m_hWnd)); return CWnd::FromHandle(::GetParent(m_hWnd)); }

  00445	ff d6		 call	 esi
  00447	50		 push	 eax
  00448	e8 00 00 00 00	 call	 ?FromHandle@CWnd@@SGPAV1@PAUHWND__@@@Z ; CWnd::FromHandle
; File D:\git\src\IBK\IBK_DRFN\ProjSrc\SrcDrfn\Chart\MULTICHART\ExtInputBarDlg.cpp

; 336  : 	m_btSub2.FP_vSetImage(m_pIL_W20H20_Tool, 0, 2, FALSE, "", TRUE);		

  0044d	6a ff		 push	 -1
  0044f	6a ff		 push	 -1
  00451	6a 01		 push	 1
  00453	51		 push	 ecx
  00454	8b cc		 mov	 ecx, esp
  00456	c7 83 bc 00 00
	00 00 00 00 00	 mov	 DWORD PTR [ebx+188], OFFSET ?m_ImgList_W20H20_Tool@CStdDialog@@2VCImageList@@A ; CStdDialog::m_ImgList_W20H20_Tool
  00460	68 00 00 00 00	 push	 OFFSET ??_C@_00CNPNBAHC@@
  00465	ff 15 00 00 00
	00		 call	 DWORD PTR __imp_??0?$CStringT@DV?$StrTraitMFC_DLL@DV?$ChTraitsCRT@D@ATL@@@@@ATL@@QAE@PBD@Z
  0046b	6a 00		 push	 0
  0046d	6a 02		 push	 2
  0046f	6a 00		 push	 0
  00471	ff b3 bc 00 00
	00		 push	 DWORD PTR [ebx+188]
  00477	8d 8b e8 06 00
	00		 lea	 ecx, DWORD PTR [ebx+1768]
  0047d	e8 00 00 00 00	 call	 ?FP_vSetImage@CILButton@@QAEXPAVCImageList@@HHHV?$CStringT@DV?$StrTraitMFC_DLL@DV?$ChTraitsCRT@D@ATL@@@@@ATL@@HHH@Z ; CILButton::FP_vSetImage

; 337  : 	m_btSub2.FP_vSetToolTipText(" ");

  00482	51		 push	 ecx
  00483	8b cc		 mov	 ecx, esp
  00485	68 00 00 00 00	 push	 OFFSET ??_C@_0M@NINNGGJA@?$LN?J?$MA?Z?$LM?$LB?5?G?$KF?$LN?C@
  0048a	ff 15 00 00 00
	00		 call	 DWORD PTR __imp_??0?$CStringT@DV?$StrTraitMFC_DLL@DV?$ChTraitsCRT@D@ATL@@@@@ATL@@QAE@PBD@Z
  00490	8d 8b e8 06 00
	00		 lea	 ecx, DWORD PTR [ebx+1768]
  00496	e8 00 00 00 00	 call	 ?FP_vSetToolTipText@CILButton@@QAEXV?$CStringT@DV?$StrTraitMFC_DLL@DV?$ChTraitsCRT@D@ATL@@@@@ATL@@@Z ; CILButton::FP_vSetToolTipText

; 338  : //@	m_btSub3.FP_vSetImage(m_pIL_W20H20_Tool, 4, 6, FALSE, "", TRUE);		
; 339  : //@	m_btSub3.FP_vSetToolTipText("");
; 340  : 	//	m_btSub4.FP_vSetImage(m_pIL_W20H20_Tool, 12, 14);		
; 341  : 	//	m_btSub4.FP_vSetToolTipText("");
; 342  : 	//	m_btSub5.FP_vSetImage(m_pIL_W20H20_Tool, 20, 22);		
; 343  : 	//	m_btSub5.FP_vSetToolTipText("Y");
; 344  : 	//m_btSub6.FP_vSetImage(m_pIL_W20H20_Tool, 24, 26, FALSE, "", TRUE);		
; 345  : 	//	m_btSub6.FP_vSetImage( m_pIL_W20H20, 96, 98, FALSE, "", TRUE);	
; 346  : 	//	m_btSub6.FP_vSetToolTipText("");
; 347  : 	//	m_btSub7.FP_vSetImage( m_pIL_W20H20, 96, 98, FALSE, "", TRUE);	
; 348  : 	//	m_btSub7.FP_vSetToolTipText("");
; 349  : //@	m_btSub8.FP_vSetImage( m_pIL_W20H20_Tool, 8, 10, FALSE, "", TRUE);	
; 350  : //@	m_btSub8.FP_vSetToolTipText("");
; 351  : 	//	m_btSub9.FP_vSetImage( m_pIL_W20H20, 96, 98, FALSE, "", TRUE);	
; 352  : 	//	m_btSub9.FP_vSetToolTipText("");
; 353  : 	//	m_btSub10.FP_vSetImage( m_pIL_W20H20, 96, 98, FALSE, "", TRUE);	
; 354  : 	//	m_btSub10.FP_vSetToolTipText("");
; 355  : 	//	m_btSub11.FP_vSetImage( m_pIL_W20H20, 4, 6, FALSE, "", TRUE);	
; 356  : 	//	m_btSub11.FP_vSetToolTipText("");
; 357  : 	//	m_btSub12.FP_vSetImage( m_pIL_W20H20, 12, 14, FALSE, "", TRUE);	
; 358  : 	//	m_btSub12.FP_vSetToolTipText("");
; 359  : 	//	m_btSub13.FP_vSetImage( m_pIL_W20H20, 20, 22, FALSE, "", TRUE);	
; 360  : 	//	m_btSub13.FP_vSetToolTipText("");
; 361  : 	//	m_btSub14.FP_vSetImage( m_pIL_W20H20, 96, 98, FALSE, "", TRUE);	
; 362  : 	//	m_btSub14.FP_vSetToolTipText("");
; 363  : 
; 364  : 	//
; 365  : 	m_btnPeriod.FP_vSetImage( m_pIL_W20H20, 82, 83, TRUE, "P", FALSE);

  0049b	6a ff		 push	 -1
  0049d	6a ff		 push	 -1
  0049f	6a 00		 push	 0
  004a1	51		 push	 ecx
  004a2	8b cc		 mov	 ecx, esp
  004a4	68 00 00 00 00	 push	 OFFSET ??_C@_01EJNLAFE@P@
  004a9	ff 15 00 00 00
	00		 call	 DWORD PTR __imp_??0?$CStringT@DV?$StrTraitMFC_DLL@DV?$ChTraitsCRT@D@ATL@@@@@ATL@@QAE@PBD@Z
  004af	6a 01		 push	 1
  004b1	6a 53		 push	 83			; 00000053H
  004b3	6a 52		 push	 82			; 00000052H
  004b5	ff b3 b8 00 00
	00		 push	 DWORD PTR [ebx+184]
  004bb	8d 8b 68 0c 00
	00		 lea	 ecx, DWORD PTR [ebx+3176]
  004c1	e8 00 00 00 00	 call	 ?FP_vSetImage@CILButton@@QAEXPAVCImageList@@HHHV?$CStringT@DV?$StrTraitMFC_DLL@DV?$ChTraitsCRT@D@ATL@@@@@ATL@@HHH@Z ; CILButton::FP_vSetImage

; 366  : 	m_btnPeriod.FP_vSetToolTipText("");

  004c6	51		 push	 ecx
  004c7	8b cc		 mov	 ecx, esp
  004c9	68 00 00 00 00	 push	 OFFSET ??_C@_08LIBHLAII@?$LB?b?$LA?$KD?$LM?$LD?A?$KE@
  004ce	ff 15 00 00 00
	00		 call	 DWORD PTR __imp_??0?$CStringT@DV?$StrTraitMFC_DLL@DV?$ChTraitsCRT@D@ATL@@@@@ATL@@QAE@PBD@Z
  004d4	8d 8b 68 0c 00
	00		 lea	 ecx, DWORD PTR [ebx+3176]
  004da	e8 00 00 00 00	 call	 ?FP_vSetToolTipText@CILButton@@QAEXV?$CStringT@DV?$StrTraitMFC_DLL@DV?$ChTraitsCRT@D@ATL@@@@@ATL@@@Z ; CILButton::FP_vSetToolTipText

; 367  : 	//	//  
; 368  : 	m_btYUnit.FP_vSetImage(m_pIL_W20H20_Tool, 12, 13, FALSE, "\\", FALSE, 15);	

  004df	6a ff		 push	 -1
  004e1	6a 0f		 push	 15			; 0000000fH
  004e3	6a 00		 push	 0
  004e5	51		 push	 ecx
  004e6	8b cc		 mov	 ecx, esp
  004e8	68 00 00 00 00	 push	 OFFSET ??_C@_01KICIPPFI@?2@
  004ed	ff 15 00 00 00
	00		 call	 DWORD PTR __imp_??0?$CStringT@DV?$StrTraitMFC_DLL@DV?$ChTraitsCRT@D@ATL@@@@@ATL@@QAE@PBD@Z
  004f3	6a 00		 push	 0
  004f5	6a 0d		 push	 13			; 0000000dH
  004f7	6a 0c		 push	 12			; 0000000cH
  004f9	ff b3 bc 00 00
	00		 push	 DWORD PTR [ebx+188]
  004ff	8d 8b 70 2f 00
	00		 lea	 ecx, DWORD PTR [ebx+12144]
  00505	e8 00 00 00 00	 call	 ?FP_vSetImage@CILButton@@QAEXPAVCImageList@@HHHV?$CStringT@DV?$StrTraitMFC_DLL@DV?$ChTraitsCRT@D@ATL@@@@@ATL@@HHH@Z ; CILButton::FP_vSetImage

; 369  : 	m_btYUnit.FP_vSetToolTipText("Y ");

  0050a	51		 push	 ecx
  0050b	8b cc		 mov	 ecx, esp
  0050d	68 00 00 00 00	 push	 OFFSET ??_C@_0N@GIENCJMH@Y?C?$OA?5?$LE?$KL?$LB?$NN?$MA?$PM?H?$KP@
  00512	ff 15 00 00 00
	00		 call	 DWORD PTR __imp_??0?$CStringT@DV?$StrTraitMFC_DLL@DV?$ChTraitsCRT@D@ATL@@@@@ATL@@QAE@PBD@Z
  00518	8d 8b 70 2f 00
	00		 lea	 ecx, DWORD PTR [ebx+12144]
  0051e	e8 00 00 00 00	 call	 ?FP_vSetToolTipText@CILButton@@QAEXV?$CStringT@DV?$StrTraitMFC_DLL@DV?$ChTraitsCRT@D@ATL@@@@@ATL@@@Z ; CILButton::FP_vSetToolTipText

; 370  : 	m_nYUnitType = WON_TICK;
; 371  : 
; 372  : 	//chart  
; 373  : 	m_btShowMatrix.FP_vSetImage(m_pIL_W20H20, 52, 54);

  00523	6a ff		 push	 -1
  00525	6a ff		 push	 -1
  00527	6a 00		 push	 0
  00529	51		 push	 ecx
  0052a	8b cc		 mov	 ecx, esp
  0052c	c7 83 d8 00 00
	00 00 00 00 00	 mov	 DWORD PTR [ebx+216], 0
  00536	68 00 00 00 00	 push	 OFFSET ??_C@_00CNPNBAHC@@
  0053b	ff 15 00 00 00
	00		 call	 DWORD PTR __imp_??0?$CStringT@DV?$StrTraitMFC_DLL@DV?$ChTraitsCRT@D@ATL@@@@@ATL@@QAE@PBD@Z
  00541	6a 00		 push	 0
  00543	6a 36		 push	 54			; 00000036H
  00545	6a 34		 push	 52			; 00000034H
  00547	ff b3 b8 00 00
	00		 push	 DWORD PTR [ebx+184]
  0054d	8d 8b c8 1e 00
	00		 lea	 ecx, DWORD PTR [ebx+7880]
  00553	e8 00 00 00 00	 call	 ?FP_vSetImage@CILButton@@QAEXPAVCImageList@@HHHV?$CStringT@DV?$StrTraitMFC_DLL@DV?$ChTraitsCRT@D@ATL@@@@@ATL@@HHH@Z ; CILButton::FP_vSetImage

; 374  : 	m_btShowMatrix.FP_vSetToolTipText("");

  00558	51		 push	 ecx
  00559	8b cc		 mov	 ecx, esp
  0055b	68 00 00 00 00	 push	 OFFSET ??_C@_04GCBAIGJG@?$LK?P?G?R@
  00560	ff 15 00 00 00
	00		 call	 DWORD PTR __imp_??0?$CStringT@DV?$StrTraitMFC_DLL@DV?$ChTraitsCRT@D@ATL@@@@@ATL@@QAE@PBD@Z
  00566	8d 8b c8 1e 00
	00		 lea	 ecx, DWORD PTR [ebx+7880]
  0056c	e8 00 00 00 00	 call	 ?FP_vSetToolTipText@CILButton@@QAEXV?$CStringT@DV?$StrTraitMFC_DLL@DV?$ChTraitsCRT@D@ATL@@@@@ATL@@@Z ; CILButton::FP_vSetToolTipText

; 375  : 
; 376  : 	//1*1
; 377  : 	m_btInitSplit.FP_vSetImage(m_pIL_W20H20, 72, 74);

  00571	6a ff		 push	 -1
  00573	6a ff		 push	 -1
  00575	6a 00		 push	 0
  00577	51		 push	 ecx
  00578	8b cc		 mov	 ecx, esp
  0057a	68 00 00 00 00	 push	 OFFSET ??_C@_00CNPNBAHC@@
  0057f	ff 15 00 00 00
	00		 call	 DWORD PTR __imp_??0?$CStringT@DV?$StrTraitMFC_DLL@DV?$ChTraitsCRT@D@ATL@@@@@ATL@@QAE@PBD@Z
  00585	6a 00		 push	 0
  00587	6a 4a		 push	 74			; 0000004aH
  00589	6a 48		 push	 72			; 00000048H
  0058b	ff b3 b8 00 00
	00		 push	 DWORD PTR [ebx+184]
  00591	8d 8b 28 2b 00
	00		 lea	 ecx, DWORD PTR [ebx+11048]
  00597	e8 00 00 00 00	 call	 ?FP_vSetImage@CILButton@@QAEXPAVCImageList@@HHHV?$CStringT@DV?$StrTraitMFC_DLL@DV?$ChTraitsCRT@D@ATL@@@@@ATL@@HHH@Z ; CILButton::FP_vSetImage

; 378  : 	m_btInitSplit.FP_vSetToolTipText("");

  0059c	51		 push	 ecx
  0059d	8b cc		 mov	 ecx, esp
  0059f	68 00 00 00 00	 push	 OFFSET ??_C@_08LMIHAIFC@?$LK?P?G?R?$LK?$LJ?$LP?x@
  005a4	ff 15 00 00 00
	00		 call	 DWORD PTR __imp_??0?$CStringT@DV?$StrTraitMFC_DLL@DV?$ChTraitsCRT@D@ATL@@@@@ATL@@QAE@PBD@Z
  005aa	8d 8b 28 2b 00
	00		 lea	 ecx, DWORD PTR [ebx+11048]
  005b0	e8 00 00 00 00	 call	 ?FP_vSetToolTipText@CILButton@@QAEXV?$CStringT@DV?$StrTraitMFC_DLL@DV?$ChTraitsCRT@D@ATL@@@@@ATL@@@Z ; CILButton::FP_vSetToolTipText

; 379  : 
; 380  : 	//	  
; 381  : 	//m_btScrollPre.FP_vSetImage(m_pIL_W20H20, 104, 106, TRUE, "", FALSE);	
; 382  : 	m_btScrollPre.FP_vSetImage(m_pIL_W20H20, 104, 106, FALSE, "", TRUE);	

  005b5	6a ff		 push	 -1
  005b7	6a ff		 push	 -1
  005b9	6a 01		 push	 1
  005bb	51		 push	 ecx
  005bc	8b cc		 mov	 ecx, esp
  005be	68 00 00 00 00	 push	 OFFSET ??_C@_00CNPNBAHC@@
  005c3	ff 15 00 00 00
	00		 call	 DWORD PTR __imp_??0?$CStringT@DV?$StrTraitMFC_DLL@DV?$ChTraitsCRT@D@ATL@@@@@ATL@@QAE@PBD@Z
  005c9	6a 00		 push	 0
  005cb	6a 6a		 push	 106			; 0000006aH
  005cd	6a 68		 push	 104			; 00000068H
  005cf	ff b3 b8 00 00
	00		 push	 DWORD PTR [ebx+184]
  005d5	8d 8b 68 01 00
	00		 lea	 ecx, DWORD PTR [ebx+360]
  005db	e8 00 00 00 00	 call	 ?FP_vSetImage@CILButton@@QAEXPAVCImageList@@HHHV?$CStringT@DV?$StrTraitMFC_DLL@DV?$ChTraitsCRT@D@ATL@@@@@ATL@@HHH@Z ; CILButton::FP_vSetImage

; 383  : 	m_btScrollPre.FP_vSetToolTipText("");

  005e0	51		 push	 ecx
  005e1	8b cc		 mov	 ecx, esp
  005e3	68 00 00 00 00	 push	 OFFSET ??_C@_04MFPFIJHG@?$MA?L?$MA?$PM@
  005e8	ff 15 00 00 00
	00		 call	 DWORD PTR __imp_??0?$CStringT@DV?$StrTraitMFC_DLL@DV?$ChTraitsCRT@D@ATL@@@@@ATL@@QAE@PBD@Z
  005ee	8d 8b 68 01 00
	00		 lea	 ecx, DWORD PTR [ebx+360]
  005f4	e8 00 00 00 00	 call	 ?FP_vSetToolTipText@CILButton@@QAEXV?$CStringT@DV?$StrTraitMFC_DLL@DV?$ChTraitsCRT@D@ATL@@@@@ATL@@@Z ; CILButton::FP_vSetToolTipText

; 384  : 
; 385  : 	// 
; 386  : 	m_btScrollStop.FP_vSetImage(m_pIL_W20H20, 64, 66);

  005f9	6a ff		 push	 -1
  005fb	6a ff		 push	 -1
  005fd	6a 00		 push	 0
  005ff	51		 push	 ecx
  00600	8b cc		 mov	 ecx, esp
  00602	68 00 00 00 00	 push	 OFFSET ??_C@_00CNPNBAHC@@
  00607	ff 15 00 00 00
	00		 call	 DWORD PTR __imp_??0?$CStringT@DV?$StrTraitMFC_DLL@DV?$ChTraitsCRT@D@ATL@@@@@ATL@@QAE@PBD@Z
  0060d	6a 00		 push	 0
  0060f	6a 42		 push	 66			; 00000042H
  00611	6a 40		 push	 64			; 00000040H
  00613	ff b3 b8 00 00
	00		 push	 DWORD PTR [ebx+184]
  00619	8d 8b 28 04 00
	00		 lea	 ecx, DWORD PTR [ebx+1064]
  0061f	e8 00 00 00 00	 call	 ?FP_vSetImage@CILButton@@QAEXPAVCImageList@@HHHV?$CStringT@DV?$StrTraitMFC_DLL@DV?$ChTraitsCRT@D@ATL@@@@@ATL@@HHH@Z ; CILButton::FP_vSetImage

; 387  : 	m_btScrollStop.FP_vSetToolTipText("");

  00624	51		 push	 ecx
  00625	8b cc		 mov	 ecx, esp
  00627	68 00 00 00 00	 push	 OFFSET ??_C@_0L@CGKGJHBG@?$LN?$LK?E?$KJ?$LH?Q?A?$KE?A?v@
  0062c	ff 15 00 00 00
	00		 call	 DWORD PTR __imp_??0?$CStringT@DV?$StrTraitMFC_DLL@DV?$ChTraitsCRT@D@ATL@@@@@ATL@@QAE@PBD@Z
  00632	8d 8b 28 04 00
	00		 lea	 ecx, DWORD PTR [ebx+1064]
  00638	e8 00 00 00 00	 call	 ?FP_vSetToolTipText@CILButton@@QAEXV?$CStringT@DV?$StrTraitMFC_DLL@DV?$ChTraitsCRT@D@ATL@@@@@ATL@@@Z ; CILButton::FP_vSetToolTipText

; 388  : 
; 389  : 	//	
; 390  : 	//m_btScrollNext.FP_vSetImage(m_pIL_W20H20, 68, 70, TRUE, "", FALSE);	
; 391  : 	m_btScrollNext.FP_vSetImage(m_pIL_W20H20, 68, 70, FALSE, "", TRUE);	

  0063d	6a ff		 push	 -1
  0063f	6a ff		 push	 -1
  00641	6a 01		 push	 1
  00643	51		 push	 ecx
  00644	8b cc		 mov	 ecx, esp
  00646	68 00 00 00 00	 push	 OFFSET ??_C@_00CNPNBAHC@@
  0064b	ff 15 00 00 00
	00		 call	 DWORD PTR __imp_??0?$CStringT@DV?$StrTraitMFC_DLL@DV?$ChTraitsCRT@D@ATL@@@@@ATL@@QAE@PBD@Z
  00651	6a 00		 push	 0
  00653	6a 46		 push	 70			; 00000046H
  00655	6a 44		 push	 68			; 00000044H
  00657	ff b3 b8 00 00
	00		 push	 DWORD PTR [ebx+184]
  0065d	8d 8b c8 02 00
	00		 lea	 ecx, DWORD PTR [ebx+712]
  00663	e8 00 00 00 00	 call	 ?FP_vSetImage@CILButton@@QAEXPAVCImageList@@HHHV?$CStringT@DV?$StrTraitMFC_DLL@DV?$ChTraitsCRT@D@ATL@@@@@ATL@@HHH@Z ; CILButton::FP_vSetImage

; 392  : 	m_btScrollNext.FP_vSetToolTipText("");

  00668	51		 push	 ecx
  00669	8b cc		 mov	 ecx, esp
  0066b	68 00 00 00 00	 push	 OFFSET ??_C@_04NMHJGEDF@?$MA?L?H?D@
  00670	ff 15 00 00 00
	00		 call	 DWORD PTR __imp_??0?$CStringT@DV?$StrTraitMFC_DLL@DV?$ChTraitsCRT@D@ATL@@@@@ATL@@QAE@PBD@Z
  00676	8d 8b c8 02 00
	00		 lea	 ecx, DWORD PTR [ebx+712]
  0067c	e8 00 00 00 00	 call	 ?FP_vSetToolTipText@CILButton@@QAEXV?$CStringT@DV?$StrTraitMFC_DLL@DV?$ChTraitsCRT@D@ATL@@@@@ATL@@@Z ; CILButton::FP_vSetToolTipText

; 393  : 
; 394  : 	//	
; 395  : 	m_btExPrev.FP_vSetImage(m_pIL_W20H20, 60, 62);

  00681	6a ff		 push	 -1
  00683	6a ff		 push	 -1
  00685	6a 00		 push	 0
  00687	51		 push	 ecx
  00688	8b cc		 mov	 ecx, esp
  0068a	68 00 00 00 00	 push	 OFFSET ??_C@_00CNPNBAHC@@
  0068f	ff 15 00 00 00
	00		 call	 DWORD PTR __imp_??0?$CStringT@DV?$StrTraitMFC_DLL@DV?$ChTraitsCRT@D@ATL@@@@@ATL@@QAE@PBD@Z
  00695	6a 00		 push	 0
  00697	6a 3e		 push	 62			; 0000003eH
  00699	6a 3c		 push	 60			; 0000003cH
  0069b	ff b3 b8 00 00
	00		 push	 DWORD PTR [ebx+184]
  006a1	8d 8b 08 1c 00
	00		 lea	 ecx, DWORD PTR [ebx+7176]
  006a7	e8 00 00 00 00	 call	 ?FP_vSetImage@CILButton@@QAEXPAVCImageList@@HHHV?$CStringT@DV?$StrTraitMFC_DLL@DV?$ChTraitsCRT@D@ATL@@@@@ATL@@HHH@Z ; CILButton::FP_vSetImage

; 396  : 	m_btExPrev.FP_vSetToolTipText("");

  006ac	51		 push	 ecx
  006ad	8b cc		 mov	 ecx, esp
  006af	68 00 00 00 00	 push	 OFFSET ??_C@_04MFPFIJHG@?$MA?L?$MA?$PM@
  006b4	ff 15 00 00 00
	00		 call	 DWORD PTR __imp_??0?$CStringT@DV?$StrTraitMFC_DLL@DV?$ChTraitsCRT@D@ATL@@@@@ATL@@QAE@PBD@Z
  006ba	8d 8b 08 1c 00
	00		 lea	 ecx, DWORD PTR [ebx+7176]
  006c0	e8 00 00 00 00	 call	 ?FP_vSetToolTipText@CILButton@@QAEXV?$CStringT@DV?$StrTraitMFC_DLL@DV?$ChTraitsCRT@D@ATL@@@@@ATL@@@Z ; CILButton::FP_vSetToolTipText

; 397  : 
; 398  : 	//	
; 399  : 	m_btExNext.FP_vSetImage(m_pIL_W20H20, 56, 58);	

  006c5	6a ff		 push	 -1
  006c7	6a ff		 push	 -1
  006c9	6a 00		 push	 0
  006cb	51		 push	 ecx
  006cc	8b cc		 mov	 ecx, esp
  006ce	68 00 00 00 00	 push	 OFFSET ??_C@_00CNPNBAHC@@
  006d3	ff 15 00 00 00
	00		 call	 DWORD PTR __imp_??0?$CStringT@DV?$StrTraitMFC_DLL@DV?$ChTraitsCRT@D@ATL@@@@@ATL@@QAE@PBD@Z
  006d9	6a 00		 push	 0
  006db	6a 3a		 push	 58			; 0000003aH
  006dd	6a 38		 push	 56			; 00000038H
  006df	ff b3 b8 00 00
	00		 push	 DWORD PTR [ebx+184]
  006e5	8d 8b 68 1d 00
	00		 lea	 ecx, DWORD PTR [ebx+7528]
  006eb	e8 00 00 00 00	 call	 ?FP_vSetImage@CILButton@@QAEXPAVCImageList@@HHHV?$CStringT@DV?$StrTraitMFC_DLL@DV?$ChTraitsCRT@D@ATL@@@@@ATL@@HHH@Z ; CILButton::FP_vSetImage

; 400  : 	m_btExNext.FP_vSetToolTipText("");

  006f0	51		 push	 ecx
  006f1	8b cc		 mov	 ecx, esp
  006f3	68 00 00 00 00	 push	 OFFSET ??_C@_04NMHJGEDF@?$MA?L?H?D@
  006f8	ff 15 00 00 00
	00		 call	 DWORD PTR __imp_??0?$CStringT@DV?$StrTraitMFC_DLL@DV?$ChTraitsCRT@D@ATL@@@@@ATL@@QAE@PBD@Z
  006fe	8d 8b 68 1d 00
	00		 lea	 ecx, DWORD PTR [ebx+7528]
  00704	e8 00 00 00 00	 call	 ?FP_vSetToolTipText@CILButton@@QAEXV?$CStringT@DV?$StrTraitMFC_DLL@DV?$ChTraitsCRT@D@ATL@@@@@ATL@@@Z ; CILButton::FP_vSetToolTipText

; 401  : 
; 402  : 	//  	
; 403  : 	m_chkShowScale.FP_vSetImage(m_pIL_W20H20, 24, 26, FALSE, "", TRUE);

  00709	6a ff		 push	 -1
  0070b	6a ff		 push	 -1
  0070d	6a 01		 push	 1
  0070f	51		 push	 ecx
  00710	8b cc		 mov	 ecx, esp
  00712	68 00 00 00 00	 push	 OFFSET ??_C@_00CNPNBAHC@@
  00717	ff 15 00 00 00
	00		 call	 DWORD PTR __imp_??0?$CStringT@DV?$StrTraitMFC_DLL@DV?$ChTraitsCRT@D@ATL@@@@@ATL@@QAE@PBD@Z
  0071d	6a 00		 push	 0
  0071f	6a 1a		 push	 26			; 0000001aH
  00721	6a 18		 push	 24			; 00000018H
  00723	ff b3 b8 00 00
	00		 push	 DWORD PTR [ebx+184]
  00729	8d 8b 88 21 00
	00		 lea	 ecx, DWORD PTR [ebx+8584]
  0072f	e8 00 00 00 00	 call	 ?FP_vSetImage@CILButton@@QAEXPAVCImageList@@HHHV?$CStringT@DV?$StrTraitMFC_DLL@DV?$ChTraitsCRT@D@ATL@@@@@ATL@@HHH@Z ; CILButton::FP_vSetImage

; 404  : 	m_chkShowScale.FP_vSetToolTipText("");

  00734	51		 push	 ecx
  00735	8b cc		 mov	 ecx, esp
  00737	68 00 00 00 00	 push	 OFFSET ??_C@_0P@NLDHDBFN@?$LN?$LK?D?I?$MA?O?$LK?$LI?$LP?$KJ?A?V?$LB?b@
  0073c	ff 15 00 00 00
	00		 call	 DWORD PTR __imp_??0?$CStringT@DV?$StrTraitMFC_DLL@DV?$ChTraitsCRT@D@ATL@@@@@ATL@@QAE@PBD@Z
  00742	8d 8b 88 21 00
	00		 lea	 ecx, DWORD PTR [ebx+8584]
  00748	e8 00 00 00 00	 call	 ?FP_vSetToolTipText@CILButton@@QAEXV?$CStringT@DV?$StrTraitMFC_DLL@DV?$ChTraitsCRT@D@ATL@@@@@ATL@@@Z ; CILButton::FP_vSetToolTipText

; 405  : 
; 406  : 	//
; 407  : 	m_btSave.FP_vSetImage(m_pIL_W20H20, 4, 6);

  0074d	6a ff		 push	 -1
  0074f	6a ff		 push	 -1
  00751	6a 00		 push	 0
  00753	51		 push	 ecx
  00754	8b cc		 mov	 ecx, esp
  00756	68 00 00 00 00	 push	 OFFSET ??_C@_00CNPNBAHC@@
  0075b	ff 15 00 00 00
	00		 call	 DWORD PTR __imp_??0?$CStringT@DV?$StrTraitMFC_DLL@DV?$ChTraitsCRT@D@ATL@@@@@ATL@@QAE@PBD@Z
  00761	6a 00		 push	 0
  00763	6a 06		 push	 6
  00765	6a 04		 push	 4
  00767	ff b3 b8 00 00
	00		 push	 DWORD PTR [ebx+184]
  0076d	8d 8b 68 28 00
	00		 lea	 ecx, DWORD PTR [ebx+10344]
  00773	e8 00 00 00 00	 call	 ?FP_vSetImage@CILButton@@QAEXPAVCImageList@@HHHV?$CStringT@DV?$StrTraitMFC_DLL@DV?$ChTraitsCRT@D@ATL@@@@@ATL@@HHH@Z ; CILButton::FP_vSetImage

; 408  : 	m_btSave.FP_vSetToolTipText("");

  00778	51		 push	 ecx
  00779	8b cc		 mov	 ecx, esp
  0077b	68 00 00 00 00	 push	 OFFSET ??_C@_08EENKIIBC@?B?w?F?$KO?$MA?z?$MA?e@
  00780	ff 15 00 00 00
	00		 call	 DWORD PTR __imp_??0?$CStringT@DV?$StrTraitMFC_DLL@DV?$ChTraitsCRT@D@ATL@@@@@ATL@@QAE@PBD@Z
  00786	8d 8b 68 28 00
	00		 lea	 ecx, DWORD PTR [ebx+10344]
  0078c	e8 00 00 00 00	 call	 ?FP_vSetToolTipText@CILButton@@QAEXV?$CStringT@DV?$StrTraitMFC_DLL@DV?$ChTraitsCRT@D@ATL@@@@@ATL@@@Z ; CILButton::FP_vSetToolTipText

; 409  : 
; 410  : 	//
; 411  : 	m_btLoad.FP_vSetImage(m_pIL_W20H20, 12, 14);

  00791	6a ff		 push	 -1
  00793	6a ff		 push	 -1
  00795	6a 00		 push	 0
  00797	51		 push	 ecx
  00798	8b cc		 mov	 ecx, esp
  0079a	68 00 00 00 00	 push	 OFFSET ??_C@_00CNPNBAHC@@
  0079f	ff 15 00 00 00
	00		 call	 DWORD PTR __imp_??0?$CStringT@DV?$StrTraitMFC_DLL@DV?$ChTraitsCRT@D@ATL@@@@@ATL@@QAE@PBD@Z
  007a5	6a 00		 push	 0
  007a7	6a 0e		 push	 14			; 0000000eH
  007a9	6a 0c		 push	 12			; 0000000cH
  007ab	ff b3 b8 00 00
	00		 push	 DWORD PTR [ebx+184]
  007b1	8d 8b 08 27 00
	00		 lea	 ecx, DWORD PTR [ebx+9992]
  007b7	e8 00 00 00 00	 call	 ?FP_vSetImage@CILButton@@QAEXPAVCImageList@@HHHV?$CStringT@DV?$StrTraitMFC_DLL@DV?$ChTraitsCRT@D@ATL@@@@@ATL@@HHH@Z ; CILButton::FP_vSetImage

; 412  : 	m_btLoad.FP_vSetToolTipText("");

  007bc	51		 push	 ecx
  007bd	8b cc		 mov	 ecx, esp
  007bf	68 00 00 00 00	 push	 OFFSET ??_C@_0BB@MCEEIGDP@?$MA?z?$MA?e?B?w?F?$KO?$LK?R?$LH?$KP?$LP?$MA?$LB?b@
  007c4	ff 15 00 00 00
	00		 call	 DWORD PTR __imp_??0?$CStringT@DV?$StrTraitMFC_DLL@DV?$ChTraitsCRT@D@ATL@@@@@ATL@@QAE@PBD@Z
  007ca	8d 8b 08 27 00
	00		 lea	 ecx, DWORD PTR [ebx+9992]
  007d0	e8 00 00 00 00	 call	 ?FP_vSetToolTipText@CILButton@@QAEXV?$CStringT@DV?$StrTraitMFC_DLL@DV?$ChTraitsCRT@D@ATL@@@@@ATL@@@Z ; CILButton::FP_vSetToolTipText

; 413  : 
; 414  : 	//	
; 415  : 	m_btPrint.FP_vSetImage(m_pIL_W20H20, 20, 22);

  007d5	6a ff		 push	 -1
  007d7	6a ff		 push	 -1
  007d9	6a 00		 push	 0
  007db	51		 push	 ecx
  007dc	8b cc		 mov	 ecx, esp
  007de	68 00 00 00 00	 push	 OFFSET ??_C@_00CNPNBAHC@@
  007e3	ff 15 00 00 00
	00		 call	 DWORD PTR __imp_??0?$CStringT@DV?$StrTraitMFC_DLL@DV?$ChTraitsCRT@D@ATL@@@@@ATL@@QAE@PBD@Z
  007e9	6a 00		 push	 0
  007eb	6a 16		 push	 22			; 00000016H
  007ed	6a 14		 push	 20			; 00000014H
  007ef	ff b3 b8 00 00
	00		 push	 DWORD PTR [ebx+184]
  007f5	8d 8b a8 25 00
	00		 lea	 ecx, DWORD PTR [ebx+9640]
  007fb	e8 00 00 00 00	 call	 ?FP_vSetImage@CILButton@@QAEXPAVCImageList@@HHHV?$CStringT@DV?$StrTraitMFC_DLL@DV?$ChTraitsCRT@D@ATL@@@@@ATL@@HHH@Z ; CILButton::FP_vSetImage

; 416  : 	m_btPrint.FP_vSetToolTipText("");

  00800	51		 push	 ecx
  00801	8b cc		 mov	 ecx, esp
  00803	68 00 00 00 00	 push	 OFFSET ??_C@_04OGFGOPBG@?$MA?N?$LM?b@
  00808	ff 15 00 00 00
	00		 call	 DWORD PTR __imp_??0?$CStringT@DV?$StrTraitMFC_DLL@DV?$ChTraitsCRT@D@ATL@@@@@ATL@@QAE@PBD@Z
  0080e	8d 8b a8 25 00
	00		 lea	 ecx, DWORD PTR [ebx+9640]
  00814	e8 00 00 00 00	 call	 ?FP_vSetToolTipText@CILButton@@QAEXV?$CStringT@DV?$StrTraitMFC_DLL@DV?$ChTraitsCRT@D@ATL@@@@@ATL@@@Z ; CILButton::FP_vSetToolTipText

; 417  : 
; 418  : 	// 
; 419  : 	m_btnStartDate	.FP_vSetImage(m_pIL_W20H20, 80, 82, TRUE, "", TRUE);	

  00819	6a ff		 push	 -1
  0081b	6a ff		 push	 -1
  0081d	6a 01		 push	 1
  0081f	51		 push	 ecx
  00820	8b cc		 mov	 ecx, esp
  00822	68 00 00 00 00	 push	 OFFSET ??_C@_02MEGIOJNB@?$KC?$LK@
  00827	ff 15 00 00 00
	00		 call	 DWORD PTR __imp_??0?$CStringT@DV?$StrTraitMFC_DLL@DV?$ChTraitsCRT@D@ATL@@@@@ATL@@QAE@PBD@Z
  0082d	6a 01		 push	 1
  0082f	6a 52		 push	 82			; 00000052H
  00831	6a 50		 push	 80			; 00000050H
  00833	ff b3 b8 00 00
	00		 push	 DWORD PTR [ebx+184]
  00839	8d 8b 68 12 00
	00		 lea	 ecx, DWORD PTR [ebx+4712]
  0083f	e8 00 00 00 00	 call	 ?FP_vSetImage@CILButton@@QAEXPAVCImageList@@HHHV?$CStringT@DV?$StrTraitMFC_DLL@DV?$ChTraitsCRT@D@ATL@@@@@ATL@@HHH@Z ; CILButton::FP_vSetImage

; 420  : 	m_btnEndDate	.FP_vSetImage(m_pIL_W20H20, 80, 82, TRUE, "", TRUE);

  00844	6a ff		 push	 -1
  00846	6a ff		 push	 -1
  00848	6a 01		 push	 1
  0084a	51		 push	 ecx
  0084b	8b cc		 mov	 ecx, esp
  0084d	68 00 00 00 00	 push	 OFFSET ??_C@_02PGFOILFD@?$KC?$LI@
  00852	ff 15 00 00 00
	00		 call	 DWORD PTR __imp_??0?$CStringT@DV?$StrTraitMFC_DLL@DV?$ChTraitsCRT@D@ATL@@@@@ATL@@QAE@PBD@Z
  00858	6a 01		 push	 1
  0085a	6a 52		 push	 82			; 00000052H
  0085c	6a 50		 push	 80			; 00000050H
  0085e	ff b3 b8 00 00
	00		 push	 DWORD PTR [ebx+184]
  00864	8d 8b c8 13 00
	00		 lea	 ecx, DWORD PTR [ebx+5064]
  0086a	e8 00 00 00 00	 call	 ?FP_vSetImage@CILButton@@QAEXPAVCImageList@@HHHV?$CStringT@DV?$StrTraitMFC_DLL@DV?$ChTraitsCRT@D@ATL@@@@@ATL@@HHH@Z ; CILButton::FP_vSetImage

; 421  : 
; 422  : 	//  
; 423  : 	m_btnSellScreen.FP_vSetImage(m_pIL_W20H20, 80, 82, TRUE, "");

  0086f	6a ff		 push	 -1
  00871	6a ff		 push	 -1
  00873	6a 00		 push	 0
  00875	51		 push	 ecx
  00876	8b cc		 mov	 ecx, esp
  00878	68 00 00 00 00	 push	 OFFSET ??_C@_02FKJJEAOL@?$LF?$LF@
  0087d	ff 15 00 00 00
	00		 call	 DWORD PTR __imp_??0?$CStringT@DV?$StrTraitMFC_DLL@DV?$ChTraitsCRT@D@ATL@@@@@ATL@@QAE@PBD@Z
  00883	6a 01		 push	 1
  00885	6a 52		 push	 82			; 00000052H
  00887	6a 50		 push	 80			; 00000050H
  00889	ff b3 b8 00 00
	00		 push	 DWORD PTR [ebx+184]
  0088f	8d 8b 08 11 00
	00		 lea	 ecx, DWORD PTR [ebx+4360]
  00895	e8 00 00 00 00	 call	 ?FP_vSetImage@CILButton@@QAEXPAVCImageList@@HHHV?$CStringT@DV?$StrTraitMFC_DLL@DV?$ChTraitsCRT@D@ATL@@@@@ATL@@HHH@Z ; CILButton::FP_vSetImage

; 424  : 	m_btnSellScreen.FP_vSetToolTipText("");

  0089a	51		 push	 ecx
  0089b	8b cc		 mov	 ecx, esp
  0089d	68 00 00 00 00	 push	 OFFSET ??_C@_08MCNDKHIJ@?$LI?E?$LF?$LF?H?$KN?$LI?i@
  008a2	ff 15 00 00 00
	00		 call	 DWORD PTR __imp_??0?$CStringT@DV?$StrTraitMFC_DLL@DV?$ChTraitsCRT@D@ATL@@@@@ATL@@QAE@PBD@Z
  008a8	8d 8b 08 11 00
	00		 lea	 ecx, DWORD PTR [ebx+4360]
  008ae	e8 00 00 00 00	 call	 ?FP_vSetToolTipText@CILButton@@QAEXV?$CStringT@DV?$StrTraitMFC_DLL@DV?$ChTraitsCRT@D@ATL@@@@@ATL@@@Z ; CILButton::FP_vSetToolTipText

; 425  : 
; 426  : 	m_btnBuyScreen.FP_vSetImage(m_pIL_W20H20, 80, 82, TRUE, "");

  008b3	6a ff		 push	 -1
  008b5	6a ff		 push	 -1
  008b7	6a 00		 push	 0
  008b9	51		 push	 ecx
  008ba	8b cc		 mov	 ecx, esp
  008bc	68 00 00 00 00	 push	 OFFSET ??_C@_02IOBMGHKC@?$LM?v@
  008c1	ff 15 00 00 00
	00		 call	 DWORD PTR __imp_??0?$CStringT@DV?$StrTraitMFC_DLL@DV?$ChTraitsCRT@D@ATL@@@@@ATL@@QAE@PBD@Z
  008c7	6a 01		 push	 1
  008c9	6a 52		 push	 82			; 00000052H
  008cb	6a 50		 push	 80			; 00000050H
  008cd	ff b3 b8 00 00
	00		 push	 DWORD PTR [ebx+184]
  008d3	8d 8b a8 0f 00
	00		 lea	 ecx, DWORD PTR [ebx+4008]
  008d9	e8 00 00 00 00	 call	 ?FP_vSetImage@CILButton@@QAEXPAVCImageList@@HHHV?$CStringT@DV?$StrTraitMFC_DLL@DV?$ChTraitsCRT@D@ATL@@@@@ATL@@HHH@Z ; CILButton::FP_vSetImage

; 427  : 	m_btnBuyScreen.FP_vSetToolTipText("");

  008de	51		 push	 ecx
  008df	8b cc		 mov	 ecx, esp
  008e1	68 00 00 00 00	 push	 OFFSET ??_C@_08NOIHJKJI@?$LI?E?$LM?v?H?$KN?$LI?i@
  008e6	ff 15 00 00 00
	00		 call	 DWORD PTR __imp_??0?$CStringT@DV?$StrTraitMFC_DLL@DV?$ChTraitsCRT@D@ATL@@@@@ATL@@QAE@PBD@Z
  008ec	8d 8b a8 0f 00
	00		 lea	 ecx, DWORD PTR [ebx+4008]
  008f2	e8 00 00 00 00	 call	 ?FP_vSetToolTipText@CILButton@@QAEXV?$CStringT@DV?$StrTraitMFC_DLL@DV?$ChTraitsCRT@D@ATL@@@@@ATL@@@Z ; CILButton::FP_vSetToolTipText

; 428  : 
; 429  : 	// Addin   
; 430  : 	m_btAnalysisPattern.FP_vSetImage(m_pIL_W20H20, 80, 82, TRUE,"P")	;	//m_btAnalysisPattern.FP_vSetToolTipText();

  008f7	6a ff		 push	 -1
  008f9	6a ff		 push	 -1
  008fb	6a 00		 push	 0
  008fd	51		 push	 ecx
  008fe	8b cc		 mov	 ecx, esp
  00900	68 00 00 00 00	 push	 OFFSET ??_C@_01EJNLAFE@P@
  00905	ff 15 00 00 00
	00		 call	 DWORD PTR __imp_??0?$CStringT@DV?$StrTraitMFC_DLL@DV?$ChTraitsCRT@D@ATL@@@@@ATL@@QAE@PBD@Z
  0090b	6a 01		 push	 1
  0090d	6a 52		 push	 82			; 00000052H
  0090f	6a 50		 push	 80			; 00000050H
  00911	ff b3 b8 00 00
	00		 push	 DWORD PTR [ebx+184]
  00917	8d 8b a8 1a 00
	00		 lea	 ecx, DWORD PTR [ebx+6824]
  0091d	e8 00 00 00 00	 call	 ?FP_vSetImage@CILButton@@QAEXPAVCImageList@@HHHV?$CStringT@DV?$StrTraitMFC_DLL@DV?$ChTraitsCRT@D@ATL@@@@@ATL@@HHH@Z ; CILButton::FP_vSetImage

; 431  : 	m_btChartGuideLine.FP_vSetImage(m_pIL_W20H20, 80, 82, TRUE,"G")		;	//m_btChartGuideLine.FP_vSetToolTipText();

  00922	6a ff		 push	 -1
  00924	6a ff		 push	 -1
  00926	6a 00		 push	 0
  00928	51		 push	 ecx
  00929	8b cc		 mov	 ecx, esp
  0092b	68 00 00 00 00	 push	 OFFSET ??_C@_01BBODEMC@G@
  00930	ff 15 00 00 00
	00		 call	 DWORD PTR __imp_??0?$CStringT@DV?$StrTraitMFC_DLL@DV?$ChTraitsCRT@D@ATL@@@@@ATL@@QAE@PBD@Z
  00936	6a 01		 push	 1
  00938	6a 52		 push	 82			; 00000052H
  0093a	6a 50		 push	 80			; 00000050H
  0093c	ff b3 b8 00 00
	00		 push	 DWORD PTR [ebx+184]
  00942	8d 8b 48 19 00
	00		 lea	 ecx, DWORD PTR [ebx+6472]
  00948	e8 00 00 00 00	 call	 ?FP_vSetImage@CILButton@@QAEXPAVCImageList@@HHHV?$CStringT@DV?$StrTraitMFC_DLL@DV?$ChTraitsCRT@D@ATL@@@@@ATL@@HHH@Z ; CILButton::FP_vSetImage

; 432  : 	m_btHist.FP_vSetImage(m_pIL_W20H20, 80, 82, TRUE,"C")				;	//m_btHist.FP_vSetToolTipText();

  0094d	6a ff		 push	 -1
  0094f	6a ff		 push	 -1
  00951	6a 00		 push	 0
  00953	51		 push	 ecx
  00954	8b cc		 mov	 ecx, esp
  00956	68 00 00 00 00	 push	 OFFSET ??_C@_01GFHCPBMG@C@
  0095b	ff 15 00 00 00
	00		 call	 DWORD PTR __imp_??0?$CStringT@DV?$StrTraitMFC_DLL@DV?$ChTraitsCRT@D@ATL@@@@@ATL@@QAE@PBD@Z
  00961	6a 01		 push	 1
  00963	6a 52		 push	 82			; 00000052H
  00965	6a 50		 push	 80			; 00000050H
  00967	ff b3 b8 00 00
	00		 push	 DWORD PTR [ebx+184]
  0096d	8d 8b e8 17 00
	00		 lea	 ecx, DWORD PTR [ebx+6120]
  00973	e8 00 00 00 00	 call	 ?FP_vSetImage@CILButton@@QAEXPAVCImageList@@HHHV?$CStringT@DV?$StrTraitMFC_DLL@DV?$ChTraitsCRT@D@ATL@@@@@ATL@@HHH@Z ; CILButton::FP_vSetImage

; 433  : 	m_btST.FP_vSetImage(m_pIL_W20H20, 80, 82, TRUE,"S")					;	//m_btST.FP_vSetToolTipText();

  00978	6a ff		 push	 -1
  0097a	6a ff		 push	 -1
  0097c	6a 00		 push	 0
  0097e	51		 push	 ecx
  0097f	8b cc		 mov	 ecx, esp
  00981	68 00 00 00 00	 push	 OFFSET ??_C@_01CPLAODJH@S@
  00986	ff 15 00 00 00
	00		 call	 DWORD PTR __imp_??0?$CStringT@DV?$StrTraitMFC_DLL@DV?$ChTraitsCRT@D@ATL@@@@@ATL@@QAE@PBD@Z
  0098c	6a 01		 push	 1
  0098e	6a 52		 push	 82			; 00000052H
  00990	6a 50		 push	 80			; 00000050H
  00992	ff b3 b8 00 00
	00		 push	 DWORD PTR [ebx+184]
  00998	8d 8b 88 16 00
	00		 lea	 ecx, DWORD PTR [ebx+5768]
  0099e	e8 00 00 00 00	 call	 ?FP_vSetImage@CILButton@@QAEXPAVCImageList@@HHHV?$CStringT@DV?$StrTraitMFC_DLL@DV?$ChTraitsCRT@D@ATL@@@@@ATL@@HHH@Z ; CILButton::FP_vSetImage

; 434  : 
; 435  : 	//
; 436  : 	//m_btInitial.FP_vSetImage(m_pIL_W20H20, 84, 86);
; 437  : 	//m_btInitial.FP_vSetImage(m_pIL_W46H20, 28, 30);
; 438  : 	//m_btInitial.FP_vSetToolTipText("");
; 439  : 
; 440  : 
; 441  : 	//	m_MatrixSelecter.Create(CMatrixSelecterDlg::IDD,NULL);
; 442  : 	//	m_MatrixSelecter.SetpFrameDlg(this);
; 443  : 	//	m_MatrixSelecter.SetBesideWnd(&m_btShowMatrix);
; 444  : 	//	m_MatrixSelecter.SetMatrix(4,3);
; 445  : 
; 446  : 	SetExt(0);

  009a3	6a 00		 push	 0
  009a5	8b cb		 mov	 ecx, ebx
  009a7	e8 00 00 00 00	 call	 ?SetExt@CExtInputBarDlg@@AAEXH@Z ; CExtInputBarDlg::SetExt
; File C:\Program Files (x86)\Microsoft Visual Studio\2019\Community\VC\Tools\MSVC\14.29.30133\atlmfc\include\afxwin2.inl

; 213  : 	{ ASSERT(::IsWindow(m_hWnd)); return CWnd::FromHandle(::GetParent(m_hWnd)); }

  009ac	ff 73 20	 push	 DWORD PTR [ebx+32]
  009af	ff d6		 call	 esi
  009b1	50		 push	 eax
  009b2	e8 00 00 00 00	 call	 ?FromHandle@CWnd@@SGPAV1@PAUHWND__@@@Z ; CWnd::FromHandle
; File D:\git\src\IBK\IBK_DRFN\ProjSrc\SrcDrfn\Chart\MULTICHART\ExtInputBarDlg.cpp

; 509  : 			CString strCfgFile = ((CStdDialog*)GetParent())->m_strConfig;

  009b7	05 a8 07 00 00	 add	 eax, 1960		; 000007a8H
  009bc	8d 4d 98	 lea	 ecx, DWORD PTR _strCfgFile$2[ebp]
  009bf	50		 push	 eax
  009c0	ff 15 00 00 00
	00		 call	 DWORD PTR __imp_??0?$CStringT@DV?$StrTraitMFC_DLL@DV?$ChTraitsCRT@D@ATL@@@@@ATL@@QAE@ABV01@@Z

; 510  : 			::GetPrivateProfileString("ExtInputBar","Saved","1",szTemp,sizeof(szTemp),strCfgFile);

  009c6	ff 75 98	 push	 DWORD PTR _strCfgFile$2[ebp]
  009c9	8b 35 00 00 00
	00		 mov	 esi, DWORD PTR __imp__GetPrivateProfileStringA@24
  009cf	8d 45 b0	 lea	 eax, DWORD PTR _szTemp$[ebp]
  009d2	6a 40		 push	 64			; 00000040H
  009d4	50		 push	 eax
  009d5	68 00 00 00 00	 push	 OFFSET ??_C@_01HIHLOKLC@1@
  009da	68 00 00 00 00	 push	 OFFSET ??_C@_05GBKMCCNA@Saved@
  009df	68 00 00 00 00	 push	 OFFSET ??_C@_0M@POCNEIHC@ExtInputBar@
  009e4	ff d6		 call	 esi

; 511  : 			if(szTemp[0]=='1')

  009e6	80 7d b0 31	 cmp	 BYTE PTR _szTemp$[ebp], 49 ; 00000031H
  009ea	8b 83 48 0f 00
	00		 mov	 eax, DWORD PTR [ebx+3912]
  009f0	6a 00		 push	 0
  009f2	75 0e		 jne	 SHORT $LN9@OnInitDial

; 512  : 			{
; 513  : 				m_nSave = SAVE_TRUE;

  009f4	c7 83 08 33 00
	00 01 00 00 00	 mov	 DWORD PTR [ebx+13064], 1
; File C:\Program Files (x86)\Microsoft Visual Studio\2019\Community\VC\Tools\MSVC\14.29.30133\atlmfc\include\afxwin2.inl

; 630  : 	{ ASSERT(::IsWindow(m_hWnd)); ::SendMessage(m_hWnd, BM_SETCHECK, nCheck, 0); }

  009fe	6a 01		 push	 1
; File D:\git\src\IBK\IBK_DRFN\ProjSrc\SrcDrfn\Chart\MULTICHART\ExtInputBarDlg.cpp

; 515  : 			}

  00a00	eb 0c		 jmp	 SHORT $LN180@OnInitDial
$LN9@OnInitDial:

; 516  : 			else
; 517  : 			{
; 518  : 				m_nSave = SAVE_FALSE;

  00a02	c7 83 08 33 00
	00 02 00 00 00	 mov	 DWORD PTR [ebx+13064], 2
; File C:\Program Files (x86)\Microsoft Visual Studio\2019\Community\VC\Tools\MSVC\14.29.30133\atlmfc\include\afxwin2.inl

; 630  : 	{ ASSERT(::IsWindow(m_hWnd)); ::SendMessage(m_hWnd, BM_SETCHECK, nCheck, 0); }

  00a0c	6a 00		 push	 0
$LN180@OnInitDial:
; File D:\git\src\IBK\IBK_DRFN\ProjSrc\SrcDrfn\Chart\MULTICHART\ExtInputBarDlg.cpp

; 521  : 		}

  00a0e	68 f1 00 00 00	 push	 241			; 000000f1H
  00a13	50		 push	 eax
  00a14	ff d7		 call	 edi
  00a16	8d 4d 98	 lea	 ecx, DWORD PTR _strCfgFile$2[ebp]
  00a19	ff 15 00 00 00
	00		 call	 DWORD PTR __imp_??1?$CStringT@DV?$StrTraitMFC_DLL@DV?$ChTraitsCRT@D@ATL@@@@@ATL@@QAE@XZ

; 522  : 	}
; 523  : 	else
; 524  : 	{
; 525  : 		m_nSave = SAVE_DISABLE;
; 526  : 	}
; 527  : 
; 528  : 	/*	::GetPrivateProfileString("ExtInputBar","TimeShareUseage","1",szTemp,sizeof(szTemp),m_strCfgFile);
; 529  : 	if(szTemp[0]=='1')
; 530  : 	{
; 531  : 	m_bTimeShareUseage = TRUE;
; 532  : 	}
; 533  : 	else
; 534  : 	{
; 535  : 	m_bTimeShareUseage = FALSE;
; 536  : 	}
; 537  : 	*/	
; 538  : 	//	::GetPrivateProfileString("ExtInputBar","UpperLowPriceMarkUseage","1",szTemp,sizeof(szTemp),m_strCfgFile);
; 539  : 	//	if(szTemp[0]=='1')
; 540  : 	//	{
; 541  : 	//		m_bUpperLowPriceMarkUseage = TRUE;
; 542  : 	//	}
; 543  : 	//	else
; 544  : 	//	{
; 545  : 	//		m_bUpperLowPriceMarkUseage = FALSE;
; 546  : 	//	}
; 547  : 
; 548  : 	/*	::GetPrivateProfileString("ExtInputBar","ShowLock","1",szTemp,sizeof(szTemp),m_strCfgFile);
; 549  : 	if(szTemp[0]=='1')
; 550  : 	{
; 551  : 	if(m_pChartMng->GetSafeHwnd())
; 552  : 	m_pChartMng->SendMessage(UMSG_SETSHOWLOCK,m_bRevised);
; 553  : 	m_bShowLock = TRUE;
; 554  : 	}
; 555  : 	else
; 556  : 	{
; 557  : 	m_bShowLock = FALSE;
; 558  : 	}
; 559  : 	*/
; 560  : 	//	::GetPrivateProfileString("CHART","NMTR","0",szTemp,sizeof(szTemp),((CStdDialog*)GetParent())->m_strConfigOfMain);
; 561  : 	//	if(szTemp[0]=='1')
; 562  : 	//	{
; 563  : 	//		m_bUseNormalizedMinuteTimeRule = TRUE;
; 564  : 	//	}
; 565  : 	//	else
; 566  : 	//	{
; 567  : 	//		m_bUseNormalizedMinuteTimeRule = FALSE;
; 568  : 	//	}	
; 569  : 
; 570  : 	CString strCfgFile = m_pStdDialog->m_strConfig;//CString strCfgFile = ((CStdDialog*)GetParent())->m_strConfig;

  00a1f	8b 83 a8 00 00
	00		 mov	 eax, DWORD PTR [ebx+168]
  00a25	8d 4d 94	 lea	 ecx, DWORD PTR _strCfgFile$[ebp]
  00a28	05 a8 07 00 00	 add	 eax, 1960		; 000007a8H
  00a2d	50		 push	 eax
  00a2e	ff 15 00 00 00
	00		 call	 DWORD PTR __imp_??0?$CStringT@DV?$StrTraitMFC_DLL@DV?$ChTraitsCRT@D@ATL@@@@@ATL@@QAE@ABV01@@Z

; 571  : 
; 572  : 	if(m_bUseNormalizedMinuteTimeRule)

  00a34	83 bb 10 33 00
	00 00		 cmp	 DWORD PTR [ebx+13072], 0
  00a3b	c6 45 fc 05	 mov	 BYTE PTR __$EHRec$[ebp+8], 5
  00a3f	74 29		 je	 SHORT $LN12@OnInitDial

; 573  : 	{
; 574  : 		::GetPrivateProfileString("ExtInputBar","NormalizedMinuteTimeRule","0",szTemp,sizeof(szTemp), strCfgFile);

  00a41	ff 75 94	 push	 DWORD PTR _strCfgFile$[ebp]
  00a44	8d 45 b0	 lea	 eax, DWORD PTR _szTemp$[ebp]
  00a47	6a 40		 push	 64			; 00000040H
  00a49	50		 push	 eax
  00a4a	68 00 00 00 00	 push	 OFFSET ??_C@_01GBGANLPD@0@
  00a4f	68 00 00 00 00	 push	 OFFSET ??_C@_0BJ@LOFKHOGA@NormalizedMinuteTimeRule@
  00a54	68 00 00 00 00	 push	 OFFSET ??_C@_0M@POCNEIHC@ExtInputBar@
  00a59	ff d6		 call	 esi

; 575  : 		if(szTemp[0]=='1')

  00a5b	33 c0		 xor	 eax, eax
  00a5d	80 7d b0 31	 cmp	 BYTE PTR _szTemp$[ebp], 49 ; 00000031H
  00a61	0f 94 c0	 sete	 al
  00a64	89 83 0c 33 00
	00		 mov	 DWORD PTR [ebx+13068], eax
$LN12@OnInitDial:

; 576  : 		{
; 577  : 			m_bNormalizedMinuteTimeRule = TRUE;
; 578  : 		}
; 579  : 		else
; 580  : 		{
; 581  : 			m_bNormalizedMinuteTimeRule = FALSE;
; 582  : 		}
; 583  : 	}
; 584  : 
; 585  : 	::GetPrivateProfileString("ExtInputBar","DragModeType","0",szTemp,sizeof(szTemp),strCfgFile);

  00a6a	ff 75 94	 push	 DWORD PTR _strCfgFile$[ebp]
  00a6d	8d 45 b0	 lea	 eax, DWORD PTR _szTemp$[ebp]
  00a70	6a 40		 push	 64			; 00000040H
  00a72	50		 push	 eax
  00a73	68 00 00 00 00	 push	 OFFSET ??_C@_01GBGANLPD@0@
  00a78	68 00 00 00 00	 push	 OFFSET ??_C@_0N@HBKGNKCN@DragModeType@
  00a7d	68 00 00 00 00	 push	 OFFSET ??_C@_0M@POCNEIHC@ExtInputBar@
  00a82	ff d6		 call	 esi

; 586  : 	m_nDragModeType = atol(szTemp);

  00a84	8b 35 00 00 00
	00		 mov	 esi, DWORD PTR __imp__atol
  00a8a	8d 45 b0	 lea	 eax, DWORD PTR _szTemp$[ebp]
  00a8d	50		 push	 eax
  00a8e	ff d6		 call	 esi

; 587  : 
; 588  : //>> [0811]
; 589  : 	::GetPrivateProfileString("ExtInputBar","CrossLine","1",szTemp,sizeof(szTemp),strCfgFile);

  00a90	8b 3d 00 00 00
	00		 mov	 edi, DWORD PTR __imp__GetPrivateProfileStringA@24
  00a96	83 c4 04	 add	 esp, 4
  00a99	89 83 18 33 00
	00		 mov	 DWORD PTR [ebx+13080], eax
  00a9f	8d 45 b0	 lea	 eax, DWORD PTR _szTemp$[ebp]
  00aa2	ff 75 94	 push	 DWORD PTR _strCfgFile$[ebp]
  00aa5	6a 40		 push	 64			; 00000040H
  00aa7	50		 push	 eax
  00aa8	68 00 00 00 00	 push	 OFFSET ??_C@_01HIHLOKLC@1@
  00aad	68 00 00 00 00	 push	 OFFSET ??_C@_09GPLOLDLO@CrossLine@
  00ab2	68 00 00 00 00	 push	 OFFSET ??_C@_0M@POCNEIHC@ExtInputBar@
  00ab7	ff d7		 call	 edi

; 590  : //<< [0811]
; 591  : 	m_bChkCrossLine = atol(szTemp);

  00ab9	8d 45 b0	 lea	 eax, DWORD PTR _szTemp$[ebp]
  00abc	50		 push	 eax
  00abd	ff d6		 call	 esi
  00abf	83 c4 04	 add	 esp, 4
  00ac2	89 83 24 33 00
	00		 mov	 DWORD PTR [ebx+13092], eax

; 592  : 
; 593  : 	::GetPrivateProfileString("ExtInputBar","SaveJipyoOneFile","0",szTemp,sizeof(szTemp),strCfgFile);

  00ac8	8d 45 b0	 lea	 eax, DWORD PTR _szTemp$[ebp]
  00acb	ff 75 94	 push	 DWORD PTR _strCfgFile$[ebp]
  00ace	6a 40		 push	 64			; 00000040H
  00ad0	50		 push	 eax
  00ad1	68 00 00 00 00	 push	 OFFSET ??_C@_01GBGANLPD@0@
  00ad6	68 00 00 00 00	 push	 OFFSET ??_C@_0BB@GKDGIIFF@SaveJipyoOneFile@
  00adb	68 00 00 00 00	 push	 OFFSET ??_C@_0M@POCNEIHC@ExtInputBar@
  00ae0	ff d7		 call	 edi

; 594  : 	if(szTemp[0]=='1')

  00ae2	33 c0		 xor	 eax, eax
  00ae4	80 7d b0 31	 cmp	 BYTE PTR _szTemp$[ebp], 49 ; 00000031H
  00ae8	0f 94 c0	 sete	 al

; 595  : 	{
; 596  : 		m_bChkSaveJipyoOneFile = TRUE;
; 597  : 	}
; 598  : 	else
; 599  : 	{
; 600  : 		m_bChkSaveJipyoOneFile = FALSE;
; 601  : 	}
; 602  : 
; 603  : /*
; 604  : 	::GetPrivateProfileString("ExtInputBar","RegGwansimUp","0",szTemp,sizeof(szTemp),strCfgFile);
; 605  : 	if(szTemp[0]=='1')
; 606  : 	{
; 607  : 		m_bChkRegGwansimUp = TRUE;
; 608  : 	}
; 609  : 	else
; 610  : 	{
; 611  : 		m_bChkRegGwansimUp = FALSE;
; 612  : 	}
; 613  : */
; 614  : 
; 615  : 	//    - ojtaso (20080723)
; 616  : 	//  .
; 617  : 	//::GetPrivateProfileString("ExtInputBar","AnalToolSave","1",szTemp,sizeof(szTemp),strCfgFile);
; 618  : 	::GetPrivateProfileString("ExtInputBar","AnalToolSave","0",szTemp,sizeof(szTemp),strCfgFile);

  00aeb	89 83 20 33 00
	00		 mov	 DWORD PTR [ebx+13088], eax
  00af1	8d 45 b0	 lea	 eax, DWORD PTR _szTemp$[ebp]
  00af4	ff 75 94	 push	 DWORD PTR _strCfgFile$[ebp]
  00af7	6a 40		 push	 64			; 00000040H
  00af9	50		 push	 eax
  00afa	68 00 00 00 00	 push	 OFFSET ??_C@_01GBGANLPD@0@
  00aff	68 00 00 00 00	 push	 OFFSET ??_C@_0N@JLBABMHO@AnalToolSave@
  00b04	68 00 00 00 00	 push	 OFFSET ??_C@_0M@POCNEIHC@ExtInputBar@
  00b09	ff d7		 call	 edi

; 619  : 	if(szTemp[0]=='1')

  00b0b	33 c0		 xor	 eax, eax
  00b0d	80 7d b0 31	 cmp	 BYTE PTR _szTemp$[ebp], 49 ; 00000031H
  00b11	0f 94 c0	 sete	 al
; File C:\Program Files (x86)\Microsoft Visual Studio\2019\Community\VC\Tools\MSVC\14.29.30133\atlmfc\include\atlsimpstr.h

; 377  : 		return( m_pszData );

  00b14	89 83 14 33 00
	00		 mov	 DWORD PTR [ebx+13076], eax
; File D:\git\src\IBK\IBK_DRFN\ProjSrc\SrcDrfn\Chart\MULTICHART\ExtInputBarDlg.cpp

; 630  : 	BOOL bSaveJipyoPerCodePeriod = ::GetPrivateProfileInt("ExtInputBar","SaveJipyoPerCodePeriod", 1, strCfgFile);

  00b1a	ff 75 94	 push	 DWORD PTR _strCfgFile$[ebp]
  00b1d	6a 01		 push	 1
  00b1f	68 00 00 00 00	 push	 OFFSET ??_C@_0BH@NJOBJIAN@SaveJipyoPerCodePeriod@
  00b24	68 00 00 00 00	 push	 OFFSET ??_C@_0M@POCNEIHC@ExtInputBar@
  00b29	ff 15 00 00 00
	00		 call	 DWORD PTR __imp__GetPrivateProfileIntA@16
; File C:\Program Files (x86)\Microsoft Visual Studio\2019\Community\VC\Tools\MSVC\14.29.30133\atlmfc\include\afxwin2.inl

; 213  : 	{ ASSERT(::IsWindow(m_hWnd)); return CWnd::FromHandle(::GetParent(m_hWnd)); }

  00b2f	ff 73 20	 push	 DWORD PTR [ebx+32]
; File D:\git\src\IBK\IBK_DRFN\ProjSrc\SrcDrfn\Chart\MULTICHART\ExtInputBarDlg.cpp

; 630  : 	BOOL bSaveJipyoPerCodePeriod = ::GetPrivateProfileInt("ExtInputBar","SaveJipyoPerCodePeriod", 1, strCfgFile);

  00b32	8b f8		 mov	 edi, eax
; File C:\Program Files (x86)\Microsoft Visual Studio\2019\Community\VC\Tools\MSVC\14.29.30133\atlmfc\include\afxwin2.inl

; 213  : 	{ ASSERT(::IsWindow(m_hWnd)); return CWnd::FromHandle(::GetParent(m_hWnd)); }

  00b34	ff 55 90	 call	 DWORD PTR tv2424[ebp]
  00b37	50		 push	 eax
  00b38	e8 00 00 00 00	 call	 ?FromHandle@CWnd@@SGPAV1@PAUHWND__@@@Z ; CWnd::FromHandle
; File D:\git\src\IBK\IBK_DRFN\ProjSrc\SrcDrfn\Chart\MULTICHART\ExtInputBarDlg.cpp

; 631  : 	if ("7111" == ((CStdDialog*)GetParent())->GetScreenNo())	bSaveJipyoPerCodePeriod = FALSE;

  00b3d	8d 4d 9c	 lea	 ecx, DWORD PTR $T3[ebp]
  00b40	51		 push	 ecx
  00b41	8b c8		 mov	 ecx, eax
  00b43	e8 00 00 00 00	 call	 ?GetScreenNo@CStdDialog@@QAE?AV?$CStringT@DV?$StrTraitMFC_DLL@DV?$ChTraitsCRT@D@ATL@@@@@ATL@@XZ ; CStdDialog::GetScreenNo
; File C:\Program Files (x86)\Microsoft Visual Studio\2019\Community\VC\Tools\MSVC\14.29.30133\atlmfc\include\cstringt.h

; 2493 : 		return(str2.Compare(psz1) == 0);

  00b48	68 00 00 00 00	 push	 OFFSET ??_C@_04IBLPHLKF@7111@
  00b4d	8b c8		 mov	 ecx, eax
; File D:\git\src\IBK\IBK_DRFN\ProjSrc\SrcDrfn\Chart\MULTICHART\ExtInputBarDlg.cpp

; 631  : 	if ("7111" == ((CStdDialog*)GetParent())->GetScreenNo())	bSaveJipyoPerCodePeriod = FALSE;

  00b4f	c6 45 fc 06	 mov	 BYTE PTR __$EHRec$[ebp+8], 6
; File C:\Program Files (x86)\Microsoft Visual Studio\2019\Community\VC\Tools\MSVC\14.29.30133\atlmfc\include\cstringt.h

; 2493 : 		return(str2.Compare(psz1) == 0);

  00b53	ff 15 00 00 00
	00		 call	 DWORD PTR __imp_?Compare@?$CStringT@DV?$StrTraitMFC_DLL@DV?$ChTraitsCRT@D@ATL@@@@@ATL@@QBEHPBD@Z
; File D:\git\src\IBK\IBK_DRFN\ProjSrc\SrcDrfn\Chart\MULTICHART\ExtInputBarDlg.cpp

; 631  : 	if ("7111" == ((CStdDialog*)GetParent())->GetScreenNo())	bSaveJipyoPerCodePeriod = FALSE;

  00b59	8d 4d 9c	 lea	 ecx, DWORD PTR $T3[ebp]
  00b5c	c6 45 fc 05	 mov	 BYTE PTR __$EHRec$[ebp+8], 5
; File C:\Program Files (x86)\Microsoft Visual Studio\2019\Community\VC\Tools\MSVC\14.29.30133\atlmfc\include\cstringt.h

; 2493 : 		return(str2.Compare(psz1) == 0);

  00b60	8b f0		 mov	 esi, eax
; File D:\git\src\IBK\IBK_DRFN\ProjSrc\SrcDrfn\Chart\MULTICHART\ExtInputBarDlg.cpp

; 631  : 	if ("7111" == ((CStdDialog*)GetParent())->GetScreenNo())	bSaveJipyoPerCodePeriod = FALSE;

  00b62	ff 15 00 00 00
	00		 call	 DWORD PTR __imp_??1?$CStringT@DV?$StrTraitMFC_DLL@DV?$ChTraitsCRT@D@ATL@@@@@ATL@@QAE@XZ
  00b68	33 c0		 xor	 eax, eax
  00b6a	85 f6		 test	 esi, esi
  00b6c	0f 44 f8	 cmove	 edi, eax

; 633  : 	::SetCommonDataInfo(GetSafeHwnd(), COMDATA_SAVE_JIPYO_PER_CODE_PERIOD, bSaveJipyoPerCodePeriod);

  00b6f	57		 push	 edi
  00b70	50		 push	 eax
  00b71	ff 73 20	 push	 DWORD PTR [ebx+32]
  00b74	e8 00 00 00 00	 call	 ?SetCommonDataInfo@@YAHPAUHWND__@@HH@Z ; SetCommonDataInfo
; File C:\Program Files (x86)\Microsoft Visual Studio\2019\Community\VC\Tools\MSVC\14.29.30133\atlmfc\include\afxwin2.inl

; 215  : 	{ ASSERT(::IsWindow(m_hWnd)); return CWnd::FromHandle(::SetParent(m_hWnd,

  00b79	8b 3d 00 00 00
	00		 mov	 edi, DWORD PTR __imp__SetParent@8
; File D:\git\src\IBK\IBK_DRFN\ProjSrc\SrcDrfn\Chart\MULTICHART\ExtInputBarDlg.cpp

; 633  : 	::SetCommonDataInfo(GetSafeHwnd(), COMDATA_SAVE_JIPYO_PER_CODE_PERIOD, bSaveJipyoPerCodePeriod);

  00b7f	83 c4 0c	 add	 esp, 12			; 0000000cH
; File C:\Program Files (x86)\Microsoft Visual Studio\2019\Community\VC\Tools\MSVC\14.29.30133\atlmfc\include\afxwin2.inl

; 215  : 	{ ASSERT(::IsWindow(m_hWnd)); return CWnd::FromHandle(::SetParent(m_hWnd,

  00b82	ff 73 20	 push	 DWORD PTR [ebx+32]
  00b85	ff b3 00 01 00
	00		 push	 DWORD PTR [ebx+256]
  00b8b	ff d7		 call	 edi
  00b8d	50		 push	 eax
  00b8e	e8 00 00 00 00	 call	 ?FromHandle@CWnd@@SGPAV1@PAUHWND__@@@Z ; CWnd::FromHandle
  00b93	0f 57 c0	 xorps	 xmm0, xmm0
; File D:\git\src\IBK\IBK_DRFN\ProjSrc\SrcDrfn\Chart\MULTICHART\ExtInputBarDlg.cpp

; 641  : 	GetDlgItem(IDC_DATETIMEPICKER1)->GetWindowRect(rectComp);

  00b96	8b cb		 mov	 ecx, ebx
  00b98	68 26 18 00 00	 push	 6182			; 00001826H
; File C:\Program Files (x86)\Microsoft Visual Studio\2019\Community\VC\Tools\MSVC\14.29.30133\atlmfc\include\atltypes.h

; 528  : 	left = 0;

  00b9d	0f 11 45 a0	 movups	 XMMWORD PTR _rectComp$[ebp], xmm0
; File D:\git\src\IBK\IBK_DRFN\ProjSrc\SrcDrfn\Chart\MULTICHART\ExtInputBarDlg.cpp

; 641  : 	GetDlgItem(IDC_DATETIMEPICKER1)->GetWindowRect(rectComp);

  00ba1	e8 00 00 00 00	 call	 ?GetDlgItem@CWnd@@QBEPAV1@H@Z ; CWnd::GetDlgItem
; File C:\Program Files (x86)\Microsoft Visual Studio\2019\Community\VC\Tools\MSVC\14.29.30133\atlmfc\include\afxwin2.inl

; 84   : 	{ ASSERT(::IsWindow(m_hWnd)); ::GetWindowRect(m_hWnd, lpRect); }

  00ba6	8d 4d a0	 lea	 ecx, DWORD PTR _rectComp$[ebp]
  00ba9	51		 push	 ecx
  00baa	ff 70 20	 push	 DWORD PTR [eax+32]
  00bad	ff 15 00 00 00
	00		 call	 DWORD PTR __imp__GetWindowRect@8
; File D:\git\src\IBK\IBK_DRFN\ProjSrc\SrcDrfn\Chart\MULTICHART\ExtInputBarDlg.cpp

; 642  : 	ScreenToClient(rectComp);

  00bb3	8d 45 a0	 lea	 eax, DWORD PTR _rectComp$[ebp]
  00bb6	8b cb		 mov	 ecx, ebx
  00bb8	50		 push	 eax
  00bb9	e8 00 00 00 00	 call	 ?ScreenToClient@CWnd@@QBEXPAUtagRECT@@@Z ; CWnd::ScreenToClient
; File C:\Program Files (x86)\Microsoft Visual Studio\2019\Community\VC\Tools\MSVC\14.29.30133\atlmfc\include\atltypes.h

; 576  : 	return right - left;

  00bbe	8b 4d a0	 mov	 ecx, DWORD PTR _rectComp$[ebp]
  00bc1	8b 45 a8	 mov	 eax, DWORD PTR _rectComp$[ebp+8]
; File D:\git\src\IBK\IBK_DRFN\ProjSrc\SrcDrfn\Chart\MULTICHART\ExtInputBarDlg.cpp

; 643  : 	m_datePicker.SetWindowPos(NULL, rectComp.left, rectComp.top, rectComp.Width(), 19, SWP_NOZORDER);

  00bc4	6a 04		 push	 4
  00bc6	6a 13		 push	 19			; 00000013H
; File C:\Program Files (x86)\Microsoft Visual Studio\2019\Community\VC\Tools\MSVC\14.29.30133\atlmfc\include\atltypes.h

; 576  : 	return right - left;

  00bc8	2b c1		 sub	 eax, ecx
; File D:\git\src\IBK\IBK_DRFN\ProjSrc\SrcDrfn\Chart\MULTICHART\ExtInputBarDlg.cpp

; 643  : 	m_datePicker.SetWindowPos(NULL, rectComp.left, rectComp.top, rectComp.Width(), 19, SWP_NOZORDER);

  00bca	50		 push	 eax
  00bcb	ff 75 a4	 push	 DWORD PTR _rectComp$[ebp+4]
  00bce	51		 push	 ecx
  00bcf	6a 00		 push	 0
  00bd1	8d 8b e0 00 00
	00		 lea	 ecx, DWORD PTR [ebx+224]
  00bd7	e8 00 00 00 00	 call	 ?SetWindowPos@CWnd@@QAEHPBV1@HHHHI@Z ; CWnd::SetWindowPos
; File C:\Program Files (x86)\Microsoft Visual Studio\2019\Community\VC\Tools\MSVC\14.29.30133\atlmfc\include\afxwin2.inl

; 795  : 	{ ASSERT(::IsWindow(m_hWnd)); return (int)::SendMessage(m_hWnd, CB_ADDSTRING, 0, (LPARAM)lpszString); }

  00bdc	8b 75 8c	 mov	 esi, DWORD PTR tv2423[ebp]
  00bdf	68 00 00 00 00	 push	 OFFSET ??_C@_04GPJMGCIE@X?5?51@
  00be4	6a 00		 push	 0
  00be6	68 43 01 00 00	 push	 323			; 00000143H
  00beb	ff b3 f0 30 00
	00		 push	 DWORD PTR [ebx+12528]
  00bf1	ff d6		 call	 esi
  00bf3	68 00 00 00 00	 push	 OFFSET ??_C@_04EELBDBEH@X?5?52@
  00bf8	6a 00		 push	 0
  00bfa	68 43 01 00 00	 push	 323			; 00000143H
  00bff	ff b3 f0 30 00
	00		 push	 DWORD PTR [ebx+12528]
  00c05	ff d6		 call	 esi
  00c07	68 00 00 00 00	 push	 OFFSET ??_C@_04BCOLJGMB@X?5?54@
  00c0c	6a 00		 push	 0
  00c0e	68 43 01 00 00	 push	 323			; 00000143H
  00c13	ff b3 f0 30 00
	00		 push	 DWORD PTR [ebx+12528]
  00c19	ff d6		 call	 esi
  00c1b	68 00 00 00 00	 push	 OFFSET ??_C@_04LOFONJMN@X?5?58@
  00c20	6a 00		 push	 0
  00c22	68 43 01 00 00	 push	 323			; 00000143H
  00c27	ff b3 f0 30 00
	00		 push	 DWORD PTR [ebx+12528]
  00c2d	ff d6		 call	 esi

; 767  : 	{ ASSERT(::IsWindow(m_hWnd)); return (int)::SendMessage(m_hWnd, CB_SETCURSEL, nSelect, 0); }

  00c2f	6a 00		 push	 0
  00c31	6a 00		 push	 0
  00c33	68 4e 01 00 00	 push	 334			; 0000014eH
  00c38	ff b3 f0 30 00
	00		 push	 DWORD PTR [ebx+12528]
  00c3e	ff d6		 call	 esi

; 213  : 	{ ASSERT(::IsWindow(m_hWnd)); return CWnd::FromHandle(::GetParent(m_hWnd)); }

  00c40	ff 73 20	 push	 DWORD PTR [ebx+32]
  00c43	ff 55 90	 call	 DWORD PTR tv2424[ebp]
  00c46	50		 push	 eax
  00c47	e8 00 00 00 00	 call	 ?FromHandle@CWnd@@SGPAV1@PAUHWND__@@@Z ; CWnd::FromHandle
  00c4c	ff 70 20	 push	 DWORD PTR [eax+32]
  00c4f	ff 55 90	 call	 DWORD PTR tv2424[ebp]
  00c52	50		 push	 eax
  00c53	e8 00 00 00 00	 call	 ?FromHandle@CWnd@@SGPAV1@PAUHWND__@@@Z ; CWnd::FromHandle

; 32   : 	{ ASSERT(::IsWindow(m_hWnd)); return ::SendMessage(m_hWnd, message, wParam, lParam); }

  00c58	68 00 00 00 00	 push	 OFFSET ??_C@_08LCOJJIAL@Account1@
  00c5d	6a 00		 push	 0
  00c5f	ff 35 00 00 00
	00		 push	 DWORD PTR ?RMSG_GET_CONTROLHANDLE@@3IB
  00c65	ff 70 20	 push	 DWORD PTR [eax+32]
  00c68	ff d6		 call	 esi
; File D:\git\src\IBK\IBK_DRFN\ProjSrc\SrcDrfn\Chart\MULTICHART\ExtInputBarDlg.cpp

; 656  : 	m_hCtrlAccount = (HWND)GetParent()->GetParent()->SendMessage(RMSG_GET_CONTROLHANDLE, NULL, (LPARAM)"Account1");

  00c6a	89 83 60 01 00
	00		 mov	 DWORD PTR [ebx+352], eax

; 657  : 	if(m_hCtrlAccount)

  00c70	85 c0		 test	 eax, eax
  00c72	74 14		 je	 SHORT $LN19@OnInitDial

; 658  : 	{
; 659  : //		CRect rcAccount;
; 660  : //		GetDlgItem(IDC_STC_ACCOUNT)->GetWindowRect(rcAccount);
; 661  : //		ScreenToClient(rcAccount);
; 662  : 
; 663  : 		CWnd::FromHandle(m_hCtrlAccount)->SetParent(this);

  00c74	50		 push	 eax
  00c75	e8 00 00 00 00	 call	 ?FromHandle@CWnd@@SGPAV1@PAUHWND__@@@Z ; CWnd::FromHandle
; File C:\Program Files (x86)\Microsoft Visual Studio\2019\Community\VC\Tools\MSVC\14.29.30133\atlmfc\include\afxwin2.inl

; 215  : 	{ ASSERT(::IsWindow(m_hWnd)); return CWnd::FromHandle(::SetParent(m_hWnd,

  00c7a	ff 73 20	 push	 DWORD PTR [ebx+32]
  00c7d	ff 70 20	 push	 DWORD PTR [eax+32]
  00c80	ff d7		 call	 edi
  00c82	50		 push	 eax
  00c83	e8 00 00 00 00	 call	 ?FromHandle@CWnd@@SGPAV1@PAUHWND__@@@Z ; CWnd::FromHandle
$LN19@OnInitDial:
; File D:\git\src\IBK\IBK_DRFN\ProjSrc\SrcDrfn\Chart\MULTICHART\ExtInputBarDlg.cpp

; 668  : 	if(m_bChkCrossLine)

  00c88	8b 83 24 33 00
	00		 mov	 eax, DWORD PTR [ebx+13092]
  00c8e	85 c0		 test	 eax, eax
  00c90	74 1e		 je	 SHORT $LN20@OnInitDial

; 669  : 	{
; 670  : 		m_btSub2.SetCheck(m_bChkCrossLine);

  00c92	50		 push	 eax
  00c93	8d 8b e8 06 00
	00		 lea	 ecx, DWORD PTR [ebx+1768]
  00c99	e8 00 00 00 00	 call	 ?SetCheck@CILButton@@QAEXH@Z ; CILButton::SetCheck
; File C:\Program Files (x86)\Microsoft Visual Studio\2019\Community\VC\Tools\MSVC\14.29.30133\atlmfc\include\afxwin2.inl

; 152  : 	{ ASSERT(::IsWindow(m_hWnd)); return ::SetTimer(m_hWnd, nIDEvent, nElapse,

  00c9e	6a 00		 push	 0
  00ca0	68 e8 03 00 00	 push	 1000			; 000003e8H
  00ca5	6a 0a		 push	 10			; 0000000aH
  00ca7	ff 73 20	 push	 DWORD PTR [ebx+32]
  00caa	ff 15 00 00 00
	00		 call	 DWORD PTR __imp__SetTimer@16
$LN20@OnInitDial:
; File D:\git\src\IBK\IBK_DRFN\ProjSrc\SrcDrfn\Chart\MULTICHART\ExtInputBarDlg.cpp

; 678  : 	return TRUE;  // return TRUE unless you set the focus to a control

  00cb0	8d 4d 94	 lea	 ecx, DWORD PTR _strCfgFile$[ebp]
  00cb3	ff 15 00 00 00
	00		 call	 DWORD PTR __imp_??1?$CStringT@DV?$StrTraitMFC_DLL@DV?$ChTraitsCRT@D@ATL@@@@@ATL@@QAE@XZ
  00cb9	8d 4d 88	 lea	 ecx, DWORD PTR _strImageDis$[ebp]
  00cbc	ff 15 00 00 00
	00		 call	 DWORD PTR __imp_??1?$CStringT@DV?$StrTraitMFC_DLL@DV?$ChTraitsCRT@D@ATL@@@@@ATL@@QAE@XZ
  00cc2	8d 4d 84	 lea	 ecx, DWORD PTR _strImageOver$[ebp]
  00cc5	ff 15 00 00 00
	00		 call	 DWORD PTR __imp_??1?$CStringT@DV?$StrTraitMFC_DLL@DV?$ChTraitsCRT@D@ATL@@@@@ATL@@QAE@XZ
  00ccb	8d 4d 80	 lea	 ecx, DWORD PTR _strImageDown$[ebp]
  00cce	ff 15 00 00 00
	00		 call	 DWORD PTR __imp_??1?$CStringT@DV?$StrTraitMFC_DLL@DV?$ChTraitsCRT@D@ATL@@@@@ATL@@QAE@XZ
  00cd4	8d 8d 7c ff ff
	ff		 lea	 ecx, DWORD PTR _strImageUp$[ebp]
  00cda	ff 15 00 00 00
	00		 call	 DWORD PTR __imp_??1?$CStringT@DV?$StrTraitMFC_DLL@DV?$ChTraitsCRT@D@ATL@@@@@ATL@@QAE@XZ
  00ce0	8d 8d 78 ff ff
	ff		 lea	 ecx, DWORD PTR _strImageSelect$[ebp]
  00ce6	ff 15 00 00 00
	00		 call	 DWORD PTR __imp_??1?$CStringT@DV?$StrTraitMFC_DLL@DV?$ChTraitsCRT@D@ATL@@@@@ATL@@QAE@XZ
  00cec	b8 01 00 00 00	 mov	 eax, 1

; 679  : 	// EXCEPTION: OCX Property Pages should return FALSE
; 680  : }

  00cf1	8b 4d f4	 mov	 ecx, DWORD PTR __$EHRec$[ebp]
  00cf4	64 89 0d 00 00
	00 00		 mov	 DWORD PTR fs:0, ecx
  00cfb	59		 pop	 ecx
  00cfc	5f		 pop	 edi
  00cfd	5e		 pop	 esi
  00cfe	5b		 pop	 ebx
  00cff	8b 4d f0	 mov	 ecx, DWORD PTR __$ArrayPad$[ebp]
  00d02	33 cd		 xor	 ecx, ebp
  00d04	e8 00 00 00 00	 call	 @__security_check_cookie@4
  00d09	8b e5		 mov	 esp, ebp
  00d0b	5d		 pop	 ebp
  00d0c	c3		 ret	 0
_TEXT	ENDS
;	COMDAT text$x
text$x	SEGMENT
__unwindfunclet$?OnInitDialog@CExtInputBarDlg@@MAEHXZ$8:
  00000	8d 8d 78 ff ff
	ff		 lea	 ecx, DWORD PTR _strImageSelect$[ebp]
  00006	ff 25 00 00 00
	00		 jmp	 DWORD PTR __imp_??1?$CStringT@DV?$StrTraitMFC_DLL@DV?$ChTraitsCRT@D@ATL@@@@@ATL@@QAE@XZ
__unwindfunclet$?OnInitDialog@CExtInputBarDlg@@MAEHXZ$9:
  0000c	8d 8d 7c ff ff
	ff		 lea	 ecx, DWORD PTR _strImageUp$[ebp]
  00012	ff 25 00 00 00
	00		 jmp	 DWORD PTR __imp_??1?$CStringT@DV?$StrTraitMFC_DLL@DV?$ChTraitsCRT@D@ATL@@@@@ATL@@QAE@XZ
__unwindfunclet$?OnInitDialog@CExtInputBarDlg@@MAEHXZ$10:
  00018	8d 4d 80	 lea	 ecx, DWORD PTR _strImageDown$[ebp]
  0001b	ff 25 00 00 00
	00		 jmp	 DWORD PTR __imp_??1?$CStringT@DV?$StrTraitMFC_DLL@DV?$ChTraitsCRT@D@ATL@@@@@ATL@@QAE@XZ
__unwindfunclet$?OnInitDialog@CExtInputBarDlg@@MAEHXZ$11:
  00021	8d 4d 84	 lea	 ecx, DWORD PTR _strImageOver$[ebp]
  00024	ff 25 00 00 00
	00		 jmp	 DWORD PTR __imp_??1?$CStringT@DV?$StrTraitMFC_DLL@DV?$ChTraitsCRT@D@ATL@@@@@ATL@@QAE@XZ
__unwindfunclet$?OnInitDialog@CExtInputBarDlg@@MAEHXZ$12:
  0002a	8d 4d 88	 lea	 ecx, DWORD PTR _strImageDis$[ebp]
  0002d	ff 25 00 00 00
	00		 jmp	 DWORD PTR __imp_??1?$CStringT@DV?$StrTraitMFC_DLL@DV?$ChTraitsCRT@D@ATL@@@@@ATL@@QAE@XZ
__unwindfunclet$?OnInitDialog@CExtInputBarDlg@@MAEHXZ$64:
  00033	8d 4d 94	 lea	 ecx, DWORD PTR _strCfgFile$[ebp]
  00036	ff 25 00 00 00
	00		 jmp	 DWORD PTR __imp_??1?$CStringT@DV?$StrTraitMFC_DLL@DV?$ChTraitsCRT@D@ATL@@@@@ATL@@QAE@XZ
__unwindfunclet$?OnInitDialog@CExtInputBarDlg@@MAEHXZ$65:
  0003c	8d 4d 9c	 lea	 ecx, DWORD PTR $T3[ebp]
  0003f	ff 25 00 00 00
	00		 jmp	 DWORD PTR __imp_??1?$CStringT@DV?$StrTraitMFC_DLL@DV?$ChTraitsCRT@D@ATL@@@@@ATL@@QAE@XZ
  00045	cc		 int	 3
  00046	cc		 int	 3
  00047	cc		 int	 3
  00048	cc		 int	 3
  00049	cc		 int	 3
__ehhandler$?OnInitDialog@CExtInputBarDlg@@MAEHXZ:
  0004a	90		 npad	 1
  0004b	90		 npad	 1
  0004c	8b 54 24 08	 mov	 edx, DWORD PTR [esp+8]
  00050	8d 42 0c	 lea	 eax, DWORD PTR [edx+12]
  00053	8b 8a 74 ff ff
	ff		 mov	 ecx, DWORD PTR [edx-140]
  00059	33 c8		 xor	 ecx, eax
  0005b	e8 00 00 00 00	 call	 @__security_check_cookie@4
  00060	8b 4a fc	 mov	 ecx, DWORD PTR [edx-4]
  00063	33 c8		 xor	 ecx, eax
  00065	e8 00 00 00 00	 call	 @__security_check_cookie@4
  0006a	b8 00 00 00 00	 mov	 eax, OFFSET __ehfuncinfo$?OnInitDialog@CExtInputBarDlg@@MAEHXZ
  0006f	e9 00 00 00 00	 jmp	 ___CxxFrameHandler3
text$x	ENDS
?OnInitDialog@CExtInputBarDlg@@MAEHXZ ENDP		; CExtInputBarDlg::OnInitDialog
; Function compile flags: /Ogtp
; File D:\git\src\IBK\IBK_DRFN\ProjSrc\SrcDrfn\Chart\MULTICHART\ExtInputBarDlg.cpp
;	COMDAT ?OnCommand@CExtInputBarDlg@@MAEHIJ@Z
_TEXT	SEGMENT
_wParam$ = 8						; size = 4
_lParam$ = 12						; size = 4
?OnCommand@CExtInputBarDlg@@MAEHIJ@Z PROC		; CExtInputBarDlg::OnCommand, COMDAT
; _this$ = ecx

; 2812 : {

  00000	55		 push	 ebp
  00001	8b ec		 mov	 ebp, esp
  00003	56		 push	 esi

; 2813 : 	if (LOWORD(wParam) == IDC_BTETCMENU)			///> Button

  00004	8b 75 08	 mov	 esi, DWORD PTR _wParam$[ebp]
  00007	b8 31 18 00 00	 mov	 eax, 6193		; 00001831H
  0000c	57		 push	 edi
  0000d	8b f9		 mov	 edi, ecx
  0000f	66 3b f0	 cmp	 si, ax
  00012	75 0f		 jne	 SHORT $LN7@OnCommand

; 2814 : 	{
; 2815 : 		switch (HIWORD(wParam))

  00014	8b c6		 mov	 eax, esi
  00016	c1 e8 10	 shr	 eax, 16			; 00000010H
  00019	83 f8 06	 cmp	 eax, 6
  0001c	75 05		 jne	 SHORT $LN7@OnCommand

; 2816 : 		{
; 2817 : 		case BN_CLICKED :
; 2818 : 			TRACE("ExtInputBarDlg : BUTTON BN_CLICKED") ;
; 2819 : //			OnBtetcmenu();
; 2820 : 			break;
; 2821 : 		case BN_SETFOCUS :
; 2822 : 			TRACE("ExtInputBarDlg : BUTTON BN_SETFOCUS") ;
; 2823 : 			OnBtetcmenu();

  0001e	e8 00 00 00 00	 call	 ?OnBtetcmenu@CExtInputBarDlg@@IAEXXZ ; CExtInputBarDlg::OnBtetcmenu
$LN7@OnCommand:

; 2824 : 			break;
; 2825 : 		case BN_KILLFOCUS :
; 2826 : 			TRACE("ExtInputBarDlg : BUTTON BN_KILLFOCUS") ;
; 2827 : 			break;
; 2828 : 		}
; 2829 : 	} 
; 2830 : 	
; 2831 : 	return CDialog::OnCommand(wParam, lParam);

  00023	ff 75 0c	 push	 DWORD PTR _lParam$[ebp]
  00026	8b cf		 mov	 ecx, edi
  00028	56		 push	 esi
  00029	e8 00 00 00 00	 call	 ?OnCommand@CWnd@@MAEHIJ@Z ; CWnd::OnCommand
  0002e	5f		 pop	 edi
  0002f	5e		 pop	 esi

; 2832 : }

  00030	5d		 pop	 ebp
  00031	c2 08 00	 ret	 8
?OnCommand@CExtInputBarDlg@@MAEHIJ@Z ENDP		; CExtInputBarDlg::OnCommand
_TEXT	ENDS
; Function compile flags: /Ogtp
; File C:\Program Files (x86)\Microsoft Visual Studio\2019\Community\VC\Tools\MSVC\14.29.30133\atlmfc\include\afxtempl.h
; File C:\Program Files (x86)\Microsoft Visual Studio\2019\Community\VC\Tools\MSVC\14.29.30133\atlmfc\include\afx.inl
;	COMDAT ??_G?$CMap@IIV?$CStringT@DV?$StrTraitMFC_DLL@DV?$ChTraitsCRT@D@ATL@@@@@ATL@@PBD@@UAEPAXI@Z
_TEXT	SEGMENT
__$EHRec$ = -12						; size = 12
___flags$ = 8						; size = 4
??_G?$CMap@IIV?$CStringT@DV?$StrTraitMFC_DLL@DV?$ChTraitsCRT@D@ATL@@@@@ATL@@PBD@@UAEPAXI@Z PROC ; CMap<unsigned int,unsigned int,ATL::CStringT<char,StrTraitMFC_DLL<char,ATL::ChTraitsCRT<char> > >,char const *>::`scalar deleting destructor', COMDAT
; _this$ = ecx
  00000	55		 push	 ebp
  00001	8b ec		 mov	 ebp, esp
  00003	6a ff		 push	 -1
  00005	68 00 00 00 00	 push	 __ehhandler$??_G?$CMap@IIV?$CStringT@DV?$StrTraitMFC_DLL@DV?$ChTraitsCRT@D@ATL@@@@@ATL@@PBD@@UAEPAXI@Z
  0000a	64 a1 00 00 00
	00		 mov	 eax, DWORD PTR fs:0
  00010	50		 push	 eax
  00011	56		 push	 esi
  00012	a1 00 00 00 00	 mov	 eax, DWORD PTR ___security_cookie
  00017	33 c5		 xor	 eax, ebp
  00019	50		 push	 eax
  0001a	8d 45 f4	 lea	 eax, DWORD PTR __$EHRec$[ebp]
  0001d	64 a3 00 00 00
	00		 mov	 DWORD PTR fs:0, eax
  00023	8b f1		 mov	 esi, ecx
; File C:\Program Files (x86)\Microsoft Visual Studio\2019\Community\VC\Tools\MSVC\14.29.30133\atlmfc\include\afxtempl.h

; 1472 : {

  00025	c7 45 fc 00 00
	00 00		 mov	 DWORD PTR __$EHRec$[ebp+8], 0
  0002c	c7 06 00 00 00
	00		 mov	 DWORD PTR [esi], OFFSET ??_7?$CMap@IIV?$CStringT@DV?$StrTraitMFC_DLL@DV?$ChTraitsCRT@D@ATL@@@@@ATL@@PBD@@6B@

; 1473 : 	RemoveAll();

  00032	e8 00 00 00 00	 call	 ?RemoveAll@?$CMap@IIV?$CStringT@DV?$StrTraitMFC_DLL@DV?$ChTraitsCRT@D@ATL@@@@@ATL@@PBD@@QAEXXZ ; CMap<unsigned int,unsigned int,ATL::CStringT<char,StrTraitMFC_DLL<char,ATL::ChTraitsCRT<char> > >,char const *>::RemoveAll
  00037	8b 45 08	 mov	 eax, DWORD PTR ___flags$[ebp]
  0003a	a8 01		 test	 al, 1
  0003c	74 2c		 je	 SHORT $LN12@scalar
  0003e	a8 04		 test	 al, 4
  00040	75 1d		 jne	 SHORT $LN3@scalar
; File C:\Program Files (x86)\Microsoft Visual Studio\2019\Community\VC\Tools\MSVC\14.29.30133\atlmfc\include\afx.inl

; 112  : 	{ ::operator delete(p); }

  00042	56		 push	 esi
  00043	e8 00 00 00 00	 call	 ??3@YAXPAX@Z		; operator delete
  00048	83 c4 04	 add	 esp, 4
  0004b	8b c6		 mov	 eax, esi
  0004d	8b 4d f4	 mov	 ecx, DWORD PTR __$EHRec$[ebp]
  00050	64 89 0d 00 00
	00 00		 mov	 DWORD PTR fs:0, ecx
  00057	59		 pop	 ecx
  00058	5e		 pop	 esi
  00059	8b e5		 mov	 esp, ebp
  0005b	5d		 pop	 ebp
  0005c	c2 04 00	 ret	 4
$LN3@scalar:
  0005f	6a 1c		 push	 28			; 0000001cH
  00061	56		 push	 esi
  00062	e8 00 00 00 00	 call	 ?__global_delete@@YAXPAXI@Z ; __global_delete
  00067	83 c4 08	 add	 esp, 8
$LN12@scalar:
  0006a	8b c6		 mov	 eax, esi
  0006c	8b 4d f4	 mov	 ecx, DWORD PTR __$EHRec$[ebp]
  0006f	64 89 0d 00 00
	00 00		 mov	 DWORD PTR fs:0, ecx
  00076	59		 pop	 ecx
  00077	5e		 pop	 esi
  00078	8b e5		 mov	 esp, ebp
  0007a	5d		 pop	 ebp
  0007b	c2 04 00	 ret	 4
  0007e	cc		 int	 3
  0007f	cc		 int	 3
  00080	cc		 int	 3
  00081	cc		 int	 3
  00082	cc		 int	 3
_TEXT	ENDS
;	COMDAT text$x
text$x	SEGMENT
__ehhandler$??_G?$CMap@IIV?$CStringT@DV?$StrTraitMFC_DLL@DV?$ChTraitsCRT@D@ATL@@@@@ATL@@PBD@@UAEPAXI@Z:
  00000	90		 npad	 1
  00001	90		 npad	 1
  00002	8b 54 24 08	 mov	 edx, DWORD PTR [esp+8]
  00006	8d 42 0c	 lea	 eax, DWORD PTR [edx+12]
  00009	8b 4a f8	 mov	 ecx, DWORD PTR [edx-8]
  0000c	33 c8		 xor	 ecx, eax
  0000e	e8 00 00 00 00	 call	 @__security_check_cookie@4
  00013	b8 00 00 00 00	 mov	 eax, OFFSET __ehfuncinfo$??_G?$CMap@IIV?$CStringT@DV?$StrTraitMFC_DLL@DV?$ChTraitsCRT@D@ATL@@@@@ATL@@PBD@@UAEPAXI@Z
  00018	e9 00 00 00 00	 jmp	 ___CxxFrameHandler3
text$x	ENDS
??_G?$CMap@IIV?$CStringT@DV?$StrTraitMFC_DLL@DV?$ChTraitsCRT@D@ATL@@@@@ATL@@PBD@@UAEPAXI@Z ENDP ; CMap<unsigned int,unsigned int,ATL::CStringT<char,StrTraitMFC_DLL<char,ATL::ChTraitsCRT<char> > >,char const *>::`scalar deleting destructor'
; Function compile flags: /Ogtp
; File C:\Program Files (x86)\Microsoft Visual Studio\2019\Community\VC\Tools\MSVC\14.29.30133\atlmfc\include\afxtempl.h
; File C:\Program Files (x86)\Microsoft Visual Studio\2019\Community\VC\Tools\MSVC\14.29.30133\atlmfc\include\afx.inl
; File C:\Program Files (x86)\Microsoft Visual Studio\2019\Community\VC\Tools\MSVC\14.29.30133\atlmfc\include\afxtempl.h
; File C:\Program Files (x86)\Microsoft Visual Studio\2019\Community\VC\Tools\MSVC\14.29.30133\atlmfc\include\afx.inl
; File C:\Program Files (x86)\Microsoft Visual Studio\2019\Community\VC\Tools\MSVC\14.29.30133\atlmfc\include\afxtempl.h
; File C:\Program Files (x86)\Microsoft Visual Studio\2019\Community\VC\Tools\MSVC\14.29.30133\atlmfc\include\afx.inl
; File C:\Program Files (x86)\Microsoft Visual Studio\2019\Community\VC\Tools\MSVC\14.29.30133\atlmfc\include\afxtempl.h
; File C:\Program Files (x86)\Microsoft Visual Studio\2019\Community\VC\Tools\MSVC\14.29.30133\atlmfc\include\afx.inl
; File C:\Program Files (x86)\Microsoft Visual Studio\2019\Community\VC\Tools\MSVC\14.29.30133\atlmfc\include\afxtempl.h
; File C:\Program Files (x86)\Microsoft Visual Studio\2019\Community\VC\Tools\MSVC\14.29.30133\atlmfc\include\afx.inl
; File C:\Program Files (x86)\Microsoft Visual Studio\2019\Community\VC\Tools\MSVC\14.29.30133\atlmfc\include\afxtempl.h
; File C:\Program Files (x86)\Microsoft Visual Studio\2019\Community\VC\Tools\MSVC\14.29.30133\atlmfc\include\afx.inl
; File C:\Program Files (x86)\Microsoft Visual Studio\2019\Community\VC\Tools\MSVC\14.29.30133\atlmfc\include\afxtempl.h
; File C:\Program Files (x86)\Microsoft Visual Studio\2019\Community\VC\Tools\MSVC\14.29.30133\atlmfc\include\afx.inl
; File C:\Program Files (x86)\Microsoft Visual Studio\2019\Community\VC\Tools\MSVC\14.29.30133\atlmfc\include\afxtempl.h
; File C:\Program Files (x86)\Microsoft Visual Studio\2019\Community\VC\Tools\MSVC\14.29.30133\atlmfc\include\atlsimpstr.h
; File C:\Program Files (x86)\Microsoft Visual Studio\2019\Community\VC\Tools\MSVC\14.29.30133\atlmfc\include\afxtempl.h
; File C:\Program Files (x86)\Microsoft Visual Studio\2019\Community\VC\Tools\MSVC\14.29.30133\atlmfc\include\atlsimpstr.h
; File C:\Program Files (x86)\Microsoft Visual Studio\2019\Community\VC\Tools\MSVC\14.29.30133\atlmfc\include\afxtempl.h
;	COMDAT ?Serialize@?$CMap@IIV?$CStringT@DV?$StrTraitMFC_DLL@DV?$ChTraitsCRT@D@ATL@@@@@ATL@@PBD@@UAEXAAVCArchive@@@Z
_TEXT	SEGMENT
_nNewCount$1$ = -44					; size = 4
_nHashBucket$1$ = -40					; size = 4
_pValue$1$ = -40					; size = 4
_this$1$ = -36						; size = 4
_newKey$4 = -32						; size = 4
_key$1$ = -28						; size = 4
_pData$1$ = -28						; size = 4
_nElementsLeft$1$ = -28					; size = 4
_nHash$1$ = -28						; size = 4
tv849 = -24						; size = 4
_pData$1$ = -24						; size = 4
_pAssoc$1$ = -24					; size = 4
_pData$1$ = -20						; size = 4
_pData$1$ = -20						; size = 4
$T5 = -20						; size = 4
_nElementsLeft$1$ = -16					; size = 4
_newValue$6 = -16					; size = 4
__$EHRec$ = -12						; size = 12
_ar$ = 8						; size = 4
?Serialize@?$CMap@IIV?$CStringT@DV?$StrTraitMFC_DLL@DV?$ChTraitsCRT@D@ATL@@@@@ATL@@PBD@@UAEXAAVCArchive@@@Z PROC ; CMap<unsigned int,unsigned int,ATL::CStringT<char,StrTraitMFC_DLL<char,ATL::ChTraitsCRT<char> > >,char const *>::Serialize, COMDAT
; _this$ = ecx

; 1743 : {

  00000	55		 push	 ebp
  00001	8b ec		 mov	 ebp, esp
  00003	6a ff		 push	 -1
  00005	68 00 00 00 00	 push	 __ehhandler$?Serialize@?$CMap@IIV?$CStringT@DV?$StrTraitMFC_DLL@DV?$ChTraitsCRT@D@ATL@@@@@ATL@@PBD@@UAEXAAVCArchive@@@Z
  0000a	64 a1 00 00 00
	00		 mov	 eax, DWORD PTR fs:0
  00010	50		 push	 eax
  00011	83 ec 20	 sub	 esp, 32			; 00000020H
  00014	56		 push	 esi
  00015	57		 push	 edi
  00016	a1 00 00 00 00	 mov	 eax, DWORD PTR ___security_cookie
  0001b	33 c5		 xor	 eax, ebp
  0001d	50		 push	 eax
  0001e	8d 45 f4	 lea	 eax, DWORD PTR __$EHRec$[ebp]
  00021	64 a3 00 00 00
	00		 mov	 DWORD PTR fs:0, eax
  00027	8b f9		 mov	 edi, ecx
  00029	89 7d dc	 mov	 DWORD PTR _this$1$[ebp], edi
; File C:\Program Files (x86)\Microsoft Visual Studio\2019\Community\VC\Tools\MSVC\14.29.30133\atlmfc\include\afx.inl

; 212  : 	{ return (m_nMode & CArchive::load) == 0; }

  0002c	8b 4d 08	 mov	 ecx, DWORD PTR _ar$[ebp]
  0002f	8b 41 18	 mov	 eax, DWORD PTR [ecx+24]
  00032	f7 d0		 not	 eax
  00034	a8 01		 test	 al, 1
; File C:\Program Files (x86)\Microsoft Visual Studio\2019\Community\VC\Tools\MSVC\14.29.30133\atlmfc\include\afxtempl.h

; 1748 : 	if (ar.IsStoring())

  00036	0f 84 0e 01 00
	00		 je	 $LN10@Serialize

; 1749 : 	{
; 1750 : 		ar.WriteCount(m_nCount);

  0003c	ff 77 0c	 push	 DWORD PTR [edi+12]
  0003f	e8 00 00 00 00	 call	 ?WriteCount@CArchive@@QAEXK@Z ; CArchive::WriteCount

; 1751 : 		if (m_nCount == 0)

  00044	83 7f 0c 00	 cmp	 DWORD PTR [edi+12], 0
  00048	0f 84 e9 00 00
	00		 je	 $LN140@Serialize

; 1752 : 			return;  // nothing more to do
; 1753 : 
; 1754 : 		ASSERT(m_pHashTable != NULL);
; 1755 : 		if (m_pHashTable != NULL)

  0004e	83 7f 04 00	 cmp	 DWORD PTR [edi+4], 0
  00052	0f 84 df 00 00
	00		 je	 $LN140@Serialize

; 1756 : 		{
; 1757 : 			for (UINT nHash = 0; nHash < m_nHashTableSize; nHash++)

  00058	33 c9		 xor	 ecx, ecx
  0005a	89 4d e4	 mov	 DWORD PTR _nHash$1$[ebp], ecx
  0005d	39 4f 08	 cmp	 DWORD PTR [edi+8], ecx
  00060	0f 86 d1 00 00
	00		 jbe	 $LN140@Serialize
$LL4@Serialize:

; 1758 : 			{
; 1759 : 				CAssoc* pAssoc;
; 1760 : 				for (pAssoc = m_pHashTable[nHash]; pAssoc != NULL; pAssoc = pAssoc->pNext)

  00066	8b 47 04	 mov	 eax, DWORD PTR [edi+4]
  00069	8b 14 88	 mov	 edx, DWORD PTR [eax+ecx*4]
  0006c	89 55 e8	 mov	 DWORD PTR _pAssoc$1$[ebp], edx
  0006f	85 d2		 test	 edx, edx
  00071	0f 84 b3 00 00
	00		 je	 $LN2@Serialize
$LL7@Serialize:
; File C:\Program Files (x86)\Microsoft Visual Studio\2019\Community\VC\Tools\MSVC\14.29.30133\atlmfc\include\afx.inl

; 212  : 	{ return (m_nMode & CArchive::load) == 0; }

  00077	8b 4d 08	 mov	 ecx, DWORD PTR _ar$[ebp]
; File C:\Program Files (x86)\Microsoft Visual Studio\2019\Community\VC\Tools\MSVC\14.29.30133\atlmfc\include\afxtempl.h

; 1770 : 					pValue = reinterpret_cast< VALUE* >( &reinterpret_cast< int& >( static_cast< VALUE& >( pAssoc->value ) ) );

  0007a	8d 42 04	 lea	 eax, DWORD PTR [edx+4]
  0007d	89 45 d8	 mov	 DWORD PTR _pValue$1$[ebp], eax

; 73   : 	if (ar.IsStoring())

  00080	89 55 ec	 mov	 DWORD PTR _pData$1$[ebp], edx
; File C:\Program Files (x86)\Microsoft Visual Studio\2019\Community\VC\Tools\MSVC\14.29.30133\atlmfc\include\afx.inl

; 212  : 	{ return (m_nMode & CArchive::load) == 0; }

  00083	8b 41 18	 mov	 eax, DWORD PTR [ecx+24]
  00086	f7 d0		 not	 eax
  00088	a8 01		 test	 al, 1
; File C:\Program Files (x86)\Microsoft Visual Studio\2019\Community\VC\Tools\MSVC\14.29.30133\atlmfc\include\afxtempl.h

; 73   : 	if (ar.IsStoring())

  0008a	74 3b		 je	 SHORT $LN27@Serialize

; 74   : 	{
; 75   : 		TYPE* pData;
; 76   : 		UINT_PTR nElementsLeft;
; 77   : 
; 78   : 		nElementsLeft = nCount;

  0008c	b8 01 00 00 00	 mov	 eax, 1

; 79   : 		pData = pElements;

  00091	8b ca		 mov	 ecx, edx
  00093	89 45 f0	 mov	 DWORD PTR _nElementsLeft$1$[ebp], eax
$LL22@Serialize:

; 80   : 		while( nElementsLeft > 0 )
; 81   : 		{
; 82   : 			UINT nElementsToWrite;
; 83   : 
; 84   : 			nElementsToWrite = UINT(__min(nElementsLeft, INT_MAX/sizeof(TYPE)));

  00096	bf ff ff ff 1f	 mov	 edi, 536870911		; 1fffffffH
  0009b	3b c7		 cmp	 eax, edi
  0009d	0f 42 f8	 cmovb	 edi, eax

; 85   : 			ar.Write(pData, nElementsToWrite*sizeof(TYPE));

  000a0	8d 34 bd 00 00
	00 00		 lea	 esi, DWORD PTR [edi*4]
  000a7	56		 push	 esi
  000a8	51		 push	 ecx
  000a9	8b 4d 08	 mov	 ecx, DWORD PTR _ar$[ebp]
  000ac	e8 00 00 00 00	 call	 ?Write@CArchive@@QAEXPBXI@Z ; CArchive::Write

; 86   : 			nElementsLeft -= nElementsToWrite;

  000b1	8b 45 f0	 mov	 eax, DWORD PTR _nElementsLeft$1$[ebp]

; 87   : 			pData += nElementsToWrite;

  000b4	8b 4d ec	 mov	 ecx, DWORD PTR _pData$1$[ebp]
  000b7	2b c7		 sub	 eax, edi
  000b9	03 ce		 add	 ecx, esi
  000bb	89 45 f0	 mov	 DWORD PTR _nElementsLeft$1$[ebp], eax
  000be	89 4d ec	 mov	 DWORD PTR _pData$1$[ebp], ecx
  000c1	85 c0		 test	 eax, eax
  000c3	75 d1		 jne	 SHORT $LL22@Serialize

; 88   : 		}
; 89   : 	}

  000c5	eb 3f		 jmp	 SHORT $LN25@Serialize
$LN27@Serialize:

; 90   : 	else
; 91   : 	{
; 92   : 		TYPE* pData;
; 93   : 		UINT_PTR nElementsLeft;
; 94   : 
; 95   : 		nElementsLeft = nCount;

  000c7	be 01 00 00 00	 mov	 esi, 1
  000cc	0f 1f 40 00	 npad	 4
$LL24@Serialize:

; 97   : 		while( nElementsLeft > 0 )
; 98   : 		{
; 99   : 			UINT nElementsToRead;
; 100  : 
; 101  : 			nElementsToRead = UINT(__min(nElementsLeft, INT_MAX/sizeof(TYPE)));

  000d0	bf ff ff ff 1f	 mov	 edi, 536870911		; 1fffffffH
  000d5	3b f7		 cmp	 esi, edi
  000d7	0f 42 fe	 cmovb	 edi, esi

; 102  : 			ar.EnsureRead(pData, nElementsToRead*sizeof(TYPE));

  000da	8d 04 bd 00 00
	00 00		 lea	 eax, DWORD PTR [edi*4]
; File C:\Program Files (x86)\Microsoft Visual Studio\2019\Community\VC\Tools\MSVC\14.29.30133\atlmfc\include\afx.inl

; 399  : 	UINT nRead=Read(lpBuf, nCount);

  000e1	50		 push	 eax
  000e2	52		 push	 edx
  000e3	e8 00 00 00 00	 call	 ?Read@CArchive@@QAEIPAXI@Z ; CArchive::Read

; 400  : 	if(nRead!=nCount)

  000e8	8d 0c bd 00 00
	00 00		 lea	 ecx, DWORD PTR [edi*4]
  000ef	3b c1		 cmp	 eax, ecx
  000f1	0f 85 97 02 00
	00		 jne	 $LN123@Serialize
; File C:\Program Files (x86)\Microsoft Visual Studio\2019\Community\VC\Tools\MSVC\14.29.30133\atlmfc\include\afxtempl.h

; 104  : 			pData += nElementsToRead;

  000f7	8b 55 ec	 mov	 edx, DWORD PTR _pData$1$[ebp]
  000fa	03 d1		 add	 edx, ecx
  000fc	8b 4d 08	 mov	 ecx, DWORD PTR _ar$[ebp]
  000ff	89 55 ec	 mov	 DWORD PTR _pData$1$[ebp], edx
  00102	2b f7		 sub	 esi, edi
  00104	75 ca		 jne	 SHORT $LL24@Serialize
$LN25@Serialize:

; 1771 : 					SerializeElements<KEY>(ar, pKey, 1);
; 1772 : 					SerializeElements<VALUE>(ar, pValue, 1);

  00106	6a 01		 push	 1
  00108	ff 75 d8	 push	 DWORD PTR _pValue$1$[ebp]
  0010b	ff 75 08	 push	 DWORD PTR _ar$[ebp]
  0010e	e8 00 00 00 00	 call	 ??$SerializeElements@V?$CStringT@DV?$StrTraitMFC_DLL@DV?$ChTraitsCRT@D@ATL@@@@@ATL@@@@YGXAAVCArchive@@PAV?$CStringT@DV?$StrTraitMFC_DLL@DV?$ChTraitsCRT@D@ATL@@@@@ATL@@H@Z ; SerializeElements<ATL::CStringT<char,StrTraitMFC_DLL<char,ATL::ChTraitsCRT<char> > > >
  00113	8b 55 e8	 mov	 edx, DWORD PTR _pAssoc$1$[ebp]
  00116	8b 52 08	 mov	 edx, DWORD PTR [edx+8]
  00119	89 55 e8	 mov	 DWORD PTR _pAssoc$1$[ebp], edx
  0011c	85 d2		 test	 edx, edx
  0011e	0f 85 53 ff ff
	ff		 jne	 $LL7@Serialize
  00124	8b 7d dc	 mov	 edi, DWORD PTR _this$1$[ebp]
  00127	8b 4d e4	 mov	 ecx, DWORD PTR _nHash$1$[ebp]
$LN2@Serialize:

; 1756 : 		{
; 1757 : 			for (UINT nHash = 0; nHash < m_nHashTableSize; nHash++)

  0012a	41		 inc	 ecx
  0012b	89 4d e4	 mov	 DWORD PTR _nHash$1$[ebp], ecx
  0012e	3b 4f 08	 cmp	 ecx, DWORD PTR [edi+8]
  00131	0f 82 2f ff ff
	ff		 jb	 $LL4@Serialize
$LN140@Serialize:

; 1788 : 	}
; 1789 : }

  00137	8b 4d f4	 mov	 ecx, DWORD PTR __$EHRec$[ebp]
  0013a	64 89 0d 00 00
	00 00		 mov	 DWORD PTR fs:0, ecx
  00141	59		 pop	 ecx
  00142	5f		 pop	 edi
  00143	5e		 pop	 esi
  00144	8b e5		 mov	 esp, ebp
  00146	5d		 pop	 ebp
  00147	c2 04 00	 ret	 4
$LN10@Serialize:

; 1773 : 				}
; 1774 : 			}
; 1775 : 		}
; 1776 : 	}
; 1777 : 	else
; 1778 : 	{
; 1779 : 		DWORD_PTR nNewCount = ar.ReadCount();

  0014a	e8 00 00 00 00	 call	 ?ReadCount@CArchive@@QAEKXZ ; CArchive::ReadCount

; 1780 : 		while (nNewCount--)

  0014f	85 c0		 test	 eax, eax
  00151	74 e4		 je	 SHORT $LN140@Serialize
$LL8@Serialize:

; 1781 : 		{
; 1782 : 			KEY newKey[1];
; 1783 : 			VALUE newValue[1];

  00153	ff 35 00 00 00
	00		 push	 DWORD PTR __imp_??1?$CStringT@DV?$StrTraitMFC_DLL@DV?$ChTraitsCRT@D@ATL@@@@@ATL@@QAE@XZ
  00159	48		 dec	 eax
  0015a	ff 35 00 00 00
	00		 push	 DWORD PTR __imp_??0?$CStringT@DV?$StrTraitMFC_DLL@DV?$ChTraitsCRT@D@ATL@@@@@ATL@@QAE@XZ
  00160	89 45 d4	 mov	 DWORD PTR _nNewCount$1$[ebp], eax
  00163	8d 45 f0	 lea	 eax, DWORD PTR _newValue$6[ebp]
  00166	6a 01		 push	 1
  00168	6a 04		 push	 4
  0016a	50		 push	 eax
  0016b	e8 00 00 00 00	 call	 ??_L@YGXPAXIIP6EX0@Z1@Z
; File C:\Program Files (x86)\Microsoft Visual Studio\2019\Community\VC\Tools\MSVC\14.29.30133\atlmfc\include\afx.inl

; 212  : 	{ return (m_nMode & CArchive::load) == 0; }

  00170	8b 4d 08	 mov	 ecx, DWORD PTR _ar$[ebp]
; File C:\Program Files (x86)\Microsoft Visual Studio\2019\Community\VC\Tools\MSVC\14.29.30133\atlmfc\include\afxtempl.h

; 73   : 	if (ar.IsStoring())

  00173	8d 55 e0	 lea	 edx, DWORD PTR _newKey$4[ebp]

; 1781 : 		{
; 1782 : 			KEY newKey[1];
; 1783 : 			VALUE newValue[1];

  00176	c7 45 fc 00 00
	00 00		 mov	 DWORD PTR __$EHRec$[ebp+8], 0
; File C:\Program Files (x86)\Microsoft Visual Studio\2019\Community\VC\Tools\MSVC\14.29.30133\atlmfc\include\afx.inl

; 212  : 	{ return (m_nMode & CArchive::load) == 0; }

  0017d	8b 41 18	 mov	 eax, DWORD PTR [ecx+24]
  00180	f7 d0		 not	 eax
  00182	a8 01		 test	 al, 1
; File C:\Program Files (x86)\Microsoft Visual Studio\2019\Community\VC\Tools\MSVC\14.29.30133\atlmfc\include\afxtempl.h

; 73   : 	if (ar.IsStoring())

  00184	74 3c		 je	 SHORT $LN48@Serialize

; 74   : 	{
; 75   : 		TYPE* pData;
; 76   : 		UINT_PTR nElementsLeft;
; 77   : 
; 78   : 		nElementsLeft = nCount;

  00186	b8 01 00 00 00	 mov	 eax, 1

; 79   : 		pData = pElements;

  0018b	89 55 e8	 mov	 DWORD PTR _pData$1$[ebp], edx
  0018e	89 45 e4	 mov	 DWORD PTR _nElementsLeft$1$[ebp], eax
$LL43@Serialize:

; 80   : 		while( nElementsLeft > 0 )
; 81   : 		{
; 82   : 			UINT nElementsToWrite;
; 83   : 
; 84   : 			nElementsToWrite = UINT(__min(nElementsLeft, INT_MAX/sizeof(TYPE)));

  00191	bf ff ff ff 1f	 mov	 edi, 536870911		; 1fffffffH
  00196	3b c7		 cmp	 eax, edi
  00198	0f 42 f8	 cmovb	 edi, eax

; 85   : 			ar.Write(pData, nElementsToWrite*sizeof(TYPE));

  0019b	8d 34 bd 00 00
	00 00		 lea	 esi, DWORD PTR [edi*4]
  001a2	56		 push	 esi
  001a3	52		 push	 edx
  001a4	e8 00 00 00 00	 call	 ?Write@CArchive@@QAEXPBXI@Z ; CArchive::Write

; 86   : 			nElementsLeft -= nElementsToWrite;

  001a9	8b 45 e4	 mov	 eax, DWORD PTR _nElementsLeft$1$[ebp]

; 87   : 			pData += nElementsToWrite;

  001ac	8b 55 e8	 mov	 edx, DWORD PTR _pData$1$[ebp]
  001af	2b c7		 sub	 eax, edi
  001b1	8b 4d 08	 mov	 ecx, DWORD PTR _ar$[ebp]
  001b4	03 d6		 add	 edx, esi
  001b6	89 45 e4	 mov	 DWORD PTR _nElementsLeft$1$[ebp], eax
  001b9	89 55 e8	 mov	 DWORD PTR _pData$1$[ebp], edx
  001bc	85 c0		 test	 eax, eax
  001be	75 d1		 jne	 SHORT $LL43@Serialize

; 88   : 		}
; 89   : 	}

  001c0	eb 44		 jmp	 SHORT $LN46@Serialize
$LN48@Serialize:

; 90   : 	else
; 91   : 	{
; 92   : 		TYPE* pData;
; 93   : 		UINT_PTR nElementsLeft;
; 94   : 
; 95   : 		nElementsLeft = nCount;

  001c2	be 01 00 00 00	 mov	 esi, 1

; 96   : 		pData = pElements;

  001c7	89 55 e4	 mov	 DWORD PTR _pData$1$[ebp], edx
  001ca	66 0f 1f 44 00
	00		 npad	 6
$LL45@Serialize:

; 97   : 		while( nElementsLeft > 0 )
; 98   : 		{
; 99   : 			UINT nElementsToRead;
; 100  : 
; 101  : 			nElementsToRead = UINT(__min(nElementsLeft, INT_MAX/sizeof(TYPE)));

  001d0	bf ff ff ff 1f	 mov	 edi, 536870911		; 1fffffffH
  001d5	3b f7		 cmp	 esi, edi
  001d7	0f 42 fe	 cmovb	 edi, esi

; 102  : 			ar.EnsureRead(pData, nElementsToRead*sizeof(TYPE));

  001da	8d 04 bd 00 00
	00 00		 lea	 eax, DWORD PTR [edi*4]
; File C:\Program Files (x86)\Microsoft Visual Studio\2019\Community\VC\Tools\MSVC\14.29.30133\atlmfc\include\afx.inl

; 399  : 	UINT nRead=Read(lpBuf, nCount);

  001e1	50		 push	 eax
  001e2	52		 push	 edx
  001e3	e8 00 00 00 00	 call	 ?Read@CArchive@@QAEIPAXI@Z ; CArchive::Read

; 400  : 	if(nRead!=nCount)

  001e8	8d 0c bd 00 00
	00 00		 lea	 ecx, DWORD PTR [edi*4]
  001ef	3b c1		 cmp	 eax, ecx
  001f1	0f 85 97 01 00
	00		 jne	 $LN123@Serialize
; File C:\Program Files (x86)\Microsoft Visual Studio\2019\Community\VC\Tools\MSVC\14.29.30133\atlmfc\include\afxtempl.h

; 104  : 			pData += nElementsToRead;

  001f7	8b 55 e4	 mov	 edx, DWORD PTR _pData$1$[ebp]
  001fa	03 d1		 add	 edx, ecx
  001fc	8b 4d 08	 mov	 ecx, DWORD PTR _ar$[ebp]
  001ff	89 55 e4	 mov	 DWORD PTR _pData$1$[ebp], edx
  00202	2b f7		 sub	 esi, edi
  00204	75 ca		 jne	 SHORT $LL45@Serialize
$LN46@Serialize:

; 1784 : 			SerializeElements<KEY>(ar, newKey, 1);
; 1785 : 			SerializeElements<VALUE>(ar, newValue, 1);

  00206	6a 01		 push	 1
  00208	8d 45 f0	 lea	 eax, DWORD PTR _newValue$6[ebp]
  0020b	50		 push	 eax
  0020c	ff 75 08	 push	 DWORD PTR _ar$[ebp]
  0020f	e8 00 00 00 00	 call	 ??$SerializeElements@V?$CStringT@DV?$StrTraitMFC_DLL@DV?$ChTraitsCRT@D@ATL@@@@@ATL@@@@YGXAAVCArchive@@PAV?$CStringT@DV?$StrTraitMFC_DLL@DV?$ChTraitsCRT@D@ATL@@@@@ATL@@H@Z ; SerializeElements<ATL::CStringT<char,StrTraitMFC_DLL<char,ATL::ChTraitsCRT<char> > > >
; File C:\Program Files (x86)\Microsoft Visual Studio\2019\Community\VC\Tools\MSVC\14.29.30133\atlmfc\include\atlsimpstr.h

; 377  : 		return( m_pszData );

  00214	8b 45 f0	 mov	 eax, DWORD PTR _newValue$6[ebp]
; File C:\Program Files (x86)\Microsoft Visual Studio\2019\Community\VC\Tools\MSVC\14.29.30133\atlmfc\include\afxtempl.h

; 1786 : 			SetAt(newKey[0], newValue[0]);

  00217	b9 1d f3 01 00	 mov	 ecx, 127773		; 0001f31dH
; File C:\Program Files (x86)\Microsoft Visual Studio\2019\Community\VC\Tools\MSVC\14.29.30133\atlmfc\include\atlsimpstr.h

; 377  : 		return( m_pszData );

  0021c	89 45 ec	 mov	 DWORD PTR $T5[ebp], eax
; File C:\Program Files (x86)\Microsoft Visual Studio\2019\Community\VC\Tools\MSVC\14.29.30133\atlmfc\include\afxtempl.h

; 1786 : 			SetAt(newKey[0], newValue[0]);

  0021f	8b 45 e0	 mov	 eax, DWORD PTR _newKey$4[ebp]
  00222	89 45 e4	 mov	 DWORD PTR _key$1$[ebp], eax
  00225	99		 cdq
  00226	f7 f9		 idiv	 ecx

; 1534 : 	nHashBucket = nHashValue % m_nHashTableSize;

  00228	8b 7d dc	 mov	 edi, DWORD PTR _this$1$[ebp]

; 166  : 	HashVal.rem = 16807 * HashVal.rem - 2836 * HashVal.quot;

  0022b	69 c0 14 0b 00
	00		 imul	 eax, eax, 2836
  00231	69 ca a7 41 00
	00		 imul	 ecx, edx, 16807

; 1534 : 	nHashBucket = nHashValue % m_nHashTableSize;

  00237	8b 77 08	 mov	 esi, DWORD PTR [edi+8]

; 166  : 	HashVal.rem = 16807 * HashVal.rem - 2836 * HashVal.quot;

  0023a	2b c8		 sub	 ecx, eax

; 1534 : 	nHashBucket = nHashValue % m_nHashTableSize;

  0023c	8d 81 ff ff ff
	7f		 lea	 eax, DWORD PTR [ecx+2147483647]
  00242	0f 49 c1	 cmovns	 eax, ecx
  00245	33 d2		 xor	 edx, edx
  00247	89 45 e8	 mov	 DWORD PTR tv849[ebp], eax
  0024a	f7 f6		 div	 esi

; 1535 : 
; 1536 : 	if (m_pHashTable == NULL)

  0024c	8b 47 04	 mov	 eax, DWORD PTR [edi+4]
  0024f	8b ca		 mov	 ecx, edx
  00251	89 4d d8	 mov	 DWORD PTR _nHashBucket$1$[ebp], ecx
  00254	85 c0		 test	 eax, eax
  00256	75 48		 jne	 SHORT $LN75@Serialize

; 1434 : 		m_pHashTable = new CAssoc* [nHashSize];

  00258	33 c9		 xor	 ecx, ecx
  0025a	8b c6		 mov	 eax, esi
  0025c	ba 04 00 00 00	 mov	 edx, 4
  00261	f7 e2		 mul	 edx
  00263	0f 90 c1	 seto	 cl
  00266	f7 d9		 neg	 ecx
  00268	0b c8		 or	 ecx, eax
  0026a	51		 push	 ecx
  0026b	e8 00 00 00 00	 call	 ??_U@YAPAXI@Z		; operator new[]
  00270	83 c4 04	 add	 esp, 4
  00273	89 47 04	 mov	 DWORD PTR [edi+4], eax

; 1435 : 		ENSURE(m_pHashTable != NULL);

  00276	85 c0		 test	 eax, eax
  00278	0f 84 19 01 00
	00		 je	 $LN131@Serialize

; 1436 : 		memset(m_pHashTable, 0, sizeof(CAssoc*) * nHashSize);

  0027e	8d 0c b5 00 00
	00 00		 lea	 ecx, DWORD PTR [esi*4]
  00285	51		 push	 ecx
  00286	6a 00		 push	 0
  00288	50		 push	 eax
  00289	e8 00 00 00 00	 call	 _memset
  0028e	83 c4 0c	 add	 esp, 12			; 0000000cH

; 1437 : 	}
; 1438 : 	m_nHashTableSize = nHashSize;

  00291	89 77 08	 mov	 DWORD PTR [edi+8], esi

; 1595 : 		ENSURE(m_pHashTable);

  00294	83 7f 04 00	 cmp	 DWORD PTR [edi+4], 0
  00298	0f 84 f9 00 00
	00		 je	 $LN131@Serialize
  0029e	eb 24		 jmp	 SHORT $LN166@Serialize
$LN75@Serialize:

; 1541 : 	for (pAssoc = m_pHashTable[nHashBucket]; pAssoc != NULL; pAssoc = pAssoc->pNext)

  002a0	8b 34 88	 mov	 esi, DWORD PTR [eax+ecx*4]
  002a3	85 f6		 test	 esi, esi
  002a5	74 1d		 je	 SHORT $LN166@Serialize
  002a7	8b 45 e8	 mov	 eax, DWORD PTR tv849[ebp]
  002aa	8b 4d e4	 mov	 ecx, DWORD PTR _key$1$[ebp]
  002ad	0f 1f 00	 npad	 3
$LL74@Serialize:

; 1542 : 	{
; 1543 : 		if (pAssoc->nHashValue == nHashValue && CompareElements(&pAssoc->key, &key))

  002b0	39 46 0c	 cmp	 DWORD PTR [esi+12], eax
  002b3	75 08		 jne	 SHORT $LN72@Serialize
  002b5	39 0e		 cmp	 DWORD PTR [esi], ecx
  002b7	0f 84 8d 00 00
	00		 je	 $LN67@Serialize
$LN72@Serialize:

; 1537 : 		return NULL;
; 1538 : 
; 1539 : 	// see if it exists
; 1540 : 	CAssoc* pAssoc;
; 1541 : 	for (pAssoc = m_pHashTable[nHashBucket]; pAssoc != NULL; pAssoc = pAssoc->pNext)

  002bd	8b 76 08	 mov	 esi, DWORD PTR [esi+8]
  002c0	85 f6		 test	 esi, esi
  002c2	75 ec		 jne	 SHORT $LL74@Serialize
$LN166@Serialize:

; 1481 : 	if (m_pFreeList == NULL)

  002c4	83 7f 10 00	 cmp	 DWORD PTR [edi+16], 0
  002c8	75 37		 jne	 SHORT $LN105@Serialize

; 1482 : 	{
; 1483 : 		// add another block
; 1484 : 		CPlex* newBlock = CPlex::Create(m_pBlocks, m_nBlockSize, sizeof(CMap::CAssoc));

  002ca	6a 10		 push	 16			; 00000010H
  002cc	ff 77 18	 push	 DWORD PTR [edi+24]
  002cf	8d 47 14	 lea	 eax, DWORD PTR [edi+20]
  002d2	50		 push	 eax
  002d3	e8 00 00 00 00	 call	 ?Create@CPlex@@SGPAU1@AAPAU1@II@Z ; CPlex::Create

; 1485 : 		// chain them into free list
; 1486 : 		CMap::CAssoc* pAssoc = (CMap::CAssoc*) newBlock->data();
; 1487 : 		// free in reverse order to make it easier to debug
; 1488 : 		pAssoc += m_nBlockSize - 1;

  002d8	8b 57 18	 mov	 edx, DWORD PTR [edi+24]
  002db	8b ca		 mov	 ecx, edx
  002dd	c1 e1 04	 shl	 ecx, 4
  002e0	83 c1 f8	 add	 ecx, -8			; fffffff8H
  002e3	03 c8		 add	 ecx, eax

; 1489 : 		for (INT_PTR i = m_nBlockSize-1; i >= 0; i--, pAssoc--)

  002e5	83 c2 ff	 add	 edx, -1
  002e8	78 17		 js	 SHORT $LN105@Serialize
  002ea	66 0f 1f 44 00
	00		 npad	 6
$LL102@Serialize:

; 1490 : 		{
; 1491 : 			pAssoc->pNext = m_pFreeList;

  002f0	8b 47 10	 mov	 eax, DWORD PTR [edi+16]
  002f3	89 41 08	 mov	 DWORD PTR [ecx+8], eax

; 1492 : 			m_pFreeList = pAssoc;

  002f6	89 4f 10	 mov	 DWORD PTR [edi+16], ecx
  002f9	83 e9 10	 sub	 ecx, 16			; 00000010H
  002fc	83 ea 01	 sub	 edx, 1
  002ff	79 ef		 jns	 SHORT $LL102@Serialize
$LN105@Serialize:

; 1493 : 		}
; 1494 : 	}
; 1495 : 	ENSURE(m_pFreeList != NULL);  // we must have something

  00301	8b 77 10	 mov	 esi, DWORD PTR [edi+16]
  00304	85 f6		 test	 esi, esi
  00306	0f 84 8b 00 00
	00		 je	 $LN131@Serialize

; 1496 : 
; 1497 : 	CMap::CAssoc* pAssoc = m_pFreeList;
; 1498 : 
; 1499 : 	// zero the memory
; 1500 : 	CMap::CAssoc* pTemp = pAssoc->pNext;

  0030c	8b 46 08	 mov	 eax, DWORD PTR [esi+8]

; 1256 : 		CPair( ARG_KEY keyval ) : key( keyval )	{}

  0030f	8d 4e 04	 lea	 ecx, DWORD PTR [esi+4]
  00312	0f 57 c0	 xorps	 xmm0, xmm0

; 1501 : 	memset( pAssoc, 0, sizeof(CMap::CAssoc) );

  00315	0f 11 06	 movups	 XMMWORD PTR [esi], xmm0

; 1502 : 	pAssoc->pNext = pTemp;

  00318	89 46 08	 mov	 DWORD PTR [esi+8], eax

; 1503 : 
; 1504 : 	m_pFreeList = m_pFreeList->pNext;

  0031b	8b 47 10	 mov	 eax, DWORD PTR [edi+16]
  0031e	8b 40 08	 mov	 eax, DWORD PTR [eax+8]

; 1505 : 	m_nCount++;

  00321	ff 47 0c	 inc	 DWORD PTR [edi+12]
  00324	89 47 10	 mov	 DWORD PTR [edi+16], eax

; 1256 : 		CPair( ARG_KEY keyval ) : key( keyval )	{}

  00327	8b 45 e4	 mov	 eax, DWORD PTR _key$1$[ebp]
  0032a	89 06		 mov	 DWORD PTR [esi], eax
  0032c	ff 15 00 00 00
	00		 call	 DWORD PTR __imp_??0?$CStringT@DV?$StrTraitMFC_DLL@DV?$ChTraitsCRT@D@ATL@@@@@ATL@@QAE@XZ

; 1598 : 		pAssoc->nHashValue = nHashValue;

  00332	8b 45 e8	 mov	 eax, DWORD PTR tv849[ebp]

; 1599 : 		//'pAssoc->value' is a constructed object, nothing more
; 1600 : 
; 1601 : 		// put into hash table
; 1602 : 		pAssoc->pNext = m_pHashTable[nHashBucket];

  00335	8b 4d d8	 mov	 ecx, DWORD PTR _nHashBucket$1$[ebp]
  00338	89 46 0c	 mov	 DWORD PTR [esi+12], eax
  0033b	8b 47 04	 mov	 eax, DWORD PTR [edi+4]
  0033e	8b 04 88	 mov	 eax, DWORD PTR [eax+ecx*4]
  00341	89 46 08	 mov	 DWORD PTR [esi+8], eax

; 1603 : 		m_pHashTable[nHashBucket] = pAssoc;

  00344	8b 47 04	 mov	 eax, DWORD PTR [edi+4]
  00347	89 34 88	 mov	 DWORD PTR [eax+ecx*4], esi
$LN67@Serialize:

; 1350 : 	{ (*this)[key] = newValue; }

  0034a	ff 75 ec	 push	 DWORD PTR $T5[ebp]

; 1605 : 	return pAssoc->value;  // return new reference

  0034d	8d 4e 04	 lea	 ecx, DWORD PTR [esi+4]

; 1350 : 	{ (*this)[key] = newValue; }

  00350	ff 15 00 00 00
	00		 call	 DWORD PTR __imp_??4?$CStringT@DV?$StrTraitMFC_DLL@DV?$ChTraitsCRT@D@ATL@@@@@ATL@@QAEAAV01@PBD@Z

; 1787 : 		}

  00356	ff 35 00 00 00
	00		 push	 DWORD PTR __imp_??1?$CStringT@DV?$StrTraitMFC_DLL@DV?$ChTraitsCRT@D@ATL@@@@@ATL@@QAE@XZ
  0035c	8d 45 f0	 lea	 eax, DWORD PTR _newValue$6[ebp]
  0035f	c7 45 fc ff ff
	ff ff		 mov	 DWORD PTR __$EHRec$[ebp+8], -1
  00366	6a 01		 push	 1
  00368	6a 04		 push	 4
  0036a	50		 push	 eax
  0036b	e8 00 00 00 00	 call	 ??_M@YGXPAXIIP6EX0@Z@Z
  00370	8b 45 d4	 mov	 eax, DWORD PTR _nNewCount$1$[ebp]
  00373	85 c0		 test	 eax, eax
  00375	0f 85 d8 fd ff
	ff		 jne	 $LL8@Serialize

; 1788 : 	}
; 1789 : }

  0037b	8b 4d f4	 mov	 ecx, DWORD PTR __$EHRec$[ebp]
  0037e	64 89 0d 00 00
	00 00		 mov	 DWORD PTR fs:0, ecx
  00385	59		 pop	 ecx
  00386	5f		 pop	 edi
  00387	5e		 pop	 esi
  00388	8b e5		 mov	 esp, ebp
  0038a	5d		 pop	 ebp
  0038b	c2 04 00	 ret	 4
$LN123@Serialize:
  0038e	6a 00		 push	 0
  00390	6a 03		 push	 3
  00392	e8 00 00 00 00	 call	 ?AfxThrowArchiveException@@YGXHPBD@Z ; AfxThrowArchiveException
$LN131@Serialize:

; 1495 : 	ENSURE(m_pFreeList != NULL);  // we must have something

  00397	e8 00 00 00 00	 call	 ?AfxThrowInvalidArgException@@YGXXZ ; AfxThrowInvalidArgException
$LN168@Serialize:
  0039c	cc		 int	 3
_TEXT	ENDS
;	COMDAT text$x
text$x	SEGMENT
__unwindfunclet$?Serialize@?$CMap@IIV?$CStringT@DV?$StrTraitMFC_DLL@DV?$ChTraitsCRT@D@ATL@@@@@ATL@@PBD@@UAEXAAVCArchive@@@Z$0:
  00000	a1 00 00 00 00	 mov	 eax, DWORD PTR __imp_??1?$CStringT@DV?$StrTraitMFC_DLL@DV?$ChTraitsCRT@D@ATL@@@@@ATL@@QAE@XZ
  00005	50		 push	 eax
  00006	6a 01		 push	 1
  00008	6a 04		 push	 4
  0000a	8d 45 f0	 lea	 eax, DWORD PTR _newValue$6[ebp]
  0000d	50		 push	 eax
  0000e	e8 00 00 00 00	 call	 ??_M@YGXPAXIIP6EX0@Z@Z
  00013	c3		 ret	 0
  00014	cc		 int	 3
  00015	cc		 int	 3
  00016	cc		 int	 3
  00017	cc		 int	 3
  00018	cc		 int	 3
__ehhandler$?Serialize@?$CMap@IIV?$CStringT@DV?$StrTraitMFC_DLL@DV?$ChTraitsCRT@D@ATL@@@@@ATL@@PBD@@UAEXAAVCArchive@@@Z:
  00019	90		 npad	 1
  0001a	90		 npad	 1
  0001b	8b 54 24 08	 mov	 edx, DWORD PTR [esp+8]
  0001f	8d 42 0c	 lea	 eax, DWORD PTR [edx+12]
  00022	8b 4a d4	 mov	 ecx, DWORD PTR [edx-44]
  00025	33 c8		 xor	 ecx, eax
  00027	e8 00 00 00 00	 call	 @__security_check_cookie@4
  0002c	b8 00 00 00 00	 mov	 eax, OFFSET __ehfuncinfo$?Serialize@?$CMap@IIV?$CStringT@DV?$StrTraitMFC_DLL@DV?$ChTraitsCRT@D@ATL@@@@@ATL@@PBD@@UAEXAAVCArchive@@@Z
  00031	e9 00 00 00 00	 jmp	 ___CxxFrameHandler3
text$x	ENDS
?Serialize@?$CMap@IIV?$CStringT@DV?$StrTraitMFC_DLL@DV?$ChTraitsCRT@D@ATL@@@@@ATL@@PBD@@UAEXAAVCArchive@@@Z ENDP ; CMap<unsigned int,unsigned int,ATL::CStringT<char,StrTraitMFC_DLL<char,ATL::ChTraitsCRT<char> > >,char const *>::Serialize
; Function compile flags: /Ogtp
; File C:\Program Files (x86)\Microsoft Visual Studio\2019\Community\VC\Tools\MSVC\14.29.30133\atlmfc\include\afxtempl.h
;	COMDAT ??1?$CMap@IIV?$CStringT@DV?$StrTraitMFC_DLL@DV?$ChTraitsCRT@D@ATL@@@@@ATL@@PBD@@UAE@XZ
_TEXT	SEGMENT
__$EHRec$ = -12						; size = 12
??1?$CMap@IIV?$CStringT@DV?$StrTraitMFC_DLL@DV?$ChTraitsCRT@D@ATL@@@@@ATL@@PBD@@UAE@XZ PROC ; CMap<unsigned int,unsigned int,ATL::CStringT<char,StrTraitMFC_DLL<char,ATL::ChTraitsCRT<char> > >,char const *>::~CMap<unsigned int,unsigned int,ATL::CStringT<char,StrTraitMFC_DLL<char,ATL::ChTraitsCRT<char> > >,char const *>, COMDAT
; _this$ = ecx

; 1472 : {

  00000	55		 push	 ebp
  00001	8b ec		 mov	 ebp, esp
  00003	6a ff		 push	 -1
  00005	68 00 00 00 00	 push	 __ehhandler$??1?$CMap@IIV?$CStringT@DV?$StrTraitMFC_DLL@DV?$ChTraitsCRT@D@ATL@@@@@ATL@@PBD@@UAE@XZ
  0000a	64 a1 00 00 00
	00		 mov	 eax, DWORD PTR fs:0
  00010	50		 push	 eax
  00011	a1 00 00 00 00	 mov	 eax, DWORD PTR ___security_cookie
  00016	33 c5		 xor	 eax, ebp
  00018	50		 push	 eax
  00019	8d 45 f4	 lea	 eax, DWORD PTR __$EHRec$[ebp]
  0001c	64 a3 00 00 00
	00		 mov	 DWORD PTR fs:0, eax
  00022	c7 01 00 00 00
	00		 mov	 DWORD PTR [ecx], OFFSET ??_7?$CMap@IIV?$CStringT@DV?$StrTraitMFC_DLL@DV?$ChTraitsCRT@D@ATL@@@@@ATL@@PBD@@6B@

; 1473 : 	RemoveAll();

  00028	e8 00 00 00 00	 call	 ?RemoveAll@?$CMap@IIV?$CStringT@DV?$StrTraitMFC_DLL@DV?$ChTraitsCRT@D@ATL@@@@@ATL@@PBD@@QAEXXZ ; CMap<unsigned int,unsigned int,ATL::CStringT<char,StrTraitMFC_DLL<char,ATL::ChTraitsCRT<char> > >,char const *>::RemoveAll

; 1474 : 	ASSERT(m_nCount == 0);
; 1475 : }

  0002d	8b 4d f4	 mov	 ecx, DWORD PTR __$EHRec$[ebp]
  00030	64 89 0d 00 00
	00 00		 mov	 DWORD PTR fs:0, ecx
  00037	59		 pop	 ecx
  00038	8b e5		 mov	 esp, ebp
  0003a	5d		 pop	 ebp
  0003b	c3		 ret	 0
  0003c	cc		 int	 3
  0003d	cc		 int	 3
  0003e	cc		 int	 3
  0003f	cc		 int	 3
  00040	cc		 int	 3
_TEXT	ENDS
;	COMDAT text$x
text$x	SEGMENT
__ehhandler$??1?$CMap@IIV?$CStringT@DV?$StrTraitMFC_DLL@DV?$ChTraitsCRT@D@ATL@@@@@ATL@@PBD@@UAE@XZ:
  00000	90		 npad	 1
  00001	90		 npad	 1
  00002	8b 54 24 08	 mov	 edx, DWORD PTR [esp+8]
  00006	8d 42 0c	 lea	 eax, DWORD PTR [edx+12]
  00009	8b 4a fc	 mov	 ecx, DWORD PTR [edx-4]
  0000c	33 c8		 xor	 ecx, eax
  0000e	e8 00 00 00 00	 call	 @__security_check_cookie@4
  00013	b8 00 00 00 00	 mov	 eax, OFFSET __ehfuncinfo$??1?$CMap@IIV?$CStringT@DV?$StrTraitMFC_DLL@DV?$ChTraitsCRT@D@ATL@@@@@ATL@@PBD@@UAE@XZ
  00018	e9 00 00 00 00	 jmp	 ___CxxFrameHandler3
text$x	ENDS
??1?$CMap@IIV?$CStringT@DV?$StrTraitMFC_DLL@DV?$ChTraitsCRT@D@ATL@@@@@ATL@@PBD@@UAE@XZ ENDP ; CMap<unsigned int,unsigned int,ATL::CStringT<char,StrTraitMFC_DLL<char,ATL::ChTraitsCRT<char> > >,char const *>::~CMap<unsigned int,unsigned int,ATL::CStringT<char,StrTraitMFC_DLL<char,ATL::ChTraitsCRT<char> > >,char const *>
; Function compile flags: /Ogtp
; File C:\Program Files (x86)\Microsoft Visual Studio\2019\Community\VC\Tools\MSVC\14.29.30133\atlmfc\include\afxtempl.h
;	COMDAT ?GetAssocAt@?$CMap@IIV?$CStringT@DV?$StrTraitMFC_DLL@DV?$ChTraitsCRT@D@ATL@@@@@ATL@@PBD@@IBEPAVCAssoc@1@IAAI0@Z
_TEXT	SEGMENT
_key$ = 8						; size = 4
_nHashBucket$ = 12					; size = 4
_nHashValue$ = 16					; size = 4
?GetAssocAt@?$CMap@IIV?$CStringT@DV?$StrTraitMFC_DLL@DV?$ChTraitsCRT@D@ATL@@@@@ATL@@PBD@@IBEPAVCAssoc@1@IAAI0@Z PROC ; CMap<unsigned int,unsigned int,ATL::CStringT<char,StrTraitMFC_DLL<char,ATL::ChTraitsCRT<char> > >,char const *>::GetAssocAt, COMDAT
; _this$ = ecx

; 1532 : {

  00000	55		 push	 ebp
  00001	8b ec		 mov	 ebp, esp
  00003	56		 push	 esi
  00004	8b f1		 mov	 esi, ecx

; 165  : 	ldiv_t HashVal = ldiv((long)(ARG_KEY)key, 127773);

  00006	b9 1d f3 01 00	 mov	 ecx, 127773		; 0001f31dH

; 1532 : {

  0000b	57		 push	 edi

; 165  : 	ldiv_t HashVal = ldiv((long)(ARG_KEY)key, 127773);

  0000c	8b 7d 08	 mov	 edi, DWORD PTR _key$[ebp]
  0000f	8b c7		 mov	 eax, edi
  00011	99		 cdq
  00012	f7 f9		 idiv	 ecx

; 166  : 	HashVal.rem = 16807 * HashVal.rem - 2836 * HashVal.quot;

  00014	69 c0 14 0b 00
	00		 imul	 eax, eax, 2836
  0001a	69 ca a7 41 00
	00		 imul	 ecx, edx, 16807
  00020	2b c8		 sub	 ecx, eax

; 1533 : 	nHashValue = HashKey<ARG_KEY>(key);

  00022	8d 81 ff ff ff
	7f		 lea	 eax, DWORD PTR [ecx+2147483647]
  00028	0f 49 c1	 cmovns	 eax, ecx
  0002b	8b 4d 10	 mov	 ecx, DWORD PTR _nHashValue$[ebp]

; 1534 : 	nHashBucket = nHashValue % m_nHashTableSize;

  0002e	33 d2		 xor	 edx, edx
  00030	89 01		 mov	 DWORD PTR [ecx], eax
  00032	f7 76 08	 div	 DWORD PTR [esi+8]
  00035	8b 45 0c	 mov	 eax, DWORD PTR _nHashBucket$[ebp]
  00038	89 10		 mov	 DWORD PTR [eax], edx

; 1535 : 
; 1536 : 	if (m_pHashTable == NULL)

  0003a	8b 46 04	 mov	 eax, DWORD PTR [esi+4]
  0003d	85 c0		 test	 eax, eax
  0003f	74 1f		 je	 SHORT $LN26@GetAssocAt

; 1537 : 		return NULL;
; 1538 : 
; 1539 : 	// see if it exists
; 1540 : 	CAssoc* pAssoc;
; 1541 : 	for (pAssoc = m_pHashTable[nHashBucket]; pAssoc != NULL; pAssoc = pAssoc->pNext)

  00041	8b 04 90	 mov	 eax, DWORD PTR [eax+edx*4]
  00044	85 c0		 test	 eax, eax
  00046	74 18		 je	 SHORT $LN26@GetAssocAt

; 1542 : 	{
; 1543 : 		if (pAssoc->nHashValue == nHashValue && CompareElements(&pAssoc->key, &key))

  00048	8b 09		 mov	 ecx, DWORD PTR [ecx]
  0004a	66 0f 1f 44 00
	00		 npad	 6
$LL4@GetAssocAt:
  00050	39 48 0c	 cmp	 DWORD PTR [eax+12], ecx
  00053	75 04		 jne	 SHORT $LN2@GetAssocAt

; 156  : 	return *pElement1 == *pElement2;

  00055	39 38		 cmp	 DWORD PTR [eax], edi

; 1542 : 	{
; 1543 : 		if (pAssoc->nHashValue == nHashValue && CompareElements(&pAssoc->key, &key))

  00057	74 09		 je	 SHORT $LN1@GetAssocAt
$LN2@GetAssocAt:

; 1537 : 		return NULL;
; 1538 : 
; 1539 : 	// see if it exists
; 1540 : 	CAssoc* pAssoc;
; 1541 : 	for (pAssoc = m_pHashTable[nHashBucket]; pAssoc != NULL; pAssoc = pAssoc->pNext)

  00059	8b 40 08	 mov	 eax, DWORD PTR [eax+8]
  0005c	85 c0		 test	 eax, eax
  0005e	75 f0		 jne	 SHORT $LL4@GetAssocAt
$LN26@GetAssocAt:

; 1544 : 			return pAssoc;
; 1545 : 	}
; 1546 : 	return NULL;

  00060	33 c0		 xor	 eax, eax
$LN1@GetAssocAt:
  00062	5f		 pop	 edi

; 1547 : }

  00063	5e		 pop	 esi
  00064	5d		 pop	 ebp
  00065	c2 0c 00	 ret	 12			; 0000000cH
?GetAssocAt@?$CMap@IIV?$CStringT@DV?$StrTraitMFC_DLL@DV?$ChTraitsCRT@D@ATL@@@@@ATL@@PBD@@IBEPAVCAssoc@1@IAAI0@Z ENDP ; CMap<unsigned int,unsigned int,ATL::CStringT<char,StrTraitMFC_DLL<char,ATL::ChTraitsCRT<char> > >,char const *>::GetAssocAt
_TEXT	ENDS
; Function compile flags: /Ogtp
; File C:\Program Files (x86)\Microsoft Visual Studio\2019\Community\VC\Tools\MSVC\14.29.30133\atlmfc\include\afxtempl.h
;	COMDAT ?NewAssoc@?$CMap@IIV?$CStringT@DV?$StrTraitMFC_DLL@DV?$ChTraitsCRT@D@ATL@@@@@ATL@@PBD@@IAEPAVCAssoc@1@I@Z
_TEXT	SEGMENT
_key$ = 8						; size = 4
?NewAssoc@?$CMap@IIV?$CStringT@DV?$StrTraitMFC_DLL@DV?$ChTraitsCRT@D@ATL@@@@@ATL@@PBD@@IAEPAVCAssoc@1@I@Z PROC ; CMap<unsigned int,unsigned int,ATL::CStringT<char,StrTraitMFC_DLL<char,ATL::ChTraitsCRT<char> > >,char const *>::NewAssoc, COMDAT
; _this$ = ecx

; 1480 : {

  00000	55		 push	 ebp
  00001	8b ec		 mov	 ebp, esp
  00003	56		 push	 esi
  00004	8b f1		 mov	 esi, ecx
  00006	57		 push	 edi

; 1481 : 	if (m_pFreeList == NULL)

  00007	83 7e 10 00	 cmp	 DWORD PTR [esi+16], 0
  0000b	75 34		 jne	 SHORT $LN7@NewAssoc

; 1482 : 	{
; 1483 : 		// add another block
; 1484 : 		CPlex* newBlock = CPlex::Create(m_pBlocks, m_nBlockSize, sizeof(CMap::CAssoc));

  0000d	6a 10		 push	 16			; 00000010H
  0000f	ff 76 18	 push	 DWORD PTR [esi+24]
  00012	8d 46 14	 lea	 eax, DWORD PTR [esi+20]
  00015	50		 push	 eax
  00016	e8 00 00 00 00	 call	 ?Create@CPlex@@SGPAU1@AAPAU1@II@Z ; CPlex::Create

; 1485 : 		// chain them into free list
; 1486 : 		CMap::CAssoc* pAssoc = (CMap::CAssoc*) newBlock->data();
; 1487 : 		// free in reverse order to make it easier to debug
; 1488 : 		pAssoc += m_nBlockSize - 1;

  0001b	8b 56 18	 mov	 edx, DWORD PTR [esi+24]
  0001e	83 c0 08	 add	 eax, 8
  00021	8b ca		 mov	 ecx, edx
  00023	c1 e1 04	 shl	 ecx, 4
  00026	83 c1 f0	 add	 ecx, -16		; fffffff0H
  00029	03 c1		 add	 eax, ecx

; 1489 : 		for (INT_PTR i = m_nBlockSize-1; i >= 0; i--, pAssoc--)

  0002b	83 c2 ff	 add	 edx, -1
  0002e	78 11		 js	 SHORT $LN7@NewAssoc
$LL4@NewAssoc:

; 1490 : 		{
; 1491 : 			pAssoc->pNext = m_pFreeList;

  00030	8b 4e 10	 mov	 ecx, DWORD PTR [esi+16]
  00033	89 48 08	 mov	 DWORD PTR [eax+8], ecx

; 1492 : 			m_pFreeList = pAssoc;

  00036	89 46 10	 mov	 DWORD PTR [esi+16], eax
  00039	83 e8 10	 sub	 eax, 16			; 00000010H
  0003c	83 ea 01	 sub	 edx, 1
  0003f	79 ef		 jns	 SHORT $LL4@NewAssoc
$LN7@NewAssoc:

; 1493 : 		}
; 1494 : 	}
; 1495 : 	ENSURE(m_pFreeList != NULL);  // we must have something

  00041	8b 7e 10	 mov	 edi, DWORD PTR [esi+16]
  00044	85 ff		 test	 edi, edi
  00046	74 2e		 je	 SHORT $LN21@NewAssoc

; 1496 : 
; 1497 : 	CMap::CAssoc* pAssoc = m_pFreeList;
; 1498 : 
; 1499 : 	// zero the memory
; 1500 : 	CMap::CAssoc* pTemp = pAssoc->pNext;

  00048	8b 47 08	 mov	 eax, DWORD PTR [edi+8]
  0004b	0f 57 c0	 xorps	 xmm0, xmm0

; 1501 : 	memset( pAssoc, 0, sizeof(CMap::CAssoc) );

  0004e	0f 11 07	 movups	 XMMWORD PTR [edi], xmm0

; 1502 : 	pAssoc->pNext = pTemp;

  00051	89 47 08	 mov	 DWORD PTR [edi+8], eax

; 1503 : 
; 1504 : 	m_pFreeList = m_pFreeList->pNext;

  00054	8b 4e 10	 mov	 ecx, DWORD PTR [esi+16]
  00057	8b 49 08	 mov	 ecx, DWORD PTR [ecx+8]

; 1505 : 	m_nCount++;

  0005a	ff 46 0c	 inc	 DWORD PTR [esi+12]
  0005d	89 4e 10	 mov	 DWORD PTR [esi+16], ecx

; 1256 : 		CPair( ARG_KEY keyval ) : key( keyval )	{}

  00060	8b 4d 08	 mov	 ecx, DWORD PTR _key$[ebp]
  00063	89 0f		 mov	 DWORD PTR [edi], ecx
  00065	8d 4f 04	 lea	 ecx, DWORD PTR [edi+4]
  00068	ff 15 00 00 00
	00		 call	 DWORD PTR __imp_??0?$CStringT@DV?$StrTraitMFC_DLL@DV?$ChTraitsCRT@D@ATL@@@@@ATL@@QAE@XZ

; 1506 : 	ASSERT(m_nCount > 0);  // make sure we don't overflow
; 1507 : #pragma push_macro("new")
; 1508 : #undef new
; 1509 : 	::new(pAssoc) CMap::CAssoc(key);
; 1510 : #pragma pop_macro("new")
; 1511 : 	return pAssoc;

  0006e	8b c7		 mov	 eax, edi
  00070	5f		 pop	 edi
  00071	5e		 pop	 esi

; 1512 : }

  00072	5d		 pop	 ebp
  00073	c2 04 00	 ret	 4
$LN21@NewAssoc:

; 1493 : 		}
; 1494 : 	}
; 1495 : 	ENSURE(m_pFreeList != NULL);  // we must have something

  00076	e8 00 00 00 00	 call	 ?AfxThrowInvalidArgException@@YGXXZ ; AfxThrowInvalidArgException
$LN19@NewAssoc:
  0007b	cc		 int	 3
?NewAssoc@?$CMap@IIV?$CStringT@DV?$StrTraitMFC_DLL@DV?$ChTraitsCRT@D@ATL@@@@@ATL@@PBD@@IAEPAVCAssoc@1@I@Z ENDP ; CMap<unsigned int,unsigned int,ATL::CStringT<char,StrTraitMFC_DLL<char,ATL::ChTraitsCRT<char> > >,char const *>::NewAssoc
_TEXT	ENDS
; Function compile flags: /Ogtp
; File C:\Program Files (x86)\Microsoft Visual Studio\2019\Community\VC\Tools\MSVC\14.29.30133\atlmfc\include\afxtempl.h
;	COMDAT ?InitHashTable@?$CMap@IIV?$CStringT@DV?$StrTraitMFC_DLL@DV?$ChTraitsCRT@D@ATL@@@@@ATL@@PBD@@QAEXIH@Z
_TEXT	SEGMENT
_nHashSize$ = 8						; size = 4
_bAllocNow$ = 12					; size = 4
?InitHashTable@?$CMap@IIV?$CStringT@DV?$StrTraitMFC_DLL@DV?$ChTraitsCRT@D@ATL@@@@@ATL@@PBD@@QAEXIH@Z PROC ; CMap<unsigned int,unsigned int,ATL::CStringT<char,StrTraitMFC_DLL<char,ATL::ChTraitsCRT<char> > >,char const *>::InitHashTable, COMDAT
; _this$ = ecx

; 1420 : {

  00000	55		 push	 ebp
  00001	8b ec		 mov	 ebp, esp
  00003	56		 push	 esi
  00004	8b f1		 mov	 esi, ecx
  00006	57		 push	 edi

; 1421 : 	ASSERT_VALID(this);
; 1422 : 	ASSERT(m_nCount == 0);
; 1423 : 	ASSERT(nHashSize > 0);
; 1424 : 
; 1425 : 	if (m_pHashTable != NULL)

  00007	8b 46 04	 mov	 eax, DWORD PTR [esi+4]
  0000a	85 c0		 test	 eax, eax
  0000c	74 10		 je	 SHORT $LN5@InitHashTa

; 1426 : 	{
; 1427 : 		// free hash table
; 1428 : 		delete[] m_pHashTable;

  0000e	50		 push	 eax
  0000f	e8 00 00 00 00	 call	 ??_V@YAXPAX@Z		; operator delete[]
  00014	83 c4 04	 add	 esp, 4

; 1429 : 		m_pHashTable = NULL;

  00017	c7 46 04 00 00
	00 00		 mov	 DWORD PTR [esi+4], 0
$LN5@InitHashTa:

; 1430 : 	}
; 1431 : 
; 1432 : 	if (bAllocNow)

  0001e	83 7d 0c 00	 cmp	 DWORD PTR _bAllocNow$[ebp], 0
  00022	8b 7d 08	 mov	 edi, DWORD PTR _nHashSize$[ebp]
  00025	74 37		 je	 SHORT $LN6@InitHashTa

; 1433 : 	{
; 1434 : 		m_pHashTable = new CAssoc* [nHashSize];

  00027	33 c9		 xor	 ecx, ecx
  00029	8b c7		 mov	 eax, edi
  0002b	ba 04 00 00 00	 mov	 edx, 4
  00030	f7 e2		 mul	 edx
  00032	0f 90 c1	 seto	 cl
  00035	f7 d9		 neg	 ecx
  00037	0b c8		 or	 ecx, eax
  00039	51		 push	 ecx
  0003a	e8 00 00 00 00	 call	 ??_U@YAPAXI@Z		; operator new[]
  0003f	8b c8		 mov	 ecx, eax
  00041	83 c4 04	 add	 esp, 4
  00044	89 4e 04	 mov	 DWORD PTR [esi+4], ecx

; 1435 : 		ENSURE(m_pHashTable != NULL);

  00047	85 c9		 test	 ecx, ecx
  00049	74 1c		 je	 SHORT $LN11@InitHashTa

; 1436 : 		memset(m_pHashTable, 0, sizeof(CAssoc*) * nHashSize);

  0004b	8d 04 bd 00 00
	00 00		 lea	 eax, DWORD PTR [edi*4]
  00052	50		 push	 eax
  00053	6a 00		 push	 0
  00055	51		 push	 ecx
  00056	e8 00 00 00 00	 call	 _memset
  0005b	83 c4 0c	 add	 esp, 12			; 0000000cH
$LN6@InitHashTa:

; 1437 : 	}
; 1438 : 	m_nHashTableSize = nHashSize;

  0005e	89 7e 08	 mov	 DWORD PTR [esi+8], edi
  00061	5f		 pop	 edi
  00062	5e		 pop	 esi

; 1439 : }

  00063	5d		 pop	 ebp
  00064	c2 08 00	 ret	 8
$LN11@InitHashTa:

; 1435 : 		ENSURE(m_pHashTable != NULL);

  00067	e8 00 00 00 00	 call	 ?AfxThrowInvalidArgException@@YGXXZ ; AfxThrowInvalidArgException
$LN9@InitHashTa:
  0006c	cc		 int	 3
?InitHashTable@?$CMap@IIV?$CStringT@DV?$StrTraitMFC_DLL@DV?$ChTraitsCRT@D@ATL@@@@@ATL@@PBD@@QAEXIH@Z ENDP ; CMap<unsigned int,unsigned int,ATL::CStringT<char,StrTraitMFC_DLL<char,ATL::ChTraitsCRT<char> > >,char const *>::InitHashTable
_TEXT	ENDS
; Function compile flags: /Ogtp
; File C:\Program Files (x86)\Microsoft Visual Studio\2019\Community\VC\Tools\MSVC\14.29.30133\atlmfc\include\afxtempl.h
;	COMDAT ?RemoveAll@?$CMap@IIV?$CStringT@DV?$StrTraitMFC_DLL@DV?$ChTraitsCRT@D@ATL@@@@@ATL@@PBD@@QAEXXZ
_TEXT	SEGMENT
?RemoveAll@?$CMap@IIV?$CStringT@DV?$StrTraitMFC_DLL@DV?$ChTraitsCRT@D@ATL@@@@@ATL@@PBD@@QAEXXZ PROC ; CMap<unsigned int,unsigned int,ATL::CStringT<char,StrTraitMFC_DLL<char,ATL::ChTraitsCRT<char> > >,char const *>::RemoveAll, COMDAT
; _this$ = ecx

; 1443 : {

  00000	57		 push	 edi
  00001	8b f9		 mov	 edi, ecx

; 1444 : 	ASSERT_VALID(this);
; 1445 : 
; 1446 : 	if (m_pHashTable != NULL)

  00003	8b 47 04	 mov	 eax, DWORD PTR [edi+4]
  00006	85 c0		 test	 eax, eax
  00008	74 45		 je	 SHORT $LN8@RemoveAll

; 1447 : 	{
; 1448 : 		// destroy elements (values and keys)
; 1449 : 		for (UINT nHash = 0; nHash < m_nHashTableSize; nHash++)

  0000a	53		 push	 ebx
  0000b	33 db		 xor	 ebx, ebx
  0000d	39 5f 08	 cmp	 DWORD PTR [edi+8], ebx
  00010	76 2c		 jbe	 SHORT $LN3@RemoveAll
  00012	56		 push	 esi
$LL4@RemoveAll:

; 1450 : 		{
; 1451 : 			CAssoc* pAssoc;
; 1452 : 			for (pAssoc = m_pHashTable[nHash]; pAssoc != NULL;

  00013	8b 34 98	 mov	 esi, DWORD PTR [eax+ebx*4]
  00016	8b c8		 mov	 ecx, eax
  00018	85 f6		 test	 esi, esi
  0001a	74 19		 je	 SHORT $LN2@RemoveAll
  0001c	0f 1f 40 00	 npad	 4
$LL7@RemoveAll:
  00020	8d 4e 04	 lea	 ecx, DWORD PTR [esi+4]
  00023	ff 15 00 00 00
	00		 call	 DWORD PTR __imp_??1?$CStringT@DV?$StrTraitMFC_DLL@DV?$ChTraitsCRT@D@ATL@@@@@ATL@@QAE@XZ

; 1453 : 			  pAssoc = pAssoc->pNext)

  00029	8b 76 08	 mov	 esi, DWORD PTR [esi+8]
  0002c	85 f6		 test	 esi, esi
  0002e	75 f0		 jne	 SHORT $LL7@RemoveAll
  00030	8b 47 04	 mov	 eax, DWORD PTR [edi+4]
  00033	8b c8		 mov	 ecx, eax
$LN2@RemoveAll:

; 1447 : 	{
; 1448 : 		// destroy elements (values and keys)
; 1449 : 		for (UINT nHash = 0; nHash < m_nHashTableSize; nHash++)

  00035	43		 inc	 ebx
  00036	3b 5f 08	 cmp	 ebx, DWORD PTR [edi+8]
  00039	72 d8		 jb	 SHORT $LL4@RemoveAll
  0003b	8b c1		 mov	 eax, ecx
  0003d	5e		 pop	 esi
$LN3@RemoveAll:

; 1454 : 			{
; 1455 : 				pAssoc->CAssoc::~CAssoc();
; 1456 : 			}
; 1457 : 		}
; 1458 : 
; 1459 : 		// free hash table
; 1460 : 		delete[] m_pHashTable;

  0003e	50		 push	 eax
  0003f	e8 00 00 00 00	 call	 ??_V@YAXPAX@Z		; operator delete[]
  00044	83 c4 04	 add	 esp, 4

; 1461 : 		m_pHashTable = NULL;

  00047	c7 47 04 00 00
	00 00		 mov	 DWORD PTR [edi+4], 0
  0004e	5b		 pop	 ebx
$LN8@RemoveAll:

; 1462 : 	}
; 1463 : 
; 1464 : 	m_nCount = 0;
; 1465 : 	m_pFreeList = NULL;
; 1466 : 	m_pBlocks->FreeDataChain();

  0004f	8b 4f 14	 mov	 ecx, DWORD PTR [edi+20]
  00052	c7 47 0c 00 00
	00 00		 mov	 DWORD PTR [edi+12], 0
  00059	c7 47 10 00 00
	00 00		 mov	 DWORD PTR [edi+16], 0
  00060	e8 00 00 00 00	 call	 ?FreeDataChain@CPlex@@QAEXXZ ; CPlex::FreeDataChain

; 1467 : 	m_pBlocks = NULL;

  00065	c7 47 14 00 00
	00 00		 mov	 DWORD PTR [edi+20], 0
  0006c	5f		 pop	 edi

; 1468 : }

  0006d	c3		 ret	 0
?RemoveAll@?$CMap@IIV?$CStringT@DV?$StrTraitMFC_DLL@DV?$ChTraitsCRT@D@ATL@@@@@ATL@@PBD@@QAEXXZ ENDP ; CMap<unsigned int,unsigned int,ATL::CStringT<char,StrTraitMFC_DLL<char,ATL::ChTraitsCRT<char> > >,char const *>::RemoveAll
_TEXT	ENDS
; Function compile flags: /Ogtp
; File C:\Program Files (x86)\Microsoft Visual Studio\2019\Community\VC\Tools\MSVC\14.29.30133\atlmfc\include\afxtempl.h
;	COMDAT ??A?$CMap@IIV?$CStringT@DV?$StrTraitMFC_DLL@DV?$ChTraitsCRT@D@ATL@@@@@ATL@@PBD@@QAEAAV?$CStringT@DV?$StrTraitMFC_DLL@DV?$ChTraitsCRT@D@ATL@@@@@ATL@@I@Z
_TEXT	SEGMENT
_nHashBucket$ = -8					; size = 4
_nHashValue$ = -4					; size = 4
_key$ = 8						; size = 4
??A?$CMap@IIV?$CStringT@DV?$StrTraitMFC_DLL@DV?$ChTraitsCRT@D@ATL@@@@@ATL@@PBD@@QAEAAV?$CStringT@DV?$StrTraitMFC_DLL@DV?$ChTraitsCRT@D@ATL@@@@@ATL@@I@Z PROC ; CMap<unsigned int,unsigned int,ATL::CStringT<char,StrTraitMFC_DLL<char,ATL::ChTraitsCRT<char> > >,char const *>::operator[], COMDAT
; _this$ = ecx

; 1585 : {

  00000	55		 push	 ebp
  00001	8b ec		 mov	 ebp, esp
  00003	83 ec 08	 sub	 esp, 8

; 1586 : 	ASSERT_VALID(this);
; 1587 : 
; 1588 : 	UINT nHashBucket, nHashValue;
; 1589 : 	CAssoc* pAssoc;
; 1590 : 	if ((pAssoc = GetAssocAt(key, nHashBucket, nHashValue)) == NULL)

  00006	8d 45 fc	 lea	 eax, DWORD PTR _nHashValue$[ebp]
  00009	53		 push	 ebx
  0000a	8b 5d 08	 mov	 ebx, DWORD PTR _key$[ebp]
  0000d	56		 push	 esi
  0000e	57		 push	 edi
  0000f	50		 push	 eax
  00010	8d 45 f8	 lea	 eax, DWORD PTR _nHashBucket$[ebp]
  00013	8b f1		 mov	 esi, ecx
  00015	50		 push	 eax
  00016	53		 push	 ebx
  00017	e8 00 00 00 00	 call	 ?GetAssocAt@?$CMap@IIV?$CStringT@DV?$StrTraitMFC_DLL@DV?$ChTraitsCRT@D@ATL@@@@@ATL@@PBD@@IBEPAVCAssoc@1@IAAI0@Z ; CMap<unsigned int,unsigned int,ATL::CStringT<char,StrTraitMFC_DLL<char,ATL::ChTraitsCRT<char> > >,char const *>::GetAssocAt
  0001c	8b f8		 mov	 edi, eax
  0001e	85 ff		 test	 edi, edi
  00020	0f 85 d4 00 00
	00		 jne	 $LN5@operator

; 1591 : 	{
; 1592 : 		if (m_pHashTable == NULL)

  00026	8b 46 04	 mov	 eax, DWORD PTR [esi+4]
  00029	85 c0		 test	 eax, eax
  0002b	75 4a		 jne	 SHORT $LN39@operator

; 1593 : 			InitHashTable(m_nHashTableSize);

  0002d	8b 7e 08	 mov	 edi, DWORD PTR [esi+8]

; 1434 : 		m_pHashTable = new CAssoc* [nHashSize];

  00030	33 c9		 xor	 ecx, ecx
  00032	8b c7		 mov	 eax, edi
  00034	ba 04 00 00 00	 mov	 edx, 4
  00039	f7 e2		 mul	 edx
  0003b	0f 90 c1	 seto	 cl
  0003e	f7 d9		 neg	 ecx
  00040	0b c8		 or	 ecx, eax
  00042	51		 push	 ecx
  00043	e8 00 00 00 00	 call	 ??_U@YAPAXI@Z		; operator new[]
  00048	83 c4 04	 add	 esp, 4
  0004b	89 46 04	 mov	 DWORD PTR [esi+4], eax

; 1435 : 		ENSURE(m_pHashTable != NULL);

  0004e	85 c0		 test	 eax, eax
  00050	0f 84 b0 00 00
	00		 je	 $LN36@operator

; 1436 : 		memset(m_pHashTable, 0, sizeof(CAssoc*) * nHashSize);

  00056	8d 0c bd 00 00
	00 00		 lea	 ecx, DWORD PTR [edi*4]
  0005d	51		 push	 ecx
  0005e	6a 00		 push	 0
  00060	50		 push	 eax
  00061	e8 00 00 00 00	 call	 _memset

; 1437 : 	}
; 1438 : 	m_nHashTableSize = nHashSize;

  00066	8b 46 04	 mov	 eax, DWORD PTR [esi+4]
  00069	83 c4 0c	 add	 esp, 12			; 0000000cH
  0006c	89 7e 08	 mov	 DWORD PTR [esi+8], edi

; 1594 : 
; 1595 : 		ENSURE(m_pHashTable);

  0006f	85 c0		 test	 eax, eax
  00071	0f 84 8f 00 00
	00		 je	 $LN36@operator
$LN39@operator:

; 1481 : 	if (m_pFreeList == NULL)

  00077	83 7e 10 00	 cmp	 DWORD PTR [esi+16], 0
  0007b	75 34		 jne	 SHORT $LN24@operator

; 1482 : 	{
; 1483 : 		// add another block
; 1484 : 		CPlex* newBlock = CPlex::Create(m_pBlocks, m_nBlockSize, sizeof(CMap::CAssoc));

  0007d	6a 10		 push	 16			; 00000010H
  0007f	ff 76 18	 push	 DWORD PTR [esi+24]
  00082	8d 46 14	 lea	 eax, DWORD PTR [esi+20]
  00085	50		 push	 eax
  00086	e8 00 00 00 00	 call	 ?Create@CPlex@@SGPAU1@AAPAU1@II@Z ; CPlex::Create

; 1485 : 		// chain them into free list
; 1486 : 		CMap::CAssoc* pAssoc = (CMap::CAssoc*) newBlock->data();
; 1487 : 		// free in reverse order to make it easier to debug
; 1488 : 		pAssoc += m_nBlockSize - 1;

  0008b	8b 56 18	 mov	 edx, DWORD PTR [esi+24]
  0008e	83 c0 08	 add	 eax, 8
  00091	8b ca		 mov	 ecx, edx
  00093	c1 e1 04	 shl	 ecx, 4
  00096	83 c1 f0	 add	 ecx, -16		; fffffff0H
  00099	03 c8		 add	 ecx, eax

; 1489 : 		for (INT_PTR i = m_nBlockSize-1; i >= 0; i--, pAssoc--)

  0009b	83 c2 ff	 add	 edx, -1
  0009e	78 11		 js	 SHORT $LN24@operator
$LL21@operator:

; 1490 : 		{
; 1491 : 			pAssoc->pNext = m_pFreeList;

  000a0	8b 46 10	 mov	 eax, DWORD PTR [esi+16]
  000a3	89 41 08	 mov	 DWORD PTR [ecx+8], eax

; 1492 : 			m_pFreeList = pAssoc;

  000a6	89 4e 10	 mov	 DWORD PTR [esi+16], ecx
  000a9	83 e9 10	 sub	 ecx, 16			; 00000010H
  000ac	83 ea 01	 sub	 edx, 1
  000af	79 ef		 jns	 SHORT $LL21@operator
$LN24@operator:

; 1493 : 		}
; 1494 : 	}
; 1495 : 	ENSURE(m_pFreeList != NULL);  // we must have something

  000b1	8b 7e 10	 mov	 edi, DWORD PTR [esi+16]
  000b4	85 ff		 test	 edi, edi
  000b6	74 4e		 je	 SHORT $LN36@operator

; 1496 : 
; 1497 : 	CMap::CAssoc* pAssoc = m_pFreeList;
; 1498 : 
; 1499 : 	// zero the memory
; 1500 : 	CMap::CAssoc* pTemp = pAssoc->pNext;

  000b8	8b 47 08	 mov	 eax, DWORD PTR [edi+8]

; 1256 : 		CPair( ARG_KEY keyval ) : key( keyval )	{}

  000bb	8d 4f 04	 lea	 ecx, DWORD PTR [edi+4]
  000be	0f 57 c0	 xorps	 xmm0, xmm0

; 1501 : 	memset( pAssoc, 0, sizeof(CMap::CAssoc) );

  000c1	0f 11 07	 movups	 XMMWORD PTR [edi], xmm0

; 1502 : 	pAssoc->pNext = pTemp;

  000c4	89 47 08	 mov	 DWORD PTR [edi+8], eax

; 1503 : 
; 1504 : 	m_pFreeList = m_pFreeList->pNext;

  000c7	8b 46 10	 mov	 eax, DWORD PTR [esi+16]
  000ca	8b 40 08	 mov	 eax, DWORD PTR [eax+8]

; 1505 : 	m_nCount++;

  000cd	ff 46 0c	 inc	 DWORD PTR [esi+12]
  000d0	89 46 10	 mov	 DWORD PTR [esi+16], eax

; 1256 : 		CPair( ARG_KEY keyval ) : key( keyval )	{}

  000d3	89 1f		 mov	 DWORD PTR [edi], ebx
  000d5	ff 15 00 00 00
	00		 call	 DWORD PTR __imp_??0?$CStringT@DV?$StrTraitMFC_DLL@DV?$ChTraitsCRT@D@ATL@@@@@ATL@@QAE@XZ

; 1596 : 		// it doesn't exist, add a new Association
; 1597 : 		pAssoc = NewAssoc(key);
; 1598 : 		pAssoc->nHashValue = nHashValue;

  000db	8b 45 fc	 mov	 eax, DWORD PTR _nHashValue$[ebp]
  000de	89 47 0c	 mov	 DWORD PTR [edi+12], eax

; 1599 : 		//'pAssoc->value' is a constructed object, nothing more
; 1600 : 
; 1601 : 		// put into hash table
; 1602 : 		pAssoc->pNext = m_pHashTable[nHashBucket];

  000e1	8b 45 f8	 mov	 eax, DWORD PTR _nHashBucket$[ebp]
  000e4	8d 0c 85 00 00
	00 00		 lea	 ecx, DWORD PTR [eax*4]
  000eb	8b 46 04	 mov	 eax, DWORD PTR [esi+4]
  000ee	8b 04 01	 mov	 eax, DWORD PTR [ecx+eax]
  000f1	89 47 08	 mov	 DWORD PTR [edi+8], eax

; 1603 : 		m_pHashTable[nHashBucket] = pAssoc;

  000f4	8b 46 04	 mov	 eax, DWORD PTR [esi+4]
  000f7	89 3c 01	 mov	 DWORD PTR [ecx+eax], edi
$LN5@operator:

; 1604 : 	}
; 1605 : 	return pAssoc->value;  // return new reference

  000fa	8d 47 04	 lea	 eax, DWORD PTR [edi+4]
  000fd	5f		 pop	 edi
  000fe	5e		 pop	 esi
  000ff	5b		 pop	 ebx

; 1606 : }

  00100	8b e5		 mov	 esp, ebp
  00102	5d		 pop	 ebp
  00103	c2 04 00	 ret	 4
$LN36@operator:

; 1495 : 	ENSURE(m_pFreeList != NULL);  // we must have something

  00106	e8 00 00 00 00	 call	 ?AfxThrowInvalidArgException@@YGXXZ ; AfxThrowInvalidArgException
$LN37@operator:
  0010b	cc		 int	 3
??A?$CMap@IIV?$CStringT@DV?$StrTraitMFC_DLL@DV?$ChTraitsCRT@D@ATL@@@@@ATL@@PBD@@QAEAAV?$CStringT@DV?$StrTraitMFC_DLL@DV?$ChTraitsCRT@D@ATL@@@@@ATL@@I@Z ENDP ; CMap<unsigned int,unsigned int,ATL::CStringT<char,StrTraitMFC_DLL<char,ATL::ChTraitsCRT<char> > >,char const *>::operator[]
_TEXT	ENDS
; Function compile flags: /Ogtp
; File C:\Program Files (x86)\Microsoft Visual Studio\2019\Community\VC\Tools\MSVC\14.29.30133\atlmfc\include\afxtempl.h
;	COMDAT ?Lookup@?$CMap@IIV?$CStringT@DV?$StrTraitMFC_DLL@DV?$ChTraitsCRT@D@ATL@@@@@ATL@@PBD@@QBEHIAAV?$CStringT@DV?$StrTraitMFC_DLL@DV?$ChTraitsCRT@D@ATL@@@@@ATL@@@Z
_TEXT	SEGMENT
_nHashBucket$ = -8					; size = 4
_nHashValue$ = -4					; size = 4
_key$ = 8						; size = 4
_rValue$ = 12						; size = 4
?Lookup@?$CMap@IIV?$CStringT@DV?$StrTraitMFC_DLL@DV?$ChTraitsCRT@D@ATL@@@@@ATL@@PBD@@QBEHIAAV?$CStringT@DV?$StrTraitMFC_DLL@DV?$ChTraitsCRT@D@ATL@@@@@ATL@@@Z PROC ; CMap<unsigned int,unsigned int,ATL::CStringT<char,StrTraitMFC_DLL<char,ATL::ChTraitsCRT<char> > >,char const *>::Lookup, COMDAT
; _this$ = ecx

; 1551 : {

  00000	55		 push	 ebp
  00001	8b ec		 mov	 ebp, esp
  00003	83 ec 08	 sub	 esp, 8

; 1552 : 	ASSERT_VALID(this);
; 1553 : 
; 1554 : 	UINT nHashBucket, nHashValue;
; 1555 : 	CAssoc* pAssoc = GetAssocAt(key, nHashBucket, nHashValue);

  00006	8d 45 fc	 lea	 eax, DWORD PTR _nHashValue$[ebp]
  00009	50		 push	 eax
  0000a	8d 45 f8	 lea	 eax, DWORD PTR _nHashBucket$[ebp]
  0000d	50		 push	 eax
  0000e	ff 75 08	 push	 DWORD PTR _key$[ebp]
  00011	e8 00 00 00 00	 call	 ?GetAssocAt@?$CMap@IIV?$CStringT@DV?$StrTraitMFC_DLL@DV?$ChTraitsCRT@D@ATL@@@@@ATL@@PBD@@IBEPAVCAssoc@1@IAAI0@Z ; CMap<unsigned int,unsigned int,ATL::CStringT<char,StrTraitMFC_DLL<char,ATL::ChTraitsCRT<char> > >,char const *>::GetAssocAt

; 1556 : 	if (pAssoc == NULL)

  00016	85 c0		 test	 eax, eax
  00018	75 06		 jne	 SHORT $LN2@Lookup

; 1561 : }

  0001a	8b e5		 mov	 esp, ebp
  0001c	5d		 pop	 ebp
  0001d	c2 08 00	 ret	 8
$LN2@Lookup:

; 1557 : 		return FALSE;  // not in map
; 1558 : 
; 1559 : 	rValue = pAssoc->value;

  00020	8b 4d 0c	 mov	 ecx, DWORD PTR _rValue$[ebp]
  00023	83 c0 04	 add	 eax, 4
  00026	50		 push	 eax
  00027	ff 15 00 00 00
	00		 call	 DWORD PTR __imp_??4?$CStringT@DV?$StrTraitMFC_DLL@DV?$ChTraitsCRT@D@ATL@@@@@ATL@@QAEAAV01@ABV01@@Z

; 1560 : 	return TRUE;

  0002d	b8 01 00 00 00	 mov	 eax, 1

; 1561 : }

  00032	8b e5		 mov	 esp, ebp
  00034	5d		 pop	 ebp
  00035	c2 08 00	 ret	 8
?Lookup@?$CMap@IIV?$CStringT@DV?$StrTraitMFC_DLL@DV?$ChTraitsCRT@D@ATL@@@@@ATL@@PBD@@QBEHIAAV?$CStringT@DV?$StrTraitMFC_DLL@DV?$ChTraitsCRT@D@ATL@@@@@ATL@@@Z ENDP ; CMap<unsigned int,unsigned int,ATL::CStringT<char,StrTraitMFC_DLL<char,ATL::ChTraitsCRT<char> > >,char const *>::Lookup
_TEXT	ENDS
; Function compile flags: /Ogtp
; File C:\Program Files (x86)\Microsoft Visual Studio\2019\Community\VC\Tools\MSVC\14.29.30133\atlmfc\include\afxtempl.h
;	COMDAT ??0?$CMap@IIV?$CStringT@DV?$StrTraitMFC_DLL@DV?$ChTraitsCRT@D@ATL@@@@@ATL@@PBD@@QAE@H@Z
_TEXT	SEGMENT
_nBlockSize$ = 8					; size = 4
??0?$CMap@IIV?$CStringT@DV?$StrTraitMFC_DLL@DV?$ChTraitsCRT@D@ATL@@@@@ATL@@PBD@@QAE@H@Z PROC ; CMap<unsigned int,unsigned int,ATL::CStringT<char,StrTraitMFC_DLL<char,ATL::ChTraitsCRT<char> > >,char const *>::CMap<unsigned int,unsigned int,ATL::CStringT<char,StrTraitMFC_DLL<char,ATL::ChTraitsCRT<char> > >,char const *>, COMDAT
; _this$ = ecx

; 1403 : {

  00000	55		 push	 ebp
  00001	8b ec		 mov	 ebp, esp

; 1404 : 	ASSERT(nBlockSize > 0);
; 1405 : 
; 1406 : 	m_pHashTable = NULL;
; 1407 : 	m_nHashTableSize = 17;  // default size
; 1408 : 	m_nCount = 0;
; 1409 : 	m_pFreeList = NULL;
; 1410 : 	m_pBlocks = NULL;
; 1411 : 	m_nBlockSize = nBlockSize;

  00003	8b 45 08	 mov	 eax, DWORD PTR _nBlockSize$[ebp]
  00006	89 41 18	 mov	 DWORD PTR [ecx+24], eax

; 1412 : }

  00009	8b c1		 mov	 eax, ecx
  0000b	c7 01 00 00 00
	00		 mov	 DWORD PTR [ecx], OFFSET ??_7?$CMap@IIV?$CStringT@DV?$StrTraitMFC_DLL@DV?$ChTraitsCRT@D@ATL@@@@@ATL@@PBD@@6B@
  00011	c7 41 04 00 00
	00 00		 mov	 DWORD PTR [ecx+4], 0
  00018	c7 41 08 11 00
	00 00		 mov	 DWORD PTR [ecx+8], 17	; 00000011H
  0001f	c7 41 0c 00 00
	00 00		 mov	 DWORD PTR [ecx+12], 0
  00026	c7 41 10 00 00
	00 00		 mov	 DWORD PTR [ecx+16], 0
  0002d	c7 41 14 00 00
	00 00		 mov	 DWORD PTR [ecx+20], 0
  00034	5d		 pop	 ebp
  00035	c2 04 00	 ret	 4
??0?$CMap@IIV?$CStringT@DV?$StrTraitMFC_DLL@DV?$ChTraitsCRT@D@ATL@@@@@ATL@@PBD@@QAE@H@Z ENDP ; CMap<unsigned int,unsigned int,ATL::CStringT<char,StrTraitMFC_DLL<char,ATL::ChTraitsCRT<char> > >,char const *>::CMap<unsigned int,unsigned int,ATL::CStringT<char,StrTraitMFC_DLL<char,ATL::ChTraitsCRT<char> > >,char const *>
_TEXT	ENDS
; Function compile flags: /Ogtp
; File D:\git\src\IBK\IBK_DRFN\ProjSrc\SrcDrfn\Chart\MULTICHART\ExtInputBarDlg.cpp
;	COMDAT ?ClearLink@CExtInputBarDlg@@AAEXXZ
_TEXT	SEGMENT
?ClearLink@CExtInputBarDlg@@AAEXXZ PROC			; CExtInputBarDlg::ClearLink, COMDAT
; _this$ = ecx

; 3201 : {

  00000	56		 push	 esi
  00001	8b f1		 mov	 esi, ecx

; 3202 : 	m_chkJongmokLink.SetCheck(0);

  00003	6a 00		 push	 0
  00005	8d 8e 48 24 00
	00		 lea	 ecx, DWORD PTR [esi+9288]
  0000b	e8 00 00 00 00	 call	 ?SetCheck@CILButton@@QAEXH@Z ; CILButton::SetCheck

; 3203 : 	OnChkjongmoklink();

  00010	8b ce		 mov	 ecx, esi
  00012	e8 00 00 00 00	 call	 ?OnChkjongmoklink@CExtInputBarDlg@@IAEXXZ ; CExtInputBarDlg::OnChkjongmoklink

; 3204 : 	m_chkTypeLink.SetCheck(0);

  00017	6a 00		 push	 0
  00019	8d 8e c8 29 00
	00		 lea	 ecx, DWORD PTR [esi+10696]
  0001f	e8 00 00 00 00	 call	 ?SetCheck@CILButton@@QAEXH@Z ; CILButton::SetCheck

; 3205 : 	OnChktypelink();

  00024	8b ce		 mov	 ecx, esi
  00026	5e		 pop	 esi
  00027	e9 00 00 00 00	 jmp	 ?OnChktypelink@CExtInputBarDlg@@IAEXXZ ; CExtInputBarDlg::OnChktypelink
?ClearLink@CExtInputBarDlg@@AAEXXZ ENDP			; CExtInputBarDlg::ClearLink
_TEXT	ENDS
; Function compile flags: /Ogtp
; File D:\git\src\IBK\IBK_DRFN\ProjSrc\SrcDrfn\Chart\MULTICHART\ExtInputBarDlg.cpp
; File C:\Program Files (x86)\Microsoft Visual Studio\2019\Community\VC\Tools\MSVC\14.29.30133\atlmfc\include\atltypes.h
; File D:\git\src\IBK\IBK_DRFN\ProjSrc\SrcDrfn\Chart\MULTICHART\ExtInputBarDlg.cpp
; File C:\Program Files (x86)\Microsoft Visual Studio\2019\Community\VC\Tools\MSVC\14.29.30133\atlmfc\include\afxwin2.inl
; File D:\git\src\IBK\IBK_DRFN\ProjSrc\SrcDrfn\Chart\MULTICHART\ExtInputBarDlg.cpp
; File C:\Program Files (x86)\Microsoft Visual Studio\2019\Community\VC\Tools\MSVC\14.29.30133\atlmfc\include\afxwin2.inl
; File D:\git\src\IBK\IBK_DRFN\ProjSrc\SrcDrfn\Chart\MULTICHART\ExtInputBarDlg.cpp
; File C:\Program Files (x86)\Microsoft Visual Studio\2019\Community\VC\Tools\MSVC\14.29.30133\atlmfc\include\afxwin2.inl
; File D:\git\src\IBK\IBK_DRFN\ProjSrc\SrcDrfn\Chart\MULTICHART\ExtInputBarDlg.cpp
; File C:\Program Files (x86)\Microsoft Visual Studio\2019\Community\VC\Tools\MSVC\14.29.30133\atlmfc\include\afxwin2.inl
; File D:\git\src\IBK\IBK_DRFN\ProjSrc\SrcDrfn\Chart\MULTICHART\ExtInputBarDlg.cpp
; File C:\Program Files (x86)\Microsoft Visual Studio\2019\Community\VC\Tools\MSVC\14.29.30133\atlmfc\include\afxwin2.inl
; File D:\git\src\IBK\IBK_DRFN\ProjSrc\SrcDrfn\Chart\MULTICHART\ExtInputBarDlg.cpp
; File C:\Program Files (x86)\Microsoft Visual Studio\2019\Community\VC\Tools\MSVC\14.29.30133\atlmfc\include\afxwin2.inl
; File D:\git\src\IBK\IBK_DRFN\ProjSrc\SrcDrfn\Chart\MULTICHART\ExtInputBarDlg.cpp
; File C:\Program Files (x86)\Microsoft Visual Studio\2019\Community\VC\Tools\MSVC\14.29.30133\atlmfc\include\afxwin2.inl
; File D:\git\src\IBK\IBK_DRFN\ProjSrc\SrcDrfn\Chart\MULTICHART\ExtInputBarDlg.cpp
; File C:\Program Files (x86)\Microsoft Visual Studio\2019\Community\VC\Tools\MSVC\14.29.30133\atlmfc\include\afxwin2.inl
; File D:\git\src\IBK\IBK_DRFN\ProjSrc\SrcDrfn\Chart\MULTICHART\ExtInputBarDlg.cpp
; File C:\Program Files (x86)\Microsoft Visual Studio\2019\Community\VC\Tools\MSVC\14.29.30133\atlmfc\include\afxwin2.inl
; File D:\git\src\IBK\IBK_DRFN\ProjSrc\SrcDrfn\Chart\MULTICHART\ExtInputBarDlg.cpp
; File C:\Program Files (x86)\Microsoft Visual Studio\2019\Community\VC\Tools\MSVC\14.29.30133\atlmfc\include\afxwin2.inl
; File D:\git\src\IBK\IBK_DRFN\ProjSrc\SrcDrfn\Chart\MULTICHART\ExtInputBarDlg.cpp
; File C:\Program Files (x86)\Microsoft Visual Studio\2019\Community\VC\Tools\MSVC\14.29.30133\atlmfc\include\afxwin2.inl
; File D:\git\src\IBK\IBK_DRFN\ProjSrc\SrcDrfn\Chart\MULTICHART\ExtInputBarDlg.cpp
; File C:\Program Files (x86)\Microsoft Visual Studio\2019\Community\VC\Tools\MSVC\14.29.30133\atlmfc\include\afxwin2.inl
; File D:\git\src\IBK\IBK_DRFN\ProjSrc\SrcDrfn\Chart\MULTICHART\ExtInputBarDlg.cpp
; File C:\Program Files (x86)\Microsoft Visual Studio\2019\Community\VC\Tools\MSVC\14.29.30133\atlmfc\include\afxwin2.inl
; File D:\git\src\IBK\IBK_DRFN\ProjSrc\SrcDrfn\Chart\MULTICHART\ExtInputBarDlg.cpp
; File C:\Program Files (x86)\Microsoft Visual Studio\2019\Community\VC\Tools\MSVC\14.29.30133\atlmfc\include\afxwin2.inl
; File D:\git\src\IBK\IBK_DRFN\ProjSrc\SrcDrfn\Chart\MULTICHART\ExtInputBarDlg.cpp
; File C:\Program Files (x86)\Microsoft Visual Studio\2019\Community\VC\Tools\MSVC\14.29.30133\atlmfc\include\afxwin2.inl
; File D:\git\src\IBK\IBK_DRFN\ProjSrc\SrcDrfn\Chart\MULTICHART\ExtInputBarDlg.cpp
; File C:\Program Files (x86)\Microsoft Visual Studio\2019\Community\VC\Tools\MSVC\14.29.30133\atlmfc\include\afxwin2.inl
; File D:\git\src\IBK\IBK_DRFN\ProjSrc\SrcDrfn\Chart\MULTICHART\ExtInputBarDlg.cpp
; File C:\Program Files (x86)\Microsoft Visual Studio\2019\Community\VC\Tools\MSVC\14.29.30133\atlmfc\include\afxwin2.inl
; File D:\git\src\IBK\IBK_DRFN\ProjSrc\SrcDrfn\Chart\MULTICHART\ExtInputBarDlg.cpp
; File C:\Program Files (x86)\Microsoft Visual Studio\2019\Community\VC\Tools\MSVC\14.29.30133\atlmfc\include\afxwin2.inl
; File D:\git\src\IBK\IBK_DRFN\ProjSrc\SrcDrfn\Chart\MULTICHART\ExtInputBarDlg.cpp
; File C:\Program Files (x86)\Microsoft Visual Studio\2019\Community\VC\Tools\MSVC\14.29.30133\atlmfc\include\afxwin2.inl
; File D:\git\src\IBK\IBK_DRFN\ProjSrc\SrcDrfn\Chart\MULTICHART\ExtInputBarDlg.cpp
; File C:\Program Files (x86)\Microsoft Visual Studio\2019\Community\VC\Tools\MSVC\14.29.30133\atlmfc\include\afxwin2.inl
; File D:\git\src\IBK\IBK_DRFN\ProjSrc\SrcDrfn\Chart\MULTICHART\ExtInputBarDlg.cpp
; File C:\Program Files (x86)\Microsoft Visual Studio\2019\Community\VC\Tools\MSVC\14.29.30133\atlmfc\include\afxwin2.inl
; File D:\git\src\IBK\IBK_DRFN\ProjSrc\SrcDrfn\Chart\MULTICHART\ExtInputBarDlg.cpp
; File C:\Program Files (x86)\Microsoft Visual Studio\2019\Community\VC\Tools\MSVC\14.29.30133\atlmfc\include\afxwin2.inl
; File D:\git\src\IBK\IBK_DRFN\ProjSrc\SrcDrfn\Chart\MULTICHART\ExtInputBarDlg.cpp
; File C:\Program Files (x86)\Microsoft Visual Studio\2019\Community\VC\Tools\MSVC\14.29.30133\atlmfc\include\afxwin2.inl
; File D:\git\src\IBK\IBK_DRFN\ProjSrc\SrcDrfn\Chart\MULTICHART\ExtInputBarDlg.cpp
; File C:\Program Files (x86)\Microsoft Visual Studio\2019\Community\VC\Tools\MSVC\14.29.30133\atlmfc\include\afxwin2.inl
; File D:\git\src\IBK\IBK_DRFN\ProjSrc\SrcDrfn\Chart\MULTICHART\ExtInputBarDlg.cpp
; File C:\Program Files (x86)\Microsoft Visual Studio\2019\Community\VC\Tools\MSVC\14.29.30133\atlmfc\include\afxwin2.inl
; File D:\git\src\IBK\IBK_DRFN\ProjSrc\SrcDrfn\Chart\MULTICHART\ExtInputBarDlg.cpp
; File C:\Program Files (x86)\Microsoft Visual Studio\2019\Community\VC\Tools\MSVC\14.29.30133\atlmfc\include\afxwin2.inl
; File D:\git\src\IBK\IBK_DRFN\ProjSrc\SrcDrfn\Chart\MULTICHART\ExtInputBarDlg.cpp
; File C:\Program Files (x86)\Microsoft Visual Studio\2019\Community\VC\Tools\MSVC\14.29.30133\atlmfc\include\afxwin2.inl
; File D:\git\src\IBK\IBK_DRFN\ProjSrc\SrcDrfn\Chart\MULTICHART\ExtInputBarDlg.cpp
; File C:\Program Files (x86)\Microsoft Visual Studio\2019\Community\VC\Tools\MSVC\14.29.30133\atlmfc\include\afxwin2.inl
; File D:\git\src\IBK\IBK_DRFN\ProjSrc\SrcDrfn\Chart\MULTICHART\ExtInputBarDlg.cpp
; File C:\Program Files (x86)\Microsoft Visual Studio\2019\Community\VC\Tools\MSVC\14.29.30133\atlmfc\include\afxwin2.inl
; File D:\git\src\IBK\IBK_DRFN\ProjSrc\SrcDrfn\Chart\MULTICHART\ExtInputBarDlg.cpp
; File C:\Program Files (x86)\Microsoft Visual Studio\2019\Community\VC\Tools\MSVC\14.29.30133\atlmfc\include\afxwin2.inl
; File D:\git\src\IBK\IBK_DRFN\ProjSrc\SrcDrfn\Chart\MULTICHART\ExtInputBarDlg.cpp
; File C:\Program Files (x86)\Microsoft Visual Studio\2019\Community\VC\Tools\MSVC\14.29.30133\atlmfc\include\afxwin2.inl
; File D:\git\src\IBK\IBK_DRFN\ProjSrc\SrcDrfn\Chart\MULTICHART\ExtInputBarDlg.cpp
; File C:\Program Files (x86)\Microsoft Visual Studio\2019\Community\VC\Tools\MSVC\14.29.30133\atlmfc\include\afxwin2.inl
; File D:\git\src\IBK\IBK_DRFN\ProjSrc\SrcDrfn\Chart\MULTICHART\ExtInputBarDlg.cpp
; File C:\Program Files (x86)\Microsoft Visual Studio\2019\Community\VC\Tools\MSVC\14.29.30133\atlmfc\include\afxwin2.inl
; File D:\git\src\IBK\IBK_DRFN\ProjSrc\SrcDrfn\Chart\MULTICHART\ExtInputBarDlg.cpp
; File C:\Program Files (x86)\Microsoft Visual Studio\2019\Community\VC\Tools\MSVC\14.29.30133\atlmfc\include\afxwin2.inl
; File D:\git\src\IBK\IBK_DRFN\ProjSrc\SrcDrfn\Chart\MULTICHART\ExtInputBarDlg.cpp
; File C:\Program Files (x86)\Microsoft Visual Studio\2019\Community\VC\Tools\MSVC\14.29.30133\atlmfc\include\afxwin2.inl
; File D:\git\src\IBK\IBK_DRFN\ProjSrc\SrcDrfn\Chart\MULTICHART\ExtInputBarDlg.cpp
; File C:\Program Files (x86)\Microsoft Visual Studio\2019\Community\VC\Tools\MSVC\14.29.30133\atlmfc\include\afxwin2.inl
; File D:\git\src\IBK\IBK_DRFN\ProjSrc\SrcDrfn\Chart\MULTICHART\ExtInputBarDlg.cpp
; File C:\Program Files (x86)\Microsoft Visual Studio\2019\Community\VC\Tools\MSVC\14.29.30133\atlmfc\include\afxwin2.inl
; File D:\git\src\IBK\IBK_DRFN\ProjSrc\SrcDrfn\Chart\MULTICHART\ExtInputBarDlg.cpp
; File C:\Program Files (x86)\Microsoft Visual Studio\2019\Community\VC\Tools\MSVC\14.29.30133\atlmfc\include\afxwin2.inl
; File D:\git\src\IBK\IBK_DRFN\ProjSrc\SrcDrfn\Chart\MULTICHART\ExtInputBarDlg.cpp
; File C:\Program Files (x86)\Microsoft Visual Studio\2019\Community\VC\Tools\MSVC\14.29.30133\atlmfc\include\afxwin2.inl
; File D:\git\src\IBK\IBK_DRFN\ProjSrc\SrcDrfn\Chart\MULTICHART\ExtInputBarDlg.cpp
; File C:\Program Files (x86)\Microsoft Visual Studio\2019\Community\VC\Tools\MSVC\14.29.30133\atlmfc\include\afxwin2.inl
; File D:\git\src\IBK\IBK_DRFN\ProjSrc\SrcDrfn\Chart\MULTICHART\ExtInputBarDlg.cpp
; File C:\Program Files (x86)\Microsoft Visual Studio\2019\Community\VC\Tools\MSVC\14.29.30133\atlmfc\include\afxwin2.inl
; File D:\git\src\IBK\IBK_DRFN\ProjSrc\SrcDrfn\Chart\MULTICHART\ExtInputBarDlg.cpp
; File C:\Program Files (x86)\Microsoft Visual Studio\2019\Community\VC\Tools\MSVC\14.29.30133\atlmfc\include\afxwin2.inl
; File D:\git\src\IBK\IBK_DRFN\ProjSrc\SrcDrfn\Chart\MULTICHART\ExtInputBarDlg.cpp
; File C:\Program Files (x86)\Microsoft Visual Studio\2019\Community\VC\Tools\MSVC\14.29.30133\atlmfc\include\afxwin2.inl
; File D:\git\src\IBK\IBK_DRFN\ProjSrc\SrcDrfn\Chart\MULTICHART\ExtInputBarDlg.cpp
; File C:\Program Files (x86)\Microsoft Visual Studio\2019\Community\VC\Tools\MSVC\14.29.30133\atlmfc\include\afxwin2.inl
; File D:\git\src\IBK\IBK_DRFN\ProjSrc\SrcDrfn\Chart\MULTICHART\ExtInputBarDlg.cpp
;	COMDAT ?SetExt@CExtInputBarDlg@@AAEXH@Z
_TEXT	SEGMENT
_rect$ = -20						; size = 16
__$ArrayPad$ = -4					; size = 4
_nAct$ = 8						; size = 4
?SetExt@CExtInputBarDlg@@AAEXH@Z PROC			; CExtInputBarDlg::SetExt, COMDAT
; _this$ = ecx

; 1416 : {

  00000	55		 push	 ebp
  00001	8b ec		 mov	 ebp, esp
  00003	83 ec 14	 sub	 esp, 20			; 00000014H
  00006	a1 00 00 00 00	 mov	 eax, DWORD PTR ___security_cookie
  0000b	33 c5		 xor	 eax, ebp
  0000d	89 45 fc	 mov	 DWORD PTR __$ArrayPad$[ebp], eax
  00010	53		 push	 ebx
  00011	56		 push	 esi
  00012	57		 push	 edi

; 1417 : 	EnableWindow(FALSE);

  00013	6a 00		 push	 0
  00015	8b f9		 mov	 edi, ecx
  00017	e8 00 00 00 00	 call	 ?EnableWindow@CWnd@@QAEHH@Z ; CWnd::EnableWindow

; 1418 : //	BOOL bExt1 = m_chkExt1.GetCheck();
; 1419 : //	BOOL bExt2 = m_chkExt2.GetCheck();
; 1420 : //	BOOL bExt3 = m_chkExt3.GetCheck();
; 1421 : //	BOOL bExt4 = m_chkExt4.GetCheck();
; 1422 : //	BOOL bExt5 = m_chkExt5.GetCheck();
; 1423 : 
; 1424 : 	int nCmdShow1 = SW_SHOW;
; 1425 : 	int nCmdShow2 = SW_SHOW;
; 1426 : 	int nCmdShow3 = SW_SHOW;
; 1427 : 	int nCmdShow4 = SW_SHOW;
; 1428 : 	int nCmdShow5 = SW_SHOW;
; 1429 : //	if(bExt1)
; 1430 : //	{
; 1431 : //		m_chkExt1.SetToolTipText("");
; 1432 : //		nCmdShow1 = SW_HIDE;
; 1433 : //	}
; 1434 : //	else
; 1435 : //	{
; 1436 : //		m_chkExt1.SetToolTipText("");
; 1437 : //	}
; 1438 : //	if(bExt2)
; 1439 : //	{
; 1440 : //		m_chkExt2.SetToolTipText("");
; 1441 : //		nCmdShow2 = SW_HIDE;
; 1442 : //	}
; 1443 : //	else
; 1444 : //	{
; 1445 : //		m_chkExt2.SetToolTipText("");
; 1446 : //	}
; 1447 : //	if(bExt3)
; 1448 : //	{
; 1449 : //		m_chkExt3.SetToolTipText("");
; 1450 : //		nCmdShow3 = SW_HIDE;
; 1451 : //	}
; 1452 : //	else
; 1453 : //	{
; 1454 : //		m_chkExt3.SetToolTipText("");
; 1455 : //	}
; 1456 : //	if(bExt4)
; 1457 : //	{
; 1458 : //		m_chkExt4.SetToolTipText("");
; 1459 : //		nCmdShow4 = SW_HIDE;
; 1460 : //	}
; 1461 : //	else
; 1462 : //	{
; 1463 : //		m_chkExt4.SetToolTipText("");
; 1464 : //	}
; 1465 : //	if(bExt5)
; 1466 : //	{
; 1467 : //		m_chkExt5.SetToolTipText("");
; 1468 : //		nCmdShow5 = SW_HIDE;
; 1469 : //	}
; 1470 : //	else
; 1471 : //	{
; 1472 : //		m_chkExt5.SetToolTipText("");
; 1473 : //	}
; 1474 : 	m_btSave.ShowWindow(nCmdShow1);

  0001c	6a 05		 push	 5
  0001e	8d 8f 68 28 00
	00		 lea	 ecx, DWORD PTR [edi+10344]
  00024	e8 00 00 00 00	 call	 ?ShowWindow@CWnd@@QAEHH@Z ; CWnd::ShowWindow

; 1475 : 	m_btLoad.ShowWindow(nCmdShow1);

  00029	6a 05		 push	 5
  0002b	8d 8f 08 27 00
	00		 lea	 ecx, DWORD PTR [edi+9992]
  00031	e8 00 00 00 00	 call	 ?ShowWindow@CWnd@@QAEHH@Z ; CWnd::ShowWindow

; 1476 : 	m_btPrint.ShowWindow(nCmdShow1);

  00036	6a 05		 push	 5
  00038	8d 8f a8 25 00
	00		 lea	 ecx, DWORD PTR [edi+9640]
  0003e	e8 00 00 00 00	 call	 ?ShowWindow@CWnd@@QAEHH@Z ; CWnd::ShowWindow

; 1477 : 
; 1478 : //	m_btChart.ShowWindow(nCmdShow2);
; 1479 : 	m_btIndex.ShowWindow(nCmdShow2);

  00043	8d 8f 88 2d 00
	00		 lea	 ecx, DWORD PTR [edi+11656]
  00049	6a 05		 push	 5
  0004b	e8 00 00 00 00	 call	 ?ShowWindow@CWnd@@QAEHH@Z ; CWnd::ShowWindow

; 1480 : //	m_btAddIndex.ShowWindow(nCmdShow2);
; 1481 : //	m_btSetEnvir.ShowWindow(nCmdShow2);
; 1482 : //	m_btAnalysisType.ShowWindow(nCmdShow2);
; 1483 : //	m_btEtcMenu.ShowWindow(nCmdShow2);
; 1484 : 
; 1485 : 	//S01 2006.09.07 {{
; 1486 : //@		m_btnChangeTool.ShowWindow(nCmdShow3);
; 1487 : 	//	m_stBy.ShowWindow(nCmdShow3);			// 1 X 1
; 1488 : 	//	m_btShowMatrix.ShowWindow(nCmdShow3);	// 
; 1489 : 	//	m_btInitSplit.ShowWindow(nCmdShow3);	// 
; 1490 : 	m_stSetMatrix.ShowWindow(nCmdShow3);		

  00050	8d 8f 08 2d 00
	00		 lea	 ecx, DWORD PTR [edi+11528]
  00056	6a 05		 push	 5
  00058	e8 00 00 00 00	 call	 ?ShowWindow@CWnd@@QAEHH@Z ; CWnd::ShowWindow

; 1491 : 	m_btExPrev.ShowWindow(nCmdShow3);

  0005d	8d 8f 08 1c 00
	00		 lea	 ecx, DWORD PTR [edi+7176]
  00063	6a 05		 push	 5
  00065	e8 00 00 00 00	 call	 ?ShowWindow@CWnd@@QAEHH@Z ; CWnd::ShowWindow

; 1492 : 	m_btExNext.ShowWindow(nCmdShow3);

  0006a	8d 8f 68 1d 00
	00		 lea	 ecx, DWORD PTR [edi+7528]
  00070	6a 05		 push	 5
  00072	e8 00 00 00 00	 call	 ?ShowWindow@CWnd@@QAEHH@Z ; CWnd::ShowWindow

; 1493 : 	//	m_chkJongmokLink.ShowWindow(nCmdShow4);		// 
; 1494 : 	//	m_chkTypeLink.ShowWindow(nCmdShow4);		// 
; 1495 : 	//	m_chkUpdateIndex.ShowWindow(nCmdShow4);		// 
; 1496 : 
; 1497 : 	m_btChartConfig.ShowWindow(nCmdShow5);

  00077	6a 05		 push	 5
  00079	8d 8f 08 0b 00
	00		 lea	 ecx, DWORD PTR [edi+2824]
  0007f	e8 00 00 00 00	 call	 ?ShowWindow@CWnd@@QAEHH@Z ; CWnd::ShowWindow

; 1498 : 	m_btInitial.ShowWindow(nCmdShow5);

  00084	6a 05		 push	 5
  00086	8d 8f a8 09 00
	00		 lea	 ecx, DWORD PTR [edi+2472]
  0008c	e8 00 00 00 00	 call	 ?ShowWindow@CWnd@@QAEHH@Z ; CWnd::ShowWindow

; 1499 : 	m_chkShowScale.ShowWindow(nCmdShow5);

  00091	8d 8f 88 21 00
	00		 lea	 ecx, DWORD PTR [edi+8584]
  00097	6a 05		 push	 5
  00099	e8 00 00 00 00	 call	 ?ShowWindow@CWnd@@QAEHH@Z ; CWnd::ShowWindow

; 1500 : 	m_chkFixPeriod.ShowWindow(nCmdShow5);		// 

  0009e	6a 05		 push	 5
  000a0	8d 8f e8 2e 00
	00		 lea	 ecx, DWORD PTR [edi+12008]
  000a6	e8 00 00 00 00	 call	 ?ShowWindow@CWnd@@QAEHH@Z ; CWnd::ShowWindow

; 1501 : 	//S01 2006.09.07 }}
; 1502 : 
; 1503 : // for Pattern Test - SeoJeong - 
; 1504 : #ifdef _DEBUG
; 1505 : //	m_btAnalysisPattern.ShowWindow(nCmdShow5);
; 1506 : //	m_btChartGuideLine.ShowWindow(nCmdShow5);
; 1507 : //	GetDlgItem(IDC_BTN_ANALIZE_PERIOD)->ShowWindow(nCmdShow5);
; 1508 : #else
; 1509 : //	m_btAnalysisPattern.ShowWindow(SW_HIDE);
; 1510 : //	m_btAnalysisPattern.ShowWindow(nCmdShow5);
; 1511 : //	m_btChartGuideLine.ShowWindow(SW_HIDE);
; 1512 : //	GetDlgItem(IDC_BTN_ODRTRACE)->ShowWindow(SW_HIDE);
; 1513 : #endif
; 1514 : 
; 1515 : 	
; 1516 : 	m_btHist.ShowWindow(nCmdShow5);

  000ab	8d 8f e8 17 00
	00		 lea	 ecx, DWORD PTR [edi+6120]
  000b1	6a 05		 push	 5
  000b3	e8 00 00 00 00	 call	 ?ShowWindow@CWnd@@QAEHH@Z ; CWnd::ShowWindow

; 1517 : 	m_btST.ShowWindow(nCmdShow5);

  000b8	8d 8f 88 16 00
	00		 lea	 ecx, DWORD PTR [edi+5768]
  000be	6a 05		 push	 5
  000c0	e8 00 00 00 00	 call	 ?ShowWindow@CWnd@@QAEHH@Z ; CWnd::ShowWindow

; 1525 : 	if(nAct==1)		

  000c5	8b 45 08	 mov	 eax, DWORD PTR _nAct$[ebp]
  000c8	0f 57 c0	 xorps	 xmm0, xmm0
  000cb	8b 1d 00 00 00
	00		 mov	 ebx, DWORD PTR __imp__InvalidateRect@12
; File C:\Program Files (x86)\Microsoft Visual Studio\2019\Community\VC\Tools\MSVC\14.29.30133\atlmfc\include\atltypes.h

; 528  : 	left = 0;

  000d1	0f 11 45 ec	 movups	 XMMWORD PTR _rect$[ebp], xmm0
; File D:\git\src\IBK\IBK_DRFN\ProjSrc\SrcDrfn\Chart\MULTICHART\ExtInputBarDlg.cpp

; 1525 : 	if(nAct==1)		

  000d5	83 f8 01	 cmp	 eax, 1
  000d8	0f 85 15 04 00
	00		 jne	 $LN2@SetExt
; File C:\Program Files (x86)\Microsoft Visual Studio\2019\Community\VC\Tools\MSVC\14.29.30133\atlmfc\include\afxwin2.inl

; 84   : 	{ ASSERT(::IsWindow(m_hWnd)); ::GetWindowRect(m_hWnd, lpRect); }

  000de	8b 35 00 00 00
	00		 mov	 esi, DWORD PTR __imp__GetWindowRect@8
  000e4	8d 45 ec	 lea	 eax, DWORD PTR _rect$[ebp]
  000e7	50		 push	 eax
  000e8	ff b7 a8 2d 00
	00		 push	 DWORD PTR [edi+11688]
  000ee	ff d6		 call	 esi
; File D:\git\src\IBK\IBK_DRFN\ProjSrc\SrcDrfn\Chart\MULTICHART\ExtInputBarDlg.cpp

; 1533 : 		SHIFTCONTROL(m_btIndex,nShiftExt12,rect);

  000f0	8d 45 ec	 lea	 eax, DWORD PTR _rect$[ebp]
  000f3	8b cf		 mov	 ecx, edi
  000f5	50		 push	 eax
  000f6	e8 00 00 00 00	 call	 ?ScreenToClient@CWnd@@QBEXPAUtagRECT@@@Z ; CWnd::ScreenToClient
  000fb	8b 45 ec	 mov	 eax, DWORD PTR _rect$[ebp]
  000fe	8d 8f 88 2d 00
	00		 lea	 ecx, DWORD PTR [edi+11656]
  00104	6a 01		 push	 1
  00106	6a 00		 push	 0
  00108	6a 00		 push	 0
  0010a	6a 00		 push	 0
  0010c	83 c0 3f	 add	 eax, 63			; 0000003fH
  0010f	50		 push	 eax
  00110	ff 35 00 00 00
	00		 push	 DWORD PTR __imp_?wndTop@CWnd@@2V1@B
  00116	e8 00 00 00 00	 call	 ?SetWindowPos@CWnd@@QAEHPBV1@HHHHI@Z ; CWnd::SetWindowPos
; File C:\Program Files (x86)\Microsoft Visual Studio\2019\Community\VC\Tools\MSVC\14.29.30133\atlmfc\include\afxwin2.inl

; 114  : 	{ ASSERT(::IsWindow(m_hWnd)); ::InvalidateRect(m_hWnd, NULL, bErase); }

  0011b	6a 01		 push	 1
  0011d	6a 00		 push	 0
  0011f	ff b7 a8 2d 00
	00		 push	 DWORD PTR [edi+11688]
  00125	ff d3		 call	 ebx

; 84   : 	{ ASSERT(::IsWindow(m_hWnd)); ::GetWindowRect(m_hWnd, lpRect); }

  00127	8d 45 ec	 lea	 eax, DWORD PTR _rect$[ebp]
  0012a	50		 push	 eax
  0012b	ff b7 08 23 00
	00		 push	 DWORD PTR [edi+8968]
  00131	ff d6		 call	 esi
; File D:\git\src\IBK\IBK_DRFN\ProjSrc\SrcDrfn\Chart\MULTICHART\ExtInputBarDlg.cpp

; 1534 : 		SHIFTCONTROL(m_btAddIndex,nShiftExt12,rect);

  00133	8d 45 ec	 lea	 eax, DWORD PTR _rect$[ebp]
  00136	8b cf		 mov	 ecx, edi
  00138	50		 push	 eax
  00139	e8 00 00 00 00	 call	 ?ScreenToClient@CWnd@@QBEXPAUtagRECT@@@Z ; CWnd::ScreenToClient
  0013e	8b 45 ec	 mov	 eax, DWORD PTR _rect$[ebp]
  00141	8d 8f e8 22 00
	00		 lea	 ecx, DWORD PTR [edi+8936]
  00147	6a 01		 push	 1
  00149	6a 00		 push	 0
  0014b	6a 00		 push	 0
  0014d	6a 00		 push	 0
  0014f	83 c0 3f	 add	 eax, 63			; 0000003fH
  00152	50		 push	 eax
  00153	ff 35 00 00 00
	00		 push	 DWORD PTR __imp_?wndTop@CWnd@@2V1@B
  00159	e8 00 00 00 00	 call	 ?SetWindowPos@CWnd@@QAEHPBV1@HHHHI@Z ; CWnd::SetWindowPos
; File C:\Program Files (x86)\Microsoft Visual Studio\2019\Community\VC\Tools\MSVC\14.29.30133\atlmfc\include\afxwin2.inl

; 114  : 	{ ASSERT(::IsWindow(m_hWnd)); ::InvalidateRect(m_hWnd, NULL, bErase); }

  0015e	6a 01		 push	 1
  00160	6a 00		 push	 0
  00162	ff b7 08 23 00
	00		 push	 DWORD PTR [edi+8968]
  00168	ff d3		 call	 ebx

; 84   : 	{ ASSERT(::IsWindow(m_hWnd)); ::GetWindowRect(m_hWnd, lpRect); }

  0016a	8d 45 ec	 lea	 eax, DWORD PTR _rect$[ebp]
  0016d	50		 push	 eax
  0016e	ff b7 28 2d 00
	00		 push	 DWORD PTR [edi+11560]
  00174	ff d6		 call	 esi
; File D:\git\src\IBK\IBK_DRFN\ProjSrc\SrcDrfn\Chart\MULTICHART\ExtInputBarDlg.cpp

; 1540 : 		SHIFTCONTROL(m_stSetMatrix,nShiftExt12,rect);

  00176	8d 45 ec	 lea	 eax, DWORD PTR _rect$[ebp]
  00179	8b cf		 mov	 ecx, edi
  0017b	50		 push	 eax
  0017c	e8 00 00 00 00	 call	 ?ScreenToClient@CWnd@@QBEXPAUtagRECT@@@Z ; CWnd::ScreenToClient
  00181	8b 45 ec	 mov	 eax, DWORD PTR _rect$[ebp]
  00184	8d 8f 08 2d 00
	00		 lea	 ecx, DWORD PTR [edi+11528]
  0018a	6a 01		 push	 1
  0018c	6a 00		 push	 0
  0018e	6a 00		 push	 0
  00190	6a 00		 push	 0
  00192	83 c0 3f	 add	 eax, 63			; 0000003fH
  00195	50		 push	 eax
  00196	ff 35 00 00 00
	00		 push	 DWORD PTR __imp_?wndTop@CWnd@@2V1@B
  0019c	e8 00 00 00 00	 call	 ?SetWindowPos@CWnd@@QAEHPBV1@HHHHI@Z ; CWnd::SetWindowPos
; File C:\Program Files (x86)\Microsoft Visual Studio\2019\Community\VC\Tools\MSVC\14.29.30133\atlmfc\include\afxwin2.inl

; 114  : 	{ ASSERT(::IsWindow(m_hWnd)); ::InvalidateRect(m_hWnd, NULL, bErase); }

  001a1	6a 01		 push	 1
  001a3	6a 00		 push	 0
  001a5	ff b7 28 2d 00
	00		 push	 DWORD PTR [edi+11560]
  001ab	ff d3		 call	 ebx

; 84   : 	{ ASSERT(::IsWindow(m_hWnd)); ::GetWindowRect(m_hWnd, lpRect); }

  001ad	8d 45 ec	 lea	 eax, DWORD PTR _rect$[ebp]
  001b0	50		 push	 eax
  001b1	ff b7 a8 2c 00
	00		 push	 DWORD PTR [edi+11432]
  001b7	ff d6		 call	 esi
; File D:\git\src\IBK\IBK_DRFN\ProjSrc\SrcDrfn\Chart\MULTICHART\ExtInputBarDlg.cpp

; 1541 : 		SHIFTCONTROL(m_stBy,nShiftExt12,rect);

  001b9	8d 45 ec	 lea	 eax, DWORD PTR _rect$[ebp]
  001bc	8b cf		 mov	 ecx, edi
  001be	50		 push	 eax
  001bf	e8 00 00 00 00	 call	 ?ScreenToClient@CWnd@@QBEXPAUtagRECT@@@Z ; CWnd::ScreenToClient
  001c4	8b 45 ec	 mov	 eax, DWORD PTR _rect$[ebp]
  001c7	6a 01		 push	 1
  001c9	6a 00		 push	 0
  001cb	6a 00		 push	 0
  001cd	6a 00		 push	 0
  001cf	83 c0 3f	 add	 eax, 63			; 0000003fH
  001d2	50		 push	 eax
  001d3	ff 35 00 00 00
	00		 push	 DWORD PTR __imp_?wndTop@CWnd@@2V1@B
  001d9	8d 8f 88 2c 00
	00		 lea	 ecx, DWORD PTR [edi+11400]
  001df	e8 00 00 00 00	 call	 ?SetWindowPos@CWnd@@QAEHPBV1@HHHHI@Z ; CWnd::SetWindowPos
; File C:\Program Files (x86)\Microsoft Visual Studio\2019\Community\VC\Tools\MSVC\14.29.30133\atlmfc\include\afxwin2.inl

; 114  : 	{ ASSERT(::IsWindow(m_hWnd)); ::InvalidateRect(m_hWnd, NULL, bErase); }

  001e4	6a 01		 push	 1
  001e6	6a 00		 push	 0
  001e8	ff b7 a8 2c 00
	00		 push	 DWORD PTR [edi+11432]
  001ee	ff d3		 call	 ebx

; 84   : 	{ ASSERT(::IsWindow(m_hWnd)); ::GetWindowRect(m_hWnd, lpRect); }

  001f0	8d 45 ec	 lea	 eax, DWORD PTR _rect$[ebp]
  001f3	50		 push	 eax
  001f4	ff b7 e8 1e 00
	00		 push	 DWORD PTR [edi+7912]
  001fa	ff d6		 call	 esi
; File D:\git\src\IBK\IBK_DRFN\ProjSrc\SrcDrfn\Chart\MULTICHART\ExtInputBarDlg.cpp

; 1542 : 		SHIFTCONTROL(m_btShowMatrix,nShiftExt12,rect);

  001fc	8d 45 ec	 lea	 eax, DWORD PTR _rect$[ebp]
  001ff	8b cf		 mov	 ecx, edi
  00201	50		 push	 eax
  00202	e8 00 00 00 00	 call	 ?ScreenToClient@CWnd@@QBEXPAUtagRECT@@@Z ; CWnd::ScreenToClient
  00207	8b 45 ec	 mov	 eax, DWORD PTR _rect$[ebp]
  0020a	8d 8f c8 1e 00
	00		 lea	 ecx, DWORD PTR [edi+7880]
  00210	6a 01		 push	 1
  00212	6a 00		 push	 0
  00214	6a 00		 push	 0
  00216	6a 00		 push	 0
  00218	83 c0 3f	 add	 eax, 63			; 0000003fH
  0021b	50		 push	 eax
  0021c	ff 35 00 00 00
	00		 push	 DWORD PTR __imp_?wndTop@CWnd@@2V1@B
  00222	e8 00 00 00 00	 call	 ?SetWindowPos@CWnd@@QAEHPBV1@HHHHI@Z ; CWnd::SetWindowPos
; File C:\Program Files (x86)\Microsoft Visual Studio\2019\Community\VC\Tools\MSVC\14.29.30133\atlmfc\include\afxwin2.inl

; 114  : 	{ ASSERT(::IsWindow(m_hWnd)); ::InvalidateRect(m_hWnd, NULL, bErase); }

  00227	6a 01		 push	 1
  00229	6a 00		 push	 0
  0022b	ff b7 e8 1e 00
	00		 push	 DWORD PTR [edi+7912]
  00231	ff d3		 call	 ebx

; 84   : 	{ ASSERT(::IsWindow(m_hWnd)); ::GetWindowRect(m_hWnd, lpRect); }

  00233	8d 45 ec	 lea	 eax, DWORD PTR _rect$[ebp]
  00236	50		 push	 eax
  00237	ff b7 28 1c 00
	00		 push	 DWORD PTR [edi+7208]
  0023d	ff d6		 call	 esi
; File D:\git\src\IBK\IBK_DRFN\ProjSrc\SrcDrfn\Chart\MULTICHART\ExtInputBarDlg.cpp

; 1543 : 		SHIFTCONTROL(m_btExPrev,nShiftExt12,rect);

  0023f	8d 45 ec	 lea	 eax, DWORD PTR _rect$[ebp]
  00242	8b cf		 mov	 ecx, edi
  00244	50		 push	 eax
  00245	e8 00 00 00 00	 call	 ?ScreenToClient@CWnd@@QBEXPAUtagRECT@@@Z ; CWnd::ScreenToClient
  0024a	8b 45 ec	 mov	 eax, DWORD PTR _rect$[ebp]
  0024d	8d 8f 08 1c 00
	00		 lea	 ecx, DWORD PTR [edi+7176]
  00253	6a 01		 push	 1
  00255	6a 00		 push	 0
  00257	6a 00		 push	 0
  00259	6a 00		 push	 0
  0025b	83 c0 3f	 add	 eax, 63			; 0000003fH
  0025e	50		 push	 eax
  0025f	ff 35 00 00 00
	00		 push	 DWORD PTR __imp_?wndTop@CWnd@@2V1@B
  00265	e8 00 00 00 00	 call	 ?SetWindowPos@CWnd@@QAEHPBV1@HHHHI@Z ; CWnd::SetWindowPos
; File C:\Program Files (x86)\Microsoft Visual Studio\2019\Community\VC\Tools\MSVC\14.29.30133\atlmfc\include\afxwin2.inl

; 114  : 	{ ASSERT(::IsWindow(m_hWnd)); ::InvalidateRect(m_hWnd, NULL, bErase); }

  0026a	6a 01		 push	 1
  0026c	6a 00		 push	 0
  0026e	ff b7 28 1c 00
	00		 push	 DWORD PTR [edi+7208]
  00274	ff d3		 call	 ebx

; 84   : 	{ ASSERT(::IsWindow(m_hWnd)); ::GetWindowRect(m_hWnd, lpRect); }

  00276	8d 45 ec	 lea	 eax, DWORD PTR _rect$[ebp]
  00279	50		 push	 eax
  0027a	ff b7 88 1d 00
	00		 push	 DWORD PTR [edi+7560]
  00280	ff d6		 call	 esi
; File D:\git\src\IBK\IBK_DRFN\ProjSrc\SrcDrfn\Chart\MULTICHART\ExtInputBarDlg.cpp

; 1544 : 		SHIFTCONTROL(m_btExNext,nShiftExt12,rect);

  00282	8d 45 ec	 lea	 eax, DWORD PTR _rect$[ebp]
  00285	8b cf		 mov	 ecx, edi
  00287	50		 push	 eax
  00288	e8 00 00 00 00	 call	 ?ScreenToClient@CWnd@@QBEXPAUtagRECT@@@Z ; CWnd::ScreenToClient
  0028d	8b 45 ec	 mov	 eax, DWORD PTR _rect$[ebp]
  00290	8d 8f 68 1d 00
	00		 lea	 ecx, DWORD PTR [edi+7528]
  00296	6a 01		 push	 1
  00298	6a 00		 push	 0
  0029a	6a 00		 push	 0
  0029c	6a 00		 push	 0
  0029e	83 c0 3f	 add	 eax, 63			; 0000003fH
  002a1	50		 push	 eax
  002a2	ff 35 00 00 00
	00		 push	 DWORD PTR __imp_?wndTop@CWnd@@2V1@B
  002a8	e8 00 00 00 00	 call	 ?SetWindowPos@CWnd@@QAEHPBV1@HHHHI@Z ; CWnd::SetWindowPos
; File C:\Program Files (x86)\Microsoft Visual Studio\2019\Community\VC\Tools\MSVC\14.29.30133\atlmfc\include\afxwin2.inl

; 114  : 	{ ASSERT(::IsWindow(m_hWnd)); ::InvalidateRect(m_hWnd, NULL, bErase); }

  002ad	6a 01		 push	 1
  002af	6a 00		 push	 0
  002b1	ff b7 88 1d 00
	00		 push	 DWORD PTR [edi+7560]
  002b7	ff d3		 call	 ebx

; 84   : 	{ ASSERT(::IsWindow(m_hWnd)); ::GetWindowRect(m_hWnd, lpRect); }

  002b9	8d 45 ec	 lea	 eax, DWORD PTR _rect$[ebp]
  002bc	50		 push	 eax
  002bd	ff b7 48 2b 00
	00		 push	 DWORD PTR [edi+11080]
  002c3	ff d6		 call	 esi
; File D:\git\src\IBK\IBK_DRFN\ProjSrc\SrcDrfn\Chart\MULTICHART\ExtInputBarDlg.cpp

; 1545 : 		SHIFTCONTROL(m_btInitSplit,nShiftExt12,rect);

  002c5	8d 45 ec	 lea	 eax, DWORD PTR _rect$[ebp]
  002c8	8b cf		 mov	 ecx, edi
  002ca	50		 push	 eax
  002cb	e8 00 00 00 00	 call	 ?ScreenToClient@CWnd@@QBEXPAUtagRECT@@@Z ; CWnd::ScreenToClient
  002d0	8b 45 ec	 mov	 eax, DWORD PTR _rect$[ebp]
  002d3	8d 8f 28 2b 00
	00		 lea	 ecx, DWORD PTR [edi+11048]
  002d9	6a 01		 push	 1
  002db	6a 00		 push	 0
  002dd	6a 00		 push	 0
  002df	6a 00		 push	 0
  002e1	83 c0 3f	 add	 eax, 63			; 0000003fH
  002e4	50		 push	 eax
  002e5	ff 35 00 00 00
	00		 push	 DWORD PTR __imp_?wndTop@CWnd@@2V1@B
  002eb	e8 00 00 00 00	 call	 ?SetWindowPos@CWnd@@QAEHPBV1@HHHHI@Z ; CWnd::SetWindowPos
; File C:\Program Files (x86)\Microsoft Visual Studio\2019\Community\VC\Tools\MSVC\14.29.30133\atlmfc\include\afxwin2.inl

; 114  : 	{ ASSERT(::IsWindow(m_hWnd)); ::InvalidateRect(m_hWnd, NULL, bErase); }

  002f0	6a 01		 push	 1
  002f2	6a 00		 push	 0
  002f4	ff b7 48 2b 00
	00		 push	 DWORD PTR [edi+11080]
  002fa	ff d3		 call	 ebx

; 84   : 	{ ASSERT(::IsWindow(m_hWnd)); ::GetWindowRect(m_hWnd, lpRect); }

  002fc	8d 45 ec	 lea	 eax, DWORD PTR _rect$[ebp]
  002ff	50		 push	 eax
  00300	ff b7 68 24 00
	00		 push	 DWORD PTR [edi+9320]
  00306	ff d6		 call	 esi
; File D:\git\src\IBK\IBK_DRFN\ProjSrc\SrcDrfn\Chart\MULTICHART\ExtInputBarDlg.cpp

; 1548 : 		SHIFTCONTROL(m_chkJongmokLink,nShiftExt12,rect);

  00308	8d 45 ec	 lea	 eax, DWORD PTR _rect$[ebp]
  0030b	8b cf		 mov	 ecx, edi
  0030d	50		 push	 eax
  0030e	e8 00 00 00 00	 call	 ?ScreenToClient@CWnd@@QBEXPAUtagRECT@@@Z ; CWnd::ScreenToClient
  00313	8b 45 ec	 mov	 eax, DWORD PTR _rect$[ebp]
  00316	8d 8f 48 24 00
	00		 lea	 ecx, DWORD PTR [edi+9288]
  0031c	6a 01		 push	 1
  0031e	6a 00		 push	 0
  00320	6a 00		 push	 0
  00322	6a 00		 push	 0
  00324	83 c0 3f	 add	 eax, 63			; 0000003fH
  00327	50		 push	 eax
  00328	ff 35 00 00 00
	00		 push	 DWORD PTR __imp_?wndTop@CWnd@@2V1@B
  0032e	e8 00 00 00 00	 call	 ?SetWindowPos@CWnd@@QAEHPBV1@HHHHI@Z ; CWnd::SetWindowPos
; File C:\Program Files (x86)\Microsoft Visual Studio\2019\Community\VC\Tools\MSVC\14.29.30133\atlmfc\include\afxwin2.inl

; 114  : 	{ ASSERT(::IsWindow(m_hWnd)); ::InvalidateRect(m_hWnd, NULL, bErase); }

  00333	6a 01		 push	 1
  00335	6a 00		 push	 0
  00337	ff b7 68 24 00
	00		 push	 DWORD PTR [edi+9320]
  0033d	ff d3		 call	 ebx

; 84   : 	{ ASSERT(::IsWindow(m_hWnd)); ::GetWindowRect(m_hWnd, lpRect); }

  0033f	8d 45 ec	 lea	 eax, DWORD PTR _rect$[ebp]
  00342	50		 push	 eax
  00343	ff b7 e8 29 00
	00		 push	 DWORD PTR [edi+10728]
  00349	ff d6		 call	 esi
; File D:\git\src\IBK\IBK_DRFN\ProjSrc\SrcDrfn\Chart\MULTICHART\ExtInputBarDlg.cpp

; 1549 : 		SHIFTCONTROL(m_chkTypeLink,nShiftExt12,rect);

  0034b	8d 45 ec	 lea	 eax, DWORD PTR _rect$[ebp]
  0034e	8b cf		 mov	 ecx, edi
  00350	50		 push	 eax
  00351	e8 00 00 00 00	 call	 ?ScreenToClient@CWnd@@QBEXPAUtagRECT@@@Z ; CWnd::ScreenToClient
  00356	8b 45 ec	 mov	 eax, DWORD PTR _rect$[ebp]
  00359	8d 8f c8 29 00
	00		 lea	 ecx, DWORD PTR [edi+10696]
  0035f	6a 01		 push	 1
  00361	6a 00		 push	 0
  00363	6a 00		 push	 0
  00365	6a 00		 push	 0
  00367	83 c0 3f	 add	 eax, 63			; 0000003fH
  0036a	50		 push	 eax
  0036b	ff 35 00 00 00
	00		 push	 DWORD PTR __imp_?wndTop@CWnd@@2V1@B
  00371	e8 00 00 00 00	 call	 ?SetWindowPos@CWnd@@QAEHPBV1@HHHHI@Z ; CWnd::SetWindowPos
; File C:\Program Files (x86)\Microsoft Visual Studio\2019\Community\VC\Tools\MSVC\14.29.30133\atlmfc\include\afxwin2.inl

; 114  : 	{ ASSERT(::IsWindow(m_hWnd)); ::InvalidateRect(m_hWnd, NULL, bErase); }

  00376	6a 01		 push	 1
  00378	6a 00		 push	 0
  0037a	ff b7 e8 29 00
	00		 push	 DWORD PTR [edi+10728]
  00380	ff d3		 call	 ebx

; 84   : 	{ ASSERT(::IsWindow(m_hWnd)); ::GetWindowRect(m_hWnd, lpRect); }

  00382	8d 45 ec	 lea	 eax, DWORD PTR _rect$[ebp]
  00385	50		 push	 eax
  00386	ff b7 e8 0d 00
	00		 push	 DWORD PTR [edi+3560]
  0038c	ff d6		 call	 esi
; File D:\git\src\IBK\IBK_DRFN\ProjSrc\SrcDrfn\Chart\MULTICHART\ExtInputBarDlg.cpp

; 1550 : 		SHIFTCONTROL(m_chkUpdateIndex,nShiftExt12,rect);

  0038e	8d 45 ec	 lea	 eax, DWORD PTR _rect$[ebp]
  00391	8b cf		 mov	 ecx, edi
  00393	50		 push	 eax
  00394	e8 00 00 00 00	 call	 ?ScreenToClient@CWnd@@QBEXPAUtagRECT@@@Z ; CWnd::ScreenToClient
  00399	8b 45 ec	 mov	 eax, DWORD PTR _rect$[ebp]
  0039c	8d 8f c8 0d 00
	00		 lea	 ecx, DWORD PTR [edi+3528]
  003a2	6a 01		 push	 1
  003a4	6a 00		 push	 0
  003a6	6a 00		 push	 0
  003a8	6a 00		 push	 0
  003aa	83 c0 3f	 add	 eax, 63			; 0000003fH
  003ad	50		 push	 eax
  003ae	ff 35 00 00 00
	00		 push	 DWORD PTR __imp_?wndTop@CWnd@@2V1@B
  003b4	e8 00 00 00 00	 call	 ?SetWindowPos@CWnd@@QAEHPBV1@HHHHI@Z ; CWnd::SetWindowPos
; File C:\Program Files (x86)\Microsoft Visual Studio\2019\Community\VC\Tools\MSVC\14.29.30133\atlmfc\include\afxwin2.inl

; 114  : 	{ ASSERT(::IsWindow(m_hWnd)); ::InvalidateRect(m_hWnd, NULL, bErase); }

  003b9	6a 01		 push	 1
  003bb	6a 00		 push	 0
  003bd	ff b7 e8 0d 00
	00		 push	 DWORD PTR [edi+3560]
  003c3	ff d3		 call	 ebx

; 84   : 	{ ASSERT(::IsWindow(m_hWnd)); ::GetWindowRect(m_hWnd, lpRect); }

  003c5	8d 45 ec	 lea	 eax, DWORD PTR _rect$[ebp]
  003c8	50		 push	 eax
  003c9	ff b7 a8 21 00
	00		 push	 DWORD PTR [edi+8616]
  003cf	ff d6		 call	 esi
; File D:\git\src\IBK\IBK_DRFN\ProjSrc\SrcDrfn\Chart\MULTICHART\ExtInputBarDlg.cpp

; 1554 : 		SHIFTCONTROL(m_chkShowScale,nShiftExt12,rect);

  003d1	8d 45 ec	 lea	 eax, DWORD PTR _rect$[ebp]
  003d4	8b cf		 mov	 ecx, edi
  003d6	50		 push	 eax
  003d7	e8 00 00 00 00	 call	 ?ScreenToClient@CWnd@@QBEXPAUtagRECT@@@Z ; CWnd::ScreenToClient
  003dc	8b 45 ec	 mov	 eax, DWORD PTR _rect$[ebp]
  003df	8d 8f 88 21 00
	00		 lea	 ecx, DWORD PTR [edi+8584]
  003e5	6a 01		 push	 1
  003e7	6a 00		 push	 0
  003e9	6a 00		 push	 0
  003eb	6a 00		 push	 0
  003ed	83 c0 3f	 add	 eax, 63			; 0000003fH
  003f0	50		 push	 eax
  003f1	ff 35 00 00 00
	00		 push	 DWORD PTR __imp_?wndTop@CWnd@@2V1@B
  003f7	e8 00 00 00 00	 call	 ?SetWindowPos@CWnd@@QAEHPBV1@HHHHI@Z ; CWnd::SetWindowPos
; File C:\Program Files (x86)\Microsoft Visual Studio\2019\Community\VC\Tools\MSVC\14.29.30133\atlmfc\include\afxwin2.inl

; 114  : 	{ ASSERT(::IsWindow(m_hWnd)); ::InvalidateRect(m_hWnd, NULL, bErase); }

  003fc	6a 01		 push	 1
  003fe	6a 00		 push	 0
  00400	ff b7 a8 21 00
	00		 push	 DWORD PTR [edi+8616]
  00406	ff d3		 call	 ebx

; 84   : 	{ ASSERT(::IsWindow(m_hWnd)); ::GetWindowRect(m_hWnd, lpRect); }

  00408	8d 45 ec	 lea	 eax, DWORD PTR _rect$[ebp]
  0040b	50		 push	 eax
  0040c	ff b7 c8 1a 00
	00		 push	 DWORD PTR [edi+6856]
  00412	ff d6		 call	 esi
; File D:\git\src\IBK\IBK_DRFN\ProjSrc\SrcDrfn\Chart\MULTICHART\ExtInputBarDlg.cpp

; 1555 : 		SHIFTCONTROL(m_btAnalysisPattern,nShiftExt12,rect);

  00414	8d 45 ec	 lea	 eax, DWORD PTR _rect$[ebp]
  00417	8b cf		 mov	 ecx, edi
  00419	50		 push	 eax
  0041a	e8 00 00 00 00	 call	 ?ScreenToClient@CWnd@@QBEXPAUtagRECT@@@Z ; CWnd::ScreenToClient
  0041f	8b 45 ec	 mov	 eax, DWORD PTR _rect$[ebp]
  00422	8d 8f a8 1a 00
	00		 lea	 ecx, DWORD PTR [edi+6824]
  00428	6a 01		 push	 1
  0042a	6a 00		 push	 0
  0042c	6a 00		 push	 0
  0042e	6a 00		 push	 0
  00430	83 c0 3f	 add	 eax, 63			; 0000003fH
  00433	50		 push	 eax
  00434	ff 35 00 00 00
	00		 push	 DWORD PTR __imp_?wndTop@CWnd@@2V1@B
  0043a	e8 00 00 00 00	 call	 ?SetWindowPos@CWnd@@QAEHPBV1@HHHHI@Z ; CWnd::SetWindowPos
; File C:\Program Files (x86)\Microsoft Visual Studio\2019\Community\VC\Tools\MSVC\14.29.30133\atlmfc\include\afxwin2.inl

; 114  : 	{ ASSERT(::IsWindow(m_hWnd)); ::InvalidateRect(m_hWnd, NULL, bErase); }

  0043f	6a 01		 push	 1
  00441	6a 00		 push	 0
  00443	ff b7 c8 1a 00
	00		 push	 DWORD PTR [edi+6856]
  00449	ff d3		 call	 ebx

; 84   : 	{ ASSERT(::IsWindow(m_hWnd)); ::GetWindowRect(m_hWnd, lpRect); }

  0044b	8d 45 ec	 lea	 eax, DWORD PTR _rect$[ebp]
  0044e	50		 push	 eax
  0044f	ff b7 68 19 00
	00		 push	 DWORD PTR [edi+6504]
  00455	ff d6		 call	 esi
; File D:\git\src\IBK\IBK_DRFN\ProjSrc\SrcDrfn\Chart\MULTICHART\ExtInputBarDlg.cpp

; 1556 : 		SHIFTCONTROL(m_btChartGuideLine,nShiftExt12,rect);

  00457	8d 45 ec	 lea	 eax, DWORD PTR _rect$[ebp]
  0045a	8b cf		 mov	 ecx, edi
  0045c	50		 push	 eax
  0045d	e8 00 00 00 00	 call	 ?ScreenToClient@CWnd@@QBEXPAUtagRECT@@@Z ; CWnd::ScreenToClient
  00462	8b 45 ec	 mov	 eax, DWORD PTR _rect$[ebp]
  00465	8d 8f 48 19 00
	00		 lea	 ecx, DWORD PTR [edi+6472]
  0046b	6a 01		 push	 1
  0046d	6a 00		 push	 0
  0046f	6a 00		 push	 0
  00471	6a 00		 push	 0
  00473	83 c0 3f	 add	 eax, 63			; 0000003fH
  00476	50		 push	 eax
  00477	ff 35 00 00 00
	00		 push	 DWORD PTR __imp_?wndTop@CWnd@@2V1@B
  0047d	e8 00 00 00 00	 call	 ?SetWindowPos@CWnd@@QAEHPBV1@HHHHI@Z ; CWnd::SetWindowPos
; File C:\Program Files (x86)\Microsoft Visual Studio\2019\Community\VC\Tools\MSVC\14.29.30133\atlmfc\include\afxwin2.inl

; 114  : 	{ ASSERT(::IsWindow(m_hWnd)); ::InvalidateRect(m_hWnd, NULL, bErase); }

  00482	6a 01		 push	 1
  00484	6a 00		 push	 0
  00486	ff b7 68 19 00
	00		 push	 DWORD PTR [edi+6504]
  0048c	ff d3		 call	 ebx

; 84   : 	{ ASSERT(::IsWindow(m_hWnd)); ::GetWindowRect(m_hWnd, lpRect); }

  0048e	8d 45 ec	 lea	 eax, DWORD PTR _rect$[ebp]
  00491	50		 push	 eax
  00492	ff b7 08 18 00
	00		 push	 DWORD PTR [edi+6152]
  00498	ff d6		 call	 esi
; File D:\git\src\IBK\IBK_DRFN\ProjSrc\SrcDrfn\Chart\MULTICHART\ExtInputBarDlg.cpp

; 1557 : 		SHIFTCONTROL(m_btHist,nShiftExt12,rect);

  0049a	8d 45 ec	 lea	 eax, DWORD PTR _rect$[ebp]
  0049d	8b cf		 mov	 ecx, edi
  0049f	50		 push	 eax
  004a0	e8 00 00 00 00	 call	 ?ScreenToClient@CWnd@@QBEXPAUtagRECT@@@Z ; CWnd::ScreenToClient
  004a5	8b 45 ec	 mov	 eax, DWORD PTR _rect$[ebp]
  004a8	6a 01		 push	 1
  004aa	6a 00		 push	 0
  004ac	6a 00		 push	 0
  004ae	6a 00		 push	 0
  004b0	83 c0 3f	 add	 eax, 63			; 0000003fH
  004b3	50		 push	 eax
  004b4	ff 35 00 00 00
	00		 push	 DWORD PTR __imp_?wndTop@CWnd@@2V1@B
  004ba	8d 8f e8 17 00
	00		 lea	 ecx, DWORD PTR [edi+6120]
  004c0	e8 00 00 00 00	 call	 ?SetWindowPos@CWnd@@QAEHPBV1@HHHHI@Z ; CWnd::SetWindowPos
; File C:\Program Files (x86)\Microsoft Visual Studio\2019\Community\VC\Tools\MSVC\14.29.30133\atlmfc\include\afxwin2.inl

; 114  : 	{ ASSERT(::IsWindow(m_hWnd)); ::InvalidateRect(m_hWnd, NULL, bErase); }

  004c5	6a 01		 push	 1
  004c7	6a 00		 push	 0
  004c9	ff b7 08 18 00
	00		 push	 DWORD PTR [edi+6152]
  004cf	ff d3		 call	 ebx

; 84   : 	{ ASSERT(::IsWindow(m_hWnd)); ::GetWindowRect(m_hWnd, lpRect); }

  004d1	8d 45 ec	 lea	 eax, DWORD PTR _rect$[ebp]
  004d4	50		 push	 eax
  004d5	ff b7 a8 16 00
	00		 push	 DWORD PTR [edi+5800]
  004db	ff d6		 call	 esi
; File D:\git\src\IBK\IBK_DRFN\ProjSrc\SrcDrfn\Chart\MULTICHART\ExtInputBarDlg.cpp

; 1558 : 		SHIFTCONTROL(m_btST,nShiftExt12,rect);

  004dd	8d 45 ec	 lea	 eax, DWORD PTR _rect$[ebp]
  004e0	8b cf		 mov	 ecx, edi
  004e2	50		 push	 eax
  004e3	e8 00 00 00 00	 call	 ?ScreenToClient@CWnd@@QBEXPAUtagRECT@@@Z ; CWnd::ScreenToClient
  004e8	8b 45 ec	 mov	 eax, DWORD PTR _rect$[ebp]
  004eb	83 c0 3f	 add	 eax, 63			; 0000003fH

; 1559 : 	}

  004ee	e9 0c 07 00 00	 jmp	 $LN186@SetExt
$LN2@SetExt:

; 1560 : 	else if(nAct==2)

  004f3	83 f8 02	 cmp	 eax, 2
  004f6	0f 85 ab 03 00
	00		 jne	 $LN4@SetExt
; File C:\Program Files (x86)\Microsoft Visual Studio\2019\Community\VC\Tools\MSVC\14.29.30133\atlmfc\include\afxwin2.inl

; 84   : 	{ ASSERT(::IsWindow(m_hWnd)); ::GetWindowRect(m_hWnd, lpRect); }

  004fc	8b 35 00 00 00
	00		 mov	 esi, DWORD PTR __imp__GetWindowRect@8
  00502	8d 45 ec	 lea	 eax, DWORD PTR _rect$[ebp]
  00505	50		 push	 eax
  00506	ff b7 28 2d 00
	00		 push	 DWORD PTR [edi+11560]
  0050c	ff d6		 call	 esi
; File D:\git\src\IBK\IBK_DRFN\ProjSrc\SrcDrfn\Chart\MULTICHART\ExtInputBarDlg.cpp

; 1568 : 		SHIFTCONTROL(m_stSetMatrix,nShiftExt23,rect);

  0050e	8d 45 ec	 lea	 eax, DWORD PTR _rect$[ebp]
  00511	8b cf		 mov	 ecx, edi
  00513	50		 push	 eax
  00514	e8 00 00 00 00	 call	 ?ScreenToClient@CWnd@@QBEXPAUtagRECT@@@Z ; CWnd::ScreenToClient
  00519	8b 45 ec	 mov	 eax, DWORD PTR _rect$[ebp]
  0051c	8d 8f 08 2d 00
	00		 lea	 ecx, DWORD PTR [edi+11528]
  00522	6a 01		 push	 1
  00524	6a 00		 push	 0
  00526	6a 00		 push	 0
  00528	6a 00		 push	 0
  0052a	05 e6 00 00 00	 add	 eax, 230		; 000000e6H
  0052f	50		 push	 eax
  00530	ff 35 00 00 00
	00		 push	 DWORD PTR __imp_?wndTop@CWnd@@2V1@B
  00536	e8 00 00 00 00	 call	 ?SetWindowPos@CWnd@@QAEHPBV1@HHHHI@Z ; CWnd::SetWindowPos
; File C:\Program Files (x86)\Microsoft Visual Studio\2019\Community\VC\Tools\MSVC\14.29.30133\atlmfc\include\afxwin2.inl

; 114  : 	{ ASSERT(::IsWindow(m_hWnd)); ::InvalidateRect(m_hWnd, NULL, bErase); }

  0053b	6a 01		 push	 1
  0053d	6a 00		 push	 0
  0053f	ff b7 28 2d 00
	00		 push	 DWORD PTR [edi+11560]
  00545	ff d3		 call	 ebx

; 84   : 	{ ASSERT(::IsWindow(m_hWnd)); ::GetWindowRect(m_hWnd, lpRect); }

  00547	8d 45 ec	 lea	 eax, DWORD PTR _rect$[ebp]
  0054a	50		 push	 eax
  0054b	ff b7 a8 2c 00
	00		 push	 DWORD PTR [edi+11432]
  00551	ff d6		 call	 esi
; File D:\git\src\IBK\IBK_DRFN\ProjSrc\SrcDrfn\Chart\MULTICHART\ExtInputBarDlg.cpp

; 1569 : 		SHIFTCONTROL(m_stBy,nShiftExt23,rect);

  00553	8d 45 ec	 lea	 eax, DWORD PTR _rect$[ebp]
  00556	8b cf		 mov	 ecx, edi
  00558	50		 push	 eax
  00559	e8 00 00 00 00	 call	 ?ScreenToClient@CWnd@@QBEXPAUtagRECT@@@Z ; CWnd::ScreenToClient
  0055e	8b 45 ec	 mov	 eax, DWORD PTR _rect$[ebp]
  00561	8d 8f 88 2c 00
	00		 lea	 ecx, DWORD PTR [edi+11400]
  00567	6a 01		 push	 1
  00569	6a 00		 push	 0
  0056b	6a 00		 push	 0
  0056d	6a 00		 push	 0
  0056f	05 e6 00 00 00	 add	 eax, 230		; 000000e6H
  00574	50		 push	 eax
  00575	ff 35 00 00 00
	00		 push	 DWORD PTR __imp_?wndTop@CWnd@@2V1@B
  0057b	e8 00 00 00 00	 call	 ?SetWindowPos@CWnd@@QAEHPBV1@HHHHI@Z ; CWnd::SetWindowPos
; File C:\Program Files (x86)\Microsoft Visual Studio\2019\Community\VC\Tools\MSVC\14.29.30133\atlmfc\include\afxwin2.inl

; 114  : 	{ ASSERT(::IsWindow(m_hWnd)); ::InvalidateRect(m_hWnd, NULL, bErase); }

  00580	6a 01		 push	 1
  00582	6a 00		 push	 0
  00584	ff b7 a8 2c 00
	00		 push	 DWORD PTR [edi+11432]
  0058a	ff d3		 call	 ebx

; 84   : 	{ ASSERT(::IsWindow(m_hWnd)); ::GetWindowRect(m_hWnd, lpRect); }

  0058c	8d 45 ec	 lea	 eax, DWORD PTR _rect$[ebp]
  0058f	50		 push	 eax
  00590	ff b7 e8 1e 00
	00		 push	 DWORD PTR [edi+7912]
  00596	ff d6		 call	 esi
; File D:\git\src\IBK\IBK_DRFN\ProjSrc\SrcDrfn\Chart\MULTICHART\ExtInputBarDlg.cpp

; 1570 : 		SHIFTCONTROL(m_btShowMatrix,nShiftExt23,rect);

  00598	8d 45 ec	 lea	 eax, DWORD PTR _rect$[ebp]
  0059b	8b cf		 mov	 ecx, edi
  0059d	50		 push	 eax
  0059e	e8 00 00 00 00	 call	 ?ScreenToClient@CWnd@@QBEXPAUtagRECT@@@Z ; CWnd::ScreenToClient
  005a3	8b 45 ec	 mov	 eax, DWORD PTR _rect$[ebp]
  005a6	8d 8f c8 1e 00
	00		 lea	 ecx, DWORD PTR [edi+7880]
  005ac	6a 01		 push	 1
  005ae	6a 00		 push	 0
  005b0	6a 00		 push	 0
  005b2	6a 00		 push	 0
  005b4	05 e6 00 00 00	 add	 eax, 230		; 000000e6H
  005b9	50		 push	 eax
  005ba	ff 35 00 00 00
	00		 push	 DWORD PTR __imp_?wndTop@CWnd@@2V1@B
  005c0	e8 00 00 00 00	 call	 ?SetWindowPos@CWnd@@QAEHPBV1@HHHHI@Z ; CWnd::SetWindowPos
; File C:\Program Files (x86)\Microsoft Visual Studio\2019\Community\VC\Tools\MSVC\14.29.30133\atlmfc\include\afxwin2.inl

; 114  : 	{ ASSERT(::IsWindow(m_hWnd)); ::InvalidateRect(m_hWnd, NULL, bErase); }

  005c5	6a 01		 push	 1
  005c7	6a 00		 push	 0
  005c9	ff b7 e8 1e 00
	00		 push	 DWORD PTR [edi+7912]
  005cf	ff d3		 call	 ebx

; 84   : 	{ ASSERT(::IsWindow(m_hWnd)); ::GetWindowRect(m_hWnd, lpRect); }

  005d1	8d 45 ec	 lea	 eax, DWORD PTR _rect$[ebp]
  005d4	50		 push	 eax
  005d5	ff b7 28 1c 00
	00		 push	 DWORD PTR [edi+7208]
  005db	ff d6		 call	 esi
; File D:\git\src\IBK\IBK_DRFN\ProjSrc\SrcDrfn\Chart\MULTICHART\ExtInputBarDlg.cpp

; 1571 : 		SHIFTCONTROL(m_btExPrev,nShiftExt23,rect);

  005dd	8d 45 ec	 lea	 eax, DWORD PTR _rect$[ebp]
  005e0	8b cf		 mov	 ecx, edi
  005e2	50		 push	 eax
  005e3	e8 00 00 00 00	 call	 ?ScreenToClient@CWnd@@QBEXPAUtagRECT@@@Z ; CWnd::ScreenToClient
  005e8	8b 45 ec	 mov	 eax, DWORD PTR _rect$[ebp]
  005eb	6a 01		 push	 1
  005ed	6a 00		 push	 0
  005ef	6a 00		 push	 0
  005f1	6a 00		 push	 0
  005f3	05 e6 00 00 00	 add	 eax, 230		; 000000e6H
  005f8	50		 push	 eax
  005f9	ff 35 00 00 00
	00		 push	 DWORD PTR __imp_?wndTop@CWnd@@2V1@B
  005ff	8d 8f 08 1c 00
	00		 lea	 ecx, DWORD PTR [edi+7176]
  00605	e8 00 00 00 00	 call	 ?SetWindowPos@CWnd@@QAEHPBV1@HHHHI@Z ; CWnd::SetWindowPos
; File C:\Program Files (x86)\Microsoft Visual Studio\2019\Community\VC\Tools\MSVC\14.29.30133\atlmfc\include\afxwin2.inl

; 114  : 	{ ASSERT(::IsWindow(m_hWnd)); ::InvalidateRect(m_hWnd, NULL, bErase); }

  0060a	6a 01		 push	 1
  0060c	6a 00		 push	 0
  0060e	ff b7 28 1c 00
	00		 push	 DWORD PTR [edi+7208]
  00614	ff d3		 call	 ebx

; 84   : 	{ ASSERT(::IsWindow(m_hWnd)); ::GetWindowRect(m_hWnd, lpRect); }

  00616	8d 45 ec	 lea	 eax, DWORD PTR _rect$[ebp]
  00619	50		 push	 eax
  0061a	ff b7 88 1d 00
	00		 push	 DWORD PTR [edi+7560]
  00620	ff d6		 call	 esi
; File D:\git\src\IBK\IBK_DRFN\ProjSrc\SrcDrfn\Chart\MULTICHART\ExtInputBarDlg.cpp

; 1572 : 		SHIFTCONTROL(m_btExNext,nShiftExt23,rect);

  00622	8d 45 ec	 lea	 eax, DWORD PTR _rect$[ebp]
  00625	8b cf		 mov	 ecx, edi
  00627	50		 push	 eax
  00628	e8 00 00 00 00	 call	 ?ScreenToClient@CWnd@@QBEXPAUtagRECT@@@Z ; CWnd::ScreenToClient
  0062d	8b 45 ec	 mov	 eax, DWORD PTR _rect$[ebp]
  00630	8d 8f 68 1d 00
	00		 lea	 ecx, DWORD PTR [edi+7528]
  00636	6a 01		 push	 1
  00638	6a 00		 push	 0
  0063a	6a 00		 push	 0
  0063c	6a 00		 push	 0
  0063e	05 e6 00 00 00	 add	 eax, 230		; 000000e6H
  00643	50		 push	 eax
  00644	ff 35 00 00 00
	00		 push	 DWORD PTR __imp_?wndTop@CWnd@@2V1@B
  0064a	e8 00 00 00 00	 call	 ?SetWindowPos@CWnd@@QAEHPBV1@HHHHI@Z ; CWnd::SetWindowPos
; File C:\Program Files (x86)\Microsoft Visual Studio\2019\Community\VC\Tools\MSVC\14.29.30133\atlmfc\include\afxwin2.inl

; 114  : 	{ ASSERT(::IsWindow(m_hWnd)); ::InvalidateRect(m_hWnd, NULL, bErase); }

  0064f	6a 01		 push	 1
  00651	6a 00		 push	 0
  00653	ff b7 88 1d 00
	00		 push	 DWORD PTR [edi+7560]
  00659	ff d3		 call	 ebx

; 84   : 	{ ASSERT(::IsWindow(m_hWnd)); ::GetWindowRect(m_hWnd, lpRect); }

  0065b	8d 45 ec	 lea	 eax, DWORD PTR _rect$[ebp]
  0065e	50		 push	 eax
  0065f	ff b7 48 2b 00
	00		 push	 DWORD PTR [edi+11080]
  00665	ff d6		 call	 esi
; File D:\git\src\IBK\IBK_DRFN\ProjSrc\SrcDrfn\Chart\MULTICHART\ExtInputBarDlg.cpp

; 1573 : 		SHIFTCONTROL(m_btInitSplit,nShiftExt23,rect);

  00667	8d 45 ec	 lea	 eax, DWORD PTR _rect$[ebp]
  0066a	8b cf		 mov	 ecx, edi
  0066c	50		 push	 eax
  0066d	e8 00 00 00 00	 call	 ?ScreenToClient@CWnd@@QBEXPAUtagRECT@@@Z ; CWnd::ScreenToClient
  00672	8b 45 ec	 mov	 eax, DWORD PTR _rect$[ebp]
  00675	8d 8f 28 2b 00
	00		 lea	 ecx, DWORD PTR [edi+11048]
  0067b	6a 01		 push	 1
  0067d	6a 00		 push	 0
  0067f	6a 00		 push	 0
  00681	6a 00		 push	 0
  00683	05 e6 00 00 00	 add	 eax, 230		; 000000e6H
  00688	50		 push	 eax
  00689	ff 35 00 00 00
	00		 push	 DWORD PTR __imp_?wndTop@CWnd@@2V1@B
  0068f	e8 00 00 00 00	 call	 ?SetWindowPos@CWnd@@QAEHPBV1@HHHHI@Z ; CWnd::SetWindowPos
; File C:\Program Files (x86)\Microsoft Visual Studio\2019\Community\VC\Tools\MSVC\14.29.30133\atlmfc\include\afxwin2.inl

; 114  : 	{ ASSERT(::IsWindow(m_hWnd)); ::InvalidateRect(m_hWnd, NULL, bErase); }

  00694	6a 01		 push	 1
  00696	6a 00		 push	 0
  00698	ff b7 48 2b 00
	00		 push	 DWORD PTR [edi+11080]
  0069e	ff d3		 call	 ebx

; 84   : 	{ ASSERT(::IsWindow(m_hWnd)); ::GetWindowRect(m_hWnd, lpRect); }

  006a0	8d 45 ec	 lea	 eax, DWORD PTR _rect$[ebp]
  006a3	50		 push	 eax
  006a4	ff b7 68 24 00
	00		 push	 DWORD PTR [edi+9320]
  006aa	ff d6		 call	 esi
; File D:\git\src\IBK\IBK_DRFN\ProjSrc\SrcDrfn\Chart\MULTICHART\ExtInputBarDlg.cpp

; 1576 : 		SHIFTCONTROL(m_chkJongmokLink,nShiftExt23,rect);

  006ac	8d 45 ec	 lea	 eax, DWORD PTR _rect$[ebp]
  006af	8b cf		 mov	 ecx, edi
  006b1	50		 push	 eax
  006b2	e8 00 00 00 00	 call	 ?ScreenToClient@CWnd@@QBEXPAUtagRECT@@@Z ; CWnd::ScreenToClient
  006b7	8b 45 ec	 mov	 eax, DWORD PTR _rect$[ebp]
  006ba	8d 8f 48 24 00
	00		 lea	 ecx, DWORD PTR [edi+9288]
  006c0	6a 01		 push	 1
  006c2	6a 00		 push	 0
  006c4	6a 00		 push	 0
  006c6	6a 00		 push	 0
  006c8	05 e6 00 00 00	 add	 eax, 230		; 000000e6H
  006cd	50		 push	 eax
  006ce	ff 35 00 00 00
	00		 push	 DWORD PTR __imp_?wndTop@CWnd@@2V1@B
  006d4	e8 00 00 00 00	 call	 ?SetWindowPos@CWnd@@QAEHPBV1@HHHHI@Z ; CWnd::SetWindowPos
; File C:\Program Files (x86)\Microsoft Visual Studio\2019\Community\VC\Tools\MSVC\14.29.30133\atlmfc\include\afxwin2.inl

; 114  : 	{ ASSERT(::IsWindow(m_hWnd)); ::InvalidateRect(m_hWnd, NULL, bErase); }

  006d9	6a 01		 push	 1
  006db	6a 00		 push	 0
  006dd	ff b7 68 24 00
	00		 push	 DWORD PTR [edi+9320]
  006e3	ff d3		 call	 ebx

; 84   : 	{ ASSERT(::IsWindow(m_hWnd)); ::GetWindowRect(m_hWnd, lpRect); }

  006e5	8d 45 ec	 lea	 eax, DWORD PTR _rect$[ebp]
  006e8	50		 push	 eax
  006e9	ff b7 e8 29 00
	00		 push	 DWORD PTR [edi+10728]
  006ef	ff d6		 call	 esi
; File D:\git\src\IBK\IBK_DRFN\ProjSrc\SrcDrfn\Chart\MULTICHART\ExtInputBarDlg.cpp

; 1577 : 		SHIFTCONTROL(m_chkTypeLink,nShiftExt23,rect);

  006f1	8d 45 ec	 lea	 eax, DWORD PTR _rect$[ebp]
  006f4	8b cf		 mov	 ecx, edi
  006f6	50		 push	 eax
  006f7	e8 00 00 00 00	 call	 ?ScreenToClient@CWnd@@QBEXPAUtagRECT@@@Z ; CWnd::ScreenToClient
  006fc	8b 45 ec	 mov	 eax, DWORD PTR _rect$[ebp]
  006ff	8d 8f c8 29 00
	00		 lea	 ecx, DWORD PTR [edi+10696]
  00705	6a 01		 push	 1
  00707	6a 00		 push	 0
  00709	6a 00		 push	 0
  0070b	6a 00		 push	 0
  0070d	05 e6 00 00 00	 add	 eax, 230		; 000000e6H
  00712	50		 push	 eax
  00713	ff 35 00 00 00
	00		 push	 DWORD PTR __imp_?wndTop@CWnd@@2V1@B
  00719	e8 00 00 00 00	 call	 ?SetWindowPos@CWnd@@QAEHPBV1@HHHHI@Z ; CWnd::SetWindowPos
; File C:\Program Files (x86)\Microsoft Visual Studio\2019\Community\VC\Tools\MSVC\14.29.30133\atlmfc\include\afxwin2.inl

; 114  : 	{ ASSERT(::IsWindow(m_hWnd)); ::InvalidateRect(m_hWnd, NULL, bErase); }

  0071e	6a 01		 push	 1
  00720	6a 00		 push	 0
  00722	ff b7 e8 29 00
	00		 push	 DWORD PTR [edi+10728]
  00728	ff d3		 call	 ebx

; 84   : 	{ ASSERT(::IsWindow(m_hWnd)); ::GetWindowRect(m_hWnd, lpRect); }

  0072a	8d 45 ec	 lea	 eax, DWORD PTR _rect$[ebp]
  0072d	50		 push	 eax
  0072e	ff b7 e8 0d 00
	00		 push	 DWORD PTR [edi+3560]
  00734	ff d6		 call	 esi
; File D:\git\src\IBK\IBK_DRFN\ProjSrc\SrcDrfn\Chart\MULTICHART\ExtInputBarDlg.cpp

; 1578 : 		SHIFTCONTROL(m_chkUpdateIndex,nShiftExt23,rect);

  00736	8d 45 ec	 lea	 eax, DWORD PTR _rect$[ebp]
  00739	8b cf		 mov	 ecx, edi
  0073b	50		 push	 eax
  0073c	e8 00 00 00 00	 call	 ?ScreenToClient@CWnd@@QBEXPAUtagRECT@@@Z ; CWnd::ScreenToClient
  00741	8b 45 ec	 mov	 eax, DWORD PTR _rect$[ebp]
  00744	8d 8f c8 0d 00
	00		 lea	 ecx, DWORD PTR [edi+3528]
  0074a	6a 01		 push	 1
  0074c	6a 00		 push	 0
  0074e	6a 00		 push	 0
  00750	6a 00		 push	 0
  00752	05 e6 00 00 00	 add	 eax, 230		; 000000e6H
  00757	50		 push	 eax
  00758	ff 35 00 00 00
	00		 push	 DWORD PTR __imp_?wndTop@CWnd@@2V1@B
  0075e	e8 00 00 00 00	 call	 ?SetWindowPos@CWnd@@QAEHPBV1@HHHHI@Z ; CWnd::SetWindowPos
; File C:\Program Files (x86)\Microsoft Visual Studio\2019\Community\VC\Tools\MSVC\14.29.30133\atlmfc\include\afxwin2.inl

; 114  : 	{ ASSERT(::IsWindow(m_hWnd)); ::InvalidateRect(m_hWnd, NULL, bErase); }

  00763	6a 01		 push	 1
  00765	6a 00		 push	 0
  00767	ff b7 e8 0d 00
	00		 push	 DWORD PTR [edi+3560]
  0076d	ff d3		 call	 ebx

; 84   : 	{ ASSERT(::IsWindow(m_hWnd)); ::GetWindowRect(m_hWnd, lpRect); }

  0076f	8d 45 ec	 lea	 eax, DWORD PTR _rect$[ebp]
  00772	50		 push	 eax
  00773	ff b7 a8 21 00
	00		 push	 DWORD PTR [edi+8616]
  00779	ff d6		 call	 esi
; File D:\git\src\IBK\IBK_DRFN\ProjSrc\SrcDrfn\Chart\MULTICHART\ExtInputBarDlg.cpp

; 1583 : 		SHIFTCONTROL(m_chkShowScale,nShiftExt23,rect);

  0077b	8d 45 ec	 lea	 eax, DWORD PTR _rect$[ebp]
  0077e	8b cf		 mov	 ecx, edi
  00780	50		 push	 eax
  00781	e8 00 00 00 00	 call	 ?ScreenToClient@CWnd@@QBEXPAUtagRECT@@@Z ; CWnd::ScreenToClient
  00786	8b 45 ec	 mov	 eax, DWORD PTR _rect$[ebp]
  00789	8d 8f 88 21 00
	00		 lea	 ecx, DWORD PTR [edi+8584]
  0078f	6a 01		 push	 1
  00791	6a 00		 push	 0
  00793	6a 00		 push	 0
  00795	6a 00		 push	 0
  00797	05 e6 00 00 00	 add	 eax, 230		; 000000e6H
  0079c	50		 push	 eax
  0079d	ff 35 00 00 00
	00		 push	 DWORD PTR __imp_?wndTop@CWnd@@2V1@B
  007a3	e8 00 00 00 00	 call	 ?SetWindowPos@CWnd@@QAEHPBV1@HHHHI@Z ; CWnd::SetWindowPos
; File C:\Program Files (x86)\Microsoft Visual Studio\2019\Community\VC\Tools\MSVC\14.29.30133\atlmfc\include\afxwin2.inl

; 114  : 	{ ASSERT(::IsWindow(m_hWnd)); ::InvalidateRect(m_hWnd, NULL, bErase); }

  007a8	6a 01		 push	 1
  007aa	6a 00		 push	 0
  007ac	ff b7 a8 21 00
	00		 push	 DWORD PTR [edi+8616]
  007b2	ff d3		 call	 ebx

; 84   : 	{ ASSERT(::IsWindow(m_hWnd)); ::GetWindowRect(m_hWnd, lpRect); }

  007b4	8d 45 ec	 lea	 eax, DWORD PTR _rect$[ebp]
  007b7	50		 push	 eax
  007b8	ff b7 c8 1a 00
	00		 push	 DWORD PTR [edi+6856]
  007be	ff d6		 call	 esi
; File D:\git\src\IBK\IBK_DRFN\ProjSrc\SrcDrfn\Chart\MULTICHART\ExtInputBarDlg.cpp

; 1584 : 		SHIFTCONTROL(m_btAnalysisPattern,nShiftExt23,rect);

  007c0	8d 45 ec	 lea	 eax, DWORD PTR _rect$[ebp]
  007c3	8b cf		 mov	 ecx, edi
  007c5	50		 push	 eax
  007c6	e8 00 00 00 00	 call	 ?ScreenToClient@CWnd@@QBEXPAUtagRECT@@@Z ; CWnd::ScreenToClient
  007cb	8b 45 ec	 mov	 eax, DWORD PTR _rect$[ebp]
  007ce	8d 8f a8 1a 00
	00		 lea	 ecx, DWORD PTR [edi+6824]
  007d4	6a 01		 push	 1
  007d6	6a 00		 push	 0
  007d8	6a 00		 push	 0
  007da	6a 00		 push	 0
  007dc	05 e6 00 00 00	 add	 eax, 230		; 000000e6H
  007e1	50		 push	 eax
  007e2	ff 35 00 00 00
	00		 push	 DWORD PTR __imp_?wndTop@CWnd@@2V1@B
  007e8	e8 00 00 00 00	 call	 ?SetWindowPos@CWnd@@QAEHPBV1@HHHHI@Z ; CWnd::SetWindowPos
; File C:\Program Files (x86)\Microsoft Visual Studio\2019\Community\VC\Tools\MSVC\14.29.30133\atlmfc\include\afxwin2.inl

; 114  : 	{ ASSERT(::IsWindow(m_hWnd)); ::InvalidateRect(m_hWnd, NULL, bErase); }

  007ed	6a 01		 push	 1
  007ef	6a 00		 push	 0
  007f1	ff b7 c8 1a 00
	00		 push	 DWORD PTR [edi+6856]
  007f7	ff d3		 call	 ebx

; 84   : 	{ ASSERT(::IsWindow(m_hWnd)); ::GetWindowRect(m_hWnd, lpRect); }

  007f9	8d 45 ec	 lea	 eax, DWORD PTR _rect$[ebp]
  007fc	50		 push	 eax
  007fd	ff b7 68 19 00
	00		 push	 DWORD PTR [edi+6504]
  00803	ff d6		 call	 esi
; File D:\git\src\IBK\IBK_DRFN\ProjSrc\SrcDrfn\Chart\MULTICHART\ExtInputBarDlg.cpp

; 1585 : 		SHIFTCONTROL(m_btChartGuideLine,nShiftExt23,rect);

  00805	8d 45 ec	 lea	 eax, DWORD PTR _rect$[ebp]
  00808	8b cf		 mov	 ecx, edi
  0080a	50		 push	 eax
  0080b	e8 00 00 00 00	 call	 ?ScreenToClient@CWnd@@QBEXPAUtagRECT@@@Z ; CWnd::ScreenToClient
  00810	8b 45 ec	 mov	 eax, DWORD PTR _rect$[ebp]
  00813	8d 8f 48 19 00
	00		 lea	 ecx, DWORD PTR [edi+6472]
  00819	6a 01		 push	 1
  0081b	6a 00		 push	 0
  0081d	6a 00		 push	 0
  0081f	6a 00		 push	 0
  00821	05 e6 00 00 00	 add	 eax, 230		; 000000e6H
  00826	50		 push	 eax
  00827	ff 35 00 00 00
	00		 push	 DWORD PTR __imp_?wndTop@CWnd@@2V1@B
  0082d	e8 00 00 00 00	 call	 ?SetWindowPos@CWnd@@QAEHPBV1@HHHHI@Z ; CWnd::SetWindowPos
; File C:\Program Files (x86)\Microsoft Visual Studio\2019\Community\VC\Tools\MSVC\14.29.30133\atlmfc\include\afxwin2.inl

; 114  : 	{ ASSERT(::IsWindow(m_hWnd)); ::InvalidateRect(m_hWnd, NULL, bErase); }

  00832	6a 01		 push	 1
  00834	6a 00		 push	 0
  00836	ff b7 68 19 00
	00		 push	 DWORD PTR [edi+6504]
  0083c	ff d3		 call	 ebx

; 84   : 	{ ASSERT(::IsWindow(m_hWnd)); ::GetWindowRect(m_hWnd, lpRect); }

  0083e	8d 45 ec	 lea	 eax, DWORD PTR _rect$[ebp]
  00841	50		 push	 eax
  00842	ff b7 08 18 00
	00		 push	 DWORD PTR [edi+6152]
  00848	ff d6		 call	 esi
; File D:\git\src\IBK\IBK_DRFN\ProjSrc\SrcDrfn\Chart\MULTICHART\ExtInputBarDlg.cpp

; 1586 : 		SHIFTCONTROL(m_btHist,nShiftExt23,rect);

  0084a	8d 45 ec	 lea	 eax, DWORD PTR _rect$[ebp]
  0084d	8b cf		 mov	 ecx, edi
  0084f	50		 push	 eax
  00850	e8 00 00 00 00	 call	 ?ScreenToClient@CWnd@@QBEXPAUtagRECT@@@Z ; CWnd::ScreenToClient
  00855	8b 45 ec	 mov	 eax, DWORD PTR _rect$[ebp]
  00858	8d 8f e8 17 00
	00		 lea	 ecx, DWORD PTR [edi+6120]
  0085e	6a 01		 push	 1
  00860	6a 00		 push	 0
  00862	6a 00		 push	 0
  00864	6a 00		 push	 0
  00866	05 e6 00 00 00	 add	 eax, 230		; 000000e6H
  0086b	50		 push	 eax
  0086c	ff 35 00 00 00
	00		 push	 DWORD PTR __imp_?wndTop@CWnd@@2V1@B
  00872	e8 00 00 00 00	 call	 ?SetWindowPos@CWnd@@QAEHPBV1@HHHHI@Z ; CWnd::SetWindowPos
; File C:\Program Files (x86)\Microsoft Visual Studio\2019\Community\VC\Tools\MSVC\14.29.30133\atlmfc\include\afxwin2.inl

; 114  : 	{ ASSERT(::IsWindow(m_hWnd)); ::InvalidateRect(m_hWnd, NULL, bErase); }

  00877	6a 01		 push	 1
  00879	6a 00		 push	 0
  0087b	ff b7 08 18 00
	00		 push	 DWORD PTR [edi+6152]
  00881	ff d3		 call	 ebx

; 84   : 	{ ASSERT(::IsWindow(m_hWnd)); ::GetWindowRect(m_hWnd, lpRect); }

  00883	8d 45 ec	 lea	 eax, DWORD PTR _rect$[ebp]
  00886	50		 push	 eax
  00887	ff b7 a8 16 00
	00		 push	 DWORD PTR [edi+5800]
  0088d	ff d6		 call	 esi
; File D:\git\src\IBK\IBK_DRFN\ProjSrc\SrcDrfn\Chart\MULTICHART\ExtInputBarDlg.cpp

; 1587 : 		SHIFTCONTROL(m_btST,nShiftExt23,rect);

  0088f	8d 45 ec	 lea	 eax, DWORD PTR _rect$[ebp]
  00892	8b cf		 mov	 ecx, edi
  00894	50		 push	 eax
  00895	e8 00 00 00 00	 call	 ?ScreenToClient@CWnd@@QBEXPAUtagRECT@@@Z ; CWnd::ScreenToClient
  0089a	8b 45 ec	 mov	 eax, DWORD PTR _rect$[ebp]
  0089d	05 e6 00 00 00	 add	 eax, 230		; 000000e6H

; 1588 : 
; 1589 : 	}

  008a2	e9 58 03 00 00	 jmp	 $LN186@SetExt
$LN4@SetExt:

; 1590 : 	else if(nAct==3)

  008a7	83 f8 03	 cmp	 eax, 3
  008aa	0f 85 0d 02 00
	00		 jne	 $LN6@SetExt
; File C:\Program Files (x86)\Microsoft Visual Studio\2019\Community\VC\Tools\MSVC\14.29.30133\atlmfc\include\afxwin2.inl

; 84   : 	{ ASSERT(::IsWindow(m_hWnd)); ::GetWindowRect(m_hWnd, lpRect); }

  008b0	8b 35 00 00 00
	00		 mov	 esi, DWORD PTR __imp__GetWindowRect@8
  008b6	8d 45 ec	 lea	 eax, DWORD PTR _rect$[ebp]
  008b9	50		 push	 eax
  008ba	ff b7 68 24 00
	00		 push	 DWORD PTR [edi+9320]
  008c0	ff d6		 call	 esi
; File D:\git\src\IBK\IBK_DRFN\ProjSrc\SrcDrfn\Chart\MULTICHART\ExtInputBarDlg.cpp

; 1598 : 		SHIFTCONTROL(m_chkJongmokLink,nShiftExt34,rect);

  008c2	8d 45 ec	 lea	 eax, DWORD PTR _rect$[ebp]
  008c5	8b cf		 mov	 ecx, edi
  008c7	50		 push	 eax
  008c8	e8 00 00 00 00	 call	 ?ScreenToClient@CWnd@@QBEXPAUtagRECT@@@Z ; CWnd::ScreenToClient
  008cd	8b 45 ec	 mov	 eax, DWORD PTR _rect$[ebp]
  008d0	8d 8f 48 24 00
	00		 lea	 ecx, DWORD PTR [edi+9288]
  008d6	6a 01		 push	 1
  008d8	6a 00		 push	 0
  008da	6a 00		 push	 0
  008dc	6a 00		 push	 0
  008de	05 d0 00 00 00	 add	 eax, 208		; 000000d0H
  008e3	50		 push	 eax
  008e4	ff 35 00 00 00
	00		 push	 DWORD PTR __imp_?wndTop@CWnd@@2V1@B
  008ea	e8 00 00 00 00	 call	 ?SetWindowPos@CWnd@@QAEHPBV1@HHHHI@Z ; CWnd::SetWindowPos
; File C:\Program Files (x86)\Microsoft Visual Studio\2019\Community\VC\Tools\MSVC\14.29.30133\atlmfc\include\afxwin2.inl

; 114  : 	{ ASSERT(::IsWindow(m_hWnd)); ::InvalidateRect(m_hWnd, NULL, bErase); }

  008ef	6a 01		 push	 1
  008f1	6a 00		 push	 0
  008f3	ff b7 68 24 00
	00		 push	 DWORD PTR [edi+9320]
  008f9	ff d3		 call	 ebx

; 84   : 	{ ASSERT(::IsWindow(m_hWnd)); ::GetWindowRect(m_hWnd, lpRect); }

  008fb	8d 45 ec	 lea	 eax, DWORD PTR _rect$[ebp]
  008fe	50		 push	 eax
  008ff	ff b7 e8 29 00
	00		 push	 DWORD PTR [edi+10728]
  00905	ff d6		 call	 esi
; File D:\git\src\IBK\IBK_DRFN\ProjSrc\SrcDrfn\Chart\MULTICHART\ExtInputBarDlg.cpp

; 1599 : 		SHIFTCONTROL(m_chkTypeLink,nShiftExt34,rect);

  00907	8d 45 ec	 lea	 eax, DWORD PTR _rect$[ebp]
  0090a	8b cf		 mov	 ecx, edi
  0090c	50		 push	 eax
  0090d	e8 00 00 00 00	 call	 ?ScreenToClient@CWnd@@QBEXPAUtagRECT@@@Z ; CWnd::ScreenToClient
  00912	8b 45 ec	 mov	 eax, DWORD PTR _rect$[ebp]
  00915	8d 8f c8 29 00
	00		 lea	 ecx, DWORD PTR [edi+10696]
  0091b	6a 01		 push	 1
  0091d	6a 00		 push	 0
  0091f	6a 00		 push	 0
  00921	6a 00		 push	 0
  00923	05 d0 00 00 00	 add	 eax, 208		; 000000d0H
  00928	50		 push	 eax
  00929	ff 35 00 00 00
	00		 push	 DWORD PTR __imp_?wndTop@CWnd@@2V1@B
  0092f	e8 00 00 00 00	 call	 ?SetWindowPos@CWnd@@QAEHPBV1@HHHHI@Z ; CWnd::SetWindowPos
; File C:\Program Files (x86)\Microsoft Visual Studio\2019\Community\VC\Tools\MSVC\14.29.30133\atlmfc\include\afxwin2.inl

; 114  : 	{ ASSERT(::IsWindow(m_hWnd)); ::InvalidateRect(m_hWnd, NULL, bErase); }

  00934	6a 01		 push	 1
  00936	6a 00		 push	 0
  00938	ff b7 e8 29 00
	00		 push	 DWORD PTR [edi+10728]
  0093e	ff d3		 call	 ebx

; 84   : 	{ ASSERT(::IsWindow(m_hWnd)); ::GetWindowRect(m_hWnd, lpRect); }

  00940	8d 45 ec	 lea	 eax, DWORD PTR _rect$[ebp]
  00943	50		 push	 eax
  00944	ff b7 e8 0d 00
	00		 push	 DWORD PTR [edi+3560]
  0094a	ff d6		 call	 esi
; File D:\git\src\IBK\IBK_DRFN\ProjSrc\SrcDrfn\Chart\MULTICHART\ExtInputBarDlg.cpp

; 1600 : 		SHIFTCONTROL(m_chkUpdateIndex,nShiftExt34,rect);

  0094c	8d 45 ec	 lea	 eax, DWORD PTR _rect$[ebp]
  0094f	8b cf		 mov	 ecx, edi
  00951	50		 push	 eax
  00952	e8 00 00 00 00	 call	 ?ScreenToClient@CWnd@@QBEXPAUtagRECT@@@Z ; CWnd::ScreenToClient
  00957	8b 45 ec	 mov	 eax, DWORD PTR _rect$[ebp]
  0095a	8d 8f c8 0d 00
	00		 lea	 ecx, DWORD PTR [edi+3528]
  00960	6a 01		 push	 1
  00962	6a 00		 push	 0
  00964	6a 00		 push	 0
  00966	6a 00		 push	 0
  00968	05 d0 00 00 00	 add	 eax, 208		; 000000d0H
  0096d	50		 push	 eax
  0096e	ff 35 00 00 00
	00		 push	 DWORD PTR __imp_?wndTop@CWnd@@2V1@B
  00974	e8 00 00 00 00	 call	 ?SetWindowPos@CWnd@@QAEHPBV1@HHHHI@Z ; CWnd::SetWindowPos
; File C:\Program Files (x86)\Microsoft Visual Studio\2019\Community\VC\Tools\MSVC\14.29.30133\atlmfc\include\afxwin2.inl

; 114  : 	{ ASSERT(::IsWindow(m_hWnd)); ::InvalidateRect(m_hWnd, NULL, bErase); }

  00979	6a 01		 push	 1
  0097b	6a 00		 push	 0
  0097d	ff b7 e8 0d 00
	00		 push	 DWORD PTR [edi+3560]
  00983	ff d3		 call	 ebx

; 84   : 	{ ASSERT(::IsWindow(m_hWnd)); ::GetWindowRect(m_hWnd, lpRect); }

  00985	8d 45 ec	 lea	 eax, DWORD PTR _rect$[ebp]
  00988	50		 push	 eax
  00989	ff b7 a8 21 00
	00		 push	 DWORD PTR [edi+8616]
  0098f	ff d6		 call	 esi
; File D:\git\src\IBK\IBK_DRFN\ProjSrc\SrcDrfn\Chart\MULTICHART\ExtInputBarDlg.cpp

; 1604 : 		SHIFTCONTROL(m_chkShowScale,nShiftExt34,rect);

  00991	8d 45 ec	 lea	 eax, DWORD PTR _rect$[ebp]
  00994	8b cf		 mov	 ecx, edi
  00996	50		 push	 eax
  00997	e8 00 00 00 00	 call	 ?ScreenToClient@CWnd@@QBEXPAUtagRECT@@@Z ; CWnd::ScreenToClient
  0099c	8b 45 ec	 mov	 eax, DWORD PTR _rect$[ebp]
  0099f	6a 01		 push	 1
  009a1	6a 00		 push	 0
  009a3	6a 00		 push	 0
  009a5	6a 00		 push	 0
  009a7	05 d0 00 00 00	 add	 eax, 208		; 000000d0H
  009ac	50		 push	 eax
  009ad	ff 35 00 00 00
	00		 push	 DWORD PTR __imp_?wndTop@CWnd@@2V1@B
  009b3	8d 8f 88 21 00
	00		 lea	 ecx, DWORD PTR [edi+8584]
  009b9	e8 00 00 00 00	 call	 ?SetWindowPos@CWnd@@QAEHPBV1@HHHHI@Z ; CWnd::SetWindowPos
; File C:\Program Files (x86)\Microsoft Visual Studio\2019\Community\VC\Tools\MSVC\14.29.30133\atlmfc\include\afxwin2.inl

; 114  : 	{ ASSERT(::IsWindow(m_hWnd)); ::InvalidateRect(m_hWnd, NULL, bErase); }

  009be	6a 01		 push	 1
  009c0	6a 00		 push	 0
  009c2	ff b7 a8 21 00
	00		 push	 DWORD PTR [edi+8616]
  009c8	ff d3		 call	 ebx

; 84   : 	{ ASSERT(::IsWindow(m_hWnd)); ::GetWindowRect(m_hWnd, lpRect); }

  009ca	8d 45 ec	 lea	 eax, DWORD PTR _rect$[ebp]
  009cd	50		 push	 eax
  009ce	ff b7 c8 1a 00
	00		 push	 DWORD PTR [edi+6856]
  009d4	ff d6		 call	 esi
; File D:\git\src\IBK\IBK_DRFN\ProjSrc\SrcDrfn\Chart\MULTICHART\ExtInputBarDlg.cpp

; 1605 : 		SHIFTCONTROL(m_btAnalysisPattern,nShiftExt34,rect);

  009d6	8d 45 ec	 lea	 eax, DWORD PTR _rect$[ebp]
  009d9	8b cf		 mov	 ecx, edi
  009db	50		 push	 eax
  009dc	e8 00 00 00 00	 call	 ?ScreenToClient@CWnd@@QBEXPAUtagRECT@@@Z ; CWnd::ScreenToClient
  009e1	8b 45 ec	 mov	 eax, DWORD PTR _rect$[ebp]
  009e4	8d 8f a8 1a 00
	00		 lea	 ecx, DWORD PTR [edi+6824]
  009ea	6a 01		 push	 1
  009ec	6a 00		 push	 0
  009ee	6a 00		 push	 0
  009f0	6a 00		 push	 0
  009f2	05 d0 00 00 00	 add	 eax, 208		; 000000d0H
  009f7	50		 push	 eax
  009f8	ff 35 00 00 00
	00		 push	 DWORD PTR __imp_?wndTop@CWnd@@2V1@B
  009fe	e8 00 00 00 00	 call	 ?SetWindowPos@CWnd@@QAEHPBV1@HHHHI@Z ; CWnd::SetWindowPos
; File C:\Program Files (x86)\Microsoft Visual Studio\2019\Community\VC\Tools\MSVC\14.29.30133\atlmfc\include\afxwin2.inl

; 114  : 	{ ASSERT(::IsWindow(m_hWnd)); ::InvalidateRect(m_hWnd, NULL, bErase); }

  00a03	6a 01		 push	 1
  00a05	6a 00		 push	 0
  00a07	ff b7 c8 1a 00
	00		 push	 DWORD PTR [edi+6856]
  00a0d	ff d3		 call	 ebx

; 84   : 	{ ASSERT(::IsWindow(m_hWnd)); ::GetWindowRect(m_hWnd, lpRect); }

  00a0f	8d 45 ec	 lea	 eax, DWORD PTR _rect$[ebp]
  00a12	50		 push	 eax
  00a13	ff b7 68 19 00
	00		 push	 DWORD PTR [edi+6504]
  00a19	ff d6		 call	 esi
; File D:\git\src\IBK\IBK_DRFN\ProjSrc\SrcDrfn\Chart\MULTICHART\ExtInputBarDlg.cpp

; 1606 : 		SHIFTCONTROL(m_btChartGuideLine,nShiftExt34,rect);

  00a1b	8d 45 ec	 lea	 eax, DWORD PTR _rect$[ebp]
  00a1e	8b cf		 mov	 ecx, edi
  00a20	50		 push	 eax
  00a21	e8 00 00 00 00	 call	 ?ScreenToClient@CWnd@@QBEXPAUtagRECT@@@Z ; CWnd::ScreenToClient
  00a26	8b 45 ec	 mov	 eax, DWORD PTR _rect$[ebp]
  00a29	8d 8f 48 19 00
	00		 lea	 ecx, DWORD PTR [edi+6472]
  00a2f	6a 01		 push	 1
  00a31	6a 00		 push	 0
  00a33	6a 00		 push	 0
  00a35	6a 00		 push	 0
  00a37	05 d0 00 00 00	 add	 eax, 208		; 000000d0H
  00a3c	50		 push	 eax
  00a3d	ff 35 00 00 00
	00		 push	 DWORD PTR __imp_?wndTop@CWnd@@2V1@B
  00a43	e8 00 00 00 00	 call	 ?SetWindowPos@CWnd@@QAEHPBV1@HHHHI@Z ; CWnd::SetWindowPos
; File C:\Program Files (x86)\Microsoft Visual Studio\2019\Community\VC\Tools\MSVC\14.29.30133\atlmfc\include\afxwin2.inl

; 114  : 	{ ASSERT(::IsWindow(m_hWnd)); ::InvalidateRect(m_hWnd, NULL, bErase); }

  00a48	6a 01		 push	 1
  00a4a	6a 00		 push	 0
  00a4c	ff b7 68 19 00
	00		 push	 DWORD PTR [edi+6504]
  00a52	ff d3		 call	 ebx

; 84   : 	{ ASSERT(::IsWindow(m_hWnd)); ::GetWindowRect(m_hWnd, lpRect); }

  00a54	8d 45 ec	 lea	 eax, DWORD PTR _rect$[ebp]
  00a57	50		 push	 eax
  00a58	ff b7 08 18 00
	00		 push	 DWORD PTR [edi+6152]
  00a5e	ff d6		 call	 esi
; File D:\git\src\IBK\IBK_DRFN\ProjSrc\SrcDrfn\Chart\MULTICHART\ExtInputBarDlg.cpp

; 1607 : 		SHIFTCONTROL(m_btHist,nShiftExt34,rect);

  00a60	8d 45 ec	 lea	 eax, DWORD PTR _rect$[ebp]
  00a63	8b cf		 mov	 ecx, edi
  00a65	50		 push	 eax
  00a66	e8 00 00 00 00	 call	 ?ScreenToClient@CWnd@@QBEXPAUtagRECT@@@Z ; CWnd::ScreenToClient
  00a6b	8b 45 ec	 mov	 eax, DWORD PTR _rect$[ebp]
  00a6e	8d 8f e8 17 00
	00		 lea	 ecx, DWORD PTR [edi+6120]
  00a74	6a 01		 push	 1
  00a76	6a 00		 push	 0
  00a78	6a 00		 push	 0
  00a7a	6a 00		 push	 0
  00a7c	05 d0 00 00 00	 add	 eax, 208		; 000000d0H
  00a81	50		 push	 eax
  00a82	ff 35 00 00 00
	00		 push	 DWORD PTR __imp_?wndTop@CWnd@@2V1@B
  00a88	e8 00 00 00 00	 call	 ?SetWindowPos@CWnd@@QAEHPBV1@HHHHI@Z ; CWnd::SetWindowPos
; File C:\Program Files (x86)\Microsoft Visual Studio\2019\Community\VC\Tools\MSVC\14.29.30133\atlmfc\include\afxwin2.inl

; 114  : 	{ ASSERT(::IsWindow(m_hWnd)); ::InvalidateRect(m_hWnd, NULL, bErase); }

  00a8d	6a 01		 push	 1
  00a8f	6a 00		 push	 0
  00a91	ff b7 08 18 00
	00		 push	 DWORD PTR [edi+6152]
  00a97	ff d3		 call	 ebx

; 84   : 	{ ASSERT(::IsWindow(m_hWnd)); ::GetWindowRect(m_hWnd, lpRect); }

  00a99	8d 45 ec	 lea	 eax, DWORD PTR _rect$[ebp]
  00a9c	50		 push	 eax
  00a9d	ff b7 a8 16 00
	00		 push	 DWORD PTR [edi+5800]
  00aa3	ff d6		 call	 esi
; File D:\git\src\IBK\IBK_DRFN\ProjSrc\SrcDrfn\Chart\MULTICHART\ExtInputBarDlg.cpp

; 1608 : 		SHIFTCONTROL(m_btST,nShiftExt34,rect);

  00aa5	8d 45 ec	 lea	 eax, DWORD PTR _rect$[ebp]
  00aa8	8b cf		 mov	 ecx, edi
  00aaa	50		 push	 eax
  00aab	e8 00 00 00 00	 call	 ?ScreenToClient@CWnd@@QBEXPAUtagRECT@@@Z ; CWnd::ScreenToClient
  00ab0	8b 45 ec	 mov	 eax, DWORD PTR _rect$[ebp]
  00ab3	05 d0 00 00 00	 add	 eax, 208		; 000000d0H

; 1609 : 	}

  00ab8	e9 42 01 00 00	 jmp	 $LN186@SetExt
$LN6@SetExt:

; 1610 : 	else if(nAct==4)

  00abd	83 f8 04	 cmp	 eax, 4
  00ac0	0f 85 5f 01 00
	00		 jne	 $LN8@SetExt
; File C:\Program Files (x86)\Microsoft Visual Studio\2019\Community\VC\Tools\MSVC\14.29.30133\atlmfc\include\afxwin2.inl

; 84   : 	{ ASSERT(::IsWindow(m_hWnd)); ::GetWindowRect(m_hWnd, lpRect); }

  00ac6	8b 35 00 00 00
	00		 mov	 esi, DWORD PTR __imp__GetWindowRect@8
  00acc	8d 45 ec	 lea	 eax, DWORD PTR _rect$[ebp]
  00acf	50		 push	 eax
  00ad0	ff b7 a8 21 00
	00		 push	 DWORD PTR [edi+8616]
  00ad6	ff d6		 call	 esi
; File D:\git\src\IBK\IBK_DRFN\ProjSrc\SrcDrfn\Chart\MULTICHART\ExtInputBarDlg.cpp

; 1619 : 		SHIFTCONTROL(m_chkShowScale,nShiftExt45,rect);

  00ad8	8d 45 ec	 lea	 eax, DWORD PTR _rect$[ebp]
  00adb	8b cf		 mov	 ecx, edi
  00add	50		 push	 eax
  00ade	e8 00 00 00 00	 call	 ?ScreenToClient@CWnd@@QBEXPAUtagRECT@@@Z ; CWnd::ScreenToClient
  00ae3	8b 45 ec	 mov	 eax, DWORD PTR _rect$[ebp]
  00ae6	8d 8f 88 21 00
	00		 lea	 ecx, DWORD PTR [edi+8584]
  00aec	6a 01		 push	 1
  00aee	6a 00		 push	 0
  00af0	6a 00		 push	 0
  00af2	6a 00		 push	 0
  00af4	05 8c 00 00 00	 add	 eax, 140		; 0000008cH
  00af9	50		 push	 eax
  00afa	ff 35 00 00 00
	00		 push	 DWORD PTR __imp_?wndTop@CWnd@@2V1@B
  00b00	e8 00 00 00 00	 call	 ?SetWindowPos@CWnd@@QAEHPBV1@HHHHI@Z ; CWnd::SetWindowPos
; File C:\Program Files (x86)\Microsoft Visual Studio\2019\Community\VC\Tools\MSVC\14.29.30133\atlmfc\include\afxwin2.inl

; 114  : 	{ ASSERT(::IsWindow(m_hWnd)); ::InvalidateRect(m_hWnd, NULL, bErase); }

  00b05	6a 01		 push	 1
  00b07	6a 00		 push	 0
  00b09	ff b7 a8 21 00
	00		 push	 DWORD PTR [edi+8616]
  00b0f	ff d3		 call	 ebx

; 84   : 	{ ASSERT(::IsWindow(m_hWnd)); ::GetWindowRect(m_hWnd, lpRect); }

  00b11	8d 45 ec	 lea	 eax, DWORD PTR _rect$[ebp]
  00b14	50		 push	 eax
  00b15	ff b7 c8 1a 00
	00		 push	 DWORD PTR [edi+6856]
  00b1b	ff d6		 call	 esi
; File D:\git\src\IBK\IBK_DRFN\ProjSrc\SrcDrfn\Chart\MULTICHART\ExtInputBarDlg.cpp

; 1620 : 		SHIFTCONTROL(m_btAnalysisPattern,nShiftExt45,rect);

  00b1d	8d 45 ec	 lea	 eax, DWORD PTR _rect$[ebp]
  00b20	8b cf		 mov	 ecx, edi
  00b22	50		 push	 eax
  00b23	e8 00 00 00 00	 call	 ?ScreenToClient@CWnd@@QBEXPAUtagRECT@@@Z ; CWnd::ScreenToClient
  00b28	8b 45 ec	 mov	 eax, DWORD PTR _rect$[ebp]
  00b2b	8d 8f a8 1a 00
	00		 lea	 ecx, DWORD PTR [edi+6824]
  00b31	6a 01		 push	 1
  00b33	6a 00		 push	 0
  00b35	6a 00		 push	 0
  00b37	6a 00		 push	 0
  00b39	05 8c 00 00 00	 add	 eax, 140		; 0000008cH
  00b3e	50		 push	 eax
  00b3f	ff 35 00 00 00
	00		 push	 DWORD PTR __imp_?wndTop@CWnd@@2V1@B
  00b45	e8 00 00 00 00	 call	 ?SetWindowPos@CWnd@@QAEHPBV1@HHHHI@Z ; CWnd::SetWindowPos
; File C:\Program Files (x86)\Microsoft Visual Studio\2019\Community\VC\Tools\MSVC\14.29.30133\atlmfc\include\afxwin2.inl

; 114  : 	{ ASSERT(::IsWindow(m_hWnd)); ::InvalidateRect(m_hWnd, NULL, bErase); }

  00b4a	6a 01		 push	 1
  00b4c	6a 00		 push	 0
  00b4e	ff b7 c8 1a 00
	00		 push	 DWORD PTR [edi+6856]
  00b54	ff d3		 call	 ebx

; 84   : 	{ ASSERT(::IsWindow(m_hWnd)); ::GetWindowRect(m_hWnd, lpRect); }

  00b56	8d 45 ec	 lea	 eax, DWORD PTR _rect$[ebp]
  00b59	50		 push	 eax
  00b5a	ff b7 68 19 00
	00		 push	 DWORD PTR [edi+6504]
  00b60	ff d6		 call	 esi
; File D:\git\src\IBK\IBK_DRFN\ProjSrc\SrcDrfn\Chart\MULTICHART\ExtInputBarDlg.cpp

; 1621 : 		SHIFTCONTROL(m_btChartGuideLine,nShiftExt45,rect);

  00b62	8d 45 ec	 lea	 eax, DWORD PTR _rect$[ebp]
  00b65	8b cf		 mov	 ecx, edi
  00b67	50		 push	 eax
  00b68	e8 00 00 00 00	 call	 ?ScreenToClient@CWnd@@QBEXPAUtagRECT@@@Z ; CWnd::ScreenToClient
  00b6d	8b 45 ec	 mov	 eax, DWORD PTR _rect$[ebp]
  00b70	8d 8f 48 19 00
	00		 lea	 ecx, DWORD PTR [edi+6472]
  00b76	6a 01		 push	 1
  00b78	6a 00		 push	 0
  00b7a	6a 00		 push	 0
  00b7c	6a 00		 push	 0
  00b7e	05 8c 00 00 00	 add	 eax, 140		; 0000008cH
  00b83	50		 push	 eax
  00b84	ff 35 00 00 00
	00		 push	 DWORD PTR __imp_?wndTop@CWnd@@2V1@B
  00b8a	e8 00 00 00 00	 call	 ?SetWindowPos@CWnd@@QAEHPBV1@HHHHI@Z ; CWnd::SetWindowPos
; File C:\Program Files (x86)\Microsoft Visual Studio\2019\Community\VC\Tools\MSVC\14.29.30133\atlmfc\include\afxwin2.inl

; 114  : 	{ ASSERT(::IsWindow(m_hWnd)); ::InvalidateRect(m_hWnd, NULL, bErase); }

  00b8f	6a 01		 push	 1
  00b91	6a 00		 push	 0
  00b93	ff b7 68 19 00
	00		 push	 DWORD PTR [edi+6504]
  00b99	ff d3		 call	 ebx

; 84   : 	{ ASSERT(::IsWindow(m_hWnd)); ::GetWindowRect(m_hWnd, lpRect); }

  00b9b	8d 45 ec	 lea	 eax, DWORD PTR _rect$[ebp]
  00b9e	50		 push	 eax
  00b9f	ff b7 08 18 00
	00		 push	 DWORD PTR [edi+6152]
  00ba5	ff d6		 call	 esi
; File D:\git\src\IBK\IBK_DRFN\ProjSrc\SrcDrfn\Chart\MULTICHART\ExtInputBarDlg.cpp

; 1622 : 		SHIFTCONTROL(m_btHist,nShiftExt45,rect);

  00ba7	8d 45 ec	 lea	 eax, DWORD PTR _rect$[ebp]
  00baa	8b cf		 mov	 ecx, edi
  00bac	50		 push	 eax
  00bad	e8 00 00 00 00	 call	 ?ScreenToClient@CWnd@@QBEXPAUtagRECT@@@Z ; CWnd::ScreenToClient
  00bb2	8b 45 ec	 mov	 eax, DWORD PTR _rect$[ebp]
  00bb5	6a 01		 push	 1
  00bb7	6a 00		 push	 0
  00bb9	6a 00		 push	 0
  00bbb	6a 00		 push	 0
  00bbd	05 8c 00 00 00	 add	 eax, 140		; 0000008cH
  00bc2	50		 push	 eax
  00bc3	ff 35 00 00 00
	00		 push	 DWORD PTR __imp_?wndTop@CWnd@@2V1@B
  00bc9	8d 8f e8 17 00
	00		 lea	 ecx, DWORD PTR [edi+6120]
  00bcf	e8 00 00 00 00	 call	 ?SetWindowPos@CWnd@@QAEHPBV1@HHHHI@Z ; CWnd::SetWindowPos
; File C:\Program Files (x86)\Microsoft Visual Studio\2019\Community\VC\Tools\MSVC\14.29.30133\atlmfc\include\afxwin2.inl

; 114  : 	{ ASSERT(::IsWindow(m_hWnd)); ::InvalidateRect(m_hWnd, NULL, bErase); }

  00bd4	6a 01		 push	 1
  00bd6	6a 00		 push	 0
  00bd8	ff b7 08 18 00
	00		 push	 DWORD PTR [edi+6152]
  00bde	ff d3		 call	 ebx

; 84   : 	{ ASSERT(::IsWindow(m_hWnd)); ::GetWindowRect(m_hWnd, lpRect); }

  00be0	8d 45 ec	 lea	 eax, DWORD PTR _rect$[ebp]
  00be3	50		 push	 eax
  00be4	ff b7 a8 16 00
	00		 push	 DWORD PTR [edi+5800]
  00bea	ff d6		 call	 esi
; File D:\git\src\IBK\IBK_DRFN\ProjSrc\SrcDrfn\Chart\MULTICHART\ExtInputBarDlg.cpp

; 1623 : 		SHIFTCONTROL(m_btST,nShiftExt45,rect);

  00bec	8d 45 ec	 lea	 eax, DWORD PTR _rect$[ebp]
  00bef	8b cf		 mov	 ecx, edi
  00bf1	50		 push	 eax
  00bf2	e8 00 00 00 00	 call	 ?ScreenToClient@CWnd@@QBEXPAUtagRECT@@@Z ; CWnd::ScreenToClient
  00bf7	8b 45 ec	 mov	 eax, DWORD PTR _rect$[ebp]
  00bfa	05 8c 00 00 00	 add	 eax, 140		; 0000008cH
$LN186@SetExt:
; File C:\Program Files (x86)\Microsoft Visual Studio\2019\Community\VC\Tools\MSVC\14.29.30133\atlmfc\include\afxwin2.inl

; 114  : 	{ ASSERT(::IsWindow(m_hWnd)); ::InvalidateRect(m_hWnd, NULL, bErase); }

  00bff	6a 01		 push	 1
  00c01	6a 00		 push	 0
  00c03	6a 00		 push	 0
  00c05	6a 00		 push	 0
  00c07	50		 push	 eax
  00c08	ff 35 00 00 00
	00		 push	 DWORD PTR __imp_?wndTop@CWnd@@2V1@B
  00c0e	8d 8f 88 16 00
	00		 lea	 ecx, DWORD PTR [edi+5768]
  00c14	e8 00 00 00 00	 call	 ?SetWindowPos@CWnd@@QAEHPBV1@HHHHI@Z ; CWnd::SetWindowPos
  00c19	6a 01		 push	 1
  00c1b	6a 00		 push	 0
  00c1d	ff b7 a8 16 00
	00		 push	 DWORD PTR [edi+5800]
  00c23	ff d3		 call	 ebx
$LN8@SetExt:
  00c25	6a 01		 push	 1
  00c27	6a 00		 push	 0
  00c29	ff 77 20	 push	 DWORD PTR [edi+32]
  00c2c	ff d3		 call	 ebx
; File D:\git\src\IBK\IBK_DRFN\ProjSrc\SrcDrfn\Chart\MULTICHART\ExtInputBarDlg.cpp

; 1627 : 	EnableWindow();

  00c2e	6a 01		 push	 1
  00c30	8b cf		 mov	 ecx, edi
  00c32	e8 00 00 00 00	 call	 ?EnableWindow@CWnd@@QAEHH@Z ; CWnd::EnableWindow

; 1628 : }

  00c37	8b 4d fc	 mov	 ecx, DWORD PTR __$ArrayPad$[ebp]
  00c3a	5f		 pop	 edi
  00c3b	5e		 pop	 esi
  00c3c	33 cd		 xor	 ecx, ebp
  00c3e	5b		 pop	 ebx
  00c3f	e8 00 00 00 00	 call	 @__security_check_cookie@4
  00c44	8b e5		 mov	 esp, ebp
  00c46	5d		 pop	 ebp
  00c47	c2 04 00	 ret	 4
?SetExt@CExtInputBarDlg@@AAEXH@Z ENDP			; CExtInputBarDlg::SetExt
_TEXT	ENDS
; Function compile flags: /Ogtp
; File D:\git\src\IBK\IBK_DRFN\ProjSrc\SrcDrfn\Chart\MULTICHART\ExtInputBarDlg.cpp
; File C:\Program Files (x86)\Microsoft Visual Studio\2019\Community\VC\Tools\MSVC\14.29.30133\atlmfc\include\afxtempl.h
; File D:\git\src\IBK\IBK_DRFN\ProjSrc\SrcDrfn\Chart\MULTICHART\ExtInputBarDlg.cpp
; File C:\Program Files (x86)\Microsoft Visual Studio\2019\Community\VC\Tools\MSVC\14.29.30133\atlmfc\include\afxtempl.h
; File C:\Program Files (x86)\Microsoft Visual Studio\2019\Community\VC\Tools\MSVC\14.29.30133\atlmfc\include\afxwin2.inl
; File D:\git\src\IBK\IBK_DRFN\ProjSrc\SrcDrfn\Chart\MULTICHART\ExtInputBarDlg.cpp
; File C:\Program Files (x86)\Microsoft Visual Studio\2019\Community\VC\Tools\MSVC\14.29.30133\atlmfc\include\afxwin2.inl
; File D:\git\src\IBK\IBK_DRFN\ProjSrc\SrcDrfn\Chart\MULTICHART\ExtInputBarDlg.cpp
; File C:\Program Files (x86)\Microsoft Visual Studio\2019\Community\VC\Tools\MSVC\14.29.30133\atlmfc\include\afxwin2.inl
; File D:\git\src\IBK\IBK_DRFN\ProjSrc\SrcDrfn\Chart\MULTICHART\ExtInputBarDlg.cpp
; File C:\Program Files (x86)\Microsoft Visual Studio\2019\Community\VC\Tools\MSVC\14.29.30133\atlmfc\include\afxwin2.inl
; File D:\git\src\IBK\IBK_DRFN\ProjSrc\SrcDrfn\Chart\MULTICHART\ExtInputBarDlg.cpp
;	COMDAT ?ActionPopupMenuItem@CExtInputBarDlg@@QAEXI@Z
_TEXT	SEGMENT
_nHashBucket$2 = -24					; size = 4
_nHashValue$3 = -20					; size = 4
_strIndicatorName$ = -16				; size = 4
__$EHRec$ = -12						; size = 12
_nMenuID$ = 8						; size = 4
?ActionPopupMenuItem@CExtInputBarDlg@@QAEXI@Z PROC	; CExtInputBarDlg::ActionPopupMenuItem, COMDAT
; _this$ = ecx

; 3451 : {

  00000	55		 push	 ebp
  00001	8b ec		 mov	 ebp, esp
  00003	6a ff		 push	 -1
  00005	68 00 00 00 00	 push	 __ehhandler$?ActionPopupMenuItem@CExtInputBarDlg@@QAEXI@Z
  0000a	64 a1 00 00 00
	00		 mov	 eax, DWORD PTR fs:0
  00010	50		 push	 eax
  00011	83 ec 0c	 sub	 esp, 12			; 0000000cH
  00014	53		 push	 ebx
  00015	56		 push	 esi
  00016	57		 push	 edi
  00017	a1 00 00 00 00	 mov	 eax, DWORD PTR ___security_cookie
  0001c	33 c5		 xor	 eax, ebp
  0001e	50		 push	 eax
  0001f	8d 45 f4	 lea	 eax, DWORD PTR __$EHRec$[ebp]
  00022	64 a3 00 00 00
	00		 mov	 DWORD PTR fs:0, eax
  00028	8b f1		 mov	 esi, ecx

; 3452 : 	if(m_pMenuChild)

  0002a	8b 8e 2c 33 00
	00		 mov	 ecx, DWORD PTR [esi+13100]
  00030	85 c9		 test	 ecx, ecx
  00032	74 20		 je	 SHORT $LN2@ActionPopu

; 3453 : 	{
; 3454 : 		m_pMenuChild->DestroyMenu();

  00034	e8 00 00 00 00	 call	 ?DestroyMenu@CMenu@@QAEHXZ ; CMenu::DestroyMenu

; 3455 : 		delete m_pMenuChild;

  00039	8b 8e 2c 33 00
	00		 mov	 ecx, DWORD PTR [esi+13100]
  0003f	85 c9		 test	 ecx, ecx
  00041	74 07		 je	 SHORT $LN10@ActionPopu
  00043	8b 01		 mov	 eax, DWORD PTR [ecx]
  00045	6a 01		 push	 1
  00047	ff 50 04	 call	 DWORD PTR [eax+4]
$LN10@ActionPopu:

; 3456 : 		m_pMenuChild = NULL;

  0004a	c7 86 2c 33 00
	00 00 00 00 00	 mov	 DWORD PTR [esi+13100], 0
$LN2@ActionPopu:

; 3459 : 	CString strIndicatorName;

  00054	8d 4d f0	 lea	 ecx, DWORD PTR _strIndicatorName$[ebp]
  00057	ff 15 00 00 00
	00		 call	 DWORD PTR __imp_??0?$CStringT@DV?$StrTraitMFC_DLL@DV?$ChTraitsCRT@D@ATL@@@@@ATL@@QAE@XZ
; File C:\Program Files (x86)\Microsoft Visual Studio\2019\Community\VC\Tools\MSVC\14.29.30133\atlmfc\include\afxtempl.h

; 1555 : 	CAssoc* pAssoc = GetAssocAt(key, nHashBucket, nHashValue);

  0005d	8b 7d 08	 mov	 edi, DWORD PTR _nMenuID$[ebp]
  00060	8d 45 ec	 lea	 eax, DWORD PTR _nHashValue$3[ebp]
  00063	50		 push	 eax
  00064	8d 45 e8	 lea	 eax, DWORD PTR _nHashBucket$2[ebp]
; File D:\git\src\IBK\IBK_DRFN\ProjSrc\SrcDrfn\Chart\MULTICHART\ExtInputBarDlg.cpp

; 3459 : 	CString strIndicatorName;

  00067	c7 45 fc 00 00
	00 00		 mov	 DWORD PTR __$EHRec$[ebp+8], 0
; File C:\Program Files (x86)\Microsoft Visual Studio\2019\Community\VC\Tools\MSVC\14.29.30133\atlmfc\include\afxtempl.h

; 1555 : 	CAssoc* pAssoc = GetAssocAt(key, nHashBucket, nHashValue);

  0006e	50		 push	 eax
  0006f	57		 push	 edi
  00070	8d 8e 30 33 00
	00		 lea	 ecx, DWORD PTR [esi+13104]
  00076	e8 00 00 00 00	 call	 ?GetAssocAt@?$CMap@IIV?$CStringT@DV?$StrTraitMFC_DLL@DV?$ChTraitsCRT@D@ATL@@@@@ATL@@PBD@@IBEPAVCAssoc@1@IAAI0@Z ; CMap<unsigned int,unsigned int,ATL::CStringT<char,StrTraitMFC_DLL<char,ATL::ChTraitsCRT<char> > >,char const *>::GetAssocAt

; 1556 : 	if (pAssoc == NULL)

  0007b	85 c0		 test	 eax, eax
  0007d	74 22		 je	 SHORT $LN3@ActionPopu

; 1557 : 		return FALSE;  // not in map
; 1558 : 
; 1559 : 	rValue = pAssoc->value;

  0007f	83 c0 04	 add	 eax, 4
  00082	8d 4d f0	 lea	 ecx, DWORD PTR _strIndicatorName$[ebp]
  00085	50		 push	 eax
  00086	ff 15 00 00 00
	00		 call	 DWORD PTR __imp_??4?$CStringT@DV?$StrTraitMFC_DLL@DV?$ChTraitsCRT@D@ATL@@@@@ATL@@QAEAAV01@ABV01@@Z
; File C:\Program Files (x86)\Microsoft Visual Studio\2019\Community\VC\Tools\MSVC\14.29.30133\atlmfc\include\afxwin2.inl

; 32   : 	{ ASSERT(::IsWindow(m_hWnd)); return ::SendMessage(m_hWnd, message, wParam, lParam); }

  0008c	8b 86 00 33 00
	00		 mov	 eax, DWORD PTR [esi+13056]
  00092	6a 00		 push	 0
  00094	ff 75 f0	 push	 DWORD PTR _strIndicatorName$[ebp]
  00097	68 11 04 00 00	 push	 1041			; 00000411H
  0009c	ff 70 20	 push	 DWORD PTR [eax+32]
; File D:\git\src\IBK\IBK_DRFN\ProjSrc\SrcDrfn\Chart\MULTICHART\ExtInputBarDlg.cpp

; 3463 : 	}

  0009f	eb 51		 jmp	 SHORT $LN29@ActionPopu
$LN3@ActionPopu:

; 3464 : 	else if(m_pChartMng->GetSafeHwnd())

  000a1	8b 8e 00 33 00
	00		 mov	 ecx, DWORD PTR [esi+13056]
; File C:\Program Files (x86)\Microsoft Visual Studio\2019\Community\VC\Tools\MSVC\14.29.30133\atlmfc\include\afxwin2.inl

; 25   : 	{ return this == NULL ? NULL : m_hWnd; }

  000a7	85 c9		 test	 ecx, ecx
  000a9	74 4d		 je	 SHORT $LN8@ActionPopu
; File D:\git\src\IBK\IBK_DRFN\ProjSrc\SrcDrfn\Chart\MULTICHART\ExtInputBarDlg.cpp

; 3464 : 	else if(m_pChartMng->GetSafeHwnd())

  000ab	83 79 20 00	 cmp	 DWORD PTR [ecx+32], 0
  000af	74 47		 je	 SHORT $LN8@ActionPopu

; 3465 : 	{
; 3466 : 		if(m_nSaveJipyoOneFile == nMenuID)

  000b1	39 be 4c 33 00
	00		 cmp	 DWORD PTR [esi+13132], edi
  000b7	75 15		 jne	 SHORT $LN6@ActionPopu

; 3468 :  			m_bChkSaveJipyoOneFile = !m_bChkSaveJipyoOneFile;

  000b9	33 c0		 xor	 eax, eax
  000bb	39 86 20 33 00
	00		 cmp	 DWORD PTR [esi+13088], eax
; File C:\Program Files (x86)\Microsoft Visual Studio\2019\Community\VC\Tools\MSVC\14.29.30133\atlmfc\include\afxwin2.inl

; 32   : 	{ ASSERT(::IsWindow(m_hWnd)); return ::SendMessage(m_hWnd, message, wParam, lParam); }

  000c1	6a 00		 push	 0
; File D:\git\src\IBK\IBK_DRFN\ProjSrc\SrcDrfn\Chart\MULTICHART\ExtInputBarDlg.cpp

; 3468 :  			m_bChkSaveJipyoOneFile = !m_bChkSaveJipyoOneFile;

  000c3	0f 94 c0	 sete	 al
  000c6	89 86 20 33 00
	00		 mov	 DWORD PTR [esi+13088], eax

; 3469 : 			m_pChartMng->SendMessage(UMSG_SAVEJIPYOONEFILE,m_bChkSaveJipyoOneFile);
; 3470 : 		}

  000cc	eb 1b		 jmp	 SHORT $LN30@ActionPopu
$LN6@ActionPopu:

; 3471 : 		else if(m_nSaveAnalTool == nMenuID)

  000ce	39 be 50 33 00
	00		 cmp	 DWORD PTR [esi+13136], edi
  000d4	75 22		 jne	 SHORT $LN8@ActionPopu

; 3473 :  			m_bChkSaveAnalTool = !m_bChkSaveAnalTool;

  000d6	33 c0		 xor	 eax, eax
  000d8	39 86 14 33 00
	00		 cmp	 DWORD PTR [esi+13076], eax
; File C:\Program Files (x86)\Microsoft Visual Studio\2019\Community\VC\Tools\MSVC\14.29.30133\atlmfc\include\afxwin2.inl

; 32   : 	{ ASSERT(::IsWindow(m_hWnd)); return ::SendMessage(m_hWnd, message, wParam, lParam); }

  000de	6a 64		 push	 100			; 00000064H
; File D:\git\src\IBK\IBK_DRFN\ProjSrc\SrcDrfn\Chart\MULTICHART\ExtInputBarDlg.cpp

; 3473 :  			m_bChkSaveAnalTool = !m_bChkSaveAnalTool;

  000e0	0f 94 c0	 sete	 al
  000e3	89 86 14 33 00
	00		 mov	 DWORD PTR [esi+13076], eax
$LN30@ActionPopu:

; 3474 : 			m_pChartMng->SendMessage(UMSG_SAVEJIPYOONEFILE,m_bChkSaveAnalTool, 100);
; 3475 :  		}
; 3476 : 	}
; 3477 : 
; 3478 : 	m_mapIndcatorAll.RemoveAll();

  000e9	50		 push	 eax
  000ea	68 ca 04 00 00	 push	 1226			; 000004caH
  000ef	ff 71 20	 push	 DWORD PTR [ecx+32]
$LN29@ActionPopu:
  000f2	ff 15 00 00 00
	00		 call	 DWORD PTR __imp__SendMessageA@16
$LN8@ActionPopu:
  000f8	8d 8e 30 33 00
	00		 lea	 ecx, DWORD PTR [esi+13104]
  000fe	e8 00 00 00 00	 call	 ?RemoveAll@?$CMap@IIV?$CStringT@DV?$StrTraitMFC_DLL@DV?$ChTraitsCRT@D@ATL@@@@@ATL@@PBD@@QAEXXZ ; CMap<unsigned int,unsigned int,ATL::CStringT<char,StrTraitMFC_DLL<char,ATL::ChTraitsCRT<char> > >,char const *>::RemoveAll

; 3479 : }

  00103	8d 4d f0	 lea	 ecx, DWORD PTR _strIndicatorName$[ebp]
  00106	ff 15 00 00 00
	00		 call	 DWORD PTR __imp_??1?$CStringT@DV?$StrTraitMFC_DLL@DV?$ChTraitsCRT@D@ATL@@@@@ATL@@QAE@XZ
  0010c	8b 4d f4	 mov	 ecx, DWORD PTR __$EHRec$[ebp]
  0010f	64 89 0d 00 00
	00 00		 mov	 DWORD PTR fs:0, ecx
  00116	59		 pop	 ecx
  00117	5f		 pop	 edi
  00118	5e		 pop	 esi
  00119	5b		 pop	 ebx
  0011a	8b e5		 mov	 esp, ebp
  0011c	5d		 pop	 ebp
  0011d	c2 04 00	 ret	 4
_TEXT	ENDS
;	COMDAT text$x
text$x	SEGMENT
__unwindfunclet$?ActionPopupMenuItem@CExtInputBarDlg@@QAEXI@Z$0:
  00000	8d 4d f0	 lea	 ecx, DWORD PTR _strIndicatorName$[ebp]
  00003	ff 25 00 00 00
	00		 jmp	 DWORD PTR __imp_??1?$CStringT@DV?$StrTraitMFC_DLL@DV?$ChTraitsCRT@D@ATL@@@@@ATL@@QAE@XZ
  00009	cc		 int	 3
  0000a	cc		 int	 3
  0000b	cc		 int	 3
  0000c	cc		 int	 3
  0000d	cc		 int	 3
__ehhandler$?ActionPopupMenuItem@CExtInputBarDlg@@QAEXI@Z:
  0000e	90		 npad	 1
  0000f	90		 npad	 1
  00010	8b 54 24 08	 mov	 edx, DWORD PTR [esp+8]
  00014	8d 42 0c	 lea	 eax, DWORD PTR [edx+12]
  00017	8b 4a e4	 mov	 ecx, DWORD PTR [edx-28]
  0001a	33 c8		 xor	 ecx, eax
  0001c	e8 00 00 00 00	 call	 @__security_check_cookie@4
  00021	b8 00 00 00 00	 mov	 eax, OFFSET __ehfuncinfo$?ActionPopupMenuItem@CExtInputBarDlg@@QAEXI@Z
  00026	e9 00 00 00 00	 jmp	 ___CxxFrameHandler3
text$x	ENDS
?ActionPopupMenuItem@CExtInputBarDlg@@QAEXI@Z ENDP	; CExtInputBarDlg::ActionPopupMenuItem
; Function compile flags: /Ogtp
; File D:\git\src\IBK\IBK_DRFN\ProjSrc\SrcDrfn\Chart\MULTICHART\ExtInputBarDlg.cpp
; File C:\Program Files (x86)\Microsoft Visual Studio\2019\Community\VC\Tools\MSVC\14.29.30133\atlmfc\include\afxwin1.inl
; File D:\git\src\IBK\IBK_DRFN\ProjSrc\SrcDrfn\Chart\MULTICHART\ExtInputBarDlg.cpp
; File C:\Program Files (x86)\Microsoft Visual Studio\2019\Community\VC\Tools\MSVC\14.29.30133\atlmfc\include\afxwin1.inl
; File D:\git\src\IBK\IBK_DRFN\ProjSrc\SrcDrfn\Chart\MULTICHART\ExtInputBarDlg.cpp
; File C:\Program Files (x86)\Microsoft Visual Studio\2019\Community\VC\Tools\MSVC\14.29.30133\atlmfc\include\afxwin1.inl
; File D:\git\src\IBK\IBK_DRFN\ProjSrc\SrcDrfn\Chart\MULTICHART\ExtInputBarDlg.cpp
; File C:\Program Files (x86)\Microsoft Visual Studio\2019\Community\VC\Tools\MSVC\14.29.30133\atlmfc\include\afxwin1.inl
; File C:\Program Files (x86)\Microsoft Visual Studio\2019\Community\VC\Tools\MSVC\14.29.30133\atlmfc\include\afx.inl
; File D:\git\src\IBK\IBK_DRFN\ProjSrc\SrcDrfn\Chart\MULTICHART\ExtInputBarDlg.cpp
; File C:\Program Files (x86)\Microsoft Visual Studio\2019\Community\VC\Tools\MSVC\14.29.30133\atlmfc\include\afxwin1.inl
; File D:\git\src\IBK\IBK_DRFN\ProjSrc\SrcDrfn\Chart\MULTICHART\ExtInputBarDlg.cpp
; File C:\Program Files (x86)\Microsoft Visual Studio\2019\Community\VC\Tools\MSVC\14.29.30133\atlmfc\include\afxwin1.inl
; File D:\git\src\IBK\IBK_DRFN\ProjSrc\SrcDrfn\Chart\MULTICHART\ExtInputBarDlg.cpp
; File C:\Program Files (x86)\Microsoft Visual Studio\2019\Community\VC\Tools\MSVC\14.29.30133\atlmfc\include\afxwin1.inl
; File C:\Program Files (x86)\Microsoft Visual Studio\2019\Community\VC\Tools\MSVC\14.29.30133\atlmfc\include\afxwin2.inl
; File D:\git\src\IBK\IBK_DRFN\ProjSrc\SrcDrfn\Chart\MULTICHART\ExtInputBarDlg.cpp
; File C:\Program Files (x86)\Microsoft Visual Studio\2019\Community\VC\Tools\MSVC\14.29.30133\atlmfc\include\afxtempl.h
; File D:\git\src\IBK\IBK_DRFN\ProjSrc\SrcDrfn\Chart\MULTICHART\ExtInputBarDlg.cpp
; File C:\Program Files (x86)\Microsoft Visual Studio\2019\Community\VC\Tools\MSVC\14.29.30133\atlmfc\include\afxtempl.h
; File D:\git\src\IBK\IBK_DRFN\ProjSrc\SrcDrfn\Chart\MULTICHART\ExtInputBarDlg.cpp
; File C:\Program Files (x86)\Microsoft Visual Studio\2019\Community\VC\Tools\MSVC\14.29.30133\atlmfc\include\afxwin2.inl
; File D:\git\src\IBK\IBK_DRFN\ProjSrc\SrcDrfn\Chart\MULTICHART\ExtInputBarDlg.cpp
; File C:\Program Files (x86)\Microsoft Visual Studio\2019\Community\VC\Tools\MSVC\14.29.30133\atlmfc\include\afxwin2.inl
; File D:\git\src\IBK\IBK_DRFN\ProjSrc\SrcDrfn\Chart\MULTICHART\ExtInputBarDlg.cpp
; File C:\Program Files (x86)\Microsoft Visual Studio\2019\Community\VC\Tools\MSVC\14.29.30133\atlmfc\include\afxwin2.inl
; File D:\git\src\IBK\IBK_DRFN\ProjSrc\SrcDrfn\Chart\MULTICHART\ExtInputBarDlg.cpp
; File C:\Program Files (x86)\Microsoft Visual Studio\2019\Community\VC\Tools\MSVC\14.29.30133\atlmfc\include\afxtempl.h
; File D:\git\src\IBK\IBK_DRFN\ProjSrc\SrcDrfn\Chart\MULTICHART\ExtInputBarDlg.cpp
; File C:\Program Files (x86)\Microsoft Visual Studio\2019\Community\VC\Tools\MSVC\14.29.30133\atlmfc\include\afxtempl.h
; File D:\git\src\IBK\IBK_DRFN\ProjSrc\SrcDrfn\Chart\MULTICHART\ExtInputBarDlg.cpp
; File C:\Program Files (x86)\Microsoft Visual Studio\2019\Community\VC\Tools\MSVC\14.29.30133\atlmfc\include\afxtempl.h
; File C:\Program Files (x86)\Microsoft Visual Studio\2019\Community\VC\Tools\MSVC\14.29.30133\atlmfc\include\afxwin1.inl
; File D:\git\src\IBK\IBK_DRFN\ProjSrc\SrcDrfn\Chart\MULTICHART\ExtInputBarDlg.cpp
; File C:\Program Files (x86)\Microsoft Visual Studio\2019\Community\VC\Tools\MSVC\14.29.30133\atlmfc\include\afxwin1.inl
; File D:\git\src\IBK\IBK_DRFN\ProjSrc\SrcDrfn\Chart\MULTICHART\ExtInputBarDlg.cpp
; File C:\Program Files (x86)\Microsoft Visual Studio\2019\Community\VC\Tools\MSVC\14.29.30133\atlmfc\include\afxwin1.inl
; File D:\git\src\IBK\IBK_DRFN\ProjSrc\SrcDrfn\Chart\MULTICHART\ExtInputBarDlg.cpp
; File C:\Program Files (x86)\Microsoft Visual Studio\2019\Community\VC\Tools\MSVC\14.29.30133\atlmfc\include\afxwin1.inl
; File D:\git\src\IBK\IBK_DRFN\ProjSrc\SrcDrfn\Chart\MULTICHART\ExtInputBarDlg.cpp
; File C:\Program Files (x86)\Microsoft Visual Studio\2019\Community\VC\Tools\MSVC\14.29.30133\atlmfc\include\afxwin1.inl
; File D:\git\src\IBK\IBK_DRFN\ProjSrc\SrcDrfn\Chart\MULTICHART\ExtInputBarDlg.cpp
; File C:\Program Files (x86)\Microsoft Visual Studio\2019\Community\VC\Tools\MSVC\14.29.30133\atlmfc\include\afxwin1.inl
; File D:\git\src\IBK\IBK_DRFN\ProjSrc\SrcDrfn\Chart\MULTICHART\ExtInputBarDlg.cpp
; File C:\Program Files (x86)\Microsoft Visual Studio\2019\Community\VC\Tools\MSVC\14.29.30133\atlmfc\include\afxtempl.h
; File D:\git\src\IBK\IBK_DRFN\ProjSrc\SrcDrfn\Chart\MULTICHART\ExtInputBarDlg.cpp
;	COMDAT ?AddPopupMenuItem@CExtInputBarDlg@@QAEXPAVCMenu@@PAVCPoint@@@Z
_TEXT	SEGMENT
_wSizeItem$1$ = -324					; size = 4
_nHashBucket$1 = -320					; size = 4
_nHashValue$2 = -316					; size = 4
tv750 = -312						; size = 4
_wIndexItem$1$ = -308					; size = 4
_pFavoriteMng$1$ = -304					; size = 4
_pPopupMeun$GSCopy$1$ = -300				; size = 4
_this$GSCopy$1$ = -296					; size = 4
_bExistance$ = -292					; size = 4
$T3 = -292						; size = 4
_nPlatformMenuID$1$ = -288				; size = 4
__stFvrData$ = -284					; size = 280
__$ArrayPad$ = -4					; size = 4
_pPopupMeun$ = 8					; size = 4
_ptPoint$ = 12						; size = 4
?AddPopupMenuItem@CExtInputBarDlg@@QAEXPAVCMenu@@PAVCPoint@@@Z PROC ; CExtInputBarDlg::AddPopupMenuItem, COMDAT
; _this$ = ecx

; 3365 : {

  00000	55		 push	 ebp
  00001	8b ec		 mov	 ebp, esp
  00003	81 ec 44 01 00
	00		 sub	 esp, 324		; 00000144H
  00009	a1 00 00 00 00	 mov	 eax, DWORD PTR ___security_cookie
  0000e	33 c5		 xor	 eax, ebp
  00010	89 45 fc	 mov	 DWORD PTR __$ArrayPad$[ebp], eax
  00013	53		 push	 ebx
  00014	56		 push	 esi
  00015	8b f1		 mov	 esi, ecx
  00017	57		 push	 edi
  00018	8b 7d 08	 mov	 edi, DWORD PTR _pPopupMeun$[ebp]
  0001b	89 b5 d8 fe ff
	ff		 mov	 DWORD PTR _this$GSCopy$1$[ebp], esi

; 3366 : 	if(m_pMenuChild)

  00021	8b 8e 2c 33 00
	00		 mov	 ecx, DWORD PTR [esi+13100]
  00027	89 bd d4 fe ff
	ff		 mov	 DWORD PTR _pPopupMeun$GSCopy$1$[ebp], edi
  0002d	85 c9		 test	 ecx, ecx
  0002f	74 20		 je	 SHORT $LN5@AddPopupMe

; 3367 : 	{
; 3368 : 		m_pMenuChild->DestroyMenu();

  00031	e8 00 00 00 00	 call	 ?DestroyMenu@CMenu@@QAEHXZ ; CMenu::DestroyMenu

; 3369 : 		delete m_pMenuChild;

  00036	8b 8e 2c 33 00
	00		 mov	 ecx, DWORD PTR [esi+13100]
  0003c	85 c9		 test	 ecx, ecx
  0003e	74 07		 je	 SHORT $LN14@AddPopupMe
  00040	8b 01		 mov	 eax, DWORD PTR [ecx]
  00042	6a 01		 push	 1
  00044	ff 50 04	 call	 DWORD PTR [eax+4]
$LN14@AddPopupMe:

; 3370 : 		m_pMenuChild = NULL;

  00047	c7 86 2c 33 00
	00 00 00 00 00	 mov	 DWORD PTR [esi+13100], 0
$LN5@AddPopupMe:

; 3371 : 	}
; 3372 : 
; 3373 : 	m_mapIndcatorAll.RemoveAll();

  00051	8d 9e 30 33 00
	00		 lea	 ebx, DWORD PTR [esi+13104]
  00057	8b cb		 mov	 ecx, ebx
  00059	e8 00 00 00 00	 call	 ?RemoveAll@?$CMap@IIV?$CStringT@DV?$StrTraitMFC_DLL@DV?$ChTraitsCRT@D@ATL@@@@@ATL@@PBD@@QAEXXZ ; CMap<unsigned int,unsigned int,ATL::CStringT<char,StrTraitMFC_DLL<char,ATL::ChTraitsCRT<char> > >,char const *>::RemoveAll
; File C:\Program Files (x86)\Microsoft Visual Studio\2019\Community\VC\Tools\MSVC\14.29.30133\atlmfc\include\afxwin1.inl

; 937  : 	{ ASSERT(::IsMenu(m_hMenu)); return ::GetMenuItemCount(m_hMenu); }

  0005e	ff 77 04	 push	 DWORD PTR [edi+4]
  00061	ff 15 00 00 00
	00		 call	 DWORD PTR __imp__GetMenuItemCount@4
; File D:\git\src\IBK\IBK_DRFN\ProjSrc\SrcDrfn\Chart\MULTICHART\ExtInputBarDlg.cpp

; 3376 : 	UINT nPlatformMenuID = pPopupMeun->GetMenuItemID(nCount - 1) + 1;

  00067	48		 dec	 eax
; File C:\Program Files (x86)\Microsoft Visual Studio\2019\Community\VC\Tools\MSVC\14.29.30133\atlmfc\include\afxwin1.inl

; 939  : 	{ ASSERT(::IsMenu(m_hMenu)); return ::GetMenuItemID(m_hMenu, nPos); }

  00068	50		 push	 eax
  00069	ff 77 04	 push	 DWORD PTR [edi+4]
  0006c	ff 15 00 00 00
	00		 call	 DWORD PTR __imp__GetMenuItemID@8

; 924  : 	{ ASSERT(::IsMenu(m_hMenu)); return ::AppendMenu(m_hMenu, nFlags, nIDNewItem, lpszNewItem); }

  00072	68 00 00 00 00	 push	 OFFSET ??_C@_00CNPNBAHC@@
  00077	6a 00		 push	 0
  00079	68 00 08 00 00	 push	 2048			; 00000800H
; File D:\git\src\IBK\IBK_DRFN\ProjSrc\SrcDrfn\Chart\MULTICHART\ExtInputBarDlg.cpp

; 3376 : 	UINT nPlatformMenuID = pPopupMeun->GetMenuItemID(nCount - 1) + 1;

  0007e	8d 78 01	 lea	 edi, DWORD PTR [eax+1]
; File C:\Program Files (x86)\Microsoft Visual Studio\2019\Community\VC\Tools\MSVC\14.29.30133\atlmfc\include\afxwin1.inl

; 924  : 	{ ASSERT(::IsMenu(m_hMenu)); return ::AppendMenu(m_hMenu, nFlags, nIDNewItem, lpszNewItem); }

  00081	8b 85 d4 fe ff
	ff		 mov	 eax, DWORD PTR _pPopupMeun$GSCopy$1$[ebp]
; File D:\git\src\IBK\IBK_DRFN\ProjSrc\SrcDrfn\Chart\MULTICHART\ExtInputBarDlg.cpp

; 3376 : 	UINT nPlatformMenuID = pPopupMeun->GetMenuItemID(nCount - 1) + 1;

  00087	89 bd e0 fe ff
	ff		 mov	 DWORD PTR _nPlatformMenuID$1$[ebp], edi
; File C:\Program Files (x86)\Microsoft Visual Studio\2019\Community\VC\Tools\MSVC\14.29.30133\atlmfc\include\afxwin1.inl

; 924  : 	{ ASSERT(::IsMenu(m_hMenu)); return ::AppendMenu(m_hMenu, nFlags, nIDNewItem, lpszNewItem); }

  0008d	ff 70 04	 push	 DWORD PTR [eax+4]
  00090	ff 15 00 00 00
	00		 call	 DWORD PTR __imp__AppendMenuA@16
; File C:\Program Files (x86)\Microsoft Visual Studio\2019\Community\VC\Tools\MSVC\14.29.30133\atlmfc\include\afx.inl

; 116  : 	{ return ::operator new(nSize); }

  00096	6a 08		 push	 8
  00098	e8 00 00 00 00	 call	 ??2@YAPAXI@Z		; operator new
  0009d	83 c4 04	 add	 esp, 4
; File D:\git\src\IBK\IBK_DRFN\ProjSrc\SrcDrfn\Chart\MULTICHART\ExtInputBarDlg.cpp

; 3384 : 	m_pMenuChild = new CMenu;

  000a0	89 85 dc fe ff
	ff		 mov	 DWORD PTR $T3[ebp], eax
  000a6	85 c0		 test	 eax, eax
  000a8	74 0f		 je	 SHORT $LN16@AddPopupMe
; File C:\Program Files (x86)\Microsoft Visual Studio\2019\Community\VC\Tools\MSVC\14.29.30133\atlmfc\include\afxwin1.inl

; 903  : 	{ m_hMenu = NULL; }

  000aa	c7 00 00 00 00
	00		 mov	 DWORD PTR [eax], OFFSET ??_7CMenu@@6B@
  000b0	c7 40 04 00 00
	00 00		 mov	 DWORD PTR [eax+4], 0
; File D:\git\src\IBK\IBK_DRFN\ProjSrc\SrcDrfn\Chart\MULTICHART\ExtInputBarDlg.cpp

; 3384 : 	m_pMenuChild = new CMenu;

  000b7	eb 08		 jmp	 SHORT $LN17@AddPopupMe
$LN16@AddPopupMe:
  000b9	33 c0		 xor	 eax, eax
  000bb	89 85 dc fe ff
	ff		 mov	 DWORD PTR $T3[ebp], eax
$LN17@AddPopupMe:
  000c1	89 86 2c 33 00
	00		 mov	 DWORD PTR [esi+13100], eax
; File C:\Program Files (x86)\Microsoft Visual Studio\2019\Community\VC\Tools\MSVC\14.29.30133\atlmfc\include\afxwin1.inl

; 909  : 	{ return Attach(::CreatePopupMenu()); }

  000c7	ff 15 00 00 00
	00		 call	 DWORD PTR __imp__CreatePopupMenu@0
  000cd	8b 8d dc fe ff
	ff		 mov	 ecx, DWORD PTR $T3[ebp]
  000d3	50		 push	 eax
  000d4	e8 00 00 00 00	 call	 ?Attach@CMenu@@QAEHPAUHMENU__@@@Z ; CMenu::Attach
; File D:\git\src\IBK\IBK_DRFN\ProjSrc\SrcDrfn\Chart\MULTICHART\ExtInputBarDlg.cpp

; 3386 : 	pPopupMeun->AppendMenu(MF_POPUP,(UINT)m_pMenuChild->GetSafeHmenu(),szEtcMenuName[0]);

  000d9	8b 86 2c 33 00
	00		 mov	 eax, DWORD PTR [esi+13100]
; File C:\Program Files (x86)\Microsoft Visual Studio\2019\Community\VC\Tools\MSVC\14.29.30133\atlmfc\include\afxwin1.inl

; 919  : 		return this == NULL ? NULL : m_hMenu; }

  000df	85 c0		 test	 eax, eax
  000e1	74 03		 je	 SHORT $LN34@AddPopupMe
$LN33@AddPopupMe:
  000e3	8b 40 04	 mov	 eax, DWORD PTR [eax+4]
$LN34@AddPopupMe:

; 924  : 	{ ASSERT(::IsMenu(m_hMenu)); return ::AppendMenu(m_hMenu, nFlags, nIDNewItem, lpszNewItem); }

  000e6	68 00 00 00 00	 push	 OFFSET ??_C@_08LOPLALKM@?$LA?$PM?$LN?I?A?v?G?$KF@
  000eb	50		 push	 eax
  000ec	8b 85 d4 fe ff
	ff		 mov	 eax, DWORD PTR _pPopupMeun$GSCopy$1$[ebp]
  000f2	6a 10		 push	 16			; 00000010H
  000f4	ff 70 04	 push	 DWORD PTR [eax+4]
  000f7	ff 15 00 00 00
	00		 call	 DWORD PTR __imp__AppendMenuA@16
; File C:\Program Files (x86)\Microsoft Visual Studio\2019\Community\VC\Tools\MSVC\14.29.30133\atlmfc\include\afxwin2.inl

; 213  : 	{ ASSERT(::IsWindow(m_hWnd)); return CWnd::FromHandle(::GetParent(m_hWnd)); }

  000fd	ff 76 20	 push	 DWORD PTR [esi+32]
  00100	ff 15 00 00 00
	00		 call	 DWORD PTR __imp__GetParent@4
  00106	50		 push	 eax
  00107	e8 00 00 00 00	 call	 ?FromHandle@CWnd@@SGPAV1@PAUHWND__@@@Z ; CWnd::FromHandle
; File D:\git\src\IBK\IBK_DRFN\ProjSrc\SrcDrfn\Chart\MULTICHART\ExtInputBarDlg.cpp

; 3393 : 	pFavoriteMng = &((CStdDialog*)GetParent())->m_FavoriteMng;

  0010c	05 d4 07 00 00	 add	 eax, 2004		; 000007d4H
  00111	89 85 d0 fe ff
	ff		 mov	 DWORD PTR _pFavoriteMng$1$[ebp], eax

; 3394 : 
; 3395 : 	stFvrData _stFvrData;
; 3396 : 	BOOL	bCreateRoot = FALSE;
; 3397 : 	if(pFavoriteMng)

  00117	0f 84 2c 02 00
	00		 je	 $LN3@AddPopupMe

; 3398 : 	{
; 3399 : 		pFavoriteMng->LoadItemInfo("JipyoFile");

  0011d	68 00 00 00 00	 push	 OFFSET ??_C@_09IBPFDGDO@JipyoFile@
  00122	8b c8		 mov	 ecx, eax
  00124	e8 00 00 00 00	 call	 ?LoadItemInfo@CFavoriteThingsMng@@QAEHPBD@Z ; CFavoriteThingsMng::LoadItemInfo

; 3400 : 		int wSizeItem = pFavoriteMng->m_ArrayFvrItem.GetSize();

  00129	8b 95 d0 fe ff
	ff		 mov	 edx, DWORD PTR _pFavoriteMng$1$[ebp]

; 3401 : 		for(int wIndexItem=0;wIndexItem<wSizeItem;wIndexItem++)

  0012f	33 c0		 xor	 eax, eax
  00131	89 85 cc fe ff
	ff		 mov	 DWORD PTR _wIndexItem$1$[ebp], eax
  00137	8b 4a 20	 mov	 ecx, DWORD PTR [edx+32]
  0013a	89 8d bc fe ff
	ff		 mov	 DWORD PTR _wSizeItem$1$[ebp], ecx
  00140	85 c9		 test	 ecx, ecx
  00142	0f 8e 01 02 00
	00		 jle	 $LN3@AddPopupMe

; 3398 : 	{
; 3399 : 		pFavoriteMng->LoadItemInfo("JipyoFile");

  00148	33 c9		 xor	 ecx, ecx
  0014a	89 8d c8 fe ff
	ff		 mov	 DWORD PTR tv750[ebp], ecx
$LL4@AddPopupMe:
; File C:\Program Files (x86)\Microsoft Visual Studio\2019\Community\VC\Tools\MSVC\14.29.30133\atlmfc\include\afxtempl.h

; 288  : 	if(nIndex >= 0 && nIndex < m_nSize)

  00150	85 c9		 test	 ecx, ecx
  00152	0f 88 2d 02 00
	00		 js	 $LN40@AddPopupMe
  00158	3b 42 20	 cmp	 eax, DWORD PTR [edx+32]
  0015b	0f 8d 24 02 00
	00		 jge	 $LN40@AddPopupMe

; 289  : 		return m_pData[nIndex];

  00161	8b 72 1c	 mov	 esi, DWORD PTR [edx+28]
; File D:\git\src\IBK\IBK_DRFN\ProjSrc\SrcDrfn\Chart\MULTICHART\ExtInputBarDlg.cpp

; 3403 : 			_stFvrData = pFavoriteMng->m_ArrayFvrItem.GetAt(wIndexItem);

  00164	8d bd e4 fe ff
	ff		 lea	 edi, DWORD PTR __stFvrData$[ebp]
; File C:\Program Files (x86)\Microsoft Visual Studio\2019\Community\VC\Tools\MSVC\14.29.30133\atlmfc\include\afxtempl.h

; 289  : 		return m_pData[nIndex];

  0016a	03 f1		 add	 esi, ecx
; File D:\git\src\IBK\IBK_DRFN\ProjSrc\SrcDrfn\Chart\MULTICHART\ExtInputBarDlg.cpp

; 3403 : 			_stFvrData = pFavoriteMng->m_ArrayFvrItem.GetAt(wIndexItem);

  0016c	b9 46 00 00 00	 mov	 ecx, 70			; 00000046H
  00171	f3 a5		 rep movsd

; 3404 : 			if(_stFvrData.m_lTabNum==TABNO_ASSISTINDEX)

  00173	83 bd 24 ff ff
	ff 01		 cmp	 DWORD PTR __stFvrData$[ebp+64], 1
  0017a	0f 85 98 01 00
	00		 jne	 $LN98@AddPopupMe

; 3407 : 				if(m_pChartMng->GetSafeHwnd())

  00180	8b 85 d8 fe ff
	ff		 mov	 eax, DWORD PTR _this$GSCopy$1$[ebp]
  00186	8b 80 00 33 00
	00		 mov	 eax, DWORD PTR [eax+13056]
; File C:\Program Files (x86)\Microsoft Visual Studio\2019\Community\VC\Tools\MSVC\14.29.30133\atlmfc\include\afxwin2.inl

; 25   : 	{ return this == NULL ? NULL : m_hWnd; }

  0018c	85 c0		 test	 eax, eax
  0018e	74 24		 je	 SHORT $LN100@AddPopupMe
  00190	8b 40 20	 mov	 eax, DWORD PTR [eax+32]
; File D:\git\src\IBK\IBK_DRFN\ProjSrc\SrcDrfn\Chart\MULTICHART\ExtInputBarDlg.cpp

; 3407 : 				if(m_pChartMng->GetSafeHwnd())

  00193	85 c0		 test	 eax, eax
  00195	74 1d		 je	 SHORT $LN100@AddPopupMe
; File C:\Program Files (x86)\Microsoft Visual Studio\2019\Community\VC\Tools\MSVC\14.29.30133\atlmfc\include\afxwin2.inl

; 32   : 	{ ASSERT(::IsWindow(m_hWnd)); return ::SendMessage(m_hWnd, message, wParam, lParam); }

  00197	6a 00		 push	 0
  00199	8d 8d 3c ff ff
	ff		 lea	 ecx, DWORD PTR __stFvrData$[ebp+88]
  0019f	51		 push	 ecx
  001a0	68 10 04 00 00	 push	 1040			; 00000410H
  001a5	50		 push	 eax
  001a6	ff 15 00 00 00
	00		 call	 DWORD PTR __imp__SendMessageA@16
; File D:\git\src\IBK\IBK_DRFN\ProjSrc\SrcDrfn\Chart\MULTICHART\ExtInputBarDlg.cpp

; 3408 : 					bExistance = m_pChartMng->SendMessage(UMSG_HASGRAPH,(WPARAM)(LPCTSTR)_stFvrData.m_chData1);

  001ac	89 85 dc fe ff
	ff		 mov	 DWORD PTR _bExistance$[ebp], eax
; File C:\Program Files (x86)\Microsoft Visual Studio\2019\Community\VC\Tools\MSVC\14.29.30133\atlmfc\include\afxwin2.inl

; 25   : 	{ return this == NULL ? NULL : m_hWnd; }

  001b2	eb 06		 jmp	 SHORT $LN8@AddPopupMe
$LN100@AddPopupMe:
; File D:\git\src\IBK\IBK_DRFN\ProjSrc\SrcDrfn\Chart\MULTICHART\ExtInputBarDlg.cpp

; 3418 : 				m_mapIndcatorAll.SetAt(nPlatformMenuID, _stFvrData.m_chData1);

  001b4	8b 85 dc fe ff
	ff		 mov	 eax, DWORD PTR _bExistance$[ebp]
$LN8@AddPopupMe:
  001ba	f7 d8		 neg	 eax
; File C:\Program Files (x86)\Microsoft Visual Studio\2019\Community\VC\Tools\MSVC\14.29.30133\atlmfc\include\afxtempl.h

; 1590 : 	if ((pAssoc = GetAssocAt(key, nHashBucket, nHashValue)) == NULL)

  001bc	8b cb		 mov	 ecx, ebx
; File D:\git\src\IBK\IBK_DRFN\ProjSrc\SrcDrfn\Chart\MULTICHART\ExtInputBarDlg.cpp

; 3418 : 				m_mapIndcatorAll.SetAt(nPlatformMenuID, _stFvrData.m_chData1);

  001be	1b ff		 sbb	 edi, edi
; File C:\Program Files (x86)\Microsoft Visual Studio\2019\Community\VC\Tools\MSVC\14.29.30133\atlmfc\include\afxtempl.h

; 1590 : 	if ((pAssoc = GetAssocAt(key, nHashBucket, nHashValue)) == NULL)

  001c0	8d 85 c4 fe ff
	ff		 lea	 eax, DWORD PTR _nHashValue$2[ebp]
  001c6	50		 push	 eax
  001c7	8d 85 c0 fe ff
	ff		 lea	 eax, DWORD PTR _nHashBucket$1[ebp]
; File D:\git\src\IBK\IBK_DRFN\ProjSrc\SrcDrfn\Chart\MULTICHART\ExtInputBarDlg.cpp

; 3418 : 				m_mapIndcatorAll.SetAt(nPlatformMenuID, _stFvrData.m_chData1);

  001cd	83 e7 08	 and	 edi, 8
; File C:\Program Files (x86)\Microsoft Visual Studio\2019\Community\VC\Tools\MSVC\14.29.30133\atlmfc\include\afxtempl.h

; 1590 : 	if ((pAssoc = GetAssocAt(key, nHashBucket, nHashValue)) == NULL)

  001d0	50		 push	 eax
  001d1	ff b5 e0 fe ff
	ff		 push	 DWORD PTR _nPlatformMenuID$1$[ebp]
  001d7	e8 00 00 00 00	 call	 ?GetAssocAt@?$CMap@IIV?$CStringT@DV?$StrTraitMFC_DLL@DV?$ChTraitsCRT@D@ATL@@@@@ATL@@PBD@@IBEPAVCAssoc@1@IAAI0@Z ; CMap<unsigned int,unsigned int,ATL::CStringT<char,StrTraitMFC_DLL<char,ATL::ChTraitsCRT<char> > >,char const *>::GetAssocAt
  001dc	8b f0		 mov	 esi, eax
  001de	85 f6		 test	 esi, esi
  001e0	0f 85 e4 00 00
	00		 jne	 $LN55@AddPopupMe

; 1591 : 	{
; 1592 : 		if (m_pHashTable == NULL)

  001e6	8b 43 04	 mov	 eax, DWORD PTR [ebx+4]
  001e9	85 c0		 test	 eax, eax
  001eb	75 4a		 jne	 SHORT $LN103@AddPopupMe

; 1593 : 			InitHashTable(m_nHashTableSize);

  001ed	8b 73 08	 mov	 esi, DWORD PTR [ebx+8]

; 1434 : 		m_pHashTable = new CAssoc* [nHashSize];

  001f0	33 c9		 xor	 ecx, ecx
  001f2	8b c6		 mov	 eax, esi
  001f4	ba 04 00 00 00	 mov	 edx, 4
  001f9	f7 e2		 mul	 edx
  001fb	0f 90 c1	 seto	 cl
  001fe	f7 d9		 neg	 ecx
  00200	0b c8		 or	 ecx, eax
  00202	51		 push	 ecx
  00203	e8 00 00 00 00	 call	 ??_U@YAPAXI@Z		; operator new[]
  00208	83 c4 04	 add	 esp, 4
  0020b	89 43 04	 mov	 DWORD PTR [ebx+4], eax

; 1435 : 		ENSURE(m_pHashTable != NULL);

  0020e	85 c0		 test	 eax, eax
  00210	0f 84 6f 01 00
	00		 je	 $LN40@AddPopupMe

; 1436 : 		memset(m_pHashTable, 0, sizeof(CAssoc*) * nHashSize);

  00216	8d 0c b5 00 00
	00 00		 lea	 ecx, DWORD PTR [esi*4]
  0021d	51		 push	 ecx
  0021e	6a 00		 push	 0
  00220	50		 push	 eax
  00221	e8 00 00 00 00	 call	 _memset

; 1437 : 	}
; 1438 : 	m_nHashTableSize = nHashSize;

  00226	8b 43 04	 mov	 eax, DWORD PTR [ebx+4]
  00229	83 c4 0c	 add	 esp, 12			; 0000000cH
  0022c	89 73 08	 mov	 DWORD PTR [ebx+8], esi

; 1595 : 		ENSURE(m_pHashTable);

  0022f	85 c0		 test	 eax, eax
  00231	0f 84 4e 01 00
	00		 je	 $LN40@AddPopupMe
$LN103@AddPopupMe:

; 1481 : 	if (m_pFreeList == NULL)

  00237	83 7b 10 00	 cmp	 DWORD PTR [ebx+16], 0
  0023b	75 34		 jne	 SHORT $LN74@AddPopupMe

; 1482 : 	{
; 1483 : 		// add another block
; 1484 : 		CPlex* newBlock = CPlex::Create(m_pBlocks, m_nBlockSize, sizeof(CMap::CAssoc));

  0023d	6a 10		 push	 16			; 00000010H
  0023f	ff 73 18	 push	 DWORD PTR [ebx+24]
  00242	8d 43 14	 lea	 eax, DWORD PTR [ebx+20]
  00245	50		 push	 eax
  00246	e8 00 00 00 00	 call	 ?Create@CPlex@@SGPAU1@AAPAU1@II@Z ; CPlex::Create

; 1485 : 		// chain them into free list
; 1486 : 		CMap::CAssoc* pAssoc = (CMap::CAssoc*) newBlock->data();
; 1487 : 		// free in reverse order to make it easier to debug
; 1488 : 		pAssoc += m_nBlockSize - 1;

  0024b	8b 53 18	 mov	 edx, DWORD PTR [ebx+24]
  0024e	83 c0 08	 add	 eax, 8
  00251	8b ca		 mov	 ecx, edx
  00253	c1 e1 04	 shl	 ecx, 4
  00256	83 c1 f0	 add	 ecx, -16		; fffffff0H
  00259	03 c8		 add	 ecx, eax

; 1489 : 		for (INT_PTR i = m_nBlockSize-1; i >= 0; i--, pAssoc--)

  0025b	83 c2 ff	 add	 edx, -1
  0025e	78 11		 js	 SHORT $LN74@AddPopupMe
$LL71@AddPopupMe:

; 1490 : 		{
; 1491 : 			pAssoc->pNext = m_pFreeList;

  00260	8b 43 10	 mov	 eax, DWORD PTR [ebx+16]
  00263	89 41 08	 mov	 DWORD PTR [ecx+8], eax

; 1492 : 			m_pFreeList = pAssoc;

  00266	89 4b 10	 mov	 DWORD PTR [ebx+16], ecx
  00269	83 e9 10	 sub	 ecx, 16			; 00000010H
  0026c	83 ea 01	 sub	 edx, 1
  0026f	79 ef		 jns	 SHORT $LL71@AddPopupMe
$LN74@AddPopupMe:

; 1493 : 		}
; 1494 : 	}
; 1495 : 	ENSURE(m_pFreeList != NULL);  // we must have something

  00271	8b 73 10	 mov	 esi, DWORD PTR [ebx+16]
  00274	85 f6		 test	 esi, esi
  00276	0f 84 09 01 00
	00		 je	 $LN40@AddPopupMe

; 1496 : 
; 1497 : 	CMap::CAssoc* pAssoc = m_pFreeList;
; 1498 : 
; 1499 : 	// zero the memory
; 1500 : 	CMap::CAssoc* pTemp = pAssoc->pNext;

  0027c	8b 46 08	 mov	 eax, DWORD PTR [esi+8]

; 1256 : 		CPair( ARG_KEY keyval ) : key( keyval )	{}

  0027f	8d 4e 04	 lea	 ecx, DWORD PTR [esi+4]
  00282	0f 57 c0	 xorps	 xmm0, xmm0

; 1501 : 	memset( pAssoc, 0, sizeof(CMap::CAssoc) );

  00285	0f 11 06	 movups	 XMMWORD PTR [esi], xmm0

; 1502 : 	pAssoc->pNext = pTemp;

  00288	89 46 08	 mov	 DWORD PTR [esi+8], eax

; 1503 : 
; 1504 : 	m_pFreeList = m_pFreeList->pNext;

  0028b	8b 43 10	 mov	 eax, DWORD PTR [ebx+16]
  0028e	8b 40 08	 mov	 eax, DWORD PTR [eax+8]

; 1505 : 	m_nCount++;

  00291	ff 43 0c	 inc	 DWORD PTR [ebx+12]
  00294	89 43 10	 mov	 DWORD PTR [ebx+16], eax

; 1256 : 		CPair( ARG_KEY keyval ) : key( keyval )	{}

  00297	8b 85 e0 fe ff
	ff		 mov	 eax, DWORD PTR _nPlatformMenuID$1$[ebp]
  0029d	89 06		 mov	 DWORD PTR [esi], eax
  0029f	ff 15 00 00 00
	00		 call	 DWORD PTR __imp_??0?$CStringT@DV?$StrTraitMFC_DLL@DV?$ChTraitsCRT@D@ATL@@@@@ATL@@QAE@XZ

; 1598 : 		pAssoc->nHashValue = nHashValue;

  002a5	8b 85 c4 fe ff
	ff		 mov	 eax, DWORD PTR _nHashValue$2[ebp]
  002ab	89 46 0c	 mov	 DWORD PTR [esi+12], eax

; 1599 : 		//'pAssoc->value' is a constructed object, nothing more
; 1600 : 
; 1601 : 		// put into hash table
; 1602 : 		pAssoc->pNext = m_pHashTable[nHashBucket];

  002ae	8b 85 c0 fe ff
	ff		 mov	 eax, DWORD PTR _nHashBucket$1[ebp]
  002b4	8d 0c 85 00 00
	00 00		 lea	 ecx, DWORD PTR [eax*4]
  002bb	8b 43 04	 mov	 eax, DWORD PTR [ebx+4]
  002be	8b 04 01	 mov	 eax, DWORD PTR [ecx+eax]
  002c1	89 46 08	 mov	 DWORD PTR [esi+8], eax

; 1603 : 		m_pHashTable[nHashBucket] = pAssoc;

  002c4	8b 43 04	 mov	 eax, DWORD PTR [ebx+4]
  002c7	89 34 01	 mov	 DWORD PTR [ecx+eax], esi
$LN55@AddPopupMe:

; 1350 : 	{ (*this)[key] = newValue; }

  002ca	8d 85 3c ff ff
	ff		 lea	 eax, DWORD PTR __stFvrData$[ebp+88]
  002d0	50		 push	 eax

; 1605 : 	return pAssoc->value;  // return new reference

  002d1	8d 4e 04	 lea	 ecx, DWORD PTR [esi+4]

; 1350 : 	{ (*this)[key] = newValue; }

  002d4	ff 15 00 00 00
	00		 call	 DWORD PTR __imp_??4?$CStringT@DV?$StrTraitMFC_DLL@DV?$ChTraitsCRT@D@ATL@@@@@ATL@@QAEAAV01@PBD@Z
; File C:\Program Files (x86)\Microsoft Visual Studio\2019\Community\VC\Tools\MSVC\14.29.30133\atlmfc\include\afxwin1.inl

; 924  : 	{ ASSERT(::IsMenu(m_hMenu)); return ::AppendMenu(m_hMenu, nFlags, nIDNewItem, lpszNewItem); }

  002da	8b b5 d8 fe ff
	ff		 mov	 esi, DWORD PTR _this$GSCopy$1$[ebp]
  002e0	8d 85 3c ff ff
	ff		 lea	 eax, DWORD PTR __stFvrData$[ebp+88]
  002e6	50		 push	 eax
  002e7	ff b5 e0 fe ff
	ff		 push	 DWORD PTR _nPlatformMenuID$1$[ebp]
  002ed	8b 86 2c 33 00
	00		 mov	 eax, DWORD PTR [esi+13100]
  002f3	57		 push	 edi
  002f4	ff 70 04	 push	 DWORD PTR [eax+4]
  002f7	ff 15 00 00 00
	00		 call	 DWORD PTR __imp__AppendMenuA@16
; File D:\git\src\IBK\IBK_DRFN\ProjSrc\SrcDrfn\Chart\MULTICHART\ExtInputBarDlg.cpp

; 3419 : 				m_pMenuChild->AppendMenu(nFlagsChild,nPlatformMenuID++,_stFvrData.m_chData1);

  002fd	8b bd e0 fe ff
	ff		 mov	 edi, DWORD PTR _nPlatformMenuID$1$[ebp]
  00303	8b 85 cc fe ff
	ff		 mov	 eax, DWORD PTR _wIndexItem$1$[ebp]
  00309	47		 inc	 edi
  0030a	8b 95 d0 fe ff
	ff		 mov	 edx, DWORD PTR _pFavoriteMng$1$[ebp]
  00310	89 bd e0 fe ff
	ff		 mov	 DWORD PTR _nPlatformMenuID$1$[ebp], edi
  00316	eb 0c		 jmp	 SHORT $LN2@AddPopupMe
$LN98@AddPopupMe:

; 3404 : 			if(_stFvrData.m_lTabNum==TABNO_ASSISTINDEX)

  00318	8b b5 d8 fe ff
	ff		 mov	 esi, DWORD PTR _this$GSCopy$1$[ebp]
  0031e	8b bd e0 fe ff
	ff		 mov	 edi, DWORD PTR _nPlatformMenuID$1$[ebp]
$LN2@AddPopupMe:

; 3401 : 		for(int wIndexItem=0;wIndexItem<wSizeItem;wIndexItem++)

  00324	8b 8d c8 fe ff
	ff		 mov	 ecx, DWORD PTR tv750[ebp]
  0032a	40		 inc	 eax
  0032b	81 c1 18 01 00
	00		 add	 ecx, 280		; 00000118H
  00331	89 85 cc fe ff
	ff		 mov	 DWORD PTR _wIndexItem$1$[ebp], eax
  00337	89 8d c8 fe ff
	ff		 mov	 DWORD PTR tv750[ebp], ecx
  0033d	3b 85 bc fe ff
	ff		 cmp	 eax, DWORD PTR _wSizeItem$1$[ebp]
  00343	0f 8c 07 fe ff
	ff		 jl	 $LL4@AddPopupMe
$LN3@AddPopupMe:

; 3446 : 	m_nSaveAnalTool = nPlatformMenuID;

  00349	8b 86 14 33 00
	00		 mov	 eax, DWORD PTR [esi+13076]
  0034f	f7 d8		 neg	 eax
  00351	89 be 50 33 00
	00		 mov	 DWORD PTR [esi+13136], edi
; File C:\Program Files (x86)\Microsoft Visual Studio\2019\Community\VC\Tools\MSVC\14.29.30133\atlmfc\include\afxwin1.inl

; 924  : 	{ ASSERT(::IsMenu(m_hMenu)); return ::AppendMenu(m_hMenu, nFlags, nIDNewItem, lpszNewItem); }

  00357	68 00 00 00 00	 push	 OFFSET ??_C@_0M@HNBDOFEN@?$LK?P?$LM?$KO?E?x?5?$MA?z?$MA?e@
; File D:\git\src\IBK\IBK_DRFN\ProjSrc\SrcDrfn\Chart\MULTICHART\ExtInputBarDlg.cpp

; 3446 : 	m_nSaveAnalTool = nPlatformMenuID;

  0035c	1b c0		 sbb	 eax, eax
; File C:\Program Files (x86)\Microsoft Visual Studio\2019\Community\VC\Tools\MSVC\14.29.30133\atlmfc\include\afxwin1.inl

; 924  : 	{ ASSERT(::IsMenu(m_hMenu)); return ::AppendMenu(m_hMenu, nFlags, nIDNewItem, lpszNewItem); }

  0035e	57		 push	 edi
; File D:\git\src\IBK\IBK_DRFN\ProjSrc\SrcDrfn\Chart\MULTICHART\ExtInputBarDlg.cpp

; 3446 : 	m_nSaveAnalTool = nPlatformMenuID;

  0035f	83 e0 08	 and	 eax, 8
; File C:\Program Files (x86)\Microsoft Visual Studio\2019\Community\VC\Tools\MSVC\14.29.30133\atlmfc\include\afxwin1.inl

; 924  : 	{ ASSERT(::IsMenu(m_hMenu)); return ::AppendMenu(m_hMenu, nFlags, nIDNewItem, lpszNewItem); }

  00362	50		 push	 eax
  00363	8b 85 d4 fe ff
	ff		 mov	 eax, DWORD PTR _pPopupMeun$GSCopy$1$[ebp]
  00369	ff 70 04	 push	 DWORD PTR [eax+4]
  0036c	ff 15 00 00 00
	00		 call	 DWORD PTR __imp__AppendMenuA@16
; File D:\git\src\IBK\IBK_DRFN\ProjSrc\SrcDrfn\Chart\MULTICHART\ExtInputBarDlg.cpp

; 3448 : }

  00372	8b 4d fc	 mov	 ecx, DWORD PTR __$ArrayPad$[ebp]
; File C:\Program Files (x86)\Microsoft Visual Studio\2019\Community\VC\Tools\MSVC\14.29.30133\atlmfc\include\afxwin1.inl

; 924  : 	{ ASSERT(::IsMenu(m_hMenu)); return ::AppendMenu(m_hMenu, nFlags, nIDNewItem, lpszNewItem); }

  00375	5f		 pop	 edi
  00376	5e		 pop	 esi
; File D:\git\src\IBK\IBK_DRFN\ProjSrc\SrcDrfn\Chart\MULTICHART\ExtInputBarDlg.cpp

; 3448 : }

  00377	33 cd		 xor	 ecx, ebp
; File C:\Program Files (x86)\Microsoft Visual Studio\2019\Community\VC\Tools\MSVC\14.29.30133\atlmfc\include\afxwin1.inl

; 924  : 	{ ASSERT(::IsMenu(m_hMenu)); return ::AppendMenu(m_hMenu, nFlags, nIDNewItem, lpszNewItem); }

  00379	5b		 pop	 ebx
; File D:\git\src\IBK\IBK_DRFN\ProjSrc\SrcDrfn\Chart\MULTICHART\ExtInputBarDlg.cpp

; 3448 : }

  0037a	e8 00 00 00 00	 call	 @__security_check_cookie@4
  0037f	8b e5		 mov	 esp, ebp
  00381	5d		 pop	 ebp
  00382	c2 08 00	 ret	 8
$LN40@AddPopupMe:
; File C:\Program Files (x86)\Microsoft Visual Studio\2019\Community\VC\Tools\MSVC\14.29.30133\atlmfc\include\afxtempl.h

; 290  : 	AfxThrowInvalidArgException();

  00385	e8 00 00 00 00	 call	 ?AfxThrowInvalidArgException@@YGXXZ ; AfxThrowInvalidArgException
$LN101@AddPopupMe:
  0038a	cc		 int	 3
?AddPopupMenuItem@CExtInputBarDlg@@QAEXPAVCMenu@@PAVCPoint@@@Z ENDP ; CExtInputBarDlg::AddPopupMenuItem
_TEXT	ENDS
; Function compile flags: /Ogtp
; File D:\git\src\IBK\IBK_DRFN\ProjSrc\SrcDrfn\Chart\MULTICHART\ExtInputBarDlg.cpp
;	COMDAT ?EnableAccount@CExtInputBarDlg@@QAEXH@Z
_TEXT	SEGMENT
_bEnable$ = 8						; size = 4
?EnableAccount@CExtInputBarDlg@@QAEXH@Z PROC		; CExtInputBarDlg::EnableAccount, COMDAT
; _this$ = ecx

; 3327 : {

  00000	55		 push	 ebp
  00001	8b ec		 mov	 ebp, esp
  00003	56		 push	 esi

; 3328 : 	if(m_hCtrlAccount)

  00004	8b 75 08	 mov	 esi, DWORD PTR _bEnable$[ebp]
  00007	57		 push	 edi
  00008	8b f9		 mov	 edi, ecx
  0000a	8b 87 60 01 00
	00		 mov	 eax, DWORD PTR [edi+352]
  00010	85 c0		 test	 eax, eax
  00012	74 08		 je	 SHORT $LN2@EnableAcco

; 3329 : 		::EnableWindow(m_hCtrlAccount, bEnable);

  00014	56		 push	 esi
  00015	50		 push	 eax
  00016	ff 15 00 00 00
	00		 call	 DWORD PTR __imp__EnableWindow@8
$LN2@EnableAcco:

; 3330 : 
; 3331 : 	GetDlgItem(IDC_CHK_ACCOUNTAVG)->EnableWindow(bEnable);

  0001c	56		 push	 esi
  0001d	68 ac 18 00 00	 push	 6316			; 000018acH
  00022	8b cf		 mov	 ecx, edi
  00024	e8 00 00 00 00	 call	 ?GetDlgItem@CWnd@@QBEPAV1@H@Z ; CWnd::GetDlgItem
  00029	8b c8		 mov	 ecx, eax
  0002b	e8 00 00 00 00	 call	 ?EnableWindow@CWnd@@QAEHH@Z ; CWnd::EnableWindow

; 3332 : 	GetDlgItem(IDC_CHK_ACCOUNTCONC)->EnableWindow(bEnable);

  00030	56		 push	 esi
  00031	68 ad 18 00 00	 push	 6317			; 000018adH
  00036	8b cf		 mov	 ecx, edi
  00038	e8 00 00 00 00	 call	 ?GetDlgItem@CWnd@@QBEPAV1@H@Z ; CWnd::GetDlgItem
  0003d	8b c8		 mov	 ecx, eax
  0003f	e8 00 00 00 00	 call	 ?EnableWindow@CWnd@@QAEHH@Z ; CWnd::EnableWindow
  00044	5f		 pop	 edi
  00045	5e		 pop	 esi

; 3333 : }

  00046	5d		 pop	 ebp
  00047	c2 04 00	 ret	 4
?EnableAccount@CExtInputBarDlg@@QAEXH@Z ENDP		; CExtInputBarDlg::EnableAccount
_TEXT	ENDS
; Function compile flags: /Ogtp
; File D:\git\src\IBK\IBK_DRFN\ProjSrc\SrcDrfn\Chart\MULTICHART\ExtInputBarDlg.cpp
; File C:\Program Files (x86)\Microsoft Visual Studio\2019\Community\VC\Tools\MSVC\14.29.30133\atlmfc\include\atltypes.h
; File D:\git\src\IBK\IBK_DRFN\ProjSrc\SrcDrfn\Chart\MULTICHART\ExtInputBarDlg.cpp
; File C:\Program Files (x86)\Microsoft Visual Studio\2019\Community\VC\Tools\MSVC\14.29.30133\atlmfc\include\afxwin2.inl
; File D:\git\src\IBK\IBK_DRFN\ProjSrc\SrcDrfn\Chart\MULTICHART\ExtInputBarDlg.cpp
; File C:\Program Files (x86)\Microsoft Visual Studio\2019\Community\VC\Tools\MSVC\14.29.30133\atlmfc\include\afxwin2.inl
; File D:\git\src\IBK\IBK_DRFN\ProjSrc\SrcDrfn\Chart\MULTICHART\ExtInputBarDlg.cpp
;	COMDAT ?MoveAccountCtrl@CExtInputBarDlg@@QAEXXZ
_TEXT	SEGMENT
_rcAccount$1 = -20					; size = 16
__$ArrayPad$ = -4					; size = 4
?MoveAccountCtrl@CExtInputBarDlg@@QAEXXZ PROC		; CExtInputBarDlg::MoveAccountCtrl, COMDAT
; _this$ = ecx

; 3315 : {

  00000	55		 push	 ebp
  00001	8b ec		 mov	 ebp, esp
  00003	83 ec 14	 sub	 esp, 20			; 00000014H
  00006	a1 00 00 00 00	 mov	 eax, DWORD PTR ___security_cookie
  0000b	33 c5		 xor	 eax, ebp
  0000d	89 45 fc	 mov	 DWORD PTR __$ArrayPad$[ebp], eax
  00010	56		 push	 esi
  00011	8b f1		 mov	 esi, ecx

; 3316 : 	if(m_hCtrlAccount)

  00013	83 be 60 01 00
	00 00		 cmp	 DWORD PTR [esi+352], 0
  0001a	74 51		 je	 SHORT $LN2@MoveAccoun

; 3319 : 		GetDlgItem(IDC_STC_ACCOUNT)->GetWindowRect(rcAccount);

  0001c	0f 57 c0	 xorps	 xmm0, xmm0
  0001f	68 ae 18 00 00	 push	 6318			; 000018aeH
; File C:\Program Files (x86)\Microsoft Visual Studio\2019\Community\VC\Tools\MSVC\14.29.30133\atlmfc\include\atltypes.h

; 528  : 	left = 0;

  00024	0f 11 45 ec	 movups	 XMMWORD PTR _rcAccount$1[ebp], xmm0
; File D:\git\src\IBK\IBK_DRFN\ProjSrc\SrcDrfn\Chart\MULTICHART\ExtInputBarDlg.cpp

; 3319 : 		GetDlgItem(IDC_STC_ACCOUNT)->GetWindowRect(rcAccount);

  00028	e8 00 00 00 00	 call	 ?GetDlgItem@CWnd@@QBEPAV1@H@Z ; CWnd::GetDlgItem
; File C:\Program Files (x86)\Microsoft Visual Studio\2019\Community\VC\Tools\MSVC\14.29.30133\atlmfc\include\afxwin2.inl

; 84   : 	{ ASSERT(::IsWindow(m_hWnd)); ::GetWindowRect(m_hWnd, lpRect); }

  0002d	8d 4d ec	 lea	 ecx, DWORD PTR _rcAccount$1[ebp]
  00030	51		 push	 ecx
  00031	ff 70 20	 push	 DWORD PTR [eax+32]
  00034	ff 15 00 00 00
	00		 call	 DWORD PTR __imp__GetWindowRect@8
; File D:\git\src\IBK\IBK_DRFN\ProjSrc\SrcDrfn\Chart\MULTICHART\ExtInputBarDlg.cpp

; 3320 : 		ScreenToClient(rcAccount);

  0003a	8d 45 ec	 lea	 eax, DWORD PTR _rcAccount$1[ebp]
  0003d	8b ce		 mov	 ecx, esi
  0003f	50		 push	 eax
  00040	e8 00 00 00 00	 call	 ?ScreenToClient@CWnd@@QBEXPAUtagRECT@@@Z ; CWnd::ScreenToClient

; 3321 : 
; 3322 : 		CWnd::FromHandle(m_hCtrlAccount)->MoveWindow(rcAccount);

  00045	ff b6 60 01 00
	00		 push	 DWORD PTR [esi+352]
  0004b	e8 00 00 00 00	 call	 ?FromHandle@CWnd@@SGPAV1@PAUHWND__@@@Z ; CWnd::FromHandle
; File C:\Program Files (x86)\Microsoft Visual Studio\2019\Community\VC\Tools\MSVC\14.29.30133\atlmfc\include\afxwin2.inl

; 73   : 	{ MoveWindow(lpRect->left, lpRect->top, lpRect->right - lpRect->left,

  00050	8b 4d f8	 mov	 ecx, DWORD PTR _rcAccount$1[ebp+12]
  00053	8b 75 f0	 mov	 esi, DWORD PTR _rcAccount$1[ebp+4]
  00056	2b ce		 sub	 ecx, esi
  00058	8b 55 ec	 mov	 edx, DWORD PTR _rcAccount$1[ebp]
  0005b	6a 01		 push	 1
  0005d	51		 push	 ecx
  0005e	8b 4d f4	 mov	 ecx, DWORD PTR _rcAccount$1[ebp+8]
  00061	2b ca		 sub	 ecx, edx
  00063	51		 push	 ecx
  00064	56		 push	 esi
  00065	52		 push	 edx
  00066	8b c8		 mov	 ecx, eax
  00068	e8 00 00 00 00	 call	 ?MoveWindow@CWnd@@QAEXHHHHH@Z ; CWnd::MoveWindow
$LN2@MoveAccoun:
; File D:\git\src\IBK\IBK_DRFN\ProjSrc\SrcDrfn\Chart\MULTICHART\ExtInputBarDlg.cpp

; 3324 : }

  0006d	8b 4d fc	 mov	 ecx, DWORD PTR __$ArrayPad$[ebp]
  00070	33 cd		 xor	 ecx, ebp
  00072	5e		 pop	 esi
  00073	e8 00 00 00 00	 call	 @__security_check_cookie@4
  00078	8b e5		 mov	 esp, ebp
  0007a	5d		 pop	 ebp
  0007b	c3		 ret	 0
?MoveAccountCtrl@CExtInputBarDlg@@QAEXXZ ENDP		; CExtInputBarDlg::MoveAccountCtrl
_TEXT	ENDS
; Function compile flags: /Ogtp
; File D:\git\src\IBK\IBK_DRFN\ProjSrc\SrcDrfn\Chart\MULTICHART\ExtInputBarDlg.cpp
; File C:\Program Files (x86)\Microsoft Visual Studio\2019\Community\VC\Tools\MSVC\14.29.30133\atlmfc\include\afxwin2.inl
; File D:\git\src\IBK\IBK_DRFN\ProjSrc\SrcDrfn\Chart\MULTICHART\ExtInputBarDlg.cpp
; File C:\Program Files (x86)\Microsoft Visual Studio\2019\Community\VC\Tools\MSVC\14.29.30133\atlmfc\include\afxwin2.inl
; File D:\git\src\IBK\IBK_DRFN\ProjSrc\SrcDrfn\Chart\MULTICHART\ExtInputBarDlg.cpp
;	COMDAT ?ResetChartData@CExtInputBarDlg@@QAEXXZ
_TEXT	SEGMENT
$T2 = -16						; size = 4
__$EHRec$ = -12						; size = 12
?ResetChartData@CExtInputBarDlg@@QAEXXZ PROC		; CExtInputBarDlg::ResetChartData, COMDAT
; _this$ = ecx

; 3354 : {

  00000	55		 push	 ebp
  00001	8b ec		 mov	 ebp, esp
  00003	6a ff		 push	 -1
  00005	68 00 00 00 00	 push	 __ehhandler$?ResetChartData@CExtInputBarDlg@@QAEXXZ
  0000a	64 a1 00 00 00
	00		 mov	 eax, DWORD PTR fs:0
  00010	50		 push	 eax
  00011	83 ec 08	 sub	 esp, 8
  00014	57		 push	 edi
  00015	a1 00 00 00 00	 mov	 eax, DWORD PTR ___security_cookie
  0001a	33 c5		 xor	 eax, ebp
  0001c	50		 push	 eax
  0001d	8d 45 f4	 lea	 eax, DWORD PTR __$EHRec$[ebp]
  00020	64 a3 00 00 00
	00		 mov	 DWORD PTR fs:0, eax
  00026	8b f9		 mov	 edi, ecx

; 3355 : 	CButton* pCheck = ((CButton*)GetDlgItem(IDC_CHK_ACCOUNTAVG));

  00028	68 ac 18 00 00	 push	 6316			; 000018acH
  0002d	e8 00 00 00 00	 call	 ?GetDlgItem@CWnd@@QBEPAV1@H@Z ; CWnd::GetDlgItem
; File C:\Program Files (x86)\Microsoft Visual Studio\2019\Community\VC\Tools\MSVC\14.29.30133\atlmfc\include\afxwin2.inl

; 630  : 	{ ASSERT(::IsWindow(m_hWnd)); ::SendMessage(m_hWnd, BM_SETCHECK, nCheck, 0); }

  00032	6a 00		 push	 0
  00034	6a 00		 push	 0
  00036	68 f1 00 00 00	 push	 241			; 000000f1H
  0003b	ff 70 20	 push	 DWORD PTR [eax+32]
  0003e	ff 15 00 00 00
	00		 call	 DWORD PTR __imp__SendMessageA@16
; File D:\git\src\IBK\IBK_DRFN\ProjSrc\SrcDrfn\Chart\MULTICHART\ExtInputBarDlg.cpp

; 3357 : 	((CChartMng*)m_pChartMng)->ShowAvgLine("", "");	

  00044	51		 push	 ecx
  00045	8b cc		 mov	 ecx, esp
  00047	89 65 f0	 mov	 DWORD PTR $T2[ebp], esp
  0004a	68 00 00 00 00	 push	 OFFSET ??_C@_00CNPNBAHC@@
  0004f	ff 15 00 00 00
	00		 call	 DWORD PTR __imp_??0?$CStringT@DV?$StrTraitMFC_DLL@DV?$ChTraitsCRT@D@ATL@@@@@ATL@@QAE@PBD@Z
  00055	51		 push	 ecx
  00056	8b cc		 mov	 ecx, esp
  00058	c7 45 fc 00 00
	00 00		 mov	 DWORD PTR __$EHRec$[ebp+8], 0
  0005f	68 00 00 00 00	 push	 OFFSET ??_C@_00CNPNBAHC@@
  00064	ff 15 00 00 00
	00		 call	 DWORD PTR __imp_??0?$CStringT@DV?$StrTraitMFC_DLL@DV?$ChTraitsCRT@D@ATL@@@@@ATL@@QAE@PBD@Z
  0006a	c7 45 fc ff ff
	ff ff		 mov	 DWORD PTR __$EHRec$[ebp+8], -1
  00071	8b 8f 00 33 00
	00		 mov	 ecx, DWORD PTR [edi+13056]
  00077	e8 00 00 00 00	 call	 ?ShowAvgLine@CChartMng@@QAEXV?$CStringT@DV?$StrTraitMFC_DLL@DV?$ChTraitsCRT@D@ATL@@@@@ATL@@0@Z ; CChartMng::ShowAvgLine

; 3358 : 
; 3359 : 	pCheck = ((CButton*)GetDlgItem(IDC_CHK_ACCOUNTCONC));

  0007c	68 ad 18 00 00	 push	 6317			; 000018adH
  00081	8b cf		 mov	 ecx, edi
  00083	e8 00 00 00 00	 call	 ?GetDlgItem@CWnd@@QBEPAV1@H@Z ; CWnd::GetDlgItem
; File C:\Program Files (x86)\Microsoft Visual Studio\2019\Community\VC\Tools\MSVC\14.29.30133\atlmfc\include\afxwin2.inl

; 630  : 	{ ASSERT(::IsWindow(m_hWnd)); ::SendMessage(m_hWnd, BM_SETCHECK, nCheck, 0); }

  00088	6a 00		 push	 0
  0008a	6a 00		 push	 0
  0008c	68 f1 00 00 00	 push	 241			; 000000f1H
  00091	ff 70 20	 push	 DWORD PTR [eax+32]
  00094	ff 15 00 00 00
	00		 call	 DWORD PTR __imp__SendMessageA@16
; File D:\git\src\IBK\IBK_DRFN\ProjSrc\SrcDrfn\Chart\MULTICHART\ExtInputBarDlg.cpp

; 3361 : 	((CChartMng*)m_pChartMng)->RemoveConcPacketData();	

  0009a	8b 8f 00 33 00
	00		 mov	 ecx, DWORD PTR [edi+13056]
  000a0	e8 00 00 00 00	 call	 ?RemoveConcPacketData@CChartMng@@QAEXXZ ; CChartMng::RemoveConcPacketData

; 3362 : }

  000a5	8b 4d f4	 mov	 ecx, DWORD PTR __$EHRec$[ebp]
  000a8	64 89 0d 00 00
	00 00		 mov	 DWORD PTR fs:0, ecx
  000af	59		 pop	 ecx
  000b0	5f		 pop	 edi
  000b1	8b e5		 mov	 esp, ebp
  000b3	5d		 pop	 ebp
  000b4	c3		 ret	 0
_TEXT	ENDS
;	COMDAT text$x
text$x	SEGMENT
__unwindfunclet$?ResetChartData@CExtInputBarDlg@@QAEXXZ$0:
  00000	8b 4d f0	 mov	 ecx, DWORD PTR $T2[ebp]
  00003	ff 25 00 00 00
	00		 jmp	 DWORD PTR __imp_??1?$CStringT@DV?$StrTraitMFC_DLL@DV?$ChTraitsCRT@D@ATL@@@@@ATL@@QAE@XZ
  00009	cc		 int	 3
  0000a	cc		 int	 3
  0000b	cc		 int	 3
  0000c	cc		 int	 3
  0000d	cc		 int	 3
__ehhandler$?ResetChartData@CExtInputBarDlg@@QAEXXZ:
  0000e	90		 npad	 1
  0000f	90		 npad	 1
  00010	8b 54 24 08	 mov	 edx, DWORD PTR [esp+8]
  00014	8d 42 0c	 lea	 eax, DWORD PTR [edx+12]
  00017	8b 4a f0	 mov	 ecx, DWORD PTR [edx-16]
  0001a	33 c8		 xor	 ecx, eax
  0001c	e8 00 00 00 00	 call	 @__security_check_cookie@4
  00021	b8 00 00 00 00	 mov	 eax, OFFSET __ehfuncinfo$?ResetChartData@CExtInputBarDlg@@QAEXXZ
  00026	e9 00 00 00 00	 jmp	 ___CxxFrameHandler3
text$x	ENDS
?ResetChartData@CExtInputBarDlg@@QAEXXZ ENDP		; CExtInputBarDlg::ResetChartData
; Function compile flags: /Ogtp
; File D:\git\src\IBK\IBK_DRFN\ProjSrc\SrcDrfn\Chart\MULTICHART\ExtInputBarDlg.cpp
;	COMDAT ?SaveExtInputBar@CExtInputBarDlg@@QAEXXZ
_TEXT	SEGMENT
_strCfgFile$ = -20					; size = 4
_strTemp$ = -16						; size = 4
__$EHRec$ = -12						; size = 12
?SaveExtInputBar@CExtInputBarDlg@@QAEXXZ PROC		; CExtInputBarDlg::SaveExtInputBar, COMDAT
; _this$ = ecx

; 3263 : {

  00000	55		 push	 ebp
  00001	8b ec		 mov	 ebp, esp
  00003	6a ff		 push	 -1
  00005	68 00 00 00 00	 push	 __ehhandler$?SaveExtInputBar@CExtInputBarDlg@@QAEXXZ
  0000a	64 a1 00 00 00
	00		 mov	 eax, DWORD PTR fs:0
  00010	50		 push	 eax
  00011	83 ec 08	 sub	 esp, 8
  00014	53		 push	 ebx
  00015	56		 push	 esi
  00016	57		 push	 edi
  00017	a1 00 00 00 00	 mov	 eax, DWORD PTR ___security_cookie
  0001c	33 c5		 xor	 eax, ebp
  0001e	50		 push	 eax
  0001f	8d 45 f4	 lea	 eax, DWORD PTR __$EHRec$[ebp]
  00022	64 a3 00 00 00
	00		 mov	 DWORD PTR fs:0, eax
  00028	8b f9		 mov	 edi, ecx

; 3264 : 	//CString strCfgFile = ((CStdDialog*)GetParent())->m_strConfig;
; 3265 : 	CString strCfgFile = m_pStdDialog->m_strConfig;

  0002a	8b 87 a8 00 00
	00		 mov	 eax, DWORD PTR [edi+168]
  00030	8d 4d ec	 lea	 ecx, DWORD PTR _strCfgFile$[ebp]
  00033	05 a8 07 00 00	 add	 eax, 1960		; 000007a8H
  00038	50		 push	 eax
  00039	ff 15 00 00 00
	00		 call	 DWORD PTR __imp_??0?$CStringT@DV?$StrTraitMFC_DLL@DV?$ChTraitsCRT@D@ATL@@@@@ATL@@QAE@ABV01@@Z

; 3266 : 	
; 3267 : 	CString strTemp;

  0003f	8d 4d f0	 lea	 ecx, DWORD PTR _strTemp$[ebp]
  00042	c7 45 fc 00 00
	00 00		 mov	 DWORD PTR __$EHRec$[ebp+8], 0
  00049	ff 15 00 00 00
	00		 call	 DWORD PTR __imp_??0?$CStringT@DV?$StrTraitMFC_DLL@DV?$ChTraitsCRT@D@ATL@@@@@ATL@@QAE@XZ

; 3268 : 	UINT nOpenedOwner = 0; //@Solomon-091015::SendMessage(((CStdDialog*)GetParent())->m_hViewInMain,RMSG_GETOPENEDOWNER,0,0);
; 3269 : 	//nOpenedOwner  = 0 : / 
; 3270 : 	//nOpenedOwner  = 1 :     ( )
; 3271 : 	//nOpenedOwner  = 2 : ,dll   (OpenMapData )
; 3272 : 	if(nOpenedOwner==0&&m_nSave)

  0004f	8b 87 08 33 00
	00		 mov	 eax, DWORD PTR [edi+13064]
  00055	8b 1d 00 00 00
	00		 mov	 ebx, DWORD PTR __imp__WritePrivateProfileStringA@16
  0005b	c6 45 fc 01	 mov	 BYTE PTR __$EHRec$[ebp+8], 1
  0005f	85 c0		 test	 eax, eax
  00061	74 31		 je	 SHORT $LN2@SaveExtInp

; 3273 : 	{
; 3274 : 		if(m_nSave==SAVE_TRUE)

  00063	83 f8 01	 cmp	 eax, 1
  00066	75 07		 jne	 SHORT $LN3@SaveExtInp

; 3275 : 		{
; 3276 : 			strTemp = "1";

  00068	68 00 00 00 00	 push	 OFFSET ??_C@_01HIHLOKLC@1@

; 3277 : 		}

  0006d	eb 0a		 jmp	 SHORT $LN42@SaveExtInp
$LN3@SaveExtInp:

; 3278 : 		else if(m_nSave==SAVE_FALSE)

  0006f	83 f8 02	 cmp	 eax, 2
  00072	75 0e		 jne	 SHORT $LN5@SaveExtInp

; 3279 : 		{
; 3280 : 			strTemp = "0";

  00074	68 00 00 00 00	 push	 OFFSET ??_C@_01GBGANLPD@0@
$LN42@SaveExtInp:

; 3281 : 		}
; 3282 : 		::WritePrivateProfileString("ExtInputBar","Saved",strTemp,strCfgFile);

  00079	8d 4d f0	 lea	 ecx, DWORD PTR _strTemp$[ebp]
  0007c	ff 15 00 00 00
	00		 call	 DWORD PTR __imp_??4?$CStringT@DV?$StrTraitMFC_DLL@DV?$ChTraitsCRT@D@ATL@@@@@ATL@@QAEAAV01@PBD@Z
$LN5@SaveExtInp:
  00082	ff 75 ec	 push	 DWORD PTR _strCfgFile$[ebp]
  00085	ff 75 f0	 push	 DWORD PTR _strTemp$[ebp]
  00088	68 00 00 00 00	 push	 OFFSET ??_C@_05GBKMCCNA@Saved@
  0008d	68 00 00 00 00	 push	 OFFSET ??_C@_0M@POCNEIHC@ExtInputBar@
  00092	ff d3		 call	 ebx
$LN2@SaveExtInp:

; 3283 : 	}
; 3284 : 	
; 3285 : 	strTemp.Format("%d", m_bNormalizedMinuteTimeRule);

  00094	ff b7 0c 33 00
	00		 push	 DWORD PTR [edi+13068]
  0009a	8b 35 00 00 00
	00		 mov	 esi, DWORD PTR __imp_?Format@?$CStringT@DV?$StrTraitMFC_DLL@DV?$ChTraitsCRT@D@ATL@@@@@ATL@@QAAXPBDZZ
  000a0	8d 45 f0	 lea	 eax, DWORD PTR _strTemp$[ebp]
  000a3	68 00 00 00 00	 push	 OFFSET ??_C@_02DPKJAMEF@?$CFd@
  000a8	50		 push	 eax
  000a9	ff d6		 call	 esi
  000ab	83 c4 0c	 add	 esp, 12			; 0000000cH

; 3286 : 	::WritePrivateProfileString("ExtInputBar","NormalizedMinuteTimeRule",strTemp,strCfgFile);	

  000ae	ff 75 ec	 push	 DWORD PTR _strCfgFile$[ebp]
  000b1	ff 75 f0	 push	 DWORD PTR _strTemp$[ebp]
  000b4	68 00 00 00 00	 push	 OFFSET ??_C@_0BJ@LOFKHOGA@NormalizedMinuteTimeRule@
  000b9	68 00 00 00 00	 push	 OFFSET ??_C@_0M@POCNEIHC@ExtInputBar@
  000be	ff d3		 call	 ebx

; 3287 : 	
; 3288 : 	strTemp.Format("%d", m_nDragModeType);

  000c0	ff b7 18 33 00
	00		 push	 DWORD PTR [edi+13080]
  000c6	8d 45 f0	 lea	 eax, DWORD PTR _strTemp$[ebp]
  000c9	68 00 00 00 00	 push	 OFFSET ??_C@_02DPKJAMEF@?$CFd@
  000ce	50		 push	 eax
  000cf	ff d6		 call	 esi
  000d1	83 c4 0c	 add	 esp, 12			; 0000000cH

; 3289 : 	::WritePrivateProfileString("ExtInputBar","DragModeType",strTemp,strCfgFile);

  000d4	ff 75 ec	 push	 DWORD PTR _strCfgFile$[ebp]
  000d7	ff 75 f0	 push	 DWORD PTR _strTemp$[ebp]
  000da	68 00 00 00 00	 push	 OFFSET ??_C@_0N@HBKGNKCN@DragModeType@
  000df	68 00 00 00 00	 push	 OFFSET ??_C@_0M@POCNEIHC@ExtInputBar@
  000e4	ff d3		 call	 ebx

; 3290 : 	
; 3291 : 	strTemp.Format("%d", m_bChkCrossLine);

  000e6	ff b7 24 33 00
	00		 push	 DWORD PTR [edi+13092]
  000ec	8d 45 f0	 lea	 eax, DWORD PTR _strTemp$[ebp]
  000ef	68 00 00 00 00	 push	 OFFSET ??_C@_02DPKJAMEF@?$CFd@
  000f4	50		 push	 eax
  000f5	ff d6		 call	 esi
  000f7	83 c4 0c	 add	 esp, 12			; 0000000cH

; 3292 : 	::WritePrivateProfileString("ExtInputBar","CrossLine",strTemp,strCfgFile);

  000fa	ff 75 ec	 push	 DWORD PTR _strCfgFile$[ebp]
  000fd	ff 75 f0	 push	 DWORD PTR _strTemp$[ebp]
  00100	68 00 00 00 00	 push	 OFFSET ??_C@_09GPLOLDLO@CrossLine@
  00105	68 00 00 00 00	 push	 OFFSET ??_C@_0M@POCNEIHC@ExtInputBar@
  0010a	ff d3		 call	 ebx

; 3293 : 	
; 3294 : 	strTemp.Format("%d", m_bChkSaveJipyoOneFile);

  0010c	ff b7 20 33 00
	00		 push	 DWORD PTR [edi+13088]
  00112	8d 45 f0	 lea	 eax, DWORD PTR _strTemp$[ebp]
  00115	68 00 00 00 00	 push	 OFFSET ??_C@_02DPKJAMEF@?$CFd@
  0011a	50		 push	 eax
  0011b	ff d6		 call	 esi
  0011d	83 c4 0c	 add	 esp, 12			; 0000000cH

; 3295 : 	::WritePrivateProfileString("ExtInputBar","SaveJipyoOneFile",strTemp,strCfgFile);	

  00120	ff 75 ec	 push	 DWORD PTR _strCfgFile$[ebp]
  00123	ff 75 f0	 push	 DWORD PTR _strTemp$[ebp]
  00126	68 00 00 00 00	 push	 OFFSET ??_C@_0BB@GKDGIIFF@SaveJipyoOneFile@
  0012b	68 00 00 00 00	 push	 OFFSET ??_C@_0M@POCNEIHC@ExtInputBar@
  00130	ff d3		 call	 ebx

; 3296 : 	
; 3297 : 	//    - ojtaso (20080723)
; 3298 : 	strTemp.Format("%d", m_bChkSaveAnalTool);

  00132	ff b7 14 33 00
	00		 push	 DWORD PTR [edi+13076]
  00138	8d 45 f0	 lea	 eax, DWORD PTR _strTemp$[ebp]
  0013b	68 00 00 00 00	 push	 OFFSET ??_C@_02DPKJAMEF@?$CFd@
  00140	50		 push	 eax
  00141	ff d6		 call	 esi
  00143	83 c4 0c	 add	 esp, 12			; 0000000cH

; 3299 : 	::WritePrivateProfileString("ExtInputBar","AnalToolSave",strTemp,strCfgFile);	

  00146	ff 75 ec	 push	 DWORD PTR _strCfgFile$[ebp]
  00149	ff 75 f0	 push	 DWORD PTR _strTemp$[ebp]
  0014c	68 00 00 00 00	 push	 OFFSET ??_C@_0N@JLBABMHO@AnalToolSave@
  00151	68 00 00 00 00	 push	 OFFSET ??_C@_0M@POCNEIHC@ExtInputBar@
  00156	ff d3		 call	 ebx

; 3300 : 
; 3301 : // vntsorl:[0001250] [5001]  -           
; 3302 : 	//20110502  >>
; 3303 : 	strTemp.Format("%d", ::GetCommonDataInfo(GetSafeHwnd(), COMDATA_SAVE_JIPYO_PER_CODE_PERIOD, 0));

  00158	6a 00		 push	 0
  0015a	6a 00		 push	 0
  0015c	ff 77 20	 push	 DWORD PTR [edi+32]
  0015f	e8 00 00 00 00	 call	 ?GetCommonDataInfo@@YAHPAUHWND__@@HH@Z ; GetCommonDataInfo
  00164	50		 push	 eax
  00165	8d 45 f0	 lea	 eax, DWORD PTR _strTemp$[ebp]
  00168	68 00 00 00 00	 push	 OFFSET ??_C@_02DPKJAMEF@?$CFd@
  0016d	50		 push	 eax
  0016e	ff d6		 call	 esi
  00170	83 c4 18	 add	 esp, 24			; 00000018H

; 3304 : 	::WritePrivateProfileString("ExtInputBar", "SaveJipyoPerCodePeriod", strTemp, strCfgFile);

  00173	ff 75 ec	 push	 DWORD PTR _strCfgFile$[ebp]
  00176	ff 75 f0	 push	 DWORD PTR _strTemp$[ebp]
  00179	68 00 00 00 00	 push	 OFFSET ??_C@_0BH@NJOBJIAN@SaveJipyoPerCodePeriod@
  0017e	68 00 00 00 00	 push	 OFFSET ??_C@_0M@POCNEIHC@ExtInputBar@
  00183	ff d3		 call	 ebx

; 3305 : 	//20110502  <<
; 3306 : }

  00185	8d 4d f0	 lea	 ecx, DWORD PTR _strTemp$[ebp]
  00188	ff 15 00 00 00
	00		 call	 DWORD PTR __imp_??1?$CStringT@DV?$StrTraitMFC_DLL@DV?$ChTraitsCRT@D@ATL@@@@@ATL@@QAE@XZ
  0018e	8d 4d ec	 lea	 ecx, DWORD PTR _strCfgFile$[ebp]
  00191	ff 15 00 00 00
	00		 call	 DWORD PTR __imp_??1?$CStringT@DV?$StrTraitMFC_DLL@DV?$ChTraitsCRT@D@ATL@@@@@ATL@@QAE@XZ
  00197	8b 4d f4	 mov	 ecx, DWORD PTR __$EHRec$[ebp]
  0019a	64 89 0d 00 00
	00 00		 mov	 DWORD PTR fs:0, ecx
  001a1	59		 pop	 ecx
  001a2	5f		 pop	 edi
  001a3	5e		 pop	 esi
  001a4	5b		 pop	 ebx
  001a5	8b e5		 mov	 esp, ebp
  001a7	5d		 pop	 ebp
  001a8	c3		 ret	 0
_TEXT	ENDS
;	COMDAT text$x
text$x	SEGMENT
__unwindfunclet$?SaveExtInputBar@CExtInputBarDlg@@QAEXXZ$0:
  00000	8d 4d ec	 lea	 ecx, DWORD PTR _strCfgFile$[ebp]
  00003	ff 25 00 00 00
	00		 jmp	 DWORD PTR __imp_??1?$CStringT@DV?$StrTraitMFC_DLL@DV?$ChTraitsCRT@D@ATL@@@@@ATL@@QAE@XZ
__unwindfunclet$?SaveExtInputBar@CExtInputBarDlg@@QAEXXZ$1:
  00009	8d 4d f0	 lea	 ecx, DWORD PTR _strTemp$[ebp]
  0000c	ff 25 00 00 00
	00		 jmp	 DWORD PTR __imp_??1?$CStringT@DV?$StrTraitMFC_DLL@DV?$ChTraitsCRT@D@ATL@@@@@ATL@@QAE@XZ
  00012	cc		 int	 3
  00013	cc		 int	 3
  00014	cc		 int	 3
  00015	cc		 int	 3
  00016	cc		 int	 3
__ehhandler$?SaveExtInputBar@CExtInputBarDlg@@QAEXXZ:
  00017	90		 npad	 1
  00018	90		 npad	 1
  00019	8b 54 24 08	 mov	 edx, DWORD PTR [esp+8]
  0001d	8d 42 0c	 lea	 eax, DWORD PTR [edx+12]
  00020	8b 4a e8	 mov	 ecx, DWORD PTR [edx-24]
  00023	33 c8		 xor	 ecx, eax
  00025	e8 00 00 00 00	 call	 @__security_check_cookie@4
  0002a	b8 00 00 00 00	 mov	 eax, OFFSET __ehfuncinfo$?SaveExtInputBar@CExtInputBarDlg@@QAEXXZ
  0002f	e9 00 00 00 00	 jmp	 ___CxxFrameHandler3
text$x	ENDS
?SaveExtInputBar@CExtInputBarDlg@@QAEXXZ ENDP		; CExtInputBarDlg::SaveExtInputBar
; Function compile flags: /Ogtp
; File D:\git\src\IBK\IBK_DRFN\ProjSrc\SrcDrfn\Chart\MULTICHART\ExtInputBarDlg.cpp
; File C:\Program Files (x86)\Microsoft Visual Studio\2019\Community\VC\Tools\MSVC\14.29.30133\atlmfc\include\afxwin2.inl
; File D:\git\src\IBK\IBK_DRFN\ProjSrc\SrcDrfn\Chart\MULTICHART\ExtInputBarDlg.cpp
; File C:\Program Files (x86)\Microsoft Visual Studio\2019\Community\VC\Tools\MSVC\14.29.30133\atlmfc\include\afxwin1.inl
; File C:\Program Files (x86)\Microsoft Visual Studio\2019\Community\VC\Tools\MSVC\14.29.30133\atlmfc\include\afxwin2.inl
; File D:\git\src\IBK\IBK_DRFN\ProjSrc\SrcDrfn\Chart\MULTICHART\ExtInputBarDlg.cpp
;	COMDAT ?ChangeSkinColor@CExtInputBarDlg@@QAEXXZ
_TEXT	SEGMENT
?ChangeSkinColor@CExtInputBarDlg@@QAEXXZ PROC		; CExtInputBarDlg::ChangeSkinColor, COMDAT
; _this$ = ecx

; 3255 : {

  00000	56		 push	 esi
  00001	57		 push	 edi
  00002	8b f9		 mov	 edi, ecx
; File C:\Program Files (x86)\Microsoft Visual Studio\2019\Community\VC\Tools\MSVC\14.29.30133\atlmfc\include\afxwin2.inl

; 213  : 	{ ASSERT(::IsWindow(m_hWnd)); return CWnd::FromHandle(::GetParent(m_hWnd)); }

  00004	ff 77 20	 push	 DWORD PTR [edi+32]
  00007	ff 15 00 00 00
	00		 call	 DWORD PTR __imp__GetParent@4
  0000d	50		 push	 eax
  0000e	e8 00 00 00 00	 call	 ?FromHandle@CWnd@@SGPAV1@PAUHWND__@@@Z ; CWnd::FromHandle

; 32   : 	{ ASSERT(::IsWindow(m_hWnd)); return ::SendMessage(m_hWnd, message, wParam, lParam); }

  00013	6a 00		 push	 0
  00015	6a 00		 push	 0
  00017	ff 35 00 00 00
	00		 push	 DWORD PTR ?RMSG_GET_SKINCOLOR@@3IB
  0001d	ff 70 20	 push	 DWORD PTR [eax+32]
  00020	ff 15 00 00 00
	00		 call	 DWORD PTR __imp__SendMessageA@16
; File D:\git\src\IBK\IBK_DRFN\ProjSrc\SrcDrfn\Chart\MULTICHART\ExtInputBarDlg.cpp

; 3257 : 	m_brBkColor.DeleteObject();

  00026	8d 8f e8 32 00
	00		 lea	 ecx, DWORD PTR [edi+13032]
  0002c	89 87 f0 32 00
	00		 mov	 DWORD PTR [edi+13040], eax
  00032	e8 00 00 00 00	 call	 ?DeleteObject@CGdiObject@@QAEHXZ ; CGdiObject::DeleteObject
; File C:\Program Files (x86)\Microsoft Visual Studio\2019\Community\VC\Tools\MSVC\14.29.30133\atlmfc\include\afxwin1.inl

; 132  : 	{ return Attach(::CreateSolidBrush(crColor)); }

  00037	ff b7 f0 32 00
	00		 push	 DWORD PTR [edi+13040]
  0003d	ff 15 00 00 00
	00		 call	 DWORD PTR __imp__CreateSolidBrush@4
  00043	50		 push	 eax
  00044	8d 8f e8 32 00
	00		 lea	 ecx, DWORD PTR [edi+13032]
  0004a	e8 00 00 00 00	 call	 ?Attach@CGdiObject@@QAEHPAX@Z ; CGdiObject::Attach
; File C:\Program Files (x86)\Microsoft Visual Studio\2019\Community\VC\Tools\MSVC\14.29.30133\atlmfc\include\afxwin2.inl

; 114  : 	{ ASSERT(::IsWindow(m_hWnd)); ::InvalidateRect(m_hWnd, NULL, bErase); }

  0004f	6a 01		 push	 1
  00051	6a 00		 push	 0
  00053	ff 77 20	 push	 DWORD PTR [edi+32]
  00056	ff 15 00 00 00
	00		 call	 DWORD PTR __imp__InvalidateRect@12
  0005c	5f		 pop	 edi
  0005d	5e		 pop	 esi
; File D:\git\src\IBK\IBK_DRFN\ProjSrc\SrcDrfn\Chart\MULTICHART\ExtInputBarDlg.cpp

; 3260 : }

  0005e	c3		 ret	 0
?ChangeSkinColor@CExtInputBarDlg@@QAEXXZ ENDP		; CExtInputBarDlg::ChangeSkinColor
_TEXT	ENDS
; Function compile flags: /Ogtp
; File D:\git\src\IBK\IBK_DRFN\ProjSrc\SrcDrfn\Chart\MULTICHART\ExtInputBarDlg.cpp
;	COMDAT ?EnableQueryOpt@CExtInputBarDlg@@QAEXH@Z
_TEXT	SEGMENT
_bEnable$ = 8						; size = 4
?EnableQueryOpt@CExtInputBarDlg@@QAEXH@Z PROC		; CExtInputBarDlg::EnableQueryOpt, COMDAT
; _this$ = ecx

; 3249 : {

  00000	55		 push	 ebp
  00001	8b ec		 mov	 ebp, esp

; 3250 : 	m_chkQueryOpt.EnableWindow(bEnable);

  00003	81 c1 58 31 00
	00		 add	 ecx, 12632		; 00003158H

; 3251 : 
; 3252 : }

  00009	5d		 pop	 ebp

; 3250 : 	m_chkQueryOpt.EnableWindow(bEnable);

  0000a	e9 00 00 00 00	 jmp	 ?EnableWindow@CWnd@@QAEHH@Z ; CWnd::EnableWindow
?EnableQueryOpt@CExtInputBarDlg@@QAEXH@Z ENDP		; CExtInputBarDlg::EnableQueryOpt
_TEXT	ENDS
; Function compile flags: /Ogtp
; File D:\git\src\IBK\IBK_DRFN\ProjSrc\SrcDrfn\Chart\MULTICHART\ExtInputBarDlg.cpp
; File C:\Program Files (x86)\Microsoft Visual Studio\2019\Community\VC\Tools\MSVC\14.29.30133\atlmfc\include\afxwin2.inl
; File D:\git\src\IBK\IBK_DRFN\ProjSrc\SrcDrfn\Chart\MULTICHART\ExtInputBarDlg.cpp
;	COMDAT ?SetQueryOpt@CExtInputBarDlg@@QAEXH@Z
_TEXT	SEGMENT
_nCheck$ = 8						; size = 4
?SetQueryOpt@CExtInputBarDlg@@QAEXH@Z PROC		; CExtInputBarDlg::SetQueryOpt, COMDAT
; _this$ = ecx

; 3244 : {

  00000	55		 push	 ebp
  00001	8b ec		 mov	 ebp, esp
; File C:\Program Files (x86)\Microsoft Visual Studio\2019\Community\VC\Tools\MSVC\14.29.30133\atlmfc\include\afxwin2.inl

; 630  : 	{ ASSERT(::IsWindow(m_hWnd)); ::SendMessage(m_hWnd, BM_SETCHECK, nCheck, 0); }

  00003	6a 00		 push	 0
  00005	ff 75 08	 push	 DWORD PTR _nCheck$[ebp]
  00008	68 f1 00 00 00	 push	 241			; 000000f1H
  0000d	ff b1 78 31 00
	00		 push	 DWORD PTR [ecx+12664]
  00013	ff 15 00 00 00
	00		 call	 DWORD PTR __imp__SendMessageA@16
; File D:\git\src\IBK\IBK_DRFN\ProjSrc\SrcDrfn\Chart\MULTICHART\ExtInputBarDlg.cpp

; 3246 : }

  00019	5d		 pop	 ebp
  0001a	c2 04 00	 ret	 4
?SetQueryOpt@CExtInputBarDlg@@QAEXH@Z ENDP		; CExtInputBarDlg::SetQueryOpt
_TEXT	ENDS
; Function compile flags: /Ogtp
; File D:\git\src\IBK\IBK_DRFN\ProjSrc\SrcDrfn\Chart\MULTICHART\ExtInputBarDlg.cpp
; File C:\Program Files (x86)\Microsoft Visual Studio\2019\Community\VC\Tools\MSVC\14.29.30133\atlmfc\include\afxwin2.inl
; File D:\git\src\IBK\IBK_DRFN\ProjSrc\SrcDrfn\Chart\MULTICHART\ExtInputBarDlg.cpp
;	COMDAT ?GetQueryOpt@CExtInputBarDlg@@QAEHXZ
_TEXT	SEGMENT
?GetQueryOpt@CExtInputBarDlg@@QAEHXZ PROC		; CExtInputBarDlg::GetQueryOpt, COMDAT
; _this$ = ecx
; File C:\Program Files (x86)\Microsoft Visual Studio\2019\Community\VC\Tools\MSVC\14.29.30133\atlmfc\include\afxwin2.inl

; 628  : 	{ ASSERT(::IsWindow(m_hWnd)); return (int)::SendMessage(m_hWnd, BM_GETCHECK, 0, 0); }

  00000	6a 00		 push	 0
  00002	6a 00		 push	 0
  00004	68 f0 00 00 00	 push	 240			; 000000f0H
  00009	ff b1 78 31 00
	00		 push	 DWORD PTR [ecx+12664]
  0000f	ff 15 00 00 00
	00		 call	 DWORD PTR __imp__SendMessageA@16
; File D:\git\src\IBK\IBK_DRFN\ProjSrc\SrcDrfn\Chart\MULTICHART\ExtInputBarDlg.cpp

; 3241 : }

  00015	c3		 ret	 0
?GetQueryOpt@CExtInputBarDlg@@QAEHXZ ENDP		; CExtInputBarDlg::GetQueryOpt
_TEXT	ENDS
; Function compile flags: /Ogtp
; File D:\git\src\IBK\IBK_DRFN\ProjSrc\SrcDrfn\Chart\MULTICHART\ExtInputBarDlg.cpp
; File C:\Program Files (x86)\Microsoft Visual Studio\2019\Community\VC\Tools\MSVC\14.29.30133\atlmfc\include\afxwin2.inl
; File D:\git\src\IBK\IBK_DRFN\ProjSrc\SrcDrfn\Chart\MULTICHART\ExtInputBarDlg.cpp
;	COMDAT ?InitChartMulitItem@CExtInputBarDlg@@QAEXPAU_ST_SELCHART@@@Z
_TEXT	SEGMENT
_pSelChart$ = 8						; size = 4
?InitChartMulitItem@CExtInputBarDlg@@QAEXPAU_ST_SELCHART@@@Z PROC ; CExtInputBarDlg::InitChartMulitItem, COMDAT
; _this$ = ecx

; 3210 : {

  00000	55		 push	 ebp
  00001	8b ec		 mov	 ebp, esp

; 3211 : 	m_nYUnitType = pSelChart->m_nChartNumericValueType;

  00003	8b 45 08	 mov	 eax, DWORD PTR _pSelChart$[ebp]
  00006	56		 push	 esi
  00007	8b f1		 mov	 esi, ecx

; 3212 : 	switch(m_nYUnitType)

  00009	6a ff		 push	 -1
  0000b	8b 40 18	 mov	 eax, DWORD PTR [eax+24]
  0000e	89 86 d8 00 00
	00		 mov	 DWORD PTR [esi+216], eax
  00014	83 e8 00	 sub	 eax, 0
  00017	74 3d		 je	 SHORT $LN15@InitChartM
  00019	83 e8 01	 sub	 eax, 1
  0001c	74 1e		 je	 SHORT $LN5@InitChartM
  0001e	83 e8 01	 sub	 eax, 1
  00021	75 33		 jne	 SHORT $LN15@InitChartM

; 3220 : 	case DOLLAR_TYPE:
; 3221 : 		m_btYUnit.FP_vSetImage(m_pIL_W20H20_Tool, 16, 17, FALSE, "$", FALSE, 19);

  00023	6a 13		 push	 19			; 00000013H
  00025	50		 push	 eax
  00026	51		 push	 ecx
  00027	8b cc		 mov	 ecx, esp
  00029	68 00 00 00 00	 push	 OFFSET ??_C@_01EPMOAMKG@$@
  0002e	ff 15 00 00 00
	00		 call	 DWORD PTR __imp_??0?$CStringT@DV?$StrTraitMFC_DLL@DV?$ChTraitsCRT@D@ATL@@@@@ATL@@QAE@PBD@Z
  00034	6a 00		 push	 0
  00036	6a 11		 push	 17			; 00000011H
  00038	6a 10		 push	 16			; 00000010H

; 3222 : 		break;

  0003a	eb 32		 jmp	 SHORT $LN16@InitChartM
$LN5@InitChartM:

; 3213 : 	{
; 3214 : 	case WON_TYPE:
; 3215 : 		m_btYUnit.FP_vSetImage(m_pIL_W20H20_Tool, 12, 13, FALSE, "\\", FALSE, 15);
; 3216 : 		break;
; 3217 : 	case PERCENT_TYPE:
; 3218 : 		m_btYUnit.FP_vSetImage(m_pIL_W20H20_Tool, 20, 21, FALSE, "%", FALSE, 23);

  0003c	6a 17		 push	 23			; 00000017H
  0003e	6a 00		 push	 0
  00040	51		 push	 ecx
  00041	8b cc		 mov	 ecx, esp
  00043	68 00 00 00 00	 push	 OFFSET ??_C@_01FGNFDNOH@?$CF@
  00048	ff 15 00 00 00
	00		 call	 DWORD PTR __imp_??0?$CStringT@DV?$StrTraitMFC_DLL@DV?$ChTraitsCRT@D@ATL@@@@@ATL@@QAE@PBD@Z
  0004e	6a 00		 push	 0
  00050	6a 15		 push	 21			; 00000015H
  00052	6a 14		 push	 20			; 00000014H

; 3219 : 		break;

  00054	eb 18		 jmp	 SHORT $LN16@InitChartM
$LN15@InitChartM:
; File C:\Program Files (x86)\Microsoft Visual Studio\2019\Community\VC\Tools\MSVC\14.29.30133\atlmfc\include\afxwin2.inl

; 114  : 	{ ASSERT(::IsWindow(m_hWnd)); ::InvalidateRect(m_hWnd, NULL, bErase); }

  00056	6a 0f		 push	 15			; 0000000fH
  00058	6a 00		 push	 0
  0005a	51		 push	 ecx
  0005b	8b cc		 mov	 ecx, esp
  0005d	68 00 00 00 00	 push	 OFFSET ??_C@_01KICIPPFI@?2@
  00062	ff 15 00 00 00
	00		 call	 DWORD PTR __imp_??0?$CStringT@DV?$StrTraitMFC_DLL@DV?$ChTraitsCRT@D@ATL@@@@@ATL@@QAE@PBD@Z
  00068	6a 00		 push	 0
  0006a	6a 0d		 push	 13			; 0000000dH
  0006c	6a 0c		 push	 12			; 0000000cH
$LN16@InitChartM:
  0006e	ff b6 bc 00 00
	00		 push	 DWORD PTR [esi+188]
  00074	8d 8e 70 2f 00
	00		 lea	 ecx, DWORD PTR [esi+12144]
  0007a	e8 00 00 00 00	 call	 ?FP_vSetImage@CILButton@@QAEXPAVCImageList@@HHHV?$CStringT@DV?$StrTraitMFC_DLL@DV?$ChTraitsCRT@D@ATL@@@@@ATL@@HHH@Z ; CILButton::FP_vSetImage
  0007f	6a 01		 push	 1
  00081	6a 00		 push	 0
  00083	ff b6 90 2f 00
	00		 push	 DWORD PTR [esi+12176]
  00089	ff 15 00 00 00
	00		 call	 DWORD PTR __imp__InvalidateRect@12
; File D:\git\src\IBK\IBK_DRFN\ProjSrc\SrcDrfn\Chart\MULTICHART\ExtInputBarDlg.cpp

; 3228 : }

  0008f	5e		 pop	 esi
  00090	5d		 pop	 ebp
  00091	c2 04 00	 ret	 4
?InitChartMulitItem@CExtInputBarDlg@@QAEXPAU_ST_SELCHART@@@Z ENDP ; CExtInputBarDlg::InitChartMulitItem
_TEXT	ENDS
; Function compile flags: /Ogtp
; File D:\git\src\IBK\IBK_DRFN\ProjSrc\SrcDrfn\Chart\MULTICHART\ExtInputBarDlg.cpp
;	COMDAT ?SetCheckRevised@CExtInputBarDlg@@QAEXH@Z
_TEXT	SEGMENT
_bRevised$ = 8						; size = 4
?SetCheckRevised@CExtInputBarDlg@@QAEXH@Z PROC		; CExtInputBarDlg::SetCheckRevised, COMDAT
; _this$ = ecx

; 2156 : {

  00000	55		 push	 ebp
  00001	8b ec		 mov	 ebp, esp

; 2157 : 	m_bChkRevised = bRevised;

  00003	8b 45 08	 mov	 eax, DWORD PTR _bRevised$[ebp]
  00006	89 81 68 2f 00
	00		 mov	 DWORD PTR [ecx+12136], eax

; 2158 : 	UpdateData(FALSE);

  0000c	c7 45 08 00 00
	00 00		 mov	 DWORD PTR _bRevised$[ebp], 0

; 2159 : }

  00013	5d		 pop	 ebp

; 2158 : 	UpdateData(FALSE);

  00014	e9 00 00 00 00	 jmp	 ?UpdateData@CWnd@@QAEHH@Z ; CWnd::UpdateData
?SetCheckRevised@CExtInputBarDlg@@QAEXH@Z ENDP		; CExtInputBarDlg::SetCheckRevised
_TEXT	ENDS
; Function compile flags: /Ogtp
; File D:\git\src\IBK\IBK_DRFN\ProjSrc\SrcDrfn\Chart\MULTICHART\ExtInputBarDlg.cpp
;	COMDAT ?ChangeStatusDateControl@CExtInputBarDlg@@QAEXH@Z
_TEXT	SEGMENT
_nDataType$ = 8						; size = 4
?ChangeStatusDateControl@CExtInputBarDlg@@QAEXH@Z PROC	; CExtInputBarDlg::ChangeStatusDateControl, COMDAT
; _this$ = ecx

; 2186 : {

  00000	55		 push	 ebp
  00001	8b ec		 mov	 ebp, esp

; 2187 : 	m_nDataType = nDataType;

  00003	8b 45 08	 mov	 eax, DWORD PTR _nDataType$[ebp]
  00006	53		 push	 ebx
  00007	56		 push	 esi
  00008	8b f1		 mov	 esi, ecx
  0000a	57		 push	 edi
  0000b	89 86 d8 31 00
	00		 mov	 DWORD PTR [esi+12760], eax

; 2188 : 	BOOL bEnable = TRUE;
; 2189 : 	char a = nDataType + '0';
; 2190 : 	//char cType[1];
; 2191 : 	//itoa(nDataType, cType, 10);
; 2192 : 
; 2193 : 	if(
; 2194 : 		( a == TICK_DATA_CHART) ||
; 2195 : 		( a == SEC_DATA_CHART) ||

  00011	84 c0		 test	 al, al
  00013	74 10		 je	 SHORT $LN3@ChangeStat
  00015	3c 06		 cmp	 al, 6
  00017	74 0c		 je	 SHORT $LN3@ChangeStat
  00019	3c 01		 cmp	 al, 1
  0001b	74 08		 je	 SHORT $LN3@ChangeStat

; 2196 : 		( a == MIN_DATA_CHART )
; 2197 : 		)
; 2198 : 
; 2199 : 	m_btnStartDate	.EnableWindow(bEnable);

  0001d	8d be 68 12 00
	00		 lea	 edi, DWORD PTR [esi+4712]
  00023	eb 0f		 jmp	 SHORT $LN2@ChangeStat
$LN3@ChangeStat:
  00025	8d be 68 12 00
	00		 lea	 edi, DWORD PTR [esi+4712]
  0002b	6a 01		 push	 1
  0002d	8b cf		 mov	 ecx, edi
  0002f	e8 00 00 00 00	 call	 ?EnableWindow@CWnd@@QAEHH@Z ; CWnd::EnableWindow
$LN2@ChangeStat:

; 2200 : 	m_btnEndDate	.EnableWindow(bEnable);

  00034	6a 01		 push	 1
  00036	8d 8e c8 13 00
	00		 lea	 ecx, DWORD PTR [esi+5064]
  0003c	e8 00 00 00 00	 call	 ?EnableWindow@CWnd@@QAEHH@Z ; CWnd::EnableWindow

; 2201 : 	//m_datePicker	.EnableWindow(bEnable);		
; 2202 : //@
; 2203 : //	if(m_datePicker.GetEnabled() == !bEnable)
; 2204 : //		m_datePicker.SetEnabled(bEnable);		
; 2205 : //@
; 2206 : //@
; 2207 : 	if(m_datePicker.IsWindowEnabled() == !bEnable)

  00041	8d 8e e0 00 00
	00		 lea	 ecx, DWORD PTR [esi+224]
  00047	e8 00 00 00 00	 call	 ?IsWindowEnabled@CWnd@@QBEHXZ ; CWnd::IsWindowEnabled
  0004c	85 c0		 test	 eax, eax
  0004e	75 0d		 jne	 SHORT $LN4@ChangeStat

; 2208 : 		m_datePicker.EnableWindow(bEnable);		

  00050	6a 01		 push	 1
  00052	8d 8e e0 00 00
	00		 lea	 ecx, DWORD PTR [esi+224]
  00058	e8 00 00 00 00	 call	 ?EnableWindow@CWnd@@QAEHH@Z ; CWnd::EnableWindow
$LN4@ChangeStat:

; 2209 : //@
; 2210 : 
; 2211 : 	m_btnStartDate.SetWindowText("");	

  0005d	68 00 00 00 00	 push	 OFFSET ??_C@_02MEGIOJNB@?$KC?$LK@
  00062	8b cf		 mov	 ecx, edi
  00064	e8 00 00 00 00	 call	 ?SetWindowTextA@CWnd@@QAEXPBD@Z ; CWnd::SetWindowTextA

; 2212 : 	m_btnEndDate.SetWindowText("");

  00069	68 00 00 00 00	 push	 OFFSET ??_C@_02PGFOILFD@?$KC?$LI@
  0006e	8d 8e c8 13 00
	00		 lea	 ecx, DWORD PTR [esi+5064]
  00074	e8 00 00 00 00	 call	 ?SetWindowTextA@CWnd@@QAEXPBD@Z ; CWnd::SetWindowTextA
  00079	5f		 pop	 edi
  0007a	5e		 pop	 esi
  0007b	5b		 pop	 ebx

; 2213 : }

  0007c	5d		 pop	 ebp
  0007d	c2 04 00	 ret	 4
?ChangeStatusDateControl@CExtInputBarDlg@@QAEXH@Z ENDP	; CExtInputBarDlg::ChangeStatusDateControl
_TEXT	ENDS
; Function compile flags: /Ogtp
; File D:\git\src\IBK\IBK_DRFN\ProjSrc\SrcDrfn\Chart\MULTICHART\ExtInputBarDlg.cpp
; File C:\Program Files (x86)\Microsoft Visual Studio\2019\Community\VC\Tools\MSVC\14.29.30133\atlmfc\include\afxwin2.inl
; File D:\git\src\IBK\IBK_DRFN\ProjSrc\SrcDrfn\Chart\MULTICHART\ExtInputBarDlg.cpp
; File C:\Program Files (x86)\Microsoft Visual Studio\2019\Community\VC\Tools\MSVC\14.29.30133\atlmfc\include\afxwin2.inl
; File D:\git\src\IBK\IBK_DRFN\ProjSrc\SrcDrfn\Chart\MULTICHART\ExtInputBarDlg.cpp
; File C:\Program Files (x86)\Microsoft Visual Studio\2019\Community\VC\Tools\MSVC\14.29.30133\atlmfc\include\cstringt.h
; File D:\git\src\IBK\IBK_DRFN\ProjSrc\SrcDrfn\Chart\MULTICHART\ExtInputBarDlg.cpp
; File C:\Program Files (x86)\Microsoft Visual Studio\2019\Community\VC\Tools\MSVC\14.29.30133\atlmfc\include\afxwin2.inl
; File D:\git\src\IBK\IBK_DRFN\ProjSrc\SrcDrfn\Chart\MULTICHART\ExtInputBarDlg.cpp
; File C:\Program Files (x86)\Microsoft Visual Studio\2019\Community\VC\Tools\MSVC\14.29.30133\atlmfc\include\afxwin2.inl
; File D:\git\src\IBK\IBK_DRFN\ProjSrc\SrcDrfn\Chart\MULTICHART\ExtInputBarDlg.cpp
; File C:\Program Files (x86)\Microsoft Visual Studio\2019\Community\VC\Tools\MSVC\14.29.30133\atlmfc\include\afxdtctl.inl
; File D:\git\src\IBK\IBK_DRFN\ProjSrc\SrcDrfn\Chart\MULTICHART\ExtInputBarDlg.cpp
; File C:\Program Files (x86)\Microsoft Visual Studio\2019\Community\VC\Tools\MSVC\14.29.30133\atlmfc\include\afxwin2.inl
; File D:\git\src\IBK\IBK_DRFN\ProjSrc\SrcDrfn\Chart\MULTICHART\ExtInputBarDlg.cpp
; File C:\Program Files (x86)\Microsoft Visual Studio\2019\Community\VC\Tools\MSVC\14.29.30133\atlmfc\include\atlsimpstr.h
; File D:\git\src\IBK\IBK_DRFN\ProjSrc\SrcDrfn\Chart\MULTICHART\ExtInputBarDlg.cpp
; File C:\Program Files (x86)\Microsoft Visual Studio\2019\Community\VC\Tools\MSVC\14.29.30133\atlmfc\include\atlsimpstr.h
; File D:\git\src\IBK\IBK_DRFN\ProjSrc\SrcDrfn\Chart\MULTICHART\ExtInputBarDlg.cpp
; File C:\Program Files (x86)\Microsoft Visual Studio\2019\Community\VC\Tools\MSVC\14.29.30133\atlmfc\include\atltime.h
; File D:\git\src\IBK\IBK_DRFN\ProjSrc\SrcDrfn\Chart\MULTICHART\ExtInputBarDlg.cpp
; File C:\Program Files (x86)\Microsoft Visual Studio\2019\Community\VC\Tools\MSVC\14.29.30133\atlmfc\include\atltime.h
; File D:\git\src\IBK\IBK_DRFN\ProjSrc\SrcDrfn\Chart\MULTICHART\ExtInputBarDlg.cpp
; File C:\Program Files (x86)\Microsoft Visual Studio\2019\Community\VC\Tools\MSVC\14.29.30133\atlmfc\include\atltime.h
; File D:\git\src\IBK\IBK_DRFN\ProjSrc\SrcDrfn\Chart\MULTICHART\ExtInputBarDlg.cpp
; File C:\Program Files (x86)\Microsoft Visual Studio\2019\Community\VC\Tools\MSVC\14.29.30133\atlmfc\include\atltime.h
; File D:\git\src\IBK\IBK_DRFN\ProjSrc\SrcDrfn\Chart\MULTICHART\ExtInputBarDlg.cpp
; File C:\Program Files (x86)\Microsoft Visual Studio\2019\Community\VC\Tools\MSVC\14.29.30133\atlmfc\include\afxwin2.inl
; File D:\git\src\IBK\IBK_DRFN\ProjSrc\SrcDrfn\Chart\MULTICHART\ExtInputBarDlg.cpp
; File C:\Program Files (x86)\Microsoft Visual Studio\2019\Community\VC\Tools\MSVC\14.29.30133\atlmfc\include\afxwin2.inl
; File D:\git\src\IBK\IBK_DRFN\ProjSrc\SrcDrfn\Chart\MULTICHART\ExtInputBarDlg.cpp
; File C:\Program Files (x86)\Microsoft Visual Studio\2019\Community\VC\Tools\MSVC\14.29.30133\atlmfc\include\afxwin2.inl
; File D:\git\src\IBK\IBK_DRFN\ProjSrc\SrcDrfn\Chart\MULTICHART\ExtInputBarDlg.cpp
; File C:\Program Files (x86)\Microsoft Visual Studio\2019\Community\VC\Tools\MSVC\14.29.30133\atlmfc\include\afxwin2.inl
; File D:\git\src\IBK\IBK_DRFN\ProjSrc\SrcDrfn\Chart\MULTICHART\ExtInputBarDlg.cpp
; File C:\Program Files (x86)\Microsoft Visual Studio\2019\Community\VC\Tools\MSVC\14.29.30133\atlmfc\include\afxwin2.inl
; File D:\git\src\IBK\IBK_DRFN\ProjSrc\SrcDrfn\Chart\MULTICHART\ExtInputBarDlg.cpp
; File C:\Program Files (x86)\Microsoft Visual Studio\2019\Community\VC\Tools\MSVC\14.29.30133\atlmfc\include\afxwin2.inl
; File D:\git\src\IBK\IBK_DRFN\ProjSrc\SrcDrfn\Chart\MULTICHART\ExtInputBarDlg.cpp
; File C:\Program Files (x86)\Microsoft Visual Studio\2019\Community\VC\Tools\MSVC\14.29.30133\atlmfc\include\afxwin2.inl
; File D:\git\src\IBK\IBK_DRFN\ProjSrc\SrcDrfn\Chart\MULTICHART\ExtInputBarDlg.cpp
;	COMDAT ?WindowProc@CExtInputBarDlg@@MAEJIIJ@Z
_TEXT	SEGMENT
_wParam$GSCopy$1$ = -44					; size = 4
_szDebug$2 = -40					; size = 4
_strOrgBy$3 = -40					; size = 4
$T4 = -36						; size = 4
$T5 = -36						; size = 4
_strComment$6 = -36					; size = 4
_strBy$7 = -36						; size = 4
_tm$8 = -32						; size = 16
_currentTime$9 = -24					; size = 8
_currentTime$10 = -24					; size = 8
__$ArrayPad$ = -16					; size = 4
__$EHRec$ = -12						; size = 12
_message$ = 8						; size = 4
_wParam$ = 12						; size = 4
_lParam$ = 16						; size = 4
?WindowProc@CExtInputBarDlg@@MAEJIIJ@Z PROC		; CExtInputBarDlg::WindowProc, COMDAT
; _this$ = ecx

; 683  : {

  00000	55		 push	 ebp
  00001	8b ec		 mov	 ebp, esp
  00003	6a ff		 push	 -1
  00005	68 00 00 00 00	 push	 __ehhandler$?WindowProc@CExtInputBarDlg@@MAEJIIJ@Z
  0000a	64 a1 00 00 00
	00		 mov	 eax, DWORD PTR fs:0
  00010	50		 push	 eax
  00011	83 ec 20	 sub	 esp, 32			; 00000020H
  00014	a1 00 00 00 00	 mov	 eax, DWORD PTR ___security_cookie
  00019	33 c5		 xor	 eax, ebp
  0001b	89 45 f0	 mov	 DWORD PTR __$ArrayPad$[ebp], eax
  0001e	53		 push	 ebx
  0001f	56		 push	 esi
  00020	57		 push	 edi
  00021	50		 push	 eax
  00022	8d 45 f4	 lea	 eax, DWORD PTR __$EHRec$[ebp]
  00025	64 a3 00 00 00
	00		 mov	 DWORD PTR fs:0, eax
  0002b	8b f9		 mov	 edi, ecx

; 684  : 	switch(message)

  0002d	8b 45 08	 mov	 eax, DWORD PTR _message$[ebp]
  00030	8b 75 0c	 mov	 esi, DWORD PTR _wParam$[ebp]
  00033	8b 5d 10	 mov	 ebx, DWORD PTR _lParam$[ebp]
  00036	89 75 d4	 mov	 DWORD PTR _wParam$GSCopy$1$[ebp], esi
  00039	3d 3a 07 00 00	 cmp	 eax, 1850		; 0000073aH
  0003e	0f 87 e3 08 00
	00		 ja	 $LN83@WindowProc
  00044	0f 84 95 08 00
	00		 je	 $LN78@WindowProc
  0004a	05 f7 fb ff ff	 add	 eax, -1033		; fffffbf7H
  0004f	3d c7 00 00 00	 cmp	 eax, 199		; 000000c7H
  00054	0f 87 cd 08 00
	00		 ja	 $LN83@WindowProc
  0005a	0f b6 80 00 00
	00 00		 movzx	 eax, BYTE PTR $LN185@WindowProc[eax]
  00061	ff 24 85 00 00
	00 00		 jmp	 DWORD PTR $LN186@WindowProc[eax*4]
$LN4@WindowProc:

; 685  : 	{
; 686  : 	case UMSG_UPDATEMATRIX:
; 687  : 		{
; 688  : 			if(wParam*lParam>20)

  00068	8b c3		 mov	 eax, ebx
  0006a	0f af c6	 imul	 eax, esi
  0006d	83 f8 14	 cmp	 eax, 20			; 00000014H
  00070	76 16		 jbe	 SHORT $LN5@WindowProc

; 689  : 			{
; 690  : 				MessageBox("  20 .",DLLTITLENAME);

  00072	6a 00		 push	 0
  00074	68 00 00 00 00	 push	 OFFSET ??_C@_08BDLNPKGG@?A?$LO?G?U?B?w?F?$KO@
  00079	68 00 00 00 00	 push	 OFFSET ??_C@_0CF@PONHIKH@?B?w?F?$KO?$MA?G?5?$LM?v?$LI?$KG?520?$LA?$LD?$MA?L?G?O?$LH?N?5?G?O?$LP?$KJ?A?V?$LN?J@
  0007e	e8 00 00 00 00	 call	 ?MessageBoxA@CWnd@@QAEHPBD0I@Z ; CWnd::MessageBoxA

; 691  : 			}

  00083	e9 9f 08 00 00	 jmp	 $LN83@WindowProc
$LN5@WindowProc:

; 692  : 			else if(wParam!=m_lCols||lParam!=m_lRows)

  00088	3b b7 fc 32 00
	00		 cmp	 esi, DWORD PTR [edi+13052]
  0008e	75 0c		 jne	 SHORT $LN8@WindowProc
  00090	3b 9f f8 32 00
	00		 cmp	 ebx, DWORD PTR [edi+13048]
  00096	0f 84 8b 08 00
	00		 je	 $LN83@WindowProc
$LN8@WindowProc:

; 696  : 				if(m_pChartMng->GetSafeHwnd())

  0009c	8b 87 00 33 00
	00		 mov	 eax, DWORD PTR [edi+13056]
  000a2	89 b7 fc 32 00
	00		 mov	 DWORD PTR [edi+13052], esi
  000a8	89 9f f8 32 00
	00		 mov	 DWORD PTR [edi+13048], ebx
; File C:\Program Files (x86)\Microsoft Visual Studio\2019\Community\VC\Tools\MSVC\14.29.30133\atlmfc\include\afxwin2.inl

; 25   : 	{ return this == NULL ? NULL : m_hWnd; }

  000ae	85 c0		 test	 eax, eax
  000b0	0f 84 71 08 00
	00		 je	 $LN83@WindowProc
  000b6	8b 40 20	 mov	 eax, DWORD PTR [eax+32]
; File D:\git\src\IBK\IBK_DRFN\ProjSrc\SrcDrfn\Chart\MULTICHART\ExtInputBarDlg.cpp

; 696  : 				if(m_pChartMng->GetSafeHwnd())

  000b9	85 c0		 test	 eax, eax
  000bb	0f 84 66 08 00
	00		 je	 $LN83@WindowProc
; File C:\Program Files (x86)\Microsoft Visual Studio\2019\Community\VC\Tools\MSVC\14.29.30133\atlmfc\include\afxwin2.inl

; 32   : 	{ ASSERT(::IsWindow(m_hWnd)); return ::SendMessage(m_hWnd, message, wParam, lParam); }

  000c1	56		 push	 esi
  000c2	53		 push	 ebx
  000c3	68 0b 04 00 00	 push	 1035			; 0000040bH
  000c8	50		 push	 eax
  000c9	ff 15 00 00 00
	00		 call	 DWORD PTR __imp__SendMessageA@16
; File D:\git\src\IBK\IBK_DRFN\ProjSrc\SrcDrfn\Chart\MULTICHART\ExtInputBarDlg.cpp

; 729  : 		break;

  000cf	e9 53 08 00 00	 jmp	 $LN83@WindowProc
$LN10@WindowProc:

; 730  : 	case UMSG_SETMATRIX:
; 731  : 		{
; 732  : 			m_lRows = wParam;
; 733  : 			m_lCols = lParam;
; 734  : 			CString strBy;

  000d4	8d 4d dc	 lea	 ecx, DWORD PTR _strBy$7[ebp]
  000d7	89 b7 f8 32 00
	00		 mov	 DWORD PTR [edi+13048], esi
  000dd	89 9f fc 32 00
	00		 mov	 DWORD PTR [edi+13052], ebx
  000e3	ff 15 00 00 00
	00		 call	 DWORD PTR __imp_??0?$CStringT@DV?$StrTraitMFC_DLL@DV?$ChTraitsCRT@D@ATL@@@@@ATL@@QAE@XZ

; 735  : 			strBy.Format("%2d X%2d",m_lCols,m_lRows);

  000e9	ff b7 f8 32 00
	00		 push	 DWORD PTR [edi+13048]
  000ef	8d 45 dc	 lea	 eax, DWORD PTR _strBy$7[ebp]
  000f2	c7 45 fc 00 00
	00 00		 mov	 DWORD PTR __$EHRec$[ebp+8], 0
  000f9	ff b7 fc 32 00
	00		 push	 DWORD PTR [edi+13052]
  000ff	68 00 00 00 00	 push	 OFFSET ??_C@_08NHNMFBCG@?$CF2d?5X?$CF2d@
  00104	50		 push	 eax
  00105	ff 15 00 00 00
	00		 call	 DWORD PTR __imp_?Format@?$CStringT@DV?$StrTraitMFC_DLL@DV?$ChTraitsCRT@D@ATL@@@@@ATL@@QAAXPBDZZ
  0010b	83 c4 10	 add	 esp, 16			; 00000010H

; 736  : 			//2007.01.13 by LYH 1*1
; 737  : 			CString strOrgBy;

  0010e	8d 4d d8	 lea	 ecx, DWORD PTR _strOrgBy$3[ebp]
  00111	ff 15 00 00 00
	00		 call	 DWORD PTR __imp_??0?$CStringT@DV?$StrTraitMFC_DLL@DV?$ChTraitsCRT@D@ATL@@@@@ATL@@QAE@XZ

; 738  : 			m_stBy.GetWindowText(strOrgBy);

  00117	8d 45 d8	 lea	 eax, DWORD PTR _strOrgBy$3[ebp]
  0011a	c6 45 fc 01	 mov	 BYTE PTR __$EHRec$[ebp+8], 1
  0011e	50		 push	 eax
  0011f	8d 8f 88 2c 00
	00		 lea	 ecx, DWORD PTR [edi+11400]
  00125	e8 00 00 00 00	 call	 ?GetWindowTextA@CWnd@@QBEXAAV?$CStringT@DV?$StrTraitMFC_DLL@DV?$ChTraitsCRT@D@ATL@@@@@ATL@@@Z ; CWnd::GetWindowTextA
; File C:\Program Files (x86)\Microsoft Visual Studio\2019\Community\VC\Tools\MSVC\14.29.30133\atlmfc\include\cstringt.h

; 2560 : 		return( str1.Compare( str2 ) != 0 );

  0012a	ff 75 d8	 push	 DWORD PTR _strOrgBy$3[ebp]
  0012d	8d 4d dc	 lea	 ecx, DWORD PTR _strBy$7[ebp]
  00130	ff 15 00 00 00
	00		 call	 DWORD PTR __imp_?Compare@?$CStringT@DV?$StrTraitMFC_DLL@DV?$ChTraitsCRT@D@ATL@@@@@ATL@@QBEHPBD@Z
  00136	85 c0		 test	 eax, eax
; File D:\git\src\IBK\IBK_DRFN\ProjSrc\SrcDrfn\Chart\MULTICHART\ExtInputBarDlg.cpp

; 739  : 			if(strBy != strOrgBy)

  00138	74 46		 je	 SHORT $LN15@WindowProc

; 740  : 			{
; 741  : 				if(m_lRows==1 && m_lCols==1 )

  0013a	83 bf f8 32 00
	00 01		 cmp	 DWORD PTR [edi+13048], 1
  00141	75 5c		 jne	 SHORT $LN12@WindowProc
  00143	83 bf fc 32 00
	00 01		 cmp	 DWORD PTR [edi+13052], 1
  0014a	75 53		 jne	 SHORT $LN12@WindowProc

; 742  : 				{
; 743  : 					m_chkTypeLink.EnableWindow(FALSE);

  0014c	6a 00		 push	 0
  0014e	8d 8f c8 29 00
	00		 lea	 ecx, DWORD PTR [edi+10696]
  00154	e8 00 00 00 00	 call	 ?EnableWindow@CWnd@@QAEHH@Z ; CWnd::EnableWindow

; 744  : 					m_chkJongmokLink.EnableWindow(FALSE);

  00159	6a 00		 push	 0
  0015b	8d 8f 48 24 00
	00		 lea	 ecx, DWORD PTR [edi+9288]
  00161	e8 00 00 00 00	 call	 ?EnableWindow@CWnd@@QAEHH@Z ; CWnd::EnableWindow

; 745  : 					m_btFixPeriod.EnableWindow(FALSE);

  00166	6a 00		 push	 0
  00168	8d 8f 28 15 00
	00		 lea	 ecx, DWORD PTR [edi+5416]
  0016e	e8 00 00 00 00	 call	 ?EnableWindow@CWnd@@QAEHH@Z ; CWnd::EnableWindow
$LN14@WindowProc:

; 765  : 					else
; 766  : 					{
; 767  : 						m_chkUpdateIndex.EnableWindow(FALSE);
; 768  : 					}
; 769  : 				}
; 770  : 			}
; 771  : 			m_stBy.SetWindowText(strBy);

  00173	6a 00		 push	 0
$LN189@WindowProc:
  00175	8d 8f c8 0d 00
	00		 lea	 ecx, DWORD PTR [edi+3528]
  0017b	e8 00 00 00 00	 call	 ?EnableWindow@CWnd@@QAEHH@Z ; CWnd::EnableWindow
$LN15@WindowProc:
  00180	ff 75 dc	 push	 DWORD PTR _strBy$7[ebp]
  00183	8d 8f 88 2c 00
	00		 lea	 ecx, DWORD PTR [edi+11400]
  00189	e8 00 00 00 00	 call	 ?SetWindowTextA@CWnd@@QAEXPBD@Z ; CWnd::SetWindowTextA

; 772  : 		}

  0018e	8d 4d d8	 lea	 ecx, DWORD PTR _strOrgBy$3[ebp]
  00191	ff 15 00 00 00
	00		 call	 DWORD PTR __imp_??1?$CStringT@DV?$StrTraitMFC_DLL@DV?$ChTraitsCRT@D@ATL@@@@@ATL@@QAE@XZ
  00197	8d 4d dc	 lea	 ecx, DWORD PTR _strBy$7[ebp]

; 773  : 		break;

  0019a	e9 7b 07 00 00	 jmp	 $LN190@WindowProc
$LN12@WindowProc:

; 746  : 					m_chkUpdateIndex.EnableWindow(FALSE);
; 747  : 				}
; 748  : 				else
; 749  : 				{
; 750  : 					m_chkTypeLink.EnableWindow(TRUE);

  0019f	6a 01		 push	 1
  001a1	8d 8f c8 29 00
	00		 lea	 ecx, DWORD PTR [edi+10696]
  001a7	e8 00 00 00 00	 call	 ?EnableWindow@CWnd@@QAEHH@Z ; CWnd::EnableWindow

; 751  : 					m_chkJongmokLink.EnableWindow(TRUE);

  001ac	6a 01		 push	 1
  001ae	8d 8f 48 24 00
	00		 lea	 ecx, DWORD PTR [edi+9288]
  001b4	e8 00 00 00 00	 call	 ?EnableWindow@CWnd@@QAEHH@Z ; CWnd::EnableWindow

; 752  : 					m_btFixPeriod.EnableWindow(TRUE);

  001b9	6a 01		 push	 1
  001bb	8d 8f 28 15 00
	00		 lea	 ecx, DWORD PTR [edi+5416]
  001c1	e8 00 00 00 00	 call	 ?EnableWindow@CWnd@@QAEHH@Z ; CWnd::EnableWindow

; 753  : 
; 754  : 					//@Solomon-100121     .
; 755  : 					CChartItem* pChtItem = ((CChartMng*)m_pChartMng)->GetpChartItemSelected();

  001c6	8b 8f 00 33 00
	00		 mov	 ecx, DWORD PTR [edi+13056]
  001cc	e8 00 00 00 00	 call	 ?GetpChartItemSelected@CChartMng@@QAEPAVCChartItem@@XZ ; CChartMng::GetpChartItemSelected

; 756  : 					if(pChtItem)

  001d1	85 c0		 test	 eax, eax
  001d3	74 9e		 je	 SHORT $LN14@WindowProc

; 757  : 					{
; 758  : 						if(pChtItem->GetRQCount() == 1)

  001d5	8b c8		 mov	 ecx, eax
  001d7	e8 00 00 00 00	 call	 ?GetRQCount@CChartItem@@QAEHXZ ; CChartItem::GetRQCount
  001dc	83 f8 01	 cmp	 eax, 1
  001df	75 9f		 jne	 SHORT $LN15@WindowProc

; 759  : 							m_chkUpdateIndex.EnableWindow(TRUE);

  001e1	50		 push	 eax

; 760  : // 						else
; 761  : // 						{
; 762  : // 							m_chkUpdateIndex.EnableWindow(FALSE);
; 763  : // 						}
; 764  : 					}

  001e2	eb 91		 jmp	 SHORT $LN189@WindowProc
$LN17@WindowProc:

; 774  : 	case UMSG_CLEARLINK:
; 775  : 		{
; 776  : 			ClearLink();

  001e4	e8 00 00 00 00	 call	 ?ClearLink@CExtInputBarDlg@@AAEXXZ ; CExtInputBarDlg::ClearLink

; 777  : 		}
; 778  : 		break;

  001e9	e9 39 07 00 00	 jmp	 $LN83@WindowProc
$LN18@WindowProc:

; 779  : 	case UMSG_SETJONGMOKLINK:
; 780  : 		{
; 781  : 			m_chkJongmokLink.SetCheck(wParam);

  001ee	56		 push	 esi
  001ef	8d 8f 48 24 00
	00		 lea	 ecx, DWORD PTR [edi+9288]
  001f5	e8 00 00 00 00	 call	 ?SetCheck@CILButton@@QAEXH@Z ; CILButton::SetCheck

; 782  : 		}
; 783  : 		break;

  001fa	e9 28 07 00 00	 jmp	 $LN83@WindowProc
$LN19@WindowProc:

; 784  : 	case UMSG_GETSAVED:
; 785  : 		{
; 786  : 			if(m_nSave==SAVE_TRUE)

  001ff	83 bf 08 33 00
	00 01		 cmp	 DWORD PTR [edi+13064], 1
  00206	75 35		 jne	 SHORT $LN25@WindowProc

; 787  : 			{
; 788  : 				return TRUE;

  00208	b8 01 00 00 00	 mov	 eax, 1
  0020d	e9 23 07 00 00	 jmp	 $LN1@WindowProc
$LN21@WindowProc:

; 789  : 			}
; 790  : 			return FALSE;
; 791  : 		}
; 792  : 		break;
; 793  : 	case UMSG_GETJONGMOKLINK:
; 794  : 		{
; 795  : 			return (long)(m_chkJongmokLink.GetCheck());

  00212	8d 8f 48 24 00
	00		 lea	 ecx, DWORD PTR [edi+9288]
  00218	e8 00 00 00 00	 call	 ?GetCheck@CILButton@@QAEHXZ ; CILButton::GetCheck
  0021d	e9 13 07 00 00	 jmp	 $LN1@WindowProc
$LN22@WindowProc:

; 796  : 		}
; 797  : 		break;
; 798  : 	//    - ojtaso (20080723)
; 799  : 	case UMSG_GETSAVEJIPYOONEFILE:
; 800  : 		{
; 801  : 			if(wParam == 100)

  00222	83 fe 64	 cmp	 esi, 100		; 00000064H
  00225	75 0b		 jne	 SHORT $LN23@WindowProc

; 802  : 				return (long)(m_bChkSaveAnalTool);

  00227	8b 87 14 33 00
	00		 mov	 eax, DWORD PTR [edi+13076]
  0022d	e9 03 07 00 00	 jmp	 $LN1@WindowProc
$LN23@WindowProc:

; 803  : 			else
; 804  : 				return (long)(m_bChkSaveJipyoOneFile);

  00232	8b 87 20 33 00
	00		 mov	 eax, DWORD PTR [edi+13088]
  00238	e9 f8 06 00 00	 jmp	 $LN1@WindowProc
$LN25@WindowProc:

; 805  : 		}
; 806  : 		break;
; 807  : 	case UMSG_GETENVSINK:
; 808  : 		{
; 809  : 			return (long)0;

  0023d	33 c0		 xor	 eax, eax
  0023f	e9 f1 06 00 00	 jmp	 $LN1@WindowProc
$LN26@WindowProc:

; 810  : 		}
; 811  : 		break;
; 812  : 	case UMSG_GETREVISED:
; 813  : 		{
; 814  : 			UpdateData(TRUE);

  00244	6a 01		 push	 1
  00246	e8 00 00 00 00	 call	 ?UpdateData@CWnd@@QAEHH@Z ; CWnd::UpdateData

; 815  : 			return m_bChkRevised;

  0024b	8b 87 68 2f 00
	00		 mov	 eax, DWORD PTR [edi+12136]
  00251	e9 df 06 00 00	 jmp	 $LN1@WindowProc
$LN27@WindowProc:

; 816  : 		}
; 817  : 		break;
; 818  : 	case UMSG_UPDATEREVISED:
; 819  : 		{
; 820  : 			m_bChkRevised = wParam;	
; 821  : 			UpdateData(FALSE);

  00256	6a 00		 push	 0
  00258	89 b7 68 2f 00
	00		 mov	 DWORD PTR [edi+12136], esi
  0025e	e8 00 00 00 00	 call	 ?UpdateData@CWnd@@QAEHH@Z ; CWnd::UpdateData

; 822  : 			if(m_pChartMng->GetSafeHwnd())

  00263	8b 87 00 33 00
	00		 mov	 eax, DWORD PTR [edi+13056]
; File C:\Program Files (x86)\Microsoft Visual Studio\2019\Community\VC\Tools\MSVC\14.29.30133\atlmfc\include\afxwin2.inl

; 25   : 	{ return this == NULL ? NULL : m_hWnd; }

  00269	85 c0		 test	 eax, eax
  0026b	0f 84 b6 06 00
	00		 je	 $LN83@WindowProc
  00271	8b 40 20	 mov	 eax, DWORD PTR [eax+32]
; File D:\git\src\IBK\IBK_DRFN\ProjSrc\SrcDrfn\Chart\MULTICHART\ExtInputBarDlg.cpp

; 822  : 			if(m_pChartMng->GetSafeHwnd())

  00274	85 c0		 test	 eax, eax
  00276	0f 84 ab 06 00
	00		 je	 $LN83@WindowProc
; File C:\Program Files (x86)\Microsoft Visual Studio\2019\Community\VC\Tools\MSVC\14.29.30133\atlmfc\include\afxwin2.inl

; 32   : 	{ ASSERT(::IsWindow(m_hWnd)); return ::SendMessage(m_hWnd, message, wParam, lParam); }

  0027c	6a 01		 push	 1
  0027e	ff b7 68 2f 00
	00		 push	 DWORD PTR [edi+12136]
  00284	68 24 04 00 00	 push	 1060			; 00000424H
  00289	50		 push	 eax
  0028a	ff 15 00 00 00
	00		 call	 DWORD PTR __imp__SendMessageA@16
; File D:\git\src\IBK\IBK_DRFN\ProjSrc\SrcDrfn\Chart\MULTICHART\ExtInputBarDlg.cpp

; 825  : 		break;

  00290	e9 92 06 00 00	 jmp	 $LN83@WindowProc
$LN29@WindowProc:

; 826  : 	case UMSG_SETNORMALIZEDMINUTETIMERULE:
; 827  : 		{
; 828  : 			m_bNormalizedMinuteTimeRule = wParam;

  00295	89 b7 0c 33 00
	00		 mov	 DWORD PTR [edi+13068], esi

; 829  : 		}
; 830  : 		break;

  0029b	e9 87 06 00 00	 jmp	 $LN83@WindowProc
$LN30@WindowProc:

; 831  : 	case UMSG_GETNORMALIZEDMINUTETIMERULE:
; 832  : 		{
; 833  : 			return m_bNormalizedMinuteTimeRule;

  002a0	8b 87 0c 33 00
	00		 mov	 eax, DWORD PTR [edi+13068]
  002a6	e9 8a 06 00 00	 jmp	 $LN1@WindowProc
$LN31@WindowProc:

; 834  : 		}
; 835  : 		break;
; 836  : 	case UMSG_SETHIGHLIGHTINFO:
; 837  : 		{
; 838  : 			CString strComment = (LPCTSTR)wParam;

  002ab	56		 push	 esi
  002ac	8d 4d dc	 lea	 ecx, DWORD PTR _strComment$6[ebp]
  002af	ff 15 00 00 00
	00		 call	 DWORD PTR __imp_??0?$CStringT@DV?$StrTraitMFC_DLL@DV?$ChTraitsCRT@D@ATL@@@@@ATL@@QAE@PBD@Z

; 839  : 			m_stSetMatrix.SetWindowText(strComment);

  002b5	ff 75 dc	 push	 DWORD PTR _strComment$6[ebp]
  002b8	8d 8f 08 2d 00
	00		 lea	 ecx, DWORD PTR [edi+11528]
  002be	c7 45 fc 02 00
	00 00		 mov	 DWORD PTR __$EHRec$[ebp+8], 2
  002c5	e8 00 00 00 00	 call	 ?SetWindowTextA@CWnd@@QAEXPBD@Z ; CWnd::SetWindowTextA

; 840  : 		}

  002ca	8d 4d dc	 lea	 ecx, DWORD PTR _strComment$6[ebp]

; 841  : 		break;

  002cd	e9 48 06 00 00	 jmp	 $LN190@WindowProc
$LN32@WindowProc:

; 842  : 	case UMSG_GETDRAGMODETYPE:
; 843  : 		{
; 844  : 			return m_nDragModeType;

  002d2	8b 87 18 33 00
	00		 mov	 eax, DWORD PTR [edi+13080]
  002d8	e9 58 06 00 00	 jmp	 $LN1@WindowProc
$LN33@WindowProc:

; 845  : 		}
; 846  : 		break;
; 847  : 	case UMSG_SETVIEWENDTIME:
; 848  : 		{
; 849  : 			if((m_chType==DAY_DATA_CHART||m_chType==WEEK_DATA_CHART||m_chType==MONTH_DATA_CHART||m_chType==YEAR_DATA_CHART))

  002dd	8a 87 dc 00 00
	00		 mov	 al, BYTE PTR [edi+220]
  002e3	3c 32		 cmp	 al, 50			; 00000032H
  002e5	74 10		 je	 SHORT $LN35@WindowProc
  002e7	3c 33		 cmp	 al, 51			; 00000033H
  002e9	74 0c		 je	 SHORT $LN35@WindowProc
  002eb	3c 34		 cmp	 al, 52			; 00000034H
  002ed	74 08		 je	 SHORT $LN35@WindowProc
  002ef	3c 35		 cmp	 al, 53			; 00000035H
  002f1	0f 85 30 06 00
	00		 jne	 $LN83@WindowProc
$LN35@WindowProc:

; 850  : 			{
; 851  : 				long lEndDate = wParam;
; 852  : 			/*	2005.09.06	
; 853  : 				//     
; 854  : 				// OCX     
; 855  : 				//   . */
; 856  : 
; 857  : 				SYSTEMTIME tm;
; 858  : 				::ZeroMemory(&tm,sizeof(tm));
; 859  : 				if(m_chType==DAY_DATA_CHART||m_chType==WEEK_DATA_CHART)
; 860  : 				{
; 861  : 					tm.wYear	= (WORD)lEndDate/10000;
; 862  : 					tm.wMonth	= (WORD)lEndDate%10000/100;
; 863  : 					tm.wDay		= (WORD)lEndDate%100;
; 864  : 				}
; 865  : 				else if(m_chType==MONTH_DATA_CHART)
; 866  : 				{
; 867  : 					tm.wYear	= (WORD)lEndDate/10000;
; 868  : 					tm.wMonth	= (WORD)lEndDate%10000/100;
; 869  : 					tm.wDay = 1;
; 870  : 				}
; 871  : 				else if(m_chType==YEAR_DATA_CHART)
; 872  : 				{
; 873  : 					tm.wYear	= (WORD)lEndDate/10000;
; 874  : 					tm.wMonth	= 1;
; 875  : 					tm.wDay = 1;
; 876  : 				}
; 877  : 
; 878  : 				/*
; 879  : 				if(m_bEndDate) //        .
; 880  : 				{
; 881  : 					m_datePicker.SetTime(&tm);
; 882  : 				}
; 883  : 				*/
; 884  : 				//2005. 07. 28 added by sy, nam chart     .
; 885  : 				m_strEndDate.Format("%d", lEndDate);				

  002f7	56		 push	 esi
  002f8	8d 87 cc 00 00
	00		 lea	 eax, DWORD PTR [edi+204]
  002fe	68 00 00 00 00	 push	 OFFSET ??_C@_02DPKJAMEF@?$CFd@
  00303	50		 push	 eax
  00304	ff 15 00 00 00
	00		 call	 DWORD PTR __imp_?Format@?$CStringT@DV?$StrTraitMFC_DLL@DV?$ChTraitsCRT@D@ATL@@@@@ATL@@QAAXPBDZZ
  0030a	83 c4 0c	 add	 esp, 12			; 0000000cH

; 886  : 			}
; 887  : 		}
; 888  : 		break;

  0030d	e9 15 06 00 00	 jmp	 $LN83@WindowProc
$LN42@WindowProc:

; 1129 : }

  00312	ff b7 cc 00 00
	00		 push	 DWORD PTR [edi+204]
  00318	ff 15 00 00 00
	00		 call	 DWORD PTR __imp__atoi
  0031e	83 c4 04	 add	 esp, 4
  00321	e9 0f 06 00 00	 jmp	 $LN1@WindowProc
$LN43@WindowProc:

; 889  : 	case UMSG_GET_TIME_FROM_DATETIMEPICKER:
; 890  : 		{
; 891  : 			/* ====================================
; 892  : 			//2005. 07. 28
; 893  : 			SYSTEMTIME* pTm;
; 894  : 			pTm = (SYSTEMTIME*)lParam;
; 895  : 
; 896  : 			//     . 05.06. 03
; 897  : 			m_datePicker.GetTime(pTm);
; 898  : 			*/
; 899  : 			return atoi(m_strEndDate);
; 900  : 		}
; 901  : 		break;
; 902  : 	case UMSG_GETENDDATEFROMINPUTBAR:
; 903  : 		{
; 904  : 			if ((m_nMarketType != CMasterTypeInfo::FOREIGN_CHART) &&

  00326	83 bf d4 00 00
	00 04		 cmp	 DWORD PTR [edi+212], 4
  0032d	74 16		 je	 SHORT $LN44@WindowProc
  0032f	8a 87 dc 00 00
	00		 mov	 al, BYTE PTR [edi+220]
  00335	3c 32		 cmp	 al, 50			; 00000032H
  00337	74 d9		 je	 SHORT $LN42@WindowProc
  00339	3c 33		 cmp	 al, 51			; 00000033H
  0033b	74 d5		 je	 SHORT $LN42@WindowProc
  0033d	3c 34		 cmp	 al, 52			; 00000034H
  0033f	74 d1		 je	 SHORT $LN42@WindowProc
  00341	3c 35		 cmp	 al, 53			; 00000035H
  00343	74 cd		 je	 SHORT $LN42@WindowProc
$LN44@WindowProc:
; File C:\Program Files (x86)\Microsoft Visual Studio\2019\Community\VC\Tools\MSVC\14.29.30133\atlmfc\include\afxdtctl.inl

; 35   : 	{ ASSERT(::IsWindow(m_hWnd)); ASSERT(pTimeDest != NULL); return (DWORD) ::SendMessage(m_hWnd, DTM_GETSYSTEMTIME, 0, (LPARAM) pTimeDest); }

  00345	8d 45 e0	 lea	 eax, DWORD PTR _tm$8[ebp]
  00348	50		 push	 eax
  00349	6a 00		 push	 0
  0034b	68 01 10 00 00	 push	 4097			; 00001001H
  00350	ff b7 00 01 00
	00		 push	 DWORD PTR [edi+256]
  00356	ff 15 00 00 00
	00		 call	 DWORD PTR __imp__SendMessageA@16
; File D:\git\src\IBK\IBK_DRFN\ProjSrc\SrcDrfn\Chart\MULTICHART\ExtInputBarDlg.cpp

; 913  : 				return (long)(tm.wYear*10000+tm.wMonth*100+tm.wDay);

  0035c	0f b7 45 e0	 movzx	 eax, WORD PTR _tm$8[ebp]
  00360	6b c8 64	 imul	 ecx, eax, 100
  00363	0f b7 45 e2	 movzx	 eax, WORD PTR _tm$8[ebp+2]
  00367	03 c8		 add	 ecx, eax
  00369	6b c1 64	 imul	 eax, ecx, 100
  0036c	0f b7 4d e6	 movzx	 ecx, WORD PTR _tm$8[ebp+6]
  00370	03 c1		 add	 eax, ecx
  00372	e9 be 05 00 00	 jmp	 $LN1@WindowProc
$LN47@WindowProc:

; 914  : 			}
; 915  : 			return 0L;
; 916  : 		}
; 917  : 		break;
; 918  : 	case UMSG_SETINITIALCHARTDATA:
; 919  : 		{		
; 920  : 			m_bEndDate	= TRUE;
; 921  : 			m_strStartDate	= _T("");

  00377	8d 8f c8 00 00
	00		 lea	 ecx, DWORD PTR [edi+200]
  0037d	c7 87 c4 00 00
	00 01 00 00 00	 mov	 DWORD PTR [edi+196], 1
  00387	68 00 00 00 00	 push	 OFFSET ??_C@_00CNPNBAHC@@
  0038c	ff 15 00 00 00
	00		 call	 DWORD PTR __imp_??4?$CStringT@DV?$StrTraitMFC_DLL@DV?$ChTraitsCRT@D@ATL@@@@@ATL@@QAEAAV01@PBD@Z

; 922  : 			m_strEndDate	= _T("");

  00392	8d 8f cc 00 00
	00		 lea	 ecx, DWORD PTR [edi+204]
  00398	68 00 00 00 00	 push	 OFFSET ??_C@_00CNPNBAHC@@
  0039d	ff 15 00 00 00
	00		 call	 DWORD PTR __imp_??4?$CStringT@DV?$StrTraitMFC_DLL@DV?$ChTraitsCRT@D@ATL@@@@@ATL@@QAEAAV01@PBD@Z

; 923  : 
; 924  : 			stChartInitData* _pStData = (stChartInitData*)lParam;	
; 925  : 			m_nYUnitType = _pStData->m_nChartNumericValue;

  003a3	8b 43 2c	 mov	 eax, DWORD PTR [ebx+44]

; 926  : 
; 927  : //>> [QC No]090804HMC081
; 928  : 			int nMarketType = ((CChartMng*)m_pChartMng)->m_nMarketType;

  003a6	8d b7 70 2f 00
	00		 lea	 esi, DWORD PTR [edi+12144]
  003ac	89 87 d8 00 00
	00		 mov	 DWORD PTR [edi+216], eax

; 929  : 			if(nMarketType == CMasterTypeInfo::STOCK_CHART)	

  003b2	8b ce		 mov	 ecx, esi
  003b4	8b 87 00 33 00
	00		 mov	 eax, DWORD PTR [edi+13056]
  003ba	83 b8 d8 00 00
	00 00		 cmp	 DWORD PTR [eax+216], 0
  003c1	75 09		 jne	 SHORT $LN48@WindowProc

; 930  : 			{
; 931  : 				m_btYUnit.EnableWindow(TRUE);

  003c3	6a 01		 push	 1
  003c5	e8 00 00 00 00	 call	 ?EnableWindow@CWnd@@QAEHH@Z ; CWnd::EnableWindow

; 932  : 			}

  003ca	eb 1d		 jmp	 SHORT $LN49@WindowProc
$LN48@WindowProc:

; 933  : 			else
; 934  : 			{
; 935  : 				m_btYUnit.EnableWindow(FALSE);

  003cc	6a 00		 push	 0
  003ce	e8 00 00 00 00	 call	 ?EnableWindow@CWnd@@QAEHH@Z ; CWnd::EnableWindow

; 936  : 				m_nYUnitType = WON_TICK;
; 937  : 				m_btYUnit.SetWindowText("\\");

  003d3	68 00 00 00 00	 push	 OFFSET ??_C@_01KICIPPFI@?2@
  003d8	8b ce		 mov	 ecx, esi
  003da	c7 87 d8 00 00
	00 00 00 00 00	 mov	 DWORD PTR [edi+216], 0
  003e4	e8 00 00 00 00	 call	 ?SetWindowTextA@CWnd@@QAEXPBD@Z ; CWnd::SetWindowTextA
$LN49@WindowProc:

; 938  : 			}
; 939  : 			
; 940  : 			if(m_nYUnitType == WON_TYPE)

  003e9	8b 87 d8 00 00
	00		 mov	 eax, DWORD PTR [edi+216]
  003ef	85 c0		 test	 eax, eax
  003f1	75 1b		 jne	 SHORT $LN50@WindowProc

; 941  : 			{				
; 942  : 				m_btYUnit.FP_vSetImage(m_pIL_W20H20_Tool, 12, 13, FALSE, "\\", FALSE, 15);

  003f3	6a ff		 push	 -1
  003f5	6a 0f		 push	 15			; 0000000fH
  003f7	50		 push	 eax
  003f8	51		 push	 ecx
  003f9	8b cc		 mov	 ecx, esp
  003fb	68 00 00 00 00	 push	 OFFSET ??_C@_01KICIPPFI@?2@
  00400	ff 15 00 00 00
	00		 call	 DWORD PTR __imp_??0?$CStringT@DV?$StrTraitMFC_DLL@DV?$ChTraitsCRT@D@ATL@@@@@ATL@@QAE@PBD@Z
  00406	6a 00		 push	 0
  00408	6a 0d		 push	 13			; 0000000dH
  0040a	6a 0c		 push	 12			; 0000000cH

; 943  : 			}

  0040c	eb 40		 jmp	 SHORT $LN191@WindowProc
$LN50@WindowProc:

; 944  : 			else if(m_nYUnitType == PERCENT_TYPE)

  0040e	83 f8 01	 cmp	 eax, 1
  00411	75 1c		 jne	 SHORT $LN52@WindowProc

; 945  : 			{
; 946  : 				m_btYUnit.FP_vSetImage(m_pIL_W20H20_Tool, 20, 21, FALSE, "%", FALSE, 23);

  00413	6a ff		 push	 -1
  00415	6a 17		 push	 23			; 00000017H
  00417	6a 00		 push	 0
  00419	51		 push	 ecx
  0041a	8b cc		 mov	 ecx, esp
  0041c	68 00 00 00 00	 push	 OFFSET ??_C@_01FGNFDNOH@?$CF@
  00421	ff 15 00 00 00
	00		 call	 DWORD PTR __imp_??0?$CStringT@DV?$StrTraitMFC_DLL@DV?$ChTraitsCRT@D@ATL@@@@@ATL@@QAE@PBD@Z
  00427	6a 00		 push	 0
  00429	6a 15		 push	 21			; 00000015H
  0042b	6a 14		 push	 20			; 00000014H

; 947  : 			}

  0042d	eb 1f		 jmp	 SHORT $LN191@WindowProc
$LN52@WindowProc:

; 948  : 			else if(m_nYUnitType == DOLLAR_TYPE)

  0042f	83 f8 02	 cmp	 eax, 2
  00432	75 27		 jne	 SHORT $LN54@WindowProc

; 949  : 			{
; 950  : 				m_btYUnit.FP_vSetImage(m_pIL_W20H20_Tool, 16, 17, FALSE, "$", FALSE, 19);

  00434	6a ff		 push	 -1
  00436	6a 13		 push	 19			; 00000013H
  00438	6a 00		 push	 0
  0043a	51		 push	 ecx
  0043b	8b cc		 mov	 ecx, esp
  0043d	68 00 00 00 00	 push	 OFFSET ??_C@_01EPMOAMKG@$@
  00442	ff 15 00 00 00
	00		 call	 DWORD PTR __imp_??0?$CStringT@DV?$StrTraitMFC_DLL@DV?$ChTraitsCRT@D@ATL@@@@@ATL@@QAE@PBD@Z
  00448	6a 00		 push	 0
  0044a	6a 11		 push	 17			; 00000011H
  0044c	6a 10		 push	 16			; 00000010H
$LN191@WindowProc:
; File C:\Program Files (x86)\Microsoft Visual Studio\2019\Community\VC\Tools\MSVC\14.29.30133\atlmfc\include\afxwin2.inl

; 114  : 	{ ASSERT(::IsWindow(m_hWnd)); ::InvalidateRect(m_hWnd, NULL, bErase); }

  0044e	ff b7 bc 00 00
	00		 push	 DWORD PTR [edi+188]
  00454	8b ce		 mov	 ecx, esi
  00456	e8 00 00 00 00	 call	 ?FP_vSetImage@CILButton@@QAEXPAVCImageList@@HHHV?$CStringT@DV?$StrTraitMFC_DLL@DV?$ChTraitsCRT@D@ATL@@@@@ATL@@HHH@Z ; CILButton::FP_vSetImage
$LN54@WindowProc:
  0045b	6a 01		 push	 1
  0045d	6a 00		 push	 0
  0045f	ff b7 90 2f 00
	00		 push	 DWORD PTR [edi+12176]
  00465	ff 15 00 00 00
	00		 call	 DWORD PTR __imp__InvalidateRect@12
; File D:\git\src\IBK\IBK_DRFN\ProjSrc\SrcDrfn\Chart\MULTICHART\ExtInputBarDlg.cpp

; 957  : 			m_chType = _pStData->m_chType;

  0046b	0f b6 43 10	 movzx	 eax, BYTE PTR [ebx+16]

; 958  : 
; 959  : 			// 05. 09. 05 
; 960  : 			//m_strCode = _pStData->m_strCode;
; 961  : 
; 962  : 			// chart Type  Control  Control  ..
; 963  : 			BOOL bEnable = FALSE;

  0046f	33 f6		 xor	 esi, esi
  00471	88 87 dc 00 00
	00		 mov	 BYTE PTR [edi+220], al

; 964  : 			if((_pStData->m_chType==DAY_DATA_CHART||_pStData->m_chType==WEEK_DATA_CHART||_pStData->m_chType==MONTH_DATA_CHART||_pStData->m_chType==YEAR_DATA_CHART))

  00477	8a 43 10	 mov	 al, BYTE PTR [ebx+16]
  0047a	3c 32		 cmp	 al, 50			; 00000032H
  0047c	74 0c		 je	 SHORT $LN56@WindowProc
  0047e	3c 33		 cmp	 al, 51			; 00000033H
  00480	74 08		 je	 SHORT $LN56@WindowProc
  00482	3c 34		 cmp	 al, 52			; 00000034H
  00484	74 04		 je	 SHORT $LN56@WindowProc
  00486	3c 35		 cmp	 al, 53			; 00000035H
  00488	75 05		 jne	 SHORT $LN55@WindowProc
$LN56@WindowProc:

; 965  : 			{
; 966  : 				bEnable = TRUE;

  0048a	be 01 00 00 00	 mov	 esi, 1
$LN55@WindowProc:

; 967  : 			}
; 968  : 			//m_datePicker.EnableWindow(bEnable);
; 969  : //@
; 970  : //			if(m_datePicker.GetEnabled() == !bEnable)
; 971  : //				m_datePicker.SetEnabled(bEnable);
; 972  : //@
; 973  : //@
; 974  : 			if(m_datePicker.IsWindowEnabled() == !bEnable)

  0048f	8d 8f e0 00 00
	00		 lea	 ecx, DWORD PTR [edi+224]
  00495	e8 00 00 00 00	 call	 ?IsWindowEnabled@CWnd@@QBEHXZ ; CWnd::IsWindowEnabled
  0049a	8b d6		 mov	 edx, esi
  0049c	83 f2 01	 xor	 edx, 1
  0049f	3b c2		 cmp	 eax, edx
  004a1	75 0c		 jne	 SHORT $LN57@WindowProc

; 975  : 				m_datePicker.EnableWindow(bEnable);

  004a3	56		 push	 esi
  004a4	8d 8f e0 00 00
	00		 lea	 ecx, DWORD PTR [edi+224]
  004aa	e8 00 00 00 00	 call	 ?EnableWindow@CWnd@@QAEHH@Z ; CWnd::EnableWindow
$LN57@WindowProc:

; 976  : //@
; 977  : 			m_btnStartDate.EnableWindow(bEnable);

  004af	56		 push	 esi
  004b0	8d 8f 68 12 00
	00		 lea	 ecx, DWORD PTR [edi+4712]
  004b6	e8 00 00 00 00	 call	 ?EnableWindow@CWnd@@QAEHH@Z ; CWnd::EnableWindow

; 978  : 			m_btnEndDate.EnableWindow(bEnable);

  004bb	56		 push	 esi
  004bc	8d 8f c8 13 00
	00		 lea	 ecx, DWORD PTR [edi+5064]
  004c2	e8 00 00 00 00	 call	 ?EnableWindow@CWnd@@QAEHH@Z ; CWnd::EnableWindow

; 979  : 
; 980  : 			//   
; 981  : 			if(bEnable)

  004c7	85 f6		 test	 esi, esi
  004c9	0f 84 c5 00 00
	00		 je	 $LN58@WindowProc

; 982  : 			{		
; 983  : 				m_strStartDate	.Format("%d", _pStData->m_lStartDate);

  004cf	ff 73 08	 push	 DWORD PTR [ebx+8]
  004d2	8b 35 00 00 00
	00		 mov	 esi, DWORD PTR __imp_?Format@?$CStringT@DV?$StrTraitMFC_DLL@DV?$ChTraitsCRT@D@ATL@@@@@ATL@@QAAXPBDZZ
  004d8	8d 87 c8 00 00
	00		 lea	 eax, DWORD PTR [edi+200]
  004de	68 00 00 00 00	 push	 OFFSET ??_C@_02DPKJAMEF@?$CFd@
  004e3	50		 push	 eax
  004e4	ff d6		 call	 esi

; 984  : 				m_strEndDate	.Format("%d", _pStData->m_lEndDate);

  004e6	ff 73 0c	 push	 DWORD PTR [ebx+12]
  004e9	8d 87 cc 00 00
	00		 lea	 eax, DWORD PTR [edi+204]
  004ef	68 00 00 00 00	 push	 OFFSET ??_C@_02DPKJAMEF@?$CFd@
  004f4	50		 push	 eax
  004f5	ff d6		 call	 esi
; File C:\Program Files (x86)\Microsoft Visual Studio\2019\Community\VC\Tools\MSVC\14.29.30133\atlmfc\include\atlsimpstr.h

; 519  : 		return( GetData()->nDataLength );

  004f7	8b 8f c8 00 00
	00		 mov	 ecx, DWORD PTR [edi+200]
; File D:\git\src\IBK\IBK_DRFN\ProjSrc\SrcDrfn\Chart\MULTICHART\ExtInputBarDlg.cpp

; 988  : 						(atoi(m_strStartDate)<= 19700101 ) ||

  004fd	8d b7 cc 00 00
	00		 lea	 esi, DWORD PTR [edi+204]
  00503	83 c4 18	 add	 esp, 24			; 00000018H
  00506	83 79 f4 08	 cmp	 DWORD PTR [ecx-12], 8
  0050a	75 2b		 jne	 SHORT $LN60@WindowProc
; File C:\Program Files (x86)\Microsoft Visual Studio\2019\Community\VC\Tools\MSVC\14.29.30133\atlmfc\include\atlsimpstr.h

; 519  : 		return( GetData()->nDataLength );

  0050c	8b 06		 mov	 eax, DWORD PTR [esi]
; File D:\git\src\IBK\IBK_DRFN\ProjSrc\SrcDrfn\Chart\MULTICHART\ExtInputBarDlg.cpp

; 988  : 						(atoi(m_strStartDate)<= 19700101 ) ||

  0050e	83 78 f4 08	 cmp	 DWORD PTR [eax-12], 8
  00512	75 23		 jne	 SHORT $LN60@WindowProc
  00514	51		 push	 ecx
  00515	ff 15 00 00 00
	00		 call	 DWORD PTR __imp__atoi
  0051b	83 c4 04	 add	 esp, 4
  0051e	3d 85 99 2c 01	 cmp	 eax, 19700101		; 012c9985H
  00523	7e 12		 jle	 SHORT $LN60@WindowProc
  00525	ff 36		 push	 DWORD PTR [esi]
  00527	ff 15 00 00 00
	00		 call	 DWORD PTR __imp__atoi
  0052d	83 c4 04	 add	 esp, 4
  00530	3d 85 99 2c 01	 cmp	 eax, 19700101		; 012c9985H
  00535	7f 4f		 jg	 SHORT $LN59@WindowProc
$LN60@WindowProc:
; File C:\Program Files (x86)\Microsoft Visual Studio\2019\Community\VC\Tools\MSVC\14.29.30133\atlmfc\include\atltime.h

; 374  : 	return( CTime( ::_time64( NULL ) ) );

  00537	6a 00		 push	 0
  00539	ff 15 00 00 00
	00		 call	 DWORD PTR __imp___time64
  0053f	83 c4 04	 add	 esp, 4

; 417  : 	m_time( time )

  00542	89 45 e8	 mov	 DWORD PTR _currentTime$10[ebp], eax
; File D:\git\src\IBK\IBK_DRFN\ProjSrc\SrcDrfn\Chart\MULTICHART\ExtInputBarDlg.cpp

; 996  : 					m_strStartDate = m_strEndDate =currentTime.Format("%Y%m%d");

  00545	8d 45 dc	 lea	 eax, DWORD PTR $T5[ebp]
; File C:\Program Files (x86)\Microsoft Visual Studio\2019\Community\VC\Tools\MSVC\14.29.30133\atlmfc\include\atltime.h

; 417  : 	m_time( time )

  00548	89 55 ec	 mov	 DWORD PTR _currentTime$10[ebp+4], edx
; File D:\git\src\IBK\IBK_DRFN\ProjSrc\SrcDrfn\Chart\MULTICHART\ExtInputBarDlg.cpp

; 996  : 					m_strStartDate = m_strEndDate =currentTime.Format("%Y%m%d");

  0054b	8d 4d e8	 lea	 ecx, DWORD PTR _currentTime$10[ebp]
  0054e	68 00 00 00 00	 push	 OFFSET ??_C@_06CLONMKIH@?$CFY?$CFm?$CFd@
  00553	50		 push	 eax
  00554	e8 00 00 00 00	 call	 ?Format@CTime@ATL@@QBE?AV?$CStringT@DV?$StrTraitMFC_DLL@DV?$ChTraitsCRT@D@ATL@@@@@2@PBD@Z ; ATL::CTime::Format
  00559	50		 push	 eax
  0055a	8b ce		 mov	 ecx, esi
  0055c	c7 45 fc 03 00
	00 00		 mov	 DWORD PTR __$EHRec$[ebp+8], 3
  00563	ff 15 00 00 00
	00		 call	 DWORD PTR __imp_??4?$CStringT@DV?$StrTraitMFC_DLL@DV?$ChTraitsCRT@D@ATL@@@@@ATL@@QAEAAV01@ABV01@@Z
  00569	50		 push	 eax
  0056a	8d 8f c8 00 00
	00		 lea	 ecx, DWORD PTR [edi+200]
  00570	ff 15 00 00 00
	00		 call	 DWORD PTR __imp_??4?$CStringT@DV?$StrTraitMFC_DLL@DV?$ChTraitsCRT@D@ATL@@@@@ATL@@QAEAAV01@ABV01@@Z
  00576	8d 4d dc	 lea	 ecx, DWORD PTR $T5[ebp]
  00579	c7 45 fc ff ff
	ff ff		 mov	 DWORD PTR __$EHRec$[ebp+8], -1
  00580	ff 15 00 00 00
	00		 call	 DWORD PTR __imp_??1?$CStringT@DV?$StrTraitMFC_DLL@DV?$ChTraitsCRT@D@ATL@@@@@ATL@@QAE@XZ
$LN59@WindowProc:

; 997  : 				}
; 998  : 
; 999  : 				m_bEndDate = _pStData->m_bStartDateState ? FALSE : TRUE;

  00586	33 c0		 xor	 eax, eax
  00588	39 43 48	 cmp	 DWORD PTR [ebx+72], eax
  0058b	0f 94 c0	 sete	 al
  0058e	89 87 c4 00 00
	00		 mov	 DWORD PTR [edi+196], eax
$LN58@WindowProc:

; 1000 : // KHD: Start
; 1001 : //				if( m_bEndDate )				
; 1002 : // 				{
; 1003 : // 					OnBtnEdate();
; 1004 : // 				}
; 1005 : // 				else 
; 1006 : // 				{
; 1007 : // 					OnBtnSdate();
; 1008 : // END				}
; 1009 : 			}
; 1010 : 
; 1011 : 			//01.11 LYH================================================================
; 1012 : 			//     
; 1013 : 			m_bChkRevised	= _pStData->m_bRevised;

  00594	8b 43 3c	 mov	 eax, DWORD PTR [ebx+60]

; 1014 : 			UpdateData(FALSE);			

  00597	8b cf		 mov	 ecx, edi
  00599	6a 00		 push	 0
  0059b	89 87 68 2f 00
	00		 mov	 DWORD PTR [edi+12136], eax
  005a1	e8 00 00 00 00	 call	 ?UpdateData@CWnd@@QAEHH@Z ; CWnd::UpdateData

; 1015 : 			//=====================================================================
; 1016 : 			//=============================================================================
; 1017 : 
; 1018 : //>> [QC No]090728HMC040
; 1019 : 			if( m_pChartMng) ((CChartMng*)m_pChartMng)->UpdateSyncIndicator();

  005a6	8b 8f 00 33 00
	00		 mov	 ecx, DWORD PTR [edi+13056]
  005ac	85 c9		 test	 ecx, ecx
  005ae	0f 84 73 03 00
	00		 je	 $LN83@WindowProc
  005b4	e8 00 00 00 00	 call	 ?UpdateSyncIndicator@CChartMng@@QAEXXZ ; CChartMng::UpdateSyncIndicator

; 1020 : //<< [QC No]090728HMC040
; 1021 : 		}
; 1022 : 		break;

  005b9	e9 69 03 00 00	 jmp	 $LN83@WindowProc
$LN62@WindowProc:

; 2187 : 	m_nDataType = nDataType;

  005be	89 9f d8 31 00
	00		 mov	 DWORD PTR [edi+12760], ebx

; 2188 : 	BOOL bEnable = TRUE;
; 2189 : 	char a = nDataType + '0';
; 2190 : 	//char cType[1];
; 2191 : 	//itoa(nDataType, cType, 10);
; 2192 : 
; 2193 : 	if(
; 2194 : 		( a == TICK_DATA_CHART) ||
; 2195 : 		( a == SEC_DATA_CHART) ||

  005c4	84 db		 test	 bl, bl
  005c6	74 12		 je	 SHORT $LN145@WindowProc
  005c8	80 fb 06	 cmp	 bl, 6
  005cb	74 0d		 je	 SHORT $LN145@WindowProc
  005cd	80 fb 01	 cmp	 bl, 1
  005d0	74 08		 je	 SHORT $LN145@WindowProc

; 2196 : 		( a == MIN_DATA_CHART )
; 2197 : 		)
; 2198 : 
; 2199 : 	m_btnStartDate	.EnableWindow(bEnable);

  005d2	8d b7 68 12 00
	00		 lea	 esi, DWORD PTR [edi+4712]
  005d8	eb 0f		 jmp	 SHORT $LN144@WindowProc
$LN145@WindowProc:
  005da	8d b7 68 12 00
	00		 lea	 esi, DWORD PTR [edi+4712]
  005e0	6a 01		 push	 1
  005e2	8b ce		 mov	 ecx, esi
  005e4	e8 00 00 00 00	 call	 ?EnableWindow@CWnd@@QAEHH@Z ; CWnd::EnableWindow
$LN144@WindowProc:

; 2200 : 	m_btnEndDate	.EnableWindow(bEnable);

  005e9	8d 8f c8 13 00
	00		 lea	 ecx, DWORD PTR [edi+5064]
  005ef	6a 01		 push	 1
  005f1	e8 00 00 00 00	 call	 ?EnableWindow@CWnd@@QAEHH@Z ; CWnd::EnableWindow

; 2201 : 	//m_datePicker	.EnableWindow(bEnable);		
; 2202 : //@
; 2203 : //	if(m_datePicker.GetEnabled() == !bEnable)
; 2204 : //		m_datePicker.SetEnabled(bEnable);		
; 2205 : //@
; 2206 : //@
; 2207 : 	if(m_datePicker.IsWindowEnabled() == !bEnable)

  005f6	8d 8f e0 00 00
	00		 lea	 ecx, DWORD PTR [edi+224]
  005fc	e8 00 00 00 00	 call	 ?IsWindowEnabled@CWnd@@QBEHXZ ; CWnd::IsWindowEnabled
  00601	85 c0		 test	 eax, eax
  00603	75 0d		 jne	 SHORT $LN146@WindowProc

; 2208 : 		m_datePicker.EnableWindow(bEnable);		

  00605	6a 01		 push	 1
  00607	8d 8f e0 00 00
	00		 lea	 ecx, DWORD PTR [edi+224]
  0060d	e8 00 00 00 00	 call	 ?EnableWindow@CWnd@@QAEHH@Z ; CWnd::EnableWindow
$LN146@WindowProc:

; 2209 : //@
; 2210 : 
; 2211 : 	m_btnStartDate.SetWindowText("");	

  00612	68 00 00 00 00	 push	 OFFSET ??_C@_02MEGIOJNB@?$KC?$LK@
  00617	8b ce		 mov	 ecx, esi
  00619	e8 00 00 00 00	 call	 ?SetWindowTextA@CWnd@@QAEXPBD@Z ; CWnd::SetWindowTextA

; 2212 : 	m_btnEndDate.SetWindowText("");

  0061e	68 00 00 00 00	 push	 OFFSET ??_C@_02PGFOILFD@?$KC?$LI@
  00623	8d 8f c8 13 00
	00		 lea	 ecx, DWORD PTR [edi+5064]
  00629	e8 00 00 00 00	 call	 ?SetWindowTextA@CWnd@@QAEXPBD@Z ; CWnd::SetWindowTextA

; 1023 : 	case UMSG_GET_TICKMINDAY_VALUE:
; 1024 : 		{
; 1025 : 			ChangeStatusDateControl(lParam);
; 1026 : 		}
; 1027 : 		break;

  0062e	e9 f4 02 00 00	 jmp	 $LN83@WindowProc
$LN63@WindowProc:

; 1028 : 	case UMSG_CHART_INIT_FROMOCX: //  .
; 1029 : 		{
; 1030 : 			if(wParam==1)

  00633	83 fe 01	 cmp	 esi, 1
  00636	75 05		 jne	 SHORT $LN64@WindowProc

; 1031 : 				ClearLink();

  00638	e8 00 00 00 00	 call	 ?ClearLink@CExtInputBarDlg@@AAEXXZ ; CExtInputBarDlg::ClearLink
$LN64@WindowProc:
; File C:\Program Files (x86)\Microsoft Visual Studio\2019\Community\VC\Tools\MSVC\14.29.30133\atlmfc\include\atltime.h

; 374  : 	return( CTime( ::_time64( NULL ) ) );

  0063d	6a 00		 push	 0
  0063f	ff 15 00 00 00
	00		 call	 DWORD PTR __imp___time64
  00645	83 c4 04	 add	 esp, 4

; 417  : 	m_time( time )

  00648	89 45 e8	 mov	 DWORD PTR _currentTime$9[ebp], eax
; File D:\git\src\IBK\IBK_DRFN\ProjSrc\SrcDrfn\Chart\MULTICHART\ExtInputBarDlg.cpp

; 1033 : 			m_datePicker.SetTime(&currentTime);	

  0064b	8d 45 e8	 lea	 eax, DWORD PTR _currentTime$9[ebp]
; File C:\Program Files (x86)\Microsoft Visual Studio\2019\Community\VC\Tools\MSVC\14.29.30133\atlmfc\include\atltime.h

; 417  : 	m_time( time )

  0064e	89 55 ec	 mov	 DWORD PTR _currentTime$9[ebp+4], edx
; File D:\git\src\IBK\IBK_DRFN\ProjSrc\SrcDrfn\Chart\MULTICHART\ExtInputBarDlg.cpp

; 1033 : 			m_datePicker.SetTime(&currentTime);	

  00651	8d 8f e0 00 00
	00		 lea	 ecx, DWORD PTR [edi+224]
  00657	50		 push	 eax
  00658	e8 00 00 00 00	 call	 ?SetTime@CDateTimeCtrl@@QAEHPBVCTime@ATL@@@Z ; CDateTimeCtrl::SetTime

; 1034 : 			
; 1035 : 			
; 1036 : 			m_bEndDate = TRUE;
; 1037 : 
; 1038 : 			// 
; 1039 : 			m_btnStartDate	.FP_vSetImage(m_pIL_W20H20, 80, 80, TRUE, "", TRUE);	

  0065d	6a ff		 push	 -1
  0065f	6a ff		 push	 -1
  00661	6a 01		 push	 1
  00663	51		 push	 ecx
  00664	8b cc		 mov	 ecx, esp
  00666	c7 87 c4 00 00
	00 01 00 00 00	 mov	 DWORD PTR [edi+196], 1
  00670	68 00 00 00 00	 push	 OFFSET ??_C@_02MEGIOJNB@?$KC?$LK@
  00675	ff 15 00 00 00
	00		 call	 DWORD PTR __imp_??0?$CStringT@DV?$StrTraitMFC_DLL@DV?$ChTraitsCRT@D@ATL@@@@@ATL@@QAE@PBD@Z
  0067b	6a 01		 push	 1
  0067d	6a 50		 push	 80			; 00000050H
  0067f	6a 50		 push	 80			; 00000050H
  00681	ff b7 b8 00 00
	00		 push	 DWORD PTR [edi+184]
  00687	8d 8f 68 12 00
	00		 lea	 ecx, DWORD PTR [edi+4712]
  0068d	e8 00 00 00 00	 call	 ?FP_vSetImage@CILButton@@QAEXPAVCImageList@@HHHV?$CStringT@DV?$StrTraitMFC_DLL@DV?$ChTraitsCRT@D@ATL@@@@@ATL@@HHH@Z ; CILButton::FP_vSetImage

; 1040 : 			m_btnEndDate	.FP_vSetImage(m_pIL_W20H20, 80, 80, TRUE, "", TRUE);

  00692	6a ff		 push	 -1
  00694	6a ff		 push	 -1
  00696	6a 01		 push	 1
  00698	51		 push	 ecx
  00699	8b cc		 mov	 ecx, esp
  0069b	68 00 00 00 00	 push	 OFFSET ??_C@_02PGFOILFD@?$KC?$LI@
  006a0	ff 15 00 00 00
	00		 call	 DWORD PTR __imp_??0?$CStringT@DV?$StrTraitMFC_DLL@DV?$ChTraitsCRT@D@ATL@@@@@ATL@@QAE@PBD@Z
  006a6	6a 01		 push	 1
  006a8	6a 50		 push	 80			; 00000050H
  006aa	6a 50		 push	 80			; 00000050H
  006ac	ff b7 b8 00 00
	00		 push	 DWORD PTR [edi+184]
  006b2	8d 8f c8 13 00
	00		 lea	 ecx, DWORD PTR [edi+5064]
  006b8	e8 00 00 00 00	 call	 ?FP_vSetImage@CILButton@@QAEXPAVCImageList@@HHHV?$CStringT@DV?$StrTraitMFC_DLL@DV?$ChTraitsCRT@D@ATL@@@@@ATL@@HHH@Z ; CILButton::FP_vSetImage
; File C:\Program Files (x86)\Microsoft Visual Studio\2019\Community\VC\Tools\MSVC\14.29.30133\atlmfc\include\afxwin2.inl

; 114  : 	{ ASSERT(::IsWindow(m_hWnd)); ::InvalidateRect(m_hWnd, NULL, bErase); }

  006bd	8b 35 00 00 00
	00		 mov	 esi, DWORD PTR __imp__InvalidateRect@12
  006c3	6a 01		 push	 1
  006c5	6a 00		 push	 0
  006c7	ff b7 88 12 00
	00		 push	 DWORD PTR [edi+4744]
  006cd	ff d6		 call	 esi
  006cf	6a 01		 push	 1
  006d1	6a 00		 push	 0
  006d3	ff b7 e8 13 00
	00		 push	 DWORD PTR [edi+5096]
  006d9	ff d6		 call	 esi
; File D:\git\src\IBK\IBK_DRFN\ProjSrc\SrcDrfn\Chart\MULTICHART\ExtInputBarDlg.cpp

; 1044 : 			m_strStartDate = m_strEndDate =currentTime.Format("%Y%m%d");

  006db	68 00 00 00 00	 push	 OFFSET ??_C@_06CLONMKIH@?$CFY?$CFm?$CFd@
  006e0	8d 45 dc	 lea	 eax, DWORD PTR $T4[ebp]
  006e3	50		 push	 eax
  006e4	8d 4d e8	 lea	 ecx, DWORD PTR _currentTime$9[ebp]
  006e7	e8 00 00 00 00	 call	 ?Format@CTime@ATL@@QBE?AV?$CStringT@DV?$StrTraitMFC_DLL@DV?$ChTraitsCRT@D@ATL@@@@@2@PBD@Z ; ATL::CTime::Format
  006ec	50		 push	 eax
  006ed	8d 8f cc 00 00
	00		 lea	 ecx, DWORD PTR [edi+204]
  006f3	c7 45 fc 04 00
	00 00		 mov	 DWORD PTR __$EHRec$[ebp+8], 4
  006fa	ff 15 00 00 00
	00		 call	 DWORD PTR __imp_??4?$CStringT@DV?$StrTraitMFC_DLL@DV?$ChTraitsCRT@D@ATL@@@@@ATL@@QAEAAV01@ABV01@@Z
  00700	50		 push	 eax
  00701	8d 8f c8 00 00
	00		 lea	 ecx, DWORD PTR [edi+200]
  00707	ff 15 00 00 00
	00		 call	 DWORD PTR __imp_??4?$CStringT@DV?$StrTraitMFC_DLL@DV?$ChTraitsCRT@D@ATL@@@@@ATL@@QAEAAV01@ABV01@@Z
  0070d	8d 4d dc	 lea	 ecx, DWORD PTR $T4[ebp]
  00710	c7 45 fc ff ff
	ff ff		 mov	 DWORD PTR __$EHRec$[ebp+8], -1
  00717	ff 15 00 00 00
	00		 call	 DWORD PTR __imp_??1?$CStringT@DV?$StrTraitMFC_DLL@DV?$ChTraitsCRT@D@ATL@@@@@ATL@@QAE@XZ

; 1045 : 		
; 1046 : 			if(m_pChartMng && m_pChartMng->GetSafeHwnd())

  0071d	8b 8f 00 33 00
	00		 mov	 ecx, DWORD PTR [edi+13056]
  00723	85 c9		 test	 ecx, ecx
  00725	74 36		 je	 SHORT $LN65@WindowProc
  00727	83 79 20 00	 cmp	 DWORD PTR [ecx+32], 0
  0072b	74 30		 je	 SHORT $LN65@WindowProc

; 1047 : 				m_pChartMng->SendMessage( UMS_SETCHART_DATEINFO, (WPARAM)m_bEndDate, (LPARAM)atoi(m_strEndDate));

  0072d	ff b7 cc 00 00
	00		 push	 DWORD PTR [edi+204]
  00733	ff 15 00 00 00
	00		 call	 DWORD PTR __imp__atoi
  00739	83 c4 04	 add	 esp, 4
; File C:\Program Files (x86)\Microsoft Visual Studio\2019\Community\VC\Tools\MSVC\14.29.30133\atlmfc\include\afxwin2.inl

; 32   : 	{ ASSERT(::IsWindow(m_hWnd)); return ::SendMessage(m_hWnd, message, wParam, lParam); }

  0073c	50		 push	 eax
  0073d	ff b7 c4 00 00
	00		 push	 DWORD PTR [edi+196]
  00743	8b 87 00 33 00
	00		 mov	 eax, DWORD PTR [edi+13056]
  00749	68 af 04 00 00	 push	 1199			; 000004afH
  0074e	ff 70 20	 push	 DWORD PTR [eax+32]
  00751	ff 15 00 00 00
	00		 call	 DWORD PTR __imp__SendMessageA@16
  00757	8b 8f 00 33 00
	00		 mov	 ecx, DWORD PTR [edi+13056]
$LN65@WindowProc:
; File D:\git\src\IBK\IBK_DRFN\ProjSrc\SrcDrfn\Chart\MULTICHART\ExtInputBarDlg.cpp

; 1049 : 			((CChartMng*)m_pChartMng)->GetpChartItemSelected()->SetEndDateRequested(m_strEndDate);

  0075d	ff b7 cc 00 00
	00		 push	 DWORD PTR [edi+204]
  00763	e8 00 00 00 00	 call	 ?GetpChartItemSelected@CChartMng@@QAEPAVCChartItem@@XZ ; CChartMng::GetpChartItemSelected
  00768	8b c8		 mov	 ecx, eax
  0076a	e8 00 00 00 00	 call	 ?SetEndDateRequested@CChartItem@@QAEXPBD@Z ; CChartItem::SetEndDateRequested

; 1050 : 		}
; 1051 : 		break;

  0076f	e9 b3 01 00 00	 jmp	 $LN83@WindowProc
$LN66@WindowProc:

; 1052 : 	case UMSG_SYNC_TOOLBAR:
; 1053 : 		{
; 1054 : 			if(wParam == CToolOptionInfo::TOOLOPTION::T_CROSSHAIRS_TOOL)

  00774	83 fe 59	 cmp	 esi, 89			; 00000059H
  00777	75 49		 jne	 SHORT $LN67@WindowProc

; 1055 : 			{
; 1056 : 				if(!lParam && m_bChkCrossLine)

  00779	85 db		 test	 ebx, ebx
  0077b	75 2e		 jne	 SHORT $LN69@WindowProc
  0077d	39 9f 24 33 00
	00		 cmp	 DWORD PTR [edi+13092], ebx
  00783	74 26		 je	 SHORT $LN69@WindowProc
; File C:\Program Files (x86)\Microsoft Visual Studio\2019\Community\VC\Tools\MSVC\14.29.30133\atlmfc\include\afxwin2.inl

; 213  : 	{ ASSERT(::IsWindow(m_hWnd)); return CWnd::FromHandle(::GetParent(m_hWnd)); }

  00785	ff 77 20	 push	 DWORD PTR [edi+32]
  00788	ff 15 00 00 00
	00		 call	 DWORD PTR __imp__GetParent@4
  0078e	50		 push	 eax
  0078f	e8 00 00 00 00	 call	 ?FromHandle@CWnd@@SGPAV1@PAUHWND__@@@Z ; CWnd::FromHandle

; 32   : 	{ ASSERT(::IsWindow(m_hWnd)); return ::SendMessage(m_hWnd, message, wParam, lParam); }

  00794	6a 01		 push	 1
  00796	56		 push	 esi
  00797	ff 35 00 00 00
	00		 push	 DWORD PTR ?RMS_ANALYSIS_FUNC@@3IB
  0079d	ff 70 20	 push	 DWORD PTR [eax+32]
  007a0	ff 15 00 00 00
	00		 call	 DWORD PTR __imp__SendMessageA@16
; File D:\git\src\IBK\IBK_DRFN\ProjSrc\SrcDrfn\Chart\MULTICHART\ExtInputBarDlg.cpp

; 1057 : 					((CStdDialog*)GetParent())->SendMessage(RMS_ANALYSIS_FUNC, CToolOptionInfo::TOOLOPTION::T_CROSSHAIRS_TOOL, TRUE);

  007a6	e9 7c 01 00 00	 jmp	 $LN83@WindowProc
$LN69@WindowProc:

; 1058 : 				else
; 1059 : 				{
; 1060 : 					m_btSub2.SetCheck(lParam);

  007ab	53		 push	 ebx
  007ac	8d 8f e8 06 00
	00		 lea	 ecx, DWORD PTR [edi+1768]
  007b2	e8 00 00 00 00	 call	 ?SetCheck@CILButton@@QAEXH@Z ; CILButton::SetCheck

; 1061 : 					m_bChkCrossLine = lParam;

  007b7	89 9f 24 33 00
	00		 mov	 DWORD PTR [edi+13092], ebx

; 1062 : 				}
; 1063 : 			}

  007bd	e9 65 01 00 00	 jmp	 $LN83@WindowProc
$LN67@WindowProc:

; 1064 : 			else if(wParam == CToolOptionInfo::TOOLOPTION::T_ADDIN_AUTOSCROLL_PLAY_LEFT)

  007c2	81 fe f2 03 00
	00		 cmp	 esi, 1010		; 000003f2H
  007c8	75 67		 jne	 SHORT $LN71@WindowProc

; 1065 : 			{
; 1066 : 				if(!lParam)

  007ca	6a ff		 push	 -1
  007cc	6a ff		 push	 -1
  007ce	6a 00		 push	 0
  007d0	51		 push	 ecx
  007d1	8b cc		 mov	 ecx, esp
  007d3	68 00 00 00 00	 push	 OFFSET ??_C@_00CNPNBAHC@@
  007d8	ff 15 00 00 00
	00		 call	 DWORD PTR __imp_??0?$CStringT@DV?$StrTraitMFC_DLL@DV?$ChTraitsCRT@D@ATL@@@@@ATL@@QAE@PBD@Z
  007de	8d 8f 68 01 00
	00		 lea	 ecx, DWORD PTR [edi+360]
  007e4	6a 00		 push	 0
  007e6	85 db		 test	 ebx, ebx
  007e8	75 23		 jne	 SHORT $LN73@WindowProc

; 1067 : 				{
; 1068 : 					m_btScrollPre.FP_vSetImage(m_pIL_W20H20, 104, 106);

  007ea	6a 6a		 push	 106			; 0000006aH
  007ec	6a 68		 push	 104			; 00000068H
  007ee	ff b7 b8 00 00
	00		 push	 DWORD PTR [edi+184]
  007f4	e8 00 00 00 00	 call	 ?FP_vSetImage@CILButton@@QAEXPAVCImageList@@HHHV?$CStringT@DV?$StrTraitMFC_DLL@DV?$ChTraitsCRT@D@ATL@@@@@ATL@@HHH@Z ; CILButton::FP_vSetImage
; File C:\Program Files (x86)\Microsoft Visual Studio\2019\Community\VC\Tools\MSVC\14.29.30133\atlmfc\include\afxwin2.inl

; 114  : 	{ ASSERT(::IsWindow(m_hWnd)); ::InvalidateRect(m_hWnd, NULL, bErase); }

  007f9	6a 01		 push	 1
  007fb	53		 push	 ebx
  007fc	ff b7 88 01 00
	00		 push	 DWORD PTR [edi+392]
  00802	ff 15 00 00 00
	00		 call	 DWORD PTR __imp__InvalidateRect@12
; File D:\git\src\IBK\IBK_DRFN\ProjSrc\SrcDrfn\Chart\MULTICHART\ExtInputBarDlg.cpp

; 1070 : 				}

  00808	e9 1a 01 00 00	 jmp	 $LN83@WindowProc
$LN73@WindowProc:

; 1071 : 				else
; 1072 : 				{
; 1073 : 					m_btScrollPre.FP_vSetImage(m_pIL_W20H20, 106, 104);

  0080d	6a 68		 push	 104			; 00000068H
  0080f	6a 6a		 push	 106			; 0000006aH
  00811	ff b7 b8 00 00
	00		 push	 DWORD PTR [edi+184]
  00817	e8 00 00 00 00	 call	 ?FP_vSetImage@CILButton@@QAEXPAVCImageList@@HHHV?$CStringT@DV?$StrTraitMFC_DLL@DV?$ChTraitsCRT@D@ATL@@@@@ATL@@HHH@Z ; CILButton::FP_vSetImage
; File C:\Program Files (x86)\Microsoft Visual Studio\2019\Community\VC\Tools\MSVC\14.29.30133\atlmfc\include\afxwin2.inl

; 114  : 	{ ASSERT(::IsWindow(m_hWnd)); ::InvalidateRect(m_hWnd, NULL, bErase); }

  0081c	6a 01		 push	 1
  0081e	6a 00		 push	 0
  00820	ff b7 88 01 00
	00		 push	 DWORD PTR [edi+392]
; File D:\git\src\IBK\IBK_DRFN\ProjSrc\SrcDrfn\Chart\MULTICHART\ExtInputBarDlg.cpp

; 1128 : 	return CRscDlg::WindowProc(message, wParam, lParam);

  00826	ff 15 00 00 00
	00		 call	 DWORD PTR __imp__InvalidateRect@12
  0082c	e9 f6 00 00 00	 jmp	 $LN83@WindowProc
$LN71@WindowProc:

; 1074 : 					m_btScrollPre.Invalidate();
; 1075 : 				}
; 1076 : 			}
; 1077 : 			else if(wParam == CToolOptionInfo::TOOLOPTION::T_ADDIN_AUTOSCROLL_PLAY_RIGHT)

  00831	81 fe f3 03 00
	00		 cmp	 esi, 1011		; 000003f3H
  00837	0f 85 ea 00 00
	00		 jne	 $LN83@WindowProc

; 1078 : 			{
; 1079 : 				if(!lParam)

  0083d	6a ff		 push	 -1
  0083f	6a ff		 push	 -1
  00841	6a 00		 push	 0
  00843	51		 push	 ecx
  00844	8b cc		 mov	 ecx, esp
  00846	68 00 00 00 00	 push	 OFFSET ??_C@_00CNPNBAHC@@
  0084b	ff 15 00 00 00
	00		 call	 DWORD PTR __imp_??0?$CStringT@DV?$StrTraitMFC_DLL@DV?$ChTraitsCRT@D@ATL@@@@@ATL@@QAE@PBD@Z
  00851	8d 8f c8 02 00
	00		 lea	 ecx, DWORD PTR [edi+712]
  00857	6a 00		 push	 0
  00859	85 db		 test	 ebx, ebx
  0085b	75 06		 jne	 SHORT $LN76@WindowProc

; 1080 : 				{
; 1081 : 					m_btScrollNext.FP_vSetImage(m_pIL_W20H20, 68, 70);

  0085d	6a 46		 push	 70			; 00000046H
  0085f	6a 44		 push	 68			; 00000044H

; 1082 : 					m_btScrollNext.Invalidate();
; 1083 : 				}

  00861	eb 04		 jmp	 SHORT $LN192@WindowProc
$LN76@WindowProc:

; 1084 : 				else
; 1085 : 				{
; 1086 : 					m_btScrollNext.FP_vSetImage(m_pIL_W20H20, 70, 68);

  00863	6a 44		 push	 68			; 00000044H
  00865	6a 46		 push	 70			; 00000046H
$LN192@WindowProc:

; 1128 : 	return CRscDlg::WindowProc(message, wParam, lParam);

  00867	ff b7 b8 00 00
	00		 push	 DWORD PTR [edi+184]
  0086d	e8 00 00 00 00	 call	 ?FP_vSetImage@CILButton@@QAEXPAVCImageList@@HHHV?$CStringT@DV?$StrTraitMFC_DLL@DV?$ChTraitsCRT@D@ATL@@@@@ATL@@HHH@Z ; CILButton::FP_vSetImage
  00872	6a 01		 push	 1
  00874	6a 00		 push	 0
  00876	ff b7 e8 02 00
	00		 push	 DWORD PTR [edi+744]
  0087c	ff 15 00 00 00
	00		 call	 DWORD PTR __imp__InvalidateRect@12
  00882	e9 a0 00 00 00	 jmp	 $LN83@WindowProc
$LN79@WindowProc:

; 1100 : //@Solomon-->
; 1101 : // 			if(wParam == 2)
; 1102 : // 			{
; 1103 : // 				IGateManager* pGateMng;	AfxGetIGateManager(pGateMng);
; 1104 : // 				IAUGwanManager* pMng = (IAUGwanManager*)pGateMng->GetInterface(9);
; 1105 : // 				long lGroup = (long)lParam;
; 1106 : // 				CString strCode = ((CChartMng*)m_pChartMng)->GetpChartItemSelected()->GetDataCode();
; 1107 : // 				CStringArray strCodes;
; 1108 : // 				strCodes.Add(strCode);
; 1109 : // 				// 4.       
; 1110 : // //				pMng->AddGwansimtem_New(lGroup, strCodes, (long)m_hWnd);
; 1111 : // 			}
; 1112 : //@Solomon<--
; 1113 : 		}
; 1114 : 		break;
; 1115 : 	case UMSG_END_REQUEST_CHARTDATA:
; 1116 : 		{
; 1117 : 			CButton* pCheck = ((CButton*)GetDlgItem(IDC_CHK_ACCOUNTAVG));

  00887	68 ac 18 00 00	 push	 6316			; 000018acH
  0088c	e8 00 00 00 00	 call	 ?GetDlgItem@CWnd@@QBEPAV1@H@Z ; CWnd::GetDlgItem

; 1118 : 			if(pCheck->GetCheck())

  00891	8b c8		 mov	 ecx, eax
  00893	e8 00 00 00 00	 call	 ?GetCheck@CButton@@QBEHXZ ; CButton::GetCheck
  00898	8b 35 00 00 00
	00		 mov	 esi, DWORD PTR __imp__GetParent@4
  0089e	85 c0		 test	 eax, eax
  008a0	74 12		 je	 SHORT $LN80@WindowProc
; File C:\Program Files (x86)\Microsoft Visual Studio\2019\Community\VC\Tools\MSVC\14.29.30133\atlmfc\include\afxwin2.inl

; 213  : 	{ ASSERT(::IsWindow(m_hWnd)); return CWnd::FromHandle(::GetParent(m_hWnd)); }

  008a2	ff 77 20	 push	 DWORD PTR [edi+32]
  008a5	ff d6		 call	 esi
  008a7	50		 push	 eax
  008a8	e8 00 00 00 00	 call	 ?FromHandle@CWnd@@SGPAV1@PAUHWND__@@@Z ; CWnd::FromHandle
; File D:\git\src\IBK\IBK_DRFN\ProjSrc\SrcDrfn\Chart\MULTICHART\ExtInputBarDlg.cpp

; 1119 : 				((CStdDialog*)GetParent())->RequestAvgUnitPrice();

  008ad	8b c8		 mov	 ecx, eax
  008af	e8 00 00 00 00	 call	 ?RequestAvgUnitPrice@CStdDialog@@QAEXXZ ; CStdDialog::RequestAvgUnitPrice
$LN80@WindowProc:

; 1120 : 
; 1121 : 			pCheck = ((CButton*)GetDlgItem(IDC_CHK_ACCOUNTCONC));

  008b4	68 ad 18 00 00	 push	 6317			; 000018adH
  008b9	8b cf		 mov	 ecx, edi
  008bb	e8 00 00 00 00	 call	 ?GetDlgItem@CWnd@@QBEPAV1@H@Z ; CWnd::GetDlgItem

; 1122 : 			if(pCheck->GetCheck())

  008c0	8b c8		 mov	 ecx, eax
  008c2	e8 00 00 00 00	 call	 ?GetCheck@CButton@@QBEHXZ ; CButton::GetCheck
  008c7	85 c0		 test	 eax, eax
  008c9	74 5c		 je	 SHORT $LN83@WindowProc
; File C:\Program Files (x86)\Microsoft Visual Studio\2019\Community\VC\Tools\MSVC\14.29.30133\atlmfc\include\afxwin2.inl

; 213  : 	{ ASSERT(::IsWindow(m_hWnd)); return CWnd::FromHandle(::GetParent(m_hWnd)); }

  008cb	ff 77 20	 push	 DWORD PTR [edi+32]
  008ce	ff d6		 call	 esi
  008d0	50		 push	 eax
  008d1	e8 00 00 00 00	 call	 ?FromHandle@CWnd@@SGPAV1@PAUHWND__@@@Z ; CWnd::FromHandle
; File D:\git\src\IBK\IBK_DRFN\ProjSrc\SrcDrfn\Chart\MULTICHART\ExtInputBarDlg.cpp

; 1123 : 				((CStdDialog*)GetParent())->RequestCondUnitPrice();

  008d6	8b c8		 mov	 ecx, eax
  008d8	e8 00 00 00 00	 call	 ?RequestCondUnitPrice@CStdDialog@@QAEXXZ ; CStdDialog::RequestCondUnitPrice
  008dd	eb 48		 jmp	 SHORT $LN83@WindowProc
$LN78@WindowProc:

; 1087 : 					m_btScrollNext.Invalidate();
; 1088 : 				}
; 1089 : 			}
; 1090 : 		}
; 1091 : 		break;
; 1092 : 	case UWM_RECEIVE_ITRQUERY:
; 1093 : 		{
; 1094 : 			{
; 1095 : 				//    .
; 1096 : 				CString szDebug;

  008df	8d 4d d8	 lea	 ecx, DWORD PTR _szDebug$2[ebp]
  008e2	ff 15 00 00 00
	00		 call	 DWORD PTR __imp_??0?$CStringT@DV?$StrTraitMFC_DLL@DV?$ChTraitsCRT@D@ATL@@@@@ATL@@QAE@XZ

; 1097 : 				szDebug.Format("Call[%d:%s]", __LINE__, __FILE__);

  008e8	68 00 00 00 00	 push	 OFFSET ??_C@_0EM@NGOCGFAP@D?3?2git?2src?2IBK?2IBK_DRFN?2ProjSrc@
  008ed	68 49 04 00 00	 push	 1097			; 00000449H
  008f2	8d 45 d8	 lea	 eax, DWORD PTR _szDebug$2[ebp]
  008f5	c7 45 fc 05 00
	00 00		 mov	 DWORD PTR __$EHRec$[ebp+8], 5
  008fc	68 00 00 00 00	 push	 OFFSET ??_C@_0BE@PDLOPEPM@?$LH?g?F?$LOCall?H?$KO?$MA?N?$FL?$CFd?3?$CFs?$FN@
  00901	50		 push	 eax
  00902	ff 15 00 00 00
	00		 call	 DWORD PTR __imp_?Format@?$CStringT@DV?$StrTraitMFC_DLL@DV?$ChTraitsCRT@D@ATL@@@@@ATL@@QAAXPBDZZ
  00908	83 c4 10	 add	 esp, 16			; 00000010H

; 1098 : 				AfxMessageBox(szDebug);

  0090b	6a 00		 push	 0
  0090d	6a 00		 push	 0
  0090f	ff 75 d8	 push	 DWORD PTR _szDebug$2[ebp]
  00912	e8 00 00 00 00	 call	 ?AfxMessageBox@@YGHPBDII@Z ; AfxMessageBox

; 1099 : 			}

  00917	8d 4d d8	 lea	 ecx, DWORD PTR _szDebug$2[ebp]
$LN190@WindowProc:

; 1128 : 	return CRscDlg::WindowProc(message, wParam, lParam);

  0091a	c7 45 fc ff ff
	ff ff		 mov	 DWORD PTR __$EHRec$[ebp+8], -1
  00921	ff 15 00 00 00
	00		 call	 DWORD PTR __imp_??1?$CStringT@DV?$StrTraitMFC_DLL@DV?$ChTraitsCRT@D@ATL@@@@@ATL@@QAE@XZ
$LN83@WindowProc:
  00927	53		 push	 ebx
  00928	ff 75 d4	 push	 DWORD PTR _wParam$GSCopy$1$[ebp]
  0092b	8b cf		 mov	 ecx, edi
  0092d	ff 75 08	 push	 DWORD PTR _message$[ebp]
  00930	e8 00 00 00 00	 call	 ?WindowProc@CWnd@@MAEJIIJ@Z ; CWnd::WindowProc
$LN1@WindowProc:

; 1129 : }

  00935	8b 4d f4	 mov	 ecx, DWORD PTR __$EHRec$[ebp]
  00938	64 89 0d 00 00
	00 00		 mov	 DWORD PTR fs:0, ecx
  0093f	59		 pop	 ecx
  00940	5f		 pop	 edi
  00941	5e		 pop	 esi
  00942	5b		 pop	 ebx
  00943	8b 4d f0	 mov	 ecx, DWORD PTR __$ArrayPad$[ebp]
  00946	33 cd		 xor	 ecx, ebp
  00948	e8 00 00 00 00	 call	 @__security_check_cookie@4
  0094d	8b e5		 mov	 esp, ebp
  0094f	5d		 pop	 ebp
  00950	c2 0c 00	 ret	 12			; 0000000cH
  00953	90		 npad	 1
$LN186@WindowProc:
  00954	00 00 00 00	 DD	 $LN47@WindowProc
  00958	00 00 00 00	 DD	 $LN10@WindowProc
  0095c	00 00 00 00	 DD	 $LN18@WindowProc
  00960	00 00 00 00	 DD	 $LN33@WindowProc
  00964	00 00 00 00	 DD	 $LN43@WindowProc
  00968	00 00 00 00	 DD	 $LN27@WindowProc
  0096c	00 00 00 00	 DD	 $LN26@WindowProc
  00970	00 00 00 00	 DD	 $LN17@WindowProc
  00974	00 00 00 00	 DD	 $LN19@WindowProc
  00978	00 00 00 00	 DD	 $LN4@WindowProc
  0097c	00 00 00 00	 DD	 $LN31@WindowProc
  00980	00 00 00 00	 DD	 $LN29@WindowProc
  00984	00 00 00 00	 DD	 $LN30@WindowProc
  00988	00 00 00 00	 DD	 $LN32@WindowProc
  0098c	00 00 00 00	 DD	 $LN62@WindowProc
  00990	00 00 00 00	 DD	 $LN42@WindowProc
  00994	00 00 00 00	 DD	 $LN21@WindowProc
  00998	00 00 00 00	 DD	 $LN79@WindowProc
  0099c	00 00 00 00	 DD	 $LN25@WindowProc
  009a0	00 00 00 00	 DD	 $LN63@WindowProc
  009a4	00 00 00 00	 DD	 $LN22@WindowProc
  009a8	00 00 00 00	 DD	 $LN66@WindowProc
  009ac	00 00 00 00	 DD	 $LN83@WindowProc
$LN185@WindowProc:
  009b0	00		 DB	 0
  009b1	16		 DB	 22			; 00000016H
  009b2	01		 DB	 1
  009b3	16		 DB	 22			; 00000016H
  009b4	16		 DB	 22			; 00000016H
  009b5	16		 DB	 22			; 00000016H
  009b6	16		 DB	 22			; 00000016H
  009b7	16		 DB	 22			; 00000016H
  009b8	16		 DB	 22			; 00000016H
  009b9	16		 DB	 22			; 00000016H
  009ba	02		 DB	 2
  009bb	16		 DB	 22			; 00000016H
  009bc	16		 DB	 22			; 00000016H
  009bd	16		 DB	 22			; 00000016H
  009be	16		 DB	 22			; 00000016H
  009bf	16		 DB	 22			; 00000016H
  009c0	16		 DB	 22			; 00000016H
  009c1	16		 DB	 22			; 00000016H
  009c2	03		 DB	 3
  009c3	16		 DB	 22			; 00000016H
  009c4	04		 DB	 4
  009c5	16		 DB	 22			; 00000016H
  009c6	16		 DB	 22			; 00000016H
  009c7	16		 DB	 22			; 00000016H
  009c8	16		 DB	 22			; 00000016H
  009c9	16		 DB	 22			; 00000016H
  009ca	16		 DB	 22			; 00000016H
  009cb	05		 DB	 5
  009cc	06		 DB	 6
  009cd	07		 DB	 7
  009ce	16		 DB	 22			; 00000016H
  009cf	16		 DB	 22			; 00000016H
  009d0	16		 DB	 22			; 00000016H
  009d1	16		 DB	 22			; 00000016H
  009d2	16		 DB	 22			; 00000016H
  009d3	16		 DB	 22			; 00000016H
  009d4	16		 DB	 22			; 00000016H
  009d5	16		 DB	 22			; 00000016H
  009d6	16		 DB	 22			; 00000016H
  009d7	08		 DB	 8
  009d8	16		 DB	 22			; 00000016H
  009d9	16		 DB	 22			; 00000016H
  009da	16		 DB	 22			; 00000016H
  009db	16		 DB	 22			; 00000016H
  009dc	16		 DB	 22			; 00000016H
  009dd	16		 DB	 22			; 00000016H
  009de	16		 DB	 22			; 00000016H
  009df	16		 DB	 22			; 00000016H
  009e0	16		 DB	 22			; 00000016H
  009e1	16		 DB	 22			; 00000016H
  009e2	16		 DB	 22			; 00000016H
  009e3	16		 DB	 22			; 00000016H
  009e4	16		 DB	 22			; 00000016H
  009e5	16		 DB	 22			; 00000016H
  009e6	16		 DB	 22			; 00000016H
  009e7	09		 DB	 9
  009e8	16		 DB	 22			; 00000016H
  009e9	16		 DB	 22			; 00000016H
  009ea	16		 DB	 22			; 00000016H
  009eb	16		 DB	 22			; 00000016H
  009ec	16		 DB	 22			; 00000016H
  009ed	0a		 DB	 10			; 0000000aH
  009ee	16		 DB	 22			; 00000016H
  009ef	0b		 DB	 11			; 0000000bH
  009f0	0c		 DB	 12			; 0000000cH
  009f1	16		 DB	 22			; 00000016H
  009f2	16		 DB	 22			; 00000016H
  009f3	16		 DB	 22			; 00000016H
  009f4	0d		 DB	 13			; 0000000dH
  009f5	16		 DB	 22			; 00000016H
  009f6	16		 DB	 22			; 00000016H
  009f7	16		 DB	 22			; 00000016H
  009f8	16		 DB	 22			; 00000016H
  009f9	16		 DB	 22			; 00000016H
  009fa	0e		 DB	 14			; 0000000eH
  009fb	16		 DB	 22			; 00000016H
  009fc	16		 DB	 22			; 00000016H
  009fd	16		 DB	 22			; 00000016H
  009fe	0f		 DB	 15			; 0000000fH
  009ff	16		 DB	 22			; 00000016H
  00a00	16		 DB	 22			; 00000016H
  00a01	16		 DB	 22			; 00000016H
  00a02	16		 DB	 22			; 00000016H
  00a03	16		 DB	 22			; 00000016H
  00a04	16		 DB	 22			; 00000016H
  00a05	16		 DB	 22			; 00000016H
  00a06	16		 DB	 22			; 00000016H
  00a07	16		 DB	 22			; 00000016H
  00a08	16		 DB	 22			; 00000016H
  00a09	16		 DB	 22			; 00000016H
  00a0a	16		 DB	 22			; 00000016H
  00a0b	16		 DB	 22			; 00000016H
  00a0c	16		 DB	 22			; 00000016H
  00a0d	16		 DB	 22			; 00000016H
  00a0e	16		 DB	 22			; 00000016H
  00a0f	16		 DB	 22			; 00000016H
  00a10	16		 DB	 22			; 00000016H
  00a11	16		 DB	 22			; 00000016H
  00a12	16		 DB	 22			; 00000016H
  00a13	16		 DB	 22			; 00000016H
  00a14	16		 DB	 22			; 00000016H
  00a15	16		 DB	 22			; 00000016H
  00a16	16		 DB	 22			; 00000016H
  00a17	16		 DB	 22			; 00000016H
  00a18	16		 DB	 22			; 00000016H
  00a19	16		 DB	 22			; 00000016H
  00a1a	16		 DB	 22			; 00000016H
  00a1b	16		 DB	 22			; 00000016H
  00a1c	16		 DB	 22			; 00000016H
  00a1d	16		 DB	 22			; 00000016H
  00a1e	16		 DB	 22			; 00000016H
  00a1f	16		 DB	 22			; 00000016H
  00a20	16		 DB	 22			; 00000016H
  00a21	16		 DB	 22			; 00000016H
  00a22	16		 DB	 22			; 00000016H
  00a23	16		 DB	 22			; 00000016H
  00a24	16		 DB	 22			; 00000016H
  00a25	16		 DB	 22			; 00000016H
  00a26	16		 DB	 22			; 00000016H
  00a27	16		 DB	 22			; 00000016H
  00a28	16		 DB	 22			; 00000016H
  00a29	16		 DB	 22			; 00000016H
  00a2a	16		 DB	 22			; 00000016H
  00a2b	16		 DB	 22			; 00000016H
  00a2c	16		 DB	 22			; 00000016H
  00a2d	16		 DB	 22			; 00000016H
  00a2e	16		 DB	 22			; 00000016H
  00a2f	16		 DB	 22			; 00000016H
  00a30	16		 DB	 22			; 00000016H
  00a31	16		 DB	 22			; 00000016H
  00a32	16		 DB	 22			; 00000016H
  00a33	16		 DB	 22			; 00000016H
  00a34	16		 DB	 22			; 00000016H
  00a35	16		 DB	 22			; 00000016H
  00a36	16		 DB	 22			; 00000016H
  00a37	16		 DB	 22			; 00000016H
  00a38	16		 DB	 22			; 00000016H
  00a39	16		 DB	 22			; 00000016H
  00a3a	16		 DB	 22			; 00000016H
  00a3b	16		 DB	 22			; 00000016H
  00a3c	16		 DB	 22			; 00000016H
  00a3d	16		 DB	 22			; 00000016H
  00a3e	16		 DB	 22			; 00000016H
  00a3f	16		 DB	 22			; 00000016H
  00a40	16		 DB	 22			; 00000016H
  00a41	16		 DB	 22			; 00000016H
  00a42	16		 DB	 22			; 00000016H
  00a43	16		 DB	 22			; 00000016H
  00a44	16		 DB	 22			; 00000016H
  00a45	16		 DB	 22			; 00000016H
  00a46	16		 DB	 22			; 00000016H
  00a47	16		 DB	 22			; 00000016H
  00a48	16		 DB	 22			; 00000016H
  00a49	16		 DB	 22			; 00000016H
  00a4a	16		 DB	 22			; 00000016H
  00a4b	16		 DB	 22			; 00000016H
  00a4c	16		 DB	 22			; 00000016H
  00a4d	16		 DB	 22			; 00000016H
  00a4e	16		 DB	 22			; 00000016H
  00a4f	16		 DB	 22			; 00000016H
  00a50	16		 DB	 22			; 00000016H
  00a51	16		 DB	 22			; 00000016H
  00a52	16		 DB	 22			; 00000016H
  00a53	16		 DB	 22			; 00000016H
  00a54	16		 DB	 22			; 00000016H
  00a55	16		 DB	 22			; 00000016H
  00a56	16		 DB	 22			; 00000016H
  00a57	16		 DB	 22			; 00000016H
  00a58	16		 DB	 22			; 00000016H
  00a59	16		 DB	 22			; 00000016H
  00a5a	16		 DB	 22			; 00000016H
  00a5b	10		 DB	 16			; 00000010H
  00a5c	11		 DB	 17			; 00000011H
  00a5d	16		 DB	 22			; 00000016H
  00a5e	16		 DB	 22			; 00000016H
  00a5f	16		 DB	 22			; 00000016H
  00a60	12		 DB	 18			; 00000012H
  00a61	16		 DB	 22			; 00000016H
  00a62	16		 DB	 22			; 00000016H
  00a63	16		 DB	 22			; 00000016H
  00a64	13		 DB	 19			; 00000013H
  00a65	16		 DB	 22			; 00000016H
  00a66	16		 DB	 22			; 00000016H
  00a67	16		 DB	 22			; 00000016H
  00a68	16		 DB	 22			; 00000016H
  00a69	16		 DB	 22			; 00000016H
  00a6a	16		 DB	 22			; 00000016H
  00a6b	16		 DB	 22			; 00000016H
  00a6c	16		 DB	 22			; 00000016H
  00a6d	16		 DB	 22			; 00000016H
  00a6e	16		 DB	 22			; 00000016H
  00a6f	16		 DB	 22			; 00000016H
  00a70	16		 DB	 22			; 00000016H
  00a71	16		 DB	 22			; 00000016H
  00a72	14		 DB	 20			; 00000014H
  00a73	16		 DB	 22			; 00000016H
  00a74	16		 DB	 22			; 00000016H
  00a75	16		 DB	 22			; 00000016H
  00a76	16		 DB	 22			; 00000016H
  00a77	15		 DB	 21			; 00000015H
_TEXT	ENDS
;	COMDAT text$x
text$x	SEGMENT
__unwindfunclet$?WindowProc@CExtInputBarDlg@@MAEJIIJ@Z$0:
  00000	8d 4d dc	 lea	 ecx, DWORD PTR _strBy$7[ebp]
  00003	ff 25 00 00 00
	00		 jmp	 DWORD PTR __imp_??1?$CStringT@DV?$StrTraitMFC_DLL@DV?$ChTraitsCRT@D@ATL@@@@@ATL@@QAE@XZ
__unwindfunclet$?WindowProc@CExtInputBarDlg@@MAEJIIJ@Z$1:
  00009	8d 4d d8	 lea	 ecx, DWORD PTR _strOrgBy$3[ebp]
  0000c	ff 25 00 00 00
	00		 jmp	 DWORD PTR __imp_??1?$CStringT@DV?$StrTraitMFC_DLL@DV?$ChTraitsCRT@D@ATL@@@@@ATL@@QAE@XZ
__unwindfunclet$?WindowProc@CExtInputBarDlg@@MAEJIIJ@Z$2:
  00012	8d 4d dc	 lea	 ecx, DWORD PTR _strComment$6[ebp]
  00015	ff 25 00 00 00
	00		 jmp	 DWORD PTR __imp_??1?$CStringT@DV?$StrTraitMFC_DLL@DV?$ChTraitsCRT@D@ATL@@@@@ATL@@QAE@XZ
__unwindfunclet$?WindowProc@CExtInputBarDlg@@MAEJIIJ@Z$6:
  0001b	8d 4d dc	 lea	 ecx, DWORD PTR $T5[ebp]
  0001e	ff 25 00 00 00
	00		 jmp	 DWORD PTR __imp_??1?$CStringT@DV?$StrTraitMFC_DLL@DV?$ChTraitsCRT@D@ATL@@@@@ATL@@QAE@XZ
__unwindfunclet$?WindowProc@CExtInputBarDlg@@MAEJIIJ@Z$9:
  00024	8d 4d dc	 lea	 ecx, DWORD PTR $T4[ebp]
  00027	ff 25 00 00 00
	00		 jmp	 DWORD PTR __imp_??1?$CStringT@DV?$StrTraitMFC_DLL@DV?$ChTraitsCRT@D@ATL@@@@@ATL@@QAE@XZ
__unwindfunclet$?WindowProc@CExtInputBarDlg@@MAEJIIJ@Z$14:
  0002d	8d 4d d8	 lea	 ecx, DWORD PTR _szDebug$2[ebp]
  00030	ff 25 00 00 00
	00		 jmp	 DWORD PTR __imp_??1?$CStringT@DV?$StrTraitMFC_DLL@DV?$ChTraitsCRT@D@ATL@@@@@ATL@@QAE@XZ
  00036	cc		 int	 3
  00037	cc		 int	 3
  00038	cc		 int	 3
  00039	cc		 int	 3
  0003a	cc		 int	 3
__ehhandler$?WindowProc@CExtInputBarDlg@@MAEJIIJ@Z:
  0003b	90		 npad	 1
  0003c	90		 npad	 1
  0003d	8b 54 24 08	 mov	 edx, DWORD PTR [esp+8]
  00041	8d 42 0c	 lea	 eax, DWORD PTR [edx+12]
  00044	8b 4a d0	 mov	 ecx, DWORD PTR [edx-48]
  00047	33 c8		 xor	 ecx, eax
  00049	e8 00 00 00 00	 call	 @__security_check_cookie@4
  0004e	8b 4a fc	 mov	 ecx, DWORD PTR [edx-4]
  00051	33 c8		 xor	 ecx, eax
  00053	e8 00 00 00 00	 call	 @__security_check_cookie@4
  00058	b8 00 00 00 00	 mov	 eax, OFFSET __ehfuncinfo$?WindowProc@CExtInputBarDlg@@MAEJIIJ@Z
  0005d	e9 00 00 00 00	 jmp	 ___CxxFrameHandler3
text$x	ENDS
?WindowProc@CExtInputBarDlg@@MAEJIIJ@Z ENDP		; CExtInputBarDlg::WindowProc
; Function compile flags: /Ogtp
; File D:\git\src\IBK\IBK_DRFN\ProjSrc\SrcDrfn\Chart\MULTICHART\ExtInputBarDlg.cpp
;	COMDAT ?DoDataExchange@CExtInputBarDlg@@MAEXPAVCDataExchange@@@Z
_TEXT	SEGMENT
_pDX$ = 8						; size = 4
?DoDataExchange@CExtInputBarDlg@@MAEXPAVCDataExchange@@@Z PROC ; CExtInputBarDlg::DoDataExchange, COMDAT
; _this$ = ecx

; 95   : {

  00000	55		 push	 ebp
  00001	8b ec		 mov	 ebp, esp
  00003	56		 push	 esi
  00004	57		 push	 edi

; 96   : 	CRscDlg::DoDataExchange(pDX);

  00005	8b 7d 08	 mov	 edi, DWORD PTR _pDX$[ebp]
  00008	8b f1		 mov	 esi, ecx
  0000a	57		 push	 edi
  0000b	e8 00 00 00 00	 call	 ?DoDataExchange@CRscDlg@@MAEXPAVCDataExchange@@@Z ; CRscDlg::DoDataExchange

; 97   : 	//{{AFX_DATA_MAP(CExtInputBarDlg)
; 98   : 	DDX_Control(pDX, IDC_BTSCROLLPRE, m_btScrollPre);

  00010	8d 86 68 01 00
	00		 lea	 eax, DWORD PTR [esi+360]
  00016	50		 push	 eax
  00017	68 3f 18 00 00	 push	 6207			; 0000183fH
  0001c	57		 push	 edi
  0001d	e8 00 00 00 00	 call	 ?DDX_Control@@YGXPAVCDataExchange@@HAAVCWnd@@@Z ; DDX_Control

; 99   : 	DDX_Control(pDX, IDC_BTSCROLLNEXT, m_btScrollNext);

  00022	8d 86 c8 02 00
	00		 lea	 eax, DWORD PTR [esi+712]
  00028	50		 push	 eax
  00029	68 40 18 00 00	 push	 6208			; 00001840H
  0002e	57		 push	 edi
  0002f	e8 00 00 00 00	 call	 ?DDX_Control@@YGXPAVCDataExchange@@HAAVCWnd@@@Z ; DDX_Control

; 100  : 	DDX_Control(pDX, IDC_BTSCROLLSTOP, m_btScrollStop);

  00034	8d 86 28 04 00
	00		 lea	 eax, DWORD PTR [esi+1064]
  0003a	50		 push	 eax
  0003b	68 3e 18 00 00	 push	 6206			; 0000183eH
  00040	57		 push	 edi
  00041	e8 00 00 00 00	 call	 ?DDX_Control@@YGXPAVCDataExchange@@HAAVCWnd@@@Z ; DDX_Control

; 101  : 	DDX_Control(pDX, IDC_BTN_GWANSIM, m_btnGwanSim);

  00046	8d 86 88 05 00
	00		 lea	 eax, DWORD PTR [esi+1416]
  0004c	50		 push	 eax
  0004d	68 49 18 00 00	 push	 6217			; 00001849H
  00052	57		 push	 edi
  00053	e8 00 00 00 00	 call	 ?DDX_Control@@YGXPAVCDataExchange@@HAAVCWnd@@@Z ; DDX_Control

; 102  : //@	DDX_Control(pDX, IDC_BTN_CHANGETOOL, m_btnChangeTool);
; 103  : //@	DDX_Control(pDX, IDC_BT_SUB1, m_btSub1);
; 104  : 	DDX_Control(pDX, IDC_BT_SUB2, m_btSub2);

  00058	8d 86 e8 06 00
	00		 lea	 eax, DWORD PTR [esi+1768]
  0005e	50		 push	 eax
  0005f	68 13 18 00 00	 push	 6163			; 00001813H
  00064	57		 push	 edi
  00065	e8 00 00 00 00	 call	 ?DDX_Control@@YGXPAVCDataExchange@@HAAVCWnd@@@Z ; DDX_Control

; 105  : //@	DDX_Control(pDX, IDC_BT_SUB3, m_btSub3);
; 106  : //@	DDX_Control(pDX, IDC_BT_SUB4, m_btSub4);
; 107  : //@	DDX_Control(pDX, IDC_BT_SUB5, m_btSub5);
; 108  : //@	DDX_Control(pDX, IDC_BT_SUB6, m_btSub6);
; 109  : //@	DDX_Control(pDX, IDC_BT_SUB7, m_btSub7);
; 110  : //@	DDX_Control(pDX, IDC_BT_SUB8, m_btSub8);
; 111  : //@	DDX_Control(pDX, IDC_BT_SUB9, m_btSub9);
; 112  : //@	DDX_Control(pDX, IDC_BT_SUB10, m_btSub10);
; 113  : //@	DDX_Control(pDX, IDC_BT_SUB11, m_btSub11);
; 114  : //@	DDX_Control(pDX, IDC_BT_SUB12, m_btSub12);
; 115  : //@	DDX_Control(pDX, IDC_BT_SUB13, m_btSub13);
; 116  : //@	DDX_Control(pDX, IDC_BT_SUB14, m_btSub14);
; 117  : 	DDX_Control(pDX, IDC_BTETCMENU, m_btEtcMenu);

  0006a	8d 86 48 08 00
	00		 lea	 eax, DWORD PTR [esi+2120]
  00070	50		 push	 eax
  00071	68 31 18 00 00	 push	 6193			; 00001831H
  00076	57		 push	 edi
  00077	e8 00 00 00 00	 call	 ?DDX_Control@@YGXPAVCDataExchange@@HAAVCWnd@@@Z ; DDX_Control

; 118  : 	DDX_Control(pDX, IDC_BTINITIAL, m_btInitial);

  0007c	8d 86 a8 09 00
	00		 lea	 eax, DWORD PTR [esi+2472]
  00082	50		 push	 eax
  00083	68 0b 18 00 00	 push	 6155			; 0000180bH
  00088	57		 push	 edi
  00089	e8 00 00 00 00	 call	 ?DDX_Control@@YGXPAVCDataExchange@@HAAVCWnd@@@Z ; DDX_Control

; 119  : 	DDX_Control(pDX, IDC_BTN_CONFIG, m_btChartConfig);

  0008e	8d 86 08 0b 00
	00		 lea	 eax, DWORD PTR [esi+2824]
  00094	50		 push	 eax
  00095	68 99 18 00 00	 push	 6297			; 00001899H
  0009a	57		 push	 edi
  0009b	e8 00 00 00 00	 call	 ?DDX_Control@@YGXPAVCDataExchange@@HAAVCWnd@@@Z ; DDX_Control

; 120  : //@ DDX_Control(pDX, IDC_BTINITIAL_PERIOD, m_btInitial_Period);
; 121  : 	DDX_Control(pDX, IDC_BTN_PERIOD, m_btnPeriod);

  000a0	8d 86 68 0c 00
	00		 lea	 eax, DWORD PTR [esi+3176]
  000a6	50		 push	 eax
  000a7	68 4f 18 00 00	 push	 6223			; 0000184fH
  000ac	57		 push	 edi
  000ad	e8 00 00 00 00	 call	 ?DDX_Control@@YGXPAVCDataExchange@@HAAVCWnd@@@Z ; DDX_Control

; 122  : 	DDX_Control(pDX, IDC_CHKUPDATEINDEX, m_chkUpdateIndex);

  000b2	8d 86 c8 0d 00
	00		 lea	 eax, DWORD PTR [esi+3528]
  000b8	50		 push	 eax
  000b9	68 1d 18 00 00	 push	 6173			; 0000181dH
  000be	57		 push	 edi
  000bf	e8 00 00 00 00	 call	 ?DDX_Control@@YGXPAVCDataExchange@@HAAVCWnd@@@Z ; DDX_Control

; 123  : 	DDX_Control(pDX, IDC_CHK_ENDSAVE, m_chkEndSave);

  000c4	8d 86 28 0f 00
	00		 lea	 eax, DWORD PTR [esi+3880]
  000ca	50		 push	 eax
  000cb	68 67 18 00 00	 push	 6247			; 00001867H
  000d0	57		 push	 edi
  000d1	e8 00 00 00 00	 call	 ?DDX_Control@@YGXPAVCDataExchange@@HAAVCWnd@@@Z ; DDX_Control

; 124  : 	DDX_Control(pDX, IDC_BTN_BUYSCR, m_btnBuyScreen);

  000d6	8d 86 a8 0f 00
	00		 lea	 eax, DWORD PTR [esi+4008]
  000dc	50		 push	 eax
  000dd	68 4c 18 00 00	 push	 6220			; 0000184cH
  000e2	57		 push	 edi
  000e3	e8 00 00 00 00	 call	 ?DDX_Control@@YGXPAVCDataExchange@@HAAVCWnd@@@Z ; DDX_Control

; 125  : 	DDX_Control(pDX, IDC_BTN_SELLSCR, m_btnSellScreen);

  000e8	8d 86 08 11 00
	00		 lea	 eax, DWORD PTR [esi+4360]
  000ee	50		 push	 eax
  000ef	68 4b 18 00 00	 push	 6219			; 0000184bH
  000f4	57		 push	 edi
  000f5	e8 00 00 00 00	 call	 ?DDX_Control@@YGXPAVCDataExchange@@HAAVCWnd@@@Z ; DDX_Control

; 126  : 	DDX_Control(pDX, IDC_BTN_SDATE, m_btnStartDate);

  000fa	8d 86 68 12 00
	00		 lea	 eax, DWORD PTR [esi+4712]
  00100	50		 push	 eax
  00101	68 4d 18 00 00	 push	 6221			; 0000184dH
  00106	57		 push	 edi
  00107	e8 00 00 00 00	 call	 ?DDX_Control@@YGXPAVCDataExchange@@HAAVCWnd@@@Z ; DDX_Control

; 127  : 	DDX_Control(pDX, IDC_BTN_EDATE, m_btnEndDate);

  0010c	8d 86 c8 13 00
	00		 lea	 eax, DWORD PTR [esi+5064]
  00112	50		 push	 eax
  00113	68 4e 18 00 00	 push	 6222			; 0000184eH
  00118	57		 push	 edi
  00119	e8 00 00 00 00	 call	 ?DDX_Control@@YGXPAVCDataExchange@@HAAVCWnd@@@Z ; DDX_Control

; 128  : 	DDX_Control(pDX, IDC_BTFIXPERIOD, m_btFixPeriod);

  0011e	8d 86 28 15 00
	00		 lea	 eax, DWORD PTR [esi+5416]
  00124	50		 push	 eax
  00125	68 01 18 00 00	 push	 6145			; 00001801H
  0012a	57		 push	 edi
  0012b	e8 00 00 00 00	 call	 ?DDX_Control@@YGXPAVCDataExchange@@HAAVCWnd@@@Z ; DDX_Control

; 129  : 	DDX_Control(pDX, IDC_BTST, m_btST);

  00130	8d 86 88 16 00
	00		 lea	 eax, DWORD PTR [esi+5768]
  00136	50		 push	 eax
  00137	68 47 18 00 00	 push	 6215			; 00001847H
  0013c	57		 push	 edi
  0013d	e8 00 00 00 00	 call	 ?DDX_Control@@YGXPAVCDataExchange@@HAAVCWnd@@@Z ; DDX_Control

; 130  : 	DDX_Control(pDX, IDC_BTHIST, m_btHist);

  00142	8d 86 e8 17 00
	00		 lea	 eax, DWORD PTR [esi+6120]
  00148	50		 push	 eax
  00149	68 46 18 00 00	 push	 6214			; 00001846H
  0014e	57		 push	 edi
  0014f	e8 00 00 00 00	 call	 ?DDX_Control@@YGXPAVCDataExchange@@HAAVCWnd@@@Z ; DDX_Control

; 131  : 	DDX_Control(pDX, IDC_BTCHARTGUIDELINE, m_btChartGuideLine);

  00154	8d 86 48 19 00
	00		 lea	 eax, DWORD PTR [esi+6472]
  0015a	50		 push	 eax
  0015b	68 43 18 00 00	 push	 6211			; 00001843H
  00160	57		 push	 edi
  00161	e8 00 00 00 00	 call	 ?DDX_Control@@YGXPAVCDataExchange@@HAAVCWnd@@@Z ; DDX_Control

; 132  : 	DDX_Control(pDX, IDC_BTANALYSISPATTERN, m_btAnalysisPattern);

  00166	8d 86 a8 1a 00
	00		 lea	 eax, DWORD PTR [esi+6824]
  0016c	50		 push	 eax
  0016d	68 42 18 00 00	 push	 6210			; 00001842H
  00172	57		 push	 edi
  00173	e8 00 00 00 00	 call	 ?DDX_Control@@YGXPAVCDataExchange@@HAAVCWnd@@@Z ; DDX_Control

; 133  : 	DDX_Control(pDX, IDC_BTEXPREV, m_btExPrev);

  00178	8d 86 08 1c 00
	00		 lea	 eax, DWORD PTR [esi+7176]
  0017e	50		 push	 eax
  0017f	68 3c 18 00 00	 push	 6204			; 0000183cH
  00184	57		 push	 edi
  00185	e8 00 00 00 00	 call	 ?DDX_Control@@YGXPAVCDataExchange@@HAAVCWnd@@@Z ; DDX_Control

; 134  : 	DDX_Control(pDX, IDC_BTEXNEXT, m_btExNext);

  0018a	8d 86 68 1d 00
	00		 lea	 eax, DWORD PTR [esi+7528]
  00190	50		 push	 eax
  00191	68 3d 18 00 00	 push	 6205			; 0000183dH
  00196	57		 push	 edi
  00197	e8 00 00 00 00	 call	 ?DDX_Control@@YGXPAVCDataExchange@@HAAVCWnd@@@Z ; DDX_Control

; 135  : 	DDX_Control(pDX, IDC_BTSHOWMATRIX, m_btShowMatrix);

  0019c	8d 86 c8 1e 00
	00		 lea	 eax, DWORD PTR [esi+7880]
  001a2	50		 push	 eax
  001a3	68 3b 18 00 00	 push	 6203			; 0000183bH
  001a8	57		 push	 edi
  001a9	e8 00 00 00 00	 call	 ?DDX_Control@@YGXPAVCDataExchange@@HAAVCWnd@@@Z ; DDX_Control

; 136  : 	DDX_Control(pDX, IDC_BTSETENVIR, m_btSetEnvir);

  001ae	8d 86 28 20 00
	00		 lea	 eax, DWORD PTR [esi+8232]
  001b4	50		 push	 eax
  001b5	68 0f 18 00 00	 push	 6159			; 0000180fH
  001ba	57		 push	 edi
  001bb	e8 00 00 00 00	 call	 ?DDX_Control@@YGXPAVCDataExchange@@HAAVCWnd@@@Z ; DDX_Control

; 137  : 	DDX_Control(pDX, IDC_CHKSHOWSCALE, m_chkShowScale);

  001c0	8d 86 88 21 00
	00		 lea	 eax, DWORD PTR [esi+8584]
  001c6	50		 push	 eax
  001c7	68 17 18 00 00	 push	 6167			; 00001817H
  001cc	57		 push	 edi
  001cd	e8 00 00 00 00	 call	 ?DDX_Control@@YGXPAVCDataExchange@@HAAVCWnd@@@Z ; DDX_Control

; 138  : 	DDX_Control(pDX, IDC_CHKJONGMOKLINK, m_chkJongmokLink);

  001d2	8d 86 48 24 00
	00		 lea	 eax, DWORD PTR [esi+9288]
  001d8	50		 push	 eax
  001d9	68 1b 18 00 00	 push	 6171			; 0000181bH
  001de	57		 push	 edi
  001df	e8 00 00 00 00	 call	 ?DDX_Control@@YGXPAVCDataExchange@@HAAVCWnd@@@Z ; DDX_Control

; 139  : 	DDX_Control(pDX, IDC_BTPRINT, m_btPrint);

  001e4	8d 86 a8 25 00
	00		 lea	 eax, DWORD PTR [esi+9640]
  001ea	50		 push	 eax
  001eb	68 0e 18 00 00	 push	 6158			; 0000180eH
  001f0	57		 push	 edi
  001f1	e8 00 00 00 00	 call	 ?DDX_Control@@YGXPAVCDataExchange@@HAAVCWnd@@@Z ; DDX_Control

; 140  : 	DDX_Control(pDX, IDC_BTLOAD, m_btLoad);

  001f6	8d 86 08 27 00
	00		 lea	 eax, DWORD PTR [esi+9992]
  001fc	50		 push	 eax
  001fd	68 0d 18 00 00	 push	 6157			; 0000180dH
  00202	57		 push	 edi
  00203	e8 00 00 00 00	 call	 ?DDX_Control@@YGXPAVCDataExchange@@HAAVCWnd@@@Z ; DDX_Control

; 141  : 	DDX_Control(pDX, IDC_BTSAVE, m_btSave);

  00208	8d 86 68 28 00
	00		 lea	 eax, DWORD PTR [esi+10344]
  0020e	50		 push	 eax
  0020f	68 0c 18 00 00	 push	 6156			; 0000180cH
  00214	57		 push	 edi
  00215	e8 00 00 00 00	 call	 ?DDX_Control@@YGXPAVCDataExchange@@HAAVCWnd@@@Z ; DDX_Control

; 142  : 	DDX_Control(pDX, IDC_CHKTYPELINK, m_chkTypeLink);

  0021a	8d 86 c8 29 00
	00		 lea	 eax, DWORD PTR [esi+10696]
  00220	50		 push	 eax
  00221	68 1c 18 00 00	 push	 6172			; 0000181cH
  00226	57		 push	 edi
  00227	e8 00 00 00 00	 call	 ?DDX_Control@@YGXPAVCDataExchange@@HAAVCWnd@@@Z ; DDX_Control

; 143  : 	DDX_Control(pDX, IDC_BTINITSPLIT, m_btInitSplit);

  0022c	8d 86 28 2b 00
	00		 lea	 eax, DWORD PTR [esi+11048]
  00232	50		 push	 eax
  00233	68 09 18 00 00	 push	 6153			; 00001809H
  00238	57		 push	 edi
  00239	e8 00 00 00 00	 call	 ?DDX_Control@@YGXPAVCDataExchange@@HAAVCWnd@@@Z ; DDX_Control

; 144  : 	DDX_Control(pDX, IDC_STBY, m_stBy);

  0023e	8d 86 88 2c 00
	00		 lea	 eax, DWORD PTR [esi+11400]
  00244	50		 push	 eax
  00245	68 1a 18 00 00	 push	 6170			; 0000181aH
  0024a	57		 push	 edi
  0024b	e8 00 00 00 00	 call	 ?DDX_Control@@YGXPAVCDataExchange@@HAAVCWnd@@@Z ; DDX_Control

; 145  : 	DDX_Control(pDX, IDC_STSETMATRIX, m_stSetMatrix);

  00250	8d 86 08 2d 00
	00		 lea	 eax, DWORD PTR [esi+11528]
  00256	50		 push	 eax
  00257	68 19 18 00 00	 push	 6169			; 00001819H
  0025c	57		 push	 edi
  0025d	e8 00 00 00 00	 call	 ?DDX_Control@@YGXPAVCDataExchange@@HAAVCWnd@@@Z ; DDX_Control

; 146  : 	DDX_Control(pDX, IDC_BTINDEX, m_btIndex);

  00262	8d 86 88 2d 00
	00		 lea	 eax, DWORD PTR [esi+11656]
  00268	50		 push	 eax
  00269	68 00 18 00 00	 push	 6144			; 00001800H
  0026e	57		 push	 edi
  0026f	e8 00 00 00 00	 call	 ?DDX_Control@@YGXPAVCDataExchange@@HAAVCWnd@@@Z ; DDX_Control

; 147  : 	DDX_Control(pDX, IDC_CHKFIXPERIOD, m_chkFixPeriod);

  00274	8d 86 e8 2e 00
	00		 lea	 eax, DWORD PTR [esi+12008]
  0027a	50		 push	 eax
  0027b	68 29 18 00 00	 push	 6185			; 00001829H
  00280	57		 push	 edi
  00281	e8 00 00 00 00	 call	 ?DDX_Control@@YGXPAVCDataExchange@@HAAVCWnd@@@Z ; DDX_Control

; 148  : 	DDX_Check(pDX, IDC_CHK_REVISED, m_bChkRevised);

  00286	8d 86 68 2f 00
	00		 lea	 eax, DWORD PTR [esi+12136]
  0028c	50		 push	 eax
  0028d	68 97 17 00 00	 push	 6039			; 00001797H
  00292	57		 push	 edi
  00293	e8 00 00 00 00	 call	 ?DDX_Check@@YGXPAVCDataExchange@@HAAH@Z ; DDX_Check

; 149  : 	DDX_Control(pDX, IDC_BTN_CHANGSYNIT, m_btYUnit);

  00298	8d 86 70 2f 00
	00		 lea	 eax, DWORD PTR [esi+12144]
  0029e	50		 push	 eax
  0029f	68 77 18 00 00	 push	 6263			; 00001877H
  002a4	57		 push	 edi
  002a5	e8 00 00 00 00	 call	 ?DDX_Control@@YGXPAVCDataExchange@@HAAVCWnd@@@Z ; DDX_Control

; 150  : 	DDX_Control(pDX, IDC_DATETIMEPICKER1, m_datePicker);

  002aa	8d 86 e0 00 00
	00		 lea	 eax, DWORD PTR [esi+224]
  002b0	50		 push	 eax
  002b1	68 26 18 00 00	 push	 6182			; 00001826H
  002b6	57		 push	 edi
  002b7	e8 00 00 00 00	 call	 ?DDX_Control@@YGXPAVCDataExchange@@HAAVCWnd@@@Z ; DDX_Control

; 151  : //@
; 152  : 	DDX_Control(pDX, IDC_CMB_SCROLLSPEED, m_cmbScrollSpeed);

  002bc	8d 86 d0 30 00
	00		 lea	 eax, DWORD PTR [esi+12496]
  002c2	50		 push	 eax
  002c3	68 76 18 00 00	 push	 6262			; 00001876H
  002c8	57		 push	 edi
  002c9	e8 00 00 00 00	 call	 ?DDX_Control@@YGXPAVCDataExchange@@HAAVCWnd@@@Z ; DDX_Control

; 153  : 	DDX_Control(pDX, IDC_CHK_QUERYOPT, m_chkQueryOpt);

  002ce	8d 86 58 31 00
	00		 lea	 eax, DWORD PTR [esi+12632]
  002d4	50		 push	 eax
  002d5	68 7f 18 00 00	 push	 6271			; 0000187fH
  002da	57		 push	 edi
  002db	e8 00 00 00 00	 call	 ?DDX_Control@@YGXPAVCDataExchange@@HAAVCWnd@@@Z ; DDX_Control
  002e0	5f		 pop	 edi
  002e1	5e		 pop	 esi

; 154  : //@
; 155  : 	//}}AFX_DATA_MAP
; 156  : }

  002e2	5d		 pop	 ebp
  002e3	c2 04 00	 ret	 4
?DoDataExchange@CExtInputBarDlg@@MAEXPAVCDataExchange@@@Z ENDP ; CExtInputBarDlg::DoDataExchange
_TEXT	ENDS
; Function compile flags: /Ogtp
; File D:\git\src\IBK\IBK_DRFN\ProjSrc\SrcDrfn\Chart\MULTICHART\ExtInputBarDlg.cpp
; File C:\Program Files (x86)\Microsoft Visual Studio\2019\Community\VC\Tools\MSVC\14.29.30133\atlmfc\include\afxwin2.inl
; File D:\git\src\IBK\IBK_DRFN\ProjSrc\SrcDrfn\Chart\MULTICHART\ExtInputBarDlg.cpp
;	COMDAT ?PreTranslateMessage@CExtInputBarDlg@@UAEHPAUtagMSG@@@Z
_TEXT	SEGMENT
_pMsg$ = 8						; size = 4
?PreTranslateMessage@CExtInputBarDlg@@UAEHPAUtagMSG@@@Z PROC ; CExtInputBarDlg::PreTranslateMessage, COMDAT
; _this$ = ecx

; 1801 : {

  00000	55		 push	 ebp
  00001	8b ec		 mov	 ebp, esp
  00003	56		 push	 esi

; 1802 : 	// TODO: Add your specialized code here and/or call the base class
; 1803 : 	switch(pMsg->message)

  00004	8b 75 08	 mov	 esi, DWORD PTR _pMsg$[ebp]
  00007	57		 push	 edi
  00008	8b f9		 mov	 edi, ecx
  0000a	81 7e 04 00 01
	00 00		 cmp	 DWORD PTR [esi+4], 256	; 00000100H
  00011	75 0d		 jne	 SHORT $LN16@PreTransla

; 1804 : 	{
; 1805 : 	case WM_KEYDOWN:
; 1806 : 		switch(pMsg->wParam) 

  00013	8b 46 08	 mov	 eax, DWORD PTR [esi+8]
  00016	83 f8 0d	 cmp	 eax, 13			; 0000000dH
  00019	74 46		 je	 SHORT $LN7@PreTransla
  0001b	83 f8 1b	 cmp	 eax, 27			; 0000001bH
  0001e	74 41		 je	 SHORT $LN7@PreTransla
$LN16@PreTransla:

; 1812 : 			}
; 1813 : 			break;
; 1814 : 		}		
; 1815 : 		break;
; 1816 : 	}
; 1817 : 	if(pMsg->wParam == VK_HOME)

  00020	83 7e 08 24	 cmp	 DWORD PTR [esi+8], 36	; 00000024H
  00024	74 3b		 je	 SHORT $LN7@PreTransla

; 1818 : 		return FALSE;
; 1819 : 	
; 1820 : 	if(::IsWindow(m_hWnd))

  00026	ff 77 20	 push	 DWORD PTR [edi+32]
  00029	ff 15 00 00 00
	00		 call	 DWORD PTR __imp__IsWindow@4
  0002f	85 c0		 test	 eax, eax
  00031	74 20		 je	 SHORT $LN10@PreTransla
; File C:\Program Files (x86)\Microsoft Visual Studio\2019\Community\VC\Tools\MSVC\14.29.30133\atlmfc\include\afxwin2.inl

; 213  : 	{ ASSERT(::IsWindow(m_hWnd)); return CWnd::FromHandle(::GetParent(m_hWnd)); }

  00033	ff 77 20	 push	 DWORD PTR [edi+32]
  00036	ff 15 00 00 00
	00		 call	 DWORD PTR __imp__GetParent@4
  0003c	50		 push	 eax
  0003d	e8 00 00 00 00	 call	 ?FromHandle@CWnd@@SGPAV1@PAUHWND__@@@Z ; CWnd::FromHandle
; File D:\git\src\IBK\IBK_DRFN\ProjSrc\SrcDrfn\Chart\MULTICHART\ExtInputBarDlg.cpp

; 1821 : 		return GetParent()->PreTranslateMessage(pMsg);

  00042	56		 push	 esi
  00043	8b c8		 mov	 ecx, eax
  00045	8b 10		 mov	 edx, DWORD PTR [eax]
  00047	ff 92 14 01 00
	00		 call	 DWORD PTR [edx+276]
  0004d	5f		 pop	 edi

; 1824 : }

  0004e	5e		 pop	 esi
  0004f	5d		 pop	 ebp
  00050	c2 04 00	 ret	 4
$LN10@PreTransla:

; 1822 : 	else
; 1823 : 		return CRscDlg::PreTranslateMessage(pMsg);	

  00053	56		 push	 esi
  00054	8b cf		 mov	 ecx, edi
  00056	e8 00 00 00 00	 call	 ?PreTranslateMessage@CDialog@@UAEHPAUtagMSG@@@Z ; CDialog::PreTranslateMessage
  0005b	5f		 pop	 edi

; 1824 : }

  0005c	5e		 pop	 esi
  0005d	5d		 pop	 ebp
  0005e	c2 04 00	 ret	 4
$LN7@PreTransla:
  00061	5f		 pop	 edi

; 1807 : 		{
; 1808 : 		case VK_RETURN :
; 1809 : 		case VK_ESCAPE :
; 1810 : 			{
; 1811 : 				return FALSE;			

  00062	33 c0		 xor	 eax, eax

; 1824 : }

  00064	5e		 pop	 esi
  00065	5d		 pop	 ebp
  00066	c2 04 00	 ret	 4
?PreTranslateMessage@CExtInputBarDlg@@UAEHPAUtagMSG@@@Z ENDP ; CExtInputBarDlg::PreTranslateMessage
_TEXT	ENDS
; Function compile flags: /Ogtp
; File D:\git\src\IBK\IBK_DRFN\ProjSrc\SrcDrfn\Chart\MULTICHART\ExtInputBarDlg.cpp
;	COMDAT ?SetMarketType@CExtInputBarDlg@@QAEXH@Z
_TEXT	SEGMENT
_nMarketType$ = 8					; size = 4
?SetMarketType@CExtInputBarDlg@@QAEXH@Z PROC		; CExtInputBarDlg::SetMarketType, COMDAT
; _this$ = ecx

; 2171 : {

  00000	55		 push	 ebp
  00001	8b ec		 mov	 ebp, esp

; 2172 : 	m_nMarketType = nMarketType;

  00003	8b 45 08	 mov	 eax, DWORD PTR _nMarketType$[ebp]
  00006	56		 push	 esi
  00007	57		 push	 edi
  00008	8b f9		 mov	 edi, ecx
  0000a	89 87 d4 00 00
	00		 mov	 DWORD PTR [edi+212], eax

; 2173 : 	if(m_nMarketType == CMasterTypeInfo::STOCK_CHART)	

  00010	8d 8f 70 2f 00
	00		 lea	 ecx, DWORD PTR [edi+12144]
  00016	85 c0		 test	 eax, eax
  00018	75 0d		 jne	 SHORT $LN2@SetMarketT

; 2174 : 	{
; 2175 : 		m_btYUnit.EnableWindow(TRUE);

  0001a	6a 01		 push	 1
  0001c	e8 00 00 00 00	 call	 ?EnableWindow@CWnd@@QAEHH@Z ; CWnd::EnableWindow
  00021	5f		 pop	 edi

; 2182 : 	}
; 2183 : } 

  00022	5e		 pop	 esi
  00023	5d		 pop	 ebp
  00024	c2 04 00	 ret	 4
$LN2@SetMarketT:

; 2176 : 	}
; 2177 : 	else
; 2178 : 	{
; 2179 : 		m_btYUnit.EnableWindow(FALSE);

  00027	6a 00		 push	 0
  00029	e8 00 00 00 00	 call	 ?EnableWindow@CWnd@@QAEHH@Z ; CWnd::EnableWindow

; 2180 : 		m_nYUnitType = WON_TICK;
; 2181 : 		m_btYUnit.SetWindowText("\\");

  0002e	68 00 00 00 00	 push	 OFFSET ??_C@_01KICIPPFI@?2@
  00033	8d 8f 70 2f 00
	00		 lea	 ecx, DWORD PTR [edi+12144]
  00039	c7 87 d8 00 00
	00 00 00 00 00	 mov	 DWORD PTR [edi+216], 0
  00043	e8 00 00 00 00	 call	 ?SetWindowTextA@CWnd@@QAEXPBD@Z ; CWnd::SetWindowTextA
  00048	5f		 pop	 edi

; 2182 : 	}
; 2183 : } 

  00049	5e		 pop	 esi
  0004a	5d		 pop	 ebp
  0004b	c2 04 00	 ret	 4
?SetMarketType@CExtInputBarDlg@@QAEXH@Z ENDP		; CExtInputBarDlg::SetMarketType
_TEXT	ENDS
; Function compile flags: /Ogtp
; File D:\git\src\IBK\IBK_DRFN\ProjSrc\SrcDrfn\Chart\MULTICHART\ExtInputBarDlg.cpp
; File C:\Program Files (x86)\Microsoft Visual Studio\2019\Community\VC\Tools\MSVC\14.29.30133\atlmfc\include\afxdtctl.inl
; File D:\git\src\IBK\IBK_DRFN\ProjSrc\SrcDrfn\Chart\MULTICHART\ExtInputBarDlg.cpp
; File C:\Program Files (x86)\Microsoft Visual Studio\2019\Community\VC\Tools\MSVC\14.29.30133\atlmfc\include\afxdtctl.inl
; File D:\git\src\IBK\IBK_DRFN\ProjSrc\SrcDrfn\Chart\MULTICHART\ExtInputBarDlg.cpp
; File C:\Program Files (x86)\Microsoft Visual Studio\2019\Community\VC\Tools\MSVC\14.29.30133\atlmfc\include\afxwin2.inl
; File D:\git\src\IBK\IBK_DRFN\ProjSrc\SrcDrfn\Chart\MULTICHART\ExtInputBarDlg.cpp
; File C:\Program Files (x86)\Microsoft Visual Studio\2019\Community\VC\Tools\MSVC\14.29.30133\atlmfc\include\afxwin2.inl
; File D:\git\src\IBK\IBK_DRFN\ProjSrc\SrcDrfn\Chart\MULTICHART\ExtInputBarDlg.cpp
; File C:\Program Files (x86)\Microsoft Visual Studio\2019\Community\VC\Tools\MSVC\14.29.30133\atlmfc\include\afxwin2.inl
; File D:\git\src\IBK\IBK_DRFN\ProjSrc\SrcDrfn\Chart\MULTICHART\ExtInputBarDlg.cpp
; File C:\Program Files (x86)\Microsoft Visual Studio\2019\Community\VC\Tools\MSVC\14.29.30133\atlmfc\include\afxwin2.inl
; File D:\git\src\IBK\IBK_DRFN\ProjSrc\SrcDrfn\Chart\MULTICHART\ExtInputBarDlg.cpp
; File C:\Program Files (x86)\Microsoft Visual Studio\2019\Community\VC\Tools\MSVC\14.29.30133\atlmfc\include\afxwin2.inl
; File D:\git\src\IBK\IBK_DRFN\ProjSrc\SrcDrfn\Chart\MULTICHART\ExtInputBarDlg.cpp
; File C:\Program Files (x86)\Microsoft Visual Studio\2019\Community\VC\Tools\MSVC\14.29.30133\atlmfc\include\afxwin2.inl
; File D:\git\src\IBK\IBK_DRFN\ProjSrc\SrcDrfn\Chart\MULTICHART\ExtInputBarDlg.cpp
; File C:\Program Files (x86)\Microsoft Visual Studio\2019\Community\VC\Tools\MSVC\14.29.30133\atlmfc\include\afxwin2.inl
; File D:\git\src\IBK\IBK_DRFN\ProjSrc\SrcDrfn\Chart\MULTICHART\ExtInputBarDlg.cpp
; File C:\Program Files (x86)\Microsoft Visual Studio\2019\Community\VC\Tools\MSVC\14.29.30133\atlmfc\include\afxwin2.inl
; File D:\git\src\IBK\IBK_DRFN\ProjSrc\SrcDrfn\Chart\MULTICHART\ExtInputBarDlg.cpp
; File C:\Program Files (x86)\Microsoft Visual Studio\2019\Community\VC\Tools\MSVC\14.29.30133\atlmfc\include\afxwin2.inl
; File D:\git\src\IBK\IBK_DRFN\ProjSrc\SrcDrfn\Chart\MULTICHART\ExtInputBarDlg.cpp
; File C:\Program Files (x86)\Microsoft Visual Studio\2019\Community\VC\Tools\MSVC\14.29.30133\atlmfc\include\afxwin2.inl
; File D:\git\src\IBK\IBK_DRFN\ProjSrc\SrcDrfn\Chart\MULTICHART\ExtInputBarDlg.cpp
; File C:\Program Files (x86)\Microsoft Visual Studio\2019\Community\VC\Tools\MSVC\14.29.30133\atlmfc\include\afxwin1.inl
; File D:\git\src\IBK\IBK_DRFN\ProjSrc\SrcDrfn\Chart\MULTICHART\ExtInputBarDlg.cpp
; File C:\Program Files (x86)\Microsoft Visual Studio\2019\Community\VC\Tools\MSVC\14.29.30133\atlmfc\include\afxtempl.h
; File D:\git\src\IBK\IBK_DRFN\ProjSrc\SrcDrfn\Chart\MULTICHART\ExtInputBarDlg.cpp
;	COMDAT ??0CExtInputBarDlg@@QAE@PAVCWnd@@@Z
_TEXT	SEGMENT
_this$ = -16						; size = 4
__$EHRec$ = -12						; size = 12
_this$ = 8						; size = 4
_this$ = 8						; size = 4
_this$ = 8						; size = 4
_this$ = 8						; size = 4
_this$ = 8						; size = 4
_this$ = 8						; size = 4
_pParent$ = 8						; size = 4
??0CExtInputBarDlg@@QAE@PAVCWnd@@@Z PROC		; CExtInputBarDlg::CExtInputBarDlg, COMDAT
; _this$ = ecx

; 35   : {

  00000	55		 push	 ebp
  00001	8b ec		 mov	 ebp, esp
  00003	6a ff		 push	 -1
  00005	68 00 00 00 00	 push	 __ehhandler$??0CExtInputBarDlg@@QAE@PAVCWnd@@@Z
  0000a	64 a1 00 00 00
	00		 mov	 eax, DWORD PTR fs:0
  00010	50		 push	 eax
  00011	51		 push	 ecx
  00012	53		 push	 ebx
  00013	56		 push	 esi
  00014	57		 push	 edi
  00015	a1 00 00 00 00	 mov	 eax, DWORD PTR ___security_cookie
  0001a	33 c5		 xor	 eax, ebp
  0001c	50		 push	 eax
  0001d	8d 45 f4	 lea	 eax, DWORD PTR __$EHRec$[ebp]
  00020	64 a3 00 00 00
	00		 mov	 DWORD PTR fs:0, eax
  00026	8b f1		 mov	 esi, ecx
  00028	89 75 f0	 mov	 DWORD PTR _this$[ebp], esi

; 34   : 	: CRscDlg(CExtInputBarDlg::IDD, pParent)

  0002b	ff 75 08	 push	 DWORD PTR _pParent$[ebp]
  0002e	68 7f 17 00 00	 push	 6015			; 0000177fH
  00033	e8 00 00 00 00	 call	 ??0CRscDlg@@QAE@IPAVCWnd@@@Z ; CRscDlg::CRscDlg

; 35   : {

  00038	8d 8e c0 00 00
	00		 lea	 ecx, DWORD PTR [esi+192]
  0003e	c7 45 fc 00 00
	00 00		 mov	 DWORD PTR __$EHRec$[ebp+8], 0
  00045	c7 06 00 00 00
	00		 mov	 DWORD PTR [esi], OFFSET ??_7CExtInputBarDlg@@6B@
  0004b	ff 15 00 00 00
	00		 call	 DWORD PTR __imp_??0?$CStringT@DV?$StrTraitMFC_DLL@DV?$ChTraitsCRT@D@ATL@@@@@ATL@@QAE@XZ
  00051	8d 9e c8 00 00
	00		 lea	 ebx, DWORD PTR [esi+200]
  00057	8b cb		 mov	 ecx, ebx
  00059	ff 15 00 00 00
	00		 call	 DWORD PTR __imp_??0?$CStringT@DV?$StrTraitMFC_DLL@DV?$ChTraitsCRT@D@ATL@@@@@ATL@@QAE@XZ
  0005f	8d be cc 00 00
	00		 lea	 edi, DWORD PTR [esi+204]
  00065	8b cf		 mov	 ecx, edi
  00067	ff 15 00 00 00
	00		 call	 DWORD PTR __imp_??0?$CStringT@DV?$StrTraitMFC_DLL@DV?$ChTraitsCRT@D@ATL@@@@@ATL@@QAE@XZ
  0006d	81 c6 e0 00 00
	00		 add	 esi, 224		; 000000e0H
  00073	c6 45 fc 03	 mov	 BYTE PTR __$EHRec$[ebp+8], 3
; File C:\Program Files (x86)\Microsoft Visual Studio\2019\Community\VC\Tools\MSVC\14.29.30133\atlmfc\include\afxdtctl.inl

; 25   : 	{ }

  00077	8b ce		 mov	 ecx, esi
; File D:\git\src\IBK\IBK_DRFN\ProjSrc\SrcDrfn\Chart\MULTICHART\ExtInputBarDlg.cpp

; 35   : {

  00079	89 75 08	 mov	 DWORD PTR _this$[ebp], esi
; File C:\Program Files (x86)\Microsoft Visual Studio\2019\Community\VC\Tools\MSVC\14.29.30133\atlmfc\include\afxdtctl.inl

; 25   : 	{ }

  0007c	e8 00 00 00 00	 call	 ??0CWnd@@QAE@XZ		; CWnd::CWnd
  00081	c7 06 00 00 00
	00		 mov	 DWORD PTR [esi], OFFSET ??_7CDateTimeCtrl@@6B@
; File D:\git\src\IBK\IBK_DRFN\ProjSrc\SrcDrfn\Chart\MULTICHART\ExtInputBarDlg.cpp

; 35   : {

  00087	8b 75 f0	 mov	 esi, DWORD PTR _this$[ebp]
  0008a	c6 45 fc 04	 mov	 BYTE PTR __$EHRec$[ebp+8], 4
  0008e	8d 8e 68 01 00
	00		 lea	 ecx, DWORD PTR [esi+360]
  00094	e8 00 00 00 00	 call	 ??0CILButton@@QAE@XZ	; CILButton::CILButton
  00099	8d 8e c8 02 00
	00		 lea	 ecx, DWORD PTR [esi+712]
  0009f	c6 45 fc 05	 mov	 BYTE PTR __$EHRec$[ebp+8], 5
  000a3	e8 00 00 00 00	 call	 ??0CILButton@@QAE@XZ	; CILButton::CILButton
  000a8	8d 8e 28 04 00
	00		 lea	 ecx, DWORD PTR [esi+1064]
  000ae	c6 45 fc 06	 mov	 BYTE PTR __$EHRec$[ebp+8], 6
  000b2	e8 00 00 00 00	 call	 ??0CILButton@@QAE@XZ	; CILButton::CILButton
  000b7	8d 8e 88 05 00
	00		 lea	 ecx, DWORD PTR [esi+1416]
  000bd	c6 45 fc 07	 mov	 BYTE PTR __$EHRec$[ebp+8], 7
  000c1	e8 00 00 00 00	 call	 ??0CILButton@@QAE@XZ	; CILButton::CILButton
  000c6	8d 8e e8 06 00
	00		 lea	 ecx, DWORD PTR [esi+1768]
  000cc	c6 45 fc 08	 mov	 BYTE PTR __$EHRec$[ebp+8], 8
  000d0	e8 00 00 00 00	 call	 ??0CILButton@@QAE@XZ	; CILButton::CILButton
  000d5	8d 8e 48 08 00
	00		 lea	 ecx, DWORD PTR [esi+2120]
  000db	c6 45 fc 09	 mov	 BYTE PTR __$EHRec$[ebp+8], 9
  000df	e8 00 00 00 00	 call	 ??0CILButton@@QAE@XZ	; CILButton::CILButton
  000e4	8d 8e a8 09 00
	00		 lea	 ecx, DWORD PTR [esi+2472]
  000ea	c6 45 fc 0a	 mov	 BYTE PTR __$EHRec$[ebp+8], 10 ; 0000000aH
  000ee	e8 00 00 00 00	 call	 ??0CILButton@@QAE@XZ	; CILButton::CILButton
  000f3	8d 8e 08 0b 00
	00		 lea	 ecx, DWORD PTR [esi+2824]
  000f9	c6 45 fc 0b	 mov	 BYTE PTR __$EHRec$[ebp+8], 11 ; 0000000bH
  000fd	e8 00 00 00 00	 call	 ??0CILButton@@QAE@XZ	; CILButton::CILButton
  00102	8d 8e 68 0c 00
	00		 lea	 ecx, DWORD PTR [esi+3176]
  00108	c6 45 fc 0c	 mov	 BYTE PTR __$EHRec$[ebp+8], 12 ; 0000000cH
  0010c	e8 00 00 00 00	 call	 ??0CILButton@@QAE@XZ	; CILButton::CILButton
  00111	8d 8e c8 0d 00
	00		 lea	 ecx, DWORD PTR [esi+3528]
  00117	c6 45 fc 0d	 mov	 BYTE PTR __$EHRec$[ebp+8], 13 ; 0000000dH
  0011b	e8 00 00 00 00	 call	 ??0CILButton@@QAE@XZ	; CILButton::CILButton
  00120	81 c6 28 0f 00
	00		 add	 esi, 3880		; 00000f28H
  00126	c6 45 fc 0e	 mov	 BYTE PTR __$EHRec$[ebp+8], 14 ; 0000000eH
; File C:\Program Files (x86)\Microsoft Visual Studio\2019\Community\VC\Tools\MSVC\14.29.30133\atlmfc\include\afxwin2.inl

; 622  : 	{ }

  0012a	8b ce		 mov	 ecx, esi
; File D:\git\src\IBK\IBK_DRFN\ProjSrc\SrcDrfn\Chart\MULTICHART\ExtInputBarDlg.cpp

; 35   : {

  0012c	89 75 08	 mov	 DWORD PTR _this$[ebp], esi
; File C:\Program Files (x86)\Microsoft Visual Studio\2019\Community\VC\Tools\MSVC\14.29.30133\atlmfc\include\afxwin2.inl

; 622  : 	{ }

  0012f	e8 00 00 00 00	 call	 ??0CWnd@@QAE@XZ		; CWnd::CWnd
  00134	c7 06 00 00 00
	00		 mov	 DWORD PTR [esi], OFFSET ??_7CButton@@6B@
; File D:\git\src\IBK\IBK_DRFN\ProjSrc\SrcDrfn\Chart\MULTICHART\ExtInputBarDlg.cpp

; 35   : {

  0013a	8b 75 f0	 mov	 esi, DWORD PTR _this$[ebp]
  0013d	c6 45 fc 0f	 mov	 BYTE PTR __$EHRec$[ebp+8], 15 ; 0000000fH
  00141	8d 8e a8 0f 00
	00		 lea	 ecx, DWORD PTR [esi+4008]
  00147	e8 00 00 00 00	 call	 ??0CILButton@@QAE@XZ	; CILButton::CILButton
  0014c	8d 8e 08 11 00
	00		 lea	 ecx, DWORD PTR [esi+4360]
  00152	c6 45 fc 10	 mov	 BYTE PTR __$EHRec$[ebp+8], 16 ; 00000010H
  00156	e8 00 00 00 00	 call	 ??0CILButton@@QAE@XZ	; CILButton::CILButton
  0015b	8d 8e 68 12 00
	00		 lea	 ecx, DWORD PTR [esi+4712]
  00161	c6 45 fc 11	 mov	 BYTE PTR __$EHRec$[ebp+8], 17 ; 00000011H
  00165	e8 00 00 00 00	 call	 ??0CILButton@@QAE@XZ	; CILButton::CILButton
  0016a	8d 8e c8 13 00
	00		 lea	 ecx, DWORD PTR [esi+5064]
  00170	c6 45 fc 12	 mov	 BYTE PTR __$EHRec$[ebp+8], 18 ; 00000012H
  00174	e8 00 00 00 00	 call	 ??0CILButton@@QAE@XZ	; CILButton::CILButton
  00179	8d 8e 28 15 00
	00		 lea	 ecx, DWORD PTR [esi+5416]
  0017f	c6 45 fc 13	 mov	 BYTE PTR __$EHRec$[ebp+8], 19 ; 00000013H
  00183	e8 00 00 00 00	 call	 ??0CILButton@@QAE@XZ	; CILButton::CILButton
  00188	8d 8e 88 16 00
	00		 lea	 ecx, DWORD PTR [esi+5768]
  0018e	c6 45 fc 14	 mov	 BYTE PTR __$EHRec$[ebp+8], 20 ; 00000014H
  00192	e8 00 00 00 00	 call	 ??0CILButton@@QAE@XZ	; CILButton::CILButton
  00197	8d 8e e8 17 00
	00		 lea	 ecx, DWORD PTR [esi+6120]
  0019d	c6 45 fc 15	 mov	 BYTE PTR __$EHRec$[ebp+8], 21 ; 00000015H
  001a1	e8 00 00 00 00	 call	 ??0CILButton@@QAE@XZ	; CILButton::CILButton
  001a6	8d 8e 48 19 00
	00		 lea	 ecx, DWORD PTR [esi+6472]
  001ac	c6 45 fc 16	 mov	 BYTE PTR __$EHRec$[ebp+8], 22 ; 00000016H
  001b0	e8 00 00 00 00	 call	 ??0CILButton@@QAE@XZ	; CILButton::CILButton
  001b5	8d 8e a8 1a 00
	00		 lea	 ecx, DWORD PTR [esi+6824]
  001bb	c6 45 fc 17	 mov	 BYTE PTR __$EHRec$[ebp+8], 23 ; 00000017H
  001bf	e8 00 00 00 00	 call	 ??0CILButton@@QAE@XZ	; CILButton::CILButton
  001c4	8d 8e 08 1c 00
	00		 lea	 ecx, DWORD PTR [esi+7176]
  001ca	c6 45 fc 18	 mov	 BYTE PTR __$EHRec$[ebp+8], 24 ; 00000018H
  001ce	e8 00 00 00 00	 call	 ??0CILButton@@QAE@XZ	; CILButton::CILButton
  001d3	8d 8e 68 1d 00
	00		 lea	 ecx, DWORD PTR [esi+7528]
  001d9	c6 45 fc 19	 mov	 BYTE PTR __$EHRec$[ebp+8], 25 ; 00000019H
  001dd	e8 00 00 00 00	 call	 ??0CILButton@@QAE@XZ	; CILButton::CILButton
  001e2	8d 8e c8 1e 00
	00		 lea	 ecx, DWORD PTR [esi+7880]
  001e8	c6 45 fc 1a	 mov	 BYTE PTR __$EHRec$[ebp+8], 26 ; 0000001aH
  001ec	e8 00 00 00 00	 call	 ??0CILButton@@QAE@XZ	; CILButton::CILButton
  001f1	8d 8e 28 20 00
	00		 lea	 ecx, DWORD PTR [esi+8232]
  001f7	c6 45 fc 1b	 mov	 BYTE PTR __$EHRec$[ebp+8], 27 ; 0000001bH
  001fb	e8 00 00 00 00	 call	 ??0CILButton@@QAE@XZ	; CILButton::CILButton
  00200	8d 8e 88 21 00
	00		 lea	 ecx, DWORD PTR [esi+8584]
  00206	c6 45 fc 1c	 mov	 BYTE PTR __$EHRec$[ebp+8], 28 ; 0000001cH
  0020a	e8 00 00 00 00	 call	 ??0CILButton@@QAE@XZ	; CILButton::CILButton
  0020f	8d 8e e8 22 00
	00		 lea	 ecx, DWORD PTR [esi+8936]
  00215	c6 45 fc 1d	 mov	 BYTE PTR __$EHRec$[ebp+8], 29 ; 0000001dH
  00219	e8 00 00 00 00	 call	 ??0CILButton@@QAE@XZ	; CILButton::CILButton
  0021e	8d 8e 48 24 00
	00		 lea	 ecx, DWORD PTR [esi+9288]
  00224	c6 45 fc 1e	 mov	 BYTE PTR __$EHRec$[ebp+8], 30 ; 0000001eH
  00228	e8 00 00 00 00	 call	 ??0CILButton@@QAE@XZ	; CILButton::CILButton
  0022d	8d 8e a8 25 00
	00		 lea	 ecx, DWORD PTR [esi+9640]
  00233	c6 45 fc 1f	 mov	 BYTE PTR __$EHRec$[ebp+8], 31 ; 0000001fH
  00237	e8 00 00 00 00	 call	 ??0CILButton@@QAE@XZ	; CILButton::CILButton
  0023c	8d 8e 08 27 00
	00		 lea	 ecx, DWORD PTR [esi+9992]
  00242	c6 45 fc 20	 mov	 BYTE PTR __$EHRec$[ebp+8], 32 ; 00000020H
  00246	e8 00 00 00 00	 call	 ??0CILButton@@QAE@XZ	; CILButton::CILButton
  0024b	8d 8e 68 28 00
	00		 lea	 ecx, DWORD PTR [esi+10344]
  00251	c6 45 fc 21	 mov	 BYTE PTR __$EHRec$[ebp+8], 33 ; 00000021H
  00255	e8 00 00 00 00	 call	 ??0CILButton@@QAE@XZ	; CILButton::CILButton
  0025a	8d 8e c8 29 00
	00		 lea	 ecx, DWORD PTR [esi+10696]
  00260	c6 45 fc 22	 mov	 BYTE PTR __$EHRec$[ebp+8], 34 ; 00000022H
  00264	e8 00 00 00 00	 call	 ??0CILButton@@QAE@XZ	; CILButton::CILButton
  00269	8d 8e 28 2b 00
	00		 lea	 ecx, DWORD PTR [esi+11048]
  0026f	c6 45 fc 23	 mov	 BYTE PTR __$EHRec$[ebp+8], 35 ; 00000023H
  00273	e8 00 00 00 00	 call	 ??0CILButton@@QAE@XZ	; CILButton::CILButton
  00278	81 c6 88 2c 00
	00		 add	 esi, 11400		; 00002c88H
  0027e	c6 45 fc 24	 mov	 BYTE PTR __$EHRec$[ebp+8], 36 ; 00000024H
; File C:\Program Files (x86)\Microsoft Visual Studio\2019\Community\VC\Tools\MSVC\14.29.30133\atlmfc\include\afxwin2.inl

; 603  : 	{ }

  00282	8b ce		 mov	 ecx, esi
; File D:\git\src\IBK\IBK_DRFN\ProjSrc\SrcDrfn\Chart\MULTICHART\ExtInputBarDlg.cpp

; 35   : {

  00284	89 75 08	 mov	 DWORD PTR _this$[ebp], esi
; File C:\Program Files (x86)\Microsoft Visual Studio\2019\Community\VC\Tools\MSVC\14.29.30133\atlmfc\include\afxwin2.inl

; 603  : 	{ }

  00287	e8 00 00 00 00	 call	 ??0CWnd@@QAE@XZ		; CWnd::CWnd
  0028c	c7 06 00 00 00
	00		 mov	 DWORD PTR [esi], OFFSET ??_7CStatic@@6B@
; File D:\git\src\IBK\IBK_DRFN\ProjSrc\SrcDrfn\Chart\MULTICHART\ExtInputBarDlg.cpp

; 35   : {

  00292	8b 75 f0	 mov	 esi, DWORD PTR _this$[ebp]
  00295	81 c6 08 2d 00
	00		 add	 esi, 11528		; 00002d08H
  0029b	c6 45 fc 25	 mov	 BYTE PTR __$EHRec$[ebp+8], 37 ; 00000025H
; File C:\Program Files (x86)\Microsoft Visual Studio\2019\Community\VC\Tools\MSVC\14.29.30133\atlmfc\include\afxwin2.inl

; 603  : 	{ }

  0029f	8b ce		 mov	 ecx, esi
; File D:\git\src\IBK\IBK_DRFN\ProjSrc\SrcDrfn\Chart\MULTICHART\ExtInputBarDlg.cpp

; 35   : {

  002a1	89 75 08	 mov	 DWORD PTR _this$[ebp], esi
; File C:\Program Files (x86)\Microsoft Visual Studio\2019\Community\VC\Tools\MSVC\14.29.30133\atlmfc\include\afxwin2.inl

; 603  : 	{ }

  002a4	e8 00 00 00 00	 call	 ??0CWnd@@QAE@XZ		; CWnd::CWnd
  002a9	c7 06 00 00 00
	00		 mov	 DWORD PTR [esi], OFFSET ??_7CStatic@@6B@
; File D:\git\src\IBK\IBK_DRFN\ProjSrc\SrcDrfn\Chart\MULTICHART\ExtInputBarDlg.cpp

; 35   : {

  002af	8b 75 f0	 mov	 esi, DWORD PTR _this$[ebp]
  002b2	c6 45 fc 26	 mov	 BYTE PTR __$EHRec$[ebp+8], 38 ; 00000026H
  002b6	8d 8e 88 2d 00
	00		 lea	 ecx, DWORD PTR [esi+11656]
  002bc	e8 00 00 00 00	 call	 ??0CILButton@@QAE@XZ	; CILButton::CILButton
  002c1	81 c6 e8 2e 00
	00		 add	 esi, 12008		; 00002ee8H
  002c7	c6 45 fc 27	 mov	 BYTE PTR __$EHRec$[ebp+8], 39 ; 00000027H
; File C:\Program Files (x86)\Microsoft Visual Studio\2019\Community\VC\Tools\MSVC\14.29.30133\atlmfc\include\afxwin2.inl

; 622  : 	{ }

  002cb	8b ce		 mov	 ecx, esi
; File D:\git\src\IBK\IBK_DRFN\ProjSrc\SrcDrfn\Chart\MULTICHART\ExtInputBarDlg.cpp

; 35   : {

  002cd	89 75 08	 mov	 DWORD PTR _this$[ebp], esi
; File C:\Program Files (x86)\Microsoft Visual Studio\2019\Community\VC\Tools\MSVC\14.29.30133\atlmfc\include\afxwin2.inl

; 622  : 	{ }

  002d0	e8 00 00 00 00	 call	 ??0CWnd@@QAE@XZ		; CWnd::CWnd
  002d5	c7 06 00 00 00
	00		 mov	 DWORD PTR [esi], OFFSET ??_7CButton@@6B@
; File D:\git\src\IBK\IBK_DRFN\ProjSrc\SrcDrfn\Chart\MULTICHART\ExtInputBarDlg.cpp

; 35   : {

  002db	8b 75 f0	 mov	 esi, DWORD PTR _this$[ebp]
  002de	c6 45 fc 28	 mov	 BYTE PTR __$EHRec$[ebp+8], 40 ; 00000028H
  002e2	8d 8e 70 2f 00
	00		 lea	 ecx, DWORD PTR [esi+12144]
  002e8	e8 00 00 00 00	 call	 ??0CILButton@@QAE@XZ	; CILButton::CILButton
  002ed	6a 00		 push	 0
  002ef	8d 8e d0 30 00
	00		 lea	 ecx, DWORD PTR [esi+12496]
  002f5	c6 45 fc 29	 mov	 BYTE PTR __$EHRec$[ebp+8], 41 ; 00000029H
  002f9	e8 00 00 00 00	 call	 ??0CExComboBox@@QAE@H@Z	; CExComboBox::CExComboBox
  002fe	81 c6 58 31 00
	00		 add	 esi, 12632		; 00003158H
  00304	c6 45 fc 2a	 mov	 BYTE PTR __$EHRec$[ebp+8], 42 ; 0000002aH
; File C:\Program Files (x86)\Microsoft Visual Studio\2019\Community\VC\Tools\MSVC\14.29.30133\atlmfc\include\afxwin2.inl

; 622  : 	{ }

  00308	8b ce		 mov	 ecx, esi
; File D:\git\src\IBK\IBK_DRFN\ProjSrc\SrcDrfn\Chart\MULTICHART\ExtInputBarDlg.cpp

; 35   : {

  0030a	89 75 08	 mov	 DWORD PTR _this$[ebp], esi
; File C:\Program Files (x86)\Microsoft Visual Studio\2019\Community\VC\Tools\MSVC\14.29.30133\atlmfc\include\afxwin2.inl

; 622  : 	{ }

  0030d	e8 00 00 00 00	 call	 ??0CWnd@@QAE@XZ		; CWnd::CWnd
  00312	c7 06 00 00 00
	00		 mov	 DWORD PTR [esi], OFFSET ??_7CButton@@6B@
; File D:\git\src\IBK\IBK_DRFN\ProjSrc\SrcDrfn\Chart\MULTICHART\ExtInputBarDlg.cpp

; 35   : {

  00318	8b 75 f0	 mov	 esi, DWORD PTR _this$[ebp]
  0031b	6a 00		 push	 0
  0031d	c6 45 fc 2b	 mov	 BYTE PTR __$EHRec$[ebp+8], 43 ; 0000002bH
  00321	8d 8e e0 31 00
	00		 lea	 ecx, DWORD PTR [esi+12768]
  00327	e8 00 00 00 00	 call	 ??0CMatrixSelecterDlg@@QAE@PAVCWnd@@@Z ; CMatrixSelecterDlg::CMatrixSelecterDlg
; File C:\Program Files (x86)\Microsoft Visual Studio\2019\Community\VC\Tools\MSVC\14.29.30133\atlmfc\include\afxwin1.inl

; 70   : 	{ m_hObject = NULL; }

  0032c	c7 86 ec 32 00
	00 00 00 00 00	 mov	 DWORD PTR [esi+13036], 0

; 128  : 	{ }

  00336	c7 86 e8 32 00
	00 00 00 00 00	 mov	 DWORD PTR [esi+13032], OFFSET ??_7CBrush@@6B@
; File D:\git\src\IBK\IBK_DRFN\ProjSrc\SrcDrfn\Chart\MULTICHART\ExtInputBarDlg.cpp

; 35   : {

  00340	8d 8e f4 32 00
	00		 lea	 ecx, DWORD PTR [esi+13044]
  00346	ff 15 00 00 00
	00		 call	 DWORD PTR __imp_??0?$CStringT@DV?$StrTraitMFC_DLL@DV?$ChTraitsCRT@D@ATL@@@@@ATL@@QAE@XZ
; File C:\Program Files (x86)\Microsoft Visual Studio\2019\Community\VC\Tools\MSVC\14.29.30133\atlmfc\include\afxtempl.h

; 1403 : {

  0034c	c7 86 30 33 00
	00 00 00 00 00	 mov	 DWORD PTR [esi+13104], OFFSET ??_7?$CMap@IIV?$CStringT@DV?$StrTraitMFC_DLL@DV?$ChTraitsCRT@D@ATL@@@@@ATL@@PBD@@6B@

; 1404 : 	ASSERT(nBlockSize > 0);
; 1405 : 
; 1406 : 	m_pHashTable = NULL;

  00356	c7 86 34 33 00
	00 00 00 00 00	 mov	 DWORD PTR [esi+13108], 0

; 1407 : 	m_nHashTableSize = 17;  // default size

  00360	c7 86 38 33 00
	00 11 00 00 00	 mov	 DWORD PTR [esi+13112], 17 ; 00000011H

; 1408 : 	m_nCount = 0;

  0036a	c7 86 3c 33 00
	00 00 00 00 00	 mov	 DWORD PTR [esi+13116], 0

; 1409 : 	m_pFreeList = NULL;

  00374	c7 86 40 33 00
	00 00 00 00 00	 mov	 DWORD PTR [esi+13120], 0

; 1410 : 	m_pBlocks = NULL;

  0037e	c7 86 44 33 00
	00 00 00 00 00	 mov	 DWORD PTR [esi+13124], 0

; 1411 : 	m_nBlockSize = nBlockSize;

  00388	c7 86 48 33 00
	00 0a 00 00 00	 mov	 DWORD PTR [esi+13128], 10 ; 0000000aH
; File D:\git\src\IBK\IBK_DRFN\ProjSrc\SrcDrfn\Chart\MULTICHART\ExtInputBarDlg.cpp

; 60   : 	m_strStartDate	= _T("");

  00392	68 00 00 00 00	 push	 OFFSET ??_C@_00CNPNBAHC@@
  00397	8b cb		 mov	 ecx, ebx
  00399	c6 45 fc 2f	 mov	 BYTE PTR __$EHRec$[ebp+8], 47 ; 0000002fH
  0039d	c7 86 f8 32 00
	00 01 00 00 00	 mov	 DWORD PTR [esi+13048], 1
  003a7	c7 86 fc 32 00
	00 01 00 00 00	 mov	 DWORD PTR [esi+13052], 1
  003b1	c7 86 00 33 00
	00 00 00 00 00	 mov	 DWORD PTR [esi+13056], 0
  003bb	c7 86 04 33 00
	00 00 00 00 00	 mov	 DWORD PTR [esi+13060], 0
  003c5	c7 86 08 33 00
	00 01 00 00 00	 mov	 DWORD PTR [esi+13064], 1
  003cf	c7 86 0c 33 00
	00 00 00 00 00	 mov	 DWORD PTR [esi+13068], 0
  003d9	c7 86 10 33 00
	00 01 00 00 00	 mov	 DWORD PTR [esi+13072], 1
  003e3	c7 86 18 33 00
	00 00 00 00 00	 mov	 DWORD PTR [esi+13080], 0
  003ed	c7 86 d8 00 00
	00 00 00 00 00	 mov	 DWORD PTR [esi+216], 0
  003f7	c6 86 dc 00 00
	00 32		 mov	 BYTE PTR [esi+220], 50	; 00000032H
  003fe	c7 86 d4 00 00
	00 00 00 00 00	 mov	 DWORD PTR [esi+212], 0
  00408	c7 86 c4 00 00
	00 01 00 00 00	 mov	 DWORD PTR [esi+196], 1
  00412	ff 15 00 00 00
	00		 call	 DWORD PTR __imp_??4?$CStringT@DV?$StrTraitMFC_DLL@DV?$ChTraitsCRT@D@ATL@@@@@ATL@@QAEAAV01@PBD@Z

; 61   : 	m_strEndDate	= _T("");

  00418	68 00 00 00 00	 push	 OFFSET ??_C@_00CNPNBAHC@@
  0041d	8b cf		 mov	 ecx, edi
  0041f	ff 15 00 00 00
	00		 call	 DWORD PTR __imp_??4?$CStringT@DV?$StrTraitMFC_DLL@DV?$ChTraitsCRT@D@ATL@@@@@ATL@@QAEAAV01@PBD@Z

; 62   : 
; 63   : 	//m_pCommonBaseInfo = NULL;
; 64   : 	
; 65   : //@ m_pIL_W58H20 = NULL;
; 66   : //@ m_pIL_W34H20 = NULL;
; 67   : 	m_pIL_W46H20 = NULL;

  00425	c7 86 b4 00 00
	00 00 00 00 00	 mov	 DWORD PTR [esi+180], 0

; 68   : 	m_pIL_W20H20 = NULL;

  0042f	c7 86 b8 00 00
	00 00 00 00 00	 mov	 DWORD PTR [esi+184], 0

; 69   : 	m_pIL_W20H20_Tool = NULL;

  00439	c7 86 bc 00 00
	00 00 00 00 00	 mov	 DWORD PTR [esi+188], 0

; 70   : //@ m_pIL_W58H19 = NULL;
; 71   : 	m_pIL_W58H20 = NULL;

  00443	c7 86 b0 00 00
	00 00 00 00 00	 mov	 DWORD PTR [esi+176], 0

; 72   : 
; 73   : 	m_bChkRevised = TRUE;
; 74   : 	m_nDataType = DAY_DATA_CHART;
; 75   : 	m_bChkPeriod = FALSE;
; 76   : 	m_bChkSaveJipyoOneFile = FALSE;
; 77   : 	//    - ojtaso (20080723)
; 78   : 	//m_bChkSaveAnalTool = TRUE;
; 79   : 	m_bChkSaveAnalTool = FALSE;		//@Solomon Default .
; 80   : //	m_bChkRegGwansimUp = FALSE;
; 81   : 
; 82   : 	m_bChangeTool	= TRUE;
; 83   : 	m_nScrollState = SCROLL_STOP;
; 84   : 
; 85   : 	m_hCtrlAccount = NULL;
; 86   : 	m_pMenuChild = NULL;
; 87   : 
; 88   : 	m_nSaveJipyoOneFile = m_nSaveAnalTool = 0;
; 89   : 	m_bChkCrossLine = FALSE;
; 90   : 	m_nChkCrossLine = 0;
; 91   : }

  0044d	8b c6		 mov	 eax, esi
  0044f	c7 86 68 2f 00
	00 01 00 00 00	 mov	 DWORD PTR [esi+12136], 1
  00459	c7 86 d8 31 00
	00 32 00 00 00	 mov	 DWORD PTR [esi+12760], 50 ; 00000032H
  00463	c7 86 1c 33 00
	00 00 00 00 00	 mov	 DWORD PTR [esi+13084], 0
  0046d	c7 86 20 33 00
	00 00 00 00 00	 mov	 DWORD PTR [esi+13088], 0
  00477	c7 86 14 33 00
	00 00 00 00 00	 mov	 DWORD PTR [esi+13076], 0
  00481	c7 86 28 33 00
	00 01 00 00 00	 mov	 DWORD PTR [esi+13096], 1
  0048b	c7 86 d0 00 00
	00 00 00 00 00	 mov	 DWORD PTR [esi+208], 0
  00495	c7 86 60 01 00
	00 00 00 00 00	 mov	 DWORD PTR [esi+352], 0
  0049f	c7 86 2c 33 00
	00 00 00 00 00	 mov	 DWORD PTR [esi+13100], 0
  004a9	c7 86 50 33 00
	00 00 00 00 00	 mov	 DWORD PTR [esi+13136], 0
  004b3	c7 86 4c 33 00
	00 00 00 00 00	 mov	 DWORD PTR [esi+13132], 0
  004bd	c7 86 24 33 00
	00 00 00 00 00	 mov	 DWORD PTR [esi+13092], 0
  004c7	c7 86 54 33 00
	00 00 00 00 00	 mov	 DWORD PTR [esi+13140], 0
  004d1	8b 4d f4	 mov	 ecx, DWORD PTR __$EHRec$[ebp]
  004d4	64 89 0d 00 00
	00 00		 mov	 DWORD PTR fs:0, ecx
  004db	59		 pop	 ecx
  004dc	5f		 pop	 edi
  004dd	5e		 pop	 esi
  004de	5b		 pop	 ebx
  004df	8b e5		 mov	 esp, ebp
  004e1	5d		 pop	 ebp
  004e2	c2 04 00	 ret	 4
_TEXT	ENDS
;	COMDAT text$x
text$x	SEGMENT
__unwindfunclet$??0CExtInputBarDlg@@QAE@PAVCWnd@@@Z$0:
  00000	8b 4d f0	 mov	 ecx, DWORD PTR _this$[ebp]
  00003	e9 00 00 00 00	 jmp	 ??1CRscDlg@@UAE@XZ
__unwindfunclet$??0CExtInputBarDlg@@QAE@PAVCWnd@@@Z$1:
  00008	8b 4d f0	 mov	 ecx, DWORD PTR _this$[ebp]
  0000b	81 c1 c0 00 00
	00		 add	 ecx, 192		; 000000c0H
  00011	ff 25 00 00 00
	00		 jmp	 DWORD PTR __imp_??1?$CStringT@DV?$StrTraitMFC_DLL@DV?$ChTraitsCRT@D@ATL@@@@@ATL@@QAE@XZ
__unwindfunclet$??0CExtInputBarDlg@@QAE@PAVCWnd@@@Z$2:
  00017	8b 4d f0	 mov	 ecx, DWORD PTR _this$[ebp]
  0001a	81 c1 c8 00 00
	00		 add	 ecx, 200		; 000000c8H
  00020	ff 25 00 00 00
	00		 jmp	 DWORD PTR __imp_??1?$CStringT@DV?$StrTraitMFC_DLL@DV?$ChTraitsCRT@D@ATL@@@@@ATL@@QAE@XZ
__unwindfunclet$??0CExtInputBarDlg@@QAE@PAVCWnd@@@Z$3:
  00026	8b 4d f0	 mov	 ecx, DWORD PTR _this$[ebp]
  00029	81 c1 cc 00 00
	00		 add	 ecx, 204		; 000000ccH
  0002f	ff 25 00 00 00
	00		 jmp	 DWORD PTR __imp_??1?$CStringT@DV?$StrTraitMFC_DLL@DV?$ChTraitsCRT@D@ATL@@@@@ATL@@QAE@XZ
__unwindfunclet$??0CExtInputBarDlg@@QAE@PAVCWnd@@@Z$4:
  00035	8b 4d f0	 mov	 ecx, DWORD PTR _this$[ebp]
  00038	81 c1 e0 00 00
	00		 add	 ecx, 224		; 000000e0H
  0003e	e9 00 00 00 00	 jmp	 ??1CDateTimeCtrl@@UAE@XZ ; CDateTimeCtrl::~CDateTimeCtrl
__unwindfunclet$??0CExtInputBarDlg@@QAE@PAVCWnd@@@Z$5:
  00043	8b 4d f0	 mov	 ecx, DWORD PTR _this$[ebp]
  00046	81 c1 68 01 00
	00		 add	 ecx, 360		; 00000168H
  0004c	e9 00 00 00 00	 jmp	 ??1CILButton@@UAE@XZ	; CILButton::~CILButton
__unwindfunclet$??0CExtInputBarDlg@@QAE@PAVCWnd@@@Z$6:
  00051	8b 4d f0	 mov	 ecx, DWORD PTR _this$[ebp]
  00054	81 c1 c8 02 00
	00		 add	 ecx, 712		; 000002c8H
  0005a	e9 00 00 00 00	 jmp	 ??1CILButton@@UAE@XZ	; CILButton::~CILButton
__unwindfunclet$??0CExtInputBarDlg@@QAE@PAVCWnd@@@Z$7:
  0005f	8b 4d f0	 mov	 ecx, DWORD PTR _this$[ebp]
  00062	81 c1 28 04 00
	00		 add	 ecx, 1064		; 00000428H
  00068	e9 00 00 00 00	 jmp	 ??1CILButton@@UAE@XZ	; CILButton::~CILButton
__unwindfunclet$??0CExtInputBarDlg@@QAE@PAVCWnd@@@Z$8:
  0006d	8b 4d f0	 mov	 ecx, DWORD PTR _this$[ebp]
  00070	81 c1 88 05 00
	00		 add	 ecx, 1416		; 00000588H
  00076	e9 00 00 00 00	 jmp	 ??1CILButton@@UAE@XZ	; CILButton::~CILButton
__unwindfunclet$??0CExtInputBarDlg@@QAE@PAVCWnd@@@Z$9:
  0007b	8b 4d f0	 mov	 ecx, DWORD PTR _this$[ebp]
  0007e	81 c1 e8 06 00
	00		 add	 ecx, 1768		; 000006e8H
  00084	e9 00 00 00 00	 jmp	 ??1CILButton@@UAE@XZ	; CILButton::~CILButton
__unwindfunclet$??0CExtInputBarDlg@@QAE@PAVCWnd@@@Z$10:
  00089	8b 4d f0	 mov	 ecx, DWORD PTR _this$[ebp]
  0008c	81 c1 48 08 00
	00		 add	 ecx, 2120		; 00000848H
  00092	e9 00 00 00 00	 jmp	 ??1CILButton@@UAE@XZ	; CILButton::~CILButton
__unwindfunclet$??0CExtInputBarDlg@@QAE@PAVCWnd@@@Z$11:
  00097	8b 4d f0	 mov	 ecx, DWORD PTR _this$[ebp]
  0009a	81 c1 a8 09 00
	00		 add	 ecx, 2472		; 000009a8H
  000a0	e9 00 00 00 00	 jmp	 ??1CILButton@@UAE@XZ	; CILButton::~CILButton
__unwindfunclet$??0CExtInputBarDlg@@QAE@PAVCWnd@@@Z$12:
  000a5	8b 4d f0	 mov	 ecx, DWORD PTR _this$[ebp]
  000a8	81 c1 08 0b 00
	00		 add	 ecx, 2824		; 00000b08H
  000ae	e9 00 00 00 00	 jmp	 ??1CILButton@@UAE@XZ	; CILButton::~CILButton
__unwindfunclet$??0CExtInputBarDlg@@QAE@PAVCWnd@@@Z$13:
  000b3	8b 4d f0	 mov	 ecx, DWORD PTR _this$[ebp]
  000b6	81 c1 68 0c 00
	00		 add	 ecx, 3176		; 00000c68H
  000bc	e9 00 00 00 00	 jmp	 ??1CILButton@@UAE@XZ	; CILButton::~CILButton
__unwindfunclet$??0CExtInputBarDlg@@QAE@PAVCWnd@@@Z$14:
  000c1	8b 4d f0	 mov	 ecx, DWORD PTR _this$[ebp]
  000c4	81 c1 c8 0d 00
	00		 add	 ecx, 3528		; 00000dc8H
  000ca	e9 00 00 00 00	 jmp	 ??1CILButton@@UAE@XZ	; CILButton::~CILButton
__unwindfunclet$??0CExtInputBarDlg@@QAE@PAVCWnd@@@Z$15:
  000cf	8b 4d f0	 mov	 ecx, DWORD PTR _this$[ebp]
  000d2	81 c1 28 0f 00
	00		 add	 ecx, 3880		; 00000f28H
  000d8	e9 00 00 00 00	 jmp	 ??1CButton@@UAE@XZ	; CButton::~CButton
__unwindfunclet$??0CExtInputBarDlg@@QAE@PAVCWnd@@@Z$16:
  000dd	8b 4d f0	 mov	 ecx, DWORD PTR _this$[ebp]
  000e0	81 c1 a8 0f 00
	00		 add	 ecx, 4008		; 00000fa8H
  000e6	e9 00 00 00 00	 jmp	 ??1CILButton@@UAE@XZ	; CILButton::~CILButton
__unwindfunclet$??0CExtInputBarDlg@@QAE@PAVCWnd@@@Z$17:
  000eb	8b 4d f0	 mov	 ecx, DWORD PTR _this$[ebp]
  000ee	81 c1 08 11 00
	00		 add	 ecx, 4360		; 00001108H
  000f4	e9 00 00 00 00	 jmp	 ??1CILButton@@UAE@XZ	; CILButton::~CILButton
__unwindfunclet$??0CExtInputBarDlg@@QAE@PAVCWnd@@@Z$18:
  000f9	8b 4d f0	 mov	 ecx, DWORD PTR _this$[ebp]
  000fc	81 c1 68 12 00
	00		 add	 ecx, 4712		; 00001268H
  00102	e9 00 00 00 00	 jmp	 ??1CILButton@@UAE@XZ	; CILButton::~CILButton
__unwindfunclet$??0CExtInputBarDlg@@QAE@PAVCWnd@@@Z$19:
  00107	8b 4d f0	 mov	 ecx, DWORD PTR _this$[ebp]
  0010a	81 c1 c8 13 00
	00		 add	 ecx, 5064		; 000013c8H
  00110	e9 00 00 00 00	 jmp	 ??1CILButton@@UAE@XZ	; CILButton::~CILButton
__unwindfunclet$??0CExtInputBarDlg@@QAE@PAVCWnd@@@Z$20:
  00115	8b 4d f0	 mov	 ecx, DWORD PTR _this$[ebp]
  00118	81 c1 28 15 00
	00		 add	 ecx, 5416		; 00001528H
  0011e	e9 00 00 00 00	 jmp	 ??1CILButton@@UAE@XZ	; CILButton::~CILButton
__unwindfunclet$??0CExtInputBarDlg@@QAE@PAVCWnd@@@Z$21:
  00123	8b 4d f0	 mov	 ecx, DWORD PTR _this$[ebp]
  00126	81 c1 88 16 00
	00		 add	 ecx, 5768		; 00001688H
  0012c	e9 00 00 00 00	 jmp	 ??1CILButton@@UAE@XZ	; CILButton::~CILButton
__unwindfunclet$??0CExtInputBarDlg@@QAE@PAVCWnd@@@Z$22:
  00131	8b 4d f0	 mov	 ecx, DWORD PTR _this$[ebp]
  00134	81 c1 e8 17 00
	00		 add	 ecx, 6120		; 000017e8H
  0013a	e9 00 00 00 00	 jmp	 ??1CILButton@@UAE@XZ	; CILButton::~CILButton
__unwindfunclet$??0CExtInputBarDlg@@QAE@PAVCWnd@@@Z$23:
  0013f	8b 4d f0	 mov	 ecx, DWORD PTR _this$[ebp]
  00142	81 c1 48 19 00
	00		 add	 ecx, 6472		; 00001948H
  00148	e9 00 00 00 00	 jmp	 ??1CILButton@@UAE@XZ	; CILButton::~CILButton
__unwindfunclet$??0CExtInputBarDlg@@QAE@PAVCWnd@@@Z$24:
  0014d	8b 4d f0	 mov	 ecx, DWORD PTR _this$[ebp]
  00150	81 c1 a8 1a 00
	00		 add	 ecx, 6824		; 00001aa8H
  00156	e9 00 00 00 00	 jmp	 ??1CILButton@@UAE@XZ	; CILButton::~CILButton
__unwindfunclet$??0CExtInputBarDlg@@QAE@PAVCWnd@@@Z$25:
  0015b	8b 4d f0	 mov	 ecx, DWORD PTR _this$[ebp]
  0015e	81 c1 08 1c 00
	00		 add	 ecx, 7176		; 00001c08H
  00164	e9 00 00 00 00	 jmp	 ??1CILButton@@UAE@XZ	; CILButton::~CILButton
__unwindfunclet$??0CExtInputBarDlg@@QAE@PAVCWnd@@@Z$26:
  00169	8b 4d f0	 mov	 ecx, DWORD PTR _this$[ebp]
  0016c	81 c1 68 1d 00
	00		 add	 ecx, 7528		; 00001d68H
  00172	e9 00 00 00 00	 jmp	 ??1CILButton@@UAE@XZ	; CILButton::~CILButton
__unwindfunclet$??0CExtInputBarDlg@@QAE@PAVCWnd@@@Z$27:
  00177	8b 4d f0	 mov	 ecx, DWORD PTR _this$[ebp]
  0017a	81 c1 c8 1e 00
	00		 add	 ecx, 7880		; 00001ec8H
  00180	e9 00 00 00 00	 jmp	 ??1CILButton@@UAE@XZ	; CILButton::~CILButton
__unwindfunclet$??0CExtInputBarDlg@@QAE@PAVCWnd@@@Z$28:
  00185	8b 4d f0	 mov	 ecx, DWORD PTR _this$[ebp]
  00188	81 c1 28 20 00
	00		 add	 ecx, 8232		; 00002028H
  0018e	e9 00 00 00 00	 jmp	 ??1CILButton@@UAE@XZ	; CILButton::~CILButton
__unwindfunclet$??0CExtInputBarDlg@@QAE@PAVCWnd@@@Z$29:
  00193	8b 4d f0	 mov	 ecx, DWORD PTR _this$[ebp]
  00196	81 c1 88 21 00
	00		 add	 ecx, 8584		; 00002188H
  0019c	e9 00 00 00 00	 jmp	 ??1CILButton@@UAE@XZ	; CILButton::~CILButton
__unwindfunclet$??0CExtInputBarDlg@@QAE@PAVCWnd@@@Z$30:
  001a1	8b 4d f0	 mov	 ecx, DWORD PTR _this$[ebp]
  001a4	81 c1 e8 22 00
	00		 add	 ecx, 8936		; 000022e8H
  001aa	e9 00 00 00 00	 jmp	 ??1CILButton@@UAE@XZ	; CILButton::~CILButton
__unwindfunclet$??0CExtInputBarDlg@@QAE@PAVCWnd@@@Z$31:
  001af	8b 4d f0	 mov	 ecx, DWORD PTR _this$[ebp]
  001b2	81 c1 48 24 00
	00		 add	 ecx, 9288		; 00002448H
  001b8	e9 00 00 00 00	 jmp	 ??1CILButton@@UAE@XZ	; CILButton::~CILButton
__unwindfunclet$??0CExtInputBarDlg@@QAE@PAVCWnd@@@Z$32:
  001bd	8b 4d f0	 mov	 ecx, DWORD PTR _this$[ebp]
  001c0	81 c1 a8 25 00
	00		 add	 ecx, 9640		; 000025a8H
  001c6	e9 00 00 00 00	 jmp	 ??1CILButton@@UAE@XZ	; CILButton::~CILButton
__unwindfunclet$??0CExtInputBarDlg@@QAE@PAVCWnd@@@Z$33:
  001cb	8b 4d f0	 mov	 ecx, DWORD PTR _this$[ebp]
  001ce	81 c1 08 27 00
	00		 add	 ecx, 9992		; 00002708H
  001d4	e9 00 00 00 00	 jmp	 ??1CILButton@@UAE@XZ	; CILButton::~CILButton
__unwindfunclet$??0CExtInputBarDlg@@QAE@PAVCWnd@@@Z$34:
  001d9	8b 4d f0	 mov	 ecx, DWORD PTR _this$[ebp]
  001dc	81 c1 68 28 00
	00		 add	 ecx, 10344		; 00002868H
  001e2	e9 00 00 00 00	 jmp	 ??1CILButton@@UAE@XZ	; CILButton::~CILButton
__unwindfunclet$??0CExtInputBarDlg@@QAE@PAVCWnd@@@Z$35:
  001e7	8b 4d f0	 mov	 ecx, DWORD PTR _this$[ebp]
  001ea	81 c1 c8 29 00
	00		 add	 ecx, 10696		; 000029c8H
  001f0	e9 00 00 00 00	 jmp	 ??1CILButton@@UAE@XZ	; CILButton::~CILButton
__unwindfunclet$??0CExtInputBarDlg@@QAE@PAVCWnd@@@Z$36:
  001f5	8b 4d f0	 mov	 ecx, DWORD PTR _this$[ebp]
  001f8	81 c1 28 2b 00
	00		 add	 ecx, 11048		; 00002b28H
  001fe	e9 00 00 00 00	 jmp	 ??1CILButton@@UAE@XZ	; CILButton::~CILButton
__unwindfunclet$??0CExtInputBarDlg@@QAE@PAVCWnd@@@Z$37:
  00203	8b 4d f0	 mov	 ecx, DWORD PTR _this$[ebp]
  00206	81 c1 88 2c 00
	00		 add	 ecx, 11400		; 00002c88H
  0020c	e9 00 00 00 00	 jmp	 ??1CStatic@@UAE@XZ	; CStatic::~CStatic
__unwindfunclet$??0CExtInputBarDlg@@QAE@PAVCWnd@@@Z$38:
  00211	8b 4d f0	 mov	 ecx, DWORD PTR _this$[ebp]
  00214	81 c1 08 2d 00
	00		 add	 ecx, 11528		; 00002d08H
  0021a	e9 00 00 00 00	 jmp	 ??1CStatic@@UAE@XZ	; CStatic::~CStatic
__unwindfunclet$??0CExtInputBarDlg@@QAE@PAVCWnd@@@Z$39:
  0021f	8b 4d f0	 mov	 ecx, DWORD PTR _this$[ebp]
  00222	81 c1 88 2d 00
	00		 add	 ecx, 11656		; 00002d88H
  00228	e9 00 00 00 00	 jmp	 ??1CILButton@@UAE@XZ	; CILButton::~CILButton
__unwindfunclet$??0CExtInputBarDlg@@QAE@PAVCWnd@@@Z$40:
  0022d	8b 4d f0	 mov	 ecx, DWORD PTR _this$[ebp]
  00230	81 c1 e8 2e 00
	00		 add	 ecx, 12008		; 00002ee8H
  00236	e9 00 00 00 00	 jmp	 ??1CButton@@UAE@XZ	; CButton::~CButton
__unwindfunclet$??0CExtInputBarDlg@@QAE@PAVCWnd@@@Z$41:
  0023b	8b 4d f0	 mov	 ecx, DWORD PTR _this$[ebp]
  0023e	81 c1 70 2f 00
	00		 add	 ecx, 12144		; 00002f70H
  00244	e9 00 00 00 00	 jmp	 ??1CILButton@@UAE@XZ	; CILButton::~CILButton
__unwindfunclet$??0CExtInputBarDlg@@QAE@PAVCWnd@@@Z$42:
  00249	8b 4d f0	 mov	 ecx, DWORD PTR _this$[ebp]
  0024c	81 c1 d0 30 00
	00		 add	 ecx, 12496		; 000030d0H
  00252	e9 00 00 00 00	 jmp	 ??1CExComboBox@@UAE@XZ	; CExComboBox::~CExComboBox
__unwindfunclet$??0CExtInputBarDlg@@QAE@PAVCWnd@@@Z$43:
  00257	8b 4d f0	 mov	 ecx, DWORD PTR _this$[ebp]
  0025a	81 c1 58 31 00
	00		 add	 ecx, 12632		; 00003158H
  00260	e9 00 00 00 00	 jmp	 ??1CButton@@UAE@XZ	; CButton::~CButton
__unwindfunclet$??0CExtInputBarDlg@@QAE@PAVCWnd@@@Z$44:
  00265	8b 4d f0	 mov	 ecx, DWORD PTR _this$[ebp]
  00268	81 c1 e0 31 00
	00		 add	 ecx, 12768		; 000031e0H
  0026e	e9 00 00 00 00	 jmp	 ??1CMatrixSelecterDlg@@UAE@XZ
__unwindfunclet$??0CExtInputBarDlg@@QAE@PAVCWnd@@@Z$45:
  00273	8b 4d f0	 mov	 ecx, DWORD PTR _this$[ebp]
  00276	81 c1 e8 32 00
	00		 add	 ecx, 13032		; 000032e8H
  0027c	e9 00 00 00 00	 jmp	 ??1CBrush@@UAE@XZ	; CBrush::~CBrush
__unwindfunclet$??0CExtInputBarDlg@@QAE@PAVCWnd@@@Z$46:
  00281	8b 4d f0	 mov	 ecx, DWORD PTR _this$[ebp]
  00284	81 c1 f4 32 00
	00		 add	 ecx, 13044		; 000032f4H
  0028a	ff 25 00 00 00
	00		 jmp	 DWORD PTR __imp_??1?$CStringT@DV?$StrTraitMFC_DLL@DV?$ChTraitsCRT@D@ATL@@@@@ATL@@QAE@XZ
__unwindfunclet$??0CExtInputBarDlg@@QAE@PAVCWnd@@@Z$47:
  00290	8b 4d f0	 mov	 ecx, DWORD PTR _this$[ebp]
  00293	81 c1 30 33 00
	00		 add	 ecx, 13104		; 00003330H
  00299	e9 00 00 00 00	 jmp	 ??1?$CMap@IIV?$CStringT@DV?$StrTraitMFC_DLL@DV?$ChTraitsCRT@D@ATL@@@@@ATL@@PBD@@UAE@XZ ; CMap<unsigned int,unsigned int,ATL::CStringT<char,StrTraitMFC_DLL<char,ATL::ChTraitsCRT<char> > >,char const *>::~CMap<unsigned int,unsigned int,ATL::CStringT<char,StrTraitMFC_DLL<char,ATL::ChTraitsCRT<char> > >,char const *>
  0029e	cc		 int	 3
  0029f	cc		 int	 3
  002a0	cc		 int	 3
  002a1	cc		 int	 3
  002a2	cc		 int	 3
__ehhandler$??0CExtInputBarDlg@@QAE@PAVCWnd@@@Z:
  002a3	90		 npad	 1
  002a4	90		 npad	 1
  002a5	8b 54 24 08	 mov	 edx, DWORD PTR [esp+8]
  002a9	8d 42 0c	 lea	 eax, DWORD PTR [edx+12]
  002ac	8b 4a ec	 mov	 ecx, DWORD PTR [edx-20]
  002af	33 c8		 xor	 ecx, eax
  002b1	e8 00 00 00 00	 call	 @__security_check_cookie@4
  002b6	b8 00 00 00 00	 mov	 eax, OFFSET __ehfuncinfo$??0CExtInputBarDlg@@QAE@PAVCWnd@@@Z
  002bb	e9 00 00 00 00	 jmp	 ___CxxFrameHandler3
text$x	ENDS
??0CExtInputBarDlg@@QAE@PAVCWnd@@@Z ENDP		; CExtInputBarDlg::CExtInputBarDlg
; Function compile flags: /Ogtp
; File D:\git\src\IBK\IBK_DRFN\ProjSrc\SrcDrfn\Chart\MULTICHART\ExtInputBarDlg.cpp
;	COMDAT ?ChangeButtonColor@CExtInputBarDlg@@QAEXXZ
_TEXT	SEGMENT
?ChangeButtonColor@CExtInputBarDlg@@QAEXXZ PROC		; CExtInputBarDlg::ChangeButtonColor, COMDAT
; _this$ = ecx

; 1133 : //	CDrMLib_CBaseInfo2* pBaseInfo = NULL;
; 1134 : //	pBaseInfo = ((CStdDialog*)GetParent())->GetpMainBaseInfo();
; 1135 : //	if(pBaseInfo)
; 1136 : //	{
; 1137 : //		//	CClrButton m_btnFontSet;
; 1138 : //		//	m_baseInfo.GetButtonColor(m_btnFontSet.m_arrColor);
; 1139 : //		//	m_btnFontSet.ChangeSetColor();
; 1140 : //	}
; 1141 : }

  00000	c2 00 00	 ret	 0
?ChangeButtonColor@CExtInputBarDlg@@QAEXXZ ENDP		; CExtInputBarDlg::ChangeButtonColor
_TEXT	ENDS
; Function compile flags: /Ogtp
; File D:\git\src\IBK\IBK_DRFN\ProjSrc\SrcDrfn\Chart\MULTICHART\ExtInputBarDlg.cpp
;	COMDAT ?OpenMap@CExtInputBarDlg@@QAEJPBD@Z
_TEXT	SEGMENT
_szMapName$ = 8						; size = 4
?OpenMap@CExtInputBarDlg@@QAEJPBD@Z PROC		; CExtInputBarDlg::OpenMap, COMDAT
; _this$ = ecx

; 2334 : 	//m_pCommonBaseInfo = ((CStdDialog*)GetParent())->GetpMainBaseInfo();
; 2335 : 	//if(m_pCommonBaseInfo && m_strCode.GetLength() == CODE_STOCK_LENGTH)
; 2336 : 	//{		
; 2337 : 	//	m_pCommonBaseInfo->SetSharedData2(0,0,_T(""),(BYTE*)(LPTSTR)(LPCTSTR)m_strCode,CODE_STOCK_LENGTH,0);	
; 2338 : 	//}
; 2339 : 
; 2340 : 
; 2341 : //	CString m_strTempMapName = szMapName;
; 2342 : //	if( m_strTempMapName.GetLength() >= 6)
; 2343 : //		m_strTempMapName = m_strTempMapName.Mid(2, 4);
; 2344 : //	else if( m_strTempMapName.GetLength() >= 4)
; 2345 : //		m_strTempMapName = m_strTempMapName.Left(4);
; 2346 : //	else
; 2347 : //		m_strTempMapName.Format("%04d", atoi((LPSTR)szMapName));
; 2348 : //
; 2349 : //	CString	strName0 = "_Open_arg0_" + m_strTempMapName;
; 2350 : //	CWnd* pMainWnd = AfxGetMainWnd();
; 2351 : //
; 2352 : //	pMainWnd->SendMessage(WMU_SETVAR, (WPARAM)(LPSTR)(LPCTSTR)strName0, (LPARAM)(LPSTR)"");
; 2353 : //
; 2354 : //	CString	strName1 = "_Open_arg1_" + m_strTempMapName;
; 2355 : //	pMainWnd->PostMessage(WMU_SETVAR, (WPARAM)(LPSTR)(LPCTSTR)strName1, (LPARAM)(LPSTR)"");
; 2356 : //
; 2357 : //	pMainWnd->PostMessage(WMU_OPEN_MAP, -1, (LPARAM)(LPCSTR)m_strTempMapName);
; 2358 : 	return 0;

  00000	33 c0		 xor	 eax, eax

; 2359 : }

  00002	c2 04 00	 ret	 4
?OpenMap@CExtInputBarDlg@@QAEJPBD@Z ENDP		; CExtInputBarDlg::OpenMap
_TEXT	ENDS
; Function compile flags: /Ogtp
; File D:\git\src\IBK\IBK_DRFN\ProjSrc\SrcDrfn\Chart\MULTICHART\ExtInputBarDlg.cpp
; File C:\Program Files (x86)\Microsoft Visual Studio\2019\Community\VC\Tools\MSVC\14.29.30133\atlmfc\include\afxwin2.inl
; File D:\git\src\IBK\IBK_DRFN\ProjSrc\SrcDrfn\Chart\MULTICHART\ExtInputBarDlg.cpp
;	COMDAT ?SetTimeSyncFlag@CExtInputBarDlg@@QAEXH@Z
_TEXT	SEGMENT
_bCheck$ = 8						; size = 4
?SetTimeSyncFlag@CExtInputBarDlg@@QAEXH@Z PROC		; CExtInputBarDlg::SetTimeSyncFlag, COMDAT
; _this$ = ecx

; 2448 : {

  00000	55		 push	 ebp
  00001	8b ec		 mov	 ebp, esp

; 2449 : 	m_bReplayMode = bCheck;

  00003	8b 45 08	 mov	 eax, DWORD PTR _bCheck$[ebp]
  00006	56		 push	 esi
  00007	8b f1		 mov	 esi, ecx

; 2450 : 	
; 2451 : 	m_chkTypeLink.SetCheck(bCheck);	

  00009	50		 push	 eax
  0000a	8d 8e c8 29 00
	00		 lea	 ecx, DWORD PTR [esi+10696]
  00010	89 86 ac 00 00
	00		 mov	 DWORD PTR [esi+172], eax
  00016	e8 00 00 00 00	 call	 ?SetCheck@CILButton@@QAEXH@Z ; CILButton::SetCheck
; File C:\Program Files (x86)\Microsoft Visual Studio\2019\Community\VC\Tools\MSVC\14.29.30133\atlmfc\include\afxwin2.inl

; 114  : 	{ ASSERT(::IsWindow(m_hWnd)); ::InvalidateRect(m_hWnd, NULL, bErase); }

  0001b	6a 01		 push	 1
  0001d	6a 00		 push	 0
  0001f	ff b6 e8 29 00
	00		 push	 DWORD PTR [esi+10728]
  00025	ff 15 00 00 00
	00		 call	 DWORD PTR __imp__InvalidateRect@12
  0002b	5e		 pop	 esi
; File D:\git\src\IBK\IBK_DRFN\ProjSrc\SrcDrfn\Chart\MULTICHART\ExtInputBarDlg.cpp

; 2453 : }

  0002c	5d		 pop	 ebp
  0002d	c2 04 00	 ret	 4
?SetTimeSyncFlag@CExtInputBarDlg@@QAEXH@Z ENDP		; CExtInputBarDlg::SetTimeSyncFlag
_TEXT	ENDS
; Function compile flags: /Ogtp
; File D:\git\src\IBK\IBK_DRFN\ProjSrc\SrcDrfn\Chart\MULTICHART\ExtInputBarDlg.cpp
;	COMDAT ?GetTimeSyncFlag@CExtInputBarDlg@@QAEHXZ
_TEXT	SEGMENT
?GetTimeSyncFlag@CExtInputBarDlg@@QAEHXZ PROC		; CExtInputBarDlg::GetTimeSyncFlag, COMDAT
; _this$ = ecx

; 2444 : 	return m_chkTypeLink.GetCheck();

  00000	81 c1 c8 29 00
	00		 add	 ecx, 10696		; 000029c8H
  00006	e9 00 00 00 00	 jmp	 ?GetCheck@CILButton@@QAEHXZ ; CILButton::GetCheck
?GetTimeSyncFlag@CExtInputBarDlg@@QAEHXZ ENDP		; CExtInputBarDlg::GetTimeSyncFlag
_TEXT	ENDS
; Function compile flags: /Ogtp
; File D:\git\src\IBK\IBK_DRFN\ProjSrc\SrcDrfn\Chart\MULTICHART\define\ChartMsgDef.h
;	COMDAT ??__ERMSG_SETINFO@@YAXXZ
text$di	SEGMENT
??__ERMSG_SETINFO@@YAXXZ PROC				; `dynamic initializer for 'RMSG_SETINFO'', COMDAT

; 238  : const UINT RMSG_SETINFO = ::RegisterWindowMessage(_T("RMSG_SETINFO"));

  00000	68 00 00 00 00	 push	 OFFSET ??_C@_0N@HABLPHJG@RMSG_SETINFO@
  00005	ff 15 00 00 00
	00		 call	 DWORD PTR __imp__RegisterWindowMessageA@4
  0000b	a3 00 00 00 00	 mov	 DWORD PTR ?RMSG_SETINFO@@3IB, eax
  00010	c3		 ret	 0
??__ERMSG_SETINFO@@YAXXZ ENDP				; `dynamic initializer for 'RMSG_SETINFO''
text$di	ENDS
; Function compile flags: /Ogtp
; File D:\git\src\IBK\IBK_DRFN\ProjSrc\SrcDrfn\Chart\MULTICHART\define\ChartMsgDef.h
;	COMDAT ??__ERMSG_GETINFO@@YAXXZ
text$di	SEGMENT
??__ERMSG_GETINFO@@YAXXZ PROC				; `dynamic initializer for 'RMSG_GETINFO'', COMDAT

; 237  : const UINT RMSG_GETINFO = ::RegisterWindowMessage(_T("RMSG_GETINFO"));

  00000	68 00 00 00 00	 push	 OFFSET ??_C@_0N@IIOKMIEH@RMSG_GETINFO@
  00005	ff 15 00 00 00
	00		 call	 DWORD PTR __imp__RegisterWindowMessageA@4
  0000b	a3 00 00 00 00	 mov	 DWORD PTR ?RMSG_GETINFO@@3IB, eax
  00010	c3		 ret	 0
??__ERMSG_GETINFO@@YAXXZ ENDP				; `dynamic initializer for 'RMSG_GETINFO''
text$di	ENDS
; Function compile flags: /Ogtp
; File D:\git\src\IBK\IBK_DRFN\ProjSrc\SrcDrfn\Chart\MULTICHART\define\ChartMsgDef.h
;	COMDAT ??__ERMSG_SETINITIALCHARTDATA@@YAXXZ
text$di	SEGMENT
??__ERMSG_SETINITIALCHARTDATA@@YAXXZ PROC		; `dynamic initializer for 'RMSG_SETINITIALCHARTDATA'', COMDAT

; 235  : const UINT RMSG_SETINITIALCHARTDATA = ::RegisterWindowMessage(_T("RMSG_SETINITIALCHARTDATA"));

  00000	68 00 00 00 00	 push	 OFFSET ??_C@_0BJ@OGNAJHHI@RMSG_SETINITIALCHARTDATA@
  00005	ff 15 00 00 00
	00		 call	 DWORD PTR __imp__RegisterWindowMessageA@4
  0000b	a3 00 00 00 00	 mov	 DWORD PTR ?RMSG_SETINITIALCHARTDATA@@3IB, eax
  00010	c3		 ret	 0
??__ERMSG_SETINITIALCHARTDATA@@YAXXZ ENDP		; `dynamic initializer for 'RMSG_SETINITIALCHARTDATA''
text$di	ENDS
; Function compile flags: /Ogtp
; File D:\git\src\IBK\IBK_DRFN\ProjSrc\SrcDrfn\Chart\MULTICHART\define\ChartMsgDef.h
;	COMDAT ??__ERMSG_ADD_PLATFORM_MENU@@YAXXZ
text$di	SEGMENT
??__ERMSG_ADD_PLATFORM_MENU@@YAXXZ PROC			; `dynamic initializer for 'RMSG_ADD_PLATFORM_MENU'', COMDAT

; 233  : const UINT RMSG_ADD_PLATFORM_MENU = ::RegisterWindowMessage(_T("RMSG_ADD_PLATFORM_MENU"));

  00000	68 00 00 00 00	 push	 OFFSET ??_C@_0BH@IFDMIMBP@RMSG_ADD_PLATFORM_MENU@
  00005	ff 15 00 00 00
	00		 call	 DWORD PTR __imp__RegisterWindowMessageA@4
  0000b	a3 00 00 00 00	 mov	 DWORD PTR ?RMSG_ADD_PLATFORM_MENU@@3IB, eax
  00010	c3		 ret	 0
??__ERMSG_ADD_PLATFORM_MENU@@YAXXZ ENDP			; `dynamic initializer for 'RMSG_ADD_PLATFORM_MENU''
text$di	ENDS
; Function compile flags: /Ogtp
; File D:\git\src\IBK\IBK_DRFN\ProjSrc\SrcDrfn\Chart\MULTICHART\define\ChartMsgDef.h
;	COMDAT ??__ERMSG_CHANGE_CROSSLINE@@YAXXZ
text$di	SEGMENT
??__ERMSG_CHANGE_CROSSLINE@@YAXXZ PROC			; `dynamic initializer for 'RMSG_CHANGE_CROSSLINE'', COMDAT

; 231  : const UINT RMSG_CHANGE_CROSSLINE = ::RegisterWindowMessage(_T("RMSG_CHANGE_CROSSLINE"));

  00000	68 00 00 00 00	 push	 OFFSET ??_C@_0BG@LNLCJKPF@RMSG_CHANGE_CROSSLINE@
  00005	ff 15 00 00 00
	00		 call	 DWORD PTR __imp__RegisterWindowMessageA@4
  0000b	a3 00 00 00 00	 mov	 DWORD PTR ?RMSG_CHANGE_CROSSLINE@@3IB, eax
  00010	c3		 ret	 0
??__ERMSG_CHANGE_CROSSLINE@@YAXXZ ENDP			; `dynamic initializer for 'RMSG_CHANGE_CROSSLINE''
text$di	ENDS
; Function compile flags: /Ogtp
; File D:\git\src\IBK\IBK_DRFN\ProjSrc\SrcDrfn\Chart\MULTICHART\define\ChartMsgDef.h
;	COMDAT ??__ERMSG_CHANGEVERTSCALETYPE@@YAXXZ
text$di	SEGMENT
??__ERMSG_CHANGEVERTSCALETYPE@@YAXXZ PROC		; `dynamic initializer for 'RMSG_CHANGEVERTSCALETYPE'', COMDAT

; 229  : const UINT RMSG_CHANGEVERTSCALETYPE = ::RegisterWindowMessage(_T("RMSG_CHANGEVERTSCALETYPE"));

  00000	68 00 00 00 00	 push	 OFFSET ??_C@_0BJ@JLKHIBIK@RMSG_CHANGEVERTSCALETYPE@
  00005	ff 15 00 00 00
	00		 call	 DWORD PTR __imp__RegisterWindowMessageA@4
  0000b	a3 00 00 00 00	 mov	 DWORD PTR ?RMSG_CHANGEVERTSCALETYPE@@3IB, eax
  00010	c3		 ret	 0
??__ERMSG_CHANGEVERTSCALETYPE@@YAXXZ ENDP		; `dynamic initializer for 'RMSG_CHANGEVERTSCALETYPE''
text$di	ENDS
; Function compile flags: /Ogtp
; File D:\git\src\IBK\IBK_DRFN\ProjSrc\SrcDrfn\Chart\MULTICHART\define\ChartMsgDef.h
;	COMDAT ??__ERMSG_GET_SKINCOLOR@@YAXXZ
text$di	SEGMENT
??__ERMSG_GET_SKINCOLOR@@YAXXZ PROC			; `dynamic initializer for 'RMSG_GET_SKINCOLOR'', COMDAT

; 226  : const UINT RMSG_GET_SKINCOLOR = ::RegisterWindowMessage(_T("RMSG_GET_SKINCOLOR"));

  00000	68 00 00 00 00	 push	 OFFSET ??_C@_0BD@FLDNDDHK@RMSG_GET_SKINCOLOR@
  00005	ff 15 00 00 00
	00		 call	 DWORD PTR __imp__RegisterWindowMessageA@4
  0000b	a3 00 00 00 00	 mov	 DWORD PTR ?RMSG_GET_SKINCOLOR@@3IB, eax
  00010	c3		 ret	 0
??__ERMSG_GET_SKINCOLOR@@YAXXZ ENDP			; `dynamic initializer for 'RMSG_GET_SKINCOLOR''
text$di	ENDS
; Function compile flags: /Ogtp
; File D:\git\src\IBK\IBK_DRFN\ProjSrc\SrcDrfn\Chart\MULTICHART\define\ChartMsgDef.h
;	COMDAT ??__ERMSG_CHANGE_SKINCOLOR@@YAXXZ
text$di	SEGMENT
??__ERMSG_CHANGE_SKINCOLOR@@YAXXZ PROC			; `dynamic initializer for 'RMSG_CHANGE_SKINCOLOR'', COMDAT

; 225  : const UINT RMSG_CHANGE_SKINCOLOR = ::RegisterWindowMessage(_T("RMSG_CHANGE_SKINCOLOR"));

  00000	68 00 00 00 00	 push	 OFFSET ??_C@_0BG@CNPAHNGG@RMSG_CHANGE_SKINCOLOR@
  00005	ff 15 00 00 00
	00		 call	 DWORD PTR __imp__RegisterWindowMessageA@4
  0000b	a3 00 00 00 00	 mov	 DWORD PTR ?RMSG_CHANGE_SKINCOLOR@@3IB, eax
  00010	c3		 ret	 0
??__ERMSG_CHANGE_SKINCOLOR@@YAXXZ ENDP			; `dynamic initializer for 'RMSG_CHANGE_SKINCOLOR''
text$di	ENDS
; Function compile flags: /Ogtp
; File D:\git\src\IBK\IBK_DRFN\ProjSrc\SrcDrfn\Chart\MULTICHART\define\ChartMsgDef.h
;	COMDAT ??__ERMSG_GET_USERID@@YAXXZ
text$di	SEGMENT
??__ERMSG_GET_USERID@@YAXXZ PROC			; `dynamic initializer for 'RMSG_GET_USERID'', COMDAT

; 215  : const UINT RMSG_GET_USERID = ::RegisterWindowMessage(_T("RMSG_GET_USERID"));	// User ID 

  00000	68 00 00 00 00	 push	 OFFSET ??_C@_0BA@HKNFENJL@RMSG_GET_USERID@
  00005	ff 15 00 00 00
	00		 call	 DWORD PTR __imp__RegisterWindowMessageA@4
  0000b	a3 00 00 00 00	 mov	 DWORD PTR ?RMSG_GET_USERID@@3IB, eax
  00010	c3		 ret	 0
??__ERMSG_GET_USERID@@YAXXZ ENDP			; `dynamic initializer for 'RMSG_GET_USERID''
text$di	ENDS
; Function compile flags: /Ogtp
; File D:\git\src\IBK\IBK_DRFN\ProjSrc\SrcDrfn\Chart\MULTICHART\define\ChartMsgDef.h
;	COMDAT ??__ERMS_ANALYSIS_FUNC@@YAXXZ
text$di	SEGMENT
??__ERMS_ANALYSIS_FUNC@@YAXXZ PROC			; `dynamic initializer for 'RMS_ANALYSIS_FUNC'', COMDAT

; 211  : const UINT RMS_ANALYSIS_FUNC	= ::RegisterWindowMessage(_T("RMS_ANALYSIS_FUNC"));

  00000	68 00 00 00 00	 push	 OFFSET ??_C@_0BC@MMPGLPDH@RMS_ANALYSIS_FUNC@
  00005	ff 15 00 00 00
	00		 call	 DWORD PTR __imp__RegisterWindowMessageA@4
  0000b	a3 00 00 00 00	 mov	 DWORD PTR ?RMS_ANALYSIS_FUNC@@3IB, eax
  00010	c3		 ret	 0
??__ERMS_ANALYSIS_FUNC@@YAXXZ ENDP			; `dynamic initializer for 'RMS_ANALYSIS_FUNC''
text$di	ENDS
; Function compile flags: /Ogtp
; File D:\git\src\IBK\IBK_DRFN\ProjSrc\SrcDrfn\Chart\MULTICHART\define\ChartMsgDef.h
;	COMDAT ??__ERMSG_CHARTMAIN@@YAXXZ
text$di	SEGMENT
??__ERMSG_CHARTMAIN@@YAXXZ PROC				; `dynamic initializer for 'RMSG_CHARTMAIN'', COMDAT

; 208  : const UINT RMSG_CHARTMAIN		= ::RegisterWindowMessage(_T("RMSG_CHARTMAIN"));

  00000	68 00 00 00 00	 push	 OFFSET ??_C@_0P@KHFCBIOH@RMSG_CHARTMAIN@
  00005	ff 15 00 00 00
	00		 call	 DWORD PTR __imp__RegisterWindowMessageA@4
  0000b	a3 00 00 00 00	 mov	 DWORD PTR ?RMSG_CHARTMAIN@@3IB, eax
  00010	c3		 ret	 0
??__ERMSG_CHARTMAIN@@YAXXZ ENDP				; `dynamic initializer for 'RMSG_CHARTMAIN''
text$di	ENDS
; Function compile flags: /Ogtp
; File D:\git\src\IBK\IBK_DRFN\ProjSrc\SrcDrfn\Chart\MULTICHART\define\ChartMsgDef.h
;	COMDAT ??__ERMSG_SETQUERYOPT@@YAXXZ
text$di	SEGMENT
??__ERMSG_SETQUERYOPT@@YAXXZ PROC			; `dynamic initializer for 'RMSG_SETQUERYOPT'', COMDAT

; 183  : const UINT RMSG_SETQUERYOPT = ::RegisterWindowMessage(_T("RMSG_SETQUERYOPT"));

  00000	68 00 00 00 00	 push	 OFFSET ??_C@_0BB@CNOFPEHG@RMSG_SETQUERYOPT@
  00005	ff 15 00 00 00
	00		 call	 DWORD PTR __imp__RegisterWindowMessageA@4
  0000b	a3 00 00 00 00	 mov	 DWORD PTR ?RMSG_SETQUERYOPT@@3IB, eax
  00010	c3		 ret	 0
??__ERMSG_SETQUERYOPT@@YAXXZ ENDP			; `dynamic initializer for 'RMSG_SETQUERYOPT''
text$di	ENDS
; Function compile flags: /Ogtp
; File D:\git\src\IBK\IBK_DRFN\ProjSrc\SrcDrfn\Chart\commontr\TRDefine.h
;	COMDAT ??__ERMSG_GETSIGNAL_REAL@@YAXXZ
text$di	SEGMENT
??__ERMSG_GETSIGNAL_REAL@@YAXXZ PROC			; `dynamic initializer for 'RMSG_GETSIGNAL_REAL'', COMDAT

; 213  : const UINT RMSG_GETSIGNAL_REAL = ::RegisterWindowMessage(_T("RMSG_GETSIGNAL_REAL"));

  00000	68 00 00 00 00	 push	 OFFSET ??_C@_0BE@FJPKENOB@RMSG_GETSIGNAL_REAL@
  00005	ff 15 00 00 00
	00		 call	 DWORD PTR __imp__RegisterWindowMessageA@4
  0000b	a3 00 00 00 00	 mov	 DWORD PTR ?RMSG_GETSIGNAL_REAL@@3IB, eax
  00010	c3		 ret	 0
??__ERMSG_GETSIGNAL_REAL@@YAXXZ ENDP			; `dynamic initializer for 'RMSG_GETSIGNAL_REAL''
text$di	ENDS
; Function compile flags: /Ogtp
;	COMDAT ??1CMatrixSelecterDlg@@UAE@XZ
_TEXT	SEGMENT
??1CMatrixSelecterDlg@@UAE@XZ PROC			; CMatrixSelecterDlg::~CMatrixSelecterDlg, COMDAT
; _this$ = ecx
  00000	e9 00 00 00 00	 jmp	 ??1CDialog@@UAE@XZ	; CDialog::~CDialog
??1CMatrixSelecterDlg@@UAE@XZ ENDP			; CMatrixSelecterDlg::~CMatrixSelecterDlg
_TEXT	ENDS
; Function compile flags: /Ogtp
;	COMDAT ??1CRscDlg@@UAE@XZ
_TEXT	SEGMENT
??1CRscDlg@@UAE@XZ PROC					; CRscDlg::~CRscDlg, COMDAT
; _this$ = ecx
  00000	e9 00 00 00 00	 jmp	 ??1CDialog@@UAE@XZ	; CDialog::~CDialog
??1CRscDlg@@UAE@XZ ENDP					; CRscDlg::~CRscDlg
_TEXT	ENDS
; Function compile flags: /Ogtp
; File D:\git\src\IBK\IBK_DRFN\ProjSrc\SrcDrfn\Chart\MULTICHART\stdafx.h
;	COMDAT ??__ERMSG_GET_STDDLG_PTR@@YAXXZ
text$di	SEGMENT
??__ERMSG_GET_STDDLG_PTR@@YAXXZ PROC			; `dynamic initializer for 'RMSG_GET_STDDLG_PTR'', COMDAT

; 112  : const UINT RMSG_GET_STDDLG_PTR = ::RegisterWindowMessage("RMSG_GET_STDDLG_PTR");//20220117  >>

  00000	68 00 00 00 00	 push	 OFFSET ??_C@_0BE@LPIAJPJA@RMSG_GET_STDDLG_PTR@
  00005	ff 15 00 00 00
	00		 call	 DWORD PTR __imp__RegisterWindowMessageA@4
  0000b	a3 00 00 00 00	 mov	 DWORD PTR ?RMSG_GET_STDDLG_PTR@@3IB, eax
  00010	c3		 ret	 0
??__ERMSG_GET_STDDLG_PTR@@YAXXZ ENDP			; `dynamic initializer for 'RMSG_GET_STDDLG_PTR''
text$di	ENDS
; Function compile flags: /Ogtp
; File D:\git\src\IBK\IBK_DRFN\ProjSrc\SrcDrfn\inc\IBaseDefine.h
;	COMDAT ??__ERMSG_INTERFACE@@YAXXZ
text$di	SEGMENT
??__ERMSG_INTERFACE@@YAXXZ PROC				; `dynamic initializer for 'RMSG_INTERFACE'', COMDAT

; 170  : const UINT RMSG_INTERFACE = ::RegisterWindowMessage("RMSG_INTERFACE");

  00000	68 00 00 00 00	 push	 OFFSET ??_C@_0P@BKKCOCLK@RMSG_INTERFACE@
  00005	ff 15 00 00 00
	00		 call	 DWORD PTR __imp__RegisterWindowMessageA@4
  0000b	a3 00 00 00 00	 mov	 DWORD PTR ?RMSG_INTERFACE@@3IB, eax
  00010	c3		 ret	 0
??__ERMSG_INTERFACE@@YAXXZ ENDP				; `dynamic initializer for 'RMSG_INTERFACE''
text$di	ENDS
; Function compile flags: /Ogtp
; File C:\Program Files (x86)\Microsoft Visual Studio\2019\Community\VC\Tools\MSVC\14.29.30133\atlmfc\include\afx.inl
;	COMDAT ??_GCDateTimeCtrl@@UAEPAXI@Z
_TEXT	SEGMENT
___flags$ = 8						; size = 4
??_GCDateTimeCtrl@@UAEPAXI@Z PROC			; CDateTimeCtrl::`scalar deleting destructor', COMDAT
; _this$ = ecx
  00000	55		 push	 ebp
  00001	8b ec		 mov	 ebp, esp
  00003	56		 push	 esi
  00004	8b f1		 mov	 esi, ecx
  00006	e8 00 00 00 00	 call	 ??1CDateTimeCtrl@@UAE@XZ ; CDateTimeCtrl::~CDateTimeCtrl
  0000b	8b 45 08	 mov	 eax, DWORD PTR ___flags$[ebp]
  0000e	a8 01		 test	 al, 1
  00010	74 22		 je	 SHORT $LN9@scalar
  00012	a8 04		 test	 al, 4
  00014	75 10		 jne	 SHORT $LN3@scalar

; 112  : 	{ ::operator delete(p); }

  00016	56		 push	 esi
  00017	e8 00 00 00 00	 call	 ??3@YAXPAX@Z		; operator delete
  0001c	83 c4 04	 add	 esp, 4
  0001f	8b c6		 mov	 eax, esi
  00021	5e		 pop	 esi
  00022	5d		 pop	 ebp
  00023	c2 04 00	 ret	 4
$LN3@scalar:
  00026	68 80 00 00 00	 push	 128			; 00000080H
  0002b	56		 push	 esi
  0002c	e8 00 00 00 00	 call	 ?__global_delete@@YAXPAXI@Z ; __global_delete
  00031	83 c4 08	 add	 esp, 8
$LN9@scalar:
  00034	8b c6		 mov	 eax, esi
  00036	5e		 pop	 esi
  00037	5d		 pop	 ebp
  00038	c2 04 00	 ret	 4
??_GCDateTimeCtrl@@UAEPAXI@Z ENDP			; CDateTimeCtrl::`scalar deleting destructor'
_TEXT	ENDS
; Function compile flags: /Ogtp
; File C:\Program Files (x86)\Microsoft Visual Studio\2019\Community\VC\Tools\MSVC\14.29.30133\atlmfc\include\afx.inl
;	COMDAT ??_GCButton@@UAEPAXI@Z
_TEXT	SEGMENT
___flags$ = 8						; size = 4
??_GCButton@@UAEPAXI@Z PROC				; CButton::`scalar deleting destructor', COMDAT
; _this$ = ecx
  00000	55		 push	 ebp
  00001	8b ec		 mov	 ebp, esp
  00003	56		 push	 esi
  00004	8b f1		 mov	 esi, ecx
  00006	e8 00 00 00 00	 call	 ??1CButton@@UAE@XZ	; CButton::~CButton
  0000b	8b 45 08	 mov	 eax, DWORD PTR ___flags$[ebp]
  0000e	a8 01		 test	 al, 1
  00010	74 22		 je	 SHORT $LN9@scalar
  00012	a8 04		 test	 al, 4
  00014	75 10		 jne	 SHORT $LN3@scalar

; 112  : 	{ ::operator delete(p); }

  00016	56		 push	 esi
  00017	e8 00 00 00 00	 call	 ??3@YAXPAX@Z		; operator delete
  0001c	83 c4 04	 add	 esp, 4
  0001f	8b c6		 mov	 eax, esi
  00021	5e		 pop	 esi
  00022	5d		 pop	 ebp
  00023	c2 04 00	 ret	 4
$LN3@scalar:
  00026	68 80 00 00 00	 push	 128			; 00000080H
  0002b	56		 push	 esi
  0002c	e8 00 00 00 00	 call	 ?__global_delete@@YAXPAXI@Z ; __global_delete
  00031	83 c4 08	 add	 esp, 8
$LN9@scalar:
  00034	8b c6		 mov	 eax, esi
  00036	5e		 pop	 esi
  00037	5d		 pop	 ebp
  00038	c2 04 00	 ret	 4
??_GCButton@@UAEPAXI@Z ENDP				; CButton::`scalar deleting destructor'
_TEXT	ENDS
; Function compile flags: /Ogtp
; File C:\Program Files (x86)\Microsoft Visual Studio\2019\Community\VC\Tools\MSVC\14.29.30133\atlmfc\include\afxwin2.inl
;	COMDAT ?GetCheck@CButton@@QBEHXZ
_TEXT	SEGMENT
?GetCheck@CButton@@QBEHXZ PROC				; CButton::GetCheck, COMDAT
; _this$ = ecx

; 628  : 	{ ASSERT(::IsWindow(m_hWnd)); return (int)::SendMessage(m_hWnd, BM_GETCHECK, 0, 0); }

  00000	6a 00		 push	 0
  00002	6a 00		 push	 0
  00004	68 f0 00 00 00	 push	 240			; 000000f0H
  00009	ff 71 20	 push	 DWORD PTR [ecx+32]
  0000c	ff 15 00 00 00
	00		 call	 DWORD PTR __imp__SendMessageA@16
  00012	c3		 ret	 0
?GetCheck@CButton@@QBEHXZ ENDP				; CButton::GetCheck
_TEXT	ENDS
; Function compile flags: /Ogtp
; File C:\Program Files (x86)\Microsoft Visual Studio\2019\Community\VC\Tools\MSVC\14.29.30133\atlmfc\include\afx.inl
;	COMDAT ??_GCStatic@@UAEPAXI@Z
_TEXT	SEGMENT
___flags$ = 8						; size = 4
??_GCStatic@@UAEPAXI@Z PROC				; CStatic::`scalar deleting destructor', COMDAT
; _this$ = ecx
  00000	55		 push	 ebp
  00001	8b ec		 mov	 ebp, esp
  00003	56		 push	 esi
  00004	8b f1		 mov	 esi, ecx
  00006	e8 00 00 00 00	 call	 ??1CStatic@@UAE@XZ	; CStatic::~CStatic
  0000b	8b 45 08	 mov	 eax, DWORD PTR ___flags$[ebp]
  0000e	a8 01		 test	 al, 1
  00010	74 22		 je	 SHORT $LN9@scalar
  00012	a8 04		 test	 al, 4
  00014	75 10		 jne	 SHORT $LN3@scalar

; 112  : 	{ ::operator delete(p); }

  00016	56		 push	 esi
  00017	e8 00 00 00 00	 call	 ??3@YAXPAX@Z		; operator delete
  0001c	83 c4 04	 add	 esp, 4
  0001f	8b c6		 mov	 eax, esi
  00021	5e		 pop	 esi
  00022	5d		 pop	 ebp
  00023	c2 04 00	 ret	 4
$LN3@scalar:
  00026	68 80 00 00 00	 push	 128			; 00000080H
  0002b	56		 push	 esi
  0002c	e8 00 00 00 00	 call	 ?__global_delete@@YAXPAXI@Z ; __global_delete
  00031	83 c4 08	 add	 esp, 8
$LN9@scalar:
  00034	8b c6		 mov	 eax, esi
  00036	5e		 pop	 esi
  00037	5d		 pop	 ebp
  00038	c2 04 00	 ret	 4
??_GCStatic@@UAEPAXI@Z ENDP				; CStatic::`scalar deleting destructor'
_TEXT	ENDS
; Function compile flags: /Ogtp
; File C:\Program Files (x86)\Microsoft Visual Studio\2019\Community\VC\Tools\MSVC\14.29.30133\atlmfc\include\afxwin2.inl
;	COMDAT ?EndModalState@CWnd@@UAEXXZ
_TEXT	SEGMENT
?EndModalState@CWnd@@UAEXXZ PROC			; CWnd::EndModalState, COMDAT
; _this$ = ecx

; 567  : 	{ ::EnableWindow(m_hWnd, TRUE); }

  00000	6a 01		 push	 1
  00002	ff 71 20	 push	 DWORD PTR [ecx+32]
  00005	ff 15 00 00 00
	00		 call	 DWORD PTR __imp__EnableWindow@8
  0000b	c3		 ret	 0
?EndModalState@CWnd@@UAEXXZ ENDP			; CWnd::EndModalState
_TEXT	ENDS
; Function compile flags: /Ogtp
; File C:\Program Files (x86)\Microsoft Visual Studio\2019\Community\VC\Tools\MSVC\14.29.30133\atlmfc\include\afxwin2.inl
;	COMDAT ?BeginModalState@CWnd@@UAEXXZ
_TEXT	SEGMENT
?BeginModalState@CWnd@@UAEXXZ PROC			; CWnd::BeginModalState, COMDAT
; _this$ = ecx

; 565  : 	{ ::EnableWindow(m_hWnd, FALSE); }

  00000	6a 00		 push	 0
  00002	ff 71 20	 push	 DWORD PTR [ecx+32]
  00005	ff 15 00 00 00
	00		 call	 DWORD PTR __imp__EnableWindow@8
  0000b	c3		 ret	 0
?BeginModalState@CWnd@@UAEXXZ ENDP			; CWnd::BeginModalState
_TEXT	ENDS
; Function compile flags: /Ogtp
; File C:\Program Files (x86)\Microsoft Visual Studio\2019\Community\VC\Tools\MSVC\14.29.30133\atlmfc\include\afxwin2.inl
;	COMDAT ?DoDataExchange@CWnd@@MAEXPAVCDataExchange@@@Z
_TEXT	SEGMENT
___formal$ = 8						; size = 4
?DoDataExchange@CWnd@@MAEXPAVCDataExchange@@@Z PROC	; CWnd::DoDataExchange, COMDAT
; _this$ = ecx

; 561  : 	{ } // default does nothing

  00000	c2 04 00	 ret	 4
?DoDataExchange@CWnd@@MAEXPAVCDataExchange@@@Z ENDP	; CWnd::DoDataExchange
_TEXT	ENDS
; Function compile flags: /Ogtp
; File C:\Program Files (x86)\Microsoft Visual Studio\2019\Community\VC\Tools\MSVC\14.29.30133\atlmfc\include\afxwin1.inl
; File C:\Program Files (x86)\Microsoft Visual Studio\2019\Community\VC\Tools\MSVC\14.29.30133\atlmfc\include\afx.inl
;	COMDAT ??_GCMenu@@UAEPAXI@Z
_TEXT	SEGMENT
__$EHRec$ = -12						; size = 12
___flags$ = 8						; size = 4
??_GCMenu@@UAEPAXI@Z PROC				; CMenu::`scalar deleting destructor', COMDAT
; _this$ = ecx
  00000	55		 push	 ebp
  00001	8b ec		 mov	 ebp, esp
  00003	6a ff		 push	 -1
  00005	68 00 00 00 00	 push	 __ehhandler$??_GCMenu@@UAEPAXI@Z
  0000a	64 a1 00 00 00
	00		 mov	 eax, DWORD PTR fs:0
  00010	50		 push	 eax
  00011	56		 push	 esi
  00012	a1 00 00 00 00	 mov	 eax, DWORD PTR ___security_cookie
  00017	33 c5		 xor	 eax, ebp
  00019	50		 push	 eax
  0001a	8d 45 f4	 lea	 eax, DWORD PTR __$EHRec$[ebp]
  0001d	64 a3 00 00 00
	00		 mov	 DWORD PTR fs:0, eax
  00023	8b f1		 mov	 esi, ecx
; File C:\Program Files (x86)\Microsoft Visual Studio\2019\Community\VC\Tools\MSVC\14.29.30133\atlmfc\include\afxwin1.inl

; 905  : 	{ DestroyMenu(); }

  00025	c7 45 fc 00 00
	00 00		 mov	 DWORD PTR __$EHRec$[ebp+8], 0
  0002c	c7 06 00 00 00
	00		 mov	 DWORD PTR [esi], OFFSET ??_7CMenu@@6B@
  00032	e8 00 00 00 00	 call	 ?DestroyMenu@CMenu@@QAEHXZ ; CMenu::DestroyMenu
  00037	8b 45 08	 mov	 eax, DWORD PTR ___flags$[ebp]
  0003a	a8 01		 test	 al, 1
  0003c	74 2c		 je	 SHORT $LN12@scalar
  0003e	a8 04		 test	 al, 4
  00040	75 1d		 jne	 SHORT $LN3@scalar
; File C:\Program Files (x86)\Microsoft Visual Studio\2019\Community\VC\Tools\MSVC\14.29.30133\atlmfc\include\afx.inl

; 112  : 	{ ::operator delete(p); }

  00042	56		 push	 esi
  00043	e8 00 00 00 00	 call	 ??3@YAXPAX@Z		; operator delete
  00048	83 c4 04	 add	 esp, 4
  0004b	8b c6		 mov	 eax, esi
  0004d	8b 4d f4	 mov	 ecx, DWORD PTR __$EHRec$[ebp]
  00050	64 89 0d 00 00
	00 00		 mov	 DWORD PTR fs:0, ecx
  00057	59		 pop	 ecx
  00058	5e		 pop	 esi
  00059	8b e5		 mov	 esp, ebp
  0005b	5d		 pop	 ebp
  0005c	c2 04 00	 ret	 4
$LN3@scalar:
  0005f	6a 08		 push	 8
  00061	56		 push	 esi
  00062	e8 00 00 00 00	 call	 ?__global_delete@@YAXPAXI@Z ; __global_delete
  00067	83 c4 08	 add	 esp, 8
$LN12@scalar:
  0006a	8b c6		 mov	 eax, esi
  0006c	8b 4d f4	 mov	 ecx, DWORD PTR __$EHRec$[ebp]
  0006f	64 89 0d 00 00
	00 00		 mov	 DWORD PTR fs:0, ecx
  00076	59		 pop	 ecx
  00077	5e		 pop	 esi
  00078	8b e5		 mov	 esp, ebp
  0007a	5d		 pop	 ebp
  0007b	c2 04 00	 ret	 4
  0007e	cc		 int	 3
  0007f	cc		 int	 3
  00080	cc		 int	 3
  00081	cc		 int	 3
  00082	cc		 int	 3
_TEXT	ENDS
;	COMDAT text$x
text$x	SEGMENT
__ehhandler$??_GCMenu@@UAEPAXI@Z:
  00000	90		 npad	 1
  00001	90		 npad	 1
  00002	8b 54 24 08	 mov	 edx, DWORD PTR [esp+8]
  00006	8d 42 0c	 lea	 eax, DWORD PTR [edx+12]
  00009	8b 4a f8	 mov	 ecx, DWORD PTR [edx-8]
  0000c	33 c8		 xor	 ecx, eax
  0000e	e8 00 00 00 00	 call	 @__security_check_cookie@4
  00013	b8 00 00 00 00	 mov	 eax, OFFSET __ehfuncinfo$??_GCMenu@@UAEPAXI@Z
  00018	e9 00 00 00 00	 jmp	 ___CxxFrameHandler3
text$x	ENDS
??_GCMenu@@UAEPAXI@Z ENDP				; CMenu::`scalar deleting destructor'
; Function compile flags: /Ogtp
; File C:\Program Files (x86)\Microsoft Visual Studio\2019\Community\VC\Tools\MSVC\14.29.30133\atlmfc\include\afxwin1.inl
;	COMDAT ??1CMenu@@UAE@XZ
_TEXT	SEGMENT
__$EHRec$ = -12						; size = 12
??1CMenu@@UAE@XZ PROC					; CMenu::~CMenu, COMDAT
; _this$ = ecx

; 905  : 	{ DestroyMenu(); }

  00000	55		 push	 ebp
  00001	8b ec		 mov	 ebp, esp
  00003	6a ff		 push	 -1
  00005	68 00 00 00 00	 push	 __ehhandler$??1CMenu@@UAE@XZ
  0000a	64 a1 00 00 00
	00		 mov	 eax, DWORD PTR fs:0
  00010	50		 push	 eax
  00011	a1 00 00 00 00	 mov	 eax, DWORD PTR ___security_cookie
  00016	33 c5		 xor	 eax, ebp
  00018	50		 push	 eax
  00019	8d 45 f4	 lea	 eax, DWORD PTR __$EHRec$[ebp]
  0001c	64 a3 00 00 00
	00		 mov	 DWORD PTR fs:0, eax
  00022	c7 01 00 00 00
	00		 mov	 DWORD PTR [ecx], OFFSET ??_7CMenu@@6B@
  00028	e8 00 00 00 00	 call	 ?DestroyMenu@CMenu@@QAEHXZ ; CMenu::DestroyMenu
  0002d	8b 4d f4	 mov	 ecx, DWORD PTR __$EHRec$[ebp]
  00030	64 89 0d 00 00
	00 00		 mov	 DWORD PTR fs:0, ecx
  00037	59		 pop	 ecx
  00038	8b e5		 mov	 esp, ebp
  0003a	5d		 pop	 ebp
  0003b	c3		 ret	 0
  0003c	cc		 int	 3
  0003d	cc		 int	 3
  0003e	cc		 int	 3
  0003f	cc		 int	 3
  00040	cc		 int	 3
_TEXT	ENDS
;	COMDAT text$x
text$x	SEGMENT
__ehhandler$??1CMenu@@UAE@XZ:
  00000	90		 npad	 1
  00001	90		 npad	 1
  00002	8b 54 24 08	 mov	 edx, DWORD PTR [esp+8]
  00006	8d 42 0c	 lea	 eax, DWORD PTR [edx+12]
  00009	8b 4a fc	 mov	 ecx, DWORD PTR [edx-4]
  0000c	33 c8		 xor	 ecx, eax
  0000e	e8 00 00 00 00	 call	 @__security_check_cookie@4
  00013	b8 00 00 00 00	 mov	 eax, OFFSET __ehfuncinfo$??1CMenu@@UAE@XZ
  00018	e9 00 00 00 00	 jmp	 ___CxxFrameHandler3
text$x	ENDS
??1CMenu@@UAE@XZ ENDP					; CMenu::~CMenu
; Function compile flags: /Ogtp
; File C:\Program Files (x86)\Microsoft Visual Studio\2019\Community\VC\Tools\MSVC\14.29.30133\atlmfc\include\afxwin1.inl
; File C:\Program Files (x86)\Microsoft Visual Studio\2019\Community\VC\Tools\MSVC\14.29.30133\atlmfc\include\afx.inl
;	COMDAT ??_GCBitmap@@UAEPAXI@Z
_TEXT	SEGMENT
___flags$ = 8						; size = 4
??_GCBitmap@@UAEPAXI@Z PROC				; CBitmap::`scalar deleting destructor', COMDAT
; _this$ = ecx
  00000	55		 push	 ebp
  00001	8b ec		 mov	 ebp, esp
; File C:\Program Files (x86)\Microsoft Visual Studio\2019\Community\VC\Tools\MSVC\14.29.30133\atlmfc\include\afxwin1.inl

; 179  : 	{ }

  00003	56		 push	 esi
  00004	8b f1		 mov	 esi, ecx
  00006	c7 06 00 00 00
	00		 mov	 DWORD PTR [esi], OFFSET ??_7CBitmap@@6B@
  0000c	e8 00 00 00 00	 call	 ??1CGdiObject@@UAE@XZ	; CGdiObject::~CGdiObject
  00011	8b 45 08	 mov	 eax, DWORD PTR ___flags$[ebp]
  00014	a8 01		 test	 al, 1
  00016	74 1f		 je	 SHORT $LN12@scalar
  00018	a8 04		 test	 al, 4
  0001a	75 10		 jne	 SHORT $LN3@scalar
; File C:\Program Files (x86)\Microsoft Visual Studio\2019\Community\VC\Tools\MSVC\14.29.30133\atlmfc\include\afx.inl

; 112  : 	{ ::operator delete(p); }

  0001c	56		 push	 esi
  0001d	e8 00 00 00 00	 call	 ??3@YAXPAX@Z		; operator delete
  00022	83 c4 04	 add	 esp, 4
  00025	8b c6		 mov	 eax, esi
  00027	5e		 pop	 esi
  00028	5d		 pop	 ebp
  00029	c2 04 00	 ret	 4
$LN3@scalar:
  0002c	6a 08		 push	 8
  0002e	56		 push	 esi
  0002f	e8 00 00 00 00	 call	 ?__global_delete@@YAXPAXI@Z ; __global_delete
  00034	83 c4 08	 add	 esp, 8
$LN12@scalar:
  00037	8b c6		 mov	 eax, esi
  00039	5e		 pop	 esi
  0003a	5d		 pop	 ebp
  0003b	c2 04 00	 ret	 4
??_GCBitmap@@UAEPAXI@Z ENDP				; CBitmap::`scalar deleting destructor'
_TEXT	ENDS
; Function compile flags: /Ogtp
; File C:\Program Files (x86)\Microsoft Visual Studio\2019\Community\VC\Tools\MSVC\14.29.30133\atlmfc\include\afxwin1.inl
;	COMDAT ??1CBitmap@@UAE@XZ
_TEXT	SEGMENT
??1CBitmap@@UAE@XZ PROC					; CBitmap::~CBitmap, COMDAT
; _this$ = ecx

; 179  : 	{ }

  00000	c7 01 00 00 00
	00		 mov	 DWORD PTR [ecx], OFFSET ??_7CBitmap@@6B@
  00006	e9 00 00 00 00	 jmp	 ??1CGdiObject@@UAE@XZ	; CGdiObject::~CGdiObject
??1CBitmap@@UAE@XZ ENDP					; CBitmap::~CBitmap
_TEXT	ENDS
; Function compile flags: /Ogtp
; File C:\Program Files (x86)\Microsoft Visual Studio\2019\Community\VC\Tools\MSVC\14.29.30133\atlmfc\include\afxwin1.inl
; File C:\Program Files (x86)\Microsoft Visual Studio\2019\Community\VC\Tools\MSVC\14.29.30133\atlmfc\include\afx.inl
;	COMDAT ??_GCBrush@@UAEPAXI@Z
_TEXT	SEGMENT
___flags$ = 8						; size = 4
??_GCBrush@@UAEPAXI@Z PROC				; CBrush::`scalar deleting destructor', COMDAT
; _this$ = ecx
  00000	55		 push	 ebp
  00001	8b ec		 mov	 ebp, esp
; File C:\Program Files (x86)\Microsoft Visual Studio\2019\Community\VC\Tools\MSVC\14.29.30133\atlmfc\include\afxwin1.inl

; 130  : 	{ }

  00003	56		 push	 esi
  00004	8b f1		 mov	 esi, ecx
  00006	c7 06 00 00 00
	00		 mov	 DWORD PTR [esi], OFFSET ??_7CBrush@@6B@
  0000c	e8 00 00 00 00	 call	 ??1CGdiObject@@UAE@XZ	; CGdiObject::~CGdiObject
  00011	8b 45 08	 mov	 eax, DWORD PTR ___flags$[ebp]
  00014	a8 01		 test	 al, 1
  00016	74 1f		 je	 SHORT $LN12@scalar
  00018	a8 04		 test	 al, 4
  0001a	75 10		 jne	 SHORT $LN3@scalar
; File C:\Program Files (x86)\Microsoft Visual Studio\2019\Community\VC\Tools\MSVC\14.29.30133\atlmfc\include\afx.inl

; 112  : 	{ ::operator delete(p); }

  0001c	56		 push	 esi
  0001d	e8 00 00 00 00	 call	 ??3@YAXPAX@Z		; operator delete
  00022	83 c4 04	 add	 esp, 4
  00025	8b c6		 mov	 eax, esi
  00027	5e		 pop	 esi
  00028	5d		 pop	 ebp
  00029	c2 04 00	 ret	 4
$LN3@scalar:
  0002c	6a 08		 push	 8
  0002e	56		 push	 esi
  0002f	e8 00 00 00 00	 call	 ?__global_delete@@YAXPAXI@Z ; __global_delete
  00034	83 c4 08	 add	 esp, 8
$LN12@scalar:
  00037	8b c6		 mov	 eax, esi
  00039	5e		 pop	 esi
  0003a	5d		 pop	 ebp
  0003b	c2 04 00	 ret	 4
??_GCBrush@@UAEPAXI@Z ENDP				; CBrush::`scalar deleting destructor'
_TEXT	ENDS
; Function compile flags: /Ogtp
; File C:\Program Files (x86)\Microsoft Visual Studio\2019\Community\VC\Tools\MSVC\14.29.30133\atlmfc\include\afxwin1.inl
;	COMDAT ??1CBrush@@UAE@XZ
_TEXT	SEGMENT
??1CBrush@@UAE@XZ PROC					; CBrush::~CBrush, COMDAT
; _this$ = ecx

; 130  : 	{ }

  00000	c7 01 00 00 00
	00		 mov	 DWORD PTR [ecx], OFFSET ??_7CBrush@@6B@
  00006	e9 00 00 00 00	 jmp	 ??1CGdiObject@@UAE@XZ	; CGdiObject::~CGdiObject
??1CBrush@@UAE@XZ ENDP					; CBrush::~CBrush
_TEXT	ENDS
; Function compile flags: /Ogtp
; File C:\Program Files (x86)\Microsoft Visual Studio\2019\Community\VC\Tools\MSVC\14.29.30133\atlmfc\include\afx.inl
;	COMDAT ??_GCGdiObject@@UAEPAXI@Z
_TEXT	SEGMENT
___flags$ = 8						; size = 4
??_GCGdiObject@@UAEPAXI@Z PROC				; CGdiObject::`scalar deleting destructor', COMDAT
; _this$ = ecx
  00000	55		 push	 ebp
  00001	8b ec		 mov	 ebp, esp
  00003	56		 push	 esi
  00004	8b f1		 mov	 esi, ecx
  00006	e8 00 00 00 00	 call	 ??1CGdiObject@@UAE@XZ	; CGdiObject::~CGdiObject
  0000b	8b 45 08	 mov	 eax, DWORD PTR ___flags$[ebp]
  0000e	a8 01		 test	 al, 1
  00010	74 1f		 je	 SHORT $LN9@scalar
  00012	a8 04		 test	 al, 4
  00014	75 10		 jne	 SHORT $LN3@scalar

; 112  : 	{ ::operator delete(p); }

  00016	56		 push	 esi
  00017	e8 00 00 00 00	 call	 ??3@YAXPAX@Z		; operator delete
  0001c	83 c4 04	 add	 esp, 4
  0001f	8b c6		 mov	 eax, esi
  00021	5e		 pop	 esi
  00022	5d		 pop	 ebp
  00023	c2 04 00	 ret	 4
$LN3@scalar:
  00026	6a 08		 push	 8
  00028	56		 push	 esi
  00029	e8 00 00 00 00	 call	 ?__global_delete@@YAXPAXI@Z ; __global_delete
  0002e	83 c4 08	 add	 esp, 8
$LN9@scalar:
  00031	8b c6		 mov	 eax, esi
  00033	5e		 pop	 esi
  00034	5d		 pop	 ebp
  00035	c2 04 00	 ret	 4
??_GCGdiObject@@UAEPAXI@Z ENDP				; CGdiObject::`scalar deleting destructor'
_TEXT	ENDS
; Function compile flags: /Ogtp
; File C:\Program Files (x86)\Microsoft Visual Studio\2019\Community\VC\Tools\MSVC\14.29.30133\atlmfc\include\afxwin1.inl
;	COMDAT ??1CGdiObject@@UAE@XZ
_TEXT	SEGMENT
_pException$2 = -540					; size = 4
_strMsg$3 = -536					; size = 4
_szErrorMessage$4 = -532				; size = 512
__$ArrayPad$ = -20					; size = 4
__$EHRec$ = -16						; size = 16
??1CGdiObject@@UAE@XZ PROC				; CGdiObject::~CGdiObject, COMDAT
; _this$ = ecx

; 74   : {

  00000	55		 push	 ebp
  00001	8b ec		 mov	 ebp, esp
  00003	6a ff		 push	 -1
  00005	68 00 00 00 00	 push	 __ehhandler$??1CGdiObject@@UAE@XZ
  0000a	64 a1 00 00 00
	00		 mov	 eax, DWORD PTR fs:0
  00010	50		 push	 eax
  00011	81 ec 10 02 00
	00		 sub	 esp, 528		; 00000210H
  00017	a1 00 00 00 00	 mov	 eax, DWORD PTR ___security_cookie
  0001c	33 c5		 xor	 eax, ebp
  0001e	89 45 ec	 mov	 DWORD PTR __$ArrayPad$[ebp], eax
  00021	53		 push	 ebx
  00022	56		 push	 esi
  00023	57		 push	 edi
  00024	50		 push	 eax
  00025	8d 45 f4	 lea	 eax, DWORD PTR __$EHRec$[ebp+4]
  00028	64 a3 00 00 00
	00		 mov	 DWORD PTR fs:0, eax
  0002e	89 65 f0	 mov	 DWORD PTR __$EHRec$[ebp], esp
  00031	c7 01 00 00 00
	00		 mov	 DWORD PTR [ecx], OFFSET ??_7CGdiObject@@6B@

; 75   : 	AFX_BEGIN_DESTRUCTOR

  00037	c7 45 fc 00 00
	00 00		 mov	 DWORD PTR __$EHRec$[ebp+12], 0

; 76   : 	DeleteObject();

  0003e	e8 00 00 00 00	 call	 ?DeleteObject@CGdiObject@@QAEHXZ ; CGdiObject::DeleteObject
$LN18@CGdiObject:

; 78   : }

  00043	8b 4d f4	 mov	 ecx, DWORD PTR __$EHRec$[ebp+4]
  00046	64 89 0d 00 00
	00 00		 mov	 DWORD PTR fs:0, ecx
  0004d	59		 pop	 ecx
  0004e	5f		 pop	 edi
  0004f	5e		 pop	 esi
  00050	5b		 pop	 ebx
  00051	8b 4d ec	 mov	 ecx, DWORD PTR __$ArrayPad$[ebp]
  00054	33 cd		 xor	 ecx, ebp
  00056	e8 00 00 00 00	 call	 @__security_check_cookie@4
  0005b	8b e5		 mov	 esp, ebp
  0005d	5d		 pop	 ebp
  0005e	c3		 ret	 0
__catch$??1CGdiObject@@UAE@XZ$0:

; 77   : 	AFX_END_DESTRUCTOR

  0005f	8d 8d e8 fd ff
	ff		 lea	 ecx, DWORD PTR _strMsg$3[ebp]
  00065	ff 15 00 00 00
	00		 call	 DWORD PTR __imp_??0?$CStringT@DV?$StrTraitMFC_DLL@DV?$ChTraitsCRT@D@ATL@@@@@ATL@@QAE@XZ
  0006b	8b b5 e4 fd ff
	ff		 mov	 esi, DWORD PTR _pException$2[ebp]
  00071	8d 8d ec fd ff
	ff		 lea	 ecx, DWORD PTR _szErrorMessage$4[ebp]
  00077	6a 00		 push	 0
  00079	68 00 02 00 00	 push	 512			; 00000200H
  0007e	51		 push	 ecx
  0007f	8b 06		 mov	 eax, DWORD PTR [esi]
  00081	8b ce		 mov	 ecx, esi
  00083	c6 45 fc 02	 mov	 BYTE PTR __$EHRec$[ebp+12], 2
  00087	ff 50 14	 call	 DWORD PTR [eax+20]
  0008a	85 c0		 test	 eax, eax
  0008c	74 2a		 je	 SHORT $LN9@CGdiObject
  0008e	8d 85 ec fd ff
	ff		 lea	 eax, DWORD PTR _szErrorMessage$4[ebp]
  00094	50		 push	 eax
  00095	6a 4d		 push	 77			; 0000004dH
  00097	68 00 00 00 00	 push	 OFFSET ??_C@_0HD@JJCHHHNK@C?3?2Program?5Files?5?$CIx86?$CJ?2Microsof@
  0009c	68 00 00 00 00	 push	 OFFSET ??_C@_0BP@OIEOKIDM@Exception?5thrown?5in?5destructor@
  000a1	8d 85 e8 fd ff
	ff		 lea	 eax, DWORD PTR _strMsg$3[ebp]
  000a7	68 00 00 00 00	 push	 OFFSET ??_C@_0BB@HBOOMJBF@?$CFTs?5?$CI?$CFTs?3?$CFd?$CJ?6?$CFTs@
  000ac	50		 push	 eax
  000ad	ff 15 00 00 00
	00		 call	 DWORD PTR __imp_?Format@?$CStringT@DV?$StrTraitMFC_DLL@DV?$ChTraitsCRT@D@ATL@@@@@ATL@@QAAXPBDZZ
  000b3	83 c4 18	 add	 esp, 24			; 00000018H
  000b6	eb 21		 jmp	 SHORT $LN10@CGdiObject
$LN9@CGdiObject:
  000b8	6a 4d		 push	 77			; 0000004dH
  000ba	68 00 00 00 00	 push	 OFFSET ??_C@_0HD@JJCHHHNK@C?3?2Program?5Files?5?$CIx86?$CJ?2Microsof@
  000bf	68 00 00 00 00	 push	 OFFSET ??_C@_0BP@OIEOKIDM@Exception?5thrown?5in?5destructor@
  000c4	8d 85 e8 fd ff
	ff		 lea	 eax, DWORD PTR _strMsg$3[ebp]
  000ca	68 00 00 00 00	 push	 OFFSET ??_C@_0N@OMEMOKLE@?$CFTs?5?$CI?$CFTs?3?$CFd?$CJ@
  000cf	50		 push	 eax
  000d0	ff 15 00 00 00
	00		 call	 DWORD PTR __imp_?Format@?$CStringT@DV?$StrTraitMFC_DLL@DV?$ChTraitsCRT@D@ATL@@@@@ATL@@QAAXPBDZZ
  000d6	83 c4 14	 add	 esp, 20			; 00000014H
$LN10@CGdiObject:
  000d9	6a 00		 push	 0
  000db	6a 00		 push	 0
  000dd	ff b5 e8 fd ff
	ff		 push	 DWORD PTR _strMsg$3[ebp]
  000e3	e8 00 00 00 00	 call	 ?AfxMessageBox@@YGHPBDII@Z ; AfxMessageBox
  000e8	8d 8d e8 fd ff
	ff		 lea	 ecx, DWORD PTR _strMsg$3[ebp]
  000ee	ff 15 00 00 00
	00		 call	 DWORD PTR __imp_??1?$CStringT@DV?$StrTraitMFC_DLL@DV?$ChTraitsCRT@D@ATL@@@@@ATL@@QAE@XZ
  000f4	8b 06		 mov	 eax, DWORD PTR [esi]
  000f6	8b ce		 mov	 ecx, esi
  000f8	6a 01		 push	 1
  000fa	ff 50 04	 call	 DWORD PTR [eax+4]
  000fd	b8 00 00 00 00	 mov	 eax, $LN18@CGdiObject
  00102	c3		 ret	 0
_TEXT	ENDS
;	COMDAT text$x
text$x	SEGMENT
__unwindfunclet$??1CGdiObject@@UAE@XZ$2:
  00000	8d 8d e8 fd ff
	ff		 lea	 ecx, DWORD PTR _strMsg$3[ebp]
  00006	ff 25 00 00 00
	00		 jmp	 DWORD PTR __imp_??1?$CStringT@DV?$StrTraitMFC_DLL@DV?$ChTraitsCRT@D@ATL@@@@@ATL@@QAE@XZ
  0000c	cc		 int	 3
  0000d	cc		 int	 3
  0000e	cc		 int	 3
  0000f	cc		 int	 3
  00010	cc		 int	 3
__ehhandler$??1CGdiObject@@UAE@XZ:
  00011	90		 npad	 1
  00012	90		 npad	 1
  00013	8b 54 24 08	 mov	 edx, DWORD PTR [esp+8]
  00017	8d 42 0c	 lea	 eax, DWORD PTR [edx+12]
  0001a	8b 8a e0 fd ff
	ff		 mov	 ecx, DWORD PTR [edx-544]
  00020	33 c8		 xor	 ecx, eax
  00022	e8 00 00 00 00	 call	 @__security_check_cookie@4
  00027	8b 4a f8	 mov	 ecx, DWORD PTR [edx-8]
  0002a	33 c8		 xor	 ecx, eax
  0002c	e8 00 00 00 00	 call	 @__security_check_cookie@4
  00031	b8 00 00 00 00	 mov	 eax, OFFSET __ehfuncinfo$??1CGdiObject@@UAE@XZ
  00036	e9 00 00 00 00	 jmp	 ___CxxFrameHandler3
text$x	ENDS
??1CGdiObject@@UAE@XZ ENDP				; CGdiObject::~CGdiObject
; Function compile flags: /Ogtp
; File C:\Program Files (x86)\Microsoft Visual Studio\2019\Community\VC\Tools\MSVC\14.29.30133\atlmfc\include\atlbase.h
; File C:\Program Files (x86)\Microsoft Visual Studio\2019\Community\VC\Tools\MSVC\14.29.30133\atlmfc\include\atlsimpcoll.h
; File C:\Program Files (x86)\Microsoft Visual Studio\2019\Community\VC\Tools\MSVC\14.29.30133\atlmfc\include\atlbase.h
; File C:\Program Files (x86)\Microsoft Visual Studio\2019\Community\VC\Tools\MSVC\14.29.30133\atlmfc\include\atlsimpcoll.h
; File C:\Program Files (x86)\Microsoft Visual Studio\2019\Community\VC\Tools\MSVC\14.29.30133\atlmfc\include\atlcore.h
; File C:\Program Files (x86)\Microsoft Visual Studio\2019\Community\VC\Tools\MSVC\14.29.30133\atlmfc\include\atlsimpcoll.h
; File C:\Program Files (x86)\Microsoft Visual Studio\2019\Community\VC\Tools\MSVC\14.29.30133\atlmfc\include\atlcore.h
; File C:\Program Files (x86)\Microsoft Visual Studio\2019\Community\VC\Tools\MSVC\14.29.30133\atlmfc\include\atlbase.h
; File C:\Program Files (x86)\Microsoft Visual Studio\2019\Community\VC\Tools\MSVC\14.29.30133\atlmfc\include\atlsimpcoll.h
;	COMDAT ??__F_AtlWinModule@ATL@@YAXXZ
text$yd	SEGMENT
??__F_AtlWinModule@ATL@@YAXXZ PROC			; ATL::`dynamic atexit destructor for '_AtlWinModule'', COMDAT
; File C:\Program Files (x86)\Microsoft Visual Studio\2019\Community\VC\Tools\MSVC\14.29.30133\atlmfc\include\atlbase.h

; 7655 : 	if (pWinModule->cbSize == 0)

  00000	a1 00 00 00 00	 mov	 eax, DWORD PTR ?_AtlWinModule@ATL@@3VCAtlWinModule@1@A
  00005	8b 0d 00 00 00
	00		 mov	 ecx, DWORD PTR __imp__free

; 2957 : 		AtlWinModuleTerm(this, _AtlBaseModule.GetModuleInstance());

  0000b	57		 push	 edi
  0000c	8b 3d 04 00 00
	00		 mov	 edi, DWORD PTR ?_AtlBaseModule@ATL@@3VCAtlBaseModule@1@A+4

; 7655 : 	if (pWinModule->cbSize == 0)

  00012	85 c0		 test	 eax, eax
  00014	0f 84 93 00 00
	00		 je	 $LN8@dynamic

; 7656 : 		return S_OK;
; 7657 : 	if (pWinModule->cbSize != sizeof(_ATL_WIN_MODULE))

  0001a	83 f8 2c	 cmp	 eax, 44			; 0000002cH
  0001d	0f 85 8a 00 00
	00		 jne	 $LN8@dynamic

; 7658 : 		return E_INVALIDARG;
; 7659 : 
; 7660 : 	for (int i = 0; i < pWinModule->m_rgWindowClassAtoms.GetSize(); i++)

  00023	a1 24 00 00 00	 mov	 eax, DWORD PTR ?_AtlWinModule@ATL@@3VCAtlWinModule@1@A+36
  00028	56		 push	 esi
  00029	33 f6		 xor	 esi, esi
  0002b	85 c0		 test	 eax, eax
  0002d	7e 35		 jle	 SHORT $LN10@dynamic
  0002f	53		 push	 ebx
  00030	8b 1d 00 00 00
	00		 mov	 ebx, DWORD PTR __imp__UnregisterClassA@8
$LL11@dynamic:
; File C:\Program Files (x86)\Microsoft Visual Studio\2019\Community\VC\Tools\MSVC\14.29.30133\atlmfc\include\atlsimpcoll.h

; 238  : 		if(nIndex < 0 || nIndex >= m_nSize)

  00036	85 f6		 test	 esi, esi
  00038	0f 88 9e 00 00
	00		 js	 $LN46@dynamic
  0003e	3b f0		 cmp	 esi, eax
  00040	0f 8d 96 00 00
	00		 jge	 $LN46@dynamic
; File C:\Program Files (x86)\Microsoft Visual Studio\2019\Community\VC\Tools\MSVC\14.29.30133\atlmfc\include\atlbase.h

; 7661 : 		UnregisterClass((LPCTSTR)pWinModule->m_rgWindowClassAtoms[i], hInst);

  00046	a1 20 00 00 00	 mov	 eax, DWORD PTR ?_AtlWinModule@ATL@@3VCAtlWinModule@1@A+32
  0004b	57		 push	 edi
  0004c	0f b7 04 70	 movzx	 eax, WORD PTR [eax+esi*2]
  00050	50		 push	 eax
  00051	ff d3		 call	 ebx
  00053	a1 24 00 00 00	 mov	 eax, DWORD PTR ?_AtlWinModule@ATL@@3VCAtlWinModule@1@A+36
  00058	46		 inc	 esi
  00059	3b f0		 cmp	 esi, eax
  0005b	7c d9		 jl	 SHORT $LL11@dynamic
; File C:\Program Files (x86)\Microsoft Visual Studio\2019\Community\VC\Tools\MSVC\14.29.30133\atlmfc\include\atlsimpcoll.h

; 238  : 		if(nIndex < 0 || nIndex >= m_nSize)

  0005d	8b 0d 00 00 00
	00		 mov	 ecx, DWORD PTR __imp__free
  00063	5b		 pop	 ebx
$LN10@dynamic:

; 216  : 		if(m_aT != NULL)

  00064	a1 20 00 00 00	 mov	 eax, DWORD PTR ?_AtlWinModule@ATL@@3VCAtlWinModule@1@A+32
  00069	5e		 pop	 esi
  0006a	85 c0		 test	 eax, eax
  0006c	74 10		 je	 SHORT $LN25@dynamic

; 217  : 		{
; 218  : 			for(int i = 0; i < m_nSize; i++)
; 219  : 				m_aT[i].~T();
; 220  : 			free(m_aT);

  0006e	50		 push	 eax
  0006f	ff d1		 call	 ecx
  00071	83 c4 04	 add	 esp, 4

; 221  : 			m_aT = NULL;

  00074	c7 05 20 00 00
	00 00 00 00 00	 mov	 DWORD PTR ?_AtlWinModule@ATL@@3VCAtlWinModule@1@A+32, 0
$LN25@dynamic:
; File C:\Program Files (x86)\Microsoft Visual Studio\2019\Community\VC\Tools\MSVC\14.29.30133\atlmfc\include\atlcore.h

; 155  : 		DeleteCriticalSection(&m_sec);

  0007e	68 04 00 00 00	 push	 OFFSET ?_AtlWinModule@ATL@@3VCAtlWinModule@1@A+4
; File C:\Program Files (x86)\Microsoft Visual Studio\2019\Community\VC\Tools\MSVC\14.29.30133\atlmfc\include\atlsimpcoll.h

; 223  : 		m_nSize = 0;

  00083	c7 05 24 00 00
	00 00 00 00 00	 mov	 DWORD PTR ?_AtlWinModule@ATL@@3VCAtlWinModule@1@A+36, 0

; 224  : 		m_nAllocSize = 0;

  0008d	c7 05 28 00 00
	00 00 00 00 00	 mov	 DWORD PTR ?_AtlWinModule@ATL@@3VCAtlWinModule@1@A+40, 0
; File C:\Program Files (x86)\Microsoft Visual Studio\2019\Community\VC\Tools\MSVC\14.29.30133\atlmfc\include\atlcore.h

; 155  : 		DeleteCriticalSection(&m_sec);

  00097	ff 15 00 00 00
	00		 call	 DWORD PTR __imp__DeleteCriticalSection@4
; File C:\Program Files (x86)\Microsoft Visual Studio\2019\Community\VC\Tools\MSVC\14.29.30133\atlmfc\include\atlbase.h

; 7664 : 	pWinModule->cbSize = 0;

  0009d	8b 0d 00 00 00
	00		 mov	 ecx, DWORD PTR __imp__free
  000a3	c7 05 00 00 00
	00 00 00 00 00	 mov	 DWORD PTR ?_AtlWinModule@ATL@@3VCAtlWinModule@1@A, 0
$LN8@dynamic:
; File C:\Program Files (x86)\Microsoft Visual Studio\2019\Community\VC\Tools\MSVC\14.29.30133\atlmfc\include\atlsimpcoll.h

; 216  : 		if(m_aT != NULL)

  000ad	a1 20 00 00 00	 mov	 eax, DWORD PTR ?_AtlWinModule@ATL@@3VCAtlWinModule@1@A+32
  000b2	5f		 pop	 edi
  000b3	85 c0		 test	 eax, eax
  000b5	74 10		 je	 SHORT $LN40@dynamic

; 217  : 		{
; 218  : 			for(int i = 0; i < m_nSize; i++)
; 219  : 				m_aT[i].~T();
; 220  : 			free(m_aT);

  000b7	50		 push	 eax
  000b8	ff d1		 call	 ecx
  000ba	83 c4 04	 add	 esp, 4

; 221  : 			m_aT = NULL;

  000bd	c7 05 20 00 00
	00 00 00 00 00	 mov	 DWORD PTR ?_AtlWinModule@ATL@@3VCAtlWinModule@1@A+32, 0
$LN40@dynamic:

; 223  : 		m_nSize = 0;

  000c7	c7 05 24 00 00
	00 00 00 00 00	 mov	 DWORD PTR ?_AtlWinModule@ATL@@3VCAtlWinModule@1@A+36, 0

; 224  : 		m_nAllocSize = 0;

  000d1	c7 05 28 00 00
	00 00 00 00 00	 mov	 DWORD PTR ?_AtlWinModule@ATL@@3VCAtlWinModule@1@A+40, 0
  000db	c3		 ret	 0
$LN46@dynamic:

; 240  : 			_AtlRaiseException((DWORD)EXCEPTION_ARRAY_BOUNDS_EXCEEDED);

  000dc	6a 01		 push	 1
  000de	68 8c 00 00 c0	 push	 -1073741684		; c000008cH
  000e3	e8 00 00 00 00	 call	 ?_AtlRaiseException@ATL@@YAXKK@Z ; ATL::_AtlRaiseException
$LN56@dynamic:
  000e8	cc		 int	 3
??__F_AtlWinModule@ATL@@YAXXZ ENDP			; ATL::`dynamic atexit destructor for '_AtlWinModule''
text$yd	ENDS
; Function compile flags: /Ogtp
; File C:\Program Files (x86)\Microsoft Visual Studio\2019\Community\VC\Tools\MSVC\14.29.30133\atlmfc\include\atlbase.h
; File C:\Program Files (x86)\Microsoft Visual Studio\2019\Community\VC\Tools\MSVC\14.29.30133\atlmfc\include\atlwinverapi.h
; File C:\Program Files (x86)\Microsoft Visual Studio\2019\Community\VC\Tools\MSVC\14.29.30133\atlmfc\include\atlcore.h
; File C:\Program Files (x86)\Windows Kits\10\Include\10.0.22000.0\shared\winerror.h
; File C:\Program Files (x86)\Microsoft Visual Studio\2019\Community\VC\Tools\MSVC\14.29.30133\atlmfc\include\atlbase.h
;	COMDAT ??__E_AtlWinModule@ATL@@YAXXZ
text$di	SEGMENT
??__E_AtlWinModule@ATL@@YAXXZ PROC			; ATL::`dynamic initializer for '_AtlWinModule'', COMDAT
; File C:\Program Files (x86)\Microsoft Visual Studio\2019\Community\VC\Tools\MSVC\14.29.30133\atlmfc\include\atlwinverapi.h

; 730  : 	return ::InitializeCriticalSectionEx(lpCriticalSection, dwSpinCount, Flags);

  00000	6a 00		 push	 0
  00002	6a 00		 push	 0
  00004	68 04 00 00 00	 push	 OFFSET ?_AtlWinModule@ATL@@3VCAtlWinModule@1@A+4
  00009	ff 15 00 00 00
	00		 call	 DWORD PTR __imp__InitializeCriticalSectionEx@12
; File C:\Program Files (x86)\Microsoft Visual Studio\2019\Community\VC\Tools\MSVC\14.29.30133\atlmfc\include\atlcore.h

; 145  : 		if (!_AtlInitializeCriticalSectionEx(&m_sec, 0, 0))

  0000f	85 c0		 test	 eax, eax
  00011	75 27		 jne	 SHORT $LN4@dynamic

; 146  : 		{
; 147  : 			hRes = HRESULT_FROM_WIN32(GetLastError());

  00013	ff 15 00 00 00
	00		 call	 DWORD PTR __imp__GetLastError@0
; File C:\Program Files (x86)\Windows Kits\10\Include\10.0.22000.0\shared\winerror.h

; 29673: FORCEINLINE _Translates_Win32_to_HRESULT_(x) HRESULT HRESULT_FROM_WIN32(unsigned long x) { return (HRESULT)(x) <= 0 ? (HRESULT)(x) : (HRESULT) (((x) & 0x0000FFFF) | (FACILITY_WIN32 << 16) | 0x80000000);}

  00019	85 c0		 test	 eax, eax
  0001b	7e 0a		 jle	 SHORT $LN26@dynamic
  0001d	0f b7 c0	 movzx	 eax, ax
  00020	0d 00 00 07 80	 or	 eax, -2147024896	; 80070000H
; File C:\Program Files (x86)\Microsoft Visual Studio\2019\Community\VC\Tools\MSVC\14.29.30133\atlmfc\include\atlbase.h

; 2941 : 		if (FAILED(hr))

  00025	85 c0		 test	 eax, eax
$LN26@dynamic:
  00027	79 11		 jns	 SHORT $LN4@dynamic

; 2942 : 		{
; 2943 : 			ATLASSERT(0);
; 2944 : 			CAtlBaseModule::m_bInitFailed = true;

  00029	c6 05 00 00 00
	00 01		 mov	 BYTE PTR ?m_bInitFailed@CAtlBaseModule@ATL@@2_NA, 1 ; ATL::CAtlBaseModule::m_bInitFailed

; 2945 : 			cbSize = 0;

  00030	c7 05 00 00 00
	00 00 00 00 00	 mov	 DWORD PTR ?_AtlWinModule@ATL@@3VCAtlWinModule@1@A, 0
$LN4@dynamic:

; 2972 : __declspec(selectany) CAtlWinModule _AtlWinModule;

  0003a	68 00 00 00 00	 push	 OFFSET ??__F_AtlWinModule@ATL@@YAXXZ ; ATL::`dynamic atexit destructor for '_AtlWinModule''
  0003f	e8 00 00 00 00	 call	 _atexit
  00044	59		 pop	 ecx
  00045	c3		 ret	 0
??__E_AtlWinModule@ATL@@YAXXZ ENDP			; ATL::`dynamic initializer for '_AtlWinModule''
text$di	ENDS
; Function compile flags: /Ogtp
; File C:\Program Files (x86)\Microsoft Visual Studio\2019\Community\VC\Tools\MSVC\14.29.30133\atlmfc\include\atltime.h
;	COMDAT ?Format@CTime@ATL@@QBE?AV?$CStringT@DV?$StrTraitMFC_DLL@DV?$ChTraitsCRT@D@ATL@@@@@2@PBD@Z
_TEXT	SEGMENT
___$ReturnUdt$GSCopy$ = -172				; size = 4
_ptmTemp$ = -168					; size = 36
_szBuffer$ = -132					; size = 128
__$ArrayPad$ = -4					; size = 4
___$ReturnUdt$ = 8					; size = 4
_pFormat$ = 12						; size = 4
?Format@CTime@ATL@@QBE?AV?$CStringT@DV?$StrTraitMFC_DLL@DV?$ChTraitsCRT@D@ATL@@@@@2@PBD@Z PROC ; ATL::CTime::Format, COMDAT
; _this$ = ecx

; 1057 : {

  00000	55		 push	 ebp
  00001	8b ec		 mov	 ebp, esp
  00003	81 ec ac 00 00
	00		 sub	 esp, 172		; 000000acH
  00009	a1 00 00 00 00	 mov	 eax, DWORD PTR ___security_cookie
  0000e	33 c5		 xor	 eax, ebp
  00010	89 45 fc	 mov	 DWORD PTR __$ArrayPad$[ebp], eax
  00013	56		 push	 esi
  00014	8b 75 08	 mov	 esi, DWORD PTR ___$ReturnUdt$[ebp]
  00017	57		 push	 edi
  00018	8b 7d 0c	 mov	 edi, DWORD PTR _pFormat$[ebp]
  0001b	89 b5 54 ff ff
	ff		 mov	 DWORD PTR ___$ReturnUdt$GSCopy$[ebp], esi

; 1058 : 	if(pFormat == NULL)

  00021	85 ff		 test	 edi, edi
  00023	75 03		 jne	 SHORT $LN2@Format

; 1059 : 	{
; 1060 : 		return pFormat;

  00025	57		 push	 edi
  00026	eb 43		 jmp	 SHORT $LN11@Format
$LN2@Format:

; 1061 : 	}
; 1062 : 
; 1063 : 	TCHAR szBuffer[maxTimeBufferSize];
; 1064 : 	struct tm ptmTemp;
; 1065 : 
; 1066 : 	if (_localtime64_s(&ptmTemp, &m_time) != 0)

  00028	51		 push	 ecx
  00029	8d 85 58 ff ff
	ff		 lea	 eax, DWORD PTR _ptmTemp$[ebp]
  0002f	50		 push	 eax
  00030	ff 15 00 00 00
	00		 call	 DWORD PTR __imp___localtime64_s
  00036	83 c4 08	 add	 esp, 8
  00039	85 c0		 test	 eax, eax
  0003b	75 4a		 jne	 SHORT $LN13@Format

; 1069 : 	}
; 1070 : 
; 1071 : 	if (!_tcsftime(szBuffer, maxTimeBufferSize, pFormat, &ptmTemp))

  0003d	8d 85 58 ff ff
	ff		 lea	 eax, DWORD PTR _ptmTemp$[ebp]
  00043	50		 push	 eax
  00044	57		 push	 edi
  00045	8d 85 7c ff ff
	ff		 lea	 eax, DWORD PTR _szBuffer$[ebp]
  0004b	68 80 00 00 00	 push	 128			; 00000080H
  00050	50		 push	 eax
  00051	ff 15 00 00 00
	00		 call	 DWORD PTR __imp__strftime
  00057	83 c4 10	 add	 esp, 16			; 00000010H
  0005a	f7 d8		 neg	 eax
  0005c	1a c0		 sbb	 al, al
  0005e	20 85 7c ff ff
	ff		 and	 BYTE PTR _szBuffer$[ebp], al

; 1072 : 	{
; 1073 : 		szBuffer[0] = '\0';
; 1074 : 	}
; 1075 : 
; 1076 : 	return szBuffer;

  00064	8d 85 7c ff ff
	ff		 lea	 eax, DWORD PTR _szBuffer$[ebp]
  0006a	50		 push	 eax
$LN11@Format:

; 1077 : }

  0006b	8b ce		 mov	 ecx, esi
  0006d	ff 15 00 00 00
	00		 call	 DWORD PTR __imp_??0?$CStringT@DV?$StrTraitMFC_DLL@DV?$ChTraitsCRT@D@ATL@@@@@ATL@@QAE@PBD@Z
  00073	8b 4d fc	 mov	 ecx, DWORD PTR __$ArrayPad$[ebp]
  00076	8b c6		 mov	 eax, esi
  00078	5f		 pop	 edi
  00079	33 cd		 xor	 ecx, ebp
  0007b	5e		 pop	 esi
  0007c	e8 00 00 00 00	 call	 @__security_check_cookie@4
  00081	8b e5		 mov	 esp, ebp
  00083	5d		 pop	 ebp
  00084	c2 08 00	 ret	 8
$LN13@Format:

; 1067 : 	{
; 1068 : 		AtlThrow(E_INVALIDARG);

  00087	68 57 00 07 80	 push	 -2147024809		; 80070057H
  0008c	e8 00 00 00 00	 call	 ?AtlThrowImpl@ATL@@YGXJ@Z ; ATL::AtlThrowImpl
$LN10@Format:
  00091	cc		 int	 3
?Format@CTime@ATL@@QBE?AV?$CStringT@DV?$StrTraitMFC_DLL@DV?$ChTraitsCRT@D@ATL@@@@@2@PBD@Z ENDP ; ATL::CTime::Format
_TEXT	ENDS
; Function compile flags: /Ogtp
; File C:\Program Files (x86)\Microsoft Visual Studio\2019\Community\VC\Tools\MSVC\14.29.30133\atlmfc\include\atltime.h
;	COMDAT ??0CTime@ATL@@QAE@HHHHHHH@Z
_TEXT	SEGMENT
_atm$ = -40						; size = 36
__$ArrayPad$ = -4					; size = 4
_nYear$ = 8						; size = 4
_nMonth$ = 12						; size = 4
_nDay$ = 16						; size = 4
_nHour$ = 20						; size = 4
_nMin$ = 24						; size = 4
_nSec$ = 28						; size = 4
_nDST$ = 32						; size = 4
??0CTime@ATL@@QAE@HHHHHHH@Z PROC			; ATL::CTime::CTime, COMDAT
; _this$ = ecx

; 429  : {

  00000	55		 push	 ebp
  00001	8b ec		 mov	 ebp, esp
  00003	83 ec 28	 sub	 esp, 40			; 00000028H
  00006	a1 00 00 00 00	 mov	 eax, DWORD PTR ___security_cookie
  0000b	33 c5		 xor	 eax, ebp
  0000d	89 45 fc	 mov	 DWORD PTR __$ArrayPad$[ebp], eax

; 430  : #pragma warning (push)
; 431  : #pragma warning (disable: 4127)  // conditional expression constant
; 432  : 
; 433  : 	ATLENSURE( nYear >= 1970 );

  00010	81 7d 08 b2 07
	00 00		 cmp	 DWORD PTR _nYear$[ebp], 1970 ; 000007b2H
  00017	8b 55 18	 mov	 edx, DWORD PTR _nMin$[ebp]
  0001a	56		 push	 esi
  0001b	57		 push	 edi
  0001c	8b 7d 14	 mov	 edi, DWORD PTR _nHour$[ebp]
  0001f	8b f1		 mov	 esi, ecx
  00021	8b 4d 1c	 mov	 ecx, DWORD PTR _nSec$[ebp]
  00024	7c 73		 jl	 SHORT $LN57@CTime

; 434  : 	ATLENSURE( nMonth >= 1 && nMonth <= 12 );

  00026	53		 push	 ebx
  00027	8b 5d 0c	 mov	 ebx, DWORD PTR _nMonth$[ebp]
  0002a	4b		 dec	 ebx
  0002b	83 fb 0b	 cmp	 ebx, 11			; 0000000bH
  0002e	77 69		 ja	 SHORT $LN57@CTime

; 435  : 	ATLENSURE( nDay >= 1 && nDay <= 31 );

  00030	8b 45 10	 mov	 eax, DWORD PTR _nDay$[ebp]
  00033	48		 dec	 eax
  00034	83 f8 1e	 cmp	 eax, 30			; 0000001eH
  00037	77 60		 ja	 SHORT $LN57@CTime

; 436  : 	ATLENSURE( nHour >= 0 && nHour <= 23 );

  00039	83 ff 17	 cmp	 edi, 23			; 00000017H
  0003c	77 5b		 ja	 SHORT $LN57@CTime

; 437  : 	ATLENSURE( nMin >= 0 && nMin <= 59 );

  0003e	83 fa 3b	 cmp	 edx, 59			; 0000003bH
  00041	77 56		 ja	 SHORT $LN57@CTime

; 438  : 	ATLENSURE( nSec >= 0 && nSec <= 59 );

  00043	83 f9 3b	 cmp	 ecx, 59			; 0000003bH
  00046	77 51		 ja	 SHORT $LN57@CTime

; 439  : 
; 440  : #pragma warning (pop)
; 441  : 
; 442  : 	struct tm atm;
; 443  : 
; 444  : 	atm.tm_sec = nSec;
; 445  : 	atm.tm_min = nMin;
; 446  : 	atm.tm_hour = nHour;
; 447  : 	atm.tm_mday = nDay;

  00048	8b 45 10	 mov	 eax, DWORD PTR _nDay$[ebp]
  0004b	89 45 e4	 mov	 DWORD PTR _atm$[ebp+12], eax

; 448  : 	atm.tm_mon = nMonth - 1;        // tm_mon is 0 based
; 449  : 	atm.tm_year = nYear - 1900;     // tm_year is 1900 based

  0004e	8b 45 08	 mov	 eax, DWORD PTR _nYear$[ebp]
  00051	05 94 f8 ff ff	 add	 eax, -1900		; fffff894H
  00056	89 4d d8	 mov	 DWORD PTR _atm$[ebp], ecx
  00059	89 45 ec	 mov	 DWORD PTR _atm$[ebp+20], eax

; 450  : 	atm.tm_isdst = nDST;

  0005c	8b 45 20	 mov	 eax, DWORD PTR _nDST$[ebp]
  0005f	89 45 f8	 mov	 DWORD PTR _atm$[ebp+32], eax

; 451  : 
; 452  : 	m_time = _mktime64(&atm);

  00062	8d 45 d8	 lea	 eax, DWORD PTR _atm$[ebp]
  00065	50		 push	 eax
  00066	89 55 dc	 mov	 DWORD PTR _atm$[ebp+4], edx
  00069	89 7d e0	 mov	 DWORD PTR _atm$[ebp+8], edi
  0006c	89 5d e8	 mov	 DWORD PTR _atm$[ebp+16], ebx
  0006f	ff 15 00 00 00
	00		 call	 DWORD PTR __imp___mktime64
  00075	83 c4 04	 add	 esp, 4
  00078	89 06		 mov	 DWORD PTR [esi], eax

; 453  : 	ATLASSUME(m_time != -1);       // indicates an illegal input time
; 454  : 	if(m_time == -1)

  0007a	23 c2		 and	 eax, edx
  0007c	89 56 04	 mov	 DWORD PTR [esi+4], edx
  0007f	5b		 pop	 ebx
  00080	83 f8 ff	 cmp	 eax, -1
  00083	74 1e		 je	 SHORT $LN66@CTime

; 457  : 	}
; 458  : }

  00085	8b 4d fc	 mov	 ecx, DWORD PTR __$ArrayPad$[ebp]
  00088	8b c6		 mov	 eax, esi
  0008a	5f		 pop	 edi
  0008b	33 cd		 xor	 ecx, ebp
  0008d	5e		 pop	 esi
  0008e	e8 00 00 00 00	 call	 @__security_check_cookie@4
  00093	8b e5		 mov	 esp, ebp
  00095	5d		 pop	 ebp
  00096	c2 1c 00	 ret	 28			; 0000001cH
$LN57@CTime:

; 438  : 	ATLENSURE( nSec >= 0 && nSec <= 59 );

  00099	68 05 40 00 80	 push	 -2147467259		; 80004005H
  0009e	e8 00 00 00 00	 call	 ?AtlThrowImpl@ATL@@YGXJ@Z ; ATL::AtlThrowImpl
$LN66@CTime:

; 455  : 	{
; 456  : 		AtlThrow(E_INVALIDARG);

  000a3	68 57 00 07 80	 push	 -2147024809		; 80070057H
  000a8	e8 00 00 00 00	 call	 ?AtlThrowImpl@ATL@@YGXJ@Z ; ATL::AtlThrowImpl
$LN64@CTime:
  000ad	cc		 int	 3
??0CTime@ATL@@QAE@HHHHHHH@Z ENDP			; ATL::CTime::CTime
_TEXT	ENDS
; Function compile flags: /Ogtp
; File C:\Program Files (x86)\Microsoft Visual Studio\2019\Community\VC\Tools\MSVC\14.29.30133\atlmfc\include\atlwinverapi.h
;	COMDAT ?_AtlInitializeCriticalSectionEx@ATL@@YAHPAU_RTL_CRITICAL_SECTION@@KK@Z
_TEXT	SEGMENT
_lpCriticalSection$ = 8					; size = 4
_dwSpinCount$ = 12					; size = 4
_Flags$ = 16						; size = 4
?_AtlInitializeCriticalSectionEx@ATL@@YAHPAU_RTL_CRITICAL_SECTION@@KK@Z PROC ; ATL::_AtlInitializeCriticalSectionEx, COMDAT

; 727  : {

  00000	55		 push	 ebp
  00001	8b ec		 mov	 ebp, esp

; 728  : #if (NTDDI_VERSION >= NTDDI_VISTA) && !defined(_USING_V110_SDK71_) && !defined(_ATL_XP_TARGETING)
; 729  : 	// InitializeCriticalSectionEx is available in Vista or later, desktop or store apps
; 730  : 	return ::InitializeCriticalSectionEx(lpCriticalSection, dwSpinCount, Flags);

  00003	ff 75 10	 push	 DWORD PTR _Flags$[ebp]
  00006	ff 75 0c	 push	 DWORD PTR _dwSpinCount$[ebp]
  00009	ff 75 08	 push	 DWORD PTR _lpCriticalSection$[ebp]
  0000c	ff 15 00 00 00
	00		 call	 DWORD PTR __imp__InitializeCriticalSectionEx@12

; 731  : #else
; 732  : 	UNREFERENCED_PARAMETER(Flags);
; 733  : 
; 734  : 	// ...otherwise fall back to using InitializeCriticalSectionAndSpinCount.
; 735  : 	return ::InitializeCriticalSectionAndSpinCount(lpCriticalSection, dwSpinCount);
; 736  : #endif
; 737  : }

  00012	5d		 pop	 ebp
  00013	c3		 ret	 0
?_AtlInitializeCriticalSectionEx@ATL@@YAHPAU_RTL_CRITICAL_SECTION@@KK@Z ENDP ; ATL::_AtlInitializeCriticalSectionEx
_TEXT	ENDS
; Function compile flags: /Ogtp
; File C:\Program Files (x86)\Microsoft Visual Studio\2019\Community\VC\Tools\MSVC\14.29.30133\atlmfc\include\atlexcept.h
;	COMDAT ?_AtlRaiseException@ATL@@YAXKK@Z
_TEXT	SEGMENT
_dwExceptionCode$ = 8					; size = 4
_dwExceptionFlags$ = 12					; size = 4
?_AtlRaiseException@ATL@@YAXKK@Z PROC			; ATL::_AtlRaiseException, COMDAT

; 30   : {

  00000	55		 push	 ebp
  00001	8b ec		 mov	 ebp, esp

; 31   : 	RaiseException( dwExceptionCode, dwExceptionFlags, 0, NULL );

  00003	6a 00		 push	 0
  00005	6a 00		 push	 0
  00007	ff 75 0c	 push	 DWORD PTR _dwExceptionFlags$[ebp]
  0000a	ff 75 08	 push	 DWORD PTR _dwExceptionCode$[ebp]
  0000d	ff 15 00 00 00
	00		 call	 DWORD PTR __imp__RaiseException@16

; 32   : }

  00013	5d		 pop	 ebp
  00014	c3		 ret	 0
?_AtlRaiseException@ATL@@YAXKK@Z ENDP			; ATL::_AtlRaiseException
_TEXT	ENDS
; Function compile flags: /Ogtp
; File C:\Program Files (x86)\Microsoft Visual Studio\2019\Community\VC\Tools\MSVC\14.29.30133\atlmfc\include\atlexcept.h
;	COMDAT ?AtlThrowImpl@ATL@@YGXJ@Z
_TEXT	SEGMENT
_hr$ = 8						; size = 4
?AtlThrowImpl@ATL@@YGXJ@Z PROC				; ATL::AtlThrowImpl, COMDAT

; 65   : {

  00000	55		 push	 ebp
  00001	8b ec		 mov	 ebp, esp

; 66   : 	ATLTRACE(atlTraceException, 0, _T("AtlThrow: hr = 0x%x\n"), hr );
; 67   : #ifdef _AFX
; 68   : 	if( hr == E_OUTOFMEMORY )

  00003	8b 45 08	 mov	 eax, DWORD PTR _hr$[ebp]
  00006	3d 0e 00 07 80	 cmp	 eax, -2147024882	; 8007000eH
  0000b	75 05		 jne	 SHORT $LN2@AtlThrowIm

; 69   : 	{
; 70   : 		AfxThrowMemoryException();

  0000d	e8 00 00 00 00	 call	 ?AfxThrowMemoryException@@YGXXZ ; AfxThrowMemoryException
$LN2@AtlThrowIm:

; 71   : 	}
; 72   : 	else
; 73   : 	{
; 74   : 		AfxThrowOleException( hr );

  00012	50		 push	 eax
  00013	e8 00 00 00 00	 call	 ?AfxThrowOleException@@YGXJ@Z ; AfxThrowOleException
$LN5@AtlThrowIm:
  00018	cc		 int	 3
?AtlThrowImpl@ATL@@YGXJ@Z ENDP				; ATL::AtlThrowImpl
_TEXT	ENDS
; Function compile flags: /Ogtp
; File C:\Program Files (x86)\Microsoft Visual Studio\2019\Community\VC\Tools\MSVC\14.29.30133\atlmfc\include\afx.inl
;	COMDAT ?Dump@CObject@@UBEXAAVCDumpContext@@@Z
_TEXT	SEGMENT
___formal$ = 8						; size = 4
?Dump@CObject@@UBEXAAVCDumpContext@@@Z PROC		; CObject::Dump, COMDAT
; _this$ = ecx

; 122  : 	{ /* no dumping in release builds */ }

  00000	c2 04 00	 ret	 4
?Dump@CObject@@UBEXAAVCDumpContext@@@Z ENDP		; CObject::Dump
_TEXT	ENDS
; Function compile flags: /Ogtp
; File C:\Program Files (x86)\Microsoft Visual Studio\2019\Community\VC\Tools\MSVC\14.29.30133\atlmfc\include\afx.inl
;	COMDAT ?AssertValid@CObject@@UBEXXZ
_TEXT	SEGMENT
?AssertValid@CObject@@UBEXXZ PROC			; CObject::AssertValid, COMDAT
; _this$ = ecx

; 120  : 	{ /* no asserts in release builds */ }

  00000	c2 00 00	 ret	 0
?AssertValid@CObject@@UBEXXZ ENDP			; CObject::AssertValid
_TEXT	ENDS
; Function compile flags: /Ogtp
; File C:\Program Files (x86)\Microsoft Visual Studio\2019\Community\VC\Tools\MSVC\14.29.30133\atlmfc\include\afx.inl
;	COMDAT ?Serialize@CObject@@UAEXAAVCArchive@@@Z
_TEXT	SEGMENT
___formal$ = 8						; size = 4
?Serialize@CObject@@UAEXAAVCArchive@@@Z PROC		; CObject::Serialize, COMDAT
; _this$ = ecx

; 106  : 	{ /* CObject does not serialize anything by default */ }

  00000	c2 04 00	 ret	 4
?Serialize@CObject@@UAEXAAVCArchive@@@Z ENDP		; CObject::Serialize
_TEXT	ENDS
; Function compile flags: /Ogtp
; File C:\Program Files (x86)\Microsoft Visual Studio\2019\Community\VC\Tools\MSVC\14.29.30133\atlmfc\include\afx.inl
;	COMDAT ??1CObject@@UAE@XZ
_TEXT	SEGMENT
??1CObject@@UAE@XZ PROC					; CObject::~CObject, COMDAT
; _this$ = ecx

; 104  : 	{ }

  00000	c2 00 00	 ret	 0
??1CObject@@UAE@XZ ENDP					; CObject::~CObject
_TEXT	ENDS
; Function compile flags: /Ogtp
; File C:\Program Files (x86)\Windows Kits\10\Include\10.0.22000.0\ucrt\stdio.h
;	COMDAT _sscanf
_TEXT	SEGMENT
__Buffer$ = 8						; size = 4
__Format$ = 12						; size = 4
_sscanf	PROC						; COMDAT

; 2247 :     {

  00000	55		 push	 ebp
  00001	8b ec		 mov	 ebp, esp

; 2153 :         return __stdio_common_vsscanf(

  00003	8d 45 10	 lea	 eax, DWORD PTR __Format$[ebp+4]
  00006	50		 push	 eax
  00007	6a 00		 push	 0
  00009	ff 75 0c	 push	 DWORD PTR __Format$[ebp]
  0000c	6a ff		 push	 -1
  0000e	ff 75 08	 push	 DWORD PTR __Buffer$[ebp]
  00011	e8 00 00 00 00	 call	 ___local_stdio_scanf_options
  00016	ff 70 04	 push	 DWORD PTR [eax+4]
  00019	ff 30		 push	 DWORD PTR [eax]
  0001b	ff 15 00 00 00
	00		 call	 DWORD PTR __imp____stdio_common_vsscanf
  00021	83 c4 1c	 add	 esp, 28			; 0000001cH

; 2248 :         int _Result;
; 2249 :         va_list _ArgList;
; 2250 :         __crt_va_start(_ArgList, _Format);
; 2251 :         _Result = _vsscanf_l(_Buffer, _Format, NULL, _ArgList);
; 2252 :         __crt_va_end(_ArgList);
; 2253 :         return _Result;
; 2254 :     }

  00024	5d		 pop	 ebp
  00025	c3		 ret	 0
_sscanf	ENDP
_TEXT	ENDS
; Function compile flags: /Ogtp
; File C:\Program Files (x86)\Windows Kits\10\Include\10.0.22000.0\ucrt\corecrt_stdio_config.h
;	COMDAT ___local_stdio_scanf_options
_TEXT	SEGMENT
___local_stdio_scanf_options PROC			; COMDAT

; 101  :         static unsigned __int64 _OptionsStorage;
; 102  :         return &_OptionsStorage;

  00000	b8 00 00 00 00	 mov	 eax, OFFSET ?_OptionsStorage@?1??__local_stdio_scanf_options@@9@4_KA ; `__local_stdio_scanf_options'::`2'::_OptionsStorage

; 103  :     }

  00005	c3		 ret	 0
___local_stdio_scanf_options ENDP
_TEXT	ENDS
; Function compile flags: /Ogtp
; File D:\git\src\IBK\IBK_DRFN\ProjSrc\SrcDrfn\Chart\MULTICHART\ExtInputBarDlg.cpp
;	COMDAT ?__empty_global_delete@@YAXPAXI@Z
_TEXT	SEGMENT
___formal$ = 8						; size = 4
___formal$ = 12						; size = 4
?__empty_global_delete@@YAXPAXI@Z PROC			; __empty_global_delete, COMDAT

  00000	c2 00 00	 ret	 0
?__empty_global_delete@@YAXPAXI@Z ENDP			; __empty_global_delete
_TEXT	ENDS
; Function compile flags: /Ogtp
; File D:\git\src\IBK\IBK_DRFN\ProjSrc\SrcDrfn\Chart\MULTICHART\ExtInputBarDlg.cpp
;	COMDAT ?__empty_global_delete@@YAXPAX@Z
_TEXT	SEGMENT
___formal$ = 8						; size = 4
?__empty_global_delete@@YAXPAX@Z PROC			; __empty_global_delete, COMDAT

  00000	c2 00 00	 ret	 0
?__empty_global_delete@@YAXPAX@Z ENDP			; __empty_global_delete
_TEXT	ENDS
END
