; Listing generated by Microsoft (R) Optimizing Compiler Version 19.29.30145.0 

	TITLE	D:\git\src\IBK\IBK_DRFN\#DRfn-CS\_Obj\MultiChart\FloatingHogaDlg.obj
	.686P
	.XMM
	include listing.inc
	.model	flat

INCLUDELIB MSVCRT
INCLUDELIB OLDNAMES

PUBLIC	??_C@_0BE@FJPKENOB@RMSG_GETSIGNAL_REAL@		; `string'
PUBLIC	??_C@_0BB@CNOFPEHG@RMSG_SETQUERYOPT@		; `string'
PUBLIC	??_C@_0P@KHFCBIOH@RMSG_CHARTMAIN@		; `string'
PUBLIC	??_C@_0BC@MMPGLPDH@RMS_ANALYSIS_FUNC@		; `string'
PUBLIC	??_C@_0BA@HKNFENJL@RMSG_GET_USERID@		; `string'
PUBLIC	??_C@_0BG@CNPAHNGG@RMSG_CHANGE_SKINCOLOR@	; `string'
PUBLIC	??_C@_0BD@FLDNDDHK@RMSG_GET_SKINCOLOR@		; `string'
PUBLIC	??_C@_0BJ@JLKHIBIK@RMSG_CHANGEVERTSCALETYPE@	; `string'
PUBLIC	??_C@_0BG@LNLCJKPF@RMSG_CHANGE_CROSSLINE@	; `string'
PUBLIC	??_C@_0BH@IFDMIMBP@RMSG_ADD_PLATFORM_MENU@	; `string'
PUBLIC	??_C@_0BJ@OGNAJHHI@RMSG_SETINITIALCHARTDATA@	; `string'
PUBLIC	??_C@_0N@IIOKMIEH@RMSG_GETINFO@			; `string'
PUBLIC	??_C@_0N@HABLPHJG@RMSG_SETINFO@			; `string'
PUBLIC	??_C@_0P@BKKCOCLK@RMSG_INTERFACE@		; `string'
;	COMDAT ??_C@_0P@BKKCOCLK@RMSG_INTERFACE@
CONST	SEGMENT
??_C@_0P@BKKCOCLK@RMSG_INTERFACE@ DB 'RMSG_INTERFACE', 00H ; `string'
CONST	ENDS
;	COMDAT ??_C@_0N@HABLPHJG@RMSG_SETINFO@
CONST	SEGMENT
??_C@_0N@HABLPHJG@RMSG_SETINFO@ DB 'RMSG_SETINFO', 00H	; `string'
CONST	ENDS
;	COMDAT ??_C@_0N@IIOKMIEH@RMSG_GETINFO@
CONST	SEGMENT
??_C@_0N@IIOKMIEH@RMSG_GETINFO@ DB 'RMSG_GETINFO', 00H	; `string'
CONST	ENDS
;	COMDAT ??_C@_0BJ@OGNAJHHI@RMSG_SETINITIALCHARTDATA@
CONST	SEGMENT
??_C@_0BJ@OGNAJHHI@RMSG_SETINITIALCHARTDATA@ DB 'RMSG_SETINITIALCHARTDATA'
	DB	00H						; `string'
CONST	ENDS
;	COMDAT ??_C@_0BH@IFDMIMBP@RMSG_ADD_PLATFORM_MENU@
CONST	SEGMENT
??_C@_0BH@IFDMIMBP@RMSG_ADD_PLATFORM_MENU@ DB 'RMSG_ADD_PLATFORM_MENU', 00H ; `string'
CONST	ENDS
;	COMDAT ??_C@_0BG@LNLCJKPF@RMSG_CHANGE_CROSSLINE@
CONST	SEGMENT
??_C@_0BG@LNLCJKPF@RMSG_CHANGE_CROSSLINE@ DB 'RMSG_CHANGE_CROSSLINE', 00H ; `string'
CONST	ENDS
;	COMDAT ??_C@_0BJ@JLKHIBIK@RMSG_CHANGEVERTSCALETYPE@
CONST	SEGMENT
??_C@_0BJ@JLKHIBIK@RMSG_CHANGEVERTSCALETYPE@ DB 'RMSG_CHANGEVERTSCALETYPE'
	DB	00H						; `string'
CONST	ENDS
;	COMDAT ??_C@_0BD@FLDNDDHK@RMSG_GET_SKINCOLOR@
CONST	SEGMENT
??_C@_0BD@FLDNDDHK@RMSG_GET_SKINCOLOR@ DB 'RMSG_GET_SKINCOLOR', 00H ; `string'
CONST	ENDS
;	COMDAT ??_C@_0BG@CNPAHNGG@RMSG_CHANGE_SKINCOLOR@
CONST	SEGMENT
??_C@_0BG@CNPAHNGG@RMSG_CHANGE_SKINCOLOR@ DB 'RMSG_CHANGE_SKINCOLOR', 00H ; `string'
CONST	ENDS
;	COMDAT ??_C@_0BA@HKNFENJL@RMSG_GET_USERID@
CONST	SEGMENT
??_C@_0BA@HKNFENJL@RMSG_GET_USERID@ DB 'RMSG_GET_USERID', 00H ; `string'
CONST	ENDS
;	COMDAT ??_C@_0BC@MMPGLPDH@RMS_ANALYSIS_FUNC@
CONST	SEGMENT
??_C@_0BC@MMPGLPDH@RMS_ANALYSIS_FUNC@ DB 'RMS_ANALYSIS_FUNC', 00H ; `string'
CONST	ENDS
;	COMDAT ??_C@_0P@KHFCBIOH@RMSG_CHARTMAIN@
CONST	SEGMENT
??_C@_0P@KHFCBIOH@RMSG_CHARTMAIN@ DB 'RMSG_CHARTMAIN', 00H ; `string'
CONST	ENDS
;	COMDAT ??_C@_0BB@CNOFPEHG@RMSG_SETQUERYOPT@
CONST	SEGMENT
??_C@_0BB@CNOFPEHG@RMSG_SETQUERYOPT@ DB 'RMSG_SETQUERYOPT', 00H ; `string'
CONST	ENDS
;	COMDAT ??_C@_0BE@FJPKENOB@RMSG_GETSIGNAL_REAL@
CONST	SEGMENT
??_C@_0BE@FJPKENOB@RMSG_GETSIGNAL_REAL@ DB 'RMSG_GETSIGNAL_REAL', 00H ; `string'
CONST	ENDS
PUBLIC	?__empty_global_delete@@YAXPAX@Z		; __empty_global_delete
PUBLIC	?__empty_global_delete@@YAXPAXI@Z		; __empty_global_delete
PUBLIC	___local_stdio_scanf_options
PUBLIC	_sscanf
PUBLIC	?AfxCrtErrorCheck@@YAHH@Z			; AfxCrtErrorCheck
PUBLIC	??1CObject@@UAE@XZ				; CObject::~CObject
PUBLIC	??3CObject@@SGXPAX@Z				; CObject::operator delete
PUBLIC	?Serialize@CObject@@UAEXAAVCArchive@@@Z		; CObject::Serialize
PUBLIC	?AssertValid@CObject@@UBEXXZ			; CObject::AssertValid
PUBLIC	?Dump@CObject@@UBEXAAVCDumpContext@@@Z		; CObject::Dump
PUBLIC	??1CGdiObject@@UAE@XZ				; CGdiObject::~CGdiObject
PUBLIC	??_GCGdiObject@@UAEPAXI@Z			; CGdiObject::`scalar deleting destructor'
PUBLIC	??1CFont@@UAE@XZ				; CFont::~CFont
PUBLIC	??_GCFont@@UAEPAXI@Z				; CFont::`scalar deleting destructor'
PUBLIC	??1CBitmap@@UAE@XZ				; CBitmap::~CBitmap
PUBLIC	??_GCBitmap@@UAEPAXI@Z				; CBitmap::`scalar deleting destructor'
PUBLIC	?DoDataExchange@CWnd@@MAEXPAVCDataExchange@@@Z	; CWnd::DoDataExchange
PUBLIC	?BeginModalState@CWnd@@UAEXXZ			; CWnd::BeginModalState
PUBLIC	?EndModalState@CWnd@@UAEXXZ			; CWnd::EndModalState
PUBLIC	??_GCButton@@UAEPAXI@Z				; CButton::`scalar deleting destructor'
PUBLIC	??1CRscDlg@@UAE@XZ				; CRscDlg::~CRscDlg
PUBLIC	??_GCUtil@@UAEPAXI@Z				; CUtil::`scalar deleting destructor'
PUBLIC	??1_GV_ITEM@@QAE@XZ				; _GV_ITEM::~_GV_ITEM
PUBLIC	??0CKB_01230@@QAE@XZ				; CKB_01230::CKB_01230
PUBLIC	?Convert@CKB_01230@@UAEXPAU_k01230Out2@@@Z	; CKB_01230::Convert
PUBLIC	??1CKB_01230@@QAE@XZ				; CKB_01230::~CKB_01230
PUBLIC	??0CKBREAL_KXH1@@QAE@XZ				; CKBREAL_KXH1::CKBREAL_KXH1
PUBLIC	?Convert@CKBREAL_KXH1@@UAEXPAU_KXH1_OutBlock@@@Z ; CKBREAL_KXH1::Convert
PUBLIC	??1CKBREAL_KXH1@@QAE@XZ				; CKBREAL_KXH1::~CKBREAL_KXH1
PUBLIC	?Convert@CKBREAL_KXYS@@UAEXPAU_KXYS_OutBlock@@@Z ; CKBREAL_KXYS::Convert
PUBLIC	??1CKBREAL_KXYS@@QAE@XZ				; CKBREAL_KXYS::~CKBREAL_KXYS
PUBLIC	?SetMarkRealCurPrice@CFloatingHogaDlg@@QAEXPADH@Z ; CFloatingHogaDlg::SetMarkRealCurPrice
PUBLIC	??0CFloatingHogaDlg@@QAE@PAVCWnd@@@Z		; CFloatingHogaDlg::CFloatingHogaDlg
PUBLIC	??0?$CMap@GGV?$CStringT@DV?$StrTraitMFC_DLL@DV?$ChTraitsCRT@D@ATL@@@@@ATL@@V12@@@QAE@H@Z ; CMap<unsigned short,unsigned short,ATL::CStringT<char,StrTraitMFC_DLL<char,ATL::ChTraitsCRT<char> > >,ATL::CStringT<char,StrTraitMFC_DLL<char,ATL::ChTraitsCRT<char> > > >::CMap<unsigned short,unsigned short,ATL::CStringT<char,StrTraitMFC_DLL<char,ATL::ChTraitsCRT<char> > >,ATL::CStringT<char,StrTraitMFC_DLL<char,ATL::ChTraitsCRT<char> > > >
PUBLIC	??A?$CMap@GGV?$CStringT@DV?$StrTraitMFC_DLL@DV?$ChTraitsCRT@D@ATL@@@@@ATL@@V12@@@QAEAAV?$CStringT@DV?$StrTraitMFC_DLL@DV?$ChTraitsCRT@D@ATL@@@@@ATL@@G@Z ; CMap<unsigned short,unsigned short,ATL::CStringT<char,StrTraitMFC_DLL<char,ATL::ChTraitsCRT<char> > >,ATL::CStringT<char,StrTraitMFC_DLL<char,ATL::ChTraitsCRT<char> > > >::operator[]
PUBLIC	?RemoveAll@?$CMap@GGV?$CStringT@DV?$StrTraitMFC_DLL@DV?$ChTraitsCRT@D@ATL@@@@@ATL@@V12@@@QAEXXZ ; CMap<unsigned short,unsigned short,ATL::CStringT<char,StrTraitMFC_DLL<char,ATL::ChTraitsCRT<char> > >,ATL::CStringT<char,StrTraitMFC_DLL<char,ATL::ChTraitsCRT<char> > > >::RemoveAll
PUBLIC	?InitHashTable@?$CMap@GGV?$CStringT@DV?$StrTraitMFC_DLL@DV?$ChTraitsCRT@D@ATL@@@@@ATL@@V12@@@QAEXIH@Z ; CMap<unsigned short,unsigned short,ATL::CStringT<char,StrTraitMFC_DLL<char,ATL::ChTraitsCRT<char> > >,ATL::CStringT<char,StrTraitMFC_DLL<char,ATL::ChTraitsCRT<char> > > >::InitHashTable
PUBLIC	?NewAssoc@?$CMap@GGV?$CStringT@DV?$StrTraitMFC_DLL@DV?$ChTraitsCRT@D@ATL@@@@@ATL@@V12@@@IAEPAVCAssoc@1@G@Z ; CMap<unsigned short,unsigned short,ATL::CStringT<char,StrTraitMFC_DLL<char,ATL::ChTraitsCRT<char> > >,ATL::CStringT<char,StrTraitMFC_DLL<char,ATL::ChTraitsCRT<char> > > >::NewAssoc
PUBLIC	?GetAssocAt@?$CMap@GGV?$CStringT@DV?$StrTraitMFC_DLL@DV?$ChTraitsCRT@D@ATL@@@@@ATL@@V12@@@IBEPAVCAssoc@1@GAAI0@Z ; CMap<unsigned short,unsigned short,ATL::CStringT<char,StrTraitMFC_DLL<char,ATL::ChTraitsCRT<char> > >,ATL::CStringT<char,StrTraitMFC_DLL<char,ATL::ChTraitsCRT<char> > > >::GetAssocAt
PUBLIC	??1?$CMap@GGV?$CStringT@DV?$StrTraitMFC_DLL@DV?$ChTraitsCRT@D@ATL@@@@@ATL@@V12@@@UAE@XZ ; CMap<unsigned short,unsigned short,ATL::CStringT<char,StrTraitMFC_DLL<char,ATL::ChTraitsCRT<char> > >,ATL::CStringT<char,StrTraitMFC_DLL<char,ATL::ChTraitsCRT<char> > > >::~CMap<unsigned short,unsigned short,ATL::CStringT<char,StrTraitMFC_DLL<char,ATL::ChTraitsCRT<char> > >,ATL::CStringT<char,StrTraitMFC_DLL<char,ATL::ChTraitsCRT<char> > > >
PUBLIC	?Serialize@?$CMap@GGV?$CStringT@DV?$StrTraitMFC_DLL@DV?$ChTraitsCRT@D@ATL@@@@@ATL@@V12@@@UAEXAAVCArchive@@@Z ; CMap<unsigned short,unsigned short,ATL::CStringT<char,StrTraitMFC_DLL<char,ATL::ChTraitsCRT<char> > >,ATL::CStringT<char,StrTraitMFC_DLL<char,ATL::ChTraitsCRT<char> > > >::Serialize
PUBLIC	??_G?$CMap@GGV?$CStringT@DV?$StrTraitMFC_DLL@DV?$ChTraitsCRT@D@ATL@@@@@ATL@@V12@@@UAEPAXI@Z ; CMap<unsigned short,unsigned short,ATL::CStringT<char,StrTraitMFC_DLL<char,ATL::ChTraitsCRT<char> > >,ATL::CStringT<char,StrTraitMFC_DLL<char,ATL::ChTraitsCRT<char> > > >::`scalar deleting destructor'
PUBLIC	??0?$CArray@PAVCHogaData@@PAV1@@@QAE@XZ		; CArray<CHogaData *,CHogaData *>::CArray<CHogaData *,CHogaData *>
PUBLIC	?SetSize@?$CArray@PAVCHogaData@@PAV1@@@QAEXHH@Z	; CArray<CHogaData *,CHogaData *>::SetSize
PUBLIC	?SetAtGrow@?$CArray@PAVCHogaData@@PAV1@@@QAEXHPAVCHogaData@@@Z ; CArray<CHogaData *,CHogaData *>::SetAtGrow
PUBLIC	?Add@?$CArray@PAVCHogaData@@PAV1@@@QAEHPAVCHogaData@@@Z ; CArray<CHogaData *,CHogaData *>::Add
PUBLIC	?InsertAt@?$CArray@PAVCHogaData@@PAV1@@@QAEXHPAVCHogaData@@H@Z ; CArray<CHogaData *,CHogaData *>::InsertAt
PUBLIC	??1?$CArray@PAVCHogaData@@PAV1@@@UAE@XZ		; CArray<CHogaData *,CHogaData *>::~CArray<CHogaData *,CHogaData *>
PUBLIC	?Serialize@?$CArray@PAVCHogaData@@PAV1@@@UAEXAAVCArchive@@@Z ; CArray<CHogaData *,CHogaData *>::Serialize
PUBLIC	??_G?$CArray@PAVCHogaData@@PAV1@@@UAEPAXI@Z	; CArray<CHogaData *,CHogaData *>::`scalar deleting destructor'
PUBLIC	?HogaMemoryFree@CFloatingHogaDlg@@QAEXXZ	; CFloatingHogaDlg::HogaMemoryFree
PUBLIC	?SendTrHoga@CFloatingHogaDlg@@QAEXXZ		; CFloatingHogaDlg::SendTrHoga
PUBLIC	?RecvHogaData@CFloatingHogaDlg@@QAEXHPAD@Z	; CFloatingHogaDlg::RecvHogaData
PUBLIC	?SetRealHogaData@CFloatingHogaDlg@@QAEXAAVCKBREAL_KXH1@@@Z ; CFloatingHogaDlg::SetRealHogaData
PUBLIC	?SetRealHogaData@CFloatingHogaDlg@@QAEXKV?$CStringT@DV?$StrTraitMFC_DLL@DV?$ChTraitsCRT@D@ATL@@@@@ATL@@J@Z ; CFloatingHogaDlg::SetRealHogaData
PUBLIC	?SetRealYeShangData@CFloatingHogaDlg@@QAEXPBD@Z	; CFloatingHogaDlg::SetRealYeShangData
PUBLIC	?SetRealHogaData_Sub@CFloatingHogaDlg@@QAEXV?$CStringT@DV?$StrTraitMFC_DLL@DV?$ChTraitsCRT@D@ATL@@@@@ATL@@0H@Z ; CFloatingHogaDlg::SetRealHogaData_Sub
PUBLIC	?SetRealHogaData_Rem@CFloatingHogaDlg@@QAEXV?$CStringT@DV?$StrTraitMFC_DLL@DV?$ChTraitsCRT@D@ATL@@@@@ATL@@H@Z ; CFloatingHogaDlg::SetRealHogaData_Rem
PUBLIC	?CheckRealHogaDataWithinHogaData@CFloatingHogaDlg@@QAEHV?$CStringT@DV?$StrTraitMFC_DLL@DV?$ChTraitsCRT@D@ATL@@@@@ATL@@PAH@Z ; CFloatingHogaDlg::CheckRealHogaDataWithinHogaData
PUBLIC	?DisplayClear_AllHogaData@CFloatingHogaDlg@@QAEXXZ ; CFloatingHogaDlg::DisplayClear_AllHogaData
PUBLIC	?SetHogaData@CFloatingHogaDlg@@QAEXPADHH@Z	; CFloatingHogaDlg::SetHogaData
PUBLIC	?SetHogaData_Sub@CFloatingHogaDlg@@QAEXV?$CStringT@DV?$StrTraitMFC_DLL@DV?$ChTraitsCRT@D@ATL@@@@@ATL@@00H@Z ; CFloatingHogaDlg::SetHogaData_Sub
PUBLIC	?CompareNUpdateHogaData@CFloatingHogaDlg@@QAEXHHV?$CStringT@DV?$StrTraitMFC_DLL@DV?$ChTraitsCRT@D@ATL@@@@@ATL@@HK@Z ; CFloatingHogaDlg::CompareNUpdateHogaData
PUBLIC	?GetHogaGridBkColor@CFloatingHogaDlg@@QAEKH@Z	; CFloatingHogaDlg::GetHogaGridBkColor
PUBLIC	?InitGrid@CFloatingHogaDlg@@QAEXXZ		; CFloatingHogaDlg::InitGrid
PUBLIC	?InitGridRowCol@CFloatingHogaDlg@@QAEXXZ	; CFloatingHogaDlg::InitGridRowCol
PUBLIC	?ChangeGrid_AllWidth@CFloatingHogaDlg@@QAEXXZ	; CFloatingHogaDlg::ChangeGrid_AllWidth
PUBLIC	?InitGridFormat@CFloatingHogaDlg@@QAEXXZ	; CFloatingHogaDlg::InitGridFormat
PUBLIC	?ChangeGrid_RowHeight@CFloatingHogaDlg@@QAEXXZ	; CFloatingHogaDlg::ChangeGrid_RowHeight
PUBLIC	?ChangeGrid_ColumnWidth@CFloatingHogaDlg@@QAEXXZ ; CFloatingHogaDlg::ChangeGrid_ColumnWidth
PUBLIC	?PreTranslateMessage@CFloatingHogaDlg@@UAEHPAUtagMSG@@@Z ; CFloatingHogaDlg::PreTranslateMessage
PUBLIC	?DoDataExchange@CFloatingHogaDlg@@MAEXPAVCDataExchange@@@Z ; CFloatingHogaDlg::DoDataExchange
PUBLIC	?WindowProc@CFloatingHogaDlg@@MAEJIIJ@Z		; CFloatingHogaDlg::WindowProc
PUBLIC	?OnLButtonDown@CFloatingHogaDlg@@IAEXIVCPoint@@@Z ; CFloatingHogaDlg::OnLButtonDown
PUBLIC	?OnSize@CFloatingHogaDlg@@IAEXIHH@Z		; CFloatingHogaDlg::OnSize
PUBLIC	?OnInitDialog@CFloatingHogaDlg@@MAEHXZ		; CFloatingHogaDlg::OnInitDialog
PUBLIC	?OnLButtonDblClk@CFloatingHogaDlg@@IAEXIVCPoint@@@Z ; CFloatingHogaDlg::OnLButtonDblClk
PUBLIC	?OnLButtonUp@CFloatingHogaDlg@@IAEXIVCPoint@@@Z	; CFloatingHogaDlg::OnLButtonUp
PUBLIC	?OnMouseMove@CFloatingHogaDlg@@IAEXIVCPoint@@@Z	; CFloatingHogaDlg::OnMouseMove
PUBLIC	?OnDestroy@CFloatingHogaDlg@@IAEXXZ		; CFloatingHogaDlg::OnDestroy
PUBLIC	?OnSetCursor@CFloatingHogaDlg@@IAEHPAVCWnd@@II@Z ; CFloatingHogaDlg::OnSetCursor
PUBLIC	?OnPaint@CFloatingHogaDlg@@IAEXXZ		; CFloatingHogaDlg::OnPaint
PUBLIC	?OnButtonClose@CFloatingHogaDlg@@IAEXXZ		; CFloatingHogaDlg::OnButtonClose
PUBLIC	?OnEraseBkgnd@CFloatingHogaDlg@@IAEHPAVCDC@@@Z	; CFloatingHogaDlg::OnEraseBkgnd
PUBLIC	?OnNcHitTest@CFloatingHogaDlg@@IAEJVCPoint@@@Z	; CFloatingHogaDlg::OnNcHitTest
PUBLIC	?GetThisMessageMap@CFloatingHogaDlg@@KGPBUAFX_MSGMAP@@XZ ; CFloatingHogaDlg::GetThisMessageMap
PUBLIC	?GetMessageMap@CFloatingHogaDlg@@MBEPBUAFX_MSGMAP@@XZ ; CFloatingHogaDlg::GetMessageMap
PUBLIC	?MakeDrdsConnectAdvise@CFloatingHogaDlg@@QAEHXZ	; CFloatingHogaDlg::MakeDrdsConnectAdvise
PUBLIC	?MakeDrdsUnConnectUnAdvise@CFloatingHogaDlg@@QAEHXZ ; CFloatingHogaDlg::MakeDrdsUnConnectUnAdvise
PUBLIC	?OnCodeAdvise@CFloatingHogaDlg@@QAEXPBD@Z	; CFloatingHogaDlg::OnCodeAdvise
PUBLIC	?OnCodeUnAdvise@CFloatingHogaDlg@@QAEXPBD@Z	; CFloatingHogaDlg::OnCodeUnAdvise
PUBLIC	?RemoveExtra@CFloatingHogaDlg@@QAEXAAVCKBREAL_KXH1@@@Z ; CFloatingHogaDlg::RemoveExtra
PUBLIC	??_GCFloatingHogaDlg@@UAEPAXI@Z			; CFloatingHogaDlg::`scalar deleting destructor'
PUBLIC	??$SerializeElements@G@@YGXAAVCArchive@@PAGH@Z	; SerializeElements<unsigned short>
PUBLIC	??$SerializeElements@PAVCHogaData@@@@YGXAAVCArchive@@PAPAVCHogaData@@H@Z ; SerializeElements<CHogaData *>
PUBLIC	??$CompareElements@GG@@YGHPBG0@Z		; CompareElements<unsigned short,unsigned short>
PUBLIC	?_OptionsStorage@?1??__local_stdio_scanf_options@@9@4_KA ; `__local_stdio_scanf_options'::`2'::_OptionsStorage
PUBLIC	??_R0PAVCException@@@8				; CException * `RTTI Type Descriptor'
PUBLIC	??_C@_02DPKJAMEF@?$CFd@				; `string'
PUBLIC	??_C@_00CNPNBAHC@@				; `string'
PUBLIC	??_7CGdiObject@@6B@				; CGdiObject::`vftable'
PUBLIC	??_7CFont@@6B@					; CFont::`vftable'
PUBLIC	??_7CBitmap@@6B@				; CBitmap::`vftable'
PUBLIC	??_7CButton@@6B@				; CButton::`vftable'
PUBLIC	??_C@_0HD@JJCHHHNK@C?3?2Program?5Files?5?$CIx86?$CJ?2Microsof@ ; `string'
PUBLIC	??_C@_0BP@OIEOKIDM@Exception?5thrown?5in?5destructor@ ; `string'
PUBLIC	??_C@_0BB@HBOOMJBF@?$CFTs?5?$CI?$CFTs?3?$CFd?$CJ?6?$CFTs@ ; `string'
PUBLIC	??_C@_0N@OMEMOKLE@?$CFTs?5?$CI?$CFTs?3?$CFd?$CJ@ ; `string'
PUBLIC	??_C@_02DKCKIIND@?$CFs@				; `string'
PUBLIC	??_C@_0M@CBBNGGHM@PcTrMng?4dll@			; `string'
PUBLIC	??_C@_0P@IDMAJEGN@HANAROPCTRMAIN@		; `string'
PUBLIC	??_C@_06NDLAHCHE@?$CFs?$CF08X@			; `string'
PUBLIC	??_C@_02EMFKHFLK@?$CFX@				; `string'
PUBLIC	??_C@_01GBGANLPD@0@				; `string'
PUBLIC	??_R0?AVCObject@@@8				; CObject `RTTI Type Descriptor'
PUBLIC	??_R3CObject@@8					; CObject::`RTTI Class Hierarchy Descriptor'
PUBLIC	??_R2CObject@@8					; CObject::`RTTI Base Class Array'
PUBLIC	??_R1A@?0A@EA@CObject@@8			; CObject::`RTTI Base Class Descriptor at (0,-1,0,64)'
PUBLIC	??_R4CGdiObject@@6B@				; CGdiObject::`RTTI Complete Object Locator'
PUBLIC	??_R0?AVCGdiObject@@@8				; CGdiObject `RTTI Type Descriptor'
PUBLIC	??_R3CGdiObject@@8				; CGdiObject::`RTTI Class Hierarchy Descriptor'
PUBLIC	??_R2CGdiObject@@8				; CGdiObject::`RTTI Base Class Array'
PUBLIC	??_R1A@?0A@EA@CGdiObject@@8			; CGdiObject::`RTTI Base Class Descriptor at (0,-1,0,64)'
PUBLIC	??_R4CFont@@6B@					; CFont::`RTTI Complete Object Locator'
PUBLIC	??_R0?AVCFont@@@8				; CFont `RTTI Type Descriptor'
PUBLIC	??_R3CFont@@8					; CFont::`RTTI Class Hierarchy Descriptor'
PUBLIC	??_R2CFont@@8					; CFont::`RTTI Base Class Array'
PUBLIC	??_R1A@?0A@EA@CFont@@8				; CFont::`RTTI Base Class Descriptor at (0,-1,0,64)'
PUBLIC	??_R4CBitmap@@6B@				; CBitmap::`RTTI Complete Object Locator'
PUBLIC	??_R0?AVCBitmap@@@8				; CBitmap `RTTI Type Descriptor'
PUBLIC	??_R3CBitmap@@8					; CBitmap::`RTTI Class Hierarchy Descriptor'
PUBLIC	??_R2CBitmap@@8					; CBitmap::`RTTI Base Class Array'
PUBLIC	??_R1A@?0A@EA@CBitmap@@8			; CBitmap::`RTTI Base Class Descriptor at (0,-1,0,64)'
PUBLIC	??_R1A@?0A@EA@CWnd@@8				; CWnd::`RTTI Base Class Descriptor at (0,-1,0,64)'
PUBLIC	??_R0?AVCWnd@@@8				; CWnd `RTTI Type Descriptor'
PUBLIC	??_R3CWnd@@8					; CWnd::`RTTI Class Hierarchy Descriptor'
PUBLIC	??_R2CWnd@@8					; CWnd::`RTTI Base Class Array'
PUBLIC	??_R1A@?0A@EA@CCmdTarget@@8			; CCmdTarget::`RTTI Base Class Descriptor at (0,-1,0,64)'
PUBLIC	??_R0?AVCCmdTarget@@@8				; CCmdTarget `RTTI Type Descriptor'
PUBLIC	??_R3CCmdTarget@@8				; CCmdTarget::`RTTI Class Hierarchy Descriptor'
PUBLIC	??_R2CCmdTarget@@8				; CCmdTarget::`RTTI Base Class Array'
PUBLIC	??_R4CButton@@6B@				; CButton::`RTTI Complete Object Locator'
PUBLIC	??_R0?AVCButton@@@8				; CButton `RTTI Type Descriptor'
PUBLIC	??_R3CButton@@8					; CButton::`RTTI Class Hierarchy Descriptor'
PUBLIC	??_R2CButton@@8					; CButton::`RTTI Base Class Array'
PUBLIC	??_R1A@?0A@EA@CButton@@8			; CButton::`RTTI Base Class Descriptor at (0,-1,0,64)'
PUBLIC	??_R1A@?0A@EA@CDialog@@8			; CDialog::`RTTI Base Class Descriptor at (0,-1,0,64)'
PUBLIC	??_R0?AVCDialog@@@8				; CDialog `RTTI Type Descriptor'
PUBLIC	??_R3CDialog@@8					; CDialog::`RTTI Class Hierarchy Descriptor'
PUBLIC	??_R2CDialog@@8					; CDialog::`RTTI Base Class Array'
PUBLIC	??_7CUtil@@6B@					; CUtil::`vftable'
PUBLIC	??_7CKB_01230@@6B@				; CKB_01230::`vftable'
PUBLIC	??_7CKBREAL_KXH1@@6B@				; CKBREAL_KXH1::`vftable'
PUBLIC	??_7CKBREAL_KXYS@@6B@				; CKBREAL_KXYS::`vftable'
PUBLIC	??_7?$CMap@GGV?$CStringT@DV?$StrTraitMFC_DLL@DV?$ChTraitsCRT@D@ATL@@@@@ATL@@V12@@@6B@ ; CMap<unsigned short,unsigned short,ATL::CStringT<char,StrTraitMFC_DLL<char,ATL::ChTraitsCRT<char> > >,ATL::CStringT<char,StrTraitMFC_DLL<char,ATL::ChTraitsCRT<char> > > >::`vftable'
PUBLIC	??_7?$CArray@PAVCHogaData@@PAV1@@@6B@		; CArray<CHogaData *,CHogaData *>::`vftable'
PUBLIC	??_7CFloatingHogaDlg@@6B@			; CFloatingHogaDlg::`vftable'
PUBLIC	??_C@_08FKDHAHKC@5?H?$KD?$LA?$KB?5?C?$KC@	; `string'
PUBLIC	??_C@_0BD@CMCCCNBF@HANAROIGATEMANAGER@		; `string'
PUBLIC	??_C@_06MFMMLLPC@?$LB?$LM?$LI?$LC?C?$LM@	; `string'
PUBLIC	??_R0PAVCMemoryException@@@8			; CMemoryException * `RTTI Type Descriptor'
PUBLIC	??_C@_08DHOMADKC@Stop?$LI?E?$LF?$LF@		; `string'
PUBLIC	??_C@_02CONNCEND@?C?k@				; `string'
PUBLIC	??_C@_08MNAHFBJA@?$LI?E?$LF?$LF?A?V?$LJ?$KO@	; `string'
PUBLIC	??_C@_08JFEELFEO@?$LI?E?$LF?$LF?$MA?$NM?$LH?$KO@ ; `string'
PUBLIC	??_C@_05FGHBPLEF@?H?$KD?5?$LA?$KB@		; `string'
PUBLIC	??_C@_05BGBFEMBO@?5?$LF?n?$LG?t@		; `string'
PUBLIC	??_C@_08IJBAIIFP@?$LI?E?$LM?v?$MA?$NM?$LH?$KO@	; `string'
PUBLIC	??_C@_08NBFDGMIB@?$LI?E?$LM?v?A?V?$LJ?$KO@	; `string'
PUBLIC	??_C@_08ODGJCEOL@Stop?$LI?E?$LM?v@		; `string'
PUBLIC	??_C@_06ONEPBMEK@?$LF?n?$LG?t?$MA?$LC@		; `string'
PUBLIC	??_C@_05NAFAMIEH@?5?$LM?v?$MA?M@		; `string'
PUBLIC	??_C@_04OJFMPMDJ@?C?k?$LM?R@			; `string'
PUBLIC	??_C@_09DCEFIFCJ@5?H?$KD?$LA?$KB?$MA?$NM?$LH?$KO@ ; `string'
PUBLIC	??_C@_06DDAGPNBF@?C?Q?$MA?$NM?$LH?$KO@		; `string'
PUBLIC	??_C@_06BINLOPDK@?$LN?C?$LA?$KD?$LP?$NM@	; `string'
PUBLIC	??_C@_04MGNKPMDF@?$LL?s?G?Q@			; `string'
PUBLIC	??_C@_04EAAFLGOC@?G?O?G?Q@			; `string'
PUBLIC	??_C@_05OEELCGHA@?$CF1?41s@			; `string'
PUBLIC	??_C@_01CLKCMJKC@?5@				; `string'
PUBLIC	??_C@_04GEFJINEE@?$CF?42f@			; `string'
PUBLIC	??_C@_01FGNFDNOH@?$CF@				; `string'
PUBLIC	??_C@_02EHLBLIAD@?A?V@				; `string'
PUBLIC	??_C@_0L@NIGCCKF@?$LP?$LJ?$LL?s?C?$LM?$LA?a?$LA?$KB@ ; `string'
PUBLIC	??_C@_0L@IPFBCIOP@?$LP?$LJ?$LL?s?C?$LM?$LA?a?$LH?$KO@ ; `string'
PUBLIC	??_C@_01NBENCBCI@?$CK@				; `string'
PUBLIC	??_C@_04KAJDJNDN@KXH1@				; `string'
PUBLIC	??_C@_04OKLMFNFP@KXYS@				; `string'
PUBLIC	??_C@_03MJOJCMOF@071@				; `string'
PUBLIC	??_C@_03OCMEHPCG@072@				; `string'
PUBLIC	??_C@_03PLNPEOGH@073@				; `string'
PUBLIC	??_C@_03LEJONIKA@074@				; `string'
PUBLIC	??_C@_03KNIFOJOB@075@				; `string'
PUBLIC	??_C@_03MKGNPIIL@051@				; `string'
PUBLIC	??_C@_03OBEAKLEI@052@				; `string'
PUBLIC	??_C@_03PIFLJKAJ@053@				; `string'
PUBLIC	??_C@_03LHBKAMMO@054@				; `string'
PUBLIC	??_C@_03KOABDNIP@055@				; `string'
PUBLIC	??_C@_03MICLEGNC@061@				; `string'
PUBLIC	??_C@_03ODAGBFBB@062@				; `string'
PUBLIC	??_C@_03PKBNCEFA@063@				; `string'
PUBLIC	??_C@_03LFFMLCJH@064@				; `string'
PUBLIC	??_C@_03KMEHIDNG@065@				; `string'
PUBLIC	??_C@_03MLKPJCLM@041@				; `string'
PUBLIC	??_C@_03OAICMBHP@042@				; `string'
PUBLIC	??_C@_03PJJJPADO@043@				; `string'
PUBLIC	??_C@_03LGNIGGPJ@044@				; `string'
PUBLIC	??_C@_03KPMDFHLI@045@				; `string'
PUBLIC	??_C@_03HEBKFNAF@101@				; `string'
PUBLIC	??_C@_03DLFLMLMC@106@				; `string'
PUBLIC	??_R4CUtil@@6B@					; CUtil::`RTTI Complete Object Locator'
PUBLIC	??_R0?AVCUtil@@@8				; CUtil `RTTI Type Descriptor'
PUBLIC	??_R3CUtil@@8					; CUtil::`RTTI Class Hierarchy Descriptor'
PUBLIC	??_R2CUtil@@8					; CUtil::`RTTI Base Class Array'
PUBLIC	??_R1A@?0A@EA@CUtil@@8				; CUtil::`RTTI Base Class Descriptor at (0,-1,0,64)'
PUBLIC	??_R4CKB_01230@@6B@				; CKB_01230::`RTTI Complete Object Locator'
PUBLIC	??_R0?AVCKB_01230@@@8				; CKB_01230 `RTTI Type Descriptor'
PUBLIC	??_R3CKB_01230@@8				; CKB_01230::`RTTI Class Hierarchy Descriptor'
PUBLIC	??_R2CKB_01230@@8				; CKB_01230::`RTTI Base Class Array'
PUBLIC	??_R1A@?0A@EA@CKB_01230@@8			; CKB_01230::`RTTI Base Class Descriptor at (0,-1,0,64)'
PUBLIC	??_R4CKBREAL_KXH1@@6B@				; CKBREAL_KXH1::`RTTI Complete Object Locator'
PUBLIC	??_R0?AVCKBREAL_KXH1@@@8			; CKBREAL_KXH1 `RTTI Type Descriptor'
PUBLIC	??_R3CKBREAL_KXH1@@8				; CKBREAL_KXH1::`RTTI Class Hierarchy Descriptor'
PUBLIC	??_R2CKBREAL_KXH1@@8				; CKBREAL_KXH1::`RTTI Base Class Array'
PUBLIC	??_R1A@?0A@EA@CKBREAL_KXH1@@8			; CKBREAL_KXH1::`RTTI Base Class Descriptor at (0,-1,0,64)'
PUBLIC	??_R4CKBREAL_KXYS@@6B@				; CKBREAL_KXYS::`RTTI Complete Object Locator'
PUBLIC	??_R0?AVCKBREAL_KXYS@@@8			; CKBREAL_KXYS `RTTI Type Descriptor'
PUBLIC	??_R3CKBREAL_KXYS@@8				; CKBREAL_KXYS::`RTTI Class Hierarchy Descriptor'
PUBLIC	??_R2CKBREAL_KXYS@@8				; CKBREAL_KXYS::`RTTI Base Class Array'
PUBLIC	??_R1A@?0A@EA@CKBREAL_KXYS@@8			; CKBREAL_KXYS::`RTTI Base Class Descriptor at (0,-1,0,64)'
PUBLIC	??_R4CFloatingHogaDlg@@6B@			; CFloatingHogaDlg::`RTTI Complete Object Locator'
PUBLIC	??_R0?AVCFloatingHogaDlg@@@8			; CFloatingHogaDlg `RTTI Type Descriptor'
PUBLIC	??_R3CFloatingHogaDlg@@8			; CFloatingHogaDlg::`RTTI Class Hierarchy Descriptor'
PUBLIC	??_R2CFloatingHogaDlg@@8			; CFloatingHogaDlg::`RTTI Base Class Array'
PUBLIC	??_R1A@?0A@EA@CFloatingHogaDlg@@8		; CFloatingHogaDlg::`RTTI Base Class Descriptor at (0,-1,0,64)'
PUBLIC	??_R1A@?0A@EA@CRscDlg@@8			; CRscDlg::`RTTI Base Class Descriptor at (0,-1,0,64)'
PUBLIC	??_R0?AVCRscDlg@@@8				; CRscDlg `RTTI Type Descriptor'
PUBLIC	??_R3CRscDlg@@8					; CRscDlg::`RTTI Class Hierarchy Descriptor'
PUBLIC	??_R2CRscDlg@@8					; CRscDlg::`RTTI Base Class Array'
PUBLIC	??_R4?$CMap@GGV?$CStringT@DV?$StrTraitMFC_DLL@DV?$ChTraitsCRT@D@ATL@@@@@ATL@@V12@@@6B@ ; CMap<unsigned short,unsigned short,ATL::CStringT<char,StrTraitMFC_DLL<char,ATL::ChTraitsCRT<char> > >,ATL::CStringT<char,StrTraitMFC_DLL<char,ATL::ChTraitsCRT<char> > > >::`RTTI Complete Object Locator'
PUBLIC	??_R0?AV?$CMap@GGV?$CStringT@DV?$StrTraitMFC_DLL@DV?$ChTraitsCRT@D@ATL@@@@@ATL@@V12@@@@8 ; CMap<unsigned short,unsigned short,ATL::CStringT<char,StrTraitMFC_DLL<char,ATL::ChTraitsCRT<char> > >,ATL::CStringT<char,StrTraitMFC_DLL<char,ATL::ChTraitsCRT<char> > > > `RTTI Type Descriptor'
PUBLIC	??_R3?$CMap@GGV?$CStringT@DV?$StrTraitMFC_DLL@DV?$ChTraitsCRT@D@ATL@@@@@ATL@@V12@@@8 ; CMap<unsigned short,unsigned short,ATL::CStringT<char,StrTraitMFC_DLL<char,ATL::ChTraitsCRT<char> > >,ATL::CStringT<char,StrTraitMFC_DLL<char,ATL::ChTraitsCRT<char> > > >::`RTTI Class Hierarchy Descriptor'
PUBLIC	??_R2?$CMap@GGV?$CStringT@DV?$StrTraitMFC_DLL@DV?$ChTraitsCRT@D@ATL@@@@@ATL@@V12@@@8 ; CMap<unsigned short,unsigned short,ATL::CStringT<char,StrTraitMFC_DLL<char,ATL::ChTraitsCRT<char> > >,ATL::CStringT<char,StrTraitMFC_DLL<char,ATL::ChTraitsCRT<char> > > >::`RTTI Base Class Array'
PUBLIC	??_R1A@?0A@EA@?$CMap@GGV?$CStringT@DV?$StrTraitMFC_DLL@DV?$ChTraitsCRT@D@ATL@@@@@ATL@@V12@@@8 ; CMap<unsigned short,unsigned short,ATL::CStringT<char,StrTraitMFC_DLL<char,ATL::ChTraitsCRT<char> > >,ATL::CStringT<char,StrTraitMFC_DLL<char,ATL::ChTraitsCRT<char> > > >::`RTTI Base Class Descriptor at (0,-1,0,64)'
PUBLIC	??_R4?$CArray@PAVCHogaData@@PAV1@@@6B@		; CArray<CHogaData *,CHogaData *>::`RTTI Complete Object Locator'
PUBLIC	??_R0?AV?$CArray@PAVCHogaData@@PAV1@@@@8	; CArray<CHogaData *,CHogaData *> `RTTI Type Descriptor'
PUBLIC	??_R3?$CArray@PAVCHogaData@@PAV1@@@8		; CArray<CHogaData *,CHogaData *>::`RTTI Class Hierarchy Descriptor'
PUBLIC	??_R2?$CArray@PAVCHogaData@@PAV1@@@8		; CArray<CHogaData *,CHogaData *>::`RTTI Base Class Array'
PUBLIC	??_R1A@?0A@EA@?$CArray@PAVCHogaData@@PAV1@@@8	; CArray<CHogaData *,CHogaData *>::`RTTI Base Class Descriptor at (0,-1,0,64)'
PUBLIC	__real@4059000000000000
PUBLIC	__xmm@00000000000000000000000000000041
PUBLIC	__xmm@0000000000000000000000000000004a
EXTRN	??_L@YGXPAXIIP6EX0@Z1@Z:PROC			; `eh vector constructor iterator'
EXTRN	??_M@YGXPAXIIP6EX0@Z@Z:PROC			; `eh vector destructor iterator'
EXTRN	??2@YAPAXI@Z:PROC				; operator new
EXTRN	??3@YAXPAX@Z:PROC				; operator delete
EXTRN	?__global_delete@@YAXPAXI@Z:PROC		; __global_delete
EXTRN	??_U@YAPAXI@Z:PROC				; operator new[]
EXTRN	??_V@YAXPAX@Z:PROC				; operator delete[]
EXTRN	__imp___invalid_parameter_noinfo:PROC
EXTRN	__imp___errno:PROC
EXTRN	__imp__GetEnvironmentVariableA@12:PROC
EXTRN	__imp__GetModuleHandleA@4:PROC
EXTRN	__imp__BitBlt@36:PROC
EXTRN	__imp__CreateCompatibleBitmap@12:PROC
EXTRN	__imp__CreateCompatibleDC@4:PROC
EXTRN	__imp__CreateFontIndirectA@4:PROC
EXTRN	__imp__RegisterWindowMessageA@4:PROC
EXTRN	__imp__SendMessageA@16:PROC
EXTRN	__imp__PostMessageA@16:PROC
EXTRN	__imp__EnableWindow@8:PROC
EXTRN	__imp__GetClientRect@8:PROC
EXTRN	__imp__GetWindowRect@8:PROC
EXTRN	__imp__GetCursorPos@4:PROC
EXTRN	__imp__ScreenToClient@8:PROC
EXTRN	__imp__GetSysColor@4:PROC
EXTRN	__imp__PtInRect@12:PROC
EXTRN	__imp__GetParent@4:PROC
EXTRN	__imp____stdio_common_vsscanf:PROC
EXTRN	__imp__atof:PROC
EXTRN	__imp__atoi:PROC
EXTRN	__imp__atol:PROC
EXTRN	?AfxThrowMemoryException@@YGXXZ:PROC		; AfxThrowMemoryException
EXTRN	?AfxThrowInvalidArgException@@YGXXZ:PROC	; AfxThrowInvalidArgException
EXTRN	?AfxThrowArchiveException@@YGXHPBD@Z:PROC	; AfxThrowArchiveException
EXTRN	?GetRuntimeClass@CObject@@UBEPAUCRuntimeClass@@XZ:PROC ; CObject::GetRuntimeClass
EXTRN	?Delete@CException@@QAEXXZ:PROC			; CException::Delete
EXTRN	__imp_??A?$CSimpleStringT@D$00@ATL@@QBEDH@Z:PROC
EXTRN	__imp_?Concatenate@?$CSimpleStringT@D$00@ATL@@KAXAAV12@PBDH1H@Z:PROC
EXTRN	__imp_??0?$CStringT@DV?$StrTraitMFC_DLL@DV?$ChTraitsCRT@D@ATL@@@@@ATL@@QAE@XZ:PROC
EXTRN	__imp_??0?$CStringT@DV?$StrTraitMFC_DLL@DV?$ChTraitsCRT@D@ATL@@@@@ATL@@QAE@PAUIAtlStringMgr@1@@Z:PROC
EXTRN	__imp_??0?$CStringT@DV?$StrTraitMFC_DLL@DV?$ChTraitsCRT@D@ATL@@@@@ATL@@QAE@ABV01@@Z:PROC
EXTRN	__imp_??0?$CStringT@DV?$StrTraitMFC_DLL@DV?$ChTraitsCRT@D@ATL@@@@@ATL@@QAE@PBD@Z:PROC
EXTRN	__imp_??1?$CStringT@DV?$StrTraitMFC_DLL@DV?$ChTraitsCRT@D@ATL@@@@@ATL@@QAE@XZ:PROC
EXTRN	__imp_??4?$CStringT@DV?$StrTraitMFC_DLL@DV?$ChTraitsCRT@D@ATL@@@@@ATL@@QAEAAV01@ABV01@@Z:PROC
EXTRN	__imp_??4?$CStringT@DV?$StrTraitMFC_DLL@DV?$ChTraitsCRT@D@ATL@@@@@ATL@@QAEAAV01@PBD@Z:PROC
EXTRN	__imp_??Y?$CStringT@DV?$StrTraitMFC_DLL@DV?$ChTraitsCRT@D@ATL@@@@@ATL@@QAEAAV01@PBD@Z:PROC
EXTRN	__imp_?GetManager@?$CStringT@DV?$StrTraitMFC_DLL@DV?$ChTraitsCRT@D@ATL@@@@@ATL@@QBEPAUIAtlStringMgr@2@XZ:PROC
EXTRN	__imp_?Compare@?$CStringT@DV?$StrTraitMFC_DLL@DV?$ChTraitsCRT@D@ATL@@@@@ATL@@QBEHPBD@Z:PROC
EXTRN	__imp_?Remove@?$CStringT@DV?$StrTraitMFC_DLL@DV?$ChTraitsCRT@D@ATL@@@@@ATL@@QAEHD@Z:PROC
EXTRN	__imp_?TrimRight@?$CStringT@DV?$StrTraitMFC_DLL@DV?$ChTraitsCRT@D@ATL@@@@@ATL@@QAEAAV12@XZ:PROC
EXTRN	__imp_?TrimLeft@?$CStringT@DV?$StrTraitMFC_DLL@DV?$ChTraitsCRT@D@ATL@@@@@ATL@@QAEAAV12@XZ:PROC
EXTRN	__imp_?Format@?$CStringT@DV?$StrTraitMFC_DLL@DV?$ChTraitsCRT@D@ATL@@@@@ATL@@QAAXPBDZZ:PROC
EXTRN	?Read@CArchive@@QAEIPAXI@Z:PROC			; CArchive::Read
EXTRN	?Write@CArchive@@QAEXPBXI@Z:PROC		; CArchive::Write
EXTRN	?ReadCount@CArchive@@QAEKXZ:PROC		; CArchive::ReadCount
EXTRN	?WriteCount@CArchive@@QAEXK@Z:PROC		; CArchive::WriteCount
EXTRN	?Lookup@CMapStringToString@@QBEHPBDAAV?$CStringT@DV?$StrTraitMFC_DLL@DV?$ChTraitsCRT@D@ATL@@@@@ATL@@@Z:PROC ; CMapStringToString::Lookup
EXTRN	?Create@CPlex@@SGPAU1@AAPAU1@II@Z:PROC		; CPlex::Create
EXTRN	?FreeDataChain@CPlex@@QAEXXZ:PROC		; CPlex::FreeDataChain
EXTRN	??$SerializeElements@V?$CStringT@DV?$StrTraitMFC_DLL@DV?$ChTraitsCRT@D@ATL@@@@@ATL@@@@YGXAAVCArchive@@PAV?$CStringT@DV?$StrTraitMFC_DLL@DV?$ChTraitsCRT@D@ATL@@@@@ATL@@H@Z:PROC ; SerializeElements<ATL::CStringT<char,StrTraitMFC_DLL<char,ATL::ChTraitsCRT<char> > > >
EXTRN	?GetRuntimeClass@CGdiObject@@UBEPAUCRuntimeClass@@XZ:PROC ; CGdiObject::GetRuntimeClass
EXTRN	?Attach@CGdiObject@@QAEHPAX@Z:PROC		; CGdiObject::Attach
EXTRN	?DeleteObject@CGdiObject@@QAEHXZ:PROC		; CGdiObject::DeleteObject
EXTRN	??_ECGdiObject@@UAEPAXI@Z:PROC			; CGdiObject::`vector deleting destructor'
EXTRN	?GetRuntimeClass@CFont@@UBEPAUCRuntimeClass@@XZ:PROC ; CFont::GetRuntimeClass
EXTRN	??_ECFont@@UAEPAXI@Z:PROC			; CFont::`vector deleting destructor'
EXTRN	?GetRuntimeClass@CBitmap@@UBEPAUCRuntimeClass@@XZ:PROC ; CBitmap::GetRuntimeClass
EXTRN	??_ECBitmap@@UAEPAXI@Z:PROC			; CBitmap::`vector deleting destructor'
EXTRN	?Attach@CDC@@QAEHPAUHDC__@@@Z:PROC		; CDC::Attach
EXTRN	??0CDC@@QAE@XZ:PROC				; CDC::CDC
EXTRN	?DeleteDC@CDC@@QAEHXZ:PROC			; CDC::DeleteDC
EXTRN	?FillSolidRect@CDC@@QAEXPBUtagRECT@@K@Z:PROC	; CDC::FillSolidRect
EXTRN	??1CDC@@UAE@XZ:PROC				; CDC::~CDC
EXTRN	?SelectGdiObject@CDC@@KGPAVCGdiObject@@PAUHDC__@@PAX@Z:PROC ; CDC::SelectGdiObject
EXTRN	??0CPaintDC@@QAE@PAVCWnd@@@Z:PROC		; CPaintDC::CPaintDC
EXTRN	??1CPaintDC@@UAE@XZ:PROC			; CPaintDC::~CPaintDC
EXTRN	??0CClientDC@@QAE@PAVCWnd@@@Z:PROC		; CClientDC::CClientDC
EXTRN	??1CClientDC@@UAE@XZ:PROC			; CClientDC::~CClientDC
EXTRN	?DDX_Control@@YGXPAVCDataExchange@@HAAVCWnd@@@Z:PROC ; DDX_Control
EXTRN	?OnCmdMsg@CCmdTarget@@UAEHIHPAXPAUAFX_CMDHANDLERINFO@@@Z:PROC ; CCmdTarget::OnCmdMsg
EXTRN	?IsInvokeAllowed@CCmdTarget@@UAEHJ@Z:PROC	; CCmdTarget::IsInvokeAllowed
EXTRN	?GetDispatchIID@CCmdTarget@@UAEHPAU_GUID@@@Z:PROC ; CCmdTarget::GetDispatchIID
EXTRN	?GetTypeInfoCount@CCmdTarget@@UAEIXZ:PROC	; CCmdTarget::GetTypeInfoCount
EXTRN	?GetTypeLibCache@CCmdTarget@@UAEPAVCTypeLibCache@@XZ:PROC ; CCmdTarget::GetTypeLibCache
EXTRN	?GetTypeLib@CCmdTarget@@UAEJKPAPAUITypeLib@@@Z:PROC ; CCmdTarget::GetTypeLib
EXTRN	?GetCommandMap@CCmdTarget@@MBEPBUAFX_OLECMDMAP@@XZ:PROC ; CCmdTarget::GetCommandMap
EXTRN	?GetDispatchMap@CCmdTarget@@MBEPBUAFX_DISPMAP@@XZ:PROC ; CCmdTarget::GetDispatchMap
EXTRN	?GetConnectionMap@CCmdTarget@@MBEPBUAFX_CONNECTIONMAP@@XZ:PROC ; CCmdTarget::GetConnectionMap
EXTRN	?GetEventSinkMap@CCmdTarget@@MBEPBUAFX_EVENTSINKMAP@@XZ:PROC ; CCmdTarget::GetEventSinkMap
EXTRN	?OnCreateAggregates@CCmdTarget@@UAEHXZ:PROC	; CCmdTarget::OnCreateAggregates
EXTRN	?GetInterfaceHook@CCmdTarget@@UAEPAUIUnknown@@PBX@Z:PROC ; CCmdTarget::GetInterfaceHook
EXTRN	?GetExtraConnectionPoints@CCmdTarget@@MAEHPAVCPtrArray@@@Z:PROC ; CCmdTarget::GetExtraConnectionPoints
EXTRN	?GetConnectionHook@CCmdTarget@@MAEPAUIConnectionPoint@@ABU_GUID@@@Z:PROC ; CCmdTarget::GetConnectionHook
EXTRN	??0CWnd@@QAE@XZ:PROC				; CWnd::CWnd
EXTRN	?FromHandle@CWnd@@SGPAV1@PAUHWND__@@@Z:PROC	; CWnd::FromHandle
EXTRN	?PreSubclassWindow@CWnd@@UAEXXZ:PROC		; CWnd::PreSubclassWindow
EXTRN	?Create@CWnd@@UAEHPBD0KABUtagRECT@@PAV1@IPAUCCreateContext@@@Z:PROC ; CWnd::Create
EXTRN	?CreateEx@CWnd@@UAEHKPBD0KHHHHPAUHWND__@@PAUHMENU__@@PAX@Z:PROC ; CWnd::CreateEx
EXTRN	?CreateEx@CWnd@@UAEHKPBD0KABUtagRECT@@PAV1@IPAX@Z:PROC ; CWnd::CreateEx
EXTRN	?DestroyWindow@CWnd@@UAEHXZ:PROC		; CWnd::DestroyWindow
EXTRN	?PreCreateWindow@CWnd@@UAEHAAUtagCREATESTRUCTA@@@Z:PROC ; CWnd::PreCreateWindow
EXTRN	?CalcWindowRect@CWnd@@UAEXPAUtagRECT@@I@Z:PROC	; CWnd::CalcWindowRect
EXTRN	?GetDlgItem@CWnd@@QBEPAV1@H@Z:PROC		; CWnd::GetDlgItem
EXTRN	?GetMenu@CWnd@@UBEPAVCMenu@@XZ:PROC		; CWnd::GetMenu
EXTRN	?SetMenu@CWnd@@UAEHPAVCMenu@@@Z:PROC		; CWnd::SetMenu
EXTRN	?SetWindowPos@CWnd@@QAEHPBV1@HHHHI@Z:PROC	; CWnd::SetWindowPos
EXTRN	?ScreenToClient@CWnd@@QBEXPAUtagRECT@@@Z:PROC	; CWnd::ScreenToClient
EXTRN	?ShowWindow@CWnd@@QAEHH@Z:PROC			; CWnd::ShowWindow
EXTRN	?OnToolHitTest@CWnd@@UBEHVCPoint@@PAUtagTOOLINFOA@@@Z:PROC ; CWnd::OnToolHitTest
EXTRN	?GetScrollBarCtrl@CWnd@@UBEPAVCScrollBar@@H@Z:PROC ; CWnd::GetScrollBarCtrl
EXTRN	?WinHelpA@CWnd@@UAEXKI@Z:PROC			; CWnd::WinHelpA
EXTRN	?HtmlHelpA@CWnd@@UAEXKI@Z:PROC			; CWnd::HtmlHelpA
EXTRN	?WinHelpInternal@CWnd@@UAEXKI@Z:PROC		; CWnd::WinHelpInternal
EXTRN	?ContinueModal@CWnd@@UAEHXZ:PROC		; CWnd::ContinueModal
EXTRN	?EndModalLoop@CWnd@@UAEXH@Z:PROC		; CWnd::EndModalLoop
EXTRN	?OnDrawIconicThumbnailOrLivePreview@CWnd@@UAEXAAVCDC@@VCRect@@VCSize@@HAAH@Z:PROC ; CWnd::OnDrawIconicThumbnailOrLivePreview
EXTRN	?GetInterfaceMap@CWnd@@MBEPBUAFX_INTERFACEMAP@@XZ:PROC ; CWnd::GetInterfaceMap
EXTRN	?EnsureStdObj@CWnd@@UAEJXZ:PROC			; CWnd::EnsureStdObj
EXTRN	?get_accParent@CWnd@@UAEJPAPAUIDispatch@@@Z:PROC ; CWnd::get_accParent
EXTRN	?get_accChildCount@CWnd@@UAEJPAJ@Z:PROC		; CWnd::get_accChildCount
EXTRN	?get_accChild@CWnd@@UAEJUtagVARIANT@@PAPAUIDispatch@@@Z:PROC ; CWnd::get_accChild
EXTRN	?get_accName@CWnd@@UAEJUtagVARIANT@@PAPA_W@Z:PROC ; CWnd::get_accName
EXTRN	?get_accValue@CWnd@@UAEJUtagVARIANT@@PAPA_W@Z:PROC ; CWnd::get_accValue
EXTRN	?get_accDescription@CWnd@@UAEJUtagVARIANT@@PAPA_W@Z:PROC ; CWnd::get_accDescription
EXTRN	?get_accRole@CWnd@@UAEJUtagVARIANT@@PAU2@@Z:PROC ; CWnd::get_accRole
EXTRN	?get_accState@CWnd@@UAEJUtagVARIANT@@PAU2@@Z:PROC ; CWnd::get_accState
EXTRN	?get_accHelp@CWnd@@UAEJUtagVARIANT@@PAPA_W@Z:PROC ; CWnd::get_accHelp
EXTRN	?get_accHelpTopic@CWnd@@UAEJPAPA_WUtagVARIANT@@PAJ@Z:PROC ; CWnd::get_accHelpTopic
EXTRN	?get_accKeyboardShortcut@CWnd@@UAEJUtagVARIANT@@PAPA_W@Z:PROC ; CWnd::get_accKeyboardShortcut
EXTRN	?get_accFocus@CWnd@@UAEJPAUtagVARIANT@@@Z:PROC	; CWnd::get_accFocus
EXTRN	?get_accSelection@CWnd@@UAEJPAUtagVARIANT@@@Z:PROC ; CWnd::get_accSelection
EXTRN	?get_accDefaultAction@CWnd@@UAEJUtagVARIANT@@PAPA_W@Z:PROC ; CWnd::get_accDefaultAction
EXTRN	?accSelect@CWnd@@UAEJJUtagVARIANT@@@Z:PROC	; CWnd::accSelect
EXTRN	?accLocation@CWnd@@UAEJPAJ000UtagVARIANT@@@Z:PROC ; CWnd::accLocation
EXTRN	?accNavigate@CWnd@@UAEJJUtagVARIANT@@PAU2@@Z:PROC ; CWnd::accNavigate
EXTRN	?accHitTest@CWnd@@UAEJJJPAUtagVARIANT@@@Z:PROC	; CWnd::accHitTest
EXTRN	?accDoDefaultAction@CWnd@@UAEJUtagVARIANT@@@Z:PROC ; CWnd::accDoDefaultAction
EXTRN	?put_accName@CWnd@@UAEJUtagVARIANT@@PA_W@Z:PROC	; CWnd::put_accName
EXTRN	?put_accValue@CWnd@@UAEJUtagVARIANT@@PA_W@Z:PROC ; CWnd::put_accValue
EXTRN	?SetProxy@CWnd@@UAEJPAUIAccessibleProxy@@@Z:PROC ; CWnd::SetProxy
EXTRN	?CreateAccessibleProxy@CWnd@@UAEJIJPAJ@Z:PROC	; CWnd::CreateAccessibleProxy
EXTRN	?OnCommand@CWnd@@MAEHIJ@Z:PROC			; CWnd::OnCommand
EXTRN	?OnNotify@CWnd@@MAEHIJPAJ@Z:PROC		; CWnd::OnNotify
EXTRN	?OnDestroy@CWnd@@IAEXXZ:PROC			; CWnd::OnDestroy
EXTRN	?GetSuperWndProcAddr@CWnd@@MAEPAP6GJPAUHWND__@@IIJ@ZXZ:PROC ; CWnd::GetSuperWndProcAddr
EXTRN	?PreTranslateMessage@CWnd@@UAEHPAUtagMSG@@@Z:PROC ; CWnd::PreTranslateMessage
EXTRN	?OnAmbientProperty@CWnd@@UAEHPAVCOleControlSite@@JPAUtagVARIANT@@@Z:PROC ; CWnd::OnAmbientProperty
EXTRN	?WindowProc@CWnd@@MAEJIIJ@Z:PROC		; CWnd::WindowProc
EXTRN	?OnWndMsg@CWnd@@MAEHIIJPAJ@Z:PROC		; CWnd::OnWndMsg
EXTRN	?Default@CWnd@@IAEJXZ:PROC			; CWnd::Default
EXTRN	?DefWindowProcA@CWnd@@MAEJIIJ@Z:PROC		; CWnd::DefWindowProcA
EXTRN	?PostNcDestroy@CWnd@@MAEXXZ:PROC		; CWnd::PostNcDestroy
EXTRN	?OnChildNotify@CWnd@@MAEHIIJPAJ@Z:PROC		; CWnd::OnChildNotify
EXTRN	?OnTouchInputs@CWnd@@MAEHIPAUtagTOUCHINPUT@@@Z:PROC ; CWnd::OnTouchInputs
EXTRN	?OnTouchInput@CWnd@@MAEHVCPoint@@HHPAUtagTOUCHINPUT@@@Z:PROC ; CWnd::OnTouchInput
EXTRN	?GetGestureStatus@CWnd@@MAEKVCPoint@@@Z:PROC	; CWnd::GetGestureStatus
EXTRN	?OnGestureZoom@CWnd@@MAEHVCPoint@@J@Z:PROC	; CWnd::OnGestureZoom
EXTRN	?OnGesturePan@CWnd@@MAEHVCPoint@@0@Z:PROC	; CWnd::OnGesturePan
EXTRN	?OnGestureRotate@CWnd@@MAEHVCPoint@@N@Z:PROC	; CWnd::OnGestureRotate
EXTRN	?OnGestureTwoFingerTap@CWnd@@MAEHVCPoint@@@Z:PROC ; CWnd::OnGestureTwoFingerTap
EXTRN	?OnGesturePressAndTap@CWnd@@MAEHVCPoint@@J@Z:PROC ; CWnd::OnGesturePressAndTap
EXTRN	?ResizeDynamicLayout@CWnd@@MAEXXZ:PROC		; CWnd::ResizeDynamicLayout
EXTRN	?CheckAutoCenter@CWnd@@UAEHXZ:PROC		; CWnd::CheckAutoCenter
EXTRN	?IsFrameWnd@CWnd@@UBEHXZ:PROC			; CWnd::IsFrameWnd
EXTRN	?OnFinalRelease@CWnd@@UAEXXZ:PROC		; CWnd::OnFinalRelease
EXTRN	?CreateControlContainer@CWnd@@MAEHPAPAVCOleControlContainer@@@Z:PROC ; CWnd::CreateControlContainer
EXTRN	?CreateControlSite@CWnd@@MAEHPAVCOleControlContainer@@PAPAVCOleControlSite@@IABU_GUID@@@Z:PROC ; CWnd::CreateControlSite
EXTRN	?SetOccDialogInfo@CWnd@@MAEHPAU_AFX_OCC_DIALOG_INFO@@@Z:PROC ; CWnd::SetOccDialogInfo
EXTRN	?GetOccDialogInfo@CWnd@@MAEPAU_AFX_OCC_DIALOG_INFO@@XZ:PROC ; CWnd::GetOccDialogInfo
EXTRN	?GetMessageMap@CWnd@@MBEPBUAFX_MSGMAP@@XZ:PROC	; CWnd::GetMessageMap
EXTRN	?GetRuntimeClass@CDialog@@UBEPAUCRuntimeClass@@XZ:PROC ; CDialog::GetRuntimeClass
EXTRN	?Create@CDialog@@UAEHPBDPAVCWnd@@@Z:PROC	; CDialog::Create
EXTRN	?CreateIndirect@CDialog@@UAEHPBUDLGTEMPLATE@@PAVCWnd@@PAX@Z:PROC ; CDialog::CreateIndirect
EXTRN	?CreateIndirect@CDialog@@UAEHPAXPAVCWnd@@@Z:PROC ; CDialog::CreateIndirect
EXTRN	?OnInitDialog@CDialog@@UAEHXZ:PROC		; CDialog::OnInitDialog
EXTRN	?OnSetFont@CDialog@@UAEXPAVCFont@@@Z:PROC	; CDialog::OnSetFont
EXTRN	?OnOK@CDialog@@MAEXXZ:PROC			; CDialog::OnOK
EXTRN	?OnCancel@CDialog@@MAEXXZ:PROC			; CDialog::OnCancel
EXTRN	??1CDialog@@UAE@XZ:PROC				; CDialog::~CDialog
EXTRN	?PreTranslateMessage@CDialog@@UAEHPAUtagMSG@@@Z:PROC ; CDialog::PreTranslateMessage
EXTRN	?OnCmdMsg@CDialog@@UAEHIHPAXPAUAFX_CMDHANDLERINFO@@@Z:PROC ; CDialog::OnCmdMsg
EXTRN	?CheckAutoCenter@CDialog@@UAEHXZ:PROC		; CDialog::CheckAutoCenter
EXTRN	?SetOccDialogInfo@CDialog@@MAEHPAU_AFX_OCC_DIALOG_INFO@@@Z:PROC ; CDialog::SetOccDialogInfo
EXTRN	?GetOccDialogInfo@CDialog@@MAEPAU_AFX_OCC_DIALOG_INFO@@XZ:PROC ; CDialog::GetOccDialogInfo
EXTRN	?PreInitDialog@CDialog@@MAEXXZ:PROC		; CDialog::PreInitDialog
EXTRN	?GetRuntimeClass@CButton@@UBEPAUCRuntimeClass@@XZ:PROC ; CButton::GetRuntimeClass
EXTRN	?Create@CButton@@UAEHPBDKABUtagRECT@@PAVCWnd@@I@Z:PROC ; CButton::Create
EXTRN	?DrawItem@CButton@@UAEXPAUtagDRAWITEMSTRUCT@@@Z:PROC ; CButton::DrawItem
EXTRN	??1CButton@@UAE@XZ:PROC				; CButton::~CButton
EXTRN	?OnChildNotify@CButton@@MAEHIIJPAJ@Z:PROC	; CButton::OnChildNotify
EXTRN	??_ECButton@@UAEPAXI@Z:PROC			; CButton::`vector deleting destructor'
EXTRN	?AfxMessageBox@@YGHPBDII@Z:PROC			; AfxMessageBox
EXTRN	??0CRscDlg@@QAE@IPAVCWnd@@@Z:PROC		; CRscDlg::CRscDlg
EXTRN	?Create@CRscDlg@@UAEHIPAVCWnd@@@Z:PROC		; CRscDlg::Create
EXTRN	?DoModal@CRscDlg@@UAEHXZ:PROC			; CRscDlg::DoModal
EXTRN	?DoDataExchange@CRscDlg@@MAEXPAVCDataExchange@@@Z:PROC ; CRscDlg::DoDataExchange
EXTRN	?GetThisMessageMap@CRscDlg@@KGPBUAFX_MSGMAP@@XZ:PROC ; CRscDlg::GetThisMessageMap
EXTRN	??0CPowLabel@@QAE@XZ:PROC			; CPowLabel::CPowLabel
EXTRN	??1CPowLabel@@UAE@XZ:PROC			; CPowLabel::~CPowLabel
EXTRN	?GetRuntimeClass@CUtil@@UBEPAUCRuntimeClass@@XZ:PROC ; CUtil::GetRuntimeClass
EXTRN	?GetSignSimbol@CUtil@@QAE?AV?$CStringT@DV?$StrTraitMFC_DLL@DV?$ChTraitsCRT@D@ATL@@@@@ATL@@H@Z:PROC ; CUtil::GetSignSimbol
EXTRN	?GetComma@CUtil@@QAE?AV?$CStringT@DV?$StrTraitMFC_DLL@DV?$ChTraitsCRT@D@ATL@@@@@ATL@@PBD@Z:PROC ; CUtil::GetComma
EXTRN	?GetOnlyNumber@CUtil@@QAE?AV?$CStringT@DV?$StrTraitMFC_DLL@DV?$ChTraitsCRT@D@ATL@@@@@ATL@@PBD@Z:PROC ; CUtil::GetOnlyNumber
EXTRN	?GetNumber@CUtil@@QAE?AV?$CStringT@DV?$StrTraitMFC_DLL@DV?$ChTraitsCRT@D@ATL@@@@@ATL@@PBD@Z:PROC ; CUtil::GetNumber
EXTRN	?GetPriceUnit@CUtil@@QAE?AV?$CStringT@DV?$StrTraitMFC_DLL@DV?$ChTraitsCRT@D@ATL@@@@@ATL@@PBD@Z:PROC ; CUtil::GetPriceUnit
EXTRN	?GetVolUnit@CUtil@@QAE?AV?$CStringT@DV?$StrTraitMFC_DLL@DV?$ChTraitsCRT@D@ATL@@@@@ATL@@PBD@Z:PROC ; CUtil::GetVolUnit
EXTRN	??_ECUtil@@UAEPAXI@Z:PROC			; CUtil::`vector deleting destructor'
EXTRN	??0CHogaData@@QAE@XZ:PROC			; CHogaData::CHogaData
EXTRN	??0CExGridCtrl@@QAE@HHHH@Z:PROC			; CExGridCtrl::CExGridCtrl
EXTRN	?Create@CExGridCtrl@@QAEHAAUtagRECT@@PAVCWnd@@IK@Z:PROC ; CExGridCtrl::Create
EXTRN	?GetRowCount@CExGridCtrl@@QAEHXZ:PROC		; CExGridCtrl::GetRowCount
EXTRN	?GetColumnCount@CExGridCtrl@@QAEHXZ:PROC	; CExGridCtrl::GetColumnCount
EXTRN	?SetRowCount@CExGridCtrl@@QAEHH@Z:PROC		; CExGridCtrl::SetRowCount
EXTRN	?SetColumnCount@CExGridCtrl@@QAEHH@Z:PROC	; CExGridCtrl::SetColumnCount
EXTRN	?SetFixedRowCount@CExGridCtrl@@QAEHH@Z:PROC	; CExGridCtrl::SetFixedRowCount
EXTRN	?SetFixedColumnCount@CExGridCtrl@@QAEHH@Z:PROC	; CExGridCtrl::SetFixedColumnCount
EXTRN	?SetRowHeight@CExGridCtrl@@QAEHHH@Z:PROC	; CExGridCtrl::SetRowHeight
EXTRN	?SetColumnWidth@CExGridCtrl@@QAEHHH@Z:PROC	; CExGridCtrl::SetColumnWidth
EXTRN	?SetGridLineColor@CExGridCtrl@@QAEXK@Z:PROC	; CExGridCtrl::SetGridLineColor
EXTRN	?SetHighlightColor@CExGridCtrl@@QAEXK@Z:PROC	; CExGridCtrl::SetHighlightColor
EXTRN	?SetGridColor@CExGridCtrl@@QAEXK@Z:PROC		; CExGridCtrl::SetGridColor
EXTRN	?SetBkColor@CExGridCtrl@@QAEXK@Z:PROC		; CExGridCtrl::SetBkColor
EXTRN	?SetEditable@CExGridCtrl@@QAEXH@Z:PROC		; CExGridCtrl::SetEditable
EXTRN	?EnableDragAndDrop@CExGridCtrl@@QAEXH@Z:PROC	; CExGridCtrl::EnableDragAndDrop
EXTRN	?EnableColumnHide@CExGridCtrl@@QAEXH@Z:PROC	; CExGridCtrl::EnableColumnHide
EXTRN	?EnableRowHide@CExGridCtrl@@QAEXH@Z:PROC	; CExGridCtrl::EnableRowHide
EXTRN	?GetCell@CExGridCtrl@@QAEPAVCGridCellBase@@HH@Z:PROC ; CExGridCtrl::GetCell
EXTRN	?SetItem@CExGridCtrl@@QAEHPAU_GV_ITEM@@@Z:PROC	; CExGridCtrl::SetItem
EXTRN	?SetItemText@CExGridCtrl@@QAEHHHPBD@Z:PROC	; CExGridCtrl::SetItemText
EXTRN	?GetItemText@CExGridCtrl@@QAE?AV?$CStringT@DV?$StrTraitMFC_DLL@DV?$ChTraitsCRT@D@ATL@@@@@ATL@@HH@Z:PROC ; CExGridCtrl::GetItemText
EXTRN	?SetItemImage@CExGridCtrl@@QAEHHHH@Z:PROC	; CExGridCtrl::SetItemImage
EXTRN	?SetItemState@CExGridCtrl@@QAEHHHI@Z:PROC	; CExGridCtrl::SetItemState
EXTRN	?GetItemState@CExGridCtrl@@QAEIHH@Z:PROC	; CExGridCtrl::GetItemState
EXTRN	?SetItemBkColour@CExGridCtrl@@QAEHHHK@Z:PROC	; CExGridCtrl::SetItemBkColour
EXTRN	?SetItemFgColour@CExGridCtrl@@QAEHHHK@Z:PROC	; CExGridCtrl::SetItemFgColour
EXTRN	?Refresh@CExGridCtrl@@QAEXXZ:PROC		; CExGridCtrl::Refresh
EXTRN	?RedrawCell@CExGridCtrl@@QAEHHHPAVCDC@@@Z:PROC	; CExGridCtrl::RedrawCell
EXTRN	??_E?$CMap@GGV?$CStringT@DV?$StrTraitMFC_DLL@DV?$ChTraitsCRT@D@ATL@@@@@ATL@@V12@@@UAEPAXI@Z:PROC ; CMap<unsigned short,unsigned short,ATL::CStringT<char,StrTraitMFC_DLL<char,ATL::ChTraitsCRT<char> > >,ATL::CStringT<char,StrTraitMFC_DLL<char,ATL::ChTraitsCRT<char> > > >::`vector deleting destructor'
EXTRN	??_E?$CArray@PAVCHogaData@@PAV1@@@UAEPAXI@Z:PROC ; CArray<CHogaData *,CHogaData *>::`vector deleting destructor'
EXTRN	??_ECFloatingHogaDlg@@UAEPAXI@Z:PROC		; CFloatingHogaDlg::`vector deleting destructor'
EXTRN	@__security_check_cookie@4:PROC
EXTRN	___CxxFrameHandler3:PROC
EXTRN	_memcpy:PROC
EXTRN	_memmove:PROC
EXTRN	_memset:PROC
EXTRN	??_7type_info@@6B@:QWORD			; type_info::`vftable'
EXTRN	___security_cookie:DWORD
EXTRN	__fltused:DWORD
;	COMDAT ?_OptionsStorage@?1??__local_stdio_scanf_options@@9@4_KA
_BSS	SEGMENT
?_OptionsStorage@?1??__local_stdio_scanf_options@@9@4_KA DQ 01H DUP (?) ; `__local_stdio_scanf_options'::`2'::_OptionsStorage
_BSS	ENDS
_BSS	SEGMENT
?RMSG_INTERFACE@@3IB DD 01H DUP (?)			; RMSG_INTERFACE
?RMSG_GETSIGNAL_REAL@@3IB DD 01H DUP (?)		; RMSG_GETSIGNAL_REAL
?RMSG_SETQUERYOPT@@3IB DD 01H DUP (?)			; RMSG_SETQUERYOPT
?RMSG_CHARTMAIN@@3IB DD 01H DUP (?)			; RMSG_CHARTMAIN
?RMS_ANALYSIS_FUNC@@3IB DD 01H DUP (?)			; RMS_ANALYSIS_FUNC
?RMSG_GET_USERID@@3IB DD 01H DUP (?)			; RMSG_GET_USERID
?RMSG_CHANGE_SKINCOLOR@@3IB DD 01H DUP (?)		; RMSG_CHANGE_SKINCOLOR
?RMSG_GET_SKINCOLOR@@3IB DD 01H DUP (?)			; RMSG_GET_SKINCOLOR
?RMSG_CHANGEVERTSCALETYPE@@3IB DD 01H DUP (?)		; RMSG_CHANGEVERTSCALETYPE
?RMSG_CHANGE_CROSSLINE@@3IB DD 01H DUP (?)		; RMSG_CHANGE_CROSSLINE
?RMSG_ADD_PLATFORM_MENU@@3IB DD 01H DUP (?)		; RMSG_ADD_PLATFORM_MENU
?RMSG_SETINITIALCHARTDATA@@3IB DD 01H DUP (?)		; RMSG_SETINITIALCHARTDATA
?RMSG_GETINFO@@3IB DD 01H DUP (?)			; RMSG_GETINFO
?RMSG_SETINFO@@3IB DD 01H DUP (?)			; RMSG_SETINFO
_BSS	ENDS
CRT$XCU	SEGMENT
?RMSG_INTERFACE$initializer$@@3P6AXXZA DD FLAT:??__ERMSG_INTERFACE@@YAXXZ ; RMSG_INTERFACE$initializer$
CRT$XCU	ENDS
;	COMDAT __xmm@0000000000000000000000000000004a
CONST	SEGMENT
__xmm@0000000000000000000000000000004a DB 'J', 00H, 00H, 00H, 00H, 00H, 00H
	DB	00H, 00H, 00H, 00H, 00H, 00H, 00H, 00H, 00H
CONST	ENDS
;	COMDAT __xmm@00000000000000000000000000000041
CONST	SEGMENT
__xmm@00000000000000000000000000000041 DB 'A', 00H, 00H, 00H, 00H, 00H, 00H
	DB	00H, 00H, 00H, 00H, 00H, 00H, 00H, 00H, 00H
CONST	ENDS
;	COMDAT __real@4059000000000000
CONST	SEGMENT
__real@4059000000000000 DQ 04059000000000000r	; 100
CONST	ENDS
;	COMDAT ??_R1A@?0A@EA@?$CArray@PAVCHogaData@@PAV1@@@8
rdata$r	SEGMENT
??_R1A@?0A@EA@?$CArray@PAVCHogaData@@PAV1@@@8 DD FLAT:??_R0?AV?$CArray@PAVCHogaData@@PAV1@@@@8 ; CArray<CHogaData *,CHogaData *>::`RTTI Base Class Descriptor at (0,-1,0,64)'
	DD	01H
	DD	00H
	DD	0ffffffffH
	DD	00H
	DD	040H
	DD	FLAT:??_R3?$CArray@PAVCHogaData@@PAV1@@@8
rdata$r	ENDS
;	COMDAT ??_R2?$CArray@PAVCHogaData@@PAV1@@@8
rdata$r	SEGMENT
??_R2?$CArray@PAVCHogaData@@PAV1@@@8 DD FLAT:??_R1A@?0A@EA@?$CArray@PAVCHogaData@@PAV1@@@8 ; CArray<CHogaData *,CHogaData *>::`RTTI Base Class Array'
	DD	FLAT:??_R1A@?0A@EA@CObject@@8
rdata$r	ENDS
;	COMDAT ??_R3?$CArray@PAVCHogaData@@PAV1@@@8
rdata$r	SEGMENT
??_R3?$CArray@PAVCHogaData@@PAV1@@@8 DD 00H		; CArray<CHogaData *,CHogaData *>::`RTTI Class Hierarchy Descriptor'
	DD	00H
	DD	02H
	DD	FLAT:??_R2?$CArray@PAVCHogaData@@PAV1@@@8
rdata$r	ENDS
;	COMDAT ??_R0?AV?$CArray@PAVCHogaData@@PAV1@@@@8
data$rs	SEGMENT
??_R0?AV?$CArray@PAVCHogaData@@PAV1@@@@8 DD FLAT:??_7type_info@@6B@ ; CArray<CHogaData *,CHogaData *> `RTTI Type Descriptor'
	DD	00H
	DB	'.?AV?$CArray@PAVCHogaData@@PAV1@@@', 00H
data$rs	ENDS
;	COMDAT ??_R4?$CArray@PAVCHogaData@@PAV1@@@6B@
rdata$r	SEGMENT
??_R4?$CArray@PAVCHogaData@@PAV1@@@6B@ DD 00H		; CArray<CHogaData *,CHogaData *>::`RTTI Complete Object Locator'
	DD	00H
	DD	00H
	DD	FLAT:??_R0?AV?$CArray@PAVCHogaData@@PAV1@@@@8
	DD	FLAT:??_R3?$CArray@PAVCHogaData@@PAV1@@@8
rdata$r	ENDS
;	COMDAT ??_R1A@?0A@EA@?$CMap@GGV?$CStringT@DV?$StrTraitMFC_DLL@DV?$ChTraitsCRT@D@ATL@@@@@ATL@@V12@@@8
rdata$r	SEGMENT
??_R1A@?0A@EA@?$CMap@GGV?$CStringT@DV?$StrTraitMFC_DLL@DV?$ChTraitsCRT@D@ATL@@@@@ATL@@V12@@@8 DD FLAT:??_R0?AV?$CMap@GGV?$CStringT@DV?$StrTraitMFC_DLL@DV?$ChTraitsCRT@D@ATL@@@@@ATL@@V12@@@@8 ; CMap<unsigned short,unsigned short,ATL::CStringT<char,StrTraitMFC_DLL<char,ATL::ChTraitsCRT<char> > >,ATL::CStringT<char,StrTraitMFC_DLL<char,ATL::ChTraitsCRT<char> > > >::`RTTI Base Class Descriptor at (0,-1,0,64)'
	DD	01H
	DD	00H
	DD	0ffffffffH
	DD	00H
	DD	040H
	DD	FLAT:??_R3?$CMap@GGV?$CStringT@DV?$StrTraitMFC_DLL@DV?$ChTraitsCRT@D@ATL@@@@@ATL@@V12@@@8
rdata$r	ENDS
;	COMDAT ??_R2?$CMap@GGV?$CStringT@DV?$StrTraitMFC_DLL@DV?$ChTraitsCRT@D@ATL@@@@@ATL@@V12@@@8
rdata$r	SEGMENT
??_R2?$CMap@GGV?$CStringT@DV?$StrTraitMFC_DLL@DV?$ChTraitsCRT@D@ATL@@@@@ATL@@V12@@@8 DD FLAT:??_R1A@?0A@EA@?$CMap@GGV?$CStringT@DV?$StrTraitMFC_DLL@DV?$ChTraitsCRT@D@ATL@@@@@ATL@@V12@@@8 ; CMap<unsigned short,unsigned short,ATL::CStringT<char,StrTraitMFC_DLL<char,ATL::ChTraitsCRT<char> > >,ATL::CStringT<char,StrTraitMFC_DLL<char,ATL::ChTraitsCRT<char> > > >::`RTTI Base Class Array'
	DD	FLAT:??_R1A@?0A@EA@CObject@@8
rdata$r	ENDS
;	COMDAT ??_R3?$CMap@GGV?$CStringT@DV?$StrTraitMFC_DLL@DV?$ChTraitsCRT@D@ATL@@@@@ATL@@V12@@@8
rdata$r	SEGMENT
??_R3?$CMap@GGV?$CStringT@DV?$StrTraitMFC_DLL@DV?$ChTraitsCRT@D@ATL@@@@@ATL@@V12@@@8 DD 00H ; CMap<unsigned short,unsigned short,ATL::CStringT<char,StrTraitMFC_DLL<char,ATL::ChTraitsCRT<char> > >,ATL::CStringT<char,StrTraitMFC_DLL<char,ATL::ChTraitsCRT<char> > > >::`RTTI Class Hierarchy Descriptor'
	DD	00H
	DD	02H
	DD	FLAT:??_R2?$CMap@GGV?$CStringT@DV?$StrTraitMFC_DLL@DV?$ChTraitsCRT@D@ATL@@@@@ATL@@V12@@@8
rdata$r	ENDS
;	COMDAT ??_R0?AV?$CMap@GGV?$CStringT@DV?$StrTraitMFC_DLL@DV?$ChTraitsCRT@D@ATL@@@@@ATL@@V12@@@@8
data$rs	SEGMENT
??_R0?AV?$CMap@GGV?$CStringT@DV?$StrTraitMFC_DLL@DV?$ChTraitsCRT@D@ATL@@@@@ATL@@V12@@@@8 DD FLAT:??_7type_info@@6B@ ; CMap<unsigned short,unsigned short,ATL::CStringT<char,StrTraitMFC_DLL<char,ATL::ChTraitsCRT<char> > >,ATL::CStringT<char,StrTraitMFC_DLL<char,ATL::ChTraitsCRT<char> > > > `RTTI Type Descriptor'
	DD	00H
	DB	'.?AV?$CMap@GGV?$CStringT@DV?$StrTraitMFC_DLL@DV?$ChTrait'
	DB	'sCRT@D@ATL@@@@@ATL@@V12@@@', 00H
data$rs	ENDS
;	COMDAT ??_R4?$CMap@GGV?$CStringT@DV?$StrTraitMFC_DLL@DV?$ChTraitsCRT@D@ATL@@@@@ATL@@V12@@@6B@
rdata$r	SEGMENT
??_R4?$CMap@GGV?$CStringT@DV?$StrTraitMFC_DLL@DV?$ChTraitsCRT@D@ATL@@@@@ATL@@V12@@@6B@ DD 00H ; CMap<unsigned short,unsigned short,ATL::CStringT<char,StrTraitMFC_DLL<char,ATL::ChTraitsCRT<char> > >,ATL::CStringT<char,StrTraitMFC_DLL<char,ATL::ChTraitsCRT<char> > > >::`RTTI Complete Object Locator'
	DD	00H
	DD	00H
	DD	FLAT:??_R0?AV?$CMap@GGV?$CStringT@DV?$StrTraitMFC_DLL@DV?$ChTraitsCRT@D@ATL@@@@@ATL@@V12@@@@8
	DD	FLAT:??_R3?$CMap@GGV?$CStringT@DV?$StrTraitMFC_DLL@DV?$ChTraitsCRT@D@ATL@@@@@ATL@@V12@@@8
rdata$r	ENDS
;	COMDAT ??_R2CRscDlg@@8
rdata$r	SEGMENT
??_R2CRscDlg@@8 DD FLAT:??_R1A@?0A@EA@CRscDlg@@8	; CRscDlg::`RTTI Base Class Array'
	DD	FLAT:??_R1A@?0A@EA@CDialog@@8
	DD	FLAT:??_R1A@?0A@EA@CWnd@@8
	DD	FLAT:??_R1A@?0A@EA@CCmdTarget@@8
	DD	FLAT:??_R1A@?0A@EA@CObject@@8
rdata$r	ENDS
;	COMDAT ??_R3CRscDlg@@8
rdata$r	SEGMENT
??_R3CRscDlg@@8 DD 00H					; CRscDlg::`RTTI Class Hierarchy Descriptor'
	DD	00H
	DD	05H
	DD	FLAT:??_R2CRscDlg@@8
rdata$r	ENDS
;	COMDAT ??_R0?AVCRscDlg@@@8
data$rs	SEGMENT
??_R0?AVCRscDlg@@@8 DD FLAT:??_7type_info@@6B@		; CRscDlg `RTTI Type Descriptor'
	DD	00H
	DB	'.?AVCRscDlg@@', 00H
data$rs	ENDS
;	COMDAT ??_R1A@?0A@EA@CRscDlg@@8
rdata$r	SEGMENT
??_R1A@?0A@EA@CRscDlg@@8 DD FLAT:??_R0?AVCRscDlg@@@8	; CRscDlg::`RTTI Base Class Descriptor at (0,-1,0,64)'
	DD	04H
	DD	00H
	DD	0ffffffffH
	DD	00H
	DD	040H
	DD	FLAT:??_R3CRscDlg@@8
rdata$r	ENDS
;	COMDAT ??_R1A@?0A@EA@CFloatingHogaDlg@@8
rdata$r	SEGMENT
??_R1A@?0A@EA@CFloatingHogaDlg@@8 DD FLAT:??_R0?AVCFloatingHogaDlg@@@8 ; CFloatingHogaDlg::`RTTI Base Class Descriptor at (0,-1,0,64)'
	DD	05H
	DD	00H
	DD	0ffffffffH
	DD	00H
	DD	040H
	DD	FLAT:??_R3CFloatingHogaDlg@@8
rdata$r	ENDS
;	COMDAT ??_R2CFloatingHogaDlg@@8
rdata$r	SEGMENT
??_R2CFloatingHogaDlg@@8 DD FLAT:??_R1A@?0A@EA@CFloatingHogaDlg@@8 ; CFloatingHogaDlg::`RTTI Base Class Array'
	DD	FLAT:??_R1A@?0A@EA@CRscDlg@@8
	DD	FLAT:??_R1A@?0A@EA@CDialog@@8
	DD	FLAT:??_R1A@?0A@EA@CWnd@@8
	DD	FLAT:??_R1A@?0A@EA@CCmdTarget@@8
	DD	FLAT:??_R1A@?0A@EA@CObject@@8
rdata$r	ENDS
;	COMDAT ??_R3CFloatingHogaDlg@@8
rdata$r	SEGMENT
??_R3CFloatingHogaDlg@@8 DD 00H				; CFloatingHogaDlg::`RTTI Class Hierarchy Descriptor'
	DD	00H
	DD	06H
	DD	FLAT:??_R2CFloatingHogaDlg@@8
rdata$r	ENDS
;	COMDAT ??_R0?AVCFloatingHogaDlg@@@8
data$rs	SEGMENT
??_R0?AVCFloatingHogaDlg@@@8 DD FLAT:??_7type_info@@6B@	; CFloatingHogaDlg `RTTI Type Descriptor'
	DD	00H
	DB	'.?AVCFloatingHogaDlg@@', 00H
data$rs	ENDS
;	COMDAT ??_R4CFloatingHogaDlg@@6B@
rdata$r	SEGMENT
??_R4CFloatingHogaDlg@@6B@ DD 00H			; CFloatingHogaDlg::`RTTI Complete Object Locator'
	DD	00H
	DD	00H
	DD	FLAT:??_R0?AVCFloatingHogaDlg@@@8
	DD	FLAT:??_R3CFloatingHogaDlg@@8
rdata$r	ENDS
;	COMDAT ??_R1A@?0A@EA@CKBREAL_KXYS@@8
rdata$r	SEGMENT
??_R1A@?0A@EA@CKBREAL_KXYS@@8 DD FLAT:??_R0?AVCKBREAL_KXYS@@@8 ; CKBREAL_KXYS::`RTTI Base Class Descriptor at (0,-1,0,64)'
	DD	00H
	DD	00H
	DD	0ffffffffH
	DD	00H
	DD	040H
	DD	FLAT:??_R3CKBREAL_KXYS@@8
rdata$r	ENDS
;	COMDAT ??_R2CKBREAL_KXYS@@8
rdata$r	SEGMENT
??_R2CKBREAL_KXYS@@8 DD FLAT:??_R1A@?0A@EA@CKBREAL_KXYS@@8 ; CKBREAL_KXYS::`RTTI Base Class Array'
rdata$r	ENDS
;	COMDAT ??_R3CKBREAL_KXYS@@8
rdata$r	SEGMENT
??_R3CKBREAL_KXYS@@8 DD 00H				; CKBREAL_KXYS::`RTTI Class Hierarchy Descriptor'
	DD	00H
	DD	01H
	DD	FLAT:??_R2CKBREAL_KXYS@@8
rdata$r	ENDS
;	COMDAT ??_R0?AVCKBREAL_KXYS@@@8
data$rs	SEGMENT
??_R0?AVCKBREAL_KXYS@@@8 DD FLAT:??_7type_info@@6B@	; CKBREAL_KXYS `RTTI Type Descriptor'
	DD	00H
	DB	'.?AVCKBREAL_KXYS@@', 00H
data$rs	ENDS
;	COMDAT ??_R4CKBREAL_KXYS@@6B@
rdata$r	SEGMENT
??_R4CKBREAL_KXYS@@6B@ DD 00H				; CKBREAL_KXYS::`RTTI Complete Object Locator'
	DD	00H
	DD	00H
	DD	FLAT:??_R0?AVCKBREAL_KXYS@@@8
	DD	FLAT:??_R3CKBREAL_KXYS@@8
rdata$r	ENDS
;	COMDAT ??_R1A@?0A@EA@CKBREAL_KXH1@@8
rdata$r	SEGMENT
??_R1A@?0A@EA@CKBREAL_KXH1@@8 DD FLAT:??_R0?AVCKBREAL_KXH1@@@8 ; CKBREAL_KXH1::`RTTI Base Class Descriptor at (0,-1,0,64)'
	DD	00H
	DD	00H
	DD	0ffffffffH
	DD	00H
	DD	040H
	DD	FLAT:??_R3CKBREAL_KXH1@@8
rdata$r	ENDS
;	COMDAT ??_R2CKBREAL_KXH1@@8
rdata$r	SEGMENT
??_R2CKBREAL_KXH1@@8 DD FLAT:??_R1A@?0A@EA@CKBREAL_KXH1@@8 ; CKBREAL_KXH1::`RTTI Base Class Array'
rdata$r	ENDS
;	COMDAT ??_R3CKBREAL_KXH1@@8
rdata$r	SEGMENT
??_R3CKBREAL_KXH1@@8 DD 00H				; CKBREAL_KXH1::`RTTI Class Hierarchy Descriptor'
	DD	00H
	DD	01H
	DD	FLAT:??_R2CKBREAL_KXH1@@8
rdata$r	ENDS
;	COMDAT ??_R0?AVCKBREAL_KXH1@@@8
data$rs	SEGMENT
??_R0?AVCKBREAL_KXH1@@@8 DD FLAT:??_7type_info@@6B@	; CKBREAL_KXH1 `RTTI Type Descriptor'
	DD	00H
	DB	'.?AVCKBREAL_KXH1@@', 00H
data$rs	ENDS
;	COMDAT ??_R4CKBREAL_KXH1@@6B@
rdata$r	SEGMENT
??_R4CKBREAL_KXH1@@6B@ DD 00H				; CKBREAL_KXH1::`RTTI Complete Object Locator'
	DD	00H
	DD	00H
	DD	FLAT:??_R0?AVCKBREAL_KXH1@@@8
	DD	FLAT:??_R3CKBREAL_KXH1@@8
rdata$r	ENDS
;	COMDAT ??_R1A@?0A@EA@CKB_01230@@8
rdata$r	SEGMENT
??_R1A@?0A@EA@CKB_01230@@8 DD FLAT:??_R0?AVCKB_01230@@@8 ; CKB_01230::`RTTI Base Class Descriptor at (0,-1,0,64)'
	DD	00H
	DD	00H
	DD	0ffffffffH
	DD	00H
	DD	040H
	DD	FLAT:??_R3CKB_01230@@8
rdata$r	ENDS
;	COMDAT ??_R2CKB_01230@@8
rdata$r	SEGMENT
??_R2CKB_01230@@8 DD FLAT:??_R1A@?0A@EA@CKB_01230@@8	; CKB_01230::`RTTI Base Class Array'
rdata$r	ENDS
;	COMDAT ??_R3CKB_01230@@8
rdata$r	SEGMENT
??_R3CKB_01230@@8 DD 00H				; CKB_01230::`RTTI Class Hierarchy Descriptor'
	DD	00H
	DD	01H
	DD	FLAT:??_R2CKB_01230@@8
rdata$r	ENDS
;	COMDAT ??_R0?AVCKB_01230@@@8
data$rs	SEGMENT
??_R0?AVCKB_01230@@@8 DD FLAT:??_7type_info@@6B@	; CKB_01230 `RTTI Type Descriptor'
	DD	00H
	DB	'.?AVCKB_01230@@', 00H
data$rs	ENDS
;	COMDAT ??_R4CKB_01230@@6B@
rdata$r	SEGMENT
??_R4CKB_01230@@6B@ DD 00H				; CKB_01230::`RTTI Complete Object Locator'
	DD	00H
	DD	00H
	DD	FLAT:??_R0?AVCKB_01230@@@8
	DD	FLAT:??_R3CKB_01230@@8
rdata$r	ENDS
;	COMDAT ??_R1A@?0A@EA@CUtil@@8
rdata$r	SEGMENT
??_R1A@?0A@EA@CUtil@@8 DD FLAT:??_R0?AVCUtil@@@8	; CUtil::`RTTI Base Class Descriptor at (0,-1,0,64)'
	DD	01H
	DD	00H
	DD	0ffffffffH
	DD	00H
	DD	040H
	DD	FLAT:??_R3CUtil@@8
rdata$r	ENDS
;	COMDAT ??_R2CUtil@@8
rdata$r	SEGMENT
??_R2CUtil@@8 DD FLAT:??_R1A@?0A@EA@CUtil@@8		; CUtil::`RTTI Base Class Array'
	DD	FLAT:??_R1A@?0A@EA@CObject@@8
rdata$r	ENDS
;	COMDAT ??_R3CUtil@@8
rdata$r	SEGMENT
??_R3CUtil@@8 DD 00H					; CUtil::`RTTI Class Hierarchy Descriptor'
	DD	00H
	DD	02H
	DD	FLAT:??_R2CUtil@@8
rdata$r	ENDS
;	COMDAT ??_R0?AVCUtil@@@8
data$rs	SEGMENT
??_R0?AVCUtil@@@8 DD FLAT:??_7type_info@@6B@		; CUtil `RTTI Type Descriptor'
	DD	00H
	DB	'.?AVCUtil@@', 00H
data$rs	ENDS
;	COMDAT ??_R4CUtil@@6B@
rdata$r	SEGMENT
??_R4CUtil@@6B@ DD 00H					; CUtil::`RTTI Complete Object Locator'
	DD	00H
	DD	00H
	DD	FLAT:??_R0?AVCUtil@@@8
	DD	FLAT:??_R3CUtil@@8
rdata$r	ENDS
;	COMDAT ??_C@_03DLFLMLMC@106@
CONST	SEGMENT
??_C@_03DLFLMLMC@106@ DB '106', 00H			; `string'
CONST	ENDS
;	COMDAT ??_C@_03HEBKFNAF@101@
CONST	SEGMENT
??_C@_03HEBKFNAF@101@ DB '101', 00H			; `string'
CONST	ENDS
;	COMDAT ??_C@_03KPMDFHLI@045@
CONST	SEGMENT
??_C@_03KPMDFHLI@045@ DB '045', 00H			; `string'
CONST	ENDS
;	COMDAT ??_C@_03LGNIGGPJ@044@
CONST	SEGMENT
??_C@_03LGNIGGPJ@044@ DB '044', 00H			; `string'
CONST	ENDS
;	COMDAT ??_C@_03PJJJPADO@043@
CONST	SEGMENT
??_C@_03PJJJPADO@043@ DB '043', 00H			; `string'
CONST	ENDS
;	COMDAT ??_C@_03OAICMBHP@042@
CONST	SEGMENT
??_C@_03OAICMBHP@042@ DB '042', 00H			; `string'
CONST	ENDS
;	COMDAT ??_C@_03MLKPJCLM@041@
CONST	SEGMENT
??_C@_03MLKPJCLM@041@ DB '041', 00H			; `string'
CONST	ENDS
;	COMDAT ??_C@_03KMEHIDNG@065@
CONST	SEGMENT
??_C@_03KMEHIDNG@065@ DB '065', 00H			; `string'
CONST	ENDS
;	COMDAT ??_C@_03LFFMLCJH@064@
CONST	SEGMENT
??_C@_03LFFMLCJH@064@ DB '064', 00H			; `string'
CONST	ENDS
;	COMDAT ??_C@_03PKBNCEFA@063@
CONST	SEGMENT
??_C@_03PKBNCEFA@063@ DB '063', 00H			; `string'
CONST	ENDS
;	COMDAT ??_C@_03ODAGBFBB@062@
CONST	SEGMENT
??_C@_03ODAGBFBB@062@ DB '062', 00H			; `string'
CONST	ENDS
;	COMDAT ??_C@_03MICLEGNC@061@
CONST	SEGMENT
??_C@_03MICLEGNC@061@ DB '061', 00H			; `string'
CONST	ENDS
;	COMDAT ??_C@_03KOABDNIP@055@
CONST	SEGMENT
??_C@_03KOABDNIP@055@ DB '055', 00H			; `string'
CONST	ENDS
;	COMDAT ??_C@_03LHBKAMMO@054@
CONST	SEGMENT
??_C@_03LHBKAMMO@054@ DB '054', 00H			; `string'
CONST	ENDS
;	COMDAT ??_C@_03PIFLJKAJ@053@
CONST	SEGMENT
??_C@_03PIFLJKAJ@053@ DB '053', 00H			; `string'
CONST	ENDS
;	COMDAT ??_C@_03OBEAKLEI@052@
CONST	SEGMENT
??_C@_03OBEAKLEI@052@ DB '052', 00H			; `string'
CONST	ENDS
;	COMDAT ??_C@_03MKGNPIIL@051@
CONST	SEGMENT
??_C@_03MKGNPIIL@051@ DB '051', 00H			; `string'
CONST	ENDS
;	COMDAT ??_C@_03KNIFOJOB@075@
CONST	SEGMENT
??_C@_03KNIFOJOB@075@ DB '075', 00H			; `string'
CONST	ENDS
;	COMDAT ??_C@_03LEJONIKA@074@
CONST	SEGMENT
??_C@_03LEJONIKA@074@ DB '074', 00H			; `string'
CONST	ENDS
;	COMDAT ??_C@_03PLNPEOGH@073@
CONST	SEGMENT
??_C@_03PLNPEOGH@073@ DB '073', 00H			; `string'
CONST	ENDS
;	COMDAT ??_C@_03OCMEHPCG@072@
CONST	SEGMENT
??_C@_03OCMEHPCG@072@ DB '072', 00H			; `string'
CONST	ENDS
;	COMDAT ??_C@_03MJOJCMOF@071@
CONST	SEGMENT
??_C@_03MJOJCMOF@071@ DB '071', 00H			; `string'
CONST	ENDS
;	COMDAT ??_C@_04OKLMFNFP@KXYS@
CONST	SEGMENT
??_C@_04OKLMFNFP@KXYS@ DB 'KXYS', 00H			; `string'
CONST	ENDS
;	COMDAT ??_C@_04KAJDJNDN@KXH1@
CONST	SEGMENT
??_C@_04KAJDJNDN@KXH1@ DB 'KXH1', 00H			; `string'
CONST	ENDS
;	COMDAT ??_C@_01NBENCBCI@?$CK@
CONST	SEGMENT
??_C@_01NBENCBCI@?$CK@ DB '*', 00H			; `string'
CONST	ENDS
;	COMDAT ?msg@?1??OnSetCursor@CFloatingHogaDlg@@IAEHPAVCWnd@@II@Z@4IA
_DATA	SEGMENT
?msg@?1??OnSetCursor@CFloatingHogaDlg@@IAEHPAVCWnd@@II@Z@4IA DD 0200H ; `CFloatingHogaDlg::OnSetCursor'::`2'::msg
_DATA	ENDS
;	COMDAT ??_C@_0L@IPFBCIOP@?$LP?$LJ?$LL?s?C?$LM?$LA?a?$LH?$KO@
CONST	SEGMENT
??_C@_0L@IPFBCIOP@?$LP?$LJ?$LL?s?C?$LM?$LA?a?$LH?$KO@ DB 0bfH, 0b9H, 0bbH
	DB	0f3H, 0c3H, 0bcH, 0b0H, 0e1H, 0b7H, 0aeH, 00H ; `string'
CONST	ENDS
;	COMDAT ??_C@_0L@NIGCCKF@?$LP?$LJ?$LL?s?C?$LM?$LA?a?$LA?$KB@
CONST	SEGMENT
??_C@_0L@NIGCCKF@?$LP?$LJ?$LL?s?C?$LM?$LA?a?$LA?$KB@ DB 0bfH, 0b9H, 0bbH, 0f3H
	DB	0c3H, 0bcH, 0b0H, 0e1H, 0b0H, 0a1H, 00H	; `string'
CONST	ENDS
;	COMDAT ??_C@_02EHLBLIAD@?A?V@
CONST	SEGMENT
??_C@_02EHLBLIAD@?A?V@ DB 0c1H, 0d6H, 00H		; `string'
CONST	ENDS
;	COMDAT ??_C@_01FGNFDNOH@?$CF@
CONST	SEGMENT
??_C@_01FGNFDNOH@?$CF@ DB '%', 00H			; `string'
CONST	ENDS
;	COMDAT ??_C@_04GEFJINEE@?$CF?42f@
CONST	SEGMENT
??_C@_04GEFJINEE@?$CF?42f@ DB '%.2f', 00H		; `string'
CONST	ENDS
;	COMDAT ??_C@_01CLKCMJKC@?5@
CONST	SEGMENT
??_C@_01CLKCMJKC@?5@ DB ' ', 00H			; `string'
CONST	ENDS
;	COMDAT ??_C@_05OEELCGHA@?$CF1?41s@
CONST	SEGMENT
??_C@_05OEELCGHA@?$CF1?41s@ DB '%1.1s', 00H		; `string'
CONST	ENDS
;	COMDAT ??_C@_04EAAFLGOC@?G?O?G?Q@
CONST	SEGMENT
??_C@_04EAAFLGOC@?G?O?G?Q@ DB 0c7H, 0cfH, 0c7H, 0d1H, 00H ; `string'
CONST	ENDS
;	COMDAT ??_C@_04MGNKPMDF@?$LL?s?G?Q@
CONST	SEGMENT
??_C@_04MGNKPMDF@?$LL?s?G?Q@ DB 0bbH, 0f3H, 0c7H, 0d1H, 00H ; `string'
CONST	ENDS
;	COMDAT ??_C@_06BINLOPDK@?$LN?C?$LA?$KD?$LP?$NM@
CONST	SEGMENT
??_C@_06BINLOPDK@?$LN?C?$LA?$KD?$LP?$NM@ DB 0bdH, 0c3H, 0b0H, 0a3H, 0bfH, 0dcH
	DB	00H						; `string'
CONST	ENDS
;	COMDAT ??_C@_06DDAGPNBF@?C?Q?$MA?$NM?$LH?$KO@
CONST	SEGMENT
??_C@_06DDAGPNBF@?C?Q?$MA?$NM?$LH?$KO@ DB 0c3H, 0d1H, 0c0H, 0dcH, 0b7H, 0aeH
	DB	00H						; `string'
CONST	ENDS
;	COMDAT ??_C@_09DCEFIFCJ@5?H?$KD?$LA?$KB?$MA?$NM?$LH?$KO@
CONST	SEGMENT
??_C@_09DCEFIFCJ@5?H?$KD?$LA?$KB?$MA?$NM?$LH?$KO@ DB '5', 0c8H, 0a3H, 0b0H
	DB	0a1H, 0c0H, 0dcH, 0b7H, 0aeH, 00H		; `string'
CONST	ENDS
;	COMDAT ??_C@_04OJFMPMDJ@?C?k?$LM?R@
CONST	SEGMENT
??_C@_04OJFMPMDJ@?C?k?$LM?R@ DB 0c3H, 0ebH, 0bcH, 0d2H, 00H ; `string'
CONST	ENDS
;	COMDAT ??_C@_05NAFAMIEH@?5?$LM?v?$MA?M@
CONST	SEGMENT
??_C@_05NAFAMIEH@?5?$LM?v?$MA?M@ DB ' ', 0bcH, 0f6H, 0c0H, 0cdH, 00H ; `string'
CONST	ENDS
;	COMDAT ??_C@_06ONEPBMEK@?$LF?n?$LG?t?$MA?$LC@
CONST	SEGMENT
??_C@_06ONEPBMEK@?$LF?n?$LG?t?$MA?$LC@ DB 0b5H, 0eeH, 0b6H, 0f4H, 0c0H, 0b2H
	DB	00H						; `string'
CONST	ENDS
;	COMDAT ??_C@_08ODGJCEOL@Stop?$LI?E?$LM?v@
CONST	SEGMENT
??_C@_08ODGJCEOL@Stop?$LI?E?$LM?v@ DB 'Stop', 0b8H, 0c5H, 0bcH, 0f6H, 00H ; `string'
CONST	ENDS
;	COMDAT ??_C@_08NBFDGMIB@?$LI?E?$LM?v?A?V?$LJ?$KO@
CONST	SEGMENT
??_C@_08NBFDGMIB@?$LI?E?$LM?v?A?V?$LJ?$KO@ DB 0b8H, 0c5H, 0bcH, 0f6H, 0c1H
	DB	0d6H, 0b9H, 0aeH, 00H			; `string'
CONST	ENDS
;	COMDAT ??_C@_08IJBAIIFP@?$LI?E?$LM?v?$MA?$NM?$LH?$KO@
CONST	SEGMENT
??_C@_08IJBAIIFP@?$LI?E?$LM?v?$MA?$NM?$LH?$KO@ DB 0b8H, 0c5H, 0bcH, 0f6H, 0c0H
	DB	0dcH, 0b7H, 0aeH, 00H			; `string'
CONST	ENDS
;	COMDAT ??_C@_05BGBFEMBO@?5?$LF?n?$LG?t@
CONST	SEGMENT
??_C@_05BGBFEMBO@?5?$LF?n?$LG?t@ DB ' ', 0b5H, 0eeH, 0b6H, 0f4H, 00H ; `string'
CONST	ENDS
;	COMDAT ??_C@_05FGHBPLEF@?H?$KD?5?$LA?$KB@
CONST	SEGMENT
??_C@_05FGHBPLEF@?H?$KD?5?$LA?$KB@ DB 0c8H, 0a3H, ' ', 0b0H, 0a1H, 00H ; `string'
CONST	ENDS
;	COMDAT ??_C@_08JFEELFEO@?$LI?E?$LF?$LF?$MA?$NM?$LH?$KO@
CONST	SEGMENT
??_C@_08JFEELFEO@?$LI?E?$LF?$LF?$MA?$NM?$LH?$KO@ DB 0b8H, 0c5H, 0b5H, 0b5H
	DB	0c0H, 0dcH, 0b7H, 0aeH, 00H			; `string'
CONST	ENDS
;	COMDAT ??_C@_08MNAHFBJA@?$LI?E?$LF?$LF?A?V?$LJ?$KO@
CONST	SEGMENT
??_C@_08MNAHFBJA@?$LI?E?$LF?$LF?A?V?$LJ?$KO@ DB 0b8H, 0c5H, 0b5H, 0b5H, 0c1H
	DB	0d6H, 0b9H, 0aeH, 00H			; `string'
CONST	ENDS
;	COMDAT ??_C@_02CONNCEND@?C?k@
CONST	SEGMENT
??_C@_02CONNCEND@?C?k@ DB 0c3H, 0ebH, 00H		; `string'
CONST	ENDS
;	COMDAT ??_C@_08DHOMADKC@Stop?$LI?E?$LF?$LF@
CONST	SEGMENT
??_C@_08DHOMADKC@Stop?$LI?E?$LF?$LF@ DB 'Stop', 0b8H, 0c5H, 0b5H, 0b5H, 00H ; `string'
CONST	ENDS
;	COMDAT ??_R0PAVCMemoryException@@@8
data$r	SEGMENT
??_R0PAVCMemoryException@@@8 DD FLAT:??_7type_info@@6B@	; CMemoryException * `RTTI Type Descriptor'
	DD	00H
	DB	'.PAVCMemoryException@@', 00H
data$r	ENDS
;	COMDAT ??_C@_06MFMMLLPC@?$LB?$LM?$LI?$LC?C?$LM@
CONST	SEGMENT
??_C@_06MFMMLLPC@?$LB?$LM?$LI?$LC?C?$LM@ DB 0b1H, 0bcH, 0b8H, 0b2H, 0c3H, 0bcH
	DB	00H						; `string'
CONST	ENDS
;	COMDAT ??_C@_0BD@CMCCCNBF@HANAROIGATEMANAGER@
CONST	SEGMENT
??_C@_0BD@CMCCCNBF@HANAROIGATEMANAGER@ DB 'HANAROIGATEMANAGER', 00H ; `string'
CONST	ENDS
;	COMDAT ??_C@_08FKDHAHKC@5?H?$KD?$LA?$KB?5?C?$KC@
CONST	SEGMENT
??_C@_08FKDHAHKC@5?H?$KD?$LA?$KB?5?C?$KC@ DB '5', 0c8H, 0a3H, 0b0H, 0a1H, ' '
	DB	0c3H, 0a2H, 00H				; `string'
CONST	ENDS
;	COMDAT ?messageMap@?1??GetThisMessageMap@CFloatingHogaDlg@@KGPBUAFX_MSGMAP@@XZ@4U3@B
CONST	SEGMENT
?messageMap@?1??GetThisMessageMap@CFloatingHogaDlg@@KGPBUAFX_MSGMAP@@XZ@4U3@B DD FLAT:?GetThisMessageMap@CRscDlg@@KGPBUAFX_MSGMAP@@XZ ; `CFloatingHogaDlg::GetThisMessageMap'::`2'::messageMap
	DD	FLAT:?_messageEntries@?1??GetThisMessageMap@CFloatingHogaDlg@@KGPBUAFX_MSGMAP@@XZ@4QBUAFX_MSGMAP_ENTRY@@B
CONST	ENDS
;	COMDAT ?_messageEntries@?1??GetThisMessageMap@CFloatingHogaDlg@@KGPBUAFX_MSGMAP@@XZ@4QBUAFX_MSGMAP_ENTRY@@B
CONST	SEGMENT
?_messageEntries@?1??GetThisMessageMap@CFloatingHogaDlg@@KGPBUAFX_MSGMAP@@XZ@4QBUAFX_MSGMAP_ENTRY@@B DD 0201H ; `CFloatingHogaDlg::GetThisMessageMap'::`2'::_messageEntries
	DD	00H
	DD	00H
	DD	00H
	DD	036H
	DD	FLAT:?OnLButtonDown@CFloatingHogaDlg@@IAEXIVCPoint@@@Z
	DD	05H
	DD	00H
	DD	00H
	DD	00H
	DD	01aH
	DD	FLAT:?OnSize@CFloatingHogaDlg@@IAEXIHH@Z
	DD	0203H
	DD	00H
	DD	00H
	DD	00H
	DD	036H
	DD	FLAT:?OnLButtonDblClk@CFloatingHogaDlg@@IAEXIVCPoint@@@Z
	DD	0202H
	DD	00H
	DD	00H
	DD	00H
	DD	036H
	DD	FLAT:?OnLButtonUp@CFloatingHogaDlg@@IAEXIVCPoint@@@Z
	DD	0200H
	DD	00H
	DD	00H
	DD	00H
	DD	036H
	DD	FLAT:?OnMouseMove@CFloatingHogaDlg@@IAEXIVCPoint@@@Z
	DD	02H
	DD	00H
	DD	00H
	DD	00H
	DD	013H
	DD	FLAT:?OnDestroy@CFloatingHogaDlg@@IAEXXZ
	DD	020H
	DD	00H
	DD	00H
	DD	00H
	DD	05H
	DD	FLAT:?OnSetCursor@CFloatingHogaDlg@@IAEHPAVCWnd@@II@Z
	DD	0fH
	DD	00H
	DD	00H
	DD	00H
	DD	013H
	DD	FLAT:?OnPaint@CFloatingHogaDlg@@IAEXXZ
	DD	0111H
	DD	00H
	DD	01875H
	DD	01875H
	DD	03aH
	DD	FLAT:?OnButtonClose@CFloatingHogaDlg@@IAEXXZ
	DD	014H
	DD	00H
	DD	00H
	DD	00H
	DD	01H
	DD	FLAT:?OnEraseBkgnd@CFloatingHogaDlg@@IAEHPAVCDC@@@Z
	DD	084H
	DD	00H
	DD	00H
	DD	00H
	DD	047H
	DD	FLAT:?OnNcHitTest@CFloatingHogaDlg@@IAEJVCPoint@@@Z
	DD	00H
	DD	00H
	DD	00H
	DD	00H
	DD	00H
	DD	00H
CONST	ENDS
;	COMDAT ??_7CFloatingHogaDlg@@6B@
CONST	SEGMENT
??_7CFloatingHogaDlg@@6B@ DD FLAT:??_R4CFloatingHogaDlg@@6B@ ; CFloatingHogaDlg::`vftable'
	DD	FLAT:?GetRuntimeClass@CDialog@@UBEPAUCRuntimeClass@@XZ
	DD	FLAT:??_ECFloatingHogaDlg@@UAEPAXI@Z
	DD	FLAT:?Serialize@CObject@@UAEXAAVCArchive@@@Z
	DD	FLAT:?AssertValid@CObject@@UBEXXZ
	DD	FLAT:?Dump@CObject@@UBEXAAVCDumpContext@@@Z
	DD	FLAT:?OnCmdMsg@CDialog@@UAEHIHPAXPAUAFX_CMDHANDLERINFO@@@Z
	DD	FLAT:?OnFinalRelease@CWnd@@UAEXXZ
	DD	FLAT:?IsInvokeAllowed@CCmdTarget@@UAEHJ@Z
	DD	FLAT:?GetDispatchIID@CCmdTarget@@UAEHPAU_GUID@@@Z
	DD	FLAT:?GetTypeInfoCount@CCmdTarget@@UAEIXZ
	DD	FLAT:?GetTypeLibCache@CCmdTarget@@UAEPAVCTypeLibCache@@XZ
	DD	FLAT:?GetTypeLib@CCmdTarget@@UAEJKPAPAUITypeLib@@@Z
	DD	FLAT:?GetMessageMap@CFloatingHogaDlg@@MBEPBUAFX_MSGMAP@@XZ
	DD	FLAT:?GetCommandMap@CCmdTarget@@MBEPBUAFX_OLECMDMAP@@XZ
	DD	FLAT:?GetDispatchMap@CCmdTarget@@MBEPBUAFX_DISPMAP@@XZ
	DD	FLAT:?GetConnectionMap@CCmdTarget@@MBEPBUAFX_CONNECTIONMAP@@XZ
	DD	FLAT:?GetInterfaceMap@CWnd@@MBEPBUAFX_INTERFACEMAP@@XZ
	DD	FLAT:?GetEventSinkMap@CCmdTarget@@MBEPBUAFX_EVENTSINKMAP@@XZ
	DD	FLAT:?OnCreateAggregates@CCmdTarget@@UAEHXZ
	DD	FLAT:?GetInterfaceHook@CCmdTarget@@UAEPAUIUnknown@@PBX@Z
	DD	FLAT:?GetExtraConnectionPoints@CCmdTarget@@MAEHPAVCPtrArray@@@Z
	DD	FLAT:?GetConnectionHook@CCmdTarget@@MAEPAUIConnectionPoint@@ABU_GUID@@@Z
	DD	FLAT:?PreSubclassWindow@CWnd@@UAEXXZ
	DD	FLAT:?Create@CWnd@@UAEHPBD0KABUtagRECT@@PAV1@IPAUCCreateContext@@@Z
	DD	FLAT:?CreateEx@CWnd@@UAEHKPBD0KABUtagRECT@@PAV1@IPAX@Z
	DD	FLAT:?CreateEx@CWnd@@UAEHKPBD0KHHHHPAUHWND__@@PAUHMENU__@@PAX@Z
	DD	FLAT:?DestroyWindow@CWnd@@UAEHXZ
	DD	FLAT:?PreCreateWindow@CWnd@@UAEHAAUtagCREATESTRUCTA@@@Z
	DD	FLAT:?CalcWindowRect@CWnd@@UAEXPAUtagRECT@@I@Z
	DD	FLAT:?GetMenu@CWnd@@UBEPAVCMenu@@XZ
	DD	FLAT:?SetMenu@CWnd@@UAEHPAVCMenu@@@Z
	DD	FLAT:?OnToolHitTest@CWnd@@UBEHVCPoint@@PAUtagTOOLINFOA@@@Z
	DD	FLAT:?GetScrollBarCtrl@CWnd@@UBEPAVCScrollBar@@H@Z
	DD	FLAT:?WinHelpA@CWnd@@UAEXKI@Z
	DD	FLAT:?HtmlHelpA@CWnd@@UAEXKI@Z
	DD	FLAT:?WinHelpInternal@CWnd@@UAEXKI@Z
	DD	FLAT:?ContinueModal@CWnd@@UAEHXZ
	DD	FLAT:?EndModalLoop@CWnd@@UAEXH@Z
	DD	FLAT:?OnDrawIconicThumbnailOrLivePreview@CWnd@@UAEXAAVCDC@@VCRect@@VCSize@@HAAH@Z
	DD	FLAT:?EnsureStdObj@CWnd@@UAEJXZ
	DD	FLAT:?get_accParent@CWnd@@UAEJPAPAUIDispatch@@@Z
	DD	FLAT:?get_accChildCount@CWnd@@UAEJPAJ@Z
	DD	FLAT:?get_accChild@CWnd@@UAEJUtagVARIANT@@PAPAUIDispatch@@@Z
	DD	FLAT:?get_accName@CWnd@@UAEJUtagVARIANT@@PAPA_W@Z
	DD	FLAT:?get_accValue@CWnd@@UAEJUtagVARIANT@@PAPA_W@Z
	DD	FLAT:?get_accDescription@CWnd@@UAEJUtagVARIANT@@PAPA_W@Z
	DD	FLAT:?get_accRole@CWnd@@UAEJUtagVARIANT@@PAU2@@Z
	DD	FLAT:?get_accState@CWnd@@UAEJUtagVARIANT@@PAU2@@Z
	DD	FLAT:?get_accHelp@CWnd@@UAEJUtagVARIANT@@PAPA_W@Z
	DD	FLAT:?get_accHelpTopic@CWnd@@UAEJPAPA_WUtagVARIANT@@PAJ@Z
	DD	FLAT:?get_accKeyboardShortcut@CWnd@@UAEJUtagVARIANT@@PAPA_W@Z
	DD	FLAT:?get_accFocus@CWnd@@UAEJPAUtagVARIANT@@@Z
	DD	FLAT:?get_accSelection@CWnd@@UAEJPAUtagVARIANT@@@Z
	DD	FLAT:?get_accDefaultAction@CWnd@@UAEJUtagVARIANT@@PAPA_W@Z
	DD	FLAT:?accSelect@CWnd@@UAEJJUtagVARIANT@@@Z
	DD	FLAT:?accLocation@CWnd@@UAEJPAJ000UtagVARIANT@@@Z
	DD	FLAT:?accNavigate@CWnd@@UAEJJUtagVARIANT@@PAU2@@Z
	DD	FLAT:?accHitTest@CWnd@@UAEJJJPAUtagVARIANT@@@Z
	DD	FLAT:?accDoDefaultAction@CWnd@@UAEJUtagVARIANT@@@Z
	DD	FLAT:?put_accName@CWnd@@UAEJUtagVARIANT@@PA_W@Z
	DD	FLAT:?put_accValue@CWnd@@UAEJUtagVARIANT@@PA_W@Z
	DD	FLAT:?SetProxy@CWnd@@UAEJPAUIAccessibleProxy@@@Z
	DD	FLAT:?CreateAccessibleProxy@CWnd@@UAEJIJPAJ@Z
	DD	FLAT:?OnCommand@CWnd@@MAEHIJ@Z
	DD	FLAT:?OnNotify@CWnd@@MAEHIJPAJ@Z
	DD	FLAT:?GetSuperWndProcAddr@CWnd@@MAEPAP6GJPAUHWND__@@IIJ@ZXZ
	DD	FLAT:?DoDataExchange@CFloatingHogaDlg@@MAEXPAVCDataExchange@@@Z
	DD	FLAT:?BeginModalState@CWnd@@UAEXXZ
	DD	FLAT:?EndModalState@CWnd@@UAEXXZ
	DD	FLAT:?PreTranslateMessage@CFloatingHogaDlg@@UAEHPAUtagMSG@@@Z
	DD	FLAT:?OnAmbientProperty@CWnd@@UAEHPAVCOleControlSite@@JPAUtagVARIANT@@@Z
	DD	FLAT:?WindowProc@CFloatingHogaDlg@@MAEJIIJ@Z
	DD	FLAT:?OnWndMsg@CWnd@@MAEHIIJPAJ@Z
	DD	FLAT:?DefWindowProcA@CWnd@@MAEJIIJ@Z
	DD	FLAT:?PostNcDestroy@CWnd@@MAEXXZ
	DD	FLAT:?OnChildNotify@CWnd@@MAEHIIJPAJ@Z
	DD	FLAT:?OnTouchInputs@CWnd@@MAEHIPAUtagTOUCHINPUT@@@Z
	DD	FLAT:?OnTouchInput@CWnd@@MAEHVCPoint@@HHPAUtagTOUCHINPUT@@@Z
	DD	FLAT:?GetGestureStatus@CWnd@@MAEKVCPoint@@@Z
	DD	FLAT:?OnGestureZoom@CWnd@@MAEHVCPoint@@J@Z
	DD	FLAT:?OnGesturePan@CWnd@@MAEHVCPoint@@0@Z
	DD	FLAT:?OnGestureRotate@CWnd@@MAEHVCPoint@@N@Z
	DD	FLAT:?OnGestureTwoFingerTap@CWnd@@MAEHVCPoint@@@Z
	DD	FLAT:?OnGesturePressAndTap@CWnd@@MAEHVCPoint@@J@Z
	DD	FLAT:?ResizeDynamicLayout@CWnd@@MAEXXZ
	DD	FLAT:?CheckAutoCenter@CDialog@@UAEHXZ
	DD	FLAT:?IsFrameWnd@CWnd@@UBEHXZ
	DD	FLAT:?CreateControlContainer@CWnd@@MAEHPAPAVCOleControlContainer@@@Z
	DD	FLAT:?CreateControlSite@CWnd@@MAEHPAVCOleControlContainer@@PAPAVCOleControlSite@@IABU_GUID@@@Z
	DD	FLAT:?SetOccDialogInfo@CDialog@@MAEHPAU_AFX_OCC_DIALOG_INFO@@@Z
	DD	FLAT:?GetOccDialogInfo@CDialog@@MAEPAU_AFX_OCC_DIALOG_INFO@@XZ
	DD	FLAT:?Create@CRscDlg@@UAEHIPAVCWnd@@@Z
	DD	FLAT:?Create@CDialog@@UAEHPBDPAVCWnd@@@Z
	DD	FLAT:?CreateIndirect@CDialog@@UAEHPAXPAVCWnd@@@Z
	DD	FLAT:?CreateIndirect@CDialog@@UAEHPBUDLGTEMPLATE@@PAVCWnd@@PAX@Z
	DD	FLAT:?DoModal@CRscDlg@@UAEHXZ
	DD	FLAT:?OnInitDialog@CFloatingHogaDlg@@MAEHXZ
	DD	FLAT:?OnSetFont@CDialog@@UAEXPAVCFont@@@Z
	DD	FLAT:?OnOK@CDialog@@MAEXXZ
	DD	FLAT:?OnCancel@CDialog@@MAEXXZ
	DD	FLAT:?PreInitDialog@CDialog@@MAEXXZ
CONST	ENDS
;	COMDAT ??_7?$CArray@PAVCHogaData@@PAV1@@@6B@
CONST	SEGMENT
??_7?$CArray@PAVCHogaData@@PAV1@@@6B@ DD FLAT:??_R4?$CArray@PAVCHogaData@@PAV1@@@6B@ ; CArray<CHogaData *,CHogaData *>::`vftable'
	DD	FLAT:?GetRuntimeClass@CObject@@UBEPAUCRuntimeClass@@XZ
	DD	FLAT:??_E?$CArray@PAVCHogaData@@PAV1@@@UAEPAXI@Z
	DD	FLAT:?Serialize@?$CArray@PAVCHogaData@@PAV1@@@UAEXAAVCArchive@@@Z
	DD	FLAT:?AssertValid@CObject@@UBEXXZ
	DD	FLAT:?Dump@CObject@@UBEXAAVCDumpContext@@@Z
CONST	ENDS
;	COMDAT ??_7?$CMap@GGV?$CStringT@DV?$StrTraitMFC_DLL@DV?$ChTraitsCRT@D@ATL@@@@@ATL@@V12@@@6B@
CONST	SEGMENT
??_7?$CMap@GGV?$CStringT@DV?$StrTraitMFC_DLL@DV?$ChTraitsCRT@D@ATL@@@@@ATL@@V12@@@6B@ DD FLAT:??_R4?$CMap@GGV?$CStringT@DV?$StrTraitMFC_DLL@DV?$ChTraitsCRT@D@ATL@@@@@ATL@@V12@@@6B@ ; CMap<unsigned short,unsigned short,ATL::CStringT<char,StrTraitMFC_DLL<char,ATL::ChTraitsCRT<char> > >,ATL::CStringT<char,StrTraitMFC_DLL<char,ATL::ChTraitsCRT<char> > > >::`vftable'
	DD	FLAT:?GetRuntimeClass@CObject@@UBEPAUCRuntimeClass@@XZ
	DD	FLAT:??_E?$CMap@GGV?$CStringT@DV?$StrTraitMFC_DLL@DV?$ChTraitsCRT@D@ATL@@@@@ATL@@V12@@@UAEPAXI@Z
	DD	FLAT:?Serialize@?$CMap@GGV?$CStringT@DV?$StrTraitMFC_DLL@DV?$ChTraitsCRT@D@ATL@@@@@ATL@@V12@@@UAEXAAVCArchive@@@Z
	DD	FLAT:?AssertValid@CObject@@UBEXXZ
	DD	FLAT:?Dump@CObject@@UBEXAAVCDumpContext@@@Z
CONST	ENDS
;	COMDAT ??_7CKBREAL_KXYS@@6B@
CONST	SEGMENT
??_7CKBREAL_KXYS@@6B@ DD FLAT:??_R4CKBREAL_KXYS@@6B@	; CKBREAL_KXYS::`vftable'
	DD	FLAT:?Convert@CKBREAL_KXYS@@UAEXPAU_KXYS_OutBlock@@@Z
CONST	ENDS
;	COMDAT ??_7CKBREAL_KXH1@@6B@
CONST	SEGMENT
??_7CKBREAL_KXH1@@6B@ DD FLAT:??_R4CKBREAL_KXH1@@6B@	; CKBREAL_KXH1::`vftable'
	DD	FLAT:?Convert@CKBREAL_KXH1@@UAEXPAU_KXH1_OutBlock@@@Z
CONST	ENDS
;	COMDAT ??_7CKB_01230@@6B@
CONST	SEGMENT
??_7CKB_01230@@6B@ DD FLAT:??_R4CKB_01230@@6B@		; CKB_01230::`vftable'
	DD	FLAT:?Convert@CKB_01230@@UAEXPAU_k01230Out2@@@Z
CONST	ENDS
;	COMDAT ??_7CUtil@@6B@
CONST	SEGMENT
??_7CUtil@@6B@ DD FLAT:??_R4CUtil@@6B@			; CUtil::`vftable'
	DD	FLAT:?GetRuntimeClass@CUtil@@UBEPAUCRuntimeClass@@XZ
	DD	FLAT:??_ECUtil@@UAEPAXI@Z
	DD	FLAT:?Serialize@CObject@@UAEXAAVCArchive@@@Z
	DD	FLAT:?AssertValid@CObject@@UBEXXZ
	DD	FLAT:?Dump@CObject@@UBEXAAVCDumpContext@@@Z
CONST	ENDS
;	COMDAT ??_R2CDialog@@8
rdata$r	SEGMENT
??_R2CDialog@@8 DD FLAT:??_R1A@?0A@EA@CDialog@@8	; CDialog::`RTTI Base Class Array'
	DD	FLAT:??_R1A@?0A@EA@CWnd@@8
	DD	FLAT:??_R1A@?0A@EA@CCmdTarget@@8
	DD	FLAT:??_R1A@?0A@EA@CObject@@8
rdata$r	ENDS
;	COMDAT ??_R3CDialog@@8
rdata$r	SEGMENT
??_R3CDialog@@8 DD 00H					; CDialog::`RTTI Class Hierarchy Descriptor'
	DD	00H
	DD	04H
	DD	FLAT:??_R2CDialog@@8
rdata$r	ENDS
;	COMDAT ??_R0?AVCDialog@@@8
data$rs	SEGMENT
??_R0?AVCDialog@@@8 DD FLAT:??_7type_info@@6B@		; CDialog `RTTI Type Descriptor'
	DD	00H
	DB	'.?AVCDialog@@', 00H
data$rs	ENDS
;	COMDAT ??_R1A@?0A@EA@CDialog@@8
rdata$r	SEGMENT
??_R1A@?0A@EA@CDialog@@8 DD FLAT:??_R0?AVCDialog@@@8	; CDialog::`RTTI Base Class Descriptor at (0,-1,0,64)'
	DD	03H
	DD	00H
	DD	0ffffffffH
	DD	00H
	DD	040H
	DD	FLAT:??_R3CDialog@@8
rdata$r	ENDS
;	COMDAT ??_R1A@?0A@EA@CButton@@8
rdata$r	SEGMENT
??_R1A@?0A@EA@CButton@@8 DD FLAT:??_R0?AVCButton@@@8	; CButton::`RTTI Base Class Descriptor at (0,-1,0,64)'
	DD	03H
	DD	00H
	DD	0ffffffffH
	DD	00H
	DD	040H
	DD	FLAT:??_R3CButton@@8
rdata$r	ENDS
;	COMDAT ??_R2CButton@@8
rdata$r	SEGMENT
??_R2CButton@@8 DD FLAT:??_R1A@?0A@EA@CButton@@8	; CButton::`RTTI Base Class Array'
	DD	FLAT:??_R1A@?0A@EA@CWnd@@8
	DD	FLAT:??_R1A@?0A@EA@CCmdTarget@@8
	DD	FLAT:??_R1A@?0A@EA@CObject@@8
rdata$r	ENDS
;	COMDAT ??_R3CButton@@8
rdata$r	SEGMENT
??_R3CButton@@8 DD 00H					; CButton::`RTTI Class Hierarchy Descriptor'
	DD	00H
	DD	04H
	DD	FLAT:??_R2CButton@@8
rdata$r	ENDS
;	COMDAT ??_R0?AVCButton@@@8
data$rs	SEGMENT
??_R0?AVCButton@@@8 DD FLAT:??_7type_info@@6B@		; CButton `RTTI Type Descriptor'
	DD	00H
	DB	'.?AVCButton@@', 00H
data$rs	ENDS
;	COMDAT ??_R4CButton@@6B@
rdata$r	SEGMENT
??_R4CButton@@6B@ DD 00H				; CButton::`RTTI Complete Object Locator'
	DD	00H
	DD	00H
	DD	FLAT:??_R0?AVCButton@@@8
	DD	FLAT:??_R3CButton@@8
rdata$r	ENDS
;	COMDAT ??_R2CCmdTarget@@8
rdata$r	SEGMENT
??_R2CCmdTarget@@8 DD FLAT:??_R1A@?0A@EA@CCmdTarget@@8	; CCmdTarget::`RTTI Base Class Array'
	DD	FLAT:??_R1A@?0A@EA@CObject@@8
rdata$r	ENDS
;	COMDAT ??_R3CCmdTarget@@8
rdata$r	SEGMENT
??_R3CCmdTarget@@8 DD 00H				; CCmdTarget::`RTTI Class Hierarchy Descriptor'
	DD	00H
	DD	02H
	DD	FLAT:??_R2CCmdTarget@@8
rdata$r	ENDS
;	COMDAT ??_R0?AVCCmdTarget@@@8
data$rs	SEGMENT
??_R0?AVCCmdTarget@@@8 DD FLAT:??_7type_info@@6B@	; CCmdTarget `RTTI Type Descriptor'
	DD	00H
	DB	'.?AVCCmdTarget@@', 00H
data$rs	ENDS
;	COMDAT ??_R1A@?0A@EA@CCmdTarget@@8
rdata$r	SEGMENT
??_R1A@?0A@EA@CCmdTarget@@8 DD FLAT:??_R0?AVCCmdTarget@@@8 ; CCmdTarget::`RTTI Base Class Descriptor at (0,-1,0,64)'
	DD	01H
	DD	00H
	DD	0ffffffffH
	DD	00H
	DD	040H
	DD	FLAT:??_R3CCmdTarget@@8
rdata$r	ENDS
;	COMDAT ??_R2CWnd@@8
rdata$r	SEGMENT
??_R2CWnd@@8 DD	FLAT:??_R1A@?0A@EA@CWnd@@8		; CWnd::`RTTI Base Class Array'
	DD	FLAT:??_R1A@?0A@EA@CCmdTarget@@8
	DD	FLAT:??_R1A@?0A@EA@CObject@@8
rdata$r	ENDS
;	COMDAT ??_R3CWnd@@8
rdata$r	SEGMENT
??_R3CWnd@@8 DD	00H					; CWnd::`RTTI Class Hierarchy Descriptor'
	DD	00H
	DD	03H
	DD	FLAT:??_R2CWnd@@8
rdata$r	ENDS
;	COMDAT ??_R0?AVCWnd@@@8
data$rs	SEGMENT
??_R0?AVCWnd@@@8 DD FLAT:??_7type_info@@6B@		; CWnd `RTTI Type Descriptor'
	DD	00H
	DB	'.?AVCWnd@@', 00H
data$rs	ENDS
;	COMDAT ??_R1A@?0A@EA@CWnd@@8
rdata$r	SEGMENT
??_R1A@?0A@EA@CWnd@@8 DD FLAT:??_R0?AVCWnd@@@8		; CWnd::`RTTI Base Class Descriptor at (0,-1,0,64)'
	DD	02H
	DD	00H
	DD	0ffffffffH
	DD	00H
	DD	040H
	DD	FLAT:??_R3CWnd@@8
rdata$r	ENDS
;	COMDAT ??_R1A@?0A@EA@CBitmap@@8
rdata$r	SEGMENT
??_R1A@?0A@EA@CBitmap@@8 DD FLAT:??_R0?AVCBitmap@@@8	; CBitmap::`RTTI Base Class Descriptor at (0,-1,0,64)'
	DD	02H
	DD	00H
	DD	0ffffffffH
	DD	00H
	DD	040H
	DD	FLAT:??_R3CBitmap@@8
rdata$r	ENDS
;	COMDAT ??_R2CBitmap@@8
rdata$r	SEGMENT
??_R2CBitmap@@8 DD FLAT:??_R1A@?0A@EA@CBitmap@@8	; CBitmap::`RTTI Base Class Array'
	DD	FLAT:??_R1A@?0A@EA@CGdiObject@@8
	DD	FLAT:??_R1A@?0A@EA@CObject@@8
rdata$r	ENDS
;	COMDAT ??_R3CBitmap@@8
rdata$r	SEGMENT
??_R3CBitmap@@8 DD 00H					; CBitmap::`RTTI Class Hierarchy Descriptor'
	DD	00H
	DD	03H
	DD	FLAT:??_R2CBitmap@@8
rdata$r	ENDS
;	COMDAT ??_R0?AVCBitmap@@@8
data$rs	SEGMENT
??_R0?AVCBitmap@@@8 DD FLAT:??_7type_info@@6B@		; CBitmap `RTTI Type Descriptor'
	DD	00H
	DB	'.?AVCBitmap@@', 00H
data$rs	ENDS
;	COMDAT ??_R4CBitmap@@6B@
rdata$r	SEGMENT
??_R4CBitmap@@6B@ DD 00H				; CBitmap::`RTTI Complete Object Locator'
	DD	00H
	DD	00H
	DD	FLAT:??_R0?AVCBitmap@@@8
	DD	FLAT:??_R3CBitmap@@8
rdata$r	ENDS
;	COMDAT ??_R1A@?0A@EA@CFont@@8
rdata$r	SEGMENT
??_R1A@?0A@EA@CFont@@8 DD FLAT:??_R0?AVCFont@@@8	; CFont::`RTTI Base Class Descriptor at (0,-1,0,64)'
	DD	02H
	DD	00H
	DD	0ffffffffH
	DD	00H
	DD	040H
	DD	FLAT:??_R3CFont@@8
rdata$r	ENDS
;	COMDAT ??_R2CFont@@8
rdata$r	SEGMENT
??_R2CFont@@8 DD FLAT:??_R1A@?0A@EA@CFont@@8		; CFont::`RTTI Base Class Array'
	DD	FLAT:??_R1A@?0A@EA@CGdiObject@@8
	DD	FLAT:??_R1A@?0A@EA@CObject@@8
rdata$r	ENDS
;	COMDAT ??_R3CFont@@8
rdata$r	SEGMENT
??_R3CFont@@8 DD 00H					; CFont::`RTTI Class Hierarchy Descriptor'
	DD	00H
	DD	03H
	DD	FLAT:??_R2CFont@@8
rdata$r	ENDS
;	COMDAT ??_R0?AVCFont@@@8
data$rs	SEGMENT
??_R0?AVCFont@@@8 DD FLAT:??_7type_info@@6B@		; CFont `RTTI Type Descriptor'
	DD	00H
	DB	'.?AVCFont@@', 00H
data$rs	ENDS
;	COMDAT ??_R4CFont@@6B@
rdata$r	SEGMENT
??_R4CFont@@6B@ DD 00H					; CFont::`RTTI Complete Object Locator'
	DD	00H
	DD	00H
	DD	FLAT:??_R0?AVCFont@@@8
	DD	FLAT:??_R3CFont@@8
rdata$r	ENDS
;	COMDAT ??_R1A@?0A@EA@CGdiObject@@8
rdata$r	SEGMENT
??_R1A@?0A@EA@CGdiObject@@8 DD FLAT:??_R0?AVCGdiObject@@@8 ; CGdiObject::`RTTI Base Class Descriptor at (0,-1,0,64)'
	DD	01H
	DD	00H
	DD	0ffffffffH
	DD	00H
	DD	040H
	DD	FLAT:??_R3CGdiObject@@8
rdata$r	ENDS
;	COMDAT ??_R2CGdiObject@@8
rdata$r	SEGMENT
??_R2CGdiObject@@8 DD FLAT:??_R1A@?0A@EA@CGdiObject@@8	; CGdiObject::`RTTI Base Class Array'
	DD	FLAT:??_R1A@?0A@EA@CObject@@8
rdata$r	ENDS
;	COMDAT ??_R3CGdiObject@@8
rdata$r	SEGMENT
??_R3CGdiObject@@8 DD 00H				; CGdiObject::`RTTI Class Hierarchy Descriptor'
	DD	00H
	DD	02H
	DD	FLAT:??_R2CGdiObject@@8
rdata$r	ENDS
;	COMDAT ??_R0?AVCGdiObject@@@8
data$rs	SEGMENT
??_R0?AVCGdiObject@@@8 DD FLAT:??_7type_info@@6B@	; CGdiObject `RTTI Type Descriptor'
	DD	00H
	DB	'.?AVCGdiObject@@', 00H
data$rs	ENDS
;	COMDAT ??_R4CGdiObject@@6B@
rdata$r	SEGMENT
??_R4CGdiObject@@6B@ DD 00H				; CGdiObject::`RTTI Complete Object Locator'
	DD	00H
	DD	00H
	DD	FLAT:??_R0?AVCGdiObject@@@8
	DD	FLAT:??_R3CGdiObject@@8
rdata$r	ENDS
;	COMDAT ??_R1A@?0A@EA@CObject@@8
rdata$r	SEGMENT
??_R1A@?0A@EA@CObject@@8 DD FLAT:??_R0?AVCObject@@@8	; CObject::`RTTI Base Class Descriptor at (0,-1,0,64)'
	DD	00H
	DD	00H
	DD	0ffffffffH
	DD	00H
	DD	040H
	DD	FLAT:??_R3CObject@@8
rdata$r	ENDS
;	COMDAT ??_R2CObject@@8
rdata$r	SEGMENT
??_R2CObject@@8 DD FLAT:??_R1A@?0A@EA@CObject@@8	; CObject::`RTTI Base Class Array'
rdata$r	ENDS
;	COMDAT ??_R3CObject@@8
rdata$r	SEGMENT
??_R3CObject@@8 DD 00H					; CObject::`RTTI Class Hierarchy Descriptor'
	DD	00H
	DD	01H
	DD	FLAT:??_R2CObject@@8
rdata$r	ENDS
;	COMDAT ??_R0?AVCObject@@@8
data$rs	SEGMENT
??_R0?AVCObject@@@8 DD FLAT:??_7type_info@@6B@		; CObject `RTTI Type Descriptor'
	DD	00H
	DB	'.?AVCObject@@', 00H
data$rs	ENDS
;	COMDAT ??_C@_01GBGANLPD@0@
CONST	SEGMENT
??_C@_01GBGANLPD@0@ DB '0', 00H				; `string'
CONST	ENDS
;	COMDAT ??_C@_02EMFKHFLK@?$CFX@
CONST	SEGMENT
??_C@_02EMFKHFLK@?$CFX@ DB '%X', 00H			; `string'
CONST	ENDS
;	COMDAT ??_C@_06NDLAHCHE@?$CFs?$CF08X@
CONST	SEGMENT
??_C@_06NDLAHCHE@?$CFs?$CF08X@ DB '%s%08X', 00H		; `string'
CONST	ENDS
;	COMDAT ??_C@_0P@IDMAJEGN@HANAROPCTRMAIN@
CONST	SEGMENT
??_C@_0P@IDMAJEGN@HANAROPCTRMAIN@ DB 'HANAROPCTRMAIN', 00H ; `string'
CONST	ENDS
;	COMDAT ??_C@_0M@CBBNGGHM@PcTrMng?4dll@
CONST	SEGMENT
??_C@_0M@CBBNGGHM@PcTrMng?4dll@ DB 'PcTrMng.dll', 00H	; `string'
CONST	ENDS
;	COMDAT ??_C@_02DKCKIIND@?$CFs@
CONST	SEGMENT
??_C@_02DKCKIIND@?$CFs@ DB '%s', 00H			; `string'
CONST	ENDS
;	COMDAT ??_C@_0N@OMEMOKLE@?$CFTs?5?$CI?$CFTs?3?$CFd?$CJ@
CONST	SEGMENT
??_C@_0N@OMEMOKLE@?$CFTs?5?$CI?$CFTs?3?$CFd?$CJ@ DB '%Ts (%Ts:%d)', 00H ; `string'
CONST	ENDS
;	COMDAT ??_C@_0BB@HBOOMJBF@?$CFTs?5?$CI?$CFTs?3?$CFd?$CJ?6?$CFTs@
CONST	SEGMENT
??_C@_0BB@HBOOMJBF@?$CFTs?5?$CI?$CFTs?3?$CFd?$CJ?6?$CFTs@ DB '%Ts (%Ts:%d'
	DB	')', 0aH, '%Ts', 00H				; `string'
CONST	ENDS
;	COMDAT ??_C@_0BP@OIEOKIDM@Exception?5thrown?5in?5destructor@
CONST	SEGMENT
??_C@_0BP@OIEOKIDM@Exception?5thrown?5in?5destructor@ DB 'Exception throw'
	DB	'n in destructor', 00H			; `string'
CONST	ENDS
;	COMDAT ??_C@_0HD@JJCHHHNK@C?3?2Program?5Files?5?$CIx86?$CJ?2Microsof@
CONST	SEGMENT
??_C@_0HD@JJCHHHNK@C?3?2Program?5Files?5?$CIx86?$CJ?2Microsof@ DB 'C:\Pro'
	DB	'gram Files (x86)\Microsoft Visual Studio\2019\Community\VC\To'
	DB	'ols\MSVC\14.29.30133\atlmfc\include\afxwin1.inl', 00H ; `string'
CONST	ENDS
;	COMDAT ??_7CButton@@6B@
CONST	SEGMENT
??_7CButton@@6B@ DD FLAT:??_R4CButton@@6B@		; CButton::`vftable'
	DD	FLAT:?GetRuntimeClass@CButton@@UBEPAUCRuntimeClass@@XZ
	DD	FLAT:??_ECButton@@UAEPAXI@Z
	DD	FLAT:?Serialize@CObject@@UAEXAAVCArchive@@@Z
	DD	FLAT:?AssertValid@CObject@@UBEXXZ
	DD	FLAT:?Dump@CObject@@UBEXAAVCDumpContext@@@Z
	DD	FLAT:?OnCmdMsg@CCmdTarget@@UAEHIHPAXPAUAFX_CMDHANDLERINFO@@@Z
	DD	FLAT:?OnFinalRelease@CWnd@@UAEXXZ
	DD	FLAT:?IsInvokeAllowed@CCmdTarget@@UAEHJ@Z
	DD	FLAT:?GetDispatchIID@CCmdTarget@@UAEHPAU_GUID@@@Z
	DD	FLAT:?GetTypeInfoCount@CCmdTarget@@UAEIXZ
	DD	FLAT:?GetTypeLibCache@CCmdTarget@@UAEPAVCTypeLibCache@@XZ
	DD	FLAT:?GetTypeLib@CCmdTarget@@UAEJKPAPAUITypeLib@@@Z
	DD	FLAT:?GetMessageMap@CWnd@@MBEPBUAFX_MSGMAP@@XZ
	DD	FLAT:?GetCommandMap@CCmdTarget@@MBEPBUAFX_OLECMDMAP@@XZ
	DD	FLAT:?GetDispatchMap@CCmdTarget@@MBEPBUAFX_DISPMAP@@XZ
	DD	FLAT:?GetConnectionMap@CCmdTarget@@MBEPBUAFX_CONNECTIONMAP@@XZ
	DD	FLAT:?GetInterfaceMap@CWnd@@MBEPBUAFX_INTERFACEMAP@@XZ
	DD	FLAT:?GetEventSinkMap@CCmdTarget@@MBEPBUAFX_EVENTSINKMAP@@XZ
	DD	FLAT:?OnCreateAggregates@CCmdTarget@@UAEHXZ
	DD	FLAT:?GetInterfaceHook@CCmdTarget@@UAEPAUIUnknown@@PBX@Z
	DD	FLAT:?GetExtraConnectionPoints@CCmdTarget@@MAEHPAVCPtrArray@@@Z
	DD	FLAT:?GetConnectionHook@CCmdTarget@@MAEPAUIConnectionPoint@@ABU_GUID@@@Z
	DD	FLAT:?PreSubclassWindow@CWnd@@UAEXXZ
	DD	FLAT:?Create@CWnd@@UAEHPBD0KABUtagRECT@@PAV1@IPAUCCreateContext@@@Z
	DD	FLAT:?CreateEx@CWnd@@UAEHKPBD0KABUtagRECT@@PAV1@IPAX@Z
	DD	FLAT:?CreateEx@CWnd@@UAEHKPBD0KHHHHPAUHWND__@@PAUHMENU__@@PAX@Z
	DD	FLAT:?DestroyWindow@CWnd@@UAEHXZ
	DD	FLAT:?PreCreateWindow@CWnd@@UAEHAAUtagCREATESTRUCTA@@@Z
	DD	FLAT:?CalcWindowRect@CWnd@@UAEXPAUtagRECT@@I@Z
	DD	FLAT:?GetMenu@CWnd@@UBEPAVCMenu@@XZ
	DD	FLAT:?SetMenu@CWnd@@UAEHPAVCMenu@@@Z
	DD	FLAT:?OnToolHitTest@CWnd@@UBEHVCPoint@@PAUtagTOOLINFOA@@@Z
	DD	FLAT:?GetScrollBarCtrl@CWnd@@UBEPAVCScrollBar@@H@Z
	DD	FLAT:?WinHelpA@CWnd@@UAEXKI@Z
	DD	FLAT:?HtmlHelpA@CWnd@@UAEXKI@Z
	DD	FLAT:?WinHelpInternal@CWnd@@UAEXKI@Z
	DD	FLAT:?ContinueModal@CWnd@@UAEHXZ
	DD	FLAT:?EndModalLoop@CWnd@@UAEXH@Z
	DD	FLAT:?OnDrawIconicThumbnailOrLivePreview@CWnd@@UAEXAAVCDC@@VCRect@@VCSize@@HAAH@Z
	DD	FLAT:?EnsureStdObj@CWnd@@UAEJXZ
	DD	FLAT:?get_accParent@CWnd@@UAEJPAPAUIDispatch@@@Z
	DD	FLAT:?get_accChildCount@CWnd@@UAEJPAJ@Z
	DD	FLAT:?get_accChild@CWnd@@UAEJUtagVARIANT@@PAPAUIDispatch@@@Z
	DD	FLAT:?get_accName@CWnd@@UAEJUtagVARIANT@@PAPA_W@Z
	DD	FLAT:?get_accValue@CWnd@@UAEJUtagVARIANT@@PAPA_W@Z
	DD	FLAT:?get_accDescription@CWnd@@UAEJUtagVARIANT@@PAPA_W@Z
	DD	FLAT:?get_accRole@CWnd@@UAEJUtagVARIANT@@PAU2@@Z
	DD	FLAT:?get_accState@CWnd@@UAEJUtagVARIANT@@PAU2@@Z
	DD	FLAT:?get_accHelp@CWnd@@UAEJUtagVARIANT@@PAPA_W@Z
	DD	FLAT:?get_accHelpTopic@CWnd@@UAEJPAPA_WUtagVARIANT@@PAJ@Z
	DD	FLAT:?get_accKeyboardShortcut@CWnd@@UAEJUtagVARIANT@@PAPA_W@Z
	DD	FLAT:?get_accFocus@CWnd@@UAEJPAUtagVARIANT@@@Z
	DD	FLAT:?get_accSelection@CWnd@@UAEJPAUtagVARIANT@@@Z
	DD	FLAT:?get_accDefaultAction@CWnd@@UAEJUtagVARIANT@@PAPA_W@Z
	DD	FLAT:?accSelect@CWnd@@UAEJJUtagVARIANT@@@Z
	DD	FLAT:?accLocation@CWnd@@UAEJPAJ000UtagVARIANT@@@Z
	DD	FLAT:?accNavigate@CWnd@@UAEJJUtagVARIANT@@PAU2@@Z
	DD	FLAT:?accHitTest@CWnd@@UAEJJJPAUtagVARIANT@@@Z
	DD	FLAT:?accDoDefaultAction@CWnd@@UAEJUtagVARIANT@@@Z
	DD	FLAT:?put_accName@CWnd@@UAEJUtagVARIANT@@PA_W@Z
	DD	FLAT:?put_accValue@CWnd@@UAEJUtagVARIANT@@PA_W@Z
	DD	FLAT:?SetProxy@CWnd@@UAEJPAUIAccessibleProxy@@@Z
	DD	FLAT:?CreateAccessibleProxy@CWnd@@UAEJIJPAJ@Z
	DD	FLAT:?OnCommand@CWnd@@MAEHIJ@Z
	DD	FLAT:?OnNotify@CWnd@@MAEHIJPAJ@Z
	DD	FLAT:?GetSuperWndProcAddr@CWnd@@MAEPAP6GJPAUHWND__@@IIJ@ZXZ
	DD	FLAT:?DoDataExchange@CWnd@@MAEXPAVCDataExchange@@@Z
	DD	FLAT:?BeginModalState@CWnd@@UAEXXZ
	DD	FLAT:?EndModalState@CWnd@@UAEXXZ
	DD	FLAT:?PreTranslateMessage@CWnd@@UAEHPAUtagMSG@@@Z
	DD	FLAT:?OnAmbientProperty@CWnd@@UAEHPAVCOleControlSite@@JPAUtagVARIANT@@@Z
	DD	FLAT:?WindowProc@CWnd@@MAEJIIJ@Z
	DD	FLAT:?OnWndMsg@CWnd@@MAEHIIJPAJ@Z
	DD	FLAT:?DefWindowProcA@CWnd@@MAEJIIJ@Z
	DD	FLAT:?PostNcDestroy@CWnd@@MAEXXZ
	DD	FLAT:?OnChildNotify@CButton@@MAEHIIJPAJ@Z
	DD	FLAT:?OnTouchInputs@CWnd@@MAEHIPAUtagTOUCHINPUT@@@Z
	DD	FLAT:?OnTouchInput@CWnd@@MAEHVCPoint@@HHPAUtagTOUCHINPUT@@@Z
	DD	FLAT:?GetGestureStatus@CWnd@@MAEKVCPoint@@@Z
	DD	FLAT:?OnGestureZoom@CWnd@@MAEHVCPoint@@J@Z
	DD	FLAT:?OnGesturePan@CWnd@@MAEHVCPoint@@0@Z
	DD	FLAT:?OnGestureRotate@CWnd@@MAEHVCPoint@@N@Z
	DD	FLAT:?OnGestureTwoFingerTap@CWnd@@MAEHVCPoint@@@Z
	DD	FLAT:?OnGesturePressAndTap@CWnd@@MAEHVCPoint@@J@Z
	DD	FLAT:?ResizeDynamicLayout@CWnd@@MAEXXZ
	DD	FLAT:?CheckAutoCenter@CWnd@@UAEHXZ
	DD	FLAT:?IsFrameWnd@CWnd@@UBEHXZ
	DD	FLAT:?CreateControlContainer@CWnd@@MAEHPAPAVCOleControlContainer@@@Z
	DD	FLAT:?CreateControlSite@CWnd@@MAEHPAVCOleControlContainer@@PAPAVCOleControlSite@@IABU_GUID@@@Z
	DD	FLAT:?SetOccDialogInfo@CWnd@@MAEHPAU_AFX_OCC_DIALOG_INFO@@@Z
	DD	FLAT:?GetOccDialogInfo@CWnd@@MAEPAU_AFX_OCC_DIALOG_INFO@@XZ
	DD	FLAT:?Create@CButton@@UAEHPBDKABUtagRECT@@PAVCWnd@@I@Z
	DD	FLAT:?DrawItem@CButton@@UAEXPAUtagDRAWITEMSTRUCT@@@Z
CONST	ENDS
;	COMDAT ??_7CBitmap@@6B@
CONST	SEGMENT
??_7CBitmap@@6B@ DD FLAT:??_R4CBitmap@@6B@		; CBitmap::`vftable'
	DD	FLAT:?GetRuntimeClass@CBitmap@@UBEPAUCRuntimeClass@@XZ
	DD	FLAT:??_ECBitmap@@UAEPAXI@Z
	DD	FLAT:?Serialize@CObject@@UAEXAAVCArchive@@@Z
	DD	FLAT:?AssertValid@CObject@@UBEXXZ
	DD	FLAT:?Dump@CObject@@UBEXAAVCDumpContext@@@Z
CONST	ENDS
;	COMDAT ??_7CFont@@6B@
CONST	SEGMENT
??_7CFont@@6B@ DD FLAT:??_R4CFont@@6B@			; CFont::`vftable'
	DD	FLAT:?GetRuntimeClass@CFont@@UBEPAUCRuntimeClass@@XZ
	DD	FLAT:??_ECFont@@UAEPAXI@Z
	DD	FLAT:?Serialize@CObject@@UAEXAAVCArchive@@@Z
	DD	FLAT:?AssertValid@CObject@@UBEXXZ
	DD	FLAT:?Dump@CObject@@UBEXAAVCDumpContext@@@Z
CONST	ENDS
;	COMDAT ??_7CGdiObject@@6B@
CONST	SEGMENT
??_7CGdiObject@@6B@ DD FLAT:??_R4CGdiObject@@6B@	; CGdiObject::`vftable'
	DD	FLAT:?GetRuntimeClass@CGdiObject@@UBEPAUCRuntimeClass@@XZ
	DD	FLAT:??_ECGdiObject@@UAEPAXI@Z
	DD	FLAT:?Serialize@CObject@@UAEXAAVCArchive@@@Z
	DD	FLAT:?AssertValid@CObject@@UBEXXZ
	DD	FLAT:?Dump@CObject@@UBEXAAVCDumpContext@@@Z
CONST	ENDS
;	COMDAT ??_C@_00CNPNBAHC@@
CONST	SEGMENT
??_C@_00CNPNBAHC@@ DB 00H				; `string'
CONST	ENDS
;	COMDAT ??_C@_02DPKJAMEF@?$CFd@
CONST	SEGMENT
??_C@_02DPKJAMEF@?$CFd@ DB '%d', 00H			; `string'
CONST	ENDS
;	COMDAT ??_R0PAVCException@@@8
data$r	SEGMENT
??_R0PAVCException@@@8 DD FLAT:??_7type_info@@6B@	; CException * `RTTI Type Descriptor'
	DD	00H
	DB	'.PAVCException@@', 00H
data$r	ENDS
;	COMDAT xdata$x
xdata$x	SEGMENT
__unwindtable$?OnPaint@CFloatingHogaDlg@@IAEXXZ DD 0ffffffffH
	DD	FLAT:__unwindfunclet$?OnPaint@CFloatingHogaDlg@@IAEXXZ$0
	DD	00H
	DD	FLAT:__unwindfunclet$?OnPaint@CFloatingHogaDlg@@IAEXXZ$1
	DD	01H
	DD	FLAT:__unwindfunclet$?OnPaint@CFloatingHogaDlg@@IAEXXZ$2
__ehfuncinfo$?OnPaint@CFloatingHogaDlg@@IAEXXZ DD 019930522H
	DD	03H
	DD	FLAT:__unwindtable$?OnPaint@CFloatingHogaDlg@@IAEXXZ
	DD	2 DUP(00H)
	DD	2 DUP(00H)
	DD	00H
	DD	01H
xdata$x	ENDS
;	COMDAT xdata$x
xdata$x	SEGMENT
__unwindtable$?OnInitDialog@CFloatingHogaDlg@@MAEHXZ DD 0ffffffffH
	DD	FLAT:__unwindfunclet$?OnInitDialog@CFloatingHogaDlg@@MAEHXZ$0
	DD	0ffffffffH
	DD	FLAT:__unwindfunclet$?OnInitDialog@CFloatingHogaDlg@@MAEHXZ$1
__ehfuncinfo$?OnInitDialog@CFloatingHogaDlg@@MAEHXZ DD 019930522H
	DD	02H
	DD	FLAT:__unwindtable$?OnInitDialog@CFloatingHogaDlg@@MAEHXZ
	DD	2 DUP(00H)
	DD	2 DUP(00H)
	DD	00H
	DD	01H
xdata$x	ENDS
;	COMDAT xdata$x
xdata$x	SEGMENT
__unwindtable$?InitGridFormat@CFloatingHogaDlg@@QAEXXZ DD 0ffffffffH
	DD	FLAT:__unwindfunclet$?InitGridFormat@CFloatingHogaDlg@@QAEXXZ$0
__ehfuncinfo$?InitGridFormat@CFloatingHogaDlg@@QAEXXZ DD 019930522H
	DD	01H
	DD	FLAT:__unwindtable$?InitGridFormat@CFloatingHogaDlg@@QAEXXZ
	DD	2 DUP(00H)
	DD	2 DUP(00H)
	DD	00H
	DD	01H
xdata$x	ENDS
;	COMDAT xdata$x
xdata$x	SEGMENT
__catchsym$?InitGridRowCol@CFloatingHogaDlg@@QAEXXZ$2 DD 00H
	DD	FLAT:??_R0PAVCMemoryException@@@8
	DD	0ffffffecH
	DD	FLAT:__catch$?InitGridRowCol@CFloatingHogaDlg@@QAEXXZ$0
__unwindtable$?InitGridRowCol@CFloatingHogaDlg@@QAEXXZ DD 0ffffffffH
	DD	00H
	DD	0ffffffffH
	DD	00H
__tryblocktable$?InitGridRowCol@CFloatingHogaDlg@@QAEXXZ DD 00H
	DD	00H
	DD	01H
	DD	01H
	DD	FLAT:__catchsym$?InitGridRowCol@CFloatingHogaDlg@@QAEXXZ$2
__ehfuncinfo$?InitGridRowCol@CFloatingHogaDlg@@QAEXXZ DD 019930522H
	DD	02H
	DD	FLAT:__unwindtable$?InitGridRowCol@CFloatingHogaDlg@@QAEXXZ
	DD	01H
	DD	FLAT:__tryblocktable$?InitGridRowCol@CFloatingHogaDlg@@QAEXXZ
	DD	2 DUP(00H)
	DD	00H
	DD	01H
xdata$x	ENDS
;	COMDAT xdata$x
xdata$x	SEGMENT
__unwindtable$?InitGrid@CFloatingHogaDlg@@QAEXXZ DD 0ffffffffH
	DD	FLAT:__unwindfunclet$?InitGrid@CFloatingHogaDlg@@QAEXXZ$0
	DD	00H
	DD	FLAT:__unwindfunclet$?InitGrid@CFloatingHogaDlg@@QAEXXZ$1
__ehfuncinfo$?InitGrid@CFloatingHogaDlg@@QAEXXZ DD 019930522H
	DD	02H
	DD	FLAT:__unwindtable$?InitGrid@CFloatingHogaDlg@@QAEXXZ
	DD	2 DUP(00H)
	DD	2 DUP(00H)
	DD	00H
	DD	01H
xdata$x	ENDS
;	COMDAT xdata$x
xdata$x	SEGMENT
__unwindtable$?CompareNUpdateHogaData@CFloatingHogaDlg@@QAEXHHV?$CStringT@DV?$StrTraitMFC_DLL@DV?$ChTraitsCRT@D@ATL@@@@@ATL@@HK@Z DD 0ffffffffH
	DD	FLAT:__unwindfunclet$?CompareNUpdateHogaData@CFloatingHogaDlg@@QAEXHHV?$CStringT@DV?$StrTraitMFC_DLL@DV?$ChTraitsCRT@D@ATL@@@@@ATL@@HK@Z$0
	DD	00H
	DD	FLAT:__unwindfunclet$?CompareNUpdateHogaData@CFloatingHogaDlg@@QAEXHHV?$CStringT@DV?$StrTraitMFC_DLL@DV?$ChTraitsCRT@D@ATL@@@@@ATL@@HK@Z$1
__ehfuncinfo$?CompareNUpdateHogaData@CFloatingHogaDlg@@QAEXHHV?$CStringT@DV?$StrTraitMFC_DLL@DV?$ChTraitsCRT@D@ATL@@@@@ATL@@HK@Z DD 019930522H
	DD	02H
	DD	FLAT:__unwindtable$?CompareNUpdateHogaData@CFloatingHogaDlg@@QAEXHHV?$CStringT@DV?$StrTraitMFC_DLL@DV?$ChTraitsCRT@D@ATL@@@@@ATL@@HK@Z
	DD	2 DUP(00H)
	DD	2 DUP(00H)
	DD	00H
	DD	01H
xdata$x	ENDS
;	COMDAT xdata$x
xdata$x	SEGMENT
__ehfuncinfo$?SetHogaData_Sub@CFloatingHogaDlg@@QAEXV?$CStringT@DV?$StrTraitMFC_DLL@DV?$ChTraitsCRT@D@ATL@@@@@ATL@@00H@Z DD 019930522H
	DD	0aH
	DD	FLAT:__unwindtable$?SetHogaData_Sub@CFloatingHogaDlg@@QAEXV?$CStringT@DV?$StrTraitMFC_DLL@DV?$ChTraitsCRT@D@ATL@@@@@ATL@@00H@Z
	DD	2 DUP(00H)
	DD	2 DUP(00H)
	DD	00H
	DD	01H
__unwindtable$?SetHogaData_Sub@CFloatingHogaDlg@@QAEXV?$CStringT@DV?$StrTraitMFC_DLL@DV?$ChTraitsCRT@D@ATL@@@@@ATL@@00H@Z DD 0ffffffffH
	DD	FLAT:__unwindfunclet$?SetHogaData_Sub@CFloatingHogaDlg@@QAEXV?$CStringT@DV?$StrTraitMFC_DLL@DV?$ChTraitsCRT@D@ATL@@@@@ATL@@00H@Z$0
	DD	00H
	DD	FLAT:__unwindfunclet$?SetHogaData_Sub@CFloatingHogaDlg@@QAEXV?$CStringT@DV?$StrTraitMFC_DLL@DV?$ChTraitsCRT@D@ATL@@@@@ATL@@00H@Z$1
	DD	01H
	DD	FLAT:__unwindfunclet$?SetHogaData_Sub@CFloatingHogaDlg@@QAEXV?$CStringT@DV?$StrTraitMFC_DLL@DV?$ChTraitsCRT@D@ATL@@@@@ATL@@00H@Z$2
	DD	02H
	DD	FLAT:__unwindfunclet$?SetHogaData_Sub@CFloatingHogaDlg@@QAEXV?$CStringT@DV?$StrTraitMFC_DLL@DV?$ChTraitsCRT@D@ATL@@@@@ATL@@00H@Z$3
	DD	03H
	DD	FLAT:__unwindfunclet$?SetHogaData_Sub@CFloatingHogaDlg@@QAEXV?$CStringT@DV?$StrTraitMFC_DLL@DV?$ChTraitsCRT@D@ATL@@@@@ATL@@00H@Z$4
	DD	03H
	DD	FLAT:__unwindfunclet$?SetHogaData_Sub@CFloatingHogaDlg@@QAEXV?$CStringT@DV?$StrTraitMFC_DLL@DV?$ChTraitsCRT@D@ATL@@@@@ATL@@00H@Z$5
	DD	03H
	DD	FLAT:__unwindfunclet$?SetHogaData_Sub@CFloatingHogaDlg@@QAEXV?$CStringT@DV?$StrTraitMFC_DLL@DV?$ChTraitsCRT@D@ATL@@@@@ATL@@00H@Z$6
	DD	06H
	DD	FLAT:__unwindfunclet$?SetHogaData_Sub@CFloatingHogaDlg@@QAEXV?$CStringT@DV?$StrTraitMFC_DLL@DV?$ChTraitsCRT@D@ATL@@@@@ATL@@00H@Z$7
	DD	03H
	DD	FLAT:__unwindfunclet$?SetHogaData_Sub@CFloatingHogaDlg@@QAEXV?$CStringT@DV?$StrTraitMFC_DLL@DV?$ChTraitsCRT@D@ATL@@@@@ATL@@00H@Z$9
	DD	08H
	DD	FLAT:__unwindfunclet$?SetHogaData_Sub@CFloatingHogaDlg@@QAEXV?$CStringT@DV?$StrTraitMFC_DLL@DV?$ChTraitsCRT@D@ATL@@@@@ATL@@00H@Z$10
xdata$x	ENDS
;	COMDAT xdata$x
xdata$x	SEGMENT
__ehfuncinfo$?SetHogaData@CFloatingHogaDlg@@QAEXPADHH@Z DD 019930522H
	DD	040H
	DD	FLAT:__unwindtable$?SetHogaData@CFloatingHogaDlg@@QAEXPADHH@Z
	DD	2 DUP(00H)
	DD	2 DUP(00H)
	DD	00H
	DD	01H
__unwindtable$?SetHogaData@CFloatingHogaDlg@@QAEXPADHH@Z DD 0ffffffffH
	DD	FLAT:__unwindfunclet$?SetHogaData@CFloatingHogaDlg@@QAEXPADHH@Z$0
	DD	00H
	DD	FLAT:__unwindfunclet$?SetHogaData@CFloatingHogaDlg@@QAEXPADHH@Z$1
	DD	01H
	DD	FLAT:__unwindfunclet$?SetHogaData@CFloatingHogaDlg@@QAEXPADHH@Z$2
	DD	02H
	DD	FLAT:__unwindfunclet$?SetHogaData@CFloatingHogaDlg@@QAEXPADHH@Z$3
	DD	03H
	DD	FLAT:__unwindfunclet$?SetHogaData@CFloatingHogaDlg@@QAEXPADHH@Z$4
	DD	04H
	DD	FLAT:__unwindfunclet$?SetHogaData@CFloatingHogaDlg@@QAEXPADHH@Z$5
	DD	05H
	DD	FLAT:__unwindfunclet$?SetHogaData@CFloatingHogaDlg@@QAEXPADHH@Z$6
	DD	06H
	DD	FLAT:__unwindfunclet$?SetHogaData@CFloatingHogaDlg@@QAEXPADHH@Z$7
	DD	07H
	DD	FLAT:__unwindfunclet$?SetHogaData@CFloatingHogaDlg@@QAEXPADHH@Z$8
	DD	08H
	DD	FLAT:__unwindfunclet$?SetHogaData@CFloatingHogaDlg@@QAEXPADHH@Z$9
	DD	09H
	DD	FLAT:__unwindfunclet$?SetHogaData@CFloatingHogaDlg@@QAEXPADHH@Z$10
	DD	09H
	DD	FLAT:__unwindfunclet$?SetHogaData@CFloatingHogaDlg@@QAEXPADHH@Z$11
	DD	09H
	DD	FLAT:__unwindfunclet$?SetHogaData@CFloatingHogaDlg@@QAEXPADHH@Z$12
	DD	09H
	DD	FLAT:__unwindfunclet$?SetHogaData@CFloatingHogaDlg@@QAEXPADHH@Z$15
	DD	09H
	DD	FLAT:__unwindfunclet$?SetHogaData@CFloatingHogaDlg@@QAEXPADHH@Z$18
	DD	0eH
	DD	FLAT:__unwindfunclet$?SetHogaData@CFloatingHogaDlg@@QAEXPADHH@Z$19
	DD	09H
	DD	FLAT:__unwindfunclet$?SetHogaData@CFloatingHogaDlg@@QAEXPADHH@Z$21
	DD	010H
	DD	FLAT:__unwindfunclet$?SetHogaData@CFloatingHogaDlg@@QAEXPADHH@Z$22
	DD	09H
	DD	FLAT:__unwindfunclet$?SetHogaData@CFloatingHogaDlg@@QAEXPADHH@Z$24
	DD	012H
	DD	FLAT:__unwindfunclet$?SetHogaData@CFloatingHogaDlg@@QAEXPADHH@Z$25
	DD	09H
	DD	FLAT:__unwindfunclet$?SetHogaData@CFloatingHogaDlg@@QAEXPADHH@Z$27
	DD	014H
	DD	FLAT:__unwindfunclet$?SetHogaData@CFloatingHogaDlg@@QAEXPADHH@Z$28
	DD	09H
	DD	FLAT:__unwindfunclet$?SetHogaData@CFloatingHogaDlg@@QAEXPADHH@Z$30
	DD	016H
	DD	FLAT:__unwindfunclet$?SetHogaData@CFloatingHogaDlg@@QAEXPADHH@Z$31
	DD	09H
	DD	FLAT:__unwindfunclet$?SetHogaData@CFloatingHogaDlg@@QAEXPADHH@Z$33
	DD	018H
	DD	FLAT:__unwindfunclet$?SetHogaData@CFloatingHogaDlg@@QAEXPADHH@Z$34
	DD	09H
	DD	FLAT:__unwindfunclet$?SetHogaData@CFloatingHogaDlg@@QAEXPADHH@Z$36
	DD	01aH
	DD	FLAT:__unwindfunclet$?SetHogaData@CFloatingHogaDlg@@QAEXPADHH@Z$37
	DD	09H
	DD	FLAT:__unwindfunclet$?SetHogaData@CFloatingHogaDlg@@QAEXPADHH@Z$39
	DD	01cH
	DD	FLAT:__unwindfunclet$?SetHogaData@CFloatingHogaDlg@@QAEXPADHH@Z$40
	DD	09H
	DD	FLAT:__unwindfunclet$?SetHogaData@CFloatingHogaDlg@@QAEXPADHH@Z$42
	DD	01eH
	DD	FLAT:__unwindfunclet$?SetHogaData@CFloatingHogaDlg@@QAEXPADHH@Z$43
	DD	09H
	DD	FLAT:__unwindfunclet$?SetHogaData@CFloatingHogaDlg@@QAEXPADHH@Z$45
	DD	020H
	DD	FLAT:__unwindfunclet$?SetHogaData@CFloatingHogaDlg@@QAEXPADHH@Z$46
	DD	09H
	DD	FLAT:__unwindfunclet$?SetHogaData@CFloatingHogaDlg@@QAEXPADHH@Z$48
	DD	09H
	DD	FLAT:__unwindfunclet$?SetHogaData@CFloatingHogaDlg@@QAEXPADHH@Z$50
	DD	09H
	DD	FLAT:__unwindfunclet$?SetHogaData@CFloatingHogaDlg@@QAEXPADHH@Z$52
	DD	09H
	DD	FLAT:__unwindfunclet$?SetHogaData@CFloatingHogaDlg@@QAEXPADHH@Z$54
	DD	09H
	DD	FLAT:__unwindfunclet$?SetHogaData@CFloatingHogaDlg@@QAEXPADHH@Z$56
	DD	09H
	DD	FLAT:__unwindfunclet$?SetHogaData@CFloatingHogaDlg@@QAEXPADHH@Z$58
	DD	09H
	DD	FLAT:__unwindfunclet$?SetHogaData@CFloatingHogaDlg@@QAEXPADHH@Z$60
	DD	09H
	DD	FLAT:__unwindfunclet$?SetHogaData@CFloatingHogaDlg@@QAEXPADHH@Z$61
	DD	09H
	DD	FLAT:__unwindfunclet$?SetHogaData@CFloatingHogaDlg@@QAEXPADHH@Z$62
	DD	09H
	DD	FLAT:__unwindfunclet$?SetHogaData@CFloatingHogaDlg@@QAEXPADHH@Z$63
	DD	09H
	DD	FLAT:__unwindfunclet$?SetHogaData@CFloatingHogaDlg@@QAEXPADHH@Z$64
	DD	02cH
	DD	FLAT:__unwindfunclet$?SetHogaData@CFloatingHogaDlg@@QAEXPADHH@Z$65
	DD	02dH
	DD	FLAT:__unwindfunclet$?SetHogaData@CFloatingHogaDlg@@QAEXPADHH@Z$66
	DD	02eH
	DD	FLAT:__unwindfunclet$?SetHogaData@CFloatingHogaDlg@@QAEXPADHH@Z$67
	DD	02fH
	DD	FLAT:__unwindfunclet$?SetHogaData@CFloatingHogaDlg@@QAEXPADHH@Z$68
	DD	030H
	DD	FLAT:__unwindfunclet$?SetHogaData@CFloatingHogaDlg@@QAEXPADHH@Z$69
	DD	030H
	DD	FLAT:__unwindfunclet$?SetHogaData@CFloatingHogaDlg@@QAEXPADHH@Z$70
	DD	030H
	DD	FLAT:__unwindfunclet$?SetHogaData@CFloatingHogaDlg@@QAEXPADHH@Z$89
	DD	033H
	DD	FLAT:__unwindfunclet$?SetHogaData@CFloatingHogaDlg@@QAEXPADHH@Z$90
	DD	030H
	DD	FLAT:__unwindfunclet$?SetHogaData@CFloatingHogaDlg@@QAEXPADHH@Z$91
	DD	030H
	DD	FLAT:__unwindfunclet$?SetHogaData@CFloatingHogaDlg@@QAEXPADHH@Z$74
	DD	030H
	DD	FLAT:__unwindfunclet$?SetHogaData@CFloatingHogaDlg@@QAEXPADHH@Z$75
	DD	030H
	DD	FLAT:__unwindfunclet$?SetHogaData@CFloatingHogaDlg@@QAEXPADHH@Z$76
	DD	038H
	DD	FLAT:__unwindfunclet$?SetHogaData@CFloatingHogaDlg@@QAEXPADHH@Z$77
	DD	039H
	DD	FLAT:__unwindfunclet$?SetHogaData@CFloatingHogaDlg@@QAEXPADHH@Z$78
	DD	03aH
	DD	FLAT:__unwindfunclet$?SetHogaData@CFloatingHogaDlg@@QAEXPADHH@Z$79
	DD	03bH
	DD	FLAT:__unwindfunclet$?SetHogaData@CFloatingHogaDlg@@QAEXPADHH@Z$80
	DD	03bH
	DD	FLAT:__unwindfunclet$?SetHogaData@CFloatingHogaDlg@@QAEXPADHH@Z$81
	DD	03dH
	DD	FLAT:__unwindfunclet$?SetHogaData@CFloatingHogaDlg@@QAEXPADHH@Z$92
	DD	03bH
	DD	FLAT:__unwindfunclet$?SetHogaData@CFloatingHogaDlg@@QAEXPADHH@Z$88
xdata$x	ENDS
;	COMDAT xdata$x
xdata$x	SEGMENT
__unwindtable$?CheckRealHogaDataWithinHogaData@CFloatingHogaDlg@@QAEHV?$CStringT@DV?$StrTraitMFC_DLL@DV?$ChTraitsCRT@D@ATL@@@@@ATL@@PAH@Z DD 0ffffffffH
	DD	FLAT:__unwindfunclet$?CheckRealHogaDataWithinHogaData@CFloatingHogaDlg@@QAEHV?$CStringT@DV?$StrTraitMFC_DLL@DV?$ChTraitsCRT@D@ATL@@@@@ATL@@PAH@Z$0
	DD	00H
	DD	FLAT:__unwindfunclet$?CheckRealHogaDataWithinHogaData@CFloatingHogaDlg@@QAEHV?$CStringT@DV?$StrTraitMFC_DLL@DV?$ChTraitsCRT@D@ATL@@@@@ATL@@PAH@Z$2
	DD	00H
	DD	FLAT:__unwindfunclet$?CheckRealHogaDataWithinHogaData@CFloatingHogaDlg@@QAEHV?$CStringT@DV?$StrTraitMFC_DLL@DV?$ChTraitsCRT@D@ATL@@@@@ATL@@PAH@Z$5
	DD	00H
	DD	FLAT:__unwindfunclet$?CheckRealHogaDataWithinHogaData@CFloatingHogaDlg@@QAEHV?$CStringT@DV?$StrTraitMFC_DLL@DV?$ChTraitsCRT@D@ATL@@@@@ATL@@PAH@Z$8
__ehfuncinfo$?CheckRealHogaDataWithinHogaData@CFloatingHogaDlg@@QAEHV?$CStringT@DV?$StrTraitMFC_DLL@DV?$ChTraitsCRT@D@ATL@@@@@ATL@@PAH@Z DD 019930522H
	DD	04H
	DD	FLAT:__unwindtable$?CheckRealHogaDataWithinHogaData@CFloatingHogaDlg@@QAEHV?$CStringT@DV?$StrTraitMFC_DLL@DV?$ChTraitsCRT@D@ATL@@@@@ATL@@PAH@Z
	DD	2 DUP(00H)
	DD	2 DUP(00H)
	DD	00H
	DD	01H
xdata$x	ENDS
;	COMDAT xdata$x
xdata$x	SEGMENT
__unwindtable$?SetRealHogaData_Rem@CFloatingHogaDlg@@QAEXV?$CStringT@DV?$StrTraitMFC_DLL@DV?$ChTraitsCRT@D@ATL@@@@@ATL@@H@Z DD 0ffffffffH
	DD	FLAT:__unwindfunclet$?SetRealHogaData_Rem@CFloatingHogaDlg@@QAEXV?$CStringT@DV?$StrTraitMFC_DLL@DV?$ChTraitsCRT@D@ATL@@@@@ATL@@H@Z$0
	DD	00H
	DD	FLAT:__unwindfunclet$?SetRealHogaData_Rem@CFloatingHogaDlg@@QAEXV?$CStringT@DV?$StrTraitMFC_DLL@DV?$ChTraitsCRT@D@ATL@@@@@ATL@@H@Z$1
	DD	01H
	DD	FLAT:__unwindfunclet$?SetRealHogaData_Rem@CFloatingHogaDlg@@QAEXV?$CStringT@DV?$StrTraitMFC_DLL@DV?$ChTraitsCRT@D@ATL@@@@@ATL@@H@Z$2
__ehfuncinfo$?SetRealHogaData_Rem@CFloatingHogaDlg@@QAEXV?$CStringT@DV?$StrTraitMFC_DLL@DV?$ChTraitsCRT@D@ATL@@@@@ATL@@H@Z DD 019930522H
	DD	03H
	DD	FLAT:__unwindtable$?SetRealHogaData_Rem@CFloatingHogaDlg@@QAEXV?$CStringT@DV?$StrTraitMFC_DLL@DV?$ChTraitsCRT@D@ATL@@@@@ATL@@H@Z
	DD	2 DUP(00H)
	DD	2 DUP(00H)
	DD	00H
	DD	01H
xdata$x	ENDS
;	COMDAT xdata$x
xdata$x	SEGMENT
__ehfuncinfo$?SetRealHogaData_Sub@CFloatingHogaDlg@@QAEXV?$CStringT@DV?$StrTraitMFC_DLL@DV?$ChTraitsCRT@D@ATL@@@@@ATL@@0H@Z DD 019930522H
	DD	09H
	DD	FLAT:__unwindtable$?SetRealHogaData_Sub@CFloatingHogaDlg@@QAEXV?$CStringT@DV?$StrTraitMFC_DLL@DV?$ChTraitsCRT@D@ATL@@@@@ATL@@0H@Z
	DD	2 DUP(00H)
	DD	2 DUP(00H)
	DD	00H
	DD	01H
__unwindtable$?SetRealHogaData_Sub@CFloatingHogaDlg@@QAEXV?$CStringT@DV?$StrTraitMFC_DLL@DV?$ChTraitsCRT@D@ATL@@@@@ATL@@0H@Z DD 0ffffffffH
	DD	FLAT:__unwindfunclet$?SetRealHogaData_Sub@CFloatingHogaDlg@@QAEXV?$CStringT@DV?$StrTraitMFC_DLL@DV?$ChTraitsCRT@D@ATL@@@@@ATL@@0H@Z$0
	DD	00H
	DD	FLAT:__unwindfunclet$?SetRealHogaData_Sub@CFloatingHogaDlg@@QAEXV?$CStringT@DV?$StrTraitMFC_DLL@DV?$ChTraitsCRT@D@ATL@@@@@ATL@@0H@Z$1
	DD	01H
	DD	FLAT:__unwindfunclet$?SetRealHogaData_Sub@CFloatingHogaDlg@@QAEXV?$CStringT@DV?$StrTraitMFC_DLL@DV?$ChTraitsCRT@D@ATL@@@@@ATL@@0H@Z$2
	DD	02H
	DD	FLAT:__unwindfunclet$?SetRealHogaData_Sub@CFloatingHogaDlg@@QAEXV?$CStringT@DV?$StrTraitMFC_DLL@DV?$ChTraitsCRT@D@ATL@@@@@ATL@@0H@Z$3
	DD	03H
	DD	FLAT:__unwindfunclet$?SetRealHogaData_Sub@CFloatingHogaDlg@@QAEXV?$CStringT@DV?$StrTraitMFC_DLL@DV?$ChTraitsCRT@D@ATL@@@@@ATL@@0H@Z$4
	DD	03H
	DD	FLAT:__unwindfunclet$?SetRealHogaData_Sub@CFloatingHogaDlg@@QAEXV?$CStringT@DV?$StrTraitMFC_DLL@DV?$ChTraitsCRT@D@ATL@@@@@ATL@@0H@Z$5
	DD	05H
	DD	FLAT:__unwindfunclet$?SetRealHogaData_Sub@CFloatingHogaDlg@@QAEXV?$CStringT@DV?$StrTraitMFC_DLL@DV?$ChTraitsCRT@D@ATL@@@@@ATL@@0H@Z$6
	DD	03H
	DD	FLAT:__unwindfunclet$?SetRealHogaData_Sub@CFloatingHogaDlg@@QAEXV?$CStringT@DV?$StrTraitMFC_DLL@DV?$ChTraitsCRT@D@ATL@@@@@ATL@@0H@Z$9
	DD	03H
	DD	FLAT:__unwindfunclet$?SetRealHogaData_Sub@CFloatingHogaDlg@@QAEXV?$CStringT@DV?$StrTraitMFC_DLL@DV?$ChTraitsCRT@D@ATL@@@@@ATL@@0H@Z$10
xdata$x	ENDS
;	COMDAT xdata$x
xdata$x	SEGMENT
__ehfuncinfo$?SetRealYeShangData@CFloatingHogaDlg@@QAEXPBD@Z DD 019930522H
	DD	0aH
	DD	FLAT:__unwindtable$?SetRealYeShangData@CFloatingHogaDlg@@QAEXPBD@Z
	DD	2 DUP(00H)
	DD	2 DUP(00H)
	DD	00H
	DD	01H
__unwindtable$?SetRealYeShangData@CFloatingHogaDlg@@QAEXPBD@Z DD 0ffffffffH
	DD	FLAT:__unwindfunclet$?SetRealYeShangData@CFloatingHogaDlg@@QAEXPBD@Z$0
	DD	00H
	DD	FLAT:__unwindfunclet$?SetRealYeShangData@CFloatingHogaDlg@@QAEXPBD@Z$14
	DD	00H
	DD	FLAT:__unwindfunclet$?SetRealYeShangData@CFloatingHogaDlg@@QAEXPBD@Z$1
	DD	02H
	DD	FLAT:__unwindfunclet$?SetRealYeShangData@CFloatingHogaDlg@@QAEXPBD@Z$2
	DD	03H
	DD	FLAT:__unwindfunclet$?SetRealYeShangData@CFloatingHogaDlg@@QAEXPBD@Z$3
	DD	04H
	DD	FLAT:__unwindfunclet$?SetRealYeShangData@CFloatingHogaDlg@@QAEXPBD@Z$4
	DD	05H
	DD	FLAT:__unwindfunclet$?SetRealYeShangData@CFloatingHogaDlg@@QAEXPBD@Z$5
	DD	06H
	DD	FLAT:__unwindfunclet$?SetRealYeShangData@CFloatingHogaDlg@@QAEXPBD@Z$6
	DD	06H
	DD	FLAT:__unwindfunclet$?SetRealYeShangData@CFloatingHogaDlg@@QAEXPBD@Z$7
	DD	08H
	DD	FLAT:__unwindfunclet$?SetRealYeShangData@CFloatingHogaDlg@@QAEXPBD@Z$15
xdata$x	ENDS
;	COMDAT xdata$x
xdata$x	SEGMENT
__ehfuncinfo$?SetRealHogaData@CFloatingHogaDlg@@QAEXKV?$CStringT@DV?$StrTraitMFC_DLL@DV?$ChTraitsCRT@D@ATL@@@@@ATL@@J@Z DD 019930522H
	DD	05H
	DD	FLAT:__unwindtable$?SetRealHogaData@CFloatingHogaDlg@@QAEXKV?$CStringT@DV?$StrTraitMFC_DLL@DV?$ChTraitsCRT@D@ATL@@@@@ATL@@J@Z
	DD	2 DUP(00H)
	DD	2 DUP(00H)
	DD	00H
	DD	01H
__unwindtable$?SetRealHogaData@CFloatingHogaDlg@@QAEXKV?$CStringT@DV?$StrTraitMFC_DLL@DV?$ChTraitsCRT@D@ATL@@@@@ATL@@J@Z DD 0ffffffffH
	DD	FLAT:__unwindfunclet$?SetRealHogaData@CFloatingHogaDlg@@QAEXKV?$CStringT@DV?$StrTraitMFC_DLL@DV?$ChTraitsCRT@D@ATL@@@@@ATL@@J@Z$0
	DD	00H
	DD	FLAT:__unwindfunclet$?SetRealHogaData@CFloatingHogaDlg@@QAEXKV?$CStringT@DV?$StrTraitMFC_DLL@DV?$ChTraitsCRT@D@ATL@@@@@ATL@@J@Z$1
	DD	01H
	DD	FLAT:__unwindfunclet$?SetRealHogaData@CFloatingHogaDlg@@QAEXKV?$CStringT@DV?$StrTraitMFC_DLL@DV?$ChTraitsCRT@D@ATL@@@@@ATL@@J@Z$2
	DD	01H
	DD	FLAT:__unwindfunclet$?SetRealHogaData@CFloatingHogaDlg@@QAEXKV?$CStringT@DV?$StrTraitMFC_DLL@DV?$ChTraitsCRT@D@ATL@@@@@ATL@@J@Z$3
	DD	03H
	DD	FLAT:__unwindfunclet$?SetRealHogaData@CFloatingHogaDlg@@QAEXKV?$CStringT@DV?$StrTraitMFC_DLL@DV?$ChTraitsCRT@D@ATL@@@@@ATL@@J@Z$4
xdata$x	ENDS
;	COMDAT xdata$x
xdata$x	SEGMENT
__ehfuncinfo$?SetRealHogaData@CFloatingHogaDlg@@QAEXAAVCKBREAL_KXH1@@@Z DD 019930522H
	DD	013H
	DD	FLAT:__unwindtable$?SetRealHogaData@CFloatingHogaDlg@@QAEXAAVCKBREAL_KXH1@@@Z
	DD	2 DUP(00H)
	DD	2 DUP(00H)
	DD	00H
	DD	01H
__unwindtable$?SetRealHogaData@CFloatingHogaDlg@@QAEXAAVCKBREAL_KXH1@@@Z DD 0ffffffffH
	DD	FLAT:__unwindfunclet$?SetRealHogaData@CFloatingHogaDlg@@QAEXAAVCKBREAL_KXH1@@@Z$0
	DD	00H
	DD	FLAT:__unwindfunclet$?SetRealHogaData@CFloatingHogaDlg@@QAEXAAVCKBREAL_KXH1@@@Z$1
	DD	01H
	DD	FLAT:__unwindfunclet$?SetRealHogaData@CFloatingHogaDlg@@QAEXAAVCKBREAL_KXH1@@@Z$2
	DD	02H
	DD	FLAT:__unwindfunclet$?SetRealHogaData@CFloatingHogaDlg@@QAEXAAVCKBREAL_KXH1@@@Z$3
	DD	02H
	DD	FLAT:__unwindfunclet$?SetRealHogaData@CFloatingHogaDlg@@QAEXAAVCKBREAL_KXH1@@@Z$6
	DD	02H
	DD	FLAT:__unwindfunclet$?SetRealHogaData@CFloatingHogaDlg@@QAEXAAVCKBREAL_KXH1@@@Z$9
	DD	02H
	DD	FLAT:__unwindfunclet$?SetRealHogaData@CFloatingHogaDlg@@QAEXAAVCKBREAL_KXH1@@@Z$12
	DD	02H
	DD	FLAT:__unwindfunclet$?SetRealHogaData@CFloatingHogaDlg@@QAEXAAVCKBREAL_KXH1@@@Z$15
	DD	02H
	DD	FLAT:__unwindfunclet$?SetRealHogaData@CFloatingHogaDlg@@QAEXAAVCKBREAL_KXH1@@@Z$18
	DD	02H
	DD	FLAT:__unwindfunclet$?SetRealHogaData@CFloatingHogaDlg@@QAEXAAVCKBREAL_KXH1@@@Z$21
	DD	02H
	DD	FLAT:__unwindfunclet$?SetRealHogaData@CFloatingHogaDlg@@QAEXAAVCKBREAL_KXH1@@@Z$24
	DD	02H
	DD	FLAT:__unwindfunclet$?SetRealHogaData@CFloatingHogaDlg@@QAEXAAVCKBREAL_KXH1@@@Z$27
	DD	02H
	DD	FLAT:__unwindfunclet$?SetRealHogaData@CFloatingHogaDlg@@QAEXAAVCKBREAL_KXH1@@@Z$30
	DD	02H
	DD	FLAT:__unwindfunclet$?SetRealHogaData@CFloatingHogaDlg@@QAEXAAVCKBREAL_KXH1@@@Z$33
	DD	02H
	DD	FLAT:__unwindfunclet$?SetRealHogaData@CFloatingHogaDlg@@QAEXAAVCKBREAL_KXH1@@@Z$34
	DD	02H
	DD	FLAT:__unwindfunclet$?SetRealHogaData@CFloatingHogaDlg@@QAEXAAVCKBREAL_KXH1@@@Z$36
	DD	02H
	DD	FLAT:__unwindfunclet$?SetRealHogaData@CFloatingHogaDlg@@QAEXAAVCKBREAL_KXH1@@@Z$37
	DD	02H
	DD	FLAT:__unwindfunclet$?SetRealHogaData@CFloatingHogaDlg@@QAEXAAVCKBREAL_KXH1@@@Z$39
	DD	02H
	DD	FLAT:__unwindfunclet$?SetRealHogaData@CFloatingHogaDlg@@QAEXAAVCKBREAL_KXH1@@@Z$41
xdata$x	ENDS
;	COMDAT xdata$x
xdata$x	SEGMENT
__unwindtable$?Serialize@?$CMap@GGV?$CStringT@DV?$StrTraitMFC_DLL@DV?$ChTraitsCRT@D@ATL@@@@@ATL@@V12@@@UAEXAAVCArchive@@@Z DD 0ffffffffH
	DD	FLAT:__unwindfunclet$?Serialize@?$CMap@GGV?$CStringT@DV?$StrTraitMFC_DLL@DV?$ChTraitsCRT@D@ATL@@@@@ATL@@V12@@@UAEXAAVCArchive@@@Z$0
	DD	00H
	DD	FLAT:__unwindfunclet$?Serialize@?$CMap@GGV?$CStringT@DV?$StrTraitMFC_DLL@DV?$ChTraitsCRT@D@ATL@@@@@ATL@@V12@@@UAEXAAVCArchive@@@Z$2
__ehfuncinfo$?Serialize@?$CMap@GGV?$CStringT@DV?$StrTraitMFC_DLL@DV?$ChTraitsCRT@D@ATL@@@@@ATL@@V12@@@UAEXAAVCArchive@@@Z DD 019930522H
	DD	02H
	DD	FLAT:__unwindtable$?Serialize@?$CMap@GGV?$CStringT@DV?$StrTraitMFC_DLL@DV?$ChTraitsCRT@D@ATL@@@@@ATL@@V12@@@UAEXAAVCArchive@@@Z
	DD	2 DUP(00H)
	DD	2 DUP(00H)
	DD	00H
	DD	01H
xdata$x	ENDS
;	COMDAT xdata$x
xdata$x	SEGMENT
__ehfuncinfo$??1?$CMap@GGV?$CStringT@DV?$StrTraitMFC_DLL@DV?$ChTraitsCRT@D@ATL@@@@@ATL@@V12@@@UAE@XZ DD 019930522H
	DD	00H
	DD	00H
	DD	2 DUP(00H)
	DD	2 DUP(00H)
	DD	00H
	DD	05H
xdata$x	ENDS
;	COMDAT xdata$x
xdata$x	SEGMENT
__unwindtable$?SetAt@?$CMap@GGV?$CStringT@DV?$StrTraitMFC_DLL@DV?$ChTraitsCRT@D@ATL@@@@@ATL@@V12@@@QAEXGV?$CStringT@DV?$StrTraitMFC_DLL@DV?$ChTraitsCRT@D@ATL@@@@@ATL@@@Z DD 0ffffffffH
	DD	FLAT:__unwindfunclet$?SetAt@?$CMap@GGV?$CStringT@DV?$StrTraitMFC_DLL@DV?$ChTraitsCRT@D@ATL@@@@@ATL@@V12@@@QAEXGV?$CStringT@DV?$StrTraitMFC_DLL@DV?$ChTraitsCRT@D@ATL@@@@@ATL@@@Z$0
__ehfuncinfo$?SetAt@?$CMap@GGV?$CStringT@DV?$StrTraitMFC_DLL@DV?$ChTraitsCRT@D@ATL@@@@@ATL@@V12@@@QAEXGV?$CStringT@DV?$StrTraitMFC_DLL@DV?$ChTraitsCRT@D@ATL@@@@@ATL@@@Z DD 019930522H
	DD	01H
	DD	FLAT:__unwindtable$?SetAt@?$CMap@GGV?$CStringT@DV?$StrTraitMFC_DLL@DV?$ChTraitsCRT@D@ATL@@@@@ATL@@V12@@@QAEXGV?$CStringT@DV?$StrTraitMFC_DLL@DV?$ChTraitsCRT@D@ATL@@@@@ATL@@@Z
	DD	2 DUP(00H)
	DD	2 DUP(00H)
	DD	00H
	DD	01H
xdata$x	ENDS
;	COMDAT xdata$x
xdata$x	SEGMENT
__ehfuncinfo$??0CFloatingHogaDlg@@QAE@PAVCWnd@@@Z DD 019930522H
	DD	0fH
	DD	FLAT:__unwindtable$??0CFloatingHogaDlg@@QAE@PAVCWnd@@@Z
	DD	2 DUP(00H)
	DD	2 DUP(00H)
	DD	00H
	DD	01H
__unwindtable$??0CFloatingHogaDlg@@QAE@PAVCWnd@@@Z DD 0ffffffffH
	DD	FLAT:__unwindfunclet$??0CFloatingHogaDlg@@QAE@PAVCWnd@@@Z$0
	DD	00H
	DD	FLAT:__unwindfunclet$??0CFloatingHogaDlg@@QAE@PAVCWnd@@@Z$1
	DD	01H
	DD	FLAT:__unwindfunclet$??0CFloatingHogaDlg@@QAE@PAVCWnd@@@Z$2
	DD	02H
	DD	FLAT:__unwindfunclet$??0CFloatingHogaDlg@@QAE@PAVCWnd@@@Z$3
	DD	03H
	DD	FLAT:__unwindfunclet$??0CFloatingHogaDlg@@QAE@PAVCWnd@@@Z$4
	DD	04H
	DD	FLAT:__unwindfunclet$??0CFloatingHogaDlg@@QAE@PAVCWnd@@@Z$5
	DD	05H
	DD	FLAT:__unwindfunclet$??0CFloatingHogaDlg@@QAE@PAVCWnd@@@Z$6
	DD	06H
	DD	FLAT:__unwindfunclet$??0CFloatingHogaDlg@@QAE@PAVCWnd@@@Z$7
	DD	07H
	DD	FLAT:__unwindfunclet$??0CFloatingHogaDlg@@QAE@PAVCWnd@@@Z$8
	DD	08H
	DD	FLAT:__unwindfunclet$??0CFloatingHogaDlg@@QAE@PAVCWnd@@@Z$9
	DD	09H
	DD	FLAT:__unwindfunclet$??0CFloatingHogaDlg@@QAE@PAVCWnd@@@Z$10
	DD	0aH
	DD	FLAT:__unwindfunclet$??0CFloatingHogaDlg@@QAE@PAVCWnd@@@Z$11
	DD	0bH
	DD	FLAT:__unwindfunclet$??0CFloatingHogaDlg@@QAE@PAVCWnd@@@Z$12
	DD	0cH
	DD	FLAT:__unwindfunclet$??0CFloatingHogaDlg@@QAE@PAVCWnd@@@Z$13
	DD	0dH
	DD	FLAT:__unwindfunclet$??0CFloatingHogaDlg@@QAE@PAVCWnd@@@Z$14
xdata$x	ENDS
;	COMDAT xdata$x
xdata$x	SEGMENT
__unwindtable$?Convert@CKBREAL_KXYS@@UAEXPAU_KXYS_OutBlock@@@Z DD 0ffffffffH
	DD	FLAT:__unwindfunclet$?Convert@CKBREAL_KXYS@@UAEXPAU_KXYS_OutBlock@@@Z$0
__ehfuncinfo$?Convert@CKBREAL_KXYS@@UAEXPAU_KXYS_OutBlock@@@Z DD 019930522H
	DD	01H
	DD	FLAT:__unwindtable$?Convert@CKBREAL_KXYS@@UAEXPAU_KXYS_OutBlock@@@Z
	DD	2 DUP(00H)
	DD	2 DUP(00H)
	DD	00H
	DD	01H
xdata$x	ENDS
;	COMDAT xdata$x
xdata$x	SEGMENT
__unwindtable$?Convert@CKBREAL_KXH1@@UAEXPAU_KXH1_OutBlock@@@Z DD 0ffffffffH
	DD	FLAT:__unwindfunclet$?Convert@CKBREAL_KXH1@@UAEXPAU_KXH1_OutBlock@@@Z$0
__ehfuncinfo$?Convert@CKBREAL_KXH1@@UAEXPAU_KXH1_OutBlock@@@Z DD 019930522H
	DD	01H
	DD	FLAT:__unwindtable$?Convert@CKBREAL_KXH1@@UAEXPAU_KXH1_OutBlock@@@Z
	DD	2 DUP(00H)
	DD	2 DUP(00H)
	DD	00H
	DD	01H
xdata$x	ENDS
;	COMDAT xdata$x
xdata$x	SEGMENT
__unwindtable$?Convert@CKB_01230@@UAEXPAU_k01230Out2@@@Z DD 0ffffffffH
	DD	FLAT:__unwindfunclet$?Convert@CKB_01230@@UAEXPAU_k01230Out2@@@Z$0
__ehfuncinfo$?Convert@CKB_01230@@UAEXPAU_k01230Out2@@@Z DD 019930522H
	DD	01H
	DD	FLAT:__unwindtable$?Convert@CKB_01230@@UAEXPAU_k01230Out2@@@Z
	DD	2 DUP(00H)
	DD	2 DUP(00H)
	DD	00H
	DD	01H
xdata$x	ENDS
;	COMDAT xdata$x
xdata$x	SEGMENT
__unwindtable$?AfxGetPctrInterface@@YGJH@Z DD 0ffffffffH
	DD	FLAT:__unwindfunclet$?AfxGetPctrInterface@@YGJH@Z$0
__ehfuncinfo$?AfxGetPctrInterface@@YGJH@Z DD 019930522H
	DD	01H
	DD	FLAT:__unwindtable$?AfxGetPctrInterface@@YGJH@Z
	DD	2 DUP(00H)
	DD	2 DUP(00H)
	DD	00H
	DD	01H
xdata$x	ENDS
;	COMDAT xdata$x
xdata$x	SEGMENT
__catchsym$??1CGdiObject@@UAE@XZ$3 DD 00H
	DD	FLAT:??_R0PAVCException@@@8
	DD	0fffffde4H
	DD	FLAT:__catch$??1CGdiObject@@UAE@XZ$0
__tryblocktable$??1CGdiObject@@UAE@XZ DD 00H
	DD	00H
	DD	02H
	DD	01H
	DD	FLAT:__catchsym$??1CGdiObject@@UAE@XZ$3
__unwindtable$??1CGdiObject@@UAE@XZ DD 0ffffffffH
	DD	00H
	DD	0ffffffffH
	DD	00H
	DD	01H
	DD	FLAT:__unwindfunclet$??1CGdiObject@@UAE@XZ$2
__ehfuncinfo$??1CGdiObject@@UAE@XZ DD 019930522H
	DD	03H
	DD	FLAT:__unwindtable$??1CGdiObject@@UAE@XZ
	DD	01H
	DD	FLAT:__tryblocktable$??1CGdiObject@@UAE@XZ
	DD	2 DUP(00H)
	DD	00H
	DD	05H
xdata$x	ENDS
;	COMDAT xdata$x
xdata$x	SEGMENT
__unwindtable$??HATL@@YA?AV?$CStringT@DV?$StrTraitMFC_DLL@DV?$ChTraitsCRT@D@ATL@@@@@0@ABV10@PBD@Z DD 0ffffffffH
	DD	FLAT:__unwindfunclet$??HATL@@YA?AV?$CStringT@DV?$StrTraitMFC_DLL@DV?$ChTraitsCRT@D@ATL@@@@@0@ABV10@PBD@Z$0
__ehfuncinfo$??HATL@@YA?AV?$CStringT@DV?$StrTraitMFC_DLL@DV?$ChTraitsCRT@D@ATL@@@@@0@ABV10@PBD@Z DD 019930522H
	DD	01H
	DD	FLAT:__unwindtable$??HATL@@YA?AV?$CStringT@DV?$StrTraitMFC_DLL@DV?$ChTraitsCRT@D@ATL@@@@@0@ABV10@PBD@Z
	DD	2 DUP(00H)
	DD	2 DUP(00H)
	DD	00H
	DD	01H
xdata$x	ENDS
;	COMDAT xdata$x
xdata$x	SEGMENT
__unwindtable$??HATL@@YA?AV?$CStringT@DV?$StrTraitMFC_DLL@DV?$ChTraitsCRT@D@ATL@@@@@0@ABV10@0@Z DD 0ffffffffH
	DD	FLAT:__unwindfunclet$??HATL@@YA?AV?$CStringT@DV?$StrTraitMFC_DLL@DV?$ChTraitsCRT@D@ATL@@@@@0@ABV10@0@Z$0
__ehfuncinfo$??HATL@@YA?AV?$CStringT@DV?$StrTraitMFC_DLL@DV?$ChTraitsCRT@D@ATL@@@@@0@ABV10@0@Z DD 019930522H
	DD	01H
	DD	FLAT:__unwindtable$??HATL@@YA?AV?$CStringT@DV?$StrTraitMFC_DLL@DV?$ChTraitsCRT@D@ATL@@@@@0@ABV10@0@Z
	DD	2 DUP(00H)
	DD	2 DUP(00H)
	DD	00H
	DD	01H
xdata$x	ENDS
CRT$XCU	SEGMENT
?RMSG_GETSIGNAL_REAL$initializer$@@3P6AXXZA DD FLAT:??__ERMSG_GETSIGNAL_REAL@@YAXXZ ; RMSG_GETSIGNAL_REAL$initializer$
CRT$XCU	ENDS
CRT$XCU	SEGMENT
?RMSG_SETQUERYOPT$initializer$@@3P6AXXZA DD FLAT:??__ERMSG_SETQUERYOPT@@YAXXZ ; RMSG_SETQUERYOPT$initializer$
CRT$XCU	ENDS
CRT$XCU	SEGMENT
?RMSG_CHARTMAIN$initializer$@@3P6AXXZA DD FLAT:??__ERMSG_CHARTMAIN@@YAXXZ ; RMSG_CHARTMAIN$initializer$
CRT$XCU	ENDS
CRT$XCU	SEGMENT
?RMS_ANALYSIS_FUNC$initializer$@@3P6AXXZA DD FLAT:??__ERMS_ANALYSIS_FUNC@@YAXXZ ; RMS_ANALYSIS_FUNC$initializer$
CRT$XCU	ENDS
CRT$XCU	SEGMENT
?RMSG_GET_USERID$initializer$@@3P6AXXZA DD FLAT:??__ERMSG_GET_USERID@@YAXXZ ; RMSG_GET_USERID$initializer$
CRT$XCU	ENDS
CRT$XCU	SEGMENT
?RMSG_CHANGE_SKINCOLOR$initializer$@@3P6AXXZA DD FLAT:??__ERMSG_CHANGE_SKINCOLOR@@YAXXZ ; RMSG_CHANGE_SKINCOLOR$initializer$
CRT$XCU	ENDS
CRT$XCU	SEGMENT
?RMSG_GET_SKINCOLOR$initializer$@@3P6AXXZA DD FLAT:??__ERMSG_GET_SKINCOLOR@@YAXXZ ; RMSG_GET_SKINCOLOR$initializer$
CRT$XCU	ENDS
CRT$XCU	SEGMENT
?RMSG_CHANGEVERTSCALETYPE$initializer$@@3P6AXXZA DD FLAT:??__ERMSG_CHANGEVERTSCALETYPE@@YAXXZ ; RMSG_CHANGEVERTSCALETYPE$initializer$
CRT$XCU	ENDS
CRT$XCU	SEGMENT
?RMSG_CHANGE_CROSSLINE$initializer$@@3P6AXXZA DD FLAT:??__ERMSG_CHANGE_CROSSLINE@@YAXXZ ; RMSG_CHANGE_CROSSLINE$initializer$
CRT$XCU	ENDS
CRT$XCU	SEGMENT
?RMSG_ADD_PLATFORM_MENU$initializer$@@3P6AXXZA DD FLAT:??__ERMSG_ADD_PLATFORM_MENU@@YAXXZ ; RMSG_ADD_PLATFORM_MENU$initializer$
CRT$XCU	ENDS
CRT$XCU	SEGMENT
?RMSG_SETINITIALCHARTDATA$initializer$@@3P6AXXZA DD FLAT:??__ERMSG_SETINITIALCHARTDATA@@YAXXZ ; RMSG_SETINITIALCHARTDATA$initializer$
CRT$XCU	ENDS
CRT$XCU	SEGMENT
?RMSG_GETINFO$initializer$@@3P6AXXZA DD FLAT:??__ERMSG_GETINFO@@YAXXZ ; RMSG_GETINFO$initializer$
CRT$XCU	ENDS
CRT$XCU	SEGMENT
?RMSG_SETINFO$initializer$@@3P6AXXZA DD FLAT:??__ERMSG_SETINFO@@YAXXZ ; RMSG_SETINFO$initializer$
CRT$XCU	ENDS
; Function compile flags: /Ogtp
; File C:\Program Files (x86)\Microsoft Visual Studio\2019\Community\VC\Tools\MSVC\14.29.30133\atlmfc\include\afxtempl.h
;	COMDAT ??$CompareElements@GG@@YGHPBG0@Z
_TEXT	SEGMENT
_pElement1$ = 8						; size = 4
_pElement2$ = 12					; size = 4
??$CompareElements@GG@@YGHPBG0@Z PROC			; CompareElements<unsigned short,unsigned short>, COMDAT

; 151  : {

  00000	55		 push	 ebp
  00001	8b ec		 mov	 ebp, esp

; 152  : 	ENSURE(pElement1 != NULL && pElement2 != NULL);

  00003	8b 45 08	 mov	 eax, DWORD PTR _pElement1$[ebp]
  00006	85 c0		 test	 eax, eax
  00008	74 16		 je	 SHORT $LN7@CompareEle
  0000a	8b 55 0c	 mov	 edx, DWORD PTR _pElement2$[ebp]
  0000d	85 d2		 test	 edx, edx
  0000f	74 0f		 je	 SHORT $LN7@CompareEle

; 153  : 	ASSERT(AfxIsValidAddress(pElement1, sizeof(TYPE), FALSE));
; 154  : 	ASSERT(AfxIsValidAddress(pElement2, sizeof(ARG_TYPE), FALSE));
; 155  : 
; 156  : 	return *pElement1 == *pElement2;

  00011	66 8b 08	 mov	 cx, WORD PTR [eax]
  00014	33 c0		 xor	 eax, eax
  00016	66 3b 0a	 cmp	 cx, WORD PTR [edx]
  00019	0f 94 c0	 sete	 al

; 157  : }

  0001c	5d		 pop	 ebp
  0001d	c2 08 00	 ret	 8
$LN7@CompareEle:

; 152  : 	ENSURE(pElement1 != NULL && pElement2 != NULL);

  00020	e8 00 00 00 00	 call	 ?AfxThrowInvalidArgException@@YGXXZ ; AfxThrowInvalidArgException
$LN10@CompareEle:
  00025	cc		 int	 3
??$CompareElements@GG@@YGHPBG0@Z ENDP			; CompareElements<unsigned short,unsigned short>
_TEXT	ENDS
; Function compile flags: /Ogtp
; File C:\Program Files (x86)\Microsoft Visual Studio\2019\Community\VC\Tools\MSVC\14.29.30133\atlmfc\include\afxtempl.h
; File C:\Program Files (x86)\Microsoft Visual Studio\2019\Community\VC\Tools\MSVC\14.29.30133\atlmfc\include\afx.inl
; File C:\Program Files (x86)\Microsoft Visual Studio\2019\Community\VC\Tools\MSVC\14.29.30133\atlmfc\include\afxtempl.h
; File C:\Program Files (x86)\Microsoft Visual Studio\2019\Community\VC\Tools\MSVC\14.29.30133\atlmfc\include\afx.inl
; File C:\Program Files (x86)\Microsoft Visual Studio\2019\Community\VC\Tools\MSVC\14.29.30133\atlmfc\include\afxtempl.h
; File C:\Program Files (x86)\Microsoft Visual Studio\2019\Community\VC\Tools\MSVC\14.29.30133\atlmfc\include\afx.inl
; File C:\Program Files (x86)\Microsoft Visual Studio\2019\Community\VC\Tools\MSVC\14.29.30133\atlmfc\include\afxtempl.h
;	COMDAT ??$SerializeElements@PAVCHogaData@@@@YGXAAVCArchive@@PAPAVCHogaData@@H@Z
_TEXT	SEGMENT
_ar$ = 8						; size = 4
_pElements$ = 12					; size = 4
_nCount$ = 16						; size = 4
??$SerializeElements@PAVCHogaData@@@@YGXAAVCArchive@@PAPAVCHogaData@@H@Z PROC ; SerializeElements<CHogaData *>, COMDAT

; 67   : {

  00000	55		 push	 ebp
  00001	8b ec		 mov	 ebp, esp

; 68   : 	ENSURE(nCount == 0 || pElements != NULL);

  00003	8b 4d 0c	 mov	 ecx, DWORD PTR _pElements$[ebp]
  00006	53		 push	 ebx
  00007	56		 push	 esi
  00008	8b 75 10	 mov	 esi, DWORD PTR _nCount$[ebp]
  0000b	57		 push	 edi
  0000c	85 f6		 test	 esi, esi
  0000e	74 08		 je	 SHORT $LN2@SerializeE
  00010	85 c9		 test	 ecx, ecx
  00012	0f 84 89 00 00
	00		 je	 $LN34@SerializeE
$LN2@SerializeE:
; File C:\Program Files (x86)\Microsoft Visual Studio\2019\Community\VC\Tools\MSVC\14.29.30133\atlmfc\include\afx.inl

; 212  : 	{ return (m_nMode & CArchive::load) == 0; }

  00018	8b 55 08	 mov	 edx, DWORD PTR _ar$[ebp]
  0001b	8b 42 18	 mov	 eax, DWORD PTR [edx+24]
  0001e	f7 d0		 not	 eax
  00020	a8 01		 test	 al, 1
; File C:\Program Files (x86)\Microsoft Visual Studio\2019\Community\VC\Tools\MSVC\14.29.30133\atlmfc\include\afxtempl.h

; 73   : 	if (ar.IsStoring())

  00022	74 3c		 je	 SHORT $LN10@SerializeE

; 74   : 	{
; 75   : 		TYPE* pData;
; 76   : 		UINT_PTR nElementsLeft;
; 77   : 
; 78   : 		nElementsLeft = nCount;
; 79   : 		pData = pElements;
; 80   : 		while( nElementsLeft > 0 )

  00024	85 f6		 test	 esi, esi
  00026	74 31		 je	 SHORT $LN8@SerializeE
  00028	0f 1f 84 00 00
	00 00 00	 npad	 8
$LL5@SerializeE:

; 81   : 		{
; 82   : 			UINT nElementsToWrite;
; 83   : 
; 84   : 			nElementsToWrite = UINT(__min(nElementsLeft, INT_MAX/sizeof(TYPE)));

  00030	bb ff ff ff 1f	 mov	 ebx, 536870911		; 1fffffffH
  00035	3b f3		 cmp	 esi, ebx
  00037	0f 42 de	 cmovb	 ebx, esi

; 85   : 			ar.Write(pData, nElementsToWrite*sizeof(TYPE));

  0003a	8d 3c 9d 00 00
	00 00		 lea	 edi, DWORD PTR [ebx*4]
  00041	57		 push	 edi
  00042	51		 push	 ecx
  00043	8b ca		 mov	 ecx, edx
  00045	e8 00 00 00 00	 call	 ?Write@CArchive@@QAEXPBXI@Z ; CArchive::Write

; 86   : 			nElementsLeft -= nElementsToWrite;
; 87   : 			pData += nElementsToWrite;

  0004a	8b 4d 0c	 mov	 ecx, DWORD PTR _pElements$[ebp]
  0004d	8b 55 08	 mov	 edx, DWORD PTR _ar$[ebp]
  00050	03 cf		 add	 ecx, edi
  00052	89 4d 0c	 mov	 DWORD PTR _pElements$[ebp], ecx
  00055	2b f3		 sub	 esi, ebx
  00057	75 d7		 jne	 SHORT $LL5@SerializeE
$LN8@SerializeE:
  00059	5f		 pop	 edi

; 105  : 		}
; 106  : 	}
; 107  : }

  0005a	5e		 pop	 esi
  0005b	5b		 pop	 ebx
  0005c	5d		 pop	 ebp
  0005d	c2 0c 00	 ret	 12			; 0000000cH
$LN10@SerializeE:

; 97   : 		while( nElementsLeft > 0 )

  00060	85 f6		 test	 esi, esi
  00062	74 f5		 je	 SHORT $LN8@SerializeE
$LL7@SerializeE:

; 98   : 		{
; 99   : 			UINT nElementsToRead;
; 100  : 
; 101  : 			nElementsToRead = UINT(__min(nElementsLeft, INT_MAX/sizeof(TYPE)));

  00064	bf ff ff ff 1f	 mov	 edi, 536870911		; 1fffffffH
  00069	3b f7		 cmp	 esi, edi
  0006b	0f 42 fe	 cmovb	 edi, esi

; 102  : 			ar.EnsureRead(pData, nElementsToRead*sizeof(TYPE));

  0006e	8d 1c bd 00 00
	00 00		 lea	 ebx, DWORD PTR [edi*4]
; File C:\Program Files (x86)\Microsoft Visual Studio\2019\Community\VC\Tools\MSVC\14.29.30133\atlmfc\include\afx.inl

; 399  : 	UINT nRead=Read(lpBuf, nCount);

  00075	53		 push	 ebx
  00076	51		 push	 ecx
  00077	8b ca		 mov	 ecx, edx
  00079	e8 00 00 00 00	 call	 ?Read@CArchive@@QAEIPAXI@Z ; CArchive::Read

; 400  : 	if(nRead!=nCount)

  0007e	3b c3		 cmp	 eax, ebx
  00080	75 16		 jne	 SHORT $LN23@SerializeE
; File C:\Program Files (x86)\Microsoft Visual Studio\2019\Community\VC\Tools\MSVC\14.29.30133\atlmfc\include\afxtempl.h

; 97   : 		while( nElementsLeft > 0 )

  00082	8b 4d 0c	 mov	 ecx, DWORD PTR _pElements$[ebp]
  00085	8b 55 08	 mov	 edx, DWORD PTR _ar$[ebp]

; 103  : 			nElementsLeft -= nElementsToRead;
; 104  : 			pData += nElementsToRead;

  00088	03 cb		 add	 ecx, ebx
  0008a	89 4d 0c	 mov	 DWORD PTR _pElements$[ebp], ecx
  0008d	2b f7		 sub	 esi, edi
  0008f	75 d3		 jne	 SHORT $LL7@SerializeE

; 105  : 		}
; 106  : 	}
; 107  : }

  00091	5f		 pop	 edi
  00092	5e		 pop	 esi
  00093	5b		 pop	 ebx
  00094	5d		 pop	 ebp
  00095	c2 0c 00	 ret	 12			; 0000000cH
$LN23@SerializeE:
; File C:\Program Files (x86)\Microsoft Visual Studio\2019\Community\VC\Tools\MSVC\14.29.30133\atlmfc\include\afx.inl

; 402  : 		AfxThrowArchiveException(CArchiveException::endOfFile);

  00098	6a 00		 push	 0
  0009a	6a 03		 push	 3
  0009c	e8 00 00 00 00	 call	 ?AfxThrowArchiveException@@YGXHPBD@Z ; AfxThrowArchiveException
$LN34@SerializeE:
; File C:\Program Files (x86)\Microsoft Visual Studio\2019\Community\VC\Tools\MSVC\14.29.30133\atlmfc\include\afxtempl.h

; 68   : 	ENSURE(nCount == 0 || pElements != NULL);

  000a1	e8 00 00 00 00	 call	 ?AfxThrowInvalidArgException@@YGXXZ ; AfxThrowInvalidArgException
$LN32@SerializeE:
  000a6	cc		 int	 3
??$SerializeElements@PAVCHogaData@@@@YGXAAVCArchive@@PAPAVCHogaData@@H@Z ENDP ; SerializeElements<CHogaData *>
_TEXT	ENDS
; Function compile flags: /Ogtp
; File C:\Program Files (x86)\Microsoft Visual Studio\2019\Community\VC\Tools\MSVC\14.29.30133\atlmfc\include\afxtempl.h
; File C:\Program Files (x86)\Microsoft Visual Studio\2019\Community\VC\Tools\MSVC\14.29.30133\atlmfc\include\afx.inl
; File C:\Program Files (x86)\Microsoft Visual Studio\2019\Community\VC\Tools\MSVC\14.29.30133\atlmfc\include\afxtempl.h
; File C:\Program Files (x86)\Microsoft Visual Studio\2019\Community\VC\Tools\MSVC\14.29.30133\atlmfc\include\afx.inl
; File C:\Program Files (x86)\Microsoft Visual Studio\2019\Community\VC\Tools\MSVC\14.29.30133\atlmfc\include\afxtempl.h
; File C:\Program Files (x86)\Microsoft Visual Studio\2019\Community\VC\Tools\MSVC\14.29.30133\atlmfc\include\afx.inl
; File C:\Program Files (x86)\Microsoft Visual Studio\2019\Community\VC\Tools\MSVC\14.29.30133\atlmfc\include\afxtempl.h
;	COMDAT ??$SerializeElements@G@@YGXAAVCArchive@@PAGH@Z
_TEXT	SEGMENT
_ar$ = 8						; size = 4
_pElements$ = 12					; size = 4
_nCount$ = 16						; size = 4
??$SerializeElements@G@@YGXAAVCArchive@@PAGH@Z PROC	; SerializeElements<unsigned short>, COMDAT

; 67   : {

  00000	55		 push	 ebp
  00001	8b ec		 mov	 ebp, esp

; 68   : 	ENSURE(nCount == 0 || pElements != NULL);

  00003	8b 4d 0c	 mov	 ecx, DWORD PTR _pElements$[ebp]
  00006	53		 push	 ebx
  00007	56		 push	 esi
  00008	8b 75 10	 mov	 esi, DWORD PTR _nCount$[ebp]
  0000b	57		 push	 edi
  0000c	85 f6		 test	 esi, esi
  0000e	74 04		 je	 SHORT $LN2@SerializeE
  00010	85 c9		 test	 ecx, ecx
  00012	74 79		 je	 SHORT $LN34@SerializeE
$LN2@SerializeE:
; File C:\Program Files (x86)\Microsoft Visual Studio\2019\Community\VC\Tools\MSVC\14.29.30133\atlmfc\include\afx.inl

; 212  : 	{ return (m_nMode & CArchive::load) == 0; }

  00014	8b 55 08	 mov	 edx, DWORD PTR _ar$[ebp]
  00017	8b 42 18	 mov	 eax, DWORD PTR [edx+24]
  0001a	f7 d0		 not	 eax
  0001c	a8 01		 test	 al, 1
; File C:\Program Files (x86)\Microsoft Visual Studio\2019\Community\VC\Tools\MSVC\14.29.30133\atlmfc\include\afxtempl.h

; 73   : 	if (ar.IsStoring())

  0001e	74 30		 je	 SHORT $LN10@SerializeE

; 74   : 	{
; 75   : 		TYPE* pData;
; 76   : 		UINT_PTR nElementsLeft;
; 77   : 
; 78   : 		nElementsLeft = nCount;
; 79   : 		pData = pElements;
; 80   : 		while( nElementsLeft > 0 )

  00020	85 f6		 test	 esi, esi
  00022	74 25		 je	 SHORT $LN8@SerializeE
$LL5@SerializeE:

; 81   : 		{
; 82   : 			UINT nElementsToWrite;
; 83   : 
; 84   : 			nElementsToWrite = UINT(__min(nElementsLeft, INT_MAX/sizeof(TYPE)));

  00024	bb ff ff ff 3f	 mov	 ebx, 1073741823		; 3fffffffH
  00029	3b f3		 cmp	 esi, ebx
  0002b	0f 42 de	 cmovb	 ebx, esi

; 85   : 			ar.Write(pData, nElementsToWrite*sizeof(TYPE));

  0002e	8d 3c 1b	 lea	 edi, DWORD PTR [ebx+ebx]
  00031	57		 push	 edi
  00032	51		 push	 ecx
  00033	8b ca		 mov	 ecx, edx
  00035	e8 00 00 00 00	 call	 ?Write@CArchive@@QAEXPBXI@Z ; CArchive::Write

; 86   : 			nElementsLeft -= nElementsToWrite;
; 87   : 			pData += nElementsToWrite;

  0003a	8b 4d 0c	 mov	 ecx, DWORD PTR _pElements$[ebp]
  0003d	8b 55 08	 mov	 edx, DWORD PTR _ar$[ebp]
  00040	03 cf		 add	 ecx, edi
  00042	89 4d 0c	 mov	 DWORD PTR _pElements$[ebp], ecx
  00045	2b f3		 sub	 esi, ebx
  00047	75 db		 jne	 SHORT $LL5@SerializeE
$LN8@SerializeE:
  00049	5f		 pop	 edi

; 105  : 		}
; 106  : 	}
; 107  : }

  0004a	5e		 pop	 esi
  0004b	5b		 pop	 ebx
  0004c	5d		 pop	 ebp
  0004d	c2 0c 00	 ret	 12			; 0000000cH
$LN10@SerializeE:

; 97   : 		while( nElementsLeft > 0 )

  00050	85 f6		 test	 esi, esi
  00052	74 f5		 je	 SHORT $LN8@SerializeE
$LL7@SerializeE:

; 98   : 		{
; 99   : 			UINT nElementsToRead;
; 100  : 
; 101  : 			nElementsToRead = UINT(__min(nElementsLeft, INT_MAX/sizeof(TYPE)));

  00054	bf ff ff ff 3f	 mov	 edi, 1073741823		; 3fffffffH
  00059	3b f7		 cmp	 esi, edi
  0005b	0f 42 fe	 cmovb	 edi, esi

; 102  : 			ar.EnsureRead(pData, nElementsToRead*sizeof(TYPE));

  0005e	8d 1c 3f	 lea	 ebx, DWORD PTR [edi+edi]
; File C:\Program Files (x86)\Microsoft Visual Studio\2019\Community\VC\Tools\MSVC\14.29.30133\atlmfc\include\afx.inl

; 399  : 	UINT nRead=Read(lpBuf, nCount);

  00061	53		 push	 ebx
  00062	51		 push	 ecx
  00063	8b ca		 mov	 ecx, edx
  00065	e8 00 00 00 00	 call	 ?Read@CArchive@@QAEIPAXI@Z ; CArchive::Read

; 400  : 	if(nRead!=nCount)

  0006a	3b c3		 cmp	 eax, ebx
  0006c	75 16		 jne	 SHORT $LN23@SerializeE
; File C:\Program Files (x86)\Microsoft Visual Studio\2019\Community\VC\Tools\MSVC\14.29.30133\atlmfc\include\afxtempl.h

; 97   : 		while( nElementsLeft > 0 )

  0006e	8b 4d 0c	 mov	 ecx, DWORD PTR _pElements$[ebp]
  00071	8b 55 08	 mov	 edx, DWORD PTR _ar$[ebp]

; 103  : 			nElementsLeft -= nElementsToRead;
; 104  : 			pData += nElementsToRead;

  00074	03 cb		 add	 ecx, ebx
  00076	89 4d 0c	 mov	 DWORD PTR _pElements$[ebp], ecx
  00079	2b f7		 sub	 esi, edi
  0007b	75 d7		 jne	 SHORT $LL7@SerializeE

; 105  : 		}
; 106  : 	}
; 107  : }

  0007d	5f		 pop	 edi
  0007e	5e		 pop	 esi
  0007f	5b		 pop	 ebx
  00080	5d		 pop	 ebp
  00081	c2 0c 00	 ret	 12			; 0000000cH
$LN23@SerializeE:
; File C:\Program Files (x86)\Microsoft Visual Studio\2019\Community\VC\Tools\MSVC\14.29.30133\atlmfc\include\afx.inl

; 402  : 		AfxThrowArchiveException(CArchiveException::endOfFile);

  00084	6a 00		 push	 0
  00086	6a 03		 push	 3
  00088	e8 00 00 00 00	 call	 ?AfxThrowArchiveException@@YGXHPBD@Z ; AfxThrowArchiveException
$LN34@SerializeE:
; File C:\Program Files (x86)\Microsoft Visual Studio\2019\Community\VC\Tools\MSVC\14.29.30133\atlmfc\include\afxtempl.h

; 68   : 	ENSURE(nCount == 0 || pElements != NULL);

  0008d	e8 00 00 00 00	 call	 ?AfxThrowInvalidArgException@@YGXXZ ; AfxThrowInvalidArgException
$LN32@SerializeE:
  00092	cc		 int	 3
??$SerializeElements@G@@YGXAAVCArchive@@PAGH@Z ENDP	; SerializeElements<unsigned short>
_TEXT	ENDS
; Function compile flags: /Ogtp
; File C:\Program Files (x86)\Microsoft Visual Studio\2019\Community\VC\Tools\MSVC\14.29.30133\atlmfc\include\afxtempl.h
; File C:\Program Files (x86)\Microsoft Visual Studio\2019\Community\VC\Tools\MSVC\14.29.30133\atlmfc\include\afxwin1.inl
; File C:\Program Files (x86)\Microsoft Visual Studio\2019\Community\VC\Tools\MSVC\14.29.30133\atlmfc\include\afx.inl
;	COMDAT ??_GCFloatingHogaDlg@@UAEPAXI@Z
_TEXT	SEGMENT
___flags$ = 8						; size = 4
??_GCFloatingHogaDlg@@UAEPAXI@Z PROC			; CFloatingHogaDlg::`scalar deleting destructor', COMDAT
; _this$ = ecx
  00000	55		 push	 ebp
  00001	8b ec		 mov	 ebp, esp
; File C:\Program Files (x86)\Microsoft Visual Studio\2019\Community\VC\Tools\MSVC\14.29.30133\atlmfc\include\afxtempl.h

; 355  : {

  00003	56		 push	 esi
  00004	8b f1		 mov	 esi, ecx
  00006	8d 8e e0 05 00
	00		 lea	 ecx, DWORD PTR [esi+1504]
  0000c	e8 00 00 00 00	 call	 ??1CButton@@UAE@XZ	; CButton::~CButton
  00011	8d 8e a8 04 00
	00		 lea	 ecx, DWORD PTR [esi+1192]
  00017	e8 00 00 00 00	 call	 ??1CPowLabel@@UAE@XZ	; CPowLabel::~CPowLabel
  0001c	8d 8e 70 03 00
	00		 lea	 ecx, DWORD PTR [esi+880]
  00022	e8 00 00 00 00	 call	 ??1CPowLabel@@UAE@XZ	; CPowLabel::~CPowLabel
  00027	8d 8e 38 02 00
	00		 lea	 ecx, DWORD PTR [esi+568]
  0002d	e8 00 00 00 00	 call	 ??1CPowLabel@@UAE@XZ	; CPowLabel::~CPowLabel
  00032	8d 8e 0c 02 00
	00		 lea	 ecx, DWORD PTR [esi+524]
  00038	ff 15 00 00 00
	00		 call	 DWORD PTR __imp_??1?$CStringT@DV?$StrTraitMFC_DLL@DV?$ChTraitsCRT@D@ATL@@@@@ATL@@QAE@XZ
  0003e	8d 8e f8 01 00
	00		 lea	 ecx, DWORD PTR [esi+504]
  00044	ff 15 00 00 00
	00		 call	 DWORD PTR __imp_??1?$CStringT@DV?$StrTraitMFC_DLL@DV?$ChTraitsCRT@D@ATL@@@@@ATL@@QAE@XZ
  0004a	8d 8e f4 01 00
	00		 lea	 ecx, DWORD PTR [esi+500]
  00050	ff 15 00 00 00
	00		 call	 DWORD PTR __imp_??1?$CStringT@DV?$StrTraitMFC_DLL@DV?$ChTraitsCRT@D@ATL@@@@@ATL@@QAE@XZ
  00056	8d 8e e8 01 00
	00		 lea	 ecx, DWORD PTR [esi+488]
  0005c	ff 15 00 00 00
	00		 call	 DWORD PTR __imp_??1?$CStringT@DV?$StrTraitMFC_DLL@DV?$ChTraitsCRT@D@ATL@@@@@ATL@@QAE@XZ
  00062	8d 8e e4 01 00
	00		 lea	 ecx, DWORD PTR [esi+484]
  00068	ff 15 00 00 00
	00		 call	 DWORD PTR __imp_??1?$CStringT@DV?$StrTraitMFC_DLL@DV?$ChTraitsCRT@D@ATL@@@@@ATL@@QAE@XZ

; 356  : 	ASSERT_VALID(this);
; 357  : 
; 358  : 	if (m_pData != NULL)

  0006e	8b 86 8c 01 00
	00		 mov	 eax, DWORD PTR [esi+396]
  00074	c7 86 88 01 00
	00 00 00 00 00	 mov	 DWORD PTR [esi+392], OFFSET ??_7?$CArray@PAVCHogaData@@PAV1@@@6B@
  0007e	85 c0		 test	 eax, eax
  00080	74 13		 je	 SHORT $LN14@scalar

; 359  : 	{
; 360  : 		for( int i = 0; i < m_nSize; i++ )

  00082	83 be 90 01 00
	00 00		 cmp	 DWORD PTR [esi+400], 0
  00089	0f 4f c0	 cmovg	 eax, eax

; 361  : 			(m_pData + i)->~TYPE();
; 362  : 		delete[] (BYTE*)m_pData;

  0008c	50		 push	 eax
  0008d	e8 00 00 00 00	 call	 ??_V@YAXPAX@Z		; operator delete[]
  00092	83 c4 04	 add	 esp, 4
$LN14@scalar:
  00095	8d 8e 1c 01 00
	00		 lea	 ecx, DWORD PTR [esi+284]
; File C:\Program Files (x86)\Microsoft Visual Studio\2019\Community\VC\Tools\MSVC\14.29.30133\atlmfc\include\afxwin1.inl

; 155  : 	{ }

  0009b	c7 01 00 00 00
	00		 mov	 DWORD PTR [ecx], OFFSET ??_7CFont@@6B@
  000a1	e8 00 00 00 00	 call	 ??1CGdiObject@@UAE@XZ	; CGdiObject::~CGdiObject
  000a6	8d 8e c8 00 00
	00		 lea	 ecx, DWORD PTR [esi+200]
  000ac	ff 15 00 00 00
	00		 call	 DWORD PTR __imp_??1?$CStringT@DV?$StrTraitMFC_DLL@DV?$ChTraitsCRT@D@ATL@@@@@ATL@@QAE@XZ
  000b2	8d 8e c4 00 00
	00		 lea	 ecx, DWORD PTR [esi+196]
  000b8	ff 15 00 00 00
	00		 call	 DWORD PTR __imp_??1?$CStringT@DV?$StrTraitMFC_DLL@DV?$ChTraitsCRT@D@ATL@@@@@ATL@@QAE@XZ
  000be	8d 8e a8 00 00
	00		 lea	 ecx, DWORD PTR [esi+168]
  000c4	e8 00 00 00 00	 call	 ??1?$CMap@GGV?$CStringT@DV?$StrTraitMFC_DLL@DV?$ChTraitsCRT@D@ATL@@@@@ATL@@V12@@@UAE@XZ ; CMap<unsigned short,unsigned short,ATL::CStringT<char,StrTraitMFC_DLL<char,ATL::ChTraitsCRT<char> > >,ATL::CStringT<char,StrTraitMFC_DLL<char,ATL::ChTraitsCRT<char> > > >::~CMap<unsigned short,unsigned short,ATL::CStringT<char,StrTraitMFC_DLL<char,ATL::ChTraitsCRT<char> > >,ATL::CStringT<char,StrTraitMFC_DLL<char,ATL::ChTraitsCRT<char> > > >
  000c9	8b ce		 mov	 ecx, esi
  000cb	e8 00 00 00 00	 call	 ??1CDialog@@UAE@XZ	; CDialog::~CDialog
  000d0	8b 45 08	 mov	 eax, DWORD PTR ___flags$[ebp]
  000d3	a8 01		 test	 al, 1
  000d5	74 22		 je	 SHORT $LN29@scalar
  000d7	a8 04		 test	 al, 4
  000d9	75 10		 jne	 SHORT $LN3@scalar
; File C:\Program Files (x86)\Microsoft Visual Studio\2019\Community\VC\Tools\MSVC\14.29.30133\atlmfc\include\afx.inl

; 112  : 	{ ::operator delete(p); }

  000db	56		 push	 esi
  000dc	e8 00 00 00 00	 call	 ??3@YAXPAX@Z		; operator delete
  000e1	83 c4 04	 add	 esp, 4
  000e4	8b c6		 mov	 eax, esi
  000e6	5e		 pop	 esi
  000e7	5d		 pop	 ebp
  000e8	c2 04 00	 ret	 4
$LN3@scalar:
  000eb	68 68 06 00 00	 push	 1640			; 00000668H
  000f0	56		 push	 esi
  000f1	e8 00 00 00 00	 call	 ?__global_delete@@YAXPAXI@Z ; __global_delete
  000f6	83 c4 08	 add	 esp, 8
$LN29@scalar:
  000f9	8b c6		 mov	 eax, esi
  000fb	5e		 pop	 esi
  000fc	5d		 pop	 ebp
  000fd	c2 04 00	 ret	 4
??_GCFloatingHogaDlg@@UAEPAXI@Z ENDP			; CFloatingHogaDlg::`scalar deleting destructor'
_TEXT	ENDS
; Function compile flags: /Ogtp
; File D:\git\src\IBK\IBK_DRFN\ProjSrc\SrcDrfn\Chart\MULTICHART\FloatingHogaDlg.cpp
;	COMDAT ?RemoveExtra@CFloatingHogaDlg@@QAEXAAVCKBREAL_KXH1@@@Z
_TEXT	SEGMENT
_kbReal_KXH1$ = 8					; size = 4
?RemoveExtra@CFloatingHogaDlg@@QAEXAAVCKBREAL_KXH1@@@Z PROC ; CFloatingHogaDlg::RemoveExtra, COMDAT
; _this$ = ecx

; 2719 : {

  00000	55		 push	 ebp
  00001	8b ec		 mov	 ebp, esp
  00003	56		 push	 esi

; 2720 : 	kbReal_KXH1.m_szofferho1.Remove('-');

  00004	8b 75 08	 mov	 esi, DWORD PTR _kbReal_KXH1$[ebp]
  00007	6a 2d		 push	 45			; 0000002dH
  00009	8d 4e 08	 lea	 ecx, DWORD PTR [esi+8]
  0000c	ff 15 00 00 00
	00		 call	 DWORD PTR __imp_?Remove@?$CStringT@DV?$StrTraitMFC_DLL@DV?$ChTraitsCRT@D@ATL@@@@@ATL@@QAEHD@Z

; 2721 : 	kbReal_KXH1.m_szofferho2.Remove('-');

  00012	6a 2d		 push	 45			; 0000002dH
  00014	8d 4e 18	 lea	 ecx, DWORD PTR [esi+24]
  00017	ff 15 00 00 00
	00		 call	 DWORD PTR __imp_?Remove@?$CStringT@DV?$StrTraitMFC_DLL@DV?$ChTraitsCRT@D@ATL@@@@@ATL@@QAEHD@Z

; 2722 : 	kbReal_KXH1.m_szofferho3.Remove('-');

  0001d	6a 2d		 push	 45			; 0000002dH
  0001f	8d 4e 28	 lea	 ecx, DWORD PTR [esi+40]
  00022	ff 15 00 00 00
	00		 call	 DWORD PTR __imp_?Remove@?$CStringT@DV?$StrTraitMFC_DLL@DV?$ChTraitsCRT@D@ATL@@@@@ATL@@QAEHD@Z

; 2723 : 	kbReal_KXH1.m_szofferho4.Remove('-');

  00028	6a 2d		 push	 45			; 0000002dH
  0002a	8d 4e 38	 lea	 ecx, DWORD PTR [esi+56]
  0002d	ff 15 00 00 00
	00		 call	 DWORD PTR __imp_?Remove@?$CStringT@DV?$StrTraitMFC_DLL@DV?$ChTraitsCRT@D@ATL@@@@@ATL@@QAEHD@Z

; 2724 : 	kbReal_KXH1.m_szofferho5.Remove('-');

  00033	6a 2d		 push	 45			; 0000002dH
  00035	8d 4e 48	 lea	 ecx, DWORD PTR [esi+72]
  00038	ff 15 00 00 00
	00		 call	 DWORD PTR __imp_?Remove@?$CStringT@DV?$StrTraitMFC_DLL@DV?$ChTraitsCRT@D@ATL@@@@@ATL@@QAEHD@Z

; 2725 : 
; 2726 : 	kbReal_KXH1.m_szbidho1.Remove('-');

  0003e	6a 2d		 push	 45			; 0000002dH
  00040	8d 4e 0c	 lea	 ecx, DWORD PTR [esi+12]
  00043	ff 15 00 00 00
	00		 call	 DWORD PTR __imp_?Remove@?$CStringT@DV?$StrTraitMFC_DLL@DV?$ChTraitsCRT@D@ATL@@@@@ATL@@QAEHD@Z

; 2727 : 	kbReal_KXH1.m_szbidho2.Remove('-');

  00049	6a 2d		 push	 45			; 0000002dH
  0004b	8d 4e 1c	 lea	 ecx, DWORD PTR [esi+28]
  0004e	ff 15 00 00 00
	00		 call	 DWORD PTR __imp_?Remove@?$CStringT@DV?$StrTraitMFC_DLL@DV?$ChTraitsCRT@D@ATL@@@@@ATL@@QAEHD@Z

; 2728 : 	kbReal_KXH1.m_szbidho3.Remove('-');

  00054	6a 2d		 push	 45			; 0000002dH
  00056	8d 4e 2c	 lea	 ecx, DWORD PTR [esi+44]
  00059	ff 15 00 00 00
	00		 call	 DWORD PTR __imp_?Remove@?$CStringT@DV?$StrTraitMFC_DLL@DV?$ChTraitsCRT@D@ATL@@@@@ATL@@QAEHD@Z

; 2729 : 	kbReal_KXH1.m_szbidho4.Remove('-');

  0005f	6a 2d		 push	 45			; 0000002dH
  00061	8d 4e 3c	 lea	 ecx, DWORD PTR [esi+60]
  00064	ff 15 00 00 00
	00		 call	 DWORD PTR __imp_?Remove@?$CStringT@DV?$StrTraitMFC_DLL@DV?$ChTraitsCRT@D@ATL@@@@@ATL@@QAEHD@Z

; 2730 : 	kbReal_KXH1.m_szbidho5.Remove('-');

  0006a	6a 2d		 push	 45			; 0000002dH
  0006c	8d 4e 4c	 lea	 ecx, DWORD PTR [esi+76]
  0006f	ff 15 00 00 00
	00		 call	 DWORD PTR __imp_?Remove@?$CStringT@DV?$StrTraitMFC_DLL@DV?$ChTraitsCRT@D@ATL@@@@@ATL@@QAEHD@Z
  00075	5e		 pop	 esi

; 2731 : }

  00076	5d		 pop	 ebp
  00077	c2 04 00	 ret	 4
?RemoveExtra@CFloatingHogaDlg@@QAEXAAVCKBREAL_KXH1@@@Z ENDP ; CFloatingHogaDlg::RemoveExtra
_TEXT	ENDS
; Function compile flags: /Ogtp
; File D:\git\src\IBK\IBK_DRFN\ProjSrc\SrcDrfn\Chart\MULTICHART\FloatingHogaDlg.cpp
;	COMDAT ?OnCodeUnAdvise@CFloatingHogaDlg@@QAEXPBD@Z
_TEXT	SEGMENT
_strCode$ = 8						; size = 4
?OnCodeUnAdvise@CFloatingHogaDlg@@QAEXPBD@Z PROC	; CFloatingHogaDlg::OnCodeUnAdvise, COMDAT
; _this$ = ecx

; 2552 : {

  00000	55		 push	 ebp
  00001	8b ec		 mov	 ebp, esp
  00003	57		 push	 edi
  00004	8b f9		 mov	 edi, ecx

; 2553 : 	if(!m_pDrdsLib) return;

  00006	8b 97 60 06 00
	00		 mov	 edx, DWORD PTR [edi+1632]
  0000c	85 d2		 test	 edx, edx
  0000e	74 30		 je	 SHORT $LN1@OnCodeUnAd

; 2554 : 
; 2555 : 	int nKXH1RealType = 1;	// 1:
; 2556 : 	m_pDrdsLib->DrdsUnadvise(nKXH1RealType, "KXH1", "*", (LPSTR)strCode);

  00010	ff 75 08	 push	 DWORD PTR _strCode$[ebp]
  00013	8b 02		 mov	 eax, DWORD PTR [edx]
  00015	68 00 00 00 00	 push	 OFFSET ??_C@_01NBENCBCI@?$CK@
  0001a	68 00 00 00 00	 push	 OFFSET ??_C@_04KAJDJNDN@KXH1@
  0001f	6a 01		 push	 1
  00021	52		 push	 edx
  00022	ff 50 14	 call	 DWORD PTR [eax+20]

; 2557 : 	int nKXYSRealType = 23;	// 1:
; 2558 : 	m_pDrdsLib->DrdsUnadvise(nKXYSRealType, "KXYS", "*", (LPSTR)strCode);

  00025	ff 75 08	 push	 DWORD PTR _strCode$[ebp]
  00028	8b 87 60 06 00
	00		 mov	 eax, DWORD PTR [edi+1632]
  0002e	68 00 00 00 00	 push	 OFFSET ??_C@_01NBENCBCI@?$CK@
  00033	68 00 00 00 00	 push	 OFFSET ??_C@_04OKLMFNFP@KXYS@
  00038	6a 17		 push	 23			; 00000017H
  0003a	8b 08		 mov	 ecx, DWORD PTR [eax]
  0003c	50		 push	 eax
  0003d	ff 51 14	 call	 DWORD PTR [ecx+20]
$LN1@OnCodeUnAd:
  00040	5f		 pop	 edi

; 2559 : }

  00041	5d		 pop	 ebp
  00042	c2 04 00	 ret	 4
?OnCodeUnAdvise@CFloatingHogaDlg@@QAEXPBD@Z ENDP	; CFloatingHogaDlg::OnCodeUnAdvise
_TEXT	ENDS
; Function compile flags: /Ogtp
; File D:\git\src\IBK\IBK_DRFN\ProjSrc\SrcDrfn\Chart\MULTICHART\FloatingHogaDlg.cpp
;	COMDAT ?OnCodeAdvise@CFloatingHogaDlg@@QAEXPBD@Z
_TEXT	SEGMENT
_strCode$ = 8						; size = 4
?OnCodeAdvise@CFloatingHogaDlg@@QAEXPBD@Z PROC		; CFloatingHogaDlg::OnCodeAdvise, COMDAT
; _this$ = ecx

; 2542 : {

  00000	55		 push	 ebp
  00001	8b ec		 mov	 ebp, esp
  00003	57		 push	 edi
  00004	8b f9		 mov	 edi, ecx

; 2543 : 	if(!m_pDrdsLib) return;

  00006	8b 97 60 06 00
	00		 mov	 edx, DWORD PTR [edi+1632]
  0000c	85 d2		 test	 edx, edx
  0000e	74 30		 je	 SHORT $LN1@OnCodeAdvi

; 2544 : 
; 2545 : 	int nKXH1RealType = 1;	// 1:
; 2546 : 	m_pDrdsLib->DrdsAdvise(nKXH1RealType, "KXH1", "*", (LPSTR)strCode);

  00010	ff 75 08	 push	 DWORD PTR _strCode$[ebp]
  00013	8b 02		 mov	 eax, DWORD PTR [edx]
  00015	68 00 00 00 00	 push	 OFFSET ??_C@_01NBENCBCI@?$CK@
  0001a	68 00 00 00 00	 push	 OFFSET ??_C@_04KAJDJNDN@KXH1@
  0001f	6a 01		 push	 1
  00021	52		 push	 edx
  00022	ff 50 10	 call	 DWORD PTR [eax+16]

; 2547 : 	int nKXYSRealType = 23;	// 1:
; 2548 : 	m_pDrdsLib->DrdsAdvise(nKXYSRealType, "KXYS", "*", (LPSTR)strCode);

  00025	ff 75 08	 push	 DWORD PTR _strCode$[ebp]
  00028	8b 87 60 06 00
	00		 mov	 eax, DWORD PTR [edi+1632]
  0002e	68 00 00 00 00	 push	 OFFSET ??_C@_01NBENCBCI@?$CK@
  00033	68 00 00 00 00	 push	 OFFSET ??_C@_04OKLMFNFP@KXYS@
  00038	6a 17		 push	 23			; 00000017H
  0003a	8b 08		 mov	 ecx, DWORD PTR [eax]
  0003c	50		 push	 eax
  0003d	ff 51 10	 call	 DWORD PTR [ecx+16]
$LN1@OnCodeAdvi:
  00040	5f		 pop	 edi

; 2549 : }

  00041	5d		 pop	 ebp
  00042	c2 04 00	 ret	 4
?OnCodeAdvise@CFloatingHogaDlg@@QAEXPBD@Z ENDP		; CFloatingHogaDlg::OnCodeAdvise
_TEXT	ENDS
; Function compile flags: /Ogtp
; File D:\git\src\IBK\IBK_DRFN\ProjSrc\SrcDrfn\Chart\MULTICHART\FloatingHogaDlg.cpp
; File C:\Program Files (x86)\Microsoft Visual Studio\2019\Community\VC\Tools\MSVC\14.29.30133\atlmfc\include\atlsimpstr.h
; File D:\git\src\IBK\IBK_DRFN\ProjSrc\SrcDrfn\Chart\MULTICHART\FloatingHogaDlg.cpp
;	COMDAT ?MakeDrdsUnConnectUnAdvise@CFloatingHogaDlg@@QAEHXZ
_TEXT	SEGMENT
?MakeDrdsUnConnectUnAdvise@CFloatingHogaDlg@@QAEHXZ PROC ; CFloatingHogaDlg::MakeDrdsUnConnectUnAdvise, COMDAT
; _this$ = ecx

; 2526 : {

  00000	56		 push	 esi
  00001	8b f1		 mov	 esi, ecx

; 2527 : 	if(!m_pDrdsLib) return FALSE;

  00003	8b 8e 60 06 00
	00		 mov	 ecx, DWORD PTR [esi+1632]
  00009	85 c9		 test	 ecx, ecx
  0000b	74 62		 je	 SHORT $LN15@MakeDrdsUn
; File C:\Program Files (x86)\Microsoft Visual Studio\2019\Community\VC\Tools\MSVC\14.29.30133\atlmfc\include\atlsimpstr.h

; 519  : 		return( GetData()->nDataLength );

  0000d	57		 push	 edi
  0000e	8b be c4 00 00
	00		 mov	 edi, DWORD PTR [esi+196]
; File D:\git\src\IBK\IBK_DRFN\ProjSrc\SrcDrfn\Chart\MULTICHART\FloatingHogaDlg.cpp

; 2529 : 	if(m_strCode.GetLength()>0)

  00014	83 7f f4 00	 cmp	 DWORD PTR [edi-12], 0
  00018	7e 2c		 jle	 SHORT $LN12@MakeDrdsUn

; 2556 : 	m_pDrdsLib->DrdsUnadvise(nKXH1RealType, "KXH1", "*", (LPSTR)strCode);

  0001a	8b 01		 mov	 eax, DWORD PTR [ecx]
  0001c	57		 push	 edi
  0001d	68 00 00 00 00	 push	 OFFSET ??_C@_01NBENCBCI@?$CK@
  00022	68 00 00 00 00	 push	 OFFSET ??_C@_04KAJDJNDN@KXH1@
  00027	6a 01		 push	 1
  00029	51		 push	 ecx
  0002a	ff 50 14	 call	 DWORD PTR [eax+20]

; 2557 : 	int nKXYSRealType = 23;	// 1:
; 2558 : 	m_pDrdsLib->DrdsUnadvise(nKXYSRealType, "KXYS", "*", (LPSTR)strCode);

  0002d	8b 86 60 06 00
	00		 mov	 eax, DWORD PTR [esi+1632]
  00033	57		 push	 edi
  00034	68 00 00 00 00	 push	 OFFSET ??_C@_01NBENCBCI@?$CK@
  00039	68 00 00 00 00	 push	 OFFSET ??_C@_04OKLMFNFP@KXYS@
  0003e	8b 08		 mov	 ecx, DWORD PTR [eax]
  00040	6a 17		 push	 23			; 00000017H
  00042	50		 push	 eax
  00043	ff 51 14	 call	 DWORD PTR [ecx+20]
$LN12@MakeDrdsUn:

; 2530 : 		OnCodeUnAdvise(m_strCode);	// Old Code
; 2531 : 
; 2532 : 	IAUDrdsManager* pDrdsMng = (IAUDrdsManager*)AfxGetPctrInterface(UUID_IAUDrdsManager);

  00046	6a 13		 push	 19			; 00000013H
  00048	e8 00 00 00 00	 call	 ?AfxGetPctrInterface@@YGJH@Z ; AfxGetPctrInterface
  0004d	5f		 pop	 edi

; 2533 : 	if(!pDrdsMng) return FALSE;

  0004e	85 c0		 test	 eax, eax
  00050	74 1d		 je	 SHORT $LN15@MakeDrdsUn

; 2534 : 
; 2535 : 	pDrdsMng->UnadviseDrdsLib(m_pDrdsLib);

  00052	ff b6 60 06 00
	00		 push	 DWORD PTR [esi+1632]
  00058	8b 08		 mov	 ecx, DWORD PTR [eax]
  0005a	50		 push	 eax
  0005b	ff 51 04	 call	 DWORD PTR [ecx+4]

; 2536 : 	m_pDrdsLib = NULL;

  0005e	c7 86 60 06 00
	00 00 00 00 00	 mov	 DWORD PTR [esi+1632], 0

; 2537 : 
; 2538 : 	return TRUE;

  00068	b8 01 00 00 00	 mov	 eax, 1
  0006d	5e		 pop	 esi

; 2539 : }

  0006e	c3		 ret	 0
$LN15@MakeDrdsUn:

; 2533 : 	if(!pDrdsMng) return FALSE;

  0006f	33 c0		 xor	 eax, eax
  00071	5e		 pop	 esi

; 2539 : }

  00072	c3		 ret	 0
?MakeDrdsUnConnectUnAdvise@CFloatingHogaDlg@@QAEHXZ ENDP ; CFloatingHogaDlg::MakeDrdsUnConnectUnAdvise
_TEXT	ENDS
; Function compile flags: /Ogtp
; File D:\git\src\IBK\IBK_DRFN\ProjSrc\SrcDrfn\Chart\MULTICHART\FloatingHogaDlg.cpp
;	COMDAT ?MakeDrdsConnectAdvise@CFloatingHogaDlg@@QAEHXZ
_TEXT	SEGMENT
?MakeDrdsConnectAdvise@CFloatingHogaDlg@@QAEHXZ PROC	; CFloatingHogaDlg::MakeDrdsConnectAdvise, COMDAT
; _this$ = ecx

; 2513 : {

  00000	56		 push	 esi

; 2514 : 	IAUDrdsManager* pDrdsMng = (IAUDrdsManager*)AfxGetPctrInterface(UUID_IAUDrdsManager);

  00001	6a 13		 push	 19			; 00000013H
  00003	8b f1		 mov	 esi, ecx
  00005	e8 00 00 00 00	 call	 ?AfxGetPctrInterface@@YGJH@Z ; AfxGetPctrInterface

; 2515 : 	if(!pDrdsMng) return FALSE;

  0000a	85 c0		 test	 eax, eax
  0000c	74 1e		 je	 SHORT $LN5@MakeDrdsCo

; 2516 : 
; 2517 : 	m_pDrdsLib = pDrdsMng->AdviseDrdsLib();

  0000e	8b 10		 mov	 edx, DWORD PTR [eax]
  00010	50		 push	 eax
  00011	ff 12		 call	 DWORD PTR [edx]
  00013	89 86 60 06 00
	00		 mov	 DWORD PTR [esi+1632], eax

; 2518 : 	if(!m_pDrdsLib) return FALSE;

  00019	85 c0		 test	 eax, eax
  0001b	74 0f		 je	 SHORT $LN5@MakeDrdsCo

; 2519 : 
; 2520 : 	m_pDrdsLib->DrdsInit(m_hWnd);

  0001d	ff 76 20	 push	 DWORD PTR [esi+32]
  00020	8b 08		 mov	 ecx, DWORD PTR [eax]
  00022	50		 push	 eax
  00023	ff 11		 call	 DWORD PTR [ecx]

; 2521 : 
; 2522 : 	return TRUE;

  00025	b8 01 00 00 00	 mov	 eax, 1
  0002a	5e		 pop	 esi

; 2523 : }

  0002b	c3		 ret	 0
$LN5@MakeDrdsCo:

; 2518 : 	if(!m_pDrdsLib) return FALSE;

  0002c	33 c0		 xor	 eax, eax
  0002e	5e		 pop	 esi

; 2523 : }

  0002f	c3		 ret	 0
?MakeDrdsConnectAdvise@CFloatingHogaDlg@@QAEHXZ ENDP	; CFloatingHogaDlg::MakeDrdsConnectAdvise
_TEXT	ENDS
; Function compile flags: /Ogtp
; File D:\git\src\IBK\IBK_DRFN\ProjSrc\SrcDrfn\Chart\MULTICHART\FloatingHogaDlg.cpp
;	COMDAT ?GetMessageMap@CFloatingHogaDlg@@MBEPBUAFX_MSGMAP@@XZ
_TEXT	SEGMENT
?GetMessageMap@CFloatingHogaDlg@@MBEPBUAFX_MSGMAP@@XZ PROC ; CFloatingHogaDlg::GetMessageMap, COMDAT
; _this$ = ecx

; 101  : BEGIN_MESSAGE_MAP(CFloatingHogaDlg, CRscDlg)

  00000	b8 00 00 00 00	 mov	 eax, OFFSET ?messageMap@?1??GetThisMessageMap@CFloatingHogaDlg@@KGPBUAFX_MSGMAP@@XZ@4U3@B
  00005	c3		 ret	 0
?GetMessageMap@CFloatingHogaDlg@@MBEPBUAFX_MSGMAP@@XZ ENDP ; CFloatingHogaDlg::GetMessageMap
_TEXT	ENDS
; Function compile flags: /Ogtp
; File D:\git\src\IBK\IBK_DRFN\ProjSrc\SrcDrfn\Chart\MULTICHART\FloatingHogaDlg.cpp
;	COMDAT ?GetThisMessageMap@CFloatingHogaDlg@@KGPBUAFX_MSGMAP@@XZ
_TEXT	SEGMENT
?GetThisMessageMap@CFloatingHogaDlg@@KGPBUAFX_MSGMAP@@XZ PROC ; CFloatingHogaDlg::GetThisMessageMap, COMDAT

; 102  : 	//{{AFX_MSG_MAP(CFloatingHogaDlg)
; 103  : 	ON_WM_LBUTTONDOWN()	
; 104  : 	ON_WM_SIZE()
; 105  : 	ON_WM_LBUTTONDBLCLK()
; 106  : 	ON_WM_LBUTTONUP()
; 107  : 	ON_WM_MOUSEMOVE()
; 108  : 	ON_WM_DESTROY()
; 109  : 	ON_WM_SETCURSOR()
; 110  : 	ON_WM_PAINT()
; 111  : 	ON_BN_CLICKED(IDC_BUTTON_CLOSE, OnButtonClose)
; 112  : //@solomon	20091113	-->>
; 113  : //	ON_BN_CLICKED(IDC_BUTTON_SELL, OnButtonSell)
; 114  : //	ON_BN_CLICKED(IDC_BUTTON_BUY, OnButtonBuy)
; 115  : //@solomon	20091113	<<--
; 116  : 	ON_WM_ERASEBKGND()
; 117  : 	ON_WM_NCHITTEST()
; 118  : 	//}}AFX_MSG_MAP	
; 119  : END_MESSAGE_MAP()

  00000	b8 00 00 00 00	 mov	 eax, OFFSET ?messageMap@?1??GetThisMessageMap@CFloatingHogaDlg@@KGPBUAFX_MSGMAP@@XZ@4U3@B
  00005	c3		 ret	 0
?GetThisMessageMap@CFloatingHogaDlg@@KGPBUAFX_MSGMAP@@XZ ENDP ; CFloatingHogaDlg::GetThisMessageMap
_TEXT	ENDS
; Function compile flags: /Ogtp
; File D:\git\src\IBK\IBK_DRFN\ProjSrc\SrcDrfn\Chart\MULTICHART\FloatingHogaDlg.cpp
; File C:\Program Files (x86)\Microsoft Visual Studio\2019\Community\VC\Tools\MSVC\14.29.30133\atlmfc\include\afxwin2.inl
; File D:\git\src\IBK\IBK_DRFN\ProjSrc\SrcDrfn\Chart\MULTICHART\FloatingHogaDlg.cpp
;	COMDAT ?OnNcHitTest@CFloatingHogaDlg@@IAEJVCPoint@@@Z
_TEXT	SEGMENT
_point$ = 8						; size = 8
?OnNcHitTest@CFloatingHogaDlg@@IAEJVCPoint@@@Z PROC	; CFloatingHogaDlg::OnNcHitTest, COMDAT
; _this$ = ecx
; File C:\Program Files (x86)\Microsoft Visual Studio\2019\Community\VC\Tools\MSVC\14.29.30133\atlmfc\include\afxwin2.inl

; 350  : 	{ return Default(); }

  00000	e8 00 00 00 00	 call	 ?Default@CWnd@@IAEJXZ	; CWnd::Default
; File D:\git\src\IBK\IBK_DRFN\ProjSrc\SrcDrfn\Chart\MULTICHART\FloatingHogaDlg.cpp

; 2877 : }

  00005	c2 08 00	 ret	 8
?OnNcHitTest@CFloatingHogaDlg@@IAEJVCPoint@@@Z ENDP	; CFloatingHogaDlg::OnNcHitTest
_TEXT	ENDS
; Function compile flags: /Ogtp
; File D:\git\src\IBK\IBK_DRFN\ProjSrc\SrcDrfn\Chart\MULTICHART\FloatingHogaDlg.cpp
;	COMDAT ?OnEraseBkgnd@CFloatingHogaDlg@@IAEHPAVCDC@@@Z
_TEXT	SEGMENT
_pDC$ = 8						; size = 4
?OnEraseBkgnd@CFloatingHogaDlg@@IAEHPAVCDC@@@Z PROC	; CFloatingHogaDlg::OnEraseBkgnd, COMDAT
; _this$ = ecx

; 2508 : 	return TRUE;

  00000	b8 01 00 00 00	 mov	 eax, 1

; 2509 : }

  00005	c2 04 00	 ret	 4
?OnEraseBkgnd@CFloatingHogaDlg@@IAEHPAVCDC@@@Z ENDP	; CFloatingHogaDlg::OnEraseBkgnd
_TEXT	ENDS
; Function compile flags: /Ogtp
; File D:\git\src\IBK\IBK_DRFN\ProjSrc\SrcDrfn\Chart\MULTICHART\FloatingHogaDlg.cpp
; File C:\Program Files (x86)\Microsoft Visual Studio\2019\Community\VC\Tools\MSVC\14.29.30133\atlmfc\include\afxwin2.inl
; File C:\Program Files (x86)\Microsoft Visual Studio\2019\Community\VC\Tools\MSVC\14.29.30133\atlmfc\include\atltypes.h
; File C:\Program Files (x86)\Microsoft Visual Studio\2019\Community\VC\Tools\MSVC\14.29.30133\atlmfc\include\afxwin2.inl
; File D:\git\src\IBK\IBK_DRFN\ProjSrc\SrcDrfn\Chart\MULTICHART\FloatingHogaDlg.cpp
; File C:\Program Files (x86)\Microsoft Visual Studio\2019\Community\VC\Tools\MSVC\14.29.30133\atlmfc\include\afxwin2.inl
; File D:\git\src\IBK\IBK_DRFN\ProjSrc\SrcDrfn\Chart\MULTICHART\FloatingHogaDlg.cpp
; File C:\Program Files (x86)\Microsoft Visual Studio\2019\Community\VC\Tools\MSVC\14.29.30133\atlmfc\include\afxwin2.inl
; File D:\git\src\IBK\IBK_DRFN\ProjSrc\SrcDrfn\Chart\MULTICHART\FloatingHogaDlg.cpp
; File C:\Program Files (x86)\Microsoft Visual Studio\2019\Community\VC\Tools\MSVC\14.29.30133\atlmfc\include\atlsimpstr.h
; File D:\git\src\IBK\IBK_DRFN\ProjSrc\SrcDrfn\Chart\MULTICHART\FloatingHogaDlg.cpp
;	COMDAT ?OnButtonClose@CFloatingHogaDlg@@IAEXXZ
_TEXT	SEGMENT
_dlgRect$ = -20						; size = 16
__$ArrayPad$ = -4					; size = 4
?OnButtonClose@CFloatingHogaDlg@@IAEXXZ PROC		; CFloatingHogaDlg::OnButtonClose, COMDAT
; _this$ = ecx

; 2451 : {

  00000	55		 push	 ebp
  00001	8b ec		 mov	 ebp, esp
  00003	83 ec 14	 sub	 esp, 20			; 00000014H
  00006	a1 00 00 00 00	 mov	 eax, DWORD PTR ___security_cookie
  0000b	33 c5		 xor	 eax, ebp
  0000d	89 45 fc	 mov	 DWORD PTR __$ArrayPad$[ebp], eax
  00010	56		 push	 esi
  00011	8b f1		 mov	 esi, ecx
; File C:\Program Files (x86)\Microsoft Visual Studio\2019\Community\VC\Tools\MSVC\14.29.30133\atlmfc\include\afxwin2.inl

; 84   : 	{ ASSERT(::IsWindow(m_hWnd)); ::GetWindowRect(m_hWnd, lpRect); }

  00013	8d 45 ec	 lea	 eax, DWORD PTR _dlgRect$[ebp]
  00016	50		 push	 eax
  00017	0f 57 c0	 xorps	 xmm0, xmm0
; File C:\Program Files (x86)\Microsoft Visual Studio\2019\Community\VC\Tools\MSVC\14.29.30133\atlmfc\include\atltypes.h

; 540  : 	left = l;

  0001a	0f 11 45 ec	 movups	 XMMWORD PTR _dlgRect$[ebp], xmm0
; File C:\Program Files (x86)\Microsoft Visual Studio\2019\Community\VC\Tools\MSVC\14.29.30133\atlmfc\include\afxwin2.inl

; 84   : 	{ ASSERT(::IsWindow(m_hWnd)); ::GetWindowRect(m_hWnd, lpRect); }

  0001e	ff b6 90 03 00
	00		 push	 DWORD PTR [esi+912]
  00024	ff 15 00 00 00
	00		 call	 DWORD PTR __imp__GetWindowRect@8
; File D:\git\src\IBK\IBK_DRFN\ProjSrc\SrcDrfn\Chart\MULTICHART\FloatingHogaDlg.cpp

; 2456 : 	m_bIconState = !m_bIconState;

  0002a	8b 8e 1c 02 00
	00		 mov	 ecx, DWORD PTR [esi+540]
  00030	33 c0		 xor	 eax, eax

; 2457 : 		
; 2458 : 	if(m_pMainDlg)

  00032	8b 96 34 02 00
	00		 mov	 edx, DWORD PTR [esi+564]
  00038	85 c9		 test	 ecx, ecx
  0003a	0f 94 c0	 sete	 al
  0003d	89 86 1c 02 00
	00		 mov	 DWORD PTR [esi+540], eax
  00043	85 d2		 test	 edx, edx
  00045	74 20		 je	 SHORT $LN2@OnButtonCl
; File C:\Program Files (x86)\Microsoft Visual Studio\2019\Community\VC\Tools\MSVC\14.29.30133\atlmfc\include\afxwin2.inl

; 32   : 	{ ASSERT(::IsWindow(m_hWnd)); return ::SendMessage(m_hWnd, message, wParam, lParam); }

  00047	8d 45 ec	 lea	 eax, DWORD PTR _dlgRect$[ebp]
  0004a	50		 push	 eax
; File D:\git\src\IBK\IBK_DRFN\ProjSrc\SrcDrfn\Chart\MULTICHART\FloatingHogaDlg.cpp

; 2459 : 		m_pMainDlg->SendMessage(USMG_PLEASE_RESIZE, m_bIconState ? 1 : 0, (LPARAM)&dlgRect);

  0004b	33 c0		 xor	 eax, eax
  0004d	85 c9		 test	 ecx, ecx
  0004f	0f 94 c0	 sete	 al
; File C:\Program Files (x86)\Microsoft Visual Studio\2019\Community\VC\Tools\MSVC\14.29.30133\atlmfc\include\afxwin2.inl

; 32   : 	{ ASSERT(::IsWindow(m_hWnd)); return ::SendMessage(m_hWnd, message, wParam, lParam); }

  00052	50		 push	 eax
  00053	68 96 04 00 00	 push	 1174			; 00000496H
  00058	ff 72 20	 push	 DWORD PTR [edx+32]
  0005b	ff 15 00 00 00
	00		 call	 DWORD PTR __imp__SendMessageA@16
  00061	8b 86 1c 02 00
	00		 mov	 eax, DWORD PTR [esi+540]
$LN2@OnButtonCl:
; File D:\git\src\IBK\IBK_DRFN\ProjSrc\SrcDrfn\Chart\MULTICHART\FloatingHogaDlg.cpp

; 2461 : 	if(m_bIconState && m_strCode.GetLength()>0)

  00067	85 c0		 test	 eax, eax
  00069	74 44		 je	 SHORT $LN17@OnButtonCl
; File C:\Program Files (x86)\Microsoft Visual Studio\2019\Community\VC\Tools\MSVC\14.29.30133\atlmfc\include\atlsimpstr.h

; 519  : 		return( GetData()->nDataLength );

  0006b	57		 push	 edi
  0006c	8b be c4 00 00
	00		 mov	 edi, DWORD PTR [esi+196]
; File D:\git\src\IBK\IBK_DRFN\ProjSrc\SrcDrfn\Chart\MULTICHART\FloatingHogaDlg.cpp

; 2461 : 	if(m_bIconState && m_strCode.GetLength()>0)

  00072	83 7f f4 00	 cmp	 DWORD PTR [edi-12], 0
  00076	7e 36		 jle	 SHORT $LN31@OnButtonCl

; 2553 : 	if(!m_pDrdsLib) return;

  00078	8b 8e 60 06 00
	00		 mov	 ecx, DWORD PTR [esi+1632]
  0007e	85 c9		 test	 ecx, ecx
  00080	74 2c		 je	 SHORT $LN31@OnButtonCl

; 2554 : 
; 2555 : 	int nKXH1RealType = 1;	// 1:
; 2556 : 	m_pDrdsLib->DrdsUnadvise(nKXH1RealType, "KXH1", "*", (LPSTR)strCode);

  00082	8b 01		 mov	 eax, DWORD PTR [ecx]
  00084	57		 push	 edi
  00085	68 00 00 00 00	 push	 OFFSET ??_C@_01NBENCBCI@?$CK@
  0008a	68 00 00 00 00	 push	 OFFSET ??_C@_04KAJDJNDN@KXH1@
  0008f	6a 01		 push	 1
  00091	51		 push	 ecx
  00092	ff 50 14	 call	 DWORD PTR [eax+20]

; 2557 : 	int nKXYSRealType = 23;	// 1:
; 2558 : 	m_pDrdsLib->DrdsUnadvise(nKXYSRealType, "KXYS", "*", (LPSTR)strCode);

  00095	8b 86 60 06 00
	00		 mov	 eax, DWORD PTR [esi+1632]
  0009b	57		 push	 edi
  0009c	68 00 00 00 00	 push	 OFFSET ??_C@_01NBENCBCI@?$CK@
  000a1	68 00 00 00 00	 push	 OFFSET ??_C@_04OKLMFNFP@KXYS@
  000a6	8b 08		 mov	 ecx, DWORD PTR [eax]
  000a8	6a 17		 push	 23			; 00000017H
  000aa	50		 push	 eax
  000ab	ff 51 14	 call	 DWORD PTR [ecx+20]
$LN31@OnButtonCl:
  000ae	5f		 pop	 edi
$LN17@OnButtonCl:

; 2462 : 		OnCodeUnAdvise(m_strCode);	// Old Code
; 2463 : }

  000af	8b 4d fc	 mov	 ecx, DWORD PTR __$ArrayPad$[ebp]
  000b2	33 cd		 xor	 ecx, ebp
  000b4	5e		 pop	 esi
  000b5	e8 00 00 00 00	 call	 @__security_check_cookie@4
  000ba	8b e5		 mov	 esp, ebp
  000bc	5d		 pop	 ebp
  000bd	c3		 ret	 0
?OnButtonClose@CFloatingHogaDlg@@IAEXXZ ENDP		; CFloatingHogaDlg::OnButtonClose
_TEXT	ENDS
; Function compile flags: /Ogtp
; File D:\git\src\IBK\IBK_DRFN\ProjSrc\SrcDrfn\Chart\MULTICHART\FloatingHogaDlg.cpp
; File C:\Program Files (x86)\Microsoft Visual Studio\2019\Community\VC\Tools\MSVC\14.29.30133\atlmfc\include\afxwin2.inl
; File D:\git\src\IBK\IBK_DRFN\ProjSrc\SrcDrfn\Chart\MULTICHART\FloatingHogaDlg.cpp
; File C:\Program Files (x86)\Microsoft Visual Studio\2019\Community\VC\Tools\MSVC\14.29.30133\atlmfc\include\afxwin2.inl
; File C:\Program Files (x86)\Microsoft Visual Studio\2019\Community\VC\Tools\MSVC\14.29.30133\atlmfc\include\atltypes.h
; File C:\Program Files (x86)\Microsoft Visual Studio\2019\Community\VC\Tools\MSVC\14.29.30133\atlmfc\include\afxwin2.inl
; File D:\git\src\IBK\IBK_DRFN\ProjSrc\SrcDrfn\Chart\MULTICHART\FloatingHogaDlg.cpp
; File C:\Program Files (x86)\Microsoft Visual Studio\2019\Community\VC\Tools\MSVC\14.29.30133\atlmfc\include\afxwin1.inl
; File D:\git\src\IBK\IBK_DRFN\ProjSrc\SrcDrfn\Chart\MULTICHART\FloatingHogaDlg.cpp
; File C:\Program Files (x86)\Microsoft Visual Studio\2019\Community\VC\Tools\MSVC\14.29.30133\atlmfc\include\afxwin1.inl
; File C:\Program Files (x86)\Microsoft Visual Studio\2019\Community\VC\Tools\MSVC\14.29.30133\atlmfc\include\atltypes.h
; File C:\Program Files (x86)\Microsoft Visual Studio\2019\Community\VC\Tools\MSVC\14.29.30133\atlmfc\include\afxwin1.inl
; File D:\git\src\IBK\IBK_DRFN\ProjSrc\SrcDrfn\Chart\MULTICHART\FloatingHogaDlg.cpp
; File C:\Program Files (x86)\Microsoft Visual Studio\2019\Community\VC\Tools\MSVC\14.29.30133\atlmfc\include\atltypes.h
; File C:\Program Files (x86)\Microsoft Visual Studio\2019\Community\VC\Tools\MSVC\14.29.30133\atlmfc\include\afxwin1.inl
; File D:\git\src\IBK\IBK_DRFN\ProjSrc\SrcDrfn\Chart\MULTICHART\FloatingHogaDlg.cpp
; File C:\Program Files (x86)\Microsoft Visual Studio\2019\Community\VC\Tools\MSVC\14.29.30133\atlmfc\include\afxwin1.inl
; File D:\git\src\IBK\IBK_DRFN\ProjSrc\SrcDrfn\Chart\MULTICHART\FloatingHogaDlg.cpp
;	COMDAT ?OnPaint@CFloatingHogaDlg@@IAEXXZ
_TEXT	SEGMENT
_memDC$ = -140						; size = 16
_bitmap$ = -124						; size = 8
_dc$ = -116						; size = 84
_rcClient$ = -32					; size = 16
__$ArrayPad$ = -16					; size = 4
__$EHRec$ = -12						; size = 12
?OnPaint@CFloatingHogaDlg@@IAEXXZ PROC			; CFloatingHogaDlg::OnPaint, COMDAT
; _this$ = ecx

; 2336 : {

  00000	55		 push	 ebp
  00001	8b ec		 mov	 ebp, esp
  00003	6a ff		 push	 -1
  00005	68 00 00 00 00	 push	 __ehhandler$?OnPaint@CFloatingHogaDlg@@IAEXXZ
  0000a	64 a1 00 00 00
	00		 mov	 eax, DWORD PTR fs:0
  00010	50		 push	 eax
  00011	81 ec 80 00 00
	00		 sub	 esp, 128		; 00000080H
  00017	a1 00 00 00 00	 mov	 eax, DWORD PTR ___security_cookie
  0001c	33 c5		 xor	 eax, ebp
  0001e	89 45 f0	 mov	 DWORD PTR __$ArrayPad$[ebp], eax
  00021	56		 push	 esi
  00022	57		 push	 edi
  00023	50		 push	 eax
  00024	8d 45 f4	 lea	 eax, DWORD PTR __$EHRec$[ebp]
  00027	64 a3 00 00 00
	00		 mov	 DWORD PTR fs:0, eax
  0002d	8b f1		 mov	 esi, ecx

; 2337 : 	CPaintDC dc(this); // device context for painting

  0002f	56		 push	 esi
  00030	8d 4d 8c	 lea	 ecx, DWORD PTR _dc$[ebp]
  00033	e8 00 00 00 00	 call	 ??0CPaintDC@@QAE@PAVCWnd@@@Z ; CPaintDC::CPaintDC
; File C:\Program Files (x86)\Microsoft Visual Studio\2019\Community\VC\Tools\MSVC\14.29.30133\atlmfc\include\afxwin2.inl

; 86   : 	{ ASSERT(::IsWindow(m_hWnd)); ::GetClientRect(m_hWnd, lpRect); }

  00038	8d 45 e0	 lea	 eax, DWORD PTR _rcClient$[ebp]
; File D:\git\src\IBK\IBK_DRFN\ProjSrc\SrcDrfn\Chart\MULTICHART\FloatingHogaDlg.cpp

; 2337 : 	CPaintDC dc(this); // device context for painting

  0003b	c7 45 fc 00 00
	00 00		 mov	 DWORD PTR __$EHRec$[ebp+8], 0
; File C:\Program Files (x86)\Microsoft Visual Studio\2019\Community\VC\Tools\MSVC\14.29.30133\atlmfc\include\afxwin2.inl

; 86   : 	{ ASSERT(::IsWindow(m_hWnd)); ::GetClientRect(m_hWnd, lpRect); }

  00042	50		 push	 eax
  00043	ff 76 20	 push	 DWORD PTR [esi+32]
  00046	0f 57 c0	 xorps	 xmm0, xmm0
; File C:\Program Files (x86)\Microsoft Visual Studio\2019\Community\VC\Tools\MSVC\14.29.30133\atlmfc\include\atltypes.h

; 528  : 	left = 0;

  00049	0f 11 45 e0	 movups	 XMMWORD PTR _rcClient$[ebp], xmm0
; File C:\Program Files (x86)\Microsoft Visual Studio\2019\Community\VC\Tools\MSVC\14.29.30133\atlmfc\include\afxwin2.inl

; 86   : 	{ ASSERT(::IsWindow(m_hWnd)); ::GetClientRect(m_hWnd, lpRect); }

  0004d	ff 15 00 00 00
	00		 call	 DWORD PTR __imp__GetClientRect@8
; File D:\git\src\IBK\IBK_DRFN\ProjSrc\SrcDrfn\Chart\MULTICHART\FloatingHogaDlg.cpp

; 2341 : 	CDC memDC;

  00053	8d 8d 74 ff ff
	ff		 lea	 ecx, DWORD PTR _memDC$[ebp]
  00059	e8 00 00 00 00	 call	 ??0CDC@@QAE@XZ		; CDC::CDC
; File C:\Program Files (x86)\Microsoft Visual Studio\2019\Community\VC\Tools\MSVC\14.29.30133\atlmfc\include\afxwin1.inl

; 70   : 	{ m_hObject = NULL; }

  0005e	c7 45 88 00 00
	00 00		 mov	 DWORD PTR _bitmap$[ebp+4], 0

; 177  : 	{ }

  00065	c7 45 84 00 00
	00 00		 mov	 DWORD PTR _bitmap$[ebp], OFFSET ??_7CBitmap@@6B@

; 330  : 	{ return Attach(::CreateCompatibleDC(pDC->GetSafeHdc())); }

  0006c	ff 75 90	 push	 DWORD PTR _dc$[ebp+4]
; File D:\git\src\IBK\IBK_DRFN\ProjSrc\SrcDrfn\Chart\MULTICHART\FloatingHogaDlg.cpp

; 2342 : 	CBitmap bitmap;

  0006f	c6 45 fc 02	 mov	 BYTE PTR __$EHRec$[ebp+8], 2
; File C:\Program Files (x86)\Microsoft Visual Studio\2019\Community\VC\Tools\MSVC\14.29.30133\atlmfc\include\afxwin1.inl

; 330  : 	{ return Attach(::CreateCompatibleDC(pDC->GetSafeHdc())); }

  00073	ff 15 00 00 00
	00		 call	 DWORD PTR __imp__CreateCompatibleDC@4
  00079	50		 push	 eax
  0007a	8d 8d 74 ff ff
	ff		 lea	 ecx, DWORD PTR _memDC$[ebp]
  00080	e8 00 00 00 00	 call	 ?Attach@CDC@@QAEHPAUHDC__@@@Z ; CDC::Attach
; File C:\Program Files (x86)\Microsoft Visual Studio\2019\Community\VC\Tools\MSVC\14.29.30133\atlmfc\include\atltypes.h

; 581  : 	return bottom - top;

  00085	8b 4d ec	 mov	 ecx, DWORD PTR _rcClient$[ebp+12]
  00088	2b 4d e4	 sub	 ecx, DWORD PTR _rcClient$[ebp+4]

; 576  : 	return right - left;

  0008b	8b 45 e8	 mov	 eax, DWORD PTR _rcClient$[ebp+8]
  0008e	2b 45 e0	 sub	 eax, DWORD PTR _rcClient$[ebp]
; File C:\Program Files (x86)\Microsoft Visual Studio\2019\Community\VC\Tools\MSVC\14.29.30133\atlmfc\include\afxwin1.inl

; 217  : 	{ return Attach(::CreateCompatibleBitmap(pDC->m_hDC, nWidth, nHeight)); }

  00091	51		 push	 ecx
  00092	50		 push	 eax
  00093	ff 75 90	 push	 DWORD PTR _dc$[ebp+4]
  00096	ff 15 00 00 00
	00		 call	 DWORD PTR __imp__CreateCompatibleBitmap@12
  0009c	50		 push	 eax
  0009d	8d 4d 84	 lea	 ecx, DWORD PTR _bitmap$[ebp]
  000a0	e8 00 00 00 00	 call	 ?Attach@CGdiObject@@QAEHPAX@Z ; CGdiObject::Attach

; 361  : 	{ ASSERT(m_hDC != NULL); return (CBitmap*) SelectGdiObject(m_hDC, pBitmap->GetSafeHandle()); }

  000a5	ff 75 88	 push	 DWORD PTR _bitmap$[ebp+4]
  000a8	ff b5 78 ff ff
	ff		 push	 DWORD PTR _memDC$[ebp+4]
  000ae	e8 00 00 00 00	 call	 ?SelectGdiObject@CDC@@KGPAVCGdiObject@@PAUHDC__@@PAX@Z ; CDC::SelectGdiObject
; File D:\git\src\IBK\IBK_DRFN\ProjSrc\SrcDrfn\Chart\MULTICHART\FloatingHogaDlg.cpp

; 2347 : 	memDC.FillSolidRect(rcClient, GetSysColor(COLOR_WINDOW));

  000b3	6a 05		 push	 5
  000b5	8b f8		 mov	 edi, eax
  000b7	ff 15 00 00 00
	00		 call	 DWORD PTR __imp__GetSysColor@4
  000bd	50		 push	 eax
  000be	8d 45 e0	 lea	 eax, DWORD PTR _rcClient$[ebp]
  000c1	50		 push	 eax
  000c2	8d 8d 74 ff ff
	ff		 lea	 ecx, DWORD PTR _memDC$[ebp]
  000c8	e8 00 00 00 00	 call	 ?FillSolidRect@CDC@@QAEXPBUtagRECT@@K@Z ; CDC::FillSolidRect
; File C:\Program Files (x86)\Microsoft Visual Studio\2019\Community\VC\Tools\MSVC\14.29.30133\atlmfc\include\atltypes.h

; 581  : 	return bottom - top;

  000cd	8b 55 ec	 mov	 edx, DWORD PTR _rcClient$[ebp+12]
  000d0	8b 75 e4	 mov	 esi, DWORD PTR _rcClient$[ebp+4]
  000d3	2b d6		 sub	 edx, esi

; 576  : 	return right - left;

  000d5	8b 45 e8	 mov	 eax, DWORD PTR _rcClient$[ebp+8]
  000d8	8b 4d e0	 mov	 ecx, DWORD PTR _rcClient$[ebp]
  000db	2b c1		 sub	 eax, ecx
; File C:\Program Files (x86)\Microsoft Visual Studio\2019\Community\VC\Tools\MSVC\14.29.30133\atlmfc\include\afxwin1.inl

; 552  : 	{ ASSERT(m_hDC != NULL); return ::BitBlt(m_hDC, x, y, nWidth, nHeight,

  000dd	68 20 00 cc 00	 push	 13369376		; 00cc0020H
  000e2	6a 00		 push	 0
  000e4	6a 00		 push	 0
  000e6	ff b5 78 ff ff
	ff		 push	 DWORD PTR _memDC$[ebp+4]
  000ec	52		 push	 edx
  000ed	50		 push	 eax
  000ee	56		 push	 esi
  000ef	51		 push	 ecx
  000f0	ff 75 90	 push	 DWORD PTR _dc$[ebp+4]
  000f3	ff 15 00 00 00
	00		 call	 DWORD PTR __imp__BitBlt@36

; 68   : 	{ return this == NULL ? NULL : m_hObject; }

  000f9	85 ff		 test	 edi, edi
  000fb	75 04		 jne	 SHORT $LN46@OnPaint
  000fd	33 c0		 xor	 eax, eax
  000ff	eb 03		 jmp	 SHORT $LN47@OnPaint
$LN46@OnPaint:
  00101	8b 47 04	 mov	 eax, DWORD PTR [edi+4]
$LN47@OnPaint:

; 361  : 	{ ASSERT(m_hDC != NULL); return (CBitmap*) SelectGdiObject(m_hDC, pBitmap->GetSafeHandle()); }

  00104	50		 push	 eax
  00105	ff b5 78 ff ff
	ff		 push	 DWORD PTR _memDC$[ebp+4]
  0010b	e8 00 00 00 00	 call	 ?SelectGdiObject@CDC@@KGPAVCGdiObject@@PAUHDC__@@PAX@Z ; CDC::SelectGdiObject
; File D:\git\src\IBK\IBK_DRFN\ProjSrc\SrcDrfn\Chart\MULTICHART\FloatingHogaDlg.cpp

; 2350 : 	memDC.DeleteDC();

  00110	8d 8d 74 ff ff
	ff		 lea	 ecx, DWORD PTR _memDC$[ebp]
  00116	e8 00 00 00 00	 call	 ?DeleteDC@CDC@@QAEHXZ	; CDC::DeleteDC

; 2351 : 	bitmap.DeleteObject();

  0011b	8d 4d 84	 lea	 ecx, DWORD PTR _bitmap$[ebp]
  0011e	e8 00 00 00 00	 call	 ?DeleteObject@CGdiObject@@QAEHXZ ; CGdiObject::DeleteObject
; File C:\Program Files (x86)\Microsoft Visual Studio\2019\Community\VC\Tools\MSVC\14.29.30133\atlmfc\include\afxwin1.inl

; 179  : 	{ }

  00123	8d 4d 84	 lea	 ecx, DWORD PTR _bitmap$[ebp]
  00126	c7 45 84 00 00
	00 00		 mov	 DWORD PTR _bitmap$[ebp], OFFSET ??_7CBitmap@@6B@
  0012d	e8 00 00 00 00	 call	 ??1CGdiObject@@UAE@XZ	; CGdiObject::~CGdiObject
; File D:\git\src\IBK\IBK_DRFN\ProjSrc\SrcDrfn\Chart\MULTICHART\FloatingHogaDlg.cpp

; 2352 : }

  00132	8d 8d 74 ff ff
	ff		 lea	 ecx, DWORD PTR _memDC$[ebp]
  00138	e8 00 00 00 00	 call	 ??1CDC@@UAE@XZ		; CDC::~CDC
  0013d	8d 4d 8c	 lea	 ecx, DWORD PTR _dc$[ebp]
  00140	e8 00 00 00 00	 call	 ??1CPaintDC@@UAE@XZ	; CPaintDC::~CPaintDC
  00145	8b 4d f4	 mov	 ecx, DWORD PTR __$EHRec$[ebp]
  00148	64 89 0d 00 00
	00 00		 mov	 DWORD PTR fs:0, ecx
  0014f	59		 pop	 ecx
  00150	5f		 pop	 edi
  00151	5e		 pop	 esi
  00152	8b 4d f0	 mov	 ecx, DWORD PTR __$ArrayPad$[ebp]
  00155	33 cd		 xor	 ecx, ebp
  00157	e8 00 00 00 00	 call	 @__security_check_cookie@4
  0015c	8b e5		 mov	 esp, ebp
  0015e	5d		 pop	 ebp
  0015f	c3		 ret	 0
_TEXT	ENDS
;	COMDAT text$x
text$x	SEGMENT
__unwindfunclet$?OnPaint@CFloatingHogaDlg@@IAEXXZ$0:
  00000	8d 4d 8c	 lea	 ecx, DWORD PTR _dc$[ebp]
  00003	e9 00 00 00 00	 jmp	 ??1CPaintDC@@UAE@XZ	; CPaintDC::~CPaintDC
__unwindfunclet$?OnPaint@CFloatingHogaDlg@@IAEXXZ$1:
  00008	8d 8d 74 ff ff
	ff		 lea	 ecx, DWORD PTR _memDC$[ebp]
  0000e	e9 00 00 00 00	 jmp	 ??1CDC@@UAE@XZ		; CDC::~CDC
__unwindfunclet$?OnPaint@CFloatingHogaDlg@@IAEXXZ$2:
  00013	8d 4d 84	 lea	 ecx, DWORD PTR _bitmap$[ebp]
  00016	e9 00 00 00 00	 jmp	 ??1CBitmap@@UAE@XZ	; CBitmap::~CBitmap
  0001b	cc		 int	 3
  0001c	cc		 int	 3
  0001d	cc		 int	 3
  0001e	cc		 int	 3
  0001f	cc		 int	 3
__ehhandler$?OnPaint@CFloatingHogaDlg@@IAEXXZ:
  00020	90		 npad	 1
  00021	90		 npad	 1
  00022	8b 54 24 08	 mov	 edx, DWORD PTR [esp+8]
  00026	8d 42 0c	 lea	 eax, DWORD PTR [edx+12]
  00029	8b 8a 74 ff ff
	ff		 mov	 ecx, DWORD PTR [edx-140]
  0002f	33 c8		 xor	 ecx, eax
  00031	e8 00 00 00 00	 call	 @__security_check_cookie@4
  00036	8b 4a fc	 mov	 ecx, DWORD PTR [edx-4]
  00039	33 c8		 xor	 ecx, eax
  0003b	e8 00 00 00 00	 call	 @__security_check_cookie@4
  00040	b8 00 00 00 00	 mov	 eax, OFFSET __ehfuncinfo$?OnPaint@CFloatingHogaDlg@@IAEXXZ
  00045	e9 00 00 00 00	 jmp	 ___CxxFrameHandler3
text$x	ENDS
?OnPaint@CFloatingHogaDlg@@IAEXXZ ENDP			; CFloatingHogaDlg::OnPaint
; Function compile flags: /Ogtp
; File D:\git\src\IBK\IBK_DRFN\ProjSrc\SrcDrfn\Chart\MULTICHART\FloatingHogaDlg.cpp
; File C:\Program Files (x86)\Microsoft Visual Studio\2019\Community\VC\Tools\MSVC\14.29.30133\atlmfc\include\atltypes.h
; File D:\git\src\IBK\IBK_DRFN\ProjSrc\SrcDrfn\Chart\MULTICHART\FloatingHogaDlg.cpp
; File C:\Program Files (x86)\Microsoft Visual Studio\2019\Community\VC\Tools\MSVC\14.29.30133\atlmfc\include\atltypes.h
; File D:\git\src\IBK\IBK_DRFN\ProjSrc\SrcDrfn\Chart\MULTICHART\FloatingHogaDlg.cpp
; File C:\Program Files (x86)\Microsoft Visual Studio\2019\Community\VC\Tools\MSVC\14.29.30133\atlmfc\include\afxwin2.inl
; File D:\git\src\IBK\IBK_DRFN\ProjSrc\SrcDrfn\Chart\MULTICHART\FloatingHogaDlg.cpp
; File C:\Program Files (x86)\Microsoft Visual Studio\2019\Community\VC\Tools\MSVC\14.29.30133\atlmfc\include\afxwin2.inl
; File D:\git\src\IBK\IBK_DRFN\ProjSrc\SrcDrfn\Chart\MULTICHART\FloatingHogaDlg.cpp
; File C:\Program Files (x86)\Microsoft Visual Studio\2019\Community\VC\Tools\MSVC\14.29.30133\atlmfc\include\afxwin2.inl
; File D:\git\src\IBK\IBK_DRFN\ProjSrc\SrcDrfn\Chart\MULTICHART\FloatingHogaDlg.cpp
;	COMDAT ?OnSetCursor@CFloatingHogaDlg@@IAEHPAVCWnd@@II@Z
_TEXT	SEGMENT
_p$1 = -8						; size = 8
_pWnd$ = 8						; size = 4
_nHitTest$ = 12						; size = 4
_message$ = 16						; size = 4
?OnSetCursor@CFloatingHogaDlg@@IAEHPAVCWnd@@II@Z PROC	; CFloatingHogaDlg::OnSetCursor, COMDAT
; _this$ = ecx

; 2321 : {	

  00000	55		 push	 ebp
  00001	8b ec		 mov	 ebp, esp
  00003	83 ec 08	 sub	 esp, 8

; 2322 : 	static UINT msg = 512;
; 2323 :     if(msg == 513 && message == 512)

  00006	81 3d 00 00 00
	00 01 02 00 00	 cmp	 DWORD PTR ?msg@?1??OnSetCursor@CFloatingHogaDlg@@IAEHPAVCWnd@@II@Z@4IA, 513 ; 00000201H
  00010	56		 push	 esi
  00011	8b 75 10	 mov	 esi, DWORD PTR _message$[ebp]
  00014	57		 push	 edi
  00015	8b f9		 mov	 edi, ecx
  00017	75 4b		 jne	 SHORT $LN2@OnSetCurso
  00019	81 fe 00 02 00
	00		 cmp	 esi, 512		; 00000200H
  0001f	75 43		 jne	 SHORT $LN2@OnSetCurso

; 2326 :         GetCursorPos(&p);

  00021	8d 45 f8	 lea	 eax, DWORD PTR _p$1[ebp]
; File C:\Program Files (x86)\Microsoft Visual Studio\2019\Community\VC\Tools\MSVC\14.29.30133\atlmfc\include\atltypes.h

; 400  : 	x = 0;

  00024	c7 45 f8 00 00
	00 00		 mov	 DWORD PTR _p$1[ebp], 0
; File D:\git\src\IBK\IBK_DRFN\ProjSrc\SrcDrfn\Chart\MULTICHART\FloatingHogaDlg.cpp

; 2326 :         GetCursorPos(&p);

  0002b	50		 push	 eax
; File C:\Program Files (x86)\Microsoft Visual Studio\2019\Community\VC\Tools\MSVC\14.29.30133\atlmfc\include\atltypes.h

; 401  : 	y = 0;

  0002c	c7 45 fc 00 00
	00 00		 mov	 DWORD PTR _p$1[ebp+4], 0
; File D:\git\src\IBK\IBK_DRFN\ProjSrc\SrcDrfn\Chart\MULTICHART\FloatingHogaDlg.cpp

; 2326 :         GetCursorPos(&p);

  00033	ff 15 00 00 00
	00		 call	 DWORD PTR __imp__GetCursorPos@4
; File C:\Program Files (x86)\Microsoft Visual Studio\2019\Community\VC\Tools\MSVC\14.29.30133\atlmfc\include\afxwin2.inl

; 94   : 	{ ASSERT(::IsWindow(m_hWnd)); ::ScreenToClient(m_hWnd, lpPoint); }

  00039	8d 45 f8	 lea	 eax, DWORD PTR _p$1[ebp]
  0003c	50		 push	 eax
  0003d	ff 77 20	 push	 DWORD PTR [edi+32]
  00040	ff 15 00 00 00
	00		 call	 DWORD PTR __imp__ScreenToClient@8
; File D:\git\src\IBK\IBK_DRFN\ProjSrc\SrcDrfn\Chart\MULTICHART\FloatingHogaDlg.cpp

; 2328 :         SendMessage(WM_LBUTTONUP, 0, MAKELPARAM(p.x, p.y));

  00046	0f b7 4d fc	 movzx	 ecx, WORD PTR _p$1[ebp+4]
  0004a	0f b7 45 f8	 movzx	 eax, WORD PTR _p$1[ebp]
  0004e	c1 e1 10	 shl	 ecx, 16			; 00000010H
  00051	0b c8		 or	 ecx, eax
; File C:\Program Files (x86)\Microsoft Visual Studio\2019\Community\VC\Tools\MSVC\14.29.30133\atlmfc\include\afxwin2.inl

; 32   : 	{ ASSERT(::IsWindow(m_hWnd)); return ::SendMessage(m_hWnd, message, wParam, lParam); }

  00053	51		 push	 ecx
  00054	6a 00		 push	 0
  00056	68 02 02 00 00	 push	 514			; 00000202H
  0005b	ff 77 20	 push	 DWORD PTR [edi+32]
  0005e	ff 15 00 00 00
	00		 call	 DWORD PTR __imp__SendMessageA@16
$LN2@OnSetCurso:

; 326  : 	{ return (BOOL)Default(); }

  00064	8b cf		 mov	 ecx, edi
; File D:\git\src\IBK\IBK_DRFN\ProjSrc\SrcDrfn\Chart\MULTICHART\FloatingHogaDlg.cpp

; 2330 :     msg = message;

  00066	89 35 00 00 00
	00		 mov	 DWORD PTR ?msg@?1??OnSetCursor@CFloatingHogaDlg@@IAEHPAVCWnd@@II@Z@4IA, esi
; File C:\Program Files (x86)\Microsoft Visual Studio\2019\Community\VC\Tools\MSVC\14.29.30133\atlmfc\include\afxwin2.inl

; 326  : 	{ return (BOOL)Default(); }

  0006c	e8 00 00 00 00	 call	 ?Default@CWnd@@IAEJXZ	; CWnd::Default
; File D:\git\src\IBK\IBK_DRFN\ProjSrc\SrcDrfn\Chart\MULTICHART\FloatingHogaDlg.cpp

; 2332 : 	return CRscDlg::OnSetCursor(pWnd, nHitTest, message);

  00071	5f		 pop	 edi
  00072	5e		 pop	 esi

; 2333 : }

  00073	8b e5		 mov	 esp, ebp
  00075	5d		 pop	 ebp
  00076	c2 0c 00	 ret	 12			; 0000000cH
?OnSetCursor@CFloatingHogaDlg@@IAEHPAVCWnd@@II@Z ENDP	; CFloatingHogaDlg::OnSetCursor
_TEXT	ENDS
; Function compile flags: /Ogtp
; File D:\git\src\IBK\IBK_DRFN\ProjSrc\SrcDrfn\Chart\MULTICHART\FloatingHogaDlg.cpp
; File C:\Program Files (x86)\Microsoft Visual Studio\2019\Community\VC\Tools\MSVC\14.29.30133\atlmfc\include\atlsimpstr.h
; File D:\git\src\IBK\IBK_DRFN\ProjSrc\SrcDrfn\Chart\MULTICHART\FloatingHogaDlg.cpp
; File C:\Program Files (x86)\Microsoft Visual Studio\2019\Community\VC\Tools\MSVC\14.29.30133\atlmfc\include\afxwin2.inl
; File D:\git\src\IBK\IBK_DRFN\ProjSrc\SrcDrfn\Chart\MULTICHART\FloatingHogaDlg.cpp
;	COMDAT ?OnDestroy@CFloatingHogaDlg@@IAEXXZ
_TEXT	SEGMENT
?OnDestroy@CFloatingHogaDlg@@IAEXXZ PROC		; CFloatingHogaDlg::OnDestroy, COMDAT
; _this$ = ecx

; 2276 : {

  00000	56		 push	 esi
  00001	8b f1		 mov	 esi, ecx

; 2527 : 	if(!m_pDrdsLib) return FALSE;

  00003	8b 8e 60 06 00
	00		 mov	 ecx, DWORD PTR [esi+1632]
  00009	85 c9		 test	 ecx, ecx
  0000b	74 5b		 je	 SHORT $LN6@OnDestroy
; File C:\Program Files (x86)\Microsoft Visual Studio\2019\Community\VC\Tools\MSVC\14.29.30133\atlmfc\include\atlsimpstr.h

; 519  : 		return( GetData()->nDataLength );

  0000d	57		 push	 edi
  0000e	8b be c4 00 00
	00		 mov	 edi, DWORD PTR [esi+196]
; File D:\git\src\IBK\IBK_DRFN\ProjSrc\SrcDrfn\Chart\MULTICHART\FloatingHogaDlg.cpp

; 2529 : 	if(m_strCode.GetLength()>0)

  00014	83 7f f4 00	 cmp	 DWORD PTR [edi-12], 0
  00018	7e 2c		 jle	 SHORT $LN17@OnDestroy

; 2556 : 	m_pDrdsLib->DrdsUnadvise(nKXH1RealType, "KXH1", "*", (LPSTR)strCode);

  0001a	8b 01		 mov	 eax, DWORD PTR [ecx]
  0001c	57		 push	 edi
  0001d	68 00 00 00 00	 push	 OFFSET ??_C@_01NBENCBCI@?$CK@
  00022	68 00 00 00 00	 push	 OFFSET ??_C@_04KAJDJNDN@KXH1@
  00027	6a 01		 push	 1
  00029	51		 push	 ecx
  0002a	ff 50 14	 call	 DWORD PTR [eax+20]

; 2557 : 	int nKXYSRealType = 23;	// 1:
; 2558 : 	m_pDrdsLib->DrdsUnadvise(nKXYSRealType, "KXYS", "*", (LPSTR)strCode);

  0002d	8b 86 60 06 00
	00		 mov	 eax, DWORD PTR [esi+1632]
  00033	57		 push	 edi
  00034	68 00 00 00 00	 push	 OFFSET ??_C@_01NBENCBCI@?$CK@
  00039	68 00 00 00 00	 push	 OFFSET ??_C@_04OKLMFNFP@KXYS@
  0003e	8b 08		 mov	 ecx, DWORD PTR [eax]
  00040	6a 17		 push	 23			; 00000017H
  00042	50		 push	 eax
  00043	ff 51 14	 call	 DWORD PTR [ecx+20]
$LN17@OnDestroy:

; 2532 : 	IAUDrdsManager* pDrdsMng = (IAUDrdsManager*)AfxGetPctrInterface(UUID_IAUDrdsManager);

  00046	6a 13		 push	 19			; 00000013H
  00048	e8 00 00 00 00	 call	 ?AfxGetPctrInterface@@YGJH@Z ; AfxGetPctrInterface
  0004d	5f		 pop	 edi

; 2533 : 	if(!pDrdsMng) return FALSE;

  0004e	85 c0		 test	 eax, eax
  00050	74 16		 je	 SHORT $LN6@OnDestroy

; 2534 : 
; 2535 : 	pDrdsMng->UnadviseDrdsLib(m_pDrdsLib);

  00052	ff b6 60 06 00
	00		 push	 DWORD PTR [esi+1632]
  00058	8b 08		 mov	 ecx, DWORD PTR [eax]
  0005a	50		 push	 eax
  0005b	ff 51 04	 call	 DWORD PTR [ecx+4]

; 2536 : 	m_pDrdsLib = NULL;

  0005e	c7 86 60 06 00
	00 00 00 00 00	 mov	 DWORD PTR [esi+1632], 0
$LN6@OnDestroy:
; File C:\Program Files (x86)\Microsoft Visual Studio\2019\Community\VC\Tools\MSVC\14.29.30133\atlmfc\include\afxwin2.inl

; 213  : 	{ ASSERT(::IsWindow(m_hWnd)); return CWnd::FromHandle(::GetParent(m_hWnd)); }

  00068	ff 76 20	 push	 DWORD PTR [esi+32]
  0006b	ff 15 00 00 00
	00		 call	 DWORD PTR __imp__GetParent@4
  00071	50		 push	 eax
  00072	e8 00 00 00 00	 call	 ?FromHandle@CWnd@@SGPAV1@PAUHWND__@@@Z ; CWnd::FromHandle

; 32   : 	{ ASSERT(::IsWindow(m_hWnd)); return ::SendMessage(m_hWnd, message, wParam, lParam); }

  00077	6a 00		 push	 0
  00079	6a 00		 push	 0
  0007b	68 9f 04 00 00	 push	 1183			; 0000049fH
  00080	ff 70 20	 push	 DWORD PTR [eax+32]
  00083	ff 15 00 00 00
	00		 call	 DWORD PTR __imp__SendMessageA@16
; File D:\git\src\IBK\IBK_DRFN\ProjSrc\SrcDrfn\Chart\MULTICHART\FloatingHogaDlg.cpp

; 2288 : 	HogaMemoryFree();	

  00089	8b ce		 mov	 ecx, esi
  0008b	e8 00 00 00 00	 call	 ?HogaMemoryFree@CFloatingHogaDlg@@QAEXXZ ; CFloatingHogaDlg::HogaMemoryFree

; 2289 : 	if(m_pGridCtrl)

  00090	8b 8e cc 00 00
	00		 mov	 ecx, DWORD PTR [esi+204]
  00096	85 c9		 test	 ecx, ecx
  00098	74 11		 je	 SHORT $LN2@OnDestroy

; 2290 : 	{
; 2291 : 		delete m_pGridCtrl;

  0009a	8b 01		 mov	 eax, DWORD PTR [ecx]
  0009c	6a 01		 push	 1
  0009e	ff 50 04	 call	 DWORD PTR [eax+4]

; 2292 : 		m_pGridCtrl = NULL;

  000a1	c7 86 cc 00 00
	00 00 00 00 00	 mov	 DWORD PTR [esi+204], 0
$LN2@OnDestroy:

; 2293 : 	} 
; 2294 : 	CRscDlg::OnDestroy();	

  000ab	8b ce		 mov	 ecx, esi
  000ad	5e		 pop	 esi
  000ae	e9 00 00 00 00	 jmp	 ?OnDestroy@CWnd@@IAEXXZ	; CWnd::OnDestroy
?OnDestroy@CFloatingHogaDlg@@IAEXXZ ENDP		; CFloatingHogaDlg::OnDestroy
_TEXT	ENDS
; Function compile flags: /Ogtp
; File D:\git\src\IBK\IBK_DRFN\ProjSrc\SrcDrfn\Chart\MULTICHART\FloatingHogaDlg.cpp
; File C:\Program Files (x86)\Microsoft Visual Studio\2019\Community\VC\Tools\MSVC\14.29.30133\atlmfc\include\afxwin2.inl
; File D:\git\src\IBK\IBK_DRFN\ProjSrc\SrcDrfn\Chart\MULTICHART\FloatingHogaDlg.cpp
;	COMDAT ?OnMouseMove@CFloatingHogaDlg@@IAEXIVCPoint@@@Z
_TEXT	SEGMENT
_nFlags$ = 8						; size = 4
_point$ = 12						; size = 8
?OnMouseMove@CFloatingHogaDlg@@IAEXIVCPoint@@@Z PROC	; CFloatingHogaDlg::OnMouseMove, COMDAT
; _this$ = ecx
; File C:\Program Files (x86)\Microsoft Visual Studio\2019\Community\VC\Tools\MSVC\14.29.30133\atlmfc\include\afxwin2.inl

; 454  : 	{ Default(); }

  00000	e8 00 00 00 00	 call	 ?Default@CWnd@@IAEJXZ	; CWnd::Default
; File D:\git\src\IBK\IBK_DRFN\ProjSrc\SrcDrfn\Chart\MULTICHART\FloatingHogaDlg.cpp

; 402  : }

  00005	c2 0c 00	 ret	 12			; 0000000cH
?OnMouseMove@CFloatingHogaDlg@@IAEXIVCPoint@@@Z ENDP	; CFloatingHogaDlg::OnMouseMove
_TEXT	ENDS
; Function compile flags: /Ogtp
; File D:\git\src\IBK\IBK_DRFN\ProjSrc\SrcDrfn\Chart\MULTICHART\FloatingHogaDlg.cpp
; File C:\Program Files (x86)\Microsoft Visual Studio\2019\Community\VC\Tools\MSVC\14.29.30133\atlmfc\include\afxwin2.inl
; File D:\git\src\IBK\IBK_DRFN\ProjSrc\SrcDrfn\Chart\MULTICHART\FloatingHogaDlg.cpp
;	COMDAT ?OnLButtonUp@CFloatingHogaDlg@@IAEXIVCPoint@@@Z
_TEXT	SEGMENT
_nFlags$ = 8						; size = 4
_point$ = 12						; size = 8
?OnLButtonUp@CFloatingHogaDlg@@IAEXIVCPoint@@@Z PROC	; CFloatingHogaDlg::OnLButtonUp, COMDAT
; _this$ = ecx
; File C:\Program Files (x86)\Microsoft Visual Studio\2019\Community\VC\Tools\MSVC\14.29.30133\atlmfc\include\afxwin2.inl

; 434  : 	{ Default(); }

  00000	e8 00 00 00 00	 call	 ?Default@CWnd@@IAEJXZ	; CWnd::Default
; File D:\git\src\IBK\IBK_DRFN\ProjSrc\SrcDrfn\Chart\MULTICHART\FloatingHogaDlg.cpp

; 386  : }

  00005	c2 0c 00	 ret	 12			; 0000000cH
?OnLButtonUp@CFloatingHogaDlg@@IAEXIVCPoint@@@Z ENDP	; CFloatingHogaDlg::OnLButtonUp
_TEXT	ENDS
; Function compile flags: /Ogtp
; File D:\git\src\IBK\IBK_DRFN\ProjSrc\SrcDrfn\Chart\MULTICHART\FloatingHogaDlg.cpp
; File C:\Program Files (x86)\Microsoft Visual Studio\2019\Community\VC\Tools\MSVC\14.29.30133\atlmfc\include\afxwin2.inl
; File C:\Program Files (x86)\Microsoft Visual Studio\2019\Community\VC\Tools\MSVC\14.29.30133\atlmfc\include\atltypes.h
; File C:\Program Files (x86)\Microsoft Visual Studio\2019\Community\VC\Tools\MSVC\14.29.30133\atlmfc\include\afxwin2.inl
; File C:\Program Files (x86)\Microsoft Visual Studio\2019\Community\VC\Tools\MSVC\14.29.30133\atlmfc\include\atltypes.h
; File C:\Program Files (x86)\Microsoft Visual Studio\2019\Community\VC\Tools\MSVC\14.29.30133\atlmfc\include\afxwin2.inl
; File D:\git\src\IBK\IBK_DRFN\ProjSrc\SrcDrfn\Chart\MULTICHART\FloatingHogaDlg.cpp
; File C:\Program Files (x86)\Microsoft Visual Studio\2019\Community\VC\Tools\MSVC\14.29.30133\atlmfc\include\afxwin2.inl
; File D:\git\src\IBK\IBK_DRFN\ProjSrc\SrcDrfn\Chart\MULTICHART\FloatingHogaDlg.cpp
; File C:\Program Files (x86)\Microsoft Visual Studio\2019\Community\VC\Tools\MSVC\14.29.30133\atlmfc\include\afxwin2.inl
; File D:\git\src\IBK\IBK_DRFN\ProjSrc\SrcDrfn\Chart\MULTICHART\FloatingHogaDlg.cpp
; File C:\Program Files (x86)\Microsoft Visual Studio\2019\Community\VC\Tools\MSVC\14.29.30133\atlmfc\include\atlsimpstr.h
; File D:\git\src\IBK\IBK_DRFN\ProjSrc\SrcDrfn\Chart\MULTICHART\FloatingHogaDlg.cpp
; File C:\Program Files (x86)\Microsoft Visual Studio\2019\Community\VC\Tools\MSVC\14.29.30133\atlmfc\include\afxwin2.inl
; File D:\git\src\IBK\IBK_DRFN\ProjSrc\SrcDrfn\Chart\MULTICHART\FloatingHogaDlg.cpp
; File C:\Program Files (x86)\Microsoft Visual Studio\2019\Community\VC\Tools\MSVC\14.29.30133\atlmfc\include\afxwin2.inl
; File D:\git\src\IBK\IBK_DRFN\ProjSrc\SrcDrfn\Chart\MULTICHART\FloatingHogaDlg.cpp
;	COMDAT ?OnLButtonDblClk@CFloatingHogaDlg@@IAEXIVCPoint@@@Z
_TEXT	SEGMENT
_trect$ = -52						; size = 16
_rect$ = -36						; size = 16
_dlgRect$ = -20						; size = 16
__$ArrayPad$ = -4					; size = 4
_nFlags$ = 8						; size = 4
_point$ = 12						; size = 8
?OnLButtonDblClk@CFloatingHogaDlg@@IAEXIVCPoint@@@Z PROC ; CFloatingHogaDlg::OnLButtonDblClk, COMDAT
; _this$ = ecx

; 320  : {	

  00000	55		 push	 ebp
  00001	8b ec		 mov	 ebp, esp
  00003	83 ec 34	 sub	 esp, 52			; 00000034H
  00006	a1 00 00 00 00	 mov	 eax, DWORD PTR ___security_cookie
  0000b	33 c5		 xor	 eax, ebp
  0000d	89 45 fc	 mov	 DWORD PTR __$ArrayPad$[ebp], eax
  00010	57		 push	 edi
  00011	8b f9		 mov	 edi, ecx
; File C:\Program Files (x86)\Microsoft Visual Studio\2019\Community\VC\Tools\MSVC\14.29.30133\atlmfc\include\afxwin2.inl

; 84   : 	{ ASSERT(::IsWindow(m_hWnd)); ::GetWindowRect(m_hWnd, lpRect); }

  00013	8d 45 dc	 lea	 eax, DWORD PTR _rect$[ebp]
  00016	50		 push	 eax
  00017	0f 57 c0	 xorps	 xmm0, xmm0
; File C:\Program Files (x86)\Microsoft Visual Studio\2019\Community\VC\Tools\MSVC\14.29.30133\atlmfc\include\atltypes.h

; 540  : 	left = l;

  0001a	0f 11 45 dc	 movups	 XMMWORD PTR _rect$[ebp], xmm0
; File C:\Program Files (x86)\Microsoft Visual Studio\2019\Community\VC\Tools\MSVC\14.29.30133\atlmfc\include\afxwin2.inl

; 84   : 	{ ASSERT(::IsWindow(m_hWnd)); ::GetWindowRect(m_hWnd, lpRect); }

  0001e	ff b7 90 03 00
	00		 push	 DWORD PTR [edi+912]
; File C:\Program Files (x86)\Microsoft Visual Studio\2019\Community\VC\Tools\MSVC\14.29.30133\atlmfc\include\atltypes.h

; 540  : 	left = l;

  00024	0f 11 45 ec	 movups	 XMMWORD PTR _dlgRect$[ebp], xmm0
; File C:\Program Files (x86)\Microsoft Visual Studio\2019\Community\VC\Tools\MSVC\14.29.30133\atlmfc\include\afxwin2.inl

; 84   : 	{ ASSERT(::IsWindow(m_hWnd)); ::GetWindowRect(m_hWnd, lpRect); }

  00028	ff 15 00 00 00
	00		 call	 DWORD PTR __imp__GetWindowRect@8
  0002e	8d 45 ec	 lea	 eax, DWORD PTR _dlgRect$[ebp]
  00031	50		 push	 eax
  00032	ff 77 20	 push	 DWORD PTR [edi+32]
  00035	ff 15 00 00 00
	00		 call	 DWORD PTR __imp__GetWindowRect@8
; File D:\git\src\IBK\IBK_DRFN\ProjSrc\SrcDrfn\Chart\MULTICHART\FloatingHogaDlg.cpp

; 326  : 	trect.left		= rect.left	;

  0003b	0f 10 45 dc	 movups	 xmm0, XMMWORD PTR _rect$[ebp]

; 327  : 	trect.top		= rect.top	;
; 328  : 	trect.right		= rect.right;	
; 329  : 	trect.bottom	= rect.bottom;
; 330  : 	
; 331  : 	ScreenToClient(trect);

  0003f	8d 45 cc	 lea	 eax, DWORD PTR _trect$[ebp]
  00042	8b cf		 mov	 ecx, edi
  00044	50		 push	 eax
  00045	0f 11 45 cc	 movups	 XMMWORD PTR _trect$[ebp], xmm0
  00049	e8 00 00 00 00	 call	 ?ScreenToClient@CWnd@@QBEXPAUtagRECT@@@Z ; CWnd::ScreenToClient

; 332  : 	if(PtInRect(trect, point))

  0004e	ff 75 10	 push	 DWORD PTR _point$[ebp+4]
  00051	8d 45 cc	 lea	 eax, DWORD PTR _trect$[ebp]
  00054	ff 75 0c	 push	 DWORD PTR _point$[ebp]
  00057	50		 push	 eax
  00058	ff 15 00 00 00
	00		 call	 DWORD PTR __imp__PtInRect@12
  0005e	85 c0		 test	 eax, eax
  00060	0f 84 94 00 00
	00		 je	 $LN6@OnLButtonD

; 333  : 	{
; 334  : 		if(m_bIconState)	

  00066	8b 8f 1c 02 00
	00		 mov	 ecx, DWORD PTR [edi+540]
  0006c	85 c9		 test	 ecx, ecx
  0006e	74 15		 je	 SHORT $LN3@OnLButtonD

; 335  : 		{	
; 336  : 			dlgRect.right	= dlgRect.left	+ DLG_WIDTH;

  00070	8b 45 ec	 mov	 eax, DWORD PTR _dlgRect$[ebp]
  00073	05 de 00 00 00	 add	 eax, 222		; 000000deH
  00078	89 45 f4	 mov	 DWORD PTR _dlgRect$[ebp+8], eax

; 337  : 			dlgRect.bottom	= dlgRect.top	+ DLG_HEIGHT;														

  0007b	8b 45 f0	 mov	 eax, DWORD PTR _dlgRect$[ebp+4]
  0007e	05 f3 00 00 00	 add	 eax, 243		; 000000f3H

; 338  : 		}

  00083	eb 2a		 jmp	 SHORT $LN45@OnLButtonD
$LN3@OnLButtonD:
; File C:\Program Files (x86)\Microsoft Visual Studio\2019\Community\VC\Tools\MSVC\14.29.30133\atlmfc\include\afxwin2.inl

; 213  : 	{ ASSERT(::IsWindow(m_hWnd)); return CWnd::FromHandle(::GetParent(m_hWnd)); }

  00085	ff 77 20	 push	 DWORD PTR [edi+32]
  00088	ff 15 00 00 00
	00		 call	 DWORD PTR __imp__GetParent@4
  0008e	50		 push	 eax
  0008f	e8 00 00 00 00	 call	 ?FromHandle@CWnd@@SGPAV1@PAUHWND__@@@Z ; CWnd::FromHandle
; File D:\git\src\IBK\IBK_DRFN\ProjSrc\SrcDrfn\Chart\MULTICHART\FloatingHogaDlg.cpp

; 342  : 			dlgRect.right = dlgRect.left + rect.Width();

  00094	8b 45 ec	 mov	 eax, DWORD PTR _dlgRect$[ebp]
  00097	2b 45 dc	 sub	 eax, DWORD PTR _rect$[ebp]
  0009a	03 45 e4	 add	 eax, DWORD PTR _rect$[ebp+8]

; 343  : 			dlgRect.bottom = dlgRect.top + rect.Height();			

  0009d	8b 8f 1c 02 00
	00		 mov	 ecx, DWORD PTR [edi+540]
  000a3	89 45 f4	 mov	 DWORD PTR _dlgRect$[ebp+8], eax
  000a6	8b 45 f0	 mov	 eax, DWORD PTR _dlgRect$[ebp+4]
  000a9	2b 45 e0	 sub	 eax, DWORD PTR _rect$[ebp+4]
  000ac	03 45 e8	 add	 eax, DWORD PTR _rect$[ebp+12]
$LN45@OnLButtonD:

; 344  : 		}
; 345  : 
; 346  : 		m_bIconState = !m_bIconState;

  000af	89 45 f8	 mov	 DWORD PTR _dlgRect$[ebp+12], eax
  000b2	33 c0		 xor	 eax, eax
  000b4	85 c9		 test	 ecx, ecx

; 347  : 		
; 348  : 		if(m_pMainDlg)

  000b6	8b 8f 34 02 00
	00		 mov	 ecx, DWORD PTR [edi+564]
  000bc	0f 94 c0	 sete	 al
  000bf	89 87 1c 02 00
	00		 mov	 DWORD PTR [edi+540], eax
  000c5	85 c9		 test	 ecx, ecx
  000c7	74 19		 je	 SHORT $LN5@OnLButtonD
; File C:\Program Files (x86)\Microsoft Visual Studio\2019\Community\VC\Tools\MSVC\14.29.30133\atlmfc\include\afxwin2.inl

; 32   : 	{ ASSERT(::IsWindow(m_hWnd)); return ::SendMessage(m_hWnd, message, wParam, lParam); }

  000c9	8d 55 ec	 lea	 edx, DWORD PTR _dlgRect$[ebp]
  000cc	52		 push	 edx
  000cd	50		 push	 eax
  000ce	68 96 04 00 00	 push	 1174			; 00000496H
  000d3	ff 71 20	 push	 DWORD PTR [ecx+32]
  000d6	ff 15 00 00 00
	00		 call	 DWORD PTR __imp__SendMessageA@16
  000dc	8b 87 1c 02 00
	00		 mov	 eax, DWORD PTR [edi+540]
$LN5@OnLButtonD:
; File D:\git\src\IBK\IBK_DRFN\ProjSrc\SrcDrfn\Chart\MULTICHART\FloatingHogaDlg.cpp

; 352  : 		if(m_bIconState && m_strCode.GetLength()>0)

  000e2	85 c0		 test	 eax, eax
  000e4	74 14		 je	 SHORT $LN6@OnLButtonD
; File C:\Program Files (x86)\Microsoft Visual Studio\2019\Community\VC\Tools\MSVC\14.29.30133\atlmfc\include\atlsimpstr.h

; 519  : 		return( GetData()->nDataLength );

  000e6	8b 87 c4 00 00
	00		 mov	 eax, DWORD PTR [edi+196]
; File D:\git\src\IBK\IBK_DRFN\ProjSrc\SrcDrfn\Chart\MULTICHART\FloatingHogaDlg.cpp

; 352  : 		if(m_bIconState && m_strCode.GetLength()>0)

  000ec	83 78 f4 00	 cmp	 DWORD PTR [eax-12], 0
  000f0	7e 08		 jle	 SHORT $LN6@OnLButtonD

; 353  : 			OnCodeUnAdvise(m_strCode);	// Old Code

  000f2	50		 push	 eax
  000f3	8b cf		 mov	 ecx, edi
  000f5	e8 00 00 00 00	 call	 ?OnCodeUnAdvise@CFloatingHogaDlg@@QAEXPBD@Z ; CFloatingHogaDlg::OnCodeUnAdvise
$LN6@OnLButtonD:
; File C:\Program Files (x86)\Microsoft Visual Studio\2019\Community\VC\Tools\MSVC\14.29.30133\atlmfc\include\afxwin2.inl

; 430  : 	{ Default(); }

  000fa	8b cf		 mov	 ecx, edi
  000fc	e8 00 00 00 00	 call	 ?Default@CWnd@@IAEJXZ	; CWnd::Default
; File D:\git\src\IBK\IBK_DRFN\ProjSrc\SrcDrfn\Chart\MULTICHART\FloatingHogaDlg.cpp

; 357  : }

  00101	8b 4d fc	 mov	 ecx, DWORD PTR __$ArrayPad$[ebp]
  00104	33 cd		 xor	 ecx, ebp
; File C:\Program Files (x86)\Microsoft Visual Studio\2019\Community\VC\Tools\MSVC\14.29.30133\atlmfc\include\afxwin2.inl

; 430  : 	{ Default(); }

  00106	5f		 pop	 edi
; File D:\git\src\IBK\IBK_DRFN\ProjSrc\SrcDrfn\Chart\MULTICHART\FloatingHogaDlg.cpp

; 357  : }

  00107	e8 00 00 00 00	 call	 @__security_check_cookie@4
  0010c	8b e5		 mov	 esp, ebp
  0010e	5d		 pop	 ebp
  0010f	c2 0c 00	 ret	 12			; 0000000cH
?OnLButtonDblClk@CFloatingHogaDlg@@IAEXIVCPoint@@@Z ENDP ; CFloatingHogaDlg::OnLButtonDblClk
_TEXT	ENDS
; Function compile flags: /Ogtp
; File D:\git\src\IBK\IBK_DRFN\ProjSrc\SrcDrfn\Chart\MULTICHART\FloatingHogaDlg.cpp
; File C:\Program Files (x86)\Microsoft Visual Studio\2019\Community\VC\Tools\MSVC\14.29.30133\atlmfc\include\afxwin2.inl
; File D:\git\src\IBK\IBK_DRFN\ProjSrc\SrcDrfn\Chart\MULTICHART\FloatingHogaDlg.cpp
; File C:\Program Files (x86)\Microsoft Visual Studio\2019\Community\VC\Tools\MSVC\14.29.30133\atlmfc\include\afxwin2.inl
; File C:\Program Files (x86)\Microsoft Visual Studio\2019\Community\VC\Tools\MSVC\14.29.30133\atlmfc\include\atltypes.h
; File C:\Program Files (x86)\Microsoft Visual Studio\2019\Community\VC\Tools\MSVC\14.29.30133\atlmfc\include\afxwin2.inl
; File D:\git\src\IBK\IBK_DRFN\ProjSrc\SrcDrfn\Chart\MULTICHART\FloatingHogaDlg.cpp
; File C:\Program Files (x86)\Microsoft Visual Studio\2019\Community\VC\Tools\MSVC\14.29.30133\atlmfc\include\afxwin2.inl
; File D:\git\src\IBK\IBK_DRFN\ProjSrc\SrcDrfn\Chart\MULTICHART\FloatingHogaDlg.cpp
; File C:\Program Files (x86)\Microsoft Visual Studio\2019\Community\VC\Tools\MSVC\14.29.30133\atlmfc\include\afxwin2.inl
; File D:\git\src\IBK\IBK_DRFN\ProjSrc\SrcDrfn\Chart\MULTICHART\FloatingHogaDlg.cpp
; File C:\Program Files (x86)\Microsoft Visual Studio\2019\Community\VC\Tools\MSVC\14.29.30133\atlmfc\include\afxwin2.inl
; File D:\git\src\IBK\IBK_DRFN\ProjSrc\SrcDrfn\Chart\MULTICHART\FloatingHogaDlg.cpp
;	COMDAT ?OnInitDialog@CFloatingHogaDlg@@MAEHXZ
_TEXT	SEGMENT
_pGateMng$ = -72					; size = 4
$T2 = -68						; size = 4
_szClipFormat$3 = -64					; size = 4
_trect$ = -60						; size = 16
_rect$ = -44						; size = 16
_aBufWnd$4 = -28					; size = 9
__$ArrayPad$ = -16					; size = 4
__$EHRec$ = -12						; size = 12
?OnInitDialog@CFloatingHogaDlg@@MAEHXZ PROC		; CFloatingHogaDlg::OnInitDialog, COMDAT
; _this$ = ecx

; 174  : {

  00000	55		 push	 ebp
  00001	8b ec		 mov	 ebp, esp
  00003	6a ff		 push	 -1
  00005	68 00 00 00 00	 push	 __ehhandler$?OnInitDialog@CFloatingHogaDlg@@MAEHXZ
  0000a	64 a1 00 00 00
	00		 mov	 eax, DWORD PTR fs:0
  00010	50		 push	 eax
  00011	83 ec 3c	 sub	 esp, 60			; 0000003cH
  00014	a1 00 00 00 00	 mov	 eax, DWORD PTR ___security_cookie
  00019	33 c5		 xor	 eax, ebp
  0001b	89 45 f0	 mov	 DWORD PTR __$ArrayPad$[ebp], eax
  0001e	56		 push	 esi
  0001f	57		 push	 edi
  00020	50		 push	 eax
  00021	8d 45 f4	 lea	 eax, DWORD PTR __$EHRec$[ebp]
  00024	64 a3 00 00 00
	00		 mov	 DWORD PTR fs:0, eax
  0002a	8b f9		 mov	 edi, ecx

; 175  : 	CDialog::OnInitDialog();

  0002c	e8 00 00 00 00	 call	 ?OnInitDialog@CDialog@@UAEHXZ ; CDialog::OnInitDialog

; 176  : 
; 177  : 
; 178  : 	//m_staticSymbol.SetBkColor(RGB(255,0,0));
; 179  : 	//m_staticSymbol.SetBkColor(RGB(90,167,115));
; 180  : 	m_staticSymbol.SetBkColor(RGB(185,205,230));

  00031	8b 87 70 03 00
	00		 mov	 eax, DWORD PTR [edi+880]
  00037	8d b7 70 03 00
	00		 lea	 esi, DWORD PTR [edi+880]
  0003d	6a 00		 push	 0
  0003f	6a 00		 push	 0
  00041	68 b9 cd e6 00	 push	 15125945		; 00e6cdb9H
  00046	8b ce		 mov	 ecx, esi
  00048	ff 90 78 01 00
	00		 call	 DWORD PTR [eax+376]

; 181  : 	m_staticSymbol.SetBkColor(RGB(92,135,183));

  0004e	8b 06		 mov	 eax, DWORD PTR [esi]
  00050	8b ce		 mov	 ecx, esi
  00052	6a 00		 push	 0
  00054	6a 00		 push	 0
  00056	68 5c 87 b7 00	 push	 12027740		; 00b7875cH
  0005b	ff 90 78 01 00
	00		 call	 DWORD PTR [eax+376]

; 182  : 	//m_staticSymbol.SetBkColor(RGB(205,175,224));
; 183  : 	m_staticSymbol.SetTextColor(CLR_FONT_DEFAULT);

  00061	8b 06		 mov	 eax, DWORD PTR [esi]
  00063	8b ce		 mov	 ecx, esi
  00065	68 00 00 01 00	 push	 65536			; 00010000H
  0006a	ff 90 7c 01 00
	00		 call	 DWORD PTR [eax+380]

; 184  : 	m_staticSymbol.SetTextColor(RGB(255,255,255));

  00070	8b 06		 mov	 eax, DWORD PTR [esi]
  00072	8b ce		 mov	 ecx, esi
  00074	68 ff ff ff 00	 push	 16777215		; 00ffffffH
  00079	ff 90 7c 01 00
	00		 call	 DWORD PTR [eax+380]

; 185  : 
; 186  : 	m_staitcTilte.SetBkColor(RGB(255,255,255));

  0007f	8b 87 a8 04 00
	00		 mov	 eax, DWORD PTR [edi+1192]
  00085	8d b7 a8 04 00
	00		 lea	 esi, DWORD PTR [edi+1192]
  0008b	6a 00		 push	 0
  0008d	6a 00		 push	 0
  0008f	68 ff ff ff 00	 push	 16777215		; 00ffffffH
  00094	8b ce		 mov	 ecx, esi
  00096	ff 90 78 01 00
	00		 call	 DWORD PTR [eax+376]

; 187  : 	m_staitcTilte.SetTextColor(RGB(61,57,57));

  0009c	8b 06		 mov	 eax, DWORD PTR [esi]
  0009e	8b ce		 mov	 ecx, esi
  000a0	68 3d 39 39 00	 push	 3750205			; 0039393dH
  000a5	ff 90 7c 01 00
	00		 call	 DWORD PTR [eax+380]

; 188  : 	//m_staitcTilte.SetTextColor(RGB(0,0,255));
; 189  : 	m_staitcTilte.SetText("5 ");

  000ab	68 00 00 00 00	 push	 OFFSET ??_C@_08FKDHAHKC@5?H?$KD?$LA?$KB?5?C?$KC@
  000b0	8d 4d bc	 lea	 ecx, DWORD PTR $T2[ebp]
  000b3	ff 15 00 00 00
	00		 call	 DWORD PTR __imp_??0?$CStringT@DV?$StrTraitMFC_DLL@DV?$ChTraitsCRT@D@ATL@@@@@ATL@@QAE@PBD@Z
  000b9	8b 06		 mov	 eax, DWORD PTR [esi]
  000bb	8d 4d bc	 lea	 ecx, DWORD PTR $T2[ebp]
  000be	51		 push	 ecx
  000bf	8b ce		 mov	 ecx, esi
  000c1	c7 45 fc 00 00
	00 00		 mov	 DWORD PTR __$EHRec$[ebp+8], 0
  000c8	ff 90 80 01 00
	00		 call	 DWORD PTR [eax+384]
  000ce	8d 4d bc	 lea	 ecx, DWORD PTR $T2[ebp]
  000d1	c7 45 fc ff ff
	ff ff		 mov	 DWORD PTR __$EHRec$[ebp+8], -1
  000d8	ff 15 00 00 00
	00		 call	 DWORD PTR __imp_??1?$CStringT@DV?$StrTraitMFC_DLL@DV?$ChTraitsCRT@D@ATL@@@@@ATL@@QAE@XZ
; File C:\Program Files (x86)\Microsoft Visual Studio\2019\Community\VC\Tools\MSVC\14.29.30133\atlmfc\include\afxwin2.inl

; 25   : 	{ return this == NULL ? NULL : m_hWnd; }

  000de	8b 4f 20	 mov	 ecx, DWORD PTR [edi+32]
; File D:\git\src\IBK\IBK_DRFN\ProjSrc\SrcDrfn\Chart\MULTICHART\FloatingHogaDlg.cpp

; 193  : 	if(GetSafeHwnd())

  000e1	8d b7 20 02 00
	00		 lea	 esi, DWORD PTR [edi+544]
  000e7	a1 00 00 00 00	 mov	 eax, DWORD PTR __imp__GetWindowRect@8
  000ec	85 c9		 test	 ecx, ecx
  000ee	74 09		 je	 SHORT $LN50@OnInitDial
; File C:\Program Files (x86)\Microsoft Visual Studio\2019\Community\VC\Tools\MSVC\14.29.30133\atlmfc\include\afxwin2.inl

; 84   : 	{ ASSERT(::IsWindow(m_hWnd)); ::GetWindowRect(m_hWnd, lpRect); }

  000f0	56		 push	 esi
  000f1	51		 push	 ecx
  000f2	ff d0		 call	 eax
  000f4	a1 00 00 00 00	 mov	 eax, DWORD PTR __imp__GetWindowRect@8
$LN50@OnInitDial:
  000f9	8d 4d d4	 lea	 ecx, DWORD PTR _rect$[ebp]
  000fc	0f 57 c0	 xorps	 xmm0, xmm0
  000ff	51		 push	 ecx
  00100	ff b7 90 03 00
	00		 push	 DWORD PTR [edi+912]
; File C:\Program Files (x86)\Microsoft Visual Studio\2019\Community\VC\Tools\MSVC\14.29.30133\atlmfc\include\atltypes.h

; 540  : 	left = l;

  00106	0f 11 45 d4	 movups	 XMMWORD PTR _rect$[ebp], xmm0
; File C:\Program Files (x86)\Microsoft Visual Studio\2019\Community\VC\Tools\MSVC\14.29.30133\atlmfc\include\afxwin2.inl

; 84   : 	{ ASSERT(::IsWindow(m_hWnd)); ::GetWindowRect(m_hWnd, lpRect); }

  0010a	ff d0		 call	 eax
  0010c	56		 push	 esi
  0010d	ff 77 20	 push	 DWORD PTR [edi+32]
  00110	ff 15 00 00 00
	00		 call	 DWORD PTR __imp__GetWindowRect@8
; File D:\git\src\IBK\IBK_DRFN\ProjSrc\SrcDrfn\Chart\MULTICHART\FloatingHogaDlg.cpp

; 203  : 	trect.left		= rect.left	;

  00116	0f 10 45 d4	 movups	 xmm0, XMMWORD PTR _rect$[ebp]

; 204  : 	trect.top		= rect.top	;
; 205  : 	trect.right		= rect.right;	
; 206  : 	trect.bottom	= rect.bottom;
; 207  : 	
; 208  : 	ScreenToClient(trect);

  0011a	8d 45 c4	 lea	 eax, DWORD PTR _trect$[ebp]
  0011d	8b cf		 mov	 ecx, edi
  0011f	50		 push	 eax
  00120	0f 11 45 c4	 movups	 XMMWORD PTR _trect$[ebp], xmm0
  00124	e8 00 00 00 00	 call	 ?ScreenToClient@CWnd@@QBEXPAUtagRECT@@@Z ; CWnd::ScreenToClient

; 209  : 	if(m_bIconState)	

  00129	83 bf 1c 02 00
	00 00		 cmp	 DWORD PTR [edi+540], 0
  00130	74 29		 je	 SHORT $LN3@OnInitDial
; File C:\Program Files (x86)\Microsoft Visual Studio\2019\Community\VC\Tools\MSVC\14.29.30133\atlmfc\include\afxwin2.inl

; 213  : 	{ ASSERT(::IsWindow(m_hWnd)); return CWnd::FromHandle(::GetParent(m_hWnd)); }

  00132	ff 77 20	 push	 DWORD PTR [edi+32]
  00135	ff 15 00 00 00
	00		 call	 DWORD PTR __imp__GetParent@4
  0013b	50		 push	 eax
  0013c	e8 00 00 00 00	 call	 ?FromHandle@CWnd@@SGPAV1@PAUHWND__@@@Z ; CWnd::FromHandle
; File D:\git\src\IBK\IBK_DRFN\ProjSrc\SrcDrfn\Chart\MULTICHART\FloatingHogaDlg.cpp

; 213  : 		m_dlgOriRect.bottom = m_dlgOriRect.top + rect.Height();											

  00141	8b 87 24 02 00
	00		 mov	 eax, DWORD PTR [edi+548]
  00147	2b 45 d8	 sub	 eax, DWORD PTR _rect$[ebp+4]
  0014a	8b 8f 20 02 00
	00		 mov	 ecx, DWORD PTR [edi+544]
  00150	2b 4d d4	 sub	 ecx, DWORD PTR _rect$[ebp]
  00153	03 45 e0	 add	 eax, DWORD PTR _rect$[ebp+12]
  00156	03 4d dc	 add	 ecx, DWORD PTR _rect$[ebp+8]

; 214  : 	}

  00159	eb 17		 jmp	 SHORT $LN4@OnInitDial
$LN3@OnInitDial:

; 215  : 	else
; 216  : 	{	
; 217  : 		m_dlgOriRect.right	= m_dlgOriRect.left	+ DLG_WIDTH;
; 218  : 		m_dlgOriRect.bottom	= m_dlgOriRect.top	+ DLG_HEIGHT;			

  0015b	8b 87 24 02 00
	00		 mov	 eax, DWORD PTR [edi+548]
  00161	8b 8f 20 02 00
	00		 mov	 ecx, DWORD PTR [edi+544]
  00167	05 f3 00 00 00	 add	 eax, 243		; 000000f3H
  0016c	81 c1 de 00 00
	00		 add	 ecx, 222		; 000000deH
$LN4@OnInitDial:

; 219  : 	}
; 220  : 	
; 221  : 	if(m_pMainDlg)

  00172	89 8f 28 02 00
	00		 mov	 DWORD PTR [edi+552], ecx
  00178	89 87 2c 02 00
	00		 mov	 DWORD PTR [edi+556], eax
  0017e	8b 8f 34 02 00
	00		 mov	 ecx, DWORD PTR [edi+564]
  00184	85 c9		 test	 ecx, ecx
  00186	74 1b		 je	 SHORT $LN5@OnInitDial

; 222  : 		m_pMainDlg->SendMessage(USMG_PLEASE_RESIZE, m_bIconState ? 1:0, (LPARAM)&m_dlgOriRect);

  00188	33 c0		 xor	 eax, eax
  0018a	39 87 1c 02 00
	00		 cmp	 DWORD PTR [edi+540], eax
; File C:\Program Files (x86)\Microsoft Visual Studio\2019\Community\VC\Tools\MSVC\14.29.30133\atlmfc\include\afxwin2.inl

; 32   : 	{ ASSERT(::IsWindow(m_hWnd)); return ::SendMessage(m_hWnd, message, wParam, lParam); }

  00190	56		 push	 esi
; File D:\git\src\IBK\IBK_DRFN\ProjSrc\SrcDrfn\Chart\MULTICHART\FloatingHogaDlg.cpp

; 222  : 		m_pMainDlg->SendMessage(USMG_PLEASE_RESIZE, m_bIconState ? 1:0, (LPARAM)&m_dlgOriRect);

  00191	0f 95 c0	 setne	 al
; File C:\Program Files (x86)\Microsoft Visual Studio\2019\Community\VC\Tools\MSVC\14.29.30133\atlmfc\include\afxwin2.inl

; 32   : 	{ ASSERT(::IsWindow(m_hWnd)); return ::SendMessage(m_hWnd, message, wParam, lParam); }

  00194	50		 push	 eax
  00195	68 96 04 00 00	 push	 1174			; 00000496H
  0019a	ff 71 20	 push	 DWORD PTR [ecx+32]
  0019d	ff 15 00 00 00
	00		 call	 DWORD PTR __imp__SendMessageA@16
$LN5@OnInitDial:
  001a3	0f 57 c0	 xorps	 xmm0, xmm0
; File D:\git\src\IBK\IBK_DRFN\ProjSrc\SrcDrfn\Chart\MULTICHART\FloatingHogaDlg.cpp

; 225  : 	IGateManager* pGateMng;	AfxGetIGateManager(pGateMng);

  001a6	c7 45 b8 00 00
	00 00		 mov	 DWORD PTR _pGateMng$[ebp], 0
  001ad	8d 4d c0	 lea	 ecx, DWORD PTR _szClipFormat$3[ebp]
  001b0	66 0f d6 45 e4	 movq	 QWORD PTR _aBufWnd$4[ebp], xmm0
  001b5	c6 45 ec 00	 mov	 BYTE PTR _aBufWnd$4[ebp+8], 0
  001b9	ff 15 00 00 00
	00		 call	 DWORD PTR __imp_??0?$CStringT@DV?$StrTraitMFC_DLL@DV?$ChTraitsCRT@D@ATL@@@@@ATL@@QAE@XZ
  001bf	68 00 00 00 00	 push	 OFFSET ??_C@_0M@CBBNGGHM@PcTrMng?4dll@
  001c4	c7 45 fc 01 00
	00 00		 mov	 DWORD PTR __$EHRec$[ebp+8], 1
  001cb	ff 15 00 00 00
	00		 call	 DWORD PTR __imp__GetModuleHandleA@4
  001d1	50		 push	 eax
  001d2	68 00 00 00 00	 push	 OFFSET ??_C@_0BD@CMCCCNBF@HANAROIGATEMANAGER@
  001d7	8d 45 c0	 lea	 eax, DWORD PTR _szClipFormat$3[ebp]
  001da	68 00 00 00 00	 push	 OFFSET ??_C@_06NDLAHCHE@?$CFs?$CF08X@
  001df	50		 push	 eax
  001e0	ff 15 00 00 00
	00		 call	 DWORD PTR __imp_?Format@?$CStringT@DV?$StrTraitMFC_DLL@DV?$ChTraitsCRT@D@ATL@@@@@ATL@@QAAXPBDZZ
  001e6	83 c4 10	 add	 esp, 16			; 00000010H
  001e9	8d 45 e4	 lea	 eax, DWORD PTR _aBufWnd$4[ebp]
  001ec	6a 09		 push	 9
  001ee	50		 push	 eax
  001ef	ff 75 c0	 push	 DWORD PTR _szClipFormat$3[ebp]
  001f2	ff 15 00 00 00
	00		 call	 DWORD PTR __imp__GetEnvironmentVariableA@12
  001f8	8d 45 b8	 lea	 eax, DWORD PTR _pGateMng$[ebp]
  001fb	50		 push	 eax
  001fc	8d 45 e4	 lea	 eax, DWORD PTR _aBufWnd$4[ebp]
  001ff	68 00 00 00 00	 push	 OFFSET ??_C@_02EMFKHFLK@?$CFX@
  00204	50		 push	 eax
  00205	e8 00 00 00 00	 call	 _sscanf
  0020a	83 c4 0c	 add	 esp, 12			; 0000000cH
  0020d	c7 45 fc ff ff
	ff ff		 mov	 DWORD PTR __$EHRec$[ebp+8], -1
  00214	8d 4d c0	 lea	 ecx, DWORD PTR _szClipFormat$3[ebp]
  00217	ff 15 00 00 00
	00		 call	 DWORD PTR __imp_??1?$CStringT@DV?$StrTraitMFC_DLL@DV?$ChTraitsCRT@D@ATL@@@@@ATL@@QAE@XZ

; 2514 : 	IAUDrdsManager* pDrdsMng = (IAUDrdsManager*)AfxGetPctrInterface(UUID_IAUDrdsManager);

  0021d	6a 13		 push	 19			; 00000013H
  0021f	e8 00 00 00 00	 call	 ?AfxGetPctrInterface@@YGJH@Z ; AfxGetPctrInterface

; 2515 : 	if(!pDrdsMng) return FALSE;

  00224	85 c0		 test	 eax, eax
  00226	74 17		 je	 SHORT $LN52@OnInitDial

; 2516 : 
; 2517 : 	m_pDrdsLib = pDrdsMng->AdviseDrdsLib();

  00228	8b 08		 mov	 ecx, DWORD PTR [eax]
  0022a	50		 push	 eax
  0022b	ff 11		 call	 DWORD PTR [ecx]
  0022d	89 87 60 06 00
	00		 mov	 DWORD PTR [edi+1632], eax

; 2518 : 	if(!m_pDrdsLib) return FALSE;

  00233	85 c0		 test	 eax, eax
  00235	74 08		 je	 SHORT $LN52@OnInitDial

; 2519 : 
; 2520 : 	m_pDrdsLib->DrdsInit(m_hWnd);

  00237	ff 77 20	 push	 DWORD PTR [edi+32]
  0023a	8b 08		 mov	 ecx, DWORD PTR [eax]
  0023c	50		 push	 eax
  0023d	ff 11		 call	 DWORD PTR [ecx]
$LN52@OnInitDial:

; 226  : 	//@solomon	20091113	-->>
; 227  : 	/*
; 228  : 	if(pGateMng != NULL)
; 229  : 	{
; 230  : 		IMainInfoManager* pManager = (IMainInfoManager*)pGateMng->GetInterface(nID);
; 231  : 		CString strImageDir;
; 232  : 		//solomon-090825 strImageDir.Format("%s\\Image\\Chart\\W38_h21.bmp", pManager->GetRootDir());
; 233  : 		strImageDir.Format("%s\\Image\\Chart\\W38_h21.bmp", pManager->GetDataDir());
; 234  : 
; 235  : 		CBitmap bitmap;
; 236  : 		bitmap.Attach((HBITMAP)LoadImage(NULL, (LPSTR)(LPCTSTR)strImageDir, IMAGE_BITMAP, 0, 0, LR_LOADFROMFILE|LR_CREATEDIBSECTION|LR_DEFAULTSIZE));
; 237  : 		m_ImageListOrder.Create(38, 21, ILC_MASK | ILC_COLORDDB, 1, 1);
; 238  : 		m_ImageListOrder.Add(&bitmap, RGB(255, 0, 255));
; 239  : 		bitmap.DeleteObject();
; 240  : 
; 241  : 		m_ctrlButtonSell.FP_vSetImage(&m_ImageListOrder, 0, 1);
; 242  : 		m_ctrlButtonBuy.FP_vSetImage(&m_ImageListOrder, 3, 4);
; 243  : 	}
; 244  : 	*/
; 245  : 	//@solomon	20091113	<<--
; 246  : 
; 247  : 	//
; 248  : 	//InitGrid();
; 249  : 	
; 250  : 	 
; 251  : 
; 252  : //    //   WS_EX_LAYERED 
; 253  : //
; 254  : //    ModifyStyleEx(0, WS_EX_LAYERED);
; 255  : //
; 256  : // 
; 257  : //
; 258  : //    // user32.dll  SetLayeredWindowAttributes()  
; 259  : //
; 260  : //    HMODULE hUserDll = ::LoadLibrary(_T("USER32.dll"));
; 261  : //
; 262  : //    typedef BOOL (WINAPI* LPSETTRANSPARENT)(HWND hWnd, COLORREF crKey, BYTE bAlpha, DWORD dwFlags);
; 263  : //
; 264  : // 
; 265  : //
; 266  : //    LPSETTRANSPARENT lpSetTransparent = NULL;
; 267  : //
; 268  : //    lpSetTransparent  = (LPSETTRANSPARENT)::GetProcAddress(hUserDll, "SetLayeredWindowAttributes");
; 269  : //
; 270  : // 
; 271  : //
; 272  : //    if(lpSetTransparent)
; 273  : //
; 274  : //        // SetLayeredWindowAttributes()  .
; 275  : //
; 276  : //        //   0 ~ 255  
; 277  : //
; 278  : //        lpSetTransparent(m_hWnd, NULL, 200, LWA_ALPHA);
; 279  : //
; 280  : // 
; 281  : //
; 282  : //    // user32.dll 
; 283  : //
; 284  : //    ::FreeLibrary(hUserDll);
; 285  : 
; 286  : 	MakeDrdsConnectAdvise();
; 287  : 
; 288  : 	return TRUE;  // return TRUE unless you set the focus to a control
; 289  : 	              // EXCEPTION: OCX Property Pages should return FALSE
; 290  : }

  0023f	b8 01 00 00 00	 mov	 eax, 1
  00244	8b 4d f4	 mov	 ecx, DWORD PTR __$EHRec$[ebp]
  00247	64 89 0d 00 00
	00 00		 mov	 DWORD PTR fs:0, ecx
  0024e	59		 pop	 ecx
  0024f	5f		 pop	 edi
  00250	5e		 pop	 esi
  00251	8b 4d f0	 mov	 ecx, DWORD PTR __$ArrayPad$[ebp]
  00254	33 cd		 xor	 ecx, ebp
  00256	e8 00 00 00 00	 call	 @__security_check_cookie@4
  0025b	8b e5		 mov	 esp, ebp
  0025d	5d		 pop	 ebp
  0025e	c3		 ret	 0
_TEXT	ENDS
;	COMDAT text$x
text$x	SEGMENT
__unwindfunclet$?OnInitDialog@CFloatingHogaDlg@@MAEHXZ$0:
  00000	8d 4d bc	 lea	 ecx, DWORD PTR $T2[ebp]
  00003	ff 25 00 00 00
	00		 jmp	 DWORD PTR __imp_??1?$CStringT@DV?$StrTraitMFC_DLL@DV?$ChTraitsCRT@D@ATL@@@@@ATL@@QAE@XZ
__unwindfunclet$?OnInitDialog@CFloatingHogaDlg@@MAEHXZ$1:
  00009	8d 4d c0	 lea	 ecx, DWORD PTR _szClipFormat$3[ebp]
  0000c	ff 25 00 00 00
	00		 jmp	 DWORD PTR __imp_??1?$CStringT@DV?$StrTraitMFC_DLL@DV?$ChTraitsCRT@D@ATL@@@@@ATL@@QAE@XZ
  00012	cc		 int	 3
  00013	cc		 int	 3
  00014	cc		 int	 3
  00015	cc		 int	 3
  00016	cc		 int	 3
__ehhandler$?OnInitDialog@CFloatingHogaDlg@@MAEHXZ:
  00017	90		 npad	 1
  00018	90		 npad	 1
  00019	8b 54 24 08	 mov	 edx, DWORD PTR [esp+8]
  0001d	8d 42 0c	 lea	 eax, DWORD PTR [edx+12]
  00020	8b 4a b8	 mov	 ecx, DWORD PTR [edx-72]
  00023	33 c8		 xor	 ecx, eax
  00025	e8 00 00 00 00	 call	 @__security_check_cookie@4
  0002a	8b 4a fc	 mov	 ecx, DWORD PTR [edx-4]
  0002d	33 c8		 xor	 ecx, eax
  0002f	e8 00 00 00 00	 call	 @__security_check_cookie@4
  00034	b8 00 00 00 00	 mov	 eax, OFFSET __ehfuncinfo$?OnInitDialog@CFloatingHogaDlg@@MAEHXZ
  00039	e9 00 00 00 00	 jmp	 ___CxxFrameHandler3
text$x	ENDS
?OnInitDialog@CFloatingHogaDlg@@MAEHXZ ENDP		; CFloatingHogaDlg::OnInitDialog
; Function compile flags: /Ogtp
; File D:\git\src\IBK\IBK_DRFN\ProjSrc\SrcDrfn\Chart\MULTICHART\FloatingHogaDlg.cpp
; File C:\Program Files (x86)\Microsoft Visual Studio\2019\Community\VC\Tools\MSVC\14.29.30133\atlmfc\include\afxwin2.inl
; File D:\git\src\IBK\IBK_DRFN\ProjSrc\SrcDrfn\Chart\MULTICHART\FloatingHogaDlg.cpp
;	COMDAT ?OnSize@CFloatingHogaDlg@@IAEXIHH@Z
_TEXT	SEGMENT
_nType$ = 8						; size = 4
_cx$ = 12						; size = 4
_cy$ = 16						; size = 4
?OnSize@CFloatingHogaDlg@@IAEXIHH@Z PROC		; CFloatingHogaDlg::OnSize, COMDAT
; _this$ = ecx

; 156  : {	

  00000	55		 push	 ebp
  00001	8b ec		 mov	 ebp, esp
  00003	56		 push	 esi
  00004	8b f1		 mov	 esi, ecx
; File C:\Program Files (x86)\Microsoft Visual Studio\2019\Community\VC\Tools\MSVC\14.29.30133\atlmfc\include\afxwin2.inl

; 330  : 	{ Default(); }

  00006	e8 00 00 00 00	 call	 ?Default@CWnd@@IAEJXZ	; CWnd::Default
; File D:\git\src\IBK\IBK_DRFN\ProjSrc\SrcDrfn\Chart\MULTICHART\FloatingHogaDlg.cpp

; 159  : 	if(cy>100 && m_dlgOriRect.bottom>0)

  0000b	83 7d 10 64	 cmp	 DWORD PTR _cy$[ebp], 100 ; 00000064H
  0000f	7e 19		 jle	 SHORT $LN3@OnSize
  00011	83 be 2c 02 00
	00 00		 cmp	 DWORD PTR [esi+556], 0
  00018	7e 10		 jle	 SHORT $LN3@OnSize

; 160  : 	{
; 161  : 		if(m_pGridCtrl == NULL)

  0001a	83 be cc 00 00
	00 00		 cmp	 DWORD PTR [esi+204], 0
  00021	75 07		 jne	 SHORT $LN3@OnSize

; 162  : 			InitGrid();

  00023	8b ce		 mov	 ecx, esi
  00025	e8 00 00 00 00	 call	 ?InitGrid@CFloatingHogaDlg@@QAEXXZ ; CFloatingHogaDlg::InitGrid
$LN3@OnSize:
  0002a	5e		 pop	 esi

; 163  : 	}
; 164  : 	//if(m_hBitmap)
; 165  : 	//{
; 166  : 	//	DeleteObject(m_hBitmap);
; 167  : 	//	m_hBitmap = NULL;
; 168  : 	//}
; 169  : }

  0002b	5d		 pop	 ebp
  0002c	c2 0c 00	 ret	 12			; 0000000cH
?OnSize@CFloatingHogaDlg@@IAEXIHH@Z ENDP		; CFloatingHogaDlg::OnSize
_TEXT	ENDS
; Function compile flags: /Ogtp
; File D:\git\src\IBK\IBK_DRFN\ProjSrc\SrcDrfn\Chart\MULTICHART\FloatingHogaDlg.cpp
; File C:\Program Files (x86)\Microsoft Visual Studio\2019\Community\VC\Tools\MSVC\14.29.30133\atlmfc\include\afxwin2.inl
; File D:\git\src\IBK\IBK_DRFN\ProjSrc\SrcDrfn\Chart\MULTICHART\FloatingHogaDlg.cpp
; File C:\Program Files (x86)\Microsoft Visual Studio\2019\Community\VC\Tools\MSVC\14.29.30133\atlmfc\include\afxwin2.inl
; File D:\git\src\IBK\IBK_DRFN\ProjSrc\SrcDrfn\Chart\MULTICHART\FloatingHogaDlg.cpp
;	COMDAT ?OnLButtonDown@CFloatingHogaDlg@@IAEXIVCPoint@@@Z
_TEXT	SEGMENT
_nFlags$ = 8						; size = 4
_point$ = 12						; size = 8
?OnLButtonDown@CFloatingHogaDlg@@IAEXIVCPoint@@@Z PROC	; CFloatingHogaDlg::OnLButtonDown, COMDAT
; _this$ = ecx

; 362  : {

  00000	55		 push	 ebp
  00001	8b ec		 mov	 ebp, esp
  00003	56		 push	 esi
  00004	8b f1		 mov	 esi, ecx
; File C:\Program Files (x86)\Microsoft Visual Studio\2019\Community\VC\Tools\MSVC\14.29.30133\atlmfc\include\afxwin2.inl

; 432  : 	{ Default(); }

  00006	e8 00 00 00 00	 call	 ?Default@CWnd@@IAEJXZ	; CWnd::Default
; File D:\git\src\IBK\IBK_DRFN\ProjSrc\SrcDrfn\Chart\MULTICHART\FloatingHogaDlg.cpp

; 369  : 	PostMessage( WM_NCLBUTTONDOWN, HTCAPTION, MAKELPARAM( point.x, point.y));

  0000b	0f b7 55 10	 movzx	 edx, WORD PTR _point$[ebp+4]
  0000f	0f b7 45 0c	 movzx	 eax, WORD PTR _point$[ebp]
  00013	c1 e2 10	 shl	 edx, 16			; 00000010H
  00016	0b d0		 or	 edx, eax
; File C:\Program Files (x86)\Microsoft Visual Studio\2019\Community\VC\Tools\MSVC\14.29.30133\atlmfc\include\afxwin2.inl

; 39   : 	{ ASSERT(::IsWindow(m_hWnd)); return ::PostMessage(m_hWnd, message, wParam, lParam); }

  00018	52		 push	 edx
  00019	6a 02		 push	 2
  0001b	68 a1 00 00 00	 push	 161			; 000000a1H
  00020	ff 76 20	 push	 DWORD PTR [esi+32]
  00023	ff 15 00 00 00
	00		 call	 DWORD PTR __imp__PostMessageA@16
  00029	5e		 pop	 esi
; File D:\git\src\IBK\IBK_DRFN\ProjSrc\SrcDrfn\Chart\MULTICHART\FloatingHogaDlg.cpp

; 370  : }

  0002a	5d		 pop	 ebp
  0002b	c2 0c 00	 ret	 12			; 0000000cH
?OnLButtonDown@CFloatingHogaDlg@@IAEXIVCPoint@@@Z ENDP	; CFloatingHogaDlg::OnLButtonDown
_TEXT	ENDS
; Function compile flags: /Ogtp
; File D:\git\src\IBK\IBK_DRFN\ProjSrc\SrcDrfn\Chart\MULTICHART\FloatingHogaDlg.cpp
; File C:\Program Files (x86)\Microsoft Visual Studio\2019\Community\VC\Tools\MSVC\14.29.30133\atlmfc\include\atlsimpstr.h
; File D:\git\src\IBK\IBK_DRFN\ProjSrc\SrcDrfn\Chart\MULTICHART\FloatingHogaDlg.cpp
; File C:\Program Files (x86)\Microsoft Visual Studio\2019\Community\VC\Tools\MSVC\14.29.30133\atlmfc\include\atlsimpstr.h
; File D:\git\src\IBK\IBK_DRFN\ProjSrc\SrcDrfn\Chart\MULTICHART\FloatingHogaDlg.cpp
;	COMDAT ?WindowProc@CFloatingHogaDlg@@MAEJIIJ@Z
_TEXT	SEGMENT
$T1 = 8							; size = 4
_message$ = 8						; size = 4
_wParam$ = 12						; size = 4
_lParam$ = 16						; size = 4
?WindowProc@CFloatingHogaDlg@@MAEJIIJ@Z PROC		; CFloatingHogaDlg::WindowProc, COMDAT
; _this$ = ecx

; 293  : {

  00000	55		 push	 ebp
  00001	8b ec		 mov	 ebp, esp
  00003	56		 push	 esi
  00004	57		 push	 edi

; 294  : 	// TODO: Add your specialized code here and/or call the base class
; 295  : 	switch(message)

  00005	8b 7d 08	 mov	 edi, DWORD PTR _message$[ebp]
  00008	8b f1		 mov	 esi, ecx
  0000a	81 ff 03 04 00
	00		 cmp	 edi, 1027		; 00000403H
  00010	74 1e		 je	 SHORT $LN4@WindowProc
  00012	81 ff f7 14 00
	00		 cmp	 edi, 5367		; 000014f7H
  00018	0f 84 c3 00 00
	00		 je	 $LN19@WindowProc

; 307  : 				OnCodeAdvise(m_strCode);	// New Code
; 308  : 			}
; 309  : 		case WM_CLICKLABEL:
; 310  : 			{
; 311  : 				m_bCapTure = FALSE;
; 312  : 			}
; 313  : 			break;
; 314  : 	}
; 315  : 	
; 316  : 	return CDialog::WindowProc(message, wParam, lParam);

  0001e	ff 75 10	 push	 DWORD PTR _lParam$[ebp]
  00021	ff 75 0c	 push	 DWORD PTR _wParam$[ebp]
  00024	57		 push	 edi
  00025	e8 00 00 00 00	 call	 ?WindowProc@CWnd@@MAEJIIJ@Z ; CWnd::WindowProc
  0002a	5f		 pop	 edi
  0002b	5e		 pop	 esi

; 317  : }

  0002c	5d		 pop	 ebp
  0002d	c2 0c 00	 ret	 12			; 0000000cH
$LN4@WindowProc:
; File C:\Program Files (x86)\Microsoft Visual Studio\2019\Community\VC\Tools\MSVC\14.29.30133\atlmfc\include\atlsimpstr.h

; 519  : 		return( GetData()->nDataLength );

  00030	8b 8e c4 00 00
	00		 mov	 ecx, DWORD PTR [esi+196]
  00036	53		 push	 ebx

; 800  : 		return( reinterpret_cast< CStringData* >( m_pszData )-1 );

  00037	8d 9e c4 00 00
	00		 lea	 ebx, DWORD PTR [esi+196]

; 519  : 		return( GetData()->nDataLength );

  0003d	89 4d 08	 mov	 DWORD PTR $T1[ebp], ecx
; File D:\git\src\IBK\IBK_DRFN\ProjSrc\SrcDrfn\Chart\MULTICHART\FloatingHogaDlg.cpp

; 299  : 				if(m_strCode.GetLength()>0) OnCodeUnAdvise(m_strCode);	// Old Code

  00040	83 79 f4 00	 cmp	 DWORD PTR [ecx-12], 0
  00044	7e 38		 jle	 SHORT $LN14@WindowProc

; 2553 : 	if(!m_pDrdsLib) return;

  00046	8b 96 60 06 00
	00		 mov	 edx, DWORD PTR [esi+1632]
  0004c	85 d2		 test	 edx, edx
  0004e	74 2e		 je	 SHORT $LN14@WindowProc

; 2554 : 
; 2555 : 	int nKXH1RealType = 1;	// 1:
; 2556 : 	m_pDrdsLib->DrdsUnadvise(nKXH1RealType, "KXH1", "*", (LPSTR)strCode);

  00050	8b 02		 mov	 eax, DWORD PTR [edx]
  00052	51		 push	 ecx
  00053	68 00 00 00 00	 push	 OFFSET ??_C@_01NBENCBCI@?$CK@
  00058	68 00 00 00 00	 push	 OFFSET ??_C@_04KAJDJNDN@KXH1@
  0005d	6a 01		 push	 1
  0005f	52		 push	 edx
  00060	ff 50 14	 call	 DWORD PTR [eax+20]

; 2557 : 	int nKXYSRealType = 23;	// 1:
; 2558 : 	m_pDrdsLib->DrdsUnadvise(nKXYSRealType, "KXYS", "*", (LPSTR)strCode);

  00063	ff 75 08	 push	 DWORD PTR $T1[ebp]
  00066	8b 86 60 06 00
	00		 mov	 eax, DWORD PTR [esi+1632]
  0006c	68 00 00 00 00	 push	 OFFSET ??_C@_01NBENCBCI@?$CK@
  00071	68 00 00 00 00	 push	 OFFSET ??_C@_04OKLMFNFP@KXYS@
  00076	6a 17		 push	 23			; 00000017H
  00078	8b 08		 mov	 ecx, DWORD PTR [eax]
  0007a	50		 push	 eax
  0007b	ff 51 14	 call	 DWORD PTR [ecx+20]
$LN14@WindowProc:

; 300  : 
; 301  : 				CString* strRecvCode = (CString*)wParam;
; 302  : 				
; 303  : 				stReceiveFromServer* pStR = (stReceiveFromServer*)lParam;				
; 304  : 				m_strOldCode = m_strCode;	// .

  0007e	53		 push	 ebx
  0007f	8d 8e c8 00 00
	00		 lea	 ecx, DWORD PTR [esi+200]
  00085	ff 15 00 00 00
	00		 call	 DWORD PTR __imp_??4?$CStringT@DV?$StrTraitMFC_DLL@DV?$ChTraitsCRT@D@ATL@@@@@ATL@@QAEAAV01@ABV01@@Z

; 305  : 				m_strCode = *strRecvCode;

  0008b	ff 75 0c	 push	 DWORD PTR _wParam$[ebp]
  0008e	8b cb		 mov	 ecx, ebx
  00090	ff 15 00 00 00
	00		 call	 DWORD PTR __imp_??4?$CStringT@DV?$StrTraitMFC_DLL@DV?$ChTraitsCRT@D@ATL@@@@@ATL@@QAEAAV01@ABV01@@Z

; 306  : 				SetHogaData((char*)pStR->m_pBuffer,pStR->m_dwLength);

  00096	8b 45 10	 mov	 eax, DWORD PTR _lParam$[ebp]
  00099	8b ce		 mov	 ecx, esi
  0009b	6a 00		 push	 0
  0009d	ff 70 08	 push	 DWORD PTR [eax+8]
  000a0	ff 70 04	 push	 DWORD PTR [eax+4]
  000a3	e8 00 00 00 00	 call	 ?SetHogaData@CFloatingHogaDlg@@QAEXPADHH@Z ; CFloatingHogaDlg::SetHogaData

; 2543 : 	if(!m_pDrdsLib) return;

  000a8	8b 8e 60 06 00
	00		 mov	 ecx, DWORD PTR [esi+1632]
; File C:\Program Files (x86)\Microsoft Visual Studio\2019\Community\VC\Tools\MSVC\14.29.30133\atlmfc\include\atlsimpstr.h

; 377  : 		return( m_pszData );

  000ae	8b 1b		 mov	 ebx, DWORD PTR [ebx]
; File D:\git\src\IBK\IBK_DRFN\ProjSrc\SrcDrfn\Chart\MULTICHART\FloatingHogaDlg.cpp

; 2543 : 	if(!m_pDrdsLib) return;

  000b0	85 c9		 test	 ecx, ecx
  000b2	74 2c		 je	 SHORT $LN22@WindowProc

; 2544 : 
; 2545 : 	int nKXH1RealType = 1;	// 1:
; 2546 : 	m_pDrdsLib->DrdsAdvise(nKXH1RealType, "KXH1", "*", (LPSTR)strCode);

  000b4	8b 01		 mov	 eax, DWORD PTR [ecx]
  000b6	53		 push	 ebx
  000b7	68 00 00 00 00	 push	 OFFSET ??_C@_01NBENCBCI@?$CK@
  000bc	68 00 00 00 00	 push	 OFFSET ??_C@_04KAJDJNDN@KXH1@
  000c1	6a 01		 push	 1
  000c3	51		 push	 ecx
  000c4	ff 50 10	 call	 DWORD PTR [eax+16]

; 2547 : 	int nKXYSRealType = 23;	// 1:
; 2548 : 	m_pDrdsLib->DrdsAdvise(nKXYSRealType, "KXYS", "*", (LPSTR)strCode);

  000c7	8b 86 60 06 00
	00		 mov	 eax, DWORD PTR [esi+1632]
  000cd	53		 push	 ebx
  000ce	68 00 00 00 00	 push	 OFFSET ??_C@_01NBENCBCI@?$CK@
  000d3	68 00 00 00 00	 push	 OFFSET ??_C@_04OKLMFNFP@KXYS@
  000d8	8b 08		 mov	 ecx, DWORD PTR [eax]
  000da	6a 17		 push	 23			; 00000017H
  000dc	50		 push	 eax
  000dd	ff 51 10	 call	 DWORD PTR [ecx+16]
$LN22@WindowProc:
  000e0	5b		 pop	 ebx
$LN19@WindowProc:

; 307  : 				OnCodeAdvise(m_strCode);	// New Code
; 308  : 			}
; 309  : 		case WM_CLICKLABEL:
; 310  : 			{
; 311  : 				m_bCapTure = FALSE;
; 312  : 			}
; 313  : 			break;
; 314  : 	}
; 315  : 	
; 316  : 	return CDialog::WindowProc(message, wParam, lParam);

  000e1	ff 75 10	 push	 DWORD PTR _lParam$[ebp]
  000e4	8b ce		 mov	 ecx, esi
  000e6	c7 86 30 02 00
	00 00 00 00 00	 mov	 DWORD PTR [esi+560], 0
  000f0	ff 75 0c	 push	 DWORD PTR _wParam$[ebp]
  000f3	57		 push	 edi
  000f4	e8 00 00 00 00	 call	 ?WindowProc@CWnd@@MAEJIIJ@Z ; CWnd::WindowProc
  000f9	5f		 pop	 edi
  000fa	5e		 pop	 esi

; 317  : }

  000fb	5d		 pop	 ebp
  000fc	c2 0c 00	 ret	 12			; 0000000cH
?WindowProc@CFloatingHogaDlg@@MAEJIIJ@Z ENDP		; CFloatingHogaDlg::WindowProc
_TEXT	ENDS
; Function compile flags: /Ogtp
; File D:\git\src\IBK\IBK_DRFN\ProjSrc\SrcDrfn\Chart\MULTICHART\FloatingHogaDlg.cpp
;	COMDAT ?DoDataExchange@CFloatingHogaDlg@@MAEXPAVCDataExchange@@@Z
_TEXT	SEGMENT
_pDX$ = 8						; size = 4
?DoDataExchange@CFloatingHogaDlg@@MAEXPAVCDataExchange@@@Z PROC ; CFloatingHogaDlg::DoDataExchange, COMDAT
; _this$ = ecx

; 86   : {

  00000	55		 push	 ebp
  00001	8b ec		 mov	 ebp, esp
  00003	56		 push	 esi
  00004	57		 push	 edi

; 87   : 	CRscDlg::DoDataExchange(pDX);

  00005	8b 7d 08	 mov	 edi, DWORD PTR _pDX$[ebp]
  00008	8b f1		 mov	 esi, ecx
  0000a	57		 push	 edi
  0000b	e8 00 00 00 00	 call	 ?DoDataExchange@CRscDlg@@MAEXPAVCDataExchange@@@Z ; CRscDlg::DoDataExchange

; 88   : 	//{{AFX_DATA_MAP(CFloatingHogaDlg)
; 89   : 	DDX_Control(pDX, IDC_STATIC_FLOTING_GRID, m_staticGridFrame);

  00010	8d 86 38 02 00
	00		 lea	 eax, DWORD PTR [esi+568]
  00016	50		 push	 eax
  00017	68 5e 18 00 00	 push	 6238			; 0000185eH
  0001c	57		 push	 edi
  0001d	e8 00 00 00 00	 call	 ?DDX_Control@@YGXPAVCDataExchange@@HAAVCWnd@@@Z ; DDX_Control

; 90   : 	DDX_Control(pDX, IDC_STATIC_SYMBOL, m_staticSymbol);

  00022	8d 86 70 03 00
	00		 lea	 eax, DWORD PTR [esi+880]
  00028	50		 push	 eax
  00029	68 f2 03 00 00	 push	 1010			; 000003f2H
  0002e	57		 push	 edi
  0002f	e8 00 00 00 00	 call	 ?DDX_Control@@YGXPAVCDataExchange@@HAAVCWnd@@@Z ; DDX_Control

; 91   : 	DDX_Control(pDX, IDC_STATIC_TITLE, m_staitcTilte);	

  00034	8d 86 a8 04 00
	00		 lea	 eax, DWORD PTR [esi+1192]
  0003a	50		 push	 eax
  0003b	68 ef 03 00 00	 push	 1007			; 000003efH
  00040	57		 push	 edi
  00041	e8 00 00 00 00	 call	 ?DDX_Control@@YGXPAVCDataExchange@@HAAVCWnd@@@Z ; DDX_Control

; 92   : 	DDX_Control(pDX, IDC_BUTTON_CLOSE, m_ctrlButtonClose);	

  00046	8d 86 e0 05 00
	00		 lea	 eax, DWORD PTR [esi+1504]
  0004c	50		 push	 eax
  0004d	68 75 18 00 00	 push	 6261			; 00001875H
  00052	57		 push	 edi
  00053	e8 00 00 00 00	 call	 ?DDX_Control@@YGXPAVCDataExchange@@HAAVCWnd@@@Z ; DDX_Control
  00058	5f		 pop	 edi
  00059	5e		 pop	 esi

; 93   : //@solomon	20091113	-->>
; 94   : //	DDX_Control(pDX, IDC_BUTTON_SELL, m_ctrlButtonSell);	
; 95   : //	DDX_Control(pDX, IDC_BUTTON_BUY, m_ctrlButtonBuy);	
; 96   : //@solomon	20091113	<<--
; 97   : 	//}}AFX_DATA_MAP
; 98   : }

  0005a	5d		 pop	 ebp
  0005b	c2 04 00	 ret	 4
?DoDataExchange@CFloatingHogaDlg@@MAEXPAVCDataExchange@@@Z ENDP ; CFloatingHogaDlg::DoDataExchange
_TEXT	ENDS
; Function compile flags: /Ogtp
; File D:\git\src\IBK\IBK_DRFN\ProjSrc\SrcDrfn\Chart\MULTICHART\FloatingHogaDlg.cpp
;	COMDAT ?PreTranslateMessage@CFloatingHogaDlg@@UAEHPAUtagMSG@@@Z
_TEXT	SEGMENT
_pMsg$ = 8						; size = 4
?PreTranslateMessage@CFloatingHogaDlg@@UAEHPAUtagMSG@@@Z PROC ; CFloatingHogaDlg::PreTranslateMessage, COMDAT
; _this$ = ecx

; 2298 : {

  00000	55		 push	 ebp
  00001	8b ec		 mov	 ebp, esp

; 2299 : 	// TODO: Add your specialized code here and/or call the base class
; 2300 : 	switch(pMsg->message) 

  00003	8b 45 08	 mov	 eax, DWORD PTR _pMsg$[ebp]
  00006	81 78 04 00 01
	00 00		 cmp	 DWORD PTR [eax+4], 256	; 00000100H
  0000d	75 16		 jne	 SHORT $LN4@PreTransla

; 2301 : 	{
; 2302 : 		case WM_KEYDOWN	:
; 2303 : 			{
; 2304 : 				UINT nChar = (UINT)pMsg->wParam;

  0000f	8b 50 08	 mov	 edx, DWORD PTR [eax+8]

; 2305 : 				switch(nChar)

  00012	83 fa 0d	 cmp	 edx, 13			; 0000000dH
  00015	74 05		 je	 SHORT $LN7@PreTransla
  00017	83 fa 1b	 cmp	 edx, 27			; 0000001bH
  0001a	75 09		 jne	 SHORT $LN4@PreTransla
$LN7@PreTransla:

; 2306 : 				{
; 2307 : 					case VK_RETURN :
; 2308 : 					case VK_ESCAPE :
; 2309 : 					{
; 2310 : 						return TRUE;

  0001c	b8 01 00 00 00	 mov	 eax, 1

; 2318 : }

  00021	5d		 pop	 ebp
  00022	c2 04 00	 ret	 4
$LN4@PreTransla:

; 2311 : 						break;					
; 2312 : 					}
; 2313 : 				}
; 2314 : 				break;
; 2315 : 			}
; 2316 : 	}
; 2317 : 	return CRscDlg::PreTranslateMessage(pMsg);

  00025	89 45 08	 mov	 DWORD PTR _pMsg$[ebp], eax

; 2318 : }

  00028	5d		 pop	 ebp

; 2311 : 						break;					
; 2312 : 					}
; 2313 : 				}
; 2314 : 				break;
; 2315 : 			}
; 2316 : 	}
; 2317 : 	return CRscDlg::PreTranslateMessage(pMsg);

  00029	e9 00 00 00 00	 jmp	 ?PreTranslateMessage@CDialog@@UAEHPAUtagMSG@@@Z ; CDialog::PreTranslateMessage
?PreTranslateMessage@CFloatingHogaDlg@@UAEHPAUtagMSG@@@Z ENDP ; CFloatingHogaDlg::PreTranslateMessage
_TEXT	ENDS
; Function compile flags: /Ogtp
; File D:\git\src\IBK\IBK_DRFN\ProjSrc\SrcDrfn\Chart\MULTICHART\FloatingHogaDlg.cpp
;	COMDAT ?ChangeGrid_ColumnWidth@CFloatingHogaDlg@@QAEXXZ
_TEXT	SEGMENT
_nColWdth$ = -48					; size = 44
__$ArrayPad$ = -4					; size = 4
?ChangeGrid_ColumnWidth@CFloatingHogaDlg@@QAEXXZ PROC	; CFloatingHogaDlg::ChangeGrid_ColumnWidth, COMDAT
; _this$ = ecx

; 560  : {

  00000	55		 push	 ebp
  00001	8b ec		 mov	 ebp, esp
  00003	83 ec 30	 sub	 esp, 48			; 00000030H
  00006	a1 00 00 00 00	 mov	 eax, DWORD PTR ___security_cookie
  0000b	33 c5		 xor	 eax, ebp
  0000d	89 45 fc	 mov	 DWORD PTR __$ArrayPad$[ebp], eax
  00010	53		 push	 ebx
  00011	56		 push	 esi
  00012	8b f1		 mov	 esi, ecx
  00014	57		 push	 edi

; 561  : 	int nCol = m_pGridCtrl->GetColumnCount();

  00015	8b 8e cc 00 00
	00		 mov	 ecx, DWORD PTR [esi+204]
  0001b	e8 00 00 00 00	 call	 ?GetColumnCount@CExGridCtrl@@QAEHXZ ; CExGridCtrl::GetColumnCount

; 562  : 	int nColWdth[TOTAL_COLUMN_COUNT] = {0, };

  00020	6a 2c		 push	 44			; 0000002cH
  00022	8b d8		 mov	 ebx, eax
  00024	8d 45 d0	 lea	 eax, DWORD PTR _nColWdth$[ebp]
  00027	6a 00		 push	 0
  00029	50		 push	 eax
  0002a	e8 00 00 00 00	 call	 _memset
  0002f	83 c4 0c	 add	 esp, 12			; 0000000cH
  00032	33 ff		 xor	 edi, edi

; 563  : 	int col = 0;
; 564  : 	// column width "0" initialize ( ) ------------->>
; 565  : 	for ( col = 0; col < nCol; col++)

  00034	85 db		 test	 ebx, ebx
  00036	7e 1b		 jle	 SHORT $LN3@ChangeGrid
  00038	0f 1f 84 00 00
	00 00 00	 npad	 8
$LL4@ChangeGrid:

; 566  : 	{
; 567  : 		m_pGridCtrl->SetColumnWidth(col, 0);

  00040	8b 8e cc 00 00
	00		 mov	 ecx, DWORD PTR [esi+204]
  00046	6a 00		 push	 0
  00048	57		 push	 edi
  00049	e8 00 00 00 00	 call	 ?SetColumnWidth@CExGridCtrl@@QAEHHH@Z ; CExGridCtrl::SetColumnWidth
  0004e	47		 inc	 edi
  0004f	3b fb		 cmp	 edi, ebx
  00051	7c ed		 jl	 SHORT $LL4@ChangeGrid
$LN3@ChangeGrid:

; 568  : 	}
; 569  : 	//m_pGridCtrl->Call_ResetScrollBars();
; 570  : 	// <<-------------------------------------------------------
; 571  : 
; 572  : 
; 573  : 	// *****************************************************************************
; 574  : 	// nColGubun	0 : 10
; 575  : 	//				1 :  1)    10   **
; 576  : 	//							 2)	  							
; 577  : 	//				2 :  1)    10   **
; 578  : 	//							 2)   
; 579  : 	//				3 :  1)    10   **
; 580  : 	// ******************************************************************************
; 581  : 	int nColGubun;
; 582  : 	if (m_bIsTenHoga == TRUE)

  00053	83 be c0 01 00
	00 01		 cmp	 DWORD PTR [esi+448], 1
  0005a	0f 84 8c 00 00
	00		 je	 $LN16@ChangeGrid

; 583  : 	{
; 584  : 		nColGubun = 0;
; 585  : 	}
; 586  : 	else
; 587  : 	{
; 588  : 		int nRow = m_pGridCtrl->GetRowCount();

  00060	8b 8e cc 00 00
	00		 mov	 ecx, DWORD PTR [esi+204]
  00066	e8 00 00 00 00	 call	 ?GetRowCount@CExGridCtrl@@QAEHXZ ; CExGridCtrl::GetRowCount

; 589  : 
; 590  : 		// ##    10    ##
; 591  : 		if (nRow <= TENHOGA_ROW_COUNT)

  0006b	83 f8 1d	 cmp	 eax, 29			; 0000001dH
  0006e	7f 14		 jg	 SHORT $LN20@ChangeGrid

; 592  : 		{
; 593  : 			if (m_bExpandBottom == TRUE)
; 594  : 				nColGubun = 1;
; 595  : 			else
; 596  : 				nColGubun = 2;
; 597  : 		}

  00070	33 c0		 xor	 eax, eax
  00072	83 be a0 01 00
	00 01		 cmp	 DWORD PTR [esi+416], 1
  00079	0f 95 c0	 setne	 al
  0007c	40		 inc	 eax

; 598  : 		else
; 599  : 		{
; 600  : 			nColGubun = 3;
; 601  : 		}
; 602  : 	}
; 603  : 
; 604  : 
; 605  : 	//   
; 606  : 	switch (nColGubun)

  0007d	ff 24 85 00 00
	00 00		 jmp	 DWORD PTR $LN59@ChangeGrid[eax*4]
$LN20@ChangeGrid:

; 640  : 			nColWdth[MAESU_COL]		= 0;
; 641  : 			nColWdth[RIGHT_CAN_COL] = 0;
; 642  : 			
; 643  : 			nColWdth[MAESU_RESERVE_COL]	= 0;
; 644  : 			nColWdth[BONG_COL]		= BONG_COL_WIDTH;
; 645  : 		}
; 646  : 		break;
; 647  : 
; 648  : 	case 2:
; 649  : 	case 3:
; 650  : 		if ( m_bExpandRight == TRUE )		// - VScroll Yes

  00084	83 be 9c 01 00
	00 01		 cmp	 DWORD PTR [esi+412], 1
  0008b	c7 45 e0 46 00
	00 00		 mov	 DWORD PTR _nColWdth$[ebp+16], 70 ; 00000046H
  00092	75 48		 jne	 SHORT $LN22@ChangeGrid

; 651  : 		{
; 652  : 			nColWdth[MAEDO_RESERVE_COL]	= (m_bIsShowReserveCol) ? RESERVE_COL_WIDTH : 0;
; 653  : 			nColWdth[LEFT_CAN_COL]	= (m_bIsShowReserveCol) ? 0 : CANCEL_COL_WIDTH;		
; 654  : 			nColWdth[MAEDO_COL]		= MAEMAE_COL_WIDTH_SB;
; 655  : 			nColWdth[MAEDO_JAN_COL] = JAN_COL_WIDTH_SB;		

  00094	c7 45 dc 69 00
	00 00		 mov	 DWORD PTR _nColWdth$[ebp+12], 105 ; 00000069H

; 656  : 			
; 657  : 			//nColWdth[HOGA_COL]		= (m_bOpenCol) ? HOGA_COL_WIDTH_SB  : HOGA_COL_WIDTH_SB+DAEBI_COL_WIDTH;
; 658  : 			nColWdth[HOGA_COL]		= HOGA_COL_WIDTH;
; 659  : 			nColWdth[DAEBI_COL]		= (m_bOpenCol) ? DAEBI_COL_WIDTH : 0;
; 660  : 			
; 661  : 			nColWdth[MAESU_JAN_COL] = JAN_COL_WIDTH_SB;

  0009b	c7 45 e8 69 00
	00 00		 mov	 DWORD PTR _nColWdth$[ebp+24], 105 ; 00000069H
$LN63@ChangeGrid:

; 681  : 			nColWdth[RIGHT_CAN_COL] = 0;
; 682  : 			
; 683  : 			nColWdth[MAESU_RESERVE_COL]	= 0;
; 684  : 			nColWdth[BONG_COL]		= BONG_COL_WIDTH;
; 685  : 		}
; 686  : 		break;
; 687  : 	}
; 688  : 
; 689  : 	
; 690  : 	// column width
; 691  : 	for (col = 0; col < nCol; col++)

  000a2	8b 86 ac 01 00
	00		 mov	 eax, DWORD PTR [esi+428]
  000a8	b9 2d 00 00 00	 mov	 ecx, 45			; 0000002dH
  000ad	8b d0		 mov	 edx, eax
  000af	c7 45 d8 32 00
	00 00		 mov	 DWORD PTR _nColWdth$[ebp+8], 50 ; 00000032H
  000b6	f7 da		 neg	 edx
  000b8	c7 45 ec 32 00
	00 00		 mov	 DWORD PTR _nColWdth$[ebp+28], 50 ; 00000032H
  000bf	1b d2		 sbb	 edx, edx
  000c1	33 ff		 xor	 edi, edi
  000c3	83 e2 2d	 and	 edx, 45			; 0000002dH
  000c6	89 7d f8	 mov	 DWORD PTR _nColWdth$[ebp+40], edi
  000c9	85 c0		 test	 eax, eax
  000cb	89 55 d0	 mov	 DWORD PTR _nColWdth$[ebp], edx
  000ce	89 55 f4	 mov	 DWORD PTR _nColWdth$[ebp+36], edx
  000d1	0f 45 cf	 cmovne	 ecx, edi
  000d4	89 4d d4	 mov	 DWORD PTR _nColWdth$[ebp+4], ecx
  000d7	89 4d f0	 mov	 DWORD PTR _nColWdth$[ebp+32], ecx
  000da	eb 49		 jmp	 SHORT $LN60@ChangeGrid
$LN22@ChangeGrid:

; 662  : 			nColWdth[MAESU_COL]		= MAEMAE_COL_WIDTH_SB;
; 663  : 			nColWdth[RIGHT_CAN_COL] = (m_bIsShowReserveCol) ? 0 : CANCEL_COL_WIDTH;
; 664  : 			
; 665  : 			nColWdth[MAESU_RESERVE_COL]	= (m_bIsShowReserveCol) ? RESERVE_COL_WIDTH : 0;
; 666  : 			nColWdth[BONG_COL]		= BONG_COL_WIDTH;
; 667  : 		}
; 668  : 		else								// - VScroll Yes
; 669  : 		{
; 670  : 			nColWdth[MAEDO_RESERVE_COL]	= 0;
; 671  : 			nColWdth[LEFT_CAN_COL]	= 0;		
; 672  : 			nColWdth[MAEDO_COL]		= 0;
; 673  : 			nColWdth[MAEDO_JAN_COL] = JAN_COL_WIDTH_SH-9;		
; 674  : 			
; 675  : 			//nColWdth[HOGA_COL]		= (m_bOpenCol) ? HOGA_COL_WIDTH_SH_SB  : HOGA_COL_WIDTH_SH_SB+DAEBI_COL_WIDTH;
; 676  : 			nColWdth[HOGA_COL]		= HOGA_COL_WIDTH;
; 677  : 			nColWdth[DAEBI_COL]		= (m_bOpenCol) ? DAEBI_COL_WIDTH	: 0;
; 678  : 			
; 679  : 			nColWdth[MAESU_JAN_COL] = JAN_COL_WIDTH_SH-9;

  000dc	0f 28 05 00 00
	00 00		 movaps	 xmm0, XMMWORD PTR __xmm@00000000000000000000000000000041
  000e3	c7 45 dc 41 00
	00 00		 mov	 DWORD PTR _nColWdth$[ebp+12], 65 ; 00000041H

; 680  : 			nColWdth[MAESU_COL]		= 0;

  000ea	eb 2e		 jmp	 SHORT $LN61@ChangeGrid
$LN16@ChangeGrid:

; 607  : 	{
; 608  : 	case 0:
; 609  : 	case 1:
; 610  : 		if ( m_bExpandRight == TRUE )			// -VScroll No

  000ec	83 be 9c 01 00
	00 01		 cmp	 DWORD PTR [esi+412], 1
  000f3	c7 45 e0 46 00
	00 00		 mov	 DWORD PTR _nColWdth$[ebp+16], 70 ; 00000046H
  000fa	75 10		 jne	 SHORT $LN18@ChangeGrid

; 611  : 		{
; 612  : 			nColWdth[MAEDO_RESERVE_COL]	= (m_bIsShowReserveCol) ? RESERVE_COL_WIDTH : 0;
; 613  : 			nColWdth[LEFT_CAN_COL]	= (m_bIsShowReserveCol) ? 0 : CANCEL_COL_WIDTH;
; 614  : 			nColWdth[MAEDO_COL]		= MAEMAE_COL_WIDTH;
; 615  : 			nColWdth[MAEDO_JAN_COL] = JAN_COL_WIDTH;		

  000fc	c7 45 dc 6e 00
	00 00		 mov	 DWORD PTR _nColWdth$[ebp+12], 110 ; 0000006eH

; 616  : 			
; 617  : 			//nColWdth[HOGA_COL]		= (m_bOpenCol) ? HOGA_COL_WIDTH  : HOGA_COL_WIDTH+DAEBI_COL_WIDTH;
; 618  : 			nColWdth[HOGA_COL]		= HOGA_COL_WIDTH;
; 619  : 			nColWdth[DAEBI_COL]		= (m_bOpenCol) ? DAEBI_COL_WIDTH : 0;
; 620  : 			
; 621  : 			nColWdth[MAESU_JAN_COL] = JAN_COL_WIDTH;

  00103	c7 45 e8 6e 00
	00 00		 mov	 DWORD PTR _nColWdth$[ebp+24], 110 ; 0000006eH

; 622  : 			nColWdth[MAESU_COL]		= MAEMAE_COL_WIDTH;
; 623  : 			nColWdth[RIGHT_CAN_COL] = (m_bIsShowReserveCol) ? 0 : CANCEL_COL_WIDTH;
; 624  : 			
; 625  : 			nColWdth[MAESU_RESERVE_COL]	= (m_bIsShowReserveCol) ? RESERVE_COL_WIDTH : 0;
; 626  : 			nColWdth[BONG_COL]		= BONG_COL_WIDTH;
; 627  : 		}

  0010a	eb 96		 jmp	 SHORT $LN63@ChangeGrid
$LN18@ChangeGrid:

; 628  : 		else									// -VScroll No
; 629  : 		{
; 630  : 			nColWdth[MAEDO_RESERVE_COL] = 0;
; 631  : 			nColWdth[LEFT_CAN_COL]	= 0;		
; 632  : 			nColWdth[MAEDO_COL]		= 0;
; 633  : 			nColWdth[MAEDO_JAN_COL] = JAN_COL_WIDTH_SH;		
; 634  : 			
; 635  : 			//nColWdth[HOGA_COL]		= (m_bOpenCol) ? HOGA_COL_WIDTH_SH  : HOGA_COL_WIDTH_SH+DAEBI_COL_WIDTH;
; 636  : 			nColWdth[HOGA_COL]		= HOGA_COL_WIDTH;
; 637  : 			nColWdth[DAEBI_COL]		= (m_bOpenCol) ? DAEBI_COL_WIDTH	: 0;
; 638  : 			
; 639  : 			nColWdth[MAESU_JAN_COL] = JAN_COL_WIDTH_SH;

  0010c	0f 28 05 00 00
	00 00		 movaps	 xmm0, XMMWORD PTR __xmm@0000000000000000000000000000004a
  00113	c7 45 dc 4a 00
	00 00		 mov	 DWORD PTR _nColWdth$[ebp+12], 74 ; 0000004aH
$LN61@ChangeGrid:

; 681  : 			nColWdth[RIGHT_CAN_COL] = 0;
; 682  : 			
; 683  : 			nColWdth[MAESU_RESERVE_COL]	= 0;
; 684  : 			nColWdth[BONG_COL]		= BONG_COL_WIDTH;
; 685  : 		}
; 686  : 		break;
; 687  : 	}
; 688  : 
; 689  : 	
; 690  : 	// column width
; 691  : 	for (col = 0; col < nCol; col++)

  0011a	c7 45 f8 00 00
	00 00		 mov	 DWORD PTR _nColWdth$[ebp+40], 0
  00121	0f 11 45 e8	 movups	 XMMWORD PTR _nColWdth$[ebp+24], xmm0
$LN60@ChangeGrid:
  00125	8b 86 a4 01 00
	00		 mov	 eax, DWORD PTR [esi+420]
  0012b	f7 d8		 neg	 eax
  0012d	1b c0		 sbb	 eax, eax
  0012f	83 e0 32	 and	 eax, 50			; 00000032H
  00132	89 45 e4	 mov	 DWORD PTR _nColWdth$[ebp+20], eax
$LN52@ChangeGrid:
  00135	33 ff		 xor	 edi, edi
  00137	85 db		 test	 ebx, ebx
  00139	7e 1a		 jle	 SHORT $LN8@ChangeGrid
  0013b	0f 1f 44 00 00	 npad	 5
$LL9@ChangeGrid:

; 692  : 	{
; 693  : 		m_pGridCtrl->SetColumnWidth(col, nColWdth[col]);

  00140	ff 74 bd d0	 push	 DWORD PTR _nColWdth$[ebp+edi*4]
  00144	8b 8e cc 00 00
	00		 mov	 ecx, DWORD PTR [esi+204]
  0014a	57		 push	 edi
  0014b	e8 00 00 00 00	 call	 ?SetColumnWidth@CExGridCtrl@@QAEHHH@Z ; CExGridCtrl::SetColumnWidth
  00150	47		 inc	 edi
  00151	3b fb		 cmp	 edi, ebx
  00153	7c eb		 jl	 SHORT $LL9@ChangeGrid
$LN8@ChangeGrid:

; 694  : //		m_pGridCtrl->SetColumnWidth_NoReset(col, nColWdth[col]);
; 695  : 	}
; 696  : 
; 697  : 
; 698  : 	// ,   
; 699  : 	if( m_bOpenCol == TRUE)

  00155	83 be a4 01 00
	00 01		 cmp	 DWORD PTR [esi+420], 1
  0015c	8b 8e cc 00 00
	00		 mov	 ecx, DWORD PTR [esi+204]
  00162	75 1b		 jne	 SHORT $LN24@ChangeGrid

; 700  : 	{
; 701  : 		m_pGridCtrl->SetItemImage(TENHOGA_ROW_FIRST, HOGA_COL, 0);

  00164	6a 00		 push	 0
  00166	6a 04		 push	 4
  00168	6a 00		 push	 0
  0016a	e8 00 00 00 00	 call	 ?SetItemImage@CExGridCtrl@@QAEHHHH@Z ; CExGridCtrl::SetItemImage

; 702  : 		m_pGridCtrl->SetItemImage(TENHOGA_ROW_FIRST, DAEBI_COL, 2);

  0016f	8b 8e cc 00 00
	00		 mov	 ecx, DWORD PTR [esi+204]
  00175	b8 05 00 00 00	 mov	 eax, 5
  0017a	8d 50 fd	 lea	 edx, DWORD PTR [eax-3]

; 703  : 	}

  0017d	eb 0a		 jmp	 SHORT $LN25@ChangeGrid
$LN24@ChangeGrid:

; 704  : 	else
; 705  : 		m_pGridCtrl->SetItemImage(TENHOGA_ROW_FIRST, HOGA_COL, 1);

  0017f	b8 04 00 00 00	 mov	 eax, 4
  00184	ba 01 00 00 00	 mov	 edx, 1
$LN25@ChangeGrid:

; 706  : 
; 707  : 
; 708  : 	//  Hide, Show ------------------------------------------->>>
; 709  : //	if(m_bExpandRight)
; 710  : //	{
; 711  : //		m_pGridCtrl->SetBongGraphEnable(TRUE);
; 712  : //		m_pGridCtrl->SetColumnWidth(BONG_COL, BONG_COL_WIDTH);
; 713  : //	}
; 714  : //	else
; 715  : //	{
; 716  : //		m_pGridCtrl->SetBongGraphEnable(FALSE);
; 717  : //		m_pGridCtrl->SetColumnWidth(BONG_COL, 0);
; 718  : //	}
; 719  : 	// <<<---------------------------------------------------------------
; 720  : 
; 721  : //	m_pGridCtrl->Call_ResetScrollBars();	
; 722  : 
; 723  : 	m_pGridCtrl->Refresh();

  00189	52		 push	 edx
  0018a	50		 push	 eax
  0018b	6a 00		 push	 0
  0018d	e8 00 00 00 00	 call	 ?SetItemImage@CExGridCtrl@@QAEHHHH@Z ; CExGridCtrl::SetItemImage
  00192	8b 8e cc 00 00
	00		 mov	 ecx, DWORD PTR [esi+204]
  00198	e8 00 00 00 00	 call	 ?Refresh@CExGridCtrl@@QAEXXZ ; CExGridCtrl::Refresh

; 724  : }

  0019d	8b 4d fc	 mov	 ecx, DWORD PTR __$ArrayPad$[ebp]
  001a0	5f		 pop	 edi
  001a1	5e		 pop	 esi
  001a2	33 cd		 xor	 ecx, ebp
  001a4	5b		 pop	 ebx
  001a5	e8 00 00 00 00	 call	 @__security_check_cookie@4
  001aa	8b e5		 mov	 esp, ebp
  001ac	5d		 pop	 ebp
  001ad	c3		 ret	 0
  001ae	66 90		 npad	 2
$LN59@ChangeGrid:
  001b0	00 00 00 00	 DD	 $LN16@ChangeGrid
  001b4	00 00 00 00	 DD	 $LN16@ChangeGrid
  001b8	00 00 00 00	 DD	 $LN20@ChangeGrid
  001bc	00 00 00 00	 DD	 $LN20@ChangeGrid
?ChangeGrid_ColumnWidth@CFloatingHogaDlg@@QAEXXZ ENDP	; CFloatingHogaDlg::ChangeGrid_ColumnWidth
_TEXT	ENDS
; Function compile flags: /Ogtp
; File D:\git\src\IBK\IBK_DRFN\ProjSrc\SrcDrfn\Chart\MULTICHART\FloatingHogaDlg.cpp
;	COMDAT ?ChangeGrid_RowHeight@CFloatingHogaDlg@@QAEXXZ
_TEXT	SEGMENT
?ChangeGrid_RowHeight@CFloatingHogaDlg@@QAEXXZ PROC	; CFloatingHogaDlg::ChangeGrid_RowHeight, COMDAT
; _this$ = ecx

; 502  : {

  00000	53		 push	 ebx
  00001	56		 push	 esi
  00002	57		 push	 edi
  00003	8b f9		 mov	 edi, ecx

; 503  : 	int nRow = m_pGridCtrl->GetRowCount();

  00005	8b 8f cc 00 00
	00		 mov	 ecx, DWORD PTR [edi+204]
  0000b	e8 00 00 00 00	 call	 ?GetRowCount@CExGridCtrl@@QAEHXZ ; CExGridCtrl::GetRowCount
  00010	8b d8		 mov	 ebx, eax
  00012	33 f6		 xor	 esi, esi

; 504  : 	//   
; 505  : 	int row;
; 506  : 	for (row = 0; row < nRow; row++)

  00014	85 db		 test	 ebx, ebx
  00016	7e 54		 jle	 SHORT $LN3@ChangeGrid
  00018	0f 1f 84 00 00
	00 00 00	 npad	 8
$LL4@ChangeGrid:

; 507  : 	{
; 508  : 		// ******** 10  **********
; 509  : 		if ( m_bIsTenHoga == TRUE )		

  00020	83 bf c0 01 00
	00 01		 cmp	 DWORD PTR [edi+448], 1
  00027	75 2c		 jne	 SHORT $LN5@ChangeGrid

; 510  : 		{
; 511  : 			if( m_bExpandBottom == TRUE )		// 

  00029	83 bf a0 01 00
	00 01		 cmp	 DWORD PTR [edi+416], 1
  00030	74 23		 je	 SHORT $LN5@ChangeGrid

; 512  : 			{
; 513  : 				m_pGridCtrl->SetRowHeight(row, ROW_HEIGHT);
; 514  : 				//m_pGridCtrl->SetRowHeight_NoReset(row, ROW_HEIGHT);
; 515  : 			}
; 516  : 			else								// 
; 517  : 			{
; 518  : 				if( MAEDO_ROW <= row && row <= MAEDO_ROW+4 )

  00032	8d 4e ed	 lea	 ecx, DWORD PTR [esi-19]
  00035	8d 41 0f	 lea	 eax, DWORD PTR [ecx+15]
  00038	83 f8 04	 cmp	 eax, 4
  0003b	76 14		 jbe	 SHORT $LN15@ChangeGrid

; 519  : 				{
; 520  : 					m_pGridCtrl->SetRowHeight(row, 0);
; 521  : 					//m_pGridCtrl->SetRowHeight_NoReset(row, 0);
; 522  : 				}
; 523  : 				else if( MAESU_ROW+5 <= row && row <= MAESU_ROW+9 )

  0003d	83 f9 04	 cmp	 ecx, 4
  00040	76 0f		 jbe	 SHORT $LN15@ChangeGrid

; 524  : 				{
; 525  : 					m_pGridCtrl->SetRowHeight(row, 0);
; 526  : 					//m_pGridCtrl->SetRowHeight_NoReset(row, 0);
; 527  : 				}
; 528  : 				else if (	(ETC_HOGAUP_ROW		== row) || 	//   
; 529  : 							(ETC_HOGADOWN_ROW	== row)	||	//   

  00042	83 fe 03	 cmp	 esi, 3
  00045	74 0a		 je	 SHORT $LN15@ChangeGrid
  00047	83 fe 18	 cmp	 esi, 24			; 00000018H
  0004a	74 05		 je	 SHORT $LN15@ChangeGrid
  0004c	83 fe 01	 cmp	 esi, 1
  0004f	75 04		 jne	 SHORT $LN5@ChangeGrid
$LN15@ChangeGrid:

; 530  : 							(MARKETPRICE_ROW	== row)
; 531  : 				)
; 532  : 				{
; 533  : 					m_pGridCtrl->SetRowHeight(row, 0);
; 534  : 					//m_pGridCtrl->SetRowHeight_NoReset(row, 0);
; 535  : 				}
; 536  : 				else 
; 537  : 				{
; 538  : 					m_pGridCtrl->SetRowHeight(row, ROW_HEIGHT);
; 539  : 					//m_pGridCtrl->SetRowHeight_NoReset(row, ROW_HEIGHT);
; 540  : 				}
; 541  : 			}
; 542  : 		}

  00051	33 c0		 xor	 eax, eax
  00053	eb 05		 jmp	 SHORT $LN14@ChangeGrid
$LN5@ChangeGrid:

; 504  : 	//   
; 505  : 	int row;
; 506  : 	for (row = 0; row < nRow; row++)

  00055	b8 0e 00 00 00	 mov	 eax, 14			; 0000000eH
$LN14@ChangeGrid:
  0005a	8b 8f cc 00 00
	00		 mov	 ecx, DWORD PTR [edi+204]
  00060	50		 push	 eax
  00061	56		 push	 esi
  00062	e8 00 00 00 00	 call	 ?SetRowHeight@CExGridCtrl@@QAEHHH@Z ; CExGridCtrl::SetRowHeight
  00067	46		 inc	 esi
  00068	3b f3		 cmp	 esi, ebx
  0006a	7c b4		 jl	 SHORT $LL4@ChangeGrid
$LN3@ChangeGrid:

; 543  : 		// ********   **********
; 544  : 		else
; 545  : 		{
; 546  : 			m_pGridCtrl->SetRowHeight(row, ROW_HEIGHT);
; 547  : 			//m_pGridCtrl->SetRowHeight_NoReset(row, ROW_HEIGHT);
; 548  : 
; 549  : 		}
; 550  : 	}
; 551  : 
; 552  : //	m_pGridCtrl->Call_ResetScrollBars();
; 553  : 
; 554  : 	m_pGridCtrl->Refresh();	

  0006c	8b 8f cc 00 00
	00		 mov	 ecx, DWORD PTR [edi+204]
  00072	5f		 pop	 edi
  00073	5e		 pop	 esi
  00074	5b		 pop	 ebx
  00075	e9 00 00 00 00	 jmp	 ?Refresh@CExGridCtrl@@QAEXXZ ; CExGridCtrl::Refresh
?ChangeGrid_RowHeight@CFloatingHogaDlg@@QAEXXZ ENDP	; CFloatingHogaDlg::ChangeGrid_RowHeight
_TEXT	ENDS
; Function compile flags: /Ogtp
; File D:\git\src\IBK\IBK_DRFN\ProjSrc\SrcDrfn\Chart\MULTICHART\FloatingHogaDlg.cpp
;	COMDAT ?InitGridFormat@CFloatingHogaDlg@@QAEXXZ
_TEXT	SEGMENT
_nCol$1$ = -172						; size = 4
_nRow$1$ = -168						; size = 4
_Item$2 = -164						; size = 104
_szTitle$ = -60						; size = 44
__$ArrayPad$ = -16					; size = 4
__$EHRec$ = -12						; size = 12
?InitGridFormat@CFloatingHogaDlg@@QAEXXZ PROC		; CFloatingHogaDlg::InitGridFormat, COMDAT
; _this$ = ecx

; 728  : {

  00000	55		 push	 ebp
  00001	8b ec		 mov	 ebp, esp
  00003	6a ff		 push	 -1
  00005	68 00 00 00 00	 push	 __ehhandler$?InitGridFormat@CFloatingHogaDlg@@QAEXXZ
  0000a	64 a1 00 00 00
	00		 mov	 eax, DWORD PTR fs:0
  00010	50		 push	 eax
  00011	81 ec a0 00 00
	00		 sub	 esp, 160		; 000000a0H
  00017	a1 00 00 00 00	 mov	 eax, DWORD PTR ___security_cookie
  0001c	33 c5		 xor	 eax, ebp
  0001e	89 45 f0	 mov	 DWORD PTR __$ArrayPad$[ebp], eax
  00021	53		 push	 ebx
  00022	56		 push	 esi
  00023	57		 push	 edi
  00024	50		 push	 eax
  00025	8d 45 f4	 lea	 eax, DWORD PTR __$EHRec$[ebp]
  00028	64 a3 00 00 00
	00		 mov	 DWORD PTR fs:0, eax
  0002e	8b d9		 mov	 ebx, ecx

; 729  : 	int nCol = m_pGridCtrl->GetColumnCount();

  00030	8b 8b cc 00 00
	00		 mov	 ecx, DWORD PTR [ebx+204]
  00036	e8 00 00 00 00	 call	 ?GetColumnCount@CExGridCtrl@@QAEHXZ ; CExGridCtrl::GetColumnCount

; 730  : 	int nRow = m_pGridCtrl->GetRowCount();

  0003b	8b 8b cc 00 00
	00		 mov	 ecx, DWORD PTR [ebx+204]
  00041	89 85 54 ff ff
	ff		 mov	 DWORD PTR _nCol$1$[ebp], eax
  00047	e8 00 00 00 00	 call	 ?GetRowCount@CExGridCtrl@@QAEHXZ ; CExGridCtrl::GetRowCount

; 731  : 
; 732  : 	char *szTitle[] = {
; 733  : 		"Stop", "", "", "", " ", " ", "", "", "", "Stop", ""
; 734  : 		//"Stop", "", "", "", "", " ", "", "", "", "", "", "Stop", ""
; 735  : 		};
; 736  : 
; 737  : 	if (m_nThreeStateDaebiType == e_DAEBI_PER)

  0004c	8b 8b 18 02 00
	00		 mov	 ecx, DWORD PTR [ebx+536]
  00052	ba 00 00 00 00	 mov	 edx, OFFSET ??_C@_05BGBFEMBO@?5?$LF?n?$LG?t@
  00057	89 85 58 ff ff
	ff		 mov	 DWORD PTR _nRow$1$[ebp], eax
  0005d	c7 45 c4 00 00
	00 00		 mov	 DWORD PTR _szTitle$[ebp], OFFSET ??_C@_08DHOMADKC@Stop?$LI?E?$LF?$LF@
  00064	c7 45 c8 00 00
	00 00		 mov	 DWORD PTR _szTitle$[ebp+4], OFFSET ??_C@_02CONNCEND@?C?k@
  0006b	c7 45 cc 00 00
	00 00		 mov	 DWORD PTR _szTitle$[ebp+8], OFFSET ??_C@_08MNAHFBJA@?$LI?E?$LF?$LF?A?V?$LJ?$KO@
  00072	c7 45 d0 00 00
	00 00		 mov	 DWORD PTR _szTitle$[ebp+12], OFFSET ??_C@_08JFEELFEO@?$LI?E?$LF?$LF?$MA?$NM?$LH?$KO@
  00079	c7 45 d4 00 00
	00 00		 mov	 DWORD PTR _szTitle$[ebp+16], OFFSET ??_C@_05FGHBPLEF@?H?$KD?5?$LA?$KB@
  00080	c7 45 dc 00 00
	00 00		 mov	 DWORD PTR _szTitle$[ebp+24], OFFSET ??_C@_08IJBAIIFP@?$LI?E?$LM?v?$MA?$NM?$LH?$KO@
  00087	c7 45 e0 00 00
	00 00		 mov	 DWORD PTR _szTitle$[ebp+28], OFFSET ??_C@_08NBFDGMIB@?$LI?E?$LM?v?A?V?$LJ?$KO@
  0008e	c7 45 e4 00 00
	00 00		 mov	 DWORD PTR _szTitle$[ebp+32], OFFSET ??_C@_02CONNCEND@?C?k@
  00095	c7 45 e8 00 00
	00 00		 mov	 DWORD PTR _szTitle$[ebp+36], OFFSET ??_C@_08ODGJCEOL@Stop?$LI?E?$LM?v@
  0009c	c7 45 ec 00 00
	00 00		 mov	 DWORD PTR _szTitle$[ebp+40], OFFSET ??_C@_00CNPNBAHC@@
  000a3	83 f9 01	 cmp	 ecx, 1
  000a6	75 09		 jne	 SHORT $LN8@InitGridFo

; 738  : 		szTitle[DAEBI_COL] = "";

  000a8	c7 45 d8 00 00
	00 00		 mov	 DWORD PTR _szTitle$[ebp+20], OFFSET ??_C@_06ONEPBMEK@?$LF?n?$LG?t?$MA?$LC@
  000af	eb 14		 jmp	 SHORT $LN10@InitGridFo
$LN8@InitGridFo:

; 739  : 	else if (m_nThreeStateDaebiType == e_PROFIT_PER)

  000b1	83 f9 02	 cmp	 ecx, 2
  000b4	b8 00 00 00 00	 mov	 eax, OFFSET ??_C@_05NAFAMIEH@?5?$LM?v?$MA?M@
  000b9	0f 45 c2	 cmovne	 eax, edx
  000bc	89 45 d8	 mov	 DWORD PTR _szTitle$[ebp+20], eax
  000bf	8b 85 58 ff ff
	ff		 mov	 eax, DWORD PTR _nRow$1$[ebp]
$LN10@InitGridFo:

; 740  : 		szTitle[DAEBI_COL] = " ";
; 741  : 
; 742  : 
; 743  : 	//  Show/Hide      
; 744  : 	if (!m_bIsShowReserveCol)

  000c5	83 bb ac 01 00
	00 00		 cmp	 DWORD PTR [ebx+428], 0
  000cc	75 0e		 jne	 SHORT $LN11@InitGridFo

; 745  : 		szTitle[LEFT_CAN_COL] = szTitle[RIGHT_CAN_COL] = "";

  000ce	c7 45 e4 00 00
	00 00		 mov	 DWORD PTR _szTitle$[ebp+32], OFFSET ??_C@_04OJFMPMDJ@?C?k?$LM?R@
  000d5	c7 45 c8 00 00
	00 00		 mov	 DWORD PTR _szTitle$[ebp+4], OFFSET ??_C@_04OJFMPMDJ@?C?k?$LM?R@
$LN11@InitGridFo:

; 746  : 
; 747  : 	// fill rows/cols with text
; 748  : 	int row, col;	
; 749  : 	for (row = 0; row < nRow; row++)

  000dc	33 ff		 xor	 edi, edi
  000de	85 c0		 test	 eax, eax
  000e0	0f 8e 0b 03 00
	00		 jle	 $LN3@InitGridFo
  000e6	8b 85 54 ff ff
	ff		 mov	 eax, DWORD PTR _nCol$1$[ebp]
  000ec	8b 8d 58 ff ff
	ff		 mov	 ecx, DWORD PTR _nRow$1$[ebp]
$LL4@InitGridFo:

; 750  : 	{
; 751  : 		for (col = 0; col < nCol; col++)		// JSJ_Modify

  000f2	33 f6		 xor	 esi, esi
  000f4	85 c0		 test	 eax, eax
  000f6	0f 8e ec 02 00
	00		 jle	 $LN2@InitGridFo
  000fc	0f 1f 40 00	 npad	 4
$LL7@InitGridFo:
  00100	8d 4d c0	 lea	 ecx, DWORD PTR _Item$2[ebp+100]
  00103	ff 15 00 00 00
	00		 call	 DWORD PTR __imp_??0?$CStringT@DV?$StrTraitMFC_DLL@DV?$ChTraitsCRT@D@ATL@@@@@ATL@@QAE@XZ

; 752  : 		{ 
; 753  : 
; 754  : 			GV_ITEM Item;
; 755  : 			Item.mask = GVIF_TEXT|GVIF_FORMAT|GVIF_FGCLR|GVIF_BKCLR|GVIF_STATE;
; 756  : 			Item.nState = GVIS_READONLY | GVIS_MODIFIED ;//| GVIS_DROPHILITED;
; 757  : 			Item.row = row;
; 758  : 			Item.col = col;
; 759  : 			
; 760  : 			Item.nFormat = DT_VCENTER|DT_SINGLELINE|DT_NOPREFIX;//|DT_END_ELLIPSIS;
; 761  : 
; 762  : 			// Text
; 763  : 			Item.strText = "";

  00109	68 00 00 00 00	 push	 OFFSET ??_C@_00CNPNBAHC@@
  0010e	8d 4d c0	 lea	 ecx, DWORD PTR _Item$2[ebp+100]
  00111	c7 45 fc 00 00
	00 00		 mov	 DWORD PTR __$EHRec$[ebp+8], 0
  00118	c7 85 64 ff ff
	ff 79 00 00 00	 mov	 DWORD PTR _Item$2[ebp+8], 121 ; 00000079H
  00122	c7 85 68 ff ff
	ff 88 00 00 00	 mov	 DWORD PTR _Item$2[ebp+12], 136 ; 00000088H
  0012c	89 bd 5c ff ff
	ff		 mov	 DWORD PTR _Item$2[ebp], edi
  00132	89 b5 60 ff ff
	ff		 mov	 DWORD PTR _Item$2[ebp+4], esi
  00138	c7 85 6c ff ff
	ff 24 08 00 00	 mov	 DWORD PTR _Item$2[ebp+16], 2084 ; 00000824H
  00142	ff 15 00 00 00
	00		 call	 DWORD PTR __imp_??4?$CStringT@DV?$StrTraitMFC_DLL@DV?$ChTraitsCRT@D@ATL@@@@@ATL@@QAEAAV01@PBD@Z

; 764  : 
; 765  : 			if( row == TENHOGA_ROW_FIRST )

  00148	85 ff		 test	 edi, edi
  0014a	75 48		 jne	 SHORT $LN12@InitGridFo

; 766  : 			{
; 767  : 				Item.strText = szTitle[col];

  0014c	ff 74 b5 c4	 push	 DWORD PTR _szTitle$[ebp+esi*4]
  00150	8d 4d c0	 lea	 ecx, DWORD PTR _Item$2[ebp+100]
  00153	ff 15 00 00 00
	00		 call	 DWORD PTR __imp_??4?$CStringT@DV?$StrTraitMFC_DLL@DV?$ChTraitsCRT@D@ATL@@@@@ATL@@QAEAAV01@PBD@Z

; 768  : 
; 769  : 				if (col == HOGA_COL)

  00159	83 fe 04	 cmp	 esi, 4
  0015c	75 0f		 jne	 SHORT $LN14@InitGridFo

; 770  : 				{
; 771  : 					Item.iImage = 0;
; 772  : 					Item.mask  |= (GVIF_IMAGE);

  0015e	83 8d 64 ff ff
	ff 02		 or	 DWORD PTR _Item$2[ebp+8], 2
  00165	89 bd 70 ff ff
	ff		 mov	 DWORD PTR _Item$2[ebp+20], edi

; 773  : 				}
; 774  : 				
; 775  : 				if (col == DAEBI_COL)

  0016b	eb 05		 jmp	 SHORT $LN87@InitGridFo
$LN14@InitGridFo:
  0016d	83 fe 05	 cmp	 esi, 5
  00170	74 07		 je	 SHORT $LN88@InitGridFo
$LN87@InitGridFo:

; 776  : 					Item.nFormat |= DT_LEFT;
; 777  : 				else
; 778  : 					Item.nFormat |= DT_CENTER;

  00172	83 8d 6c ff ff
	ff 01		 or	 DWORD PTR _Item$2[ebp+16], 1
$LN88@InitGridFo:

; 817  : 				}
; 818  : 
; 819  : 				// Bold Font ------------------------------------>>
; 820  : //				if ( row <= m_nLowLimitRow && col == HOGA_COL)
; 821  : //					Item.nState |= GVIS_BOLDFONT;
; 822  : 				// <<----------------------------------------------
; 823  : 			}
; 824  : 
; 825  : 			
; 826  : 			// Color
; 827  : 			if(row == TENHOGA_ROW_FIRST)
; 828  : 			{
; 829  : 				Item.crBkClr = COLOR_GRIDHEADER;
; 830  : 				if (col == BONG_COL)

  00179	83 fe 0a	 cmp	 esi, 10			; 0000000aH
  0017c	b8 f2 f8 fe 00	 mov	 eax, 16709874		; 00fef8f2H
  00181	b9 ff ff ff 00	 mov	 ecx, 16777215		; 00ffffffH
  00186	0f 44 c1	 cmove	 eax, ecx
  00189	89 85 74 ff ff
	ff		 mov	 DWORD PTR _Item$2[ebp+24], eax

; 831  : 					Item.crBkClr = COLOR_WHITE;
; 832  : 
; 833  : 				Item.crFgClr = COLOR_BLACK;
; 834  : 			}

  0018f	e9 13 02 00 00	 jmp	 $LN92@InitGridFo
$LN12@InitGridFo:

; 779  : 			}
; 780  : 			else
; 781  : 			{
; 782  : 				if( col == HOGA_COL )					

  00194	83 fe 04	 cmp	 esi, 4
  00197	75 09		 jne	 SHORT $LN17@InitGridFo

; 783  : 				{
; 784  : 					Item.nFormat |= DT_CENTER;

  00199	83 8d 6c ff ff
	ff 01		 or	 DWORD PTR _Item$2[ebp+16], 1

; 785  : 
; 786  : 					//    (10)___JSJ_ADD_050126
; 787  : //					if( row == ETC_HOGAUP_ROW || row == ETC_HOGADOWN_ROW)
; 788  : //						Item.nState |= GVIS_CELLEDITABLE;
; 789  : 				}

  001a0	eb 46		 jmp	 SHORT $LN29@InitGridFo
$LN17@InitGridFo:

; 790  : 				else if (col == DAEBI_COL)

  001a2	83 fe 05	 cmp	 esi, 5
  001a5	74 3a		 je	 SHORT $LN23@InitGridFo

; 791  : 				{
; 792  : 					Item.nFormat |= DT_RIGHT;
; 793  : 				}
; 794  : 				else if( col == MAEDO_JAN_COL || col == MAESU_JAN_COL )

  001a7	83 fe 03	 cmp	 esi, 3
  001aa	74 35		 je	 SHORT $LN23@InitGridFo
  001ac	83 fe 06	 cmp	 esi, 6
  001af	74 30		 je	 SHORT $LN23@InitGridFo

; 795  : 				{
; 796  : 					Item.nFormat |= DT_RIGHT;
; 797  : 				}
; 798  : 				else if( col == LEFT_CAN_COL || col == RIGHT_CAN_COL )	

  001b1	83 fe 01	 cmp	 esi, 1
  001b4	74 32		 je	 SHORT $LN29@InitGridFo
  001b6	83 fe 08	 cmp	 esi, 8
  001b9	74 2d		 je	 SHORT $LN29@InitGridFo

; 799  : 				{
; 800  : //					if( m_pGridCtrl->InsideStaticLeft(row, col) )
; 801  : //					{
; 802  : //						Item.nState = GVIS_MODIFIED ;
; 803  : //					}
; 804  : //					else if( m_pGridCtrl->InsideStaticRight(row, col) )
; 805  : //					{
; 806  : //						Item.nState = GVIS_MODIFIED ;
; 807  : //					}
; 808  : //					
; 809  : //					Item.nFormat |= DT_CENTER;
; 810  : 				}
; 811  : 				else
; 812  : 				{
; 813  : 					if( col == MAEDO_COL || col == MAESU_COL || col == MAEDO_RESERVE_COL || col == MAESU_RESERVE_COL )

  001bb	83 fe 02	 cmp	 esi, 2
  001be	74 0e		 je	 SHORT $LN28@InitGridFo
  001c0	83 fe 07	 cmp	 esi, 7
  001c3	74 09		 je	 SHORT $LN28@InitGridFo
  001c5	85 f6		 test	 esi, esi
  001c7	74 05		 je	 SHORT $LN28@InitGridFo
  001c9	83 fe 09	 cmp	 esi, 9
  001cc	75 0a		 jne	 SHORT $LN27@InitGridFo
$LN28@InitGridFo:

; 814  : 						Item.nState = GVIS_MODIFIED ;

  001ce	c7 85 68 ff ff
	ff 80 00 00 00	 mov	 DWORD PTR _Item$2[ebp+12], 128 ; 00000080H
$LN27@InitGridFo:

; 815  : 					
; 816  : 					Item.nFormat |= DT_CENTER;

  001d8	83 8d 6c ff ff
	ff 01		 or	 DWORD PTR _Item$2[ebp+16], 1
  001df	eb 07		 jmp	 SHORT $LN29@InitGridFo
$LN23@InitGridFo:

; 835  : //			else if(row == MARKETPRICE_ROW)
; 836  : //			{
; 837  : //				if (col > MAEDO_COL && col < MAESU_COL)
; 838  : //				{
; 839  : //					Item.crBkClr = COLOR_MARKET_PRICE;
; 840  : //					Item.crFgClr = COLOR_BLACK;
; 841  : //				}
; 842  : //				else if (col == MAEDO_COL)
; 843  : //				{
; 844  : //					Item.crBkClr = COLOR_STATIC_MAEDO_BG;
; 845  : //					Item.crFgClr = COLOR_BLACK;
; 846  : //				}
; 847  : //				else if (col == MAESU_COL)
; 848  : //				{
; 849  : //					Item.crBkClr = COLOR_STATIC_MAESU_BG;
; 850  : //					Item.crFgClr = COLOR_BLACK;
; 851  : //				}
; 852  : //				else if (col == MAEDO_RESERVE_COL)
; 853  : //				{
; 854  : //					Item.crBkClr = COLOR_MAEDO_RESERVE_COL;
; 855  : //					Item.crFgClr = COLOR_BLACK;
; 856  : //				}
; 857  : //				else if (col == MAESU_RESERVE_COL)
; 858  : //				{
; 859  : //					Item.crBkClr = COLOR_MAESU_RESERVE_COL;
; 860  : //					Item.crFgClr = COLOR_BLACK;
; 861  : //				}
; 862  : //				else
; 863  : //				{
; 864  : //					Item.crBkClr = COLOR_WHITE;
; 865  : //					Item.crFgClr = COLOR_BLACK;
; 866  : //				}
; 867  : //			}
; 868  : 			else if(row == HIGH_ROW)

  001e1	83 8d 6c ff ff
	ff 02		 or	 DWORD PTR _Item$2[ebp+16], 2
$LN29@InitGridFo:
  001e8	83 ff 02	 cmp	 edi, 2
  001eb	0f 85 86 00 00
	00		 jne	 $LN32@InitGridFo

; 869  : 			{
; 870  : 				if (col == HOGA_COL)

  001f1	83 fe 04	 cmp	 esi, 4
  001f4	75 19		 jne	 SHORT $LN34@InitGridFo

; 871  : 				{
; 872  : 					Item.crBkClr = COLOR_RED;

  001f6	c7 85 74 ff ff
	ff ff 00 00 00	 mov	 DWORD PTR _Item$2[ebp+24], 255 ; 000000ffH

; 873  : 					Item.crFgClr = COLOR_WHITE;

  00200	c7 85 78 ff ff
	ff ff ff ff 00	 mov	 DWORD PTR _Item$2[ebp+28], 16777215 ; 00ffffffH

; 874  : 				}

  0020a	e9 a2 01 00 00	 jmp	 $LN69@InitGridFo
$LN34@InitGridFo:

; 875  : 				else if (col == MAEDO_COL)

  0020f	83 fe 02	 cmp	 esi, 2
  00212	75 0f		 jne	 SHORT $LN36@InitGridFo

; 876  : 				{
; 877  : 					Item.crBkClr = COLOR_STATIC_MAEDO_BG;

  00214	c7 85 74 ff ff
	ff ed f7 ff 00	 mov	 DWORD PTR _Item$2[ebp+24], 16775149 ; 00fff7edH

; 878  : 					Item.crFgClr = COLOR_BLACK;
; 879  : 				}

  0021e	e9 84 01 00 00	 jmp	 $LN92@InitGridFo
